	.text
	.syntax unified
	.eabi_attribute	67, "2.09"	@ Tag_conformance
	.cpu	cortex-m7
	.eabi_attribute	6, 13	@ Tag_CPU_arch
	.eabi_attribute	7, 77	@ Tag_CPU_arch_profile
	.eabi_attribute	8, 0	@ Tag_ARM_ISA_use
	.eabi_attribute	9, 2	@ Tag_THUMB_ISA_use
	.fpu	fpv5-d16
	.eabi_attribute	36, 1	@ Tag_FP_HP_extension
	.eabi_attribute	34, 1	@ Tag_CPU_unaligned_access
	.eabi_attribute	17, 1	@ Tag_ABI_PCS_GOT_use
	.eabi_attribute	20, 2	@ Tag_ABI_FP_denormal
	.eabi_attribute	21, 0	@ Tag_ABI_FP_exceptions
	.eabi_attribute	23, 1	@ Tag_ABI_FP_number_model
	.eabi_attribute	24, 1	@ Tag_ABI_align_needed
	.eabi_attribute	25, 1	@ Tag_ABI_align_preserved
	.eabi_attribute	28, 1	@ Tag_ABI_VFP_args
	.eabi_attribute	38, 1	@ Tag_ABI_FP_16bit_format
	.eabi_attribute	18, 2	@ Tag_ABI_PCS_wchar_t
	.eabi_attribute	26, 1	@ Tag_ABI_enum_size
	.eabi_attribute	14, 0	@ Tag_ABI_PCS_R9_use
	.file	"lv_slider.c"
	.file	1 "D:\\Keil_v5\\ARM\\ARMCLANG\\Bin\\..\\include" "stdint.h"
	.file	2 "E:\\Smart-access-control\\Hardware\\CODE" "lvgl/src/lv_widgets/../lv_themes/../lv_core/lv_obj.h"
	.file	3 "E:\\Smart-access-control\\Hardware\\CODE" "lvgl/src/lv_widgets/../lv_core/../lv_font/../lv_misc/lv_ll.h"
	.file	4 "E:\\Smart-access-control\\Hardware\\CODE" "./lvgl/src/lv_conf.h"
	.file	5 "E:\\Smart-access-control\\Hardware\\CODE" "lvgl/src/lv_widgets/../lv_core/../lv_hal/../lv_misc/lv_area.h"
	.file	6 "E:\\Smart-access-control\\Hardware\\CODE" "lvgl/src/lv_widgets/../lv_core/../lv_draw/../lv_misc/lv_types.h"
	.file	7 "E:\\Smart-access-control\\Hardware\\CODE" "lvgl/src/lv_widgets/../lv_themes/../lv_core/lv_style.h"
	.file	8 "E:\\Smart-access-control\\Hardware\\CODE" "lvgl/src/lv_widgets/../lv_core/../lv_hal/lv_hal_indev.h"
	.file	9 "E:\\Smart-access-control\\Hardware\\CODE" "lvgl/src/lv_widgets/../lv_core/../lv_draw/../lv_misc/lv_bidi.h"
	.file	10 "E:\\Smart-access-control\\Hardware\\CODE" "lvgl/src/lv_widgets/lv_slider.c"
	.file	11 "E:\\Smart-access-control\\Hardware\\CODE" "lvgl/src/lv_widgets/../lv_themes/lv_theme.h"
	.file	12 "E:\\Smart-access-control\\Hardware\\CODE" "lvgl/src/lv_widgets/lv_bar.h"
	.file	13 "E:\\Smart-access-control\\Hardware\\CODE" "lvgl/src/lv_widgets/lv_slider.h"
	.file	14 "E:\\Smart-access-control\\Hardware\\CODE" "lvgl/src/lv_widgets/../lv_core/lv_group.h"
	.file	15 "E:\\Smart-access-control\\Hardware\\CODE" "lvgl/src/lv_widgets/../lv_misc/lv_anim.h"
	.section	.text.lv_slider_create,"ax",%progbits
	.hidden	lv_slider_create                @ -- Begin function lv_slider_create
	.globl	lv_slider_create
	.p2align	3
	.type	lv_slider_create,%function
	.code	16                              @ @lv_slider_create
	.thumb_func
lv_slider_create:
.Lfunc_begin0:
	.loc	10 62 0                         @ lvgl/src/lv_widgets/lv_slider.c:62:0
	.fnstart
	.cfi_sections .debug_frame
	.cfi_startproc
@ %bb.0:
	.save	{r7, lr}
	push	{r7, lr}
	.cfi_def_cfa_offset 8
	.cfi_offset lr, -4
	.cfi_offset r7, -8
	.pad	#32
	sub	sp, #32
	.cfi_def_cfa_offset 40
	str	r0, [sp, #24]
	str	r1, [sp, #20]
.Ltmp0:
	.loc	10 66 39 prologue_end           @ lvgl/src/lv_widgets/lv_slider.c:66:39
	ldr	r0, [sp, #24]
	.loc	10 66 44 is_stmt 0              @ lvgl/src/lv_widgets/lv_slider.c:66:44
	ldr	r1, [sp, #20]
	.loc	10 66 25                        @ lvgl/src/lv_widgets/lv_slider.c:66:25
	bl	lv_bar_create
	.loc	10 66 16                        @ lvgl/src/lv_widgets/lv_slider.c:66:16
	str	r0, [sp, #16]
	.loc	10 67 5 is_stmt 1               @ lvgl/src/lv_widgets/lv_slider.c:67:5
	b	.LBB0_1
.LBB0_1:
.Ltmp1:
	.loc	10 67 5 is_stmt 0               @ lvgl/src/lv_widgets/lv_slider.c:67:5
	ldr	r0, [sp, #16]
	bl	lv_debug_check_null
.Ltmp2:
	.loc	10 67 5                         @ lvgl/src/lv_widgets/lv_slider.c:67:5
	cbnz	r0, .LBB0_4
	b	.LBB0_2
.LBB0_2:
.Ltmp3:
	.loc	10 67 5                         @ lvgl/src/lv_widgets/lv_slider.c:67:5
	ldr	r2, [sp, #16]
	movw	r0, :lower16:.L.str
	movt	r0, :upper16:.L.str
	movs	r3, #0
	bl	lv_debug_log_error
	b	.LBB0_3
.LBB0_3:                                @ =>This Inner Loop Header: Depth=1
	b	.LBB0_3
.Ltmp4:
.LBB0_4:
	.loc	10 67 5                         @ lvgl/src/lv_widgets/lv_slider.c:67:5
	b	.LBB0_5
.Ltmp5:
.LBB0_5:
	.loc	10 68 8 is_stmt 1               @ lvgl/src/lv_widgets/lv_slider.c:68:8
	ldr	r0, [sp, #16]
.Ltmp6:
	.loc	10 68 8 is_stmt 0               @ lvgl/src/lv_widgets/lv_slider.c:68:8
	cbnz	r0, .LBB0_7
	b	.LBB0_6
.LBB0_6:
	.loc	10 0 8                          @ lvgl/src/lv_widgets/lv_slider.c:0:8
	movs	r0, #0
.Ltmp7:
	.loc	10 68 24                        @ lvgl/src/lv_widgets/lv_slider.c:68:24
	str	r0, [sp, #28]
	b	.LBB0_22
.Ltmp8:
.LBB0_7:
	.loc	10 70 8 is_stmt 1               @ lvgl/src/lv_widgets/lv_slider.c:70:8
	movw	r0, :lower16:ancestor_design_f
	movt	r0, :upper16:ancestor_design_f
	ldr	r0, [r0]
.Ltmp9:
	.loc	10 70 8 is_stmt 0               @ lvgl/src/lv_widgets/lv_slider.c:70:8
	cbnz	r0, .LBB0_9
	b	.LBB0_8
.LBB0_8:
.Ltmp10:
	.loc	10 70 76                        @ lvgl/src/lv_widgets/lv_slider.c:70:76
	ldr	r0, [sp, #16]
	.loc	10 70 55                        @ lvgl/src/lv_widgets/lv_slider.c:70:55
	bl	lv_obj_get_design_cb
	.loc	10 70 53                        @ lvgl/src/lv_widgets/lv_slider.c:70:53
	movw	r1, :lower16:ancestor_design_f
	movt	r1, :upper16:ancestor_design_f
	str	r0, [r1]
	.loc	10 70 35                        @ lvgl/src/lv_widgets/lv_slider.c:70:35
	b	.LBB0_9
.Ltmp11:
.LBB0_9:
	.loc	10 71 8 is_stmt 1               @ lvgl/src/lv_widgets/lv_slider.c:71:8
	movw	r0, :lower16:ancestor_signal
	movt	r0, :upper16:ancestor_signal
	ldr	r0, [r0]
.Ltmp12:
	.loc	10 71 8 is_stmt 0               @ lvgl/src/lv_widgets/lv_slider.c:71:8
	cbnz	r0, .LBB0_11
	b	.LBB0_10
.LBB0_10:
.Ltmp13:
	.loc	10 71 72                        @ lvgl/src/lv_widgets/lv_slider.c:71:72
	ldr	r0, [sp, #16]
	.loc	10 71 51                        @ lvgl/src/lv_widgets/lv_slider.c:71:51
	bl	lv_obj_get_signal_cb
	.loc	10 71 49                        @ lvgl/src/lv_widgets/lv_slider.c:71:49
	movw	r1, :lower16:ancestor_signal
	movt	r1, :upper16:ancestor_signal
	str	r0, [r1]
	.loc	10 71 33                        @ lvgl/src/lv_widgets/lv_slider.c:71:33
	b	.LBB0_11
.Ltmp14:
.LBB0_11:
	.loc	10 74 54 is_stmt 1              @ lvgl/src/lv_widgets/lv_slider.c:74:54
	ldr	r0, [sp, #16]
	movs	r1, #88
	.loc	10 74 29 is_stmt 0              @ lvgl/src/lv_widgets/lv_slider.c:74:29
	bl	lv_obj_allocate_ext_attr
	.loc	10 74 23                        @ lvgl/src/lv_widgets/lv_slider.c:74:23
	str	r0, [sp, #12]
	.loc	10 75 5 is_stmt 1               @ lvgl/src/lv_widgets/lv_slider.c:75:5
	b	.LBB0_12
.LBB0_12:
.Ltmp15:
	.loc	10 75 5 is_stmt 0               @ lvgl/src/lv_widgets/lv_slider.c:75:5
	ldr	r0, [sp, #12]
	bl	lv_debug_check_null
.Ltmp16:
	.loc	10 75 5                         @ lvgl/src/lv_widgets/lv_slider.c:75:5
	cbnz	r0, .LBB0_15
	b	.LBB0_13
.LBB0_13:
.Ltmp17:
	.loc	10 75 5                         @ lvgl/src/lv_widgets/lv_slider.c:75:5
	ldr	r2, [sp, #12]
	movw	r0, :lower16:.L.str
	movt	r0, :upper16:.L.str
	movs	r3, #0
	bl	lv_debug_log_error
	b	.LBB0_14
.LBB0_14:                               @ =>This Inner Loop Header: Depth=1
	b	.LBB0_14
.Ltmp18:
.LBB0_15:
	.loc	10 75 5                         @ lvgl/src/lv_widgets/lv_slider.c:75:5
	b	.LBB0_16
.Ltmp19:
.LBB0_16:
	.loc	10 76 8 is_stmt 1               @ lvgl/src/lv_widgets/lv_slider.c:76:8
	ldr	r0, [sp, #12]
.Ltmp20:
	.loc	10 76 8 is_stmt 0               @ lvgl/src/lv_widgets/lv_slider.c:76:8
	cbnz	r0, .LBB0_18
	b	.LBB0_17
.LBB0_17:
.Ltmp21:
	.loc	10 77 20 is_stmt 1              @ lvgl/src/lv_widgets/lv_slider.c:77:20
	ldr	r0, [sp, #16]
	.loc	10 77 9 is_stmt 0               @ lvgl/src/lv_widgets/lv_slider.c:77:9
	bl	lv_obj_del
	movs	r0, #0
	.loc	10 78 9 is_stmt 1               @ lvgl/src/lv_widgets/lv_slider.c:78:9
	str	r0, [sp, #28]
	b	.LBB0_22
.Ltmp22:
.LBB0_18:
	.loc	10 82 5                         @ lvgl/src/lv_widgets/lv_slider.c:82:5
	ldr	r1, [sp, #12]
	movs	r0, #0
	.loc	10 82 23 is_stmt 0              @ lvgl/src/lv_widgets/lv_slider.c:82:23
	str	r0, [r1, #80]
	.loc	10 83 5 is_stmt 1               @ lvgl/src/lv_widgets/lv_slider.c:83:5
	ldr	r1, [sp, #12]
	.loc	10 83 19 is_stmt 0              @ lvgl/src/lv_widgets/lv_slider.c:83:19
	ldrb.w	r0, [r1, #84]
	and	r0, r0, #254
	strb.w	r0, [r1, #84]
	.loc	10 84 5 is_stmt 1               @ lvgl/src/lv_widgets/lv_slider.c:84:5
	ldr	r1, [sp, #12]
	.loc	10 84 26 is_stmt 0              @ lvgl/src/lv_widgets/lv_slider.c:84:26
	ldrb.w	r0, [r1, #84]
	and	r0, r0, #253
	strb.w	r0, [r1, #84]
	.loc	10 85 25 is_stmt 1              @ lvgl/src/lv_widgets/lv_slider.c:85:25
	ldr	r0, [sp, #12]
	.loc	10 85 30 is_stmt 0              @ lvgl/src/lv_widgets/lv_slider.c:85:30
	adds	r0, #56
	.loc	10 85 5                         @ lvgl/src/lv_widgets/lv_slider.c:85:5
	bl	lv_style_list_init
	.loc	10 88 26 is_stmt 1              @ lvgl/src/lv_widgets/lv_slider.c:88:26
	ldr	r0, [sp, #16]
	.loc	10 88 5 is_stmt 0               @ lvgl/src/lv_widgets/lv_slider.c:88:5
	movw	r1, :lower16:lv_slider_signal
	movt	r1, :upper16:lv_slider_signal
	bl	lv_obj_set_signal_cb
	.loc	10 89 26 is_stmt 1              @ lvgl/src/lv_widgets/lv_slider.c:89:26
	ldr	r0, [sp, #16]
	.loc	10 89 5 is_stmt 0               @ lvgl/src/lv_widgets/lv_slider.c:89:5
	movw	r1, :lower16:lv_slider_design
	movt	r1, :upper16:lv_slider_design
	bl	lv_obj_set_design_cb
.Ltmp23:
	.loc	10 92 8 is_stmt 1               @ lvgl/src/lv_widgets/lv_slider.c:92:8
	ldr	r0, [sp, #20]
.Ltmp24:
	.loc	10 92 8 is_stmt 0               @ lvgl/src/lv_widgets/lv_slider.c:92:8
	cbnz	r0, .LBB0_20
	b	.LBB0_19
.LBB0_19:
.Ltmp25:
	.loc	10 93 26 is_stmt 1              @ lvgl/src/lv_widgets/lv_slider.c:93:26
	ldr	r0, [sp, #16]
	movs	r1, #1
	.loc	10 93 9 is_stmt 0               @ lvgl/src/lv_widgets/lv_slider.c:93:9
	bl	lv_obj_set_click
	.loc	10 94 28 is_stmt 1              @ lvgl/src/lv_widgets/lv_slider.c:94:28
	ldr	r0, [sp, #16]
	movs	r1, #16
	.loc	10 94 9 is_stmt 0               @ lvgl/src/lv_widgets/lv_slider.c:94:9
	bl	lv_obj_add_protect
	.loc	10 95 35 is_stmt 1              @ lvgl/src/lv_widgets/lv_slider.c:95:35
	ldr	r0, [sp, #16]
	.loc	10 95 9 is_stmt 0               @ lvgl/src/lv_widgets/lv_slider.c:95:9
	mov	r1, sp
	movs	r3, #13
	str	r3, [r1]
	movs	r2, #0
	mov	r1, r2
	bl	lv_obj_set_ext_click_area
	.loc	10 97 24 is_stmt 1              @ lvgl/src/lv_widgets/lv_slider.c:97:24
	ldr	r0, [sp, #16]
	movs	r1, #29
	.loc	10 97 9 is_stmt 0               @ lvgl/src/lv_widgets/lv_slider.c:97:9
	bl	lv_theme_apply
	.loc	10 98 27 is_stmt 1              @ lvgl/src/lv_widgets/lv_slider.c:98:27
	ldr	r0, [sp, #16]
	movs	r1, #8
	.loc	10 98 9 is_stmt 0               @ lvgl/src/lv_widgets/lv_slider.c:98:9
	bl	lv_obj_set_height
	.loc	10 99 5 is_stmt 1               @ lvgl/src/lv_widgets/lv_slider.c:99:5
	b	.LBB0_21
.Ltmp26:
.LBB0_20:
	.loc	10 102 58                       @ lvgl/src/lv_widgets/lv_slider.c:102:58
	ldr	r0, [sp, #20]
	.loc	10 102 38 is_stmt 0             @ lvgl/src/lv_widgets/lv_slider.c:102:38
	bl	lv_obj_get_ext_attr
	.loc	10 102 27                       @ lvgl/src/lv_widgets/lv_slider.c:102:27
	str	r0, [sp, #8]
	.loc	10 103 29 is_stmt 1             @ lvgl/src/lv_widgets/lv_slider.c:103:29
	ldr	r0, [sp, #12]
	.loc	10 103 34 is_stmt 0             @ lvgl/src/lv_widgets/lv_slider.c:103:34
	adds	r0, #56
	.loc	10 103 47                       @ lvgl/src/lv_widgets/lv_slider.c:103:47
	ldr	r1, [sp, #8]
	.loc	10 103 57                       @ lvgl/src/lv_widgets/lv_slider.c:103:57
	adds	r1, #56
	.loc	10 103 9                        @ lvgl/src/lv_widgets/lv_slider.c:103:9
	bl	lv_style_list_copy
	.loc	10 104 23 is_stmt 1             @ lvgl/src/lv_widgets/lv_slider.c:104:23
	ldr	r0, [sp, #12]
	.loc	10 104 28 is_stmt 0             @ lvgl/src/lv_widgets/lv_slider.c:104:28
	adds	r0, #64
	.loc	10 104 45                       @ lvgl/src/lv_widgets/lv_slider.c:104:45
	ldr	r1, [sp, #8]
	.loc	10 104 55                       @ lvgl/src/lv_widgets/lv_slider.c:104:55
	adds	r1, #64
	.loc	10 104 9                        @ lvgl/src/lv_widgets/lv_slider.c:104:9
	bl	lv_area_copy
	.loc	10 105 23 is_stmt 1             @ lvgl/src/lv_widgets/lv_slider.c:105:23
	ldr	r0, [sp, #12]
	.loc	10 105 28 is_stmt 0             @ lvgl/src/lv_widgets/lv_slider.c:105:28
	adds	r0, #72
	.loc	10 105 46                       @ lvgl/src/lv_widgets/lv_slider.c:105:46
	ldr	r1, [sp, #8]
	.loc	10 105 56                       @ lvgl/src/lv_widgets/lv_slider.c:105:56
	adds	r1, #72
	.loc	10 105 9                        @ lvgl/src/lv_widgets/lv_slider.c:105:9
	bl	lv_area_copy
	.loc	10 107 30 is_stmt 1             @ lvgl/src/lv_widgets/lv_slider.c:107:30
	ldr	r0, [sp, #16]
	movs	r2, #255
	.loc	10 107 9 is_stmt 0              @ lvgl/src/lv_widgets/lv_slider.c:107:9
	mov	r1, r2
	bl	lv_obj_refresh_style
	b	.LBB0_21
.Ltmp27:
.LBB0_21:
	.loc	10 112 12 is_stmt 1             @ lvgl/src/lv_widgets/lv_slider.c:112:12
	ldr	r0, [sp, #16]
	.loc	10 112 5 is_stmt 0              @ lvgl/src/lv_widgets/lv_slider.c:112:5
	str	r0, [sp, #28]
	b	.LBB0_22
.LBB0_22:
	.loc	10 113 1 is_stmt 1              @ lvgl/src/lv_widgets/lv_slider.c:113:1
	ldr	r0, [sp, #28]
	add	sp, #32
	pop	{r7, pc}
.Ltmp28:
.Lfunc_end0:
	.size	lv_slider_create, .Lfunc_end0-lv_slider_create
	.cfi_endproc
	.cantunwind
	.fnend
                                        @ -- End function
	.section	.text.lv_slider_signal,"ax",%progbits
	.p2align	3                               @ -- Begin function lv_slider_signal
	.type	lv_slider_signal,%function
	.code	16                              @ @lv_slider_signal
	.thumb_func
lv_slider_signal:
.Lfunc_begin1:
	.loc	10 248 0                        @ lvgl/src/lv_widgets/lv_slider.c:248:0
	.fnstart
	.cfi_startproc
@ %bb.0:
	.save	{r7, lr}
	push	{r7, lr}
	.cfi_def_cfa_offset 8
	.cfi_offset lr, -4
	.cfi_offset r7, -8
	.pad	#192
	sub	sp, #192
	.cfi_def_cfa_offset 200
                                        @ kill: def $r3 killed $r1
	str	r0, [sp, #184]
	strb.w	r1, [sp, #183]
	str	r2, [sp, #176]
.Ltmp29:
	.loc	10 251 8 prologue_end           @ lvgl/src/lv_widgets/lv_slider.c:251:8
	ldrb.w	r0, [sp, #183]
.Ltmp30:
	.loc	10 251 8 is_stmt 0              @ lvgl/src/lv_widgets/lv_slider.c:251:8
	cmp	r0, #8
	bne	.LBB1_4
	b	.LBB1_1
.LBB1_1:
.Ltmp31:
	.loc	10 252 38 is_stmt 1             @ lvgl/src/lv_widgets/lv_slider.c:252:38
	ldr	r0, [sp, #176]
	.loc	10 252 31 is_stmt 0             @ lvgl/src/lv_widgets/lv_slider.c:252:31
	str	r0, [sp, #168]
	.loc	10 253 44 is_stmt 1             @ lvgl/src/lv_widgets/lv_slider.c:253:44
	ldr	r0, [sp, #184]
	.loc	10 253 52 is_stmt 0             @ lvgl/src/lv_widgets/lv_slider.c:253:52
	ldr	r1, [sp, #168]
	.loc	10 253 58                       @ lvgl/src/lv_widgets/lv_slider.c:253:58
	ldrb	r1, [r1]
	.loc	10 253 24                       @ lvgl/src/lv_widgets/lv_slider.c:253:24
	bl	lv_slider_get_style
	.loc	10 253 9                        @ lvgl/src/lv_widgets/lv_slider.c:253:9
	ldr	r1, [sp, #168]
	.loc	10 253 22                       @ lvgl/src/lv_widgets/lv_slider.c:253:22
	str	r0, [r1, #4]
.Ltmp32:
	.loc	10 254 12 is_stmt 1             @ lvgl/src/lv_widgets/lv_slider.c:254:12
	ldr	r0, [sp, #168]
	.loc	10 254 18 is_stmt 0             @ lvgl/src/lv_widgets/lv_slider.c:254:18
	ldr	r0, [r0, #4]
.Ltmp33:
	.loc	10 254 12                       @ lvgl/src/lv_widgets/lv_slider.c:254:12
	cbz	r0, .LBB1_3
	b	.LBB1_2
.LBB1_2:
	.loc	10 0 12                         @ lvgl/src/lv_widgets/lv_slider.c:0:12
	movs	r0, #1
.Ltmp34:
	.loc	10 254 34                       @ lvgl/src/lv_widgets/lv_slider.c:254:34
	strb.w	r0, [sp, #191]
	b.w	.LBB1_158
.LBB1_3:
	.loc	10 255 21 is_stmt 1             @ lvgl/src/lv_widgets/lv_slider.c:255:21
	movw	r0, :lower16:ancestor_signal
	movt	r0, :upper16:ancestor_signal
	ldr	r3, [r0]
	.loc	10 255 37 is_stmt 0             @ lvgl/src/lv_widgets/lv_slider.c:255:37
	ldr	r0, [sp, #184]
	.loc	10 255 45                       @ lvgl/src/lv_widgets/lv_slider.c:255:45
	ldrb.w	r1, [sp, #183]
	.loc	10 255 51                       @ lvgl/src/lv_widgets/lv_slider.c:255:51
	ldr	r2, [sp, #176]
	.loc	10 255 21                       @ lvgl/src/lv_widgets/lv_slider.c:255:21
	blx	r3
	.loc	10 255 14                       @ lvgl/src/lv_widgets/lv_slider.c:255:14
	strb.w	r0, [sp, #191]
	b.w	.LBB1_158
.Ltmp35:
.LBB1_4:
	.loc	10 259 11 is_stmt 1             @ lvgl/src/lv_widgets/lv_slider.c:259:11
	movw	r0, :lower16:ancestor_signal
	movt	r0, :upper16:ancestor_signal
	ldr	r3, [r0]
	.loc	10 259 27 is_stmt 0             @ lvgl/src/lv_widgets/lv_slider.c:259:27
	ldr	r0, [sp, #184]
	.loc	10 259 35                       @ lvgl/src/lv_widgets/lv_slider.c:259:35
	ldrb.w	r1, [sp, #183]
	.loc	10 259 41                       @ lvgl/src/lv_widgets/lv_slider.c:259:41
	ldr	r2, [sp, #176]
	.loc	10 259 11                       @ lvgl/src/lv_widgets/lv_slider.c:259:11
	blx	r3
	.loc	10 259 9                        @ lvgl/src/lv_widgets/lv_slider.c:259:9
	strb.w	r0, [sp, #175]
.Ltmp36:
	.loc	10 260 8 is_stmt 1              @ lvgl/src/lv_widgets/lv_slider.c:260:8
	ldrb.w	r0, [sp, #175]
.Ltmp37:
	.loc	10 260 8 is_stmt 0              @ lvgl/src/lv_widgets/lv_slider.c:260:8
	cmp	r0, #1
	beq	.LBB1_6
	b	.LBB1_5
.LBB1_5:
.Ltmp38:
	.loc	10 260 33                       @ lvgl/src/lv_widgets/lv_slider.c:260:33
	ldrb.w	r0, [sp, #175]
	.loc	10 260 26                       @ lvgl/src/lv_widgets/lv_slider.c:260:26
	strb.w	r0, [sp, #191]
	b.w	.LBB1_158
.Ltmp39:
.LBB1_6:
	.loc	10 261 8 is_stmt 1              @ lvgl/src/lv_widgets/lv_slider.c:261:8
	ldrb.w	r0, [sp, #183]
.Ltmp40:
	.loc	10 261 8 is_stmt 0              @ lvgl/src/lv_widgets/lv_slider.c:261:8
	cmp	r0, #7
	bne	.LBB1_8
	b	.LBB1_7
.LBB1_7:
.Ltmp41:
	.loc	10 261 73                       @ lvgl/src/lv_widgets/lv_slider.c:261:73
	ldr	r0, [sp, #176]
	.loc	10 261 43                       @ lvgl/src/lv_widgets/lv_slider.c:261:43
	movw	r1, :lower16:.L.str.2
	movt	r1, :upper16:.L.str.2
	bl	lv_obj_handle_get_type_signal
	.loc	10 261 36                       @ lvgl/src/lv_widgets/lv_slider.c:261:36
	strb.w	r0, [sp, #191]
	b.w	.LBB1_158
.Ltmp42:
.LBB1_8:
	.loc	10 263 48 is_stmt 1             @ lvgl/src/lv_widgets/lv_slider.c:263:48
	ldr	r0, [sp, #184]
	.loc	10 263 29 is_stmt 0             @ lvgl/src/lv_widgets/lv_slider.c:263:29
	bl	lv_slider_get_type
	.loc	10 263 22                       @ lvgl/src/lv_widgets/lv_slider.c:263:22
	strb.w	r0, [sp, #167]
	.loc	10 264 49 is_stmt 1             @ lvgl/src/lv_widgets/lv_slider.c:264:49
	ldr	r0, [sp, #184]
	.loc	10 264 29 is_stmt 0             @ lvgl/src/lv_widgets/lv_slider.c:264:29
	bl	lv_obj_get_ext_attr
	.loc	10 264 23                       @ lvgl/src/lv_widgets/lv_slider.c:264:23
	str	r0, [sp, #160]
.Ltmp43:
	.loc	10 267 8 is_stmt 1              @ lvgl/src/lv_widgets/lv_slider.c:267:8
	ldrb.w	r0, [sp, #183]
.Ltmp44:
	.loc	10 267 8 is_stmt 0              @ lvgl/src/lv_widgets/lv_slider.c:267:8
	cmp	r0, #10
	bne	.LBB1_13
	b	.LBB1_9
.LBB1_9:
.Ltmp45:
	.loc	10 268 37 is_stmt 1             @ lvgl/src/lv_widgets/lv_slider.c:268:37
	ldr	r0, [sp, #176]
	.loc	10 268 30 is_stmt 0             @ lvgl/src/lv_widgets/lv_slider.c:268:30
	str	r0, [sp, #156]
	.loc	10 271 46 is_stmt 1             @ lvgl/src/lv_widgets/lv_slider.c:271:46
	ldr	r0, [sp, #160]
	.loc	10 271 51 is_stmt 0             @ lvgl/src/lv_widgets/lv_slider.c:271:51
	adds	r0, #72
	.loc	10 271 68                       @ lvgl/src/lv_widgets/lv_slider.c:271:68
	ldr	r1, [sp, #156]
	.loc	10 271 74                       @ lvgl/src/lv_widgets/lv_slider.c:271:74
	ldr	r1, [r1]
	movs	r2, #0
	.loc	10 271 24                       @ lvgl/src/lv_widgets/lv_slider.c:271:24
	bl	_lv_area_is_point_on
	.loc	10 271 9                        @ lvgl/src/lv_widgets/lv_slider.c:271:9
	ldr	r1, [sp, #156]
	.loc	10 271 22                       @ lvgl/src/lv_widgets/lv_slider.c:271:22
	strb	r0, [r1, #4]
.Ltmp46:
	.loc	10 274 13 is_stmt 1             @ lvgl/src/lv_widgets/lv_slider.c:274:13
	ldr	r0, [sp, #156]
	.loc	10 274 19 is_stmt 0             @ lvgl/src/lv_widgets/lv_slider.c:274:19
	ldrb	r0, [r0, #4]
	.loc	10 274 36                       @ lvgl/src/lv_widgets/lv_slider.c:274:36
	lsls	r0, r0, #31
	cbnz	r0, .LBB1_12
	b	.LBB1_10
.LBB1_10:
	.loc	10 274 40                       @ lvgl/src/lv_widgets/lv_slider.c:274:40
	ldrb.w	r0, [sp, #167]
.Ltmp47:
	.loc	10 274 12                       @ lvgl/src/lv_widgets/lv_slider.c:274:12
	cmp	r0, #2
	bne	.LBB1_12
	b	.LBB1_11
.LBB1_11:
.Ltmp48:
	.loc	10 275 50 is_stmt 1             @ lvgl/src/lv_widgets/lv_slider.c:275:50
	ldr	r0, [sp, #160]
	.loc	10 275 55 is_stmt 0             @ lvgl/src/lv_widgets/lv_slider.c:275:55
	adds	r0, #64
	.loc	10 275 71                       @ lvgl/src/lv_widgets/lv_slider.c:275:71
	ldr	r1, [sp, #156]
	.loc	10 275 77                       @ lvgl/src/lv_widgets/lv_slider.c:275:77
	ldr	r1, [r1]
	movs	r2, #0
	.loc	10 275 28                       @ lvgl/src/lv_widgets/lv_slider.c:275:28
	bl	_lv_area_is_point_on
	.loc	10 275 13                       @ lvgl/src/lv_widgets/lv_slider.c:275:13
	ldr	r1, [sp, #156]
	.loc	10 275 26                       @ lvgl/src/lv_widgets/lv_slider.c:275:26
	strb	r0, [r1, #4]
	.loc	10 276 9 is_stmt 1              @ lvgl/src/lv_widgets/lv_slider.c:276:9
	b	.LBB1_12
.Ltmp49:
.LBB1_12:
	.loc	10 277 5                        @ lvgl/src/lv_widgets/lv_slider.c:277:5
	b	.LBB1_13
.Ltmp50:
.LBB1_13:
	.loc	10 281 8                        @ lvgl/src/lv_widgets/lv_slider.c:281:8
	ldrb.w	r0, [sp, #183]
.Ltmp51:
	.loc	10 281 8 is_stmt 0              @ lvgl/src/lv_widgets/lv_slider.c:281:8
	cmp	r0, #11
	bne.w	.LBB1_60
	b	.LBB1_14
.LBB1_14:
.Ltmp52:
	.loc	10 282 9 is_stmt 1              @ lvgl/src/lv_widgets/lv_slider.c:282:9
	ldr	r1, [sp, #160]
	.loc	10 282 23 is_stmt 0             @ lvgl/src/lv_widgets/lv_slider.c:282:23
	ldrb.w	r0, [r1, #84]
	orr	r0, r0, #1
	strb.w	r0, [r1, #84]
.Ltmp53:
	.loc	10 283 12 is_stmt 1             @ lvgl/src/lv_widgets/lv_slider.c:283:12
	ldrb.w	r0, [sp, #167]
	.loc	10 283 42 is_stmt 0             @ lvgl/src/lv_widgets/lv_slider.c:283:42
	cbz	r0, .LBB1_16
	b	.LBB1_15
.LBB1_15:
	.loc	10 283 45                       @ lvgl/src/lv_widgets/lv_slider.c:283:45
	ldrb.w	r0, [sp, #167]
.Ltmp54:
	.loc	10 283 12                       @ lvgl/src/lv_widgets/lv_slider.c:283:12
	cmp	r0, #1
	bne	.LBB1_17
	b	.LBB1_16
.LBB1_16:
.Ltmp55:
	.loc	10 284 34 is_stmt 1             @ lvgl/src/lv_widgets/lv_slider.c:284:34
	ldr	r0, [sp, #160]
	.loc	10 284 31 is_stmt 0             @ lvgl/src/lv_widgets/lv_slider.c:284:31
	str	r0, [r0, #80]
	.loc	10 285 9 is_stmt 1              @ lvgl/src/lv_widgets/lv_slider.c:285:9
	b	.LBB1_59
.Ltmp56:
.LBB1_17:
	.loc	10 286 17                       @ lvgl/src/lv_widgets/lv_slider.c:286:17
	ldrb.w	r0, [sp, #167]
.Ltmp57:
	.loc	10 286 17 is_stmt 0             @ lvgl/src/lv_widgets/lv_slider.c:286:17
	cmp	r0, #2
	bne.w	.LBB1_58
	b	.LBB1_18
.LBB1_18:
.Ltmp58:
	.loc	10 287 32 is_stmt 1             @ lvgl/src/lv_widgets/lv_slider.c:287:32
	ldr	r0, [sp, #176]
	add	r1, sp, #152
	.loc	10 287 13 is_stmt 0             @ lvgl/src/lv_widgets/lv_slider.c:287:13
	bl	lv_indev_get_point
	.loc	10 288 41 is_stmt 1             @ lvgl/src/lv_widgets/lv_slider.c:288:41
	ldr	r0, [sp, #184]
	.loc	10 288 24 is_stmt 0             @ lvgl/src/lv_widgets/lv_slider.c:288:24
	bl	lv_obj_get_width
	.loc	10 288 70                       @ lvgl/src/lv_widgets/lv_slider.c:288:70
	str	r0, [sp, #88]                   @ 4-byte Spill
	ldr	r0, [sp, #184]
	.loc	10 288 52                       @ lvgl/src/lv_widgets/lv_slider.c:288:52
	bl	lv_obj_get_height
	ldr	r1, [sp, #88]                   @ 4-byte Reload
	mov	r2, r0
	movs	r0, #0
	.loc	10 288 49                       @ lvgl/src/lv_widgets/lv_slider.c:288:49
	cmp	r1, r2
	it	ge
	movge	r0, #1
	.loc	10 288 18                       @ lvgl/src/lv_widgets/lv_slider.c:288:18
	strb.w	r0, [sp, #151]
	.loc	10 289 58 is_stmt 1             @ lvgl/src/lv_widgets/lv_slider.c:289:58
	ldr	r0, [sp, #184]
	.loc	10 289 38 is_stmt 0             @ lvgl/src/lv_widgets/lv_slider.c:289:38
	bl	lv_obj_get_base_dir
	.loc	10 289 27                       @ lvgl/src/lv_widgets/lv_slider.c:289:27
	strb.w	r0, [sp, #150]
.Ltmp59:
	.loc	10 292 16 is_stmt 1             @ lvgl/src/lv_widgets/lv_slider.c:292:16
	ldrb.w	r0, [sp, #151]
.Ltmp60:
	.loc	10 292 16 is_stmt 0             @ lvgl/src/lv_widgets/lv_slider.c:292:16
	lsls	r0, r0, #31
	cmp	r0, #0
	beq.w	.LBB1_41
	b	.LBB1_19
.LBB1_19:
.Ltmp61:
	.loc	10 293 21 is_stmt 1             @ lvgl/src/lv_widgets/lv_slider.c:293:21
	ldrb.w	r0, [sp, #150]
	.loc	10 293 49 is_stmt 0             @ lvgl/src/lv_widgets/lv_slider.c:293:49
	cmp	r0, #1
	beq	.LBB1_21
	b	.LBB1_20
.LBB1_20:
	.loc	10 293 54                       @ lvgl/src/lv_widgets/lv_slider.c:293:54
	ldrsh.w	r0, [sp, #152]
	.loc	10 293 58                       @ lvgl/src/lv_widgets/lv_slider.c:293:58
	ldr	r1, [sp, #160]
	.loc	10 293 79                       @ lvgl/src/lv_widgets/lv_slider.c:293:79
	ldrsh.w	r1, [r1, #76]
	.loc	10 293 83                       @ lvgl/src/lv_widgets/lv_slider.c:293:83
	cmp	r0, r1
	bgt	.LBB1_23
	b	.LBB1_21
.LBB1_21:
	.loc	10 293 87                       @ lvgl/src/lv_widgets/lv_slider.c:293:87
	ldrb.w	r0, [sp, #150]
	.loc	10 293 115                      @ lvgl/src/lv_widgets/lv_slider.c:293:115
	cmp	r0, #1
	bne	.LBB1_24
	b	.LBB1_22
.LBB1_22:
	.loc	10 294 89 is_stmt 1             @ lvgl/src/lv_widgets/lv_slider.c:294:89
	ldrsh.w	r0, [sp, #152]
	.loc	10 294 93 is_stmt 0             @ lvgl/src/lv_widgets/lv_slider.c:294:93
	ldr	r1, [sp, #160]
	.loc	10 294 114                      @ lvgl/src/lv_widgets/lv_slider.c:294:114
	ldrsh.w	r1, [r1, #72]
.Ltmp62:
	.loc	10 293 20 is_stmt 1             @ lvgl/src/lv_widgets/lv_slider.c:293:20
	cmp	r0, r1
	bge	.LBB1_24
	b	.LBB1_23
.LBB1_23:
.Ltmp63:
	.loc	10 295 42                       @ lvgl/src/lv_widgets/lv_slider.c:295:42
	ldr	r0, [sp, #160]
	.loc	10 295 39 is_stmt 0             @ lvgl/src/lv_widgets/lv_slider.c:295:39
	str	r0, [r0, #80]
	.loc	10 296 17 is_stmt 1             @ lvgl/src/lv_widgets/lv_slider.c:296:17
	b	.LBB1_40
.Ltmp64:
.LBB1_24:
	.loc	10 297 26                       @ lvgl/src/lv_widgets/lv_slider.c:297:26
	ldrb.w	r0, [sp, #150]
	.loc	10 297 54 is_stmt 0             @ lvgl/src/lv_widgets/lv_slider.c:297:54
	cmp	r0, #1
	beq	.LBB1_26
	b	.LBB1_25
.LBB1_25:
	.loc	10 297 59                       @ lvgl/src/lv_widgets/lv_slider.c:297:59
	ldrsh.w	r0, [sp, #152]
	.loc	10 297 63                       @ lvgl/src/lv_widgets/lv_slider.c:297:63
	ldr	r1, [sp, #160]
	.loc	10 297 83                       @ lvgl/src/lv_widgets/lv_slider.c:297:83
	ldrsh.w	r1, [r1, #64]
	.loc	10 297 87                       @ lvgl/src/lv_widgets/lv_slider.c:297:87
	cmp	r0, r1
	blt	.LBB1_28
	b	.LBB1_26
.LBB1_26:
	.loc	10 297 91                       @ lvgl/src/lv_widgets/lv_slider.c:297:91
	ldrb.w	r0, [sp, #150]
	.loc	10 297 119                      @ lvgl/src/lv_widgets/lv_slider.c:297:119
	cmp	r0, #1
	bne	.LBB1_29
	b	.LBB1_27
.LBB1_27:
	.loc	10 298 93 is_stmt 1             @ lvgl/src/lv_widgets/lv_slider.c:298:93
	ldrsh.w	r0, [sp, #152]
	.loc	10 298 97 is_stmt 0             @ lvgl/src/lv_widgets/lv_slider.c:298:97
	ldr	r1, [sp, #160]
	.loc	10 298 117                      @ lvgl/src/lv_widgets/lv_slider.c:298:117
	ldrsh.w	r1, [r1, #68]
.Ltmp65:
	.loc	10 297 25 is_stmt 1             @ lvgl/src/lv_widgets/lv_slider.c:297:25
	cmp	r0, r1
	ble	.LBB1_29
	b	.LBB1_28
.LBB1_28:
.Ltmp66:
	.loc	10 299 42                       @ lvgl/src/lv_widgets/lv_slider.c:299:42
	ldr	r1, [sp, #160]
	.loc	10 299 51 is_stmt 0             @ lvgl/src/lv_widgets/lv_slider.c:299:51
	adds	r0, r1, #6
	.loc	10 299 39                       @ lvgl/src/lv_widgets/lv_slider.c:299:39
	str	r0, [r1, #80]
	.loc	10 300 17 is_stmt 1             @ lvgl/src/lv_widgets/lv_slider.c:300:17
	b	.LBB1_39
.Ltmp67:
.LBB1_29:
	.loc	10 303 33                       @ lvgl/src/lv_widgets/lv_slider.c:303:33
	ldr	r1, [sp, #160]
	ldrsh.w	r0, [r1, #64]
	ldrsh.w	r1, [r1, #68]
	subs	r1, r1, r0
	add.w	r1, r1, r1, lsr #31
	add.w	r0, r0, r1, asr #1
	ldrsh.w	r1, [sp, #152]
	subs	r0, r0, r1
	cmp	r0, #1
	blt	.LBB1_31
	b	.LBB1_30
.LBB1_30:
	ldr	r1, [sp, #160]
	ldrsh.w	r0, [r1, #64]
	ldrsh.w	r1, [r1, #68]
	subs	r1, r1, r0
	add.w	r1, r1, r1, lsr #31
	add.w	r0, r0, r1, asr #1
	ldrsh.w	r1, [sp, #152]
	subs	r0, r0, r1
	str	r0, [sp, #84]                   @ 4-byte Spill
	b	.LBB1_32
.LBB1_31:
	ldr	r1, [sp, #160]
	ldrsh.w	r0, [r1, #64]
	ldrsh.w	r1, [r1, #68]
	subs	r1, r1, r0
	add.w	r1, r1, r1, lsr #31
	add.w	r1, r0, r1, asr #1
	ldrsh.w	r0, [sp, #152]
	subs	r0, r0, r1
	str	r0, [sp, #84]                   @ 4-byte Spill
	b	.LBB1_32
.LBB1_32:
	ldr	r0, [sp, #84]                   @ 4-byte Reload
	.loc	10 303 31 is_stmt 0             @ lvgl/src/lv_widgets/lv_slider.c:303:31
	strh.w	r0, [sp, #148]
	.loc	10 304 34 is_stmt 1             @ lvgl/src/lv_widgets/lv_slider.c:304:34
	ldr	r1, [sp, #160]
	ldrsh.w	r0, [r1, #72]
	ldrsh.w	r1, [r1, #76]
	subs	r1, r1, r0
	add.w	r1, r1, r1, lsr #31
	add.w	r0, r0, r1, asr #1
	ldrsh.w	r1, [sp, #152]
	subs	r0, r0, r1
	cmp	r0, #1
	blt	.LBB1_34
	b	.LBB1_33
.LBB1_33:
	ldr	r1, [sp, #160]
	ldrsh.w	r0, [r1, #72]
	ldrsh.w	r1, [r1, #76]
	subs	r1, r1, r0
	add.w	r1, r1, r1, lsr #31
	add.w	r0, r0, r1, asr #1
	ldrsh.w	r1, [sp, #152]
	subs	r0, r0, r1
	str	r0, [sp, #80]                   @ 4-byte Spill
	b	.LBB1_35
.LBB1_34:
	ldr	r1, [sp, #160]
	ldrsh.w	r0, [r1, #72]
	ldrsh.w	r1, [r1, #76]
	subs	r1, r1, r0
	add.w	r1, r1, r1, lsr #31
	add.w	r1, r0, r1, asr #1
	ldrsh.w	r0, [sp, #152]
	subs	r0, r0, r1
	str	r0, [sp, #80]                   @ 4-byte Spill
	b	.LBB1_35
.LBB1_35:
	ldr	r0, [sp, #80]                   @ 4-byte Reload
	.loc	10 304 32 is_stmt 0             @ lvgl/src/lv_widgets/lv_slider.c:304:32
	strh.w	r0, [sp, #146]
.Ltmp68:
	.loc	10 307 24 is_stmt 1             @ lvgl/src/lv_widgets/lv_slider.c:307:24
	ldrsh.w	r0, [sp, #146]
	.loc	10 307 37 is_stmt 0             @ lvgl/src/lv_widgets/lv_slider.c:307:37
	ldrsh.w	r1, [sp, #148]
.Ltmp69:
	.loc	10 307 24                       @ lvgl/src/lv_widgets/lv_slider.c:307:24
	cmp	r0, r1
	bge	.LBB1_37
	b	.LBB1_36
.LBB1_36:
.Ltmp70:
	.loc	10 307 68                       @ lvgl/src/lv_widgets/lv_slider.c:307:68
	ldr	r0, [sp, #160]
	.loc	10 307 65                       @ lvgl/src/lv_widgets/lv_slider.c:307:65
	str	r0, [r0, #80]
	.loc	10 307 47                       @ lvgl/src/lv_widgets/lv_slider.c:307:47
	b	.LBB1_38
.LBB1_37:
	.loc	10 308 47 is_stmt 1             @ lvgl/src/lv_widgets/lv_slider.c:308:47
	ldr	r1, [sp, #160]
	.loc	10 308 56 is_stmt 0             @ lvgl/src/lv_widgets/lv_slider.c:308:56
	adds	r0, r1, #6
	.loc	10 308 44                       @ lvgl/src/lv_widgets/lv_slider.c:308:44
	str	r0, [r1, #80]
	b	.LBB1_38
.Ltmp71:
.LBB1_38:
	.loc	10 0 44                         @ lvgl/src/lv_widgets/lv_slider.c:0:44
	b	.LBB1_39
.LBB1_39:
	b	.LBB1_40
.LBB1_40:
	.loc	10 310 13 is_stmt 1             @ lvgl/src/lv_widgets/lv_slider.c:310:13
	b	.LBB1_57
.Ltmp72:
.LBB1_41:
	.loc	10 312 22                       @ lvgl/src/lv_widgets/lv_slider.c:312:22
	ldrsh.w	r0, [sp, #154]
	.loc	10 312 26 is_stmt 0             @ lvgl/src/lv_widgets/lv_slider.c:312:26
	ldr	r1, [sp, #160]
	.loc	10 312 47                       @ lvgl/src/lv_widgets/lv_slider.c:312:47
	ldrsh.w	r1, [r1, #74]
.Ltmp73:
	.loc	10 312 20                       @ lvgl/src/lv_widgets/lv_slider.c:312:20
	cmp	r0, r1
	bge	.LBB1_43
	b	.LBB1_42
.LBB1_42:
.Ltmp74:
	.loc	10 313 42 is_stmt 1             @ lvgl/src/lv_widgets/lv_slider.c:313:42
	ldr	r0, [sp, #160]
	.loc	10 313 39 is_stmt 0             @ lvgl/src/lv_widgets/lv_slider.c:313:39
	str	r0, [r0, #80]
	.loc	10 314 17 is_stmt 1             @ lvgl/src/lv_widgets/lv_slider.c:314:17
	b	.LBB1_56
.Ltmp75:
.LBB1_43:
	.loc	10 315 27                       @ lvgl/src/lv_widgets/lv_slider.c:315:27
	ldrsh.w	r0, [sp, #154]
	.loc	10 315 31 is_stmt 0             @ lvgl/src/lv_widgets/lv_slider.c:315:31
	ldr	r1, [sp, #160]
	.loc	10 315 51                       @ lvgl/src/lv_widgets/lv_slider.c:315:51
	ldrsh.w	r1, [r1, #70]
.Ltmp76:
	.loc	10 315 25                       @ lvgl/src/lv_widgets/lv_slider.c:315:25
	cmp	r0, r1
	ble	.LBB1_45
	b	.LBB1_44
.LBB1_44:
.Ltmp77:
	.loc	10 316 42 is_stmt 1             @ lvgl/src/lv_widgets/lv_slider.c:316:42
	ldr	r1, [sp, #160]
	.loc	10 316 51 is_stmt 0             @ lvgl/src/lv_widgets/lv_slider.c:316:51
	adds	r0, r1, #6
	.loc	10 316 39                       @ lvgl/src/lv_widgets/lv_slider.c:316:39
	str	r0, [r1, #80]
	.loc	10 317 17 is_stmt 1             @ lvgl/src/lv_widgets/lv_slider.c:317:17
	b	.LBB1_55
.Ltmp78:
.LBB1_45:
	.loc	10 320 33                       @ lvgl/src/lv_widgets/lv_slider.c:320:33
	ldr	r1, [sp, #160]
	ldrsh.w	r0, [r1, #66]
	ldrsh.w	r1, [r1, #70]
	subs	r1, r1, r0
	add.w	r1, r1, r1, lsr #31
	add.w	r0, r0, r1, asr #1
	ldrsh.w	r1, [sp, #154]
	subs	r0, r0, r1
	cmp	r0, #1
	blt	.LBB1_47
	b	.LBB1_46
.LBB1_46:
	ldr	r1, [sp, #160]
	ldrsh.w	r0, [r1, #66]
	ldrsh.w	r1, [r1, #70]
	subs	r1, r1, r0
	add.w	r1, r1, r1, lsr #31
	add.w	r0, r0, r1, asr #1
	ldrsh.w	r1, [sp, #154]
	subs	r0, r0, r1
	str	r0, [sp, #76]                   @ 4-byte Spill
	b	.LBB1_48
.LBB1_47:
	ldr	r1, [sp, #160]
	ldrsh.w	r0, [r1, #66]
	ldrsh.w	r1, [r1, #70]
	subs	r1, r1, r0
	add.w	r1, r1, r1, lsr #31
	add.w	r1, r0, r1, asr #1
	ldrsh.w	r0, [sp, #154]
	subs	r0, r0, r1
	str	r0, [sp, #76]                   @ 4-byte Spill
	b	.LBB1_48
.LBB1_48:
	ldr	r0, [sp, #76]                   @ 4-byte Reload
	.loc	10 320 31 is_stmt 0             @ lvgl/src/lv_widgets/lv_slider.c:320:31
	strh.w	r0, [sp, #148]
	.loc	10 321 34 is_stmt 1             @ lvgl/src/lv_widgets/lv_slider.c:321:34
	ldr	r1, [sp, #160]
	ldrsh.w	r0, [r1, #74]
	ldrsh.w	r1, [r1, #78]
	subs	r1, r1, r0
	add.w	r1, r1, r1, lsr #31
	add.w	r0, r0, r1, asr #1
	ldrsh.w	r1, [sp, #154]
	subs	r0, r0, r1
	cmp	r0, #1
	blt	.LBB1_50
	b	.LBB1_49
.LBB1_49:
	ldr	r1, [sp, #160]
	ldrsh.w	r0, [r1, #74]
	ldrsh.w	r1, [r1, #78]
	subs	r1, r1, r0
	add.w	r1, r1, r1, lsr #31
	add.w	r0, r0, r1, asr #1
	ldrsh.w	r1, [sp, #154]
	subs	r0, r0, r1
	str	r0, [sp, #72]                   @ 4-byte Spill
	b	.LBB1_51
.LBB1_50:
	ldr	r1, [sp, #160]
	ldrsh.w	r0, [r1, #74]
	ldrsh.w	r1, [r1, #78]
	subs	r1, r1, r0
	add.w	r1, r1, r1, lsr #31
	add.w	r1, r0, r1, asr #1
	ldrsh.w	r0, [sp, #154]
	subs	r0, r0, r1
	str	r0, [sp, #72]                   @ 4-byte Spill
	b	.LBB1_51
.LBB1_51:
	ldr	r0, [sp, #72]                   @ 4-byte Reload
	.loc	10 321 32 is_stmt 0             @ lvgl/src/lv_widgets/lv_slider.c:321:32
	strh.w	r0, [sp, #146]
.Ltmp79:
	.loc	10 324 24 is_stmt 1             @ lvgl/src/lv_widgets/lv_slider.c:324:24
	ldrsh.w	r0, [sp, #146]
	.loc	10 324 37 is_stmt 0             @ lvgl/src/lv_widgets/lv_slider.c:324:37
	ldrsh.w	r1, [sp, #148]
.Ltmp80:
	.loc	10 324 24                       @ lvgl/src/lv_widgets/lv_slider.c:324:24
	cmp	r0, r1
	bge	.LBB1_53
	b	.LBB1_52
.LBB1_52:
.Ltmp81:
	.loc	10 324 68                       @ lvgl/src/lv_widgets/lv_slider.c:324:68
	ldr	r0, [sp, #160]
	.loc	10 324 65                       @ lvgl/src/lv_widgets/lv_slider.c:324:65
	str	r0, [r0, #80]
	.loc	10 324 47                       @ lvgl/src/lv_widgets/lv_slider.c:324:47
	b	.LBB1_54
.LBB1_53:
	.loc	10 325 47 is_stmt 1             @ lvgl/src/lv_widgets/lv_slider.c:325:47
	ldr	r1, [sp, #160]
	.loc	10 325 56 is_stmt 0             @ lvgl/src/lv_widgets/lv_slider.c:325:56
	adds	r0, r1, #6
	.loc	10 325 44                       @ lvgl/src/lv_widgets/lv_slider.c:325:44
	str	r0, [r1, #80]
	b	.LBB1_54
.Ltmp82:
.LBB1_54:
	.loc	10 0 44                         @ lvgl/src/lv_widgets/lv_slider.c:0:44
	b	.LBB1_55
.LBB1_55:
	b	.LBB1_56
.LBB1_56:
	b	.LBB1_57
.LBB1_57:
	.loc	10 328 9 is_stmt 1              @ lvgl/src/lv_widgets/lv_slider.c:328:9
	b	.LBB1_58
.Ltmp83:
.LBB1_58:
	.loc	10 0 9 is_stmt 0                @ lvgl/src/lv_widgets/lv_slider.c:0:9
	b	.LBB1_59
.LBB1_59:
	.loc	10 329 5 is_stmt 1              @ lvgl/src/lv_widgets/lv_slider.c:329:5
	b	.LBB1_157
.Ltmp84:
.LBB1_60:
	.loc	10 330 13                       @ lvgl/src/lv_widgets/lv_slider.c:330:13
	ldrb.w	r0, [sp, #183]
	.loc	10 330 40 is_stmt 0             @ lvgl/src/lv_widgets/lv_slider.c:330:40
	cmp	r0, #12
	bne.w	.LBB1_83
	b	.LBB1_61
.LBB1_61:
	.loc	10 330 43                       @ lvgl/src/lv_widgets/lv_slider.c:330:43
	ldr	r0, [sp, #160]
	.loc	10 330 48                       @ lvgl/src/lv_widgets/lv_slider.c:330:48
	ldr	r0, [r0, #80]
.Ltmp85:
	.loc	10 330 13                       @ lvgl/src/lv_widgets/lv_slider.c:330:13
	cmp	r0, #0
	beq.w	.LBB1_83
	b	.LBB1_62
.LBB1_62:
.Ltmp86:
	.loc	10 331 30 is_stmt 1             @ lvgl/src/lv_widgets/lv_slider.c:331:30
	ldr	r0, [sp, #176]
	.loc	10 331 12 is_stmt 0             @ lvgl/src/lv_widgets/lv_slider.c:331:12
	bl	lv_indev_get_type
.Ltmp87:
	.loc	10 331 12                       @ lvgl/src/lv_widgets/lv_slider.c:331:12
	cmp	r0, #1
	beq	.LBB1_64
	b	.LBB1_63
.LBB1_63:
.Ltmp88:
	.loc	10 331 70                       @ lvgl/src/lv_widgets/lv_slider.c:331:70
	ldrb.w	r0, [sp, #175]
	.loc	10 331 63                       @ lvgl/src/lv_widgets/lv_slider.c:331:63
	strb.w	r0, [sp, #191]
	b	.LBB1_158
.Ltmp89:
.LBB1_64:
	.loc	10 333 28 is_stmt 1             @ lvgl/src/lv_widgets/lv_slider.c:333:28
	ldr	r0, [sp, #176]
	add	r1, sp, #152
	.loc	10 333 9 is_stmt 0              @ lvgl/src/lv_widgets/lv_slider.c:333:9
	bl	lv_indev_get_point
	.loc	10 334 54 is_stmt 1             @ lvgl/src/lv_widgets/lv_slider.c:334:54
	ldr	r0, [sp, #184]
	.loc	10 334 34 is_stmt 0             @ lvgl/src/lv_widgets/lv_slider.c:334:34
	bl	lv_obj_get_base_dir
	.loc	10 334 23                       @ lvgl/src/lv_widgets/lv_slider.c:334:23
	strb.w	r0, [sp, #145]
	.loc	10 336 41 is_stmt 1             @ lvgl/src/lv_widgets/lv_slider.c:336:41
	ldr	r0, [sp, #184]
	.loc	10 336 24 is_stmt 0             @ lvgl/src/lv_widgets/lv_slider.c:336:24
	bl	lv_obj_get_width
	.loc	10 336 20                       @ lvgl/src/lv_widgets/lv_slider.c:336:20
	strh.w	r0, [sp, #142]
	.loc	10 337 42 is_stmt 1             @ lvgl/src/lv_widgets/lv_slider.c:337:42
	ldr	r0, [sp, #184]
	.loc	10 337 24 is_stmt 0             @ lvgl/src/lv_widgets/lv_slider.c:337:24
	bl	lv_obj_get_height
	.loc	10 337 20                       @ lvgl/src/lv_widgets/lv_slider.c:337:20
	strh.w	r0, [sp, #140]
	.loc	10 339 60 is_stmt 1             @ lvgl/src/lv_widgets/lv_slider.c:339:60
	ldr	r0, [sp, #184]
	movs	r1, #0
	.loc	10 339 34 is_stmt 0             @ lvgl/src/lv_widgets/lv_slider.c:339:34
	str	r1, [sp, #68]                   @ 4-byte Spill
	bl	lv_obj_get_style_pad_left
	ldr	r1, [sp, #68]                   @ 4-byte Reload
	.loc	10 339 24                       @ lvgl/src/lv_widgets/lv_slider.c:339:24
	strh.w	r0, [sp, #138]
	.loc	10 340 62 is_stmt 1             @ lvgl/src/lv_widgets/lv_slider.c:340:62
	ldr	r0, [sp, #184]
	.loc	10 340 35 is_stmt 0             @ lvgl/src/lv_widgets/lv_slider.c:340:35
	bl	lv_obj_get_style_pad_right
	ldr	r1, [sp, #68]                   @ 4-byte Reload
	.loc	10 340 24                       @ lvgl/src/lv_widgets/lv_slider.c:340:24
	strh.w	r0, [sp, #136]
	.loc	10 341 58 is_stmt 1             @ lvgl/src/lv_widgets/lv_slider.c:341:58
	ldr	r0, [sp, #184]
	.loc	10 341 33 is_stmt 0             @ lvgl/src/lv_widgets/lv_slider.c:341:33
	bl	lv_obj_get_style_pad_top
	ldr	r1, [sp, #68]                   @ 4-byte Reload
	.loc	10 341 24                       @ lvgl/src/lv_widgets/lv_slider.c:341:24
	strh.w	r0, [sp, #134]
	.loc	10 342 64 is_stmt 1             @ lvgl/src/lv_widgets/lv_slider.c:342:64
	ldr	r0, [sp, #184]
	.loc	10 342 36 is_stmt 0             @ lvgl/src/lv_widgets/lv_slider.c:342:36
	bl	lv_obj_get_style_pad_bottom
	mov	r1, r0
	.loc	10 342 24                       @ lvgl/src/lv_widgets/lv_slider.c:342:24
	ldr	r0, [sp, #68]                   @ 4-byte Reload
	strh.w	r1, [sp, #132]
	.loc	10 344 25 is_stmt 1             @ lvgl/src/lv_widgets/lv_slider.c:344:25
	ldr	r1, [sp, #160]
	.loc	10 344 55 is_stmt 0             @ lvgl/src/lv_widgets/lv_slider.c:344:55
	ldrsh.w	r2, [r1, #2]
	.loc	10 344 34                       @ lvgl/src/lv_widgets/lv_slider.c:344:34
	ldrsh.w	r1, [r1, #4]
	.loc	10 344 44                       @ lvgl/src/lv_widgets/lv_slider.c:344:44
	subs	r1, r1, r2
	.loc	10 344 17                       @ lvgl/src/lv_widgets/lv_slider.c:344:17
	str	r1, [sp, #128]
	.loc	10 345 17 is_stmt 1             @ lvgl/src/lv_widgets/lv_slider.c:345:17
	strh.w	r0, [sp, #126]
	.loc	10 346 34                       @ lvgl/src/lv_widgets/lv_slider.c:346:34
	ldr	r0, [sp, #160]
	.loc	10 346 43 is_stmt 0             @ lvgl/src/lv_widgets/lv_slider.c:346:43
	ldrh	r0, [r0, #4]
	.loc	10 346 17                       @ lvgl/src/lv_widgets/lv_slider.c:346:17
	strh.w	r0, [sp, #124]
	.loc	10 347 34 is_stmt 1             @ lvgl/src/lv_widgets/lv_slider.c:347:34
	ldr	r0, [sp, #160]
	.loc	10 347 43 is_stmt 0             @ lvgl/src/lv_widgets/lv_slider.c:347:43
	ldrh	r0, [r0, #2]
	.loc	10 347 17                       @ lvgl/src/lv_widgets/lv_slider.c:347:17
	strh.w	r0, [sp, #122]
.Ltmp90:
	.loc	10 349 12 is_stmt 1             @ lvgl/src/lv_widgets/lv_slider.c:349:12
	ldrsh.w	r0, [sp, #142]
	.loc	10 349 17 is_stmt 0             @ lvgl/src/lv_widgets/lv_slider.c:349:17
	ldrsh.w	r1, [sp, #140]
.Ltmp91:
	.loc	10 349 12                       @ lvgl/src/lv_widgets/lv_slider.c:349:12
	cmp	r0, r1
	blt	.LBB1_69
	b	.LBB1_65
.LBB1_65:
.Ltmp92:
	.loc	10 350 34 is_stmt 1             @ lvgl/src/lv_widgets/lv_slider.c:350:34
	ldrh.w	r0, [sp, #142]
	.loc	10 350 38 is_stmt 0             @ lvgl/src/lv_widgets/lv_slider.c:350:38
	ldrh.w	r1, [sp, #138]
	.loc	10 350 36                       @ lvgl/src/lv_widgets/lv_slider.c:350:36
	subs	r0, r0, r1
	.loc	10 350 48                       @ lvgl/src/lv_widgets/lv_slider.c:350:48
	ldrh.w	r1, [sp, #136]
	.loc	10 350 46                       @ lvgl/src/lv_widgets/lv_slider.c:350:46
	subs	r0, r0, r1
	.loc	10 350 24                       @ lvgl/src/lv_widgets/lv_slider.c:350:24
	strh.w	r0, [sp, #120]
.Ltmp93:
	.loc	10 351 16 is_stmt 1             @ lvgl/src/lv_widgets/lv_slider.c:351:16
	ldrb.w	r0, [sp, #145]
.Ltmp94:
	.loc	10 351 16 is_stmt 0             @ lvgl/src/lv_widgets/lv_slider.c:351:16
	cmp	r0, #1
	bne	.LBB1_67
	b	.LBB1_66
.LBB1_66:
.Ltmp95:
	.loc	10 352 30 is_stmt 1             @ lvgl/src/lv_widgets/lv_slider.c:352:30
	ldr	r0, [sp, #184]
	ldrh	r0, [r0, #20]
	.loc	10 352 50 is_stmt 0             @ lvgl/src/lv_widgets/lv_slider.c:352:50
	ldrh.w	r1, [sp, #136]
	.loc	10 352 48                       @ lvgl/src/lv_widgets/lv_slider.c:352:48
	subs	r0, r0, r1
	.loc	10 352 62                       @ lvgl/src/lv_widgets/lv_slider.c:352:62
	ldrh.w	r1, [sp, #152]
	.loc	10 352 60                       @ lvgl/src/lv_widgets/lv_slider.c:352:60
	subs	r0, r0, r1
	.loc	10 352 27                       @ lvgl/src/lv_widgets/lv_slider.c:352:27
	strh.w	r0, [sp, #126]
	.loc	10 353 13 is_stmt 1             @ lvgl/src/lv_widgets/lv_slider.c:353:13
	b	.LBB1_68
.Ltmp96:
.LBB1_67:
	.loc	10 355 29                       @ lvgl/src/lv_widgets/lv_slider.c:355:29
	ldrh.w	r0, [sp, #152]
	.loc	10 355 36 is_stmt 0             @ lvgl/src/lv_widgets/lv_slider.c:355:36
	ldr	r1, [sp, #184]
	ldrh	r1, [r1, #16]
	.loc	10 355 56                       @ lvgl/src/lv_widgets/lv_slider.c:355:56
	ldrh.w	r2, [sp, #138]
	.loc	10 355 54                       @ lvgl/src/lv_widgets/lv_slider.c:355:54
	add	r1, r2
	.loc	10 355 33                       @ lvgl/src/lv_widgets/lv_slider.c:355:33
	subs	r0, r0, r1
	.loc	10 355 27                       @ lvgl/src/lv_widgets/lv_slider.c:355:27
	strh.w	r0, [sp, #126]
	b	.LBB1_68
.Ltmp97:
.LBB1_68:
	.loc	10 357 26 is_stmt 1             @ lvgl/src/lv_widgets/lv_slider.c:357:26
	ldrsh.w	r0, [sp, #126]
	.loc	10 357 38 is_stmt 0             @ lvgl/src/lv_widgets/lv_slider.c:357:38
	ldr	r1, [sp, #128]
	.loc	10 357 36                       @ lvgl/src/lv_widgets/lv_slider.c:357:36
	muls	r0, r1, r0
	.loc	10 357 47                       @ lvgl/src/lv_widgets/lv_slider.c:357:47
	ldrsh.w	r1, [sp, #120]
	.loc	10 357 45                       @ lvgl/src/lv_widgets/lv_slider.c:357:45
	sdiv	r0, r0, r1
	.loc	10 357 23                       @ lvgl/src/lv_widgets/lv_slider.c:357:23
	strh.w	r0, [sp, #126]
	.loc	10 358 26 is_stmt 1             @ lvgl/src/lv_widgets/lv_slider.c:358:26
	ldr	r0, [sp, #160]
	ldrh	r1, [r0, #2]
	.loc	10 358 23 is_stmt 0             @ lvgl/src/lv_widgets/lv_slider.c:358:23
	ldrh.w	r0, [sp, #126]
	add	r0, r1
	strh.w	r0, [sp, #126]
	.loc	10 359 9 is_stmt 1              @ lvgl/src/lv_widgets/lv_slider.c:359:9
	b	.LBB1_70
.Ltmp98:
.LBB1_69:
	.loc	10 361 34                       @ lvgl/src/lv_widgets/lv_slider.c:361:34
	ldrh.w	r0, [sp, #140]
	.loc	10 361 38 is_stmt 0             @ lvgl/src/lv_widgets/lv_slider.c:361:38
	ldrh.w	r1, [sp, #132]
	.loc	10 361 36                       @ lvgl/src/lv_widgets/lv_slider.c:361:36
	subs	r0, r0, r1
	.loc	10 361 50                       @ lvgl/src/lv_widgets/lv_slider.c:361:50
	ldrh.w	r1, [sp, #134]
	.loc	10 361 48                       @ lvgl/src/lv_widgets/lv_slider.c:361:48
	subs	r0, r0, r1
	.loc	10 361 24                       @ lvgl/src/lv_widgets/lv_slider.c:361:24
	strh.w	r0, [sp, #118]
	.loc	10 362 25 is_stmt 1             @ lvgl/src/lv_widgets/lv_slider.c:362:25
	ldrh.w	r0, [sp, #154]
	.loc	10 362 32 is_stmt 0             @ lvgl/src/lv_widgets/lv_slider.c:362:32
	ldr	r1, [sp, #184]
	ldrh	r1, [r1, #22]
	.loc	10 362 52                       @ lvgl/src/lv_widgets/lv_slider.c:362:52
	ldrh.w	r2, [sp, #132]
	.loc	10 362 50                       @ lvgl/src/lv_widgets/lv_slider.c:362:50
	add	r1, r2
	.loc	10 362 29                       @ lvgl/src/lv_widgets/lv_slider.c:362:29
	subs	r0, r0, r1
	.loc	10 362 23                       @ lvgl/src/lv_widgets/lv_slider.c:362:23
	strh.w	r0, [sp, #126]
	.loc	10 363 27 is_stmt 1             @ lvgl/src/lv_widgets/lv_slider.c:363:27
	ldrsh.w	r0, [sp, #126]
	.loc	10 363 26 is_stmt 0             @ lvgl/src/lv_widgets/lv_slider.c:363:26
	rsbs	r0, r0, #0
	.loc	10 363 39                       @ lvgl/src/lv_widgets/lv_slider.c:363:39
	ldr	r1, [sp, #128]
	.loc	10 363 37                       @ lvgl/src/lv_widgets/lv_slider.c:363:37
	muls	r0, r1, r0
	.loc	10 363 48                       @ lvgl/src/lv_widgets/lv_slider.c:363:48
	ldrsh.w	r1, [sp, #118]
	.loc	10 363 46                       @ lvgl/src/lv_widgets/lv_slider.c:363:46
	sdiv	r0, r0, r1
	.loc	10 363 23                       @ lvgl/src/lv_widgets/lv_slider.c:363:23
	strh.w	r0, [sp, #126]
	.loc	10 364 26 is_stmt 1             @ lvgl/src/lv_widgets/lv_slider.c:364:26
	ldr	r0, [sp, #160]
	ldrh	r1, [r0, #2]
	.loc	10 364 23 is_stmt 0             @ lvgl/src/lv_widgets/lv_slider.c:364:23
	ldrh.w	r0, [sp, #126]
	add	r0, r1
	strh.w	r0, [sp, #126]
	b	.LBB1_70
.Ltmp99:
.LBB1_70:
	.loc	10 369 12 is_stmt 1             @ lvgl/src/lv_widgets/lv_slider.c:369:12
	ldr	r1, [sp, #160]
	.loc	10 369 17 is_stmt 0             @ lvgl/src/lv_widgets/lv_slider.c:369:17
	ldr	r0, [r1, #80]
	.loc	10 369 43                       @ lvgl/src/lv_widgets/lv_slider.c:369:43
	adds	r1, #6
.Ltmp100:
	.loc	10 369 12                       @ lvgl/src/lv_widgets/lv_slider.c:369:12
	cmp	r0, r1
	bne	.LBB1_72
	b	.LBB1_71
.LBB1_71:
.Ltmp101:
	.loc	10 370 30 is_stmt 1             @ lvgl/src/lv_widgets/lv_slider.c:370:30
	ldr	r0, [sp, #160]
	.loc	10 370 39 is_stmt 0             @ lvgl/src/lv_widgets/lv_slider.c:370:39
	ldrh	r0, [r0]
	.loc	10 370 28                       @ lvgl/src/lv_widgets/lv_slider.c:370:28
	strh.w	r0, [sp, #124]
	.loc	10 371 9 is_stmt 1              @ lvgl/src/lv_widgets/lv_slider.c:371:9
	b	.LBB1_73
.Ltmp102:
.LBB1_72:
	.loc	10 373 30                       @ lvgl/src/lv_widgets/lv_slider.c:373:30
	ldr	r0, [sp, #160]
	.loc	10 373 39 is_stmt 0             @ lvgl/src/lv_widgets/lv_slider.c:373:39
	ldrh	r0, [r0, #6]
	.loc	10 373 28                       @ lvgl/src/lv_widgets/lv_slider.c:373:28
	strh.w	r0, [sp, #122]
	b	.LBB1_73
.Ltmp103:
.LBB1_73:
	.loc	10 376 12 is_stmt 1             @ lvgl/src/lv_widgets/lv_slider.c:376:12
	ldrsh.w	r0, [sp, #126]
	.loc	10 376 24 is_stmt 0             @ lvgl/src/lv_widgets/lv_slider.c:376:24
	ldrsh.w	r1, [sp, #122]
.Ltmp104:
	.loc	10 376 12                       @ lvgl/src/lv_widgets/lv_slider.c:376:12
	cmp	r0, r1
	bge	.LBB1_75
	b	.LBB1_74
.LBB1_74:
.Ltmp105:
	.loc	10 376 52                       @ lvgl/src/lv_widgets/lv_slider.c:376:52
	ldrh.w	r0, [sp, #122]
	.loc	10 376 50                       @ lvgl/src/lv_widgets/lv_slider.c:376:50
	strh.w	r0, [sp, #126]
	.loc	10 376 40                       @ lvgl/src/lv_widgets/lv_slider.c:376:40
	b	.LBB1_78
.LBB1_75:
.Ltmp106:
	.loc	10 377 17 is_stmt 1             @ lvgl/src/lv_widgets/lv_slider.c:377:17
	ldrsh.w	r0, [sp, #126]
	.loc	10 377 29 is_stmt 0             @ lvgl/src/lv_widgets/lv_slider.c:377:29
	ldrsh.w	r1, [sp, #124]
.Ltmp107:
	.loc	10 377 17                       @ lvgl/src/lv_widgets/lv_slider.c:377:17
	cmp	r0, r1
	ble	.LBB1_77
	b	.LBB1_76
.LBB1_76:
.Ltmp108:
	.loc	10 377 57                       @ lvgl/src/lv_widgets/lv_slider.c:377:57
	ldrh.w	r0, [sp, #124]
	.loc	10 377 55                       @ lvgl/src/lv_widgets/lv_slider.c:377:55
	strh.w	r0, [sp, #126]
	.loc	10 377 45                       @ lvgl/src/lv_widgets/lv_slider.c:377:45
	b	.LBB1_77
.Ltmp109:
.LBB1_77:
	.loc	10 0 45                         @ lvgl/src/lv_widgets/lv_slider.c:0:45
	b	.LBB1_78
.LBB1_78:
.Ltmp110:
	.loc	10 378 13 is_stmt 1             @ lvgl/src/lv_widgets/lv_slider.c:378:13
	ldr	r0, [sp, #160]
	.loc	10 378 18 is_stmt 0             @ lvgl/src/lv_widgets/lv_slider.c:378:18
	ldr	r0, [r0, #80]
	.loc	10 378 12                       @ lvgl/src/lv_widgets/lv_slider.c:378:12
	ldrsh.w	r0, [r0]
	.loc	10 378 34                       @ lvgl/src/lv_widgets/lv_slider.c:378:34
	ldrsh.w	r1, [sp, #126]
.Ltmp111:
	.loc	10 378 12                       @ lvgl/src/lv_widgets/lv_slider.c:378:12
	cmp	r0, r1
	beq	.LBB1_82
	b	.LBB1_79
.LBB1_79:
.Ltmp112:
	.loc	10 379 34 is_stmt 1             @ lvgl/src/lv_widgets/lv_slider.c:379:34
	ldrh.w	r0, [sp, #126]
	.loc	10 379 14 is_stmt 0             @ lvgl/src/lv_widgets/lv_slider.c:379:14
	ldr	r1, [sp, #160]
	.loc	10 379 19                       @ lvgl/src/lv_widgets/lv_slider.c:379:19
	ldr	r1, [r1, #80]
	.loc	10 379 32                       @ lvgl/src/lv_widgets/lv_slider.c:379:32
	strh	r0, [r1]
	.loc	10 380 31 is_stmt 1             @ lvgl/src/lv_widgets/lv_slider.c:380:31
	ldr	r0, [sp, #184]
	.loc	10 380 13 is_stmt 0             @ lvgl/src/lv_widgets/lv_slider.c:380:13
	bl	lv_obj_invalidate
	.loc	10 381 33 is_stmt 1             @ lvgl/src/lv_widgets/lv_slider.c:381:33
	ldr	r0, [sp, #184]
	movs	r1, #16
	movs	r2, #0
	.loc	10 381 19 is_stmt 0             @ lvgl/src/lv_widgets/lv_slider.c:381:19
	bl	lv_event_send
	.loc	10 381 17                       @ lvgl/src/lv_widgets/lv_slider.c:381:17
	strb.w	r0, [sp, #175]
.Ltmp113:
	.loc	10 382 16 is_stmt 1             @ lvgl/src/lv_widgets/lv_slider.c:382:16
	ldrb.w	r0, [sp, #175]
.Ltmp114:
	.loc	10 382 16 is_stmt 0             @ lvgl/src/lv_widgets/lv_slider.c:382:16
	cmp	r0, #1
	beq	.LBB1_81
	b	.LBB1_80
.LBB1_80:
.Ltmp115:
	.loc	10 382 41                       @ lvgl/src/lv_widgets/lv_slider.c:382:41
	ldrb.w	r0, [sp, #175]
	.loc	10 382 34                       @ lvgl/src/lv_widgets/lv_slider.c:382:34
	strb.w	r0, [sp, #191]
	b	.LBB1_158
.Ltmp116:
.LBB1_81:
	.loc	10 383 9 is_stmt 1              @ lvgl/src/lv_widgets/lv_slider.c:383:9
	b	.LBB1_82
.Ltmp117:
.LBB1_82:
	.loc	10 385 5                        @ lvgl/src/lv_widgets/lv_slider.c:385:5
	b	.LBB1_156
.Ltmp118:
.LBB1_83:
	.loc	10 386 13                       @ lvgl/src/lv_widgets/lv_slider.c:386:13
	ldrb.w	r0, [sp, #183]
	.loc	10 386 40 is_stmt 0             @ lvgl/src/lv_widgets/lv_slider.c:386:40
	cmp	r0, #14
	beq	.LBB1_85
	b	.LBB1_84
.LBB1_84:
	.loc	10 386 43                       @ lvgl/src/lv_widgets/lv_slider.c:386:43
	ldrb.w	r0, [sp, #183]
.Ltmp119:
	.loc	10 386 13                       @ lvgl/src/lv_widgets/lv_slider.c:386:13
	cmp	r0, #13
	bne	.LBB1_96
	b	.LBB1_85
.LBB1_85:
.Ltmp120:
	.loc	10 387 9 is_stmt 1              @ lvgl/src/lv_widgets/lv_slider.c:387:9
	ldr	r1, [sp, #160]
	.loc	10 387 23 is_stmt 0             @ lvgl/src/lv_widgets/lv_slider.c:387:23
	ldrb.w	r0, [r1, #84]
	and	r0, r0, #254
	strb.w	r0, [r1, #84]
	.loc	10 388 9 is_stmt 1              @ lvgl/src/lv_widgets/lv_slider.c:388:9
	ldr	r1, [sp, #160]
	movs	r0, #0
	.loc	10 388 27 is_stmt 0             @ lvgl/src/lv_widgets/lv_slider.c:388:27
	str	r0, [r1, #80]
	.loc	10 392 55 is_stmt 1             @ lvgl/src/lv_widgets/lv_slider.c:392:55
	ldr	r0, [sp, #184]
	.loc	10 392 38 is_stmt 0             @ lvgl/src/lv_widgets/lv_slider.c:392:38
	bl	lv_obj_get_group
	.loc	10 392 22                       @ lvgl/src/lv_widgets/lv_slider.c:392:22
	str	r0, [sp, #112]
	.loc	10 393 59 is_stmt 1             @ lvgl/src/lv_widgets/lv_slider.c:393:59
	ldr	r0, [sp, #112]
	.loc	10 393 38 is_stmt 0             @ lvgl/src/lv_widgets/lv_slider.c:393:38
	bl	lv_group_get_editing
	.loc	10 393 14                       @ lvgl/src/lv_widgets/lv_slider.c:393:14
	strb.w	r0, [sp, #111]
	.loc	10 394 56 is_stmt 1             @ lvgl/src/lv_widgets/lv_slider.c:394:56
	bl	lv_indev_get_act
	.loc	10 394 38 is_stmt 0             @ lvgl/src/lv_widgets/lv_slider.c:394:38
	bl	lv_indev_get_type
	.loc	10 394 25                       @ lvgl/src/lv_widgets/lv_slider.c:394:25
	strb.w	r0, [sp, #110]
.Ltmp121:
	.loc	10 395 12 is_stmt 1             @ lvgl/src/lv_widgets/lv_slider.c:395:12
	ldrb.w	r0, [sp, #110]
.Ltmp122:
	.loc	10 395 12 is_stmt 0             @ lvgl/src/lv_widgets/lv_slider.c:395:12
	cmp	r0, #4
	bne	.LBB1_95
	b	.LBB1_86
.LBB1_86:
.Ltmp123:
	.loc	10 396 16 is_stmt 1             @ lvgl/src/lv_widgets/lv_slider.c:396:16
	ldrb.w	r0, [sp, #111]
.Ltmp124:
	.loc	10 396 16 is_stmt 0             @ lvgl/src/lv_widgets/lv_slider.c:396:16
	lsls	r0, r0, #31
	cbz	r0, .LBB1_94
	b	.LBB1_87
.LBB1_87:
.Ltmp125:
	.loc	10 397 39 is_stmt 1             @ lvgl/src/lv_widgets/lv_slider.c:397:39
	ldr	r0, [sp, #184]
	.loc	10 397 20 is_stmt 0             @ lvgl/src/lv_widgets/lv_slider.c:397:20
	bl	lv_slider_get_type
.Ltmp126:
	.loc	10 397 20                       @ lvgl/src/lv_widgets/lv_slider.c:397:20
	cmp	r0, #2
	bne	.LBB1_92
	b	.LBB1_88
.LBB1_88:
.Ltmp127:
	.loc	10 398 24 is_stmt 1             @ lvgl/src/lv_widgets/lv_slider.c:398:24
	ldr	r0, [sp, #160]
	.loc	10 398 29 is_stmt 0             @ lvgl/src/lv_widgets/lv_slider.c:398:29
	ldrb.w	r0, [r0, #84]
	lsrs	r0, r0, #1
.Ltmp128:
	.loc	10 398 24                       @ lvgl/src/lv_widgets/lv_slider.c:398:24
	lsls	r0, r0, #31
	cbnz	r0, .LBB1_90
	b	.LBB1_89
.LBB1_89:
.Ltmp129:
	.loc	10 398 51                       @ lvgl/src/lv_widgets/lv_slider.c:398:51
	ldr	r1, [sp, #160]
	.loc	10 398 72                       @ lvgl/src/lv_widgets/lv_slider.c:398:72
	ldrb.w	r0, [r1, #84]
	orr	r0, r0, #2
	strb.w	r0, [r1, #84]
	.loc	10 398 51                       @ lvgl/src/lv_widgets/lv_slider.c:398:51
	b	.LBB1_91
.LBB1_90:
.Ltmp130:
	.loc	10 400 25 is_stmt 1             @ lvgl/src/lv_widgets/lv_slider.c:400:25
	ldr	r1, [sp, #160]
	.loc	10 400 46 is_stmt 0             @ lvgl/src/lv_widgets/lv_slider.c:400:46
	ldrb.w	r0, [r1, #84]
	and	r0, r0, #253
	strb.w	r0, [r1, #84]
	.loc	10 401 46 is_stmt 1             @ lvgl/src/lv_widgets/lv_slider.c:401:46
	ldr	r0, [sp, #112]
	movs	r1, #0
	.loc	10 401 25 is_stmt 0             @ lvgl/src/lv_widgets/lv_slider.c:401:25
	bl	lv_group_set_editing
	b	.LBB1_91
.Ltmp131:
.LBB1_91:
	.loc	10 403 17 is_stmt 1             @ lvgl/src/lv_widgets/lv_slider.c:403:17
	b	.LBB1_93
.Ltmp132:
.LBB1_92:
	.loc	10 405 42                       @ lvgl/src/lv_widgets/lv_slider.c:405:42
	ldr	r0, [sp, #112]
	movs	r1, #0
	.loc	10 405 21 is_stmt 0             @ lvgl/src/lv_widgets/lv_slider.c:405:21
	bl	lv_group_set_editing
	b	.LBB1_93
.Ltmp133:
.LBB1_93:
	.loc	10 407 13 is_stmt 1             @ lvgl/src/lv_widgets/lv_slider.c:407:13
	b	.LBB1_94
.Ltmp134:
.LBB1_94:
	.loc	10 408 9                        @ lvgl/src/lv_widgets/lv_slider.c:408:9
	b	.LBB1_95
.Ltmp135:
.LBB1_95:
	.loc	10 411 5                        @ lvgl/src/lv_widgets/lv_slider.c:411:5
	b	.LBB1_155
.Ltmp136:
.LBB1_96:
	.loc	10 412 13                       @ lvgl/src/lv_widgets/lv_slider.c:412:13
	ldrb.w	r0, [sp, #183]
.Ltmp137:
	.loc	10 412 13 is_stmt 0             @ lvgl/src/lv_widgets/lv_slider.c:412:13
	cmp	r0, #22
	bne	.LBB1_98
	b	.LBB1_97
.LBB1_97:
.Ltmp138:
	.loc	10 413 9 is_stmt 1              @ lvgl/src/lv_widgets/lv_slider.c:413:9
	ldr	r1, [sp, #160]
	.loc	10 413 30 is_stmt 0             @ lvgl/src/lv_widgets/lv_slider.c:413:30
	ldrb.w	r0, [r1, #84]
	and	r0, r0, #253
	strb.w	r0, [r1, #84]
	.loc	10 414 5 is_stmt 1              @ lvgl/src/lv_widgets/lv_slider.c:414:5
	b	.LBB1_154
.Ltmp139:
.LBB1_98:
	.loc	10 415 13                       @ lvgl/src/lv_widgets/lv_slider.c:415:13
	ldrb.w	r0, [sp, #183]
.Ltmp140:
	.loc	10 415 13 is_stmt 0             @ lvgl/src/lv_widgets/lv_slider.c:415:13
	cmp	r0, #2
	bne	.LBB1_103
	b	.LBB1_99
.LBB1_99:
.Ltmp141:
	.loc	10 418 29 is_stmt 1             @ lvgl/src/lv_widgets/lv_slider.c:418:29
	ldr	r0, [sp, #184]
	.loc	10 418 12 is_stmt 0             @ lvgl/src/lv_widgets/lv_slider.c:418:12
	bl	lv_obj_get_width
	.loc	10 418 58                       @ lvgl/src/lv_widgets/lv_slider.c:418:58
	str	r0, [sp, #64]                   @ 4-byte Spill
	ldr	r0, [sp, #176]
	.loc	10 418 40                       @ lvgl/src/lv_widgets/lv_slider.c:418:40
	bl	lv_area_get_width
	mov	r1, r0
	.loc	10 418 65                       @ lvgl/src/lv_widgets/lv_slider.c:418:65
	ldr	r0, [sp, #64]                   @ 4-byte Reload
	cmp	r0, r1
	bne	.LBB1_101
	b	.LBB1_100
.LBB1_100:
	.loc	10 419 30 is_stmt 1             @ lvgl/src/lv_widgets/lv_slider.c:419:30
	ldr	r0, [sp, #184]
	.loc	10 419 12 is_stmt 0             @ lvgl/src/lv_widgets/lv_slider.c:419:12
	bl	lv_obj_get_height
	.loc	10 419 60                       @ lvgl/src/lv_widgets/lv_slider.c:419:60
	str	r0, [sp, #60]                   @ 4-byte Spill
	ldr	r0, [sp, #176]
	.loc	10 419 41                       @ lvgl/src/lv_widgets/lv_slider.c:419:41
	bl	lv_area_get_height
	mov	r1, r0
.Ltmp142:
	.loc	10 418 12 is_stmt 1             @ lvgl/src/lv_widgets/lv_slider.c:418:12
	ldr	r0, [sp, #60]                   @ 4-byte Reload
	cmp	r0, r1
	beq	.LBB1_102
	b	.LBB1_101
.LBB1_101:
.Ltmp143:
	.loc	10 420 13                       @ lvgl/src/lv_widgets/lv_slider.c:420:13
	ldr	r0, [sp, #184]
	.loc	10 420 21 is_stmt 0             @ lvgl/src/lv_widgets/lv_slider.c:420:21
	ldr	r3, [r0, #28]
	movs	r1, #6
	movs	r2, #0
	.loc	10 420 13                       @ lvgl/src/lv_widgets/lv_slider.c:420:13
	blx	r3
	.loc	10 421 9 is_stmt 1              @ lvgl/src/lv_widgets/lv_slider.c:421:9
	b	.LBB1_102
.Ltmp144:
.LBB1_102:
	.loc	10 422 5                        @ lvgl/src/lv_widgets/lv_slider.c:422:5
	b	.LBB1_153
.Ltmp145:
.LBB1_103:
	.loc	10 423 13                       @ lvgl/src/lv_widgets/lv_slider.c:423:13
	ldrb.w	r0, [sp, #183]
.Ltmp146:
	.loc	10 423 13 is_stmt 0             @ lvgl/src/lv_widgets/lv_slider.c:423:13
	cmp	r0, #6
	bne.w	.LBB1_126
	b	.LBB1_104
.LBB1_104:
.Ltmp147:
	.loc	10 424 62 is_stmt 1             @ lvgl/src/lv_widgets/lv_slider.c:424:62
	ldr	r0, [sp, #184]
	movs	r1, #2
	.loc	10 424 36 is_stmt 0             @ lvgl/src/lv_widgets/lv_slider.c:424:36
	str	r1, [sp, #52]                   @ 4-byte Spill
	bl	lv_obj_get_style_pad_left
	ldr	r1, [sp, #52]                   @ 4-byte Reload
	.loc	10 424 24                       @ lvgl/src/lv_widgets/lv_slider.c:424:24
	strh.w	r0, [sp, #108]
	.loc	10 425 64 is_stmt 1             @ lvgl/src/lv_widgets/lv_slider.c:425:64
	ldr	r0, [sp, #184]
	.loc	10 425 37 is_stmt 0             @ lvgl/src/lv_widgets/lv_slider.c:425:37
	bl	lv_obj_get_style_pad_right
	ldr	r1, [sp, #52]                   @ 4-byte Reload
	.loc	10 425 24                       @ lvgl/src/lv_widgets/lv_slider.c:425:24
	strh.w	r0, [sp, #106]
	.loc	10 426 60 is_stmt 1             @ lvgl/src/lv_widgets/lv_slider.c:426:60
	ldr	r0, [sp, #184]
	.loc	10 426 35 is_stmt 0             @ lvgl/src/lv_widgets/lv_slider.c:426:35
	bl	lv_obj_get_style_pad_top
	ldr	r1, [sp, #52]                   @ 4-byte Reload
	.loc	10 426 24                       @ lvgl/src/lv_widgets/lv_slider.c:426:24
	strh.w	r0, [sp, #104]
	.loc	10 427 66 is_stmt 1             @ lvgl/src/lv_widgets/lv_slider.c:427:66
	ldr	r0, [sp, #184]
	.loc	10 427 38 is_stmt 0             @ lvgl/src/lv_widgets/lv_slider.c:427:38
	bl	lv_obj_get_style_pad_bottom
	.loc	10 427 24                       @ lvgl/src/lv_widgets/lv_slider.c:427:24
	strh.w	r0, [sp, #102]
	.loc	10 430 32 is_stmt 1             @ lvgl/src/lv_widgets/lv_slider.c:430:32
	ldr	r0, [sp, #184]
	bl	lv_obj_get_width
	str	r0, [sp, #56]                   @ 4-byte Spill
	ldr	r0, [sp, #184]
	bl	lv_obj_get_height
	mov	r1, r0
	ldr	r0, [sp, #56]                   @ 4-byte Reload
	cmp	r0, r1
	bge	.LBB1_106
	b	.LBB1_105
.LBB1_105:
	ldr	r0, [sp, #184]
	bl	lv_obj_get_width
	str	r0, [sp, #48]                   @ 4-byte Spill
	b	.LBB1_107
.LBB1_106:
	ldr	r0, [sp, #184]
	bl	lv_obj_get_height
	str	r0, [sp, #48]                   @ 4-byte Spill
	b	.LBB1_107
.LBB1_107:
	ldr	r0, [sp, #48]                   @ 4-byte Reload
	.loc	10 430 97 is_stmt 0             @ lvgl/src/lv_widgets/lv_slider.c:430:97
	lsrs	r0, r0, #1
	.loc	10 430 20                       @ lvgl/src/lv_widgets/lv_slider.c:430:20
	strh.w	r0, [sp, #100]
	.loc	10 431 22 is_stmt 1             @ lvgl/src/lv_widgets/lv_slider.c:431:22
	ldrsh.w	r0, [sp, #108]
	ldrsh.w	r1, [sp, #106]
	cmp	r0, r1
	ble	.LBB1_109
	b	.LBB1_108
.LBB1_108:
	ldrsh.w	r0, [sp, #108]
	str	r0, [sp, #44]                   @ 4-byte Spill
	b	.LBB1_110
.LBB1_109:
	ldrsh.w	r0, [sp, #106]
	str	r0, [sp, #44]                   @ 4-byte Spill
	b	.LBB1_110
.LBB1_110:
	ldr	r0, [sp, #44]                   @ 4-byte Reload
	str	r0, [sp, #40]                   @ 4-byte Spill
	ldrsh.w	r0, [sp, #102]
	ldrsh.w	r1, [sp, #104]
	cmp	r0, r1
	ble	.LBB1_112
	b	.LBB1_111
.LBB1_111:
	ldrsh.w	r0, [sp, #102]
	str	r0, [sp, #36]                   @ 4-byte Spill
	b	.LBB1_113
.LBB1_112:
	ldrsh.w	r0, [sp, #104]
	str	r0, [sp, #36]                   @ 4-byte Spill
	b	.LBB1_113
.LBB1_113:
	ldr	r0, [sp, #40]                   @ 4-byte Reload
	ldr	r1, [sp, #36]                   @ 4-byte Reload
	cmp	r0, r1
	ble	.LBB1_118
	b	.LBB1_114
.LBB1_114:
	ldrsh.w	r0, [sp, #108]
	ldrsh.w	r1, [sp, #106]
	cmp	r0, r1
	ble	.LBB1_116
	b	.LBB1_115
.LBB1_115:
	ldrsh.w	r0, [sp, #108]
	str	r0, [sp, #32]                   @ 4-byte Spill
	b	.LBB1_117
.LBB1_116:
	ldrsh.w	r0, [sp, #106]
	str	r0, [sp, #32]                   @ 4-byte Spill
	b	.LBB1_117
.LBB1_117:
	ldr	r0, [sp, #32]                   @ 4-byte Reload
	str	r0, [sp, #28]                   @ 4-byte Spill
	b	.LBB1_122
.LBB1_118:
	ldrsh.w	r0, [sp, #102]
	ldrsh.w	r1, [sp, #104]
	cmp	r0, r1
	ble	.LBB1_120
	b	.LBB1_119
.LBB1_119:
	ldrsh.w	r0, [sp, #102]
	str	r0, [sp, #24]                   @ 4-byte Spill
	b	.LBB1_121
.LBB1_120:
	ldrsh.w	r0, [sp, #104]
	str	r0, [sp, #24]                   @ 4-byte Spill
	b	.LBB1_121
.LBB1_121:
	ldr	r0, [sp, #24]                   @ 4-byte Reload
	str	r0, [sp, #28]                   @ 4-byte Spill
	b	.LBB1_122
.LBB1_122:
	ldr	r1, [sp, #28]                   @ 4-byte Reload
	.loc	10 431 19 is_stmt 0             @ lvgl/src/lv_widgets/lv_slider.c:431:19
	ldrh.w	r0, [sp, #100]
	add	r0, r1
	strh.w	r0, [sp, #100]
	.loc	10 432 19 is_stmt 1             @ lvgl/src/lv_widgets/lv_slider.c:432:19
	ldrh.w	r0, [sp, #100]
	adds	r0, #2
	strh.w	r0, [sp, #100]
	.loc	10 434 56                       @ lvgl/src/lv_widgets/lv_slider.c:434:56
	ldr	r0, [sp, #184]
	movs	r1, #2
	.loc	10 434 22 is_stmt 0             @ lvgl/src/lv_widgets/lv_slider.c:434:22
	bl	lv_obj_get_draw_rect_ext_pad_size
	mov	r1, r0
	.loc	10 434 19                       @ lvgl/src/lv_widgets/lv_slider.c:434:19
	ldrh.w	r0, [sp, #100]
	add	r0, r1
	strh.w	r0, [sp, #100]
	.loc	10 437 32 is_stmt 1             @ lvgl/src/lv_widgets/lv_slider.c:437:32
	ldr	r0, [sp, #184]
	ldrsh.w	r0, [r0, #50]
	ldrsh.w	r1, [sp, #100]
	cmp	r0, r1
	ble	.LBB1_124
	b	.LBB1_123
.LBB1_123:
	ldr	r0, [sp, #184]
	ldrsh.w	r0, [r0, #50]
	str	r0, [sp, #20]                   @ 4-byte Spill
	b	.LBB1_125
.LBB1_124:
	ldrsh.w	r0, [sp, #100]
	str	r0, [sp, #20]                   @ 4-byte Spill
	b	.LBB1_125
.LBB1_125:
	ldr	r0, [sp, #20]                   @ 4-byte Reload
	.loc	10 437 9 is_stmt 0              @ lvgl/src/lv_widgets/lv_slider.c:437:9
	ldr	r1, [sp, #184]
	.loc	10 437 30                       @ lvgl/src/lv_widgets/lv_slider.c:437:30
	strh	r0, [r1, #50]
	.loc	10 439 5 is_stmt 1              @ lvgl/src/lv_widgets/lv_slider.c:439:5
	b	.LBB1_152
.Ltmp148:
.LBB1_126:
	.loc	10 440 13                       @ lvgl/src/lv_widgets/lv_slider.c:440:13
	ldrb.w	r0, [sp, #183]
.Ltmp149:
	.loc	10 440 13 is_stmt 0             @ lvgl/src/lv_widgets/lv_slider.c:440:13
	cmp	r0, #24
	bne	.LBB1_145
	b	.LBB1_127
.LBB1_127:
.Ltmp150:
	.loc	10 442 28 is_stmt 1             @ lvgl/src/lv_widgets/lv_slider.c:442:28
	ldr	r0, [sp, #176]
	.loc	10 442 18 is_stmt 0             @ lvgl/src/lv_widgets/lv_slider.c:442:18
	ldrb	r0, [r0]
	.loc	10 442 14                       @ lvgl/src/lv_widgets/lv_slider.c:442:14
	strb.w	r0, [sp, #99]
.Ltmp151:
	.loc	10 444 12 is_stmt 1             @ lvgl/src/lv_widgets/lv_slider.c:444:12
	ldrsb.w	r0, [sp, #99]
	.loc	10 444 30 is_stmt 0             @ lvgl/src/lv_widgets/lv_slider.c:444:30
	cmp	r0, #19
	beq	.LBB1_129
	b	.LBB1_128
.LBB1_128:
	.loc	10 444 33                       @ lvgl/src/lv_widgets/lv_slider.c:444:33
	ldrsb.w	r0, [sp, #99]
.Ltmp152:
	.loc	10 444 12                       @ lvgl/src/lv_widgets/lv_slider.c:444:12
	cmp	r0, #17
	bne	.LBB1_135
	b	.LBB1_129
.LBB1_129:
.Ltmp153:
	.loc	10 445 17 is_stmt 1             @ lvgl/src/lv_widgets/lv_slider.c:445:17
	ldr	r0, [sp, #160]
	.loc	10 445 22 is_stmt 0             @ lvgl/src/lv_widgets/lv_slider.c:445:22
	ldrb.w	r0, [r0, #84]
	lsrs	r0, r0, #1
.Ltmp154:
	.loc	10 445 16                       @ lvgl/src/lv_widgets/lv_slider.c:445:16
	lsls	r0, r0, #31
	cbnz	r0, .LBB1_131
	b	.LBB1_130
.LBB1_130:
.Ltmp155:
	.loc	10 445 59                       @ lvgl/src/lv_widgets/lv_slider.c:445:59
	ldr	r0, [sp, #184]
	.loc	10 445 67                       @ lvgl/src/lv_widgets/lv_slider.c:445:67
	str	r0, [sp, #16]                   @ 4-byte Spill
	bl	lv_slider_get_value
	mov	r1, r0
	.loc	10 445 95                       @ lvgl/src/lv_widgets/lv_slider.c:445:95
	ldr	r0, [sp, #16]                   @ 4-byte Reload
	adds	r1, #1
	.loc	10 445 39                       @ lvgl/src/lv_widgets/lv_slider.c:445:39
	sxth	r1, r1
	movs	r2, #1
	bl	lv_slider_set_value
	b	.LBB1_132
.LBB1_131:
	.loc	10 446 43 is_stmt 1             @ lvgl/src/lv_widgets/lv_slider.c:446:43
	ldr	r0, [sp, #184]
	.loc	10 446 51 is_stmt 0             @ lvgl/src/lv_widgets/lv_slider.c:446:51
	str	r0, [sp, #12]                   @ 4-byte Spill
	bl	lv_slider_get_left_value
	mov	r1, r0
	.loc	10 446 84                       @ lvgl/src/lv_widgets/lv_slider.c:446:84
	ldr	r0, [sp, #12]                   @ 4-byte Reload
	adds	r1, #1
	.loc	10 446 18                       @ lvgl/src/lv_widgets/lv_slider.c:446:18
	sxth	r1, r1
	movs	r2, #1
	bl	lv_slider_set_left_value
	b	.LBB1_132
.Ltmp156:
.LBB1_132:
	.loc	10 448 33 is_stmt 1             @ lvgl/src/lv_widgets/lv_slider.c:448:33
	ldr	r0, [sp, #184]
	movs	r1, #16
	movs	r2, #0
	.loc	10 448 19 is_stmt 0             @ lvgl/src/lv_widgets/lv_slider.c:448:19
	bl	lv_event_send
	.loc	10 448 17                       @ lvgl/src/lv_widgets/lv_slider.c:448:17
	strb.w	r0, [sp, #175]
.Ltmp157:
	.loc	10 449 16 is_stmt 1             @ lvgl/src/lv_widgets/lv_slider.c:449:16
	ldrb.w	r0, [sp, #175]
.Ltmp158:
	.loc	10 449 16 is_stmt 0             @ lvgl/src/lv_widgets/lv_slider.c:449:16
	cmp	r0, #1
	beq	.LBB1_134
	b	.LBB1_133
.LBB1_133:
.Ltmp159:
	.loc	10 449 41                       @ lvgl/src/lv_widgets/lv_slider.c:449:41
	ldrb.w	r0, [sp, #175]
	.loc	10 449 34                       @ lvgl/src/lv_widgets/lv_slider.c:449:34
	strb.w	r0, [sp, #191]
	b	.LBB1_158
.Ltmp160:
.LBB1_134:
	.loc	10 450 9 is_stmt 1              @ lvgl/src/lv_widgets/lv_slider.c:450:9
	b	.LBB1_144
.Ltmp161:
.LBB1_135:
	.loc	10 451 17                       @ lvgl/src/lv_widgets/lv_slider.c:451:17
	ldrsb.w	r0, [sp, #99]
	.loc	10 451 34 is_stmt 0             @ lvgl/src/lv_widgets/lv_slider.c:451:34
	cmp	r0, #20
	beq	.LBB1_137
	b	.LBB1_136
.LBB1_136:
	.loc	10 451 37                       @ lvgl/src/lv_widgets/lv_slider.c:451:37
	ldrsb.w	r0, [sp, #99]
.Ltmp162:
	.loc	10 451 17                       @ lvgl/src/lv_widgets/lv_slider.c:451:17
	cmp	r0, #18
	bne	.LBB1_143
	b	.LBB1_137
.LBB1_137:
.Ltmp163:
	.loc	10 452 17 is_stmt 1             @ lvgl/src/lv_widgets/lv_slider.c:452:17
	ldr	r0, [sp, #160]
	.loc	10 452 22 is_stmt 0             @ lvgl/src/lv_widgets/lv_slider.c:452:22
	ldrb.w	r0, [r0, #84]
	lsrs	r0, r0, #1
.Ltmp164:
	.loc	10 452 16                       @ lvgl/src/lv_widgets/lv_slider.c:452:16
	lsls	r0, r0, #31
	cbnz	r0, .LBB1_139
	b	.LBB1_138
.LBB1_138:
.Ltmp165:
	.loc	10 452 59                       @ lvgl/src/lv_widgets/lv_slider.c:452:59
	ldr	r0, [sp, #184]
	.loc	10 452 67                       @ lvgl/src/lv_widgets/lv_slider.c:452:67
	str	r0, [sp, #8]                    @ 4-byte Spill
	bl	lv_slider_get_value
	mov	r1, r0
	.loc	10 452 95                       @ lvgl/src/lv_widgets/lv_slider.c:452:95
	ldr	r0, [sp, #8]                    @ 4-byte Reload
	subs	r1, #1
	.loc	10 452 39                       @ lvgl/src/lv_widgets/lv_slider.c:452:39
	sxth	r1, r1
	movs	r2, #1
	bl	lv_slider_set_value
	b	.LBB1_140
.LBB1_139:
	.loc	10 453 43 is_stmt 1             @ lvgl/src/lv_widgets/lv_slider.c:453:43
	ldr	r0, [sp, #184]
	.loc	10 453 51 is_stmt 0             @ lvgl/src/lv_widgets/lv_slider.c:453:51
	str	r0, [sp, #4]                    @ 4-byte Spill
	bl	lv_slider_get_left_value
	mov	r1, r0
	.loc	10 453 84                       @ lvgl/src/lv_widgets/lv_slider.c:453:84
	ldr	r0, [sp, #4]                    @ 4-byte Reload
	subs	r1, #1
	.loc	10 453 18                       @ lvgl/src/lv_widgets/lv_slider.c:453:18
	sxth	r1, r1
	movs	r2, #1
	bl	lv_slider_set_left_value
	b	.LBB1_140
.Ltmp166:
.LBB1_140:
	.loc	10 455 33 is_stmt 1             @ lvgl/src/lv_widgets/lv_slider.c:455:33
	ldr	r0, [sp, #184]
	movs	r1, #16
	movs	r2, #0
	.loc	10 455 19 is_stmt 0             @ lvgl/src/lv_widgets/lv_slider.c:455:19
	bl	lv_event_send
	.loc	10 455 17                       @ lvgl/src/lv_widgets/lv_slider.c:455:17
	strb.w	r0, [sp, #175]
.Ltmp167:
	.loc	10 456 16 is_stmt 1             @ lvgl/src/lv_widgets/lv_slider.c:456:16
	ldrb.w	r0, [sp, #175]
.Ltmp168:
	.loc	10 456 16 is_stmt 0             @ lvgl/src/lv_widgets/lv_slider.c:456:16
	cmp	r0, #1
	beq	.LBB1_142
	b	.LBB1_141
.LBB1_141:
.Ltmp169:
	.loc	10 456 41                       @ lvgl/src/lv_widgets/lv_slider.c:456:41
	ldrb.w	r0, [sp, #175]
	.loc	10 456 34                       @ lvgl/src/lv_widgets/lv_slider.c:456:34
	strb.w	r0, [sp, #191]
	b	.LBB1_158
.Ltmp170:
.LBB1_142:
	.loc	10 457 9 is_stmt 1              @ lvgl/src/lv_widgets/lv_slider.c:457:9
	b	.LBB1_143
.Ltmp171:
.LBB1_143:
	.loc	10 0 9 is_stmt 0                @ lvgl/src/lv_widgets/lv_slider.c:0:9
	b	.LBB1_144
.LBB1_144:
	.loc	10 459 5 is_stmt 1              @ lvgl/src/lv_widgets/lv_slider.c:459:5
	b	.LBB1_151
.Ltmp172:
.LBB1_145:
	.loc	10 460 13                       @ lvgl/src/lv_widgets/lv_slider.c:460:13
	ldrb.w	r0, [sp, #183]
.Ltmp173:
	.loc	10 460 13 is_stmt 0             @ lvgl/src/lv_widgets/lv_slider.c:460:13
	cbnz	r0, .LBB1_147
	b	.LBB1_146
.LBB1_146:
.Ltmp174:
	.loc	10 461 33 is_stmt 1             @ lvgl/src/lv_widgets/lv_slider.c:461:33
	ldr	r0, [sp, #184]
	movs	r1, #2
	.loc	10 461 9 is_stmt 0              @ lvgl/src/lv_widgets/lv_slider.c:461:9
	bl	lv_obj_clean_style_list
	.loc	10 462 5 is_stmt 1              @ lvgl/src/lv_widgets/lv_slider.c:462:5
	b	.LBB1_150
.Ltmp175:
.LBB1_147:
	.loc	10 463 13                       @ lvgl/src/lv_widgets/lv_slider.c:463:13
	ldrb.w	r0, [sp, #183]
.Ltmp176:
	.loc	10 463 13 is_stmt 0             @ lvgl/src/lv_widgets/lv_slider.c:463:13
	cmp	r0, #25
	bne	.LBB1_149
	b	.LBB1_148
.LBB1_148:
.Ltmp177:
	.loc	10 465 35 is_stmt 1             @ lvgl/src/lv_widgets/lv_slider.c:465:35
	ldr	r0, [sp, #176]
	.loc	10 465 16 is_stmt 0             @ lvgl/src/lv_widgets/lv_slider.c:465:16
	str	r0, [sp, #92]
	.loc	10 466 10 is_stmt 1             @ lvgl/src/lv_widgets/lv_slider.c:466:10
	ldr	r1, [sp, #92]
	movs	r0, #1
	.loc	10 466 25 is_stmt 0             @ lvgl/src/lv_widgets/lv_slider.c:466:25
	strb	r0, [r1]
	.loc	10 468 5 is_stmt 1              @ lvgl/src/lv_widgets/lv_slider.c:468:5
	b	.LBB1_149
.Ltmp178:
.LBB1_149:
	.loc	10 0 5 is_stmt 0                @ lvgl/src/lv_widgets/lv_slider.c:0:5
	b	.LBB1_150
.LBB1_150:
	b	.LBB1_151
.LBB1_151:
	b	.LBB1_152
.LBB1_152:
	b	.LBB1_153
.LBB1_153:
	b	.LBB1_154
.LBB1_154:
	b	.LBB1_155
.LBB1_155:
	b	.LBB1_156
.LBB1_156:
	b	.LBB1_157
.LBB1_157:
	.loc	10 470 12 is_stmt 1             @ lvgl/src/lv_widgets/lv_slider.c:470:12
	ldrb.w	r0, [sp, #175]
	.loc	10 470 5 is_stmt 0              @ lvgl/src/lv_widgets/lv_slider.c:470:5
	strb.w	r0, [sp, #191]
	b	.LBB1_158
.LBB1_158:
	.loc	10 471 1 is_stmt 1              @ lvgl/src/lv_widgets/lv_slider.c:471:1
	ldrb.w	r0, [sp, #191]
	add	sp, #192
	pop	{r7, pc}
.Ltmp179:
.Lfunc_end1:
	.size	lv_slider_signal, .Lfunc_end1-lv_slider_signal
	.cfi_endproc
	.cantunwind
	.fnend
                                        @ -- End function
	.section	.text.lv_slider_design,"ax",%progbits
	.p2align	3                               @ -- Begin function lv_slider_design
	.type	lv_slider_design,%function
	.code	16                              @ @lv_slider_design
	.thumb_func
lv_slider_design:
.Lfunc_begin2:
	.loc	10 162 0                        @ lvgl/src/lv_widgets/lv_slider.c:162:0
	.fnstart
	.cfi_startproc
@ %bb.0:
	.save	{r7, lr}
	push	{r7, lr}
	.cfi_def_cfa_offset 8
	.cfi_offset lr, -4
	.cfi_offset r7, -8
	.pad	#104
	sub	sp, #104
	.cfi_def_cfa_offset 112
                                        @ kill: def $r3 killed $r2
	str	r0, [sp, #96]
	str	r1, [sp, #92]
	strb.w	r2, [sp, #91]
.Ltmp180:
	.loc	10 164 8 prologue_end           @ lvgl/src/lv_widgets/lv_slider.c:164:8
	ldrb.w	r0, [sp, #91]
.Ltmp181:
	.loc	10 164 8 is_stmt 0              @ lvgl/src/lv_widgets/lv_slider.c:164:8
	cmp	r0, #2
	bne	.LBB2_2
	b	.LBB2_1
.LBB2_1:
	.loc	10 0 8                          @ lvgl/src/lv_widgets/lv_slider.c:0:8
	movs	r0, #2
.Ltmp182:
	.loc	10 165 9 is_stmt 1              @ lvgl/src/lv_widgets/lv_slider.c:165:9
	strb.w	r0, [sp, #103]
	b	.LBB2_72
.Ltmp183:
.LBB2_2:
	.loc	10 168 13                       @ lvgl/src/lv_widgets/lv_slider.c:168:13
	ldrb.w	r0, [sp, #91]
.Ltmp184:
	.loc	10 168 13 is_stmt 0             @ lvgl/src/lv_widgets/lv_slider.c:168:13
	cmp	r0, #0
	bne.w	.LBB2_67
	b	.LBB2_3
.LBB2_3:
.Ltmp185:
	.loc	10 171 9 is_stmt 1              @ lvgl/src/lv_widgets/lv_slider.c:171:9
	movw	r0, :lower16:ancestor_design_f
	movt	r0, :upper16:ancestor_design_f
	ldr	r3, [r0]
	.loc	10 171 27 is_stmt 0             @ lvgl/src/lv_widgets/lv_slider.c:171:27
	ldr	r0, [sp, #96]
	.loc	10 171 35                       @ lvgl/src/lv_widgets/lv_slider.c:171:35
	ldr	r1, [sp, #92]
	.loc	10 171 46                       @ lvgl/src/lv_widgets/lv_slider.c:171:46
	ldrb.w	r2, [sp, #91]
	.loc	10 171 9                        @ lvgl/src/lv_widgets/lv_slider.c:171:9
	blx	r3
	.loc	10 173 53 is_stmt 1             @ lvgl/src/lv_widgets/lv_slider.c:173:53
	ldr	r0, [sp, #96]
	.loc	10 173 33 is_stmt 0             @ lvgl/src/lv_widgets/lv_slider.c:173:33
	bl	lv_obj_get_ext_attr
	.loc	10 173 27                       @ lvgl/src/lv_widgets/lv_slider.c:173:27
	str	r0, [sp, #84]
	.loc	10 174 54 is_stmt 1             @ lvgl/src/lv_widgets/lv_slider.c:174:54
	ldr	r0, [sp, #96]
	.loc	10 174 34 is_stmt 0             @ lvgl/src/lv_widgets/lv_slider.c:174:34
	bl	lv_obj_get_base_dir
	.loc	10 174 23                       @ lvgl/src/lv_widgets/lv_slider.c:174:23
	strb.w	r0, [sp, #83]
	.loc	10 176 44 is_stmt 1             @ lvgl/src/lv_widgets/lv_slider.c:176:44
	ldr	r0, [sp, #96]
	.loc	10 176 27 is_stmt 0             @ lvgl/src/lv_widgets/lv_slider.c:176:27
	bl	lv_obj_get_width
	.loc	10 176 20                       @ lvgl/src/lv_widgets/lv_slider.c:176:20
	strh.w	r0, [sp, #80]
	.loc	10 177 45 is_stmt 1             @ lvgl/src/lv_widgets/lv_slider.c:177:45
	ldr	r0, [sp, #96]
	.loc	10 177 27 is_stmt 0             @ lvgl/src/lv_widgets/lv_slider.c:177:27
	bl	lv_obj_get_height
	.loc	10 177 20                       @ lvgl/src/lv_widgets/lv_slider.c:177:20
	strh.w	r0, [sp, #78]
	.loc	10 178 20 is_stmt 1             @ lvgl/src/lv_widgets/lv_slider.c:178:20
	ldrsh.w	r1, [sp, #80]
	.loc	10 178 28 is_stmt 0             @ lvgl/src/lv_widgets/lv_slider.c:178:28
	ldrsh.w	r2, [sp, #78]
	movs	r0, #0
	.loc	10 178 25                       @ lvgl/src/lv_widgets/lv_slider.c:178:25
	cmp	r1, r2
	it	ge
	movge	r0, #1
	.loc	10 178 14                       @ lvgl/src/lv_widgets/lv_slider.c:178:14
	strb.w	r0, [sp, #77]
	.loc	10 179 32 is_stmt 1             @ lvgl/src/lv_widgets/lv_slider.c:179:32
	ldrb.w	r0, [sp, #77]
	lsls	r0, r0, #31
	cbz	r0, .LBB2_5
	b	.LBB2_4
.LBB2_4:
	.loc	10 179 38 is_stmt 0             @ lvgl/src/lv_widgets/lv_slider.c:179:38
	ldrsh.w	r0, [sp, #78]
	.loc	10 179 32                       @ lvgl/src/lv_widgets/lv_slider.c:179:32
	str	r0, [sp, #60]                   @ 4-byte Spill
	b	.LBB2_6
.LBB2_5:
	.loc	10 179 45                       @ lvgl/src/lv_widgets/lv_slider.c:179:45
	ldrsh.w	r0, [sp, #80]
	.loc	10 179 32                       @ lvgl/src/lv_widgets/lv_slider.c:179:32
	str	r0, [sp, #60]                   @ 4-byte Spill
	b	.LBB2_6
.LBB2_6:
	ldr	r0, [sp, #60]                   @ 4-byte Reload
	.loc	10 179 20                       @ lvgl/src/lv_widgets/lv_slider.c:179:20
	strh.w	r0, [sp, #74]
	movs	r0, #0
	.loc	10 180 14 is_stmt 1             @ lvgl/src/lv_widgets/lv_slider.c:180:14
	strb.w	r0, [sp, #73]
.Ltmp186:
	.loc	10 181 12                       @ lvgl/src/lv_widgets/lv_slider.c:181:12
	ldr	r0, [sp, #84]
	.loc	10 181 21 is_stmt 0             @ lvgl/src/lv_widgets/lv_slider.c:181:21
	ldrb.w	r0, [r0, #44]
	and	r0, r0, #3
	.loc	10 181 53                       @ lvgl/src/lv_widgets/lv_slider.c:181:53
	cmp	r0, #1
	bne	.LBB2_10
	b	.LBB2_7
.LBB2_7:
	.loc	10 181 56                       @ lvgl/src/lv_widgets/lv_slider.c:181:56
	ldr	r0, [sp, #84]
	.loc	10 181 65                       @ lvgl/src/lv_widgets/lv_slider.c:181:65
	ldrsh.w	r0, [r0, #2]
	.loc	10 181 79                       @ lvgl/src/lv_widgets/lv_slider.c:181:79
	cmp.w	r0, #-1
	bgt	.LBB2_10
	b	.LBB2_8
.LBB2_8:
	.loc	10 181 82                       @ lvgl/src/lv_widgets/lv_slider.c:181:82
	ldr	r0, [sp, #84]
	.loc	10 181 91                       @ lvgl/src/lv_widgets/lv_slider.c:181:91
	ldrsh.w	r0, [r0, #4]
.Ltmp187:
	.loc	10 181 12                       @ lvgl/src/lv_widgets/lv_slider.c:181:12
	cmp	r0, #1
	blt	.LBB2_10
	b	.LBB2_9
.LBB2_9:
	.loc	10 0 12                         @ lvgl/src/lv_widgets/lv_slider.c:0:12
	movs	r0, #1
.Ltmp188:
	.loc	10 181 110                      @ lvgl/src/lv_widgets/lv_slider.c:181:110
	strb.w	r0, [sp, #73]
	.loc	10 181 106                      @ lvgl/src/lv_widgets/lv_slider.c:181:106
	b	.LBB2_10
.Ltmp189:
.LBB2_10:
	.loc	10 186 12 is_stmt 1             @ lvgl/src/lv_widgets/lv_slider.c:186:12
	ldrb.w	r0, [sp, #77]
.Ltmp190:
	.loc	10 186 12 is_stmt 0             @ lvgl/src/lv_widgets/lv_slider.c:186:12
	lsls	r0, r0, #31
	cmp	r0, #0
	beq.w	.LBB2_45
	b	.LBB2_11
.LBB2_11:
.Ltmp191:
	.loc	10 187 17 is_stmt 1             @ lvgl/src/lv_widgets/lv_slider.c:187:17
	ldrb.w	r0, [sp, #73]
.Ltmp192:
	.loc	10 187 16 is_stmt 0             @ lvgl/src/lv_widgets/lv_slider.c:187:16
	lsls	r0, r0, #31
	cbnz	r0, .LBB2_22
	b	.LBB2_12
.LBB2_12:
.Ltmp193:
	.loc	10 188 32 is_stmt 1             @ lvgl/src/lv_widgets/lv_slider.c:188:32
	ldrb.w	r0, [sp, #77]
	lsls	r0, r0, #31
	cbz	r0, .LBB2_17
	b	.LBB2_13
.LBB2_13:
	ldrb.w	r0, [sp, #83]
	cmp	r0, #1
	bne	.LBB2_15
	b	.LBB2_14
.LBB2_14:
	ldr	r0, [sp, #84]
	ldrsh.w	r0, [r0, #8]
	str	r0, [sp, #56]                   @ 4-byte Spill
	b	.LBB2_16
.LBB2_15:
	ldr	r0, [sp, #84]
	ldrsh.w	r0, [r0, #12]
	str	r0, [sp, #56]                   @ 4-byte Spill
	b	.LBB2_16
.LBB2_16:
	ldr	r0, [sp, #56]                   @ 4-byte Reload
	str	r0, [sp, #52]                   @ 4-byte Spill
	b	.LBB2_21
.LBB2_17:
	ldrb.w	r0, [sp, #83]
	cmp	r0, #1
	bne	.LBB2_19
	b	.LBB2_18
.LBB2_18:
	ldr	r0, [sp, #84]
	ldrsh.w	r0, [r0, #10]
	str	r0, [sp, #48]                   @ 4-byte Spill
	b	.LBB2_20
.LBB2_19:
	ldr	r0, [sp, #84]
	ldrsh.w	r0, [r0, #14]
	str	r0, [sp, #48]                   @ 4-byte Spill
	b	.LBB2_20
.LBB2_20:
	ldr	r0, [sp, #48]                   @ 4-byte Reload
	str	r0, [sp, #52]                   @ 4-byte Spill
	b	.LBB2_21
.LBB2_21:
	ldr	r0, [sp, #52]                   @ 4-byte Reload
	.loc	10 188 30 is_stmt 0             @ lvgl/src/lv_widgets/lv_slider.c:188:30
	strh.w	r0, [sp, #64]
	.loc	10 189 13 is_stmt 1             @ lvgl/src/lv_widgets/lv_slider.c:189:13
	b	.LBB2_44
.Ltmp194:
.LBB2_22:
	.loc	10 191 20                       @ lvgl/src/lv_widgets/lv_slider.c:191:20
	ldr	r0, [sp, #84]
	.loc	10 191 29 is_stmt 0             @ lvgl/src/lv_widgets/lv_slider.c:191:29
	ldrsh.w	r0, [r0]
.Ltmp195:
	.loc	10 191 20                       @ lvgl/src/lv_widgets/lv_slider.c:191:20
	cmp	r0, #0
	bmi	.LBB2_33
	b	.LBB2_23
.LBB2_23:
.Ltmp196:
	.loc	10 192 36 is_stmt 1             @ lvgl/src/lv_widgets/lv_slider.c:192:36
	ldrb.w	r0, [sp, #77]
	lsls	r0, r0, #31
	cbz	r0, .LBB2_28
	b	.LBB2_24
.LBB2_24:
	ldrb.w	r0, [sp, #83]
	cmp	r0, #1
	bne	.LBB2_26
	b	.LBB2_25
.LBB2_25:
	ldr	r0, [sp, #84]
	ldrsh.w	r0, [r0, #8]
	str	r0, [sp, #44]                   @ 4-byte Spill
	b	.LBB2_27
.LBB2_26:
	ldr	r0, [sp, #84]
	ldrsh.w	r0, [r0, #12]
	str	r0, [sp, #44]                   @ 4-byte Spill
	b	.LBB2_27
.LBB2_27:
	ldr	r0, [sp, #44]                   @ 4-byte Reload
	str	r0, [sp, #40]                   @ 4-byte Spill
	b	.LBB2_32
.LBB2_28:
	ldrb.w	r0, [sp, #83]
	cmp	r0, #1
	bne	.LBB2_30
	b	.LBB2_29
.LBB2_29:
	ldr	r0, [sp, #84]
	ldrsh.w	r0, [r0, #10]
	str	r0, [sp, #36]                   @ 4-byte Spill
	b	.LBB2_31
.LBB2_30:
	ldr	r0, [sp, #84]
	ldrsh.w	r0, [r0, #14]
	str	r0, [sp, #36]                   @ 4-byte Spill
	b	.LBB2_31
.LBB2_31:
	ldr	r0, [sp, #36]                   @ 4-byte Reload
	str	r0, [sp, #40]                   @ 4-byte Spill
	b	.LBB2_32
.LBB2_32:
	ldr	r0, [sp, #40]                   @ 4-byte Reload
	.loc	10 192 34 is_stmt 0             @ lvgl/src/lv_widgets/lv_slider.c:192:34
	strh.w	r0, [sp, #64]
	.loc	10 193 17 is_stmt 1             @ lvgl/src/lv_widgets/lv_slider.c:193:17
	b	.LBB2_43
.Ltmp197:
.LBB2_33:
	.loc	10 195 36                       @ lvgl/src/lv_widgets/lv_slider.c:195:36
	ldrb.w	r0, [sp, #77]
	lsls	r0, r0, #31
	cbz	r0, .LBB2_38
	b	.LBB2_34
.LBB2_34:
	ldrb.w	r0, [sp, #83]
	cmp	r0, #1
	beq	.LBB2_36
	b	.LBB2_35
.LBB2_35:
	ldr	r0, [sp, #84]
	ldrsh.w	r0, [r0, #8]
	str	r0, [sp, #32]                   @ 4-byte Spill
	b	.LBB2_37
.LBB2_36:
	ldr	r0, [sp, #84]
	ldrsh.w	r0, [r0, #12]
	str	r0, [sp, #32]                   @ 4-byte Spill
	b	.LBB2_37
.LBB2_37:
	ldr	r0, [sp, #32]                   @ 4-byte Reload
	str	r0, [sp, #28]                   @ 4-byte Spill
	b	.LBB2_42
.LBB2_38:
	ldrb.w	r0, [sp, #83]
	cmp	r0, #1
	beq	.LBB2_40
	b	.LBB2_39
.LBB2_39:
	ldr	r0, [sp, #84]
	ldrsh.w	r0, [r0, #10]
	str	r0, [sp, #24]                   @ 4-byte Spill
	b	.LBB2_41
.LBB2_40:
	ldr	r0, [sp, #84]
	ldrsh.w	r0, [r0, #14]
	str	r0, [sp, #24]                   @ 4-byte Spill
	b	.LBB2_41
.LBB2_41:
	ldr	r0, [sp, #24]                   @ 4-byte Reload
	str	r0, [sp, #28]                   @ 4-byte Spill
	b	.LBB2_42
.LBB2_42:
	ldr	r0, [sp, #28]                   @ 4-byte Reload
	.loc	10 195 34 is_stmt 0             @ lvgl/src/lv_widgets/lv_slider.c:195:34
	strh.w	r0, [sp, #64]
	b	.LBB2_43
.Ltmp198:
.LBB2_43:
	.loc	10 0 34                         @ lvgl/src/lv_widgets/lv_slider.c:0:34
	b	.LBB2_44
.LBB2_44:
	.loc	10 198 9 is_stmt 1              @ lvgl/src/lv_widgets/lv_slider.c:198:9
	b	.LBB2_52
.Ltmp199:
.LBB2_45:
	.loc	10 201 17                       @ lvgl/src/lv_widgets/lv_slider.c:201:17
	ldrb.w	r0, [sp, #73]
.Ltmp200:
	.loc	10 201 16 is_stmt 0             @ lvgl/src/lv_widgets/lv_slider.c:201:16
	lsls	r0, r0, #31
	cbnz	r0, .LBB2_47
	b	.LBB2_46
.LBB2_46:
.Ltmp201:
	.loc	10 202 32 is_stmt 1             @ lvgl/src/lv_widgets/lv_slider.c:202:32
	ldr	r0, [sp, #84]
	.loc	10 202 52 is_stmt 0             @ lvgl/src/lv_widgets/lv_slider.c:202:52
	ldrh	r0, [r0, #10]
	.loc	10 202 30                       @ lvgl/src/lv_widgets/lv_slider.c:202:30
	strh.w	r0, [sp, #66]
	.loc	10 203 13 is_stmt 1             @ lvgl/src/lv_widgets/lv_slider.c:203:13
	b	.LBB2_51
.Ltmp202:
.LBB2_47:
	.loc	10 205 20                       @ lvgl/src/lv_widgets/lv_slider.c:205:20
	ldr	r0, [sp, #84]
	.loc	10 205 29 is_stmt 0             @ lvgl/src/lv_widgets/lv_slider.c:205:29
	ldrsh.w	r0, [r0]
.Ltmp203:
	.loc	10 205 20                       @ lvgl/src/lv_widgets/lv_slider.c:205:20
	cmp	r0, #0
	bmi	.LBB2_49
	b	.LBB2_48
.LBB2_48:
.Ltmp204:
	.loc	10 206 36 is_stmt 1             @ lvgl/src/lv_widgets/lv_slider.c:206:36
	ldr	r0, [sp, #84]
	.loc	10 206 56 is_stmt 0             @ lvgl/src/lv_widgets/lv_slider.c:206:56
	ldrh	r0, [r0, #10]
	.loc	10 206 34                       @ lvgl/src/lv_widgets/lv_slider.c:206:34
	strh.w	r0, [sp, #66]
	.loc	10 207 17 is_stmt 1             @ lvgl/src/lv_widgets/lv_slider.c:207:17
	b	.LBB2_50
.Ltmp205:
.LBB2_49:
	.loc	10 209 36                       @ lvgl/src/lv_widgets/lv_slider.c:209:36
	ldr	r0, [sp, #84]
	.loc	10 209 56 is_stmt 0             @ lvgl/src/lv_widgets/lv_slider.c:209:56
	ldrh	r0, [r0, #14]
	.loc	10 209 34                       @ lvgl/src/lv_widgets/lv_slider.c:209:34
	strh.w	r0, [sp, #66]
	b	.LBB2_50
.Ltmp206:
.LBB2_50:
	.loc	10 0 34                         @ lvgl/src/lv_widgets/lv_slider.c:0:34
	b	.LBB2_51
.LBB2_51:
	b	.LBB2_52
.LBB2_52:
	.loc	10 213 33 is_stmt 1             @ lvgl/src/lv_widgets/lv_slider.c:213:33
	ldr	r0, [sp, #96]
	.loc	10 213 53 is_stmt 0             @ lvgl/src/lv_widgets/lv_slider.c:213:53
	ldrsh.w	r2, [sp, #74]
	.loc	10 213 9                        @ lvgl/src/lv_widgets/lv_slider.c:213:9
	ldrb.w	r1, [sp, #77]
	and	r3, r1, #1
	add	r1, sp, #64
	str	r1, [sp, #20]                   @ 4-byte Spill
	bl	lv_slider_position_knob
	ldr	r1, [sp, #20]                   @ 4-byte Reload
	.loc	10 215 23 is_stmt 1             @ lvgl/src/lv_widgets/lv_slider.c:215:23
	ldr	r0, [sp, #84]
	.loc	10 215 28 is_stmt 0             @ lvgl/src/lv_widgets/lv_slider.c:215:28
	adds	r0, #72
	.loc	10 215 9                        @ lvgl/src/lv_widgets/lv_slider.c:215:9
	bl	lv_area_copy
	ldr	r1, [sp, #20]                   @ 4-byte Reload
	.loc	10 216 29 is_stmt 1             @ lvgl/src/lv_widgets/lv_slider.c:216:29
	ldr	r0, [sp, #96]
	.loc	10 216 49 is_stmt 0             @ lvgl/src/lv_widgets/lv_slider.c:216:49
	ldr	r2, [sp, #92]
	.loc	10 216 9                        @ lvgl/src/lv_widgets/lv_slider.c:216:9
	bl	lv_slider_draw_knob
.Ltmp207:
	.loc	10 218 31 is_stmt 1             @ lvgl/src/lv_widgets/lv_slider.c:218:31
	ldr	r0, [sp, #96]
	.loc	10 218 12 is_stmt 0             @ lvgl/src/lv_widgets/lv_slider.c:218:12
	bl	lv_slider_get_type
.Ltmp208:
	.loc	10 218 12                       @ lvgl/src/lv_widgets/lv_slider.c:218:12
	cmp	r0, #2
	bne	.LBB2_66
	b	.LBB2_53
.LBB2_53:
.Ltmp209:
	.loc	10 220 16 is_stmt 1             @ lvgl/src/lv_widgets/lv_slider.c:220:16
	ldrb.w	r0, [sp, #77]
.Ltmp210:
	.loc	10 220 16 is_stmt 0             @ lvgl/src/lv_widgets/lv_slider.c:220:16
	lsls	r0, r0, #31
	cbz	r0, .LBB2_64
	b	.LBB2_54
.LBB2_54:
.Ltmp211:
	.loc	10 221 32 is_stmt 1             @ lvgl/src/lv_widgets/lv_slider.c:221:32
	ldrb.w	r0, [sp, #77]
	lsls	r0, r0, #31
	cbz	r0, .LBB2_59
	b	.LBB2_55
.LBB2_55:
	ldrb.w	r0, [sp, #83]
	cmp	r0, #1
	beq	.LBB2_57
	b	.LBB2_56
.LBB2_56:
	ldr	r0, [sp, #84]
	ldrsh.w	r0, [r0, #8]
	str	r0, [sp, #16]                   @ 4-byte Spill
	b	.LBB2_58
.LBB2_57:
	ldr	r0, [sp, #84]
	ldrsh.w	r0, [r0, #12]
	str	r0, [sp, #16]                   @ 4-byte Spill
	b	.LBB2_58
.LBB2_58:
	ldr	r0, [sp, #16]                   @ 4-byte Reload
	str	r0, [sp, #12]                   @ 4-byte Spill
	b	.LBB2_63
.LBB2_59:
	ldrb.w	r0, [sp, #83]
	cmp	r0, #1
	beq	.LBB2_61
	b	.LBB2_60
.LBB2_60:
	ldr	r0, [sp, #84]
	ldrsh.w	r0, [r0, #10]
	str	r0, [sp, #8]                    @ 4-byte Spill
	b	.LBB2_62
.LBB2_61:
	ldr	r0, [sp, #84]
	ldrsh.w	r0, [r0, #14]
	str	r0, [sp, #8]                    @ 4-byte Spill
	b	.LBB2_62
.LBB2_62:
	ldr	r0, [sp, #8]                    @ 4-byte Reload
	str	r0, [sp, #12]                   @ 4-byte Spill
	b	.LBB2_63
.LBB2_63:
	ldr	r0, [sp, #12]                   @ 4-byte Reload
	.loc	10 221 30 is_stmt 0             @ lvgl/src/lv_widgets/lv_slider.c:221:30
	strh.w	r0, [sp, #64]
	.loc	10 222 13 is_stmt 1             @ lvgl/src/lv_widgets/lv_slider.c:222:13
	b	.LBB2_65
.Ltmp212:
.LBB2_64:
	.loc	10 224 32                       @ lvgl/src/lv_widgets/lv_slider.c:224:32
	ldr	r0, [sp, #84]
	.loc	10 224 52 is_stmt 0             @ lvgl/src/lv_widgets/lv_slider.c:224:52
	ldrh	r0, [r0, #14]
	.loc	10 224 30                       @ lvgl/src/lv_widgets/lv_slider.c:224:30
	strh.w	r0, [sp, #66]
	b	.LBB2_65
.Ltmp213:
.LBB2_65:
	.loc	10 226 37 is_stmt 1             @ lvgl/src/lv_widgets/lv_slider.c:226:37
	ldr	r0, [sp, #96]
	.loc	10 226 57 is_stmt 0             @ lvgl/src/lv_widgets/lv_slider.c:226:57
	ldrsh.w	r2, [sp, #74]
	.loc	10 226 13                       @ lvgl/src/lv_widgets/lv_slider.c:226:13
	ldrb.w	r1, [sp, #77]
	and	r3, r1, #1
	add	r1, sp, #64
	str	r1, [sp, #4]                    @ 4-byte Spill
	bl	lv_slider_position_knob
	ldr	r1, [sp, #4]                    @ 4-byte Reload
	.loc	10 228 27 is_stmt 1             @ lvgl/src/lv_widgets/lv_slider.c:228:27
	ldr	r0, [sp, #84]
	.loc	10 228 32 is_stmt 0             @ lvgl/src/lv_widgets/lv_slider.c:228:32
	adds	r0, #64
	.loc	10 228 13                       @ lvgl/src/lv_widgets/lv_slider.c:228:13
	bl	lv_area_copy
	ldr	r1, [sp, #4]                    @ 4-byte Reload
	.loc	10 229 33 is_stmt 1             @ lvgl/src/lv_widgets/lv_slider.c:229:33
	ldr	r0, [sp, #96]
	.loc	10 229 53 is_stmt 0             @ lvgl/src/lv_widgets/lv_slider.c:229:53
	ldr	r2, [sp, #92]
	.loc	10 229 13                       @ lvgl/src/lv_widgets/lv_slider.c:229:13
	bl	lv_slider_draw_knob
	.loc	10 230 9 is_stmt 1              @ lvgl/src/lv_widgets/lv_slider.c:230:9
	b	.LBB2_66
.Ltmp214:
.LBB2_66:
	.loc	10 231 5                        @ lvgl/src/lv_widgets/lv_slider.c:231:5
	b	.LBB2_70
.Ltmp215:
.LBB2_67:
	.loc	10 233 13                       @ lvgl/src/lv_widgets/lv_slider.c:233:13
	ldrb.w	r0, [sp, #91]
.Ltmp216:
	.loc	10 233 13 is_stmt 0             @ lvgl/src/lv_widgets/lv_slider.c:233:13
	cmp	r0, #1
	bne	.LBB2_69
	b	.LBB2_68
.LBB2_68:
.Ltmp217:
	.loc	10 234 16 is_stmt 1             @ lvgl/src/lv_widgets/lv_slider.c:234:16
	movw	r0, :lower16:ancestor_design_f
	movt	r0, :upper16:ancestor_design_f
	ldr	r3, [r0]
	.loc	10 234 34 is_stmt 0             @ lvgl/src/lv_widgets/lv_slider.c:234:34
	ldr	r0, [sp, #96]
	.loc	10 234 42                       @ lvgl/src/lv_widgets/lv_slider.c:234:42
	ldr	r1, [sp, #92]
	.loc	10 234 53                       @ lvgl/src/lv_widgets/lv_slider.c:234:53
	ldrb.w	r2, [sp, #91]
	.loc	10 234 16                       @ lvgl/src/lv_widgets/lv_slider.c:234:16
	blx	r3
	.loc	10 234 9                        @ lvgl/src/lv_widgets/lv_slider.c:234:9
	strb.w	r0, [sp, #103]
	b	.LBB2_72
.Ltmp218:
.LBB2_69:
	.loc	10 0 9                          @ lvgl/src/lv_widgets/lv_slider.c:0:9
	b	.LBB2_70
.LBB2_70:
	b	.LBB2_71
.LBB2_71:
	movs	r0, #0
	.loc	10 237 5 is_stmt 1              @ lvgl/src/lv_widgets/lv_slider.c:237:5
	strb.w	r0, [sp, #103]
	b	.LBB2_72
.LBB2_72:
	.loc	10 238 1                        @ lvgl/src/lv_widgets/lv_slider.c:238:1
	ldrb.w	r0, [sp, #103]
	add	sp, #104
	pop	{r7, pc}
.Ltmp219:
.Lfunc_end2:
	.size	lv_slider_design, .Lfunc_end2-lv_slider_design
	.cfi_endproc
	.cantunwind
	.fnend
                                        @ -- End function
	.section	.text.lv_area_copy,"ax",%progbits
	.p2align	3                               @ -- Begin function lv_area_copy
	.type	lv_area_copy,%function
	.code	16                              @ @lv_area_copy
	.thumb_func
lv_area_copy:
.Lfunc_begin3:
	.loc	5 98 0                          @ lvgl/src/lv_widgets/../lv_core/../lv_hal/../lv_misc/lv_area.h:98:0
	.fnstart
	.cfi_startproc
@ %bb.0:
	.save	{r7, lr}
	push	{r7, lr}
	.cfi_def_cfa_offset 8
	.cfi_offset lr, -4
	.cfi_offset r7, -8
	.pad	#8
	sub	sp, #8
	.cfi_def_cfa_offset 16
	str	r0, [sp, #4]
	str	r1, [sp]
.Ltmp220:
	.loc	5 99 22 prologue_end            @ lvgl/src/lv_widgets/../lv_core/../lv_hal/../lv_misc/lv_area.h:99:22
	ldr	r0, [sp, #4]
	.loc	5 99 28 is_stmt 0               @ lvgl/src/lv_widgets/../lv_core/../lv_hal/../lv_misc/lv_area.h:99:28
	ldr	r1, [sp]
	movs	r2, #8
	.loc	5 99 5                          @ lvgl/src/lv_widgets/../lv_core/../lv_hal/../lv_misc/lv_area.h:99:5
	bl	_lv_memcpy_small
	.loc	5 100 1 is_stmt 1               @ lvgl/src/lv_widgets/../lv_core/../lv_hal/../lv_misc/lv_area.h:100:1
	add	sp, #8
	pop	{r7, pc}
.Ltmp221:
.Lfunc_end3:
	.size	lv_area_copy, .Lfunc_end3-lv_area_copy
	.cfi_endproc
	.cantunwind
	.fnend
                                        @ -- End function
	.section	.text.lv_slider_get_value,"ax",%progbits
	.hidden	lv_slider_get_value             @ -- Begin function lv_slider_get_value
	.globl	lv_slider_get_value
	.p2align	3
	.type	lv_slider_get_value,%function
	.code	16                              @ @lv_slider_get_value
	.thumb_func
lv_slider_get_value:
.Lfunc_begin4:
	.loc	10 129 0                        @ lvgl/src/lv_widgets/lv_slider.c:129:0
	.fnstart
	.cfi_startproc
@ %bb.0:
	.save	{r7, lr}
	push	{r7, lr}
	.cfi_def_cfa_offset 8
	.cfi_offset lr, -4
	.cfi_offset r7, -8
	.pad	#8
	sub	sp, #8
	.cfi_def_cfa_offset 16
	str	r0, [sp, #4]
.Ltmp222:
	.loc	10 130 5 prologue_end           @ lvgl/src/lv_widgets/lv_slider.c:130:5
	b	.LBB4_1
.LBB4_1:
.Ltmp223:
	.loc	10 130 5 is_stmt 0              @ lvgl/src/lv_widgets/lv_slider.c:130:5
	ldr	r0, [sp, #4]
	bl	lv_debug_check_null
.Ltmp224:
	.loc	10 130 5                        @ lvgl/src/lv_widgets/lv_slider.c:130:5
	cbnz	r0, .LBB4_4
	b	.LBB4_2
.LBB4_2:
.Ltmp225:
	.loc	10 130 5                        @ lvgl/src/lv_widgets/lv_slider.c:130:5
	ldr	r2, [sp, #4]
	movw	r0, :lower16:.L.str.1
	movt	r0, :upper16:.L.str.1
	movs	r3, #0
	bl	lv_debug_log_error
	b	.LBB4_3
.LBB4_3:                                @ =>This Inner Loop Header: Depth=1
	b	.LBB4_3
.Ltmp226:
.LBB4_4:
	.loc	10 130 5                        @ lvgl/src/lv_widgets/lv_slider.c:130:5
	b	.LBB4_5
.Ltmp227:
.LBB4_5:
	.loc	10 131 29 is_stmt 1             @ lvgl/src/lv_widgets/lv_slider.c:131:29
	ldr	r0, [sp, #4]
	.loc	10 131 12 is_stmt 0             @ lvgl/src/lv_widgets/lv_slider.c:131:12
	bl	lv_bar_get_value
	.loc	10 131 5                        @ lvgl/src/lv_widgets/lv_slider.c:131:5
	add	sp, #8
	pop	{r7, pc}
.Ltmp228:
.Lfunc_end4:
	.size	lv_slider_get_value, .Lfunc_end4-lv_slider_get_value
	.cfi_endproc
	.cantunwind
	.fnend
                                        @ -- End function
	.section	.text.lv_slider_is_dragged,"ax",%progbits
	.hidden	lv_slider_is_dragged            @ -- Begin function lv_slider_is_dragged
	.globl	lv_slider_is_dragged
	.p2align	3
	.type	lv_slider_is_dragged,%function
	.code	16                              @ @lv_slider_is_dragged
	.thumb_func
lv_slider_is_dragged:
.Lfunc_begin5:
	.loc	10 140 0 is_stmt 1              @ lvgl/src/lv_widgets/lv_slider.c:140:0
	.fnstart
	.cfi_startproc
@ %bb.0:
	.save	{r7, lr}
	push	{r7, lr}
	.cfi_def_cfa_offset 8
	.cfi_offset lr, -4
	.cfi_offset r7, -8
	.pad	#8
	sub	sp, #8
	.cfi_def_cfa_offset 16
	str	r0, [sp, #4]
.Ltmp229:
	.loc	10 141 5 prologue_end           @ lvgl/src/lv_widgets/lv_slider.c:141:5
	b	.LBB5_1
.LBB5_1:
.Ltmp230:
	.loc	10 141 5 is_stmt 0              @ lvgl/src/lv_widgets/lv_slider.c:141:5
	ldr	r0, [sp, #4]
	bl	lv_debug_check_null
.Ltmp231:
	.loc	10 141 5                        @ lvgl/src/lv_widgets/lv_slider.c:141:5
	cbnz	r0, .LBB5_4
	b	.LBB5_2
.LBB5_2:
.Ltmp232:
	.loc	10 141 5                        @ lvgl/src/lv_widgets/lv_slider.c:141:5
	ldr	r2, [sp, #4]
	movw	r0, :lower16:.L.str.1
	movt	r0, :upper16:.L.str.1
	movs	r3, #0
	bl	lv_debug_log_error
	b	.LBB5_3
.LBB5_3:                                @ =>This Inner Loop Header: Depth=1
	b	.LBB5_3
.Ltmp233:
.LBB5_4:
	.loc	10 141 5                        @ lvgl/src/lv_widgets/lv_slider.c:141:5
	b	.LBB5_5
.Ltmp234:
.LBB5_5:
	.loc	10 143 49 is_stmt 1             @ lvgl/src/lv_widgets/lv_slider.c:143:49
	ldr	r0, [sp, #4]
	.loc	10 143 29 is_stmt 0             @ lvgl/src/lv_widgets/lv_slider.c:143:29
	bl	lv_obj_get_ext_attr
	.loc	10 143 23                       @ lvgl/src/lv_widgets/lv_slider.c:143:23
	str	r0, [sp]
	.loc	10 144 12 is_stmt 1             @ lvgl/src/lv_widgets/lv_slider.c:144:12
	ldr	r0, [sp]
	.loc	10 144 17 is_stmt 0             @ lvgl/src/lv_widgets/lv_slider.c:144:17
	ldrb.w	r0, [r0, #84]
	.loc	10 144 12                       @ lvgl/src/lv_widgets/lv_slider.c:144:12
	and	r0, r0, #1
	.loc	10 144 5                        @ lvgl/src/lv_widgets/lv_slider.c:144:5
	add	sp, #8
	pop	{r7, pc}
.Ltmp235:
.Lfunc_end5:
	.size	lv_slider_is_dragged, .Lfunc_end5-lv_slider_is_dragged
	.cfi_endproc
	.cantunwind
	.fnend
                                        @ -- End function
	.section	.text._lv_memcpy_small,"ax",%progbits
	.p2align	3                               @ -- Begin function _lv_memcpy_small
	.type	_lv_memcpy_small,%function
	.code	16                              @ @_lv_memcpy_small
	.thumb_func
_lv_memcpy_small:
.Lfunc_begin6:
	.file	16 "E:\\Smart-access-control\\Hardware\\CODE" "lvgl/src/lv_widgets/../lv_core/../lv_font/../lv_misc/lv_mem.h"
	.loc	16 214 0 is_stmt 1              @ lvgl/src/lv_widgets/../lv_core/../lv_font/../lv_misc/lv_mem.h:214:0
	.fnstart
	.cfi_startproc
@ %bb.0:
	.pad	#20
	sub	sp, #20
	.cfi_def_cfa_offset 20
	str	r0, [sp, #16]
	str	r1, [sp, #12]
	str	r2, [sp, #8]
.Ltmp236:
	.loc	16 215 31 prologue_end          @ lvgl/src/lv_widgets/../lv_core/../lv_font/../lv_misc/lv_mem.h:215:31
	ldr	r0, [sp, #16]
	.loc	16 215 15 is_stmt 0             @ lvgl/src/lv_widgets/../lv_core/../lv_font/../lv_misc/lv_mem.h:215:15
	str	r0, [sp, #4]
	.loc	16 216 43 is_stmt 1             @ lvgl/src/lv_widgets/../lv_core/../lv_font/../lv_misc/lv_mem.h:216:43
	ldr	r0, [sp, #12]
	.loc	16 216 21 is_stmt 0             @ lvgl/src/lv_widgets/../lv_core/../lv_font/../lv_misc/lv_mem.h:216:21
	str	r0, [sp]
	.loc	16 218 5 is_stmt 1              @ lvgl/src/lv_widgets/../lv_core/../lv_font/../lv_misc/lv_mem.h:218:5
	b	.LBB6_1
.LBB6_1:                                @ =>This Inner Loop Header: Depth=1
	.loc	16 218 11 is_stmt 0             @ lvgl/src/lv_widgets/../lv_core/../lv_font/../lv_misc/lv_mem.h:218:11
	ldr	r0, [sp, #8]
	.loc	16 218 5                        @ lvgl/src/lv_widgets/../lv_core/../lv_font/../lv_misc/lv_mem.h:218:5
	cbz	r0, .LBB6_3
	b	.LBB6_2
.LBB6_2:                                @   in Loop: Header=BB6_1 Depth=1
.Ltmp237:
	.loc	16 219 16 is_stmt 1             @ lvgl/src/lv_widgets/../lv_core/../lv_font/../lv_misc/lv_mem.h:219:16
	ldr	r0, [sp]
	.loc	16 219 15 is_stmt 0             @ lvgl/src/lv_widgets/../lv_core/../lv_font/../lv_misc/lv_mem.h:219:15
	ldrb	r0, [r0]
	.loc	16 219 10                       @ lvgl/src/lv_widgets/../lv_core/../lv_font/../lv_misc/lv_mem.h:219:10
	ldr	r1, [sp, #4]
	.loc	16 219 13                       @ lvgl/src/lv_widgets/../lv_core/../lv_font/../lv_misc/lv_mem.h:219:13
	strb	r0, [r1]
	.loc	16 220 11 is_stmt 1             @ lvgl/src/lv_widgets/../lv_core/../lv_font/../lv_misc/lv_mem.h:220:11
	ldr	r0, [sp, #4]
	adds	r0, #1
	str	r0, [sp, #4]
	.loc	16 221 11                       @ lvgl/src/lv_widgets/../lv_core/../lv_font/../lv_misc/lv_mem.h:221:11
	ldr	r0, [sp]
	adds	r0, #1
	str	r0, [sp]
	.loc	16 222 12                       @ lvgl/src/lv_widgets/../lv_core/../lv_font/../lv_misc/lv_mem.h:222:12
	ldr	r0, [sp, #8]
	subs	r0, #1
	str	r0, [sp, #8]
.Ltmp238:
	.loc	16 218 5                        @ lvgl/src/lv_widgets/../lv_core/../lv_font/../lv_misc/lv_mem.h:218:5
	b	.LBB6_1
.LBB6_3:
	.loc	16 225 12                       @ lvgl/src/lv_widgets/../lv_core/../lv_font/../lv_misc/lv_mem.h:225:12
	ldr	r0, [sp, #16]
	.loc	16 225 5 is_stmt 0              @ lvgl/src/lv_widgets/../lv_core/../lv_font/../lv_misc/lv_mem.h:225:5
	add	sp, #20
	bx	lr
.Ltmp239:
.Lfunc_end6:
	.size	_lv_memcpy_small, .Lfunc_end6-_lv_memcpy_small
	.cfi_endproc
	.cantunwind
	.fnend
                                        @ -- End function
	.section	.text.lv_slider_position_knob,"ax",%progbits
	.p2align	3                               @ -- Begin function lv_slider_position_knob
	.type	lv_slider_position_knob,%function
	.code	16                              @ @lv_slider_position_knob
	.thumb_func
lv_slider_position_knob:
.Lfunc_begin7:
	.loc	10 498 0 is_stmt 1              @ lvgl/src/lv_widgets/lv_slider.c:498:0
	.fnstart
	.cfi_startproc
@ %bb.0:
	.save	{r7, lr}
	push	{r7, lr}
	.cfi_def_cfa_offset 8
	.cfi_offset lr, -4
	.cfi_offset r7, -8
	.pad	#24
	sub	sp, #24
	.cfi_def_cfa_offset 32
                                        @ kill: def $r12 killed $r3
                                        @ kill: def $r12 killed $r2
	str	r0, [sp, #20]
	str	r1, [sp, #16]
	strh.w	r2, [sp, #14]
	strb.w	r3, [sp, #13]
.Ltmp240:
	.loc	10 500 8 prologue_end           @ lvgl/src/lv_widgets/lv_slider.c:500:8
	ldrb.w	r0, [sp, #13]
.Ltmp241:
	.loc	10 500 8 is_stmt 0              @ lvgl/src/lv_widgets/lv_slider.c:500:8
	lsls	r0, r0, #31
	cbz	r0, .LBB7_2
	b	.LBB7_1
.LBB7_1:
.Ltmp242:
	.loc	10 501 27 is_stmt 1             @ lvgl/src/lv_widgets/lv_slider.c:501:27
	ldrsh.w	r2, [sp, #14]
	.loc	10 501 9 is_stmt 0              @ lvgl/src/lv_widgets/lv_slider.c:501:9
	ldr	r1, [sp, #16]
	.loc	10 501 23                       @ lvgl/src/lv_widgets/lv_slider.c:501:23
	ldrh	r0, [r1]
	sub.w	r0, r0, r2, lsr #1
	strh	r0, [r1]
	.loc	10 502 25 is_stmt 1             @ lvgl/src/lv_widgets/lv_slider.c:502:25
	ldr	r1, [sp, #16]
	ldrh	r0, [r1]
	.loc	10 502 41 is_stmt 0             @ lvgl/src/lv_widgets/lv_slider.c:502:41
	ldrh.w	r2, [sp, #14]
	.loc	10 502 39                       @ lvgl/src/lv_widgets/lv_slider.c:502:39
	add	r0, r2
	.loc	10 502 51                       @ lvgl/src/lv_widgets/lv_slider.c:502:51
	subs	r0, #1
	.loc	10 502 23                       @ lvgl/src/lv_widgets/lv_slider.c:502:23
	strh	r0, [r1, #4]
	.loc	10 503 25 is_stmt 1             @ lvgl/src/lv_widgets/lv_slider.c:503:25
	ldr	r0, [sp, #20]
	.loc	10 503 40 is_stmt 0             @ lvgl/src/lv_widgets/lv_slider.c:503:40
	ldrh	r0, [r0, #18]
	.loc	10 503 9                        @ lvgl/src/lv_widgets/lv_slider.c:503:9
	ldr	r1, [sp, #16]
	.loc	10 503 23                       @ lvgl/src/lv_widgets/lv_slider.c:503:23
	strh	r0, [r1, #2]
	.loc	10 504 25 is_stmt 1             @ lvgl/src/lv_widgets/lv_slider.c:504:25
	ldr	r0, [sp, #20]
	.loc	10 504 40 is_stmt 0             @ lvgl/src/lv_widgets/lv_slider.c:504:40
	ldrh	r0, [r0, #22]
	.loc	10 504 9                        @ lvgl/src/lv_widgets/lv_slider.c:504:9
	ldr	r1, [sp, #16]
	.loc	10 504 23                       @ lvgl/src/lv_widgets/lv_slider.c:504:23
	strh	r0, [r1, #6]
	.loc	10 505 5 is_stmt 1              @ lvgl/src/lv_widgets/lv_slider.c:505:5
	b	.LBB7_3
.Ltmp243:
.LBB7_2:
	.loc	10 507 27                       @ lvgl/src/lv_widgets/lv_slider.c:507:27
	ldrsh.w	r2, [sp, #14]
	.loc	10 507 9 is_stmt 0              @ lvgl/src/lv_widgets/lv_slider.c:507:9
	ldr	r1, [sp, #16]
	.loc	10 507 23                       @ lvgl/src/lv_widgets/lv_slider.c:507:23
	ldrh	r0, [r1, #2]
	sub.w	r0, r0, r2, lsr #1
	strh	r0, [r1, #2]
	.loc	10 508 25 is_stmt 1             @ lvgl/src/lv_widgets/lv_slider.c:508:25
	ldr	r1, [sp, #16]
	ldrh	r0, [r1, #2]
	.loc	10 508 41 is_stmt 0             @ lvgl/src/lv_widgets/lv_slider.c:508:41
	ldrh.w	r2, [sp, #14]
	.loc	10 508 39                       @ lvgl/src/lv_widgets/lv_slider.c:508:39
	add	r0, r2
	.loc	10 508 51                       @ lvgl/src/lv_widgets/lv_slider.c:508:51
	subs	r0, #1
	.loc	10 508 23                       @ lvgl/src/lv_widgets/lv_slider.c:508:23
	strh	r0, [r1, #6]
	.loc	10 509 25 is_stmt 1             @ lvgl/src/lv_widgets/lv_slider.c:509:25
	ldr	r0, [sp, #20]
	.loc	10 509 40 is_stmt 0             @ lvgl/src/lv_widgets/lv_slider.c:509:40
	ldrh	r0, [r0, #16]
	.loc	10 509 9                        @ lvgl/src/lv_widgets/lv_slider.c:509:9
	ldr	r1, [sp, #16]
	.loc	10 509 23                       @ lvgl/src/lv_widgets/lv_slider.c:509:23
	strh	r0, [r1]
	.loc	10 510 25 is_stmt 1             @ lvgl/src/lv_widgets/lv_slider.c:510:25
	ldr	r0, [sp, #20]
	.loc	10 510 40 is_stmt 0             @ lvgl/src/lv_widgets/lv_slider.c:510:40
	ldrh	r0, [r0, #20]
	.loc	10 510 9                        @ lvgl/src/lv_widgets/lv_slider.c:510:9
	ldr	r1, [sp, #16]
	.loc	10 510 23                       @ lvgl/src/lv_widgets/lv_slider.c:510:23
	strh	r0, [r1, #4]
	b	.LBB7_3
.Ltmp244:
.LBB7_3:
	.loc	10 513 58 is_stmt 1             @ lvgl/src/lv_widgets/lv_slider.c:513:58
	ldr	r0, [sp, #20]
	movs	r1, #2
	.loc	10 513 32 is_stmt 0             @ lvgl/src/lv_widgets/lv_slider.c:513:32
	str	r1, [sp]                        @ 4-byte Spill
	bl	lv_obj_get_style_pad_left
	ldr	r1, [sp]                        @ 4-byte Reload
	.loc	10 513 20                       @ lvgl/src/lv_widgets/lv_slider.c:513:20
	strh.w	r0, [sp, #10]
	.loc	10 514 60 is_stmt 1             @ lvgl/src/lv_widgets/lv_slider.c:514:60
	ldr	r0, [sp, #20]
	.loc	10 514 33 is_stmt 0             @ lvgl/src/lv_widgets/lv_slider.c:514:33
	bl	lv_obj_get_style_pad_right
	ldr	r1, [sp]                        @ 4-byte Reload
	.loc	10 514 20                       @ lvgl/src/lv_widgets/lv_slider.c:514:20
	strh.w	r0, [sp, #8]
	.loc	10 515 56 is_stmt 1             @ lvgl/src/lv_widgets/lv_slider.c:515:56
	ldr	r0, [sp, #20]
	.loc	10 515 31 is_stmt 0             @ lvgl/src/lv_widgets/lv_slider.c:515:31
	bl	lv_obj_get_style_pad_top
	ldr	r1, [sp]                        @ 4-byte Reload
	.loc	10 515 20                       @ lvgl/src/lv_widgets/lv_slider.c:515:20
	strh.w	r0, [sp, #6]
	.loc	10 516 62 is_stmt 1             @ lvgl/src/lv_widgets/lv_slider.c:516:62
	ldr	r0, [sp, #20]
	.loc	10 516 34 is_stmt 0             @ lvgl/src/lv_widgets/lv_slider.c:516:34
	bl	lv_obj_get_style_pad_bottom
	.loc	10 516 20                       @ lvgl/src/lv_widgets/lv_slider.c:516:20
	strh.w	r0, [sp, #4]
	.loc	10 519 22 is_stmt 1             @ lvgl/src/lv_widgets/lv_slider.c:519:22
	ldrh.w	r2, [sp, #10]
	.loc	10 519 5 is_stmt 0              @ lvgl/src/lv_widgets/lv_slider.c:519:5
	ldr	r1, [sp, #16]
	.loc	10 519 19                       @ lvgl/src/lv_widgets/lv_slider.c:519:19
	ldrh	r0, [r1]
	subs	r0, r0, r2
	strh	r0, [r1]
	.loc	10 520 22 is_stmt 1             @ lvgl/src/lv_widgets/lv_slider.c:520:22
	ldrh.w	r2, [sp, #8]
	.loc	10 520 5 is_stmt 0              @ lvgl/src/lv_widgets/lv_slider.c:520:5
	ldr	r1, [sp, #16]
	.loc	10 520 19                       @ lvgl/src/lv_widgets/lv_slider.c:520:19
	ldrh	r0, [r1, #4]
	add	r0, r2
	strh	r0, [r1, #4]
	.loc	10 521 22 is_stmt 1             @ lvgl/src/lv_widgets/lv_slider.c:521:22
	ldrh.w	r2, [sp, #6]
	.loc	10 521 5 is_stmt 0              @ lvgl/src/lv_widgets/lv_slider.c:521:5
	ldr	r1, [sp, #16]
	.loc	10 521 19                       @ lvgl/src/lv_widgets/lv_slider.c:521:19
	ldrh	r0, [r1, #2]
	subs	r0, r0, r2
	strh	r0, [r1, #2]
	.loc	10 522 22 is_stmt 1             @ lvgl/src/lv_widgets/lv_slider.c:522:22
	ldrh.w	r2, [sp, #4]
	.loc	10 522 5 is_stmt 0              @ lvgl/src/lv_widgets/lv_slider.c:522:5
	ldr	r1, [sp, #16]
	.loc	10 522 19                       @ lvgl/src/lv_widgets/lv_slider.c:522:19
	ldrh	r0, [r1, #6]
	add	r0, r2
	strh	r0, [r1, #6]
	.loc	10 523 1 is_stmt 1              @ lvgl/src/lv_widgets/lv_slider.c:523:1
	add	sp, #24
	pop	{r7, pc}
.Ltmp245:
.Lfunc_end7:
	.size	lv_slider_position_knob, .Lfunc_end7-lv_slider_position_knob
	.cfi_endproc
	.cantunwind
	.fnend
                                        @ -- End function
	.section	.text.lv_slider_draw_knob,"ax",%progbits
	.p2align	3                               @ -- Begin function lv_slider_draw_knob
	.type	lv_slider_draw_knob,%function
	.code	16                              @ @lv_slider_draw_knob
	.thumb_func
lv_slider_draw_knob:
.Lfunc_begin8:
	.loc	10 526 0                        @ lvgl/src/lv_widgets/lv_slider.c:526:0
	.fnstart
	.cfi_startproc
@ %bb.0:
	.save	{r7, lr}
	push	{r7, lr}
	.cfi_def_cfa_offset 8
	.cfi_offset lr, -4
	.cfi_offset r7, -8
	.pad	#120
	sub	sp, #120
	.cfi_def_cfa_offset 128
	str	r0, [sp, #116]
	str	r1, [sp, #112]
	str	r2, [sp, #108]
	add	r0, sp, #4
.Ltmp246:
	.loc	10 528 5 prologue_end           @ lvgl/src/lv_widgets/lv_slider.c:528:5
	str	r0, [sp]                        @ 4-byte Spill
	bl	lv_draw_rect_dsc_init
	ldr	r2, [sp]                        @ 4-byte Reload
	.loc	10 529 31                       @ lvgl/src/lv_widgets/lv_slider.c:529:31
	ldr	r0, [sp, #116]
	movs	r1, #2
	.loc	10 529 5 is_stmt 0              @ lvgl/src/lv_widgets/lv_slider.c:529:5
	bl	lv_obj_init_draw_rect_dsc
	ldr	r2, [sp]                        @ 4-byte Reload
	.loc	10 531 18 is_stmt 1             @ lvgl/src/lv_widgets/lv_slider.c:531:18
	ldr	r0, [sp, #112]
	.loc	10 531 29 is_stmt 0             @ lvgl/src/lv_widgets/lv_slider.c:531:29
	ldr	r1, [sp, #108]
	.loc	10 531 5                        @ lvgl/src/lv_widgets/lv_slider.c:531:5
	bl	lv_draw_rect
	.loc	10 532 1 is_stmt 1              @ lvgl/src/lv_widgets/lv_slider.c:532:1
	add	sp, #120
	pop	{r7, pc}
.Ltmp247:
.Lfunc_end8:
	.size	lv_slider_draw_knob, .Lfunc_end8-lv_slider_draw_knob
	.cfi_endproc
	.cantunwind
	.fnend
                                        @ -- End function
	.section	.text.lv_slider_get_type,"ax",%progbits
	.p2align	3                               @ -- Begin function lv_slider_get_type
	.type	lv_slider_get_type,%function
	.code	16                              @ @lv_slider_get_type
	.thumb_func
lv_slider_get_type:
.Lfunc_begin9:
	.loc	13 201 0                        @ lvgl/src/lv_widgets/lv_slider.h:201:0
	.fnstart
	.cfi_startproc
@ %bb.0:
	.save	{r7, lr}
	push	{r7, lr}
	.cfi_def_cfa_offset 8
	.cfi_offset lr, -4
	.cfi_offset r7, -8
	.pad	#16
	sub	sp, #16
	.cfi_def_cfa_offset 24
	str	r0, [sp, #8]
.Ltmp248:
	.loc	13 202 42 prologue_end          @ lvgl/src/lv_widgets/lv_slider.h:202:42
	ldr	r0, [sp, #8]
	.loc	13 202 26 is_stmt 0             @ lvgl/src/lv_widgets/lv_slider.h:202:26
	bl	lv_bar_get_type
	.loc	13 202 19                       @ lvgl/src/lv_widgets/lv_slider.h:202:19
	strb.w	r0, [sp, #7]
.Ltmp249:
	.loc	13 203 8 is_stmt 1              @ lvgl/src/lv_widgets/lv_slider.h:203:8
	ldrb.w	r0, [sp, #7]
.Ltmp250:
	.loc	13 203 8 is_stmt 0              @ lvgl/src/lv_widgets/lv_slider.h:203:8
	cmp	r0, #1
	bne	.LBB9_2
	b	.LBB9_1
.LBB9_1:
	.loc	13 0 8                          @ lvgl/src/lv_widgets/lv_slider.h:0:8
	movs	r0, #1
.Ltmp251:
	.loc	13 204 9 is_stmt 1              @ lvgl/src/lv_widgets/lv_slider.h:204:9
	strb.w	r0, [sp, #15]
	b	.LBB9_5
.LBB9_2:
.Ltmp252:
	.loc	13 205 13                       @ lvgl/src/lv_widgets/lv_slider.h:205:13
	ldrb.w	r0, [sp, #7]
.Ltmp253:
	.loc	13 205 13 is_stmt 0             @ lvgl/src/lv_widgets/lv_slider.h:205:13
	cmp	r0, #2
	bne	.LBB9_4
	b	.LBB9_3
.LBB9_3:
	.loc	13 0 13                         @ lvgl/src/lv_widgets/lv_slider.h:0:13
	movs	r0, #2
.Ltmp254:
	.loc	13 206 9 is_stmt 1              @ lvgl/src/lv_widgets/lv_slider.h:206:9
	strb.w	r0, [sp, #15]
	b	.LBB9_5
.LBB9_4:
	.loc	13 0 9 is_stmt 0                @ lvgl/src/lv_widgets/lv_slider.h:0:9
	movs	r0, #0
	.loc	13 208 9 is_stmt 1              @ lvgl/src/lv_widgets/lv_slider.h:208:9
	strb.w	r0, [sp, #15]
	b	.LBB9_5
.Ltmp255:
.LBB9_5:
	.loc	13 209 1                        @ lvgl/src/lv_widgets/lv_slider.h:209:1
	ldrb.w	r0, [sp, #15]
	add	sp, #16
	pop	{r7, pc}
.Ltmp256:
.Lfunc_end9:
	.size	lv_slider_get_type, .Lfunc_end9-lv_slider_get_type
	.cfi_endproc
	.cantunwind
	.fnend
                                        @ -- End function
	.section	.text.lv_obj_get_style_pad_left,"ax",%progbits
	.p2align	3                               @ -- Begin function lv_obj_get_style_pad_left
	.type	lv_obj_get_style_pad_left,%function
	.code	16                              @ @lv_obj_get_style_pad_left
	.thumb_func
lv_obj_get_style_pad_left:
.Lfunc_begin10:
	.file	17 "E:\\Smart-access-control\\Hardware\\CODE" "lvgl/src/lv_widgets/../lv_core/lv_obj_style_dec.h"
	.loc	17 102 0                        @ lvgl/src/lv_widgets/../lv_core/lv_obj_style_dec.h:102:0
	.fnstart
	.cfi_startproc
@ %bb.0:
	.save	{r7, lr}
	push	{r7, lr}
	.cfi_def_cfa_offset 8
	.cfi_offset lr, -4
	.cfi_offset r7, -8
	.pad	#8
	sub	sp, #8
	.cfi_def_cfa_offset 16
                                        @ kill: def $r2 killed $r1
	str	r0, [sp, #4]
	strb.w	r1, [sp, #3]
.Ltmp257:
	.loc	17 102 1 prologue_end           @ lvgl/src/lv_widgets/../lv_core/lv_obj_style_dec.h:102:1
	ldr	r0, [sp, #4]
	ldrb.w	r1, [sp, #3]
	movs	r2, #18
	bl	_lv_obj_get_style_int
	add	sp, #8
	pop	{r7, pc}
.Ltmp258:
.Lfunc_end10:
	.size	lv_obj_get_style_pad_left, .Lfunc_end10-lv_obj_get_style_pad_left
	.cfi_endproc
	.cantunwind
	.fnend
                                        @ -- End function
	.section	.text.lv_obj_get_style_pad_right,"ax",%progbits
	.p2align	3                               @ -- Begin function lv_obj_get_style_pad_right
	.type	lv_obj_get_style_pad_right,%function
	.code	16                              @ @lv_obj_get_style_pad_right
	.thumb_func
lv_obj_get_style_pad_right:
.Lfunc_begin11:
	.loc	17 103 0                        @ lvgl/src/lv_widgets/../lv_core/lv_obj_style_dec.h:103:0
	.fnstart
	.cfi_startproc
@ %bb.0:
	.save	{r7, lr}
	push	{r7, lr}
	.cfi_def_cfa_offset 8
	.cfi_offset lr, -4
	.cfi_offset r7, -8
	.pad	#8
	sub	sp, #8
	.cfi_def_cfa_offset 16
                                        @ kill: def $r2 killed $r1
	str	r0, [sp, #4]
	strb.w	r1, [sp, #3]
.Ltmp259:
	.loc	17 103 1 prologue_end           @ lvgl/src/lv_widgets/../lv_core/lv_obj_style_dec.h:103:1
	ldr	r0, [sp, #4]
	ldrb.w	r1, [sp, #3]
	movs	r2, #19
	bl	_lv_obj_get_style_int
	add	sp, #8
	pop	{r7, pc}
.Ltmp260:
.Lfunc_end11:
	.size	lv_obj_get_style_pad_right, .Lfunc_end11-lv_obj_get_style_pad_right
	.cfi_endproc
	.cantunwind
	.fnend
                                        @ -- End function
	.section	.text.lv_obj_get_style_pad_top,"ax",%progbits
	.p2align	3                               @ -- Begin function lv_obj_get_style_pad_top
	.type	lv_obj_get_style_pad_top,%function
	.code	16                              @ @lv_obj_get_style_pad_top
	.thumb_func
lv_obj_get_style_pad_top:
.Lfunc_begin12:
	.loc	17 100 0                        @ lvgl/src/lv_widgets/../lv_core/lv_obj_style_dec.h:100:0
	.fnstart
	.cfi_startproc
@ %bb.0:
	.save	{r7, lr}
	push	{r7, lr}
	.cfi_def_cfa_offset 8
	.cfi_offset lr, -4
	.cfi_offset r7, -8
	.pad	#8
	sub	sp, #8
	.cfi_def_cfa_offset 16
                                        @ kill: def $r2 killed $r1
	str	r0, [sp, #4]
	strb.w	r1, [sp, #3]
.Ltmp261:
	.loc	17 100 1 prologue_end           @ lvgl/src/lv_widgets/../lv_core/lv_obj_style_dec.h:100:1
	ldr	r0, [sp, #4]
	ldrb.w	r1, [sp, #3]
	movs	r2, #16
	bl	_lv_obj_get_style_int
	add	sp, #8
	pop	{r7, pc}
.Ltmp262:
.Lfunc_end12:
	.size	lv_obj_get_style_pad_top, .Lfunc_end12-lv_obj_get_style_pad_top
	.cfi_endproc
	.cantunwind
	.fnend
                                        @ -- End function
	.section	.text.lv_obj_get_style_pad_bottom,"ax",%progbits
	.p2align	3                               @ -- Begin function lv_obj_get_style_pad_bottom
	.type	lv_obj_get_style_pad_bottom,%function
	.code	16                              @ @lv_obj_get_style_pad_bottom
	.thumb_func
lv_obj_get_style_pad_bottom:
.Lfunc_begin13:
	.loc	17 101 0                        @ lvgl/src/lv_widgets/../lv_core/lv_obj_style_dec.h:101:0
	.fnstart
	.cfi_startproc
@ %bb.0:
	.save	{r7, lr}
	push	{r7, lr}
	.cfi_def_cfa_offset 8
	.cfi_offset lr, -4
	.cfi_offset r7, -8
	.pad	#8
	sub	sp, #8
	.cfi_def_cfa_offset 16
                                        @ kill: def $r2 killed $r1
	str	r0, [sp, #4]
	strb.w	r1, [sp, #3]
.Ltmp263:
	.loc	17 101 1 prologue_end           @ lvgl/src/lv_widgets/../lv_core/lv_obj_style_dec.h:101:1
	ldr	r0, [sp, #4]
	ldrb.w	r1, [sp, #3]
	movs	r2, #17
	bl	_lv_obj_get_style_int
	add	sp, #8
	pop	{r7, pc}
.Ltmp264:
.Lfunc_end13:
	.size	lv_obj_get_style_pad_bottom, .Lfunc_end13-lv_obj_get_style_pad_bottom
	.cfi_endproc
	.cantunwind
	.fnend
                                        @ -- End function
	.section	.text.lv_slider_get_style,"ax",%progbits
	.p2align	3                               @ -- Begin function lv_slider_get_style
	.type	lv_slider_get_style,%function
	.code	16                              @ @lv_slider_get_style
	.thumb_func
lv_slider_get_style:
.Lfunc_begin14:
	.loc	10 474 0                        @ lvgl/src/lv_widgets/lv_slider.c:474:0
	.fnstart
	.cfi_startproc
@ %bb.0:
	.save	{r7, lr}
	push	{r7, lr}
	.cfi_def_cfa_offset 8
	.cfi_offset lr, -4
	.cfi_offset r7, -8
	.pad	#24
	sub	sp, #24
	.cfi_def_cfa_offset 32
                                        @ kill: def $r2 killed $r1
	str	r0, [sp, #20]
	strb.w	r1, [sp, #19]
.Ltmp265:
	.loc	10 475 5 prologue_end           @ lvgl/src/lv_widgets/lv_slider.c:475:5
	b	.LBB14_1
.LBB14_1:
.Ltmp266:
	.loc	10 475 5 is_stmt 0              @ lvgl/src/lv_widgets/lv_slider.c:475:5
	ldr	r0, [sp, #20]
	bl	lv_debug_check_null
.Ltmp267:
	.loc	10 475 5                        @ lvgl/src/lv_widgets/lv_slider.c:475:5
	cbnz	r0, .LBB14_4
	b	.LBB14_2
.LBB14_2:
.Ltmp268:
	.loc	10 475 5                        @ lvgl/src/lv_widgets/lv_slider.c:475:5
	ldr	r2, [sp, #20]
	movw	r0, :lower16:.L.str.1
	movt	r0, :upper16:.L.str.1
	movs	r3, #0
	bl	lv_debug_log_error
	b	.LBB14_3
.LBB14_3:                               @ =>This Inner Loop Header: Depth=1
	b	.LBB14_3
.Ltmp269:
.LBB14_4:
	.loc	10 475 5                        @ lvgl/src/lv_widgets/lv_slider.c:475:5
	b	.LBB14_5
.Ltmp270:
.LBB14_5:
	.loc	10 477 49 is_stmt 1             @ lvgl/src/lv_widgets/lv_slider.c:477:49
	ldr	r0, [sp, #20]
	.loc	10 477 29 is_stmt 0             @ lvgl/src/lv_widgets/lv_slider.c:477:29
	bl	lv_obj_get_ext_attr
	.loc	10 477 23                       @ lvgl/src/lv_widgets/lv_slider.c:477:23
	str	r0, [sp, #12]
	.loc	10 480 12 is_stmt 1             @ lvgl/src/lv_widgets/lv_slider.c:480:12
	ldrb.w	r0, [sp, #19]
	.loc	10 480 5 is_stmt 0              @ lvgl/src/lv_widgets/lv_slider.c:480:5
	mov	r1, r0
	str	r1, [sp, #4]                    @ 4-byte Spill
	cbz	r0, .LBB14_8
	b	.LBB14_6
.LBB14_6:
	ldr	r0, [sp, #4]                    @ 4-byte Reload
	cmp	r0, #1
	beq	.LBB14_9
	b	.LBB14_7
.LBB14_7:
	ldr	r0, [sp, #4]                    @ 4-byte Reload
	cmp	r0, #2
	beq	.LBB14_10
	b	.LBB14_11
.LBB14_8:
.Ltmp271:
	.loc	10 482 28 is_stmt 1             @ lvgl/src/lv_widgets/lv_slider.c:482:28
	ldr	r0, [sp, #20]
	.loc	10 482 36 is_stmt 0             @ lvgl/src/lv_widgets/lv_slider.c:482:36
	adds	r0, #40
	.loc	10 482 25                       @ lvgl/src/lv_widgets/lv_slider.c:482:25
	str	r0, [sp, #8]
	.loc	10 483 13 is_stmt 1             @ lvgl/src/lv_widgets/lv_slider.c:483:13
	b	.LBB14_12
.LBB14_9:
	.loc	10 485 28                       @ lvgl/src/lv_widgets/lv_slider.c:485:28
	ldr	r0, [sp, #12]
	.loc	10 485 37 is_stmt 0             @ lvgl/src/lv_widgets/lv_slider.c:485:37
	adds	r0, #48
	.loc	10 485 25                       @ lvgl/src/lv_widgets/lv_slider.c:485:25
	str	r0, [sp, #8]
	.loc	10 486 13 is_stmt 1             @ lvgl/src/lv_widgets/lv_slider.c:486:13
	b	.LBB14_12
.LBB14_10:
	.loc	10 488 28                       @ lvgl/src/lv_widgets/lv_slider.c:488:28
	ldr	r0, [sp, #12]
	.loc	10 488 33 is_stmt 0             @ lvgl/src/lv_widgets/lv_slider.c:488:33
	adds	r0, #56
	.loc	10 488 25                       @ lvgl/src/lv_widgets/lv_slider.c:488:25
	str	r0, [sp, #8]
	.loc	10 489 13 is_stmt 1             @ lvgl/src/lv_widgets/lv_slider.c:489:13
	b	.LBB14_12
.LBB14_11:
	.loc	10 0 13 is_stmt 0               @ lvgl/src/lv_widgets/lv_slider.c:0:13
	movs	r0, #0
	.loc	10 491 25 is_stmt 1             @ lvgl/src/lv_widgets/lv_slider.c:491:25
	str	r0, [sp, #8]
	.loc	10 492 5                        @ lvgl/src/lv_widgets/lv_slider.c:492:5
	b	.LBB14_12
.Ltmp272:
.LBB14_12:
	.loc	10 494 12                       @ lvgl/src/lv_widgets/lv_slider.c:494:12
	ldr	r0, [sp, #8]
	.loc	10 494 5 is_stmt 0              @ lvgl/src/lv_widgets/lv_slider.c:494:5
	add	sp, #24
	pop	{r7, pc}
.Ltmp273:
.Lfunc_end14:
	.size	lv_slider_get_style, .Lfunc_end14-lv_slider_get_style
	.cfi_endproc
	.cantunwind
	.fnend
                                        @ -- End function
	.section	.text.lv_area_get_width,"ax",%progbits
	.p2align	3                               @ -- Begin function lv_area_get_width
	.type	lv_area_get_width,%function
	.code	16                              @ @lv_area_get_width
	.thumb_func
lv_area_get_width:
.Lfunc_begin15:
	.loc	5 108 0 is_stmt 1               @ lvgl/src/lv_widgets/../lv_core/../lv_hal/../lv_misc/lv_area.h:108:0
	.fnstart
	.cfi_startproc
@ %bb.0:
	.pad	#4
	sub	sp, #4
	.cfi_def_cfa_offset 4
	str	r0, [sp]
.Ltmp274:
	.loc	5 109 25 prologue_end           @ lvgl/src/lv_widgets/../lv_core/../lv_hal/../lv_misc/lv_area.h:109:25
	ldr	r1, [sp]
	ldrh	r0, [r1, #4]
	.loc	5 109 38 is_stmt 0              @ lvgl/src/lv_widgets/../lv_core/../lv_hal/../lv_misc/lv_area.h:109:38
	ldrh	r1, [r1]
	.loc	5 109 36                        @ lvgl/src/lv_widgets/../lv_core/../lv_hal/../lv_misc/lv_area.h:109:36
	subs	r0, r0, r1
	.loc	5 109 49                        @ lvgl/src/lv_widgets/../lv_core/../lv_hal/../lv_misc/lv_area.h:109:49
	adds	r0, #1
	.loc	5 109 5                         @ lvgl/src/lv_widgets/../lv_core/../lv_hal/../lv_misc/lv_area.h:109:5
	sxth	r0, r0
	add	sp, #4
	bx	lr
.Ltmp275:
.Lfunc_end15:
	.size	lv_area_get_width, .Lfunc_end15-lv_area_get_width
	.cfi_endproc
	.cantunwind
	.fnend
                                        @ -- End function
	.section	.text.lv_area_get_height,"ax",%progbits
	.p2align	3                               @ -- Begin function lv_area_get_height
	.type	lv_area_get_height,%function
	.code	16                              @ @lv_area_get_height
	.thumb_func
lv_area_get_height:
.Lfunc_begin16:
	.loc	5 118 0 is_stmt 1               @ lvgl/src/lv_widgets/../lv_core/../lv_hal/../lv_misc/lv_area.h:118:0
	.fnstart
	.cfi_startproc
@ %bb.0:
	.pad	#4
	sub	sp, #4
	.cfi_def_cfa_offset 4
	str	r0, [sp]
.Ltmp276:
	.loc	5 119 25 prologue_end           @ lvgl/src/lv_widgets/../lv_core/../lv_hal/../lv_misc/lv_area.h:119:25
	ldr	r1, [sp]
	ldrh	r0, [r1, #6]
	.loc	5 119 38 is_stmt 0              @ lvgl/src/lv_widgets/../lv_core/../lv_hal/../lv_misc/lv_area.h:119:38
	ldrh	r1, [r1, #2]
	.loc	5 119 36                        @ lvgl/src/lv_widgets/../lv_core/../lv_hal/../lv_misc/lv_area.h:119:36
	subs	r0, r0, r1
	.loc	5 119 49                        @ lvgl/src/lv_widgets/../lv_core/../lv_hal/../lv_misc/lv_area.h:119:49
	adds	r0, #1
	.loc	5 119 5                         @ lvgl/src/lv_widgets/../lv_core/../lv_hal/../lv_misc/lv_area.h:119:5
	sxth	r0, r0
	add	sp, #4
	bx	lr
.Ltmp277:
.Lfunc_end16:
	.size	lv_area_get_height, .Lfunc_end16-lv_area_get_height
	.cfi_endproc
	.cantunwind
	.fnend
                                        @ -- End function
	.section	.text.lv_slider_set_value,"ax",%progbits
	.p2align	3                               @ -- Begin function lv_slider_set_value
	.type	lv_slider_set_value,%function
	.code	16                              @ @lv_slider_set_value
	.thumb_func
lv_slider_set_value:
.Lfunc_begin17:
	.loc	13 85 0 is_stmt 1               @ lvgl/src/lv_widgets/lv_slider.h:85:0
	.fnstart
	.cfi_startproc
@ %bb.0:
	.save	{r7, lr}
	push	{r7, lr}
	.cfi_def_cfa_offset 8
	.cfi_offset lr, -4
	.cfi_offset r7, -8
	.pad	#8
	sub	sp, #8
	.cfi_def_cfa_offset 16
                                        @ kill: def $r3 killed $r2
                                        @ kill: def $r3 killed $r1
	str	r0, [sp, #4]
	strh.w	r1, [sp, #2]
	strb.w	r2, [sp, #1]
.Ltmp278:
	.loc	13 86 22 prologue_end           @ lvgl/src/lv_widgets/lv_slider.h:86:22
	ldr	r0, [sp, #4]
	.loc	13 86 30 is_stmt 0              @ lvgl/src/lv_widgets/lv_slider.h:86:30
	ldrsh.w	r1, [sp, #2]
	.loc	13 86 37                        @ lvgl/src/lv_widgets/lv_slider.h:86:37
	ldrb.w	r2, [sp, #1]
	.loc	13 86 5                         @ lvgl/src/lv_widgets/lv_slider.h:86:5
	bl	lv_bar_set_value
	.loc	13 87 1 is_stmt 1               @ lvgl/src/lv_widgets/lv_slider.h:87:1
	add	sp, #8
	pop	{r7, pc}
.Ltmp279:
.Lfunc_end17:
	.size	lv_slider_set_value, .Lfunc_end17-lv_slider_set_value
	.cfi_endproc
	.cantunwind
	.fnend
                                        @ -- End function
	.section	.text.lv_slider_set_left_value,"ax",%progbits
	.p2align	3                               @ -- Begin function lv_slider_set_left_value
	.type	lv_slider_set_left_value,%function
	.code	16                              @ @lv_slider_set_left_value
	.thumb_func
lv_slider_set_left_value:
.Lfunc_begin18:
	.loc	13 96 0                         @ lvgl/src/lv_widgets/lv_slider.h:96:0
	.fnstart
	.cfi_startproc
@ %bb.0:
	.save	{r7, lr}
	push	{r7, lr}
	.cfi_def_cfa_offset 8
	.cfi_offset lr, -4
	.cfi_offset r7, -8
	.pad	#8
	sub	sp, #8
	.cfi_def_cfa_offset 16
                                        @ kill: def $r3 killed $r2
                                        @ kill: def $r3 killed $r1
	str	r0, [sp, #4]
	strh.w	r1, [sp, #2]
	strb.w	r2, [sp, #1]
.Ltmp280:
	.loc	13 97 28 prologue_end           @ lvgl/src/lv_widgets/lv_slider.h:97:28
	ldr	r0, [sp, #4]
	.loc	13 97 36 is_stmt 0              @ lvgl/src/lv_widgets/lv_slider.h:97:36
	ldrsh.w	r1, [sp, #2]
	.loc	13 97 48                        @ lvgl/src/lv_widgets/lv_slider.h:97:48
	ldrb.w	r2, [sp, #1]
	.loc	13 97 5                         @ lvgl/src/lv_widgets/lv_slider.h:97:5
	bl	lv_bar_set_start_value
	.loc	13 98 1 is_stmt 1               @ lvgl/src/lv_widgets/lv_slider.h:98:1
	add	sp, #8
	pop	{r7, pc}
.Ltmp281:
.Lfunc_end18:
	.size	lv_slider_set_left_value, .Lfunc_end18-lv_slider_set_left_value
	.cfi_endproc
	.cantunwind
	.fnend
                                        @ -- End function
	.section	.text.lv_slider_get_left_value,"ax",%progbits
	.p2align	3                               @ -- Begin function lv_slider_get_left_value
	.type	lv_slider_get_left_value,%function
	.code	16                              @ @lv_slider_get_left_value
	.thumb_func
lv_slider_get_left_value:
.Lfunc_begin19:
	.loc	13 154 0                        @ lvgl/src/lv_widgets/lv_slider.h:154:0
	.fnstart
	.cfi_startproc
@ %bb.0:
	.save	{r7, lr}
	push	{r7, lr}
	.cfi_def_cfa_offset 8
	.cfi_offset lr, -4
	.cfi_offset r7, -8
	.pad	#8
	sub	sp, #8
	.cfi_def_cfa_offset 16
	str	r0, [sp, #4]
.Ltmp282:
	.loc	13 155 35 prologue_end          @ lvgl/src/lv_widgets/lv_slider.h:155:35
	ldr	r0, [sp, #4]
	.loc	13 155 12 is_stmt 0             @ lvgl/src/lv_widgets/lv_slider.h:155:12
	bl	lv_bar_get_start_value
	.loc	13 155 5                        @ lvgl/src/lv_widgets/lv_slider.h:155:5
	add	sp, #8
	pop	{r7, pc}
.Ltmp283:
.Lfunc_end19:
	.size	lv_slider_get_left_value, .Lfunc_end19-lv_slider_get_left_value
	.cfi_endproc
	.cantunwind
	.fnend
                                        @ -- End function
	.type	.L.str,%object                  @ @.str
	.section	.rodata.str1.1,"aMS",%progbits,1
.L.str:
	.asciz	"Out of memory"
	.size	.L.str, 14

	.type	ancestor_design_f,%object       @ @ancestor_design_f
	.section	.bss.ancestor_design_f,"aw",%nobits
	.p2align	2
ancestor_design_f:
	.long	0
	.size	ancestor_design_f, 4

	.type	ancestor_signal,%object         @ @ancestor_signal
	.section	.bss.ancestor_signal,"aw",%nobits
	.p2align	2
ancestor_signal:
	.long	0
	.size	ancestor_signal, 4

	.type	.L.str.1,%object                @ @.str.1
	.section	.rodata.str1.1,"aMS",%progbits,1
.L.str.1:
	.asciz	"NULL pointer"
	.size	.L.str.1, 13

	.type	.L.str.2,%object                @ @.str.2
.L.str.2:
	.asciz	"lv_slider"
	.size	.L.str.2, 10

	.file	18 "D:\\Keil_v5\\ARM\\ARMCLANG\\Bin\\..\\include" "stddef.h"
	.file	19 "E:\\Smart-access-control\\Hardware\\CODE" "lvgl/src/lv_widgets/../lv_core/../lv_draw/lv_draw_rect.h"
	.file	20 "E:\\Smart-access-control\\Hardware\\CODE" "lvgl/src/lv_widgets/../lv_core/../lv_hal/../lv_misc/lv_color.h"
	.file	21 "E:\\Smart-access-control\\Hardware\\CODE" "lvgl/src/lv_widgets/../lv_core/../lv_draw/lv_draw_blend.h"
	.file	22 "E:\\Smart-access-control\\Hardware\\CODE" "lvgl/src/lv_widgets/../lv_font/lv_font.h"
	.section	".note.GNU-stack","",%progbits
	.eabi_attribute	30, 6	@ Tag_ABI_optimization_goals
	.ARM_attribute	16, 1	@ Tag_AV_eba