	.text
	.syntax unified
	.eabi_attribute	67, "2.09"	@ Tag_conformance
	.cpu	cortex-m7
	.eabi_attribute	6, 13	@ Tag_CPU_arch
	.eabi_attribute	7, 77	@ Tag_CPU_arch_profile
	.eabi_attribute	8, 0	@ Tag_ARM_ISA_use
	.eabi_attribute	9, 2	@ Tag_THUMB_ISA_use
	.fpu	fpv5-d16
	.eabi_attribute	36, 1	@ Tag_FP_HP_extension
	.eabi_attribute	34, 1	@ Tag_CPU_unaligned_access
	.eabi_attribute	17, 1	@ Tag_ABI_PCS_GOT_use
	.eabi_attribute	20, 2	@ Tag_ABI_FP_denormal
	.eabi_attribute	21, 0	@ Tag_ABI_FP_exceptions
	.eabi_attribute	23, 1	@ Tag_ABI_FP_number_model
	.eabi_attribute	24, 1	@ Tag_ABI_align_needed
	.eabi_attribute	25, 1	@ Tag_ABI_align_preserved
	.eabi_attribute	28, 1	@ Tag_ABI_VFP_args
	.eabi_attribute	38, 1	@ Tag_ABI_FP_16bit_format
	.eabi_attribute	18, 2	@ Tag_ABI_PCS_wchar_t
	.eabi_attribute	26, 1	@ Tag_ABI_enum_size
	.eabi_attribute	14, 0	@ Tag_ABI_PCS_R9_use
	.file	"lv_style.c"
	.file	1 "E:\\Smart-access-control\\Hardware\\CODE" "lvgl/src/lv_core/../lv_misc/lv_types.h"
	.file	2 "E:\\Smart-access-control\\Hardware\\CODE" "lvgl/src/lv_core/../lv_draw/../lv_misc/lv_color.h"
	.file	3 "D:\\Keil_v5\\ARM\\ARMCLANG\\Bin\\..\\include" "stdint.h"
	.file	4 "E:\\Smart-access-control\\Hardware\\CODE" "lvgl/src/lv_core/lv_style.h"
	.section	.text.lv_style_init,"ax",%progbits
	.hidden	lv_style_init                   @ -- Begin function lv_style_init
	.globl	lv_style_init
	.p2align	3
	.type	lv_style_init,%function
	.code	16                              @ @lv_style_init
	.thumb_func
lv_style_init:
.Lfunc_begin0:
	.file	5 "E:\\Smart-access-control\\Hardware\\CODE" "lvgl/src/lv_core/lv_style.c"
	.loc	5 53 0                          @ lvgl/src/lv_core/lv_style.c:53:0
	.fnstart
	.cfi_sections .debug_frame
	.cfi_startproc
@ %bb.0:
	.save	{r7, lr}
	push	{r7, lr}
	.cfi_def_cfa_offset 8
	.cfi_offset lr, -4
	.cfi_offset r7, -8
	.pad	#8
	sub	sp, #8
	.cfi_def_cfa_offset 16
	str	r0, [sp, #4]
.Ltmp0:
	.loc	5 54 19 prologue_end            @ lvgl/src/lv_core/lv_style.c:54:19
	ldr	r0, [sp, #4]
	movs	r1, #4
	.loc	5 54 5 is_stmt 0                @ lvgl/src/lv_core/lv_style.c:54:5
	bl	_lv_memset_00
	.loc	5 58 1 is_stmt 1                @ lvgl/src/lv_core/lv_style.c:58:1
	add	sp, #8
	pop	{r7, pc}
.Ltmp1:
.Lfunc_end0:
	.size	lv_style_init, .Lfunc_end0-lv_style_init
	.cfi_endproc
	.cantunwind
	.fnend
                                        @ -- End function
	.section	.text.lv_style_copy,"ax",%progbits
	.hidden	lv_style_copy                   @ -- Begin function lv_style_copy
	.globl	lv_style_copy
	.p2align	3
	.type	lv_style_copy,%function
	.code	16                              @ @lv_style_copy
	.thumb_func
lv_style_copy:
.Lfunc_begin1:
	.loc	5 66 0                          @ lvgl/src/lv_core/lv_style.c:66:0
	.fnstart
	.cfi_startproc
@ %bb.0:
	.save	{r7, lr}
	push	{r7, lr}
	.cfi_def_cfa_offset 8
	.cfi_offset lr, -4
	.cfi_offset r7, -8
	.pad	#16
	sub	sp, #16
	.cfi_def_cfa_offset 24
	str	r0, [sp, #12]
	str	r1, [sp, #8]
.Ltmp2:
	.loc	5 69 44 prologue_end            @ lvgl/src/lv_core/lv_style.c:69:44
	ldr	r0, [sp, #8]
	.loc	5 69 21 is_stmt 0               @ lvgl/src/lv_core/lv_style.c:69:21
	bl	_lv_style_get_mem_size
	.loc	5 69 14                         @ lvgl/src/lv_core/lv_style.c:69:14
	strh.w	r0, [sp, #6]
.Ltmp3:
	.loc	5 70 8 is_stmt 1                @ lvgl/src/lv_core/lv_style.c:70:8
	ldrh.w	r0, [sp, #6]
.Ltmp4:
	.loc	5 70 8 is_stmt 0                @ lvgl/src/lv_core/lv_style.c:70:8
	cbnz	r0, .LBB1_2
	b	.LBB1_1
.LBB1_1:
.Ltmp5:
	.loc	5 70 19                         @ lvgl/src/lv_core/lv_style.c:70:19
	b	.LBB1_4
.Ltmp6:
.LBB1_2:
	.loc	5 72 36 is_stmt 1               @ lvgl/src/lv_core/lv_style.c:72:36
	ldrh.w	r0, [sp, #6]
	.loc	5 72 23 is_stmt 0               @ lvgl/src/lv_core/lv_style.c:72:23
	bl	lv_mem_alloc
	.loc	5 72 5                          @ lvgl/src/lv_core/lv_style.c:72:5
	ldr	r1, [sp, #12]
	.loc	5 72 21                         @ lvgl/src/lv_core/lv_style.c:72:21
	str	r0, [r1]
.Ltmp7:
	.loc	5 73 8 is_stmt 1                @ lvgl/src/lv_core/lv_style.c:73:8
	ldr	r0, [sp, #12]
	.loc	5 73 20 is_stmt 0               @ lvgl/src/lv_core/lv_style.c:73:20
	ldr	r0, [r0]
.Ltmp8:
	.loc	5 73 8                          @ lvgl/src/lv_core/lv_style.c:73:8
	cbz	r0, .LBB1_4
	b	.LBB1_3
.LBB1_3:
.Ltmp9:
	.loc	5 74 20 is_stmt 1               @ lvgl/src/lv_core/lv_style.c:74:20
	ldr	r0, [sp, #12]
	.loc	5 74 32 is_stmt 0               @ lvgl/src/lv_core/lv_style.c:74:32
	ldr	r0, [r0]
	.loc	5 74 37                         @ lvgl/src/lv_core/lv_style.c:74:37
	ldr	r1, [sp, #8]
	.loc	5 74 48                         @ lvgl/src/lv_core/lv_style.c:74:48
	ldr	r1, [r1]
	.loc	5 74 53                         @ lvgl/src/lv_core/lv_style.c:74:53
	ldrh.w	r2, [sp, #6]
	.loc	5 74 9                          @ lvgl/src/lv_core/lv_style.c:74:9
	bl	_lv_memcpy
	b	.LBB1_4
.Ltmp10:
.LBB1_4:
	.loc	5 75 1 is_stmt 1                @ lvgl/src/lv_core/lv_style.c:75:1
	add	sp, #16
	pop	{r7, pc}
.Ltmp11:
.Lfunc_end1:
	.size	lv_style_copy, .Lfunc_end1-lv_style_copy
	.cfi_endproc
	.cantunwind
	.fnend
                                        @ -- End function
	.section	.text._lv_style_get_mem_size,"ax",%progbits
	.hidden	_lv_style_get_mem_size          @ -- Begin function _lv_style_get_mem_size
	.globl	_lv_style_get_mem_size
	.p2align	3
	.type	_lv_style_get_mem_size,%function
	.code	16                              @ @_lv_style_get_mem_size
	.thumb_func
_lv_style_get_mem_size:
.Lfunc_begin2:
	.loc	5 322 0                         @ lvgl/src/lv_core/lv_style.c:322:0
	.fnstart
	.cfi_startproc
@ %bb.0:
	.save	{r7, lr}
	push	{r7, lr}
	.cfi_def_cfa_offset 8
	.cfi_offset lr, -4
	.cfi_offset r7, -8
	.pad	#16
	sub	sp, #16
	.cfi_def_cfa_offset 24
	str	r0, [sp, #8]
.Ltmp12:
	.loc	5 325 8 prologue_end            @ lvgl/src/lv_core/lv_style.c:325:8
	ldr	r0, [sp, #8]
	.loc	5 325 22 is_stmt 0              @ lvgl/src/lv_core/lv_style.c:325:22
	cbz	r0, .LBB2_2
	b	.LBB2_1
.LBB2_1:
	.loc	5 325 25                        @ lvgl/src/lv_core/lv_style.c:325:25
	ldr	r0, [sp, #8]
	.loc	5 325 32                        @ lvgl/src/lv_core/lv_style.c:325:32
	ldr	r0, [r0]
.Ltmp13:
	.loc	5 325 8                         @ lvgl/src/lv_core/lv_style.c:325:8
	cbnz	r0, .LBB2_3
	b	.LBB2_2
.LBB2_2:
	.loc	5 0 8                           @ lvgl/src/lv_core/lv_style.c:0:8
	movs	r0, #0
.Ltmp14:
	.loc	5 325 45                        @ lvgl/src/lv_core/lv_style.c:325:45
	strh.w	r0, [sp, #14]
	b	.LBB2_7
.Ltmp15:
.LBB2_3:
	.loc	5 0 45                          @ lvgl/src/lv_core/lv_style.c:0:45
	movs	r0, #0
	.loc	5 327 12 is_stmt 1              @ lvgl/src/lv_core/lv_style.c:327:12
	str	r0, [sp, #4]
	.loc	5 329 5                         @ lvgl/src/lv_core/lv_style.c:329:5
	b	.LBB2_4
.LBB2_4:                                @ =>This Inner Loop Header: Depth=1
	.loc	5 329 40 is_stmt 0              @ lvgl/src/lv_core/lv_style.c:329:40
	ldr	r0, [sp, #8]
	.loc	5 329 47                        @ lvgl/src/lv_core/lv_style.c:329:47
	ldr	r1, [sp, #4]
	.loc	5 329 22                        @ lvgl/src/lv_core/lv_style.c:329:22
	bl	get_style_prop_id
	.loc	5 329 20                        @ lvgl/src/lv_core/lv_style.c:329:20
	strb.w	r0, [sp, #3]
	.loc	5 329 5                         @ lvgl/src/lv_core/lv_style.c:329:5
	cmp	r0, #255
	beq	.LBB2_6
	b	.LBB2_5
.LBB2_5:                                @   in Loop: Header=BB2_4 Depth=1
.Ltmp16:
	.loc	5 330 33 is_stmt 1              @ lvgl/src/lv_core/lv_style.c:330:33
	ldrb.w	r0, [sp, #3]
	.loc	5 330 42 is_stmt 0              @ lvgl/src/lv_core/lv_style.c:330:42
	ldr	r1, [sp, #4]
	.loc	5 330 13                        @ lvgl/src/lv_core/lv_style.c:330:13
	bl	get_next_prop_index
	.loc	5 330 11                        @ lvgl/src/lv_core/lv_style.c:330:11
	str	r0, [sp, #4]
.Ltmp17:
	.loc	5 329 5 is_stmt 1               @ lvgl/src/lv_core/lv_style.c:329:5
	b	.LBB2_4
.LBB2_6:
	.loc	5 333 12                        @ lvgl/src/lv_core/lv_style.c:333:12
	ldr	r0, [sp, #4]
	.loc	5 333 14 is_stmt 0              @ lvgl/src/lv_core/lv_style.c:333:14
	adds	r0, #2
	.loc	5 333 5                         @ lvgl/src/lv_core/lv_style.c:333:5
	strh.w	r0, [sp, #14]
	b	.LBB2_7
.LBB2_7:
	.loc	5 334 1 is_stmt 1               @ lvgl/src/lv_core/lv_style.c:334:1
	ldrh.w	r0, [sp, #14]
	add	sp, #16
	pop	{r7, pc}
.Ltmp18:
.Lfunc_end2:
	.size	_lv_style_get_mem_size, .Lfunc_end2-_lv_style_get_mem_size
	.cfi_endproc
	.cantunwind
	.fnend
                                        @ -- End function
	.section	.text.lv_style_remove_prop,"ax",%progbits
	.hidden	lv_style_remove_prop            @ -- Begin function lv_style_remove_prop
	.globl	lv_style_remove_prop
	.p2align	3
	.type	lv_style_remove_prop,%function
	.code	16                              @ @lv_style_remove_prop
	.thumb_func
lv_style_remove_prop:
.Lfunc_begin3:
	.loc	5 85 0                          @ lvgl/src/lv_core/lv_style.c:85:0
	.fnstart
	.cfi_startproc
@ %bb.0:
	.save	{r7, lr}
	push	{r7, lr}
	.cfi_def_cfa_offset 8
	.cfi_offset lr, -4
	.cfi_offset r7, -8
	.pad	#32
	sub	sp, #32
	.cfi_def_cfa_offset 40
                                        @ kill: def $r2 killed $r1
	str	r0, [sp, #24]
	strh.w	r1, [sp, #22]
.Ltmp19:
	.loc	5 86 37 prologue_end            @ lvgl/src/lv_core/lv_style.c:86:37
	ldr	r0, [sp, #24]
	.loc	5 86 44 is_stmt 0               @ lvgl/src/lv_core/lv_style.c:86:44
	ldrh.w	r1, [sp, #22]
	.loc	5 86 18                         @ lvgl/src/lv_core/lv_style.c:86:18
	bl	get_property_index
	.loc	5 86 13                         @ lvgl/src/lv_core/lv_style.c:86:13
	str	r0, [sp, #16]
.Ltmp20:
	.loc	5 88 8 is_stmt 1                @ lvgl/src/lv_core/lv_style.c:88:8
	ldr	r0, [sp, #16]
.Ltmp21:
	.loc	5 88 8 is_stmt 0                @ lvgl/src/lv_core/lv_style.c:88:8
	cmp	r0, #0
	bmi	.LBB3_8
	b	.LBB3_1
.LBB3_1:
.Ltmp22:
	.loc	5 92 42 is_stmt 1               @ lvgl/src/lv_core/lv_style.c:92:42
	ldr	r0, [sp, #24]
	.loc	5 92 49 is_stmt 0               @ lvgl/src/lv_core/lv_style.c:92:49
	ldr	r1, [sp, #16]
	.loc	5 92 22                         @ lvgl/src/lv_core/lv_style.c:92:22
	bl	get_style_prop_attr
	.loc	5 92 20                         @ lvgl/src/lv_core/lv_style.c:92:20
	strb.w	r0, [sp, #15]
	.loc	5 93 22 is_stmt 1               @ lvgl/src/lv_core/lv_style.c:93:22
	ldrb.w	r0, [sp, #23]
	.loc	5 93 19 is_stmt 0               @ lvgl/src/lv_core/lv_style.c:93:19
	strb.w	r0, [sp, #14]
.Ltmp23:
	.loc	5 95 12 is_stmt 1               @ lvgl/src/lv_core/lv_style.c:95:12
	ldrb.w	r0, [sp, #15]
	and	r0, r0, #127
	.loc	5 95 51 is_stmt 0               @ lvgl/src/lv_core/lv_style.c:95:51
	ldrb.w	r1, [sp, #14]
	and	r1, r1, #127
.Ltmp24:
	.loc	5 95 12                         @ lvgl/src/lv_core/lv_style.c:95:12
	cmp	r0, r1
	bne	.LBB3_7
	b	.LBB3_2
.LBB3_2:
.Ltmp25:
	.loc	5 96 56 is_stmt 1               @ lvgl/src/lv_core/lv_style.c:96:56
	ldr	r0, [sp, #24]
	.loc	5 96 33 is_stmt 0               @ lvgl/src/lv_core/lv_style.c:96:33
	bl	_lv_style_get_mem_size
	.loc	5 96 22                         @ lvgl/src/lv_core/lv_style.c:96:22
	str	r0, [sp, #8]
	.loc	5 97 47 is_stmt 1               @ lvgl/src/lv_core/lv_style.c:97:47
	ldrb.w	r0, [sp, #22]
	.loc	5 97 33 is_stmt 0               @ lvgl/src/lv_core/lv_style.c:97:33
	bl	get_prop_size
	.loc	5 97 21                         @ lvgl/src/lv_core/lv_style.c:97:21
	strb.w	r0, [sp, #7]
.Ltmp26:
	.loc	5 101 21 is_stmt 1              @ lvgl/src/lv_core/lv_style.c:101:21
	ldr	r0, [sp, #16]
	.loc	5 101 19 is_stmt 0              @ lvgl/src/lv_core/lv_style.c:101:19
	str	r0, [sp]
	.loc	5 101 17                        @ lvgl/src/lv_core/lv_style.c:101:17
	b	.LBB3_3
.LBB3_3:                                @ =>This Inner Loop Header: Depth=1
.Ltmp27:
	.loc	5 101 25                        @ lvgl/src/lv_core/lv_style.c:101:25
	ldr	r0, [sp]
	.loc	5 101 29                        @ lvgl/src/lv_core/lv_style.c:101:29
	ldr	r1, [sp, #8]
	.loc	5 101 40                        @ lvgl/src/lv_core/lv_style.c:101:40
	ldrb.w	r2, [sp, #7]
	.loc	5 101 38                        @ lvgl/src/lv_core/lv_style.c:101:38
	subs	r1, r1, r2
.Ltmp28:
	.loc	5 101 13                        @ lvgl/src/lv_core/lv_style.c:101:13
	cmp	r0, r1
	bhs	.LBB3_6
	b	.LBB3_4
.LBB3_4:                                @   in Loop: Header=BB3_3 Depth=1
.Ltmp29:
	.loc	5 102 33 is_stmt 1              @ lvgl/src/lv_core/lv_style.c:102:33
	ldr	r0, [sp, #24]
	.loc	5 102 40 is_stmt 0              @ lvgl/src/lv_core/lv_style.c:102:40
	ldr	r1, [r0]
	.loc	5 102 44                        @ lvgl/src/lv_core/lv_style.c:102:44
	ldr	r2, [sp]
	.loc	5 102 48                        @ lvgl/src/lv_core/lv_style.c:102:48
	ldrb.w	r0, [sp, #7]
	.loc	5 102 46                        @ lvgl/src/lv_core/lv_style.c:102:46
	add	r0, r2
	.loc	5 102 33                        @ lvgl/src/lv_core/lv_style.c:102:33
	ldrb	r0, [r1, r0]
	.loc	5 102 31                        @ lvgl/src/lv_core/lv_style.c:102:31
	strb	r0, [r1, r2]
	.loc	5 103 13 is_stmt 1              @ lvgl/src/lv_core/lv_style.c:103:13
	b	.LBB3_5
.Ltmp30:
.LBB3_5:                                @   in Loop: Header=BB3_3 Depth=1
	.loc	5 101 52                        @ lvgl/src/lv_core/lv_style.c:101:52
	ldr	r0, [sp]
	adds	r0, #1
	str	r0, [sp]
	.loc	5 101 13 is_stmt 0              @ lvgl/src/lv_core/lv_style.c:101:13
	b	.LBB3_3
.Ltmp31:
.LBB3_6:
	.loc	5 105 26 is_stmt 1              @ lvgl/src/lv_core/lv_style.c:105:26
	ldr	r0, [sp, #24]
	.loc	5 105 33 is_stmt 0              @ lvgl/src/lv_core/lv_style.c:105:33
	ldr	r1, [sp, #8]
	.loc	5 105 44                        @ lvgl/src/lv_core/lv_style.c:105:44
	ldrb.w	r2, [sp, #7]
	.loc	5 105 42                        @ lvgl/src/lv_core/lv_style.c:105:42
	subs	r1, r1, r2
	.loc	5 105 13                        @ lvgl/src/lv_core/lv_style.c:105:13
	bl	style_resize
	movs	r0, #1
	.loc	5 107 13 is_stmt 1              @ lvgl/src/lv_core/lv_style.c:107:13
	strb.w	r0, [sp, #31]
	b	.LBB3_9
.Ltmp32:
.LBB3_7:
	.loc	5 109 5                         @ lvgl/src/lv_core/lv_style.c:109:5
	b	.LBB3_8
.Ltmp33:
.LBB3_8:
	.loc	5 0 5 is_stmt 0                 @ lvgl/src/lv_core/lv_style.c:0:5
	movs	r0, #0
	.loc	5 111 5 is_stmt 1               @ lvgl/src/lv_core/lv_style.c:111:5
	strb.w	r0, [sp, #31]
	b	.LBB3_9
.LBB3_9:
	.loc	5 112 1                         @ lvgl/src/lv_core/lv_style.c:112:1
	ldrb.w	r0, [sp, #31]
	add	sp, #32
	pop	{r7, pc}
.Ltmp34:
.Lfunc_end3:
	.size	lv_style_remove_prop, .Lfunc_end3-lv_style_remove_prop
	.cfi_endproc
	.cantunwind
	.fnend
                                        @ -- End function
	.section	.text.get_property_index,"ax",%progbits
	.p2align	3                               @ -- Begin function get_property_index
	.type	get_property_index,%function
	.code	16                              @ @get_property_index
	.thumb_func
get_property_index:
.Lfunc_begin4:
	.loc	5 992 0                         @ lvgl/src/lv_core/lv_style.c:992:0
	.fnstart
	.cfi_startproc
@ %bb.0:
	.save	{r7, lr}
	push	{r7, lr}
	.cfi_def_cfa_offset 8
	.cfi_offset lr, -4
	.cfi_offset r7, -8
	.pad	#24
	sub	sp, #24
	.cfi_def_cfa_offset 32
                                        @ kill: def $r2 killed $r1
	str	r0, [sp, #16]
	strh.w	r1, [sp, #14]
.Ltmp35:
	.loc	5 995 8 prologue_end            @ lvgl/src/lv_core/lv_style.c:995:8
	ldr	r0, [sp, #16]
.Ltmp36:
	.loc	5 995 8 is_stmt 0               @ lvgl/src/lv_core/lv_style.c:995:8
	cbnz	r0, .LBB4_2
	b	.LBB4_1
.LBB4_1:
	.loc	5 0 8                           @ lvgl/src/lv_core/lv_style.c:0:8
	mov.w	r0, #-1
.Ltmp37:
	.loc	5 995 23                        @ lvgl/src/lv_core/lv_style.c:995:23
	str	r0, [sp, #20]
	b	.LBB4_17
.Ltmp38:
.LBB4_2:
	.loc	5 996 8 is_stmt 1               @ lvgl/src/lv_core/lv_style.c:996:8
	ldr	r0, [sp, #16]
	.loc	5 996 15 is_stmt 0              @ lvgl/src/lv_core/lv_style.c:996:15
	ldr	r0, [r0]
.Ltmp39:
	.loc	5 996 8                         @ lvgl/src/lv_core/lv_style.c:996:8
	cbnz	r0, .LBB4_4
	b	.LBB4_3
.LBB4_3:
	.loc	5 0 8                           @ lvgl/src/lv_core/lv_style.c:0:8
	mov.w	r0, #-1
.Ltmp40:
	.loc	5 996 28                        @ lvgl/src/lv_core/lv_style.c:996:28
	str	r0, [sp, #20]
	b	.LBB4_17
.Ltmp41:
.LBB4_4:
	.loc	5 998 26 is_stmt 1              @ lvgl/src/lv_core/lv_style.c:998:26
	ldrh.w	r0, [sp, #14]
	.loc	5 998 13 is_stmt 0              @ lvgl/src/lv_core/lv_style.c:998:13
	strb.w	r0, [sp, #13]
	.loc	5 1000 13 is_stmt 1             @ lvgl/src/lv_core/lv_style.c:1000:13
	ldrb.w	r0, [sp, #15]
	.loc	5 1000 10 is_stmt 0             @ lvgl/src/lv_core/lv_style.c:1000:10
	strb.w	r0, [sp, #12]
	movw	r0, #65535
	.loc	5 1002 13 is_stmt 1             @ lvgl/src/lv_core/lv_style.c:1002:13
	strh.w	r0, [sp, #10]
	.loc	5 1003 13                       @ lvgl/src/lv_core/lv_style.c:1003:13
	strh.w	r0, [sp, #8]
	movs	r0, #0
	.loc	5 1005 12                       @ lvgl/src/lv_core/lv_style.c:1005:12
	str	r0, [sp, #4]
	.loc	5 1008 5                        @ lvgl/src/lv_core/lv_style.c:1008:5
	b	.LBB4_5
.LBB4_5:                                @ =>This Inner Loop Header: Depth=1
	.loc	5 1008 40 is_stmt 0             @ lvgl/src/lv_core/lv_style.c:1008:40
	ldr	r0, [sp, #16]
	.loc	5 1008 47                       @ lvgl/src/lv_core/lv_style.c:1008:47
	ldr	r1, [sp, #4]
	.loc	5 1008 22                       @ lvgl/src/lv_core/lv_style.c:1008:22
	bl	get_style_prop_id
	.loc	5 1008 20                       @ lvgl/src/lv_core/lv_style.c:1008:20
	strb.w	r0, [sp, #3]
	.loc	5 1008 5                        @ lvgl/src/lv_core/lv_style.c:1008:5
	cmp	r0, #255
	beq	.LBB4_16
	b	.LBB4_6
.LBB4_6:                                @   in Loop: Header=BB4_5 Depth=1
.Ltmp42:
	.loc	5 1009 12 is_stmt 1             @ lvgl/src/lv_core/lv_style.c:1009:12
	ldrb.w	r0, [sp, #3]
	.loc	5 1009 23 is_stmt 0             @ lvgl/src/lv_core/lv_style.c:1009:23
	ldrb.w	r1, [sp, #13]
.Ltmp43:
	.loc	5 1009 12                       @ lvgl/src/lv_core/lv_style.c:1009:12
	cmp	r0, r1
	bne	.LBB4_15
	b	.LBB4_7
.LBB4_7:                                @   in Loop: Header=BB4_5 Depth=1
.Ltmp44:
	.loc	5 1011 42 is_stmt 1             @ lvgl/src/lv_core/lv_style.c:1011:42
	ldr	r0, [sp, #16]
	.loc	5 1011 49 is_stmt 0             @ lvgl/src/lv_core/lv_style.c:1011:49
	ldr	r1, [sp, #4]
	.loc	5 1011 22                       @ lvgl/src/lv_core/lv_style.c:1011:22
	bl	get_style_prop_attr
	.loc	5 1011 20                       @ lvgl/src/lv_core/lv_style.c:1011:20
	strb.w	r0, [sp, #2]
.Ltmp45:
	.loc	5 1014 16 is_stmt 1             @ lvgl/src/lv_core/lv_style.c:1014:16
	ldrb.w	r0, [sp, #2]
	and	r0, r0, #127
	.loc	5 1014 51 is_stmt 0             @ lvgl/src/lv_core/lv_style.c:1014:51
	ldrb.w	r1, [sp, #12]
	and	r1, r1, #127
.Ltmp46:
	.loc	5 1014 16                       @ lvgl/src/lv_core/lv_style.c:1014:16
	cmp	r0, r1
	bne	.LBB4_9
	b	.LBB4_8
.LBB4_8:
.Ltmp47:
	.loc	5 1015 24 is_stmt 1             @ lvgl/src/lv_core/lv_style.c:1015:24
	ldr	r0, [sp, #4]
	.loc	5 1015 17 is_stmt 0             @ lvgl/src/lv_core/lv_style.c:1015:17
	str	r0, [sp, #20]
	b	.LBB4_17
.Ltmp48:
.LBB4_9:                                @   in Loop: Header=BB4_5 Depth=1
	.loc	5 1019 22 is_stmt 1             @ lvgl/src/lv_core/lv_style.c:1019:22
	ldrb.w	r0, [sp, #2]
	.loc	5 1019 58 is_stmt 0             @ lvgl/src/lv_core/lv_style.c:1019:58
	ldrb.w	r1, [sp, #12]
	.loc	5 1019 22                       @ lvgl/src/lv_core/lv_style.c:1019:22
	bics	r0, r1
.Ltmp49:
	.loc	5 1019 21                       @ lvgl/src/lv_core/lv_style.c:1019:21
	lsls	r0, r0, #25
	cbnz	r0, .LBB4_13
	b	.LBB4_10
.LBB4_10:                               @   in Loop: Header=BB4_5 Depth=1
.Ltmp50:
	.loc	5 1022 20 is_stmt 1             @ lvgl/src/lv_core/lv_style.c:1022:20
	ldrb.w	r0, [sp, #2]
	and	r0, r0, #127
	.loc	5 1022 54 is_stmt 0             @ lvgl/src/lv_core/lv_style.c:1022:54
	ldrsh.w	r1, [sp, #10]
.Ltmp51:
	.loc	5 1022 20                       @ lvgl/src/lv_core/lv_style.c:1022:20
	cmp	r0, r1
	ble	.LBB4_12
	b	.LBB4_11
.LBB4_11:                               @   in Loop: Header=BB4_5 Depth=1
.Ltmp52:
	.loc	5 1023 30 is_stmt 1             @ lvgl/src/lv_core/lv_style.c:1023:30
	ldrb.w	r0, [sp, #2]
	and	r0, r0, #127
	.loc	5 1023 28 is_stmt 0             @ lvgl/src/lv_core/lv_style.c:1023:28
	strh.w	r0, [sp, #10]
	.loc	5 1024 32 is_stmt 1             @ lvgl/src/lv_core/lv_style.c:1024:32
	ldr	r0, [sp, #4]
	.loc	5 1024 30 is_stmt 0             @ lvgl/src/lv_core/lv_style.c:1024:30
	strh.w	r0, [sp, #8]
	.loc	5 1025 17 is_stmt 1             @ lvgl/src/lv_core/lv_style.c:1025:17
	b	.LBB4_12
.Ltmp53:
.LBB4_12:                               @   in Loop: Header=BB4_5 Depth=1
	.loc	5 1026 13                       @ lvgl/src/lv_core/lv_style.c:1026:13
	b	.LBB4_13
.Ltmp54:
.LBB4_13:                               @   in Loop: Header=BB4_5 Depth=1
	.loc	5 0 13 is_stmt 0                @ lvgl/src/lv_core/lv_style.c:0:13
	b	.LBB4_14
.LBB4_14:                               @   in Loop: Header=BB4_5 Depth=1
	.loc	5 1027 9 is_stmt 1              @ lvgl/src/lv_core/lv_style.c:1027:9
	b	.LBB4_15
.Ltmp55:
.LBB4_15:                               @   in Loop: Header=BB4_5 Depth=1
	.loc	5 1029 33                       @ lvgl/src/lv_core/lv_style.c:1029:33
	ldrb.w	r0, [sp, #3]
	.loc	5 1029 42 is_stmt 0             @ lvgl/src/lv_core/lv_style.c:1029:42
	ldr	r1, [sp, #4]
	.loc	5 1029 13                       @ lvgl/src/lv_core/lv_style.c:1029:13
	bl	get_next_prop_index
	.loc	5 1029 11                       @ lvgl/src/lv_core/lv_style.c:1029:11
	str	r0, [sp, #4]
.Ltmp56:
	.loc	5 1008 5 is_stmt 1              @ lvgl/src/lv_core/lv_style.c:1008:5
	b	.LBB4_5
.LBB4_16:
	.loc	5 1032 12                       @ lvgl/src/lv_core/lv_style.c:1032:12
	ldrsh.w	r0, [sp, #8]
	.loc	5 1032 5 is_stmt 0              @ lvgl/src/lv_core/lv_style.c:1032:5
	str	r0, [sp, #20]
	b	.LBB4_17
.LBB4_17:
	.loc	5 1033 1 is_stmt 1              @ lvgl/src/lv_core/lv_style.c:1033:1
	ldr	r0, [sp, #20]
	add	sp, #24
	pop	{r7, pc}
.Ltmp57:
.Lfunc_end4:
	.size	get_property_index, .Lfunc_end4-get_property_index
	.cfi_endproc
	.cantunwind
	.fnend
                                        @ -- End function
	.section	.text.get_style_prop_attr,"ax",%progbits
	.p2align	3                               @ -- Begin function get_style_prop_attr
	.type	get_style_prop_attr,%function
	.code	16                              @ @get_style_prop_attr
	.thumb_func
get_style_prop_attr:
.Lfunc_begin5:
	.loc	5 1105 0                        @ lvgl/src/lv_core/lv_style.c:1105:0
	.fnstart
	.cfi_startproc
@ %bb.0:
	.save	{r7, lr}
	push	{r7, lr}
	.cfi_def_cfa_offset 8
	.cfi_offset lr, -4
	.cfi_offset r7, -8
	.pad	#8
	sub	sp, #8
	.cfi_def_cfa_offset 16
	str	r0, [sp, #4]
	str	r1, [sp]
.Ltmp58:
	.loc	5 1106 29 prologue_end          @ lvgl/src/lv_core/lv_style.c:1106:29
	ldr	r0, [sp, #4]
	.loc	5 1106 36 is_stmt 0             @ lvgl/src/lv_core/lv_style.c:1106:36
	ldr	r1, [sp]
	.loc	5 1106 14                       @ lvgl/src/lv_core/lv_style.c:1106:14
	bl	get_style_prop
	.loc	5 1106 41                       @ lvgl/src/lv_core/lv_style.c:1106:41
	lsrs	r0, r0, #8
	.loc	5 1106 5                        @ lvgl/src/lv_core/lv_style.c:1106:5
	add	sp, #8
	pop	{r7, pc}
.Ltmp59:
.Lfunc_end5:
	.size	get_style_prop_attr, .Lfunc_end5-get_style_prop_attr
	.cfi_endproc
	.cantunwind
	.fnend
                                        @ -- End function
	.section	.text.get_prop_size,"ax",%progbits
	.p2align	3                               @ -- Begin function get_prop_size
	.type	get_prop_size,%function
	.code	16                              @ @get_prop_size
	.thumb_func
get_prop_size:
.Lfunc_begin6:
	.loc	5 1115 0 is_stmt 1              @ lvgl/src/lv_core/lv_style.c:1115:0
	.fnstart
	.cfi_startproc
@ %bb.0:
	.pad	#8
	sub	sp, #8
	.cfi_def_cfa_offset 8
                                        @ kill: def $r1 killed $r0
	strb.w	r0, [sp, #7]
.Ltmp60:
	.loc	5 1116 13 prologue_end          @ lvgl/src/lv_core/lv_style.c:1116:13
	ldrb.w	r0, [sp, #7]
	and	r0, r0, #15
	strb.w	r0, [sp, #7]
	movs	r0, #2
	.loc	5 1117 12                       @ lvgl/src/lv_core/lv_style.c:1117:12
	str	r0, [sp]
.Ltmp61:
	.loc	5 1118 8                        @ lvgl/src/lv_core/lv_style.c:1118:8
	ldrb.w	r0, [sp, #7]
.Ltmp62:
	.loc	5 1118 8 is_stmt 0              @ lvgl/src/lv_core/lv_style.c:1118:8
	cmp	r0, #8
	bgt	.LBB6_2
	b	.LBB6_1
.LBB6_1:
.Ltmp63:
	.loc	5 1118 42                       @ lvgl/src/lv_core/lv_style.c:1118:42
	ldr	r0, [sp]
	adds	r0, #2
	str	r0, [sp]
	.loc	5 1118 37                       @ lvgl/src/lv_core/lv_style.c:1118:37
	b	.LBB6_9
.LBB6_2:
.Ltmp64:
	.loc	5 1119 13 is_stmt 1             @ lvgl/src/lv_core/lv_style.c:1119:13
	ldrb.w	r0, [sp, #7]
.Ltmp65:
	.loc	5 1119 13 is_stmt 0             @ lvgl/src/lv_core/lv_style.c:1119:13
	cmp	r0, #11
	bgt	.LBB6_4
	b	.LBB6_3
.LBB6_3:
.Ltmp66:
	.loc	5 1119 45                       @ lvgl/src/lv_core/lv_style.c:1119:45
	ldr	r0, [sp]
	adds	r0, #4
	str	r0, [sp]
	.loc	5 1119 40                       @ lvgl/src/lv_core/lv_style.c:1119:40
	b	.LBB6_8
.LBB6_4:
.Ltmp67:
	.loc	5 1120 13 is_stmt 1             @ lvgl/src/lv_core/lv_style.c:1120:13
	ldrb.w	r0, [sp, #7]
.Ltmp68:
	.loc	5 1120 13 is_stmt 0             @ lvgl/src/lv_core/lv_style.c:1120:13
	cmp	r0, #13
	bgt	.LBB6_6
	b	.LBB6_5
.LBB6_5:
.Ltmp69:
	.loc	5 1120 45                       @ lvgl/src/lv_core/lv_style.c:1120:45
	ldr	r0, [sp]
	adds	r0, #1
	str	r0, [sp]
	.loc	5 1120 40                       @ lvgl/src/lv_core/lv_style.c:1120:40
	b	.LBB6_7
.LBB6_6:
	.loc	5 1121 15 is_stmt 1             @ lvgl/src/lv_core/lv_style.c:1121:15
	ldr	r0, [sp]
	adds	r0, #4
	str	r0, [sp]
	b	.LBB6_7
.Ltmp70:
.LBB6_7:
	.loc	5 0 15 is_stmt 0                @ lvgl/src/lv_core/lv_style.c:0:15
	b	.LBB6_8
.LBB6_8:
	b	.LBB6_9
.LBB6_9:
	.loc	5 1122 12 is_stmt 1             @ lvgl/src/lv_core/lv_style.c:1122:12
	ldr	r0, [sp]
	.loc	5 1122 5 is_stmt 0              @ lvgl/src/lv_core/lv_style.c:1122:5
	add	sp, #8
	bx	lr
.Ltmp71:
.Lfunc_end6:
	.size	get_prop_size, .Lfunc_end6-get_prop_size
	.cfi_endproc
	.cantunwind
	.fnend
                                        @ -- End function
	.section	.text.style_resize,"ax",%progbits
	.p2align	3                               @ -- Begin function style_resize
	.type	style_resize,%function
	.code	16                              @ @style_resize
	.thumb_func
style_resize:
.Lfunc_begin7:
	.loc	5 1067 0 is_stmt 1              @ lvgl/src/lv_core/lv_style.c:1067:0
	.fnstart
	.cfi_startproc
@ %bb.0:
	.save	{r7, lr}
	push	{r7, lr}
	.cfi_def_cfa_offset 8
	.cfi_offset lr, -4
	.cfi_offset r7, -8
	.pad	#16
	sub	sp, #16
	.cfi_def_cfa_offset 24
	str	r0, [sp, #8]
	str	r1, [sp, #4]
.Ltmp72:
	.loc	5 1068 40 prologue_end          @ lvgl/src/lv_core/lv_style.c:1068:40
	ldr	r0, [sp, #8]
	.loc	5 1068 47 is_stmt 0             @ lvgl/src/lv_core/lv_style.c:1068:47
	ldr	r0, [r0]
	.loc	5 1068 52                       @ lvgl/src/lv_core/lv_style.c:1068:52
	ldr	r1, [sp, #4]
	.loc	5 1068 25                       @ lvgl/src/lv_core/lv_style.c:1068:25
	bl	lv_mem_realloc
	.loc	5 1068 15                       @ lvgl/src/lv_core/lv_style.c:1068:15
	str	r0, [sp]
.Ltmp73:
	.loc	5 1069 8 is_stmt 1              @ lvgl/src/lv_core/lv_style.c:1069:8
	ldr	r0, [sp, #4]
	.loc	5 1069 11 is_stmt 0             @ lvgl/src/lv_core/lv_style.c:1069:11
	cbz	r0, .LBB7_3
	b	.LBB7_1
.LBB7_1:
	.loc	5 1069 14                       @ lvgl/src/lv_core/lv_style.c:1069:14
	ldr	r0, [sp]
.Ltmp74:
	.loc	5 1069 8                        @ lvgl/src/lv_core/lv_style.c:1069:8
	cbnz	r0, .LBB7_3
	b	.LBB7_2
.LBB7_2:
	.loc	5 0 8                           @ lvgl/src/lv_core/lv_style.c:0:8
	movs	r0, #0
.Ltmp75:
	.loc	5 1069 31                       @ lvgl/src/lv_core/lv_style.c:1069:31
	strb.w	r0, [sp, #15]
	b	.LBB7_4
.Ltmp76:
.LBB7_3:
	.loc	5 1070 18 is_stmt 1             @ lvgl/src/lv_core/lv_style.c:1070:18
	ldr	r0, [sp]
	.loc	5 1070 5 is_stmt 0              @ lvgl/src/lv_core/lv_style.c:1070:5
	ldr	r1, [sp, #8]
	.loc	5 1070 16                       @ lvgl/src/lv_core/lv_style.c:1070:16
	str	r0, [r1]
	movs	r0, #1
	.loc	5 1071 5 is_stmt 1              @ lvgl/src/lv_core/lv_style.c:1071:5
	strb.w	r0, [sp, #15]
	b	.LBB7_4
.LBB7_4:
	.loc	5 1072 1                        @ lvgl/src/lv_core/lv_style.c:1072:1
	ldrb.w	r0, [sp, #15]
	add	sp, #16
	pop	{r7, pc}
.Ltmp77:
.Lfunc_end7:
	.size	style_resize, .Lfunc_end7-style_resize
	.cfi_endproc
	.cantunwind
	.fnend
                                        @ -- End function
	.section	.text.lv_style_list_init,"ax",%progbits
	.hidden	lv_style_list_init              @ -- Begin function lv_style_list_init
	.globl	lv_style_list_init
	.p2align	3
	.type	lv_style_list_init,%function
	.code	16                              @ @lv_style_list_init
	.thumb_func
lv_style_list_init:
.Lfunc_begin8:
	.loc	5 119 0                         @ lvgl/src/lv_core/lv_style.c:119:0
	.fnstart
	.cfi_startproc
@ %bb.0:
	.save	{r7, lr}
	push	{r7, lr}
	.cfi_def_cfa_offset 8
	.cfi_offset lr, -4
	.cfi_offset r7, -8
	.pad	#8
	sub	sp, #8
	.cfi_def_cfa_offset 16
	str	r0, [sp, #4]
.Ltmp78:
	.loc	5 120 19 prologue_end           @ lvgl/src/lv_core/lv_style.c:120:19
	ldr	r0, [sp, #4]
	movs	r1, #8
	.loc	5 120 5 is_stmt 0               @ lvgl/src/lv_core/lv_style.c:120:5
	bl	_lv_memset_00
	.loc	5 124 1 is_stmt 1               @ lvgl/src/lv_core/lv_style.c:124:1
	add	sp, #8
	pop	{r7, pc}
.Ltmp79:
.Lfunc_end8:
	.size	lv_style_list_init, .Lfunc_end8-lv_style_list_init
	.cfi_endproc
	.cantunwind
	.fnend
                                        @ -- End function
	.section	.text.lv_style_list_copy,"ax",%progbits
	.hidden	lv_style_list_copy              @ -- Begin function lv_style_list_copy
	.globl	lv_style_list_copy
	.p2align	3
	.type	lv_style_list_copy,%function
	.code	16                              @ @lv_style_list_copy
	.thumb_func
lv_style_list_copy:
.Lfunc_begin9:
	.loc	5 132 0                         @ lvgl/src/lv_core/lv_style.c:132:0
	.fnstart
	.cfi_startproc
@ %bb.0:
	.save	{r7, lr}
	push	{r7, lr}
	.cfi_def_cfa_offset 8
	.cfi_offset lr, -4
	.cfi_offset r7, -8
	.pad	#16
	sub	sp, #16
	.cfi_def_cfa_offset 24
	str	r0, [sp, #12]
	str	r1, [sp, #8]
.Ltmp80:
	.loc	5 136 26 prologue_end           @ lvgl/src/lv_core/lv_style.c:136:26
	ldr	r0, [sp, #12]
	.loc	5 136 5 is_stmt 0               @ lvgl/src/lv_core/lv_style.c:136:5
	bl	_lv_style_list_reset
.Ltmp81:
	.loc	5 138 8 is_stmt 1               @ lvgl/src/lv_core/lv_style.c:138:8
	ldr	r0, [sp, #8]
	.loc	5 138 25 is_stmt 0              @ lvgl/src/lv_core/lv_style.c:138:25
	cbz	r0, .LBB9_2
	b	.LBB9_1
.LBB9_1:
	.loc	5 138 28                        @ lvgl/src/lv_core/lv_style.c:138:28
	ldr	r0, [sp, #8]
	.loc	5 138 38                        @ lvgl/src/lv_core/lv_style.c:138:38
	ldr	r0, [r0]
.Ltmp82:
	.loc	5 138 8                         @ lvgl/src/lv_core/lv_style.c:138:8
	cbnz	r0, .LBB9_3
	b	.LBB9_2
.LBB9_2:
.Ltmp83:
	.loc	5 138 58                        @ lvgl/src/lv_core/lv_style.c:138:58
	b	.LBB9_22
.Ltmp84:
.LBB9_3:
	.loc	5 141 8 is_stmt 1               @ lvgl/src/lv_core/lv_style.c:141:8
	ldr	r0, [sp, #8]
	.loc	5 141 18 is_stmt 0              @ lvgl/src/lv_core/lv_style.c:141:18
	ldrb	r0, [r0, #4]
	lsrs	r0, r0, #6
.Ltmp85:
	.loc	5 141 8                         @ lvgl/src/lv_core/lv_style.c:141:8
	lsls	r0, r0, #31
	cmp	r0, #0
	bne	.LBB9_12
	b	.LBB9_4
.LBB9_4:
.Ltmp86:
	.loc	5 142 12 is_stmt 1              @ lvgl/src/lv_core/lv_style.c:142:12
	ldr	r0, [sp, #8]
	.loc	5 142 22 is_stmt 0              @ lvgl/src/lv_core/lv_style.c:142:22
	ldrb	r1, [r0, #4]
	movs	r0, #0
.Ltmp87:
	.loc	5 142 12                        @ lvgl/src/lv_core/lv_style.c:142:12
	cmp.w	r0, r1, lsr #7
	beq	.LBB9_8
	b	.LBB9_5
.LBB9_5:
.Ltmp88:
	.loc	5 143 51 is_stmt 1              @ lvgl/src/lv_core/lv_style.c:143:51
	ldr	r0, [sp, #8]
	.loc	5 143 61 is_stmt 0              @ lvgl/src/lv_core/lv_style.c:143:61
	ldrb	r0, [r0, #4]
	and	r1, r0, #63
	mvn	r0, #3
	.loc	5 143 76                        @ lvgl/src/lv_core/lv_style.c:143:76
	add.w	r0, r0, r1, lsl #2
	.loc	5 143 37                        @ lvgl/src/lv_core/lv_style.c:143:37
	bl	lv_mem_alloc
	.loc	5 143 13                        @ lvgl/src/lv_core/lv_style.c:143:13
	ldr	r1, [sp, #12]
	.loc	5 143 35                        @ lvgl/src/lv_core/lv_style.c:143:35
	str	r0, [r1]
.Ltmp89:
	.loc	5 144 16 is_stmt 1              @ lvgl/src/lv_core/lv_style.c:144:16
	ldr	r0, [sp, #12]
	.loc	5 144 27 is_stmt 0              @ lvgl/src/lv_core/lv_style.c:144:27
	ldr	r0, [r0]
.Ltmp90:
	.loc	5 144 16                        @ lvgl/src/lv_core/lv_style.c:144:16
	cbz	r0, .LBB9_7
	b	.LBB9_6
.LBB9_6:
.Ltmp91:
	.loc	5 145 28 is_stmt 1              @ lvgl/src/lv_core/lv_style.c:145:28
	ldr	r0, [sp, #12]
	.loc	5 145 39 is_stmt 0              @ lvgl/src/lv_core/lv_style.c:145:39
	ldr	r0, [r0]
	.loc	5 145 51                        @ lvgl/src/lv_core/lv_style.c:145:51
	ldr	r2, [sp, #8]
	.loc	5 145 61                        @ lvgl/src/lv_core/lv_style.c:145:61
	ldr	r1, [r2]
	.loc	5 145 72                        @ lvgl/src/lv_core/lv_style.c:145:72
	adds	r1, #4
	.loc	5 145 88                        @ lvgl/src/lv_core/lv_style.c:145:88
	ldrb	r2, [r2, #4]
	and	r3, r2, #63
	mvn	r2, #3
	.loc	5 145 103                       @ lvgl/src/lv_core/lv_style.c:145:103
	add.w	r2, r2, r3, lsl #2
	.loc	5 145 17                        @ lvgl/src/lv_core/lv_style.c:145:17
	bl	_lv_memcpy
	.loc	5 146 40 is_stmt 1              @ lvgl/src/lv_core/lv_style.c:146:40
	ldr	r0, [sp, #8]
	.loc	5 146 50 is_stmt 0              @ lvgl/src/lv_core/lv_style.c:146:50
	ldrb	r0, [r0, #4]
	.loc	5 146 17                        @ lvgl/src/lv_core/lv_style.c:146:17
	ldr	r1, [sp, #12]
	.loc	5 146 38                        @ lvgl/src/lv_core/lv_style.c:146:38
	subs	r2, r0, #1
	ldrb	r0, [r1, #4]
	and	r2, r2, #63
	and	r0, r0, #192
	add	r0, r2
	strb	r0, [r1, #4]
	.loc	5 147 13 is_stmt 1              @ lvgl/src/lv_core/lv_style.c:147:13
	b	.LBB9_7
.Ltmp92:
.LBB9_7:
	.loc	5 148 9                         @ lvgl/src/lv_core/lv_style.c:148:9
	b	.LBB9_11
.Ltmp93:
.LBB9_8:
	.loc	5 150 50                        @ lvgl/src/lv_core/lv_style.c:150:50
	ldr	r0, [sp, #8]
	.loc	5 150 60 is_stmt 0              @ lvgl/src/lv_core/lv_style.c:150:60
	ldrb	r0, [r0, #4]
	and	r0, r0, #63
	.loc	5 150 70                        @ lvgl/src/lv_core/lv_style.c:150:70
	lsls	r0, r0, #2
	.loc	5 150 37                        @ lvgl/src/lv_core/lv_style.c:150:37
	bl	lv_mem_alloc
	.loc	5 150 13                        @ lvgl/src/lv_core/lv_style.c:150:13
	ldr	r1, [sp, #12]
	.loc	5 150 35                        @ lvgl/src/lv_core/lv_style.c:150:35
	str	r0, [r1]
.Ltmp94:
	.loc	5 151 16 is_stmt 1              @ lvgl/src/lv_core/lv_style.c:151:16
	ldr	r0, [sp, #12]
	.loc	5 151 27 is_stmt 0              @ lvgl/src/lv_core/lv_style.c:151:27
	ldr	r0, [r0]
.Ltmp95:
	.loc	5 151 16                        @ lvgl/src/lv_core/lv_style.c:151:16
	cbz	r0, .LBB9_10
	b	.LBB9_9
.LBB9_9:
.Ltmp96:
	.loc	5 152 28 is_stmt 1              @ lvgl/src/lv_core/lv_style.c:152:28
	ldr	r0, [sp, #12]
	.loc	5 152 39 is_stmt 0              @ lvgl/src/lv_core/lv_style.c:152:39
	ldr	r0, [r0]
	.loc	5 152 51                        @ lvgl/src/lv_core/lv_style.c:152:51
	ldr	r2, [sp, #8]
	.loc	5 152 61                        @ lvgl/src/lv_core/lv_style.c:152:61
	ldr	r1, [r2]
	.loc	5 152 83                        @ lvgl/src/lv_core/lv_style.c:152:83
	ldrb	r2, [r2, #4]
	and	r2, r2, #63
	.loc	5 152 93                        @ lvgl/src/lv_core/lv_style.c:152:93
	lsls	r2, r2, #2
	.loc	5 152 17                        @ lvgl/src/lv_core/lv_style.c:152:17
	bl	_lv_memcpy
	.loc	5 153 40 is_stmt 1              @ lvgl/src/lv_core/lv_style.c:153:40
	ldr	r0, [sp, #8]
	.loc	5 153 50 is_stmt 0              @ lvgl/src/lv_core/lv_style.c:153:50
	ldrb	r0, [r0, #4]
	and	r2, r0, #63
	.loc	5 153 17                        @ lvgl/src/lv_core/lv_style.c:153:17
	ldr	r1, [sp, #12]
	.loc	5 153 38                        @ lvgl/src/lv_core/lv_style.c:153:38
	ldrb	r0, [r1, #4]
	and	r0, r0, #192
	add	r0, r2
	strb	r0, [r1, #4]
	.loc	5 154 13 is_stmt 1              @ lvgl/src/lv_core/lv_style.c:154:13
	b	.LBB9_10
.Ltmp97:
.LBB9_10:
	.loc	5 0 13 is_stmt 0                @ lvgl/src/lv_core/lv_style.c:0:13
	b	.LBB9_11
.LBB9_11:
	.loc	5 156 5 is_stmt 1               @ lvgl/src/lv_core/lv_style.c:156:5
	b	.LBB9_22
.Ltmp98:
.LBB9_12:
	.loc	5 158 12                        @ lvgl/src/lv_core/lv_style.c:158:12
	ldr	r0, [sp, #8]
	.loc	5 158 22 is_stmt 0              @ lvgl/src/lv_core/lv_style.c:158:22
	ldrb	r1, [r0, #4]
	movs	r0, #0
.Ltmp99:
	.loc	5 158 12                        @ lvgl/src/lv_core/lv_style.c:158:12
	cmp.w	r0, r1, lsr #7
	beq	.LBB9_16
	b	.LBB9_13
.LBB9_13:
.Ltmp100:
	.loc	5 159 51 is_stmt 1              @ lvgl/src/lv_core/lv_style.c:159:51
	ldr	r0, [sp, #8]
	.loc	5 159 61 is_stmt 0              @ lvgl/src/lv_core/lv_style.c:159:61
	ldrb	r0, [r0, #4]
	and	r1, r0, #63
	mvn	r0, #7
	.loc	5 159 76                        @ lvgl/src/lv_core/lv_style.c:159:76
	add.w	r0, r0, r1, lsl #2
	.loc	5 159 37                        @ lvgl/src/lv_core/lv_style.c:159:37
	bl	lv_mem_alloc
	.loc	5 159 13                        @ lvgl/src/lv_core/lv_style.c:159:13
	ldr	r1, [sp, #12]
	.loc	5 159 35                        @ lvgl/src/lv_core/lv_style.c:159:35
	str	r0, [r1]
.Ltmp101:
	.loc	5 160 16 is_stmt 1              @ lvgl/src/lv_core/lv_style.c:160:16
	ldr	r0, [sp, #12]
	.loc	5 160 27 is_stmt 0              @ lvgl/src/lv_core/lv_style.c:160:27
	ldr	r0, [r0]
.Ltmp102:
	.loc	5 160 16                        @ lvgl/src/lv_core/lv_style.c:160:16
	cbz	r0, .LBB9_15
	b	.LBB9_14
.LBB9_14:
.Ltmp103:
	.loc	5 161 28 is_stmt 1              @ lvgl/src/lv_core/lv_style.c:161:28
	ldr	r0, [sp, #12]
	.loc	5 161 39 is_stmt 0              @ lvgl/src/lv_core/lv_style.c:161:39
	ldr	r0, [r0]
	.loc	5 161 51                        @ lvgl/src/lv_core/lv_style.c:161:51
	ldr	r2, [sp, #8]
	.loc	5 161 61                        @ lvgl/src/lv_core/lv_style.c:161:61
	ldr	r1, [r2]
	.loc	5 161 72                        @ lvgl/src/lv_core/lv_style.c:161:72
	adds	r1, #8
	.loc	5 161 88                        @ lvgl/src/lv_core/lv_style.c:161:88
	ldrb	r2, [r2, #4]
	and	r3, r2, #63
	mvn	r2, #7
	.loc	5 161 103                       @ lvgl/src/lv_core/lv_style.c:161:103
	add.w	r2, r2, r3, lsl #2
	.loc	5 161 17                        @ lvgl/src/lv_core/lv_style.c:161:17
	bl	_lv_memcpy
	.loc	5 162 40 is_stmt 1              @ lvgl/src/lv_core/lv_style.c:162:40
	ldr	r0, [sp, #8]
	.loc	5 162 50 is_stmt 0              @ lvgl/src/lv_core/lv_style.c:162:50
	ldrb	r0, [r0, #4]
	.loc	5 162 17                        @ lvgl/src/lv_core/lv_style.c:162:17
	ldr	r1, [sp, #12]
	.loc	5 162 38                        @ lvgl/src/lv_core/lv_style.c:162:38
	subs	r2, r0, #2
	ldrb	r0, [r1, #4]
	and	r2, r2, #63
	and	r0, r0, #192
	add	r0, r2
	strb	r0, [r1, #4]
	.loc	5 163 13 is_stmt 1              @ lvgl/src/lv_core/lv_style.c:163:13
	b	.LBB9_15
.Ltmp104:
.LBB9_15:
	.loc	5 164 9                         @ lvgl/src/lv_core/lv_style.c:164:9
	b	.LBB9_19
.Ltmp105:
.LBB9_16:
	.loc	5 166 51                        @ lvgl/src/lv_core/lv_style.c:166:51
	ldr	r0, [sp, #8]
	.loc	5 166 61 is_stmt 0              @ lvgl/src/lv_core/lv_style.c:166:61
	ldrb	r0, [r0, #4]
	and	r1, r0, #63
	mvn	r0, #3
	.loc	5 166 76                        @ lvgl/src/lv_core/lv_style.c:166:76
	add.w	r0, r0, r1, lsl #2
	.loc	5 166 37                        @ lvgl/src/lv_core/lv_style.c:166:37
	bl	lv_mem_alloc
	.loc	5 166 13                        @ lvgl/src/lv_core/lv_style.c:166:13
	ldr	r1, [sp, #12]
	.loc	5 166 35                        @ lvgl/src/lv_core/lv_style.c:166:35
	str	r0, [r1]
.Ltmp106:
	.loc	5 167 16 is_stmt 1              @ lvgl/src/lv_core/lv_style.c:167:16
	ldr	r0, [sp, #12]
	.loc	5 167 27 is_stmt 0              @ lvgl/src/lv_core/lv_style.c:167:27
	ldr	r0, [r0]
.Ltmp107:
	.loc	5 167 16                        @ lvgl/src/lv_core/lv_style.c:167:16
	cbz	r0, .LBB9_18
	b	.LBB9_17
.LBB9_17:
.Ltmp108:
	.loc	5 168 28 is_stmt 1              @ lvgl/src/lv_core/lv_style.c:168:28
	ldr	r0, [sp, #12]
	.loc	5 168 39 is_stmt 0              @ lvgl/src/lv_core/lv_style.c:168:39
	ldr	r0, [r0]
	.loc	5 168 51                        @ lvgl/src/lv_core/lv_style.c:168:51
	ldr	r2, [sp, #8]
	.loc	5 168 61                        @ lvgl/src/lv_core/lv_style.c:168:61
	ldr	r1, [r2]
	.loc	5 168 72                        @ lvgl/src/lv_core/lv_style.c:168:72
	adds	r1, #4
	.loc	5 168 88                        @ lvgl/src/lv_core/lv_style.c:168:88
	ldrb	r2, [r2, #4]
	and	r3, r2, #63
	mvn	r2, #3
	.loc	5 168 103                       @ lvgl/src/lv_core/lv_style.c:168:103
	add.w	r2, r2, r3, lsl #2
	.loc	5 168 17                        @ lvgl/src/lv_core/lv_style.c:168:17
	bl	_lv_memcpy
	.loc	5 169 40 is_stmt 1              @ lvgl/src/lv_core/lv_style.c:169:40
	ldr	r0, [sp, #8]
	.loc	5 169 50 is_stmt 0              @ lvgl/src/lv_core/lv_style.c:169:50
	ldrb	r0, [r0, #4]
	.loc	5 169 17                        @ lvgl/src/lv_core/lv_style.c:169:17
	ldr	r1, [sp, #12]
	.loc	5 169 38                        @ lvgl/src/lv_core/lv_style.c:169:38
	subs	r2, r0, #1
	ldrb	r0, [r1, #4]
	and	r2, r2, #63
	and	r0, r0, #192
	add	r0, r2
	strb	r0, [r1, #4]
	.loc	5 170 13 is_stmt 1              @ lvgl/src/lv_core/lv_style.c:170:13
	b	.LBB9_18
.Ltmp109:
.LBB9_18:
	.loc	5 0 13 is_stmt 0                @ lvgl/src/lv_core/lv_style.c:0:13
	b	.LBB9_19
.LBB9_19:
	.loc	5 173 58 is_stmt 1              @ lvgl/src/lv_core/lv_style.c:173:58
	ldr	r0, [sp, #12]
	.loc	5 173 36 is_stmt 0              @ lvgl/src/lv_core/lv_style.c:173:36
	bl	get_alloc_local_style
	.loc	5 173 22                        @ lvgl/src/lv_core/lv_style.c:173:22
	str	r0, [sp, #4]
.Ltmp110:
	.loc	5 174 13 is_stmt 1              @ lvgl/src/lv_core/lv_style.c:174:13
	ldr	r0, [sp, #4]
.Ltmp111:
	.loc	5 174 13 is_stmt 0              @ lvgl/src/lv_core/lv_style.c:174:13
	cbz	r0, .LBB9_21
	b	.LBB9_20
.LBB9_20:
.Ltmp112:
	.loc	5 175 27 is_stmt 1              @ lvgl/src/lv_core/lv_style.c:175:27
	ldr	r0, [sp, #4]
	.loc	5 175 81 is_stmt 0              @ lvgl/src/lv_core/lv_style.c:175:81
	str	r0, [sp]                        @ 4-byte Spill
	ldr	r0, [sp, #8]
	.loc	5 175 40                        @ lvgl/src/lv_core/lv_style.c:175:40
	bl	get_alloc_local_style
	mov	r1, r0
	.loc	5 175 13                        @ lvgl/src/lv_core/lv_style.c:175:13
	ldr	r0, [sp]                        @ 4-byte Reload
	bl	lv_style_copy
	b	.LBB9_21
.Ltmp113:
.LBB9_21:
	.loc	5 0 13                          @ lvgl/src/lv_core/lv_style.c:0:13
	b	.LBB9_22
.LBB9_22:
	.loc	5 177 1 is_stmt 1               @ lvgl/src/lv_core/lv_style.c:177:1
	add	sp, #16
	pop	{r7, pc}
.Ltmp114:
.Lfunc_end9:
	.size	lv_style_list_copy, .Lfunc_end9-lv_style_list_copy
	.cfi_endproc
	.cantunwind
	.fnend
                                        @ -- End function
	.section	.text._lv_style_list_reset,"ax",%progbits
	.hidden	_lv_style_list_reset            @ -- Begin function _lv_style_list_reset
	.globl	_lv_style_list_reset
	.p2align	3
	.type	_lv_style_list_reset,%function
	.code	16                              @ @_lv_style_list_reset
	.thumb_func
_lv_style_list_reset:
.Lfunc_begin10:
	.loc	5 274 0                         @ lvgl/src/lv_core/lv_style.c:274:0
	.fnstart
	.cfi_startproc
@ %bb.0:
	.save	{r7, lr}
	push	{r7, lr}
	.cfi_def_cfa_offset 8
	.cfi_offset lr, -4
	.cfi_offset r7, -8
	.pad	#16
	sub	sp, #16
	.cfi_def_cfa_offset 24
	str	r0, [sp, #12]
.Ltmp115:
	.loc	5 277 8 prologue_end            @ lvgl/src/lv_core/lv_style.c:277:8
	ldr	r0, [sp, #12]
.Ltmp116:
	.loc	5 277 8 is_stmt 0               @ lvgl/src/lv_core/lv_style.c:277:8
	cbnz	r0, .LBB10_2
	b	.LBB10_1
.LBB10_1:
.Ltmp117:
	.loc	5 277 22                        @ lvgl/src/lv_core/lv_style.c:277:22
	b	.LBB10_13
.Ltmp118:
.LBB10_2:
	.loc	5 279 8 is_stmt 1               @ lvgl/src/lv_core/lv_style.c:279:8
	ldr	r0, [sp, #12]
	.loc	5 279 14 is_stmt 0              @ lvgl/src/lv_core/lv_style.c:279:14
	ldrb	r0, [r0, #4]
	lsrs	r0, r0, #6
.Ltmp119:
	.loc	5 279 8                         @ lvgl/src/lv_core/lv_style.c:279:8
	lsls	r0, r0, #31
	cbz	r0, .LBB10_6
	b	.LBB10_3
.LBB10_3:
.Ltmp120:
	.loc	5 280 60 is_stmt 1              @ lvgl/src/lv_core/lv_style.c:280:60
	ldr	r0, [sp, #12]
	.loc	5 280 30 is_stmt 0              @ lvgl/src/lv_core/lv_style.c:280:30
	bl	lv_style_list_get_local_style
	.loc	5 280 22                        @ lvgl/src/lv_core/lv_style.c:280:22
	str	r0, [sp, #8]
.Ltmp121:
	.loc	5 281 12 is_stmt 1              @ lvgl/src/lv_core/lv_style.c:281:12
	ldr	r0, [sp, #8]
.Ltmp122:
	.loc	5 281 12 is_stmt 0              @ lvgl/src/lv_core/lv_style.c:281:12
	cbz	r0, .LBB10_5
	b	.LBB10_4
.LBB10_4:
.Ltmp123:
	.loc	5 282 28 is_stmt 1              @ lvgl/src/lv_core/lv_style.c:282:28
	ldr	r0, [sp, #8]
	.loc	5 282 13 is_stmt 0              @ lvgl/src/lv_core/lv_style.c:282:13
	bl	lv_style_reset
	.loc	5 283 25 is_stmt 1              @ lvgl/src/lv_core/lv_style.c:283:25
	ldr	r0, [sp, #8]
	.loc	5 283 13 is_stmt 0              @ lvgl/src/lv_core/lv_style.c:283:13
	bl	lv_mem_free
	.loc	5 284 9 is_stmt 1               @ lvgl/src/lv_core/lv_style.c:284:9
	b	.LBB10_5
.Ltmp124:
.LBB10_5:
	.loc	5 285 5                         @ lvgl/src/lv_core/lv_style.c:285:5
	b	.LBB10_6
.Ltmp125:
.LBB10_6:
	.loc	5 287 8                         @ lvgl/src/lv_core/lv_style.c:287:8
	ldr	r0, [sp, #12]
	.loc	5 287 14 is_stmt 0              @ lvgl/src/lv_core/lv_style.c:287:14
	ldrb	r1, [r0, #4]
	movs	r0, #0
.Ltmp126:
	.loc	5 287 8                         @ lvgl/src/lv_core/lv_style.c:287:8
	cmp.w	r0, r1, lsr #7
	beq	.LBB10_10
	b	.LBB10_7
.LBB10_7:
.Ltmp127:
	.loc	5 288 66 is_stmt 1              @ lvgl/src/lv_core/lv_style.c:288:66
	ldr	r0, [sp, #12]
	.loc	5 288 30 is_stmt 0              @ lvgl/src/lv_core/lv_style.c:288:30
	bl	_lv_style_list_get_transition_style
	.loc	5 288 22                        @ lvgl/src/lv_core/lv_style.c:288:22
	str	r0, [sp, #4]
.Ltmp128:
	.loc	5 289 12 is_stmt 1              @ lvgl/src/lv_core/lv_style.c:289:12
	ldr	r0, [sp, #4]
.Ltmp129:
	.loc	5 289 12 is_stmt 0              @ lvgl/src/lv_core/lv_style.c:289:12
	cbz	r0, .LBB10_9
	b	.LBB10_8
.LBB10_8:
.Ltmp130:
	.loc	5 290 28 is_stmt 1              @ lvgl/src/lv_core/lv_style.c:290:28
	ldr	r0, [sp, #4]
	.loc	5 290 13 is_stmt 0              @ lvgl/src/lv_core/lv_style.c:290:13
	bl	lv_style_reset
	.loc	5 291 25 is_stmt 1              @ lvgl/src/lv_core/lv_style.c:291:25
	ldr	r0, [sp, #4]
	.loc	5 291 13 is_stmt 0              @ lvgl/src/lv_core/lv_style.c:291:13
	bl	lv_mem_free
	.loc	5 292 9 is_stmt 1               @ lvgl/src/lv_core/lv_style.c:292:9
	b	.LBB10_9
.Ltmp131:
.LBB10_9:
	.loc	5 293 5                         @ lvgl/src/lv_core/lv_style.c:293:5
	b	.LBB10_10
.Ltmp132:
.LBB10_10:
	.loc	5 295 8                         @ lvgl/src/lv_core/lv_style.c:295:8
	ldr	r0, [sp, #12]
	.loc	5 295 14 is_stmt 0              @ lvgl/src/lv_core/lv_style.c:295:14
	ldrb	r0, [r0, #4]
	and	r0, r0, #63
.Ltmp133:
	.loc	5 295 8                         @ lvgl/src/lv_core/lv_style.c:295:8
	cmp	r0, #1
	blt	.LBB10_12
	b	.LBB10_11
.LBB10_11:
.Ltmp134:
	.loc	5 295 41                        @ lvgl/src/lv_core/lv_style.c:295:41
	ldr	r0, [sp, #12]
	.loc	5 295 47                        @ lvgl/src/lv_core/lv_style.c:295:47
	ldr	r0, [r0]
	.loc	5 295 29                        @ lvgl/src/lv_core/lv_style.c:295:29
	bl	lv_mem_free
	b	.LBB10_12
.Ltmp135:
.LBB10_12:
	.loc	5 296 5 is_stmt 1               @ lvgl/src/lv_core/lv_style.c:296:5
	ldr	r1, [sp, #12]
	movs	r0, #0
	.loc	5 296 22 is_stmt 0              @ lvgl/src/lv_core/lv_style.c:296:22
	str	r0, [r1]
	.loc	5 297 5 is_stmt 1               @ lvgl/src/lv_core/lv_style.c:297:5
	ldr	r1, [sp, #12]
	.loc	5 297 21 is_stmt 0              @ lvgl/src/lv_core/lv_style.c:297:21
	ldrb	r0, [r1, #4]
	and	r0, r0, #192
	strb	r0, [r1, #4]
	.loc	5 298 5 is_stmt 1               @ lvgl/src/lv_core/lv_style.c:298:5
	ldr	r1, [sp, #12]
	.loc	5 298 21 is_stmt 0              @ lvgl/src/lv_core/lv_style.c:298:21
	ldrb	r0, [r1, #4]
	and	r0, r0, #191
	strb	r0, [r1, #4]
	.loc	5 299 5 is_stmt 1               @ lvgl/src/lv_core/lv_style.c:299:5
	ldr	r1, [sp, #12]
	.loc	5 299 21 is_stmt 0              @ lvgl/src/lv_core/lv_style.c:299:21
	ldrb	r0, [r1, #4]
	and	r0, r0, #127
	strb	r0, [r1, #4]
	.loc	5 300 5 is_stmt 1               @ lvgl/src/lv_core/lv_style.c:300:5
	ldr	r1, [sp, #12]
	.loc	5 300 22 is_stmt 0              @ lvgl/src/lv_core/lv_style.c:300:22
	ldrb	r0, [r1, #5]
	and	r0, r0, #254
	strb	r0, [r1, #5]
	.loc	5 304 1 is_stmt 1               @ lvgl/src/lv_core/lv_style.c:304:1
	b	.LBB10_13
.LBB10_13:
	add	sp, #16
	pop	{r7, pc}
.Ltmp136:
.Lfunc_end10:
	.size	_lv_style_list_reset, .Lfunc_end10-_lv_style_list_reset
	.cfi_endproc
	.cantunwind
	.fnend
                                        @ -- End function
	.section	.text.get_alloc_local_style,"ax",%progbits
	.p2align	3                               @ -- Begin function get_alloc_local_style
	.type	get_alloc_local_style,%function
	.code	16                              @ @get_alloc_local_style
	.thumb_func
get_alloc_local_style:
.Lfunc_begin11:
	.loc	5 1041 0                        @ lvgl/src/lv_core/lv_style.c:1041:0
	.fnstart
	.cfi_startproc
@ %bb.0:
	.save	{r7, lr}
	push	{r7, lr}
	.cfi_def_cfa_offset 8
	.cfi_offset lr, -4
	.cfi_offset r7, -8
	.pad	#16
	sub	sp, #16
	.cfi_def_cfa_offset 24
	str	r0, [sp, #8]
.Ltmp137:
	.loc	5 1044 8 prologue_end           @ lvgl/src/lv_core/lv_style.c:1044:8
	ldr	r0, [sp, #8]
	.loc	5 1044 14 is_stmt 0             @ lvgl/src/lv_core/lv_style.c:1044:14
	ldrb	r0, [r0, #4]
	lsrs	r0, r0, #6
.Ltmp138:
	.loc	5 1044 8                        @ lvgl/src/lv_core/lv_style.c:1044:8
	lsls	r0, r0, #31
	cbz	r0, .LBB11_2
	b	.LBB11_1
.LBB11_1:
.Ltmp139:
	.loc	5 1044 56                       @ lvgl/src/lv_core/lv_style.c:1044:56
	ldr	r0, [sp, #8]
	.loc	5 1044 68                       @ lvgl/src/lv_core/lv_style.c:1044:68
	ldrb	r1, [r0, #4]
	lsrs	r1, r1, #7
	.loc	5 1044 32                       @ lvgl/src/lv_core/lv_style.c:1044:32
	bl	lv_style_list_get_style
	.loc	5 1044 25                       @ lvgl/src/lv_core/lv_style.c:1044:25
	str	r0, [sp, #12]
	b	.LBB11_10
.Ltmp140:
.LBB11_2:
	.loc	5 0 25                          @ lvgl/src/lv_core/lv_style.c:0:25
	movs	r0, #4
	.loc	5 1046 32 is_stmt 1             @ lvgl/src/lv_core/lv_style.c:1046:32
	bl	lv_mem_alloc
	.loc	5 1046 18 is_stmt 0             @ lvgl/src/lv_core/lv_style.c:1046:18
	str	r0, [sp, #4]
	.loc	5 1047 5 is_stmt 1              @ lvgl/src/lv_core/lv_style.c:1047:5
	b	.LBB11_3
.LBB11_3:
.Ltmp141:
	.loc	5 1047 5 is_stmt 0              @ lvgl/src/lv_core/lv_style.c:1047:5
	ldr	r0, [sp, #4]
	bl	lv_debug_check_null
.Ltmp142:
	.loc	5 1047 5                        @ lvgl/src/lv_core/lv_style.c:1047:5
	cbnz	r0, .LBB11_6
	b	.LBB11_4
.LBB11_4:
.Ltmp143:
	.loc	5 1047 5                        @ lvgl/src/lv_core/lv_style.c:1047:5
	ldr	r2, [sp, #4]
	movw	r0, :lower16:.L.str
	movt	r0, :upper16:.L.str
	movs	r3, #0
	bl	lv_debug_log_error
	b	.LBB11_5
.LBB11_5:                               @ =>This Inner Loop Header: Depth=1
	b	.LBB11_5
.Ltmp144:
.LBB11_6:
	.loc	5 1047 5                        @ lvgl/src/lv_core/lv_style.c:1047:5
	b	.LBB11_7
.Ltmp145:
.LBB11_7:
	.loc	5 1048 8 is_stmt 1              @ lvgl/src/lv_core/lv_style.c:1048:8
	ldr	r0, [sp, #4]
.Ltmp146:
	.loc	5 1048 8 is_stmt 0              @ lvgl/src/lv_core/lv_style.c:1048:8
	cbnz	r0, .LBB11_9
	b	.LBB11_8
.LBB11_8:
	.loc	5 0 8                           @ lvgl/src/lv_core/lv_style.c:0:8
	movs	r0, #0
.Ltmp147:
	.loc	5 1050 9 is_stmt 1              @ lvgl/src/lv_core/lv_style.c:1050:9
	str	r0, [sp, #12]
	b	.LBB11_10
.Ltmp148:
.LBB11_9:
	.loc	5 1052 19                       @ lvgl/src/lv_core/lv_style.c:1052:19
	ldr	r0, [sp, #4]
	.loc	5 1052 5 is_stmt 0              @ lvgl/src/lv_core/lv_style.c:1052:5
	bl	lv_style_init
	.loc	5 1055 30 is_stmt 1             @ lvgl/src/lv_core/lv_style.c:1055:30
	ldr	r0, [sp, #8]
	.loc	5 1055 36 is_stmt 0             @ lvgl/src/lv_core/lv_style.c:1055:36
	ldr	r1, [sp, #4]
	.loc	5 1055 5                        @ lvgl/src/lv_core/lv_style.c:1055:5
	bl	_lv_style_list_add_style
	.loc	5 1056 5 is_stmt 1              @ lvgl/src/lv_core/lv_style.c:1056:5
	ldr	r1, [sp, #8]
	.loc	5 1056 21 is_stmt 0             @ lvgl/src/lv_core/lv_style.c:1056:21
	ldrb	r0, [r1, #4]
	orr	r0, r0, #64
	strb	r0, [r1, #4]
	.loc	5 1058 12 is_stmt 1             @ lvgl/src/lv_core/lv_style.c:1058:12
	ldr	r0, [sp, #4]
	.loc	5 1058 5 is_stmt 0              @ lvgl/src/lv_core/lv_style.c:1058:5
	str	r0, [sp, #12]
	b	.LBB11_10
.LBB11_10:
	.loc	5 1059 1 is_stmt 1              @ lvgl/src/lv_core/lv_style.c:1059:1
	ldr	r0, [sp, #12]
	add	sp, #16
	pop	{r7, pc}
.Ltmp149:
.Lfunc_end11:
	.size	get_alloc_local_style, .Lfunc_end11-get_alloc_local_style
	.cfi_endproc
	.cantunwind
	.fnend
                                        @ -- End function
	.section	.text._lv_style_list_add_style,"ax",%progbits
	.hidden	_lv_style_list_add_style        @ -- Begin function _lv_style_list_add_style
	.globl	_lv_style_list_add_style
	.p2align	3
	.type	_lv_style_list_add_style,%function
	.code	16                              @ @_lv_style_list_add_style
	.thumb_func
_lv_style_list_add_style:
.Lfunc_begin12:
	.loc	5 187 0                         @ lvgl/src/lv_core/lv_style.c:187:0
	.fnstart
	.cfi_startproc
@ %bb.0:
	.save	{r7, lr}
	push	{r7, lr}
	.cfi_def_cfa_offset 8
	.cfi_offset lr, -4
	.cfi_offset r7, -8
	.pad	#16
	sub	sp, #16
	.cfi_def_cfa_offset 24
	str	r0, [sp, #12]
	str	r1, [sp, #8]
.Ltmp150:
	.loc	5 191 8 prologue_end            @ lvgl/src/lv_core/lv_style.c:191:8
	ldr	r0, [sp, #12]
.Ltmp151:
	.loc	5 191 8 is_stmt 0               @ lvgl/src/lv_core/lv_style.c:191:8
	cbnz	r0, .LBB12_2
	b	.LBB12_1
.LBB12_1:
.Ltmp152:
	.loc	5 191 22                        @ lvgl/src/lv_core/lv_style.c:191:22
	b	.LBB12_21
.Ltmp153:
.LBB12_2:
	.loc	5 194 33 is_stmt 1              @ lvgl/src/lv_core/lv_style.c:194:33
	ldr	r0, [sp, #12]
	.loc	5 194 39 is_stmt 0              @ lvgl/src/lv_core/lv_style.c:194:39
	ldr	r1, [sp, #8]
	.loc	5 194 5                         @ lvgl/src/lv_core/lv_style.c:194:5
	bl	_lv_style_list_remove_style
.Ltmp154:
	.loc	5 197 8 is_stmt 1               @ lvgl/src/lv_core/lv_style.c:197:8
	ldr	r0, [sp, #12]
	.loc	5 197 14 is_stmt 0              @ lvgl/src/lv_core/lv_style.c:197:14
	ldrb	r0, [r0, #4]
.Ltmp155:
	.loc	5 197 8                         @ lvgl/src/lv_core/lv_style.c:197:8
	lsls	r0, r0, #26
	cbnz	r0, .LBB12_4
	b	.LBB12_3
.LBB12_3:
	.loc	5 0 8                           @ lvgl/src/lv_core/lv_style.c:0:8
	movs	r0, #4
.Ltmp156:
	.loc	5 197 43                        @ lvgl/src/lv_core/lv_style.c:197:43
	bl	lv_mem_alloc
	.loc	5 197 41                        @ lvgl/src/lv_core/lv_style.c:197:41
	str	r0, [sp, #4]
	.loc	5 197 30                        @ lvgl/src/lv_core/lv_style.c:197:30
	b	.LBB12_5
.LBB12_4:
	.loc	5 198 38 is_stmt 1              @ lvgl/src/lv_core/lv_style.c:198:38
	ldr	r1, [sp, #12]
	.loc	5 198 44 is_stmt 0              @ lvgl/src/lv_core/lv_style.c:198:44
	ldr	r0, [r1]
	.loc	5 198 86                        @ lvgl/src/lv_core/lv_style.c:198:86
	ldrb	r1, [r1, #4]
	and	r2, r1, #63
	movs	r1, #4
	.loc	5 198 77                        @ lvgl/src/lv_core/lv_style.c:198:77
	add.w	r1, r1, r2, lsl #2
	.loc	5 198 23                        @ lvgl/src/lv_core/lv_style.c:198:23
	bl	lv_mem_realloc
	.loc	5 198 21                        @ lvgl/src/lv_core/lv_style.c:198:21
	str	r0, [sp, #4]
	b	.LBB12_5
.Ltmp157:
.LBB12_5:
	.loc	5 199 5 is_stmt 1               @ lvgl/src/lv_core/lv_style.c:199:5
	b	.LBB12_6
.LBB12_6:
.Ltmp158:
	.loc	5 199 5 is_stmt 0               @ lvgl/src/lv_core/lv_style.c:199:5
	ldr	r0, [sp, #4]
	bl	lv_debug_check_null
.Ltmp159:
	.loc	5 199 5                         @ lvgl/src/lv_core/lv_style.c:199:5
	cbnz	r0, .LBB12_9
	b	.LBB12_7
.LBB12_7:
.Ltmp160:
	.loc	5 199 5                         @ lvgl/src/lv_core/lv_style.c:199:5
	ldr	r2, [sp, #4]
	movw	r0, :lower16:.L.str
	movt	r0, :upper16:.L.str
	movs	r3, #0
	bl	lv_debug_log_error
	b	.LBB12_8
.LBB12_8:                               @ =>This Inner Loop Header: Depth=1
	b	.LBB12_8
.Ltmp161:
.LBB12_9:
	.loc	5 199 5                         @ lvgl/src/lv_core/lv_style.c:199:5
	b	.LBB12_10
.Ltmp162:
.LBB12_10:
	.loc	5 200 8 is_stmt 1               @ lvgl/src/lv_core/lv_style.c:200:8
	ldr	r0, [sp, #4]
.Ltmp163:
	.loc	5 200 8 is_stmt 0               @ lvgl/src/lv_core/lv_style.c:200:8
	cbnz	r0, .LBB12_12
	b	.LBB12_11
.LBB12_11:
.Ltmp164:
	.loc	5 202 9 is_stmt 1               @ lvgl/src/lv_core/lv_style.c:202:9
	b	.LBB12_21
.Ltmp165:
.LBB12_12:
	.loc	5 0 9 is_stmt 0                 @ lvgl/src/lv_core/lv_style.c:0:9
	movs	r0, #0
	.loc	5 207 13 is_stmt 1              @ lvgl/src/lv_core/lv_style.c:207:13
	strb.w	r0, [sp, #2]
.Ltmp166:
	.loc	5 208 8                         @ lvgl/src/lv_core/lv_style.c:208:8
	ldr	r1, [sp, #12]
	.loc	5 208 14 is_stmt 0              @ lvgl/src/lv_core/lv_style.c:208:14
	ldrb	r1, [r1, #4]
.Ltmp167:
	.loc	5 208 8                         @ lvgl/src/lv_core/lv_style.c:208:8
	cmp.w	r0, r1, lsr #7
	beq	.LBB12_14
	b	.LBB12_13
.LBB12_13:
.Ltmp168:
	.loc	5 208 36                        @ lvgl/src/lv_core/lv_style.c:208:36
	ldrb.w	r0, [sp, #2]
	adds	r0, #1
	strb.w	r0, [sp, #2]
	.loc	5 208 25                        @ lvgl/src/lv_core/lv_style.c:208:25
	b	.LBB12_14
.Ltmp169:
.LBB12_14:
	.loc	5 209 8 is_stmt 1               @ lvgl/src/lv_core/lv_style.c:209:8
	ldr	r0, [sp, #12]
	.loc	5 209 14 is_stmt 0              @ lvgl/src/lv_core/lv_style.c:209:14
	ldrb	r0, [r0, #4]
	lsrs	r0, r0, #6
.Ltmp170:
	.loc	5 209 8                         @ lvgl/src/lv_core/lv_style.c:209:8
	lsls	r0, r0, #31
	cbz	r0, .LBB12_16
	b	.LBB12_15
.LBB12_15:
.Ltmp171:
	.loc	5 209 36                        @ lvgl/src/lv_core/lv_style.c:209:36
	ldrb.w	r0, [sp, #2]
	adds	r0, #1
	strb.w	r0, [sp, #2]
	.loc	5 209 25                        @ lvgl/src/lv_core/lv_style.c:209:25
	b	.LBB12_16
.Ltmp172:
.LBB12_16:
	.loc	5 210 13 is_stmt 1              @ lvgl/src/lv_core/lv_style.c:210:13
	ldr	r0, [sp, #12]
	.loc	5 210 19 is_stmt 0              @ lvgl/src/lv_core/lv_style.c:210:19
	ldrb	r0, [r0, #4]
	and	r0, r0, #63
	.loc	5 210 11                        @ lvgl/src/lv_core/lv_style.c:210:11
	strb.w	r0, [sp, #3]
	.loc	5 210 9                         @ lvgl/src/lv_core/lv_style.c:210:9
	b	.LBB12_17
.LBB12_17:                              @ =>This Inner Loop Header: Depth=1
.Ltmp173:
	.loc	5 210 30                        @ lvgl/src/lv_core/lv_style.c:210:30
	ldrb.w	r0, [sp, #3]
	.loc	5 210 34                        @ lvgl/src/lv_core/lv_style.c:210:34
	ldrb.w	r1, [sp, #2]
.Ltmp174:
	.loc	5 210 5                         @ lvgl/src/lv_core/lv_style.c:210:5
	cmp	r0, r1
	ble	.LBB12_20
	b	.LBB12_18
.LBB12_18:                              @   in Loop: Header=BB12_17 Depth=1
.Ltmp175:
	.loc	5 211 25 is_stmt 1              @ lvgl/src/lv_core/lv_style.c:211:25
	ldr	r1, [sp, #4]
	.loc	5 211 36 is_stmt 0              @ lvgl/src/lv_core/lv_style.c:211:36
	ldrb.w	r2, [sp, #3]
	.loc	5 211 9                         @ lvgl/src/lv_core/lv_style.c:211:9
	add.w	r0, r1, r2, lsl #2
	.loc	5 211 25                        @ lvgl/src/lv_core/lv_style.c:211:25
	ldr	r0, [r0, #-4]
	.loc	5 211 23                        @ lvgl/src/lv_core/lv_style.c:211:23
	str.w	r0, [r1, r2, lsl #2]
	.loc	5 212 5 is_stmt 1               @ lvgl/src/lv_core/lv_style.c:212:5
	b	.LBB12_19
.Ltmp176:
.LBB12_19:                              @   in Loop: Header=BB12_17 Depth=1
	.loc	5 210 48                        @ lvgl/src/lv_core/lv_style.c:210:48
	ldrb.w	r0, [sp, #3]
	subs	r0, #1
	strb.w	r0, [sp, #3]
	.loc	5 210 5 is_stmt 0               @ lvgl/src/lv_core/lv_style.c:210:5
	b	.LBB12_17
.Ltmp177:
.LBB12_20:
	.loc	5 214 31 is_stmt 1              @ lvgl/src/lv_core/lv_style.c:214:31
	ldr	r0, [sp, #8]
	.loc	5 214 5 is_stmt 0               @ lvgl/src/lv_core/lv_style.c:214:5
	ldr	r1, [sp, #4]
	.loc	5 214 16                        @ lvgl/src/lv_core/lv_style.c:214:16
	ldrb.w	r2, [sp, #2]
	.loc	5 214 29                        @ lvgl/src/lv_core/lv_style.c:214:29
	str.w	r0, [r1, r2, lsl #2]
	.loc	5 215 5 is_stmt 1               @ lvgl/src/lv_core/lv_style.c:215:5
	ldr	r1, [sp, #12]
	.loc	5 215 20 is_stmt 0              @ lvgl/src/lv_core/lv_style.c:215:20
	ldrb	r0, [r1, #4]
	adds	r2, r0, #1
	and	r2, r2, #63
	and	r0, r0, #192
	add	r0, r2
	strb	r0, [r1, #4]
	.loc	5 216 24 is_stmt 1              @ lvgl/src/lv_core/lv_style.c:216:24
	ldr	r0, [sp, #4]
	.loc	5 216 5 is_stmt 0               @ lvgl/src/lv_core/lv_style.c:216:5
	ldr	r1, [sp, #12]
	.loc	5 216 22                        @ lvgl/src/lv_core/lv_style.c:216:22
	str	r0, [r1]
	.loc	5 217 1 is_stmt 1               @ lvgl/src/lv_core/lv_style.c:217:1
	b	.LBB12_21
.LBB12_21:
	add	sp, #16
	pop	{r7, pc}
.Ltmp178:
.Lfunc_end12:
	.size	_lv_style_list_add_style, .Lfunc_end12-_lv_style_list_add_style
	.cfi_endproc
	.cantunwind
	.fnend
                                        @ -- End function
	.section	.text._lv_style_list_remove_style,"ax",%progbits
	.hidden	_lv_style_list_remove_style     @ -- Begin function _lv_style_list_remove_style
	.globl	_lv_style_list_remove_style
	.p2align	3
	.type	_lv_style_list_remove_style,%function
	.code	16                              @ @_lv_style_list_remove_style
	.thumb_func
_lv_style_list_remove_style:
.Lfunc_begin13:
	.loc	5 225 0                         @ lvgl/src/lv_core/lv_style.c:225:0
	.fnstart
	.cfi_startproc
@ %bb.0:
	.save	{r7, lr}
	push	{r7, lr}
	.cfi_def_cfa_offset 8
	.cfi_offset lr, -4
	.cfi_offset r7, -8
	.pad	#24
	sub	sp, #24
	.cfi_def_cfa_offset 32
	str	r0, [sp, #20]
	str	r1, [sp, #16]
.Ltmp179:
	.loc	5 229 8 prologue_end            @ lvgl/src/lv_core/lv_style.c:229:8
	ldr	r0, [sp, #20]
	.loc	5 229 14 is_stmt 0              @ lvgl/src/lv_core/lv_style.c:229:14
	ldrb	r0, [r0, #4]
.Ltmp180:
	.loc	5 229 8                         @ lvgl/src/lv_core/lv_style.c:229:8
	lsls	r0, r0, #26
	cbnz	r0, .LBB13_2
	b	.LBB13_1
.LBB13_1:
.Ltmp181:
	.loc	5 229 30                        @ lvgl/src/lv_core/lv_style.c:229:30
	b	.LBB13_26
.Ltmp182:
.LBB13_2:
	.loc	5 0 30                          @ lvgl/src/lv_core/lv_style.c:0:30
	movs	r0, #0
	.loc	5 233 10 is_stmt 1              @ lvgl/src/lv_core/lv_style.c:233:10
	strb.w	r0, [sp, #14]
.Ltmp183:
	.loc	5 234 11                        @ lvgl/src/lv_core/lv_style.c:234:11
	strb.w	r0, [sp, #15]
	.loc	5 234 9 is_stmt 0               @ lvgl/src/lv_core/lv_style.c:234:9
	b	.LBB13_3
.LBB13_3:                               @ =>This Inner Loop Header: Depth=1
.Ltmp184:
	.loc	5 234 16                        @ lvgl/src/lv_core/lv_style.c:234:16
	ldrb.w	r0, [sp, #15]
	.loc	5 234 20                        @ lvgl/src/lv_core/lv_style.c:234:20
	ldr	r1, [sp, #20]
	.loc	5 234 26                        @ lvgl/src/lv_core/lv_style.c:234:26
	ldrb	r1, [r1, #4]
	and	r1, r1, #63
.Ltmp185:
	.loc	5 234 5                         @ lvgl/src/lv_core/lv_style.c:234:5
	cmp	r0, r1
	bge	.LBB13_8
	b	.LBB13_4
.LBB13_4:                               @   in Loop: Header=BB13_3 Depth=1
.Ltmp186:
	.loc	5 235 12 is_stmt 1              @ lvgl/src/lv_core/lv_style.c:235:12
	ldr	r0, [sp, #20]
	.loc	5 235 18 is_stmt 0              @ lvgl/src/lv_core/lv_style.c:235:18
	ldr	r0, [r0]
	.loc	5 235 29                        @ lvgl/src/lv_core/lv_style.c:235:29
	ldrb.w	r1, [sp, #15]
	.loc	5 235 12                        @ lvgl/src/lv_core/lv_style.c:235:12
	ldr.w	r0, [r0, r1, lsl #2]
	.loc	5 235 35                        @ lvgl/src/lv_core/lv_style.c:235:35
	ldr	r1, [sp, #16]
.Ltmp187:
	.loc	5 235 12                        @ lvgl/src/lv_core/lv_style.c:235:12
	cmp	r0, r1
	bne	.LBB13_6
	b	.LBB13_5
.LBB13_5:
	.loc	5 0 12                          @ lvgl/src/lv_core/lv_style.c:0:12
	movs	r0, #1
.Ltmp188:
	.loc	5 236 19 is_stmt 1              @ lvgl/src/lv_core/lv_style.c:236:19
	strb.w	r0, [sp, #14]
	.loc	5 237 13                        @ lvgl/src/lv_core/lv_style.c:237:13
	b	.LBB13_8
.Ltmp189:
.LBB13_6:                               @   in Loop: Header=BB13_3 Depth=1
	.loc	5 239 5                         @ lvgl/src/lv_core/lv_style.c:239:5
	b	.LBB13_7
.Ltmp190:
.LBB13_7:                               @   in Loop: Header=BB13_3 Depth=1
	.loc	5 234 38                        @ lvgl/src/lv_core/lv_style.c:234:38
	ldrb.w	r0, [sp, #15]
	adds	r0, #1
	strb.w	r0, [sp, #15]
	.loc	5 234 5 is_stmt 0               @ lvgl/src/lv_core/lv_style.c:234:5
	b	.LBB13_3
.Ltmp191:
.LBB13_8:
	.loc	5 240 8 is_stmt 1               @ lvgl/src/lv_core/lv_style.c:240:8
	ldrb.w	r0, [sp, #14]
.Ltmp192:
	.loc	5 240 8 is_stmt 0               @ lvgl/src/lv_core/lv_style.c:240:8
	lsls	r0, r0, #31
	cbnz	r0, .LBB13_10
	b	.LBB13_9
.LBB13_9:
.Ltmp193:
	.loc	5 240 24                        @ lvgl/src/lv_core/lv_style.c:240:24
	b	.LBB13_26
.Ltmp194:
.LBB13_10:
	.loc	5 242 8 is_stmt 1               @ lvgl/src/lv_core/lv_style.c:242:8
	ldr	r0, [sp, #20]
	.loc	5 242 14 is_stmt 0              @ lvgl/src/lv_core/lv_style.c:242:14
	ldrb	r0, [r0, #4]
	and	r0, r0, #63
.Ltmp195:
	.loc	5 242 8                         @ lvgl/src/lv_core/lv_style.c:242:8
	cmp	r0, #1
	bne	.LBB13_12
	b	.LBB13_11
.LBB13_11:
.Ltmp196:
	.loc	5 243 21 is_stmt 1              @ lvgl/src/lv_core/lv_style.c:243:21
	ldr	r0, [sp, #20]
	.loc	5 243 27 is_stmt 0              @ lvgl/src/lv_core/lv_style.c:243:27
	ldr	r0, [r0]
	.loc	5 243 9                         @ lvgl/src/lv_core/lv_style.c:243:9
	bl	lv_mem_free
	.loc	5 244 9 is_stmt 1               @ lvgl/src/lv_core/lv_style.c:244:9
	ldr	r1, [sp, #20]
	movs	r0, #0
	.loc	5 244 26 is_stmt 0              @ lvgl/src/lv_core/lv_style.c:244:26
	str	r0, [r1]
	.loc	5 245 9 is_stmt 1               @ lvgl/src/lv_core/lv_style.c:245:9
	ldr	r1, [sp, #20]
	.loc	5 245 25 is_stmt 0              @ lvgl/src/lv_core/lv_style.c:245:25
	ldrb	r0, [r1, #4]
	and	r0, r0, #192
	strb	r0, [r1, #4]
	.loc	5 246 9 is_stmt 1               @ lvgl/src/lv_core/lv_style.c:246:9
	ldr	r1, [sp, #20]
	.loc	5 246 25 is_stmt 0              @ lvgl/src/lv_core/lv_style.c:246:25
	ldrb	r0, [r1, #4]
	and	r0, r0, #191
	strb	r0, [r1, #4]
	.loc	5 247 9 is_stmt 1               @ lvgl/src/lv_core/lv_style.c:247:9
	b	.LBB13_26
.Ltmp197:
.LBB13_12:
	.loc	5 250 69                        @ lvgl/src/lv_core/lv_style.c:250:69
	ldr	r0, [sp, #20]
	.loc	5 250 75 is_stmt 0              @ lvgl/src/lv_core/lv_style.c:250:75
	ldrb	r0, [r0, #4]
	and	r1, r0, #63
	mvn	r0, #3
	.loc	5 250 66                        @ lvgl/src/lv_core/lv_style.c:250:66
	add.w	r0, r0, r1, lsl #2
	.loc	5 250 32                        @ lvgl/src/lv_core/lv_style.c:250:32
	bl	lv_mem_alloc
	.loc	5 250 19                        @ lvgl/src/lv_core/lv_style.c:250:19
	str	r0, [sp, #8]
	.loc	5 251 5 is_stmt 1               @ lvgl/src/lv_core/lv_style.c:251:5
	b	.LBB13_13
.LBB13_13:
.Ltmp198:
	.loc	5 251 5 is_stmt 0               @ lvgl/src/lv_core/lv_style.c:251:5
	ldr	r0, [sp, #8]
	bl	lv_debug_check_null
.Ltmp199:
	.loc	5 251 5                         @ lvgl/src/lv_core/lv_style.c:251:5
	cbnz	r0, .LBB13_16
	b	.LBB13_14
.LBB13_14:
.Ltmp200:
	.loc	5 251 5                         @ lvgl/src/lv_core/lv_style.c:251:5
	ldr	r2, [sp, #8]
	movw	r0, :lower16:.L.str
	movt	r0, :upper16:.L.str
	movs	r3, #0
	bl	lv_debug_log_error
	b	.LBB13_15
.LBB13_15:                              @ =>This Inner Loop Header: Depth=1
	b	.LBB13_15
.Ltmp201:
.LBB13_16:
	.loc	5 251 5                         @ lvgl/src/lv_core/lv_style.c:251:5
	b	.LBB13_17
.Ltmp202:
.LBB13_17:
	.loc	5 252 8 is_stmt 1               @ lvgl/src/lv_core/lv_style.c:252:8
	ldr	r0, [sp, #8]
.Ltmp203:
	.loc	5 252 8 is_stmt 0               @ lvgl/src/lv_core/lv_style.c:252:8
	cbnz	r0, .LBB13_19
	b	.LBB13_18
.LBB13_18:
.Ltmp204:
	.loc	5 254 9 is_stmt 1               @ lvgl/src/lv_core/lv_style.c:254:9
	b	.LBB13_26
.Ltmp205:
.LBB13_19:
	.loc	5 0 9 is_stmt 0                 @ lvgl/src/lv_core/lv_style.c:0:9
	movs	r0, #0
.Ltmp206:
	.loc	5 257 11 is_stmt 1              @ lvgl/src/lv_core/lv_style.c:257:11
	strb.w	r0, [sp, #15]
	.loc	5 257 18 is_stmt 0              @ lvgl/src/lv_core/lv_style.c:257:18
	strb.w	r0, [sp, #7]
	.loc	5 257 9                         @ lvgl/src/lv_core/lv_style.c:257:9
	b	.LBB13_20
.LBB13_20:                              @ =>This Inner Loop Header: Depth=1
.Ltmp207:
	.loc	5 257 23                        @ lvgl/src/lv_core/lv_style.c:257:23
	ldrb.w	r0, [sp, #15]
	.loc	5 257 27                        @ lvgl/src/lv_core/lv_style.c:257:27
	ldr	r1, [sp, #20]
	.loc	5 257 33                        @ lvgl/src/lv_core/lv_style.c:257:33
	ldrb	r1, [r1, #4]
	and	r1, r1, #63
.Ltmp208:
	.loc	5 257 5                         @ lvgl/src/lv_core/lv_style.c:257:5
	cmp	r0, r1
	bge	.LBB13_25
	b	.LBB13_21
.LBB13_21:                              @   in Loop: Header=BB13_20 Depth=1
.Ltmp209:
	.loc	5 258 12 is_stmt 1              @ lvgl/src/lv_core/lv_style.c:258:12
	ldr	r0, [sp, #20]
	.loc	5 258 18 is_stmt 0              @ lvgl/src/lv_core/lv_style.c:258:18
	ldr	r0, [r0]
	.loc	5 258 29                        @ lvgl/src/lv_core/lv_style.c:258:29
	ldrb.w	r1, [sp, #15]
	.loc	5 258 12                        @ lvgl/src/lv_core/lv_style.c:258:12
	ldr.w	r0, [r0, r1, lsl #2]
	.loc	5 258 35                        @ lvgl/src/lv_core/lv_style.c:258:35
	ldr	r1, [sp, #16]
.Ltmp210:
	.loc	5 258 12                        @ lvgl/src/lv_core/lv_style.c:258:12
	cmp	r0, r1
	bne	.LBB13_23
	b	.LBB13_22
.LBB13_22:                              @   in Loop: Header=BB13_20 Depth=1
.Ltmp211:
	.loc	5 258 42                        @ lvgl/src/lv_core/lv_style.c:258:42
	b	.LBB13_24
.Ltmp212:
.LBB13_23:                              @   in Loop: Header=BB13_20 Depth=1
	.loc	5 259 27 is_stmt 1              @ lvgl/src/lv_core/lv_style.c:259:27
	ldr	r0, [sp, #20]
	.loc	5 259 33 is_stmt 0              @ lvgl/src/lv_core/lv_style.c:259:33
	ldr	r0, [r0]
	.loc	5 259 44                        @ lvgl/src/lv_core/lv_style.c:259:44
	ldrb.w	r1, [sp, #15]
	.loc	5 259 27                        @ lvgl/src/lv_core/lv_style.c:259:27
	ldr.w	r0, [r0, r1, lsl #2]
	.loc	5 259 9                         @ lvgl/src/lv_core/lv_style.c:259:9
	ldr	r1, [sp, #8]
	.loc	5 259 21                        @ lvgl/src/lv_core/lv_style.c:259:21
	ldrb.w	r2, [sp, #7]
	adds	r3, r2, #1
	strb.w	r3, [sp, #7]
	.loc	5 259 25                        @ lvgl/src/lv_core/lv_style.c:259:25
	str.w	r0, [r1, r2, lsl #2]
	.loc	5 260 5 is_stmt 1               @ lvgl/src/lv_core/lv_style.c:260:5
	b	.LBB13_24
.Ltmp213:
.LBB13_24:                              @   in Loop: Header=BB13_20 Depth=1
	.loc	5 257 45                        @ lvgl/src/lv_core/lv_style.c:257:45
	ldrb.w	r0, [sp, #15]
	adds	r0, #1
	strb.w	r0, [sp, #15]
	.loc	5 257 5 is_stmt 0               @ lvgl/src/lv_core/lv_style.c:257:5
	b	.LBB13_20
.Ltmp214:
.LBB13_25:
	.loc	5 262 17 is_stmt 1              @ lvgl/src/lv_core/lv_style.c:262:17
	ldr	r0, [sp, #20]
	.loc	5 262 23 is_stmt 0              @ lvgl/src/lv_core/lv_style.c:262:23
	ldr	r0, [r0]
	.loc	5 262 5                         @ lvgl/src/lv_core/lv_style.c:262:5
	bl	lv_mem_free
	.loc	5 264 5 is_stmt 1               @ lvgl/src/lv_core/lv_style.c:264:5
	ldr	r1, [sp, #20]
	.loc	5 264 20 is_stmt 0              @ lvgl/src/lv_core/lv_style.c:264:20
	ldrb	r0, [r1, #4]
	subs	r2, r0, #1
	and	r2, r2, #63
	and	r0, r0, #192
	add	r0, r2
	strb	r0, [r1, #4]
	.loc	5 265 24 is_stmt 1              @ lvgl/src/lv_core/lv_style.c:265:24
	ldr	r0, [sp, #8]
	.loc	5 265 5 is_stmt 0               @ lvgl/src/lv_core/lv_style.c:265:5
	ldr	r1, [sp, #20]
	.loc	5 265 22                        @ lvgl/src/lv_core/lv_style.c:265:22
	str	r0, [r1]
	.loc	5 266 1 is_stmt 1               @ lvgl/src/lv_core/lv_style.c:266:1
	b	.LBB13_26
.LBB13_26:
	add	sp, #24
	pop	{r7, pc}
.Ltmp215:
.Lfunc_end13:
	.size	_lv_style_list_remove_style, .Lfunc_end13-_lv_style_list_remove_style
	.cfi_endproc
	.cantunwind
	.fnend
                                        @ -- End function
	.section	.text.lv_style_list_get_local_style,"ax",%progbits
	.hidden	lv_style_list_get_local_style   @ -- Begin function lv_style_list_get_local_style
	.globl	lv_style_list_get_local_style
	.p2align	3
	.type	lv_style_list_get_local_style,%function
	.code	16                              @ @lv_style_list_get_local_style
	.thumb_func
lv_style_list_get_local_style:
.Lfunc_begin14:
	.loc	5 623 0                         @ lvgl/src/lv_core/lv_style.c:623:0
	.fnstart
	.cfi_startproc
@ %bb.0:
	.pad	#8
	sub	sp, #8
	.cfi_def_cfa_offset 8
	str	r0, [sp]
.Ltmp216:
	.loc	5 626 9 prologue_end            @ lvgl/src/lv_core/lv_style.c:626:9
	ldr	r0, [sp]
	.loc	5 626 15 is_stmt 0              @ lvgl/src/lv_core/lv_style.c:626:15
	ldrb	r0, [r0, #4]
	lsrs	r0, r0, #6
.Ltmp217:
	.loc	5 626 8                         @ lvgl/src/lv_core/lv_style.c:626:8
	lsls	r0, r0, #31
	cbnz	r0, .LBB14_2
	b	.LBB14_1
.LBB14_1:
	.loc	5 0 8                           @ lvgl/src/lv_core/lv_style.c:0:8
	movs	r0, #0
.Ltmp218:
	.loc	5 626 26                        @ lvgl/src/lv_core/lv_style.c:626:26
	str	r0, [sp, #4]
	b	.LBB14_5
.Ltmp219:
.LBB14_2:
	.loc	5 627 8 is_stmt 1               @ lvgl/src/lv_core/lv_style.c:627:8
	ldr	r0, [sp]
	.loc	5 627 14 is_stmt 0              @ lvgl/src/lv_core/lv_style.c:627:14
	ldrb	r1, [r0, #4]
	movs	r0, #0
.Ltmp220:
	.loc	5 627 8                         @ lvgl/src/lv_core/lv_style.c:627:8
	cmp.w	r0, r1, lsr #7
	beq	.LBB14_4
	b	.LBB14_3
.LBB14_3:
.Ltmp221:
	.loc	5 627 32                        @ lvgl/src/lv_core/lv_style.c:627:32
	ldr	r0, [sp]
	.loc	5 627 38                        @ lvgl/src/lv_core/lv_style.c:627:38
	ldr	r0, [r0]
	.loc	5 627 32                        @ lvgl/src/lv_core/lv_style.c:627:32
	ldr	r0, [r0, #4]
	.loc	5 627 25                        @ lvgl/src/lv_core/lv_style.c:627:25
	str	r0, [sp, #4]
	b	.LBB14_5
.LBB14_4:
	.loc	5 628 17 is_stmt 1              @ lvgl/src/lv_core/lv_style.c:628:17
	ldr	r0, [sp]
	.loc	5 628 23 is_stmt 0              @ lvgl/src/lv_core/lv_style.c:628:23
	ldr	r0, [r0]
	.loc	5 628 17                        @ lvgl/src/lv_core/lv_style.c:628:17
	ldr	r0, [r0]
	.loc	5 628 10                        @ lvgl/src/lv_core/lv_style.c:628:10
	str	r0, [sp, #4]
	b	.LBB14_5
.Ltmp222:
.LBB14_5:
	.loc	5 629 1 is_stmt 1               @ lvgl/src/lv_core/lv_style.c:629:1
	ldr	r0, [sp, #4]
	add	sp, #8
	bx	lr
.Ltmp223:
.Lfunc_end14:
	.size	lv_style_list_get_local_style, .Lfunc_end14-lv_style_list_get_local_style
	.cfi_endproc
	.cantunwind
	.fnend
                                        @ -- End function
	.section	.text.lv_style_reset,"ax",%progbits
	.hidden	lv_style_reset                  @ -- Begin function lv_style_reset
	.globl	lv_style_reset
	.p2align	3
	.type	lv_style_reset,%function
	.code	16                              @ @lv_style_reset
	.thumb_func
lv_style_reset:
.Lfunc_begin15:
	.loc	5 311 0                         @ lvgl/src/lv_core/lv_style.c:311:0
	.fnstart
	.cfi_startproc
@ %bb.0:
	.save	{r7, lr}
	push	{r7, lr}
	.cfi_def_cfa_offset 8
	.cfi_offset lr, -4
	.cfi_offset r7, -8
	.pad	#8
	sub	sp, #8
	.cfi_def_cfa_offset 16
	str	r0, [sp, #4]
.Ltmp224:
	.loc	5 312 17 prologue_end           @ lvgl/src/lv_core/lv_style.c:312:17
	ldr	r0, [sp, #4]
	.loc	5 312 24 is_stmt 0              @ lvgl/src/lv_core/lv_style.c:312:24
	ldr	r0, [r0]
	.loc	5 312 5                         @ lvgl/src/lv_core/lv_style.c:312:5
	bl	lv_mem_free
	.loc	5 313 19 is_stmt 1              @ lvgl/src/lv_core/lv_style.c:313:19
	ldr	r0, [sp, #4]
	.loc	5 313 5 is_stmt 0               @ lvgl/src/lv_core/lv_style.c:313:5
	bl	lv_style_init
	.loc	5 314 1 is_stmt 1               @ lvgl/src/lv_core/lv_style.c:314:1
	add	sp, #8
	pop	{r7, pc}
.Ltmp225:
.Lfunc_end15:
	.size	lv_style_reset, .Lfunc_end15-lv_style_reset
	.cfi_endproc
	.cantunwind
	.fnend
                                        @ -- End function
	.section	.text._lv_style_list_get_transition_style,"ax",%progbits
	.hidden	_lv_style_list_get_transition_style @ -- Begin function _lv_style_list_get_transition_style
	.globl	_lv_style_list_get_transition_style
	.p2align	3
	.type	_lv_style_list_get_transition_style,%function
	.code	16                              @ @_lv_style_list_get_transition_style
	.thumb_func
_lv_style_list_get_transition_style:
.Lfunc_begin16:
	.loc	5 637 0                         @ lvgl/src/lv_core/lv_style.c:637:0
	.fnstart
	.cfi_startproc
@ %bb.0:
	.pad	#8
	sub	sp, #8
	.cfi_def_cfa_offset 8
	str	r0, [sp]
.Ltmp226:
	.loc	5 640 9 prologue_end            @ lvgl/src/lv_core/lv_style.c:640:9
	ldr	r0, [sp]
	.loc	5 640 15 is_stmt 0              @ lvgl/src/lv_core/lv_style.c:640:15
	ldrb	r1, [r0, #4]
	movs	r0, #0
.Ltmp227:
	.loc	5 640 8                         @ lvgl/src/lv_core/lv_style.c:640:8
	cmp.w	r0, r1, lsr #7
	bne	.LBB16_2
	b	.LBB16_1
.LBB16_1:
	.loc	5 0 8                           @ lvgl/src/lv_core/lv_style.c:0:8
	movs	r0, #0
.Ltmp228:
	.loc	5 640 26                        @ lvgl/src/lv_core/lv_style.c:640:26
	str	r0, [sp, #4]
	b	.LBB16_3
.Ltmp229:
.LBB16_2:
	.loc	5 641 12 is_stmt 1              @ lvgl/src/lv_core/lv_style.c:641:12
	ldr	r0, [sp]
	.loc	5 641 18 is_stmt 0              @ lvgl/src/lv_core/lv_style.c:641:18
	ldr	r0, [r0]
	.loc	5 641 12                        @ lvgl/src/lv_core/lv_style.c:641:12
	ldr	r0, [r0]
	.loc	5 641 5                         @ lvgl/src/lv_core/lv_style.c:641:5
	str	r0, [sp, #4]
	b	.LBB16_3
.LBB16_3:
	.loc	5 642 1 is_stmt 1               @ lvgl/src/lv_core/lv_style.c:642:1
	ldr	r0, [sp, #4]
	add	sp, #8
	bx	lr
.Ltmp230:
.Lfunc_end16:
	.size	_lv_style_list_get_transition_style, .Lfunc_end16-_lv_style_list_get_transition_style
	.cfi_endproc
	.cantunwind
	.fnend
                                        @ -- End function
	.section	.text.get_style_prop_id,"ax",%progbits
	.p2align	3                               @ -- Begin function get_style_prop_id
	.type	get_style_prop_id,%function
	.code	16                              @ @get_style_prop_id
	.thumb_func
get_style_prop_id:
.Lfunc_begin17:
	.loc	5 1094 0                        @ lvgl/src/lv_core/lv_style.c:1094:0
	.fnstart
	.cfi_startproc
@ %bb.0:
	.save	{r7, lr}
	push	{r7, lr}
	.cfi_def_cfa_offset 8
	.cfi_offset lr, -4
	.cfi_offset r7, -8
	.pad	#8
	sub	sp, #8
	.cfi_def_cfa_offset 16
	str	r0, [sp, #4]
	str	r1, [sp]
.Ltmp231:
	.loc	5 1095 27 prologue_end          @ lvgl/src/lv_core/lv_style.c:1095:27
	ldr	r0, [sp, #4]
	.loc	5 1095 34 is_stmt 0             @ lvgl/src/lv_core/lv_style.c:1095:34
	ldr	r1, [sp]
	.loc	5 1095 12                       @ lvgl/src/lv_core/lv_style.c:1095:12
	bl	get_style_prop
	.loc	5 1095 39                       @ lvgl/src/lv_core/lv_style.c:1095:39
	uxtb	r0, r0
	.loc	5 1095 5                        @ lvgl/src/lv_core/lv_style.c:1095:5
	add	sp, #8
	pop	{r7, pc}
.Ltmp232:
.Lfunc_end17:
	.size	get_style_prop_id, .Lfunc_end17-get_style_prop_id
	.cfi_endproc
	.cantunwind
	.fnend
                                        @ -- End function
	.section	.text.get_next_prop_index,"ax",%progbits
	.p2align	3                               @ -- Begin function get_next_prop_index
	.type	get_next_prop_index,%function
	.code	16                              @ @get_next_prop_index
	.thumb_func
get_next_prop_index:
.Lfunc_begin18:
	.loc	5 1132 0 is_stmt 1              @ lvgl/src/lv_core/lv_style.c:1132:0
	.fnstart
	.cfi_startproc
@ %bb.0:
	.save	{r7, lr}
	push	{r7, lr}
	.cfi_def_cfa_offset 8
	.cfi_offset lr, -4
	.cfi_offset r7, -8
	.pad	#16
	sub	sp, #16
	.cfi_def_cfa_offset 24
                                        @ kill: def $r2 killed $r0
	strb.w	r0, [sp, #15]
	str	r1, [sp, #8]
.Ltmp233:
	.loc	5 1133 12 prologue_end          @ lvgl/src/lv_core/lv_style.c:1133:12
	ldr	r0, [sp, #8]
	.loc	5 1133 32 is_stmt 0             @ lvgl/src/lv_core/lv_style.c:1133:32
	str	r0, [sp, #4]                    @ 4-byte Spill
	ldrb.w	r0, [sp, #15]
	.loc	5 1133 18                       @ lvgl/src/lv_core/lv_style.c:1133:18
	bl	get_prop_size
	mov	r1, r0
	.loc	5 1133 16                       @ lvgl/src/lv_core/lv_style.c:1133:16
	ldr	r0, [sp, #4]                    @ 4-byte Reload
	add	r0, r1
	.loc	5 1133 5                        @ lvgl/src/lv_core/lv_style.c:1133:5
	add	sp, #16
	pop	{r7, pc}
.Ltmp234:
.Lfunc_end18:
	.size	get_next_prop_index, .Lfunc_end18-get_next_prop_index
	.cfi_endproc
	.cantunwind
	.fnend
                                        @ -- End function
	.section	.text._lv_style_set_int,"ax",%progbits
	.hidden	_lv_style_set_int               @ -- Begin function _lv_style_set_int
	.globl	_lv_style_set_int
	.p2align	3
	.type	_lv_style_set_int,%function
	.code	16                              @ @_lv_style_set_int
	.thumb_func
_lv_style_set_int:
.Lfunc_begin19:
	.loc	5 347 0 is_stmt 1               @ lvgl/src/lv_core/lv_style.c:347:0
	.fnstart
	.cfi_startproc
@ %bb.0:
	.save	{r7, lr}
	push	{r7, lr}
	.cfi_def_cfa_offset 8
	.cfi_offset lr, -4
	.cfi_offset r7, -8
	.pad	#32
	sub	sp, #32
	.cfi_def_cfa_offset 40
                                        @ kill: def $r3 killed $r2
                                        @ kill: def $r3 killed $r1
	str	r0, [sp, #28]
	strh.w	r1, [sp, #26]
	strh.w	r2, [sp, #24]
.Ltmp235:
	.loc	5 348 37 prologue_end           @ lvgl/src/lv_core/lv_style.c:348:37
	ldr	r0, [sp, #28]
	.loc	5 348 44 is_stmt 0              @ lvgl/src/lv_core/lv_style.c:348:44
	ldrh.w	r1, [sp, #26]
	.loc	5 348 18                        @ lvgl/src/lv_core/lv_style.c:348:18
	bl	get_property_index
	.loc	5 348 13                        @ lvgl/src/lv_core/lv_style.c:348:13
	str	r0, [sp, #20]
.Ltmp236:
	.loc	5 350 8 is_stmt 1               @ lvgl/src/lv_core/lv_style.c:350:8
	ldr	r0, [sp, #20]
.Ltmp237:
	.loc	5 350 8 is_stmt 0               @ lvgl/src/lv_core/lv_style.c:350:8
	cmp	r0, #0
	bmi	.LBB19_4
	b	.LBB19_1
.LBB19_1:
.Ltmp238:
	.loc	5 354 42 is_stmt 1              @ lvgl/src/lv_core/lv_style.c:354:42
	ldr	r0, [sp, #28]
	.loc	5 354 49 is_stmt 0              @ lvgl/src/lv_core/lv_style.c:354:49
	ldr	r1, [sp, #20]
	.loc	5 354 22                        @ lvgl/src/lv_core/lv_style.c:354:22
	bl	get_style_prop_attr
	.loc	5 354 20                        @ lvgl/src/lv_core/lv_style.c:354:20
	strb.w	r0, [sp, #19]
	.loc	5 355 22 is_stmt 1              @ lvgl/src/lv_core/lv_style.c:355:22
	ldrb.w	r0, [sp, #27]
	.loc	5 355 19 is_stmt 0              @ lvgl/src/lv_core/lv_style.c:355:19
	strb.w	r0, [sp, #18]
.Ltmp239:
	.loc	5 357 12 is_stmt 1              @ lvgl/src/lv_core/lv_style.c:357:12
	ldrb.w	r0, [sp, #19]
	and	r0, r0, #127
	.loc	5 357 51 is_stmt 0              @ lvgl/src/lv_core/lv_style.c:357:51
	ldrb.w	r1, [sp, #18]
	and	r1, r1, #127
.Ltmp240:
	.loc	5 357 12                        @ lvgl/src/lv_core/lv_style.c:357:12
	cmp	r0, r1
	bne	.LBB19_3
	b	.LBB19_2
.LBB19_2:
.Ltmp241:
	.loc	5 358 30 is_stmt 1              @ lvgl/src/lv_core/lv_style.c:358:30
	ldr	r0, [sp, #28]
	.loc	5 358 37 is_stmt 0              @ lvgl/src/lv_core/lv_style.c:358:37
	ldr	r0, [r0]
	.loc	5 358 43                        @ lvgl/src/lv_core/lv_style.c:358:43
	ldr	r1, [sp, #20]
	.loc	5 358 41                        @ lvgl/src/lv_core/lv_style.c:358:41
	add	r0, r1
	.loc	5 358 46                        @ lvgl/src/lv_core/lv_style.c:358:46
	adds	r0, #2
	add	r1, sp, #24
	movs	r2, #2
	.loc	5 358 13                        @ lvgl/src/lv_core/lv_style.c:358:13
	bl	_lv_memcpy_small
	.loc	5 359 13 is_stmt 1              @ lvgl/src/lv_core/lv_style.c:359:13
	b	.LBB19_9
.Ltmp242:
.LBB19_3:
	.loc	5 361 5                         @ lvgl/src/lv_core/lv_style.c:361:5
	b	.LBB19_4
.Ltmp243:
.LBB19_4:
	.loc	5 0 5 is_stmt 0                 @ lvgl/src/lv_core/lv_style.c:0:5
	movs	r0, #4
	.loc	5 364 13 is_stmt 1              @ lvgl/src/lv_core/lv_style.c:364:13
	strb.w	r0, [sp, #17]
	movs	r0, #255
	.loc	5 365 25                        @ lvgl/src/lv_core/lv_style.c:365:25
	strh.w	r0, [sp, #14]
	movs	r0, #2
	.loc	5 366 13                        @ lvgl/src/lv_core/lv_style.c:366:13
	strb.w	r0, [sp, #13]
	.loc	5 368 44                        @ lvgl/src/lv_core/lv_style.c:368:44
	ldr	r0, [sp, #28]
	.loc	5 368 21 is_stmt 0              @ lvgl/src/lv_core/lv_style.c:368:21
	bl	_lv_style_get_mem_size
	.loc	5 368 14                        @ lvgl/src/lv_core/lv_style.c:368:14
	strh.w	r0, [sp, #10]
.Ltmp244:
	.loc	5 369 8 is_stmt 1               @ lvgl/src/lv_core/lv_style.c:369:8
	ldrh.w	r0, [sp, #10]
.Ltmp245:
	.loc	5 369 8 is_stmt 0               @ lvgl/src/lv_core/lv_style.c:369:8
	cbnz	r0, .LBB19_6
	b	.LBB19_5
.LBB19_5:
.Ltmp246:
	.loc	5 369 27                        @ lvgl/src/lv_core/lv_style.c:369:27
	ldrb.w	r1, [sp, #13]
	.loc	5 369 24                        @ lvgl/src/lv_core/lv_style.c:369:24
	ldrh.w	r0, [sp, #10]
	add	r0, r1
	strh.w	r0, [sp, #10]
	.loc	5 369 19                        @ lvgl/src/lv_core/lv_style.c:369:19
	b	.LBB19_6
.Ltmp247:
.LBB19_6:
	.loc	5 371 13 is_stmt 1              @ lvgl/src/lv_core/lv_style.c:371:13
	ldrb.w	r1, [sp, #17]
	.loc	5 371 10 is_stmt 0              @ lvgl/src/lv_core/lv_style.c:371:10
	ldrh.w	r0, [sp, #10]
	add	r0, r1
	strh.w	r0, [sp, #10]
.Ltmp248:
	.loc	5 372 22 is_stmt 1              @ lvgl/src/lv_core/lv_style.c:372:22
	ldr	r0, [sp, #28]
	.loc	5 372 29 is_stmt 0              @ lvgl/src/lv_core/lv_style.c:372:29
	ldrh.w	r1, [sp, #10]
	.loc	5 372 9                         @ lvgl/src/lv_core/lv_style.c:372:9
	bl	style_resize
.Ltmp249:
	.loc	5 372 8                         @ lvgl/src/lv_core/lv_style.c:372:8
	cbnz	r0, .LBB19_8
	b	.LBB19_7
.LBB19_7:
.Ltmp250:
	.loc	5 372 36                        @ lvgl/src/lv_core/lv_style.c:372:36
	b	.LBB19_9
.Ltmp251:
.LBB19_8:
	.loc	5 374 22 is_stmt 1              @ lvgl/src/lv_core/lv_style.c:374:22
	ldr	r0, [sp, #28]
	.loc	5 374 29 is_stmt 0              @ lvgl/src/lv_core/lv_style.c:374:29
	ldr	r0, [r0]
	.loc	5 374 35                        @ lvgl/src/lv_core/lv_style.c:374:35
	ldrh.w	r1, [sp, #10]
	.loc	5 374 33                        @ lvgl/src/lv_core/lv_style.c:374:33
	add	r0, r1
	.loc	5 374 42                        @ lvgl/src/lv_core/lv_style.c:374:42
	ldrb.w	r1, [sp, #17]
	.loc	5 374 40                        @ lvgl/src/lv_core/lv_style.c:374:40
	subs	r0, r0, r1
	.loc	5 374 58                        @ lvgl/src/lv_core/lv_style.c:374:58
	ldrb.w	r1, [sp, #13]
	.loc	5 374 56                        @ lvgl/src/lv_core/lv_style.c:374:56
	subs	r0, r0, r1
	add.w	r1, sp, #26
	movs	r2, #2
	.loc	5 374 5                         @ lvgl/src/lv_core/lv_style.c:374:5
	str	r2, [sp, #4]                    @ 4-byte Spill
	bl	_lv_memcpy_small
	ldr	r2, [sp, #4]                    @ 4-byte Reload
	.loc	5 375 22 is_stmt 1              @ lvgl/src/lv_core/lv_style.c:375:22
	ldr	r0, [sp, #28]
	.loc	5 375 29 is_stmt 0              @ lvgl/src/lv_core/lv_style.c:375:29
	ldr	r0, [r0]
	.loc	5 375 35                        @ lvgl/src/lv_core/lv_style.c:375:35
	ldrh.w	r1, [sp, #10]
	.loc	5 375 33                        @ lvgl/src/lv_core/lv_style.c:375:33
	add	r0, r1
	.loc	5 375 67                        @ lvgl/src/lv_core/lv_style.c:375:67
	ldrb.w	r1, [sp, #13]
	.loc	5 375 40                        @ lvgl/src/lv_core/lv_style.c:375:40
	subs	r0, r0, r1
	.loc	5 375 65                        @ lvgl/src/lv_core/lv_style.c:375:65
	subs	r0, #2
	add	r1, sp, #24
	.loc	5 375 5                         @ lvgl/src/lv_core/lv_style.c:375:5
	bl	_lv_memcpy_small
	ldr	r2, [sp, #4]                    @ 4-byte Reload
	.loc	5 376 22 is_stmt 1              @ lvgl/src/lv_core/lv_style.c:376:22
	ldr	r0, [sp, #28]
	.loc	5 376 29 is_stmt 0              @ lvgl/src/lv_core/lv_style.c:376:29
	ldr	r0, [r0]
	.loc	5 376 35                        @ lvgl/src/lv_core/lv_style.c:376:35
	ldrh.w	r1, [sp, #10]
	.loc	5 376 33                        @ lvgl/src/lv_core/lv_style.c:376:33
	add	r0, r1
	.loc	5 376 42                        @ lvgl/src/lv_core/lv_style.c:376:42
	ldrb.w	r1, [sp, #13]
	.loc	5 376 40                        @ lvgl/src/lv_core/lv_style.c:376:40
	subs	r0, r0, r1
	add.w	r1, sp, #14
	.loc	5 376 5                         @ lvgl/src/lv_core/lv_style.c:376:5
	bl	_lv_memcpy_small
	.loc	5 377 1 is_stmt 1               @ lvgl/src/lv_core/lv_style.c:377:1
	b	.LBB19_9
.LBB19_9:
	add	sp, #32
	pop	{r7, pc}
.Ltmp252:
.Lfunc_end19:
	.size	_lv_style_set_int, .Lfunc_end19-_lv_style_set_int
	.cfi_endproc
	.cantunwind
	.fnend
                                        @ -- End function
	.section	.text._lv_memcpy_small,"ax",%progbits
	.p2align	3                               @ -- Begin function _lv_memcpy_small
	.type	_lv_memcpy_small,%function
	.code	16                              @ @_lv_memcpy_small
	.thumb_func
_lv_memcpy_small:
.Lfunc_begin20:
	.file	6 "E:\\Smart-access-control\\Hardware\\CODE" "lvgl/src/lv_core/../lv_misc/lv_mem.h"
	.loc	6 214 0                         @ lvgl/src/lv_core/../lv_misc/lv_mem.h:214:0
	.fnstart
	.cfi_startproc
@ %bb.0:
	.pad	#20
	sub	sp, #20
	.cfi_def_cfa_offset 20
	str	r0, [sp, #16]
	str	r1, [sp, #12]
	str	r2, [sp, #8]
.Ltmp253:
	.loc	6 215 31 prologue_end           @ lvgl/src/lv_core/../lv_misc/lv_mem.h:215:31
	ldr	r0, [sp, #16]
	.loc	6 215 15 is_stmt 0              @ lvgl/src/lv_core/../lv_misc/lv_mem.h:215:15
	str	r0, [sp, #4]
	.loc	6 216 43 is_stmt 1              @ lvgl/src/lv_core/../lv_misc/lv_mem.h:216:43
	ldr	r0, [sp, #12]
	.loc	6 216 21 is_stmt 0              @ lvgl/src/lv_core/../lv_misc/lv_mem.h:216:21
	str	r0, [sp]
	.loc	6 218 5 is_stmt 1               @ lvgl/src/lv_core/../lv_misc/lv_mem.h:218:5
	b	.LBB20_1
.LBB20_1:                               @ =>This Inner Loop Header: Depth=1
	.loc	6 218 11 is_stmt 0              @ lvgl/src/lv_core/../lv_misc/lv_mem.h:218:11
	ldr	r0, [sp, #8]
	.loc	6 218 5                         @ lvgl/src/lv_core/../lv_misc/lv_mem.h:218:5
	cbz	r0, .LBB20_3
	b	.LBB20_2
.LBB20_2:                               @   in Loop: Header=BB20_1 Depth=1
.Ltmp254:
	.loc	6 219 16 is_stmt 1              @ lvgl/src/lv_core/../lv_misc/lv_mem.h:219:16
	ldr	r0, [sp]
	.loc	6 219 15 is_stmt 0              @ lvgl/src/lv_core/../lv_misc/lv_mem.h:219:15
	ldrb	r0, [r0]
	.loc	6 219 10                        @ lvgl/src/lv_core/../lv_misc/lv_mem.h:219:10
	ldr	r1, [sp, #4]
	.loc	6 219 13                        @ lvgl/src/lv_core/../lv_misc/lv_mem.h:219:13
	strb	r0, [r1]
	.loc	6 220 11 is_stmt 1              @ lvgl/src/lv_core/../lv_misc/lv_mem.h:220:11
	ldr	r0, [sp, #4]
	adds	r0, #1
	str	r0, [sp, #4]
	.loc	6 221 11                        @ lvgl/src/lv_core/../lv_misc/lv_mem.h:221:11
	ldr	r0, [sp]
	adds	r0, #1
	str	r0, [sp]
	.loc	6 222 12                        @ lvgl/src/lv_core/../lv_misc/lv_mem.h:222:12
	ldr	r0, [sp, #8]
	subs	r0, #1
	str	r0, [sp, #8]
.Ltmp255:
	.loc	6 218 5                         @ lvgl/src/lv_core/../lv_misc/lv_mem.h:218:5
	b	.LBB20_1
.LBB20_3:
	.loc	6 225 12                        @ lvgl/src/lv_core/../lv_misc/lv_mem.h:225:12
	ldr	r0, [sp, #16]
	.loc	6 225 5 is_stmt 0               @ lvgl/src/lv_core/../lv_misc/lv_mem.h:225:5
	add	sp, #20
	bx	lr
.Ltmp256:
.Lfunc_end20:
	.size	_lv_memcpy_small, .Lfunc_end20-_lv_memcpy_small
	.cfi_endproc
	.cantunwind
	.fnend
                                        @ -- End function
	.section	.text._lv_style_set_color,"ax",%progbits
	.hidden	_lv_style_set_color             @ -- Begin function _lv_style_set_color
	.globl	_lv_style_set_color
	.p2align	3
	.type	_lv_style_set_color,%function
	.code	16                              @ @_lv_style_set_color
	.thumb_func
_lv_style_set_color:
.Lfunc_begin21:
	.loc	5 390 0 is_stmt 1               @ lvgl/src/lv_core/lv_style.c:390:0
	.fnstart
	.cfi_startproc
@ %bb.0:
	.save	{r7, lr}
	push	{r7, lr}
	.cfi_def_cfa_offset 8
	.cfi_offset lr, -4
	.cfi_offset r7, -8
	.pad	#32
	sub	sp, #32
	.cfi_def_cfa_offset 40
                                        @ kill: def $r3 killed $r1
	str	r2, [sp, #28]
	str	r0, [sp, #24]
	strh.w	r1, [sp, #22]
.Ltmp257:
	.loc	5 391 37 prologue_end           @ lvgl/src/lv_core/lv_style.c:391:37
	ldr	r0, [sp, #24]
	.loc	5 391 44 is_stmt 0              @ lvgl/src/lv_core/lv_style.c:391:44
	ldrh.w	r1, [sp, #22]
	.loc	5 391 18                        @ lvgl/src/lv_core/lv_style.c:391:18
	bl	get_property_index
	.loc	5 391 13                        @ lvgl/src/lv_core/lv_style.c:391:13
	str	r0, [sp, #16]
.Ltmp258:
	.loc	5 393 8 is_stmt 1               @ lvgl/src/lv_core/lv_style.c:393:8
	ldr	r0, [sp, #16]
.Ltmp259:
	.loc	5 393 8 is_stmt 0               @ lvgl/src/lv_core/lv_style.c:393:8
	cmp	r0, #0
	bmi	.LBB21_4
	b	.LBB21_1
.LBB21_1:
.Ltmp260:
	.loc	5 397 42 is_stmt 1              @ lvgl/src/lv_core/lv_style.c:397:42
	ldr	r0, [sp, #24]
	.loc	5 397 49 is_stmt 0              @ lvgl/src/lv_core/lv_style.c:397:49
	ldr	r1, [sp, #16]
	.loc	5 397 22                        @ lvgl/src/lv_core/lv_style.c:397:22
	bl	get_style_prop_attr
	.loc	5 397 20                        @ lvgl/src/lv_core/lv_style.c:397:20
	strb.w	r0, [sp, #15]
	.loc	5 398 22 is_stmt 1              @ lvgl/src/lv_core/lv_style.c:398:22
	ldrb.w	r0, [sp, #23]
	.loc	5 398 19 is_stmt 0              @ lvgl/src/lv_core/lv_style.c:398:19
	strb.w	r0, [sp, #14]
.Ltmp261:
	.loc	5 400 12 is_stmt 1              @ lvgl/src/lv_core/lv_style.c:400:12
	ldrb.w	r0, [sp, #15]
	and	r0, r0, #127
	.loc	5 400 51 is_stmt 0              @ lvgl/src/lv_core/lv_style.c:400:51
	ldrb.w	r1, [sp, #14]
	and	r1, r1, #127
.Ltmp262:
	.loc	5 400 12                        @ lvgl/src/lv_core/lv_style.c:400:12
	cmp	r0, r1
	bne	.LBB21_3
	b	.LBB21_2
.LBB21_2:
.Ltmp263:
	.loc	5 401 30 is_stmt 1              @ lvgl/src/lv_core/lv_style.c:401:30
	ldr	r0, [sp, #24]
	.loc	5 401 37 is_stmt 0              @ lvgl/src/lv_core/lv_style.c:401:37
	ldr	r0, [r0]
	.loc	5 401 43                        @ lvgl/src/lv_core/lv_style.c:401:43
	ldr	r1, [sp, #16]
	.loc	5 401 41                        @ lvgl/src/lv_core/lv_style.c:401:41
	add	r0, r1
	.loc	5 401 46                        @ lvgl/src/lv_core/lv_style.c:401:46
	adds	r0, #2
	add	r1, sp, #28
	movs	r2, #4
	.loc	5 401 13                        @ lvgl/src/lv_core/lv_style.c:401:13
	bl	_lv_memcpy_small
	.loc	5 402 13 is_stmt 1              @ lvgl/src/lv_core/lv_style.c:402:13
	b	.LBB21_9
.Ltmp264:
.LBB21_3:
	.loc	5 404 5                         @ lvgl/src/lv_core/lv_style.c:404:5
	b	.LBB21_4
.Ltmp265:
.LBB21_4:
	.loc	5 0 5 is_stmt 0                 @ lvgl/src/lv_core/lv_style.c:0:5
	movs	r0, #6
	.loc	5 407 13 is_stmt 1              @ lvgl/src/lv_core/lv_style.c:407:13
	strb.w	r0, [sp, #13]
	movs	r0, #255
	.loc	5 408 25                        @ lvgl/src/lv_core/lv_style.c:408:25
	strh.w	r0, [sp, #10]
	movs	r0, #2
	.loc	5 409 13                        @ lvgl/src/lv_core/lv_style.c:409:13
	strb.w	r0, [sp, #9]
	.loc	5 411 44                        @ lvgl/src/lv_core/lv_style.c:411:44
	ldr	r0, [sp, #24]
	.loc	5 411 21 is_stmt 0              @ lvgl/src/lv_core/lv_style.c:411:21
	bl	_lv_style_get_mem_size
	.loc	5 411 14                        @ lvgl/src/lv_core/lv_style.c:411:14
	strh.w	r0, [sp, #6]
.Ltmp266:
	.loc	5 412 8 is_stmt 1               @ lvgl/src/lv_core/lv_style.c:412:8
	ldrh.w	r0, [sp, #6]
.Ltmp267:
	.loc	5 412 8 is_stmt 0               @ lvgl/src/lv_core/lv_style.c:412:8
	cbnz	r0, .LBB21_6
	b	.LBB21_5
.LBB21_5:
.Ltmp268:
	.loc	5 412 27                        @ lvgl/src/lv_core/lv_style.c:412:27
	ldrb.w	r1, [sp, #9]
	.loc	5 412 24                        @ lvgl/src/lv_core/lv_style.c:412:24
	ldrh.w	r0, [sp, #6]
	add	r0, r1
	strh.w	r0, [sp, #6]
	.loc	5 412 19                        @ lvgl/src/lv_core/lv_style.c:412:19
	b	.LBB21_6
.Ltmp269:
.LBB21_6:
	.loc	5 414 13 is_stmt 1              @ lvgl/src/lv_core/lv_style.c:414:13
	ldrb.w	r1, [sp, #13]
	.loc	5 414 10 is_stmt 0              @ lvgl/src/lv_core/lv_style.c:414:10
	ldrh.w	r0, [sp, #6]
	add	r0, r1
	strh.w	r0, [sp, #6]
.Ltmp270:
	.loc	5 415 22 is_stmt 1              @ lvgl/src/lv_core/lv_style.c:415:22
	ldr	r0, [sp, #24]
	.loc	5 415 29 is_stmt 0              @ lvgl/src/lv_core/lv_style.c:415:29
	ldrh.w	r1, [sp, #6]
	.loc	5 415 9                         @ lvgl/src/lv_core/lv_style.c:415:9
	bl	style_resize
.Ltmp271:
	.loc	5 415 8                         @ lvgl/src/lv_core/lv_style.c:415:8
	cbnz	r0, .LBB21_8
	b	.LBB21_7
.LBB21_7:
.Ltmp272:
	.loc	5 415 36                        @ lvgl/src/lv_core/lv_style.c:415:36
	b	.LBB21_9
.Ltmp273:
.LBB21_8:
	.loc	5 417 22 is_stmt 1              @ lvgl/src/lv_core/lv_style.c:417:22
	ldr	r0, [sp, #24]
	.loc	5 417 29 is_stmt 0              @ lvgl/src/lv_core/lv_style.c:417:29
	ldr	r0, [r0]
	.loc	5 417 35                        @ lvgl/src/lv_core/lv_style.c:417:35
	ldrh.w	r1, [sp, #6]
	.loc	5 417 33                        @ lvgl/src/lv_core/lv_style.c:417:33
	add	r0, r1
	.loc	5 417 42                        @ lvgl/src/lv_core/lv_style.c:417:42
	ldrb.w	r1, [sp, #13]
	.loc	5 417 40                        @ lvgl/src/lv_core/lv_style.c:417:40
	subs	r0, r0, r1
	.loc	5 417 58                        @ lvgl/src/lv_core/lv_style.c:417:58
	ldrb.w	r1, [sp, #9]
	.loc	5 417 56                        @ lvgl/src/lv_core/lv_style.c:417:56
	subs	r0, r0, r1
	add.w	r1, sp, #22
	movs	r2, #2
	.loc	5 417 5                         @ lvgl/src/lv_core/lv_style.c:417:5
	str	r2, [sp]                        @ 4-byte Spill
	bl	_lv_memcpy_small
	.loc	5 418 22 is_stmt 1              @ lvgl/src/lv_core/lv_style.c:418:22
	ldr	r0, [sp, #24]
	.loc	5 418 29 is_stmt 0              @ lvgl/src/lv_core/lv_style.c:418:29
	ldr	r0, [r0]
	.loc	5 418 35                        @ lvgl/src/lv_core/lv_style.c:418:35
	ldrh.w	r1, [sp, #6]
	.loc	5 418 33                        @ lvgl/src/lv_core/lv_style.c:418:33
	add	r0, r1
	.loc	5 418 63                        @ lvgl/src/lv_core/lv_style.c:418:63
	ldrb.w	r1, [sp, #9]
	.loc	5 418 40                        @ lvgl/src/lv_core/lv_style.c:418:40
	subs	r0, r0, r1
	.loc	5 418 61                        @ lvgl/src/lv_core/lv_style.c:418:61
	subs	r0, #4
	add	r1, sp, #28
	movs	r2, #4
	.loc	5 418 5                         @ lvgl/src/lv_core/lv_style.c:418:5
	bl	_lv_memcpy_small
	ldr	r2, [sp]                        @ 4-byte Reload
	.loc	5 419 22 is_stmt 1              @ lvgl/src/lv_core/lv_style.c:419:22
	ldr	r0, [sp, #24]
	.loc	5 419 29 is_stmt 0              @ lvgl/src/lv_core/lv_style.c:419:29
	ldr	r0, [r0]
	.loc	5 419 35                        @ lvgl/src/lv_core/lv_style.c:419:35
	ldrh.w	r1, [sp, #6]
	.loc	5 419 33                        @ lvgl/src/lv_core/lv_style.c:419:33
	add	r0, r1
	.loc	5 419 42                        @ lvgl/src/lv_core/lv_style.c:419:42
	ldrb.w	r1, [sp, #9]
	.loc	5 419 40                        @ lvgl/src/lv_core/lv_style.c:419:40
	subs	r0, r0, r1
	add.w	r1, sp, #10
	.loc	5 419 5                         @ lvgl/src/lv_core/lv_style.c:419:5
	bl	_lv_memcpy_small
	.loc	5 420 1 is_stmt 1               @ lvgl/src/lv_core/lv_style.c:420:1
	b	.LBB21_9
.LBB21_9:
	add	sp, #32
	pop	{r7, pc}
.Ltmp274:
.Lfunc_end21:
	.size	_lv_style_set_color, .Lfunc_end21-_lv_style_set_color
	.cfi_endproc
	.cantunwind
	.fnend
                                        @ -- End function
	.section	.text._lv_style_set_opa,"ax",%progbits
	.hidden	_lv_style_set_opa               @ -- Begin function _lv_style_set_opa
	.globl	_lv_style_set_opa
	.p2align	3
	.type	_lv_style_set_opa,%function
	.code	16                              @ @_lv_style_set_opa
	.thumb_func
_lv_style_set_opa:
.Lfunc_begin22:
	.loc	5 433 0                         @ lvgl/src/lv_core/lv_style.c:433:0
	.fnstart
	.cfi_startproc
@ %bb.0:
	.save	{r7, lr}
	push	{r7, lr}
	.cfi_def_cfa_offset 8
	.cfi_offset lr, -4
	.cfi_offset r7, -8
	.pad	#32
	sub	sp, #32
	.cfi_def_cfa_offset 40
                                        @ kill: def $r3 killed $r2
                                        @ kill: def $r3 killed $r1
	str	r0, [sp, #28]
	strh.w	r1, [sp, #26]
	strb.w	r2, [sp, #25]
.Ltmp275:
	.loc	5 434 37 prologue_end           @ lvgl/src/lv_core/lv_style.c:434:37
	ldr	r0, [sp, #28]
	.loc	5 434 44 is_stmt 0              @ lvgl/src/lv_core/lv_style.c:434:44
	ldrh.w	r1, [sp, #26]
	.loc	5 434 18                        @ lvgl/src/lv_core/lv_style.c:434:18
	bl	get_property_index
	.loc	5 434 13                        @ lvgl/src/lv_core/lv_style.c:434:13
	str	r0, [sp, #20]
.Ltmp276:
	.loc	5 436 8 is_stmt 1               @ lvgl/src/lv_core/lv_style.c:436:8
	ldr	r0, [sp, #20]
.Ltmp277:
	.loc	5 436 8 is_stmt 0               @ lvgl/src/lv_core/lv_style.c:436:8
	cmp	r0, #0
	bmi	.LBB22_4
	b	.LBB22_1
.LBB22_1:
.Ltmp278:
	.loc	5 440 42 is_stmt 1              @ lvgl/src/lv_core/lv_style.c:440:42
	ldr	r0, [sp, #28]
	.loc	5 440 49 is_stmt 0              @ lvgl/src/lv_core/lv_style.c:440:49
	ldr	r1, [sp, #20]
	.loc	5 440 22                        @ lvgl/src/lv_core/lv_style.c:440:22
	bl	get_style_prop_attr
	.loc	5 440 20                        @ lvgl/src/lv_core/lv_style.c:440:20
	strb.w	r0, [sp, #19]
	.loc	5 441 22 is_stmt 1              @ lvgl/src/lv_core/lv_style.c:441:22
	ldrb.w	r0, [sp, #27]
	.loc	5 441 19 is_stmt 0              @ lvgl/src/lv_core/lv_style.c:441:19
	strb.w	r0, [sp, #18]
.Ltmp279:
	.loc	5 443 12 is_stmt 1              @ lvgl/src/lv_core/lv_style.c:443:12
	ldrb.w	r0, [sp, #19]
	and	r0, r0, #127
	.loc	5 443 51 is_stmt 0              @ lvgl/src/lv_core/lv_style.c:443:51
	ldrb.w	r1, [sp, #18]
	and	r1, r1, #127
.Ltmp280:
	.loc	5 443 12                        @ lvgl/src/lv_core/lv_style.c:443:12
	cmp	r0, r1
	bne	.LBB22_3
	b	.LBB22_2
.LBB22_2:
.Ltmp281:
	.loc	5 444 30 is_stmt 1              @ lvgl/src/lv_core/lv_style.c:444:30
	ldr	r0, [sp, #28]
	.loc	5 444 37 is_stmt 0              @ lvgl/src/lv_core/lv_style.c:444:37
	ldr	r0, [r0]
	.loc	5 444 43                        @ lvgl/src/lv_core/lv_style.c:444:43
	ldr	r1, [sp, #20]
	.loc	5 444 41                        @ lvgl/src/lv_core/lv_style.c:444:41
	add	r0, r1
	.loc	5 444 46                        @ lvgl/src/lv_core/lv_style.c:444:46
	adds	r0, #2
	add.w	r1, sp, #25
	movs	r2, #1
	.loc	5 444 13                        @ lvgl/src/lv_core/lv_style.c:444:13
	bl	_lv_memcpy_small
	.loc	5 445 13 is_stmt 1              @ lvgl/src/lv_core/lv_style.c:445:13
	b	.LBB22_9
.Ltmp282:
.LBB22_3:
	.loc	5 447 5                         @ lvgl/src/lv_core/lv_style.c:447:5
	b	.LBB22_4
.Ltmp283:
.LBB22_4:
	.loc	5 0 5 is_stmt 0                 @ lvgl/src/lv_core/lv_style.c:0:5
	movs	r0, #3
	.loc	5 450 13 is_stmt 1              @ lvgl/src/lv_core/lv_style.c:450:13
	strb.w	r0, [sp, #17]
	movs	r0, #255
	.loc	5 451 25                        @ lvgl/src/lv_core/lv_style.c:451:25
	strh.w	r0, [sp, #14]
	movs	r0, #2
	.loc	5 452 13                        @ lvgl/src/lv_core/lv_style.c:452:13
	strb.w	r0, [sp, #13]
	.loc	5 454 44                        @ lvgl/src/lv_core/lv_style.c:454:44
	ldr	r0, [sp, #28]
	.loc	5 454 21 is_stmt 0              @ lvgl/src/lv_core/lv_style.c:454:21
	bl	_lv_style_get_mem_size
	.loc	5 454 14                        @ lvgl/src/lv_core/lv_style.c:454:14
	strh.w	r0, [sp, #10]
.Ltmp284:
	.loc	5 455 8 is_stmt 1               @ lvgl/src/lv_core/lv_style.c:455:8
	ldrh.w	r0, [sp, #10]
.Ltmp285:
	.loc	5 455 8 is_stmt 0               @ lvgl/src/lv_core/lv_style.c:455:8
	cbnz	r0, .LBB22_6
	b	.LBB22_5
.LBB22_5:
.Ltmp286:
	.loc	5 455 27                        @ lvgl/src/lv_core/lv_style.c:455:27
	ldrb.w	r1, [sp, #13]
	.loc	5 455 24                        @ lvgl/src/lv_core/lv_style.c:455:24
	ldrh.w	r0, [sp, #10]
	add	r0, r1
	strh.w	r0, [sp, #10]
	.loc	5 455 19                        @ lvgl/src/lv_core/lv_style.c:455:19
	b	.LBB22_6
.Ltmp287:
.LBB22_6:
	.loc	5 457 13 is_stmt 1              @ lvgl/src/lv_core/lv_style.c:457:13
	ldrb.w	r1, [sp, #17]
	.loc	5 457 10 is_stmt 0              @ lvgl/src/lv_core/lv_style.c:457:10
	ldrh.w	r0, [sp, #10]
	add	r0, r1
	strh.w	r0, [sp, #10]
.Ltmp288:
	.loc	5 458 22 is_stmt 1              @ lvgl/src/lv_core/lv_style.c:458:22
	ldr	r0, [sp, #28]
	.loc	5 458 29 is_stmt 0              @ lvgl/src/lv_core/lv_style.c:458:29
	ldrh.w	r1, [sp, #10]
	.loc	5 458 9                         @ lvgl/src/lv_core/lv_style.c:458:9
	bl	style_resize
.Ltmp289:
	.loc	5 458 8                         @ lvgl/src/lv_core/lv_style.c:458:8
	cbnz	r0, .LBB22_8
	b	.LBB22_7
.LBB22_7:
.Ltmp290:
	.loc	5 458 36                        @ lvgl/src/lv_core/lv_style.c:458:36
	b	.LBB22_9
.Ltmp291:
.LBB22_8:
	.loc	5 460 22 is_stmt 1              @ lvgl/src/lv_core/lv_style.c:460:22
	ldr	r0, [sp, #28]
	.loc	5 460 29 is_stmt 0              @ lvgl/src/lv_core/lv_style.c:460:29
	ldr	r0, [r0]
	.loc	5 460 35                        @ lvgl/src/lv_core/lv_style.c:460:35
	ldrh.w	r1, [sp, #10]
	.loc	5 460 33                        @ lvgl/src/lv_core/lv_style.c:460:33
	add	r0, r1
	.loc	5 460 42                        @ lvgl/src/lv_core/lv_style.c:460:42
	ldrb.w	r1, [sp, #17]
	.loc	5 460 40                        @ lvgl/src/lv_core/lv_style.c:460:40
	subs	r0, r0, r1
	.loc	5 460 58                        @ lvgl/src/lv_core/lv_style.c:460:58
	ldrb.w	r1, [sp, #13]
	.loc	5 460 56                        @ lvgl/src/lv_core/lv_style.c:460:56
	subs	r0, r0, r1
	add.w	r1, sp, #26
	movs	r2, #2
	.loc	5 460 5                         @ lvgl/src/lv_core/lv_style.c:460:5
	str	r2, [sp, #4]                    @ 4-byte Spill
	bl	_lv_memcpy_small
	.loc	5 461 22 is_stmt 1              @ lvgl/src/lv_core/lv_style.c:461:22
	ldr	r0, [sp, #28]
	.loc	5 461 29 is_stmt 0              @ lvgl/src/lv_core/lv_style.c:461:29
	ldr	r0, [r0]
	.loc	5 461 35                        @ lvgl/src/lv_core/lv_style.c:461:35
	ldrh.w	r1, [sp, #10]
	.loc	5 461 33                        @ lvgl/src/lv_core/lv_style.c:461:33
	add	r1, r0
	.loc	5 461 61                        @ lvgl/src/lv_core/lv_style.c:461:61
	ldrb.w	r0, [sp, #13]
	.loc	5 461 59                        @ lvgl/src/lv_core/lv_style.c:461:59
	mvns	r0, r0
	add	r0, r1
	add.w	r1, sp, #25
	movs	r2, #1
	.loc	5 461 5                         @ lvgl/src/lv_core/lv_style.c:461:5
	bl	_lv_memcpy_small
	ldr	r2, [sp, #4]                    @ 4-byte Reload
	.loc	5 462 22 is_stmt 1              @ lvgl/src/lv_core/lv_style.c:462:22
	ldr	r0, [sp, #28]
	.loc	5 462 29 is_stmt 0              @ lvgl/src/lv_core/lv_style.c:462:29
	ldr	r0, [r0]
	.loc	5 462 35                        @ lvgl/src/lv_core/lv_style.c:462:35
	ldrh.w	r1, [sp, #10]
	.loc	5 462 33                        @ lvgl/src/lv_core/lv_style.c:462:33
	add	r0, r1
	.loc	5 462 42                        @ lvgl/src/lv_core/lv_style.c:462:42
	ldrb.w	r1, [sp, #13]
	.loc	5 462 40                        @ lvgl/src/lv_core/lv_style.c:462:40
	subs	r0, r0, r1
	add.w	r1, sp, #14
	.loc	5 462 5                         @ lvgl/src/lv_core/lv_style.c:462:5
	bl	_lv_memcpy_small
	.loc	5 463 1 is_stmt 1               @ lvgl/src/lv_core/lv_style.c:463:1
	b	.LBB22_9
.LBB22_9:
	add	sp, #32
	pop	{r7, pc}
.Ltmp292:
.Lfunc_end22:
	.size	_lv_style_set_opa, .Lfunc_end22-_lv_style_set_opa
	.cfi_endproc
	.cantunwind
	.fnend
                                        @ -- End function
	.section	.text._lv_style_set_ptr,"ax",%progbits
	.hidden	_lv_style_set_ptr               @ -- Begin function _lv_style_set_ptr
	.globl	_lv_style_set_ptr
	.p2align	3
	.type	_lv_style_set_ptr,%function
	.code	16                              @ @_lv_style_set_ptr
	.thumb_func
_lv_style_set_ptr:
.Lfunc_begin23:
	.loc	5 476 0                         @ lvgl/src/lv_core/lv_style.c:476:0
	.fnstart
	.cfi_startproc
@ %bb.0:
	.save	{r7, lr}
	push	{r7, lr}
	.cfi_def_cfa_offset 8
	.cfi_offset lr, -4
	.cfi_offset r7, -8
	.pad	#32
	sub	sp, #32
	.cfi_def_cfa_offset 40
                                        @ kill: def $r3 killed $r1
	str	r0, [sp, #28]
	strh.w	r1, [sp, #26]
	str	r2, [sp, #20]
.Ltmp293:
	.loc	5 477 37 prologue_end           @ lvgl/src/lv_core/lv_style.c:477:37
	ldr	r0, [sp, #28]
	.loc	5 477 44 is_stmt 0              @ lvgl/src/lv_core/lv_style.c:477:44
	ldrh.w	r1, [sp, #26]
	.loc	5 477 18                        @ lvgl/src/lv_core/lv_style.c:477:18
	bl	get_property_index
	.loc	5 477 13                        @ lvgl/src/lv_core/lv_style.c:477:13
	str	r0, [sp, #16]
.Ltmp294:
	.loc	5 479 8 is_stmt 1               @ lvgl/src/lv_core/lv_style.c:479:8
	ldr	r0, [sp, #16]
.Ltmp295:
	.loc	5 479 8 is_stmt 0               @ lvgl/src/lv_core/lv_style.c:479:8
	cmp	r0, #0
	bmi	.LBB23_4
	b	.LBB23_1
.LBB23_1:
.Ltmp296:
	.loc	5 483 42 is_stmt 1              @ lvgl/src/lv_core/lv_style.c:483:42
	ldr	r0, [sp, #28]
	.loc	5 483 49 is_stmt 0              @ lvgl/src/lv_core/lv_style.c:483:49
	ldr	r1, [sp, #16]
	.loc	5 483 22                        @ lvgl/src/lv_core/lv_style.c:483:22
	bl	get_style_prop_attr
	.loc	5 483 20                        @ lvgl/src/lv_core/lv_style.c:483:20
	strb.w	r0, [sp, #15]
	.loc	5 484 22 is_stmt 1              @ lvgl/src/lv_core/lv_style.c:484:22
	ldrb.w	r0, [sp, #27]
	.loc	5 484 19 is_stmt 0              @ lvgl/src/lv_core/lv_style.c:484:19
	strb.w	r0, [sp, #14]
.Ltmp297:
	.loc	5 486 12 is_stmt 1              @ lvgl/src/lv_core/lv_style.c:486:12
	ldrb.w	r0, [sp, #15]
	and	r0, r0, #127
	.loc	5 486 51 is_stmt 0              @ lvgl/src/lv_core/lv_style.c:486:51
	ldrb.w	r1, [sp, #14]
	and	r1, r1, #127
.Ltmp298:
	.loc	5 486 12                        @ lvgl/src/lv_core/lv_style.c:486:12
	cmp	r0, r1
	bne	.LBB23_3
	b	.LBB23_2
.LBB23_2:
.Ltmp299:
	.loc	5 487 30 is_stmt 1              @ lvgl/src/lv_core/lv_style.c:487:30
	ldr	r0, [sp, #28]
	.loc	5 487 37 is_stmt 0              @ lvgl/src/lv_core/lv_style.c:487:37
	ldr	r0, [r0]
	.loc	5 487 43                        @ lvgl/src/lv_core/lv_style.c:487:43
	ldr	r1, [sp, #16]
	.loc	5 487 41                        @ lvgl/src/lv_core/lv_style.c:487:41
	add	r0, r1
	.loc	5 487 46                        @ lvgl/src/lv_core/lv_style.c:487:46
	adds	r0, #2
	add	r1, sp, #20
	movs	r2, #4
	.loc	5 487 13                        @ lvgl/src/lv_core/lv_style.c:487:13
	bl	_lv_memcpy_small
	.loc	5 488 13 is_stmt 1              @ lvgl/src/lv_core/lv_style.c:488:13
	b	.LBB23_9
.Ltmp300:
.LBB23_3:
	.loc	5 490 5                         @ lvgl/src/lv_core/lv_style.c:490:5
	b	.LBB23_4
.Ltmp301:
.LBB23_4:
	.loc	5 0 5 is_stmt 0                 @ lvgl/src/lv_core/lv_style.c:0:5
	movs	r0, #6
	.loc	5 493 13 is_stmt 1              @ lvgl/src/lv_core/lv_style.c:493:13
	strb.w	r0, [sp, #13]
	movs	r0, #255
	.loc	5 494 25                        @ lvgl/src/lv_core/lv_style.c:494:25
	strh.w	r0, [sp, #10]
	movs	r0, #2
	.loc	5 495 13                        @ lvgl/src/lv_core/lv_style.c:495:13
	strb.w	r0, [sp, #9]
	.loc	5 497 44                        @ lvgl/src/lv_core/lv_style.c:497:44
	ldr	r0, [sp, #28]
	.loc	5 497 21 is_stmt 0              @ lvgl/src/lv_core/lv_style.c:497:21
	bl	_lv_style_get_mem_size
	.loc	5 497 14                        @ lvgl/src/lv_core/lv_style.c:497:14
	strh.w	r0, [sp, #6]
.Ltmp302:
	.loc	5 498 8 is_stmt 1               @ lvgl/src/lv_core/lv_style.c:498:8
	ldrh.w	r0, [sp, #6]
.Ltmp303:
	.loc	5 498 8 is_stmt 0               @ lvgl/src/lv_core/lv_style.c:498:8
	cbnz	r0, .LBB23_6
	b	.LBB23_5
.LBB23_5:
.Ltmp304:
	.loc	5 498 27                        @ lvgl/src/lv_core/lv_style.c:498:27
	ldrb.w	r1, [sp, #9]
	.loc	5 498 24                        @ lvgl/src/lv_core/lv_style.c:498:24
	ldrh.w	r0, [sp, #6]
	add	r0, r1
	strh.w	r0, [sp, #6]
	.loc	5 498 19                        @ lvgl/src/lv_core/lv_style.c:498:19
	b	.LBB23_6
.Ltmp305:
.LBB23_6:
	.loc	5 500 13 is_stmt 1              @ lvgl/src/lv_core/lv_style.c:500:13
	ldrb.w	r1, [sp, #13]
	.loc	5 500 10 is_stmt 0              @ lvgl/src/lv_core/lv_style.c:500:10
	ldrh.w	r0, [sp, #6]
	add	r0, r1
	strh.w	r0, [sp, #6]
.Ltmp306:
	.loc	5 501 22 is_stmt 1              @ lvgl/src/lv_core/lv_style.c:501:22
	ldr	r0, [sp, #28]
	.loc	5 501 29 is_stmt 0              @ lvgl/src/lv_core/lv_style.c:501:29
	ldrh.w	r1, [sp, #6]
	.loc	5 501 9                         @ lvgl/src/lv_core/lv_style.c:501:9
	bl	style_resize
.Ltmp307:
	.loc	5 501 8                         @ lvgl/src/lv_core/lv_style.c:501:8
	cbnz	r0, .LBB23_8
	b	.LBB23_7
.LBB23_7:
.Ltmp308:
	.loc	5 501 36                        @ lvgl/src/lv_core/lv_style.c:501:36
	b	.LBB23_9
.Ltmp309:
.LBB23_8:
	.loc	5 503 22 is_stmt 1              @ lvgl/src/lv_core/lv_style.c:503:22
	ldr	r0, [sp, #28]
	.loc	5 503 29 is_stmt 0              @ lvgl/src/lv_core/lv_style.c:503:29
	ldr	r0, [r0]
	.loc	5 503 35                        @ lvgl/src/lv_core/lv_style.c:503:35
	ldrh.w	r1, [sp, #6]
	.loc	5 503 33                        @ lvgl/src/lv_core/lv_style.c:503:33
	add	r0, r1
	.loc	5 503 42                        @ lvgl/src/lv_core/lv_style.c:503:42
	ldrb.w	r1, [sp, #13]
	.loc	5 503 40                        @ lvgl/src/lv_core/lv_style.c:503:40
	subs	r0, r0, r1
	.loc	5 503 58                        @ lvgl/src/lv_core/lv_style.c:503:58
	ldrb.w	r1, [sp, #9]
	.loc	5 503 56                        @ lvgl/src/lv_core/lv_style.c:503:56
	subs	r0, r0, r1
	add.w	r1, sp, #26
	movs	r2, #2
	.loc	5 503 5                         @ lvgl/src/lv_core/lv_style.c:503:5
	str	r2, [sp]                        @ 4-byte Spill
	bl	_lv_memcpy_small
	.loc	5 504 22 is_stmt 1              @ lvgl/src/lv_core/lv_style.c:504:22
	ldr	r0, [sp, #28]
	.loc	5 504 29 is_stmt 0              @ lvgl/src/lv_core/lv_style.c:504:29
	ldr	r0, [r0]
	.loc	5 504 35                        @ lvgl/src/lv_core/lv_style.c:504:35
	ldrh.w	r1, [sp, #6]
	.loc	5 504 33                        @ lvgl/src/lv_core/lv_style.c:504:33
	add	r0, r1
	.loc	5 504 65                        @ lvgl/src/lv_core/lv_style.c:504:65
	ldrb.w	r1, [sp, #9]
	.loc	5 504 40                        @ lvgl/src/lv_core/lv_style.c:504:40
	subs	r0, r0, r1
	.loc	5 504 63                        @ lvgl/src/lv_core/lv_style.c:504:63
	subs	r0, #4
	add	r1, sp, #20
	movs	r2, #4
	.loc	5 504 5                         @ lvgl/src/lv_core/lv_style.c:504:5
	bl	_lv_memcpy_small
	ldr	r2, [sp]                        @ 4-byte Reload
	.loc	5 505 22 is_stmt 1              @ lvgl/src/lv_core/lv_style.c:505:22
	ldr	r0, [sp, #28]
	.loc	5 505 29 is_stmt 0              @ lvgl/src/lv_core/lv_style.c:505:29
	ldr	r0, [r0]
	.loc	5 505 35                        @ lvgl/src/lv_core/lv_style.c:505:35
	ldrh.w	r1, [sp, #6]
	.loc	5 505 33                        @ lvgl/src/lv_core/lv_style.c:505:33
	add	r0, r1
	.loc	5 505 42                        @ lvgl/src/lv_core/lv_style.c:505:42
	ldrb.w	r1, [sp, #9]
	.loc	5 505 40                        @ lvgl/src/lv_core/lv_style.c:505:40
	subs	r0, r0, r1
	add.w	r1, sp, #10
	.loc	5 505 5                         @ lvgl/src/lv_core/lv_style.c:505:5
	bl	_lv_memcpy_small
	.loc	5 506 1 is_stmt 1               @ lvgl/src/lv_core/lv_style.c:506:1
	b	.LBB23_9
.LBB23_9:
	add	sp, #32
	pop	{r7, pc}
.Ltmp310:
.Lfunc_end23:
	.size	_lv_style_set_ptr, .Lfunc_end23-_lv_style_set_ptr
	.cfi_endproc
	.cantunwind
	.fnend
                                        @ -- End function
	.section	.text._lv_style_get_int,"ax",%progbits
	.hidden	_lv_style_get_int               @ -- Begin function _lv_style_get_int
	.globl	_lv_style_get_int
	.p2align	3
	.type	_lv_style_get_int,%function
	.code	16                              @ @_lv_style_get_int
	.thumb_func
_lv_style_get_int:
.Lfunc_begin24:
	.loc	5 519 0                         @ lvgl/src/lv_core/lv_style.c:519:0
	.fnstart
	.cfi_startproc
@ %bb.0:
	.save	{r7, lr}
	push	{r7, lr}
	.cfi_def_cfa_offset 8
	.cfi_offset lr, -4
	.cfi_offset r7, -8
	.pad	#24
	sub	sp, #24
	.cfi_def_cfa_offset 32
                                        @ kill: def $r3 killed $r1
	str	r0, [sp, #16]
	strh.w	r1, [sp, #14]
	str	r2, [sp, #8]
.Ltmp311:
	.loc	5 520 37 prologue_end           @ lvgl/src/lv_core/lv_style.c:520:37
	ldr	r0, [sp, #16]
	.loc	5 520 44 is_stmt 0              @ lvgl/src/lv_core/lv_style.c:520:44
	ldrh.w	r1, [sp, #14]
	.loc	5 520 18                        @ lvgl/src/lv_core/lv_style.c:520:18
	bl	get_property_index
	.loc	5 520 13                        @ lvgl/src/lv_core/lv_style.c:520:13
	str	r0, [sp, #4]
.Ltmp312:
	.loc	5 521 8 is_stmt 1               @ lvgl/src/lv_core/lv_style.c:521:8
	ldr	r0, [sp, #4]
.Ltmp313:
	.loc	5 521 8 is_stmt 0               @ lvgl/src/lv_core/lv_style.c:521:8
	cmp.w	r0, #-1
	bgt	.LBB24_2
	b	.LBB24_1
.LBB24_1:
	.loc	5 0 8                           @ lvgl/src/lv_core/lv_style.c:0:8
	movw	r0, #65535
.Ltmp314:
	.loc	5 522 9 is_stmt 1               @ lvgl/src/lv_core/lv_style.c:522:9
	strh.w	r0, [sp, #22]
	b	.LBB24_3
.Ltmp315:
.LBB24_2:
	.loc	5 525 26                        @ lvgl/src/lv_core/lv_style.c:525:26
	ldr	r0, [sp, #8]
	.loc	5 525 32 is_stmt 0              @ lvgl/src/lv_core/lv_style.c:525:32
	ldr	r1, [sp, #16]
	.loc	5 525 39                        @ lvgl/src/lv_core/lv_style.c:525:39
	ldr	r2, [r1]
	.loc	5 525 43                        @ lvgl/src/lv_core/lv_style.c:525:43
	ldr	r1, [sp, #4]
	.loc	5 525 46                        @ lvgl/src/lv_core/lv_style.c:525:46
	add	r1, r2
	.loc	5 525 32                        @ lvgl/src/lv_core/lv_style.c:525:32
	adds	r1, #2
	movs	r2, #2
	.loc	5 525 9                         @ lvgl/src/lv_core/lv_style.c:525:9
	bl	_lv_memcpy_small
	.loc	5 527 40 is_stmt 1              @ lvgl/src/lv_core/lv_style.c:527:40
	ldr	r0, [sp, #16]
	.loc	5 527 47 is_stmt 0              @ lvgl/src/lv_core/lv_style.c:527:47
	ldr	r1, [sp, #4]
	.loc	5 527 20                        @ lvgl/src/lv_core/lv_style.c:527:20
	bl	get_style_prop_attr
	.loc	5 527 18                        @ lvgl/src/lv_core/lv_style.c:527:18
	strb.w	r0, [sp, #3]
	.loc	5 529 16 is_stmt 1              @ lvgl/src/lv_core/lv_style.c:529:16
	ldrb.w	r0, [sp, #3]
	and	r0, r0, #127
	.loc	5 529 9 is_stmt 0               @ lvgl/src/lv_core/lv_style.c:529:9
	strh.w	r0, [sp, #22]
	b	.LBB24_3
.Ltmp316:
.LBB24_3:
	.loc	5 531 1 is_stmt 1               @ lvgl/src/lv_core/lv_style.c:531:1
	ldrsh.w	r0, [sp, #22]
	add	sp, #24
	pop	{r7, pc}
.Ltmp317:
.Lfunc_end24:
	.size	_lv_style_get_int, .Lfunc_end24-_lv_style_get_int
	.cfi_endproc
	.cantunwind
	.fnend
                                        @ -- End function
	.section	.text._lv_style_get_opa,"ax",%progbits
	.hidden	_lv_style_get_opa               @ -- Begin function _lv_style_get_opa
	.globl	_lv_style_get_opa
	.p2align	3
	.type	_lv_style_get_opa,%function
	.code	16                              @ @_lv_style_get_opa
	.thumb_func
_lv_style_get_opa:
.Lfunc_begin25:
	.loc	5 547 0                         @ lvgl/src/lv_core/lv_style.c:547:0
	.fnstart
	.cfi_startproc
@ %bb.0:
	.save	{r7, lr}
	push	{r7, lr}
	.cfi_def_cfa_offset 8
	.cfi_offset lr, -4
	.cfi_offset r7, -8
	.pad	#24
	sub	sp, #24
	.cfi_def_cfa_offset 32
                                        @ kill: def $r3 killed $r1
	str	r0, [sp, #16]
	strh.w	r1, [sp, #14]
	str	r2, [sp, #8]
.Ltmp318:
	.loc	5 548 37 prologue_end           @ lvgl/src/lv_core/lv_style.c:548:37
	ldr	r0, [sp, #16]
	.loc	5 548 44 is_stmt 0              @ lvgl/src/lv_core/lv_style.c:548:44
	ldrh.w	r1, [sp, #14]
	.loc	5 548 18                        @ lvgl/src/lv_core/lv_style.c:548:18
	bl	get_property_index
	.loc	5 548 13                        @ lvgl/src/lv_core/lv_style.c:548:13
	str	r0, [sp, #4]
.Ltmp319:
	.loc	5 549 8 is_stmt 1               @ lvgl/src/lv_core/lv_style.c:549:8
	ldr	r0, [sp, #4]
.Ltmp320:
	.loc	5 549 8 is_stmt 0               @ lvgl/src/lv_core/lv_style.c:549:8
	cmp.w	r0, #-1
	bgt	.LBB25_2
	b	.LBB25_1
.LBB25_1:
	.loc	5 0 8                           @ lvgl/src/lv_core/lv_style.c:0:8
	movw	r0, #65535
.Ltmp321:
	.loc	5 550 9 is_stmt 1               @ lvgl/src/lv_core/lv_style.c:550:9
	strh.w	r0, [sp, #22]
	b	.LBB25_3
.Ltmp322:
.LBB25_2:
	.loc	5 553 26                        @ lvgl/src/lv_core/lv_style.c:553:26
	ldr	r0, [sp, #8]
	.loc	5 553 32 is_stmt 0              @ lvgl/src/lv_core/lv_style.c:553:32
	ldr	r1, [sp, #16]
	.loc	5 553 39                        @ lvgl/src/lv_core/lv_style.c:553:39
	ldr	r2, [r1]
	.loc	5 553 43                        @ lvgl/src/lv_core/lv_style.c:553:43
	ldr	r1, [sp, #4]
	.loc	5 553 46                        @ lvgl/src/lv_core/lv_style.c:553:46
	add	r1, r2
	.loc	5 553 32                        @ lvgl/src/lv_core/lv_style.c:553:32
	adds	r1, #2
	movs	r2, #1
	.loc	5 553 9                         @ lvgl/src/lv_core/lv_style.c:553:9
	bl	_lv_memcpy_small
	.loc	5 555 40 is_stmt 1              @ lvgl/src/lv_core/lv_style.c:555:40
	ldr	r0, [sp, #16]
	.loc	5 555 47 is_stmt 0              @ lvgl/src/lv_core/lv_style.c:555:47
	ldr	r1, [sp, #4]
	.loc	5 555 20                        @ lvgl/src/lv_core/lv_style.c:555:20
	bl	get_style_prop_attr
	.loc	5 555 18                        @ lvgl/src/lv_core/lv_style.c:555:18
	strb.w	r0, [sp, #3]
	.loc	5 557 16 is_stmt 1              @ lvgl/src/lv_core/lv_style.c:557:16
	ldrb.w	r0, [sp, #3]
	and	r0, r0, #127
	.loc	5 557 9 is_stmt 0               @ lvgl/src/lv_core/lv_style.c:557:9
	strh.w	r0, [sp, #22]
	b	.LBB25_3
.Ltmp323:
.LBB25_3:
	.loc	5 559 1 is_stmt 1               @ lvgl/src/lv_core/lv_style.c:559:1
	ldrsh.w	r0, [sp, #22]
	add	sp, #24
	pop	{r7, pc}
.Ltmp324:
.Lfunc_end25:
	.size	_lv_style_get_opa, .Lfunc_end25-_lv_style_get_opa
	.cfi_endproc
	.cantunwind
	.fnend
                                        @ -- End function
	.section	.text._lv_style_get_color,"ax",%progbits
	.hidden	_lv_style_get_color             @ -- Begin function _lv_style_get_color
	.globl	_lv_style_get_color
	.p2align	3
	.type	_lv_style_get_color,%function
	.code	16                              @ @_lv_style_get_color
	.thumb_func
_lv_style_get_color:
.Lfunc_begin26:
	.loc	5 575 0                         @ lvgl/src/lv_core/lv_style.c:575:0
	.fnstart
	.cfi_startproc
@ %bb.0:
	.save	{r7, lr}
	push	{r7, lr}
	.cfi_def_cfa_offset 8
	.cfi_offset lr, -4
	.cfi_offset r7, -8
	.pad	#24
	sub	sp, #24
	.cfi_def_cfa_offset 32
                                        @ kill: def $r3 killed $r1
	str	r0, [sp, #16]
	strh.w	r1, [sp, #14]
	str	r2, [sp, #8]
.Ltmp325:
	.loc	5 576 37 prologue_end           @ lvgl/src/lv_core/lv_style.c:576:37
	ldr	r0, [sp, #16]
	.loc	5 576 44 is_stmt 0              @ lvgl/src/lv_core/lv_style.c:576:44
	ldrh.w	r1, [sp, #14]
	.loc	5 576 18                        @ lvgl/src/lv_core/lv_style.c:576:18
	bl	get_property_index
	.loc	5 576 13                        @ lvgl/src/lv_core/lv_style.c:576:13
	str	r0, [sp, #4]
.Ltmp326:
	.loc	5 577 8 is_stmt 1               @ lvgl/src/lv_core/lv_style.c:577:8
	ldr	r0, [sp, #4]
.Ltmp327:
	.loc	5 577 8 is_stmt 0               @ lvgl/src/lv_core/lv_style.c:577:8
	cmp.w	r0, #-1
	bgt	.LBB26_2
	b	.LBB26_1
.LBB26_1:
	.loc	5 0 8                           @ lvgl/src/lv_core/lv_style.c:0:8
	movw	r0, #65535
.Ltmp328:
	.loc	5 578 9 is_stmt 1               @ lvgl/src/lv_core/lv_style.c:578:9
	strh.w	r0, [sp, #22]
	b	.LBB26_3
.Ltmp329:
.LBB26_2:
	.loc	5 581 26                        @ lvgl/src/lv_core/lv_style.c:581:26
	ldr	r0, [sp, #8]
	.loc	5 581 32 is_stmt 0              @ lvgl/src/lv_core/lv_style.c:581:32
	ldr	r1, [sp, #16]
	.loc	5 581 39                        @ lvgl/src/lv_core/lv_style.c:581:39
	ldr	r2, [r1]
	.loc	5 581 43                        @ lvgl/src/lv_core/lv_style.c:581:43
	ldr	r1, [sp, #4]
	.loc	5 581 46                        @ lvgl/src/lv_core/lv_style.c:581:46
	add	r1, r2
	.loc	5 581 32                        @ lvgl/src/lv_core/lv_style.c:581:32
	adds	r1, #2
	movs	r2, #4
	.loc	5 581 9                         @ lvgl/src/lv_core/lv_style.c:581:9
	bl	_lv_memcpy_small
	.loc	5 583 40 is_stmt 1              @ lvgl/src/lv_core/lv_style.c:583:40
	ldr	r0, [sp, #16]
	.loc	5 583 47 is_stmt 0              @ lvgl/src/lv_core/lv_style.c:583:47
	ldr	r1, [sp, #4]
	.loc	5 583 20                        @ lvgl/src/lv_core/lv_style.c:583:20
	bl	get_style_prop_attr
	.loc	5 583 18                        @ lvgl/src/lv_core/lv_style.c:583:18
	strb.w	r0, [sp, #3]
	.loc	5 585 16 is_stmt 1              @ lvgl/src/lv_core/lv_style.c:585:16
	ldrb.w	r0, [sp, #3]
	and	r0, r0, #127
	.loc	5 585 9 is_stmt 0               @ lvgl/src/lv_core/lv_style.c:585:9
	strh.w	r0, [sp, #22]
	b	.LBB26_3
.Ltmp330:
.LBB26_3:
	.loc	5 587 1 is_stmt 1               @ lvgl/src/lv_core/lv_style.c:587:1
	ldrsh.w	r0, [sp, #22]
	add	sp, #24
	pop	{r7, pc}
.Ltmp331:
.Lfunc_end26:
	.size	_lv_style_get_color, .Lfunc_end26-_lv_style_get_color
	.cfi_endproc
	.cantunwind
	.fnend
                                        @ -- End function
	.section	.text._lv_style_get_ptr,"ax",%progbits
	.hidden	_lv_style_get_ptr               @ -- Begin function _lv_style_get_ptr
	.globl	_lv_style_get_ptr
	.p2align	3
	.type	_lv_style_get_ptr,%function
	.code	16                              @ @_lv_style_get_ptr
	.thumb_func
_lv_style_get_ptr:
.Lfunc_begin27:
	.loc	5 603 0                         @ lvgl/src/lv_core/lv_style.c:603:0
	.fnstart
	.cfi_startproc
@ %bb.0:
	.save	{r7, lr}
	push	{r7, lr}
	.cfi_def_cfa_offset 8
	.cfi_offset lr, -4
	.cfi_offset r7, -8
	.pad	#24
	sub	sp, #24
	.cfi_def_cfa_offset 32
                                        @ kill: def $r3 killed $r1
	str	r0, [sp, #16]
	strh.w	r1, [sp, #14]
	str	r2, [sp, #8]
.Ltmp332:
	.loc	5 604 37 prologue_end           @ lvgl/src/lv_core/lv_style.c:604:37
	ldr	r0, [sp, #16]
	.loc	5 604 44 is_stmt 0              @ lvgl/src/lv_core/lv_style.c:604:44
	ldrh.w	r1, [sp, #14]
	.loc	5 604 18                        @ lvgl/src/lv_core/lv_style.c:604:18
	bl	get_property_index
	.loc	5 604 13                        @ lvgl/src/lv_core/lv_style.c:604:13
	str	r0, [sp, #4]
.Ltmp333:
	.loc	5 605 8 is_stmt 1               @ lvgl/src/lv_core/lv_style.c:605:8
	ldr	r0, [sp, #4]
.Ltmp334:
	.loc	5 605 8 is_stmt 0               @ lvgl/src/lv_core/lv_style.c:605:8
	cmp.w	r0, #-1
	bgt	.LBB27_2
	b	.LBB27_1
.LBB27_1:
	.loc	5 0 8                           @ lvgl/src/lv_core/lv_style.c:0:8
	movw	r0, #65535
.Ltmp335:
	.loc	5 606 9 is_stmt 1               @ lvgl/src/lv_core/lv_style.c:606:9
	strh.w	r0, [sp, #22]
	b	.LBB27_3
.Ltmp336:
.LBB27_2:
	.loc	5 609 26                        @ lvgl/src/lv_core/lv_style.c:609:26
	ldr	r0, [sp, #8]
	.loc	5 609 32 is_stmt 0              @ lvgl/src/lv_core/lv_style.c:609:32
	ldr	r1, [sp, #16]
	.loc	5 609 39                        @ lvgl/src/lv_core/lv_style.c:609:39
	ldr	r2, [r1]
	.loc	5 609 43                        @ lvgl/src/lv_core/lv_style.c:609:43
	ldr	r1, [sp, #4]
	.loc	5 609 46                        @ lvgl/src/lv_core/lv_style.c:609:46
	add	r1, r2
	.loc	5 609 32                        @ lvgl/src/lv_core/lv_style.c:609:32
	adds	r1, #2
	movs	r2, #4
	.loc	5 609 9                         @ lvgl/src/lv_core/lv_style.c:609:9
	bl	_lv_memcpy_small
	.loc	5 611 40 is_stmt 1              @ lvgl/src/lv_core/lv_style.c:611:40
	ldr	r0, [sp, #16]
	.loc	5 611 47 is_stmt 0              @ lvgl/src/lv_core/lv_style.c:611:47
	ldr	r1, [sp, #4]
	.loc	5 611 20                        @ lvgl/src/lv_core/lv_style.c:611:20
	bl	get_style_prop_attr
	.loc	5 611 18                        @ lvgl/src/lv_core/lv_style.c:611:18
	strb.w	r0, [sp, #3]
	.loc	5 613 16 is_stmt 1              @ lvgl/src/lv_core/lv_style.c:613:16
	ldrb.w	r0, [sp, #3]
	and	r0, r0, #127
	.loc	5 613 9 is_stmt 0               @ lvgl/src/lv_core/lv_style.c:613:9
	strh.w	r0, [sp, #22]
	b	.LBB27_3
.Ltmp337:
.LBB27_3:
	.loc	5 615 1 is_stmt 1               @ lvgl/src/lv_core/lv_style.c:615:1
	ldrsh.w	r0, [sp, #22]
	add	sp, #24
	pop	{r7, pc}
.Ltmp338:
.Lfunc_end27:
	.size	_lv_style_get_ptr, .Lfunc_end27-_lv_style_get_ptr
	.cfi_endproc
	.cantunwind
	.fnend
                                        @ -- End function
	.section	.text._lv_style_list_add_trans_style,"ax",%progbits
	.hidden	_lv_style_list_add_trans_style  @ -- Begin function _lv_style_list_add_trans_style
	.globl	_lv_style_list_add_trans_style
	.p2align	3
	.type	_lv_style_list_add_trans_style,%function
	.code	16                              @ @_lv_style_list_add_trans_style
	.thumb_func
_lv_style_list_add_trans_style:
.Lfunc_begin28:
	.loc	5 650 0                         @ lvgl/src/lv_core/lv_style.c:650:0
	.fnstart
	.cfi_startproc
@ %bb.0:
	.save	{r7, lr}
	push	{r7, lr}
	.cfi_def_cfa_offset 8
	.cfi_offset lr, -4
	.cfi_offset r7, -8
	.pad	#16
	sub	sp, #16
	.cfi_def_cfa_offset 24
	str	r0, [sp, #8]
.Ltmp339:
	.loc	5 652 8 prologue_end            @ lvgl/src/lv_core/lv_style.c:652:8
	ldr	r0, [sp, #8]
	.loc	5 652 14 is_stmt 0              @ lvgl/src/lv_core/lv_style.c:652:14
	ldrb	r1, [r0, #4]
	movs	r0, #0
.Ltmp340:
	.loc	5 652 8                         @ lvgl/src/lv_core/lv_style.c:652:8
	cmp.w	r0, r1, lsr #7
	beq	.LBB28_2
	b	.LBB28_1
.LBB28_1:
.Ltmp341:
	.loc	5 652 68                        @ lvgl/src/lv_core/lv_style.c:652:68
	ldr	r0, [sp, #8]
	.loc	5 652 32                        @ lvgl/src/lv_core/lv_style.c:652:32
	bl	_lv_style_list_get_transition_style
	.loc	5 652 25                        @ lvgl/src/lv_core/lv_style.c:652:25
	str	r0, [sp, #12]
	b	.LBB28_12
.Ltmp342:
.LBB28_2:
	.loc	5 0 25                          @ lvgl/src/lv_core/lv_style.c:0:25
	movs	r0, #4
	.loc	5 654 32 is_stmt 1              @ lvgl/src/lv_core/lv_style.c:654:32
	bl	lv_mem_alloc
	.loc	5 654 18 is_stmt 0              @ lvgl/src/lv_core/lv_style.c:654:18
	str	r0, [sp, #4]
	.loc	5 655 5 is_stmt 1               @ lvgl/src/lv_core/lv_style.c:655:5
	b	.LBB28_3
.LBB28_3:
.Ltmp343:
	.loc	5 655 5 is_stmt 0               @ lvgl/src/lv_core/lv_style.c:655:5
	ldr	r0, [sp, #4]
	bl	lv_debug_check_null
.Ltmp344:
	.loc	5 655 5                         @ lvgl/src/lv_core/lv_style.c:655:5
	cbnz	r0, .LBB28_6
	b	.LBB28_4
.LBB28_4:
.Ltmp345:
	.loc	5 655 5                         @ lvgl/src/lv_core/lv_style.c:655:5
	ldr	r2, [sp, #4]
	movw	r0, :lower16:.L.str
	movt	r0, :upper16:.L.str
	movs	r3, #0
	bl	lv_debug_log_error
	b	.LBB28_5
.LBB28_5:                               @ =>This Inner Loop Header: Depth=1
	b	.LBB28_5
.Ltmp346:
.LBB28_6:
	.loc	5 655 5                         @ lvgl/src/lv_core/lv_style.c:655:5
	b	.LBB28_7
.Ltmp347:
.LBB28_7:
	.loc	5 656 8 is_stmt 1               @ lvgl/src/lv_core/lv_style.c:656:8
	ldr	r0, [sp, #4]
.Ltmp348:
	.loc	5 656 8 is_stmt 0               @ lvgl/src/lv_core/lv_style.c:656:8
	cbnz	r0, .LBB28_9
	b	.LBB28_8
.LBB28_8:
	.loc	5 0 8                           @ lvgl/src/lv_core/lv_style.c:0:8
	movs	r0, #0
.Ltmp349:
	.loc	5 658 9 is_stmt 1               @ lvgl/src/lv_core/lv_style.c:658:9
	str	r0, [sp, #12]
	b	.LBB28_12
.Ltmp350:
.LBB28_9:
	.loc	5 661 19                        @ lvgl/src/lv_core/lv_style.c:661:19
	ldr	r0, [sp, #4]
	.loc	5 661 5 is_stmt 0               @ lvgl/src/lv_core/lv_style.c:661:5
	bl	lv_style_init
	.loc	5 663 30 is_stmt 1              @ lvgl/src/lv_core/lv_style.c:663:30
	ldr	r0, [sp, #8]
	.loc	5 663 36 is_stmt 0              @ lvgl/src/lv_core/lv_style.c:663:36
	ldr	r1, [sp, #4]
	.loc	5 663 5                         @ lvgl/src/lv_core/lv_style.c:663:5
	bl	_lv_style_list_add_style
	.loc	5 664 5 is_stmt 1               @ lvgl/src/lv_core/lv_style.c:664:5
	ldr	r1, [sp, #8]
	.loc	5 664 21 is_stmt 0              @ lvgl/src/lv_core/lv_style.c:664:21
	ldrb	r0, [r1, #4]
	orr	r0, r0, #128
	strb	r0, [r1, #4]
.Ltmp351:
	.loc	5 667 8 is_stmt 1               @ lvgl/src/lv_core/lv_style.c:667:8
	ldr	r0, [sp, #8]
	.loc	5 667 14 is_stmt 0              @ lvgl/src/lv_core/lv_style.c:667:14
	ldrb	r0, [r0, #4]
	lsrs	r0, r0, #6
.Ltmp352:
	.loc	5 667 8                         @ lvgl/src/lv_core/lv_style.c:667:8
	lsls	r0, r0, #31
	cbz	r0, .LBB28_11
	b	.LBB28_10
.LBB28_10:
.Ltmp353:
	.loc	5 668 28 is_stmt 1              @ lvgl/src/lv_core/lv_style.c:668:28
	ldr	r0, [sp, #8]
	.loc	5 668 34 is_stmt 0              @ lvgl/src/lv_core/lv_style.c:668:34
	ldr	r0, [r0]
	.loc	5 668 28                        @ lvgl/src/lv_core/lv_style.c:668:28
	ldr	r0, [r0]
	.loc	5 668 22                        @ lvgl/src/lv_core/lv_style.c:668:22
	str	r0, [sp]
	.loc	5 669 31 is_stmt 1              @ lvgl/src/lv_core/lv_style.c:669:31
	ldr	r0, [sp, #8]
	.loc	5 669 37 is_stmt 0              @ lvgl/src/lv_core/lv_style.c:669:37
	ldr	r1, [r0]
	.loc	5 669 31                        @ lvgl/src/lv_core/lv_style.c:669:31
	ldr	r0, [r1, #4]
	.loc	5 669 29                        @ lvgl/src/lv_core/lv_style.c:669:29
	str	r0, [r1]
	.loc	5 670 31 is_stmt 1              @ lvgl/src/lv_core/lv_style.c:670:31
	ldr	r0, [sp]
	.loc	5 670 9 is_stmt 0               @ lvgl/src/lv_core/lv_style.c:670:9
	ldr	r1, [sp, #8]
	.loc	5 670 15                        @ lvgl/src/lv_core/lv_style.c:670:15
	ldr	r1, [r1]
	.loc	5 670 29                        @ lvgl/src/lv_core/lv_style.c:670:29
	str	r0, [r1, #4]
	.loc	5 671 5 is_stmt 1               @ lvgl/src/lv_core/lv_style.c:671:5
	b	.LBB28_11
.Ltmp354:
.LBB28_11:
	.loc	5 672 12                        @ lvgl/src/lv_core/lv_style.c:672:12
	ldr	r0, [sp, #4]
	.loc	5 672 5 is_stmt 0               @ lvgl/src/lv_core/lv_style.c:672:5
	str	r0, [sp, #12]
	b	.LBB28_12
.LBB28_12:
	.loc	5 673 1 is_stmt 1               @ lvgl/src/lv_core/lv_style.c:673:1
	ldr	r0, [sp, #12]
	add	sp, #16
	pop	{r7, pc}
.Ltmp355:
.Lfunc_end28:
	.size	_lv_style_list_add_trans_style, .Lfunc_end28-_lv_style_list_add_trans_style
	.cfi_endproc
	.cantunwind
	.fnend
                                        @ -- End function
	.section	.text._lv_style_list_set_local_int,"ax",%progbits
	.hidden	_lv_style_list_set_local_int    @ -- Begin function _lv_style_list_set_local_int
	.globl	_lv_style_list_set_local_int
	.p2align	3
	.type	_lv_style_list_set_local_int,%function
	.code	16                              @ @_lv_style_list_set_local_int
	.thumb_func
_lv_style_list_set_local_int:
.Lfunc_begin29:
	.loc	5 684 0                         @ lvgl/src/lv_core/lv_style.c:684:0
	.fnstart
	.cfi_startproc
@ %bb.0:
	.save	{r7, lr}
	push	{r7, lr}
	.cfi_def_cfa_offset 8
	.cfi_offset lr, -4
	.cfi_offset r7, -8
	.pad	#16
	sub	sp, #16
	.cfi_def_cfa_offset 24
                                        @ kill: def $r3 killed $r2
                                        @ kill: def $r3 killed $r1
	str	r0, [sp, #12]
	strh.w	r1, [sp, #10]
	strh.w	r2, [sp, #8]
.Ltmp356:
	.loc	5 687 48 prologue_end           @ lvgl/src/lv_core/lv_style.c:687:48
	ldr	r0, [sp, #12]
	.loc	5 687 26 is_stmt 0              @ lvgl/src/lv_core/lv_style.c:687:26
	bl	get_alloc_local_style
	.loc	5 687 18                        @ lvgl/src/lv_core/lv_style.c:687:18
	str	r0, [sp, #4]
	.loc	5 688 23 is_stmt 1              @ lvgl/src/lv_core/lv_style.c:688:23
	ldr	r0, [sp, #4]
	.loc	5 688 30 is_stmt 0              @ lvgl/src/lv_core/lv_style.c:688:30
	ldrh.w	r1, [sp, #10]
	.loc	5 688 36                        @ lvgl/src/lv_core/lv_style.c:688:36
	ldrsh.w	r2, [sp, #8]
	.loc	5 688 5                         @ lvgl/src/lv_core/lv_style.c:688:5
	bl	_lv_style_set_int
	.loc	5 689 1 is_stmt 1               @ lvgl/src/lv_core/lv_style.c:689:1
	add	sp, #16
	pop	{r7, pc}
.Ltmp357:
.Lfunc_end29:
	.size	_lv_style_list_set_local_int, .Lfunc_end29-_lv_style_list_set_local_int
	.cfi_endproc
	.cantunwind
	.fnend
                                        @ -- End function
	.section	.text._lv_style_list_set_local_opa,"ax",%progbits
	.hidden	_lv_style_list_set_local_opa    @ -- Begin function _lv_style_list_set_local_opa
	.globl	_lv_style_list_set_local_opa
	.p2align	3
	.type	_lv_style_list_set_local_opa,%function
	.code	16                              @ @_lv_style_list_set_local_opa
	.thumb_func
_lv_style_list_set_local_opa:
.Lfunc_begin30:
	.loc	5 700 0                         @ lvgl/src/lv_core/lv_style.c:700:0
	.fnstart
	.cfi_startproc
@ %bb.0:
	.save	{r7, lr}
	push	{r7, lr}
	.cfi_def_cfa_offset 8
	.cfi_offset lr, -4
	.cfi_offset r7, -8
	.pad	#16
	sub	sp, #16
	.cfi_def_cfa_offset 24
                                        @ kill: def $r3 killed $r2
                                        @ kill: def $r3 killed $r1
	str	r0, [sp, #12]
	strh.w	r1, [sp, #10]
	strb.w	r2, [sp, #9]
.Ltmp358:
	.loc	5 703 48 prologue_end           @ lvgl/src/lv_core/lv_style.c:703:48
	ldr	r0, [sp, #12]
	.loc	5 703 26 is_stmt 0              @ lvgl/src/lv_core/lv_style.c:703:26
	bl	get_alloc_local_style
	.loc	5 703 18                        @ lvgl/src/lv_core/lv_style.c:703:18
	str	r0, [sp, #4]
	.loc	5 704 23 is_stmt 1              @ lvgl/src/lv_core/lv_style.c:704:23
	ldr	r0, [sp, #4]
	.loc	5 704 30 is_stmt 0              @ lvgl/src/lv_core/lv_style.c:704:30
	ldrh.w	r1, [sp, #10]
	.loc	5 704 36                        @ lvgl/src/lv_core/lv_style.c:704:36
	ldrb.w	r2, [sp, #9]
	.loc	5 704 5                         @ lvgl/src/lv_core/lv_style.c:704:5
	bl	_lv_style_set_opa
	.loc	5 705 1 is_stmt 1               @ lvgl/src/lv_core/lv_style.c:705:1
	add	sp, #16
	pop	{r7, pc}
.Ltmp359:
.Lfunc_end30:
	.size	_lv_style_list_set_local_opa, .Lfunc_end30-_lv_style_list_set_local_opa
	.cfi_endproc
	.cantunwind
	.fnend
                                        @ -- End function
	.section	.text._lv_style_list_set_local_color,"ax",%progbits
	.hidden	_lv_style_list_set_local_color  @ -- Begin function _lv_style_list_set_local_color
	.globl	_lv_style_list_set_local_color
	.p2align	3
	.type	_lv_style_list_set_local_color,%function
	.code	16                              @ @_lv_style_list_set_local_color
	.thumb_func
_lv_style_list_set_local_color:
.Lfunc_begin31:
	.loc	5 716 0                         @ lvgl/src/lv_core/lv_style.c:716:0
	.fnstart
	.cfi_startproc
@ %bb.0:
	.save	{r7, lr}
	push	{r7, lr}
	.cfi_def_cfa_offset 8
	.cfi_offset lr, -4
	.cfi_offset r7, -8
	.pad	#16
	sub	sp, #16
	.cfi_def_cfa_offset 24
                                        @ kill: def $r3 killed $r1
	str	r2, [sp, #12]
	str	r0, [sp, #8]
	strh.w	r1, [sp, #6]
.Ltmp360:
	.loc	5 719 48 prologue_end           @ lvgl/src/lv_core/lv_style.c:719:48
	ldr	r0, [sp, #8]
	.loc	5 719 26 is_stmt 0              @ lvgl/src/lv_core/lv_style.c:719:26
	bl	get_alloc_local_style
	.loc	5 719 18                        @ lvgl/src/lv_core/lv_style.c:719:18
	str	r0, [sp]
	.loc	5 720 25 is_stmt 1              @ lvgl/src/lv_core/lv_style.c:720:25
	ldr	r0, [sp]
	.loc	5 720 32 is_stmt 0              @ lvgl/src/lv_core/lv_style.c:720:32
	ldrh.w	r1, [sp, #6]
	.loc	5 720 5                         @ lvgl/src/lv_core/lv_style.c:720:5
	ldr	r2, [sp, #12]
	bl	_lv_style_set_color
	.loc	5 721 1 is_stmt 1               @ lvgl/src/lv_core/lv_style.c:721:1
	add	sp, #16
	pop	{r7, pc}
.Ltmp361:
.Lfunc_end31:
	.size	_lv_style_list_set_local_color, .Lfunc_end31-_lv_style_list_set_local_color
	.cfi_endproc
	.cantunwind
	.fnend
                                        @ -- End function
	.section	.text._lv_style_list_set_local_ptr,"ax",%progbits
	.hidden	_lv_style_list_set_local_ptr    @ -- Begin function _lv_style_list_set_local_ptr
	.globl	_lv_style_list_set_local_ptr
	.p2align	3
	.type	_lv_style_list_set_local_ptr,%function
	.code	16                              @ @_lv_style_list_set_local_ptr
	.thumb_func
_lv_style_list_set_local_ptr:
.Lfunc_begin32:
	.loc	5 732 0                         @ lvgl/src/lv_core/lv_style.c:732:0
	.fnstart
	.cfi_startproc
@ %bb.0:
	.save	{r7, lr}
	push	{r7, lr}
	.cfi_def_cfa_offset 8
	.cfi_offset lr, -4
	.cfi_offset r7, -8
	.pad	#16
	sub	sp, #16
	.cfi_def_cfa_offset 24
                                        @ kill: def $r3 killed $r1
	str	r0, [sp, #12]
	strh.w	r1, [sp, #10]
	str	r2, [sp, #4]
.Ltmp362:
	.loc	5 735 48 prologue_end           @ lvgl/src/lv_core/lv_style.c:735:48
	ldr	r0, [sp, #12]
	.loc	5 735 26 is_stmt 0              @ lvgl/src/lv_core/lv_style.c:735:26
	bl	get_alloc_local_style
	.loc	5 735 18                        @ lvgl/src/lv_core/lv_style.c:735:18
	str	r0, [sp]
	.loc	5 736 23 is_stmt 1              @ lvgl/src/lv_core/lv_style.c:736:23
	ldr	r0, [sp]
	.loc	5 736 30 is_stmt 0              @ lvgl/src/lv_core/lv_style.c:736:30
	ldrh.w	r1, [sp, #10]
	.loc	5 736 36                        @ lvgl/src/lv_core/lv_style.c:736:36
	ldr	r2, [sp, #4]
	.loc	5 736 5                         @ lvgl/src/lv_core/lv_style.c:736:5
	bl	_lv_style_set_ptr
	.loc	5 737 1 is_stmt 1               @ lvgl/src/lv_core/lv_style.c:737:1
	add	sp, #16
	pop	{r7, pc}
.Ltmp363:
.Lfunc_end32:
	.size	_lv_style_list_set_local_ptr, .Lfunc_end32-_lv_style_list_set_local_ptr
	.cfi_endproc
	.cantunwind
	.fnend
                                        @ -- End function
	.section	.text._lv_style_list_get_int,"ax",%progbits
	.hidden	_lv_style_list_get_int          @ -- Begin function _lv_style_list_get_int
	.globl	_lv_style_list_get_int
	.p2align	3
	.type	_lv_style_list_get_int,%function
	.code	16                              @ @_lv_style_list_get_int
	.thumb_func
_lv_style_list_get_int:
.Lfunc_begin33:
	.loc	5 751 0                         @ lvgl/src/lv_core/lv_style.c:751:0
	.fnstart
	.cfi_startproc
@ %bb.0:
	.save	{r7, lr}
	push	{r7, lr}
	.cfi_def_cfa_offset 8
	.cfi_offset lr, -4
	.cfi_offset r7, -8
	.pad	#40
	sub	sp, #40
	.cfi_def_cfa_offset 48
                                        @ kill: def $r3 killed $r1
	str	r0, [sp, #32]
	strh.w	r1, [sp, #30]
	str	r2, [sp, #24]
.Ltmp364:
	.loc	5 754 8 prologue_end            @ lvgl/src/lv_core/lv_style.c:754:8
	ldr	r0, [sp, #32]
.Ltmp365:
	.loc	5 754 8 is_stmt 0               @ lvgl/src/lv_core/lv_style.c:754:8
	cbnz	r0, .LBB33_2
	b	.LBB33_1
.LBB33_1:
	.loc	5 0 8                           @ lvgl/src/lv_core/lv_style.c:0:8
	movs	r0, #0
.Ltmp366:
	.loc	5 754 22                        @ lvgl/src/lv_core/lv_style.c:754:22
	strb.w	r0, [sp, #39]
	b	.LBB33_22
.Ltmp367:
.LBB33_2:
	.loc	5 755 8 is_stmt 1               @ lvgl/src/lv_core/lv_style.c:755:8
	ldr	r0, [sp, #32]
	.loc	5 755 14 is_stmt 0              @ lvgl/src/lv_core/lv_style.c:755:14
	ldr	r0, [r0]
.Ltmp368:
	.loc	5 755 8                         @ lvgl/src/lv_core/lv_style.c:755:8
	cbnz	r0, .LBB33_4
	b	.LBB33_3
.LBB33_3:
	.loc	5 0 8                           @ lvgl/src/lv_core/lv_style.c:0:8
	movs	r0, #0
.Ltmp369:
	.loc	5 755 34                        @ lvgl/src/lv_core/lv_style.c:755:34
	strb.w	r0, [sp, #39]
	b	.LBB33_22
.Ltmp370:
.LBB33_4:
	.loc	5 758 12 is_stmt 1              @ lvgl/src/lv_core/lv_style.c:758:12
	ldrb.w	r0, [sp, #31]
	.loc	5 758 10 is_stmt 0              @ lvgl/src/lv_core/lv_style.c:758:10
	strb.w	r0, [sp, #23]
	.loc	5 759 27 is_stmt 1              @ lvgl/src/lv_core/lv_style.c:759:27
	ldrb.w	r0, [sp, #23]
	.loc	5 759 13 is_stmt 0              @ lvgl/src/lv_core/lv_style.c:759:13
	strh.w	r0, [sp, #20]
	movw	r0, #65535
	.loc	5 761 13 is_stmt 1              @ lvgl/src/lv_core/lv_style.c:761:13
	strh.w	r0, [sp, #18]
	movs	r0, #0
	.loc	5 763 20                        @ lvgl/src/lv_core/lv_style.c:763:20
	strh.w	r0, [sp, #16]
.Ltmp371:
	.loc	5 766 12                        @ lvgl/src/lv_core/lv_style.c:766:12
	strh.w	r0, [sp, #14]
	.loc	5 766 9 is_stmt 0               @ lvgl/src/lv_core/lv_style.c:766:9
	b	.LBB33_5
.LBB33_5:                               @ =>This Inner Loop Header: Depth=1
.Ltmp372:
	.loc	5 766 17                        @ lvgl/src/lv_core/lv_style.c:766:17
	ldrsh.w	r0, [sp, #14]
	.loc	5 766 22                        @ lvgl/src/lv_core/lv_style.c:766:22
	ldr	r1, [sp, #32]
	.loc	5 766 28                        @ lvgl/src/lv_core/lv_style.c:766:28
	ldrb	r1, [r1, #4]
	and	r1, r1, #63
.Ltmp373:
	.loc	5 766 5                         @ lvgl/src/lv_core/lv_style.c:766:5
	cmp	r0, r1
	bge	.LBB33_19
	b	.LBB33_6
.LBB33_6:                               @   in Loop: Header=BB33_5 Depth=1
.Ltmp374:
	.loc	5 767 54 is_stmt 1              @ lvgl/src/lv_core/lv_style.c:767:54
	ldr	r0, [sp, #32]
	.loc	5 767 60 is_stmt 0              @ lvgl/src/lv_core/lv_style.c:767:60
	ldrb.w	r1, [sp, #14]
	.loc	5 767 30                        @ lvgl/src/lv_core/lv_style.c:767:30
	bl	lv_style_list_get_style
	.loc	5 767 22                        @ lvgl/src/lv_core/lv_style.c:767:22
	str	r0, [sp, #8]
	.loc	5 768 48 is_stmt 1              @ lvgl/src/lv_core/lv_style.c:768:48
	ldr	r0, [sp, #8]
	.loc	5 768 55 is_stmt 0              @ lvgl/src/lv_core/lv_style.c:768:55
	ldrh.w	r1, [sp, #30]
	add	r2, sp, #16
	.loc	5 768 30                        @ lvgl/src/lv_core/lv_style.c:768:30
	bl	_lv_style_get_int
	.loc	5 768 17                        @ lvgl/src/lv_core/lv_style.c:768:17
	strh.w	r0, [sp, #6]
.Ltmp375:
	.loc	5 771 12 is_stmt 1              @ lvgl/src/lv_core/lv_style.c:771:12
	ldrsh.w	r0, [sp, #6]
	.loc	5 771 26 is_stmt 0              @ lvgl/src/lv_core/lv_style.c:771:26
	ldrsh.w	r1, [sp, #20]
.Ltmp376:
	.loc	5 771 12                        @ lvgl/src/lv_core/lv_style.c:771:12
	cmp	r0, r1
	bne	.LBB33_8
	b	.LBB33_7
.LBB33_7:
.Ltmp377:
	.loc	5 772 20 is_stmt 1              @ lvgl/src/lv_core/lv_style.c:772:20
	ldrh.w	r0, [sp, #16]
	.loc	5 772 14 is_stmt 0              @ lvgl/src/lv_core/lv_style.c:772:14
	ldr	r1, [sp, #24]
	.loc	5 772 18                        @ lvgl/src/lv_core/lv_style.c:772:18
	strh	r0, [r1]
	movs	r0, #1
	.loc	5 773 13 is_stmt 1              @ lvgl/src/lv_core/lv_style.c:773:13
	strb.w	r0, [sp, #39]
	b	.LBB33_22
.Ltmp378:
.LBB33_8:                               @   in Loop: Header=BB33_5 Depth=1
	.loc	5 775 17                        @ lvgl/src/lv_core/lv_style.c:775:17
	ldr	r0, [sp, #32]
	.loc	5 775 23 is_stmt 0              @ lvgl/src/lv_core/lv_style.c:775:23
	ldrb	r1, [r0, #4]
	movs	r0, #0
	.loc	5 775 33                        @ lvgl/src/lv_core/lv_style.c:775:33
	cmp.w	r0, r1, lsr #7
	beq	.LBB33_13
	b	.LBB33_9
.LBB33_9:                               @   in Loop: Header=BB33_5 Depth=1
	.loc	5 775 36                        @ lvgl/src/lv_core/lv_style.c:775:36
	ldrsh.w	r0, [sp, #6]
	.loc	5 775 52                        @ lvgl/src/lv_core/lv_style.c:775:52
	cmp	r0, #0
	bmi	.LBB33_13
	b	.LBB33_10
.LBB33_10:                              @   in Loop: Header=BB33_5 Depth=1
	.loc	5 775 55                        @ lvgl/src/lv_core/lv_style.c:775:55
	ldrsh.w	r0, [sp, #14]
	.loc	5 775 63                        @ lvgl/src/lv_core/lv_style.c:775:63
	cbnz	r0, .LBB33_13
	b	.LBB33_11
.LBB33_11:                              @   in Loop: Header=BB33_5 Depth=1
	.loc	5 775 67                        @ lvgl/src/lv_core/lv_style.c:775:67
	ldr	r0, [sp, #32]
	.loc	5 775 73                        @ lvgl/src/lv_core/lv_style.c:775:73
	ldrb	r0, [r0, #5]
.Ltmp379:
	.loc	5 775 17                        @ lvgl/src/lv_core/lv_style.c:775:17
	lsls	r0, r0, #31
	cbnz	r0, .LBB33_13
	b	.LBB33_12
.LBB33_12:
.Ltmp380:
	.loc	5 776 20 is_stmt 1              @ lvgl/src/lv_core/lv_style.c:776:20
	ldrh.w	r0, [sp, #16]
	.loc	5 776 14 is_stmt 0              @ lvgl/src/lv_core/lv_style.c:776:14
	ldr	r1, [sp, #24]
	.loc	5 776 18                        @ lvgl/src/lv_core/lv_style.c:776:18
	strh	r0, [r1]
	movs	r0, #1
	.loc	5 777 13 is_stmt 1              @ lvgl/src/lv_core/lv_style.c:777:13
	strb.w	r0, [sp, #39]
	b	.LBB33_22
.Ltmp381:
.LBB33_13:                              @   in Loop: Header=BB33_5 Depth=1
	.loc	5 780 17                        @ lvgl/src/lv_core/lv_style.c:780:17
	ldrsh.w	r0, [sp, #6]
	.loc	5 780 30 is_stmt 0              @ lvgl/src/lv_core/lv_style.c:780:30
	ldrsh.w	r1, [sp, #18]
.Ltmp382:
	.loc	5 780 17                        @ lvgl/src/lv_core/lv_style.c:780:17
	cmp	r0, r1
	ble	.LBB33_15
	b	.LBB33_14
.LBB33_14:                              @   in Loop: Header=BB33_5 Depth=1
.Ltmp383:
	.loc	5 781 23 is_stmt 1              @ lvgl/src/lv_core/lv_style.c:781:23
	ldrh.w	r0, [sp, #6]
	.loc	5 781 20 is_stmt 0              @ lvgl/src/lv_core/lv_style.c:781:20
	strh.w	r0, [sp, #18]
	.loc	5 782 20 is_stmt 1              @ lvgl/src/lv_core/lv_style.c:782:20
	ldrh.w	r0, [sp, #16]
	.loc	5 782 14 is_stmt 0              @ lvgl/src/lv_core/lv_style.c:782:14
	ldr	r1, [sp, #24]
	.loc	5 782 18                        @ lvgl/src/lv_core/lv_style.c:782:18
	strh	r0, [r1]
	.loc	5 783 9 is_stmt 1               @ lvgl/src/lv_core/lv_style.c:783:9
	b	.LBB33_15
.Ltmp384:
.LBB33_15:                              @   in Loop: Header=BB33_5 Depth=1
	.loc	5 0 9 is_stmt 0                 @ lvgl/src/lv_core/lv_style.c:0:9
	b	.LBB33_16
.LBB33_16:                              @   in Loop: Header=BB33_5 Depth=1
	b	.LBB33_17
.LBB33_17:                              @   in Loop: Header=BB33_5 Depth=1
	.loc	5 784 5 is_stmt 1               @ lvgl/src/lv_core/lv_style.c:784:5
	b	.LBB33_18
.Ltmp385:
.LBB33_18:                              @   in Loop: Header=BB33_5 Depth=1
	.loc	5 766 41                        @ lvgl/src/lv_core/lv_style.c:766:41
	ldrh.w	r0, [sp, #14]
	adds	r0, #1
	strh.w	r0, [sp, #14]
	.loc	5 766 5 is_stmt 0               @ lvgl/src/lv_core/lv_style.c:766:5
	b	.LBB33_5
.Ltmp386:
.LBB33_19:
	.loc	5 786 8 is_stmt 1               @ lvgl/src/lv_core/lv_style.c:786:8
	ldrsh.w	r0, [sp, #18]
.Ltmp387:
	.loc	5 786 8 is_stmt 0               @ lvgl/src/lv_core/lv_style.c:786:8
	cmp	r0, #0
	bmi	.LBB33_21
	b	.LBB33_20
.LBB33_20:
	.loc	5 0 8                           @ lvgl/src/lv_core/lv_style.c:0:8
	movs	r0, #1
.Ltmp388:
	.loc	5 786 21                        @ lvgl/src/lv_core/lv_style.c:786:21
	strb.w	r0, [sp, #39]
	b	.LBB33_22
.LBB33_21:
	.loc	5 0 21                          @ lvgl/src/lv_core/lv_style.c:0:21
	movs	r0, #0
	.loc	5 787 10 is_stmt 1              @ lvgl/src/lv_core/lv_style.c:787:10
	strb.w	r0, [sp, #39]
	b	.LBB33_22
.Ltmp389:
.LBB33_22:
	.loc	5 788 1                         @ lvgl/src/lv_core/lv_style.c:788:1
	ldrb.w	r0, [sp, #39]
	add	sp, #40
	pop	{r7, pc}
.Ltmp390:
.Lfunc_end33:
	.size	_lv_style_list_get_int, .Lfunc_end33-_lv_style_list_get_int
	.cfi_endproc
	.cantunwind
	.fnend
                                        @ -- End function
	.section	.text.lv_style_list_get_style,"ax",%progbits
	.p2align	3                               @ -- Begin function lv_style_list_get_style
	.type	lv_style_list_get_style,%function
	.code	16                              @ @lv_style_list_get_style
	.thumb_func
lv_style_list_get_style:
.Lfunc_begin34:
	.loc	4 312 0                         @ lvgl/src/lv_core/lv_style.h:312:0
	.fnstart
	.cfi_startproc
@ %bb.0:
	.pad	#12
	sub	sp, #12
	.cfi_def_cfa_offset 12
                                        @ kill: def $r2 killed $r1
	str	r0, [sp, #4]
	strb.w	r1, [sp, #3]
.Ltmp391:
	.loc	4 313 8 prologue_end            @ lvgl/src/lv_core/lv_style.h:313:8
	ldr	r0, [sp, #4]
	.loc	4 313 14 is_stmt 0              @ lvgl/src/lv_core/lv_style.h:313:14
	ldrb	r1, [r0, #4]
	movs	r0, #0
	.loc	4 313 24                        @ lvgl/src/lv_core/lv_style.h:313:24
	cmp.w	r0, r1, lsr #7
	beq	.LBB34_3
	b	.LBB34_1
.LBB34_1:
	.loc	4 313 27                        @ lvgl/src/lv_core/lv_style.h:313:27
	ldr	r0, [sp, #4]
	.loc	4 313 33                        @ lvgl/src/lv_core/lv_style.h:313:33
	ldrb	r0, [r0, #5]
.Ltmp392:
	.loc	4 313 8                         @ lvgl/src/lv_core/lv_style.h:313:8
	lsls	r0, r0, #31
	cbz	r0, .LBB34_3
	b	.LBB34_2
.LBB34_2:
.Ltmp393:
	.loc	4 313 47                        @ lvgl/src/lv_core/lv_style.h:313:47
	ldrb.w	r0, [sp, #3]
	adds	r0, #1
	strb.w	r0, [sp, #3]
	.loc	4 313 45                        @ lvgl/src/lv_core/lv_style.h:313:45
	b	.LBB34_3
.Ltmp394:
.LBB34_3:
	.loc	4 314 8 is_stmt 1               @ lvgl/src/lv_core/lv_style.h:314:8
	ldr	r0, [sp, #4]
	.loc	4 314 14 is_stmt 0              @ lvgl/src/lv_core/lv_style.h:314:14
	ldrb	r0, [r0, #4]
	.loc	4 314 29                        @ lvgl/src/lv_core/lv_style.h:314:29
	lsls	r0, r0, #26
	cbz	r0, .LBB34_5
	b	.LBB34_4
.LBB34_4:
	.loc	4 314 32                        @ lvgl/src/lv_core/lv_style.h:314:32
	ldrb.w	r0, [sp, #3]
	.loc	4 314 38                        @ lvgl/src/lv_core/lv_style.h:314:38
	ldr	r1, [sp, #4]
	.loc	4 314 44                        @ lvgl/src/lv_core/lv_style.h:314:44
	ldrb	r1, [r1, #4]
	and	r1, r1, #63
.Ltmp395:
	.loc	4 314 8                         @ lvgl/src/lv_core/lv_style.h:314:8
	cmp	r0, r1
	blt	.LBB34_6
	b	.LBB34_5
.LBB34_5:
	.loc	4 0 8                           @ lvgl/src/lv_core/lv_style.h:0:8
	movs	r0, #0
.Ltmp396:
	.loc	4 314 55                        @ lvgl/src/lv_core/lv_style.h:314:55
	str	r0, [sp, #8]
	b	.LBB34_7
.Ltmp397:
.LBB34_6:
	.loc	4 315 12 is_stmt 1              @ lvgl/src/lv_core/lv_style.h:315:12
	ldr	r0, [sp, #4]
	.loc	4 315 18 is_stmt 0              @ lvgl/src/lv_core/lv_style.h:315:18
	ldr	r0, [r0]
	.loc	4 315 29                        @ lvgl/src/lv_core/lv_style.h:315:29
	ldrb.w	r1, [sp, #3]
	.loc	4 315 12                        @ lvgl/src/lv_core/lv_style.h:315:12
	ldr.w	r0, [r0, r1, lsl #2]
	.loc	4 315 5                         @ lvgl/src/lv_core/lv_style.h:315:5
	str	r0, [sp, #8]
	b	.LBB34_7
.LBB34_7:
	.loc	4 316 1 is_stmt 1               @ lvgl/src/lv_core/lv_style.h:316:1
	ldr	r0, [sp, #8]
	add	sp, #12
	bx	lr
.Ltmp398:
.Lfunc_end34:
	.size	lv_style_list_get_style, .Lfunc_end34-lv_style_list_get_style
	.cfi_endproc
	.cantunwind
	.fnend
                                        @ -- End function
	.section	.text._lv_style_list_get_color,"ax",%progbits
	.hidden	_lv_style_list_get_color        @ -- Begin function _lv_style_list_get_color
	.globl	_lv_style_list_get_color
	.p2align	3
	.type	_lv_style_list_get_color,%function
	.code	16                              @ @_lv_style_list_get_color
	.thumb_func
_lv_style_list_get_color:
.Lfunc_begin35:
	.loc	5 802 0                         @ lvgl/src/lv_core/lv_style.c:802:0
	.fnstart
	.cfi_startproc
@ %bb.0:
	.save	{r7, lr}
	push	{r7, lr}
	.cfi_def_cfa_offset 8
	.cfi_offset lr, -4
	.cfi_offset r7, -8
	.pad	#40
	sub	sp, #40
	.cfi_def_cfa_offset 48
                                        @ kill: def $r3 killed $r1
	str	r0, [sp, #32]
	strh.w	r1, [sp, #30]
	str	r2, [sp, #24]
.Ltmp399:
	.loc	5 805 8 prologue_end            @ lvgl/src/lv_core/lv_style.c:805:8
	ldr	r0, [sp, #32]
.Ltmp400:
	.loc	5 805 8 is_stmt 0               @ lvgl/src/lv_core/lv_style.c:805:8
	cbnz	r0, .LBB35_2
	b	.LBB35_1
.LBB35_1:
	.loc	5 0 8                           @ lvgl/src/lv_core/lv_style.c:0:8
	movs	r0, #0
.Ltmp401:
	.loc	5 805 22                        @ lvgl/src/lv_core/lv_style.c:805:22
	strb.w	r0, [sp, #39]
	b	.LBB35_22
.Ltmp402:
.LBB35_2:
	.loc	5 806 8 is_stmt 1               @ lvgl/src/lv_core/lv_style.c:806:8
	ldr	r0, [sp, #32]
	.loc	5 806 14 is_stmt 0              @ lvgl/src/lv_core/lv_style.c:806:14
	ldr	r0, [r0]
.Ltmp403:
	.loc	5 806 8                         @ lvgl/src/lv_core/lv_style.c:806:8
	cbnz	r0, .LBB35_4
	b	.LBB35_3
.LBB35_3:
	.loc	5 0 8                           @ lvgl/src/lv_core/lv_style.c:0:8
	movs	r0, #0
.Ltmp404:
	.loc	5 806 34                        @ lvgl/src/lv_core/lv_style.c:806:34
	strb.w	r0, [sp, #39]
	b	.LBB35_22
.Ltmp405:
.LBB35_4:
	.loc	5 809 12 is_stmt 1              @ lvgl/src/lv_core/lv_style.c:809:12
	ldrb.w	r0, [sp, #31]
	.loc	5 809 10 is_stmt 0              @ lvgl/src/lv_core/lv_style.c:809:10
	strb.w	r0, [sp, #23]
	.loc	5 810 27 is_stmt 1              @ lvgl/src/lv_core/lv_style.c:810:27
	ldrb.w	r0, [sp, #23]
	.loc	5 810 13 is_stmt 0              @ lvgl/src/lv_core/lv_style.c:810:13
	strh.w	r0, [sp, #20]
	movw	r0, #65535
	.loc	5 812 13 is_stmt 1              @ lvgl/src/lv_core/lv_style.c:812:13
	strh.w	r0, [sp, #18]
	movs	r0, #0
	.loc	5 815 20                        @ lvgl/src/lv_core/lv_style.c:815:20
	str	r0, [sp, #12]
.Ltmp406:
	.loc	5 818 12                        @ lvgl/src/lv_core/lv_style.c:818:12
	strh.w	r0, [sp, #10]
	.loc	5 818 9 is_stmt 0               @ lvgl/src/lv_core/lv_style.c:818:9
	b	.LBB35_5
.LBB35_5:                               @ =>This Inner Loop Header: Depth=1
.Ltmp407:
	.loc	5 818 17                        @ lvgl/src/lv_core/lv_style.c:818:17
	ldrsh.w	r0, [sp, #10]
	.loc	5 818 22                        @ lvgl/src/lv_core/lv_style.c:818:22
	ldr	r1, [sp, #32]
	.loc	5 818 28                        @ lvgl/src/lv_core/lv_style.c:818:28
	ldrb	r1, [r1, #4]
	and	r1, r1, #63
.Ltmp408:
	.loc	5 818 5                         @ lvgl/src/lv_core/lv_style.c:818:5
	cmp	r0, r1
	bge	.LBB35_19
	b	.LBB35_6
.LBB35_6:                               @   in Loop: Header=BB35_5 Depth=1
.Ltmp409:
	.loc	5 819 54 is_stmt 1              @ lvgl/src/lv_core/lv_style.c:819:54
	ldr	r0, [sp, #32]
	.loc	5 819 60 is_stmt 0              @ lvgl/src/lv_core/lv_style.c:819:60
	ldrb.w	r1, [sp, #10]
	.loc	5 819 30                        @ lvgl/src/lv_core/lv_style.c:819:30
	bl	lv_style_list_get_style
	.loc	5 819 22                        @ lvgl/src/lv_core/lv_style.c:819:22
	str	r0, [sp, #4]
	.loc	5 820 50 is_stmt 1              @ lvgl/src/lv_core/lv_style.c:820:50
	ldr	r0, [sp, #4]
	.loc	5 820 57 is_stmt 0              @ lvgl/src/lv_core/lv_style.c:820:57
	ldrh.w	r1, [sp, #30]
	add	r2, sp, #12
	.loc	5 820 30                        @ lvgl/src/lv_core/lv_style.c:820:30
	bl	_lv_style_get_color
	.loc	5 820 17                        @ lvgl/src/lv_core/lv_style.c:820:17
	strh.w	r0, [sp, #2]
.Ltmp410:
	.loc	5 822 12 is_stmt 1              @ lvgl/src/lv_core/lv_style.c:822:12
	ldrsh.w	r0, [sp, #2]
	.loc	5 822 26 is_stmt 0              @ lvgl/src/lv_core/lv_style.c:822:26
	ldrsh.w	r1, [sp, #20]
.Ltmp411:
	.loc	5 822 12                        @ lvgl/src/lv_core/lv_style.c:822:12
	cmp	r0, r1
	bne	.LBB35_8
	b	.LBB35_7
.LBB35_7:
.Ltmp412:
	.loc	5 823 14 is_stmt 1              @ lvgl/src/lv_core/lv_style.c:823:14
	ldr	r1, [sp, #24]
	.loc	5 823 20 is_stmt 0              @ lvgl/src/lv_core/lv_style.c:823:20
	ldr	r0, [sp, #12]
	str	r0, [r1]
	movs	r0, #1
	.loc	5 824 13 is_stmt 1              @ lvgl/src/lv_core/lv_style.c:824:13
	strb.w	r0, [sp, #39]
	b	.LBB35_22
.Ltmp413:
.LBB35_8:                               @   in Loop: Header=BB35_5 Depth=1
	.loc	5 826 17                        @ lvgl/src/lv_core/lv_style.c:826:17
	ldr	r0, [sp, #32]
	.loc	5 826 23 is_stmt 0              @ lvgl/src/lv_core/lv_style.c:826:23
	ldrb	r1, [r0, #4]
	movs	r0, #0
	.loc	5 826 33                        @ lvgl/src/lv_core/lv_style.c:826:33
	cmp.w	r0, r1, lsr #7
	beq	.LBB35_13
	b	.LBB35_9
.LBB35_9:                               @   in Loop: Header=BB35_5 Depth=1
	.loc	5 826 36                        @ lvgl/src/lv_core/lv_style.c:826:36
	ldrsh.w	r0, [sp, #2]
	.loc	5 826 52                        @ lvgl/src/lv_core/lv_style.c:826:52
	cmp	r0, #0
	bmi	.LBB35_13
	b	.LBB35_10
.LBB35_10:                              @   in Loop: Header=BB35_5 Depth=1
	.loc	5 826 55                        @ lvgl/src/lv_core/lv_style.c:826:55
	ldrsh.w	r0, [sp, #10]
	.loc	5 826 63                        @ lvgl/src/lv_core/lv_style.c:826:63
	cbnz	r0, .LBB35_13
	b	.LBB35_11
.LBB35_11:                              @   in Loop: Header=BB35_5 Depth=1
	.loc	5 826 67                        @ lvgl/src/lv_core/lv_style.c:826:67
	ldr	r0, [sp, #32]
	.loc	5 826 73                        @ lvgl/src/lv_core/lv_style.c:826:73
	ldrb	r0, [r0, #5]
.Ltmp414:
	.loc	5 826 17                        @ lvgl/src/lv_core/lv_style.c:826:17
	lsls	r0, r0, #31
	cbnz	r0, .LBB35_13
	b	.LBB35_12
.LBB35_12:
.Ltmp415:
	.loc	5 827 14 is_stmt 1              @ lvgl/src/lv_core/lv_style.c:827:14
	ldr	r1, [sp, #24]
	.loc	5 827 20 is_stmt 0              @ lvgl/src/lv_core/lv_style.c:827:20
	ldr	r0, [sp, #12]
	str	r0, [r1]
	movs	r0, #1
	.loc	5 828 13 is_stmt 1              @ lvgl/src/lv_core/lv_style.c:828:13
	strb.w	r0, [sp, #39]
	b	.LBB35_22
.Ltmp416:
.LBB35_13:                              @   in Loop: Header=BB35_5 Depth=1
	.loc	5 831 17                        @ lvgl/src/lv_core/lv_style.c:831:17
	ldrsh.w	r0, [sp, #2]
	.loc	5 831 30 is_stmt 0              @ lvgl/src/lv_core/lv_style.c:831:30
	ldrsh.w	r1, [sp, #18]
.Ltmp417:
	.loc	5 831 17                        @ lvgl/src/lv_core/lv_style.c:831:17
	cmp	r0, r1
	ble	.LBB35_15
	b	.LBB35_14
.LBB35_14:                              @   in Loop: Header=BB35_5 Depth=1
.Ltmp418:
	.loc	5 832 23 is_stmt 1              @ lvgl/src/lv_core/lv_style.c:832:23
	ldrh.w	r0, [sp, #2]
	.loc	5 832 20 is_stmt 0              @ lvgl/src/lv_core/lv_style.c:832:20
	strh.w	r0, [sp, #18]
	.loc	5 833 14 is_stmt 1              @ lvgl/src/lv_core/lv_style.c:833:14
	ldr	r1, [sp, #24]
	.loc	5 833 20 is_stmt 0              @ lvgl/src/lv_core/lv_style.c:833:20
	ldr	r0, [sp, #12]
	str	r0, [r1]
	.loc	5 834 9 is_stmt 1               @ lvgl/src/lv_core/lv_style.c:834:9
	b	.LBB35_15
.Ltmp419:
.LBB35_15:                              @   in Loop: Header=BB35_5 Depth=1
	.loc	5 0 9 is_stmt 0                 @ lvgl/src/lv_core/lv_style.c:0:9
	b	.LBB35_16
.LBB35_16:                              @   in Loop: Header=BB35_5 Depth=1
	b	.LBB35_17
.LBB35_17:                              @   in Loop: Header=BB35_5 Depth=1
	.loc	5 835 5 is_stmt 1               @ lvgl/src/lv_core/lv_style.c:835:5
	b	.LBB35_18
.Ltmp420:
.LBB35_18:                              @   in Loop: Header=BB35_5 Depth=1
	.loc	5 818 41                        @ lvgl/src/lv_core/lv_style.c:818:41
	ldrh.w	r0, [sp, #10]
	adds	r0, #1
	strh.w	r0, [sp, #10]
	.loc	5 818 5 is_stmt 0               @ lvgl/src/lv_core/lv_style.c:818:5
	b	.LBB35_5
.Ltmp421:
.LBB35_19:
	.loc	5 837 8 is_stmt 1               @ lvgl/src/lv_core/lv_style.c:837:8
	ldrsh.w	r0, [sp, #18]
.Ltmp422:
	.loc	5 837 8 is_stmt 0               @ lvgl/src/lv_core/lv_style.c:837:8
	cmp	r0, #0
	bmi	.LBB35_21
	b	.LBB35_20
.LBB35_20:
	.loc	5 0 8                           @ lvgl/src/lv_core/lv_style.c:0:8
	movs	r0, #1
.Ltmp423:
	.loc	5 837 22                        @ lvgl/src/lv_core/lv_style.c:837:22
	strb.w	r0, [sp, #39]
	b	.LBB35_22
.LBB35_21:
	.loc	5 0 22                          @ lvgl/src/lv_core/lv_style.c:0:22
	movs	r0, #0
	.loc	5 838 10 is_stmt 1              @ lvgl/src/lv_core/lv_style.c:838:10
	strb.w	r0, [sp, #39]
	b	.LBB35_22
.Ltmp424:
.LBB35_22:
	.loc	5 839 1                         @ lvgl/src/lv_core/lv_style.c:839:1
	ldrb.w	r0, [sp, #39]
	add	sp, #40
	pop	{r7, pc}
.Ltmp425:
.Lfunc_end35:
	.size	_lv_style_list_get_color, .Lfunc_end35-_lv_style_list_get_color
	.cfi_endproc
	.cantunwind
	.fnend
                                        @ -- End function
	.section	.text._lv_style_list_get_opa,"ax",%progbits
	.hidden	_lv_style_list_get_opa          @ -- Begin function _lv_style_list_get_opa
	.globl	_lv_style_list_get_opa
	.p2align	3
	.type	_lv_style_list_get_opa,%function
	.code	16                              @ @_lv_style_list_get_opa
	.thumb_func
_lv_style_list_get_opa:
.Lfunc_begin36:
	.loc	5 853 0                         @ lvgl/src/lv_core/lv_style.c:853:0
	.fnstart
	.cfi_startproc
@ %bb.0:
	.save	{r7, lr}
	push	{r7, lr}
	.cfi_def_cfa_offset 8
	.cfi_offset lr, -4
	.cfi_offset r7, -8
	.pad	#40
	sub	sp, #40
	.cfi_def_cfa_offset 48
                                        @ kill: def $r3 killed $r1
	str	r0, [sp, #32]
	strh.w	r1, [sp, #30]
	str	r2, [sp, #24]
.Ltmp426:
	.loc	5 856 8 prologue_end            @ lvgl/src/lv_core/lv_style.c:856:8
	ldr	r0, [sp, #32]
.Ltmp427:
	.loc	5 856 8 is_stmt 0               @ lvgl/src/lv_core/lv_style.c:856:8
	cbnz	r0, .LBB36_2
	b	.LBB36_1
.LBB36_1:
	.loc	5 0 8                           @ lvgl/src/lv_core/lv_style.c:0:8
	movs	r0, #0
.Ltmp428:
	.loc	5 856 22                        @ lvgl/src/lv_core/lv_style.c:856:22
	strb.w	r0, [sp, #39]
	b	.LBB36_22
.Ltmp429:
.LBB36_2:
	.loc	5 857 8 is_stmt 1               @ lvgl/src/lv_core/lv_style.c:857:8
	ldr	r0, [sp, #32]
	.loc	5 857 14 is_stmt 0              @ lvgl/src/lv_core/lv_style.c:857:14
	ldr	r0, [r0]
.Ltmp430:
	.loc	5 857 8                         @ lvgl/src/lv_core/lv_style.c:857:8
	cbnz	r0, .LBB36_4
	b	.LBB36_3
.LBB36_3:
	.loc	5 0 8                           @ lvgl/src/lv_core/lv_style.c:0:8
	movs	r0, #0
.Ltmp431:
	.loc	5 857 34                        @ lvgl/src/lv_core/lv_style.c:857:34
	strb.w	r0, [sp, #39]
	b	.LBB36_22
.Ltmp432:
.LBB36_4:
	.loc	5 860 12 is_stmt 1              @ lvgl/src/lv_core/lv_style.c:860:12
	ldrb.w	r0, [sp, #31]
	.loc	5 860 10 is_stmt 0              @ lvgl/src/lv_core/lv_style.c:860:10
	strb.w	r0, [sp, #23]
	.loc	5 861 27 is_stmt 1              @ lvgl/src/lv_core/lv_style.c:861:27
	ldrb.w	r0, [sp, #23]
	.loc	5 861 13 is_stmt 0              @ lvgl/src/lv_core/lv_style.c:861:13
	strh.w	r0, [sp, #20]
	movw	r0, #65535
	.loc	5 863 13 is_stmt 1              @ lvgl/src/lv_core/lv_style.c:863:13
	strh.w	r0, [sp, #18]
	movs	r0, #0
	.loc	5 865 14                        @ lvgl/src/lv_core/lv_style.c:865:14
	strb.w	r0, [sp, #17]
.Ltmp433:
	.loc	5 868 12                        @ lvgl/src/lv_core/lv_style.c:868:12
	strh.w	r0, [sp, #14]
	.loc	5 868 9 is_stmt 0               @ lvgl/src/lv_core/lv_style.c:868:9
	b	.LBB36_5
.LBB36_5:                               @ =>This Inner Loop Header: Depth=1
.Ltmp434:
	.loc	5 868 17                        @ lvgl/src/lv_core/lv_style.c:868:17
	ldrsh.w	r0, [sp, #14]
	.loc	5 868 22                        @ lvgl/src/lv_core/lv_style.c:868:22
	ldr	r1, [sp, #32]
	.loc	5 868 28                        @ lvgl/src/lv_core/lv_style.c:868:28
	ldrb	r1, [r1, #4]
	and	r1, r1, #63
.Ltmp435:
	.loc	5 868 5                         @ lvgl/src/lv_core/lv_style.c:868:5
	cmp	r0, r1
	bge	.LBB36_19
	b	.LBB36_6
.LBB36_6:                               @   in Loop: Header=BB36_5 Depth=1
.Ltmp436:
	.loc	5 869 54 is_stmt 1              @ lvgl/src/lv_core/lv_style.c:869:54
	ldr	r0, [sp, #32]
	.loc	5 869 60 is_stmt 0              @ lvgl/src/lv_core/lv_style.c:869:60
	ldrb.w	r1, [sp, #14]
	.loc	5 869 30                        @ lvgl/src/lv_core/lv_style.c:869:30
	bl	lv_style_list_get_style
	.loc	5 869 22                        @ lvgl/src/lv_core/lv_style.c:869:22
	str	r0, [sp, #8]
	.loc	5 870 48 is_stmt 1              @ lvgl/src/lv_core/lv_style.c:870:48
	ldr	r0, [sp, #8]
	.loc	5 870 55 is_stmt 0              @ lvgl/src/lv_core/lv_style.c:870:55
	ldrh.w	r1, [sp, #30]
	add.w	r2, sp, #17
	.loc	5 870 30                        @ lvgl/src/lv_core/lv_style.c:870:30
	bl	_lv_style_get_opa
	.loc	5 870 17                        @ lvgl/src/lv_core/lv_style.c:870:17
	strh.w	r0, [sp, #6]
.Ltmp437:
	.loc	5 872 12 is_stmt 1              @ lvgl/src/lv_core/lv_style.c:872:12
	ldrsh.w	r0, [sp, #6]
	.loc	5 872 26 is_stmt 0              @ lvgl/src/lv_core/lv_style.c:872:26
	ldrsh.w	r1, [sp, #20]
.Ltmp438:
	.loc	5 872 12                        @ lvgl/src/lv_core/lv_style.c:872:12
	cmp	r0, r1
	bne	.LBB36_8
	b	.LBB36_7
.LBB36_7:
.Ltmp439:
	.loc	5 873 20 is_stmt 1              @ lvgl/src/lv_core/lv_style.c:873:20
	ldrb.w	r0, [sp, #17]
	.loc	5 873 14 is_stmt 0              @ lvgl/src/lv_core/lv_style.c:873:14
	ldr	r1, [sp, #24]
	.loc	5 873 18                        @ lvgl/src/lv_core/lv_style.c:873:18
	strb	r0, [r1]
	movs	r0, #1
	.loc	5 874 13 is_stmt 1              @ lvgl/src/lv_core/lv_style.c:874:13
	strb.w	r0, [sp, #39]
	b	.LBB36_22
.Ltmp440:
.LBB36_8:                               @   in Loop: Header=BB36_5 Depth=1
	.loc	5 876 17                        @ lvgl/src/lv_core/lv_style.c:876:17
	ldr	r0, [sp, #32]
	.loc	5 876 23 is_stmt 0              @ lvgl/src/lv_core/lv_style.c:876:23
	ldrb	r1, [r0, #4]
	movs	r0, #0
	.loc	5 876 33                        @ lvgl/src/lv_core/lv_style.c:876:33
	cmp.w	r0, r1, lsr #7
	beq	.LBB36_13
	b	.LBB36_9
.LBB36_9:                               @   in Loop: Header=BB36_5 Depth=1
	.loc	5 876 36                        @ lvgl/src/lv_core/lv_style.c:876:36
	ldrsh.w	r0, [sp, #6]
	.loc	5 876 52                        @ lvgl/src/lv_core/lv_style.c:876:52
	cmp	r0, #0
	bmi	.LBB36_13
	b	.LBB36_10
.LBB36_10:                              @   in Loop: Header=BB36_5 Depth=1
	.loc	5 876 55                        @ lvgl/src/lv_core/lv_style.c:876:55
	ldrsh.w	r0, [sp, #14]
	.loc	5 876 63                        @ lvgl/src/lv_core/lv_style.c:876:63
	cbnz	r0, .LBB36_13
	b	.LBB36_11
.LBB36_11:                              @   in Loop: Header=BB36_5 Depth=1
	.loc	5 876 67                        @ lvgl/src/lv_core/lv_style.c:876:67
	ldr	r0, [sp, #32]
	.loc	5 876 73                        @ lvgl/src/lv_core/lv_style.c:876:73
	ldrb	r0, [r0, #5]
.Ltmp441:
	.loc	5 876 17                        @ lvgl/src/lv_core/lv_style.c:876:17
	lsls	r0, r0, #31
	cbnz	r0, .LBB36_13
	b	.LBB36_12
.LBB36_12:
.Ltmp442:
	.loc	5 877 20 is_stmt 1              @ lvgl/src/lv_core/lv_style.c:877:20
	ldrb.w	r0, [sp, #17]
	.loc	5 877 14 is_stmt 0              @ lvgl/src/lv_core/lv_style.c:877:14
	ldr	r1, [sp, #24]
	.loc	5 877 18                        @ lvgl/src/lv_core/lv_style.c:877:18
	strb	r0, [r1]
	movs	r0, #1
	.loc	5 878 13 is_stmt 1              @ lvgl/src/lv_core/lv_style.c:878:13
	strb.w	r0, [sp, #39]
	b	.LBB36_22
.Ltmp443:
.LBB36_13:                              @   in Loop: Header=BB36_5 Depth=1
	.loc	5 881 17                        @ lvgl/src/lv_core/lv_style.c:881:17
	ldrsh.w	r0, [sp, #6]
	.loc	5 881 30 is_stmt 0              @ lvgl/src/lv_core/lv_style.c:881:30
	ldrsh.w	r1, [sp, #18]
.Ltmp444:
	.loc	5 881 17                        @ lvgl/src/lv_core/lv_style.c:881:17
	cmp	r0, r1
	ble	.LBB36_15
	b	.LBB36_14
.LBB36_14:                              @   in Loop: Header=BB36_5 Depth=1
.Ltmp445:
	.loc	5 882 23 is_stmt 1              @ lvgl/src/lv_core/lv_style.c:882:23
	ldrh.w	r0, [sp, #6]
	.loc	5 882 20 is_stmt 0              @ lvgl/src/lv_core/lv_style.c:882:20
	strh.w	r0, [sp, #18]
	.loc	5 883 20 is_stmt 1              @ lvgl/src/lv_core/lv_style.c:883:20
	ldrb.w	r0, [sp, #17]
	.loc	5 883 14 is_stmt 0              @ lvgl/src/lv_core/lv_style.c:883:14
	ldr	r1, [sp, #24]
	.loc	5 883 18                        @ lvgl/src/lv_core/lv_style.c:883:18
	strb	r0, [r1]
	.loc	5 884 9 is_stmt 1               @ lvgl/src/lv_core/lv_style.c:884:9
	b	.LBB36_15
.Ltmp446:
.LBB36_15:                              @   in Loop: Header=BB36_5 Depth=1
	.loc	5 0 9 is_stmt 0                 @ lvgl/src/lv_core/lv_style.c:0:9
	b	.LBB36_16
.LBB36_16:                              @   in Loop: Header=BB36_5 Depth=1
	b	.LBB36_17
.LBB36_17:                              @   in Loop: Header=BB36_5 Depth=1
	.loc	5 885 5 is_stmt 1               @ lvgl/src/lv_core/lv_style.c:885:5
	b	.LBB36_18
.Ltmp447:
.LBB36_18:                              @   in Loop: Header=BB36_5 Depth=1
	.loc	5 868 41                        @ lvgl/src/lv_core/lv_style.c:868:41
	ldrh.w	r0, [sp, #14]
	adds	r0, #1
	strh.w	r0, [sp, #14]
	.loc	5 868 5 is_stmt 0               @ lvgl/src/lv_core/lv_style.c:868:5
	b	.LBB36_5
.Ltmp448:
.LBB36_19:
	.loc	5 887 8 is_stmt 1               @ lvgl/src/lv_core/lv_style.c:887:8
	ldrsh.w	r0, [sp, #18]
.Ltmp449:
	.loc	5 887 8 is_stmt 0               @ lvgl/src/lv_core/lv_style.c:887:8
	cmp	r0, #0
	bmi	.LBB36_21
	b	.LBB36_20
.LBB36_20:
	.loc	5 0 8                           @ lvgl/src/lv_core/lv_style.c:0:8
	movs	r0, #1
.Ltmp450:
	.loc	5 887 22                        @ lvgl/src/lv_core/lv_style.c:887:22
	strb.w	r0, [sp, #39]
	b	.LBB36_22
.LBB36_21:
	.loc	5 0 22                          @ lvgl/src/lv_core/lv_style.c:0:22
	movs	r0, #0
	.loc	5 888 10 is_stmt 1              @ lvgl/src/lv_core/lv_style.c:888:10
	strb.w	r0, [sp, #39]
	b	.LBB36_22
.Ltmp451:
.LBB36_22:
	.loc	5 889 1                         @ lvgl/src/lv_core/lv_style.c:889:1
	ldrb.w	r0, [sp, #39]
	add	sp, #40
	pop	{r7, pc}
.Ltmp452:
.Lfunc_end36:
	.size	_lv_style_list_get_opa, .Lfunc_end36-_lv_style_list_get_opa
	.cfi_endproc
	.cantunwind
	.fnend
                                        @ -- End function
	.section	.text._lv_style_list_get_ptr,"ax",%progbits
	.hidden	_lv_style_list_get_ptr          @ -- Begin function _lv_style_list_get_ptr
	.globl	_lv_style_list_get_ptr
	.p2align	3
	.type	_lv_style_list_get_ptr,%function
	.code	16                              @ @_lv_style_list_get_ptr
	.thumb_func
_lv_style_list_get_ptr:
.Lfunc_begin37:
	.loc	5 903 0                         @ lvgl/src/lv_core/lv_style.c:903:0
	.fnstart
	.cfi_startproc
@ %bb.0:
	.save	{r7, lr}
	push	{r7, lr}
	.cfi_def_cfa_offset 8
	.cfi_offset lr, -4
	.cfi_offset r7, -8
	.pad	#40
	sub	sp, #40
	.cfi_def_cfa_offset 48
                                        @ kill: def $r3 killed $r1
	str	r0, [sp, #32]
	strh.w	r1, [sp, #30]
	str	r2, [sp, #24]
.Ltmp453:
	.loc	5 906 8 prologue_end            @ lvgl/src/lv_core/lv_style.c:906:8
	ldr	r0, [sp, #32]
.Ltmp454:
	.loc	5 906 8 is_stmt 0               @ lvgl/src/lv_core/lv_style.c:906:8
	cbnz	r0, .LBB37_2
	b	.LBB37_1
.LBB37_1:
	.loc	5 0 8                           @ lvgl/src/lv_core/lv_style.c:0:8
	movs	r0, #0
.Ltmp455:
	.loc	5 906 22                        @ lvgl/src/lv_core/lv_style.c:906:22
	strb.w	r0, [sp, #39]
	b	.LBB37_22
.Ltmp456:
.LBB37_2:
	.loc	5 907 8 is_stmt 1               @ lvgl/src/lv_core/lv_style.c:907:8
	ldr	r0, [sp, #32]
	.loc	5 907 14 is_stmt 0              @ lvgl/src/lv_core/lv_style.c:907:14
	ldr	r0, [r0]
.Ltmp457:
	.loc	5 907 8                         @ lvgl/src/lv_core/lv_style.c:907:8
	cbnz	r0, .LBB37_4
	b	.LBB37_3
.LBB37_3:
	.loc	5 0 8                           @ lvgl/src/lv_core/lv_style.c:0:8
	movs	r0, #0
.Ltmp458:
	.loc	5 907 34                        @ lvgl/src/lv_core/lv_style.c:907:34
	strb.w	r0, [sp, #39]
	b	.LBB37_22
.Ltmp459:
.LBB37_4:
	.loc	5 910 12 is_stmt 1              @ lvgl/src/lv_core/lv_style.c:910:12
	ldrb.w	r0, [sp, #31]
	.loc	5 910 10 is_stmt 0              @ lvgl/src/lv_core/lv_style.c:910:10
	strb.w	r0, [sp, #23]
	.loc	5 911 27 is_stmt 1              @ lvgl/src/lv_core/lv_style.c:911:27
	ldrb.w	r0, [sp, #23]
	.loc	5 911 13 is_stmt 0              @ lvgl/src/lv_core/lv_style.c:911:13
	strh.w	r0, [sp, #20]
	movw	r0, #65535
	.loc	5 913 13 is_stmt 1              @ lvgl/src/lv_core/lv_style.c:913:13
	strh.w	r0, [sp, #18]
	movs	r0, #0
.Ltmp460:
	.loc	5 918 12                        @ lvgl/src/lv_core/lv_style.c:918:12
	strh.w	r0, [sp, #10]
	.loc	5 918 9 is_stmt 0               @ lvgl/src/lv_core/lv_style.c:918:9
	b	.LBB37_5
.LBB37_5:                               @ =>This Inner Loop Header: Depth=1
.Ltmp461:
	.loc	5 918 17                        @ lvgl/src/lv_core/lv_style.c:918:17
	ldrsh.w	r0, [sp, #10]
	.loc	5 918 22                        @ lvgl/src/lv_core/lv_style.c:918:22
	ldr	r1, [sp, #32]
	.loc	5 918 28                        @ lvgl/src/lv_core/lv_style.c:918:28
	ldrb	r1, [r1, #4]
	and	r1, r1, #63
.Ltmp462:
	.loc	5 918 5                         @ lvgl/src/lv_core/lv_style.c:918:5
	cmp	r0, r1
	bge	.LBB37_19
	b	.LBB37_6
.LBB37_6:                               @   in Loop: Header=BB37_5 Depth=1
.Ltmp463:
	.loc	5 919 54 is_stmt 1              @ lvgl/src/lv_core/lv_style.c:919:54
	ldr	r0, [sp, #32]
	.loc	5 919 60 is_stmt 0              @ lvgl/src/lv_core/lv_style.c:919:60
	ldrb.w	r1, [sp, #10]
	.loc	5 919 30                        @ lvgl/src/lv_core/lv_style.c:919:30
	bl	lv_style_list_get_style
	.loc	5 919 22                        @ lvgl/src/lv_core/lv_style.c:919:22
	str	r0, [sp, #4]
	.loc	5 920 48 is_stmt 1              @ lvgl/src/lv_core/lv_style.c:920:48
	ldr	r0, [sp, #4]
	.loc	5 920 55 is_stmt 0              @ lvgl/src/lv_core/lv_style.c:920:55
	ldrh.w	r1, [sp, #30]
	add	r2, sp, #12
	.loc	5 920 30                        @ lvgl/src/lv_core/lv_style.c:920:30
	bl	_lv_style_get_ptr
	.loc	5 920 17                        @ lvgl/src/lv_core/lv_style.c:920:17
	strh.w	r0, [sp, #2]
.Ltmp464:
	.loc	5 922 12 is_stmt 1              @ lvgl/src/lv_core/lv_style.c:922:12
	ldrsh.w	r0, [sp, #2]
	.loc	5 922 26 is_stmt 0              @ lvgl/src/lv_core/lv_style.c:922:26
	ldrsh.w	r1, [sp, #20]
.Ltmp465:
	.loc	5 922 12                        @ lvgl/src/lv_core/lv_style.c:922:12
	cmp	r0, r1
	bne	.LBB37_8
	b	.LBB37_7
.LBB37_7:
.Ltmp466:
	.loc	5 923 20 is_stmt 1              @ lvgl/src/lv_core/lv_style.c:923:20
	ldr	r0, [sp, #12]
	.loc	5 923 14 is_stmt 0              @ lvgl/src/lv_core/lv_style.c:923:14
	ldr	r1, [sp, #24]
	.loc	5 923 18                        @ lvgl/src/lv_core/lv_style.c:923:18
	str	r0, [r1]
	movs	r0, #1
	.loc	5 924 13 is_stmt 1              @ lvgl/src/lv_core/lv_style.c:924:13
	strb.w	r0, [sp, #39]
	b	.LBB37_22
.Ltmp467:
.LBB37_8:                               @   in Loop: Header=BB37_5 Depth=1
	.loc	5 926 17                        @ lvgl/src/lv_core/lv_style.c:926:17
	ldr	r0, [sp, #32]
	.loc	5 926 23 is_stmt 0              @ lvgl/src/lv_core/lv_style.c:926:23
	ldrb	r1, [r0, #4]
	movs	r0, #0
	.loc	5 926 33                        @ lvgl/src/lv_core/lv_style.c:926:33
	cmp.w	r0, r1, lsr #7
	beq	.LBB37_13
	b	.LBB37_9
.LBB37_9:                               @   in Loop: Header=BB37_5 Depth=1
	.loc	5 926 36                        @ lvgl/src/lv_core/lv_style.c:926:36
	ldrsh.w	r0, [sp, #2]
	.loc	5 926 52                        @ lvgl/src/lv_core/lv_style.c:926:52
	cmp	r0, #0
	bmi	.LBB37_13
	b	.LBB37_10
.LBB37_10:                              @   in Loop: Header=BB37_5 Depth=1
	.loc	5 926 55                        @ lvgl/src/lv_core/lv_style.c:926:55
	ldrsh.w	r0, [sp, #10]
	.loc	5 926 63                        @ lvgl/src/lv_core/lv_style.c:926:63
	cbnz	r0, .LBB37_13
	b	.LBB37_11
.LBB37_11:                              @   in Loop: Header=BB37_5 Depth=1
	.loc	5 926 67                        @ lvgl/src/lv_core/lv_style.c:926:67
	ldr	r0, [sp, #32]
	.loc	5 926 73                        @ lvgl/src/lv_core/lv_style.c:926:73
	ldrb	r0, [r0, #5]
.Ltmp468:
	.loc	5 926 17                        @ lvgl/src/lv_core/lv_style.c:926:17
	lsls	r0, r0, #31
	cbnz	r0, .LBB37_13
	b	.LBB37_12
.LBB37_12:
.Ltmp469:
	.loc	5 927 20 is_stmt 1              @ lvgl/src/lv_core/lv_style.c:927:20
	ldr	r0, [sp, #12]
	.loc	5 927 14 is_stmt 0              @ lvgl/src/lv_core/lv_style.c:927:14
	ldr	r1, [sp, #24]
	.loc	5 927 18                        @ lvgl/src/lv_core/lv_style.c:927:18
	str	r0, [r1]
	movs	r0, #1
	.loc	5 928 13 is_stmt 1              @ lvgl/src/lv_core/lv_style.c:928:13
	strb.w	r0, [sp, #39]
	b	.LBB37_22
.Ltmp470:
.LBB37_13:                              @   in Loop: Header=BB37_5 Depth=1
	.loc	5 931 17                        @ lvgl/src/lv_core/lv_style.c:931:17
	ldrsh.w	r0, [sp, #2]
	.loc	5 931 30 is_stmt 0              @ lvgl/src/lv_core/lv_style.c:931:30
	ldrsh.w	r1, [sp, #18]
.Ltmp471:
	.loc	5 931 17                        @ lvgl/src/lv_core/lv_style.c:931:17
	cmp	r0, r1
	ble	.LBB37_15
	b	.LBB37_14
.LBB37_14:                              @   in Loop: Header=BB37_5 Depth=1
.Ltmp472:
	.loc	5 932 23 is_stmt 1              @ lvgl/src/lv_core/lv_style.c:932:23
	ldrh.w	r0, [sp, #2]
	.loc	5 932 20 is_stmt 0              @ lvgl/src/lv_core/lv_style.c:932:20
	strh.w	r0, [sp, #18]
	.loc	5 933 20 is_stmt 1              @ lvgl/src/lv_core/lv_style.c:933:20
	ldr	r0, [sp, #12]
	.loc	5 933 14 is_stmt 0              @ lvgl/src/lv_core/lv_style.c:933:14
	ldr	r1, [sp, #24]
	.loc	5 933 18                        @ lvgl/src/lv_core/lv_style.c:933:18
	str	r0, [r1]
	.loc	5 934 9 is_stmt 1               @ lvgl/src/lv_core/lv_style.c:934:9
	b	.LBB37_15
.Ltmp473:
.LBB37_15:                              @   in Loop: Header=BB37_5 Depth=1
	.loc	5 0 9 is_stmt 0                 @ lvgl/src/lv_core/lv_style.c:0:9
	b	.LBB37_16
.LBB37_16:                              @   in Loop: Header=BB37_5 Depth=1
	b	.LBB37_17
.LBB37_17:                              @   in Loop: Header=BB37_5 Depth=1
	.loc	5 935 5 is_stmt 1               @ lvgl/src/lv_core/lv_style.c:935:5
	b	.LBB37_18
.Ltmp474:
.LBB37_18:                              @   in Loop: Header=BB37_5 Depth=1
	.loc	5 918 41                        @ lvgl/src/lv_core/lv_style.c:918:41
	ldrh.w	r0, [sp, #10]
	adds	r0, #1
	strh.w	r0, [sp, #10]
	.loc	5 918 5 is_stmt 0               @ lvgl/src/lv_core/lv_style.c:918:5
	b	.LBB37_5
.Ltmp475:
.LBB37_19:
	.loc	5 937 8 is_stmt 1               @ lvgl/src/lv_core/lv_style.c:937:8
	ldrsh.w	r0, [sp, #18]
.Ltmp476:
	.loc	5 937 8 is_stmt 0               @ lvgl/src/lv_core/lv_style.c:937:8
	cmp	r0, #0
	bmi	.LBB37_21
	b	.LBB37_20
.LBB37_20:
	.loc	5 0 8                           @ lvgl/src/lv_core/lv_style.c:0:8
	movs	r0, #1
.Ltmp477:
	.loc	5 937 22                        @ lvgl/src/lv_core/lv_style.c:937:22
	strb.w	r0, [sp, #39]
	b	.LBB37_22
.LBB37_21:
	.loc	5 0 22                          @ lvgl/src/lv_core/lv_style.c:0:22
	movs	r0, #0
	.loc	5 938 10 is_stmt 1              @ lvgl/src/lv_core/lv_style.c:938:10
	strb.w	r0, [sp, #39]
	b	.LBB37_22
.Ltmp478:
.LBB37_22:
	.loc	5 939 1                         @ lvgl/src/lv_core/lv_style.c:939:1
	ldrb.w	r0, [sp, #39]
	add	sp, #40
	pop	{r7, pc}
.Ltmp479:
.Lfunc_end37:
	.size	_lv_style_list_get_ptr, .Lfunc_end37-_lv_style_list_get_ptr
	.cfi_endproc
	.cantunwind
	.fnend
                                        @ -- End function
	.section	.text.lv_debug_check_style,"ax",%progbits
	.hidden	lv_debug_check_style            @ -- Begin function lv_debug_check_style
	.globl	lv_debug_check_style
	.p2align	3
	.type	lv_debug_check_style,%function
	.code	16                              @ @lv_debug_check_style
	.thumb_func
lv_debug_check_style:
.Lfunc_begin38:
	.loc	5 947 0                         @ lvgl/src/lv_core/lv_style.c:947:0
	.fnstart
	.cfi_startproc
@ %bb.0:
	.pad	#8
	sub	sp, #8
	.cfi_def_cfa_offset 8
	str	r0, [sp]
.Ltmp480:
	.loc	5 948 8 prologue_end            @ lvgl/src/lv_core/lv_style.c:948:8
	ldr	r0, [sp]
.Ltmp481:
	.loc	5 948 8 is_stmt 0               @ lvgl/src/lv_core/lv_style.c:948:8
	cbnz	r0, .LBB38_2
	b	.LBB38_1
.LBB38_1:
	.loc	5 0 8                           @ lvgl/src/lv_core/lv_style.c:0:8
	movs	r0, #1
.Ltmp482:
	.loc	5 948 23                        @ lvgl/src/lv_core/lv_style.c:948:23
	strb.w	r0, [sp, #7]
	b	.LBB38_3
.Ltmp483:
.LBB38_2:
	.loc	5 0 23                          @ lvgl/src/lv_core/lv_style.c:0:23
	movs	r0, #1
	.loc	5 957 5 is_stmt 1               @ lvgl/src/lv_core/lv_style.c:957:5
	strb.w	r0, [sp, #7]
	b	.LBB38_3
.LBB38_3:
	.loc	5 958 1                         @ lvgl/src/lv_core/lv_style.c:958:1
	ldrb.w	r0, [sp, #7]
	add	sp, #8
	bx	lr
.Ltmp484:
.Lfunc_end38:
	.size	lv_debug_check_style, .Lfunc_end38-lv_debug_check_style
	.cfi_endproc
	.cantunwind
	.fnend
                                        @ -- End function
	.section	.text.lv_debug_check_style_list,"ax",%progbits
	.hidden	lv_debug_check_style_list       @ -- Begin function lv_debug_check_style_list
	.globl	lv_debug_check_style_list
	.p2align	3
	.type	lv_debug_check_style_list,%function
	.code	16                              @ @lv_debug_check_style_list
	.thumb_func
lv_debug_check_style_list:
.Lfunc_begin39:
	.loc	5 966 0                         @ lvgl/src/lv_core/lv_style.c:966:0
	.fnstart
	.cfi_startproc
@ %bb.0:
	.pad	#8
	sub	sp, #8
	.cfi_def_cfa_offset 8
	str	r0, [sp]
.Ltmp485:
	.loc	5 967 8 prologue_end            @ lvgl/src/lv_core/lv_style.c:967:8
	ldr	r0, [sp]
.Ltmp486:
	.loc	5 967 8 is_stmt 0               @ lvgl/src/lv_core/lv_style.c:967:8
	cbnz	r0, .LBB39_2
	b	.LBB39_1
.LBB39_1:
	.loc	5 0 8                           @ lvgl/src/lv_core/lv_style.c:0:8
	movs	r0, #1
.Ltmp487:
	.loc	5 967 22                        @ lvgl/src/lv_core/lv_style.c:967:22
	strb.w	r0, [sp, #7]
	b	.LBB39_3
.Ltmp488:
.LBB39_2:
	.loc	5 0 22                          @ lvgl/src/lv_core/lv_style.c:0:22
	movs	r0, #1
	.loc	5 976 5 is_stmt 1               @ lvgl/src/lv_core/lv_style.c:976:5
	strb.w	r0, [sp, #7]
	b	.LBB39_3
.LBB39_3:
	.loc	5 977 1                         @ lvgl/src/lv_core/lv_style.c:977:1
	ldrb.w	r0, [sp, #7]
	add	sp, #8
	bx	lr
.Ltmp489:
.Lfunc_end39:
	.size	lv_debug_check_style_list, .Lfunc_end39-lv_debug_check_style_list
	.cfi_endproc
	.cantunwind
	.fnend
                                        @ -- End function
	.section	.text.get_style_prop,"ax",%progbits
	.p2align	3                               @ -- Begin function get_style_prop
	.type	get_style_prop,%function
	.code	16                              @ @get_style_prop
	.thumb_func
get_style_prop:
.Lfunc_begin40:
	.loc	5 1081 0                        @ lvgl/src/lv_core/lv_style.c:1081:0
	.fnstart
	.cfi_startproc
@ %bb.0:
	.save	{r7, lr}
	push	{r7, lr}
	.cfi_def_cfa_offset 8
	.cfi_offset lr, -4
	.cfi_offset r7, -8
	.pad	#16
	sub	sp, #16
	.cfi_def_cfa_offset 24
	str	r0, [sp, #12]
	str	r1, [sp, #8]
.Ltmp490:
	.loc	5 1083 30 prologue_end          @ lvgl/src/lv_core/lv_style.c:1083:30
	ldr	r0, [sp, #12]
	.loc	5 1083 37 is_stmt 0             @ lvgl/src/lv_core/lv_style.c:1083:37
	ldr	r0, [r0]
	.loc	5 1083 41                       @ lvgl/src/lv_core/lv_style.c:1083:41
	ldr	r1, [sp, #8]
	.loc	5 1083 30                       @ lvgl/src/lv_core/lv_style.c:1083:30
	add	r1, r0
	add.w	r0, sp, #6
	movs	r2, #2
	.loc	5 1083 5                        @ lvgl/src/lv_core/lv_style.c:1083:5
	bl	_lv_memcpy_small
	.loc	5 1084 12 is_stmt 1             @ lvgl/src/lv_core/lv_style.c:1084:12
	ldrh.w	r0, [sp, #6]
	.loc	5 1084 5 is_stmt 0              @ lvgl/src/lv_core/lv_style.c:1084:5
	add	sp, #16
	pop	{r7, pc}
.Ltmp491:
.Lfunc_end40:
	.size	get_style_prop, .Lfunc_end40-get_style_prop
	.cfi_endproc
	.cantunwind
	.fnend
                                        @ -- End function
	.type	.L.str,%object                  @ @.str
	.section	.rodata.str1.1,"aMS",%progbits,1
.L.str:
	.asciz	"Out of memory"
	.size	.L.str, 14

	.file	7 "D:\\Keil_v5\\ARM\\ARMCLANG\\Bin\\..\\include" "stddef.h"
	.section	".note.GNU-stack","",%progbits
	.eabi_attribute	30, 6	@ Tag_ABI_optimization_goals
	.ARM_attribute	16, 1	@ Tag_AV_eba