	.text
	.syntax unified
	.eabi_attribute	67, "2.09"	@ Tag_conformance
	.cpu	cortex-m7
	.eabi_attribute	6, 13	@ Tag_CPU_arch
	.eabi_attribute	7, 77	@ Tag_CPU_arch_profile
	.eabi_attribute	8, 0	@ Tag_ARM_ISA_use
	.eabi_attribute	9, 2	@ Tag_THUMB_ISA_use
	.fpu	fpv5-d16
	.eabi_attribute	36, 1	@ Tag_FP_HP_extension
	.eabi_attribute	34, 1	@ Tag_CPU_unaligned_access
	.eabi_attribute	17, 1	@ Tag_ABI_PCS_GOT_use
	.eabi_attribute	20, 2	@ Tag_ABI_FP_denormal
	.eabi_attribute	21, 0	@ Tag_ABI_FP_exceptions
	.eabi_attribute	23, 1	@ Tag_ABI_FP_number_model
	.eabi_attribute	24, 1	@ Tag_ABI_align_needed
	.eabi_attribute	25, 1	@ Tag_ABI_align_preserved
	.eabi_attribute	28, 1	@ Tag_ABI_VFP_args
	.eabi_attribute	38, 1	@ Tag_ABI_FP_16bit_format
	.eabi_attribute	18, 2	@ Tag_ABI_PCS_wchar_t
	.eabi_attribute	26, 1	@ Tag_ABI_enum_size
	.eabi_attribute	14, 0	@ Tag_ABI_PCS_R9_use
	.file	"lv_spinner.c"
	.file	1 "D:\\Keil_v5\\ARM\\ARMCLANG\\Bin\\..\\include" "stdint.h"
	.file	2 "E:\\STM32\\Learning\\STM32H750_ART_PI_RGBLCD" "lvgl/src/lv_widgets/../lv_core/../lv_draw/../lv_misc/lv_types.h"
	.file	3 "E:\\STM32\\Learning\\STM32H750_ART_PI_RGBLCD" "lvgl/src/lv_widgets/../lv_themes/../lv_core/lv_obj.h"
	.file	4 "E:\\STM32\\Learning\\STM32H750_ART_PI_RGBLCD" "lvgl/src/lv_widgets/../lv_core/../lv_font/../lv_misc/lv_ll.h"
	.file	5 "E:\\STM32\\Learning\\STM32H750_ART_PI_RGBLCD" "./lvgl/src/lv_conf.h"
	.file	6 "E:\\STM32\\Learning\\STM32H750_ART_PI_RGBLCD" "lvgl/src/lv_widgets/../lv_core/../lv_hal/../lv_misc/lv_area.h"
	.file	7 "E:\\STM32\\Learning\\STM32H750_ART_PI_RGBLCD" "lvgl/src/lv_widgets/../lv_themes/../lv_core/lv_style.h"
	.file	8 "E:\\STM32\\Learning\\STM32H750_ART_PI_RGBLCD" "lvgl/src/lv_widgets/../lv_core/../lv_hal/lv_hal_indev.h"
	.file	9 "E:\\STM32\\Learning\\STM32H750_ART_PI_RGBLCD" "lvgl/src/lv_widgets/../lv_core/../lv_draw/../lv_misc/lv_bidi.h"
	.file	10 "E:\\STM32\\Learning\\STM32H750_ART_PI_RGBLCD" "lvgl/src/lv_widgets/lv_spinner.c"
	.file	11 "E:\\STM32\\Learning\\STM32H750_ART_PI_RGBLCD" "lvgl/src/lv_widgets/lv_spinner.h"
	.file	12 "E:\\STM32\\Learning\\STM32H750_ART_PI_RGBLCD" "lvgl/src/lv_widgets/../lv_themes/lv_theme.h"
	.file	13 "E:\\STM32\\Learning\\STM32H750_ART_PI_RGBLCD" "lvgl/src/lv_widgets/../lv_misc/lv_anim.h"
	.section	.text.lv_spinner_create,"ax",%progbits
	.hidden	lv_spinner_create               @ -- Begin function lv_spinner_create
	.globl	lv_spinner_create
	.p2align	3
	.type	lv_spinner_create,%function
	.code	16                              @ @lv_spinner_create
	.thumb_func
lv_spinner_create:
.Lfunc_begin0:
	.loc	10 66 0                         @ lvgl/src/lv_widgets/lv_spinner.c:66:0
	.fnstart
	.cfi_sections .debug_frame
	.cfi_startproc
@ %bb.0:
	.save	{r7, lr}
	push	{r7, lr}
	.cfi_def_cfa_offset 8
	.cfi_offset lr, -4
	.cfi_offset r7, -8
	.pad	#24
	sub	sp, #24
	.cfi_def_cfa_offset 32
	str	r0, [sp, #16]
	str	r1, [sp, #12]
.Ltmp0:
	.loc	10 70 40 prologue_end           @ lvgl/src/lv_widgets/lv_spinner.c:70:40
	ldr	r0, [sp, #16]
	.loc	10 70 45 is_stmt 0              @ lvgl/src/lv_widgets/lv_spinner.c:70:45
	ldr	r1, [sp, #12]
	.loc	10 70 26                        @ lvgl/src/lv_widgets/lv_spinner.c:70:26
	bl	lv_arc_create
	.loc	10 70 16                        @ lvgl/src/lv_widgets/lv_spinner.c:70:16
	str	r0, [sp, #8]
	.loc	10 71 5 is_stmt 1               @ lvgl/src/lv_widgets/lv_spinner.c:71:5
	b	.LBB0_1
.LBB0_1:
.Ltmp1:
	.loc	10 71 5 is_stmt 0               @ lvgl/src/lv_widgets/lv_spinner.c:71:5
	ldr	r0, [sp, #8]
	bl	lv_debug_check_null
.Ltmp2:
	.loc	10 71 5                         @ lvgl/src/lv_widgets/lv_spinner.c:71:5
	cbnz	r0, .LBB0_4
	b	.LBB0_2
.LBB0_2:
.Ltmp3:
	.loc	10 71 5                         @ lvgl/src/lv_widgets/lv_spinner.c:71:5
	ldr	r2, [sp, #8]
	movw	r0, :lower16:.L.str
	movt	r0, :upper16:.L.str
	movs	r3, #0
	bl	lv_debug_log_error
	b	.LBB0_3
.LBB0_3:                                @ =>This Inner Loop Header: Depth=1
	b	.LBB0_3
.Ltmp4:
.LBB0_4:
	.loc	10 71 5                         @ lvgl/src/lv_widgets/lv_spinner.c:71:5
	b	.LBB0_5
.Ltmp5:
.LBB0_5:
	.loc	10 72 8 is_stmt 1               @ lvgl/src/lv_widgets/lv_spinner.c:72:8
	ldr	r0, [sp, #8]
.Ltmp6:
	.loc	10 72 8 is_stmt 0               @ lvgl/src/lv_widgets/lv_spinner.c:72:8
	cbnz	r0, .LBB0_7
	b	.LBB0_6
.LBB0_6:
	.loc	10 0 8                          @ lvgl/src/lv_widgets/lv_spinner.c:0:8
	movs	r0, #0
.Ltmp7:
	.loc	10 72 25                        @ lvgl/src/lv_widgets/lv_spinner.c:72:25
	str	r0, [sp, #20]
	b	.LBB0_22
.Ltmp8:
.LBB0_7:
	.loc	10 75 55 is_stmt 1              @ lvgl/src/lv_widgets/lv_spinner.c:75:55
	ldr	r0, [sp, #8]
	movs	r1, #56
	.loc	10 75 30 is_stmt 0              @ lvgl/src/lv_widgets/lv_spinner.c:75:30
	bl	lv_obj_allocate_ext_attr
	.loc	10 75 24                        @ lvgl/src/lv_widgets/lv_spinner.c:75:24
	str	r0, [sp, #4]
	.loc	10 76 5 is_stmt 1               @ lvgl/src/lv_widgets/lv_spinner.c:76:5
	b	.LBB0_8
.LBB0_8:
.Ltmp9:
	.loc	10 76 5 is_stmt 0               @ lvgl/src/lv_widgets/lv_spinner.c:76:5
	ldr	r0, [sp, #4]
	bl	lv_debug_check_null
.Ltmp10:
	.loc	10 76 5                         @ lvgl/src/lv_widgets/lv_spinner.c:76:5
	cbnz	r0, .LBB0_11
	b	.LBB0_9
.LBB0_9:
.Ltmp11:
	.loc	10 76 5                         @ lvgl/src/lv_widgets/lv_spinner.c:76:5
	ldr	r2, [sp, #4]
	movw	r0, :lower16:.L.str
	movt	r0, :upper16:.L.str
	movs	r3, #0
	bl	lv_debug_log_error
	b	.LBB0_10
.LBB0_10:                               @ =>This Inner Loop Header: Depth=1
	b	.LBB0_10
.Ltmp12:
.LBB0_11:
	.loc	10 76 5                         @ lvgl/src/lv_widgets/lv_spinner.c:76:5
	b	.LBB0_12
.Ltmp13:
.LBB0_12:
	.loc	10 77 8 is_stmt 1               @ lvgl/src/lv_widgets/lv_spinner.c:77:8
	ldr	r0, [sp, #4]
.Ltmp14:
	.loc	10 77 8 is_stmt 0               @ lvgl/src/lv_widgets/lv_spinner.c:77:8
	cbnz	r0, .LBB0_14
	b	.LBB0_13
.LBB0_13:
.Ltmp15:
	.loc	10 78 20 is_stmt 1              @ lvgl/src/lv_widgets/lv_spinner.c:78:20
	ldr	r0, [sp, #8]
	.loc	10 78 9 is_stmt 0               @ lvgl/src/lv_widgets/lv_spinner.c:78:9
	bl	lv_obj_del
	movs	r0, #0
	.loc	10 79 9 is_stmt 1               @ lvgl/src/lv_widgets/lv_spinner.c:79:9
	str	r0, [sp, #20]
	b	.LBB0_22
.Ltmp16:
.LBB0_14:
	.loc	10 82 8                         @ lvgl/src/lv_widgets/lv_spinner.c:82:8
	movw	r0, :lower16:ancestor_signal
	movt	r0, :upper16:ancestor_signal
	ldr	r0, [r0]
.Ltmp17:
	.loc	10 82 8 is_stmt 0               @ lvgl/src/lv_widgets/lv_spinner.c:82:8
	cbnz	r0, .LBB0_16
	b	.LBB0_15
.LBB0_15:
.Ltmp18:
	.loc	10 82 72                        @ lvgl/src/lv_widgets/lv_spinner.c:82:72
	ldr	r0, [sp, #8]
	.loc	10 82 51                        @ lvgl/src/lv_widgets/lv_spinner.c:82:51
	bl	lv_obj_get_signal_cb
	.loc	10 82 49                        @ lvgl/src/lv_widgets/lv_spinner.c:82:49
	movw	r1, :lower16:ancestor_signal
	movt	r1, :upper16:ancestor_signal
	str	r0, [r1]
	.loc	10 82 33                        @ lvgl/src/lv_widgets/lv_spinner.c:82:33
	b	.LBB0_16
.Ltmp19:
.LBB0_16:
	.loc	10 83 8 is_stmt 1               @ lvgl/src/lv_widgets/lv_spinner.c:83:8
	movw	r0, :lower16:ancestor_design
	movt	r0, :upper16:ancestor_design
	ldr	r0, [r0]
.Ltmp20:
	.loc	10 83 8 is_stmt 0               @ lvgl/src/lv_widgets/lv_spinner.c:83:8
	cbnz	r0, .LBB0_18
	b	.LBB0_17
.LBB0_17:
.Ltmp21:
	.loc	10 83 72                        @ lvgl/src/lv_widgets/lv_spinner.c:83:72
	ldr	r0, [sp, #8]
	.loc	10 83 51                        @ lvgl/src/lv_widgets/lv_spinner.c:83:51
	bl	lv_obj_get_design_cb
	.loc	10 83 49                        @ lvgl/src/lv_widgets/lv_spinner.c:83:49
	movw	r1, :lower16:ancestor_design
	movt	r1, :upper16:ancestor_design
	str	r0, [r1]
	.loc	10 83 33                        @ lvgl/src/lv_widgets/lv_spinner.c:83:33
	b	.LBB0_18
.Ltmp22:
.LBB0_18:
	.loc	10 86 5 is_stmt 1               @ lvgl/src/lv_widgets/lv_spinner.c:86:5
	ldr	r1, [sp, #4]
	movs	r0, #60
	.loc	10 86 21 is_stmt 0              @ lvgl/src/lv_widgets/lv_spinner.c:86:21
	strh	r0, [r1, #48]
	.loc	10 87 5 is_stmt 1               @ lvgl/src/lv_widgets/lv_spinner.c:87:5
	ldr	r1, [sp, #4]
	.loc	10 87 21 is_stmt 0              @ lvgl/src/lv_widgets/lv_spinner.c:87:21
	ldrb.w	r0, [r1, #52]
	and	r0, r0, #252
	strb.w	r0, [r1, #52]
	.loc	10 88 5 is_stmt 1               @ lvgl/src/lv_widgets/lv_spinner.c:88:5
	ldr	r1, [sp, #4]
	.loc	10 88 21 is_stmt 0              @ lvgl/src/lv_widgets/lv_spinner.c:88:21
	ldrb.w	r0, [r1, #52]
	and	r0, r0, #251
	strb.w	r0, [r1, #52]
	.loc	10 89 5 is_stmt 1               @ lvgl/src/lv_widgets/lv_spinner.c:89:5
	ldr	r1, [sp, #4]
	mov.w	r0, #1000
	.loc	10 89 15 is_stmt 0              @ lvgl/src/lv_widgets/lv_spinner.c:89:15
	strh	r0, [r1, #50]
	.loc	10 92 26 is_stmt 1              @ lvgl/src/lv_widgets/lv_spinner.c:92:26
	ldr	r0, [sp, #8]
	.loc	10 92 5 is_stmt 0               @ lvgl/src/lv_widgets/lv_spinner.c:92:5
	movw	r1, :lower16:lv_spinner_signal
	movt	r1, :upper16:lv_spinner_signal
	bl	lv_obj_set_signal_cb
.Ltmp23:
	.loc	10 95 8 is_stmt 1               @ lvgl/src/lv_widgets/lv_spinner.c:95:8
	ldr	r0, [sp, #12]
.Ltmp24:
	.loc	10 95 8 is_stmt 0               @ lvgl/src/lv_widgets/lv_spinner.c:95:8
	cbnz	r0, .LBB0_20
	b	.LBB0_19
.LBB0_19:
.Ltmp25:
	.loc	10 96 9 is_stmt 1               @ lvgl/src/lv_widgets/lv_spinner.c:96:9
	ldr	r1, [sp, #4]
	movs	r0, #0
	.loc	10 96 33 is_stmt 0              @ lvgl/src/lv_widgets/lv_spinner.c:96:33
	strh	r0, [r1, #6]
	.loc	10 97 9 is_stmt 1               @ lvgl/src/lv_widgets/lv_spinner.c:97:9
	ldr	r1, [sp, #4]
	mov.w	r0, #360
	.loc	10 97 31 is_stmt 0              @ lvgl/src/lv_widgets/lv_spinner.c:97:31
	strh	r0, [r1, #8]
	.loc	10 98 25 is_stmt 1              @ lvgl/src/lv_widgets/lv_spinner.c:98:25
	ldr	r0, [sp, #8]
	movs	r2, #130
	.loc	10 98 9 is_stmt 0               @ lvgl/src/lv_widgets/lv_spinner.c:98:9
	mov	r1, r2
	bl	lv_obj_set_size
	.loc	10 99 24 is_stmt 1              @ lvgl/src/lv_widgets/lv_spinner.c:99:24
	ldr	r0, [sp, #8]
	movs	r1, #32
	.loc	10 99 9 is_stmt 0               @ lvgl/src/lv_widgets/lv_spinner.c:99:9
	bl	lv_theme_apply
	.loc	10 101 5 is_stmt 1              @ lvgl/src/lv_widgets/lv_spinner.c:101:5
	b	.LBB0_21
.Ltmp26:
.LBB0_20:
	.loc	10 104 59                       @ lvgl/src/lv_widgets/lv_spinner.c:104:59
	ldr	r0, [sp, #12]
	.loc	10 104 39 is_stmt 0             @ lvgl/src/lv_widgets/lv_spinner.c:104:39
	bl	lv_obj_get_ext_attr
	.loc	10 104 28                       @ lvgl/src/lv_widgets/lv_spinner.c:104:28
	str	r0, [sp]
	.loc	10 105 39 is_stmt 1             @ lvgl/src/lv_widgets/lv_spinner.c:105:39
	ldr	r0, [sp]
	.loc	10 105 49 is_stmt 0             @ lvgl/src/lv_widgets/lv_spinner.c:105:49
	ldrh	r0, [r0, #48]
	.loc	10 105 9                        @ lvgl/src/lv_widgets/lv_spinner.c:105:9
	ldr	r1, [sp, #4]
	.loc	10 105 37                       @ lvgl/src/lv_widgets/lv_spinner.c:105:37
	strh	r0, [r1, #48]
	.loc	10 106 39 is_stmt 1             @ lvgl/src/lv_widgets/lv_spinner.c:106:39
	ldr	r0, [sp]
	.loc	10 106 49 is_stmt 0             @ lvgl/src/lv_widgets/lv_spinner.c:106:49
	ldrh	r0, [r0, #50]
	.loc	10 106 9                        @ lvgl/src/lv_widgets/lv_spinner.c:106:9
	ldr	r1, [sp, #4]
	.loc	10 106 37                       @ lvgl/src/lv_widgets/lv_spinner.c:106:37
	strh	r0, [r1, #50]
	.loc	10 107 39 is_stmt 1             @ lvgl/src/lv_widgets/lv_spinner.c:107:39
	ldr	r0, [sp]
	.loc	10 107 49 is_stmt 0             @ lvgl/src/lv_widgets/lv_spinner.c:107:49
	ldrb.w	r2, [r0, #52]
	.loc	10 107 9                        @ lvgl/src/lv_widgets/lv_spinner.c:107:9
	ldr	r1, [sp, #4]
	.loc	10 107 37                       @ lvgl/src/lv_widgets/lv_spinner.c:107:37
	ldrb.w	r0, [r1, #52]
	and	r2, r2, #4
	and	r0, r0, #251
	add	r0, r2
	strb.w	r0, [r1, #52]
	.loc	10 109 30 is_stmt 1             @ lvgl/src/lv_widgets/lv_spinner.c:109:30
	ldr	r0, [sp, #8]
	movs	r2, #255
	.loc	10 109 9 is_stmt 0              @ lvgl/src/lv_widgets/lv_spinner.c:109:9
	mov	r1, r2
	bl	lv_obj_refresh_style
	b	.LBB0_21
.Ltmp27:
.LBB0_21:
	.loc	10 112 25 is_stmt 1             @ lvgl/src/lv_widgets/lv_spinner.c:112:25
	ldr	r0, [sp, #8]
	.loc	10 112 34 is_stmt 0             @ lvgl/src/lv_widgets/lv_spinner.c:112:34
	ldr	r1, [sp, #4]
	.loc	10 112 39                       @ lvgl/src/lv_widgets/lv_spinner.c:112:39
	ldrb.w	r1, [r1, #52]
	.loc	10 112 5                        @ lvgl/src/lv_widgets/lv_spinner.c:112:5
	and	r1, r1, #3
	bl	lv_spinner_set_type
	.loc	10 116 12 is_stmt 1             @ lvgl/src/lv_widgets/lv_spinner.c:116:12
	ldr	r0, [sp, #8]
	.loc	10 116 5 is_stmt 0              @ lvgl/src/lv_widgets/lv_spinner.c:116:5
	str	r0, [sp, #20]
	b	.LBB0_22
.LBB0_22:
	.loc	10 117 1 is_stmt 1              @ lvgl/src/lv_widgets/lv_spinner.c:117:1
	ldr	r0, [sp, #20]
	add	sp, #24
	pop	{r7, pc}
.Ltmp28:
.Lfunc_end0:
	.size	lv_spinner_create, .Lfunc_end0-lv_spinner_create
	.cfi_endproc
	.cantunwind
	.fnend
                                        @ -- End function
	.section	.text.lv_spinner_signal,"ax",%progbits
	.p2align	3                               @ -- Begin function lv_spinner_signal
	.type	lv_spinner_signal,%function
	.code	16                              @ @lv_spinner_signal
	.thumb_func
lv_spinner_signal:
.Lfunc_begin1:
	.loc	10 311 0                        @ lvgl/src/lv_widgets/lv_spinner.c:311:0
	.fnstart
	.cfi_startproc
@ %bb.0:
	.save	{r7, lr}
	push	{r7, lr}
	.cfi_def_cfa_offset 8
	.cfi_offset lr, -4
	.cfi_offset r7, -8
	.pad	#24
	sub	sp, #24
	.cfi_def_cfa_offset 32
                                        @ kill: def $r3 killed $r1
	str	r0, [sp, #16]
	strb.w	r1, [sp, #15]
	str	r2, [sp, #8]
.Ltmp29:
	.loc	10 315 11 prologue_end          @ lvgl/src/lv_widgets/lv_spinner.c:315:11
	movw	r0, :lower16:ancestor_signal
	movt	r0, :upper16:ancestor_signal
	ldr	r3, [r0]
	.loc	10 315 27 is_stmt 0             @ lvgl/src/lv_widgets/lv_spinner.c:315:27
	ldr	r0, [sp, #16]
	.loc	10 315 36                       @ lvgl/src/lv_widgets/lv_spinner.c:315:36
	ldrb.w	r1, [sp, #15]
	.loc	10 315 42                       @ lvgl/src/lv_widgets/lv_spinner.c:315:42
	ldr	r2, [sp, #8]
	.loc	10 315 11                       @ lvgl/src/lv_widgets/lv_spinner.c:315:11
	blx	r3
	.loc	10 315 9                        @ lvgl/src/lv_widgets/lv_spinner.c:315:9
	strb.w	r0, [sp, #7]
.Ltmp30:
	.loc	10 316 8 is_stmt 1              @ lvgl/src/lv_widgets/lv_spinner.c:316:8
	ldrb.w	r0, [sp, #7]
.Ltmp31:
	.loc	10 316 8 is_stmt 0              @ lvgl/src/lv_widgets/lv_spinner.c:316:8
	cmp	r0, #1
	beq	.LBB1_2
	b	.LBB1_1
.LBB1_1:
.Ltmp32:
	.loc	10 316 33                       @ lvgl/src/lv_widgets/lv_spinner.c:316:33
	ldrb.w	r0, [sp, #7]
	.loc	10 316 26                       @ lvgl/src/lv_widgets/lv_spinner.c:316:26
	strb.w	r0, [sp, #23]
	b	.LBB1_7
.Ltmp33:
.LBB1_2:
	.loc	10 317 8 is_stmt 1              @ lvgl/src/lv_widgets/lv_spinner.c:317:8
	ldrb.w	r0, [sp, #15]
.Ltmp34:
	.loc	10 317 8 is_stmt 0              @ lvgl/src/lv_widgets/lv_spinner.c:317:8
	cmp	r0, #7
	bne	.LBB1_4
	b	.LBB1_3
.LBB1_3:
.Ltmp35:
	.loc	10 317 73                       @ lvgl/src/lv_widgets/lv_spinner.c:317:73
	ldr	r0, [sp, #8]
	.loc	10 317 43                       @ lvgl/src/lv_widgets/lv_spinner.c:317:43
	movw	r1, :lower16:.L.str.2
	movt	r1, :upper16:.L.str.2
	bl	lv_obj_handle_get_type_signal
	.loc	10 317 36                       @ lvgl/src/lv_widgets/lv_spinner.c:317:36
	strb.w	r0, [sp, #23]
	b	.LBB1_7
.Ltmp36:
.LBB1_4:
	.loc	10 319 8 is_stmt 1              @ lvgl/src/lv_widgets/lv_spinner.c:319:8
	ldrb.w	r0, [sp, #15]
.Ltmp37:
	.loc	10 319 8 is_stmt 0              @ lvgl/src/lv_widgets/lv_spinner.c:319:8
	cbnz	r0, .LBB1_6
	b	.LBB1_5
.LBB1_5:
.Ltmp38:
	.loc	10 321 5 is_stmt 1              @ lvgl/src/lv_widgets/lv_spinner.c:321:5
	b	.LBB1_6
.Ltmp39:
.LBB1_6:
	.loc	10 323 12                       @ lvgl/src/lv_widgets/lv_spinner.c:323:12
	ldrb.w	r0, [sp, #7]
	.loc	10 323 5 is_stmt 0              @ lvgl/src/lv_widgets/lv_spinner.c:323:5
	strb.w	r0, [sp, #23]
	b	.LBB1_7
.LBB1_7:
	.loc	10 324 1 is_stmt 1              @ lvgl/src/lv_widgets/lv_spinner.c:324:1
	ldrb.w	r0, [sp, #23]
	add	sp, #24
	pop	{r7, pc}
.Ltmp40:
.Lfunc_end1:
	.size	lv_spinner_signal, .Lfunc_end1-lv_spinner_signal
	.cfi_endproc
	.cantunwind
	.fnend
                                        @ -- End function
	.section	.text.lv_spinner_set_type,"ax",%progbits
	.hidden	lv_spinner_set_type             @ -- Begin function lv_spinner_set_type
	.globl	lv_spinner_set_type
	.p2align	3
	.type	lv_spinner_set_type,%function
	.code	16                              @ @lv_spinner_set_type
	.thumb_func
lv_spinner_set_type:
.Lfunc_begin2:
	.loc	10 161 0                        @ lvgl/src/lv_widgets/lv_spinner.c:161:0
	.fnstart
	.cfi_startproc
@ %bb.0:
	.save	{r7, lr}
	push	{r7, lr}
	.cfi_def_cfa_offset 8
	.cfi_offset lr, -4
	.cfi_offset r7, -8
	.pad	#184
	sub	sp, #184
	.cfi_def_cfa_offset 192
                                        @ kill: def $r2 killed $r1
	str	r0, [sp, #180]
	strb.w	r1, [sp, #179]
.Ltmp41:
	.loc	10 162 5 prologue_end           @ lvgl/src/lv_widgets/lv_spinner.c:162:5
	b	.LBB2_1
.LBB2_1:
.Ltmp42:
	.loc	10 162 5 is_stmt 0              @ lvgl/src/lv_widgets/lv_spinner.c:162:5
	ldr	r0, [sp, #180]
	bl	lv_debug_check_null
.Ltmp43:
	.loc	10 162 5                        @ lvgl/src/lv_widgets/lv_spinner.c:162:5
	cbnz	r0, .LBB2_4
	b	.LBB2_2
.LBB2_2:
.Ltmp44:
	.loc	10 162 5                        @ lvgl/src/lv_widgets/lv_spinner.c:162:5
	ldr	r2, [sp, #180]
	movw	r0, :lower16:.L.str.1
	movt	r0, :upper16:.L.str.1
	movs	r3, #0
	bl	lv_debug_log_error
	b	.LBB2_3
.LBB2_3:                                @ =>This Inner Loop Header: Depth=1
	b	.LBB2_3
.Ltmp45:
.LBB2_4:
	.loc	10 162 5                        @ lvgl/src/lv_widgets/lv_spinner.c:162:5
	b	.LBB2_5
.Ltmp46:
.LBB2_5:
	.loc	10 164 50 is_stmt 1             @ lvgl/src/lv_widgets/lv_spinner.c:164:50
	ldr	r0, [sp, #180]
	.loc	10 164 30 is_stmt 0             @ lvgl/src/lv_widgets/lv_spinner.c:164:30
	bl	lv_obj_get_ext_attr
	.loc	10 164 24                       @ lvgl/src/lv_widgets/lv_spinner.c:164:24
	str	r0, [sp, #172]
	.loc	10 167 17 is_stmt 1             @ lvgl/src/lv_widgets/lv_spinner.c:167:17
	ldr	r0, [sp, #180]
	movs	r1, #0
	.loc	10 167 5 is_stmt 0              @ lvgl/src/lv_widgets/lv_spinner.c:167:5
	bl	lv_anim_del
	.loc	10 168 12 is_stmt 1             @ lvgl/src/lv_widgets/lv_spinner.c:168:12
	ldrb.w	r0, [sp, #179]
	.loc	10 168 5 is_stmt 0              @ lvgl/src/lv_widgets/lv_spinner.c:168:5
	mov	r1, r0
	str	r1, [sp, #24]                   @ 4-byte Spill
	cmp	r0, #0
	beq	.LBB2_15
	b	.LBB2_6
.LBB2_6:
	ldr	r0, [sp, #24]                   @ 4-byte Reload
	cmp	r0, #1
	beq	.LBB2_8
	b	.LBB2_7
.LBB2_7:
	ldr	r0, [sp, #24]                   @ 4-byte Reload
	cmp	r0, #2
	beq	.LBB2_15
	b	.LBB2_16
.LBB2_8:
.Ltmp47:
	.loc	10 170 17 is_stmt 1             @ lvgl/src/lv_widgets/lv_spinner.c:170:17
	ldr	r1, [sp, #172]
	.loc	10 170 32 is_stmt 0             @ lvgl/src/lv_widgets/lv_spinner.c:170:32
	ldrb.w	r0, [r1, #52]
	and	r0, r0, #252
	adds	r0, #1
	strb.w	r0, [r1, #52]
	add	r0, sp, #164
	.loc	10 172 17 is_stmt 1             @ lvgl/src/lv_widgets/lv_spinner.c:172:17
	str	r0, [sp, #16]                   @ 4-byte Spill
	bl	lv_anim_path_init
	ldr	r0, [sp, #16]                   @ 4-byte Reload
	.loc	10 173 17                       @ lvgl/src/lv_widgets/lv_spinner.c:173:17
	movw	r1, :lower16:lv_anim_path_ease_in_out
	movt	r1, :upper16:lv_anim_path_ease_in_out
	bl	lv_anim_path_set_cb
	add	r0, sp, #100
	.loc	10 176 17                       @ lvgl/src/lv_widgets/lv_spinner.c:176:17
	str	r0, [sp, #20]                   @ 4-byte Spill
	bl	lv_anim_init
	ldr	r0, [sp, #20]                   @ 4-byte Reload
	.loc	10 177 37                       @ lvgl/src/lv_widgets/lv_spinner.c:177:37
	ldr	r1, [sp, #180]
	.loc	10 177 17 is_stmt 0             @ lvgl/src/lv_widgets/lv_spinner.c:177:17
	bl	lv_anim_set_var
	ldr	r0, [sp, #20]                   @ 4-byte Reload
	.loc	10 178 17 is_stmt 1             @ lvgl/src/lv_widgets/lv_spinner.c:178:17
	movw	r1, :lower16:lv_spinner_anim_cb
	movt	r1, :upper16:lv_spinner_anim_cb
	bl	lv_anim_set_exec_cb
	ldr	r1, [sp, #16]                   @ 4-byte Reload
	ldr	r0, [sp, #20]                   @ 4-byte Reload
	.loc	10 179 17                       @ lvgl/src/lv_widgets/lv_spinner.c:179:17
	bl	lv_anim_set_path
	ldr	r0, [sp, #20]                   @ 4-byte Reload
	movw	r1, #65535
	.loc	10 180 17                       @ lvgl/src/lv_widgets/lv_spinner.c:180:17
	bl	lv_anim_set_repeat_count
	ldr	r0, [sp, #20]                   @ 4-byte Reload
	.loc	10 181 38                       @ lvgl/src/lv_widgets/lv_spinner.c:181:38
	ldr	r1, [sp, #172]
	.loc	10 181 43 is_stmt 0             @ lvgl/src/lv_widgets/lv_spinner.c:181:43
	ldrh	r1, [r1, #50]
	.loc	10 181 17                       @ lvgl/src/lv_widgets/lv_spinner.c:181:17
	bl	lv_anim_set_time
.Ltmp48:
	.loc	10 182 20 is_stmt 1             @ lvgl/src/lv_widgets/lv_spinner.c:182:20
	ldr	r0, [sp, #172]
	.loc	10 182 25 is_stmt 0             @ lvgl/src/lv_widgets/lv_spinner.c:182:25
	ldrb.w	r0, [r0, #52]
	lsrs	r0, r0, #2
.Ltmp49:
	.loc	10 182 20                       @ lvgl/src/lv_widgets/lv_spinner.c:182:20
	lsls	r0, r0, #31
	cbnz	r0, .LBB2_10
	b	.LBB2_9
.LBB2_9:
	.loc	10 0 20                         @ lvgl/src/lv_widgets/lv_spinner.c:0:20
	add	r0, sp, #100
	movs	r1, #0
	mov.w	r2, #360
.Ltmp50:
	.loc	10 182 61                       @ lvgl/src/lv_widgets/lv_spinner.c:182:61
	bl	lv_anim_set_values
	b	.LBB2_11
.LBB2_10:
	.loc	10 0 61                         @ lvgl/src/lv_widgets/lv_spinner.c:0:61
	add	r0, sp, #100
	mov.w	r1, #360
	movs	r2, #0
	.loc	10 183 22 is_stmt 1             @ lvgl/src/lv_widgets/lv_spinner.c:183:22
	bl	lv_anim_set_values
	b	.LBB2_11
.Ltmp51:
.LBB2_11:
	.loc	10 0 22 is_stmt 0               @ lvgl/src/lv_widgets/lv_spinner.c:0:22
	add	r0, sp, #100
	.loc	10 184 17 is_stmt 1             @ lvgl/src/lv_widgets/lv_spinner.c:184:17
	str	r0, [sp, #12]                   @ 4-byte Spill
	bl	lv_anim_start
	ldr	r0, [sp, #12]                   @ 4-byte Reload
	.loc	10 186 17                       @ lvgl/src/lv_widgets/lv_spinner.c:186:17
	movw	r1, :lower16:lv_spinner_set_arc_length
	movt	r1, :upper16:lv_spinner_set_arc_length
	bl	lv_anim_set_exec_cb
.Ltmp52:
	.loc	10 187 20                       @ lvgl/src/lv_widgets/lv_spinner.c:187:20
	ldr	r0, [sp, #172]
	.loc	10 187 25 is_stmt 0             @ lvgl/src/lv_widgets/lv_spinner.c:187:25
	ldrb.w	r0, [r0, #52]
	lsrs	r0, r0, #2
.Ltmp53:
	.loc	10 187 20                       @ lvgl/src/lv_widgets/lv_spinner.c:187:20
	lsls	r0, r0, #31
	cbnz	r0, .LBB2_13
	b	.LBB2_12
.LBB2_12:
.Ltmp54:
	.loc	10 187 84                       @ lvgl/src/lv_widgets/lv_spinner.c:187:84
	ldr	r0, [sp, #172]
	.loc	10 187 89                       @ lvgl/src/lv_widgets/lv_spinner.c:187:89
	ldrsh.w	r1, [r0, #48]
	.loc	10 187 105                      @ lvgl/src/lv_widgets/lv_spinner.c:187:105
	rsb.w	r0, r1, #360
	.loc	10 187 61                       @ lvgl/src/lv_widgets/lv_spinner.c:187:61
	sxth	r2, r0
	add	r0, sp, #100
	bl	lv_anim_set_values
	b	.LBB2_14
.LBB2_13:
	.loc	10 188 51 is_stmt 1             @ lvgl/src/lv_widgets/lv_spinner.c:188:51
	ldr	r0, [sp, #172]
	.loc	10 188 56 is_stmt 0             @ lvgl/src/lv_widgets/lv_spinner.c:188:56
	ldrsh.w	r2, [r0, #48]
	.loc	10 188 49                       @ lvgl/src/lv_widgets/lv_spinner.c:188:49
	rsb.w	r0, r2, #360
	.loc	10 188 22                       @ lvgl/src/lv_widgets/lv_spinner.c:188:22
	sxth	r1, r0
	add	r0, sp, #100
	bl	lv_anim_set_values
	b	.LBB2_14
.Ltmp55:
.LBB2_14:
	.loc	10 190 47 is_stmt 1             @ lvgl/src/lv_widgets/lv_spinner.c:190:47
	ldr	r0, [sp, #172]
	.loc	10 190 52 is_stmt 0             @ lvgl/src/lv_widgets/lv_spinner.c:190:52
	ldrh	r1, [r0, #50]
	add	r0, sp, #100
	.loc	10 190 17                       @ lvgl/src/lv_widgets/lv_spinner.c:190:17
	str	r0, [sp, #8]                    @ 4-byte Spill
	bl	lv_anim_set_playback_time
	ldr	r0, [sp, #8]                    @ 4-byte Reload
	.loc	10 191 17 is_stmt 1             @ lvgl/src/lv_widgets/lv_spinner.c:191:17
	bl	lv_anim_start
	.loc	10 192 17                       @ lvgl/src/lv_widgets/lv_spinner.c:192:17
	b	.LBB2_20
.LBB2_15:
	.loc	10 193 13                       @ lvgl/src/lv_widgets/lv_spinner.c:193:13
	b	.LBB2_16
.Ltmp56:
.LBB2_16:
	.loc	10 197 34                       @ lvgl/src/lv_widgets/lv_spinner.c:197:34
	ldrb.w	r2, [sp, #179]
	.loc	10 197 17 is_stmt 0             @ lvgl/src/lv_widgets/lv_spinner.c:197:17
	ldr	r1, [sp, #172]
	.loc	10 197 32                       @ lvgl/src/lv_widgets/lv_spinner.c:197:32
	ldrb.w	r0, [r1, #52]
	and	r2, r2, #3
	and	r0, r0, #252
	add	r0, r2
	strb.w	r0, [r1, #52]
	add	r0, sp, #92
	.loc	10 200 17 is_stmt 1             @ lvgl/src/lv_widgets/lv_spinner.c:200:17
	str	r0, [sp]                        @ 4-byte Spill
	bl	lv_anim_path_init
	ldr	r0, [sp]                        @ 4-byte Reload
	.loc	10 201 77                       @ lvgl/src/lv_widgets/lv_spinner.c:201:77
	ldrb.w	r3, [sp, #179]
	.loc	10 201 45 is_stmt 0             @ lvgl/src/lv_widgets/lv_spinner.c:201:45
	movw	r2, :lower16:lv_anim_path_linear
	movt	r2, :upper16:lv_anim_path_linear
	movw	r1, :lower16:lv_anim_path_ease_in_out
	movt	r1, :upper16:lv_anim_path_ease_in_out
	cmp	r3, #2
	it	eq
	moveq	r1, r2
	.loc	10 201 17                       @ lvgl/src/lv_widgets/lv_spinner.c:201:17
	bl	lv_anim_path_set_cb
	add	r0, sp, #28
	.loc	10 204 17 is_stmt 1             @ lvgl/src/lv_widgets/lv_spinner.c:204:17
	str	r0, [sp, #4]                    @ 4-byte Spill
	bl	lv_anim_init
	ldr	r0, [sp, #4]                    @ 4-byte Reload
	.loc	10 205 37                       @ lvgl/src/lv_widgets/lv_spinner.c:205:37
	ldr	r1, [sp, #180]
	.loc	10 205 17 is_stmt 0             @ lvgl/src/lv_widgets/lv_spinner.c:205:17
	bl	lv_anim_set_var
	ldr	r0, [sp, #4]                    @ 4-byte Reload
	.loc	10 206 17 is_stmt 1             @ lvgl/src/lv_widgets/lv_spinner.c:206:17
	movw	r1, :lower16:lv_spinner_anim_cb
	movt	r1, :upper16:lv_spinner_anim_cb
	bl	lv_anim_set_exec_cb
	ldr	r0, [sp, #4]                    @ 4-byte Reload
	.loc	10 207 38                       @ lvgl/src/lv_widgets/lv_spinner.c:207:38
	ldr	r1, [sp, #172]
	.loc	10 207 43 is_stmt 0             @ lvgl/src/lv_widgets/lv_spinner.c:207:43
	ldrh	r1, [r1, #50]
	.loc	10 207 17                       @ lvgl/src/lv_widgets/lv_spinner.c:207:17
	bl	lv_anim_set_time
	ldr	r1, [sp]                        @ 4-byte Reload
	ldr	r0, [sp, #4]                    @ 4-byte Reload
	.loc	10 208 17 is_stmt 1             @ lvgl/src/lv_widgets/lv_spinner.c:208:17
	bl	lv_anim_set_path
	ldr	r0, [sp, #4]                    @ 4-byte Reload
	movw	r1, #65535
	.loc	10 209 17                       @ lvgl/src/lv_widgets/lv_spinner.c:209:17
	bl	lv_anim_set_repeat_count
.Ltmp57:
	.loc	10 210 20                       @ lvgl/src/lv_widgets/lv_spinner.c:210:20
	ldr	r0, [sp, #172]
	.loc	10 210 25 is_stmt 0             @ lvgl/src/lv_widgets/lv_spinner.c:210:25
	ldrb.w	r0, [r0, #52]
	lsrs	r0, r0, #2
.Ltmp58:
	.loc	10 210 20                       @ lvgl/src/lv_widgets/lv_spinner.c:210:20
	lsls	r0, r0, #31
	cbnz	r0, .LBB2_18
	b	.LBB2_17
.LBB2_17:
	.loc	10 0 20                         @ lvgl/src/lv_widgets/lv_spinner.c:0:20
	add	r0, sp, #28
	movs	r1, #0
	mov.w	r2, #360
.Ltmp59:
	.loc	10 210 61                       @ lvgl/src/lv_widgets/lv_spinner.c:210:61
	bl	lv_anim_set_values
	b	.LBB2_19
.LBB2_18:
	.loc	10 0 61                         @ lvgl/src/lv_widgets/lv_spinner.c:0:61
	add	r0, sp, #28
	mov.w	r1, #360
	movs	r2, #0
	.loc	10 211 22 is_stmt 1             @ lvgl/src/lv_widgets/lv_spinner.c:211:22
	bl	lv_anim_set_values
	b	.LBB2_19
.Ltmp60:
.LBB2_19:
	.loc	10 0 22 is_stmt 0               @ lvgl/src/lv_widgets/lv_spinner.c:0:22
	add	r0, sp, #28
	.loc	10 212 17 is_stmt 1             @ lvgl/src/lv_widgets/lv_spinner.c:212:17
	bl	lv_anim_start
	.loc	10 213 17                       @ lvgl/src/lv_widgets/lv_spinner.c:213:17
	b	.LBB2_20
.Ltmp61:
.LBB2_20:
	.loc	10 216 1                        @ lvgl/src/lv_widgets/lv_spinner.c:216:1
	add	sp, #184
	pop	{r7, pc}
.Ltmp62:
.Lfunc_end2:
	.size	lv_spinner_set_type, .Lfunc_end2-lv_spinner_set_type
	.cfi_endproc
	.cantunwind
	.fnend
                                        @ -- End function
	.section	.text.lv_spinner_set_arc_length,"ax",%progbits
	.hidden	lv_spinner_set_arc_length       @ -- Begin function lv_spinner_set_arc_length
	.globl	lv_spinner_set_arc_length
	.p2align	3
	.type	lv_spinner_set_arc_length,%function
	.code	16                              @ @lv_spinner_set_arc_length
	.thumb_func
lv_spinner_set_arc_length:
.Lfunc_begin3:
	.loc	10 129 0                        @ lvgl/src/lv_widgets/lv_spinner.c:129:0
	.fnstart
	.cfi_startproc
@ %bb.0:
	.save	{r7, lr}
	push	{r7, lr}
	.cfi_def_cfa_offset 8
	.cfi_offset lr, -4
	.cfi_offset r7, -8
	.pad	#16
	sub	sp, #16
	.cfi_def_cfa_offset 24
                                        @ kill: def $r2 killed $r1
	str	r0, [sp, #12]
	strh.w	r1, [sp, #10]
.Ltmp63:
	.loc	10 130 5 prologue_end           @ lvgl/src/lv_widgets/lv_spinner.c:130:5
	b	.LBB3_1
.LBB3_1:
.Ltmp64:
	.loc	10 130 5 is_stmt 0              @ lvgl/src/lv_widgets/lv_spinner.c:130:5
	ldr	r0, [sp, #12]
	bl	lv_debug_check_null
.Ltmp65:
	.loc	10 130 5                        @ lvgl/src/lv_widgets/lv_spinner.c:130:5
	cbnz	r0, .LBB3_4
	b	.LBB3_2
.LBB3_2:
.Ltmp66:
	.loc	10 130 5                        @ lvgl/src/lv_widgets/lv_spinner.c:130:5
	ldr	r2, [sp, #12]
	movw	r0, :lower16:.L.str.1
	movt	r0, :upper16:.L.str.1
	movs	r3, #0
	bl	lv_debug_log_error
	b	.LBB3_3
.LBB3_3:                                @ =>This Inner Loop Header: Depth=1
	b	.LBB3_3
.Ltmp67:
.LBB3_4:
	.loc	10 130 5                        @ lvgl/src/lv_widgets/lv_spinner.c:130:5
	b	.LBB3_5
.Ltmp68:
.LBB3_5:
	.loc	10 132 50 is_stmt 1             @ lvgl/src/lv_widgets/lv_spinner.c:132:50
	ldr	r0, [sp, #12]
	.loc	10 132 30 is_stmt 0             @ lvgl/src/lv_widgets/lv_spinner.c:132:30
	bl	lv_obj_get_ext_attr
	.loc	10 132 24                       @ lvgl/src/lv_widgets/lv_spinner.c:132:24
	str	r0, [sp, #4]
	.loc	10 134 23 is_stmt 1             @ lvgl/src/lv_widgets/lv_spinner.c:134:23
	ldrh.w	r0, [sp, #10]
	.loc	10 134 5 is_stmt 0              @ lvgl/src/lv_widgets/lv_spinner.c:134:5
	ldr	r1, [sp, #4]
	.loc	10 134 21                       @ lvgl/src/lv_widgets/lv_spinner.c:134:21
	strh	r0, [r1, #48]
	.loc	10 135 1 is_stmt 1              @ lvgl/src/lv_widgets/lv_spinner.c:135:1
	add	sp, #16
	pop	{r7, pc}
.Ltmp69:
.Lfunc_end3:
	.size	lv_spinner_set_arc_length, .Lfunc_end3-lv_spinner_set_arc_length
	.cfi_endproc
	.cantunwind
	.fnend
                                        @ -- End function
	.section	.text.lv_spinner_set_spin_time,"ax",%progbits
	.hidden	lv_spinner_set_spin_time        @ -- Begin function lv_spinner_set_spin_time
	.globl	lv_spinner_set_spin_time
	.p2align	3
	.type	lv_spinner_set_spin_time,%function
	.code	16                              @ @lv_spinner_set_spin_time
	.thumb_func
lv_spinner_set_spin_time:
.Lfunc_begin4:
	.loc	10 143 0                        @ lvgl/src/lv_widgets/lv_spinner.c:143:0
	.fnstart
	.cfi_startproc
@ %bb.0:
	.save	{r7, lr}
	push	{r7, lr}
	.cfi_def_cfa_offset 8
	.cfi_offset lr, -4
	.cfi_offset r7, -8
	.pad	#16
	sub	sp, #16
	.cfi_def_cfa_offset 24
                                        @ kill: def $r2 killed $r1
	str	r0, [sp, #12]
	strh.w	r1, [sp, #10]
.Ltmp70:
	.loc	10 144 5 prologue_end           @ lvgl/src/lv_widgets/lv_spinner.c:144:5
	b	.LBB4_1
.LBB4_1:
.Ltmp71:
	.loc	10 144 5 is_stmt 0              @ lvgl/src/lv_widgets/lv_spinner.c:144:5
	ldr	r0, [sp, #12]
	bl	lv_debug_check_null
.Ltmp72:
	.loc	10 144 5                        @ lvgl/src/lv_widgets/lv_spinner.c:144:5
	cbnz	r0, .LBB4_4
	b	.LBB4_2
.LBB4_2:
.Ltmp73:
	.loc	10 144 5                        @ lvgl/src/lv_widgets/lv_spinner.c:144:5
	ldr	r2, [sp, #12]
	movw	r0, :lower16:.L.str.1
	movt	r0, :upper16:.L.str.1
	movs	r3, #0
	bl	lv_debug_log_error
	b	.LBB4_3
.LBB4_3:                                @ =>This Inner Loop Header: Depth=1
	b	.LBB4_3
.Ltmp74:
.LBB4_4:
	.loc	10 144 5                        @ lvgl/src/lv_widgets/lv_spinner.c:144:5
	b	.LBB4_5
.Ltmp75:
.LBB4_5:
	.loc	10 146 50 is_stmt 1             @ lvgl/src/lv_widgets/lv_spinner.c:146:50
	ldr	r0, [sp, #12]
	.loc	10 146 30 is_stmt 0             @ lvgl/src/lv_widgets/lv_spinner.c:146:30
	bl	lv_obj_get_ext_attr
	.loc	10 146 24                       @ lvgl/src/lv_widgets/lv_spinner.c:146:24
	str	r0, [sp, #4]
	.loc	10 148 17 is_stmt 1             @ lvgl/src/lv_widgets/lv_spinner.c:148:17
	ldrh.w	r0, [sp, #10]
	.loc	10 148 5 is_stmt 0              @ lvgl/src/lv_widgets/lv_spinner.c:148:5
	ldr	r1, [sp, #4]
	.loc	10 148 15                       @ lvgl/src/lv_widgets/lv_spinner.c:148:15
	strh	r0, [r1, #50]
	.loc	10 149 25 is_stmt 1             @ lvgl/src/lv_widgets/lv_spinner.c:149:25
	ldr	r0, [sp, #12]
	.loc	10 149 34 is_stmt 0             @ lvgl/src/lv_widgets/lv_spinner.c:149:34
	ldr	r1, [sp, #4]
	.loc	10 149 39                       @ lvgl/src/lv_widgets/lv_spinner.c:149:39
	ldrb.w	r1, [r1, #52]
	.loc	10 149 5                        @ lvgl/src/lv_widgets/lv_spinner.c:149:5
	and	r1, r1, #3
	bl	lv_spinner_set_type
	.loc	10 150 1 is_stmt 1              @ lvgl/src/lv_widgets/lv_spinner.c:150:1
	add	sp, #16
	pop	{r7, pc}
.Ltmp76:
.Lfunc_end4:
	.size	lv_spinner_set_spin_time, .Lfunc_end4-lv_spinner_set_spin_time
	.cfi_endproc
	.cantunwind
	.fnend
                                        @ -- End function
	.section	.text.lv_anim_path_init,"ax",%progbits
	.p2align	3                               @ -- Begin function lv_anim_path_init
	.type	lv_anim_path_init,%function
	.code	16                              @ @lv_anim_path_init
	.thumb_func
lv_anim_path_init:
.Lfunc_begin5:
	.loc	13 272 0                        @ lvgl/src/lv_widgets/../lv_misc/lv_anim.h:272:0
	.fnstart
	.cfi_startproc
@ %bb.0:
	.save	{r7, lr}
	push	{r7, lr}
	.cfi_def_cfa_offset 8
	.cfi_offset lr, -4
	.cfi_offset r7, -8
	.pad	#8
	sub	sp, #8
	.cfi_def_cfa_offset 16
	str	r0, [sp, #4]
.Ltmp77:
	.loc	13 273 19 prologue_end          @ lvgl/src/lv_widgets/../lv_misc/lv_anim.h:273:19
	ldr	r0, [sp, #4]
	movs	r1, #8
	.loc	13 273 5 is_stmt 0              @ lvgl/src/lv_widgets/../lv_misc/lv_anim.h:273:5
	bl	_lv_memset_00
	.loc	13 274 1 is_stmt 1              @ lvgl/src/lv_widgets/../lv_misc/lv_anim.h:274:1
	add	sp, #8
	pop	{r7, pc}
.Ltmp78:
.Lfunc_end5:
	.size	lv_anim_path_init, .Lfunc_end5-lv_anim_path_init
	.cfi_endproc
	.cantunwind
	.fnend
                                        @ -- End function
	.section	.text.lv_anim_path_set_cb,"ax",%progbits
	.p2align	3                               @ -- Begin function lv_anim_path_set_cb
	.type	lv_anim_path_set_cb,%function
	.code	16                              @ @lv_anim_path_set_cb
	.thumb_func
lv_anim_path_set_cb:
.Lfunc_begin6:
	.loc	13 282 0                        @ lvgl/src/lv_widgets/../lv_misc/lv_anim.h:282:0
	.fnstart
	.cfi_startproc
@ %bb.0:
	.pad	#8
	sub	sp, #8
	.cfi_def_cfa_offset 8
	str	r0, [sp, #4]
	str	r1, [sp]
.Ltmp79:
	.loc	13 283 16 prologue_end          @ lvgl/src/lv_widgets/../lv_misc/lv_anim.h:283:16
	ldr	r0, [sp]
	.loc	13 283 5 is_stmt 0              @ lvgl/src/lv_widgets/../lv_misc/lv_anim.h:283:5
	ldr	r1, [sp, #4]
	.loc	13 283 14                       @ lvgl/src/lv_widgets/../lv_misc/lv_anim.h:283:14
	str	r0, [r1]
	.loc	13 284 1 is_stmt 1              @ lvgl/src/lv_widgets/../lv_misc/lv_anim.h:284:1
	add	sp, #8
	bx	lr
.Ltmp80:
.Lfunc_end6:
	.size	lv_anim_path_set_cb, .Lfunc_end6-lv_anim_path_set_cb
	.cfi_endproc
	.cantunwind
	.fnend
                                        @ -- End function
	.section	.text.lv_anim_set_var,"ax",%progbits
	.p2align	3                               @ -- Begin function lv_anim_set_var
	.type	lv_anim_set_var,%function
	.code	16                              @ @lv_anim_set_var
	.thumb_func
lv_anim_set_var:
.Lfunc_begin7:
	.loc	13 126 0                        @ lvgl/src/lv_widgets/../lv_misc/lv_anim.h:126:0
	.fnstart
	.cfi_startproc
@ %bb.0:
	.pad	#8
	sub	sp, #8
	.cfi_def_cfa_offset 8
	str	r0, [sp, #4]
	str	r1, [sp]
.Ltmp81:
	.loc	13 127 14 prologue_end          @ lvgl/src/lv_widgets/../lv_misc/lv_anim.h:127:14
	ldr	r0, [sp]
	.loc	13 127 5 is_stmt 0              @ lvgl/src/lv_widgets/../lv_misc/lv_anim.h:127:5
	ldr	r1, [sp, #4]
	.loc	13 127 12                       @ lvgl/src/lv_widgets/../lv_misc/lv_anim.h:127:12
	str	r0, [r1]
	.loc	13 128 1 is_stmt 1              @ lvgl/src/lv_widgets/../lv_misc/lv_anim.h:128:1
	add	sp, #8
	bx	lr
.Ltmp82:
.Lfunc_end7:
	.size	lv_anim_set_var, .Lfunc_end7-lv_anim_set_var
	.cfi_endproc
	.cantunwind
	.fnend
                                        @ -- End function
	.section	.text.lv_anim_set_exec_cb,"ax",%progbits
	.p2align	3                               @ -- Begin function lv_anim_set_exec_cb
	.type	lv_anim_set_exec_cb,%function
	.code	16                              @ @lv_anim_set_exec_cb
	.thumb_func
lv_anim_set_exec_cb:
.Lfunc_begin8:
	.loc	13 138 0                        @ lvgl/src/lv_widgets/../lv_misc/lv_anim.h:138:0
	.fnstart
	.cfi_startproc
@ %bb.0:
	.pad	#8
	sub	sp, #8
	.cfi_def_cfa_offset 8
	str	r0, [sp, #4]
	str	r1, [sp]
.Ltmp83:
	.loc	13 139 18 prologue_end          @ lvgl/src/lv_widgets/../lv_misc/lv_anim.h:139:18
	ldr	r0, [sp]
	.loc	13 139 5 is_stmt 0              @ lvgl/src/lv_widgets/../lv_misc/lv_anim.h:139:5
	ldr	r1, [sp, #4]
	.loc	13 139 16                       @ lvgl/src/lv_widgets/../lv_misc/lv_anim.h:139:16
	str	r0, [r1, #4]
	.loc	13 140 1 is_stmt 1              @ lvgl/src/lv_widgets/../lv_misc/lv_anim.h:140:1
	add	sp, #8
	bx	lr
.Ltmp84:
.Lfunc_end8:
	.size	lv_anim_set_exec_cb, .Lfunc_end8-lv_anim_set_exec_cb
	.cfi_endproc
	.cantunwind
	.fnend
                                        @ -- End function
	.section	.text.lv_spinner_anim_cb,"ax",%progbits
	.hidden	lv_spinner_anim_cb              @ -- Begin function lv_spinner_anim_cb
	.globl	lv_spinner_anim_cb
	.p2align	3
	.type	lv_spinner_anim_cb,%function
	.code	16                              @ @lv_spinner_anim_cb
	.thumb_func
lv_spinner_anim_cb:
.Lfunc_begin9:
	.loc	10 285 0                        @ lvgl/src/lv_widgets/lv_spinner.c:285:0
	.fnstart
	.cfi_startproc
@ %bb.0:
	.save	{r7, lr}
	push	{r7, lr}
	.cfi_def_cfa_offset 8
	.cfi_offset lr, -4
	.cfi_offset r7, -8
	.pad	#24
	sub	sp, #24
	.cfi_def_cfa_offset 32
                                        @ kill: def $r2 killed $r1
	str	r0, [sp, #20]
	strh.w	r1, [sp, #18]
.Ltmp85:
	.loc	10 286 30 prologue_end          @ lvgl/src/lv_widgets/lv_spinner.c:286:30
	ldr	r0, [sp, #20]
	.loc	10 286 16 is_stmt 0             @ lvgl/src/lv_widgets/lv_spinner.c:286:16
	str	r0, [sp, #12]
	.loc	10 287 50 is_stmt 1             @ lvgl/src/lv_widgets/lv_spinner.c:287:50
	ldr	r0, [sp, #12]
	.loc	10 287 30 is_stmt 0             @ lvgl/src/lv_widgets/lv_spinner.c:287:30
	bl	lv_obj_get_ext_attr
	.loc	10 287 24                       @ lvgl/src/lv_widgets/lv_spinner.c:287:24
	str	r0, [sp, #8]
	.loc	10 289 27 is_stmt 1             @ lvgl/src/lv_widgets/lv_spinner.c:289:27
	ldrh.w	r0, [sp, #18]
	.loc	10 289 33 is_stmt 0             @ lvgl/src/lv_widgets/lv_spinner.c:289:33
	ldr	r1, [sp, #8]
	.loc	10 289 38                       @ lvgl/src/lv_widgets/lv_spinner.c:289:38
	ldrsh.w	r1, [r1, #48]
	.loc	10 289 49                       @ lvgl/src/lv_widgets/lv_spinner.c:289:49
	add.w	r1, r1, r1, lsr #31
	.loc	10 289 31                       @ lvgl/src/lv_widgets/lv_spinner.c:289:31
	sub.w	r0, r0, r1, lsr #1
	.loc	10 289 53                       @ lvgl/src/lv_widgets/lv_spinner.c:289:53
	subs	r0, #90
	.loc	10 289 13                       @ lvgl/src/lv_widgets/lv_spinner.c:289:13
	strh.w	r0, [sp, #6]
.Ltmp86:
	.loc	10 290 8 is_stmt 1              @ lvgl/src/lv_widgets/lv_spinner.c:290:8
	ldrsh.w	r0, [sp, #6]
.Ltmp87:
	.loc	10 290 8 is_stmt 0              @ lvgl/src/lv_widgets/lv_spinner.c:290:8
	cmp.w	r0, #-1
	bgt	.LBB9_2
	b	.LBB9_1
.LBB9_1:
.Ltmp88:
	.loc	10 290 37                       @ lvgl/src/lv_widgets/lv_spinner.c:290:37
	ldrh.w	r0, [sp, #6]
	add.w	r0, r0, #360
	strh.w	r0, [sp, #6]
	.loc	10 290 25                       @ lvgl/src/lv_widgets/lv_spinner.c:290:25
	b	.LBB9_2
.Ltmp89:
.LBB9_2:
	.loc	10 291 27 is_stmt 1             @ lvgl/src/lv_widgets/lv_spinner.c:291:27
	ldrh.w	r0, [sp, #6]
	.loc	10 291 41 is_stmt 0             @ lvgl/src/lv_widgets/lv_spinner.c:291:41
	ldr	r1, [sp, #8]
	ldrh	r1, [r1, #48]
	.loc	10 291 39                       @ lvgl/src/lv_widgets/lv_spinner.c:291:39
	add	r0, r1
	.loc	10 291 13                       @ lvgl/src/lv_widgets/lv_spinner.c:291:13
	strh.w	r0, [sp, #4]
	.loc	10 293 19 is_stmt 1             @ lvgl/src/lv_widgets/lv_spinner.c:293:19
	ldrsh.w	r3, [sp, #6]
	movw	r0, #24759
	movt	r0, #46603
	.loc	10 293 31 is_stmt 0             @ lvgl/src/lv_widgets/lv_spinner.c:293:31
	smmla	r2, r0, r3, r3
	lsrs	r1, r2, #8
	add.w	r2, r1, r2, lsr #31
	mov.w	r1, #360
	mls	r2, r2, r1, r3
	.loc	10 293 17                       @ lvgl/src/lv_widgets/lv_spinner.c:293:17
	strh.w	r2, [sp, #6]
	.loc	10 294 19 is_stmt 1             @ lvgl/src/lv_widgets/lv_spinner.c:294:19
	ldrsh.w	r2, [sp, #4]
	.loc	10 294 29 is_stmt 0             @ lvgl/src/lv_widgets/lv_spinner.c:294:29
	smmla	r3, r0, r2, r2
	lsrs	r0, r3, #8
	add.w	r0, r0, r3, lsr #31
	mls	r0, r0, r1, r2
	.loc	10 294 17                       @ lvgl/src/lv_widgets/lv_spinner.c:294:17
	strh.w	r0, [sp, #4]
	.loc	10 296 23 is_stmt 1             @ lvgl/src/lv_widgets/lv_spinner.c:296:23
	ldr	r0, [sp, #12]
	.loc	10 296 32 is_stmt 0             @ lvgl/src/lv_widgets/lv_spinner.c:296:32
	ldrh.w	r1, [sp, #6]
	.loc	10 296 45                       @ lvgl/src/lv_widgets/lv_spinner.c:296:45
	ldrh.w	r2, [sp, #4]
	.loc	10 296 5                        @ lvgl/src/lv_widgets/lv_spinner.c:296:5
	bl	lv_arc_set_angles
	.loc	10 297 1 is_stmt 1              @ lvgl/src/lv_widgets/lv_spinner.c:297:1
	add	sp, #24
	pop	{r7, pc}
.Ltmp90:
.Lfunc_end9:
	.size	lv_spinner_anim_cb, .Lfunc_end9-lv_spinner_anim_cb
	.cfi_endproc
	.cantunwind
	.fnend
                                        @ -- End function
	.section	.text.lv_anim_set_path,"ax",%progbits
	.p2align	3                               @ -- Begin function lv_anim_set_path
	.type	lv_anim_set_path,%function
	.code	16                              @ @lv_anim_set_path
	.thumb_func
lv_anim_set_path:
.Lfunc_begin10:
	.loc	13 197 0                        @ lvgl/src/lv_widgets/../lv_misc/lv_anim.h:197:0
	.fnstart
	.cfi_startproc
@ %bb.0:
	.save	{r7, lr}
	push	{r7, lr}
	.cfi_def_cfa_offset 8
	.cfi_offset lr, -4
	.cfi_offset r7, -8
	.pad	#8
	sub	sp, #8
	.cfi_def_cfa_offset 16
	str	r0, [sp, #4]
	str	r1, [sp]
.Ltmp91:
	.loc	13 198 23 prologue_end          @ lvgl/src/lv_widgets/../lv_misc/lv_anim.h:198:23
	ldr	r0, [sp, #4]
	.loc	13 198 26 is_stmt 0             @ lvgl/src/lv_widgets/../lv_misc/lv_anim.h:198:26
	adds	r0, #16
	.loc	13 198 32                       @ lvgl/src/lv_widgets/../lv_misc/lv_anim.h:198:32
	ldr	r1, [sp]
	movs	r2, #8
	.loc	13 198 5                        @ lvgl/src/lv_widgets/../lv_misc/lv_anim.h:198:5
	bl	_lv_memcpy_small
	.loc	13 199 1 is_stmt 1              @ lvgl/src/lv_widgets/../lv_misc/lv_anim.h:199:1
	add	sp, #8
	pop	{r7, pc}
.Ltmp92:
.Lfunc_end10:
	.size	lv_anim_set_path, .Lfunc_end10-lv_anim_set_path
	.cfi_endproc
	.cantunwind
	.fnend
                                        @ -- End function
	.section	.text.lv_anim_set_repeat_count,"ax",%progbits
	.p2align	3                               @ -- Begin function lv_anim_set_repeat_count
	.type	lv_anim_set_repeat_count,%function
	.code	16                              @ @lv_anim_set_repeat_count
	.thumb_func
lv_anim_set_repeat_count:
.Lfunc_begin11:
	.loc	13 247 0                        @ lvgl/src/lv_widgets/../lv_misc/lv_anim.h:247:0
	.fnstart
	.cfi_startproc
@ %bb.0:
	.pad	#8
	sub	sp, #8
	.cfi_def_cfa_offset 8
                                        @ kill: def $r2 killed $r1
	str	r0, [sp, #4]
	strh.w	r1, [sp, #2]
.Ltmp93:
	.loc	13 248 21 prologue_end          @ lvgl/src/lv_widgets/../lv_misc/lv_anim.h:248:21
	ldrh.w	r0, [sp, #2]
	.loc	13 248 5 is_stmt 0              @ lvgl/src/lv_widgets/../lv_misc/lv_anim.h:248:5
	ldr	r1, [sp, #4]
	.loc	13 248 19                       @ lvgl/src/lv_widgets/../lv_misc/lv_anim.h:248:19
	strh	r0, [r1, #56]
	.loc	13 249 1 is_stmt 1              @ lvgl/src/lv_widgets/../lv_misc/lv_anim.h:249:1
	add	sp, #8
	bx	lr
.Ltmp94:
.Lfunc_end11:
	.size	lv_anim_set_repeat_count, .Lfunc_end11-lv_anim_set_repeat_count
	.cfi_endproc
	.cantunwind
	.fnend
                                        @ -- End function
	.section	.text.lv_anim_set_time,"ax",%progbits
	.p2align	3                               @ -- Begin function lv_anim_set_time
	.type	lv_anim_set_time,%function
	.code	16                              @ @lv_anim_set_time
	.thumb_func
lv_anim_set_time:
.Lfunc_begin12:
	.loc	13 148 0                        @ lvgl/src/lv_widgets/../lv_misc/lv_anim.h:148:0
	.fnstart
	.cfi_startproc
@ %bb.0:
	.pad	#8
	sub	sp, #8
	.cfi_def_cfa_offset 8
	str	r0, [sp, #4]
	str	r1, [sp]
.Ltmp95:
	.loc	13 149 15 prologue_end          @ lvgl/src/lv_widgets/../lv_misc/lv_anim.h:149:15
	ldr	r0, [sp]
	.loc	13 149 5 is_stmt 0              @ lvgl/src/lv_widgets/../lv_misc/lv_anim.h:149:5
	ldr	r1, [sp, #4]
	.loc	13 149 13                       @ lvgl/src/lv_widgets/../lv_misc/lv_anim.h:149:13
	str	r0, [r1, #36]
	.loc	13 150 1 is_stmt 1              @ lvgl/src/lv_widgets/../lv_misc/lv_anim.h:150:1
	add	sp, #8
	bx	lr
.Ltmp96:
.Lfunc_end12:
	.size	lv_anim_set_time, .Lfunc_end12-lv_anim_set_time
	.cfi_endproc
	.cantunwind
	.fnend
                                        @ -- End function
	.section	.text.lv_anim_set_values,"ax",%progbits
	.p2align	3                               @ -- Begin function lv_anim_set_values
	.type	lv_anim_set_values,%function
	.code	16                              @ @lv_anim_set_values
	.thumb_func
lv_anim_set_values:
.Lfunc_begin13:
	.loc	13 169 0                        @ lvgl/src/lv_widgets/../lv_misc/lv_anim.h:169:0
	.fnstart
	.cfi_startproc
@ %bb.0:
	.pad	#8
	sub	sp, #8
	.cfi_def_cfa_offset 8
                                        @ kill: def $r3 killed $r2
                                        @ kill: def $r3 killed $r1
	str	r0, [sp, #4]
	strh.w	r1, [sp, #2]
	strh.w	r2, [sp]
.Ltmp97:
	.loc	13 170 16 prologue_end          @ lvgl/src/lv_widgets/../lv_misc/lv_anim.h:170:16
	ldrsh.w	r0, [sp, #2]
	.loc	13 170 5 is_stmt 0              @ lvgl/src/lv_widgets/../lv_misc/lv_anim.h:170:5
	ldr	r1, [sp, #4]
	.loc	13 170 14                       @ lvgl/src/lv_widgets/../lv_misc/lv_anim.h:170:14
	str	r0, [r1, #24]
	.loc	13 171 18 is_stmt 1             @ lvgl/src/lv_widgets/../lv_misc/lv_anim.h:171:18
	ldrsh.w	r0, [sp, #2]
	.loc	13 171 5 is_stmt 0              @ lvgl/src/lv_widgets/../lv_misc/lv_anim.h:171:5
	ldr	r1, [sp, #4]
	.loc	13 171 16                       @ lvgl/src/lv_widgets/../lv_misc/lv_anim.h:171:16
	str	r0, [r1, #28]
	.loc	13 172 14 is_stmt 1             @ lvgl/src/lv_widgets/../lv_misc/lv_anim.h:172:14
	ldrsh.w	r0, [sp]
	.loc	13 172 5 is_stmt 0              @ lvgl/src/lv_widgets/../lv_misc/lv_anim.h:172:5
	ldr	r1, [sp, #4]
	.loc	13 172 12                       @ lvgl/src/lv_widgets/../lv_misc/lv_anim.h:172:12
	str	r0, [r1, #32]
	.loc	13 173 1 is_stmt 1              @ lvgl/src/lv_widgets/../lv_misc/lv_anim.h:173:1
	add	sp, #8
	bx	lr
.Ltmp98:
.Lfunc_end13:
	.size	lv_anim_set_values, .Lfunc_end13-lv_anim_set_values
	.cfi_endproc
	.cantunwind
	.fnend
                                        @ -- End function
	.section	.text.lv_anim_set_playback_time,"ax",%progbits
	.p2align	3                               @ -- Begin function lv_anim_set_playback_time
	.type	lv_anim_set_playback_time,%function
	.code	16                              @ @lv_anim_set_playback_time
	.thumb_func
lv_anim_set_playback_time:
.Lfunc_begin14:
	.loc	13 227 0                        @ lvgl/src/lv_widgets/../lv_misc/lv_anim.h:227:0
	.fnstart
	.cfi_startproc
@ %bb.0:
	.pad	#8
	sub	sp, #8
	.cfi_def_cfa_offset 8
	str	r0, [sp, #4]
	str	r1, [sp]
.Ltmp99:
	.loc	13 228 24 prologue_end          @ lvgl/src/lv_widgets/../lv_misc/lv_anim.h:228:24
	ldr	r0, [sp]
	.loc	13 228 5 is_stmt 0              @ lvgl/src/lv_widgets/../lv_misc/lv_anim.h:228:5
	ldr	r1, [sp, #4]
	.loc	13 228 22                       @ lvgl/src/lv_widgets/../lv_misc/lv_anim.h:228:22
	str	r0, [r1, #48]
	.loc	13 229 1 is_stmt 1              @ lvgl/src/lv_widgets/../lv_misc/lv_anim.h:229:1
	add	sp, #8
	bx	lr
.Ltmp100:
.Lfunc_end14:
	.size	lv_anim_set_playback_time, .Lfunc_end14-lv_anim_set_playback_time
	.cfi_endproc
	.cantunwind
	.fnend
                                        @ -- End function
	.section	.text.lv_spinner_set_dir,"ax",%progbits
	.hidden	lv_spinner_set_dir              @ -- Begin function lv_spinner_set_dir
	.globl	lv_spinner_set_dir
	.p2align	3
	.type	lv_spinner_set_dir,%function
	.code	16                              @ @lv_spinner_set_dir
	.thumb_func
lv_spinner_set_dir:
.Lfunc_begin15:
	.loc	10 219 0                        @ lvgl/src/lv_widgets/lv_spinner.c:219:0
	.fnstart
	.cfi_startproc
@ %bb.0:
	.save	{r7, lr}
	push	{r7, lr}
	.cfi_def_cfa_offset 8
	.cfi_offset lr, -4
	.cfi_offset r7, -8
	.pad	#16
	sub	sp, #16
	.cfi_def_cfa_offset 24
                                        @ kill: def $r2 killed $r1
	str	r0, [sp, #12]
	strb.w	r1, [sp, #11]
.Ltmp101:
	.loc	10 220 5 prologue_end           @ lvgl/src/lv_widgets/lv_spinner.c:220:5
	b	.LBB15_1
.LBB15_1:
.Ltmp102:
	.loc	10 220 5 is_stmt 0              @ lvgl/src/lv_widgets/lv_spinner.c:220:5
	ldr	r0, [sp, #12]
	bl	lv_debug_check_null
.Ltmp103:
	.loc	10 220 5                        @ lvgl/src/lv_widgets/lv_spinner.c:220:5
	cbnz	r0, .LBB15_4
	b	.LBB15_2
.LBB15_2:
.Ltmp104:
	.loc	10 220 5                        @ lvgl/src/lv_widgets/lv_spinner.c:220:5
	ldr	r2, [sp, #12]
	movw	r0, :lower16:.L.str.1
	movt	r0, :upper16:.L.str.1
	movs	r3, #0
	bl	lv_debug_log_error
	b	.LBB15_3
.LBB15_3:                               @ =>This Inner Loop Header: Depth=1
	b	.LBB15_3
.Ltmp105:
.LBB15_4:
	.loc	10 220 5                        @ lvgl/src/lv_widgets/lv_spinner.c:220:5
	b	.LBB15_5
.Ltmp106:
.LBB15_5:
	.loc	10 222 50 is_stmt 1             @ lvgl/src/lv_widgets/lv_spinner.c:222:50
	ldr	r0, [sp, #12]
	.loc	10 222 30 is_stmt 0             @ lvgl/src/lv_widgets/lv_spinner.c:222:30
	bl	lv_obj_get_ext_attr
	.loc	10 222 24                       @ lvgl/src/lv_widgets/lv_spinner.c:222:24
	str	r0, [sp, #4]
	.loc	10 224 21 is_stmt 1             @ lvgl/src/lv_widgets/lv_spinner.c:224:21
	ldrb.w	r2, [sp, #11]
	.loc	10 224 5 is_stmt 0              @ lvgl/src/lv_widgets/lv_spinner.c:224:5
	ldr	r1, [sp, #4]
	.loc	10 224 19                       @ lvgl/src/lv_widgets/lv_spinner.c:224:19
	ldrb.w	r0, [r1, #52]
	and	r2, r2, #1
	and	r0, r0, #251
	orr.w	r0, r0, r2, lsl #2
	strb.w	r0, [r1, #52]
	.loc	10 225 25 is_stmt 1             @ lvgl/src/lv_widgets/lv_spinner.c:225:25
	ldr	r0, [sp, #12]
	.loc	10 225 34 is_stmt 0             @ lvgl/src/lv_widgets/lv_spinner.c:225:34
	ldr	r1, [sp, #4]
	.loc	10 225 39                       @ lvgl/src/lv_widgets/lv_spinner.c:225:39
	ldrb.w	r1, [r1, #52]
	.loc	10 225 5                        @ lvgl/src/lv_widgets/lv_spinner.c:225:5
	and	r1, r1, #3
	bl	lv_spinner_set_type
	.loc	10 226 1 is_stmt 1              @ lvgl/src/lv_widgets/lv_spinner.c:226:1
	add	sp, #16
	pop	{r7, pc}
.Ltmp107:
.Lfunc_end15:
	.size	lv_spinner_set_dir, .Lfunc_end15-lv_spinner_set_dir
	.cfi_endproc
	.cantunwind
	.fnend
                                        @ -- End function
	.section	.text.lv_spinner_get_arc_length,"ax",%progbits
	.hidden	lv_spinner_get_arc_length       @ -- Begin function lv_spinner_get_arc_length
	.globl	lv_spinner_get_arc_length
	.p2align	3
	.type	lv_spinner_get_arc_length,%function
	.code	16                              @ @lv_spinner_get_arc_length
	.thumb_func
lv_spinner_get_arc_length:
.Lfunc_begin16:
	.loc	10 237 0                        @ lvgl/src/lv_widgets/lv_spinner.c:237:0
	.fnstart
	.cfi_startproc
@ %bb.0:
	.save	{r7, lr}
	push	{r7, lr}
	.cfi_def_cfa_offset 8
	.cfi_offset lr, -4
	.cfi_offset r7, -8
	.pad	#8
	sub	sp, #8
	.cfi_def_cfa_offset 16
	str	r0, [sp, #4]
.Ltmp108:
	.loc	10 238 5 prologue_end           @ lvgl/src/lv_widgets/lv_spinner.c:238:5
	b	.LBB16_1
.LBB16_1:
.Ltmp109:
	.loc	10 238 5 is_stmt 0              @ lvgl/src/lv_widgets/lv_spinner.c:238:5
	ldr	r0, [sp, #4]
	bl	lv_debug_check_null
.Ltmp110:
	.loc	10 238 5                        @ lvgl/src/lv_widgets/lv_spinner.c:238:5
	cbnz	r0, .LBB16_4
	b	.LBB16_2
.LBB16_2:
.Ltmp111:
	.loc	10 238 5                        @ lvgl/src/lv_widgets/lv_spinner.c:238:5
	ldr	r2, [sp, #4]
	movw	r0, :lower16:.L.str.1
	movt	r0, :upper16:.L.str.1
	movs	r3, #0
	bl	lv_debug_log_error
	b	.LBB16_3
.LBB16_3:                               @ =>This Inner Loop Header: Depth=1
	b	.LBB16_3
.Ltmp112:
.LBB16_4:
	.loc	10 238 5                        @ lvgl/src/lv_widgets/lv_spinner.c:238:5
	b	.LBB16_5
.Ltmp113:
.LBB16_5:
	.loc	10 240 50 is_stmt 1             @ lvgl/src/lv_widgets/lv_spinner.c:240:50
	ldr	r0, [sp, #4]
	.loc	10 240 30 is_stmt 0             @ lvgl/src/lv_widgets/lv_spinner.c:240:30
	bl	lv_obj_get_ext_attr
	.loc	10 240 24                       @ lvgl/src/lv_widgets/lv_spinner.c:240:24
	str	r0, [sp]
	.loc	10 241 12 is_stmt 1             @ lvgl/src/lv_widgets/lv_spinner.c:241:12
	ldr	r0, [sp]
	.loc	10 241 17 is_stmt 0             @ lvgl/src/lv_widgets/lv_spinner.c:241:17
	ldrsh.w	r0, [r0, #48]
	.loc	10 241 5                        @ lvgl/src/lv_widgets/lv_spinner.c:241:5
	add	sp, #8
	pop	{r7, pc}
.Ltmp114:
.Lfunc_end16:
	.size	lv_spinner_get_arc_length, .Lfunc_end16-lv_spinner_get_arc_length
	.cfi_endproc
	.cantunwind
	.fnend
                                        @ -- End function
	.section	.text.lv_spinner_get_spin_time,"ax",%progbits
	.hidden	lv_spinner_get_spin_time        @ -- Begin function lv_spinner_get_spin_time
	.globl	lv_spinner_get_spin_time
	.p2align	3
	.type	lv_spinner_get_spin_time,%function
	.code	16                              @ @lv_spinner_get_spin_time
	.thumb_func
lv_spinner_get_spin_time:
.Lfunc_begin17:
	.loc	10 249 0 is_stmt 1              @ lvgl/src/lv_widgets/lv_spinner.c:249:0
	.fnstart
	.cfi_startproc
@ %bb.0:
	.save	{r7, lr}
	push	{r7, lr}
	.cfi_def_cfa_offset 8
	.cfi_offset lr, -4
	.cfi_offset r7, -8
	.pad	#8
	sub	sp, #8
	.cfi_def_cfa_offset 16
	str	r0, [sp, #4]
.Ltmp115:
	.loc	10 250 5 prologue_end           @ lvgl/src/lv_widgets/lv_spinner.c:250:5
	b	.LBB17_1
.LBB17_1:
.Ltmp116:
	.loc	10 250 5 is_stmt 0              @ lvgl/src/lv_widgets/lv_spinner.c:250:5
	ldr	r0, [sp, #4]
	bl	lv_debug_check_null
.Ltmp117:
	.loc	10 250 5                        @ lvgl/src/lv_widgets/lv_spinner.c:250:5
	cbnz	r0, .LBB17_4
	b	.LBB17_2
.LBB17_2:
.Ltmp118:
	.loc	10 250 5                        @ lvgl/src/lv_widgets/lv_spinner.c:250:5
	ldr	r2, [sp, #4]
	movw	r0, :lower16:.L.str.1
	movt	r0, :upper16:.L.str.1
	movs	r3, #0
	bl	lv_debug_log_error
	b	.LBB17_3
.LBB17_3:                               @ =>This Inner Loop Header: Depth=1
	b	.LBB17_3
.Ltmp119:
.LBB17_4:
	.loc	10 250 5                        @ lvgl/src/lv_widgets/lv_spinner.c:250:5
	b	.LBB17_5
.Ltmp120:
.LBB17_5:
	.loc	10 252 50 is_stmt 1             @ lvgl/src/lv_widgets/lv_spinner.c:252:50
	ldr	r0, [sp, #4]
	.loc	10 252 30 is_stmt 0             @ lvgl/src/lv_widgets/lv_spinner.c:252:30
	bl	lv_obj_get_ext_attr
	.loc	10 252 24                       @ lvgl/src/lv_widgets/lv_spinner.c:252:24
	str	r0, [sp]
	.loc	10 253 12 is_stmt 1             @ lvgl/src/lv_widgets/lv_spinner.c:253:12
	ldr	r0, [sp]
	.loc	10 253 17 is_stmt 0             @ lvgl/src/lv_widgets/lv_spinner.c:253:17
	ldrh	r0, [r0, #50]
	.loc	10 253 5                        @ lvgl/src/lv_widgets/lv_spinner.c:253:5
	add	sp, #8
	pop	{r7, pc}
.Ltmp121:
.Lfunc_end17:
	.size	lv_spinner_get_spin_time, .Lfunc_end17-lv_spinner_get_spin_time
	.cfi_endproc
	.cantunwind
	.fnend
                                        @ -- End function
	.section	.text.lv_spinner_get_type,"ax",%progbits
	.hidden	lv_spinner_get_type             @ -- Begin function lv_spinner_get_type
	.globl	lv_spinner_get_type
	.p2align	3
	.type	lv_spinner_get_type,%function
	.code	16                              @ @lv_spinner_get_type
	.thumb_func
lv_spinner_get_type:
.Lfunc_begin18:
	.loc	10 262 0 is_stmt 1              @ lvgl/src/lv_widgets/lv_spinner.c:262:0
	.fnstart
	.cfi_startproc
@ %bb.0:
	.save	{r7, lr}
	push	{r7, lr}
	.cfi_def_cfa_offset 8
	.cfi_offset lr, -4
	.cfi_offset r7, -8
	.pad	#8
	sub	sp, #8
	.cfi_def_cfa_offset 16
	str	r0, [sp, #4]
.Ltmp122:
	.loc	10 263 5 prologue_end           @ lvgl/src/lv_widgets/lv_spinner.c:263:5
	b	.LBB18_1
.LBB18_1:
.Ltmp123:
	.loc	10 263 5 is_stmt 0              @ lvgl/src/lv_widgets/lv_spinner.c:263:5
	ldr	r0, [sp, #4]
	bl	lv_debug_check_null
.Ltmp124:
	.loc	10 263 5                        @ lvgl/src/lv_widgets/lv_spinner.c:263:5
	cbnz	r0, .LBB18_4
	b	.LBB18_2
.LBB18_2:
.Ltmp125:
	.loc	10 263 5                        @ lvgl/src/lv_widgets/lv_spinner.c:263:5
	ldr	r2, [sp, #4]
	movw	r0, :lower16:.L.str.1
	movt	r0, :upper16:.L.str.1
	movs	r3, #0
	bl	lv_debug_log_error
	b	.LBB18_3
.LBB18_3:                               @ =>This Inner Loop Header: Depth=1
	b	.LBB18_3
.Ltmp126:
.LBB18_4:
	.loc	10 263 5                        @ lvgl/src/lv_widgets/lv_spinner.c:263:5
	b	.LBB18_5
.Ltmp127:
.LBB18_5:
	.loc	10 265 50 is_stmt 1             @ lvgl/src/lv_widgets/lv_spinner.c:265:50
	ldr	r0, [sp, #4]
	.loc	10 265 30 is_stmt 0             @ lvgl/src/lv_widgets/lv_spinner.c:265:30
	bl	lv_obj_get_ext_attr
	.loc	10 265 24                       @ lvgl/src/lv_widgets/lv_spinner.c:265:24
	str	r0, [sp]
	.loc	10 266 12 is_stmt 1             @ lvgl/src/lv_widgets/lv_spinner.c:266:12
	ldr	r0, [sp]
	.loc	10 266 17 is_stmt 0             @ lvgl/src/lv_widgets/lv_spinner.c:266:17
	ldrb.w	r0, [r0, #52]
	.loc	10 266 5                        @ lvgl/src/lv_widgets/lv_spinner.c:266:5
	and	r0, r0, #3
	add	sp, #8
	pop	{r7, pc}
.Ltmp128:
.Lfunc_end18:
	.size	lv_spinner_get_type, .Lfunc_end18-lv_spinner_get_type
	.cfi_endproc
	.cantunwind
	.fnend
                                        @ -- End function
	.section	.text.lv_spinner_get_dir,"ax",%progbits
	.hidden	lv_spinner_get_dir              @ -- Begin function lv_spinner_get_dir
	.globl	lv_spinner_get_dir
	.p2align	3
	.type	lv_spinner_get_dir,%function
	.code	16                              @ @lv_spinner_get_dir
	.thumb_func
lv_spinner_get_dir:
.Lfunc_begin19:
	.loc	10 270 0 is_stmt 1              @ lvgl/src/lv_widgets/lv_spinner.c:270:0
	.fnstart
	.cfi_startproc
@ %bb.0:
	.save	{r7, lr}
	push	{r7, lr}
	.cfi_def_cfa_offset 8
	.cfi_offset lr, -4
	.cfi_offset r7, -8
	.pad	#8
	sub	sp, #8
	.cfi_def_cfa_offset 16
	str	r0, [sp, #4]
.Ltmp129:
	.loc	10 271 50 prologue_end          @ lvgl/src/lv_widgets/lv_spinner.c:271:50
	ldr	r0, [sp, #4]
	.loc	10 271 30 is_stmt 0             @ lvgl/src/lv_widgets/lv_spinner.c:271:30
	bl	lv_obj_get_ext_attr
	.loc	10 271 24                       @ lvgl/src/lv_widgets/lv_spinner.c:271:24
	str	r0, [sp]
	.loc	10 272 12 is_stmt 1             @ lvgl/src/lv_widgets/lv_spinner.c:272:12
	ldr	r0, [sp]
	.loc	10 272 17 is_stmt 0             @ lvgl/src/lv_widgets/lv_spinner.c:272:17
	ldrb.w	r0, [r0, #52]
	ubfx	r0, r0, #2, #1
	.loc	10 272 5                        @ lvgl/src/lv_widgets/lv_spinner.c:272:5
	add	sp, #8
	pop	{r7, pc}
.Ltmp130:
.Lfunc_end19:
	.size	lv_spinner_get_dir, .Lfunc_end19-lv_spinner_get_dir
	.cfi_endproc
	.cantunwind
	.fnend
                                        @ -- End function
	.section	.text._lv_memcpy_small,"ax",%progbits
	.p2align	3                               @ -- Begin function _lv_memcpy_small
	.type	_lv_memcpy_small,%function
	.code	16                              @ @_lv_memcpy_small
	.thumb_func
_lv_memcpy_small:
.Lfunc_begin20:
	.file	14 "E:\\STM32\\Learning\\STM32H750_ART_PI_RGBLCD" "lvgl/src/lv_widgets/../lv_core/../lv_font/../lv_misc/lv_mem.h"
	.loc	14 214 0 is_stmt 1              @ lvgl/src/lv_widgets/../lv_core/../lv_font/../lv_misc/lv_mem.h:214:0
	.fnstart
	.cfi_startproc
@ %bb.0:
	.pad	#20
	sub	sp, #20
	.cfi_def_cfa_offset 20
	str	r0, [sp, #16]
	str	r1, [sp, #12]
	str	r2, [sp, #8]
.Ltmp131:
	.loc	14 215 31 prologue_end          @ lvgl/src/lv_widgets/../lv_core/../lv_font/../lv_misc/lv_mem.h:215:31
	ldr	r0, [sp, #16]
	.loc	14 215 15 is_stmt 0             @ lvgl/src/lv_widgets/../lv_core/../lv_font/../lv_misc/lv_mem.h:215:15
	str	r0, [sp, #4]
	.loc	14 216 43 is_stmt 1             @ lvgl/src/lv_widgets/../lv_core/../lv_font/../lv_misc/lv_mem.h:216:43
	ldr	r0, [sp, #12]
	.loc	14 216 21 is_stmt 0             @ lvgl/src/lv_widgets/../lv_core/../lv_font/../lv_misc/lv_mem.h:216:21
	str	r0, [sp]
	.loc	14 218 5 is_stmt 1              @ lvgl/src/lv_widgets/../lv_core/../lv_font/../lv_misc/lv_mem.h:218:5
	b	.LBB20_1
.LBB20_1:                               @ =>This Inner Loop Header: Depth=1
	.loc	14 218 11 is_stmt 0             @ lvgl/src/lv_widgets/../lv_core/../lv_font/../lv_misc/lv_mem.h:218:11
	ldr	r0, [sp, #8]
	.loc	14 218 5                        @ lvgl/src/lv_widgets/../lv_core/../lv_font/../lv_misc/lv_mem.h:218:5
	cbz	r0, .LBB20_3
	b	.LBB20_2
.LBB20_2:                               @   in Loop: Header=BB20_1 Depth=1
.Ltmp132:
	.loc	14 219 16 is_stmt 1             @ lvgl/src/lv_widgets/../lv_core/../lv_font/../lv_misc/lv_mem.h:219:16
	ldr	r0, [sp]
	.loc	14 219 15 is_stmt 0             @ lvgl/src/lv_widgets/../lv_core/../lv_font/../lv_misc/lv_mem.h:219:15
	ldrb	r0, [r0]
	.loc	14 219 10                       @ lvgl/src/lv_widgets/../lv_core/../lv_font/../lv_misc/lv_mem.h:219:10
	ldr	r1, [sp, #4]
	.loc	14 219 13                       @ lvgl/src/lv_widgets/../lv_core/../lv_font/../lv_misc/lv_mem.h:219:13
	strb	r0, [r1]
	.loc	14 220 11 is_stmt 1             @ lvgl/src/lv_widgets/../lv_core/../lv_font/../lv_misc/lv_mem.h:220:11
	ldr	r0, [sp, #4]
	adds	r0, #1
	str	r0, [sp, #4]
	.loc	14 221 11                       @ lvgl/src/lv_widgets/../lv_core/../lv_font/../lv_misc/lv_mem.h:221:11
	ldr	r0, [sp]
	adds	r0, #1
	str	r0, [sp]
	.loc	14 222 12                       @ lvgl/src/lv_widgets/../lv_core/../lv_font/../lv_misc/lv_mem.h:222:12
	ldr	r0, [sp, #8]
	subs	r0, #1
	str	r0, [sp, #8]
.Ltmp133:
	.loc	14 218 5                        @ lvgl/src/lv_widgets/../lv_core/../lv_font/../lv_misc/lv_mem.h:218:5
	b	.LBB20_1
.LBB20_3:
	.loc	14 225 12                       @ lvgl/src/lv_widgets/../lv_core/../lv_font/../lv_misc/lv_mem.h:225:12
	ldr	r0, [sp, #16]
	.loc	14 225 5 is_stmt 0              @ lvgl/src/lv_widgets/../lv_core/../lv_font/../lv_misc/lv_mem.h:225:5
	add	sp, #20
	bx	lr
.Ltmp134:
.Lfunc_end20:
	.size	_lv_memcpy_small, .Lfunc_end20-_lv_memcpy_small
	.cfi_endproc
	.cantunwind
	.fnend
                                        @ -- End function
	.type	.L.str,%object                  @ @.str
	.section	.rodata.str1.1,"aMS",%progbits,1
.L.str:
	.asciz	"Out of memory"
	.size	.L.str, 14

	.type	ancestor_signal,%object         @ @ancestor_signal
	.section	.bss.ancestor_signal,"aw",%nobits
	.p2align	2
ancestor_signal:
	.long	0
	.size	ancestor_signal, 4

	.type	ancestor_design,%object         @ @ancestor_design
	.section	.bss.ancestor_design,"aw",%nobits
	.p2align	2
ancestor_design:
	.long	0
	.size	ancestor_design, 4

	.type	.L.str.1,%object                @ @.str.1
	.section	.rodata.str1.1,"aMS",%progbits,1
.L.str.1:
	.asciz	"NULL pointer"
	.size	.L.str.1, 13

	.type	.L.str.2,%object                @ @.str.2
.L.str.2:
	.asciz	"lv_spinner"
	.size	.L.str.2, 11

	.file	15 "E:\\STM32\\Learning\\STM32H750_ART_PI_RGBLCD" "lvgl/src/lv_widgets/lv_arc.h"
	.file	16 "D:\\Keil_v5\\ARM\\ARMCLANG\\Bin\\..\\include" "stddef.h"
	.section	".note.GNU-stack","",%progbits
	.eabi_attribute	30, 6	@ Tag_ABI_optimization_goals
	.ARM_attribute	16, 1	@ Tag_AV_eba