	.text
	.syntax unified
	.eabi_attribute	67, "2.09"	@ Tag_conformance
	.cpu	cortex-m7
	.eabi_attribute	6, 13	@ Tag_CPU_arch
	.eabi_attribute	7, 77	@ Tag_CPU_arch_profile
	.eabi_attribute	8, 0	@ Tag_ARM_ISA_use
	.eabi_attribute	9, 2	@ Tag_THUMB_ISA_use
	.fpu	fpv5-d16
	.eabi_attribute	36, 1	@ Tag_FP_HP_extension
	.eabi_attribute	34, 1	@ Tag_CPU_unaligned_access
	.eabi_attribute	17, 1	@ Tag_ABI_PCS_GOT_use
	.eabi_attribute	20, 2	@ Tag_ABI_FP_denormal
	.eabi_attribute	21, 0	@ Tag_ABI_FP_exceptions
	.eabi_attribute	23, 1	@ Tag_ABI_FP_number_model
	.eabi_attribute	24, 1	@ Tag_ABI_align_needed
	.eabi_attribute	25, 1	@ Tag_ABI_align_preserved
	.eabi_attribute	28, 1	@ Tag_ABI_VFP_args
	.eabi_attribute	38, 1	@ Tag_ABI_FP_16bit_format
	.eabi_attribute	18, 2	@ Tag_ABI_PCS_wchar_t
	.eabi_attribute	26, 1	@ Tag_ABI_enum_size
	.eabi_attribute	14, 0	@ Tag_ABI_PCS_R9_use
	.file	"lv_switch.c"
	.file	1 "D:\\Keil_v5\\ARM\\ARMCLANG\\Bin\\..\\include" "stdint.h"
	.file	2 "E:\\Smart-access-control\\Hardware\\CODE" "lvgl/src/lv_widgets/../lv_core/../lv_draw/../lv_misc/lv_types.h"
	.file	3 "E:\\Smart-access-control\\Hardware\\CODE" "lvgl/src/lv_widgets/../lv_themes/../lv_core/lv_obj.h"
	.file	4 "E:\\Smart-access-control\\Hardware\\CODE" "lvgl/src/lv_widgets/../lv_core/../lv_font/../lv_misc/lv_ll.h"
	.file	5 "E:\\Smart-access-control\\Hardware\\CODE" "./lvgl/src/lv_conf.h"
	.file	6 "E:\\Smart-access-control\\Hardware\\CODE" "lvgl/src/lv_widgets/../lv_core/../lv_hal/../lv_misc/lv_area.h"
	.file	7 "E:\\Smart-access-control\\Hardware\\CODE" "lvgl/src/lv_widgets/../lv_themes/../lv_core/lv_style.h"
	.file	8 "E:\\Smart-access-control\\Hardware\\CODE" "lvgl/src/lv_widgets/../lv_core/../lv_hal/lv_hal_indev.h"
	.file	9 "E:\\Smart-access-control\\Hardware\\CODE" "lvgl/src/lv_widgets/../lv_core/../lv_draw/../lv_misc/lv_bidi.h"
	.file	10 "E:\\Smart-access-control\\Hardware\\CODE" "lvgl/src/lv_widgets/lv_switch.c"
	.file	11 "E:\\Smart-access-control\\Hardware\\CODE" "lvgl/src/lv_widgets/../lv_themes/lv_theme.h"
	.file	12 "E:\\Smart-access-control\\Hardware\\CODE" "lvgl/src/lv_widgets/lv_switch.h"
	.file	13 "E:\\Smart-access-control\\Hardware\\CODE" "lvgl/src/lv_widgets/../lv_misc/lv_anim.h"
	.file	14 "E:\\Smart-access-control\\Hardware\\CODE" "lvgl/src/lv_widgets/../lv_core/../lv_core/lv_group.h"
	.section	.text.lv_switch_create,"ax",%progbits
	.hidden	lv_switch_create                @ -- Begin function lv_switch_create
	.globl	lv_switch_create
	.p2align	3
	.type	lv_switch_create,%function
	.code	16                              @ @lv_switch_create
	.thumb_func
lv_switch_create:
.Lfunc_begin0:
	.loc	10 62 0                         @ lvgl/src/lv_widgets/lv_switch.c:62:0
	.fnstart
	.cfi_sections .debug_frame
	.cfi_startproc
@ %bb.0:
	.save	{r7, lr}
	push	{r7, lr}
	.cfi_def_cfa_offset 8
	.cfi_offset lr, -4
	.cfi_offset r7, -8
	.pad	#40
	sub	sp, #40
	.cfi_def_cfa_offset 48
	str	r0, [sp, #32]
	str	r1, [sp, #28]
.Ltmp0:
	.loc	10 66 35 prologue_end           @ lvgl/src/lv_widgets/lv_switch.c:66:35
	ldr	r0, [sp, #32]
	.loc	10 66 40 is_stmt 0              @ lvgl/src/lv_widgets/lv_switch.c:66:40
	ldr	r1, [sp, #28]
	.loc	10 66 21                        @ lvgl/src/lv_widgets/lv_switch.c:66:21
	bl	lv_bar_create
	.loc	10 66 16                        @ lvgl/src/lv_widgets/lv_switch.c:66:16
	str	r0, [sp, #24]
	.loc	10 67 5 is_stmt 1               @ lvgl/src/lv_widgets/lv_switch.c:67:5
	b	.LBB0_1
.LBB0_1:
.Ltmp1:
	.loc	10 67 5 is_stmt 0               @ lvgl/src/lv_widgets/lv_switch.c:67:5
	ldr	r0, [sp, #24]
	bl	lv_debug_check_null
.Ltmp2:
	.loc	10 67 5                         @ lvgl/src/lv_widgets/lv_switch.c:67:5
	cbnz	r0, .LBB0_4
	b	.LBB0_2
.LBB0_2:
.Ltmp3:
	.loc	10 67 5                         @ lvgl/src/lv_widgets/lv_switch.c:67:5
	ldr	r2, [sp, #24]
	movw	r0, :lower16:.L.str
	movt	r0, :upper16:.L.str
	movs	r3, #0
	bl	lv_debug_log_error
	b	.LBB0_3
.LBB0_3:                                @ =>This Inner Loop Header: Depth=1
	b	.LBB0_3
.Ltmp4:
.LBB0_4:
	.loc	10 67 5                         @ lvgl/src/lv_widgets/lv_switch.c:67:5
	b	.LBB0_5
.Ltmp5:
.LBB0_5:
	.loc	10 69 8 is_stmt 1               @ lvgl/src/lv_widgets/lv_switch.c:69:8
	ldr	r0, [sp, #24]
.Ltmp6:
	.loc	10 69 8 is_stmt 0               @ lvgl/src/lv_widgets/lv_switch.c:69:8
	cbnz	r0, .LBB0_7
	b	.LBB0_6
.LBB0_6:
	.loc	10 0 8                          @ lvgl/src/lv_widgets/lv_switch.c:0:8
	movs	r0, #0
.Ltmp7:
	.loc	10 69 20                        @ lvgl/src/lv_widgets/lv_switch.c:69:20
	str	r0, [sp, #36]
	b	.LBB0_28
.Ltmp8:
.LBB0_7:
	.loc	10 71 8 is_stmt 1               @ lvgl/src/lv_widgets/lv_switch.c:71:8
	movw	r0, :lower16:ancestor_signal
	movt	r0, :upper16:ancestor_signal
	ldr	r0, [r0]
.Ltmp9:
	.loc	10 71 8 is_stmt 0               @ lvgl/src/lv_widgets/lv_switch.c:71:8
	cbnz	r0, .LBB0_9
	b	.LBB0_8
.LBB0_8:
.Ltmp10:
	.loc	10 71 72                        @ lvgl/src/lv_widgets/lv_switch.c:71:72
	ldr	r0, [sp, #24]
	.loc	10 71 51                        @ lvgl/src/lv_widgets/lv_switch.c:71:51
	bl	lv_obj_get_signal_cb
	.loc	10 71 49                        @ lvgl/src/lv_widgets/lv_switch.c:71:49
	movw	r1, :lower16:ancestor_signal
	movt	r1, :upper16:ancestor_signal
	str	r0, [r1]
	.loc	10 71 33                        @ lvgl/src/lv_widgets/lv_switch.c:71:33
	b	.LBB0_9
.Ltmp11:
.LBB0_9:
	.loc	10 72 8 is_stmt 1               @ lvgl/src/lv_widgets/lv_switch.c:72:8
	movw	r0, :lower16:ancestor_design
	movt	r0, :upper16:ancestor_design
	ldr	r0, [r0]
.Ltmp12:
	.loc	10 72 8 is_stmt 0               @ lvgl/src/lv_widgets/lv_switch.c:72:8
	cbnz	r0, .LBB0_11
	b	.LBB0_10
.LBB0_10:
.Ltmp13:
	.loc	10 72 72                        @ lvgl/src/lv_widgets/lv_switch.c:72:72
	ldr	r0, [sp, #24]
	.loc	10 72 51                        @ lvgl/src/lv_widgets/lv_switch.c:72:51
	bl	lv_obj_get_design_cb
	.loc	10 72 49                        @ lvgl/src/lv_widgets/lv_switch.c:72:49
	movw	r1, :lower16:ancestor_design
	movt	r1, :upper16:ancestor_design
	str	r0, [r1]
	.loc	10 72 33                        @ lvgl/src/lv_widgets/lv_switch.c:72:33
	b	.LBB0_11
.Ltmp14:
.LBB0_11:
	.loc	10 75 54 is_stmt 1              @ lvgl/src/lv_widgets/lv_switch.c:75:54
	ldr	r0, [sp, #24]
	movs	r1, #64
	.loc	10 75 29 is_stmt 0              @ lvgl/src/lv_widgets/lv_switch.c:75:29
	bl	lv_obj_allocate_ext_attr
	.loc	10 75 23                        @ lvgl/src/lv_widgets/lv_switch.c:75:23
	str	r0, [sp, #20]
	.loc	10 76 5 is_stmt 1               @ lvgl/src/lv_widgets/lv_switch.c:76:5
	b	.LBB0_12
.LBB0_12:
.Ltmp15:
	.loc	10 76 5 is_stmt 0               @ lvgl/src/lv_widgets/lv_switch.c:76:5
	ldr	r0, [sp, #20]
	bl	lv_debug_check_null
.Ltmp16:
	.loc	10 76 5                         @ lvgl/src/lv_widgets/lv_switch.c:76:5
	cbnz	r0, .LBB0_15
	b	.LBB0_13
.LBB0_13:
.Ltmp17:
	.loc	10 76 5                         @ lvgl/src/lv_widgets/lv_switch.c:76:5
	ldr	r2, [sp, #20]
	movw	r0, :lower16:.L.str
	movt	r0, :upper16:.L.str
	movs	r3, #0
	bl	lv_debug_log_error
	b	.LBB0_14
.LBB0_14:                               @ =>This Inner Loop Header: Depth=1
	b	.LBB0_14
.Ltmp18:
.LBB0_15:
	.loc	10 76 5                         @ lvgl/src/lv_widgets/lv_switch.c:76:5
	b	.LBB0_16
.Ltmp19:
.LBB0_16:
	.loc	10 77 8 is_stmt 1               @ lvgl/src/lv_widgets/lv_switch.c:77:8
	ldr	r0, [sp, #20]
.Ltmp20:
	.loc	10 77 8 is_stmt 0               @ lvgl/src/lv_widgets/lv_switch.c:77:8
	cbnz	r0, .LBB0_18
	b	.LBB0_17
.LBB0_17:
.Ltmp21:
	.loc	10 78 20 is_stmt 1              @ lvgl/src/lv_widgets/lv_switch.c:78:20
	ldr	r0, [sp, #24]
	.loc	10 78 9 is_stmt 0               @ lvgl/src/lv_widgets/lv_switch.c:78:9
	bl	lv_obj_del
	movs	r0, #0
	.loc	10 79 9 is_stmt 1               @ lvgl/src/lv_widgets/lv_switch.c:79:9
	str	r0, [sp, #36]
	b	.LBB0_28
.Ltmp22:
.LBB0_18:
	.loc	10 82 25                        @ lvgl/src/lv_widgets/lv_switch.c:82:25
	ldr	r0, [sp, #20]
	.loc	10 82 30 is_stmt 0              @ lvgl/src/lv_widgets/lv_switch.c:82:30
	adds	r0, #56
	.loc	10 82 5                         @ lvgl/src/lv_widgets/lv_switch.c:82:5
	bl	lv_style_list_init
	.loc	10 85 26 is_stmt 1              @ lvgl/src/lv_widgets/lv_switch.c:85:26
	ldr	r0, [sp, #24]
	.loc	10 85 5 is_stmt 0               @ lvgl/src/lv_widgets/lv_switch.c:85:5
	movw	r1, :lower16:lv_switch_signal
	movt	r1, :upper16:lv_switch_signal
	bl	lv_obj_set_signal_cb
	.loc	10 86 26 is_stmt 1              @ lvgl/src/lv_widgets/lv_switch.c:86:26
	ldr	r0, [sp, #24]
	.loc	10 86 5 is_stmt 0               @ lvgl/src/lv_widgets/lv_switch.c:86:5
	movw	r1, :lower16:lv_switch_design
	movt	r1, :upper16:lv_switch_design
	bl	lv_obj_set_design_cb
.Ltmp23:
	.loc	10 89 8 is_stmt 1               @ lvgl/src/lv_widgets/lv_switch.c:89:8
	ldr	r0, [sp, #28]
.Ltmp24:
	.loc	10 89 8 is_stmt 0               @ lvgl/src/lv_widgets/lv_switch.c:89:8
	cmp	r0, #0
	bne	.LBB0_26
	b	.LBB0_19
.LBB0_19:
.Ltmp25:
	.loc	10 90 26 is_stmt 1              @ lvgl/src/lv_widgets/lv_switch.c:90:26
	ldr	r0, [sp, #24]
	movs	r1, #1
	.loc	10 90 9 is_stmt 0               @ lvgl/src/lv_widgets/lv_switch.c:90:9
	bl	lv_obj_set_click
	.loc	10 91 28 is_stmt 1              @ lvgl/src/lv_widgets/lv_switch.c:91:28
	ldr	r0, [sp, #24]
	movs	r1, #16
	.loc	10 91 9 is_stmt 0               @ lvgl/src/lv_widgets/lv_switch.c:91:9
	bl	lv_obj_add_protect
	.loc	10 92 25 is_stmt 1              @ lvgl/src/lv_widgets/lv_switch.c:92:25
	ldr	r0, [sp, #24]
	.loc	10 92 29 is_stmt 0              @ lvgl/src/lv_widgets/lv_switch.c:92:29
	str	r0, [sp, #12]                   @ 4-byte Spill
	movs	r0, #0
	bl	lv_disp_get_dpi
	rsb	r1, r0, r0, lsl #4
	movs	r0, #80
	add.w	r0, r0, r1, lsl #2
	movw	r1, #26215
	movt	r1, #26214
	smmul	r1, r0, r1
	asrs	r0, r1, #6
	add.w	r0, r0, r1, lsr #31
	cmp	r0, #2
	blt	.LBB0_21
	b	.LBB0_20
.LBB0_20:
	.loc	10 0 29                         @ lvgl/src/lv_widgets/lv_switch.c:0:29
	movs	r0, #0
	.loc	10 92 29                        @ lvgl/src/lv_widgets/lv_switch.c:92:29
	bl	lv_disp_get_dpi
	rsb	r1, r0, r0, lsl #4
	movs	r0, #80
	add.w	r0, r0, r1, lsl #2
	movw	r1, #26215
	movt	r1, #26214
	smmul	r1, r0, r1
	asrs	r0, r1, #6
	add.w	r0, r0, r1, lsr #31
	str	r0, [sp, #8]                    @ 4-byte Spill
	b	.LBB0_22
.LBB0_21:
	.loc	10 0 29                         @ lvgl/src/lv_widgets/lv_switch.c:0:29
	movs	r0, #1
	.loc	10 92 29                        @ lvgl/src/lv_widgets/lv_switch.c:92:29
	str	r0, [sp, #8]                    @ 4-byte Spill
	b	.LBB0_22
.LBB0_22:
	ldr	r0, [sp, #8]                    @ 4-byte Reload
	.loc	10 92 41                        @ lvgl/src/lv_widgets/lv_switch.c:92:41
	str	r0, [sp, #4]                    @ 4-byte Spill
	movs	r0, #0
	bl	lv_disp_get_dpi
	movs	r2, #80
	movs	r1, #35
	smlabb	r0, r0, r1, r2
	movw	r1, #26215
	movt	r1, #26214
	smmul	r1, r0, r1
	asrs	r0, r1, #6
	add.w	r0, r0, r1, lsr #31
	cmp	r0, #2
	blt	.LBB0_24
	b	.LBB0_23
.LBB0_23:
	.loc	10 0 41                         @ lvgl/src/lv_widgets/lv_switch.c:0:41
	movs	r0, #0
	.loc	10 92 41                        @ lvgl/src/lv_widgets/lv_switch.c:92:41
	bl	lv_disp_get_dpi
	movs	r2, #80
	movs	r1, #35
	smlabb	r0, r0, r1, r2
	movw	r1, #26215
	movt	r1, #26214
	smmul	r1, r0, r1
	asrs	r0, r1, #6
	add.w	r0, r0, r1, lsr #31
	str	r0, [sp]                        @ 4-byte Spill
	b	.LBB0_25
.LBB0_24:
	.loc	10 0 41                         @ lvgl/src/lv_widgets/lv_switch.c:0:41
	movs	r0, #1
	.loc	10 92 41                        @ lvgl/src/lv_widgets/lv_switch.c:92:41
	str	r0, [sp]                        @ 4-byte Spill
	b	.LBB0_25
.LBB0_25:
	ldr	r0, [sp, #12]                   @ 4-byte Reload
	ldr	r1, [sp, #4]                    @ 4-byte Reload
	ldr	r2, [sp]                        @ 4-byte Reload
	.loc	10 92 9                         @ lvgl/src/lv_widgets/lv_switch.c:92:9
	sxth	r1, r1
	sxth	r2, r2
	bl	lv_obj_set_size
	.loc	10 93 26 is_stmt 1              @ lvgl/src/lv_widgets/lv_switch.c:93:26
	ldr	r0, [sp, #24]
	movs	r1, #0
	movs	r2, #1
	.loc	10 93 9 is_stmt 0               @ lvgl/src/lv_widgets/lv_switch.c:93:9
	bl	lv_bar_set_range
	.loc	10 95 24 is_stmt 1              @ lvgl/src/lv_widgets/lv_switch.c:95:24
	ldr	r0, [sp, #24]
	movs	r1, #33
	.loc	10 95 9 is_stmt 0               @ lvgl/src/lv_widgets/lv_switch.c:95:9
	bl	lv_theme_apply
	.loc	10 96 5 is_stmt 1               @ lvgl/src/lv_widgets/lv_switch.c:96:5
	b	.LBB0_27
.Ltmp26:
.LBB0_26:
	.loc	10 99 58                        @ lvgl/src/lv_widgets/lv_switch.c:99:58
	ldr	r0, [sp, #28]
	.loc	10 99 38 is_stmt 0              @ lvgl/src/lv_widgets/lv_switch.c:99:38
	bl	lv_obj_get_ext_attr
	.loc	10 99 27                        @ lvgl/src/lv_widgets/lv_switch.c:99:27
	str	r0, [sp, #16]
	.loc	10 101 29 is_stmt 1             @ lvgl/src/lv_widgets/lv_switch.c:101:29
	ldr	r0, [sp, #20]
	.loc	10 101 34 is_stmt 0             @ lvgl/src/lv_widgets/lv_switch.c:101:34
	adds	r0, #56
	.loc	10 101 47                       @ lvgl/src/lv_widgets/lv_switch.c:101:47
	ldr	r1, [sp, #16]
	.loc	10 101 57                       @ lvgl/src/lv_widgets/lv_switch.c:101:57
	adds	r1, #56
	.loc	10 101 9                        @ lvgl/src/lv_widgets/lv_switch.c:101:9
	bl	lv_style_list_copy
	.loc	10 102 30 is_stmt 1             @ lvgl/src/lv_widgets/lv_switch.c:102:30
	ldr	r0, [sp, #24]
	movs	r2, #255
	.loc	10 102 9 is_stmt 0              @ lvgl/src/lv_widgets/lv_switch.c:102:9
	mov	r1, r2
	bl	lv_obj_refresh_style
	b	.LBB0_27
.Ltmp27:
.LBB0_27:
	.loc	10 109 12 is_stmt 1             @ lvgl/src/lv_widgets/lv_switch.c:109:12
	ldr	r0, [sp, #24]
	.loc	10 109 5 is_stmt 0              @ lvgl/src/lv_widgets/lv_switch.c:109:5
	str	r0, [sp, #36]
	b	.LBB0_28
.LBB0_28:
	.loc	10 110 1 is_stmt 1              @ lvgl/src/lv_widgets/lv_switch.c:110:1
	ldr	r0, [sp, #36]
	add	sp, #40
	pop	{r7, pc}
.Ltmp28:
.Lfunc_end0:
	.size	lv_switch_create, .Lfunc_end0-lv_switch_create
	.cfi_endproc
	.cantunwind
	.fnend
                                        @ -- End function
	.section	.text.lv_switch_signal,"ax",%progbits
	.p2align	3                               @ -- Begin function lv_switch_signal
	.type	lv_switch_signal,%function
	.code	16                              @ @lv_switch_signal
	.thumb_func
lv_switch_signal:
.Lfunc_begin1:
	.loc	10 265 0                        @ lvgl/src/lv_widgets/lv_switch.c:265:0
	.fnstart
	.cfi_startproc
@ %bb.0:
	.save	{r7, lr}
	push	{r7, lr}
	.cfi_def_cfa_offset 8
	.cfi_offset lr, -4
	.cfi_offset r7, -8
	.pad	#80
	sub	sp, #80
	.cfi_def_cfa_offset 88
                                        @ kill: def $r3 killed $r1
	str	r0, [sp, #72]
	strb.w	r1, [sp, #71]
	str	r2, [sp, #64]
.Ltmp29:
	.loc	10 268 8 prologue_end           @ lvgl/src/lv_widgets/lv_switch.c:268:8
	ldrb.w	r0, [sp, #71]
.Ltmp30:
	.loc	10 268 8 is_stmt 0              @ lvgl/src/lv_widgets/lv_switch.c:268:8
	cmp	r0, #8
	bne	.LBB1_4
	b	.LBB1_1
.LBB1_1:
.Ltmp31:
	.loc	10 269 38 is_stmt 1             @ lvgl/src/lv_widgets/lv_switch.c:269:38
	ldr	r0, [sp, #64]
	.loc	10 269 31 is_stmt 0             @ lvgl/src/lv_widgets/lv_switch.c:269:31
	str	r0, [sp, #56]
	.loc	10 270 44 is_stmt 1             @ lvgl/src/lv_widgets/lv_switch.c:270:44
	ldr	r0, [sp, #72]
	.loc	10 270 48 is_stmt 0             @ lvgl/src/lv_widgets/lv_switch.c:270:48
	ldr	r1, [sp, #56]
	.loc	10 270 54                       @ lvgl/src/lv_widgets/lv_switch.c:270:54
	ldrb	r1, [r1]
	.loc	10 270 24                       @ lvgl/src/lv_widgets/lv_switch.c:270:24
	bl	lv_switch_get_style
	.loc	10 270 9                        @ lvgl/src/lv_widgets/lv_switch.c:270:9
	ldr	r1, [sp, #56]
	.loc	10 270 22                       @ lvgl/src/lv_widgets/lv_switch.c:270:22
	str	r0, [r1, #4]
.Ltmp32:
	.loc	10 271 12 is_stmt 1             @ lvgl/src/lv_widgets/lv_switch.c:271:12
	ldr	r0, [sp, #56]
	.loc	10 271 18 is_stmt 0             @ lvgl/src/lv_widgets/lv_switch.c:271:18
	ldr	r0, [r0, #4]
.Ltmp33:
	.loc	10 271 12                       @ lvgl/src/lv_widgets/lv_switch.c:271:12
	cbz	r0, .LBB1_3
	b	.LBB1_2
.LBB1_2:
	.loc	10 0 12                         @ lvgl/src/lv_widgets/lv_switch.c:0:12
	movs	r0, #1
.Ltmp34:
	.loc	10 271 34                       @ lvgl/src/lv_widgets/lv_switch.c:271:34
	strb.w	r0, [sp, #79]
	b	.LBB1_60
.LBB1_3:
	.loc	10 272 21 is_stmt 1             @ lvgl/src/lv_widgets/lv_switch.c:272:21
	movw	r0, :lower16:ancestor_signal
	movt	r0, :upper16:ancestor_signal
	ldr	r3, [r0]
	.loc	10 272 37 is_stmt 0             @ lvgl/src/lv_widgets/lv_switch.c:272:37
	ldr	r0, [sp, #72]
	.loc	10 272 41                       @ lvgl/src/lv_widgets/lv_switch.c:272:41
	ldrb.w	r1, [sp, #71]
	.loc	10 272 47                       @ lvgl/src/lv_widgets/lv_switch.c:272:47
	ldr	r2, [sp, #64]
	.loc	10 272 21                       @ lvgl/src/lv_widgets/lv_switch.c:272:21
	blx	r3
	.loc	10 272 14                       @ lvgl/src/lv_widgets/lv_switch.c:272:14
	strb.w	r0, [sp, #79]
	b	.LBB1_60
.Ltmp35:
.LBB1_4:
	.loc	10 275 8 is_stmt 1              @ lvgl/src/lv_widgets/lv_switch.c:275:8
	ldrb.w	r0, [sp, #71]
.Ltmp36:
	.loc	10 275 8 is_stmt 0              @ lvgl/src/lv_widgets/lv_switch.c:275:8
	cmp	r0, #7
	bne	.LBB1_8
	b	.LBB1_5
.LBB1_5:
.Ltmp37:
	.loc	10 276 15 is_stmt 1             @ lvgl/src/lv_widgets/lv_switch.c:276:15
	movw	r0, :lower16:ancestor_signal
	movt	r0, :upper16:ancestor_signal
	ldr	r3, [r0]
	.loc	10 276 31 is_stmt 0             @ lvgl/src/lv_widgets/lv_switch.c:276:31
	ldr	r0, [sp, #72]
	.loc	10 276 35                       @ lvgl/src/lv_widgets/lv_switch.c:276:35
	ldrb.w	r1, [sp, #71]
	.loc	10 276 41                       @ lvgl/src/lv_widgets/lv_switch.c:276:41
	ldr	r2, [sp, #64]
	.loc	10 276 15                       @ lvgl/src/lv_widgets/lv_switch.c:276:15
	blx	r3
	.loc	10 276 13                       @ lvgl/src/lv_widgets/lv_switch.c:276:13
	strb.w	r0, [sp, #63]
.Ltmp38:
	.loc	10 277 12 is_stmt 1             @ lvgl/src/lv_widgets/lv_switch.c:277:12
	ldrb.w	r0, [sp, #63]
.Ltmp39:
	.loc	10 277 12 is_stmt 0             @ lvgl/src/lv_widgets/lv_switch.c:277:12
	cmp	r0, #1
	beq	.LBB1_7
	b	.LBB1_6
.LBB1_6:
.Ltmp40:
	.loc	10 277 37                       @ lvgl/src/lv_widgets/lv_switch.c:277:37
	ldrb.w	r0, [sp, #63]
	.loc	10 277 30                       @ lvgl/src/lv_widgets/lv_switch.c:277:30
	strb.w	r0, [sp, #79]
	b	.LBB1_60
.Ltmp41:
.LBB1_7:
	.loc	10 278 46 is_stmt 1             @ lvgl/src/lv_widgets/lv_switch.c:278:46
	ldr	r0, [sp, #64]
	.loc	10 278 16 is_stmt 0             @ lvgl/src/lv_widgets/lv_switch.c:278:16
	movw	r1, :lower16:.L.str.2
	movt	r1, :upper16:.L.str.2
	bl	lv_obj_handle_get_type_signal
	.loc	10 278 9                        @ lvgl/src/lv_widgets/lv_switch.c:278:9
	strb.w	r0, [sp, #79]
	b	.LBB1_60
.Ltmp42:
.LBB1_8:
	.loc	10 282 11 is_stmt 1             @ lvgl/src/lv_widgets/lv_switch.c:282:11
	movw	r0, :lower16:ancestor_signal
	movt	r0, :upper16:ancestor_signal
	ldr	r3, [r0]
	.loc	10 282 27 is_stmt 0             @ lvgl/src/lv_widgets/lv_switch.c:282:27
	ldr	r0, [sp, #72]
	.loc	10 282 31                       @ lvgl/src/lv_widgets/lv_switch.c:282:31
	ldrb.w	r1, [sp, #71]
	.loc	10 282 37                       @ lvgl/src/lv_widgets/lv_switch.c:282:37
	ldr	r2, [sp, #64]
	.loc	10 282 11                       @ lvgl/src/lv_widgets/lv_switch.c:282:11
	blx	r3
	.loc	10 282 9                        @ lvgl/src/lv_widgets/lv_switch.c:282:9
	strb.w	r0, [sp, #63]
.Ltmp43:
	.loc	10 283 8 is_stmt 1              @ lvgl/src/lv_widgets/lv_switch.c:283:8
	ldrb.w	r0, [sp, #63]
.Ltmp44:
	.loc	10 283 8 is_stmt 0              @ lvgl/src/lv_widgets/lv_switch.c:283:8
	cmp	r0, #1
	beq	.LBB1_10
	b	.LBB1_9
.LBB1_9:
.Ltmp45:
	.loc	10 283 33                       @ lvgl/src/lv_widgets/lv_switch.c:283:33
	ldrb.w	r0, [sp, #63]
	.loc	10 283 26                       @ lvgl/src/lv_widgets/lv_switch.c:283:26
	strb.w	r0, [sp, #79]
	b	.LBB1_60
.Ltmp46:
.LBB1_10:
	.loc	10 285 8 is_stmt 1              @ lvgl/src/lv_widgets/lv_switch.c:285:8
	ldrb.w	r0, [sp, #71]
.Ltmp47:
	.loc	10 285 8 is_stmt 0              @ lvgl/src/lv_widgets/lv_switch.c:285:8
	cbnz	r0, .LBB1_12
	b	.LBB1_11
.LBB1_11:
.Ltmp48:
	.loc	10 286 33 is_stmt 1             @ lvgl/src/lv_widgets/lv_switch.c:286:33
	ldr	r0, [sp, #72]
	movs	r1, #2
	.loc	10 286 9 is_stmt 0              @ lvgl/src/lv_widgets/lv_switch.c:286:9
	bl	lv_obj_clean_style_list
	.loc	10 287 5 is_stmt 1              @ lvgl/src/lv_widgets/lv_switch.c:287:5
	b	.LBB1_59
.Ltmp49:
.LBB1_12:
	.loc	10 288 13                       @ lvgl/src/lv_widgets/lv_switch.c:288:13
	ldrb.w	r0, [sp, #71]
.Ltmp50:
	.loc	10 288 13 is_stmt 0             @ lvgl/src/lv_widgets/lv_switch.c:288:13
	cmp	r0, #14
	bne	.LBB1_19
	b	.LBB1_13
.LBB1_13:
.Ltmp51:
	.loc	10 289 32 is_stmt 1             @ lvgl/src/lv_widgets/lv_switch.c:289:32
	ldr	r0, [sp, #72]
	.loc	10 289 12 is_stmt 0             @ lvgl/src/lv_widgets/lv_switch.c:289:12
	bl	lv_switch_get_state
.Ltmp52:
	.loc	10 289 12                       @ lvgl/src/lv_widgets/lv_switch.c:289:12
	cbz	r0, .LBB1_15
	b	.LBB1_14
.LBB1_14:
.Ltmp53:
	.loc	10 289 51                       @ lvgl/src/lv_widgets/lv_switch.c:289:51
	ldr	r0, [sp, #72]
	movs	r1, #1
	.loc	10 289 37                       @ lvgl/src/lv_widgets/lv_switch.c:289:37
	bl	lv_switch_off
	b	.LBB1_16
.LBB1_15:
	.loc	10 290 27 is_stmt 1             @ lvgl/src/lv_widgets/lv_switch.c:290:27
	ldr	r0, [sp, #72]
	movs	r1, #1
	.loc	10 290 14 is_stmt 0             @ lvgl/src/lv_widgets/lv_switch.c:290:14
	bl	lv_switch_on
	b	.LBB1_16
.Ltmp54:
.LBB1_16:
	.loc	10 292 29 is_stmt 1             @ lvgl/src/lv_widgets/lv_switch.c:292:29
	ldr	r0, [sp, #72]
	movs	r1, #16
	movs	r2, #0
	.loc	10 292 15 is_stmt 0             @ lvgl/src/lv_widgets/lv_switch.c:292:15
	bl	lv_event_send
	.loc	10 292 13                       @ lvgl/src/lv_widgets/lv_switch.c:292:13
	strb.w	r0, [sp, #63]
.Ltmp55:
	.loc	10 293 12 is_stmt 1             @ lvgl/src/lv_widgets/lv_switch.c:293:12
	ldrb.w	r0, [sp, #63]
.Ltmp56:
	.loc	10 293 12 is_stmt 0             @ lvgl/src/lv_widgets/lv_switch.c:293:12
	cmp	r0, #1
	beq	.LBB1_18
	b	.LBB1_17
.LBB1_17:
.Ltmp57:
	.loc	10 293 37                       @ lvgl/src/lv_widgets/lv_switch.c:293:37
	ldrb.w	r0, [sp, #63]
	.loc	10 293 30                       @ lvgl/src/lv_widgets/lv_switch.c:293:30
	strb.w	r0, [sp, #79]
	b	.LBB1_60
.Ltmp58:
.LBB1_18:
	.loc	10 295 5 is_stmt 1              @ lvgl/src/lv_widgets/lv_switch.c:295:5
	b	.LBB1_58
.Ltmp59:
.LBB1_19:
	.loc	10 296 13                       @ lvgl/src/lv_widgets/lv_switch.c:296:13
	ldrb.w	r0, [sp, #71]
.Ltmp60:
	.loc	10 296 13 is_stmt 0             @ lvgl/src/lv_widgets/lv_switch.c:296:13
	cmp	r0, #24
	bne	.LBB1_30
	b	.LBB1_20
.LBB1_20:
.Ltmp61:
	.loc	10 298 28 is_stmt 1             @ lvgl/src/lv_widgets/lv_switch.c:298:28
	ldr	r0, [sp, #64]
	.loc	10 298 18 is_stmt 0             @ lvgl/src/lv_widgets/lv_switch.c:298:18
	ldrb	r0, [r0]
	.loc	10 298 14                       @ lvgl/src/lv_widgets/lv_switch.c:298:14
	strb.w	r0, [sp, #55]
.Ltmp62:
	.loc	10 299 12 is_stmt 1             @ lvgl/src/lv_widgets/lv_switch.c:299:12
	ldrsb.w	r0, [sp, #55]
	.loc	10 299 30 is_stmt 0             @ lvgl/src/lv_widgets/lv_switch.c:299:30
	cmp	r0, #19
	beq	.LBB1_22
	b	.LBB1_21
.LBB1_21:
	.loc	10 299 33                       @ lvgl/src/lv_widgets/lv_switch.c:299:33
	ldrsb.w	r0, [sp, #55]
.Ltmp63:
	.loc	10 299 12                       @ lvgl/src/lv_widgets/lv_switch.c:299:12
	cmp	r0, #17
	bne	.LBB1_23
	b	.LBB1_22
.LBB1_22:
.Ltmp64:
	.loc	10 299 62                       @ lvgl/src/lv_widgets/lv_switch.c:299:62
	ldr	r0, [sp, #72]
	movs	r1, #1
	.loc	10 299 49                       @ lvgl/src/lv_widgets/lv_switch.c:299:49
	bl	lv_switch_on
	b	.LBB1_27
.LBB1_23:
.Ltmp65:
	.loc	10 300 17 is_stmt 1             @ lvgl/src/lv_widgets/lv_switch.c:300:17
	ldrsb.w	r0, [sp, #55]
	.loc	10 300 34 is_stmt 0             @ lvgl/src/lv_widgets/lv_switch.c:300:34
	cmp	r0, #20
	beq	.LBB1_25
	b	.LBB1_24
.LBB1_24:
	.loc	10 300 37                       @ lvgl/src/lv_widgets/lv_switch.c:300:37
	ldrsb.w	r0, [sp, #55]
.Ltmp66:
	.loc	10 300 17                       @ lvgl/src/lv_widgets/lv_switch.c:300:17
	cmp	r0, #18
	bne	.LBB1_26
	b	.LBB1_25
.LBB1_25:
.Ltmp67:
	.loc	10 300 69                       @ lvgl/src/lv_widgets/lv_switch.c:300:69
	ldr	r0, [sp, #72]
	movs	r1, #1
	.loc	10 300 55                       @ lvgl/src/lv_widgets/lv_switch.c:300:55
	bl	lv_switch_off
	b	.LBB1_26
.Ltmp68:
.LBB1_26:
	.loc	10 0 55                         @ lvgl/src/lv_widgets/lv_switch.c:0:55
	b	.LBB1_27
.LBB1_27:
	.loc	10 302 31 is_stmt 1             @ lvgl/src/lv_widgets/lv_switch.c:302:31
	ldr	r0, [sp, #72]
	movs	r1, #16
	movs	r2, #0
	.loc	10 302 17 is_stmt 0             @ lvgl/src/lv_widgets/lv_switch.c:302:17
	bl	lv_event_send
	.loc	10 302 15                       @ lvgl/src/lv_widgets/lv_switch.c:302:15
	strb.w	r0, [sp, #63]
.Ltmp69:
	.loc	10 303 12 is_stmt 1             @ lvgl/src/lv_widgets/lv_switch.c:303:12
	ldrb.w	r0, [sp, #63]
.Ltmp70:
	.loc	10 303 12 is_stmt 0             @ lvgl/src/lv_widgets/lv_switch.c:303:12
	cmp	r0, #1
	beq	.LBB1_29
	b	.LBB1_28
.LBB1_28:
.Ltmp71:
	.loc	10 303 37                       @ lvgl/src/lv_widgets/lv_switch.c:303:37
	ldrb.w	r0, [sp, #63]
	.loc	10 303 30                       @ lvgl/src/lv_widgets/lv_switch.c:303:30
	strb.w	r0, [sp, #79]
	b	.LBB1_60
.Ltmp72:
.LBB1_29:
	.loc	10 305 5 is_stmt 1              @ lvgl/src/lv_widgets/lv_switch.c:305:5
	b	.LBB1_57
.Ltmp73:
.LBB1_30:
	.loc	10 306 13                       @ lvgl/src/lv_widgets/lv_switch.c:306:13
	ldrb.w	r0, [sp, #71]
.Ltmp74:
	.loc	10 306 13 is_stmt 0             @ lvgl/src/lv_widgets/lv_switch.c:306:13
	cmp	r0, #6
	bne.w	.LBB1_53
	b	.LBB1_31
.LBB1_31:
.Ltmp75:
	.loc	10 307 62 is_stmt 1             @ lvgl/src/lv_widgets/lv_switch.c:307:62
	ldr	r0, [sp, #72]
	movs	r1, #2
	.loc	10 307 36 is_stmt 0             @ lvgl/src/lv_widgets/lv_switch.c:307:36
	str	r1, [sp, #32]                   @ 4-byte Spill
	bl	lv_obj_get_style_pad_left
	ldr	r1, [sp, #32]                   @ 4-byte Reload
	.loc	10 307 24                       @ lvgl/src/lv_widgets/lv_switch.c:307:24
	strh.w	r0, [sp, #52]
	.loc	10 308 64 is_stmt 1             @ lvgl/src/lv_widgets/lv_switch.c:308:64
	ldr	r0, [sp, #72]
	.loc	10 308 37 is_stmt 0             @ lvgl/src/lv_widgets/lv_switch.c:308:37
	bl	lv_obj_get_style_pad_right
	ldr	r1, [sp, #32]                   @ 4-byte Reload
	.loc	10 308 24                       @ lvgl/src/lv_widgets/lv_switch.c:308:24
	strh.w	r0, [sp, #50]
	.loc	10 309 60 is_stmt 1             @ lvgl/src/lv_widgets/lv_switch.c:309:60
	ldr	r0, [sp, #72]
	.loc	10 309 35 is_stmt 0             @ lvgl/src/lv_widgets/lv_switch.c:309:35
	bl	lv_obj_get_style_pad_top
	ldr	r1, [sp, #32]                   @ 4-byte Reload
	.loc	10 309 24                       @ lvgl/src/lv_widgets/lv_switch.c:309:24
	strh.w	r0, [sp, #48]
	.loc	10 310 66 is_stmt 1             @ lvgl/src/lv_widgets/lv_switch.c:310:66
	ldr	r0, [sp, #72]
	.loc	10 310 38 is_stmt 0             @ lvgl/src/lv_widgets/lv_switch.c:310:38
	bl	lv_obj_get_style_pad_bottom
	.loc	10 310 24                       @ lvgl/src/lv_widgets/lv_switch.c:310:24
	strh.w	r0, [sp, #46]
	.loc	10 313 32 is_stmt 1             @ lvgl/src/lv_widgets/lv_switch.c:313:32
	ldr	r0, [sp, #72]
	bl	lv_obj_get_width
	str	r0, [sp, #36]                   @ 4-byte Spill
	ldr	r0, [sp, #72]
	bl	lv_obj_get_height
	mov	r1, r0
	ldr	r0, [sp, #36]                   @ 4-byte Reload
	cmp	r0, r1
	bge	.LBB1_33
	b	.LBB1_32
.LBB1_32:
	ldr	r0, [sp, #72]
	bl	lv_obj_get_width
	str	r0, [sp, #28]                   @ 4-byte Spill
	b	.LBB1_34
.LBB1_33:
	ldr	r0, [sp, #72]
	bl	lv_obj_get_height
	str	r0, [sp, #28]                   @ 4-byte Spill
	b	.LBB1_34
.LBB1_34:
	ldr	r0, [sp, #28]                   @ 4-byte Reload
	.loc	10 313 89 is_stmt 0             @ lvgl/src/lv_widgets/lv_switch.c:313:89
	lsrs	r0, r0, #1
	.loc	10 313 20                       @ lvgl/src/lv_widgets/lv_switch.c:313:20
	strh.w	r0, [sp, #44]
	.loc	10 314 22 is_stmt 1             @ lvgl/src/lv_widgets/lv_switch.c:314:22
	ldrsh.w	r0, [sp, #52]
	ldrsh.w	r1, [sp, #50]
	cmp	r0, r1
	ble	.LBB1_36
	b	.LBB1_35
.LBB1_35:
	ldrsh.w	r0, [sp, #52]
	str	r0, [sp, #24]                   @ 4-byte Spill
	b	.LBB1_37
.LBB1_36:
	ldrsh.w	r0, [sp, #50]
	str	r0, [sp, #24]                   @ 4-byte Spill
	b	.LBB1_37
.LBB1_37:
	ldr	r0, [sp, #24]                   @ 4-byte Reload
	str	r0, [sp, #20]                   @ 4-byte Spill
	ldrsh.w	r0, [sp, #46]
	ldrsh.w	r1, [sp, #48]
	cmp	r0, r1
	ble	.LBB1_39
	b	.LBB1_38
.LBB1_38:
	ldrsh.w	r0, [sp, #46]
	str	r0, [sp, #16]                   @ 4-byte Spill
	b	.LBB1_40
.LBB1_39:
	ldrsh.w	r0, [sp, #48]
	str	r0, [sp, #16]                   @ 4-byte Spill
	b	.LBB1_40
.LBB1_40:
	ldr	r0, [sp, #20]                   @ 4-byte Reload
	ldr	r1, [sp, #16]                   @ 4-byte Reload
	cmp	r0, r1
	ble	.LBB1_45
	b	.LBB1_41
.LBB1_41:
	ldrsh.w	r0, [sp, #52]
	ldrsh.w	r1, [sp, #50]
	cmp	r0, r1
	ble	.LBB1_43
	b	.LBB1_42
.LBB1_42:
	ldrsh.w	r0, [sp, #52]
	str	r0, [sp, #12]                   @ 4-byte Spill
	b	.LBB1_44
.LBB1_43:
	ldrsh.w	r0, [sp, #50]
	str	r0, [sp, #12]                   @ 4-byte Spill
	b	.LBB1_44
.LBB1_44:
	ldr	r0, [sp, #12]                   @ 4-byte Reload
	str	r0, [sp, #8]                    @ 4-byte Spill
	b	.LBB1_49
.LBB1_45:
	ldrsh.w	r0, [sp, #46]
	ldrsh.w	r1, [sp, #48]
	cmp	r0, r1
	ble	.LBB1_47
	b	.LBB1_46
.LBB1_46:
	ldrsh.w	r0, [sp, #46]
	str	r0, [sp, #4]                    @ 4-byte Spill
	b	.LBB1_48
.LBB1_47:
	ldrsh.w	r0, [sp, #48]
	str	r0, [sp, #4]                    @ 4-byte Spill
	b	.LBB1_48
.LBB1_48:
	ldr	r0, [sp, #4]                    @ 4-byte Reload
	str	r0, [sp, #8]                    @ 4-byte Spill
	b	.LBB1_49
.LBB1_49:
	ldr	r1, [sp, #8]                    @ 4-byte Reload
	.loc	10 314 19 is_stmt 0             @ lvgl/src/lv_widgets/lv_switch.c:314:19
	ldrh.w	r0, [sp, #44]
	add	r0, r1
	strh.w	r0, [sp, #44]
	.loc	10 315 19 is_stmt 1             @ lvgl/src/lv_widgets/lv_switch.c:315:19
	ldrh.w	r0, [sp, #44]
	adds	r0, #2
	strh.w	r0, [sp, #44]
	.loc	10 317 56                       @ lvgl/src/lv_widgets/lv_switch.c:317:56
	ldr	r0, [sp, #72]
	movs	r1, #2
	.loc	10 317 22 is_stmt 0             @ lvgl/src/lv_widgets/lv_switch.c:317:22
	bl	lv_obj_get_draw_rect_ext_pad_size
	mov	r1, r0
	.loc	10 317 19                       @ lvgl/src/lv_widgets/lv_switch.c:317:19
	ldrh.w	r0, [sp, #44]
	add	r0, r1
	strh.w	r0, [sp, #44]
	.loc	10 320 28 is_stmt 1             @ lvgl/src/lv_widgets/lv_switch.c:320:28
	ldr	r0, [sp, #72]
	ldrsh.w	r0, [r0, #50]
	ldrsh.w	r1, [sp, #44]
	cmp	r0, r1
	ble	.LBB1_51
	b	.LBB1_50
.LBB1_50:
	ldr	r0, [sp, #72]
	ldrsh.w	r0, [r0, #50]
	str	r0, [sp]                        @ 4-byte Spill
	b	.LBB1_52
.LBB1_51:
	ldrsh.w	r0, [sp, #44]
	str	r0, [sp]                        @ 4-byte Spill
	b	.LBB1_52
.LBB1_52:
	ldr	r0, [sp]                        @ 4-byte Reload
	.loc	10 320 9 is_stmt 0              @ lvgl/src/lv_widgets/lv_switch.c:320:9
	ldr	r1, [sp, #72]
	.loc	10 320 26                       @ lvgl/src/lv_widgets/lv_switch.c:320:26
	strh	r0, [r1, #50]
	.loc	10 321 5 is_stmt 1              @ lvgl/src/lv_widgets/lv_switch.c:321:5
	b	.LBB1_56
.Ltmp76:
.LBB1_53:
	.loc	10 322 13                       @ lvgl/src/lv_widgets/lv_switch.c:322:13
	ldrb.w	r0, [sp, #71]
.Ltmp77:
	.loc	10 322 13 is_stmt 0             @ lvgl/src/lv_widgets/lv_switch.c:322:13
	cmp	r0, #25
	bne	.LBB1_55
	b	.LBB1_54
.LBB1_54:
.Ltmp78:
	.loc	10 324 35 is_stmt 1             @ lvgl/src/lv_widgets/lv_switch.c:324:35
	ldr	r0, [sp, #64]
	.loc	10 324 16 is_stmt 0             @ lvgl/src/lv_widgets/lv_switch.c:324:16
	str	r0, [sp, #40]
	.loc	10 325 10 is_stmt 1             @ lvgl/src/lv_widgets/lv_switch.c:325:10
	ldr	r1, [sp, #40]
	movs	r0, #0
	.loc	10 325 25 is_stmt 0             @ lvgl/src/lv_widgets/lv_switch.c:325:25
	strb	r0, [r1]
	.loc	10 327 5 is_stmt 1              @ lvgl/src/lv_widgets/lv_switch.c:327:5
	b	.LBB1_55
.Ltmp79:
.LBB1_55:
	.loc	10 0 5 is_stmt 0                @ lvgl/src/lv_widgets/lv_switch.c:0:5
	b	.LBB1_56
.LBB1_56:
	b	.LBB1_57
.LBB1_57:
	b	.LBB1_58
.LBB1_58:
	b	.LBB1_59
.LBB1_59:
	.loc	10 329 12 is_stmt 1             @ lvgl/src/lv_widgets/lv_switch.c:329:12
	ldrb.w	r0, [sp, #63]
	.loc	10 329 5 is_stmt 0              @ lvgl/src/lv_widgets/lv_switch.c:329:5
	strb.w	r0, [sp, #79]
	b	.LBB1_60
.LBB1_60:
	.loc	10 330 1 is_stmt 1              @ lvgl/src/lv_widgets/lv_switch.c:330:1
	ldrb.w	r0, [sp, #79]
	add	sp, #80
	pop	{r7, pc}
.Ltmp80:
.Lfunc_end1:
	.size	lv_switch_signal, .Lfunc_end1-lv_switch_signal
	.cfi_endproc
	.cantunwind
	.fnend
                                        @ -- End function
	.section	.text.lv_switch_design,"ax",%progbits
	.p2align	3                               @ -- Begin function lv_switch_design
	.type	lv_switch_design,%function
	.code	16                              @ @lv_switch_design
	.thumb_func
lv_switch_design:
.Lfunc_begin2:
	.loc	10 194 0                        @ lvgl/src/lv_widgets/lv_switch.c:194:0
	.fnstart
	.cfi_startproc
@ %bb.0:
	.save	{r7, lr}
	push	{r7, lr}
	.cfi_def_cfa_offset 8
	.cfi_offset lr, -4
	.cfi_offset r7, -8
	.pad	#168
	sub	sp, #168
	.cfi_def_cfa_offset 176
                                        @ kill: def $r3 killed $r2
	str	r0, [sp, #160]
	str	r1, [sp, #156]
	strb.w	r2, [sp, #155]
.Ltmp81:
	.loc	10 196 8 prologue_end           @ lvgl/src/lv_widgets/lv_switch.c:196:8
	ldrb.w	r0, [sp, #155]
.Ltmp82:
	.loc	10 196 8 is_stmt 0              @ lvgl/src/lv_widgets/lv_switch.c:196:8
	cmp	r0, #2
	bne	.LBB2_2
	b	.LBB2_1
.LBB2_1:
	.loc	10 0 8                          @ lvgl/src/lv_widgets/lv_switch.c:0:8
	movs	r0, #2
.Ltmp83:
	.loc	10 197 9 is_stmt 1              @ lvgl/src/lv_widgets/lv_switch.c:197:9
	strb.w	r0, [sp, #167]
	b	.LBB2_12
.Ltmp84:
.LBB2_2:
	.loc	10 200 13                       @ lvgl/src/lv_widgets/lv_switch.c:200:13
	ldrb.w	r0, [sp, #155]
.Ltmp85:
	.loc	10 200 13 is_stmt 0             @ lvgl/src/lv_widgets/lv_switch.c:200:13
	cmp	r0, #0
	bne.w	.LBB2_7
	b	.LBB2_3
.LBB2_3:
.Ltmp86:
	.loc	10 201 54 is_stmt 1             @ lvgl/src/lv_widgets/lv_switch.c:201:54
	ldr	r0, [sp, #160]
	.loc	10 201 34 is_stmt 0             @ lvgl/src/lv_widgets/lv_switch.c:201:34
	bl	lv_obj_get_base_dir
	.loc	10 201 23                       @ lvgl/src/lv_widgets/lv_switch.c:201:23
	strb.w	r0, [sp, #154]
	.loc	10 205 9 is_stmt 1              @ lvgl/src/lv_widgets/lv_switch.c:205:9
	movw	r0, :lower16:ancestor_design
	movt	r0, :upper16:ancestor_design
	ldr	r3, [r0]
	.loc	10 205 25 is_stmt 0             @ lvgl/src/lv_widgets/lv_switch.c:205:25
	ldr	r0, [sp, #160]
	.loc	10 205 29                       @ lvgl/src/lv_widgets/lv_switch.c:205:29
	ldr	r1, [sp, #156]
	.loc	10 205 40                       @ lvgl/src/lv_widgets/lv_switch.c:205:40
	ldrb.w	r2, [sp, #155]
	.loc	10 205 9                        @ lvgl/src/lv_widgets/lv_switch.c:205:9
	blx	r3
	.loc	10 207 53 is_stmt 1             @ lvgl/src/lv_widgets/lv_switch.c:207:53
	ldr	r0, [sp, #160]
	.loc	10 207 33 is_stmt 0             @ lvgl/src/lv_widgets/lv_switch.c:207:33
	bl	lv_obj_get_ext_attr
	.loc	10 207 27                       @ lvgl/src/lv_widgets/lv_switch.c:207:27
	str	r0, [sp, #148]
	.loc	10 209 44 is_stmt 1             @ lvgl/src/lv_widgets/lv_switch.c:209:44
	ldr	r0, [sp, #160]
	.loc	10 209 27 is_stmt 0             @ lvgl/src/lv_widgets/lv_switch.c:209:27
	bl	lv_obj_get_width
	.loc	10 209 20                       @ lvgl/src/lv_widgets/lv_switch.c:209:20
	strh.w	r0, [sp, #146]
	.loc	10 210 45 is_stmt 1             @ lvgl/src/lv_widgets/lv_switch.c:210:45
	ldr	r0, [sp, #160]
	.loc	10 210 27 is_stmt 0             @ lvgl/src/lv_widgets/lv_switch.c:210:27
	bl	lv_obj_get_height
	.loc	10 210 20                       @ lvgl/src/lv_widgets/lv_switch.c:210:20
	strh.w	r0, [sp, #144]
	.loc	10 211 32 is_stmt 1             @ lvgl/src/lv_widgets/lv_switch.c:211:32
	ldrh.w	r0, [sp, #144]
	.loc	10 211 20 is_stmt 0             @ lvgl/src/lv_widgets/lv_switch.c:211:20
	strh.w	r0, [sp, #142]
	.loc	10 214 60 is_stmt 1             @ lvgl/src/lv_widgets/lv_switch.c:214:60
	ldr	r0, [sp, #160]
	movs	r1, #0
	.loc	10 214 34 is_stmt 0             @ lvgl/src/lv_widgets/lv_switch.c:214:34
	str	r1, [sp, #8]                    @ 4-byte Spill
	bl	lv_obj_get_style_pad_left
	ldr	r1, [sp, #8]                    @ 4-byte Reload
	.loc	10 214 24                       @ lvgl/src/lv_widgets/lv_switch.c:214:24
	strh.w	r0, [sp, #130]
	.loc	10 215 62 is_stmt 1             @ lvgl/src/lv_widgets/lv_switch.c:215:62
	ldr	r0, [sp, #160]
	.loc	10 215 35 is_stmt 0             @ lvgl/src/lv_widgets/lv_switch.c:215:35
	bl	lv_obj_get_style_pad_right
	.loc	10 215 24                       @ lvgl/src/lv_widgets/lv_switch.c:215:24
	strh.w	r0, [sp, #128]
	.loc	10 217 34 is_stmt 1             @ lvgl/src/lv_widgets/lv_switch.c:217:34
	ldrh.w	r0, [sp, #146]
	.loc	10 217 41 is_stmt 0             @ lvgl/src/lv_widgets/lv_switch.c:217:41
	ldrh.w	r1, [sp, #130]
	.loc	10 217 39                       @ lvgl/src/lv_widgets/lv_switch.c:217:39
	subs	r0, r0, r1
	.loc	10 217 51                       @ lvgl/src/lv_widgets/lv_switch.c:217:51
	ldrh.w	r1, [sp, #128]
	.loc	10 217 49                       @ lvgl/src/lv_widgets/lv_switch.c:217:49
	subs	r0, r0, r1
	.loc	10 217 20                       @ lvgl/src/lv_widgets/lv_switch.c:217:20
	strh.w	r0, [sp, #126]
	.loc	10 218 53 is_stmt 1             @ lvgl/src/lv_widgets/lv_switch.c:218:53
	ldr	r0, [sp, #148]
	.loc	10 218 62 is_stmt 0             @ lvgl/src/lv_widgets/lv_switch.c:218:62
	adds	r0, #8
	.loc	10 218 34                       @ lvgl/src/lv_widgets/lv_switch.c:218:34
	bl	lv_area_get_width
	.loc	10 218 20                       @ lvgl/src/lv_widgets/lv_switch.c:218:20
	strh.w	r0, [sp, #124]
.Ltmp87:
	.loc	10 219 12 is_stmt 1             @ lvgl/src/lv_widgets/lv_switch.c:219:12
	ldrb.w	r0, [sp, #154]
.Ltmp88:
	.loc	10 219 12 is_stmt 0             @ lvgl/src/lv_widgets/lv_switch.c:219:12
	cmp	r0, #1
	beq	.LBB2_5
	b	.LBB2_4
.LBB2_4:
.Ltmp89:
	.loc	10 220 28 is_stmt 1             @ lvgl/src/lv_widgets/lv_switch.c:220:28
	ldr	r0, [sp, #148]
	ldrh	r0, [r0, #12]
	.loc	10 220 55 is_stmt 0             @ lvgl/src/lv_widgets/lv_switch.c:220:55
	ldrsh.w	r1, [sp, #124]
	.loc	10 220 69                       @ lvgl/src/lv_widgets/lv_switch.c:220:69
	ldrsh.w	r2, [sp, #142]
	.loc	10 220 67                       @ lvgl/src/lv_widgets/lv_switch.c:220:67
	muls	r1, r2, r1
	.loc	10 220 82                       @ lvgl/src/lv_widgets/lv_switch.c:220:82
	ldrsh.w	r2, [sp, #126]
	.loc	10 220 80                       @ lvgl/src/lv_widgets/lv_switch.c:220:80
	sdiv	r1, r1, r2
	.loc	10 220 51                       @ lvgl/src/lv_widgets/lv_switch.c:220:51
	subs	r0, r0, r1
	.loc	10 220 26                       @ lvgl/src/lv_widgets/lv_switch.c:220:26
	strh.w	r0, [sp, #132]
	.loc	10 221 28 is_stmt 1             @ lvgl/src/lv_widgets/lv_switch.c:221:28
	ldrh.w	r0, [sp, #132]
	.loc	10 221 43 is_stmt 0             @ lvgl/src/lv_widgets/lv_switch.c:221:43
	ldrh.w	r1, [sp, #142]
	.loc	10 221 41                       @ lvgl/src/lv_widgets/lv_switch.c:221:41
	add	r0, r1
	.loc	10 221 26                       @ lvgl/src/lv_widgets/lv_switch.c:221:26
	strh.w	r0, [sp, #136]
	.loc	10 222 9 is_stmt 1              @ lvgl/src/lv_widgets/lv_switch.c:222:9
	b	.LBB2_6
.Ltmp90:
.LBB2_5:
	.loc	10 224 28                       @ lvgl/src/lv_widgets/lv_switch.c:224:28
	ldr	r0, [sp, #148]
	ldrh	r0, [r0, #8]
	.loc	10 224 55 is_stmt 0             @ lvgl/src/lv_widgets/lv_switch.c:224:55
	ldrsh.w	r1, [sp, #124]
	.loc	10 224 69                       @ lvgl/src/lv_widgets/lv_switch.c:224:69
	ldrsh.w	r2, [sp, #142]
	.loc	10 224 67                       @ lvgl/src/lv_widgets/lv_switch.c:224:67
	muls	r1, r2, r1
	.loc	10 224 82                       @ lvgl/src/lv_widgets/lv_switch.c:224:82
	ldrsh.w	r2, [sp, #126]
	.loc	10 224 80                       @ lvgl/src/lv_widgets/lv_switch.c:224:80
	sdiv	r1, r1, r2
	.loc	10 224 51                       @ lvgl/src/lv_widgets/lv_switch.c:224:51
	add	r0, r1
	.loc	10 224 26                       @ lvgl/src/lv_widgets/lv_switch.c:224:26
	strh.w	r0, [sp, #136]
	.loc	10 225 28 is_stmt 1             @ lvgl/src/lv_widgets/lv_switch.c:225:28
	ldrh.w	r0, [sp, #136]
	.loc	10 225 43 is_stmt 0             @ lvgl/src/lv_widgets/lv_switch.c:225:43
	ldrh.w	r1, [sp, #142]
	.loc	10 225 41                       @ lvgl/src/lv_widgets/lv_switch.c:225:41
	subs	r0, r0, r1
	.loc	10 225 26                       @ lvgl/src/lv_widgets/lv_switch.c:225:26
	strh.w	r0, [sp, #132]
	b	.LBB2_6
.Ltmp91:
.LBB2_6:
	.loc	10 228 24 is_stmt 1             @ lvgl/src/lv_widgets/lv_switch.c:228:24
	ldr	r0, [sp, #160]
	.loc	10 228 35 is_stmt 0             @ lvgl/src/lv_widgets/lv_switch.c:228:35
	ldrh	r0, [r0, #18]
	.loc	10 228 22                       @ lvgl/src/lv_widgets/lv_switch.c:228:22
	strh.w	r0, [sp, #134]
	.loc	10 229 24 is_stmt 1             @ lvgl/src/lv_widgets/lv_switch.c:229:24
	ldr	r0, [sp, #160]
	.loc	10 229 35 is_stmt 0             @ lvgl/src/lv_widgets/lv_switch.c:229:35
	ldrh	r0, [r0, #22]
	.loc	10 229 22                       @ lvgl/src/lv_widgets/lv_switch.c:229:22
	strh.w	r0, [sp, #138]
	.loc	10 231 62 is_stmt 1             @ lvgl/src/lv_widgets/lv_switch.c:231:62
	ldr	r0, [sp, #160]
	movs	r1, #2
	.loc	10 231 36 is_stmt 0             @ lvgl/src/lv_widgets/lv_switch.c:231:36
	str	r1, [sp]                        @ 4-byte Spill
	bl	lv_obj_get_style_pad_left
	ldr	r1, [sp]                        @ 4-byte Reload
	.loc	10 231 24                       @ lvgl/src/lv_widgets/lv_switch.c:231:24
	strh.w	r0, [sp, #122]
	.loc	10 232 64 is_stmt 1             @ lvgl/src/lv_widgets/lv_switch.c:232:64
	ldr	r0, [sp, #160]
	.loc	10 232 37 is_stmt 0             @ lvgl/src/lv_widgets/lv_switch.c:232:37
	bl	lv_obj_get_style_pad_right
	ldr	r1, [sp]                        @ 4-byte Reload
	.loc	10 232 24                       @ lvgl/src/lv_widgets/lv_switch.c:232:24
	strh.w	r0, [sp, #120]
	.loc	10 233 60 is_stmt 1             @ lvgl/src/lv_widgets/lv_switch.c:233:60
	ldr	r0, [sp, #160]
	.loc	10 233 35 is_stmt 0             @ lvgl/src/lv_widgets/lv_switch.c:233:35
	bl	lv_obj_get_style_pad_top
	ldr	r1, [sp]                        @ 4-byte Reload
	.loc	10 233 24                       @ lvgl/src/lv_widgets/lv_switch.c:233:24
	strh.w	r0, [sp, #118]
	.loc	10 234 66 is_stmt 1             @ lvgl/src/lv_widgets/lv_switch.c:234:66
	ldr	r0, [sp, #160]
	.loc	10 234 38 is_stmt 0             @ lvgl/src/lv_widgets/lv_switch.c:234:38
	bl	lv_obj_get_style_pad_bottom
	.loc	10 234 24                       @ lvgl/src/lv_widgets/lv_switch.c:234:24
	strh.w	r0, [sp, #116]
	.loc	10 237 25 is_stmt 1             @ lvgl/src/lv_widgets/lv_switch.c:237:25
	ldrh.w	r1, [sp, #122]
	.loc	10 237 22 is_stmt 0             @ lvgl/src/lv_widgets/lv_switch.c:237:22
	ldrh.w	r0, [sp, #132]
	subs	r0, r0, r1
	strh.w	r0, [sp, #132]
	.loc	10 238 25 is_stmt 1             @ lvgl/src/lv_widgets/lv_switch.c:238:25
	ldrh.w	r1, [sp, #120]
	.loc	10 238 22 is_stmt 0             @ lvgl/src/lv_widgets/lv_switch.c:238:22
	ldrh.w	r0, [sp, #136]
	add	r0, r1
	strh.w	r0, [sp, #136]
	.loc	10 239 25 is_stmt 1             @ lvgl/src/lv_widgets/lv_switch.c:239:25
	ldrh.w	r1, [sp, #118]
	.loc	10 239 22 is_stmt 0             @ lvgl/src/lv_widgets/lv_switch.c:239:22
	ldrh.w	r0, [sp, #134]
	subs	r0, r0, r1
	strh.w	r0, [sp, #134]
	.loc	10 240 25 is_stmt 1             @ lvgl/src/lv_widgets/lv_switch.c:240:25
	ldrh.w	r1, [sp, #116]
	.loc	10 240 22 is_stmt 0             @ lvgl/src/lv_widgets/lv_switch.c:240:22
	ldrh.w	r0, [sp, #138]
	add	r0, r1
	strh.w	r0, [sp, #138]
	add	r0, sp, #12
	.loc	10 243 9 is_stmt 1              @ lvgl/src/lv_widgets/lv_switch.c:243:9
	str	r0, [sp, #4]                    @ 4-byte Spill
	bl	lv_draw_rect_dsc_init
	ldr	r1, [sp]                        @ 4-byte Reload
	ldr	r2, [sp, #4]                    @ 4-byte Reload
	.loc	10 244 35                       @ lvgl/src/lv_widgets/lv_switch.c:244:35
	ldr	r0, [sp, #160]
	.loc	10 244 9 is_stmt 0              @ lvgl/src/lv_widgets/lv_switch.c:244:9
	bl	lv_obj_init_draw_rect_dsc
	ldr	r2, [sp, #4]                    @ 4-byte Reload
	.loc	10 246 34 is_stmt 1             @ lvgl/src/lv_widgets/lv_switch.c:246:34
	ldr	r1, [sp, #156]
	add	r0, sp, #132
	.loc	10 246 9 is_stmt 0              @ lvgl/src/lv_widgets/lv_switch.c:246:9
	bl	lv_draw_rect
	.loc	10 248 5 is_stmt 1              @ lvgl/src/lv_widgets/lv_switch.c:248:5
	b	.LBB2_10
.Ltmp92:
.LBB2_7:
	.loc	10 250 13                       @ lvgl/src/lv_widgets/lv_switch.c:250:13
	ldrb.w	r0, [sp, #155]
.Ltmp93:
	.loc	10 250 13 is_stmt 0             @ lvgl/src/lv_widgets/lv_switch.c:250:13
	cmp	r0, #1
	bne	.LBB2_9
	b	.LBB2_8
.LBB2_8:
.Ltmp94:
	.loc	10 251 16 is_stmt 1             @ lvgl/src/lv_widgets/lv_switch.c:251:16
	movw	r0, :lower16:ancestor_design
	movt	r0, :upper16:ancestor_design
	ldr	r3, [r0]
	.loc	10 251 32 is_stmt 0             @ lvgl/src/lv_widgets/lv_switch.c:251:32
	ldr	r0, [sp, #160]
	.loc	10 251 36                       @ lvgl/src/lv_widgets/lv_switch.c:251:36
	ldr	r1, [sp, #156]
	.loc	10 251 47                       @ lvgl/src/lv_widgets/lv_switch.c:251:47
	ldrb.w	r2, [sp, #155]
	.loc	10 251 16                       @ lvgl/src/lv_widgets/lv_switch.c:251:16
	blx	r3
	.loc	10 251 9                        @ lvgl/src/lv_widgets/lv_switch.c:251:9
	strb.w	r0, [sp, #167]
	b	.LBB2_12
.Ltmp95:
.LBB2_9:
	.loc	10 0 9                          @ lvgl/src/lv_widgets/lv_switch.c:0:9
	b	.LBB2_10
.LBB2_10:
	b	.LBB2_11
.LBB2_11:
	movs	r0, #0
	.loc	10 254 5 is_stmt 1              @ lvgl/src/lv_widgets/lv_switch.c:254:5
	strb.w	r0, [sp, #167]
	b	.LBB2_12
.LBB2_12:
	.loc	10 255 1                        @ lvgl/src/lv_widgets/lv_switch.c:255:1
	ldrb.w	r0, [sp, #167]
	add	sp, #168
	pop	{r7, pc}
.Ltmp96:
.Lfunc_end2:
	.size	lv_switch_design, .Lfunc_end2-lv_switch_design
	.cfi_endproc
	.cantunwind
	.fnend
                                        @ -- End function
	.section	.text.lv_switch_on,"ax",%progbits
	.hidden	lv_switch_on                    @ -- Begin function lv_switch_on
	.globl	lv_switch_on
	.p2align	3
	.type	lv_switch_on,%function
	.code	16                              @ @lv_switch_on
	.thumb_func
lv_switch_on:
.Lfunc_begin3:
	.loc	10 122 0                        @ lvgl/src/lv_widgets/lv_switch.c:122:0
	.fnstart
	.cfi_startproc
@ %bb.0:
	.save	{r7, lr}
	push	{r7, lr}
	.cfi_def_cfa_offset 8
	.cfi_offset lr, -4
	.cfi_offset r7, -8
	.pad	#16
	sub	sp, #16
	.cfi_def_cfa_offset 24
                                        @ kill: def $r2 killed $r1
	str	r0, [sp, #12]
	strb.w	r1, [sp, #11]
.Ltmp97:
	.loc	10 123 5 prologue_end           @ lvgl/src/lv_widgets/lv_switch.c:123:5
	b	.LBB3_1
.LBB3_1:
.Ltmp98:
	.loc	10 123 5 is_stmt 0              @ lvgl/src/lv_widgets/lv_switch.c:123:5
	ldr	r0, [sp, #12]
	bl	lv_debug_check_null
.Ltmp99:
	.loc	10 123 5                        @ lvgl/src/lv_widgets/lv_switch.c:123:5
	cbnz	r0, .LBB3_4
	b	.LBB3_2
.LBB3_2:
.Ltmp100:
	.loc	10 123 5                        @ lvgl/src/lv_widgets/lv_switch.c:123:5
	ldr	r2, [sp, #12]
	movw	r0, :lower16:.L.str.1
	movt	r0, :upper16:.L.str.1
	movs	r3, #0
	bl	lv_debug_log_error
	b	.LBB3_3
.LBB3_3:                                @ =>This Inner Loop Header: Depth=1
	b	.LBB3_3
.Ltmp101:
.LBB3_4:
	.loc	10 123 5                        @ lvgl/src/lv_widgets/lv_switch.c:123:5
	b	.LBB3_5
.Ltmp102:
.LBB3_5:
	.loc	10 128 25 is_stmt 1             @ lvgl/src/lv_widgets/lv_switch.c:128:25
	ldr	r0, [sp, #12]
	.loc	10 128 8 is_stmt 0              @ lvgl/src/lv_widgets/lv_switch.c:128:8
	bl	lv_bar_get_value
.Ltmp103:
	.loc	10 128 8                        @ lvgl/src/lv_widgets/lv_switch.c:128:8
	cmp	r0, #1
	bne	.LBB3_7
	b	.LBB3_6
.LBB3_6:
.Ltmp104:
	.loc	10 129 9 is_stmt 1              @ lvgl/src/lv_widgets/lv_switch.c:129:9
	b	.LBB3_8
.Ltmp105:
.LBB3_7:
	.loc	10 130 22                       @ lvgl/src/lv_widgets/lv_switch.c:130:22
	ldr	r0, [sp, #12]
	.loc	10 130 29 is_stmt 0             @ lvgl/src/lv_widgets/lv_switch.c:130:29
	ldrb.w	r2, [sp, #11]
	movs	r1, #1
	.loc	10 130 5                        @ lvgl/src/lv_widgets/lv_switch.c:130:5
	str	r1, [sp, #4]                    @ 4-byte Spill
	bl	lv_bar_set_value
	ldr	r1, [sp, #4]                    @ 4-byte Reload
	.loc	10 131 22 is_stmt 1             @ lvgl/src/lv_widgets/lv_switch.c:131:22
	ldr	r0, [sp, #12]
	.loc	10 131 5 is_stmt 0              @ lvgl/src/lv_widgets/lv_switch.c:131:5
	bl	lv_obj_add_state
	.loc	10 132 1 is_stmt 1              @ lvgl/src/lv_widgets/lv_switch.c:132:1
	b	.LBB3_8
.LBB3_8:
	add	sp, #16
	pop	{r7, pc}
.Ltmp106:
.Lfunc_end3:
	.size	lv_switch_on, .Lfunc_end3-lv_switch_on
	.cfi_endproc
	.cantunwind
	.fnend
                                        @ -- End function
	.section	.text.lv_switch_off,"ax",%progbits
	.hidden	lv_switch_off                   @ -- Begin function lv_switch_off
	.globl	lv_switch_off
	.p2align	3
	.type	lv_switch_off,%function
	.code	16                              @ @lv_switch_off
	.thumb_func
lv_switch_off:
.Lfunc_begin4:
	.loc	10 140 0                        @ lvgl/src/lv_widgets/lv_switch.c:140:0
	.fnstart
	.cfi_startproc
@ %bb.0:
	.save	{r7, lr}
	push	{r7, lr}
	.cfi_def_cfa_offset 8
	.cfi_offset lr, -4
	.cfi_offset r7, -8
	.pad	#8
	sub	sp, #8
	.cfi_def_cfa_offset 16
                                        @ kill: def $r2 killed $r1
	str	r0, [sp, #4]
	strb.w	r1, [sp, #3]
.Ltmp107:
	.loc	10 141 5 prologue_end           @ lvgl/src/lv_widgets/lv_switch.c:141:5
	b	.LBB4_1
.LBB4_1:
.Ltmp108:
	.loc	10 141 5 is_stmt 0              @ lvgl/src/lv_widgets/lv_switch.c:141:5
	ldr	r0, [sp, #4]
	bl	lv_debug_check_null
.Ltmp109:
	.loc	10 141 5                        @ lvgl/src/lv_widgets/lv_switch.c:141:5
	cbnz	r0, .LBB4_4
	b	.LBB4_2
.LBB4_2:
.Ltmp110:
	.loc	10 141 5                        @ lvgl/src/lv_widgets/lv_switch.c:141:5
	ldr	r2, [sp, #4]
	movw	r0, :lower16:.L.str.1
	movt	r0, :upper16:.L.str.1
	movs	r3, #0
	bl	lv_debug_log_error
	b	.LBB4_3
.LBB4_3:                                @ =>This Inner Loop Header: Depth=1
	b	.LBB4_3
.Ltmp111:
.LBB4_4:
	.loc	10 141 5                        @ lvgl/src/lv_widgets/lv_switch.c:141:5
	b	.LBB4_5
.Ltmp112:
.LBB4_5:
	.loc	10 146 25 is_stmt 1             @ lvgl/src/lv_widgets/lv_switch.c:146:25
	ldr	r0, [sp, #4]
	.loc	10 146 8 is_stmt 0              @ lvgl/src/lv_widgets/lv_switch.c:146:8
	bl	lv_bar_get_value
.Ltmp113:
	.loc	10 146 8                        @ lvgl/src/lv_widgets/lv_switch.c:146:8
	cbnz	r0, .LBB4_7
	b	.LBB4_6
.LBB4_6:
.Ltmp114:
	.loc	10 147 9 is_stmt 1              @ lvgl/src/lv_widgets/lv_switch.c:147:9
	b	.LBB4_8
.Ltmp115:
.LBB4_7:
	.loc	10 148 22                       @ lvgl/src/lv_widgets/lv_switch.c:148:22
	ldr	r0, [sp, #4]
	.loc	10 148 29 is_stmt 0             @ lvgl/src/lv_widgets/lv_switch.c:148:29
	ldrb.w	r2, [sp, #3]
	movs	r1, #0
	.loc	10 148 5                        @ lvgl/src/lv_widgets/lv_switch.c:148:5
	bl	lv_bar_set_value
	.loc	10 149 24 is_stmt 1             @ lvgl/src/lv_widgets/lv_switch.c:149:24
	ldr	r0, [sp, #4]
	movs	r1, #1
	.loc	10 149 5 is_stmt 0              @ lvgl/src/lv_widgets/lv_switch.c:149:5
	bl	lv_obj_clear_state
	.loc	10 150 1 is_stmt 1              @ lvgl/src/lv_widgets/lv_switch.c:150:1
	b	.LBB4_8
.LBB4_8:
	add	sp, #8
	pop	{r7, pc}
.Ltmp116:
.Lfunc_end4:
	.size	lv_switch_off, .Lfunc_end4-lv_switch_off
	.cfi_endproc
	.cantunwind
	.fnend
                                        @ -- End function
	.section	.text.lv_switch_toggle,"ax",%progbits
	.hidden	lv_switch_toggle                @ -- Begin function lv_switch_toggle
	.globl	lv_switch_toggle
	.p2align	3
	.type	lv_switch_toggle,%function
	.code	16                              @ @lv_switch_toggle
	.thumb_func
lv_switch_toggle:
.Lfunc_begin5:
	.loc	10 159 0                        @ lvgl/src/lv_widgets/lv_switch.c:159:0
	.fnstart
	.cfi_startproc
@ %bb.0:
	.save	{r7, lr}
	push	{r7, lr}
	.cfi_def_cfa_offset 8
	.cfi_offset lr, -4
	.cfi_offset r7, -8
	.pad	#8
	sub	sp, #8
	.cfi_def_cfa_offset 16
                                        @ kill: def $r2 killed $r1
	str	r0, [sp, #4]
	strb.w	r1, [sp, #3]
.Ltmp117:
	.loc	10 160 5 prologue_end           @ lvgl/src/lv_widgets/lv_switch.c:160:5
	b	.LBB5_1
.LBB5_1:
.Ltmp118:
	.loc	10 160 5 is_stmt 0              @ lvgl/src/lv_widgets/lv_switch.c:160:5
	ldr	r0, [sp, #4]
	bl	lv_debug_check_null
.Ltmp119:
	.loc	10 160 5                        @ lvgl/src/lv_widgets/lv_switch.c:160:5
	cbnz	r0, .LBB5_4
	b	.LBB5_2
.LBB5_2:
.Ltmp120:
	.loc	10 160 5                        @ lvgl/src/lv_widgets/lv_switch.c:160:5
	ldr	r2, [sp, #4]
	movw	r0, :lower16:.L.str.1
	movt	r0, :upper16:.L.str.1
	movs	r3, #0
	bl	lv_debug_log_error
	b	.LBB5_3
.LBB5_3:                                @ =>This Inner Loop Header: Depth=1
	b	.LBB5_3
.Ltmp121:
.LBB5_4:
	.loc	10 160 5                        @ lvgl/src/lv_widgets/lv_switch.c:160:5
	b	.LBB5_5
.Ltmp122:
.LBB5_5:
	.loc	10 166 38 is_stmt 1             @ lvgl/src/lv_widgets/lv_switch.c:166:38
	ldr	r0, [sp, #4]
	.loc	10 166 18 is_stmt 0             @ lvgl/src/lv_widgets/lv_switch.c:166:18
	bl	lv_switch_get_state
	.loc	10 166 10                       @ lvgl/src/lv_widgets/lv_switch.c:166:10
	strb.w	r0, [sp, #2]
.Ltmp123:
	.loc	10 167 8 is_stmt 1              @ lvgl/src/lv_widgets/lv_switch.c:167:8
	ldrb.w	r0, [sp, #2]
.Ltmp124:
	.loc	10 167 8 is_stmt 0              @ lvgl/src/lv_widgets/lv_switch.c:167:8
	lsls	r0, r0, #31
	cbz	r0, .LBB5_7
	b	.LBB5_6
.LBB5_6:
.Ltmp125:
	.loc	10 168 23 is_stmt 1             @ lvgl/src/lv_widgets/lv_switch.c:168:23
	ldr	r0, [sp, #4]
	.loc	10 168 27 is_stmt 0             @ lvgl/src/lv_widgets/lv_switch.c:168:27
	ldrb.w	r1, [sp, #3]
	.loc	10 168 9                        @ lvgl/src/lv_widgets/lv_switch.c:168:9
	bl	lv_switch_off
	b	.LBB5_8
.LBB5_7:
	.loc	10 170 22 is_stmt 1             @ lvgl/src/lv_widgets/lv_switch.c:170:22
	ldr	r0, [sp, #4]
	.loc	10 170 26 is_stmt 0             @ lvgl/src/lv_widgets/lv_switch.c:170:26
	ldrb.w	r1, [sp, #3]
	.loc	10 170 9                        @ lvgl/src/lv_widgets/lv_switch.c:170:9
	bl	lv_switch_on
	b	.LBB5_8
.Ltmp126:
.LBB5_8:
	.loc	10 172 13 is_stmt 1             @ lvgl/src/lv_widgets/lv_switch.c:172:13
	ldrb.w	r1, [sp, #2]
	movs	r0, #1
	.loc	10 172 5 is_stmt 0              @ lvgl/src/lv_widgets/lv_switch.c:172:5
	bics	r0, r1
	add	sp, #8
	pop	{r7, pc}
.Ltmp127:
.Lfunc_end5:
	.size	lv_switch_toggle, .Lfunc_end5-lv_switch_toggle
	.cfi_endproc
	.cantunwind
	.fnend
                                        @ -- End function
	.section	.text.lv_switch_get_state,"ax",%progbits
	.p2align	3                               @ -- Begin function lv_switch_get_state
	.type	lv_switch_get_state,%function
	.code	16                              @ @lv_switch_get_state
	.thumb_func
lv_switch_get_state:
.Lfunc_begin6:
	.loc	12 113 0 is_stmt 1              @ lvgl/src/lv_widgets/lv_switch.h:113:0
	.fnstart
	.cfi_startproc
@ %bb.0:
	.save	{r7, lr}
	push	{r7, lr}
	.cfi_def_cfa_offset 8
	.cfi_offset lr, -4
	.cfi_offset r7, -8
	.pad	#8
	sub	sp, #8
	.cfi_def_cfa_offset 16
	str	r0, [sp, #4]
.Ltmp128:
	.loc	12 114 29 prologue_end          @ lvgl/src/lv_widgets/lv_switch.h:114:29
	ldr	r0, [sp, #4]
	.loc	12 114 12 is_stmt 0             @ lvgl/src/lv_widgets/lv_switch.h:114:12
	bl	lv_bar_get_value
	.loc	12 114 33                       @ lvgl/src/lv_widgets/lv_switch.h:114:33
	subs	r0, #1
	clz	r0, r0
	lsrs	r0, r0, #5
	.loc	12 114 5                        @ lvgl/src/lv_widgets/lv_switch.h:114:5
	add	sp, #8
	pop	{r7, pc}
.Ltmp129:
.Lfunc_end6:
	.size	lv_switch_get_state, .Lfunc_end6-lv_switch_get_state
	.cfi_endproc
	.cantunwind
	.fnend
                                        @ -- End function
	.section	.text.lv_obj_get_style_pad_left,"ax",%progbits
	.p2align	3                               @ -- Begin function lv_obj_get_style_pad_left
	.type	lv_obj_get_style_pad_left,%function
	.code	16                              @ @lv_obj_get_style_pad_left
	.thumb_func
lv_obj_get_style_pad_left:
.Lfunc_begin7:
	.file	15 "E:\\Smart-access-control\\Hardware\\CODE" "lvgl/src/lv_widgets/../lv_core/lv_obj_style_dec.h"
	.loc	15 102 0 is_stmt 1              @ lvgl/src/lv_widgets/../lv_core/lv_obj_style_dec.h:102:0
	.fnstart
	.cfi_startproc
@ %bb.0:
	.save	{r7, lr}
	push	{r7, lr}
	.cfi_def_cfa_offset 8
	.cfi_offset lr, -4
	.cfi_offset r7, -8
	.pad	#8
	sub	sp, #8
	.cfi_def_cfa_offset 16
                                        @ kill: def $r2 killed $r1
	str	r0, [sp, #4]
	strb.w	r1, [sp, #3]
.Ltmp130:
	.loc	15 102 1 prologue_end           @ lvgl/src/lv_widgets/../lv_core/lv_obj_style_dec.h:102:1
	ldr	r0, [sp, #4]
	ldrb.w	r1, [sp, #3]
	movs	r2, #18
	bl	_lv_obj_get_style_int
	add	sp, #8
	pop	{r7, pc}
.Ltmp131:
.Lfunc_end7:
	.size	lv_obj_get_style_pad_left, .Lfunc_end7-lv_obj_get_style_pad_left
	.cfi_endproc
	.cantunwind
	.fnend
                                        @ -- End function
	.section	.text.lv_obj_get_style_pad_right,"ax",%progbits
	.p2align	3                               @ -- Begin function lv_obj_get_style_pad_right
	.type	lv_obj_get_style_pad_right,%function
	.code	16                              @ @lv_obj_get_style_pad_right
	.thumb_func
lv_obj_get_style_pad_right:
.Lfunc_begin8:
	.loc	15 103 0                        @ lvgl/src/lv_widgets/../lv_core/lv_obj_style_dec.h:103:0
	.fnstart
	.cfi_startproc
@ %bb.0:
	.save	{r7, lr}
	push	{r7, lr}
	.cfi_def_cfa_offset 8
	.cfi_offset lr, -4
	.cfi_offset r7, -8
	.pad	#8
	sub	sp, #8
	.cfi_def_cfa_offset 16
                                        @ kill: def $r2 killed $r1
	str	r0, [sp, #4]
	strb.w	r1, [sp, #3]
.Ltmp132:
	.loc	15 103 1 prologue_end           @ lvgl/src/lv_widgets/../lv_core/lv_obj_style_dec.h:103:1
	ldr	r0, [sp, #4]
	ldrb.w	r1, [sp, #3]
	movs	r2, #19
	bl	_lv_obj_get_style_int
	add	sp, #8
	pop	{r7, pc}
.Ltmp133:
.Lfunc_end8:
	.size	lv_obj_get_style_pad_right, .Lfunc_end8-lv_obj_get_style_pad_right
	.cfi_endproc
	.cantunwind
	.fnend
                                        @ -- End function
	.section	.text.lv_area_get_width,"ax",%progbits
	.p2align	3                               @ -- Begin function lv_area_get_width
	.type	lv_area_get_width,%function
	.code	16                              @ @lv_area_get_width
	.thumb_func
lv_area_get_width:
.Lfunc_begin9:
	.loc	6 108 0                         @ lvgl/src/lv_widgets/../lv_core/../lv_hal/../lv_misc/lv_area.h:108:0
	.fnstart
	.cfi_startproc
@ %bb.0:
	.pad	#4
	sub	sp, #4
	.cfi_def_cfa_offset 4
	str	r0, [sp]
.Ltmp134:
	.loc	6 109 25 prologue_end           @ lvgl/src/lv_widgets/../lv_core/../lv_hal/../lv_misc/lv_area.h:109:25
	ldr	r1, [sp]
	ldrh	r0, [r1, #4]
	.loc	6 109 38 is_stmt 0              @ lvgl/src/lv_widgets/../lv_core/../lv_hal/../lv_misc/lv_area.h:109:38
	ldrh	r1, [r1]
	.loc	6 109 36                        @ lvgl/src/lv_widgets/../lv_core/../lv_hal/../lv_misc/lv_area.h:109:36
	subs	r0, r0, r1
	.loc	6 109 49                        @ lvgl/src/lv_widgets/../lv_core/../lv_hal/../lv_misc/lv_area.h:109:49
	adds	r0, #1
	.loc	6 109 5                         @ lvgl/src/lv_widgets/../lv_core/../lv_hal/../lv_misc/lv_area.h:109:5
	sxth	r0, r0
	add	sp, #4
	bx	lr
.Ltmp135:
.Lfunc_end9:
	.size	lv_area_get_width, .Lfunc_end9-lv_area_get_width
	.cfi_endproc
	.cantunwind
	.fnend
                                        @ -- End function
	.section	.text.lv_obj_get_style_pad_top,"ax",%progbits
	.p2align	3                               @ -- Begin function lv_obj_get_style_pad_top
	.type	lv_obj_get_style_pad_top,%function
	.code	16                              @ @lv_obj_get_style_pad_top
	.thumb_func
lv_obj_get_style_pad_top:
.Lfunc_begin10:
	.loc	15 100 0 is_stmt 1              @ lvgl/src/lv_widgets/../lv_core/lv_obj_style_dec.h:100:0
	.fnstart
	.cfi_startproc
@ %bb.0:
	.save	{r7, lr}
	push	{r7, lr}
	.cfi_def_cfa_offset 8
	.cfi_offset lr, -4
	.cfi_offset r7, -8
	.pad	#8
	sub	sp, #8
	.cfi_def_cfa_offset 16
                                        @ kill: def $r2 killed $r1
	str	r0, [sp, #4]
	strb.w	r1, [sp, #3]
.Ltmp136:
	.loc	15 100 1 prologue_end           @ lvgl/src/lv_widgets/../lv_core/lv_obj_style_dec.h:100:1
	ldr	r0, [sp, #4]
	ldrb.w	r1, [sp, #3]
	movs	r2, #16
	bl	_lv_obj_get_style_int
	add	sp, #8
	pop	{r7, pc}
.Ltmp137:
.Lfunc_end10:
	.size	lv_obj_get_style_pad_top, .Lfunc_end10-lv_obj_get_style_pad_top
	.cfi_endproc
	.cantunwind
	.fnend
                                        @ -- End function
	.section	.text.lv_obj_get_style_pad_bottom,"ax",%progbits
	.p2align	3                               @ -- Begin function lv_obj_get_style_pad_bottom
	.type	lv_obj_get_style_pad_bottom,%function
	.code	16                              @ @lv_obj_get_style_pad_bottom
	.thumb_func
lv_obj_get_style_pad_bottom:
.Lfunc_begin11:
	.loc	15 101 0                        @ lvgl/src/lv_widgets/../lv_core/lv_obj_style_dec.h:101:0
	.fnstart
	.cfi_startproc
@ %bb.0:
	.save	{r7, lr}
	push	{r7, lr}
	.cfi_def_cfa_offset 8
	.cfi_offset lr, -4
	.cfi_offset r7, -8
	.pad	#8
	sub	sp, #8
	.cfi_def_cfa_offset 16
                                        @ kill: def $r2 killed $r1
	str	r0, [sp, #4]
	strb.w	r1, [sp, #3]
.Ltmp138:
	.loc	15 101 1 prologue_end           @ lvgl/src/lv_widgets/../lv_core/lv_obj_style_dec.h:101:1
	ldr	r0, [sp, #4]
	ldrb.w	r1, [sp, #3]
	movs	r2, #17
	bl	_lv_obj_get_style_int
	add	sp, #8
	pop	{r7, pc}
.Ltmp139:
.Lfunc_end11:
	.size	lv_obj_get_style_pad_bottom, .Lfunc_end11-lv_obj_get_style_pad_bottom
	.cfi_endproc
	.cantunwind
	.fnend
                                        @ -- End function
	.section	.text.lv_switch_get_style,"ax",%progbits
	.p2align	3                               @ -- Begin function lv_switch_get_style
	.type	lv_switch_get_style,%function
	.code	16                              @ @lv_switch_get_style
	.thumb_func
lv_switch_get_style:
.Lfunc_begin12:
	.loc	10 333 0                        @ lvgl/src/lv_widgets/lv_switch.c:333:0
	.fnstart
	.cfi_startproc
@ %bb.0:
	.save	{r7, lr}
	push	{r7, lr}
	.cfi_def_cfa_offset 8
	.cfi_offset lr, -4
	.cfi_offset r7, -8
	.pad	#24
	sub	sp, #24
	.cfi_def_cfa_offset 32
                                        @ kill: def $r2 killed $r1
	str	r0, [sp, #20]
	strb.w	r1, [sp, #19]
.Ltmp140:
	.loc	10 334 5 prologue_end           @ lvgl/src/lv_widgets/lv_switch.c:334:5
	b	.LBB12_1
.LBB12_1:
.Ltmp141:
	.loc	10 334 5 is_stmt 0              @ lvgl/src/lv_widgets/lv_switch.c:334:5
	ldr	r0, [sp, #20]
	bl	lv_debug_check_null
.Ltmp142:
	.loc	10 334 5                        @ lvgl/src/lv_widgets/lv_switch.c:334:5
	cbnz	r0, .LBB12_4
	b	.LBB12_2
.LBB12_2:
.Ltmp143:
	.loc	10 334 5                        @ lvgl/src/lv_widgets/lv_switch.c:334:5
	ldr	r2, [sp, #20]
	movw	r0, :lower16:.L.str.1
	movt	r0, :upper16:.L.str.1
	movs	r3, #0
	bl	lv_debug_log_error
	b	.LBB12_3
.LBB12_3:                               @ =>This Inner Loop Header: Depth=1
	b	.LBB12_3
.Ltmp144:
.LBB12_4:
	.loc	10 334 5                        @ lvgl/src/lv_widgets/lv_switch.c:334:5
	b	.LBB12_5
.Ltmp145:
.LBB12_5:
	.loc	10 336 49 is_stmt 1             @ lvgl/src/lv_widgets/lv_switch.c:336:49
	ldr	r0, [sp, #20]
	.loc	10 336 29 is_stmt 0             @ lvgl/src/lv_widgets/lv_switch.c:336:29
	bl	lv_obj_get_ext_attr
	.loc	10 336 23                       @ lvgl/src/lv_widgets/lv_switch.c:336:23
	str	r0, [sp, #12]
	.loc	10 339 12 is_stmt 1             @ lvgl/src/lv_widgets/lv_switch.c:339:12
	ldrb.w	r0, [sp, #19]
	.loc	10 339 5 is_stmt 0              @ lvgl/src/lv_widgets/lv_switch.c:339:5
	mov	r1, r0
	str	r1, [sp, #4]                    @ 4-byte Spill
	cbz	r0, .LBB12_8
	b	.LBB12_6
.LBB12_6:
	ldr	r0, [sp, #4]                    @ 4-byte Reload
	cmp	r0, #1
	beq	.LBB12_9
	b	.LBB12_7
.LBB12_7:
	ldr	r0, [sp, #4]                    @ 4-byte Reload
	cmp	r0, #2
	beq	.LBB12_10
	b	.LBB12_11
.LBB12_8:
.Ltmp146:
	.loc	10 341 28 is_stmt 1             @ lvgl/src/lv_widgets/lv_switch.c:341:28
	ldr	r0, [sp, #20]
	.loc	10 341 32 is_stmt 0             @ lvgl/src/lv_widgets/lv_switch.c:341:32
	adds	r0, #40
	.loc	10 341 25                       @ lvgl/src/lv_widgets/lv_switch.c:341:25
	str	r0, [sp, #8]
	.loc	10 342 13 is_stmt 1             @ lvgl/src/lv_widgets/lv_switch.c:342:13
	b	.LBB12_12
.LBB12_9:
	.loc	10 344 28                       @ lvgl/src/lv_widgets/lv_switch.c:344:28
	ldr	r0, [sp, #12]
	.loc	10 344 37 is_stmt 0             @ lvgl/src/lv_widgets/lv_switch.c:344:37
	adds	r0, #48
	.loc	10 344 25                       @ lvgl/src/lv_widgets/lv_switch.c:344:25
	str	r0, [sp, #8]
	.loc	10 345 13 is_stmt 1             @ lvgl/src/lv_widgets/lv_switch.c:345:13
	b	.LBB12_12
.LBB12_10:
	.loc	10 347 28                       @ lvgl/src/lv_widgets/lv_switch.c:347:28
	ldr	r0, [sp, #12]
	.loc	10 347 33 is_stmt 0             @ lvgl/src/lv_widgets/lv_switch.c:347:33
	adds	r0, #56
	.loc	10 347 25                       @ lvgl/src/lv_widgets/lv_switch.c:347:25
	str	r0, [sp, #8]
	.loc	10 348 13 is_stmt 1             @ lvgl/src/lv_widgets/lv_switch.c:348:13
	b	.LBB12_12
.LBB12_11:
	.loc	10 0 13 is_stmt 0               @ lvgl/src/lv_widgets/lv_switch.c:0:13
	movs	r0, #0
	.loc	10 350 25 is_stmt 1             @ lvgl/src/lv_widgets/lv_switch.c:350:25
	str	r0, [sp, #8]
	.loc	10 351 5                        @ lvgl/src/lv_widgets/lv_switch.c:351:5
	b	.LBB12_12
.Ltmp147:
.LBB12_12:
	.loc	10 353 12                       @ lvgl/src/lv_widgets/lv_switch.c:353:12
	ldr	r0, [sp, #8]
	.loc	10 353 5 is_stmt 0              @ lvgl/src/lv_widgets/lv_switch.c:353:5
	add	sp, #24
	pop	{r7, pc}
.Ltmp148:
.Lfunc_end12:
	.size	lv_switch_get_style, .Lfunc_end12-lv_switch_get_style
	.cfi_endproc
	.cantunwind
	.fnend
                                        @ -- End function
	.type	.L.str,%object                  @ @.str
	.section	.rodata.str1.1,"aMS",%progbits,1
.L.str:
	.asciz	"Out of memory"
	.size	.L.str, 14

	.type	ancestor_signal,%object         @ @ancestor_signal
	.section	.bss.ancestor_signal,"aw",%nobits
	.p2align	2
ancestor_signal:
	.long	0
	.size	ancestor_signal, 4

	.type	ancestor_design,%object         @ @ancestor_design
	.section	.bss.ancestor_design,"aw",%nobits
	.p2align	2
ancestor_design:
	.long	0
	.size	ancestor_design, 4

	.type	.L.str.1,%object                @ @.str.1
	.section	.rodata.str1.1,"aMS",%progbits,1
.L.str.1:
	.asciz	"NULL pointer"
	.size	.L.str.1, 13

	.type	.L.str.2,%object                @ @.str.2
.L.str.2:
	.asciz	"lv_switch"
	.size	.L.str.2, 10

	.file	16 "E:\\Smart-access-control\\Hardware\\CODE" "lvgl/src/lv_widgets/lv_bar.h"
	.file	17 "E:\\Smart-access-control\\Hardware\\CODE" "lvgl/src/lv_widgets/../lv_core/../lv_draw/lv_draw_rect.h"
	.file	18 "E:\\Smart-access-control\\Hardware\\CODE" "lvgl/src/lv_widgets/../lv_core/../lv_hal/../lv_misc/lv_color.h"
	.file	19 "E:\\Smart-access-control\\Hardware\\CODE" "lvgl/src/lv_widgets/../lv_core/../lv_draw/lv_draw_blend.h"
	.file	20 "E:\\Smart-access-control\\Hardware\\CODE" "lvgl/src/lv_widgets/../lv_font/lv_font.h"
	.section	".note.GNU-stack","",%progbits
	.eabi_attribute	30, 6	@ Tag_ABI_optimization_goals
	.ARM_attribute	16, 1	@ Tag_AV_eba