	.text
	.syntax unified
	.eabi_attribute	67, "2.09"	@ Tag_conformance
	.cpu	cortex-m7
	.eabi_attribute	6, 13	@ Tag_CPU_arch
	.eabi_attribute	7, 77	@ Tag_CPU_arch_profile
	.eabi_attribute	8, 0	@ Tag_ARM_ISA_use
	.eabi_attribute	9, 2	@ Tag_THUMB_ISA_use
	.fpu	fpv5-d16
	.eabi_attribute	36, 1	@ Tag_FP_HP_extension
	.eabi_attribute	34, 1	@ Tag_CPU_unaligned_access
	.eabi_attribute	17, 1	@ Tag_ABI_PCS_GOT_use
	.eabi_attribute	20, 2	@ Tag_ABI_FP_denormal
	.eabi_attribute	21, 0	@ Tag_ABI_FP_exceptions
	.eabi_attribute	23, 1	@ Tag_ABI_FP_number_model
	.eabi_attribute	24, 1	@ Tag_ABI_align_needed
	.eabi_attribute	25, 1	@ Tag_ABI_align_preserved
	.eabi_attribute	28, 1	@ Tag_ABI_VFP_args
	.eabi_attribute	38, 1	@ Tag_ABI_FP_16bit_format
	.eabi_attribute	18, 2	@ Tag_ABI_PCS_wchar_t
	.eabi_attribute	26, 1	@ Tag_ABI_enum_size
	.eabi_attribute	14, 0	@ Tag_ABI_PCS_R9_use
	.file	"lv_theme_mono.c"
	.file	1 "E:\\STM32\\Learning\\STM32H750_ART_PI_RGBLCD" "./lvgl/src/lv_widgets/../lv_core/lv_obj.h"
	.file	2 "D:\\Keil_v5\\ARM\\ARMCLANG\\Bin\\..\\include" "stdint.h"
	.file	3 "E:\\STM32\\Learning\\STM32H750_ART_PI_RGBLCD" "./lvgl/src/lv_hal/../lv_misc/lv_ll.h"
	.file	4 "E:\\STM32\\Learning\\STM32H750_ART_PI_RGBLCD" "./lvgl/src/lv_conf.h"
	.file	5 "E:\\STM32\\Learning\\STM32H750_ART_PI_RGBLCD" "./lvgl/src/lv_misc/lv_area.h"
	.file	6 "E:\\STM32\\Learning\\STM32H750_ART_PI_RGBLCD" "./lvgl/src/lv_core/../lv_draw/../lv_misc/lv_types.h"
	.file	7 "E:\\STM32\\Learning\\STM32H750_ART_PI_RGBLCD" "lvgl/src/lv_themes/../lv_core/lv_style.h"
	.file	8 "E:\\STM32\\Learning\\STM32H750_ART_PI_RGBLCD" "./lvgl/src/lv_core/../lv_hal/lv_hal_indev.h"
	.file	9 "E:\\STM32\\Learning\\STM32H750_ART_PI_RGBLCD" "./lvgl/src/lv_core/../lv_draw/../lv_misc/lv_bidi.h"
	.file	10 "E:\\STM32\\Learning\\STM32H750_ART_PI_RGBLCD" "./lvgl/src/lv_themes/lv_theme.h"
	.file	11 "E:\\STM32\\Learning\\STM32H750_ART_PI_RGBLCD" "./lvgl/src/lv_core/../lv_draw/../lv_misc/lv_color.h"
	.file	12 "E:\\STM32\\Learning\\STM32H750_ART_PI_RGBLCD" "./lvgl/src/lv_widgets/../lv_font/lv_font.h"
	.file	13 "E:\\STM32\\Learning\\STM32H750_ART_PI_RGBLCD" "lvgl/src/lv_themes/lv_theme_mono.c"
	.file	14 "E:\\STM32\\Learning\\STM32H750_ART_PI_RGBLCD" "./lvgl/src/lv_widgets/../lv_widgets/lv_cont.h"
	.file	15 "E:\\STM32\\Learning\\STM32H750_ART_PI_RGBLCD" "./lvgl/src/lv_widgets/lv_btn.h"
	.file	16 "E:\\STM32\\Learning\\STM32H750_ART_PI_RGBLCD" "./lvgl/src/lv_widgets/lv_btnmatrix.h"
	.file	17 "E:\\STM32\\Learning\\STM32H750_ART_PI_RGBLCD" "./lvgl/src/lv_widgets/lv_keyboard.h"
	.file	18 "E:\\STM32\\Learning\\STM32H750_ART_PI_RGBLCD" "./lvgl/src/lv_widgets/lv_bar.h"
	.file	19 "E:\\STM32\\Learning\\STM32H750_ART_PI_RGBLCD" "./lvgl/src/lv_widgets/lv_switch.h"
	.file	20 "E:\\STM32\\Learning\\STM32H750_ART_PI_RGBLCD" "./lvgl/src/lv_widgets/lv_canvas.h"
	.file	21 "E:\\STM32\\Learning\\STM32H750_ART_PI_RGBLCD" "./lvgl/src/lv_widgets/../lv_widgets/lv_img.h"
	.file	22 "E:\\STM32\\Learning\\STM32H750_ART_PI_RGBLCD" "./lvgl/src/lv_widgets/../lv_widgets/lv_label.h"
	.file	23 "E:\\STM32\\Learning\\STM32H750_ART_PI_RGBLCD" "./lvgl/src/lv_widgets/lv_arc.h"
	.file	24 "E:\\STM32\\Learning\\STM32H750_ART_PI_RGBLCD" "./lvgl/src/lv_widgets/lv_spinner.h"
	.file	25 "E:\\STM32\\Learning\\STM32H750_ART_PI_RGBLCD" "./lvgl/src/lv_widgets/lv_slider.h"
	.file	26 "E:\\STM32\\Learning\\STM32H750_ART_PI_RGBLCD" "./lvgl/src/lv_widgets/lv_checkbox.h"
	.file	27 "E:\\STM32\\Learning\\STM32H750_ART_PI_RGBLCD" "./lvgl/src/lv_widgets/lv_msgbox.h"
	.file	28 "E:\\STM32\\Learning\\STM32H750_ART_PI_RGBLCD" "./lvgl/src/lv_widgets/lv_led.h"
	.file	29 "E:\\STM32\\Learning\\STM32H750_ART_PI_RGBLCD" "./lvgl/src/lv_widgets/../lv_widgets/lv_page.h"
	.file	30 "E:\\STM32\\Learning\\STM32H750_ART_PI_RGBLCD" "./lvgl/src/lv_widgets/lv_tabview.h"
	.file	31 "E:\\STM32\\Learning\\STM32H750_ART_PI_RGBLCD" "./lvgl/src/lv_widgets/lv_tileview.h"
	.file	32 "E:\\STM32\\Learning\\STM32H750_ART_PI_RGBLCD" "./lvgl/src/lv_widgets/lv_roller.h"
	.file	33 "E:\\STM32\\Learning\\STM32H750_ART_PI_RGBLCD" "./lvgl/src/lv_widgets/lv_objmask.h"
	.file	34 "E:\\STM32\\Learning\\STM32H750_ART_PI_RGBLCD" "./lvgl/src/lv_widgets/lv_list.h"
	.file	35 "E:\\STM32\\Learning\\STM32H750_ART_PI_RGBLCD" "./lvgl/src/lv_widgets/lv_dropdown.h"
	.file	36 "E:\\STM32\\Learning\\STM32H750_ART_PI_RGBLCD" "./lvgl/src/lv_widgets/lv_chart.h"
	.file	37 "E:\\STM32\\Learning\\STM32H750_ART_PI_RGBLCD" "./lvgl/src/lv_widgets/lv_table.h"
	.file	38 "E:\\STM32\\Learning\\STM32H750_ART_PI_RGBLCD" "./lvgl/src/lv_widgets/../lv_widgets/lv_win.h"
	.file	39 "E:\\STM32\\Learning\\STM32H750_ART_PI_RGBLCD" "./lvgl/src/lv_widgets/../lv_widgets/lv_textarea.h"
	.file	40 "E:\\STM32\\Learning\\STM32H750_ART_PI_RGBLCD" "./lvgl/src/lv_widgets/lv_spinbox.h"
	.file	41 "E:\\STM32\\Learning\\STM32H750_ART_PI_RGBLCD" "./lvgl/src/lv_widgets/lv_calendar.h"
	.file	42 "E:\\STM32\\Learning\\STM32H750_ART_PI_RGBLCD" "./lvgl/src/lv_widgets/lv_cpicker.h"
	.file	43 "E:\\STM32\\Learning\\STM32H750_ART_PI_RGBLCD" "./lvgl/src/lv_widgets/lv_linemeter.h"
	.file	44 "E:\\STM32\\Learning\\STM32H750_ART_PI_RGBLCD" "./lvgl/src/lv_widgets/lv_gauge.h"
	.section	.text.lv_theme_mono_init,"ax",%progbits
	.hidden	lv_theme_mono_init              @ -- Begin function lv_theme_mono_init
	.globl	lv_theme_mono_init
	.p2align	3
	.type	lv_theme_mono_init,%function
	.code	16                              @ @lv_theme_mono_init
	.thumb_func
lv_theme_mono_init:
.Lfunc_begin0:
	.loc	13 495 0                        @ lvgl/src/lv_themes/lv_theme_mono.c:495:0
	.fnstart
	.cfi_sections .debug_frame
	.cfi_startproc
@ %bb.0:
	.save	{r7, lr}
	push	{r7, lr}
	.cfi_def_cfa_offset 8
	.cfi_offset lr, -4
	.cfi_offset r7, -8
	.pad	#32
	sub	sp, #32
	.cfi_def_cfa_offset 40
	ldr.w	r12, [sp, #48]
	ldr.w	r12, [sp, #44]
	ldr.w	r12, [sp, #40]
	str	r0, [sp, #24]
	str	r1, [sp, #20]
	str	r2, [sp, #16]
	str	r3, [sp, #12]
.Ltmp0:
	.loc	13 500 8 prologue_end           @ lvgl/src/lv_themes/lv_theme_mono.c:500:8
	movw	r0, :lower16:styles
	movt	r0, :upper16:styles
	ldr	r0, [r0]
.Ltmp1:
	.loc	13 500 8 is_stmt 0              @ lvgl/src/lv_themes/lv_theme_mono.c:500:8
	cbnz	r0, .LBB0_4
	b	.LBB0_1
.LBB0_1:
	.loc	13 0 8                          @ lvgl/src/lv_themes/lv_theme_mono.c:0:8
	movs	r0, #104
.Ltmp2:
	.loc	13 501 18 is_stmt 1             @ lvgl/src/lv_themes/lv_theme_mono.c:501:18
	bl	lv_mem_alloc
	mov	r1, r0
	.loc	13 501 16 is_stmt 0             @ lvgl/src/lv_themes/lv_theme_mono.c:501:16
	movw	r0, :lower16:styles
	movt	r0, :upper16:styles
	str	r1, [r0]
.Ltmp3:
	.loc	13 502 12 is_stmt 1             @ lvgl/src/lv_themes/lv_theme_mono.c:502:12
	ldr	r0, [r0]
.Ltmp4:
	.loc	13 502 12 is_stmt 0             @ lvgl/src/lv_themes/lv_theme_mono.c:502:12
	cbnz	r0, .LBB0_3
	b	.LBB0_2
.LBB0_2:
	.loc	13 0 12                         @ lvgl/src/lv_themes/lv_theme_mono.c:0:12
	movs	r0, #0
.Ltmp5:
	.loc	13 502 28                       @ lvgl/src/lv_themes/lv_theme_mono.c:502:28
	str	r0, [sp, #28]
	b	.LBB0_5
.Ltmp6:
.LBB0_3:
	.loc	13 503 23 is_stmt 1             @ lvgl/src/lv_themes/lv_theme_mono.c:503:23
	movw	r0, :lower16:styles
	movt	r0, :upper16:styles
	str	r0, [sp, #8]                    @ 4-byte Spill
	ldr	r0, [r0]
	movs	r1, #104
	.loc	13 503 9 is_stmt 0              @ lvgl/src/lv_themes/lv_theme_mono.c:503:9
	bl	_lv_memset_00
	ldr	r0, [sp, #8]                    @ 4-byte Reload
	.loc	13 504 45 is_stmt 1             @ lvgl/src/lv_themes/lv_theme_mono.c:504:45
	ldr	r0, [r0]
	.loc	13 504 43 is_stmt 0             @ lvgl/src/lv_themes/lv_theme_mono.c:504:43
	movw	r1, :lower16:_lv_theme_mono_styles
	movt	r1, :upper16:_lv_theme_mono_styles
	str	r0, [r1]
	.loc	13 505 5 is_stmt 1              @ lvgl/src/lv_themes/lv_theme_mono.c:505:5
	b	.LBB0_4
.Ltmp7:
.LBB0_4:
	.loc	13 507 27                       @ lvgl/src/lv_themes/lv_theme_mono.c:507:27
	movw	r1, :lower16:theme
	movt	r1, :upper16:theme
	str	r1, [sp, #4]                    @ 4-byte Spill
	ldr	r0, [sp, #24]
	str	r0, [r1, #12]
	.loc	13 508 29                       @ lvgl/src/lv_themes/lv_theme_mono.c:508:29
	ldr	r0, [sp, #20]
	str	r0, [r1, #16]
	.loc	13 509 24                       @ lvgl/src/lv_themes/lv_theme_mono.c:509:24
	ldr	r0, [sp, #12]
	.loc	13 509 22 is_stmt 0             @ lvgl/src/lv_themes/lv_theme_mono.c:509:22
	str	r0, [r1, #20]
	.loc	13 510 25 is_stmt 1             @ lvgl/src/lv_themes/lv_theme_mono.c:510:25
	ldr	r0, [sp, #40]
	.loc	13 510 23 is_stmt 0             @ lvgl/src/lv_themes/lv_theme_mono.c:510:23
	str	r0, [r1, #24]
	.loc	13 511 27 is_stmt 1             @ lvgl/src/lv_themes/lv_theme_mono.c:511:27
	ldr	r0, [sp, #44]
	.loc	13 511 25 is_stmt 0             @ lvgl/src/lv_themes/lv_theme_mono.c:511:25
	str	r0, [r1, #28]
	.loc	13 512 24 is_stmt 1             @ lvgl/src/lv_themes/lv_theme_mono.c:512:24
	ldr	r0, [sp, #48]
	.loc	13 512 22 is_stmt 0             @ lvgl/src/lv_themes/lv_theme_mono.c:512:22
	str	r0, [r1, #32]
	.loc	13 513 19 is_stmt 1             @ lvgl/src/lv_themes/lv_theme_mono.c:513:19
	ldr	r0, [sp, #16]
	.loc	13 513 17 is_stmt 0             @ lvgl/src/lv_themes/lv_theme_mono.c:513:17
	str	r0, [r1, #36]
	.loc	13 515 5 is_stmt 1              @ lvgl/src/lv_themes/lv_theme_mono.c:515:5
	bl	basic_init
	.loc	13 516 5                        @ lvgl/src/lv_themes/lv_theme_mono.c:516:5
	bl	cont_init
	.loc	13 517 5                        @ lvgl/src/lv_themes/lv_theme_mono.c:517:5
	bl	btn_init
	.loc	13 518 5                        @ lvgl/src/lv_themes/lv_theme_mono.c:518:5
	bl	label_init
	.loc	13 519 5                        @ lvgl/src/lv_themes/lv_theme_mono.c:519:5
	bl	bar_init
	.loc	13 520 5                        @ lvgl/src/lv_themes/lv_theme_mono.c:520:5
	bl	img_init
	.loc	13 521 5                        @ lvgl/src/lv_themes/lv_theme_mono.c:521:5
	bl	line_init
	.loc	13 522 5                        @ lvgl/src/lv_themes/lv_theme_mono.c:522:5
	bl	led_init
	.loc	13 523 5                        @ lvgl/src/lv_themes/lv_theme_mono.c:523:5
	bl	slider_init
	.loc	13 524 5                        @ lvgl/src/lv_themes/lv_theme_mono.c:524:5
	bl	switch_init
	.loc	13 525 5                        @ lvgl/src/lv_themes/lv_theme_mono.c:525:5
	bl	linemeter_init
	.loc	13 526 5                        @ lvgl/src/lv_themes/lv_theme_mono.c:526:5
	bl	gauge_init
	.loc	13 527 5                        @ lvgl/src/lv_themes/lv_theme_mono.c:527:5
	bl	arc_init
	.loc	13 528 5                        @ lvgl/src/lv_themes/lv_theme_mono.c:528:5
	bl	spinner_init
	.loc	13 529 5                        @ lvgl/src/lv_themes/lv_theme_mono.c:529:5
	bl	chart_init
	.loc	13 530 5                        @ lvgl/src/lv_themes/lv_theme_mono.c:530:5
	bl	calendar_init
	.loc	13 531 5                        @ lvgl/src/lv_themes/lv_theme_mono.c:531:5
	bl	cpicker_init
	.loc	13 532 5                        @ lvgl/src/lv_themes/lv_theme_mono.c:532:5
	bl	checkbox_init
	.loc	13 533 5                        @ lvgl/src/lv_themes/lv_theme_mono.c:533:5
	bl	btnmatrix_init
	.loc	13 534 5                        @ lvgl/src/lv_themes/lv_theme_mono.c:534:5
	bl	keyboard_init
	.loc	13 535 5                        @ lvgl/src/lv_themes/lv_theme_mono.c:535:5
	bl	msgbox_init
	.loc	13 536 5                        @ lvgl/src/lv_themes/lv_theme_mono.c:536:5
	bl	page_init
	.loc	13 537 5                        @ lvgl/src/lv_themes/lv_theme_mono.c:537:5
	bl	textarea_init
	.loc	13 538 5                        @ lvgl/src/lv_themes/lv_theme_mono.c:538:5
	bl	spinbox_init
	.loc	13 539 5                        @ lvgl/src/lv_themes/lv_theme_mono.c:539:5
	bl	list_init
	.loc	13 540 5                        @ lvgl/src/lv_themes/lv_theme_mono.c:540:5
	bl	ddlist_init
	.loc	13 541 5                        @ lvgl/src/lv_themes/lv_theme_mono.c:541:5
	bl	roller_init
	.loc	13 542 5                        @ lvgl/src/lv_themes/lv_theme_mono.c:542:5
	bl	tabview_init
	.loc	13 543 5                        @ lvgl/src/lv_themes/lv_theme_mono.c:543:5
	bl	tileview_init
	.loc	13 544 5                        @ lvgl/src/lv_themes/lv_theme_mono.c:544:5
	bl	table_init
	.loc	13 545 5                        @ lvgl/src/lv_themes/lv_theme_mono.c:545:5
	bl	win_init
	ldr	r0, [sp, #4]                    @ 4-byte Reload
	movs	r1, #0
	.loc	13 547 21                       @ lvgl/src/lv_themes/lv_theme_mono.c:547:21
	str	r1, [r0, #4]
	.loc	13 548 20                       @ lvgl/src/lv_themes/lv_theme_mono.c:548:20
	movw	r1, :lower16:theme_apply
	movt	r1, :upper16:theme_apply
	str	r1, [r0]
	.loc	13 550 5                        @ lvgl/src/lv_themes/lv_theme_mono.c:550:5
	str	r0, [sp, #28]
	b	.LBB0_5
.LBB0_5:
	.loc	13 551 1                        @ lvgl/src/lv_themes/lv_theme_mono.c:551:1
	ldr	r0, [sp, #28]
	add	sp, #32
	pop	{r7, pc}
.Ltmp8:
.Lfunc_end0:
	.size	lv_theme_mono_init, .Lfunc_end0-lv_theme_mono_init
	.cfi_endproc
	.cantunwind
	.fnend
                                        @ -- End function
	.section	.text.basic_init,"ax",%progbits
	.p2align	3                               @ -- Begin function basic_init
	.type	basic_init,%function
	.code	16                              @ @basic_init
	.thumb_func
basic_init:
.Lfunc_begin1:
	.loc	13 105 0                        @ lvgl/src/lv_themes/lv_theme_mono.c:105:0
	.fnstart
	.cfi_startproc
@ %bb.0:
	.save	{r7, lr}
	push	{r7, lr}
	.cfi_def_cfa_offset 8
	.cfi_offset lr, -4
	.cfi_offset r7, -8
	.pad	#424
	sub	sp, #424
	.cfi_def_cfa_offset 432
.Ltmp9:
	.loc	13 106 21 prologue_end          @ lvgl/src/lv_themes/lv_theme_mono.c:106:21
	movw	r0, :lower16:styles
	movt	r0, :upper16:styles
	str	r0, [sp, #204]                  @ 4-byte Spill
	ldr	r0, [r0]
	.loc	13 106 5 is_stmt 0              @ lvgl/src/lv_themes/lv_theme_mono.c:106:5
	bl	lv_style_reset
	ldr	r0, [sp, #204]                  @ 4-byte Reload
	.loc	13 107 26 is_stmt 1             @ lvgl/src/lv_themes/lv_theme_mono.c:107:26
	ldr	r0, [r0]
	movs	r1, #0
	movs	r2, #255
	.loc	13 107 5 is_stmt 0              @ lvgl/src/lv_themes/lv_theme_mono.c:107:5
	bl	lv_style_set_bg_opa
	ldr	r0, [sp, #204]                  @ 4-byte Reload
	.loc	13 108 28 is_stmt 1             @ lvgl/src/lv_themes/lv_theme_mono.c:108:28
	ldr	r0, [r0]
	.loc	13 108 59 is_stmt 0             @ lvgl/src/lv_themes/lv_theme_mono.c:108:59
	str	r0, [sp, #208]                  @ 4-byte Spill
	movw	r0, :lower16:theme
	movt	r0, :upper16:theme
	ldrb	r0, [r0, #14]
	cbnz	r0, .LBB1_2
	b	.LBB1_1
.LBB1_1:
	.loc	13 0 59                         @ lvgl/src/lv_themes/lv_theme_mono.c:0:59
	movs	r0, #255
	.loc	13 108 59                       @ lvgl/src/lv_themes/lv_theme_mono.c:108:59
	strb.w	r0, [sp, #420]
	strb.w	r0, [sp, #421]
	strb.w	r0, [sp, #422]
	strb.w	r0, [sp, #423]
	b	.LBB1_3
.LBB1_2:
	.loc	13 0 59                         @ lvgl/src/lv_themes/lv_theme_mono.c:0:59
	movs	r0, #0
	.loc	13 108 59                       @ lvgl/src/lv_themes/lv_theme_mono.c:108:59
	strb.w	r0, [sp, #420]
	strb.w	r0, [sp, #421]
	strb.w	r0, [sp, #422]
	movs	r0, #255
	strb.w	r0, [sp, #423]
	b	.LBB1_3
.LBB1_3:
	.loc	13 108 5                        @ lvgl/src/lv_themes/lv_theme_mono.c:108:5
	ldr	r0, [sp, #208]                  @ 4-byte Reload
	ldr	r2, [sp, #420]
	movs	r1, #0
	bl	lv_style_set_bg_color
	.loc	13 109 30 is_stmt 1             @ lvgl/src/lv_themes/lv_theme_mono.c:109:30
	movw	r0, :lower16:styles
	movt	r0, :upper16:styles
	ldr	r0, [r0]
	.loc	13 109 61 is_stmt 0             @ lvgl/src/lv_themes/lv_theme_mono.c:109:61
	str	r0, [sp, #200]                  @ 4-byte Spill
	movw	r0, :lower16:theme
	movt	r0, :upper16:theme
	ldrb	r0, [r0, #14]
	cbnz	r0, .LBB1_5
	b	.LBB1_4
.LBB1_4:
	.loc	13 0 61                         @ lvgl/src/lv_themes/lv_theme_mono.c:0:61
	movs	r0, #255
	.loc	13 109 61                       @ lvgl/src/lv_themes/lv_theme_mono.c:109:61
	strb.w	r0, [sp, #412]
	strb.w	r0, [sp, #413]
	strb.w	r0, [sp, #414]
	strb.w	r0, [sp, #415]
	b	.LBB1_6
.LBB1_5:
	.loc	13 0 61                         @ lvgl/src/lv_themes/lv_theme_mono.c:0:61
	movs	r0, #0
	.loc	13 109 61                       @ lvgl/src/lv_themes/lv_theme_mono.c:109:61
	strb.w	r0, [sp, #412]
	strb.w	r0, [sp, #413]
	strb.w	r0, [sp, #414]
	movs	r0, #255
	strb.w	r0, [sp, #415]
	b	.LBB1_6
.LBB1_6:
	ldrb.w	r0, [sp, #414]
	cbnz	r0, .LBB1_8
	b	.LBB1_7
.LBB1_7:
	.loc	13 0 61                         @ lvgl/src/lv_themes/lv_theme_mono.c:0:61
	movs	r0, #255
	.loc	13 109 61                       @ lvgl/src/lv_themes/lv_theme_mono.c:109:61
	strb.w	r0, [sp, #416]
	strb.w	r0, [sp, #417]
	strb.w	r0, [sp, #418]
	strb.w	r0, [sp, #419]
	b	.LBB1_9
.LBB1_8:
	.loc	13 0 61                         @ lvgl/src/lv_themes/lv_theme_mono.c:0:61
	movs	r0, #0
	.loc	13 109 61                       @ lvgl/src/lv_themes/lv_theme_mono.c:109:61
	strb.w	r0, [sp, #416]
	strb.w	r0, [sp, #417]
	strb.w	r0, [sp, #418]
	movs	r0, #255
	strb.w	r0, [sp, #419]
	b	.LBB1_9
.LBB1_9:
	.loc	13 109 5                        @ lvgl/src/lv_themes/lv_theme_mono.c:109:5
	ldr	r0, [sp, #200]                  @ 4-byte Reload
	ldr	r2, [sp, #416]
	movs	r1, #0
	bl	lv_style_set_text_color
	.loc	13 110 34 is_stmt 1             @ lvgl/src/lv_themes/lv_theme_mono.c:110:34
	movw	r0, :lower16:styles
	movt	r0, :upper16:styles
	ldr	r0, [r0]
	.loc	13 110 65 is_stmt 0             @ lvgl/src/lv_themes/lv_theme_mono.c:110:65
	str	r0, [sp, #196]                  @ 4-byte Spill
	movw	r0, :lower16:theme
	movt	r0, :upper16:theme
	ldrb	r0, [r0, #14]
	cbnz	r0, .LBB1_11
	b	.LBB1_10
.LBB1_10:
	.loc	13 0 65                         @ lvgl/src/lv_themes/lv_theme_mono.c:0:65
	movs	r0, #255
	.loc	13 110 65                       @ lvgl/src/lv_themes/lv_theme_mono.c:110:65
	strb.w	r0, [sp, #408]
	strb.w	r0, [sp, #409]
	strb.w	r0, [sp, #410]
	strb.w	r0, [sp, #411]
	b	.LBB1_12
.LBB1_11:
	.loc	13 0 65                         @ lvgl/src/lv_themes/lv_theme_mono.c:0:65
	movs	r0, #0
	.loc	13 110 65                       @ lvgl/src/lv_themes/lv_theme_mono.c:110:65
	strb.w	r0, [sp, #408]
	strb.w	r0, [sp, #409]
	strb.w	r0, [sp, #410]
	movs	r0, #255
	strb.w	r0, [sp, #411]
	b	.LBB1_12
.LBB1_12:
	.loc	13 110 5                        @ lvgl/src/lv_themes/lv_theme_mono.c:110:5
	ldr	r0, [sp, #196]                  @ 4-byte Reload
	ldr	r2, [sp, #408]
	movs	r1, #0
	bl	lv_style_set_text_sel_color
	.loc	13 111 37 is_stmt 1             @ lvgl/src/lv_themes/lv_theme_mono.c:111:37
	movw	r0, :lower16:styles
	movt	r0, :upper16:styles
	ldr	r0, [r0]
	.loc	13 111 68 is_stmt 0             @ lvgl/src/lv_themes/lv_theme_mono.c:111:68
	str	r0, [sp, #192]                  @ 4-byte Spill
	movw	r0, :lower16:theme
	movt	r0, :upper16:theme
	ldrb	r0, [r0, #14]
	cbnz	r0, .LBB1_14
	b	.LBB1_13
.LBB1_13:
	.loc	13 0 68                         @ lvgl/src/lv_themes/lv_theme_mono.c:0:68
	movs	r0, #255
	.loc	13 111 68                       @ lvgl/src/lv_themes/lv_theme_mono.c:111:68
	strb.w	r0, [sp, #400]
	strb.w	r0, [sp, #401]
	strb.w	r0, [sp, #402]
	strb.w	r0, [sp, #403]
	b	.LBB1_15
.LBB1_14:
	.loc	13 0 68                         @ lvgl/src/lv_themes/lv_theme_mono.c:0:68
	movs	r0, #0
	.loc	13 111 68                       @ lvgl/src/lv_themes/lv_theme_mono.c:111:68
	strb.w	r0, [sp, #400]
	strb.w	r0, [sp, #401]
	strb.w	r0, [sp, #402]
	movs	r0, #255
	strb.w	r0, [sp, #403]
	b	.LBB1_15
.LBB1_15:
	ldrb.w	r0, [sp, #402]
	cbnz	r0, .LBB1_17
	b	.LBB1_16
.LBB1_16:
	.loc	13 0 68                         @ lvgl/src/lv_themes/lv_theme_mono.c:0:68
	movs	r0, #255
	.loc	13 111 68                       @ lvgl/src/lv_themes/lv_theme_mono.c:111:68
	strb.w	r0, [sp, #404]
	strb.w	r0, [sp, #405]
	strb.w	r0, [sp, #406]
	strb.w	r0, [sp, #407]
	b	.LBB1_18
.LBB1_17:
	.loc	13 0 68                         @ lvgl/src/lv_themes/lv_theme_mono.c:0:68
	movs	r0, #0
	.loc	13 111 68                       @ lvgl/src/lv_themes/lv_theme_mono.c:111:68
	strb.w	r0, [sp, #404]
	strb.w	r0, [sp, #405]
	strb.w	r0, [sp, #406]
	movs	r0, #255
	strb.w	r0, [sp, #407]
	b	.LBB1_18
.LBB1_18:
	.loc	13 111 5                        @ lvgl/src/lv_themes/lv_theme_mono.c:111:5
	ldr	r0, [sp, #192]                  @ 4-byte Reload
	ldr	r2, [sp, #404]
	movs	r1, #0
	bl	lv_style_set_text_sel_bg_color
	.loc	13 112 31 is_stmt 1             @ lvgl/src/lv_themes/lv_theme_mono.c:112:31
	movw	r0, :lower16:styles
	movt	r0, :upper16:styles
	ldr	r0, [r0]
	.loc	13 112 62 is_stmt 0             @ lvgl/src/lv_themes/lv_theme_mono.c:112:62
	str	r0, [sp, #188]                  @ 4-byte Spill
	movw	r0, :lower16:theme
	movt	r0, :upper16:theme
	ldrb	r0, [r0, #14]
	cbnz	r0, .LBB1_20
	b	.LBB1_19
.LBB1_19:
	.loc	13 0 62                         @ lvgl/src/lv_themes/lv_theme_mono.c:0:62
	movs	r0, #255
	.loc	13 112 62                       @ lvgl/src/lv_themes/lv_theme_mono.c:112:62
	strb.w	r0, [sp, #392]
	strb.w	r0, [sp, #393]
	strb.w	r0, [sp, #394]
	strb.w	r0, [sp, #395]
	b	.LBB1_21
.LBB1_20:
	.loc	13 0 62                         @ lvgl/src/lv_themes/lv_theme_mono.c:0:62
	movs	r0, #0
	.loc	13 112 62                       @ lvgl/src/lv_themes/lv_theme_mono.c:112:62
	strb.w	r0, [sp, #392]
	strb.w	r0, [sp, #393]
	strb.w	r0, [sp, #394]
	movs	r0, #255
	strb.w	r0, [sp, #395]
	b	.LBB1_21
.LBB1_21:
	ldrb.w	r0, [sp, #394]
	cbnz	r0, .LBB1_23
	b	.LBB1_22
.LBB1_22:
	.loc	13 0 62                         @ lvgl/src/lv_themes/lv_theme_mono.c:0:62
	movs	r0, #255
	.loc	13 112 62                       @ lvgl/src/lv_themes/lv_theme_mono.c:112:62
	strb.w	r0, [sp, #396]
	strb.w	r0, [sp, #397]
	strb.w	r0, [sp, #398]
	strb.w	r0, [sp, #399]
	b	.LBB1_24
.LBB1_23:
	.loc	13 0 62                         @ lvgl/src/lv_themes/lv_theme_mono.c:0:62
	movs	r0, #0
	.loc	13 112 62                       @ lvgl/src/lv_themes/lv_theme_mono.c:112:62
	strb.w	r0, [sp, #396]
	strb.w	r0, [sp, #397]
	strb.w	r0, [sp, #398]
	movs	r0, #255
	strb.w	r0, [sp, #399]
	b	.LBB1_24
.LBB1_24:
	.loc	13 112 5                        @ lvgl/src/lv_themes/lv_theme_mono.c:112:5
	ldr	r0, [sp, #188]                  @ 4-byte Reload
	ldr	r2, [sp, #396]
	movs	r1, #0
	str	r1, [sp, #176]                  @ 4-byte Spill
	bl	lv_style_set_value_color
	.loc	13 114 21 is_stmt 1             @ lvgl/src/lv_themes/lv_theme_mono.c:114:21
	movw	r0, :lower16:styles
	movt	r0, :upper16:styles
	str	r0, [sp, #180]                  @ 4-byte Spill
	ldr	r0, [r0]
	.loc	13 114 29 is_stmt 0             @ lvgl/src/lv_themes/lv_theme_mono.c:114:29
	adds	r0, #4
	.loc	13 114 5                        @ lvgl/src/lv_themes/lv_theme_mono.c:114:5
	bl	lv_style_reset
	ldr	r1, [sp, #176]                  @ 4-byte Reload
	ldr	r0, [sp, #180]                  @ 4-byte Reload
	.loc	13 115 31 is_stmt 1             @ lvgl/src/lv_themes/lv_theme_mono.c:115:31
	ldr	r0, [r0]
	.loc	13 115 39 is_stmt 0             @ lvgl/src/lv_themes/lv_theme_mono.c:115:39
	adds	r0, #4
	movs	r2, #1
	.loc	13 115 5                        @ lvgl/src/lv_themes/lv_theme_mono.c:115:5
	bl	lv_style_set_border_post
	ldr	r1, [sp, #176]                  @ 4-byte Reload
	ldr	r0, [sp, #180]                  @ 4-byte Reload
	.loc	13 116 26 is_stmt 1             @ lvgl/src/lv_themes/lv_theme_mono.c:116:26
	ldr	r0, [r0]
	.loc	13 116 34 is_stmt 0             @ lvgl/src/lv_themes/lv_theme_mono.c:116:34
	adds	r0, #4
	movs	r2, #4
	.loc	13 116 5                        @ lvgl/src/lv_themes/lv_theme_mono.c:116:5
	bl	lv_style_set_radius
	ldr	r1, [sp, #176]                  @ 4-byte Reload
	ldr	r0, [sp, #180]                  @ 4-byte Reload
	.loc	13 117 26 is_stmt 1             @ lvgl/src/lv_themes/lv_theme_mono.c:117:26
	ldr	r0, [r0]
	.loc	13 117 34 is_stmt 0             @ lvgl/src/lv_themes/lv_theme_mono.c:117:34
	adds	r0, #4
	movs	r2, #255
	.loc	13 117 5                        @ lvgl/src/lv_themes/lv_theme_mono.c:117:5
	bl	lv_style_set_bg_opa
	ldr	r0, [sp, #180]                  @ 4-byte Reload
	.loc	13 118 28 is_stmt 1             @ lvgl/src/lv_themes/lv_theme_mono.c:118:28
	ldr	r0, [r0]
	.loc	13 118 36 is_stmt 0             @ lvgl/src/lv_themes/lv_theme_mono.c:118:36
	adds	r0, #4
	.loc	13 118 58                       @ lvgl/src/lv_themes/lv_theme_mono.c:118:58
	str	r0, [sp, #184]                  @ 4-byte Spill
	movw	r0, :lower16:theme
	movt	r0, :upper16:theme
	ldrb	r0, [r0, #14]
	cbnz	r0, .LBB1_26
	b	.LBB1_25
.LBB1_25:
	.loc	13 0 58                         @ lvgl/src/lv_themes/lv_theme_mono.c:0:58
	movs	r0, #255
	.loc	13 118 58                       @ lvgl/src/lv_themes/lv_theme_mono.c:118:58
	strb.w	r0, [sp, #388]
	strb.w	r0, [sp, #389]
	strb.w	r0, [sp, #390]
	strb.w	r0, [sp, #391]
	b	.LBB1_27
.LBB1_26:
	.loc	13 0 58                         @ lvgl/src/lv_themes/lv_theme_mono.c:0:58
	movs	r0, #0
	.loc	13 118 58                       @ lvgl/src/lv_themes/lv_theme_mono.c:118:58
	strb.w	r0, [sp, #388]
	strb.w	r0, [sp, #389]
	strb.w	r0, [sp, #390]
	movs	r0, #255
	strb.w	r0, [sp, #391]
	b	.LBB1_27
.LBB1_27:
	.loc	13 118 5                        @ lvgl/src/lv_themes/lv_theme_mono.c:118:5
	ldr	r0, [sp, #184]                  @ 4-byte Reload
	ldr	r2, [sp, #388]
	movs	r1, #0
	str	r1, [sp, #160]                  @ 4-byte Spill
	bl	lv_style_set_bg_color
	ldr	r1, [sp, #160]                  @ 4-byte Reload
	.loc	13 119 32 is_stmt 1             @ lvgl/src/lv_themes/lv_theme_mono.c:119:32
	movw	r0, :lower16:styles
	movt	r0, :upper16:styles
	str	r0, [sp, #168]                  @ 4-byte Spill
	ldr	r0, [r0]
	.loc	13 119 40 is_stmt 0             @ lvgl/src/lv_themes/lv_theme_mono.c:119:40
	adds	r0, #4
	movs	r2, #2
	.loc	13 119 5                        @ lvgl/src/lv_themes/lv_theme_mono.c:119:5
	str	r2, [sp, #164]                  @ 4-byte Spill
	bl	lv_style_set_border_width
	ldr	r1, [sp, #164]                  @ 4-byte Reload
	ldr	r0, [sp, #168]                  @ 4-byte Reload
	.loc	13 120 32 is_stmt 1             @ lvgl/src/lv_themes/lv_theme_mono.c:120:32
	ldr	r0, [r0]
	.loc	13 120 40 is_stmt 0             @ lvgl/src/lv_themes/lv_theme_mono.c:120:40
	adds	r0, #4
	movs	r2, #4
	.loc	13 120 5                        @ lvgl/src/lv_themes/lv_theme_mono.c:120:5
	bl	lv_style_set_border_width
	ldr	r0, [sp, #168]                  @ 4-byte Reload
	.loc	13 121 32 is_stmt 1             @ lvgl/src/lv_themes/lv_theme_mono.c:121:32
	ldr	r0, [r0]
	.loc	13 121 40 is_stmt 0             @ lvgl/src/lv_themes/lv_theme_mono.c:121:40
	adds	r0, #4
	movs	r2, #6
	.loc	13 121 5                        @ lvgl/src/lv_themes/lv_theme_mono.c:121:5
	mov	r1, r2
	bl	lv_style_set_border_width
	ldr	r0, [sp, #168]                  @ 4-byte Reload
	.loc	13 122 32 is_stmt 1             @ lvgl/src/lv_themes/lv_theme_mono.c:122:32
	ldr	r0, [r0]
	.loc	13 122 40 is_stmt 0             @ lvgl/src/lv_themes/lv_theme_mono.c:122:40
	adds	r0, #4
	.loc	13 122 62                       @ lvgl/src/lv_themes/lv_theme_mono.c:122:62
	str	r0, [sp, #172]                  @ 4-byte Spill
	movw	r0, :lower16:theme
	movt	r0, :upper16:theme
	ldrb	r0, [r0, #14]
	cbnz	r0, .LBB1_29
	b	.LBB1_28
.LBB1_28:
	.loc	13 0 62                         @ lvgl/src/lv_themes/lv_theme_mono.c:0:62
	movs	r0, #255
	.loc	13 122 62                       @ lvgl/src/lv_themes/lv_theme_mono.c:122:62
	strb.w	r0, [sp, #380]
	strb.w	r0, [sp, #381]
	strb.w	r0, [sp, #382]
	strb.w	r0, [sp, #383]
	b	.LBB1_30
.LBB1_29:
	.loc	13 0 62                         @ lvgl/src/lv_themes/lv_theme_mono.c:0:62
	movs	r0, #0
	.loc	13 122 62                       @ lvgl/src/lv_themes/lv_theme_mono.c:122:62
	strb.w	r0, [sp, #380]
	strb.w	r0, [sp, #381]
	strb.w	r0, [sp, #382]
	movs	r0, #255
	strb.w	r0, [sp, #383]
	b	.LBB1_30
.LBB1_30:
	ldrb.w	r0, [sp, #382]
	cbnz	r0, .LBB1_32
	b	.LBB1_31
.LBB1_31:
	.loc	13 0 62                         @ lvgl/src/lv_themes/lv_theme_mono.c:0:62
	movs	r0, #255
	.loc	13 122 62                       @ lvgl/src/lv_themes/lv_theme_mono.c:122:62
	strb.w	r0, [sp, #384]
	strb.w	r0, [sp, #385]
	strb.w	r0, [sp, #386]
	strb.w	r0, [sp, #387]
	b	.LBB1_33
.LBB1_32:
	.loc	13 0 62                         @ lvgl/src/lv_themes/lv_theme_mono.c:0:62
	movs	r0, #0
	.loc	13 122 62                       @ lvgl/src/lv_themes/lv_theme_mono.c:122:62
	strb.w	r0, [sp, #384]
	strb.w	r0, [sp, #385]
	strb.w	r0, [sp, #386]
	movs	r0, #255
	strb.w	r0, [sp, #387]
	b	.LBB1_33
.LBB1_33:
	.loc	13 122 5                        @ lvgl/src/lv_themes/lv_theme_mono.c:122:5
	ldr	r0, [sp, #172]                  @ 4-byte Reload
	ldr	r2, [sp, #384]
	movs	r1, #0
	str	r1, [sp, #144]                  @ 4-byte Spill
	bl	lv_style_set_border_color
	ldr	r1, [sp, #144]                  @ 4-byte Reload
	.loc	13 123 30 is_stmt 1             @ lvgl/src/lv_themes/lv_theme_mono.c:123:30
	movw	r0, :lower16:styles
	movt	r0, :upper16:styles
	str	r0, [sp, #152]                  @ 4-byte Spill
	ldr	r0, [r0]
	.loc	13 123 38 is_stmt 0             @ lvgl/src/lv_themes/lv_theme_mono.c:123:38
	adds	r0, #4
	movs	r2, #1
	.loc	13 123 5                        @ lvgl/src/lv_themes/lv_theme_mono.c:123:5
	str	r2, [sp, #148]                  @ 4-byte Spill
	bl	lv_style_set_line_width
	ldr	r1, [sp, #144]                  @ 4-byte Reload
	ldr	r2, [sp, #148]                  @ 4-byte Reload
	ldr	r0, [sp, #152]                  @ 4-byte Reload
	.loc	13 124 40 is_stmt 1             @ lvgl/src/lv_themes/lv_theme_mono.c:124:40
	ldr	r0, [r0]
	.loc	13 124 48 is_stmt 0             @ lvgl/src/lv_themes/lv_theme_mono.c:124:48
	adds	r0, #4
	.loc	13 124 5                        @ lvgl/src/lv_themes/lv_theme_mono.c:124:5
	bl	lv_style_set_scale_end_line_width
	ldr	r0, [sp, #152]                  @ 4-byte Reload
	.loc	13 125 30 is_stmt 1             @ lvgl/src/lv_themes/lv_theme_mono.c:125:30
	ldr	r0, [r0]
	.loc	13 125 38 is_stmt 0             @ lvgl/src/lv_themes/lv_theme_mono.c:125:38
	adds	r0, #4
	.loc	13 125 60                       @ lvgl/src/lv_themes/lv_theme_mono.c:125:60
	str	r0, [sp, #156]                  @ 4-byte Spill
	movw	r0, :lower16:theme
	movt	r0, :upper16:theme
	ldrb	r0, [r0, #14]
	cbnz	r0, .LBB1_35
	b	.LBB1_34
.LBB1_34:
	.loc	13 0 60                         @ lvgl/src/lv_themes/lv_theme_mono.c:0:60
	movs	r0, #255
	.loc	13 125 60                       @ lvgl/src/lv_themes/lv_theme_mono.c:125:60
	strb.w	r0, [sp, #372]
	strb.w	r0, [sp, #373]
	strb.w	r0, [sp, #374]
	strb.w	r0, [sp, #375]
	b	.LBB1_36
.LBB1_35:
	.loc	13 0 60                         @ lvgl/src/lv_themes/lv_theme_mono.c:0:60
	movs	r0, #0
	.loc	13 125 60                       @ lvgl/src/lv_themes/lv_theme_mono.c:125:60
	strb.w	r0, [sp, #372]
	strb.w	r0, [sp, #373]
	strb.w	r0, [sp, #374]
	movs	r0, #255
	strb.w	r0, [sp, #375]
	b	.LBB1_36
.LBB1_36:
	ldrb.w	r0, [sp, #374]
	cbnz	r0, .LBB1_38
	b	.LBB1_37
.LBB1_37:
	.loc	13 0 60                         @ lvgl/src/lv_themes/lv_theme_mono.c:0:60
	movs	r0, #255
	.loc	13 125 60                       @ lvgl/src/lv_themes/lv_theme_mono.c:125:60
	strb.w	r0, [sp, #376]
	strb.w	r0, [sp, #377]
	strb.w	r0, [sp, #378]
	strb.w	r0, [sp, #379]
	b	.LBB1_39
.LBB1_38:
	.loc	13 0 60                         @ lvgl/src/lv_themes/lv_theme_mono.c:0:60
	movs	r0, #0
	.loc	13 125 60                       @ lvgl/src/lv_themes/lv_theme_mono.c:125:60
	strb.w	r0, [sp, #376]
	strb.w	r0, [sp, #377]
	strb.w	r0, [sp, #378]
	movs	r0, #255
	strb.w	r0, [sp, #379]
	b	.LBB1_39
.LBB1_39:
	.loc	13 125 5                        @ lvgl/src/lv_themes/lv_theme_mono.c:125:5
	ldr	r0, [sp, #156]                  @ 4-byte Reload
	ldr	r2, [sp, #376]
	movs	r1, #0
	bl	lv_style_set_line_color
	.loc	13 126 36 is_stmt 1             @ lvgl/src/lv_themes/lv_theme_mono.c:126:36
	movw	r0, :lower16:styles
	movt	r0, :upper16:styles
	ldr	r0, [r0]
	.loc	13 126 44 is_stmt 0             @ lvgl/src/lv_themes/lv_theme_mono.c:126:44
	adds	r0, #4
	.loc	13 126 66                       @ lvgl/src/lv_themes/lv_theme_mono.c:126:66
	str	r0, [sp, #140]                  @ 4-byte Spill
	movw	r0, :lower16:theme
	movt	r0, :upper16:theme
	ldrb	r0, [r0, #14]
	cbnz	r0, .LBB1_41
	b	.LBB1_40
.LBB1_40:
	.loc	13 0 66                         @ lvgl/src/lv_themes/lv_theme_mono.c:0:66
	movs	r0, #255
	.loc	13 126 66                       @ lvgl/src/lv_themes/lv_theme_mono.c:126:66
	strb.w	r0, [sp, #364]
	strb.w	r0, [sp, #365]
	strb.w	r0, [sp, #366]
	strb.w	r0, [sp, #367]
	b	.LBB1_42
.LBB1_41:
	.loc	13 0 66                         @ lvgl/src/lv_themes/lv_theme_mono.c:0:66
	movs	r0, #0
	.loc	13 126 66                       @ lvgl/src/lv_themes/lv_theme_mono.c:126:66
	strb.w	r0, [sp, #364]
	strb.w	r0, [sp, #365]
	strb.w	r0, [sp, #366]
	movs	r0, #255
	strb.w	r0, [sp, #367]
	b	.LBB1_42
.LBB1_42:
	ldrb.w	r0, [sp, #366]
	cbnz	r0, .LBB1_44
	b	.LBB1_43
.LBB1_43:
	.loc	13 0 66                         @ lvgl/src/lv_themes/lv_theme_mono.c:0:66
	movs	r0, #255
	.loc	13 126 66                       @ lvgl/src/lv_themes/lv_theme_mono.c:126:66
	strb.w	r0, [sp, #368]
	strb.w	r0, [sp, #369]
	strb.w	r0, [sp, #370]
	strb.w	r0, [sp, #371]
	b	.LBB1_45
.LBB1_44:
	.loc	13 0 66                         @ lvgl/src/lv_themes/lv_theme_mono.c:0:66
	movs	r0, #0
	.loc	13 126 66                       @ lvgl/src/lv_themes/lv_theme_mono.c:126:66
	strb.w	r0, [sp, #368]
	strb.w	r0, [sp, #369]
	strb.w	r0, [sp, #370]
	movs	r0, #255
	strb.w	r0, [sp, #371]
	b	.LBB1_45
.LBB1_45:
	.loc	13 126 5                        @ lvgl/src/lv_themes/lv_theme_mono.c:126:5
	ldr	r0, [sp, #140]                  @ 4-byte Reload
	ldr	r2, [sp, #368]
	movs	r1, #0
	bl	lv_style_set_scale_grad_color
	.loc	13 127 35 is_stmt 1             @ lvgl/src/lv_themes/lv_theme_mono.c:127:35
	movw	r0, :lower16:styles
	movt	r0, :upper16:styles
	ldr	r0, [r0]
	.loc	13 127 43 is_stmt 0             @ lvgl/src/lv_themes/lv_theme_mono.c:127:43
	adds	r0, #4
	.loc	13 127 65                       @ lvgl/src/lv_themes/lv_theme_mono.c:127:65
	str	r0, [sp, #136]                  @ 4-byte Spill
	movw	r0, :lower16:theme
	movt	r0, :upper16:theme
	ldrb	r0, [r0, #14]
	cbnz	r0, .LBB1_47
	b	.LBB1_46
.LBB1_46:
	.loc	13 0 65                         @ lvgl/src/lv_themes/lv_theme_mono.c:0:65
	movs	r0, #255
	.loc	13 127 65                       @ lvgl/src/lv_themes/lv_theme_mono.c:127:65
	strb.w	r0, [sp, #356]
	strb.w	r0, [sp, #357]
	strb.w	r0, [sp, #358]
	strb.w	r0, [sp, #359]
	b	.LBB1_48
.LBB1_47:
	.loc	13 0 65                         @ lvgl/src/lv_themes/lv_theme_mono.c:0:65
	movs	r0, #0
	.loc	13 127 65                       @ lvgl/src/lv_themes/lv_theme_mono.c:127:65
	strb.w	r0, [sp, #356]
	strb.w	r0, [sp, #357]
	strb.w	r0, [sp, #358]
	movs	r0, #255
	strb.w	r0, [sp, #359]
	b	.LBB1_48
.LBB1_48:
	ldrb.w	r0, [sp, #358]
	cbnz	r0, .LBB1_50
	b	.LBB1_49
.LBB1_49:
	.loc	13 0 65                         @ lvgl/src/lv_themes/lv_theme_mono.c:0:65
	movs	r0, #255
	.loc	13 127 65                       @ lvgl/src/lv_themes/lv_theme_mono.c:127:65
	strb.w	r0, [sp, #360]
	strb.w	r0, [sp, #361]
	strb.w	r0, [sp, #362]
	strb.w	r0, [sp, #363]
	b	.LBB1_51
.LBB1_50:
	.loc	13 0 65                         @ lvgl/src/lv_themes/lv_theme_mono.c:0:65
	movs	r0, #0
	.loc	13 127 65                       @ lvgl/src/lv_themes/lv_theme_mono.c:127:65
	strb.w	r0, [sp, #360]
	strb.w	r0, [sp, #361]
	strb.w	r0, [sp, #362]
	movs	r0, #255
	strb.w	r0, [sp, #363]
	b	.LBB1_51
.LBB1_51:
	.loc	13 127 5                        @ lvgl/src/lv_themes/lv_theme_mono.c:127:5
	ldr	r0, [sp, #136]                  @ 4-byte Reload
	ldr	r2, [sp, #360]
	movs	r1, #0
	bl	lv_style_set_scale_end_color
	.loc	13 128 30 is_stmt 1             @ lvgl/src/lv_themes/lv_theme_mono.c:128:30
	movw	r0, :lower16:styles
	movt	r0, :upper16:styles
	ldr	r0, [r0]
	.loc	13 128 38 is_stmt 0             @ lvgl/src/lv_themes/lv_theme_mono.c:128:38
	adds	r0, #4
	.loc	13 128 60                       @ lvgl/src/lv_themes/lv_theme_mono.c:128:60
	str	r0, [sp, #132]                  @ 4-byte Spill
	movw	r0, :lower16:theme
	movt	r0, :upper16:theme
	ldrb	r0, [r0, #14]
	cbnz	r0, .LBB1_53
	b	.LBB1_52
.LBB1_52:
	.loc	13 0 60                         @ lvgl/src/lv_themes/lv_theme_mono.c:0:60
	movs	r0, #255
	.loc	13 128 60                       @ lvgl/src/lv_themes/lv_theme_mono.c:128:60
	strb.w	r0, [sp, #348]
	strb.w	r0, [sp, #349]
	strb.w	r0, [sp, #350]
	strb.w	r0, [sp, #351]
	b	.LBB1_54
.LBB1_53:
	.loc	13 0 60                         @ lvgl/src/lv_themes/lv_theme_mono.c:0:60
	movs	r0, #0
	.loc	13 128 60                       @ lvgl/src/lv_themes/lv_theme_mono.c:128:60
	strb.w	r0, [sp, #348]
	strb.w	r0, [sp, #349]
	strb.w	r0, [sp, #350]
	movs	r0, #255
	strb.w	r0, [sp, #351]
	b	.LBB1_54
.LBB1_54:
	ldrb.w	r0, [sp, #350]
	cbnz	r0, .LBB1_56
	b	.LBB1_55
.LBB1_55:
	.loc	13 0 60                         @ lvgl/src/lv_themes/lv_theme_mono.c:0:60
	movs	r0, #255
	.loc	13 128 60                       @ lvgl/src/lv_themes/lv_theme_mono.c:128:60
	strb.w	r0, [sp, #352]
	strb.w	r0, [sp, #353]
	strb.w	r0, [sp, #354]
	strb.w	r0, [sp, #355]
	b	.LBB1_57
.LBB1_56:
	.loc	13 0 60                         @ lvgl/src/lv_themes/lv_theme_mono.c:0:60
	movs	r0, #0
	.loc	13 128 60                       @ lvgl/src/lv_themes/lv_theme_mono.c:128:60
	strb.w	r0, [sp, #352]
	strb.w	r0, [sp, #353]
	strb.w	r0, [sp, #354]
	movs	r0, #255
	strb.w	r0, [sp, #355]
	b	.LBB1_57
.LBB1_57:
	.loc	13 128 5                        @ lvgl/src/lv_themes/lv_theme_mono.c:128:5
	ldr	r0, [sp, #132]                  @ 4-byte Reload
	ldr	r2, [sp, #352]
	movs	r1, #0
	bl	lv_style_set_text_color
	.loc	13 129 31 is_stmt 1             @ lvgl/src/lv_themes/lv_theme_mono.c:129:31
	movw	r0, :lower16:styles
	movt	r0, :upper16:styles
	ldr	r0, [r0]
	.loc	13 129 39 is_stmt 0             @ lvgl/src/lv_themes/lv_theme_mono.c:129:39
	adds	r0, #4
	.loc	13 129 61                       @ lvgl/src/lv_themes/lv_theme_mono.c:129:61
	str	r0, [sp, #128]                  @ 4-byte Spill
	movw	r0, :lower16:theme
	movt	r0, :upper16:theme
	ldrb	r0, [r0, #14]
	cbnz	r0, .LBB1_59
	b	.LBB1_58
.LBB1_58:
	.loc	13 0 61                         @ lvgl/src/lv_themes/lv_theme_mono.c:0:61
	movs	r0, #255
	.loc	13 129 61                       @ lvgl/src/lv_themes/lv_theme_mono.c:129:61
	strb.w	r0, [sp, #340]
	strb.w	r0, [sp, #341]
	strb.w	r0, [sp, #342]
	strb.w	r0, [sp, #343]
	b	.LBB1_60
.LBB1_59:
	.loc	13 0 61                         @ lvgl/src/lv_themes/lv_theme_mono.c:0:61
	movs	r0, #0
	.loc	13 129 61                       @ lvgl/src/lv_themes/lv_theme_mono.c:129:61
	strb.w	r0, [sp, #340]
	strb.w	r0, [sp, #341]
	strb.w	r0, [sp, #342]
	movs	r0, #255
	strb.w	r0, [sp, #343]
	b	.LBB1_60
.LBB1_60:
	ldrb.w	r0, [sp, #342]
	cbnz	r0, .LBB1_62
	b	.LBB1_61
.LBB1_61:
	.loc	13 0 61                         @ lvgl/src/lv_themes/lv_theme_mono.c:0:61
	movs	r0, #255
	.loc	13 129 61                       @ lvgl/src/lv_themes/lv_theme_mono.c:129:61
	strb.w	r0, [sp, #344]
	strb.w	r0, [sp, #345]
	strb.w	r0, [sp, #346]
	strb.w	r0, [sp, #347]
	b	.LBB1_63
.LBB1_62:
	.loc	13 0 61                         @ lvgl/src/lv_themes/lv_theme_mono.c:0:61
	movs	r0, #0
	.loc	13 129 61                       @ lvgl/src/lv_themes/lv_theme_mono.c:129:61
	strb.w	r0, [sp, #344]
	strb.w	r0, [sp, #345]
	strb.w	r0, [sp, #346]
	movs	r0, #255
	strb.w	r0, [sp, #347]
	b	.LBB1_63
.LBB1_63:
	.loc	13 129 5                        @ lvgl/src/lv_themes/lv_theme_mono.c:129:5
	ldr	r0, [sp, #128]                  @ 4-byte Reload
	ldr	r2, [sp, #344]
	movs	r1, #0
	str	r1, [sp, #108]                  @ 4-byte Spill
	bl	lv_style_set_value_color
	ldr	r1, [sp, #108]                  @ 4-byte Reload
	.loc	13 130 28 is_stmt 1             @ lvgl/src/lv_themes/lv_theme_mono.c:130:28
	movw	r0, :lower16:styles
	movt	r0, :upper16:styles
	str	r0, [sp, #120]                  @ 4-byte Spill
	ldr	r0, [r0]
	.loc	13 130 36 is_stmt 0             @ lvgl/src/lv_themes/lv_theme_mono.c:130:36
	adds	r0, #4
	movs	r2, #13
	.loc	13 130 5                        @ lvgl/src/lv_themes/lv_theme_mono.c:130:5
	str	r2, [sp, #104]                  @ 4-byte Spill
	bl	lv_style_set_pad_left
	ldr	r2, [sp, #104]                  @ 4-byte Reload
	ldr	r1, [sp, #108]                  @ 4-byte Reload
	ldr	r0, [sp, #120]                  @ 4-byte Reload
	.loc	13 131 29 is_stmt 1             @ lvgl/src/lv_themes/lv_theme_mono.c:131:29
	ldr	r0, [r0]
	.loc	13 131 37 is_stmt 0             @ lvgl/src/lv_themes/lv_theme_mono.c:131:37
	adds	r0, #4
	.loc	13 131 5                        @ lvgl/src/lv_themes/lv_theme_mono.c:131:5
	bl	lv_style_set_pad_right
	ldr	r2, [sp, #104]                  @ 4-byte Reload
	ldr	r1, [sp, #108]                  @ 4-byte Reload
	ldr	r0, [sp, #120]                  @ 4-byte Reload
	.loc	13 132 27 is_stmt 1             @ lvgl/src/lv_themes/lv_theme_mono.c:132:27
	ldr	r0, [r0]
	.loc	13 132 35 is_stmt 0             @ lvgl/src/lv_themes/lv_theme_mono.c:132:35
	adds	r0, #4
	.loc	13 132 5                        @ lvgl/src/lv_themes/lv_theme_mono.c:132:5
	bl	lv_style_set_pad_top
	ldr	r2, [sp, #104]                  @ 4-byte Reload
	ldr	r1, [sp, #108]                  @ 4-byte Reload
	ldr	r0, [sp, #120]                  @ 4-byte Reload
	.loc	13 133 30 is_stmt 1             @ lvgl/src/lv_themes/lv_theme_mono.c:133:30
	ldr	r0, [r0]
	.loc	13 133 38 is_stmt 0             @ lvgl/src/lv_themes/lv_theme_mono.c:133:38
	adds	r0, #4
	.loc	13 133 5                        @ lvgl/src/lv_themes/lv_theme_mono.c:133:5
	bl	lv_style_set_pad_bottom
	ldr	r2, [sp, #104]                  @ 4-byte Reload
	ldr	r1, [sp, #108]                  @ 4-byte Reload
	ldr	r0, [sp, #120]                  @ 4-byte Reload
	.loc	13 134 29 is_stmt 1             @ lvgl/src/lv_themes/lv_theme_mono.c:134:29
	ldr	r0, [r0]
	.loc	13 134 37 is_stmt 0             @ lvgl/src/lv_themes/lv_theme_mono.c:134:37
	adds	r0, #4
	.loc	13 134 5                        @ lvgl/src/lv_themes/lv_theme_mono.c:134:5
	bl	lv_style_set_pad_inner
	ldr	r0, [sp, #120]                  @ 4-byte Reload
	.loc	13 136 21 is_stmt 1             @ lvgl/src/lv_themes/lv_theme_mono.c:136:21
	ldr	r0, [r0]
	.loc	13 136 29 is_stmt 0             @ lvgl/src/lv_themes/lv_theme_mono.c:136:29
	adds	r0, #8
	.loc	13 136 5                        @ lvgl/src/lv_themes/lv_theme_mono.c:136:5
	bl	lv_style_reset
	ldr	r1, [sp, #108]                  @ 4-byte Reload
	ldr	r0, [sp, #120]                  @ 4-byte Reload
	.loc	13 137 31 is_stmt 1             @ lvgl/src/lv_themes/lv_theme_mono.c:137:31
	ldr	r0, [r0]
	.loc	13 137 39 is_stmt 0             @ lvgl/src/lv_themes/lv_theme_mono.c:137:39
	adds	r0, #8
	movs	r2, #1
	.loc	13 137 5                        @ lvgl/src/lv_themes/lv_theme_mono.c:137:5
	bl	lv_style_set_clip_corner
	ldr	r0, [sp, #120]                  @ 4-byte Reload
	.loc	13 139 21 is_stmt 1             @ lvgl/src/lv_themes/lv_theme_mono.c:139:21
	ldr	r0, [r0]
	.loc	13 139 29 is_stmt 0             @ lvgl/src/lv_themes/lv_theme_mono.c:139:29
	adds	r0, #12
	.loc	13 139 5                        @ lvgl/src/lv_themes/lv_theme_mono.c:139:5
	bl	lv_style_reset
	ldr	r1, [sp, #108]                  @ 4-byte Reload
	ldr	r0, [sp, #120]                  @ 4-byte Reload
	.loc	13 140 26 is_stmt 1             @ lvgl/src/lv_themes/lv_theme_mono.c:140:26
	ldr	r0, [r0]
	.loc	13 140 34 is_stmt 0             @ lvgl/src/lv_themes/lv_theme_mono.c:140:34
	adds	r0, #12
	movs	r2, #4
	.loc	13 140 5                        @ lvgl/src/lv_themes/lv_theme_mono.c:140:5
	str	r2, [sp, #116]                  @ 4-byte Spill
	bl	lv_style_set_radius
	ldr	r1, [sp, #108]                  @ 4-byte Reload
	ldr	r0, [sp, #120]                  @ 4-byte Reload
	.loc	13 141 32 is_stmt 1             @ lvgl/src/lv_themes/lv_theme_mono.c:141:32
	ldr	r0, [r0]
	.loc	13 141 40 is_stmt 0             @ lvgl/src/lv_themes/lv_theme_mono.c:141:40
	adds	r0, #12
	movs	r2, #2
	.loc	13 141 5                        @ lvgl/src/lv_themes/lv_theme_mono.c:141:5
	str	r2, [sp, #112]                  @ 4-byte Spill
	bl	lv_style_set_border_width
	ldr	r1, [sp, #112]                  @ 4-byte Reload
	ldr	r0, [sp, #120]                  @ 4-byte Reload
	.loc	13 142 32 is_stmt 1             @ lvgl/src/lv_themes/lv_theme_mono.c:142:32
	ldr	r0, [r0]
	.loc	13 142 40 is_stmt 0             @ lvgl/src/lv_themes/lv_theme_mono.c:142:40
	adds	r0, #12
	movs	r2, #3
	.loc	13 142 5                        @ lvgl/src/lv_themes/lv_theme_mono.c:142:5
	bl	lv_style_set_border_width
	ldr	r2, [sp, #116]                  @ 4-byte Reload
	ldr	r0, [sp, #120]                  @ 4-byte Reload
	.loc	13 143 32 is_stmt 1             @ lvgl/src/lv_themes/lv_theme_mono.c:143:32
	ldr	r0, [r0]
	.loc	13 143 40 is_stmt 0             @ lvgl/src/lv_themes/lv_theme_mono.c:143:40
	adds	r0, #12
	movs	r1, #6
	.loc	13 143 5                        @ lvgl/src/lv_themes/lv_theme_mono.c:143:5
	bl	lv_style_set_border_width
	ldr	r0, [sp, #120]                  @ 4-byte Reload
	.loc	13 144 32 is_stmt 1             @ lvgl/src/lv_themes/lv_theme_mono.c:144:32
	ldr	r0, [r0]
	.loc	13 144 40 is_stmt 0             @ lvgl/src/lv_themes/lv_theme_mono.c:144:40
	adds	r0, #12
	.loc	13 144 63                       @ lvgl/src/lv_themes/lv_theme_mono.c:144:63
	str	r0, [sp, #124]                  @ 4-byte Spill
	movw	r0, :lower16:theme
	movt	r0, :upper16:theme
	ldrb	r0, [r0, #14]
	cbnz	r0, .LBB1_65
	b	.LBB1_64
.LBB1_64:
	.loc	13 0 63                         @ lvgl/src/lv_themes/lv_theme_mono.c:0:63
	movs	r0, #255
	.loc	13 144 63                       @ lvgl/src/lv_themes/lv_theme_mono.c:144:63
	strb.w	r0, [sp, #332]
	strb.w	r0, [sp, #333]
	strb.w	r0, [sp, #334]
	strb.w	r0, [sp, #335]
	b	.LBB1_66
.LBB1_65:
	.loc	13 0 63                         @ lvgl/src/lv_themes/lv_theme_mono.c:0:63
	movs	r0, #0
	.loc	13 144 63                       @ lvgl/src/lv_themes/lv_theme_mono.c:144:63
	strb.w	r0, [sp, #332]
	strb.w	r0, [sp, #333]
	strb.w	r0, [sp, #334]
	movs	r0, #255
	strb.w	r0, [sp, #335]
	b	.LBB1_66
.LBB1_66:
	ldrb.w	r0, [sp, #334]
	cbnz	r0, .LBB1_68
	b	.LBB1_67
.LBB1_67:
	.loc	13 0 63                         @ lvgl/src/lv_themes/lv_theme_mono.c:0:63
	movs	r0, #255
	.loc	13 144 63                       @ lvgl/src/lv_themes/lv_theme_mono.c:144:63
	strb.w	r0, [sp, #336]
	strb.w	r0, [sp, #337]
	strb.w	r0, [sp, #338]
	strb.w	r0, [sp, #339]
	b	.LBB1_69
.LBB1_68:
	.loc	13 0 63                         @ lvgl/src/lv_themes/lv_theme_mono.c:0:63
	movs	r0, #0
	.loc	13 144 63                       @ lvgl/src/lv_themes/lv_theme_mono.c:144:63
	strb.w	r0, [sp, #336]
	strb.w	r0, [sp, #337]
	strb.w	r0, [sp, #338]
	movs	r0, #255
	strb.w	r0, [sp, #339]
	b	.LBB1_69
.LBB1_69:
	.loc	13 144 5                        @ lvgl/src/lv_themes/lv_theme_mono.c:144:5
	ldr	r0, [sp, #124]                  @ 4-byte Reload
	ldr	r2, [sp, #336]
	movs	r1, #0
	bl	lv_style_set_border_color
	.loc	13 145 28 is_stmt 1             @ lvgl/src/lv_themes/lv_theme_mono.c:145:28
	movw	r0, :lower16:styles
	movt	r0, :upper16:styles
	ldr	r0, [r0]
	.loc	13 145 36 is_stmt 0             @ lvgl/src/lv_themes/lv_theme_mono.c:145:36
	adds	r0, #12
	.loc	13 145 59                       @ lvgl/src/lv_themes/lv_theme_mono.c:145:59
	str	r0, [sp, #100]                  @ 4-byte Spill
	movw	r0, :lower16:theme
	movt	r0, :upper16:theme
	ldrb	r0, [r0, #14]
	cbnz	r0, .LBB1_71
	b	.LBB1_70
.LBB1_70:
	.loc	13 0 59                         @ lvgl/src/lv_themes/lv_theme_mono.c:0:59
	movs	r0, #255
	.loc	13 145 59                       @ lvgl/src/lv_themes/lv_theme_mono.c:145:59
	strb.w	r0, [sp, #328]
	strb.w	r0, [sp, #329]
	strb.w	r0, [sp, #330]
	strb.w	r0, [sp, #331]
	b	.LBB1_72
.LBB1_71:
	.loc	13 0 59                         @ lvgl/src/lv_themes/lv_theme_mono.c:0:59
	movs	r0, #0
	.loc	13 145 59                       @ lvgl/src/lv_themes/lv_theme_mono.c:145:59
	strb.w	r0, [sp, #328]
	strb.w	r0, [sp, #329]
	strb.w	r0, [sp, #330]
	movs	r0, #255
	strb.w	r0, [sp, #331]
	b	.LBB1_72
.LBB1_72:
	.loc	13 145 5                        @ lvgl/src/lv_themes/lv_theme_mono.c:145:5
	ldr	r0, [sp, #100]                  @ 4-byte Reload
	ldr	r2, [sp, #328]
	movs	r1, #0
	bl	lv_style_set_bg_color
	.loc	13 146 28 is_stmt 1             @ lvgl/src/lv_themes/lv_theme_mono.c:146:28
	movw	r0, :lower16:styles
	movt	r0, :upper16:styles
	ldr	r0, [r0]
	.loc	13 146 36 is_stmt 0             @ lvgl/src/lv_themes/lv_theme_mono.c:146:36
	adds	r0, #12
	.loc	13 146 59                       @ lvgl/src/lv_themes/lv_theme_mono.c:146:59
	str	r0, [sp, #96]                   @ 4-byte Spill
	movw	r0, :lower16:theme
	movt	r0, :upper16:theme
	ldrb	r0, [r0, #14]
	cbnz	r0, .LBB1_74
	b	.LBB1_73
.LBB1_73:
	.loc	13 0 59                         @ lvgl/src/lv_themes/lv_theme_mono.c:0:59
	movs	r0, #255
	.loc	13 146 59                       @ lvgl/src/lv_themes/lv_theme_mono.c:146:59
	strb.w	r0, [sp, #320]
	strb.w	r0, [sp, #321]
	strb.w	r0, [sp, #322]
	strb.w	r0, [sp, #323]
	b	.LBB1_75
.LBB1_74:
	.loc	13 0 59                         @ lvgl/src/lv_themes/lv_theme_mono.c:0:59
	movs	r0, #0
	.loc	13 146 59                       @ lvgl/src/lv_themes/lv_theme_mono.c:146:59
	strb.w	r0, [sp, #320]
	strb.w	r0, [sp, #321]
	strb.w	r0, [sp, #322]
	movs	r0, #255
	strb.w	r0, [sp, #323]
	b	.LBB1_75
.LBB1_75:
	ldrb.w	r0, [sp, #322]
	cbnz	r0, .LBB1_77
	b	.LBB1_76
.LBB1_76:
	.loc	13 0 59                         @ lvgl/src/lv_themes/lv_theme_mono.c:0:59
	movs	r0, #255
	.loc	13 146 59                       @ lvgl/src/lv_themes/lv_theme_mono.c:146:59
	strb.w	r0, [sp, #324]
	strb.w	r0, [sp, #325]
	strb.w	r0, [sp, #326]
	strb.w	r0, [sp, #327]
	b	.LBB1_78
.LBB1_77:
	.loc	13 0 59                         @ lvgl/src/lv_themes/lv_theme_mono.c:0:59
	movs	r0, #0
	.loc	13 146 59                       @ lvgl/src/lv_themes/lv_theme_mono.c:146:59
	strb.w	r0, [sp, #324]
	strb.w	r0, [sp, #325]
	strb.w	r0, [sp, #326]
	movs	r0, #255
	strb.w	r0, [sp, #327]
	b	.LBB1_78
.LBB1_78:
	.loc	13 146 5                        @ lvgl/src/lv_themes/lv_theme_mono.c:146:5
	ldr	r0, [sp, #96]                   @ 4-byte Reload
	ldr	r2, [sp, #324]
	movs	r1, #16
	bl	lv_style_set_bg_color
	.loc	13 147 28 is_stmt 1             @ lvgl/src/lv_themes/lv_theme_mono.c:147:28
	movw	r0, :lower16:styles
	movt	r0, :upper16:styles
	ldr	r0, [r0]
	.loc	13 147 36 is_stmt 0             @ lvgl/src/lv_themes/lv_theme_mono.c:147:36
	adds	r0, #12
	.loc	13 147 59                       @ lvgl/src/lv_themes/lv_theme_mono.c:147:59
	str	r0, [sp, #92]                   @ 4-byte Spill
	movw	r0, :lower16:theme
	movt	r0, :upper16:theme
	ldrb	r0, [r0, #14]
	cbnz	r0, .LBB1_80
	b	.LBB1_79
.LBB1_79:
	.loc	13 0 59                         @ lvgl/src/lv_themes/lv_theme_mono.c:0:59
	movs	r0, #255
	.loc	13 147 59                       @ lvgl/src/lv_themes/lv_theme_mono.c:147:59
	strb.w	r0, [sp, #312]
	strb.w	r0, [sp, #313]
	strb.w	r0, [sp, #314]
	strb.w	r0, [sp, #315]
	b	.LBB1_81
.LBB1_80:
	.loc	13 0 59                         @ lvgl/src/lv_themes/lv_theme_mono.c:0:59
	movs	r0, #0
	.loc	13 147 59                       @ lvgl/src/lv_themes/lv_theme_mono.c:147:59
	strb.w	r0, [sp, #312]
	strb.w	r0, [sp, #313]
	strb.w	r0, [sp, #314]
	movs	r0, #255
	strb.w	r0, [sp, #315]
	b	.LBB1_81
.LBB1_81:
	ldrb.w	r0, [sp, #314]
	cbnz	r0, .LBB1_83
	b	.LBB1_82
.LBB1_82:
	.loc	13 0 59                         @ lvgl/src/lv_themes/lv_theme_mono.c:0:59
	movs	r0, #255
	.loc	13 147 59                       @ lvgl/src/lv_themes/lv_theme_mono.c:147:59
	strb.w	r0, [sp, #316]
	strb.w	r0, [sp, #317]
	strb.w	r0, [sp, #318]
	strb.w	r0, [sp, #319]
	b	.LBB1_84
.LBB1_83:
	.loc	13 0 59                         @ lvgl/src/lv_themes/lv_theme_mono.c:0:59
	movs	r0, #0
	.loc	13 147 59                       @ lvgl/src/lv_themes/lv_theme_mono.c:147:59
	strb.w	r0, [sp, #316]
	strb.w	r0, [sp, #317]
	strb.w	r0, [sp, #318]
	movs	r0, #255
	strb.w	r0, [sp, #319]
	b	.LBB1_84
.LBB1_84:
	.loc	13 147 5                        @ lvgl/src/lv_themes/lv_theme_mono.c:147:5
	ldr	r0, [sp, #92]                   @ 4-byte Reload
	ldr	r2, [sp, #316]
	movs	r1, #1
	bl	lv_style_set_bg_color
	.loc	13 148 28 is_stmt 1             @ lvgl/src/lv_themes/lv_theme_mono.c:148:28
	movw	r0, :lower16:styles
	movt	r0, :upper16:styles
	ldr	r0, [r0]
	.loc	13 148 36 is_stmt 0             @ lvgl/src/lv_themes/lv_theme_mono.c:148:36
	adds	r0, #12
	.loc	13 148 78                       @ lvgl/src/lv_themes/lv_theme_mono.c:148:78
	str	r0, [sp, #88]                   @ 4-byte Spill
	movw	r0, :lower16:theme
	movt	r0, :upper16:theme
	ldrb	r0, [r0, #14]
	cbnz	r0, .LBB1_86
	b	.LBB1_85
.LBB1_85:
	.loc	13 0 78                         @ lvgl/src/lv_themes/lv_theme_mono.c:0:78
	movs	r0, #255
	.loc	13 148 78                       @ lvgl/src/lv_themes/lv_theme_mono.c:148:78
	strb.w	r0, [sp, #308]
	strb.w	r0, [sp, #309]
	strb.w	r0, [sp, #310]
	strb.w	r0, [sp, #311]
	b	.LBB1_87
.LBB1_86:
	.loc	13 0 78                         @ lvgl/src/lv_themes/lv_theme_mono.c:0:78
	movs	r0, #0
	.loc	13 148 78                       @ lvgl/src/lv_themes/lv_theme_mono.c:148:78
	strb.w	r0, [sp, #308]
	strb.w	r0, [sp, #309]
	strb.w	r0, [sp, #310]
	movs	r0, #255
	strb.w	r0, [sp, #311]
	b	.LBB1_87
.LBB1_87:
	.loc	13 148 5                        @ lvgl/src/lv_themes/lv_theme_mono.c:148:5
	ldr	r0, [sp, #88]                   @ 4-byte Reload
	ldr	r2, [sp, #308]
	movs	r1, #17
	bl	lv_style_set_bg_color
	.loc	13 149 30 is_stmt 1             @ lvgl/src/lv_themes/lv_theme_mono.c:149:30
	movw	r0, :lower16:styles
	movt	r0, :upper16:styles
	ldr	r0, [r0]
	.loc	13 149 38 is_stmt 0             @ lvgl/src/lv_themes/lv_theme_mono.c:149:38
	adds	r0, #12
	.loc	13 149 61                       @ lvgl/src/lv_themes/lv_theme_mono.c:149:61
	str	r0, [sp, #84]                   @ 4-byte Spill
	movw	r0, :lower16:theme
	movt	r0, :upper16:theme
	ldrb	r0, [r0, #14]
	cbnz	r0, .LBB1_89
	b	.LBB1_88
.LBB1_88:
	.loc	13 0 61                         @ lvgl/src/lv_themes/lv_theme_mono.c:0:61
	movs	r0, #255
	.loc	13 149 61                       @ lvgl/src/lv_themes/lv_theme_mono.c:149:61
	strb.w	r0, [sp, #300]
	strb.w	r0, [sp, #301]
	strb.w	r0, [sp, #302]
	strb.w	r0, [sp, #303]
	b	.LBB1_90
.LBB1_89:
	.loc	13 0 61                         @ lvgl/src/lv_themes/lv_theme_mono.c:0:61
	movs	r0, #0
	.loc	13 149 61                       @ lvgl/src/lv_themes/lv_theme_mono.c:149:61
	strb.w	r0, [sp, #300]
	strb.w	r0, [sp, #301]
	strb.w	r0, [sp, #302]
	movs	r0, #255
	strb.w	r0, [sp, #303]
	b	.LBB1_90
.LBB1_90:
	ldrb.w	r0, [sp, #302]
	cbnz	r0, .LBB1_92
	b	.LBB1_91
.LBB1_91:
	.loc	13 0 61                         @ lvgl/src/lv_themes/lv_theme_mono.c:0:61
	movs	r0, #255
	.loc	13 149 61                       @ lvgl/src/lv_themes/lv_theme_mono.c:149:61
	strb.w	r0, [sp, #304]
	strb.w	r0, [sp, #305]
	strb.w	r0, [sp, #306]
	strb.w	r0, [sp, #307]
	b	.LBB1_93
.LBB1_92:
	.loc	13 0 61                         @ lvgl/src/lv_themes/lv_theme_mono.c:0:61
	movs	r0, #0
	.loc	13 149 61                       @ lvgl/src/lv_themes/lv_theme_mono.c:149:61
	strb.w	r0, [sp, #304]
	strb.w	r0, [sp, #305]
	strb.w	r0, [sp, #306]
	movs	r0, #255
	strb.w	r0, [sp, #307]
	b	.LBB1_93
.LBB1_93:
	.loc	13 149 5                        @ lvgl/src/lv_themes/lv_theme_mono.c:149:5
	ldr	r0, [sp, #84]                   @ 4-byte Reload
	ldr	r2, [sp, #304]
	movs	r1, #0
	bl	lv_style_set_text_color
	.loc	13 150 30 is_stmt 1             @ lvgl/src/lv_themes/lv_theme_mono.c:150:30
	movw	r0, :lower16:styles
	movt	r0, :upper16:styles
	ldr	r0, [r0]
	.loc	13 150 38 is_stmt 0             @ lvgl/src/lv_themes/lv_theme_mono.c:150:38
	adds	r0, #12
	.loc	13 150 61                       @ lvgl/src/lv_themes/lv_theme_mono.c:150:61
	str	r0, [sp, #80]                   @ 4-byte Spill
	movw	r0, :lower16:theme
	movt	r0, :upper16:theme
	ldrb	r0, [r0, #14]
	cbnz	r0, .LBB1_95
	b	.LBB1_94
.LBB1_94:
	.loc	13 0 61                         @ lvgl/src/lv_themes/lv_theme_mono.c:0:61
	movs	r0, #255
	.loc	13 150 61                       @ lvgl/src/lv_themes/lv_theme_mono.c:150:61
	strb.w	r0, [sp, #296]
	strb.w	r0, [sp, #297]
	strb.w	r0, [sp, #298]
	strb.w	r0, [sp, #299]
	b	.LBB1_96
.LBB1_95:
	.loc	13 0 61                         @ lvgl/src/lv_themes/lv_theme_mono.c:0:61
	movs	r0, #0
	.loc	13 150 61                       @ lvgl/src/lv_themes/lv_theme_mono.c:150:61
	strb.w	r0, [sp, #296]
	strb.w	r0, [sp, #297]
	strb.w	r0, [sp, #298]
	movs	r0, #255
	strb.w	r0, [sp, #299]
	b	.LBB1_96
.LBB1_96:
	.loc	13 150 5                        @ lvgl/src/lv_themes/lv_theme_mono.c:150:5
	ldr	r0, [sp, #80]                   @ 4-byte Reload
	ldr	r2, [sp, #296]
	movs	r1, #16
	bl	lv_style_set_text_color
	.loc	13 151 30 is_stmt 1             @ lvgl/src/lv_themes/lv_theme_mono.c:151:30
	movw	r0, :lower16:styles
	movt	r0, :upper16:styles
	ldr	r0, [r0]
	.loc	13 151 38 is_stmt 0             @ lvgl/src/lv_themes/lv_theme_mono.c:151:38
	adds	r0, #12
	.loc	13 151 61                       @ lvgl/src/lv_themes/lv_theme_mono.c:151:61
	str	r0, [sp, #76]                   @ 4-byte Spill
	movw	r0, :lower16:theme
	movt	r0, :upper16:theme
	ldrb	r0, [r0, #14]
	cbnz	r0, .LBB1_98
	b	.LBB1_97
.LBB1_97:
	.loc	13 0 61                         @ lvgl/src/lv_themes/lv_theme_mono.c:0:61
	movs	r0, #255
	.loc	13 151 61                       @ lvgl/src/lv_themes/lv_theme_mono.c:151:61
	strb.w	r0, [sp, #292]
	strb.w	r0, [sp, #293]
	strb.w	r0, [sp, #294]
	strb.w	r0, [sp, #295]
	b	.LBB1_99
.LBB1_98:
	.loc	13 0 61                         @ lvgl/src/lv_themes/lv_theme_mono.c:0:61
	movs	r0, #0
	.loc	13 151 61                       @ lvgl/src/lv_themes/lv_theme_mono.c:151:61
	strb.w	r0, [sp, #292]
	strb.w	r0, [sp, #293]
	strb.w	r0, [sp, #294]
	movs	r0, #255
	strb.w	r0, [sp, #295]
	b	.LBB1_99
.LBB1_99:
	.loc	13 151 5                        @ lvgl/src/lv_themes/lv_theme_mono.c:151:5
	ldr	r0, [sp, #76]                   @ 4-byte Reload
	ldr	r2, [sp, #292]
	movs	r1, #1
	bl	lv_style_set_text_color
	.loc	13 152 30 is_stmt 1             @ lvgl/src/lv_themes/lv_theme_mono.c:152:30
	movw	r0, :lower16:styles
	movt	r0, :upper16:styles
	ldr	r0, [r0]
	.loc	13 152 38 is_stmt 0             @ lvgl/src/lv_themes/lv_theme_mono.c:152:38
	adds	r0, #12
	.loc	13 152 80                       @ lvgl/src/lv_themes/lv_theme_mono.c:152:80
	str	r0, [sp, #72]                   @ 4-byte Spill
	movw	r0, :lower16:theme
	movt	r0, :upper16:theme
	ldrb	r0, [r0, #14]
	cbnz	r0, .LBB1_101
	b	.LBB1_100
.LBB1_100:
	.loc	13 0 80                         @ lvgl/src/lv_themes/lv_theme_mono.c:0:80
	movs	r0, #255
	.loc	13 152 80                       @ lvgl/src/lv_themes/lv_theme_mono.c:152:80
	strb.w	r0, [sp, #284]
	strb.w	r0, [sp, #285]
	strb.w	r0, [sp, #286]
	strb.w	r0, [sp, #287]
	b	.LBB1_102
.LBB1_101:
	.loc	13 0 80                         @ lvgl/src/lv_themes/lv_theme_mono.c:0:80
	movs	r0, #0
	.loc	13 152 80                       @ lvgl/src/lv_themes/lv_theme_mono.c:152:80
	strb.w	r0, [sp, #284]
	strb.w	r0, [sp, #285]
	strb.w	r0, [sp, #286]
	movs	r0, #255
	strb.w	r0, [sp, #287]
	b	.LBB1_102
.LBB1_102:
	ldrb.w	r0, [sp, #286]
	cbnz	r0, .LBB1_104
	b	.LBB1_103
.LBB1_103:
	.loc	13 0 80                         @ lvgl/src/lv_themes/lv_theme_mono.c:0:80
	movs	r0, #255
	.loc	13 152 80                       @ lvgl/src/lv_themes/lv_theme_mono.c:152:80
	strb.w	r0, [sp, #288]
	strb.w	r0, [sp, #289]
	strb.w	r0, [sp, #290]
	strb.w	r0, [sp, #291]
	b	.LBB1_105
.LBB1_104:
	.loc	13 0 80                         @ lvgl/src/lv_themes/lv_theme_mono.c:0:80
	movs	r0, #0
	.loc	13 152 80                       @ lvgl/src/lv_themes/lv_theme_mono.c:152:80
	strb.w	r0, [sp, #288]
	strb.w	r0, [sp, #289]
	strb.w	r0, [sp, #290]
	movs	r0, #255
	strb.w	r0, [sp, #291]
	b	.LBB1_105
.LBB1_105:
	.loc	13 152 5                        @ lvgl/src/lv_themes/lv_theme_mono.c:152:5
	ldr	r0, [sp, #72]                   @ 4-byte Reload
	ldr	r2, [sp, #288]
	movs	r1, #17
	bl	lv_style_set_text_color
	.loc	13 153 31 is_stmt 1             @ lvgl/src/lv_themes/lv_theme_mono.c:153:31
	movw	r0, :lower16:styles
	movt	r0, :upper16:styles
	ldr	r0, [r0]
	.loc	13 153 39 is_stmt 0             @ lvgl/src/lv_themes/lv_theme_mono.c:153:39
	adds	r0, #12
	.loc	13 153 62                       @ lvgl/src/lv_themes/lv_theme_mono.c:153:62
	str	r0, [sp, #68]                   @ 4-byte Spill
	movw	r0, :lower16:theme
	movt	r0, :upper16:theme
	ldrb	r0, [r0, #14]
	cbnz	r0, .LBB1_107
	b	.LBB1_106
.LBB1_106:
	.loc	13 0 62                         @ lvgl/src/lv_themes/lv_theme_mono.c:0:62
	movs	r0, #255
	.loc	13 153 62                       @ lvgl/src/lv_themes/lv_theme_mono.c:153:62
	strb.w	r0, [sp, #276]
	strb.w	r0, [sp, #277]
	strb.w	r0, [sp, #278]
	strb.w	r0, [sp, #279]
	b	.LBB1_108
.LBB1_107:
	.loc	13 0 62                         @ lvgl/src/lv_themes/lv_theme_mono.c:0:62
	movs	r0, #0
	.loc	13 153 62                       @ lvgl/src/lv_themes/lv_theme_mono.c:153:62
	strb.w	r0, [sp, #276]
	strb.w	r0, [sp, #277]
	strb.w	r0, [sp, #278]
	movs	r0, #255
	strb.w	r0, [sp, #279]
	b	.LBB1_108
.LBB1_108:
	ldrb.w	r0, [sp, #278]
	cbnz	r0, .LBB1_110
	b	.LBB1_109
.LBB1_109:
	.loc	13 0 62                         @ lvgl/src/lv_themes/lv_theme_mono.c:0:62
	movs	r0, #255
	.loc	13 153 62                       @ lvgl/src/lv_themes/lv_theme_mono.c:153:62
	strb.w	r0, [sp, #280]
	strb.w	r0, [sp, #281]
	strb.w	r0, [sp, #282]
	strb.w	r0, [sp, #283]
	b	.LBB1_111
.LBB1_110:
	.loc	13 0 62                         @ lvgl/src/lv_themes/lv_theme_mono.c:0:62
	movs	r0, #0
	.loc	13 153 62                       @ lvgl/src/lv_themes/lv_theme_mono.c:153:62
	strb.w	r0, [sp, #280]
	strb.w	r0, [sp, #281]
	strb.w	r0, [sp, #282]
	movs	r0, #255
	strb.w	r0, [sp, #283]
	b	.LBB1_111
.LBB1_111:
	.loc	13 153 5                        @ lvgl/src/lv_themes/lv_theme_mono.c:153:5
	ldr	r0, [sp, #68]                   @ 4-byte Reload
	ldr	r2, [sp, #280]
	movs	r1, #0
	bl	lv_style_set_value_color
	.loc	13 154 31 is_stmt 1             @ lvgl/src/lv_themes/lv_theme_mono.c:154:31
	movw	r0, :lower16:styles
	movt	r0, :upper16:styles
	ldr	r0, [r0]
	.loc	13 154 39 is_stmt 0             @ lvgl/src/lv_themes/lv_theme_mono.c:154:39
	adds	r0, #12
	.loc	13 154 62                       @ lvgl/src/lv_themes/lv_theme_mono.c:154:62
	str	r0, [sp, #64]                   @ 4-byte Spill
	movw	r0, :lower16:theme
	movt	r0, :upper16:theme
	ldrb	r0, [r0, #14]
	cbnz	r0, .LBB1_113
	b	.LBB1_112
.LBB1_112:
	.loc	13 0 62                         @ lvgl/src/lv_themes/lv_theme_mono.c:0:62
	movs	r0, #255
	.loc	13 154 62                       @ lvgl/src/lv_themes/lv_theme_mono.c:154:62
	strb.w	r0, [sp, #272]
	strb.w	r0, [sp, #273]
	strb.w	r0, [sp, #274]
	strb.w	r0, [sp, #275]
	b	.LBB1_114
.LBB1_113:
	.loc	13 0 62                         @ lvgl/src/lv_themes/lv_theme_mono.c:0:62
	movs	r0, #0
	.loc	13 154 62                       @ lvgl/src/lv_themes/lv_theme_mono.c:154:62
	strb.w	r0, [sp, #272]
	strb.w	r0, [sp, #273]
	strb.w	r0, [sp, #274]
	movs	r0, #255
	strb.w	r0, [sp, #275]
	b	.LBB1_114
.LBB1_114:
	.loc	13 154 5                        @ lvgl/src/lv_themes/lv_theme_mono.c:154:5
	ldr	r0, [sp, #64]                   @ 4-byte Reload
	ldr	r2, [sp, #272]
	movs	r1, #16
	bl	lv_style_set_value_color
	.loc	13 155 31 is_stmt 1             @ lvgl/src/lv_themes/lv_theme_mono.c:155:31
	movw	r0, :lower16:styles
	movt	r0, :upper16:styles
	ldr	r0, [r0]
	.loc	13 155 39 is_stmt 0             @ lvgl/src/lv_themes/lv_theme_mono.c:155:39
	adds	r0, #12
	.loc	13 155 62                       @ lvgl/src/lv_themes/lv_theme_mono.c:155:62
	str	r0, [sp, #60]                   @ 4-byte Spill
	movw	r0, :lower16:theme
	movt	r0, :upper16:theme
	ldrb	r0, [r0, #14]
	cbnz	r0, .LBB1_116
	b	.LBB1_115
.LBB1_115:
	.loc	13 0 62                         @ lvgl/src/lv_themes/lv_theme_mono.c:0:62
	movs	r0, #255
	.loc	13 155 62                       @ lvgl/src/lv_themes/lv_theme_mono.c:155:62
	strb.w	r0, [sp, #268]
	strb.w	r0, [sp, #269]
	strb.w	r0, [sp, #270]
	strb.w	r0, [sp, #271]
	b	.LBB1_117
.LBB1_116:
	.loc	13 0 62                         @ lvgl/src/lv_themes/lv_theme_mono.c:0:62
	movs	r0, #0
	.loc	13 155 62                       @ lvgl/src/lv_themes/lv_theme_mono.c:155:62
	strb.w	r0, [sp, #268]
	strb.w	r0, [sp, #269]
	strb.w	r0, [sp, #270]
	movs	r0, #255
	strb.w	r0, [sp, #271]
	b	.LBB1_117
.LBB1_117:
	.loc	13 155 5                        @ lvgl/src/lv_themes/lv_theme_mono.c:155:5
	ldr	r0, [sp, #60]                   @ 4-byte Reload
	ldr	r2, [sp, #268]
	movs	r1, #1
	bl	lv_style_set_value_color
	.loc	13 156 31 is_stmt 1             @ lvgl/src/lv_themes/lv_theme_mono.c:156:31
	movw	r0, :lower16:styles
	movt	r0, :upper16:styles
	ldr	r0, [r0]
	.loc	13 156 39 is_stmt 0             @ lvgl/src/lv_themes/lv_theme_mono.c:156:39
	adds	r0, #12
	.loc	13 156 81                       @ lvgl/src/lv_themes/lv_theme_mono.c:156:81
	str	r0, [sp, #56]                   @ 4-byte Spill
	movw	r0, :lower16:theme
	movt	r0, :upper16:theme
	ldrb	r0, [r0, #14]
	cbnz	r0, .LBB1_119
	b	.LBB1_118
.LBB1_118:
	.loc	13 0 81                         @ lvgl/src/lv_themes/lv_theme_mono.c:0:81
	movs	r0, #255
	.loc	13 156 81                       @ lvgl/src/lv_themes/lv_theme_mono.c:156:81
	strb.w	r0, [sp, #260]
	strb.w	r0, [sp, #261]
	strb.w	r0, [sp, #262]
	strb.w	r0, [sp, #263]
	b	.LBB1_120
.LBB1_119:
	.loc	13 0 81                         @ lvgl/src/lv_themes/lv_theme_mono.c:0:81
	movs	r0, #0
	.loc	13 156 81                       @ lvgl/src/lv_themes/lv_theme_mono.c:156:81
	strb.w	r0, [sp, #260]
	strb.w	r0, [sp, #261]
	strb.w	r0, [sp, #262]
	movs	r0, #255
	strb.w	r0, [sp, #263]
	b	.LBB1_120
.LBB1_120:
	ldrb.w	r0, [sp, #262]
	cbnz	r0, .LBB1_122
	b	.LBB1_121
.LBB1_121:
	.loc	13 0 81                         @ lvgl/src/lv_themes/lv_theme_mono.c:0:81
	movs	r0, #255
	.loc	13 156 81                       @ lvgl/src/lv_themes/lv_theme_mono.c:156:81
	strb.w	r0, [sp, #264]
	strb.w	r0, [sp, #265]
	strb.w	r0, [sp, #266]
	strb.w	r0, [sp, #267]
	b	.LBB1_123
.LBB1_122:
	.loc	13 0 81                         @ lvgl/src/lv_themes/lv_theme_mono.c:0:81
	movs	r0, #0
	.loc	13 156 81                       @ lvgl/src/lv_themes/lv_theme_mono.c:156:81
	strb.w	r0, [sp, #264]
	strb.w	r0, [sp, #265]
	strb.w	r0, [sp, #266]
	movs	r0, #255
	strb.w	r0, [sp, #267]
	b	.LBB1_123
.LBB1_123:
	.loc	13 156 5                        @ lvgl/src/lv_themes/lv_theme_mono.c:156:5
	ldr	r0, [sp, #56]                   @ 4-byte Reload
	ldr	r2, [sp, #264]
	movs	r1, #17
	bl	lv_style_set_value_color
	.loc	13 157 33 is_stmt 1             @ lvgl/src/lv_themes/lv_theme_mono.c:157:33
	movw	r0, :lower16:styles
	movt	r0, :upper16:styles
	ldr	r0, [r0]
	.loc	13 157 41 is_stmt 0             @ lvgl/src/lv_themes/lv_theme_mono.c:157:41
	adds	r0, #12
	.loc	13 157 64                       @ lvgl/src/lv_themes/lv_theme_mono.c:157:64
	str	r0, [sp, #52]                   @ 4-byte Spill
	movw	r0, :lower16:theme
	movt	r0, :upper16:theme
	ldrb	r0, [r0, #14]
	cbnz	r0, .LBB1_125
	b	.LBB1_124
.LBB1_124:
	.loc	13 0 64                         @ lvgl/src/lv_themes/lv_theme_mono.c:0:64
	movs	r0, #255
	.loc	13 157 64                       @ lvgl/src/lv_themes/lv_theme_mono.c:157:64
	strb.w	r0, [sp, #252]
	strb.w	r0, [sp, #253]
	strb.w	r0, [sp, #254]
	strb.w	r0, [sp, #255]
	b	.LBB1_126
.LBB1_125:
	.loc	13 0 64                         @ lvgl/src/lv_themes/lv_theme_mono.c:0:64
	movs	r0, #0
	.loc	13 157 64                       @ lvgl/src/lv_themes/lv_theme_mono.c:157:64
	strb.w	r0, [sp, #252]
	strb.w	r0, [sp, #253]
	strb.w	r0, [sp, #254]
	movs	r0, #255
	strb.w	r0, [sp, #255]
	b	.LBB1_126
.LBB1_126:
	ldrb.w	r0, [sp, #254]
	cbnz	r0, .LBB1_128
	b	.LBB1_127
.LBB1_127:
	.loc	13 0 64                         @ lvgl/src/lv_themes/lv_theme_mono.c:0:64
	movs	r0, #255
	.loc	13 157 64                       @ lvgl/src/lv_themes/lv_theme_mono.c:157:64
	strb.w	r0, [sp, #256]
	strb.w	r0, [sp, #257]
	strb.w	r0, [sp, #258]
	strb.w	r0, [sp, #259]
	b	.LBB1_129
.LBB1_128:
	.loc	13 0 64                         @ lvgl/src/lv_themes/lv_theme_mono.c:0:64
	movs	r0, #0
	.loc	13 157 64                       @ lvgl/src/lv_themes/lv_theme_mono.c:157:64
	strb.w	r0, [sp, #256]
	strb.w	r0, [sp, #257]
	strb.w	r0, [sp, #258]
	movs	r0, #255
	strb.w	r0, [sp, #259]
	b	.LBB1_129
.LBB1_129:
	.loc	13 157 5                        @ lvgl/src/lv_themes/lv_theme_mono.c:157:5
	ldr	r0, [sp, #52]                   @ 4-byte Reload
	ldr	r2, [sp, #256]
	movs	r1, #0
	bl	lv_style_set_image_recolor
	.loc	13 158 33 is_stmt 1             @ lvgl/src/lv_themes/lv_theme_mono.c:158:33
	movw	r0, :lower16:styles
	movt	r0, :upper16:styles
	ldr	r0, [r0]
	.loc	13 158 41 is_stmt 0             @ lvgl/src/lv_themes/lv_theme_mono.c:158:41
	adds	r0, #12
	.loc	13 158 64                       @ lvgl/src/lv_themes/lv_theme_mono.c:158:64
	str	r0, [sp, #48]                   @ 4-byte Spill
	movw	r0, :lower16:theme
	movt	r0, :upper16:theme
	ldrb	r0, [r0, #14]
	cbnz	r0, .LBB1_131
	b	.LBB1_130
.LBB1_130:
	.loc	13 0 64                         @ lvgl/src/lv_themes/lv_theme_mono.c:0:64
	movs	r0, #255
	.loc	13 158 64                       @ lvgl/src/lv_themes/lv_theme_mono.c:158:64
	strb.w	r0, [sp, #248]
	strb.w	r0, [sp, #249]
	strb.w	r0, [sp, #250]
	strb.w	r0, [sp, #251]
	b	.LBB1_132
.LBB1_131:
	.loc	13 0 64                         @ lvgl/src/lv_themes/lv_theme_mono.c:0:64
	movs	r0, #0
	.loc	13 158 64                       @ lvgl/src/lv_themes/lv_theme_mono.c:158:64
	strb.w	r0, [sp, #248]
	strb.w	r0, [sp, #249]
	strb.w	r0, [sp, #250]
	movs	r0, #255
	strb.w	r0, [sp, #251]
	b	.LBB1_132
.LBB1_132:
	.loc	13 158 5                        @ lvgl/src/lv_themes/lv_theme_mono.c:158:5
	ldr	r0, [sp, #48]                   @ 4-byte Reload
	ldr	r2, [sp, #248]
	movs	r1, #16
	bl	lv_style_set_image_recolor
	.loc	13 159 33 is_stmt 1             @ lvgl/src/lv_themes/lv_theme_mono.c:159:33
	movw	r0, :lower16:styles
	movt	r0, :upper16:styles
	ldr	r0, [r0]
	.loc	13 159 41 is_stmt 0             @ lvgl/src/lv_themes/lv_theme_mono.c:159:41
	adds	r0, #12
	.loc	13 159 64                       @ lvgl/src/lv_themes/lv_theme_mono.c:159:64
	str	r0, [sp, #44]                   @ 4-byte Spill
	movw	r0, :lower16:theme
	movt	r0, :upper16:theme
	ldrb	r0, [r0, #14]
	cbnz	r0, .LBB1_134
	b	.LBB1_133
.LBB1_133:
	.loc	13 0 64                         @ lvgl/src/lv_themes/lv_theme_mono.c:0:64
	movs	r0, #255
	.loc	13 159 64                       @ lvgl/src/lv_themes/lv_theme_mono.c:159:64
	strb.w	r0, [sp, #244]
	strb.w	r0, [sp, #245]
	strb.w	r0, [sp, #246]
	strb.w	r0, [sp, #247]
	b	.LBB1_135
.LBB1_134:
	.loc	13 0 64                         @ lvgl/src/lv_themes/lv_theme_mono.c:0:64
	movs	r0, #0
	.loc	13 159 64                       @ lvgl/src/lv_themes/lv_theme_mono.c:159:64
	strb.w	r0, [sp, #244]
	strb.w	r0, [sp, #245]
	strb.w	r0, [sp, #246]
	movs	r0, #255
	strb.w	r0, [sp, #247]
	b	.LBB1_135
.LBB1_135:
	.loc	13 159 5                        @ lvgl/src/lv_themes/lv_theme_mono.c:159:5
	ldr	r0, [sp, #44]                   @ 4-byte Reload
	ldr	r2, [sp, #244]
	movs	r1, #1
	bl	lv_style_set_image_recolor
	.loc	13 160 33 is_stmt 1             @ lvgl/src/lv_themes/lv_theme_mono.c:160:33
	movw	r0, :lower16:styles
	movt	r0, :upper16:styles
	ldr	r0, [r0]
	.loc	13 160 41 is_stmt 0             @ lvgl/src/lv_themes/lv_theme_mono.c:160:41
	adds	r0, #12
	.loc	13 160 83                       @ lvgl/src/lv_themes/lv_theme_mono.c:160:83
	str	r0, [sp, #40]                   @ 4-byte Spill
	movw	r0, :lower16:theme
	movt	r0, :upper16:theme
	ldrb	r0, [r0, #14]
	cbnz	r0, .LBB1_137
	b	.LBB1_136
.LBB1_136:
	.loc	13 0 83                         @ lvgl/src/lv_themes/lv_theme_mono.c:0:83
	movs	r0, #255
	.loc	13 160 83                       @ lvgl/src/lv_themes/lv_theme_mono.c:160:83
	strb.w	r0, [sp, #236]
	strb.w	r0, [sp, #237]
	strb.w	r0, [sp, #238]
	strb.w	r0, [sp, #239]
	b	.LBB1_138
.LBB1_137:
	.loc	13 0 83                         @ lvgl/src/lv_themes/lv_theme_mono.c:0:83
	movs	r0, #0
	.loc	13 160 83                       @ lvgl/src/lv_themes/lv_theme_mono.c:160:83
	strb.w	r0, [sp, #236]
	strb.w	r0, [sp, #237]
	strb.w	r0, [sp, #238]
	movs	r0, #255
	strb.w	r0, [sp, #239]
	b	.LBB1_138
.LBB1_138:
	ldrb.w	r0, [sp, #238]
	cbnz	r0, .LBB1_140
	b	.LBB1_139
.LBB1_139:
	.loc	13 0 83                         @ lvgl/src/lv_themes/lv_theme_mono.c:0:83
	movs	r0, #255
	.loc	13 160 83                       @ lvgl/src/lv_themes/lv_theme_mono.c:160:83
	strb.w	r0, [sp, #240]
	strb.w	r0, [sp, #241]
	strb.w	r0, [sp, #242]
	strb.w	r0, [sp, #243]
	b	.LBB1_141
.LBB1_140:
	.loc	13 0 83                         @ lvgl/src/lv_themes/lv_theme_mono.c:0:83
	movs	r0, #0
	.loc	13 160 83                       @ lvgl/src/lv_themes/lv_theme_mono.c:160:83
	strb.w	r0, [sp, #240]
	strb.w	r0, [sp, #241]
	strb.w	r0, [sp, #242]
	movs	r0, #255
	strb.w	r0, [sp, #243]
	b	.LBB1_141
.LBB1_141:
	.loc	13 160 5                        @ lvgl/src/lv_themes/lv_theme_mono.c:160:5
	ldr	r0, [sp, #40]                   @ 4-byte Reload
	ldr	r2, [sp, #240]
	movs	r1, #17
	bl	lv_style_set_image_recolor
	.loc	13 162 21 is_stmt 1             @ lvgl/src/lv_themes/lv_theme_mono.c:162:21
	movw	r0, :lower16:styles
	movt	r0, :upper16:styles
	str	r0, [sp, #32]                   @ 4-byte Spill
	ldr	r0, [r0]
	.loc	13 162 29 is_stmt 0             @ lvgl/src/lv_themes/lv_theme_mono.c:162:29
	adds	r0, #16
	.loc	13 162 5                        @ lvgl/src/lv_themes/lv_theme_mono.c:162:5
	bl	lv_style_reset
	ldr	r0, [sp, #32]                   @ 4-byte Reload
	.loc	13 163 26 is_stmt 1             @ lvgl/src/lv_themes/lv_theme_mono.c:163:26
	ldr	r0, [r0]
	.loc	13 163 34 is_stmt 0             @ lvgl/src/lv_themes/lv_theme_mono.c:163:34
	adds	r0, #16
	movs	r1, #0
	str	r1, [sp, #28]                   @ 4-byte Spill
	movw	r2, #32767
	.loc	13 163 5                        @ lvgl/src/lv_themes/lv_theme_mono.c:163:5
	bl	lv_style_set_radius
	ldr	r0, [sp, #32]                   @ 4-byte Reload
	.loc	13 165 21 is_stmt 1             @ lvgl/src/lv_themes/lv_theme_mono.c:165:21
	ldr	r0, [r0]
	.loc	13 165 29 is_stmt 0             @ lvgl/src/lv_themes/lv_theme_mono.c:165:29
	adds	r0, #20
	.loc	13 165 5                        @ lvgl/src/lv_themes/lv_theme_mono.c:165:5
	bl	lv_style_reset
	ldr	r2, [sp, #28]                   @ 4-byte Reload
	ldr	r0, [sp, #32]                   @ 4-byte Reload
	.loc	13 166 26 is_stmt 1             @ lvgl/src/lv_themes/lv_theme_mono.c:166:26
	ldr	r0, [r0]
	.loc	13 166 34 is_stmt 0             @ lvgl/src/lv_themes/lv_theme_mono.c:166:34
	adds	r0, #20
	.loc	13 166 5                        @ lvgl/src/lv_themes/lv_theme_mono.c:166:5
	mov	r1, r2
	bl	lv_style_set_radius
	ldr	r0, [sp, #32]                   @ 4-byte Reload
	.loc	13 168 21 is_stmt 1             @ lvgl/src/lv_themes/lv_theme_mono.c:168:21
	ldr	r0, [r0]
	.loc	13 168 29 is_stmt 0             @ lvgl/src/lv_themes/lv_theme_mono.c:168:29
	adds	r0, #28
	.loc	13 168 5                        @ lvgl/src/lv_themes/lv_theme_mono.c:168:5
	bl	lv_style_reset
	ldr	r2, [sp, #28]                   @ 4-byte Reload
	ldr	r0, [sp, #32]                   @ 4-byte Reload
	.loc	13 169 32 is_stmt 1             @ lvgl/src/lv_themes/lv_theme_mono.c:169:32
	ldr	r0, [r0]
	.loc	13 169 40 is_stmt 0             @ lvgl/src/lv_themes/lv_theme_mono.c:169:40
	adds	r0, #28
	.loc	13 169 5                        @ lvgl/src/lv_themes/lv_theme_mono.c:169:5
	mov	r1, r2
	bl	lv_style_set_border_width
	ldr	r0, [sp, #32]                   @ 4-byte Reload
	.loc	13 171 21 is_stmt 1             @ lvgl/src/lv_themes/lv_theme_mono.c:171:21
	ldr	r0, [r0]
	.loc	13 171 29 is_stmt 0             @ lvgl/src/lv_themes/lv_theme_mono.c:171:29
	adds	r0, #24
	.loc	13 171 5                        @ lvgl/src/lv_themes/lv_theme_mono.c:171:5
	bl	lv_style_reset
	ldr	r0, [sp, #32]                   @ 4-byte Reload
	.loc	13 172 28 is_stmt 1             @ lvgl/src/lv_themes/lv_theme_mono.c:172:28
	ldr	r0, [r0]
	.loc	13 172 36 is_stmt 0             @ lvgl/src/lv_themes/lv_theme_mono.c:172:36
	adds	r0, #24
	.loc	13 172 64                       @ lvgl/src/lv_themes/lv_theme_mono.c:172:64
	str	r0, [sp, #36]                   @ 4-byte Spill
	movw	r0, :lower16:theme
	movt	r0, :upper16:theme
	ldrb	r0, [r0, #14]
	cbnz	r0, .LBB1_143
	b	.LBB1_142
.LBB1_142:
	.loc	13 0 64                         @ lvgl/src/lv_themes/lv_theme_mono.c:0:64
	movs	r0, #255
	.loc	13 172 64                       @ lvgl/src/lv_themes/lv_theme_mono.c:172:64
	strb.w	r0, [sp, #228]
	strb.w	r0, [sp, #229]
	strb.w	r0, [sp, #230]
	strb.w	r0, [sp, #231]
	b	.LBB1_144
.LBB1_143:
	.loc	13 0 64                         @ lvgl/src/lv_themes/lv_theme_mono.c:0:64
	movs	r0, #0
	.loc	13 172 64                       @ lvgl/src/lv_themes/lv_theme_mono.c:172:64
	strb.w	r0, [sp, #228]
	strb.w	r0, [sp, #229]
	strb.w	r0, [sp, #230]
	movs	r0, #255
	strb.w	r0, [sp, #231]
	b	.LBB1_144
.LBB1_144:
	ldrb.w	r0, [sp, #230]
	cbnz	r0, .LBB1_146
	b	.LBB1_145
.LBB1_145:
	.loc	13 0 64                         @ lvgl/src/lv_themes/lv_theme_mono.c:0:64
	movs	r0, #255
	.loc	13 172 64                       @ lvgl/src/lv_themes/lv_theme_mono.c:172:64
	strb.w	r0, [sp, #232]
	strb.w	r0, [sp, #233]
	strb.w	r0, [sp, #234]
	strb.w	r0, [sp, #235]
	b	.LBB1_147
.LBB1_146:
	.loc	13 0 64                         @ lvgl/src/lv_themes/lv_theme_mono.c:0:64
	movs	r0, #0
	.loc	13 172 64                       @ lvgl/src/lv_themes/lv_theme_mono.c:172:64
	strb.w	r0, [sp, #232]
	strb.w	r0, [sp, #233]
	strb.w	r0, [sp, #234]
	movs	r0, #255
	strb.w	r0, [sp, #235]
	b	.LBB1_147
.LBB1_147:
	.loc	13 172 5                        @ lvgl/src/lv_themes/lv_theme_mono.c:172:5
	ldr	r0, [sp, #36]                   @ 4-byte Reload
	ldr	r2, [sp, #232]
	movs	r1, #0
	bl	lv_style_set_bg_color
	.loc	13 173 30 is_stmt 1             @ lvgl/src/lv_themes/lv_theme_mono.c:173:30
	movw	r0, :lower16:styles
	movt	r0, :upper16:styles
	ldr	r0, [r0]
	.loc	13 173 38 is_stmt 0             @ lvgl/src/lv_themes/lv_theme_mono.c:173:38
	adds	r0, #24
	.loc	13 173 66                       @ lvgl/src/lv_themes/lv_theme_mono.c:173:66
	str	r0, [sp, #24]                   @ 4-byte Spill
	movw	r0, :lower16:theme
	movt	r0, :upper16:theme
	ldrb	r0, [r0, #14]
	cbnz	r0, .LBB1_149
	b	.LBB1_148
.LBB1_148:
	.loc	13 0 66                         @ lvgl/src/lv_themes/lv_theme_mono.c:0:66
	movs	r0, #255
	.loc	13 173 66                       @ lvgl/src/lv_themes/lv_theme_mono.c:173:66
	strb.w	r0, [sp, #224]
	strb.w	r0, [sp, #225]
	strb.w	r0, [sp, #226]
	strb.w	r0, [sp, #227]
	b	.LBB1_150
.LBB1_149:
	.loc	13 0 66                         @ lvgl/src/lv_themes/lv_theme_mono.c:0:66
	movs	r0, #0
	.loc	13 173 66                       @ lvgl/src/lv_themes/lv_theme_mono.c:173:66
	strb.w	r0, [sp, #224]
	strb.w	r0, [sp, #225]
	strb.w	r0, [sp, #226]
	movs	r0, #255
	strb.w	r0, [sp, #227]
	b	.LBB1_150
.LBB1_150:
	.loc	13 173 5                        @ lvgl/src/lv_themes/lv_theme_mono.c:173:5
	ldr	r0, [sp, #24]                   @ 4-byte Reload
	ldr	r2, [sp, #224]
	movs	r1, #0
	bl	lv_style_set_text_color
	.loc	13 174 33 is_stmt 1             @ lvgl/src/lv_themes/lv_theme_mono.c:174:33
	movw	r0, :lower16:styles
	movt	r0, :upper16:styles
	ldr	r0, [r0]
	.loc	13 174 41 is_stmt 0             @ lvgl/src/lv_themes/lv_theme_mono.c:174:41
	adds	r0, #24
	.loc	13 174 69                       @ lvgl/src/lv_themes/lv_theme_mono.c:174:69
	str	r0, [sp, #20]                   @ 4-byte Spill
	movw	r0, :lower16:theme
	movt	r0, :upper16:theme
	ldrb	r0, [r0, #14]
	cbnz	r0, .LBB1_152
	b	.LBB1_151
.LBB1_151:
	.loc	13 0 69                         @ lvgl/src/lv_themes/lv_theme_mono.c:0:69
	movs	r0, #255
	.loc	13 174 69                       @ lvgl/src/lv_themes/lv_theme_mono.c:174:69
	strb.w	r0, [sp, #220]
	strb.w	r0, [sp, #221]
	strb.w	r0, [sp, #222]
	strb.w	r0, [sp, #223]
	b	.LBB1_153
.LBB1_152:
	.loc	13 0 69                         @ lvgl/src/lv_themes/lv_theme_mono.c:0:69
	movs	r0, #0
	.loc	13 174 69                       @ lvgl/src/lv_themes/lv_theme_mono.c:174:69
	strb.w	r0, [sp, #220]
	strb.w	r0, [sp, #221]
	strb.w	r0, [sp, #222]
	movs	r0, #255
	strb.w	r0, [sp, #223]
	b	.LBB1_153
.LBB1_153:
	.loc	13 174 5                        @ lvgl/src/lv_themes/lv_theme_mono.c:174:5
	ldr	r0, [sp, #20]                   @ 4-byte Reload
	ldr	r2, [sp, #220]
	movs	r1, #0
	bl	lv_style_set_image_recolor
	.loc	13 175 30 is_stmt 1             @ lvgl/src/lv_themes/lv_theme_mono.c:175:30
	movw	r0, :lower16:styles
	movt	r0, :upper16:styles
	ldr	r0, [r0]
	.loc	13 175 38 is_stmt 0             @ lvgl/src/lv_themes/lv_theme_mono.c:175:38
	adds	r0, #24
	.loc	13 175 66                       @ lvgl/src/lv_themes/lv_theme_mono.c:175:66
	str	r0, [sp, #16]                   @ 4-byte Spill
	movw	r0, :lower16:theme
	movt	r0, :upper16:theme
	ldrb	r0, [r0, #14]
	cbnz	r0, .LBB1_155
	b	.LBB1_154
.LBB1_154:
	.loc	13 0 66                         @ lvgl/src/lv_themes/lv_theme_mono.c:0:66
	movs	r0, #255
	.loc	13 175 66                       @ lvgl/src/lv_themes/lv_theme_mono.c:175:66
	strb.w	r0, [sp, #212]
	strb.w	r0, [sp, #213]
	strb.w	r0, [sp, #214]
	strb.w	r0, [sp, #215]
	b	.LBB1_156
.LBB1_155:
	.loc	13 0 66                         @ lvgl/src/lv_themes/lv_theme_mono.c:0:66
	movs	r0, #0
	.loc	13 175 66                       @ lvgl/src/lv_themes/lv_theme_mono.c:175:66
	strb.w	r0, [sp, #212]
	strb.w	r0, [sp, #213]
	strb.w	r0, [sp, #214]
	movs	r0, #255
	strb.w	r0, [sp, #215]
	b	.LBB1_156
.LBB1_156:
	ldrb.w	r0, [sp, #214]
	cbnz	r0, .LBB1_158
	b	.LBB1_157
.LBB1_157:
	.loc	13 0 66                         @ lvgl/src/lv_themes/lv_theme_mono.c:0:66
	movs	r0, #255
	.loc	13 175 66                       @ lvgl/src/lv_themes/lv_theme_mono.c:175:66
	strb.w	r0, [sp, #216]
	strb.w	r0, [sp, #217]
	strb.w	r0, [sp, #218]
	strb.w	r0, [sp, #219]
	b	.LBB1_159
.LBB1_158:
	.loc	13 0 66                         @ lvgl/src/lv_themes/lv_theme_mono.c:0:66
	movs	r0, #0
	.loc	13 175 66                       @ lvgl/src/lv_themes/lv_theme_mono.c:175:66
	strb.w	r0, [sp, #216]
	strb.w	r0, [sp, #217]
	strb.w	r0, [sp, #218]
	movs	r0, #255
	strb.w	r0, [sp, #219]
	b	.LBB1_159
.LBB1_159:
	.loc	13 175 5                        @ lvgl/src/lv_themes/lv_theme_mono.c:175:5
	ldr	r0, [sp, #16]                   @ 4-byte Reload
	ldr	r2, [sp, #216]
	movs	r1, #0
	str	r1, [sp, #8]                    @ 4-byte Spill
	bl	lv_style_set_line_color
	.loc	13 177 21 is_stmt 1             @ lvgl/src/lv_themes/lv_theme_mono.c:177:21
	movw	r0, :lower16:styles
	movt	r0, :upper16:styles
	str	r0, [sp, #12]                   @ 4-byte Spill
	ldr	r0, [r0]
	.loc	13 177 29 is_stmt 0             @ lvgl/src/lv_themes/lv_theme_mono.c:177:29
	adds	r0, #32
	.loc	13 177 5                        @ lvgl/src/lv_themes/lv_theme_mono.c:177:5
	bl	lv_style_reset
	ldr	r1, [sp, #8]                    @ 4-byte Reload
	ldr	r0, [sp, #12]                   @ 4-byte Reload
	.loc	13 178 35 is_stmt 1             @ lvgl/src/lv_themes/lv_theme_mono.c:178:35
	ldr	r0, [r0]
	.loc	13 178 43 is_stmt 0             @ lvgl/src/lv_themes/lv_theme_mono.c:178:43
	adds	r0, #32
	movs	r2, #13
	.loc	13 178 5                        @ lvgl/src/lv_themes/lv_theme_mono.c:178:5
	str	r2, [sp]                        @ 4-byte Spill
	bl	lv_style_set_text_line_space
	ldr	r0, [sp, #12]                   @ 4-byte Reload
	.loc	13 180 21 is_stmt 1             @ lvgl/src/lv_themes/lv_theme_mono.c:180:21
	ldr	r0, [r0]
	.loc	13 180 29 is_stmt 0             @ lvgl/src/lv_themes/lv_theme_mono.c:180:29
	adds	r0, #36
	.loc	13 180 5                        @ lvgl/src/lv_themes/lv_theme_mono.c:180:5
	bl	lv_style_reset
	ldr	r2, [sp, #8]                    @ 4-byte Reload
	ldr	r0, [sp, #12]                   @ 4-byte Reload
	.loc	13 181 28 is_stmt 1             @ lvgl/src/lv_themes/lv_theme_mono.c:181:28
	ldr	r0, [r0]
	.loc	13 181 36 is_stmt 0             @ lvgl/src/lv_themes/lv_theme_mono.c:181:36
	adds	r0, #36
	.loc	13 181 5                        @ lvgl/src/lv_themes/lv_theme_mono.c:181:5
	mov	r1, r2
	bl	lv_style_set_pad_left
	ldr	r2, [sp, #8]                    @ 4-byte Reload
	ldr	r0, [sp, #12]                   @ 4-byte Reload
	.loc	13 182 29 is_stmt 1             @ lvgl/src/lv_themes/lv_theme_mono.c:182:29
	ldr	r0, [r0]
	.loc	13 182 37 is_stmt 0             @ lvgl/src/lv_themes/lv_theme_mono.c:182:37
	adds	r0, #36
	.loc	13 182 5                        @ lvgl/src/lv_themes/lv_theme_mono.c:182:5
	mov	r1, r2
	bl	lv_style_set_pad_right
	ldr	r2, [sp, #8]                    @ 4-byte Reload
	ldr	r0, [sp, #12]                   @ 4-byte Reload
	.loc	13 183 27 is_stmt 1             @ lvgl/src/lv_themes/lv_theme_mono.c:183:27
	ldr	r0, [r0]
	.loc	13 183 35 is_stmt 0             @ lvgl/src/lv_themes/lv_theme_mono.c:183:35
	adds	r0, #36
	.loc	13 183 5                        @ lvgl/src/lv_themes/lv_theme_mono.c:183:5
	mov	r1, r2
	bl	lv_style_set_pad_top
	ldr	r2, [sp, #8]                    @ 4-byte Reload
	ldr	r0, [sp, #12]                   @ 4-byte Reload
	.loc	13 184 30 is_stmt 1             @ lvgl/src/lv_themes/lv_theme_mono.c:184:30
	ldr	r0, [r0]
	.loc	13 184 38 is_stmt 0             @ lvgl/src/lv_themes/lv_theme_mono.c:184:38
	adds	r0, #36
	.loc	13 184 5                        @ lvgl/src/lv_themes/lv_theme_mono.c:184:5
	mov	r1, r2
	bl	lv_style_set_pad_bottom
	ldr	r2, [sp, #8]                    @ 4-byte Reload
	ldr	r0, [sp, #12]                   @ 4-byte Reload
	.loc	13 185 29 is_stmt 1             @ lvgl/src/lv_themes/lv_theme_mono.c:185:29
	ldr	r0, [r0]
	.loc	13 185 37 is_stmt 0             @ lvgl/src/lv_themes/lv_theme_mono.c:185:37
	adds	r0, #36
	.loc	13 185 5                        @ lvgl/src/lv_themes/lv_theme_mono.c:185:5
	mov	r1, r2
	bl	lv_style_set_pad_inner
	ldr	r0, [sp, #12]                   @ 4-byte Reload
	.loc	13 187 21 is_stmt 1             @ lvgl/src/lv_themes/lv_theme_mono.c:187:21
	ldr	r0, [r0]
	.loc	13 187 29 is_stmt 0             @ lvgl/src/lv_themes/lv_theme_mono.c:187:29
	adds	r0, #40
	.loc	13 187 5                        @ lvgl/src/lv_themes/lv_theme_mono.c:187:5
	bl	lv_style_reset
	ldr	r2, [sp]                        @ 4-byte Reload
	ldr	r1, [sp, #8]                    @ 4-byte Reload
	ldr	r0, [sp, #12]                   @ 4-byte Reload
	.loc	13 188 28 is_stmt 1             @ lvgl/src/lv_themes/lv_theme_mono.c:188:28
	ldr	r0, [r0]
	.loc	13 188 36 is_stmt 0             @ lvgl/src/lv_themes/lv_theme_mono.c:188:36
	adds	r0, #40
	.loc	13 188 5                        @ lvgl/src/lv_themes/lv_theme_mono.c:188:5
	bl	lv_style_set_pad_left
	ldr	r2, [sp]                        @ 4-byte Reload
	ldr	r1, [sp, #8]                    @ 4-byte Reload
	ldr	r0, [sp, #12]                   @ 4-byte Reload
	.loc	13 189 29 is_stmt 1             @ lvgl/src/lv_themes/lv_theme_mono.c:189:29
	ldr	r0, [r0]
	.loc	13 189 37 is_stmt 0             @ lvgl/src/lv_themes/lv_theme_mono.c:189:37
	adds	r0, #40
	.loc	13 189 5                        @ lvgl/src/lv_themes/lv_theme_mono.c:189:5
	bl	lv_style_set_pad_right
	ldr	r2, [sp]                        @ 4-byte Reload
	ldr	r1, [sp, #8]                    @ 4-byte Reload
	ldr	r0, [sp, #12]                   @ 4-byte Reload
	.loc	13 190 27 is_stmt 1             @ lvgl/src/lv_themes/lv_theme_mono.c:190:27
	ldr	r0, [r0]
	.loc	13 190 35 is_stmt 0             @ lvgl/src/lv_themes/lv_theme_mono.c:190:35
	adds	r0, #40
	.loc	13 190 5                        @ lvgl/src/lv_themes/lv_theme_mono.c:190:5
	bl	lv_style_set_pad_top
	ldr	r2, [sp]                        @ 4-byte Reload
	ldr	r1, [sp, #8]                    @ 4-byte Reload
	ldr	r0, [sp, #12]                   @ 4-byte Reload
	.loc	13 191 30 is_stmt 1             @ lvgl/src/lv_themes/lv_theme_mono.c:191:30
	ldr	r0, [r0]
	.loc	13 191 38 is_stmt 0             @ lvgl/src/lv_themes/lv_theme_mono.c:191:38
	adds	r0, #40
	.loc	13 191 5                        @ lvgl/src/lv_themes/lv_theme_mono.c:191:5
	bl	lv_style_set_pad_bottom
	ldr	r2, [sp]                        @ 4-byte Reload
	ldr	r1, [sp, #8]                    @ 4-byte Reload
	ldr	r0, [sp, #12]                   @ 4-byte Reload
	.loc	13 192 29 is_stmt 1             @ lvgl/src/lv_themes/lv_theme_mono.c:192:29
	ldr	r0, [r0]
	.loc	13 192 37 is_stmt 0             @ lvgl/src/lv_themes/lv_theme_mono.c:192:37
	adds	r0, #40
	.loc	13 192 5                        @ lvgl/src/lv_themes/lv_theme_mono.c:192:5
	bl	lv_style_set_pad_inner
	ldr	r0, [sp, #12]                   @ 4-byte Reload
	.loc	13 194 21 is_stmt 1             @ lvgl/src/lv_themes/lv_theme_mono.c:194:21
	ldr	r0, [r0]
	.loc	13 194 29 is_stmt 0             @ lvgl/src/lv_themes/lv_theme_mono.c:194:29
	adds	r0, #44
	.loc	13 194 5                        @ lvgl/src/lv_themes/lv_theme_mono.c:194:5
	bl	lv_style_reset
	ldr	r1, [sp, #8]                    @ 4-byte Reload
	ldr	r0, [sp, #12]                   @ 4-byte Reload
	.loc	13 195 28 is_stmt 1             @ lvgl/src/lv_themes/lv_theme_mono.c:195:28
	ldr	r0, [r0]
	.loc	13 195 36 is_stmt 0             @ lvgl/src/lv_themes/lv_theme_mono.c:195:36
	adds	r0, #44
	movs	r2, #6
	.loc	13 195 5                        @ lvgl/src/lv_themes/lv_theme_mono.c:195:5
	str	r2, [sp, #4]                    @ 4-byte Spill
	bl	lv_style_set_pad_left
	ldr	r2, [sp, #4]                    @ 4-byte Reload
	ldr	r1, [sp, #8]                    @ 4-byte Reload
	ldr	r0, [sp, #12]                   @ 4-byte Reload
	.loc	13 196 29 is_stmt 1             @ lvgl/src/lv_themes/lv_theme_mono.c:196:29
	ldr	r0, [r0]
	.loc	13 196 37 is_stmt 0             @ lvgl/src/lv_themes/lv_theme_mono.c:196:37
	adds	r0, #44
	.loc	13 196 5                        @ lvgl/src/lv_themes/lv_theme_mono.c:196:5
	bl	lv_style_set_pad_right
	ldr	r2, [sp, #4]                    @ 4-byte Reload
	ldr	r1, [sp, #8]                    @ 4-byte Reload
	ldr	r0, [sp, #12]                   @ 4-byte Reload
	.loc	13 197 27 is_stmt 1             @ lvgl/src/lv_themes/lv_theme_mono.c:197:27
	ldr	r0, [r0]
	.loc	13 197 35 is_stmt 0             @ lvgl/src/lv_themes/lv_theme_mono.c:197:35
	adds	r0, #44
	.loc	13 197 5                        @ lvgl/src/lv_themes/lv_theme_mono.c:197:5
	bl	lv_style_set_pad_top
	ldr	r2, [sp, #4]                    @ 4-byte Reload
	ldr	r1, [sp, #8]                    @ 4-byte Reload
	ldr	r0, [sp, #12]                   @ 4-byte Reload
	.loc	13 198 30 is_stmt 1             @ lvgl/src/lv_themes/lv_theme_mono.c:198:30
	ldr	r0, [r0]
	.loc	13 198 38 is_stmt 0             @ lvgl/src/lv_themes/lv_theme_mono.c:198:38
	adds	r0, #44
	.loc	13 198 5                        @ lvgl/src/lv_themes/lv_theme_mono.c:198:5
	bl	lv_style_set_pad_bottom
	ldr	r2, [sp, #4]                    @ 4-byte Reload
	ldr	r1, [sp, #8]                    @ 4-byte Reload
	ldr	r0, [sp, #12]                   @ 4-byte Reload
	.loc	13 199 29 is_stmt 1             @ lvgl/src/lv_themes/lv_theme_mono.c:199:29
	ldr	r0, [r0]
	.loc	13 199 37 is_stmt 0             @ lvgl/src/lv_themes/lv_theme_mono.c:199:37
	adds	r0, #44
	.loc	13 199 5                        @ lvgl/src/lv_themes/lv_theme_mono.c:199:5
	bl	lv_style_set_pad_inner
	ldr	r0, [sp, #12]                   @ 4-byte Reload
	.loc	13 201 21 is_stmt 1             @ lvgl/src/lv_themes/lv_theme_mono.c:201:21
	ldr	r0, [r0]
	.loc	13 201 29 is_stmt 0             @ lvgl/src/lv_themes/lv_theme_mono.c:201:29
	adds	r0, #48
	.loc	13 201 5                        @ lvgl/src/lv_themes/lv_theme_mono.c:201:5
	bl	lv_style_reset
	ldr	r1, [sp, #8]                    @ 4-byte Reload
	ldr	r0, [sp, #12]                   @ 4-byte Reload
	.loc	13 202 29 is_stmt 1             @ lvgl/src/lv_themes/lv_theme_mono.c:202:29
	ldr	r0, [r0]
	.loc	13 202 37 is_stmt 0             @ lvgl/src/lv_themes/lv_theme_mono.c:202:37
	adds	r0, #48
	movs	r2, #8
	.loc	13 202 5                        @ lvgl/src/lv_themes/lv_theme_mono.c:202:5
	bl	lv_style_set_pad_inner
	ldr	r0, [sp, #12]                   @ 4-byte Reload
	.loc	13 204 21 is_stmt 1             @ lvgl/src/lv_themes/lv_theme_mono.c:204:21
	ldr	r0, [r0]
	.loc	13 204 29 is_stmt 0             @ lvgl/src/lv_themes/lv_theme_mono.c:204:29
	adds	r0, #52
	.loc	13 204 5                        @ lvgl/src/lv_themes/lv_theme_mono.c:204:5
	bl	lv_style_reset
	ldr	r0, [sp, #12]                   @ 4-byte Reload
	.loc	13 205 30 is_stmt 1             @ lvgl/src/lv_themes/lv_theme_mono.c:205:30
	ldr	r0, [r0]
	.loc	13 205 38 is_stmt 0             @ lvgl/src/lv_themes/lv_theme_mono.c:205:38
	adds	r0, #52
	movs	r1, #2
	movs	r2, #1
	.loc	13 205 5                        @ lvgl/src/lv_themes/lv_theme_mono.c:205:5
	bl	lv_style_set_text_decor
	.loc	13 206 1 is_stmt 1              @ lvgl/src/lv_themes/lv_theme_mono.c:206:1
	add	sp, #424
	pop	{r7, pc}
.Ltmp10:
.Lfunc_end1:
	.size	basic_init, .Lfunc_end1-basic_init
	.cfi_endproc
	.cantunwind
	.fnend
                                        @ -- End function
	.section	.text.cont_init,"ax",%progbits
	.p2align	3                               @ -- Begin function cont_init
	.type	cont_init,%function
	.code	16                              @ @cont_init
	.thumb_func
cont_init:
.Lfunc_begin2:
	.loc	13 289 0                        @ lvgl/src/lv_themes/lv_theme_mono.c:289:0
	.fnstart
	.cfi_startproc
@ %bb.0:
	.loc	13 293 1 prologue_end           @ lvgl/src/lv_themes/lv_theme_mono.c:293:1
	bx	lr
.Ltmp11:
.Lfunc_end2:
	.size	cont_init, .Lfunc_end2-cont_init
	.cfi_endproc
	.cantunwind
	.fnend
                                        @ -- End function
	.section	.text.btn_init,"ax",%progbits
	.p2align	3                               @ -- Begin function btn_init
	.type	btn_init,%function
	.code	16                              @ @btn_init
	.thumb_func
btn_init:
.Lfunc_begin3:
	.loc	13 229 0                        @ lvgl/src/lv_themes/lv_theme_mono.c:229:0
	.fnstart
	.cfi_startproc
@ %bb.0:
	.loc	13 233 1 prologue_end           @ lvgl/src/lv_themes/lv_theme_mono.c:233:1
	bx	lr
.Ltmp12:
.Lfunc_end3:
	.size	btn_init, .Lfunc_end3-btn_init
	.cfi_endproc
	.cantunwind
	.fnend
                                        @ -- End function
	.section	.text.label_init,"ax",%progbits
	.p2align	3                               @ -- Begin function label_init
	.type	label_init,%function
	.code	16                              @ @label_init
	.thumb_func
label_init:
.Lfunc_begin4:
	.loc	13 324 0                        @ lvgl/src/lv_themes/lv_theme_mono.c:324:0
	.fnstart
	.cfi_startproc
@ %bb.0:
	.loc	13 328 1 prologue_end           @ lvgl/src/lv_themes/lv_theme_mono.c:328:1
	bx	lr
.Ltmp13:
.Lfunc_end4:
	.size	label_init, .Lfunc_end4-label_init
	.cfi_endproc
	.cantunwind
	.fnend
                                        @ -- End function
	.section	.text.bar_init,"ax",%progbits
	.p2align	3                               @ -- Begin function bar_init
	.type	bar_init,%function
	.code	16                              @ @bar_init
	.thumb_func
bar_init:
.Lfunc_begin5:
	.loc	13 222 0                        @ lvgl/src/lv_themes/lv_theme_mono.c:222:0
	.fnstart
	.cfi_startproc
@ %bb.0:
	.loc	13 226 1 prologue_end           @ lvgl/src/lv_themes/lv_theme_mono.c:226:1
	bx	lr
.Ltmp14:
.Lfunc_end5:
	.size	bar_init, .Lfunc_end5-bar_init
	.cfi_endproc
	.cantunwind
	.fnend
                                        @ -- End function
	.section	.text.img_init,"ax",%progbits
	.p2align	3                               @ -- Begin function img_init
	.type	img_init,%function
	.code	16                              @ @img_init
	.thumb_func
img_init:
.Lfunc_begin6:
	.loc	13 317 0                        @ lvgl/src/lv_themes/lv_theme_mono.c:317:0
	.fnstart
	.cfi_startproc
@ %bb.0:
	.loc	13 321 1 prologue_end           @ lvgl/src/lv_themes/lv_theme_mono.c:321:1
	bx	lr
.Ltmp15:
.Lfunc_end6:
	.size	img_init, .Lfunc_end6-img_init
	.cfi_endproc
	.cantunwind
	.fnend
                                        @ -- End function
	.section	.text.line_init,"ax",%progbits
	.p2align	3                               @ -- Begin function line_init
	.type	line_init,%function
	.code	16                              @ @line_init
	.thumb_func
line_init:
.Lfunc_begin7:
	.loc	13 340 0                        @ lvgl/src/lv_themes/lv_theme_mono.c:340:0
	.fnstart
	.cfi_startproc
@ %bb.0:
	.loc	13 344 1 prologue_end           @ lvgl/src/lv_themes/lv_theme_mono.c:344:1
	bx	lr
.Ltmp16:
.Lfunc_end7:
	.size	line_init, .Lfunc_end7-line_init
	.cfi_endproc
	.cantunwind
	.fnend
                                        @ -- End function
	.section	.text.led_init,"ax",%progbits
	.p2align	3                               @ -- Begin function led_init
	.type	led_init,%function
	.code	16                              @ @led_init
	.thumb_func
led_init:
.Lfunc_begin8:
	.loc	13 347 0                        @ lvgl/src/lv_themes/lv_theme_mono.c:347:0
	.fnstart
	.cfi_startproc
@ %bb.0:
	.loc	13 351 1 prologue_end           @ lvgl/src/lv_themes/lv_theme_mono.c:351:1
	bx	lr
.Ltmp17:
.Lfunc_end8:
	.size	led_init, .Lfunc_end8-led_init
	.cfi_endproc
	.cantunwind
	.fnend
                                        @ -- End function
	.section	.text.slider_init,"ax",%progbits
	.p2align	3                               @ -- Begin function slider_init
	.type	slider_init,%function
	.code	16                              @ @slider_init
	.thumb_func
slider_init:
.Lfunc_begin9:
	.loc	13 361 0                        @ lvgl/src/lv_themes/lv_theme_mono.c:361:0
	.fnstart
	.cfi_startproc
@ %bb.0:
	.loc	13 365 1 prologue_end           @ lvgl/src/lv_themes/lv_theme_mono.c:365:1
	bx	lr
.Ltmp18:
.Lfunc_end9:
	.size	slider_init, .Lfunc_end9-slider_init
	.cfi_endproc
	.cantunwind
	.fnend
                                        @ -- End function
	.section	.text.switch_init,"ax",%progbits
	.p2align	3                               @ -- Begin function switch_init
	.type	switch_init,%function
	.code	16                              @ @switch_init
	.thumb_func
switch_init:
.Lfunc_begin10:
	.loc	13 368 0                        @ lvgl/src/lv_themes/lv_theme_mono.c:368:0
	.fnstart
	.cfi_startproc
@ %bb.0:
	.save	{r7, lr}
	push	{r7, lr}
	.cfi_def_cfa_offset 8
	.cfi_offset lr, -4
	.cfi_offset r7, -8
	.pad	#32
	sub	sp, #32
	.cfi_def_cfa_offset 40
.Ltmp19:
	.loc	13 370 21 prologue_end          @ lvgl/src/lv_themes/lv_theme_mono.c:370:21
	movw	r0, :lower16:styles
	movt	r0, :upper16:styles
	str	r0, [sp, #16]                   @ 4-byte Spill
	ldr	r0, [r0]
	.loc	13 370 29 is_stmt 0             @ lvgl/src/lv_themes/lv_theme_mono.c:370:29
	adds	r0, #88
	.loc	13 370 5                        @ lvgl/src/lv_themes/lv_theme_mono.c:370:5
	bl	lv_style_reset
	ldr	r0, [sp, #16]                   @ 4-byte Reload
	.loc	13 371 26 is_stmt 1             @ lvgl/src/lv_themes/lv_theme_mono.c:371:26
	ldr	r0, [r0]
	.loc	13 371 34 is_stmt 0             @ lvgl/src/lv_themes/lv_theme_mono.c:371:34
	adds	r0, #88
	movs	r1, #0
	movs	r2, #255
	.loc	13 371 5                        @ lvgl/src/lv_themes/lv_theme_mono.c:371:5
	bl	lv_style_set_bg_opa
	ldr	r0, [sp, #16]                   @ 4-byte Reload
	.loc	13 372 28 is_stmt 1             @ lvgl/src/lv_themes/lv_theme_mono.c:372:28
	ldr	r0, [r0]
	.loc	13 372 36 is_stmt 0             @ lvgl/src/lv_themes/lv_theme_mono.c:372:36
	adds	r0, #88
	.loc	13 372 58                       @ lvgl/src/lv_themes/lv_theme_mono.c:372:58
	str	r0, [sp, #20]                   @ 4-byte Spill
	movw	r0, :lower16:theme
	movt	r0, :upper16:theme
	ldrb	r0, [r0, #14]
	cbnz	r0, .LBB10_2
	b	.LBB10_1
.LBB10_1:
	.loc	13 0 58                         @ lvgl/src/lv_themes/lv_theme_mono.c:0:58
	movs	r0, #255
	.loc	13 372 58                       @ lvgl/src/lv_themes/lv_theme_mono.c:372:58
	strb.w	r0, [sp, #24]
	strb.w	r0, [sp, #25]
	strb.w	r0, [sp, #26]
	strb.w	r0, [sp, #27]
	b	.LBB10_3
.LBB10_2:
	.loc	13 0 58                         @ lvgl/src/lv_themes/lv_theme_mono.c:0:58
	movs	r0, #0
	.loc	13 372 58                       @ lvgl/src/lv_themes/lv_theme_mono.c:372:58
	strb.w	r0, [sp, #24]
	strb.w	r0, [sp, #25]
	strb.w	r0, [sp, #26]
	movs	r0, #255
	strb.w	r0, [sp, #27]
	b	.LBB10_3
.LBB10_3:
	ldrb.w	r0, [sp, #26]
	cbnz	r0, .LBB10_5
	b	.LBB10_4
.LBB10_4:
	.loc	13 0 58                         @ lvgl/src/lv_themes/lv_theme_mono.c:0:58
	movs	r0, #255
	.loc	13 372 58                       @ lvgl/src/lv_themes/lv_theme_mono.c:372:58
	strb.w	r0, [sp, #28]
	strb.w	r0, [sp, #29]
	strb.w	r0, [sp, #30]
	strb.w	r0, [sp, #31]
	b	.LBB10_6
.LBB10_5:
	.loc	13 0 58                         @ lvgl/src/lv_themes/lv_theme_mono.c:0:58
	movs	r0, #0
	.loc	13 372 58                       @ lvgl/src/lv_themes/lv_theme_mono.c:372:58
	strb.w	r0, [sp, #28]
	strb.w	r0, [sp, #29]
	strb.w	r0, [sp, #30]
	movs	r0, #255
	strb.w	r0, [sp, #31]
	b	.LBB10_6
.LBB10_6:
	.loc	13 372 5                        @ lvgl/src/lv_themes/lv_theme_mono.c:372:5
	ldr	r0, [sp, #20]                   @ 4-byte Reload
	ldr	r2, [sp, #28]
	movs	r1, #0
	str	r1, [sp, #12]                   @ 4-byte Spill
	bl	lv_style_set_bg_color
	ldr	r1, [sp, #12]                   @ 4-byte Reload
	.loc	13 373 26 is_stmt 1             @ lvgl/src/lv_themes/lv_theme_mono.c:373:26
	movw	r0, :lower16:styles
	movt	r0, :upper16:styles
	str	r0, [sp, #8]                    @ 4-byte Spill
	ldr	r0, [r0]
	.loc	13 373 34 is_stmt 0             @ lvgl/src/lv_themes/lv_theme_mono.c:373:34
	adds	r0, #88
	movw	r2, #32767
	.loc	13 373 5                        @ lvgl/src/lv_themes/lv_theme_mono.c:373:5
	bl	lv_style_set_radius
	ldr	r0, [sp, #8]                    @ 4-byte Reload
	ldr	r1, [sp, #12]                   @ 4-byte Reload
	.loc	13 374 29 is_stmt 1             @ lvgl/src/lv_themes/lv_theme_mono.c:374:29
	ldr	r0, [r0]
	.loc	13 374 37 is_stmt 0             @ lvgl/src/lv_themes/lv_theme_mono.c:374:37
	adds	r0, #88
	movs	r2, #4
	.loc	13 374 5                        @ lvgl/src/lv_themes/lv_theme_mono.c:374:5
	str	r2, [sp, #4]                    @ 4-byte Spill
	bl	lv_style_set_pad_right
	ldr	r2, [sp, #4]                    @ 4-byte Reload
	ldr	r0, [sp, #8]                    @ 4-byte Reload
	ldr	r1, [sp, #12]                   @ 4-byte Reload
	.loc	13 375 30 is_stmt 1             @ lvgl/src/lv_themes/lv_theme_mono.c:375:30
	ldr	r0, [r0]
	.loc	13 375 38 is_stmt 0             @ lvgl/src/lv_themes/lv_theme_mono.c:375:38
	adds	r0, #88
	.loc	13 375 5                        @ lvgl/src/lv_themes/lv_theme_mono.c:375:5
	bl	lv_style_set_pad_bottom
	ldr	r0, [sp, #8]                    @ 4-byte Reload
	ldr	r1, [sp, #12]                   @ 4-byte Reload
	.loc	13 376 24 is_stmt 1             @ lvgl/src/lv_themes/lv_theme_mono.c:376:24
	ldr	r0, [r0]
	.loc	13 376 32 is_stmt 0             @ lvgl/src/lv_themes/lv_theme_mono.c:376:32
	adds	r0, #88
	movs	r2, #5
	.loc	13 376 5                        @ lvgl/src/lv_themes/lv_theme_mono.c:376:5
	bl	lv_style_set_size
	.loc	13 378 1 is_stmt 1              @ lvgl/src/lv_themes/lv_theme_mono.c:378:1
	add	sp, #32
	pop	{r7, pc}
.Ltmp20:
.Lfunc_end10:
	.size	switch_init, .Lfunc_end10-switch_init
	.cfi_endproc
	.cantunwind
	.fnend
                                        @ -- End function
	.section	.text.linemeter_init,"ax",%progbits
	.p2align	3                               @ -- Begin function linemeter_init
	.type	linemeter_init,%function
	.code	16                              @ @linemeter_init
	.thumb_func
linemeter_init:
.Lfunc_begin11:
	.loc	13 331 0                        @ lvgl/src/lv_themes/lv_theme_mono.c:331:0
	.fnstart
	.cfi_startproc
@ %bb.0:
	.save	{r7, lr}
	push	{r7, lr}
	.cfi_def_cfa_offset 8
	.cfi_offset lr, -4
	.cfi_offset r7, -8
	.pad	#8
	sub	sp, #8
	.cfi_def_cfa_offset 16
.Ltmp21:
	.loc	13 333 21 prologue_end          @ lvgl/src/lv_themes/lv_theme_mono.c:333:21
	movw	r0, :lower16:styles
	movt	r0, :upper16:styles
	str	r0, [sp]                        @ 4-byte Spill
	ldr	r0, [r0]
	.loc	13 333 29 is_stmt 0             @ lvgl/src/lv_themes/lv_theme_mono.c:333:29
	adds	r0, #76
	.loc	13 333 5                        @ lvgl/src/lv_themes/lv_theme_mono.c:333:5
	bl	lv_style_reset
	ldr	r0, [sp]                        @ 4-byte Reload
	.loc	13 334 30 is_stmt 1             @ lvgl/src/lv_themes/lv_theme_mono.c:334:30
	ldr	r0, [r0]
	.loc	13 334 38 is_stmt 0             @ lvgl/src/lv_themes/lv_theme_mono.c:334:38
	adds	r0, #76
	movs	r1, #0
	str	r1, [sp, #4]                    @ 4-byte Spill
	movs	r2, #5
	.loc	13 334 5                        @ lvgl/src/lv_themes/lv_theme_mono.c:334:5
	bl	lv_style_set_line_width
	ldr	r0, [sp]                        @ 4-byte Reload
	ldr	r1, [sp, #4]                    @ 4-byte Reload
	.loc	13 335 40 is_stmt 1             @ lvgl/src/lv_themes/lv_theme_mono.c:335:40
	ldr	r0, [r0]
	.loc	13 335 48 is_stmt 0             @ lvgl/src/lv_themes/lv_theme_mono.c:335:48
	adds	r0, #76
	movs	r2, #1
	.loc	13 335 5                        @ lvgl/src/lv_themes/lv_theme_mono.c:335:5
	bl	lv_style_set_scale_end_line_width
	.loc	13 337 1 is_stmt 1              @ lvgl/src/lv_themes/lv_theme_mono.c:337:1
	add	sp, #8
	pop	{r7, pc}
.Ltmp22:
.Lfunc_end11:
	.size	linemeter_init, .Lfunc_end11-linemeter_init
	.cfi_endproc
	.cantunwind
	.fnend
                                        @ -- End function
	.section	.text.gauge_init,"ax",%progbits
	.p2align	3                               @ -- Begin function gauge_init
	.type	gauge_init,%function
	.code	16                              @ @gauge_init
	.thumb_func
gauge_init:
.Lfunc_begin12:
	.loc	13 296 0                        @ lvgl/src/lv_themes/lv_theme_mono.c:296:0
	.fnstart
	.cfi_startproc
@ %bb.0:
	.save	{r7, lr}
	push	{r7, lr}
	.cfi_def_cfa_offset 8
	.cfi_offset lr, -4
	.cfi_offset r7, -8
	.pad	#88
	sub	sp, #88
	.cfi_def_cfa_offset 96
.Ltmp23:
	.loc	13 298 21 prologue_end          @ lvgl/src/lv_themes/lv_theme_mono.c:298:21
	movw	r0, :lower16:styles
	movt	r0, :upper16:styles
	str	r0, [sp, #40]                   @ 4-byte Spill
	ldr	r0, [r0]
	.loc	13 298 29 is_stmt 0             @ lvgl/src/lv_themes/lv_theme_mono.c:298:29
	adds	r0, #80
	.loc	13 298 5                        @ lvgl/src/lv_themes/lv_theme_mono.c:298:5
	bl	lv_style_reset
	ldr	r0, [sp, #40]                   @ 4-byte Reload
	.loc	13 299 30 is_stmt 1             @ lvgl/src/lv_themes/lv_theme_mono.c:299:30
	ldr	r0, [r0]
	.loc	13 299 38 is_stmt 0             @ lvgl/src/lv_themes/lv_theme_mono.c:299:38
	adds	r0, #80
	movs	r1, #0
	movs	r2, #4
	.loc	13 299 5                        @ lvgl/src/lv_themes/lv_theme_mono.c:299:5
	bl	lv_style_set_line_width
	ldr	r0, [sp, #40]                   @ 4-byte Reload
	.loc	13 300 30 is_stmt 1             @ lvgl/src/lv_themes/lv_theme_mono.c:300:30
	ldr	r0, [r0]
	.loc	13 300 38 is_stmt 0             @ lvgl/src/lv_themes/lv_theme_mono.c:300:38
	adds	r0, #80
	.loc	13 300 70                       @ lvgl/src/lv_themes/lv_theme_mono.c:300:70
	str	r0, [sp, #44]                   @ 4-byte Spill
	movw	r0, :lower16:theme
	movt	r0, :upper16:theme
	ldrb	r0, [r0, #14]
	cbnz	r0, .LBB12_2
	b	.LBB12_1
.LBB12_1:
	.loc	13 0 70                         @ lvgl/src/lv_themes/lv_theme_mono.c:0:70
	movs	r0, #255
	.loc	13 300 70                       @ lvgl/src/lv_themes/lv_theme_mono.c:300:70
	strb.w	r0, [sp, #80]
	strb.w	r0, [sp, #81]
	strb.w	r0, [sp, #82]
	strb.w	r0, [sp, #83]
	b	.LBB12_3
.LBB12_2:
	.loc	13 0 70                         @ lvgl/src/lv_themes/lv_theme_mono.c:0:70
	movs	r0, #0
	.loc	13 300 70                       @ lvgl/src/lv_themes/lv_theme_mono.c:300:70
	strb.w	r0, [sp, #80]
	strb.w	r0, [sp, #81]
	strb.w	r0, [sp, #82]
	movs	r0, #255
	strb.w	r0, [sp, #83]
	b	.LBB12_3
.LBB12_3:
	ldrb.w	r0, [sp, #82]
	cbnz	r0, .LBB12_5
	b	.LBB12_4
.LBB12_4:
	.loc	13 0 70                         @ lvgl/src/lv_themes/lv_theme_mono.c:0:70
	movs	r0, #255
	.loc	13 300 70                       @ lvgl/src/lv_themes/lv_theme_mono.c:300:70
	strb.w	r0, [sp, #84]
	strb.w	r0, [sp, #85]
	strb.w	r0, [sp, #86]
	strb.w	r0, [sp, #87]
	b	.LBB12_6
.LBB12_5:
	.loc	13 0 70                         @ lvgl/src/lv_themes/lv_theme_mono.c:0:70
	movs	r0, #0
	.loc	13 300 70                       @ lvgl/src/lv_themes/lv_theme_mono.c:300:70
	strb.w	r0, [sp, #84]
	strb.w	r0, [sp, #85]
	strb.w	r0, [sp, #86]
	movs	r0, #255
	strb.w	r0, [sp, #87]
	b	.LBB12_6
.LBB12_6:
	.loc	13 300 5                        @ lvgl/src/lv_themes/lv_theme_mono.c:300:5
	ldr	r0, [sp, #44]                   @ 4-byte Reload
	ldr	r2, [sp, #84]
	movs	r1, #0
	str	r1, [sp, #28]                   @ 4-byte Spill
	bl	lv_style_set_line_color
	ldr	r1, [sp, #28]                   @ 4-byte Reload
	.loc	13 301 24 is_stmt 1             @ lvgl/src/lv_themes/lv_theme_mono.c:301:24
	movw	r0, :lower16:styles
	movt	r0, :upper16:styles
	str	r0, [sp, #32]                   @ 4-byte Spill
	ldr	r0, [r0]
	.loc	13 301 32 is_stmt 0             @ lvgl/src/lv_themes/lv_theme_mono.c:301:32
	adds	r0, #80
	movs	r2, #13
	.loc	13 301 5                        @ lvgl/src/lv_themes/lv_theme_mono.c:301:5
	bl	lv_style_set_size
	ldr	r1, [sp, #28]                   @ 4-byte Reload
	ldr	r0, [sp, #32]                   @ 4-byte Reload
	.loc	13 302 26 is_stmt 1             @ lvgl/src/lv_themes/lv_theme_mono.c:302:26
	ldr	r0, [r0]
	.loc	13 302 34 is_stmt 0             @ lvgl/src/lv_themes/lv_theme_mono.c:302:34
	adds	r0, #80
	movs	r2, #255
	.loc	13 302 5                        @ lvgl/src/lv_themes/lv_theme_mono.c:302:5
	bl	lv_style_set_bg_opa
	ldr	r0, [sp, #32]                   @ 4-byte Reload
	.loc	13 303 28 is_stmt 1             @ lvgl/src/lv_themes/lv_theme_mono.c:303:28
	ldr	r0, [r0]
	.loc	13 303 36 is_stmt 0             @ lvgl/src/lv_themes/lv_theme_mono.c:303:36
	adds	r0, #80
	.loc	13 303 68                       @ lvgl/src/lv_themes/lv_theme_mono.c:303:68
	str	r0, [sp, #36]                   @ 4-byte Spill
	movw	r0, :lower16:theme
	movt	r0, :upper16:theme
	ldrb	r0, [r0, #14]
	cbnz	r0, .LBB12_8
	b	.LBB12_7
.LBB12_7:
	.loc	13 0 68                         @ lvgl/src/lv_themes/lv_theme_mono.c:0:68
	movs	r0, #255
	.loc	13 303 68                       @ lvgl/src/lv_themes/lv_theme_mono.c:303:68
	strb.w	r0, [sp, #72]
	strb.w	r0, [sp, #73]
	strb.w	r0, [sp, #74]
	strb.w	r0, [sp, #75]
	b	.LBB12_9
.LBB12_8:
	.loc	13 0 68                         @ lvgl/src/lv_themes/lv_theme_mono.c:0:68
	movs	r0, #0
	.loc	13 303 68                       @ lvgl/src/lv_themes/lv_theme_mono.c:303:68
	strb.w	r0, [sp, #72]
	strb.w	r0, [sp, #73]
	strb.w	r0, [sp, #74]
	movs	r0, #255
	strb.w	r0, [sp, #75]
	b	.LBB12_9
.LBB12_9:
	ldrb.w	r0, [sp, #74]
	cbnz	r0, .LBB12_11
	b	.LBB12_10
.LBB12_10:
	.loc	13 0 68                         @ lvgl/src/lv_themes/lv_theme_mono.c:0:68
	movs	r0, #255
	.loc	13 303 68                       @ lvgl/src/lv_themes/lv_theme_mono.c:303:68
	strb.w	r0, [sp, #76]
	strb.w	r0, [sp, #77]
	strb.w	r0, [sp, #78]
	strb.w	r0, [sp, #79]
	b	.LBB12_12
.LBB12_11:
	.loc	13 0 68                         @ lvgl/src/lv_themes/lv_theme_mono.c:0:68
	movs	r0, #0
	.loc	13 303 68                       @ lvgl/src/lv_themes/lv_theme_mono.c:303:68
	strb.w	r0, [sp, #76]
	strb.w	r0, [sp, #77]
	strb.w	r0, [sp, #78]
	movs	r0, #255
	strb.w	r0, [sp, #79]
	b	.LBB12_12
.LBB12_12:
	.loc	13 303 5                        @ lvgl/src/lv_themes/lv_theme_mono.c:303:5
	ldr	r0, [sp, #36]                   @ 4-byte Reload
	ldr	r2, [sp, #76]
	movs	r1, #0
	str	r1, [sp, #16]                   @ 4-byte Spill
	bl	lv_style_set_bg_color
	ldr	r1, [sp, #16]                   @ 4-byte Reload
	.loc	13 304 26 is_stmt 1             @ lvgl/src/lv_themes/lv_theme_mono.c:304:26
	movw	r0, :lower16:styles
	movt	r0, :upper16:styles
	str	r0, [sp, #20]                   @ 4-byte Spill
	ldr	r0, [r0]
	.loc	13 304 34 is_stmt 0             @ lvgl/src/lv_themes/lv_theme_mono.c:304:34
	adds	r0, #80
	movw	r2, #32767
	.loc	13 304 5                        @ lvgl/src/lv_themes/lv_theme_mono.c:304:5
	bl	lv_style_set_radius
	ldr	r0, [sp, #20]                   @ 4-byte Reload
	.loc	13 306 21 is_stmt 1             @ lvgl/src/lv_themes/lv_theme_mono.c:306:21
	ldr	r0, [r0]
	.loc	13 306 29 is_stmt 0             @ lvgl/src/lv_themes/lv_theme_mono.c:306:29
	adds	r0, #84
	.loc	13 306 5                        @ lvgl/src/lv_themes/lv_theme_mono.c:306:5
	bl	lv_style_reset
	ldr	r1, [sp, #16]                   @ 4-byte Reload
	ldr	r0, [sp, #20]                   @ 4-byte Reload
	.loc	13 307 30 is_stmt 1             @ lvgl/src/lv_themes/lv_theme_mono.c:307:30
	ldr	r0, [r0]
	.loc	13 307 38 is_stmt 0             @ lvgl/src/lv_themes/lv_theme_mono.c:307:38
	adds	r0, #84
	movs	r2, #5
	.loc	13 307 5                        @ lvgl/src/lv_themes/lv_theme_mono.c:307:5
	bl	lv_style_set_line_width
	ldr	r0, [sp, #20]                   @ 4-byte Reload
	.loc	13 308 30 is_stmt 1             @ lvgl/src/lv_themes/lv_theme_mono.c:308:30
	ldr	r0, [r0]
	.loc	13 308 38 is_stmt 0             @ lvgl/src/lv_themes/lv_theme_mono.c:308:38
	adds	r0, #84
	.loc	13 308 69                       @ lvgl/src/lv_themes/lv_theme_mono.c:308:69
	str	r0, [sp, #24]                   @ 4-byte Spill
	movw	r0, :lower16:theme
	movt	r0, :upper16:theme
	ldrb	r0, [r0, #14]
	cbnz	r0, .LBB12_14
	b	.LBB12_13
.LBB12_13:
	.loc	13 0 69                         @ lvgl/src/lv_themes/lv_theme_mono.c:0:69
	movs	r0, #255
	.loc	13 308 69                       @ lvgl/src/lv_themes/lv_theme_mono.c:308:69
	strb.w	r0, [sp, #64]
	strb.w	r0, [sp, #65]
	strb.w	r0, [sp, #66]
	strb.w	r0, [sp, #67]
	b	.LBB12_15
.LBB12_14:
	.loc	13 0 69                         @ lvgl/src/lv_themes/lv_theme_mono.c:0:69
	movs	r0, #0
	.loc	13 308 69                       @ lvgl/src/lv_themes/lv_theme_mono.c:308:69
	strb.w	r0, [sp, #64]
	strb.w	r0, [sp, #65]
	strb.w	r0, [sp, #66]
	movs	r0, #255
	strb.w	r0, [sp, #67]
	b	.LBB12_15
.LBB12_15:
	ldrb.w	r0, [sp, #66]
	cbnz	r0, .LBB12_17
	b	.LBB12_16
.LBB12_16:
	.loc	13 0 69                         @ lvgl/src/lv_themes/lv_theme_mono.c:0:69
	movs	r0, #255
	.loc	13 308 69                       @ lvgl/src/lv_themes/lv_theme_mono.c:308:69
	strb.w	r0, [sp, #68]
	strb.w	r0, [sp, #69]
	strb.w	r0, [sp, #70]
	strb.w	r0, [sp, #71]
	b	.LBB12_18
.LBB12_17:
	.loc	13 0 69                         @ lvgl/src/lv_themes/lv_theme_mono.c:0:69
	movs	r0, #0
	.loc	13 308 69                       @ lvgl/src/lv_themes/lv_theme_mono.c:308:69
	strb.w	r0, [sp, #68]
	strb.w	r0, [sp, #69]
	strb.w	r0, [sp, #70]
	movs	r0, #255
	strb.w	r0, [sp, #71]
	b	.LBB12_18
.LBB12_18:
	.loc	13 308 5                        @ lvgl/src/lv_themes/lv_theme_mono.c:308:5
	ldr	r0, [sp, #24]                   @ 4-byte Reload
	ldr	r2, [sp, #68]
	movs	r1, #0
	bl	lv_style_set_line_color
	.loc	13 309 35 is_stmt 1             @ lvgl/src/lv_themes/lv_theme_mono.c:309:35
	movw	r0, :lower16:styles
	movt	r0, :upper16:styles
	ldr	r0, [r0]
	.loc	13 309 43 is_stmt 0             @ lvgl/src/lv_themes/lv_theme_mono.c:309:43
	adds	r0, #84
	.loc	13 309 74                       @ lvgl/src/lv_themes/lv_theme_mono.c:309:74
	str	r0, [sp, #12]                   @ 4-byte Spill
	movw	r0, :lower16:theme
	movt	r0, :upper16:theme
	ldrb	r0, [r0, #14]
	cbnz	r0, .LBB12_20
	b	.LBB12_19
.LBB12_19:
	.loc	13 0 74                         @ lvgl/src/lv_themes/lv_theme_mono.c:0:74
	movs	r0, #255
	.loc	13 309 74                       @ lvgl/src/lv_themes/lv_theme_mono.c:309:74
	strb.w	r0, [sp, #56]
	strb.w	r0, [sp, #57]
	strb.w	r0, [sp, #58]
	strb.w	r0, [sp, #59]
	b	.LBB12_21
.LBB12_20:
	.loc	13 0 74                         @ lvgl/src/lv_themes/lv_theme_mono.c:0:74
	movs	r0, #0
	.loc	13 309 74                       @ lvgl/src/lv_themes/lv_theme_mono.c:309:74
	strb.w	r0, [sp, #56]
	strb.w	r0, [sp, #57]
	strb.w	r0, [sp, #58]
	movs	r0, #255
	strb.w	r0, [sp, #59]
	b	.LBB12_21
.LBB12_21:
	ldrb.w	r0, [sp, #58]
	cbnz	r0, .LBB12_23
	b	.LBB12_22
.LBB12_22:
	.loc	13 0 74                         @ lvgl/src/lv_themes/lv_theme_mono.c:0:74
	movs	r0, #255
	.loc	13 309 74                       @ lvgl/src/lv_themes/lv_theme_mono.c:309:74
	strb.w	r0, [sp, #60]
	strb.w	r0, [sp, #61]
	strb.w	r0, [sp, #62]
	strb.w	r0, [sp, #63]
	b	.LBB12_24
.LBB12_23:
	.loc	13 0 74                         @ lvgl/src/lv_themes/lv_theme_mono.c:0:74
	movs	r0, #0
	.loc	13 309 74                       @ lvgl/src/lv_themes/lv_theme_mono.c:309:74
	strb.w	r0, [sp, #60]
	strb.w	r0, [sp, #61]
	strb.w	r0, [sp, #62]
	movs	r0, #255
	strb.w	r0, [sp, #63]
	b	.LBB12_24
.LBB12_24:
	.loc	13 309 5                        @ lvgl/src/lv_themes/lv_theme_mono.c:309:5
	ldr	r0, [sp, #12]                   @ 4-byte Reload
	ldr	r2, [sp, #60]
	movs	r1, #0
	bl	lv_style_set_scale_end_color
	.loc	13 310 36 is_stmt 1             @ lvgl/src/lv_themes/lv_theme_mono.c:310:36
	movw	r0, :lower16:styles
	movt	r0, :upper16:styles
	ldr	r0, [r0]
	.loc	13 310 44 is_stmt 0             @ lvgl/src/lv_themes/lv_theme_mono.c:310:44
	adds	r0, #84
	.loc	13 310 75                       @ lvgl/src/lv_themes/lv_theme_mono.c:310:75
	str	r0, [sp, #8]                    @ 4-byte Spill
	movw	r0, :lower16:theme
	movt	r0, :upper16:theme
	ldrb	r0, [r0, #14]
	cbnz	r0, .LBB12_26
	b	.LBB12_25
.LBB12_25:
	.loc	13 0 75                         @ lvgl/src/lv_themes/lv_theme_mono.c:0:75
	movs	r0, #255
	.loc	13 310 75                       @ lvgl/src/lv_themes/lv_theme_mono.c:310:75
	strb.w	r0, [sp, #48]
	strb.w	r0, [sp, #49]
	strb.w	r0, [sp, #50]
	strb.w	r0, [sp, #51]
	b	.LBB12_27
.LBB12_26:
	.loc	13 0 75                         @ lvgl/src/lv_themes/lv_theme_mono.c:0:75
	movs	r0, #0
	.loc	13 310 75                       @ lvgl/src/lv_themes/lv_theme_mono.c:310:75
	strb.w	r0, [sp, #48]
	strb.w	r0, [sp, #49]
	strb.w	r0, [sp, #50]
	movs	r0, #255
	strb.w	r0, [sp, #51]
	b	.LBB12_27
.LBB12_27:
	ldrb.w	r0, [sp, #50]
	cbnz	r0, .LBB12_29
	b	.LBB12_28
.LBB12_28:
	.loc	13 0 75                         @ lvgl/src/lv_themes/lv_theme_mono.c:0:75
	movs	r0, #255
	.loc	13 310 75                       @ lvgl/src/lv_themes/lv_theme_mono.c:310:75
	strb.w	r0, [sp, #52]
	strb.w	r0, [sp, #53]
	strb.w	r0, [sp, #54]
	strb.w	r0, [sp, #55]
	b	.LBB12_30
.LBB12_29:
	.loc	13 0 75                         @ lvgl/src/lv_themes/lv_theme_mono.c:0:75
	movs	r0, #0
	.loc	13 310 75                       @ lvgl/src/lv_themes/lv_theme_mono.c:310:75
	strb.w	r0, [sp, #52]
	strb.w	r0, [sp, #53]
	strb.w	r0, [sp, #54]
	movs	r0, #255
	strb.w	r0, [sp, #55]
	b	.LBB12_30
.LBB12_30:
	.loc	13 310 5                        @ lvgl/src/lv_themes/lv_theme_mono.c:310:5
	ldr	r0, [sp, #8]                    @ 4-byte Reload
	ldr	r2, [sp, #52]
	movs	r1, #0
	str	r1, [sp, #4]                    @ 4-byte Spill
	bl	lv_style_set_scale_grad_color
	ldr	r1, [sp, #4]                    @ 4-byte Reload
	.loc	13 311 40 is_stmt 1             @ lvgl/src/lv_themes/lv_theme_mono.c:311:40
	movw	r0, :lower16:styles
	movt	r0, :upper16:styles
	ldr	r0, [r0]
	.loc	13 311 48 is_stmt 0             @ lvgl/src/lv_themes/lv_theme_mono.c:311:48
	adds	r0, #84
	movs	r2, #5
	.loc	13 311 5                        @ lvgl/src/lv_themes/lv_theme_mono.c:311:5
	bl	lv_style_set_scale_end_line_width
	.loc	13 314 1 is_stmt 1              @ lvgl/src/lv_themes/lv_theme_mono.c:314:1
	add	sp, #88
	pop	{r7, pc}
.Ltmp24:
.Lfunc_end12:
	.size	gauge_init, .Lfunc_end12-gauge_init
	.cfi_endproc
	.cantunwind
	.fnend
                                        @ -- End function
	.section	.text.arc_init,"ax",%progbits
	.p2align	3                               @ -- Begin function arc_init
	.type	arc_init,%function
	.code	16                              @ @arc_init
	.thumb_func
arc_init:
.Lfunc_begin13:
	.loc	13 209 0                        @ lvgl/src/lv_themes/lv_theme_mono.c:209:0
	.fnstart
	.cfi_startproc
@ %bb.0:
	.save	{r7, lr}
	push	{r7, lr}
	.cfi_def_cfa_offset 8
	.cfi_offset lr, -4
	.cfi_offset r7, -8
	.pad	#40
	sub	sp, #40
	.cfi_def_cfa_offset 48
.Ltmp25:
	.loc	13 211 21 prologue_end          @ lvgl/src/lv_themes/lv_theme_mono.c:211:21
	movw	r0, :lower16:styles
	movt	r0, :upper16:styles
	str	r0, [sp, #16]                   @ 4-byte Spill
	ldr	r0, [r0]
	.loc	13 211 29 is_stmt 0             @ lvgl/src/lv_themes/lv_theme_mono.c:211:29
	adds	r0, #56
	.loc	13 211 5                        @ lvgl/src/lv_themes/lv_theme_mono.c:211:5
	bl	lv_style_reset
	ldr	r0, [sp, #16]                   @ 4-byte Reload
	.loc	13 212 30 is_stmt 1             @ lvgl/src/lv_themes/lv_theme_mono.c:212:30
	ldr	r0, [r0]
	.loc	13 212 38 is_stmt 0             @ lvgl/src/lv_themes/lv_theme_mono.c:212:38
	adds	r0, #56
	movs	r1, #0
	movs	r2, #1
	.loc	13 212 5                        @ lvgl/src/lv_themes/lv_theme_mono.c:212:5
	bl	lv_style_set_line_width
	ldr	r0, [sp, #16]                   @ 4-byte Reload
	.loc	13 213 30 is_stmt 1             @ lvgl/src/lv_themes/lv_theme_mono.c:213:30
	ldr	r0, [r0]
	.loc	13 213 38 is_stmt 0             @ lvgl/src/lv_themes/lv_theme_mono.c:213:38
	adds	r0, #56
	.loc	13 213 64                       @ lvgl/src/lv_themes/lv_theme_mono.c:213:64
	str	r0, [sp, #20]                   @ 4-byte Spill
	movw	r0, :lower16:theme
	movt	r0, :upper16:theme
	ldrb	r0, [r0, #14]
	cbnz	r0, .LBB13_2
	b	.LBB13_1
.LBB13_1:
	.loc	13 0 64                         @ lvgl/src/lv_themes/lv_theme_mono.c:0:64
	movs	r0, #255
	.loc	13 213 64                       @ lvgl/src/lv_themes/lv_theme_mono.c:213:64
	strb.w	r0, [sp, #32]
	strb.w	r0, [sp, #33]
	strb.w	r0, [sp, #34]
	strb.w	r0, [sp, #35]
	b	.LBB13_3
.LBB13_2:
	.loc	13 0 64                         @ lvgl/src/lv_themes/lv_theme_mono.c:0:64
	movs	r0, #0
	.loc	13 213 64                       @ lvgl/src/lv_themes/lv_theme_mono.c:213:64
	strb.w	r0, [sp, #32]
	strb.w	r0, [sp, #33]
	strb.w	r0, [sp, #34]
	movs	r0, #255
	strb.w	r0, [sp, #35]
	b	.LBB13_3
.LBB13_3:
	ldrb.w	r0, [sp, #34]
	cbnz	r0, .LBB13_5
	b	.LBB13_4
.LBB13_4:
	.loc	13 0 64                         @ lvgl/src/lv_themes/lv_theme_mono.c:0:64
	movs	r0, #255
	.loc	13 213 64                       @ lvgl/src/lv_themes/lv_theme_mono.c:213:64
	strb.w	r0, [sp, #36]
	strb.w	r0, [sp, #37]
	strb.w	r0, [sp, #38]
	strb.w	r0, [sp, #39]
	b	.LBB13_6
.LBB13_5:
	.loc	13 0 64                         @ lvgl/src/lv_themes/lv_theme_mono.c:0:64
	movs	r0, #0
	.loc	13 213 64                       @ lvgl/src/lv_themes/lv_theme_mono.c:213:64
	strb.w	r0, [sp, #36]
	strb.w	r0, [sp, #37]
	strb.w	r0, [sp, #38]
	movs	r0, #255
	strb.w	r0, [sp, #39]
	b	.LBB13_6
.LBB13_6:
	.loc	13 213 5                        @ lvgl/src/lv_themes/lv_theme_mono.c:213:5
	ldr	r0, [sp, #20]                   @ 4-byte Reload
	ldr	r2, [sp, #36]
	movs	r1, #0
	str	r1, [sp, #4]                    @ 4-byte Spill
	bl	lv_style_set_line_color
	.loc	13 215 21 is_stmt 1             @ lvgl/src/lv_themes/lv_theme_mono.c:215:21
	movw	r0, :lower16:styles
	movt	r0, :upper16:styles
	str	r0, [sp, #8]                    @ 4-byte Spill
	ldr	r0, [r0]
	.loc	13 215 29 is_stmt 0             @ lvgl/src/lv_themes/lv_theme_mono.c:215:29
	adds	r0, #60
	.loc	13 215 5                        @ lvgl/src/lv_themes/lv_theme_mono.c:215:5
	bl	lv_style_reset
	ldr	r1, [sp, #4]                    @ 4-byte Reload
	ldr	r0, [sp, #8]                    @ 4-byte Reload
	.loc	13 216 30 is_stmt 1             @ lvgl/src/lv_themes/lv_theme_mono.c:216:30
	ldr	r0, [r0]
	.loc	13 216 38 is_stmt 0             @ lvgl/src/lv_themes/lv_theme_mono.c:216:38
	adds	r0, #60
	movs	r2, #13
	.loc	13 216 5                        @ lvgl/src/lv_themes/lv_theme_mono.c:216:5
	bl	lv_style_set_line_width
	ldr	r0, [sp, #8]                    @ 4-byte Reload
	.loc	13 217 30 is_stmt 1             @ lvgl/src/lv_themes/lv_theme_mono.c:217:30
	ldr	r0, [r0]
	.loc	13 217 38 is_stmt 0             @ lvgl/src/lv_themes/lv_theme_mono.c:217:38
	adds	r0, #60
	.loc	13 217 67                       @ lvgl/src/lv_themes/lv_theme_mono.c:217:67
	str	r0, [sp, #12]                   @ 4-byte Spill
	movw	r0, :lower16:theme
	movt	r0, :upper16:theme
	ldrb	r0, [r0, #14]
	cbnz	r0, .LBB13_8
	b	.LBB13_7
.LBB13_7:
	.loc	13 0 67                         @ lvgl/src/lv_themes/lv_theme_mono.c:0:67
	movs	r0, #255
	.loc	13 217 67                       @ lvgl/src/lv_themes/lv_theme_mono.c:217:67
	strb.w	r0, [sp, #24]
	strb.w	r0, [sp, #25]
	strb.w	r0, [sp, #26]
	strb.w	r0, [sp, #27]
	b	.LBB13_9
.LBB13_8:
	.loc	13 0 67                         @ lvgl/src/lv_themes/lv_theme_mono.c:0:67
	movs	r0, #0
	.loc	13 217 67                       @ lvgl/src/lv_themes/lv_theme_mono.c:217:67
	strb.w	r0, [sp, #24]
	strb.w	r0, [sp, #25]
	strb.w	r0, [sp, #26]
	movs	r0, #255
	strb.w	r0, [sp, #27]
	b	.LBB13_9
.LBB13_9:
	ldrb.w	r0, [sp, #26]
	cbnz	r0, .LBB13_11
	b	.LBB13_10
.LBB13_10:
	.loc	13 0 67                         @ lvgl/src/lv_themes/lv_theme_mono.c:0:67
	movs	r0, #255
	.loc	13 217 67                       @ lvgl/src/lv_themes/lv_theme_mono.c:217:67
	strb.w	r0, [sp, #28]
	strb.w	r0, [sp, #29]
	strb.w	r0, [sp, #30]
	strb.w	r0, [sp, #31]
	b	.LBB13_12
.LBB13_11:
	.loc	13 0 67                         @ lvgl/src/lv_themes/lv_theme_mono.c:0:67
	movs	r0, #0
	.loc	13 217 67                       @ lvgl/src/lv_themes/lv_theme_mono.c:217:67
	strb.w	r0, [sp, #28]
	strb.w	r0, [sp, #29]
	strb.w	r0, [sp, #30]
	movs	r0, #255
	strb.w	r0, [sp, #31]
	b	.LBB13_12
.LBB13_12:
	.loc	13 217 5                        @ lvgl/src/lv_themes/lv_theme_mono.c:217:5
	ldr	r0, [sp, #12]                   @ 4-byte Reload
	ldr	r2, [sp, #28]
	movs	r1, #0
	bl	lv_style_set_line_color
	.loc	13 219 1 is_stmt 1              @ lvgl/src/lv_themes/lv_theme_mono.c:219:1
	add	sp, #40
	pop	{r7, pc}
.Ltmp26:
.Lfunc_end13:
	.size	arc_init, .Lfunc_end13-arc_init
	.cfi_endproc
	.cantunwind
	.fnend
                                        @ -- End function
	.section	.text.spinner_init,"ax",%progbits
	.p2align	3                               @ -- Begin function spinner_init
	.type	spinner_init,%function
	.code	16                              @ @spinner_init
	.thumb_func
spinner_init:
.Lfunc_begin14:
	.loc	13 388 0                        @ lvgl/src/lv_themes/lv_theme_mono.c:388:0
	.fnstart
	.cfi_startproc
@ %bb.0:
	.loc	13 392 1 prologue_end           @ lvgl/src/lv_themes/lv_theme_mono.c:392:1
	bx	lr
.Ltmp27:
.Lfunc_end14:
	.size	spinner_init, .Lfunc_end14-spinner_init
	.cfi_endproc
	.cantunwind
	.fnend
                                        @ -- End function
	.section	.text.chart_init,"ax",%progbits
	.p2align	3                               @ -- Begin function chart_init
	.type	chart_init,%function
	.code	16                              @ @chart_init
	.thumb_func
chart_init:
.Lfunc_begin15:
	.loc	13 264 0                        @ lvgl/src/lv_themes/lv_theme_mono.c:264:0
	.fnstart
	.cfi_startproc
@ %bb.0:
	.save	{r7, lr}
	push	{r7, lr}
	.cfi_def_cfa_offset 8
	.cfi_offset lr, -4
	.cfi_offset r7, -8
	.pad	#8
	sub	sp, #8
	.cfi_def_cfa_offset 16
.Ltmp28:
	.loc	13 266 21 prologue_end          @ lvgl/src/lv_themes/lv_theme_mono.c:266:21
	movw	r0, :lower16:styles
	movt	r0, :upper16:styles
	str	r0, [sp]                        @ 4-byte Spill
	ldr	r0, [r0]
	.loc	13 266 29 is_stmt 0             @ lvgl/src/lv_themes/lv_theme_mono.c:266:29
	adds	r0, #72
	.loc	13 266 5                        @ lvgl/src/lv_themes/lv_theme_mono.c:266:5
	bl	lv_style_reset
	ldr	r0, [sp]                        @ 4-byte Reload
	.loc	13 267 24 is_stmt 1             @ lvgl/src/lv_themes/lv_theme_mono.c:267:24
	ldr	r0, [r0]
	.loc	13 267 32 is_stmt 0             @ lvgl/src/lv_themes/lv_theme_mono.c:267:32
	adds	r0, #72
	movs	r2, #0
	.loc	13 267 5                        @ lvgl/src/lv_themes/lv_theme_mono.c:267:5
	str	r2, [sp, #4]                    @ 4-byte Spill
	mov	r1, r2
	bl	lv_style_set_size
	ldr	r0, [sp]                        @ 4-byte Reload
	ldr	r2, [sp, #4]                    @ 4-byte Reload
	.loc	13 268 26 is_stmt 1             @ lvgl/src/lv_themes/lv_theme_mono.c:268:26
	ldr	r0, [r0]
	.loc	13 268 34 is_stmt 0             @ lvgl/src/lv_themes/lv_theme_mono.c:268:34
	adds	r0, #72
	.loc	13 268 5                        @ lvgl/src/lv_themes/lv_theme_mono.c:268:5
	mov	r1, r2
	bl	lv_style_set_bg_opa
	ldr	r0, [sp]                        @ 4-byte Reload
	ldr	r1, [sp, #4]                    @ 4-byte Reload
	.loc	13 269 30 is_stmt 1             @ lvgl/src/lv_themes/lv_theme_mono.c:269:30
	ldr	r0, [r0]
	.loc	13 269 38 is_stmt 0             @ lvgl/src/lv_themes/lv_theme_mono.c:269:38
	adds	r0, #72
	movs	r2, #2
	.loc	13 269 5                        @ lvgl/src/lv_themes/lv_theme_mono.c:269:5
	bl	lv_style_set_line_width
	.loc	13 272 1 is_stmt 1              @ lvgl/src/lv_themes/lv_theme_mono.c:272:1
	add	sp, #8
	pop	{r7, pc}
.Ltmp29:
.Lfunc_end15:
	.size	chart_init, .Lfunc_end15-chart_init
	.cfi_endproc
	.cantunwind
	.fnend
                                        @ -- End function
	.section	.text.calendar_init,"ax",%progbits
	.p2align	3                               @ -- Begin function calendar_init
	.type	calendar_init,%function
	.code	16                              @ @calendar_init
	.thumb_func
calendar_init:
.Lfunc_begin16:
	.loc	13 243 0                        @ lvgl/src/lv_themes/lv_theme_mono.c:243:0
	.fnstart
	.cfi_startproc
@ %bb.0:
	.save	{r7, lr}
	push	{r7, lr}
	.cfi_def_cfa_offset 8
	.cfi_offset lr, -4
	.cfi_offset r7, -8
	.pad	#88
	sub	sp, #88
	.cfi_def_cfa_offset 96
.Ltmp30:
	.loc	13 245 21 prologue_end          @ lvgl/src/lv_themes/lv_theme_mono.c:245:21
	movw	r0, :lower16:styles
	movt	r0, :upper16:styles
	str	r0, [sp, #44]                   @ 4-byte Spill
	ldr	r0, [r0]
	.loc	13 245 29 is_stmt 0             @ lvgl/src/lv_themes/lv_theme_mono.c:245:29
	adds	r0, #68
	.loc	13 245 5                        @ lvgl/src/lv_themes/lv_theme_mono.c:245:5
	bl	lv_style_reset
	ldr	r0, [sp, #44]                   @ 4-byte Reload
	.loc	13 246 29 is_stmt 1             @ lvgl/src/lv_themes/lv_theme_mono.c:246:29
	ldr	r0, [r0]
	.loc	13 246 37 is_stmt 0             @ lvgl/src/lv_themes/lv_theme_mono.c:246:37
	adds	r0, #68
	.loc	13 246 5                        @ lvgl/src/lv_themes/lv_theme_mono.c:246:5
	movw	r2, :lower16:.L.str
	movt	r2, :upper16:.L.str
	movs	r1, #1
	str	r1, [sp, #40]                   @ 4-byte Spill
	bl	lv_style_set_value_str
	ldr	r1, [sp, #40]                   @ 4-byte Reload
	ldr	r0, [sp, #44]                   @ 4-byte Reload
	.loc	13 247 30 is_stmt 1             @ lvgl/src/lv_themes/lv_theme_mono.c:247:30
	ldr	r0, [r0]
	.loc	13 247 38 is_stmt 0             @ lvgl/src/lv_themes/lv_theme_mono.c:247:38
	adds	r0, #68
	.loc	13 247 5                        @ lvgl/src/lv_themes/lv_theme_mono.c:247:5
	movw	r2, :lower16:lv_font_montserrat_14
	movt	r2, :upper16:lv_font_montserrat_14
	bl	lv_style_set_value_font
	ldr	r1, [sp, #40]                   @ 4-byte Reload
	ldr	r0, [sp, #44]                   @ 4-byte Reload
	.loc	13 248 31 is_stmt 1             @ lvgl/src/lv_themes/lv_theme_mono.c:248:31
	ldr	r0, [r0]
	.loc	13 248 39 is_stmt 0             @ lvgl/src/lv_themes/lv_theme_mono.c:248:39
	adds	r0, #68
	movs	r2, #3
	.loc	13 248 5                        @ lvgl/src/lv_themes/lv_theme_mono.c:248:5
	bl	lv_style_set_value_align
	ldr	r0, [sp, #44]                   @ 4-byte Reload
	.loc	13 249 31 is_stmt 1             @ lvgl/src/lv_themes/lv_theme_mono.c:249:31
	ldr	r0, [r0]
	.loc	13 249 39 is_stmt 0             @ lvgl/src/lv_themes/lv_theme_mono.c:249:39
	adds	r0, #68
	.loc	13 249 72                       @ lvgl/src/lv_themes/lv_theme_mono.c:249:72
	str	r0, [sp, #48]                   @ 4-byte Spill
	movw	r0, :lower16:theme
	movt	r0, :upper16:theme
	ldrb	r0, [r0, #14]
	cbnz	r0, .LBB16_2
	b	.LBB16_1
.LBB16_1:
	.loc	13 0 72                         @ lvgl/src/lv_themes/lv_theme_mono.c:0:72
	movs	r0, #255
	.loc	13 249 72                       @ lvgl/src/lv_themes/lv_theme_mono.c:249:72
	strb.w	r0, [sp, #80]
	strb.w	r0, [sp, #81]
	strb.w	r0, [sp, #82]
	strb.w	r0, [sp, #83]
	b	.LBB16_3
.LBB16_2:
	.loc	13 0 72                         @ lvgl/src/lv_themes/lv_theme_mono.c:0:72
	movs	r0, #0
	.loc	13 249 72                       @ lvgl/src/lv_themes/lv_theme_mono.c:249:72
	strb.w	r0, [sp, #80]
	strb.w	r0, [sp, #81]
	strb.w	r0, [sp, #82]
	movs	r0, #255
	strb.w	r0, [sp, #83]
	b	.LBB16_3
.LBB16_3:
	ldrb.w	r0, [sp, #82]
	cbnz	r0, .LBB16_5
	b	.LBB16_4
.LBB16_4:
	.loc	13 0 72                         @ lvgl/src/lv_themes/lv_theme_mono.c:0:72
	movs	r0, #255
	.loc	13 249 72                       @ lvgl/src/lv_themes/lv_theme_mono.c:249:72
	strb.w	r0, [sp, #84]
	strb.w	r0, [sp, #85]
	strb.w	r0, [sp, #86]
	strb.w	r0, [sp, #87]
	b	.LBB16_6
.LBB16_5:
	.loc	13 0 72                         @ lvgl/src/lv_themes/lv_theme_mono.c:0:72
	movs	r0, #0
	.loc	13 249 72                       @ lvgl/src/lv_themes/lv_theme_mono.c:249:72
	strb.w	r0, [sp, #84]
	strb.w	r0, [sp, #85]
	strb.w	r0, [sp, #86]
	movs	r0, #255
	strb.w	r0, [sp, #87]
	b	.LBB16_6
.LBB16_6:
	.loc	13 249 5                        @ lvgl/src/lv_themes/lv_theme_mono.c:249:5
	ldr	r0, [sp, #48]                   @ 4-byte Reload
	ldr	r2, [sp, #84]
	movs	r1, #1
	str	r1, [sp, #24]                   @ 4-byte Spill
	bl	lv_style_set_value_color
	.loc	13 250 31 is_stmt 1             @ lvgl/src/lv_themes/lv_theme_mono.c:250:31
	movw	r0, :lower16:styles
	movt	r0, :upper16:styles
	str	r0, [sp, #32]                   @ 4-byte Spill
	ldr	r0, [r0]
	.loc	13 250 39 is_stmt 0             @ lvgl/src/lv_themes/lv_theme_mono.c:250:39
	adds	r0, #68
	.loc	13 251 32 is_stmt 1             @ lvgl/src/lv_themes/lv_theme_mono.c:251:32
	str	r0, [sp, #28]                   @ 4-byte Spill
	movw	r0, :lower16:lv_font_montserrat_14
	movt	r0, :upper16:lv_font_montserrat_14
	bl	lv_font_get_line_height
	ldr	r1, [sp, #24]                   @ 4-byte Reload
	mov	r2, r0
	.loc	13 251 30 is_stmt 0             @ lvgl/src/lv_themes/lv_theme_mono.c:251:30
	ldr	r0, [sp, #28]                   @ 4-byte Reload
	rsbs	r3, r2, #0
	.loc	13 251 85                       @ lvgl/src/lv_themes/lv_theme_mono.c:251:85
	rsb	r2, r2, r3, lsr #30
	asrs	r2, r2, #2
	.loc	13 250 5 is_stmt 1              @ lvgl/src/lv_themes/lv_theme_mono.c:250:5
	bl	lv_style_set_value_ofs_y
	ldr	r0, [sp, #32]                   @ 4-byte Reload
	.loc	13 252 28                       @ lvgl/src/lv_themes/lv_theme_mono.c:252:28
	ldr	r0, [r0]
	.loc	13 252 36 is_stmt 0             @ lvgl/src/lv_themes/lv_theme_mono.c:252:36
	adds	r0, #68
	.loc	13 252 69                       @ lvgl/src/lv_themes/lv_theme_mono.c:252:69
	str	r0, [sp, #36]                   @ 4-byte Spill
	movw	r0, :lower16:theme
	movt	r0, :upper16:theme
	ldrb	r0, [r0, #14]
	cbnz	r0, .LBB16_8
	b	.LBB16_7
.LBB16_7:
	.loc	13 0 69                         @ lvgl/src/lv_themes/lv_theme_mono.c:0:69
	movs	r0, #255
	.loc	13 252 69                       @ lvgl/src/lv_themes/lv_theme_mono.c:252:69
	strb.w	r0, [sp, #76]
	strb.w	r0, [sp, #77]
	strb.w	r0, [sp, #78]
	strb.w	r0, [sp, #79]
	b	.LBB16_9
.LBB16_8:
	.loc	13 0 69                         @ lvgl/src/lv_themes/lv_theme_mono.c:0:69
	movs	r0, #0
	.loc	13 252 69                       @ lvgl/src/lv_themes/lv_theme_mono.c:252:69
	strb.w	r0, [sp, #76]
	strb.w	r0, [sp, #77]
	strb.w	r0, [sp, #78]
	movs	r0, #255
	strb.w	r0, [sp, #79]
	b	.LBB16_9
.LBB16_9:
	.loc	13 252 5                        @ lvgl/src/lv_themes/lv_theme_mono.c:252:5
	ldr	r0, [sp, #36]                   @ 4-byte Reload
	ldr	r2, [sp, #76]
	movs	r1, #1
	bl	lv_style_set_bg_color
	.loc	13 253 30 is_stmt 1             @ lvgl/src/lv_themes/lv_theme_mono.c:253:30
	movw	r0, :lower16:styles
	movt	r0, :upper16:styles
	ldr	r0, [r0]
	.loc	13 253 38 is_stmt 0             @ lvgl/src/lv_themes/lv_theme_mono.c:253:38
	adds	r0, #68
	.loc	13 253 71                       @ lvgl/src/lv_themes/lv_theme_mono.c:253:71
	str	r0, [sp, #20]                   @ 4-byte Spill
	movw	r0, :lower16:theme
	movt	r0, :upper16:theme
	ldrb	r0, [r0, #14]
	cbnz	r0, .LBB16_11
	b	.LBB16_10
.LBB16_10:
	.loc	13 0 71                         @ lvgl/src/lv_themes/lv_theme_mono.c:0:71
	movs	r0, #255
	.loc	13 253 71                       @ lvgl/src/lv_themes/lv_theme_mono.c:253:71
	strb.w	r0, [sp, #68]
	strb.w	r0, [sp, #69]
	strb.w	r0, [sp, #70]
	strb.w	r0, [sp, #71]
	b	.LBB16_12
.LBB16_11:
	.loc	13 0 71                         @ lvgl/src/lv_themes/lv_theme_mono.c:0:71
	movs	r0, #0
	.loc	13 253 71                       @ lvgl/src/lv_themes/lv_theme_mono.c:253:71
	strb.w	r0, [sp, #68]
	strb.w	r0, [sp, #69]
	strb.w	r0, [sp, #70]
	movs	r0, #255
	strb.w	r0, [sp, #71]
	b	.LBB16_12
.LBB16_12:
	ldrb.w	r0, [sp, #70]
	cbnz	r0, .LBB16_14
	b	.LBB16_13
.LBB16_13:
	.loc	13 0 71                         @ lvgl/src/lv_themes/lv_theme_mono.c:0:71
	movs	r0, #255
	.loc	13 253 71                       @ lvgl/src/lv_themes/lv_theme_mono.c:253:71
	strb.w	r0, [sp, #72]
	strb.w	r0, [sp, #73]
	strb.w	r0, [sp, #74]
	strb.w	r0, [sp, #75]
	b	.LBB16_15
.LBB16_14:
	.loc	13 0 71                         @ lvgl/src/lv_themes/lv_theme_mono.c:0:71
	movs	r0, #0
	.loc	13 253 71                       @ lvgl/src/lv_themes/lv_theme_mono.c:253:71
	strb.w	r0, [sp, #72]
	strb.w	r0, [sp, #73]
	strb.w	r0, [sp, #74]
	movs	r0, #255
	strb.w	r0, [sp, #75]
	b	.LBB16_15
.LBB16_15:
	.loc	13 253 5                        @ lvgl/src/lv_themes/lv_theme_mono.c:253:5
	ldr	r0, [sp, #20]                   @ 4-byte Reload
	ldr	r2, [sp, #72]
	movs	r1, #1
	bl	lv_style_set_text_color
	.loc	13 254 31 is_stmt 1             @ lvgl/src/lv_themes/lv_theme_mono.c:254:31
	movw	r0, :lower16:styles
	movt	r0, :upper16:styles
	ldr	r0, [r0]
	.loc	13 254 39 is_stmt 0             @ lvgl/src/lv_themes/lv_theme_mono.c:254:39
	adds	r0, #68
	.loc	13 254 91                       @ lvgl/src/lv_themes/lv_theme_mono.c:254:91
	str	r0, [sp, #16]                   @ 4-byte Spill
	movw	r0, :lower16:theme
	movt	r0, :upper16:theme
	ldrb	r0, [r0, #14]
	cbnz	r0, .LBB16_17
	b	.LBB16_16
.LBB16_16:
	.loc	13 0 91                         @ lvgl/src/lv_themes/lv_theme_mono.c:0:91
	movs	r0, #255
	.loc	13 254 91                       @ lvgl/src/lv_themes/lv_theme_mono.c:254:91
	strb.w	r0, [sp, #64]
	strb.w	r0, [sp, #65]
	strb.w	r0, [sp, #66]
	strb.w	r0, [sp, #67]
	b	.LBB16_18
.LBB16_17:
	.loc	13 0 91                         @ lvgl/src/lv_themes/lv_theme_mono.c:0:91
	movs	r0, #0
	.loc	13 254 91                       @ lvgl/src/lv_themes/lv_theme_mono.c:254:91
	strb.w	r0, [sp, #64]
	strb.w	r0, [sp, #65]
	strb.w	r0, [sp, #66]
	movs	r0, #255
	strb.w	r0, [sp, #67]
	b	.LBB16_18
.LBB16_18:
	.loc	13 254 5                        @ lvgl/src/lv_themes/lv_theme_mono.c:254:5
	ldr	r0, [sp, #16]                   @ 4-byte Reload
	ldr	r2, [sp, #64]
	movs	r1, #17
	bl	lv_style_set_value_color
	.loc	13 255 28 is_stmt 1             @ lvgl/src/lv_themes/lv_theme_mono.c:255:28
	movw	r0, :lower16:styles
	movt	r0, :upper16:styles
	ldr	r0, [r0]
	.loc	13 255 36 is_stmt 0             @ lvgl/src/lv_themes/lv_theme_mono.c:255:36
	adds	r0, #68
	.loc	13 255 88                       @ lvgl/src/lv_themes/lv_theme_mono.c:255:88
	str	r0, [sp, #12]                   @ 4-byte Spill
	movw	r0, :lower16:theme
	movt	r0, :upper16:theme
	ldrb	r0, [r0, #14]
	cbnz	r0, .LBB16_20
	b	.LBB16_19
.LBB16_19:
	.loc	13 0 88                         @ lvgl/src/lv_themes/lv_theme_mono.c:0:88
	movs	r0, #255
	.loc	13 255 88                       @ lvgl/src/lv_themes/lv_theme_mono.c:255:88
	strb.w	r0, [sp, #56]
	strb.w	r0, [sp, #57]
	strb.w	r0, [sp, #58]
	strb.w	r0, [sp, #59]
	b	.LBB16_21
.LBB16_20:
	.loc	13 0 88                         @ lvgl/src/lv_themes/lv_theme_mono.c:0:88
	movs	r0, #0
	.loc	13 255 88                       @ lvgl/src/lv_themes/lv_theme_mono.c:255:88
	strb.w	r0, [sp, #56]
	strb.w	r0, [sp, #57]
	strb.w	r0, [sp, #58]
	movs	r0, #255
	strb.w	r0, [sp, #59]
	b	.LBB16_21
.LBB16_21:
	ldrb.w	r0, [sp, #58]
	cbnz	r0, .LBB16_23
	b	.LBB16_22
.LBB16_22:
	.loc	13 0 88                         @ lvgl/src/lv_themes/lv_theme_mono.c:0:88
	movs	r0, #255
	.loc	13 255 88                       @ lvgl/src/lv_themes/lv_theme_mono.c:255:88
	strb.w	r0, [sp, #60]
	strb.w	r0, [sp, #61]
	strb.w	r0, [sp, #62]
	strb.w	r0, [sp, #63]
	b	.LBB16_24
.LBB16_23:
	.loc	13 0 88                         @ lvgl/src/lv_themes/lv_theme_mono.c:0:88
	movs	r0, #0
	.loc	13 255 88                       @ lvgl/src/lv_themes/lv_theme_mono.c:255:88
	strb.w	r0, [sp, #60]
	strb.w	r0, [sp, #61]
	strb.w	r0, [sp, #62]
	movs	r0, #255
	strb.w	r0, [sp, #63]
	b	.LBB16_24
.LBB16_24:
	.loc	13 255 5                        @ lvgl/src/lv_themes/lv_theme_mono.c:255:5
	ldr	r0, [sp, #12]                   @ 4-byte Reload
	ldr	r2, [sp, #60]
	movs	r1, #17
	bl	lv_style_set_bg_color
	.loc	13 256 30 is_stmt 1             @ lvgl/src/lv_themes/lv_theme_mono.c:256:30
	movw	r0, :lower16:styles
	movt	r0, :upper16:styles
	ldr	r0, [r0]
	.loc	13 256 38 is_stmt 0             @ lvgl/src/lv_themes/lv_theme_mono.c:256:38
	adds	r0, #68
	.loc	13 256 90                       @ lvgl/src/lv_themes/lv_theme_mono.c:256:90
	str	r0, [sp, #8]                    @ 4-byte Spill
	movw	r0, :lower16:theme
	movt	r0, :upper16:theme
	ldrb	r0, [r0, #14]
	cbnz	r0, .LBB16_26
	b	.LBB16_25
.LBB16_25:
	.loc	13 0 90                         @ lvgl/src/lv_themes/lv_theme_mono.c:0:90
	movs	r0, #255
	.loc	13 256 90                       @ lvgl/src/lv_themes/lv_theme_mono.c:256:90
	strb.w	r0, [sp, #52]
	strb.w	r0, [sp, #53]
	strb.w	r0, [sp, #54]
	strb.w	r0, [sp, #55]
	b	.LBB16_27
.LBB16_26:
	.loc	13 0 90                         @ lvgl/src/lv_themes/lv_theme_mono.c:0:90
	movs	r0, #0
	.loc	13 256 90                       @ lvgl/src/lv_themes/lv_theme_mono.c:256:90
	strb.w	r0, [sp, #52]
	strb.w	r0, [sp, #53]
	strb.w	r0, [sp, #54]
	movs	r0, #255
	strb.w	r0, [sp, #55]
	b	.LBB16_27
.LBB16_27:
	.loc	13 256 5                        @ lvgl/src/lv_themes/lv_theme_mono.c:256:5
	ldr	r0, [sp, #8]                    @ 4-byte Reload
	ldr	r2, [sp, #52]
	movs	r1, #17
	bl	lv_style_set_text_color
	.loc	13 257 32 is_stmt 1             @ lvgl/src/lv_themes/lv_theme_mono.c:257:32
	movw	r0, :lower16:styles
	movt	r0, :upper16:styles
	str	r0, [sp, #4]                    @ 4-byte Spill
	ldr	r0, [r0]
	.loc	13 257 40 is_stmt 0             @ lvgl/src/lv_themes/lv_theme_mono.c:257:40
	adds	r0, #68
	movs	r2, #2
	.loc	13 257 5                        @ lvgl/src/lv_themes/lv_theme_mono.c:257:5
	mov	r1, r2
	bl	lv_style_set_border_width
	ldr	r0, [sp, #4]                    @ 4-byte Reload
	.loc	13 258 29 is_stmt 1             @ lvgl/src/lv_themes/lv_theme_mono.c:258:29
	ldr	r0, [r0]
	.loc	13 258 37 is_stmt 0             @ lvgl/src/lv_themes/lv_theme_mono.c:258:37
	adds	r0, #68
	movs	r1, #0
	movs	r2, #1
	.loc	13 258 5                        @ lvgl/src/lv_themes/lv_theme_mono.c:258:5
	bl	lv_style_set_pad_inner
	.loc	13 261 1 is_stmt 1              @ lvgl/src/lv_themes/lv_theme_mono.c:261:1
	add	sp, #88
	pop	{r7, pc}
.Ltmp31:
.Lfunc_end16:
	.size	calendar_init, .Lfunc_end16-calendar_init
	.cfi_endproc
	.cantunwind
	.fnend
                                        @ -- End function
	.section	.text.cpicker_init,"ax",%progbits
	.p2align	3                               @ -- Begin function cpicker_init
	.type	cpicker_init,%function
	.code	16                              @ @cpicker_init
	.thumb_func
cpicker_init:
.Lfunc_begin17:
	.loc	13 275 0                        @ lvgl/src/lv_themes/lv_theme_mono.c:275:0
	.fnstart
	.cfi_startproc
@ %bb.0:
	.loc	13 279 1 prologue_end           @ lvgl/src/lv_themes/lv_theme_mono.c:279:1
	bx	lr
.Ltmp32:
.Lfunc_end17:
	.size	cpicker_init, .Lfunc_end17-cpicker_init
	.cfi_endproc
	.cantunwind
	.fnend
                                        @ -- End function
	.section	.text.checkbox_init,"ax",%progbits
	.p2align	3                               @ -- Begin function checkbox_init
	.type	checkbox_init,%function
	.code	16                              @ @checkbox_init
	.thumb_func
checkbox_init:
.Lfunc_begin18:
	.loc	13 282 0                        @ lvgl/src/lv_themes/lv_theme_mono.c:282:0
	.fnstart
	.cfi_startproc
@ %bb.0:
	.loc	13 286 1 prologue_end           @ lvgl/src/lv_themes/lv_theme_mono.c:286:1
	bx	lr
.Ltmp33:
.Lfunc_end18:
	.size	checkbox_init, .Lfunc_end18-checkbox_init
	.cfi_endproc
	.cantunwind
	.fnend
                                        @ -- End function
	.section	.text.btnmatrix_init,"ax",%progbits
	.p2align	3                               @ -- Begin function btnmatrix_init
	.type	btnmatrix_init,%function
	.code	16                              @ @btnmatrix_init
	.thumb_func
btnmatrix_init:
.Lfunc_begin19:
	.loc	13 236 0                        @ lvgl/src/lv_themes/lv_theme_mono.c:236:0
	.fnstart
	.cfi_startproc
@ %bb.0:
	.loc	13 240 1 prologue_end           @ lvgl/src/lv_themes/lv_theme_mono.c:240:1
	bx	lr
.Ltmp34:
.Lfunc_end19:
	.size	btnmatrix_init, .Lfunc_end19-btnmatrix_init
	.cfi_endproc
	.cantunwind
	.fnend
                                        @ -- End function
	.section	.text.keyboard_init,"ax",%progbits
	.p2align	3                               @ -- Begin function keyboard_init
	.type	keyboard_init,%function
	.code	16                              @ @keyboard_init
	.thumb_func
keyboard_init:
.Lfunc_begin20:
	.loc	13 395 0                        @ lvgl/src/lv_themes/lv_theme_mono.c:395:0
	.fnstart
	.cfi_startproc
@ %bb.0:
	.loc	13 399 1 prologue_end           @ lvgl/src/lv_themes/lv_theme_mono.c:399:1
	bx	lr
.Ltmp35:
.Lfunc_end20:
	.size	keyboard_init, .Lfunc_end20-keyboard_init
	.cfi_endproc
	.cantunwind
	.fnend
                                        @ -- End function
	.section	.text.msgbox_init,"ax",%progbits
	.p2align	3                               @ -- Begin function msgbox_init
	.type	msgbox_init,%function
	.code	16                              @ @msgbox_init
	.thumb_func
msgbox_init:
.Lfunc_begin21:
	.loc	13 402 0                        @ lvgl/src/lv_themes/lv_theme_mono.c:402:0
	.fnstart
	.cfi_startproc
@ %bb.0:
	.loc	13 406 1 prologue_end           @ lvgl/src/lv_themes/lv_theme_mono.c:406:1
	bx	lr
.Ltmp36:
.Lfunc_end21:
	.size	msgbox_init, .Lfunc_end21-msgbox_init
	.cfi_endproc
	.cantunwind
	.fnend
                                        @ -- End function
	.section	.text.page_init,"ax",%progbits
	.p2align	3                               @ -- Begin function page_init
	.type	page_init,%function
	.code	16                              @ @page_init
	.thumb_func
page_init:
.Lfunc_begin22:
	.loc	13 354 0                        @ lvgl/src/lv_themes/lv_theme_mono.c:354:0
	.fnstart
	.cfi_startproc
@ %bb.0:
	.loc	13 358 1 prologue_end           @ lvgl/src/lv_themes/lv_theme_mono.c:358:1
	bx	lr
.Ltmp37:
.Lfunc_end22:
	.size	page_init, .Lfunc_end22-page_init
	.cfi_endproc
	.cantunwind
	.fnend
                                        @ -- End function
	.section	.text.textarea_init,"ax",%progbits
	.p2align	3                               @ -- Begin function textarea_init
	.type	textarea_init,%function
	.code	16                              @ @textarea_init
	.thumb_func
textarea_init:
.Lfunc_begin23:
	.loc	13 409 0                        @ lvgl/src/lv_themes/lv_theme_mono.c:409:0
	.fnstart
	.cfi_startproc
@ %bb.0:
	.save	{r7, lr}
	push	{r7, lr}
	.cfi_def_cfa_offset 8
	.cfi_offset lr, -4
	.cfi_offset r7, -8
	.pad	#24
	sub	sp, #24
	.cfi_def_cfa_offset 32
.Ltmp38:
	.loc	13 411 21 prologue_end          @ lvgl/src/lv_themes/lv_theme_mono.c:411:21
	movw	r0, :lower16:styles
	movt	r0, :upper16:styles
	str	r0, [sp, #8]                    @ 4-byte Spill
	ldr	r0, [r0]
	.loc	13 411 29 is_stmt 0             @ lvgl/src/lv_themes/lv_theme_mono.c:411:29
	adds	r0, #96
	.loc	13 411 5                        @ lvgl/src/lv_themes/lv_theme_mono.c:411:5
	bl	lv_style_reset
	ldr	r0, [sp, #8]                    @ 4-byte Reload
	.loc	13 412 26 is_stmt 1             @ lvgl/src/lv_themes/lv_theme_mono.c:412:26
	ldr	r0, [r0]
	.loc	13 412 34 is_stmt 0             @ lvgl/src/lv_themes/lv_theme_mono.c:412:34
	adds	r0, #96
	movs	r2, #0
	.loc	13 412 5                        @ lvgl/src/lv_themes/lv_theme_mono.c:412:5
	str	r2, [sp, #4]                    @ 4-byte Spill
	mov	r1, r2
	bl	lv_style_set_bg_opa
	ldr	r1, [sp, #4]                    @ 4-byte Reload
	ldr	r0, [sp, #8]                    @ 4-byte Reload
	.loc	13 413 32 is_stmt 1             @ lvgl/src/lv_themes/lv_theme_mono.c:413:32
	ldr	r0, [r0]
	.loc	13 413 40 is_stmt 0             @ lvgl/src/lv_themes/lv_theme_mono.c:413:40
	adds	r0, #96
	movs	r2, #1
	.loc	13 413 5                        @ lvgl/src/lv_themes/lv_theme_mono.c:413:5
	bl	lv_style_set_border_width
	ldr	r1, [sp, #4]                    @ 4-byte Reload
	ldr	r0, [sp, #8]                    @ 4-byte Reload
	.loc	13 414 31 is_stmt 1             @ lvgl/src/lv_themes/lv_theme_mono.c:414:31
	ldr	r0, [r0]
	.loc	13 414 39 is_stmt 0             @ lvgl/src/lv_themes/lv_theme_mono.c:414:39
	adds	r0, #96
	movs	r2, #4
	.loc	13 414 5                        @ lvgl/src/lv_themes/lv_theme_mono.c:414:5
	bl	lv_style_set_border_side
	ldr	r0, [sp, #8]                    @ 4-byte Reload
	.loc	13 415 32 is_stmt 1             @ lvgl/src/lv_themes/lv_theme_mono.c:415:32
	ldr	r0, [r0]
	.loc	13 415 40 is_stmt 0             @ lvgl/src/lv_themes/lv_theme_mono.c:415:40
	adds	r0, #96
	.loc	13 415 69                       @ lvgl/src/lv_themes/lv_theme_mono.c:415:69
	str	r0, [sp, #12]                   @ 4-byte Spill
	movw	r0, :lower16:theme
	movt	r0, :upper16:theme
	ldrb	r0, [r0, #14]
	cbnz	r0, .LBB23_2
	b	.LBB23_1
.LBB23_1:
	.loc	13 0 69                         @ lvgl/src/lv_themes/lv_theme_mono.c:0:69
	movs	r0, #255
	.loc	13 415 69                       @ lvgl/src/lv_themes/lv_theme_mono.c:415:69
	strb.w	r0, [sp, #16]
	strb.w	r0, [sp, #17]
	strb.w	r0, [sp, #18]
	strb.w	r0, [sp, #19]
	b	.LBB23_3
.LBB23_2:
	.loc	13 0 69                         @ lvgl/src/lv_themes/lv_theme_mono.c:0:69
	movs	r0, #0
	.loc	13 415 69                       @ lvgl/src/lv_themes/lv_theme_mono.c:415:69
	strb.w	r0, [sp, #16]
	strb.w	r0, [sp, #17]
	strb.w	r0, [sp, #18]
	movs	r0, #255
	strb.w	r0, [sp, #19]
	b	.LBB23_3
.LBB23_3:
	ldrb.w	r0, [sp, #18]
	cbnz	r0, .LBB23_5
	b	.LBB23_4
.LBB23_4:
	.loc	13 0 69                         @ lvgl/src/lv_themes/lv_theme_mono.c:0:69
	movs	r0, #255
	.loc	13 415 69                       @ lvgl/src/lv_themes/lv_theme_mono.c:415:69
	strb.w	r0, [sp, #20]
	strb.w	r0, [sp, #21]
	strb.w	r0, [sp, #22]
	strb.w	r0, [sp, #23]
	b	.LBB23_6
.LBB23_5:
	.loc	13 0 69                         @ lvgl/src/lv_themes/lv_theme_mono.c:0:69
	movs	r0, #0
	.loc	13 415 69                       @ lvgl/src/lv_themes/lv_theme_mono.c:415:69
	strb.w	r0, [sp, #20]
	strb.w	r0, [sp, #21]
	strb.w	r0, [sp, #22]
	movs	r0, #255
	strb.w	r0, [sp, #23]
	b	.LBB23_6
.LBB23_6:
	.loc	13 415 5                        @ lvgl/src/lv_themes/lv_theme_mono.c:415:5
	ldr	r0, [sp, #12]                   @ 4-byte Reload
	ldr	r2, [sp, #20]
	movs	r1, #0
	bl	lv_style_set_border_color
	.loc	13 418 1 is_stmt 1              @ lvgl/src/lv_themes/lv_theme_mono.c:418:1
	add	sp, #24
	pop	{r7, pc}
.Ltmp39:
.Lfunc_end23:
	.size	textarea_init, .Lfunc_end23-textarea_init
	.cfi_endproc
	.cantunwind
	.fnend
                                        @ -- End function
	.section	.text.spinbox_init,"ax",%progbits
	.p2align	3                               @ -- Begin function spinbox_init
	.type	spinbox_init,%function
	.code	16                              @ @spinbox_init
	.thumb_func
spinbox_init:
.Lfunc_begin24:
	.loc	13 381 0                        @ lvgl/src/lv_themes/lv_theme_mono.c:381:0
	.fnstart
	.cfi_startproc
@ %bb.0:
	.loc	13 385 1 prologue_end           @ lvgl/src/lv_themes/lv_theme_mono.c:385:1
	bx	lr
.Ltmp40:
.Lfunc_end24:
	.size	spinbox_init, .Lfunc_end24-spinbox_init
	.cfi_endproc
	.cantunwind
	.fnend
                                        @ -- End function
	.section	.text.list_init,"ax",%progbits
	.p2align	3                               @ -- Begin function list_init
	.type	list_init,%function
	.code	16                              @ @list_init
	.thumb_func
list_init:
.Lfunc_begin25:
	.loc	13 421 0                        @ lvgl/src/lv_themes/lv_theme_mono.c:421:0
	.fnstart
	.cfi_startproc
@ %bb.0:
	.save	{r7, lr}
	push	{r7, lr}
	.cfi_def_cfa_offset 8
	.cfi_offset lr, -4
	.cfi_offset r7, -8
	.pad	#16
	sub	sp, #16
	.cfi_def_cfa_offset 24
.Ltmp41:
	.loc	13 423 21 prologue_end          @ lvgl/src/lv_themes/lv_theme_mono.c:423:21
	movw	r0, :lower16:styles
	movt	r0, :upper16:styles
	str	r0, [sp, #4]                    @ 4-byte Spill
	ldr	r0, [r0]
	.loc	13 423 29 is_stmt 0             @ lvgl/src/lv_themes/lv_theme_mono.c:423:29
	adds	r0, #64
	.loc	13 423 5                        @ lvgl/src/lv_themes/lv_theme_mono.c:423:5
	bl	lv_style_reset
	ldr	r0, [sp, #4]                    @ 4-byte Reload
	.loc	13 424 26 is_stmt 1             @ lvgl/src/lv_themes/lv_theme_mono.c:424:26
	ldr	r0, [r0]
	.loc	13 424 34 is_stmt 0             @ lvgl/src/lv_themes/lv_theme_mono.c:424:34
	adds	r0, #64
	movs	r2, #0
	.loc	13 424 5                        @ lvgl/src/lv_themes/lv_theme_mono.c:424:5
	str	r2, [sp, #8]                    @ 4-byte Spill
	mov	r1, r2
	bl	lv_style_set_bg_opa
	ldr	r0, [sp, #4]                    @ 4-byte Reload
	.loc	13 425 26 is_stmt 1             @ lvgl/src/lv_themes/lv_theme_mono.c:425:26
	ldr	r0, [r0]
	.loc	13 425 34 is_stmt 0             @ lvgl/src/lv_themes/lv_theme_mono.c:425:34
	adds	r0, #64
	movs	r1, #16
	movs	r2, #255
	.loc	13 425 5                        @ lvgl/src/lv_themes/lv_theme_mono.c:425:5
	str	r2, [sp]                        @ 4-byte Spill
	bl	lv_style_set_bg_opa
	ldr	r2, [sp]                        @ 4-byte Reload
	ldr	r0, [sp, #4]                    @ 4-byte Reload
	.loc	13 426 26 is_stmt 1             @ lvgl/src/lv_themes/lv_theme_mono.c:426:26
	ldr	r0, [r0]
	.loc	13 426 34 is_stmt 0             @ lvgl/src/lv_themes/lv_theme_mono.c:426:34
	adds	r0, #64
	movs	r1, #1
	.loc	13 426 5                        @ lvgl/src/lv_themes/lv_theme_mono.c:426:5
	str	r1, [sp, #12]                   @ 4-byte Spill
	bl	lv_style_set_bg_opa
	ldr	r0, [sp, #4]                    @ 4-byte Reload
	ldr	r2, [sp, #8]                    @ 4-byte Reload
	.loc	13 427 26 is_stmt 1             @ lvgl/src/lv_themes/lv_theme_mono.c:427:26
	ldr	r0, [r0]
	.loc	13 427 34 is_stmt 0             @ lvgl/src/lv_themes/lv_theme_mono.c:427:34
	adds	r0, #64
	.loc	13 427 5                        @ lvgl/src/lv_themes/lv_theme_mono.c:427:5
	mov	r1, r2
	bl	lv_style_set_radius
	ldr	r0, [sp, #4]                    @ 4-byte Reload
	ldr	r1, [sp, #8]                    @ 4-byte Reload
	ldr	r2, [sp, #12]                   @ 4-byte Reload
	.loc	13 428 31 is_stmt 1             @ lvgl/src/lv_themes/lv_theme_mono.c:428:31
	ldr	r0, [r0]
	.loc	13 428 39 is_stmt 0             @ lvgl/src/lv_themes/lv_theme_mono.c:428:39
	adds	r0, #64
	.loc	13 428 5                        @ lvgl/src/lv_themes/lv_theme_mono.c:428:5
	bl	lv_style_set_border_side
	.loc	13 430 1 is_stmt 1              @ lvgl/src/lv_themes/lv_theme_mono.c:430:1
	add	sp, #16
	pop	{r7, pc}
.Ltmp42:
.Lfunc_end25:
	.size	list_init, .Lfunc_end25-list_init
	.cfi_endproc
	.cantunwind
	.fnend
                                        @ -- End function
	.section	.text.ddlist_init,"ax",%progbits
	.p2align	3                               @ -- Begin function ddlist_init
	.type	ddlist_init,%function
	.code	16                              @ @ddlist_init
	.thumb_func
ddlist_init:
.Lfunc_begin26:
	.loc	13 433 0                        @ lvgl/src/lv_themes/lv_theme_mono.c:433:0
	.fnstart
	.cfi_startproc
@ %bb.0:
	.loc	13 437 1 prologue_end           @ lvgl/src/lv_themes/lv_theme_mono.c:437:1
	bx	lr
.Ltmp43:
.Lfunc_end26:
	.size	ddlist_init, .Lfunc_end26-ddlist_init
	.cfi_endproc
	.cantunwind
	.fnend
                                        @ -- End function
	.section	.text.roller_init,"ax",%progbits
	.p2align	3                               @ -- Begin function roller_init
	.type	roller_init,%function
	.code	16                              @ @roller_init
	.thumb_func
roller_init:
.Lfunc_begin27:
	.loc	13 440 0                        @ lvgl/src/lv_themes/lv_theme_mono.c:440:0
	.fnstart
	.cfi_startproc
@ %bb.0:
	.loc	13 444 1 prologue_end           @ lvgl/src/lv_themes/lv_theme_mono.c:444:1
	bx	lr
.Ltmp44:
.Lfunc_end27:
	.size	roller_init, .Lfunc_end27-roller_init
	.cfi_endproc
	.cantunwind
	.fnend
                                        @ -- End function
	.section	.text.tabview_init,"ax",%progbits
	.p2align	3                               @ -- Begin function tabview_init
	.type	tabview_init,%function
	.code	16                              @ @tabview_init
	.thumb_func
tabview_init:
.Lfunc_begin28:
	.loc	13 447 0                        @ lvgl/src/lv_themes/lv_theme_mono.c:447:0
	.fnstart
	.cfi_startproc
@ %bb.0:
	.save	{r7, lr}
	push	{r7, lr}
	.cfi_def_cfa_offset 8
	.cfi_offset lr, -4
	.cfi_offset r7, -8
	.pad	#24
	sub	sp, #24
	.cfi_def_cfa_offset 32
.Ltmp45:
	.loc	13 449 21 prologue_end          @ lvgl/src/lv_themes/lv_theme_mono.c:449:21
	movw	r0, :lower16:styles
	movt	r0, :upper16:styles
	str	r0, [sp, #8]                    @ 4-byte Spill
	ldr	r0, [r0]
	.loc	13 449 29 is_stmt 0             @ lvgl/src/lv_themes/lv_theme_mono.c:449:29
	adds	r0, #100
	.loc	13 449 5                        @ lvgl/src/lv_themes/lv_theme_mono.c:449:5
	bl	lv_style_reset
	ldr	r0, [sp, #8]                    @ 4-byte Reload
	.loc	13 450 32 is_stmt 1             @ lvgl/src/lv_themes/lv_theme_mono.c:450:32
	ldr	r0, [r0]
	.loc	13 450 40 is_stmt 0             @ lvgl/src/lv_themes/lv_theme_mono.c:450:40
	adds	r0, #100
	movs	r1, #0
	movs	r2, #2
	.loc	13 450 5                        @ lvgl/src/lv_themes/lv_theme_mono.c:450:5
	bl	lv_style_set_border_width
	ldr	r0, [sp, #8]                    @ 4-byte Reload
	.loc	13 451 32 is_stmt 1             @ lvgl/src/lv_themes/lv_theme_mono.c:451:32
	ldr	r0, [r0]
	.loc	13 451 40 is_stmt 0             @ lvgl/src/lv_themes/lv_theme_mono.c:451:40
	adds	r0, #100
	.loc	13 451 66                       @ lvgl/src/lv_themes/lv_theme_mono.c:451:66
	str	r0, [sp, #12]                   @ 4-byte Spill
	movw	r0, :lower16:theme
	movt	r0, :upper16:theme
	ldrb	r0, [r0, #14]
	cbnz	r0, .LBB28_2
	b	.LBB28_1
.LBB28_1:
	.loc	13 0 66                         @ lvgl/src/lv_themes/lv_theme_mono.c:0:66
	movs	r0, #255
	.loc	13 451 66                       @ lvgl/src/lv_themes/lv_theme_mono.c:451:66
	strb.w	r0, [sp, #16]
	strb.w	r0, [sp, #17]
	strb.w	r0, [sp, #18]
	strb.w	r0, [sp, #19]
	b	.LBB28_3
.LBB28_2:
	.loc	13 0 66                         @ lvgl/src/lv_themes/lv_theme_mono.c:0:66
	movs	r0, #0
	.loc	13 451 66                       @ lvgl/src/lv_themes/lv_theme_mono.c:451:66
	strb.w	r0, [sp, #16]
	strb.w	r0, [sp, #17]
	strb.w	r0, [sp, #18]
	movs	r0, #255
	strb.w	r0, [sp, #19]
	b	.LBB28_3
.LBB28_3:
	ldrb.w	r0, [sp, #18]
	cbnz	r0, .LBB28_5
	b	.LBB28_4
.LBB28_4:
	.loc	13 0 66                         @ lvgl/src/lv_themes/lv_theme_mono.c:0:66
	movs	r0, #255
	.loc	13 451 66                       @ lvgl/src/lv_themes/lv_theme_mono.c:451:66
	strb.w	r0, [sp, #20]
	strb.w	r0, [sp, #21]
	strb.w	r0, [sp, #22]
	strb.w	r0, [sp, #23]
	b	.LBB28_6
.LBB28_5:
	.loc	13 0 66                         @ lvgl/src/lv_themes/lv_theme_mono.c:0:66
	movs	r0, #0
	.loc	13 451 66                       @ lvgl/src/lv_themes/lv_theme_mono.c:451:66
	strb.w	r0, [sp, #20]
	strb.w	r0, [sp, #21]
	strb.w	r0, [sp, #22]
	movs	r0, #255
	strb.w	r0, [sp, #23]
	b	.LBB28_6
.LBB28_6:
	.loc	13 451 5                        @ lvgl/src/lv_themes/lv_theme_mono.c:451:5
	ldr	r0, [sp, #12]                   @ 4-byte Reload
	ldr	r2, [sp, #20]
	movs	r1, #0
	str	r1, [sp, #4]                    @ 4-byte Spill
	bl	lv_style_set_border_color
	ldr	r1, [sp, #4]                    @ 4-byte Reload
	.loc	13 452 31 is_stmt 1             @ lvgl/src/lv_themes/lv_theme_mono.c:452:31
	movw	r0, :lower16:styles
	movt	r0, :upper16:styles
	ldr	r0, [r0]
	.loc	13 452 39 is_stmt 0             @ lvgl/src/lv_themes/lv_theme_mono.c:452:39
	adds	r0, #100
	movs	r2, #1
	.loc	13 452 5                        @ lvgl/src/lv_themes/lv_theme_mono.c:452:5
	bl	lv_style_set_border_side
	.loc	13 455 1 is_stmt 1              @ lvgl/src/lv_themes/lv_theme_mono.c:455:1
	add	sp, #24
	pop	{r7, pc}
.Ltmp46:
.Lfunc_end28:
	.size	tabview_init, .Lfunc_end28-tabview_init
	.cfi_endproc
	.cantunwind
	.fnend
                                        @ -- End function
	.section	.text.tileview_init,"ax",%progbits
	.p2align	3                               @ -- Begin function tileview_init
	.type	tileview_init,%function
	.code	16                              @ @tileview_init
	.thumb_func
tileview_init:
.Lfunc_begin29:
	.loc	13 458 0                        @ lvgl/src/lv_themes/lv_theme_mono.c:458:0
	.fnstart
	.cfi_startproc
@ %bb.0:
	.loc	13 461 1 prologue_end           @ lvgl/src/lv_themes/lv_theme_mono.c:461:1
	bx	lr
.Ltmp47:
.Lfunc_end29:
	.size	tileview_init, .Lfunc_end29-tileview_init
	.cfi_endproc
	.cantunwind
	.fnend
                                        @ -- End function
	.section	.text.table_init,"ax",%progbits
	.p2align	3                               @ -- Begin function table_init
	.type	table_init,%function
	.code	16                              @ @table_init
	.thumb_func
table_init:
.Lfunc_begin30:
	.loc	13 464 0                        @ lvgl/src/lv_themes/lv_theme_mono.c:464:0
	.fnstart
	.cfi_startproc
@ %bb.0:
	.loc	13 468 1 prologue_end           @ lvgl/src/lv_themes/lv_theme_mono.c:468:1
	bx	lr
.Ltmp48:
.Lfunc_end30:
	.size	table_init, .Lfunc_end30-table_init
	.cfi_endproc
	.cantunwind
	.fnend
                                        @ -- End function
	.section	.text.win_init,"ax",%progbits
	.p2align	3                               @ -- Begin function win_init
	.type	win_init,%function
	.code	16                              @ @win_init
	.thumb_func
win_init:
.Lfunc_begin31:
	.loc	13 471 0                        @ lvgl/src/lv_themes/lv_theme_mono.c:471:0
	.fnstart
	.cfi_startproc
@ %bb.0:
	.loc	13 475 1 prologue_end           @ lvgl/src/lv_themes/lv_theme_mono.c:475:1
	bx	lr
.Ltmp49:
.Lfunc_end31:
	.size	win_init, .Lfunc_end31-win_init
	.cfi_endproc
	.cantunwind
	.fnend
                                        @ -- End function
	.section	.text.theme_apply,"ax",%progbits
	.p2align	3                               @ -- Begin function theme_apply
	.type	theme_apply,%function
	.code	16                              @ @theme_apply
	.thumb_func
theme_apply:
.Lfunc_begin32:
	.loc	13 558 0                        @ lvgl/src/lv_themes/lv_theme_mono.c:558:0
	.fnstart
	.cfi_startproc
@ %bb.0:
	.save	{r7, lr}
	push	{r7, lr}
	.cfi_def_cfa_offset 8
	.cfi_offset lr, -4
	.cfi_offset r7, -8
	.pad	#144
	sub	sp, #144
	.cfi_def_cfa_offset 152
                                        @ kill: def $r3 killed $r2
	str	r0, [sp, #140]
	str	r1, [sp, #136]
	strh.w	r2, [sp, #134]
.Ltmp50:
	.loc	13 563 12 prologue_end          @ lvgl/src/lv_themes/lv_theme_mono.c:563:12
	ldrh.w	r0, [sp, #134]
	.loc	13 563 5 is_stmt 0              @ lvgl/src/lv_themes/lv_theme_mono.c:563:5
	mov	r1, r0
	str	r1, [sp, #120]                  @ 4-byte Spill
	cmp	r0, #40
	bhi.w	.LBB32_48
@ %bb.1:
	.loc	13 0 5                          @ lvgl/src/lv_themes/lv_theme_mono.c:0:5
	ldr	r1, [sp, #120]                  @ 4-byte Reload
.LCPI32_0:
	tbh	[pc, r1, lsl #1]
@ %bb.2:
.LJTI32_0:
	.short	(.LBB32_3-(.LCPI32_0+4))/2
	.short	(.LBB32_4-(.LCPI32_0+4))/2
	.short	(.LBB32_5-(.LCPI32_0+4))/2
	.short	(.LBB32_17-(.LCPI32_0+4))/2
	.short	(.LBB32_10-(.LCPI32_0+4))/2
	.short	(.LBB32_7-(.LCPI32_0+4))/2
	.short	(.LBB32_8-(.LCPI32_0+4))/2
	.short	(.LBB32_44-(.LCPI32_0+4))/2
	.short	(.LBB32_12-(.LCPI32_0+4))/2
	.short	(.LBB32_20-(.LCPI32_0+4))/2
	.short	(.LBB32_33-(.LCPI32_0+4))/2
	.short	(.LBB32_6-(.LCPI32_0+4))/2
	.short	(.LBB32_45-(.LCPI32_0+4))/2
	.short	(.LBB32_32-(.LCPI32_0+4))/2
	.short	(.LBB32_47-(.LCPI32_0+4))/2
	.short	(.LBB32_13-(.LCPI32_0+4))/2
	.short	(.LBB32_14-(.LCPI32_0+4))/2
	.short	(.LBB32_9-(.LCPI32_0+4))/2
	.short	(.LBB32_15-(.LCPI32_0+4))/2
	.short	(.LBB32_23-(.LCPI32_0+4))/2
	.short	(.LBB32_16-(.LCPI32_0+4))/2
	.short	(.LBB32_30-(.LCPI32_0+4))/2
	.short	(.LBB32_31-(.LCPI32_0+4))/2
	.short	(.LBB32_46-(.LCPI32_0+4))/2
	.short	(.LBB32_21-(.LCPI32_0+4))/2
	.short	(.LBB32_22-(.LCPI32_0+4))/2
	.short	(.LBB32_29-(.LCPI32_0+4))/2
	.short	(.LBB32_24-(.LCPI32_0+4))/2
	.short	(.LBB32_28-(.LCPI32_0+4))/2
	.short	(.LBB32_19-(.LCPI32_0+4))/2
	.short	(.LBB32_42-(.LCPI32_0+4))/2
	.short	(.LBB32_43-(.LCPI32_0+4))/2
	.short	(.LBB32_18-(.LCPI32_0+4))/2
	.short	(.LBB32_11-(.LCPI32_0+4))/2
	.short	(.LBB32_34-(.LCPI32_0+4))/2
	.short	(.LBB32_25-(.LCPI32_0+4))/2
	.short	(.LBB32_26-(.LCPI32_0+4))/2
	.short	(.LBB32_41-(.LCPI32_0+4))/2
	.short	(.LBB32_27-(.LCPI32_0+4))/2
	.short	(.LBB32_39-(.LCPI32_0+4))/2
	.short	(.LBB32_40-(.LCPI32_0+4))/2
	.p2align	1
.LBB32_3:
.Ltmp51:
	.loc	13 565 13 is_stmt 1             @ lvgl/src/lv_themes/lv_theme_mono.c:565:13
	b.w	.LBB32_49
.LBB32_4:
	.loc	13 568 42                       @ lvgl/src/lv_themes/lv_theme_mono.c:568:42
	ldr	r0, [sp, #136]
	movs	r1, #0
	.loc	13 568 20 is_stmt 0             @ lvgl/src/lv_themes/lv_theme_mono.c:568:20
	bl	lv_obj_get_style_list
	.loc	13 568 18                       @ lvgl/src/lv_themes/lv_theme_mono.c:568:18
	str	r0, [sp, #128]
	.loc	13 569 38 is_stmt 1             @ lvgl/src/lv_themes/lv_theme_mono.c:569:38
	ldr	r0, [sp, #128]
	.loc	13 569 45 is_stmt 0             @ lvgl/src/lv_themes/lv_theme_mono.c:569:45
	movw	r1, :lower16:styles
	movt	r1, :upper16:styles
	ldr	r1, [r1]
	.loc	13 569 13                       @ lvgl/src/lv_themes/lv_theme_mono.c:569:13
	bl	_lv_style_list_add_style
	.loc	13 570 13 is_stmt 1             @ lvgl/src/lv_themes/lv_theme_mono.c:570:13
	b.w	.LBB32_49
.LBB32_5:
	.loc	13 572 42                       @ lvgl/src/lv_themes/lv_theme_mono.c:572:42
	ldr	r0, [sp, #136]
	movs	r1, #0
	.loc	13 572 20 is_stmt 0             @ lvgl/src/lv_themes/lv_theme_mono.c:572:20
	bl	lv_obj_get_style_list
	.loc	13 572 18                       @ lvgl/src/lv_themes/lv_theme_mono.c:572:18
	str	r0, [sp, #128]
	.loc	13 573 38 is_stmt 1             @ lvgl/src/lv_themes/lv_theme_mono.c:573:38
	ldr	r0, [sp, #128]
	.loc	13 573 45 is_stmt 0             @ lvgl/src/lv_themes/lv_theme_mono.c:573:45
	movw	r1, :lower16:styles
	movt	r1, :upper16:styles
	ldr	r1, [r1]
	.loc	13 573 53                       @ lvgl/src/lv_themes/lv_theme_mono.c:573:53
	adds	r1, #4
	.loc	13 573 13                       @ lvgl/src/lv_themes/lv_theme_mono.c:573:13
	bl	_lv_style_list_add_style
	.loc	13 574 13 is_stmt 1             @ lvgl/src/lv_themes/lv_theme_mono.c:574:13
	b.w	.LBB32_49
.LBB32_6:
	.loc	13 577 42                       @ lvgl/src/lv_themes/lv_theme_mono.c:577:42
	ldr	r0, [sp, #136]
	movs	r1, #0
	.loc	13 577 20 is_stmt 0             @ lvgl/src/lv_themes/lv_theme_mono.c:577:20
	bl	lv_obj_get_style_list
	.loc	13 577 18                       @ lvgl/src/lv_themes/lv_theme_mono.c:577:18
	str	r0, [sp, #128]
	.loc	13 578 38 is_stmt 1             @ lvgl/src/lv_themes/lv_theme_mono.c:578:38
	ldr	r0, [sp, #128]
	.loc	13 578 45 is_stmt 0             @ lvgl/src/lv_themes/lv_theme_mono.c:578:45
	movw	r1, :lower16:styles
	movt	r1, :upper16:styles
	ldr	r1, [r1]
	.loc	13 578 53                       @ lvgl/src/lv_themes/lv_theme_mono.c:578:53
	adds	r1, #4
	.loc	13 578 13                       @ lvgl/src/lv_themes/lv_theme_mono.c:578:13
	bl	_lv_style_list_add_style
	.loc	13 579 13 is_stmt 1             @ lvgl/src/lv_themes/lv_theme_mono.c:579:13
	b.w	.LBB32_49
.LBB32_7:
	.loc	13 584 42                       @ lvgl/src/lv_themes/lv_theme_mono.c:584:42
	ldr	r0, [sp, #136]
	movs	r1, #0
	.loc	13 584 20 is_stmt 0             @ lvgl/src/lv_themes/lv_theme_mono.c:584:20
	bl	lv_obj_get_style_list
	.loc	13 584 18                       @ lvgl/src/lv_themes/lv_theme_mono.c:584:18
	str	r0, [sp, #128]
	.loc	13 585 38 is_stmt 1             @ lvgl/src/lv_themes/lv_theme_mono.c:585:38
	ldr	r0, [sp, #128]
	.loc	13 585 45 is_stmt 0             @ lvgl/src/lv_themes/lv_theme_mono.c:585:45
	movw	r1, :lower16:styles
	movt	r1, :upper16:styles
	str	r1, [sp, #116]                  @ 4-byte Spill
	ldr	r1, [r1]
	.loc	13 585 53                       @ lvgl/src/lv_themes/lv_theme_mono.c:585:53
	adds	r1, #4
	.loc	13 585 13                       @ lvgl/src/lv_themes/lv_theme_mono.c:585:13
	bl	_lv_style_list_add_style
	ldr	r1, [sp, #116]                  @ 4-byte Reload
	.loc	13 586 38 is_stmt 1             @ lvgl/src/lv_themes/lv_theme_mono.c:586:38
	ldr	r0, [sp, #128]
	.loc	13 586 45 is_stmt 0             @ lvgl/src/lv_themes/lv_theme_mono.c:586:45
	ldr	r1, [r1]
	.loc	13 586 53                       @ lvgl/src/lv_themes/lv_theme_mono.c:586:53
	adds	r1, #12
	.loc	13 586 13                       @ lvgl/src/lv_themes/lv_theme_mono.c:586:13
	bl	_lv_style_list_add_style
	ldr	r1, [sp, #116]                  @ 4-byte Reload
	.loc	13 587 38 is_stmt 1             @ lvgl/src/lv_themes/lv_theme_mono.c:587:38
	ldr	r0, [sp, #128]
	.loc	13 587 45 is_stmt 0             @ lvgl/src/lv_themes/lv_theme_mono.c:587:45
	ldr	r1, [r1]
	.loc	13 587 53                       @ lvgl/src/lv_themes/lv_theme_mono.c:587:53
	adds	r1, #52
	.loc	13 587 13                       @ lvgl/src/lv_themes/lv_theme_mono.c:587:13
	bl	_lv_style_list_add_style
	.loc	13 588 13 is_stmt 1             @ lvgl/src/lv_themes/lv_theme_mono.c:588:13
	b.w	.LBB32_49
.LBB32_8:
	.loc	13 593 42                       @ lvgl/src/lv_themes/lv_theme_mono.c:593:42
	ldr	r0, [sp, #136]
	movs	r1, #0
	.loc	13 593 20 is_stmt 0             @ lvgl/src/lv_themes/lv_theme_mono.c:593:20
	bl	lv_obj_get_style_list
	.loc	13 593 18                       @ lvgl/src/lv_themes/lv_theme_mono.c:593:18
	str	r0, [sp, #128]
	.loc	13 594 38 is_stmt 1             @ lvgl/src/lv_themes/lv_theme_mono.c:594:38
	ldr	r0, [sp, #128]
	.loc	13 594 45 is_stmt 0             @ lvgl/src/lv_themes/lv_theme_mono.c:594:45
	movw	r1, :lower16:styles
	movt	r1, :upper16:styles
	str	r1, [sp, #112]                  @ 4-byte Spill
	ldr	r1, [r1]
	.loc	13 594 53                       @ lvgl/src/lv_themes/lv_theme_mono.c:594:53
	adds	r1, #4
	.loc	13 594 13                       @ lvgl/src/lv_themes/lv_theme_mono.c:594:13
	bl	_lv_style_list_add_style
	.loc	13 596 42 is_stmt 1             @ lvgl/src/lv_themes/lv_theme_mono.c:596:42
	ldr	r0, [sp, #136]
	movs	r1, #1
	.loc	13 596 20 is_stmt 0             @ lvgl/src/lv_themes/lv_theme_mono.c:596:20
	bl	lv_obj_get_style_list
	ldr	r1, [sp, #112]                  @ 4-byte Reload
	.loc	13 596 18                       @ lvgl/src/lv_themes/lv_theme_mono.c:596:18
	str	r0, [sp, #128]
	.loc	13 597 38 is_stmt 1             @ lvgl/src/lv_themes/lv_theme_mono.c:597:38
	ldr	r0, [sp, #128]
	.loc	13 597 45 is_stmt 0             @ lvgl/src/lv_themes/lv_theme_mono.c:597:45
	ldr	r1, [r1]
	.loc	13 597 53                       @ lvgl/src/lv_themes/lv_theme_mono.c:597:53
	adds	r1, #4
	.loc	13 597 13                       @ lvgl/src/lv_themes/lv_theme_mono.c:597:13
	bl	_lv_style_list_add_style
	ldr	r1, [sp, #112]                  @ 4-byte Reload
	.loc	13 598 38 is_stmt 1             @ lvgl/src/lv_themes/lv_theme_mono.c:598:38
	ldr	r0, [sp, #128]
	.loc	13 598 45 is_stmt 0             @ lvgl/src/lv_themes/lv_theme_mono.c:598:45
	ldr	r1, [r1]
	.loc	13 598 53                       @ lvgl/src/lv_themes/lv_theme_mono.c:598:53
	adds	r1, #12
	.loc	13 598 13                       @ lvgl/src/lv_themes/lv_theme_mono.c:598:13
	bl	_lv_style_list_add_style
	ldr	r1, [sp, #112]                  @ 4-byte Reload
	.loc	13 599 38 is_stmt 1             @ lvgl/src/lv_themes/lv_theme_mono.c:599:38
	ldr	r0, [sp, #128]
	.loc	13 599 45 is_stmt 0             @ lvgl/src/lv_themes/lv_theme_mono.c:599:45
	ldr	r1, [r1]
	.loc	13 599 53                       @ lvgl/src/lv_themes/lv_theme_mono.c:599:53
	adds	r1, #52
	.loc	13 599 13                       @ lvgl/src/lv_themes/lv_theme_mono.c:599:13
	bl	_lv_style_list_add_style
	.loc	13 600 13 is_stmt 1             @ lvgl/src/lv_themes/lv_theme_mono.c:600:13
	b.w	.LBB32_49
.LBB32_9:
	.loc	13 605 42                       @ lvgl/src/lv_themes/lv_theme_mono.c:605:42
	ldr	r0, [sp, #136]
	movs	r1, #0
	.loc	13 605 20 is_stmt 0             @ lvgl/src/lv_themes/lv_theme_mono.c:605:20
	bl	lv_obj_get_style_list
	.loc	13 605 18                       @ lvgl/src/lv_themes/lv_theme_mono.c:605:18
	str	r0, [sp, #128]
	.loc	13 606 38 is_stmt 1             @ lvgl/src/lv_themes/lv_theme_mono.c:606:38
	ldr	r0, [sp, #128]
	.loc	13 606 45 is_stmt 0             @ lvgl/src/lv_themes/lv_theme_mono.c:606:45
	movw	r1, :lower16:styles
	movt	r1, :upper16:styles
	str	r1, [sp, #108]                  @ 4-byte Spill
	ldr	r1, [r1]
	.loc	13 606 53                       @ lvgl/src/lv_themes/lv_theme_mono.c:606:53
	adds	r1, #4
	.loc	13 606 13                       @ lvgl/src/lv_themes/lv_theme_mono.c:606:13
	bl	_lv_style_list_add_style
	ldr	r1, [sp, #108]                  @ 4-byte Reload
	.loc	13 607 38 is_stmt 1             @ lvgl/src/lv_themes/lv_theme_mono.c:607:38
	ldr	r0, [sp, #128]
	.loc	13 607 45 is_stmt 0             @ lvgl/src/lv_themes/lv_theme_mono.c:607:45
	ldr	r1, [r1]
	.loc	13 607 53                       @ lvgl/src/lv_themes/lv_theme_mono.c:607:53
	adds	r1, #44
	.loc	13 607 13                       @ lvgl/src/lv_themes/lv_theme_mono.c:607:13
	bl	_lv_style_list_add_style
	.loc	13 609 42 is_stmt 1             @ lvgl/src/lv_themes/lv_theme_mono.c:609:42
	ldr	r0, [sp, #136]
	movs	r1, #1
	.loc	13 609 20 is_stmt 0             @ lvgl/src/lv_themes/lv_theme_mono.c:609:20
	bl	lv_obj_get_style_list
	ldr	r1, [sp, #108]                  @ 4-byte Reload
	.loc	13 609 18                       @ lvgl/src/lv_themes/lv_theme_mono.c:609:18
	str	r0, [sp, #128]
	.loc	13 610 38 is_stmt 1             @ lvgl/src/lv_themes/lv_theme_mono.c:610:38
	ldr	r0, [sp, #128]
	.loc	13 610 45 is_stmt 0             @ lvgl/src/lv_themes/lv_theme_mono.c:610:45
	ldr	r1, [r1]
	.loc	13 610 53                       @ lvgl/src/lv_themes/lv_theme_mono.c:610:53
	adds	r1, #4
	.loc	13 610 13                       @ lvgl/src/lv_themes/lv_theme_mono.c:610:13
	bl	_lv_style_list_add_style
	ldr	r1, [sp, #108]                  @ 4-byte Reload
	.loc	13 611 38 is_stmt 1             @ lvgl/src/lv_themes/lv_theme_mono.c:611:38
	ldr	r0, [sp, #128]
	.loc	13 611 45 is_stmt 0             @ lvgl/src/lv_themes/lv_theme_mono.c:611:45
	ldr	r1, [r1]
	.loc	13 611 53                       @ lvgl/src/lv_themes/lv_theme_mono.c:611:53
	adds	r1, #12
	.loc	13 611 13                       @ lvgl/src/lv_themes/lv_theme_mono.c:611:13
	bl	_lv_style_list_add_style
	.loc	13 612 13 is_stmt 1             @ lvgl/src/lv_themes/lv_theme_mono.c:612:13
	b.w	.LBB32_49
.LBB32_10:
	.loc	13 617 42                       @ lvgl/src/lv_themes/lv_theme_mono.c:617:42
	ldr	r0, [sp, #136]
	movs	r1, #0
	.loc	13 617 20 is_stmt 0             @ lvgl/src/lv_themes/lv_theme_mono.c:617:20
	bl	lv_obj_get_style_list
	.loc	13 617 18                       @ lvgl/src/lv_themes/lv_theme_mono.c:617:18
	str	r0, [sp, #128]
	.loc	13 618 38 is_stmt 1             @ lvgl/src/lv_themes/lv_theme_mono.c:618:38
	ldr	r0, [sp, #128]
	.loc	13 618 45 is_stmt 0             @ lvgl/src/lv_themes/lv_theme_mono.c:618:45
	movw	r1, :lower16:styles
	movt	r1, :upper16:styles
	str	r1, [sp, #104]                  @ 4-byte Spill
	ldr	r1, [r1]
	.loc	13 618 53                       @ lvgl/src/lv_themes/lv_theme_mono.c:618:53
	adds	r1, #4
	.loc	13 618 13                       @ lvgl/src/lv_themes/lv_theme_mono.c:618:13
	bl	_lv_style_list_add_style
	ldr	r1, [sp, #104]                  @ 4-byte Reload
	.loc	13 619 38 is_stmt 1             @ lvgl/src/lv_themes/lv_theme_mono.c:619:38
	ldr	r0, [sp, #128]
	.loc	13 619 45 is_stmt 0             @ lvgl/src/lv_themes/lv_theme_mono.c:619:45
	ldr	r1, [r1]
	.loc	13 619 53                       @ lvgl/src/lv_themes/lv_theme_mono.c:619:53
	adds	r1, #36
	.loc	13 619 13                       @ lvgl/src/lv_themes/lv_theme_mono.c:619:13
	bl	_lv_style_list_add_style
	ldr	r1, [sp, #104]                  @ 4-byte Reload
	.loc	13 620 38 is_stmt 1             @ lvgl/src/lv_themes/lv_theme_mono.c:620:38
	ldr	r0, [sp, #128]
	.loc	13 620 45 is_stmt 0             @ lvgl/src/lv_themes/lv_theme_mono.c:620:45
	ldr	r1, [r1]
	.loc	13 620 53                       @ lvgl/src/lv_themes/lv_theme_mono.c:620:53
	adds	r1, #16
	.loc	13 620 13                       @ lvgl/src/lv_themes/lv_theme_mono.c:620:13
	bl	_lv_style_list_add_style
	.loc	13 622 42 is_stmt 1             @ lvgl/src/lv_themes/lv_theme_mono.c:622:42
	ldr	r0, [sp, #136]
	movs	r1, #1
	.loc	13 622 20 is_stmt 0             @ lvgl/src/lv_themes/lv_theme_mono.c:622:20
	bl	lv_obj_get_style_list
	ldr	r1, [sp, #104]                  @ 4-byte Reload
	.loc	13 622 18                       @ lvgl/src/lv_themes/lv_theme_mono.c:622:18
	str	r0, [sp, #128]
	.loc	13 623 38 is_stmt 1             @ lvgl/src/lv_themes/lv_theme_mono.c:623:38
	ldr	r0, [sp, #128]
	.loc	13 623 45 is_stmt 0             @ lvgl/src/lv_themes/lv_theme_mono.c:623:45
	ldr	r1, [r1]
	.loc	13 623 53                       @ lvgl/src/lv_themes/lv_theme_mono.c:623:53
	adds	r1, #4
	.loc	13 623 13                       @ lvgl/src/lv_themes/lv_theme_mono.c:623:13
	bl	_lv_style_list_add_style
	ldr	r1, [sp, #104]                  @ 4-byte Reload
	.loc	13 624 38 is_stmt 1             @ lvgl/src/lv_themes/lv_theme_mono.c:624:38
	ldr	r0, [sp, #128]
	.loc	13 624 45 is_stmt 0             @ lvgl/src/lv_themes/lv_theme_mono.c:624:45
	ldr	r1, [r1]
	.loc	13 624 53                       @ lvgl/src/lv_themes/lv_theme_mono.c:624:53
	adds	r1, #24
	.loc	13 624 13                       @ lvgl/src/lv_themes/lv_theme_mono.c:624:13
	bl	_lv_style_list_add_style
	ldr	r1, [sp, #104]                  @ 4-byte Reload
	.loc	13 625 38 is_stmt 1             @ lvgl/src/lv_themes/lv_theme_mono.c:625:38
	ldr	r0, [sp, #128]
	.loc	13 625 45 is_stmt 0             @ lvgl/src/lv_themes/lv_theme_mono.c:625:45
	ldr	r1, [r1]
	.loc	13 625 53                       @ lvgl/src/lv_themes/lv_theme_mono.c:625:53
	adds	r1, #16
	.loc	13 625 13                       @ lvgl/src/lv_themes/lv_theme_mono.c:625:13
	bl	_lv_style_list_add_style
	.loc	13 626 13 is_stmt 1             @ lvgl/src/lv_themes/lv_theme_mono.c:626:13
	b.w	.LBB32_49
.LBB32_11:
	.loc	13 631 42                       @ lvgl/src/lv_themes/lv_theme_mono.c:631:42
	ldr	r0, [sp, #136]
	movs	r1, #0
	.loc	13 631 20 is_stmt 0             @ lvgl/src/lv_themes/lv_theme_mono.c:631:20
	bl	lv_obj_get_style_list
	.loc	13 631 18                       @ lvgl/src/lv_themes/lv_theme_mono.c:631:18
	str	r0, [sp, #128]
	.loc	13 632 38 is_stmt 1             @ lvgl/src/lv_themes/lv_theme_mono.c:632:38
	ldr	r0, [sp, #128]
	.loc	13 632 45 is_stmt 0             @ lvgl/src/lv_themes/lv_theme_mono.c:632:45
	movw	r1, :lower16:styles
	movt	r1, :upper16:styles
	str	r1, [sp, #100]                  @ 4-byte Spill
	ldr	r1, [r1]
	.loc	13 632 53                       @ lvgl/src/lv_themes/lv_theme_mono.c:632:53
	adds	r1, #4
	.loc	13 632 13                       @ lvgl/src/lv_themes/lv_theme_mono.c:632:13
	bl	_lv_style_list_add_style
	ldr	r1, [sp, #100]                  @ 4-byte Reload
	.loc	13 633 38 is_stmt 1             @ lvgl/src/lv_themes/lv_theme_mono.c:633:38
	ldr	r0, [sp, #128]
	.loc	13 633 45 is_stmt 0             @ lvgl/src/lv_themes/lv_theme_mono.c:633:45
	ldr	r1, [r1]
	.loc	13 633 53                       @ lvgl/src/lv_themes/lv_theme_mono.c:633:53
	adds	r1, #36
	.loc	13 633 13                       @ lvgl/src/lv_themes/lv_theme_mono.c:633:13
	bl	_lv_style_list_add_style
	ldr	r1, [sp, #100]                  @ 4-byte Reload
	.loc	13 634 38 is_stmt 1             @ lvgl/src/lv_themes/lv_theme_mono.c:634:38
	ldr	r0, [sp, #128]
	.loc	13 634 45 is_stmt 0             @ lvgl/src/lv_themes/lv_theme_mono.c:634:45
	ldr	r1, [r1]
	.loc	13 634 53                       @ lvgl/src/lv_themes/lv_theme_mono.c:634:53
	adds	r1, #16
	.loc	13 634 13                       @ lvgl/src/lv_themes/lv_theme_mono.c:634:13
	bl	_lv_style_list_add_style
	.loc	13 636 42 is_stmt 1             @ lvgl/src/lv_themes/lv_theme_mono.c:636:42
	ldr	r0, [sp, #136]
	movs	r1, #1
	.loc	13 636 20 is_stmt 0             @ lvgl/src/lv_themes/lv_theme_mono.c:636:20
	bl	lv_obj_get_style_list
	ldr	r1, [sp, #100]                  @ 4-byte Reload
	.loc	13 636 18                       @ lvgl/src/lv_themes/lv_theme_mono.c:636:18
	str	r0, [sp, #128]
	.loc	13 637 38 is_stmt 1             @ lvgl/src/lv_themes/lv_theme_mono.c:637:38
	ldr	r0, [sp, #128]
	.loc	13 637 45 is_stmt 0             @ lvgl/src/lv_themes/lv_theme_mono.c:637:45
	ldr	r1, [r1]
	.loc	13 637 53                       @ lvgl/src/lv_themes/lv_theme_mono.c:637:53
	adds	r1, #4
	.loc	13 637 13                       @ lvgl/src/lv_themes/lv_theme_mono.c:637:13
	bl	_lv_style_list_add_style
	ldr	r1, [sp, #100]                  @ 4-byte Reload
	.loc	13 638 38 is_stmt 1             @ lvgl/src/lv_themes/lv_theme_mono.c:638:38
	ldr	r0, [sp, #128]
	.loc	13 638 45 is_stmt 0             @ lvgl/src/lv_themes/lv_theme_mono.c:638:45
	ldr	r1, [r1]
	.loc	13 638 53                       @ lvgl/src/lv_themes/lv_theme_mono.c:638:53
	adds	r1, #24
	.loc	13 638 13                       @ lvgl/src/lv_themes/lv_theme_mono.c:638:13
	bl	_lv_style_list_add_style
	.loc	13 640 42 is_stmt 1             @ lvgl/src/lv_themes/lv_theme_mono.c:640:42
	ldr	r0, [sp, #136]
	movs	r1, #2
	.loc	13 640 20 is_stmt 0             @ lvgl/src/lv_themes/lv_theme_mono.c:640:20
	bl	lv_obj_get_style_list
	ldr	r1, [sp, #100]                  @ 4-byte Reload
	.loc	13 640 18                       @ lvgl/src/lv_themes/lv_theme_mono.c:640:18
	str	r0, [sp, #128]
	.loc	13 641 38 is_stmt 1             @ lvgl/src/lv_themes/lv_theme_mono.c:641:38
	ldr	r0, [sp, #128]
	.loc	13 641 45 is_stmt 0             @ lvgl/src/lv_themes/lv_theme_mono.c:641:45
	ldr	r1, [r1]
	.loc	13 641 53                       @ lvgl/src/lv_themes/lv_theme_mono.c:641:53
	adds	r1, #4
	.loc	13 641 13                       @ lvgl/src/lv_themes/lv_theme_mono.c:641:13
	bl	_lv_style_list_add_style
	ldr	r1, [sp, #100]                  @ 4-byte Reload
	.loc	13 642 38 is_stmt 1             @ lvgl/src/lv_themes/lv_theme_mono.c:642:38
	ldr	r0, [sp, #128]
	.loc	13 642 45 is_stmt 0             @ lvgl/src/lv_themes/lv_theme_mono.c:642:45
	ldr	r1, [r1]
	.loc	13 642 53                       @ lvgl/src/lv_themes/lv_theme_mono.c:642:53
	adds	r1, #36
	.loc	13 642 13                       @ lvgl/src/lv_themes/lv_theme_mono.c:642:13
	bl	_lv_style_list_add_style
	ldr	r1, [sp, #100]                  @ 4-byte Reload
	.loc	13 643 38 is_stmt 1             @ lvgl/src/lv_themes/lv_theme_mono.c:643:38
	ldr	r0, [sp, #128]
	.loc	13 643 45 is_stmt 0             @ lvgl/src/lv_themes/lv_theme_mono.c:643:45
	ldr	r1, [r1]
	.loc	13 643 53                       @ lvgl/src/lv_themes/lv_theme_mono.c:643:53
	adds	r1, #16
	.loc	13 643 13                       @ lvgl/src/lv_themes/lv_theme_mono.c:643:13
	bl	_lv_style_list_add_style
	.loc	13 644 13 is_stmt 1             @ lvgl/src/lv_themes/lv_theme_mono.c:644:13
	b.w	.LBB32_49
.LBB32_12:
	.loc	13 649 42                       @ lvgl/src/lv_themes/lv_theme_mono.c:649:42
	ldr	r0, [sp, #136]
	movs	r1, #0
	.loc	13 649 20 is_stmt 0             @ lvgl/src/lv_themes/lv_theme_mono.c:649:20
	bl	lv_obj_get_style_list
	.loc	13 649 18                       @ lvgl/src/lv_themes/lv_theme_mono.c:649:18
	str	r0, [sp, #128]
	.loc	13 650 13 is_stmt 1             @ lvgl/src/lv_themes/lv_theme_mono.c:650:13
	b.w	.LBB32_49
.LBB32_13:
	.loc	13 655 42                       @ lvgl/src/lv_themes/lv_theme_mono.c:655:42
	ldr	r0, [sp, #136]
	movs	r1, #0
	.loc	13 655 20 is_stmt 0             @ lvgl/src/lv_themes/lv_theme_mono.c:655:20
	bl	lv_obj_get_style_list
	.loc	13 655 18                       @ lvgl/src/lv_themes/lv_theme_mono.c:655:18
	str	r0, [sp, #128]
	.loc	13 656 13 is_stmt 1             @ lvgl/src/lv_themes/lv_theme_mono.c:656:13
	b.w	.LBB32_49
.LBB32_14:
	.loc	13 661 42                       @ lvgl/src/lv_themes/lv_theme_mono.c:661:42
	ldr	r0, [sp, #136]
	movs	r1, #0
	.loc	13 661 20 is_stmt 0             @ lvgl/src/lv_themes/lv_theme_mono.c:661:20
	bl	lv_obj_get_style_list
	.loc	13 661 18                       @ lvgl/src/lv_themes/lv_theme_mono.c:661:18
	str	r0, [sp, #128]
	.loc	13 662 13 is_stmt 1             @ lvgl/src/lv_themes/lv_theme_mono.c:662:13
	b.w	.LBB32_49
.LBB32_15:
	.loc	13 667 42                       @ lvgl/src/lv_themes/lv_theme_mono.c:667:42
	ldr	r0, [sp, #136]
	movs	r1, #0
	.loc	13 667 20 is_stmt 0             @ lvgl/src/lv_themes/lv_theme_mono.c:667:20
	bl	lv_obj_get_style_list
	.loc	13 667 18                       @ lvgl/src/lv_themes/lv_theme_mono.c:667:18
	str	r0, [sp, #128]
	.loc	13 668 13 is_stmt 1             @ lvgl/src/lv_themes/lv_theme_mono.c:668:13
	b.w	.LBB32_49
.LBB32_16:
	.loc	13 673 42                       @ lvgl/src/lv_themes/lv_theme_mono.c:673:42
	ldr	r0, [sp, #136]
	movs	r1, #0
	.loc	13 673 20 is_stmt 0             @ lvgl/src/lv_themes/lv_theme_mono.c:673:20
	bl	lv_obj_get_style_list
	.loc	13 673 18                       @ lvgl/src/lv_themes/lv_theme_mono.c:673:18
	str	r0, [sp, #128]
	.loc	13 674 13 is_stmt 1             @ lvgl/src/lv_themes/lv_theme_mono.c:674:13
	b.w	.LBB32_49
.LBB32_17:
	.loc	13 679 42                       @ lvgl/src/lv_themes/lv_theme_mono.c:679:42
	ldr	r0, [sp, #136]
	movs	r1, #0
	.loc	13 679 20 is_stmt 0             @ lvgl/src/lv_themes/lv_theme_mono.c:679:20
	bl	lv_obj_get_style_list
	.loc	13 679 18                       @ lvgl/src/lv_themes/lv_theme_mono.c:679:18
	str	r0, [sp, #128]
	.loc	13 680 38 is_stmt 1             @ lvgl/src/lv_themes/lv_theme_mono.c:680:38
	ldr	r0, [sp, #128]
	.loc	13 680 45 is_stmt 0             @ lvgl/src/lv_themes/lv_theme_mono.c:680:45
	movw	r1, :lower16:styles
	movt	r1, :upper16:styles
	str	r1, [sp, #96]                   @ 4-byte Spill
	ldr	r1, [r1]
	.loc	13 680 53                       @ lvgl/src/lv_themes/lv_theme_mono.c:680:53
	adds	r1, #56
	.loc	13 680 13                       @ lvgl/src/lv_themes/lv_theme_mono.c:680:13
	bl	_lv_style_list_add_style
	.loc	13 682 42 is_stmt 1             @ lvgl/src/lv_themes/lv_theme_mono.c:682:42
	ldr	r0, [sp, #136]
	movs	r1, #1
	.loc	13 682 20 is_stmt 0             @ lvgl/src/lv_themes/lv_theme_mono.c:682:20
	bl	lv_obj_get_style_list
	ldr	r1, [sp, #96]                   @ 4-byte Reload
	.loc	13 682 18                       @ lvgl/src/lv_themes/lv_theme_mono.c:682:18
	str	r0, [sp, #128]
	.loc	13 683 38 is_stmt 1             @ lvgl/src/lv_themes/lv_theme_mono.c:683:38
	ldr	r0, [sp, #128]
	.loc	13 683 45 is_stmt 0             @ lvgl/src/lv_themes/lv_theme_mono.c:683:45
	ldr	r1, [r1]
	.loc	13 683 53                       @ lvgl/src/lv_themes/lv_theme_mono.c:683:53
	adds	r1, #60
	.loc	13 683 13                       @ lvgl/src/lv_themes/lv_theme_mono.c:683:13
	bl	_lv_style_list_add_style
	.loc	13 684 13 is_stmt 1             @ lvgl/src/lv_themes/lv_theme_mono.c:684:13
	b.w	.LBB32_49
.LBB32_18:
	.loc	13 689 42                       @ lvgl/src/lv_themes/lv_theme_mono.c:689:42
	ldr	r0, [sp, #136]
	movs	r1, #0
	.loc	13 689 20 is_stmt 0             @ lvgl/src/lv_themes/lv_theme_mono.c:689:20
	bl	lv_obj_get_style_list
	.loc	13 689 18                       @ lvgl/src/lv_themes/lv_theme_mono.c:689:18
	str	r0, [sp, #128]
	.loc	13 690 38 is_stmt 1             @ lvgl/src/lv_themes/lv_theme_mono.c:690:38
	ldr	r0, [sp, #128]
	.loc	13 690 45 is_stmt 0             @ lvgl/src/lv_themes/lv_theme_mono.c:690:45
	movw	r1, :lower16:styles
	movt	r1, :upper16:styles
	str	r1, [sp, #92]                   @ 4-byte Spill
	ldr	r1, [r1]
	.loc	13 690 53                       @ lvgl/src/lv_themes/lv_theme_mono.c:690:53
	adds	r1, #4
	.loc	13 690 13                       @ lvgl/src/lv_themes/lv_theme_mono.c:690:13
	bl	_lv_style_list_add_style
	ldr	r1, [sp, #92]                   @ 4-byte Reload
	.loc	13 691 38 is_stmt 1             @ lvgl/src/lv_themes/lv_theme_mono.c:691:38
	ldr	r0, [sp, #128]
	.loc	13 691 45 is_stmt 0             @ lvgl/src/lv_themes/lv_theme_mono.c:691:45
	ldr	r1, [r1]
	.loc	13 691 53                       @ lvgl/src/lv_themes/lv_theme_mono.c:691:53
	adds	r1, #92
	.loc	13 691 13                       @ lvgl/src/lv_themes/lv_theme_mono.c:691:13
	bl	_lv_style_list_add_style
	.loc	13 693 42 is_stmt 1             @ lvgl/src/lv_themes/lv_theme_mono.c:693:42
	ldr	r0, [sp, #136]
	movs	r1, #1
	.loc	13 693 20 is_stmt 0             @ lvgl/src/lv_themes/lv_theme_mono.c:693:20
	bl	lv_obj_get_style_list
	ldr	r1, [sp, #92]                   @ 4-byte Reload
	.loc	13 693 18                       @ lvgl/src/lv_themes/lv_theme_mono.c:693:18
	str	r0, [sp, #128]
	.loc	13 694 38 is_stmt 1             @ lvgl/src/lv_themes/lv_theme_mono.c:694:38
	ldr	r0, [sp, #128]
	.loc	13 694 45 is_stmt 0             @ lvgl/src/lv_themes/lv_theme_mono.c:694:45
	ldr	r1, [r1]
	.loc	13 694 53                       @ lvgl/src/lv_themes/lv_theme_mono.c:694:53
	adds	r1, #4
	.loc	13 694 13                       @ lvgl/src/lv_themes/lv_theme_mono.c:694:13
	bl	_lv_style_list_add_style
	ldr	r1, [sp, #92]                   @ 4-byte Reload
	.loc	13 695 38 is_stmt 1             @ lvgl/src/lv_themes/lv_theme_mono.c:695:38
	ldr	r0, [sp, #128]
	.loc	13 695 45 is_stmt 0             @ lvgl/src/lv_themes/lv_theme_mono.c:695:45
	ldr	r1, [r1]
	.loc	13 695 53                       @ lvgl/src/lv_themes/lv_theme_mono.c:695:53
	adds	r1, #24
	.loc	13 695 13                       @ lvgl/src/lv_themes/lv_theme_mono.c:695:13
	bl	_lv_style_list_add_style
	ldr	r1, [sp, #92]                   @ 4-byte Reload
	.loc	13 696 38 is_stmt 1             @ lvgl/src/lv_themes/lv_theme_mono.c:696:38
	ldr	r0, [sp, #128]
	.loc	13 696 45 is_stmt 0             @ lvgl/src/lv_themes/lv_theme_mono.c:696:45
	ldr	r1, [r1]
	.loc	13 696 53                       @ lvgl/src/lv_themes/lv_theme_mono.c:696:53
	adds	r1, #92
	.loc	13 696 13                       @ lvgl/src/lv_themes/lv_theme_mono.c:696:13
	bl	_lv_style_list_add_style
	.loc	13 697 13 is_stmt 1             @ lvgl/src/lv_themes/lv_theme_mono.c:697:13
	b	.LBB32_49
.LBB32_19:
	.loc	13 702 42                       @ lvgl/src/lv_themes/lv_theme_mono.c:702:42
	ldr	r0, [sp, #136]
	movs	r1, #0
	.loc	13 702 20 is_stmt 0             @ lvgl/src/lv_themes/lv_theme_mono.c:702:20
	bl	lv_obj_get_style_list
	.loc	13 702 18                       @ lvgl/src/lv_themes/lv_theme_mono.c:702:18
	str	r0, [sp, #128]
	.loc	13 703 38 is_stmt 1             @ lvgl/src/lv_themes/lv_theme_mono.c:703:38
	ldr	r0, [sp, #128]
	.loc	13 703 45 is_stmt 0             @ lvgl/src/lv_themes/lv_theme_mono.c:703:45
	movw	r1, :lower16:styles
	movt	r1, :upper16:styles
	str	r1, [sp, #88]                   @ 4-byte Spill
	ldr	r1, [r1]
	.loc	13 703 53                       @ lvgl/src/lv_themes/lv_theme_mono.c:703:53
	adds	r1, #4
	.loc	13 703 13                       @ lvgl/src/lv_themes/lv_theme_mono.c:703:13
	bl	_lv_style_list_add_style
	ldr	r1, [sp, #88]                   @ 4-byte Reload
	.loc	13 704 38 is_stmt 1             @ lvgl/src/lv_themes/lv_theme_mono.c:704:38
	ldr	r0, [sp, #128]
	.loc	13 704 45 is_stmt 0             @ lvgl/src/lv_themes/lv_theme_mono.c:704:45
	ldr	r1, [r1]
	.loc	13 704 53                       @ lvgl/src/lv_themes/lv_theme_mono.c:704:53
	adds	r1, #36
	.loc	13 704 13                       @ lvgl/src/lv_themes/lv_theme_mono.c:704:13
	bl	_lv_style_list_add_style
	.loc	13 706 42 is_stmt 1             @ lvgl/src/lv_themes/lv_theme_mono.c:706:42
	ldr	r0, [sp, #136]
	movs	r1, #1
	.loc	13 706 20 is_stmt 0             @ lvgl/src/lv_themes/lv_theme_mono.c:706:20
	bl	lv_obj_get_style_list
	ldr	r1, [sp, #88]                   @ 4-byte Reload
	.loc	13 706 18                       @ lvgl/src/lv_themes/lv_theme_mono.c:706:18
	str	r0, [sp, #128]
	.loc	13 707 38 is_stmt 1             @ lvgl/src/lv_themes/lv_theme_mono.c:707:38
	ldr	r0, [sp, #128]
	.loc	13 707 45 is_stmt 0             @ lvgl/src/lv_themes/lv_theme_mono.c:707:45
	ldr	r1, [r1]
	.loc	13 707 53                       @ lvgl/src/lv_themes/lv_theme_mono.c:707:53
	adds	r1, #4
	.loc	13 707 13                       @ lvgl/src/lv_themes/lv_theme_mono.c:707:13
	bl	_lv_style_list_add_style
	ldr	r1, [sp, #88]                   @ 4-byte Reload
	.loc	13 708 38 is_stmt 1             @ lvgl/src/lv_themes/lv_theme_mono.c:708:38
	ldr	r0, [sp, #128]
	.loc	13 708 45 is_stmt 0             @ lvgl/src/lv_themes/lv_theme_mono.c:708:45
	ldr	r1, [r1]
	.loc	13 708 53                       @ lvgl/src/lv_themes/lv_theme_mono.c:708:53
	adds	r1, #24
	.loc	13 708 13                       @ lvgl/src/lv_themes/lv_theme_mono.c:708:13
	bl	_lv_style_list_add_style
	.loc	13 710 42 is_stmt 1             @ lvgl/src/lv_themes/lv_theme_mono.c:710:42
	ldr	r0, [sp, #136]
	movs	r1, #2
	.loc	13 710 20 is_stmt 0             @ lvgl/src/lv_themes/lv_theme_mono.c:710:20
	bl	lv_obj_get_style_list
	ldr	r1, [sp, #88]                   @ 4-byte Reload
	.loc	13 710 18                       @ lvgl/src/lv_themes/lv_theme_mono.c:710:18
	str	r0, [sp, #128]
	.loc	13 711 38 is_stmt 1             @ lvgl/src/lv_themes/lv_theme_mono.c:711:38
	ldr	r0, [sp, #128]
	.loc	13 711 45 is_stmt 0             @ lvgl/src/lv_themes/lv_theme_mono.c:711:45
	ldr	r1, [r1]
	.loc	13 711 53                       @ lvgl/src/lv_themes/lv_theme_mono.c:711:53
	adds	r1, #4
	.loc	13 711 13                       @ lvgl/src/lv_themes/lv_theme_mono.c:711:13
	bl	_lv_style_list_add_style
	ldr	r1, [sp, #88]                   @ 4-byte Reload
	.loc	13 712 38 is_stmt 1             @ lvgl/src/lv_themes/lv_theme_mono.c:712:38
	ldr	r0, [sp, #128]
	.loc	13 712 45 is_stmt 0             @ lvgl/src/lv_themes/lv_theme_mono.c:712:45
	ldr	r1, [r1]
	.loc	13 712 53                       @ lvgl/src/lv_themes/lv_theme_mono.c:712:53
	adds	r1, #16
	.loc	13 712 13                       @ lvgl/src/lv_themes/lv_theme_mono.c:712:13
	bl	_lv_style_list_add_style
	ldr	r1, [sp, #88]                   @ 4-byte Reload
	.loc	13 713 38 is_stmt 1             @ lvgl/src/lv_themes/lv_theme_mono.c:713:38
	ldr	r0, [sp, #128]
	.loc	13 713 45 is_stmt 0             @ lvgl/src/lv_themes/lv_theme_mono.c:713:45
	ldr	r1, [r1]
	.loc	13 713 53                       @ lvgl/src/lv_themes/lv_theme_mono.c:713:53
	adds	r1, #44
	.loc	13 713 13                       @ lvgl/src/lv_themes/lv_theme_mono.c:713:13
	bl	_lv_style_list_add_style
	ldr	r1, [sp, #88]                   @ 4-byte Reload
	.loc	13 714 38 is_stmt 1             @ lvgl/src/lv_themes/lv_theme_mono.c:714:38
	ldr	r0, [sp, #128]
	.loc	13 714 45 is_stmt 0             @ lvgl/src/lv_themes/lv_theme_mono.c:714:45
	ldr	r1, [r1]
	.loc	13 714 53                       @ lvgl/src/lv_themes/lv_theme_mono.c:714:53
	adds	r1, #24
	.loc	13 714 13                       @ lvgl/src/lv_themes/lv_theme_mono.c:714:13
	bl	_lv_style_list_add_style
	.loc	13 715 13 is_stmt 1             @ lvgl/src/lv_themes/lv_theme_mono.c:715:13
	b	.LBB32_49
.LBB32_20:
	.loc	13 720 42                       @ lvgl/src/lv_themes/lv_theme_mono.c:720:42
	ldr	r0, [sp, #136]
	movs	r1, #0
	.loc	13 720 20 is_stmt 0             @ lvgl/src/lv_themes/lv_theme_mono.c:720:20
	bl	lv_obj_get_style_list
	.loc	13 720 18                       @ lvgl/src/lv_themes/lv_theme_mono.c:720:18
	str	r0, [sp, #128]
	.loc	13 721 38 is_stmt 1             @ lvgl/src/lv_themes/lv_theme_mono.c:721:38
	ldr	r0, [sp, #128]
	.loc	13 721 45 is_stmt 0             @ lvgl/src/lv_themes/lv_theme_mono.c:721:45
	movw	r1, :lower16:styles
	movt	r1, :upper16:styles
	str	r1, [sp, #84]                   @ 4-byte Spill
	ldr	r1, [r1]
	.loc	13 721 53                       @ lvgl/src/lv_themes/lv_theme_mono.c:721:53
	adds	r1, #44
	.loc	13 721 13                       @ lvgl/src/lv_themes/lv_theme_mono.c:721:13
	bl	_lv_style_list_add_style
	.loc	13 723 42 is_stmt 1             @ lvgl/src/lv_themes/lv_theme_mono.c:723:42
	ldr	r0, [sp, #136]
	movs	r1, #64
	.loc	13 723 20 is_stmt 0             @ lvgl/src/lv_themes/lv_theme_mono.c:723:20
	bl	lv_obj_get_style_list
	ldr	r1, [sp, #84]                   @ 4-byte Reload
	.loc	13 723 18                       @ lvgl/src/lv_themes/lv_theme_mono.c:723:18
	str	r0, [sp, #128]
	.loc	13 724 38 is_stmt 1             @ lvgl/src/lv_themes/lv_theme_mono.c:724:38
	ldr	r0, [sp, #128]
	.loc	13 724 45 is_stmt 0             @ lvgl/src/lv_themes/lv_theme_mono.c:724:45
	ldr	r1, [r1]
	.loc	13 724 53                       @ lvgl/src/lv_themes/lv_theme_mono.c:724:53
	adds	r1, #4
	.loc	13 724 13                       @ lvgl/src/lv_themes/lv_theme_mono.c:724:13
	bl	_lv_style_list_add_style
	ldr	r1, [sp, #84]                   @ 4-byte Reload
	.loc	13 725 38 is_stmt 1             @ lvgl/src/lv_themes/lv_theme_mono.c:725:38
	ldr	r0, [sp, #128]
	.loc	13 725 45 is_stmt 0             @ lvgl/src/lv_themes/lv_theme_mono.c:725:45
	ldr	r1, [r1]
	.loc	13 725 53                       @ lvgl/src/lv_themes/lv_theme_mono.c:725:53
	adds	r1, #12
	.loc	13 725 13                       @ lvgl/src/lv_themes/lv_theme_mono.c:725:13
	bl	_lv_style_list_add_style
	ldr	r1, [sp, #84]                   @ 4-byte Reload
	.loc	13 726 38 is_stmt 1             @ lvgl/src/lv_themes/lv_theme_mono.c:726:38
	ldr	r0, [sp, #128]
	.loc	13 726 45 is_stmt 0             @ lvgl/src/lv_themes/lv_theme_mono.c:726:45
	ldr	r1, [r1]
	.loc	13 726 53                       @ lvgl/src/lv_themes/lv_theme_mono.c:726:53
	adds	r1, #44
	.loc	13 726 13                       @ lvgl/src/lv_themes/lv_theme_mono.c:726:13
	bl	_lv_style_list_add_style
	.loc	13 727 13 is_stmt 1             @ lvgl/src/lv_themes/lv_theme_mono.c:727:13
	b	.LBB32_49
.LBB32_21:
	.loc	13 732 42                       @ lvgl/src/lv_themes/lv_theme_mono.c:732:42
	ldr	r0, [sp, #136]
	movs	r1, #0
	.loc	13 732 20 is_stmt 0             @ lvgl/src/lv_themes/lv_theme_mono.c:732:20
	bl	lv_obj_get_style_list
	.loc	13 732 18                       @ lvgl/src/lv_themes/lv_theme_mono.c:732:18
	str	r0, [sp, #128]
	.loc	13 733 38 is_stmt 1             @ lvgl/src/lv_themes/lv_theme_mono.c:733:38
	ldr	r0, [sp, #128]
	.loc	13 733 45 is_stmt 0             @ lvgl/src/lv_themes/lv_theme_mono.c:733:45
	movw	r1, :lower16:styles
	movt	r1, :upper16:styles
	ldr	r1, [r1]
	.loc	13 733 53                       @ lvgl/src/lv_themes/lv_theme_mono.c:733:53
	adds	r1, #4
	.loc	13 733 13                       @ lvgl/src/lv_themes/lv_theme_mono.c:733:13
	bl	_lv_style_list_add_style
	.loc	13 734 13 is_stmt 1             @ lvgl/src/lv_themes/lv_theme_mono.c:734:13
	b	.LBB32_49
.LBB32_22:
	.loc	13 737 42                       @ lvgl/src/lv_themes/lv_theme_mono.c:737:42
	ldr	r0, [sp, #136]
	movs	r1, #64
	.loc	13 737 20 is_stmt 0             @ lvgl/src/lv_themes/lv_theme_mono.c:737:20
	bl	lv_obj_get_style_list
	.loc	13 737 18                       @ lvgl/src/lv_themes/lv_theme_mono.c:737:18
	str	r0, [sp, #128]
	.loc	13 738 38 is_stmt 1             @ lvgl/src/lv_themes/lv_theme_mono.c:738:38
	ldr	r0, [sp, #128]
	.loc	13 738 45 is_stmt 0             @ lvgl/src/lv_themes/lv_theme_mono.c:738:45
	movw	r1, :lower16:styles
	movt	r1, :upper16:styles
	str	r1, [sp, #80]                   @ 4-byte Spill
	ldr	r1, [r1]
	.loc	13 738 53                       @ lvgl/src/lv_themes/lv_theme_mono.c:738:53
	adds	r1, #48
	.loc	13 738 13                       @ lvgl/src/lv_themes/lv_theme_mono.c:738:13
	bl	_lv_style_list_add_style
	.loc	13 740 42 is_stmt 1             @ lvgl/src/lv_themes/lv_theme_mono.c:740:42
	ldr	r0, [sp, #136]
	movs	r1, #65
	.loc	13 740 20 is_stmt 0             @ lvgl/src/lv_themes/lv_theme_mono.c:740:20
	bl	lv_obj_get_style_list
	ldr	r1, [sp, #80]                   @ 4-byte Reload
	.loc	13 740 18                       @ lvgl/src/lv_themes/lv_theme_mono.c:740:18
	str	r0, [sp, #128]
	.loc	13 741 38 is_stmt 1             @ lvgl/src/lv_themes/lv_theme_mono.c:741:38
	ldr	r0, [sp, #128]
	.loc	13 741 45 is_stmt 0             @ lvgl/src/lv_themes/lv_theme_mono.c:741:45
	ldr	r1, [r1]
	.loc	13 741 53                       @ lvgl/src/lv_themes/lv_theme_mono.c:741:53
	adds	r1, #4
	.loc	13 741 13                       @ lvgl/src/lv_themes/lv_theme_mono.c:741:13
	bl	_lv_style_list_add_style
	ldr	r1, [sp, #80]                   @ 4-byte Reload
	.loc	13 742 38 is_stmt 1             @ lvgl/src/lv_themes/lv_theme_mono.c:742:38
	ldr	r0, [sp, #128]
	.loc	13 742 45 is_stmt 0             @ lvgl/src/lv_themes/lv_theme_mono.c:742:45
	ldr	r1, [r1]
	.loc	13 742 53                       @ lvgl/src/lv_themes/lv_theme_mono.c:742:53
	adds	r1, #12
	.loc	13 742 13                       @ lvgl/src/lv_themes/lv_theme_mono.c:742:13
	bl	_lv_style_list_add_style
	ldr	r1, [sp, #80]                   @ 4-byte Reload
	.loc	13 743 38 is_stmt 1             @ lvgl/src/lv_themes/lv_theme_mono.c:743:38
	ldr	r0, [sp, #128]
	.loc	13 743 45 is_stmt 0             @ lvgl/src/lv_themes/lv_theme_mono.c:743:45
	ldr	r1, [r1]
	.loc	13 743 53                       @ lvgl/src/lv_themes/lv_theme_mono.c:743:53
	adds	r1, #52
	.loc	13 743 13                       @ lvgl/src/lv_themes/lv_theme_mono.c:743:13
	bl	_lv_style_list_add_style
	.loc	13 744 13 is_stmt 1             @ lvgl/src/lv_themes/lv_theme_mono.c:744:13
	b	.LBB32_49
.LBB32_23:
	.loc	13 749 42                       @ lvgl/src/lv_themes/lv_theme_mono.c:749:42
	ldr	r0, [sp, #136]
	movs	r1, #0
	.loc	13 749 20 is_stmt 0             @ lvgl/src/lv_themes/lv_theme_mono.c:749:20
	bl	lv_obj_get_style_list
	.loc	13 749 18                       @ lvgl/src/lv_themes/lv_theme_mono.c:749:18
	str	r0, [sp, #128]
	.loc	13 750 38 is_stmt 1             @ lvgl/src/lv_themes/lv_theme_mono.c:750:38
	ldr	r0, [sp, #128]
	.loc	13 750 45 is_stmt 0             @ lvgl/src/lv_themes/lv_theme_mono.c:750:45
	movw	r1, :lower16:styles
	movt	r1, :upper16:styles
	str	r1, [sp, #76]                   @ 4-byte Spill
	ldr	r1, [r1]
	.loc	13 750 53                       @ lvgl/src/lv_themes/lv_theme_mono.c:750:53
	adds	r1, #4
	.loc	13 750 13                       @ lvgl/src/lv_themes/lv_theme_mono.c:750:13
	bl	_lv_style_list_add_style
	ldr	r1, [sp, #76]                   @ 4-byte Reload
	.loc	13 751 38 is_stmt 1             @ lvgl/src/lv_themes/lv_theme_mono.c:751:38
	ldr	r0, [sp, #128]
	.loc	13 751 45 is_stmt 0             @ lvgl/src/lv_themes/lv_theme_mono.c:751:45
	ldr	r1, [r1]
	.loc	13 751 53                       @ lvgl/src/lv_themes/lv_theme_mono.c:751:53
	adds	r1, #16
	.loc	13 751 13                       @ lvgl/src/lv_themes/lv_theme_mono.c:751:13
	bl	_lv_style_list_add_style
	.loc	13 752 13 is_stmt 1             @ lvgl/src/lv_themes/lv_theme_mono.c:752:13
	b	.LBB32_49
.LBB32_24:
	.loc	13 756 42                       @ lvgl/src/lv_themes/lv_theme_mono.c:756:42
	ldr	r0, [sp, #136]
	movs	r1, #0
	.loc	13 756 20 is_stmt 0             @ lvgl/src/lv_themes/lv_theme_mono.c:756:20
	bl	lv_obj_get_style_list
	.loc	13 756 18                       @ lvgl/src/lv_themes/lv_theme_mono.c:756:18
	str	r0, [sp, #128]
	.loc	13 757 38 is_stmt 1             @ lvgl/src/lv_themes/lv_theme_mono.c:757:38
	ldr	r0, [sp, #128]
	.loc	13 757 45 is_stmt 0             @ lvgl/src/lv_themes/lv_theme_mono.c:757:45
	movw	r1, :lower16:styles
	movt	r1, :upper16:styles
	str	r1, [sp, #72]                   @ 4-byte Spill
	ldr	r1, [r1]
	.loc	13 757 53                       @ lvgl/src/lv_themes/lv_theme_mono.c:757:53
	adds	r1, #4
	.loc	13 757 13                       @ lvgl/src/lv_themes/lv_theme_mono.c:757:13
	bl	_lv_style_list_add_style
	.loc	13 759 42 is_stmt 1             @ lvgl/src/lv_themes/lv_theme_mono.c:759:42
	ldr	r0, [sp, #136]
	movs	r1, #64
	.loc	13 759 20 is_stmt 0             @ lvgl/src/lv_themes/lv_theme_mono.c:759:20
	bl	lv_obj_get_style_list
	ldr	r1, [sp, #72]                   @ 4-byte Reload
	.loc	13 759 18                       @ lvgl/src/lv_themes/lv_theme_mono.c:759:18
	str	r0, [sp, #128]
	.loc	13 760 38 is_stmt 1             @ lvgl/src/lv_themes/lv_theme_mono.c:760:38
	ldr	r0, [sp, #128]
	.loc	13 760 45 is_stmt 0             @ lvgl/src/lv_themes/lv_theme_mono.c:760:45
	ldr	r1, [r1]
	.loc	13 760 53                       @ lvgl/src/lv_themes/lv_theme_mono.c:760:53
	adds	r1, #48
	.loc	13 760 13                       @ lvgl/src/lv_themes/lv_theme_mono.c:760:13
	bl	_lv_style_list_add_style
	.loc	13 762 42 is_stmt 1             @ lvgl/src/lv_themes/lv_theme_mono.c:762:42
	ldr	r0, [sp, #136]
	movs	r1, #1
	.loc	13 762 20 is_stmt 0             @ lvgl/src/lv_themes/lv_theme_mono.c:762:20
	bl	lv_obj_get_style_list
	ldr	r1, [sp, #72]                   @ 4-byte Reload
	.loc	13 762 18                       @ lvgl/src/lv_themes/lv_theme_mono.c:762:18
	str	r0, [sp, #128]
	.loc	13 763 38 is_stmt 1             @ lvgl/src/lv_themes/lv_theme_mono.c:763:38
	ldr	r0, [sp, #128]
	.loc	13 763 45 is_stmt 0             @ lvgl/src/lv_themes/lv_theme_mono.c:763:45
	ldr	r1, [r1]
	.loc	13 763 53                       @ lvgl/src/lv_themes/lv_theme_mono.c:763:53
	adds	r1, #88
	.loc	13 763 13                       @ lvgl/src/lv_themes/lv_theme_mono.c:763:13
	bl	_lv_style_list_add_style
	.loc	13 764 13 is_stmt 1             @ lvgl/src/lv_themes/lv_theme_mono.c:764:13
	b	.LBB32_49
.LBB32_25:
	.loc	13 768 42                       @ lvgl/src/lv_themes/lv_theme_mono.c:768:42
	ldr	r0, [sp, #136]
	movs	r1, #0
	.loc	13 768 20 is_stmt 0             @ lvgl/src/lv_themes/lv_theme_mono.c:768:20
	bl	lv_obj_get_style_list
	.loc	13 768 18                       @ lvgl/src/lv_themes/lv_theme_mono.c:768:18
	str	r0, [sp, #128]
	.loc	13 769 38 is_stmt 1             @ lvgl/src/lv_themes/lv_theme_mono.c:769:38
	ldr	r0, [sp, #128]
	.loc	13 769 45 is_stmt 0             @ lvgl/src/lv_themes/lv_theme_mono.c:769:45
	movw	r1, :lower16:styles
	movt	r1, :upper16:styles
	str	r1, [sp, #68]                   @ 4-byte Spill
	ldr	r1, [r1]
	.loc	13 769 13                       @ lvgl/src/lv_themes/lv_theme_mono.c:769:13
	bl	_lv_style_list_add_style
	.loc	13 771 42 is_stmt 1             @ lvgl/src/lv_themes/lv_theme_mono.c:771:42
	ldr	r0, [sp, #136]
	movs	r1, #65
	.loc	13 771 20 is_stmt 0             @ lvgl/src/lv_themes/lv_theme_mono.c:771:20
	bl	lv_obj_get_style_list
	ldr	r1, [sp, #68]                   @ 4-byte Reload
	.loc	13 771 18                       @ lvgl/src/lv_themes/lv_theme_mono.c:771:18
	str	r0, [sp, #128]
	.loc	13 772 38 is_stmt 1             @ lvgl/src/lv_themes/lv_theme_mono.c:772:38
	ldr	r0, [sp, #128]
	.loc	13 772 45 is_stmt 0             @ lvgl/src/lv_themes/lv_theme_mono.c:772:45
	ldr	r1, [r1]
	.loc	13 772 53                       @ lvgl/src/lv_themes/lv_theme_mono.c:772:53
	adds	r1, #100
	.loc	13 772 13                       @ lvgl/src/lv_themes/lv_theme_mono.c:772:13
	bl	_lv_style_list_add_style
	ldr	r1, [sp, #68]                   @ 4-byte Reload
	.loc	13 773 38 is_stmt 1             @ lvgl/src/lv_themes/lv_theme_mono.c:773:38
	ldr	r0, [sp, #128]
	.loc	13 773 45 is_stmt 0             @ lvgl/src/lv_themes/lv_theme_mono.c:773:45
	ldr	r1, [r1]
	.loc	13 773 53                       @ lvgl/src/lv_themes/lv_theme_mono.c:773:53
	adds	r1, #44
	.loc	13 773 13                       @ lvgl/src/lv_themes/lv_theme_mono.c:773:13
	bl	_lv_style_list_add_style
	.loc	13 775 42 is_stmt 1             @ lvgl/src/lv_themes/lv_theme_mono.c:775:42
	ldr	r0, [sp, #136]
	movs	r1, #66
	.loc	13 775 20 is_stmt 0             @ lvgl/src/lv_themes/lv_theme_mono.c:775:20
	bl	lv_obj_get_style_list
	ldr	r1, [sp, #68]                   @ 4-byte Reload
	.loc	13 775 18                       @ lvgl/src/lv_themes/lv_theme_mono.c:775:18
	str	r0, [sp, #128]
	.loc	13 776 38 is_stmt 1             @ lvgl/src/lv_themes/lv_theme_mono.c:776:38
	ldr	r0, [sp, #128]
	.loc	13 776 45 is_stmt 0             @ lvgl/src/lv_themes/lv_theme_mono.c:776:45
	ldr	r1, [r1]
	.loc	13 776 53                       @ lvgl/src/lv_themes/lv_theme_mono.c:776:53
	adds	r1, #4
	.loc	13 776 13                       @ lvgl/src/lv_themes/lv_theme_mono.c:776:13
	bl	_lv_style_list_add_style
	ldr	r1, [sp, #68]                   @ 4-byte Reload
	.loc	13 777 38 is_stmt 1             @ lvgl/src/lv_themes/lv_theme_mono.c:777:38
	ldr	r0, [sp, #128]
	.loc	13 777 45 is_stmt 0             @ lvgl/src/lv_themes/lv_theme_mono.c:777:45
	ldr	r1, [r1]
	.loc	13 777 53                       @ lvgl/src/lv_themes/lv_theme_mono.c:777:53
	adds	r1, #12
	.loc	13 777 13                       @ lvgl/src/lv_themes/lv_theme_mono.c:777:13
	bl	_lv_style_list_add_style
	ldr	r1, [sp, #68]                   @ 4-byte Reload
	.loc	13 778 38 is_stmt 1             @ lvgl/src/lv_themes/lv_theme_mono.c:778:38
	ldr	r0, [sp, #128]
	.loc	13 778 45 is_stmt 0             @ lvgl/src/lv_themes/lv_theme_mono.c:778:45
	ldr	r1, [r1]
	.loc	13 778 53                       @ lvgl/src/lv_themes/lv_theme_mono.c:778:53
	adds	r1, #52
	.loc	13 778 13                       @ lvgl/src/lv_themes/lv_theme_mono.c:778:13
	bl	_lv_style_list_add_style
	.loc	13 779 13 is_stmt 1             @ lvgl/src/lv_themes/lv_theme_mono.c:779:13
	b	.LBB32_49
.LBB32_26:
	.loc	13 782 42                       @ lvgl/src/lv_themes/lv_theme_mono.c:782:42
	ldr	r0, [sp, #136]
	movs	r1, #64
	.loc	13 782 20 is_stmt 0             @ lvgl/src/lv_themes/lv_theme_mono.c:782:20
	bl	lv_obj_get_style_list
	.loc	13 782 18                       @ lvgl/src/lv_themes/lv_theme_mono.c:782:18
	str	r0, [sp, #128]
	.loc	13 783 38 is_stmt 1             @ lvgl/src/lv_themes/lv_theme_mono.c:783:38
	ldr	r0, [sp, #128]
	.loc	13 783 45 is_stmt 0             @ lvgl/src/lv_themes/lv_theme_mono.c:783:45
	movw	r1, :lower16:styles
	movt	r1, :upper16:styles
	ldr	r1, [r1]
	.loc	13 783 53                       @ lvgl/src/lv_themes/lv_theme_mono.c:783:53
	adds	r1, #40
	.loc	13 783 13                       @ lvgl/src/lv_themes/lv_theme_mono.c:783:13
	bl	_lv_style_list_add_style
	.loc	13 785 13 is_stmt 1             @ lvgl/src/lv_themes/lv_theme_mono.c:785:13
	b	.LBB32_49
.LBB32_27:
	.loc	13 790 42                       @ lvgl/src/lv_themes/lv_theme_mono.c:790:42
	ldr	r0, [sp, #136]
	movs	r1, #0
	.loc	13 790 20 is_stmt 0             @ lvgl/src/lv_themes/lv_theme_mono.c:790:20
	bl	lv_obj_get_style_list
	.loc	13 790 18                       @ lvgl/src/lv_themes/lv_theme_mono.c:790:18
	str	r0, [sp, #128]
	.loc	13 791 38 is_stmt 1             @ lvgl/src/lv_themes/lv_theme_mono.c:791:38
	ldr	r0, [sp, #128]
	.loc	13 791 45 is_stmt 0             @ lvgl/src/lv_themes/lv_theme_mono.c:791:45
	movw	r1, :lower16:styles
	movt	r1, :upper16:styles
	str	r1, [sp, #64]                   @ 4-byte Spill
	ldr	r1, [r1]
	.loc	13 791 53                       @ lvgl/src/lv_themes/lv_theme_mono.c:791:53
	adds	r1, #4
	.loc	13 791 13                       @ lvgl/src/lv_themes/lv_theme_mono.c:791:13
	bl	_lv_style_list_add_style
	.loc	13 793 42 is_stmt 1             @ lvgl/src/lv_themes/lv_theme_mono.c:793:42
	ldr	r0, [sp, #136]
	movs	r1, #1
	.loc	13 793 20 is_stmt 0             @ lvgl/src/lv_themes/lv_theme_mono.c:793:20
	bl	lv_obj_get_style_list
	ldr	r1, [sp, #64]                   @ 4-byte Reload
	.loc	13 793 18                       @ lvgl/src/lv_themes/lv_theme_mono.c:793:18
	str	r0, [sp, #128]
	.loc	13 794 38 is_stmt 1             @ lvgl/src/lv_themes/lv_theme_mono.c:794:38
	ldr	r0, [sp, #128]
	.loc	13 794 45 is_stmt 0             @ lvgl/src/lv_themes/lv_theme_mono.c:794:45
	ldr	r1, [r1]
	.loc	13 794 53                       @ lvgl/src/lv_themes/lv_theme_mono.c:794:53
	adds	r1, #88
	.loc	13 794 13                       @ lvgl/src/lv_themes/lv_theme_mono.c:794:13
	bl	_lv_style_list_add_style
	.loc	13 796 42 is_stmt 1             @ lvgl/src/lv_themes/lv_theme_mono.c:796:42
	ldr	r0, [sp, #136]
	movs	r1, #2
	.loc	13 796 20 is_stmt 0             @ lvgl/src/lv_themes/lv_theme_mono.c:796:20
	bl	lv_obj_get_style_list
	ldr	r1, [sp, #64]                   @ 4-byte Reload
	.loc	13 796 18                       @ lvgl/src/lv_themes/lv_theme_mono.c:796:18
	str	r0, [sp, #128]
	.loc	13 797 38 is_stmt 1             @ lvgl/src/lv_themes/lv_theme_mono.c:797:38
	ldr	r0, [sp, #128]
	.loc	13 797 45 is_stmt 0             @ lvgl/src/lv_themes/lv_theme_mono.c:797:45
	ldr	r1, [r1]
	.loc	13 797 53                       @ lvgl/src/lv_themes/lv_theme_mono.c:797:53
	adds	r1, #4
	.loc	13 797 13                       @ lvgl/src/lv_themes/lv_theme_mono.c:797:13
	bl	_lv_style_list_add_style
	.loc	13 798 13 is_stmt 1             @ lvgl/src/lv_themes/lv_theme_mono.c:798:13
	b	.LBB32_49
.LBB32_28:
	.loc	13 803 42                       @ lvgl/src/lv_themes/lv_theme_mono.c:803:42
	ldr	r0, [sp, #136]
	movs	r1, #0
	.loc	13 803 20 is_stmt 0             @ lvgl/src/lv_themes/lv_theme_mono.c:803:20
	bl	lv_obj_get_style_list
	.loc	13 803 18                       @ lvgl/src/lv_themes/lv_theme_mono.c:803:18
	str	r0, [sp, #128]
	.loc	13 804 38 is_stmt 1             @ lvgl/src/lv_themes/lv_theme_mono.c:804:38
	ldr	r0, [sp, #128]
	.loc	13 804 45 is_stmt 0             @ lvgl/src/lv_themes/lv_theme_mono.c:804:45
	movw	r1, :lower16:styles
	movt	r1, :upper16:styles
	str	r1, [sp, #60]                   @ 4-byte Spill
	ldr	r1, [r1]
	.loc	13 804 53                       @ lvgl/src/lv_themes/lv_theme_mono.c:804:53
	adds	r1, #4
	.loc	13 804 13                       @ lvgl/src/lv_themes/lv_theme_mono.c:804:13
	bl	_lv_style_list_add_style
	ldr	r1, [sp, #60]                   @ 4-byte Reload
	.loc	13 805 38 is_stmt 1             @ lvgl/src/lv_themes/lv_theme_mono.c:805:38
	ldr	r0, [sp, #128]
	.loc	13 805 45 is_stmt 0             @ lvgl/src/lv_themes/lv_theme_mono.c:805:45
	ldr	r1, [r1]
	.loc	13 805 53                       @ lvgl/src/lv_themes/lv_theme_mono.c:805:53
	adds	r1, #32
	.loc	13 805 13                       @ lvgl/src/lv_themes/lv_theme_mono.c:805:13
	bl	_lv_style_list_add_style
	.loc	13 807 42 is_stmt 1             @ lvgl/src/lv_themes/lv_theme_mono.c:807:42
	ldr	r0, [sp, #136]
	movs	r1, #3
	.loc	13 807 20 is_stmt 0             @ lvgl/src/lv_themes/lv_theme_mono.c:807:20
	bl	lv_obj_get_style_list
	ldr	r1, [sp, #60]                   @ 4-byte Reload
	.loc	13 807 18                       @ lvgl/src/lv_themes/lv_theme_mono.c:807:18
	str	r0, [sp, #128]
	.loc	13 808 38 is_stmt 1             @ lvgl/src/lv_themes/lv_theme_mono.c:808:38
	ldr	r0, [sp, #128]
	.loc	13 808 45 is_stmt 0             @ lvgl/src/lv_themes/lv_theme_mono.c:808:45
	ldr	r1, [r1]
	.loc	13 808 53                       @ lvgl/src/lv_themes/lv_theme_mono.c:808:53
	adds	r1, #4
	.loc	13 808 13                       @ lvgl/src/lv_themes/lv_theme_mono.c:808:13
	bl	_lv_style_list_add_style
	ldr	r1, [sp, #60]                   @ 4-byte Reload
	.loc	13 809 38 is_stmt 1             @ lvgl/src/lv_themes/lv_theme_mono.c:809:38
	ldr	r0, [sp, #128]
	.loc	13 809 45 is_stmt 0             @ lvgl/src/lv_themes/lv_theme_mono.c:809:45
	ldr	r1, [r1]
	.loc	13 809 53                       @ lvgl/src/lv_themes/lv_theme_mono.c:809:53
	adds	r1, #24
	.loc	13 809 13                       @ lvgl/src/lv_themes/lv_theme_mono.c:809:13
	bl	_lv_style_list_add_style
	ldr	r1, [sp, #60]                   @ 4-byte Reload
	.loc	13 810 38 is_stmt 1             @ lvgl/src/lv_themes/lv_theme_mono.c:810:38
	ldr	r0, [sp, #128]
	.loc	13 810 45 is_stmt 0             @ lvgl/src/lv_themes/lv_theme_mono.c:810:45
	ldr	r1, [r1]
	.loc	13 810 53                       @ lvgl/src/lv_themes/lv_theme_mono.c:810:53
	adds	r1, #20
	.loc	13 810 13                       @ lvgl/src/lv_themes/lv_theme_mono.c:810:13
	bl	_lv_style_list_add_style
	.loc	13 811 13 is_stmt 1             @ lvgl/src/lv_themes/lv_theme_mono.c:811:13
	b	.LBB32_49
.LBB32_29:
	.loc	13 816 42                       @ lvgl/src/lv_themes/lv_theme_mono.c:816:42
	ldr	r0, [sp, #136]
	movs	r1, #0
	.loc	13 816 20 is_stmt 0             @ lvgl/src/lv_themes/lv_theme_mono.c:816:20
	bl	lv_obj_get_style_list
	.loc	13 816 18                       @ lvgl/src/lv_themes/lv_theme_mono.c:816:18
	str	r0, [sp, #128]
	.loc	13 817 13 is_stmt 1             @ lvgl/src/lv_themes/lv_theme_mono.c:817:13
	b	.LBB32_49
.LBB32_30:
	.loc	13 822 42                       @ lvgl/src/lv_themes/lv_theme_mono.c:822:42
	ldr	r0, [sp, #136]
	movs	r1, #0
	.loc	13 822 20 is_stmt 0             @ lvgl/src/lv_themes/lv_theme_mono.c:822:20
	bl	lv_obj_get_style_list
	.loc	13 822 18                       @ lvgl/src/lv_themes/lv_theme_mono.c:822:18
	str	r0, [sp, #128]
	.loc	13 823 38 is_stmt 1             @ lvgl/src/lv_themes/lv_theme_mono.c:823:38
	ldr	r0, [sp, #128]
	.loc	13 823 45 is_stmt 0             @ lvgl/src/lv_themes/lv_theme_mono.c:823:45
	movw	r1, :lower16:styles
	movt	r1, :upper16:styles
	str	r1, [sp, #56]                   @ 4-byte Spill
	ldr	r1, [r1]
	.loc	13 823 53                       @ lvgl/src/lv_themes/lv_theme_mono.c:823:53
	adds	r1, #4
	.loc	13 823 13                       @ lvgl/src/lv_themes/lv_theme_mono.c:823:13
	bl	_lv_style_list_add_style
	ldr	r1, [sp, #56]                   @ 4-byte Reload
	.loc	13 824 38 is_stmt 1             @ lvgl/src/lv_themes/lv_theme_mono.c:824:38
	ldr	r0, [sp, #128]
	.loc	13 824 45 is_stmt 0             @ lvgl/src/lv_themes/lv_theme_mono.c:824:45
	ldr	r1, [r1]
	.loc	13 824 53                       @ lvgl/src/lv_themes/lv_theme_mono.c:824:53
	adds	r1, #36
	.loc	13 824 13                       @ lvgl/src/lv_themes/lv_theme_mono.c:824:13
	bl	_lv_style_list_add_style
	ldr	r1, [sp, #56]                   @ 4-byte Reload
	.loc	13 825 38 is_stmt 1             @ lvgl/src/lv_themes/lv_theme_mono.c:825:38
	ldr	r0, [sp, #128]
	.loc	13 825 45 is_stmt 0             @ lvgl/src/lv_themes/lv_theme_mono.c:825:45
	ldr	r1, [r1]
	.loc	13 825 53                       @ lvgl/src/lv_themes/lv_theme_mono.c:825:53
	adds	r1, #8
	.loc	13 825 13                       @ lvgl/src/lv_themes/lv_theme_mono.c:825:13
	bl	_lv_style_list_add_style
	.loc	13 827 42 is_stmt 1             @ lvgl/src/lv_themes/lv_theme_mono.c:827:42
	ldr	r0, [sp, #136]
	movs	r1, #1
	.loc	13 827 20 is_stmt 0             @ lvgl/src/lv_themes/lv_theme_mono.c:827:20
	bl	lv_obj_get_style_list
	ldr	r1, [sp, #56]                   @ 4-byte Reload
	.loc	13 827 18                       @ lvgl/src/lv_themes/lv_theme_mono.c:827:18
	str	r0, [sp, #128]
	.loc	13 828 38 is_stmt 1             @ lvgl/src/lv_themes/lv_theme_mono.c:828:38
	ldr	r0, [sp, #128]
	.loc	13 828 45 is_stmt 0             @ lvgl/src/lv_themes/lv_theme_mono.c:828:45
	ldr	r1, [r1]
	.loc	13 828 53                       @ lvgl/src/lv_themes/lv_theme_mono.c:828:53
	adds	r1, #88
	.loc	13 828 13                       @ lvgl/src/lv_themes/lv_theme_mono.c:828:13
	bl	_lv_style_list_add_style
	.loc	13 829 13 is_stmt 1             @ lvgl/src/lv_themes/lv_theme_mono.c:829:13
	b	.LBB32_49
.LBB32_31:
	.loc	13 832 42                       @ lvgl/src/lv_themes/lv_theme_mono.c:832:42
	ldr	r0, [sp, #136]
	movs	r1, #0
	.loc	13 832 20 is_stmt 0             @ lvgl/src/lv_themes/lv_theme_mono.c:832:20
	bl	lv_obj_get_style_list
	.loc	13 832 18                       @ lvgl/src/lv_themes/lv_theme_mono.c:832:18
	str	r0, [sp, #128]
	.loc	13 833 38 is_stmt 1             @ lvgl/src/lv_themes/lv_theme_mono.c:833:38
	ldr	r0, [sp, #128]
	.loc	13 833 45 is_stmt 0             @ lvgl/src/lv_themes/lv_theme_mono.c:833:45
	movw	r1, :lower16:styles
	movt	r1, :upper16:styles
	str	r1, [sp, #52]                   @ 4-byte Spill
	ldr	r1, [r1]
	.loc	13 833 53                       @ lvgl/src/lv_themes/lv_theme_mono.c:833:53
	adds	r1, #4
	.loc	13 833 13                       @ lvgl/src/lv_themes/lv_theme_mono.c:833:13
	bl	_lv_style_list_add_style
	ldr	r1, [sp, #52]                   @ 4-byte Reload
	.loc	13 834 38 is_stmt 1             @ lvgl/src/lv_themes/lv_theme_mono.c:834:38
	ldr	r0, [sp, #128]
	.loc	13 834 45 is_stmt 0             @ lvgl/src/lv_themes/lv_theme_mono.c:834:45
	ldr	r1, [r1]
	.loc	13 834 53                       @ lvgl/src/lv_themes/lv_theme_mono.c:834:53
	adds	r1, #12
	.loc	13 834 13                       @ lvgl/src/lv_themes/lv_theme_mono.c:834:13
	bl	_lv_style_list_add_style
	ldr	r1, [sp, #52]                   @ 4-byte Reload
	.loc	13 835 38 is_stmt 1             @ lvgl/src/lv_themes/lv_theme_mono.c:835:38
	ldr	r0, [sp, #128]
	.loc	13 835 45 is_stmt 0             @ lvgl/src/lv_themes/lv_theme_mono.c:835:45
	ldr	r1, [r1]
	.loc	13 835 53                       @ lvgl/src/lv_themes/lv_theme_mono.c:835:53
	adds	r1, #64
	.loc	13 835 13                       @ lvgl/src/lv_themes/lv_theme_mono.c:835:13
	bl	_lv_style_list_add_style
	ldr	r1, [sp, #52]                   @ 4-byte Reload
	.loc	13 836 38 is_stmt 1             @ lvgl/src/lv_themes/lv_theme_mono.c:836:38
	ldr	r0, [sp, #128]
	.loc	13 836 45 is_stmt 0             @ lvgl/src/lv_themes/lv_theme_mono.c:836:45
	ldr	r1, [r1]
	.loc	13 836 53                       @ lvgl/src/lv_themes/lv_theme_mono.c:836:53
	adds	r1, #52
	.loc	13 836 13                       @ lvgl/src/lv_themes/lv_theme_mono.c:836:13
	bl	_lv_style_list_add_style
	.loc	13 838 13 is_stmt 1             @ lvgl/src/lv_themes/lv_theme_mono.c:838:13
	b	.LBB32_49
.LBB32_32:
	.loc	13 843 42                       @ lvgl/src/lv_themes/lv_theme_mono.c:843:42
	ldr	r0, [sp, #136]
	movs	r1, #0
	.loc	13 843 20 is_stmt 0             @ lvgl/src/lv_themes/lv_theme_mono.c:843:20
	bl	lv_obj_get_style_list
	.loc	13 843 18                       @ lvgl/src/lv_themes/lv_theme_mono.c:843:18
	str	r0, [sp, #128]
	.loc	13 844 38 is_stmt 1             @ lvgl/src/lv_themes/lv_theme_mono.c:844:38
	ldr	r0, [sp, #128]
	.loc	13 844 45 is_stmt 0             @ lvgl/src/lv_themes/lv_theme_mono.c:844:45
	movw	r1, :lower16:styles
	movt	r1, :upper16:styles
	str	r1, [sp, #48]                   @ 4-byte Spill
	ldr	r1, [r1]
	.loc	13 844 53                       @ lvgl/src/lv_themes/lv_theme_mono.c:844:53
	adds	r1, #4
	.loc	13 844 13                       @ lvgl/src/lv_themes/lv_theme_mono.c:844:13
	bl	_lv_style_list_add_style
	ldr	r1, [sp, #48]                   @ 4-byte Reload
	.loc	13 845 38 is_stmt 1             @ lvgl/src/lv_themes/lv_theme_mono.c:845:38
	ldr	r0, [sp, #128]
	.loc	13 845 45 is_stmt 0             @ lvgl/src/lv_themes/lv_theme_mono.c:845:45
	ldr	r1, [r1]
	.loc	13 845 53                       @ lvgl/src/lv_themes/lv_theme_mono.c:845:53
	adds	r1, #12
	.loc	13 845 13                       @ lvgl/src/lv_themes/lv_theme_mono.c:845:13
	bl	_lv_style_list_add_style
	.loc	13 847 42 is_stmt 1             @ lvgl/src/lv_themes/lv_theme_mono.c:847:42
	ldr	r0, [sp, #136]
	movs	r1, #64
	.loc	13 847 20 is_stmt 0             @ lvgl/src/lv_themes/lv_theme_mono.c:847:20
	bl	lv_obj_get_style_list
	ldr	r1, [sp, #48]                   @ 4-byte Reload
	.loc	13 847 18                       @ lvgl/src/lv_themes/lv_theme_mono.c:847:18
	str	r0, [sp, #128]
	.loc	13 848 38 is_stmt 1             @ lvgl/src/lv_themes/lv_theme_mono.c:848:38
	ldr	r0, [sp, #128]
	.loc	13 848 45 is_stmt 0             @ lvgl/src/lv_themes/lv_theme_mono.c:848:45
	ldr	r1, [r1]
	.loc	13 848 53                       @ lvgl/src/lv_themes/lv_theme_mono.c:848:53
	adds	r1, #4
	.loc	13 848 13                       @ lvgl/src/lv_themes/lv_theme_mono.c:848:13
	bl	_lv_style_list_add_style
	ldr	r1, [sp, #48]                   @ 4-byte Reload
	.loc	13 849 38 is_stmt 1             @ lvgl/src/lv_themes/lv_theme_mono.c:849:38
	ldr	r0, [sp, #128]
	.loc	13 849 45 is_stmt 0             @ lvgl/src/lv_themes/lv_theme_mono.c:849:45
	ldr	r1, [r1]
	.loc	13 849 53                       @ lvgl/src/lv_themes/lv_theme_mono.c:849:53
	adds	r1, #32
	.loc	13 849 13                       @ lvgl/src/lv_themes/lv_theme_mono.c:849:13
	bl	_lv_style_list_add_style
	.loc	13 851 42 is_stmt 1             @ lvgl/src/lv_themes/lv_theme_mono.c:851:42
	ldr	r0, [sp, #136]
	movs	r1, #65
	.loc	13 851 20 is_stmt 0             @ lvgl/src/lv_themes/lv_theme_mono.c:851:20
	bl	lv_obj_get_style_list
	ldr	r1, [sp, #48]                   @ 4-byte Reload
	.loc	13 851 18                       @ lvgl/src/lv_themes/lv_theme_mono.c:851:18
	str	r0, [sp, #128]
	.loc	13 852 38 is_stmt 1             @ lvgl/src/lv_themes/lv_theme_mono.c:852:38
	ldr	r0, [sp, #128]
	.loc	13 852 45 is_stmt 0             @ lvgl/src/lv_themes/lv_theme_mono.c:852:45
	ldr	r1, [r1]
	.loc	13 852 53                       @ lvgl/src/lv_themes/lv_theme_mono.c:852:53
	adds	r1, #88
	.loc	13 852 13                       @ lvgl/src/lv_themes/lv_theme_mono.c:852:13
	bl	_lv_style_list_add_style
	.loc	13 854 42 is_stmt 1             @ lvgl/src/lv_themes/lv_theme_mono.c:854:42
	ldr	r0, [sp, #136]
	movs	r1, #66
	.loc	13 854 20 is_stmt 0             @ lvgl/src/lv_themes/lv_theme_mono.c:854:20
	bl	lv_obj_get_style_list
	ldr	r1, [sp, #48]                   @ 4-byte Reload
	.loc	13 854 18                       @ lvgl/src/lv_themes/lv_theme_mono.c:854:18
	str	r0, [sp, #128]
	.loc	13 855 38 is_stmt 1             @ lvgl/src/lv_themes/lv_theme_mono.c:855:38
	ldr	r0, [sp, #128]
	.loc	13 855 45 is_stmt 0             @ lvgl/src/lv_themes/lv_theme_mono.c:855:45
	ldr	r1, [r1]
	.loc	13 855 53                       @ lvgl/src/lv_themes/lv_theme_mono.c:855:53
	adds	r1, #4
	.loc	13 855 13                       @ lvgl/src/lv_themes/lv_theme_mono.c:855:13
	bl	_lv_style_list_add_style
	ldr	r1, [sp, #48]                   @ 4-byte Reload
	.loc	13 856 38 is_stmt 1             @ lvgl/src/lv_themes/lv_theme_mono.c:856:38
	ldr	r0, [sp, #128]
	.loc	13 856 45 is_stmt 0             @ lvgl/src/lv_themes/lv_theme_mono.c:856:45
	ldr	r1, [r1]
	.loc	13 856 53                       @ lvgl/src/lv_themes/lv_theme_mono.c:856:53
	adds	r1, #24
	.loc	13 856 13                       @ lvgl/src/lv_themes/lv_theme_mono.c:856:13
	bl	_lv_style_list_add_style
	ldr	r1, [sp, #48]                   @ 4-byte Reload
	.loc	13 857 38 is_stmt 1             @ lvgl/src/lv_themes/lv_theme_mono.c:857:38
	ldr	r0, [sp, #128]
	.loc	13 857 45 is_stmt 0             @ lvgl/src/lv_themes/lv_theme_mono.c:857:45
	ldr	r1, [r1]
	.loc	13 857 53                       @ lvgl/src/lv_themes/lv_theme_mono.c:857:53
	adds	r1, #20
	.loc	13 857 13                       @ lvgl/src/lv_themes/lv_theme_mono.c:857:13
	bl	_lv_style_list_add_style
	.loc	13 858 13 is_stmt 1             @ lvgl/src/lv_themes/lv_theme_mono.c:858:13
	b	.LBB32_49
.LBB32_33:
	.loc	13 863 42                       @ lvgl/src/lv_themes/lv_theme_mono.c:863:42
	ldr	r0, [sp, #136]
	movs	r1, #0
	.loc	13 863 20 is_stmt 0             @ lvgl/src/lv_themes/lv_theme_mono.c:863:20
	bl	lv_obj_get_style_list
	.loc	13 863 18                       @ lvgl/src/lv_themes/lv_theme_mono.c:863:18
	str	r0, [sp, #128]
	.loc	13 864 38 is_stmt 1             @ lvgl/src/lv_themes/lv_theme_mono.c:864:38
	ldr	r0, [sp, #128]
	.loc	13 864 45 is_stmt 0             @ lvgl/src/lv_themes/lv_theme_mono.c:864:45
	movw	r1, :lower16:styles
	movt	r1, :upper16:styles
	str	r1, [sp, #44]                   @ 4-byte Spill
	ldr	r1, [r1]
	.loc	13 864 53                       @ lvgl/src/lv_themes/lv_theme_mono.c:864:53
	adds	r1, #4
	.loc	13 864 13                       @ lvgl/src/lv_themes/lv_theme_mono.c:864:13
	bl	_lv_style_list_add_style
	.loc	13 866 42 is_stmt 1             @ lvgl/src/lv_themes/lv_theme_mono.c:866:42
	ldr	r0, [sp, #136]
	movs	r1, #1
	.loc	13 866 20 is_stmt 0             @ lvgl/src/lv_themes/lv_theme_mono.c:866:20
	bl	lv_obj_get_style_list
	ldr	r1, [sp, #44]                   @ 4-byte Reload
	.loc	13 866 18                       @ lvgl/src/lv_themes/lv_theme_mono.c:866:18
	str	r0, [sp, #128]
	.loc	13 867 38 is_stmt 1             @ lvgl/src/lv_themes/lv_theme_mono.c:867:38
	ldr	r0, [sp, #128]
	.loc	13 867 45 is_stmt 0             @ lvgl/src/lv_themes/lv_theme_mono.c:867:45
	ldr	r1, [r1]
	.loc	13 867 53                       @ lvgl/src/lv_themes/lv_theme_mono.c:867:53
	adds	r1, #4
	.loc	13 867 13                       @ lvgl/src/lv_themes/lv_theme_mono.c:867:13
	bl	_lv_style_list_add_style
	ldr	r1, [sp, #44]                   @ 4-byte Reload
	.loc	13 868 38 is_stmt 1             @ lvgl/src/lv_themes/lv_theme_mono.c:868:38
	ldr	r0, [sp, #128]
	.loc	13 868 45 is_stmt 0             @ lvgl/src/lv_themes/lv_theme_mono.c:868:45
	ldr	r1, [r1]
	.loc	13 868 53                       @ lvgl/src/lv_themes/lv_theme_mono.c:868:53
	adds	r1, #28
	.loc	13 868 13                       @ lvgl/src/lv_themes/lv_theme_mono.c:868:13
	bl	_lv_style_list_add_style
	.loc	13 870 42 is_stmt 1             @ lvgl/src/lv_themes/lv_theme_mono.c:870:42
	ldr	r0, [sp, #136]
	movs	r1, #2
	.loc	13 870 20 is_stmt 0             @ lvgl/src/lv_themes/lv_theme_mono.c:870:20
	bl	lv_obj_get_style_list
	ldr	r1, [sp, #44]                   @ 4-byte Reload
	.loc	13 870 18                       @ lvgl/src/lv_themes/lv_theme_mono.c:870:18
	str	r0, [sp, #128]
	.loc	13 871 38 is_stmt 1             @ lvgl/src/lv_themes/lv_theme_mono.c:871:38
	ldr	r0, [sp, #128]
	.loc	13 871 45 is_stmt 0             @ lvgl/src/lv_themes/lv_theme_mono.c:871:45
	ldr	r1, [r1]
	.loc	13 871 53                       @ lvgl/src/lv_themes/lv_theme_mono.c:871:53
	adds	r1, #72
	.loc	13 871 13                       @ lvgl/src/lv_themes/lv_theme_mono.c:871:13
	bl	_lv_style_list_add_style
	.loc	13 872 13 is_stmt 1             @ lvgl/src/lv_themes/lv_theme_mono.c:872:13
	b	.LBB32_49
.LBB32_34:
.Ltmp52:
	.loc	13 876 46                       @ lvgl/src/lv_themes/lv_theme_mono.c:876:46
	ldr	r0, [sp, #136]
	movs	r1, #0
	.loc	13 876 24 is_stmt 0             @ lvgl/src/lv_themes/lv_theme_mono.c:876:24
	bl	lv_obj_get_style_list
	.loc	13 876 22                       @ lvgl/src/lv_themes/lv_theme_mono.c:876:22
	str	r0, [sp, #128]
	.loc	13 877 42 is_stmt 1             @ lvgl/src/lv_themes/lv_theme_mono.c:877:42
	ldr	r0, [sp, #128]
	.loc	13 877 49 is_stmt 0             @ lvgl/src/lv_themes/lv_theme_mono.c:877:49
	movw	r1, :lower16:styles
	movt	r1, :upper16:styles
	ldr	r1, [r1]
	.loc	13 877 57                       @ lvgl/src/lv_themes/lv_theme_mono.c:877:57
	adds	r1, #4
	.loc	13 877 17                       @ lvgl/src/lv_themes/lv_theme_mono.c:877:17
	bl	_lv_style_list_add_style
	movs	r0, #1
	.loc	13 879 21 is_stmt 1             @ lvgl/src/lv_themes/lv_theme_mono.c:879:21
	str	r0, [sp, #124]
	.loc	13 883 17                       @ lvgl/src/lv_themes/lv_theme_mono.c:883:17
	b	.LBB32_35
.LBB32_35:                              @ =>This Inner Loop Header: Depth=1
.Ltmp53:
	.loc	13 883 23 is_stmt 0             @ lvgl/src/lv_themes/lv_theme_mono.c:883:23
	ldr	r0, [sp, #124]
.Ltmp54:
	.loc	13 883 17                       @ lvgl/src/lv_themes/lv_theme_mono.c:883:17
	cmp	r0, #4
	bgt	.LBB32_38
	b	.LBB32_36
.LBB32_36:                              @   in Loop: Header=BB32_35 Depth=1
.Ltmp55:
	.loc	13 884 50 is_stmt 1             @ lvgl/src/lv_themes/lv_theme_mono.c:884:50
	ldr	r0, [sp, #136]
	.loc	13 884 55 is_stmt 0             @ lvgl/src/lv_themes/lv_theme_mono.c:884:55
	ldrb.w	r1, [sp, #124]
	.loc	13 884 28                       @ lvgl/src/lv_themes/lv_theme_mono.c:884:28
	bl	lv_obj_get_style_list
	.loc	13 884 26                       @ lvgl/src/lv_themes/lv_theme_mono.c:884:26
	str	r0, [sp, #128]
	.loc	13 885 46 is_stmt 1             @ lvgl/src/lv_themes/lv_theme_mono.c:885:46
	ldr	r0, [sp, #128]
	.loc	13 885 53 is_stmt 0             @ lvgl/src/lv_themes/lv_theme_mono.c:885:53
	movw	r1, :lower16:styles
	movt	r1, :upper16:styles
	str	r1, [sp, #40]                   @ 4-byte Spill
	ldr	r1, [r1]
	.loc	13 885 61                       @ lvgl/src/lv_themes/lv_theme_mono.c:885:61
	adds	r1, #4
	.loc	13 885 21                       @ lvgl/src/lv_themes/lv_theme_mono.c:885:21
	bl	_lv_style_list_add_style
	ldr	r1, [sp, #40]                   @ 4-byte Reload
	.loc	13 886 46 is_stmt 1             @ lvgl/src/lv_themes/lv_theme_mono.c:886:46
	ldr	r0, [sp, #128]
	.loc	13 886 53 is_stmt 0             @ lvgl/src/lv_themes/lv_theme_mono.c:886:53
	ldr	r1, [r1]
	.loc	13 886 61                       @ lvgl/src/lv_themes/lv_theme_mono.c:886:61
	adds	r1, #20
	.loc	13 886 21                       @ lvgl/src/lv_themes/lv_theme_mono.c:886:21
	bl	_lv_style_list_add_style
	.loc	13 887 17 is_stmt 1             @ lvgl/src/lv_themes/lv_theme_mono.c:887:17
	b	.LBB32_37
.Ltmp56:
.LBB32_37:                              @   in Loop: Header=BB32_35 Depth=1
	.loc	13 883 59                       @ lvgl/src/lv_themes/lv_theme_mono.c:883:59
	ldr	r0, [sp, #124]
	adds	r0, #1
	str	r0, [sp, #124]
	.loc	13 883 17 is_stmt 0             @ lvgl/src/lv_themes/lv_theme_mono.c:883:17
	b	.LBB32_35
.Ltmp57:
.LBB32_38:
	.loc	13 888 17 is_stmt 1             @ lvgl/src/lv_themes/lv_theme_mono.c:888:17
	b	.LBB32_49
.Ltmp58:
.LBB32_39:
	.loc	13 894 42                       @ lvgl/src/lv_themes/lv_theme_mono.c:894:42
	ldr	r0, [sp, #136]
	movs	r1, #0
	.loc	13 894 20 is_stmt 0             @ lvgl/src/lv_themes/lv_theme_mono.c:894:20
	bl	lv_obj_get_style_list
	.loc	13 894 18                       @ lvgl/src/lv_themes/lv_theme_mono.c:894:18
	str	r0, [sp, #128]
	.loc	13 895 38 is_stmt 1             @ lvgl/src/lv_themes/lv_theme_mono.c:895:38
	ldr	r0, [sp, #128]
	.loc	13 895 45 is_stmt 0             @ lvgl/src/lv_themes/lv_theme_mono.c:895:45
	movw	r1, :lower16:styles
	movt	r1, :upper16:styles
	str	r1, [sp, #36]                   @ 4-byte Spill
	ldr	r1, [r1]
	.loc	13 895 53                       @ lvgl/src/lv_themes/lv_theme_mono.c:895:53
	adds	r1, #4
	.loc	13 895 13                       @ lvgl/src/lv_themes/lv_theme_mono.c:895:13
	bl	_lv_style_list_add_style
	.loc	13 897 42 is_stmt 1             @ lvgl/src/lv_themes/lv_theme_mono.c:897:42
	ldr	r0, [sp, #136]
	movs	r1, #66
	.loc	13 897 20 is_stmt 0             @ lvgl/src/lv_themes/lv_theme_mono.c:897:20
	bl	lv_obj_get_style_list
	ldr	r1, [sp, #36]                   @ 4-byte Reload
	.loc	13 897 18                       @ lvgl/src/lv_themes/lv_theme_mono.c:897:18
	str	r0, [sp, #128]
	.loc	13 898 38 is_stmt 1             @ lvgl/src/lv_themes/lv_theme_mono.c:898:38
	ldr	r0, [sp, #128]
	.loc	13 898 45 is_stmt 0             @ lvgl/src/lv_themes/lv_theme_mono.c:898:45
	ldr	r1, [r1]
	.loc	13 898 53                       @ lvgl/src/lv_themes/lv_theme_mono.c:898:53
	adds	r1, #88
	.loc	13 898 13                       @ lvgl/src/lv_themes/lv_theme_mono.c:898:13
	bl	_lv_style_list_add_style
	.loc	13 900 42 is_stmt 1             @ lvgl/src/lv_themes/lv_theme_mono.c:900:42
	ldr	r0, [sp, #136]
	movs	r1, #65
	.loc	13 900 20 is_stmt 0             @ lvgl/src/lv_themes/lv_theme_mono.c:900:20
	bl	lv_obj_get_style_list
	ldr	r1, [sp, #36]                   @ 4-byte Reload
	.loc	13 900 18                       @ lvgl/src/lv_themes/lv_theme_mono.c:900:18
	str	r0, [sp, #128]
	.loc	13 901 38 is_stmt 1             @ lvgl/src/lv_themes/lv_theme_mono.c:901:38
	ldr	r0, [sp, #128]
	.loc	13 901 45 is_stmt 0             @ lvgl/src/lv_themes/lv_theme_mono.c:901:45
	ldr	r1, [r1]
	.loc	13 901 53                       @ lvgl/src/lv_themes/lv_theme_mono.c:901:53
	adds	r1, #4
	.loc	13 901 13                       @ lvgl/src/lv_themes/lv_theme_mono.c:901:13
	bl	_lv_style_list_add_style
	.loc	13 903 42 is_stmt 1             @ lvgl/src/lv_themes/lv_theme_mono.c:903:42
	ldr	r0, [sp, #136]
	movs	r1, #64
	.loc	13 903 20 is_stmt 0             @ lvgl/src/lv_themes/lv_theme_mono.c:903:20
	bl	lv_obj_get_style_list
	ldr	r1, [sp, #36]                   @ 4-byte Reload
	.loc	13 903 18                       @ lvgl/src/lv_themes/lv_theme_mono.c:903:18
	str	r0, [sp, #128]
	.loc	13 904 38 is_stmt 1             @ lvgl/src/lv_themes/lv_theme_mono.c:904:38
	ldr	r0, [sp, #128]
	.loc	13 904 45 is_stmt 0             @ lvgl/src/lv_themes/lv_theme_mono.c:904:45
	ldr	r1, [r1]
	.loc	13 904 53                       @ lvgl/src/lv_themes/lv_theme_mono.c:904:53
	adds	r1, #4
	.loc	13 904 13                       @ lvgl/src/lv_themes/lv_theme_mono.c:904:13
	bl	_lv_style_list_add_style
	.loc	13 905 13 is_stmt 1             @ lvgl/src/lv_themes/lv_theme_mono.c:905:13
	b	.LBB32_49
.LBB32_40:
	.loc	13 908 42                       @ lvgl/src/lv_themes/lv_theme_mono.c:908:42
	ldr	r0, [sp, #136]
	movs	r1, #0
	.loc	13 908 20 is_stmt 0             @ lvgl/src/lv_themes/lv_theme_mono.c:908:20
	bl	lv_obj_get_style_list
	.loc	13 908 18                       @ lvgl/src/lv_themes/lv_theme_mono.c:908:18
	str	r0, [sp, #128]
	.loc	13 909 38 is_stmt 1             @ lvgl/src/lv_themes/lv_theme_mono.c:909:38
	ldr	r0, [sp, #128]
	.loc	13 909 45 is_stmt 0             @ lvgl/src/lv_themes/lv_theme_mono.c:909:45
	movw	r1, :lower16:styles
	movt	r1, :upper16:styles
	str	r1, [sp, #32]                   @ 4-byte Spill
	ldr	r1, [r1]
	.loc	13 909 53                       @ lvgl/src/lv_themes/lv_theme_mono.c:909:53
	adds	r1, #4
	.loc	13 909 13                       @ lvgl/src/lv_themes/lv_theme_mono.c:909:13
	bl	_lv_style_list_add_style
	ldr	r1, [sp, #32]                   @ 4-byte Reload
	.loc	13 910 38 is_stmt 1             @ lvgl/src/lv_themes/lv_theme_mono.c:910:38
	ldr	r0, [sp, #128]
	.loc	13 910 45 is_stmt 0             @ lvgl/src/lv_themes/lv_theme_mono.c:910:45
	ldr	r1, [r1]
	.loc	13 910 53                       @ lvgl/src/lv_themes/lv_theme_mono.c:910:53
	adds	r1, #12
	.loc	13 910 13                       @ lvgl/src/lv_themes/lv_theme_mono.c:910:13
	bl	_lv_style_list_add_style
	.loc	13 911 13 is_stmt 1             @ lvgl/src/lv_themes/lv_theme_mono.c:911:13
	b	.LBB32_49
.LBB32_41:
	.loc	13 916 42                       @ lvgl/src/lv_themes/lv_theme_mono.c:916:42
	ldr	r0, [sp, #136]
	movs	r1, #0
	.loc	13 916 20 is_stmt 0             @ lvgl/src/lv_themes/lv_theme_mono.c:916:20
	bl	lv_obj_get_style_list
	.loc	13 916 18                       @ lvgl/src/lv_themes/lv_theme_mono.c:916:18
	str	r0, [sp, #128]
	.loc	13 917 38 is_stmt 1             @ lvgl/src/lv_themes/lv_theme_mono.c:917:38
	ldr	r0, [sp, #128]
	.loc	13 917 45 is_stmt 0             @ lvgl/src/lv_themes/lv_theme_mono.c:917:45
	movw	r1, :lower16:styles
	movt	r1, :upper16:styles
	str	r1, [sp, #28]                   @ 4-byte Spill
	ldr	r1, [r1]
	.loc	13 917 53                       @ lvgl/src/lv_themes/lv_theme_mono.c:917:53
	adds	r1, #4
	.loc	13 917 13                       @ lvgl/src/lv_themes/lv_theme_mono.c:917:13
	bl	_lv_style_list_add_style
	.loc	13 919 42 is_stmt 1             @ lvgl/src/lv_themes/lv_theme_mono.c:919:42
	ldr	r0, [sp, #136]
	movs	r1, #3
	.loc	13 919 20 is_stmt 0             @ lvgl/src/lv_themes/lv_theme_mono.c:919:20
	bl	lv_obj_get_style_list
	ldr	r1, [sp, #28]                   @ 4-byte Reload
	.loc	13 919 18                       @ lvgl/src/lv_themes/lv_theme_mono.c:919:18
	str	r0, [sp, #128]
	.loc	13 920 38 is_stmt 1             @ lvgl/src/lv_themes/lv_theme_mono.c:920:38
	ldr	r0, [sp, #128]
	.loc	13 920 45 is_stmt 0             @ lvgl/src/lv_themes/lv_theme_mono.c:920:45
	ldr	r1, [r1]
	.loc	13 920 53                       @ lvgl/src/lv_themes/lv_theme_mono.c:920:53
	adds	r1, #96
	.loc	13 920 13                       @ lvgl/src/lv_themes/lv_theme_mono.c:920:13
	bl	_lv_style_list_add_style
	.loc	13 922 42 is_stmt 1             @ lvgl/src/lv_themes/lv_theme_mono.c:922:42
	ldr	r0, [sp, #136]
	movs	r1, #1
	.loc	13 922 20 is_stmt 0             @ lvgl/src/lv_themes/lv_theme_mono.c:922:20
	bl	lv_obj_get_style_list
	ldr	r1, [sp, #28]                   @ 4-byte Reload
	.loc	13 922 18                       @ lvgl/src/lv_themes/lv_theme_mono.c:922:18
	str	r0, [sp, #128]
	.loc	13 923 38 is_stmt 1             @ lvgl/src/lv_themes/lv_theme_mono.c:923:38
	ldr	r0, [sp, #128]
	.loc	13 923 45 is_stmt 0             @ lvgl/src/lv_themes/lv_theme_mono.c:923:45
	ldr	r1, [r1]
	.loc	13 923 53                       @ lvgl/src/lv_themes/lv_theme_mono.c:923:53
	adds	r1, #88
	.loc	13 923 13                       @ lvgl/src/lv_themes/lv_theme_mono.c:923:13
	bl	_lv_style_list_add_style
	.loc	13 924 13 is_stmt 1             @ lvgl/src/lv_themes/lv_theme_mono.c:924:13
	b	.LBB32_49
.LBB32_42:
	.loc	13 929 42                       @ lvgl/src/lv_themes/lv_theme_mono.c:929:42
	ldr	r0, [sp, #136]
	movs	r1, #0
	.loc	13 929 20 is_stmt 0             @ lvgl/src/lv_themes/lv_theme_mono.c:929:20
	bl	lv_obj_get_style_list
	.loc	13 929 18                       @ lvgl/src/lv_themes/lv_theme_mono.c:929:18
	str	r0, [sp, #128]
	.loc	13 930 38 is_stmt 1             @ lvgl/src/lv_themes/lv_theme_mono.c:930:38
	ldr	r0, [sp, #128]
	.loc	13 930 45 is_stmt 0             @ lvgl/src/lv_themes/lv_theme_mono.c:930:45
	movw	r1, :lower16:styles
	movt	r1, :upper16:styles
	str	r1, [sp, #24]                   @ 4-byte Spill
	ldr	r1, [r1]
	.loc	13 930 53                       @ lvgl/src/lv_themes/lv_theme_mono.c:930:53
	adds	r1, #4
	.loc	13 930 13                       @ lvgl/src/lv_themes/lv_theme_mono.c:930:13
	bl	_lv_style_list_add_style
	.loc	13 932 42 is_stmt 1             @ lvgl/src/lv_themes/lv_theme_mono.c:932:42
	ldr	r0, [sp, #136]
	movs	r1, #3
	.loc	13 932 20 is_stmt 0             @ lvgl/src/lv_themes/lv_theme_mono.c:932:20
	bl	lv_obj_get_style_list
	ldr	r1, [sp, #24]                   @ 4-byte Reload
	.loc	13 932 18                       @ lvgl/src/lv_themes/lv_theme_mono.c:932:18
	str	r0, [sp, #128]
	.loc	13 933 38 is_stmt 1             @ lvgl/src/lv_themes/lv_theme_mono.c:933:38
	ldr	r0, [sp, #128]
	.loc	13 933 45 is_stmt 0             @ lvgl/src/lv_themes/lv_theme_mono.c:933:45
	ldr	r1, [r1]
	.loc	13 933 53                       @ lvgl/src/lv_themes/lv_theme_mono.c:933:53
	adds	r1, #4
	.loc	13 933 13                       @ lvgl/src/lv_themes/lv_theme_mono.c:933:13
	bl	_lv_style_list_add_style
	ldr	r1, [sp, #24]                   @ 4-byte Reload
	.loc	13 934 38 is_stmt 1             @ lvgl/src/lv_themes/lv_theme_mono.c:934:38
	ldr	r0, [sp, #128]
	.loc	13 934 45 is_stmt 0             @ lvgl/src/lv_themes/lv_theme_mono.c:934:45
	ldr	r1, [r1]
	.loc	13 934 53                       @ lvgl/src/lv_themes/lv_theme_mono.c:934:53
	adds	r1, #24
	.loc	13 934 13                       @ lvgl/src/lv_themes/lv_theme_mono.c:934:13
	bl	_lv_style_list_add_style
	ldr	r1, [sp, #24]                   @ 4-byte Reload
	.loc	13 935 38 is_stmt 1             @ lvgl/src/lv_themes/lv_theme_mono.c:935:38
	ldr	r0, [sp, #128]
	.loc	13 935 45 is_stmt 0             @ lvgl/src/lv_themes/lv_theme_mono.c:935:45
	ldr	r1, [r1]
	.loc	13 935 53                       @ lvgl/src/lv_themes/lv_theme_mono.c:935:53
	adds	r1, #36
	.loc	13 935 13                       @ lvgl/src/lv_themes/lv_theme_mono.c:935:13
	bl	_lv_style_list_add_style
	ldr	r1, [sp, #24]                   @ 4-byte Reload
	.loc	13 936 38 is_stmt 1             @ lvgl/src/lv_themes/lv_theme_mono.c:936:38
	ldr	r0, [sp, #128]
	.loc	13 936 45 is_stmt 0             @ lvgl/src/lv_themes/lv_theme_mono.c:936:45
	ldr	r1, [r1]
	.loc	13 936 53                       @ lvgl/src/lv_themes/lv_theme_mono.c:936:53
	adds	r1, #20
	.loc	13 936 13                       @ lvgl/src/lv_themes/lv_theme_mono.c:936:13
	bl	_lv_style_list_add_style
	ldr	r1, [sp, #24]                   @ 4-byte Reload
	.loc	13 937 38 is_stmt 1             @ lvgl/src/lv_themes/lv_theme_mono.c:937:38
	ldr	r0, [sp, #128]
	.loc	13 937 45 is_stmt 0             @ lvgl/src/lv_themes/lv_theme_mono.c:937:45
	ldr	r1, [r1]
	.loc	13 937 53                       @ lvgl/src/lv_themes/lv_theme_mono.c:937:53
	adds	r1, #52
	.loc	13 937 13                       @ lvgl/src/lv_themes/lv_theme_mono.c:937:13
	bl	_lv_style_list_add_style
	.loc	13 938 13 is_stmt 1             @ lvgl/src/lv_themes/lv_theme_mono.c:938:13
	b	.LBB32_49
.LBB32_43:
	.loc	13 941 42                       @ lvgl/src/lv_themes/lv_theme_mono.c:941:42
	ldr	r0, [sp, #136]
	movs	r1, #0
	.loc	13 941 20 is_stmt 0             @ lvgl/src/lv_themes/lv_theme_mono.c:941:20
	bl	lv_obj_get_style_list
	.loc	13 941 18                       @ lvgl/src/lv_themes/lv_theme_mono.c:941:18
	str	r0, [sp, #128]
	.loc	13 942 38 is_stmt 1             @ lvgl/src/lv_themes/lv_theme_mono.c:942:38
	ldr	r0, [sp, #128]
	.loc	13 942 45 is_stmt 0             @ lvgl/src/lv_themes/lv_theme_mono.c:942:45
	movw	r1, :lower16:styles
	movt	r1, :upper16:styles
	str	r1, [sp, #20]                   @ 4-byte Spill
	ldr	r1, [r1]
	.loc	13 942 53                       @ lvgl/src/lv_themes/lv_theme_mono.c:942:53
	adds	r1, #4
	.loc	13 942 13                       @ lvgl/src/lv_themes/lv_theme_mono.c:942:13
	bl	_lv_style_list_add_style
	ldr	r1, [sp, #20]                   @ 4-byte Reload
	.loc	13 943 38 is_stmt 1             @ lvgl/src/lv_themes/lv_theme_mono.c:943:38
	ldr	r0, [sp, #128]
	.loc	13 943 45 is_stmt 0             @ lvgl/src/lv_themes/lv_theme_mono.c:943:45
	ldr	r1, [r1]
	.loc	13 943 53                       @ lvgl/src/lv_themes/lv_theme_mono.c:943:53
	adds	r1, #12
	.loc	13 943 13                       @ lvgl/src/lv_themes/lv_theme_mono.c:943:13
	bl	_lv_style_list_add_style
	ldr	r1, [sp, #20]                   @ 4-byte Reload
	.loc	13 944 38 is_stmt 1             @ lvgl/src/lv_themes/lv_theme_mono.c:944:38
	ldr	r0, [sp, #128]
	.loc	13 944 45 is_stmt 0             @ lvgl/src/lv_themes/lv_theme_mono.c:944:45
	ldr	r1, [r1]
	.loc	13 944 53                       @ lvgl/src/lv_themes/lv_theme_mono.c:944:53
	adds	r1, #52
	.loc	13 944 13                       @ lvgl/src/lv_themes/lv_theme_mono.c:944:13
	bl	_lv_style_list_add_style
	.loc	13 945 13 is_stmt 1             @ lvgl/src/lv_themes/lv_theme_mono.c:945:13
	b	.LBB32_49
.LBB32_44:
	.loc	13 950 42                       @ lvgl/src/lv_themes/lv_theme_mono.c:950:42
	ldr	r0, [sp, #136]
	movs	r1, #0
	.loc	13 950 20 is_stmt 0             @ lvgl/src/lv_themes/lv_theme_mono.c:950:20
	bl	lv_obj_get_style_list
	.loc	13 950 18                       @ lvgl/src/lv_themes/lv_theme_mono.c:950:18
	str	r0, [sp, #128]
	.loc	13 951 38 is_stmt 1             @ lvgl/src/lv_themes/lv_theme_mono.c:951:38
	ldr	r0, [sp, #128]
	.loc	13 951 45 is_stmt 0             @ lvgl/src/lv_themes/lv_theme_mono.c:951:45
	movw	r1, :lower16:styles
	movt	r1, :upper16:styles
	str	r1, [sp, #16]                   @ 4-byte Spill
	ldr	r1, [r1]
	.loc	13 951 53                       @ lvgl/src/lv_themes/lv_theme_mono.c:951:53
	adds	r1, #4
	.loc	13 951 13                       @ lvgl/src/lv_themes/lv_theme_mono.c:951:13
	bl	_lv_style_list_add_style
	.loc	13 953 42 is_stmt 1             @ lvgl/src/lv_themes/lv_theme_mono.c:953:42
	ldr	r0, [sp, #136]
	movs	r1, #3
	.loc	13 953 20 is_stmt 0             @ lvgl/src/lv_themes/lv_theme_mono.c:953:20
	bl	lv_obj_get_style_list
	ldr	r1, [sp, #16]                   @ 4-byte Reload
	.loc	13 953 18                       @ lvgl/src/lv_themes/lv_theme_mono.c:953:18
	str	r0, [sp, #128]
	.loc	13 954 38 is_stmt 1             @ lvgl/src/lv_themes/lv_theme_mono.c:954:38
	ldr	r0, [sp, #128]
	.loc	13 954 45 is_stmt 0             @ lvgl/src/lv_themes/lv_theme_mono.c:954:45
	ldr	r1, [r1]
	.loc	13 954 53                       @ lvgl/src/lv_themes/lv_theme_mono.c:954:53
	adds	r1, #4
	.loc	13 954 13                       @ lvgl/src/lv_themes/lv_theme_mono.c:954:13
	bl	_lv_style_list_add_style
	ldr	r1, [sp, #16]                   @ 4-byte Reload
	.loc	13 955 38 is_stmt 1             @ lvgl/src/lv_themes/lv_theme_mono.c:955:38
	ldr	r0, [sp, #128]
	.loc	13 955 45 is_stmt 0             @ lvgl/src/lv_themes/lv_theme_mono.c:955:45
	ldr	r1, [r1]
	.loc	13 955 53                       @ lvgl/src/lv_themes/lv_theme_mono.c:955:53
	adds	r1, #12
	.loc	13 955 13                       @ lvgl/src/lv_themes/lv_theme_mono.c:955:13
	bl	_lv_style_list_add_style
	ldr	r1, [sp, #16]                   @ 4-byte Reload
	.loc	13 956 38 is_stmt 1             @ lvgl/src/lv_themes/lv_theme_mono.c:956:38
	ldr	r0, [sp, #128]
	.loc	13 956 45 is_stmt 0             @ lvgl/src/lv_themes/lv_theme_mono.c:956:45
	ldr	r1, [r1]
	.loc	13 956 53                       @ lvgl/src/lv_themes/lv_theme_mono.c:956:53
	adds	r1, #44
	.loc	13 956 13                       @ lvgl/src/lv_themes/lv_theme_mono.c:956:13
	bl	_lv_style_list_add_style
	ldr	r1, [sp, #16]                   @ 4-byte Reload
	.loc	13 957 38 is_stmt 1             @ lvgl/src/lv_themes/lv_theme_mono.c:957:38
	ldr	r0, [sp, #128]
	.loc	13 957 45 is_stmt 0             @ lvgl/src/lv_themes/lv_theme_mono.c:957:45
	ldr	r1, [r1]
	.loc	13 957 53                       @ lvgl/src/lv_themes/lv_theme_mono.c:957:53
	adds	r1, #28
	.loc	13 957 13                       @ lvgl/src/lv_themes/lv_theme_mono.c:957:13
	bl	_lv_style_list_add_style
	ldr	r1, [sp, #16]                   @ 4-byte Reload
	.loc	13 958 38 is_stmt 1             @ lvgl/src/lv_themes/lv_theme_mono.c:958:38
	ldr	r0, [sp, #128]
	.loc	13 958 45 is_stmt 0             @ lvgl/src/lv_themes/lv_theme_mono.c:958:45
	ldr	r1, [r1]
	.loc	13 958 53                       @ lvgl/src/lv_themes/lv_theme_mono.c:958:53
	adds	r1, #68
	.loc	13 958 13                       @ lvgl/src/lv_themes/lv_theme_mono.c:958:13
	bl	_lv_style_list_add_style
	.loc	13 960 42 is_stmt 1             @ lvgl/src/lv_themes/lv_theme_mono.c:960:42
	ldr	r0, [sp, #136]
	movs	r1, #1
	.loc	13 960 20 is_stmt 0             @ lvgl/src/lv_themes/lv_theme_mono.c:960:20
	bl	lv_obj_get_style_list
	ldr	r1, [sp, #16]                   @ 4-byte Reload
	.loc	13 960 18                       @ lvgl/src/lv_themes/lv_theme_mono.c:960:18
	str	r0, [sp, #128]
	.loc	13 961 38 is_stmt 1             @ lvgl/src/lv_themes/lv_theme_mono.c:961:38
	ldr	r0, [sp, #128]
	.loc	13 961 45 is_stmt 0             @ lvgl/src/lv_themes/lv_theme_mono.c:961:45
	ldr	r1, [r1]
	.loc	13 961 53                       @ lvgl/src/lv_themes/lv_theme_mono.c:961:53
	adds	r1, #40
	.loc	13 961 13                       @ lvgl/src/lv_themes/lv_theme_mono.c:961:13
	bl	_lv_style_list_add_style
	ldr	r1, [sp, #16]                   @ 4-byte Reload
	.loc	13 962 38 is_stmt 1             @ lvgl/src/lv_themes/lv_theme_mono.c:962:38
	ldr	r0, [sp, #128]
	.loc	13 962 45 is_stmt 0             @ lvgl/src/lv_themes/lv_theme_mono.c:962:45
	ldr	r1, [r1]
	.loc	13 962 53                       @ lvgl/src/lv_themes/lv_theme_mono.c:962:53
	adds	r1, #28
	.loc	13 962 13                       @ lvgl/src/lv_themes/lv_theme_mono.c:962:13
	bl	_lv_style_list_add_style
	.loc	13 964 42 is_stmt 1             @ lvgl/src/lv_themes/lv_theme_mono.c:964:42
	ldr	r0, [sp, #136]
	movs	r1, #2
	.loc	13 964 20 is_stmt 0             @ lvgl/src/lv_themes/lv_theme_mono.c:964:20
	bl	lv_obj_get_style_list
	ldr	r1, [sp, #16]                   @ 4-byte Reload
	.loc	13 964 18                       @ lvgl/src/lv_themes/lv_theme_mono.c:964:18
	str	r0, [sp, #128]
	.loc	13 965 38 is_stmt 1             @ lvgl/src/lv_themes/lv_theme_mono.c:965:38
	ldr	r0, [sp, #128]
	.loc	13 965 45 is_stmt 0             @ lvgl/src/lv_themes/lv_theme_mono.c:965:45
	ldr	r1, [r1]
	.loc	13 965 53                       @ lvgl/src/lv_themes/lv_theme_mono.c:965:53
	adds	r1, #4
	.loc	13 965 13                       @ lvgl/src/lv_themes/lv_theme_mono.c:965:13
	bl	_lv_style_list_add_style
	ldr	r1, [sp, #16]                   @ 4-byte Reload
	.loc	13 966 38 is_stmt 1             @ lvgl/src/lv_themes/lv_theme_mono.c:966:38
	ldr	r0, [sp, #128]
	.loc	13 966 45 is_stmt 0             @ lvgl/src/lv_themes/lv_theme_mono.c:966:45
	ldr	r1, [r1]
	.loc	13 966 53                       @ lvgl/src/lv_themes/lv_theme_mono.c:966:53
	adds	r1, #44
	.loc	13 966 13                       @ lvgl/src/lv_themes/lv_theme_mono.c:966:13
	bl	_lv_style_list_add_style
	.loc	13 967 13 is_stmt 1             @ lvgl/src/lv_themes/lv_theme_mono.c:967:13
	b	.LBB32_49
.LBB32_45:
	.loc	13 971 42                       @ lvgl/src/lv_themes/lv_theme_mono.c:971:42
	ldr	r0, [sp, #136]
	movs	r1, #0
	.loc	13 971 20 is_stmt 0             @ lvgl/src/lv_themes/lv_theme_mono.c:971:20
	bl	lv_obj_get_style_list
	.loc	13 971 18                       @ lvgl/src/lv_themes/lv_theme_mono.c:971:18
	str	r0, [sp, #128]
	.loc	13 972 38 is_stmt 1             @ lvgl/src/lv_themes/lv_theme_mono.c:972:38
	ldr	r0, [sp, #128]
	.loc	13 972 45 is_stmt 0             @ lvgl/src/lv_themes/lv_theme_mono.c:972:45
	movw	r1, :lower16:styles
	movt	r1, :upper16:styles
	str	r1, [sp, #12]                   @ 4-byte Spill
	ldr	r1, [r1]
	.loc	13 972 53                       @ lvgl/src/lv_themes/lv_theme_mono.c:972:53
	adds	r1, #4
	.loc	13 972 13                       @ lvgl/src/lv_themes/lv_theme_mono.c:972:13
	bl	_lv_style_list_add_style
	.loc	13 974 42 is_stmt 1             @ lvgl/src/lv_themes/lv_theme_mono.c:974:42
	ldr	r0, [sp, #136]
	movs	r1, #1
	.loc	13 974 20 is_stmt 0             @ lvgl/src/lv_themes/lv_theme_mono.c:974:20
	bl	lv_obj_get_style_list
	ldr	r1, [sp, #12]                   @ 4-byte Reload
	.loc	13 974 18                       @ lvgl/src/lv_themes/lv_theme_mono.c:974:18
	str	r0, [sp, #128]
	.loc	13 975 38 is_stmt 1             @ lvgl/src/lv_themes/lv_theme_mono.c:975:38
	ldr	r0, [sp, #128]
	.loc	13 975 45 is_stmt 0             @ lvgl/src/lv_themes/lv_theme_mono.c:975:45
	ldr	r1, [r1]
	.loc	13 975 53                       @ lvgl/src/lv_themes/lv_theme_mono.c:975:53
	adds	r1, #4
	.loc	13 975 13                       @ lvgl/src/lv_themes/lv_theme_mono.c:975:13
	bl	_lv_style_list_add_style
	ldr	r1, [sp, #12]                   @ 4-byte Reload
	.loc	13 976 38 is_stmt 1             @ lvgl/src/lv_themes/lv_theme_mono.c:976:38
	ldr	r0, [sp, #128]
	.loc	13 976 45 is_stmt 0             @ lvgl/src/lv_themes/lv_theme_mono.c:976:45
