	.text
	.syntax unified
	.eabi_attribute	67, "2.09"	@ Tag_conformance
	.cpu	cortex-m7
	.eabi_attribute	6, 13	@ Tag_CPU_arch
	.eabi_attribute	7, 77	@ Tag_CPU_arch_profile
	.eabi_attribute	8, 0	@ Tag_ARM_ISA_use
	.eabi_attribute	9, 2	@ Tag_THUMB_ISA_use
	.fpu	fpv5-d16
	.eabi_attribute	36, 1	@ Tag_FP_HP_extension
	.eabi_attribute	34, 1	@ Tag_CPU_unaligned_access
	.eabi_attribute	17, 1	@ Tag_ABI_PCS_GOT_use
	.eabi_attribute	20, 2	@ Tag_ABI_FP_denormal
	.eabi_attribute	21, 0	@ Tag_ABI_FP_exceptions
	.eabi_attribute	23, 1	@ Tag_ABI_FP_number_model
	.eabi_attribute	24, 1	@ Tag_ABI_align_needed
	.eabi_attribute	25, 1	@ Tag_ABI_align_preserved
	.eabi_attribute	28, 1	@ Tag_ABI_VFP_args
	.eabi_attribute	38, 1	@ Tag_ABI_FP_16bit_format
	.eabi_attribute	18, 2	@ Tag_ABI_PCS_wchar_t
	.eabi_attribute	26, 1	@ Tag_ABI_enum_size
	.eabi_attribute	14, 0	@ Tag_ABI_PCS_R9_use
	.file	"lv_table.c"
	.file	1 "D:\\Keil_v5\\ARM\\ARMCLANG\\Bin\\..\\include" "stdint.h"
	.file	2 "E:\\Smart-access-control\\Hardware\\CODE" "lvgl/src/lv_widgets/../lv_core/../lv_draw/../lv_misc/lv_types.h"
	.file	3 "E:\\Smart-access-control\\Hardware\\CODE" "lvgl/src/lv_widgets/../lv_themes/../lv_core/lv_obj.h"
	.file	4 "E:\\Smart-access-control\\Hardware\\CODE" "lvgl/src/lv_widgets/../lv_core/../lv_font/../lv_misc/lv_ll.h"
	.file	5 "E:\\Smart-access-control\\Hardware\\CODE" "./lvgl/src/lv_conf.h"
	.file	6 "E:\\Smart-access-control\\Hardware\\CODE" "lvgl/src/lv_widgets/../lv_core/../lv_hal/../lv_misc/lv_area.h"
	.file	7 "E:\\Smart-access-control\\Hardware\\CODE" "lvgl/src/lv_widgets/../lv_themes/../lv_core/lv_style.h"
	.file	8 "E:\\Smart-access-control\\Hardware\\CODE" "lvgl/src/lv_widgets/../lv_core/../lv_hal/lv_hal_indev.h"
	.file	9 "E:\\Smart-access-control\\Hardware\\CODE" "lvgl/src/lv_widgets/../lv_core/../lv_draw/../lv_misc/lv_bidi.h"
	.file	10 "E:\\Smart-access-control\\Hardware\\CODE" "lvgl/src/lv_widgets/lv_table.c"
	.file	11 "E:\\Smart-access-control\\Hardware\\CODE" "lvgl/src/lv_widgets/../lv_themes/lv_theme.h"
	.file	12 "E:\\Smart-access-control\\Hardware\\CODE" "lvgl/src/lv_widgets/lv_label.h"
	.file	13 "E:\\Smart-access-control\\Hardware\\CODE" "lvgl/src/lv_widgets/lv_table.h"
	.file	14 "E:\\Smart-access-control\\Hardware\\CODE" "lvgl/src/lv_widgets/../lv_core/../lv_font/../lv_misc/lv_txt.h"
	.section	.text.lv_table_create,"ax",%progbits
	.hidden	lv_table_create                 @ -- Begin function lv_table_create
	.globl	lv_table_create
	.p2align	3
	.type	lv_table_create,%function
	.code	16                              @ @lv_table_create
	.thumb_func
lv_table_create:
.Lfunc_begin0:
	.loc	10 62 0                         @ lvgl/src/lv_widgets/lv_table.c:62:0
	.fnstart
	.cfi_sections .debug_frame
	.cfi_startproc
@ %bb.0:
	@DEBUG_VALUE: lv_table_create:par <- $r0
	@DEBUG_VALUE: lv_table_create:copy <- $r1
	.save	{r4, r5, r6, r7, r8, lr}
	push.w	{r4, r5, r6, r7, r8, lr}
	.cfi_def_cfa_offset 24
	.cfi_offset lr, -4
	.cfi_offset r8, -8
	.cfi_offset r7, -12
	.cfi_offset r6, -16
	.cfi_offset r5, -20
	.cfi_offset r4, -24
	mov	r8, r1
.Ltmp0:
	@DEBUG_VALUE: lv_table_create:copy <- $r8
	@DEBUG_VALUE: lv_table_create:par <- $r0
	@DEBUG_VALUE: lv_table_create:par <- $r0
	.loc	10 66 24 prologue_end           @ lvgl/src/lv_widgets/lv_table.c:66:24
	bl	lv_obj_create
.Ltmp1:
	@DEBUG_VALUE: lv_table_create:par <- [DW_OP_LLVM_entry_value 1] $r0
	mov	r4, r0
.Ltmp2:
	@DEBUG_VALUE: lv_table_create:table <- $r4
	.loc	10 67 5                         @ lvgl/src/lv_widgets/lv_table.c:67:5
	bl	lv_debug_check_null
.Ltmp3:
	.loc	10 67 5 is_stmt 0               @ lvgl/src/lv_widgets/lv_table.c:67:5
	cmp	r0, #0
	beq	.LBB0_16
.Ltmp4:
@ %bb.1:
	@DEBUG_VALUE: lv_table_create:copy <- $r8
	@DEBUG_VALUE: lv_table_create:table <- $r4
	@DEBUG_VALUE: lv_table_create:par <- [DW_OP_LLVM_entry_value 1] $r0
	.loc	10 68 8 is_stmt 1               @ lvgl/src/lv_widgets/lv_table.c:68:8
	cmp	r4, #0
	beq	.LBB0_18
.Ltmp5:
@ %bb.2:
	@DEBUG_VALUE: lv_table_create:copy <- $r8
	@DEBUG_VALUE: lv_table_create:table <- $r4
	@DEBUG_VALUE: lv_table_create:par <- [DW_OP_LLVM_entry_value 1] $r0
	.loc	10 71 28                        @ lvgl/src/lv_widgets/lv_table.c:71:28
	movs	r1, #72
	mov	r0, r4
	bl	lv_obj_allocate_ext_attr
	mov	r6, r0
.Ltmp6:
	@DEBUG_VALUE: lv_table_create:ext <- $r6
	.loc	10 72 5                         @ lvgl/src/lv_widgets/lv_table.c:72:5
	bl	lv_debug_check_null
.Ltmp7:
	.loc	10 72 5 is_stmt 0               @ lvgl/src/lv_widgets/lv_table.c:72:5
	cmp	r0, #0
	beq	.LBB0_19
.Ltmp8:
@ %bb.3:
	@DEBUG_VALUE: lv_table_create:copy <- $r8
	@DEBUG_VALUE: lv_table_create:ext <- $r6
	@DEBUG_VALUE: lv_table_create:table <- $r4
	@DEBUG_VALUE: lv_table_create:par <- [DW_OP_LLVM_entry_value 1] $r0
	.loc	10 73 8 is_stmt 1               @ lvgl/src/lv_widgets/lv_table.c:73:8
	cmp	r6, #0
	beq	.LBB0_21
.Ltmp9:
@ %bb.4:
	@DEBUG_VALUE: lv_table_create:copy <- $r8
	@DEBUG_VALUE: lv_table_create:ext <- $r6
	@DEBUG_VALUE: lv_table_create:table <- $r4
	@DEBUG_VALUE: lv_table_create:par <- [DW_OP_LLVM_entry_value 1] $r0
	.loc	10 78 8                         @ lvgl/src/lv_widgets/lv_table.c:78:8
	movw	r5, :lower16:ancestor_signal
	movt	r5, :upper16:ancestor_signal
	ldr	r0, [r5]
.Ltmp10:
	.loc	10 78 8 is_stmt 0               @ lvgl/src/lv_widgets/lv_table.c:78:8
	cbnz	r0, .LBB0_6
.Ltmp11:
@ %bb.5:
	@DEBUG_VALUE: lv_table_create:copy <- $r8
	@DEBUG_VALUE: lv_table_create:ext <- $r6
	@DEBUG_VALUE: lv_table_create:table <- $r4
	@DEBUG_VALUE: lv_table_create:par <- [DW_OP_LLVM_entry_value 1] $r0
	.loc	10 78 51                        @ lvgl/src/lv_widgets/lv_table.c:78:51
	mov	r0, r4
	bl	lv_obj_get_signal_cb
	.loc	10 78 49                        @ lvgl/src/lv_widgets/lv_table.c:78:49
	str	r0, [r5]
.Ltmp12:
.LBB0_6:
	@DEBUG_VALUE: lv_table_create:copy <- $r8
	@DEBUG_VALUE: lv_table_create:ext <- $r6
	@DEBUG_VALUE: lv_table_create:table <- $r4
	@DEBUG_VALUE: lv_table_create:par <- [DW_OP_LLVM_entry_value 1] $r0
	.loc	10 79 8 is_stmt 1               @ lvgl/src/lv_widgets/lv_table.c:79:8
	movw	r5, :lower16:ancestor_design
	movt	r5, :upper16:ancestor_design
	ldr	r0, [r5]
.Ltmp13:
	.loc	10 79 8 is_stmt 0               @ lvgl/src/lv_widgets/lv_table.c:79:8
	cbnz	r0, .LBB0_8
.Ltmp14:
@ %bb.7:
	@DEBUG_VALUE: lv_table_create:copy <- $r8
	@DEBUG_VALUE: lv_table_create:ext <- $r6
	@DEBUG_VALUE: lv_table_create:table <- $r4
	@DEBUG_VALUE: lv_table_create:par <- [DW_OP_LLVM_entry_value 1] $r0
	.loc	10 79 51                        @ lvgl/src/lv_widgets/lv_table.c:79:51
	mov	r0, r4
	bl	lv_obj_get_design_cb
	.loc	10 79 49                        @ lvgl/src/lv_widgets/lv_table.c:79:49
	str	r0, [r5]
.Ltmp15:
.LBB0_8:
	@DEBUG_VALUE: lv_table_create:copy <- $r8
	@DEBUG_VALUE: lv_table_create:ext <- $r6
	@DEBUG_VALUE: lv_table_create:table <- $r4
	@DEBUG_VALUE: lv_table_create:par <- [DW_OP_LLVM_entry_value 1] $r0
	.loc	10 86 24 is_stmt 1              @ lvgl/src/lv_widgets/lv_table.c:86:24
	ldrb.w	r0, [r6, #68]
	movs	r5, #0
	add.w	r7, r6, #12
	.loc	10 83 24                        @ lvgl/src/lv_widgets/lv_table.c:83:24
	str	r5, [r6, #8]
	.loc	10 86 24                        @ lvgl/src/lv_widgets/lv_table.c:86:24
	and	r0, r0, #240
	.loc	10 83 24                        @ lvgl/src/lv_widgets/lv_table.c:83:24
	strd	r5, r5, [r6]
	.loc	10 86 24                        @ lvgl/src/lv_widgets/lv_table.c:86:24
	adds	r0, #1
	strb.w	r0, [r6, #68]
.Ltmp16:
	@DEBUG_VALUE: lv_table_create:i <- 0
	.p2align	2
.LBB0_9:                                @ =>This Inner Loop Header: Depth=1
	@DEBUG_VALUE: lv_table_create:copy <- $r8
	@DEBUG_VALUE: lv_table_create:ext <- $r6
	@DEBUG_VALUE: lv_table_create:table <- $r4
	@DEBUG_VALUE: lv_table_create:par <- [DW_OP_LLVM_entry_value 1] $r0
	@DEBUG_VALUE: lv_table_create:i <- undef
	.loc	10 90 9                         @ lvgl/src/lv_widgets/lv_table.c:90:9
	adds	r0, r7, r5
	bl	lv_style_list_init
.Ltmp17:
	@DEBUG_VALUE: lv_table_create:i <- [DW_OP_plus_uconst 1, DW_OP_stack_value] undef
	.loc	10 89 18                        @ lvgl/src/lv_widgets/lv_table.c:89:18
	adds	r5, #8
.Ltmp18:
	.loc	10 89 5 is_stmt 0               @ lvgl/src/lv_widgets/lv_table.c:89:5
	cmp	r5, #32
	bne	.LBB0_9
.Ltmp19:
@ %bb.10:
	@DEBUG_VALUE: lv_table_create:copy <- $r8
	@DEBUG_VALUE: lv_table_create:ext <- $r6
	@DEBUG_VALUE: lv_table_create:table <- $r4
	@DEBUG_VALUE: lv_table_create:par <- [DW_OP_LLVM_entry_value 1] $r0
	.loc	10 0 5                          @ lvgl/src/lv_widgets/lv_table.c:0:5
	movs	r0, #42
.Ltmp20:
	@DEBUG_VALUE: lv_table_create:i <- 0
	movs	r1, #130
.Ltmp21:
	.p2align	2
.LBB0_11:                               @ =>This Inner Loop Header: Depth=1
	@DEBUG_VALUE: lv_table_create:copy <- $r8
	@DEBUG_VALUE: lv_table_create:ext <- $r6
	@DEBUG_VALUE: lv_table_create:table <- $r4
	@DEBUG_VALUE: lv_table_create:par <- [DW_OP_LLVM_entry_value 1] $r0
	@DEBUG_VALUE: lv_table_create:i <- undef
	.loc	10 94 23 is_stmt 1              @ lvgl/src/lv_widgets/lv_table.c:94:23
	adds	r2, r6, r0
.Ltmp22:
	.loc	10 93 18                        @ lvgl/src/lv_widgets/lv_table.c:93:18
	adds	r0, #2
.Ltmp23:
	.loc	10 93 5 is_stmt 0               @ lvgl/src/lv_widgets/lv_table.c:93:5
	cmp	r0, #66
.Ltmp24:
	.loc	10 94 23 is_stmt 1              @ lvgl/src/lv_widgets/lv_table.c:94:23
	strh	r1, [r2, #2]
.Ltmp25:
	@DEBUG_VALUE: lv_table_create:i <- [DW_OP_plus_uconst 1, DW_OP_stack_value] undef
	.loc	10 93 5                         @ lvgl/src/lv_widgets/lv_table.c:93:5
	bne	.LBB0_11
.Ltmp26:
@ %bb.12:
	@DEBUG_VALUE: lv_table_create:copy <- $r8
	@DEBUG_VALUE: lv_table_create:ext <- $r6
	@DEBUG_VALUE: lv_table_create:table <- $r4
	@DEBUG_VALUE: lv_table_create:par <- [DW_OP_LLVM_entry_value 1] $r0
	.loc	10 98 5                         @ lvgl/src/lv_widgets/lv_table.c:98:5
	movw	r1, :lower16:lv_table_signal
	mov	r0, r4
	movt	r1, :upper16:lv_table_signal
	bl	lv_obj_set_signal_cb
	.loc	10 99 5                         @ lvgl/src/lv_widgets/lv_table.c:99:5
	movw	r1, :lower16:lv_table_design
	mov	r0, r4
	movt	r1, :upper16:lv_table_design
	bl	lv_obj_set_design_cb
	.loc	10 102 8                        @ lvgl/src/lv_widgets/lv_table.c:102:8
	cmp.w	r8, #0
	beq	.LBB0_22
.Ltmp27:
@ %bb.13:
	@DEBUG_VALUE: lv_table_create:copy <- $r8
	@DEBUG_VALUE: lv_table_create:ext <- $r6
	@DEBUG_VALUE: lv_table_create:table <- $r4
	@DEBUG_VALUE: lv_table_create:par <- [DW_OP_LLVM_entry_value 1] $r0
	.loc	10 107 37                       @ lvgl/src/lv_widgets/lv_table.c:107:37
	mov	r0, r8
	bl	lv_obj_get_ext_attr
	mov	r8, r0
.Ltmp28:
	@DEBUG_VALUE: lv_table_create:copy <- [DW_OP_LLVM_entry_value 1] $r1
	@DEBUG_VALUE: copy_ext <- $r8
	@DEBUG_VALUE: lv_table_create:i <- 0
	.loc	10 0 37 is_stmt 0               @ lvgl/src/lv_widgets/lv_table.c:0:37
	add.w	r6, r0, #12
.Ltmp29:
	movs	r5, #0
.Ltmp30:
	.p2align	2
.LBB0_14:                               @ =>This Inner Loop Header: Depth=1
	@DEBUG_VALUE: copy_ext <- $r8
	@DEBUG_VALUE: lv_table_create:table <- $r4
	@DEBUG_VALUE: lv_table_create:copy <- [DW_OP_LLVM_entry_value 1] $r1
	@DEBUG_VALUE: lv_table_create:par <- [DW_OP_LLVM_entry_value 1] $r0
	@DEBUG_VALUE: lv_table_create:i <- undef
	.loc	10 109 54 is_stmt 1             @ lvgl/src/lv_widgets/lv_table.c:109:54
	adds	r0, r7, r5
	.loc	10 109 13 is_stmt 0             @ lvgl/src/lv_widgets/lv_table.c:109:13
	adds	r1, r6, r5
	bl	lv_style_list_copy
.Ltmp31:
	@DEBUG_VALUE: lv_table_create:i <- [DW_OP_plus_uconst 1, DW_OP_stack_value] undef
	.loc	10 108 22 is_stmt 1             @ lvgl/src/lv_widgets/lv_table.c:108:22
	adds	r5, #8
.Ltmp32:
	.loc	10 108 9 is_stmt 0              @ lvgl/src/lv_widgets/lv_table.c:108:9
	cmp	r5, #32
	bne	.LBB0_14
.Ltmp33:
@ %bb.15:
	@DEBUG_VALUE: copy_ext <- $r8
	@DEBUG_VALUE: lv_table_create:table <- $r4
	@DEBUG_VALUE: lv_table_create:copy <- [DW_OP_LLVM_entry_value 1] $r1
	@DEBUG_VALUE: lv_table_create:par <- [DW_OP_LLVM_entry_value 1] $r0
	.loc	10 111 47 is_stmt 1             @ lvgl/src/lv_widgets/lv_table.c:111:47
	ldrh.w	r1, [r8, #2]
	.loc	10 111 9 is_stmt 0              @ lvgl/src/lv_widgets/lv_table.c:111:9
	mov	r0, r4
	bl	lv_table_set_row_cnt
	.loc	10 112 47 is_stmt 1             @ lvgl/src/lv_widgets/lv_table.c:112:47
	ldrh.w	r1, [r8]
	.loc	10 112 9 is_stmt 0              @ lvgl/src/lv_widgets/lv_table.c:112:9
	mov	r0, r4
	bl	lv_table_set_col_cnt
	.loc	10 115 9 is_stmt 1              @ lvgl/src/lv_widgets/lv_table.c:115:9
	movs	r1, #255
	movs	r2, #255
	mov	r0, r4
	bl	lv_obj_refresh_style
.Ltmp34:
	.loc	10 121 1                        @ lvgl/src/lv_widgets/lv_table.c:121:1
	mov	r0, r4
	pop.w	{r4, r5, r6, r7, r8, pc}
.Ltmp35:
.LBB0_16:
	@DEBUG_VALUE: lv_table_create:copy <- $r8
	@DEBUG_VALUE: lv_table_create:table <- $r4
	@DEBUG_VALUE: lv_table_create:par <- [DW_OP_LLVM_entry_value 1] $r0
	.loc	10 67 5                         @ lvgl/src/lv_widgets/lv_table.c:67:5
	movw	r0, :lower16:.L.str
	movs	r3, #0
	movt	r0, :upper16:.L.str
	mov	r2, r4
	bl	lv_debug_log_error
.Ltmp36:
	.p2align	2
.LBB0_17:                               @ =>This Inner Loop Header: Depth=1
	@DEBUG_VALUE: lv_table_create:copy <- $r8
	@DEBUG_VALUE: lv_table_create:table <- $r4
	@DEBUG_VALUE: lv_table_create:par <- [DW_OP_LLVM_entry_value 1] $r0
	b	.LBB0_17
.Ltmp37:
.LBB0_18:
	@DEBUG_VALUE: lv_table_create:copy <- $r8
	@DEBUG_VALUE: lv_table_create:table <- $r4
	@DEBUG_VALUE: lv_table_create:par <- [DW_OP_LLVM_entry_value 1] $r0
	.loc	10 0 5 is_stmt 0                @ lvgl/src/lv_widgets/lv_table.c:0:5
	movs	r0, #0
	.loc	10 121 1 is_stmt 1              @ lvgl/src/lv_widgets/lv_table.c:121:1
	pop.w	{r4, r5, r6, r7, r8, pc}
.Ltmp38:
.LBB0_19:
	@DEBUG_VALUE: lv_table_create:copy <- $r8
	@DEBUG_VALUE: lv_table_create:ext <- $r6
	@DEBUG_VALUE: lv_table_create:table <- $r4
	@DEBUG_VALUE: lv_table_create:par <- [DW_OP_LLVM_entry_value 1] $r0
	.loc	10 72 5                         @ lvgl/src/lv_widgets/lv_table.c:72:5
	movw	r0, :lower16:.L.str
	movs	r3, #0
	movt	r0, :upper16:.L.str
	mov	r2, r6
	bl	lv_debug_log_error
.Ltmp39:
	.p2align	2
.LBB0_20:                               @ =>This Inner Loop Header: Depth=1
	@DEBUG_VALUE: lv_table_create:copy <- $r8
	@DEBUG_VALUE: lv_table_create:ext <- $r6
	@DEBUG_VALUE: lv_table_create:table <- $r4
	@DEBUG_VALUE: lv_table_create:par <- [DW_OP_LLVM_entry_value 1] $r0
	b	.LBB0_20
.Ltmp40:
.LBB0_21:
	@DEBUG_VALUE: lv_table_create:copy <- $r8
	@DEBUG_VALUE: lv_table_create:ext <- $r6
	@DEBUG_VALUE: lv_table_create:table <- $r4
	@DEBUG_VALUE: lv_table_create:par <- [DW_OP_LLVM_entry_value 1] $r0
	.loc	10 74 9                         @ lvgl/src/lv_widgets/lv_table.c:74:9
	mov	r0, r4
	bl	lv_obj_del
	movs	r0, #0
.Ltmp41:
	.loc	10 121 1                        @ lvgl/src/lv_widgets/lv_table.c:121:1
	pop.w	{r4, r5, r6, r7, r8, pc}
.Ltmp42:
.LBB0_22:
	@DEBUG_VALUE: lv_table_create:copy <- $r8
	@DEBUG_VALUE: lv_table_create:ext <- $r6
	@DEBUG_VALUE: lv_table_create:table <- $r4
	@DEBUG_VALUE: lv_table_create:par <- [DW_OP_LLVM_entry_value 1] $r0
	.loc	10 103 9                        @ lvgl/src/lv_widgets/lv_table.c:103:9
	movs	r1, #34
	mov	r0, r4
	bl	lv_theme_apply
.Ltmp43:
	.loc	10 121 1                        @ lvgl/src/lv_widgets/lv_table.c:121:1
	mov	r0, r4
	pop.w	{r4, r5, r6, r7, r8, pc}
.Ltmp44:
.Lfunc_end0:
	.size	lv_table_create, .Lfunc_end0-lv_table_create
	.cfi_endproc
	.cantunwind
	.fnend
                                        @ -- End function
	.section	.text.lv_table_signal,"ax",%progbits
	.p2align	3                               @ -- Begin function lv_table_signal
	.type	lv_table_signal,%function
	.code	16                              @ @lv_table_signal
	.thumb_func
lv_table_signal:
.Lfunc_begin1:
	.loc	10 1018 0                       @ lvgl/src/lv_widgets/lv_table.c:1018:0
	.fnstart
	.cfi_startproc
@ %bb.0:
	@DEBUG_VALUE: lv_table_signal:table <- $r0
	@DEBUG_VALUE: lv_table_signal:sign <- $r1
	@DEBUG_VALUE: lv_table_signal:param <- $r2
	.save	{r4, r5, r6, r7, r8, r9, lr}
	push.w	{r4, r5, r6, r7, r8, r9, lr}
	.cfi_def_cfa_offset 28
	.cfi_offset lr, -4
	.cfi_offset r9, -8
	.cfi_offset r8, -12
	.cfi_offset r7, -16
	.cfi_offset r6, -20
	.cfi_offset r5, -24
	.cfi_offset r4, -28
	.pad	#4
	sub	sp, #4
	.cfi_def_cfa_offset 32
	mov	r7, r1
.Ltmp45:
	@DEBUG_VALUE: lv_table_signal:sign <- $r7
	.loc	10 1020 8 prologue_end          @ lvgl/src/lv_widgets/lv_table.c:1020:8
	cmp	r1, #8
	mov	r6, r2
.Ltmp46:
	@DEBUG_VALUE: lv_table_signal:param <- $r6
	@DEBUG_VALUE: lv_table_signal:param <- $r6
	.loc	10 0 8 is_stmt 0                @ lvgl/src/lv_widgets/lv_table.c:0:8
	mov	r5, r0
.Ltmp47:
	@DEBUG_VALUE: lv_table_signal:table <- $r5
	@DEBUG_VALUE: lv_table_signal:table <- $r5
	.loc	10 1020 8                       @ lvgl/src/lv_widgets/lv_table.c:1020:8
	bne	.LBB1_3
.Ltmp48:
@ %bb.1:
	@DEBUG_VALUE: lv_table_signal:sign <- $r7
	@DEBUG_VALUE: lv_table_signal:param <- $r6
	@DEBUG_VALUE: lv_table_signal:table <- $r5
	@DEBUG_VALUE: info <- $r6
	.loc	10 1022 56 is_stmt 1            @ lvgl/src/lv_widgets/lv_table.c:1022:56
	ldrb	r1, [r6]
	.loc	10 1022 24 is_stmt 0            @ lvgl/src/lv_widgets/lv_table.c:1022:24
	mov	r0, r5
	bl	lv_table_get_style
	.loc	10 1022 22                      @ lvgl/src/lv_widgets/lv_table.c:1022:22
	str	r0, [r6, #4]
	.loc	10 1023 12 is_stmt 1            @ lvgl/src/lv_widgets/lv_table.c:1023:12
	cbz	r0, .LBB1_8
.Ltmp49:
@ %bb.2:
	@DEBUG_VALUE: lv_table_signal:sign <- $r7
	@DEBUG_VALUE: info <- $r6
	@DEBUG_VALUE: lv_table_signal:param <- $r6
	@DEBUG_VALUE: lv_table_signal:table <- $r5
	.loc	10 0 12 is_stmt 0               @ lvgl/src/lv_widgets/lv_table.c:0:12
	mov.w	r9, #1
	b	.LBB1_21
.Ltmp50:
.LBB1_3:
	@DEBUG_VALUE: lv_table_signal:sign <- $r7
	@DEBUG_VALUE: lv_table_signal:param <- $r6
	@DEBUG_VALUE: lv_table_signal:table <- $r5
	.loc	10 1028 11 is_stmt 1            @ lvgl/src/lv_widgets/lv_table.c:1028:11
	movw	r0, :lower16:ancestor_signal
	mov	r1, r7
	movt	r0, :upper16:ancestor_signal
	mov	r2, r6
	ldr	r3, [r0]
	mov	r0, r5
	blx	r3
	mov	r9, r0
.Ltmp51:
	@DEBUG_VALUE: lv_table_signal:res <- $r9
	.loc	10 1029 8                       @ lvgl/src/lv_widgets/lv_table.c:1029:8
	cmp	r0, #1
	bne	.LBB1_21
.Ltmp52:
@ %bb.4:
	@DEBUG_VALUE: lv_table_signal:res <- $r9
	@DEBUG_VALUE: lv_table_signal:sign <- $r7
	@DEBUG_VALUE: lv_table_signal:param <- $r6
	@DEBUG_VALUE: lv_table_signal:table <- $r5
	.loc	10 1030 8                       @ lvgl/src/lv_widgets/lv_table.c:1030:8
	cbz	r7, .LBB1_9
.Ltmp53:
@ %bb.5:
	@DEBUG_VALUE: lv_table_signal:res <- $r9
	@DEBUG_VALUE: lv_table_signal:sign <- $r7
	@DEBUG_VALUE: lv_table_signal:param <- $r6
	@DEBUG_VALUE: lv_table_signal:table <- $r5
	cmp	r7, #4
	beq	.LBB1_14
.Ltmp54:
@ %bb.6:
	@DEBUG_VALUE: lv_table_signal:res <- $r9
	@DEBUG_VALUE: lv_table_signal:sign <- $r7
	@DEBUG_VALUE: lv_table_signal:param <- $r6
	@DEBUG_VALUE: lv_table_signal:table <- $r5
	cmp	r7, #7
	bne	.LBB1_21
.Ltmp55:
@ %bb.7:
	@DEBUG_VALUE: lv_table_signal:res <- $r9
	@DEBUG_VALUE: lv_table_signal:sign <- $r7
	@DEBUG_VALUE: lv_table_signal:param <- $r6
	@DEBUG_VALUE: lv_table_signal:table <- $r5
	.loc	10 1030 43 is_stmt 0            @ lvgl/src/lv_widgets/lv_table.c:1030:43
	adr	r1, .LCPI1_0
	mov	r0, r6
	bl	lv_obj_handle_get_type_signal
	mov	r9, r0
.Ltmp56:
	.loc	10 1030 36                      @ lvgl/src/lv_widgets/lv_table.c:1030:36
	b	.LBB1_21
.Ltmp57:
.LBB1_8:
	@DEBUG_VALUE: lv_table_signal:sign <- $r7
	@DEBUG_VALUE: info <- $r6
	@DEBUG_VALUE: lv_table_signal:param <- $r6
	@DEBUG_VALUE: lv_table_signal:table <- $r5
	.loc	10 1024 21 is_stmt 1            @ lvgl/src/lv_widgets/lv_table.c:1024:21
	movw	r0, :lower16:ancestor_signal
	mov	r1, r7
	movt	r0, :upper16:ancestor_signal
	mov	r2, r6
	ldr	r3, [r0]
	mov	r0, r5
	blx	r3
	mov	r9, r0
	.loc	10 1024 14 is_stmt 0            @ lvgl/src/lv_widgets/lv_table.c:1024:14
	b	.LBB1_21
.Ltmp58:
.LBB1_9:
	@DEBUG_VALUE: lv_table_signal:res <- $r9
	@DEBUG_VALUE: lv_table_signal:sign <- $r7
	@DEBUG_VALUE: lv_table_signal:param <- $r6
	@DEBUG_VALUE: lv_table_signal:table <- $r5
	.loc	10 1034 32 is_stmt 1            @ lvgl/src/lv_widgets/lv_table.c:1034:32
	mov	r0, r5
	bl	lv_obj_get_ext_attr
	mov	r6, r0
.Ltmp59:
	@DEBUG_VALUE: lv_table_signal:param <- [DW_OP_LLVM_entry_value 1] $r2
	@DEBUG_VALUE: i <- 0
	@DEBUG_VALUE: ext <- $r6
	.loc	10 1036 29                      @ lvgl/src/lv_widgets/lv_table.c:1036:29
	ldrh	r0, [r0]
	.loc	10 1036 44 is_stmt 0            @ lvgl/src/lv_widgets/lv_table.c:1036:44
	ldrh	r1, [r6, #2]
	.loc	10 1036 37                      @ lvgl/src/lv_widgets/lv_table.c:1036:37
	muls	r0, r1, r0
.Ltmp60:
	.loc	10 1036 9                       @ lvgl/src/lv_widgets/lv_table.c:1036:9
	cbz	r0, .LBB1_15
.Ltmp61:
@ %bb.10:
	@DEBUG_VALUE: lv_table_signal:res <- $r9
	@DEBUG_VALUE: lv_table_signal:sign <- $r7
	@DEBUG_VALUE: ext <- $r6
	@DEBUG_VALUE: lv_table_signal:table <- $r5
	@DEBUG_VALUE: i <- 0
	@DEBUG_VALUE: lv_table_signal:param <- [DW_OP_LLVM_entry_value 1] $r2
	.loc	10 0 9                          @ lvgl/src/lv_widgets/lv_table.c:0:9
	mov.w	r8, #0
	movs	r4, #0
	movs	r7, #0
.Ltmp62:
	@DEBUG_VALUE: lv_table_signal:sign <- [DW_OP_LLVM_entry_value 1] $r1
	b	.LBB1_12
.Ltmp63:
	.p2align	2
.LBB1_11:                               @   in Loop: Header=BB1_12 Depth=1
	@DEBUG_VALUE: lv_table_signal:res <- $r9
	@DEBUG_VALUE: i <- $r7
	@DEBUG_VALUE: ext <- $r6
	@DEBUG_VALUE: lv_table_signal:table <- $r5
	@DEBUG_VALUE: lv_table_signal:sign <- [DW_OP_LLVM_entry_value 1] $r1
	@DEBUG_VALUE: lv_table_signal:param <- [DW_OP_LLVM_entry_value 1] $r2
	.loc	10 1036 29                      @ lvgl/src/lv_widgets/lv_table.c:1036:29
	ldrh	r0, [r6]
	.loc	10 1036 54                      @ lvgl/src/lv_widgets/lv_table.c:1036:54
	adds	r7, #1
.Ltmp64:
	@DEBUG_VALUE: i <- $r7
	.loc	10 1036 20                      @ lvgl/src/lv_widgets/lv_table.c:1036:20
	uxth	r4, r7
	.loc	10 1036 44                      @ lvgl/src/lv_widgets/lv_table.c:1036:44
	ldrh	r1, [r6, #2]
	.loc	10 1036 37                      @ lvgl/src/lv_widgets/lv_table.c:1036:37
	muls	r0, r1, r0
.Ltmp65:
	.loc	10 1036 9                       @ lvgl/src/lv_widgets/lv_table.c:1036:9
	cmp	r0, r4
	bls	.LBB1_15
.Ltmp66:
.LBB1_12:                               @ =>This Inner Loop Header: Depth=1
	@DEBUG_VALUE: lv_table_signal:res <- $r9
	@DEBUG_VALUE: ext <- $r6
	@DEBUG_VALUE: lv_table_signal:table <- $r5
	@DEBUG_VALUE: lv_table_signal:sign <- [DW_OP_LLVM_entry_value 1] $r1
	@DEBUG_VALUE: lv_table_signal:param <- [DW_OP_LLVM_entry_value 1] $r2
	@DEBUG_VALUE: i <- $r7
	.loc	10 1037 21 is_stmt 1            @ lvgl/src/lv_widgets/lv_table.c:1037:21
	ldr	r0, [r6, #4]
	.loc	10 1037 16 is_stmt 0            @ lvgl/src/lv_widgets/lv_table.c:1037:16
	ldr.w	r0, [r0, r4, lsl #2]
.Ltmp67:
	.loc	10 1037 16                      @ lvgl/src/lv_widgets/lv_table.c:1037:16
	cmp	r0, #0
	beq	.LBB1_11
.Ltmp68:
@ %bb.13:                               @   in Loop: Header=BB1_12 Depth=1
	@DEBUG_VALUE: lv_table_signal:res <- $r9
	@DEBUG_VALUE: i <- $r7
	@DEBUG_VALUE: ext <- $r6
	@DEBUG_VALUE: lv_table_signal:table <- $r5
	@DEBUG_VALUE: lv_table_signal:sign <- [DW_OP_LLVM_entry_value 1] $r1
	@DEBUG_VALUE: lv_table_signal:param <- [DW_OP_LLVM_entry_value 1] $r2
	.loc	10 1038 17 is_stmt 1            @ lvgl/src/lv_widgets/lv_table.c:1038:17
	bl	lv_mem_free
	.loc	10 1039 22                      @ lvgl/src/lv_widgets/lv_table.c:1039:22
	ldr	r0, [r6, #4]
	.loc	10 1039 35 is_stmt 0            @ lvgl/src/lv_widgets/lv_table.c:1039:35
	str.w	r8, [r0, r4, lsl #2]
	b	.LBB1_11
.Ltmp69:
.LBB1_14:
	@DEBUG_VALUE: lv_table_signal:res <- $r9
	@DEBUG_VALUE: lv_table_signal:sign <- $r7
	@DEBUG_VALUE: lv_table_signal:param <- $r6
	@DEBUG_VALUE: lv_table_signal:table <- $r5
	.loc	10 1051 9 is_stmt 1             @ lvgl/src/lv_widgets/lv_table.c:1051:9
	mov	r0, r5
	bl	refr_size
	b	.LBB1_21
.Ltmp70:
.LBB1_15:
	@DEBUG_VALUE: lv_table_signal:res <- $r9
	@DEBUG_VALUE: ext <- $r6
	@DEBUG_VALUE: lv_table_signal:table <- $r5
	@DEBUG_VALUE: lv_table_signal:param <- [DW_OP_LLVM_entry_value 1] $r2
	.loc	10 1043 17                      @ lvgl/src/lv_widgets/lv_table.c:1043:17
	ldr	r0, [r6, #4]
.Ltmp71:
	.loc	10 1043 12 is_stmt 0            @ lvgl/src/lv_widgets/lv_table.c:1043:12
	cbz	r0, .LBB1_17
.Ltmp72:
@ %bb.16:
	@DEBUG_VALUE: lv_table_signal:res <- $r9
	@DEBUG_VALUE: ext <- $r6
	@DEBUG_VALUE: lv_table_signal:table <- $r5
	@DEBUG_VALUE: lv_table_signal:param <- [DW_OP_LLVM_entry_value 1] $r2
	.loc	10 1043 28                      @ lvgl/src/lv_widgets/lv_table.c:1043:28
	bl	lv_mem_free
.Ltmp73:
.LBB1_17:
	@DEBUG_VALUE: lv_table_signal:res <- $r9
	@DEBUG_VALUE: ext <- $r6
	@DEBUG_VALUE: lv_table_signal:table <- $r5
	@DEBUG_VALUE: lv_table_signal:param <- [DW_OP_LLVM_entry_value 1] $r2
	.loc	10 1044 17 is_stmt 1            @ lvgl/src/lv_widgets/lv_table.c:1044:17
	ldr	r0, [r6, #8]
.Ltmp74:
	.loc	10 1044 12 is_stmt 0            @ lvgl/src/lv_widgets/lv_table.c:1044:12
	cbz	r0, .LBB1_19
.Ltmp75:
@ %bb.18:
	@DEBUG_VALUE: lv_table_signal:res <- $r9
	@DEBUG_VALUE: ext <- $r6
	@DEBUG_VALUE: lv_table_signal:table <- $r5
	@DEBUG_VALUE: lv_table_signal:param <- [DW_OP_LLVM_entry_value 1] $r2
	.loc	10 1044 24                      @ lvgl/src/lv_widgets/lv_table.c:1044:24
	bl	lv_mem_free
.Ltmp76:
.LBB1_19:
	@DEBUG_VALUE: lv_table_signal:res <- $r9
	@DEBUG_VALUE: ext <- $r6
	@DEBUG_VALUE: lv_table_signal:table <- $r5
	@DEBUG_VALUE: lv_table_signal:param <- [DW_OP_LLVM_entry_value 1] $r2
	.loc	10 0 24                         @ lvgl/src/lv_widgets/lv_table.c:0:24
	movs	r4, #0
.Ltmp77:
	.p2align	2
.LBB1_20:                               @ =>This Inner Loop Header: Depth=1
	@DEBUG_VALUE: lv_table_signal:res <- $r9
	@DEBUG_VALUE: lv_table_signal:table <- $r5
	@DEBUG_VALUE: lv_table_signal:param <- [DW_OP_LLVM_entry_value 1] $r2
	@DEBUG_VALUE: i <- $r4
	.loc	10 1046 20 is_stmt 1            @ lvgl/src/lv_widgets/lv_table.c:1046:20
	uxth	r6, r4
.Ltmp78:
	.loc	10 1047 64                      @ lvgl/src/lv_widgets/lv_table.c:1047:64
	adds	r4, #1
.Ltmp79:
	@DEBUG_VALUE: i <- $r4
	.loc	10 1047 13 is_stmt 0            @ lvgl/src/lv_widgets/lv_table.c:1047:13
	uxtb	r1, r4
	mov	r0, r5
	bl	lv_obj_clean_style_list
.Ltmp80:
	.loc	10 1046 9 is_stmt 1             @ lvgl/src/lv_widgets/lv_table.c:1046:9
	cmp	r6, #3
	blo	.LBB1_20
.Ltmp81:
.LBB1_21:
	@DEBUG_VALUE: lv_table_signal:table <- $r5
	.loc	10 1055 1                       @ lvgl/src/lv_widgets/lv_table.c:1055:1
	mov	r0, r9
	add	sp, #4
	pop.w	{r4, r5, r6, r7, r8, r9, pc}
.Ltmp82:
	.p2align	2
@ %bb.22:
	.loc	10 0 1 is_stmt 0                @ lvgl/src/lv_widgets/lv_table.c:0:1
.LCPI1_0:
.L.str.3:
	.asciz	"lv_table\000\000\000"
.Lfunc_end1:
	.size	lv_table_signal, .Lfunc_end1-lv_table_signal
	.cfi_endproc
	.cantunwind
	.fnend
                                        @ -- End function
	.section	.text.lv_table_design,"ax",%progbits
	.p2align	3                               @ -- Begin function lv_table_design
	.type	lv_table_design,%function
	.code	16                              @ @lv_table_design
	.thumb_func
lv_table_design:
.Lfunc_begin2:
	.loc	10 801 0 is_stmt 1              @ lvgl/src/lv_widgets/lv_table.c:801:0
	.fnstart
	.cfi_startproc
@ %bb.0:
	@DEBUG_VALUE: lv_table_design:table <- $r0
	@DEBUG_VALUE: lv_table_design:clip_area <- $r1
	@DEBUG_VALUE: lv_table_design:mode <- $r2
	@DEBUG_VALUE: lv_table_design:mode <- $r2
	.save	{r4, r5, r6, r7, r8, r9, r10, r11, lr}
	push.w	{r4, r5, r6, r7, r8, r9, r10, r11, lr}
	.cfi_def_cfa_offset 36
	.cfi_offset lr, -4
	.cfi_offset r11, -8
	.cfi_offset r10, -12
	.cfi_offset r9, -16
	.cfi_offset r8, -20
	.cfi_offset r7, -24
	.cfi_offset r6, -28
	.cfi_offset r5, -32
	.cfi_offset r4, -36
	.pad	#812
	sub.w	sp, sp, #812
	.cfi_def_cfa_offset 848
	mov	r4, r0
.Ltmp83:
	@DEBUG_VALUE: lv_table_design:table <- $r4
	@DEBUG_VALUE: lv_table_design:table <- $r4
	str	r1, [sp, #108]                  @ 4-byte Spill
.Ltmp84:
	@DEBUG_VALUE: lv_table_design:clip_area <- [DW_OP_plus_uconst 108] [$sp+0]
	@DEBUG_VALUE: lv_table_design:clip_area <- [DW_OP_plus_uconst 108] [$sp+0]
	.loc	10 803 8 prologue_end           @ lvgl/src/lv_widgets/lv_table.c:803:8
	cbz	r2, .LBB2_4
.Ltmp85:
@ %bb.1:
	@DEBUG_VALUE: lv_table_design:table <- $r4
	@DEBUG_VALUE: lv_table_design:mode <- $r2
	@DEBUG_VALUE: lv_table_design:clip_area <- [DW_OP_plus_uconst 108] [$sp+0]
	cmp	r2, #1
	beq.w	.LBB2_8
.Ltmp86:
@ %bb.2:
	@DEBUG_VALUE: lv_table_design:table <- $r4
	@DEBUG_VALUE: lv_table_design:mode <- $r2
	@DEBUG_VALUE: lv_table_design:clip_area <- [DW_OP_plus_uconst 108] [$sp+0]
	cmp	r2, #2
	bne.w	.LBB2_66
.Ltmp87:
@ %bb.3:
	@DEBUG_VALUE: lv_table_design:table <- $r4
	@DEBUG_VALUE: lv_table_design:mode <- $r2
	@DEBUG_VALUE: lv_table_design:clip_area <- [DW_OP_plus_uconst 108] [$sp+0]
	.loc	10 804 16                       @ lvgl/src/lv_widgets/lv_table.c:804:16
	movw	r0, :lower16:ancestor_design
	ldr	r1, [sp, #108]                  @ 4-byte Reload
	movt	r0, :upper16:ancestor_design
	ldr	r3, [r0]
	mov	r0, r4
	blx	r3
.Ltmp88:
	@DEBUG_VALUE: lv_table_design:mode <- [DW_OP_LLVM_entry_value 1] $r2
	.loc	10 1008 1                       @ lvgl/src/lv_widgets/lv_table.c:1008:1
	add.w	sp, sp, #812
	pop.w	{r4, r5, r6, r7, r8, r9, r10, r11, pc}
.Ltmp89:
.LBB2_4:
	@DEBUG_VALUE: lv_table_design:table <- $r4
	@DEBUG_VALUE: lv_table_design:mode <- $r2
	@DEBUG_VALUE: lv_table_design:clip_area <- [DW_OP_plus_uconst 108] [$sp+0]
	.loc	10 809 9                        @ lvgl/src/lv_widgets/lv_table.c:809:9
	movw	r0, :lower16:ancestor_design
	ldr	r1, [sp, #108]                  @ 4-byte Reload
	movt	r0, :upper16:ancestor_design
	ldr	r3, [r0]
	mov	r0, r4
	blx	r3
.Ltmp90:
	@DEBUG_VALUE: lv_table_design:mode <- [DW_OP_LLVM_entry_value 1] $r2
	.loc	10 811 39                       @ lvgl/src/lv_widgets/lv_table.c:811:39
	mov	r0, r4
	bl	lv_obj_get_ext_attr
	str	r0, [sp, #100]                  @ 4-byte Spill
.Ltmp91:
	@DEBUG_VALUE: ext <- [DW_OP_plus_uconst 100] [$sp+0]
	.loc	10 818 33                       @ lvgl/src/lv_widgets/lv_table.c:818:33
	movs	r1, #0
	mov	r0, r4
	movs	r6, #0
	bl	lv_obj_get_style_pad_top
	str	r0, [sp, #44]                   @ 4-byte Spill
.Ltmp92:
	@DEBUG_VALUE: bg_top <- undef
	.loc	10 819 36                       @ lvgl/src/lv_widgets/lv_table.c:819:36
	movs	r1, #0
	mov	r0, r4
	bl	lv_obj_get_style_pad_bottom
	str	r0, [sp, #104]                  @ 4-byte Spill
.Ltmp93:
	@DEBUG_VALUE: bg_bottom <- undef
	.loc	10 820 34                       @ lvgl/src/lv_widgets/lv_table.c:820:34
	movs	r1, #0
	mov	r0, r4
	bl	lv_obj_get_style_pad_left
	str	r0, [sp, #40]                   @ 4-byte Spill
.Ltmp94:
	@DEBUG_VALUE: bg_left <- undef
	.loc	10 821 35                       @ lvgl/src/lv_widgets/lv_table.c:821:35
	movs	r1, #0
	mov	r0, r4
	str	r4, [sp, #68]                   @ 4-byte Spill
.Ltmp95:
	@DEBUG_VALUE: lv_table_design:table <- [DW_OP_plus_uconst 68] [$sp+0]
	bl	lv_obj_get_style_pad_right
	mov	r11, r0
.Ltmp96:
	@DEBUG_VALUE: bg_right <- undef
	.loc	10 0 35 is_stmt 0               @ lvgl/src/lv_widgets/lv_table.c:0:35
	add	r4, sp, #376
	add.w	r9, sp, #216
	add.w	r10, sp, #168
.Ltmp97:
	@DEBUG_VALUE: i <- 0
	mov.w	r8, #0
	ldr	r5, [sp, #68]                   @ 4-byte Reload
.Ltmp98:
	@DEBUG_VALUE: lv_table_design:table <- $r5
	b	.LBB2_6
.Ltmp99:
	.p2align	2
.LBB2_5:                                @   in Loop: Header=BB2_6 Depth=1
	@DEBUG_VALUE: i <- $r6
	@DEBUG_VALUE: lv_table_design:table <- $r5
	@DEBUG_VALUE: ext <- [DW_OP_plus_uconst 100] [$sp+0]
	@DEBUG_VALUE: lv_table_design:clip_area <- [DW_OP_plus_uconst 108] [$sp+0]
	@DEBUG_VALUE: lv_table_design:mode <- [DW_OP_LLVM_entry_value 1] $r2
	.loc	10 832 50 is_stmt 1             @ lvgl/src/lv_widgets/lv_table.c:832:50
	adds	r6, #1
.Ltmp100:
	add.w	r8, r8, #1
.Ltmp101:
	@DEBUG_VALUE: i <- $r6
	.loc	10 832 22 is_stmt 0             @ lvgl/src/lv_widgets/lv_table.c:832:22
	adds	r4, #104
.Ltmp102:
	.loc	10 832 9                        @ lvgl/src/lv_widgets/lv_table.c:832:9
	cmp	r6, #4
.Ltmp103:
	.loc	10 832 22                       @ lvgl/src/lv_widgets/lv_table.c:832:22
	add.w	r9, r9, #40
	add.w	r10, r10, #12
.Ltmp104:
	.loc	10 832 9                        @ lvgl/src/lv_widgets/lv_table.c:832:9
	beq	.LBB2_9
.Ltmp105:
.LBB2_6:                                @ =>This Inner Loop Header: Depth=1
	@DEBUG_VALUE: lv_table_design:table <- $r5
	@DEBUG_VALUE: ext <- [DW_OP_plus_uconst 100] [$sp+0]
	@DEBUG_VALUE: lv_table_design:clip_area <- [DW_OP_plus_uconst 108] [$sp+0]
	@DEBUG_VALUE: lv_table_design:mode <- [DW_OP_LLVM_entry_value 1] $r2
	@DEBUG_VALUE: i <- $r6
	.loc	10 833 22 is_stmt 1             @ lvgl/src/lv_widgets/lv_table.c:833:22
	ldr	r0, [sp, #100]                  @ 4-byte Reload
	ldrb.w	r0, [r0, #68]
	.loc	10 833 17 is_stmt 0             @ lvgl/src/lv_widgets/lv_table.c:833:17
	and	r0, r0, #15
.Ltmp106:
	.loc	10 833 16                       @ lvgl/src/lv_widgets/lv_table.c:833:16
	lsrs	r0, r6
	lsls	r0, r0, #31
	beq	.LBB2_5
.Ltmp107:
@ %bb.7:                                @   in Loop: Header=BB2_6 Depth=1
	@DEBUG_VALUE: i <- $r6
	@DEBUG_VALUE: lv_table_design:table <- $r5
	@DEBUG_VALUE: ext <- [DW_OP_plus_uconst 100] [$sp+0]
	@DEBUG_VALUE: lv_table_design:clip_area <- [DW_OP_plus_uconst 108] [$sp+0]
	@DEBUG_VALUE: lv_table_design:mode <- [DW_OP_LLVM_entry_value 1] $r2
	.loc	10 834 13 is_stmt 1             @ lvgl/src/lv_widgets/lv_table.c:834:13
	mov	r0, r4
	bl	lv_draw_rect_dsc_init
	.loc	10 835 46                       @ lvgl/src/lv_widgets/lv_table.c:835:46
	add.w	r0, r8, #1
	.loc	10 835 13 is_stmt 0             @ lvgl/src/lv_widgets/lv_table.c:835:13
	mov	r2, r4
	uxtb	r7, r0
	mov	r0, r5
	mov	r1, r7
	bl	lv_obj_init_draw_rect_dsc
	.loc	10 837 13 is_stmt 1             @ lvgl/src/lv_widgets/lv_table.c:837:13
	mov	r0, r9
	bl	lv_draw_label_dsc_init
	.loc	10 838 13                       @ lvgl/src/lv_widgets/lv_table.c:838:13
	mov	r0, r5
	mov	r1, r7
	mov	r2, r9
	bl	lv_obj_init_draw_label_dsc
	.loc	10 840 13                       @ lvgl/src/lv_widgets/lv_table.c:840:13
	mov	r0, r10
	bl	lv_draw_line_dsc_init
	.loc	10 841 13                       @ lvgl/src/lv_widgets/lv_table.c:841:13
	mov	r0, r5
	mov	r1, r7
	mov	r2, r10
	bl	lv_obj_init_draw_line_dsc
	.loc	10 843 28                       @ lvgl/src/lv_widgets/lv_table.c:843:28
	mov	r0, r5
	mov	r1, r7
	bl	lv_obj_get_style_pad_left
	.loc	10 843 26 is_stmt 0             @ lvgl/src/lv_widgets/lv_table.c:843:26
	add	r1, sp, #160
	strh.w	r0, [r1, r6, lsl #1]
	.loc	10 844 29 is_stmt 1             @ lvgl/src/lv_widgets/lv_table.c:844:29
	mov	r0, r5
	mov	r1, r7
	bl	lv_obj_get_style_pad_right
	.loc	10 844 27 is_stmt 0             @ lvgl/src/lv_widgets/lv_table.c:844:27
	add	r1, sp, #152
	strh.w	r0, [r1, r6, lsl #1]
	.loc	10 845 27 is_stmt 1             @ lvgl/src/lv_widgets/lv_table.c:845:27
	mov	r0, r5
	mov	r1, r7
	bl	lv_obj_get_style_pad_top
	.loc	10 845 25 is_stmt 0             @ lvgl/src/lv_widgets/lv_table.c:845:25
	add	r1, sp, #144
	strh.w	r0, [r1, r6, lsl #1]
	.loc	10 846 30 is_stmt 1             @ lvgl/src/lv_widgets/lv_table.c:846:30
	mov	r0, r5
	mov	r1, r7
	bl	lv_obj_get_style_pad_bottom
	.loc	10 846 28 is_stmt 0             @ lvgl/src/lv_widgets/lv_table.c:846:28
	add	r1, sp, #136
	strh.w	r0, [r1, r6, lsl #1]
	b	.LBB2_5
.Ltmp108:
.LBB2_8:
	@DEBUG_VALUE: lv_table_design:table <- $r4
	@DEBUG_VALUE: lv_table_design:mode <- $r2
	@DEBUG_VALUE: lv_table_design:clip_area <- [DW_OP_plus_uconst 108] [$sp+0]
	.loc	10 1004 9 is_stmt 1             @ lvgl/src/lv_widgets/lv_table.c:1004:9
	movw	r0, :lower16:ancestor_design
	ldr	r1, [sp, #108]                  @ 4-byte Reload
	movt	r0, :upper16:ancestor_design
	ldr	r3, [r0]
	mov	r0, r4
	blx	r3
.Ltmp109:
	@DEBUG_VALUE: lv_table_design:mode <- [DW_OP_LLVM_entry_value 1] $r2
	.loc	10 0 9 is_stmt 0                @ lvgl/src/lv_widgets/lv_table.c:0:9
	b	.LBB2_66
.Ltmp110:
.LBB2_9:
	@DEBUG_VALUE: i <- $r6
	@DEBUG_VALUE: lv_table_design:table <- $r5
	@DEBUG_VALUE: ext <- [DW_OP_plus_uconst 100] [$sp+0]
	@DEBUG_VALUE: lv_table_design:clip_area <- [DW_OP_plus_uconst 108] [$sp+0]
	@DEBUG_VALUE: lv_table_design:mode <- [DW_OP_LLVM_entry_value 1] $r2
	@DEBUG_VALUE: cell <- 0
	ldr	r4, [sp, #68]                   @ 4-byte Reload
.Ltmp111:
	.loc	10 853 20 is_stmt 1             @ lvgl/src/lv_widgets/lv_table.c:853:20
	mov	r0, r4
	bl	lv_obj_get_base_dir
	.loc	10 855 38                       @ lvgl/src/lv_widgets/lv_table.c:855:38
	ldrh	r1, [r4, #18]
	.loc	10 855 41 is_stmt 0             @ lvgl/src/lv_widgets/lv_table.c:855:41
	ldr	r2, [sp, #44]                   @ 4-byte Reload
	ldr.w	r8, [sp, #100]                  @ 4-byte Reload
	.loc	10 853 20 is_stmt 1             @ lvgl/src/lv_widgets/lv_table.c:853:20
	str	r0, [sp, #84]                   @ 4-byte Spill
.Ltmp112:
	@DEBUG_VALUE: rtl <- [DW_OP_LLVM_convert 1 7, DW_OP_LLVM_convert 8 7, DW_OP_stack_value] undef
	.loc	10 855 41                       @ lvgl/src/lv_widgets/lv_table.c:855:41
	add	r1, r2
	.loc	10 855 50 is_stmt 0             @ lvgl/src/lv_widgets/lv_table.c:855:50
	subs	r1, #1
	.loc	10 855 22                       @ lvgl/src/lv_widgets/lv_table.c:855:22
	strh.w	r1, [sp, #806]
	@DEBUG_VALUE: format <- undef
.Ltmp113:
	@DEBUG_VALUE: row <- 0
	.loc	10 856 33 is_stmt 1             @ lvgl/src/lv_widgets/lv_table.c:856:33
	ldrh.w	r1, [r8, #2]
.Ltmp114:
	.loc	10 856 9 is_stmt 0              @ lvgl/src/lv_widgets/lv_table.c:856:9
	cmp	r1, #0
	beq.w	.LBB2_66
.Ltmp115:
@ %bb.10:
	@DEBUG_VALUE: i <- $r6
	@DEBUG_VALUE: lv_table_design:table <- $r5
	@DEBUG_VALUE: ext <- [DW_OP_plus_uconst 100] [$sp+0]
	@DEBUG_VALUE: lv_table_design:clip_area <- [DW_OP_plus_uconst 108] [$sp+0]
	@DEBUG_VALUE: row <- 0
	@DEBUG_VALUE: cell <- 0
	@DEBUG_VALUE: lv_table_design:mode <- [DW_OP_LLVM_entry_value 1] $r2
	.loc	10 0 9                          @ lvgl/src/lv_widgets/lv_table.c:0:9
	ldr	r0, [sp, #40]                   @ 4-byte Reload
	add.w	r9, r8, #44
	subs	r0, #1
	str	r0, [sp, #16]                   @ 4-byte Spill
	mvn.w	r0, r11
	str	r0, [sp, #48]                   @ 4-byte Spill
	ldr	r0, [sp, #104]                  @ 4-byte Reload
	add.w	r10, sp, #128
	mvns	r0, r0
	str	r0, [sp, #36]                   @ 4-byte Spill
	add.w	r11, sp, #800
	movs	r2, #0
	mov.w	r12, #0
	.loc	10 856 9                        @ lvgl/src/lv_widgets/lv_table.c:856:9
	str.w	r9, [sp, #52]                   @ 4-byte Spill
.Ltmp116:
	.p2align	2
.LBB2_11:                               @ =>This Loop Header: Depth=1
                                        @     Child Loop BB2_19 Depth 2
                                        @       Child Loop BB2_28 Depth 3
                                        @       Child Loop BB2_61 Depth 3
	@DEBUG_VALUE: ext <- [DW_OP_plus_uconst 100] [$sp+0]
	@DEBUG_VALUE: lv_table_design:clip_area <- [DW_OP_plus_uconst 108] [$sp+0]
	@DEBUG_VALUE: lv_table_design:mode <- [DW_OP_LLVM_entry_value 1] $r2
	@DEBUG_VALUE: cell <- $r12
	@DEBUG_VALUE: row <- $r2
	.loc	10 857 37 is_stmt 1             @ lvgl/src/lv_widgets/lv_table.c:857:37
	ldr.w	r0, [r8, #8]
	.loc	10 859 38                       @ lvgl/src/lv_widgets/lv_table.c:859:38
	ldrh.w	r1, [sp, #806]
.Ltmp117:
	.loc	10 862 42                       @ lvgl/src/lv_widgets/lv_table.c:862:42
	ldr	r3, [sp, #108]                  @ 4-byte Reload
	str	r2, [sp, #20]                   @ 4-byte Spill
.Ltmp118:
	@DEBUG_VALUE: row <- [DW_OP_plus_uconst 20] [$sp+0]
	.loc	10 857 32                       @ lvgl/src/lv_widgets/lv_table.c:857:32
	ldrh.w	r0, [r0, r2, lsl #1]
.Ltmp119:
	@DEBUG_VALUE: h_row <- $r0
	.loc	10 859 41                       @ lvgl/src/lv_widgets/lv_table.c:859:41
	adds	r2, r1, #1
	sxth	r7, r2
.Ltmp120:
	.loc	10 862 42                       @ lvgl/src/lv_widgets/lv_table.c:862:42
	ldrsh.w	r3, [r3, #6]
.Ltmp121:
	.loc	10 859 26                       @ lvgl/src/lv_widgets/lv_table.c:859:26
	strh.w	r2, [sp, #802]
	.loc	10 860 49                       @ lvgl/src/lv_widgets/lv_table.c:860:49
	add	r1, r0
	.loc	10 862 16                       @ lvgl/src/lv_widgets/lv_table.c:862:16
	cmp	r7, r3
	.loc	10 860 26                       @ lvgl/src/lv_widgets/lv_table.c:860:26
	strh.w	r1, [sp, #806]
	strd	r7, r3, [sp, #24]               @ 8-byte Folded Spill
	.loc	10 862 16                       @ lvgl/src/lv_widgets/lv_table.c:862:16
	bgt.w	.LBB2_64
.Ltmp122:
@ %bb.12:                               @   in Loop: Header=BB2_11 Depth=1
	@DEBUG_VALUE: cell <- $r12
	@DEBUG_VALUE: h_row <- $r0
	@DEBUG_VALUE: row <- [DW_OP_plus_uconst 20] [$sp+0]
	@DEBUG_VALUE: ext <- [DW_OP_plus_uconst 100] [$sp+0]
	@DEBUG_VALUE: lv_table_design:clip_area <- [DW_OP_plus_uconst 108] [$sp+0]
	@DEBUG_VALUE: lv_table_design:mode <- [DW_OP_LLVM_entry_value 1] $r2
	.loc	10 864 16                       @ lvgl/src/lv_widgets/lv_table.c:864:16
	ldr	r1, [sp, #84]                   @ 4-byte Reload
	cmp	r1, #1
	bne	.LBB2_14
.Ltmp123:
@ %bb.13:                               @   in Loop: Header=BB2_11 Depth=1
	@DEBUG_VALUE: cell <- $r12
	@DEBUG_VALUE: h_row <- $r0
	@DEBUG_VALUE: row <- [DW_OP_plus_uconst 20] [$sp+0]
	@DEBUG_VALUE: ext <- [DW_OP_plus_uconst 100] [$sp+0]
	@DEBUG_VALUE: lv_table_design:clip_area <- [DW_OP_plus_uconst 108] [$sp+0]
	@DEBUG_VALUE: lv_table_design:mode <- [DW_OP_LLVM_entry_value 1] $r2
	.loc	10 864 50 is_stmt 0             @ lvgl/src/lv_widgets/lv_table.c:864:50
	ldr	r1, [sp, #68]                   @ 4-byte Reload
	.loc	10 864 64                       @ lvgl/src/lv_widgets/lv_table.c:864:64
	ldr	r2, [sp, #48]                   @ 4-byte Reload
	.loc	10 864 50                       @ lvgl/src/lv_widgets/lv_table.c:864:50
	ldrh	r1, [r1, #20]
	.loc	10 864 64                       @ lvgl/src/lv_widgets/lv_table.c:864:64
	add	r1, r2
	.loc	10 864 34                       @ lvgl/src/lv_widgets/lv_table.c:864:34
	strh.w	r1, [sp, #800]
	b	.LBB2_15
.Ltmp124:
	.p2align	2
.LBB2_14:                               @   in Loop: Header=BB2_11 Depth=1
	@DEBUG_VALUE: cell <- $r12
	@DEBUG_VALUE: h_row <- $r0
	@DEBUG_VALUE: row <- [DW_OP_plus_uconst 20] [$sp+0]
	@DEBUG_VALUE: ext <- [DW_OP_plus_uconst 100] [$sp+0]
	@DEBUG_VALUE: lv_table_design:clip_area <- [DW_OP_plus_uconst 108] [$sp+0]
	@DEBUG_VALUE: lv_table_design:mode <- [DW_OP_LLVM_entry_value 1] $r2
	.loc	10 865 47 is_stmt 1             @ lvgl/src/lv_widgets/lv_table.c:865:47
	ldr	r1, [sp, #68]                   @ 4-byte Reload
	.loc	10 865 60 is_stmt 0             @ lvgl/src/lv_widgets/lv_table.c:865:60
	ldr	r2, [sp, #16]                   @ 4-byte Reload
	.loc	10 865 47                       @ lvgl/src/lv_widgets/lv_table.c:865:47
	ldrh	r1, [r1, #16]
	.loc	10 865 60                       @ lvgl/src/lv_widgets/lv_table.c:865:60
	add	r1, r2
	.loc	10 865 31                       @ lvgl/src/lv_widgets/lv_table.c:865:31
	strh.w	r1, [sp, #804]
.Ltmp125:
.LBB2_15:                               @   in Loop: Header=BB2_11 Depth=1
	@DEBUG_VALUE: cell <- $r12
	@DEBUG_VALUE: h_row <- $r0
	@DEBUG_VALUE: row <- [DW_OP_plus_uconst 20] [$sp+0]
	@DEBUG_VALUE: ext <- [DW_OP_plus_uconst 100] [$sp+0]
	@DEBUG_VALUE: lv_table_design:clip_area <- [DW_OP_plus_uconst 108] [$sp+0]
	@DEBUG_VALUE: lv_table_design:mode <- [DW_OP_LLVM_entry_value 1] $r2
	@DEBUG_VALUE: cell <- $r12
	@DEBUG_VALUE: format <- undef
	@DEBUG_VALUE: col <- 0
	.loc	10 867 37 is_stmt 1             @ lvgl/src/lv_widgets/lv_table.c:867:37
	ldrh.w	r2, [r8]
.Ltmp126:
	.loc	10 867 13 is_stmt 0             @ lvgl/src/lv_widgets/lv_table.c:867:13
	cmp	r2, #0
	beq.w	.LBB2_64
.Ltmp127:
@ %bb.16:                               @   in Loop: Header=BB2_11 Depth=1
	@DEBUG_VALUE: cell <- $r12
	@DEBUG_VALUE: h_row <- $r0
	@DEBUG_VALUE: row <- [DW_OP_plus_uconst 20] [$sp+0]
	@DEBUG_VALUE: ext <- [DW_OP_plus_uconst 100] [$sp+0]
	@DEBUG_VALUE: lv_table_design:clip_area <- [DW_OP_plus_uconst 108] [$sp+0]
	@DEBUG_VALUE: col <- 0
	@DEBUG_VALUE: lv_table_design:mode <- [DW_OP_LLVM_entry_value 1] $r2
	.loc	10 0 13                         @ lvgl/src/lv_widgets/lv_table.c:0:13
	add.w	r0, r0, r0, lsr #15
.Ltmp128:
	movs	r5, #0
.Ltmp129:
	@DEBUG_VALUE: lv_table_design:table <- [DW_OP_LLVM_entry_value 1] $r0
	sxth	r0, r0
	asrs	r0, r0, #1
	str	r0, [sp, #32]                   @ 4-byte Spill
	b	.LBB2_19
.Ltmp130:
	.p2align	2
.LBB2_17:                               @   in Loop: Header=BB2_19 Depth=2
	@DEBUG_VALUE: row <- [DW_OP_plus_uconst 20] [$sp+0]
	@DEBUG_VALUE: ext <- [DW_OP_plus_uconst 100] [$sp+0]
	@DEBUG_VALUE: lv_table_design:clip_area <- [DW_OP_plus_uconst 108] [$sp+0]
	@DEBUG_VALUE: lv_table_design:mode <- [DW_OP_LLVM_entry_value 1] $r2
	@DEBUG_VALUE: cell <- undef
	@DEBUG_VALUE: col <- [DW_OP_plus_uconst 72, DW_OP_deref_size 4, DW_OP_LLVM_convert 32 7, DW_OP_LLVM_convert 16 7, DW_OP_stack_value] $sp
	add.w	r12, sp, #72
	ldm.w	r12, {r0, r4, r12}              @ 12-byte Folded Reload
.Ltmp131:
	@DEBUG_VALUE: col <- [DW_OP_LLVM_convert 32 7, DW_OP_LLVM_convert 16 7, DW_OP_stack_value] $r0
.LBB2_18:                               @   in Loop: Header=BB2_19 Depth=2
	@DEBUG_VALUE: row <- [DW_OP_plus_uconst 20] [$sp+0]
	@DEBUG_VALUE: ext <- [DW_OP_plus_uconst 100] [$sp+0]
	@DEBUG_VALUE: lv_table_design:clip_area <- [DW_OP_plus_uconst 108] [$sp+0]
	@DEBUG_VALUE: lv_table_design:mode <- [DW_OP_LLVM_entry_value 1] $r2
	.loc	10 867 49                       @ lvgl/src/lv_widgets/lv_table.c:867:49
	adds	r0, #1
.Ltmp132:
	@DEBUG_VALUE: col <- [DW_OP_plus_uconst 1, DW_OP_stack_value] undef
	@DEBUG_VALUE: format <- undef
	.loc	10 867 37                       @ lvgl/src/lv_widgets/lv_table.c:867:37
	ldrh.w	r2, [r8]
	.loc	10 867 26                       @ lvgl/src/lv_widgets/lv_table.c:867:26
	uxth	r5, r0
.Ltmp133:
	@DEBUG_VALUE: col <- undef
	.loc	10 0 0                          @ lvgl/src/lv_widgets/lv_table.c:0:0
	add.w	r1, r4, r12
.Ltmp134:
	.loc	10 867 13                       @ lvgl/src/lv_widgets/lv_table.c:867:13
	cmp	r5, r2
.Ltmp135:
	.loc	10 0 0                          @ lvgl/src/lv_widgets/lv_table.c:0:0
	add.w	r12, r1, #1
	@DEBUG_VALUE: col <- undef
.Ltmp136:
	@DEBUG_VALUE: cell <- $r12
	bhs.w	.LBB2_64
.Ltmp137:
.LBB2_19:                               @   Parent Loop BB2_11 Depth=1
                                        @ =>  This Loop Header: Depth=2
                                        @       Child Loop BB2_28 Depth 3
                                        @       Child Loop BB2_61 Depth 3
	@DEBUG_VALUE: cell <- $r12
	@DEBUG_VALUE: row <- [DW_OP_plus_uconst 20] [$sp+0]
	@DEBUG_VALUE: ext <- [DW_OP_plus_uconst 100] [$sp+0]
	@DEBUG_VALUE: lv_table_design:clip_area <- [DW_OP_plus_uconst 108] [$sp+0]
	@DEBUG_VALUE: lv_table_design:mode <- [DW_OP_LLVM_entry_value 1] $r2
	@DEBUG_VALUE: cell <- $r12
	.loc	10 870 20 is_stmt 1             @ lvgl/src/lv_widgets/lv_table.c:870:20
	uxth.w	lr, r12
	.loc	10 870 25 is_stmt 0             @ lvgl/src/lv_widgets/lv_table.c:870:25
	ldr.w	r1, [r8, #4]
	.loc	10 870 20                       @ lvgl/src/lv_widgets/lv_table.c:870:20
	ldr.w	r3, [r1, lr, lsl #2]
.Ltmp138:
	.loc	10 870 20                       @ lvgl/src/lv_widgets/lv_table.c:870:20
	cbz	r3, .LBB2_21
.Ltmp139:
@ %bb.20:                               @   in Loop: Header=BB2_19 Depth=2
	@DEBUG_VALUE: cell <- $r12
	@DEBUG_VALUE: row <- [DW_OP_plus_uconst 20] [$sp+0]
	@DEBUG_VALUE: ext <- [DW_OP_plus_uconst 100] [$sp+0]
	@DEBUG_VALUE: lv_table_design:clip_area <- [DW_OP_plus_uconst 108] [$sp+0]
	@DEBUG_VALUE: lv_table_design:mode <- [DW_OP_LLVM_entry_value 1] $r2
	.loc	10 871 42 is_stmt 1             @ lvgl/src/lv_widgets/lv_table.c:871:42
	ldrb	r7, [r3]
.Ltmp140:
	@DEBUG_VALUE: format <- undef
	.loc	10 0 42 is_stmt 0               @ lvgl/src/lv_widgets/lv_table.c:0:42
	b	.LBB2_22
.Ltmp141:
	.p2align	2
.LBB2_21:                               @   in Loop: Header=BB2_19 Depth=2
	@DEBUG_VALUE: cell <- $r12
	@DEBUG_VALUE: row <- [DW_OP_plus_uconst 20] [$sp+0]
	@DEBUG_VALUE: ext <- [DW_OP_plus_uconst 100] [$sp+0]
	@DEBUG_VALUE: lv_table_design:clip_area <- [DW_OP_plus_uconst 108] [$sp+0]
	@DEBUG_VALUE: lv_table_design:mode <- [DW_OP_LLVM_entry_value 1] $r2
	movs	r7, #128
.Ltmp142:
.LBB2_22:                               @   in Loop: Header=BB2_19 Depth=2
	@DEBUG_VALUE: cell <- $r12
	@DEBUG_VALUE: row <- [DW_OP_plus_uconst 20] [$sp+0]
	@DEBUG_VALUE: ext <- [DW_OP_plus_uconst 100] [$sp+0]
	@DEBUG_VALUE: lv_table_design:clip_area <- [DW_OP_plus_uconst 108] [$sp+0]
	@DEBUG_VALUE: lv_table_design:mode <- [DW_OP_LLVM_entry_value 1] $r2
	@DEBUG_VALUE: format <- $r7
	.loc	10 880 20 is_stmt 1             @ lvgl/src/lv_widgets/lv_table.c:880:20
	ldr	r0, [sp, #84]                   @ 4-byte Reload
	cmp	r0, #1
	bne	.LBB2_24
.Ltmp143:
@ %bb.23:                               @   in Loop: Header=BB2_19 Depth=2
	@DEBUG_VALUE: cell <- $r12
	@DEBUG_VALUE: format <- $r7
	@DEBUG_VALUE: row <- [DW_OP_plus_uconst 20] [$sp+0]
	@DEBUG_VALUE: ext <- [DW_OP_plus_uconst 100] [$sp+0]
	@DEBUG_VALUE: lv_table_design:clip_area <- [DW_OP_plus_uconst 108] [$sp+0]
	@DEBUG_VALUE: lv_table_design:mode <- [DW_OP_LLVM_entry_value 1] $r2
	.loc	10 881 46                       @ lvgl/src/lv_widgets/lv_table.c:881:46
	ldrh.w	r3, [sp, #800]
	.loc	10 881 49 is_stmt 0             @ lvgl/src/lv_widgets/lv_table.c:881:49
	subs	r6, r3, #1
	.loc	10 881 34                       @ lvgl/src/lv_widgets/lv_table.c:881:34
	strh.w	r6, [sp, #804]
	.loc	10 882 51 is_stmt 1             @ lvgl/src/lv_widgets/lv_table.c:882:51
	ldrh.w	r6, [r9, r5, lsl #1]
	.loc	10 882 67 is_stmt 0             @ lvgl/src/lv_widgets/lv_table.c:882:67
	subs	r3, r3, r6
	.loc	10 882 34                       @ lvgl/src/lv_widgets/lv_table.c:882:34
	strh.w	r3, [sp, #800]
	b	.LBB2_25
.Ltmp144:
	.p2align	2
.LBB2_24:                               @   in Loop: Header=BB2_19 Depth=2
	@DEBUG_VALUE: cell <- $r12
	@DEBUG_VALUE: format <- $r7
	@DEBUG_VALUE: row <- [DW_OP_plus_uconst 20] [$sp+0]
	@DEBUG_VALUE: ext <- [DW_OP_plus_uconst 100] [$sp+0]
	@DEBUG_VALUE: lv_table_design:clip_area <- [DW_OP_plus_uconst 108] [$sp+0]
	@DEBUG_VALUE: lv_table_design:mode <- [DW_OP_LLVM_entry_value 1] $r2
	.loc	10 885 46 is_stmt 1             @ lvgl/src/lv_widgets/lv_table.c:885:46
	ldrh.w	r3, [sp, #804]
	.loc	10 885 49 is_stmt 0             @ lvgl/src/lv_widgets/lv_table.c:885:49
	adds	r6, r3, #1
	.loc	10 885 34                       @ lvgl/src/lv_widgets/lv_table.c:885:34
	strh.w	r6, [sp, #800]
	.loc	10 886 51 is_stmt 1             @ lvgl/src/lv_widgets/lv_table.c:886:51
	ldrh.w	r6, [r9, r5, lsl #1]
	.loc	10 886 67 is_stmt 0             @ lvgl/src/lv_widgets/lv_table.c:886:67
	add	r3, r6
	.loc	10 886 34                       @ lvgl/src/lv_widgets/lv_table.c:886:34
	strh.w	r3, [sp, #804]
.Ltmp145:
.LBB2_25:                               @   in Loop: Header=BB2_19 Depth=2
	@DEBUG_VALUE: cell <- $r12
	@DEBUG_VALUE: format <- $r7
	@DEBUG_VALUE: row <- [DW_OP_plus_uconst 20] [$sp+0]
	@DEBUG_VALUE: ext <- [DW_OP_plus_uconst 100] [$sp+0]
	@DEBUG_VALUE: lv_table_design:clip_area <- [DW_OP_plus_uconst 108] [$sp+0]
	@DEBUG_VALUE: lv_table_design:mode <- [DW_OP_LLVM_entry_value 1] $r2
	@DEBUG_VALUE: format <- $r7
	@DEBUG_VALUE: col_merge <- 0
	.loc	10 890 67 is_stmt 1             @ lvgl/src/lv_widgets/lv_table.c:890:67
	subs	r2, #1
.Ltmp146:
	.loc	10 890 17 is_stmt 0             @ lvgl/src/lv_widgets/lv_table.c:890:17
	cmp	r5, r2
	bge	.LBB2_34
.Ltmp147:
@ %bb.26:                               @   in Loop: Header=BB2_19 Depth=2
	@DEBUG_VALUE: cell <- $r12
	@DEBUG_VALUE: format <- $r7
	@DEBUG_VALUE: row <- [DW_OP_plus_uconst 20] [$sp+0]
	@DEBUG_VALUE: ext <- [DW_OP_plus_uconst 100] [$sp+0]
	@DEBUG_VALUE: lv_table_design:clip_area <- [DW_OP_plus_uconst 108] [$sp+0]
	@DEBUG_VALUE: col_merge <- 0
	@DEBUG_VALUE: lv_table_design:mode <- [DW_OP_LLVM_entry_value 1] $r2
	@DEBUG_VALUE: format <- $r7
	@DEBUG_VALUE: col_merge <- 0
	.loc	10 891 24 is_stmt 1             @ lvgl/src/lv_widgets/lv_table.c:891:24
	ldr.w	r3, [r1, lr, lsl #2]
.Ltmp148:
	.loc	10 891 24 is_stmt 0             @ lvgl/src/lv_widgets/lv_table.c:891:24
	cbz	r3, .LBB2_34
.Ltmp149:
@ %bb.27:                               @   in Loop: Header=BB2_19 Depth=2
	@DEBUG_VALUE: cell <- $r12
	@DEBUG_VALUE: format <- $r7
	@DEBUG_VALUE: row <- [DW_OP_plus_uconst 20] [$sp+0]
	@DEBUG_VALUE: ext <- [DW_OP_plus_uconst 100] [$sp+0]
	@DEBUG_VALUE: lv_table_design:clip_area <- [DW_OP_plus_uconst 108] [$sp+0]
	@DEBUG_VALUE: col_merge <- 0
	@DEBUG_VALUE: lv_table_design:mode <- [DW_OP_LLVM_entry_value 1] $r2
	.loc	10 0 24                         @ lvgl/src/lv_widgets/lv_table.c:0:24
	movs	r4, #0
	mov	r0, r5
.Ltmp150:
	.p2align	2
.LBB2_28:                               @   Parent Loop BB2_11 Depth=1
                                        @     Parent Loop BB2_19 Depth=2
                                        @ =>    This Inner Loop Header: Depth=3
	@DEBUG_VALUE: cell <- $r12
	@DEBUG_VALUE: format <- $r7
	@DEBUG_VALUE: row <- [DW_OP_plus_uconst 20] [$sp+0]
	@DEBUG_VALUE: ext <- [DW_OP_plus_uconst 100] [$sp+0]
	@DEBUG_VALUE: lv_table_design:clip_area <- [DW_OP_plus_uconst 108] [$sp+0]
	@DEBUG_VALUE: lv_table_design:mode <- [DW_OP_LLVM_entry_value 1] $r2
	@DEBUG_VALUE: col_merge <- $r4
	.loc	10 892 46 is_stmt 1             @ lvgl/src/lv_widgets/lv_table.c:892:46
	ldrb	r7, [r3]
.Ltmp151:
	@DEBUG_VALUE: format <- $r7
	.loc	10 893 28                       @ lvgl/src/lv_widgets/lv_table.c:893:28
	lsls	r3, r7, #29
	bpl	.LBB2_35
.Ltmp152:
@ %bb.29:                               @   in Loop: Header=BB2_28 Depth=3
	@DEBUG_VALUE: cell <- $r12
	@DEBUG_VALUE: format <- $r7
	@DEBUG_VALUE: col_merge <- $r4
	@DEBUG_VALUE: row <- [DW_OP_plus_uconst 20] [$sp+0]
	@DEBUG_VALUE: ext <- [DW_OP_plus_uconst 100] [$sp+0]
	@DEBUG_VALUE: lv_table_design:clip_area <- [DW_OP_plus_uconst 108] [$sp+0]
	@DEBUG_VALUE: lv_table_design:mode <- [DW_OP_LLVM_entry_value 1] $r2
	.loc	10 894 32                       @ lvgl/src/lv_widgets/lv_table.c:894:32
	ldr	r3, [sp, #84]                   @ 4-byte Reload
	cmp	r3, #1
.Ltmp153:
	.loc	10 0 0 is_stmt 0                @ lvgl/src/lv_widgets/lv_table.c:0:0
	add.w	r3, r0, #1
.Ltmp154:
	.loc	10 894 32                       @ lvgl/src/lv_widgets/lv_table.c:894:32
	bne	.LBB2_31
.Ltmp155:
@ %bb.30:                               @   in Loop: Header=BB2_28 Depth=3
	@DEBUG_VALUE: cell <- $r12
	@DEBUG_VALUE: format <- $r7
	@DEBUG_VALUE: col_merge <- $r4
	@DEBUG_VALUE: row <- [DW_OP_plus_uconst 20] [$sp+0]
	@DEBUG_VALUE: ext <- [DW_OP_plus_uconst 100] [$sp+0]
	@DEBUG_VALUE: lv_table_design:clip_area <- [DW_OP_plus_uconst 108] [$sp+0]
	@DEBUG_VALUE: lv_table_design:mode <- [DW_OP_LLVM_entry_value 1] $r2
	.loc	10 894 53                       @ lvgl/src/lv_widgets/lv_table.c:894:53
	ldrh.w	r3, [r9, r3, lsl #1]
	.loc	10 894 50                       @ lvgl/src/lv_widgets/lv_table.c:894:50
	ldrh.w	r6, [sp, #800]
	subs	r3, r6, r3
	strh.w	r3, [sp, #800]
	b	.LBB2_32
.Ltmp156:
	.p2align	2
.LBB2_31:                               @   in Loop: Header=BB2_28 Depth=3
	@DEBUG_VALUE: cell <- $r12
	@DEBUG_VALUE: format <- $r7
	@DEBUG_VALUE: col_merge <- $r4
	@DEBUG_VALUE: row <- [DW_OP_plus_uconst 20] [$sp+0]
	@DEBUG_VALUE: ext <- [DW_OP_plus_uconst 100] [$sp+0]
	@DEBUG_VALUE: lv_table_design:clip_area <- [DW_OP_plus_uconst 108] [$sp+0]
	@DEBUG_VALUE: lv_table_design:mode <- [DW_OP_LLVM_entry_value 1] $r2
	.loc	10 895 50 is_stmt 1             @ lvgl/src/lv_widgets/lv_table.c:895:50
	ldrh.w	r3, [r9, r3, lsl #1]
	.loc	10 895 47 is_stmt 0             @ lvgl/src/lv_widgets/lv_table.c:895:47
	ldrh.w	r6, [sp, #804]
	add	r3, r6
	strh.w	r3, [sp, #804]
.Ltmp157:
.LBB2_32:                               @   in Loop: Header=BB2_28 Depth=3
	@DEBUG_VALUE: cell <- $r12
	@DEBUG_VALUE: format <- $r7
	@DEBUG_VALUE: col_merge <- $r4
	@DEBUG_VALUE: row <- [DW_OP_plus_uconst 20] [$sp+0]
	@DEBUG_VALUE: ext <- [DW_OP_plus_uconst 100] [$sp+0]
	@DEBUG_VALUE: lv_table_design:clip_area <- [DW_OP_plus_uconst 108] [$sp+0]
	@DEBUG_VALUE: lv_table_design:mode <- [DW_OP_LLVM_entry_value 1] $r2
	.loc	10 890 81 is_stmt 1             @ lvgl/src/lv_widgets/lv_table.c:890:81
	adds	r4, #1
.Ltmp158:
	@DEBUG_VALUE: col_merge <- $r4
	@DEBUG_VALUE: format <- $r7
	.loc	10 890 46 is_stmt 0             @ lvgl/src/lv_widgets/lv_table.c:890:46
	uxtah	r0, r5, r4
.Ltmp159:
	.loc	10 890 17                       @ lvgl/src/lv_widgets/lv_table.c:890:17
	cmp	r0, r2
	bge	.LBB2_35
.Ltmp160:
@ %bb.33:                               @   in Loop: Header=BB2_28 Depth=3
	@DEBUG_VALUE: cell <- $r12
	@DEBUG_VALUE: format <- $r7
	@DEBUG_VALUE: col_merge <- $r4
	@DEBUG_VALUE: row <- [DW_OP_plus_uconst 20] [$sp+0]
	@DEBUG_VALUE: ext <- [DW_OP_plus_uconst 100] [$sp+0]
	@DEBUG_VALUE: lv_table_design:clip_area <- [DW_OP_plus_uconst 108] [$sp+0]
	@DEBUG_VALUE: lv_table_design:mode <- [DW_OP_LLVM_entry_value 1] $r2
	.loc	10 0 0                          @ lvgl/src/lv_widgets/lv_table.c:0:0
	uxth	r3, r4
	@DEBUG_VALUE: col_merge <- $r4
	@DEBUG_VALUE: format <- $r7
.Ltmp161:
	.loc	10 891 44 is_stmt 1             @ lvgl/src/lv_widgets/lv_table.c:891:44
	add	r3, lr
	.loc	10 891 24 is_stmt 0             @ lvgl/src/lv_widgets/lv_table.c:891:24
	ldr.w	r3, [r1, r3, lsl #2]
.Ltmp162:
	.loc	10 891 24                       @ lvgl/src/lv_widgets/lv_table.c:891:24
	cmp	r3, #0
	bne	.LBB2_28
	b	.LBB2_35
.Ltmp163:
	.p2align	2
.LBB2_34:                               @   in Loop: Header=BB2_19 Depth=2
	@DEBUG_VALUE: cell <- $r12
	@DEBUG_VALUE: format <- $r7
	@DEBUG_VALUE: row <- [DW_OP_plus_uconst 20] [$sp+0]
	@DEBUG_VALUE: ext <- [DW_OP_plus_uconst 100] [$sp+0]
	@DEBUG_VALUE: lv_table_design:clip_area <- [DW_OP_plus_uconst 108] [$sp+0]
	@DEBUG_VALUE: col_merge <- 0
	@DEBUG_VALUE: lv_table_design:mode <- [DW_OP_LLVM_entry_value 1] $r2
	.loc	10 0 24                         @ lvgl/src/lv_widgets/lv_table.c:0:24
	movs	r4, #0
	.loc	10 890 46 is_stmt 1             @ lvgl/src/lv_widgets/lv_table.c:890:46
	mov	r0, r5
.Ltmp164:
.LBB2_35:                               @   in Loop: Header=BB2_19 Depth=2
	@DEBUG_VALUE: cell <- $r12
	@DEBUG_VALUE: format <- $r7
	@DEBUG_VALUE: row <- [DW_OP_plus_uconst 20] [$sp+0]
	@DEBUG_VALUE: ext <- [DW_OP_plus_uconst 100] [$sp+0]
	@DEBUG_VALUE: lv_table_design:clip_area <- [DW_OP_plus_uconst 108] [$sp+0]
	@DEBUG_VALUE: lv_table_design:mode <- [DW_OP_LLVM_entry_value 1] $r2
	@DEBUG_VALUE: format <- $r7
	.loc	10 904 46                       @ lvgl/src/lv_widgets/lv_table.c:904:46
	ldr	r1, [sp, #108]                  @ 4-byte Reload
	.loc	10 904 30 is_stmt 0             @ lvgl/src/lv_widgets/lv_table.c:904:30
	ldrsh.w	r2, [sp, #806]
	.loc	10 904 46                       @ lvgl/src/lv_widgets/lv_table.c:904:46
	ldrsh.w	r1, [r1, #2]
.Ltmp165:
	.loc	10 904 20                       @ lvgl/src/lv_widgets/lv_table.c:904:20
	cmp	r2, r1
	blt	.LBB2_18
.Ltmp166:
@ %bb.36:                               @   in Loop: Header=BB2_19 Depth=2
	@DEBUG_VALUE: cell <- $r12
	@DEBUG_VALUE: format <- $r7
	@DEBUG_VALUE: row <- [DW_OP_plus_uconst 20] [$sp+0]
	@DEBUG_VALUE: ext <- [DW_OP_plus_uconst 100] [$sp+0]
	@DEBUG_VALUE: lv_table_design:clip_area <- [DW_OP_plus_uconst 108] [$sp+0]
	@DEBUG_VALUE: lv_table_design:mode <- [DW_OP_LLVM_entry_value 1] $r2
	.loc	10 0 20                         @ lvgl/src/lv_widgets/lv_table.c:0:20
	add	r1, sp, #72
	str.w	lr, [sp, #104]                  @ 4-byte Spill
	.loc	10 910 46 is_stmt 1             @ lvgl/src/lv_widgets/lv_table.c:910:46
	ubfx	r5, r7, #3, #4
.Ltmp167:
	@DEBUG_VALUE: cell_type <- $r5
	.loc	10 0 46 is_stmt 0               @ lvgl/src/lv_widgets/lv_table.c:0:46
	stm.w	r1, {r0, r4, r12}               @ 12-byte Folded Spill
	.loc	10 914 17 is_stmt 1             @ lvgl/src/lv_widgets/lv_table.c:914:17
	mov	r0, r10
	mov	r1, r11
	bl	lv_area_copy
.Ltmp168:
	.loc	10 915 21                       @ lvgl/src/lv_widgets/lv_table.c:915:21
	movs	r1, #104
	add	r0, sp, #376
	smlabb	r2, r5, r1, r0
	ldr	r4, [sp, #68]                   @ 4-byte Reload
	.loc	10 915 41 is_stmt 0             @ lvgl/src/lv_widgets/lv_table.c:915:41
	ldrh	r0, [r2, #26]
	.loc	10 915 76                       @ lvgl/src/lv_widgets/lv_table.c:915:76
	lsls	r1, r0, #29
	bpl	.LBB2_39
.Ltmp169:
@ %bb.37:                               @   in Loop: Header=BB2_19 Depth=2
	@DEBUG_VALUE: format <- $r7
	@DEBUG_VALUE: cell_type <- $r5
	@DEBUG_VALUE: row <- [DW_OP_plus_uconst 20] [$sp+0]
	@DEBUG_VALUE: ext <- [DW_OP_plus_uconst 100] [$sp+0]
	@DEBUG_VALUE: lv_table_design:clip_area <- [DW_OP_plus_uconst 108] [$sp+0]
	@DEBUG_VALUE: lv_table_design:mode <- [DW_OP_LLVM_entry_value 1] $r2
	.loc	10 915 115                      @ lvgl/src/lv_widgets/lv_table.c:915:115
	ldrsh.w	r3, [r4, #16]
	.loc	10 915 79                       @ lvgl/src/lv_widgets/lv_table.c:915:79
	ldrsh.w	r1, [sp, #128]
	.loc	10 915 118                      @ lvgl/src/lv_widgets/lv_table.c:915:118
	ldr	r6, [sp, #40]                   @ 4-byte Reload
	add	r3, r6
.Ltmp170:
	.loc	10 915 20                       @ lvgl/src/lv_widgets/lv_table.c:915:20
	cmp	r3, r1
	bge	.LBB2_39
.Ltmp171:
@ %bb.38:                               @   in Loop: Header=BB2_19 Depth=2
	@DEBUG_VALUE: format <- $r7
	@DEBUG_VALUE: cell_type <- $r5
	@DEBUG_VALUE: row <- [DW_OP_plus_uconst 20] [$sp+0]
	@DEBUG_VALUE: ext <- [DW_OP_plus_uconst 100] [$sp+0]
	@DEBUG_VALUE: lv_table_design:clip_area <- [DW_OP_plus_uconst 108] [$sp+0]
	@DEBUG_VALUE: lv_table_design:mode <- [DW_OP_LLVM_entry_value 1] $r2
	.loc	10 0 0                          @ lvgl/src/lv_widgets/lv_table.c:0:0
	uxth	r1, r1
.Ltmp172:
	.loc	10 916 64 is_stmt 1             @ lvgl/src/lv_widgets/lv_table.c:916:64
	ldrh	r3, [r2, #24]
	.loc	10 916 77 is_stmt 0             @ lvgl/src/lv_widgets/lv_table.c:916:77
	add.w	r3, r3, r3, lsr #15
	sxth	r3, r3
	.loc	10 916 41                       @ lvgl/src/lv_widgets/lv_table.c:916:41
	sub.w	r1, r1, r3, lsr #1
	strh.w	r1, [sp, #128]
.Ltmp173:
.LBB2_39:                               @   in Loop: Header=BB2_19 Depth=2
	@DEBUG_VALUE: format <- $r7
	@DEBUG_VALUE: cell_type <- $r5
	@DEBUG_VALUE: row <- [DW_OP_plus_uconst 20] [$sp+0]
	@DEBUG_VALUE: ext <- [DW_OP_plus_uconst 100] [$sp+0]
	@DEBUG_VALUE: lv_table_design:clip_area <- [DW_OP_plus_uconst 108] [$sp+0]
	@DEBUG_VALUE: lv_table_design:mode <- [DW_OP_LLVM_entry_value 1] $r2
	.loc	10 918 75 is_stmt 1             @ lvgl/src/lv_widgets/lv_table.c:918:75
	lsls	r1, r0, #30
	bpl	.LBB2_42
.Ltmp174:
@ %bb.40:                               @   in Loop: Header=BB2_19 Depth=2
	@DEBUG_VALUE: format <- $r7
	@DEBUG_VALUE: cell_type <- $r5
	@DEBUG_VALUE: row <- [DW_OP_plus_uconst 20] [$sp+0]
	@DEBUG_VALUE: ext <- [DW_OP_plus_uconst 100] [$sp+0]
	@DEBUG_VALUE: lv_table_design:clip_area <- [DW_OP_plus_uconst 108] [$sp+0]
	@DEBUG_VALUE: lv_table_design:mode <- [DW_OP_LLVM_entry_value 1] $r2
	.loc	10 918 114 is_stmt 0            @ lvgl/src/lv_widgets/lv_table.c:918:114
	ldrsh.w	r3, [r4, #18]
	.loc	10 918 78                       @ lvgl/src/lv_widgets/lv_table.c:918:78
	ldrsh.w	r1, [sp, #130]
	.loc	10 918 117                      @ lvgl/src/lv_widgets/lv_table.c:918:117
	ldr	r6, [sp, #44]                   @ 4-byte Reload
	add	r3, r6
.Ltmp175:
	.loc	10 918 20                       @ lvgl/src/lv_widgets/lv_table.c:918:20
	cmp	r3, r1
	bge	.LBB2_42
.Ltmp176:
@ %bb.41:                               @   in Loop: Header=BB2_19 Depth=2
	@DEBUG_VALUE: format <- $r7
	@DEBUG_VALUE: cell_type <- $r5
	@DEBUG_VALUE: row <- [DW_OP_plus_uconst 20] [$sp+0]
	@DEBUG_VALUE: ext <- [DW_OP_plus_uconst 100] [$sp+0]
	@DEBUG_VALUE: lv_table_design:clip_area <- [DW_OP_plus_uconst 108] [$sp+0]
	@DEBUG_VALUE: lv_table_design:mode <- [DW_OP_LLVM_entry_value 1] $r2
	.loc	10 0 0                          @ lvgl/src/lv_widgets/lv_table.c:0:0
	uxth	r1, r1
.Ltmp177:
	.loc	10 919 64 is_stmt 1             @ lvgl/src/lv_widgets/lv_table.c:919:64
	ldrh	r3, [r2, #24]
	.loc	10 919 77 is_stmt 0             @ lvgl/src/lv_widgets/lv_table.c:919:77
	add.w	r3, r3, r3, lsr #15
	sxth	r3, r3
	.loc	10 919 41                       @ lvgl/src/lv_widgets/lv_table.c:919:41
	sub.w	r1, r1, r3, lsr #1
	strh.w	r1, [sp, #130]
.Ltmp178:
.LBB2_42:                               @   in Loop: Header=BB2_19 Depth=2
	@DEBUG_VALUE: format <- $r7
	@DEBUG_VALUE: cell_type <- $r5
	@DEBUG_VALUE: row <- [DW_OP_plus_uconst 20] [$sp+0]
	@DEBUG_VALUE: ext <- [DW_OP_plus_uconst 100] [$sp+0]
	@DEBUG_VALUE: lv_table_design:clip_area <- [DW_OP_plus_uconst 108] [$sp+0]
	@DEBUG_VALUE: lv_table_design:mode <- [DW_OP_LLVM_entry_value 1] $r2
	.loc	10 921 77 is_stmt 1             @ lvgl/src/lv_widgets/lv_table.c:921:77
	lsls	r1, r0, #28
	bpl	.LBB2_45
.Ltmp179:
@ %bb.43:                               @   in Loop: Header=BB2_19 Depth=2
	@DEBUG_VALUE: format <- $r7
	@DEBUG_VALUE: cell_type <- $r5
	@DEBUG_VALUE: row <- [DW_OP_plus_uconst 20] [$sp+0]
	@DEBUG_VALUE: ext <- [DW_OP_plus_uconst 100] [$sp+0]
	@DEBUG_VALUE: lv_table_design:clip_area <- [DW_OP_plus_uconst 108] [$sp+0]
	@DEBUG_VALUE: lv_table_design:mode <- [DW_OP_LLVM_entry_value 1] $r2
	.loc	10 921 116 is_stmt 0            @ lvgl/src/lv_widgets/lv_table.c:921:116
	ldrsh.w	r3, [r4, #20]
	.loc	10 921 80                       @ lvgl/src/lv_widgets/lv_table.c:921:80
	ldrsh.w	r1, [sp, #132]
	.loc	10 921 130                      @ lvgl/src/lv_widgets/lv_table.c:921:130
	ldr	r6, [sp, #48]                   @ 4-byte Reload
	add	r3, r6
.Ltmp180:
	.loc	10 921 20                       @ lvgl/src/lv_widgets/lv_table.c:921:20
	cmp	r3, r1
	ble	.LBB2_45
.Ltmp181:
@ %bb.44:                               @   in Loop: Header=BB2_19 Depth=2
	@DEBUG_VALUE: format <- $r7
	@DEBUG_VALUE: cell_type <- $r5
	@DEBUG_VALUE: row <- [DW_OP_plus_uconst 20] [$sp+0]
	@DEBUG_VALUE: ext <- [DW_OP_plus_uconst 100] [$sp+0]
	@DEBUG_VALUE: lv_table_design:clip_area <- [DW_OP_plus_uconst 108] [$sp+0]
	@DEBUG_VALUE: lv_table_design:mode <- [DW_OP_LLVM_entry_value 1] $r2
	.loc	10 0 0                          @ lvgl/src/lv_widgets/lv_table.c:0:0
	uxth	r1, r1
.Ltmp182:
	.loc	10 922 64 is_stmt 1             @ lvgl/src/lv_widgets/lv_table.c:922:64
	ldrsh.w	r3, [r2, #24]
	.loc	10 922 77 is_stmt 0             @ lvgl/src/lv_widgets/lv_table.c:922:77
	add.w	r6, r3, r3, lsr #31
	.loc	10 922 117                      @ lvgl/src/lv_widgets/lv_table.c:922:117
	and	r3, r3, #1
	.loc	10 922 81                       @ lvgl/src/lv_widgets/lv_table.c:922:81
	add.w	r3, r3, r6, lsr #1
	.loc	10 922 41                       @ lvgl/src/lv_widgets/lv_table.c:922:41
	add	r1, r3
	strh.w	r1, [sp, #132]
.Ltmp183:
.LBB2_45:                               @   in Loop: Header=BB2_19 Depth=2
	@DEBUG_VALUE: format <- $r7
	@DEBUG_VALUE: cell_type <- $r5
	@DEBUG_VALUE: row <- [DW_OP_plus_uconst 20] [$sp+0]
	@DEBUG_VALUE: ext <- [DW_OP_plus_uconst 100] [$sp+0]
	@DEBUG_VALUE: lv_table_design:clip_area <- [DW_OP_plus_uconst 108] [$sp+0]
	@DEBUG_VALUE: lv_table_design:mode <- [DW_OP_LLVM_entry_value 1] $r2
	.loc	10 924 78 is_stmt 1             @ lvgl/src/lv_widgets/lv_table.c:924:78
	lsls	r0, r0, #31
	beq	.LBB2_48
.Ltmp184:
@ %bb.46:                               @   in Loop: Header=BB2_19 Depth=2
	@DEBUG_VALUE: format <- $r7
	@DEBUG_VALUE: cell_type <- $r5
	@DEBUG_VALUE: row <- [DW_OP_plus_uconst 20] [$sp+0]
	@DEBUG_VALUE: ext <- [DW_OP_plus_uconst 100] [$sp+0]
	@DEBUG_VALUE: lv_table_design:clip_area <- [DW_OP_plus_uconst 108] [$sp+0]
	@DEBUG_VALUE: lv_table_design:mode <- [DW_OP_LLVM_entry_value 1] $r2
	.loc	10 925 56                       @ lvgl/src/lv_widgets/lv_table.c:925:56
	ldrsh.w	r1, [r4, #22]
	.loc	10 925 20 is_stmt 0             @ lvgl/src/lv_widgets/lv_table.c:925:20
	ldrsh.w	r0, [sp, #134]
	.loc	10 925 71                       @ lvgl/src/lv_widgets/lv_table.c:925:71
	ldr	r3, [sp, #36]                   @ 4-byte Reload
	add	r1, r3
.Ltmp185:
	.loc	10 924 20 is_stmt 1             @ lvgl/src/lv_widgets/lv_table.c:924:20
	cmp	r1, r0
	ble	.LBB2_48
.Ltmp186:
@ %bb.47:                               @   in Loop: Header=BB2_19 Depth=2
	@DEBUG_VALUE: format <- $r7
	@DEBUG_VALUE: cell_type <- $r5
	@DEBUG_VALUE: row <- [DW_OP_plus_uconst 20] [$sp+0]
	@DEBUG_VALUE: ext <- [DW_OP_plus_uconst 100] [$sp+0]
	@DEBUG_VALUE: lv_table_design:clip_area <- [DW_OP_plus_uconst 108] [$sp+0]
	@DEBUG_VALUE: lv_table_design:mode <- [DW_OP_LLVM_entry_value 1] $r2
	.loc	10 0 0 is_stmt 0                @ lvgl/src/lv_widgets/lv_table.c:0:0
	uxth	r0, r0
.Ltmp187:
	.loc	10 926 64 is_stmt 1             @ lvgl/src/lv_widgets/lv_table.c:926:64
	ldrsh.w	r1, [r2, #24]
	.loc	10 926 77 is_stmt 0             @ lvgl/src/lv_widgets/lv_table.c:926:77
	add.w	r3, r1, r1, lsr #31
	.loc	10 926 117                      @ lvgl/src/lv_widgets/lv_table.c:926:117
	and	r1, r1, #1
	.loc	10 926 81                       @ lvgl/src/lv_widgets/lv_table.c:926:81
	add.w	r1, r1, r3, lsr #1
	.loc	10 926 41                       @ lvgl/src/lv_widgets/lv_table.c:926:41
	add	r0, r1
	strh.w	r0, [sp, #134]
.Ltmp188:
.LBB2_48:                               @   in Loop: Header=BB2_19 Depth=2
	@DEBUG_VALUE: format <- $r7
	@DEBUG_VALUE: cell_type <- $r5
	@DEBUG_VALUE: row <- [DW_OP_plus_uconst 20] [$sp+0]
	@DEBUG_VALUE: ext <- [DW_OP_plus_uconst 100] [$sp+0]
	@DEBUG_VALUE: lv_table_design:clip_area <- [DW_OP_plus_uconst 108] [$sp+0]
	@DEBUG_VALUE: lv_table_design:mode <- [DW_OP_LLVM_entry_value 1] $r2
	.loc	10 929 17 is_stmt 1             @ lvgl/src/lv_widgets/lv_table.c:929:17
	mov	r0, r10
	ldr	r1, [sp, #108]                  @ 4-byte Reload
	bl	lv_draw_rect
.Ltmp189:
	.loc	10 931 20                       @ lvgl/src/lv_widgets/lv_table.c:931:20
	ldr	r1, [sp, #104]                  @ 4-byte Reload
	.loc	10 931 25 is_stmt 0             @ lvgl/src/lv_widgets/lv_table.c:931:25
	ldr.w	r0, [r8, #4]
	.loc	10 931 20                       @ lvgl/src/lv_widgets/lv_table.c:931:20
	ldr.w	r0, [r0, r1, lsl #2]
.Ltmp190:
	.loc	10 931 20                       @ lvgl/src/lv_widgets/lv_table.c:931:20
	cmp	r0, #0
	beq.w	.LBB2_17
.Ltmp191:
@ %bb.49:                               @   in Loop: Header=BB2_19 Depth=2
	@DEBUG_VALUE: format <- $r7
	@DEBUG_VALUE: cell_type <- $r5
	@DEBUG_VALUE: row <- [DW_OP_plus_uconst 20] [$sp+0]
	@DEBUG_VALUE: ext <- [DW_OP_plus_uconst 100] [$sp+0]
	@DEBUG_VALUE: lv_table_design:clip_area <- [DW_OP_plus_uconst 108] [$sp+0]
	@DEBUG_VALUE: lv_table_design:mode <- [DW_OP_LLVM_entry_value 1] $r2
	.loc	10 932 50 is_stmt 1             @ lvgl/src/lv_widgets/lv_table.c:932:50
	add	r2, sp, #160
	.loc	10 933 50                       @ lvgl/src/lv_widgets/lv_table.c:933:50
	add	r6, sp, #152
	.loc	10 932 45                       @ lvgl/src/lv_widgets/lv_table.c:932:45
	ldrh.w	r1, [sp, #800]
	.loc	10 933 45                       @ lvgl/src/lv_widgets/lv_table.c:933:45
	ldrh.w	r3, [sp, #804]
	.loc	10 932 50                       @ lvgl/src/lv_widgets/lv_table.c:932:50
	ldrh.w	r2, [r2, r5, lsl #1]
	.loc	10 933 50                       @ lvgl/src/lv_widgets/lv_table.c:933:50
	ldrh.w	r6, [r6, r5, lsl #1]
	str	r5, [sp, #64]                   @ 4-byte Spill
	.loc	10 945 70                       @ lvgl/src/lv_widgets/lv_table.c:945:70
	add.w	r10, r0, #1
	.loc	10 932 48                       @ lvgl/src/lv_widgets/lv_table.c:932:48
	add	r1, r2
	.loc	10 934 50                       @ lvgl/src/lv_widgets/lv_table.c:934:50
	add	r2, sp, #144
	.loc	10 932 33                       @ lvgl/src/lv_widgets/lv_table.c:932:33
	strh.w	r1, [sp, #792]
	.loc	10 933 48                       @ lvgl/src/lv_widgets/lv_table.c:933:48
	subs	r1, r3, r6
	.loc	10 935 50                       @ lvgl/src/lv_widgets/lv_table.c:935:50
	add	r6, sp, #136
	.loc	10 933 33                       @ lvgl/src/lv_widgets/lv_table.c:933:33
	strh.w	r1, [sp, #796]
	.loc	10 934 45                       @ lvgl/src/lv_widgets/lv_table.c:934:45
	ldrh.w	r1, [sp, #802]
	.loc	10 934 50 is_stmt 0             @ lvgl/src/lv_widgets/lv_table.c:934:50
	ldrh.w	r2, [r2, r5, lsl #1]
	.loc	10 935 45 is_stmt 1             @ lvgl/src/lv_widgets/lv_table.c:935:45
	ldrh.w	r3, [sp, #806]
	.loc	10 935 50 is_stmt 0             @ lvgl/src/lv_widgets/lv_table.c:935:50
	ldrh.w	r6, [r6, r5, lsl #1]
	.loc	10 934 48 is_stmt 1             @ lvgl/src/lv_widgets/lv_table.c:934:48
	add	r1, r2
	.loc	10 945 75                       @ lvgl/src/lv_widgets/lv_table.c:945:75
	add.w	r2, r5, r5, lsl #2
	.loc	10 934 33                       @ lvgl/src/lv_widgets/lv_table.c:934:33
	strh.w	r1, [sp, #794]
	.loc	10 935 48                       @ lvgl/src/lv_widgets/lv_table.c:935:48
	subs	r1, r3, r6
	.loc	10 935 33 is_stmt 0             @ lvgl/src/lv_widgets/lv_table.c:935:33
	strh.w	r1, [sp, #798]
	.loc	10 945 75 is_stmt 1             @ lvgl/src/lv_widgets/lv_table.c:945:75
	add	r1, sp, #216
	add.w	r4, r1, r2, lsl #3
.Ltmp192:
	.loc	10 938 38                       @ lvgl/src/lv_widgets/lv_table.c:938:38
	sxtb	r1, r7
.Ltmp193:
	.loc	10 938 24 is_stmt 0             @ lvgl/src/lv_widgets/lv_table.c:938:24
	str	r1, [sp, #60]                   @ 4-byte Spill
	movs	r1, #2
	.loc	10 946 94 is_stmt 1             @ lvgl/src/lv_widgets/lv_table.c:946:94
	mov	r5, r4
.Ltmp194:
	.loc	10 938 24                       @ lvgl/src/lv_widgets/lv_table.c:938:24
	and.w	r11, r1, r7, lsr #6
.Ltmp195:
	@DEBUG_VALUE: txt_flags <- $r11
	.loc	10 946 59                       @ lvgl/src/lv_widgets/lv_table.c:946:59
	mov	r1, r4
	.loc	10 945 96                       @ lvgl/src/lv_widgets/lv_table.c:945:96
	mov	r0, r4
	.loc	10 946 94                       @ lvgl/src/lv_widgets/lv_table.c:946:94
	ldrsh	r9, [r5, #18]!
	.loc	10 946 59 is_stmt 0             @ lvgl/src/lv_widgets/lv_table.c:946:59
	ldrsh	r2, [r1, #20]!
	str	r1, [sp, #92]                   @ 4-byte Spill
	.loc	10 945 96 is_stmt 1             @ lvgl/src/lv_widgets/lv_table.c:945:96
	ldr	r6, [r0, #12]!
	str	r0, [sp, #88]                   @ 4-byte Spill
	.loc	10 947 38                       @ lvgl/src/lv_widgets/lv_table.c:947:38
	add	r0, sp, #792
	str	r2, [sp, #56]                   @ 4-byte Spill
	bl	lv_area_get_width
	.loc	10 945 21                       @ lvgl/src/lv_widgets/lv_table.c:945:21
	strd	r9, r0, [sp]
	add	r0, sp, #808
	mov	r1, r10
	mov	r2, r6
	ldr	r3, [sp, #56]                   @ 4-byte Reload
	str.w	r11, [sp, #96]                  @ 4-byte Spill
.Ltmp196:
	@DEBUG_VALUE: txt_flags <- [DW_OP_plus_uconst 96] [$sp+0]
	str.w	r11, [sp, #8]
	bl	_lv_txt_get_size
	.loc	10 949 47                       @ lvgl/src/lv_widgets/lv_table.c:949:47
	mov	r0, r4
	movs	r1, #0
	strb	r1, [r0, #37]!
	.loc	10 951 24                       @ lvgl/src/lv_widgets/lv_table.c:951:24
	ldr	r1, [sp, #60]                   @ 4-byte Reload
	cmp	r1, #0
	bmi	.LBB2_51
.Ltmp197:
@ %bb.50:                               @   in Loop: Header=BB2_19 Depth=2
	@DEBUG_VALUE: format <- $r7
	@DEBUG_VALUE: txt_flags <- [DW_OP_plus_uconst 96] [$sp+0]
	@DEBUG_VALUE: row <- [DW_OP_plus_uconst 20] [$sp+0]
	@DEBUG_VALUE: ext <- [DW_OP_plus_uconst 100] [$sp+0]
	@DEBUG_VALUE: lv_table_design:clip_area <- [DW_OP_plus_uconst 108] [$sp+0]
	@DEBUG_VALUE: lv_table_design:mode <- [DW_OP_LLVM_entry_value 1] $r2
	.loc	10 952 75                       @ lvgl/src/lv_widgets/lv_table.c:952:75
	ldrh.w	r1, [sp, #810]
	.loc	10 952 49 is_stmt 0             @ lvgl/src/lv_widgets/lv_table.c:952:49
	ldrh.w	r2, [sp, #802]
	.loc	10 952 52                       @ lvgl/src/lv_widgets/lv_table.c:952:52
	ldr	r3, [sp, #32]                   @ 4-byte Reload
	.loc	10 953 77 is_stmt 1             @ lvgl/src/lv_widgets/lv_table.c:953:77
	add.w	r1, r1, r1, lsr #15
	.loc	10 952 52                       @ lvgl/src/lv_widgets/lv_table.c:952:52
	add	r2, r3
	.loc	10 953 77                       @ lvgl/src/lv_widgets/lv_table.c:953:77
	sxth	r1, r1
	.loc	10 952 64                       @ lvgl/src/lv_widgets/lv_table.c:952:64
	sub.w	r3, r2, r1, asr #1
	.loc	10 952 37 is_stmt 0             @ lvgl/src/lv_widgets/lv_table.c:952:37
	strh.w	r3, [sp, #794]
	.loc	10 953 64 is_stmt 1             @ lvgl/src/lv_widgets/lv_table.c:953:64
	add.w	r1, r2, r1, asr #1
	.loc	10 953 37 is_stmt 0             @ lvgl/src/lv_widgets/lv_table.c:953:37
	strh.w	r1, [sp, #798]
.Ltmp198:
.LBB2_51:                               @   in Loop: Header=BB2_19 Depth=2
	@DEBUG_VALUE: format <- $r7
	@DEBUG_VALUE: txt_flags <- [DW_OP_plus_uconst 96] [$sp+0]
	@DEBUG_VALUE: row <- [DW_OP_plus_uconst 20] [$sp+0]
	@DEBUG_VALUE: ext <- [DW_OP_plus_uconst 100] [$sp+0]
	@DEBUG_VALUE: lv_table_design:clip_area <- [DW_OP_plus_uconst 108] [$sp+0]
	@DEBUG_VALUE: lv_table_design:mode <- [DW_OP_LLVM_entry_value 1] $r2
	.loc	10 956 37 is_stmt 1             @ lvgl/src/lv_widgets/lv_table.c:956:37
	and	r1, r7, #3
	.loc	10 956 21 is_stmt 0             @ lvgl/src/lv_widgets/lv_table.c:956:21
	cmp	r1, #2
	beq	.LBB2_54
.Ltmp199:
@ %bb.52:                               @   in Loop: Header=BB2_19 Depth=2
	@DEBUG_VALUE: format <- $r7
	@DEBUG_VALUE: txt_flags <- [DW_OP_plus_uconst 96] [$sp+0]
	@DEBUG_VALUE: row <- [DW_OP_plus_uconst 20] [$sp+0]
	@DEBUG_VALUE: ext <- [DW_OP_plus_uconst 100] [$sp+0]
	@DEBUG_VALUE: lv_table_design:clip_area <- [DW_OP_plus_uconst 108] [$sp+0]
	@DEBUG_VALUE: lv_table_design:mode <- [DW_OP_LLVM_entry_value 1] $r2
	cmp	r1, #1
	bne	.LBB2_56
.Ltmp200:
@ %bb.53:                               @   in Loop: Header=BB2_19 Depth=2
	@DEBUG_VALUE: format <- $r7
	@DEBUG_VALUE: txt_flags <- [DW_OP_plus_uconst 96] [$sp+0]
	@DEBUG_VALUE: row <- [DW_OP_plus_uconst 20] [$sp+0]
	@DEBUG_VALUE: ext <- [DW_OP_plus_uconst 100] [$sp+0]
	@DEBUG_VALUE: lv_table_design:clip_area <- [DW_OP_plus_uconst 108] [$sp+0]
	@DEBUG_VALUE: lv_table_design:mode <- [DW_OP_LLVM_entry_value 1] $r2
	.loc	10 0 21                         @ lvgl/src/lv_widgets/lv_table.c:0:21
	movs	r1, #4
	b	.LBB2_55
.Ltmp201:
.LBB2_54:                               @   in Loop: Header=BB2_19 Depth=2
	@DEBUG_VALUE: format <- $r7
	@DEBUG_VALUE: txt_flags <- [DW_OP_plus_uconst 96] [$sp+0]
	@DEBUG_VALUE: row <- [DW_OP_plus_uconst 20] [$sp+0]
	@DEBUG_VALUE: ext <- [DW_OP_plus_uconst 100] [$sp+0]
	@DEBUG_VALUE: lv_table_design:clip_area <- [DW_OP_plus_uconst 108] [$sp+0]
	@DEBUG_VALUE: lv_table_design:mode <- [DW_OP_LLVM_entry_value 1] $r2
	movs	r1, #8
.Ltmp202:
.LBB2_55:                               @   in Loop: Header=BB2_19 Depth=2
	@DEBUG_VALUE: format <- $r7
	@DEBUG_VALUE: txt_flags <- [DW_OP_plus_uconst 96] [$sp+0]
	@DEBUG_VALUE: row <- [DW_OP_plus_uconst 20] [$sp+0]
	@DEBUG_VALUE: ext <- [DW_OP_plus_uconst 100] [$sp+0]
	@DEBUG_VALUE: lv_table_design:clip_area <- [DW_OP_plus_uconst 108] [$sp+0]
	@DEBUG_VALUE: lv_table_design:mode <- [DW_OP_LLVM_entry_value 1] $r2
	strb	r1, [r0]
.Ltmp203:
.LBB2_56:                               @   in Loop: Header=BB2_19 Depth=2
	@DEBUG_VALUE: format <- $r7
	@DEBUG_VALUE: txt_flags <- [DW_OP_plus_uconst 96] [$sp+0]
	@DEBUG_VALUE: row <- [DW_OP_plus_uconst 20] [$sp+0]
	@DEBUG_VALUE: ext <- [DW_OP_plus_uconst 100] [$sp+0]
	@DEBUG_VALUE: lv_table_design:clip_area <- [DW_OP_plus_uconst 108] [$sp+0]
	@DEBUG_VALUE: lv_table_design:mode <- [DW_OP_LLVM_entry_value 1] $r2
	.loc	10 971 37 is_stmt 1             @ lvgl/src/lv_widgets/lv_table.c:971:37
	add	r0, sp, #120
	ldr	r1, [sp, #108]                  @ 4-byte Reload
	add	r2, sp, #800
	bl	_lv_area_intersect
.Ltmp204:
	@DEBUG_VALUE: label_mask_ok <- [DW_OP_LLVM_convert 1 7, DW_OP_LLVM_convert 8 7, DW_OP_stack_value] undef
	.loc	10 972 24                       @ lvgl/src/lv_widgets/lv_table.c:972:24
	cbz	r0, .LBB2_58
.Ltmp205:
@ %bb.57:                               @   in Loop: Header=BB2_19 Depth=2
	@DEBUG_VALUE: format <- $r7
	@DEBUG_VALUE: txt_flags <- [DW_OP_plus_uconst 96] [$sp+0]
	@DEBUG_VALUE: row <- [DW_OP_plus_uconst 20] [$sp+0]
	@DEBUG_VALUE: ext <- [DW_OP_plus_uconst 100] [$sp+0]
	@DEBUG_VALUE: lv_table_design:clip_area <- [DW_OP_plus_uconst 108] [$sp+0]
	@DEBUG_VALUE: lv_table_design:mode <- [DW_OP_LLVM_entry_value 1] $r2
	.loc	10 973 86                       @ lvgl/src/lv_widgets/lv_table.c:973:86
	ldr	r1, [sp, #104]                  @ 4-byte Reload
	.loc	10 973 91 is_stmt 0             @ lvgl/src/lv_widgets/lv_table.c:973:91
	ldr.w	r0, [r8, #4]
	.loc	10 973 25                       @ lvgl/src/lv_widgets/lv_table.c:973:25
	mov	r2, r4
	.loc	10 973 86                       @ lvgl/src/lv_widgets/lv_table.c:973:86
	ldr.w	r0, [r0, r1, lsl #2]
	.loc	10 973 25                       @ lvgl/src/lv_widgets/lv_table.c:973:25
	add	r1, sp, #120
	.loc	10 973 107                      @ lvgl/src/lv_widgets/lv_table.c:973:107
	adds	r3, r0, #1
	.loc	10 973 25                       @ lvgl/src/lv_widgets/lv_table.c:973:25
	movs	r0, #0
	str	r0, [sp]
	add	r0, sp, #792
	bl	lv_draw_label
.Ltmp206:
.LBB2_58:                               @   in Loop: Header=BB2_19 Depth=2
	@DEBUG_VALUE: format <- $r7
	@DEBUG_VALUE: txt_flags <- [DW_OP_plus_uconst 96] [$sp+0]
	@DEBUG_VALUE: row <- [DW_OP_plus_uconst 20] [$sp+0]
	@DEBUG_VALUE: ext <- [DW_OP_plus_uconst 100] [$sp+0]
	@DEBUG_VALUE: lv_table_design:clip_area <- [DW_OP_plus_uconst 108] [$sp+0]
	@DEBUG_VALUE: lv_table_design:mode <- [DW_OP_LLVM_entry_value 1] $r2
	.loc	10 0 25                         @ lvgl/src/lv_widgets/lv_table.c:0:25
	ldr	r1, [sp, #64]                   @ 4-byte Reload
	mov.w	r9, #1
	.loc	10 979 38 is_stmt 1             @ lvgl/src/lv_widgets/lv_table.c:979:38
	ldrh.w	r0, [sp, #800]
	.loc	10 979 26 is_stmt 0             @ lvgl/src/lv_widgets/lv_table.c:979:26
	strh.w	r0, [sp, #116]
	.loc	10 980 38 is_stmt 1             @ lvgl/src/lv_widgets/lv_table.c:980:38
	ldrh.w	r0, [sp, #804]
	add.w	r1, r1, r1, lsl #1
	.loc	10 980 26 is_stmt 0             @ lvgl/src/lv_widgets/lv_table.c:980:26
	strh.w	r0, [sp, #112]
.Ltmp207:
	@DEBUG_VALUE: i <- 1
	.loc	10 0 26                         @ lvgl/src/lv_widgets/lv_table.c:0:26
	add	r0, sp, #168
	ldr	r2, [sp, #104]                  @ 4-byte Reload
	add.w	r10, r0, r1, lsl #2
	b	.LBB2_61
.Ltmp208:
	.p2align	2
.LBB2_59:                               @   in Loop: Header=BB2_61 Depth=3
	@DEBUG_VALUE: i <- $r9
	@DEBUG_VALUE: txt_flags <- [DW_OP_plus_uconst 96] [$sp+0]
	@DEBUG_VALUE: row <- [DW_OP_plus_uconst 20] [$sp+0]
	@DEBUG_VALUE: ext <- [DW_OP_plus_uconst 100] [$sp+0]
	@DEBUG_VALUE: lv_table_design:clip_area <- [DW_OP_plus_uconst 108] [$sp+0]
	@DEBUG_VALUE: lv_table_design:mode <- [DW_OP_LLVM_entry_value 1] $r2
	.loc	10 983 53 is_stmt 1             @ lvgl/src/lv_widgets/lv_table.c:983:53
	movs	r1, #0
	strb.w	r1, [r0, r11]
	.loc	10 984 62                       @ lvgl/src/lv_widgets/lv_table.c:984:62
	ldr.w	r0, [r8, #4]
	.loc	10 985 67                       @ lvgl/src/lv_widgets/lv_table.c:985:67
	ldr	r1, [sp, #92]                   @ 4-byte Reload
	.loc	10 985 102 is_stmt 0            @ lvgl/src/lv_widgets/lv_table.c:985:102
	ldrsh.w	r8, [r5]
	.loc	10 984 57 is_stmt 1             @ lvgl/src/lv_widgets/lv_table.c:984:57
	ldr.w	r0, [r0, r2, lsl #2]
	.loc	10 985 67                       @ lvgl/src/lv_widgets/lv_table.c:985:67
	ldrsh.w	r4, [r1]
	.loc	10 984 78                       @ lvgl/src/lv_widgets/lv_table.c:984:78
	adds	r7, r0, #1
	.loc	10 984 104 is_stmt 0            @ lvgl/src/lv_widgets/lv_table.c:984:104
	ldr	r0, [sp, #88]                   @ 4-byte Reload
	ldr	r6, [r0]
	.loc	10 986 46 is_stmt 1             @ lvgl/src/lv_widgets/lv_table.c:986:46
	add	r0, sp, #792
	bl	lv_area_get_width
	.loc	10 984 29                       @ lvgl/src/lv_widgets/lv_table.c:984:29
	str	r0, [sp, #4]
	ldr	r0, [sp, #96]                   @ 4-byte Reload
	str	r0, [sp, #8]
	add	r0, sp, #808
	mov	r1, r7
	mov	r2, r6
	mov	r3, r4
	str.w	r8, [sp]
	ldr.w	r8, [sp, #100]                  @ 4-byte Reload
	bl	_lv_txt_get_size
	.loc	10 988 84                       @ lvgl/src/lv_widgets/lv_table.c:988:84
	ldrh	r0, [r5]
	.loc	10 988 45 is_stmt 0             @ lvgl/src/lv_widgets/lv_table.c:988:45
	ldrh.w	r1, [sp, #794]
	.loc	10 988 59                       @ lvgl/src/lv_widgets/lv_table.c:988:59
	ldrh.w	r2, [sp, #810]
	.loc	10 990 29 is_stmt 1             @ lvgl/src/lv_widgets/lv_table.c:990:29
	mov	r3, r10
	.loc	10 988 95                       @ lvgl/src/lv_widgets/lv_table.c:988:95
	add.w	r0, r0, r0, lsr #15
	.loc	10 988 48 is_stmt 0             @ lvgl/src/lv_widgets/lv_table.c:988:48
	add	r1, r2
	.loc	10 988 95                       @ lvgl/src/lv_widgets/lv_table.c:988:95
	sxth	r0, r0
	.loc	10 990 29 is_stmt 1             @ lvgl/src/lv_widgets/lv_table.c:990:29
	ldr	r2, [sp, #108]                  @ 4-byte Reload
	.loc	10 988 61                       @ lvgl/src/lv_widgets/lv_table.c:988:61
	add.w	r0, r1, r0, asr #1
	.loc	10 988 34 is_stmt 0             @ lvgl/src/lv_widgets/lv_table.c:988:34
	strh.w	r0, [sp, #118]
	.loc	10 989 34 is_stmt 1             @ lvgl/src/lv_widgets/lv_table.c:989:34
	strh.w	r0, [sp, #114]
	.loc	10 990 29                       @ lvgl/src/lv_widgets/lv_table.c:990:29
	add	r0, sp, #116
	add	r1, sp, #112
	bl	lv_draw_line
	ldr	r2, [sp, #104]                  @ 4-byte Reload
	.loc	10 992 34                       @ lvgl/src/lv_widgets/lv_table.c:992:34
	ldr.w	r0, [r8, #4]
	.loc	10 992 53 is_stmt 0             @ lvgl/src/lv_widgets/lv_table.c:992:53
	movs	r1, #10
	.loc	10 992 29                       @ lvgl/src/lv_widgets/lv_table.c:992:29
	ldr.w	r0, [r0, r2, lsl #2]
	.loc	10 992 53                       @ lvgl/src/lv_widgets/lv_table.c:992:53
	strb.w	r1, [r0, r11]
.Ltmp209:
.LBB2_60:                               @   in Loop: Header=BB2_61 Depth=3
	@DEBUG_VALUE: i <- $r9
	@DEBUG_VALUE: txt_flags <- [DW_OP_plus_uconst 96] [$sp+0]
	@DEBUG_VALUE: row <- [DW_OP_plus_uconst 20] [$sp+0]
	@DEBUG_VALUE: ext <- [DW_OP_plus_uconst 100] [$sp+0]
	@DEBUG_VALUE: lv_table_design:clip_area <- [DW_OP_plus_uconst 108] [$sp+0]
	@DEBUG_VALUE: lv_table_design:mode <- [DW_OP_LLVM_entry_value 1] $r2
	.loc	10 981 66 is_stmt 1             @ lvgl/src/lv_widgets/lv_table.c:981:66
	add.w	r9, r9, #1
.Ltmp210:
	@DEBUG_VALUE: i <- $r9
.LBB2_61:                               @   Parent Loop BB2_11 Depth=1
                                        @     Parent Loop BB2_19 Depth=2
                                        @ =>    This Inner Loop Header: Depth=3
	@DEBUG_VALUE: txt_flags <- [DW_OP_plus_uconst 96] [$sp+0]
	@DEBUG_VALUE: row <- [DW_OP_plus_uconst 20] [$sp+0]
	@DEBUG_VALUE: ext <- [DW_OP_plus_uconst 100] [$sp+0]
	@DEBUG_VALUE: lv_table_design:clip_area <- [DW_OP_plus_uconst 108] [$sp+0]
	@DEBUG_VALUE: lv_table_design:mode <- [DW_OP_LLVM_entry_value 1] $r2
	@DEBUG_VALUE: i <- $r9
	.loc	10 981 32 is_stmt 0             @ lvgl/src/lv_widgets/lv_table.c:981:32
	uxth.w	r11, r9
	.loc	10 981 37                       @ lvgl/src/lv_widgets/lv_table.c:981:37
	ldr.w	r0, [r8, #4]
	.loc	10 981 32                       @ lvgl/src/lv_widgets/lv_table.c:981:32
	ldr.w	r0, [r0, r2, lsl #2]
	ldrb.w	r1, [r0, r11]
.Ltmp211:
	.loc	10 981 21                       @ lvgl/src/lv_widgets/lv_table.c:981:21
	cmp	r1, #10
	beq	.LBB2_59
.Ltmp212:
@ %bb.62:                               @   in Loop: Header=BB2_61 Depth=3
	@DEBUG_VALUE: i <- $r9
	@DEBUG_VALUE: txt_flags <- [DW_OP_plus_uconst 96] [$sp+0]
	@DEBUG_VALUE: row <- [DW_OP_plus_uconst 20] [$sp+0]
	@DEBUG_VALUE: ext <- [DW_OP_plus_uconst 100] [$sp+0]
	@DEBUG_VALUE: lv_table_design:clip_area <- [DW_OP_plus_uconst 108] [$sp+0]
	@DEBUG_VALUE: lv_table_design:mode <- [DW_OP_LLVM_entry_value 1] $r2
	cmp	r1, #0
	bne	.LBB2_60
.Ltmp213:
@ %bb.63:                               @   in Loop: Header=BB2_19 Depth=2
	@DEBUG_VALUE: i <- $r9
	@DEBUG_VALUE: txt_flags <- [DW_OP_plus_uconst 96] [$sp+0]
	@DEBUG_VALUE: row <- [DW_OP_plus_uconst 20] [$sp+0]
	@DEBUG_VALUE: ext <- [DW_OP_plus_uconst 100] [$sp+0]
	@DEBUG_VALUE: lv_table_design:clip_area <- [DW_OP_plus_uconst 108] [$sp+0]
	@DEBUG_VALUE: lv_table_design:mode <- [DW_OP_LLVM_entry_value 1] $r2
	.loc	10 0 21                         @ lvgl/src/lv_widgets/lv_table.c:0:21
	ldr.w	r9, [sp, #52]                   @ 4-byte Reload
.Ltmp214:
	add.w	r10, sp, #128
	add.w	r11, sp, #800
	b	.LBB2_17
.Ltmp215:
	.p2align	2
.LBB2_64:                               @   in Loop: Header=BB2_11 Depth=1
	@DEBUG_VALUE: cell <- $r12
	@DEBUG_VALUE: row <- [DW_OP_plus_uconst 20] [$sp+0]
	@DEBUG_VALUE: ext <- [DW_OP_plus_uconst 100] [$sp+0]
	@DEBUG_VALUE: lv_table_design:clip_area <- [DW_OP_plus_uconst 108] [$sp+0]
	@DEBUG_VALUE: lv_table_design:mode <- [DW_OP_LLVM_entry_value 1] $r2
	@DEBUG_VALUE: row <- undef
	@DEBUG_VALUE: format <- undef
	ldrd	r1, r0, [sp, #24]               @ 8-byte Folded Reload
	cmp	r1, r0
	bgt	.LBB2_66
.Ltmp216:
@ %bb.65:                               @   in Loop: Header=BB2_11 Depth=1
	@DEBUG_VALUE: cell <- $r12
	@DEBUG_VALUE: ext <- [DW_OP_plus_uconst 100] [$sp+0]
	@DEBUG_VALUE: lv_table_design:clip_area <- [DW_OP_plus_uconst 108] [$sp+0]
	@DEBUG_VALUE: lv_table_design:mode <- [DW_OP_LLVM_entry_value 1] $r2
	.loc	10 856 33 is_stmt 1             @ lvgl/src/lv_widgets/lv_table.c:856:33
	ldrh.w	r0, [r8, #2]
	ldr	r2, [sp, #20]                   @ 4-byte Reload
	.loc	10 0 0 is_stmt 0                @ lvgl/src/lv_widgets/lv_table.c:0:0
	adds	r2, #1
.Ltmp217:
	@DEBUG_VALUE: format <- undef
	@DEBUG_VALUE: row <- $r2
	@DEBUG_VALUE: cell <- $r12
	.loc	10 856 9                        @ lvgl/src/lv_widgets/lv_table.c:856:9
	cmp	r2, r0
	blo.w	.LBB2_11
.Ltmp218:
.LBB2_66:
	@DEBUG_VALUE: lv_table_design:clip_area <- [DW_OP_plus_uconst 108] [$sp+0]
	.loc	10 0 9                          @ lvgl/src/lv_widgets/lv_table.c:0:9
	movs	r0, #0
	add.w	sp, sp, #812
	pop.w	{r4, r5, r6, r7, r8, r9, r10, r11, pc}
.Lfunc_end2:
	.size	lv_table_design, .Lfunc_end2-lv_table_design
	.cfi_endproc
	.cantunwind
	.fnend
                                        @ -- End function
	.section	.text.lv_table_set_row_cnt,"ax",%progbits
	.hidden	lv_table_set_row_cnt            @ -- Begin function lv_table_set_row_cnt
	.globl	lv_table_set_row_cnt
	.p2align	3
	.type	lv_table_set_row_cnt,%function
	.code	16                              @ @lv_table_set_row_cnt
	.thumb_func
lv_table_set_row_cnt:
.Lfunc_begin3:
	.loc	10 295 0 is_stmt 1              @ lvgl/src/lv_widgets/lv_table.c:295:0
	.fnstart
	.cfi_startproc
@ %bb.0:
	@DEBUG_VALUE: lv_table_set_row_cnt:table <- $r0
	@DEBUG_VALUE: lv_table_set_row_cnt:row_cnt <- $r1
	.save	{r4, r5, r6, r7, lr}
	push	{r4, r5, r6, r7, lr}
	.cfi_def_cfa_offset 20
	.cfi_offset lr, -4
	.cfi_offset r7, -8
	.cfi_offset r6, -12
	.cfi_offset r5, -16
	.cfi_offset r4, -20
	.pad	#4
	sub	sp, #4
	.cfi_def_cfa_offset 24
	mov	r5, r1
.Ltmp219:
	@DEBUG_VALUE: lv_table_set_row_cnt:row_cnt <- $r5
	mov	r4, r0
	@DEBUG_VALUE: lv_table_set_row_cnt:row_cnt <- $r5
.Ltmp220:
	@DEBUG_VALUE: lv_table_set_row_cnt:table <- $r4
	.loc	10 296 5 prologue_end           @ lvgl/src/lv_widgets/lv_table.c:296:5
	bl	lv_debug_check_null
.Ltmp221:
	.loc	10 296 5 is_stmt 0              @ lvgl/src/lv_widgets/lv_table.c:296:5
	cbz	r0, .LBB3_5
.Ltmp222:
@ %bb.1:
	@DEBUG_VALUE: lv_table_set_row_cnt:row_cnt <- $r5
	@DEBUG_VALUE: lv_table_set_row_cnt:table <- $r4
	@DEBUG_VALUE: lv_table_set_row_cnt:row_cnt <- $r5
	.loc	10 298 28 is_stmt 1             @ lvgl/src/lv_widgets/lv_table.c:298:28
	mov	r0, r4
	bl	lv_obj_get_ext_attr
	.loc	10 299 33                       @ lvgl/src/lv_widgets/lv_table.c:299:33
	ldrh	r7, [r0, #2]
.Ltmp223:
	@DEBUG_VALUE: lv_table_set_row_cnt:old_row_cnt <- undef
	.loc	10 298 28                       @ lvgl/src/lv_widgets/lv_table.c:298:28
	mov	r6, r0
.Ltmp224:
	@DEBUG_VALUE: lv_table_set_row_cnt:ext <- $r6
	.loc	10 300 26                       @ lvgl/src/lv_widgets/lv_table.c:300:26
	strh	r5, [r0, #2]
	.loc	10 302 8                        @ lvgl/src/lv_widgets/lv_table.c:302:8
	cbz	r5, .LBB3_7
.Ltmp225:
@ %bb.2:
	@DEBUG_VALUE: lv_table_set_row_cnt:ext <- $r6
	@DEBUG_VALUE: lv_table_set_row_cnt:row_cnt <- $r5
	@DEBUG_VALUE: lv_table_set_row_cnt:table <- $r4
	@DEBUG_VALUE: lv_table_set_row_cnt:ext <- $r6
	.loc	10 303 42                       @ lvgl/src/lv_widgets/lv_table.c:303:42
	ldr	r0, [r6, #8]
	.loc	10 303 62 is_stmt 0             @ lvgl/src/lv_widgets/lv_table.c:303:62
	lsls	r1, r5, #1
	.loc	10 303 22                       @ lvgl/src/lv_widgets/lv_table.c:303:22
	bl	lv_mem_realloc
	.loc	10 303 20                       @ lvgl/src/lv_widgets/lv_table.c:303:20
	str	r0, [r6, #8]
.Ltmp226:
	.loc	10 304 9 is_stmt 1              @ lvgl/src/lv_widgets/lv_table.c:304:9
	bl	lv_debug_check_null
.Ltmp227:
	.loc	10 0 0 is_stmt 0                @ lvgl/src/lv_widgets/lv_table.c:0:0
	ldr	r2, [r6, #8]
.Ltmp228:
	.loc	10 304 9                        @ lvgl/src/lv_widgets/lv_table.c:304:9
	cbz	r0, .LBB3_16
.Ltmp229:
@ %bb.3:
	@DEBUG_VALUE: lv_table_set_row_cnt:ext <- $r6
	@DEBUG_VALUE: lv_table_set_row_cnt:row_cnt <- $r5
	@DEBUG_VALUE: lv_table_set_row_cnt:table <- $r4
	.loc	10 305 12 is_stmt 1             @ lvgl/src/lv_widgets/lv_table.c:305:12
	cbnz	r2, .LBB3_8
.Ltmp230:
.LBB3_4:
	@DEBUG_VALUE: lv_table_set_row_cnt:ext <- $r6
	@DEBUG_VALUE: lv_table_set_row_cnt:row_cnt <- $r5
	@DEBUG_VALUE: lv_table_set_row_cnt:table <- $r4
	.loc	10 330 1                        @ lvgl/src/lv_widgets/lv_table.c:330:1
	add	sp, #4
	pop	{r4, r5, r6, r7, pc}
.Ltmp231:
.LBB3_5:
	@DEBUG_VALUE: lv_table_set_row_cnt:row_cnt <- $r5
	@DEBUG_VALUE: lv_table_set_row_cnt:table <- $r4
	.loc	10 296 5                        @ lvgl/src/lv_widgets/lv_table.c:296:5
	movw	r0, :lower16:.L.str.1
	movs	r3, #0
	movt	r0, :upper16:.L.str.1
	mov	r2, r4
	bl	lv_debug_log_error
.Ltmp232:
	.p2align	2
.LBB3_6:                                @ =>This Inner Loop Header: Depth=1
	@DEBUG_VALUE: lv_table_set_row_cnt:row_cnt <- $r5
	@DEBUG_VALUE: lv_table_set_row_cnt:table <- $r4
	b	.LBB3_6
.Ltmp233:
.LBB3_7:
	@DEBUG_VALUE: lv_table_set_row_cnt:ext <- $r6
	@DEBUG_VALUE: lv_table_set_row_cnt:row_cnt <- $r5
	@DEBUG_VALUE: lv_table_set_row_cnt:table <- $r4
	.loc	10 308 26                       @ lvgl/src/lv_widgets/lv_table.c:308:26
	ldr	r0, [r6, #8]
	.loc	10 308 9 is_stmt 0              @ lvgl/src/lv_widgets/lv_table.c:308:9
	bl	lv_mem_free
	movs	r0, #0
	.loc	10 309 20 is_stmt 1             @ lvgl/src/lv_widgets/lv_table.c:309:20
	str	r0, [r6, #8]
.Ltmp234:
.LBB3_8:
	@DEBUG_VALUE: lv_table_set_row_cnt:ext <- $r6
	@DEBUG_VALUE: lv_table_set_row_cnt:row_cnt <- $r5
	@DEBUG_VALUE: lv_table_set_row_cnt:table <- $r4
	.loc	10 312 13                       @ lvgl/src/lv_widgets/lv_table.c:312:13
	ldrh	r0, [r6, #2]
	.loc	10 312 25 is_stmt 0             @ lvgl/src/lv_widgets/lv_table.c:312:25
	cbz	r0, .LBB3_14
.Ltmp235:
@ %bb.9:
	@DEBUG_VALUE: lv_table_set_row_cnt:ext <- $r6
	@DEBUG_VALUE: lv_table_set_row_cnt:row_cnt <- $r5
	@DEBUG_VALUE: lv_table_set_row_cnt:table <- $r4
	.loc	10 312 33                       @ lvgl/src/lv_widgets/lv_table.c:312:33
	ldrh	r1, [r6]
.Ltmp236:
	.loc	10 312 8                        @ lvgl/src/lv_widgets/lv_table.c:312:8
	cbz	r1, .LBB3_14
.Ltmp237:
@ %bb.10:
	@DEBUG_VALUE: lv_table_set_row_cnt:ext <- $r6
	@DEBUG_VALUE: lv_table_set_row_cnt:row_cnt <- $r5
	@DEBUG_VALUE: lv_table_set_row_cnt:table <- $r4
	.loc	10 313 85 is_stmt 1             @ lvgl/src/lv_widgets/lv_table.c:313:85
	muls	r1, r0, r1
	.loc	10 313 46 is_stmt 0             @ lvgl/src/lv_widgets/lv_table.c:313:46
	ldr	r0, [r6, #4]
	.loc	10 313 85                       @ lvgl/src/lv_widgets/lv_table.c:313:85
	lsls	r1, r1, #2
	.loc	10 313 26                       @ lvgl/src/lv_widgets/lv_table.c:313:26
	bl	lv_mem_realloc
	.loc	10 313 24                       @ lvgl/src/lv_widgets/lv_table.c:313:24
	str	r0, [r6, #4]
.Ltmp238:
	.loc	10 314 9 is_stmt 1              @ lvgl/src/lv_widgets/lv_table.c:314:9
	bl	lv_debug_check_null
.Ltmp239:
	.loc	10 0 0 is_stmt 0                @ lvgl/src/lv_widgets/lv_table.c:0:0
	ldr	r2, [r6, #4]
.Ltmp240:
	.loc	10 314 9                        @ lvgl/src/lv_widgets/lv_table.c:314:9
	cbz	r0, .LBB3_18
.Ltmp241:
@ %bb.11:
	@DEBUG_VALUE: lv_table_set_row_cnt:ext <- $r6
	@DEBUG_VALUE: lv_table_set_row_cnt:row_cnt <- $r5
	@DEBUG_VALUE: lv_table_set_row_cnt:table <- $r4
	.loc	10 315 12 is_stmt 1             @ lvgl/src/lv_widgets/lv_table.c:315:12
	cmp	r2, #0
	beq	.LBB3_4
.Ltmp242:
@ %bb.12:
	@DEBUG_VALUE: lv_table_set_row_cnt:ext <- $r6
	@DEBUG_VALUE: lv_table_set_row_cnt:row_cnt <- $r5
	@DEBUG_VALUE: lv_table_set_row_cnt:table <- $r4
	.loc	10 318 12                       @ lvgl/src/lv_widgets/lv_table.c:318:12
	cmp	r7, r5
	bhs	.LBB3_15
.Ltmp243:
@ %bb.13:
	@DEBUG_VALUE: lv_table_set_row_cnt:ext <- $r6
	@DEBUG_VALUE: lv_table_set_row_cnt:row_cnt <- $r5
	@DEBUG_VALUE: lv_table_set_row_cnt:table <- $r4
	.loc	10 319 56                       @ lvgl/src/lv_widgets/lv_table.c:319:56
	ldrh	r0, [r6]
	.loc	10 320 57                       @ lvgl/src/lv_widgets/lv_table.c:320:57
	ldrh	r1, [r6, #2]
	.loc	10 319 49                       @ lvgl/src/lv_widgets/lv_table.c:319:49
	mul	r3, r0, r7
.Ltmp244:
	@DEBUG_VALUE: old_cell_cnt <- $r3
	.loc	10 320 50                       @ lvgl/src/lv_widgets/lv_table.c:320:50
	muls	r1, r0, r1
.Ltmp245:
	@DEBUG_VALUE: new_cell_cnt <- $r1
	.loc	10 321 28                       @ lvgl/src/lv_widgets/lv_table.c:321:28
	uxth	r3, r3
.Ltmp246:
	.loc	10 321 72 is_stmt 0             @ lvgl/src/lv_widgets/lv_table.c:321:72
	subs	r1, r1, r3
.Ltmp247:
	.loc	10 321 28                       @ lvgl/src/lv_widgets/lv_table.c:321:28
	add.w	r0, r2, r3, lsl #2
	.loc	10 321 88                       @ lvgl/src/lv_widgets/lv_table.c:321:88
	lsls	r1, r1, #2
	.loc	10 321 13                       @ lvgl/src/lv_widgets/lv_table.c:321:13
	bl	_lv_memset_00
	b	.LBB3_15
.Ltmp248:
.LBB3_14:
	@DEBUG_VALUE: lv_table_set_row_cnt:ext <- $r6
	@DEBUG_VALUE: lv_table_set_row_cnt:row_cnt <- $r5
	@DEBUG_VALUE: lv_table_set_row_cnt:table <- $r4
	.loc	10 325 26 is_stmt 1             @ lvgl/src/lv_widgets/lv_table.c:325:26
	ldr	r0, [r6, #4]
	.loc	10 325 9 is_stmt 0              @ lvgl/src/lv_widgets/lv_table.c:325:9
	bl	lv_mem_free
	movs	r0, #0
	.loc	10 326 24 is_stmt 1             @ lvgl/src/lv_widgets/lv_table.c:326:24
	str	r0, [r6, #4]
.Ltmp249:
.LBB3_15:
	@DEBUG_VALUE: lv_table_set_row_cnt:ext <- $r6
	@DEBUG_VALUE: lv_table_set_row_cnt:row_cnt <- $r5
	@DEBUG_VALUE: lv_table_set_row_cnt:table <- $r4
	.loc	10 329 5                        @ lvgl/src/lv_widgets/lv_table.c:329:5
	mov	r0, r4
	bl	refr_size
	.loc	10 330 1                        @ lvgl/src/lv_widgets/lv_table.c:330:1
	add	sp, #4
	pop	{r4, r5, r6, r7, pc}
.Ltmp250:
.LBB3_16:
	@DEBUG_VALUE: lv_table_set_row_cnt:ext <- $r6
	@DEBUG_VALUE: lv_table_set_row_cnt:row_cnt <- $r5
	@DEBUG_VALUE: lv_table_set_row_cnt:table <- $r4
	.loc	10 304 9                        @ lvgl/src/lv_widgets/lv_table.c:304:9
	movw	r0, :lower16:.L.str
	movs	r3, #0
	movt	r0, :upper16:.L.str
	bl	lv_debug_log_error
.Ltmp251:
	.p2align	2
.LBB3_17:                               @ =>This Inner Loop Header: Depth=1
	@DEBUG_VALUE: lv_table_set_row_cnt:ext <- $r6
	@DEBUG_VALUE: lv_table_set_row_cnt:row_cnt <- $r5
	@DEBUG_VALUE: lv_table_set_row_cnt:table <- $r4
	b	.LBB3_17
.Ltmp252:
.LBB3_18:
	@DEBUG_VALUE: lv_table_set_row_cnt:ext <- $r6
	@DEBUG_VALUE: lv_table_set_row_cnt:row_cnt <- $r5
	@DEBUG_VALUE: lv_table_set_row_cnt:table <- $r4
	.loc	10 314 9                        @ lvgl/src/lv_widgets/lv_table.c:314:9
	movw	r0, :lower16:.L.str
	movs	r3, #0
	movt	r0, :upper16:.L.str
	bl	lv_debug_log_error
.Ltmp253:
	.p2align	2
.LBB3_19:                               @ =>This Inner Loop Header: Depth=1
	@DEBUG_VALUE: lv_table_set_row_cnt:ext <- $r6
	@DEBUG_VALUE: lv_table_set_row_cnt:row_cnt <- $r5
	@DEBUG_VALUE: lv_table_set_row_cnt:table <- $r4
	b	.LBB3_19
.Ltmp254:
.Lfunc_end3:
	.size	lv_table_set_row_cnt, .Lfunc_end3-lv_table_set_row_cnt
	.cfi_endproc
	.cantunwind
	.fnend
                                        @ -- End function
	.section	.text.lv_table_set_col_cnt,"ax",%progbits
	.hidden	lv_table_set_col_cnt            @ -- Begin function lv_table_set_col_cnt
	.globl	lv_table_set_col_cnt
	.p2align	3
	.type	lv_table_set_col_cnt,%function
	.code	16                              @ @lv_table_set_col_cnt
	.thumb_func
lv_table_set_col_cnt:
.Lfunc_begin4:
	.loc	10 338 0                        @ lvgl/src/lv_widgets/lv_table.c:338:0
	.fnstart
	.cfi_startproc
@ %bb.0:
	@DEBUG_VALUE: lv_table_set_col_cnt:table <- $r0
	@DEBUG_VALUE: lv_table_set_col_cnt:col_cnt <- $r1
	.save	{r4, r5, r6, r7, lr}
	push	{r4, r5, r6, r7, lr}
	.cfi_def_cfa_offset 20
	.cfi_offset lr, -4
	.cfi_offset r7, -8
	.cfi_offset r6, -12
	.cfi_offset r5, -16
	.cfi_offset r4, -20
	.pad	#4
	sub	sp, #4
	.cfi_def_cfa_offset 24
	mov	r5, r1
.Ltmp255:
	@DEBUG_VALUE: lv_table_set_col_cnt:col_cnt <- $r5
	mov	r4, r0
	@DEBUG_VALUE: lv_table_set_col_cnt:col_cnt <- $r5
.Ltmp256:
	@DEBUG_VALUE: lv_table_set_col_cnt:table <- $r4
	.loc	10 339 5 prologue_end           @ lvgl/src/lv_widgets/lv_table.c:339:5
	bl	lv_debug_check_null
.Ltmp257:
	.loc	10 339 5 is_stmt 0              @ lvgl/src/lv_widgets/lv_table.c:339:5
	cbz	r0, .LBB4_8
.Ltmp258:
@ %bb.1:
	@DEBUG_VALUE: lv_table_set_col_cnt:col_cnt <- $r5
	@DEBUG_VALUE: lv_table_set_col_cnt:table <- $r4
	@DEBUG_VALUE: lv_table_set_col_cnt:col_cnt <- $r5
	.loc	10 341 8 is_stmt 1              @ lvgl/src/lv_widgets/lv_table.c:341:8
	cmp	r5, #11
	bhi	.LBB4_12
.Ltmp259:
@ %bb.2:
	@DEBUG_VALUE: lv_table_set_col_cnt:col_cnt <- $r5
	@DEBUG_VALUE: lv_table_set_col_cnt:table <- $r4
	@DEBUG_VALUE: lv_table_set_col_cnt:col_cnt <- $r5
	.loc	10 346 28                       @ lvgl/src/lv_widgets/lv_table.c:346:28
	mov	r0, r4
	bl	lv_obj_get_ext_attr
	.loc	10 347 33                       @ lvgl/src/lv_widgets/lv_table.c:347:33
	ldrh	r7, [r0]
.Ltmp260:
	@DEBUG_VALUE: lv_table_set_col_cnt:old_col_cnt <- undef
	.loc	10 346 28                       @ lvgl/src/lv_widgets/lv_table.c:346:28
	mov	r6, r0
.Ltmp261:
	@DEBUG_VALUE: lv_table_set_col_cnt:ext <- $r6
	.loc	10 348 26                       @ lvgl/src/lv_widgets/lv_table.c:348:26
	strh	r5, [r0]
.Ltmp262:
	.loc	10 350 25                       @ lvgl/src/lv_widgets/lv_table.c:350:25
	cbz	r5, .LBB4_10
.Ltmp263:
@ %bb.3:
	@DEBUG_VALUE: lv_table_set_col_cnt:ext <- $r6
	@DEBUG_VALUE: lv_table_set_col_cnt:col_cnt <- $r5
	@DEBUG_VALUE: lv_table_set_col_cnt:table <- $r4
	.loc	10 0 0 is_stmt 0                @ lvgl/src/lv_widgets/lv_table.c:0:0
	ldrh	r0, [r6, #2]
	.loc	10 350 25                       @ lvgl/src/lv_widgets/lv_table.c:350:25
	cbz	r0, .LBB4_10
.Ltmp264:
@ %bb.4:
	@DEBUG_VALUE: lv_table_set_col_cnt:ext <- $r6
	@DEBUG_VALUE: lv_table_set_col_cnt:col_cnt <- $r5
	@DEBUG_VALUE: lv_table_set_col_cnt:table <- $r4
	.loc	10 351 85 is_stmt 1             @ lvgl/src/lv_widgets/lv_table.c:351:85
	mul	r1, r5, r0
	.loc	10 351 46 is_stmt 0             @ lvgl/src/lv_widgets/lv_table.c:351:46
	ldr	r0, [r6, #4]
	.loc	10 351 85                       @ lvgl/src/lv_widgets/lv_table.c:351:85
	lsls	r1, r1, #2
	.loc	10 351 26                       @ lvgl/src/lv_widgets/lv_table.c:351:26
	bl	lv_mem_realloc
	.loc	10 351 24                       @ lvgl/src/lv_widgets/lv_table.c:351:24
	str	r0, [r6, #4]
.Ltmp265:
	.loc	10 352 9 is_stmt 1              @ lvgl/src/lv_widgets/lv_table.c:352:9
	bl	lv_debug_check_null
.Ltmp266:
	.loc	10 0 0 is_stmt 0                @ lvgl/src/lv_widgets/lv_table.c:0:0
	ldr	r2, [r6, #4]
.Ltmp267:
	.loc	10 352 9                        @ lvgl/src/lv_widgets/lv_table.c:352:9
	cbz	r0, .LBB4_13
.Ltmp268:
@ %bb.5:
	@DEBUG_VALUE: lv_table_set_col_cnt:ext <- $r6
	@DEBUG_VALUE: lv_table_set_col_cnt:col_cnt <- $r5
	@DEBUG_VALUE: lv_table_set_col_cnt:table <- $r4
	.loc	10 353 12 is_stmt 1             @ lvgl/src/lv_widgets/lv_table.c:353:12
	cbz	r2, .LBB4_12
.Ltmp269:
@ %bb.6:
	@DEBUG_VALUE: lv_table_set_col_cnt:ext <- $r6
	@DEBUG_VALUE: lv_table_set_col_cnt:col_cnt <- $r5
	@DEBUG_VALUE: lv_table_set_col_cnt:table <- $r4
	.loc	10 356 12                       @ lvgl/src/lv_widgets/lv_table.c:356:12
	cmp	r7, r5
	bhs	.LBB4_11
.Ltmp270:
@ %bb.7:
	@DEBUG_VALUE: lv_table_set_col_cnt:ext <- $r6
	@DEBUG_VALUE: lv_table_set_col_cnt:col_cnt <- $r5
	@DEBUG_VALUE: lv_table_set_col_cnt:table <- $r4
	.loc	10 357 56                       @ lvgl/src/lv_widgets/lv_table.c:357:56
	ldrh	r0, [r6, #2]
	.loc	10 358 42                       @ lvgl/src/lv_widgets/lv_table.c:358:42
	ldrh	r1, [r6]
	.loc	10 357 49                       @ lvgl/src/lv_widgets/lv_table.c:357:49
	mul	r3, r0, r7
.Ltmp271:
	@DEBUG_VALUE: old_cell_cnt <- $r3
	.loc	10 358 50                       @ lvgl/src/lv_widgets/lv_table.c:358:50
	muls	r1, r0, r1
.Ltmp272:
	@DEBUG_VALUE: new_cell_cnt <- $r1
	.loc	10 359 28                       @ lvgl/src/lv_widgets/lv_table.c:359:28
	uxth	r3, r3
.Ltmp273:
	.loc	10 359 72 is_stmt 0             @ lvgl/src/lv_widgets/lv_table.c:359:72
	subs	r1, r1, r3
.Ltmp274:
	.loc	10 359 28                       @ lvgl/src/lv_widgets/lv_table.c:359:28
	add.w	r0, r2, r3, lsl #2
	.loc	10 359 88                       @ lvgl/src/lv_widgets/lv_table.c:359:88
	lsls	r1, r1, #2
	.loc	10 359 13                       @ lvgl/src/lv_widgets/lv_table.c:359:13
	bl	_lv_memset_00
	b	.LBB4_11
.Ltmp275:
.LBB4_8:
	@DEBUG_VALUE: lv_table_set_col_cnt:col_cnt <- $r5
	@DEBUG_VALUE: lv_table_set_col_cnt:table <- $r4
	.loc	10 339 5 is_stmt 1              @ lvgl/src/lv_widgets/lv_table.c:339:5
	movw	r0, :lower16:.L.str.1
	movs	r3, #0
	movt	r0, :upper16:.L.str.1
	mov	r2, r4
	bl	lv_debug_log_error
.Ltmp276:
	.p2align	2
.LBB4_9:                                @ =>This Inner Loop Header: Depth=1
	@DEBUG_VALUE: lv_table_set_col_cnt:col_cnt <- $r5
	@DEBUG_VALUE: lv_table_set_col_cnt:table <- $r4
	b	.LBB4_9
.Ltmp277:
.LBB4_10:
	@DEBUG_VALUE: lv_table_set_col_cnt:ext <- $r6
	@DEBUG_VALUE: lv_table_set_col_cnt:col_cnt <- $r5
	@DEBUG_VALUE: lv_table_set_col_cnt:table <- $r4
	.loc	10 364 26                       @ lvgl/src/lv_widgets/lv_table.c:364:26
	ldr	r0, [r6, #4]
	.loc	10 364 9 is_stmt 0              @ lvgl/src/lv_widgets/lv_table.c:364:9
	bl	lv_mem_free
	movs	r0, #0
	.loc	10 365 24 is_stmt 1             @ lvgl/src/lv_widgets/lv_table.c:365:24
	str	r0, [r6, #4]
.Ltmp278:
.LBB4_11:
	@DEBUG_VALUE: lv_table_set_col_cnt:ext <- $r6
	@DEBUG_VALUE: lv_table_set_col_cnt:col_cnt <- $r5
	@DEBUG_VALUE: lv_table_set_col_cnt:table <- $r4
	.loc	10 367 5                        @ lvgl/src/lv_widgets/lv_table.c:367:5
	mov	r0, r4
	bl	refr_size
.Ltmp279:
.LBB4_12:
	@DEBUG_VALUE: lv_table_set_col_cnt:col_cnt <- $r5
	@DEBUG_VALUE: lv_table_set_col_cnt:table <- $r4
	.loc	10 368 1                        @ lvgl/src/lv_widgets/lv_table.c:368:1
	add	sp, #4
	pop	{r4, r5, r6, r7, pc}
.Ltmp280:
.LBB4_13:
	@DEBUG_VALUE: lv_table_set_col_cnt:ext <- $r6
	@DEBUG_VALUE: lv_table_set_col_cnt:col_cnt <- $r5
	@DEBUG_VALUE: lv_table_set_col_cnt:table <- $r4
	.loc	10 352 9                        @ lvgl/src/lv_widgets/lv_table.c:352:9
	movw	r0, :lower16:.L.str
	movs	r3, #0
	movt	r0, :upper16:.L.str
	bl	lv_debug_log_error
.Ltmp281:
	.p2align	2
.LBB4_14:                               @ =>This Inner Loop Header: Depth=1
	@DEBUG_VALUE: lv_table_set_col_cnt:ext <- $r6
	@DEBUG_VALUE: lv_table_set_col_cnt:col_cnt <- $r5
	@DEBUG_VALUE: lv_table_set_col_cnt:table <- $r4
	b	.LBB4_14
.Ltmp282:
.Lfunc_end4:
	.size	lv_table_set_col_cnt, .Lfunc_end4-lv_table_set_col_cnt
	.cfi_endproc
	.cantunwind
	.fnend
                                        @ -- End function
	.section	.text.lv_table_set_cell_value,"ax",%progbits
	.hidden	lv_table_set_cell_value         @ -- Begin function lv_table_set_cell_value
	.globl	lv_table_set_cell_value
	.p2align	3
	.type	lv_table_set_cell_value,%function
	.code	16                              @ @lv_table_set_cell_value
	.thumb_func
lv_table_set_cell_value:
.Lfunc_begin5:
	.loc	10 136 0                        @ lvgl/src/lv_widgets/lv_table.c:136:0
	.fnstart
	.cfi_startproc
@ %bb.0:
	@DEBUG_VALUE: lv_table_set_cell_value:table <- $r0
	@DEBUG_VALUE: lv_table_set_cell_value:row <- $r1
	@DEBUG_VALUE: lv_table_set_cell_value:col <- $r2
	@DEBUG_VALUE: lv_table_set_cell_value:txt <- $r3
	.save	{r4, r5, r6, r7, r8, r9, lr}
	push.w	{r4, r5, r6, r7, r8, r9, lr}
	.cfi_def_cfa_offset 28
	.cfi_offset lr, -4
	.cfi_offset r9, -8
	.cfi_offset r8, -12
	.cfi_offset r7, -16
	.cfi_offset r6, -20
	.cfi_offset r5, -24
	.cfi_offset r4, -28
	.pad	#4
	sub	sp, #4
	.cfi_def_cfa_offset 32
	mov	r5, r3
.Ltmp283:
	@DEBUG_VALUE: lv_table_set_cell_value:txt <- $r5
	mov	r7, r2
.Ltmp284:
	@DEBUG_VALUE: lv_table_set_cell_value:col <- $r7
	mov	r6, r1
.Ltmp285:
	@DEBUG_VALUE: lv_table_set_cell_value:row <- $r6
	mov	r4, r0
	@DEBUG_VALUE: lv_table_set_cell_value:txt <- $r5
	@DEBUG_VALUE: lv_table_set_cell_value:col <- $r7
	@DEBUG_VALUE: lv_table_set_cell_value:row <- $r6
.Ltmp286:
	@DEBUG_VALUE: lv_table_set_cell_value:table <- $r4
	.loc	10 137 5 prologue_end           @ lvgl/src/lv_widgets/lv_table.c:137:5
	bl	lv_debug_check_null
.Ltmp287:
	.loc	10 137 5 is_stmt 0              @ lvgl/src/lv_widgets/lv_table.c:137:5
	cbz	r0, .LBB5_7
.Ltmp288:
@ %bb.1:
	@DEBUG_VALUE: lv_table_set_cell_value:col <- $r7
	@DEBUG_VALUE: lv_table_set_cell_value:row <- $r6
	@DEBUG_VALUE: lv_table_set_cell_value:txt <- $r5
	@DEBUG_VALUE: lv_table_set_cell_value:table <- $r4
	@DEBUG_VALUE: lv_table_set_cell_value:row <- $r6
	@DEBUG_VALUE: lv_table_set_cell_value:col <- $r7
	.loc	10 138 5 is_stmt 1              @ lvgl/src/lv_widgets/lv_table.c:138:5
	mov	r0, r5
	bl	lv_debug_check_null
.Ltmp289:
	.loc	10 138 5 is_stmt 0              @ lvgl/src/lv_widgets/lv_table.c:138:5
	cbz	r0, .LBB5_9
.Ltmp290:
@ %bb.2:
	@DEBUG_VALUE: lv_table_set_cell_value:col <- $r7
	@DEBUG_VALUE: lv_table_set_cell_value:row <- $r6
	@DEBUG_VALUE: lv_table_set_cell_value:txt <- $r5
	@DEBUG_VALUE: lv_table_set_cell_value:table <- $r4
	@DEBUG_VALUE: lv_table_set_cell_value:row <- $r6
	@DEBUG_VALUE: lv_table_set_cell_value:col <- $r7
	.loc	10 140 28 is_stmt 1             @ lvgl/src/lv_widgets/lv_table.c:140:28
	mov	r0, r4
	bl	lv_obj_get_ext_attr
	mov	r8, r0
.Ltmp291:
	@DEBUG_VALUE: lv_table_set_cell_value:ext <- $r8
	.loc	10 141 20                       @ lvgl/src/lv_widgets/lv_table.c:141:20
	ldrh	r0, [r0]
.Ltmp292:
	.loc	10 141 8 is_stmt 0              @ lvgl/src/lv_widgets/lv_table.c:141:8
	cmp	r0, r7
	bls	.LBB5_15
.Ltmp293:
@ %bb.3:
	@DEBUG_VALUE: lv_table_set_cell_value:ext <- $r8
	@DEBUG_VALUE: lv_table_set_cell_value:col <- $r7
	@DEBUG_VALUE: lv_table_set_cell_value:row <- $r6
	@DEBUG_VALUE: lv_table_set_cell_value:txt <- $r5
	@DEBUG_VALUE: lv_table_set_cell_value:table <- $r4
	@DEBUG_VALUE: lv_table_set_cell_value:row <- $r6
	@DEBUG_VALUE: lv_table_set_cell_value:col <- $r7
	.loc	10 147 20 is_stmt 1             @ lvgl/src/lv_widgets/lv_table.c:147:20
	ldrh.w	r0, [r8, #2]
.Ltmp294:
	.loc	10 147 8 is_stmt 0              @ lvgl/src/lv_widgets/lv_table.c:147:8
	cmp	r0, r6
	bhi	.LBB5_5
.Ltmp295:
@ %bb.4:
	@DEBUG_VALUE: lv_table_set_cell_value:ext <- $r8
	@DEBUG_VALUE: lv_table_set_cell_value:col <- $r7
	@DEBUG_VALUE: lv_table_set_cell_value:row <- $r6
	@DEBUG_VALUE: lv_table_set_cell_value:txt <- $r5
	@DEBUG_VALUE: lv_table_set_cell_value:table <- $r4
	.loc	10 148 41 is_stmt 1             @ lvgl/src/lv_widgets/lv_table.c:148:41
	adds	r0, r6, #1
	.loc	10 148 9 is_stmt 0              @ lvgl/src/lv_widgets/lv_table.c:148:9
	uxth	r1, r0
	mov	r0, r4
	bl	lv_table_set_row_cnt
.Ltmp296:
.LBB5_5:
	@DEBUG_VALUE: lv_table_set_cell_value:ext <- $r8
	@DEBUG_VALUE: lv_table_set_cell_value:col <- $r7
	@DEBUG_VALUE: lv_table_set_cell_value:row <- $r6
	@DEBUG_VALUE: lv_table_set_cell_value:txt <- $r5
	@DEBUG_VALUE: lv_table_set_cell_value:table <- $r4
	.loc	10 151 32 is_stmt 1             @ lvgl/src/lv_widgets/lv_table.c:151:32
	ldrh.w	r0, [r8]
	.loc	10 151 40 is_stmt 0             @ lvgl/src/lv_widgets/lv_table.c:151:40
	mla	r7, r0, r6, r7
.Ltmp297:
	@DEBUG_VALUE: lv_table_set_cell_value:cell <- $r7
	.loc	10 155 13 is_stmt 1             @ lvgl/src/lv_widgets/lv_table.c:155:13
	ldr.w	r0, [r8, #4]
	.loc	10 155 8 is_stmt 0              @ lvgl/src/lv_widgets/lv_table.c:155:8
	ldr.w	r0, [r0, r7, lsl #2]
.Ltmp298:
	.loc	10 155 8                        @ lvgl/src/lv_widgets/lv_table.c:155:8
	cbz	r0, .LBB5_11
.Ltmp299:
@ %bb.6:
	@DEBUG_VALUE: lv_table_set_cell_value:ext <- $r8
	@DEBUG_VALUE: lv_table_set_cell_value:cell <- $r7
	@DEBUG_VALUE: lv_table_set_cell_value:row <- $r6
	@DEBUG_VALUE: lv_table_set_cell_value:txt <- $r5
	@DEBUG_VALUE: lv_table_set_cell_value:table <- $r4
	.loc	10 156 30 is_stmt 1             @ lvgl/src/lv_widgets/lv_table.c:156:30
	ldrb.w	r9, [r0]
.Ltmp300:
	@DEBUG_VALUE: lv_table_set_cell_value:format <- undef
	.loc	10 0 30 is_stmt 0               @ lvgl/src/lv_widgets/lv_table.c:0:30
	b	.LBB5_12
.Ltmp301:
.LBB5_7:
	@DEBUG_VALUE: lv_table_set_cell_value:col <- $r7
	@DEBUG_VALUE: lv_table_set_cell_value:row <- $r6
	@DEBUG_VALUE: lv_table_set_cell_value:txt <- $r5
	@DEBUG_VALUE: lv_table_set_cell_value:table <- $r4
	.loc	10 137 5 is_stmt 1              @ lvgl/src/lv_widgets/lv_table.c:137:5
	movw	r0, :lower16:.L.str.1
	movs	r3, #0
	movt	r0, :upper16:.L.str.1
	mov	r2, r4
	bl	lv_debug_log_error
.Ltmp302:
	.p2align	2
.LBB5_8:                                @ =>This Inner Loop Header: Depth=1
	@DEBUG_VALUE: lv_table_set_cell_value:col <- $r7
	@DEBUG_VALUE: lv_table_set_cell_value:row <- $r6
	@DEBUG_VALUE: lv_table_set_cell_value:txt <- $r5
	@DEBUG_VALUE: lv_table_set_cell_value:table <- $r4
	b	.LBB5_8
.Ltmp303:
.LBB5_9:
	@DEBUG_VALUE: lv_table_set_cell_value:col <- $r7
	@DEBUG_VALUE: lv_table_set_cell_value:row <- $r6
	@DEBUG_VALUE: lv_table_set_cell_value:txt <- $r5
	@DEBUG_VALUE: lv_table_set_cell_value:table <- $r4
	.loc	10 138 5                        @ lvgl/src/lv_widgets/lv_table.c:138:5
	movw	r0, :lower16:.L.str.1
	movs	r3, #0
	movt	r0, :upper16:.L.str.1
	mov	r2, r5
	bl	lv_debug_log_error
.Ltmp304:
	.p2align	2
.LBB5_10:                               @ =>This Inner Loop Header: Depth=1
	@DEBUG_VALUE: lv_table_set_cell_value:col <- $r7
	@DEBUG_VALUE: lv_table_set_cell_value:row <- $r6
	@DEBUG_VALUE: lv_table_set_cell_value:txt <- $r5
	@DEBUG_VALUE: lv_table_set_cell_value:table <- $r4
	b	.LBB5_10
.Ltmp305:
.LBB5_11:
	@DEBUG_VALUE: lv_table_set_cell_value:ext <- $r8
	@DEBUG_VALUE: lv_table_set_cell_value:cell <- $r7
	@DEBUG_VALUE: lv_table_set_cell_value:row <- $r6
	@DEBUG_VALUE: lv_table_set_cell_value:txt <- $r5
	@DEBUG_VALUE: lv_table_set_cell_value:table <- $r4
	.loc	10 160 34                       @ lvgl/src/lv_widgets/lv_table.c:160:34
	mov	r0, r4
	bl	lv_obj_get_base_dir
.Ltmp306:
	@DEBUG_VALUE: base_dir <- $r0
	subs	r0, #1
.Ltmp307:
	clz	r0, r0
	lsrs	r0, r0, #5
	.loc	10 161 12                       @ lvgl/src/lv_widgets/lv_table.c:161:12
	lsl.w	r9, r0, #1
.Ltmp308:
.LBB5_12:
	@DEBUG_VALUE: lv_table_set_cell_value:ext <- $r8
	@DEBUG_VALUE: lv_table_set_cell_value:cell <- $r7
	@DEBUG_VALUE: lv_table_set_cell_value:row <- $r6
	@DEBUG_VALUE: lv_table_set_cell_value:txt <- $r5
	@DEBUG_VALUE: lv_table_set_cell_value:table <- $r4
	@DEBUG_VALUE: lv_table_set_cell_value:format <- $r9
	.loc	10 183 48                       @ lvgl/src/lv_widgets/lv_table.c:183:48
	ldr.w	r0, [r8, #4]
	.loc	10 183 43 is_stmt 0             @ lvgl/src/lv_widgets/lv_table.c:183:43
	ldr.w	r6, [r0, r7, lsl #2]
.Ltmp309:
	.loc	10 183 65                       @ lvgl/src/lv_widgets/lv_table.c:183:65
	mov	r0, r5
	bl	strlen
	.loc	10 183 77                       @ lvgl/src/lv_widgets/lv_table.c:183:77
	adds	r1, r0, #2
	.loc	10 183 28                       @ lvgl/src/lv_widgets/lv_table.c:183:28
	mov	r0, r6
	bl	lv_mem_realloc
	.loc	10 183 10                       @ lvgl/src/lv_widgets/lv_table.c:183:10
	ldr.w	r1, [r8, #4]
	.loc	10 183 26                       @ lvgl/src/lv_widgets/lv_table.c:183:26
	str.w	r0, [r1, r7, lsl #2]
.Ltmp310:
	.loc	10 184 5 is_stmt 1              @ lvgl/src/lv_widgets/lv_table.c:184:5
	ldr.w	r0, [r8, #4]
	ldr.w	r0, [r0, r7, lsl #2]
	bl	lv_debug_check_null
.Ltmp311:
	.loc	10 0 0 is_stmt 0                @ lvgl/src/lv_widgets/lv_table.c:0:0
	ldr.w	r1, [r8, #4]
	ldr.w	r2, [r1, r7, lsl #2]
.Ltmp312:
	.loc	10 184 5                        @ lvgl/src/lv_widgets/lv_table.c:184:5
	cbz	r0, .LBB5_16
.Ltmp313:
@ %bb.13:
	@DEBUG_VALUE: lv_table_set_cell_value:format <- $r9
	@DEBUG_VALUE: lv_table_set_cell_value:ext <- $r8
	@DEBUG_VALUE: lv_table_set_cell_value:cell <- $r7
	@DEBUG_VALUE: lv_table_set_cell_value:txt <- $r5
	@DEBUG_VALUE: lv_table_set_cell_value:table <- $r4
	.loc	10 185 8 is_stmt 1              @ lvgl/src/lv_widgets/lv_table.c:185:8
	cbz	r2, .LBB5_15
.Ltmp314:
@ %bb.14:
	@DEBUG_VALUE: lv_table_set_cell_value:format <- $r9
	@DEBUG_VALUE: lv_table_set_cell_value:ext <- $r8
	@DEBUG_VALUE: lv_table_set_cell_value:cell <- $r7
	@DEBUG_VALUE: lv_table_set_cell_value:txt <- $r5
	@DEBUG_VALUE: lv_table_set_cell_value:table <- $r4
	.loc	10 187 33                       @ lvgl/src/lv_widgets/lv_table.c:187:33
	adds	r0, r2, #1
	.loc	10 187 5 is_stmt 0              @ lvgl/src/lv_widgets/lv_table.c:187:5
	mov	r1, r5
	bl	strcpy
	.loc	10 190 10 is_stmt 1             @ lvgl/src/lv_widgets/lv_table.c:190:10
	ldr.w	r0, [r8, #4]
	.loc	10 190 5 is_stmt 0              @ lvgl/src/lv_widgets/lv_table.c:190:5
	ldr.w	r0, [r0, r7, lsl #2]
	.loc	10 190 29                       @ lvgl/src/lv_widgets/lv_table.c:190:29
	strb.w	r9, [r0]
	.loc	10 191 5 is_stmt 1              @ lvgl/src/lv_widgets/lv_table.c:191:5
	mov	r0, r4
	bl	refr_size
.Ltmp315:
.LBB5_15:
	@DEBUG_VALUE: lv_table_set_cell_value:ext <- $r8
	@DEBUG_VALUE: lv_table_set_cell_value:txt <- $r5
	@DEBUG_VALUE: lv_table_set_cell_value:table <- $r4
	.loc	10 192 1                        @ lvgl/src/lv_widgets/lv_table.c:192:1
	add	sp, #4
	pop.w	{r4, r5, r6, r7, r8, r9, pc}
.Ltmp316:
.LBB5_16:
	@DEBUG_VALUE: lv_table_set_cell_value:format <- $r9
	@DEBUG_VALUE: lv_table_set_cell_value:ext <- $r8
	@DEBUG_VALUE: lv_table_set_cell_value:cell <- $r7
	@DEBUG_VALUE: lv_table_set_cell_value:txt <- $r5
	@DEBUG_VALUE: lv_table_set_cell_value:table <- $r4
	.loc	10 184 5                        @ lvgl/src/lv_widgets/lv_table.c:184:5
	movw	r0, :lower16:.L.str
	movs	r3, #0
	movt	r0, :upper16:.L.str
	bl	lv_debug_log_error
.Ltmp317:
	.p2align	2
.LBB5_17:                               @ =>This Inner Loop Header: Depth=1
	@DEBUG_VALUE: lv_table_set_cell_value:format <- $r9
	@DEBUG_VALUE: lv_table_set_cell_value:ext <- $r8
	@DEBUG_VALUE: lv_table_set_cell_value:cell <- $r7
	@DEBUG_VALUE: lv_table_set_cell_value:txt <- $r5
	@DEBUG_VALUE: lv_table_set_cell_value:table <- $r4
	b	.LBB5_17
.Ltmp318:
.Lfunc_end5:
	.size	lv_table_set_cell_value, .Lfunc_end5-lv_table_set_cell_value
	.cfi_endproc
	.cantunwind
	.fnend
                                        @ -- End function
	.section	.text.refr_size,"ax",%progbits
	.p2align	3                               @ -- Begin function refr_size
	.type	refr_size,%function
	.code	16                              @ @refr_size
	.thumb_func
refr_size:
.Lfunc_begin6:
	.loc	10 1082 0                       @ lvgl/src/lv_widgets/lv_table.c:1082:0
	.fnstart
	.cfi_startproc
@ %bb.0:
	@DEBUG_VALUE: refr_size:table <- $r0
	.save	{r4, r5, r6, r7, r8, r9, r10, r11, lr}
	push.w	{r4, r5, r6, r7, r8, r9, r10, r11, lr}
	.cfi_def_cfa_offset 36
	.cfi_offset lr, -4
	.cfi_offset r11, -8
	.cfi_offset r10, -12
	.cfi_offset r9, -16
	.cfi_offset r8, -20
	.cfi_offset r7, -24
	.cfi_offset r6, -28
	.cfi_offset r5, -32
	.cfi_offset r4, -36
	.pad	#84
	sub	sp, #84
	.cfi_def_cfa_offset 120
	mov	r4, r0
.Ltmp319:
	@DEBUG_VALUE: refr_size:w <- 0
	@DEBUG_VALUE: refr_size:h <- 0
	@DEBUG_VALUE: refr_size:table <- $r4
	.loc	10 1086 28 prologue_end         @ lvgl/src/lv_widgets/lv_table.c:1086:28
	bl	lv_obj_get_ext_attr
	mov	r11, r0
.Ltmp320:
	@DEBUG_VALUE: refr_size:ext <- $r11
	.loc	10 1087 13                      @ lvgl/src/lv_widgets/lv_table.c:1087:13
	ldrh	r0, [r0, #2]
	.loc	10 1087 26 is_stmt 0            @ lvgl/src/lv_widgets/lv_table.c:1087:26
	cmp	r0, #0
	beq	.LBB6_8
.Ltmp321:
@ %bb.1:
	@DEBUG_VALUE: refr_size:ext <- $r11
	@DEBUG_VALUE: refr_size:table <- $r4
	@DEBUG_VALUE: refr_size:h <- 0
	@DEBUG_VALUE: refr_size:w <- 0
	.loc	10 1087 34                      @ lvgl/src/lv_widgets/lv_table.c:1087:34
	ldrh.w	r0, [r11]
.Ltmp322:
	.loc	10 1087 8                       @ lvgl/src/lv_widgets/lv_table.c:1087:8
	cmp	r0, #0
	beq	.LBB6_8
.Ltmp323:
@ %bb.2:
	@DEBUG_VALUE: refr_size:ext <- $r11
	@DEBUG_VALUE: refr_size:table <- $r4
	@DEBUG_VALUE: refr_size:h <- 0
	@DEBUG_VALUE: refr_size:w <- 0
	@DEBUG_VALUE: refr_size:w <- undef
	@DEBUG_VALUE: refr_size:i <- 0
	.loc	10 1093 5 is_stmt 1             @ lvgl/src/lv_widgets/lv_table.c:1093:5
	add.w	r1, r11, #42
	movs	r2, #0
.Ltmp324:
	.p2align	2
.LBB6_3:                                @ =>This Inner Loop Header: Depth=1
	@DEBUG_VALUE: refr_size:ext <- $r11
	@DEBUG_VALUE: refr_size:table <- $r4
	@DEBUG_VALUE: refr_size:h <- 0
	@DEBUG_VALUE: refr_size:i <- undef
	.loc	10 1094 14                      @ lvgl/src/lv_widgets/lv_table.c:1094:14
	ldrh	r3, [r1, #2]!
.Ltmp325:
	.loc	10 1093 18                      @ lvgl/src/lv_widgets/lv_table.c:1093:18
	subs	r0, #1
.Ltmp326:
	.loc	10 1094 11                      @ lvgl/src/lv_widgets/lv_table.c:1094:11
	add.w	r7, r2, r3
.Ltmp327:
	@DEBUG_VALUE: refr_size:i <- [DW_OP_plus_uconst 1, DW_OP_stack_value] undef
	@DEBUG_VALUE: refr_size:w <- [DW_OP_LLVM_convert 32 7, DW_OP_LLVM_convert 16 7, DW_OP_stack_value] undef
	.loc	10 1093 5                       @ lvgl/src/lv_widgets/lv_table.c:1093:5
	sxth	r2, r7
.Ltmp328:
	@DEBUG_VALUE: refr_size:w <- undef
	.loc	10 1093 5 is_stmt 0             @ lvgl/src/lv_widgets/lv_table.c:1093:5
	bne	.LBB6_3
.Ltmp329:
@ %bb.4:
	@DEBUG_VALUE: refr_size:ext <- $r11
	@DEBUG_VALUE: refr_size:table <- $r4
	@DEBUG_VALUE: refr_size:h <- 0
	.loc	10 0 5                          @ lvgl/src/lv_widgets/lv_table.c:0:5
	movs	r5, #0
.Ltmp330:
	@DEBUG_VALUE: refr_size:i <- 0
	add.w	r9, sp, #76
	add.w	r10, sp, #68
	add	r1, sp, #60
	add	r2, sp, #52
	add	r3, sp, #36
	mov.w	r8, #0
	b	.LBB6_6
.Ltmp331:
	.p2align	2
.LBB6_5:                                @   in Loop: Header=BB6_6 Depth=1
	@DEBUG_VALUE: refr_size:ext <- $r11
	@DEBUG_VALUE: refr_size:i <- $r5
	@DEBUG_VALUE: refr_size:table <- $r4
	@DEBUG_VALUE: refr_size:h <- 0
	.loc	10 1105 46 is_stmt 1            @ lvgl/src/lv_widgets/lv_table.c:1105:46
	adds	r5, #1
.Ltmp332:
	add.w	r8, r8, #1
.Ltmp333:
	@DEBUG_VALUE: refr_size:i <- $r5
	.loc	10 1105 5 is_stmt 0             @ lvgl/src/lv_widgets/lv_table.c:1105:5
	cmp	r5, #4
	beq	.LBB6_9
.Ltmp334:
.LBB6_6:                                @ =>This Inner Loop Header: Depth=1
	@DEBUG_VALUE: refr_size:ext <- $r11
	@DEBUG_VALUE: refr_size:table <- $r4
	@DEBUG_VALUE: refr_size:h <- 0
	@DEBUG_VALUE: refr_size:i <- $r5
	.loc	10 1106 18 is_stmt 1            @ lvgl/src/lv_widgets/lv_table.c:1106:18
	ldrb.w	r0, [r11, #68]
	.loc	10 1106 13 is_stmt 0            @ lvgl/src/lv_widgets/lv_table.c:1106:13
	and	r0, r0, #15
.Ltmp335:
	.loc	10 1106 12                      @ lvgl/src/lv_widgets/lv_table.c:1106:12
	lsrs	r0, r5
	lsls	r0, r0, #31
	beq	.LBB6_5
.Ltmp336:
@ %bb.7:                                @   in Loop: Header=BB6_6 Depth=1
	@DEBUG_VALUE: refr_size:ext <- $r11
	@DEBUG_VALUE: refr_size:i <- $r5
	@DEBUG_VALUE: refr_size:table <- $r4
	@DEBUG_VALUE: refr_size:h <- 0
	.loc	10 1107 57 is_stmt 1            @ lvgl/src/lv_widgets/lv_table.c:1107:57
	add.w	r0, r8, #1
	.loc	10 1107 24 is_stmt 0            @ lvgl/src/lv_widgets/lv_table.c:1107:24
	uxtb	r6, r0
	mov	r0, r4
	mov	r1, r6
	bl	lv_obj_get_style_pad_left
	.loc	10 1107 22                      @ lvgl/src/lv_widgets/lv_table.c:1107:22
	strh.w	r0, [r9, r5, lsl #1]
	.loc	10 1108 25 is_stmt 1            @ lvgl/src/lv_widgets/lv_table.c:1108:25
	mov	r0, r4
	mov	r1, r6
	bl	lv_obj_get_style_pad_right
	.loc	10 1108 23 is_stmt 0            @ lvgl/src/lv_widgets/lv_table.c:1108:23
	strh.w	r0, [r10, r5, lsl #1]
	.loc	10 1109 23 is_stmt 1            @ lvgl/src/lv_widgets/lv_table.c:1109:23
	mov	r0, r4
	mov	r1, r6
	bl	lv_obj_get_style_pad_top
	.loc	10 1109 21 is_stmt 0            @ lvgl/src/lv_widgets/lv_table.c:1109:21
	add	r1, sp, #60
	strh.w	r0, [r1, r5, lsl #1]
	.loc	10 1110 26 is_stmt 1            @ lvgl/src/lv_widgets/lv_table.c:1110:26
	mov	r0, r4
	mov	r1, r6
	bl	lv_obj_get_style_pad_bottom
	.loc	10 1110 24 is_stmt 0            @ lvgl/src/lv_widgets/lv_table.c:1110:24
	add	r1, sp, #52
	strh.w	r0, [r1, r5, lsl #1]
	.loc	10 1111 27 is_stmt 1            @ lvgl/src/lv_widgets/lv_table.c:1111:27
	mov	r0, r4
	mov	r1, r6
	bl	lv_obj_get_style_text_letter_space
	.loc	10 1111 25 is_stmt 0            @ lvgl/src/lv_widgets/lv_table.c:1111:25
	add	r1, sp, #44
	strh.w	r0, [r1, r5, lsl #1]
	.loc	10 1112 25 is_stmt 1            @ lvgl/src/lv_widgets/lv_table.c:1112:25
	mov	r0, r4
	mov	r1, r6
	bl	lv_obj_get_style_text_line_space
	.loc	10 1112 23 is_stmt 0            @ lvgl/src/lv_widgets/lv_table.c:1112:23
	add	r1, sp, #36
	strh.w	r0, [r1, r5, lsl #1]
	.loc	10 1113 19 is_stmt 1            @ lvgl/src/lv_widgets/lv_table.c:1113:19
	mov	r0, r4
	mov	r1, r6
	bl	lv_obj_get_style_text_font
	.loc	10 1113 17 is_stmt 0            @ lvgl/src/lv_widgets/lv_table.c:1113:17
	add	r6, sp, #20
	add	r3, sp, #36
	add	r2, sp, #52
	add	r1, sp, #60
	str.w	r0, [r6, r5, lsl #2]
	b	.LBB6_5
.Ltmp337:
.LBB6_8:
	@DEBUG_VALUE: refr_size:ext <- $r11
	@DEBUG_VALUE: refr_size:table <- $r4
	@DEBUG_VALUE: refr_size:h <- 0
	@DEBUG_VALUE: refr_size:w <- 0
	.loc	10 1088 9 is_stmt 1             @ lvgl/src/lv_widgets/lv_table.c:1088:9
	movs	r1, #0
	movs	r2, #0
	mov	r0, r4
	bl	lv_obj_set_size
.Ltmp338:
	.loc	10 1131 1                       @ lvgl/src/lv_widgets/lv_table.c:1131:1
	add	sp, #84
	pop.w	{r4, r5, r6, r7, r8, r9, r10, r11, pc}
.Ltmp339:
.LBB6_9:
	@DEBUG_VALUE: refr_size:ext <- $r11
	@DEBUG_VALUE: refr_size:i <- $r5
	@DEBUG_VALUE: refr_size:table <- $r4
	@DEBUG_VALUE: refr_size:h <- 0
	@DEBUG_VALUE: refr_size:h <- undef
	@DEBUG_VALUE: refr_size:i <- 0
	.loc	10 1116 25                      @ lvgl/src/lv_widgets/lv_table.c:1116:25
	ldrh.w	r0, [r11, #2]
.Ltmp340:
	.loc	10 1116 5 is_stmt 0             @ lvgl/src/lv_widgets/lv_table.c:1116:5
	cbz	r0, .LBB6_12
.Ltmp341:
@ %bb.10:
	@DEBUG_VALUE: refr_size:ext <- $r11
	@DEBUG_VALUE: refr_size:table <- $r4
	@DEBUG_VALUE: refr_size:i <- 0
	.loc	10 0 5                          @ lvgl/src/lv_widgets/lv_table.c:0:5
	mov.w	r9, #0
	add	r6, sp, #44
	mov	r8, r10
	mov.w	r10, #0
.Ltmp342:
	.p2align	2
.LBB6_11:                               @ =>This Inner Loop Header: Depth=1
	@DEBUG_VALUE: refr_size:ext <- $r11
	@DEBUG_VALUE: refr_size:table <- $r4
	@DEBUG_VALUE: refr_size:i <- $r9
	.loc	10 1117 25 is_stmt 1            @ lvgl/src/lv_widgets/lv_table.c:1117:25
	str	r3, [sp]
	add	r0, sp, #76
	strd	r0, r8, [sp, #4]
	str	r1, [sp, #12]
	mov	r0, r4
	uxth.w	r1, r9
	str	r2, [sp, #16]
	add	r2, sp, #20
	mov	r3, r6
	bl	get_row_height
	.loc	10 1119 11                      @ lvgl/src/lv_widgets/lv_table.c:1119:11
	uxtah	r5, r10, r0
.Ltmp343:
	@DEBUG_VALUE: refr_size:h <- [DW_OP_LLVM_convert 32 7, DW_OP_LLVM_convert 16 7, DW_OP_stack_value] undef
	.loc	10 1117 14                      @ lvgl/src/lv_widgets/lv_table.c:1117:14
	ldr.w	r1, [r11, #8]
	add	r3, sp, #36
	add	r2, sp, #52
.Ltmp344:
	.loc	10 1116 5                       @ lvgl/src/lv_widgets/lv_table.c:1116:5
	sxth.w	r10, r5
.Ltmp345:
	@DEBUG_VALUE: refr_size:h <- undef
	.loc	10 1117 23                      @ lvgl/src/lv_widgets/lv_table.c:1117:23
	strh.w	r0, [r1, r9, lsl #1]
.Ltmp346:
	.loc	10 1116 25                      @ lvgl/src/lv_widgets/lv_table.c:1116:25
	ldrh.w	r1, [r11, #2]
	.loc	10 1116 35 is_stmt 0            @ lvgl/src/lv_widgets/lv_table.c:1116:35
	add.w	r9, r9, #1
.Ltmp347:
	@DEBUG_VALUE: refr_size:i <- $r9
	.loc	10 1116 5                       @ lvgl/src/lv_widgets/lv_table.c:1116:5
	cmp	r9, r1
	add	r1, sp, #60
	blo	.LBB6_11
	b	.LBB6_13
.Ltmp348:
.LBB6_12:
	@DEBUG_VALUE: refr_size:ext <- $r11
	@DEBUG_VALUE: refr_size:table <- $r4
	@DEBUG_VALUE: refr_size:i <- 0
	.loc	10 0 5                          @ lvgl/src/lv_widgets/lv_table.c:0:5
	movs	r5, #0
.Ltmp349:
.LBB6_13:
	@DEBUG_VALUE: refr_size:ext <- $r11
	@DEBUG_VALUE: refr_size:table <- $r4
	.loc	10 1122 29 is_stmt 1            @ lvgl/src/lv_widgets/lv_table.c:1122:29
	movs	r1, #0
	mov	r0, r4
	bl	lv_obj_get_style_pad_top
	mov	r8, r0
.Ltmp350:
	@DEBUG_VALUE: refr_size:bg_top <- $r8
	.loc	10 1123 32                      @ lvgl/src/lv_widgets/lv_table.c:1123:32
	movs	r1, #0
	mov	r0, r4
	bl	lv_obj_get_style_pad_bottom
	mov	r9, r0
.Ltmp351:
	@DEBUG_VALUE: refr_size:bg_bottom <- $r9
	.loc	10 1124 30                      @ lvgl/src/lv_widgets/lv_table.c:1124:30
	movs	r1, #0
	mov	r0, r4
	bl	lv_obj_get_style_pad_left
	mov	r6, r0
.Ltmp352:
	@DEBUG_VALUE: refr_size:bg_left <- $r6
	.loc	10 1125 31                      @ lvgl/src/lv_widgets/lv_table.c:1125:31
	movs	r1, #0
	mov	r0, r4
	bl	lv_obj_get_style_pad_right
.Ltmp353:
	@DEBUG_VALUE: refr_size:bg_right <- $r0
	@DEBUG_VALUE: refr_size:w <- [DW_OP_LLVM_convert 32 7, DW_OP_LLVM_convert 16 7, DW_OP_stack_value] undef
	@DEBUG_VALUE: refr_size:h <- [DW_OP_LLVM_convert 32 7, DW_OP_LLVM_convert 16 7, DW_OP_stack_value] undef
	.loc	10 1129 28                      @ lvgl/src/lv_widgets/lv_table.c:1129:28
	adds	r1, r6, r7
	.loc	10 1129 35 is_stmt 0            @ lvgl/src/lv_widgets/lv_table.c:1129:35
	add.w	r2, r8, r5
	.loc	10 1129 28                      @ lvgl/src/lv_widgets/lv_table.c:1129:28
	add	r0, r1
.Ltmp354:
	.loc	10 1129 35                      @ lvgl/src/lv_widgets/lv_table.c:1129:35
	add.w	r1, r2, r9
	.loc	10 1129 28                      @ lvgl/src/lv_widgets/lv_table.c:1129:28
	adds	r0, #1
	.loc	10 1129 35                      @ lvgl/src/lv_widgets/lv_table.c:1129:35
	adds	r1, #1
	.loc	10 1129 5                       @ lvgl/src/lv_widgets/lv_table.c:1129:5
	sxth	r2, r1
	sxth	r1, r0
	mov	r0, r4
	bl	lv_obj_set_size
	.loc	10 1130 5 is_stmt 1             @ lvgl/src/lv_widgets/lv_table.c:1130:5
	mov	r0, r4
	bl	lv_obj_invalidate
	.loc	10 1131 1                       @ lvgl/src/lv_widgets/lv_table.c:1131:1
	add	sp, #84
	pop.w	{r4, r5, r6, r7, r8, r9, r10, r11, pc}
.Ltmp355:
.Lfunc_end6:
	.size	refr_size, .Lfunc_end6-refr_size
	.cfi_endproc
	.cantunwind
	.fnend
                                        @ -- End function
	.section	.text.lv_table_set_cell_value_fmt,"ax",%progbits
	.hidden	lv_table_set_cell_value_fmt     @ -- Begin function lv_table_set_cell_value_fmt
	.globl	lv_table_set_cell_value_fmt
	.p2align	3
	.type	lv_table_set_cell_value_fmt,%function
	.code	16                              @ @lv_table_set_cell_value_fmt
	.thumb_func
lv_table_set_cell_value_fmt:
.Lfunc_begin7:
	.loc	10 202 0                        @ lvgl/src/lv_widgets/lv_table.c:202:0
	.fnstart
	.cfi_startproc
@ %bb.0:
	@DEBUG_VALUE: lv_table_set_cell_value_fmt:table <- $r0
	@DEBUG_VALUE: lv_table_set_cell_value_fmt:row <- $r1
	@DEBUG_VALUE: lv_table_set_cell_value_fmt:col <- $r2
	@DEBUG_VALUE: lv_table_set_cell_value_fmt:fmt <- $r3
	.save	{r4, r5, r6, r7, r8, r9, lr}
	push.w	{r4, r5, r6, r7, r8, r9, lr}
	.cfi_def_cfa_offset 28
	.cfi_offset lr, -4
	.cfi_offset r9, -8
	.cfi_offset r8, -12
	.cfi_offset r7, -16
	.cfi_offset r6, -20
	.cfi_offset r5, -24
	.cfi_offset r4, -28
	.pad	#12
	sub	sp, #12
	.cfi_def_cfa_offset 40
	mov	r5, r3
.Ltmp356:
	@DEBUG_VALUE: lv_table_set_cell_value_fmt:fmt <- $r5
	mov	r7, r2
.Ltmp357:
	@DEBUG_VALUE: lv_table_set_cell_value_fmt:col <- $r7
	mov	r6, r1
.Ltmp358:
	@DEBUG_VALUE: lv_table_set_cell_value_fmt:row <- $r6
	mov	r4, r0
	@DEBUG_VALUE: lv_table_set_cell_value_fmt:fmt <- $r5
	@DEBUG_VALUE: lv_table_set_cell_value_fmt:col <- $r7
	@DEBUG_VALUE: lv_table_set_cell_value_fmt:row <- $r6
.Ltmp359:
	@DEBUG_VALUE: lv_table_set_cell_value_fmt:table <- $r4
	.loc	10 203 5 prologue_end           @ lvgl/src/lv_widgets/lv_table.c:203:5
	bl	lv_debug_check_null
.Ltmp360:
	.loc	10 203 5 is_stmt 0              @ lvgl/src/lv_widgets/lv_table.c:203:5
	cbz	r0, .LBB7_7
.Ltmp361:
@ %bb.1:
	@DEBUG_VALUE: lv_table_set_cell_value_fmt:col <- $r7
	@DEBUG_VALUE: lv_table_set_cell_value_fmt:row <- $r6
	@DEBUG_VALUE: lv_table_set_cell_value_fmt:fmt <- $r5
	@DEBUG_VALUE: lv_table_set_cell_value_fmt:table <- $r4
	@DEBUG_VALUE: lv_table_set_cell_value_fmt:row <- $r6
	@DEBUG_VALUE: lv_table_set_cell_value_fmt:col <- $r7
	.loc	10 204 5 is_stmt 1              @ lvgl/src/lv_widgets/lv_table.c:204:5
	mov	r0, r5
	bl	lv_debug_check_null
.Ltmp362:
	.loc	10 204 5 is_stmt 0              @ lvgl/src/lv_widgets/lv_table.c:204:5
	cbz	r0, .LBB7_9
.Ltmp363:
@ %bb.2:
	@DEBUG_VALUE: lv_table_set_cell_value_fmt:col <- $r7
	@DEBUG_VALUE: lv_table_set_cell_value_fmt:row <- $r6
	@DEBUG_VALUE: lv_table_set_cell_value_fmt:fmt <- $r5
	@DEBUG_VALUE: lv_table_set_cell_value_fmt:table <- $r4
	@DEBUG_VALUE: lv_table_set_cell_value_fmt:row <- $r6
	@DEBUG_VALUE: lv_table_set_cell_value_fmt:col <- $r7
	.loc	10 206 28 is_stmt 1             @ lvgl/src/lv_widgets/lv_table.c:206:28
	mov	r0, r4
	bl	lv_obj_get_ext_attr
	mov	r8, r0
.Ltmp364:
	@DEBUG_VALUE: lv_table_set_cell_value_fmt:ext <- $r8
	.loc	10 207 20                       @ lvgl/src/lv_widgets/lv_table.c:207:20
	ldrh	r0, [r0]
.Ltmp365:
	.loc	10 207 8 is_stmt 0              @ lvgl/src/lv_widgets/lv_table.c:207:8
	cmp	r0, r7
	bls	.LBB7_15
.Ltmp366:
@ %bb.3:
	@DEBUG_VALUE: lv_table_set_cell_value_fmt:ext <- $r8
	@DEBUG_VALUE: lv_table_set_cell_value_fmt:col <- $r7
	@DEBUG_VALUE: lv_table_set_cell_value_fmt:row <- $r6
	@DEBUG_VALUE: lv_table_set_cell_value_fmt:fmt <- $r5
	@DEBUG_VALUE: lv_table_set_cell_value_fmt:table <- $r4
	@DEBUG_VALUE: lv_table_set_cell_value_fmt:row <- $r6
	@DEBUG_VALUE: lv_table_set_cell_value_fmt:col <- $r7
	.loc	10 213 20 is_stmt 1             @ lvgl/src/lv_widgets/lv_table.c:213:20
	ldrh.w	r0, [r8, #2]
.Ltmp367:
	.loc	10 213 8 is_stmt 0              @ lvgl/src/lv_widgets/lv_table.c:213:8
	cmp	r0, r6
	bhi	.LBB7_5
.Ltmp368:
@ %bb.4:
	@DEBUG_VALUE: lv_table_set_cell_value_fmt:ext <- $r8
	@DEBUG_VALUE: lv_table_set_cell_value_fmt:col <- $r7
	@DEBUG_VALUE: lv_table_set_cell_value_fmt:row <- $r6
	@DEBUG_VALUE: lv_table_set_cell_value_fmt:fmt <- $r5
	@DEBUG_VALUE: lv_table_set_cell_value_fmt:table <- $r4
	.loc	10 214 41 is_stmt 1             @ lvgl/src/lv_widgets/lv_table.c:214:41
	adds	r0, r6, #1
	.loc	10 214 9 is_stmt 0              @ lvgl/src/lv_widgets/lv_table.c:214:9
	uxth	r1, r0
	mov	r0, r4
	bl	lv_table_set_row_cnt
.Ltmp369:
.LBB7_5:
	@DEBUG_VALUE: lv_table_set_cell_value_fmt:ext <- $r8
	@DEBUG_VALUE: lv_table_set_cell_value_fmt:col <- $r7
	@DEBUG_VALUE: lv_table_set_cell_value_fmt:row <- $r6
	@DEBUG_VALUE: lv_table_set_cell_value_fmt:fmt <- $r5
	@DEBUG_VALUE: lv_table_set_cell_value_fmt:table <- $r4
	.loc	10 217 32 is_stmt 1             @ lvgl/src/lv_widgets/lv_table.c:217:32
	ldrh.w	r0, [r8]
	.loc	10 217 40 is_stmt 0             @ lvgl/src/lv_widgets/lv_table.c:217:40
	mla	r7, r0, r6, r7
.Ltmp370:
	@DEBUG_VALUE: lv_table_set_cell_value_fmt:cell <- $r7
	.loc	10 221 13 is_stmt 1             @ lvgl/src/lv_widgets/lv_table.c:221:13
	ldr.w	r0, [r8, #4]
	.loc	10 221 8 is_stmt 0              @ lvgl/src/lv_widgets/lv_table.c:221:8
	ldr.w	r0, [r0, r7, lsl #2]
.Ltmp371:
	.loc	10 221 8                        @ lvgl/src/lv_widgets/lv_table.c:221:8
	cbz	r0, .LBB7_11
.Ltmp372:
@ %bb.6:
	@DEBUG_VALUE: lv_table_set_cell_value_fmt:ext <- $r8
	@DEBUG_VALUE: lv_table_set_cell_value_fmt:cell <- $r7
	@DEBUG_VALUE: lv_table_set_cell_value_fmt:row <- $r6
	@DEBUG_VALUE: lv_table_set_cell_value_fmt:fmt <- $r5
	@DEBUG_VALUE: lv_table_set_cell_value_fmt:table <- $r4
	.loc	10 222 30 is_stmt 1             @ lvgl/src/lv_widgets/lv_table.c:222:30
	ldrb.w	r9, [r0]
.Ltmp373:
	@DEBUG_VALUE: lv_table_set_cell_value_fmt:format <- undef
	.loc	10 0 30 is_stmt 0               @ lvgl/src/lv_widgets/lv_table.c:0:30
	b	.LBB7_12
.Ltmp374:
.LBB7_7:
	@DEBUG_VALUE: lv_table_set_cell_value_fmt:col <- $r7
	@DEBUG_VALUE: lv_table_set_cell_value_fmt:row <- $r6
	@DEBUG_VALUE: lv_table_set_cell_value_fmt:fmt <- $r5
	@DEBUG_VALUE: lv_table_set_cell_value_fmt:table <- $r4
	.loc	10 203 5 is_stmt 1              @ lvgl/src/lv_widgets/lv_table.c:203:5
	movw	r0, :lower16:.L.str.1
	movs	r3, #0
	movt	r0, :upper16:.L.str.1
	mov	r2, r4
	bl	lv_debug_log_error
.Ltmp375:
	.p2align	2
.LBB7_8:                                @ =>This Inner Loop Header: Depth=1
	@DEBUG_VALUE: lv_table_set_cell_value_fmt:col <- $r7
	@DEBUG_VALUE: lv_table_set_cell_value_fmt:row <- $r6
	@DEBUG_VALUE: lv_table_set_cell_value_fmt:fmt <- $r5
	@DEBUG_VALUE: lv_table_set_cell_value_fmt:table <- $r4
	b	.LBB7_8
.Ltmp376:
.LBB7_9:
	@DEBUG_VALUE: lv_table_set_cell_value_fmt:col <- $r7
	@DEBUG_VALUE: lv_table_set_cell_value_fmt:row <- $r6
	@DEBUG_VALUE: lv_table_set_cell_value_fmt:fmt <- $r5
	@DEBUG_VALUE: lv_table_set_cell_value_fmt:table <- $r4
	.loc	10 204 5                        @ lvgl/src/lv_widgets/lv_table.c:204:5
	movw	r0, :lower16:.L.str.1
	movs	r3, #0
	movt	r0, :upper16:.L.str.1
	mov	r2, r5
	bl	lv_debug_log_error
.Ltmp377:
	.p2align	2
.LBB7_10:                               @ =>This Inner Loop Header: Depth=1
	@DEBUG_VALUE: lv_table_set_cell_value_fmt:col <- $r7
	@DEBUG_VALUE: lv_table_set_cell_value_fmt:row <- $r6
	@DEBUG_VALUE: lv_table_set_cell_value_fmt:fmt <- $r5
	@DEBUG_VALUE: lv_table_set_cell_value_fmt:table <- $r4
	b	.LBB7_10
.Ltmp378:
.LBB7_11:
	@DEBUG_VALUE: lv_table_set_cell_value_fmt:ext <- $r8
	@DEBUG_VALUE: lv_table_set_cell_value_fmt:cell <- $r7
	@DEBUG_VALUE: lv_table_set_cell_value_fmt:row <- $r6
	@DEBUG_VALUE: lv_table_set_cell_value_fmt:fmt <- $r5
	@DEBUG_VALUE: lv_table_set_cell_value_fmt:table <- $r4
	.loc	10 226 34                       @ lvgl/src/lv_widgets/lv_table.c:226:34
	mov	r0, r4
	bl	lv_obj_get_base_dir
.Ltmp379:
	@DEBUG_VALUE: base_dir <- $r0
	subs	r0, #1
.Ltmp380:
	clz	r0, r0
	lsrs	r0, r0, #5
	.loc	10 227 12                       @ lvgl/src/lv_widgets/lv_table.c:227:12
	lsl.w	r9, r0, #1
.Ltmp381:
.LBB7_12:
	@DEBUG_VALUE: lv_table_set_cell_value_fmt:ext <- $r8
	@DEBUG_VALUE: lv_table_set_cell_value_fmt:cell <- $r7
	@DEBUG_VALUE: lv_table_set_cell_value_fmt:row <- $r6
	@DEBUG_VALUE: lv_table_set_cell_value_fmt:fmt <- $r5
	@DEBUG_VALUE: lv_table_set_cell_value_fmt:table <- $r4
	@DEBUG_VALUE: lv_table_set_cell_value_fmt:format <- $r9
	.loc	10 0 12 is_stmt 0               @ lvgl/src/lv_widgets/lv_table.c:0:12
	add	r3, sp, #40
	.loc	10 245 20 is_stmt 1             @ lvgl/src/lv_widgets/lv_table.c:245:20
	movs	r0, #0
	movs	r1, #0
	mov	r2, r5
	.loc	10 242 5                        @ lvgl/src/lv_widgets/lv_table.c:242:5
	strd	r3, r3, [sp, #4]
	.loc	10 245 20                       @ lvgl/src/lv_widgets/lv_table.c:245:20
	bl	rt_vsnprintf
	.loc	10 271 48                       @ lvgl/src/lv_widgets/lv_table.c:271:48
	ldr.w	r1, [r8, #4]
	.loc	10 245 20                       @ lvgl/src/lv_widgets/lv_table.c:245:20
	mov	r6, r0
.Ltmp382:
	@DEBUG_VALUE: lv_table_set_cell_value_fmt:len <- $r6
	.loc	10 271 43                       @ lvgl/src/lv_widgets/lv_table.c:271:43
	ldr.w	r0, [r1, r7, lsl #2]
	.loc	10 271 69 is_stmt 0             @ lvgl/src/lv_widgets/lv_table.c:271:69
	adds	r1, r6, #2
	.loc	10 271 28                       @ lvgl/src/lv_widgets/lv_table.c:271:28
	bl	lv_mem_realloc
	.loc	10 271 10                       @ lvgl/src/lv_widgets/lv_table.c:271:10
	ldr.w	r1, [r8, #4]
	.loc	10 271 26                       @ lvgl/src/lv_widgets/lv_table.c:271:26
	str.w	r0, [r1, r7, lsl #2]
.Ltmp383:
	.loc	10 272 5 is_stmt 1              @ lvgl/src/lv_widgets/lv_table.c:272:5
	ldr.w	r0, [r8, #4]
	ldr.w	r0, [r0, r7, lsl #2]
	bl	lv_debug_check_null
.Ltmp384:
	.loc	10 0 0 is_stmt 0                @ lvgl/src/lv_widgets/lv_table.c:0:0
	ldr.w	r1, [r8, #4]
	ldr.w	r2, [r1, r7, lsl #2]
.Ltmp385:
	.loc	10 272 5                        @ lvgl/src/lv_widgets/lv_table.c:272:5
	cbz	r0, .LBB7_16
.Ltmp386:
@ %bb.13:
	@DEBUG_VALUE: lv_table_set_cell_value_fmt:format <- $r9
	@DEBUG_VALUE: lv_table_set_cell_value_fmt:ext <- $r8
	@DEBUG_VALUE: lv_table_set_cell_value_fmt:cell <- $r7
	@DEBUG_VALUE: lv_table_set_cell_value_fmt:len <- $r6
	@DEBUG_VALUE: lv_table_set_cell_value_fmt:fmt <- $r5
	@DEBUG_VALUE: lv_table_set_cell_value_fmt:table <- $r4
	.loc	10 273 8 is_stmt 1              @ lvgl/src/lv_widgets/lv_table.c:273:8
	cbz	r2, .LBB7_15
.Ltmp387:
@ %bb.14:
	@DEBUG_VALUE: lv_table_set_cell_value_fmt:format <- $r9
	@DEBUG_VALUE: lv_table_set_cell_value_fmt:ext <- $r8
	@DEBUG_VALUE: lv_table_set_cell_value_fmt:cell <- $r7
	@DEBUG_VALUE: lv_table_set_cell_value_fmt:len <- $r6
	@DEBUG_VALUE: lv_table_set_cell_value_fmt:fmt <- $r5
	@DEBUG_VALUE: lv_table_set_cell_value_fmt:table <- $r4
	.loc	10 278 30                       @ lvgl/src/lv_widgets/lv_table.c:278:30
	adds	r1, r6, #1
	movs	r0, #0
	.loc	10 278 35 is_stmt 0             @ lvgl/src/lv_widgets/lv_table.c:278:35
	strb	r0, [r2, r1]
	.loc	10 280 5 is_stmt 1              @ lvgl/src/lv_widgets/lv_table.c:280:5
	mov	r2, r5
	.loc	10 280 24 is_stmt 0             @ lvgl/src/lv_widgets/lv_table.c:280:24
	ldr.w	r0, [r8, #4]
	.loc	10 280 5                        @ lvgl/src/lv_widgets/lv_table.c:280:5
	ldr	r3, [sp, #4]
	.loc	10 280 19                       @ lvgl/src/lv_widgets/lv_table.c:280:19
	ldr.w	r0, [r0, r7, lsl #2]
	adds	r0, #1
	.loc	10 280 5                        @ lvgl/src/lv_widgets/lv_table.c:280:5
	bl	rt_vsnprintf
	.loc	10 285 10 is_stmt 1             @ lvgl/src/lv_widgets/lv_table.c:285:10
	ldr.w	r0, [r8, #4]
	.loc	10 285 5 is_stmt 0              @ lvgl/src/lv_widgets/lv_table.c:285:5
	ldr.w	r0, [r0, r7, lsl #2]
	.loc	10 285 29                       @ lvgl/src/lv_widgets/lv_table.c:285:29
	strb.w	r9, [r0]
	.loc	10 286 5 is_stmt 1              @ lvgl/src/lv_widgets/lv_table.c:286:5
	mov	r0, r4
	bl	refr_size
.Ltmp388:
.LBB7_15:
	@DEBUG_VALUE: lv_table_set_cell_value_fmt:ext <- $r8
	@DEBUG_VALUE: lv_table_set_cell_value_fmt:fmt <- $r5
	@DEBUG_VALUE: lv_table_set_cell_value_fmt:table <- $r4
	.loc	10 287 1                        @ lvgl/src/lv_widgets/lv_table.c:287:1
	add	sp, #12
	pop.w	{r4, r5, r6, r7, r8, r9, pc}
.Ltmp389:
.LBB7_16:
	@DEBUG_VALUE: lv_table_set_cell_value_fmt:format <- $r9
	@DEBUG_VALUE: lv_table_set_cell_value_fmt:ext <- $r8
	@DEBUG_VALUE: lv_table_set_cell_value_fmt:cell <- $r7
	@DEBUG_VALUE: lv_table_set_cell_value_fmt:len <- $r6
	@DEBUG_VALUE: lv_table_set_cell_value_fmt:fmt <- $r5
	@DEBUG_VALUE: lv_table_set_cell_value_fmt:table <- $r4
	.loc	10 272 5                        @ lvgl/src/lv_widgets/lv_table.c:272:5
	movw	r0, :lower16:.L.str
	movs	r3, #0
	movt	r0, :upper16:.L.str
	bl	lv_debug_log_error
.Ltmp390:
	.p2align	2
.LBB7_17:                               @ =>This Inner Loop Header: Depth=1
	@DEBUG_VALUE: lv_table_set_cell_value_fmt:format <- $r9
	@DEBUG_VALUE: lv_table_set_cell_value_fmt:ext <- $r8
	@DEBUG_VALUE: lv_table_set_cell_value_fmt:cell <- $r7
	@DEBUG_VALUE: lv_table_set_cell_value_fmt:len <- $r6
	@DEBUG_VALUE: lv_table_set_cell_value_fmt:fmt <- $r5
	@DEBUG_VALUE: lv_table_set_cell_value_fmt:table <- $r4
	b	.LBB7_17
.Ltmp391:
.Lfunc_end7:
	.size	lv_table_set_cell_value_fmt, .Lfunc_end7-lv_table_set_cell_value_fmt
	.cfi_endproc
	.cantunwind
	.fnend
                                        @ -- End function
	.section	.text.lv_table_set_col_width,"ax",%progbits
	.hidden	lv_table_set_col_width          @ -- Begin function lv_table_set_col_width
	.globl	lv_table_set_col_width
	.p2align	3
	.type	lv_table_set_col_width,%function
	.code	16                              @ @lv_table_set_col_width
	.thumb_func
lv_table_set_col_width:
.Lfunc_begin8:
	.loc	10 377 0                        @ lvgl/src/lv_widgets/lv_table.c:377:0
	.fnstart
	.cfi_startproc
@ %bb.0:
	@DEBUG_VALUE: lv_table_set_col_width:table <- $r0
	@DEBUG_VALUE: lv_table_set_col_width:col_id <- $r1
	@DEBUG_VALUE: lv_table_set_col_width:w <- $r2
	.save	{r4, r5, r6, lr}
	push	{r4, r5, r6, lr}
	.cfi_def_cfa_offset 16
	.cfi_offset lr, -4
	.cfi_offset r6, -8
	.cfi_offset r5, -12
	.cfi_offset r4, -16
	mov	r5, r2
.Ltmp392:
	@DEBUG_VALUE: lv_table_set_col_width:w <- $r5
	mov	r6, r1
.Ltmp393:
	@DEBUG_VALUE: lv_table_set_col_width:col_id <- $r6
	mov	r4, r0
	@DEBUG_VALUE: lv_table_set_col_width:w <- $r5
	@DEBUG_VALUE: lv_table_set_col_width:col_id <- $r6
.Ltmp394:
	@DEBUG_VALUE: lv_table_set_col_width:table <- $r4
	.loc	10 378 5 prologue_end           @ lvgl/src/lv_widgets/lv_table.c:378:5
	bl	lv_debug_check_null
.Ltmp395:
	.loc	10 378 5 is_stmt 0              @ lvgl/src/lv_widgets/lv_table.c:378:5
	cbz	r0, .LBB8_3
.Ltmp396:
@ %bb.1:
	@DEBUG_VALUE: lv_table_set_col_width:col_id <- $r6
	@DEBUG_VALUE: lv_table_set_col_width:w <- $r5
	@DEBUG_VALUE: lv_table_set_col_width:table <- $r4
	@DEBUG_VALUE: lv_table_set_col_width:w <- $r5
	.loc	10 380 8 is_stmt 1              @ lvgl/src/lv_widgets/lv_table.c:380:8
	cmp	r6, #11
	.loc	10 388 1                        @ lvgl/src/lv_widgets/lv_table.c:388:1
	it	hi
	pophi	{r4, r5, r6, pc}
.Ltmp397:
.LBB8_2:
	@DEBUG_VALUE: lv_table_set_col_width:w <- $r5
	.loc	10 385 28                       @ lvgl/src/lv_widgets/lv_table.c:385:28
	mov	r0, r4
	bl	lv_obj_get_ext_attr
.Ltmp398:
	@DEBUG_VALUE: lv_table_set_col_width:ext <- $r0
	.loc	10 386 10                       @ lvgl/src/lv_widgets/lv_table.c:386:10
	add.w	r0, r0, r6, lsl #1
.Ltmp399:
	.loc	10 386 26 is_stmt 0             @ lvgl/src/lv_widgets/lv_table.c:386:26
	strh	r5, [r0, #44]
	.loc	10 387 5 is_stmt 1              @ lvgl/src/lv_widgets/lv_table.c:387:5
	mov	r0, r4
	bl	refr_size
	.loc	10 388 1                        @ lvgl/src/lv_widgets/lv_table.c:388:1
	pop	{r4, r5, r6, pc}
.Ltmp400:
.LBB8_3:
	@DEBUG_VALUE: lv_table_set_col_width:col_id <- $r6
	@DEBUG_VALUE: lv_table_set_col_width:w <- $r5
	@DEBUG_VALUE: lv_table_set_col_width:table <- $r4
	.loc	10 378 5                        @ lvgl/src/lv_widgets/lv_table.c:378:5
	movw	r0, :lower16:.L.str.1
	movs	r3, #0
	movt	r0, :upper16:.L.str.1
	mov	r2, r4
	bl	lv_debug_log_error
.Ltmp401:
	.p2align	2
.LBB8_4:                                @ =>This Inner Loop Header: Depth=1
	@DEBUG_VALUE: lv_table_set_col_width:col_id <- $r6
	@DEBUG_VALUE: lv_table_set_col_width:w <- $r5
	@DEBUG_VALUE: lv_table_set_col_width:table <- $r4
	b	.LBB8_4
.Ltmp402:
.Lfunc_end8:
	.size	lv_table_set_col_width, .Lfunc_end8-lv_table_set_col_width
	.cfi_endproc
	.cantunwind
	.fnend
                                        @ -- End function
	.section	.text.lv_table_set_cell_align,"ax",%progbits
	.hidden	lv_table_set_cell_align         @ -- Begin function lv_table_set_cell_align
	.globl	lv_table_set_cell_align
	.p2align	3
	.type	lv_table_set_cell_align,%function
	.code	16                              @ @lv_table_set_cell_align
	.thumb_func
lv_table_set_cell_align:
.Lfunc_begin9:
	.loc	10 398 0                        @ lvgl/src/lv_widgets/lv_table.c:398:0
	.fnstart
	.cfi_startproc
@ %bb.0:
	@DEBUG_VALUE: lv_table_set_cell_align:table <- $r0
	@DEBUG_VALUE: lv_table_set_cell_align:row <- $r1
	@DEBUG_VALUE: lv_table_set_cell_align:col <- $r2
	@DEBUG_VALUE: lv_table_set_cell_align:align <- $r3
	.save	{r4, r5, r6, r7, r8, lr}
	push.w	{r4, r5, r6, r7, r8, lr}
	.cfi_def_cfa_offset 24
	.cfi_offset lr, -4
	.cfi_offset r8, -8
	.cfi_offset r7, -12
	.cfi_offset r6, -16
	.cfi_offset r5, -20
	.cfi_offset r4, -24
	mov	r8, r3
.Ltmp403:
	@DEBUG_VALUE: lv_table_set_cell_align:align <- $r8
	mov	r6, r2
.Ltmp404:
	@DEBUG_VALUE: lv_table_set_cell_align:col <- $r6
	mov	r7, r1
.Ltmp405:
	@DEBUG_VALUE: lv_table_set_cell_align:row <- $r7
	mov	r4, r0
	@DEBUG_VALUE: lv_table_set_cell_align:align <- $r8
	@DEBUG_VALUE: lv_table_set_cell_align:col <- $r6
	@DEBUG_VALUE: lv_table_set_cell_align:row <- $r7
.Ltmp406:
	@DEBUG_VALUE: lv_table_set_cell_align:table <- $r4
	.loc	10 399 5 prologue_end           @ lvgl/src/lv_widgets/lv_table.c:399:5
	bl	lv_debug_check_null
.Ltmp407:
	.loc	10 399 5 is_stmt 0              @ lvgl/src/lv_widgets/lv_table.c:399:5
	cbz	r0, .LBB9_10
.Ltmp408:
@ %bb.1:
	@DEBUG_VALUE: lv_table_set_cell_align:align <- $r8
	@DEBUG_VALUE: lv_table_set_cell_align:row <- $r7
	@DEBUG_VALUE: lv_table_set_cell_align:col <- $r6
	@DEBUG_VALUE: lv_table_set_cell_align:table <- $r4
	@DEBUG_VALUE: lv_table_set_cell_align:row <- $r7
	@DEBUG_VALUE: lv_table_set_cell_align:col <- $r6
	.loc	10 401 28 is_stmt 1             @ lvgl/src/lv_widgets/lv_table.c:401:28
	mov	r0, r4
	bl	lv_obj_get_ext_attr
	mov	r5, r0
.Ltmp409:
	@DEBUG_VALUE: lv_table_set_cell_align:ext <- $r5
	.loc	10 402 20                       @ lvgl/src/lv_widgets/lv_table.c:402:20
	ldrh	r0, [r0]
.Ltmp410:
	.loc	10 402 8 is_stmt 0              @ lvgl/src/lv_widgets/lv_table.c:402:8
	cmp	r0, r6
	bls	.LBB9_9
.Ltmp411:
@ %bb.2:
	@DEBUG_VALUE: lv_table_set_cell_align:align <- $r8
	@DEBUG_VALUE: lv_table_set_cell_align:row <- $r7
	@DEBUG_VALUE: lv_table_set_cell_align:col <- $r6
	@DEBUG_VALUE: lv_table_set_cell_align:ext <- $r5
	@DEBUG_VALUE: lv_table_set_cell_align:table <- $r4
	@DEBUG_VALUE: lv_table_set_cell_align:row <- $r7
	@DEBUG_VALUE: lv_table_set_cell_align:col <- $r6
	.loc	10 408 20 is_stmt 1             @ lvgl/src/lv_widgets/lv_table.c:408:20
	ldrh	r0, [r5, #2]
.Ltmp412:
	.loc	10 408 8 is_stmt 0              @ lvgl/src/lv_widgets/lv_table.c:408:8
	cmp	r0, r7
	bhi	.LBB9_4
.Ltmp413:
@ %bb.3:
	@DEBUG_VALUE: lv_table_set_cell_align:align <- $r8
	@DEBUG_VALUE: lv_table_set_cell_align:row <- $r7
	@DEBUG_VALUE: lv_table_set_cell_align:col <- $r6
	@DEBUG_VALUE: lv_table_set_cell_align:ext <- $r5
	@DEBUG_VALUE: lv_table_set_cell_align:table <- $r4
	.loc	10 409 41 is_stmt 1             @ lvgl/src/lv_widgets/lv_table.c:409:41
	adds	r0, r7, #1
	.loc	10 409 9 is_stmt 0              @ lvgl/src/lv_widgets/lv_table.c:409:9
	uxth	r1, r0
	mov	r0, r4
	bl	lv_table_set_row_cnt
.Ltmp414:
.LBB9_4:
	@DEBUG_VALUE: lv_table_set_cell_align:align <- $r8
	@DEBUG_VALUE: lv_table_set_cell_align:row <- $r7
	@DEBUG_VALUE: lv_table_set_cell_align:col <- $r6
	@DEBUG_VALUE: lv_table_set_cell_align:ext <- $r5
	@DEBUG_VALUE: lv_table_set_cell_align:table <- $r4
	.loc	10 411 32 is_stmt 1             @ lvgl/src/lv_widgets/lv_table.c:411:32
	ldrh	r0, [r5]
	.loc	10 411 40 is_stmt 0             @ lvgl/src/lv_widgets/lv_table.c:411:40
	mla	r4, r0, r7, r6
.Ltmp415:
	@DEBUG_VALUE: lv_table_set_cell_align:cell <- $r4
	.loc	10 413 13 is_stmt 1             @ lvgl/src/lv_widgets/lv_table.c:413:13
	ldr	r0, [r5, #4]
	.loc	10 413 8 is_stmt 0              @ lvgl/src/lv_widgets/lv_table.c:413:8
	ldr.w	r0, [r0, r4, lsl #2]
.Ltmp416:
	.loc	10 413 8                        @ lvgl/src/lv_widgets/lv_table.c:413:8
	cbnz	r0, .LBB9_8
.Ltmp417:
@ %bb.5:
	@DEBUG_VALUE: lv_table_set_cell_align:align <- $r8
	@DEBUG_VALUE: lv_table_set_cell_align:row <- $r7
	@DEBUG_VALUE: lv_table_set_cell_align:col <- $r6
	@DEBUG_VALUE: lv_table_set_cell_align:ext <- $r5
	@DEBUG_VALUE: lv_table_set_cell_align:cell <- $r4
	.loc	10 414 35 is_stmt 1             @ lvgl/src/lv_widgets/lv_table.c:414:35
	movs	r0, #2
	bl	lv_mem_alloc
	.loc	10 414 14 is_stmt 0             @ lvgl/src/lv_widgets/lv_table.c:414:14
	ldr	r1, [r5, #4]
	.loc	10 414 33                       @ lvgl/src/lv_widgets/lv_table.c:414:33
	str.w	r0, [r1, r4, lsl #2]
.Ltmp418:
	.loc	10 415 9 is_stmt 1              @ lvgl/src/lv_widgets/lv_table.c:415:9
	ldr	r0, [r5, #4]
	ldr.w	r0, [r0, r4, lsl #2]
	bl	lv_debug_check_null
.Ltmp419:
	.loc	10 0 0 is_stmt 0                @ lvgl/src/lv_widgets/lv_table.c:0:0
	ldr	r1, [r5, #4]
	ldr.w	r2, [r1, r4, lsl #2]
.Ltmp420:
	.loc	10 415 9                        @ lvgl/src/lv_widgets/lv_table.c:415:9
	cbz	r0, .LBB9_12
.Ltmp421:
@ %bb.6:
	@DEBUG_VALUE: lv_table_set_cell_align:align <- $r8
	@DEBUG_VALUE: lv_table_set_cell_align:row <- $r7
	@DEBUG_VALUE: lv_table_set_cell_align:col <- $r6
	@DEBUG_VALUE: lv_table_set_cell_align:ext <- $r5
	@DEBUG_VALUE: lv_table_set_cell_align:cell <- $r4
	.loc	10 416 12 is_stmt 1             @ lvgl/src/lv_widgets/lv_table.c:416:12
	cmp	r2, #0
.Ltmp422:
	.loc	10 426 1                        @ lvgl/src/lv_widgets/lv_table.c:426:1
	it	eq
	popeq.w	{r4, r5, r6, r7, r8, pc}
.Ltmp423:
.LBB9_7:
	.loc	10 0 1 is_stmt 0                @ lvgl/src/lv_widgets/lv_table.c:0:1
	movs	r0, #0
.Ltmp424:
	.loc	10 418 33 is_stmt 1             @ lvgl/src/lv_widgets/lv_table.c:418:33
	strb	r0, [r2]
	.loc	10 419 14                       @ lvgl/src/lv_widgets/lv_table.c:419:14
	ldr	r1, [r5, #4]
	.loc	10 419 9 is_stmt 0              @ lvgl/src/lv_widgets/lv_table.c:419:9
	ldr.w	r1, [r1, r4, lsl #2]
	.loc	10 419 33                       @ lvgl/src/lv_widgets/lv_table.c:419:33
	strb	r0, [r1, #1]
.Ltmp425:
.LBB9_8:
	.loc	10 423 36 is_stmt 1             @ lvgl/src/lv_widgets/lv_table.c:423:36
	ldr	r0, [r5, #4]
	.loc	10 424 29                       @ lvgl/src/lv_widgets/lv_table.c:424:29
	and	r2, r8, #3
	.loc	10 423 31                       @ lvgl/src/lv_widgets/lv_table.c:423:31
	ldr.w	r0, [r0, r4, lsl #2]
	ldrb	r1, [r0]
.Ltmp426:
	@DEBUG_VALUE: lv_table_set_cell_align:format <- $r1
	.loc	10 424 29                       @ lvgl/src/lv_widgets/lv_table.c:424:29
	and	r1, r1, #252
.Ltmp427:
	add	r1, r2
.Ltmp428:
	@DEBUG_VALUE: lv_table_set_cell_align:format <- $r1
	.loc	10 425 29                       @ lvgl/src/lv_widgets/lv_table.c:425:29
	strb	r1, [r0]
.Ltmp429:
.LBB9_9:
	.loc	10 426 1                        @ lvgl/src/lv_widgets/lv_table.c:426:1
	pop.w	{r4, r5, r6, r7, r8, pc}
.LBB9_10:
.Ltmp430:
	@DEBUG_VALUE: lv_table_set_cell_align:align <- $r8
	@DEBUG_VALUE: lv_table_set_cell_align:row <- $r7
	@DEBUG_VALUE: lv_table_set_cell_align:col <- $r6
	@DEBUG_VALUE: lv_table_set_cell_align:table <- $r4
	.loc	10 399 5                        @ lvgl/src/lv_widgets/lv_table.c:399:5
	movw	r0, :lower16:.L.str.1
	movs	r3, #0
	movt	r0, :upper16:.L.str.1
	mov	r2, r4
	bl	lv_debug_log_error
.Ltmp431:
	.p2align	2
.LBB9_11:                               @ =>This Inner Loop Header: Depth=1
	@DEBUG_VALUE: lv_table_set_cell_align:align <- $r8
	@DEBUG_VALUE: lv_table_set_cell_align:row <- $r7
	@DEBUG_VALUE: lv_table_set_cell_align:col <- $r6
	@DEBUG_VALUE: lv_table_set_cell_align:table <- $r4
	b	.LBB9_11
.Ltmp432:
.LBB9_12:
	@DEBUG_VALUE: lv_table_set_cell_align:align <- $r8
	@DEBUG_VALUE: lv_table_set_cell_align:row <- $r7
	@DEBUG_VALUE: lv_table_set_cell_align:col <- $r6
	@DEBUG_VALUE: lv_table_set_cell_align:ext <- $r5
	@DEBUG_VALUE: lv_table_set_cell_align:cell <- $r4
	.loc	10 415 9                        @ lvgl/src/lv_widgets/lv_table.c:415:9
	movw	r0, :lower16:.L.str
	movs	r3, #0
	movt	r0, :upper16:.L.str
	bl	lv_debug_log_error
.Ltmp433:
	.p2align	2
.LBB9_13:                               @ =>This Inner Loop Header: Depth=1
	@DEBUG_VALUE: lv_table_set_cell_align:align <- $r8
	@DEBUG_VALUE: lv_table_set_cell_align:row <- $r7
	@DEBUG_VALUE: lv_table_set_cell_align:col <- $r6
	@DEBUG_VALUE: lv_table_set_cell_align:ext <- $r5
	@DEBUG_VALUE: lv_table_set_cell_align:cell <- $r4
	b	.LBB9_13
.Ltmp434:
.Lfunc_end9:
	.size	lv_table_set_cell_align, .Lfunc_end9-lv_table_set_cell_align
	.cfi_endproc
	.cantunwind
	.fnend
                                        @ -- End function
	.section	.text.lv_table_set_cell_type,"ax",%progbits
	.hidden	lv_table_set_cell_type          @ -- Begin function lv_table_set_cell_type
	.globl	lv_table_set_cell_type
	.p2align	3
	.type	lv_table_set_cell_type,%function
	.code	16                              @ @lv_table_set_cell_type
	.thumb_func
lv_table_set_cell_type:
.Lfunc_begin10:
	.loc	10 436 0                        @ lvgl/src/lv_widgets/lv_table.c:436:0
	.fnstart
	.cfi_startproc
@ %bb.0:
	@DEBUG_VALUE: lv_table_set_cell_type:table <- $r0
	@DEBUG_VALUE: lv_table_set_cell_type:row <- $r1
	@DEBUG_VALUE: lv_table_set_cell_type:col <- $r2
	@DEBUG_VALUE: lv_table_set_cell_type:type <- $r3
	.save	{r4, r5, r6, r7, r8, lr}
	push.w	{r4, r5, r6, r7, r8, lr}
	.cfi_def_cfa_offset 24
	.cfi_offset lr, -4
	.cfi_offset r8, -8
	.cfi_offset r7, -12
	.cfi_offset r6, -16
	.cfi_offset r5, -20
	.cfi_offset r4, -24
	mov	r8, r3
.Ltmp435:
	@DEBUG_VALUE: lv_table_set_cell_type:type <- $r8
	mov	r7, r2
.Ltmp436:
	@DEBUG_VALUE: lv_table_set_cell_type:col <- $r7
	mov	r5, r1
.Ltmp437:
	@DEBUG_VALUE: lv_table_set_cell_type:row <- $r5
	mov	r4, r0
	@DEBUG_VALUE: lv_table_set_cell_type:type <- $r8
	@DEBUG_VALUE: lv_table_set_cell_type:col <- $r7
	@DEBUG_VALUE: lv_table_set_cell_type:row <- $r5
.Ltmp438:
	@DEBUG_VALUE: lv_table_set_cell_type:table <- $r4
	.loc	10 437 5 prologue_end           @ lvgl/src/lv_widgets/lv_table.c:437:5
	bl	lv_debug_check_null
.Ltmp439:
	.loc	10 437 5 is_stmt 0              @ lvgl/src/lv_widgets/lv_table.c:437:5
	cmp	r0, #0
	beq	.LBB10_10
.Ltmp440:
@ %bb.1:
	@DEBUG_VALUE: lv_table_set_cell_type:type <- $r8
	@DEBUG_VALUE: lv_table_set_cell_type:col <- $r7
	@DEBUG_VALUE: lv_table_set_cell_type:row <- $r5
	@DEBUG_VALUE: lv_table_set_cell_type:table <- $r4
	@DEBUG_VALUE: lv_table_set_cell_type:row <- $r5
	@DEBUG_VALUE: lv_table_set_cell_type:col <- $r7
	.loc	10 439 28 is_stmt 1             @ lvgl/src/lv_widgets/lv_table.c:439:28
	mov	r0, r4
	bl	lv_obj_get_ext_attr
	mov	r6, r0
.Ltmp441:
	@DEBUG_VALUE: lv_table_set_cell_type:ext <- $r6
	.loc	10 440 20                       @ lvgl/src/lv_widgets/lv_table.c:440:20
	ldrh	r0, [r0]
.Ltmp442:
	.loc	10 440 8 is_stmt 0              @ lvgl/src/lv_widgets/lv_table.c:440:8
	cmp	r0, r7
	bls	.LBB10_9
.Ltmp443:
@ %bb.2:
	@DEBUG_VALUE: lv_table_set_cell_type:type <- $r8
	@DEBUG_VALUE: lv_table_set_cell_type:col <- $r7
	@DEBUG_VALUE: lv_table_set_cell_type:ext <- $r6
	@DEBUG_VALUE: lv_table_set_cell_type:row <- $r5
	@DEBUG_VALUE: lv_table_set_cell_type:table <- $r4
	@DEBUG_VALUE: lv_table_set_cell_type:row <- $r5
	@DEBUG_VALUE: lv_table_set_cell_type:col <- $r7
	.loc	10 446 20 is_stmt 1             @ lvgl/src/lv_widgets/lv_table.c:446:20
	ldrh	r0, [r6, #2]
.Ltmp444:
	.loc	10 446 8 is_stmt 0              @ lvgl/src/lv_widgets/lv_table.c:446:8
	cmp	r0, r5
	bhi	.LBB10_4
.Ltmp445:
@ %bb.3:
	@DEBUG_VALUE: lv_table_set_cell_type:type <- $r8
	@DEBUG_VALUE: lv_table_set_cell_type:col <- $r7
	@DEBUG_VALUE: lv_table_set_cell_type:ext <- $r6
	@DEBUG_VALUE: lv_table_set_cell_type:row <- $r5
	@DEBUG_VALUE: lv_table_set_cell_type:table <- $r4
	.loc	10 447 41 is_stmt 1             @ lvgl/src/lv_widgets/lv_table.c:447:41
	adds	r0, r5, #1
	.loc	10 447 9 is_stmt 0              @ lvgl/src/lv_widgets/lv_table.c:447:9
	uxth	r1, r0
	mov	r0, r4
	bl	lv_table_set_row_cnt
.Ltmp446:
.LBB10_4:
	@DEBUG_VALUE: lv_table_set_cell_type:type <- $r8
	@DEBUG_VALUE: lv_table_set_cell_type:col <- $r7
	@DEBUG_VALUE: lv_table_set_cell_type:ext <- $r6
	@DEBUG_VALUE: lv_table_set_cell_type:row <- $r5
	@DEBUG_VALUE: lv_table_set_cell_type:table <- $r4
	.loc	10 450 32 is_stmt 1             @ lvgl/src/lv_widgets/lv_table.c:450:32
	ldrh	r0, [r6]
	.loc	10 450 40 is_stmt 0             @ lvgl/src/lv_widgets/lv_table.c:450:40
	mla	r5, r0, r5, r7
.Ltmp447:
	@DEBUG_VALUE: lv_table_set_cell_type:cell <- $r5
	.loc	10 452 13 is_stmt 1             @ lvgl/src/lv_widgets/lv_table.c:452:13
	ldr	r0, [r6, #4]
	.loc	10 452 8 is_stmt 0              @ lvgl/src/lv_widgets/lv_table.c:452:8
	ldr.w	r0, [r0, r5, lsl #2]
.Ltmp448:
	.loc	10 452 8                        @ lvgl/src/lv_widgets/lv_table.c:452:8
	cbnz	r0, .LBB10_8
.Ltmp449:
@ %bb.5:
	@DEBUG_VALUE: lv_table_set_cell_type:type <- $r8
	@DEBUG_VALUE: lv_table_set_cell_type:col <- $r7
	@DEBUG_VALUE: lv_table_set_cell_type:ext <- $r6
	@DEBUG_VALUE: lv_table_set_cell_type:cell <- $r5
	@DEBUG_VALUE: lv_table_set_cell_type:table <- $r4
	.loc	10 453 35 is_stmt 1             @ lvgl/src/lv_widgets/lv_table.c:453:35
	movs	r0, #2
	bl	lv_mem_alloc
	.loc	10 453 14 is_stmt 0             @ lvgl/src/lv_widgets/lv_table.c:453:14
	ldr	r1, [r6, #4]
	.loc	10 453 33                       @ lvgl/src/lv_widgets/lv_table.c:453:33
	str.w	r0, [r1, r5, lsl #2]
.Ltmp450:
	.loc	10 454 9 is_stmt 1              @ lvgl/src/lv_widgets/lv_table.c:454:9
	ldr	r0, [r6, #4]
	ldr.w	r0, [r0, r5, lsl #2]
	bl	lv_debug_check_null
.Ltmp451:
	.loc	10 0 0 is_stmt 0                @ lvgl/src/lv_widgets/lv_table.c:0:0
	ldr	r1, [r6, #4]
	ldr.w	r2, [r1, r5, lsl #2]
.Ltmp452:
	.loc	10 454 9                        @ lvgl/src/lv_widgets/lv_table.c:454:9
	cbz	r0, .LBB10_12
.Ltmp453:
@ %bb.6:
	@DEBUG_VALUE: lv_table_set_cell_type:type <- $r8
	@DEBUG_VALUE: lv_table_set_cell_type:col <- $r7
	@DEBUG_VALUE: lv_table_set_cell_type:ext <- $r6
	@DEBUG_VALUE: lv_table_set_cell_type:cell <- $r5
	@DEBUG_VALUE: lv_table_set_cell_type:table <- $r4
	.loc	10 455 12 is_stmt 1             @ lvgl/src/lv_widgets/lv_table.c:455:12
	cmp	r2, #0
.Ltmp454:
	.loc	10 472 1                        @ lvgl/src/lv_widgets/lv_table.c:472:1
	it	eq
	popeq.w	{r4, r5, r6, r7, r8, pc}
.Ltmp455:
.LBB10_7:
	.loc	10 0 1 is_stmt 0                @ lvgl/src/lv_widgets/lv_table.c:0:1
	movs	r0, #0
.Ltmp456:
	.loc	10 457 33 is_stmt 1             @ lvgl/src/lv_widgets/lv_table.c:457:33
	strb	r0, [r2]
	.loc	10 458 14                       @ lvgl/src/lv_widgets/lv_table.c:458:14
	ldr	r1, [r6, #4]
	.loc	10 458 9 is_stmt 0              @ lvgl/src/lv_widgets/lv_table.c:458:9
	ldr.w	r1, [r1, r5, lsl #2]
	.loc	10 458 33                       @ lvgl/src/lv_widgets/lv_table.c:458:33
	strb	r0, [r1, #1]
.Ltmp457:
.LBB10_8:
	.loc	10 465 36 is_stmt 1             @ lvgl/src/lv_widgets/lv_table.c:465:36
	ldr	r0, [r6, #4]
	.loc	10 461 8                        @ lvgl/src/lv_widgets/lv_table.c:461:8
	cmp.w	r8, #0
	it	ne
	subne.w	r8, r8, #1
.Ltmp458:
	@DEBUG_VALUE: lv_table_set_cell_type:type <- $r8
	.loc	10 465 31                       @ lvgl/src/lv_widgets/lv_table.c:465:31
	ldr.w	r0, [r0, r5, lsl #2]
	.loc	10 461 8                        @ lvgl/src/lv_widgets/lv_table.c:461:8
	uxtb.w	r1, r8
	.loc	10 462 8                        @ lvgl/src/lv_widgets/lv_table.c:462:8
	cmp	r1, #3
	it	hs
	movhs.w	r8, #3
.Ltmp459:
	@DEBUG_VALUE: lv_table_set_cell_type:type <- $r8
	.loc	10 465 31                       @ lvgl/src/lv_widgets/lv_table.c:465:31
	ldrb	r1, [r0]
.Ltmp460:
	@DEBUG_VALUE: lv_table_set_cell_type:format <- $r1
	.loc	10 466 29                       @ lvgl/src/lv_widgets/lv_table.c:466:29
	and	r1, r1, #135
.Ltmp461:
	orr.w	r1, r1, r8, lsl #3
.Ltmp462:
	@DEBUG_VALUE: lv_table_set_cell_type:format <- $r1
	.loc	10 467 29                       @ lvgl/src/lv_widgets/lv_table.c:467:29
	strb	r1, [r0]
	.loc	10 469 26                       @ lvgl/src/lv_widgets/lv_table.c:469:26
	uxtb.w	r0, r8
	movs	r1, #1
.Ltmp463:
	.loc	10 469 21 is_stmt 0             @ lvgl/src/lv_widgets/lv_table.c:469:21
	ldrb.w	r2, [r6, #68]
	.loc	10 469 26                       @ lvgl/src/lv_widgets/lv_table.c:469:26
	lsl.w	r0, r1, r0
	.loc	10 469 21                       @ lvgl/src/lv_widgets/lv_table.c:469:21
	orrs	r0, r2
	strb.w	r0, [r6, #68]
	.loc	10 471 5 is_stmt 1              @ lvgl/src/lv_widgets/lv_table.c:471:5
	mov	r0, r4
	bl	lv_obj_invalidate
.Ltmp464:
.LBB10_9:
	@DEBUG_VALUE: lv_table_set_cell_type:type <- $r8
	.loc	10 472 1                        @ lvgl/src/lv_widgets/lv_table.c:472:1
	pop.w	{r4, r5, r6, r7, r8, pc}
.Ltmp465:
.LBB10_10:
	@DEBUG_VALUE: lv_table_set_cell_type:type <- $r8
	@DEBUG_VALUE: lv_table_set_cell_type:col <- $r7
	@DEBUG_VALUE: lv_table_set_cell_type:row <- $r5
	@DEBUG_VALUE: lv_table_set_cell_type:table <- $r4
	.loc	10 437 5                        @ lvgl/src/lv_widgets/lv_table.c:437:5
	movw	r0, :lower16:.L.str.1
	movs	r3, #0
	movt	r0, :upper16:.L.str.1
	mov	r2, r4
	bl	lv_debug_log_error
.Ltmp466:
	.p2align	2
.LBB10_11:                              @ =>This Inner Loop Header: Depth=1
	@DEBUG_VALUE: lv_table_set_cell_type:type <- $r8
	@DEBUG_VALUE: lv_table_set_cell_type:col <- $r7
	@DEBUG_VALUE: lv_table_set_cell_type:row <- $r5
	@DEBUG_VALUE: lv_table_set_cell_type:table <- $r4
	b	.LBB10_11
.Ltmp467:
.LBB10_12:
	@DEBUG_VALUE: lv_table_set_cell_type:type <- $r8
	@DEBUG_VALUE: lv_table_set_cell_type:col <- $r7
	@DEBUG_VALUE: lv_table_set_cell_type:ext <- $r6
	@DEBUG_VALUE: lv_table_set_cell_type:cell <- $r5
	@DEBUG_VALUE: lv_table_set_cell_type:table <- $r4
	.loc	10 454 9                        @ lvgl/src/lv_widgets/lv_table.c:454:9
	movw	r0, :lower16:.L.str
	movs	r3, #0
	movt	r0, :upper16:.L.str
	bl	lv_debug_log_error
.Ltmp468:
	.p2align	2
.LBB10_13:                              @ =>This Inner Loop Header: Depth=1
	@DEBUG_VALUE: lv_table_set_cell_type:type <- $r8
	@DEBUG_VALUE: lv_table_set_cell_type:col <- $r7
	@DEBUG_VALUE: lv_table_set_cell_type:ext <- $r6
	@DEBUG_VALUE: lv_table_set_cell_type:cell <- $r5
	@DEBUG_VALUE: lv_table_set_cell_type:table <- $r4
	b	.LBB10_13
.Ltmp469:
.Lfunc_end10:
	.size	lv_table_set_cell_type, .Lfunc_end10-lv_table_set_cell_type
	.cfi_endproc
	.cantunwind
	.fnend
                                        @ -- End function
	.section	.text.lv_table_set_cell_crop,"ax",%progbits
	.hidden	lv_table_set_cell_crop          @ -- Begin function lv_table_set_cell_crop
	.globl	lv_table_set_cell_crop
	.p2align	3
	.type	lv_table_set_cell_crop,%function
	.code	16                              @ @lv_table_set_cell_crop
	.thumb_func
lv_table_set_cell_crop:
.Lfunc_begin11:
	.loc	10 482 0                        @ lvgl/src/lv_widgets/lv_table.c:482:0
	.fnstart
	.cfi_startproc
@ %bb.0:
	@DEBUG_VALUE: lv_table_set_cell_crop:table <- $r0
	@DEBUG_VALUE: lv_table_set_cell_crop:row <- $r1
	@DEBUG_VALUE: lv_table_set_cell_crop:col <- $r2
	@DEBUG_VALUE: lv_table_set_cell_crop:crop <- [DW_OP_LLVM_convert 1 7, DW_OP_LLVM_convert 8 7, DW_OP_stack_value] $r3
	.save	{r4, r5, r6, r7, r8, lr}
	push.w	{r4, r5, r6, r7, r8, lr}
	.cfi_def_cfa_offset 24
	.cfi_offset lr, -4
	.cfi_offset r8, -8
	.cfi_offset r7, -12
	.cfi_offset r6, -16
	.cfi_offset r5, -20
	.cfi_offset r4, -24
	mov	r8, r3
.Ltmp470:
	@DEBUG_VALUE: lv_table_set_cell_crop:crop <- [DW_OP_LLVM_convert 1 7, DW_OP_LLVM_convert 8 7, DW_OP_stack_value] $r8
	mov	r6, r2
.Ltmp471:
	@DEBUG_VALUE: lv_table_set_cell_crop:col <- $r6
	mov	r7, r1
.Ltmp472:
	@DEBUG_VALUE: lv_table_set_cell_crop:row <- $r7
	mov	r4, r0
	@DEBUG_VALUE: lv_table_set_cell_crop:crop <- [DW_OP_LLVM_convert 1 7, DW_OP_LLVM_convert 8 7, DW_OP_stack_value] $r8
	@DEBUG_VALUE: lv_table_set_cell_crop:col <- $r6
	@DEBUG_VALUE: lv_table_set_cell_crop:row <- $r7
.Ltmp473:
	@DEBUG_VALUE: lv_table_set_cell_crop:table <- $r4
	.loc	10 483 5 prologue_end           @ lvgl/src/lv_widgets/lv_table.c:483:5
	bl	lv_debug_check_null
.Ltmp474:
	.loc	10 483 5 is_stmt 0              @ lvgl/src/lv_widgets/lv_table.c:483:5
	cbz	r0, .LBB11_10
.Ltmp475:
@ %bb.1:
	@DEBUG_VALUE: lv_table_set_cell_crop:crop <- [DW_OP_LLVM_convert 1 7, DW_OP_LLVM_convert 8 7, DW_OP_stack_value] $r8
	@DEBUG_VALUE: lv_table_set_cell_crop:row <- $r7
	@DEBUG_VALUE: lv_table_set_cell_crop:col <- $r6
	@DEBUG_VALUE: lv_table_set_cell_crop:table <- $r4
	@DEBUG_VALUE: lv_table_set_cell_crop:row <- $r7
	@DEBUG_VALUE: lv_table_set_cell_crop:col <- $r6
	.loc	10 485 28 is_stmt 1             @ lvgl/src/lv_widgets/lv_table.c:485:28
	mov	r0, r4
	bl	lv_obj_get_ext_attr
	mov	r5, r0
.Ltmp476:
	@DEBUG_VALUE: lv_table_set_cell_crop:ext <- $r5
	.loc	10 486 20                       @ lvgl/src/lv_widgets/lv_table.c:486:20
	ldrh	r0, [r0]
.Ltmp477:
	.loc	10 486 8 is_stmt 0              @ lvgl/src/lv_widgets/lv_table.c:486:8
	cmp	r0, r6
	bls	.LBB11_9
.Ltmp478:
@ %bb.2:
	@DEBUG_VALUE: lv_table_set_cell_crop:crop <- [DW_OP_LLVM_convert 1 7, DW_OP_LLVM_convert 8 7, DW_OP_stack_value] $r8
	@DEBUG_VALUE: lv_table_set_cell_crop:row <- $r7
	@DEBUG_VALUE: lv_table_set_cell_crop:col <- $r6
	@DEBUG_VALUE: lv_table_set_cell_crop:ext <- $r5
	@DEBUG_VALUE: lv_table_set_cell_crop:table <- $r4
	@DEBUG_VALUE: lv_table_set_cell_crop:row <- $r7
	@DEBUG_VALUE: lv_table_set_cell_crop:col <- $r6
	.loc	10 492 20 is_stmt 1             @ lvgl/src/lv_widgets/lv_table.c:492:20
	ldrh	r0, [r5, #2]
.Ltmp479:
	.loc	10 492 8 is_stmt 0              @ lvgl/src/lv_widgets/lv_table.c:492:8
	cmp	r0, r7
	bhi	.LBB11_4
.Ltmp480:
@ %bb.3:
	@DEBUG_VALUE: lv_table_set_cell_crop:crop <- [DW_OP_LLVM_convert 1 7, DW_OP_LLVM_convert 8 7, DW_OP_stack_value] $r8
	@DEBUG_VALUE: lv_table_set_cell_crop:row <- $r7
	@DEBUG_VALUE: lv_table_set_cell_crop:col <- $r6
	@DEBUG_VALUE: lv_table_set_cell_crop:ext <- $r5
	@DEBUG_VALUE: lv_table_set_cell_crop:table <- $r4
	.loc	10 493 41 is_stmt 1             @ lvgl/src/lv_widgets/lv_table.c:493:41
	adds	r0, r7, #1
	.loc	10 493 9 is_stmt 0              @ lvgl/src/lv_widgets/lv_table.c:493:9
	uxth	r1, r0
	mov	r0, r4
	bl	lv_table_set_row_cnt
.Ltmp481:
.LBB11_4:
	@DEBUG_VALUE: lv_table_set_cell_crop:crop <- [DW_OP_LLVM_convert 1 7, DW_OP_LLVM_convert 8 7, DW_OP_stack_value] $r8
	@DEBUG_VALUE: lv_table_set_cell_crop:row <- $r7
	@DEBUG_VALUE: lv_table_set_cell_crop:col <- $r6
	@DEBUG_VALUE: lv_table_set_cell_crop:ext <- $r5
	@DEBUG_VALUE: lv_table_set_cell_crop:table <- $r4
	.loc	10 496 32 is_stmt 1             @ lvgl/src/lv_widgets/lv_table.c:496:32
	ldrh	r0, [r5]
	.loc	10 496 40 is_stmt 0             @ lvgl/src/lv_widgets/lv_table.c:496:40
	mla	r4, r0, r7, r6
.Ltmp482:
	@DEBUG_VALUE: lv_table_set_cell_crop:cell <- $r4
	.loc	10 498 13 is_stmt 1             @ lvgl/src/lv_widgets/lv_table.c:498:13
	ldr	r0, [r5, #4]
	.loc	10 498 8 is_stmt 0              @ lvgl/src/lv_widgets/lv_table.c:498:8
	ldr.w	r0, [r0, r4, lsl #2]
.Ltmp483:
	.loc	10 498 8                        @ lvgl/src/lv_widgets/lv_table.c:498:8
	cbnz	r0, .LBB11_8
.Ltmp484:
@ %bb.5:
	@DEBUG_VALUE: lv_table_set_cell_crop:crop <- [DW_OP_LLVM_convert 1 7, DW_OP_LLVM_convert 8 7, DW_OP_stack_value] $r8
	@DEBUG_VALUE: lv_table_set_cell_crop:row <- $r7
	@DEBUG_VALUE: lv_table_set_cell_crop:col <- $r6
	@DEBUG_VALUE: lv_table_set_cell_crop:ext <- $r5
	@DEBUG_VALUE: lv_table_set_cell_crop:cell <- $r4
	.loc	10 499 35 is_stmt 1             @ lvgl/src/lv_widgets/lv_table.c:499:35
	movs	r0, #2
	bl	lv_mem_alloc
	.loc	10 499 14 is_stmt 0             @ lvgl/src/lv_widgets/lv_table.c:499:14
	ldr	r1, [r5, #4]
	.loc	10 499 33                       @ lvgl/src/lv_widgets/lv_table.c:499:33
	str.w	r0, [r1, r4, lsl #2]
.Ltmp485:
	.loc	10 500 9 is_stmt 1              @ lvgl/src/lv_widgets/lv_table.c:500:9
	ldr	r0, [r5, #4]
	ldr.w	r0, [r0, r4, lsl #2]
	bl	lv_debug_check_null
.Ltmp486:
	.loc	10 0 0 is_stmt 0                @ lvgl/src/lv_widgets/lv_table.c:0:0
	ldr	r1, [r5, #4]
	ldr.w	r2, [r1, r4, lsl #2]
.Ltmp487:
	.loc	10 500 9                        @ lvgl/src/lv_widgets/lv_table.c:500:9
	cbz	r0, .LBB11_12
.Ltmp488:
@ %bb.6:
	@DEBUG_VALUE: lv_table_set_cell_crop:crop <- [DW_OP_LLVM_convert 1 7, DW_OP_LLVM_convert 8 7, DW_OP_stack_value] $r8
	@DEBUG_VALUE: lv_table_set_cell_crop:row <- $r7
	@DEBUG_VALUE: lv_table_set_cell_crop:col <- $r6
	@DEBUG_VALUE: lv_table_set_cell_crop:ext <- $r5
	@DEBUG_VALUE: lv_table_set_cell_crop:cell <- $r4
	.loc	10 501 12 is_stmt 1             @ lvgl/src/lv_widgets/lv_table.c:501:12
	cmp	r2, #0
.Ltmp489:
	.loc	10 511 1                        @ lvgl/src/lv_widgets/lv_table.c:511:1
	it	eq
	popeq.w	{r4, r5, r6, r7, r8, pc}
.Ltmp490:
.LBB11_7:
	.loc	10 0 1 is_stmt 0                @ lvgl/src/lv_widgets/lv_table.c:0:1
	movs	r0, #0
.Ltmp491:
	.loc	10 503 33 is_stmt 1             @ lvgl/src/lv_widgets/lv_table.c:503:33
	strb	r0, [r2]
	.loc	10 504 14                       @ lvgl/src/lv_widgets/lv_table.c:504:14
	ldr	r1, [r5, #4]
	.loc	10 504 9 is_stmt 0              @ lvgl/src/lv_widgets/lv_table.c:504:9
	ldr.w	r1, [r1, r4, lsl #2]
	.loc	10 504 33                       @ lvgl/src/lv_widgets/lv_table.c:504:33
	strb	r0, [r1, #1]
.Ltmp492:
.LBB11_8:
	.loc	10 508 36 is_stmt 1             @ lvgl/src/lv_widgets/lv_table.c:508:36
	ldr	r0, [r5, #4]
	.loc	10 508 31 is_stmt 0             @ lvgl/src/lv_widgets/lv_table.c:508:31
	ldr.w	r0, [r0, r4, lsl #2]
	ldrb	r1, [r0]
.Ltmp493:
	@DEBUG_VALUE: lv_table_set_cell_crop:format <- $r1
	.loc	10 509 29 is_stmt 1             @ lvgl/src/lv_widgets/lv_table.c:509:29
	and	r1, r1, #127
.Ltmp494:
	bfi	r1, r8, #7, #1
.Ltmp495:
	@DEBUG_VALUE: lv_table_set_cell_crop:format <- $r1
	.loc	10 510 29                       @ lvgl/src/lv_widgets/lv_table.c:510:29
	strb	r1, [r0]
.Ltmp496:
.LBB11_9:
	.loc	10 511 1                        @ lvgl/src/lv_widgets/lv_table.c:511:1
	pop.w	{r4, r5, r6, r7, r8, pc}
.LBB11_10:
.Ltmp497:
	@DEBUG_VALUE: lv_table_set_cell_crop:crop <- [DW_OP_LLVM_convert 1 7, DW_OP_LLVM_convert 8 7, DW_OP_stack_value] $r8
	@DEBUG_VALUE: lv_table_set_cell_crop:row <- $r7
	@DEBUG_VALUE: lv_table_set_cell_crop:col <- $r6
	@DEBUG_VALUE: lv_table_set_cell_crop:table <- $r4
	.loc	10 483 5                        @ lvgl/src/lv_widgets/lv_table.c:483:5
	movw	r0, :lower16:.L.str.1
	movs	r3, #0
	movt	r0, :upper16:.L.str.1
	mov	r2, r4
	bl	lv_debug_log_error
.Ltmp498:
	.p2align	2
.LBB11_11:                              @ =>This Inner Loop Header: Depth=1
	@DEBUG_VALUE: lv_table_set_cell_crop:crop <- [DW_OP_LLVM_convert 1 7, DW_OP_LLVM_convert 8 7, DW_OP_stack_value] $r8
	@DEBUG_VALUE: lv_table_set_cell_crop:row <- $r7
	@DEBUG_VALUE: lv_table_set_cell_crop:col <- $r6
	@DEBUG_VALUE: lv_table_set_cell_crop:table <- $r4
	b	.LBB11_11
.Ltmp499:
.LBB11_12:
	@DEBUG_VALUE: lv_table_set_cell_crop:crop <- [DW_OP_LLVM_convert 1 7, DW_OP_LLVM_convert 8 7, DW_OP_stack_value] $r8
	@DEBUG_VALUE: lv_table_set_cell_crop:row <- $r7
	@DEBUG_VALUE: lv_table_set_cell_crop:col <- $r6
	@DEBUG_VALUE: lv_table_set_cell_crop:ext <- $r5
	@DEBUG_VALUE: lv_table_set_cell_crop:cell <- $r4
	.loc	10 500 9                        @ lvgl/src/lv_widgets/lv_table.c:500:9
	movw	r0, :lower16:.L.str
	movs	r3, #0
	movt	r0, :upper16:.L.str
	bl	lv_debug_log_error
.Ltmp500:
	.p2align	2
.LBB11_13:                              @ =>This Inner Loop Header: Depth=1
	@DEBUG_VALUE: lv_table_set_cell_crop:crop <- [DW_OP_LLVM_convert 1 7, DW_OP_LLVM_convert 8 7, DW_OP_stack_value] $r8
	@DEBUG_VALUE: lv_table_set_cell_crop:row <- $r7
	@DEBUG_VALUE: lv_table_set_cell_crop:col <- $r6
	@DEBUG_VALUE: lv_table_set_cell_crop:ext <- $r5
	@DEBUG_VALUE: lv_table_set_cell_crop:cell <- $r4
	b	.LBB11_13
.Ltmp501:
.Lfunc_end11:
	.size	lv_table_set_cell_crop, .Lfunc_end11-lv_table_set_cell_crop
	.cfi_endproc
	.cantunwind
	.fnend
                                        @ -- End function
	.section	.text.lv_table_set_cell_merge_right,"ax",%progbits
	.hidden	lv_table_set_cell_merge_right   @ -- Begin function lv_table_set_cell_merge_right
	.globl	lv_table_set_cell_merge_right
	.p2align	3
	.type	lv_table_set_cell_merge_right,%function
	.code	16                              @ @lv_table_set_cell_merge_right
	.thumb_func
lv_table_set_cell_merge_right:
.Lfunc_begin12:
	.loc	10 521 0                        @ lvgl/src/lv_widgets/lv_table.c:521:0
	.fnstart
	.cfi_startproc
@ %bb.0:
	@DEBUG_VALUE: lv_table_set_cell_merge_right:table <- $r0
	@DEBUG_VALUE: lv_table_set_cell_merge_right:row <- $r1
	@DEBUG_VALUE: lv_table_set_cell_merge_right:col <- $r2
	@DEBUG_VALUE: lv_table_set_cell_merge_right:en <- [DW_OP_LLVM_convert 1 7, DW_OP_LLVM_convert 8 7, DW_OP_stack_value] $r3
	.save	{r4, r5, r6, r7, r8, lr}
	push.w	{r4, r5, r6, r7, r8, lr}
	.cfi_def_cfa_offset 24
	.cfi_offset lr, -4
	.cfi_offset r8, -8
	.cfi_offset r7, -12
	.cfi_offset r6, -16
	.cfi_offset r5, -20
	.cfi_offset r4, -24
	mov	r8, r3
.Ltmp502:
	@DEBUG_VALUE: lv_table_set_cell_merge_right:en <- [DW_OP_LLVM_convert 1 7, DW_OP_LLVM_convert 8 7, DW_OP_stack_value] $r8
	mov	r7, r2
.Ltmp503:
	@DEBUG_VALUE: lv_table_set_cell_merge_right:col <- $r7
	mov	r5, r1
.Ltmp504:
	@DEBUG_VALUE: lv_table_set_cell_merge_right:row <- $r5
	mov	r4, r0
	@DEBUG_VALUE: lv_table_set_cell_merge_right:en <- [DW_OP_LLVM_convert 1 7, DW_OP_LLVM_convert 8 7, DW_OP_stack_value] $r8
	@DEBUG_VALUE: lv_table_set_cell_merge_right:col <- $r7
	@DEBUG_VALUE: lv_table_set_cell_merge_right:row <- $r5
.Ltmp505:
	@DEBUG_VALUE: lv_table_set_cell_merge_right:table <- $r4
	.loc	10 522 5 prologue_end           @ lvgl/src/lv_widgets/lv_table.c:522:5
	bl	lv_debug_check_null
.Ltmp506:
	.loc	10 522 5 is_stmt 0              @ lvgl/src/lv_widgets/lv_table.c:522:5
	cbz	r0, .LBB12_10
.Ltmp507:
@ %bb.1:
	@DEBUG_VALUE: lv_table_set_cell_merge_right:en <- [DW_OP_LLVM_convert 1 7, DW_OP_LLVM_convert 8 7, DW_OP_stack_value] $r8
	@DEBUG_VALUE: lv_table_set_cell_merge_right:col <- $r7
	@DEBUG_VALUE: lv_table_set_cell_merge_right:row <- $r5
	@DEBUG_VALUE: lv_table_set_cell_merge_right:table <- $r4
	@DEBUG_VALUE: lv_table_set_cell_merge_right:row <- $r5
	@DEBUG_VALUE: lv_table_set_cell_merge_right:col <- $r7
	.loc	10 524 28 is_stmt 1             @ lvgl/src/lv_widgets/lv_table.c:524:28
	mov	r0, r4
	bl	lv_obj_get_ext_attr
	mov	r6, r0
.Ltmp508:
	@DEBUG_VALUE: lv_table_set_cell_merge_right:ext <- $r6
	.loc	10 525 20                       @ lvgl/src/lv_widgets/lv_table.c:525:20
	ldrh	r0, [r0]
.Ltmp509:
	.loc	10 525 8 is_stmt 0              @ lvgl/src/lv_widgets/lv_table.c:525:8
	cmp	r0, r7
	bls	.LBB12_9
.Ltmp510:
@ %bb.2:
	@DEBUG_VALUE: lv_table_set_cell_merge_right:en <- [DW_OP_LLVM_convert 1 7, DW_OP_LLVM_convert 8 7, DW_OP_stack_value] $r8
	@DEBUG_VALUE: lv_table_set_cell_merge_right:col <- $r7
	@DEBUG_VALUE: lv_table_set_cell_merge_right:ext <- $r6
	@DEBUG_VALUE: lv_table_set_cell_merge_right:row <- $r5
	@DEBUG_VALUE: lv_table_set_cell_merge_right:table <- $r4
	@DEBUG_VALUE: lv_table_set_cell_merge_right:row <- $r5
	@DEBUG_VALUE: lv_table_set_cell_merge_right:col <- $r7
	.loc	10 531 20 is_stmt 1             @ lvgl/src/lv_widgets/lv_table.c:531:20
	ldrh	r0, [r6, #2]
.Ltmp511:
	.loc	10 531 8 is_stmt 0              @ lvgl/src/lv_widgets/lv_table.c:531:8
	cmp	r0, r5
	bhi	.LBB12_4
.Ltmp512:
@ %bb.3:
	@DEBUG_VALUE: lv_table_set_cell_merge_right:en <- [DW_OP_LLVM_convert 1 7, DW_OP_LLVM_convert 8 7, DW_OP_stack_value] $r8
	@DEBUG_VALUE: lv_table_set_cell_merge_right:col <- $r7
	@DEBUG_VALUE: lv_table_set_cell_merge_right:ext <- $r6
	@DEBUG_VALUE: lv_table_set_cell_merge_right:row <- $r5
	@DEBUG_VALUE: lv_table_set_cell_merge_right:table <- $r4
	.loc	10 532 41 is_stmt 1             @ lvgl/src/lv_widgets/lv_table.c:532:41
	adds	r0, r5, #1
	.loc	10 532 9 is_stmt 0              @ lvgl/src/lv_widgets/lv_table.c:532:9
	uxth	r1, r0
	mov	r0, r4
	bl	lv_table_set_row_cnt
.Ltmp513:
.LBB12_4:
	@DEBUG_VALUE: lv_table_set_cell_merge_right:en <- [DW_OP_LLVM_convert 1 7, DW_OP_LLVM_convert 8 7, DW_OP_stack_value] $r8
	@DEBUG_VALUE: lv_table_set_cell_merge_right:col <- $r7
	@DEBUG_VALUE: lv_table_set_cell_merge_right:ext <- $r6
	@DEBUG_VALUE: lv_table_set_cell_merge_right:row <- $r5
	@DEBUG_VALUE: lv_table_set_cell_merge_right:table <- $r4
	.loc	10 535 32 is_stmt 1             @ lvgl/src/lv_widgets/lv_table.c:535:32
	ldrh	r0, [r6]
	.loc	10 535 40 is_stmt 0             @ lvgl/src/lv_widgets/lv_table.c:535:40
	mla	r5, r0, r5, r7
.Ltmp514:
	@DEBUG_VALUE: lv_table_set_cell_merge_right:cell <- $r5
	.loc	10 537 13 is_stmt 1             @ lvgl/src/lv_widgets/lv_table.c:537:13
	ldr	r0, [r6, #4]
	.loc	10 537 8 is_stmt 0              @ lvgl/src/lv_widgets/lv_table.c:537:8
	ldr.w	r0, [r0, r5, lsl #2]
.Ltmp515:
	.loc	10 537 8                        @ lvgl/src/lv_widgets/lv_table.c:537:8
	cbnz	r0, .LBB12_8
.Ltmp516:
@ %bb.5:
	@DEBUG_VALUE: lv_table_set_cell_merge_right:en <- [DW_OP_LLVM_convert 1 7, DW_OP_LLVM_convert 8 7, DW_OP_stack_value] $r8
	@DEBUG_VALUE: lv_table_set_cell_merge_right:col <- $r7
	@DEBUG_VALUE: lv_table_set_cell_merge_right:ext <- $r6
	@DEBUG_VALUE: lv_table_set_cell_merge_right:cell <- $r5
	@DEBUG_VALUE: lv_table_set_cell_merge_right:table <- $r4
	.loc	10 538 35 is_stmt 1             @ lvgl/src/lv_widgets/lv_table.c:538:35
	movs	r0, #2
	bl	lv_mem_alloc
	.loc	10 538 14 is_stmt 0             @ lvgl/src/lv_widgets/lv_table.c:538:14
	ldr	r1, [r6, #4]
	.loc	10 538 33                       @ lvgl/src/lv_widgets/lv_table.c:538:33
	str.w	r0, [r1, r5, lsl #2]
.Ltmp517:
	.loc	10 539 9 is_stmt 1              @ lvgl/src/lv_widgets/lv_table.c:539:9
	ldr	r0, [r6, #4]
	ldr.w	r0, [r0, r5, lsl #2]
	bl	lv_debug_check_null
.Ltmp518:
	.loc	10 0 0 is_stmt 0                @ lvgl/src/lv_widgets/lv_table.c:0:0
	ldr	r1, [r6, #4]
	ldr.w	r2, [r1, r5, lsl #2]
.Ltmp519:
	.loc	10 539 9                        @ lvgl/src/lv_widgets/lv_table.c:539:9
	cbz	r0, .LBB12_12
.Ltmp520:
@ %bb.6:
	@DEBUG_VALUE: lv_table_set_cell_merge_right:en <- [DW_OP_LLVM_convert 1 7, DW_OP_LLVM_convert 8 7, DW_OP_stack_value] $r8
	@DEBUG_VALUE: lv_table_set_cell_merge_right:col <- $r7
	@DEBUG_VALUE: lv_table_set_cell_merge_right:ext <- $r6
	@DEBUG_VALUE: lv_table_set_cell_merge_right:cell <- $r5
	@DEBUG_VALUE: lv_table_set_cell_merge_right:table <- $r4
	.loc	10 540 12 is_stmt 1             @ lvgl/src/lv_widgets/lv_table.c:540:12
	cmp	r2, #0
.Ltmp521:
	.loc	10 551 1                        @ lvgl/src/lv_widgets/lv_table.c:551:1
	it	eq
	popeq.w	{r4, r5, r6, r7, r8, pc}
.Ltmp522:
.LBB12_7:
	.loc	10 0 1 is_stmt 0                @ lvgl/src/lv_widgets/lv_table.c:0:1
	movs	r0, #0
.Ltmp523:
	.loc	10 542 33 is_stmt 1             @ lvgl/src/lv_widgets/lv_table.c:542:33
	strb	r0, [r2]
	.loc	10 543 14                       @ lvgl/src/lv_widgets/lv_table.c:543:14
	ldr	r1, [r6, #4]
	.loc	10 543 9 is_stmt 0              @ lvgl/src/lv_widgets/lv_table.c:543:9
	ldr.w	r1, [r1, r5, lsl #2]
	.loc	10 543 33                       @ lvgl/src/lv_widgets/lv_table.c:543:33
	strb	r0, [r1, #1]
.Ltmp524:
.LBB12_8:
	.loc	10 547 36 is_stmt 1             @ lvgl/src/lv_widgets/lv_table.c:547:36
	ldr	r0, [r6, #4]
	.loc	10 547 31 is_stmt 0             @ lvgl/src/lv_widgets/lv_table.c:547:31
	ldr.w	r0, [r0, r5, lsl #2]
	ldrb	r1, [r0]
.Ltmp525:
	@DEBUG_VALUE: lv_table_set_cell_merge_right:format <- $r1
	.loc	10 548 29 is_stmt 1             @ lvgl/src/lv_widgets/lv_table.c:548:29
	and	r1, r1, #251
.Ltmp526:
	bfi	r1, r8, #2, #1
.Ltmp527:
	@DEBUG_VALUE: lv_table_set_cell_merge_right:format <- $r1
	.loc	10 549 29                       @ lvgl/src/lv_widgets/lv_table.c:549:29
	strb	r1, [r0]
	.loc	10 550 5                        @ lvgl/src/lv_widgets/lv_table.c:550:5
	mov	r0, r4
	bl	refr_size
.Ltmp528:
.LBB12_9:
	.loc	10 551 1                        @ lvgl/src/lv_widgets/lv_table.c:551:1
	pop.w	{r4, r5, r6, r7, r8, pc}
.LBB12_10:
.Ltmp529:
	@DEBUG_VALUE: lv_table_set_cell_merge_right:en <- [DW_OP_LLVM_convert 1 7, DW_OP_LLVM_convert 8 7, DW_OP_stack_value] $r8
	@DEBUG_VALUE: lv_table_set_cell_merge_right:col <- $r7
	@DEBUG_VALUE: lv_table_set_cell_merge_right:row <- $r5
	@DEBUG_VALUE: lv_table_set_cell_merge_right:table <- $r4
	.loc	10 522 5                        @ lvgl/src/lv_widgets/lv_table.c:522:5
	movw	r0, :lower16:.L.str.1
	movs	r3, #0
	movt	r0, :upper16:.L.str.1
	mov	r2, r4
	bl	lv_debug_log_error
.Ltmp530:
	.p2align	2
.LBB12_11:                              @ =>This Inner Loop Header: Depth=1
	@DEBUG_VALUE: lv_table_set_cell_merge_right:en <- [DW_OP_LLVM_convert 1 7, DW_OP_LLVM_convert 8 7, DW_OP_stack_value] $r8
	@DEBUG_VALUE: lv_table_set_cell_merge_right:col <- $r7
	@DEBUG_VALUE: lv_table_set_cell_merge_right:row <- $r5
	@DEBUG_VALUE: lv_table_set_cell_merge_right:table <- $r4
	b	.LBB12_11
.Ltmp531:
.LBB12_12:
	@DEBUG_VALUE: lv_table_set_cell_merge_right:en <- [DW_OP_LLVM_convert 1 7, DW_OP_LLVM_convert 8 7, DW_OP_stack_value] $r8
	@DEBUG_VALUE: lv_table_set_cell_merge_right:col <- $r7
	@DEBUG_VALUE: lv_table_set_cell_merge_right:ext <- $r6
	@DEBUG_VALUE: lv_table_set_cell_merge_right:cell <- $r5
	@DEBUG_VALUE: lv_table_set_cell_merge_right:table <- $r4
	.loc	10 539 9                        @ lvgl/src/lv_widgets/lv_table.c:539:9
	movw	r0, :lower16:.L.str
	movs	r3, #0
	movt	r0, :upper16:.L.str
	bl	lv_debug_log_error
.Ltmp532:
	.p2align	2
.LBB12_13:                              @ =>This Inner Loop Header: Depth=1
	@DEBUG_VALUE: lv_table_set_cell_merge_right:en <- [DW_OP_LLVM_convert 1 7, DW_OP_LLVM_convert 8 7, DW_OP_stack_value] $r8
	@DEBUG_VALUE: lv_table_set_cell_merge_right:col <- $r7
	@DEBUG_VALUE: lv_table_set_cell_merge_right:ext <- $r6
	@DEBUG_VALUE: lv_table_set_cell_merge_right:cell <- $r5
	@DEBUG_VALUE: lv_table_set_cell_merge_right:table <- $r4
	b	.LBB12_13
.Ltmp533:
.Lfunc_end12:
	.size	lv_table_set_cell_merge_right, .Lfunc_end12-lv_table_set_cell_merge_right
	.cfi_endproc
	.cantunwind
	.fnend
                                        @ -- End function
	.section	.text.lv_table_get_cell_value,"ax",%progbits
	.hidden	lv_table_get_cell_value         @ -- Begin function lv_table_get_cell_value
	.globl	lv_table_get_cell_value
	.p2align	3
	.type	lv_table_get_cell_value,%function
	.code	16                              @ @lv_table_get_cell_value
	.thumb_func
lv_table_get_cell_value:
.Lfunc_begin13:
	.loc	10 565 0                        @ lvgl/src/lv_widgets/lv_table.c:565:0
	.fnstart
	.cfi_startproc
@ %bb.0:
	@DEBUG_VALUE: lv_table_get_cell_value:table <- $r0
	@DEBUG_VALUE: lv_table_get_cell_value:row <- $r1
	@DEBUG_VALUE: lv_table_get_cell_value:col <- $r2
	.save	{r4, r5, r6, lr}
	push	{r4, r5, r6, lr}
	.cfi_def_cfa_offset 16
	.cfi_offset lr, -4
	.cfi_offset r6, -8
	.cfi_offset r5, -12
	.cfi_offset r4, -16
	mov	r4, r2
.Ltmp534:
	@DEBUG_VALUE: lv_table_get_cell_value:col <- $r4
	mov	r5, r1
.Ltmp535:
	@DEBUG_VALUE: lv_table_get_cell_value:row <- $r5
	mov	r6, r0
	@DEBUG_VALUE: lv_table_get_cell_value:col <- $r4
	@DEBUG_VALUE: lv_table_get_cell_value:row <- $r5
.Ltmp536:
	@DEBUG_VALUE: lv_table_get_cell_value:table <- $r6
	.loc	10 566 5 prologue_end           @ lvgl/src/lv_widgets/lv_table.c:566:5
	bl	lv_debug_check_null
.Ltmp537:
	.loc	10 566 5 is_stmt 0              @ lvgl/src/lv_widgets/lv_table.c:566:5
	cbz	r0, .LBB13_4
.Ltmp538:
@ %bb.1:
	@DEBUG_VALUE: lv_table_get_cell_value:table <- $r6
	@DEBUG_VALUE: lv_table_get_cell_value:row <- $r5
	@DEBUG_VALUE: lv_table_get_cell_value:col <- $r4
	@DEBUG_VALUE: lv_table_get_cell_value:row <- $r5
	.loc	10 568 28 is_stmt 1             @ lvgl/src/lv_widgets/lv_table.c:568:28
	mov	r0, r6
	bl	lv_obj_get_ext_attr
	mov	r1, r0
.Ltmp539:
	@DEBUG_VALUE: lv_table_get_cell_value:ext <- $r1
	.loc	10 569 20                       @ lvgl/src/lv_widgets/lv_table.c:569:20
	ldrh	r0, [r0, #2]
	.loc	10 569 28 is_stmt 0             @ lvgl/src/lv_widgets/lv_table.c:569:28
	cmp	r0, r5
	bls	.LBB13_6
.Ltmp540:
@ %bb.2:
	@DEBUG_VALUE: lv_table_get_cell_value:table <- $r6
	@DEBUG_VALUE: lv_table_get_cell_value:row <- $r5
	@DEBUG_VALUE: lv_table_get_cell_value:col <- $r4
	@DEBUG_VALUE: lv_table_get_cell_value:ext <- $r1
	@DEBUG_VALUE: lv_table_get_cell_value:row <- $r5
	.loc	10 569 43                       @ lvgl/src/lv_widgets/lv_table.c:569:43
	ldrh	r2, [r1]
	movw	r0, :lower16:.L.str.2
	movt	r0, :upper16:.L.str.2
.Ltmp541:
	.loc	10 569 8                        @ lvgl/src/lv_widgets/lv_table.c:569:8
	cmp	r2, r4
	.loc	10 578 1 is_stmt 1              @ lvgl/src/lv_widgets/lv_table.c:578:1
	it	ls
	popls	{r4, r5, r6, pc}
.Ltmp542:
.LBB13_3:
	@DEBUG_VALUE: lv_table_get_cell_value:ext <- $r1
	@DEBUG_VALUE: lv_table_get_cell_value:row <- $r5
	.loc	10 573 40                       @ lvgl/src/lv_widgets/lv_table.c:573:40
	mla	r2, r2, r5, r4
.Ltmp543:
	@DEBUG_VALUE: lv_table_get_cell_value:cell <- $r2
	.loc	10 575 13                       @ lvgl/src/lv_widgets/lv_table.c:575:13
	ldr	r1, [r1, #4]
.Ltmp544:
	.loc	10 575 8 is_stmt 0              @ lvgl/src/lv_widgets/lv_table.c:575:8
	ldr.w	r1, [r1, r2, lsl #2]
.Ltmp545:
	.loc	10 575 8                        @ lvgl/src/lv_widgets/lv_table.c:575:8
	cmp	r1, #0
	it	ne
	addne	r0, r1, #1
	.loc	10 578 1 is_stmt 1              @ lvgl/src/lv_widgets/lv_table.c:578:1
	pop	{r4, r5, r6, pc}
.Ltmp546:
.LBB13_4:
	@DEBUG_VALUE: lv_table_get_cell_value:table <- $r6
	@DEBUG_VALUE: lv_table_get_cell_value:row <- $r5
	@DEBUG_VALUE: lv_table_get_cell_value:col <- $r4
	.loc	10 566 5                        @ lvgl/src/lv_widgets/lv_table.c:566:5
	movw	r0, :lower16:.L.str.1
	movs	r3, #0
	movt	r0, :upper16:.L.str.1
	mov	r2, r6
	bl	lv_debug_log_error
.Ltmp547:
	.p2align	2
.LBB13_5:                               @ =>This Inner Loop Header: Depth=1
	@DEBUG_VALUE: lv_table_get_cell_value:table <- $r6
	@DEBUG_VALUE: lv_table_get_cell_value:row <- $r5
	@DEBUG_VALUE: lv_table_get_cell_value:col <- $r4
	b	.LBB13_5
.Ltmp548:
.LBB13_6:
	@DEBUG_VALUE: lv_table_get_cell_value:table <- $r6
	@DEBUG_VALUE: lv_table_get_cell_value:row <- $r5
	@DEBUG_VALUE: lv_table_get_cell_value:col <- $r4
	@DEBUG_VALUE: lv_table_get_cell_value:ext <- $r1
	.loc	10 0 5 is_stmt 0                @ lvgl/src/lv_widgets/lv_table.c:0:5
	movw	r0, :lower16:.L.str.2
	movt	r0, :upper16:.L.str.2
	.loc	10 578 1 is_stmt 1              @ lvgl/src/lv_widgets/lv_table.c:578:1
	pop	{r4, r5, r6, pc}
.Ltmp549:
.Lfunc_end13:
	.size	lv_table_get_cell_value, .Lfunc_end13-lv_table_get_cell_value
	.cfi_endproc
	.cantunwind
	.fnend
                                        @ -- End function
	.section	.text.lv_table_get_row_cnt,"ax",%progbits
	.hidden	lv_table_get_row_cnt            @ -- Begin function lv_table_get_row_cnt
	.globl	lv_table_get_row_cnt
	.p2align	3
	.type	lv_table_get_row_cnt,%function
	.code	16                              @ @lv_table_get_row_cnt
	.thumb_func
lv_table_get_row_cnt:
.Lfunc_begin14:
	.loc	10 586 0                        @ lvgl/src/lv_widgets/lv_table.c:586:0
	.fnstart
	.cfi_startproc
@ %bb.0:
	@DEBUG_VALUE: lv_table_get_row_cnt:table <- $r0
	.save	{r4, lr}
	push	{r4, lr}
	.cfi_def_cfa_offset 8
	.cfi_offset lr, -4
	.cfi_offset r4, -8
	mov	r4, r0
.Ltmp550:
	@DEBUG_VALUE: lv_table_get_row_cnt:table <- $r4
	.loc	10 587 5 prologue_end           @ lvgl/src/lv_widgets/lv_table.c:587:5
	bl	lv_debug_check_null
.Ltmp551:
	.loc	10 587 5 is_stmt 0              @ lvgl/src/lv_widgets/lv_table.c:587:5
	cbz	r0, .LBB14_2
.Ltmp552:
@ %bb.1:
	@DEBUG_VALUE: lv_table_get_row_cnt:table <- $r4
	.loc	10 589 28 is_stmt 1             @ lvgl/src/lv_widgets/lv_table.c:589:28
	mov	r0, r4
	bl	lv_obj_get_ext_attr
.Ltmp553:
	@DEBUG_VALUE: lv_table_get_row_cnt:ext <- $r0
	.loc	10 590 17                       @ lvgl/src/lv_widgets/lv_table.c:590:17
	ldrh	r0, [r0, #2]
.Ltmp554:
	.loc	10 590 5 is_stmt 0              @ lvgl/src/lv_widgets/lv_table.c:590:5
	pop	{r4, pc}
.Ltmp555:
.LBB14_2:
	@DEBUG_VALUE: lv_table_get_row_cnt:table <- $r4
	.loc	10 587 5 is_stmt 1              @ lvgl/src/lv_widgets/lv_table.c:587:5
	movw	r0, :lower16:.L.str.1
	movs	r3, #0
	movt	r0, :upper16:.L.str.1
	mov	r2, r4
	bl	lv_debug_log_error
.Ltmp556:
	.p2align	2
.LBB14_3:                               @ =>This Inner Loop Header: Depth=1
	@DEBUG_VALUE: lv_table_get_row_cnt:table <- $r4
	b	.LBB14_3
.Ltmp557:
.Lfunc_end14:
	.size	lv_table_get_row_cnt, .Lfunc_end14-lv_table_get_row_cnt
	.cfi_endproc
	.cantunwind
	.fnend
                                        @ -- End function
	.section	.text.lv_table_get_col_cnt,"ax",%progbits
	.hidden	lv_table_get_col_cnt            @ -- Begin function lv_table_get_col_cnt
	.globl	lv_table_get_col_cnt
	.p2align	3
	.type	lv_table_get_col_cnt,%function
	.code	16                              @ @lv_table_get_col_cnt
	.thumb_func
lv_table_get_col_cnt:
.Lfunc_begin15:
	.loc	10 599 0                        @ lvgl/src/lv_widgets/lv_table.c:599:0
	.fnstart
	.cfi_startproc
@ %bb.0:
	@DEBUG_VALUE: lv_table_get_col_cnt:table <- $r0
	.save	{r4, lr}
	push	{r4, lr}
	.cfi_def_cfa_offset 8
	.cfi_offset lr, -4
	.cfi_offset r4, -8
	mov	r4, r0
.Ltmp558:
	@DEBUG_VALUE: lv_table_get_col_cnt:table <- $r4
	.loc	10 600 5 prologue_end           @ lvgl/src/lv_widgets/lv_table.c:600:5
	bl	lv_debug_check_null
.Ltmp559:
	.loc	10 600 5 is_stmt 0              @ lvgl/src/lv_widgets/lv_table.c:600:5
	cbz	r0, .LBB15_2
.Ltmp560:
@ %bb.1:
	@DEBUG_VALUE: lv_table_get_col_cnt:table <- $r4
	.loc	10 602 28 is_stmt 1             @ lvgl/src/lv_widgets/lv_table.c:602:28
	mov	r0, r4
	bl	lv_obj_get_ext_attr
.Ltmp561:
	@DEBUG_VALUE: lv_table_get_col_cnt:ext <- $r0
	.loc	10 603 17                       @ lvgl/src/lv_widgets/lv_table.c:603:17
	ldrh	r0, [r0]
.Ltmp562:
	.loc	10 603 5 is_stmt 0              @ lvgl/src/lv_widgets/lv_table.c:603:5
	pop	{r4, pc}
.Ltmp563:
.LBB15_2:
	@DEBUG_VALUE: lv_table_get_col_cnt:table <- $r4
	.loc	10 600 5 is_stmt 1              @ lvgl/src/lv_widgets/lv_table.c:600:5
	movw	r0, :lower16:.L.str.1
	movs	r3, #0
	movt	r0, :upper16:.L.str.1
	mov	r2, r4
	bl	lv_debug_log_error
.Ltmp564:
	.p2align	2
.LBB15_3:                               @ =>This Inner Loop Header: Depth=1
	@DEBUG_VALUE: lv_table_get_col_cnt:table <- $r4
	b	.LBB15_3
.Ltmp565:
.Lfunc_end15:
	.size	lv_table_get_col_cnt, .Lfunc_end15-lv_table_get_col_cnt
	.cfi_endproc
	.cantunwind
	.fnend
                                        @ -- End function
	.section	.text.lv_table_get_col_width,"ax",%progbits
	.hidden	lv_table_get_col_width          @ -- Begin function lv_table_get_col_width
	.globl	lv_table_get_col_width
	.p2align	3
	.type	lv_table_get_col_width,%function
	.code	16                              @ @lv_table_get_col_width
	.thumb_func
lv_table_get_col_width:
.Lfunc_begin16:
	.loc	10 613 0                        @ lvgl/src/lv_widgets/lv_table.c:613:0
	.fnstart
	.cfi_startproc
@ %bb.0:
	@DEBUG_VALUE: lv_table_get_col_width:table <- $r0
	@DEBUG_VALUE: lv_table_get_col_width:col_id <- $r1
	.save	{r4, r5, r7, lr}
	push	{r4, r5, r7, lr}
	.cfi_def_cfa_offset 16
	.cfi_offset lr, -4
	.cfi_offset r7, -8
	.cfi_offset r5, -12
	.cfi_offset r4, -16
	mov	r5, r1
.Ltmp566:
	@DEBUG_VALUE: lv_table_get_col_width:col_id <- $r5
	mov	r4, r0
	@DEBUG_VALUE: lv_table_get_col_width:col_id <- $r5
.Ltmp567:
	@DEBUG_VALUE: lv_table_get_col_width:table <- $r4
	.loc	10 614 5 prologue_end           @ lvgl/src/lv_widgets/lv_table.c:614:5
	bl	lv_debug_check_null
.Ltmp568:
	.loc	10 614 5 is_stmt 0              @ lvgl/src/lv_widgets/lv_table.c:614:5
	cbz	r0, .LBB16_3
.Ltmp569:
@ %bb.1:
	@DEBUG_VALUE: lv_table_get_col_width:col_id <- $r5
	@DEBUG_VALUE: lv_table_get_col_width:table <- $r4
	.loc	10 616 8 is_stmt 1              @ lvgl/src/lv_widgets/lv_table.c:616:8
	cmp	r5, #11
	bls	.LBB16_5
.Ltmp570:
@ %bb.2:
	@DEBUG_VALUE: lv_table_get_col_width:col_id <- $r5
	@DEBUG_VALUE: lv_table_get_col_width:table <- $r4
	.loc	10 0 8 is_stmt 0                @ lvgl/src/lv_widgets/lv_table.c:0:8
	movs	r0, #0
	.loc	10 623 1 is_stmt 1              @ lvgl/src/lv_widgets/lv_table.c:623:1
	sxth	r0, r0
	pop	{r4, r5, r7, pc}
.Ltmp571:
.LBB16_3:
	@DEBUG_VALUE: lv_table_get_col_width:col_id <- $r5
	@DEBUG_VALUE: lv_table_get_col_width:table <- $r4
	.loc	10 614 5                        @ lvgl/src/lv_widgets/lv_table.c:614:5
	movw	r0, :lower16:.L.str.1
	movs	r3, #0
	movt	r0, :upper16:.L.str.1
	mov	r2, r4
	bl	lv_debug_log_error
.Ltmp572:
	.p2align	2
.LBB16_4:                               @ =>This Inner Loop Header: Depth=1
	@DEBUG_VALUE: lv_table_get_col_width:col_id <- $r5
	@DEBUG_VALUE: lv_table_get_col_width:table <- $r4
	b	.LBB16_4
.Ltmp573:
.LBB16_5:
	@DEBUG_VALUE: lv_table_get_col_width:col_id <- $r5
	@DEBUG_VALUE: lv_table_get_col_width:table <- $r4
	.loc	10 621 28                       @ lvgl/src/lv_widgets/lv_table.c:621:28
	mov	r0, r4
	bl	lv_obj_get_ext_attr
.Ltmp574:
	@DEBUG_VALUE: lv_table_get_col_width:ext <- $r0
	.loc	10 622 17                       @ lvgl/src/lv_widgets/lv_table.c:622:17
	add.w	r0, r0, r5, lsl #1
.Ltmp575:
	.loc	10 622 12 is_stmt 0             @ lvgl/src/lv_widgets/lv_table.c:622:12
	ldrh	r0, [r0, #44]
	.loc	10 623 1 is_stmt 1              @ lvgl/src/lv_widgets/lv_table.c:623:1
	sxth	r0, r0
	pop	{r4, r5, r7, pc}
.Ltmp576:
.Lfunc_end16:
	.size	lv_table_get_col_width, .Lfunc_end16-lv_table_get_col_width
	.cfi_endproc
	.cantunwind
	.fnend
                                        @ -- End function
	.section	.text.lv_table_get_cell_align,"ax",%progbits
	.hidden	lv_table_get_cell_align         @ -- Begin function lv_table_get_cell_align
	.globl	lv_table_get_cell_align
	.p2align	3
	.type	lv_table_get_cell_align,%function
	.code	16                              @ @lv_table_get_cell_align
	.thumb_func
lv_table_get_cell_align:
.Lfunc_begin17:
	.loc	10 634 0                        @ lvgl/src/lv_widgets/lv_table.c:634:0
	.fnstart
	.cfi_startproc
@ %bb.0:
	@DEBUG_VALUE: lv_table_get_cell_align:table <- $r0
	@DEBUG_VALUE: lv_table_get_cell_align:row <- $r1
	@DEBUG_VALUE: lv_table_get_cell_align:col <- $r2
	.save	{r4, r5, r6, lr}
	push	{r4, r5, r6, lr}
	.cfi_def_cfa_offset 16
	.cfi_offset lr, -4
	.cfi_offset r6, -8
	.cfi_offset r5, -12
	.cfi_offset r4, -16
	mov	r4, r2
.Ltmp577:
	@DEBUG_VALUE: lv_table_get_cell_align:col <- $r4
	mov	r5, r1
.Ltmp578:
	@DEBUG_VALUE: lv_table_get_cell_align:row <- $r5
	mov	r6, r0
	@DEBUG_VALUE: lv_table_get_cell_align:col <- $r4
	@DEBUG_VALUE: lv_table_get_cell_align:row <- $r5
.Ltmp579:
	@DEBUG_VALUE: lv_table_get_cell_align:table <- $r6
	.loc	10 635 5 prologue_end           @ lvgl/src/lv_widgets/lv_table.c:635:5
	bl	lv_debug_check_null
.Ltmp580:
	.loc	10 635 5 is_stmt 0              @ lvgl/src/lv_widgets/lv_table.c:635:5
	cbz	r0, .LBB17_5
.Ltmp581:
@ %bb.1:
	@DEBUG_VALUE: lv_table_get_cell_align:table <- $r6
	@DEBUG_VALUE: lv_table_get_cell_align:row <- $r5
	@DEBUG_VALUE: lv_table_get_cell_align:col <- $r4
	@DEBUG_VALUE: lv_table_get_cell_align:row <- $r5
	.loc	10 637 28 is_stmt 1             @ lvgl/src/lv_widgets/lv_table.c:637:28
	mov	r0, r6
	bl	lv_obj_get_ext_attr
.Ltmp582:
	@DEBUG_VALUE: lv_table_get_cell_align:ext <- $r0
	.loc	10 638 20                       @ lvgl/src/lv_widgets/lv_table.c:638:20
	ldrh	r1, [r0, #2]
	.loc	10 638 28 is_stmt 0             @ lvgl/src/lv_widgets/lv_table.c:638:28
	cmp	r1, r5
	bls	.LBB17_7
.Ltmp583:
@ %bb.2:
	@DEBUG_VALUE: lv_table_get_cell_align:table <- $r6
	@DEBUG_VALUE: lv_table_get_cell_align:row <- $r5
	@DEBUG_VALUE: lv_table_get_cell_align:col <- $r4
	@DEBUG_VALUE: lv_table_get_cell_align:ext <- $r0
	@DEBUG_VALUE: lv_table_get_cell_align:row <- $r5
	.loc	10 638 43                       @ lvgl/src/lv_widgets/lv_table.c:638:43
	ldrh	r1, [r0]
.Ltmp584:
	.loc	10 638 8                        @ lvgl/src/lv_widgets/lv_table.c:638:8
	cmp	r1, r4
	bls	.LBB17_7
.Ltmp585:
@ %bb.3:
	@DEBUG_VALUE: lv_table_get_cell_align:table <- $r6
	@DEBUG_VALUE: lv_table_get_cell_align:row <- $r5
	@DEBUG_VALUE: lv_table_get_cell_align:col <- $r4
	@DEBUG_VALUE: lv_table_get_cell_align:ext <- $r0
	@DEBUG_VALUE: lv_table_get_cell_align:row <- $r5
	.loc	10 642 40 is_stmt 1             @ lvgl/src/lv_widgets/lv_table.c:642:40
	mla	r1, r1, r5, r4
.Ltmp586:
	@DEBUG_VALUE: lv_table_get_cell_align:cell <- $r1
	.loc	10 644 13                       @ lvgl/src/lv_widgets/lv_table.c:644:13
	ldr	r0, [r0, #4]
.Ltmp587:
	.loc	10 644 8 is_stmt 0              @ lvgl/src/lv_widgets/lv_table.c:644:8
	ldr.w	r0, [r0, r1, lsl #2]
.Ltmp588:
	.loc	10 644 8                        @ lvgl/src/lv_widgets/lv_table.c:644:8
	cbz	r0, .LBB17_7
.Ltmp589:
@ %bb.4:
	@DEBUG_VALUE: lv_table_get_cell_align:table <- $r6
	@DEBUG_VALUE: lv_table_get_cell_align:row <- $r5
	@DEBUG_VALUE: lv_table_get_cell_align:col <- $r4
	@DEBUG_VALUE: lv_table_get_cell_align:cell <- $r1
	.loc	10 648 30 is_stmt 1             @ lvgl/src/lv_widgets/lv_table.c:648:30
	ldrb	r0, [r0]
.Ltmp590:
	@DEBUG_VALUE: format <- $r0
	.loc	10 649 25                       @ lvgl/src/lv_widgets/lv_table.c:649:25
	and	r0, r0, #3
.Ltmp591:
	.loc	10 651 1                        @ lvgl/src/lv_widgets/lv_table.c:651:1
	pop	{r4, r5, r6, pc}
.Ltmp592:
.LBB17_5:
	@DEBUG_VALUE: lv_table_get_cell_align:table <- $r6
	@DEBUG_VALUE: lv_table_get_cell_align:row <- $r5
	@DEBUG_VALUE: lv_table_get_cell_align:col <- $r4
	.loc	10 635 5                        @ lvgl/src/lv_widgets/lv_table.c:635:5
	movw	r0, :lower16:.L.str.1
	movs	r3, #0
	movt	r0, :upper16:.L.str.1
	mov	r2, r6
	bl	lv_debug_log_error
.Ltmp593:
	.p2align	2
.LBB17_6:                               @ =>This Inner Loop Header: Depth=1
	@DEBUG_VALUE: lv_table_get_cell_align:table <- $r6
	@DEBUG_VALUE: lv_table_get_cell_align:row <- $r5
	@DEBUG_VALUE: lv_table_get_cell_align:col <- $r4
	b	.LBB17_6
.Ltmp594:
.LBB17_7:
	@DEBUG_VALUE: lv_table_get_cell_align:table <- $r6
	@DEBUG_VALUE: lv_table_get_cell_align:row <- $r5
	@DEBUG_VALUE: lv_table_get_cell_align:col <- $r4
	.loc	10 0 5 is_stmt 0                @ lvgl/src/lv_widgets/lv_table.c:0:5
	movs	r0, #0
	.loc	10 651 1 is_stmt 1              @ lvgl/src/lv_widgets/lv_table.c:651:1
	pop	{r4, r5, r6, pc}
.Ltmp595:
.Lfunc_end17:
	.size	lv_table_get_cell_align, .Lfunc_end17-lv_table_get_cell_align
	.cfi_endproc
	.cantunwind
	.fnend
                                        @ -- End function
	.section	.text.lv_table_get_cell_type,"ax",%progbits
	.hidden	lv_table_get_cell_type          @ -- Begin function lv_table_get_cell_type
	.globl	lv_table_get_cell_type
	.p2align	3
	.type	lv_table_get_cell_type,%function
	.code	16                              @ @lv_table_get_cell_type
	.thumb_func
lv_table_get_cell_type:
.Lfunc_begin18:
	.loc	10 661 0                        @ lvgl/src/lv_widgets/lv_table.c:661:0
	.fnstart
	.cfi_startproc
@ %bb.0:
	@DEBUG_VALUE: lv_table_get_cell_type:table <- $r0
	@DEBUG_VALUE: lv_table_get_cell_type:row <- $r1
	@DEBUG_VALUE: lv_table_get_cell_type:col <- $r2
	.save	{r4, r5, r6, lr}
	push	{r4, r5, r6, lr}
	.cfi_def_cfa_offset 16
	.cfi_offset lr, -4
	.cfi_offset r6, -8
	.cfi_offset r5, -12
	.cfi_offset r4, -16
	mov	r4, r2
.Ltmp596:
	@DEBUG_VALUE: lv_table_get_cell_type:col <- $r4
	mov	r5, r1
.Ltmp597:
	@DEBUG_VALUE: lv_table_get_cell_type:row <- $r5
	mov	r6, r0
	@DEBUG_VALUE: lv_table_get_cell_type:col <- $r4
	@DEBUG_VALUE: lv_table_get_cell_type:row <- $r5
.Ltmp598:
	@DEBUG_VALUE: lv_table_get_cell_type:table <- $r6
	.loc	10 662 5 prologue_end           @ lvgl/src/lv_widgets/lv_table.c:662:5
	bl	lv_debug_check_null
.Ltmp599:
	.loc	10 662 5 is_stmt 0              @ lvgl/src/lv_widgets/lv_table.c:662:5
	cbz	r0, .LBB18_5
.Ltmp600:
@ %bb.1:
	@DEBUG_VALUE: lv_table_get_cell_type:table <- $r6
	@DEBUG_VALUE: lv_table_get_cell_type:row <- $r5
	@DEBUG_VALUE: lv_table_get_cell_type:col <- $r4
	@DEBUG_VALUE: lv_table_get_cell_type:row <- $r5
	.loc	10 664 28 is_stmt 1             @ lvgl/src/lv_widgets/lv_table.c:664:28
	mov	r0, r6
	bl	lv_obj_get_ext_attr
.Ltmp601:
	@DEBUG_VALUE: lv_table_get_cell_type:ext <- $r0
	.loc	10 665 20                       @ lvgl/src/lv_widgets/lv_table.c:665:20
	ldrh	r1, [r0, #2]
	.loc	10 665 28 is_stmt 0             @ lvgl/src/lv_widgets/lv_table.c:665:28
	cmp	r1, r5
	bls	.LBB18_7
.Ltmp602:
@ %bb.2:
	@DEBUG_VALUE: lv_table_get_cell_type:table <- $r6
	@DEBUG_VALUE: lv_table_get_cell_type:row <- $r5
	@DEBUG_VALUE: lv_table_get_cell_type:col <- $r4
	@DEBUG_VALUE: lv_table_get_cell_type:ext <- $r0
	@DEBUG_VALUE: lv_table_get_cell_type:row <- $r5
	.loc	10 665 43                       @ lvgl/src/lv_widgets/lv_table.c:665:43
	ldrh	r1, [r0]
.Ltmp603:
	.loc	10 665 8                        @ lvgl/src/lv_widgets/lv_table.c:665:8
	cmp	r1, r4
	bls	.LBB18_7
.Ltmp604:
@ %bb.3:
	@DEBUG_VALUE: lv_table_get_cell_type:table <- $r6
	@DEBUG_VALUE: lv_table_get_cell_type:row <- $r5
	@DEBUG_VALUE: lv_table_get_cell_type:col <- $r4
	@DEBUG_VALUE: lv_table_get_cell_type:ext <- $r0
	@DEBUG_VALUE: lv_table_get_cell_type:row <- $r5
	.loc	10 669 40 is_stmt 1             @ lvgl/src/lv_widgets/lv_table.c:669:40
	mla	r1, r1, r5, r4
.Ltmp605:
	@DEBUG_VALUE: lv_table_get_cell_type:cell <- $r1
	.loc	10 671 13                       @ lvgl/src/lv_widgets/lv_table.c:671:13
	ldr	r0, [r0, #4]
.Ltmp606:
	.loc	10 671 8 is_stmt 0              @ lvgl/src/lv_widgets/lv_table.c:671:8
	ldr.w	r0, [r0, r1, lsl #2]
.Ltmp607:
	.loc	10 671 8                        @ lvgl/src/lv_widgets/lv_table.c:671:8
	cbz	r0, .LBB18_7
.Ltmp608:
@ %bb.4:
	@DEBUG_VALUE: lv_table_get_cell_type:table <- $r6
	@DEBUG_VALUE: lv_table_get_cell_type:row <- $r5
	@DEBUG_VALUE: lv_table_get_cell_type:col <- $r4
	@DEBUG_VALUE: lv_table_get_cell_type:cell <- $r1
	.loc	10 675 30 is_stmt 1             @ lvgl/src/lv_widgets/lv_table.c:675:30
	ldrb	r0, [r0]
.Ltmp609:
	@DEBUG_VALUE: format <- $r0
	.loc	10 676 25                       @ lvgl/src/lv_widgets/lv_table.c:676:25
	ubfx	r0, r0, #3, #4
.Ltmp610:
	.loc	10 676 30 is_stmt 0             @ lvgl/src/lv_widgets/lv_table.c:676:30
	adds	r0, #1
.Ltmp611:
	.loc	10 678 1 is_stmt 1              @ lvgl/src/lv_widgets/lv_table.c:678:1
	pop	{r4, r5, r6, pc}
.Ltmp612:
.LBB18_5:
	@DEBUG_VALUE: lv_table_get_cell_type:table <- $r6
	@DEBUG_VALUE: lv_table_get_cell_type:row <- $r5
	@DEBUG_VALUE: lv_table_get_cell_type:col <- $r4
	.loc	10 662 5                        @ lvgl/src/lv_widgets/lv_table.c:662:5
	movw	r0, :lower16:.L.str.1
	movs	r3, #0
	movt	r0, :upper16:.L.str.1
	mov	r2, r6
	bl	lv_debug_log_error
.Ltmp613:
	.p2align	2
.LBB18_6:                               @ =>This Inner Loop Header: Depth=1
	@DEBUG_VALUE: lv_table_get_cell_type:table <- $r6
	@DEBUG_VALUE: lv_table_get_cell_type:row <- $r5
	@DEBUG_VALUE: lv_table_get_cell_type:col <- $r4
	b	.LBB18_6
.Ltmp614:
.LBB18_7:
	@DEBUG_VALUE: lv_table_get_cell_type:table <- $r6
	@DEBUG_VALUE: lv_table_get_cell_type:row <- $r5
	@DEBUG_VALUE: lv_table_get_cell_type:col <- $r4
	.loc	10 0 5 is_stmt 0                @ lvgl/src/lv_widgets/lv_table.c:0:5
	movs	r0, #1
	.loc	10 678 1 is_stmt 1              @ lvgl/src/lv_widgets/lv_table.c:678:1
	pop	{r4, r5, r6, pc}
.Ltmp615:
.Lfunc_end18:
	.size	lv_table_get_cell_type, .Lfunc_end18-lv_table_get_cell_type
	.cfi_endproc
	.cantunwind
	.fnend
                                        @ -- End function
	.section	.text.lv_table_get_cell_crop,"ax",%progbits
	.hidden	lv_table_get_cell_crop          @ -- Begin function lv_table_get_cell_crop
	.globl	lv_table_get_cell_crop
	.p2align	3
	.type	lv_table_get_cell_crop,%function
	.code	16                              @ @lv_table_get_cell_crop
	.thumb_func
lv_table_get_cell_crop:
.Lfunc_begin19:
	.loc	10 688 0                        @ lvgl/src/lv_widgets/lv_table.c:688:0
	.fnstart
	.cfi_startproc
@ %bb.0:
	@DEBUG_VALUE: lv_table_get_cell_crop:table <- $r0
	@DEBUG_VALUE: lv_table_get_cell_crop:row <- $r1
	@DEBUG_VALUE: lv_table_get_cell_crop:col <- $r2
	.save	{r4, r5, r6, lr}
	push	{r4, r5, r6, lr}
	.cfi_def_cfa_offset 16
	.cfi_offset lr, -4
	.cfi_offset r6, -8
	.cfi_offset r5, -12
	.cfi_offset r4, -16
	mov	r4, r2
.Ltmp616:
	@DEBUG_VALUE: lv_table_get_cell_crop:col <- $r4
	mov	r5, r1
.Ltmp617:
	@DEBUG_VALUE: lv_table_get_cell_crop:row <- $r5
	mov	r6, r0
	@DEBUG_VALUE: lv_table_get_cell_crop:col <- $r4
	@DEBUG_VALUE: lv_table_get_cell_crop:row <- $r5
.Ltmp618:
	@DEBUG_VALUE: lv_table_get_cell_crop:table <- $r6
	.loc	10 689 5 prologue_end           @ lvgl/src/lv_widgets/lv_table.c:689:5
	bl	lv_debug_check_null
.Ltmp619:
	.loc	10 689 5 is_stmt 0              @ lvgl/src/lv_widgets/lv_table.c:689:5
	cbz	r0, .LBB19_5
.Ltmp620:
@ %bb.1:
	@DEBUG_VALUE: lv_table_get_cell_crop:table <- $r6
	@DEBUG_VALUE: lv_table_get_cell_crop:row <- $r5
	@DEBUG_VALUE: lv_table_get_cell_crop:col <- $r4
	@DEBUG_VALUE: lv_table_get_cell_crop:row <- $r5
	.loc	10 691 28 is_stmt 1             @ lvgl/src/lv_widgets/lv_table.c:691:28
	mov	r0, r6
	bl	lv_obj_get_ext_attr
.Ltmp621:
	@DEBUG_VALUE: lv_table_get_cell_crop:ext <- $r0
	.loc	10 692 20                       @ lvgl/src/lv_widgets/lv_table.c:692:20
	ldrh	r1, [r0, #2]
	.loc	10 692 28 is_stmt 0             @ lvgl/src/lv_widgets/lv_table.c:692:28
	cmp	r1, r5
	bls	.LBB19_7
.Ltmp622:
@ %bb.2:
	@DEBUG_VALUE: lv_table_get_cell_crop:table <- $r6
	@DEBUG_VALUE: lv_table_get_cell_crop:row <- $r5
	@DEBUG_VALUE: lv_table_get_cell_crop:col <- $r4
	@DEBUG_VALUE: lv_table_get_cell_crop:ext <- $r0
	@DEBUG_VALUE: lv_table_get_cell_crop:row <- $r5
	.loc	10 692 43                       @ lvgl/src/lv_widgets/lv_table.c:692:43
	ldrh	r1, [r0]
.Ltmp623:
	.loc	10 692 8                        @ lvgl/src/lv_widgets/lv_table.c:692:8
	cmp	r1, r4
	bls	.LBB19_7
.Ltmp624:
@ %bb.3:
	@DEBUG_VALUE: lv_table_get_cell_crop:table <- $r6
	@DEBUG_VALUE: lv_table_get_cell_crop:row <- $r5
	@DEBUG_VALUE: lv_table_get_cell_crop:col <- $r4
	@DEBUG_VALUE: lv_table_get_cell_crop:ext <- $r0
	@DEBUG_VALUE: lv_table_get_cell_crop:row <- $r5
	.loc	10 696 40 is_stmt 1             @ lvgl/src/lv_widgets/lv_table.c:696:40
	mla	r1, r1, r5, r4
.Ltmp625:
	@DEBUG_VALUE: lv_table_get_cell_crop:cell <- $r1
	.loc	10 698 13                       @ lvgl/src/lv_widgets/lv_table.c:698:13
	ldr	r0, [r0, #4]
.Ltmp626:
	.loc	10 698 8 is_stmt 0              @ lvgl/src/lv_widgets/lv_table.c:698:8
	ldr.w	r0, [r0, r1, lsl #2]
.Ltmp627:
	.loc	10 698 8                        @ lvgl/src/lv_widgets/lv_table.c:698:8
	cbz	r0, .LBB19_7
.Ltmp628:
@ %bb.4:
	@DEBUG_VALUE: lv_table_get_cell_crop:table <- $r6
	@DEBUG_VALUE: lv_table_get_cell_crop:row <- $r5
	@DEBUG_VALUE: lv_table_get_cell_crop:col <- $r4
	@DEBUG_VALUE: lv_table_get_cell_crop:cell <- $r1
	.loc	10 702 30 is_stmt 1             @ lvgl/src/lv_widgets/lv_table.c:702:30
	ldrb	r0, [r0]
.Ltmp629:
	@DEBUG_VALUE: format <- $r0
	.loc	10 703 25                       @ lvgl/src/lv_widgets/lv_table.c:703:25
	lsrs	r0, r0, #7
.Ltmp630:
	.loc	10 705 1                        @ lvgl/src/lv_widgets/lv_table.c:705:1
	pop	{r4, r5, r6, pc}
.Ltmp631:
.LBB19_5:
	@DEBUG_VALUE: lv_table_get_cell_crop:table <- $r6
	@DEBUG_VALUE: lv_table_get_cell_crop:row <- $r5
	@DEBUG_VALUE: lv_table_get_cell_crop:col <- $r4
	.loc	10 689 5                        @ lvgl/src/lv_widgets/lv_table.c:689:5
	movw	r0, :lower16:.L.str.1
	movs	r3, #0
	movt	r0, :upper16:.L.str.1
	mov	r2, r6
	bl	lv_debug_log_error
.Ltmp632:
	.p2align	2
.LBB19_6:                               @ =>This Inner Loop Header: Depth=1
	@DEBUG_VALUE: lv_table_get_cell_crop:table <- $r6
	@DEBUG_VALUE: lv_table_get_cell_crop:row <- $r5
	@DEBUG_VALUE: lv_table_get_cell_crop:col <- $r4
	b	.LBB19_6
.Ltmp633:
.LBB19_7:
	@DEBUG_VALUE: lv_table_get_cell_crop:table <- $r6
	@DEBUG_VALUE: lv_table_get_cell_crop:row <- $r5
	@DEBUG_VALUE: lv_table_get_cell_crop:col <- $r4
	.loc	10 0 5 is_stmt 0                @ lvgl/src/lv_widgets/lv_table.c:0:5
	movs	r0, #0
	.loc	10 705 1 is_stmt 1              @ lvgl/src/lv_widgets/lv_table.c:705:1
	pop	{r4, r5, r6, pc}
.Ltmp634:
.Lfunc_end19:
	.size	lv_table_get_cell_crop, .Lfunc_end19-lv_table_get_cell_crop
	.cfi_endproc
	.cantunwind
	.fnend
                                        @ -- End function
	.section	.text.lv_table_get_cell_merge_right,"ax",%progbits
	.hidden	lv_table_get_cell_merge_right   @ -- Begin function lv_table_get_cell_merge_right
	.globl	lv_table_get_cell_merge_right
	.p2align	3
	.type	lv_table_get_cell_merge_right,%function
	.code	16                              @ @lv_table_get_cell_merge_right
	.thumb_func
lv_table_get_cell_merge_right:
.Lfunc_begin20:
	.loc	10 715 0                        @ lvgl/src/lv_widgets/lv_table.c:715:0
	.fnstart
	.cfi_startproc
@ %bb.0:
	@DEBUG_VALUE: lv_table_get_cell_merge_right:table <- $r0
	@DEBUG_VALUE: lv_table_get_cell_merge_right:row <- $r1
	@DEBUG_VALUE: lv_table_get_cell_merge_right:col <- $r2
	.save	{r4, r5, r6, lr}
	push	{r4, r5, r6, lr}
	.cfi_def_cfa_offset 16
	.cfi_offset lr, -4
	.cfi_offset r6, -8
	.cfi_offset r5, -12
	.cfi_offset r4, -16
	mov	r4, r2
.Ltmp635:
	@DEBUG_VALUE: lv_table_get_cell_merge_right:col <- $r4
	mov	r5, r1
.Ltmp636:
	@DEBUG_VALUE: lv_table_get_cell_merge_right:row <- $r5
	mov	r6, r0
	@DEBUG_VALUE: lv_table_get_cell_merge_right:col <- $r4
	@DEBUG_VALUE: lv_table_get_cell_merge_right:row <- $r5
.Ltmp637:
	@DEBUG_VALUE: lv_table_get_cell_merge_right:table <- $r6
	.loc	10 716 5 prologue_end           @ lvgl/src/lv_widgets/lv_table.c:716:5
	bl	lv_debug_check_null
.Ltmp638:
	.loc	10 716 5 is_stmt 0              @ lvgl/src/lv_widgets/lv_table.c:716:5
	cbz	r0, .LBB20_5
.Ltmp639:
@ %bb.1:
	@DEBUG_VALUE: lv_table_get_cell_merge_right:table <- $r6
	@DEBUG_VALUE: lv_table_get_cell_merge_right:row <- $r5
	@DEBUG_VALUE: lv_table_get_cell_merge_right:col <- $r4
	@DEBUG_VALUE: lv_table_get_cell_merge_right:row <- $r5
	.loc	10 718 28 is_stmt 1             @ lvgl/src/lv_widgets/lv_table.c:718:28
	mov	r0, r6
	bl	lv_obj_get_ext_attr
.Ltmp640:
	@DEBUG_VALUE: lv_table_get_cell_merge_right:ext <- $r0
	.loc	10 719 20                       @ lvgl/src/lv_widgets/lv_table.c:719:20
	ldrh	r1, [r0, #2]
	.loc	10 719 28 is_stmt 0             @ lvgl/src/lv_widgets/lv_table.c:719:28
	cmp	r1, r5
	bls	.LBB20_7
.Ltmp641:
@ %bb.2:
	@DEBUG_VALUE: lv_table_get_cell_merge_right:table <- $r6
	@DEBUG_VALUE: lv_table_get_cell_merge_right:row <- $r5
	@DEBUG_VALUE: lv_table_get_cell_merge_right:col <- $r4
	@DEBUG_VALUE: lv_table_get_cell_merge_right:ext <- $r0
	@DEBUG_VALUE: lv_table_get_cell_merge_right:row <- $r5
	.loc	10 719 43                       @ lvgl/src/lv_widgets/lv_table.c:719:43
	ldrh	r1, [r0]
.Ltmp642:
	.loc	10 719 8                        @ lvgl/src/lv_widgets/lv_table.c:719:8
	cmp	r1, r4
	bls	.LBB20_7
.Ltmp643:
@ %bb.3:
	@DEBUG_VALUE: lv_table_get_cell_merge_right:table <- $r6
	@DEBUG_VALUE: lv_table_get_cell_merge_right:row <- $r5
	@DEBUG_VALUE: lv_table_get_cell_merge_right:col <- $r4
	@DEBUG_VALUE: lv_table_get_cell_merge_right:ext <- $r0
	@DEBUG_VALUE: lv_table_get_cell_merge_right:row <- $r5
	.loc	10 724 40 is_stmt 1             @ lvgl/src/lv_widgets/lv_table.c:724:40
	mla	r1, r1, r5, r4
.Ltmp644:
	@DEBUG_VALUE: lv_table_get_cell_merge_right:cell <- $r1
	.loc	10 726 13                       @ lvgl/src/lv_widgets/lv_table.c:726:13
	ldr	r0, [r0, #4]
.Ltmp645:
	.loc	10 726 8 is_stmt 0              @ lvgl/src/lv_widgets/lv_table.c:726:8
	ldr.w	r0, [r0, r1, lsl #2]
.Ltmp646:
	.loc	10 726 8                        @ lvgl/src/lv_widgets/lv_table.c:726:8
	cbz	r0, .LBB20_7
.Ltmp647:
@ %bb.4:
	@DEBUG_VALUE: lv_table_get_cell_merge_right:table <- $r6
	@DEBUG_VALUE: lv_table_get_cell_merge_right:row <- $r5
	@DEBUG_VALUE: lv_table_get_cell_merge_right:col <- $r4
	@DEBUG_VALUE: lv_table_get_cell_merge_right:cell <- $r1
	.loc	10 730 30 is_stmt 1             @ lvgl/src/lv_widgets/lv_table.c:730:30
	ldrb	r0, [r0]
.Ltmp648:
	@DEBUG_VALUE: format <- undef
	.loc	10 731 16                       @ lvgl/src/lv_widgets/lv_table.c:731:16
	ubfx	r0, r0, #2, #1
.Ltmp649:
	.loc	10 733 1                        @ lvgl/src/lv_widgets/lv_table.c:733:1
	pop	{r4, r5, r6, pc}
.Ltmp650:
.LBB20_5:
	@DEBUG_VALUE: lv_table_get_cell_merge_right:table <- $r6
	@DEBUG_VALUE: lv_table_get_cell_merge_right:row <- $r5
	@DEBUG_VALUE: lv_table_get_cell_merge_right:col <- $r4
	.loc	10 716 5                        @ lvgl/src/lv_widgets/lv_table.c:716:5
	movw	r0, :lower16:.L.str.1
	movs	r3, #0
	movt	r0, :upper16:.L.str.1
	mov	r2, r6
	bl	lv_debug_log_error
.Ltmp651:
	.p2align	2
.LBB20_6:                               @ =>This Inner Loop Header: Depth=1
	@DEBUG_VALUE: lv_table_get_cell_merge_right:table <- $r6
	@DEBUG_VALUE: lv_table_get_cell_merge_right:row <- $r5
	@DEBUG_VALUE: lv_table_get_cell_merge_right:col <- $r4
	b	.LBB20_6
.Ltmp652:
.LBB20_7:
	@DEBUG_VALUE: lv_table_get_cell_merge_right:table <- $r6
	@DEBUG_VALUE: lv_table_get_cell_merge_right:row <- $r5
	@DEBUG_VALUE: lv_table_get_cell_merge_right:col <- $r4
	.loc	10 0 5 is_stmt 0                @ lvgl/src/lv_widgets/lv_table.c:0:5
	movs	r0, #0
	.loc	10 733 1 is_stmt 1              @ lvgl/src/lv_widgets/lv_table.c:733:1
	pop	{r4, r5, r6, pc}
.Ltmp653:
.Lfunc_end20:
	.size	lv_table_get_cell_merge_right, .Lfunc_end20-lv_table_get_cell_merge_right
	.cfi_endproc
	.cantunwind
	.fnend
                                        @ -- End function
	.section	.text.lv_table_get_pressed_cell,"ax",%progbits
	.hidden	lv_table_get_pressed_cell       @ -- Begin function lv_table_get_pressed_cell
	.globl	lv_table_get_pressed_cell
	.p2align	3
	.type	lv_table_get_pressed_cell,%function
	.code	16                              @ @lv_table_get_pressed_cell
	.thumb_func
lv_table_get_pressed_cell:
.Lfunc_begin21:
	.loc	10 743 0                        @ lvgl/src/lv_widgets/lv_table.c:743:0
	.fnstart
	.cfi_startproc
@ %bb.0:
	@DEBUG_VALUE: lv_table_get_pressed_cell:table <- $r0
	@DEBUG_VALUE: lv_table_get_pressed_cell:row <- $r1
	@DEBUG_VALUE: lv_table_get_pressed_cell:col <- $r2
	.save	{r4, r5, r6, r7, r8, r9, r10, r11, lr}
	push.w	{r4, r5, r6, r7, r8, r9, r10, r11, lr}
	.cfi_def_cfa_offset 36
	.cfi_offset lr, -4
	.cfi_offset r11, -8
	.cfi_offset r10, -12
	.cfi_offset r9, -16
	.cfi_offset r8, -20
	.cfi_offset r7, -24
	.cfi_offset r6, -28
	.cfi_offset r5, -32
	.cfi_offset r4, -36
	.pad	#4
	sub	sp, #4
	.cfi_def_cfa_offset 40
	mov	r7, r2
.Ltmp654:
	@DEBUG_VALUE: lv_table_get_pressed_cell:col <- $r7
	mov	r10, r1
.Ltmp655:
	@DEBUG_VALUE: lv_table_get_pressed_cell:row <- $r10
	mov	r11, r0
	@DEBUG_VALUE: lv_table_get_pressed_cell:col <- $r7
	@DEBUG_VALUE: lv_table_get_pressed_cell:row <- $r10
.Ltmp656:
	@DEBUG_VALUE: lv_table_get_pressed_cell:table <- $r11
	.loc	10 744 28 prologue_end          @ lvgl/src/lv_widgets/lv_table.c:744:28
	bl	lv_obj_get_ext_attr
	mov	r5, r0
.Ltmp657:
	@DEBUG_VALUE: lv_table_get_pressed_cell:ext <- $r5
	.loc	10 746 46                       @ lvgl/src/lv_widgets/lv_table.c:746:46
	bl	lv_indev_get_act
	.loc	10 746 28 is_stmt 0             @ lvgl/src/lv_widgets/lv_table.c:746:28
	bl	lv_indev_get_type
.Ltmp658:
	@DEBUG_VALUE: lv_table_get_pressed_cell:type <- undef
	.loc	10 747 38 is_stmt 1             @ lvgl/src/lv_widgets/lv_table.c:747:38
	orr	r0, r0, #2
	cmp	r0, #3
	bne	.LBB21_12
.Ltmp659:
@ %bb.1:
	@DEBUG_VALUE: lv_table_get_pressed_cell:table <- $r11
	@DEBUG_VALUE: lv_table_get_pressed_cell:row <- $r10
	@DEBUG_VALUE: lv_table_get_pressed_cell:col <- $r7
	@DEBUG_VALUE: lv_table_get_pressed_cell:ext <- $r5
	.loc	10 754 24                       @ lvgl/src/lv_widgets/lv_table.c:754:24
	bl	lv_indev_get_act
	mov	r1, sp
	.loc	10 754 5 is_stmt 0              @ lvgl/src/lv_widgets/lv_table.c:754:5
	bl	lv_indev_get_point
	.loc	10 757 8 is_stmt 1              @ lvgl/src/lv_widgets/lv_table.c:757:8
	cbz	r7, .LBB21_6
.Ltmp660:
@ %bb.2:
	@DEBUG_VALUE: lv_table_get_pressed_cell:table <- $r11
	@DEBUG_VALUE: lv_table_get_pressed_cell:row <- $r10
	@DEBUG_VALUE: lv_table_get_pressed_cell:col <- $r7
	@DEBUG_VALUE: lv_table_get_pressed_cell:ext <- $r5
	.loc	10 758 26                       @ lvgl/src/lv_widgets/lv_table.c:758:26
	ldrh.w	r8, [sp]
.Ltmp661:
	@DEBUG_VALUE: x <- undef
	.loc	10 759 28                       @ lvgl/src/lv_widgets/lv_table.c:759:28
	ldrh.w	r9, [r11, #16]
	@DEBUG_VALUE: x <- undef
	.loc	10 760 14                       @ lvgl/src/lv_widgets/lv_table.c:760:14
	movs	r1, #0
	mov	r0, r11
	movs	r4, #0
	bl	lv_obj_get_style_pad_left
.Ltmp662:
	.loc	10 0 0 is_stmt 0                @ lvgl/src/lv_widgets/lv_table.c:0:0
	strh	r4, [r7]
.Ltmp663:
	@DEBUG_VALUE: lv_table_get_pressed_cell:tmp <- undef
	.loc	10 763 35 is_stmt 1             @ lvgl/src/lv_widgets/lv_table.c:763:35
	ldrh	r1, [r5]
.Ltmp664:
	@DEBUG_VALUE: lv_table_get_pressed_cell:tmp <- 0
	@DEBUG_VALUE: x <- undef
	.loc	10 763 9 is_stmt 0              @ lvgl/src/lv_widgets/lv_table.c:763:9
	cbz	r1, .LBB21_6
.Ltmp665:
@ %bb.3:
	@DEBUG_VALUE: lv_table_get_pressed_cell:table <- $r11
	@DEBUG_VALUE: lv_table_get_pressed_cell:row <- $r10
	@DEBUG_VALUE: lv_table_get_pressed_cell:col <- $r7
	@DEBUG_VALUE: lv_table_get_pressed_cell:ext <- $r5
	@DEBUG_VALUE: lv_table_get_pressed_cell:tmp <- 0
	.loc	10 759 11 is_stmt 1             @ lvgl/src/lv_widgets/lv_table.c:759:11
	sub.w	r1, r8, r9
.Ltmp666:
	@DEBUG_VALUE: x <- $r1
	.loc	10 0 11 is_stmt 0               @ lvgl/src/lv_widgets/lv_table.c:0:11
	movs	r2, #0
	.loc	10 760 11 is_stmt 1             @ lvgl/src/lv_widgets/lv_table.c:760:11
	subs	r1, r1, r0
.Ltmp667:
	@DEBUG_VALUE: x <- $r1
	.loc	10 0 11 is_stmt 0               @ lvgl/src/lv_widgets/lv_table.c:0:11
	add.w	r0, r5, #44
	sxth	r1, r1
.Ltmp668:
	movs	r3, #0
.Ltmp669:
	.p2align	2
.LBB21_4:                               @ =>This Inner Loop Header: Depth=1
	@DEBUG_VALUE: lv_table_get_pressed_cell:table <- $r11
	@DEBUG_VALUE: lv_table_get_pressed_cell:row <- $r10
	@DEBUG_VALUE: lv_table_get_pressed_cell:col <- $r7
	@DEBUG_VALUE: lv_table_get_pressed_cell:ext <- $r5
	.loc	10 763 23 is_stmt 1             @ lvgl/src/lv_widgets/lv_table.c:763:23
	uxth	r6, r3
.Ltmp670:
	.loc	10 764 20                       @ lvgl/src/lv_widgets/lv_table.c:764:20
	ldrh.w	r6, [r0, r6, lsl #1]
	.loc	10 764 17 is_stmt 0             @ lvgl/src/lv_widgets/lv_table.c:764:17
	sxtah	r2, r6, r2
.Ltmp671:
	@DEBUG_VALUE: lv_table_get_pressed_cell:tmp <- [DW_OP_LLVM_convert 32 7, DW_OP_LLVM_convert 16 7, DW_OP_stack_value] $r2
	.loc	10 765 20 is_stmt 1             @ lvgl/src/lv_widgets/lv_table.c:765:20
	sxth	r6, r2
.Ltmp672:
	.loc	10 765 16 is_stmt 0             @ lvgl/src/lv_widgets/lv_table.c:765:16
	cmp	r6, r1
	bgt	.LBB21_6
.Ltmp673:
@ %bb.5:                                @   in Loop: Header=BB21_4 Depth=1
	@DEBUG_VALUE: lv_table_get_pressed_cell:table <- $r11
	@DEBUG_VALUE: lv_table_get_pressed_cell:row <- $r10
	@DEBUG_VALUE: lv_table_get_pressed_cell:col <- $r7
	@DEBUG_VALUE: lv_table_get_pressed_cell:ext <- $r5
	@DEBUG_VALUE: lv_table_get_pressed_cell:tmp <- [DW_OP_LLVM_convert 32 7, DW_OP_LLVM_convert 16 7, DW_OP_stack_value] $r2
	.loc	10 0 0                          @ lvgl/src/lv_widgets/lv_table.c:0:0
	adds	r3, #1
	strh	r3, [r7]
	uxth	r4, r3
.Ltmp674:
	@DEBUG_VALUE: lv_table_get_pressed_cell:tmp <- undef
	.loc	10 763 35 is_stmt 1             @ lvgl/src/lv_widgets/lv_table.c:763:35
	ldrh	r6, [r5]
.Ltmp675:
	.loc	10 763 9 is_stmt 0              @ lvgl/src/lv_widgets/lv_table.c:763:9
	cmp	r4, r6
	blo	.LBB21_4
.Ltmp676:
.LBB21_6:
	@DEBUG_VALUE: lv_table_get_pressed_cell:table <- $r11
	@DEBUG_VALUE: lv_table_get_pressed_cell:row <- $r10
	@DEBUG_VALUE: lv_table_get_pressed_cell:col <- $r7
	@DEBUG_VALUE: lv_table_get_pressed_cell:ext <- $r5
	.loc	10 769 8 is_stmt 1              @ lvgl/src/lv_widgets/lv_table.c:769:8
	cmp.w	r10, #0
	beq	.LBB21_11
.Ltmp677:
@ %bb.7:
	@DEBUG_VALUE: lv_table_get_pressed_cell:table <- $r11
	@DEBUG_VALUE: lv_table_get_pressed_cell:row <- $r10
	@DEBUG_VALUE: lv_table_get_pressed_cell:col <- $r7
	@DEBUG_VALUE: lv_table_get_pressed_cell:ext <- $r5
	.loc	10 770 26                       @ lvgl/src/lv_widgets/lv_table.c:770:26
	ldrh.w	r8, [sp, #2]
.Ltmp678:
	@DEBUG_VALUE: y <- undef
	.loc	10 771 28                       @ lvgl/src/lv_widgets/lv_table.c:771:28
	ldrh.w	r7, [r11, #18]
.Ltmp679:
	@DEBUG_VALUE: y <- undef
	.loc	10 772 14                       @ lvgl/src/lv_widgets/lv_table.c:772:14
	movs	r1, #0
	mov	r0, r11
	movs	r4, #0
	bl	lv_obj_get_style_pad_top
.Ltmp680:
	.loc	10 0 0 is_stmt 0                @ lvgl/src/lv_widgets/lv_table.c:0:0
	strh.w	r4, [r10]
.Ltmp681:
	@DEBUG_VALUE: lv_table_get_pressed_cell:tmp <- undef
	.loc	10 777 35 is_stmt 1             @ lvgl/src/lv_widgets/lv_table.c:777:35
	ldrh	r1, [r5, #2]
.Ltmp682:
	@DEBUG_VALUE: y <- undef
	@DEBUG_VALUE: lv_table_get_pressed_cell:tmp <- 0
	.loc	10 777 9 is_stmt 0              @ lvgl/src/lv_widgets/lv_table.c:777:9
	cbz	r1, .LBB21_11
.Ltmp683:
@ %bb.8:
	@DEBUG_VALUE: lv_table_get_pressed_cell:table <- $r11
	@DEBUG_VALUE: lv_table_get_pressed_cell:row <- $r10
	@DEBUG_VALUE: lv_table_get_pressed_cell:ext <- $r5
	@DEBUG_VALUE: lv_table_get_pressed_cell:tmp <- 0
	.loc	10 771 11 is_stmt 1             @ lvgl/src/lv_widgets/lv_table.c:771:11
	sub.w	r1, r8, r7
.Ltmp684:
	@DEBUG_VALUE: y <- $r1
	.loc	10 0 11 is_stmt 0               @ lvgl/src/lv_widgets/lv_table.c:0:11
	movs	r2, #0
	.loc	10 772 11 is_stmt 1             @ lvgl/src/lv_widgets/lv_table.c:772:11
	subs	r1, r1, r0
.Ltmp685:
	@DEBUG_VALUE: y <- $r1
	.loc	10 0 11 is_stmt 0               @ lvgl/src/lv_widgets/lv_table.c:0:11
	ldr	r0, [r5, #8]
	sxth	r1, r1
.Ltmp686:
	movs	r3, #0
.Ltmp687:
	.p2align	2
.LBB21_9:                               @ =>This Inner Loop Header: Depth=1
	@DEBUG_VALUE: lv_table_get_pressed_cell:table <- $r11
	@DEBUG_VALUE: lv_table_get_pressed_cell:row <- $r10
	@DEBUG_VALUE: lv_table_get_pressed_cell:ext <- $r5
	.loc	10 777 23 is_stmt 1             @ lvgl/src/lv_widgets/lv_table.c:777:23
	uxth	r7, r3
.Ltmp688:
	.loc	10 778 20                       @ lvgl/src/lv_widgets/lv_table.c:778:20
	ldrh.w	r7, [r0, r7, lsl #1]
	.loc	10 778 17 is_stmt 0             @ lvgl/src/lv_widgets/lv_table.c:778:17
	sxtah	r2, r7, r2
.Ltmp689:
	@DEBUG_VALUE: lv_table_get_pressed_cell:tmp <- [DW_OP_LLVM_convert 32 7, DW_OP_LLVM_convert 16 7, DW_OP_stack_value] $r2
	.loc	10 779 20 is_stmt 1             @ lvgl/src/lv_widgets/lv_table.c:779:20
	sxth	r7, r2
.Ltmp690:
	.loc	10 779 16 is_stmt 0             @ lvgl/src/lv_widgets/lv_table.c:779:16
	cmp	r7, r1
	bgt	.LBB21_11
.Ltmp691:
@ %bb.10:                               @   in Loop: Header=BB21_9 Depth=1
	@DEBUG_VALUE: lv_table_get_pressed_cell:table <- $r11
	@DEBUG_VALUE: lv_table_get_pressed_cell:row <- $r10
	@DEBUG_VALUE: lv_table_get_pressed_cell:ext <- $r5
	@DEBUG_VALUE: lv_table_get_pressed_cell:tmp <- [DW_OP_LLVM_convert 32 7, DW_OP_LLVM_convert 16 7, DW_OP_stack_value] $r2
	.loc	10 0 0                          @ lvgl/src/lv_widgets/lv_table.c:0:0
	adds	r3, #1
	strh.w	r3, [r10]
	uxth	r6, r3
.Ltmp692:
	@DEBUG_VALUE: lv_table_get_pressed_cell:tmp <- undef
	.loc	10 777 35 is_stmt 1             @ lvgl/src/lv_widgets/lv_table.c:777:35
	ldrh	r7, [r5, #2]
.Ltmp693:
	.loc	10 777 9 is_stmt 0              @ lvgl/src/lv_widgets/lv_table.c:777:9
	cmp	r6, r7
	blo	.LBB21_9
.Ltmp694:
.LBB21_11:
	@DEBUG_VALUE: lv_table_get_pressed_cell:table <- $r11
	@DEBUG_VALUE: lv_table_get_pressed_cell:row <- $r10
	@DEBUG_VALUE: lv_table_get_pressed_cell:ext <- $r5
	.loc	10 0 9                          @ lvgl/src/lv_widgets/lv_table.c:0:9
	movs	r0, #1
	.loc	10 784 1 is_stmt 1              @ lvgl/src/lv_widgets/lv_table.c:784:1
	add	sp, #4
	pop.w	{r4, r5, r6, r7, r8, r9, r10, r11, pc}
.Ltmp695:
.LBB21_12:
	@DEBUG_VALUE: lv_table_get_pressed_cell:table <- $r11
	@DEBUG_VALUE: lv_table_get_pressed_cell:row <- $r10
	@DEBUG_VALUE: lv_table_get_pressed_cell:col <- $r7
	@DEBUG_VALUE: lv_table_get_pressed_cell:ext <- $r5
	.loc	10 0 1 is_stmt 0                @ lvgl/src/lv_widgets/lv_table.c:0:1
	movw	r0, #65535
.Ltmp696:
	.loc	10 748 12 is_stmt 1             @ lvgl/src/lv_widgets/lv_table.c:748:12
	cmp	r7, #0
.Ltmp697:
	.loc	10 748 22 is_stmt 0             @ lvgl/src/lv_widgets/lv_table.c:748:22
	it	ne
	strhne	r0, [r7]
.Ltmp698:
	.loc	10 749 12 is_stmt 1             @ lvgl/src/lv_widgets/lv_table.c:749:12
	cmp.w	r10, #0
.Ltmp699:
	.loc	10 749 22 is_stmt 0             @ lvgl/src/lv_widgets/lv_table.c:749:22
	it	ne
	strhne.w	r0, [r10]
	movs	r0, #0
.Ltmp700:
	.loc	10 784 1 is_stmt 1              @ lvgl/src/lv_widgets/lv_table.c:784:1
	add	sp, #4
	pop.w	{r4, r5, r6, r7, r8, r9, r10, r11, pc}
.Ltmp701:
.Lfunc_end21:
	.size	lv_table_get_pressed_cell, .Lfunc_end21-lv_table_get_pressed_cell
	.cfi_endproc
	.cantunwind
	.fnend
                                        @ -- End function
	.section	.text.lv_obj_get_style_pad_left,"ax",%progbits
	.p2align	3                               @ -- Begin function lv_obj_get_style_pad_left
	.type	lv_obj_get_style_pad_left,%function
	.code	16                              @ @lv_obj_get_style_pad_left
	.thumb_func
lv_obj_get_style_pad_left:
.Lfunc_begin22:
	.file	15 "E:\\Smart-access-control\\Hardware\\CODE" "lvgl/src/lv_widgets/../lv_core/lv_obj_style_dec.h"
	.loc	15 102 0                        @ lvgl/src/lv_widgets/../lv_core/lv_obj_style_dec.h:102:0
	.fnstart
	.cfi_startproc
@ %bb.0:
	@DEBUG_VALUE: lv_obj_get_style_pad_left:obj <- $r0
	@DEBUG_VALUE: lv_obj_get_style_pad_left:obj <- $r0
	@DEBUG_VALUE: lv_obj_get_style_pad_left:part <- $r1
	@DEBUG_VALUE: lv_obj_get_style_pad_left:part <- $r1
	.save	{r7, lr}
	push	{r7, lr}
	.cfi_def_cfa_offset 8
	.cfi_offset lr, -4
	.cfi_offset r7, -8
.Ltmp702:
	.loc	15 102 1 prologue_end           @ lvgl/src/lv_widgets/../lv_core/lv_obj_style_dec.h:102:1
	movs	r2, #18
	@DEBUG_VALUE: lv_obj_get_style_pad_left:part <- $r1
	@DEBUG_VALUE: lv_obj_get_style_pad_left:obj <- $r0
	bl	_lv_obj_get_style_int
.Ltmp703:
	@DEBUG_VALUE: lv_obj_get_style_pad_left:part <- [DW_OP_LLVM_entry_value 1] $r1
	@DEBUG_VALUE: lv_obj_get_style_pad_left:obj <- [DW_OP_LLVM_entry_value 1] $r0
	pop	{r7, pc}
.Ltmp704:
.Lfunc_end22:
	.size	lv_obj_get_style_pad_left, .Lfunc_end22-lv_obj_get_style_pad_left
	.cfi_endproc
	.cantunwind
	.fnend
                                        @ -- End function
	.section	.text.lv_obj_get_style_pad_top,"ax",%progbits
	.p2align	3                               @ -- Begin function lv_obj_get_style_pad_top
	.type	lv_obj_get_style_pad_top,%function
	.code	16                              @ @lv_obj_get_style_pad_top
	.thumb_func
lv_obj_get_style_pad_top:
.Lfunc_begin23:
	.loc	15 100 0                        @ lvgl/src/lv_widgets/../lv_core/lv_obj_style_dec.h:100:0
	.fnstart
	.cfi_startproc
@ %bb.0:
	@DEBUG_VALUE: lv_obj_get_style_pad_top:obj <- $r0
	@DEBUG_VALUE: lv_obj_get_style_pad_top:obj <- $r0
	@DEBUG_VALUE: lv_obj_get_style_pad_top:part <- $r1
	@DEBUG_VALUE: lv_obj_get_style_pad_top:part <- $r1
	.save	{r7, lr}
	push	{r7, lr}
	.cfi_def_cfa_offset 8
	.cfi_offset lr, -4
	.cfi_offset r7, -8
.Ltmp705:
	.loc	15 100 1 prologue_end           @ lvgl/src/lv_widgets/../lv_core/lv_obj_style_dec.h:100:1
	movs	r2, #16
	@DEBUG_VALUE: lv_obj_get_style_pad_top:part <- $r1
	@DEBUG_VALUE: lv_obj_get_style_pad_top:obj <- $r0
	bl	_lv_obj_get_style_int
.Ltmp706:
	@DEBUG_VALUE: lv_obj_get_style_pad_top:part <- [DW_OP_LLVM_entry_value 1] $r1
	@DEBUG_VALUE: lv_obj_get_style_pad_top:obj <- [DW_OP_LLVM_entry_value 1] $r0
	pop	{r7, pc}
.Ltmp707:
.Lfunc_end23:
	.size	lv_obj_get_style_pad_top, .Lfunc_end23-lv_obj_get_style_pad_top
	.cfi_endproc
	.cantunwind
	.fnend
                                        @ -- End function
	.section	.text.lv_obj_get_style_pad_bottom,"ax",%progbits
	.p2align	3                               @ -- Begin function lv_obj_get_style_pad_bottom
	.type	lv_obj_get_style_pad_bottom,%function
	.code	16                              @ @lv_obj_get_style_pad_bottom
	.thumb_func
lv_obj_get_style_pad_bottom:
.Lfunc_begin24:
	.loc	15 101 0                        @ lvgl/src/lv_widgets/../lv_core/lv_obj_style_dec.h:101:0
	.fnstart
	.cfi_startproc
@ %bb.0:
	@DEBUG_VALUE: lv_obj_get_style_pad_bottom:obj <- $r0
	@DEBUG_VALUE: lv_obj_get_style_pad_bottom:obj <- $r0
	@DEBUG_VALUE: lv_obj_get_style_pad_bottom:part <- $r1
	@DEBUG_VALUE: lv_obj_get_style_pad_bottom:part <- $r1
	.save	{r7, lr}
	push	{r7, lr}
	.cfi_def_cfa_offset 8
	.cfi_offset lr, -4
	.cfi_offset r7, -8
.Ltmp708:
	.loc	15 101 1 prologue_end           @ lvgl/src/lv_widgets/../lv_core/lv_obj_style_dec.h:101:1
	movs	r2, #17
	@DEBUG_VALUE: lv_obj_get_style_pad_bottom:part <- $r1
	@DEBUG_VALUE: lv_obj_get_style_pad_bottom:obj <- $r0
	bl	_lv_obj_get_style_int
.Ltmp709:
	@DEBUG_VALUE: lv_obj_get_style_pad_bottom:part <- [DW_OP_LLVM_entry_value 1] $r1
	@DEBUG_VALUE: lv_obj_get_style_pad_bottom:obj <- [DW_OP_LLVM_entry_value 1] $r0
	pop	{r7, pc}
.Ltmp710:
.Lfunc_end24:
	.size	lv_obj_get_style_pad_bottom, .Lfunc_end24-lv_obj_get_style_pad_bottom
	.cfi_endproc
	.cantunwind
	.fnend
                                        @ -- End function
	.section	.text.lv_obj_get_style_pad_right,"ax",%progbits
	.p2align	3                               @ -- Begin function lv_obj_get_style_pad_right
	.type	lv_obj_get_style_pad_right,%function
	.code	16                              @ @lv_obj_get_style_pad_right
	.thumb_func
lv_obj_get_style_pad_right:
.Lfunc_begin25:
	.loc	15 103 0                        @ lvgl/src/lv_widgets/../lv_core/lv_obj_style_dec.h:103:0
	.fnstart
	.cfi_startproc
@ %bb.0:
	@DEBUG_VALUE: lv_obj_get_style_pad_right:obj <- $r0
	@DEBUG_VALUE: lv_obj_get_style_pad_right:obj <- $r0
	@DEBUG_VALUE: lv_obj_get_style_pad_right:part <- $r1
	@DEBUG_VALUE: lv_obj_get_style_pad_right:part <- $r1
	.save	{r7, lr}
	push	{r7, lr}
	.cfi_def_cfa_offset 8
	.cfi_offset lr, -4
	.cfi_offset r7, -8
.Ltmp711:
	.loc	15 103 1 prologue_end           @ lvgl/src/lv_widgets/../lv_core/lv_obj_style_dec.h:103:1
	movs	r2, #19
	@DEBUG_VALUE: lv_obj_get_style_pad_right:part <- $r1
	@DEBUG_VALUE: lv_obj_get_style_pad_right:obj <- $r0
	bl	_lv_obj_get_style_int
.Ltmp712:
	@DEBUG_VALUE: lv_obj_get_style_pad_right:part <- [DW_OP_LLVM_entry_value 1] $r1
	@DEBUG_VALUE: lv_obj_get_style_pad_right:obj <- [DW_OP_LLVM_entry_value 1] $r0
	pop	{r7, pc}
.Ltmp713:
.Lfunc_end25:
	.size	lv_obj_get_style_pad_right, .Lfunc_end25-lv_obj_get_style_pad_right
	.cfi_endproc
	.cantunwind
	.fnend
                                        @ -- End function
	.section	.text.lv_area_copy,"ax",%progbits
	.p2align	3                               @ -- Begin function lv_area_copy
	.type	lv_area_copy,%function
	.code	16                              @ @lv_area_copy
	.thumb_func
lv_area_copy:
.Lfunc_begin26:
	.loc	6 98 0                          @ lvgl/src/lv_widgets/../lv_core/../lv_hal/../lv_misc/lv_area.h:98:0
	.fnstart
	.cfi_startproc
@ %bb.0:
	@DEBUG_VALUE: lv_area_copy:dest <- $r0
	@DEBUG_VALUE: lv_area_copy:dest <- $r0
	@DEBUG_VALUE: lv_area_copy:src <- $r1
	@DEBUG_VALUE: lv_area_copy:src <- $r1
	@DEBUG_VALUE: lv_area_copy:src <- $r1
	@DEBUG_VALUE: lv_area_copy:dest <- $r0
	.save	{r7, lr}
	push	{r7, lr}
	.cfi_def_cfa_offset 8
	.cfi_offset lr, -4
	.cfi_offset r7, -8
.Ltmp714:
	.loc	6 99 5 prologue_end             @ lvgl/src/lv_widgets/../lv_core/../lv_hal/../lv_misc/lv_area.h:99:5
	bl	_lv_memcpy_small
.Ltmp715:
	@DEBUG_VALUE: lv_area_copy:src <- [DW_OP_LLVM_entry_value 1] $r1
	@DEBUG_VALUE: lv_area_copy:dest <- [DW_OP_LLVM_entry_value 1] $r0
	.loc	6 100 1                         @ lvgl/src/lv_widgets/../lv_core/../lv_hal/../lv_misc/lv_area.h:100:1
	pop	{r7, pc}
.Ltmp716:
.Lfunc_end26:
	.size	lv_area_copy, .Lfunc_end26-lv_area_copy
	.cfi_endproc
	.cantunwind
	.fnend
                                        @ -- End function
	.section	.text.lv_area_get_width,"ax",%progbits
	.p2align	3                               @ -- Begin function lv_area_get_width
	.type	lv_area_get_width,%function
	.code	16                              @ @lv_area_get_width
	.thumb_func
lv_area_get_width:
.Lfunc_begin27:
	.loc	6 108 0                         @ lvgl/src/lv_widgets/../lv_core/../lv_hal/../lv_misc/lv_area.h:108:0
	.fnstart
	.cfi_startproc
@ %bb.0:
	@DEBUG_VALUE: lv_area_get_width:area_p <- $r0
	@DEBUG_VALUE: lv_area_get_width:area_p <- $r0
	.loc	6 109 33 prologue_end           @ lvgl/src/lv_widgets/../lv_core/../lv_hal/../lv_misc/lv_area.h:109:33
	ldrh	r1, [r0, #4]
	.loc	6 109 46 is_stmt 0              @ lvgl/src/lv_widgets/../lv_core/../lv_hal/../lv_misc/lv_area.h:109:46
	ldrh	r0, [r0]
.Ltmp717:
	@DEBUG_VALUE: lv_area_get_width:area_p <- [DW_OP_LLVM_entry_value 1] $r0
	.loc	6 109 49                        @ lvgl/src/lv_widgets/../lv_core/../lv_hal/../lv_misc/lv_area.h:109:49
	subs	r0, r1, r0
	adds	r0, #1
	.loc	6 109 5                         @ lvgl/src/lv_widgets/../lv_core/../lv_hal/../lv_misc/lv_area.h:109:5
	sxth	r0, r0
	bx	lr
.Ltmp718:
.Lfunc_end27:
	.size	lv_area_get_width, .Lfunc_end27-lv_area_get_width
	.cfi_endproc
	.cantunwind
	.fnend
                                        @ -- End function
	.section	.text._lv_memcpy_small,"ax",%progbits
	.p2align	3                               @ -- Begin function _lv_memcpy_small
	.type	_lv_memcpy_small,%function
	.code	16                              @ @_lv_memcpy_small
	.thumb_func
_lv_memcpy_small:
.Lfunc_begin28:
	.file	16 "E:\\Smart-access-control\\Hardware\\CODE" "lvgl/src/lv_widgets/../lv_core/../lv_font/../lv_misc/lv_mem.h"
	.loc	16 214 0 is_stmt 1              @ lvgl/src/lv_widgets/../lv_core/../lv_font/../lv_misc/lv_mem.h:214:0
	.fnstart
	.cfi_startproc
@ %bb.0:
	@DEBUG_VALUE: _lv_memcpy_small:dst <- $r0
	@DEBUG_VALUE: _lv_memcpy_small:dst <- $r0
	@DEBUG_VALUE: _lv_memcpy_small:src <- $r1
	@DEBUG_VALUE: _lv_memcpy_small:src <- $r1
	@DEBUG_VALUE: _lv_memcpy_small:len <- 8
	@DEBUG_VALUE: _lv_memcpy_small:d8 <- $r0
	@DEBUG_VALUE: _lv_memcpy_small:d8 <- $r0
	@DEBUG_VALUE: _lv_memcpy_small:s8 <- $r1
	@DEBUG_VALUE: _lv_memcpy_small:s8 <- $r1
	.loc	16 218 5 prologue_end           @ lvgl/src/lv_widgets/../lv_core/../lv_font/../lv_misc/lv_mem.h:218:5
	subs	r1, #1
.Ltmp719:
	@DEBUG_VALUE: _lv_memcpy_small:src <- [DW_OP_LLVM_entry_value 1] $r1
	.loc	16 0 5 is_stmt 0                @ lvgl/src/lv_widgets/../lv_core/../lv_font/../lv_misc/lv_mem.h:0:5
	mov.w	r2, #-1
.Ltmp720:
	.p2align	2
.LBB28_1:                               @ =>This Inner Loop Header: Depth=1
	@DEBUG_VALUE: _lv_memcpy_small:dst <- $r0
	@DEBUG_VALUE: _lv_memcpy_small:src <- [DW_OP_LLVM_entry_value 1] $r1
	@DEBUG_VALUE: _lv_memcpy_small:d8 <- undef
	@DEBUG_VALUE: _lv_memcpy_small:s8 <- [DW_OP_plus_uconst 1, DW_OP_stack_value] $r1
	@DEBUG_VALUE: _lv_memcpy_small:len <- undef
	.loc	16 219 15 is_stmt 1             @ lvgl/src/lv_widgets/../lv_core/../lv_font/../lv_misc/lv_mem.h:219:15
	add.w	r12, r0, r2
.Ltmp721:
	.loc	16 218 5                        @ lvgl/src/lv_widgets/../lv_core/../lv_font/../lv_misc/lv_mem.h:218:5
	adds	r2, #1
.Ltmp722:
	.loc	16 219 15                       @ lvgl/src/lv_widgets/../lv_core/../lv_font/../lv_misc/lv_mem.h:219:15
	ldrb	r3, [r1, #1]!
.Ltmp723:
	.loc	16 218 5                        @ lvgl/src/lv_widgets/../lv_core/../lv_font/../lv_misc/lv_mem.h:218:5
	cmp	r2, #7
.Ltmp724:
	.loc	16 219 13                       @ lvgl/src/lv_widgets/../lv_core/../lv_font/../lv_misc/lv_mem.h:219:13
	strb.w	r3, [r12, #1]
.Ltmp725:
	@DEBUG_VALUE: _lv_memcpy_small:len <- [DW_OP_constu 1, DW_OP_minus, DW_OP_stack_value] undef
	@DEBUG_VALUE: _lv_memcpy_small:s8 <- [DW_OP_plus_uconst 2, DW_OP_stack_value] $r1
	@DEBUG_VALUE: _lv_memcpy_small:d8 <- [DW_OP_plus_uconst 1, DW_OP_stack_value] undef
	.loc	16 218 5                        @ lvgl/src/lv_widgets/../lv_core/../lv_font/../lv_misc/lv_mem.h:218:5
	bne	.LBB28_1
.Ltmp726:
@ %bb.2:
	@DEBUG_VALUE: _lv_memcpy_small:s8 <- [DW_OP_plus_uconst 2, DW_OP_stack_value] $r1
	@DEBUG_VALUE: _lv_memcpy_small:dst <- $r0
	@DEBUG_VALUE: _lv_memcpy_small:src <- [DW_OP_LLVM_entry_value 1] $r1
	.loc	16 225 5                        @ lvgl/src/lv_widgets/../lv_core/../lv_font/../lv_misc/lv_mem.h:225:5
	bx	lr
.Ltmp727:
.Lfunc_end28:
	.size	_lv_memcpy_small, .Lfunc_end28-_lv_memcpy_small
	.cfi_endproc
	.cantunwind
	.fnend
                                        @ -- End function
	.section	.text.lv_table_get_style,"ax",%progbits
	.p2align	3                               @ -- Begin function lv_table_get_style
	.type	lv_table_get_style,%function
	.code	16                              @ @lv_table_get_style
	.thumb_func
lv_table_get_style:
.Lfunc_begin29:
	.loc	10 1064 0                       @ lvgl/src/lv_widgets/lv_table.c:1064:0
	.fnstart
	.cfi_startproc
@ %bb.0:
	@DEBUG_VALUE: lv_table_get_style:table <- $r0
	@DEBUG_VALUE: lv_table_get_style:part <- $r1
	.save	{r4, r5, r7, lr}
	push	{r4, r5, r7, lr}
	.cfi_def_cfa_offset 16
	.cfi_offset lr, -4
	.cfi_offset r7, -8
	.cfi_offset r5, -12
	.cfi_offset r4, -16
	mov	r5, r1
.Ltmp728:
	@DEBUG_VALUE: lv_table_get_style:part <- $r5
	mov	r4, r0
	@DEBUG_VALUE: lv_table_get_style:part <- $r5
.Ltmp729:
	@DEBUG_VALUE: lv_table_get_style:table <- $r4
	.loc	10 1065 5 prologue_end          @ lvgl/src/lv_widgets/lv_table.c:1065:5
	bl	lv_debug_check_null
.Ltmp730:
	.loc	10 1065 5 is_stmt 0             @ lvgl/src/lv_widgets/lv_table.c:1065:5
	cbz	r0, .LBB29_4
.Ltmp731:
@ %bb.1:
	@DEBUG_VALUE: lv_table_get_style:part <- $r5
	@DEBUG_VALUE: lv_table_get_style:table <- $r4
	@DEBUG_VALUE: lv_table_get_style:part <- $r5
	.loc	10 1067 28 is_stmt 1            @ lvgl/src/lv_widgets/lv_table.c:1067:28
	mov	r0, r4
	bl	lv_obj_get_ext_attr
.Ltmp732:
	@DEBUG_VALUE: lv_table_get_style:ext <- $r0
	.loc	10 1071 8                       @ lvgl/src/lv_widgets/lv_table.c:1071:8
	cbz	r5, .LBB29_6
.Ltmp733:
@ %bb.2:
	@DEBUG_VALUE: lv_table_get_style:part <- $r5
	@DEBUG_VALUE: lv_table_get_style:table <- $r4
	@DEBUG_VALUE: lv_table_get_style:ext <- $r0
	@DEBUG_VALUE: lv_table_get_style:part <- $r5
	.loc	10 1074 13                      @ lvgl/src/lv_widgets/lv_table.c:1074:13
	cmp	r5, #4
	bhi	.LBB29_7
.Ltmp734:
@ %bb.3:
	@DEBUG_VALUE: lv_table_get_style:part <- $r5
	@DEBUG_VALUE: lv_table_get_style:table <- $r4
	@DEBUG_VALUE: lv_table_get_style:ext <- $r0
	@DEBUG_VALUE: lv_table_get_style:part <- $r5
	.loc	10 1075 17                      @ lvgl/src/lv_widgets/lv_table.c:1075:17
	add.w	r0, r0, r5, lsl #3
.Ltmp735:
	adds	r0, #4
.Ltmp736:
	.loc	10 1079 1                       @ lvgl/src/lv_widgets/lv_table.c:1079:1
	pop	{r4, r5, r7, pc}
.Ltmp737:
.LBB29_4:
	@DEBUG_VALUE: lv_table_get_style:part <- $r5
	@DEBUG_VALUE: lv_table_get_style:table <- $r4
	.loc	10 1065 5                       @ lvgl/src/lv_widgets/lv_table.c:1065:5
	movw	r0, :lower16:.L.str.1
	movs	r3, #0
	movt	r0, :upper16:.L.str.1
	mov	r2, r4
	bl	lv_debug_log_error
.Ltmp738:
	.p2align	2
.LBB29_5:                               @ =>This Inner Loop Header: Depth=1
	@DEBUG_VALUE: lv_table_get_style:part <- $r5
	@DEBUG_VALUE: lv_table_get_style:table <- $r4
	b	.LBB29_5
.Ltmp739:
.LBB29_6:
	@DEBUG_VALUE: lv_table_get_style:part <- $r5
	@DEBUG_VALUE: lv_table_get_style:table <- $r4
	@DEBUG_VALUE: lv_table_get_style:ext <- $r0
	.loc	10 1072 24                      @ lvgl/src/lv_widgets/lv_table.c:1072:24
	add.w	r0, r4, #40
.Ltmp740:
	.loc	10 1079 1                       @ lvgl/src/lv_widgets/lv_table.c:1079:1
	pop	{r4, r5, r7, pc}
.Ltmp741:
.LBB29_7:
	@DEBUG_VALUE: lv_table_get_style:part <- $r5
	@DEBUG_VALUE: lv_table_get_style:table <- $r4
	@DEBUG_VALUE: lv_table_get_style:ext <- $r0
	.loc	10 0 1 is_stmt 0                @ lvgl/src/lv_widgets/lv_table.c:0:1
	movs	r0, #0
.Ltmp742:
	.loc	10 1079 1                       @ lvgl/src/lv_widgets/lv_table.c:1079:1
	pop	{r4, r5, r7, pc}
.Ltmp743:
.Lfunc_end29:
	.size	lv_table_get_style, .Lfunc_end29-lv_table_get_style
	.cfi_endproc
	.cantunwind
	.fnend
                                        @ -- End function
	.section	.text.lv_obj_get_style_text_letter_space,"ax",%progbits
	.p2align	3                               @ -- Begin function lv_obj_get_style_text_letter_space
	.type	lv_obj_get_style_text_letter_space,%function
	.code	16                              @ @lv_obj_get_style_text_letter_space
	.thumb_func
lv_obj_get_style_text_letter_space:
.Lfunc_begin30:
	.loc	15 150 0 is_stmt 1              @ lvgl/src/lv_widgets/../lv_core/lv_obj_style_dec.h:150:0
	.fnstart
	.cfi_startproc
@ %bb.0:
	@DEBUG_VALUE: lv_obj_get_style_text_letter_space:obj <- $r0
	@DEBUG_VALUE: lv_obj_get_style_text_letter_space:obj <- $r0
	@DEBUG_VALUE: lv_obj_get_style_text_letter_space:part <- $r1
	@DEBUG_VALUE: lv_obj_get_style_text_letter_space:part <- $r1
	.save	{r7, lr}
	push	{r7, lr}
	.cfi_def_cfa_offset 8
	.cfi_offset lr, -4
	.cfi_offset r7, -8
.Ltmp744:
	.loc	15 150 1 prologue_end           @ lvgl/src/lv_widgets/../lv_core/lv_obj_style_dec.h:150:1
	movw	r2, #32896
	@DEBUG_VALUE: lv_obj_get_style_text_letter_space:part <- $r1
	@DEBUG_VALUE: lv_obj_get_style_text_letter_space:obj <- $r0
	bl	_lv_obj_get_style_int
.Ltmp745:
	@DEBUG_VALUE: lv_obj_get_style_text_letter_space:part <- [DW_OP_LLVM_entry_value 1] $r1
	@DEBUG_VALUE: lv_obj_get_style_text_letter_space:obj <- [DW_OP_LLVM_entry_value 1] $r0
	pop	{r7, pc}
.Ltmp746:
.Lfunc_end30:
	.size	lv_obj_get_style_text_letter_space, .Lfunc_end30-lv_obj_get_style_text_letter_space
	.cfi_endproc
	.cantunwind
	.fnend
                                        @ -- End function
	.section	.text.lv_obj_get_style_text_line_space,"ax",%progbits
	.p2align	3                               @ -- Begin function lv_obj_get_style_text_line_space
	.type	lv_obj_get_style_text_line_space,%function
	.code	16                              @ @lv_obj_get_style_text_line_space
	.thumb_func
lv_obj_get_style_text_line_space:
.Lfunc_begin31:
	.loc	15 151 0                        @ lvgl/src/lv_widgets/../lv_core/lv_obj_style_dec.h:151:0
	.fnstart
	.cfi_startproc
@ %bb.0:
	@DEBUG_VALUE: lv_obj_get_style_text_line_space:obj <- $r0
	@DEBUG_VALUE: lv_obj_get_style_text_line_space:obj <- $r0
	@DEBUG_VALUE: lv_obj_get_style_text_line_space:part <- $r1
	@DEBUG_VALUE: lv_obj_get_style_text_line_space:part <- $r1
	.save	{r7, lr}
	push	{r7, lr}
	.cfi_def_cfa_offset 8
	.cfi_offset lr, -4
	.cfi_offset r7, -8
.Ltmp747:
	.loc	15 151 1 prologue_end           @ lvgl/src/lv_widgets/../lv_core/lv_obj_style_dec.h:151:1
	movw	r2, #32897
	@DEBUG_VALUE: lv_obj_get_style_text_line_space:part <- $r1
	@DEBUG_VALUE: lv_obj_get_style_text_line_space:obj <- $r0
	bl	_lv_obj_get_style_int
.Ltmp748:
	@DEBUG_VALUE: lv_obj_get_style_text_line_space:part <- [DW_OP_LLVM_entry_value 1] $r1
	@DEBUG_VALUE: lv_obj_get_style_text_line_space:obj <- [DW_OP_LLVM_entry_value 1] $r0
	pop	{r7, pc}
.Ltmp749:
.Lfunc_end31:
	.size	lv_obj_get_style_text_line_space, .Lfunc_end31-lv_obj_get_style_text_line_space
	.cfi_endproc
	.cantunwind
	.fnend
                                        @ -- End function
	.section	.text.lv_obj_get_style_text_font,"ax",%progbits
	.p2align	3                               @ -- Begin function lv_obj_get_style_text_font
	.type	lv_obj_get_style_text_font,%function
	.code	16                              @ @lv_obj_get_style_text_font
	.thumb_func
lv_obj_get_style_text_font:
.Lfunc_begin32:
	.loc	15 158 0                        @ lvgl/src/lv_widgets/../lv_core/lv_obj_style_dec.h:158:0
	.fnstart
	.cfi_startproc
@ %bb.0:
	@DEBUG_VALUE: lv_obj_get_style_text_font:obj <- $r0
	@DEBUG_VALUE: lv_obj_get_style_text_font:obj <- $r0
	@DEBUG_VALUE: lv_obj_get_style_text_font:part <- $r1
	@DEBUG_VALUE: lv_obj_get_style_text_font:part <- $r1
	.save	{r7, lr}
	push	{r7, lr}
	.cfi_def_cfa_offset 8
	.cfi_offset lr, -4
	.cfi_offset r7, -8
.Ltmp750:
	.loc	15 158 1 prologue_end           @ lvgl/src/lv_widgets/../lv_core/lv_obj_style_dec.h:158:1
	movw	r2, #32910
	@DEBUG_VALUE: lv_obj_get_style_text_font:part <- $r1
	@DEBUG_VALUE: lv_obj_get_style_text_font:obj <- $r0
	bl	_lv_obj_get_style_ptr
.Ltmp751:
	@DEBUG_VALUE: lv_obj_get_style_text_font:part <- [DW_OP_LLVM_entry_value 1] $r1
	@DEBUG_VALUE: lv_obj_get_style_text_font:obj <- [DW_OP_LLVM_entry_value 1] $r0
	pop	{r7, pc}
.Ltmp752:
.Lfunc_end32:
	.size	lv_obj_get_style_text_font, .Lfunc_end32-lv_obj_get_style_text_font
	.cfi_endproc
	.cantunwind
	.fnend
                                        @ -- End function
	.section	.text.get_row_height,"ax",%progbits
	.p2align	3                               @ -- Begin function get_row_height
	.type	get_row_height,%function
	.code	16                              @ @get_row_height
	.thumb_func
get_row_height:
.Lfunc_begin33:
	.loc	10 1136 0                       @ lvgl/src/lv_widgets/lv_table.c:1136:0
	.fnstart
	.cfi_startproc
@ %bb.0:
	@DEBUG_VALUE: get_row_height:table <- $r0
	@DEBUG_VALUE: get_row_height:row_id <- $r1
	@DEBUG_VALUE: get_row_height:font <- $r2
	@DEBUG_VALUE: get_row_height:letter_space <- $r3
	.save	{r4, r5, r6, r7, r8, r9, r10, r11, lr}
	push.w	{r4, r5, r6, r7, r8, r9, r10, r11, lr}
	.cfi_def_cfa_offset 36
	.cfi_offset lr, -4
	.cfi_offset r11, -8
	.cfi_offset r10, -12
	.cfi_offset r9, -16
	.cfi_offset r8, -20
	.cfi_offset r7, -24
	.cfi_offset r6, -28
	.cfi_offset r5, -32
	.cfi_offset r4, -36
	.pad	#36
	sub	sp, #36
	.cfi_def_cfa_offset 72
	str	r3, [sp, #12]                   @ 4-byte Spill
.Ltmp753:
	@DEBUG_VALUE: get_row_height:letter_space <- [DW_OP_plus_uconst 12] [$sp+0]
	mov	r4, r2
.Ltmp754:
	@DEBUG_VALUE: get_row_height:font <- $r4
	mov	r5, r1
.Ltmp755:
	@DEBUG_VALUE: get_row_height:row_id <- $r5
	ldrd	r6, r9, [sp, #84]
.Ltmp756:
	@DEBUG_VALUE: get_row_height:cell_bottom <- [DW_OP_plus_uconst 88] [$sp+0]
	@DEBUG_VALUE: get_row_height:cell_top <- [DW_OP_plus_uconst 84] [$sp+0]
	@DEBUG_VALUE: get_row_height:cell_right <- [DW_OP_plus_uconst 80] [$sp+0]
	@DEBUG_VALUE: get_row_height:cell_left <- [DW_OP_plus_uconst 76] [$sp+0]
	@DEBUG_VALUE: get_row_height:line_space <- [DW_OP_plus_uconst 72] [$sp+0]
	@DEBUG_VALUE: get_row_height:letter_space <- [DW_OP_plus_uconst 12] [$sp+0]
	@DEBUG_VALUE: get_row_height:font <- $r4
	@DEBUG_VALUE: get_row_height:row_id <- $r5
	@DEBUG_VALUE: get_row_height:table <- $r0
	@DEBUG_VALUE: get_row_height:table <- $r0
	.loc	10 1137 28 prologue_end         @ lvgl/src/lv_widgets/lv_table.c:1137:28
	bl	lv_obj_get_ext_attr
.Ltmp757:
	@DEBUG_VALUE: get_row_height:table <- [DW_OP_LLVM_entry_value 1] $r0
	mov	r7, r0
.Ltmp758:
	@DEBUG_VALUE: get_row_height:ext <- $r7
	.loc	10 1141 40                      @ lvgl/src/lv_widgets/lv_table.c:1141:40
	ldrh	r0, [r0]
	.loc	10 1144 48                      @ lvgl/src/lv_widgets/lv_table.c:1144:48
	str	r4, [sp, #28]                   @ 4-byte Spill
.Ltmp759:
	@DEBUG_VALUE: get_row_height:font <- [DW_OP_plus_uconst 28] [$sp+0]
	.loc	10 1141 33                      @ lvgl/src/lv_widgets/lv_table.c:1141:33
	mul	r8, r0, r5
.Ltmp760:
	@DEBUG_VALUE: get_row_height:row_start <- $r8
	@DEBUG_VALUE: get_row_height:font <- $r0
	.loc	10 1144 48                      @ lvgl/src/lv_widgets/lv_table.c:1144:48
	ldr	r0, [r4]
.Ltmp761:
	.loc	10 1144 24 is_stmt 0            @ lvgl/src/lv_widgets/lv_table.c:1144:24
	bl	lv_font_get_line_height
	.loc	10 1144 59                      @ lvgl/src/lv_widgets/lv_table.c:1144:59
	ldrh	r1, [r6]
.Ltmp762:
	.loc	10 1146 60 is_stmt 1            @ lvgl/src/lv_widgets/lv_table.c:1146:60
	ldrh	r2, [r7]
	.loc	10 1146 36 is_stmt 0            @ lvgl/src/lv_widgets/lv_table.c:1146:36
	uxth.w	r6, r8
.Ltmp763:
	.loc	10 1144 73 is_stmt 1            @ lvgl/src/lv_widgets/lv_table.c:1144:73
	ldrh.w	r3, [r9]
.Ltmp764:
	.loc	10 1146 53                      @ lvgl/src/lv_widgets/lv_table.c:1146:53
	uxtah	r5, r2, r8
.Ltmp765:
	.loc	10 1144 57                      @ lvgl/src/lv_widgets/lv_table.c:1144:57
	add	r0, r1
.Ltmp766:
	.loc	10 1146 5                       @ lvgl/src/lv_widgets/lv_table.c:1146:5
	cmp	r5, r6
.Ltmp767:
	.loc	10 1144 71                      @ lvgl/src/lv_widgets/lv_table.c:1144:71
	add.w	r10, r0, r3
.Ltmp768:
	@DEBUG_VALUE: get_row_height:cell <- $r8
	@DEBUG_VALUE: get_row_height:col <- 0
	@DEBUG_VALUE: get_row_height:h_max <- $r10
	.loc	10 1146 5                       @ lvgl/src/lv_widgets/lv_table.c:1146:5
	bls.w	.LBB33_16
.Ltmp769:
@ %bb.1:
	@DEBUG_VALUE: get_row_height:h_max <- $r10
	@DEBUG_VALUE: get_row_height:cell <- $r8
	@DEBUG_VALUE: get_row_height:row_start <- $r8
	@DEBUG_VALUE: get_row_height:ext <- $r7
	@DEBUG_VALUE: get_row_height:letter_space <- [DW_OP_plus_uconst 12] [$sp+0]
	@DEBUG_VALUE: get_row_height:line_space <- [DW_OP_plus_uconst 72] [$sp+0]
	@DEBUG_VALUE: get_row_height:cell_left <- [DW_OP_plus_uconst 76] [$sp+0]
	@DEBUG_VALUE: get_row_height:cell_right <- [DW_OP_plus_uconst 80] [$sp+0]
	@DEBUG_VALUE: get_row_height:cell_top <- [DW_OP_plus_uconst 84] [$sp+0]
	@DEBUG_VALUE: get_row_height:cell_bottom <- [DW_OP_plus_uconst 88] [$sp+0]
	@DEBUG_VALUE: get_row_height:col <- 0
	@DEBUG_VALUE: get_row_height:table <- [DW_OP_LLVM_entry_value 1] $r0
	.loc	10 0 5 is_stmt 0                @ lvgl/src/lv_widgets/lv_table.c:0:5
	add.w	lr, r7, #44
	mov	r1, r6
	movs	r5, #0
	str	r7, [sp, #24]                   @ 4-byte Spill
	strd	lr, r6, [sp, #16]               @ 8-byte Folded Spill
	b	.LBB33_5
.Ltmp770:
	.p2align	2
.LBB33_2:                               @   in Loop: Header=BB33_5 Depth=1
	@DEBUG_VALUE: get_row_height:h_max <- $r10
	@DEBUG_VALUE: get_row_height:cell <- $r8
	@DEBUG_VALUE: get_row_height:col <- $r5
	@DEBUG_VALUE: cell_type <- $r4
	@DEBUG_VALUE: get_row_height:txt_w <- $r2
	@DEBUG_VALUE: format <- $r0
	@DEBUG_VALUE: get_row_height:letter_space <- [DW_OP_plus_uconst 12] [$sp+0]
	@DEBUG_VALUE: get_row_height:line_space <- [DW_OP_plus_uconst 72] [$sp+0]
	@DEBUG_VALUE: get_row_height:cell_left <- [DW_OP_plus_uconst 76] [$sp+0]
	@DEBUG_VALUE: get_row_height:cell_right <- [DW_OP_plus_uconst 80] [$sp+0]
	@DEBUG_VALUE: get_row_height:cell_top <- [DW_OP_plus_uconst 84] [$sp+0]
	@DEBUG_VALUE: get_row_height:cell_bottom <- [DW_OP_plus_uconst 88] [$sp+0]
	@DEBUG_VALUE: get_row_height:table <- [DW_OP_LLVM_entry_value 1] $r0
	.loc	10 1176 26 is_stmt 1            @ lvgl/src/lv_widgets/lv_table.c:1176:26
	ldr	r0, [sp, #76]
.Ltmp771:
	.loc	10 1176 49 is_stmt 0            @ lvgl/src/lv_widgets/lv_table.c:1176:49
	ldr	r1, [sp, #80]
	.loc	10 1176 26                      @ lvgl/src/lv_widgets/lv_table.c:1176:26
	ldrh.w	r0, [r0, r4, lsl #1]
