	.text
	.syntax unified
	.eabi_attribute	67, "2.09"	@ Tag_conformance
	.cpu	cortex-m7
	.eabi_attribute	6, 13	@ Tag_CPU_arch
	.eabi_attribute	7, 77	@ Tag_CPU_arch_profile
	.eabi_attribute	8, 0	@ Tag_ARM_ISA_use
	.eabi_attribute	9, 2	@ Tag_THUMB_ISA_use
	.fpu	fpv5-d16
	.eabi_attribute	36, 1	@ Tag_FP_HP_extension
	.eabi_attribute	34, 1	@ Tag_CPU_unaligned_access
	.eabi_attribute	17, 1	@ Tag_ABI_PCS_GOT_use
	.eabi_attribute	20, 2	@ Tag_ABI_FP_denormal
	.eabi_attribute	21, 0	@ Tag_ABI_FP_exceptions
	.eabi_attribute	23, 1	@ Tag_ABI_FP_number_model
	.eabi_attribute	24, 1	@ Tag_ABI_align_needed
	.eabi_attribute	25, 1	@ Tag_ABI_align_preserved
	.eabi_attribute	28, 1	@ Tag_ABI_VFP_args
	.eabi_attribute	38, 1	@ Tag_ABI_FP_16bit_format
	.eabi_attribute	18, 2	@ Tag_ABI_PCS_wchar_t
	.eabi_attribute	26, 1	@ Tag_ABI_enum_size
	.eabi_attribute	14, 0	@ Tag_ABI_PCS_R9_use
	.file	"lv_textarea.c"
	.file	1 "D:\\Keil_v5\\ARM\\ARMCLANG\\Bin\\..\\include" "stdint.h"
	.file	2 "E:\\Smart-access-control\\Hardware\\CODE" "lvgl/src/lv_widgets/../lv_themes/../lv_core/lv_obj.h"
	.file	3 "E:\\Smart-access-control\\Hardware\\CODE" "lvgl/src/lv_widgets/../lv_core/../lv_font/../lv_misc/lv_ll.h"
	.file	4 "E:\\Smart-access-control\\Hardware\\CODE" "./lvgl/src/lv_conf.h"
	.file	5 "E:\\Smart-access-control\\Hardware\\CODE" "lvgl/src/lv_widgets/../lv_core/../lv_hal/../lv_misc/lv_area.h"
	.file	6 "E:\\Smart-access-control\\Hardware\\CODE" "lvgl/src/lv_widgets/../lv_core/../lv_draw/../lv_misc/lv_types.h"
	.file	7 "E:\\Smart-access-control\\Hardware\\CODE" "lvgl/src/lv_widgets/../lv_themes/../lv_core/lv_style.h"
	.file	8 "E:\\Smart-access-control\\Hardware\\CODE" "lvgl/src/lv_widgets/../lv_core/../lv_hal/lv_hal_indev.h"
	.file	9 "E:\\Smart-access-control\\Hardware\\CODE" "lvgl/src/lv_widgets/../lv_core/../lv_draw/../lv_misc/lv_bidi.h"
	.file	10 "E:\\Smart-access-control\\Hardware\\CODE" "lvgl/src/lv_widgets/lv_textarea.c"
	.file	11 "E:\\Smart-access-control\\Hardware\\CODE" "lvgl/src/lv_widgets/lv_cont.h"
	.file	12 "E:\\Smart-access-control\\Hardware\\CODE" "lvgl/src/lv_widgets/lv_label.h"
	.file	13 "E:\\Smart-access-control\\Hardware\\CODE" "lvgl/src/lv_widgets/lv_page.h"
	.file	14 "E:\\Smart-access-control\\Hardware\\CODE" "lvgl/src/lv_widgets/../lv_themes/lv_theme.h"
	.file	15 "E:\\Smart-access-control\\Hardware\\CODE" "lvgl/src/lv_widgets/lv_textarea.h"
	.file	16 "E:\\Smart-access-control\\Hardware\\CODE" "lvgl/src/lv_widgets/../lv_misc/lv_txt.h"
	.file	17 "E:\\Smart-access-control\\Hardware\\CODE" "lvgl/src/lv_widgets/../lv_core/../lv_hal/../lv_misc/lv_color.h"
	.file	18 "E:\\Smart-access-control\\Hardware\\CODE" "lvgl/src/lv_widgets/../lv_core/lv_group.h"
	.file	19 "E:\\Smart-access-control\\Hardware\\CODE" "lvgl/src/lv_widgets/../lv_misc/lv_anim.h"
	.file	20 "E:\\Smart-access-control\\Hardware\\CODE" "lvgl/src/lv_widgets/../lv_core/../lv_hal/lv_hal_disp.h"
	.file	21 "E:\\Smart-access-control\\Hardware\\CODE" "lvgl/src/lv_widgets/../lv_core/../lv_hal/../lv_misc/lv_task.h"
	.section	.text.lv_textarea_create,"ax",%progbits
	.hidden	lv_textarea_create              @ -- Begin function lv_textarea_create
	.globl	lv_textarea_create
	.p2align	3
	.type	lv_textarea_create,%function
	.code	16                              @ @lv_textarea_create
	.thumb_func
lv_textarea_create:
.Lfunc_begin0:
	.loc	10 89 0                         @ lvgl/src/lv_widgets/lv_textarea.c:89:0
	.fnstart
	.cfi_sections .debug_frame
	.cfi_startproc
@ %bb.0:
	.save	{r7, lr}
	push	{r7, lr}
	.cfi_def_cfa_offset 8
	.cfi_offset lr, -4
	.cfi_offset r7, -8
	.pad	#120
	sub	sp, #120
	.cfi_def_cfa_offset 128
	str	r0, [sp, #112]
	str	r1, [sp, #108]
.Ltmp0:
	.loc	10 93 36 prologue_end           @ lvgl/src/lv_widgets/lv_textarea.c:93:36
	ldr	r0, [sp, #112]
	.loc	10 93 41 is_stmt 0              @ lvgl/src/lv_widgets/lv_textarea.c:93:41
	ldr	r1, [sp, #108]
	.loc	10 93 21                        @ lvgl/src/lv_widgets/lv_textarea.c:93:21
	bl	lv_page_create
	.loc	10 93 16                        @ lvgl/src/lv_widgets/lv_textarea.c:93:16
	str	r0, [sp, #104]
	.loc	10 94 5 is_stmt 1               @ lvgl/src/lv_widgets/lv_textarea.c:94:5
	b	.LBB0_1
.LBB0_1:
.Ltmp1:
	.loc	10 94 5 is_stmt 0               @ lvgl/src/lv_widgets/lv_textarea.c:94:5
	ldr	r0, [sp, #104]
	bl	lv_debug_check_null
.Ltmp2:
	.loc	10 94 5                         @ lvgl/src/lv_widgets/lv_textarea.c:94:5
	cbnz	r0, .LBB0_4
	b	.LBB0_2
.LBB0_2:
.Ltmp3:
	.loc	10 94 5                         @ lvgl/src/lv_widgets/lv_textarea.c:94:5
	ldr	r2, [sp, #104]
	movw	r0, :lower16:.L.str
	movt	r0, :upper16:.L.str
	movs	r3, #0
	bl	lv_debug_log_error
	b	.LBB0_3
.LBB0_3:                                @ =>This Inner Loop Header: Depth=1
	b	.LBB0_3
.Ltmp4:
.LBB0_4:
	.loc	10 94 5                         @ lvgl/src/lv_widgets/lv_textarea.c:94:5
	b	.LBB0_5
.Ltmp5:
.LBB0_5:
	.loc	10 95 8 is_stmt 1               @ lvgl/src/lv_widgets/lv_textarea.c:95:8
	ldr	r0, [sp, #104]
.Ltmp6:
	.loc	10 95 8 is_stmt 0               @ lvgl/src/lv_widgets/lv_textarea.c:95:8
	cbnz	r0, .LBB0_7
	b	.LBB0_6
.LBB0_6:
	.loc	10 0 8                          @ lvgl/src/lv_widgets/lv_textarea.c:0:8
	movs	r0, #0
.Ltmp7:
	.loc	10 95 20                        @ lvgl/src/lv_widgets/lv_textarea.c:95:20
	str	r0, [sp, #116]
	b	.LBB0_43
.Ltmp8:
.LBB0_7:
	.loc	10 97 8 is_stmt 1               @ lvgl/src/lv_widgets/lv_textarea.c:97:8
	movw	r0, :lower16:ancestor_signal
	movt	r0, :upper16:ancestor_signal
	ldr	r0, [r0]
.Ltmp9:
	.loc	10 97 8 is_stmt 0               @ lvgl/src/lv_widgets/lv_textarea.c:97:8
	cbnz	r0, .LBB0_9
	b	.LBB0_8
.LBB0_8:
.Ltmp10:
	.loc	10 97 72                        @ lvgl/src/lv_widgets/lv_textarea.c:97:72
	ldr	r0, [sp, #104]
	.loc	10 97 51                        @ lvgl/src/lv_widgets/lv_textarea.c:97:51
	bl	lv_obj_get_signal_cb
	.loc	10 97 49                        @ lvgl/src/lv_widgets/lv_textarea.c:97:49
	movw	r1, :lower16:ancestor_signal
	movt	r1, :upper16:ancestor_signal
	str	r0, [r1]
	.loc	10 97 33                        @ lvgl/src/lv_widgets/lv_textarea.c:97:33
	b	.LBB0_9
.Ltmp11:
.LBB0_9:
	.loc	10 98 8 is_stmt 1               @ lvgl/src/lv_widgets/lv_textarea.c:98:8
	movw	r0, :lower16:ancestor_design
	movt	r0, :upper16:ancestor_design
	ldr	r0, [r0]
.Ltmp12:
	.loc	10 98 8 is_stmt 0               @ lvgl/src/lv_widgets/lv_textarea.c:98:8
	cbnz	r0, .LBB0_11
	b	.LBB0_10
.LBB0_10:
.Ltmp13:
	.loc	10 98 72                        @ lvgl/src/lv_widgets/lv_textarea.c:98:72
	ldr	r0, [sp, #104]
	.loc	10 98 51                        @ lvgl/src/lv_widgets/lv_textarea.c:98:51
	bl	lv_obj_get_design_cb
	.loc	10 98 49                        @ lvgl/src/lv_widgets/lv_textarea.c:98:49
	movw	r1, :lower16:ancestor_design
	movt	r1, :upper16:ancestor_design
	str	r0, [r1]
	.loc	10 98 33                        @ lvgl/src/lv_widgets/lv_textarea.c:98:33
	b	.LBB0_11
.Ltmp14:
.LBB0_11:
	.loc	10 99 8 is_stmt 1               @ lvgl/src/lv_widgets/lv_textarea.c:99:8
	movw	r0, :lower16:scrl_signal
	movt	r0, :upper16:scrl_signal
	ldr	r0, [r0]
.Ltmp15:
	.loc	10 99 8 is_stmt 0               @ lvgl/src/lv_widgets/lv_textarea.c:99:8
	cbnz	r0, .LBB0_13
	b	.LBB0_12
.LBB0_12:
.Ltmp16:
	.loc	10 99 87                        @ lvgl/src/lv_widgets/lv_textarea.c:99:87
	ldr	r0, [sp, #104]
	.loc	10 99 64                        @ lvgl/src/lv_widgets/lv_textarea.c:99:64
	bl	lv_page_get_scrollable
	.loc	10 99 43                        @ lvgl/src/lv_widgets/lv_textarea.c:99:43
	bl	lv_obj_get_signal_cb
	.loc	10 99 41                        @ lvgl/src/lv_widgets/lv_textarea.c:99:41
	movw	r1, :lower16:scrl_signal
	movt	r1, :upper16:scrl_signal
	str	r0, [r1]
	.loc	10 99 29                        @ lvgl/src/lv_widgets/lv_textarea.c:99:29
	b	.LBB0_13
.Ltmp17:
.LBB0_13:
	.loc	10 100 8 is_stmt 1              @ lvgl/src/lv_widgets/lv_textarea.c:100:8
	movw	r0, :lower16:scrl_design
	movt	r0, :upper16:scrl_design
	ldr	r0, [r0]
.Ltmp18:
	.loc	10 100 8 is_stmt 0              @ lvgl/src/lv_widgets/lv_textarea.c:100:8
	cbnz	r0, .LBB0_15
	b	.LBB0_14
.LBB0_14:
.Ltmp19:
	.loc	10 100 87                       @ lvgl/src/lv_widgets/lv_textarea.c:100:87
	ldr	r0, [sp, #104]
	.loc	10 100 64                       @ lvgl/src/lv_widgets/lv_textarea.c:100:64
	bl	lv_page_get_scrollable
	.loc	10 100 43                       @ lvgl/src/lv_widgets/lv_textarea.c:100:43
	bl	lv_obj_get_design_cb
	.loc	10 100 41                       @ lvgl/src/lv_widgets/lv_textarea.c:100:41
	movw	r1, :lower16:scrl_design
	movt	r1, :upper16:scrl_design
	str	r0, [r1]
	.loc	10 100 29                       @ lvgl/src/lv_widgets/lv_textarea.c:100:29
	b	.LBB0_15
.Ltmp20:
.LBB0_15:
	.loc	10 103 56 is_stmt 1             @ lvgl/src/lv_widgets/lv_textarea.c:103:56
	ldr	r0, [sp, #104]
	movs	r1, #136
	.loc	10 103 31 is_stmt 0             @ lvgl/src/lv_widgets/lv_textarea.c:103:31
	bl	lv_obj_allocate_ext_attr
	.loc	10 103 25                       @ lvgl/src/lv_widgets/lv_textarea.c:103:25
	str	r0, [sp, #100]
	.loc	10 104 5 is_stmt 1              @ lvgl/src/lv_widgets/lv_textarea.c:104:5
	b	.LBB0_16
.LBB0_16:
.Ltmp21:
	.loc	10 104 5 is_stmt 0              @ lvgl/src/lv_widgets/lv_textarea.c:104:5
	ldr	r0, [sp, #100]
	bl	lv_debug_check_null
.Ltmp22:
	.loc	10 104 5                        @ lvgl/src/lv_widgets/lv_textarea.c:104:5
	cbnz	r0, .LBB0_19
	b	.LBB0_17
.LBB0_17:
.Ltmp23:
	.loc	10 104 5                        @ lvgl/src/lv_widgets/lv_textarea.c:104:5
	ldr	r2, [sp, #100]
	movw	r0, :lower16:.L.str
	movt	r0, :upper16:.L.str
	movs	r3, #0
	bl	lv_debug_log_error
	b	.LBB0_18
.LBB0_18:                               @ =>This Inner Loop Header: Depth=1
	b	.LBB0_18
.Ltmp24:
.LBB0_19:
	.loc	10 104 5                        @ lvgl/src/lv_widgets/lv_textarea.c:104:5
	b	.LBB0_20
.Ltmp25:
.LBB0_20:
	.loc	10 105 8 is_stmt 1              @ lvgl/src/lv_widgets/lv_textarea.c:105:8
	ldr	r0, [sp, #100]
.Ltmp26:
	.loc	10 105 8 is_stmt 0              @ lvgl/src/lv_widgets/lv_textarea.c:105:8
	cbnz	r0, .LBB0_22
	b	.LBB0_21
.LBB0_21:
.Ltmp27:
	.loc	10 106 20 is_stmt 1             @ lvgl/src/lv_widgets/lv_textarea.c:106:20
	ldr	r0, [sp, #104]
	.loc	10 106 9 is_stmt 0              @ lvgl/src/lv_widgets/lv_textarea.c:106:9
	bl	lv_obj_del
	movs	r0, #0
	.loc	10 107 9 is_stmt 1              @ lvgl/src/lv_widgets/lv_textarea.c:107:9
	str	r0, [sp, #116]
	b	.LBB0_43
.Ltmp28:
.LBB0_22:
	.loc	10 110 5                        @ lvgl/src/lv_widgets/lv_textarea.c:110:5
	ldr	r1, [sp, #100]
	.loc	10 110 28 is_stmt 0             @ lvgl/src/lv_widgets/lv_textarea.c:110:28
	ldrb.w	r0, [r1, #132]
	and	r0, r0, #254
	strb.w	r0, [r1, #132]
	.loc	10 111 5 is_stmt 1              @ lvgl/src/lv_widgets/lv_textarea.c:111:5
	ldr	r1, [sp, #100]
	movs	r0, #0
	.loc	10 111 28 is_stmt 0             @ lvgl/src/lv_widgets/lv_textarea.c:111:28
	str	r0, [r1, #80]
	.loc	10 112 5 is_stmt 1              @ lvgl/src/lv_widgets/lv_textarea.c:112:5
	ldr	r2, [sp, #100]
	movw	r1, #1500
	.loc	10 112 28 is_stmt 0             @ lvgl/src/lv_widgets/lv_textarea.c:112:28
	strh.w	r1, [r2, #92]
	.loc	10 113 5 is_stmt 1              @ lvgl/src/lv_widgets/lv_textarea.c:113:5
	ldr	r1, [sp, #100]
	.loc	10 113 28 is_stmt 0             @ lvgl/src/lv_widgets/lv_textarea.c:113:28
	str	r0, [r1, #84]
	.loc	10 114 5 is_stmt 1              @ lvgl/src/lv_widgets/lv_textarea.c:114:5
	ldr	r1, [sp, #100]
	.loc	10 114 28 is_stmt 0             @ lvgl/src/lv_widgets/lv_textarea.c:114:28
	str	r0, [r1, #88]
	.loc	10 115 5 is_stmt 1              @ lvgl/src/lv_widgets/lv_textarea.c:115:5
	ldr	r2, [sp, #100]
	.loc	10 115 28 is_stmt 0             @ lvgl/src/lv_widgets/lv_textarea.c:115:28
	ldrb.w	r1, [r2, #128]
	orr	r1, r1, #1
	strb.w	r1, [r2, #128]
	.loc	10 116 5 is_stmt 1              @ lvgl/src/lv_widgets/lv_textarea.c:116:5
	ldr	r2, [sp, #100]
	.loc	10 116 28 is_stmt 0             @ lvgl/src/lv_widgets/lv_textarea.c:116:28
	ldrb.w	r1, [r2, #128]
	and	r1, r1, #253
	strb.w	r1, [r2, #128]
	.loc	10 117 5 is_stmt 1              @ lvgl/src/lv_widgets/lv_textarea.c:117:5
	ldr	r2, [sp, #100]
	mov.w	r1, #400
	.loc	10 117 28 is_stmt 0             @ lvgl/src/lv_widgets/lv_textarea.c:117:28
	strh.w	r1, [r2, #112]
	.loc	10 118 5 is_stmt 1              @ lvgl/src/lv_widgets/lv_textarea.c:118:5
	ldr	r1, [sp, #100]
	.loc	10 118 28 is_stmt 0             @ lvgl/src/lv_widgets/lv_textarea.c:118:28
	str	r0, [r1, #108]
	.loc	10 119 5 is_stmt 1              @ lvgl/src/lv_widgets/lv_textarea.c:119:5
	ldr	r2, [sp, #100]
	.loc	10 119 28 is_stmt 0             @ lvgl/src/lv_widgets/lv_textarea.c:119:28
	ldrb.w	r1, [r2, #128]
	orr	r1, r1, #4
	strb.w	r1, [r2, #128]
	.loc	10 120 5 is_stmt 1              @ lvgl/src/lv_widgets/lv_textarea.c:120:5
	ldr	r1, [sp, #100]
	.loc	10 120 28 is_stmt 0             @ lvgl/src/lv_widgets/lv_textarea.c:120:28
	strh.w	r0, [r1, #104]
	.loc	10 121 5 is_stmt 1              @ lvgl/src/lv_widgets/lv_textarea.c:121:5
	ldr	r2, [sp, #100]
	.loc	10 121 28 is_stmt 0             @ lvgl/src/lv_widgets/lv_textarea.c:121:28
	ldrb.w	r1, [r2, #132]
	and	r1, r1, #253
	strb.w	r1, [r2, #132]
	.loc	10 125 5 is_stmt 1              @ lvgl/src/lv_widgets/lv_textarea.c:125:5
	ldr	r1, [sp, #100]
	.loc	10 125 22 is_stmt 0             @ lvgl/src/lv_widgets/lv_textarea.c:125:22
	str	r0, [r1, #64]
	.loc	10 126 5 is_stmt 1              @ lvgl/src/lv_widgets/lv_textarea.c:126:5
	ldr	r1, [sp, #100]
	.loc	10 126 26 is_stmt 0             @ lvgl/src/lv_widgets/lv_textarea.c:126:26
	str	r0, [r1, #68]
	.loc	10 128 25 is_stmt 1             @ lvgl/src/lv_widgets/lv_textarea.c:128:25
	ldr	r0, [sp, #100]
	.loc	10 128 30 is_stmt 0             @ lvgl/src/lv_widgets/lv_textarea.c:128:30
	adds	r0, #96
	.loc	10 128 5                        @ lvgl/src/lv_widgets/lv_textarea.c:128:5
	bl	lv_style_list_init
	.loc	10 129 25 is_stmt 1             @ lvgl/src/lv_widgets/lv_textarea.c:129:25
	ldr	r0, [sp, #100]
	.loc	10 129 30 is_stmt 0             @ lvgl/src/lv_widgets/lv_textarea.c:129:30
	adds	r0, #72
	.loc	10 129 5                        @ lvgl/src/lv_widgets/lv_textarea.c:129:5
	bl	lv_style_list_init
	.loc	10 136 26 is_stmt 1             @ lvgl/src/lv_widgets/lv_textarea.c:136:26
	ldr	r0, [sp, #104]
	.loc	10 136 5 is_stmt 0              @ lvgl/src/lv_widgets/lv_textarea.c:136:5
	movw	r1, :lower16:lv_textarea_signal
	movt	r1, :upper16:lv_textarea_signal
	bl	lv_obj_set_signal_cb
	.loc	10 137 49 is_stmt 1             @ lvgl/src/lv_widgets/lv_textarea.c:137:49
	ldr	r0, [sp, #104]
	.loc	10 137 26 is_stmt 0             @ lvgl/src/lv_widgets/lv_textarea.c:137:26
	bl	lv_page_get_scrollable
	.loc	10 137 5                        @ lvgl/src/lv_widgets/lv_textarea.c:137:5
	movw	r1, :lower16:lv_textarea_scrollable_signal
	movt	r1, :upper16:lv_textarea_scrollable_signal
	bl	lv_obj_set_signal_cb
	.loc	10 138 26 is_stmt 1             @ lvgl/src/lv_widgets/lv_textarea.c:138:26
	ldr	r0, [sp, #104]
	.loc	10 138 5 is_stmt 0              @ lvgl/src/lv_widgets/lv_textarea.c:138:5
	movw	r1, :lower16:lv_textarea_design
	movt	r1, :upper16:lv_textarea_design
	bl	lv_obj_set_design_cb
.Ltmp29:
	.loc	10 141 8 is_stmt 1              @ lvgl/src/lv_widgets/lv_textarea.c:141:8
	ldr	r0, [sp, #108]
.Ltmp30:
	.loc	10 141 8 is_stmt 0              @ lvgl/src/lv_widgets/lv_textarea.c:141:8
	cbnz	r0, .LBB0_24
	b	.LBB0_23
.LBB0_23:
.Ltmp31:
	.loc	10 142 37 is_stmt 1             @ lvgl/src/lv_widgets/lv_textarea.c:142:37
	ldr	r0, [sp, #104]
	movs	r1, #2
	str	r1, [sp, #16]                   @ 4-byte Spill
	movs	r2, #1
	.loc	10 142 9 is_stmt 0              @ lvgl/src/lv_widgets/lv_textarea.c:142:9
	str	r2, [sp, #8]                    @ 4-byte Spill
	bl	lv_page_set_scrollable_fit2
	.loc	10 144 38 is_stmt 1             @ lvgl/src/lv_widgets/lv_textarea.c:144:38
	ldr	r0, [sp, #104]
	movs	r1, #0
	.loc	10 144 22 is_stmt 0             @ lvgl/src/lv_widgets/lv_textarea.c:144:22
	str	r1, [sp, #12]                   @ 4-byte Spill
	bl	lv_label_create
	.loc	10 144 9                        @ lvgl/src/lv_widgets/lv_textarea.c:144:9
	ldr	r1, [sp, #100]
	.loc	10 144 20                       @ lvgl/src/lv_widgets/lv_textarea.c:144:20
	str	r0, [r1, #64]
	.loc	10 146 30 is_stmt 1             @ lvgl/src/lv_widgets/lv_textarea.c:146:30
	ldr	r0, [sp, #100]
	.loc	10 146 40 is_stmt 0             @ lvgl/src/lv_widgets/lv_textarea.c:146:40
	ldr	r0, [r0, #4]
	.loc	10 146 9                        @ lvgl/src/lv_widgets/lv_textarea.c:146:9
	movw	r1, :lower16:lv_textarea_scrollable_design
	movt	r1, :upper16:lv_textarea_scrollable_design
	bl	lv_obj_set_design_cb
	ldr	r1, [sp, #8]                    @ 4-byte Reload
	.loc	10 148 32 is_stmt 1             @ lvgl/src/lv_widgets/lv_textarea.c:148:32
	ldr	r0, [sp, #100]
	.loc	10 148 37 is_stmt 0             @ lvgl/src/lv_widgets/lv_textarea.c:148:37
	ldr	r0, [r0, #64]
	.loc	10 148 9                        @ lvgl/src/lv_widgets/lv_textarea.c:148:9
	bl	lv_label_set_long_mode
	.loc	10 149 27 is_stmt 1             @ lvgl/src/lv_widgets/lv_textarea.c:149:27
	ldr	r0, [sp, #100]
	.loc	10 149 32 is_stmt 0             @ lvgl/src/lv_widgets/lv_textarea.c:149:32
	ldr	r0, [r0, #64]
	.loc	10 149 9                        @ lvgl/src/lv_widgets/lv_textarea.c:149:9
	movw	r1, :lower16:.L.str.1
	movt	r1, :upper16:.L.str.1
	bl	lv_label_set_text
	ldr	r1, [sp, #12]                   @ 4-byte Reload
	.loc	10 150 26 is_stmt 1             @ lvgl/src/lv_widgets/lv_textarea.c:150:26
	ldr	r0, [sp, #100]
	.loc	10 150 31 is_stmt 0             @ lvgl/src/lv_widgets/lv_textarea.c:150:31
	ldr	r0, [r0, #64]
	.loc	10 150 9                        @ lvgl/src/lv_widgets/lv_textarea.c:150:9
	bl	lv_obj_set_click
	.loc	10 151 25 is_stmt 1             @ lvgl/src/lv_widgets/lv_textarea.c:151:25
	ldr	r0, [sp, #104]
	mov.w	r1, #260
	movs	r2, #130
	.loc	10 151 9 is_stmt 0              @ lvgl/src/lv_widgets/lv_textarea.c:151:9
	bl	lv_obj_set_size
	ldr	r1, [sp, #16]                   @ 4-byte Reload
	.loc	10 152 40 is_stmt 1             @ lvgl/src/lv_widgets/lv_textarea.c:152:40
	ldr	r0, [sp, #104]
	.loc	10 152 9 is_stmt 0              @ lvgl/src/lv_widgets/lv_textarea.c:152:9
	bl	lv_textarea_set_scrollbar_mode
	.loc	10 154 33 is_stmt 1             @ lvgl/src/lv_widgets/lv_textarea.c:154:33
	ldr	r0, [sp, #104]
	movs	r1, #64
	.loc	10 154 9 is_stmt 0              @ lvgl/src/lv_widgets/lv_textarea.c:154:9
	bl	lv_obj_reset_style_list
	.loc	10 155 24 is_stmt 1             @ lvgl/src/lv_widgets/lv_textarea.c:155:24
	ldr	r0, [sp, #104]
	movs	r1, #37
	.loc	10 155 9 is_stmt 0              @ lvgl/src/lv_widgets/lv_textarea.c:155:9
	bl	lv_theme_apply
	.loc	10 157 5 is_stmt 1              @ lvgl/src/lv_widgets/lv_textarea.c:157:5
	b	.LBB0_40
.Ltmp32:
.LBB0_24:
	.loc	10 160 30                       @ lvgl/src/lv_widgets/lv_textarea.c:160:30
	ldr	r0, [sp, #100]
	.loc	10 160 40 is_stmt 0             @ lvgl/src/lv_widgets/lv_textarea.c:160:40
	ldr	r0, [r0, #4]
	.loc	10 160 9                        @ lvgl/src/lv_widgets/lv_textarea.c:160:9
	movw	r1, :lower16:lv_textarea_scrollable_design
	movt	r1, :upper16:lv_textarea_scrollable_design
	bl	lv_obj_set_design_cb
	.loc	10 161 60 is_stmt 1             @ lvgl/src/lv_widgets/lv_textarea.c:161:60
	ldr	r0, [sp, #108]
	.loc	10 161 40 is_stmt 0             @ lvgl/src/lv_widgets/lv_textarea.c:161:40
	bl	lv_obj_get_ext_attr
	.loc	10 161 29                       @ lvgl/src/lv_widgets/lv_textarea.c:161:29
	str	r0, [sp, #96]
	.loc	10 162 50 is_stmt 1             @ lvgl/src/lv_widgets/lv_textarea.c:162:50
	ldr	r0, [sp, #104]
	.loc	10 162 54 is_stmt 0             @ lvgl/src/lv_widgets/lv_textarea.c:162:54
	ldr	r1, [sp, #96]
	.loc	10 162 64                       @ lvgl/src/lv_widgets/lv_textarea.c:162:64
	ldr	r1, [r1, #64]
	.loc	10 162 34                       @ lvgl/src/lv_widgets/lv_textarea.c:162:34
	bl	lv_label_create
	.loc	10 162 9                        @ lvgl/src/lv_widgets/lv_textarea.c:162:9
	ldr	r1, [sp, #100]
	.loc	10 162 32                       @ lvgl/src/lv_widgets/lv_textarea.c:162:32
	str	r0, [r1, #64]
	.loc	10 163 34 is_stmt 1             @ lvgl/src/lv_widgets/lv_textarea.c:163:34
	ldr	r0, [sp, #96]
	.loc	10 163 44 is_stmt 0             @ lvgl/src/lv_widgets/lv_textarea.c:163:44
	ldrb.w	r0, [r0, #132]
	and	r2, r0, #1
	.loc	10 163 9                        @ lvgl/src/lv_widgets/lv_textarea.c:163:9
	ldr	r1, [sp, #100]
	.loc	10 163 32                       @ lvgl/src/lv_widgets/lv_textarea.c:163:32
	ldrb.w	r0, [r1, #132]
	and	r0, r0, #254
	add	r0, r2
	strb.w	r0, [r1, #132]
	.loc	10 164 34 is_stmt 1             @ lvgl/src/lv_widgets/lv_textarea.c:164:34
	ldr	r0, [sp, #96]
	.loc	10 164 44 is_stmt 0             @ lvgl/src/lv_widgets/lv_textarea.c:164:44
	ldr	r0, [r0, #84]
	.loc	10 164 9                        @ lvgl/src/lv_widgets/lv_textarea.c:164:9
	ldr	r1, [sp, #100]
	.loc	10 164 32                       @ lvgl/src/lv_widgets/lv_textarea.c:164:32
	str	r0, [r1, #84]
	.loc	10 165 34 is_stmt 1             @ lvgl/src/lv_widgets/lv_textarea.c:165:34
	ldr	r0, [sp, #96]
	.loc	10 165 44 is_stmt 0             @ lvgl/src/lv_widgets/lv_textarea.c:165:44
	ldr	r0, [r0, #88]
	.loc	10 165 9                        @ lvgl/src/lv_widgets/lv_textarea.c:165:9
	ldr	r1, [sp, #100]
	.loc	10 165 32                       @ lvgl/src/lv_widgets/lv_textarea.c:165:32
	str	r0, [r1, #88]
	.loc	10 166 34 is_stmt 1             @ lvgl/src/lv_widgets/lv_textarea.c:166:34
	ldr	r0, [sp, #96]
	.loc	10 166 51 is_stmt 0             @ lvgl/src/lv_widgets/lv_textarea.c:166:51
	ldr	r0, [r0, #108]
	.loc	10 166 9                        @ lvgl/src/lv_widgets/lv_textarea.c:166:9
	ldr	r1, [sp, #100]
	.loc	10 166 32                       @ lvgl/src/lv_widgets/lv_textarea.c:166:32
	str	r0, [r1, #108]
	.loc	10 167 34 is_stmt 1             @ lvgl/src/lv_widgets/lv_textarea.c:167:34
	ldr	r0, [sp, #96]
	.loc	10 167 51 is_stmt 0             @ lvgl/src/lv_widgets/lv_textarea.c:167:51
	ldrh.w	r0, [r0, #104]
	.loc	10 167 9                        @ lvgl/src/lv_widgets/lv_textarea.c:167:9
	ldr	r1, [sp, #100]
	.loc	10 167 32                       @ lvgl/src/lv_widgets/lv_textarea.c:167:32
	strh.w	r0, [r1, #104]
	.loc	10 168 33 is_stmt 1             @ lvgl/src/lv_widgets/lv_textarea.c:168:33
	ldr	r0, [sp, #96]
	.loc	10 168 50 is_stmt 0             @ lvgl/src/lv_widgets/lv_textarea.c:168:50
	ldrb.w	r2, [r0, #128]
	.loc	10 168 9                        @ lvgl/src/lv_widgets/lv_textarea.c:168:9
	ldr	r1, [sp, #100]
	.loc	10 168 31                       @ lvgl/src/lv_widgets/lv_textarea.c:168:31
	ldrb.w	r0, [r1, #128]
	and	r2, r2, #2
	and	r0, r0, #253
	add	r0, r2
	strb.w	r0, [r1, #128]
	.loc	10 170 29 is_stmt 1             @ lvgl/src/lv_widgets/lv_textarea.c:170:29
	ldr	r0, [sp, #100]
	.loc	10 170 34 is_stmt 0             @ lvgl/src/lv_widgets/lv_textarea.c:170:34
	adds	r0, #96
	.loc	10 170 49                       @ lvgl/src/lv_widgets/lv_textarea.c:170:49
	ldr	r1, [sp, #96]
	.loc	10 170 59                       @ lvgl/src/lv_widgets/lv_textarea.c:170:59
	adds	r1, #96
	.loc	10 170 9                        @ lvgl/src/lv_widgets/lv_textarea.c:170:9
	bl	lv_style_list_copy
	.loc	10 171 29 is_stmt 1             @ lvgl/src/lv_widgets/lv_textarea.c:171:29
	ldr	r0, [sp, #100]
	.loc	10 171 34 is_stmt 0             @ lvgl/src/lv_widgets/lv_textarea.c:171:34
	adds	r0, #72
	.loc	10 171 54                       @ lvgl/src/lv_widgets/lv_textarea.c:171:54
	ldr	r1, [sp, #96]
	.loc	10 171 64                       @ lvgl/src/lv_widgets/lv_textarea.c:171:64
	adds	r1, #72
	.loc	10 171 9                        @ lvgl/src/lv_widgets/lv_textarea.c:171:9
	bl	lv_style_list_copy
.Ltmp33:
	.loc	10 173 12 is_stmt 1             @ lvgl/src/lv_widgets/lv_textarea.c:173:12
	ldr	r0, [sp, #100]
	.loc	10 173 17 is_stmt 0             @ lvgl/src/lv_widgets/lv_textarea.c:173:17
	ldrb.w	r0, [r0, #132]
.Ltmp34:
	.loc	10 173 12                       @ lvgl/src/lv_widgets/lv_textarea.c:173:12
	lsls	r0, r0, #31
	cbz	r0, .LBB0_26
	b	.LBB0_25
.LBB0_25:
.Ltmp35:
	.loc	10 173 47                       @ lvgl/src/lv_widgets/lv_textarea.c:173:47
	ldr	r0, [sp, #104]
	.loc	10 173 32                       @ lvgl/src/lv_widgets/lv_textarea.c:173:32
	bl	pwd_char_hider
	b	.LBB0_26
.Ltmp36:
.LBB0_26:
	.loc	10 175 12 is_stmt 1             @ lvgl/src/lv_widgets/lv_textarea.c:175:12
	ldr	r0, [sp, #96]
	.loc	10 175 22 is_stmt 0             @ lvgl/src/lv_widgets/lv_textarea.c:175:22
	ldr	r0, [r0, #68]
.Ltmp37:
	.loc	10 175 12                       @ lvgl/src/lv_widgets/lv_textarea.c:175:12
	cbz	r0, .LBB0_28
	b	.LBB0_27
.LBB0_27:
.Ltmp38:
	.loc	10 176 46 is_stmt 1             @ lvgl/src/lv_widgets/lv_textarea.c:176:46
	ldr	r0, [sp, #104]
	.loc	10 176 50 is_stmt 0             @ lvgl/src/lv_widgets/lv_textarea.c:176:50
	ldr	r1, [sp, #96]
	.loc	10 176 60                       @ lvgl/src/lv_widgets/lv_textarea.c:176:60
	ldr	r1, [r1, #68]
	.loc	10 176 13                       @ lvgl/src/lv_widgets/lv_textarea.c:176:13
	bl	lv_textarea_set_placeholder_text
	.loc	10 177 9 is_stmt 1              @ lvgl/src/lv_widgets/lv_textarea.c:177:9
	b	.LBB0_28
.Ltmp39:
.LBB0_28:
	.loc	10 179 12                       @ lvgl/src/lv_widgets/lv_textarea.c:179:12
	ldr	r0, [sp, #96]
	.loc	10 179 22 is_stmt 0             @ lvgl/src/lv_widgets/lv_textarea.c:179:22
	ldr	r0, [r0, #80]
.Ltmp40:
	.loc	10 179 12                       @ lvgl/src/lv_widgets/lv_textarea.c:179:12
	cbz	r0, .LBB0_37
	b	.LBB0_29
.LBB0_29:
.Ltmp41:
	.loc	10 180 45 is_stmt 1             @ lvgl/src/lv_widgets/lv_textarea.c:180:45
	ldr	r0, [sp, #96]
	.loc	10 180 55 is_stmt 0             @ lvgl/src/lv_widgets/lv_textarea.c:180:55
	ldr	r0, [r0, #80]
	.loc	10 180 28                       @ lvgl/src/lv_widgets/lv_textarea.c:180:28
	bl	_lv_mem_get_size
	.loc	10 180 22                       @ lvgl/src/lv_widgets/lv_textarea.c:180:22
	str	r0, [sp, #92]
	.loc	10 181 41 is_stmt 1             @ lvgl/src/lv_widgets/lv_textarea.c:181:41
	ldr	r0, [sp, #92]
	.loc	10 181 28 is_stmt 0             @ lvgl/src/lv_widgets/lv_textarea.c:181:28
	bl	lv_mem_alloc
	.loc	10 181 13                       @ lvgl/src/lv_widgets/lv_textarea.c:181:13
	ldr	r1, [sp, #100]
	.loc	10 181 26                       @ lvgl/src/lv_widgets/lv_textarea.c:181:26
	str	r0, [r1, #80]
	.loc	10 182 13 is_stmt 1             @ lvgl/src/lv_widgets/lv_textarea.c:182:13
	b	.LBB0_30
.LBB0_30:
.Ltmp42:
	.loc	10 182 13 is_stmt 0             @ lvgl/src/lv_widgets/lv_textarea.c:182:13
	ldr	r0, [sp, #100]
	ldr	r0, [r0, #80]
	bl	lv_debug_check_null
.Ltmp43:
	.loc	10 182 13                       @ lvgl/src/lv_widgets/lv_textarea.c:182:13
	cbnz	r0, .LBB0_33
	b	.LBB0_31
.LBB0_31:
.Ltmp44:
	.loc	10 182 13                       @ lvgl/src/lv_widgets/lv_textarea.c:182:13
	ldr	r0, [sp, #100]
	ldr	r2, [r0, #80]
	movw	r0, :lower16:.L.str
	movt	r0, :upper16:.L.str
	movs	r3, #0
	bl	lv_debug_log_error
	b	.LBB0_32
.LBB0_32:                               @ =>This Inner Loop Header: Depth=1
	b	.LBB0_32
.Ltmp45:
.LBB0_33:
	.loc	10 182 13                       @ lvgl/src/lv_widgets/lv_textarea.c:182:13
	b	.LBB0_34
.Ltmp46:
.LBB0_34:
	.loc	10 183 16 is_stmt 1             @ lvgl/src/lv_widgets/lv_textarea.c:183:16
	ldr	r0, [sp, #100]
	.loc	10 183 21 is_stmt 0             @ lvgl/src/lv_widgets/lv_textarea.c:183:21
	ldr	r0, [r0, #80]
.Ltmp47:
	.loc	10 183 16                       @ lvgl/src/lv_widgets/lv_textarea.c:183:16
	cbnz	r0, .LBB0_36
	b	.LBB0_35
.LBB0_35:
	.loc	10 0 16                         @ lvgl/src/lv_widgets/lv_textarea.c:0:16
	movs	r0, #0
.Ltmp48:
	.loc	10 183 38                       @ lvgl/src/lv_widgets/lv_textarea.c:183:38
	str	r0, [sp, #116]
	b	.LBB0_43
.Ltmp49:
.LBB0_36:
	.loc	10 185 24 is_stmt 1             @ lvgl/src/lv_widgets/lv_textarea.c:185:24
	ldr	r0, [sp, #100]
	.loc	10 185 29 is_stmt 0             @ lvgl/src/lv_widgets/lv_textarea.c:185:29
	ldr	r0, [r0, #80]
	.loc	10 185 38                       @ lvgl/src/lv_widgets/lv_textarea.c:185:38
	ldr	r1, [sp, #96]
	.loc	10 185 48                       @ lvgl/src/lv_widgets/lv_textarea.c:185:48
	ldr	r1, [r1, #80]
	.loc	10 185 57                       @ lvgl/src/lv_widgets/lv_textarea.c:185:57
	ldr	r2, [sp, #92]
	.loc	10 185 13                       @ lvgl/src/lv_widgets/lv_textarea.c:185:13
	bl	_lv_memcpy
	.loc	10 186 9 is_stmt 1              @ lvgl/src/lv_widgets/lv_textarea.c:186:9
	b	.LBB0_37
.Ltmp50:
.LBB0_37:
	.loc	10 188 12                       @ lvgl/src/lv_widgets/lv_textarea.c:188:12
	ldr	r0, [sp, #96]
	.loc	10 188 22 is_stmt 0             @ lvgl/src/lv_widgets/lv_textarea.c:188:22
	ldrb.w	r0, [r0, #132]
	lsrs	r0, r0, #1
.Ltmp51:
	.loc	10 188 12                       @ lvgl/src/lv_widgets/lv_textarea.c:188:12
	lsls	r0, r0, #31
	cbz	r0, .LBB0_39
	b	.LBB0_38
.LBB0_38:
.Ltmp52:
	.loc	10 188 57                       @ lvgl/src/lv_widgets/lv_textarea.c:188:57
	ldr	r0, [sp, #104]
	movs	r1, #1
	.loc	10 188 32                       @ lvgl/src/lv_widgets/lv_textarea.c:188:32
	bl	lv_textarea_set_one_line
	b	.LBB0_39
.Ltmp53:
.LBB0_39:
	.loc	10 191 30 is_stmt 1             @ lvgl/src/lv_widgets/lv_textarea.c:191:30
	ldr	r0, [sp, #104]
	movs	r2, #255
	.loc	10 191 9 is_stmt 0              @ lvgl/src/lv_widgets/lv_textarea.c:191:9
	mov	r1, r2
	bl	lv_obj_refresh_style
	b	.LBB0_40
.Ltmp54:
.LBB0_40:
	.loc	10 195 8 is_stmt 1              @ lvgl/src/lv_widgets/lv_textarea.c:195:8
	ldr	r0, [sp, #100]
	.loc	10 195 20 is_stmt 0             @ lvgl/src/lv_widgets/lv_textarea.c:195:20
	ldrh.w	r0, [r0, #112]
.Ltmp55:
	.loc	10 195 8                        @ lvgl/src/lv_widgets/lv_textarea.c:195:8
	cbz	r0, .LBB0_42
	b	.LBB0_41
.LBB0_41:
	.loc	10 0 8                          @ lvgl/src/lv_widgets/lv_textarea.c:0:8
	add	r0, sp, #84
.Ltmp56:
	.loc	10 198 9 is_stmt 1              @ lvgl/src/lv_widgets/lv_textarea.c:198:9
	str	r0, [sp]                        @ 4-byte Spill
	bl	lv_anim_path_init
	ldr	r0, [sp]                        @ 4-byte Reload
	.loc	10 199 9                        @ lvgl/src/lv_widgets/lv_textarea.c:199:9
	movw	r1, :lower16:lv_anim_path_step
	movt	r1, :upper16:lv_anim_path_step
	bl	lv_anim_path_set_cb
	add	r0, sp, #20
	.loc	10 202 9                        @ lvgl/src/lv_widgets/lv_textarea.c:202:9
	str	r0, [sp, #4]                    @ 4-byte Spill
	bl	lv_anim_init
	ldr	r0, [sp, #4]                    @ 4-byte Reload
	.loc	10 203 29                       @ lvgl/src/lv_widgets/lv_textarea.c:203:29
	ldr	r1, [sp, #104]
	.loc	10 203 9 is_stmt 0              @ lvgl/src/lv_widgets/lv_textarea.c:203:9
	bl	lv_anim_set_var
	ldr	r0, [sp, #4]                    @ 4-byte Reload
	.loc	10 204 9 is_stmt 1              @ lvgl/src/lv_widgets/lv_textarea.c:204:9
	movw	r1, :lower16:cursor_blink_anim
	movt	r1, :upper16:cursor_blink_anim
	bl	lv_anim_set_exec_cb
	ldr	r0, [sp, #4]                    @ 4-byte Reload
	.loc	10 205 30                       @ lvgl/src/lv_widgets/lv_textarea.c:205:30
	ldr	r1, [sp, #100]
	.loc	10 205 42 is_stmt 0             @ lvgl/src/lv_widgets/lv_textarea.c:205:42
	ldrh.w	r1, [r1, #112]
	.loc	10 205 9                        @ lvgl/src/lv_widgets/lv_textarea.c:205:9
	bl	lv_anim_set_time
	ldr	r0, [sp, #4]                    @ 4-byte Reload
	.loc	10 206 39 is_stmt 1             @ lvgl/src/lv_widgets/lv_textarea.c:206:39
	ldr	r1, [sp, #100]
	.loc	10 206 51 is_stmt 0             @ lvgl/src/lv_widgets/lv_textarea.c:206:51
	ldrh.w	r1, [r1, #112]
	.loc	10 206 9                        @ lvgl/src/lv_widgets/lv_textarea.c:206:9
	bl	lv_anim_set_playback_time
	ldr	r0, [sp, #4]                    @ 4-byte Reload
	movs	r1, #0
	movs	r2, #1
	.loc	10 207 9 is_stmt 1              @ lvgl/src/lv_widgets/lv_textarea.c:207:9
	bl	lv_anim_set_values
	ldr	r1, [sp]                        @ 4-byte Reload
	ldr	r0, [sp, #4]                    @ 4-byte Reload
	.loc	10 208 9                        @ lvgl/src/lv_widgets/lv_textarea.c:208:9
	bl	lv_anim_set_path
	ldr	r0, [sp, #4]                    @ 4-byte Reload
	movw	r1, #65535
	.loc	10 209 9                        @ lvgl/src/lv_widgets/lv_textarea.c:209:9
	bl	lv_anim_set_repeat_count
	ldr	r0, [sp, #4]                    @ 4-byte Reload
	.loc	10 210 9                        @ lvgl/src/lv_widgets/lv_textarea.c:210:9
	bl	lv_anim_start
	.loc	10 211 5                        @ lvgl/src/lv_widgets/lv_textarea.c:211:5
	b	.LBB0_42
.Ltmp57:
.LBB0_42:
	.loc	10 216 12                       @ lvgl/src/lv_widgets/lv_textarea.c:216:12
	ldr	r0, [sp, #104]
	.loc	10 216 5 is_stmt 0              @ lvgl/src/lv_widgets/lv_textarea.c:216:5
	str	r0, [sp, #116]
	b	.LBB0_43
.LBB0_43:
	.loc	10 217 1 is_stmt 1              @ lvgl/src/lv_widgets/lv_textarea.c:217:1
	ldr	r0, [sp, #116]
	add	sp, #120
	pop	{r7, pc}
.Ltmp58:
.Lfunc_end0:
	.size	lv_textarea_create, .Lfunc_end0-lv_textarea_create
	.cfi_endproc
	.cantunwind
	.fnend
                                        @ -- End function
	.section	.text.lv_textarea_signal,"ax",%progbits
	.p2align	3                               @ -- Begin function lv_textarea_signal
	.type	lv_textarea_signal,%function
	.code	16                              @ @lv_textarea_signal
	.thumb_func
lv_textarea_signal:
.Lfunc_begin1:
	.loc	10 1398 0                       @ lvgl/src/lv_widgets/lv_textarea.c:1398:0
	.fnstart
	.cfi_startproc
@ %bb.0:
	.save	{r7, lr}
	push	{r7, lr}
	.cfi_def_cfa_offset 8
	.cfi_offset lr, -4
	.cfi_offset r7, -8
	.pad	#72
	sub	sp, #72
	.cfi_def_cfa_offset 80
                                        @ kill: def $r3 killed $r1
	str	r0, [sp, #64]
	strb.w	r1, [sp, #63]
	str	r2, [sp, #56]
.Ltmp59:
	.loc	10 1400 8 prologue_end          @ lvgl/src/lv_widgets/lv_textarea.c:1400:8
	ldrb.w	r0, [sp, #63]
.Ltmp60:
	.loc	10 1400 8 is_stmt 0             @ lvgl/src/lv_widgets/lv_textarea.c:1400:8
	cmp	r0, #8
	bne	.LBB1_4
	b	.LBB1_1
.LBB1_1:
.Ltmp61:
	.loc	10 1401 38 is_stmt 1            @ lvgl/src/lv_widgets/lv_textarea.c:1401:38
	ldr	r0, [sp, #56]
	.loc	10 1401 31 is_stmt 0            @ lvgl/src/lv_widgets/lv_textarea.c:1401:31
	str	r0, [sp, #48]
	.loc	10 1402 46 is_stmt 1            @ lvgl/src/lv_widgets/lv_textarea.c:1402:46
	ldr	r0, [sp, #64]
	.loc	10 1402 50 is_stmt 0            @ lvgl/src/lv_widgets/lv_textarea.c:1402:50
	ldr	r1, [sp, #48]
	.loc	10 1402 56                      @ lvgl/src/lv_widgets/lv_textarea.c:1402:56
	ldrb	r1, [r1]
	.loc	10 1402 24                      @ lvgl/src/lv_widgets/lv_textarea.c:1402:24
	bl	lv_textarea_get_style
	.loc	10 1402 9                       @ lvgl/src/lv_widgets/lv_textarea.c:1402:9
	ldr	r1, [sp, #48]
	.loc	10 1402 22                      @ lvgl/src/lv_widgets/lv_textarea.c:1402:22
	str	r0, [r1, #4]
.Ltmp62:
	.loc	10 1403 12 is_stmt 1            @ lvgl/src/lv_widgets/lv_textarea.c:1403:12
	ldr	r0, [sp, #48]
	.loc	10 1403 18 is_stmt 0            @ lvgl/src/lv_widgets/lv_textarea.c:1403:18
	ldr	r0, [r0, #4]
.Ltmp63:
	.loc	10 1403 12                      @ lvgl/src/lv_widgets/lv_textarea.c:1403:12
	cbz	r0, .LBB1_3
	b	.LBB1_2
.LBB1_2:
	.loc	10 0 12                         @ lvgl/src/lv_widgets/lv_textarea.c:0:12
	movs	r0, #1
.Ltmp64:
	.loc	10 1403 34                      @ lvgl/src/lv_widgets/lv_textarea.c:1403:34
	strb.w	r0, [sp, #71]
	b	.LBB1_74
.LBB1_3:
	.loc	10 1404 21 is_stmt 1            @ lvgl/src/lv_widgets/lv_textarea.c:1404:21
	movw	r0, :lower16:ancestor_signal
	movt	r0, :upper16:ancestor_signal
	ldr	r3, [r0]
	.loc	10 1404 37 is_stmt 0            @ lvgl/src/lv_widgets/lv_textarea.c:1404:37
	ldr	r0, [sp, #64]
	.loc	10 1404 41                      @ lvgl/src/lv_widgets/lv_textarea.c:1404:41
	ldrb.w	r1, [sp, #63]
	.loc	10 1404 47                      @ lvgl/src/lv_widgets/lv_textarea.c:1404:47
	ldr	r2, [sp, #56]
	.loc	10 1404 21                      @ lvgl/src/lv_widgets/lv_textarea.c:1404:21
	blx	r3
	.loc	10 1404 14                      @ lvgl/src/lv_widgets/lv_textarea.c:1404:14
	strb.w	r0, [sp, #71]
	b	.LBB1_74
.Ltmp65:
.LBB1_4:
	.loc	10 1406 13 is_stmt 1            @ lvgl/src/lv_widgets/lv_textarea.c:1406:13
	ldrb.w	r0, [sp, #63]
.Ltmp66:
	.loc	10 1406 13 is_stmt 0            @ lvgl/src/lv_widgets/lv_textarea.c:1406:13
	cmp	r0, #9
	bne	.LBB1_6
	b	.LBB1_5
.LBB1_5:
.Ltmp67:
	.loc	10 1407 16 is_stmt 1            @ lvgl/src/lv_widgets/lv_textarea.c:1407:16
	movw	r0, :lower16:ancestor_signal
	movt	r0, :upper16:ancestor_signal
	ldr	r3, [r0]
	.loc	10 1407 32 is_stmt 0            @ lvgl/src/lv_widgets/lv_textarea.c:1407:32
	ldr	r0, [sp, #64]
	.loc	10 1407 36                      @ lvgl/src/lv_widgets/lv_textarea.c:1407:36
	ldrb.w	r1, [sp, #63]
	.loc	10 1407 42                      @ lvgl/src/lv_widgets/lv_textarea.c:1407:42
	ldr	r2, [sp, #56]
	.loc	10 1407 16                      @ lvgl/src/lv_widgets/lv_textarea.c:1407:16
	blx	r3
	.loc	10 1407 9                       @ lvgl/src/lv_widgets/lv_textarea.c:1407:9
	strb.w	r0, [sp, #71]
	b	.LBB1_74
.Ltmp68:
.LBB1_6:
	.loc	10 0 9                          @ lvgl/src/lv_widgets/lv_textarea.c:0:9
	b	.LBB1_7
.LBB1_7:
	.loc	10 1411 11 is_stmt 1            @ lvgl/src/lv_widgets/lv_textarea.c:1411:11
	movw	r0, :lower16:ancestor_signal
	movt	r0, :upper16:ancestor_signal
	ldr	r3, [r0]
	.loc	10 1411 27 is_stmt 0            @ lvgl/src/lv_widgets/lv_textarea.c:1411:27
	ldr	r0, [sp, #64]
	.loc	10 1411 31                      @ lvgl/src/lv_widgets/lv_textarea.c:1411:31
	ldrb.w	r1, [sp, #63]
	.loc	10 1411 37                      @ lvgl/src/lv_widgets/lv_textarea.c:1411:37
	ldr	r2, [sp, #56]
	.loc	10 1411 11                      @ lvgl/src/lv_widgets/lv_textarea.c:1411:11
	blx	r3
	.loc	10 1411 9                       @ lvgl/src/lv_widgets/lv_textarea.c:1411:9
	strb.w	r0, [sp, #55]
.Ltmp69:
	.loc	10 1412 8 is_stmt 1             @ lvgl/src/lv_widgets/lv_textarea.c:1412:8
	ldrb.w	r0, [sp, #55]
.Ltmp70:
	.loc	10 1412 8 is_stmt 0             @ lvgl/src/lv_widgets/lv_textarea.c:1412:8
	cmp	r0, #1
	beq	.LBB1_9
	b	.LBB1_8
.LBB1_8:
.Ltmp71:
	.loc	10 1412 33                      @ lvgl/src/lv_widgets/lv_textarea.c:1412:33
	ldrb.w	r0, [sp, #55]
	.loc	10 1412 26                      @ lvgl/src/lv_widgets/lv_textarea.c:1412:26
	strb.w	r0, [sp, #71]
	b	.LBB1_74
.Ltmp72:
.LBB1_9:
	.loc	10 1413 8 is_stmt 1             @ lvgl/src/lv_widgets/lv_textarea.c:1413:8
	ldrb.w	r0, [sp, #63]
.Ltmp73:
	.loc	10 1413 8 is_stmt 0             @ lvgl/src/lv_widgets/lv_textarea.c:1413:8
	cmp	r0, #7
	bne	.LBB1_11
	b	.LBB1_10
.LBB1_10:
.Ltmp74:
	.loc	10 1413 73                      @ lvgl/src/lv_widgets/lv_textarea.c:1413:73
	ldr	r0, [sp, #56]
	.loc	10 1413 43                      @ lvgl/src/lv_widgets/lv_textarea.c:1413:43
	movw	r1, :lower16:.L.str.4
	movt	r1, :upper16:.L.str.4
	bl	lv_obj_handle_get_type_signal
	.loc	10 1413 36                      @ lvgl/src/lv_widgets/lv_textarea.c:1413:36
	strb.w	r0, [sp, #71]
	b	.LBB1_74
.Ltmp75:
.LBB1_11:
	.loc	10 1415 51 is_stmt 1            @ lvgl/src/lv_widgets/lv_textarea.c:1415:51
	ldr	r0, [sp, #64]
	.loc	10 1415 31 is_stmt 0            @ lvgl/src/lv_widgets/lv_textarea.c:1415:31
	bl	lv_obj_get_ext_attr
	.loc	10 1415 25                      @ lvgl/src/lv_widgets/lv_textarea.c:1415:25
	str	r0, [sp, #44]
.Ltmp76:
	.loc	10 1416 8 is_stmt 1             @ lvgl/src/lv_widgets/lv_textarea.c:1416:8
	ldrb.w	r0, [sp, #63]
.Ltmp77:
	.loc	10 1416 8 is_stmt 0             @ lvgl/src/lv_widgets/lv_textarea.c:1416:8
	cbnz	r0, .LBB1_17
	b	.LBB1_12
.LBB1_12:
.Ltmp78:
	.loc	10 1417 12 is_stmt 1            @ lvgl/src/lv_widgets/lv_textarea.c:1417:12
	ldr	r0, [sp, #44]
	.loc	10 1417 17 is_stmt 0            @ lvgl/src/lv_widgets/lv_textarea.c:1417:17
	ldr	r0, [r0, #80]
.Ltmp79:
	.loc	10 1417 12                      @ lvgl/src/lv_widgets/lv_textarea.c:1417:12
	cbz	r0, .LBB1_14
	b	.LBB1_13
.LBB1_13:
.Ltmp80:
	.loc	10 1417 46                      @ lvgl/src/lv_widgets/lv_textarea.c:1417:46
	ldr	r0, [sp, #44]
	.loc	10 1417 51                      @ lvgl/src/lv_widgets/lv_textarea.c:1417:51
	ldr	r0, [r0, #80]
	.loc	10 1417 34                      @ lvgl/src/lv_widgets/lv_textarea.c:1417:34
	bl	lv_mem_free
	b	.LBB1_14
.Ltmp81:
.LBB1_14:
	.loc	10 1418 12 is_stmt 1            @ lvgl/src/lv_widgets/lv_textarea.c:1418:12
	ldr	r0, [sp, #44]
	.loc	10 1418 17 is_stmt 0            @ lvgl/src/lv_widgets/lv_textarea.c:1418:17
	ldr	r0, [r0, #68]
.Ltmp82:
	.loc	10 1418 12                      @ lvgl/src/lv_widgets/lv_textarea.c:1418:12
	cbz	r0, .LBB1_16
	b	.LBB1_15
.LBB1_15:
.Ltmp83:
	.loc	10 1418 54                      @ lvgl/src/lv_widgets/lv_textarea.c:1418:54
	ldr	r0, [sp, #44]
	.loc	10 1418 59                      @ lvgl/src/lv_widgets/lv_textarea.c:1418:59
	ldr	r0, [r0, #68]
	.loc	10 1418 42                      @ lvgl/src/lv_widgets/lv_textarea.c:1418:42
	bl	lv_mem_free
	b	.LBB1_16
.Ltmp84:
.LBB1_16:
	.loc	10 1420 9 is_stmt 1             @ lvgl/src/lv_widgets/lv_textarea.c:1420:9
	ldr	r1, [sp, #44]
	movs	r0, #0
	.loc	10 1420 22 is_stmt 0            @ lvgl/src/lv_widgets/lv_textarea.c:1420:22
	str	r0, [r1, #80]
	.loc	10 1421 9 is_stmt 1             @ lvgl/src/lv_widgets/lv_textarea.c:1421:9
	ldr	r1, [sp, #44]
	.loc	10 1421 30 is_stmt 0            @ lvgl/src/lv_widgets/lv_textarea.c:1421:30
	str	r0, [r1, #68]
	.loc	10 1423 33 is_stmt 1            @ lvgl/src/lv_widgets/lv_textarea.c:1423:33
	ldr	r0, [sp, #64]
	movs	r1, #3
	.loc	10 1423 9 is_stmt 0             @ lvgl/src/lv_widgets/lv_textarea.c:1423:9
	bl	lv_obj_clean_style_list
	.loc	10 1424 33 is_stmt 1            @ lvgl/src/lv_widgets/lv_textarea.c:1424:33
	ldr	r0, [sp, #64]
	movs	r1, #4
	.loc	10 1424 9 is_stmt 0             @ lvgl/src/lv_widgets/lv_textarea.c:1424:9
	bl	lv_obj_clean_style_list
	.loc	10 1428 5 is_stmt 1             @ lvgl/src/lv_widgets/lv_textarea.c:1428:5
	b	.LBB1_73
.Ltmp85:
.LBB1_17:
	.loc	10 1429 13                      @ lvgl/src/lv_widgets/lv_textarea.c:1429:13
	ldrb.w	r0, [sp, #63]
.Ltmp86:
	.loc	10 1429 13 is_stmt 0            @ lvgl/src/lv_widgets/lv_textarea.c:1429:13
	cmp	r0, #4
	bne	.LBB1_24
	b	.LBB1_18
.LBB1_18:
.Ltmp87:
	.loc	10 1430 12 is_stmt 1            @ lvgl/src/lv_widgets/lv_textarea.c:1430:12
	ldr	r0, [sp, #44]
	.loc	10 1430 17 is_stmt 0            @ lvgl/src/lv_widgets/lv_textarea.c:1430:17
	ldr	r0, [r0, #64]
.Ltmp88:
	.loc	10 1430 12                      @ lvgl/src/lv_widgets/lv_textarea.c:1430:12
	cmp	r0, #0
	beq	.LBB1_23
	b	.LBB1_19
.LBB1_19:
.Ltmp89:
	.loc	10 1431 16 is_stmt 1            @ lvgl/src/lv_widgets/lv_textarea.c:1431:16
	ldr	r0, [sp, #44]
	.loc	10 1431 21 is_stmt 0            @ lvgl/src/lv_widgets/lv_textarea.c:1431:21
	ldrb.w	r0, [r0, #132]
	lsrs	r0, r0, #1
.Ltmp90:
	.loc	10 1431 16                      @ lvgl/src/lv_widgets/lv_textarea.c:1431:16
	lsls	r0, r0, #31
	cbz	r0, .LBB1_21
	b	.LBB1_20
.LBB1_20:
.Ltmp91:
	.loc	10 1432 63 is_stmt 1            @ lvgl/src/lv_widgets/lv_textarea.c:1432:63
	ldr	r0, [sp, #64]
	movs	r1, #0
	.loc	10 1432 38 is_stmt 0            @ lvgl/src/lv_widgets/lv_textarea.c:1432:38
	str	r1, [sp, #20]                   @ 4-byte Spill
	bl	lv_obj_get_style_pad_top
	ldr	r1, [sp, #20]                   @ 4-byte Reload
	.loc	10 1432 32                      @ lvgl/src/lv_widgets/lv_textarea.c:1432:32
	strh.w	r0, [sp, #42]
	.loc	10 1433 69 is_stmt 1            @ lvgl/src/lv_widgets/lv_textarea.c:1433:69
	ldr	r0, [sp, #64]
	.loc	10 1433 41 is_stmt 0            @ lvgl/src/lv_widgets/lv_textarea.c:1433:41
	bl	lv_obj_get_style_pad_bottom
	ldr	r1, [sp, #20]                   @ 4-byte Reload
	.loc	10 1433 32                      @ lvgl/src/lv_widgets/lv_textarea.c:1433:32
	strh.w	r0, [sp, #40]
	.loc	10 1434 69 is_stmt 1            @ lvgl/src/lv_widgets/lv_textarea.c:1434:69
	ldr	r0, [sp, #64]
	.loc	10 1434 42 is_stmt 0            @ lvgl/src/lv_widgets/lv_textarea.c:1434:42
	bl	lv_obj_get_style_text_font
	.loc	10 1434 35                      @ lvgl/src/lv_widgets/lv_textarea.c:1434:35
	str	r0, [sp, #36]
	.loc	10 1437 74 is_stmt 1            @ lvgl/src/lv_widgets/lv_textarea.c:1437:74
	ldr	r0, [sp, #36]
	.loc	10 1437 50 is_stmt 0            @ lvgl/src/lv_widgets/lv_textarea.c:1437:50
	bl	lv_font_get_line_height
	.loc	10 1437 28                      @ lvgl/src/lv_widgets/lv_textarea.c:1437:28
	strh.w	r0, [sp, #34]
	.loc	10 1438 35 is_stmt 1            @ lvgl/src/lv_widgets/lv_textarea.c:1438:35
	ldr	r0, [sp, #44]
	.loc	10 1438 40 is_stmt 0            @ lvgl/src/lv_widgets/lv_textarea.c:1438:40
	ldr	r0, [r0, #64]
	.loc	10 1438 47                      @ lvgl/src/lv_widgets/lv_textarea.c:1438:47
	ldrsh.w	r1, [sp, #34]
	.loc	10 1438 17                      @ lvgl/src/lv_widgets/lv_textarea.c:1438:17
	bl	lv_obj_set_height
	.loc	10 1439 35 is_stmt 1            @ lvgl/src/lv_widgets/lv_textarea.c:1439:35
	ldr	r0, [sp, #64]
	.loc	10 1439 39 is_stmt 0            @ lvgl/src/lv_widgets/lv_textarea.c:1439:39
	ldrh.w	r1, [sp, #34]
	.loc	10 1439 48                      @ lvgl/src/lv_widgets/lv_textarea.c:1439:48
	ldrh.w	r2, [sp, #42]
	.loc	10 1439 46                      @ lvgl/src/lv_widgets/lv_textarea.c:1439:46
	add	r1, r2
	.loc	10 1439 54                      @ lvgl/src/lv_widgets/lv_textarea.c:1439:54
	ldrh.w	r2, [sp, #40]
	.loc	10 1439 52                      @ lvgl/src/lv_widgets/lv_textarea.c:1439:52
	add	r1, r2
	.loc	10 1439 17                      @ lvgl/src/lv_widgets/lv_textarea.c:1439:17
	sxth	r1, r1
	bl	lv_obj_set_height
	.loc	10 1440 13 is_stmt 1            @ lvgl/src/lv_widgets/lv_textarea.c:1440:13
	b	.LBB1_22
.Ltmp92:
.LBB1_21:
	.loc	10 1443 34                      @ lvgl/src/lv_widgets/lv_textarea.c:1443:34
	ldr	r0, [sp, #44]
	.loc	10 1443 39 is_stmt 0            @ lvgl/src/lv_widgets/lv_textarea.c:1443:39
	ldr	r0, [r0, #64]
	.loc	10 1443 68                      @ lvgl/src/lv_widgets/lv_textarea.c:1443:68
	str	r0, [sp, #16]                   @ 4-byte Spill
	ldr	r0, [sp, #64]
	.loc	10 1443 46                      @ lvgl/src/lv_widgets/lv_textarea.c:1443:46
	bl	lv_page_get_width_fit
	mov	r1, r0
	.loc	10 1443 17                      @ lvgl/src/lv_widgets/lv_textarea.c:1443:17
	ldr	r0, [sp, #16]                   @ 4-byte Reload
	bl	lv_obj_set_width
	.loc	10 1444 32 is_stmt 1            @ lvgl/src/lv_widgets/lv_textarea.c:1444:32
	ldr	r0, [sp, #44]
	.loc	10 1444 37 is_stmt 0            @ lvgl/src/lv_widgets/lv_textarea.c:1444:37
	ldr	r0, [r0, #64]
	movs	r2, #0
	.loc	10 1444 17                      @ lvgl/src/lv_widgets/lv_textarea.c:1444:17
	mov	r1, r2
	bl	lv_obj_set_pos
	b	.LBB1_22
.Ltmp93:
.LBB1_22:
	.loc	10 1447 31 is_stmt 1            @ lvgl/src/lv_widgets/lv_textarea.c:1447:31
	ldr	r0, [sp, #44]
	.loc	10 1447 36 is_stmt 0            @ lvgl/src/lv_widgets/lv_textarea.c:1447:36
	ldr	r0, [r0, #64]
	movs	r1, #0
	.loc	10 1447 13                      @ lvgl/src/lv_widgets/lv_textarea.c:1447:13
	bl	lv_label_set_text
	.loc	10 1448 30 is_stmt 1            @ lvgl/src/lv_widgets/lv_textarea.c:1448:30
	ldr	r0, [sp, #64]
	.loc	10 1448 13 is_stmt 0            @ lvgl/src/lv_widgets/lv_textarea.c:1448:13
	bl	refr_cursor_area
	.loc	10 1449 9 is_stmt 1             @ lvgl/src/lv_widgets/lv_textarea.c:1449:9
	b	.LBB1_23
.Ltmp94:
.LBB1_23:
	.loc	10 1450 5                       @ lvgl/src/lv_widgets/lv_textarea.c:1450:5
	b	.LBB1_72
.Ltmp95:
.LBB1_24:
	.loc	10 1451 13                      @ lvgl/src/lv_widgets/lv_textarea.c:1451:13
	ldrb.w	r0, [sp, #63]
.Ltmp96:
	.loc	10 1451 13 is_stmt 0            @ lvgl/src/lv_widgets/lv_textarea.c:1451:13
	cmp	r0, #2
	bne	.LBB1_31
	b	.LBB1_25
.LBB1_25:
.Ltmp97:
	.loc	10 1453 12 is_stmt 1            @ lvgl/src/lv_widgets/lv_textarea.c:1453:12
	ldr	r0, [sp, #44]
	.loc	10 1453 17 is_stmt 0            @ lvgl/src/lv_widgets/lv_textarea.c:1453:17
	ldr	r0, [r0, #64]
.Ltmp98:
	.loc	10 1453 12                      @ lvgl/src/lv_widgets/lv_textarea.c:1453:12
	cbz	r0, .LBB1_30
	b	.LBB1_26
.LBB1_26:
.Ltmp99:
	.loc	10 1454 33 is_stmt 1            @ lvgl/src/lv_widgets/lv_textarea.c:1454:33
	ldr	r0, [sp, #64]
	.loc	10 1454 16 is_stmt 0            @ lvgl/src/lv_widgets/lv_textarea.c:1454:16
	bl	lv_obj_get_width
	.loc	10 1454 58                      @ lvgl/src/lv_widgets/lv_textarea.c:1454:58
	str	r0, [sp, #12]                   @ 4-byte Spill
	ldr	r0, [sp, #56]
	.loc	10 1454 40                      @ lvgl/src/lv_widgets/lv_textarea.c:1454:40
	bl	lv_area_get_width
	mov	r1, r0
	.loc	10 1454 65                      @ lvgl/src/lv_widgets/lv_textarea.c:1454:65
	ldr	r0, [sp, #12]                   @ 4-byte Reload
	cmp	r0, r1
	bne	.LBB1_28
	b	.LBB1_27
.LBB1_27:
	.loc	10 1454 86                      @ lvgl/src/lv_widgets/lv_textarea.c:1454:86
	ldr	r0, [sp, #64]
	.loc	10 1454 68                      @ lvgl/src/lv_widgets/lv_textarea.c:1454:68
	bl	lv_obj_get_height
	.loc	10 1454 112                     @ lvgl/src/lv_widgets/lv_textarea.c:1454:112
	str	r0, [sp, #8]                    @ 4-byte Spill
	ldr	r0, [sp, #56]
	.loc	10 1454 93                      @ lvgl/src/lv_widgets/lv_textarea.c:1454:93
	bl	lv_area_get_height
	mov	r1, r0
.Ltmp100:
	.loc	10 1454 16                      @ lvgl/src/lv_widgets/lv_textarea.c:1454:16
	ldr	r0, [sp, #8]                    @ 4-byte Reload
	cmp	r0, r1
	beq	.LBB1_29
	b	.LBB1_28
.LBB1_28:
.Ltmp101:
	.loc	10 1455 34 is_stmt 1            @ lvgl/src/lv_widgets/lv_textarea.c:1455:34
	ldr	r0, [sp, #44]
	.loc	10 1455 39 is_stmt 0            @ lvgl/src/lv_widgets/lv_textarea.c:1455:39
	ldr	r0, [r0, #64]
	.loc	10 1455 68                      @ lvgl/src/lv_widgets/lv_textarea.c:1455:68
	str	r0, [sp]                        @ 4-byte Spill
	ldr	r0, [sp, #64]
	.loc	10 1455 46                      @ lvgl/src/lv_widgets/lv_textarea.c:1455:46
	bl	lv_page_get_width_fit
	mov	r1, r0
	.loc	10 1455 17                      @ lvgl/src/lv_widgets/lv_textarea.c:1455:17
	ldr	r0, [sp]                        @ 4-byte Reload
	bl	lv_obj_set_width
	.loc	10 1456 32 is_stmt 1            @ lvgl/src/lv_widgets/lv_textarea.c:1456:32
	ldr	r0, [sp, #44]
	.loc	10 1456 37 is_stmt 0            @ lvgl/src/lv_widgets/lv_textarea.c:1456:37
	ldr	r0, [r0, #64]
	movs	r2, #0
	.loc	10 1456 17                      @ lvgl/src/lv_widgets/lv_textarea.c:1456:17
	str	r2, [sp, #4]                    @ 4-byte Spill
	mov	r1, r2
	bl	lv_obj_set_pos
	ldr	r1, [sp, #4]                    @ 4-byte Reload
	.loc	10 1457 35 is_stmt 1            @ lvgl/src/lv_widgets/lv_textarea.c:1457:35
	ldr	r0, [sp, #44]
	.loc	10 1457 40 is_stmt 0            @ lvgl/src/lv_widgets/lv_textarea.c:1457:40
	ldr	r0, [r0, #64]
	.loc	10 1457 17                      @ lvgl/src/lv_widgets/lv_textarea.c:1457:17
	bl	lv_label_set_text
	.loc	10 1459 34 is_stmt 1            @ lvgl/src/lv_widgets/lv_textarea.c:1459:34
	ldr	r0, [sp, #64]
	.loc	10 1459 17 is_stmt 0            @ lvgl/src/lv_widgets/lv_textarea.c:1459:17
	bl	refr_cursor_area
	.loc	10 1460 13 is_stmt 1            @ lvgl/src/lv_widgets/lv_textarea.c:1460:13
	b	.LBB1_29
.Ltmp102:
.LBB1_29:
	.loc	10 1461 9                       @ lvgl/src/lv_widgets/lv_textarea.c:1461:9
	b	.LBB1_30
.Ltmp103:
.LBB1_30:
	.loc	10 1462 5                       @ lvgl/src/lv_widgets/lv_textarea.c:1462:5
	b	.LBB1_71
.Ltmp104:
.LBB1_31:
	.loc	10 1463 13                      @ lvgl/src/lv_widgets/lv_textarea.c:1463:13
	ldrb.w	r0, [sp, #63]
.Ltmp105:
	.loc	10 1463 13 is_stmt 0            @ lvgl/src/lv_widgets/lv_textarea.c:1463:13
	cmp	r0, #24
	bne	.LBB1_61
	b	.LBB1_32
.LBB1_32:
.Ltmp106:
	.loc	10 1465 36 is_stmt 1            @ lvgl/src/lv_widgets/lv_textarea.c:1465:36
	ldr	r0, [sp, #56]
	.loc	10 1465 22 is_stmt 0            @ lvgl/src/lv_widgets/lv_textarea.c:1465:22
	ldr	r0, [r0]
	.loc	10 1465 18                      @ lvgl/src/lv_widgets/lv_textarea.c:1465:18
	str	r0, [sp, #28]
.Ltmp107:
	.loc	10 1466 12 is_stmt 1            @ lvgl/src/lv_widgets/lv_textarea.c:1466:12
	ldr	r0, [sp, #28]
.Ltmp108:
	.loc	10 1466 12 is_stmt 0            @ lvgl/src/lv_widgets/lv_textarea.c:1466:12
	cmp	r0, #19
	bne	.LBB1_34
	b	.LBB1_33
.LBB1_33:
.Ltmp109:
	.loc	10 1467 38 is_stmt 1            @ lvgl/src/lv_widgets/lv_textarea.c:1467:38
	ldr	r0, [sp, #64]
	.loc	10 1467 13 is_stmt 0            @ lvgl/src/lv_widgets/lv_textarea.c:1467:13
	bl	lv_textarea_cursor_right
	b	.LBB1_60
.LBB1_34:
.Ltmp110:
	.loc	10 1468 17 is_stmt 1            @ lvgl/src/lv_widgets/lv_textarea.c:1468:17
	ldr	r0, [sp, #28]
.Ltmp111:
	.loc	10 1468 17 is_stmt 0            @ lvgl/src/lv_widgets/lv_textarea.c:1468:17
	cmp	r0, #20
	bne	.LBB1_36
	b	.LBB1_35
.LBB1_35:
.Ltmp112:
	.loc	10 1469 37 is_stmt 1            @ lvgl/src/lv_widgets/lv_textarea.c:1469:37
	ldr	r0, [sp, #64]
	.loc	10 1469 13 is_stmt 0            @ lvgl/src/lv_widgets/lv_textarea.c:1469:13
	bl	lv_textarea_cursor_left
	b	.LBB1_59
.LBB1_36:
.Ltmp113:
	.loc	10 1470 17 is_stmt 1            @ lvgl/src/lv_widgets/lv_textarea.c:1470:17
	ldr	r0, [sp, #28]
.Ltmp114:
	.loc	10 1470 17 is_stmt 0            @ lvgl/src/lv_widgets/lv_textarea.c:1470:17
	cmp	r0, #17
	bne	.LBB1_38
	b	.LBB1_37
.LBB1_37:
.Ltmp115:
	.loc	10 1471 35 is_stmt 1            @ lvgl/src/lv_widgets/lv_textarea.c:1471:35
	ldr	r0, [sp, #64]
	.loc	10 1471 13 is_stmt 0            @ lvgl/src/lv_widgets/lv_textarea.c:1471:13
	bl	lv_textarea_cursor_up
	b	.LBB1_58
.LBB1_38:
.Ltmp116:
	.loc	10 1472 17 is_stmt 1            @ lvgl/src/lv_widgets/lv_textarea.c:1472:17
	ldr	r0, [sp, #28]
.Ltmp117:
	.loc	10 1472 17 is_stmt 0            @ lvgl/src/lv_widgets/lv_textarea.c:1472:17
	cmp	r0, #18
	bne	.LBB1_40
	b	.LBB1_39
.LBB1_39:
.Ltmp118:
	.loc	10 1473 37 is_stmt 1            @ lvgl/src/lv_widgets/lv_textarea.c:1473:37
	ldr	r0, [sp, #64]
	.loc	10 1473 13 is_stmt 0            @ lvgl/src/lv_widgets/lv_textarea.c:1473:13
	bl	lv_textarea_cursor_down
	b	.LBB1_57
.LBB1_40:
.Ltmp119:
	.loc	10 1474 17 is_stmt 1            @ lvgl/src/lv_widgets/lv_textarea.c:1474:17
	ldr	r0, [sp, #28]
.Ltmp120:
	.loc	10 1474 17 is_stmt 0            @ lvgl/src/lv_widgets/lv_textarea.c:1474:17
	cmp	r0, #8
	bne	.LBB1_42
	b	.LBB1_41
.LBB1_41:
.Ltmp121:
	.loc	10 1475 34 is_stmt 1            @ lvgl/src/lv_widgets/lv_textarea.c:1475:34
	ldr	r0, [sp, #64]
	.loc	10 1475 13 is_stmt 0            @ lvgl/src/lv_widgets/lv_textarea.c:1475:13
	bl	lv_textarea_del_char
	b	.LBB1_56
.LBB1_42:
.Ltmp122:
	.loc	10 1476 17 is_stmt 1            @ lvgl/src/lv_widgets/lv_textarea.c:1476:17
	ldr	r0, [sp, #28]
.Ltmp123:
	.loc	10 1476 17 is_stmt 0            @ lvgl/src/lv_widgets/lv_textarea.c:1476:17
	cmp	r0, #127
	bne	.LBB1_44
	b	.LBB1_43
.LBB1_43:
.Ltmp124:
	.loc	10 1477 42 is_stmt 1            @ lvgl/src/lv_widgets/lv_textarea.c:1477:42
	ldr	r0, [sp, #64]
	.loc	10 1477 13 is_stmt 0            @ lvgl/src/lv_widgets/lv_textarea.c:1477:13
	bl	lv_textarea_del_char_forward
	b	.LBB1_55
.LBB1_44:
.Ltmp125:
	.loc	10 1478 17 is_stmt 1            @ lvgl/src/lv_widgets/lv_textarea.c:1478:17
	ldr	r0, [sp, #28]
.Ltmp126:
	.loc	10 1478 17 is_stmt 0            @ lvgl/src/lv_widgets/lv_textarea.c:1478:17
	cmp	r0, #2
	bne	.LBB1_46
	b	.LBB1_45
.LBB1_45:
.Ltmp127:
	.loc	10 1479 40 is_stmt 1            @ lvgl/src/lv_widgets/lv_textarea.c:1479:40
	ldr	r0, [sp, #64]
	movs	r1, #0
	.loc	10 1479 13 is_stmt 0            @ lvgl/src/lv_widgets/lv_textarea.c:1479:13
	bl	lv_textarea_set_cursor_pos
	b	.LBB1_54
.LBB1_46:
.Ltmp128:
	.loc	10 1480 17 is_stmt 1            @ lvgl/src/lv_widgets/lv_textarea.c:1480:17
	ldr	r0, [sp, #28]
.Ltmp129:
	.loc	10 1480 17 is_stmt 0            @ lvgl/src/lv_widgets/lv_textarea.c:1480:17
	cmp	r0, #3
	bne	.LBB1_48
	b	.LBB1_47
.LBB1_47:
.Ltmp130:
	.loc	10 1481 40 is_stmt 1            @ lvgl/src/lv_widgets/lv_textarea.c:1481:40
	ldr	r0, [sp, #64]
	movw	r1, #32767
	.loc	10 1481 13 is_stmt 0            @ lvgl/src/lv_widgets/lv_textarea.c:1481:13
	bl	lv_textarea_set_cursor_pos
	b	.LBB1_53
.LBB1_48:
.Ltmp131:
	.loc	10 1482 17 is_stmt 1            @ lvgl/src/lv_widgets/lv_textarea.c:1482:17
	ldr	r0, [sp, #28]
	.loc	10 1482 35 is_stmt 0            @ lvgl/src/lv_widgets/lv_textarea.c:1482:35
	cmp	r0, #10
	bne	.LBB1_51
	b	.LBB1_49
.LBB1_49:
	.loc	10 1482 63                      @ lvgl/src/lv_widgets/lv_textarea.c:1482:63
	ldr	r0, [sp, #64]
	.loc	10 1482 38                      @ lvgl/src/lv_widgets/lv_textarea.c:1482:38
	bl	lv_textarea_get_one_line
.Ltmp132:
	.loc	10 1482 17                      @ lvgl/src/lv_widgets/lv_textarea.c:1482:17
	cbz	r0, .LBB1_51
	b	.LBB1_50
.LBB1_50:
.Ltmp133:
	.loc	10 1483 27 is_stmt 1            @ lvgl/src/lv_widgets/lv_textarea.c:1483:27
	ldr	r0, [sp, #64]
	movs	r1, #19
	movs	r2, #0
	.loc	10 1483 13 is_stmt 0            @ lvgl/src/lv_widgets/lv_textarea.c:1483:13
	bl	lv_event_send
	b	.LBB1_52
.LBB1_51:
.Ltmp134:
	.loc	10 1485 34 is_stmt 1            @ lvgl/src/lv_widgets/lv_textarea.c:1485:34
	ldr	r0, [sp, #64]
	.loc	10 1485 38 is_stmt 0            @ lvgl/src/lv_widgets/lv_textarea.c:1485:38
	ldr	r1, [sp, #28]
	.loc	10 1485 13                      @ lvgl/src/lv_widgets/lv_textarea.c:1485:13
	bl	lv_textarea_add_char
	b	.LBB1_52
.Ltmp135:
.LBB1_52:
	.loc	10 0 13                         @ lvgl/src/lv_widgets/lv_textarea.c:0:13
	b	.LBB1_53
.LBB1_53:
	b	.LBB1_54
.LBB1_54:
	b	.LBB1_55
.LBB1_55:
	b	.LBB1_56
.LBB1_56:
	b	.LBB1_57
.LBB1_57:
	b	.LBB1_58
.LBB1_58:
	b	.LBB1_59
.LBB1_59:
	b	.LBB1_60
.LBB1_60:
	.loc	10 1488 5 is_stmt 1             @ lvgl/src/lv_widgets/lv_textarea.c:1488:5
	b	.LBB1_70
.Ltmp136:
.LBB1_61:
	.loc	10 1489 13                      @ lvgl/src/lv_widgets/lv_textarea.c:1489:13
	ldrb.w	r0, [sp, #63]
.Ltmp137:
	.loc	10 1489 13 is_stmt 0            @ lvgl/src/lv_widgets/lv_textarea.c:1489:13
	cmp	r0, #25
	bne	.LBB1_63
	b	.LBB1_62
.LBB1_62:
.Ltmp138:
	.loc	10 1491 35 is_stmt 1            @ lvgl/src/lv_widgets/lv_textarea.c:1491:35
	ldr	r0, [sp, #56]
	.loc	10 1491 16 is_stmt 0            @ lvgl/src/lv_widgets/lv_textarea.c:1491:16
	str	r0, [sp, #24]
	.loc	10 1492 10 is_stmt 1            @ lvgl/src/lv_widgets/lv_textarea.c:1492:10
	ldr	r1, [sp, #24]
	movs	r0, #1
	.loc	10 1492 25 is_stmt 0            @ lvgl/src/lv_widgets/lv_textarea.c:1492:25
	strb	r0, [r1]
	.loc	10 1494 5 is_stmt 1             @ lvgl/src/lv_widgets/lv_textarea.c:1494:5
	b	.LBB1_69
.Ltmp139:
.LBB1_63:
	.loc	10 1495 13                      @ lvgl/src/lv_widgets/lv_textarea.c:1495:13
	ldrb.w	r0, [sp, #63]
	.loc	10 1495 39 is_stmt 0            @ lvgl/src/lv_widgets/lv_textarea.c:1495:39
	cmp	r0, #11
	beq	.LBB1_67
	b	.LBB1_64
.LBB1_64:
	.loc	10 1495 42                      @ lvgl/src/lv_widgets/lv_textarea.c:1495:42
	ldrb.w	r0, [sp, #63]
	.loc	10 1495 69                      @ lvgl/src/lv_widgets/lv_textarea.c:1495:69
	cmp	r0, #12
	beq	.LBB1_67
	b	.LBB1_65
.LBB1_65:
	.loc	10 1495 72                      @ lvgl/src/lv_widgets/lv_textarea.c:1495:72
	ldrb.w	r0, [sp, #63]
	.loc	10 1495 101                     @ lvgl/src/lv_widgets/lv_textarea.c:1495:101
	cmp	r0, #13
	beq	.LBB1_67
	b	.LBB1_66
.LBB1_66:
	.loc	10 1496 13 is_stmt 1            @ lvgl/src/lv_widgets/lv_textarea.c:1496:13
	ldrb.w	r0, [sp, #63]
.Ltmp140:
	.loc	10 1495 13                      @ lvgl/src/lv_widgets/lv_textarea.c:1495:13
	cmp	r0, #14
	bne	.LBB1_68
	b	.LBB1_67
.LBB1_67:
.Ltmp141:
	.loc	10 1497 41                      @ lvgl/src/lv_widgets/lv_textarea.c:1497:41
	ldr	r0, [sp, #64]
	.loc	10 1497 45 is_stmt 0            @ lvgl/src/lv_widgets/lv_textarea.c:1497:45
	ldrb.w	r1, [sp, #63]
	.loc	10 1497 65                      @ lvgl/src/lv_widgets/lv_textarea.c:1497:65
	ldr	r2, [sp, #56]
	.loc	10 1497 9                       @ lvgl/src/lv_widgets/lv_textarea.c:1497:9
	bl	update_cursor_position_on_click
	.loc	10 1498 5 is_stmt 1             @ lvgl/src/lv_widgets/lv_textarea.c:1498:5
	b	.LBB1_68
.Ltmp142:
.LBB1_68:
	.loc	10 0 5 is_stmt 0                @ lvgl/src/lv_widgets/lv_textarea.c:0:5
	b	.LBB1_69
.LBB1_69:
	b	.LBB1_70
.LBB1_70:
	b	.LBB1_71
.LBB1_71:
	b	.LBB1_72
.LBB1_72:
	b	.LBB1_73
.LBB1_73:
	.loc	10 1499 12 is_stmt 1            @ lvgl/src/lv_widgets/lv_textarea.c:1499:12
	ldrb.w	r0, [sp, #55]
	.loc	10 1499 5 is_stmt 0             @ lvgl/src/lv_widgets/lv_textarea.c:1499:5
	strb.w	r0, [sp, #71]
	b	.LBB1_74
.LBB1_74:
	.loc	10 1500 1 is_stmt 1             @ lvgl/src/lv_widgets/lv_textarea.c:1500:1
	ldrb.w	r0, [sp, #71]
	add	sp, #72
	pop	{r7, pc}
.Ltmp143:
.Lfunc_end1:
	.size	lv_textarea_signal, .Lfunc_end1-lv_textarea_signal
	.cfi_endproc
	.cantunwind
	.fnend
                                        @ -- End function
	.section	.text.lv_textarea_scrollable_signal,"ax",%progbits
	.p2align	3                               @ -- Begin function lv_textarea_scrollable_signal
	.type	lv_textarea_scrollable_signal,%function
	.code	16                              @ @lv_textarea_scrollable_signal
	.thumb_func
lv_textarea_scrollable_signal:
.Lfunc_begin2:
	.loc	10 1510 0                       @ lvgl/src/lv_widgets/lv_textarea.c:1510:0
	.fnstart
	.cfi_startproc
@ %bb.0:
	.save	{r7, lr}
	push	{r7, lr}
	.cfi_def_cfa_offset 8
	.cfi_offset lr, -4
	.cfi_offset r7, -8
	.pad	#64
	sub	sp, #64
	.cfi_def_cfa_offset 72
                                        @ kill: def $r3 killed $r1
	str	r0, [sp, #56]
	strb.w	r1, [sp, #55]
	str	r2, [sp, #48]
.Ltmp144:
	.loc	10 1514 11 prologue_end         @ lvgl/src/lv_widgets/lv_textarea.c:1514:11
	movw	r0, :lower16:scrl_signal
	movt	r0, :upper16:scrl_signal
	ldr	r3, [r0]
	.loc	10 1514 23 is_stmt 0            @ lvgl/src/lv_widgets/lv_textarea.c:1514:23
	ldr	r0, [sp, #56]
	.loc	10 1514 29                      @ lvgl/src/lv_widgets/lv_textarea.c:1514:29
	ldrb.w	r1, [sp, #55]
	.loc	10 1514 35                      @ lvgl/src/lv_widgets/lv_textarea.c:1514:35
	ldr	r2, [sp, #48]
	.loc	10 1514 11                      @ lvgl/src/lv_widgets/lv_textarea.c:1514:11
	blx	r3
	.loc	10 1514 9                       @ lvgl/src/lv_widgets/lv_textarea.c:1514:9
	strb.w	r0, [sp, #47]
.Ltmp145:
	.loc	10 1516 8 is_stmt 1             @ lvgl/src/lv_widgets/lv_textarea.c:1516:8
	ldrb.w	r0, [sp, #47]
.Ltmp146:
	.loc	10 1516 8 is_stmt 0             @ lvgl/src/lv_widgets/lv_textarea.c:1516:8
	cmp	r0, #1
	beq	.LBB2_2
	b	.LBB2_1
.LBB2_1:
.Ltmp147:
	.loc	10 1516 33                      @ lvgl/src/lv_widgets/lv_textarea.c:1516:33
	ldrb.w	r0, [sp, #47]
	.loc	10 1516 26                      @ lvgl/src/lv_widgets/lv_textarea.c:1516:26
	strb.w	r0, [sp, #63]
	b	.LBB2_24
.Ltmp148:
.LBB2_2:
	.loc	10 1517 8 is_stmt 1             @ lvgl/src/lv_widgets/lv_textarea.c:1517:8
	ldrb.w	r0, [sp, #55]
.Ltmp149:
	.loc	10 1517 8 is_stmt 0             @ lvgl/src/lv_widgets/lv_textarea.c:1517:8
	cmp	r0, #7
	bne	.LBB2_4
	b	.LBB2_3
.LBB2_3:
.Ltmp150:
	.loc	10 1517 73                      @ lvgl/src/lv_widgets/lv_textarea.c:1517:73
	ldr	r0, [sp, #48]
	.loc	10 1517 43                      @ lvgl/src/lv_widgets/lv_textarea.c:1517:43
	movw	r1, :lower16:.L.str.3
	movt	r1, :upper16:.L.str.3
	bl	lv_obj_handle_get_type_signal
	.loc	10 1517 36                      @ lvgl/src/lv_widgets/lv_textarea.c:1517:36
	strb.w	r0, [sp, #63]
	b	.LBB2_24
.Ltmp151:
.LBB2_4:
	.loc	10 1519 43 is_stmt 1            @ lvgl/src/lv_widgets/lv_textarea.c:1519:43
	ldr	r0, [sp, #56]
	.loc	10 1519 25 is_stmt 0            @ lvgl/src/lv_widgets/lv_textarea.c:1519:25
	bl	lv_obj_get_parent
	.loc	10 1519 16                      @ lvgl/src/lv_widgets/lv_textarea.c:1519:16
	str	r0, [sp, #40]
	.loc	10 1520 51 is_stmt 1            @ lvgl/src/lv_widgets/lv_textarea.c:1520:51
	ldr	r0, [sp, #40]
	.loc	10 1520 31 is_stmt 0            @ lvgl/src/lv_widgets/lv_textarea.c:1520:31
	bl	lv_obj_get_ext_attr
	.loc	10 1520 25                      @ lvgl/src/lv_widgets/lv_textarea.c:1520:25
	str	r0, [sp, #36]
.Ltmp152:
	.loc	10 1522 8 is_stmt 1             @ lvgl/src/lv_widgets/lv_textarea.c:1522:8
	ldrb.w	r0, [sp, #55]
.Ltmp153:
	.loc	10 1522 8 is_stmt 0             @ lvgl/src/lv_widgets/lv_textarea.c:1522:8
	cmp	r0, #6
	bne	.LBB2_9
	b	.LBB2_5
.LBB2_5:
.Ltmp154:
	.loc	10 1524 70 is_stmt 1            @ lvgl/src/lv_widgets/lv_textarea.c:1524:70
	ldr	r0, [sp, #40]
	movs	r1, #0
	.loc	10 1524 37 is_stmt 0            @ lvgl/src/lv_widgets/lv_textarea.c:1524:37
	str	r1, [sp, #20]                   @ 4-byte Spill
	bl	lv_obj_get_style_text_line_space
	ldr	r1, [sp, #20]                   @ 4-byte Reload
	.loc	10 1524 24                      @ lvgl/src/lv_widgets/lv_textarea.c:1524:24
	strh.w	r0, [sp, #34]
	.loc	10 1525 61 is_stmt 1            @ lvgl/src/lv_widgets/lv_textarea.c:1525:61
	ldr	r0, [sp, #40]
	.loc	10 1525 34 is_stmt 0            @ lvgl/src/lv_widgets/lv_textarea.c:1525:34
	bl	lv_obj_get_style_text_font
	.loc	10 1525 27                      @ lvgl/src/lv_widgets/lv_textarea.c:1525:27
	str	r0, [sp, #28]
	.loc	10 1526 66 is_stmt 1            @ lvgl/src/lv_widgets/lv_textarea.c:1526:66
	ldr	r0, [sp, #28]
	.loc	10 1526 42 is_stmt 0            @ lvgl/src/lv_widgets/lv_textarea.c:1526:42
	bl	lv_font_get_line_height
	.loc	10 1526 20                      @ lvgl/src/lv_widgets/lv_textarea.c:1526:20
	strh.w	r0, [sp, #26]
	.loc	10 1527 42 is_stmt 1            @ lvgl/src/lv_widgets/lv_textarea.c:1527:42
	ldr	r0, [sp, #56]
	ldrsh.w	r0, [r0, #50]
	ldrsh.w	r1, [sp, #34]
	ldrsh.w	r2, [sp, #26]
	add	r1, r2
	cmp	r0, r1
	ble	.LBB2_7
	b	.LBB2_6
.LBB2_6:
	ldr	r0, [sp, #56]
	ldrsh.w	r0, [r0, #50]
	str	r0, [sp, #16]                   @ 4-byte Spill
	b	.LBB2_8
.LBB2_7:
	ldrsh.w	r0, [sp, #34]
	ldrsh.w	r1, [sp, #26]
	add	r0, r1
	str	r0, [sp, #16]                   @ 4-byte Spill
	b	.LBB2_8
.LBB2_8:
	ldr	r0, [sp, #16]                   @ 4-byte Reload
	.loc	10 1527 9 is_stmt 0             @ lvgl/src/lv_widgets/lv_textarea.c:1527:9
	ldr	r1, [sp, #56]
	.loc	10 1527 40                      @ lvgl/src/lv_widgets/lv_textarea.c:1527:40
	strh	r0, [r1, #50]
	.loc	10 1528 5 is_stmt 1             @ lvgl/src/lv_widgets/lv_textarea.c:1528:5
	b	.LBB2_23
.Ltmp155:
.LBB2_9:
	.loc	10 1529 13                      @ lvgl/src/lv_widgets/lv_textarea.c:1529:13
	ldrb.w	r0, [sp, #55]
.Ltmp156:
	.loc	10 1529 13 is_stmt 0            @ lvgl/src/lv_widgets/lv_textarea.c:1529:13
	cmp	r0, #2
	bne	.LBB2_16
	b	.LBB2_10
.LBB2_10:
.Ltmp157:
	.loc	10 1531 12 is_stmt 1            @ lvgl/src/lv_widgets/lv_textarea.c:1531:12
	ldr	r0, [sp, #36]
	.loc	10 1531 17 is_stmt 0            @ lvgl/src/lv_widgets/lv_textarea.c:1531:17
	ldr	r0, [r0, #64]
.Ltmp158:
	.loc	10 1531 12                      @ lvgl/src/lv_widgets/lv_textarea.c:1531:12
	cbz	r0, .LBB2_15
	b	.LBB2_11
.LBB2_11:
.Ltmp159:
	.loc	10 1532 33 is_stmt 1            @ lvgl/src/lv_widgets/lv_textarea.c:1532:33
	ldr	r0, [sp, #56]
	.loc	10 1532 16 is_stmt 0            @ lvgl/src/lv_widgets/lv_textarea.c:1532:16
	bl	lv_obj_get_width
	.loc	10 1532 60                      @ lvgl/src/lv_widgets/lv_textarea.c:1532:60
	str	r0, [sp, #12]                   @ 4-byte Spill
	ldr	r0, [sp, #48]
	.loc	10 1532 42                      @ lvgl/src/lv_widgets/lv_textarea.c:1532:42
	bl	lv_area_get_width
	mov	r1, r0
	.loc	10 1532 67                      @ lvgl/src/lv_widgets/lv_textarea.c:1532:67
	ldr	r0, [sp, #12]                   @ 4-byte Reload
	cmp	r0, r1
	bne	.LBB2_13
	b	.LBB2_12
.LBB2_12:
	.loc	10 1533 34 is_stmt 1            @ lvgl/src/lv_widgets/lv_textarea.c:1533:34
	ldr	r0, [sp, #56]
	.loc	10 1533 16 is_stmt 0            @ lvgl/src/lv_widgets/lv_textarea.c:1533:16
	bl	lv_obj_get_height
	.loc	10 1533 62                      @ lvgl/src/lv_widgets/lv_textarea.c:1533:62
	str	r0, [sp, #8]                    @ 4-byte Spill
	ldr	r0, [sp, #48]
	.loc	10 1533 43                      @ lvgl/src/lv_widgets/lv_textarea.c:1533:43
	bl	lv_area_get_height
	mov	r1, r0
.Ltmp160:
	.loc	10 1532 16 is_stmt 1            @ lvgl/src/lv_widgets/lv_textarea.c:1532:16
	ldr	r0, [sp, #8]                    @ 4-byte Reload
	cmp	r0, r1
	beq	.LBB2_14
	b	.LBB2_13
.LBB2_13:
.Ltmp161:
	.loc	10 1535 34                      @ lvgl/src/lv_widgets/lv_textarea.c:1535:34
	ldr	r0, [sp, #36]
	.loc	10 1535 39 is_stmt 0            @ lvgl/src/lv_widgets/lv_textarea.c:1535:39
	ldr	r0, [r0, #64]
	.loc	10 1535 68                      @ lvgl/src/lv_widgets/lv_textarea.c:1535:68
	str	r0, [sp]                        @ 4-byte Spill
	ldr	r0, [sp, #40]
	.loc	10 1535 46                      @ lvgl/src/lv_widgets/lv_textarea.c:1535:46
	bl	lv_page_get_width_fit
	mov	r1, r0
	.loc	10 1535 17                      @ lvgl/src/lv_widgets/lv_textarea.c:1535:17
	ldr	r0, [sp]                        @ 4-byte Reload
	bl	lv_obj_set_width
	.loc	10 1536 32 is_stmt 1            @ lvgl/src/lv_widgets/lv_textarea.c:1536:32
	ldr	r0, [sp, #36]
	.loc	10 1536 37 is_stmt 0            @ lvgl/src/lv_widgets/lv_textarea.c:1536:37
	ldr	r0, [r0, #64]
	movs	r2, #0
	.loc	10 1536 17                      @ lvgl/src/lv_widgets/lv_textarea.c:1536:17
	str	r2, [sp, #4]                    @ 4-byte Spill
	mov	r1, r2
	bl	lv_obj_set_pos
	ldr	r1, [sp, #4]                    @ 4-byte Reload
	.loc	10 1538 35 is_stmt 1            @ lvgl/src/lv_widgets/lv_textarea.c:1538:35
	ldr	r0, [sp, #36]
	.loc	10 1538 40 is_stmt 0            @ lvgl/src/lv_widgets/lv_textarea.c:1538:40
	ldr	r0, [r0, #64]
	.loc	10 1538 17                      @ lvgl/src/lv_widgets/lv_textarea.c:1538:17
	bl	lv_label_set_text
	.loc	10 1539 34 is_stmt 1            @ lvgl/src/lv_widgets/lv_textarea.c:1539:34
	ldr	r0, [sp, #40]
	.loc	10 1539 17 is_stmt 0            @ lvgl/src/lv_widgets/lv_textarea.c:1539:17
	bl	refr_cursor_area
	.loc	10 1540 13 is_stmt 1            @ lvgl/src/lv_widgets/lv_textarea.c:1540:13
	b	.LBB2_14
.Ltmp162:
.LBB2_14:
	.loc	10 1542 9                       @ lvgl/src/lv_widgets/lv_textarea.c:1542:9
	b	.LBB2_15
.Ltmp163:
.LBB2_15:
	.loc	10 1544 5                       @ lvgl/src/lv_widgets/lv_textarea.c:1544:5
	b	.LBB2_22
.Ltmp164:
.LBB2_16:
	.loc	10 1545 13                      @ lvgl/src/lv_widgets/lv_textarea.c:1545:13
	ldrb.w	r0, [sp, #55]
	.loc	10 1545 40 is_stmt 0            @ lvgl/src/lv_widgets/lv_textarea.c:1545:40
	cmp	r0, #12
	beq	.LBB2_20
	b	.LBB2_17
.LBB2_17:
	.loc	10 1545 43                      @ lvgl/src/lv_widgets/lv_textarea.c:1545:43
	ldrb.w	r0, [sp, #55]
	.loc	10 1545 69                      @ lvgl/src/lv_widgets/lv_textarea.c:1545:69
	cmp	r0, #11
	beq	.LBB2_20
	b	.LBB2_18
.LBB2_18:
	.loc	10 1545 72                      @ lvgl/src/lv_widgets/lv_textarea.c:1545:72
	ldrb.w	r0, [sp, #55]
	.loc	10 1545 101                     @ lvgl/src/lv_widgets/lv_textarea.c:1545:101
	cmp	r0, #13
	beq	.LBB2_20
	b	.LBB2_19
.LBB2_19:
	.loc	10 1546 13 is_stmt 1            @ lvgl/src/lv_widgets/lv_textarea.c:1546:13
	ldrb.w	r0, [sp, #55]
.Ltmp165:
	.loc	10 1545 13                      @ lvgl/src/lv_widgets/lv_textarea.c:1545:13
	cmp	r0, #14
	bne	.LBB2_21
	b	.LBB2_20
.LBB2_20:
.Ltmp166:
	.loc	10 1547 41                      @ lvgl/src/lv_widgets/lv_textarea.c:1547:41
	ldr	r0, [sp, #40]
	.loc	10 1547 45 is_stmt 0            @ lvgl/src/lv_widgets/lv_textarea.c:1547:45
	ldrb.w	r1, [sp, #55]
	.loc	10 1547 65                      @ lvgl/src/lv_widgets/lv_textarea.c:1547:65
	ldr	r2, [sp, #48]
	.loc	10 1547 9                       @ lvgl/src/lv_widgets/lv_textarea.c:1547:9
	bl	update_cursor_position_on_click
	.loc	10 1548 5 is_stmt 1             @ lvgl/src/lv_widgets/lv_textarea.c:1548:5
	b	.LBB2_21
.Ltmp167:
.LBB2_21:
	.loc	10 0 5 is_stmt 0                @ lvgl/src/lv_widgets/lv_textarea.c:0:5
	b	.LBB2_22
.LBB2_22:
	b	.LBB2_23
.LBB2_23:
	.loc	10 1550 12 is_stmt 1            @ lvgl/src/lv_widgets/lv_textarea.c:1550:12
	ldrb.w	r0, [sp, #47]
	.loc	10 1550 5 is_stmt 0             @ lvgl/src/lv_widgets/lv_textarea.c:1550:5
	strb.w	r0, [sp, #63]
	b	.LBB2_24
.LBB2_24:
	.loc	10 1551 1 is_stmt 1             @ lvgl/src/lv_widgets/lv_textarea.c:1551:1
	ldrb.w	r0, [sp, #63]
	add	sp, #64
	pop	{r7, pc}
.Ltmp168:
.Lfunc_end2:
	.size	lv_textarea_scrollable_signal, .Lfunc_end2-lv_textarea_scrollable_signal
	.cfi_endproc
	.cantunwind
	.fnend
                                        @ -- End function
	.section	.text.lv_textarea_design,"ax",%progbits
	.p2align	3                               @ -- Begin function lv_textarea_design
	.type	lv_textarea_design,%function
	.code	16                              @ @lv_textarea_design
	.thumb_func
lv_textarea_design:
.Lfunc_begin3:
	.loc	10 1285 0                       @ lvgl/src/lv_widgets/lv_textarea.c:1285:0
	.fnstart
	.cfi_startproc
@ %bb.0:
	.save	{r7, lr}
	push	{r7, lr}
	.cfi_def_cfa_offset 8
	.cfi_offset lr, -4
	.cfi_offset r7, -8
	.pad	#16
	sub	sp, #16
	.cfi_def_cfa_offset 24
                                        @ kill: def $r3 killed $r2
	str	r0, [sp, #8]
	str	r1, [sp, #4]
	strb.w	r2, [sp, #3]
.Ltmp169:
	.loc	10 1286 8 prologue_end          @ lvgl/src/lv_widgets/lv_textarea.c:1286:8
	ldrb.w	r0, [sp, #3]
.Ltmp170:
	.loc	10 1286 8 is_stmt 0             @ lvgl/src/lv_widgets/lv_textarea.c:1286:8
	cmp	r0, #2
	bne	.LBB3_2
	b	.LBB3_1
.LBB3_1:
.Ltmp171:
	.loc	10 1288 16 is_stmt 1            @ lvgl/src/lv_widgets/lv_textarea.c:1288:16
	movw	r0, :lower16:ancestor_design
	movt	r0, :upper16:ancestor_design
	ldr	r3, [r0]
	.loc	10 1288 32 is_stmt 0            @ lvgl/src/lv_widgets/lv_textarea.c:1288:32
	ldr	r0, [sp, #8]
	.loc	10 1288 36                      @ lvgl/src/lv_widgets/lv_textarea.c:1288:36
	ldr	r1, [sp, #4]
	.loc	10 1288 47                      @ lvgl/src/lv_widgets/lv_textarea.c:1288:47
	ldrb.w	r2, [sp, #3]
	.loc	10 1288 16                      @ lvgl/src/lv_widgets/lv_textarea.c:1288:16
	blx	r3
	.loc	10 1288 9                       @ lvgl/src/lv_widgets/lv_textarea.c:1288:9
	strb.w	r0, [sp, #15]
	b	.LBB3_9
.Ltmp172:
.LBB3_2:
	.loc	10 1290 13 is_stmt 1            @ lvgl/src/lv_widgets/lv_textarea.c:1290:13
	ldrb.w	r0, [sp, #3]
.Ltmp173:
	.loc	10 1290 13 is_stmt 0            @ lvgl/src/lv_widgets/lv_textarea.c:1290:13
	cbnz	r0, .LBB3_4
	b	.LBB3_3
.LBB3_3:
.Ltmp174:
	.loc	10 1292 9 is_stmt 1             @ lvgl/src/lv_widgets/lv_textarea.c:1292:9
	movw	r0, :lower16:ancestor_design
	movt	r0, :upper16:ancestor_design
	ldr	r3, [r0]
	.loc	10 1292 25 is_stmt 0            @ lvgl/src/lv_widgets/lv_textarea.c:1292:25
	ldr	r0, [sp, #8]
	.loc	10 1292 29                      @ lvgl/src/lv_widgets/lv_textarea.c:1292:29
	ldr	r1, [sp, #4]
	.loc	10 1292 40                      @ lvgl/src/lv_widgets/lv_textarea.c:1292:40
	ldrb.w	r2, [sp, #3]
	.loc	10 1292 9                       @ lvgl/src/lv_widgets/lv_textarea.c:1292:9
	blx	r3
	.loc	10 1294 5 is_stmt 1             @ lvgl/src/lv_widgets/lv_textarea.c:1294:5
	b	.LBB3_7
.Ltmp175:
.LBB3_4:
	.loc	10 1295 13                      @ lvgl/src/lv_widgets/lv_textarea.c:1295:13
	ldrb.w	r0, [sp, #3]
.Ltmp176:
	.loc	10 1295 13 is_stmt 0            @ lvgl/src/lv_widgets/lv_textarea.c:1295:13
	cmp	r0, #1
	bne	.LBB3_6
	b	.LBB3_5
.LBB3_5:
.Ltmp177:
	.loc	10 1296 9 is_stmt 1             @ lvgl/src/lv_widgets/lv_textarea.c:1296:9
	movw	r0, :lower16:ancestor_design
	movt	r0, :upper16:ancestor_design
	ldr	r3, [r0]
	.loc	10 1296 25 is_stmt 0            @ lvgl/src/lv_widgets/lv_textarea.c:1296:25
	ldr	r0, [sp, #8]
	.loc	10 1296 29                      @ lvgl/src/lv_widgets/lv_textarea.c:1296:29
	ldr	r1, [sp, #4]
	.loc	10 1296 40                      @ lvgl/src/lv_widgets/lv_textarea.c:1296:40
	ldrb.w	r2, [sp, #3]
	.loc	10 1296 9                       @ lvgl/src/lv_widgets/lv_textarea.c:1296:9
	blx	r3
	.loc	10 1297 5 is_stmt 1             @ lvgl/src/lv_widgets/lv_textarea.c:1297:5
	b	.LBB3_6
.Ltmp178:
.LBB3_6:
	.loc	10 0 5 is_stmt 0                @ lvgl/src/lv_widgets/lv_textarea.c:0:5
	b	.LBB3_7
.LBB3_7:
	b	.LBB3_8
.LBB3_8:
	movs	r0, #0
	.loc	10 1298 5 is_stmt 1             @ lvgl/src/lv_widgets/lv_textarea.c:1298:5
	strb.w	r0, [sp, #15]
	b	.LBB3_9
.LBB3_9:
	.loc	10 1299 1                       @ lvgl/src/lv_widgets/lv_textarea.c:1299:1
	ldrb.w	r0, [sp, #15]
	add	sp, #16
	pop	{r7, pc}
.Ltmp179:
.Lfunc_end3:
	.size	lv_textarea_design, .Lfunc_end3-lv_textarea_design
	.cfi_endproc
	.cantunwind
	.fnend
                                        @ -- End function
	.section	.text.lv_page_set_scrollable_fit2,"ax",%progbits
	.p2align	3                               @ -- Begin function lv_page_set_scrollable_fit2
	.type	lv_page_set_scrollable_fit2,%function
	.code	16                              @ @lv_page_set_scrollable_fit2
	.thumb_func
lv_page_set_scrollable_fit2:
.Lfunc_begin4:
	.loc	13 187 0                        @ lvgl/src/lv_widgets/lv_page.h:187:0
	.fnstart
	.cfi_startproc
@ %bb.0:
	.save	{r7, lr}
	push	{r7, lr}
	.cfi_def_cfa_offset 8
	.cfi_offset lr, -4
	.cfi_offset r7, -8
	.pad	#8
	sub	sp, #8
	.cfi_def_cfa_offset 16
                                        @ kill: def $r3 killed $r2
                                        @ kill: def $r3 killed $r1
	str	r0, [sp, #4]
	strb.w	r1, [sp, #3]
	strb.w	r2, [sp, #2]
.Ltmp180:
	.loc	13 188 45 prologue_end          @ lvgl/src/lv_widgets/lv_page.h:188:45
	ldr	r0, [sp, #4]
	.loc	13 188 22 is_stmt 0             @ lvgl/src/lv_widgets/lv_page.h:188:22
	bl	lv_page_get_scrollable
	.loc	13 188 52                       @ lvgl/src/lv_widgets/lv_page.h:188:52
	ldrb.w	r1, [sp, #3]
	.loc	13 188 57                       @ lvgl/src/lv_widgets/lv_page.h:188:57
	ldrb.w	r2, [sp, #2]
	.loc	13 188 5                        @ lvgl/src/lv_widgets/lv_page.h:188:5
	bl	lv_cont_set_fit2
	.loc	13 189 1 is_stmt 1              @ lvgl/src/lv_widgets/lv_page.h:189:1
	add	sp, #8
	pop	{r7, pc}
.Ltmp181:
.Lfunc_end4:
	.size	lv_page_set_scrollable_fit2, .Lfunc_end4-lv_page_set_scrollable_fit2
	.cfi_endproc
	.cantunwind
	.fnend
                                        @ -- End function
	.section	.text.lv_textarea_scrollable_design,"ax",%progbits
	.p2align	3                               @ -- Begin function lv_textarea_scrollable_design
	.type	lv_textarea_scrollable_design,%function
	.code	16                              @ @lv_textarea_scrollable_design
	.thumb_func
lv_textarea_scrollable_design:
.Lfunc_begin5:
	.loc	10 1313 0                       @ lvgl/src/lv_widgets/lv_textarea.c:1313:0
	.fnstart
	.cfi_startproc
@ %bb.0:
	.save	{r7, lr}
	push	{r7, lr}
	.cfi_def_cfa_offset 8
	.cfi_offset lr, -4
	.cfi_offset r7, -8
	.pad	#264
	sub	sp, #264
	.cfi_def_cfa_offset 272
                                        @ kill: def $r3 killed $r2
	str	r0, [sp, #256]
	str	r1, [sp, #252]
	strb.w	r2, [sp, #251]
.Ltmp182:
	.loc	10 1314 8 prologue_end          @ lvgl/src/lv_widgets/lv_textarea.c:1314:8
	ldrb.w	r0, [sp, #251]
.Ltmp183:
	.loc	10 1314 8 is_stmt 0             @ lvgl/src/lv_widgets/lv_textarea.c:1314:8
	cmp	r0, #2
	bne	.LBB5_2
	b	.LBB5_1
.LBB5_1:
.Ltmp184:
	.loc	10 1316 16 is_stmt 1            @ lvgl/src/lv_widgets/lv_textarea.c:1316:16
	movw	r0, :lower16:scrl_design
	movt	r0, :upper16:scrl_design
	ldr	r3, [r0]
	.loc	10 1316 28 is_stmt 0            @ lvgl/src/lv_widgets/lv_textarea.c:1316:28
	ldr	r0, [sp, #256]
	.loc	10 1316 34                      @ lvgl/src/lv_widgets/lv_textarea.c:1316:34
	ldr	r1, [sp, #252]
	.loc	10 1316 45                      @ lvgl/src/lv_widgets/lv_textarea.c:1316:45
	ldrb.w	r2, [sp, #251]
	.loc	10 1316 16                      @ lvgl/src/lv_widgets/lv_textarea.c:1316:16
	blx	r3
	.loc	10 1316 9                       @ lvgl/src/lv_widgets/lv_textarea.c:1316:9
	strb.w	r0, [sp, #263]
	b	.LBB5_25
.Ltmp185:
.LBB5_2:
	.loc	10 1318 13 is_stmt 1            @ lvgl/src/lv_widgets/lv_textarea.c:1318:13
	ldrb.w	r0, [sp, #251]
.Ltmp186:
	.loc	10 1318 13 is_stmt 0            @ lvgl/src/lv_widgets/lv_textarea.c:1318:13
	cbnz	r0, .LBB5_4
	b	.LBB5_3
.LBB5_3:
.Ltmp187:
	.loc	10 1320 9 is_stmt 1             @ lvgl/src/lv_widgets/lv_textarea.c:1320:9
	movw	r0, :lower16:scrl_design
	movt	r0, :upper16:scrl_design
	ldr	r3, [r0]
	.loc	10 1320 21 is_stmt 0            @ lvgl/src/lv_widgets/lv_textarea.c:1320:21
	ldr	r0, [sp, #256]
	.loc	10 1320 27                      @ lvgl/src/lv_widgets/lv_textarea.c:1320:27
	ldr	r1, [sp, #252]
	.loc	10 1320 38                      @ lvgl/src/lv_widgets/lv_textarea.c:1320:38
	ldrb.w	r2, [sp, #251]
	.loc	10 1320 9                       @ lvgl/src/lv_widgets/lv_textarea.c:1320:9
	blx	r3
	.loc	10 1321 5 is_stmt 1             @ lvgl/src/lv_widgets/lv_textarea.c:1321:5
	b	.LBB5_23
.Ltmp188:
.LBB5_4:
	.loc	10 1322 13                      @ lvgl/src/lv_widgets/lv_textarea.c:1322:13
	ldrb.w	r0, [sp, #251]
.Ltmp189:
	.loc	10 1322 13 is_stmt 0            @ lvgl/src/lv_widgets/lv_textarea.c:1322:13
	cmp	r0, #1
	bne.w	.LBB5_22
	b	.LBB5_5
.LBB5_5:
.Ltmp190:
	.loc	10 1323 9 is_stmt 1             @ lvgl/src/lv_widgets/lv_textarea.c:1323:9
	movw	r0, :lower16:scrl_design
	movt	r0, :upper16:scrl_design
	ldr	r3, [r0]
	.loc	10 1323 21 is_stmt 0            @ lvgl/src/lv_widgets/lv_textarea.c:1323:21
	ldr	r0, [sp, #256]
	.loc	10 1323 27                      @ lvgl/src/lv_widgets/lv_textarea.c:1323:27
	ldr	r1, [sp, #252]
	.loc	10 1323 38                      @ lvgl/src/lv_widgets/lv_textarea.c:1323:38
	ldrb.w	r2, [sp, #251]
	.loc	10 1323 9                       @ lvgl/src/lv_widgets/lv_textarea.c:1323:9
	blx	r3
	.loc	10 1325 47 is_stmt 1            @ lvgl/src/lv_widgets/lv_textarea.c:1325:47
	ldr	r0, [sp, #256]
	.loc	10 1325 29 is_stmt 0            @ lvgl/src/lv_widgets/lv_textarea.c:1325:29
	bl	lv_obj_get_parent
	.loc	10 1325 20                      @ lvgl/src/lv_widgets/lv_textarea.c:1325:20
	str	r0, [sp, #244]
	.loc	10 1326 55 is_stmt 1            @ lvgl/src/lv_widgets/lv_textarea.c:1326:55
	ldr	r0, [sp, #244]
	.loc	10 1326 35 is_stmt 0            @ lvgl/src/lv_widgets/lv_textarea.c:1326:35
	bl	lv_obj_get_ext_attr
	.loc	10 1326 29                      @ lvgl/src/lv_widgets/lv_textarea.c:1326:29
	str	r0, [sp, #240]
	.loc	10 1327 46 is_stmt 1            @ lvgl/src/lv_widgets/lv_textarea.c:1327:46
	ldr	r0, [sp, #240]
	.loc	10 1327 51 is_stmt 0            @ lvgl/src/lv_widgets/lv_textarea.c:1327:51
	ldr	r0, [r0, #64]
	.loc	10 1327 28                      @ lvgl/src/lv_widgets/lv_textarea.c:1327:28
	bl	lv_label_get_text
	.loc	10 1327 22                      @ lvgl/src/lv_widgets/lv_textarea.c:1327:22
	str	r0, [sp, #236]
.Ltmp191:
	.loc	10 1330 12 is_stmt 1            @ lvgl/src/lv_widgets/lv_textarea.c:1330:12
	ldr	r0, [sp, #236]
	ldrsb.w	r0, [r0]
	.loc	10 1330 27 is_stmt 0            @ lvgl/src/lv_widgets/lv_textarea.c:1330:27
	cmp	r0, #0
	bne	.LBB5_16
	b	.LBB5_6
.LBB5_6:
	.loc	10 1330 30                      @ lvgl/src/lv_widgets/lv_textarea.c:1330:30
	ldr	r0, [sp, #240]
	.loc	10 1330 35                      @ lvgl/src/lv_widgets/lv_textarea.c:1330:35
	ldr	r0, [r0, #68]
	.loc	10 1330 51                      @ lvgl/src/lv_widgets/lv_textarea.c:1330:51
	cmp	r0, #0
	beq	.LBB5_16
	b	.LBB5_7
.LBB5_7:
	.loc	10 1330 54                      @ lvgl/src/lv_widgets/lv_textarea.c:1330:54
	ldr	r0, [sp, #240]
	.loc	10 1330 59                      @ lvgl/src/lv_widgets/lv_textarea.c:1330:59
	ldr	r0, [r0, #68]
	.loc	10 1330 54                      @ lvgl/src/lv_widgets/lv_textarea.c:1330:54
	ldrsb.w	r0, [r0]
.Ltmp192:
	.loc	10 1330 12                      @ lvgl/src/lv_widgets/lv_textarea.c:1330:12
	cmp	r0, #0
	beq	.LBB5_16
	b	.LBB5_8
.LBB5_8:
	.loc	10 0 12                         @ lvgl/src/lv_widgets/lv_textarea.c:0:12
	add	r0, sp, #196
.Ltmp193:
	.loc	10 1332 13 is_stmt 1            @ lvgl/src/lv_widgets/lv_textarea.c:1332:13
	str	r0, [sp, #24]                   @ 4-byte Spill
	bl	lv_draw_label_dsc_init
	ldr	r2, [sp, #24]                   @ 4-byte Reload
	.loc	10 1333 40                      @ lvgl/src/lv_widgets/lv_textarea.c:1333:40
	ldr	r0, [sp, #244]
	movs	r1, #4
	.loc	10 1333 13 is_stmt 0            @ lvgl/src/lv_widgets/lv_textarea.c:1333:13
	bl	lv_obj_init_draw_label_dsc
	.loc	10 1334 39 is_stmt 1            @ lvgl/src/lv_widgets/lv_textarea.c:1334:39
	ldr	r0, [sp, #240]
	.loc	10 1334 44 is_stmt 0            @ lvgl/src/lv_widgets/lv_textarea.c:1334:44
	ldr	r0, [r0, #64]
	.loc	10 1334 20                      @ lvgl/src/lv_widgets/lv_textarea.c:1334:20
	bl	lv_label_get_align
	.loc	10 1334 13                      @ lvgl/src/lv_widgets/lv_textarea.c:1334:13
	mov	r1, r0
	str	r1, [sp, #28]                   @ 4-byte Spill
	cmp	r0, #1
	beq	.LBB5_10
	b	.LBB5_9
.LBB5_9:
	ldr	r0, [sp, #28]                   @ 4-byte Reload
	cmp	r0, #2
	beq	.LBB5_11
	b	.LBB5_12
.LBB5_10:
.Ltmp194:
	.loc	10 1336 33 is_stmt 1            @ lvgl/src/lv_widgets/lv_textarea.c:1336:33
	ldrb.w	r0, [sp, #233]
	orr	r0, r0, #4
	strb.w	r0, [sp, #233]
	.loc	10 1337 21                      @ lvgl/src/lv_widgets/lv_textarea.c:1337:21
	b	.LBB5_13
.LBB5_11:
	.loc	10 1339 33                      @ lvgl/src/lv_widgets/lv_textarea.c:1339:33
	ldrb.w	r0, [sp, #233]
	orr	r0, r0, #8
	strb.w	r0, [sp, #233]
	.loc	10 1340 21                      @ lvgl/src/lv_widgets/lv_textarea.c:1340:21
	b	.LBB5_13
.LBB5_12:
	.loc	10 1342 21                      @ lvgl/src/lv_widgets/lv_textarea.c:1342:21
	b	.LBB5_13
.Ltmp195:
.LBB5_13:
	.loc	10 1345 16                      @ lvgl/src/lv_widgets/lv_textarea.c:1345:16
	ldr	r0, [sp, #240]
	.loc	10 1345 21 is_stmt 0            @ lvgl/src/lv_widgets/lv_textarea.c:1345:21
	ldrb.w	r0, [r0, #132]
	lsrs	r0, r0, #1
.Ltmp196:
	.loc	10 1345 16                      @ lvgl/src/lv_widgets/lv_textarea.c:1345:16
	lsls	r0, r0, #31
	cbz	r0, .LBB5_15
	b	.LBB5_14
.LBB5_14:
.Ltmp197:
	.loc	10 1345 43                      @ lvgl/src/lv_widgets/lv_textarea.c:1345:43
	ldrb.w	r0, [sp, #233]
	orr	r0, r0, #2
	strb.w	r0, [sp, #233]
	.loc	10 1345 31                      @ lvgl/src/lv_widgets/lv_textarea.c:1345:31
	b	.LBB5_15
.Ltmp198:
.LBB5_15:
	.loc	10 1347 28 is_stmt 1            @ lvgl/src/lv_widgets/lv_textarea.c:1347:28
	ldr	r0, [sp, #256]
	.loc	10 1347 34 is_stmt 0            @ lvgl/src/lv_widgets/lv_textarea.c:1347:34
	adds	r0, #16
	.loc	10 1347 42                      @ lvgl/src/lv_widgets/lv_textarea.c:1347:42
	ldr	r1, [sp, #252]
	.loc	10 1347 62                      @ lvgl/src/lv_widgets/lv_textarea.c:1347:62
	ldr	r2, [sp, #240]
	.loc	10 1347 67                      @ lvgl/src/lv_widgets/lv_textarea.c:1347:67
	ldr	r3, [r2, #68]
	.loc	10 1347 13                      @ lvgl/src/lv_widgets/lv_textarea.c:1347:13
	mov	r12, sp
	movs	r2, #0
	str.w	r2, [r12]
	add	r2, sp, #196
	bl	lv_draw_label
	.loc	10 1348 9 is_stmt 1             @ lvgl/src/lv_widgets/lv_textarea.c:1348:9
	b	.LBB5_16
.Ltmp199:
.LBB5_16:
	.loc	10 1352 12                      @ lvgl/src/lv_widgets/lv_textarea.c:1352:12
	ldr	r0, [sp, #240]
	.loc	10 1352 24 is_stmt 0            @ lvgl/src/lv_widgets/lv_textarea.c:1352:24
	ldrb.w	r0, [r0, #128]
	lsrs	r0, r0, #1
	.loc	10 1352 31                      @ lvgl/src/lv_widgets/lv_textarea.c:1352:31
	lsls	r0, r0, #31
	cbnz	r0, .LBB5_18
	b	.LBB5_17
.LBB5_17:
	.loc	10 1352 34                      @ lvgl/src/lv_widgets/lv_textarea.c:1352:34
	ldr	r0, [sp, #240]
	.loc	10 1352 46                      @ lvgl/src/lv_widgets/lv_textarea.c:1352:46
	ldrb.w	r0, [r0, #128]
.Ltmp200:
	.loc	10 1352 12                      @ lvgl/src/lv_widgets/lv_textarea.c:1352:12
	lsls	r0, r0, #31
	cbnz	r0, .LBB5_19
	b	.LBB5_18
.LBB5_18:
	.loc	10 0 12                         @ lvgl/src/lv_widgets/lv_textarea.c:0:12
	movs	r0, #0
.Ltmp201:
	.loc	10 1353 13 is_stmt 1            @ lvgl/src/lv_widgets/lv_textarea.c:1353:13
	strb.w	r0, [sp, #263]
	b	.LBB5_25
.Ltmp202:
.LBB5_19:
	.loc	10 0 13 is_stmt 0               @ lvgl/src/lv_widgets/lv_textarea.c:0:13
	add	r0, sp, #92
	.loc	10 1357 9 is_stmt 1             @ lvgl/src/lv_widgets/lv_textarea.c:1357:9
	str	r0, [sp, #16]                   @ 4-byte Spill
	bl	lv_draw_rect_dsc_init
	ldr	r2, [sp, #16]                   @ 4-byte Reload
	.loc	10 1358 35                      @ lvgl/src/lv_widgets/lv_textarea.c:1358:35
	ldr	r0, [sp, #244]
	movs	r1, #3
	.loc	10 1358 9 is_stmt 0             @ lvgl/src/lv_widgets/lv_textarea.c:1358:9
	bl	lv_obj_init_draw_rect_dsc
	.loc	10 1362 34 is_stmt 1            @ lvgl/src/lv_widgets/lv_textarea.c:1362:34
	ldr	r0, [sp, #240]
	.loc	10 1362 46 is_stmt 0            @ lvgl/src/lv_widgets/lv_textarea.c:1362:46
	add.w	r1, r0, #114
	add	r0, sp, #84
	.loc	10 1362 9                       @ lvgl/src/lv_widgets/lv_textarea.c:1362:9
	str	r0, [sp, #12]                   @ 4-byte Spill
	bl	lv_area_copy
	ldr	r0, [sp, #12]                   @ 4-byte Reload
	ldr	r2, [sp, #16]                   @ 4-byte Reload
	.loc	10 1364 24 is_stmt 1            @ lvgl/src/lv_widgets/lv_textarea.c:1364:24
	ldr	r1, [sp, #240]
	.loc	10 1364 29 is_stmt 0            @ lvgl/src/lv_widgets/lv_textarea.c:1364:29
	ldr	r1, [r1, #64]
	.loc	10 1364 24                      @ lvgl/src/lv_widgets/lv_textarea.c:1364:24
	ldrh	r3, [r1, #16]
	.loc	10 1364 21                      @ lvgl/src/lv_widgets/lv_textarea.c:1364:21
	ldrh.w	r1, [sp, #84]
	add	r1, r3
	strh.w	r1, [sp, #84]
	.loc	10 1365 24 is_stmt 1            @ lvgl/src/lv_widgets/lv_textarea.c:1365:24
	ldr	r1, [sp, #240]
	.loc	10 1365 29 is_stmt 0            @ lvgl/src/lv_widgets/lv_textarea.c:1365:29
	ldr	r1, [r1, #64]
	.loc	10 1365 24                      @ lvgl/src/lv_widgets/lv_textarea.c:1365:24
	ldrh	r3, [r1, #18]
	.loc	10 1365 21                      @ lvgl/src/lv_widgets/lv_textarea.c:1365:21
	ldrh.w	r1, [sp, #86]
	add	r1, r3
	strh.w	r1, [sp, #86]
	.loc	10 1366 24 is_stmt 1            @ lvgl/src/lv_widgets/lv_textarea.c:1366:24
	ldr	r1, [sp, #240]
	.loc	10 1366 29 is_stmt 0            @ lvgl/src/lv_widgets/lv_textarea.c:1366:29
	ldr	r1, [r1, #64]
	.loc	10 1366 24                      @ lvgl/src/lv_widgets/lv_textarea.c:1366:24
	ldrh	r3, [r1, #16]
	.loc	10 1366 21                      @ lvgl/src/lv_widgets/lv_textarea.c:1366:21
	ldrh.w	r1, [sp, #88]
	add	r1, r3
	strh.w	r1, [sp, #88]
	.loc	10 1367 24 is_stmt 1            @ lvgl/src/lv_widgets/lv_textarea.c:1367:24
	ldr	r1, [sp, #240]
	.loc	10 1367 29 is_stmt 0            @ lvgl/src/lv_widgets/lv_textarea.c:1367:29
	ldr	r1, [r1, #64]
	.loc	10 1367 24                      @ lvgl/src/lv_widgets/lv_textarea.c:1367:24
	ldrh	r3, [r1, #18]
	.loc	10 1367 21                      @ lvgl/src/lv_widgets/lv_textarea.c:1367:21
	ldrh.w	r1, [sp, #90]
	add	r1, r3
	strh.w	r1, [sp, #90]
	.loc	10 1369 33 is_stmt 1            @ lvgl/src/lv_widgets/lv_textarea.c:1369:33
	ldr	r1, [sp, #252]
	.loc	10 1369 9 is_stmt 0             @ lvgl/src/lv_widgets/lv_textarea.c:1369:9
	bl	lv_draw_rect
	movs	r0, #0
	.loc	10 1371 14 is_stmt 1            @ lvgl/src/lv_widgets/lv_textarea.c:1371:14
	str	r0, [sp, #80]
	str	r0, [sp, #76]
	.loc	10 1372 33                      @ lvgl/src/lv_widgets/lv_textarea.c:1372:33
	ldr	r0, [sp, #236]
	.loc	10 1372 37 is_stmt 0            @ lvgl/src/lv_widgets/lv_textarea.c:1372:37
	ldr	r1, [sp, #240]
	.loc	10 1372 49                      @ lvgl/src/lv_widgets/lv_textarea.c:1372:49
	ldr	r1, [r1, #124]
	.loc	10 1372 33                      @ lvgl/src/lv_widgets/lv_textarea.c:1372:33
	add	r0, r1
	.loc	10 1372 64                      @ lvgl/src/lv_widgets/lv_textarea.c:1372:64
	str	r0, [sp, #20]                   @ 4-byte Spill
	movw	r1, :lower16:_lv_txt_encoded_size
	movt	r1, :upper16:_lv_txt_encoded_size
	ldr	r1, [r1]
	blx	r1
	ldr	r1, [sp, #20]                   @ 4-byte Reload
	mov	r2, r0
	add	r0, sp, #76
	.loc	10 1372 9                       @ lvgl/src/lv_widgets/lv_textarea.c:1372:9
	bl	_lv_memcpy
.Ltmp203:
	.loc	10 1374 20 is_stmt 1            @ lvgl/src/lv_widgets/lv_textarea.c:1374:20
	ldrb.w	r0, [sp, #110]
.Ltmp204:
	.loc	10 1374 12 is_stmt 0            @ lvgl/src/lv_widgets/lv_textarea.c:1374:12
	cmp	r0, #255
	bne	.LBB5_21
	b	.LBB5_20
.LBB5_20:
.Ltmp205:
	.loc	10 1375 61 is_stmt 1            @ lvgl/src/lv_widgets/lv_textarea.c:1375:61
	ldr	r0, [sp, #244]
	movs	r1, #3
	.loc	10 1375 35 is_stmt 0            @ lvgl/src/lv_widgets/lv_textarea.c:1375:35
	str	r1, [sp, #4]                    @ 4-byte Spill
	bl	lv_obj_get_style_pad_left
	ldr	r1, [sp, #4]                    @ 4-byte Reload
	.loc	10 1375 28                      @ lvgl/src/lv_widgets/lv_textarea.c:1375:28
	strh.w	r0, [sp, #74]
	.loc	10 1376 59 is_stmt 1            @ lvgl/src/lv_widgets/lv_textarea.c:1376:59
	ldr	r0, [sp, #244]
	.loc	10 1376 34 is_stmt 0            @ lvgl/src/lv_widgets/lv_textarea.c:1376:34
	bl	lv_obj_get_style_pad_top
	.loc	10 1376 28                      @ lvgl/src/lv_widgets/lv_textarea.c:1376:28
	strh.w	r0, [sp, #72]
	.loc	10 1377 28 is_stmt 1            @ lvgl/src/lv_widgets/lv_textarea.c:1377:28
	ldrh.w	r1, [sp, #74]
	.loc	10 1377 25 is_stmt 0            @ lvgl/src/lv_widgets/lv_textarea.c:1377:25
	ldrh.w	r0, [sp, #84]
	add	r0, r1
	strh.w	r0, [sp, #84]
	.loc	10 1378 28 is_stmt 1            @ lvgl/src/lv_widgets/lv_textarea.c:1378:28
	ldrh.w	r1, [sp, #72]
	.loc	10 1378 25 is_stmt 0            @ lvgl/src/lv_widgets/lv_textarea.c:1378:25
	ldrh.w	r0, [sp, #86]
	add	r0, r1
	strh.w	r0, [sp, #86]
	add	r0, sp, #32
	.loc	10 1381 13 is_stmt 1            @ lvgl/src/lv_widgets/lv_textarea.c:1381:13
	str	r0, [sp, #8]                    @ 4-byte Spill
	bl	lv_draw_label_dsc_init
	ldr	r1, [sp, #4]                    @ 4-byte Reload
	ldr	r2, [sp, #8]                    @ 4-byte Reload
	.loc	10 1382 40                      @ lvgl/src/lv_widgets/lv_textarea.c:1382:40
	ldr	r0, [sp, #244]
	.loc	10 1382 13 is_stmt 0            @ lvgl/src/lv_widgets/lv_textarea.c:1382:13
	bl	lv_obj_init_draw_label_dsc
	ldr	r2, [sp, #8]                    @ 4-byte Reload
	.loc	10 1383 38 is_stmt 1            @ lvgl/src/lv_widgets/lv_textarea.c:1383:38
	ldr	r1, [sp, #252]
	.loc	10 1383 13 is_stmt 0            @ lvgl/src/lv_widgets/lv_textarea.c:1383:13
	mov	r3, sp
	movs	r0, #0
	str	r0, [r3]
	add	r0, sp, #84
	add	r3, sp, #76
	bl	lv_draw_label
	.loc	10 1384 9 is_stmt 1             @ lvgl/src/lv_widgets/lv_textarea.c:1384:9
	b	.LBB5_21
.Ltmp206:
.LBB5_21:
	.loc	10 1385 5                       @ lvgl/src/lv_widgets/lv_textarea.c:1385:5
	b	.LBB5_22
.Ltmp207:
.LBB5_22:
	.loc	10 0 5 is_stmt 0                @ lvgl/src/lv_widgets/lv_textarea.c:0:5
	b	.LBB5_23
.LBB5_23:
	b	.LBB5_24
.LBB5_24:
	movs	r0, #0
	.loc	10 1387 5 is_stmt 1             @ lvgl/src/lv_widgets/lv_textarea.c:1387:5
	strb.w	r0, [sp, #263]
	b	.LBB5_25
.LBB5_25:
	.loc	10 1388 1                       @ lvgl/src/lv_widgets/lv_textarea.c:1388:1
	ldrb.w	r0, [sp, #263]
	add	sp, #264
	pop	{r7, pc}
.Ltmp208:
.Lfunc_end5:
	.size	lv_textarea_scrollable_design, .Lfunc_end5-lv_textarea_scrollable_design
	.cfi_endproc
	.cantunwind
	.fnend
                                        @ -- End function
	.section	.text.lv_textarea_set_scrollbar_mode,"ax",%progbits
	.p2align	3                               @ -- Begin function lv_textarea_set_scrollbar_mode
	.type	lv_textarea_set_scrollbar_mode,%function
	.code	16                              @ @lv_textarea_set_scrollbar_mode
	.thumb_func
lv_textarea_set_scrollbar_mode:
.Lfunc_begin6:
	.loc	15 228 0                        @ lvgl/src/lv_widgets/lv_textarea.h:228:0
	.fnstart
	.cfi_startproc
@ %bb.0:
	.save	{r7, lr}
	push	{r7, lr}
	.cfi_def_cfa_offset 8
	.cfi_offset lr, -4
	.cfi_offset r7, -8
	.pad	#8
	sub	sp, #8
	.cfi_def_cfa_offset 16
                                        @ kill: def $r2 killed $r1
	str	r0, [sp, #4]
	strb.w	r1, [sp, #3]
.Ltmp209:
	.loc	15 229 32 prologue_end          @ lvgl/src/lv_widgets/lv_textarea.h:229:32
	ldr	r0, [sp, #4]
	.loc	15 229 36 is_stmt 0             @ lvgl/src/lv_widgets/lv_textarea.h:229:36
	ldrb.w	r1, [sp, #3]
	.loc	15 229 5                        @ lvgl/src/lv_widgets/lv_textarea.h:229:5
	bl	lv_page_set_scrollbar_mode
	.loc	15 230 1 is_stmt 1              @ lvgl/src/lv_widgets/lv_textarea.h:230:1
	add	sp, #8
	pop	{r7, pc}
.Ltmp210:
.Lfunc_end6:
	.size	lv_textarea_set_scrollbar_mode, .Lfunc_end6-lv_textarea_set_scrollbar_mode
	.cfi_endproc
	.cantunwind
	.fnend
                                        @ -- End function
	.section	.text.pwd_char_hider,"ax",%progbits
	.p2align	3                               @ -- Begin function pwd_char_hider
	.type	pwd_char_hider,%function
	.code	16                              @ @pwd_char_hider
	.thumb_func
pwd_char_hider:
.Lfunc_begin7:
	.loc	10 1644 0                       @ lvgl/src/lv_widgets/lv_textarea.c:1644:0
	.fnstart
	.cfi_startproc
@ %bb.0:
	.save	{r7, lr}
	push	{r7, lr}
	.cfi_def_cfa_offset 8
	.cfi_offset lr, -4
	.cfi_offset r7, -8
	.pad	#56
	sub	sp, #56
	.cfi_def_cfa_offset 64
	str	r0, [sp, #52]
.Ltmp211:
	.loc	10 1645 51 prologue_end         @ lvgl/src/lv_widgets/lv_textarea.c:1645:51
	ldr	r0, [sp, #52]
	.loc	10 1645 31 is_stmt 0            @ lvgl/src/lv_widgets/lv_textarea.c:1645:31
	bl	lv_obj_get_ext_attr
	.loc	10 1645 25                      @ lvgl/src/lv_widgets/lv_textarea.c:1645:25
	str	r0, [sp, #48]
.Ltmp212:
	.loc	10 1646 8 is_stmt 1             @ lvgl/src/lv_widgets/lv_textarea.c:1646:8
	ldr	r0, [sp, #48]
	.loc	10 1646 13 is_stmt 0            @ lvgl/src/lv_widgets/lv_textarea.c:1646:13
	ldrb.w	r0, [r0, #132]
.Ltmp213:
	.loc	10 1646 8                       @ lvgl/src/lv_widgets/lv_textarea.c:1646:8
	lsls	r0, r0, #31
	cmp	r0, #0
	beq	.LBB7_11
	b	.LBB7_1
.LBB7_1:
.Ltmp214:
	.loc	10 1647 41 is_stmt 1            @ lvgl/src/lv_widgets/lv_textarea.c:1647:41
	ldr	r0, [sp, #48]
	.loc	10 1647 46 is_stmt 0            @ lvgl/src/lv_widgets/lv_textarea.c:1647:46
	ldr	r0, [r0, #64]
	.loc	10 1647 23                      @ lvgl/src/lv_widgets/lv_textarea.c:1647:23
	bl	lv_label_get_text
	.loc	10 1647 16                      @ lvgl/src/lv_widgets/lv_textarea.c:1647:16
	str	r0, [sp, #44]
	.loc	10 1648 27 is_stmt 1            @ lvgl/src/lv_widgets/lv_textarea.c:1648:27
	movw	r0, :lower16:_lv_txt_get_encoded_length
	movt	r0, :upper16:_lv_txt_get_encoded_length
	ldr	r1, [r0]
	.loc	10 1648 54 is_stmt 0            @ lvgl/src/lv_widgets/lv_textarea.c:1648:54
	ldr	r0, [sp, #44]
	.loc	10 1648 27                      @ lvgl/src/lv_widgets/lv_textarea.c:1648:27
	blx	r1
	.loc	10 1648 17                      @ lvgl/src/lv_widgets/lv_textarea.c:1648:17
	str	r0, [sp, #40]
.Ltmp215:
	.loc	10 1649 12 is_stmt 1            @ lvgl/src/lv_widgets/lv_textarea.c:1649:12
	ldr	r0, [sp, #40]
.Ltmp216:
	.loc	10 1649 12 is_stmt 0            @ lvgl/src/lv_widgets/lv_textarea.c:1649:12
	cbnz	r0, .LBB7_3
	b	.LBB7_2
.LBB7_2:
.Ltmp217:
	.loc	10 1649 26                      @ lvgl/src/lv_widgets/lv_textarea.c:1649:26
	b	.LBB7_11
.Ltmp218:
.LBB7_3:
	.loc	10 1652 61 is_stmt 1            @ lvgl/src/lv_widgets/lv_textarea.c:1652:61
	ldr	r0, [sp, #52]
	movs	r1, #0
	.loc	10 1652 34 is_stmt 0            @ lvgl/src/lv_widgets/lv_textarea.c:1652:34
	str	r1, [sp]                        @ 4-byte Spill
	bl	lv_obj_get_style_text_font
	ldr	r3, [sp]                        @ 4-byte Reload
	.loc	10 1652 27                      @ lvgl/src/lv_widgets/lv_textarea.c:1652:27
	str	r0, [sp, #36]
	.loc	10 1655 44 is_stmt 1            @ lvgl/src/lv_widgets/lv_textarea.c:1655:44
	ldr	r0, [sp, #36]
	add	r1, sp, #24
	movw	r2, #8226
	.loc	10 1655 22 is_stmt 0            @ lvgl/src/lv_widgets/lv_textarea.c:1655:22
	bl	lv_font_get_glyph_dsc
	.loc	10 1655 20                      @ lvgl/src/lv_widgets/lv_textarea.c:1655:20
	strb.w	r0, [sp, #23]
.Ltmp219:
	.loc	10 1657 12 is_stmt 1            @ lvgl/src/lv_widgets/lv_textarea.c:1657:12
	ldrb.w	r0, [sp, #23]
.Ltmp220:
	.loc	10 1657 12 is_stmt 0            @ lvgl/src/lv_widgets/lv_textarea.c:1657:12
	lsls	r0, r0, #31
	cbz	r0, .LBB7_5
	b	.LBB7_4
.LBB7_4:
.Ltmp221:
	.loc	10 1657 31                      @ lvgl/src/lv_widgets/lv_textarea.c:1657:31
	movw	r0, :lower16:.L.str.5
	movt	r0, :upper16:.L.str.5
	str	r0, [sp, #16]
	.loc	10 1657 24                      @ lvgl/src/lv_widgets/lv_textarea.c:1657:24
	b	.LBB7_6
.LBB7_5:
	.loc	10 1658 21 is_stmt 1            @ lvgl/src/lv_widgets/lv_textarea.c:1658:21
	movw	r0, :lower16:.L.str.6
	movt	r0, :upper16:.L.str.6
	str	r0, [sp, #16]
	b	.LBB7_6
.Ltmp222:
.LBB7_6:
	.loc	10 1660 36                      @ lvgl/src/lv_widgets/lv_textarea.c:1660:36
	ldr	r0, [sp, #16]
	.loc	10 1660 29 is_stmt 0            @ lvgl/src/lv_widgets/lv_textarea.c:1660:29
	bl	strlen
	.loc	10 1660 16                      @ lvgl/src/lv_widgets/lv_textarea.c:1660:16
	str	r0, [sp, #12]
	.loc	10 1661 42 is_stmt 1            @ lvgl/src/lv_widgets/lv_textarea.c:1661:42
	ldr	r0, [sp, #40]
	.loc	10 1661 52 is_stmt 0            @ lvgl/src/lv_widgets/lv_textarea.c:1661:52
	ldr	r1, [sp, #12]
	.loc	10 1661 50                      @ lvgl/src/lv_widgets/lv_textarea.c:1661:50
	muls	r0, r1, r0
	.loc	10 1661 63                      @ lvgl/src/lv_widgets/lv_textarea.c:1661:63
	adds	r0, #1
	.loc	10 1661 26                      @ lvgl/src/lv_widgets/lv_textarea.c:1661:26
	bl	_lv_mem_buf_get
	.loc	10 1661 16                      @ lvgl/src/lv_widgets/lv_textarea.c:1661:16
	str	r0, [sp, #8]
	movs	r0, #0
.Ltmp223:
	.loc	10 1663 15 is_stmt 1            @ lvgl/src/lv_widgets/lv_textarea.c:1663:15
	str	r0, [sp, #4]
	.loc	10 1663 13 is_stmt 0            @ lvgl/src/lv_widgets/lv_textarea.c:1663:13
	b	.LBB7_7
.LBB7_7:                                @ =>This Inner Loop Header: Depth=1
.Ltmp224:
	.loc	10 1663 20                      @ lvgl/src/lv_widgets/lv_textarea.c:1663:20
	ldr	r0, [sp, #4]
	.loc	10 1663 24                      @ lvgl/src/lv_widgets/lv_textarea.c:1663:24
	ldr	r1, [sp, #40]
.Ltmp225:
	.loc	10 1663 9                       @ lvgl/src/lv_widgets/lv_textarea.c:1663:9
	cmp	r0, r1
	bge	.LBB7_10
	b	.LBB7_8
.LBB7_8:                                @   in Loop: Header=BB7_7 Depth=1
.Ltmp226:
	.loc	10 1664 25 is_stmt 1            @ lvgl/src/lv_widgets/lv_textarea.c:1664:25
	ldr	r1, [sp, #8]
	.loc	10 1664 33 is_stmt 0            @ lvgl/src/lv_widgets/lv_textarea.c:1664:33
	ldr	r0, [sp, #4]
	.loc	10 1664 37                      @ lvgl/src/lv_widgets/lv_textarea.c:1664:37
	ldr	r2, [sp, #12]
	.loc	10 1664 25                      @ lvgl/src/lv_widgets/lv_textarea.c:1664:25
	mla	r0, r0, r2, r1
	.loc	10 1664 50                      @ lvgl/src/lv_widgets/lv_textarea.c:1664:50
	ldr	r1, [sp, #16]
	.loc	10 1664 13                      @ lvgl/src/lv_widgets/lv_textarea.c:1664:13
	bl	_lv_memcpy
	.loc	10 1665 9 is_stmt 1             @ lvgl/src/lv_widgets/lv_textarea.c:1665:9
	b	.LBB7_9
.Ltmp227:
.LBB7_9:                                @   in Loop: Header=BB7_7 Depth=1
	.loc	10 1663 34                      @ lvgl/src/lv_widgets/lv_textarea.c:1663:34
	ldr	r0, [sp, #4]
	adds	r0, #1
	str	r0, [sp, #4]
	.loc	10 1663 9 is_stmt 0             @ lvgl/src/lv_widgets/lv_textarea.c:1663:9
	b	.LBB7_7
.Ltmp228:
.LBB7_10:
	.loc	10 1667 9 is_stmt 1             @ lvgl/src/lv_widgets/lv_textarea.c:1667:9
	ldr	r1, [sp, #8]
	.loc	10 1667 17 is_stmt 0            @ lvgl/src/lv_widgets/lv_textarea.c:1667:17
	ldr	r0, [sp, #4]
	.loc	10 1667 21                      @ lvgl/src/lv_widgets/lv_textarea.c:1667:21
	ldr	r2, [sp, #12]
	.loc	10 1667 19                      @ lvgl/src/lv_widgets/lv_textarea.c:1667:19
	muls	r2, r0, r2
	movs	r0, #0
	.loc	10 1667 33                      @ lvgl/src/lv_widgets/lv_textarea.c:1667:33
	strb	r0, [r1, r2]
	.loc	10 1669 27 is_stmt 1            @ lvgl/src/lv_widgets/lv_textarea.c:1669:27
	ldr	r0, [sp, #48]
	.loc	10 1669 32 is_stmt 0            @ lvgl/src/lv_widgets/lv_textarea.c:1669:32
	ldr	r0, [r0, #64]
	.loc	10 1669 39                      @ lvgl/src/lv_widgets/lv_textarea.c:1669:39
	ldr	r1, [sp, #8]
	.loc	10 1669 9                       @ lvgl/src/lv_widgets/lv_textarea.c:1669:9
	bl	lv_label_set_text
	.loc	10 1670 29 is_stmt 1            @ lvgl/src/lv_widgets/lv_textarea.c:1670:29
	ldr	r0, [sp, #8]
	.loc	10 1670 9 is_stmt 0             @ lvgl/src/lv_widgets/lv_textarea.c:1670:9
	bl	_lv_mem_buf_release
	.loc	10 1671 26 is_stmt 1            @ lvgl/src/lv_widgets/lv_textarea.c:1671:26
	ldr	r0, [sp, #52]
	.loc	10 1671 9 is_stmt 0             @ lvgl/src/lv_widgets/lv_textarea.c:1671:9
	bl	refr_cursor_area
	.loc	10 1672 5 is_stmt 1             @ lvgl/src/lv_widgets/lv_textarea.c:1672:5
	b	.LBB7_11
.Ltmp229:
.LBB7_11:
	.loc	10 1673 1                       @ lvgl/src/lv_widgets/lv_textarea.c:1673:1
	add	sp, #56
	pop	{r7, pc}
.Ltmp230:
.Lfunc_end7:
	.size	pwd_char_hider, .Lfunc_end7-pwd_char_hider
	.cfi_endproc
	.cantunwind
	.fnend
                                        @ -- End function
	.section	.text.lv_textarea_set_placeholder_text,"ax",%progbits
	.hidden	lv_textarea_set_placeholder_text @ -- Begin function lv_textarea_set_placeholder_text
	.globl	lv_textarea_set_placeholder_text
	.p2align	3
	.type	lv_textarea_set_placeholder_text,%function
	.code	16                              @ @lv_textarea_set_placeholder_text
	.thumb_func
lv_textarea_set_placeholder_text:
.Lfunc_begin8:
	.loc	10 558 0                        @ lvgl/src/lv_widgets/lv_textarea.c:558:0
	.fnstart
	.cfi_startproc
@ %bb.0:
	.save	{r7, lr}
	push	{r7, lr}
	.cfi_def_cfa_offset 8
	.cfi_offset lr, -4
	.cfi_offset r7, -8
	.pad	#16
	sub	sp, #16
	.cfi_def_cfa_offset 24
	str	r0, [sp, #12]
	str	r1, [sp, #8]
.Ltmp231:
	.loc	10 559 5 prologue_end           @ lvgl/src/lv_widgets/lv_textarea.c:559:5
	b	.LBB8_1
.LBB8_1:
.Ltmp232:
	.loc	10 559 5 is_stmt 0              @ lvgl/src/lv_widgets/lv_textarea.c:559:5
	ldr	r0, [sp, #12]
	bl	lv_debug_check_null
.Ltmp233:
	.loc	10 559 5                        @ lvgl/src/lv_widgets/lv_textarea.c:559:5
	cbnz	r0, .LBB8_4
	b	.LBB8_2
.LBB8_2:
.Ltmp234:
	.loc	10 559 5                        @ lvgl/src/lv_widgets/lv_textarea.c:559:5
	ldr	r2, [sp, #12]
	movw	r0, :lower16:.L.str.2
	movt	r0, :upper16:.L.str.2
	movs	r3, #0
	bl	lv_debug_log_error
	b	.LBB8_3
.LBB8_3:                                @ =>This Inner Loop Header: Depth=1
	b	.LBB8_3
.Ltmp235:
.LBB8_4:
	.loc	10 559 5                        @ lvgl/src/lv_widgets/lv_textarea.c:559:5
	b	.LBB8_5
.Ltmp236:
.LBB8_5:
	.loc	10 560 5 is_stmt 1              @ lvgl/src/lv_widgets/lv_textarea.c:560:5
	b	.LBB8_6
.LBB8_6:
.Ltmp237:
	.loc	10 560 5 is_stmt 0              @ lvgl/src/lv_widgets/lv_textarea.c:560:5
	ldr	r0, [sp, #8]
	bl	lv_debug_check_null
.Ltmp238:
	.loc	10 560 5                        @ lvgl/src/lv_widgets/lv_textarea.c:560:5
	cbnz	r0, .LBB8_9
	b	.LBB8_7
.LBB8_7:
.Ltmp239:
	.loc	10 560 5                        @ lvgl/src/lv_widgets/lv_textarea.c:560:5
	ldr	r2, [sp, #8]
	movw	r0, :lower16:.L.str.2
	movt	r0, :upper16:.L.str.2
	movs	r3, #0
	bl	lv_debug_log_error
	b	.LBB8_8
.LBB8_8:                                @ =>This Inner Loop Header: Depth=1
	b	.LBB8_8
.Ltmp240:
.LBB8_9:
	.loc	10 560 5                        @ lvgl/src/lv_widgets/lv_textarea.c:560:5
	b	.LBB8_10
.Ltmp241:
.LBB8_10:
	.loc	10 562 51 is_stmt 1             @ lvgl/src/lv_widgets/lv_textarea.c:562:51
	ldr	r0, [sp, #12]
	.loc	10 562 31 is_stmt 0             @ lvgl/src/lv_widgets/lv_textarea.c:562:31
	bl	lv_obj_get_ext_attr
	.loc	10 562 25                       @ lvgl/src/lv_widgets/lv_textarea.c:562:25
	str	r0, [sp, #4]
	.loc	10 564 29 is_stmt 1             @ lvgl/src/lv_widgets/lv_textarea.c:564:29
	ldr	r0, [sp, #8]
	.loc	10 564 22 is_stmt 0             @ lvgl/src/lv_widgets/lv_textarea.c:564:22
	bl	strlen
	.loc	10 564 12                       @ lvgl/src/lv_widgets/lv_textarea.c:564:12
	str	r0, [sp]
.Ltmp242:
	.loc	10 566 8 is_stmt 1              @ lvgl/src/lv_widgets/lv_textarea.c:566:8
	ldr	r0, [sp]
.Ltmp243:
	.loc	10 566 8 is_stmt 0              @ lvgl/src/lv_widgets/lv_textarea.c:566:8
	cbnz	r0, .LBB8_14
	b	.LBB8_11
.LBB8_11:
.Ltmp244:
	.loc	10 567 12 is_stmt 1             @ lvgl/src/lv_widgets/lv_textarea.c:567:12
	ldr	r0, [sp, #4]
	.loc	10 567 17 is_stmt 0             @ lvgl/src/lv_widgets/lv_textarea.c:567:17
	ldr	r0, [r0, #68]
.Ltmp245:
	.loc	10 567 12                       @ lvgl/src/lv_widgets/lv_textarea.c:567:12
	cbz	r0, .LBB8_13
	b	.LBB8_12
.LBB8_12:
.Ltmp246:
	.loc	10 568 25 is_stmt 1             @ lvgl/src/lv_widgets/lv_textarea.c:568:25
	ldr	r0, [sp, #4]
	.loc	10 568 30 is_stmt 0             @ lvgl/src/lv_widgets/lv_textarea.c:568:30
	ldr	r0, [r0, #68]
	.loc	10 568 13                       @ lvgl/src/lv_widgets/lv_textarea.c:568:13
	bl	lv_mem_free
	.loc	10 569 13 is_stmt 1             @ lvgl/src/lv_widgets/lv_textarea.c:569:13
	ldr	r1, [sp, #4]
	movs	r0, #0
	.loc	10 569 34 is_stmt 0             @ lvgl/src/lv_widgets/lv_textarea.c:569:34
	str	r0, [r1, #68]
	.loc	10 570 9 is_stmt 1              @ lvgl/src/lv_widgets/lv_textarea.c:570:9
	b	.LBB8_13
.Ltmp247:
.LBB8_13:
	.loc	10 571 5                        @ lvgl/src/lv_widgets/lv_textarea.c:571:5
	b	.LBB8_25
.Ltmp248:
.LBB8_14:
	.loc	10 575 12                       @ lvgl/src/lv_widgets/lv_textarea.c:575:12
	ldr	r0, [sp, #4]
	.loc	10 575 17 is_stmt 0             @ lvgl/src/lv_widgets/lv_textarea.c:575:17
	ldr	r0, [r0, #68]
.Ltmp249:
	.loc	10 575 12                       @ lvgl/src/lv_widgets/lv_textarea.c:575:12
	cbnz	r0, .LBB8_16
	b	.LBB8_15
.LBB8_15:
.Ltmp250:
	.loc	10 576 49 is_stmt 1             @ lvgl/src/lv_widgets/lv_textarea.c:576:49
	ldr	r0, [sp]
	.loc	10 576 57 is_stmt 0             @ lvgl/src/lv_widgets/lv_textarea.c:576:57
	adds	r0, #1
	.loc	10 576 36                       @ lvgl/src/lv_widgets/lv_textarea.c:576:36
	bl	lv_mem_alloc
	.loc	10 576 13                       @ lvgl/src/lv_widgets/lv_textarea.c:576:13
	ldr	r1, [sp, #4]
	.loc	10 576 34                       @ lvgl/src/lv_widgets/lv_textarea.c:576:34
	str	r0, [r1, #68]
	.loc	10 577 9 is_stmt 1              @ lvgl/src/lv_widgets/lv_textarea.c:577:9
	b	.LBB8_17
.Ltmp251:
.LBB8_16:
	.loc	10 579 51                       @ lvgl/src/lv_widgets/lv_textarea.c:579:51
	ldr	r0, [sp, #4]
	.loc	10 579 56 is_stmt 0             @ lvgl/src/lv_widgets/lv_textarea.c:579:56
	ldr	r0, [r0, #68]
	.loc	10 579 73                       @ lvgl/src/lv_widgets/lv_textarea.c:579:73
	ldr	r1, [sp]
	.loc	10 579 81                       @ lvgl/src/lv_widgets/lv_textarea.c:579:81
	adds	r1, #1
	.loc	10 579 36                       @ lvgl/src/lv_widgets/lv_textarea.c:579:36
	bl	lv_mem_realloc
	.loc	10 579 13                       @ lvgl/src/lv_widgets/lv_textarea.c:579:13
	ldr	r1, [sp, #4]
	.loc	10 579 34                       @ lvgl/src/lv_widgets/lv_textarea.c:579:34
	str	r0, [r1, #68]
	b	.LBB8_17
.Ltmp252:
.LBB8_17:
	.loc	10 582 9 is_stmt 1              @ lvgl/src/lv_widgets/lv_textarea.c:582:9
	b	.LBB8_18
.LBB8_18:
.Ltmp253:
	.loc	10 582 9 is_stmt 0              @ lvgl/src/lv_widgets/lv_textarea.c:582:9
	ldr	r0, [sp, #4]
	ldr	r0, [r0, #68]
	bl	lv_debug_check_null
.Ltmp254:
	.loc	10 582 9                        @ lvgl/src/lv_widgets/lv_textarea.c:582:9
	cbnz	r0, .LBB8_21
	b	.LBB8_19
.LBB8_19:
.Ltmp255:
	.loc	10 582 9                        @ lvgl/src/lv_widgets/lv_textarea.c:582:9
	ldr	r0, [sp, #4]
	ldr	r2, [r0, #68]
	movw	r0, :lower16:.L.str
	movt	r0, :upper16:.L.str
	movs	r3, #0
	bl	lv_debug_log_error
	b	.LBB8_20
.LBB8_20:                               @ =>This Inner Loop Header: Depth=1
	b	.LBB8_20
.Ltmp256:
.LBB8_21:
	.loc	10 582 9                        @ lvgl/src/lv_widgets/lv_textarea.c:582:9
	b	.LBB8_22
.Ltmp257:
.LBB8_22:
	.loc	10 583 12 is_stmt 1             @ lvgl/src/lv_widgets/lv_textarea.c:583:12
	ldr	r0, [sp, #4]
	.loc	10 583 17 is_stmt 0             @ lvgl/src/lv_widgets/lv_textarea.c:583:17
	ldr	r0, [r0, #68]
.Ltmp258:
	.loc	10 583 12                       @ lvgl/src/lv_widgets/lv_textarea.c:583:12
	cbnz	r0, .LBB8_24
	b	.LBB8_23
.LBB8_23:
.Ltmp259:
	.loc	10 585 13 is_stmt 1             @ lvgl/src/lv_widgets/lv_textarea.c:585:13
	b	.LBB8_26
.Ltmp260:
.LBB8_24:
	.loc	10 587 16                       @ lvgl/src/lv_widgets/lv_textarea.c:587:16
	ldr	r0, [sp, #4]
	.loc	10 587 21 is_stmt 0             @ lvgl/src/lv_widgets/lv_textarea.c:587:21
	ldr	r0, [r0, #68]
	.loc	10 587 38                       @ lvgl/src/lv_widgets/lv_textarea.c:587:38
	ldr	r1, [sp, #8]
	.loc	10 587 9                        @ lvgl/src/lv_widgets/lv_textarea.c:587:9
	bl	strcpy
	b	.LBB8_25
.Ltmp261:
.LBB8_25:
	.loc	10 590 23 is_stmt 1             @ lvgl/src/lv_widgets/lv_textarea.c:590:23
	ldr	r0, [sp, #12]
	.loc	10 590 5 is_stmt 0              @ lvgl/src/lv_widgets/lv_textarea.c:590:5
	bl	lv_obj_invalidate
	.loc	10 591 1 is_stmt 1              @ lvgl/src/lv_widgets/lv_textarea.c:591:1
	b	.LBB8_26
.LBB8_26:
	add	sp, #16
	pop	{r7, pc}
.Ltmp262:
.Lfunc_end8:
	.size	lv_textarea_set_placeholder_text, .Lfunc_end8-lv_textarea_set_placeholder_text
	.cfi_endproc
	.cantunwind
	.fnend
                                        @ -- End function
	.section	.text.lv_textarea_set_one_line,"ax",%progbits
	.hidden	lv_textarea_set_one_line        @ -- Begin function lv_textarea_set_one_line
	.globl	lv_textarea_set_one_line
	.p2align	3
	.type	lv_textarea_set_one_line,%function
	.code	16                              @ @lv_textarea_set_one_line
	.thumb_func
lv_textarea_set_one_line:
.Lfunc_begin9:
	.loc	10 747 0                        @ lvgl/src/lv_widgets/lv_textarea.c:747:0
	.fnstart
	.cfi_startproc
@ %bb.0:
	.save	{r7, lr}
	push	{r7, lr}
	.cfi_def_cfa_offset 8
	.cfi_offset lr, -4
	.cfi_offset r7, -8
	.pad	#48
	sub	sp, #48
	.cfi_def_cfa_offset 56
                                        @ kill: def $r2 killed $r1
	str	r0, [sp, #44]
	strb.w	r1, [sp, #43]
.Ltmp263:
	.loc	10 748 5 prologue_end           @ lvgl/src/lv_widgets/lv_textarea.c:748:5
	b	.LBB9_1
.LBB9_1:
.Ltmp264:
	.loc	10 748 5 is_stmt 0              @ lvgl/src/lv_widgets/lv_textarea.c:748:5
	ldr	r0, [sp, #44]
	bl	lv_debug_check_null
.Ltmp265:
	.loc	10 748 5                        @ lvgl/src/lv_widgets/lv_textarea.c:748:5
	cbnz	r0, .LBB9_4
	b	.LBB9_2
.LBB9_2:
.Ltmp266:
	.loc	10 748 5                        @ lvgl/src/lv_widgets/lv_textarea.c:748:5
	ldr	r2, [sp, #44]
	movw	r0, :lower16:.L.str.2
	movt	r0, :upper16:.L.str.2
	movs	r3, #0
	bl	lv_debug_log_error
	b	.LBB9_3
.LBB9_3:                                @ =>This Inner Loop Header: Depth=1
	b	.LBB9_3
.Ltmp267:
.LBB9_4:
	.loc	10 748 5                        @ lvgl/src/lv_widgets/lv_textarea.c:748:5
	b	.LBB9_5
.Ltmp268:
.LBB9_5:
	.loc	10 750 51 is_stmt 1             @ lvgl/src/lv_widgets/lv_textarea.c:750:51
	ldr	r0, [sp, #44]
	.loc	10 750 31 is_stmt 0             @ lvgl/src/lv_widgets/lv_textarea.c:750:31
	bl	lv_obj_get_ext_attr
	.loc	10 750 25                       @ lvgl/src/lv_widgets/lv_textarea.c:750:25
	str	r0, [sp, #36]
.Ltmp269:
	.loc	10 751 8 is_stmt 1              @ lvgl/src/lv_widgets/lv_textarea.c:751:8
	ldr	r0, [sp, #36]
	.loc	10 751 13 is_stmt 0             @ lvgl/src/lv_widgets/lv_textarea.c:751:13
	ldrb.w	r0, [r0, #132]
	ubfx	r0, r0, #1, #1
	.loc	10 751 25                       @ lvgl/src/lv_widgets/lv_textarea.c:751:25
	ldrb.w	r1, [sp, #43]
	and	r1, r1, #1
.Ltmp270:
	.loc	10 751 8                        @ lvgl/src/lv_widgets/lv_textarea.c:751:8
	cmp	r0, r1
	bne	.LBB9_7
	b	.LBB9_6
.LBB9_6:
.Ltmp271:
	.loc	10 751 29                       @ lvgl/src/lv_widgets/lv_textarea.c:751:29
	b	.LBB9_11
.Ltmp272:
.LBB9_7:
	.loc	10 752 53 is_stmt 1             @ lvgl/src/lv_widgets/lv_textarea.c:752:53
	ldr	r0, [sp, #36]
	.loc	10 752 58 is_stmt 0             @ lvgl/src/lv_widgets/lv_textarea.c:752:58
	ldr	r0, [r0, #64]
	.loc	10 752 34                       @ lvgl/src/lv_widgets/lv_textarea.c:752:34
	bl	lv_label_get_align
	.loc	10 752 22                       @ lvgl/src/lv_widgets/lv_textarea.c:752:22
	strb.w	r0, [sp, #35]
.Ltmp273:
	.loc	10 754 8 is_stmt 1              @ lvgl/src/lv_widgets/lv_textarea.c:754:8
	ldrb.w	r0, [sp, #43]
.Ltmp274:
	.loc	10 754 8 is_stmt 0              @ lvgl/src/lv_widgets/lv_textarea.c:754:8
	lsls	r0, r0, #31
	cmp	r0, #0
	beq	.LBB9_9
	b	.LBB9_8
.LBB9_8:
.Ltmp275:
	.loc	10 755 55 is_stmt 1             @ lvgl/src/lv_widgets/lv_textarea.c:755:55
	ldr	r0, [sp, #44]
	movs	r1, #0
	.loc	10 755 30 is_stmt 0             @ lvgl/src/lv_widgets/lv_textarea.c:755:30
	str	r1, [sp, #12]                   @ 4-byte Spill
	bl	lv_obj_get_style_pad_top
	ldr	r1, [sp, #12]                   @ 4-byte Reload
	.loc	10 755 24                       @ lvgl/src/lv_widgets/lv_textarea.c:755:24
	strh.w	r0, [sp, #32]
	.loc	10 756 61 is_stmt 1             @ lvgl/src/lv_widgets/lv_textarea.c:756:61
	ldr	r0, [sp, #44]
	.loc	10 756 33 is_stmt 0             @ lvgl/src/lv_widgets/lv_textarea.c:756:33
	bl	lv_obj_get_style_pad_bottom
	ldr	r1, [sp, #12]                   @ 4-byte Reload
	.loc	10 756 24                       @ lvgl/src/lv_widgets/lv_textarea.c:756:24
	strh.w	r0, [sp, #30]
	.loc	10 757 57 is_stmt 1             @ lvgl/src/lv_widgets/lv_textarea.c:757:57
	ldr	r0, [sp, #44]
	.loc	10 757 31 is_stmt 0             @ lvgl/src/lv_widgets/lv_textarea.c:757:31
	bl	lv_obj_get_style_pad_left
	ldr	r1, [sp, #12]                   @ 4-byte Reload
	.loc	10 757 24                       @ lvgl/src/lv_widgets/lv_textarea.c:757:24
	strh.w	r0, [sp, #28]
	.loc	10 758 61 is_stmt 1             @ lvgl/src/lv_widgets/lv_textarea.c:758:61
	ldr	r0, [sp, #44]
	.loc	10 758 34 is_stmt 0             @ lvgl/src/lv_widgets/lv_textarea.c:758:34
	bl	lv_obj_get_style_text_font
	.loc	10 758 27                       @ lvgl/src/lv_widgets/lv_textarea.c:758:27
	str	r0, [sp, #24]
	.loc	10 759 66 is_stmt 1             @ lvgl/src/lv_widgets/lv_textarea.c:759:66
	ldr	r0, [sp, #24]
	.loc	10 759 42 is_stmt 0             @ lvgl/src/lv_widgets/lv_textarea.c:759:42
	bl	lv_font_get_line_height
	.loc	10 759 20                       @ lvgl/src/lv_widgets/lv_textarea.c:759:20
	strh.w	r0, [sp, #22]
	.loc	10 761 9 is_stmt 1              @ lvgl/src/lv_widgets/lv_textarea.c:761:9
	ldr	r1, [sp, #36]
	.loc	10 761 23 is_stmt 0             @ lvgl/src/lv_widgets/lv_textarea.c:761:23
	ldrb.w	r0, [r1, #132]
	orr	r0, r0, #2
	strb.w	r0, [r1, #132]
	.loc	10 762 37 is_stmt 1             @ lvgl/src/lv_widgets/lv_textarea.c:762:37
	ldr	r0, [sp, #44]
	movs	r1, #3
	movs	r2, #2
	.loc	10 762 9 is_stmt 0              @ lvgl/src/lv_widgets/lv_textarea.c:762:9
	bl	lv_page_set_scrollable_fit2
	.loc	10 763 27 is_stmt 1             @ lvgl/src/lv_widgets/lv_textarea.c:763:27
	ldr	r0, [sp, #44]
	.loc	10 763 31 is_stmt 0             @ lvgl/src/lv_widgets/lv_textarea.c:763:31
	ldrh.w	r1, [sp, #22]
	.loc	10 763 40                       @ lvgl/src/lv_widgets/lv_textarea.c:763:40
	ldrh.w	r2, [sp, #32]
	.loc	10 763 38                       @ lvgl/src/lv_widgets/lv_textarea.c:763:38
	add	r1, r2
	.loc	10 763 46                       @ lvgl/src/lv_widgets/lv_textarea.c:763:46
	ldrh.w	r2, [sp, #30]
	.loc	10 763 44                       @ lvgl/src/lv_widgets/lv_textarea.c:763:44
	add	r1, r2
	.loc	10 763 9                        @ lvgl/src/lv_widgets/lv_textarea.c:763:9
	sxth	r1, r1
	bl	lv_obj_set_height
	ldr	r1, [sp, #12]                   @ 4-byte Reload
	.loc	10 764 32 is_stmt 1             @ lvgl/src/lv_widgets/lv_textarea.c:764:32
	ldr	r0, [sp, #36]
	.loc	10 764 37 is_stmt 0             @ lvgl/src/lv_widgets/lv_textarea.c:764:37
	ldr	r0, [r0, #64]
	.loc	10 764 9                        @ lvgl/src/lv_widgets/lv_textarea.c:764:9
	bl	lv_label_set_long_mode
	.loc	10 765 47 is_stmt 1             @ lvgl/src/lv_widgets/lv_textarea.c:765:47
	ldr	r0, [sp, #44]
	.loc	10 765 24 is_stmt 0             @ lvgl/src/lv_widgets/lv_textarea.c:765:24
	bl	lv_page_get_scrollable
	.loc	10 765 52                       @ lvgl/src/lv_widgets/lv_textarea.c:765:52
	ldrsh.w	r1, [sp, #28]
	.loc	10 765 58                       @ lvgl/src/lv_widgets/lv_textarea.c:765:58
	ldrsh.w	r2, [sp, #32]
	.loc	10 765 9                        @ lvgl/src/lv_widgets/lv_textarea.c:765:9
	bl	lv_obj_set_pos
	.loc	10 766 5 is_stmt 1              @ lvgl/src/lv_widgets/lv_textarea.c:766:5
	b	.LBB9_10
.Ltmp276:
.LBB9_9:
	.loc	10 768 55                       @ lvgl/src/lv_widgets/lv_textarea.c:768:55
	ldr	r0, [sp, #44]
	movs	r1, #0
	.loc	10 768 30 is_stmt 0             @ lvgl/src/lv_widgets/lv_textarea.c:768:30
	str	r1, [sp, #4]                    @ 4-byte Spill
	bl	lv_obj_get_style_pad_top
	ldr	r1, [sp, #4]                    @ 4-byte Reload
	.loc	10 768 24                       @ lvgl/src/lv_widgets/lv_textarea.c:768:24
	strh.w	r0, [sp, #20]
	.loc	10 769 57 is_stmt 1             @ lvgl/src/lv_widgets/lv_textarea.c:769:57
	ldr	r0, [sp, #44]
	.loc	10 769 31 is_stmt 0             @ lvgl/src/lv_widgets/lv_textarea.c:769:31
	bl	lv_obj_get_style_pad_left
	.loc	10 769 24                       @ lvgl/src/lv_widgets/lv_textarea.c:769:24
	strh.w	r0, [sp, #18]
	.loc	10 770 9 is_stmt 1              @ lvgl/src/lv_widgets/lv_textarea.c:770:9
	ldr	r1, [sp, #36]
	.loc	10 770 23 is_stmt 0             @ lvgl/src/lv_widgets/lv_textarea.c:770:23
	ldrb.w	r0, [r1, #132]
	and	r0, r0, #253
	strb.w	r0, [r1, #132]
	.loc	10 771 37 is_stmt 1             @ lvgl/src/lv_widgets/lv_textarea.c:771:37
	ldr	r0, [sp, #44]
	movs	r1, #2
	movs	r2, #1
	.loc	10 771 9 is_stmt 0              @ lvgl/src/lv_widgets/lv_textarea.c:771:9
	str	r2, [sp, #8]                    @ 4-byte Spill
	bl	lv_page_set_scrollable_fit2
	ldr	r1, [sp, #8]                    @ 4-byte Reload
	.loc	10 772 32 is_stmt 1             @ lvgl/src/lv_widgets/lv_textarea.c:772:32
	ldr	r0, [sp, #36]
	.loc	10 772 37 is_stmt 0             @ lvgl/src/lv_widgets/lv_textarea.c:772:37
	ldr	r0, [r0, #64]
	.loc	10 772 9                        @ lvgl/src/lv_widgets/lv_textarea.c:772:9
	bl	lv_label_set_long_mode
	.loc	10 774 27 is_stmt 1             @ lvgl/src/lv_widgets/lv_textarea.c:774:27
	ldr	r0, [sp, #44]
	movs	r1, #130
	.loc	10 774 9 is_stmt 0              @ lvgl/src/lv_widgets/lv_textarea.c:774:9
	bl	lv_obj_set_height
	.loc	10 775 47 is_stmt 1             @ lvgl/src/lv_widgets/lv_textarea.c:775:47
	ldr	r0, [sp, #44]
	.loc	10 775 24 is_stmt 0             @ lvgl/src/lv_widgets/lv_textarea.c:775:24
	bl	lv_page_get_scrollable
	.loc	10 775 52                       @ lvgl/src/lv_widgets/lv_textarea.c:775:52
	ldrsh.w	r1, [sp, #18]
	.loc	10 775 58                       @ lvgl/src/lv_widgets/lv_textarea.c:775:58
	ldrsh.w	r2, [sp, #20]
	.loc	10 775 9                        @ lvgl/src/lv_widgets/lv_textarea.c:775:9
	bl	lv_obj_set_pos
	b	.LBB9_10
.Ltmp277:
.LBB9_10:
	.loc	10 779 32 is_stmt 1             @ lvgl/src/lv_widgets/lv_textarea.c:779:32
	ldr	r0, [sp, #44]
	.loc	10 779 36 is_stmt 0             @ lvgl/src/lv_widgets/lv_textarea.c:779:36
	ldrb.w	r1, [sp, #35]
	.loc	10 779 5                        @ lvgl/src/lv_widgets/lv_textarea.c:779:5
	bl	lv_textarea_set_text_align
	.loc	10 780 1 is_stmt 1              @ lvgl/src/lv_widgets/lv_textarea.c:780:1
	b	.LBB9_11
.LBB9_11:
	add	sp, #48
	pop	{r7, pc}
.Ltmp278:
.Lfunc_end9:
	.size	lv_textarea_set_one_line, .Lfunc_end9-lv_textarea_set_one_line
	.cfi_endproc
	.cantunwind
	.fnend
                                        @ -- End function
	.section	.text.lv_anim_path_init,"ax",%progbits
	.p2align	3                               @ -- Begin function lv_anim_path_init
	.type	lv_anim_path_init,%function
	.code	16                              @ @lv_anim_path_init
	.thumb_func
lv_anim_path_init:
.Lfunc_begin10:
	.loc	19 272 0                        @ lvgl/src/lv_widgets/../lv_misc/lv_anim.h:272:0
	.fnstart
	.cfi_startproc
@ %bb.0:
	.save	{r7, lr}
	push	{r7, lr}
	.cfi_def_cfa_offset 8
	.cfi_offset lr, -4
	.cfi_offset r7, -8
	.pad	#8
	sub	sp, #8
	.cfi_def_cfa_offset 16
	str	r0, [sp, #4]
.Ltmp279:
	.loc	19 273 19 prologue_end          @ lvgl/src/lv_widgets/../lv_misc/lv_anim.h:273:19
	ldr	r0, [sp, #4]
	movs	r1, #8
	.loc	19 273 5 is_stmt 0              @ lvgl/src/lv_widgets/../lv_misc/lv_anim.h:273:5
	bl	_lv_memset_00
	.loc	19 274 1 is_stmt 1              @ lvgl/src/lv_widgets/../lv_misc/lv_anim.h:274:1
	add	sp, #8
	pop	{r7, pc}
.Ltmp280:
.Lfunc_end10:
	.size	lv_anim_path_init, .Lfunc_end10-lv_anim_path_init
	.cfi_endproc
	.cantunwind
	.fnend
                                        @ -- End function
	.section	.text.lv_anim_path_set_cb,"ax",%progbits
	.p2align	3                               @ -- Begin function lv_anim_path_set_cb
	.type	lv_anim_path_set_cb,%function
	.code	16                              @ @lv_anim_path_set_cb
	.thumb_func
lv_anim_path_set_cb:
.Lfunc_begin11:
	.loc	19 282 0                        @ lvgl/src/lv_widgets/../lv_misc/lv_anim.h:282:0
	.fnstart
	.cfi_startproc
@ %bb.0:
	.pad	#8
	sub	sp, #8
	.cfi_def_cfa_offset 8
	str	r0, [sp, #4]
	str	r1, [sp]
.Ltmp281:
	.loc	19 283 16 prologue_end          @ lvgl/src/lv_widgets/../lv_misc/lv_anim.h:283:16
	ldr	r0, [sp]
	.loc	19 283 5 is_stmt 0              @ lvgl/src/lv_widgets/../lv_misc/lv_anim.h:283:5
	ldr	r1, [sp, #4]
	.loc	19 283 14                       @ lvgl/src/lv_widgets/../lv_misc/lv_anim.h:283:14
	str	r0, [r1]
	.loc	19 284 1 is_stmt 1              @ lvgl/src/lv_widgets/../lv_misc/lv_anim.h:284:1
	add	sp, #8
	bx	lr
.Ltmp282:
.Lfunc_end11:
	.size	lv_anim_path_set_cb, .Lfunc_end11-lv_anim_path_set_cb
	.cfi_endproc
	.cantunwind
	.fnend
                                        @ -- End function
	.section	.text.lv_anim_set_var,"ax",%progbits
	.p2align	3                               @ -- Begin function lv_anim_set_var
	.type	lv_anim_set_var,%function
	.code	16                              @ @lv_anim_set_var
	.thumb_func
lv_anim_set_var:
.Lfunc_begin12:
	.loc	19 126 0                        @ lvgl/src/lv_widgets/../lv_misc/lv_anim.h:126:0
	.fnstart
	.cfi_startproc
@ %bb.0:
	.pad	#8
	sub	sp, #8
	.cfi_def_cfa_offset 8
	str	r0, [sp, #4]
	str	r1, [sp]
.Ltmp283:
	.loc	19 127 14 prologue_end          @ lvgl/src/lv_widgets/../lv_misc/lv_anim.h:127:14
	ldr	r0, [sp]
	.loc	19 127 5 is_stmt 0              @ lvgl/src/lv_widgets/../lv_misc/lv_anim.h:127:5
	ldr	r1, [sp, #4]
	.loc	19 127 12                       @ lvgl/src/lv_widgets/../lv_misc/lv_anim.h:127:12
	str	r0, [r1]
	.loc	19 128 1 is_stmt 1              @ lvgl/src/lv_widgets/../lv_misc/lv_anim.h:128:1
	add	sp, #8
	bx	lr
.Ltmp284:
.Lfunc_end12:
	.size	lv_anim_set_var, .Lfunc_end12-lv_anim_set_var
	.cfi_endproc
	.cantunwind
	.fnend
                                        @ -- End function
	.section	.text.lv_anim_set_exec_cb,"ax",%progbits
	.p2align	3                               @ -- Begin function lv_anim_set_exec_cb
	.type	lv_anim_set_exec_cb,%function
	.code	16                              @ @lv_anim_set_exec_cb
	.thumb_func
lv_anim_set_exec_cb:
.Lfunc_begin13:
	.loc	19 138 0                        @ lvgl/src/lv_widgets/../lv_misc/lv_anim.h:138:0
	.fnstart
	.cfi_startproc
@ %bb.0:
	.pad	#8
	sub	sp, #8
	.cfi_def_cfa_offset 8
	str	r0, [sp, #4]
	str	r1, [sp]
.Ltmp285:
	.loc	19 139 18 prologue_end          @ lvgl/src/lv_widgets/../lv_misc/lv_anim.h:139:18
	ldr	r0, [sp]
	.loc	19 139 5 is_stmt 0              @ lvgl/src/lv_widgets/../lv_misc/lv_anim.h:139:5
	ldr	r1, [sp, #4]
	.loc	19 139 16                       @ lvgl/src/lv_widgets/../lv_misc/lv_anim.h:139:16
	str	r0, [r1, #4]
	.loc	19 140 1 is_stmt 1              @ lvgl/src/lv_widgets/../lv_misc/lv_anim.h:140:1
	add	sp, #8
	bx	lr
.Ltmp286:
.Lfunc_end13:
	.size	lv_anim_set_exec_cb, .Lfunc_end13-lv_anim_set_exec_cb
	.cfi_endproc
	.cantunwind
	.fnend
                                        @ -- End function
	.section	.text.cursor_blink_anim,"ax",%progbits
	.p2align	3                               @ -- Begin function cursor_blink_anim
	.type	cursor_blink_anim,%function
	.code	16                              @ @cursor_blink_anim
	.thumb_func
cursor_blink_anim:
.Lfunc_begin14:
	.loc	10 1599 0                       @ lvgl/src/lv_widgets/lv_textarea.c:1599:0
	.fnstart
	.cfi_startproc
@ %bb.0:
	.save	{r7, lr}
	push	{r7, lr}
	.cfi_def_cfa_offset 8
	.cfi_offset lr, -4
	.cfi_offset r7, -8
	.pad	#24
	sub	sp, #24
	.cfi_def_cfa_offset 32
                                        @ kill: def $r2 killed $r1
	str	r0, [sp, #20]
	strh.w	r1, [sp, #18]
.Ltmp287:
	.loc	10 1600 51 prologue_end         @ lvgl/src/lv_widgets/lv_textarea.c:1600:51
	ldr	r0, [sp, #20]
	.loc	10 1600 31 is_stmt 0            @ lvgl/src/lv_widgets/lv_textarea.c:1600:31
	bl	lv_obj_get_ext_attr
	.loc	10 1600 25                      @ lvgl/src/lv_widgets/lv_textarea.c:1600:25
	str	r0, [sp, #12]
.Ltmp288:
	.loc	10 1601 8 is_stmt 1             @ lvgl/src/lv_widgets/lv_textarea.c:1601:8
	ldrsh.w	r0, [sp, #18]
	.loc	10 1601 16 is_stmt 0            @ lvgl/src/lv_widgets/lv_textarea.c:1601:16
	ldr	r1, [sp, #12]
	.loc	10 1601 28                      @ lvgl/src/lv_widgets/lv_textarea.c:1601:28
	ldrb.w	r1, [r1, #128]
	.loc	10 1601 16                      @ lvgl/src/lv_widgets/lv_textarea.c:1601:16
	and	r1, r1, #1
.Ltmp289:
	.loc	10 1601 8                       @ lvgl/src/lv_widgets/lv_textarea.c:1601:8
	cmp	r0, r1
	beq	.LBB14_4
	b	.LBB14_1
.LBB14_1:
.Ltmp290:
	.loc	10 1602 29 is_stmt 1            @ lvgl/src/lv_widgets/lv_textarea.c:1602:29
	ldrsh.w	r2, [sp, #18]
	.loc	10 1602 34 is_stmt 0            @ lvgl/src/lv_widgets/lv_textarea.c:1602:34
	cmp	r2, #0
	it	ne
	movne	r2, #1
	.loc	10 1602 9                       @ lvgl/src/lv_widgets/lv_textarea.c:1602:9
	ldr	r1, [sp, #12]
	.loc	10 1602 27                      @ lvgl/src/lv_widgets/lv_textarea.c:1602:27
	ldrb.w	r0, [r1, #128]
	and	r0, r0, #254
	add	r0, r2
	strb.w	r0, [r1, #128]
.Ltmp291:
	.loc	10 1603 12 is_stmt 1            @ lvgl/src/lv_widgets/lv_textarea.c:1603:12
	ldr	r0, [sp, #12]
	.loc	10 1603 24 is_stmt 0            @ lvgl/src/lv_widgets/lv_textarea.c:1603:24
	ldrb.w	r0, [r0, #128]
	lsrs	r0, r0, #1
.Ltmp292:
	.loc	10 1603 12                      @ lvgl/src/lv_widgets/lv_textarea.c:1603:12
	lsls	r0, r0, #31
	cbnz	r0, .LBB14_3
	b	.LBB14_2
.LBB14_2:
.Ltmp293:
	.loc	10 1605 38 is_stmt 1            @ lvgl/src/lv_widgets/lv_textarea.c:1605:38
	ldr	r0, [sp, #12]
	.loc	10 1605 50 is_stmt 0            @ lvgl/src/lv_widgets/lv_textarea.c:1605:50
	add.w	r1, r0, #114
	add	r0, sp, #4
	.loc	10 1605 13                      @ lvgl/src/lv_widgets/lv_textarea.c:1605:13
	str	r0, [sp]                        @ 4-byte Spill
	bl	lv_area_copy
	ldr	r1, [sp]                        @ 4-byte Reload
	.loc	10 1606 28 is_stmt 1            @ lvgl/src/lv_widgets/lv_textarea.c:1606:28
	ldr	r0, [sp, #12]
	.loc	10 1606 33 is_stmt 0            @ lvgl/src/lv_widgets/lv_textarea.c:1606:33
	ldr	r0, [r0, #64]
	.loc	10 1606 28                      @ lvgl/src/lv_widgets/lv_textarea.c:1606:28
	ldrh	r2, [r0, #16]
	.loc	10 1606 25                      @ lvgl/src/lv_widgets/lv_textarea.c:1606:25
	ldrh.w	r0, [sp, #4]
	add	r0, r2
	strh.w	r0, [sp, #4]
	.loc	10 1607 28 is_stmt 1            @ lvgl/src/lv_widgets/lv_textarea.c:1607:28
	ldr	r0, [sp, #12]
	.loc	10 1607 33 is_stmt 0            @ lvgl/src/lv_widgets/lv_textarea.c:1607:33
	ldr	r0, [r0, #64]
	.loc	10 1607 28                      @ lvgl/src/lv_widgets/lv_textarea.c:1607:28
	ldrh	r2, [r0, #18]
	.loc	10 1607 25                      @ lvgl/src/lv_widgets/lv_textarea.c:1607:25
	ldrh.w	r0, [sp, #6]
	add	r0, r2
	strh.w	r0, [sp, #6]
	.loc	10 1608 28 is_stmt 1            @ lvgl/src/lv_widgets/lv_textarea.c:1608:28
	ldr	r0, [sp, #12]
	.loc	10 1608 33 is_stmt 0            @ lvgl/src/lv_widgets/lv_textarea.c:1608:33
	ldr	r0, [r0, #64]
	.loc	10 1608 28                      @ lvgl/src/lv_widgets/lv_textarea.c:1608:28
	ldrh	r2, [r0, #16]
	.loc	10 1608 25                      @ lvgl/src/lv_widgets/lv_textarea.c:1608:25
	ldrh.w	r0, [sp, #8]
	add	r0, r2
	strh.w	r0, [sp, #8]
	.loc	10 1609 28 is_stmt 1            @ lvgl/src/lv_widgets/lv_textarea.c:1609:28
	ldr	r0, [sp, #12]
	.loc	10 1609 33 is_stmt 0            @ lvgl/src/lv_widgets/lv_textarea.c:1609:33
	ldr	r0, [r0, #64]
	.loc	10 1609 28                      @ lvgl/src/lv_widgets/lv_textarea.c:1609:28
	ldrh	r2, [r0, #18]
	.loc	10 1609 25                      @ lvgl/src/lv_widgets/lv_textarea.c:1609:25
	ldrh.w	r0, [sp, #10]
	add	r0, r2
	strh.w	r0, [sp, #10]
	.loc	10 1610 36 is_stmt 1            @ lvgl/src/lv_widgets/lv_textarea.c:1610:36
	ldr	r0, [sp, #20]
	.loc	10 1610 13 is_stmt 0            @ lvgl/src/lv_widgets/lv_textarea.c:1610:13
	bl	lv_obj_invalidate_area
	.loc	10 1611 9 is_stmt 1             @ lvgl/src/lv_widgets/lv_textarea.c:1611:9
	b	.LBB14_3
.Ltmp294:
.LBB14_3:
	.loc	10 1612 5                       @ lvgl/src/lv_widgets/lv_textarea.c:1612:5
	b	.LBB14_4
.Ltmp295:
.LBB14_4:
	.loc	10 1613 1                       @ lvgl/src/lv_widgets/lv_textarea.c:1613:1
	add	sp, #24
	pop	{r7, pc}
.Ltmp296:
.Lfunc_end14:
	.size	cursor_blink_anim, .Lfunc_end14-cursor_blink_anim
	.cfi_endproc
	.cantunwind
	.fnend
                                        @ -- End function
	.section	.text.lv_anim_set_time,"ax",%progbits
	.p2align	3                               @ -- Begin function lv_anim_set_time
	.type	lv_anim_set_time,%function
	.code	16                              @ @lv_anim_set_time
	.thumb_func
lv_anim_set_time:
.Lfunc_begin15:
	.loc	19 148 0                        @ lvgl/src/lv_widgets/../lv_misc/lv_anim.h:148:0
	.fnstart
	.cfi_startproc
@ %bb.0:
	.pad	#8
	sub	sp, #8
	.cfi_def_cfa_offset 8
	str	r0, [sp, #4]
	str	r1, [sp]
.Ltmp297:
	.loc	19 149 15 prologue_end          @ lvgl/src/lv_widgets/../lv_misc/lv_anim.h:149:15
	ldr	r0, [sp]
	.loc	19 149 5 is_stmt 0              @ lvgl/src/lv_widgets/../lv_misc/lv_anim.h:149:5
	ldr	r1, [sp, #4]
	.loc	19 149 13                       @ lvgl/src/lv_widgets/../lv_misc/lv_anim.h:149:13
	str	r0, [r1, #36]
	.loc	19 150 1 is_stmt 1              @ lvgl/src/lv_widgets/../lv_misc/lv_anim.h:150:1
	add	sp, #8
	bx	lr
.Ltmp298:
.Lfunc_end15:
	.size	lv_anim_set_time, .Lfunc_end15-lv_anim_set_time
	.cfi_endproc
	.cantunwind
	.fnend
                                        @ -- End function
	.section	.text.lv_anim_set_playback_time,"ax",%progbits
	.p2align	3                               @ -- Begin function lv_anim_set_playback_time
	.type	lv_anim_set_playback_time,%function
	.code	16                              @ @lv_anim_set_playback_time
	.thumb_func
lv_anim_set_playback_time:
.Lfunc_begin16:
	.loc	19 227 0                        @ lvgl/src/lv_widgets/../lv_misc/lv_anim.h:227:0
	.fnstart
	.cfi_startproc
@ %bb.0:
	.pad	#8
	sub	sp, #8
	.cfi_def_cfa_offset 8
	str	r0, [sp, #4]
	str	r1, [sp]
.Ltmp299:
	.loc	19 228 24 prologue_end          @ lvgl/src/lv_widgets/../lv_misc/lv_anim.h:228:24
	ldr	r0, [sp]
	.loc	19 228 5 is_stmt 0              @ lvgl/src/lv_widgets/../lv_misc/lv_anim.h:228:5
	ldr	r1, [sp, #4]
	.loc	19 228 22                       @ lvgl/src/lv_widgets/../lv_misc/lv_anim.h:228:22
	str	r0, [r1, #48]
	.loc	19 229 1 is_stmt 1              @ lvgl/src/lv_widgets/../lv_misc/lv_anim.h:229:1
	add	sp, #8
	bx	lr
.Ltmp300:
.Lfunc_end16:
	.size	lv_anim_set_playback_time, .Lfunc_end16-lv_anim_set_playback_time
	.cfi_endproc
	.cantunwind
	.fnend
                                        @ -- End function
	.section	.text.lv_anim_set_values,"ax",%progbits
	.p2align	3                               @ -- Begin function lv_anim_set_values
	.type	lv_anim_set_values,%function
	.code	16                              @ @lv_anim_set_values
	.thumb_func
lv_anim_set_values:
.Lfunc_begin17:
	.loc	19 169 0                        @ lvgl/src/lv_widgets/../lv_misc/lv_anim.h:169:0
	.fnstart
	.cfi_startproc
@ %bb.0:
	.pad	#8
	sub	sp, #8
	.cfi_def_cfa_offset 8
                                        @ kill: def $r3 killed $r2
                                        @ kill: def $r3 killed $r1
	str	r0, [sp, #4]
	strh.w	r1, [sp, #2]
	strh.w	r2, [sp]
.Ltmp301:
	.loc	19 170 16 prologue_end          @ lvgl/src/lv_widgets/../lv_misc/lv_anim.h:170:16
	ldrsh.w	r0, [sp, #2]
	.loc	19 170 5 is_stmt 0              @ lvgl/src/lv_widgets/../lv_misc/lv_anim.h:170:5
	ldr	r1, [sp, #4]
	.loc	19 170 14                       @ lvgl/src/lv_widgets/../lv_misc/lv_anim.h:170:14
	str	r0, [r1, #24]
	.loc	19 171 18 is_stmt 1             @ lvgl/src/lv_widgets/../lv_misc/lv_anim.h:171:18
	ldrsh.w	r0, [sp, #2]
	.loc	19 171 5 is_stmt 0              @ lvgl/src/lv_widgets/../lv_misc/lv_anim.h:171:5
	ldr	r1, [sp, #4]
	.loc	19 171 16                       @ lvgl/src/lv_widgets/../lv_misc/lv_anim.h:171:16
	str	r0, [r1, #28]
	.loc	19 172 14 is_stmt 1             @ lvgl/src/lv_widgets/../lv_misc/lv_anim.h:172:14
	ldrsh.w	r0, [sp]
	.loc	19 172 5 is_stmt 0              @ lvgl/src/lv_widgets/../lv_misc/lv_anim.h:172:5
	ldr	r1, [sp, #4]
	.loc	19 172 12                       @ lvgl/src/lv_widgets/../lv_misc/lv_anim.h:172:12
	str	r0, [r1, #32]
	.loc	19 173 1 is_stmt 1              @ lvgl/src/lv_widgets/../lv_misc/lv_anim.h:173:1
	add	sp, #8
	bx	lr
.Ltmp302:
.Lfunc_end17:
	.size	lv_anim_set_values, .Lfunc_end17-lv_anim_set_values
	.cfi_endproc
	.cantunwind
	.fnend
                                        @ -- End function
	.section	.text.lv_anim_set_path,"ax",%progbits
	.p2align	3                               @ -- Begin function lv_anim_set_path
	.type	lv_anim_set_path,%function
	.code	16                              @ @lv_anim_set_path
	.thumb_func
lv_anim_set_path:
.Lfunc_begin18:
	.loc	19 197 0                        @ lvgl/src/lv_widgets/../lv_misc/lv_anim.h:197:0
	.fnstart
	.cfi_startproc
@ %bb.0:
	.save	{r7, lr}
	push	{r7, lr}
	.cfi_def_cfa_offset 8
	.cfi_offset lr, -4
	.cfi_offset r7, -8
	.pad	#8
	sub	sp, #8
	.cfi_def_cfa_offset 16
	str	r0, [sp, #4]
	str	r1, [sp]
.Ltmp303:
	.loc	19 198 23 prologue_end          @ lvgl/src/lv_widgets/../lv_misc/lv_anim.h:198:23
	ldr	r0, [sp, #4]
	.loc	19 198 26 is_stmt 0             @ lvgl/src/lv_widgets/../lv_misc/lv_anim.h:198:26
	adds	r0, #16
	.loc	19 198 32                       @ lvgl/src/lv_widgets/../lv_misc/lv_anim.h:198:32
	ldr	r1, [sp]
	movs	r2, #8
	.loc	19 198 5                        @ lvgl/src/lv_widgets/../lv_misc/lv_anim.h:198:5
	bl	_lv_memcpy_small
	.loc	19 199 1 is_stmt 1              @ lvgl/src/lv_widgets/../lv_misc/lv_anim.h:199:1
	add	sp, #8
	pop	{r7, pc}
.Ltmp304:
.Lfunc_end18:
	.size	lv_anim_set_path, .Lfunc_end18-lv_anim_set_path
	.cfi_endproc
	.cantunwind
	.fnend
                                        @ -- End function
	.section	.text.lv_anim_set_repeat_count,"ax",%progbits
	.p2align	3                               @ -- Begin function lv_anim_set_repeat_count
	.type	lv_anim_set_repeat_count,%function
	.code	16                              @ @lv_anim_set_repeat_count
	.thumb_func
lv_anim_set_repeat_count:
.Lfunc_begin19:
	.loc	19 247 0                        @ lvgl/src/lv_widgets/../lv_misc/lv_anim.h:247:0
	.fnstart
	.cfi_startproc
@ %bb.0:
	.pad	#8
	sub	sp, #8
	.cfi_def_cfa_offset 8
                                        @ kill: def $r2 killed $r1
	str	r0, [sp, #4]
	strh.w	r1, [sp, #2]
.Ltmp305:
	.loc	19 248 21 prologue_end          @ lvgl/src/lv_widgets/../lv_misc/lv_anim.h:248:21
	ldrh.w	r0, [sp, #2]
	.loc	19 248 5 is_stmt 0              @ lvgl/src/lv_widgets/../lv_misc/lv_anim.h:248:5
	ldr	r1, [sp, #4]
	.loc	19 248 19                       @ lvgl/src/lv_widgets/../lv_misc/lv_anim.h:248:19
	strh	r0, [r1, #56]
	.loc	19 249 1 is_stmt 1              @ lvgl/src/lv_widgets/../lv_misc/lv_anim.h:249:1
	add	sp, #8
	bx	lr
.Ltmp306:
.Lfunc_end19:
	.size	lv_anim_set_repeat_count, .Lfunc_end19-lv_anim_set_repeat_count
	.cfi_endproc
	.cantunwind
	.fnend
                                        @ -- End function
	.section	.text.lv_textarea_add_char,"ax",%progbits
	.hidden	lv_textarea_add_char            @ -- Begin function lv_textarea_add_char
	.globl	lv_textarea_add_char
	.p2align	3
	.type	lv_textarea_add_char,%function
	.code	16                              @ @lv_textarea_add_char
	.thumb_func
lv_textarea_add_char:
.Lfunc_begin20:
	.loc	10 230 0                        @ lvgl/src/lv_widgets/lv_textarea.c:230:0
	.fnstart
	.cfi_startproc
@ %bb.0:
	.save	{r7, lr}
	push	{r7, lr}
	.cfi_def_cfa_offset 8
	.cfi_offset lr, -4
	.cfi_offset r7, -8
	.pad	#136
	sub	sp, #136
	.cfi_def_cfa_offset 144
	str	r0, [sp, #132]
	str	r1, [sp, #128]
.Ltmp307:
	.loc	10 231 5 prologue_end           @ lvgl/src/lv_widgets/lv_textarea.c:231:5
	b	.LBB20_1
.LBB20_1:
.Ltmp308:
	.loc	10 231 5 is_stmt 0              @ lvgl/src/lv_widgets/lv_textarea.c:231:5
	ldr	r0, [sp, #132]
	bl	lv_debug_check_null
.Ltmp309:
	.loc	10 231 5                        @ lvgl/src/lv_widgets/lv_textarea.c:231:5
	cbnz	r0, .LBB20_4
	b	.LBB20_2
.LBB20_2:
.Ltmp310:
	.loc	10 231 5                        @ lvgl/src/lv_widgets/lv_textarea.c:231:5
	ldr	r2, [sp, #132]
	movw	r0, :lower16:.L.str.2
	movt	r0, :upper16:.L.str.2
	movs	r3, #0
	bl	lv_debug_log_error
	b	.LBB20_3
.LBB20_3:                               @ =>This Inner Loop Header: Depth=1
	b	.LBB20_3
.Ltmp311:
.LBB20_4:
	.loc	10 231 5                        @ lvgl/src/lv_widgets/lv_textarea.c:231:5
	b	.LBB20_5
.Ltmp312:
.LBB20_5:
	.loc	10 233 51 is_stmt 1             @ lvgl/src/lv_widgets/lv_textarea.c:233:51
	ldr	r0, [sp, #132]
	.loc	10 233 31 is_stmt 0             @ lvgl/src/lv_widgets/lv_textarea.c:233:31
	bl	lv_obj_get_ext_attr
	.loc	10 233 25                       @ lvgl/src/lv_widgets/lv_textarea.c:233:25
	str	r0, [sp, #124]
	.loc	10 238 18 is_stmt 1             @ lvgl/src/lv_widgets/lv_textarea.c:238:18
	ldr	r0, [sp, #128]
	.loc	10 238 16 is_stmt 0             @ lvgl/src/lv_widgets/lv_textarea.c:238:16
	str	r0, [sp, #112]
	movs	r0, #0
	.loc	10 239 16 is_stmt 1             @ lvgl/src/lv_widgets/lv_textarea.c:239:16
	str	r0, [sp, #116]
	add	r0, sp, #112
	.loc	10 241 16                       @ lvgl/src/lv_widgets/lv_textarea.c:241:16
	str	r0, [sp, #120]
	.loc	10 247 35                       @ lvgl/src/lv_widgets/lv_textarea.c:247:35
	ldr	r0, [sp, #132]
	.loc	10 247 39 is_stmt 0             @ lvgl/src/lv_widgets/lv_textarea.c:247:39
	ldr	r1, [sp, #120]
	.loc	10 247 20                       @ lvgl/src/lv_widgets/lv_textarea.c:247:20
	bl	insert_handler
	.loc	10 247 14                       @ lvgl/src/lv_widgets/lv_textarea.c:247:14
	strb.w	r0, [sp, #111]
.Ltmp313:
	.loc	10 248 8 is_stmt 1              @ lvgl/src/lv_widgets/lv_textarea.c:248:8
	ldrb.w	r0, [sp, #111]
.Ltmp314:
	.loc	10 248 8 is_stmt 0              @ lvgl/src/lv_widgets/lv_textarea.c:248:8
	cmp	r0, #1
	beq	.LBB20_7
	b	.LBB20_6
.LBB20_6:
.Ltmp315:
	.loc	10 248 26                       @ lvgl/src/lv_widgets/lv_textarea.c:248:26
	b	.LBB20_32
.Ltmp316:
.LBB20_7:
	.loc	10 250 8 is_stmt 1              @ lvgl/src/lv_widgets/lv_textarea.c:250:8
	ldr	r0, [sp, #124]
	.loc	10 250 13 is_stmt 0             @ lvgl/src/lv_widgets/lv_textarea.c:250:13
	ldrb.w	r0, [r0, #132]
	lsrs	r0, r0, #1
	.loc	10 250 22                       @ lvgl/src/lv_widgets/lv_textarea.c:250:22
	lsls	r0, r0, #31
	cbz	r0, .LBB20_11
	b	.LBB20_8
.LBB20_8:
	.loc	10 250 26                       @ lvgl/src/lv_widgets/lv_textarea.c:250:26
	ldr	r0, [sp, #128]
	.loc	10 250 36                       @ lvgl/src/lv_widgets/lv_textarea.c:250:36
	cmp	r0, #10
	beq	.LBB20_10
	b	.LBB20_9
.LBB20_9:
	.loc	10 250 39                       @ lvgl/src/lv_widgets/lv_textarea.c:250:39
	ldr	r0, [sp, #128]
.Ltmp317:
	.loc	10 250 8                        @ lvgl/src/lv_widgets/lv_textarea.c:250:8
	cmp	r0, #13
	bne	.LBB20_11
	b	.LBB20_10
.LBB20_10:
.Ltmp318:
	.loc	10 252 9 is_stmt 1              @ lvgl/src/lv_widgets/lv_textarea.c:252:9
	b	.LBB20_32
.Ltmp319:
.LBB20_11:
	.loc	10 255 22                       @ lvgl/src/lv_widgets/lv_textarea.c:255:22
	movw	r0, :lower16:_lv_txt_encoded_next
	movt	r0, :upper16:_lv_txt_encoded_next
	ldr	r2, [r0]
	add	r0, sp, #128
	movs	r1, #0
	blx	r2
	.loc	10 255 14 is_stmt 0             @ lvgl/src/lv_widgets/lv_textarea.c:255:14
	str	r0, [sp, #104]
.Ltmp320:
	.loc	10 257 25 is_stmt 1             @ lvgl/src/lv_widgets/lv_textarea.c:257:25
	ldr	r0, [sp, #132]
	.loc	10 257 29 is_stmt 0             @ lvgl/src/lv_widgets/lv_textarea.c:257:29
	ldr	r1, [sp, #104]
	.loc	10 257 8                        @ lvgl/src/lv_widgets/lv_textarea.c:257:8
	bl	char_is_accepted
.Ltmp321:
	.loc	10 257 8                        @ lvgl/src/lv_widgets/lv_textarea.c:257:8
	cbnz	r0, .LBB20_13
	b	.LBB20_12
.LBB20_12:
.Ltmp322:
	.loc	10 260 9 is_stmt 1              @ lvgl/src/lv_widgets/lv_textarea.c:260:9
	b	.LBB20_32
.Ltmp323:
.LBB20_13:
	.loc	10 264 53                       @ lvgl/src/lv_widgets/lv_textarea.c:264:53
	ldr	r0, [sp, #132]
	.loc	10 264 26 is_stmt 0             @ lvgl/src/lv_widgets/lv_textarea.c:264:26
	bl	lv_textarea_get_edge_flash
	.loc	10 264 10                       @ lvgl/src/lv_widgets/lv_textarea.c:264:10
	strb.w	r0, [sp, #103]
	.loc	10 265 32 is_stmt 1             @ lvgl/src/lv_widgets/lv_textarea.c:265:32
	ldr	r0, [sp, #132]
	movs	r1, #0
	.loc	10 265 5 is_stmt 0              @ lvgl/src/lv_widgets/lv_textarea.c:265:5
	bl	lv_textarea_set_edge_flash
.Ltmp324:
	.loc	10 267 8 is_stmt 1              @ lvgl/src/lv_widgets/lv_textarea.c:267:8
	ldr	r0, [sp, #124]
	.loc	10 267 13 is_stmt 0             @ lvgl/src/lv_widgets/lv_textarea.c:267:13
	ldrb.w	r0, [r0, #132]
.Ltmp325:
	.loc	10 267 8                        @ lvgl/src/lv_widgets/lv_textarea.c:267:8
	lsls	r0, r0, #31
	cbz	r0, .LBB20_15
	b	.LBB20_14
.LBB20_14:
.Ltmp326:
	.loc	10 267 43                       @ lvgl/src/lv_widgets/lv_textarea.c:267:43
	ldr	r0, [sp, #132]
	.loc	10 267 28                       @ lvgl/src/lv_widgets/lv_textarea.c:267:28
	bl	pwd_char_hider
	b	.LBB20_15
.Ltmp327:
.LBB20_15:
	.loc	10 270 8 is_stmt 1              @ lvgl/src/lv_widgets/lv_textarea.c:270:8
	ldr	r0, [sp, #124]
	.loc	10 270 13 is_stmt 0             @ lvgl/src/lv_widgets/lv_textarea.c:270:13
	ldr	r0, [r0, #68]
.Ltmp328:
	.loc	10 270 8                        @ lvgl/src/lv_widgets/lv_textarea.c:270:8
	cbz	r0, .LBB20_19
	b	.LBB20_16
.LBB20_16:
.Ltmp329:
	.loc	10 271 46 is_stmt 1             @ lvgl/src/lv_widgets/lv_textarea.c:271:46
	ldr	r0, [sp, #124]
	.loc	10 271 51 is_stmt 0             @ lvgl/src/lv_widgets/lv_textarea.c:271:51
	ldr	r0, [r0, #64]
	.loc	10 271 28                       @ lvgl/src/lv_widgets/lv_textarea.c:271:28
	bl	lv_label_get_text
	.loc	10 271 22                       @ lvgl/src/lv_widgets/lv_textarea.c:271:22
	str	r0, [sp, #96]
.Ltmp330:
	.loc	10 272 12 is_stmt 1             @ lvgl/src/lv_widgets/lv_textarea.c:272:12
	ldr	r0, [sp, #96]
	ldrsb.w	r0, [r0]
.Ltmp331:
	.loc	10 272 12 is_stmt 0             @ lvgl/src/lv_widgets/lv_textarea.c:272:12
	cbnz	r0, .LBB20_18
	b	.LBB20_17
.LBB20_17:
.Ltmp332:
	.loc	10 272 46                       @ lvgl/src/lv_widgets/lv_textarea.c:272:46
	ldr	r0, [sp, #132]
	.loc	10 272 28                       @ lvgl/src/lv_widgets/lv_textarea.c:272:28
	bl	lv_obj_invalidate
	b	.LBB20_18
.Ltmp333:
.LBB20_18:
	.loc	10 273 5 is_stmt 1              @ lvgl/src/lv_widgets/lv_textarea.c:273:5
	b	.LBB20_19
.Ltmp334:
.LBB20_19:
	.loc	10 275 23                       @ lvgl/src/lv_widgets/lv_textarea.c:275:23
	ldr	r1, [sp, #124]
	.loc	10 275 28 is_stmt 0             @ lvgl/src/lv_widgets/lv_textarea.c:275:28
	ldr	r0, [r1, #64]
	.loc	10 275 47                       @ lvgl/src/lv_widgets/lv_textarea.c:275:47
	ldr	r1, [r1, #108]
	.loc	10 275 52                       @ lvgl/src/lv_widgets/lv_textarea.c:275:52
	ldr	r2, [sp, #120]
	.loc	10 275 5                        @ lvgl/src/lv_widgets/lv_textarea.c:275:5
	bl	lv_label_ins_text
	.loc	10 276 33 is_stmt 1             @ lvgl/src/lv_widgets/lv_textarea.c:276:33
	ldr	r0, [sp, #132]
	.loc	10 276 5 is_stmt 0              @ lvgl/src/lv_widgets/lv_textarea.c:276:5
	bl	lv_textarea_clear_selection
.Ltmp335:
	.loc	10 278 8 is_stmt 1              @ lvgl/src/lv_widgets/lv_textarea.c:278:8
	ldr	r0, [sp, #124]
	.loc	10 278 13 is_stmt 0             @ lvgl/src/lv_widgets/lv_textarea.c:278:13
	ldrb.w	r0, [r0, #132]
.Ltmp336:
	.loc	10 278 8                        @ lvgl/src/lv_widgets/lv_textarea.c:278:8
	lsls	r0, r0, #31
	cmp	r0, #0
	beq	.LBB20_31
	b	.LBB20_20
.LBB20_20:
.Ltmp337:
	.loc	10 279 39 is_stmt 1             @ lvgl/src/lv_widgets/lv_textarea.c:279:39
	ldr	r0, [sp, #124]
	.loc	10 279 44 is_stmt 0             @ lvgl/src/lv_widgets/lv_textarea.c:279:44
	ldr	r0, [r0, #80]
	.loc	10 279 53                       @ lvgl/src/lv_widgets/lv_textarea.c:279:53
	str	r0, [sp, #20]                   @ 4-byte Spill
	bl	strlen
	.loc	10 279 83                       @ lvgl/src/lv_widgets/lv_textarea.c:279:83
	str	r0, [sp, #16]                   @ 4-byte Spill
	ldr	r0, [sp, #120]
	.loc	10 279 76                       @ lvgl/src/lv_widgets/lv_textarea.c:279:76
	bl	strlen
	ldr	r1, [sp, #16]                   @ 4-byte Reload
	mov	r2, r0
	.loc	10 279 74                       @ lvgl/src/lv_widgets/lv_textarea.c:279:74
	ldr	r0, [sp, #20]                   @ 4-byte Reload
	add	r1, r2
	.loc	10 279 95                       @ lvgl/src/lv_widgets/lv_textarea.c:279:95
	adds	r1, #1
	.loc	10 279 24                       @ lvgl/src/lv_widgets/lv_textarea.c:279:24
	bl	lv_mem_realloc
	.loc	10 279 9                        @ lvgl/src/lv_widgets/lv_textarea.c:279:9
	ldr	r1, [sp, #124]
	.loc	10 279 22                       @ lvgl/src/lv_widgets/lv_textarea.c:279:22
	str	r0, [r1, #80]
	.loc	10 280 9 is_stmt 1              @ lvgl/src/lv_widgets/lv_textarea.c:280:9
	b	.LBB20_21
.LBB20_21:
.Ltmp338:
	.loc	10 280 9 is_stmt 0              @ lvgl/src/lv_widgets/lv_textarea.c:280:9
	ldr	r0, [sp, #124]
	ldr	r0, [r0, #80]
	bl	lv_debug_check_null
.Ltmp339:
	.loc	10 280 9                        @ lvgl/src/lv_widgets/lv_textarea.c:280:9
	cbnz	r0, .LBB20_24
	b	.LBB20_22
.LBB20_22:
.Ltmp340:
	.loc	10 280 9                        @ lvgl/src/lv_widgets/lv_textarea.c:280:9
	ldr	r0, [sp, #124]
	ldr	r2, [r0, #80]
	movw	r0, :lower16:.L.str
	movt	r0, :upper16:.L.str
	movs	r3, #0
	bl	lv_debug_log_error
	b	.LBB20_23
.LBB20_23:                              @ =>This Inner Loop Header: Depth=1
	b	.LBB20_23
.Ltmp341:
.LBB20_24:
	.loc	10 280 9                        @ lvgl/src/lv_widgets/lv_textarea.c:280:9
	b	.LBB20_25
.Ltmp342:
.LBB20_25:
	.loc	10 281 12 is_stmt 1             @ lvgl/src/lv_widgets/lv_textarea.c:281:12
	ldr	r0, [sp, #124]
	.loc	10 281 17 is_stmt 0             @ lvgl/src/lv_widgets/lv_textarea.c:281:17
	ldr	r0, [r0, #80]
.Ltmp343:
	.loc	10 281 12                       @ lvgl/src/lv_widgets/lv_textarea.c:281:12
	cbnz	r0, .LBB20_27
	b	.LBB20_26
.LBB20_26:
.Ltmp344:
	.loc	10 281 34                       @ lvgl/src/lv_widgets/lv_textarea.c:281:34
	b	.LBB20_32
.Ltmp345:
.LBB20_27:
	.loc	10 283 21 is_stmt 1             @ lvgl/src/lv_widgets/lv_textarea.c:283:21
	ldr	r1, [sp, #124]
	.loc	10 283 26 is_stmt 0             @ lvgl/src/lv_widgets/lv_textarea.c:283:26
	ldr	r0, [r1, #80]
	.loc	10 283 47                       @ lvgl/src/lv_widgets/lv_textarea.c:283:47
	ldr	r1, [r1, #108]
	.loc	10 283 66                       @ lvgl/src/lv_widgets/lv_textarea.c:283:66
	ldr	r2, [sp, #120]
	.loc	10 283 9                        @ lvgl/src/lv_widgets/lv_textarea.c:283:9
	bl	_lv_txt_ins
.Ltmp346:
	.loc	10 287 12 is_stmt 1             @ lvgl/src/lv_widgets/lv_textarea.c:287:12
	ldr	r0, [sp, #124]
	.loc	10 287 17 is_stmt 0             @ lvgl/src/lv_widgets/lv_textarea.c:287:17
	ldrh.w	r0, [r0, #92]
.Ltmp347:
	.loc	10 287 12                       @ lvgl/src/lv_widgets/lv_textarea.c:287:12
	cbnz	r0, .LBB20_29
	b	.LBB20_28
.LBB20_28:
.Ltmp348:
	.loc	10 288 28 is_stmt 1             @ lvgl/src/lv_widgets/lv_textarea.c:288:28
	ldr	r0, [sp, #132]
	.loc	10 288 13 is_stmt 0             @ lvgl/src/lv_widgets/lv_textarea.c:288:13
	bl	pwd_char_hider
	.loc	10 289 9 is_stmt 1              @ lvgl/src/lv_widgets/lv_textarea.c:289:9
	b	.LBB20_30
.Ltmp349:
.LBB20_29:
	.loc	10 0 9 is_stmt 0                @ lvgl/src/lv_widgets/lv_textarea.c:0:9
	add	r0, sp, #88
.Ltmp350:
	.loc	10 292 13 is_stmt 1             @ lvgl/src/lv_widgets/lv_textarea.c:292:13
	str	r0, [sp, #8]                    @ 4-byte Spill
	bl	lv_anim_path_init
	ldr	r0, [sp, #8]                    @ 4-byte Reload
	.loc	10 293 13                       @ lvgl/src/lv_widgets/lv_textarea.c:293:13
	movw	r1, :lower16:lv_anim_path_step
	movt	r1, :upper16:lv_anim_path_step
	bl	lv_anim_path_set_cb
	add	r0, sp, #24
	.loc	10 296 13                       @ lvgl/src/lv_widgets/lv_textarea.c:296:13
	str	r0, [sp, #12]                   @ 4-byte Spill
	bl	lv_anim_init
	ldr	r0, [sp, #12]                   @ 4-byte Reload
	.loc	10 297 33                       @ lvgl/src/lv_widgets/lv_textarea.c:297:33
	ldr	r1, [sp, #132]
	.loc	10 297 13 is_stmt 0             @ lvgl/src/lv_widgets/lv_textarea.c:297:13
	bl	lv_anim_set_var
	ldr	r0, [sp, #12]                   @ 4-byte Reload
	.loc	10 298 13 is_stmt 1             @ lvgl/src/lv_widgets/lv_textarea.c:298:13
	movw	r1, :lower16:pwd_char_hider_anim
	movt	r1, :upper16:pwd_char_hider_anim
	bl	lv_anim_set_exec_cb
	ldr	r0, [sp, #12]                   @ 4-byte Reload
	.loc	10 299 34                       @ lvgl/src/lv_widgets/lv_textarea.c:299:34
	ldr	r1, [sp, #124]
	.loc	10 299 39 is_stmt 0             @ lvgl/src/lv_widgets/lv_textarea.c:299:39
	ldrh.w	r1, [r1, #92]
	.loc	10 299 13                       @ lvgl/src/lv_widgets/lv_textarea.c:299:13
	bl	lv_anim_set_time
	ldr	r0, [sp, #12]                   @ 4-byte Reload
	movs	r1, #0
	movs	r2, #1
	.loc	10 300 13 is_stmt 1             @ lvgl/src/lv_widgets/lv_textarea.c:300:13
	bl	lv_anim_set_values
	ldr	r1, [sp, #8]                    @ 4-byte Reload
	ldr	r0, [sp, #12]                   @ 4-byte Reload
	.loc	10 301 13                       @ lvgl/src/lv_widgets/lv_textarea.c:301:13
	bl	lv_anim_set_path
	ldr	r0, [sp, #12]                   @ 4-byte Reload
	.loc	10 302 13                       @ lvgl/src/lv_widgets/lv_textarea.c:302:13
	movw	r1, :lower16:pwd_char_hider_anim_ready
	movt	r1, :upper16:pwd_char_hider_anim_ready
	bl	lv_anim_set_ready_cb
	ldr	r0, [sp, #12]                   @ 4-byte Reload
	.loc	10 303 13                       @ lvgl/src/lv_widgets/lv_textarea.c:303:13
	bl	lv_anim_start
	b	.LBB20_30
.Ltmp351:
.LBB20_30:
	.loc	10 309 5                        @ lvgl/src/lv_widgets/lv_textarea.c:309:5
	b	.LBB20_31
.Ltmp352:
.LBB20_31:
	.loc	10 312 32                       @ lvgl/src/lv_widgets/lv_textarea.c:312:32
	ldr	r0, [sp, #132]
	.loc	10 312 36 is_stmt 0             @ lvgl/src/lv_widgets/lv_textarea.c:312:36
	str	r0, [sp, #4]                    @ 4-byte Spill
	bl	lv_textarea_get_cursor_pos
	mov	r1, r0
	.loc	10 312 67                       @ lvgl/src/lv_widgets/lv_textarea.c:312:67
	ldr	r0, [sp, #4]                    @ 4-byte Reload
	adds	r1, #1
	.loc	10 312 5                        @ lvgl/src/lv_widgets/lv_textarea.c:312:5
	bl	lv_textarea_set_cursor_pos
	.loc	10 315 32 is_stmt 1             @ lvgl/src/lv_widgets/lv_textarea.c:315:32
	ldr	r0, [sp, #132]
	.loc	10 315 5 is_stmt 0              @ lvgl/src/lv_widgets/lv_textarea.c:315:5
	ldrb.w	r1, [sp, #103]
	and	r1, r1, #1
	bl	lv_textarea_set_edge_flash
	.loc	10 317 19 is_stmt 1             @ lvgl/src/lv_widgets/lv_textarea.c:317:19
	ldr	r0, [sp, #132]
	movs	r1, #16
	movs	r2, #0
	.loc	10 317 5 is_stmt 0              @ lvgl/src/lv_widgets/lv_textarea.c:317:5
	bl	lv_event_send
	.loc	10 318 1 is_stmt 1              @ lvgl/src/lv_widgets/lv_textarea.c:318:1
	b	.LBB20_32
.LBB20_32:
	add	sp, #136
	pop	{r7, pc}
.Ltmp353:
.Lfunc_end20:
	.size	lv_textarea_add_char, .Lfunc_end20-lv_textarea_add_char
	.cfi_endproc
	.cantunwind
	.fnend
                                        @ -- End function
	.section	.text.insert_handler,"ax",%progbits
	.p2align	3                               @ -- Begin function insert_handler
	.type	insert_handler,%function
	.code	16                              @ @insert_handler
	.thumb_func
insert_handler:
.Lfunc_begin21:
	.loc	10 1908 0                       @ lvgl/src/lv_widgets/lv_textarea.c:1908:0
	.fnstart
	.cfi_startproc
@ %bb.0:
	.save	{r7, lr}
	push	{r7, lr}
	.cfi_def_cfa_offset 8
	.cfi_offset lr, -4
	.cfi_offset r7, -8
	.pad	#16
	sub	sp, #16
	.cfi_def_cfa_offset 24
	str	r0, [sp, #8]
	str	r1, [sp, #4]
.Ltmp354:
	.loc	10 1909 23 prologue_end         @ lvgl/src/lv_widgets/lv_textarea.c:1909:23
	movw	r1, :lower16:ta_insert_replace
	movt	r1, :upper16:ta_insert_replace
	str	r1, [sp]                        @ 4-byte Spill
	movs	r0, #0
	str	r0, [r1]
	.loc	10 1910 19                      @ lvgl/src/lv_widgets/lv_textarea.c:1910:19
	ldr	r0, [sp, #8]
	.loc	10 1910 40 is_stmt 0            @ lvgl/src/lv_widgets/lv_textarea.c:1910:40
	ldr	r2, [sp, #4]
	movs	r1, #17
	.loc	10 1910 5                       @ lvgl/src/lv_widgets/lv_textarea.c:1910:5
	bl	lv_event_send
                                        @ kill: def $r1 killed $r0
.Ltmp355:
	.loc	10 1911 8 is_stmt 1             @ lvgl/src/lv_widgets/lv_textarea.c:1911:8
	ldr	r0, [sp]                        @ 4-byte Reload
	ldr	r0, [r0]
.Ltmp356:
	.loc	10 1911 8 is_stmt 0             @ lvgl/src/lv_widgets/lv_textarea.c:1911:8
	cbz	r0, .LBB21_6
	b	.LBB21_1
.LBB21_1:
.Ltmp357:
	.loc	10 1912 12 is_stmt 1            @ lvgl/src/lv_widgets/lv_textarea.c:1912:12
	movw	r0, :lower16:ta_insert_replace
	movt	r0, :upper16:ta_insert_replace
	ldr	r0, [r0]
	ldrsb.w	r0, [r0]
.Ltmp358:
	.loc	10 1912 12 is_stmt 0            @ lvgl/src/lv_widgets/lv_textarea.c:1912:12
	cbnz	r0, .LBB21_3
	b	.LBB21_2
.LBB21_2:
	.loc	10 0 12                         @ lvgl/src/lv_widgets/lv_textarea.c:0:12
	movs	r0, #0
.Ltmp359:
	.loc	10 1912 42                      @ lvgl/src/lv_widgets/lv_textarea.c:1912:42
	strb.w	r0, [sp, #15]
	b	.LBB21_7
.Ltmp360:
.LBB21_3:
	.loc	10 1915 19 is_stmt 1            @ lvgl/src/lv_widgets/lv_textarea.c:1915:19
	movw	r0, :lower16:ta_insert_replace
	movt	r0, :upper16:ta_insert_replace
	ldr	r0, [r0]
	.loc	10 1915 38 is_stmt 0            @ lvgl/src/lv_widgets/lv_textarea.c:1915:38
	ldr	r1, [sp, #4]
	.loc	10 1915 12                      @ lvgl/src/lv_widgets/lv_textarea.c:1915:12
	bl	strcmp
.Ltmp361:
	.loc	10 1915 12                      @ lvgl/src/lv_widgets/lv_textarea.c:1915:12
	cbz	r0, .LBB21_5
	b	.LBB21_4
.LBB21_4:
.Ltmp362:
	.loc	10 1916 34 is_stmt 1            @ lvgl/src/lv_widgets/lv_textarea.c:1916:34
	ldr	r0, [sp, #8]
	.loc	10 1916 38 is_stmt 0            @ lvgl/src/lv_widgets/lv_textarea.c:1916:38
	movw	r1, :lower16:ta_insert_replace
	movt	r1, :upper16:ta_insert_replace
	ldr	r1, [r1]
	.loc	10 1916 13                      @ lvgl/src/lv_widgets/lv_textarea.c:1916:13
	bl	lv_textarea_add_text
	movs	r0, #0
	.loc	10 1917 13 is_stmt 1            @ lvgl/src/lv_widgets/lv_textarea.c:1917:13
	strb.w	r0, [sp, #15]
	b	.LBB21_7
.Ltmp363:
.LBB21_5:
	.loc	10 1919 5                       @ lvgl/src/lv_widgets/lv_textarea.c:1919:5
	b	.LBB21_6
.Ltmp364:
.LBB21_6:
	.loc	10 0 5 is_stmt 0                @ lvgl/src/lv_widgets/lv_textarea.c:0:5
	movs	r0, #1
	.loc	10 1921 5 is_stmt 1             @ lvgl/src/lv_widgets/lv_textarea.c:1921:5
	strb.w	r0, [sp, #15]
	b	.LBB21_7
.LBB21_7:
	.loc	10 1922 1                       @ lvgl/src/lv_widgets/lv_textarea.c:1922:1
	ldrb.w	r0, [sp, #15]
	add	sp, #16
	pop	{r7, pc}
.Ltmp365:
.Lfunc_end21:
	.size	insert_handler, .Lfunc_end21-insert_handler
	.cfi_endproc
	.cantunwind
	.fnend
                                        @ -- End function
	.section	.text.char_is_accepted,"ax",%progbits
	.p2align	3                               @ -- Begin function char_is_accepted
	.type	char_is_accepted,%function
	.code	16                              @ @char_is_accepted
	.thumb_func
char_is_accepted:
.Lfunc_begin22:
	.loc	10 1682 0                       @ lvgl/src/lv_widgets/lv_textarea.c:1682:0
	.fnstart
	.cfi_startproc
@ %bb.0:
	.save	{r7, lr}
	push	{r7, lr}
	.cfi_def_cfa_offset 8
	.cfi_offset lr, -4
	.cfi_offset r7, -8
	.pad	#32
	sub	sp, #32
	.cfi_def_cfa_offset 40
	str	r0, [sp, #24]
	str	r1, [sp, #20]
.Ltmp366:
	.loc	10 1683 51 prologue_end         @ lvgl/src/lv_widgets/lv_textarea.c:1683:51
	ldr	r0, [sp, #24]
	.loc	10 1683 31 is_stmt 0            @ lvgl/src/lv_widgets/lv_textarea.c:1683:31
	bl	lv_obj_get_ext_attr
	.loc	10 1683 25                      @ lvgl/src/lv_widgets/lv_textarea.c:1683:25
	str	r0, [sp, #16]
.Ltmp367:
	.loc	10 1686 8 is_stmt 1             @ lvgl/src/lv_widgets/lv_textarea.c:1686:8
	ldr	r0, [sp, #16]
	.loc	10 1686 13 is_stmt 0            @ lvgl/src/lv_widgets/lv_textarea.c:1686:13
	ldr	r0, [r0, #84]
	.loc	10 1686 36                      @ lvgl/src/lv_widgets/lv_textarea.c:1686:36
	cbnz	r0, .LBB22_3
	b	.LBB22_1
.LBB22_1:
	.loc	10 1686 39                      @ lvgl/src/lv_widgets/lv_textarea.c:1686:39
	ldr	r0, [sp, #16]
	.loc	10 1686 44                      @ lvgl/src/lv_widgets/lv_textarea.c:1686:44
	ldr	r0, [r0, #88]
.Ltmp368:
	.loc	10 1686 8                       @ lvgl/src/lv_widgets/lv_textarea.c:1686:8
	cbnz	r0, .LBB22_3
	b	.LBB22_2
.LBB22_2:
	.loc	10 0 8                          @ lvgl/src/lv_widgets/lv_textarea.c:0:8
	movs	r0, #1
.Ltmp369:
	.loc	10 1686 61                      @ lvgl/src/lv_widgets/lv_textarea.c:1686:61
	strb.w	r0, [sp, #31]
	b	.LBB22_14
.Ltmp370:
.LBB22_3:
	.loc	10 1689 8 is_stmt 1             @ lvgl/src/lv_widgets/lv_textarea.c:1689:8
	ldr	r0, [sp, #16]
	.loc	10 1689 13 is_stmt 0            @ lvgl/src/lv_widgets/lv_textarea.c:1689:13
	ldr	r0, [r0, #88]
	.loc	10 1689 28                      @ lvgl/src/lv_widgets/lv_textarea.c:1689:28
	cbz	r0, .LBB22_6
	b	.LBB22_4
.LBB22_4:
	.loc	10 1689 31                      @ lvgl/src/lv_widgets/lv_textarea.c:1689:31
	movw	r0, :lower16:_lv_txt_get_encoded_length
	movt	r0, :upper16:_lv_txt_get_encoded_length
	ldr	r0, [r0]
	.loc	10 1689 79                      @ lvgl/src/lv_widgets/lv_textarea.c:1689:79
	str	r0, [sp, #4]                    @ 4-byte Spill
	ldr	r0, [sp, #24]
	.loc	10 1689 58                      @ lvgl/src/lv_widgets/lv_textarea.c:1689:58
	bl	lv_textarea_get_text
	ldr	r1, [sp, #4]                    @ 4-byte Reload
	.loc	10 1689 31                      @ lvgl/src/lv_widgets/lv_textarea.c:1689:31
	blx	r1
	.loc	10 1689 87                      @ lvgl/src/lv_widgets/lv_textarea.c:1689:87
	ldr	r1, [sp, #16]
	.loc	10 1689 92                      @ lvgl/src/lv_widgets/lv_textarea.c:1689:92
	ldr	r1, [r1, #88]
.Ltmp371:
	.loc	10 1689 8                       @ lvgl/src/lv_widgets/lv_textarea.c:1689:8
	cmp	r0, r1
	blo	.LBB22_6
	b	.LBB22_5
.LBB22_5:
	.loc	10 0 8                          @ lvgl/src/lv_widgets/lv_textarea.c:0:8
	movs	r0, #0
.Ltmp372:
	.loc	10 1690 9 is_stmt 1             @ lvgl/src/lv_widgets/lv_textarea.c:1690:9
	strb.w	r0, [sp, #31]
	b	.LBB22_14
.Ltmp373:
.LBB22_6:
	.loc	10 1694 8                       @ lvgl/src/lv_widgets/lv_textarea.c:1694:8
	ldr	r0, [sp, #16]
	.loc	10 1694 13 is_stmt 0            @ lvgl/src/lv_widgets/lv_textarea.c:1694:13
	ldr	r0, [r0, #84]
.Ltmp374:
	.loc	10 1694 8                       @ lvgl/src/lv_widgets/lv_textarea.c:1694:8
	cbz	r0, .LBB22_13
	b	.LBB22_7
.LBB22_7:
	.loc	10 0 8                          @ lvgl/src/lv_widgets/lv_textarea.c:0:8
	movs	r0, #0
.Ltmp375:
	.loc	10 1695 18 is_stmt 1            @ lvgl/src/lv_widgets/lv_textarea.c:1695:18
	str	r0, [sp, #12]
	.loc	10 1697 9                       @ lvgl/src/lv_widgets/lv_textarea.c:1697:9
	b	.LBB22_8
.LBB22_8:                               @ =>This Inner Loop Header: Depth=1
	.loc	10 1697 15 is_stmt 0            @ lvgl/src/lv_widgets/lv_textarea.c:1697:15
	ldr	r0, [sp, #16]
	.loc	10 1697 20                      @ lvgl/src/lv_widgets/lv_textarea.c:1697:20
	ldr	r0, [r0, #84]
	.loc	10 1697 35                      @ lvgl/src/lv_widgets/lv_textarea.c:1697:35
	ldr	r1, [sp, #12]
	.loc	10 1697 15                      @ lvgl/src/lv_widgets/lv_textarea.c:1697:15
	ldrsb	r0, [r0, r1]
	.loc	10 1697 9                       @ lvgl/src/lv_widgets/lv_textarea.c:1697:9
	cbz	r0, .LBB22_12
	b	.LBB22_9
.LBB22_9:                               @   in Loop: Header=BB22_8 Depth=1
.Ltmp376:
	.loc	10 1698 26 is_stmt 1            @ lvgl/src/lv_widgets/lv_textarea.c:1698:26
	movw	r0, :lower16:_lv_txt_encoded_next
	movt	r0, :upper16:_lv_txt_encoded_next
	ldr	r2, [r0]
	.loc	10 1698 47 is_stmt 0            @ lvgl/src/lv_widgets/lv_textarea.c:1698:47
	ldr	r0, [sp, #16]
	.loc	10 1698 52                      @ lvgl/src/lv_widgets/lv_textarea.c:1698:52
	ldr	r0, [r0, #84]
	add	r1, sp, #12
	.loc	10 1698 26                      @ lvgl/src/lv_widgets/lv_textarea.c:1698:26
	blx	r2
	.loc	10 1698 22                      @ lvgl/src/lv_widgets/lv_textarea.c:1698:22
	str	r0, [sp, #8]
.Ltmp377:
	.loc	10 1699 16 is_stmt 1            @ lvgl/src/lv_widgets/lv_textarea.c:1699:16
	ldr	r0, [sp, #8]
	.loc	10 1699 21 is_stmt 0            @ lvgl/src/lv_widgets/lv_textarea.c:1699:21
	ldr	r1, [sp, #20]
.Ltmp378:
	.loc	10 1699 16                      @ lvgl/src/lv_widgets/lv_textarea.c:1699:16
	cmp	r0, r1
	bne	.LBB22_11
	b	.LBB22_10
.LBB22_10:
	.loc	10 0 16                         @ lvgl/src/lv_widgets/lv_textarea.c:0:16
	movs	r0, #1
.Ltmp379:
	.loc	10 1699 24                      @ lvgl/src/lv_widgets/lv_textarea.c:1699:24
	strb.w	r0, [sp, #31]
	b	.LBB22_14
.Ltmp380:
.LBB22_11:                              @   in Loop: Header=BB22_8 Depth=1
	.loc	10 1697 9 is_stmt 1             @ lvgl/src/lv_widgets/lv_textarea.c:1697:9
	b	.LBB22_8
.LBB22_12:
	.loc	10 0 9 is_stmt 0                @ lvgl/src/lv_widgets/lv_textarea.c:0:9
	movs	r0, #0
	.loc	10 1702 9 is_stmt 1             @ lvgl/src/lv_widgets/lv_textarea.c:1702:9
	strb.w	r0, [sp, #31]
	b	.LBB22_14
.Ltmp381:
.LBB22_13:
	.loc	10 0 9 is_stmt 0                @ lvgl/src/lv_widgets/lv_textarea.c:0:9
	movs	r0, #1
.Ltmp382:
	.loc	10 1705 9 is_stmt 1             @ lvgl/src/lv_widgets/lv_textarea.c:1705:9
	strb.w	r0, [sp, #31]
	b	.LBB22_14
.Ltmp383:
.LBB22_14:
	.loc	10 1707 1                       @ lvgl/src/lv_widgets/lv_textarea.c:1707:1
	ldrb.w	r0, [sp, #31]
	add	sp, #32
	pop	{r7, pc}
.Ltmp384:
.Lfunc_end22:
	.size	char_is_accepted, .Lfunc_end22-char_is_accepted
	.cfi_endproc
	.cantunwind
	.fnend
                                        @ -- End function
	.section	.text.lv_textarea_get_edge_flash,"ax",%progbits
	.p2align	3                               @ -- Begin function lv_textarea_get_edge_flash
	.type	lv_textarea_get_edge_flash,%function
	.code	16                              @ @lv_textarea_get_edge_flash
	.thumb_func
lv_textarea_get_edge_flash:
.Lfunc_begin23:
	.loc	15 374 0                        @ lvgl/src/lv_widgets/lv_textarea.h:374:0
	.fnstart
	.cfi_startproc
@ %bb.0:
	.save	{r7, lr}
	push	{r7, lr}
	.cfi_def_cfa_offset 8
	.cfi_offset lr, -4
	.cfi_offset r7, -8
	.pad	#8
	sub	sp, #8
	.cfi_def_cfa_offset 16
	str	r0, [sp, #4]
.Ltmp385:
	.loc	15 375 35 prologue_end          @ lvgl/src/lv_widgets/lv_textarea.h:375:35
	ldr	r0, [sp, #4]
	.loc	15 375 12 is_stmt 0             @ lvgl/src/lv_widgets/lv_textarea.h:375:12
	bl	lv_page_get_edge_flash
	.loc	15 375 5                        @ lvgl/src/lv_widgets/lv_textarea.h:375:5
	add	sp, #8
	pop	{r7, pc}
.Ltmp386:
.Lfunc_end23:
	.size	lv_textarea_get_edge_flash, .Lfunc_end23-lv_textarea_get_edge_flash
	.cfi_endproc
	.cantunwind
	.fnend
                                        @ -- End function
	.section	.text.lv_textarea_set_edge_flash,"ax",%progbits
	.p2align	3                               @ -- Begin function lv_textarea_set_edge_flash
	.type	lv_textarea_set_edge_flash,%function
	.code	16                              @ @lv_textarea_set_edge_flash
	.thumb_func
lv_textarea_set_edge_flash:
.Lfunc_begin24:
	.loc	15 249 0 is_stmt 1              @ lvgl/src/lv_widgets/lv_textarea.h:249:0
	.fnstart
	.cfi_startproc
@ %bb.0:
	.save	{r7, lr}
	push	{r7, lr}
	.cfi_def_cfa_offset 8
	.cfi_offset lr, -4
	.cfi_offset r7, -8
	.pad	#8
	sub	sp, #8
	.cfi_def_cfa_offset 16
                                        @ kill: def $r2 killed $r1
	str	r0, [sp, #4]
	strb.w	r1, [sp, #3]
.Ltmp387:
	.loc	15 250 28 prologue_end          @ lvgl/src/lv_widgets/lv_textarea.h:250:28
	ldr	r0, [sp, #4]
	.loc	15 250 5 is_stmt 0              @ lvgl/src/lv_widgets/lv_textarea.h:250:5
	ldrb.w	r1, [sp, #3]
	and	r1, r1, #1
	bl	lv_page_set_edge_flash
	.loc	15 251 1 is_stmt 1              @ lvgl/src/lv_widgets/lv_textarea.h:251:1
	add	sp, #8
	pop	{r7, pc}
.Ltmp388:
.Lfunc_end24:
	.size	lv_textarea_set_edge_flash, .Lfunc_end24-lv_textarea_set_edge_flash
	.cfi_endproc
	.cantunwind
	.fnend
                                        @ -- End function
	.section	.text.lv_textarea_clear_selection,"ax",%progbits
	.hidden	lv_textarea_clear_selection     @ -- Begin function lv_textarea_clear_selection
	.globl	lv_textarea_clear_selection
	.p2align	3
	.type	lv_textarea_clear_selection,%function
	.code	16                              @ @lv_textarea_clear_selection
	.thumb_func
lv_textarea_clear_selection:
.Lfunc_begin25:
	.loc	10 1165 0                       @ lvgl/src/lv_widgets/lv_textarea.c:1165:0
	.fnstart
	.cfi_startproc
@ %bb.0:
	.save	{r7, lr}
	push	{r7, lr}
	.cfi_def_cfa_offset 8
	.cfi_offset lr, -4
	.cfi_offset r7, -8
	.pad	#8
	sub	sp, #8
	.cfi_def_cfa_offset 16
	str	r0, [sp, #4]
.Ltmp389:
	.loc	10 1166 5 prologue_end          @ lvgl/src/lv_widgets/lv_textarea.c:1166:5
	b	.LBB25_1
.LBB25_1:
.Ltmp390:
	.loc	10 1166 5 is_stmt 0             @ lvgl/src/lv_widgets/lv_textarea.c:1166:5
	ldr	r0, [sp, #4]
	bl	lv_debug_check_null
.Ltmp391:
	.loc	10 1166 5                       @ lvgl/src/lv_widgets/lv_textarea.c:1166:5
	cbnz	r0, .LBB25_4
	b	.LBB25_2
.LBB25_2:
.Ltmp392:
	.loc	10 1166 5                       @ lvgl/src/lv_widgets/lv_textarea.c:1166:5
	ldr	r2, [sp, #4]
	movw	r0, :lower16:.L.str.2
	movt	r0, :upper16:.L.str.2
	movs	r3, #0
	bl	lv_debug_log_error
	b	.LBB25_3
.LBB25_3:                               @ =>This Inner Loop Header: Depth=1
	b	.LBB25_3
.Ltmp393:
.LBB25_4:
	.loc	10 1166 5                       @ lvgl/src/lv_widgets/lv_textarea.c:1166:5
	b	.LBB25_5
.Ltmp394:
.LBB25_5:
	.loc	10 1179 1 is_stmt 1             @ lvgl/src/lv_widgets/lv_textarea.c:1179:1
	add	sp, #8
	pop	{r7, pc}
.Ltmp395:
.Lfunc_end25:
	.size	lv_textarea_clear_selection, .Lfunc_end25-lv_textarea_clear_selection
	.cfi_endproc
	.cantunwind
	.fnend
                                        @ -- End function
	.section	.text.pwd_char_hider_anim,"ax",%progbits
	.p2align	3                               @ -- Begin function pwd_char_hider_anim
	.type	pwd_char_hider_anim,%function
	.code	16                              @ @pwd_char_hider_anim
	.thumb_func
pwd_char_hider_anim:
.Lfunc_begin26:
	.loc	10 1623 0                       @ lvgl/src/lv_widgets/lv_textarea.c:1623:0
	.fnstart
	.cfi_startproc
@ %bb.0:
	.pad	#8
	sub	sp, #8
	.cfi_def_cfa_offset 8
                                        @ kill: def $r2 killed $r1
	str	r0, [sp, #4]
	strh.w	r1, [sp, #2]
.Ltmp396:
	.loc	10 1626 1 prologue_end          @ lvgl/src/lv_widgets/lv_textarea.c:1626:1
	add	sp, #8
	bx	lr
.Ltmp397:
.Lfunc_end26:
	.size	pwd_char_hider_anim, .Lfunc_end26-pwd_char_hider_anim
	.cfi_endproc
	.cantunwind
	.fnend
                                        @ -- End function
	.section	.text.lv_anim_set_ready_cb,"ax",%progbits
	.p2align	3                               @ -- Begin function lv_anim_set_ready_cb
	.type	lv_anim_set_ready_cb,%function
	.code	16                              @ @lv_anim_set_ready_cb
	.thumb_func
lv_anim_set_ready_cb:
.Lfunc_begin27:
	.loc	19 217 0                        @ lvgl/src/lv_widgets/../lv_misc/lv_anim.h:217:0
	.fnstart
	.cfi_startproc
@ %bb.0:
	.pad	#8
	sub	sp, #8
	.cfi_def_cfa_offset 8
	str	r0, [sp, #4]
	str	r1, [sp]
.Ltmp398:
	.loc	19 218 19 prologue_end          @ lvgl/src/lv_widgets/../lv_misc/lv_anim.h:218:19
	ldr	r0, [sp]
	.loc	19 218 5 is_stmt 0              @ lvgl/src/lv_widgets/../lv_misc/lv_anim.h:218:5
	ldr	r1, [sp, #4]
	.loc	19 218 17                       @ lvgl/src/lv_widgets/../lv_misc/lv_anim.h:218:17
	str	r0, [r1, #12]
	.loc	19 219 1 is_stmt 1              @ lvgl/src/lv_widgets/../lv_misc/lv_anim.h:219:1
	add	sp, #8
	bx	lr
.Ltmp399:
.Lfunc_end27:
	.size	lv_anim_set_ready_cb, .Lfunc_end27-lv_anim_set_ready_cb
	.cfi_endproc
	.cantunwind
	.fnend
                                        @ -- End function
	.section	.text.pwd_char_hider_anim_ready,"ax",%progbits
	.p2align	3                               @ -- Begin function pwd_char_hider_anim_ready
	.type	pwd_char_hider_anim_ready,%function
	.code	16                              @ @pwd_char_hider_anim_ready
	.thumb_func
pwd_char_hider_anim_ready:
.Lfunc_begin28:
	.loc	10 1633 0                       @ lvgl/src/lv_widgets/lv_textarea.c:1633:0
	.fnstart
	.cfi_startproc
@ %bb.0:
	.save	{r7, lr}
	push	{r7, lr}
	.cfi_def_cfa_offset 8
	.cfi_offset lr, -4
	.cfi_offset r7, -8
	.pad	#8
	sub	sp, #8
	.cfi_def_cfa_offset 16
	str	r0, [sp, #4]
.Ltmp400:
	.loc	10 1634 21 prologue_end         @ lvgl/src/lv_widgets/lv_textarea.c:1634:21
	ldr	r0, [sp, #4]
	.loc	10 1634 24 is_stmt 0            @ lvgl/src/lv_widgets/lv_textarea.c:1634:24
	ldr	r0, [r0]
	.loc	10 1634 16                      @ lvgl/src/lv_widgets/lv_textarea.c:1634:16
	str	r0, [sp]
	.loc	10 1635 20 is_stmt 1            @ lvgl/src/lv_widgets/lv_textarea.c:1635:20
	ldr	r0, [sp]
	.loc	10 1635 5 is_stmt 0             @ lvgl/src/lv_widgets/lv_textarea.c:1635:5
	bl	pwd_char_hider
	.loc	10 1636 1 is_stmt 1             @ lvgl/src/lv_widgets/lv_textarea.c:1636:1
	add	sp, #8
	pop	{r7, pc}
.Ltmp401:
.Lfunc_end28:
	.size	pwd_char_hider_anim_ready, .Lfunc_end28-pwd_char_hider_anim_ready
	.cfi_endproc
	.cantunwind
	.fnend
                                        @ -- End function
	.section	.text.lv_textarea_set_cursor_pos,"ax",%progbits
	.hidden	lv_textarea_set_cursor_pos      @ -- Begin function lv_textarea_set_cursor_pos
	.globl	lv_textarea_set_cursor_pos
	.p2align	3
	.type	lv_textarea_set_cursor_pos,%function
	.code	16                              @ @lv_textarea_set_cursor_pos
	.thumb_func
lv_textarea_set_cursor_pos:
.Lfunc_begin29:
	.loc	10 601 0                        @ lvgl/src/lv_widgets/lv_textarea.c:601:0
	.fnstart
	.cfi_startproc
@ %bb.0:
	.save	{r7, lr}
	push	{r7, lr}
	.cfi_def_cfa_offset 8
	.cfi_offset lr, -4
	.cfi_offset r7, -8
	.pad	#168
	sub	sp, #168
	.cfi_def_cfa_offset 176
	str	r0, [sp, #164]
	str	r1, [sp, #160]
.Ltmp402:
	.loc	10 602 5 prologue_end           @ lvgl/src/lv_widgets/lv_textarea.c:602:5
	b	.LBB29_1
.LBB29_1:
.Ltmp403:
	.loc	10 602 5 is_stmt 0              @ lvgl/src/lv_widgets/lv_textarea.c:602:5
	ldr	r0, [sp, #164]
	bl	lv_debug_check_null
.Ltmp404:
	.loc	10 602 5                        @ lvgl/src/lv_widgets/lv_textarea.c:602:5
	cbnz	r0, .LBB29_4
	b	.LBB29_2
.LBB29_2:
.Ltmp405:
	.loc	10 602 5                        @ lvgl/src/lv_widgets/lv_textarea.c:602:5
	ldr	r2, [sp, #164]
	movw	r0, :lower16:.L.str.2
	movt	r0, :upper16:.L.str.2
	movs	r3, #0
	bl	lv_debug_log_error
	b	.LBB29_3
.LBB29_3:                               @ =>This Inner Loop Header: Depth=1
	b	.LBB29_3
.Ltmp406:
.LBB29_4:
	.loc	10 602 5                        @ lvgl/src/lv_widgets/lv_textarea.c:602:5
	b	.LBB29_5
.Ltmp407:
.LBB29_5:
	.loc	10 604 51 is_stmt 1             @ lvgl/src/lv_widgets/lv_textarea.c:604:51
	ldr	r0, [sp, #164]
	.loc	10 604 31 is_stmt 0             @ lvgl/src/lv_widgets/lv_textarea.c:604:31
	bl	lv_obj_get_ext_attr
	.loc	10 604 25                       @ lvgl/src/lv_widgets/lv_textarea.c:604:25
	str	r0, [sp, #156]
.Ltmp408:
	.loc	10 605 18 is_stmt 1             @ lvgl/src/lv_widgets/lv_textarea.c:605:18
	ldr	r0, [sp, #156]
	.loc	10 605 30 is_stmt 0             @ lvgl/src/lv_widgets/lv_textarea.c:605:30
	ldr	r0, [r0, #108]
	.loc	10 605 47                       @ lvgl/src/lv_widgets/lv_textarea.c:605:47
	ldr	r1, [sp, #160]
.Ltmp409:
	.loc	10 605 8                        @ lvgl/src/lv_widgets/lv_textarea.c:605:8
	cmp	r0, r1
	bne	.LBB29_7
	b	.LBB29_6
.LBB29_6:
.Ltmp410:
	.loc	10 605 52                       @ lvgl/src/lv_widgets/lv_textarea.c:605:52
	b	.LBB29_23
.Ltmp411:
.LBB29_7:
	.loc	10 607 20 is_stmt 1             @ lvgl/src/lv_widgets/lv_textarea.c:607:20
	movw	r0, :lower16:_lv_txt_get_encoded_length
	movt	r0, :upper16:_lv_txt_get_encoded_length
	ldr	r0, [r0]
	.loc	10 607 65 is_stmt 0             @ lvgl/src/lv_widgets/lv_textarea.c:607:65
	str	r0, [sp, #36]                   @ 4-byte Spill
	ldr	r0, [sp, #156]
	.loc	10 607 70                       @ lvgl/src/lv_widgets/lv_textarea.c:607:70
	ldr	r0, [r0, #64]
	.loc	10 607 47                       @ lvgl/src/lv_widgets/lv_textarea.c:607:47
	bl	lv_label_get_text
	ldr	r1, [sp, #36]                   @ 4-byte Reload
	.loc	10 607 20                       @ lvgl/src/lv_widgets/lv_textarea.c:607:20
	blx	r1
	.loc	10 607 14                       @ lvgl/src/lv_widgets/lv_textarea.c:607:14
	str	r0, [sp, #152]
.Ltmp412:
	.loc	10 609 8 is_stmt 1              @ lvgl/src/lv_widgets/lv_textarea.c:609:8
	ldr	r0, [sp, #160]
.Ltmp413:
	.loc	10 609 8 is_stmt 0              @ lvgl/src/lv_widgets/lv_textarea.c:609:8
	cmp.w	r0, #-1
	bgt	.LBB29_9
	b	.LBB29_8
.LBB29_8:
.Ltmp414:
	.loc	10 609 23                       @ lvgl/src/lv_widgets/lv_textarea.c:609:23
	ldr	r0, [sp, #152]
	.loc	10 609 29                       @ lvgl/src/lv_widgets/lv_textarea.c:609:29
	ldr	r1, [sp, #160]
	.loc	10 609 27                       @ lvgl/src/lv_widgets/lv_textarea.c:609:27
	add	r0, r1
	.loc	10 609 21                       @ lvgl/src/lv_widgets/lv_textarea.c:609:21
	str	r0, [sp, #160]
	.loc	10 609 17                       @ lvgl/src/lv_widgets/lv_textarea.c:609:17
	b	.LBB29_9
.Ltmp415:
.LBB29_9:
	.loc	10 611 8 is_stmt 1              @ lvgl/src/lv_widgets/lv_textarea.c:611:8
	ldr	r0, [sp, #160]
	.loc	10 611 23 is_stmt 0             @ lvgl/src/lv_widgets/lv_textarea.c:611:23
	ldr	r1, [sp, #152]
	.loc	10 611 27                       @ lvgl/src/lv_widgets/lv_textarea.c:611:27
	cmp	r0, r1
	bgt	.LBB29_11
	b	.LBB29_10
.LBB29_10:
	.loc	10 611 30                       @ lvgl/src/lv_widgets/lv_textarea.c:611:30
	ldr	r0, [sp, #160]
	movw	r1, #32767
.Ltmp416:
	.loc	10 611 8                        @ lvgl/src/lv_widgets/lv_textarea.c:611:8
	cmp	r0, r1
	bne	.LBB29_12
	b	.LBB29_11
.LBB29_11:
.Ltmp417:
	.loc	10 611 68                       @ lvgl/src/lv_widgets/lv_textarea.c:611:68
	ldr	r0, [sp, #152]
	.loc	10 611 66                       @ lvgl/src/lv_widgets/lv_textarea.c:611:66
	str	r0, [sp, #160]
	.loc	10 611 62                       @ lvgl/src/lv_widgets/lv_textarea.c:611:62
	b	.LBB29_12
.Ltmp418:
.LBB29_12:
	.loc	10 613 23 is_stmt 1             @ lvgl/src/lv_widgets/lv_textarea.c:613:23
	ldr	r0, [sp, #160]
	.loc	10 613 5 is_stmt 0              @ lvgl/src/lv_widgets/lv_textarea.c:613:5
	ldr	r1, [sp, #156]
	.loc	10 613 21                       @ lvgl/src/lv_widgets/lv_textarea.c:613:21
	str	r0, [r1, #108]
	.loc	10 616 46 is_stmt 1             @ lvgl/src/lv_widgets/lv_textarea.c:616:46
	ldr	r0, [sp, #156]
	.loc	10 616 51 is_stmt 0             @ lvgl/src/lv_widgets/lv_textarea.c:616:51
	ldr	r0, [r0, #64]
	.loc	10 616 28                       @ lvgl/src/lv_widgets/lv_textarea.c:616:28
	bl	lv_obj_get_parent
	.loc	10 616 16                       @ lvgl/src/lv_widgets/lv_textarea.c:616:16
	str	r0, [sp, #148]
	.loc	10 618 57 is_stmt 1             @ lvgl/src/lv_widgets/lv_textarea.c:618:57
	ldr	r0, [sp, #164]
	movs	r1, #0
	.loc	10 618 30 is_stmt 0             @ lvgl/src/lv_widgets/lv_textarea.c:618:30
	str	r1, [sp, #32]                   @ 4-byte Spill
	bl	lv_obj_get_style_text_font
	ldr	r1, [sp, #32]                   @ 4-byte Reload
	.loc	10 618 23                       @ lvgl/src/lv_widgets/lv_textarea.c:618:23
	str	r0, [sp, #140]
	.loc	10 619 51 is_stmt 1             @ lvgl/src/lv_widgets/lv_textarea.c:619:51
	ldr	r0, [sp, #164]
	.loc	10 619 26 is_stmt 0             @ lvgl/src/lv_widgets/lv_textarea.c:619:26
	bl	lv_obj_get_style_pad_top
	ldr	r1, [sp, #32]                   @ 4-byte Reload
	.loc	10 619 20                       @ lvgl/src/lv_widgets/lv_textarea.c:619:20
	strh.w	r0, [sp, #138]
	.loc	10 620 57 is_stmt 1             @ lvgl/src/lv_widgets/lv_textarea.c:620:57
	ldr	r0, [sp, #164]
	.loc	10 620 29 is_stmt 0             @ lvgl/src/lv_widgets/lv_textarea.c:620:29
	bl	lv_obj_get_style_pad_bottom
	.loc	10 620 20                       @ lvgl/src/lv_widgets/lv_textarea.c:620:20
	strh.w	r0, [sp, #136]
	.loc	10 623 29 is_stmt 1             @ lvgl/src/lv_widgets/lv_textarea.c:623:29
	ldr	r0, [sp, #156]
	.loc	10 623 34 is_stmt 0             @ lvgl/src/lv_widgets/lv_textarea.c:623:34
	ldr	r0, [r0, #64]
	.loc	10 623 41                       @ lvgl/src/lv_widgets/lv_textarea.c:623:41
	ldr	r1, [sp, #160]
	add	r2, sp, #144
	.loc	10 623 5                        @ lvgl/src/lv_widgets/lv_textarea.c:623:5
	bl	lv_label_get_letter_pos
	.loc	10 624 23 is_stmt 1             @ lvgl/src/lv_widgets/lv_textarea.c:624:23
	ldr	r0, [sp, #164]
	add	r1, sp, #120
	.loc	10 624 5 is_stmt 0              @ lvgl/src/lv_widgets/lv_textarea.c:624:5
	bl	lv_obj_get_coords
	.loc	10 625 23 is_stmt 1             @ lvgl/src/lv_widgets/lv_textarea.c:625:23
	ldr	r0, [sp, #156]
	.loc	10 625 28 is_stmt 0             @ lvgl/src/lv_widgets/lv_textarea.c:625:28
	ldr	r0, [r0, #64]
	add	r1, sp, #128
	.loc	10 625 5                        @ lvgl/src/lv_widgets/lv_textarea.c:625:5
	bl	lv_obj_get_coords
	.loc	10 628 49 is_stmt 1             @ lvgl/src/lv_widgets/lv_textarea.c:628:49
	ldr	r0, [sp, #140]
	.loc	10 628 25 is_stmt 0             @ lvgl/src/lv_widgets/lv_textarea.c:628:25
	bl	lv_font_get_line_height
	.loc	10 628 16                       @ lvgl/src/lv_widgets/lv_textarea.c:628:16
	strh.w	r0, [sp, #118]
.Ltmp419:
	.loc	10 629 21 is_stmt 1             @ lvgl/src/lv_widgets/lv_textarea.c:629:21
	ldr	r0, [sp, #148]
	.loc	10 629 8 is_stmt 0              @ lvgl/src/lv_widgets/lv_textarea.c:629:8
	bl	lv_obj_get_y
	.loc	10 629 42                       @ lvgl/src/lv_widgets/lv_textarea.c:629:42
	ldrsh.w	r1, [sp, #146]
	.loc	10 629 32                       @ lvgl/src/lv_widgets/lv_textarea.c:629:32
	add	r0, r1
.Ltmp420:
	.loc	10 629 8                        @ lvgl/src/lv_widgets/lv_textarea.c:629:8
	cmp.w	r0, #-1
	bgt	.LBB29_14
	b	.LBB29_13
.LBB29_13:
.Ltmp421:
	.loc	10 630 22 is_stmt 1             @ lvgl/src/lv_widgets/lv_textarea.c:630:22
	ldr	r0, [sp, #148]
	.loc	10 630 34 is_stmt 0             @ lvgl/src/lv_widgets/lv_textarea.c:630:34
	ldrh.w	r2, [sp, #146]
	.loc	10 630 46                       @ lvgl/src/lv_widgets/lv_textarea.c:630:46
	ldrh.w	r1, [sp, #138]
	.loc	10 630 44                       @ lvgl/src/lv_widgets/lv_textarea.c:630:44
	subs	r1, r1, r2
	.loc	10 630 9                        @ lvgl/src/lv_widgets/lv_textarea.c:630:9
	sxth	r1, r1
	bl	lv_obj_set_y
	.loc	10 631 5 is_stmt 1              @ lvgl/src/lv_widgets/lv_textarea.c:631:5
	b	.LBB29_14
.Ltmp422:
.LBB29_14:
	.loc	10 634 20                       @ lvgl/src/lv_widgets/lv_textarea.c:634:20
	ldrsh.w	r0, [sp, #130]
	.loc	10 634 33 is_stmt 0             @ lvgl/src/lv_widgets/lv_textarea.c:634:33
	ldrsh.w	r1, [sp, #146]
	.loc	10 634 23                       @ lvgl/src/lv_widgets/lv_textarea.c:634:23
	add	r0, r1
	.loc	10 634 37                       @ lvgl/src/lv_widgets/lv_textarea.c:634:37
	ldrsh.w	r1, [sp, #118]
	.loc	10 634 35                       @ lvgl/src/lv_widgets/lv_textarea.c:634:35
	add	r0, r1
	.loc	10 634 46                       @ lvgl/src/lv_widgets/lv_textarea.c:634:46
	ldrsh.w	r1, [sp, #136]
	.loc	10 634 44                       @ lvgl/src/lv_widgets/lv_textarea.c:634:44
	add	r0, r1
	.loc	10 634 64                       @ lvgl/src/lv_widgets/lv_textarea.c:634:64
	ldrsh.w	r1, [sp, #126]
.Ltmp423:
	.loc	10 634 8                        @ lvgl/src/lv_widgets/lv_textarea.c:634:8
	cmp	r0, r1
	ble	.LBB29_16
	b	.LBB29_15
.LBB29_15:
.Ltmp424:
	.loc	10 635 22 is_stmt 1             @ lvgl/src/lv_widgets/lv_textarea.c:635:22
	ldr	r0, [sp, #148]
	.loc	10 635 43 is_stmt 0             @ lvgl/src/lv_widgets/lv_textarea.c:635:43
	str	r0, [sp, #28]                   @ 4-byte Spill
	ldrsh.w	r0, [sp, #146]
	.loc	10 635 65                       @ lvgl/src/lv_widgets/lv_textarea.c:635:65
	str	r0, [sp, #24]                   @ 4-byte Spill
	ldr	r0, [sp, #164]
	.loc	10 635 47                       @ lvgl/src/lv_widgets/lv_textarea.c:635:47
	bl	lv_obj_get_height
	ldr	r1, [sp, #24]                   @ 4-byte Reload
	mov	r2, r0
	.loc	10 635 45                       @ lvgl/src/lv_widgets/lv_textarea.c:635:45
	ldr	r0, [sp, #28]                   @ 4-byte Reload
	subs	r1, r1, r2
	.loc	10 635 71                       @ lvgl/src/lv_widgets/lv_textarea.c:635:71
	ldrh.w	r2, [sp, #118]
	.loc	10 635 69                       @ lvgl/src/lv_widgets/lv_textarea.c:635:69
	add	r1, r2
	.loc	10 635 80                       @ lvgl/src/lv_widgets/lv_textarea.c:635:80
	ldrh.w	r2, [sp, #138]
	.loc	10 635 78                       @ lvgl/src/lv_widgets/lv_textarea.c:635:78
	add	r1, r2
	.loc	10 635 86                       @ lvgl/src/lv_widgets/lv_textarea.c:635:86
	ldrh.w	r2, [sp, #136]
	.loc	10 635 84                       @ lvgl/src/lv_widgets/lv_textarea.c:635:84
	add	r1, r2
	.loc	10 635 33                       @ lvgl/src/lv_widgets/lv_textarea.c:635:33
	rsbs	r1, r1, #0
	.loc	10 635 9                        @ lvgl/src/lv_widgets/lv_textarea.c:635:9
	sxth	r1, r1
	bl	lv_obj_set_y
	.loc	10 636 5 is_stmt 1              @ lvgl/src/lv_widgets/lv_textarea.c:636:5
	b	.LBB29_16
.Ltmp425:
.LBB29_16:
	.loc	10 638 21                       @ lvgl/src/lv_widgets/lv_textarea.c:638:21
	ldr	r0, [sp, #148]
	.loc	10 638 8 is_stmt 0              @ lvgl/src/lv_widgets/lv_textarea.c:638:8
	bl	lv_obj_get_x
	.loc	10 638 42                       @ lvgl/src/lv_widgets/lv_textarea.c:638:42
	ldrsh.w	r1, [sp, #144]
	.loc	10 638 32                       @ lvgl/src/lv_widgets/lv_textarea.c:638:32
	add	r0, r1
	.loc	10 638 46                       @ lvgl/src/lv_widgets/lv_textarea.c:638:46
	ldrsh.w	r1, [sp, #118]
.Ltmp426:
	.loc	10 638 8                        @ lvgl/src/lv_widgets/lv_textarea.c:638:8
	cmp	r0, r1
	bge	.LBB29_18
	b	.LBB29_17
.LBB29_17:
.Ltmp427:
	.loc	10 639 22 is_stmt 1             @ lvgl/src/lv_widgets/lv_textarea.c:639:22
	ldr	r0, [sp, #148]
	.loc	10 639 34 is_stmt 0             @ lvgl/src/lv_widgets/lv_textarea.c:639:34
	ldrh.w	r2, [sp, #144]
	.loc	10 639 46                       @ lvgl/src/lv_widgets/lv_textarea.c:639:46
	ldrh.w	r1, [sp, #118]
	.loc	10 639 44                       @ lvgl/src/lv_widgets/lv_textarea.c:639:44
	subs	r1, r1, r2
	.loc	10 639 9                        @ lvgl/src/lv_widgets/lv_textarea.c:639:9
	sxth	r1, r1
	bl	lv_obj_set_x
	.loc	10 640 5 is_stmt 1              @ lvgl/src/lv_widgets/lv_textarea.c:640:5
	b	.LBB29_18
.Ltmp428:
.LBB29_18:
	.loc	10 642 55                       @ lvgl/src/lv_widgets/lv_textarea.c:642:55
	ldr	r0, [sp, #164]
	movs	r1, #0
	.loc	10 642 28 is_stmt 0             @ lvgl/src/lv_widgets/lv_textarea.c:642:28
	str	r1, [sp, #20]                   @ 4-byte Spill
	bl	lv_obj_get_style_pad_right
	ldr	r1, [sp, #20]                   @ 4-byte Reload
	.loc	10 642 20                       @ lvgl/src/lv_widgets/lv_textarea.c:642:20
	strh.w	r0, [sp, #116]
	.loc	10 643 53 is_stmt 1             @ lvgl/src/lv_widgets/lv_textarea.c:643:53
	ldr	r0, [sp, #164]
	.loc	10 643 27 is_stmt 0             @ lvgl/src/lv_widgets/lv_textarea.c:643:27
	bl	lv_obj_get_style_pad_left
	.loc	10 643 20                       @ lvgl/src/lv_widgets/lv_textarea.c:643:20
	strh.w	r0, [sp, #114]
.Ltmp429:
	.loc	10 645 20 is_stmt 1             @ lvgl/src/lv_widgets/lv_textarea.c:645:20
	ldrsh.w	r0, [sp, #128]
	.loc	10 645 33 is_stmt 0             @ lvgl/src/lv_widgets/lv_textarea.c:645:33
	ldrsh.w	r1, [sp, #144]
	.loc	10 645 23                       @ lvgl/src/lv_widgets/lv_textarea.c:645:23
	add	r0, r1
	.loc	10 645 37                       @ lvgl/src/lv_widgets/lv_textarea.c:645:37
	ldrsh.w	r1, [sp, #118]
	.loc	10 645 35                       @ lvgl/src/lv_widgets/lv_textarea.c:645:35
	add	r0, r1
	.loc	10 645 46                       @ lvgl/src/lv_widgets/lv_textarea.c:645:46
	ldrsh.w	r1, [sp, #116]
	.loc	10 645 44                       @ lvgl/src/lv_widgets/lv_textarea.c:645:44
	add	r0, r1
	.loc	10 645 63                       @ lvgl/src/lv_widgets/lv_textarea.c:645:63
	ldrsh.w	r1, [sp, #124]
.Ltmp430:
	.loc	10 645 8                        @ lvgl/src/lv_widgets/lv_textarea.c:645:8
	cmp	r0, r1
	ble	.LBB29_20
	b	.LBB29_19
.LBB29_19:
.Ltmp431:
	.loc	10 646 22 is_stmt 1             @ lvgl/src/lv_widgets/lv_textarea.c:646:22
	ldr	r0, [sp, #148]
	.loc	10 646 43 is_stmt 0             @ lvgl/src/lv_widgets/lv_textarea.c:646:43
	str	r0, [sp, #16]                   @ 4-byte Spill
	ldrsh.w	r0, [sp, #144]
	.loc	10 646 64                       @ lvgl/src/lv_widgets/lv_textarea.c:646:64
	str	r0, [sp, #12]                   @ 4-byte Spill
	ldr	r0, [sp, #164]
	.loc	10 646 47                       @ lvgl/src/lv_widgets/lv_textarea.c:646:47
	bl	lv_obj_get_width
	ldr	r1, [sp, #12]                   @ 4-byte Reload
	mov	r2, r0
	.loc	10 646 45                       @ lvgl/src/lv_widgets/lv_textarea.c:646:45
	ldr	r0, [sp, #16]                   @ 4-byte Reload
	subs	r1, r1, r2
	.loc	10 646 70                       @ lvgl/src/lv_widgets/lv_textarea.c:646:70
	ldrh.w	r2, [sp, #118]
	.loc	10 646 68                       @ lvgl/src/lv_widgets/lv_textarea.c:646:68
	add	r1, r2
	.loc	10 646 79                       @ lvgl/src/lv_widgets/lv_textarea.c:646:79
	ldrh.w	r2, [sp, #114]
	.loc	10 646 77                       @ lvgl/src/lv_widgets/lv_textarea.c:646:77
	add	r1, r2
	.loc	10 646 86                       @ lvgl/src/lv_widgets/lv_textarea.c:646:86
	ldrh.w	r2, [sp, #116]
	.loc	10 646 84                       @ lvgl/src/lv_widgets/lv_textarea.c:646:84
	add	r1, r2
	.loc	10 646 33                       @ lvgl/src/lv_widgets/lv_textarea.c:646:33
	rsbs	r1, r1, #0
	.loc	10 646 9                        @ lvgl/src/lv_widgets/lv_textarea.c:646:9
	sxth	r1, r1
	bl	lv_obj_set_x
	.loc	10 647 5 is_stmt 1              @ lvgl/src/lv_widgets/lv_textarea.c:647:5
	b	.LBB29_20
.Ltmp432:
.LBB29_20:
	.loc	10 649 35                       @ lvgl/src/lv_widgets/lv_textarea.c:649:35
	ldrh.w	r0, [sp, #144]
	.loc	10 649 5 is_stmt 0              @ lvgl/src/lv_widgets/lv_textarea.c:649:5
	ldr	r1, [sp, #156]
	.loc	10 649 25                       @ lvgl/src/lv_widgets/lv_textarea.c:649:25
	strh.w	r0, [r1, #104]
.Ltmp433:
	.loc	10 652 8 is_stmt 1              @ lvgl/src/lv_widgets/lv_textarea.c:652:8
	ldr	r0, [sp, #156]
	.loc	10 652 20 is_stmt 0             @ lvgl/src/lv_widgets/lv_textarea.c:652:20
	ldrh.w	r0, [r0, #112]
.Ltmp434:
	.loc	10 652 8                        @ lvgl/src/lv_widgets/lv_textarea.c:652:8
	cbz	r0, .LBB29_22
	b	.LBB29_21
.LBB29_21:
	.loc	10 0 8                          @ lvgl/src/lv_widgets/lv_textarea.c:0:8
	add	r0, sp, #104
.Ltmp435:
	.loc	10 655 9 is_stmt 1              @ lvgl/src/lv_widgets/lv_textarea.c:655:9
	str	r0, [sp, #4]                    @ 4-byte Spill
	bl	lv_anim_path_init
	ldr	r0, [sp, #4]                    @ 4-byte Reload
	.loc	10 656 9                        @ lvgl/src/lv_widgets/lv_textarea.c:656:9
	movw	r1, :lower16:lv_anim_path_step
	movt	r1, :upper16:lv_anim_path_step
	bl	lv_anim_path_set_cb
	add	r0, sp, #40
	.loc	10 659 9                        @ lvgl/src/lv_widgets/lv_textarea.c:659:9
	str	r0, [sp, #8]                    @ 4-byte Spill
	bl	lv_anim_init
	ldr	r0, [sp, #8]                    @ 4-byte Reload
	.loc	10 660 29                       @ lvgl/src/lv_widgets/lv_textarea.c:660:29
	ldr	r1, [sp, #164]
	.loc	10 660 9 is_stmt 0              @ lvgl/src/lv_widgets/lv_textarea.c:660:9
	bl	lv_anim_set_var
	ldr	r0, [sp, #8]                    @ 4-byte Reload
	.loc	10 661 9 is_stmt 1              @ lvgl/src/lv_widgets/lv_textarea.c:661:9
	movw	r1, :lower16:cursor_blink_anim
	movt	r1, :upper16:cursor_blink_anim
	bl	lv_anim_set_exec_cb
	ldr	r0, [sp, #8]                    @ 4-byte Reload
	.loc	10 662 30                       @ lvgl/src/lv_widgets/lv_textarea.c:662:30
	ldr	r1, [sp, #156]
	.loc	10 662 42 is_stmt 0             @ lvgl/src/lv_widgets/lv_textarea.c:662:42
	ldrh.w	r1, [r1, #112]
	.loc	10 662 9                        @ lvgl/src/lv_widgets/lv_textarea.c:662:9
	bl	lv_anim_set_time
	ldr	r0, [sp, #8]                    @ 4-byte Reload
	.loc	10 663 39 is_stmt 1             @ lvgl/src/lv_widgets/lv_textarea.c:663:39
	ldr	r1, [sp, #156]
	.loc	10 663 51 is_stmt 0             @ lvgl/src/lv_widgets/lv_textarea.c:663:51
	ldrh.w	r1, [r1, #112]
	.loc	10 663 9                        @ lvgl/src/lv_widgets/lv_textarea.c:663:9
	bl	lv_anim_set_playback_time
	ldr	r0, [sp, #8]                    @ 4-byte Reload
	movs	r1, #1
	movs	r2, #0
	.loc	10 664 9 is_stmt 1              @ lvgl/src/lv_widgets/lv_textarea.c:664:9
	bl	lv_anim_set_values
	ldr	r1, [sp, #4]                    @ 4-byte Reload
	ldr	r0, [sp, #8]                    @ 4-byte Reload
	.loc	10 665 9                        @ lvgl/src/lv_widgets/lv_textarea.c:665:9
	bl	lv_anim_set_path
	ldr	r0, [sp, #8]                    @ 4-byte Reload
	movw	r1, #65535
	.loc	10 666 9                        @ lvgl/src/lv_widgets/lv_textarea.c:666:9
	bl	lv_anim_set_repeat_count
	ldr	r0, [sp, #8]                    @ 4-byte Reload
	.loc	10 667 9                        @ lvgl/src/lv_widgets/lv_textarea.c:667:9
	bl	lv_anim_start
	.loc	10 668 5                        @ lvgl/src/lv_widgets/lv_textarea.c:668:5
	b	.LBB29_22
.Ltmp436:
.LBB29_22:
	.loc	10 671 22                       @ lvgl/src/lv_widgets/lv_textarea.c:671:22
	ldr	r0, [sp, #164]
	.loc	10 671 5 is_stmt 0              @ lvgl/src/lv_widgets/lv_textarea.c:671:5
	bl	refr_cursor_area
	.loc	10 672 1 is_stmt 1              @ lvgl/src/lv_widgets/lv_textarea.c:672:1
	b	.LBB29_23
.LBB29_23:
	add	sp, #168
	pop	{r7, pc}
.Ltmp437:
.Lfunc_end29:
	.size	lv_textarea_set_cursor_pos, .Lfunc_end29-lv_textarea_set_cursor_pos
	.cfi_endproc
	.cantunwind
	.fnend
                                        @ -- End function
	.section	.text.lv_textarea_get_cursor_pos,"ax",%progbits
	.hidden	lv_textarea_get_cursor_pos      @ -- Begin function lv_textarea_get_cursor_pos
	.globl	lv_textarea_get_cursor_pos
	.p2align	3
	.type	lv_textarea_get_cursor_pos,%function
	.code	16                              @ @lv_textarea_get_cursor_pos
	.thumb_func
lv_textarea_get_cursor_pos:
.Lfunc_begin30:
	.loc	10 1000 0                       @ lvgl/src/lv_widgets/lv_textarea.c:1000:0
	.fnstart
	.cfi_startproc
@ %bb.0:
	.save	{r7, lr}
	push	{r7, lr}
	.cfi_def_cfa_offset 8
	.cfi_offset lr, -4
	.cfi_offset r7, -8
	.pad	#8
	sub	sp, #8
	.cfi_def_cfa_offset 16
	str	r0, [sp, #4]
.Ltmp438:
	.loc	10 1001 5 prologue_end          @ lvgl/src/lv_widgets/lv_textarea.c:1001:5
	b	.LBB30_1
.LBB30_1:
.Ltmp439:
	.loc	10 1001 5 is_stmt 0             @ lvgl/src/lv_widgets/lv_textarea.c:1001:5
	ldr	r0, [sp, #4]
	bl	lv_debug_check_null
.Ltmp440:
	.loc	10 1001 5                       @ lvgl/src/lv_widgets/lv_textarea.c:1001:5
	cbnz	r0, .LBB30_4
	b	.LBB30_2
.LBB30_2:
.Ltmp441:
	.loc	10 1001 5                       @ lvgl/src/lv_widgets/lv_textarea.c:1001:5
	ldr	r2, [sp, #4]
	movw	r0, :lower16:.L.str.2
	movt	r0, :upper16:.L.str.2
	movs	r3, #0
	bl	lv_debug_log_error
	b	.LBB30_3
.LBB30_3:                               @ =>This Inner Loop Header: Depth=1
	b	.LBB30_3
.Ltmp442:
.LBB30_4:
	.loc	10 1001 5                       @ lvgl/src/lv_widgets/lv_textarea.c:1001:5
	b	.LBB30_5
.Ltmp443:
.LBB30_5:
	.loc	10 1003 51 is_stmt 1            @ lvgl/src/lv_widgets/lv_textarea.c:1003:51
	ldr	r0, [sp, #4]
	.loc	10 1003 31 is_stmt 0            @ lvgl/src/lv_widgets/lv_textarea.c:1003:31
	bl	lv_obj_get_ext_attr
	.loc	10 1003 25                      @ lvgl/src/lv_widgets/lv_textarea.c:1003:25
	str	r0, [sp]
	.loc	10 1004 12 is_stmt 1            @ lvgl/src/lv_widgets/lv_textarea.c:1004:12
	ldr	r0, [sp]
	.loc	10 1004 24 is_stmt 0            @ lvgl/src/lv_widgets/lv_textarea.c:1004:24
	ldr	r0, [r0, #108]
	.loc	10 1004 5                       @ lvgl/src/lv_widgets/lv_textarea.c:1004:5
	add	sp, #8
	pop	{r7, pc}
.Ltmp444:
.Lfunc_end30:
	.size	lv_textarea_get_cursor_pos, .Lfunc_end30-lv_textarea_get_cursor_pos
	.cfi_endproc
	.cantunwind
	.fnend
                                        @ -- End function
	.section	.text.lv_textarea_add_text,"ax",%progbits
	.hidden	lv_textarea_add_text            @ -- Begin function lv_textarea_add_text
	.globl	lv_textarea_add_text
	.p2align	3
	.type	lv_textarea_add_text,%function
	.code	16                              @ @lv_textarea_add_text
	.thumb_func
lv_textarea_add_text:
.Lfunc_begin31:
	.loc	10 326 0 is_stmt 1              @ lvgl/src/lv_widgets/lv_textarea.c:326:0
	.fnstart
	.cfi_startproc
@ %bb.0:
	.save	{r7, lr}
	push	{r7, lr}
	.cfi_def_cfa_offset 8
	.cfi_offset lr, -4
	.cfi_offset r7, -8
	.pad	#128
	sub	sp, #128
	.cfi_def_cfa_offset 136
	str	r0, [sp, #124]
	str	r1, [sp, #120]
.Ltmp445:
	.loc	10 327 5 prologue_end           @ lvgl/src/lv_widgets/lv_textarea.c:327:5
	b	.LBB31_1
.LBB31_1:
.Ltmp446:
	.loc	10 327 5 is_stmt 0              @ lvgl/src/lv_widgets/lv_textarea.c:327:5
	ldr	r0, [sp, #124]
	bl	lv_debug_check_null
.Ltmp447:
	.loc	10 327 5                        @ lvgl/src/lv_widgets/lv_textarea.c:327:5
	cbnz	r0, .LBB31_4
	b	.LBB31_2
.LBB31_2:
.Ltmp448:
	.loc	10 327 5                        @ lvgl/src/lv_widgets/lv_textarea.c:327:5
	ldr	r2, [sp, #124]
	movw	r0, :lower16:.L.str.2
	movt	r0, :upper16:.L.str.2
	movs	r3, #0
	bl	lv_debug_log_error
	b	.LBB31_3
.LBB31_3:                               @ =>This Inner Loop Header: Depth=1
	b	.LBB31_3
.Ltmp449:
.LBB31_4:
	.loc	10 327 5                        @ lvgl/src/lv_widgets/lv_textarea.c:327:5
	b	.LBB31_5
.Ltmp450:
.LBB31_5:
	.loc	10 328 5 is_stmt 1              @ lvgl/src/lv_widgets/lv_textarea.c:328:5
	b	.LBB31_6
.LBB31_6:
.Ltmp451:
	.loc	10 328 5 is_stmt 0              @ lvgl/src/lv_widgets/lv_textarea.c:328:5
	ldr	r0, [sp, #120]
	bl	lv_debug_check_null
.Ltmp452:
	.loc	10 328 5                        @ lvgl/src/lv_widgets/lv_textarea.c:328:5
	cbnz	r0, .LBB31_9
	b	.LBB31_7
.LBB31_7:
.Ltmp453:
	.loc	10 328 5                        @ lvgl/src/lv_widgets/lv_textarea.c:328:5
	ldr	r2, [sp, #120]
	movw	r0, :lower16:.L.str.2
	movt	r0, :upper16:.L.str.2
	movs	r3, #0
	bl	lv_debug_log_error
	b	.LBB31_8
.LBB31_8:                               @ =>This Inner Loop Header: Depth=1
	b	.LBB31_8
.Ltmp454:
.LBB31_9:
	.loc	10 328 5                        @ lvgl/src/lv_widgets/lv_textarea.c:328:5
	b	.LBB31_10
.Ltmp455:
.LBB31_10:
	.loc	10 330 51 is_stmt 1             @ lvgl/src/lv_widgets/lv_textarea.c:330:51
	ldr	r0, [sp, #124]
	.loc	10 330 31 is_stmt 0             @ lvgl/src/lv_widgets/lv_textarea.c:330:31
	bl	lv_obj_get_ext_attr
	.loc	10 330 25                       @ lvgl/src/lv_widgets/lv_textarea.c:330:25
	str	r0, [sp, #116]
.Ltmp456:
	.loc	10 332 8 is_stmt 1              @ lvgl/src/lv_widgets/lv_textarea.c:332:8
	ldr	r0, [sp, #116]
	.loc	10 332 13 is_stmt 0             @ lvgl/src/lv_widgets/lv_textarea.c:332:13
	ldrb.w	r0, [r0, #132]
.Ltmp457:
	.loc	10 332 8                        @ lvgl/src/lv_widgets/lv_textarea.c:332:8
	lsls	r0, r0, #31
	cbz	r0, .LBB31_12
	b	.LBB31_11
.LBB31_11:
.Ltmp458:
	.loc	10 332 43                       @ lvgl/src/lv_widgets/lv_textarea.c:332:43
	ldr	r0, [sp, #124]
	.loc	10 332 28                       @ lvgl/src/lv_widgets/lv_textarea.c:332:28
	bl	pwd_char_hider
	b	.LBB31_12
.Ltmp459:
.LBB31_12:
	.loc	10 335 39 is_stmt 1             @ lvgl/src/lv_widgets/lv_textarea.c:335:39
	ldr	r0, [sp, #124]
	.loc	10 335 8 is_stmt 0              @ lvgl/src/lv_widgets/lv_textarea.c:335:8
	bl	lv_textarea_get_accepted_chars
	.loc	10 335 43                       @ lvgl/src/lv_widgets/lv_textarea.c:335:43
	cbnz	r0, .LBB31_14
	b	.LBB31_13
.LBB31_13:
	.loc	10 335 73                       @ lvgl/src/lv_widgets/lv_textarea.c:335:73
	ldr	r0, [sp, #124]
	.loc	10 335 46                       @ lvgl/src/lv_widgets/lv_textarea.c:335:46
	bl	lv_textarea_get_max_length
.Ltmp460:
	.loc	10 335 8                        @ lvgl/src/lv_widgets/lv_textarea.c:335:8
	cbz	r0, .LBB31_18
	b	.LBB31_14
.LBB31_14:
	.loc	10 0 8                          @ lvgl/src/lv_widgets/lv_textarea.c:0:8
	movs	r0, #0
.Ltmp461:
	.loc	10 336 18 is_stmt 1             @ lvgl/src/lv_widgets/lv_textarea.c:336:18
	str	r0, [sp, #112]
	.loc	10 337 9                        @ lvgl/src/lv_widgets/lv_textarea.c:337:9
	b	.LBB31_15
.LBB31_15:                              @ =>This Inner Loop Header: Depth=1
	.loc	10 337 15 is_stmt 0             @ lvgl/src/lv_widgets/lv_textarea.c:337:15
	ldr	r0, [sp, #120]
	.loc	10 337 19                       @ lvgl/src/lv_widgets/lv_textarea.c:337:19
	ldr	r1, [sp, #112]
	.loc	10 337 15                       @ lvgl/src/lv_widgets/lv_textarea.c:337:15
	ldrsb	r0, [r0, r1]
	.loc	10 337 9                        @ lvgl/src/lv_widgets/lv_textarea.c:337:9
	cbz	r0, .LBB31_17
	b	.LBB31_16
.LBB31_16:                              @   in Loop: Header=BB31_15 Depth=1
.Ltmp462:
	.loc	10 338 26 is_stmt 1             @ lvgl/src/lv_widgets/lv_textarea.c:338:26
	movw	r0, :lower16:_lv_txt_encoded_next
	movt	r0, :upper16:_lv_txt_encoded_next
	ldr	r2, [r0]
	.loc	10 338 47 is_stmt 0             @ lvgl/src/lv_widgets/lv_textarea.c:338:47
	ldr	r0, [sp, #120]
	add	r1, sp, #112
	.loc	10 338 26                       @ lvgl/src/lv_widgets/lv_textarea.c:338:26
	blx	r2
	.loc	10 338 22                       @ lvgl/src/lv_widgets/lv_textarea.c:338:22
	str	r0, [sp, #108]
	.loc	10 339 34 is_stmt 1             @ lvgl/src/lv_widgets/lv_textarea.c:339:34
	ldr	r0, [sp, #124]
	.loc	10 339 38 is_stmt 0             @ lvgl/src/lv_widgets/lv_textarea.c:339:38
	str	r0, [sp, #24]                   @ 4-byte Spill
	movw	r0, :lower16:_lv_txt_unicode_to_encoded
	movt	r0, :upper16:_lv_txt_unicode_to_encoded
	ldr	r1, [r0]
	.loc	10 339 65                       @ lvgl/src/lv_widgets/lv_textarea.c:339:65
	ldr	r0, [sp, #108]
	.loc	10 339 38                       @ lvgl/src/lv_widgets/lv_textarea.c:339:38
	blx	r1
	mov	r1, r0
	.loc	10 339 13                       @ lvgl/src/lv_widgets/lv_textarea.c:339:13
	ldr	r0, [sp, #24]                   @ 4-byte Reload
	bl	lv_textarea_add_char
.Ltmp463:
	.loc	10 337 9 is_stmt 1              @ lvgl/src/lv_widgets/lv_textarea.c:337:9
	b	.LBB31_15
.LBB31_17:
	.loc	10 341 9                        @ lvgl/src/lv_widgets/lv_textarea.c:341:9
	b	.LBB31_37
.Ltmp464:
.LBB31_18:
	.loc	10 344 35                       @ lvgl/src/lv_widgets/lv_textarea.c:344:35
	ldr	r0, [sp, #124]
	.loc	10 344 39 is_stmt 0             @ lvgl/src/lv_widgets/lv_textarea.c:344:39
	ldr	r1, [sp, #120]
	.loc	10 344 20                       @ lvgl/src/lv_widgets/lv_textarea.c:344:20
	bl	insert_handler
	.loc	10 344 14                       @ lvgl/src/lv_widgets/lv_textarea.c:344:14
	strb.w	r0, [sp, #107]
.Ltmp465:
	.loc	10 345 8 is_stmt 1              @ lvgl/src/lv_widgets/lv_textarea.c:345:8
	ldrb.w	r0, [sp, #107]
.Ltmp466:
	.loc	10 345 8 is_stmt 0              @ lvgl/src/lv_widgets/lv_textarea.c:345:8
	cmp	r0, #1
	beq	.LBB31_20
	b	.LBB31_19
.LBB31_19:
.Ltmp467:
	.loc	10 345 26                       @ lvgl/src/lv_widgets/lv_textarea.c:345:26
	b	.LBB31_37
.Ltmp468:
.LBB31_20:
	.loc	10 348 53 is_stmt 1             @ lvgl/src/lv_widgets/lv_textarea.c:348:53
	ldr	r0, [sp, #124]
	.loc	10 348 26 is_stmt 0             @ lvgl/src/lv_widgets/lv_textarea.c:348:26
	bl	lv_textarea_get_edge_flash
	.loc	10 348 10                       @ lvgl/src/lv_widgets/lv_textarea.c:348:10
	strb.w	r0, [sp, #106]
	.loc	10 349 32 is_stmt 1             @ lvgl/src/lv_widgets/lv_textarea.c:349:32
	ldr	r0, [sp, #124]
	movs	r1, #0
	.loc	10 349 5 is_stmt 0              @ lvgl/src/lv_widgets/lv_textarea.c:349:5
	bl	lv_textarea_set_edge_flash
.Ltmp469:
	.loc	10 352 8 is_stmt 1              @ lvgl/src/lv_widgets/lv_textarea.c:352:8
	ldr	r0, [sp, #116]
	.loc	10 352 13 is_stmt 0             @ lvgl/src/lv_widgets/lv_textarea.c:352:13
	ldr	r0, [r0, #68]
.Ltmp470:
	.loc	10 352 8                        @ lvgl/src/lv_widgets/lv_textarea.c:352:8
	cbz	r0, .LBB31_24
	b	.LBB31_21
.LBB31_21:
.Ltmp471:
	.loc	10 353 50 is_stmt 1             @ lvgl/src/lv_widgets/lv_textarea.c:353:50
	ldr	r0, [sp, #116]
	.loc	10 353 55 is_stmt 0             @ lvgl/src/lv_widgets/lv_textarea.c:353:55
	ldr	r0, [r0, #64]
	.loc	10 353 32                       @ lvgl/src/lv_widgets/lv_textarea.c:353:32
	bl	lv_label_get_text
	.loc	10 353 22                       @ lvgl/src/lv_widgets/lv_textarea.c:353:22
	str	r0, [sp, #100]
.Ltmp472:
	.loc	10 354 12 is_stmt 1             @ lvgl/src/lv_widgets/lv_textarea.c:354:12
	ldr	r0, [sp, #100]
	ldrsb.w	r0, [r0]
.Ltmp473:
	.loc	10 354 12 is_stmt 0             @ lvgl/src/lv_widgets/lv_textarea.c:354:12
	cbnz	r0, .LBB31_23
	b	.LBB31_22
.LBB31_22:
.Ltmp474:
	.loc	10 354 50                       @ lvgl/src/lv_widgets/lv_textarea.c:354:50
	ldr	r0, [sp, #124]
	.loc	10 354 32                       @ lvgl/src/lv_widgets/lv_textarea.c:354:32
	bl	lv_obj_invalidate
	b	.LBB31_23
.Ltmp475:
.LBB31_23:
	.loc	10 355 5 is_stmt 1              @ lvgl/src/lv_widgets/lv_textarea.c:355:5
	b	.LBB31_24
.Ltmp476:
.LBB31_24:
	.loc	10 358 23                       @ lvgl/src/lv_widgets/lv_textarea.c:358:23
	ldr	r1, [sp, #116]
	.loc	10 358 28 is_stmt 0             @ lvgl/src/lv_widgets/lv_textarea.c:358:28
	ldr	r0, [r1, #64]
	.loc	10 358 47                       @ lvgl/src/lv_widgets/lv_textarea.c:358:47
	ldr	r1, [r1, #108]
	.loc	10 358 52                       @ lvgl/src/lv_widgets/lv_textarea.c:358:52
	ldr	r2, [sp, #120]
	.loc	10 358 5                        @ lvgl/src/lv_widgets/lv_textarea.c:358:5
	bl	lv_label_ins_text
	.loc	10 359 33 is_stmt 1             @ lvgl/src/lv_widgets/lv_textarea.c:359:33
	ldr	r0, [sp, #124]
	.loc	10 359 5 is_stmt 0              @ lvgl/src/lv_widgets/lv_textarea.c:359:5
	bl	lv_textarea_clear_selection
.Ltmp477:
	.loc	10 361 8 is_stmt 1              @ lvgl/src/lv_widgets/lv_textarea.c:361:8
	ldr	r0, [sp, #116]
	.loc	10 361 13 is_stmt 0             @ lvgl/src/lv_widgets/lv_textarea.c:361:13
	ldrb.w	r0, [r0, #132]
.Ltmp478:
	.loc	10 361 8                        @ lvgl/src/lv_widgets/lv_textarea.c:361:8
	lsls	r0, r0, #31
	cmp	r0, #0
	beq	.LBB31_36
	b	.LBB31_25
.LBB31_25:
.Ltmp479:
	.loc	10 362 39 is_stmt 1             @ lvgl/src/lv_widgets/lv_textarea.c:362:39
	ldr	r0, [sp, #116]
	.loc	10 362 44 is_stmt 0             @ lvgl/src/lv_widgets/lv_textarea.c:362:44
	ldr	r0, [r0, #80]
	.loc	10 362 53                       @ lvgl/src/lv_widgets/lv_textarea.c:362:53
	str	r0, [sp, #20]                   @ 4-byte Spill
	bl	strlen
	.loc	10 362 83                       @ lvgl/src/lv_widgets/lv_textarea.c:362:83
	str	r0, [sp, #16]                   @ 4-byte Spill
	ldr	r0, [sp, #120]
	.loc	10 362 76                       @ lvgl/src/lv_widgets/lv_textarea.c:362:76
	bl	strlen
	ldr	r1, [sp, #16]                   @ 4-byte Reload
	mov	r2, r0
	.loc	10 362 74                       @ lvgl/src/lv_widgets/lv_textarea.c:362:74
	ldr	r0, [sp, #20]                   @ 4-byte Reload
	add	r1, r2
	.loc	10 362 88                       @ lvgl/src/lv_widgets/lv_textarea.c:362:88
	adds	r1, #1
	.loc	10 362 24                       @ lvgl/src/lv_widgets/lv_textarea.c:362:24
	bl	lv_mem_realloc
	.loc	10 362 9                        @ lvgl/src/lv_widgets/lv_textarea.c:362:9
	ldr	r1, [sp, #116]
	.loc	10 362 22                       @ lvgl/src/lv_widgets/lv_textarea.c:362:22
	str	r0, [r1, #80]
	.loc	10 363 9 is_stmt 1              @ lvgl/src/lv_widgets/lv_textarea.c:363:9
	b	.LBB31_26
.LBB31_26:
.Ltmp480:
	.loc	10 363 9 is_stmt 0              @ lvgl/src/lv_widgets/lv_textarea.c:363:9
	ldr	r0, [sp, #116]
	ldr	r0, [r0, #80]
	bl	lv_debug_check_null
.Ltmp481:
	.loc	10 363 9                        @ lvgl/src/lv_widgets/lv_textarea.c:363:9
	cbnz	r0, .LBB31_29
	b	.LBB31_27
.LBB31_27:
.Ltmp482:
	.loc	10 363 9                        @ lvgl/src/lv_widgets/lv_textarea.c:363:9
	ldr	r0, [sp, #116]
	ldr	r2, [r0, #80]
	movw	r0, :lower16:.L.str
	movt	r0, :upper16:.L.str
	movs	r3, #0
	bl	lv_debug_log_error
	b	.LBB31_28
.LBB31_28:                              @ =>This Inner Loop Header: Depth=1
	b	.LBB31_28
.Ltmp483:
.LBB31_29:
	.loc	10 363 9                        @ lvgl/src/lv_widgets/lv_textarea.c:363:9
	b	.LBB31_30
.Ltmp484:
.LBB31_30:
	.loc	10 364 12 is_stmt 1             @ lvgl/src/lv_widgets/lv_textarea.c:364:12
	ldr	r0, [sp, #116]
	.loc	10 364 17 is_stmt 0             @ lvgl/src/lv_widgets/lv_textarea.c:364:17
	ldr	r0, [r0, #80]
.Ltmp485:
	.loc	10 364 12                       @ lvgl/src/lv_widgets/lv_textarea.c:364:12
	cbnz	r0, .LBB31_32
	b	.LBB31_31
.LBB31_31:
.Ltmp486:
	.loc	10 364 34                       @ lvgl/src/lv_widgets/lv_textarea.c:364:34
	b	.LBB31_37
.Ltmp487:
.LBB31_32:
	.loc	10 366 21 is_stmt 1             @ lvgl/src/lv_widgets/lv_textarea.c:366:21
	ldr	r1, [sp, #116]
	.loc	10 366 26 is_stmt 0             @ lvgl/src/lv_widgets/lv_textarea.c:366:26
	ldr	r0, [r1, #80]
	.loc	10 366 47                       @ lvgl/src/lv_widgets/lv_textarea.c:366:47
	ldr	r1, [r1, #108]
	.loc	10 366 52                       @ lvgl/src/lv_widgets/lv_textarea.c:366:52
	ldr	r2, [sp, #120]
	.loc	10 366 9                        @ lvgl/src/lv_widgets/lv_textarea.c:366:9
	bl	_lv_txt_ins
.Ltmp488:
	.loc	10 370 12 is_stmt 1             @ lvgl/src/lv_widgets/lv_textarea.c:370:12
	ldr	r0, [sp, #116]
	.loc	10 370 17 is_stmt 0             @ lvgl/src/lv_widgets/lv_textarea.c:370:17
	ldrh.w	r0, [r0, #92]
.Ltmp489:
	.loc	10 370 12                       @ lvgl/src/lv_widgets/lv_textarea.c:370:12
	cbnz	r0, .LBB31_34
	b	.LBB31_33
.LBB31_33:
.Ltmp490:
	.loc	10 371 28 is_stmt 1             @ lvgl/src/lv_widgets/lv_textarea.c:371:28
	ldr	r0, [sp, #124]
	.loc	10 371 13 is_stmt 0             @ lvgl/src/lv_widgets/lv_textarea.c:371:13
	bl	pwd_char_hider
	.loc	10 372 9 is_stmt 1              @ lvgl/src/lv_widgets/lv_textarea.c:372:9
	b	.LBB31_35
.Ltmp491:
.LBB31_34:
	.loc	10 0 9 is_stmt 0                @ lvgl/src/lv_widgets/lv_textarea.c:0:9
	add	r0, sp, #92
.Ltmp492:
	.loc	10 375 13 is_stmt 1             @ lvgl/src/lv_widgets/lv_textarea.c:375:13
	str	r0, [sp, #8]                    @ 4-byte Spill
	bl	lv_anim_path_init
	ldr	r0, [sp, #8]                    @ 4-byte Reload
	.loc	10 376 13                       @ lvgl/src/lv_widgets/lv_textarea.c:376:13
	movw	r1, :lower16:lv_anim_path_step
	movt	r1, :upper16:lv_anim_path_step
	bl	lv_anim_path_set_cb
	add	r0, sp, #28
	.loc	10 379 13                       @ lvgl/src/lv_widgets/lv_textarea.c:379:13
	str	r0, [sp, #12]                   @ 4-byte Spill
	bl	lv_anim_init
	ldr	r0, [sp, #12]                   @ 4-byte Reload
	.loc	10 380 33                       @ lvgl/src/lv_widgets/lv_textarea.c:380:33
	ldr	r1, [sp, #124]
	.loc	10 380 13 is_stmt 0             @ lvgl/src/lv_widgets/lv_textarea.c:380:13
	bl	lv_anim_set_var
	ldr	r0, [sp, #12]                   @ 4-byte Reload
	.loc	10 381 13 is_stmt 1             @ lvgl/src/lv_widgets/lv_textarea.c:381:13
	movw	r1, :lower16:pwd_char_hider_anim
	movt	r1, :upper16:pwd_char_hider_anim
	bl	lv_anim_set_exec_cb
	ldr	r0, [sp, #12]                   @ 4-byte Reload
	.loc	10 382 34                       @ lvgl/src/lv_widgets/lv_textarea.c:382:34
	ldr	r1, [sp, #116]
	.loc	10 382 39 is_stmt 0             @ lvgl/src/lv_widgets/lv_textarea.c:382:39
	ldrh.w	r1, [r1, #92]
	.loc	10 382 13                       @ lvgl/src/lv_widgets/lv_textarea.c:382:13
	bl	lv_anim_set_time
	ldr	r0, [sp, #12]                   @ 4-byte Reload
	movs	r1, #0
	movs	r2, #1
	.loc	10 383 13 is_stmt 1             @ lvgl/src/lv_widgets/lv_textarea.c:383:13
	bl	lv_anim_set_values
	ldr	r1, [sp, #8]                    @ 4-byte Reload
	ldr	r0, [sp, #12]                   @ 4-byte Reload
	.loc	10 384 13                       @ lvgl/src/lv_widgets/lv_textarea.c:384:13
	bl	lv_anim_set_path
	ldr	r0, [sp, #12]                   @ 4-byte Reload
	.loc	10 385 13                       @ lvgl/src/lv_widgets/lv_textarea.c:385:13
	movw	r1, :lower16:pwd_char_hider_anim_ready
	movt	r1, :upper16:pwd_char_hider_anim_ready
	bl	lv_anim_set_ready_cb
	ldr	r0, [sp, #12]                   @ 4-byte Reload
	.loc	10 386 13                       @ lvgl/src/lv_widgets/lv_textarea.c:386:13
	bl	lv_anim_start
	b	.LBB31_35
.Ltmp493:
.LBB31_35:
	.loc	10 391 5                        @ lvgl/src/lv_widgets/lv_textarea.c:391:5
	b	.LBB31_36
.Ltmp494:
.LBB31_36:
	.loc	10 394 32                       @ lvgl/src/lv_widgets/lv_textarea.c:394:32
	ldr	r0, [sp, #124]
	.loc	10 394 36 is_stmt 0             @ lvgl/src/lv_widgets/lv_textarea.c:394:36
	str	r0, [sp, #4]                    @ 4-byte Spill
	bl	lv_textarea_get_cursor_pos
	.loc	10 394 69                       @ lvgl/src/lv_widgets/lv_textarea.c:394:69
	str	r0, [sp]                        @ 4-byte Spill
	movw	r0, :lower16:_lv_txt_get_encoded_length
	movt	r0, :upper16:_lv_txt_get_encoded_length
	ldr	r1, [r0]
	.loc	10 394 96                       @ lvgl/src/lv_widgets/lv_textarea.c:394:96
	ldr	r0, [sp, #120]
	.loc	10 394 69                       @ lvgl/src/lv_widgets/lv_textarea.c:394:69
	blx	r1
	ldr	r1, [sp]                        @ 4-byte Reload
	mov	r2, r0
	.loc	10 394 67                       @ lvgl/src/lv_widgets/lv_textarea.c:394:67
	ldr	r0, [sp, #4]                    @ 4-byte Reload
	add	r1, r2
	.loc	10 394 5                        @ lvgl/src/lv_widgets/lv_textarea.c:394:5
	bl	lv_textarea_set_cursor_pos
	.loc	10 397 32 is_stmt 1             @ lvgl/src/lv_widgets/lv_textarea.c:397:32
	ldr	r0, [sp, #124]
	.loc	10 397 5 is_stmt 0              @ lvgl/src/lv_widgets/lv_textarea.c:397:5
	ldrb.w	r1, [sp, #106]
	and	r1, r1, #1
	bl	lv_textarea_set_edge_flash
	.loc	10 399 19 is_stmt 1             @ lvgl/src/lv_widgets/lv_textarea.c:399:19
	ldr	r0, [sp, #124]
	movs	r1, #16
	movs	r2, #0
	.loc	10 399 5 is_stmt 0              @ lvgl/src/lv_widgets/lv_textarea.c:399:5
	bl	lv_event_send
	.loc	10 400 1 is_stmt 1              @ lvgl/src/lv_widgets/lv_textarea.c:400:1
	b	.LBB31_37
.LBB31_37:
	add	sp, #128
	pop	{r7, pc}
.Ltmp495:
.Lfunc_end31:
	.size	lv_textarea_add_text, .Lfunc_end31-lv_textarea_add_text
	.cfi_endproc
	.cantunwind
	.fnend
                                        @ -- End function
	.section	.text.lv_textarea_get_accepted_chars,"ax",%progbits
	.hidden	lv_textarea_get_accepted_chars  @ -- Begin function lv_textarea_get_accepted_chars
	.globl	lv_textarea_get_accepted_chars
	.p2align	3
	.type	lv_textarea_get_accepted_chars,%function
	.code	16                              @ @lv_textarea_get_accepted_chars
	.thumb_func
lv_textarea_get_accepted_chars:
.Lfunc_begin32:
	.loc	10 1065 0                       @ lvgl/src/lv_widgets/lv_textarea.c:1065:0
	.fnstart
	.cfi_startproc
@ %bb.0:
	.save	{r7, lr}
	push	{r7, lr}
	.cfi_def_cfa_offset 8
	.cfi_offset lr, -4
	.cfi_offset r7, -8
	.pad	#8
	sub	sp, #8
	.cfi_def_cfa_offset 16
	str	r0, [sp, #4]
.Ltmp496:
	.loc	10 1066 5 prologue_end          @ lvgl/src/lv_widgets/lv_textarea.c:1066:5
	b	.LBB32_1
.LBB32_1:
.Ltmp497:
	.loc	10 1066 5 is_stmt 0             @ lvgl/src/lv_widgets/lv_textarea.c:1066:5
	ldr	r0, [sp, #4]
	bl	lv_debug_check_null
.Ltmp498:
	.loc	10 1066 5                       @ lvgl/src/lv_widgets/lv_textarea.c:1066:5
	cbnz	r0, .LBB32_4
	b	.LBB32_2
.LBB32_2:
.Ltmp499:
	.loc	10 1066 5                       @ lvgl/src/lv_widgets/lv_textarea.c:1066:5
	ldr	r2, [sp, #4]
	movw	r0, :lower16:.L.str.2
	movt	r0, :upper16:.L.str.2
	movs	r3, #0
	bl	lv_debug_log_error
	b	.LBB32_3
.LBB32_3:                               @ =>This Inner Loop Header: Depth=1
	b	.LBB32_3
.Ltmp500:
.LBB32_4:
	.loc	10 1066 5                       @ lvgl/src/lv_widgets/lv_textarea.c:1066:5
	b	.LBB32_5
.Ltmp501:
.LBB32_5:
	.loc	10 1068 51 is_stmt 1            @ lvgl/src/lv_widgets/lv_textarea.c:1068:51
	ldr	r0, [sp, #4]
	.loc	10 1068 31 is_stmt 0            @ lvgl/src/lv_widgets/lv_textarea.c:1068:31
	bl	lv_obj_get_ext_attr
	.loc	10 1068 25                      @ lvgl/src/lv_widgets/lv_textarea.c:1068:25
	str	r0, [sp]
	.loc	10 1070 12 is_stmt 1            @ lvgl/src/lv_widgets/lv_textarea.c:1070:12
	ldr	r0, [sp]
	.loc	10 1070 17 is_stmt 0            @ lvgl/src/lv_widgets/lv_textarea.c:1070:17
	ldr	r0, [r0, #84]
	.loc	10 1070 5                       @ lvgl/src/lv_widgets/lv_textarea.c:1070:5
	add	sp, #8
	pop	{r7, pc}
.Ltmp502:
.Lfunc_end32:
	.size	lv_textarea_get_accepted_chars, .Lfunc_end32-lv_textarea_get_accepted_chars
	.cfi_endproc
	.cantunwind
	.fnend
                                        @ -- End function
	.section	.text.lv_textarea_get_max_length,"ax",%progbits
	.hidden	lv_textarea_get_max_length      @ -- Begin function lv_textarea_get_max_length
	.globl	lv_textarea_get_max_length
	.p2align	3
	.type	lv_textarea_get_max_length,%function
	.code	16                              @ @lv_textarea_get_max_length
	.thumb_func
lv_textarea_get_max_length:
.Lfunc_begin33:
	.loc	10 1079 0 is_stmt 1             @ lvgl/src/lv_widgets/lv_textarea.c:1079:0
	.fnstart
	.cfi_startproc
@ %bb.0:
	.save	{r7, lr}
	push	{r7, lr}
	.cfi_def_cfa_offset 8
	.cfi_offset lr, -4
	.cfi_offset r7, -8
	.pad	#8
	sub	sp, #8
	.cfi_def_cfa_offset 16
	str	r0, [sp, #4]
.Ltmp503:
	.loc	10 1080 5 prologue_end          @ lvgl/src/lv_widgets/lv_textarea.c:1080:5
	b	.LBB33_1
.LBB33_1:
.Ltmp504:
	.loc	10 1080 5 is_stmt 0             @ lvgl/src/lv_widgets/lv_textarea.c:1080:5
	ldr	r0, [sp, #4]
	bl	lv_debug_check_null
.Ltmp505:
	.loc	10 1080 5                       @ lvgl/src/lv_widgets/lv_textarea.c:1080:5
	cbnz	r0, .LBB33_4
	b	.LBB33_2
.LBB33_2:
.Ltmp506:
	.loc	10 1080 5                       @ lvgl/src/lv_widgets/lv_textarea.c:1080:5
	ldr	r2, [sp, #4]
	movw	r0, :lower16:.L.str.2
	movt	r0, :upper16:.L.str.2
	movs	r3, #0
	bl	lv_debug_log_error
	b	.LBB33_3
.LBB33_3:                               @ =>This Inner Loop Header: Depth=1
	b	.LBB33_3
.Ltmp507:
.LBB33_4:
	.loc	10 1080 5                       @ lvgl/src/lv_widgets/lv_textarea.c:1080:5
	b	.LBB33_5
.Ltmp508:
.LBB33_5:
	.loc	10 1082 51 is_stmt 1            @ lvgl/src/lv_widgets/lv_textarea.c:1082:51
	ldr	r0, [sp, #4]
	.loc	10 1082 31 is_stmt 0            @ lvgl/src/lv_widgets/lv_textarea.c:1082:31
	bl	lv_obj_get_ext_attr
	.loc	10 1082 25                      @ lvgl/src/lv_widgets/lv_textarea.c:1082:25
	str	r0, [sp]
	.loc	10 1083 12 is_stmt 1            @ lvgl/src/lv_widgets/lv_textarea.c:1083:12
	ldr	r0, [sp]
	.loc	10 1083 17 is_stmt 0            @ lvgl/src/lv_widgets/lv_textarea.c:1083:17
	ldr	r0, [r0, #88]
	.loc	10 1083 5                       @ lvgl/src/lv_widgets/lv_textarea.c:1083:5
	add	sp, #8
	pop	{r7, pc}
.Ltmp509:
.Lfunc_end33:
	.size	lv_textarea_get_max_length, .Lfunc_end33-lv_textarea_get_max_length
	.cfi_endproc
	.cantunwind
	.fnend
                                        @ -- End function
	.section	.text.lv_textarea_del_char,"ax",%progbits
	.hidden	lv_textarea_del_char            @ -- Begin function lv_textarea_del_char
	.globl	lv_textarea_del_char
	.p2align	3
	.type	lv_textarea_del_char,%function
	.code	16                              @ @lv_textarea_del_char
	.thumb_func
lv_textarea_del_char:
.Lfunc_begin34:
	.loc	10 407 0 is_stmt 1              @ lvgl/src/lv_widgets/lv_textarea.c:407:0
	.fnstart
	.cfi_startproc
@ %bb.0:
	.save	{r7, lr}
	push	{r7, lr}
	.cfi_def_cfa_offset 8
	.cfi_offset lr, -4
	.cfi_offset r7, -8
	.pad	#56
	sub	sp, #56
	.cfi_def_cfa_offset 64
	str	r0, [sp, #52]
.Ltmp510:
	.loc	10 408 5 prologue_end           @ lvgl/src/lv_widgets/lv_textarea.c:408:5
	b	.LBB34_1
.LBB34_1:
.Ltmp511:
	.loc	10 408 5 is_stmt 0              @ lvgl/src/lv_widgets/lv_textarea.c:408:5
	ldr	r0, [sp, #52]
	bl	lv_debug_check_null
.Ltmp512:
	.loc	10 408 5                        @ lvgl/src/lv_widgets/lv_textarea.c:408:5
	cbnz	r0, .LBB34_4
	b	.LBB34_2
.LBB34_2:
.Ltmp513:
	.loc	10 408 5                        @ lvgl/src/lv_widgets/lv_textarea.c:408:5
	ldr	r2, [sp, #52]
	movw	r0, :lower16:.L.str.2
	movt	r0, :upper16:.L.str.2
	movs	r3, #0
	bl	lv_debug_log_error
	b	.LBB34_3
.LBB34_3:                               @ =>This Inner Loop Header: Depth=1
	b	.LBB34_3
.Ltmp514:
.LBB34_4:
	.loc	10 408 5                        @ lvgl/src/lv_widgets/lv_textarea.c:408:5
	b	.LBB34_5
.Ltmp515:
.LBB34_5:
	.loc	10 410 51 is_stmt 1             @ lvgl/src/lv_widgets/lv_textarea.c:410:51
	ldr	r0, [sp, #52]
	.loc	10 410 31 is_stmt 0             @ lvgl/src/lv_widgets/lv_textarea.c:410:31
	bl	lv_obj_get_ext_attr
	.loc	10 410 25                       @ lvgl/src/lv_widgets/lv_textarea.c:410:25
	str	r0, [sp, #48]
	.loc	10 411 25 is_stmt 1             @ lvgl/src/lv_widgets/lv_textarea.c:411:25
	ldr	r0, [sp, #48]
	.loc	10 411 37 is_stmt 0             @ lvgl/src/lv_widgets/lv_textarea.c:411:37
	ldr	r0, [r0, #108]
	.loc	10 411 14                       @ lvgl/src/lv_widgets/lv_textarea.c:411:14
	str	r0, [sp, #44]
.Ltmp516:
	.loc	10 413 8 is_stmt 1              @ lvgl/src/lv_widgets/lv_textarea.c:413:8
	ldr	r0, [sp, #44]
.Ltmp517:
	.loc	10 413 8 is_stmt 0              @ lvgl/src/lv_widgets/lv_textarea.c:413:8
	cbnz	r0, .LBB34_7
	b	.LBB34_6
.LBB34_6:
.Ltmp518:
	.loc	10 413 22                       @ lvgl/src/lv_widgets/lv_textarea.c:413:22
	b	.LBB34_28
.Ltmp519:
.LBB34_7:
	.loc	10 0 22                         @ lvgl/src/lv_widgets/lv_textarea.c:0:22
	movs	r0, #127
	.loc	10 415 10 is_stmt 1             @ lvgl/src/lv_widgets/lv_textarea.c:415:10
	strh.w	r0, [sp, #42]
	.loc	10 417 35                       @ lvgl/src/lv_widgets/lv_textarea.c:417:35
	ldr	r0, [sp, #52]
	add.w	r1, sp, #42
	.loc	10 417 20 is_stmt 0             @ lvgl/src/lv_widgets/lv_textarea.c:417:20
	bl	insert_handler
	.loc	10 417 14                       @ lvgl/src/lv_widgets/lv_textarea.c:417:14
	strb.w	r0, [sp, #41]
.Ltmp520:
	.loc	10 418 8 is_stmt 1              @ lvgl/src/lv_widgets/lv_textarea.c:418:8
	ldrb.w	r0, [sp, #41]
.Ltmp521:
	.loc	10 418 8 is_stmt 0              @ lvgl/src/lv_widgets/lv_textarea.c:418:8
	cmp	r0, #1
	beq	.LBB34_9
	b	.LBB34_8
.LBB34_8:
.Ltmp522:
	.loc	10 418 26                       @ lvgl/src/lv_widgets/lv_textarea.c:418:26
	b	.LBB34_28
.Ltmp523:
.LBB34_9:
	.loc	10 420 42 is_stmt 1             @ lvgl/src/lv_widgets/lv_textarea.c:420:42
	ldr	r0, [sp, #48]
	.loc	10 420 47 is_stmt 0             @ lvgl/src/lv_widgets/lv_textarea.c:420:47
	ldr	r0, [r0, #64]
	.loc	10 420 24                       @ lvgl/src/lv_widgets/lv_textarea.c:420:24
	bl	lv_label_get_text
	.loc	10 420 12                       @ lvgl/src/lv_widgets/lv_textarea.c:420:12
	str	r0, [sp, #36]
	.loc	10 423 17 is_stmt 1             @ lvgl/src/lv_widgets/lv_textarea.c:423:17
	ldr	r0, [sp, #36]
	.loc	10 423 28 is_stmt 0             @ lvgl/src/lv_widgets/lv_textarea.c:423:28
	ldr	r1, [sp, #48]
	.loc	10 423 40                       @ lvgl/src/lv_widgets/lv_textarea.c:423:40
	ldr	r1, [r1, #108]
	.loc	10 423 44                       @ lvgl/src/lv_widgets/lv_textarea.c:423:44
	subs	r1, #1
	movs	r2, #1
	.loc	10 423 5                        @ lvgl/src/lv_widgets/lv_textarea.c:423:5
	bl	_lv_txt_cut
	.loc	10 425 23 is_stmt 1             @ lvgl/src/lv_widgets/lv_textarea.c:425:23
	ldr	r0, [sp, #48]
	.loc	10 425 28 is_stmt 0             @ lvgl/src/lv_widgets/lv_textarea.c:425:28
	ldr	r0, [r0, #64]
	.loc	10 425 35                       @ lvgl/src/lv_widgets/lv_textarea.c:425:35
	ldr	r1, [sp, #36]
	.loc	10 425 5                        @ lvgl/src/lv_widgets/lv_textarea.c:425:5
	bl	lv_label_set_text
	.loc	10 426 33 is_stmt 1             @ lvgl/src/lv_widgets/lv_textarea.c:426:33
	ldr	r0, [sp, #52]
	.loc	10 426 5 is_stmt 0              @ lvgl/src/lv_widgets/lv_textarea.c:426:5
	bl	lv_textarea_clear_selection
.Ltmp524:
	.loc	10 429 8 is_stmt 1              @ lvgl/src/lv_widgets/lv_textarea.c:429:8
	ldr	r0, [sp, #48]
	.loc	10 429 13 is_stmt 0             @ lvgl/src/lv_widgets/lv_textarea.c:429:13
	ldr	r0, [r0, #68]
.Ltmp525:
	.loc	10 429 8                        @ lvgl/src/lv_widgets/lv_textarea.c:429:8
	cbz	r0, .LBB34_13
	b	.LBB34_10
.LBB34_10:
.Ltmp526:
	.loc	10 430 46 is_stmt 1             @ lvgl/src/lv_widgets/lv_textarea.c:430:46
	ldr	r0, [sp, #48]
	.loc	10 430 51 is_stmt 0             @ lvgl/src/lv_widgets/lv_textarea.c:430:51
	ldr	r0, [r0, #64]
	.loc	10 430 28                       @ lvgl/src/lv_widgets/lv_textarea.c:430:28
	bl	lv_label_get_text
	.loc	10 430 22                       @ lvgl/src/lv_widgets/lv_textarea.c:430:22
	str	r0, [sp, #32]
.Ltmp527:
	.loc	10 431 12 is_stmt 1             @ lvgl/src/lv_widgets/lv_textarea.c:431:12
	ldr	r0, [sp, #32]
	ldrsb.w	r0, [r0]
.Ltmp528:
	.loc	10 431 12 is_stmt 0             @ lvgl/src/lv_widgets/lv_textarea.c:431:12
	cbnz	r0, .LBB34_12
	b	.LBB34_11
.LBB34_11:
.Ltmp529:
	.loc	10 431 46                       @ lvgl/src/lv_widgets/lv_textarea.c:431:46
	ldr	r0, [sp, #52]
	.loc	10 431 28                       @ lvgl/src/lv_widgets/lv_textarea.c:431:28
	bl	lv_obj_invalidate
	b	.LBB34_12
.Ltmp530:
.LBB34_12:
	.loc	10 432 5 is_stmt 1              @ lvgl/src/lv_widgets/lv_textarea.c:432:5
	b	.LBB34_13
.Ltmp531:
.LBB34_13:
	.loc	10 435 25                       @ lvgl/src/lv_widgets/lv_textarea.c:435:25
	ldr	r0, [sp, #48]
	.loc	10 435 30 is_stmt 0             @ lvgl/src/lv_widgets/lv_textarea.c:435:30
	ldr	r0, [r0, #64]
	.loc	10 435 8                        @ lvgl/src/lv_widgets/lv_textarea.c:435:8
	bl	lv_obj_get_width
.Ltmp532:
	.loc	10 435 8                        @ lvgl/src/lv_widgets/lv_textarea.c:435:8
	cbnz	r0, .LBB34_18
	b	.LBB34_14
.LBB34_14:
.Ltmp533:
	.loc	10 436 69 is_stmt 1             @ lvgl/src/lv_widgets/lv_textarea.c:436:69
	ldr	r0, [sp, #52]
	movs	r1, #3
	.loc	10 436 39 is_stmt 0             @ lvgl/src/lv_widgets/lv_textarea.c:436:39
	bl	lv_obj_get_style_border_width
	.loc	10 436 24                       @ lvgl/src/lv_widgets/lv_textarea.c:436:24
	strh.w	r0, [sp, #30]
	.loc	10 437 26 is_stmt 1             @ lvgl/src/lv_widgets/lv_textarea.c:437:26
	ldr	r0, [sp, #48]
	.loc	10 437 31 is_stmt 0             @ lvgl/src/lv_widgets/lv_textarea.c:437:31
	ldr	r0, [r0, #64]
	.loc	10 437 38                       @ lvgl/src/lv_widgets/lv_textarea.c:437:38
	str	r0, [sp, #20]                   @ 4-byte Spill
	ldrsh.w	r0, [sp, #30]
	cbnz	r0, .LBB34_16
	b	.LBB34_15
.LBB34_15:
	.loc	10 0 38                         @ lvgl/src/lv_widgets/lv_textarea.c:0:38
	movs	r0, #1
	.loc	10 437 38                       @ lvgl/src/lv_widgets/lv_textarea.c:437:38
	str	r0, [sp, #16]                   @ 4-byte Spill
	b	.LBB34_17
.LBB34_16:
	.loc	10 437 62                       @ lvgl/src/lv_widgets/lv_textarea.c:437:62
	ldrsh.w	r0, [sp, #30]
	.loc	10 437 38                       @ lvgl/src/lv_widgets/lv_textarea.c:437:38
	str	r0, [sp, #16]                   @ 4-byte Spill
	b	.LBB34_17
.LBB34_17:
	ldr	r0, [sp, #20]                   @ 4-byte Reload
	ldr	r1, [sp, #16]                   @ 4-byte Reload
	.loc	10 437 9                        @ lvgl/src/lv_widgets/lv_textarea.c:437:9
	sxth	r1, r1
	bl	lv_obj_set_width
	.loc	10 438 5 is_stmt 1              @ lvgl/src/lv_widgets/lv_textarea.c:438:5
	b	.LBB34_18
.Ltmp534:
.LBB34_18:
	.loc	10 440 8                        @ lvgl/src/lv_widgets/lv_textarea.c:440:8
	ldr	r0, [sp, #48]
	.loc	10 440 13 is_stmt 0             @ lvgl/src/lv_widgets/lv_textarea.c:440:13
	ldrb.w	r0, [r0, #132]
.Ltmp535:
	.loc	10 440 8                        @ lvgl/src/lv_widgets/lv_textarea.c:440:8
	lsls	r0, r0, #31
	cmp	r0, #0
	beq	.LBB34_27
	b	.LBB34_19
.LBB34_19:
.Ltmp536:
	.loc	10 441 29 is_stmt 1             @ lvgl/src/lv_widgets/lv_textarea.c:441:29
	movw	r0, :lower16:_lv_txt_encoded_get_byte_id
	movt	r0, :upper16:_lv_txt_encoded_get_byte_id
	ldr	r2, [r0]
	.loc	10 441 57 is_stmt 0             @ lvgl/src/lv_widgets/lv_textarea.c:441:57
	ldr	r1, [sp, #48]
	.loc	10 441 62                       @ lvgl/src/lv_widgets/lv_textarea.c:441:62
	ldr	r0, [r1, #80]
	.loc	10 441 83                       @ lvgl/src/lv_widgets/lv_textarea.c:441:83
	ldr	r1, [r1, #108]
	.loc	10 441 87                       @ lvgl/src/lv_widgets/lv_textarea.c:441:87
	subs	r1, #1
	.loc	10 441 29                       @ lvgl/src/lv_widgets/lv_textarea.c:441:29
	blx	r2
	.loc	10 441 18                       @ lvgl/src/lv_widgets/lv_textarea.c:441:18
	str	r0, [sp, #24]
	.loc	10 442 21 is_stmt 1             @ lvgl/src/lv_widgets/lv_textarea.c:442:21
	ldr	r1, [sp, #48]
	.loc	10 442 26 is_stmt 0             @ lvgl/src/lv_widgets/lv_textarea.c:442:26
	ldr	r0, [r1, #80]
	.loc	10 442 47                       @ lvgl/src/lv_widgets/lv_textarea.c:442:47
	str	r0, [sp, #8]                    @ 4-byte Spill
	ldr	r1, [r1, #108]
	.loc	10 442 51                       @ lvgl/src/lv_widgets/lv_textarea.c:442:51
	subs	r1, #1
	.loc	10 442 56                       @ lvgl/src/lv_widgets/lv_textarea.c:442:56
	str	r1, [sp, #4]                    @ 4-byte Spill
	movw	r1, :lower16:_lv_txt_encoded_size
	movt	r1, :upper16:_lv_txt_encoded_size
	ldr	r1, [r1]
	.loc	10 442 91                       @ lvgl/src/lv_widgets/lv_textarea.c:442:91
	ldr	r2, [sp, #24]
	.loc	10 442 78                       @ lvgl/src/lv_widgets/lv_textarea.c:442:78
	add	r0, r2
	.loc	10 442 56                       @ lvgl/src/lv_widgets/lv_textarea.c:442:56
	blx	r1
	ldr	r1, [sp, #4]                    @ 4-byte Reload
	mov	r2, r0
	.loc	10 442 9                        @ lvgl/src/lv_widgets/lv_textarea.c:442:9
	ldr	r0, [sp, #8]                    @ 4-byte Reload
	bl	_lv_txt_cut
	.loc	10 444 39 is_stmt 1             @ lvgl/src/lv_widgets/lv_textarea.c:444:39
	ldr	r0, [sp, #48]
	.loc	10 444 44 is_stmt 0             @ lvgl/src/lv_widgets/lv_textarea.c:444:44
	ldr	r0, [r0, #80]
	.loc	10 444 53                       @ lvgl/src/lv_widgets/lv_textarea.c:444:53
	str	r0, [sp, #12]                   @ 4-byte Spill
	bl	strlen
	mov	r1, r0
	.loc	10 444 74                       @ lvgl/src/lv_widgets/lv_textarea.c:444:74
	ldr	r0, [sp, #12]                   @ 4-byte Reload
	adds	r1, #1
	.loc	10 444 24                       @ lvgl/src/lv_widgets/lv_textarea.c:444:24
	bl	lv_mem_realloc
	.loc	10 444 9                        @ lvgl/src/lv_widgets/lv_textarea.c:444:9
	ldr	r1, [sp, #48]
	.loc	10 444 22                       @ lvgl/src/lv_widgets/lv_textarea.c:444:22
	str	r0, [r1, #80]
	.loc	10 445 9 is_stmt 1              @ lvgl/src/lv_widgets/lv_textarea.c:445:9
	b	.LBB34_20
.LBB34_20:
.Ltmp537:
	.loc	10 445 9 is_stmt 0              @ lvgl/src/lv_widgets/lv_textarea.c:445:9
	ldr	r0, [sp, #48]
	ldr	r0, [r0, #80]
	bl	lv_debug_check_null
.Ltmp538:
	.loc	10 445 9                        @ lvgl/src/lv_widgets/lv_textarea.c:445:9
	cbnz	r0, .LBB34_23
	b	.LBB34_21
.LBB34_21:
.Ltmp539:
	.loc	10 445 9                        @ lvgl/src/lv_widgets/lv_textarea.c:445:9
	ldr	r0, [sp, #48]
	ldr	r2, [r0, #80]
	movw	r0, :lower16:.L.str
	movt	r0, :upper16:.L.str
	movs	r3, #0
	bl	lv_debug_log_error
	b	.LBB34_22
.LBB34_22:                              @ =>This Inner Loop Header: Depth=1
	b	.LBB34_22
.Ltmp540:
.LBB34_23:
	.loc	10 445 9                        @ lvgl/src/lv_widgets/lv_textarea.c:445:9
	b	.LBB34_24
.Ltmp541:
.LBB34_24:
	.loc	10 446 12 is_stmt 1             @ lvgl/src/lv_widgets/lv_textarea.c:446:12
	ldr	r0, [sp, #48]
	.loc	10 446 17 is_stmt 0             @ lvgl/src/lv_widgets/lv_textarea.c:446:17
	ldr	r0, [r0, #80]
.Ltmp542:
	.loc	10 446 12                       @ lvgl/src/lv_widgets/lv_textarea.c:446:12
	cbnz	r0, .LBB34_26
	b	.LBB34_25
.LBB34_25:
.Ltmp543:
	.loc	10 446 34                       @ lvgl/src/lv_widgets/lv_textarea.c:446:34
	b	.LBB34_28
.Ltmp544:
.LBB34_26:
	.loc	10 447 5 is_stmt 1              @ lvgl/src/lv_widgets/lv_textarea.c:447:5
	b	.LBB34_27
.Ltmp545:
.LBB34_27:
	.loc	10 450 32                       @ lvgl/src/lv_widgets/lv_textarea.c:450:32
	ldr	r0, [sp, #52]
	.loc	10 450 36 is_stmt 0             @ lvgl/src/lv_widgets/lv_textarea.c:450:36
	ldr	r1, [sp, #48]
	.loc	10 450 48                       @ lvgl/src/lv_widgets/lv_textarea.c:450:48
	ldr	r1, [r1, #108]
	.loc	10 450 52                       @ lvgl/src/lv_widgets/lv_textarea.c:450:52
	subs	r1, #1
	.loc	10 450 5                        @ lvgl/src/lv_widgets/lv_textarea.c:450:5
	bl	lv_textarea_set_cursor_pos
	.loc	10 452 19 is_stmt 1             @ lvgl/src/lv_widgets/lv_textarea.c:452:19
	ldr	r0, [sp, #52]
	movs	r1, #16
	movs	r2, #0
	.loc	10 452 5 is_stmt 0              @ lvgl/src/lv_widgets/lv_textarea.c:452:5
	bl	lv_event_send
	.loc	10 454 1 is_stmt 1              @ lvgl/src/lv_widgets/lv_textarea.c:454:1
	b	.LBB34_28
.LBB34_28:
	add	sp, #56
	pop	{r7, pc}
.Ltmp546:
.Lfunc_end34:
	.size	lv_textarea_del_char, .Lfunc_end34-lv_textarea_del_char
	.cfi_endproc
	.cantunwind
	.fnend
                                        @ -- End function
	.section	.text.lv_obj_get_style_border_width,"ax",%progbits
	.p2align	3                               @ -- Begin function lv_obj_get_style_border_width
	.type	lv_obj_get_style_border_width,%function
	.code	16                              @ @lv_obj_get_style_border_width
	.thumb_func
lv_obj_get_style_border_width:
.Lfunc_begin35:
	.file	22 "E:\\Smart-access-control\\Hardware\\CODE" "lvgl/src/lv_widgets/../lv_core/lv_obj_style_dec.h"
	.loc	22 116 0                        @ lvgl/src/lv_widgets/../lv_core/lv_obj_style_dec.h:116:0
	.fnstart
	.cfi_startproc
@ %bb.0:
	.save	{r7, lr}
	push	{r7, lr}
	.cfi_def_cfa_offset 8
	.cfi_offset lr, -4
	.cfi_offset r7, -8
	.pad	#8
	sub	sp, #8
	.cfi_def_cfa_offset 16
                                        @ kill: def $r2 killed $r1
	str	r0, [sp, #4]
	strb.w	r1, [sp, #3]
.Ltmp547:
	.loc	22 116 1 prologue_end           @ lvgl/src/lv_widgets/../lv_core/lv_obj_style_dec.h:116:1
	ldr	r0, [sp, #4]
	ldrb.w	r1, [sp, #3]
	movs	r2, #48
	bl	_lv_obj_get_style_int
	add	sp, #8
	pop	{r7, pc}
.Ltmp548:
.Lfunc_end35:
	.size	lv_obj_get_style_border_width, .Lfunc_end35-lv_obj_get_style_border_width
	.cfi_endproc
	.cantunwind
	.fnend
                                        @ -- End function
	.section	.text.lv_textarea_del_char_forward,"ax",%progbits
	.hidden	lv_textarea_del_char_forward    @ -- Begin function lv_textarea_del_char_forward
	.globl	lv_textarea_del_char_forward
	.p2align	3
	.type	lv_textarea_del_char_forward,%function
	.code	16                              @ @lv_textarea_del_char_forward
	.thumb_func
lv_textarea_del_char_forward:
.Lfunc_begin36:
	.loc	10 461 0                        @ lvgl/src/lv_widgets/lv_textarea.c:461:0
	.fnstart
	.cfi_startproc
@ %bb.0:
	.save	{r7, lr}
	push	{r7, lr}
	.cfi_def_cfa_offset 8
	.cfi_offset lr, -4
	.cfi_offset r7, -8
	.pad	#16
	sub	sp, #16
	.cfi_def_cfa_offset 24
	str	r0, [sp, #12]
.Ltmp549:
	.loc	10 462 5 prologue_end           @ lvgl/src/lv_widgets/lv_textarea.c:462:5
	b	.LBB36_1
.LBB36_1:
.Ltmp550:
	.loc	10 462 5 is_stmt 0              @ lvgl/src/lv_widgets/lv_textarea.c:462:5
	ldr	r0, [sp, #12]
	bl	lv_debug_check_null
.Ltmp551:
	.loc	10 462 5                        @ lvgl/src/lv_widgets/lv_textarea.c:462:5
	cbnz	r0, .LBB36_4
	b	.LBB36_2
.LBB36_2:
.Ltmp552:
	.loc	10 462 5                        @ lvgl/src/lv_widgets/lv_textarea.c:462:5
	ldr	r2, [sp, #12]
	movw	r0, :lower16:.L.str.2
	movt	r0, :upper16:.L.str.2
	movs	r3, #0
	bl	lv_debug_log_error
	b	.LBB36_3
.LBB36_3:                               @ =>This Inner Loop Header: Depth=1
	b	.LBB36_3
.Ltmp553:
.LBB36_4:
	.loc	10 462 5                        @ lvgl/src/lv_widgets/lv_textarea.c:462:5
	b	.LBB36_5
.Ltmp554:
.LBB36_5:
	.loc	10 464 46 is_stmt 1             @ lvgl/src/lv_widgets/lv_textarea.c:464:46
	ldr	r0, [sp, #12]
	.loc	10 464 19 is_stmt 0             @ lvgl/src/lv_widgets/lv_textarea.c:464:19
	bl	lv_textarea_get_cursor_pos
	.loc	10 464 14                       @ lvgl/src/lv_widgets/lv_textarea.c:464:14
	str	r0, [sp, #8]
	.loc	10 465 32 is_stmt 1             @ lvgl/src/lv_widgets/lv_textarea.c:465:32
	ldr	r0, [sp, #12]
	.loc	10 465 36 is_stmt 0             @ lvgl/src/lv_widgets/lv_textarea.c:465:36
	ldr	r1, [sp, #8]
	.loc	10 465 39                       @ lvgl/src/lv_widgets/lv_textarea.c:465:39
	adds	r1, #1
	.loc	10 465 5                        @ lvgl/src/lv_widgets/lv_textarea.c:465:5
	bl	lv_textarea_set_cursor_pos
.Ltmp555:
	.loc	10 466 8 is_stmt 1              @ lvgl/src/lv_widgets/lv_textarea.c:466:8
	ldr	r0, [sp, #8]
	.loc	10 466 41 is_stmt 0             @ lvgl/src/lv_widgets/lv_textarea.c:466:41
	str	r0, [sp, #4]                    @ 4-byte Spill
	ldr	r0, [sp, #12]
	.loc	10 466 14                       @ lvgl/src/lv_widgets/lv_textarea.c:466:14
	bl	lv_textarea_get_cursor_pos
	mov	r1, r0
.Ltmp556:
	.loc	10 466 8                        @ lvgl/src/lv_widgets/lv_textarea.c:466:8
	ldr	r0, [sp, #4]                    @ 4-byte Reload
	cmp	r0, r1
	beq	.LBB36_7
	b	.LBB36_6
.LBB36_6:
.Ltmp557:
	.loc	10 466 67                       @ lvgl/src/lv_widgets/lv_textarea.c:466:67
	ldr	r0, [sp, #12]
	.loc	10 466 46                       @ lvgl/src/lv_widgets/lv_textarea.c:466:46
	bl	lv_textarea_del_char
	b	.LBB36_7
.Ltmp558:
.LBB36_7:
	.loc	10 467 1 is_stmt 1              @ lvgl/src/lv_widgets/lv_textarea.c:467:1
	add	sp, #16
	pop	{r7, pc}
.Ltmp559:
.Lfunc_end36:
	.size	lv_textarea_del_char_forward, .Lfunc_end36-lv_textarea_del_char_forward
	.cfi_endproc
	.cantunwind
	.fnend
                                        @ -- End function
	.section	.text.lv_textarea_set_text,"ax",%progbits
	.hidden	lv_textarea_set_text            @ -- Begin function lv_textarea_set_text
	.globl	lv_textarea_set_text
	.p2align	3
	.type	lv_textarea_set_text,%function
	.code	16                              @ @lv_textarea_set_text
	.thumb_func
lv_textarea_set_text:
.Lfunc_begin37:
	.loc	10 479 0                        @ lvgl/src/lv_widgets/lv_textarea.c:479:0
	.fnstart
	.cfi_startproc
@ %bb.0:
	.save	{r7, lr}
	push	{r7, lr}
	.cfi_def_cfa_offset 8
	.cfi_offset lr, -4
	.cfi_offset r7, -8
	.pad	#128
	sub	sp, #128
	.cfi_def_cfa_offset 136
	str	r0, [sp, #124]
	str	r1, [sp, #120]
.Ltmp560:
	.loc	10 480 5 prologue_end           @ lvgl/src/lv_widgets/lv_textarea.c:480:5
	b	.LBB37_1
.LBB37_1:
.Ltmp561:
	.loc	10 480 5 is_stmt 0              @ lvgl/src/lv_widgets/lv_textarea.c:480:5
	ldr	r0, [sp, #124]
	bl	lv_debug_check_null
.Ltmp562:
	.loc	10 480 5                        @ lvgl/src/lv_widgets/lv_textarea.c:480:5
	cbnz	r0, .LBB37_4
	b	.LBB37_2
.LBB37_2:
.Ltmp563:
	.loc	10 480 5                        @ lvgl/src/lv_widgets/lv_textarea.c:480:5
	ldr	r2, [sp, #124]
	movw	r0, :lower16:.L.str.2
	movt	r0, :upper16:.L.str.2
	movs	r3, #0
	bl	lv_debug_log_error
	b	.LBB37_3
.LBB37_3:                               @ =>This Inner Loop Header: Depth=1
	b	.LBB37_3
.Ltmp564:
.LBB37_4:
	.loc	10 480 5                        @ lvgl/src/lv_widgets/lv_textarea.c:480:5
	b	.LBB37_5
.Ltmp565:
.LBB37_5:
	.loc	10 481 5 is_stmt 1              @ lvgl/src/lv_widgets/lv_textarea.c:481:5
	b	.LBB37_6
.LBB37_6:
.Ltmp566:
	.loc	10 481 5 is_stmt 0              @ lvgl/src/lv_widgets/lv_textarea.c:481:5
	ldr	r0, [sp, #120]
	bl	lv_debug_check_null
.Ltmp567:
	.loc	10 481 5                        @ lvgl/src/lv_widgets/lv_textarea.c:481:5
	cbnz	r0, .LBB37_9
	b	.LBB37_7
.LBB37_7:
.Ltmp568:
	.loc	10 481 5                        @ lvgl/src/lv_widgets/lv_textarea.c:481:5
	ldr	r2, [sp, #120]
	movw	r0, :lower16:.L.str.2
	movt	r0, :upper16:.L.str.2
	movs	r3, #0
	bl	lv_debug_log_error
	b	.LBB37_8
.LBB37_8:                               @ =>This Inner Loop Header: Depth=1
	b	.LBB37_8
.Ltmp569:
.LBB37_9:
	.loc	10 481 5                        @ lvgl/src/lv_widgets/lv_textarea.c:481:5
	b	.LBB37_10
.Ltmp570:
.LBB37_10:
	.loc	10 483 51 is_stmt 1             @ lvgl/src/lv_widgets/lv_textarea.c:483:51
	ldr	r0, [sp, #124]
	.loc	10 483 31 is_stmt 0             @ lvgl/src/lv_widgets/lv_textarea.c:483:31
	bl	lv_obj_get_ext_attr
	.loc	10 483 25                       @ lvgl/src/lv_widgets/lv_textarea.c:483:25
	str	r0, [sp, #116]
	.loc	10 486 33 is_stmt 1             @ lvgl/src/lv_widgets/lv_textarea.c:486:33
	ldr	r0, [sp, #124]
	.loc	10 486 5 is_stmt 0              @ lvgl/src/lv_widgets/lv_textarea.c:486:5
	bl	lv_textarea_clear_selection
.Ltmp571:
	.loc	10 489 39 is_stmt 1             @ lvgl/src/lv_widgets/lv_textarea.c:489:39
	ldr	r0, [sp, #124]
	.loc	10 489 8 is_stmt 0              @ lvgl/src/lv_widgets/lv_textarea.c:489:8
	bl	lv_textarea_get_accepted_chars
	.loc	10 489 43                       @ lvgl/src/lv_widgets/lv_textarea.c:489:43
	cbnz	r0, .LBB37_12
	b	.LBB37_11
.LBB37_11:
	.loc	10 489 73                       @ lvgl/src/lv_widgets/lv_textarea.c:489:73
	ldr	r0, [sp, #124]
	.loc	10 489 46                       @ lvgl/src/lv_widgets/lv_textarea.c:489:46
	bl	lv_textarea_get_max_length
.Ltmp572:
	.loc	10 489 8                        @ lvgl/src/lv_widgets/lv_textarea.c:489:8
	cbz	r0, .LBB37_18
	b	.LBB37_12
.LBB37_12:
.Ltmp573:
	.loc	10 490 27 is_stmt 1             @ lvgl/src/lv_widgets/lv_textarea.c:490:27
	ldr	r0, [sp, #116]
	.loc	10 490 32 is_stmt 0             @ lvgl/src/lv_widgets/lv_textarea.c:490:32
	ldr	r0, [r0, #64]
	.loc	10 490 9                        @ lvgl/src/lv_widgets/lv_textarea.c:490:9
	movw	r1, :lower16:.L.str.3
	movt	r1, :upper16:.L.str.3
	bl	lv_label_set_text
	.loc	10 491 36 is_stmt 1             @ lvgl/src/lv_widgets/lv_textarea.c:491:36
	ldr	r0, [sp, #124]
	movw	r1, #32767
	.loc	10 491 9 is_stmt 0              @ lvgl/src/lv_widgets/lv_textarea.c:491:9
	bl	lv_textarea_set_cursor_pos
.Ltmp574:
	.loc	10 492 12 is_stmt 1             @ lvgl/src/lv_widgets/lv_textarea.c:492:12
	ldr	r0, [sp, #116]
	.loc	10 492 17 is_stmt 0             @ lvgl/src/lv_widgets/lv_textarea.c:492:17
	ldrb.w	r0, [r0, #132]
.Ltmp575:
	.loc	10 492 12                       @ lvgl/src/lv_widgets/lv_textarea.c:492:12
	lsls	r0, r0, #31
	cbz	r0, .LBB37_14
	b	.LBB37_13
.LBB37_13:
.Ltmp576:
	.loc	10 493 13 is_stmt 1             @ lvgl/src/lv_widgets/lv_textarea.c:493:13
	ldr	r0, [sp, #116]
	.loc	10 493 18 is_stmt 0             @ lvgl/src/lv_widgets/lv_textarea.c:493:18
	ldr	r1, [r0, #80]
	movs	r0, #0
	.loc	10 493 29                       @ lvgl/src/lv_widgets/lv_textarea.c:493:29
	strb	r0, [r1]
	.loc	10 494 9 is_stmt 1              @ lvgl/src/lv_widgets/lv_textarea.c:494:9
	b	.LBB37_14
.Ltmp577:
.LBB37_14:
	.loc	10 0 9 is_stmt 0                @ lvgl/src/lv_widgets/lv_textarea.c:0:9
	movs	r0, #0
	.loc	10 495 18 is_stmt 1             @ lvgl/src/lv_widgets/lv_textarea.c:495:18
	str	r0, [sp, #112]
	.loc	10 496 9                        @ lvgl/src/lv_widgets/lv_textarea.c:496:9
	b	.LBB37_15
.LBB37_15:                              @ =>This Inner Loop Header: Depth=1
	.loc	10 496 15 is_stmt 0             @ lvgl/src/lv_widgets/lv_textarea.c:496:15
	ldr	r0, [sp, #120]
	.loc	10 496 19                       @ lvgl/src/lv_widgets/lv_textarea.c:496:19
	ldr	r1, [sp, #112]
	.loc	10 496 15                       @ lvgl/src/lv_widgets/lv_textarea.c:496:15
	ldrsb	r0, [r0, r1]
	.loc	10 496 9                        @ lvgl/src/lv_widgets/lv_textarea.c:496:9
	cbz	r0, .LBB37_17
	b	.LBB37_16
.LBB37_16:                              @   in Loop: Header=BB37_15 Depth=1
.Ltmp578:
	.loc	10 497 26 is_stmt 1             @ lvgl/src/lv_widgets/lv_textarea.c:497:26
	movw	r0, :lower16:_lv_txt_encoded_next
	movt	r0, :upper16:_lv_txt_encoded_next
	ldr	r2, [r0]
	.loc	10 497 47 is_stmt 0             @ lvgl/src/lv_widgets/lv_textarea.c:497:47
	ldr	r0, [sp, #120]
	add	r1, sp, #112
	.loc	10 497 26                       @ lvgl/src/lv_widgets/lv_textarea.c:497:26
	blx	r2
	.loc	10 497 22                       @ lvgl/src/lv_widgets/lv_textarea.c:497:22
	str	r0, [sp, #108]
	.loc	10 498 34 is_stmt 1             @ lvgl/src/lv_widgets/lv_textarea.c:498:34
	ldr	r0, [sp, #124]
	.loc	10 498 38 is_stmt 0             @ lvgl/src/lv_widgets/lv_textarea.c:498:38
	str	r0, [sp, #24]                   @ 4-byte Spill
	movw	r0, :lower16:_lv_txt_unicode_to_encoded
	movt	r0, :upper16:_lv_txt_unicode_to_encoded
	ldr	r1, [r0]
	.loc	10 498 65                       @ lvgl/src/lv_widgets/lv_textarea.c:498:65
	ldr	r0, [sp, #108]
	.loc	10 498 38                       @ lvgl/src/lv_widgets/lv_textarea.c:498:38
	blx	r1
	mov	r1, r0
	.loc	10 498 13                       @ lvgl/src/lv_widgets/lv_textarea.c:498:13
	ldr	r0, [sp, #24]                   @ 4-byte Reload
	bl	lv_textarea_add_char
.Ltmp579:
	.loc	10 496 9 is_stmt 1              @ lvgl/src/lv_widgets/lv_textarea.c:496:9
	b	.LBB37_15
.LBB37_17:
	.loc	10 500 5                        @ lvgl/src/lv_widgets/lv_textarea.c:500:5
	b	.LBB37_19
.Ltmp580:
.LBB37_18:
	.loc	10 502 27                       @ lvgl/src/lv_widgets/lv_textarea.c:502:27
	ldr	r0, [sp, #116]
	.loc	10 502 32 is_stmt 0             @ lvgl/src/lv_widgets/lv_textarea.c:502:32
	ldr	r0, [r0, #64]
	.loc	10 502 39                       @ lvgl/src/lv_widgets/lv_textarea.c:502:39
	ldr	r1, [sp, #120]
	.loc	10 502 9                        @ lvgl/src/lv_widgets/lv_textarea.c:502:9
	bl	lv_label_set_text
	.loc	10 503 36 is_stmt 1             @ lvgl/src/lv_widgets/lv_textarea.c:503:36
	ldr	r0, [sp, #124]
	movw	r1, #32767
	.loc	10 503 9 is_stmt 0              @ lvgl/src/lv_widgets/lv_textarea.c:503:9
	bl	lv_textarea_set_cursor_pos
	b	.LBB37_19
.Ltmp581:
.LBB37_19:
	.loc	10 507 8 is_stmt 1              @ lvgl/src/lv_widgets/lv_textarea.c:507:8
	ldr	r0, [sp, #116]
	.loc	10 507 13 is_stmt 0             @ lvgl/src/lv_widgets/lv_textarea.c:507:13
	ldr	r0, [r0, #68]
.Ltmp582:
	.loc	10 507 8                        @ lvgl/src/lv_widgets/lv_textarea.c:507:8
	cbz	r0, .LBB37_23
	b	.LBB37_20
.LBB37_20:
.Ltmp583:
	.loc	10 508 50 is_stmt 1             @ lvgl/src/lv_widgets/lv_textarea.c:508:50
	ldr	r0, [sp, #116]
	.loc	10 508 55 is_stmt 0             @ lvgl/src/lv_widgets/lv_textarea.c:508:55
	ldr	r0, [r0, #64]
	.loc	10 508 32                       @ lvgl/src/lv_widgets/lv_textarea.c:508:32
	bl	lv_label_get_text
	.loc	10 508 22                       @ lvgl/src/lv_widgets/lv_textarea.c:508:22
	str	r0, [sp, #104]
.Ltmp584:
	.loc	10 509 12 is_stmt 1             @ lvgl/src/lv_widgets/lv_textarea.c:509:12
	ldr	r0, [sp, #104]
	ldrsb.w	r0, [r0]
.Ltmp585:
	.loc	10 509 12 is_stmt 0             @ lvgl/src/lv_widgets/lv_textarea.c:509:12
	cbnz	r0, .LBB37_22
	b	.LBB37_21
.LBB37_21:
.Ltmp586:
	.loc	10 509 50                       @ lvgl/src/lv_widgets/lv_textarea.c:509:50
	ldr	r0, [sp, #124]
	.loc	10 509 32                       @ lvgl/src/lv_widgets/lv_textarea.c:509:32
	bl	lv_obj_invalidate
	b	.LBB37_22
.Ltmp587:
.LBB37_22:
	.loc	10 510 5 is_stmt 1              @ lvgl/src/lv_widgets/lv_textarea.c:510:5
	b	.LBB37_23
.Ltmp588:
.LBB37_23:
	.loc	10 513 25                       @ lvgl/src/lv_widgets/lv_textarea.c:513:25
	ldr	r0, [sp, #116]
	.loc	10 513 30 is_stmt 0             @ lvgl/src/lv_widgets/lv_textarea.c:513:30
	ldr	r0, [r0, #64]
	.loc	10 513 8                        @ lvgl/src/lv_widgets/lv_textarea.c:513:8
	bl	lv_obj_get_width
.Ltmp589:
	.loc	10 513 8                        @ lvgl/src/lv_widgets/lv_textarea.c:513:8
	cbnz	r0, .LBB37_28
	b	.LBB37_24
.LBB37_24:
.Ltmp590:
	.loc	10 514 69 is_stmt 1             @ lvgl/src/lv_widgets/lv_textarea.c:514:69
	ldr	r0, [sp, #124]
	movs	r1, #3
	.loc	10 514 39 is_stmt 0             @ lvgl/src/lv_widgets/lv_textarea.c:514:39
	bl	lv_obj_get_style_border_width
	.loc	10 514 24                       @ lvgl/src/lv_widgets/lv_textarea.c:514:24
	strh.w	r0, [sp, #102]
	.loc	10 515 26 is_stmt 1             @ lvgl/src/lv_widgets/lv_textarea.c:515:26
	ldr	r0, [sp, #116]
	.loc	10 515 31 is_stmt 0             @ lvgl/src/lv_widgets/lv_textarea.c:515:31
	ldr	r0, [r0, #64]
	.loc	10 515 38                       @ lvgl/src/lv_widgets/lv_textarea.c:515:38
	str	r0, [sp, #20]                   @ 4-byte Spill
	ldrsh.w	r0, [sp, #102]
	cbnz	r0, .LBB37_26
	b	.LBB37_25
.LBB37_25:
	.loc	10 0 38                         @ lvgl/src/lv_widgets/lv_textarea.c:0:38
	movs	r0, #1
	.loc	10 515 38                       @ lvgl/src/lv_widgets/lv_textarea.c:515:38
	str	r0, [sp, #16]                   @ 4-byte Spill
	b	.LBB37_27
.LBB37_26:
	.loc	10 515 62                       @ lvgl/src/lv_widgets/lv_textarea.c:515:62
	ldrsh.w	r0, [sp, #102]
	.loc	10 515 38                       @ lvgl/src/lv_widgets/lv_textarea.c:515:38
	str	r0, [sp, #16]                   @ 4-byte Spill
	b	.LBB37_27
.LBB37_27:
	ldr	r0, [sp, #20]                   @ 4-byte Reload
	ldr	r1, [sp, #16]                   @ 4-byte Reload
	.loc	10 515 9                        @ lvgl/src/lv_widgets/lv_textarea.c:515:9
	sxth	r1, r1
	bl	lv_obj_set_width
	.loc	10 516 5 is_stmt 1              @ lvgl/src/lv_widgets/lv_textarea.c:516:5
	b	.LBB37_28
.Ltmp591:
.LBB37_28:
	.loc	10 518 8                        @ lvgl/src/lv_widgets/lv_textarea.c:518:8
	ldr	r0, [sp, #116]
	.loc	10 518 13 is_stmt 0             @ lvgl/src/lv_widgets/lv_textarea.c:518:13
	ldrb.w	r0, [r0, #132]
.Ltmp592:
	.loc	10 518 8                        @ lvgl/src/lv_widgets/lv_textarea.c:518:8
	lsls	r0, r0, #31
	cmp	r0, #0
	beq	.LBB37_40
	b	.LBB37_29
.LBB37_29:
.Ltmp593:
	.loc	10 519 39 is_stmt 1             @ lvgl/src/lv_widgets/lv_textarea.c:519:39
	ldr	r0, [sp, #116]
	.loc	10 519 44 is_stmt 0             @ lvgl/src/lv_widgets/lv_textarea.c:519:44
	ldr	r0, [r0, #80]
	.loc	10 519 60                       @ lvgl/src/lv_widgets/lv_textarea.c:519:60
	str	r0, [sp, #12]                   @ 4-byte Spill
	ldr	r0, [sp, #120]
	.loc	10 519 53                       @ lvgl/src/lv_widgets/lv_textarea.c:519:53
	bl	strlen
	mov	r1, r0
	.loc	10 519 65                       @ lvgl/src/lv_widgets/lv_textarea.c:519:65
	ldr	r0, [sp, #12]                   @ 4-byte Reload
	adds	r1, #1
	.loc	10 519 24                       @ lvgl/src/lv_widgets/lv_textarea.c:519:24
	bl	lv_mem_realloc
	.loc	10 519 9                        @ lvgl/src/lv_widgets/lv_textarea.c:519:9
	ldr	r1, [sp, #116]
	.loc	10 519 22                       @ lvgl/src/lv_widgets/lv_textarea.c:519:22
	str	r0, [r1, #80]
	.loc	10 520 9 is_stmt 1              @ lvgl/src/lv_widgets/lv_textarea.c:520:9
	b	.LBB37_30
.LBB37_30:
.Ltmp594:
	.loc	10 520 9 is_stmt 0              @ lvgl/src/lv_widgets/lv_textarea.c:520:9
	ldr	r0, [sp, #116]
	ldr	r0, [r0, #80]
	bl	lv_debug_check_null
.Ltmp595:
	.loc	10 520 9                        @ lvgl/src/lv_widgets/lv_textarea.c:520:9
	cbnz	r0, .LBB37_33
	b	.LBB37_31
.LBB37_31:
.Ltmp596:
	.loc	10 520 9                        @ lvgl/src/lv_widgets/lv_textarea.c:520:9
	ldr	r0, [sp, #116]
	ldr	r2, [r0, #80]
	movw	r0, :lower16:.L.str
	movt	r0, :upper16:.L.str
	movs	r3, #0
	bl	lv_debug_log_error
	b	.LBB37_32
.LBB37_32:                              @ =>This Inner Loop Header: Depth=1
	b	.LBB37_32
.Ltmp597:
.LBB37_33:
	.loc	10 520 9                        @ lvgl/src/lv_widgets/lv_textarea.c:520:9
	b	.LBB37_34
.Ltmp598:
.LBB37_34:
	.loc	10 521 12 is_stmt 1             @ lvgl/src/lv_widgets/lv_textarea.c:521:12
	ldr	r0, [sp, #116]
	.loc	10 521 17 is_stmt 0             @ lvgl/src/lv_widgets/lv_textarea.c:521:17
	ldr	r0, [r0, #80]
.Ltmp599:
	.loc	10 521 12                       @ lvgl/src/lv_widgets/lv_textarea.c:521:12
	cbnz	r0, .LBB37_36
	b	.LBB37_35
.LBB37_35:
.Ltmp600:
	.loc	10 521 34                       @ lvgl/src/lv_widgets/lv_textarea.c:521:34
	b	.LBB37_41
.Ltmp601:
.LBB37_36:
	.loc	10 522 16 is_stmt 1             @ lvgl/src/lv_widgets/lv_textarea.c:522:16
	ldr	r0, [sp, #116]
	.loc	10 522 21 is_stmt 0             @ lvgl/src/lv_widgets/lv_textarea.c:522:21
	ldr	r0, [r0, #80]
	.loc	10 522 30                       @ lvgl/src/lv_widgets/lv_textarea.c:522:30
	ldr	r1, [sp, #120]
	.loc	10 522 9                        @ lvgl/src/lv_widgets/lv_textarea.c:522:9
	bl	strcpy
.Ltmp602:
	.loc	10 526 12 is_stmt 1             @ lvgl/src/lv_widgets/lv_textarea.c:526:12
	ldr	r0, [sp, #116]
	.loc	10 526 17 is_stmt 0             @ lvgl/src/lv_widgets/lv_textarea.c:526:17
	ldrh.w	r0, [r0, #92]
.Ltmp603:
	.loc	10 526 12                       @ lvgl/src/lv_widgets/lv_textarea.c:526:12
	cbnz	r0, .LBB37_38
	b	.LBB37_37
.LBB37_37:
.Ltmp604:
	.loc	10 527 28 is_stmt 1             @ lvgl/src/lv_widgets/lv_textarea.c:527:28
	ldr	r0, [sp, #124]
	.loc	10 527 13 is_stmt 0             @ lvgl/src/lv_widgets/lv_textarea.c:527:13
	bl	pwd_char_hider
	.loc	10 528 9 is_stmt 1              @ lvgl/src/lv_widgets/lv_textarea.c:528:9
	b	.LBB37_39
.Ltmp605:
.LBB37_38:
	.loc	10 0 9 is_stmt 0                @ lvgl/src/lv_widgets/lv_textarea.c:0:9
	add	r0, sp, #92
.Ltmp606:
	.loc	10 531 13 is_stmt 1             @ lvgl/src/lv_widgets/lv_textarea.c:531:13
	str	r0, [sp, #4]                    @ 4-byte Spill
	bl	lv_anim_path_init
	ldr	r0, [sp, #4]                    @ 4-byte Reload
	.loc	10 532 13                       @ lvgl/src/lv_widgets/lv_textarea.c:532:13
	movw	r1, :lower16:lv_anim_path_step
	movt	r1, :upper16:lv_anim_path_step
	bl	lv_anim_path_set_cb
	add	r0, sp, #28
	.loc	10 535 13                       @ lvgl/src/lv_widgets/lv_textarea.c:535:13
	str	r0, [sp, #8]                    @ 4-byte Spill
	bl	lv_anim_init
	ldr	r0, [sp, #8]                    @ 4-byte Reload
	.loc	10 536 33                       @ lvgl/src/lv_widgets/lv_textarea.c:536:33
	ldr	r1, [sp, #124]
	.loc	10 536 13 is_stmt 0             @ lvgl/src/lv_widgets/lv_textarea.c:536:13
	bl	lv_anim_set_var
	ldr	r0, [sp, #8]                    @ 4-byte Reload
	.loc	10 537 13 is_stmt 1             @ lvgl/src/lv_widgets/lv_textarea.c:537:13
	movw	r1, :lower16:pwd_char_hider_anim
