	.text
	.syntax unified
	.eabi_attribute	67, "2.09"	@ Tag_conformance
	.cpu	cortex-m7
	.eabi_attribute	6, 13	@ Tag_CPU_arch
	.eabi_attribute	7, 77	@ Tag_CPU_arch_profile
	.eabi_attribute	8, 0	@ Tag_ARM_ISA_use
	.eabi_attribute	9, 2	@ Tag_THUMB_ISA_use
	.fpu	fpv5-d16
	.eabi_attribute	36, 1	@ Tag_FP_HP_extension
	.eabi_attribute	34, 1	@ Tag_CPU_unaligned_access
	.eabi_attribute	17, 1	@ Tag_ABI_PCS_GOT_use
	.eabi_attribute	20, 2	@ Tag_ABI_FP_denormal
	.eabi_attribute	21, 0	@ Tag_ABI_FP_exceptions
	.eabi_attribute	23, 1	@ Tag_ABI_FP_number_model
	.eabi_attribute	24, 1	@ Tag_ABI_align_needed
	.eabi_attribute	25, 1	@ Tag_ABI_align_preserved
	.eabi_attribute	28, 1	@ Tag_ABI_VFP_args
	.eabi_attribute	38, 1	@ Tag_ABI_FP_16bit_format
	.eabi_attribute	18, 2	@ Tag_ABI_PCS_wchar_t
	.eabi_attribute	26, 1	@ Tag_ABI_enum_size
	.eabi_attribute	14, 0	@ Tag_ABI_PCS_R9_use
	.file	"lv_theme_material.c"
	.file	1 "E:\\Smart-access-control\\Hardware\\CODE" "./lvgl/src/lv_widgets/../lv_core/lv_obj.h"
	.file	2 "D:\\Keil_v5\\ARM\\ARMCLANG\\Bin\\..\\include" "stdint.h"
	.file	3 "E:\\Smart-access-control\\Hardware\\CODE" "./lvgl/src/lv_hal/../lv_misc/lv_ll.h"
	.file	4 "E:\\Smart-access-control\\Hardware\\CODE" "./lvgl/src/lv_conf.h"
	.file	5 "E:\\Smart-access-control\\Hardware\\CODE" "./lvgl/src/lv_misc/lv_area.h"
	.file	6 "E:\\Smart-access-control\\Hardware\\CODE" "./lvgl/src/lv_core/../lv_draw/../lv_misc/lv_types.h"
	.file	7 "E:\\Smart-access-control\\Hardware\\CODE" "lvgl/src/lv_themes/../lv_core/lv_style.h"
	.file	8 "E:\\Smart-access-control\\Hardware\\CODE" "./lvgl/src/lv_core/../lv_hal/lv_hal_indev.h"
	.file	9 "E:\\Smart-access-control\\Hardware\\CODE" "./lvgl/src/lv_core/../lv_draw/../lv_misc/lv_bidi.h"
	.file	10 "E:\\Smart-access-control\\Hardware\\CODE" "./lvgl/src/lv_themes/lv_theme.h"
	.file	11 "E:\\Smart-access-control\\Hardware\\CODE" "./lvgl/src/lv_core/../lv_draw/../lv_misc/lv_color.h"
	.file	12 "E:\\Smart-access-control\\Hardware\\CODE" "./lvgl/src/lv_widgets/../lv_font/lv_font.h"
	.file	13 "E:\\Smart-access-control\\Hardware\\CODE" "lvgl/src/lv_themes/lv_theme_material.c"
	.file	14 "E:\\Smart-access-control\\Hardware\\CODE" "lvgl/src/lv_themes/lv_theme_material.h"
	.file	15 "E:\\Smart-access-control\\Hardware\\CODE" "./lvgl/src/lv_hal/lv_hal_disp.h"
	.file	16 "E:\\Smart-access-control\\Hardware\\CODE" "./lvgl/src/lv_widgets/../lv_widgets/lv_cont.h"
	.file	17 "E:\\Smart-access-control\\Hardware\\CODE" "./lvgl/src/lv_widgets/lv_btn.h"
	.file	18 "E:\\Smart-access-control\\Hardware\\CODE" "./lvgl/src/lv_widgets/lv_btnmatrix.h"
	.file	19 "E:\\Smart-access-control\\Hardware\\CODE" "./lvgl/src/lv_widgets/lv_keyboard.h"
	.file	20 "E:\\Smart-access-control\\Hardware\\CODE" "./lvgl/src/lv_widgets/lv_bar.h"
	.file	21 "E:\\Smart-access-control\\Hardware\\CODE" "./lvgl/src/lv_widgets/lv_switch.h"
	.file	22 "E:\\Smart-access-control\\Hardware\\CODE" "./lvgl/src/lv_widgets/lv_arc.h"
	.file	23 "E:\\Smart-access-control\\Hardware\\CODE" "./lvgl/src/lv_widgets/lv_spinner.h"
	.file	24 "E:\\Smart-access-control\\Hardware\\CODE" "./lvgl/src/lv_widgets/lv_slider.h"
	.file	25 "E:\\Smart-access-control\\Hardware\\CODE" "./lvgl/src/lv_widgets/lv_checkbox.h"
	.file	26 "E:\\Smart-access-control\\Hardware\\CODE" "./lvgl/src/lv_widgets/lv_msgbox.h"
	.file	27 "E:\\Smart-access-control\\Hardware\\CODE" "./lvgl/src/lv_widgets/lv_led.h"
	.file	28 "E:\\Smart-access-control\\Hardware\\CODE" "./lvgl/src/lv_widgets/../lv_widgets/lv_page.h"
	.file	29 "E:\\Smart-access-control\\Hardware\\CODE" "./lvgl/src/lv_widgets/lv_tabview.h"
	.file	30 "E:\\Smart-access-control\\Hardware\\CODE" "./lvgl/src/lv_widgets/lv_tileview.h"
	.file	31 "E:\\Smart-access-control\\Hardware\\CODE" "./lvgl/src/lv_widgets/lv_roller.h"
	.file	32 "E:\\Smart-access-control\\Hardware\\CODE" "./lvgl/src/lv_widgets/lv_objmask.h"
	.file	33 "E:\\Smart-access-control\\Hardware\\CODE" "./lvgl/src/lv_widgets/lv_list.h"
	.file	34 "E:\\Smart-access-control\\Hardware\\CODE" "./lvgl/src/lv_widgets/lv_dropdown.h"
	.file	35 "E:\\Smart-access-control\\Hardware\\CODE" "./lvgl/src/lv_widgets/lv_chart.h"
	.file	36 "E:\\Smart-access-control\\Hardware\\CODE" "./lvgl/src/lv_widgets/lv_table.h"
	.file	37 "E:\\Smart-access-control\\Hardware\\CODE" "./lvgl/src/lv_widgets/../lv_widgets/lv_win.h"
	.file	38 "E:\\Smart-access-control\\Hardware\\CODE" "./lvgl/src/lv_widgets/../lv_widgets/lv_textarea.h"
	.file	39 "E:\\Smart-access-control\\Hardware\\CODE" "./lvgl/src/lv_widgets/lv_spinbox.h"
	.file	40 "E:\\Smart-access-control\\Hardware\\CODE" "./lvgl/src/lv_widgets/lv_calendar.h"
	.file	41 "E:\\Smart-access-control\\Hardware\\CODE" "./lvgl/src/lv_widgets/lv_cpicker.h"
	.file	42 "E:\\Smart-access-control\\Hardware\\CODE" "./lvgl/src/lv_widgets/lv_linemeter.h"
	.file	43 "E:\\Smart-access-control\\Hardware\\CODE" "./lvgl/src/lv_widgets/lv_gauge.h"
	.section	.text.lv_theme_material_init,"ax",%progbits
	.hidden	lv_theme_material_init          @ -- Begin function lv_theme_material_init
	.globl	lv_theme_material_init
	.p2align	3
	.type	lv_theme_material_init,%function
	.code	16                              @ @lv_theme_material_init
	.thumb_func
lv_theme_material_init:
.Lfunc_begin0:
	.loc	13 889 0                        @ lvgl/src/lv_themes/lv_theme_material.c:889:0
	.fnstart
	.cfi_sections .debug_frame
	.cfi_startproc
@ %bb.0:
	@DEBUG_VALUE: lv_theme_material_init:flags <- $r2
	@DEBUG_VALUE: lv_theme_material_init:font_small <- $r3
	.save	{r4, r5, r6, r7, r8, lr}
	push.w	{r4, r5, r6, r7, r8, lr}
	.cfi_def_cfa_offset 24
	.cfi_offset lr, -4
	.cfi_offset r8, -8
	.cfi_offset r7, -12
	.cfi_offset r6, -16
	.cfi_offset r5, -20
	.cfi_offset r4, -24
.Ltmp0:
	@DEBUG_VALUE: lv_theme_material_init:font_normal <- [DW_OP_plus_uconst 24] [$sp+0]
	@DEBUG_VALUE: lv_theme_material_init:font_subtitle <- [DW_OP_plus_uconst 28] [$sp+0]
	@DEBUG_VALUE: lv_theme_material_init:font_title <- [DW_OP_plus_uconst 32] [$sp+0]
	.loc	13 894 8 prologue_end           @ lvgl/src/lv_themes/lv_theme_material.c:894:8
	movw	r4, :lower16:styles
	mov	r6, r3
.Ltmp1:
	@DEBUG_VALUE: lv_theme_material_init:font_small <- $r6
	@DEBUG_VALUE: lv_theme_material_init:font_small <- $r6
	movt	r4, :upper16:styles
	mov	r8, r2
.Ltmp2:
	@DEBUG_VALUE: lv_theme_material_init:flags <- $r8
	@DEBUG_VALUE: lv_theme_material_init:flags <- $r8
	.loc	13 0 8 is_stmt 0                @ lvgl/src/lv_themes/lv_theme_material.c:0:8
	mov	r5, r0
.Ltmp3:
	@DEBUG_VALUE: lv_theme_material_init:color_secondary <- $r7
	@DEBUG_VALUE: lv_theme_material_init:color_primary <- $r5
	.loc	13 894 8                        @ lvgl/src/lv_themes/lv_theme_material.c:894:8
	ldr	r7, [r4]
.Ltmp4:
	@DEBUG_VALUE: lv_theme_material_init:color_secondary <- [DW_OP_LLVM_entry_value 1] $r7
	.loc	13 894 8                        @ lvgl/src/lv_themes/lv_theme_material.c:894:8
	cmp	r7, #0
	mov	r7, r1
	bne	.LBB0_3
.Ltmp5:
@ %bb.1:
	@DEBUG_VALUE: lv_theme_material_init:flags <- $r8
	@DEBUG_VALUE: lv_theme_material_init:font_small <- $r6
	@DEBUG_VALUE: lv_theme_material_init:color_primary <- $r5
	@DEBUG_VALUE: lv_theme_material_init:font_title <- [DW_OP_plus_uconst 32] [$sp+0]
	@DEBUG_VALUE: lv_theme_material_init:font_subtitle <- [DW_OP_plus_uconst 28] [$sp+0]
	@DEBUG_VALUE: lv_theme_material_init:font_normal <- [DW_OP_plus_uconst 24] [$sp+0]
	@DEBUG_VALUE: lv_theme_material_init:color_secondary <- [DW_OP_LLVM_entry_value 1] $r7
	.loc	13 895 18 is_stmt 1             @ lvgl/src/lv_themes/lv_theme_material.c:895:18
	movs	r0, #192
	bl	lv_mem_alloc
	.loc	13 896 12                       @ lvgl/src/lv_themes/lv_theme_material.c:896:12
	cmp	r0, #0
	.loc	13 895 16                       @ lvgl/src/lv_themes/lv_theme_material.c:895:16
	str	r0, [r4]
	.loc	13 896 12                       @ lvgl/src/lv_themes/lv_theme_material.c:896:12
	beq	.LBB0_4
.Ltmp6:
@ %bb.2:
	@DEBUG_VALUE: lv_theme_material_init:flags <- $r8
	@DEBUG_VALUE: lv_theme_material_init:font_small <- $r6
	@DEBUG_VALUE: lv_theme_material_init:color_primary <- $r5
	@DEBUG_VALUE: lv_theme_material_init:font_title <- [DW_OP_plus_uconst 32] [$sp+0]
	@DEBUG_VALUE: lv_theme_material_init:font_subtitle <- [DW_OP_plus_uconst 28] [$sp+0]
	@DEBUG_VALUE: lv_theme_material_init:font_normal <- [DW_OP_plus_uconst 24] [$sp+0]
	@DEBUG_VALUE: lv_theme_material_init:color_secondary <- [DW_OP_LLVM_entry_value 1] $r7
	.loc	13 897 9                        @ lvgl/src/lv_themes/lv_theme_material.c:897:9
	movs	r1, #192
	bl	_lv_memset_00
	.loc	13 898 47                       @ lvgl/src/lv_themes/lv_theme_material.c:898:47
	movw	r0, :lower16:_lv_theme_material_styles
	.loc	13 898 49 is_stmt 0             @ lvgl/src/lv_themes/lv_theme_material.c:898:49
	ldr	r1, [r4]
	.loc	13 898 47                       @ lvgl/src/lv_themes/lv_theme_material.c:898:47
	movt	r0, :upper16:_lv_theme_material_styles
	str	r1, [r0]
.Ltmp7:
.LBB0_3:
	@DEBUG_VALUE: lv_theme_material_init:flags <- $r8
	@DEBUG_VALUE: lv_theme_material_init:font_small <- $r6
	@DEBUG_VALUE: lv_theme_material_init:color_primary <- $r5
	@DEBUG_VALUE: lv_theme_material_init:font_title <- [DW_OP_plus_uconst 32] [$sp+0]
	@DEBUG_VALUE: lv_theme_material_init:font_subtitle <- [DW_OP_plus_uconst 28] [$sp+0]
	@DEBUG_VALUE: lv_theme_material_init:font_normal <- [DW_OP_plus_uconst 24] [$sp+0]
	@DEBUG_VALUE: lv_theme_material_init:color_secondary <- [DW_OP_LLVM_entry_value 1] $r7
	.loc	13 901 27 is_stmt 1             @ lvgl/src/lv_themes/lv_theme_material.c:901:27
	movw	r4, :lower16:theme
	ldr	r0, [sp, #24]
	movt	r4, :upper16:theme
	strd	r5, r7, [r4, #12]
	.loc	13 903 22                       @ lvgl/src/lv_themes/lv_theme_material.c:903:22
	str	r6, [r4, #20]
	.loc	13 904 23                       @ lvgl/src/lv_themes/lv_theme_material.c:904:23
	str	r0, [r4, #24]
	ldr	r0, [sp, #28]
	.loc	13 905 25                       @ lvgl/src/lv_themes/lv_theme_material.c:905:25
	str	r0, [r4, #28]
	ldr	r0, [sp, #32]
	.loc	13 906 22                       @ lvgl/src/lv_themes/lv_theme_material.c:906:22
	strd	r0, r8, [r4, #32]
	.loc	13 909 5                        @ lvgl/src/lv_themes/lv_theme_material.c:909:5
	bl	basic_init
	.loc	13 913 5                        @ lvgl/src/lv_themes/lv_theme_material.c:913:5
	bl	bar_init
	.loc	13 916 5                        @ lvgl/src/lv_themes/lv_theme_material.c:916:5
	bl	led_init
	.loc	13 917 5                        @ lvgl/src/lv_themes/lv_theme_material.c:917:5
	bl	slider_init
	.loc	13 918 5                        @ lvgl/src/lv_themes/lv_theme_material.c:918:5
	bl	switch_init
	.loc	13 919 5                        @ lvgl/src/lv_themes/lv_theme_material.c:919:5
	bl	linemeter_init
	.loc	13 920 5                        @ lvgl/src/lv_themes/lv_theme_material.c:920:5
	bl	gauge_init
	.loc	13 921 5                        @ lvgl/src/lv_themes/lv_theme_material.c:921:5
	bl	arc_init
	.loc	13 923 5                        @ lvgl/src/lv_themes/lv_theme_material.c:923:5
	bl	chart_init
	.loc	13 924 5                        @ lvgl/src/lv_themes/lv_theme_material.c:924:5
	bl	calendar_init
	.loc	13 925 5                        @ lvgl/src/lv_themes/lv_theme_material.c:925:5
	bl	cpicker_init
	.loc	13 926 5                        @ lvgl/src/lv_themes/lv_theme_material.c:926:5
	bl	checkbox_init
	.loc	13 928 5                        @ lvgl/src/lv_themes/lv_theme_material.c:928:5
	bl	keyboard_init
	.loc	13 929 5                        @ lvgl/src/lv_themes/lv_theme_material.c:929:5
	bl	msgbox_init
	.loc	13 930 5                        @ lvgl/src/lv_themes/lv_theme_material.c:930:5
	bl	page_init
	.loc	13 931 5                        @ lvgl/src/lv_themes/lv_theme_material.c:931:5
	bl	textarea_init
	.loc	13 932 5                        @ lvgl/src/lv_themes/lv_theme_material.c:932:5
	bl	spinbox_init
	.loc	13 933 5                        @ lvgl/src/lv_themes/lv_theme_material.c:933:5
	bl	list_init
	.loc	13 934 5                        @ lvgl/src/lv_themes/lv_theme_material.c:934:5
	bl	ddlist_init
	.loc	13 935 5                        @ lvgl/src/lv_themes/lv_theme_material.c:935:5
	bl	roller_init
	.loc	13 938 5                        @ lvgl/src/lv_themes/lv_theme_material.c:938:5
	bl	table_init
	.loc	13 940 5                        @ lvgl/src/lv_themes/lv_theme_material.c:940:5
	bl	tabview_win_shared_init
	.loc	13 943 20                       @ lvgl/src/lv_themes/lv_theme_material.c:943:20
	movw	r0, :lower16:theme_apply
	movt	r0, :upper16:theme_apply
	str	r0, [r4]
	movs	r0, #0
	.loc	13 942 21                       @ lvgl/src/lv_themes/lv_theme_material.c:942:21
	str	r0, [r4, #4]
	.loc	13 945 5                        @ lvgl/src/lv_themes/lv_theme_material.c:945:5
	movs	r0, #0
	bl	lv_obj_report_style_mod
	.loc	13 948 1                        @ lvgl/src/lv_themes/lv_theme_material.c:948:1
	mov	r0, r4
	pop.w	{r4, r5, r6, r7, r8, pc}
.Ltmp8:
.LBB0_4:
	@DEBUG_VALUE: lv_theme_material_init:flags <- $r8
	@DEBUG_VALUE: lv_theme_material_init:font_small <- $r6
	@DEBUG_VALUE: lv_theme_material_init:color_primary <- $r5
	@DEBUG_VALUE: lv_theme_material_init:font_title <- [DW_OP_plus_uconst 32] [$sp+0]
	@DEBUG_VALUE: lv_theme_material_init:font_subtitle <- [DW_OP_plus_uconst 28] [$sp+0]
	@DEBUG_VALUE: lv_theme_material_init:font_normal <- [DW_OP_plus_uconst 24] [$sp+0]
	@DEBUG_VALUE: lv_theme_material_init:color_secondary <- [DW_OP_LLVM_entry_value 1] $r7
	.loc	13 0 1 is_stmt 0                @ lvgl/src/lv_themes/lv_theme_material.c:0:1
	movs	r0, #0
	.loc	13 948 1                        @ lvgl/src/lv_themes/lv_theme_material.c:948:1
	pop.w	{r4, r5, r6, r7, r8, pc}
.Ltmp9:
.Lfunc_end0:
	.size	lv_theme_material_init, .Lfunc_end0-lv_theme_material_init
	.cfi_endproc
	.cantunwind
	.fnend
                                        @ -- End function
	.section	.text.basic_init,"ax",%progbits
	.p2align	3                               @ -- Begin function basic_init
	.type	basic_init,%function
	.code	16                              @ @basic_init
	.thumb_func
basic_init:
.Lfunc_begin1:
	.loc	13 194 0 is_stmt 1              @ lvgl/src/lv_themes/lv_theme_material.c:194:0
	.fnstart
	.cfi_startproc
@ %bb.0:
	.save	{r4, r5, r6, r7, r8, r9, r10, r11, lr}
	push.w	{r4, r5, r6, r7, r8, r9, r10, r11, lr}
	.cfi_def_cfa_offset 36
	.cfi_offset lr, -4
	.cfi_offset r11, -8
	.cfi_offset r10, -12
	.cfi_offset r9, -16
	.cfi_offset r8, -20
	.cfi_offset r7, -24
	.cfi_offset r6, -28
	.cfi_offset r5, -32
	.cfi_offset r4, -36
	.pad	#4
	sub	sp, #4
	.cfi_def_cfa_offset 40
.Ltmp10:
	.loc	13 195 21 prologue_end          @ lvgl/src/lv_themes/lv_theme_material.c:195:21
	movw	r10, :lower16:styles
	movw	r4, #15938
	movt	r10, :upper16:styles
	movt	r4, #59
	ldr.w	r0, [r10]
	.loc	13 195 5 is_stmt 0              @ lvgl/src/lv_themes/lv_theme_material.c:195:5
	bl	lv_style_reset
	.loc	13 196 26 is_stmt 1             @ lvgl/src/lv_themes/lv_theme_material.c:196:26
	ldr.w	r0, [r10]
	.loc	13 196 5 is_stmt 0              @ lvgl/src/lv_themes/lv_theme_material.c:196:5
	movs	r1, #0
	movs	r2, #255
	bl	lv_style_set_bg_opa
	.loc	13 197 59 is_stmt 1             @ lvgl/src/lv_themes/lv_theme_material.c:197:59
	movw	r11, :lower16:theme
	.loc	13 197 28 is_stmt 0             @ lvgl/src/lv_themes/lv_theme_material.c:197:28
	ldr.w	r5, [r10]
	.loc	13 197 59                       @ lvgl/src/lv_themes/lv_theme_material.c:197:59
	movt	r11, :upper16:theme
	ldr.w	r0, [r11, #36]
	lsls	r0, r0, #30
	movw	r0, #61427
	movt	r0, #234
	itt	pl
	movwpl	r0, #19290
	movtpl	r0, #68
	bl	lv_color_hex
	mov	r2, r0
	.loc	13 197 5                        @ lvgl/src/lv_themes/lv_theme_material.c:197:5
	movs	r1, #0
	mov	r0, r5
	bl	lv_style_set_bg_color
	.loc	13 198 61 is_stmt 1             @ lvgl/src/lv_themes/lv_theme_material.c:198:61
	ldr.w	r0, [r11, #36]
	.loc	13 198 30 is_stmt 0             @ lvgl/src/lv_themes/lv_theme_material.c:198:30
	ldr.w	r5, [r10]
	.loc	13 198 61                       @ lvgl/src/lv_themes/lv_theme_material.c:198:61
	lsls	r0, r0, #30
	mov	r0, r4
	itt	pl
	movwpl	r0, #59884
	movtpl	r0, #231
	bl	lv_color_hex
	mov	r2, r0
	.loc	13 198 5                        @ lvgl/src/lv_themes/lv_theme_material.c:198:5
	movs	r1, #0
	mov	r0, r5
	bl	lv_style_set_text_color
	.loc	13 199 62 is_stmt 1             @ lvgl/src/lv_themes/lv_theme_material.c:199:62
	ldr.w	r0, [r11, #36]
	.loc	13 199 31 is_stmt 0             @ lvgl/src/lv_themes/lv_theme_material.c:199:31
	ldr.w	r5, [r10]
	.loc	13 199 62                       @ lvgl/src/lv_themes/lv_theme_material.c:199:62
	lsls	r0, r0, #30
	mov	r0, r4
	itt	pl
	movwpl	r0, #59884
	movtpl	r0, #231
	bl	lv_color_hex
	mov	r2, r0
	.loc	13 199 5                        @ lvgl/src/lv_themes/lv_theme_material.c:199:5
	movs	r1, #0
	mov	r0, r5
	bl	lv_style_set_value_color
	.loc	13 200 65 is_stmt 1             @ lvgl/src/lv_themes/lv_theme_material.c:200:65
	ldr.w	r0, [r11, #36]
	.loc	13 200 34 is_stmt 0             @ lvgl/src/lv_themes/lv_theme_material.c:200:34
	ldr.w	r5, [r10]
	.loc	13 200 65                       @ lvgl/src/lv_themes/lv_theme_material.c:200:65
	lsls	r0, r0, #30
	mov	r0, r4
	itt	pl
	movwpl	r0, #59884
	movtpl	r0, #231
	bl	lv_color_hex
	mov	r1, r0
	.loc	13 200 5                        @ lvgl/src/lv_themes/lv_theme_material.c:200:5
	mov	r0, r5
	bl	lv_style_set_text_sel_color
	.loc	13 201 37 is_stmt 1             @ lvgl/src/lv_themes/lv_theme_material.c:201:37
	ldr.w	r0, [r10]
	.loc	13 201 5 is_stmt 0              @ lvgl/src/lv_themes/lv_theme_material.c:201:5
	ldr.w	r1, [r11, #12]
	bl	lv_style_set_text_sel_bg_color
	.loc	13 202 30 is_stmt 1             @ lvgl/src/lv_themes/lv_theme_material.c:202:30
	ldr.w	r0, [r10]
	.loc	13 202 67 is_stmt 0             @ lvgl/src/lv_themes/lv_theme_material.c:202:67
	ldr.w	r1, [r11, #24]
	.loc	13 202 5                        @ lvgl/src/lv_themes/lv_theme_material.c:202:5
	bl	lv_style_set_value_font
	.loc	13 204 21 is_stmt 1             @ lvgl/src/lv_themes/lv_theme_material.c:204:21
	ldr.w	r0, [r10]
	.loc	13 204 29 is_stmt 0             @ lvgl/src/lv_themes/lv_theme_material.c:204:29
	adds	r0, #4
	.loc	13 204 5                        @ lvgl/src/lv_themes/lv_theme_material.c:204:5
	bl	lv_style_reset
	.loc	13 205 26 is_stmt 1             @ lvgl/src/lv_themes/lv_theme_material.c:205:26
	ldr.w	r0, [r10]
	.loc	13 205 34 is_stmt 0             @ lvgl/src/lv_themes/lv_theme_material.c:205:34
	adds	r5, r0, #4
	.loc	13 205 56                       @ lvgl/src/lv_themes/lv_theme_material.c:205:56
	movs	r0, #0
	bl	lv_disp_get_dpi
	cmp	r0, #30
	blt	.LBB1_2
@ %bb.1:
	movs	r0, #0
	bl	lv_disp_get_dpi
	movs	r1, #80
	add.w	r0, r1, r0, lsl #3
	movw	r1, #26215
	movt	r1, #26214
	smmul	r0, r0, r1
	asrs	r1, r0, #6
	add.w	r0, r1, r0, lsr #31
	b	.LBB1_3
.LBB1_2:
	.loc	13 0 56                         @ lvgl/src/lv_themes/lv_theme_material.c:0:56
	movs	r0, #1
.LBB1_3:
	.loc	13 205 5                        @ lvgl/src/lv_themes/lv_theme_material.c:205:5
	sxth	r1, r0
	movw	r8, #56803
	mov	r0, r5
	movt	r8, #214
	bl	lv_style_set_radius
	.loc	13 206 26 is_stmt 1             @ lvgl/src/lv_themes/lv_theme_material.c:206:26
	ldr.w	r0, [r10]
	.loc	13 206 5 is_stmt 0              @ lvgl/src/lv_themes/lv_theme_material.c:206:5
	movs	r1, #0
	.loc	13 206 34                       @ lvgl/src/lv_themes/lv_theme_material.c:206:34
	adds	r0, #4
	.loc	13 206 5                        @ lvgl/src/lv_themes/lv_theme_material.c:206:5
	movs	r2, #255
	bl	lv_style_set_bg_opa
	.loc	13 207 58 is_stmt 1             @ lvgl/src/lv_themes/lv_theme_material.c:207:58
	ldr.w	r0, [r11, #36]
	.loc	13 207 28 is_stmt 0             @ lvgl/src/lv_themes/lv_theme_material.c:207:28
	ldr.w	r1, [r10]
	.loc	13 207 58                       @ lvgl/src/lv_themes/lv_theme_material.c:207:58
	lsls	r0, r0, #30
	mvn	r0, #-16777216
	.loc	13 207 36                       @ lvgl/src/lv_themes/lv_theme_material.c:207:36
	add.w	r5, r1, #4
	.loc	13 207 58                       @ lvgl/src/lv_themes/lv_theme_material.c:207:58
	itt	pl
	movwpl	r0, #25203
	movtpl	r0, #88
	bl	lv_color_hex
	mov	r2, r0
	.loc	13 207 5                        @ lvgl/src/lv_themes/lv_theme_material.c:207:5
	movs	r1, #0
	mov	r0, r5
	bl	lv_style_set_bg_color
	.loc	13 208 62 is_stmt 1             @ lvgl/src/lv_themes/lv_theme_material.c:208:62
	ldr.w	r0, [r11, #36]
	.loc	13 208 32 is_stmt 0             @ lvgl/src/lv_themes/lv_theme_material.c:208:32
	ldr.w	r1, [r10]
	.loc	13 208 62                       @ lvgl/src/lv_themes/lv_theme_material.c:208:62
	lsls	r0, r0, #30
	mov	r0, r8
	.loc	13 208 40                       @ lvgl/src/lv_themes/lv_theme_material.c:208:40
	add.w	r5, r1, #4
	.loc	13 208 62                       @ lvgl/src/lv_themes/lv_theme_material.c:208:62
	itt	pl
	movwpl	r0, #35479
	movtpl	r0, #128
	bl	lv_color_hex
	mov	r2, r0
	.loc	13 208 5                        @ lvgl/src/lv_themes/lv_theme_material.c:208:5
	movs	r1, #0
	mov	r0, r5
	bl	lv_style_set_border_color
	.loc	13 209 8 is_stmt 1              @ lvgl/src/lv_themes/lv_theme_material.c:209:8
	ldrb.w	r0, [r11, #36]
	lsls	r0, r0, #26
	bmi	.LBB1_5
@ %bb.4:
.Ltmp11:
	.loc	13 209 88 is_stmt 0             @ lvgl/src/lv_themes/lv_theme_material.c:209:88
	ldr.w	r0, [r10]
	.loc	13 209 61                       @ lvgl/src/lv_themes/lv_theme_material.c:209:61
	ldr.w	r2, [r11, #12]
	.loc	13 209 96                       @ lvgl/src/lv_themes/lv_theme_material.c:209:96
	adds	r0, #4
	.loc	13 209 61                       @ lvgl/src/lv_themes/lv_theme_material.c:209:61
	movs	r1, #2
	bl	lv_style_set_border_color
.Ltmp12:
.LBB1_5:
	.loc	13 211 32 is_stmt 1             @ lvgl/src/lv_themes/lv_theme_material.c:211:32
	ldr.w	r0, [r10]
	.loc	13 211 5 is_stmt 0              @ lvgl/src/lv_themes/lv_theme_material.c:211:5
	ldr.w	r2, [r11, #16]
	.loc	13 211 40                       @ lvgl/src/lv_themes/lv_theme_material.c:211:40
	adds	r0, #4
	.loc	13 211 5                        @ lvgl/src/lv_themes/lv_theme_material.c:211:5
	movs	r1, #4
	bl	lv_style_set_border_color
	.loc	13 212 32 is_stmt 1             @ lvgl/src/lv_themes/lv_theme_material.c:212:32
	ldr.w	r0, [r10]
	.loc	13 212 40 is_stmt 0             @ lvgl/src/lv_themes/lv_theme_material.c:212:40
	adds	r5, r0, #4
	.loc	13 212 62                       @ lvgl/src/lv_themes/lv_theme_material.c:212:62
	movs	r0, #0
	bl	lv_disp_get_dpi
	cmp	r0, #120
	blt	.LBB1_7
@ %bb.6:
	movs	r0, #0
	bl	lv_disp_get_dpi
	movs	r1, #80
	add.w	r0, r1, r0, lsl #1
	movw	r1, #26215
	movt	r1, #26214
	smmul	r0, r0, r1
	asrs	r1, r0, #6
	add.w	r0, r1, r0, lsr #31
	b	.LBB1_8
.LBB1_7:
	.loc	13 0 62                         @ lvgl/src/lv_themes/lv_theme_material.c:0:62
	movs	r0, #1
.LBB1_8:
	.loc	13 212 5                        @ lvgl/src/lv_themes/lv_theme_material.c:212:5
	sxth	r2, r0
	movs	r1, #0
	mov	r0, r5
	bl	lv_style_set_border_width
	.loc	13 213 31 is_stmt 1             @ lvgl/src/lv_themes/lv_theme_material.c:213:31
	ldr.w	r0, [r10]
	.loc	13 213 39 is_stmt 0             @ lvgl/src/lv_themes/lv_theme_material.c:213:39
	adds	r0, #4
	.loc	13 213 5                        @ lvgl/src/lv_themes/lv_theme_material.c:213:5
	bl	lv_style_set_border_post
	.loc	13 214 60 is_stmt 1             @ lvgl/src/lv_themes/lv_theme_material.c:214:60
	ldr.w	r0, [r11, #36]
	.loc	13 214 30 is_stmt 0             @ lvgl/src/lv_themes/lv_theme_material.c:214:30
	ldr.w	r1, [r10]
	.loc	13 214 60                       @ lvgl/src/lv_themes/lv_theme_material.c:214:60
	lsls	r0, r0, #30
	mov	r0, r4
	.loc	13 214 38                       @ lvgl/src/lv_themes/lv_theme_material.c:214:38
	add.w	r5, r1, #4
	.loc	13 214 60                       @ lvgl/src/lv_themes/lv_theme_material.c:214:60
	it	pl
	mvnpl	r0, #-16777216
	bl	lv_color_hex
	mov	r2, r0
	.loc	13 214 5                        @ lvgl/src/lv_themes/lv_theme_material.c:214:5
	movs	r1, #0
	mov	r0, r5
	bl	lv_style_set_text_color
	.loc	13 215 30 is_stmt 1             @ lvgl/src/lv_themes/lv_theme_material.c:215:30
	ldr.w	r0, [r10]
	.loc	13 215 66 is_stmt 0             @ lvgl/src/lv_themes/lv_theme_material.c:215:66
	ldr.w	r1, [r11, #24]
	.loc	13 215 38                       @ lvgl/src/lv_themes/lv_theme_material.c:215:38
	adds	r0, #4
	.loc	13 215 5                        @ lvgl/src/lv_themes/lv_theme_material.c:215:5
	bl	lv_style_set_value_font
	.loc	13 216 61 is_stmt 1             @ lvgl/src/lv_themes/lv_theme_material.c:216:61
	ldr.w	r0, [r11, #36]
	.loc	13 216 31 is_stmt 0             @ lvgl/src/lv_themes/lv_theme_material.c:216:31
	ldr.w	r1, [r10]
	.loc	13 216 61                       @ lvgl/src/lv_themes/lv_theme_material.c:216:61
	lsls	r0, r0, #30
	mov	r0, r4
	.loc	13 216 39                       @ lvgl/src/lv_themes/lv_theme_material.c:216:39
	add.w	r5, r1, #4
	.loc	13 216 61                       @ lvgl/src/lv_themes/lv_theme_material.c:216:61
	it	pl
	mvnpl	r0, #-16777216
	bl	lv_color_hex
	mov	r2, r0
	.loc	13 216 5                        @ lvgl/src/lv_themes/lv_theme_material.c:216:5
	movs	r1, #0
	mov	r0, r5
	bl	lv_style_set_value_color
	.loc	13 217 63 is_stmt 1             @ lvgl/src/lv_themes/lv_theme_material.c:217:63
	ldr.w	r0, [r11, #36]
	.loc	13 217 33 is_stmt 0             @ lvgl/src/lv_themes/lv_theme_material.c:217:33
	ldr.w	r1, [r10]
	.loc	13 217 63                       @ lvgl/src/lv_themes/lv_theme_material.c:217:63
	lsls	r0, r0, #30
	mov	r0, r4
	.loc	13 217 41                       @ lvgl/src/lv_themes/lv_theme_material.c:217:41
	add.w	r5, r1, #4
	.loc	13 217 63                       @ lvgl/src/lv_themes/lv_theme_material.c:217:63
	it	pl
	mvnpl	r0, #-16777216
	bl	lv_color_hex
	mov	r2, r0
	.loc	13 217 5                        @ lvgl/src/lv_themes/lv_theme_material.c:217:5
	movs	r1, #0
	mov	r0, r5
	bl	lv_style_set_image_recolor
	.loc	13 218 60 is_stmt 1             @ lvgl/src/lv_themes/lv_theme_material.c:218:60
	ldr.w	r0, [r11, #36]
	.loc	13 218 30 is_stmt 0             @ lvgl/src/lv_themes/lv_theme_material.c:218:30
	ldr.w	r1, [r10]
	.loc	13 218 60                       @ lvgl/src/lv_themes/lv_theme_material.c:218:60
	lsls	r0, r0, #30
	mov	r0, r4
	.loc	13 218 38                       @ lvgl/src/lv_themes/lv_theme_material.c:218:38
	add.w	r5, r1, #4
	.loc	13 218 60                       @ lvgl/src/lv_themes/lv_theme_material.c:218:60
	it	pl
	mvnpl	r0, #-16777216
	bl	lv_color_hex
	mov	r1, r0
	.loc	13 218 5                        @ lvgl/src/lv_themes/lv_theme_material.c:218:5
	mov	r0, r5
	bl	lv_style_set_line_color
	.loc	13 219 30 is_stmt 1             @ lvgl/src/lv_themes/lv_theme_material.c:219:30
	ldr.w	r0, [r10]
	.loc	13 219 5 is_stmt 0              @ lvgl/src/lv_themes/lv_theme_material.c:219:5
	movs	r1, #1
	.loc	13 219 38                       @ lvgl/src/lv_themes/lv_theme_material.c:219:38
	adds	r0, #4
	.loc	13 219 5                        @ lvgl/src/lv_themes/lv_theme_material.c:219:5
	bl	lv_style_set_line_width
	.loc	13 220 28 is_stmt 1             @ lvgl/src/lv_themes/lv_theme_material.c:220:28
	ldr.w	r0, [r10]
	.loc	13 220 36 is_stmt 0             @ lvgl/src/lv_themes/lv_theme_material.c:220:36
	adds	r6, r0, #4
	.loc	13 220 58                       @ lvgl/src/lv_themes/lv_theme_material.c:220:58
	movs	r0, #0
	bl	lv_disp_get_size_category
	mov	r5, r0
	movs	r0, #0
	bl	lv_disp_get_dpi
	rsb	r0, r0, r0, lsl #4
	cmp	r5, #1
	bhi	.LBB1_11
@ %bb.9:
	cmp	r0, #240
	blt	.LBB1_14
@ %bb.10:
	movs	r0, #0
	bl	lv_disp_get_dpi
	rsb	r0, r0, r0, lsl #4
	adds	r0, #80
	b	.LBB1_13
.LBB1_11:
	lsls	r0, r0, #1
	cmp	r0, #240
	blt	.LBB1_14
@ %bb.12:
	movs	r0, #0
	bl	lv_disp_get_dpi
	rsb	r0, r0, r0, lsl #4
	movs	r1, #80
	add.w	r0, r1, r0, lsl #1
.LBB1_13:
	.loc	13 0 58                         @ lvgl/src/lv_themes/lv_theme_material.c:0:58
	movw	r1, #26215
	movt	r1, #26214
	.loc	13 220 58                       @ lvgl/src/lv_themes/lv_theme_material.c:220:58
	smmul	r0, r0, r1
	asrs	r1, r0, #6
	add.w	r5, r1, r0, lsr #31
	b	.LBB1_15
.LBB1_14:
	.loc	13 0 58                         @ lvgl/src/lv_themes/lv_theme_material.c:0:58
	movs	r5, #1
.LBB1_15:
	.loc	13 220 68                       @ lvgl/src/lv_themes/lv_theme_material.c:220:68
	movs	r0, #0
	bl	lv_disp_get_dpi
	cmp	r0, #120
	blt	.LBB1_17
@ %bb.16:
	movs	r0, #0
	bl	lv_disp_get_dpi
	movs	r1, #80
	add.w	r0, r1, r0, lsl #1
	movw	r1, #26215
	movt	r1, #26214
	smmul	r0, r0, r1
	asrs	r1, r0, #6
	add.w	r0, r1, r0, lsr #31
	b	.LBB1_18
.LBB1_17:
	.loc	13 0 68                         @ lvgl/src/lv_themes/lv_theme_material.c:0:68
	movs	r0, #1
.LBB1_18:
	.loc	13 220 66                       @ lvgl/src/lv_themes/lv_theme_material.c:220:66
	add	r0, r5
	.loc	13 220 5                        @ lvgl/src/lv_themes/lv_theme_material.c:220:5
	sxth	r1, r0
	mov	r0, r6
	bl	lv_style_set_pad_left
	.loc	13 221 29 is_stmt 1             @ lvgl/src/lv_themes/lv_theme_material.c:221:29
	ldr.w	r0, [r10]
	.loc	13 221 37 is_stmt 0             @ lvgl/src/lv_themes/lv_theme_material.c:221:37
	adds	r6, r0, #4
	.loc	13 221 59                       @ lvgl/src/lv_themes/lv_theme_material.c:221:59
	movs	r0, #0
	bl	lv_disp_get_size_category
	mov	r5, r0
	movs	r0, #0
	bl	lv_disp_get_dpi
	rsb	r0, r0, r0, lsl #4
	cmp	r5, #1
	bhi	.LBB1_21
@ %bb.19:
	cmp	r0, #240
	blt	.LBB1_24
@ %bb.20:
	movs	r0, #0
	bl	lv_disp_get_dpi
	rsb	r0, r0, r0, lsl #4
	adds	r0, #80
	b	.LBB1_23
.LBB1_21:
	lsls	r0, r0, #1
	cmp	r0, #240
	blt	.LBB1_24
@ %bb.22:
	movs	r0, #0
	bl	lv_disp_get_dpi
	rsb	r0, r0, r0, lsl #4
	movs	r1, #80
	add.w	r0, r1, r0, lsl #1
.LBB1_23:
	.loc	13 0 59                         @ lvgl/src/lv_themes/lv_theme_material.c:0:59
	movw	r1, #26215
	movt	r1, #26214
	.loc	13 221 59                       @ lvgl/src/lv_themes/lv_theme_material.c:221:59
	smmul	r0, r0, r1
	asrs	r1, r0, #6
	add.w	r5, r1, r0, lsr #31
	b	.LBB1_25
.LBB1_24:
	.loc	13 0 59                         @ lvgl/src/lv_themes/lv_theme_material.c:0:59
	movs	r5, #1
.LBB1_25:
	.loc	13 221 69                       @ lvgl/src/lv_themes/lv_theme_material.c:221:69
	movs	r0, #0
	bl	lv_disp_get_dpi
	cmp	r0, #120
	blt	.LBB1_27
@ %bb.26:
	movs	r0, #0
	bl	lv_disp_get_dpi
	movs	r1, #80
	add.w	r0, r1, r0, lsl #1
	movw	r1, #26215
	movt	r1, #26214
	smmul	r0, r0, r1
	asrs	r1, r0, #6
	add.w	r0, r1, r0, lsr #31
	b	.LBB1_28
.LBB1_27:
	.loc	13 0 69                         @ lvgl/src/lv_themes/lv_theme_material.c:0:69
	movs	r0, #1
.LBB1_28:
	.loc	13 221 67                       @ lvgl/src/lv_themes/lv_theme_material.c:221:67
	add	r0, r5
	.loc	13 221 5                        @ lvgl/src/lv_themes/lv_theme_material.c:221:5
	sxth	r1, r0
	mov	r0, r6
	bl	lv_style_set_pad_right
	.loc	13 222 27 is_stmt 1             @ lvgl/src/lv_themes/lv_theme_material.c:222:27
	ldr.w	r0, [r10]
	.loc	13 222 35 is_stmt 0             @ lvgl/src/lv_themes/lv_theme_material.c:222:35
	adds	r6, r0, #4
	.loc	13 222 57                       @ lvgl/src/lv_themes/lv_theme_material.c:222:57
	movs	r0, #0
	bl	lv_disp_get_size_category
	mov	r5, r0
	movs	r0, #0
	bl	lv_disp_get_dpi
	rsb	r0, r0, r0, lsl #4
	cmp	r5, #1
	bhi	.LBB1_31
@ %bb.29:
	cmp	r0, #240
	blt	.LBB1_34
@ %bb.30:
	movs	r0, #0
	bl	lv_disp_get_dpi
	rsb	r0, r0, r0, lsl #4
	adds	r0, #80
	b	.LBB1_33
.LBB1_31:
	lsls	r0, r0, #1
	cmp	r0, #240
	blt	.LBB1_34
@ %bb.32:
	movs	r0, #0
	bl	lv_disp_get_dpi
	rsb	r0, r0, r0, lsl #4
	movs	r1, #80
	add.w	r0, r1, r0, lsl #1
.LBB1_33:
	.loc	13 0 57                         @ lvgl/src/lv_themes/lv_theme_material.c:0:57
	movw	r1, #26215
	movt	r1, #26214
	.loc	13 222 57                       @ lvgl/src/lv_themes/lv_theme_material.c:222:57
	smmul	r0, r0, r1
	asrs	r1, r0, #6
	add.w	r5, r1, r0, lsr #31
	b	.LBB1_35
.LBB1_34:
	.loc	13 0 57                         @ lvgl/src/lv_themes/lv_theme_material.c:0:57
	movs	r5, #1
.LBB1_35:
	.loc	13 222 67                       @ lvgl/src/lv_themes/lv_theme_material.c:222:67
	movs	r0, #0
	bl	lv_disp_get_dpi
	cmp	r0, #120
	blt	.LBB1_37
@ %bb.36:
	movs	r0, #0
	bl	lv_disp_get_dpi
	movs	r1, #80
	add.w	r0, r1, r0, lsl #1
	movw	r1, #26215
	movt	r1, #26214
	smmul	r0, r0, r1
	asrs	r1, r0, #6
	add.w	r0, r1, r0, lsr #31
	b	.LBB1_38
.LBB1_37:
	.loc	13 0 67                         @ lvgl/src/lv_themes/lv_theme_material.c:0:67
	movs	r0, #1
.LBB1_38:
	.loc	13 222 65                       @ lvgl/src/lv_themes/lv_theme_material.c:222:65
	add	r0, r5
	.loc	13 222 5                        @ lvgl/src/lv_themes/lv_theme_material.c:222:5
	sxth	r1, r0
	mov	r0, r6
	bl	lv_style_set_pad_top
	.loc	13 223 30 is_stmt 1             @ lvgl/src/lv_themes/lv_theme_material.c:223:30
	ldr.w	r0, [r10]
	.loc	13 223 38 is_stmt 0             @ lvgl/src/lv_themes/lv_theme_material.c:223:38
	adds	r6, r0, #4
	.loc	13 223 60                       @ lvgl/src/lv_themes/lv_theme_material.c:223:60
	movs	r0, #0
	bl	lv_disp_get_size_category
	mov	r5, r0
	movs	r0, #0
	bl	lv_disp_get_dpi
	rsb	r0, r0, r0, lsl #4
	cmp	r5, #1
	bhi	.LBB1_41
@ %bb.39:
	cmp	r0, #240
	blt	.LBB1_44
@ %bb.40:
	movs	r0, #0
	bl	lv_disp_get_dpi
	rsb	r0, r0, r0, lsl #4
	adds	r0, #80
	b	.LBB1_43
.LBB1_41:
	lsls	r0, r0, #1
	cmp	r0, #240
	blt	.LBB1_44
@ %bb.42:
	movs	r0, #0
	bl	lv_disp_get_dpi
	rsb	r0, r0, r0, lsl #4
	movs	r1, #80
	add.w	r0, r1, r0, lsl #1
.LBB1_43:
	.loc	13 0 60                         @ lvgl/src/lv_themes/lv_theme_material.c:0:60
	movw	r1, #26215
	movt	r1, #26214
	.loc	13 223 60                       @ lvgl/src/lv_themes/lv_theme_material.c:223:60
	smmul	r0, r0, r1
	asrs	r1, r0, #6
	add.w	r5, r1, r0, lsr #31
	b	.LBB1_45
.LBB1_44:
	.loc	13 0 60                         @ lvgl/src/lv_themes/lv_theme_material.c:0:60
	movs	r5, #1
.LBB1_45:
	.loc	13 223 70                       @ lvgl/src/lv_themes/lv_theme_material.c:223:70
	movs	r0, #0
	bl	lv_disp_get_dpi
	cmp	r0, #120
	blt	.LBB1_47
@ %bb.46:
	movs	r0, #0
	bl	lv_disp_get_dpi
	movs	r1, #80
	add.w	r0, r1, r0, lsl #1
	movw	r1, #26215
	movt	r1, #26214
	smmul	r0, r0, r1
	asrs	r1, r0, #6
	add.w	r0, r1, r0, lsr #31
	b	.LBB1_48
.LBB1_47:
	.loc	13 0 70                         @ lvgl/src/lv_themes/lv_theme_material.c:0:70
	movs	r0, #1
.LBB1_48:
	.loc	13 223 68                       @ lvgl/src/lv_themes/lv_theme_material.c:223:68
	add	r0, r5
	.loc	13 223 5                        @ lvgl/src/lv_themes/lv_theme_material.c:223:5
	sxth	r1, r0
	mov	r0, r6
	bl	lv_style_set_pad_bottom
	.loc	13 224 29 is_stmt 1             @ lvgl/src/lv_themes/lv_theme_material.c:224:29
	ldr.w	r0, [r10]
	.loc	13 224 37 is_stmt 0             @ lvgl/src/lv_themes/lv_theme_material.c:224:37
	adds	r5, r0, #4
	.loc	13 224 59                       @ lvgl/src/lv_themes/lv_theme_material.c:224:59
	movs	r0, #0
	bl	lv_disp_get_size_category
	mov	r6, r0
	movs	r0, #0
	bl	lv_disp_get_dpi
	rsb	r0, r0, r0, lsl #4
	cmp	r6, #1
	bhi	.LBB1_51
@ %bb.49:
	cmp	r0, #240
	blt	.LBB1_54
@ %bb.50:
	movs	r0, #0
	bl	lv_disp_get_dpi
	rsb	r0, r0, r0, lsl #4
	adds	r0, #80
	b	.LBB1_53
.LBB1_51:
	lsls	r0, r0, #1
	cmp	r0, #240
	blt	.LBB1_54
@ %bb.52:
	movs	r0, #0
	bl	lv_disp_get_dpi
	rsb	r0, r0, r0, lsl #4
	movs	r1, #80
	add.w	r0, r1, r0, lsl #1
.LBB1_53:
	.loc	13 0 59                         @ lvgl/src/lv_themes/lv_theme_material.c:0:59
	movw	r1, #26215
	movt	r1, #26214
	.loc	13 224 59                       @ lvgl/src/lv_themes/lv_theme_material.c:224:59
	smmul	r0, r0, r1
	asrs	r1, r0, #6
	add.w	r0, r1, r0, lsr #31
	b	.LBB1_55
.LBB1_54:
	.loc	13 0 59                         @ lvgl/src/lv_themes/lv_theme_material.c:0:59
	movs	r0, #1
.LBB1_55:
	movw	r7, #25966
	movw	r9, #16463
	.loc	13 224 5                        @ lvgl/src/lv_themes/lv_theme_material.c:224:5
	sxth	r1, r0
	mov	r0, r5
	movt	r7, #95
	movt	r9, #49
	bl	lv_style_set_pad_inner
	.loc	13 225 35 is_stmt 1             @ lvgl/src/lv_themes/lv_theme_material.c:225:35
	ldr.w	r0, [r10]
	.loc	13 225 43 is_stmt 0             @ lvgl/src/lv_themes/lv_theme_material.c:225:43
	adds	r0, #4
	.loc	13 225 5                        @ lvgl/src/lv_themes/lv_theme_material.c:225:5
	bl	lv_style_set_transition_time
	.loc	13 226 37 is_stmt 1             @ lvgl/src/lv_themes/lv_theme_material.c:226:37
	ldr.w	r0, [r10]
	.loc	13 226 5 is_stmt 0              @ lvgl/src/lv_themes/lv_theme_material.c:226:5
	movs	r1, #57
	.loc	13 226 45                       @ lvgl/src/lv_themes/lv_theme_material.c:226:45
	adds	r0, #4
	.loc	13 226 5                        @ lvgl/src/lv_themes/lv_theme_material.c:226:5
	bl	lv_style_set_transition_prop_6
	.loc	13 228 21 is_stmt 1             @ lvgl/src/lv_themes/lv_theme_material.c:228:21
	ldr.w	r0, [r10]
	.loc	13 228 29 is_stmt 0             @ lvgl/src/lv_themes/lv_theme_material.c:228:29
	adds	r0, #12
	.loc	13 228 5                        @ lvgl/src/lv_themes/lv_theme_material.c:228:5
	bl	lv_style_reset
	.loc	13 229 20 is_stmt 1             @ lvgl/src/lv_themes/lv_theme_material.c:229:20
	ldr.w	r1, [r10]
	.loc	13 229 28 is_stmt 0             @ lvgl/src/lv_themes/lv_theme_material.c:229:28
	add.w	r0, r1, #12
	.loc	13 229 45                       @ lvgl/src/lv_themes/lv_theme_material.c:229:45
	adds	r1, #4
	.loc	13 229 5                        @ lvgl/src/lv_themes/lv_theme_material.c:229:5
	bl	lv_style_copy
	.loc	13 230 62 is_stmt 1             @ lvgl/src/lv_themes/lv_theme_material.c:230:62
	ldr.w	r0, [r11, #36]
	.loc	13 230 28 is_stmt 0             @ lvgl/src/lv_themes/lv_theme_material.c:230:28
	ldr.w	r1, [r10]
	.loc	13 230 62                       @ lvgl/src/lv_themes/lv_theme_material.c:230:62
	lsls	r0, r0, #30
	movw	r0, #55257
	movt	r0, #212
	.loc	13 230 36                       @ lvgl/src/lv_themes/lv_theme_material.c:230:36
	add.w	r5, r1, #12
	.loc	13 230 62                       @ lvgl/src/lv_themes/lv_theme_material.c:230:62
	itt	pl
	movwpl	r0, #18765
	movtpl	r0, #69
	bl	lv_color_hex
	mov	r2, r0
	.loc	13 230 5                        @ lvgl/src/lv_themes/lv_theme_material.c:230:5
	movs	r1, #0
	mov	r0, r5
	bl	lv_style_set_bg_color
	.loc	13 231 66 is_stmt 1             @ lvgl/src/lv_themes/lv_theme_material.c:231:66
	ldr.w	r0, [r11, #36]
	.loc	13 231 32 is_stmt 0             @ lvgl/src/lv_themes/lv_theme_material.c:231:32
	ldr.w	r1, [r10]
	.loc	13 231 66                       @ lvgl/src/lv_themes/lv_theme_material.c:231:66
	lsls	r0, r0, #30
	movw	r0, #59373
	movt	r0, #223
	.loc	13 231 40                       @ lvgl/src/lv_themes/lv_theme_material.c:231:40
	add.w	r5, r1, #12
	.loc	13 231 66                       @ lvgl/src/lv_themes/lv_theme_material.c:231:66
	itt	pl
	movwpl	r0, #16448
	movtpl	r0, #64
	bl	lv_color_hex
	mov	r2, r0
	.loc	13 231 5                        @ lvgl/src/lv_themes/lv_theme_material.c:231:5
	movs	r1, #0
	mov	r0, r5
	bl	lv_style_set_border_color
	.loc	13 232 64 is_stmt 1             @ lvgl/src/lv_themes/lv_theme_material.c:232:64
	ldr.w	r0, [r11, #36]
	.loc	13 232 30 is_stmt 0             @ lvgl/src/lv_themes/lv_theme_material.c:232:30
	ldr.w	r1, [r10]
	.loc	13 232 64                       @ lvgl/src/lv_themes/lv_theme_material.c:232:64
	lsls	r0, r0, #30
	mov	r0, r9
	.loc	13 232 38                       @ lvgl/src/lv_themes/lv_theme_material.c:232:38
	add.w	r5, r1, #12
	.loc	13 232 64                       @ lvgl/src/lv_themes/lv_theme_material.c:232:64
	itt	pl
	movwpl	r0, #43181
	movtpl	r0, #165
	bl	lv_color_hex
	mov	r2, r0
	.loc	13 232 5                        @ lvgl/src/lv_themes/lv_theme_material.c:232:5
	movs	r1, #0
	mov	r0, r5
	bl	lv_style_set_text_color
	.loc	13 233 65 is_stmt 1             @ lvgl/src/lv_themes/lv_theme_material.c:233:65
	ldr.w	r0, [r11, #36]
	.loc	13 233 31 is_stmt 0             @ lvgl/src/lv_themes/lv_theme_material.c:233:31
	ldr.w	r1, [r10]
	.loc	13 233 65                       @ lvgl/src/lv_themes/lv_theme_material.c:233:65
	lsls	r0, r0, #30
	mov	r0, r9
	.loc	13 233 39                       @ lvgl/src/lv_themes/lv_theme_material.c:233:39
	add.w	r5, r1, #12
	.loc	13 233 65                       @ lvgl/src/lv_themes/lv_theme_material.c:233:65
	itt	pl
	movwpl	r0, #43181
	movtpl	r0, #165
	bl	lv_color_hex
	mov	r2, r0
	.loc	13 233 5                        @ lvgl/src/lv_themes/lv_theme_material.c:233:5
	movs	r1, #0
	mov	r0, r5
	bl	lv_style_set_value_color
	.loc	13 234 67 is_stmt 1             @ lvgl/src/lv_themes/lv_theme_material.c:234:67
	ldr.w	r0, [r11, #36]
	.loc	13 234 33 is_stmt 0             @ lvgl/src/lv_themes/lv_theme_material.c:234:33
	ldr.w	r1, [r10]
	.loc	13 234 67                       @ lvgl/src/lv_themes/lv_theme_material.c:234:67
	lsls	r0, r0, #30
	mov	r0, r9
	.loc	13 234 41                       @ lvgl/src/lv_themes/lv_theme_material.c:234:41
	add.w	r5, r1, #12
	.loc	13 234 67                       @ lvgl/src/lv_themes/lv_theme_material.c:234:67
	itt	pl
	movwpl	r0, #43181
	movtpl	r0, #165
	bl	lv_color_hex
	mov	r2, r0
	.loc	13 234 5                        @ lvgl/src/lv_themes/lv_theme_material.c:234:5
	movs	r1, #0
	mov	r0, r5
	bl	lv_style_set_image_recolor
	.loc	13 235 64 is_stmt 1             @ lvgl/src/lv_themes/lv_theme_material.c:235:64
	ldr.w	r0, [r11, #36]
	.loc	13 235 30 is_stmt 0             @ lvgl/src/lv_themes/lv_theme_material.c:235:30
	ldr.w	r1, [r10]
	.loc	13 235 64                       @ lvgl/src/lv_themes/lv_theme_material.c:235:64
	lsls	r0, r0, #30
	mov	r0, r9
	.loc	13 235 38                       @ lvgl/src/lv_themes/lv_theme_material.c:235:38
	add.w	r5, r1, #12
	.loc	13 235 64                       @ lvgl/src/lv_themes/lv_theme_material.c:235:64
	itt	pl
	movwpl	r0, #43181
	movtpl	r0, #165
	bl	lv_color_hex
	mov	r1, r0
	.loc	13 235 5                        @ lvgl/src/lv_themes/lv_theme_material.c:235:5
	mov	r0, r5
	bl	lv_style_set_line_color
	.loc	13 237 21 is_stmt 1             @ lvgl/src/lv_themes/lv_theme_material.c:237:21
	ldr.w	r0, [r10]
	.loc	13 237 29 is_stmt 0             @ lvgl/src/lv_themes/lv_theme_material.c:237:29
	adds	r0, #8
	.loc	13 237 5                        @ lvgl/src/lv_themes/lv_theme_material.c:237:5
	bl	lv_style_reset
	.loc	13 238 64 is_stmt 1             @ lvgl/src/lv_themes/lv_theme_material.c:238:64
	ldr.w	r0, [r11, #36]
	.loc	13 238 28 is_stmt 0             @ lvgl/src/lv_themes/lv_theme_material.c:238:28
	ldr.w	r1, [r10]
	.loc	13 238 64                       @ lvgl/src/lv_themes/lv_theme_material.c:238:64
	lsls	r0, r0, #30
	movw	r0, #61166
	movt	r0, #238
	.loc	13 238 36                       @ lvgl/src/lv_themes/lv_theme_material.c:238:36
	add.w	r5, r1, #8
	.loc	13 238 64                       @ lvgl/src/lv_themes/lv_theme_material.c:238:64
	itt	pl
	movwpl	r0, #20311
	movtpl	r0, #73
	bl	lv_color_hex
	mov	r2, r0
	.loc	13 238 5                        @ lvgl/src/lv_themes/lv_theme_material.c:238:5
	movs	r1, #16
	mov	r0, r5
	bl	lv_style_set_bg_color
	.loc	13 239 28 is_stmt 1             @ lvgl/src/lv_themes/lv_theme_material.c:239:28
	ldr.w	r0, [r10]
	.loc	13 239 5 is_stmt 0              @ lvgl/src/lv_themes/lv_theme_material.c:239:5
	ldr.w	r2, [r11, #12]
	.loc	13 239 36                       @ lvgl/src/lv_themes/lv_theme_material.c:239:36
	adds	r0, #8
	.loc	13 239 5                        @ lvgl/src/lv_themes/lv_theme_material.c:239:5
	movs	r1, #1
	bl	lv_style_set_bg_color
	.loc	13 240 28 is_stmt 1             @ lvgl/src/lv_themes/lv_theme_material.c:240:28
	ldr.w	r0, [r10]
	.loc	13 240 83 is_stmt 0             @ lvgl/src/lv_themes/lv_theme_material.c:240:83
	movs	r1, #51
	.loc	13 240 36                       @ lvgl/src/lv_themes/lv_theme_material.c:240:36
	add.w	r5, r0, #8
	.loc	13 240 83                       @ lvgl/src/lv_themes/lv_theme_material.c:240:83
	ldr.w	r0, [r11, #12]
	bl	lv_color_darken
	mov	r2, r0
	.loc	13 240 5                        @ lvgl/src/lv_themes/lv_theme_material.c:240:5
	movs	r1, #17
	mov	r0, r5
	bl	lv_style_set_bg_color
	.loc	13 241 65 is_stmt 1             @ lvgl/src/lv_themes/lv_theme_material.c:241:65
	ldr.w	r0, [r11, #36]
	.loc	13 241 28 is_stmt 0             @ lvgl/src/lv_themes/lv_theme_material.c:241:28
	ldr.w	r1, [r10]
	.loc	13 241 65                       @ lvgl/src/lv_themes/lv_theme_material.c:241:65
	lsls	r0, r0, #30
	movw	r0, #25203
	movt	r0, #88
	.loc	13 241 36                       @ lvgl/src/lv_themes/lv_theme_material.c:241:36
	add.w	r5, r1, #8
	.loc	13 241 65                       @ lvgl/src/lv_themes/lv_theme_material.c:241:65
	it	mi
	mvnmi	r0, #-16777216
	bl	lv_color_hex
	mov	r2, r0
	.loc	13 241 5                        @ lvgl/src/lv_themes/lv_theme_material.c:241:5
	movs	r1, #32
	mov	r0, r5
	bl	lv_style_set_bg_color
	.loc	13 242 32 is_stmt 1             @ lvgl/src/lv_themes/lv_theme_material.c:242:32
	ldr.w	r0, [r10]
	.loc	13 242 5 is_stmt 0              @ lvgl/src/lv_themes/lv_theme_material.c:242:5
	movs	r1, #1
	.loc	13 242 40                       @ lvgl/src/lv_themes/lv_theme_material.c:242:40
	adds	r0, #8
	.loc	13 242 5                        @ lvgl/src/lv_themes/lv_theme_material.c:242:5
	movs	r2, #0
	bl	lv_style_set_border_width
	.loc	13 243 32 is_stmt 1             @ lvgl/src/lv_themes/lv_theme_material.c:243:32
	ldr.w	r0, [r10]
	.loc	13 243 87 is_stmt 0             @ lvgl/src/lv_themes/lv_theme_material.c:243:87
	movs	r1, #51
	.loc	13 243 40                       @ lvgl/src/lv_themes/lv_theme_material.c:243:40
	add.w	r5, r0, #8
	.loc	13 243 87                       @ lvgl/src/lv_themes/lv_theme_material.c:243:87
	ldr.w	r0, [r11, #12]
	bl	lv_color_darken
	mov	r2, r0
	.loc	13 243 5                        @ lvgl/src/lv_themes/lv_theme_material.c:243:5
	movs	r1, #18
	mov	r0, r5
	bl	lv_style_set_border_color
	.loc	13 245 68 is_stmt 1             @ lvgl/src/lv_themes/lv_theme_material.c:245:68
	ldrb.w	r0, [r11, #36]
	.loc	13 245 32 is_stmt 0             @ lvgl/src/lv_themes/lv_theme_material.c:245:32
	ldr.w	r1, [r10]
	.loc	13 245 40                       @ lvgl/src/lv_themes/lv_theme_material.c:245:40
	add.w	r5, r1, #8
	.loc	13 245 68                       @ lvgl/src/lv_themes/lv_theme_material.c:245:68
	lsls	r0, r0, #30
	bmi	.LBB1_57
@ %bb.56:
	mov	r0, r7
	bl	lv_color_hex
	b	.LBB1_58
.LBB1_57:
	movw	r0, #3276
	bl	lv_color_hex3
.LBB1_58:
	mov	r2, r0
	.loc	13 245 5                        @ lvgl/src/lv_themes/lv_theme_material.c:245:5
	movs	r1, #16
	mov	r0, r5
	bl	lv_style_set_border_color
	.loc	13 246 68 is_stmt 1             @ lvgl/src/lv_themes/lv_theme_material.c:246:68
	ldr.w	r0, [r11, #36]
	.loc	13 246 32 is_stmt 0             @ lvgl/src/lv_themes/lv_theme_material.c:246:32
	ldr.w	r1, [r10]
	.loc	13 246 68                       @ lvgl/src/lv_themes/lv_theme_material.c:246:68
	lsls	r0, r0, #30
	mov	r0, r4
	.loc	13 246 40                       @ lvgl/src/lv_themes/lv_theme_material.c:246:40
	add.w	r5, r1, #8
	.loc	13 246 68                       @ lvgl/src/lv_themes/lv_theme_material.c:246:68
	it	pl
	movpl	r0, r7
	bl	lv_color_hex
	mov	r2, r0
	.loc	13 246 5                        @ lvgl/src/lv_themes/lv_theme_material.c:246:5
	movs	r1, #1
	mov	r0, r5
	bl	lv_style_set_border_color
	.loc	13 247 87 is_stmt 1             @ lvgl/src/lv_themes/lv_theme_material.c:247:87
	ldr.w	r0, [r11, #36]
	.loc	13 247 32 is_stmt 0             @ lvgl/src/lv_themes/lv_theme_material.c:247:32
	ldr.w	r1, [r10]
	.loc	13 247 87                       @ lvgl/src/lv_themes/lv_theme_material.c:247:87
	lsls	r0, r0, #30
	mov	r0, r4
	.loc	13 247 40                       @ lvgl/src/lv_themes/lv_theme_material.c:247:40
	add.w	r5, r1, #8
	.loc	13 247 87                       @ lvgl/src/lv_themes/lv_theme_material.c:247:87
	it	pl
	movpl	r0, r7
	bl	lv_color_hex
	mov	r2, r0
	.loc	13 247 5                        @ lvgl/src/lv_themes/lv_theme_material.c:247:5
	movs	r1, #17
	mov	r0, r5
	bl	lv_style_set_border_color
	.loc	13 248 69 is_stmt 1             @ lvgl/src/lv_themes/lv_theme_material.c:248:69
	ldr.w	r0, [r11, #36]
	.loc	13 248 32 is_stmt 0             @ lvgl/src/lv_themes/lv_theme_material.c:248:32
	ldr.w	r1, [r10]
	.loc	13 248 69                       @ lvgl/src/lv_themes/lv_theme_material.c:248:69
	lsls	r0, r0, #30
	.loc	13 248 40                       @ lvgl/src/lv_themes/lv_theme_material.c:248:40
	add.w	r5, r1, #8
	.loc	13 248 69                       @ lvgl/src/lv_themes/lv_theme_material.c:248:69
	it	pl
	movpl	r8, r7
	mov	r0, r8
	bl	lv_color_hex
	mov	r2, r0
	.loc	13 248 5                        @ lvgl/src/lv_themes/lv_theme_material.c:248:5
	movs	r1, #32
	mov	r0, r5
	bl	lv_style_set_border_color
	.loc	13 249 66 is_stmt 1             @ lvgl/src/lv_themes/lv_theme_material.c:249:66
	ldr.w	r0, [r11, #36]
	.loc	13 249 30 is_stmt 0             @ lvgl/src/lv_themes/lv_theme_material.c:249:30
	ldr.w	r1, [r10]
	.loc	13 249 66                       @ lvgl/src/lv_themes/lv_theme_material.c:249:66
	lsls	r0, r0, #30
	mov	r0, r4
	.loc	13 249 38                       @ lvgl/src/lv_themes/lv_theme_material.c:249:38
	add.w	r5, r1, #8
	.loc	13 249 66                       @ lvgl/src/lv_themes/lv_theme_material.c:249:66
	it	pl
	mvnpl	r0, #-16777216
	bl	lv_color_hex
	mov	r2, r0
	.loc	13 249 5                        @ lvgl/src/lv_themes/lv_theme_material.c:249:5
	movs	r1, #16
	mov	r0, r5
	bl	lv_style_set_text_color
	.loc	13 250 30 is_stmt 1             @ lvgl/src/lv_themes/lv_theme_material.c:250:30
	ldr.w	r0, [r10]
	mvn	r5, #-16777216
	.loc	13 250 38 is_stmt 0             @ lvgl/src/lv_themes/lv_theme_material.c:250:38
	add.w	r7, r0, #8
	.loc	13 250 66                       @ lvgl/src/lv_themes/lv_theme_material.c:250:66
	mvn	r0, #-16777216
	bl	lv_color_hex
	mov	r2, r0
	.loc	13 250 5                        @ lvgl/src/lv_themes/lv_theme_material.c:250:5
	movs	r1, #1
	mov	r0, r7
	bl	lv_style_set_text_color
	.loc	13 251 30 is_stmt 1             @ lvgl/src/lv_themes/lv_theme_material.c:251:30
	ldr.w	r0, [r10]
	.loc	13 251 38 is_stmt 0             @ lvgl/src/lv_themes/lv_theme_material.c:251:38
	add.w	r7, r0, #8
	.loc	13 251 85                       @ lvgl/src/lv_themes/lv_theme_material.c:251:85
	mvn	r0, #-16777216
	bl	lv_color_hex
	mov	r2, r0
	.loc	13 251 5                        @ lvgl/src/lv_themes/lv_theme_material.c:251:5
	movs	r1, #17
	mov	r0, r7
	bl	lv_style_set_text_color
	.loc	13 252 30 is_stmt 1             @ lvgl/src/lv_themes/lv_theme_material.c:252:30
	ldr.w	r0, [r10]
	movw	r7, #2730
	.loc	13 252 38 is_stmt 0             @ lvgl/src/lv_themes/lv_theme_material.c:252:38
	add.w	r6, r0, #8
	.loc	13 252 67                       @ lvgl/src/lv_themes/lv_theme_material.c:252:67
	ldr.w	r0, [r11, #36]
	lsls	r0, r0, #30
	movw	r0, #2730
	it	pl
	movwpl	r0, #2457
	bl	lv_color_hex3
	mov	r2, r0
	.loc	13 252 5                        @ lvgl/src/lv_themes/lv_theme_material.c:252:5
	movs	r1, #32
	mov	r0, r6
	bl	lv_style_set_text_color
	.loc	13 253 69 is_stmt 1             @ lvgl/src/lv_themes/lv_theme_material.c:253:69
	ldr.w	r0, [r11, #36]
	.loc	13 253 33 is_stmt 0             @ lvgl/src/lv_themes/lv_theme_material.c:253:33
	ldr.w	r1, [r10]
	.loc	13 253 69                       @ lvgl/src/lv_themes/lv_theme_material.c:253:69
	lsls	r0, r0, #30
	.loc	13 253 41                       @ lvgl/src/lv_themes/lv_theme_material.c:253:41
	add.w	r6, r1, #8
	.loc	13 253 69                       @ lvgl/src/lv_themes/lv_theme_material.c:253:69
	it	pl
	mvnpl	r4, #-16777216
	mov	r0, r4
	bl	lv_color_hex
	mov	r2, r0
	.loc	13 253 5                        @ lvgl/src/lv_themes/lv_theme_material.c:253:5
	movs	r1, #16
	mov	r0, r6
	bl	lv_style_set_image_recolor
	.loc	13 254 33 is_stmt 1             @ lvgl/src/lv_themes/lv_theme_material.c:254:33
	ldr.w	r0, [r10]
	.loc	13 254 41 is_stmt 0             @ lvgl/src/lv_themes/lv_theme_material.c:254:41
	add.w	r4, r0, #8
	.loc	13 254 69                       @ lvgl/src/lv_themes/lv_theme_material.c:254:69
	mvn	r0, #-16777216
	bl	lv_color_hex
	mov	r2, r0
	.loc	13 254 5                        @ lvgl/src/lv_themes/lv_theme_material.c:254:5
	movs	r1, #1
	mov	r0, r4
	bl	lv_style_set_image_recolor
	.loc	13 255 33 is_stmt 1             @ lvgl/src/lv_themes/lv_theme_material.c:255:33
	ldr.w	r0, [r10]
	.loc	13 255 41 is_stmt 0             @ lvgl/src/lv_themes/lv_theme_material.c:255:41
	add.w	r4, r0, #8
	.loc	13 255 88                       @ lvgl/src/lv_themes/lv_theme_material.c:255:88
	mvn	r0, #-16777216
	bl	lv_color_hex
	mov	r2, r0
	.loc	13 255 5                        @ lvgl/src/lv_themes/lv_theme_material.c:255:5
	movs	r1, #17
	mov	r0, r4
	bl	lv_style_set_image_recolor
	.loc	13 256 70 is_stmt 1             @ lvgl/src/lv_themes/lv_theme_material.c:256:70
	ldr.w	r0, [r11, #36]
	.loc	13 256 33 is_stmt 0             @ lvgl/src/lv_themes/lv_theme_material.c:256:33
	ldr.w	r1, [r10]
	.loc	13 256 70                       @ lvgl/src/lv_themes/lv_theme_material.c:256:70
	lsls	r0, r0, #30
	.loc	13 256 41                       @ lvgl/src/lv_themes/lv_theme_material.c:256:41
	add.w	r4, r1, #8
	.loc	13 256 70                       @ lvgl/src/lv_themes/lv_theme_material.c:256:70
	it	pl
	movwpl	r7, #2457
	mov	r0, r7
	bl	lv_color_hex3
	mov	r2, r0
	.loc	13 256 5                        @ lvgl/src/lv_themes/lv_theme_material.c:256:5
	movs	r1, #32
	mov	r0, r4
	bl	lv_style_set_image_recolor
	.loc	13 257 37 is_stmt 1             @ lvgl/src/lv_themes/lv_theme_material.c:257:37
	ldr.w	r0, [r10]
	.loc	13 257 5 is_stmt 0              @ lvgl/src/lv_themes/lv_theme_material.c:257:5
	movs	r1, #41
	.loc	13 257 45                       @ lvgl/src/lv_themes/lv_theme_material.c:257:45
	adds	r0, #8
	.loc	13 257 5                        @ lvgl/src/lv_themes/lv_theme_material.c:257:5
	bl	lv_style_set_transition_prop_5
	.loc	13 259 21 is_stmt 1             @ lvgl/src/lv_themes/lv_theme_material.c:259:21
	ldr.w	r0, [r10]
	.loc	13 259 29 is_stmt 0             @ lvgl/src/lv_themes/lv_theme_material.c:259:29
	adds	r0, #16
	.loc	13 259 5                        @ lvgl/src/lv_themes/lv_theme_material.c:259:5
	bl	lv_style_reset
	.loc	13 260 26 is_stmt 1             @ lvgl/src/lv_themes/lv_theme_material.c:260:26
	ldr.w	r0, [r10]
	.loc	13 260 5 is_stmt 0              @ lvgl/src/lv_themes/lv_theme_material.c:260:5
	movw	r1, #32767
	.loc	13 260 34                       @ lvgl/src/lv_themes/lv_theme_material.c:260:34
	adds	r0, #16
	.loc	13 260 5                        @ lvgl/src/lv_themes/lv_theme_material.c:260:5
	bl	lv_style_set_radius
	.loc	13 261 26 is_stmt 1             @ lvgl/src/lv_themes/lv_theme_material.c:261:26
	ldr.w	r0, [r10]
	.loc	13 261 5 is_stmt 0              @ lvgl/src/lv_themes/lv_theme_material.c:261:5
	movs	r1, #0
	.loc	13 261 34                       @ lvgl/src/lv_themes/lv_theme_material.c:261:34
	adds	r0, #16
	.loc	13 261 5                        @ lvgl/src/lv_themes/lv_theme_material.c:261:5
	movs	r2, #255
	bl	lv_style_set_bg_opa
	.loc	13 262 59 is_stmt 1             @ lvgl/src/lv_themes/lv_theme_material.c:262:59
	ldr.w	r0, [r11, #36]
	movw	r7, #25203
	.loc	13 262 28 is_stmt 0             @ lvgl/src/lv_themes/lv_theme_material.c:262:28
	ldr.w	r1, [r10]
	.loc	13 262 59                       @ lvgl/src/lv_themes/lv_theme_material.c:262:59
	lsls	r0, r0, #30
	mvn	r0, #-16777216
	movt	r7, #88
	.loc	13 262 36                       @ lvgl/src/lv_themes/lv_theme_material.c:262:36
	add.w	r4, r1, #16
	.loc	13 262 59                       @ lvgl/src/lv_themes/lv_theme_material.c:262:59
	it	pl
	movpl	r0, r7
	bl	lv_color_hex
	mov	r2, r0
	.loc	13 262 5                        @ lvgl/src/lv_themes/lv_theme_material.c:262:5
	movs	r1, #0
	mov	r0, r4
	bl	lv_style_set_bg_color
	.loc	13 263 59 is_stmt 1             @ lvgl/src/lv_themes/lv_theme_material.c:263:59
	ldr.w	r0, [r11, #36]
	.loc	13 263 28 is_stmt 0             @ lvgl/src/lv_themes/lv_theme_material.c:263:28
	ldr.w	r1, [r10]
	.loc	13 263 59                       @ lvgl/src/lv_themes/lv_theme_material.c:263:59
	ands	r6, r0, #2
	mvn	r0, #-16777216
	.loc	13 263 36                       @ lvgl/src/lv_themes/lv_theme_material.c:263:36
	add.w	r4, r1, #16
	.loc	13 263 59                       @ lvgl/src/lv_themes/lv_theme_material.c:263:59
	it	eq
	moveq	r0, r7
	bl	lv_color_hex
	mov	r1, r0
	movs	r2, #51
	ldr.w	r0, [r11, #12]
	cmp	r6, #0
	it	eq
	moveq	r2, #76
	bl	lv_color_mix
	mov	r2, r0
	.loc	13 263 5                        @ lvgl/src/lv_themes/lv_theme_material.c:263:5
	movs	r1, #16
	mov	r0, r4
	bl	lv_style_set_bg_color
	.loc	13 264 28 is_stmt 1             @ lvgl/src/lv_themes/lv_theme_material.c:264:28
	ldr.w	r0, [r10]
	.loc	13 264 5 is_stmt 0              @ lvgl/src/lv_themes/lv_theme_material.c:264:5
	ldr.w	r2, [r11, #12]
	.loc	13 264 36                       @ lvgl/src/lv_themes/lv_theme_material.c:264:36
	adds	r0, #16
	.loc	13 264 5                        @ lvgl/src/lv_themes/lv_theme_material.c:264:5
	movs	r1, #1
	bl	lv_style_set_bg_color
	.loc	13 265 28 is_stmt 1             @ lvgl/src/lv_themes/lv_theme_material.c:265:28
	ldr.w	r0, [r10]
	.loc	13 265 78 is_stmt 0             @ lvgl/src/lv_themes/lv_theme_material.c:265:78
	movs	r1, #76
	.loc	13 265 36                       @ lvgl/src/lv_themes/lv_theme_material.c:265:36
	add.w	r4, r0, #16
	.loc	13 265 78                       @ lvgl/src/lv_themes/lv_theme_material.c:265:78
	ldr.w	r0, [r11, #12]
	bl	lv_color_darken
	mov	r2, r0
	.loc	13 265 5                        @ lvgl/src/lv_themes/lv_theme_material.c:265:5
	movs	r1, #17
	mov	r0, r4
	bl	lv_style_set_bg_color
	.loc	13 266 60 is_stmt 1             @ lvgl/src/lv_themes/lv_theme_material.c:266:60
	ldr.w	r0, [r11, #36]
	.loc	13 266 28 is_stmt 0             @ lvgl/src/lv_themes/lv_theme_material.c:266:28
	ldr.w	r1, [r10]
	.loc	13 266 60                       @ lvgl/src/lv_themes/lv_theme_material.c:266:60
	lsls	r0, r0, #30
	.loc	13 266 36                       @ lvgl/src/lv_themes/lv_theme_material.c:266:36
	add.w	r4, r1, #16
	.loc	13 266 60                       @ lvgl/src/lv_themes/lv_theme_material.c:266:60
	it	pl
	movpl	r5, r7
	mov	r0, r5
	bl	lv_color_hex
	mov	r2, r0
	.loc	13 266 5                        @ lvgl/src/lv_themes/lv_theme_material.c:266:5
	movs	r1, #32
	mov	r0, r4
	bl	lv_style_set_bg_color
	.loc	13 267 79 is_stmt 1             @ lvgl/src/lv_themes/lv_theme_material.c:267:79
	ldr.w	r0, [r11, #36]
	.loc	13 267 28 is_stmt 0             @ lvgl/src/lv_themes/lv_theme_material.c:267:28
	ldr.w	r1, [r10]
	.loc	13 267 79                       @ lvgl/src/lv_themes/lv_theme_material.c:267:79
	lsls	r0, r0, #30
	movw	r0, #3276
	.loc	13 267 36                       @ lvgl/src/lv_themes/lv_theme_material.c:267:36
	add.w	r4, r1, #16
	.loc	13 267 79                       @ lvgl/src/lv_themes/lv_theme_material.c:267:79
	it	pl
	movwpl	r0, #2184
	bl	lv_color_hex3
	mov	r2, r0
	.loc	13 267 5                        @ lvgl/src/lv_themes/lv_theme_material.c:267:5
	movs	r1, #33
	mov	r0, r4
	bl	lv_style_set_bg_color
	.loc	13 268 32 is_stmt 1             @ lvgl/src/lv_themes/lv_theme_material.c:268:32
	ldr.w	r0, [r10]
	.loc	13 268 5 is_stmt 0              @ lvgl/src/lv_themes/lv_theme_material.c:268:5
	ldr.w	r2, [r11, #12]
	.loc	13 268 40                       @ lvgl/src/lv_themes/lv_theme_material.c:268:40
	adds	r0, #16
	.loc	13 268 5                        @ lvgl/src/lv_themes/lv_theme_material.c:268:5
	movs	r1, #0
	bl	lv_style_set_border_color
	.loc	13 269 32 is_stmt 1             @ lvgl/src/lv_themes/lv_theme_material.c:269:32
	ldr.w	r0, [r10]
	.loc	13 269 5 is_stmt 0              @ lvgl/src/lv_themes/lv_theme_material.c:269:5
	ldr.w	r2, [r11, #12]
	.loc	13 269 40                       @ lvgl/src/lv_themes/lv_theme_material.c:269:40
	adds	r0, #16
	.loc	13 269 5                        @ lvgl/src/lv_themes/lv_theme_material.c:269:5
	movs	r1, #16
	bl	lv_style_set_border_color
	.loc	13 270 64 is_stmt 1             @ lvgl/src/lv_themes/lv_theme_material.c:270:64
	ldrb.w	r0, [r11, #36]
	.loc	13 270 32 is_stmt 0             @ lvgl/src/lv_themes/lv_theme_material.c:270:32
	ldr.w	r1, [r10]
	.loc	13 270 40                       @ lvgl/src/lv_themes/lv_theme_material.c:270:40
	add.w	r4, r1, #16
	.loc	13 270 64                       @ lvgl/src/lv_themes/lv_theme_material.c:270:64
	lsls	r0, r0, #30
	bmi	.LBB1_60
@ %bb.59:
	.loc	13 0 64                         @ lvgl/src/lv_themes/lv_theme_material.c:0:64
	movw	r0, #16448
	movt	r0, #64
	.loc	13 270 64                       @ lvgl/src/lv_themes/lv_theme_material.c:270:64
	bl	lv_color_hex
	b	.LBB1_61
.LBB1_60:
	movw	r0, #2184
	bl	lv_color_hex3
.LBB1_61:
	mov	r2, r0
	.loc	13 270 5                        @ lvgl/src/lv_themes/lv_theme_material.c:270:5
	movs	r1, #32
	mov	r0, r4
	bl	lv_style_set_border_color
	.loc	13 271 32 is_stmt 1             @ lvgl/src/lv_themes/lv_theme_material.c:271:32
	ldr.w	r0, [r10]
	.loc	13 271 40 is_stmt 0             @ lvgl/src/lv_themes/lv_theme_material.c:271:40
	add.w	r5, r0, #16
	.loc	13 271 63                       @ lvgl/src/lv_themes/lv_theme_material.c:271:63
	movs	r0, #0
	bl	lv_disp_get_dpi
	cmp	r0, #120
	blt	.LBB1_63
@ %bb.62:
	movs	r0, #0
	bl	lv_disp_get_dpi
	movs	r1, #80
	add.w	r0, r1, r0, lsl #1
	movw	r1, #26215
	movt	r1, #26214
	smmul	r0, r0, r1
	asrs	r1, r0, #6
	add.w	r0, r1, r0, lsr #31
	b	.LBB1_64
.LBB1_63:
	.loc	13 0 63                         @ lvgl/src/lv_themes/lv_theme_material.c:0:63
	movs	r0, #1
.LBB1_64:
	.loc	13 271 5                        @ lvgl/src/lv_themes/lv_theme_material.c:271:5
	sxth	r2, r0
	movw	r4, #34952
	movs	r1, #0
	mov	r0, r5
	movt	r4, #136
	bl	lv_style_set_border_width
	.loc	13 272 30 is_stmt 1             @ lvgl/src/lv_themes/lv_theme_material.c:272:30
	ldr.w	r0, [r10]
	.loc	13 272 5 is_stmt 0              @ lvgl/src/lv_themes/lv_theme_material.c:272:5
	movs	r1, #1
	.loc	13 272 38                       @ lvgl/src/lv_themes/lv_theme_material.c:272:38
	adds	r0, #16
	.loc	13 272 5                        @ lvgl/src/lv_themes/lv_theme_material.c:272:5
	movs	r2, #0
	bl	lv_style_set_border_opa
	.loc	13 274 61 is_stmt 1             @ lvgl/src/lv_themes/lv_theme_material.c:274:61
	ldr.w	r0, [r11, #36]
	.loc	13 274 30 is_stmt 0             @ lvgl/src/lv_themes/lv_theme_material.c:274:30
	ldr.w	r1, [r10]
	.loc	13 274 61                       @ lvgl/src/lv_themes/lv_theme_material.c:274:61
	lsls	r0, r0, #30
	mov	r0, r9
	.loc	13 274 38                       @ lvgl/src/lv_themes/lv_theme_material.c:274:38
	add.w	r5, r1, #16
	.loc	13 274 61                       @ lvgl/src/lv_themes/lv_theme_material.c:274:61
	it	pl
	mvnpl	r0, #-16777216
	.loc	13 0 0                          @ lvgl/src/lv_themes/lv_theme_material.c:0:0
	bl	lv_color_hex
	mov	r2, r0
	.loc	13 274 5                        @ lvgl/src/lv_themes/lv_theme_material.c:274:5
	movs	r1, #0
	mov	r0, r5
	bl	lv_style_set_text_color
	.loc	13 275 61 is_stmt 1             @ lvgl/src/lv_themes/lv_theme_material.c:275:61
	ldr.w	r0, [r11, #36]
	.loc	13 275 30 is_stmt 0             @ lvgl/src/lv_themes/lv_theme_material.c:275:30
	ldr.w	r1, [r10]
	.loc	13 275 61                       @ lvgl/src/lv_themes/lv_theme_material.c:275:61
	lsls	r0, r0, #30
	mov	r0, r9
	.loc	13 275 38                       @ lvgl/src/lv_themes/lv_theme_material.c:275:38
	add.w	r5, r1, #16
	.loc	13 275 61                       @ lvgl/src/lv_themes/lv_theme_material.c:275:61
	it	pl
	mvnpl	r0, #-16777216
	.loc	13 0 0                          @ lvgl/src/lv_themes/lv_theme_material.c:0:0
	bl	lv_color_hex
	mov	r2, r0
	.loc	13 275 5                        @ lvgl/src/lv_themes/lv_theme_material.c:275:5
	movs	r1, #16
	mov	r0, r5
	bl	lv_style_set_text_color
	.loc	13 276 30 is_stmt 1             @ lvgl/src/lv_themes/lv_theme_material.c:276:30
	ldr.w	r0, [r10]
	.loc	13 276 38 is_stmt 0             @ lvgl/src/lv_themes/lv_theme_material.c:276:38
	add.w	r6, r0, #16
	.loc	13 276 62                       @ lvgl/src/lv_themes/lv_theme_material.c:276:62
	mvn	r0, #-16777216
	bl	lv_color_hex
	mov	r5, r0
	.loc	13 276 5                        @ lvgl/src/lv_themes/lv_theme_material.c:276:5
	movs	r1, #1
	mov	r0, r6
	mov	r2, r5
	bl	lv_style_set_text_color
	.loc	13 277 30 is_stmt 1             @ lvgl/src/lv_themes/lv_theme_material.c:277:30
	ldr.w	r0, [r10]
	.loc	13 277 5 is_stmt 0              @ lvgl/src/lv_themes/lv_theme_material.c:277:5
	movs	r1, #17
	.loc	13 277 38                       @ lvgl/src/lv_themes/lv_theme_material.c:277:38
	adds	r0, #16
	.loc	13 277 5                        @ lvgl/src/lv_themes/lv_theme_material.c:277:5
	mov	r2, r5
	bl	lv_style_set_text_color
	.loc	13 278 30 is_stmt 1             @ lvgl/src/lv_themes/lv_theme_material.c:278:30
	ldr.w	r0, [r10]
	.loc	13 278 38 is_stmt 0             @ lvgl/src/lv_themes/lv_theme_material.c:278:38
	add.w	r6, r0, #16
	.loc	13 0 0                          @ lvgl/src/lv_themes/lv_theme_material.c:0:0
	mov	r0, r4
	bl	lv_color_hex
	mov	r2, r0
	.loc	13 278 5                        @ lvgl/src/lv_themes/lv_theme_material.c:278:5
	movs	r1, #32
	mov	r0, r6
	bl	lv_style_set_text_color
	.loc	13 280 64 is_stmt 1             @ lvgl/src/lv_themes/lv_theme_material.c:280:64
	ldrb.w	r0, [r11, #36]
	.loc	13 280 33 is_stmt 0             @ lvgl/src/lv_themes/lv_theme_material.c:280:33
	ldr.w	r1, [r10]
	.loc	13 280 41                       @ lvgl/src/lv_themes/lv_theme_material.c:280:41
	add.w	r7, r1, #16
	.loc	13 0 0                          @ lvgl/src/lv_themes/lv_theme_material.c:0:0
	mov	r2, r5
	.loc	13 280 64                       @ lvgl/src/lv_themes/lv_theme_material.c:280:64
	lsls	r0, r0, #30
	bpl	.LBB1_66
@ %bb.65:
	.loc	13 280 75                       @ lvgl/src/lv_themes/lv_theme_material.c:280:75
	mov	r0, r9
	bl	lv_color_hex
	mov	r2, r0
.LBB1_66:
	.loc	13 280 5                        @ lvgl/src/lv_themes/lv_theme_material.c:280:5
	movs	r1, #0
	mov	r0, r7
	bl	lv_style_set_image_recolor
	.loc	13 281 64 is_stmt 1             @ lvgl/src/lv_themes/lv_theme_material.c:281:64
	ldrb.w	r0, [r11, #36]
	.loc	13 281 33 is_stmt 0             @ lvgl/src/lv_themes/lv_theme_material.c:281:33
	ldr.w	r1, [r10]
	.loc	13 281 41                       @ lvgl/src/lv_themes/lv_theme_material.c:281:41
	add.w	r7, r1, #16
	.loc	13 0 0                          @ lvgl/src/lv_themes/lv_theme_material.c:0:0
	mov	r2, r5
	.loc	13 281 64                       @ lvgl/src/lv_themes/lv_theme_material.c:281:64
	lsls	r0, r0, #30
	bpl	.LBB1_68
@ %bb.67:
	.loc	13 281 75                       @ lvgl/src/lv_themes/lv_theme_material.c:281:75
	mov	r0, r9
	bl	lv_color_hex
	mov	r2, r0
.LBB1_68:
	.loc	13 281 5                        @ lvgl/src/lv_themes/lv_theme_material.c:281:5
	movs	r1, #16
	mov	r0, r7
	bl	lv_style_set_image_recolor
	.loc	13 282 33 is_stmt 1             @ lvgl/src/lv_themes/lv_theme_material.c:282:33
	ldr.w	r0, [r10]
	.loc	13 282 5 is_stmt 0              @ lvgl/src/lv_themes/lv_theme_material.c:282:5
	movs	r1, #16
	.loc	13 282 41                       @ lvgl/src/lv_themes/lv_theme_material.c:282:41
	adds	r0, #16
	.loc	13 282 5                        @ lvgl/src/lv_themes/lv_theme_material.c:282:5
	mov	r2, r5
	bl	lv_style_set_image_recolor
	.loc	13 283 33 is_stmt 1             @ lvgl/src/lv_themes/lv_theme_material.c:283:33
	ldr.w	r0, [r10]
	.loc	13 283 5 is_stmt 0              @ lvgl/src/lv_themes/lv_theme_material.c:283:5
	movs	r1, #17
	.loc	13 283 41                       @ lvgl/src/lv_themes/lv_theme_material.c:283:41
	adds	r0, #16
	.loc	13 283 5                        @ lvgl/src/lv_themes/lv_theme_material.c:283:5
	mov	r2, r5
	bl	lv_style_set_image_recolor
	.loc	13 284 33 is_stmt 1             @ lvgl/src/lv_themes/lv_theme_material.c:284:33
	ldr.w	r0, [r10]
	.loc	13 284 41 is_stmt 0             @ lvgl/src/lv_themes/lv_theme_material.c:284:41
	add.w	r6, r0, #16
	.loc	13 0 0                          @ lvgl/src/lv_themes/lv_theme_material.c:0:0
	mov	r0, r4
	bl	lv_color_hex
	mov	r2, r0
	.loc	13 284 5                        @ lvgl/src/lv_themes/lv_theme_material.c:284:5
	movs	r1, #32
	mov	r0, r6
	bl	lv_style_set_image_recolor
	.loc	13 286 62 is_stmt 1             @ lvgl/src/lv_themes/lv_theme_material.c:286:62
	ldrb.w	r0, [r11, #36]
	.loc	13 286 31 is_stmt 0             @ lvgl/src/lv_themes/lv_theme_material.c:286:31
	ldr.w	r1, [r10]
	.loc	13 286 39                       @ lvgl/src/lv_themes/lv_theme_material.c:286:39
	add.w	r7, r1, #16
	.loc	13 0 0                          @ lvgl/src/lv_themes/lv_theme_material.c:0:0
	mov	r2, r5
	.loc	13 286 62                       @ lvgl/src/lv_themes/lv_theme_material.c:286:62
	lsls	r0, r0, #30
	bpl	.LBB1_70
@ %bb.69:
	.loc	13 286 73                       @ lvgl/src/lv_themes/lv_theme_material.c:286:73
	mov	r0, r9
	bl	lv_color_hex
	mov	r2, r0
.LBB1_70:
	.loc	13 286 5                        @ lvgl/src/lv_themes/lv_theme_material.c:286:5
	movs	r1, #0
	mov	r0, r7
	bl	lv_style_set_value_color
	.loc	13 287 62 is_stmt 1             @ lvgl/src/lv_themes/lv_theme_material.c:287:62
	ldrb.w	r0, [r11, #36]
	.loc	13 287 31 is_stmt 0             @ lvgl/src/lv_themes/lv_theme_material.c:287:31
	ldr.w	r1, [r10]
	.loc	13 287 39                       @ lvgl/src/lv_themes/lv_theme_material.c:287:39
	add.w	r7, r1, #16
	.loc	13 0 0                          @ lvgl/src/lv_themes/lv_theme_material.c:0:0
	mov	r2, r5
	.loc	13 287 62                       @ lvgl/src/lv_themes/lv_theme_material.c:287:62
	lsls	r0, r0, #30
	bpl	.LBB1_72
@ %bb.71:
	.loc	13 287 73                       @ lvgl/src/lv_themes/lv_theme_material.c:287:73
	mov	r0, r9
	bl	lv_color_hex
	mov	r2, r0
.LBB1_72:
	.loc	13 287 5                        @ lvgl/src/lv_themes/lv_theme_material.c:287:5
	movs	r1, #16
	mov	r0, r7
	bl	lv_style_set_value_color
	.loc	13 288 31 is_stmt 1             @ lvgl/src/lv_themes/lv_theme_material.c:288:31
	ldr.w	r0, [r10]
	.loc	13 288 5 is_stmt 0              @ lvgl/src/lv_themes/lv_theme_material.c:288:5
	movs	r1, #1
	.loc	13 288 39                       @ lvgl/src/lv_themes/lv_theme_material.c:288:39
	adds	r0, #16
	.loc	13 288 5                        @ lvgl/src/lv_themes/lv_theme_material.c:288:5
	mov	r2, r5
	movs	r6, #1
	bl	lv_style_set_value_color
	.loc	13 289 31 is_stmt 1             @ lvgl/src/lv_themes/lv_theme_material.c:289:31
	ldr.w	r0, [r10]
	.loc	13 289 5 is_stmt 0              @ lvgl/src/lv_themes/lv_theme_material.c:289:5
	movs	r1, #17
	.loc	13 289 39                       @ lvgl/src/lv_themes/lv_theme_material.c:289:39
	adds	r0, #16
	.loc	13 289 5                        @ lvgl/src/lv_themes/lv_theme_material.c:289:5
	mov	r2, r5
	bl	lv_style_set_value_color
	.loc	13 290 31 is_stmt 1             @ lvgl/src/lv_themes/lv_theme_material.c:290:31
	ldr.w	r0, [r10]
	.loc	13 290 39 is_stmt 0             @ lvgl/src/lv_themes/lv_theme_material.c:290:39
	add.w	r5, r0, #16
	.loc	13 0 0                          @ lvgl/src/lv_themes/lv_theme_material.c:0:0
	mov	r0, r4
	bl	lv_color_hex
	mov	r2, r0
	.loc	13 290 5                        @ lvgl/src/lv_themes/lv_theme_material.c:290:5
	movs	r1, #32
	mov	r0, r5
	bl	lv_style_set_value_color
	.loc	13 292 28 is_stmt 1             @ lvgl/src/lv_themes/lv_theme_material.c:292:28
	ldr.w	r0, [r10]
	.loc	13 292 36 is_stmt 0             @ lvgl/src/lv_themes/lv_theme_material.c:292:36
	add.w	r4, r0, #16
	.loc	13 292 59                       @ lvgl/src/lv_themes/lv_theme_material.c:292:59
	movs	r0, #0
	bl	lv_disp_get_dpi
	add.w	r0, r0, r0, lsl #2
	lsls	r0, r0, #3
	cmp	r0, #240
	blt	.LBB1_74
@ %bb.73:
	movs	r0, #0
	bl	lv_disp_get_dpi
	add.w	r0, r0, r0, lsl #2
	movs	r1, #80
	add.w	r0, r1, r0, lsl #3
	movw	r1, #26215
	movt	r1, #26214
	smmul	r0, r0, r1
	asrs	r1, r0, #6
	add.w	r6, r1, r0, lsr #31
.LBB1_74:
	.loc	13 292 5                        @ lvgl/src/lv_themes/lv_theme_material.c:292:5
	sxth	r1, r6
	mov	r0, r4
	bl	lv_style_set_pad_left
	.loc	13 293 29 is_stmt 1             @ lvgl/src/lv_themes/lv_theme_material.c:293:29
	ldr.w	r0, [r10]
	.loc	13 293 37 is_stmt 0             @ lvgl/src/lv_themes/lv_theme_material.c:293:37
	add.w	r4, r0, #16
	.loc	13 293 60                       @ lvgl/src/lv_themes/lv_theme_material.c:293:60
	movs	r0, #0
	bl	lv_disp_get_dpi
	add.w	r0, r0, r0, lsl #2
	lsls	r0, r0, #3
	cmp	r0, #240
	blt	.LBB1_76
@ %bb.75:
	movs	r0, #0
	bl	lv_disp_get_dpi
	add.w	r0, r0, r0, lsl #2
	movs	r1, #80
	add.w	r0, r1, r0, lsl #3
	movw	r1, #26215
	movt	r1, #26214
	smmul	r0, r0, r1
	asrs	r1, r0, #6
	add.w	r0, r1, r0, lsr #31
	b	.LBB1_77
.LBB1_76:
	.loc	13 0 60                         @ lvgl/src/lv_themes/lv_theme_material.c:0:60
	movs	r0, #1
.LBB1_77:
	.loc	13 293 5                        @ lvgl/src/lv_themes/lv_theme_material.c:293:5
	sxth	r1, r0
	mov	r0, r4
	bl	lv_style_set_pad_right
	.loc	13 294 27 is_stmt 1             @ lvgl/src/lv_themes/lv_theme_material.c:294:27
	ldr.w	r0, [r10]
	.loc	13 294 35 is_stmt 0             @ lvgl/src/lv_themes/lv_theme_material.c:294:35
	add.w	r4, r0, #16
	.loc	13 294 58                       @ lvgl/src/lv_themes/lv_theme_material.c:294:58
	movs	r0, #0
	bl	lv_disp_get_dpi
	rsb	r0, r0, r0, lsl #4
	cmp	r0, #240
	blt	.LBB1_79
@ %bb.78:
	movs	r0, #0
	bl	lv_disp_get_dpi
	rsb	r0, r0, r0, lsl #4
	movw	r1, #26215
	adds	r0, #80
	movt	r1, #26214
	smmul	r0, r0, r1
	asrs	r1, r0, #6
	add.w	r0, r1, r0, lsr #31
	b	.LBB1_80
.LBB1_79:
	.loc	13 0 58                         @ lvgl/src/lv_themes/lv_theme_material.c:0:58
	movs	r0, #1
.LBB1_80:
	.loc	13 294 5                        @ lvgl/src/lv_themes/lv_theme_material.c:294:5
	sxth	r1, r0
	mov	r0, r4
	bl	lv_style_set_pad_top
	.loc	13 295 30 is_stmt 1             @ lvgl/src/lv_themes/lv_theme_material.c:295:30
	ldr.w	r0, [r10]
	.loc	13 295 38 is_stmt 0             @ lvgl/src/lv_themes/lv_theme_material.c:295:38
	add.w	r4, r0, #16
	.loc	13 295 61                       @ lvgl/src/lv_themes/lv_theme_material.c:295:61
	movs	r0, #0
	bl	lv_disp_get_dpi
	rsb	r0, r0, r0, lsl #4
	cmp	r0, #240
	blt	.LBB1_82
@ %bb.81:
	movs	r0, #0
	bl	lv_disp_get_dpi
	rsb	r0, r0, r0, lsl #4
	movw	r1, #26215
	adds	r0, #80
	movt	r1, #26214
	smmul	r0, r0, r1
	asrs	r1, r0, #6
	add.w	r0, r1, r0, lsr #31
	b	.LBB1_83
.LBB1_82:
	.loc	13 0 61                         @ lvgl/src/lv_themes/lv_theme_material.c:0:61
	movs	r0, #1
.LBB1_83:
	.loc	13 295 5                        @ lvgl/src/lv_themes/lv_theme_material.c:295:5
	sxth	r1, r0
	mov	r0, r4
	bl	lv_style_set_pad_bottom
	.loc	13 296 29 is_stmt 1             @ lvgl/src/lv_themes/lv_theme_material.c:296:29
	ldr.w	r0, [r10]
	.loc	13 296 37 is_stmt 0             @ lvgl/src/lv_themes/lv_theme_material.c:296:37
	add.w	r4, r0, #16
	.loc	13 296 60                       @ lvgl/src/lv_themes/lv_theme_material.c:296:60
	movs	r0, #0
	bl	lv_disp_get_dpi
	add.w	r0, r0, r0, lsl #2
	lsls	r0, r0, #2
	cmp	r0, #240
	blt	.LBB1_85
@ %bb.84:
	movs	r0, #0
	bl	lv_disp_get_dpi
	add.w	r0, r0, r0, lsl #2
	movs	r1, #80
	add.w	r0, r1, r0, lsl #2
	movw	r1, #26215
	movt	r1, #26214
	smmul	r0, r0, r1
	asrs	r1, r0, #6
	add.w	r0, r1, r0, lsr #31
	b	.LBB1_86
.LBB1_85:
	.loc	13 0 60                         @ lvgl/src/lv_themes/lv_theme_material.c:0:60
	movs	r0, #1
.LBB1_86:
	.loc	13 296 5                        @ lvgl/src/lv_themes/lv_theme_material.c:296:5
	sxth	r1, r0
	mov	r0, r4
	bl	lv_style_set_pad_inner
	.loc	13 297 64 is_stmt 1             @ lvgl/src/lv_themes/lv_theme_material.c:297:64
	ldrb.w	r0, [r11, #36]
	.loc	13 297 33 is_stmt 0             @ lvgl/src/lv_themes/lv_theme_material.c:297:33
	ldr.w	r1, [r10]
	.loc	13 297 41                       @ lvgl/src/lv_themes/lv_theme_material.c:297:41
	add.w	r4, r1, #16
	.loc	13 297 64                       @ lvgl/src/lv_themes/lv_theme_material.c:297:64
	lsls	r0, r0, #26
	mov.w	r0, #0
	bmi	.LBB1_90
@ %bb.87:
	bl	lv_disp_get_dpi
	cmp	r0, #120
	blt	.LBB1_89
@ %bb.88:
	movs	r0, #0
	bl	lv_disp_get_dpi
	movs	r1, #80
	add.w	r0, r1, r0, lsl #1
	movw	r1, #26215
	movt	r1, #26214
	smmul	r0, r0, r1
	asrs	r1, r0, #6
	add.w	r0, r1, r0, lsr #31
	b	.LBB1_90
.LBB1_89:
	.loc	13 0 64                         @ lvgl/src/lv_themes/lv_theme_material.c:0:64
	movs	r0, #1
.LBB1_90:
	.loc	13 297 5                        @ lvgl/src/lv_themes/lv_theme_material.c:297:5
	sxth	r2, r0
	movs	r1, #0
	mov	r0, r4
	bl	lv_style_set_outline_width
	.loc	13 298 31 is_stmt 1             @ lvgl/src/lv_themes/lv_theme_material.c:298:31
	ldr.w	r0, [r10]
	.loc	13 298 5 is_stmt 0              @ lvgl/src/lv_themes/lv_theme_material.c:298:5
	movs	r1, #0
	.loc	13 298 39                       @ lvgl/src/lv_themes/lv_theme_material.c:298:39
	adds	r0, #16
	.loc	13 298 5                        @ lvgl/src/lv_themes/lv_theme_material.c:298:5
	movs	r2, #0
	bl	lv_style_set_outline_opa
	.loc	13 299 31 is_stmt 1             @ lvgl/src/lv_themes/lv_theme_material.c:299:31
	ldr.w	r0, [r10]
	.loc	13 299 5 is_stmt 0              @ lvgl/src/lv_themes/lv_theme_material.c:299:5
	movs	r1, #2
	.loc	13 299 39                       @ lvgl/src/lv_themes/lv_theme_material.c:299:39
	adds	r0, #16
	.loc	13 299 5                        @ lvgl/src/lv_themes/lv_theme_material.c:299:5
	movs	r2, #127
	bl	lv_style_set_outline_opa
	.loc	13 300 33 is_stmt 1             @ lvgl/src/lv_themes/lv_theme_material.c:300:33
	ldr.w	r0, [r10]
	.loc	13 300 5 is_stmt 0              @ lvgl/src/lv_themes/lv_theme_material.c:300:5
	ldr.w	r2, [r11, #12]
	.loc	13 300 41                       @ lvgl/src/lv_themes/lv_theme_material.c:300:41
	adds	r0, #16
	.loc	13 300 5                        @ lvgl/src/lv_themes/lv_theme_material.c:300:5
	movs	r1, #0
	bl	lv_style_set_outline_color
	.loc	13 301 33 is_stmt 1             @ lvgl/src/lv_themes/lv_theme_material.c:301:33
	ldr.w	r0, [r10]
	.loc	13 301 5 is_stmt 0              @ lvgl/src/lv_themes/lv_theme_material.c:301:5
	ldr.w	r2, [r11, #16]
	.loc	13 301 41                       @ lvgl/src/lv_themes/lv_theme_material.c:301:41
	adds	r0, #16
	.loc	13 301 5                        @ lvgl/src/lv_themes/lv_theme_material.c:301:5
	movs	r1, #4
	bl	lv_style_set_outline_color
	.loc	13 302 35 is_stmt 1             @ lvgl/src/lv_themes/lv_theme_material.c:302:35
	ldr.w	r0, [r10]
	.loc	13 302 43 is_stmt 0             @ lvgl/src/lv_themes/lv_theme_material.c:302:43
	adds	r0, #16
	.loc	13 302 5                        @ lvgl/src/lv_themes/lv_theme_material.c:302:5
	bl	lv_style_set_transition_time
	.loc	13 303 37 is_stmt 1             @ lvgl/src/lv_themes/lv_theme_material.c:303:37
	ldr.w	r0, [r10]
	.loc	13 303 45 is_stmt 0             @ lvgl/src/lv_themes/lv_theme_material.c:303:45
	adds	r0, #16
	.loc	13 303 5                        @ lvgl/src/lv_themes/lv_theme_material.c:303:5
	bl	lv_style_set_transition_prop_4
	.loc	13 304 37 is_stmt 1             @ lvgl/src/lv_themes/lv_theme_material.c:304:37
	ldr.w	r0, [r10]
	.loc	13 304 5 is_stmt 0              @ lvgl/src/lv_themes/lv_theme_material.c:304:5
	movs	r1, #41
	.loc	13 304 45                       @ lvgl/src/lv_themes/lv_theme_material.c:304:45
	adds	r0, #16
	.loc	13 304 5                        @ lvgl/src/lv_themes/lv_theme_material.c:304:5
	bl	lv_style_set_transition_prop_5
	.loc	13 305 37 is_stmt 1             @ lvgl/src/lv_themes/lv_theme_material.c:305:37
	ldr.w	r0, [r10]
	.loc	13 305 5 is_stmt 0              @ lvgl/src/lv_themes/lv_theme_material.c:305:5
	movs	r1, #76
	.loc	13 305 45                       @ lvgl/src/lv_themes/lv_theme_material.c:305:45
	adds	r0, #16
	.loc	13 305 5                        @ lvgl/src/lv_themes/lv_theme_material.c:305:5
	bl	lv_style_set_transition_prop_6
	.loc	13 306 36 is_stmt 1             @ lvgl/src/lv_themes/lv_theme_material.c:306:36
	ldr.w	r0, [r10]
	.loc	13 306 5 is_stmt 0              @ lvgl/src/lv_themes/lv_theme_material.c:306:5
	movs	r1, #0
	.loc	13 306 44                       @ lvgl/src/lv_themes/lv_theme_material.c:306:44
	adds	r0, #16
	.loc	13 306 5                        @ lvgl/src/lv_themes/lv_theme_material.c:306:5
	bl	lv_style_set_transition_delay
	.loc	13 307 36 is_stmt 1             @ lvgl/src/lv_themes/lv_theme_material.c:307:36
	ldr.w	r0, [r10]
	.loc	13 307 5 is_stmt 0              @ lvgl/src/lv_themes/lv_theme_material.c:307:5
	movs	r1, #16
	.loc	13 307 44                       @ lvgl/src/lv_themes/lv_theme_material.c:307:44
	adds	r0, #16
	.loc	13 307 5                        @ lvgl/src/lv_themes/lv_theme_material.c:307:5
	bl	lv_style_set_transition_delay
	.loc	13 309 21 is_stmt 1             @ lvgl/src/lv_themes/lv_theme_material.c:309:21
	ldr.w	r0, [r10]
	.loc	13 309 29 is_stmt 0             @ lvgl/src/lv_themes/lv_theme_material.c:309:29
	adds	r0, #20
	.loc	13 309 5                        @ lvgl/src/lv_themes/lv_theme_material.c:309:5
	bl	lv_style_reset
	.loc	13 311 29 is_stmt 1             @ lvgl/src/lv_themes/lv_theme_material.c:311:29
	ldr.w	r0, [r10]
	.loc	13 311 37 is_stmt 0             @ lvgl/src/lv_themes/lv_theme_material.c:311:37
	add.w	r4, r0, #20
	.loc	13 312 28 is_stmt 1             @ lvgl/src/lv_themes/lv_theme_material.c:312:28
	movs	r0, #0
	bl	lv_disp_get_size_category
	mov	r5, r0
	.loc	13 0 0 is_stmt 0                @ lvgl/src/lv_themes/lv_theme_material.c:0:0
	movs	r0, #0
	bl	lv_disp_get_dpi
	.loc	13 312 98                       @ lvgl/src/lv_themes/lv_theme_material.c:312:98
	add.w	r0, r0, r0, lsl #2
	.loc	13 312 28                       @ lvgl/src/lv_themes/lv_theme_material.c:312:28
	cmp	r5, #1
	bhi	.LBB1_93
@ %bb.91:
	.loc	13 312 85                       @ lvgl/src/lv_themes/lv_theme_material.c:312:85
	lsls	r0, r0, #2
	cmp	r0, #240
	blt	.LBB1_96
@ %bb.92:
	movs	r0, #0
	bl	lv_disp_get_dpi
	add.w	r0, r0, r0, lsl #2
	movs	r1, #80
	add.w	r0, r1, r0, lsl #2
	b	.LBB1_95
.LBB1_93:
	.loc	13 312 98                       @ lvgl/src/lv_themes/lv_theme_material.c:312:98
	lsls	r0, r0, #3
	cmp	r0, #240
	blt	.LBB1_96
@ %bb.94:
	movs	r0, #0
	bl	lv_disp_get_dpi
	add.w	r0, r0, r0, lsl #2
	movs	r1, #80
	add.w	r0, r1, r0, lsl #3
.LBB1_95:
	.loc	13 0 98                         @ lvgl/src/lv_themes/lv_theme_material.c:0:98
	movw	r1, #26215
	movt	r1, #26214
	smmul	r0, r0, r1
	asrs	r1, r0, #6
	add.w	r0, r1, r0, lsr #31
	b	.LBB1_97
.LBB1_96:
	movs	r0, #1
.LBB1_97:
	.loc	13 311 5 is_stmt 1              @ lvgl/src/lv_themes/lv_theme_material.c:311:5
	sxth	r1, r0
	mov	r0, r4
	bl	lv_style_set_pad_inner
	.loc	13 314 21                       @ lvgl/src/lv_themes/lv_theme_material.c:314:21
	ldr.w	r0, [r10]
	.loc	13 314 29 is_stmt 0             @ lvgl/src/lv_themes/lv_theme_material.c:314:29
	adds	r0, #24
	.loc	13 314 5                        @ lvgl/src/lv_themes/lv_theme_material.c:314:5
	bl	lv_style_reset
	.loc	13 315 38 is_stmt 1             @ lvgl/src/lv_themes/lv_theme_material.c:315:38
	movs	r0, #0
	bl	lv_disp_get_size_category
	mov	r4, r0
	.loc	13 0 0 is_stmt 0                @ lvgl/src/lv_themes/lv_theme_material.c:0:0
	movs	r0, #0
	bl	lv_disp_get_dpi
	.loc	13 315 108                      @ lvgl/src/lv_themes/lv_theme_material.c:315:108
	add.w	r0, r0, r0, lsl #2
	.loc	13 315 38                       @ lvgl/src/lv_themes/lv_theme_material.c:315:38
	cmp	r4, #1
	bhi	.LBB1_100
@ %bb.98:
	.loc	13 315 95                       @ lvgl/src/lv_themes/lv_theme_material.c:315:95
	lsls	r0, r0, #1
	cmp	r0, #240
	blt	.LBB1_102
@ %bb.99:
	movs	r0, #0
	bl	lv_disp_get_dpi
	add.w	r0, r0, r0, lsl #2
	movs	r1, #80
	add.w	r0, r1, r0, lsl #1
	movw	r1, #26215
	movt	r1, #26214
	smmul	r0, r0, r1
	asrs	r1, r0, #6
	add.w	r1, r1, r0, lsr #31
	b	.LBB1_104
.LBB1_100:
	.loc	13 315 108                      @ lvgl/src/lv_themes/lv_theme_material.c:315:108
	lsls	r0, r0, #2
	cmp	r0, #240
	blt	.LBB1_103
@ %bb.101:
	movs	r0, #0
	bl	lv_disp_get_dpi
	add.w	r0, r0, r0, lsl #2
	movs	r1, #80
	add.w	r0, r1, r0, lsl #2
	movw	r1, #26215
	movt	r1, #26214
	smmul	r0, r0, r1
	asrs	r1, r0, #6
	add.w	r1, r1, r0, lsr #31
	b	.LBB1_104
.LBB1_102:
	.loc	13 0 108                        @ lvgl/src/lv_themes/lv_theme_material.c:0:108
	movs	r1, #1
	b	.LBB1_104
.LBB1_103:
	movs	r1, #1
.LBB1_104:
.Ltmp13:
	@DEBUG_VALUE: basic_init:pad_small_value <- undef
	.loc	13 316 5 is_stmt 1              @ lvgl/src/lv_themes/lv_theme_material.c:316:5
	sxth	r4, r1
	.loc	13 316 28 is_stmt 0             @ lvgl/src/lv_themes/lv_theme_material.c:316:28
	ldr.w	r0, [r10]
	.loc	13 316 36                       @ lvgl/src/lv_themes/lv_theme_material.c:316:36
	adds	r0, #24
	.loc	13 316 5                        @ lvgl/src/lv_themes/lv_theme_material.c:316:5
	mov	r1, r4
	bl	lv_style_set_pad_left
	.loc	13 317 29 is_stmt 1             @ lvgl/src/lv_themes/lv_theme_material.c:317:29
	ldr.w	r0, [r10]
	.loc	13 317 5 is_stmt 0              @ lvgl/src/lv_themes/lv_theme_material.c:317:5
	mov	r1, r4
	.loc	13 317 37                       @ lvgl/src/lv_themes/lv_theme_material.c:317:37
	adds	r0, #24
	.loc	13 317 5                        @ lvgl/src/lv_themes/lv_theme_material.c:317:5
	bl	lv_style_set_pad_right
	.loc	13 318 27 is_stmt 1             @ lvgl/src/lv_themes/lv_theme_material.c:318:27
	ldr.w	r0, [r10]
	.loc	13 318 5 is_stmt 0              @ lvgl/src/lv_themes/lv_theme_material.c:318:5
	mov	r1, r4
	.loc	13 318 35                       @ lvgl/src/lv_themes/lv_theme_material.c:318:35
	adds	r0, #24
	.loc	13 318 5                        @ lvgl/src/lv_themes/lv_theme_material.c:318:5
	bl	lv_style_set_pad_top
	.loc	13 319 30 is_stmt 1             @ lvgl/src/lv_themes/lv_theme_material.c:319:30
	ldr.w	r0, [r10]
	.loc	13 319 5 is_stmt 0              @ lvgl/src/lv_themes/lv_theme_material.c:319:5
	mov	r1, r4
	.loc	13 319 38                       @ lvgl/src/lv_themes/lv_theme_material.c:319:38
	adds	r0, #24
	.loc	13 319 5                        @ lvgl/src/lv_themes/lv_theme_material.c:319:5
	bl	lv_style_set_pad_bottom
	.loc	13 320 29 is_stmt 1             @ lvgl/src/lv_themes/lv_theme_material.c:320:29
	ldr.w	r0, [r10]
	.loc	13 320 5 is_stmt 0              @ lvgl/src/lv_themes/lv_theme_material.c:320:5
	mov	r1, r4
	.loc	13 320 37                       @ lvgl/src/lv_themes/lv_theme_material.c:320:37
	adds	r0, #24
	.loc	13 320 5                        @ lvgl/src/lv_themes/lv_theme_material.c:320:5
	bl	lv_style_set_pad_inner
	.loc	13 321 1 is_stmt 1              @ lvgl/src/lv_themes/lv_theme_material.c:321:1
	add	sp, #4
	pop.w	{r4, r5, r6, r7, r8, r9, r10, r11, pc}
.Ltmp14:
.Lfunc_end1:
	.size	basic_init, .Lfunc_end1-basic_init
	.cfi_endproc
	.cantunwind
	.fnend
                                        @ -- End function
	.section	.text.bar_init,"ax",%progbits
	.p2align	3                               @ -- Begin function bar_init
	.type	bar_init,%function
	.code	16                              @ @bar_init
	.thumb_func
bar_init:
.Lfunc_begin2:
	.loc	13 345 0                        @ lvgl/src/lv_themes/lv_theme_material.c:345:0
	.fnstart
	.cfi_startproc
@ %bb.0:
	.save	{r4, r5, r6, r7, r8, r9, lr}
	push.w	{r4, r5, r6, r7, r8, r9, lr}
	.cfi_def_cfa_offset 28
	.cfi_offset lr, -4
	.cfi_offset r9, -8
	.cfi_offset r8, -12
	.cfi_offset r7, -16
	.cfi_offset r6, -20
	.cfi_offset r5, -24
	.cfi_offset r4, -28
	.pad	#4
	sub	sp, #4
	.cfi_def_cfa_offset 32
.Ltmp15:
	.loc	13 347 21 prologue_end          @ lvgl/src/lv_themes/lv_theme_material.c:347:21
	movw	r7, :lower16:styles
	movw	r9, #0
	movt	r7, :upper16:styles
	movw	r8, #16463
	movt	r9, #65535
	movt	r8, #49
	ldr	r0, [r7]
	.loc	13 347 29 is_stmt 0             @ lvgl/src/lv_themes/lv_theme_material.c:347:29
	adds	r0, #40
	.loc	13 347 5                        @ lvgl/src/lv_themes/lv_theme_material.c:347:5
	bl	lv_style_reset
	.loc	13 348 26 is_stmt 1             @ lvgl/src/lv_themes/lv_theme_material.c:348:26
	ldr	r0, [r7]
	.loc	13 348 5 is_stmt 0              @ lvgl/src/lv_themes/lv_theme_material.c:348:5
	movw	r1, #32767
	.loc	13 348 34                       @ lvgl/src/lv_themes/lv_theme_material.c:348:34
	adds	r0, #40
	.loc	13 348 5                        @ lvgl/src/lv_themes/lv_theme_material.c:348:5
	bl	lv_style_set_radius
	.loc	13 349 26 is_stmt 1             @ lvgl/src/lv_themes/lv_theme_material.c:349:26
	ldr	r0, [r7]
	.loc	13 349 5 is_stmt 0              @ lvgl/src/lv_themes/lv_theme_material.c:349:5
	movs	r1, #0
	.loc	13 349 34                       @ lvgl/src/lv_themes/lv_theme_material.c:349:34
	adds	r0, #40
	.loc	13 349 5                        @ lvgl/src/lv_themes/lv_theme_material.c:349:5
	movs	r2, #255
	movs	r6, #255
	bl	lv_style_set_bg_opa
	.loc	13 350 62 is_stmt 1             @ lvgl/src/lv_themes/lv_theme_material.c:350:62
	movw	r4, :lower16:theme
	.loc	13 350 28 is_stmt 0             @ lvgl/src/lv_themes/lv_theme_material.c:350:28
	ldr	r1, [r7]
	.loc	13 350 62                       @ lvgl/src/lv_themes/lv_theme_material.c:350:62
	movt	r4, :upper16:theme
	.loc	13 350 36                       @ lvgl/src/lv_themes/lv_theme_material.c:350:36
	add.w	r5, r1, #40
	.loc	13 350 62                       @ lvgl/src/lv_themes/lv_theme_material.c:350:62
	ldr	r0, [r4, #36]
	lsls	r0, r0, #30
	movw	r0, #55257
	movt	r0, #212
	itt	pl
	movwpl	r0, #18765
	movtpl	r0, #69
	bl	lv_color_hex
	mov	r2, r0
	.loc	13 350 5                        @ lvgl/src/lv_themes/lv_theme_material.c:350:5
	movs	r1, #0
	mov	r0, r5
	bl	lv_style_set_bg_color
	.loc	13 351 65 is_stmt 1             @ lvgl/src/lv_themes/lv_theme_material.c:351:65
	ldrb.w	r0, [r4, #36]
	.loc	13 351 31 is_stmt 0             @ lvgl/src/lv_themes/lv_theme_material.c:351:31
	ldr	r1, [r7]
	.loc	13 351 39                       @ lvgl/src/lv_themes/lv_theme_material.c:351:39
	add.w	r5, r1, #40
	.loc	13 351 65                       @ lvgl/src/lv_themes/lv_theme_material.c:351:65
	lsls	r0, r0, #30
	bmi	.LBB2_2
@ %bb.1:
	.loc	13 0 65                         @ lvgl/src/lv_themes/lv_theme_material.c:0:65
	mov.w	r2, #65280
	mov	r1, r9
	b	.LBB2_3
.LBB2_2:
	.loc	13 351 76                       @ lvgl/src/lv_themes/lv_theme_material.c:351:76
	mov	r0, r8
	bl	lv_color_hex
	.loc	13 351 65                       @ lvgl/src/lv_themes/lv_theme_material.c:351:65
	and	r1, r0, #16711680
	and	r2, r0, #65280
	uxtb	r6, r0
	add.w	r1, r1, #-16777216
.LBB2_3:
	.loc	13 351 5                        @ lvgl/src/lv_themes/lv_theme_material.c:351:5
	orr.w	r0, r2, r1
	movs	r1, #0
	orr.w	r2, r0, r6
	mov	r0, r5
	movs	r6, #0
	bl	lv_style_set_value_color
	.loc	13 352 33 is_stmt 1             @ lvgl/src/lv_themes/lv_theme_material.c:352:33
	ldr	r0, [r7]
	.loc	13 352 5 is_stmt 0              @ lvgl/src/lv_themes/lv_theme_material.c:352:5
	ldr	r2, [r4, #12]
	.loc	13 352 41                       @ lvgl/src/lv_themes/lv_theme_material.c:352:41
	adds	r0, #40
	.loc	13 352 5                        @ lvgl/src/lv_themes/lv_theme_material.c:352:5
	movs	r1, #0
	bl	lv_style_set_outline_color
	.loc	13 353 33 is_stmt 1             @ lvgl/src/lv_themes/lv_theme_material.c:353:33
	ldr	r0, [r7]
	.loc	13 353 5 is_stmt 0              @ lvgl/src/lv_themes/lv_theme_material.c:353:5
	ldr	r2, [r4, #16]
	.loc	13 353 41                       @ lvgl/src/lv_themes/lv_theme_material.c:353:41
	adds	r0, #40
	.loc	13 353 5                        @ lvgl/src/lv_themes/lv_theme_material.c:353:5
	movs	r1, #4
	bl	lv_style_set_outline_color
	.loc	13 354 31 is_stmt 1             @ lvgl/src/lv_themes/lv_theme_material.c:354:31
	ldr	r0, [r7]
	.loc	13 354 5 is_stmt 0              @ lvgl/src/lv_themes/lv_theme_material.c:354:5
	movs	r1, #0
	.loc	13 354 39                       @ lvgl/src/lv_themes/lv_theme_material.c:354:39
	adds	r0, #40
	.loc	13 354 5                        @ lvgl/src/lv_themes/lv_theme_material.c:354:5
	movs	r2, #0
	bl	lv_style_set_outline_opa
	.loc	13 355 31 is_stmt 1             @ lvgl/src/lv_themes/lv_theme_material.c:355:31
	ldr	r0, [r7]
	.loc	13 355 5 is_stmt 0              @ lvgl/src/lv_themes/lv_theme_material.c:355:5
	movs	r1, #2
	.loc	13 355 39                       @ lvgl/src/lv_themes/lv_theme_material.c:355:39
	adds	r0, #40
	.loc	13 355 5                        @ lvgl/src/lv_themes/lv_theme_material.c:355:5
	movs	r2, #127
	bl	lv_style_set_outline_opa
	.loc	13 356 67 is_stmt 1             @ lvgl/src/lv_themes/lv_theme_material.c:356:67
	ldrb.w	r0, [r4, #36]
	.loc	13 356 33 is_stmt 0             @ lvgl/src/lv_themes/lv_theme_material.c:356:33
	ldr	r1, [r7]
	.loc	13 356 41                       @ lvgl/src/lv_themes/lv_theme_material.c:356:41
	add.w	r5, r1, #40
	.loc	13 356 67                       @ lvgl/src/lv_themes/lv_theme_material.c:356:67
	lsls	r0, r0, #26
	bmi	.LBB2_7
@ %bb.4:
	movs	r0, #0
	bl	lv_disp_get_dpi
	cmp	r0, #120
	blt	.LBB2_6
@ %bb.5:
	movs	r0, #0
	bl	lv_disp_get_dpi
	movs	r1, #80
	add.w	r0, r1, r0, lsl #1
	movw	r1, #26215
	movt	r1, #26214
	smmul	r0, r0, r1
	asrs	r1, r0, #6
	add.w	r6, r1, r0, lsr #31
	b	.LBB2_7
.LBB2_6:
	.loc	13 0 67                         @ lvgl/src/lv_themes/lv_theme_material.c:0:67
	movs	r6, #1
.LBB2_7:
	.loc	13 356 5                        @ lvgl/src/lv_themes/lv_theme_material.c:356:5
	sxth	r2, r6
	movs	r1, #0
	mov	r0, r5
	bl	lv_style_set_outline_width
	.loc	13 357 35 is_stmt 1             @ lvgl/src/lv_themes/lv_theme_material.c:357:35
	ldr	r0, [r7]
	.loc	13 357 43 is_stmt 0             @ lvgl/src/lv_themes/lv_theme_material.c:357:43
	adds	r0, #40
	.loc	13 357 5                        @ lvgl/src/lv_themes/lv_theme_material.c:357:5
	bl	lv_style_set_transition_time
	.loc	13 358 37 is_stmt 1             @ lvgl/src/lv_themes/lv_theme_material.c:358:37
	ldr	r0, [r7]
	.loc	13 358 5 is_stmt 0              @ lvgl/src/lv_themes/lv_theme_material.c:358:5
	movs	r1, #76
	.loc	13 358 45                       @ lvgl/src/lv_themes/lv_theme_material.c:358:45
	adds	r0, #40
	.loc	13 358 5                        @ lvgl/src/lv_themes/lv_theme_material.c:358:5
	bl	lv_style_set_transition_prop_6
	.loc	13 360 21 is_stmt 1             @ lvgl/src/lv_themes/lv_theme_material.c:360:21
	ldr	r0, [r7]
	.loc	13 360 29 is_stmt 0             @ lvgl/src/lv_themes/lv_theme_material.c:360:29
	adds	r0, #44
	.loc	13 360 5                        @ lvgl/src/lv_themes/lv_theme_material.c:360:5
	bl	lv_style_reset
	.loc	13 361 26 is_stmt 1             @ lvgl/src/lv_themes/lv_theme_material.c:361:26
	ldr	r0, [r7]
	.loc	13 361 5 is_stmt 0              @ lvgl/src/lv_themes/lv_theme_material.c:361:5
	movs	r1, #0
	.loc	13 361 34                       @ lvgl/src/lv_themes/lv_theme_material.c:361:34
	adds	r0, #44
	.loc	13 361 5                        @ lvgl/src/lv_themes/lv_theme_material.c:361:5
	movs	r2, #255
	movs	r6, #255
	bl	lv_style_set_bg_opa
	.loc	13 362 26 is_stmt 1             @ lvgl/src/lv_themes/lv_theme_material.c:362:26
	ldr	r0, [r7]
	.loc	13 362 5 is_stmt 0              @ lvgl/src/lv_themes/lv_theme_material.c:362:5
	movw	r1, #32767
	.loc	13 362 34                       @ lvgl/src/lv_themes/lv_theme_material.c:362:34
	adds	r0, #44
	.loc	13 362 5                        @ lvgl/src/lv_themes/lv_theme_material.c:362:5
	bl	lv_style_set_radius
	.loc	13 363 28 is_stmt 1             @ lvgl/src/lv_themes/lv_theme_material.c:363:28
	ldr	r0, [r7]
	.loc	13 363 5 is_stmt 0              @ lvgl/src/lv_themes/lv_theme_material.c:363:5
	ldr	r2, [r4, #12]
	.loc	13 363 36                       @ lvgl/src/lv_themes/lv_theme_material.c:363:36
	adds	r0, #44
	.loc	13 363 5                        @ lvgl/src/lv_themes/lv_theme_material.c:363:5
	movs	r1, #0
	bl	lv_style_set_bg_color
	.loc	13 364 28 is_stmt 1             @ lvgl/src/lv_themes/lv_theme_material.c:364:28
	ldr	r0, [r7]
	.loc	13 364 36 is_stmt 0             @ lvgl/src/lv_themes/lv_theme_material.c:364:36
	add.w	r5, r0, #44
	.loc	13 364 66                       @ lvgl/src/lv_themes/lv_theme_material.c:364:66
	movw	r0, #2184
	bl	lv_color_hex3
	mov	r2, r0
	.loc	13 364 5                        @ lvgl/src/lv_themes/lv_theme_material.c:364:5
	movs	r1, #32
	mov	r0, r5
	bl	lv_style_set_bg_color
	.loc	13 365 68 is_stmt 1             @ lvgl/src/lv_themes/lv_theme_material.c:365:68
	ldrb.w	r0, [r4, #36]
	.loc	13 365 31 is_stmt 0             @ lvgl/src/lv_themes/lv_theme_material.c:365:31
	ldr	r4, [r7]
	.loc	13 365 68                       @ lvgl/src/lv_themes/lv_theme_material.c:365:68
	lsls	r0, r0, #30
	bmi	.LBB2_9
@ %bb.8:
	.loc	13 0 68                         @ lvgl/src/lv_themes/lv_theme_material.c:0:68
	mov.w	r1, #65280
	b	.LBB2_10
.LBB2_9:
	.loc	13 365 79                       @ lvgl/src/lv_themes/lv_theme_material.c:365:79
	add.w	r0, r8, #1048576
	bl	lv_color_hex
	.loc	13 365 68                       @ lvgl/src/lv_themes/lv_theme_material.c:365:68
	uxtb	r6, r0
	and	r1, r0, #16711680
	add.w	r9, r1, #-16777216
	and	r1, r0, #65280
.LBB2_10:
	.loc	13 365 5                        @ lvgl/src/lv_themes/lv_theme_material.c:365:5
	orr.w	r1, r1, r9
	.loc	13 365 39                       @ lvgl/src/lv_themes/lv_theme_material.c:365:39
	add.w	r0, r4, #44
	.loc	13 365 5                        @ lvgl/src/lv_themes/lv_theme_material.c:365:5
	orr.w	r2, r1, r6
	movs	r1, #0
	bl	lv_style_set_value_color
	.loc	13 367 1 is_stmt 1              @ lvgl/src/lv_themes/lv_theme_material.c:367:1
	add	sp, #4
	pop.w	{r4, r5, r6, r7, r8, r9, pc}
.Ltmp16:
.Lfunc_end2:
	.size	bar_init, .Lfunc_end2-bar_init
	.cfi_endproc
	.cantunwind
	.fnend
                                        @ -- End function
	.section	.text.led_init,"ax",%progbits
	.p2align	3                               @ -- Begin function led_init
	.type	led_init,%function
	.code	16                              @ @led_init
	.thumb_func
led_init:
.Lfunc_begin3:
	.loc	13 384 0                        @ lvgl/src/lv_themes/lv_theme_material.c:384:0
	.fnstart
	.cfi_startproc
@ %bb.0:
	.save	{r4, r5, r6, r7, lr}
	push	{r4, r5, r6, r7, lr}
	.cfi_def_cfa_offset 20
	.cfi_offset lr, -4
	.cfi_offset r7, -8
	.cfi_offset r6, -12
	.cfi_offset r5, -16
	.cfi_offset r4, -20
	.pad	#4
	sub	sp, #4
	.cfi_def_cfa_offset 24
.Ltmp17:
	.loc	13 386 21 prologue_end          @ lvgl/src/lv_themes/lv_theme_material.c:386:21
	movw	r5, :lower16:styles
	movt	r5, :upper16:styles
	ldr	r0, [r5]
	.loc	13 386 29 is_stmt 0             @ lvgl/src/lv_themes/lv_theme_material.c:386:29
	adds	r0, #112
	.loc	13 386 5                        @ lvgl/src/lv_themes/lv_theme_material.c:386:5
	bl	lv_style_reset
	.loc	13 387 26 is_stmt 1             @ lvgl/src/lv_themes/lv_theme_material.c:387:26
	ldr	r0, [r5]
	.loc	13 387 5 is_stmt 0              @ lvgl/src/lv_themes/lv_theme_material.c:387:5
	movs	r1, #0
	.loc	13 387 34                       @ lvgl/src/lv_themes/lv_theme_material.c:387:34
	adds	r0, #112
	.loc	13 387 5                        @ lvgl/src/lv_themes/lv_theme_material.c:387:5
	movs	r2, #255
	bl	lv_style_set_bg_opa
	.loc	13 388 5 is_stmt 1              @ lvgl/src/lv_themes/lv_theme_material.c:388:5
	movw	r6, :lower16:theme
	.loc	13 388 28 is_stmt 0             @ lvgl/src/lv_themes/lv_theme_material.c:388:28
	ldr	r0, [r5]
	.loc	13 388 5                        @ lvgl/src/lv_themes/lv_theme_material.c:388:5
	movt	r6, :upper16:theme
	.loc	13 388 36                       @ lvgl/src/lv_themes/lv_theme_material.c:388:36
	adds	r0, #112
	.loc	13 388 5                        @ lvgl/src/lv_themes/lv_theme_material.c:388:5
	movs	r1, #0
	ldr	r2, [r6, #12]
	bl	lv_style_set_bg_color
	.loc	13 389 32 is_stmt 1             @ lvgl/src/lv_themes/lv_theme_material.c:389:32
	ldr	r0, [r5]
	.loc	13 389 5 is_stmt 0              @ lvgl/src/lv_themes/lv_theme_material.c:389:5
	movs	r1, #0
	.loc	13 389 40                       @ lvgl/src/lv_themes/lv_theme_material.c:389:40
	adds	r0, #112
	.loc	13 389 5                        @ lvgl/src/lv_themes/lv_theme_material.c:389:5
	movs	r2, #2
	bl	lv_style_set_border_width
	.loc	13 390 30 is_stmt 1             @ lvgl/src/lv_themes/lv_theme_material.c:390:30
	ldr	r0, [r5]
	.loc	13 390 5 is_stmt 0              @ lvgl/src/lv_themes/lv_theme_material.c:390:5
	movs	r1, #0
	.loc	13 390 38                       @ lvgl/src/lv_themes/lv_theme_material.c:390:38
	adds	r0, #112
	.loc	13 390 5                        @ lvgl/src/lv_themes/lv_theme_material.c:390:5
	movs	r2, #127
	bl	lv_style_set_border_opa
	.loc	13 391 32 is_stmt 1             @ lvgl/src/lv_themes/lv_theme_material.c:391:32
	ldr	r0, [r5]
	.loc	13 391 63 is_stmt 0             @ lvgl/src/lv_themes/lv_theme_material.c:391:63
	movs	r1, #76
	.loc	13 391 40                       @ lvgl/src/lv_themes/lv_theme_material.c:391:40
	add.w	r4, r0, #112
	.loc	13 391 63                       @ lvgl/src/lv_themes/lv_theme_material.c:391:63
	ldr	r0, [r6, #12]
	bl	lv_color_lighten
	mov	r2, r0
	.loc	13 391 5                        @ lvgl/src/lv_themes/lv_theme_material.c:391:5
	movs	r1, #0
	mov	r0, r4
	bl	lv_style_set_border_color
	.loc	13 392 26 is_stmt 1             @ lvgl/src/lv_themes/lv_theme_material.c:392:26
	ldr	r0, [r5]
	.loc	13 392 5 is_stmt 0              @ lvgl/src/lv_themes/lv_theme_material.c:392:5
	movw	r1, #32767
	.loc	13 392 34                       @ lvgl/src/lv_themes/lv_theme_material.c:392:34
	adds	r0, #112
	.loc	13 392 5                        @ lvgl/src/lv_themes/lv_theme_material.c:392:5
	bl	lv_style_set_radius
	.loc	13 393 32 is_stmt 1             @ lvgl/src/lv_themes/lv_theme_material.c:393:32
	ldr	r0, [r5]
	.loc	13 393 40 is_stmt 0             @ lvgl/src/lv_themes/lv_theme_material.c:393:40
	add.w	r4, r0, #112
	.loc	13 393 63                       @ lvgl/src/lv_themes/lv_theme_material.c:393:63
	movs	r0, #0
	bl	lv_disp_get_dpi
	rsb	r0, r0, r0, lsl #4
	movw	r7, #26215
	cmp	r0, #240
	movt	r7, #26214
	blt	.LBB3_2
@ %bb.1:
	movs	r0, #0
	bl	lv_disp_get_dpi
	rsb	r0, r0, r0, lsl #4
	adds	r0, #80
	smmul	r0, r0, r7
	asrs	r1, r0, #6
	add.w	r0, r1, r0, lsr #31
	b	.LBB3_3
.LBB3_2:
	.loc	13 0 63                         @ lvgl/src/lv_themes/lv_theme_material.c:0:63
	movs	r0, #1
.LBB3_3:
	.loc	13 393 5                        @ lvgl/src/lv_themes/lv_theme_material.c:393:5
	sxth	r1, r0
	mov	r0, r4
	bl	lv_style_set_shadow_width
	.loc	13 394 32 is_stmt 1             @ lvgl/src/lv_themes/lv_theme_material.c:394:32
	ldr	r0, [r5]
	.loc	13 394 5 is_stmt 0              @ lvgl/src/lv_themes/lv_theme_material.c:394:5
	ldr	r1, [r6, #12]
	.loc	13 394 40                       @ lvgl/src/lv_themes/lv_theme_material.c:394:40
	adds	r0, #112
	.loc	13 394 5                        @ lvgl/src/lv_themes/lv_theme_material.c:394:5
	bl	lv_style_set_shadow_color
	.loc	13 395 64 is_stmt 1             @ lvgl/src/lv_themes/lv_theme_material.c:395:64
	movs	r0, #0
	.loc	13 395 33 is_stmt 0             @ lvgl/src/lv_themes/lv_theme_material.c:395:33
	ldr	r4, [r5]
	.loc	13 395 64                       @ lvgl/src/lv_themes/lv_theme_material.c:395:64
	bl	lv_disp_get_dpi
	add.w	r0, r0, r0, lsl #2
	cmp	r0, #240
	blt	.LBB3_5
@ %bb.4:
	movs	r0, #0
	bl	lv_disp_get_dpi
	add.w	r0, r0, r0, lsl #2
	adds	r0, #80
	smmul	r0, r0, r7
	asrs	r1, r0, #6
	add.w	r1, r1, r0, lsr #31
	b	.LBB3_6
.LBB3_5:
	.loc	13 0 64                         @ lvgl/src/lv_themes/lv_theme_material.c:0:64
	movs	r1, #1
.LBB3_6:
	.loc	13 395 5                        @ lvgl/src/lv_themes/lv_theme_material.c:395:5
	sxth	r1, r1
	.loc	13 395 41                       @ lvgl/src/lv_themes/lv_theme_material.c:395:41
	add.w	r0, r4, #112
	.loc	13 395 5                        @ lvgl/src/lv_themes/lv_theme_material.c:395:5
	bl	lv_style_set_shadow_spread
	.loc	13 397 1 is_stmt 1              @ lvgl/src/lv_themes/lv_theme_material.c:397:1
	add	sp, #4
	pop	{r4, r5, r6, r7, pc}
.Ltmp18:
.Lfunc_end3:
	.size	led_init, .Lfunc_end3-led_init
	.cfi_endproc
	.cantunwind
	.fnend
                                        @ -- End function
	.section	.text.slider_init,"ax",%progbits
	.p2align	3                               @ -- Begin function slider_init
	.type	slider_init,%function
	.code	16                              @ @slider_init
	.thumb_func
slider_init:
.Lfunc_begin4:
	.loc	13 400 0                        @ lvgl/src/lv_themes/lv_theme_material.c:400:0
	.fnstart
	.cfi_startproc
@ %bb.0:
	.save	{r4, r5, r6, r7, lr}
	push	{r4, r5, r6, r7, lr}
	.cfi_def_cfa_offset 20
	.cfi_offset lr, -4
	.cfi_offset r7, -8
	.cfi_offset r6, -12
	.cfi_offset r5, -16
	.cfi_offset r4, -20
	.pad	#4
	sub	sp, #4
	.cfi_def_cfa_offset 24
.Ltmp19:
	.loc	13 402 21 prologue_end          @ lvgl/src/lv_themes/lv_theme_material.c:402:21
	movw	r7, :lower16:styles
	movt	r7, :upper16:styles
	ldr	r0, [r7]
	.loc	13 402 29 is_stmt 0             @ lvgl/src/lv_themes/lv_theme_material.c:402:29
	adds	r0, #148
	.loc	13 402 5                        @ lvgl/src/lv_themes/lv_theme_material.c:402:5
	bl	lv_style_reset
	.loc	13 403 26 is_stmt 1             @ lvgl/src/lv_themes/lv_theme_material.c:403:26
	ldr	r0, [r7]
	.loc	13 403 5 is_stmt 0              @ lvgl/src/lv_themes/lv_theme_material.c:403:5
	movs	r1, #0
	.loc	13 403 34                       @ lvgl/src/lv_themes/lv_theme_material.c:403:34
	adds	r0, #148
	.loc	13 403 5                        @ lvgl/src/lv_themes/lv_theme_material.c:403:5
	movs	r2, #255
	movs	r6, #255
	bl	lv_style_set_bg_opa
	.loc	13 404 67 is_stmt 1             @ lvgl/src/lv_themes/lv_theme_material.c:404:67
	movw	r4, :lower16:theme
	.loc	13 404 28 is_stmt 0             @ lvgl/src/lv_themes/lv_theme_material.c:404:28
	ldr	r1, [r7]
	.loc	13 404 67                       @ lvgl/src/lv_themes/lv_theme_material.c:404:67
	movt	r4, :upper16:theme
	ldrb.w	r0, [r4, #36]
	lsls	r0, r0, #30
	.loc	13 404 36                       @ lvgl/src/lv_themes/lv_theme_material.c:404:36
	add.w	r0, r1, #148
	.loc	13 404 67                       @ lvgl/src/lv_themes/lv_theme_material.c:404:67
	bmi	.LBB4_2
@ %bb.1:
	.loc	13 0 67                         @ lvgl/src/lv_themes/lv_theme_material.c:0:67
	mov.w	r1, #65280
	mov.w	r3, #16711680
	mov.w	r2, #-16777216
	b	.LBB4_3
.LBB4_2:
	.loc	13 404 67                       @ lvgl/src/lv_themes/lv_theme_material.c:404:67
	ldrb	r1, [r4, #15]
	.loc	13 404 84                       @ lvgl/src/lv_themes/lv_theme_material.c:404:84
	ldrb	r3, [r4, #14]
	ldrb	r5, [r4, #13]
	.loc	13 404 67                       @ lvgl/src/lv_themes/lv_theme_material.c:404:67
	lsls	r2, r1, #24
	.loc	13 404 84                       @ lvgl/src/lv_themes/lv_theme_material.c:404:84
	ldrb	r6, [r4, #12]
	.loc	13 404 67                       @ lvgl/src/lv_themes/lv_theme_material.c:404:67
	lsls	r3, r3, #16
	lsls	r1, r5, #8
.LBB4_3:
	.loc	13 404 5                        @ lvgl/src/lv_themes/lv_theme_material.c:404:5
	orrs	r2, r3
	orrs	r1, r2
	orr.w	r2, r1, r6
	movs	r1, #0
	bl	lv_style_set_bg_color
	.loc	13 405 70 is_stmt 1             @ lvgl/src/lv_themes/lv_theme_material.c:405:70
	ldrb.w	r0, [r4, #36]
	.loc	13 405 31 is_stmt 0             @ lvgl/src/lv_themes/lv_theme_material.c:405:31
	ldr	r1, [r7]
	.loc	13 405 39                       @ lvgl/src/lv_themes/lv_theme_material.c:405:39
	add.w	r4, r1, #148
	.loc	13 405 70                       @ lvgl/src/lv_themes/lv_theme_material.c:405:70
	lsls	r0, r0, #30
	bmi	.LBB4_5
@ %bb.4:
	.loc	13 0 70                         @ lvgl/src/lv_themes/lv_theme_material.c:0:70
	movs	r1, #0
	movs	r0, #255
	mov.w	r2, #65280
	movt	r1, #65535
	b	.LBB4_6
.LBB4_5:
	movw	r0, #16463
	movt	r0, #49
	.loc	13 405 81                       @ lvgl/src/lv_themes/lv_theme_material.c:405:81
	bl	lv_color_hex
	.loc	13 405 70                       @ lvgl/src/lv_themes/lv_theme_material.c:405:70
	and	r1, r0, #16711680
	and	r2, r0, #65280
	uxtb	r0, r0
	add.w	r1, r1, #-16777216
.LBB4_6:
	.loc	13 405 5                        @ lvgl/src/lv_themes/lv_theme_material.c:405:5
	orrs	r1, r2
	orr.w	r2, r1, r0
	movs	r1, #0
	mov	r0, r4
	bl	lv_style_set_value_color
	.loc	13 406 26 is_stmt 1             @ lvgl/src/lv_themes/lv_theme_material.c:406:26
	ldr	r0, [r7]
	.loc	13 406 5 is_stmt 0              @ lvgl/src/lv_themes/lv_theme_material.c:406:5
	movw	r1, #32767
	.loc	13 406 34                       @ lvgl/src/lv_themes/lv_theme_material.c:406:34
	adds	r0, #148
	.loc	13 406 5                        @ lvgl/src/lv_themes/lv_theme_material.c:406:5
	bl	lv_style_set_radius
	.loc	13 407 28 is_stmt 1             @ lvgl/src/lv_themes/lv_theme_material.c:407:28
	ldr	r0, [r7]
	.loc	13 407 36 is_stmt 0             @ lvgl/src/lv_themes/lv_theme_material.c:407:36
	add.w	r4, r0, #148
	.loc	13 407 67                       @ lvgl/src/lv_themes/lv_theme_material.c:407:67
	movs	r0, #0
	bl	lv_disp_get_dpi
	rsb	r0, r0, r0, lsl #3
	movw	r6, #26215
	cmp	r0, #240
	movt	r6, #26214
	blt	.LBB4_8
@ %bb.7:
	movs	r0, #0
	bl	lv_disp_get_dpi
	rsb	r0, r0, r0, lsl #3
	adds	r0, #80
	smmul	r0, r0, r6
	asrs	r1, r0, #6
	add.w	r0, r1, r0, lsr #31
	b	.LBB4_9
.LBB4_8:
	.loc	13 0 67                         @ lvgl/src/lv_themes/lv_theme_material.c:0:67
	movs	r0, #1
.LBB4_9:
	.loc	13 407 5                        @ lvgl/src/lv_themes/lv_theme_material.c:407:5
	sxth	r1, r0
	mov	r0, r4
	bl	lv_style_set_pad_left
	.loc	13 408 29 is_stmt 1             @ lvgl/src/lv_themes/lv_theme_material.c:408:29
	ldr	r0, [r7]
	.loc	13 408 37 is_stmt 0             @ lvgl/src/lv_themes/lv_theme_material.c:408:37
	add.w	r4, r0, #148
	.loc	13 408 68                       @ lvgl/src/lv_themes/lv_theme_material.c:408:68
	movs	r0, #0
	bl	lv_disp_get_dpi
	rsb	r0, r0, r0, lsl #3
	cmp	r0, #240
	blt	.LBB4_11
@ %bb.10:
	movs	r0, #0
	bl	lv_disp_get_dpi
	rsb	r0, r0, r0, lsl #3
	adds	r0, #80
	smmul	r0, r0, r6
	asrs	r1, r0, #6
	add.w	r0, r1, r0, lsr #31
	b	.LBB4_12
.LBB4_11:
	.loc	13 0 68                         @ lvgl/src/lv_themes/lv_theme_material.c:0:68
	movs	r0, #1
.LBB4_12:
	.loc	13 408 5                        @ lvgl/src/lv_themes/lv_theme_material.c:408:5
	sxth	r1, r0
	mov	r0, r4
	bl	lv_style_set_pad_right
	.loc	13 409 27 is_stmt 1             @ lvgl/src/lv_themes/lv_theme_material.c:409:27
	ldr	r0, [r7]
	.loc	13 409 35 is_stmt 0             @ lvgl/src/lv_themes/lv_theme_material.c:409:35
	add.w	r4, r0, #148
	.loc	13 409 66                       @ lvgl/src/lv_themes/lv_theme_material.c:409:66
	movs	r0, #0
	bl	lv_disp_get_dpi
	rsb	r0, r0, r0, lsl #3
	cmp	r0, #240
	blt	.LBB4_14
@ %bb.13:
	movs	r0, #0
	bl	lv_disp_get_dpi
	rsb	r0, r0, r0, lsl #3
	adds	r0, #80
	smmul	r0, r0, r6
	asrs	r1, r0, #6
	add.w	r0, r1, r0, lsr #31
	b	.LBB4_15
.LBB4_14:
	.loc	13 0 66                         @ lvgl/src/lv_themes/lv_theme_material.c:0:66
	movs	r0, #1
.LBB4_15:
	.loc	13 409 5                        @ lvgl/src/lv_themes/lv_theme_material.c:409:5
	sxth	r1, r0
	mov	r0, r4
	bl	lv_style_set_pad_top
	.loc	13 410 30 is_stmt 1             @ lvgl/src/lv_themes/lv_theme_material.c:410:30
	ldr	r0, [r7]
	.loc	13 410 38 is_stmt 0             @ lvgl/src/lv_themes/lv_theme_material.c:410:38
	add.w	r4, r0, #148
	.loc	13 410 69                       @ lvgl/src/lv_themes/lv_theme_material.c:410:69
	movs	r0, #0
	bl	lv_disp_get_dpi
	rsb	r0, r0, r0, lsl #3
	cmp	r0, #240
	blt	.LBB4_17
@ %bb.16:
	movs	r0, #0
	bl	lv_disp_get_dpi
	rsb	r0, r0, r0, lsl #3
	adds	r0, #80
	smmul	r0, r0, r6
	asrs	r1, r0, #6
	add.w	r0, r1, r0, lsr #31
	b	.LBB4_18
.LBB4_17:
	.loc	13 0 69                         @ lvgl/src/lv_themes/lv_theme_material.c:0:69
	movs	r0, #1
.LBB4_18:
	.loc	13 410 5                        @ lvgl/src/lv_themes/lv_theme_material.c:410:5
	sxth	r1, r0
	mov	r0, r4
	bl	lv_style_set_pad_bottom
	.loc	13 412 21 is_stmt 1             @ lvgl/src/lv_themes/lv_theme_material.c:412:21
	ldr	r0, [r7]
	.loc	13 412 29 is_stmt 0             @ lvgl/src/lv_themes/lv_theme_material.c:412:29
	adds	r0, #152
	.loc	13 412 5                        @ lvgl/src/lv_themes/lv_theme_material.c:412:5
	bl	lv_style_reset
	.loc	13 413 31 is_stmt 1             @ lvgl/src/lv_themes/lv_theme_material.c:413:31
	ldr	r0, [r7]
	.loc	13 413 39 is_stmt 0             @ lvgl/src/lv_themes/lv_theme_material.c:413:39
	add.w	r4, r0, #152
	.loc	13 413 68                       @ lvgl/src/lv_themes/lv_theme_material.c:413:68
	movs	r0, #0
	bl	lv_disp_get_dpi
	add.w	r0, r0, r0, lsl #2
	lsls	r0, r0, #1
	cmp	r0, #240
	blt	.LBB4_20
@ %bb.19:
	movs	r0, #0
	bl	lv_disp_get_dpi
	add.w	r0, r0, r0, lsl #2
	movs	r1, #80
	add.w	r0, r1, r0, lsl #1
	smmul	r0, r0, r6
	asrs	r1, r0, #6
	add.w	r0, r1, r0, lsr #31
	b	.LBB4_21
.LBB4_20:
	.loc	13 0 68                         @ lvgl/src/lv_themes/lv_theme_material.c:0:68
	movs	r0, #1
.LBB4_21:
	.loc	13 413 5                        @ lvgl/src/lv_themes/lv_theme_material.c:413:5
	sxth	r1, r0
	mov	r0, r4
	bl	lv_style_set_margin_left
	.loc	13 414 32 is_stmt 1             @ lvgl/src/lv_themes/lv_theme_material.c:414:32
	ldr	r0, [r7]
	.loc	13 414 40 is_stmt 0             @ lvgl/src/lv_themes/lv_theme_material.c:414:40
	add.w	r4, r0, #152
	.loc	13 414 69                       @ lvgl/src/lv_themes/lv_theme_material.c:414:69
	movs	r0, #0
	bl	lv_disp_get_dpi
	add.w	r0, r0, r0, lsl #2
	lsls	r0, r0, #1
	cmp	r0, #240
	blt	.LBB4_23
@ %bb.22:
	movs	r0, #0
	bl	lv_disp_get_dpi
	add.w	r0, r0, r0, lsl #2
	movs	r1, #80
	add.w	r0, r1, r0, lsl #1
	smmul	r0, r0, r6
	asrs	r1, r0, #6
	add.w	r0, r1, r0, lsr #31
	b	.LBB4_24
.LBB4_23:
	.loc	13 0 69                         @ lvgl/src/lv_themes/lv_theme_material.c:0:69
	movs	r0, #1
.LBB4_24:
	.loc	13 414 5                        @ lvgl/src/lv_themes/lv_theme_material.c:414:5
	sxth	r1, r0
	mov	r0, r4
	bl	lv_style_set_margin_right
	.loc	13 415 30 is_stmt 1             @ lvgl/src/lv_themes/lv_theme_material.c:415:30
	ldr	r0, [r7]
	.loc	13 415 38 is_stmt 0             @ lvgl/src/lv_themes/lv_theme_material.c:415:38
	add.w	r4, r0, #152
	.loc	13 415 67                       @ lvgl/src/lv_themes/lv_theme_material.c:415:67
	movs	r0, #0
	bl	lv_disp_get_dpi
	add.w	r0, r0, r0, lsl #2
	lsls	r0, r0, #1
	cmp	r0, #240
	blt	.LBB4_26
@ %bb.25:
	movs	r0, #0
	bl	lv_disp_get_dpi
	add.w	r0, r0, r0, lsl #2
	movs	r1, #80
	add.w	r0, r1, r0, lsl #1
	smmul	r0, r0, r6
	asrs	r1, r0, #6
	add.w	r0, r1, r0, lsr #31
	b	.LBB4_27
.LBB4_26:
	.loc	13 0 67                         @ lvgl/src/lv_themes/lv_theme_material.c:0:67
	movs	r0, #1
.LBB4_27:
	.loc	13 415 5                        @ lvgl/src/lv_themes/lv_theme_material.c:415:5
	sxth	r1, r0
	mov	r0, r4
	bl	lv_style_set_margin_top
	.loc	13 416 70 is_stmt 1             @ lvgl/src/lv_themes/lv_theme_material.c:416:70
	movs	r0, #0
	.loc	13 416 33 is_stmt 0             @ lvgl/src/lv_themes/lv_theme_material.c:416:33
	ldr	r4, [r7]
	.loc	13 416 70                       @ lvgl/src/lv_themes/lv_theme_material.c:416:70
	bl	lv_disp_get_dpi
	add.w	r0, r0, r0, lsl #2
	lsls	r0, r0, #1
	cmp	r0, #240
	blt	.LBB4_29
@ %bb.28:
	movs	r0, #0
	bl	lv_disp_get_dpi
	add.w	r0, r0, r0, lsl #2
	movs	r1, #80
	add.w	r0, r1, r0, lsl #1
	smmul	r0, r0, r6
	asrs	r1, r0, #6
	add.w	r1, r1, r0, lsr #31
	b	.LBB4_30
.LBB4_29:
	.loc	13 0 70                         @ lvgl/src/lv_themes/lv_theme_material.c:0:70
	movs	r1, #1
.LBB4_30:
	.loc	13 416 5                        @ lvgl/src/lv_themes/lv_theme_material.c:416:5
	sxth	r1, r1
	.loc	13 416 41                       @ lvgl/src/lv_themes/lv_theme_material.c:416:41
	add.w	r0, r4, #152
	.loc	13 416 5                        @ lvgl/src/lv_themes/lv_theme_material.c:416:5
	bl	lv_style_set_margin_bottom
	.loc	13 419 1 is_stmt 1              @ lvgl/src/lv_themes/lv_theme_material.c:419:1
	add	sp, #4
	pop	{r4, r5, r6, r7, pc}
.Ltmp20:
.Lfunc_end4:
	.size	slider_init, .Lfunc_end4-slider_init
	.cfi_endproc
	.cantunwind
	.fnend
                                        @ -- End function
	.section	.text.switch_init,"ax",%progbits
	.p2align	3                               @ -- Begin function switch_init
	.type	switch_init,%function
	.code	16                              @ @switch_init
	.thumb_func
switch_init:
.Lfunc_begin5:
	.loc	13 422 0                        @ lvgl/src/lv_themes/lv_theme_material.c:422:0
	.fnstart
	.cfi_startproc
@ %bb.0:
	.save	{r4, r5, r6, lr}
	push	{r4, r5, r6, lr}
	.cfi_def_cfa_offset 16
	.cfi_offset lr, -4
	.cfi_offset r6, -8
	.cfi_offset r5, -12
	.cfi_offset r4, -16
.Ltmp21:
	.loc	13 424 21 prologue_end          @ lvgl/src/lv_themes/lv_theme_material.c:424:21
	movw	r6, :lower16:styles
	movw	r5, #65535
	movt	r6, :upper16:styles
	ldr	r0, [r6]
	.loc	13 424 29 is_stmt 0             @ lvgl/src/lv_themes/lv_theme_material.c:424:29
	adds	r0, #160
	.loc	13 424 5                        @ lvgl/src/lv_themes/lv_theme_material.c:424:5
	bl	lv_style_reset
	.loc	13 425 26 is_stmt 1             @ lvgl/src/lv_themes/lv_theme_material.c:425:26
	ldr	r0, [r6]
	.loc	13 425 5 is_stmt 0              @ lvgl/src/lv_themes/lv_theme_material.c:425:5
	movs	r1, #0
	.loc	13 425 34                       @ lvgl/src/lv_themes/lv_theme_material.c:425:34
	adds	r0, #160
	.loc	13 425 5                        @ lvgl/src/lv_themes/lv_theme_material.c:425:5
	movs	r2, #255
	bl	lv_style_set_bg_opa
	.loc	13 426 28 is_stmt 1             @ lvgl/src/lv_themes/lv_theme_material.c:426:28
	ldr	r0, [r6]
	.loc	13 426 5 is_stmt 0              @ lvgl/src/lv_themes/lv_theme_material.c:426:5
	movs	r1, #0
	.loc	13 426 36                       @ lvgl/src/lv_themes/lv_theme_material.c:426:36
	adds	r0, #160
	.loc	13 426 5                        @ lvgl/src/lv_themes/lv_theme_material.c:426:5
	mov.w	r2, #-1
	bl	lv_style_set_bg_color
	.loc	13 427 26 is_stmt 1             @ lvgl/src/lv_themes/lv_theme_material.c:427:26
	ldr	r0, [r6]
	.loc	13 427 5 is_stmt 0              @ lvgl/src/lv_themes/lv_theme_material.c:427:5
	movw	r1, #32767
	.loc	13 427 34                       @ lvgl/src/lv_themes/lv_theme_material.c:427:34
	adds	r0, #160
	.loc	13 427 5                        @ lvgl/src/lv_themes/lv_theme_material.c:427:5
	bl	lv_style_set_radius
	.loc	13 428 27 is_stmt 1             @ lvgl/src/lv_themes/lv_theme_material.c:428:27
	ldr	r0, [r6]
	.loc	13 428 35 is_stmt 0             @ lvgl/src/lv_themes/lv_theme_material.c:428:35
	add.w	r4, r0, #160
	.loc	13 428 67                       @ lvgl/src/lv_themes/lv_theme_material.c:428:67
	movs	r0, #0
	bl	lv_disp_get_dpi
	cmp	r0, #60
	movw	r0, #65535
	blt	.LBB5_2
@ %bb.1:
	movs	r0, #0
	bl	lv_disp_get_dpi
	movs	r1, #80
	add.w	r0, r1, r0, lsl #2
	mov.w	r1, #-1717986919
	smmul	r0, r0, r1
	asrs	r1, r0, #6
	add.w	r0, r1, r0, lsr #31
.LBB5_2:
	.loc	13 428 5                        @ lvgl/src/lv_themes/lv_theme_material.c:428:5
	sxth	r1, r0
	mov	r0, r4
	bl	lv_style_set_pad_top
	.loc	13 429 30 is_stmt 1             @ lvgl/src/lv_themes/lv_theme_material.c:429:30
	ldr	r0, [r6]
	.loc	13 429 38 is_stmt 0             @ lvgl/src/lv_themes/lv_theme_material.c:429:38
	add.w	r4, r0, #160
	.loc	13 429 67                       @ lvgl/src/lv_themes/lv_theme_material.c:429:67
	movs	r0, #0
	bl	lv_disp_get_dpi
	cmp	r0, #60
	movw	r0, #65535
	blt	.LBB5_4
@ %bb.3:
	movs	r0, #0
	bl	lv_disp_get_dpi
	movs	r1, #80
	add.w	r0, r1, r0, lsl #2
	mov.w	r1, #-1717986919
	smmul	r0, r0, r1
	asrs	r1, r0, #6
	add.w	r0, r1, r0, lsr #31
.LBB5_4:
	.loc	13 429 5                        @ lvgl/src/lv_themes/lv_theme_material.c:429:5
	sxth	r1, r0
	mov	r0, r4
	bl	lv_style_set_pad_bottom
	.loc	13 430 28 is_stmt 1             @ lvgl/src/lv_themes/lv_theme_material.c:430:28
	ldr	r0, [r6]
	.loc	13 430 36 is_stmt 0             @ lvgl/src/lv_themes/lv_theme_material.c:430:36
	add.w	r4, r0, #160
	.loc	13 430 67                       @ lvgl/src/lv_themes/lv_theme_material.c:430:67
	movs	r0, #0
	bl	lv_disp_get_dpi
	cmp	r0, #60
	movw	r0, #65535
	blt	.LBB5_6
@ %bb.5:
	movs	r0, #0
	bl	lv_disp_get_dpi
	movs	r1, #80
	add.w	r0, r1, r0, lsl #2
	mov.w	r1, #-1717986919
	smmul	r0, r0, r1
	asrs	r1, r0, #6
	add.w	r0, r1, r0, lsr #31
.LBB5_6:
	.loc	13 430 5                        @ lvgl/src/lv_themes/lv_theme_material.c:430:5
	sxth	r1, r0
	mov	r0, r4
	bl	lv_style_set_pad_left
	.loc	13 431 67 is_stmt 1             @ lvgl/src/lv_themes/lv_theme_material.c:431:67
	movs	r0, #0
	.loc	13 431 29 is_stmt 0             @ lvgl/src/lv_themes/lv_theme_material.c:431:29
	ldr	r4, [r6]
	.loc	13 431 67                       @ lvgl/src/lv_themes/lv_theme_material.c:431:67
	bl	lv_disp_get_dpi
	cmp	r0, #60
	blt	.LBB5_8
@ %bb.7:
	movs	r0, #0
	bl	lv_disp_get_dpi
	movs	r1, #80
	add.w	r0, r1, r0, lsl #2
	mov.w	r1, #-1717986919
	smmul	r0, r0, r1
	asrs	r1, r0, #6
	add.w	r5, r1, r0, lsr #31
.LBB5_8:
	.loc	13 431 5                        @ lvgl/src/lv_themes/lv_theme_material.c:431:5
	sxth	r1, r5
	.loc	13 431 37                       @ lvgl/src/lv_themes/lv_theme_material.c:431:37
	add.w	r0, r4, #160
	.loc	13 431 5                        @ lvgl/src/lv_themes/lv_theme_material.c:431:5
	bl	lv_style_set_pad_right
	.loc	13 433 1 is_stmt 1              @ lvgl/src/lv_themes/lv_theme_material.c:433:1
	pop	{r4, r5, r6, pc}
.Ltmp22:
.Lfunc_end5:
	.size	switch_init, .Lfunc_end5-switch_init
	.cfi_endproc
	.cantunwind
	.fnend
                                        @ -- End function
	.section	.text.linemeter_init,"ax",%progbits
	.p2align	3                               @ -- Begin function linemeter_init
	.type	linemeter_init,%function
	.code	16                              @ @linemeter_init
	.thumb_func
linemeter_init:
.Lfunc_begin6:
	.loc	13 436 0                        @ lvgl/src/lv_themes/lv_theme_material.c:436:0
	.fnstart
	.cfi_startproc
@ %bb.0:
	.save	{r4, r5, r6, r7, lr}
	push	{r4, r5, r6, r7, lr}
	.cfi_def_cfa_offset 20
	.cfi_offset lr, -4
	.cfi_offset r7, -8
	.cfi_offset r6, -12
	.cfi_offset r5, -16
	.cfi_offset r4, -20
	.pad	#4
	sub	sp, #4
	.cfi_def_cfa_offset 24
.Ltmp23:
	.loc	13 438 21 prologue_end          @ lvgl/src/lv_themes/lv_theme_material.c:438:21
	movw	r5, :lower16:styles
	movt	r5, :upper16:styles
	ldr	r0, [r5]
	.loc	13 438 29 is_stmt 0             @ lvgl/src/lv_themes/lv_theme_material.c:438:29
	adds	r0, #116
	.loc	13 438 5                        @ lvgl/src/lv_themes/lv_theme_material.c:438:5
	bl	lv_style_reset
	.loc	13 439 26 is_stmt 1             @ lvgl/src/lv_themes/lv_theme_material.c:439:26
	ldr	r0, [r5]
	.loc	13 439 5 is_stmt 0              @ lvgl/src/lv_themes/lv_theme_material.c:439:5
	movw	r1, #32767
	.loc	13 439 34                       @ lvgl/src/lv_themes/lv_theme_material.c:439:34
	adds	r0, #116
	.loc	13 439 5                        @ lvgl/src/lv_themes/lv_theme_material.c:439:5
	bl	lv_style_set_radius
	.loc	13 440 28 is_stmt 1             @ lvgl/src/lv_themes/lv_theme_material.c:440:28
	ldr	r0, [r5]
	.loc	13 440 36 is_stmt 0             @ lvgl/src/lv_themes/lv_theme_material.c:440:36
	add.w	r4, r0, #116
	.loc	13 440 62                       @ lvgl/src/lv_themes/lv_theme_material.c:440:62
	movs	r0, #0
	bl	lv_disp_get_dpi
	add.w	r0, r0, r0, lsl #2
	movw	r6, #26215
	lsls	r0, r0, #2
	movt	r6, #26214
	cmp	r0, #240
	blt	.LBB6_2
@ %bb.1:
	movs	r0, #0
	bl	lv_disp_get_dpi
	add.w	r0, r0, r0, lsl #2
	movs	r1, #80
	add.w	r0, r1, r0, lsl #2
	smmul	r0, r0, r6
	asrs	r1, r0, #6
	add.w	r0, r1, r0, lsr #31
	b	.LBB6_3
.LBB6_2:
	.loc	13 0 62                         @ lvgl/src/lv_themes/lv_theme_material.c:0:62
	movs	r0, #1
.LBB6_3:
	.loc	13 440 5                        @ lvgl/src/lv_themes/lv_theme_material.c:440:5
	sxth	r1, r0
	mov	r0, r4
	bl	lv_style_set_pad_left
	.loc	13 441 29 is_stmt 1             @ lvgl/src/lv_themes/lv_theme_material.c:441:29
	ldr	r0, [r5]
	.loc	13 441 37 is_stmt 0             @ lvgl/src/lv_themes/lv_theme_material.c:441:37
	add.w	r4, r0, #116
	.loc	13 441 63                       @ lvgl/src/lv_themes/lv_theme_material.c:441:63
	movs	r0, #0
	bl	lv_disp_get_dpi
	add.w	r0, r0, r0, lsl #2
	lsls	r0, r0, #2
	cmp	r0, #240
	blt	.LBB6_5
@ %bb.4:
	movs	r0, #0
	bl	lv_disp_get_dpi
	add.w	r0, r0, r0, lsl #2
	movs	r1, #80
	add.w	r0, r1, r0, lsl #2
	smmul	r0, r0, r6
	asrs	r1, r0, #6
	add.w	r0, r1, r0, lsr #31
	b	.LBB6_6
.LBB6_5:
	.loc	13 0 63                         @ lvgl/src/lv_themes/lv_theme_material.c:0:63
	movs	r0, #1
.LBB6_6:
	.loc	13 441 5                        @ lvgl/src/lv_themes/lv_theme_material.c:441:5
	sxth	r1, r0
	mov	r0, r4
	bl	lv_style_set_pad_right
	.loc	13 442 27 is_stmt 1             @ lvgl/src/lv_themes/lv_theme_material.c:442:27
	ldr	r0, [r5]
	.loc	13 442 35 is_stmt 0             @ lvgl/src/lv_themes/lv_theme_material.c:442:35
	add.w	r4, r0, #116
	.loc	13 442 61                       @ lvgl/src/lv_themes/lv_theme_material.c:442:61
	movs	r0, #0
	bl	lv_disp_get_dpi
	add.w	r0, r0, r0, lsl #2
	lsls	r0, r0, #2
	cmp	r0, #240
	blt	.LBB6_8
@ %bb.7:
	movs	r0, #0
	bl	lv_disp_get_dpi
	add.w	r0, r0, r0, lsl #2
	movs	r1, #80
	add.w	r0, r1, r0, lsl #2
	smmul	r0, r0, r6
	asrs	r1, r0, #6
	add.w	r0, r1, r0, lsr #31
	b	.LBB6_9
.LBB6_8:
	.loc	13 0 61                         @ lvgl/src/lv_themes/lv_theme_material.c:0:61
	movs	r0, #1
.LBB6_9:
	.loc	13 442 5                        @ lvgl/src/lv_themes/lv_theme_material.c:442:5
	sxth	r1, r0
	mov	r0, r4
	bl	lv_style_set_pad_top
	.loc	13 443 29 is_stmt 1             @ lvgl/src/lv_themes/lv_theme_material.c:443:29
	ldr	r0, [r5]
	.loc	13 443 37 is_stmt 0             @ lvgl/src/lv_themes/lv_theme_material.c:443:37
	add.w	r4, r0, #116
	.loc	13 443 63                       @ lvgl/src/lv_themes/lv_theme_material.c:443:63
	movs	r0, #0
	bl	lv_disp_get_dpi
	rsb	r0, r0, r0, lsl #4
	lsls	r0, r0, #1
	cmp	r0, #240
	blt	.LBB6_11
@ %bb.10:
	movs	r0, #0
	bl	lv_disp_get_dpi
	rsb	r0, r0, r0, lsl #4
	movs	r1, #80
	add.w	r0, r1, r0, lsl #1
	smmul	r0, r0, r6
	asrs	r1, r0, #6
	add.w	r0, r1, r0, lsr #31
	b	.LBB6_12
.LBB6_11:
	.loc	13 0 63                         @ lvgl/src/lv_themes/lv_theme_material.c:0:63
	movs	r0, #1
.LBB6_12:
	.loc	13 443 5                        @ lvgl/src/lv_themes/lv_theme_material.c:443:5
	sxth	r1, r0
	mov	r0, r4
	bl	lv_style_set_pad_inner
	.loc	13 444 31 is_stmt 1             @ lvgl/src/lv_themes/lv_theme_material.c:444:31
	ldr	r0, [r5]
	.loc	13 444 39 is_stmt 0             @ lvgl/src/lv_themes/lv_theme_material.c:444:39
	add.w	r4, r0, #116
	.loc	13 444 65                       @ lvgl/src/lv_themes/lv_theme_material.c:444:65
	movs	r0, #0
	bl	lv_disp_get_dpi
	movs	r7, #25
	muls	r0, r7, r0
	cmp	r0, #240
	blt	.LBB6_14
@ %bb.13:
	movs	r0, #0
	bl	lv_disp_get_dpi
	movs	r1, #80
	smlabb	r0, r0, r7, r1
	smmul	r0, r0, r6
	asrs	r1, r0, #6
	add.w	r0, r1, r0, lsr #31
	b	.LBB6_15
.LBB6_14:
	.loc	13 0 65                         @ lvgl/src/lv_themes/lv_theme_material.c:0:65
	movs	r0, #1
.LBB6_15:
	.loc	13 444 5                        @ lvgl/src/lv_themes/lv_theme_material.c:444:5
	sxth	r1, r0
	mov	r0, r4
	bl	lv_style_set_scale_width
	.loc	13 446 5 is_stmt 1              @ lvgl/src/lv_themes/lv_theme_material.c:446:5
	movw	r4, :lower16:theme
	.loc	13 446 30 is_stmt 0             @ lvgl/src/lv_themes/lv_theme_material.c:446:30
	ldr	r0, [r5]
	.loc	13 446 5                        @ lvgl/src/lv_themes/lv_theme_material.c:446:5
	movt	r4, :upper16:theme
	.loc	13 446 38                       @ lvgl/src/lv_themes/lv_theme_material.c:446:38
	adds	r0, #116
	.loc	13 446 5                        @ lvgl/src/lv_themes/lv_theme_material.c:446:5
	ldr	r1, [r4, #12]
	bl	lv_style_set_line_color
	.loc	13 447 36 is_stmt 1             @ lvgl/src/lv_themes/lv_theme_material.c:447:36
	ldr	r0, [r5]
	.loc	13 447 5 is_stmt 0              @ lvgl/src/lv_themes/lv_theme_material.c:447:5
	ldr	r1, [r4, #12]
	.loc	13 447 44                       @ lvgl/src/lv_themes/lv_theme_material.c:447:44
	adds	r0, #116
	.loc	13 447 5                        @ lvgl/src/lv_themes/lv_theme_material.c:447:5
	bl	lv_style_set_scale_grad_color
	.loc	13 448 35 is_stmt 1             @ lvgl/src/lv_themes/lv_theme_material.c:448:35
	ldr	r0, [r5]
	.loc	13 448 43 is_stmt 0             @ lvgl/src/lv_themes/lv_theme_material.c:448:43
	add.w	r4, r0, #116
	.loc	13 448 69                       @ lvgl/src/lv_themes/lv_theme_material.c:448:69
	movw	r0, #2184
	bl	lv_color_hex3
	mov	r1, r0
	.loc	13 448 5                        @ lvgl/src/lv_themes/lv_theme_material.c:448:5
	mov	r0, r4
	bl	lv_style_set_scale_end_color
	.loc	13 449 30 is_stmt 1             @ lvgl/src/lv_themes/lv_theme_material.c:449:30
	ldr	r0, [r5]
	.loc	13 449 38 is_stmt 0             @ lvgl/src/lv_themes/lv_theme_material.c:449:38
	add.w	r4, r0, #116
	.loc	13 449 64                       @ lvgl/src/lv_themes/lv_theme_material.c:449:64
	movs	r0, #0
	bl	lv_disp_get_dpi
	add.w	r0, r0, r0, lsl #2
	lsls	r0, r0, #1
	cmp	r0, #240
	blt	.LBB6_17
@ %bb.16:
	movs	r0, #0
	bl	lv_disp_get_dpi
	add.w	r0, r0, r0, lsl #2
	movs	r1, #80
	add.w	r0, r1, r0, lsl #1
	smmul	r0, r0, r6
	asrs	r1, r0, #6
	add.w	r0, r1, r0, lsr #31
	b	.LBB6_18
.LBB6_17:
	.loc	13 0 64                         @ lvgl/src/lv_themes/lv_theme_material.c:0:64
	movs	r0, #1
.LBB6_18:
	.loc	13 449 5                        @ lvgl/src/lv_themes/lv_theme_material.c:449:5
	sxth	r1, r0
	mov	r0, r4
	bl	lv_style_set_line_width
	.loc	13 450 74 is_stmt 1             @ lvgl/src/lv_themes/lv_theme_material.c:450:74
	movs	r0, #0
	.loc	13 450 40 is_stmt 0             @ lvgl/src/lv_themes/lv_theme_material.c:450:40
	ldr	r4, [r5]
	.loc	13 450 74                       @ lvgl/src/lv_themes/lv_theme_material.c:450:74
	bl	lv_disp_get_dpi
	rsb	r0, r0, r0, lsl #3
	cmp	r0, #240
	blt	.LBB6_20
@ %bb.19:
	movs	r0, #0
	bl	lv_disp_get_dpi
	rsb	r0, r0, r0, lsl #3
	adds	r0, #80
	smmul	r0, r0, r6
	asrs	r1, r0, #6
	add.w	r1, r1, r0, lsr #31
	b	.LBB6_21
.LBB6_20:
	.loc	13 0 74                         @ lvgl/src/lv_themes/lv_theme_material.c:0:74
	movs	r1, #1
.LBB6_21:
	.loc	13 450 5                        @ lvgl/src/lv_themes/lv_theme_material.c:450:5
	sxth	r1, r1
	.loc	13 450 48                       @ lvgl/src/lv_themes/lv_theme_material.c:450:48
	add.w	r0, r4, #116
	.loc	13 450 5                        @ lvgl/src/lv_themes/lv_theme_material.c:450:5
	bl	lv_style_set_scale_end_line_width
	.loc	13 452 1 is_stmt 1              @ lvgl/src/lv_themes/lv_theme_material.c:452:1
	add	sp, #4
	pop	{r4, r5, r6, r7, pc}
.Ltmp24:
.Lfunc_end6:
	.size	linemeter_init, .Lfunc_end6-linemeter_init
	.cfi_endproc
	.cantunwind
	.fnend
                                        @ -- End function
	.section	.text.gauge_init,"ax",%progbits
	.p2align	3                               @ -- Begin function gauge_init
	.type	gauge_init,%function
	.code	16                              @ @gauge_init
	.thumb_func
gauge_init:
.Lfunc_begin7:
	.loc	13 455 0                        @ lvgl/src/lv_themes/lv_theme_material.c:455:0
	.fnstart
	.cfi_startproc
@ %bb.0:
	.save	{r4, r5, r6, r7, r8, r9, r10, lr}
	push.w	{r4, r5, r6, r7, r8, r9, r10, lr}
	.cfi_def_cfa_offset 32
	.cfi_offset lr, -4
	.cfi_offset r10, -8
	.cfi_offset r9, -12
	.cfi_offset r8, -16
	.cfi_offset r7, -20
	.cfi_offset r6, -24
	.cfi_offset r5, -28
	.cfi_offset r4, -32
.Ltmp25:
	.loc	13 457 21 prologue_end          @ lvgl/src/lv_themes/lv_theme_material.c:457:21
	movw	r6, :lower16:styles
	movt	r6, :upper16:styles
	ldr	r0, [r6]
	.loc	13 457 29 is_stmt 0             @ lvgl/src/lv_themes/lv_theme_material.c:457:29
	adds	r0, #96
	.loc	13 457 5                        @ lvgl/src/lv_themes/lv_theme_material.c:457:5
	bl	lv_style_reset
	.loc	13 458 30 is_stmt 1             @ lvgl/src/lv_themes/lv_theme_material.c:458:30
	ldr	r0, [r6]
	.loc	13 458 38 is_stmt 0             @ lvgl/src/lv_themes/lv_theme_material.c:458:38
	add.w	r5, r0, #96
	.loc	13 458 68                       @ lvgl/src/lv_themes/lv_theme_material.c:458:68
	movw	r0, #2184
	bl	lv_color_hex3
	mov	r4, r0
	.loc	13 458 5                        @ lvgl/src/lv_themes/lv_theme_material.c:458:5
	mov	r0, r5
	mov	r1, r4
	bl	lv_style_set_line_color
	.loc	13 459 36 is_stmt 1             @ lvgl/src/lv_themes/lv_theme_material.c:459:36
	ldr	r0, [r6]
	.loc	13 459 5 is_stmt 0              @ lvgl/src/lv_themes/lv_theme_material.c:459:5
	mov	r1, r4
	.loc	13 459 44                       @ lvgl/src/lv_themes/lv_theme_material.c:459:44
	adds	r0, #96
	.loc	13 459 5                        @ lvgl/src/lv_themes/lv_theme_material.c:459:5
	bl	lv_style_set_scale_grad_color
	.loc	13 460 5 is_stmt 1              @ lvgl/src/lv_themes/lv_theme_material.c:460:5
	movw	r8, :lower16:theme
	.loc	13 460 35 is_stmt 0             @ lvgl/src/lv_themes/lv_theme_material.c:460:35
	ldr	r0, [r6]
	.loc	13 460 5                        @ lvgl/src/lv_themes/lv_theme_material.c:460:5
	movt	r8, :upper16:theme
	.loc	13 460 43                       @ lvgl/src/lv_themes/lv_theme_material.c:460:43
	adds	r0, #96
	.loc	13 460 5                        @ lvgl/src/lv_themes/lv_theme_material.c:460:5
	ldr.w	r1, [r8, #12]
	bl	lv_style_set_scale_end_color
	.loc	13 461 30 is_stmt 1             @ lvgl/src/lv_themes/lv_theme_material.c:461:30
	ldr	r0, [r6]
	.loc	13 461 38 is_stmt 0             @ lvgl/src/lv_themes/lv_theme_material.c:461:38
	add.w	r5, r0, #96
	.loc	13 461 68                       @ lvgl/src/lv_themes/lv_theme_material.c:461:68
	movs	r0, #0
	bl	lv_disp_get_dpi
	add.w	r0, r0, r0, lsl #2
	movw	r9, #26215
	cmp	r0, #240
	movt	r9, #26214
	blt	.LBB7_2
@ %bb.1:
	movs	r0, #0
	bl	lv_disp_get_dpi
	add.w	r0, r0, r0, lsl #2
	adds	r0, #80
	smmul	r0, r0, r9
	asrs	r1, r0, #6
	add.w	r0, r1, r0, lsr #31
	b	.LBB7_3
.LBB7_2:
	.loc	13 0 68                         @ lvgl/src/lv_themes/lv_theme_material.c:0:68
	movs	r0, #1
.LBB7_3:
	.loc	13 461 5                        @ lvgl/src/lv_themes/lv_theme_material.c:461:5
	sxth	r1, r0
	mov	r0, r5
	bl	lv_style_set_line_width
	.loc	13 462 40 is_stmt 1             @ lvgl/src/lv_themes/lv_theme_material.c:462:40
	ldr	r0, [r6]
	.loc	13 462 48 is_stmt 0             @ lvgl/src/lv_themes/lv_theme_material.c:462:48
	add.w	r5, r0, #96
	.loc	13 462 78                       @ lvgl/src/lv_themes/lv_theme_material.c:462:78
	movs	r0, #0
	bl	lv_disp_get_dpi
	cmp	r0, #60
	blt	.LBB7_5
@ %bb.4:
	movs	r0, #0
	bl	lv_disp_get_dpi
	movs	r1, #80
	add.w	r0, r1, r0, lsl #2
	smmul	r0, r0, r9
	asrs	r1, r0, #6
	add.w	r0, r1, r0, lsr #31
	b	.LBB7_6
.LBB7_5:
	.loc	13 0 78                         @ lvgl/src/lv_themes/lv_theme_material.c:0:78
	movs	r0, #1
.LBB7_6:
	.loc	13 462 5                        @ lvgl/src/lv_themes/lv_theme_material.c:462:5
	sxth	r1, r0
	mov	r0, r5
	bl	lv_style_set_scale_end_line_width
	.loc	13 463 42 is_stmt 1             @ lvgl/src/lv_themes/lv_theme_material.c:463:42
	ldr	r0, [r6]
	.loc	13 463 50 is_stmt 0             @ lvgl/src/lv_themes/lv_theme_material.c:463:50
	add.w	r5, r0, #96
	.loc	13 463 80                       @ lvgl/src/lv_themes/lv_theme_material.c:463:80
	movs	r0, #0
	bl	lv_disp_get_dpi
	cmp	r0, #30
	blt	.LBB7_8
@ %bb.7:
	movs	r0, #0
	bl	lv_disp_get_dpi
	movs	r1, #80
	add.w	r0, r1, r0, lsl #3
	smmul	r0, r0, r9
	asrs	r1, r0, #6
	add.w	r0, r1, r0, lsr #31
	b	.LBB7_9
.LBB7_8:
	.loc	13 0 80                         @ lvgl/src/lv_themes/lv_theme_material.c:0:80
	movs	r0, #1
.LBB7_9:
	.loc	13 463 5                        @ lvgl/src/lv_themes/lv_theme_material.c:463:5
	sxth	r1, r0
	mov	r0, r5
	bl	lv_style_set_scale_end_border_width
	.loc	13 464 28 is_stmt 1             @ lvgl/src/lv_themes/lv_theme_material.c:464:28
	ldr	r0, [r6]
	.loc	13 464 36 is_stmt 0             @ lvgl/src/lv_themes/lv_theme_material.c:464:36
	add.w	r5, r0, #96
	.loc	13 464 66                       @ lvgl/src/lv_themes/lv_theme_material.c:464:66
	movs	r0, #0
	bl	lv_disp_get_dpi
	add.w	r0, r0, r0, lsl #2
	lsls	r0, r0, #2
	cmp	r0, #240
	blt	.LBB7_11
@ %bb.10:
	movs	r0, #0
	bl	lv_disp_get_dpi
	add.w	r0, r0, r0, lsl #2
	movs	r1, #80
	add.w	r0, r1, r0, lsl #2
	smmul	r0, r0, r9
	asrs	r1, r0, #6
	add.w	r0, r1, r0, lsr #31
	b	.LBB7_12
.LBB7_11:
	.loc	13 0 66                         @ lvgl/src/lv_themes/lv_theme_material.c:0:66
	movs	r0, #1
.LBB7_12:
	.loc	13 464 5                        @ lvgl/src/lv_themes/lv_theme_material.c:464:5
	sxth	r1, r0
	mov	r0, r5
	bl	lv_style_set_pad_left
	.loc	13 465 29 is_stmt 1             @ lvgl/src/lv_themes/lv_theme_material.c:465:29
	ldr	r0, [r6]
	.loc	13 465 37 is_stmt 0             @ lvgl/src/lv_themes/lv_theme_material.c:465:37
	add.w	r5, r0, #96
	.loc	13 465 67                       @ lvgl/src/lv_themes/lv_theme_material.c:465:67
	movs	r0, #0
	bl	lv_disp_get_dpi
	add.w	r0, r0, r0, lsl #2
	lsls	r0, r0, #2
	cmp	r0, #240
	blt	.LBB7_14
@ %bb.13:
	movs	r0, #0
	bl	lv_disp_get_dpi
	add.w	r0, r0, r0, lsl #2
	movs	r1, #80
	add.w	r0, r1, r0, lsl #2
	smmul	r0, r0, r9
	asrs	r1, r0, #6
	add.w	r0, r1, r0, lsr #31
	b	.LBB7_15
.LBB7_14:
	.loc	13 0 67                         @ lvgl/src/lv_themes/lv_theme_material.c:0:67
	movs	r0, #1
.LBB7_15:
	.loc	13 465 5                        @ lvgl/src/lv_themes/lv_theme_material.c:465:5
	sxth	r1, r0
	mov	r0, r5
	bl	lv_style_set_pad_right
	.loc	13 466 27 is_stmt 1             @ lvgl/src/lv_themes/lv_theme_material.c:466:27
	ldr	r0, [r6]
	.loc	13 466 35 is_stmt 0             @ lvgl/src/lv_themes/lv_theme_material.c:466:35
	add.w	r5, r0, #96
	.loc	13 466 65                       @ lvgl/src/lv_themes/lv_theme_material.c:466:65
	movs	r0, #0
	bl	lv_disp_get_dpi
	add.w	r0, r0, r0, lsl #2
	lsls	r0, r0, #2
	cmp	r0, #240
	blt	.LBB7_17
@ %bb.16:
	movs	r0, #0
	bl	lv_disp_get_dpi
	add.w	r0, r0, r0, lsl #2
	movs	r1, #80
	add.w	r0, r1, r0, lsl #2
	smmul	r0, r0, r9
	asrs	r1, r0, #6
	add.w	r0, r1, r0, lsr #31
	b	.LBB7_18
.LBB7_17:
	.loc	13 0 65                         @ lvgl/src/lv_themes/lv_theme_material.c:0:65
	movs	r0, #1
.LBB7_18:
	.loc	13 466 5                        @ lvgl/src/lv_themes/lv_theme_material.c:466:5
	sxth	r1, r0
	mov	r0, r5
	bl	lv_style_set_pad_top
	.loc	13 467 29 is_stmt 1             @ lvgl/src/lv_themes/lv_theme_material.c:467:29
	ldr	r0, [r6]
	.loc	13 467 37 is_stmt 0             @ lvgl/src/lv_themes/lv_theme_material.c:467:37
	add.w	r5, r0, #96
	.loc	13 467 67                       @ lvgl/src/lv_themes/lv_theme_material.c:467:67
	movs	r0, #0
	bl	lv_disp_get_dpi
	add.w	r0, r0, r0, lsl #2
	lsls	r0, r0, #2
	cmp	r0, #240
	blt	.LBB7_20
@ %bb.19:
	movs	r0, #0
	bl	lv_disp_get_dpi
	add.w	r0, r0, r0, lsl #2
	movs	r1, #80
	add.w	r0, r1, r0, lsl #2
	smmul	r0, r0, r9
	asrs	r1, r0, #6
	add.w	r0, r1, r0, lsr #31
	b	.LBB7_21
.LBB7_20:
	.loc	13 0 67                         @ lvgl/src/lv_themes/lv_theme_material.c:0:67
	movs	r0, #1
.LBB7_21:
	.loc	13 467 5                        @ lvgl/src/lv_themes/lv_theme_material.c:467:5
	sxth	r1, r0
	mov	r0, r5
	bl	lv_style_set_pad_inner
	.loc	13 468 31 is_stmt 1             @ lvgl/src/lv_themes/lv_theme_material.c:468:31
	ldr	r0, [r6]
	.loc	13 468 39 is_stmt 0             @ lvgl/src/lv_themes/lv_theme_material.c:468:39
	add.w	r5, r0, #96
	.loc	13 468 69                       @ lvgl/src/lv_themes/lv_theme_material.c:468:69
	movs	r0, #0
	bl	lv_disp_get_dpi
	rsb	r0, r0, r0, lsl #4
	cmp	r0, #240
	blt	.LBB7_23
@ %bb.22:
	movs	r0, #0
	bl	lv_disp_get_dpi
	rsb	r0, r0, r0, lsl #4
	adds	r0, #80
	smmul	r0, r0, r9
	asrs	r1, r0, #6
	add.w	r0, r1, r0, lsr #31
	b	.LBB7_24
.LBB7_23:
	.loc	13 0 69                         @ lvgl/src/lv_themes/lv_theme_material.c:0:69
	movs	r0, #1
.LBB7_24:
	.loc	13 468 5                        @ lvgl/src/lv_themes/lv_theme_material.c:468:5
	sxth	r1, r0
	mov	r0, r5
	bl	lv_style_set_scale_width
	.loc	13 469 26 is_stmt 1             @ lvgl/src/lv_themes/lv_theme_material.c:469:26
	ldr	r0, [r6]
	.loc	13 469 5 is_stmt 0              @ lvgl/src/lv_themes/lv_theme_material.c:469:5
	movw	r1, #32767
	.loc	13 469 34                       @ lvgl/src/lv_themes/lv_theme_material.c:469:34
	adds	r0, #96
	.loc	13 469 5                        @ lvgl/src/lv_themes/lv_theme_material.c:469:5
	bl	lv_style_set_radius
	.loc	13 471 21 is_stmt 1             @ lvgl/src/lv_themes/lv_theme_material.c:471:21
	ldr	r0, [r6]
	.loc	13 471 29 is_stmt 0             @ lvgl/src/lv_themes/lv_theme_material.c:471:29
	adds	r0, #100
	.loc	13 471 5                        @ lvgl/src/lv_themes/lv_theme_material.c:471:5
	bl	lv_style_reset
	.loc	13 472 30 is_stmt 1             @ lvgl/src/lv_themes/lv_theme_material.c:472:30
	ldr	r0, [r6]
	.loc	13 472 5 is_stmt 0              @ lvgl/src/lv_themes/lv_theme_material.c:472:5
	mov	r1, r4
	.loc	13 472 38                       @ lvgl/src/lv_themes/lv_theme_material.c:472:38
	adds	r0, #100
	.loc	13 472 5                        @ lvgl/src/lv_themes/lv_theme_material.c:472:5
	bl	lv_style_set_line_color
	.loc	13 473 36 is_stmt 1             @ lvgl/src/lv_themes/lv_theme_material.c:473:36
	ldr	r0, [r6]
	.loc	13 473 5 is_stmt 0              @ lvgl/src/lv_themes/lv_theme_material.c:473:5
	mov	r1, r4
	.loc	13 473 44                       @ lvgl/src/lv_themes/lv_theme_material.c:473:44
	adds	r0, #100
	.loc	13 473 5                        @ lvgl/src/lv_themes/lv_theme_material.c:473:5
	bl	lv_style_set_scale_grad_color
	.loc	13 474 35 is_stmt 1             @ lvgl/src/lv_themes/lv_theme_material.c:474:35
	ldr	r0, [r6]
	.loc	13 474 5 is_stmt 0              @ lvgl/src/lv_themes/lv_theme_material.c:474:5
	ldr.w	r1, [r8, #12]
	.loc	13 474 43                       @ lvgl/src/lv_themes/lv_theme_material.c:474:43
	adds	r0, #100
	.loc	13 474 5                        @ lvgl/src/lv_themes/lv_theme_material.c:474:5
	bl	lv_style_set_scale_end_color
	.loc	13 475 30 is_stmt 1             @ lvgl/src/lv_themes/lv_theme_material.c:475:30
	ldr	r0, [r6]
	.loc	13 475 38 is_stmt 0             @ lvgl/src/lv_themes/lv_theme_material.c:475:38
	add.w	r4, r0, #100
	.loc	13 475 70                       @ lvgl/src/lv_themes/lv_theme_material.c:475:70
	movs	r0, #0
	bl	lv_disp_get_dpi
	cmp	r0, #30
	blt	.LBB7_26
@ %bb.25:
	movs	r0, #0
	bl	lv_disp_get_dpi
	movs	r1, #80
	add.w	r0, r1, r0, lsl #3
	smmul	r0, r0, r9
	asrs	r1, r0, #6
	add.w	r0, r1, r0, lsr #31
	b	.LBB7_27
.LBB7_26:
	.loc	13 0 70                         @ lvgl/src/lv_themes/lv_theme_material.c:0:70
	movs	r0, #1
.LBB7_27:
	.loc	13 475 5                        @ lvgl/src/lv_themes/lv_theme_material.c:475:5
	sxth	r1, r0
	mov	r0, r4
	bl	lv_style_set_line_width
	.loc	13 476 40 is_stmt 1             @ lvgl/src/lv_themes/lv_theme_material.c:476:40
	ldr	r0, [r6]
	.loc	13 476 48 is_stmt 0             @ lvgl/src/lv_themes/lv_theme_material.c:476:48
	add.w	r4, r0, #100
	.loc	13 476 80                       @ lvgl/src/lv_themes/lv_theme_material.c:476:80
	movs	r0, #0
	bl	lv_disp_get_dpi
	cmp	r0, #30
	blt	.LBB7_29
@ %bb.28:
	movs	r0, #0
	bl	lv_disp_get_dpi
	movs	r1, #80
	add.w	r0, r1, r0, lsl #3
	smmul	r0, r0, r9
	asrs	r1, r0, #6
	add.w	r0, r1, r0, lsr #31
	b	.LBB7_30
.LBB7_29:
	.loc	13 0 80                         @ lvgl/src/lv_themes/lv_theme_material.c:0:80
	movs	r0, #1
.LBB7_30:
	.loc	13 476 5                        @ lvgl/src/lv_themes/lv_theme_material.c:476:5
	sxth	r1, r0
	mov	r0, r4
	bl	lv_style_set_scale_end_line_width
	.loc	13 477 31 is_stmt 1             @ lvgl/src/lv_themes/lv_theme_material.c:477:31
	ldr	r0, [r6]
	.loc	13 477 39 is_stmt 0             @ lvgl/src/lv_themes/lv_theme_material.c:477:39
	add.w	r5, r0, #100
	.loc	13 477 71                       @ lvgl/src/lv_themes/lv_theme_material.c:477:71
	movs	r0, #0
	bl	lv_disp_get_dpi
	movs	r4, #25
	muls	r0, r4, r0
	cmp	r0, #240
	blt	.LBB7_32
@ %bb.31:
	movs	r0, #0
	bl	lv_disp_get_dpi
	movs	r1, #80
	smlabb	r0, r0, r4, r1
	smmul	r0, r0, r9
	asrs	r1, r0, #6
	add.w	r0, r1, r0, lsr #31
	b	.LBB7_33
.LBB7_32:
	.loc	13 0 71                         @ lvgl/src/lv_themes/lv_theme_material.c:0:71
	movs	r0, #1
.LBB7_33:
	movs	r7, #0
	movw	r10, #19291
	.loc	13 477 5                        @ lvgl/src/lv_themes/lv_theme_material.c:477:5
	sxth	r1, r0
	mov	r0, r5
	movt	r7, #65535
	movt	r10, #70
	bl	lv_style_set_scale_width
	.loc	13 479 21 is_stmt 1             @ lvgl/src/lv_themes/lv_theme_material.c:479:21
	ldr	r0, [r6]
	.loc	13 479 29 is_stmt 0             @ lvgl/src/lv_themes/lv_theme_material.c:479:29
	adds	r0, #104
	.loc	13 479 5                        @ lvgl/src/lv_themes/lv_theme_material.c:479:5
	bl	lv_style_reset
	.loc	13 480 70 is_stmt 1             @ lvgl/src/lv_themes/lv_theme_material.c:480:70
	ldrb.w	r0, [r8, #36]
	.loc	13 480 30 is_stmt 0             @ lvgl/src/lv_themes/lv_theme_material.c:480:30
	ldr	r1, [r6]
	.loc	13 480 38                       @ lvgl/src/lv_themes/lv_theme_material.c:480:38
	add.w	r5, r1, #104
	.loc	13 480 70                       @ lvgl/src/lv_themes/lv_theme_material.c:480:70
	lsls	r0, r0, #30
	bmi	.LBB7_35
@ %bb.34:
	.loc	13 0 70                         @ lvgl/src/lv_themes/lv_theme_material.c:0:70
	movs	r0, #255
	mov.w	r2, #65280
	mov	r1, r7
	b	.LBB7_36
.LBB7_35:
	.loc	13 480 81                       @ lvgl/src/lv_themes/lv_theme_material.c:480:81
	mov	r0, r10
	bl	lv_color_hex
	.loc	13 480 70                       @ lvgl/src/lv_themes/lv_theme_material.c:480:70
	and	r1, r0, #16711680
	and	r2, r0, #65280
	uxtb	r0, r0
	add.w	r1, r1, #-16777216
.LBB7_36:
	.loc	13 480 5                        @ lvgl/src/lv_themes/lv_theme_material.c:480:5
	orrs	r1, r2
	orrs	r1, r0
	mov	r0, r5
	bl	lv_style_set_line_color
	.loc	13 481 30 is_stmt 1             @ lvgl/src/lv_themes/lv_theme_material.c:481:30
	ldr	r0, [r6]
	.loc	13 481 38 is_stmt 0             @ lvgl/src/lv_themes/lv_theme_material.c:481:38
	add.w	r5, r0, #104
	.loc	13 481 70                       @ lvgl/src/lv_themes/lv_theme_material.c:481:70
	movs	r0, #0
	bl	lv_disp_get_dpi
	cmp	r0, #30
	blt	.LBB7_38
@ %bb.37:
	movs	r0, #0
	bl	lv_disp_get_dpi
	movs	r1, #80
	add.w	r0, r1, r0, lsl #3
	smmul	r0, r0, r9
	asrs	r1, r0, #6
	add.w	r0, r1, r0, lsr #31
	b	.LBB7_39
.LBB7_38:
	.loc	13 0 70                         @ lvgl/src/lv_themes/lv_theme_material.c:0:70
	movs	r0, #1
.LBB7_39:
	.loc	13 481 5                        @ lvgl/src/lv_themes/lv_theme_material.c:481:5
	sxth	r1, r0
	mov	r0, r5
	bl	lv_style_set_line_width
	.loc	13 482 26 is_stmt 1             @ lvgl/src/lv_themes/lv_theme_material.c:482:26
	ldr	r0, [r6]
	.loc	13 482 5 is_stmt 0              @ lvgl/src/lv_themes/lv_theme_material.c:482:5
	movs	r1, #0
	.loc	13 482 34                       @ lvgl/src/lv_themes/lv_theme_material.c:482:34
	adds	r0, #104
	.loc	13 482 5                        @ lvgl/src/lv_themes/lv_theme_material.c:482:5
	movs	r2, #255
	movs	r4, #255
	bl	lv_style_set_bg_opa
	.loc	13 483 68 is_stmt 1             @ lvgl/src/lv_themes/lv_theme_material.c:483:68
	ldrb.w	r0, [r8, #36]
	.loc	13 483 28 is_stmt 0             @ lvgl/src/lv_themes/lv_theme_material.c:483:28
	ldr	r1, [r6]
	.loc	13 483 36                       @ lvgl/src/lv_themes/lv_theme_material.c:483:36
	add.w	r5, r1, #104
	.loc	13 483 68                       @ lvgl/src/lv_themes/lv_theme_material.c:483:68
	lsls	r0, r0, #30
	bmi	.LBB7_41
@ %bb.40:
	.loc	13 0 68                         @ lvgl/src/lv_themes/lv_theme_material.c:0:68
	mov.w	r1, #65280
	b	.LBB7_42
.LBB7_41:
	.loc	13 483 79                       @ lvgl/src/lv_themes/lv_theme_material.c:483:79
	mov	r0, r10
	bl	lv_color_hex
	.loc	13 483 68                       @ lvgl/src/lv_themes/lv_theme_material.c:483:68
	uxtb	r4, r0
	and	r1, r0, #16711680
	add.w	r7, r1, #-16777216
	and	r1, r0, #65280
.LBB7_42:
	.loc	13 483 5                        @ lvgl/src/lv_themes/lv_theme_material.c:483:5
	orr.w	r0, r1, r7
	movs	r1, #0
	orr.w	r2, r0, r4
	mov	r0, r5
	bl	lv_style_set_bg_color
	.loc	13 484 26 is_stmt 1             @ lvgl/src/lv_themes/lv_theme_material.c:484:26
	ldr	r0, [r6]
	.loc	13 484 5 is_stmt 0              @ lvgl/src/lv_themes/lv_theme_material.c:484:5
	movw	r1, #32767
	.loc	13 484 34                       @ lvgl/src/lv_themes/lv_theme_material.c:484:34
	adds	r0, #104
	.loc	13 484 5                        @ lvgl/src/lv_themes/lv_theme_material.c:484:5
	bl	lv_style_set_radius
	.loc	13 485 24 is_stmt 1             @ lvgl/src/lv_themes/lv_theme_material.c:485:24
	ldr	r0, [r6]
	.loc	13 485 32 is_stmt 0             @ lvgl/src/lv_themes/lv_theme_material.c:485:32
	add.w	r4, r0, #104
	.loc	13 485 64                       @ lvgl/src/lv_themes/lv_theme_material.c:485:64
	movs	r0, #0
	bl	lv_disp_get_dpi
	rsb	r0, r0, r0, lsl #4
	lsls	r0, r0, #1
	cmp	r0, #240
	blt	.LBB7_44
@ %bb.43:
	movs	r0, #0
	bl	lv_disp_get_dpi
	rsb	r0, r0, r0, lsl #4
	movs	r1, #80
	add.w	r0, r1, r0, lsl #1
	smmul	r0, r0, r9
	asrs	r1, r0, #6
	add.w	r0, r1, r0, lsr #31
	b	.LBB7_45
.LBB7_44:
	.loc	13 0 64                         @ lvgl/src/lv_themes/lv_theme_material.c:0:64
	movs	r0, #1
.LBB7_45:
	.loc	13 485 5                        @ lvgl/src/lv_themes/lv_theme_material.c:485:5
	sxth	r1, r0
	mov	r0, r4
	bl	lv_style_set_size
	.loc	13 486 69 is_stmt 1             @ lvgl/src/lv_themes/lv_theme_material.c:486:69
	movs	r0, #0
	.loc	13 486 29 is_stmt 0             @ lvgl/src/lv_themes/lv_theme_material.c:486:29
	ldr	r4, [r6]
	.loc	13 486 69                       @ lvgl/src/lv_themes/lv_theme_material.c:486:69
	bl	lv_disp_get_dpi
	add.w	r0, r0, r0, lsl #2
	lsls	r0, r0, #1
	cmp	r0, #240
	blt	.LBB7_47
@ %bb.46:
	movs	r0, #0
	bl	lv_disp_get_dpi
	add.w	r0, r0, r0, lsl #2
	movs	r1, #80
	add.w	r0, r1, r0, lsl #1
	smmul	r0, r0, r9
	asrs	r1, r0, #6
	add.w	r1, r1, r0, lsr #31
	b	.LBB7_48
.LBB7_47:
	.loc	13 0 69                         @ lvgl/src/lv_themes/lv_theme_material.c:0:69
	movs	r1, #1
.LBB7_48:
	.loc	13 486 5                        @ lvgl/src/lv_themes/lv_theme_material.c:486:5
	sxth	r1, r1
	.loc	13 486 37                       @ lvgl/src/lv_themes/lv_theme_material.c:486:37
	add.w	r0, r4, #104
	.loc	13 486 5                        @ lvgl/src/lv_themes/lv_theme_material.c:486:5
	bl	lv_style_set_pad_inner
	.loc	13 488 1 is_stmt 1              @ lvgl/src/lv_themes/lv_theme_material.c:488:1
	pop.w	{r4, r5, r6, r7, r8, r9, r10, pc}
.Ltmp26:
.Lfunc_end7:
	.size	gauge_init, .Lfunc_end7-gauge_init
	.cfi_endproc
	.cantunwind
	.fnend
                                        @ -- End function
	.section	.text.arc_init,"ax",%progbits
	.p2align	3                               @ -- Begin function arc_init
	.type	arc_init,%function
	.code	16                              @ @arc_init
	.thumb_func
arc_init:
.Lfunc_begin8:
	.loc	13 491 0                        @ lvgl/src/lv_themes/lv_theme_material.c:491:0
	.fnstart
	.cfi_startproc
@ %bb.0:
	.save	{r4, r5, r6, r7, r8, lr}
	push.w	{r4, r5, r6, r7, r8, lr}
	.cfi_def_cfa_offset 24
	.cfi_offset lr, -4
	.cfi_offset r8, -8
	.cfi_offset r7, -12
	.cfi_offset r6, -16
	.cfi_offset r5, -20
	.cfi_offset r4, -24
.Ltmp27:
	.loc	13 493 21 prologue_end          @ lvgl/src/lv_themes/lv_theme_material.c:493:21
	movw	r5, :lower16:styles
	movt	r5, :upper16:styles
	ldr	r0, [r5]
	.loc	13 493 29 is_stmt 0             @ lvgl/src/lv_themes/lv_theme_material.c:493:29
	adds	r0, #28
	.loc	13 493 5                        @ lvgl/src/lv_themes/lv_theme_material.c:493:5
	bl	lv_style_reset
	.loc	13 494 5 is_stmt 1              @ lvgl/src/lv_themes/lv_theme_material.c:494:5
	movw	r6, :lower16:theme
	.loc	13 494 30 is_stmt 0             @ lvgl/src/lv_themes/lv_theme_material.c:494:30
	ldr	r0, [r5]
	.loc	13 494 5                        @ lvgl/src/lv_themes/lv_theme_material.c:494:5
	movt	r6, :upper16:theme
	.loc	13 494 38                       @ lvgl/src/lv_themes/lv_theme_material.c:494:38
	adds	r0, #28
	.loc	13 494 5                        @ lvgl/src/lv_themes/lv_theme_material.c:494:5
	ldr	r1, [r6, #12]
	bl	lv_style_set_line_color
	.loc	13 495 30 is_stmt 1             @ lvgl/src/lv_themes/lv_theme_material.c:495:30
	ldr	r0, [r5]
	.loc	13 495 38 is_stmt 0             @ lvgl/src/lv_themes/lv_theme_material.c:495:38
	add.w	r4, r0, #28
	.loc	13 495 67                       @ lvgl/src/lv_themes/lv_theme_material.c:495:67
	movs	r0, #0
	bl	lv_disp_get_dpi
	movs	r7, #25
	movw	r8, #26215
	muls	r0, r7, r0
	movt	r8, #26214
	cmp	r0, #240
	blt	.LBB8_2
@ %bb.1:
	movs	r0, #0
	bl	lv_disp_get_dpi
	movs	r1, #80
	smlabb	r0, r0, r7, r1
	smmul	r0, r0, r8
	asrs	r1, r0, #6
	add.w	r0, r1, r0, lsr #31
	b	.LBB8_3
.LBB8_2:
	.loc	13 0 67                         @ lvgl/src/lv_themes/lv_theme_material.c:0:67
	movs	r0, #1
.LBB8_3:
	.loc	13 495 5                        @ lvgl/src/lv_themes/lv_theme_material.c:495:5
	sxth	r1, r0
	mov	r0, r4
	bl	lv_style_set_line_width
	.loc	13 496 32 is_stmt 1             @ lvgl/src/lv_themes/lv_theme_material.c:496:32
	ldr	r0, [r5]
	.loc	13 496 40 is_stmt 0             @ lvgl/src/lv_themes/lv_theme_material.c:496:40
	adds	r0, #28
	.loc	13 496 5                        @ lvgl/src/lv_themes/lv_theme_material.c:496:5
	bl	lv_style_set_line_rounded
	.loc	13 498 21 is_stmt 1             @ lvgl/src/lv_themes/lv_theme_material.c:498:21
	ldr	r0, [r5]
	.loc	13 498 29 is_stmt 0             @ lvgl/src/lv_themes/lv_theme_material.c:498:29
	adds	r0, #32
	.loc	13 498 5                        @ lvgl/src/lv_themes/lv_theme_material.c:498:5
	bl	lv_style_reset
	.loc	13 499 64 is_stmt 1             @ lvgl/src/lv_themes/lv_theme_material.c:499:64
	ldr	r0, [r6, #36]
	.loc	13 499 30 is_stmt 0             @ lvgl/src/lv_themes/lv_theme_material.c:499:30
	ldr	r1, [r5]
	.loc	13 499 64                       @ lvgl/src/lv_themes/lv_theme_material.c:499:64
	lsls	r0, r0, #30
	movw	r0, #55257
	movt	r0, #212
	.loc	13 499 38                       @ lvgl/src/lv_themes/lv_theme_material.c:499:38
	add.w	r4, r1, #32
	.loc	13 499 64                       @ lvgl/src/lv_themes/lv_theme_material.c:499:64
	itt	pl
	movwpl	r0, #18765
	movtpl	r0, #69
	bl	lv_color_hex
	mov	r1, r0
	.loc	13 499 5                        @ lvgl/src/lv_themes/lv_theme_material.c:499:5
	mov	r0, r4
	bl	lv_style_set_line_color
	.loc	13 500 64 is_stmt 1             @ lvgl/src/lv_themes/lv_theme_material.c:500:64
	movs	r0, #0
	.loc	13 500 30 is_stmt 0             @ lvgl/src/lv_themes/lv_theme_material.c:500:30
	ldr	r4, [r5]
	.loc	13 500 64                       @ lvgl/src/lv_themes/lv_theme_material.c:500:64
	bl	lv_disp_get_dpi
	muls	r0, r7, r0
	cmp	r0, #240
	blt	.LBB8_5
@ %bb.4:
	movs	r0, #0
	bl	lv_disp_get_dpi
	movs	r1, #25
	movs	r2, #80
	smlabb	r0, r0, r1, r2
	smmul	r0, r0, r8
	asrs	r1, r0, #6
	add.w	r1, r1, r0, lsr #31
	b	.LBB8_6
.LBB8_5:
	.loc	13 0 64                         @ lvgl/src/lv_themes/lv_theme_material.c:0:64
	movs	r1, #1
.LBB8_6:
	.loc	13 500 5                        @ lvgl/src/lv_themes/lv_theme_material.c:500:5
	sxth	r1, r1
	.loc	13 500 38                       @ lvgl/src/lv_themes/lv_theme_material.c:500:38
	add.w	r0, r4, #32
	.loc	13 500 5                        @ lvgl/src/lv_themes/lv_theme_material.c:500:5
	bl	lv_style_set_line_width
	.loc	13 501 32 is_stmt 1             @ lvgl/src/lv_themes/lv_theme_material.c:501:32
	ldr	r0, [r5]
	.loc	13 501 40 is_stmt 0             @ lvgl/src/lv_themes/lv_theme_material.c:501:40
	adds	r0, #32
	.loc	13 501 5                        @ lvgl/src/lv_themes/lv_theme_material.c:501:5
	bl	lv_style_set_line_rounded
	.loc	13 503 21 is_stmt 1             @ lvgl/src/lv_themes/lv_theme_material.c:503:21
	ldr	r0, [r5]
	.loc	13 503 29 is_stmt 0             @ lvgl/src/lv_themes/lv_theme_material.c:503:29
	adds	r0, #36
	.loc	13 503 5                        @ lvgl/src/lv_themes/lv_theme_material.c:503:5
	bl	lv_style_reset
	.loc	13 504 26 is_stmt 1             @ lvgl/src/lv_themes/lv_theme_material.c:504:26
	ldr	r0, [r5]
	.loc	13 504 5 is_stmt 0              @ lvgl/src/lv_themes/lv_theme_material.c:504:5
	movw	r1, #32767
	.loc	13 504 34                       @ lvgl/src/lv_themes/lv_theme_material.c:504:34
	adds	r0, #36
	.loc	13 504 5                        @ lvgl/src/lv_themes/lv_theme_material.c:504:5
	bl	lv_style_set_radius
	.loc	13 505 27 is_stmt 1             @ lvgl/src/lv_themes/lv_theme_material.c:505:27
	ldr	r0, [r5]
	.loc	13 505 5 is_stmt 0              @ lvgl/src/lv_themes/lv_theme_material.c:505:5
	movs	r1, #0
	.loc	13 505 35                       @ lvgl/src/lv_themes/lv_theme_material.c:505:35
	adds	r0, #36
	.loc	13 505 5                        @ lvgl/src/lv_themes/lv_theme_material.c:505:5
	bl	lv_style_set_pad_top
	.loc	13 506 30 is_stmt 1             @ lvgl/src/lv_themes/lv_theme_material.c:506:30
	ldr	r0, [r5]
	.loc	13 506 5 is_stmt 0              @ lvgl/src/lv_themes/lv_theme_material.c:506:5
	movs	r1, #0
	.loc	13 506 38                       @ lvgl/src/lv_themes/lv_theme_material.c:506:38
	adds	r0, #36
	.loc	13 506 5                        @ lvgl/src/lv_themes/lv_theme_material.c:506:5
	bl	lv_style_set_pad_bottom
	.loc	13 507 28 is_stmt 1             @ lvgl/src/lv_themes/lv_theme_material.c:507:28
	ldr	r0, [r5]
	.loc	13 507 5 is_stmt 0              @ lvgl/src/lv_themes/lv_theme_material.c:507:5
	movs	r1, #0
	.loc	13 507 36                       @ lvgl/src/lv_themes/lv_theme_material.c:507:36
	adds	r0, #36
	.loc	13 507 5                        @ lvgl/src/lv_themes/lv_theme_material.c:507:5
	bl	lv_style_set_pad_left
	.loc	13 508 29 is_stmt 1             @ lvgl/src/lv_themes/lv_theme_material.c:508:29
	ldr	r0, [r5]
	.loc	13 508 5 is_stmt 0              @ lvgl/src/lv_themes/lv_theme_material.c:508:5
	movs	r1, #0
	.loc	13 508 37                       @ lvgl/src/lv_themes/lv_theme_material.c:508:37
	adds	r0, #36
	.loc	13 508 5                        @ lvgl/src/lv_themes/lv_theme_material.c:508:5
	bl	lv_style_set_pad_right
	.loc	13 511 1 is_stmt 1              @ lvgl/src/lv_themes/lv_theme_material.c:511:1
	pop.w	{r4, r5, r6, r7, r8, pc}
.Ltmp28:
.Lfunc_end8:
	.size	arc_init, .Lfunc_end8-arc_init
	.cfi_endproc
	.cantunwind
	.fnend
                                        @ -- End function
	.section	.text.chart_init,"ax",%progbits
	.p2align	3                               @ -- Begin function chart_init
	.type	chart_init,%function
	.code	16                              @ @chart_init
	.thumb_func
chart_init:
.Lfunc_begin9:
	.loc	13 520 0                        @ lvgl/src/lv_themes/lv_theme_material.c:520:0
	.fnstart
	.cfi_startproc
@ %bb.0:
	.save	{r4, r5, r6, r7, lr}
	push	{r4, r5, r6, r7, lr}
	.cfi_def_cfa_offset 20
	.cfi_offset lr, -4
	.cfi_offset r7, -8
	.cfi_offset r6, -12
	.cfi_offset r5, -16
	.cfi_offset r4, -20
	.pad	#4
	sub	sp, #4
	.cfi_def_cfa_offset 24
.Ltmp29:
	.loc	13 522 21 prologue_end          @ lvgl/src/lv_themes/lv_theme_material.c:522:21
	movw	r5, :lower16:styles
	movt	r5, :upper16:styles
	ldr	r0, [r5]
	.loc	13 522 29 is_stmt 0             @ lvgl/src/lv_themes/lv_theme_material.c:522:29
	adds	r0, #68
	.loc	13 522 5                        @ lvgl/src/lv_themes/lv_theme_material.c:522:5
	bl	lv_style_reset
	.loc	13 523 66 is_stmt 1             @ lvgl/src/lv_themes/lv_theme_material.c:523:66
	movw	r7, :lower16:theme
	.loc	13 523 30 is_stmt 0             @ lvgl/src/lv_themes/lv_theme_material.c:523:30
	ldr	r1, [r5]
	.loc	13 523 66                       @ lvgl/src/lv_themes/lv_theme_material.c:523:66
	movt	r7, :upper16:theme
	.loc	13 523 38                       @ lvgl/src/lv_themes/lv_theme_material.c:523:38
	add.w	r4, r1, #68
	.loc	13 523 66                       @ lvgl/src/lv_themes/lv_theme_material.c:523:66
	ldrb.w	r0, [r7, #36]
	lsls	r0, r0, #30
	bmi	.LBB9_2
@ %bb.1:
	.loc	13 0 66                         @ lvgl/src/lv_themes/lv_theme_material.c:0:66
	movw	r0, #44477
	movt	r0, #161
	.loc	13 523 97                       @ lvgl/src/lv_themes/lv_theme_material.c:523:97
	bl	lv_color_hex
	b	.LBB9_3
.LBB9_2:
	.loc	13 523 77                       @ lvgl/src/lv_themes/lv_theme_material.c:523:77
	movw	r0, #2730
	bl	lv_color_hex3
.LBB9_3:
	.loc	13 0 0                          @ lvgl/src/lv_themes/lv_theme_material.c:0:0
	mov	r2, r0
	.loc	13 523 5                        @ lvgl/src/lv_themes/lv_theme_material.c:523:5
	movs	r1, #0
	mov	r0, r4
	bl	lv_style_set_text_color
	.loc	13 525 21 is_stmt 1             @ lvgl/src/lv_themes/lv_theme_material.c:525:21
	ldr	r0, [r5]
	.loc	13 525 29 is_stmt 0             @ lvgl/src/lv_themes/lv_theme_material.c:525:29
	adds	r0, #72
	.loc	13 525 5                        @ lvgl/src/lv_themes/lv_theme_material.c:525:5
	bl	lv_style_reset
	.loc	13 526 30 is_stmt 1             @ lvgl/src/lv_themes/lv_theme_material.c:526:30
	ldr	r0, [r5]
	.loc	13 526 38 is_stmt 0             @ lvgl/src/lv_themes/lv_theme_material.c:526:38
	add.w	r4, r0, #72
	.loc	13 526 73                       @ lvgl/src/lv_themes/lv_theme_material.c:526:73
	movs	r0, #0
	bl	lv_disp_get_dpi
	movw	r6, #26215
	cmp	r0, #240
	movt	r6, #26214
	blt	.LBB9_5
@ %bb.4:
	movs	r0, #0
	bl	lv_disp_get_dpi
	adds	r0, #80
	smmul	r0, r0, r6
	asrs	r1, r0, #6
	add.w	r0, r1, r0, lsr #31
	b	.LBB9_6
.LBB9_5:
	.loc	13 0 73                         @ lvgl/src/lv_themes/lv_theme_material.c:0:73
	movs	r0, #1
.LBB9_6:
	.loc	13 526 5                        @ lvgl/src/lv_themes/lv_theme_material.c:526:5
	sxth	r1, r0
	mov	r0, r4
	bl	lv_style_set_line_width
	.loc	13 527 35 is_stmt 1             @ lvgl/src/lv_themes/lv_theme_material.c:527:35
	ldr	r0, [r5]
	.loc	13 527 43 is_stmt 0             @ lvgl/src/lv_themes/lv_theme_material.c:527:43
	add.w	r4, r0, #72
	.loc	13 527 78                       @ lvgl/src/lv_themes/lv_theme_material.c:527:78
	movs	r0, #0
	bl	lv_disp_get_dpi
	add.w	r0, r0, r0, lsl #2
	lsls	r0, r0, #1
	cmp	r0, #240
	blt	.LBB9_8
@ %bb.7:
	movs	r0, #0
	bl	lv_disp_get_dpi
	add.w	r0, r0, r0, lsl #2
	movs	r1, #80
	add.w	r0, r1, r0, lsl #1
	smmul	r0, r0, r6
	asrs	r1, r0, #6
	add.w	r0, r1, r0, lsr #31
	b	.LBB9_9
.LBB9_8:
	.loc	13 0 78                         @ lvgl/src/lv_themes/lv_theme_material.c:0:78
	movs	r0, #1
.LBB9_9:
	.loc	13 527 5                        @ lvgl/src/lv_themes/lv_theme_material.c:527:5
	sxth	r1, r0
	mov	r0, r4
	bl	lv_style_set_line_dash_width
	.loc	13 528 33 is_stmt 1             @ lvgl/src/lv_themes/lv_theme_material.c:528:33
	ldr	r0, [r5]
	.loc	13 528 41 is_stmt 0             @ lvgl/src/lv_themes/lv_theme_material.c:528:41
	add.w	r4, r0, #72
	.loc	13 528 76                       @ lvgl/src/lv_themes/lv_theme_material.c:528:76
	movs	r0, #0
	bl	lv_disp_get_dpi
	add.w	r0, r0, r0, lsl #2
	lsls	r0, r0, #1
	cmp	r0, #240
	blt	.LBB9_11
@ %bb.10:
	movs	r0, #0
	bl	lv_disp_get_dpi
	add.w	r0, r0, r0, lsl #2
	movs	r1, #80
	add.w	r0, r1, r0, lsl #1
	smmul	r0, r0, r6
	asrs	r1, r0, #6
	add.w	r0, r1, r0, lsr #31
	b	.LBB9_12
.LBB9_11:
	.loc	13 0 76                         @ lvgl/src/lv_themes/lv_theme_material.c:0:76
	movs	r0, #1
.LBB9_12:
	.loc	13 528 5                        @ lvgl/src/lv_themes/lv_theme_material.c:528:5
	sxth	r1, r0
	mov	r0, r4
	bl	lv_style_set_line_dash_gap
	.loc	13 529 73 is_stmt 1             @ lvgl/src/lv_themes/lv_theme_material.c:529:73
	ldr	r0, [r7, #36]
	.loc	13 529 30 is_stmt 0             @ lvgl/src/lv_themes/lv_theme_material.c:529:30
	ldr	r1, [r5]
	.loc	13 529 73                       @ lvgl/src/lv_themes/lv_theme_material.c:529:73
	lsls	r0, r0, #30
	movw	r0, #56803
	movt	r0, #214
	.loc	13 529 38                       @ lvgl/src/lv_themes/lv_theme_material.c:529:38
	add.w	r4, r1, #72
	.loc	13 529 73                       @ lvgl/src/lv_themes/lv_theme_material.c:529:73
	itt	pl
	movwpl	r0, #35479
	movtpl	r0, #128
	bl	lv_color_hex
	mov	r1, r0
	.loc	13 529 5                        @ lvgl/src/lv_themes/lv_theme_material.c:529:5
	mov	r0, r4
	bl	lv_style_set_line_color
	.loc	13 531 21 is_stmt 1             @ lvgl/src/lv_themes/lv_theme_material.c:531:21
	ldr	r0, [r5]
	.loc	13 531 29 is_stmt 0             @ lvgl/src/lv_themes/lv_theme_material.c:531:29
	adds	r0, #76
	.loc	13 531 5                        @ lvgl/src/lv_themes/lv_theme_material.c:531:5
	bl	lv_style_reset
	.loc	13 532 30 is_stmt 1             @ lvgl/src/lv_themes/lv_theme_material.c:532:30
	ldr	r0, [r5]
	.loc	13 532 38 is_stmt 0             @ lvgl/src/lv_themes/lv_theme_material.c:532:38
	add.w	r4, r0, #76
	.loc	13 532 70                       @ lvgl/src/lv_themes/lv_theme_material.c:532:70
	movs	r0, #0
	bl	lv_disp_get_dpi
	add.w	r0, r0, r0, lsl #1
	cmp	r0, #240
	blt	.LBB9_14
@ %bb.13:
	movs	r0, #0
	bl	lv_disp_get_dpi
	add.w	r0, r0, r0, lsl #1
	adds	r0, #80
	smmul	r0, r0, r6
	asrs	r1, r0, #6
	add.w	r0, r1, r0, lsr #31
	b	.LBB9_15
.LBB9_14:
	.loc	13 0 70                         @ lvgl/src/lv_themes/lv_theme_material.c:0:70
	movs	r0, #1
.LBB9_15:
	.loc	13 532 5                        @ lvgl/src/lv_themes/lv_theme_material.c:532:5
	sxth	r1, r0
	mov	r0, r4
	bl	lv_style_set_line_width
	.loc	13 533 24 is_stmt 1             @ lvgl/src/lv_themes/lv_theme_material.c:533:24
	ldr	r0, [r5]
	.loc	13 533 32 is_stmt 0             @ lvgl/src/lv_themes/lv_theme_material.c:533:32
	add.w	r4, r0, #76
	.loc	13 533 64                       @ lvgl/src/lv_themes/lv_theme_material.c:533:64
	movs	r0, #0
	bl	lv_disp_get_dpi
	cmp	r0, #60
	blt	.LBB9_17
@ %bb.16:
	movs	r0, #0
	bl	lv_disp_get_dpi
	movs	r1, #80
	add.w	r0, r1, r0, lsl #2
	smmul	r0, r0, r6
	asrs	r1, r0, #6
	add.w	r0, r1, r0, lsr #31
	b	.LBB9_18
.LBB9_17:
	.loc	13 0 64                         @ lvgl/src/lv_themes/lv_theme_material.c:0:64
	movs	r0, #1
.LBB9_18:
	.loc	13 533 5                        @ lvgl/src/lv_themes/lv_theme_material.c:533:5
	sxth	r1, r0
	mov	r0, r4
	bl	lv_style_set_size
	.loc	13 534 29 is_stmt 1             @ lvgl/src/lv_themes/lv_theme_material.c:534:29
	ldr	r0, [r5]
	.loc	13 534 37 is_stmt 0             @ lvgl/src/lv_themes/lv_theme_material.c:534:37
	add.w	r4, r0, #76
	.loc	13 534 69                       @ lvgl/src/lv_themes/lv_theme_material.c:534:69
	movs	r0, #0
	bl	lv_disp_get_dpi
	cmp	r0, #120
	blt	.LBB9_20
@ %bb.19:
	movs	r0, #0
	bl	lv_disp_get_dpi
	movs	r1, #80
	add.w	r0, r1, r0, lsl #1
	smmul	r0, r0, r6
	asrs	r1, r0, #6
	add.w	r0, r1, r0, lsr #31
	b	.LBB9_21
.LBB9_20:
	.loc	13 0 69                         @ lvgl/src/lv_themes/lv_theme_material.c:0:69
	movs	r0, #1
.LBB9_21:
	.loc	13 534 5                        @ lvgl/src/lv_themes/lv_theme_material.c:534:5
	sxth	r1, r0
	mov	r0, r4
	bl	lv_style_set_pad_inner
	.loc	13 535 66 is_stmt 1             @ lvgl/src/lv_themes/lv_theme_material.c:535:66
	movs	r0, #0
	.loc	13 535 26 is_stmt 0             @ lvgl/src/lv_themes/lv_theme_material.c:535:26
	ldr	r4, [r5]
	.loc	13 535 66                       @ lvgl/src/lv_themes/lv_theme_material.c:535:66
	bl	lv_disp_get_dpi
	cmp	r0, #240
	blt	.LBB9_23
@ %bb.22:
	movs	r0, #0
	bl	lv_disp_get_dpi
	adds	r0, #80
	smmul	r0, r0, r6
	asrs	r1, r0, #6
	add.w	r1, r1, r0, lsr #31
	b	.LBB9_24
.LBB9_23:
	.loc	13 0 66                         @ lvgl/src/lv_themes/lv_theme_material.c:0:66
	movs	r1, #1
.LBB9_24:
	.loc	13 535 5                        @ lvgl/src/lv_themes/lv_theme_material.c:535:5
	sxth	r1, r1
	.loc	13 535 34                       @ lvgl/src/lv_themes/lv_theme_material.c:535:34
	add.w	r0, r4, #76
	.loc	13 535 5                        @ lvgl/src/lv_themes/lv_theme_material.c:535:5
	bl	lv_style_set_radius
	.loc	13 538 1 is_stmt 1              @ lvgl/src/lv_themes/lv_theme_material.c:538:1
	add	sp, #4
	pop	{r4, r5, r6, r7, pc}
.Ltmp30:
.Lfunc_end9:
	.size	chart_init, .Lfunc_end9-chart_init
	.cfi_endproc
	.cantunwind
	.fnend
                                        @ -- End function
	.section	.text.calendar_init,"ax",%progbits
	.p2align	3                               @ -- Begin function calendar_init
	.type	calendar_init,%function
	.code	16                              @ @calendar_init
	.thumb_func
calendar_init:
.Lfunc_begin10:
	.loc	13 541 0                        @ lvgl/src/lv_themes/lv_theme_material.c:541:0
	.fnstart
	.cfi_startproc
@ %bb.0:
	.save	{r4, r5, r6, r7, r8, lr}
	push.w	{r4, r5, r6, r7, r8, lr}
	.cfi_def_cfa_offset 24
	.cfi_offset lr, -4
	.cfi_offset r8, -8
	.cfi_offset r7, -12
	.cfi_offset r6, -16
	.cfi_offset r5, -20
	.cfi_offset r4, -24
.Ltmp31:
	.loc	13 544 21 prologue_end          @ lvgl/src/lv_themes/lv_theme_material.c:544:21
	movw	r7, :lower16:styles
	movt	r7, :upper16:styles
	ldr	r0, [r7]
	.loc	13 544 29 is_stmt 0             @ lvgl/src/lv_themes/lv_theme_material.c:544:29
	adds	r0, #52
	.loc	13 544 5                        @ lvgl/src/lv_themes/lv_theme_material.c:544:5
	bl	lv_style_reset
	.loc	13 545 27 is_stmt 1             @ lvgl/src/lv_themes/lv_theme_material.c:545:27
	ldr	r0, [r7]
	.loc	13 545 5 is_stmt 0              @ lvgl/src/lv_themes/lv_theme_material.c:545:5
	movs	r1, #0
	.loc	13 545 35                       @ lvgl/src/lv_themes/lv_theme_material.c:545:35
	adds	r0, #52
	.loc	13 545 5                        @ lvgl/src/lv_themes/lv_theme_material.c:545:5
	bl	lv_style_set_pad_top
	.loc	13 546 28 is_stmt 1             @ lvgl/src/lv_themes/lv_theme_material.c:546:28
	ldr	r0, [r7]
	.loc	13 546 36 is_stmt 0             @ lvgl/src/lv_themes/lv_theme_material.c:546:36
	add.w	r4, r0, #52
	.loc	13 546 71                       @ lvgl/src/lv_themes/lv_theme_material.c:546:71
	movs	r0, #0
	bl	lv_disp_get_size_category
	mov	r5, r0
	movs	r0, #0
	bl	lv_disp_get_dpi
	rsb	r0, r0, r0, lsl #4
	cmp	r5, #1
	bhi	.LBB10_3
@ %bb.1:
	cmp	r0, #240
	blt	.LBB10_6
@ %bb.2:
	movs	r0, #0
	bl	lv_disp_get_dpi
	rsb	r0, r0, r0, lsl #4
	adds	r0, #80
	b	.LBB10_5
.LBB10_3:
	lsls	r0, r0, #1
	cmp	r0, #240
	blt	.LBB10_6
@ %bb.4:
	movs	r0, #0
	bl	lv_disp_get_dpi
	rsb	r0, r0, r0, lsl #4
	movs	r1, #80
	add.w	r0, r1, r0, lsl #1
.LBB10_5:
	.loc	13 0 71                         @ lvgl/src/lv_themes/lv_theme_material.c:0:71
	movw	r1, #26215
	movt	r1, #26214
	.loc	13 546 71                       @ lvgl/src/lv_themes/lv_theme_material.c:546:71
	smmul	r0, r0, r1
	asrs	r1, r0, #6
	add.w	r0, r1, r0, lsr #31
	b	.LBB10_7
.LBB10_6:
	.loc	13 0 71                         @ lvgl/src/lv_themes/lv_theme_material.c:0:71
	movs	r0, #1
.LBB10_7:
	.loc	13 546 5                        @ lvgl/src/lv_themes/lv_theme_material.c:546:5
	sxth	r1, r0
	mov	r0, r4
	bl	lv_style_set_pad_left
	.loc	13 547 29 is_stmt 1             @ lvgl/src/lv_themes/lv_theme_material.c:547:29
	ldr	r0, [r7]
	.loc	13 547 37 is_stmt 0             @ lvgl/src/lv_themes/lv_theme_material.c:547:37
	add.w	r4, r0, #52
	.loc	13 547 72                       @ lvgl/src/lv_themes/lv_theme_material.c:547:72
	movs	r0, #0
	bl	lv_disp_get_size_category
	mov	r5, r0
	movs	r0, #0
	bl	lv_disp_get_dpi
	rsb	r0, r0, r0, lsl #4
	cmp	r5, #1
	bhi	.LBB10_10
@ %bb.8:
	cmp	r0, #240
	blt	.LBB10_13
@ %bb.9:
	movs	r0, #0
	bl	lv_disp_get_dpi
	rsb	r0, r0, r0, lsl #4
	adds	r0, #80
	b	.LBB10_12
.LBB10_10:
	lsls	r0, r0, #1
	cmp	r0, #240
	blt	.LBB10_13
@ %bb.11:
	movs	r0, #0
	bl	lv_disp_get_dpi
	rsb	r0, r0, r0, lsl #4
	movs	r1, #80
	add.w	r0, r1, r0, lsl #1
.LBB10_12:
	.loc	13 0 72                         @ lvgl/src/lv_themes/lv_theme_material.c:0:72
	movw	r1, #26215
	movt	r1, #26214
	.loc	13 547 72                       @ lvgl/src/lv_themes/lv_theme_material.c:547:72
	smmul	r0, r0, r1
	asrs	r1, r0, #6
	add.w	r0, r1, r0, lsr #31
	b	.LBB10_14
.LBB10_13:
	.loc	13 0 72                         @ lvgl/src/lv_themes/lv_theme_material.c:0:72
	movs	r0, #1
.LBB10_14:
	.loc	13 547 5                        @ lvgl/src/lv_themes/lv_theme_material.c:547:5
	sxth	r1, r0
	mov	r0, r4
	bl	lv_style_set_pad_right
	.loc	13 548 30 is_stmt 1             @ lvgl/src/lv_themes/lv_theme_material.c:548:30
	ldr	r0, [r7]
	.loc	13 548 5 is_stmt 0              @ lvgl/src/lv_themes/lv_theme_material.c:548:5
	movs	r1, #0
	.loc	13 548 38                       @ lvgl/src/lv_themes/lv_theme_material.c:548:38
	adds	r0, #52
	.loc	13 548 5                        @ lvgl/src/lv_themes/lv_theme_material.c:548:5
	bl	lv_style_set_pad_bottom
	.loc	13 549 30 is_stmt 1             @ lvgl/src/lv_themes/lv_theme_material.c:549:30
	ldr	r0, [r7]
	.loc	13 549 38 is_stmt 0             @ lvgl/src/lv_themes/lv_theme_material.c:549:38
	add.w	r4, r0, #52
	.loc	13 549 73                       @ lvgl/src/lv_themes/lv_theme_material.c:549:73
	movs	r0, #0
	bl	lv_disp_get_size_category
	mov	r5, r0
	movs	r0, #0
	bl	lv_disp_get_dpi
	rsb	r0, r0, r0, lsl #4
	cmp	r5, #1
	bhi	.LBB10_17
@ %bb.15:
	cmp	r0, #240
	blt	.LBB10_20
@ %bb.16:
	movs	r0, #0
	bl	lv_disp_get_dpi
	rsb	r0, r0, r0, lsl #4
	adds	r0, #80
	b	.LBB10_19
.LBB10_17:
	lsls	r0, r0, #1
	cmp	r0, #240
	blt	.LBB10_20
@ %bb.18:
	movs	r0, #0
	bl	lv_disp_get_dpi
	rsb	r0, r0, r0, lsl #4
	movs	r1, #80
	add.w	r0, r1, r0, lsl #1
.LBB10_19:
	.loc	13 0 73                         @ lvgl/src/lv_themes/lv_theme_material.c:0:73
	movw	r1, #26215
	movt	r1, #26214
	.loc	13 549 73                       @ lvgl/src/lv_themes/lv_theme_material.c:549:73
	smmul	r0, r0, r1
	asrs	r1, r0, #6
	add.w	r0, r1, r0, lsr #31
	b	.LBB10_21
.LBB10_20:
	.loc	13 0 73                         @ lvgl/src/lv_themes/lv_theme_material.c:0:73
	movs	r0, #1
.LBB10_21:
	.loc	13 549 5                        @ lvgl/src/lv_themes/lv_theme_material.c:549:5
	sxth	r1, r0
	mov	r0, r4
	bl	lv_style_set_margin_top
	.loc	13 550 33 is_stmt 1             @ lvgl/src/lv_themes/lv_theme_material.c:550:33
	ldr	r0, [r7]
	.loc	13 550 41 is_stmt 0             @ lvgl/src/lv_themes/lv_theme_material.c:550:41
	add.w	r4, r0, #52
	.loc	13 550 76                       @ lvgl/src/lv_themes/lv_theme_material.c:550:76
	movs	r0, #0
	bl	lv_disp_get_size_category
	mov	r5, r0
	movs	r0, #0
	bl	lv_disp_get_dpi
	rsb	r0, r0, r0, lsl #4
	cmp	r5, #1
	bhi	.LBB10_24
@ %bb.22:
	cmp	r0, #240
	blt	.LBB10_27
@ %bb.23:
	movs	r0, #0
	bl	lv_disp_get_dpi
	rsb	r0, r0, r0, lsl #4
	adds	r0, #80
	b	.LBB10_26
.LBB10_24:
	lsls	r0, r0, #1
	cmp	r0, #240
	blt	.LBB10_27
@ %bb.25:
	movs	r0, #0
	bl	lv_disp_get_dpi
	rsb	r0, r0, r0, lsl #4
	movs	r1, #80
	add.w	r0, r1, r0, lsl #1
.LBB10_26:
	.loc	13 0 76                         @ lvgl/src/lv_themes/lv_theme_material.c:0:76
	movw	r1, #26215
	movt	r1, #26214
	.loc	13 550 76                       @ lvgl/src/lv_themes/lv_theme_material.c:550:76
	smmul	r0, r0, r1
	asrs	r1, r0, #6
	add.w	r0, r1, r0, lsr #31
	b	.LBB10_28
.LBB10_27:
	.loc	13 0 76                         @ lvgl/src/lv_themes/lv_theme_material.c:0:76
	movs	r0, #1
.LBB10_28:
	.loc	13 550 5                        @ lvgl/src/lv_themes/lv_theme_material.c:550:5
	sxth	r1, r0
	mov	r0, r4
	bl	lv_style_set_margin_bottom
	.loc	13 551 73 is_stmt 1             @ lvgl/src/lv_themes/lv_theme_material.c:551:73
	movw	r8, :lower16:theme
	.loc	13 551 30 is_stmt 0             @ lvgl/src/lv_themes/lv_theme_material.c:551:30
	ldr	r1, [r7]
	.loc	13 551 73                       @ lvgl/src/lv_themes/lv_theme_material.c:551:73
	movt	r8, :upper16:theme
	.loc	13 551 38                       @ lvgl/src/lv_themes/lv_theme_material.c:551:38
	add.w	r5, r1, #52
	.loc	13 551 73                       @ lvgl/src/lv_themes/lv_theme_material.c:551:73
	ldrb.w	r0, [r8, #36]
	lsls	r0, r0, #30
	bmi	.LBB10_30
@ %bb.29:
	.loc	13 0 73                         @ lvgl/src/lv_themes/lv_theme_material.c:0:73
	mov.w	r1, #16711680
	mov.w	r2, #65280
	movs	r0, #255
	b	.LBB10_31
.LBB10_30:
	movw	r0, #34952
	movt	r0, #136
	.loc	13 551 84                       @ lvgl/src/lv_themes/lv_theme_material.c:551:84
	bl	lv_color_hex
	movw	r1, #65535
	.loc	13 551 5                        @ lvgl/src/lv_themes/lv_theme_material.c:551:5
	bic	r2, r0, #255
	bic.w	r1, r0, r1
.LBB10_31:
	uxtb	r0, r0
	and	r2, r2, #65280
	add	r0, r2
	movw	r4, #16463
	orrs	r0, r1
	movs	r1, #16
	orr	r2, r0, #-16777216
	mov	r0, r5
	movt	r4, #49
	bl	lv_style_set_text_color
	.loc	13 553 21 is_stmt 1             @ lvgl/src/lv_themes/lv_theme_material.c:553:21
	ldr	r0, [r7]
	.loc	13 553 29 is_stmt 0             @ lvgl/src/lv_themes/lv_theme_material.c:553:29
	adds	r0, #56
	.loc	13 553 5                        @ lvgl/src/lv_themes/lv_theme_material.c:553:5
	bl	lv_style_reset
	.loc	13 555 29 is_stmt 1             @ lvgl/src/lv_themes/lv_theme_material.c:555:29
	ldrb.w	r0, [r8, #36]
	.loc	13 554 30                       @ lvgl/src/lv_themes/lv_theme_material.c:554:30
	ldr	r1, [r7]
	.loc	13 554 38 is_stmt 0             @ lvgl/src/lv_themes/lv_theme_material.c:554:38
	add.w	r5, r1, #56
	.loc	13 555 29 is_stmt 1             @ lvgl/src/lv_themes/lv_theme_material.c:555:29
	lsls	r0, r0, #30
	bmi	.LBB10_33
@ %bb.32:
	.loc	13 555 65 is_stmt 0             @ lvgl/src/lv_themes/lv_theme_material.c:555:65
	movw	r0, #3822
	bl	lv_color_hex3
	b	.LBB10_34
.LBB10_33:
	.loc	13 555 40                       @ lvgl/src/lv_themes/lv_theme_material.c:555:40
	mov	r0, r4
	bl	lv_color_hex
.LBB10_34:
	.loc	13 0 0                          @ lvgl/src/lv_themes/lv_theme_material.c:0:0
	mov	r2, r0
	.loc	13 554 5 is_stmt 1              @ lvgl/src/lv_themes/lv_theme_material.c:554:5
	movs	r1, #0
	mov	r0, r5
	bl	lv_style_set_text_color
	.loc	13 556 28                       @ lvgl/src/lv_themes/lv_theme_material.c:556:28
	ldr	r0, [r7]
	.loc	13 556 36 is_stmt 0             @ lvgl/src/lv_themes/lv_theme_material.c:556:36
	add.w	r5, r0, #56
	.loc	13 556 73                       @ lvgl/src/lv_themes/lv_theme_material.c:556:73
	movs	r0, #0
	bl	lv_disp_get_size_category
	mov	r6, r0
	movs	r0, #0
	bl	lv_disp_get_dpi
	rsb	r0, r0, r0, lsl #4
	cmp	r6, #1
	bhi	.LBB10_37
@ %bb.35:
	cmp	r0, #240
	blt	.LBB10_40
@ %bb.36:
	movs	r0, #0
	bl	lv_disp_get_dpi
	rsb	r0, r0, r0, lsl #4
	adds	r0, #80
	b	.LBB10_39
.LBB10_37:
	lsls	r0, r0, #1
	cmp	r0, #240
	blt	.LBB10_40
@ %bb.38:
	movs	r0, #0
	bl	lv_disp_get_dpi
	rsb	r0, r0, r0, lsl #4
	movs	r1, #80
	add.w	r0, r1, r0, lsl #1
.LBB10_39:
	.loc	13 0 73                         @ lvgl/src/lv_themes/lv_theme_material.c:0:73
	movw	r1, #26215
	movt	r1, #26214
	.loc	13 556 73                       @ lvgl/src/lv_themes/lv_theme_material.c:556:73
	smmul	r0, r0, r1
	asrs	r1, r0, #6
	add.w	r0, r1, r0, lsr #31
	b	.LBB10_41
.LBB10_40:
	.loc	13 0 73                         @ lvgl/src/lv_themes/lv_theme_material.c:0:73
	movs	r0, #1
.LBB10_41:
	.loc	13 556 5                        @ lvgl/src/lv_themes/lv_theme_material.c:556:5
	sxth	r1, r0
	mov	r0, r5
	bl	lv_style_set_pad_left
	.loc	13 557 29 is_stmt 1             @ lvgl/src/lv_themes/lv_theme_material.c:557:29
	ldr	r0, [r7]
	.loc	13 557 37 is_stmt 0             @ lvgl/src/lv_themes/lv_theme_material.c:557:37
	add.w	r5, r0, #56
	.loc	13 557 74                       @ lvgl/src/lv_themes/lv_theme_material.c:557:74
	movs	r0, #0
	bl	lv_disp_get_size_category
	mov	r6, r0
	movs	r0, #0
	bl	lv_disp_get_dpi
	rsb	r0, r0, r0, lsl #4
	cmp	r6, #1
	bhi	.LBB10_44
@ %bb.42:
	cmp	r0, #240
	blt	.LBB10_47
@ %bb.43:
	movs	r0, #0
	bl	lv_disp_get_dpi
	rsb	r0, r0, r0, lsl #4
	adds	r0, #80
	b	.LBB10_46
.LBB10_44:
	lsls	r0, r0, #1
	cmp	r0, #240
	blt	.LBB10_47
@ %bb.45:
	movs	r0, #0
	bl	lv_disp_get_dpi
	rsb	r0, r0, r0, lsl #4
	movs	r1, #80
	add.w	r0, r1, r0, lsl #1
.LBB10_46:
	.loc	13 0 74                         @ lvgl/src/lv_themes/lv_theme_material.c:0:74
	movw	r1, #26215
	movt	r1, #26214
	.loc	13 557 74                       @ lvgl/src/lv_themes/lv_theme_material.c:557:74
	smmul	r0, r0, r1
	asrs	r1, r0, #6
	add.w	r0, r1, r0, lsr #31
	b	.LBB10_48
.LBB10_47:
	.loc	13 0 74                         @ lvgl/src/lv_themes/lv_theme_material.c:0:74
	movs	r0, #1
.LBB10_48:
	.loc	13 557 5                        @ lvgl/src/lv_themes/lv_theme_material.c:557:5
	sxth	r1, r0
	mov	r0, r5
	bl	lv_style_set_pad_right
	.loc	13 558 30 is_stmt 1             @ lvgl/src/lv_themes/lv_theme_material.c:558:30
	ldr	r0, [r7]
	.loc	13 558 38 is_stmt 0             @ lvgl/src/lv_themes/lv_theme_material.c:558:38
	add.w	r5, r0, #56
	.loc	13 558 75                       @ lvgl/src/lv_themes/lv_theme_material.c:558:75
	movs	r0, #0
	bl	lv_disp_get_size_category
	mov	r6, r0
	movs	r0, #0
	bl	lv_disp_get_dpi
	rsb	r0, r0, r0, lsl #4
	cmp	r6, #1
	bhi	.LBB10_51
@ %bb.49:
	cmp	r0, #240
	blt	.LBB10_54
@ %bb.50:
	movs	r0, #0
	bl	lv_disp_get_dpi
	rsb	r0, r0, r0, lsl #4
	adds	r0, #80
	b	.LBB10_53
.LBB10_51:
	lsls	r0, r0, #1
	cmp	r0, #240
	blt	.LBB10_54
@ %bb.52:
	movs	r0, #0
	bl	lv_disp_get_dpi
	rsb	r0, r0, r0, lsl #4
	movs	r1, #80
	add.w	r0, r1, r0, lsl #1
.LBB10_53:
	.loc	13 0 75                         @ lvgl/src/lv_themes/lv_theme_material.c:0:75
	movw	r1, #26215
	movt	r1, #26214
	.loc	13 558 75                       @ lvgl/src/lv_themes/lv_theme_material.c:558:75
	smmul	r0, r0, r1
	asrs	r1, r0, #6
	add.w	r0, r1, r0, lsr #31
	b	.LBB10_55
.LBB10_54:
	.loc	13 0 75                         @ lvgl/src/lv_themes/lv_theme_material.c:0:75
	movs	r0, #1
.LBB10_55:
	.loc	13 558 5                        @ lvgl/src/lv_themes/lv_theme_material.c:558:5
	sxth	r1, r0
	mov	r0, r5
	bl	lv_style_set_pad_bottom
	.loc	13 560 21 is_stmt 1             @ lvgl/src/lv_themes/lv_theme_material.c:560:21
	ldr	r0, [r7]
	.loc	13 560 29 is_stmt 0             @ lvgl/src/lv_themes/lv_theme_material.c:560:29
	adds	r0, #48
	.loc	13 560 5                        @ lvgl/src/lv_themes/lv_theme_material.c:560:5
	bl	lv_style_reset
	.loc	13 561 26 is_stmt 1             @ lvgl/src/lv_themes/lv_theme_material.c:561:26
	ldr	r0, [r7]
	.loc	13 561 34 is_stmt 0             @ lvgl/src/lv_themes/lv_theme_material.c:561:34
	add.w	r5, r0, #48
	.loc	13 561 72                       @ lvgl/src/lv_themes/lv_theme_material.c:561:72
	movs	r0, #0
	bl	lv_disp_get_dpi
	cmp	r0, #60
	blt	.LBB10_57
@ %bb.56:
	movs	r0, #0
	bl	lv_disp_get_dpi
	movs	r1, #80
	add.w	r0, r1, r0, lsl #2
	movw	r1, #26215
	movt	r1, #26214
	smmul	r0, r0, r1
	asrs	r1, r0, #6
	add.w	r0, r1, r0, lsr #31
	b	.LBB10_58
.LBB10_57:
	.loc	13 0 72                         @ lvgl/src/lv_themes/lv_theme_material.c:0:72
	movs	r0, #1
.LBB10_58:
	.loc	13 561 5                        @ lvgl/src/lv_themes/lv_theme_material.c:561:5
	sxth	r1, r0
	movs	r6, #0
	mov	r0, r5
	movt	r6, #65535
	bl	lv_style_set_radius
	.loc	13 563 29 is_stmt 1             @ lvgl/src/lv_themes/lv_theme_material.c:563:29
	ldrb.w	r0, [r8, #36]
	.loc	13 562 30                       @ lvgl/src/lv_themes/lv_theme_material.c:562:30
	ldr	r1, [r7]
	.loc	13 562 38 is_stmt 0             @ lvgl/src/lv_themes/lv_theme_material.c:562:38
	add.w	r5, r1, #48
	.loc	13 563 29 is_stmt 1             @ lvgl/src/lv_themes/lv_theme_material.c:563:29
	lsls	r0, r0, #30
	bmi	.LBB10_60
@ %bb.59:
	.loc	13 0 29 is_stmt 0               @ lvgl/src/lv_themes/lv_theme_material.c:0:29
	mov.w	r1, #65280
	movs	r0, #255
	mov	r2, r6
	b	.LBB10_61
.LBB10_60:
	.loc	13 563 40                       @ lvgl/src/lv_themes/lv_theme_material.c:563:40
	mov	r0, r4
	bl	lv_color_hex
	.loc	13 563 29                       @ lvgl/src/lv_themes/lv_theme_material.c:563:29
	and	r1, r0, #16711680
	add.w	r2, r1, #-16777216
	and	r1, r0, #65280
	uxtb	r0, r0
.LBB10_61:
	.loc	13 562 5 is_stmt 1              @ lvgl/src/lv_themes/lv_theme_material.c:562:5
	orrs	r0, r1
	movs	r1, #1
	orrs	r2, r0
	mov	r0, r5
	bl	lv_style_set_text_color
	.loc	13 564 30                       @ lvgl/src/lv_themes/lv_theme_material.c:564:30
	ldr	r0, [r7]
	movw	r2, #32896
	.loc	13 564 38 is_stmt 0             @ lvgl/src/lv_themes/lv_theme_material.c:564:38
	adds	r0, #48
	movt	r2, #65408
	.loc	13 564 5                        @ lvgl/src/lv_themes/lv_theme_material.c:564:5
	movs	r1, #32
	bl	lv_style_set_text_color
	.loc	13 565 26 is_stmt 1             @ lvgl/src/lv_themes/lv_theme_material.c:565:26
	ldr	r0, [r7]
	.loc	13 565 72 is_stmt 0             @ lvgl/src/lv_themes/lv_theme_material.c:565:72
	ldr.w	r1, [r8, #36]
	.loc	13 565 5                        @ lvgl/src/lv_themes/lv_theme_material.c:565:5
	lsls	r1, r1, #30
	mov.w	r2, #51
	.loc	13 565 34                       @ lvgl/src/lv_themes/lv_theme_material.c:565:34
	add.w	r0, r0, #48
	.loc	13 565 5                        @ lvgl/src/lv_themes/lv_theme_material.c:565:5
	mov.w	r1, #1
	it	pl
	movpl	r2, #102
	bl	lv_style_set_bg_opa
	.loc	13 566 26 is_stmt 1             @ lvgl/src/lv_themes/lv_theme_material.c:566:26
	ldr	r0, [r7]
	.loc	13 566 5 is_stmt 0              @ lvgl/src/lv_themes/lv_theme_material.c:566:5
	movs	r1, #16
	.loc	13 566 34                       @ lvgl/src/lv_themes/lv_theme_material.c:566:34
	adds	r0, #48
	.loc	13 566 5                        @ lvgl/src/lv_themes/lv_theme_material.c:566:5
	movs	r2, #51
	bl	lv_style_set_bg_opa
	.loc	13 567 26 is_stmt 1             @ lvgl/src/lv_themes/lv_theme_material.c:567:26
	ldr	r0, [r7]
	.loc	13 567 5 is_stmt 0              @ lvgl/src/lv_themes/lv_theme_material.c:567:5
	movs	r1, #2
	.loc	13 567 34                       @ lvgl/src/lv_themes/lv_theme_material.c:567:34
	adds	r0, #48
	.loc	13 567 5                        @ lvgl/src/lv_themes/lv_theme_material.c:567:5
	movs	r2, #255
	movs	r5, #255
	bl	lv_style_set_bg_opa
	.loc	13 568 30 is_stmt 1             @ lvgl/src/lv_themes/lv_theme_material.c:568:30
	ldr	r0, [r7]
	.loc	13 568 5 is_stmt 0              @ lvgl/src/lv_themes/lv_theme_material.c:568:5
	movs	r1, #2
	.loc	13 568 38                       @ lvgl/src/lv_themes/lv_theme_material.c:568:38
	adds	r0, #48
	.loc	13 568 5                        @ lvgl/src/lv_themes/lv_theme_material.c:568:5
	mov.w	r2, #-1
	bl	lv_style_set_text_color
	.loc	13 569 28 is_stmt 1             @ lvgl/src/lv_themes/lv_theme_material.c:569:28
	ldr	r0, [r7]
	.loc	13 569 5 is_stmt 0              @ lvgl/src/lv_themes/lv_theme_material.c:569:5
	ldr.w	r2, [r8, #12]
	.loc	13 569 36                       @ lvgl/src/lv_themes/lv_theme_material.c:569:36
	adds	r0, #48
	.loc	13 569 5                        @ lvgl/src/lv_themes/lv_theme_material.c:569:5
	movs	r1, #2
	bl	lv_style_set_bg_color
	.loc	13 571 27 is_stmt 1             @ lvgl/src/lv_themes/lv_theme_material.c:571:27
	ldrb.w	r0, [r8, #36]
	.loc	13 570 28                       @ lvgl/src/lv_themes/lv_theme_material.c:570:28
	ldr	r1, [r7]
	.loc	13 570 36 is_stmt 0             @ lvgl/src/lv_themes/lv_theme_material.c:570:36
	add.w	r4, r1, #48
	.loc	13 571 27 is_stmt 1             @ lvgl/src/lv_themes/lv_theme_material.c:571:27
	lsls	r0, r0, #30
	bmi	.LBB10_63
@ %bb.62:
	.loc	13 0 27 is_stmt 0               @ lvgl/src/lv_themes/lv_theme_material.c:0:27
	mov.w	r1, #65280
	b	.LBB10_64
.LBB10_63:
	movw	r0, #26214
	movt	r0, #102
	.loc	13 571 38                       @ lvgl/src/lv_themes/lv_theme_material.c:571:38
	bl	lv_color_hex
	.loc	13 571 27                       @ lvgl/src/lv_themes/lv_theme_material.c:571:27
	uxtb	r5, r0
	and	r1, r0, #16711680
	add.w	r6, r1, #-16777216
	and	r1, r0, #65280
.LBB10_64:
	.loc	13 570 5 is_stmt 1              @ lvgl/src/lv_themes/lv_theme_material.c:570:5
	orr.w	r0, r1, r6
	movs	r1, #0
	orr.w	r2, r0, r5
	mov	r0, r4
	bl	lv_style_set_bg_color
	.loc	13 572 28                       @ lvgl/src/lv_themes/lv_theme_material.c:572:28
	ldr	r0, [r7]
	.loc	13 572 5 is_stmt 0              @ lvgl/src/lv_themes/lv_theme_material.c:572:5
	ldr.w	r2, [r8, #12]
	.loc	13 572 36                       @ lvgl/src/lv_themes/lv_theme_material.c:572:36
	adds	r0, #48
	.loc	13 572 5                        @ lvgl/src/lv_themes/lv_theme_material.c:572:5
	movs	r1, #1
	movs	r5, #1
	bl	lv_style_set_bg_color
	.loc	13 573 32 is_stmt 1             @ lvgl/src/lv_themes/lv_theme_material.c:573:32
	ldr	r0, [r7]
	.loc	13 573 5 is_stmt 0              @ lvgl/src/lv_themes/lv_theme_material.c:573:5
	movs	r1, #1
	.loc	13 573 40                       @ lvgl/src/lv_themes/lv_theme_material.c:573:40
	adds	r0, #48
	.loc	13 573 5                        @ lvgl/src/lv_themes/lv_theme_material.c:573:5
	movs	r2, #2
	bl	lv_style_set_border_width
	.loc	13 574 31 is_stmt 1             @ lvgl/src/lv_themes/lv_theme_material.c:574:31
	ldr	r0, [r7]
	.loc	13 574 5 is_stmt 0              @ lvgl/src/lv_themes/lv_theme_material.c:574:5
	movs	r1, #1
	.loc	13 574 39                       @ lvgl/src/lv_themes/lv_theme_material.c:574:39
	adds	r0, #48
	.loc	13 574 5                        @ lvgl/src/lv_themes/lv_theme_material.c:574:5
	movs	r2, #4
	bl	lv_style_set_border_side
	.loc	13 575 32 is_stmt 1             @ lvgl/src/lv_themes/lv_theme_material.c:575:32
	ldr	r0, [r7]
	.loc	13 575 5 is_stmt 0              @ lvgl/src/lv_themes/lv_theme_material.c:575:5
	ldr.w	r2, [r8, #12]
	.loc	13 575 40                       @ lvgl/src/lv_themes/lv_theme_material.c:575:40
	adds	r0, #48
	.loc	13 575 5                        @ lvgl/src/lv_themes/lv_theme_material.c:575:5
	movs	r1, #1
	bl	lv_style_set_border_color
	.loc	13 576 29 is_stmt 1             @ lvgl/src/lv_themes/lv_theme_material.c:576:29
	ldr	r0, [r7]
	.loc	13 576 37 is_stmt 0             @ lvgl/src/lv_themes/lv_theme_material.c:576:37
	add.w	r4, r0, #48
	.loc	13 576 75                       @ lvgl/src/lv_themes/lv_theme_material.c:576:75
	movs	r0, #0
	bl	lv_disp_get_dpi
	add.w	r0, r0, r0, lsl #1
	cmp	r0, #240
	blt	.LBB10_66
@ %bb.65:
	movs	r0, #0
	bl	lv_disp_get_dpi
	add.w	r0, r0, r0, lsl #1
	movw	r1, #26215
	adds	r0, #80
	movt	r1, #26214
	smmul	r0, r0, r1
	asrs	r1, r0, #6
	add.w	r5, r1, r0, lsr #31
.LBB10_66:
	.loc	13 576 5                        @ lvgl/src/lv_themes/lv_theme_material.c:576:5
	sxth	r1, r5
	mov	r0, r4
	bl	lv_style_set_pad_inner
	.loc	13 577 28 is_stmt 1             @ lvgl/src/lv_themes/lv_theme_material.c:577:28
	ldr	r0, [r7]
	.loc	13 577 36 is_stmt 0             @ lvgl/src/lv_themes/lv_theme_material.c:577:36
	add.w	r4, r0, #48
	.loc	13 577 74                       @ lvgl/src/lv_themes/lv_theme_material.c:577:74
	movs	r0, #0
	bl	lv_disp_get_size_category
	mov	r5, r0
	movs	r0, #0
	bl	lv_disp_get_dpi
	rsb	r0, r0, r0, lsl #4
	cmp	r5, #1
	bhi	.LBB10_69
@ %bb.67:
	cmp	r0, #240
	blt	.LBB10_72
@ %bb.68:
	movs	r0, #0
	bl	lv_disp_get_dpi
	rsb	r0, r0, r0, lsl #4
	adds	r0, #80
	b	.LBB10_71
.LBB10_69:
	lsls	r0, r0, #1
	cmp	r0, #240
	blt	.LBB10_72
@ %bb.70:
	movs	r0, #0
	bl	lv_disp_get_dpi
	rsb	r0, r0, r0, lsl #4
	movs	r1, #80
	add.w	r0, r1, r0, lsl #1
.LBB10_71:
	.loc	13 0 74                         @ lvgl/src/lv_themes/lv_theme_material.c:0:74
	movw	r1, #26215
	movt	r1, #26214
	.loc	13 577 74                       @ lvgl/src/lv_themes/lv_theme_material.c:577:74
	smmul	r0, r0, r1
	asrs	r1, r0, #6
	add.w	r0, r1, r0, lsr #31
	b	.LBB10_73
.LBB10_72:
	.loc	13 0 74                         @ lvgl/src/lv_themes/lv_theme_material.c:0:74
	movs	r0, #1
.LBB10_73:
	.loc	13 577 5                        @ lvgl/src/lv_themes/lv_theme_material.c:577:5
	sxth	r1, r0
	mov	r0, r4
	bl	lv_style_set_pad_left
	.loc	13 578 29 is_stmt 1             @ lvgl/src/lv_themes/lv_theme_material.c:578:29
	ldr	r0, [r7]
	.loc	13 578 37 is_stmt 0             @ lvgl/src/lv_themes/lv_theme_material.c:578:37
	add.w	r4, r0, #48
	.loc	13 578 75                       @ lvgl/src/lv_themes/lv_theme_material.c:578:75
	movs	r0, #0
	bl	lv_disp_get_size_category
	mov	r5, r0
	movs	r0, #0
	bl	lv_disp_get_dpi
	rsb	r0, r0, r0, lsl #4
	cmp	r5, #1
	bhi	.LBB10_76
@ %bb.74:
	cmp	r0, #240
	blt	.LBB10_79
@ %bb.75:
	movs	r0, #0
	bl	lv_disp_get_dpi
	rsb	r0, r0, r0, lsl #4
	adds	r0, #80
	b	.LBB10_78
.LBB10_76:
	lsls	r0, r0, #1
	cmp	r0, #240
	blt	.LBB10_79
@ %bb.77:
	movs	r0, #0
	bl	lv_disp_get_dpi
	rsb	r0, r0, r0, lsl #4
	movs	r1, #80
	add.w	r0, r1, r0, lsl #1
.LBB10_78:
	.loc	13 0 75                         @ lvgl/src/lv_themes/lv_theme_material.c:0:75
	movw	r1, #26215
	movt	r1, #26214
	.loc	13 578 75                       @ lvgl/src/lv_themes/lv_theme_material.c:578:75
	smmul	r0, r0, r1
	asrs	r1, r0, #6
	add.w	r0, r1, r0, lsr #31
	b	.LBB10_80
.LBB10_79:
	.loc	13 0 75                         @ lvgl/src/lv_themes/lv_theme_material.c:0:75
	movs	r0, #1
.LBB10_80:
	.loc	13 578 5                        @ lvgl/src/lv_themes/lv_theme_material.c:578:5
	sxth	r1, r0
	mov	r0, r4
	bl	lv_style_set_pad_right
	.loc	13 579 76 is_stmt 1             @ lvgl/src/lv_themes/lv_theme_material.c:579:76
	movs	r0, #0
	.loc	13 579 30 is_stmt 0             @ lvgl/src/lv_themes/lv_theme_material.c:579:30
	ldr	r5, [r7]
	.loc	13 579 76                       @ lvgl/src/lv_themes/lv_theme_material.c:579:76
	bl	lv_disp_get_size_category
	mov	r4, r0
	movs	r0, #0
	bl	lv_disp_get_dpi
	rsb	r0, r0, r0, lsl #4
	cmp	r4, #1
	bhi	.LBB10_83
@ %bb.81:
	cmp	r0, #240
	blt	.LBB10_85
@ %bb.82:
	movs	r0, #0
	bl	lv_disp_get_dpi
	rsb	r0, r0, r0, lsl #4
	movw	r1, #26215
	adds	r0, #80
	movt	r1, #26214
	smmul	r0, r0, r1
	asrs	r1, r0, #6
	add.w	r1, r1, r0, lsr #31
	b	.LBB10_87
.LBB10_83:
	lsls	r0, r0, #1
	cmp	r0, #240
	blt	.LBB10_86
@ %bb.84:
	movs	r0, #0
	bl	lv_disp_get_dpi
	rsb	r0, r0, r0, lsl #4
	movs	r1, #80
	add.w	r0, r1, r0, lsl #1
	movw	r1, #26215
	movt	r1, #26214
	smmul	r0, r0, r1
	asrs	r1, r0, #6
	add.w	r1, r1, r0, lsr #31
	b	.LBB10_87
.LBB10_85:
	.loc	13 0 76                         @ lvgl/src/lv_themes/lv_theme_material.c:0:76
	movs	r1, #1
	b	.LBB10_87
.LBB10_86:
	movs	r1, #1
.LBB10_87:
	.loc	13 579 5                        @ lvgl/src/lv_themes/lv_theme_material.c:579:5
	sxth	r1, r1
	.loc	13 579 38                       @ lvgl/src/lv_themes/lv_theme_material.c:579:38
	add.w	r0, r5, #48
	.loc	13 579 5                        @ lvgl/src/lv_themes/lv_theme_material.c:579:5
	bl	lv_style_set_pad_bottom
	.loc	13 581 1 is_stmt 1              @ lvgl/src/lv_themes/lv_theme_material.c:581:1
	pop.w	{r4, r5, r6, r7, r8, pc}
.Ltmp32:
.Lfunc_end10:
	.size	calendar_init, .Lfunc_end10-calendar_init
	.cfi_endproc
	.cantunwind
	.fnend
                                        @ -- End function
	.section	.text.cpicker_init,"ax",%progbits
	.p2align	3                               @ -- Begin function cpicker_init
	.type	cpicker_init,%function
	.code	16                              @ @cpicker_init
	.thumb_func
cpicker_init:
.Lfunc_begin11:
	.loc	13 584 0                        @ lvgl/src/lv_themes/lv_theme_material.c:584:0
	.fnstart
	.cfi_startproc
@ %bb.0:
	.save	{r4, r5, r6, r7, lr}
	push	{r4, r5, r6, r7, lr}
	.cfi_def_cfa_offset 20
	.cfi_offset lr, -4
	.cfi_offset r7, -8
	.cfi_offset r6, -12
	.cfi_offset r5, -16
	.cfi_offset r4, -20
	.pad	#4
	sub	sp, #4
	.cfi_def_cfa_offset 24
.Ltmp33:
	.loc	13 586 21 prologue_end          @ lvgl/src/lv_themes/lv_theme_material.c:586:21
	movw	r6, :lower16:styles
	movt	r6, :upper16:styles
	ldr	r0, [r6]
	.loc	13 586 29 is_stmt 0             @ lvgl/src/lv_themes/lv_theme_material.c:586:29
	adds	r0, #60
	.loc	13 586 5                        @ lvgl/src/lv_themes/lv_theme_material.c:586:5
	bl	lv_style_reset
	.loc	13 587 31 is_stmt 1             @ lvgl/src/lv_themes/lv_theme_material.c:587:31
	ldr	r0, [r6]
	.loc	13 587 39 is_stmt 0             @ lvgl/src/lv_themes/lv_theme_material.c:587:39
	add.w	r4, r0, #60
	.loc	13 587 69                       @ lvgl/src/lv_themes/lv_theme_material.c:587:69
	movs	r0, #0
	bl	lv_disp_get_dpi
	rsb	r0, r0, r0, lsl #4
	movw	r5, #26215
	lsls	r0, r0, #1
	movt	r5, #26214
	cmp	r0, #240
	blt	.LBB11_2
@ %bb.1:
	movs	r0, #0
	bl	lv_disp_get_dpi
	rsb	r0, r0, r0, lsl #4
	movs	r1, #80
	add.w	r0, r1, r0, lsl #1
	smmul	r0, r0, r5
	asrs	r1, r0, #6
	add.w	r0, r1, r0, lsr #31
	b	.LBB11_3
.LBB11_2:
	.loc	13 0 69                         @ lvgl/src/lv_themes/lv_theme_material.c:0:69
	movs	r0, #1
.LBB11_3:
	.loc	13 587 5                        @ lvgl/src/lv_themes/lv_theme_material.c:587:5
	sxth	r1, r0
	mov	r0, r4
	bl	lv_style_set_scale_width
	.loc	13 588 26 is_stmt 1             @ lvgl/src/lv_themes/lv_theme_material.c:588:26
	ldr	r0, [r6]
	.loc	13 588 5 is_stmt 0              @ lvgl/src/lv_themes/lv_theme_material.c:588:5
	movs	r1, #0
	.loc	13 588 34                       @ lvgl/src/lv_themes/lv_theme_material.c:588:34
	adds	r0, #60
	.loc	13 588 5                        @ lvgl/src/lv_themes/lv_theme_material.c:588:5
	movs	r2, #255
	bl	lv_style_set_bg_opa
	.loc	13 589 66 is_stmt 1             @ lvgl/src/lv_themes/lv_theme_material.c:589:66
	movw	r7, :lower16:theme
	.loc	13 589 28 is_stmt 0             @ lvgl/src/lv_themes/lv_theme_material.c:589:28
	ldr	r1, [r6]
	.loc	13 589 66                       @ lvgl/src/lv_themes/lv_theme_material.c:589:66
	movt	r7, :upper16:theme
	.loc	13 589 36                       @ lvgl/src/lv_themes/lv_theme_material.c:589:36
	add.w	r4, r1, #60
	.loc	13 589 66                       @ lvgl/src/lv_themes/lv_theme_material.c:589:66
	ldr	r0, [r7, #36]
	lsls	r0, r0, #30
	movw	r0, #61427
	movt	r0, #234
	itt	pl
	movwpl	r0, #19290
	movtpl	r0, #68
	bl	lv_color_hex
	mov	r2, r0
	.loc	13 589 5                        @ lvgl/src/lv_themes/lv_theme_material.c:589:5
	movs	r1, #0
	mov	r0, r4
	bl	lv_style_set_bg_color
	.loc	13 590 29 is_stmt 1             @ lvgl/src/lv_themes/lv_theme_material.c:590:29
	ldr	r0, [r6]
	.loc	13 590 37 is_stmt 0             @ lvgl/src/lv_themes/lv_theme_material.c:590:37
	add.w	r4, r0, #60
	.loc	13 590 67                       @ lvgl/src/lv_themes/lv_theme_material.c:590:67
	movs	r0, #0
	bl	lv_disp_get_dpi
	add.w	r0, r0, r0, lsl #2
	lsls	r0, r0, #2
	cmp	r0, #240
	blt	.LBB11_5
@ %bb.4:
	movs	r0, #0
	bl	lv_disp_get_dpi
	add.w	r0, r0, r0, lsl #2
	movs	r1, #80
	add.w	r0, r1, r0, lsl #2
	smmul	r0, r0, r5
	asrs	r1, r0, #6
	add.w	r0, r1, r0, lsr #31
	b	.LBB11_6
.LBB11_5:
	.loc	13 0 67                         @ lvgl/src/lv_themes/lv_theme_material.c:0:67
	movs	r0, #1
.LBB11_6:
	.loc	13 590 5                        @ lvgl/src/lv_themes/lv_theme_material.c:590:5
	sxth	r1, r0
	mov	r0, r4
	bl	lv_style_set_pad_inner
	.loc	13 591 26 is_stmt 1             @ lvgl/src/lv_themes/lv_theme_material.c:591:26
	ldr	r0, [r6]
	.loc	13 591 5 is_stmt 0              @ lvgl/src/lv_themes/lv_theme_material.c:591:5
	movw	r1, #32767
	.loc	13 591 34                       @ lvgl/src/lv_themes/lv_theme_material.c:591:34
	adds	r0, #60
	.loc	13 591 5                        @ lvgl/src/lv_themes/lv_theme_material.c:591:5
	bl	lv_style_set_radius
	.loc	13 593 21 is_stmt 1             @ lvgl/src/lv_themes/lv_theme_material.c:593:21
	ldr	r0, [r6]
	.loc	13 593 29 is_stmt 0             @ lvgl/src/lv_themes/lv_theme_material.c:593:29
	adds	r0, #64
	.loc	13 593 5                        @ lvgl/src/lv_themes/lv_theme_material.c:593:5
	bl	lv_style_reset
	.loc	13 594 26 is_stmt 1             @ lvgl/src/lv_themes/lv_theme_material.c:594:26
	ldr	r0, [r6]
	.loc	13 594 5 is_stmt 0              @ lvgl/src/lv_themes/lv_theme_material.c:594:5
	movw	r1, #32767
	.loc	13 594 34                       @ lvgl/src/lv_themes/lv_theme_material.c:594:34
	adds	r0, #64
	.loc	13 594 5                        @ lvgl/src/lv_themes/lv_theme_material.c:594:5
	bl	lv_style_set_radius
	.loc	13 595 28 is_stmt 1             @ lvgl/src/lv_themes/lv_theme_material.c:595:28
	ldr	r0, [r6]
	.loc	13 595 5 is_stmt 0              @ lvgl/src/lv_themes/lv_theme_material.c:595:5
	movs	r1, #0
	.loc	13 595 36                       @ lvgl/src/lv_themes/lv_theme_material.c:595:36
	adds	r0, #64
	.loc	13 595 5                        @ lvgl/src/lv_themes/lv_theme_material.c:595:5
	mov.w	r2, #-1
	bl	lv_style_set_bg_color
	.loc	13 596 26 is_stmt 1             @ lvgl/src/lv_themes/lv_theme_material.c:596:26
	ldr	r0, [r6]
	.loc	13 596 5 is_stmt 0              @ lvgl/src/lv_themes/lv_theme_material.c:596:5
	movs	r1, #0
	.loc	13 596 34                       @ lvgl/src/lv_themes/lv_theme_material.c:596:34
	adds	r0, #64
	.loc	13 596 5                        @ lvgl/src/lv_themes/lv_theme_material.c:596:5
	movs	r2, #255
	bl	lv_style_set_bg_opa
	.loc	13 597 32 is_stmt 1             @ lvgl/src/lv_themes/lv_theme_material.c:597:32
	ldr	r0, [r6]
	.loc	13 597 5 is_stmt 0              @ lvgl/src/lv_themes/lv_theme_material.c:597:5
	movs	r1, #0
	.loc	13 597 40                       @ lvgl/src/lv_themes/lv_theme_material.c:597:40
	adds	r0, #64
	.loc	13 597 5                        @ lvgl/src/lv_themes/lv_theme_material.c:597:5
	movs	r2, #2
	bl	lv_style_set_border_width
	.loc	13 598 32 is_stmt 1             @ lvgl/src/lv_themes/lv_theme_material.c:598:32
	ldr	r0, [r6]
	movw	r2, #32896
	.loc	13 598 40 is_stmt 0             @ lvgl/src/lv_themes/lv_theme_material.c:598:40
	adds	r0, #64
	movt	r2, #65408
	.loc	13 598 5                        @ lvgl/src/lv_themes/lv_theme_material.c:598:5
	movs	r1, #0
	bl	lv_style_set_border_color
	.loc	13 599 32 is_stmt 1             @ lvgl/src/lv_themes/lv_theme_material.c:599:32
	ldr	r0, [r6]
	.loc	13 599 5 is_stmt 0              @ lvgl/src/lv_themes/lv_theme_material.c:599:5
	ldr	r2, [r7, #12]
	.loc	13 599 40                       @ lvgl/src/lv_themes/lv_theme_material.c:599:40
	adds	r0, #64
	.loc	13 599 5                        @ lvgl/src/lv_themes/lv_theme_material.c:599:5
	movs	r1, #2
	bl	lv_style_set_border_color
	.loc	13 600 32 is_stmt 1             @ lvgl/src/lv_themes/lv_theme_material.c:600:32
	ldr	r0, [r6]
	.loc	13 600 5 is_stmt 0              @ lvgl/src/lv_themes/lv_theme_material.c:600:5
	ldr	r2, [r7, #16]
	.loc	13 600 40                       @ lvgl/src/lv_themes/lv_theme_material.c:600:40
	adds	r0, #64
	.loc	13 600 5                        @ lvgl/src/lv_themes/lv_theme_material.c:600:5
	movs	r1, #4
	bl	lv_style_set_border_color
	.loc	13 601 28 is_stmt 1             @ lvgl/src/lv_themes/lv_theme_material.c:601:28
	ldr	r0, [r6]
	.loc	13 601 36 is_stmt 0             @ lvgl/src/lv_themes/lv_theme_material.c:601:36
	add.w	r4, r0, #64
	.loc	13 601 69                       @ lvgl/src/lv_themes/lv_theme_material.c:601:69
	movs	r0, #0
	bl	lv_disp_get_dpi
	movs	r7, #13
	muls	r0, r7, r0
	cmp	r0, #240
	blt	.LBB11_8
@ %bb.7:
	movs	r0, #0
	bl	lv_disp_get_dpi
	movs	r1, #80
	smlabb	r0, r0, r7, r1
	smmul	r0, r0, r5
	asrs	r1, r0, #6
	add.w	r0, r1, r0, lsr #31
	b	.LBB11_9
.LBB11_8:
	.loc	13 0 69                         @ lvgl/src/lv_themes/lv_theme_material.c:0:69
	movs	r0, #1
.LBB11_9:
	.loc	13 601 5                        @ lvgl/src/lv_themes/lv_theme_material.c:601:5
	sxth	r1, r0
	mov	r0, r4
	bl	lv_style_set_pad_left
	.loc	13 602 29 is_stmt 1             @ lvgl/src/lv_themes/lv_theme_material.c:602:29
	ldr	r0, [r6]
	.loc	13 602 37 is_stmt 0             @ lvgl/src/lv_themes/lv_theme_material.c:602:37
	add.w	r4, r0, #64
	.loc	13 602 70                       @ lvgl/src/lv_themes/lv_theme_material.c:602:70
	movs	r0, #0
	bl	lv_disp_get_dpi
	muls	r0, r7, r0
	cmp	r0, #240
	blt	.LBB11_11
@ %bb.10:
	movs	r0, #0
	bl	lv_disp_get_dpi
	movs	r1, #13
	movs	r2, #80
	smlabb	r0, r0, r1, r2
	smmul	r0, r0, r5
	asrs	r1, r0, #6
	add.w	r0, r1, r0, lsr #31
	b	.LBB11_12
.LBB11_11:
	.loc	13 0 70                         @ lvgl/src/lv_themes/lv_theme_material.c:0:70
	movs	r0, #1
.LBB11_12:
	.loc	13 602 5                        @ lvgl/src/lv_themes/lv_theme_material.c:602:5
	sxth	r1, r0
	mov	r0, r4
	bl	lv_style_set_pad_right
	.loc	13 603 27 is_stmt 1             @ lvgl/src/lv_themes/lv_theme_material.c:603:27
	ldr	r0, [r6]
	.loc	13 603 35 is_stmt 0             @ lvgl/src/lv_themes/lv_theme_material.c:603:35
	add.w	r4, r0, #64
	.loc	13 603 68                       @ lvgl/src/lv_themes/lv_theme_material.c:603:68
	movs	r0, #0
	bl	lv_disp_get_dpi
	movs	r7, #13
	muls	r0, r7, r0
	cmp	r0, #240
	blt	.LBB11_14
@ %bb.13:
	movs	r0, #0
	bl	lv_disp_get_dpi
	movs	r1, #80
	smlabb	r0, r0, r7, r1
	smmul	r0, r0, r5
	asrs	r1, r0, #6
	add.w	r0, r1, r0, lsr #31
	b	.LBB11_15
.LBB11_14:
	.loc	13 0 68                         @ lvgl/src/lv_themes/lv_theme_material.c:0:68
	movs	r0, #1
.LBB11_15:
	.loc	13 603 5                        @ lvgl/src/lv_themes/lv_theme_material.c:603:5
	sxth	r1, r0
	mov	r0, r4
	bl	lv_style_set_pad_top
	.loc	13 604 71 is_stmt 1             @ lvgl/src/lv_themes/lv_theme_material.c:604:71
	movs	r0, #0
	.loc	13 604 30 is_stmt 0             @ lvgl/src/lv_themes/lv_theme_material.c:604:30
	ldr	r4, [r6]
	.loc	13 604 71                       @ lvgl/src/lv_themes/lv_theme_material.c:604:71
	bl	lv_disp_get_dpi
	muls	r0, r7, r0
	cmp	r0, #240
	blt	.LBB11_17
@ %bb.16:
	movs	r0, #0
	bl	lv_disp_get_dpi
	movs	r1, #13
	movs	r2, #80
	smlabb	r0, r0, r1, r2
	smmul	r0, r0, r5
	asrs	r1, r0, #6
	add.w	r1, r1, r0, lsr #31
	b	.LBB11_18
.LBB11_17:
	.loc	13 0 71                         @ lvgl/src/lv_themes/lv_theme_material.c:0:71
	movs	r1, #1
.LBB11_18:
	.loc	13 604 5                        @ lvgl/src/lv_themes/lv_theme_material.c:604:5
	sxth	r1, r1
	.loc	13 604 38                       @ lvgl/src/lv_themes/lv_theme_material.c:604:38
	add.w	r0, r4, #64
	.loc	13 604 5                        @ lvgl/src/lv_themes/lv_theme_material.c:604:5
	bl	lv_style_set_pad_bottom
	.loc	13 606 1 is_stmt 1              @ lvgl/src/lv_themes/lv_theme_material.c:606:1
	add	sp, #4
	pop	{r4, r5, r6, r7, pc}
.Ltmp34:
.Lfunc_end11:
	.size	cpicker_init, .Lfunc_end11-cpicker_init
	.cfi_endproc
	.cantunwind
	.fnend
                                        @ -- End function
	.section	.text.checkbox_init,"ax",%progbits
	.p2align	3                               @ -- Begin function checkbox_init
	.type	checkbox_init,%function
	.code	16                              @ @checkbox_init
	.thumb_func
checkbox_init:
.Lfunc_begin12:
	.loc	13 609 0                        @ lvgl/src/lv_themes/lv_theme_material.c:609:0
	.fnstart
	.cfi_startproc
@ %bb.0:
	.save	{r4, r5, r6, r7, r8, lr}
	push.w	{r4, r5, r6, r7, r8, lr}
	.cfi_def_cfa_offset 24
	.cfi_offset lr, -4
	.cfi_offset r8, -8
	.cfi_offset r7, -12
	.cfi_offset r6, -16
	.cfi_offset r5, -20
	.cfi_offset r4, -24
.Ltmp35:
	.loc	13 611 21 prologue_end          @ lvgl/src/lv_themes/lv_theme_material.c:611:21
	movw	r6, :lower16:styles
	movt	r6, :upper16:styles
	ldr	r0, [r6]
	.loc	13 611 29 is_stmt 0             @ lvgl/src/lv_themes/lv_theme_material.c:611:29
	adds	r0, #80
	.loc	13 611 5                        @ lvgl/src/lv_themes/lv_theme_material.c:611:5
	bl	lv_style_reset
	.loc	13 612 26 is_stmt 1             @ lvgl/src/lv_themes/lv_theme_material.c:612:26
	ldr	r0, [r6]
	.loc	13 612 34 is_stmt 0             @ lvgl/src/lv_themes/lv_theme_material.c:612:34
	add.w	r4, r0, #80
	.loc	13 612 59                       @ lvgl/src/lv_themes/lv_theme_material.c:612:59
	movs	r0, #0
	bl	lv_disp_get_dpi
	movw	r8, #26215
	cmp	r0, #60
	movt	r8, #26214
	blt	.LBB12_2
@ %bb.1:
	movs	r0, #0
	bl	lv_disp_get_dpi
	movs	r1, #80
	add.w	r0, r1, r0, lsl #2
	smmul	r0, r0, r8
	asrs	r1, r0, #6
	add.w	r0, r1, r0, lsr #31
	b	.LBB12_3
.LBB12_2:
	.loc	13 0 59                         @ lvgl/src/lv_themes/lv_theme_material.c:0:59
	movs	r0, #1
.LBB12_3:
	.loc	13 612 5                        @ lvgl/src/lv_themes/lv_theme_material.c:612:5
	sxth	r1, r0
	mov	r0, r4
	bl	lv_style_set_radius
	.loc	13 613 29 is_stmt 1             @ lvgl/src/lv_themes/lv_theme_material.c:613:29
	ldr	r0, [r6]
	.loc	13 613 37 is_stmt 0             @ lvgl/src/lv_themes/lv_theme_material.c:613:37
	add.w	r4, r0, #80
	.loc	13 613 62                       @ lvgl/src/lv_themes/lv_theme_material.c:613:62
	movs	r0, #0
	bl	lv_disp_get_dpi
	add.w	r0, r0, r0, lsl #2
	lsls	r0, r0, #1
	cmp	r0, #240
	blt	.LBB12_5
@ %bb.4:
	movs	r0, #0
	bl	lv_disp_get_dpi
	add.w	r0, r0, r0, lsl #2
	movs	r1, #80
	add.w	r0, r1, r0, lsl #1
	smmul	r0, r0, r8
	asrs	r1, r0, #6
	add.w	r0, r1, r0, lsr #31
	b	.LBB12_6
.LBB12_5:
	.loc	13 0 62                         @ lvgl/src/lv_themes/lv_theme_material.c:0:62
	movs	r0, #1
.LBB12_6:
	.loc	13 613 5                        @ lvgl/src/lv_themes/lv_theme_material.c:613:5
	sxth	r1, r0
	mov	r0, r4
	bl	lv_style_set_pad_inner
	.loc	13 614 5 is_stmt 1              @ lvgl/src/lv_themes/lv_theme_material.c:614:5
	movw	r7, :lower16:theme
	.loc	13 614 33 is_stmt 0             @ lvgl/src/lv_themes/lv_theme_material.c:614:33
	ldr	r0, [r6]
	.loc	13 614 5                        @ lvgl/src/lv_themes/lv_theme_material.c:614:5
	movt	r7, :upper16:theme
	.loc	13 614 41                       @ lvgl/src/lv_themes/lv_theme_material.c:614:41
	adds	r0, #80
	.loc	13 614 5                        @ lvgl/src/lv_themes/lv_theme_material.c:614:5
	movs	r1, #0
	movs	r5, #0
	ldr	r2, [r7, #12]
	bl	lv_style_set_outline_color
	.loc	13 615 31 is_stmt 1             @ lvgl/src/lv_themes/lv_theme_material.c:615:31
	ldr	r0, [r6]
	.loc	13 615 5 is_stmt 0              @ lvgl/src/lv_themes/lv_theme_material.c:615:5
	movs	r1, #0
	.loc	13 615 39                       @ lvgl/src/lv_themes/lv_theme_material.c:615:39
	adds	r0, #80
	.loc	13 615 5                        @ lvgl/src/lv_themes/lv_theme_material.c:615:5
	movs	r2, #0
	bl	lv_style_set_outline_opa
	.loc	13 616 31 is_stmt 1             @ lvgl/src/lv_themes/lv_theme_material.c:616:31
	ldr	r0, [r6]
	.loc	13 616 5 is_stmt 0              @ lvgl/src/lv_themes/lv_theme_material.c:616:5
	movs	r1, #2
	.loc	13 616 39                       @ lvgl/src/lv_themes/lv_theme_material.c:616:39
	adds	r0, #80
	.loc	13 616 5                        @ lvgl/src/lv_themes/lv_theme_material.c:616:5
	movs	r2, #127
	bl	lv_style_set_outline_opa
	.loc	13 617 66 is_stmt 1             @ lvgl/src/lv_themes/lv_theme_material.c:617:66
	ldrb.w	r0, [r7, #36]
	.loc	13 617 33 is_stmt 0             @ lvgl/src/lv_themes/lv_theme_material.c:617:33
	ldr	r1, [r6]
	.loc	13 617 41                       @ lvgl/src/lv_themes/lv_theme_material.c:617:41
	add.w	r4, r1, #80
	.loc	13 617 66                       @ lvgl/src/lv_themes/lv_theme_material.c:617:66
	lsls	r0, r0, #26
	bmi	.LBB12_10
@ %bb.7:
	movs	r0, #0
	bl	lv_disp_get_dpi
	cmp	r0, #120
	blt	.LBB12_9
@ %bb.8:
	movs	r0, #0
	bl	lv_disp_get_dpi
	movs	r1, #80
	add.w	r0, r1, r0, lsl #1
	smmul	r0, r0, r8
	asrs	r1, r0, #6
	add.w	r5, r1, r0, lsr #31
	b	.LBB12_10
.LBB12_9:
	.loc	13 0 66                         @ lvgl/src/lv_themes/lv_theme_material.c:0:66
	movs	r5, #1
.LBB12_10:
	.loc	13 617 5                        @ lvgl/src/lv_themes/lv_theme_material.c:617:5
	sxth	r2, r5
	movs	r1, #0
	mov	r0, r4
	bl	lv_style_set_outline_width
	.loc	13 618 31 is_stmt 1             @ lvgl/src/lv_themes/lv_theme_material.c:618:31
	ldr	r0, [r6]
	.loc	13 618 39 is_stmt 0             @ lvgl/src/lv_themes/lv_theme_material.c:618:39
	add.w	r4, r0, #80
	.loc	13 618 64                       @ lvgl/src/lv_themes/lv_theme_material.c:618:64
	movs	r0, #0
	bl	lv_disp_get_dpi
	add.w	r0, r0, r0, lsl #2
	lsls	r0, r0, #1
	cmp	r0, #240
	blt	.LBB12_12
@ %bb.11:
	movs	r0, #0
	bl	lv_disp_get_dpi
	add.w	r0, r0, r0, lsl #2
	movs	r1, #80
	add.w	r0, r1, r0, lsl #1
	smmul	r0, r0, r8
	asrs	r1, r0, #6
	add.w	r0, r1, r0, lsr #31
	b	.LBB12_13
.LBB12_12:
	.loc	13 0 64                         @ lvgl/src/lv_themes/lv_theme_material.c:0:64
	movs	r0, #1
.LBB12_13:
	.loc	13 618 5                        @ lvgl/src/lv_themes/lv_theme_material.c:618:5
	sxth	r2, r0
	movs	r1, #0
	mov	r0, r4
	bl	lv_style_set_outline_pad
	.loc	13 619 35 is_stmt 1             @ lvgl/src/lv_themes/lv_theme_material.c:619:35
	ldr	r0, [r6]
	.loc	13 619 43 is_stmt 0             @ lvgl/src/lv_themes/lv_theme_material.c:619:43
	adds	r0, #80
	.loc	13 619 5                        @ lvgl/src/lv_themes/lv_theme_material.c:619:5
	bl	lv_style_set_transition_time
	.loc	13 620 37 is_stmt 1             @ lvgl/src/lv_themes/lv_theme_material.c:620:37
	ldr	r0, [r6]
	.loc	13 620 5 is_stmt 0              @ lvgl/src/lv_themes/lv_theme_material.c:620:5
	movs	r1, #76
	.loc	13 620 45                       @ lvgl/src/lv_themes/lv_theme_material.c:620:45
	adds	r0, #80
	.loc	13 620 5                        @ lvgl/src/lv_themes/lv_theme_material.c:620:5
	bl	lv_style_set_transition_prop_6
	.loc	13 622 21 is_stmt 1             @ lvgl/src/lv_themes/lv_theme_material.c:622:21
	ldr	r0, [r6]
	.loc	13 622 29 is_stmt 0             @ lvgl/src/lv_themes/lv_theme_material.c:622:29
	adds	r0, #84
	.loc	13 622 5                        @ lvgl/src/lv_themes/lv_theme_material.c:622:5
	bl	lv_style_reset
	.loc	13 623 31 is_stmt 1             @ lvgl/src/lv_themes/lv_theme_material.c:623:31
	ldr	r0, [r6]
	.loc	13 623 5 is_stmt 0              @ lvgl/src/lv_themes/lv_theme_material.c:623:5
	movs	r1, #2
	.loc	13 623 39                       @ lvgl/src/lv_themes/lv_theme_material.c:623:39
	adds	r0, #84
	.loc	13 623 5                        @ lvgl/src/lv_themes/lv_theme_material.c:623:5
	movs	r2, #0
	bl	lv_style_set_outline_opa
	.loc	13 624 26 is_stmt 1             @ lvgl/src/lv_themes/lv_theme_material.c:624:26
	ldr	r0, [r6]
	.loc	13 624 34 is_stmt 0             @ lvgl/src/lv_themes/lv_theme_material.c:624:34
	add.w	r4, r0, #84
	.loc	13 624 63                       @ lvgl/src/lv_themes/lv_theme_material.c:624:63
	movs	r0, #0
	bl	lv_disp_get_dpi
	cmp	r0, #60
	blt	.LBB12_15
@ %bb.14:
	movs	r0, #0
	bl	lv_disp_get_dpi
	movs	r1, #80
	add.w	r0, r1, r0, lsl #2
	smmul	r0, r0, r8
	asrs	r1, r0, #6
	add.w	r0, r1, r0, lsr #31
	b	.LBB12_16
.LBB12_15:
	.loc	13 0 63                         @ lvgl/src/lv_themes/lv_theme_material.c:0:63
	movs	r0, #1
.LBB12_16:
	.loc	13 624 5                        @ lvgl/src/lv_themes/lv_theme_material.c:624:5
	sxth	r1, r0
	mov	r0, r4
	bl	lv_style_set_radius
	.loc	13 625 33 is_stmt 1             @ lvgl/src/lv_themes/lv_theme_material.c:625:33
	ldr	r0, [r6]
	.loc	13 625 41 is_stmt 0             @ lvgl/src/lv_themes/lv_theme_material.c:625:41
	adds	r0, #84
	.loc	13 625 5                        @ lvgl/src/lv_themes/lv_theme_material.c:625:5
	bl	lv_style_set_pattern_image
	.loc	13 626 35 is_stmt 1             @ lvgl/src/lv_themes/lv_theme_material.c:626:35
	ldr	r0, [r6]
	.loc	13 626 43 is_stmt 0             @ lvgl/src/lv_themes/lv_theme_material.c:626:43
	adds	r0, #84
	.loc	13 626 5                        @ lvgl/src/lv_themes/lv_theme_material.c:626:5
	bl	lv_style_set_pattern_recolor
	.loc	13 627 31 is_stmt 1             @ lvgl/src/lv_themes/lv_theme_material.c:627:31
	ldr	r0, [r6]
	.loc	13 627 5 is_stmt 0              @ lvgl/src/lv_themes/lv_theme_material.c:627:5
	movs	r1, #0
	.loc	13 627 39                       @ lvgl/src/lv_themes/lv_theme_material.c:627:39
	adds	r0, #84
	.loc	13 627 5                        @ lvgl/src/lv_themes/lv_theme_material.c:627:5
	movs	r2, #0
	bl	lv_style_set_pattern_opa
	.loc	13 628 31 is_stmt 1             @ lvgl/src/lv_themes/lv_theme_material.c:628:31
	ldr	r0, [r6]
	.loc	13 628 5 is_stmt 0              @ lvgl/src/lv_themes/lv_theme_material.c:628:5
	movs	r1, #1
	.loc	13 628 39                       @ lvgl/src/lv_themes/lv_theme_material.c:628:39
	adds	r0, #84
	.loc	13 628 5                        @ lvgl/src/lv_themes/lv_theme_material.c:628:5
	movs	r2, #255
	movs	r5, #1
	bl	lv_style_set_pattern_opa
	.loc	13 629 37 is_stmt 1             @ lvgl/src/lv_themes/lv_theme_material.c:629:37
	ldr	r0, [r6]
	.loc	13 629 45 is_stmt 0             @ lvgl/src/lv_themes/lv_theme_material.c:629:45
	adds	r0, #84
	.loc	13 629 5                        @ lvgl/src/lv_themes/lv_theme_material.c:629:5
	bl	lv_style_set_transition_prop_3
	.loc	13 630 29 is_stmt 1             @ lvgl/src/lv_themes/lv_theme_material.c:630:29
	ldr	r0, [r6]
	.loc	13 630 72 is_stmt 0             @ lvgl/src/lv_themes/lv_theme_material.c:630:72
	ldr	r1, [r7, #20]
	.loc	13 630 37                       @ lvgl/src/lv_themes/lv_theme_material.c:630:37
	adds	r0, #84
	.loc	13 630 5                        @ lvgl/src/lv_themes/lv_theme_material.c:630:5
	bl	lv_style_set_text_font
	.loc	13 631 28 is_stmt 1             @ lvgl/src/lv_themes/lv_theme_material.c:631:28
	ldr	r0, [r6]
	.loc	13 631 36 is_stmt 0             @ lvgl/src/lv_themes/lv_theme_material.c:631:36
	add.w	r4, r0, #84
	.loc	13 631 65                       @ lvgl/src/lv_themes/lv_theme_material.c:631:65
	movs	r0, #0
	bl	lv_disp_get_dpi
	add.w	r0, r0, r0, lsl #1
	cmp	r0, #240
	blt	.LBB12_18
@ %bb.17:
	movs	r0, #0
	bl	lv_disp_get_dpi
	add.w	r0, r0, r0, lsl #1
	adds	r0, #80
	smmul	r0, r0, r8
	asrs	r1, r0, #6
	add.w	r5, r1, r0, lsr #31
.LBB12_18:
	.loc	13 631 5                        @ lvgl/src/lv_themes/lv_theme_material.c:631:5
	sxth	r1, r5
	mov	r0, r4
	bl	lv_style_set_pad_left
	.loc	13 632 29 is_stmt 1             @ lvgl/src/lv_themes/lv_theme_material.c:632:29
	ldr	r0, [r6]
	.loc	13 632 37 is_stmt 0             @ lvgl/src/lv_themes/lv_theme_material.c:632:37
	add.w	r4, r0, #84
	.loc	13 632 66                       @ lvgl/src/lv_themes/lv_theme_material.c:632:66
	movs	r0, #0
	bl	lv_disp_get_dpi
	add.w	r0, r0, r0, lsl #1
	cmp	r0, #240
	blt	.LBB12_20
@ %bb.19:
	movs	r0, #0
	bl	lv_disp_get_dpi
	add.w	r0, r0, r0, lsl #1
	adds	r0, #80
	smmul	r0, r0, r8
	asrs	r1, r0, #6
	add.w	r0, r1, r0, lsr #31
	b	.LBB12_21
.LBB12_20:
	.loc	13 0 66                         @ lvgl/src/lv_themes/lv_theme_material.c:0:66
	movs	r0, #1
.LBB12_21:
	.loc	13 632 5                        @ lvgl/src/lv_themes/lv_theme_material.c:632:5
	sxth	r1, r0
	mov	r0, r4
	bl	lv_style_set_pad_right
	.loc	13 633 27 is_stmt 1             @ lvgl/src/lv_themes/lv_theme_material.c:633:27
	ldr	r0, [r6]
	.loc	13 633 35 is_stmt 0             @ lvgl/src/lv_themes/lv_theme_material.c:633:35
	add.w	r4, r0, #84
	.loc	13 633 64                       @ lvgl/src/lv_themes/lv_theme_material.c:633:64
	movs	r0, #0
	bl	lv_disp_get_dpi
	add.w	r0, r0, r0, lsl #1
	cmp	r0, #240
	blt	.LBB12_23
@ %bb.22:
	movs	r0, #0
	bl	lv_disp_get_dpi
	add.w	r0, r0, r0, lsl #1
	adds	r0, #80
	smmul	r0, r0, r8
	asrs	r1, r0, #6
	add.w	r0, r1, r0, lsr #31
	b	.LBB12_24
.LBB12_23:
	.loc	13 0 64                         @ lvgl/src/lv_themes/lv_theme_material.c:0:64
	movs	r0, #1
.LBB12_24:
	.loc	13 633 5                        @ lvgl/src/lv_themes/lv_theme_material.c:633:5
	sxth	r1, r0
	mov	r0, r4
	bl	lv_style_set_pad_top
	.loc	13 634 67 is_stmt 1             @ lvgl/src/lv_themes/lv_theme_material.c:634:67
	movs	r0, #0
	.loc	13 634 30 is_stmt 0             @ lvgl/src/lv_themes/lv_theme_material.c:634:30
	ldr	r4, [r6]
	.loc	13 634 67                       @ lvgl/src/lv_themes/lv_theme_material.c:634:67
	bl	lv_disp_get_dpi
	add.w	r0, r0, r0, lsl #1
	cmp	r0, #240
	blt	.LBB12_26
@ %bb.25:
	movs	r0, #0
	bl	lv_disp_get_dpi
	add.w	r0, r0, r0, lsl #1
	adds	r0, #80
	smmul	r0, r0, r8
	asrs	r1, r0, #6
	add.w	r1, r1, r0, lsr #31
	b	.LBB12_27
.LBB12_26:
	.loc	13 0 67                         @ lvgl/src/lv_themes/lv_theme_material.c:0:67
	movs	r1, #1
.LBB12_27:
	.loc	13 634 5                        @ lvgl/src/lv_themes/lv_theme_material.c:634:5
	sxth	r1, r1
	.loc	13 634 38                       @ lvgl/src/lv_themes/lv_theme_material.c:634:38
	add.w	r0, r4, #84
	.loc	13 634 5                        @ lvgl/src/lv_themes/lv_theme_material.c:634:5
	bl	lv_style_set_pad_bottom
	.loc	13 636 1 is_stmt 1              @ lvgl/src/lv_themes/lv_theme_material.c:636:1
	pop.w	{r4, r5, r6, r7, r8, pc}
.Ltmp36:
.Lfunc_end12:
	.size	checkbox_init, .Lfunc_end12-checkbox_init
	.cfi_endproc
	.cantunwind
	.fnend
                                        @ -- End function
	.section	.text.keyboard_init,"ax",%progbits
	.p2align	3                               @ -- Begin function keyboard_init
	.type	keyboard_init,%function
	.code	16                              @ @keyboard_init
	.thumb_func
keyboard_init:
.Lfunc_begin13:
	.loc	13 643 0                        @ lvgl/src/lv_themes/lv_theme_material.c:643:0
	.fnstart
	.cfi_startproc
@ %bb.0:
	.save	{r4, r5, r6, r7, r8, lr}
	push.w	{r4, r5, r6, r7, r8, lr}
	.cfi_def_cfa_offset 24
	.cfi_offset lr, -4
	.cfi_offset r8, -8
	.cfi_offset r7, -12
	.cfi_offset r6, -16
	.cfi_offset r5, -20
	.cfi_offset r4, -24
.Ltmp37:
	.loc	13 645 21 prologue_end          @ lvgl/src/lv_themes/lv_theme_material.c:645:21
	movw	r5, :lower16:styles
	movt	r5, :upper16:styles
	ldr	r0, [r5]
	.loc	13 645 29 is_stmt 0             @ lvgl/src/lv_themes/lv_theme_material.c:645:29
	adds	r0, #108
	.loc	13 645 5                        @ lvgl/src/lv_themes/lv_theme_material.c:645:5
	bl	lv_style_reset
	.loc	13 646 26 is_stmt 1             @ lvgl/src/lv_themes/lv_theme_material.c:646:26
	ldr	r0, [r5]
	.loc	13 646 5 is_stmt 0              @ lvgl/src/lv_themes/lv_theme_material.c:646:5
	movs	r1, #0
	.loc	13 646 34                       @ lvgl/src/lv_themes/lv_theme_material.c:646:34
	adds	r0, #108
	.loc	13 646 5                        @ lvgl/src/lv_themes/lv_theme_material.c:646:5
	bl	lv_style_set_radius
	.loc	13 647 32 is_stmt 1             @ lvgl/src/lv_themes/lv_theme_material.c:647:32
	ldr	r0, [r5]
	.loc	13 647 40 is_stmt 0             @ lvgl/src/lv_themes/lv_theme_material.c:647:40
	add.w	r4, r0, #108
	.loc	13 647 65                       @ lvgl/src/lv_themes/lv_theme_material.c:647:65
	movs	r0, #0
	bl	lv_disp_get_dpi
	movw	r8, #26215
	cmp	r0, #60
	movt	r8, #26214
	blt	.LBB13_2
@ %bb.1:
	movs	r0, #0
	bl	lv_disp_get_dpi
	movs	r1, #80
	add.w	r0, r1, r0, lsl #2
	smmul	r0, r0, r8
	asrs	r1, r0, #6
	add.w	r0, r1, r0, lsr #31
	b	.LBB13_3
.LBB13_2:
	.loc	13 0 65                         @ lvgl/src/lv_themes/lv_theme_material.c:0:65
	movs	r0, #1
.LBB13_3:
	.loc	13 647 5                        @ lvgl/src/lv_themes/lv_theme_material.c:647:5
	sxth	r2, r0
	movs	r1, #0
	mov	r0, r4
	movs	r6, #0
	bl	lv_style_set_border_width
	.loc	13 648 31 is_stmt 1             @ lvgl/src/lv_themes/lv_theme_material.c:648:31
	ldr	r0, [r5]
	.loc	13 648 5 is_stmt 0              @ lvgl/src/lv_themes/lv_theme_material.c:648:5
	movs	r1, #0
	.loc	13 648 39                       @ lvgl/src/lv_themes/lv_theme_material.c:648:39
	adds	r0, #108
	.loc	13 648 5                        @ lvgl/src/lv_themes/lv_theme_material.c:648:5
	movs	r2, #2
	bl	lv_style_set_border_side
	.loc	13 649 65 is_stmt 1             @ lvgl/src/lv_themes/lv_theme_material.c:649:65
	movw	r7, :lower16:theme
	.loc	13 649 32 is_stmt 0             @ lvgl/src/lv_themes/lv_theme_material.c:649:32
	ldr	r1, [r5]
	.loc	13 649 65                       @ lvgl/src/lv_themes/lv_theme_material.c:649:65
	movt	r7, :upper16:theme
	.loc	13 649 40                       @ lvgl/src/lv_themes/lv_theme_material.c:649:40
	add.w	r4, r1, #108
	.loc	13 649 65                       @ lvgl/src/lv_themes/lv_theme_material.c:649:65
	ldrb.w	r0, [r7, #36]
	lsls	r0, r0, #30
	bmi	.LBB13_5
@ %bb.4:
	.loc	13 0 65                         @ lvgl/src/lv_themes/lv_theme_material.c:0:65
	mov.w	r1, #-16777216
	movs	r0, #0
	b	.LBB13_6
.LBB13_5:
	movw	r0, #15938
	movt	r0, #59
	.loc	13 649 76                       @ lvgl/src/lv_themes/lv_theme_material.c:649:76
	bl	lv_color_hex
	and	r1, r0, #16711680
	and	r6, r0, #65280
	uxtb	r0, r0
	add.w	r1, r1, #-16777216
.LBB13_6:
	.loc	13 649 5                        @ lvgl/src/lv_themes/lv_theme_material.c:649:5
	orrs	r1, r6
	orr.w	r2, r1, r0
	movs	r1, #0
	mov	r0, r4
	bl	lv_style_set_border_color
	.loc	13 650 32 is_stmt 1             @ lvgl/src/lv_themes/lv_theme_material.c:650:32
	ldr	r0, [r5]
	.loc	13 650 5 is_stmt 0              @ lvgl/src/lv_themes/lv_theme_material.c:650:5
	ldr	r2, [r7, #16]
	.loc	13 650 40                       @ lvgl/src/lv_themes/lv_theme_material.c:650:40
	adds	r0, #108
	.loc	13 650 5                        @ lvgl/src/lv_themes/lv_theme_material.c:650:5
	movs	r1, #4
	bl	lv_style_set_border_color
	.loc	13 651 28 is_stmt 1             @ lvgl/src/lv_themes/lv_theme_material.c:651:28
	ldr	r0, [r5]
	.loc	13 651 36 is_stmt 0             @ lvgl/src/lv_themes/lv_theme_material.c:651:36
	add.w	r4, r0, #108
	.loc	13 651 62                       @ lvgl/src/lv_themes/lv_theme_material.c:651:62
	movs	r0, #0
	bl	lv_disp_get_dpi
	add.w	r0, r0, r0, lsl #2
	cmp	r0, #240
	blt	.LBB13_8
@ %bb.7:
	movs	r0, #0
	bl	lv_disp_get_dpi
	add.w	r0, r0, r0, lsl #2
	adds	r0, #80
	smmul	r0, r0, r8
	asrs	r1, r0, #6
	add.w	r0, r1, r0, lsr #31
	b	.LBB13_9
.LBB13_8:
	.loc	13 0 62                         @ lvgl/src/lv_themes/lv_theme_material.c:0:62
	movs	r0, #1
.LBB13_9:
	.loc	13 651 5                        @ lvgl/src/lv_themes/lv_theme_material.c:651:5
	sxth	r1, r0
	mov	r0, r4
	bl	lv_style_set_pad_left
	.loc	13 652 29 is_stmt 1             @ lvgl/src/lv_themes/lv_theme_material.c:652:29
	ldr	r0, [r5]
	.loc	13 652 37 is_stmt 0             @ lvgl/src/lv_themes/lv_theme_material.c:652:37
	add.w	r4, r0, #108
	.loc	13 652 62                       @ lvgl/src/lv_themes/lv_theme_material.c:652:62
	movs	r0, #0
	bl	lv_disp_get_dpi
	add.w	r0, r0, r0, lsl #2
	cmp	r0, #240
	blt	.LBB13_11
@ %bb.10:
	movs	r0, #0
	bl	lv_disp_get_dpi
	add.w	r0, r0, r0, lsl #2
	adds	r0, #80
	smmul	r0, r0, r8
	asrs	r1, r0, #6
	add.w	r0, r1, r0, lsr #31
	b	.LBB13_12
.LBB13_11:
	.loc	13 0 62                         @ lvgl/src/lv_themes/lv_theme_material.c:0:62
	movs	r0, #1
.LBB13_12:
	.loc	13 652 5                        @ lvgl/src/lv_themes/lv_theme_material.c:652:5
	sxth	r1, r0
	mov	r0, r4
	bl	lv_style_set_pad_right
	.loc	13 653 27 is_stmt 1             @ lvgl/src/lv_themes/lv_theme_material.c:653:27
	ldr	r0, [r5]
	.loc	13 653 35 is_stmt 0             @ lvgl/src/lv_themes/lv_theme_material.c:653:35
	add.w	r4, r0, #108
	.loc	13 653 61                       @ lvgl/src/lv_themes/lv_theme_material.c:653:61
	movs	r0, #0
	bl	lv_disp_get_dpi
	add.w	r0, r0, r0, lsl #2
	cmp	r0, #240
	blt	.LBB13_14
@ %bb.13:
	movs	r0, #0
	bl	lv_disp_get_dpi
	add.w	r0, r0, r0, lsl #2
	adds	r0, #80
	smmul	r0, r0, r8
	asrs	r1, r0, #6
	add.w	r0, r1, r0, lsr #31
	b	.LBB13_15
.LBB13_14:
	.loc	13 0 61                         @ lvgl/src/lv_themes/lv_theme_material.c:0:61
	movs	r0, #1
.LBB13_15:
	.loc	13 653 5                        @ lvgl/src/lv_themes/lv_theme_material.c:653:5
	sxth	r1, r0
	mov	r0, r4
	bl	lv_style_set_pad_top
	.loc	13 654 30 is_stmt 1             @ lvgl/src/lv_themes/lv_theme_material.c:654:30
	ldr	r0, [r5]
	.loc	13 654 38 is_stmt 0             @ lvgl/src/lv_themes/lv_theme_material.c:654:38
	add.w	r4, r0, #108
	.loc	13 654 63                       @ lvgl/src/lv_themes/lv_theme_material.c:654:63
	movs	r0, #0
	bl	lv_disp_get_dpi
	add.w	r0, r0, r0, lsl #2
	cmp	r0, #240
	blt	.LBB13_17
@ %bb.16:
	movs	r0, #0
	bl	lv_disp_get_dpi
	add.w	r0, r0, r0, lsl #2
	adds	r0, #80
	smmul	r0, r0, r8
	asrs	r1, r0, #6
	add.w	r0, r1, r0, lsr #31
	b	.LBB13_18
.LBB13_17:
	.loc	13 0 63                         @ lvgl/src/lv_themes/lv_theme_material.c:0:63
	movs	r0, #1
.LBB13_18:
	.loc	13 654 5                        @ lvgl/src/lv_themes/lv_theme_material.c:654:5
	sxth	r1, r0
	mov	r0, r4
	bl	lv_style_set_pad_bottom
	.loc	13 655 62 is_stmt 1             @ lvgl/src/lv_themes/lv_theme_material.c:655:62
	movs	r0, #0
	.loc	13 655 29 is_stmt 0             @ lvgl/src/lv_themes/lv_theme_material.c:655:29
	ldr	r4, [r5]
	.loc	13 655 62                       @ lvgl/src/lv_themes/lv_theme_material.c:655:62
	bl	lv_disp_get_dpi
	add.w	r0, r0, r0, lsl #1
	cmp	r0, #240
	blt	.LBB13_20
@ %bb.19:
	movs	r0, #0
	bl	lv_disp_get_dpi
	add.w	r0, r0, r0, lsl #1
	adds	r0, #80
	smmul	r0, r0, r8
	asrs	r1, r0, #6
	add.w	r1, r1, r0, lsr #31
	b	.LBB13_21
.LBB13_20:
	.loc	13 0 62                         @ lvgl/src/lv_themes/lv_theme_material.c:0:62
	movs	r1, #1
.LBB13_21:
	.loc	13 655 5                        @ lvgl/src/lv_themes/lv_theme_material.c:655:5
	sxth	r1, r1
	.loc	13 655 37                       @ lvgl/src/lv_themes/lv_theme_material.c:655:37
	add.w	r0, r4, #108
	.loc	13 655 5                        @ lvgl/src/lv_themes/lv_theme_material.c:655:5
	bl	lv_style_set_pad_inner
	.loc	13 657 1 is_stmt 1              @ lvgl/src/lv_themes/lv_theme_material.c:657:1
	pop.w	{r4, r5, r6, r7, r8, pc}
.Ltmp38:
.Lfunc_end13:
	.size	keyboard_init, .Lfunc_end13-keyboard_init
	.cfi_endproc
	.cantunwind
	.fnend
                                        @ -- End function
	.section	.text.msgbox_init,"ax",%progbits
	.p2align	3                               @ -- Begin function msgbox_init
	.type	msgbox_init,%function
	.code	16                              @ @msgbox_init
	.thumb_func
msgbox_init:
.Lfunc_begin14:
	.loc	13 660 0                        @ lvgl/src/lv_themes/lv_theme_material.c:660:0
	.fnstart
	.cfi_startproc
@ %bb.0:
	.save	{r4, r5, r6, lr}
	push	{r4, r5, r6, lr}
	.cfi_def_cfa_offset 16
	.cfi_offset lr, -4
	.cfi_offset r6, -8
	.cfi_offset r5, -12
	.cfi_offset r4, -16
.Ltmp39:
	.loc	13 662 21 prologue_end          @ lvgl/src/lv_themes/lv_theme_material.c:662:21
	movw	r5, :lower16:styles
	movt	r5, :upper16:styles
	ldr	r0, [r5]
	.loc	13 662 29 is_stmt 0             @ lvgl/src/lv_themes/lv_theme_material.c:662:29
	adds	r0, #128
	.loc	13 662 5                        @ lvgl/src/lv_themes/lv_theme_material.c:662:5
	bl	lv_style_reset
	.loc	13 663 32 is_stmt 1             @ lvgl/src/lv_themes/lv_theme_material.c:663:32
	ldr	r0, [r5]
	.loc	13 663 40 is_stmt 0             @ lvgl/src/lv_themes/lv_theme_material.c:663:40
	add.w	r4, r0, #128
	.loc	13 663 67                       @ lvgl/src/lv_themes/lv_theme_material.c:663:67
	movs	r0, #0
	bl	lv_disp_get_dpi
	movs	r6, #50
	muls	r0, r6, r0
	cmp	r0, #240
	blt	.LBB14_2
@ %bb.1:
	movs	r0, #0
	bl	lv_disp_get_dpi
	movs	r1, #80
	smlabb	r0, r0, r6, r1
	movw	r1, #26215
	movt	r1, #26214
	smmul	r0, r0, r1
	asrs	r1, r0, #6
	add.w	r0, r1, r0, lsr #31
	b	.LBB14_3
.LBB14_2:
	.loc	13 0 67                         @ lvgl/src/lv_themes/lv_theme_material.c:0:67
	movs	r0, #1
.LBB14_3:
	.loc	13 663 5                        @ lvgl/src/lv_themes/lv_theme_material.c:663:5
	sxth	r1, r0
	mov	r0, r4
	bl	lv_style_set_shadow_width
	.loc	13 664 67 is_stmt 1             @ lvgl/src/lv_themes/lv_theme_material.c:664:67
	movw	r0, :lower16:theme
	.loc	13 664 32 is_stmt 0             @ lvgl/src/lv_themes/lv_theme_material.c:664:32
	ldr	r4, [r5]
	.loc	13 664 67                       @ lvgl/src/lv_themes/lv_theme_material.c:664:67
	movt	r0, :upper16:theme
	ldrb.w	r0, [r0, #36]
	lsls	r0, r0, #30
	bmi	.LBB14_5
@ %bb.4:
	.loc	13 664 96                       @ lvgl/src/lv_themes/lv_theme_material.c:664:96
	movw	r0, #2457
	bl	lv_color_hex3
	.loc	13 664 67                       @ lvgl/src/lv_themes/lv_theme_material.c:664:67
	and	r1, r0, #16711680
	and	r3, r0, #65280
	add.w	r2, r1, #-16777216
	uxtb	r1, r0
	b	.LBB14_6
.LBB14_5:
	.loc	13 0 67                         @ lvgl/src/lv_themes/lv_theme_material.c:0:67
	movs	r2, #0
	movs	r1, #192
	mov.w	r3, #49152
	movt	r2, #65472
.LBB14_6:
	.loc	13 664 5                        @ lvgl/src/lv_themes/lv_theme_material.c:664:5
	orrs	r2, r3
	.loc	13 664 40                       @ lvgl/src/lv_themes/lv_theme_material.c:664:40
	add.w	r0, r4, #128
	.loc	13 664 5                        @ lvgl/src/lv_themes/lv_theme_material.c:664:5
	orrs	r1, r2
	bl	lv_style_set_shadow_color
	.loc	13 667 1 is_stmt 1              @ lvgl/src/lv_themes/lv_theme_material.c:667:1
	pop	{r4, r5, r6, pc}
.Ltmp40:
.Lfunc_end14:
	.size	msgbox_init, .Lfunc_end14-msgbox_init
	.cfi_endproc
	.cantunwind
	.fnend
                                        @ -- End function
	.section	.text.page_init,"ax",%progbits
	.p2align	3                               @ -- Begin function page_init
	.type	page_init,%function
	.code	16                              @ @page_init
	.thumb_func
page_init:
.Lfunc_begin15:
	.loc	13 670 0                        @ lvgl/src/lv_themes/lv_theme_material.c:670:0
	.fnstart
	.cfi_startproc
@ %bb.0:
	.save	{r4, r5, r6, lr}
	push	{r4, r5, r6, lr}
	.cfi_def_cfa_offset 16
	.cfi_offset lr, -4
	.cfi_offset r6, -8
	.cfi_offset r5, -12
	.cfi_offset r4, -16
.Ltmp41:
	.loc	13 672 21 prologue_end          @ lvgl/src/lv_themes/lv_theme_material.c:672:21
	movw	r5, :lower16:styles
	movt	r5, :upper16:styles
	ldr	r0, [r5]
	.loc	13 672 29 is_stmt 0             @ lvgl/src/lv_themes/lv_theme_material.c:672:29
	adds	r0, #132
	.loc	13 672 5                        @ lvgl/src/lv_themes/lv_theme_material.c:672:5
	bl	lv_style_reset
	.loc	13 673 26 is_stmt 1             @ lvgl/src/lv_themes/lv_theme_material.c:673:26
	ldr	r0, [r5]
	.loc	13 673 5 is_stmt 0              @ lvgl/src/lv_themes/lv_theme_material.c:673:5
	movs	r1, #0
	.loc	13 673 34                       @ lvgl/src/lv_themes/lv_theme_material.c:673:34
	adds	r0, #132
	.loc	13 673 5                        @ lvgl/src/lv_themes/lv_theme_material.c:673:5
	movs	r2, #255
	bl	lv_style_set_bg_opa
	.loc	13 674 59 is_stmt 1             @ lvgl/src/lv_themes/lv_theme_material.c:674:59
	movw	r0, :lower16:theme
	.loc	13 674 28 is_stmt 0             @ lvgl/src/lv_themes/lv_theme_material.c:674:28
	ldr	r1, [r5]
	.loc	13 674 59                       @ lvgl/src/lv_themes/lv_theme_material.c:674:59
	movt	r0, :upper16:theme
	.loc	13 674 36                       @ lvgl/src/lv_themes/lv_theme_material.c:674:36
	add.w	r4, r1, #132
	.loc	13 674 59                       @ lvgl/src/lv_themes/lv_theme_material.c:674:59
	ldr	r0, [r0, #36]
	lsls	r0, r0, #30
	movw	r0, #53201
	movt	r0, #204
	itt	pl
	movwpl	r0, #32645
	movtpl	r0, #119
	.loc	13 0 0                          @ lvgl/src/lv_themes/lv_theme_material.c:0:0
	bl	lv_color_hex
	mov	r2, r0
	.loc	13 674 5                        @ lvgl/src/lv_themes/lv_theme_material.c:674:5
	movs	r1, #0
	mov	r0, r4
	bl	lv_style_set_bg_color
	.loc	13 675 26 is_stmt 1             @ lvgl/src/lv_themes/lv_theme_material.c:675:26
	ldr	r0, [r5]
	.loc	13 675 5 is_stmt 0              @ lvgl/src/lv_themes/lv_theme_material.c:675:5
	movw	r1, #32767
	.loc	13 675 34                       @ lvgl/src/lv_themes/lv_theme_material.c:675:34
	adds	r0, #132
	.loc	13 675 5                        @ lvgl/src/lv_themes/lv_theme_material.c:675:5
	bl	lv_style_set_radius
	.loc	13 676 24 is_stmt 1             @ lvgl/src/lv_themes/lv_theme_material.c:676:24
	ldr	r0, [r5]
	.loc	13 676 32 is_stmt 0             @ lvgl/src/lv_themes/lv_theme_material.c:676:32
	add.w	r4, r0, #132
	.loc	13 676 54                       @ lvgl/src/lv_themes/lv_theme_material.c:676:54
	movs	r0, #0
	bl	lv_disp_get_dpi
	rsb	r0, r0, r0, lsl #3
	movw	r6, #26215
	cmp	r0, #240
	movt	r6, #26214
	blt	.LBB15_2
@ %bb.1:
	movs	r0, #0
	bl	lv_disp_get_dpi
	rsb	r0, r0, r0, lsl #3
	adds	r0, #80
	smmul	r0, r0, r6
	asrs	r1, r0, #6
	add.w	r0, r1, r0, lsr #31
	b	.LBB15_3
.LBB15_2:
	.loc	13 0 54                         @ lvgl/src/lv_themes/lv_theme_material.c:0:54
	movs	r0, #1
.LBB15_3:
	.loc	13 676 5                        @ lvgl/src/lv_themes/lv_theme_material.c:676:5
	sxth	r1, r0
	mov	r0, r4
	bl	lv_style_set_size
	.loc	13 677 29 is_stmt 1             @ lvgl/src/lv_themes/lv_theme_material.c:677:29
	ldr	r0, [r5]
	.loc	13 677 37 is_stmt 0             @ lvgl/src/lv_themes/lv_theme_material.c:677:37
	add.w	r4, r0, #132
	.loc	13 677 60                       @ lvgl/src/lv_themes/lv_theme_material.c:677:60
	movs	r0, #0
	bl	lv_disp_get_dpi
	rsb	r0, r0, r0, lsl #3
	cmp	r0, #240
	blt	.LBB15_5
@ %bb.4:
	movs	r0, #0
	bl	lv_disp_get_dpi
	rsb	r0, r0, r0, lsl #3
	adds	r0, #80
	smmul	r0, r0, r6
	asrs	r1, r0, #6
	add.w	r0, r1, r0, lsr #31
	b	.LBB15_6
.LBB15_5:
	.loc	13 0 60                         @ lvgl/src/lv_themes/lv_theme_material.c:0:60
	movs	r0, #1
.LBB15_6:
	.loc	13 677 5                        @ lvgl/src/lv_themes/lv_theme_material.c:677:5
	sxth	r1, r0
	mov	r0, r4
	bl	lv_style_set_pad_right
	.loc	13 678 61 is_stmt 1             @ lvgl/src/lv_themes/lv_theme_material.c:678:61
	movs	r0, #0
	.loc	13 678 30 is_stmt 0             @ lvgl/src/lv_themes/lv_theme_material.c:678:30
	ldr	r4, [r5]
	.loc	13 678 61                       @ lvgl/src/lv_themes/lv_theme_material.c:678:61
	bl	lv_disp_get_dpi
	rsb	r0, r0, r0, lsl #3
	cmp	r0, #240
	blt	.LBB15_8
@ %bb.7:
	movs	r0, #0
	bl	lv_disp_get_dpi
	rsb	r0, r0, r0, lsl #3
	adds	r0, #80
	smmul	r0, r0, r6
	asrs	r1, r0, #6
	add.w	r1, r1, r0, lsr #31
	b	.LBB15_9
.LBB15_8:
	.loc	13 0 61                         @ lvgl/src/lv_themes/lv_theme_material.c:0:61
	movs	r1, #1
.LBB15_9:
	.loc	13 678 5                        @ lvgl/src/lv_themes/lv_theme_material.c:678:5
	sxth	r1, r1
	.loc	13 678 38                       @ lvgl/src/lv_themes/lv_theme_material.c:678:38
	add.w	r0, r4, #132
	.loc	13 678 5                        @ lvgl/src/lv_themes/lv_theme_material.c:678:5
	bl	lv_style_set_pad_bottom
	.loc	13 681 21 is_stmt 1             @ lvgl/src/lv_themes/lv_theme_material.c:681:21
	ldr	r0, [r5]
	.loc	13 681 29 is_stmt 0             @ lvgl/src/lv_themes/lv_theme_material.c:681:29
	adds	r0, #136
	.loc	13 681 5                        @ lvgl/src/lv_themes/lv_theme_material.c:681:5
	bl	lv_style_reset
	.loc	13 682 26 is_stmt 1             @ lvgl/src/lv_themes/lv_theme_material.c:682:26
	ldr	r0, [r5]
	.loc	13 682 5 is_stmt 0              @ lvgl/src/lv_themes/lv_theme_material.c:682:5
	movs	r1, #0
	.loc	13 682 34                       @ lvgl/src/lv_themes/lv_theme_material.c:682:34
	adds	r0, #136
	.loc	13 682 5                        @ lvgl/src/lv_themes/lv_theme_material.c:682:5
	movs	r2, #255
	bl	lv_style_set_bg_opa
	.loc	13 683 28 is_stmt 1             @ lvgl/src/lv_themes/lv_theme_material.c:683:28
	ldr	r0, [r5]
	.loc	13 683 36 is_stmt 0             @ lvgl/src/lv_themes/lv_theme_material.c:683:36
	add.w	r4, r0, #136
	.loc	13 683 67                       @ lvgl/src/lv_themes/lv_theme_material.c:683:67
	movw	r0, #2184
	bl	lv_color_hex3
	mov	r2, r0
	.loc	13 683 5                        @ lvgl/src/lv_themes/lv_theme_material.c:683:5
	movs	r1, #0
	mov	r0, r4
	bl	lv_style_set_bg_color
	.loc	13 686 1 is_stmt 1              @ lvgl/src/lv_themes/lv_theme_material.c:686:1
	pop	{r4, r5, r6, pc}
.Ltmp42:
.Lfunc_end15:
	.size	page_init, .Lfunc_end15-page_init
	.cfi_endproc
	.cantunwind
	.fnend
                                        @ -- End function
	.section	.text.textarea_init,"ax",%progbits
	.p2align	3                               @ -- Begin function textarea_init
	.type	textarea_init,%function
	.code	16                              @ @textarea_init
	.thumb_func
textarea_init:
.Lfunc_begin16:
	.loc	13 689 0                        @ lvgl/src/lv_themes/lv_theme_material.c:689:0
	.fnstart
	.cfi_startproc
@ %bb.0:
	.save	{r4, r5, r6, r7, lr}
	push	{r4, r5, r6, r7, lr}
	.cfi_def_cfa_offset 20
	.cfi_offset lr, -4
	.cfi_offset r7, -8
	.cfi_offset r6, -12
	.cfi_offset r5, -16
	.cfi_offset r4, -20
	.pad	#4
	sub	sp, #4
	.cfi_def_cfa_offset 24
.Ltmp43:
	.loc	13 691 21 prologue_end          @ lvgl/src/lv_themes/lv_theme_material.c:691:21
	movw	r5, :lower16:styles
	movt	r5, :upper16:styles
	ldr	r0, [r5]
	.loc	13 691 29 is_stmt 0             @ lvgl/src/lv_themes/lv_theme_material.c:691:29
	adds	r0, #184
	.loc	13 691 5                        @ lvgl/src/lv_themes/lv_theme_material.c:691:5
	bl	lv_style_reset
	.loc	13 692 69 is_stmt 1             @ lvgl/src/lv_themes/lv_theme_material.c:692:69
	movw	r6, :lower16:theme
	.loc	13 692 32 is_stmt 0             @ lvgl/src/lv_themes/lv_theme_material.c:692:32
	ldr	r1, [r5]
	.loc	13 692 69                       @ lvgl/src/lv_themes/lv_theme_material.c:692:69
	movt	r6, :upper16:theme
	.loc	13 692 40                       @ lvgl/src/lv_themes/lv_theme_material.c:692:40
	add.w	r4, r1, #184
	.loc	13 692 69                       @ lvgl/src/lv_themes/lv_theme_material.c:692:69
	ldr	r0, [r6, #36]
	lsls	r0, r0, #30
	movw	r0, #16463
	movt	r0, #49
	itt	pl
	movwpl	r0, #43181
	movtpl	r0, #165
	bl	lv_color_hex
	mov	r2, r0
	.loc	13 692 5                        @ lvgl/src/lv_themes/lv_theme_material.c:692:5
	movs	r1, #0
	mov	r0, r4
	bl	lv_style_set_border_color
	.loc	13 693 32 is_stmt 1             @ lvgl/src/lv_themes/lv_theme_material.c:693:32
	ldr	r0, [r5]
	.loc	13 693 40 is_stmt 0             @ lvgl/src/lv_themes/lv_theme_material.c:693:40
	add.w	r4, r0, #184
	.loc	13 693 69                       @ lvgl/src/lv_themes/lv_theme_material.c:693:69
	movs	r0, #0
	bl	lv_disp_get_dpi
	movw	r7, #26215
	cmp	r0, #120
	movt	r7, #26214
	blt	.LBB16_2
@ %bb.1:
	movs	r0, #0
	bl	lv_disp_get_dpi
	movs	r1, #80
	add.w	r0, r1, r0, lsl #1
	smmul	r0, r0, r7
	asrs	r1, r0, #6
	add.w	r0, r1, r0, lsr #31
	b	.LBB16_3
.LBB16_2:
	.loc	13 0 69                         @ lvgl/src/lv_themes/lv_theme_material.c:0:69
	movs	r0, #1
.LBB16_3:
	.loc	13 693 5                        @ lvgl/src/lv_themes/lv_theme_material.c:693:5
	sxth	r2, r0
	movs	r1, #0
	mov	r0, r4
	bl	lv_style_set_border_width
	.loc	13 694 28 is_stmt 1             @ lvgl/src/lv_themes/lv_theme_material.c:694:28
	ldr	r0, [r5]
	.loc	13 694 36 is_stmt 0             @ lvgl/src/lv_themes/lv_theme_material.c:694:36
	add.w	r4, r0, #184
	.loc	13 694 65                       @ lvgl/src/lv_themes/lv_theme_material.c:694:65
	movs	r0, #0
	bl	lv_disp_get_dpi
	cmp	r0, #240
	blt	.LBB16_5
@ %bb.4:
	movs	r0, #0
	bl	lv_disp_get_dpi
	adds	r0, #80
	smmul	r0, r0, r7
	asrs	r1, r0, #6
	add.w	r0, r1, r0, lsr #31
	b	.LBB16_6
.LBB16_5:
	.loc	13 0 65                         @ lvgl/src/lv_themes/lv_theme_material.c:0:65
	movs	r0, #1
.LBB16_6:
	.loc	13 694 5                        @ lvgl/src/lv_themes/lv_theme_material.c:694:5
	sxth	r1, r0
	mov	r0, r4
	bl	lv_style_set_pad_left
	.loc	13 695 31 is_stmt 1             @ lvgl/src/lv_themes/lv_theme_material.c:695:31
	ldr	r0, [r5]
	.loc	13 695 5 is_stmt 0              @ lvgl/src/lv_themes/lv_theme_material.c:695:5
	movs	r1, #0
	.loc	13 695 39                       @ lvgl/src/lv_themes/lv_theme_material.c:695:39
	adds	r0, #184
	.loc	13 695 5                        @ lvgl/src/lv_themes/lv_theme_material.c:695:5
	movs	r2, #4
	bl	lv_style_set_border_side
	.loc	13 697 21 is_stmt 1             @ lvgl/src/lv_themes/lv_theme_material.c:697:21
	ldr	r0, [r5]
	.loc	13 697 29 is_stmt 0             @ lvgl/src/lv_themes/lv_theme_material.c:697:29
	adds	r0, #188
	.loc	13 697 5                        @ lvgl/src/lv_themes/lv_theme_material.c:697:5
	bl	lv_style_reset
	.loc	13 699 29 is_stmt 1             @ lvgl/src/lv_themes/lv_theme_material.c:699:29
	ldrb.w	r0, [r6, #36]
	.loc	13 698 30                       @ lvgl/src/lv_themes/lv_theme_material.c:698:30
	ldr	r4, [r5]
	.loc	13 699 29                       @ lvgl/src/lv_themes/lv_theme_material.c:699:29
	lsls	r0, r0, #30
	bmi	.LBB16_8
@ %bb.7:
	.loc	13 0 29 is_stmt 0               @ lvgl/src/lv_themes/lv_theme_material.c:0:29
	movw	r0, #44477
	movt	r0, #161
	.loc	13 699 60                       @ lvgl/src/lv_themes/lv_theme_material.c:699:60
	bl	lv_color_hex
	mov	r2, r0
	b	.LBB16_9
.LBB16_8:
	.loc	13 699 40                       @ lvgl/src/lv_themes/lv_theme_material.c:699:40
	movw	r0, #2730
	bl	lv_color_hex3
	mov	r2, r0
.LBB16_9:
	.loc	13 698 38 is_stmt 1             @ lvgl/src/lv_themes/lv_theme_material.c:698:38
	add.w	r0, r4, #188
	.loc	13 698 5 is_stmt 0              @ lvgl/src/lv_themes/lv_theme_material.c:698:5
	movs	r1, #0
	bl	lv_style_set_text_color
	.loc	13 701 1 is_stmt 1              @ lvgl/src/lv_themes/lv_theme_material.c:701:1
	add	sp, #4
	pop	{r4, r5, r6, r7, pc}
.Ltmp44:
.Lfunc_end16:
	.size	textarea_init, .Lfunc_end16-textarea_init
	.cfi_endproc
	.cantunwind
	.fnend
                                        @ -- End function
	.section	.text.spinbox_init,"ax",%progbits
	.p2align	3                               @ -- Begin function spinbox_init
	.type	spinbox_init,%function
	.code	16                              @ @spinbox_init
	.thumb_func
spinbox_init:
.Lfunc_begin17:
	.loc	13 704 0                        @ lvgl/src/lv_themes/lv_theme_material.c:704:0
	.fnstart
	.cfi_startproc
@ %bb.0:
	.save	{r4, r5, r6, r7, lr}
	push	{r4, r5, r6, r7, lr}
	.cfi_def_cfa_offset 20
	.cfi_offset lr, -4
	.cfi_offset r7, -8
	.cfi_offset r6, -12
	.cfi_offset r5, -16
	.cfi_offset r4, -20
	.pad	#4
	sub	sp, #4
	.cfi_def_cfa_offset 24
.Ltmp45:
	.loc	13 707 21 prologue_end          @ lvgl/src/lv_themes/lv_theme_material.c:707:21
	movw	r5, :lower16:styles
	movt	r5, :upper16:styles
	ldr	r0, [r5]
	.loc	13 707 29 is_stmt 0             @ lvgl/src/lv_themes/lv_theme_material.c:707:29
	adds	r0, #156
	.loc	13 707 5                        @ lvgl/src/lv_themes/lv_theme_material.c:707:5
	bl	lv_style_reset
	.loc	13 708 26 is_stmt 1             @ lvgl/src/lv_themes/lv_theme_material.c:708:26
	ldr	r0, [r5]
	.loc	13 708 5 is_stmt 0              @ lvgl/src/lv_themes/lv_theme_material.c:708:5
	movs	r1, #0
	.loc	13 708 34                       @ lvgl/src/lv_themes/lv_theme_material.c:708:34
	adds	r0, #156
	.loc	13 708 5                        @ lvgl/src/lv_themes/lv_theme_material.c:708:5
	movs	r2, #255
	bl	lv_style_set_bg_opa
	.loc	13 709 5 is_stmt 1              @ lvgl/src/lv_themes/lv_theme_material.c:709:5
	movw	r1, :lower16:theme
	.loc	13 709 28 is_stmt 0             @ lvgl/src/lv_themes/lv_theme_material.c:709:28
	ldr	r0, [r5]
	.loc	13 709 5                        @ lvgl/src/lv_themes/lv_theme_material.c:709:5
	movt	r1, :upper16:theme
	.loc	13 709 36                       @ lvgl/src/lv_themes/lv_theme_material.c:709:36
	adds	r0, #156
	.loc	13 709 5                        @ lvgl/src/lv_themes/lv_theme_material.c:709:5
	ldr	r2, [r1, #12]
	movs	r1, #0
	bl	lv_style_set_bg_color
	.loc	13 710 30 is_stmt 1             @ lvgl/src/lv_themes/lv_theme_material.c:710:30
	ldr	r0, [r5]
	.loc	13 710 5 is_stmt 0              @ lvgl/src/lv_themes/lv_theme_material.c:710:5
	movs	r1, #0
	.loc	13 710 38                       @ lvgl/src/lv_themes/lv_theme_material.c:710:38
	adds	r0, #156
	.loc	13 710 5                        @ lvgl/src/lv_themes/lv_theme_material.c:710:5
	mov.w	r2, #-1
	bl	lv_style_set_text_color
	.loc	13 711 27 is_stmt 1             @ lvgl/src/lv_themes/lv_theme_material.c:711:27
	ldr	r0, [r5]
	.loc	13 711 35 is_stmt 0             @ lvgl/src/lv_themes/lv_theme_material.c:711:35
	add.w	r4, r0, #156
	.loc	13 711 69                       @ lvgl/src/lv_themes/lv_theme_material.c:711:69
	movs	r0, #0
	bl	lv_disp_get_dpi
	movs	r7, #100
	movw	r6, #26215
	muls	r0, r7, r0
	movt	r6, #26214
	cmp	r0, #240
	blt	.LBB17_2
@ %bb.1:
	movs	r0, #0
	bl	lv_disp_get_dpi
	movs	r1, #80
	smlabb	r0, r0, r7, r1
	smmul	r0, r0, r6
	asrs	r1, r0, #6
	add.w	r0, r1, r0, lsr #31
	b	.LBB17_3
.LBB17_2:
	.loc	13 0 69                         @ lvgl/src/lv_themes/lv_theme_material.c:0:69
	movs	r0, #1
.LBB17_3:
	.loc	13 711 5                        @ lvgl/src/lv_themes/lv_theme_material.c:711:5
	sxth	r1, r0
	mov	r0, r4
	bl	lv_style_set_pad_top
	.loc	13 712 72 is_stmt 1             @ lvgl/src/lv_themes/lv_theme_material.c:712:72
	movs	r0, #0
	.loc	13 712 30 is_stmt 0             @ lvgl/src/lv_themes/lv_theme_material.c:712:30
	ldr	r4, [r5]
	.loc	13 712 72                       @ lvgl/src/lv_themes/lv_theme_material.c:712:72
	bl	lv_disp_get_dpi
	muls	r0, r7, r0
	cmp	r0, #240
	blt	.LBB17_5
@ %bb.4:
	movs	r0, #0
	bl	lv_disp_get_dpi
	movs	r1, #100
	movs	r2, #80
	smlabb	r0, r0, r1, r2
	smmul	r0, r0, r6
	asrs	r1, r0, #6
	add.w	r1, r1, r0, lsr #31
	b	.LBB17_6
.LBB17_5:
	.loc	13 0 72                         @ lvgl/src/lv_themes/lv_theme_material.c:0:72
	movs	r1, #1
.LBB17_6:
	.loc	13 712 5                        @ lvgl/src/lv_themes/lv_theme_material.c:712:5
	sxth	r1, r1
	.loc	13 712 38                       @ lvgl/src/lv_themes/lv_theme_material.c:712:38
	add.w	r0, r4, #156
	.loc	13 712 5                        @ lvgl/src/lv_themes/lv_theme_material.c:712:5
	bl	lv_style_set_pad_bottom
	.loc	13 715 1 is_stmt 1              @ lvgl/src/lv_themes/lv_theme_material.c:715:1
	add	sp, #4
	pop	{r4, r5, r6, r7, pc}
.Ltmp46:
.Lfunc_end17:
	.size	spinbox_init, .Lfunc_end17-spinbox_init
	.cfi_endproc
	.cantunwind
	.fnend
                                        @ -- End function
	.section	.text.list_init,"ax",%progbits
	.p2align	3                               @ -- Begin function list_init
	.type	list_init,%function
	.code	16                              @ @list_init
	.thumb_func
list_init:
.Lfunc_begin18:
	.loc	13 718 0                        @ lvgl/src/lv_themes/lv_theme_material.c:718:0
	.fnstart
	.cfi_startproc
@ %bb.0:
	.save	{r4, r5, r6, r7, r8, r9, lr}
	push.w	{r4, r5, r6, r7, r8, r9, lr}
	.cfi_def_cfa_offset 28
	.cfi_offset lr, -4
	.cfi_offset r9, -8
	.cfi_offset r8, -12
	.cfi_offset r7, -16
	.cfi_offset r6, -20
	.cfi_offset r5, -24
	.cfi_offset r4, -28
	.pad	#4
	sub	sp, #4
	.cfi_def_cfa_offset 32
.Ltmp47:
	.loc	13 720 21 prologue_end          @ lvgl/src/lv_themes/lv_theme_material.c:720:21
	movw	r9, :lower16:styles
	movt	r9, :upper16:styles
	ldr.w	r0, [r9]
	.loc	13 720 29 is_stmt 0             @ lvgl/src/lv_themes/lv_theme_material.c:720:29
	adds	r0, #120
	.loc	13 720 5                        @ lvgl/src/lv_themes/lv_theme_material.c:720:5
	bl	lv_style_reset
	.loc	13 721 31 is_stmt 1             @ lvgl/src/lv_themes/lv_theme_material.c:721:31
	ldr.w	r0, [r9]
	.loc	13 721 39 is_stmt 0             @ lvgl/src/lv_themes/lv_theme_material.c:721:39
	adds	r0, #120
	.loc	13 721 5                        @ lvgl/src/lv_themes/lv_theme_material.c:721:5
	bl	lv_style_set_clip_corner
	.loc	13 722 28 is_stmt 1             @ lvgl/src/lv_themes/lv_theme_material.c:722:28
	ldr.w	r0, [r9]
	.loc	13 722 5 is_stmt 0              @ lvgl/src/lv_themes/lv_theme_material.c:722:5
	movs	r1, #0
	.loc	13 722 36                       @ lvgl/src/lv_themes/lv_theme_material.c:722:36
	adds	r0, #120
	mov.w	r8, #0
	.loc	13 722 5                        @ lvgl/src/lv_themes/lv_theme_material.c:722:5
	bl	lv_style_set_pad_left
	.loc	13 723 29 is_stmt 1             @ lvgl/src/lv_themes/lv_theme_material.c:723:29
	ldr.w	r0, [r9]
	.loc	13 723 5 is_stmt 0              @ lvgl/src/lv_themes/lv_theme_material.c:723:5
	movs	r1, #0
	.loc	13 723 37                       @ lvgl/src/lv_themes/lv_theme_material.c:723:37
	adds	r0, #120
	.loc	13 723 5                        @ lvgl/src/lv_themes/lv_theme_material.c:723:5
	bl	lv_style_set_pad_right
	.loc	13 724 27 is_stmt 1             @ lvgl/src/lv_themes/lv_theme_material.c:724:27
	ldr.w	r0, [r9]
	.loc	13 724 5 is_stmt 0              @ lvgl/src/lv_themes/lv_theme_material.c:724:5
	movs	r1, #0
	.loc	13 724 35                       @ lvgl/src/lv_themes/lv_theme_material.c:724:35
	adds	r0, #120
	.loc	13 724 5                        @ lvgl/src/lv_themes/lv_theme_material.c:724:5
	bl	lv_style_set_pad_top
	.loc	13 725 30 is_stmt 1             @ lvgl/src/lv_themes/lv_theme_material.c:725:30
	ldr.w	r0, [r9]
	.loc	13 725 5 is_stmt 0              @ lvgl/src/lv_themes/lv_theme_material.c:725:5
	movs	r1, #0
	.loc	13 725 38                       @ lvgl/src/lv_themes/lv_theme_material.c:725:38
	adds	r0, #120
	.loc	13 725 5                        @ lvgl/src/lv_themes/lv_theme_material.c:725:5
	bl	lv_style_set_pad_bottom
	.loc	13 726 29 is_stmt 1             @ lvgl/src/lv_themes/lv_theme_material.c:726:29
	ldr.w	r0, [r9]
	.loc	13 726 5 is_stmt 0              @ lvgl/src/lv_themes/lv_theme_material.c:726:5
	movs	r1, #0
	.loc	13 726 37                       @ lvgl/src/lv_themes/lv_theme_material.c:726:37
	adds	r0, #120
	.loc	13 726 5                        @ lvgl/src/lv_themes/lv_theme_material.c:726:5
	bl	lv_style_set_pad_inner
	.loc	13 728 21 is_stmt 1             @ lvgl/src/lv_themes/lv_theme_material.c:728:21
	ldr.w	r0, [r9]
	.loc	13 728 29 is_stmt 0             @ lvgl/src/lv_themes/lv_theme_material.c:728:29
	adds	r0, #124
	.loc	13 728 5                        @ lvgl/src/lv_themes/lv_theme_material.c:728:5
	bl	lv_style_reset
	.loc	13 729 26 is_stmt 1             @ lvgl/src/lv_themes/lv_theme_material.c:729:26
	ldr.w	r0, [r9]
	.loc	13 729 5 is_stmt 0              @ lvgl/src/lv_themes/lv_theme_material.c:729:5
	movs	r1, #0
	.loc	13 729 34                       @ lvgl/src/lv_themes/lv_theme_material.c:729:34
	adds	r0, #124
	.loc	13 729 5                        @ lvgl/src/lv_themes/lv_theme_material.c:729:5
	movs	r2, #255
	bl	lv_style_set_bg_opa
	.loc	13 730 64 is_stmt 1             @ lvgl/src/lv_themes/lv_theme_material.c:730:64
	movw	r7, :lower16:theme
	.loc	13 730 28 is_stmt 0             @ lvgl/src/lv_themes/lv_theme_material.c:730:28
	ldr.w	r0, [r9]
	.loc	13 730 64                       @ lvgl/src/lv_themes/lv_theme_material.c:730:64
	movt	r7, :upper16:theme
	.loc	13 730 36                       @ lvgl/src/lv_themes/lv_theme_material.c:730:36
	add.w	r5, r0, #124
	mvn	r4, #-16777216
	.loc	13 730 64                       @ lvgl/src/lv_themes/lv_theme_material.c:730:64
	ldr	r0, [r7, #36]
	lsls	r0, r0, #30
	mvn	r0, #-16777216
	itt	pl
	movwpl	r0, #25203
	movtpl	r0, #88
	bl	lv_color_hex
	mov	r2, r0
	.loc	13 730 5                        @ lvgl/src/lv_themes/lv_theme_material.c:730:5
	movs	r1, #0
	mov	r0, r5
	bl	lv_style_set_bg_color
	.loc	13 731 64 is_stmt 1             @ lvgl/src/lv_themes/lv_theme_material.c:731:64
	ldr	r0, [r7, #36]
	.loc	13 731 28 is_stmt 0             @ lvgl/src/lv_themes/lv_theme_material.c:731:28
	ldr.w	r1, [r9]
	.loc	13 731 64                       @ lvgl/src/lv_themes/lv_theme_material.c:731:64
	lsls	r0, r0, #30
	movw	r0, #61166
	movt	r0, #238
	.loc	13 731 36                       @ lvgl/src/lv_themes/lv_theme_material.c:731:36
	add.w	r5, r1, #124
	.loc	13 731 64                       @ lvgl/src/lv_themes/lv_theme_material.c:731:64
	itt	pl
	movwpl	r0, #20311
	movtpl	r0, #73
	bl	lv_color_hex
	mov	r2, r0
	.loc	13 731 5                        @ lvgl/src/lv_themes/lv_theme_material.c:731:5
	movs	r1, #16
	mov	r0, r5
	bl	lv_style_set_bg_color
	.loc	13 732 65 is_stmt 1             @ lvgl/src/lv_themes/lv_theme_material.c:732:65
	ldr	r0, [r7, #36]
	.loc	13 732 28 is_stmt 0             @ lvgl/src/lv_themes/lv_theme_material.c:732:28
	ldr.w	r1, [r9]
	.loc	13 732 65                       @ lvgl/src/lv_themes/lv_theme_material.c:732:65
	lsls	r0, r0, #30
	.loc	13 732 36                       @ lvgl/src/lv_themes/lv_theme_material.c:732:36
	add.w	r5, r1, #124
	.loc	13 732 65                       @ lvgl/src/lv_themes/lv_theme_material.c:732:65
	itt	pl
	movwpl	r4, #25203
	movtpl	r4, #88
	mov	r0, r4
	bl	lv_color_hex
	mov	r2, r0
	.loc	13 732 5                        @ lvgl/src/lv_themes/lv_theme_material.c:732:5
	movs	r1, #32
	mov	r0, r5
	bl	lv_style_set_bg_color
	.loc	13 733 28 is_stmt 1             @ lvgl/src/lv_themes/lv_theme_material.c:733:28
	ldr.w	r0, [r9]
	.loc	13 733 5 is_stmt 0              @ lvgl/src/lv_themes/lv_theme_material.c:733:5
	ldr	r2, [r7, #12]
	.loc	13 733 36                       @ lvgl/src/lv_themes/lv_theme_material.c:733:36
	adds	r0, #124
	.loc	13 733 5                        @ lvgl/src/lv_themes/lv_theme_material.c:733:5
	movs	r1, #1
	bl	lv_style_set_bg_color
	.loc	13 734 28 is_stmt 1             @ lvgl/src/lv_themes/lv_theme_material.c:734:28
	ldr.w	r0, [r9]
	.loc	13 734 83 is_stmt 0             @ lvgl/src/lv_themes/lv_theme_material.c:734:83
	movs	r1, #51
	.loc	13 734 36                       @ lvgl/src/lv_themes/lv_theme_material.c:734:36
	add.w	r4, r0, #124
	.loc	13 734 83                       @ lvgl/src/lv_themes/lv_theme_material.c:734:83
	ldr	r0, [r7, #12]
	bl	lv_color_darken
	mov	r2, r0
	.loc	13 734 5                        @ lvgl/src/lv_themes/lv_theme_material.c:734:5
	movs	r1, #17
	mov	r0, r4
	bl	lv_style_set_bg_color
	movw	r4, #15938
