	.text
	.syntax unified
	.eabi_attribute	67, "2.09"	@ Tag_conformance
	.cpu	cortex-m7
	.eabi_attribute	6, 13	@ Tag_CPU_arch
	.eabi_attribute	7, 77	@ Tag_CPU_arch_profile
	.eabi_attribute	8, 0	@ Tag_ARM_ISA_use
	.eabi_attribute	9, 2	@ Tag_THUMB_ISA_use
	.fpu	fpv5-d16
	.eabi_attribute	36, 1	@ Tag_FP_HP_extension
	.eabi_attribute	34, 1	@ Tag_CPU_unaligned_access
	.eabi_attribute	17, 1	@ Tag_ABI_PCS_GOT_use
	.eabi_attribute	20, 2	@ Tag_ABI_FP_denormal
	.eabi_attribute	21, 0	@ Tag_ABI_FP_exceptions
	.eabi_attribute	23, 1	@ Tag_ABI_FP_number_model
	.eabi_attribute	24, 1	@ Tag_ABI_align_needed
	.eabi_attribute	25, 1	@ Tag_ABI_align_preserved
	.eabi_attribute	28, 1	@ Tag_ABI_VFP_args
	.eabi_attribute	38, 1	@ Tag_ABI_FP_16bit_format
	.eabi_attribute	18, 2	@ Tag_ABI_PCS_wchar_t
	.eabi_attribute	26, 1	@ Tag_ABI_enum_size
	.eabi_attribute	14, 0	@ Tag_ABI_PCS_R9_use
	.file	"lv_txt.c"
	.file	1 "D:\\Keil_v5\\ARM\\ARMCLANG\\Bin\\..\\include" "stdint.h"
	.file	2 "E:\\Smart-access-control\\Hardware\\CODE" "lvgl/src/lv_misc/lv_txt.c"
	.file	3 "E:\\Smart-access-control\\Hardware\\CODE" "lvgl/src/lv_misc/../lv_draw/../lv_misc/lv_txt.h"
	.file	4 "E:\\Smart-access-control\\Hardware\\CODE" "./lvgl/src/lv_conf.h"
	.section	.text.lv_txt_utf8_size,"ax",%progbits
	.p2align	3                               @ -- Begin function lv_txt_utf8_size
	.type	lv_txt_utf8_size,%function
	.code	16                              @ @lv_txt_utf8_size
	.thumb_func
lv_txt_utf8_size:
.Lfunc_begin0:
	.loc	2 538 0                         @ lvgl/src/lv_misc/lv_txt.c:538:0
	.fnstart
	.cfi_sections .debug_frame
	.cfi_startproc
@ %bb.0:
	.pad	#8
	sub	sp, #8
	.cfi_def_cfa_offset 8
	str	r0, [sp]
.Ltmp0:
	.loc	2 539 9 prologue_end            @ lvgl/src/lv_misc/lv_txt.c:539:9
	ldr	r0, [sp]
	ldrb	r0, [r0]
.Ltmp1:
	.loc	2 539 8 is_stmt 0               @ lvgl/src/lv_misc/lv_txt.c:539:8
	lsls	r0, r0, #24
	cmp	r0, #0
	bmi	.LBB0_2
	b	.LBB0_1
.LBB0_1:
	.loc	2 0 8                           @ lvgl/src/lv_misc/lv_txt.c:0:8
	movs	r0, #1
.Ltmp2:
	.loc	2 540 9 is_stmt 1               @ lvgl/src/lv_misc/lv_txt.c:540:9
	strb.w	r0, [sp, #7]
	b	.LBB0_12
.LBB0_2:
.Ltmp3:
	.loc	2 541 14                        @ lvgl/src/lv_misc/lv_txt.c:541:14
	ldr	r0, [sp]
	ldrb	r0, [r0]
	.loc	2 541 21 is_stmt 0              @ lvgl/src/lv_misc/lv_txt.c:541:21
	and	r0, r0, #224
.Ltmp4:
	.loc	2 541 13                        @ lvgl/src/lv_misc/lv_txt.c:541:13
	cmp	r0, #192
	bne	.LBB0_4
	b	.LBB0_3
.LBB0_3:
	.loc	2 0 13                          @ lvgl/src/lv_misc/lv_txt.c:0:13
	movs	r0, #2
.Ltmp5:
	.loc	2 542 9 is_stmt 1               @ lvgl/src/lv_misc/lv_txt.c:542:9
	strb.w	r0, [sp, #7]
	b	.LBB0_12
.LBB0_4:
.Ltmp6:
	.loc	2 543 14                        @ lvgl/src/lv_misc/lv_txt.c:543:14
	ldr	r0, [sp]
	ldrb	r0, [r0]
	.loc	2 543 21 is_stmt 0              @ lvgl/src/lv_misc/lv_txt.c:543:21
	and	r0, r0, #240
.Ltmp7:
	.loc	2 543 13                        @ lvgl/src/lv_misc/lv_txt.c:543:13
	cmp	r0, #224
	bne	.LBB0_6
	b	.LBB0_5
.LBB0_5:
	.loc	2 0 13                          @ lvgl/src/lv_misc/lv_txt.c:0:13
	movs	r0, #3
.Ltmp8:
	.loc	2 544 9 is_stmt 1               @ lvgl/src/lv_misc/lv_txt.c:544:9
	strb.w	r0, [sp, #7]
	b	.LBB0_12
.LBB0_6:
.Ltmp9:
	.loc	2 545 14                        @ lvgl/src/lv_misc/lv_txt.c:545:14
	ldr	r0, [sp]
	ldrb	r0, [r0]
	.loc	2 545 21 is_stmt 0              @ lvgl/src/lv_misc/lv_txt.c:545:21
	and	r0, r0, #248
.Ltmp10:
	.loc	2 545 13                        @ lvgl/src/lv_misc/lv_txt.c:545:13
	cmp	r0, #240
	bne	.LBB0_8
	b	.LBB0_7
.LBB0_7:
	.loc	2 0 13                          @ lvgl/src/lv_misc/lv_txt.c:0:13
	movs	r0, #4
.Ltmp11:
	.loc	2 546 9 is_stmt 1               @ lvgl/src/lv_misc/lv_txt.c:546:9
	strb.w	r0, [sp, #7]
	b	.LBB0_12
.Ltmp12:
.LBB0_8:
	.loc	2 0 9 is_stmt 0                 @ lvgl/src/lv_misc/lv_txt.c:0:9
	b	.LBB0_9
.LBB0_9:
	b	.LBB0_10
.LBB0_10:
	b	.LBB0_11
.LBB0_11:
	movs	r0, #0
	.loc	2 547 5 is_stmt 1               @ lvgl/src/lv_misc/lv_txt.c:547:5
	strb.w	r0, [sp, #7]
	b	.LBB0_12
.LBB0_12:
	.loc	2 548 1                         @ lvgl/src/lv_misc/lv_txt.c:548:1
	ldrb.w	r0, [sp, #7]
	add	sp, #8
	bx	lr
.Ltmp13:
.Lfunc_end0:
	.size	lv_txt_utf8_size, .Lfunc_end0-lv_txt_utf8_size
	.cfi_endproc
	.cantunwind
	.fnend
                                        @ -- End function
	.section	.text.lv_txt_unicode_to_utf8,"ax",%progbits
	.p2align	3                               @ -- Begin function lv_txt_unicode_to_utf8
	.type	lv_txt_unicode_to_utf8,%function
	.code	16                              @ @lv_txt_unicode_to_utf8
	.thumb_func
lv_txt_unicode_to_utf8:
.Lfunc_begin1:
	.loc	2 556 0                         @ lvgl/src/lv_misc/lv_txt.c:556:0
	.fnstart
	.cfi_startproc
@ %bb.0:
	.pad	#16
	sub	sp, #16
	.cfi_def_cfa_offset 16
	str	r0, [sp, #8]
.Ltmp14:
	.loc	2 557 8 prologue_end            @ lvgl/src/lv_misc/lv_txt.c:557:8
	ldr	r0, [sp, #8]
.Ltmp15:
	.loc	2 557 8 is_stmt 0               @ lvgl/src/lv_misc/lv_txt.c:557:8
	cmp	r0, #127
	bhi	.LBB1_2
	b	.LBB1_1
.LBB1_1:
.Ltmp16:
	.loc	2 557 33                        @ lvgl/src/lv_misc/lv_txt.c:557:33
	ldr	r0, [sp, #8]
	.loc	2 557 26                        @ lvgl/src/lv_misc/lv_txt.c:557:26
	str	r0, [sp, #12]
	b	.LBB1_11
.Ltmp17:
.LBB1_2:
	.loc	2 560 8 is_stmt 1               @ lvgl/src/lv_misc/lv_txt.c:560:8
	ldr	r1, [sp, #8]
	movs	r0, #0
.Ltmp18:
	.loc	2 560 8 is_stmt 0               @ lvgl/src/lv_misc/lv_txt.c:560:8
	cmp.w	r0, r1, lsr #11
	bne	.LBB1_4
	b	.LBB1_3
.LBB1_3:
.Ltmp19:
	.loc	2 561 22 is_stmt 1              @ lvgl/src/lv_misc/lv_txt.c:561:22
	ldr	r0, [sp, #8]
	.loc	2 561 33 is_stmt 0              @ lvgl/src/lv_misc/lv_txt.c:561:33
	lsrs	r0, r0, #6
	movs	r1, #6
	.loc	2 561 47                        @ lvgl/src/lv_misc/lv_txt.c:561:47
	bfi	r0, r1, #5, #27
	.loc	2 561 18                        @ lvgl/src/lv_misc/lv_txt.c:561:18
	strb.w	r0, [sp, #4]
	.loc	2 562 22 is_stmt 1              @ lvgl/src/lv_misc/lv_txt.c:562:22
	ldr	r0, [sp, #8]
	movs	r1, #2
	.loc	2 562 47 is_stmt 0              @ lvgl/src/lv_misc/lv_txt.c:562:47
	bfi	r0, r1, #6, #26
	.loc	2 562 18                        @ lvgl/src/lv_misc/lv_txt.c:562:18
	strb.w	r0, [sp, #5]
	movs	r0, #0
	.loc	2 563 18 is_stmt 1              @ lvgl/src/lv_misc/lv_txt.c:563:18
	strb.w	r0, [sp, #6]
	.loc	2 564 18                        @ lvgl/src/lv_misc/lv_txt.c:564:18
	strb.w	r0, [sp, #7]
	.loc	2 565 5                         @ lvgl/src/lv_misc/lv_txt.c:565:5
	b	.LBB1_10
.Ltmp20:
.LBB1_4:
	.loc	2 566 13                        @ lvgl/src/lv_misc/lv_txt.c:566:13
	ldrh.w	r0, [sp, #10]
.Ltmp21:
	.loc	2 566 13 is_stmt 0              @ lvgl/src/lv_misc/lv_txt.c:566:13
	cbnz	r0, .LBB1_6
	b	.LBB1_5
.LBB1_5:
.Ltmp22:
	.loc	2 567 22 is_stmt 1              @ lvgl/src/lv_misc/lv_txt.c:567:22
	ldr	r0, [sp, #8]
	.loc	2 567 33 is_stmt 0              @ lvgl/src/lv_misc/lv_txt.c:567:33
	lsrs	r0, r0, #12
	movs	r1, #14
	.loc	2 567 48                        @ lvgl/src/lv_misc/lv_txt.c:567:48
	bfi	r0, r1, #4, #28
	.loc	2 567 18                        @ lvgl/src/lv_misc/lv_txt.c:567:18
	strb.w	r0, [sp, #4]
	.loc	2 568 22 is_stmt 1              @ lvgl/src/lv_misc/lv_txt.c:568:22
	ldr	r0, [sp, #8]
	.loc	2 568 33 is_stmt 0              @ lvgl/src/lv_misc/lv_txt.c:568:33
	lsrs	r0, r0, #6
	movs	r1, #2
	.loc	2 568 47                        @ lvgl/src/lv_misc/lv_txt.c:568:47
	bfi	r0, r1, #6, #26
	.loc	2 568 18                        @ lvgl/src/lv_misc/lv_txt.c:568:18
	strb.w	r0, [sp, #5]
	.loc	2 569 22 is_stmt 1              @ lvgl/src/lv_misc/lv_txt.c:569:22
	ldr	r0, [sp, #8]
	.loc	2 569 47 is_stmt 0              @ lvgl/src/lv_misc/lv_txt.c:569:47
	bfi	r0, r1, #6, #26
	.loc	2 569 18                        @ lvgl/src/lv_misc/lv_txt.c:569:18
	strb.w	r0, [sp, #6]
	movs	r0, #0
	.loc	2 570 18 is_stmt 1              @ lvgl/src/lv_misc/lv_txt.c:570:18
	strb.w	r0, [sp, #7]
	.loc	2 571 5                         @ lvgl/src/lv_misc/lv_txt.c:571:5
	b	.LBB1_9
.Ltmp23:
.LBB1_6:
	.loc	2 572 13                        @ lvgl/src/lv_misc/lv_txt.c:572:13
	ldrh.w	r0, [sp, #10]
.Ltmp24:
	.loc	2 572 13 is_stmt 0              @ lvgl/src/lv_misc/lv_txt.c:572:13
	cmp	r0, #16
	bhi	.LBB1_8
	b	.LBB1_7
.LBB1_7:
.Ltmp25:
	.loc	2 573 22 is_stmt 1              @ lvgl/src/lv_misc/lv_txt.c:573:22
	ldr	r0, [sp, #8]
	.loc	2 573 33 is_stmt 0              @ lvgl/src/lv_misc/lv_txt.c:573:33
	lsrs	r0, r0, #18
	movs	r1, #30
	.loc	2 573 48                        @ lvgl/src/lv_misc/lv_txt.c:573:48
	bfi	r0, r1, #3, #29
	.loc	2 573 18                        @ lvgl/src/lv_misc/lv_txt.c:573:18
	strb.w	r0, [sp, #4]
	.loc	2 574 22 is_stmt 1              @ lvgl/src/lv_misc/lv_txt.c:574:22
	ldr	r0, [sp, #8]
	.loc	2 574 33 is_stmt 0              @ lvgl/src/lv_misc/lv_txt.c:574:33
	lsrs	r0, r0, #12
	movs	r1, #2
	.loc	2 574 48                        @ lvgl/src/lv_misc/lv_txt.c:574:48
	bfi	r0, r1, #6, #26
	.loc	2 574 18                        @ lvgl/src/lv_misc/lv_txt.c:574:18
	strb.w	r0, [sp, #5]
	.loc	2 575 22 is_stmt 1              @ lvgl/src/lv_misc/lv_txt.c:575:22
	ldr	r0, [sp, #8]
	.loc	2 575 33 is_stmt 0              @ lvgl/src/lv_misc/lv_txt.c:575:33
	lsrs	r0, r0, #6
	.loc	2 575 47                        @ lvgl/src/lv_misc/lv_txt.c:575:47
	bfi	r0, r1, #6, #26
	.loc	2 575 18                        @ lvgl/src/lv_misc/lv_txt.c:575:18
	strb.w	r0, [sp, #6]
	.loc	2 576 22 is_stmt 1              @ lvgl/src/lv_misc/lv_txt.c:576:22
	ldr	r0, [sp, #8]
	.loc	2 576 47 is_stmt 0              @ lvgl/src/lv_misc/lv_txt.c:576:47
	bfi	r0, r1, #6, #26
	.loc	2 576 18                        @ lvgl/src/lv_misc/lv_txt.c:576:18
	strb.w	r0, [sp, #7]
	.loc	2 577 5 is_stmt 1               @ lvgl/src/lv_misc/lv_txt.c:577:5
	b	.LBB1_8
.Ltmp26:
.LBB1_8:
	.loc	2 0 5 is_stmt 0                 @ lvgl/src/lv_misc/lv_txt.c:0:5
	b	.LBB1_9
.LBB1_9:
	b	.LBB1_10
.LBB1_10:
	add	r0, sp, #4
	.loc	2 579 16 is_stmt 1              @ lvgl/src/lv_misc/lv_txt.c:579:16
	str	r0, [sp]
	.loc	2 580 13                        @ lvgl/src/lv_misc/lv_txt.c:580:13
	ldr	r0, [sp]
	.loc	2 580 12 is_stmt 0              @ lvgl/src/lv_misc/lv_txt.c:580:12
	ldr	r0, [r0]
	.loc	2 580 5                         @ lvgl/src/lv_misc/lv_txt.c:580:5
	str	r0, [sp, #12]
	b	.LBB1_11
.LBB1_11:
	.loc	2 581 1 is_stmt 1               @ lvgl/src/lv_misc/lv_txt.c:581:1
	ldr	r0, [sp, #12]
	add	sp, #16
	bx	lr
.Ltmp27:
.Lfunc_end1:
	.size	lv_txt_unicode_to_utf8, .Lfunc_end1-lv_txt_unicode_to_utf8
	.cfi_endproc
	.cantunwind
	.fnend
                                        @ -- End function
	.section	.text.lv_txt_utf8_conv_wc,"ax",%progbits
	.p2align	3                               @ -- Begin function lv_txt_utf8_conv_wc
	.type	lv_txt_utf8_conv_wc,%function
	.code	16                              @ @lv_txt_utf8_conv_wc
	.thumb_func
lv_txt_utf8_conv_wc:
.Lfunc_begin2:
	.loc	2 589 0                         @ lvgl/src/lv_misc/lv_txt.c:589:0
	.fnstart
	.cfi_startproc
@ %bb.0:
	.save	{r7, lr}
	push	{r7, lr}
	.cfi_def_cfa_offset 8
	.cfi_offset lr, -4
	.cfi_offset r7, -8
	.pad	#16
	sub	sp, #16
	.cfi_def_cfa_offset 24
	str	r0, [sp, #12]
.Ltmp28:
	.loc	2 592 8 prologue_end            @ lvgl/src/lv_misc/lv_txt.c:592:8
	ldrb.w	r0, [sp, #12]
	lsls	r0, r0, #24
	cmp	r0, #0
	bpl	.LBB2_8
	b	.LBB2_1
.LBB2_1:
	.loc	2 0 8 is_stmt 0                 @ lvgl/src/lv_misc/lv_txt.c:0:8
	add	r0, sp, #4
	add	r1, sp, #12
	movs	r2, #4
.Ltmp29:
	.loc	2 595 9 is_stmt 1               @ lvgl/src/lv_misc/lv_txt.c:595:9
	bl	_lv_memcpy_small
	.loc	2 596 64                        @ lvgl/src/lv_misc/lv_txt.c:596:64
	ldr	r0, [sp, #4]
	rev	r0, r0
	.loc	2 596 17 is_stmt 0              @ lvgl/src/lv_misc/lv_txt.c:596:17
	str	r0, [sp, #8]
	movs	r0, #0
.Ltmp30:
	.loc	2 598 15 is_stmt 1              @ lvgl/src/lv_misc/lv_txt.c:598:15
	strb.w	r0, [sp, #3]
	.loc	2 598 13 is_stmt 0              @ lvgl/src/lv_misc/lv_txt.c:598:13
	b	.LBB2_2
.LBB2_2:                                @ =>This Inner Loop Header: Depth=1
.Ltmp31:
	.loc	2 598 20                        @ lvgl/src/lv_misc/lv_txt.c:598:20
	ldrb.w	r0, [sp, #3]
.Ltmp32:
	.loc	2 598 9                         @ lvgl/src/lv_misc/lv_txt.c:598:9
	cmp	r0, #3
	bgt	.LBB2_7
	b	.LBB2_3
.LBB2_3:                                @   in Loop: Header=BB2_2 Depth=1
.Ltmp33:
	.loc	2 599 16 is_stmt 1              @ lvgl/src/lv_misc/lv_txt.c:599:16
	ldrb.w	r0, [sp, #8]
	cbnz	r0, .LBB2_5
	b	.LBB2_4
.LBB2_4:                                @   in Loop: Header=BB2_2 Depth=1
.Ltmp34:
	.loc	2 600 28                        @ lvgl/src/lv_misc/lv_txt.c:600:28
	ldr	r0, [sp, #8]
	.loc	2 600 36 is_stmt 0              @ lvgl/src/lv_misc/lv_txt.c:600:36
	lsrs	r0, r0, #8
	.loc	2 600 25                        @ lvgl/src/lv_misc/lv_txt.c:600:25
	str	r0, [sp, #8]
	.loc	2 600 17                        @ lvgl/src/lv_misc/lv_txt.c:600:17
	b	.LBB2_5
.Ltmp35:
.LBB2_5:                                @   in Loop: Header=BB2_2 Depth=1
	.loc	2 601 9 is_stmt 1               @ lvgl/src/lv_misc/lv_txt.c:601:9
	b	.LBB2_6
.Ltmp36:
.LBB2_6:                                @   in Loop: Header=BB2_2 Depth=1
	.loc	2 598 28                        @ lvgl/src/lv_misc/lv_txt.c:598:28
	ldrb.w	r0, [sp, #3]
	adds	r0, #1
	strb.w	r0, [sp, #3]
	.loc	2 598 9 is_stmt 0               @ lvgl/src/lv_misc/lv_txt.c:598:9
	b	.LBB2_2
.Ltmp37:
.LBB2_7:
	.loc	2 602 13 is_stmt 1              @ lvgl/src/lv_misc/lv_txt.c:602:13
	ldr	r0, [sp, #8]
	.loc	2 602 11 is_stmt 0              @ lvgl/src/lv_misc/lv_txt.c:602:11
	str	r0, [sp, #12]
	.loc	2 603 5 is_stmt 1               @ lvgl/src/lv_misc/lv_txt.c:603:5
	b	.LBB2_8
.Ltmp38:
.LBB2_8:
	.loc	2 605 12                        @ lvgl/src/lv_misc/lv_txt.c:605:12
	ldr	r0, [sp, #12]
	.loc	2 605 5 is_stmt 0               @ lvgl/src/lv_misc/lv_txt.c:605:5
	add	sp, #16
	pop	{r7, pc}
.Ltmp39:
.Lfunc_end2:
	.size	lv_txt_utf8_conv_wc, .Lfunc_end2-lv_txt_utf8_conv_wc
	.cfi_endproc
	.cantunwind
	.fnend
                                        @ -- End function
	.section	.text.lv_txt_utf8_next,"ax",%progbits
	.p2align	3                               @ -- Begin function lv_txt_utf8_next
	.type	lv_txt_utf8_next,%function
	.code	16                              @ @lv_txt_utf8_next
	.thumb_func
lv_txt_utf8_next:
.Lfunc_begin3:
	.loc	2 617 0 is_stmt 1               @ lvgl/src/lv_misc/lv_txt.c:617:0
	.fnstart
	.cfi_startproc
@ %bb.0:
	.pad	#20
	sub	sp, #20
	.cfi_def_cfa_offset 20
	str	r0, [sp, #12]
	str	r1, [sp, #8]
	movs	r0, #0
.Ltmp40:
	.loc	2 625 14 prologue_end           @ lvgl/src/lv_misc/lv_txt.c:625:14
	str	r0, [sp, #4]
	.loc	2 628 14                        @ lvgl/src/lv_misc/lv_txt.c:628:14
	str	r0, [sp]
.Ltmp41:
	.loc	2 629 8                         @ lvgl/src/lv_misc/lv_txt.c:629:8
	ldr	r0, [sp, #8]
.Ltmp42:
	.loc	2 629 8 is_stmt 0               @ lvgl/src/lv_misc/lv_txt.c:629:8
	cbnz	r0, .LBB3_2
	b	.LBB3_1
.LBB3_1:
	.loc	2 0 8                           @ lvgl/src/lv_misc/lv_txt.c:0:8
	mov	r0, sp
.Ltmp43:
	.loc	2 629 21                        @ lvgl/src/lv_misc/lv_txt.c:629:21
	str	r0, [sp, #8]
	.loc	2 629 19                        @ lvgl/src/lv_misc/lv_txt.c:629:19
	b	.LBB3_2
.Ltmp44:
.LBB3_2:
	.loc	2 632 9 is_stmt 1               @ lvgl/src/lv_misc/lv_txt.c:632:9
	ldr	r0, [sp, #12]
	.loc	2 632 14 is_stmt 0              @ lvgl/src/lv_misc/lv_txt.c:632:14
	ldr	r1, [sp, #8]
	.loc	2 632 13                        @ lvgl/src/lv_misc/lv_txt.c:632:13
	ldr	r1, [r1]
	.loc	2 632 9                         @ lvgl/src/lv_misc/lv_txt.c:632:9
	ldrb	r0, [r0, r1]
.Ltmp45:
	.loc	2 632 8                         @ lvgl/src/lv_misc/lv_txt.c:632:8
	lsls	r0, r0, #24
	cmp	r0, #0
	bmi	.LBB3_4
	b	.LBB3_3
.LBB3_3:
.Ltmp46:
	.loc	2 633 18 is_stmt 1              @ lvgl/src/lv_misc/lv_txt.c:633:18
	ldr	r0, [sp, #12]
	.loc	2 633 23 is_stmt 0              @ lvgl/src/lv_misc/lv_txt.c:633:23
	ldr	r1, [sp, #8]
	.loc	2 633 22                        @ lvgl/src/lv_misc/lv_txt.c:633:22
	ldr	r1, [r1]
	.loc	2 633 18                        @ lvgl/src/lv_misc/lv_txt.c:633:18
	ldrsb	r0, [r0, r1]
	.loc	2 633 16                        @ lvgl/src/lv_misc/lv_txt.c:633:16
	str	r0, [sp, #4]
	.loc	2 634 11 is_stmt 1              @ lvgl/src/lv_misc/lv_txt.c:634:11
	ldr	r1, [sp, #8]
	.loc	2 634 13 is_stmt 0              @ lvgl/src/lv_misc/lv_txt.c:634:13
	ldr	r0, [r1]
	adds	r0, #1
	str	r0, [r1]
	.loc	2 635 5 is_stmt 1               @ lvgl/src/lv_misc/lv_txt.c:635:5
	b	.LBB3_26
.Ltmp47:
.LBB3_4:
	.loc	2 639 13                        @ lvgl/src/lv_misc/lv_txt.c:639:13
	ldr	r0, [sp, #12]
	.loc	2 639 18 is_stmt 0              @ lvgl/src/lv_misc/lv_txt.c:639:18
	ldr	r1, [sp, #8]
	.loc	2 639 17                        @ lvgl/src/lv_misc/lv_txt.c:639:17
	ldr	r1, [r1]
	.loc	2 639 13                        @ lvgl/src/lv_misc/lv_txt.c:639:13
	ldrb	r0, [r0, r1]
	.loc	2 639 21                        @ lvgl/src/lv_misc/lv_txt.c:639:21
	and	r0, r0, #224
.Ltmp48:
	.loc	2 639 12                        @ lvgl/src/lv_misc/lv_txt.c:639:12
	cmp	r0, #192
	bne	.LBB3_8
	b	.LBB3_5
.LBB3_5:
.Ltmp49:
	.loc	2 640 33 is_stmt 1              @ lvgl/src/lv_misc/lv_txt.c:640:33
	ldr	r0, [sp, #12]
	.loc	2 640 38 is_stmt 0              @ lvgl/src/lv_misc/lv_txt.c:640:38
	ldr	r1, [sp, #8]
	.loc	2 640 37                        @ lvgl/src/lv_misc/lv_txt.c:640:37
	ldr	r1, [r1]
	.loc	2 640 33                        @ lvgl/src/lv_misc/lv_txt.c:640:33
	ldrb	r0, [r0, r1]
	.loc	2 640 41                        @ lvgl/src/lv_misc/lv_txt.c:640:41
	and	r0, r0, #31
	.loc	2 640 49                        @ lvgl/src/lv_misc/lv_txt.c:640:49
	lsls	r0, r0, #6
	.loc	2 640 20                        @ lvgl/src/lv_misc/lv_txt.c:640:20
	str	r0, [sp, #4]
	.loc	2 641 15 is_stmt 1              @ lvgl/src/lv_misc/lv_txt.c:641:15
	ldr	r1, [sp, #8]
	.loc	2 641 17 is_stmt 0              @ lvgl/src/lv_misc/lv_txt.c:641:17
	ldr	r0, [r1]
	adds	r0, #1
	str	r0, [r1]
.Ltmp50:
	.loc	2 642 17 is_stmt 1              @ lvgl/src/lv_misc/lv_txt.c:642:17
	ldr	r0, [sp, #12]
	.loc	2 642 22 is_stmt 0              @ lvgl/src/lv_misc/lv_txt.c:642:22
	ldr	r1, [sp, #8]
	.loc	2 642 21                        @ lvgl/src/lv_misc/lv_txt.c:642:21
	ldr	r1, [r1]
	.loc	2 642 17                        @ lvgl/src/lv_misc/lv_txt.c:642:17
	ldrb	r0, [r0, r1]
	.loc	2 642 25                        @ lvgl/src/lv_misc/lv_txt.c:642:25
	and	r0, r0, #192
.Ltmp51:
	.loc	2 642 16                        @ lvgl/src/lv_misc/lv_txt.c:642:16
	cmp	r0, #128
	beq	.LBB3_7
	b	.LBB3_6
.LBB3_6:
	.loc	2 0 16                          @ lvgl/src/lv_misc/lv_txt.c:0:16
	movs	r0, #0
.Ltmp52:
	.loc	2 642 42                        @ lvgl/src/lv_misc/lv_txt.c:642:42
	str	r0, [sp, #16]
	b	.LBB3_27
.Ltmp53:
.LBB3_7:
	.loc	2 643 24 is_stmt 1              @ lvgl/src/lv_misc/lv_txt.c:643:24
	ldr	r0, [sp, #12]
	.loc	2 643 29 is_stmt 0              @ lvgl/src/lv_misc/lv_txt.c:643:29
	ldr	r1, [sp, #8]
	.loc	2 643 28                        @ lvgl/src/lv_misc/lv_txt.c:643:28
	ldr	r1, [r1]
	.loc	2 643 24                        @ lvgl/src/lv_misc/lv_txt.c:643:24
	ldrb	r0, [r0, r1]
	.loc	2 643 32                        @ lvgl/src/lv_misc/lv_txt.c:643:32
	and	r1, r0, #63
	.loc	2 643 20                        @ lvgl/src/lv_misc/lv_txt.c:643:20
	ldr	r0, [sp, #4]
	add	r0, r1
	str	r0, [sp, #4]
	.loc	2 644 15 is_stmt 1              @ lvgl/src/lv_misc/lv_txt.c:644:15
	ldr	r1, [sp, #8]
	.loc	2 644 17 is_stmt 0              @ lvgl/src/lv_misc/lv_txt.c:644:17
	ldr	r0, [r1]
	adds	r0, #1
	str	r0, [r1]
	.loc	2 645 9 is_stmt 1               @ lvgl/src/lv_misc/lv_txt.c:645:9
	b	.LBB3_25
.Ltmp54:
.LBB3_8:
	.loc	2 647 18                        @ lvgl/src/lv_misc/lv_txt.c:647:18
	ldr	r0, [sp, #12]
	.loc	2 647 23 is_stmt 0              @ lvgl/src/lv_misc/lv_txt.c:647:23
	ldr	r1, [sp, #8]
	.loc	2 647 22                        @ lvgl/src/lv_misc/lv_txt.c:647:22
	ldr	r1, [r1]
	.loc	2 647 18                        @ lvgl/src/lv_misc/lv_txt.c:647:18
	ldrb	r0, [r0, r1]
	.loc	2 647 26                        @ lvgl/src/lv_misc/lv_txt.c:647:26
	and	r0, r0, #240
.Ltmp55:
	.loc	2 647 17                        @ lvgl/src/lv_misc/lv_txt.c:647:17
	cmp	r0, #224
	bne	.LBB3_14
	b	.LBB3_9
.LBB3_9:
.Ltmp56:
	.loc	2 648 33 is_stmt 1              @ lvgl/src/lv_misc/lv_txt.c:648:33
	ldr	r0, [sp, #12]
	.loc	2 648 38 is_stmt 0              @ lvgl/src/lv_misc/lv_txt.c:648:38
	ldr	r1, [sp, #8]
	.loc	2 648 37                        @ lvgl/src/lv_misc/lv_txt.c:648:37
	ldr	r1, [r1]
	.loc	2 648 33                        @ lvgl/src/lv_misc/lv_txt.c:648:33
	ldrb	r0, [r0, r1]
	.loc	2 648 41                        @ lvgl/src/lv_misc/lv_txt.c:648:41
	and	r0, r0, #15
	.loc	2 648 49                        @ lvgl/src/lv_misc/lv_txt.c:648:49
	lsls	r0, r0, #12
	.loc	2 648 20                        @ lvgl/src/lv_misc/lv_txt.c:648:20
	str	r0, [sp, #4]
	.loc	2 649 15 is_stmt 1              @ lvgl/src/lv_misc/lv_txt.c:649:15
	ldr	r1, [sp, #8]
	.loc	2 649 17 is_stmt 0              @ lvgl/src/lv_misc/lv_txt.c:649:17
	ldr	r0, [r1]
	adds	r0, #1
	str	r0, [r1]
.Ltmp57:
	.loc	2 651 17 is_stmt 1              @ lvgl/src/lv_misc/lv_txt.c:651:17
	ldr	r0, [sp, #12]
	.loc	2 651 22 is_stmt 0              @ lvgl/src/lv_misc/lv_txt.c:651:22
	ldr	r1, [sp, #8]
	.loc	2 651 21                        @ lvgl/src/lv_misc/lv_txt.c:651:21
	ldr	r1, [r1]
	.loc	2 651 17                        @ lvgl/src/lv_misc/lv_txt.c:651:17
	ldrb	r0, [r0, r1]
	.loc	2 651 25                        @ lvgl/src/lv_misc/lv_txt.c:651:25
	and	r0, r0, #192
.Ltmp58:
	.loc	2 651 16                        @ lvgl/src/lv_misc/lv_txt.c:651:16
	cmp	r0, #128
	beq	.LBB3_11
	b	.LBB3_10
.LBB3_10:
	.loc	2 0 16                          @ lvgl/src/lv_misc/lv_txt.c:0:16
	movs	r0, #0
.Ltmp59:
	.loc	2 651 42                        @ lvgl/src/lv_misc/lv_txt.c:651:42
	str	r0, [sp, #16]
	b	.LBB3_27
.Ltmp60:
.LBB3_11:
	.loc	2 652 34 is_stmt 1              @ lvgl/src/lv_misc/lv_txt.c:652:34
	ldr	r0, [sp, #12]
	.loc	2 652 39 is_stmt 0              @ lvgl/src/lv_misc/lv_txt.c:652:39
	ldr	r1, [sp, #8]
	.loc	2 652 38                        @ lvgl/src/lv_misc/lv_txt.c:652:38
	ldr	r1, [r1]
	.loc	2 652 34                        @ lvgl/src/lv_misc/lv_txt.c:652:34
	ldrb	r0, [r0, r1]
	.loc	2 652 42                        @ lvgl/src/lv_misc/lv_txt.c:652:42
	and	r1, r0, #63
	.loc	2 652 20                        @ lvgl/src/lv_misc/lv_txt.c:652:20
	ldr	r0, [sp, #4]
	add.w	r0, r0, r1, lsl #6
	str	r0, [sp, #4]
	.loc	2 653 15 is_stmt 1              @ lvgl/src/lv_misc/lv_txt.c:653:15
	ldr	r1, [sp, #8]
	.loc	2 653 17 is_stmt 0              @ lvgl/src/lv_misc/lv_txt.c:653:17
	ldr	r0, [r1]
	adds	r0, #1
	str	r0, [r1]
.Ltmp61:
	.loc	2 655 17 is_stmt 1              @ lvgl/src/lv_misc/lv_txt.c:655:17
	ldr	r0, [sp, #12]
	.loc	2 655 22 is_stmt 0              @ lvgl/src/lv_misc/lv_txt.c:655:22
	ldr	r1, [sp, #8]
	.loc	2 655 21                        @ lvgl/src/lv_misc/lv_txt.c:655:21
	ldr	r1, [r1]
	.loc	2 655 17                        @ lvgl/src/lv_misc/lv_txt.c:655:17
	ldrb	r0, [r0, r1]
	.loc	2 655 25                        @ lvgl/src/lv_misc/lv_txt.c:655:25
	and	r0, r0, #192
.Ltmp62:
	.loc	2 655 16                        @ lvgl/src/lv_misc/lv_txt.c:655:16
	cmp	r0, #128
	beq	.LBB3_13
	b	.LBB3_12
.LBB3_12:
	.loc	2 0 16                          @ lvgl/src/lv_misc/lv_txt.c:0:16
	movs	r0, #0
.Ltmp63:
	.loc	2 655 42                        @ lvgl/src/lv_misc/lv_txt.c:655:42
	str	r0, [sp, #16]
	b	.LBB3_27
.Ltmp64:
.LBB3_13:
	.loc	2 656 24 is_stmt 1              @ lvgl/src/lv_misc/lv_txt.c:656:24
	ldr	r0, [sp, #12]
	.loc	2 656 29 is_stmt 0              @ lvgl/src/lv_misc/lv_txt.c:656:29
	ldr	r1, [sp, #8]
	.loc	2 656 28                        @ lvgl/src/lv_misc/lv_txt.c:656:28
	ldr	r1, [r1]
	.loc	2 656 24                        @ lvgl/src/lv_misc/lv_txt.c:656:24
	ldrb	r0, [r0, r1]
	.loc	2 656 32                        @ lvgl/src/lv_misc/lv_txt.c:656:32
	and	r1, r0, #63
	.loc	2 656 20                        @ lvgl/src/lv_misc/lv_txt.c:656:20
	ldr	r0, [sp, #4]
	add	r0, r1
	str	r0, [sp, #4]
	.loc	2 657 15 is_stmt 1              @ lvgl/src/lv_misc/lv_txt.c:657:15
	ldr	r1, [sp, #8]
	.loc	2 657 17 is_stmt 0              @ lvgl/src/lv_misc/lv_txt.c:657:17
	ldr	r0, [r1]
	adds	r0, #1
	str	r0, [r1]
	.loc	2 658 9 is_stmt 1               @ lvgl/src/lv_misc/lv_txt.c:658:9
	b	.LBB3_24
.Ltmp65:
.LBB3_14:
	.loc	2 660 18                        @ lvgl/src/lv_misc/lv_txt.c:660:18
	ldr	r0, [sp, #12]
	.loc	2 660 23 is_stmt 0              @ lvgl/src/lv_misc/lv_txt.c:660:23
	ldr	r1, [sp, #8]
	.loc	2 660 22                        @ lvgl/src/lv_misc/lv_txt.c:660:22
	ldr	r1, [r1]
	.loc	2 660 18                        @ lvgl/src/lv_misc/lv_txt.c:660:18
	ldrb	r0, [r0, r1]
	.loc	2 660 26                        @ lvgl/src/lv_misc/lv_txt.c:660:26
	and	r0, r0, #248
.Ltmp66:
	.loc	2 660 17                        @ lvgl/src/lv_misc/lv_txt.c:660:17
	cmp	r0, #240
	bne	.LBB3_22
	b	.LBB3_15
.LBB3_15:
.Ltmp67:
	.loc	2 661 33 is_stmt 1              @ lvgl/src/lv_misc/lv_txt.c:661:33
	ldr	r0, [sp, #12]
	.loc	2 661 38 is_stmt 0              @ lvgl/src/lv_misc/lv_txt.c:661:38
	ldr	r1, [sp, #8]
	.loc	2 661 37                        @ lvgl/src/lv_misc/lv_txt.c:661:37
	ldr	r1, [r1]
	.loc	2 661 33                        @ lvgl/src/lv_misc/lv_txt.c:661:33
	ldrb	r0, [r0, r1]
	.loc	2 661 41                        @ lvgl/src/lv_misc/lv_txt.c:661:41
	and	r0, r0, #7
	.loc	2 661 49                        @ lvgl/src/lv_misc/lv_txt.c:661:49
	lsls	r0, r0, #18
	.loc	2 661 20                        @ lvgl/src/lv_misc/lv_txt.c:661:20
	str	r0, [sp, #4]
	.loc	2 662 15 is_stmt 1              @ lvgl/src/lv_misc/lv_txt.c:662:15
	ldr	r1, [sp, #8]
	.loc	2 662 17 is_stmt 0              @ lvgl/src/lv_misc/lv_txt.c:662:17
	ldr	r0, [r1]
	adds	r0, #1
	str	r0, [r1]
.Ltmp68:
	.loc	2 664 17 is_stmt 1              @ lvgl/src/lv_misc/lv_txt.c:664:17
	ldr	r0, [sp, #12]
	.loc	2 664 22 is_stmt 0              @ lvgl/src/lv_misc/lv_txt.c:664:22
	ldr	r1, [sp, #8]
	.loc	2 664 21                        @ lvgl/src/lv_misc/lv_txt.c:664:21
	ldr	r1, [r1]
	.loc	2 664 17                        @ lvgl/src/lv_misc/lv_txt.c:664:17
	ldrb	r0, [r0, r1]
	.loc	2 664 25                        @ lvgl/src/lv_misc/lv_txt.c:664:25
	and	r0, r0, #192
.Ltmp69:
	.loc	2 664 16                        @ lvgl/src/lv_misc/lv_txt.c:664:16
	cmp	r0, #128
	beq	.LBB3_17
	b	.LBB3_16
.LBB3_16:
	.loc	2 0 16                          @ lvgl/src/lv_misc/lv_txt.c:0:16
	movs	r0, #0
.Ltmp70:
	.loc	2 664 42                        @ lvgl/src/lv_misc/lv_txt.c:664:42
	str	r0, [sp, #16]
	b	.LBB3_27
.Ltmp71:
.LBB3_17:
	.loc	2 665 34 is_stmt 1              @ lvgl/src/lv_misc/lv_txt.c:665:34
	ldr	r0, [sp, #12]
	.loc	2 665 39 is_stmt 0              @ lvgl/src/lv_misc/lv_txt.c:665:39
	ldr	r1, [sp, #8]
	.loc	2 665 38                        @ lvgl/src/lv_misc/lv_txt.c:665:38
	ldr	r1, [r1]
	.loc	2 665 34                        @ lvgl/src/lv_misc/lv_txt.c:665:34
	ldrb	r0, [r0, r1]
	.loc	2 665 42                        @ lvgl/src/lv_misc/lv_txt.c:665:42
	and	r1, r0, #63
	.loc	2 665 20                        @ lvgl/src/lv_misc/lv_txt.c:665:20
	ldr	r0, [sp, #4]
	add.w	r0, r0, r1, lsl #12
	str	r0, [sp, #4]
	.loc	2 666 15 is_stmt 1              @ lvgl/src/lv_misc/lv_txt.c:666:15
	ldr	r1, [sp, #8]
	.loc	2 666 17 is_stmt 0              @ lvgl/src/lv_misc/lv_txt.c:666:17
	ldr	r0, [r1]
	adds	r0, #1
	str	r0, [r1]
.Ltmp72:
	.loc	2 668 17 is_stmt 1              @ lvgl/src/lv_misc/lv_txt.c:668:17
	ldr	r0, [sp, #12]
	.loc	2 668 22 is_stmt 0              @ lvgl/src/lv_misc/lv_txt.c:668:22
	ldr	r1, [sp, #8]
	.loc	2 668 21                        @ lvgl/src/lv_misc/lv_txt.c:668:21
	ldr	r1, [r1]
	.loc	2 668 17                        @ lvgl/src/lv_misc/lv_txt.c:668:17
	ldrb	r0, [r0, r1]
	.loc	2 668 25                        @ lvgl/src/lv_misc/lv_txt.c:668:25
	and	r0, r0, #192
.Ltmp73:
	.loc	2 668 16                        @ lvgl/src/lv_misc/lv_txt.c:668:16
	cmp	r0, #128
	beq	.LBB3_19
	b	.LBB3_18
.LBB3_18:
	.loc	2 0 16                          @ lvgl/src/lv_misc/lv_txt.c:0:16
	movs	r0, #0
.Ltmp74:
	.loc	2 668 42                        @ lvgl/src/lv_misc/lv_txt.c:668:42
	str	r0, [sp, #16]
	b	.LBB3_27
.Ltmp75:
.LBB3_19:
	.loc	2 669 34 is_stmt 1              @ lvgl/src/lv_misc/lv_txt.c:669:34
	ldr	r0, [sp, #12]
	.loc	2 669 39 is_stmt 0              @ lvgl/src/lv_misc/lv_txt.c:669:39
	ldr	r1, [sp, #8]
	.loc	2 669 38                        @ lvgl/src/lv_misc/lv_txt.c:669:38
	ldr	r1, [r1]
	.loc	2 669 34                        @ lvgl/src/lv_misc/lv_txt.c:669:34
	ldrb	r0, [r0, r1]
	.loc	2 669 42                        @ lvgl/src/lv_misc/lv_txt.c:669:42
	and	r1, r0, #63
	.loc	2 669 20                        @ lvgl/src/lv_misc/lv_txt.c:669:20
	ldr	r0, [sp, #4]
	add.w	r0, r0, r1, lsl #6
	str	r0, [sp, #4]
	.loc	2 670 15 is_stmt 1              @ lvgl/src/lv_misc/lv_txt.c:670:15
	ldr	r1, [sp, #8]
	.loc	2 670 17 is_stmt 0              @ lvgl/src/lv_misc/lv_txt.c:670:17
	ldr	r0, [r1]
	adds	r0, #1
	str	r0, [r1]
.Ltmp76:
	.loc	2 672 17 is_stmt 1              @ lvgl/src/lv_misc/lv_txt.c:672:17
	ldr	r0, [sp, #12]
	.loc	2 672 22 is_stmt 0              @ lvgl/src/lv_misc/lv_txt.c:672:22
	ldr	r1, [sp, #8]
	.loc	2 672 21                        @ lvgl/src/lv_misc/lv_txt.c:672:21
	ldr	r1, [r1]
	.loc	2 672 17                        @ lvgl/src/lv_misc/lv_txt.c:672:17
	ldrb	r0, [r0, r1]
	.loc	2 672 25                        @ lvgl/src/lv_misc/lv_txt.c:672:25
	and	r0, r0, #192
.Ltmp77:
	.loc	2 672 16                        @ lvgl/src/lv_misc/lv_txt.c:672:16
	cmp	r0, #128
	beq	.LBB3_21
	b	.LBB3_20
.LBB3_20:
	.loc	2 0 16                          @ lvgl/src/lv_misc/lv_txt.c:0:16
	movs	r0, #0
.Ltmp78:
	.loc	2 672 42                        @ lvgl/src/lv_misc/lv_txt.c:672:42
	str	r0, [sp, #16]
	b	.LBB3_27
.Ltmp79:
.LBB3_21:
	.loc	2 673 23 is_stmt 1              @ lvgl/src/lv_misc/lv_txt.c:673:23
	ldr	r0, [sp, #12]
	.loc	2 673 28 is_stmt 0              @ lvgl/src/lv_misc/lv_txt.c:673:28
	ldr	r1, [sp, #8]
	.loc	2 673 27                        @ lvgl/src/lv_misc/lv_txt.c:673:27
	ldr	r1, [r1]
	.loc	2 673 23                        @ lvgl/src/lv_misc/lv_txt.c:673:23
	ldrb	r0, [r0, r1]
	.loc	2 673 31                        @ lvgl/src/lv_misc/lv_txt.c:673:31
	and	r1, r0, #63
	.loc	2 673 20                        @ lvgl/src/lv_misc/lv_txt.c:673:20
	ldr	r0, [sp, #4]
	add	r0, r1
	str	r0, [sp, #4]
	.loc	2 674 15 is_stmt 1              @ lvgl/src/lv_misc/lv_txt.c:674:15
	ldr	r1, [sp, #8]
	.loc	2 674 17 is_stmt 0              @ lvgl/src/lv_misc/lv_txt.c:674:17
	ldr	r0, [r1]
	adds	r0, #1
	str	r0, [r1]
	.loc	2 675 9 is_stmt 1               @ lvgl/src/lv_misc/lv_txt.c:675:9
	b	.LBB3_23
.Ltmp80:
.LBB3_22:
	.loc	2 677 15                        @ lvgl/src/lv_misc/lv_txt.c:677:15
	ldr	r1, [sp, #8]
	.loc	2 677 17 is_stmt 0              @ lvgl/src/lv_misc/lv_txt.c:677:17
	ldr	r0, [r1]
	adds	r0, #1
	str	r0, [r1]
	b	.LBB3_23
.Ltmp81:
.LBB3_23:
	.loc	2 0 17                          @ lvgl/src/lv_misc/lv_txt.c:0:17
	b	.LBB3_24
.LBB3_24:
	b	.LBB3_25
.LBB3_25:
	b	.LBB3_26
.LBB3_26:
	.loc	2 680 12 is_stmt 1              @ lvgl/src/lv_misc/lv_txt.c:680:12
	ldr	r0, [sp, #4]
	.loc	2 680 5 is_stmt 0               @ lvgl/src/lv_misc/lv_txt.c:680:5
	str	r0, [sp, #16]
	b	.LBB3_27
.LBB3_27:
	.loc	2 681 1 is_stmt 1               @ lvgl/src/lv_misc/lv_txt.c:681:1
	ldr	r0, [sp, #16]
	add	sp, #20
	bx	lr
.Ltmp82:
.Lfunc_end3:
	.size	lv_txt_utf8_next, .Lfunc_end3-lv_txt_utf8_next
	.cfi_endproc
	.cantunwind
	.fnend
                                        @ -- End function
	.section	.text.lv_txt_utf8_prev,"ax",%progbits
	.p2align	3                               @ -- Begin function lv_txt_utf8_prev
	.type	lv_txt_utf8_prev,%function
	.code	16                              @ @lv_txt_utf8_prev
	.thumb_func
lv_txt_utf8_prev:
.Lfunc_begin4:
	.loc	2 691 0                         @ lvgl/src/lv_misc/lv_txt.c:691:0
	.fnstart
	.cfi_startproc
@ %bb.0:
	.save	{r7, lr}
	push	{r7, lr}
	.cfi_def_cfa_offset 8
	.cfi_offset lr, -4
	.cfi_offset r7, -8
	.pad	#24
	sub	sp, #24
	.cfi_def_cfa_offset 32
	str	r0, [sp, #16]
	str	r1, [sp, #12]
	movs	r0, #0
.Ltmp83:
	.loc	2 693 13 prologue_end           @ lvgl/src/lv_misc/lv_txt.c:693:13
	strb.w	r0, [sp, #10]
	.loc	2 696 7                         @ lvgl/src/lv_misc/lv_txt.c:696:7
	ldr	r1, [sp, #12]
	.loc	2 696 9 is_stmt 0               @ lvgl/src/lv_misc/lv_txt.c:696:9
	ldr	r0, [r1]
	subs	r0, #1
	str	r0, [r1]
	.loc	2 697 5 is_stmt 1               @ lvgl/src/lv_misc/lv_txt.c:697:5
	b	.LBB4_1
.LBB4_1:                                @ =>This Inner Loop Header: Depth=1
.Ltmp84:
	.loc	2 698 12                        @ lvgl/src/lv_misc/lv_txt.c:698:12
	ldrb.w	r0, [sp, #10]
.Ltmp85:
	.loc	2 698 12 is_stmt 0              @ lvgl/src/lv_misc/lv_txt.c:698:12
	cmp	r0, #4
	blt	.LBB4_3
	b	.LBB4_2
.LBB4_2:
	.loc	2 0 12                          @ lvgl/src/lv_misc/lv_txt.c:0:12
	movs	r0, #0
.Ltmp86:
	.loc	2 698 22                        @ lvgl/src/lv_misc/lv_txt.c:698:22
	str	r0, [sp, #20]
	b	.LBB4_11
.Ltmp87:
.LBB4_3:                                @   in Loop: Header=BB4_1 Depth=1
	.loc	2 700 18 is_stmt 1              @ lvgl/src/lv_misc/lv_txt.c:700:18
	movw	r0, :lower16:_lv_txt_encoded_size
	movt	r0, :upper16:_lv_txt_encoded_size
	ldr	r1, [r0]
	.loc	2 700 40 is_stmt 0              @ lvgl/src/lv_misc/lv_txt.c:700:40
	ldr	r0, [sp, #16]
	.loc	2 700 45                        @ lvgl/src/lv_misc/lv_txt.c:700:45
	ldr	r2, [sp, #12]
	.loc	2 700 44                        @ lvgl/src/lv_misc/lv_txt.c:700:44
	ldr	r2, [r2]
	.loc	2 700 40                        @ lvgl/src/lv_misc/lv_txt.c:700:40
	add	r0, r2
	.loc	2 700 18                        @ lvgl/src/lv_misc/lv_txt.c:700:18
	blx	r1
	.loc	2 700 16                        @ lvgl/src/lv_misc/lv_txt.c:700:16
	strb.w	r0, [sp, #11]
.Ltmp88:
	.loc	2 701 12 is_stmt 1              @ lvgl/src/lv_misc/lv_txt.c:701:12
	ldrb.w	r0, [sp, #11]
.Ltmp89:
	.loc	2 701 12 is_stmt 0              @ lvgl/src/lv_misc/lv_txt.c:701:12
	cbnz	r0, .LBB4_8
	b	.LBB4_4
.LBB4_4:                                @   in Loop: Header=BB4_1 Depth=1
.Ltmp90:
	.loc	2 702 17 is_stmt 1              @ lvgl/src/lv_misc/lv_txt.c:702:17
	ldr	r0, [sp, #12]
	.loc	2 702 16 is_stmt 0              @ lvgl/src/lv_misc/lv_txt.c:702:16
	ldr	r0, [r0]
.Ltmp91:
	.loc	2 702 16                        @ lvgl/src/lv_misc/lv_txt.c:702:16
	cbz	r0, .LBB4_6
	b	.LBB4_5
.LBB4_5:                                @   in Loop: Header=BB4_1 Depth=1
.Ltmp92:
	.loc	2 703 19 is_stmt 1              @ lvgl/src/lv_misc/lv_txt.c:703:19
	ldr	r1, [sp, #12]
	.loc	2 703 21 is_stmt 0              @ lvgl/src/lv_misc/lv_txt.c:703:21
	ldr	r0, [r1]
	subs	r0, #1
	str	r0, [r1]
	.loc	2 703 17                        @ lvgl/src/lv_misc/lv_txt.c:703:17
	b	.LBB4_7
.LBB4_6:
	.loc	2 0 17                          @ lvgl/src/lv_misc/lv_txt.c:0:17
	movs	r0, #0
	.loc	2 705 17 is_stmt 1              @ lvgl/src/lv_misc/lv_txt.c:705:17
	str	r0, [sp, #20]
	b	.LBB4_11
.Ltmp93:
.LBB4_7:                                @   in Loop: Header=BB4_1 Depth=1
	.loc	2 706 9                         @ lvgl/src/lv_misc/lv_txt.c:706:9
	b	.LBB4_8
.Ltmp94:
.LBB4_8:                                @   in Loop: Header=BB4_1 Depth=1
	.loc	2 707 12                        @ lvgl/src/lv_misc/lv_txt.c:707:12
	ldrb.w	r0, [sp, #10]
	adds	r0, #1
	strb.w	r0, [sp, #10]
	.loc	2 708 5                         @ lvgl/src/lv_misc/lv_txt.c:708:5
	b	.LBB4_9
.Ltmp95:
.LBB4_9:                                @   in Loop: Header=BB4_1 Depth=1
	.loc	2 708 13 is_stmt 0              @ lvgl/src/lv_misc/lv_txt.c:708:13
	ldrb.w	r0, [sp, #11]
.Ltmp96:
	.loc	2 708 5                         @ lvgl/src/lv_misc/lv_txt.c:708:5
	cmp	r0, #0
	beq	.LBB4_1
	b	.LBB4_10
.Ltmp97:
.LBB4_10:
	.loc	2 710 24 is_stmt 1              @ lvgl/src/lv_misc/lv_txt.c:710:24
	ldr	r0, [sp, #12]
	.loc	2 710 23 is_stmt 0              @ lvgl/src/lv_misc/lv_txt.c:710:23
	ldr	r0, [r0]
	.loc	2 710 14                        @ lvgl/src/lv_misc/lv_txt.c:710:14
	str	r0, [sp, #4]
	.loc	2 711 23 is_stmt 1              @ lvgl/src/lv_misc/lv_txt.c:711:23
	movw	r0, :lower16:_lv_txt_encoded_next
	movt	r0, :upper16:_lv_txt_encoded_next
	ldr	r2, [r0]
	.loc	2 711 44 is_stmt 0              @ lvgl/src/lv_misc/lv_txt.c:711:44
	ldr	r0, [sp, #16]
	add	r1, sp, #4
	.loc	2 711 23                        @ lvgl/src/lv_misc/lv_txt.c:711:23
	blx	r2
	.loc	2 711 14                        @ lvgl/src/lv_misc/lv_txt.c:711:14
	str	r0, [sp]
	.loc	2 713 12 is_stmt 1              @ lvgl/src/lv_misc/lv_txt.c:713:12
	ldr	r0, [sp]
	.loc	2 713 5 is_stmt 0               @ lvgl/src/lv_misc/lv_txt.c:713:5
	str	r0, [sp, #20]
	b	.LBB4_11
.LBB4_11:
	.loc	2 714 1 is_stmt 1               @ lvgl/src/lv_misc/lv_txt.c:714:1
	ldr	r0, [sp, #20]
	add	sp, #24
	pop	{r7, pc}
.Ltmp98:
.Lfunc_end4:
	.size	lv_txt_utf8_prev, .Lfunc_end4-lv_txt_utf8_prev
	.cfi_endproc
	.cantunwind
	.fnend
                                        @ -- End function
	.section	.text.lv_txt_utf8_get_byte_id,"ax",%progbits
	.p2align	3                               @ -- Begin function lv_txt_utf8_get_byte_id
	.type	lv_txt_utf8_get_byte_id,%function
	.code	16                              @ @lv_txt_utf8_get_byte_id
	.thumb_func
lv_txt_utf8_get_byte_id:
.Lfunc_begin5:
	.loc	2 724 0                         @ lvgl/src/lv_misc/lv_txt.c:724:0
	.fnstart
	.cfi_startproc
@ %bb.0:
	.save	{r7, lr}
	push	{r7, lr}
	.cfi_def_cfa_offset 8
	.cfi_offset lr, -4
	.cfi_offset r7, -8
	.pad	#24
	sub	sp, #24
	.cfi_def_cfa_offset 32
	str	r0, [sp, #20]
	str	r1, [sp, #16]
	movs	r0, #0
.Ltmp99:
	.loc	2 726 14 prologue_end           @ lvgl/src/lv_misc/lv_txt.c:726:14
	str	r0, [sp, #8]
.Ltmp100:
	.loc	2 727 11                        @ lvgl/src/lv_misc/lv_txt.c:727:11
	str	r0, [sp, #12]
	.loc	2 727 9 is_stmt 0               @ lvgl/src/lv_misc/lv_txt.c:727:9
	b	.LBB5_1
.LBB5_1:                                @ =>This Inner Loop Header: Depth=1
.Ltmp101:
	.loc	2 727 16                        @ lvgl/src/lv_misc/lv_txt.c:727:16
	ldr	r0, [sp, #12]
	.loc	2 727 20                        @ lvgl/src/lv_misc/lv_txt.c:727:20
	ldr	r1, [sp, #16]
.Ltmp102:
	.loc	2 727 5                         @ lvgl/src/lv_misc/lv_txt.c:727:5
	cmp	r0, r1
	bhs	.LBB5_7
	b	.LBB5_2
.LBB5_2:                                @   in Loop: Header=BB5_1 Depth=1
.Ltmp103:
	.loc	2 728 26 is_stmt 1              @ lvgl/src/lv_misc/lv_txt.c:728:26
	movw	r0, :lower16:_lv_txt_encoded_size
	movt	r0, :upper16:_lv_txt_encoded_size
	ldr	r1, [r0]
	.loc	2 728 48 is_stmt 0              @ lvgl/src/lv_misc/lv_txt.c:728:48
	ldr	r0, [sp, #20]
	.loc	2 728 52                        @ lvgl/src/lv_misc/lv_txt.c:728:52
	ldr	r2, [sp, #8]
	.loc	2 728 48                        @ lvgl/src/lv_misc/lv_txt.c:728:48
	add	r0, r2
	.loc	2 728 26                        @ lvgl/src/lv_misc/lv_txt.c:728:26
	blx	r1
	.loc	2 728 17                        @ lvgl/src/lv_misc/lv_txt.c:728:17
	strb.w	r0, [sp, #7]
	.loc	2 729 21 is_stmt 1              @ lvgl/src/lv_misc/lv_txt.c:729:21
	ldrb.w	r0, [sp, #7]
	cmp	r0, #1
	blt	.LBB5_4
	b	.LBB5_3
.LBB5_3:                                @   in Loop: Header=BB5_1 Depth=1
	.loc	2 729 34 is_stmt 0              @ lvgl/src/lv_misc/lv_txt.c:729:34
	ldrb.w	r0, [sp, #7]
	.loc	2 729 21                        @ lvgl/src/lv_misc/lv_txt.c:729:21
	str	r0, [sp]                        @ 4-byte Spill
	b	.LBB5_5
.LBB5_4:                                @   in Loop: Header=BB5_1 Depth=1
	.loc	2 0 21                          @ lvgl/src/lv_misc/lv_txt.c:0:21
	movs	r0, #1
	.loc	2 729 21                        @ lvgl/src/lv_misc/lv_txt.c:729:21
	str	r0, [sp]                        @ 4-byte Spill
	b	.LBB5_5
.LBB5_5:                                @   in Loop: Header=BB5_1 Depth=1
	ldr	r1, [sp]                        @ 4-byte Reload
	.loc	2 729 18                        @ lvgl/src/lv_misc/lv_txt.c:729:18
	ldr	r0, [sp, #8]
	add	r0, r1
	str	r0, [sp, #8]
	.loc	2 730 5 is_stmt 1               @ lvgl/src/lv_misc/lv_txt.c:730:5
	b	.LBB5_6
.Ltmp104:
.LBB5_6:                                @   in Loop: Header=BB5_1 Depth=1
	.loc	2 727 30                        @ lvgl/src/lv_misc/lv_txt.c:727:30
	ldr	r0, [sp, #12]
	adds	r0, #1
	str	r0, [sp, #12]
	.loc	2 727 5 is_stmt 0               @ lvgl/src/lv_misc/lv_txt.c:727:5
	b	.LBB5_1
.Ltmp105:
.LBB5_7:
	.loc	2 732 12 is_stmt 1              @ lvgl/src/lv_misc/lv_txt.c:732:12
	ldr	r0, [sp, #8]
	.loc	2 732 5 is_stmt 0               @ lvgl/src/lv_misc/lv_txt.c:732:5
	add	sp, #24
	pop	{r7, pc}
.Ltmp106:
.Lfunc_end5:
	.size	lv_txt_utf8_get_byte_id, .Lfunc_end5-lv_txt_utf8_get_byte_id
	.cfi_endproc
	.cantunwind
	.fnend
                                        @ -- End function
	.section	.text.lv_txt_utf8_get_char_id,"ax",%progbits
	.p2align	3                               @ -- Begin function lv_txt_utf8_get_char_id
	.type	lv_txt_utf8_get_char_id,%function
	.code	16                              @ @lv_txt_utf8_get_char_id
	.thumb_func
lv_txt_utf8_get_char_id:
.Lfunc_begin6:
	.loc	2 743 0 is_stmt 1               @ lvgl/src/lv_misc/lv_txt.c:743:0
	.fnstart
	.cfi_startproc
@ %bb.0:
	.save	{r7, lr}
	push	{r7, lr}
	.cfi_def_cfa_offset 8
	.cfi_offset lr, -4
	.cfi_offset r7, -8
	.pad	#16
	sub	sp, #16
	.cfi_def_cfa_offset 24
	str	r0, [sp, #12]
	str	r1, [sp, #8]
	movs	r0, #0
.Ltmp107:
	.loc	2 744 14 prologue_end           @ lvgl/src/lv_misc/lv_txt.c:744:14
	str	r0, [sp, #4]
	.loc	2 745 14                        @ lvgl/src/lv_misc/lv_txt.c:745:14
	str	r0, [sp]
	.loc	2 747 5                         @ lvgl/src/lv_misc/lv_txt.c:747:5
	b	.LBB6_1
.LBB6_1:                                @ =>This Inner Loop Header: Depth=1
	.loc	2 747 11 is_stmt 0              @ lvgl/src/lv_misc/lv_txt.c:747:11
	ldr	r0, [sp, #4]
	.loc	2 747 15                        @ lvgl/src/lv_misc/lv_txt.c:747:15
	ldr	r1, [sp, #8]
	.loc	2 747 5                         @ lvgl/src/lv_misc/lv_txt.c:747:5
	cmp	r0, r1
	bhs	.LBB6_3
	b	.LBB6_2
.LBB6_2:                                @   in Loop: Header=BB6_1 Depth=1
.Ltmp108:
	.loc	2 748 9 is_stmt 1               @ lvgl/src/lv_misc/lv_txt.c:748:9
	movw	r0, :lower16:_lv_txt_encoded_next
	movt	r0, :upper16:_lv_txt_encoded_next
	ldr	r2, [r0]
	.loc	2 748 30 is_stmt 0              @ lvgl/src/lv_misc/lv_txt.c:748:30
	ldr	r0, [sp, #12]
	add	r1, sp, #4
	.loc	2 748 9                         @ lvgl/src/lv_misc/lv_txt.c:748:9
	blx	r2
	.loc	2 749 17 is_stmt 1              @ lvgl/src/lv_misc/lv_txt.c:749:17
	ldr	r0, [sp]
	adds	r0, #1
	str	r0, [sp]
.Ltmp109:
	.loc	2 747 5                         @ lvgl/src/lv_misc/lv_txt.c:747:5
	b	.LBB6_1
.LBB6_3:
	.loc	2 752 12                        @ lvgl/src/lv_misc/lv_txt.c:752:12
	ldr	r0, [sp]
	.loc	2 752 5 is_stmt 0               @ lvgl/src/lv_misc/lv_txt.c:752:5
	add	sp, #16
	pop	{r7, pc}
.Ltmp110:
.Lfunc_end6:
	.size	lv_txt_utf8_get_char_id, .Lfunc_end6-lv_txt_utf8_get_char_id
	.cfi_endproc
	.cantunwind
	.fnend
                                        @ -- End function
	.section	.text.lv_txt_utf8_get_length,"ax",%progbits
	.p2align	3                               @ -- Begin function lv_txt_utf8_get_length
	.type	lv_txt_utf8_get_length,%function
	.code	16                              @ @lv_txt_utf8_get_length
	.thumb_func
lv_txt_utf8_get_length:
.Lfunc_begin7:
	.loc	2 762 0 is_stmt 1               @ lvgl/src/lv_misc/lv_txt.c:762:0
	.fnstart
	.cfi_startproc
@ %bb.0:
	.save	{r7, lr}
	push	{r7, lr}
	.cfi_def_cfa_offset 8
	.cfi_offset lr, -4
	.cfi_offset r7, -8
	.pad	#16
	sub	sp, #16
	.cfi_def_cfa_offset 24
	str	r0, [sp, #12]
	movs	r0, #0
.Ltmp111:
	.loc	2 763 14 prologue_end           @ lvgl/src/lv_misc/lv_txt.c:763:14
	str	r0, [sp, #8]
	.loc	2 764 14                        @ lvgl/src/lv_misc/lv_txt.c:764:14
	str	r0, [sp, #4]
	.loc	2 766 5                         @ lvgl/src/lv_misc/lv_txt.c:766:5
	b	.LBB7_1
.LBB7_1:                                @ =>This Inner Loop Header: Depth=1
	.loc	2 766 11 is_stmt 0              @ lvgl/src/lv_misc/lv_txt.c:766:11
	ldr	r0, [sp, #12]
	.loc	2 766 15                        @ lvgl/src/lv_misc/lv_txt.c:766:15
	ldr	r1, [sp, #4]
	.loc	2 766 11                        @ lvgl/src/lv_misc/lv_txt.c:766:11
	ldrsb	r0, [r0, r1]
	.loc	2 766 5                         @ lvgl/src/lv_misc/lv_txt.c:766:5
	cbz	r0, .LBB7_3
	b	.LBB7_2
.LBB7_2:                                @   in Loop: Header=BB7_1 Depth=1
.Ltmp112:
	.loc	2 767 9 is_stmt 1               @ lvgl/src/lv_misc/lv_txt.c:767:9
	movw	r0, :lower16:_lv_txt_encoded_next
	movt	r0, :upper16:_lv_txt_encoded_next
	ldr	r2, [r0]
	.loc	2 767 30 is_stmt 0              @ lvgl/src/lv_misc/lv_txt.c:767:30
	ldr	r0, [sp, #12]
	add	r1, sp, #4
	.loc	2 767 9                         @ lvgl/src/lv_misc/lv_txt.c:767:9
	blx	r2
	.loc	2 768 12 is_stmt 1              @ lvgl/src/lv_misc/lv_txt.c:768:12
	ldr	r0, [sp, #8]
	adds	r0, #1
	str	r0, [sp, #8]
.Ltmp113:
	.loc	2 766 5                         @ lvgl/src/lv_misc/lv_txt.c:766:5
	b	.LBB7_1
.LBB7_3:
	.loc	2 771 12                        @ lvgl/src/lv_misc/lv_txt.c:771:12
	ldr	r0, [sp, #8]
	.loc	2 771 5 is_stmt 0               @ lvgl/src/lv_misc/lv_txt.c:771:5
	add	sp, #16
	pop	{r7, pc}
.Ltmp114:
.Lfunc_end7:
	.size	lv_txt_utf8_get_length, .Lfunc_end7-lv_txt_utf8_get_length
	.cfi_endproc
	.cantunwind
	.fnend
                                        @ -- End function
	.section	.text._lv_txt_get_size,"ax",%progbits
	.hidden	_lv_txt_get_size                @ -- Begin function _lv_txt_get_size
	.globl	_lv_txt_get_size
	.p2align	3
	.type	_lv_txt_get_size,%function
	.code	16                              @ @_lv_txt_get_size
	.thumb_func
_lv_txt_get_size:
.Lfunc_begin8:
	.loc	2 98 0 is_stmt 1                @ lvgl/src/lv_misc/lv_txt.c:98:0
	.fnstart
	.cfi_startproc
@ %bb.0:
	.save	{r4, r5, r7, lr}
	push	{r4, r5, r7, lr}
	.cfi_def_cfa_offset 16
	.cfi_offset lr, -4
	.cfi_offset r7, -8
	.cfi_offset r5, -12
	.cfi_offset r4, -16
	.pad	#40
	sub	sp, #40
	.cfi_def_cfa_offset 56
	mov	r12, r2
	mov	lr, r1
	mov	r4, r0
	ldr	r0, [sp, #64]
	ldr	r1, [sp, #60]
	ldr	r2, [sp, #56]
                                        @ kill: def $r5 killed $r3
	str	r4, [sp, #36]
	str.w	lr, [sp, #32]
	str.w	r12, [sp, #28]
	strh.w	r3, [sp, #26]
	strh.w	r2, [sp, #24]
	strh.w	r1, [sp, #22]
	strb.w	r0, [sp, #21]
.Ltmp115:
	.loc	2 99 5 prologue_end             @ lvgl/src/lv_misc/lv_txt.c:99:5
	ldr	r1, [sp, #36]
	movs	r0, #0
	.loc	2 99 17 is_stmt 0               @ lvgl/src/lv_misc/lv_txt.c:99:17
	strh	r0, [r1]
	.loc	2 100 5 is_stmt 1               @ lvgl/src/lv_misc/lv_txt.c:100:5
	ldr	r1, [sp, #36]
	.loc	2 100 17 is_stmt 0              @ lvgl/src/lv_misc/lv_txt.c:100:17
	strh	r0, [r1, #2]
.Ltmp116:
	.loc	2 102 8 is_stmt 1               @ lvgl/src/lv_misc/lv_txt.c:102:8
	ldr	r0, [sp, #32]
.Ltmp117:
	.loc	2 102 8 is_stmt 0               @ lvgl/src/lv_misc/lv_txt.c:102:8
	cbnz	r0, .LBB8_2
	b	.LBB8_1
.LBB8_1:
.Ltmp118:
	.loc	2 102 22                        @ lvgl/src/lv_misc/lv_txt.c:102:22
	b	.LBB8_22
.Ltmp119:
.LBB8_2:
	.loc	2 103 8 is_stmt 1               @ lvgl/src/lv_misc/lv_txt.c:103:8
	ldr	r0, [sp, #28]
.Ltmp120:
	.loc	2 103 8 is_stmt 0               @ lvgl/src/lv_misc/lv_txt.c:103:8
	cbnz	r0, .LBB8_4
	b	.LBB8_3
.LBB8_3:
.Ltmp121:
	.loc	2 103 22                        @ lvgl/src/lv_misc/lv_txt.c:103:22
	b	.LBB8_22
.Ltmp122:
.LBB8_4:
	.loc	2 105 8 is_stmt 1               @ lvgl/src/lv_misc/lv_txt.c:105:8
	ldrb.w	r0, [sp, #21]
.Ltmp123:
	.loc	2 105 8 is_stmt 0               @ lvgl/src/lv_misc/lv_txt.c:105:8
	lsls	r0, r0, #30
	cmp	r0, #0
	bpl	.LBB8_6
	b	.LBB8_5
.LBB8_5:
	.loc	2 0 8                           @ lvgl/src/lv_misc/lv_txt.c:0:8
	movw	r0, #31768
.Ltmp124:
	.loc	2 105 45                        @ lvgl/src/lv_misc/lv_txt.c:105:45
	strh.w	r0, [sp, #22]
	.loc	2 105 35                        @ lvgl/src/lv_misc/lv_txt.c:105:35
	b	.LBB8_6
.Ltmp125:
.LBB8_6:
	.loc	2 0 35                          @ lvgl/src/lv_misc/lv_txt.c:0:35
	movs	r0, #0
	.loc	2 107 14 is_stmt 1              @ lvgl/src/lv_misc/lv_txt.c:107:14
	str	r0, [sp, #16]
	.loc	2 108 14                        @ lvgl/src/lv_misc/lv_txt.c:108:14
	str	r0, [sp, #12]
	.loc	2 109 54                        @ lvgl/src/lv_misc/lv_txt.c:109:54
	ldr	r0, [sp, #28]
	.loc	2 109 30 is_stmt 0              @ lvgl/src/lv_misc/lv_txt.c:109:30
	bl	lv_font_get_line_height
	.loc	2 109 14                        @ lvgl/src/lv_misc/lv_txt.c:109:14
	strh.w	r0, [sp, #10]
	.loc	2 112 5 is_stmt 1               @ lvgl/src/lv_misc/lv_txt.c:112:5
	b	.LBB8_7
.LBB8_7:                                @ =>This Inner Loop Header: Depth=1
	.loc	2 112 11 is_stmt 0              @ lvgl/src/lv_misc/lv_txt.c:112:11
	ldr	r0, [sp, #32]
	.loc	2 112 16                        @ lvgl/src/lv_misc/lv_txt.c:112:16
	ldr	r1, [sp, #16]
	.loc	2 112 11                        @ lvgl/src/lv_misc/lv_txt.c:112:11
	ldrsb	r0, [r0, r1]
	.loc	2 112 5                         @ lvgl/src/lv_misc/lv_txt.c:112:5
	cmp	r0, #0
	beq	.LBB8_15
	b	.LBB8_8
.LBB8_8:                                @   in Loop: Header=BB8_7 Depth=1
.Ltmp126:
	.loc	2 113 50 is_stmt 1              @ lvgl/src/lv_misc/lv_txt.c:113:50
	ldr	r0, [sp, #32]
	.loc	2 113 55 is_stmt 0              @ lvgl/src/lv_misc/lv_txt.c:113:55
	ldr	r1, [sp, #16]
	.loc	2 113 50                        @ lvgl/src/lv_misc/lv_txt.c:113:50
	add	r0, r1
	.loc	2 113 68                        @ lvgl/src/lv_misc/lv_txt.c:113:68
	ldr	r1, [sp, #28]
	.loc	2 113 74                        @ lvgl/src/lv_misc/lv_txt.c:113:74
	ldrsh.w	r2, [sp, #26]
	.loc	2 113 88                        @ lvgl/src/lv_misc/lv_txt.c:113:88
	ldrsh.w	r3, [sp, #22]
	.loc	2 113 99                        @ lvgl/src/lv_misc/lv_txt.c:113:99
	ldrb.w	r12, [sp, #21]
	.loc	2 113 27                        @ lvgl/src/lv_misc/lv_txt.c:113:27
	mov	lr, sp
	str.w	r12, [lr]
	bl	_lv_txt_get_next_line
	mov	r1, r0
	.loc	2 113 24                        @ lvgl/src/lv_misc/lv_txt.c:113:24
	ldr	r0, [sp, #12]
	add	r0, r1
	str	r0, [sp, #12]
.Ltmp127:
	.loc	2 115 27 is_stmt 1              @ lvgl/src/lv_misc/lv_txt.c:115:27
	ldr	r0, [sp, #36]
	.loc	2 115 37 is_stmt 0              @ lvgl/src/lv_misc/lv_txt.c:115:37
	ldrsh.w	r0, [r0, #2]
	.loc	2 115 56                        @ lvgl/src/lv_misc/lv_txt.c:115:56
	ldrh.w	r1, [sp, #10]
	.loc	2 115 39                        @ lvgl/src/lv_misc/lv_txt.c:115:39
	add	r0, r1
	.loc	2 115 87                        @ lvgl/src/lv_misc/lv_txt.c:115:87
	ldrsh.w	r1, [sp, #24]
	.loc	2 115 70                        @ lvgl/src/lv_misc/lv_txt.c:115:70
	add	r0, r1
.Ltmp128:
	.loc	2 115 12                        @ lvgl/src/lv_misc/lv_txt.c:115:12
	cmp.w	r0, #32768
	blo	.LBB8_10
	b	.LBB8_9
.LBB8_9:
.Ltmp129:
	.loc	2 117 13 is_stmt 1              @ lvgl/src/lv_misc/lv_txt.c:117:13
	b	.LBB8_22
.Ltmp130:
.LBB8_10:                               @   in Loop: Header=BB8_7 Depth=1
	.loc	2 120 28                        @ lvgl/src/lv_misc/lv_txt.c:120:28
	ldrh.w	r2, [sp, #10]
	.loc	2 120 13 is_stmt 0              @ lvgl/src/lv_misc/lv_txt.c:120:13
	ldr	r1, [sp, #36]
	.loc	2 120 25                        @ lvgl/src/lv_misc/lv_txt.c:120:25
	ldrh	r0, [r1, #2]
	add	r0, r2
	strh	r0, [r1, #2]
	.loc	2 121 28 is_stmt 1              @ lvgl/src/lv_misc/lv_txt.c:121:28
	ldrh.w	r2, [sp, #24]
	.loc	2 121 13 is_stmt 0              @ lvgl/src/lv_misc/lv_txt.c:121:13
	ldr	r1, [sp, #36]
	.loc	2 121 25                        @ lvgl/src/lv_misc/lv_txt.c:121:25
	ldrh	r0, [r1, #2]
	add	r0, r2
	strh	r0, [r1, #2]
	b	.LBB8_11
.Ltmp131:
.LBB8_11:                               @   in Loop: Header=BB8_7 Depth=1
	.loc	2 125 57 is_stmt 1              @ lvgl/src/lv_misc/lv_txt.c:125:57
	ldr	r0, [sp, #32]
	.loc	2 125 62 is_stmt 0              @ lvgl/src/lv_misc/lv_txt.c:125:62
	ldr	r2, [sp, #16]
	.loc	2 125 57                        @ lvgl/src/lv_misc/lv_txt.c:125:57
	add	r0, r2
	.loc	2 125 75                        @ lvgl/src/lv_misc/lv_txt.c:125:75
	ldr	r1, [sp, #12]
	.loc	2 125 90                        @ lvgl/src/lv_misc/lv_txt.c:125:90
	subs	r1, r1, r2
	.loc	2 125 104                       @ lvgl/src/lv_misc/lv_txt.c:125:104
	ldr	r2, [sp, #28]
	.loc	2 125 110                       @ lvgl/src/lv_misc/lv_txt.c:125:110
	ldrsh.w	r3, [sp, #26]
	.loc	2 126 56 is_stmt 1              @ lvgl/src/lv_misc/lv_txt.c:126:56
	ldrb.w	r12, [sp, #21]
	.loc	2 125 38                        @ lvgl/src/lv_misc/lv_txt.c:125:38
	mov	lr, sp
	str.w	r12, [lr]
	bl	_lv_txt_get_width
	.loc	2 125 20 is_stmt 0              @ lvgl/src/lv_misc/lv_txt.c:125:20
	strh.w	r0, [sp, #8]
	.loc	2 128 23 is_stmt 1              @ lvgl/src/lv_misc/lv_txt.c:128:23
	ldrsh.w	r0, [sp, #8]
	ldr	r1, [sp, #36]
	ldrsh.w	r1, [r1]
	cmp	r0, r1
	ble	.LBB8_13
	b	.LBB8_12
.LBB8_12:                               @   in Loop: Header=BB8_7 Depth=1
	ldrsh.w	r0, [sp, #8]
	str	r0, [sp, #4]                    @ 4-byte Spill
	b	.LBB8_14
.LBB8_13:                               @   in Loop: Header=BB8_7 Depth=1
	ldr	r0, [sp, #36]
	ldrsh.w	r0, [r0]
	str	r0, [sp, #4]                    @ 4-byte Spill
	b	.LBB8_14
.LBB8_14:                               @   in Loop: Header=BB8_7 Depth=1
	ldr	r0, [sp, #4]                    @ 4-byte Reload
	.loc	2 128 9 is_stmt 0               @ lvgl/src/lv_misc/lv_txt.c:128:9
	ldr	r1, [sp, #36]
	.loc	2 128 21                        @ lvgl/src/lv_misc/lv_txt.c:128:21
	strh	r0, [r1]
	.loc	2 129 23 is_stmt 1              @ lvgl/src/lv_misc/lv_txt.c:129:23
	ldr	r0, [sp, #12]
	.loc	2 129 21 is_stmt 0              @ lvgl/src/lv_misc/lv_txt.c:129:21
	str	r0, [sp, #16]
.Ltmp132:
	.loc	2 112 5 is_stmt 1               @ lvgl/src/lv_misc/lv_txt.c:112:5
	b	.LBB8_7
.LBB8_15:
.Ltmp133:
	.loc	2 133 9                         @ lvgl/src/lv_misc/lv_txt.c:133:9
	ldr	r0, [sp, #16]
	.loc	2 133 26 is_stmt 0              @ lvgl/src/lv_misc/lv_txt.c:133:26
	cbz	r0, .LBB8_19
	b	.LBB8_16
.LBB8_16:
	.loc	2 133 30                        @ lvgl/src/lv_misc/lv_txt.c:133:30
	ldr	r1, [sp, #32]
	.loc	2 133 35                        @ lvgl/src/lv_misc/lv_txt.c:133:35
	ldr	r0, [sp, #16]
	.loc	2 133 30                        @ lvgl/src/lv_misc/lv_txt.c:133:30
	add	r0, r1
	ldrsb	r0, [r0, #-1]
	.loc	2 133 59                        @ lvgl/src/lv_misc/lv_txt.c:133:59
	cmp	r0, #10
	beq	.LBB8_18
	b	.LBB8_17
.LBB8_17:
	.loc	2 133 62                        @ lvgl/src/lv_misc/lv_txt.c:133:62
	ldr	r1, [sp, #32]
	.loc	2 133 67                        @ lvgl/src/lv_misc/lv_txt.c:133:67
	ldr	r0, [sp, #16]
	.loc	2 133 62                        @ lvgl/src/lv_misc/lv_txt.c:133:62
	add	r0, r1
	ldrsb	r0, [r0, #-1]
.Ltmp134:
	.loc	2 133 8                         @ lvgl/src/lv_misc/lv_txt.c:133:8
	cmp	r0, #13
	bne	.LBB8_19
	b	.LBB8_18
.LBB8_18:
.Ltmp135:
	.loc	2 134 24 is_stmt 1              @ lvgl/src/lv_misc/lv_txt.c:134:24
	ldrh.w	r0, [sp, #10]
	.loc	2 134 40 is_stmt 0              @ lvgl/src/lv_misc/lv_txt.c:134:40
	ldrh.w	r1, [sp, #24]
	.loc	2 134 38                        @ lvgl/src/lv_misc/lv_txt.c:134:38
	adds	r2, r0, r1
	.loc	2 134 9                         @ lvgl/src/lv_misc/lv_txt.c:134:9
	ldr	r1, [sp, #36]
	.loc	2 134 21                        @ lvgl/src/lv_misc/lv_txt.c:134:21
	ldrh	r0, [r1, #2]
	add	r0, r2
	strh	r0, [r1, #2]
	.loc	2 135 5 is_stmt 1               @ lvgl/src/lv_misc/lv_txt.c:135:5
	b	.LBB8_19
.Ltmp136:
.LBB8_19:
	.loc	2 138 8                         @ lvgl/src/lv_misc/lv_txt.c:138:8
	ldr	r0, [sp, #36]
	.loc	2 138 18 is_stmt 0              @ lvgl/src/lv_misc/lv_txt.c:138:18
	ldrsh.w	r0, [r0, #2]
.Ltmp137:
	.loc	2 138 8                         @ lvgl/src/lv_misc/lv_txt.c:138:8
	cbnz	r0, .LBB8_21
	b	.LBB8_20
.LBB8_20:
.Ltmp138:
	.loc	2 139 23 is_stmt 1              @ lvgl/src/lv_misc/lv_txt.c:139:23
	ldrh.w	r0, [sp, #10]
	.loc	2 139 9 is_stmt 0               @ lvgl/src/lv_misc/lv_txt.c:139:9
	ldr	r1, [sp, #36]
	.loc	2 139 21                        @ lvgl/src/lv_misc/lv_txt.c:139:21
	strh	r0, [r1, #2]
	.loc	2 139 9                         @ lvgl/src/lv_misc/lv_txt.c:139:9
	b	.LBB8_22
.LBB8_21:
	.loc	2 141 24 is_stmt 1              @ lvgl/src/lv_misc/lv_txt.c:141:24
	ldrh.w	r2, [sp, #24]
	.loc	2 141 9 is_stmt 0               @ lvgl/src/lv_misc/lv_txt.c:141:9
	ldr	r1, [sp, #36]
	.loc	2 141 21                        @ lvgl/src/lv_misc/lv_txt.c:141:21
	ldrh	r0, [r1, #2]
	subs	r0, r0, r2
	strh	r0, [r1, #2]
	b	.LBB8_22
.Ltmp139:
.LBB8_22:
	.loc	2 142 1 is_stmt 1               @ lvgl/src/lv_misc/lv_txt.c:142:1
	add	sp, #40
	pop	{r4, r5, r7, pc}
.Ltmp140:
.Lfunc_end8:
	.size	_lv_txt_get_size, .Lfunc_end8-_lv_txt_get_size
	.cfi_endproc
	.cantunwind
	.fnend
                                        @ -- End function
	.section	.text.lv_font_get_line_height,"ax",%progbits
	.p2align	3                               @ -- Begin function lv_font_get_line_height
	.type	lv_font_get_line_height,%function
	.code	16                              @ @lv_font_get_line_height
	.thumb_func
lv_font_get_line_height:
.Lfunc_begin9:
	.file	5 "E:\\Smart-access-control\\Hardware\\CODE" "lvgl/src/lv_misc/../lv_draw/../lv_core/../lv_font/lv_font.h"
	.loc	5 117 0                         @ lvgl/src/lv_misc/../lv_draw/../lv_core/../lv_font/lv_font.h:117:0
	.fnstart
	.cfi_startproc
@ %bb.0:
	.pad	#4
	sub	sp, #4
	.cfi_def_cfa_offset 4
	str	r0, [sp]
.Ltmp141:
	.loc	5 118 12 prologue_end           @ lvgl/src/lv_misc/../lv_draw/../lv_core/../lv_font/lv_font.h:118:12
	ldr	r0, [sp]
	.loc	5 118 20 is_stmt 0              @ lvgl/src/lv_misc/../lv_draw/../lv_core/../lv_font/lv_font.h:118:20
	ldrsh.w	r0, [r0, #8]
	.loc	5 118 5                         @ lvgl/src/lv_misc/../lv_draw/../lv_core/../lv_font/lv_font.h:118:5
	add	sp, #4
	bx	lr
.Ltmp142:
.Lfunc_end9:
	.size	lv_font_get_line_height, .Lfunc_end9-lv_font_get_line_height
	.cfi_endproc
	.cantunwind
	.fnend
                                        @ -- End function
	.section	.text._lv_txt_get_next_line,"ax",%progbits
	.hidden	_lv_txt_get_next_line           @ -- Begin function _lv_txt_get_next_line
	.globl	_lv_txt_get_next_line
	.p2align	3
	.type	_lv_txt_get_next_line,%function
	.code	16                              @ @_lv_txt_get_next_line
	.thumb_func
_lv_txt_get_next_line:
.Lfunc_begin10:
	.loc	2 297 0 is_stmt 1               @ lvgl/src/lv_misc/lv_txt.c:297:0
	.fnstart
	.cfi_startproc
@ %bb.0:
	.save	{r4, lr}
	push	{r4, lr}
	.cfi_def_cfa_offset 8
	.cfi_offset lr, -4
	.cfi_offset r4, -8
	.pad	#64
	sub	sp, #64
	.cfi_def_cfa_offset 72
	mov	r12, r0
	ldr	r0, [sp, #72]
                                        @ kill: def $lr killed $r3
                                        @ kill: def $lr killed $r2
	str.w	r12, [sp, #56]
	str	r1, [sp, #52]
	strh.w	r2, [sp, #50]
	strh.w	r3, [sp, #48]
	strb.w	r0, [sp, #47]
.Ltmp143:
	.loc	2 298 8 prologue_end            @ lvgl/src/lv_misc/lv_txt.c:298:8
	ldr	r0, [sp, #56]
.Ltmp144:
	.loc	2 298 8 is_stmt 0               @ lvgl/src/lv_misc/lv_txt.c:298:8
	cbnz	r0, .LBB10_2
	b	.LBB10_1
.LBB10_1:
	.loc	2 0 8                           @ lvgl/src/lv_misc/lv_txt.c:0:8
	movs	r0, #0
.Ltmp145:
	.loc	2 298 21                        @ lvgl/src/lv_misc/lv_txt.c:298:21
	str	r0, [sp, #60]
	b	.LBB10_36
.Ltmp146:
.LBB10_2:
	.loc	2 299 8 is_stmt 1               @ lvgl/src/lv_misc/lv_txt.c:299:8
	ldr	r0, [sp, #52]
.Ltmp147:
	.loc	2 299 8 is_stmt 0               @ lvgl/src/lv_misc/lv_txt.c:299:8
	cbnz	r0, .LBB10_4
	b	.LBB10_3
.LBB10_3:
	.loc	2 0 8                           @ lvgl/src/lv_misc/lv_txt.c:0:8
	movs	r0, #0
.Ltmp148:
	.loc	2 299 22                        @ lvgl/src/lv_misc/lv_txt.c:299:22
	str	r0, [sp, #60]
	b	.LBB10_36
.Ltmp149:
.LBB10_4:
	.loc	2 303 9 is_stmt 1               @ lvgl/src/lv_misc/lv_txt.c:303:9
	ldrb.w	r0, [sp, #47]
	.loc	2 303 36 is_stmt 0              @ lvgl/src/lv_misc/lv_txt.c:303:36
	lsls	r0, r0, #30
	cmp	r0, #0
	bmi	.LBB10_6
	b	.LBB10_5
.LBB10_5:
	.loc	2 303 40                        @ lvgl/src/lv_misc/lv_txt.c:303:40
	ldrb.w	r0, [sp, #47]
.Ltmp150:
	.loc	2 303 8                         @ lvgl/src/lv_misc/lv_txt.c:303:8
	lsls	r0, r0, #27
	cmp	r0, #0
	bpl	.LBB10_16
	b	.LBB10_6
.LBB10_6:
	.loc	2 0 8                           @ lvgl/src/lv_misc/lv_txt.c:0:8
	movs	r0, #0
.Ltmp151:
	.loc	2 305 15 is_stmt 1              @ lvgl/src/lv_misc/lv_txt.c:305:15
	str	r0, [sp, #40]
	.loc	2 305 13 is_stmt 0              @ lvgl/src/lv_misc/lv_txt.c:305:13
	b	.LBB10_7
.LBB10_7:                               @ =>This Inner Loop Header: Depth=1
.Ltmp152:
	.loc	2 305 20                        @ lvgl/src/lv_misc/lv_txt.c:305:20
	ldr	r0, [sp, #56]
	.loc	2 305 24                        @ lvgl/src/lv_misc/lv_txt.c:305:24
	ldr	r1, [sp, #40]
	.loc	2 305 20                        @ lvgl/src/lv_misc/lv_txt.c:305:20
	ldrsb	r1, [r0, r1]
	movs	r0, #0
	.loc	2 305 35                        @ lvgl/src/lv_misc/lv_txt.c:305:35
	cmp	r1, #10
	str	r0, [sp, #20]                   @ 4-byte Spill
	beq	.LBB10_10
	b	.LBB10_8
.LBB10_8:                               @   in Loop: Header=BB10_7 Depth=1
	.loc	2 305 38                        @ lvgl/src/lv_misc/lv_txt.c:305:38
	ldr	r0, [sp, #56]
	.loc	2 305 42                        @ lvgl/src/lv_misc/lv_txt.c:305:42
	ldr	r1, [sp, #40]
	.loc	2 305 38                        @ lvgl/src/lv_misc/lv_txt.c:305:38
	ldrsb	r1, [r0, r1]
	movs	r0, #0
	.loc	2 305 53                        @ lvgl/src/lv_misc/lv_txt.c:305:53
	cmp	r1, #13
	str	r0, [sp, #20]                   @ 4-byte Spill
	beq	.LBB10_10
	b	.LBB10_9
.LBB10_9:                               @   in Loop: Header=BB10_7 Depth=1
	.loc	2 305 56                        @ lvgl/src/lv_misc/lv_txt.c:305:56
	ldr	r0, [sp, #56]
	.loc	2 305 60                        @ lvgl/src/lv_misc/lv_txt.c:305:60
	ldr	r1, [sp, #40]
	.loc	2 305 56                        @ lvgl/src/lv_misc/lv_txt.c:305:56
	ldrsb	r0, [r0, r1]
	.loc	2 305 63                        @ lvgl/src/lv_misc/lv_txt.c:305:63
	cmp	r0, #0
	it	ne
	movne	r0, #1
	str	r0, [sp, #20]                   @ 4-byte Spill
	b	.LBB10_10
.LBB10_10:                              @   in Loop: Header=BB10_7 Depth=1
	.loc	2 0 0                           @ lvgl/src/lv_misc/lv_txt.c:0:0
	ldr	r0, [sp, #20]                   @ 4-byte Reload
.Ltmp153:
	.loc	2 305 9                         @ lvgl/src/lv_misc/lv_txt.c:305:9
	lsls	r0, r0, #31
	cbz	r0, .LBB10_13
	b	.LBB10_11
.LBB10_11:                              @   in Loop: Header=BB10_7 Depth=1
.Ltmp154:
	.loc	2 307 9 is_stmt 1               @ lvgl/src/lv_misc/lv_txt.c:307:9
	b	.LBB10_12
.Ltmp155:
.LBB10_12:                              @   in Loop: Header=BB10_7 Depth=1
	.loc	2 305 73                        @ lvgl/src/lv_misc/lv_txt.c:305:73
	ldr	r0, [sp, #40]
	adds	r0, #1
	str	r0, [sp, #40]
	.loc	2 305 9 is_stmt 0               @ lvgl/src/lv_misc/lv_txt.c:305:9
	b	.LBB10_7
.Ltmp156:
.LBB10_13:
	.loc	2 308 12 is_stmt 1              @ lvgl/src/lv_misc/lv_txt.c:308:12
	ldr	r0, [sp, #56]
	.loc	2 308 16 is_stmt 0              @ lvgl/src/lv_misc/lv_txt.c:308:16
	ldr	r1, [sp, #40]
	.loc	2 308 12                        @ lvgl/src/lv_misc/lv_txt.c:308:12
	ldrsb	r0, [r0, r1]
.Ltmp157:
	.loc	2 308 12                        @ lvgl/src/lv_misc/lv_txt.c:308:12
	cbz	r0, .LBB10_15
	b	.LBB10_14
.LBB10_14:
.Ltmp158:
	.loc	2 308 29                        @ lvgl/src/lv_misc/lv_txt.c:308:29
	ldr	r0, [sp, #40]
	adds	r0, #1
	str	r0, [sp, #40]
	.loc	2 308 28                        @ lvgl/src/lv_misc/lv_txt.c:308:28
	b	.LBB10_15
.Ltmp159:
.LBB10_15:
	.loc	2 309 16 is_stmt 1              @ lvgl/src/lv_misc/lv_txt.c:309:16
	ldr	r0, [sp, #40]
	.loc	2 309 9 is_stmt 0               @ lvgl/src/lv_misc/lv_txt.c:309:9
	str	r0, [sp, #60]
	b	.LBB10_36
.Ltmp160:
.LBB10_16:
	.loc	2 312 8 is_stmt 1               @ lvgl/src/lv_misc/lv_txt.c:312:8
	ldrb.w	r0, [sp, #47]
.Ltmp161:
	.loc	2 312 8 is_stmt 0               @ lvgl/src/lv_misc/lv_txt.c:312:8
	lsls	r0, r0, #30
	cmp	r0, #0
	bpl	.LBB10_18
	b	.LBB10_17
.LBB10_17:
	.loc	2 0 8                           @ lvgl/src/lv_misc/lv_txt.c:0:8
	movw	r0, #31768
.Ltmp162:
	.loc	2 312 45                        @ lvgl/src/lv_misc/lv_txt.c:312:45
	strh.w	r0, [sp, #48]
	.loc	2 312 35                        @ lvgl/src/lv_misc/lv_txt.c:312:35
	b	.LBB10_18
.Ltmp163:
.LBB10_18:
	.loc	2 0 35                          @ lvgl/src/lv_misc/lv_txt.c:0:35
	movs	r0, #0
	.loc	2 313 24 is_stmt 1              @ lvgl/src/lv_misc/lv_txt.c:313:24
	strb.w	r0, [sp, #39]
	.loc	2 314 14                        @ lvgl/src/lv_misc/lv_txt.c:314:14
	str	r0, [sp, #32]
	.loc	2 316 5                         @ lvgl/src/lv_misc/lv_txt.c:316:5
	b	.LBB10_19
.LBB10_19:                              @ =>This Inner Loop Header: Depth=1
	.loc	2 316 11 is_stmt 0              @ lvgl/src/lv_misc/lv_txt.c:316:11
	ldr	r0, [sp, #56]
	.loc	2 316 15                        @ lvgl/src/lv_misc/lv_txt.c:316:15
	ldr	r1, [sp, #32]
	.loc	2 316 11                        @ lvgl/src/lv_misc/lv_txt.c:316:11
	ldrsb	r1, [r0, r1]
	movs	r0, #0
	.loc	2 316 26                        @ lvgl/src/lv_misc/lv_txt.c:316:26
	str	r0, [sp, #16]                   @ 4-byte Spill
	cbz	r1, .LBB10_21
	b	.LBB10_20
.LBB10_20:                              @   in Loop: Header=BB10_19 Depth=1
	.loc	2 316 29                        @ lvgl/src/lv_misc/lv_txt.c:316:29
	ldrsh.w	r1, [sp, #48]
	movs	r0, #0
	.loc	2 316 39                        @ lvgl/src/lv_misc/lv_txt.c:316:39
	cmp	r1, #0
	it	gt
	movgt	r0, #1
	str	r0, [sp, #16]                   @ 4-byte Spill
	b	.LBB10_21
.LBB10_21:                              @   in Loop: Header=BB10_19 Depth=1
	.loc	2 0 0                           @ lvgl/src/lv_misc/lv_txt.c:0:0
	ldr	r0, [sp, #16]                   @ 4-byte Reload
	.loc	2 316 5                         @ lvgl/src/lv_misc/lv_txt.c:316:5
	lsls	r0, r0, #31
	cmp	r0, #0
	beq	.LBB10_33
	b	.LBB10_22
.LBB10_22:                              @   in Loop: Header=BB10_19 Depth=1
	.loc	2 0 5                           @ lvgl/src/lv_misc/lv_txt.c:0:5
	movs	r0, #0
.Ltmp164:
	.loc	2 317 18 is_stmt 1              @ lvgl/src/lv_misc/lv_txt.c:317:18
	str	r0, [sp, #28]
	.loc	2 318 50                        @ lvgl/src/lv_misc/lv_txt.c:318:50
	ldr	r0, [sp, #56]
	.loc	2 318 54 is_stmt 0              @ lvgl/src/lv_misc/lv_txt.c:318:54
	ldr.w	lr, [sp, #32]
	.loc	2 318 50                        @ lvgl/src/lv_misc/lv_txt.c:318:50
	add	r0, lr
	.loc	2 318 58                        @ lvgl/src/lv_misc/lv_txt.c:318:58
	ldr	r1, [sp, #52]
	.loc	2 318 64                        @ lvgl/src/lv_misc/lv_txt.c:318:64
	ldrsh.w	r2, [sp, #50]
	.loc	2 318 78                        @ lvgl/src/lv_misc/lv_txt.c:318:78
	ldrsh.w	r3, [sp, #48]
	.loc	2 318 89                        @ lvgl/src/lv_misc/lv_txt.c:318:89
	ldrb.w	r12, [sp, #47]
	.loc	2 318 118                       @ lvgl/src/lv_misc/lv_txt.c:318:118
	clz	lr, lr
	lsr.w	r4, lr, #5
	.loc	2 318 28                        @ lvgl/src/lv_misc/lv_txt.c:318:28
	mov	lr, sp
	str.w	r4, [lr, #12]
	add.w	r4, sp, #39
	str.w	r4, [lr, #8]
	add	r4, sp, #28
	str.w	r4, [lr, #4]
	str.w	r12, [lr]
	bl	lv_txt_get_next_word
	.loc	2 318 18                        @ lvgl/src/lv_misc/lv_txt.c:318:18
	str	r0, [sp, #24]
	.loc	2 319 22 is_stmt 1              @ lvgl/src/lv_misc/lv_txt.c:319:22
	ldr	r1, [sp, #28]
	.loc	2 319 19 is_stmt 0              @ lvgl/src/lv_misc/lv_txt.c:319:19
	ldrh.w	r0, [sp, #48]
	subs	r0, r0, r1
	strh.w	r0, [sp, #48]
.Ltmp165:
	.loc	2 321 12 is_stmt 1              @ lvgl/src/lv_misc/lv_txt.c:321:12
	ldr	r0, [sp, #24]
.Ltmp166:
	.loc	2 321 12 is_stmt 0              @ lvgl/src/lv_misc/lv_txt.c:321:12
	cbnz	r0, .LBB10_26
	b	.LBB10_23
.LBB10_23:
.Ltmp167:
	.loc	2 322 16 is_stmt 1              @ lvgl/src/lv_misc/lv_txt.c:322:16
	ldr	r0, [sp, #32]
.Ltmp168:
	.loc	2 322 16 is_stmt 0              @ lvgl/src/lv_misc/lv_txt.c:322:16
	cbnz	r0, .LBB10_25
	b	.LBB10_24
.LBB10_24:
.Ltmp169:
	.loc	2 322 24                        @ lvgl/src/lv_misc/lv_txt.c:322:24
	movw	r0, :lower16:_lv_txt_encoded_next
	movt	r0, :upper16:_lv_txt_encoded_next
	ldr	r2, [r0]
	.loc	2 322 45                        @ lvgl/src/lv_misc/lv_txt.c:322:45
	ldr	r0, [sp, #56]
	add	r1, sp, #32
	.loc	2 322 24                        @ lvgl/src/lv_misc/lv_txt.c:322:24
	blx	r2
	b	.LBB10_25
.Ltmp170:
.LBB10_25:
	.loc	2 323 13 is_stmt 1              @ lvgl/src/lv_misc/lv_txt.c:323:13
	b	.LBB10_33
.Ltmp171:
.LBB10_26:                              @   in Loop: Header=BB10_19 Depth=1
	.loc	2 326 14                        @ lvgl/src/lv_misc/lv_txt.c:326:14
	ldr	r1, [sp, #24]
	.loc	2 326 11 is_stmt 0              @ lvgl/src/lv_misc/lv_txt.c:326:11
	ldr	r0, [sp, #32]
	add	r0, r1
	str	r0, [sp, #32]
.Ltmp172:
	.loc	2 328 12 is_stmt 1              @ lvgl/src/lv_misc/lv_txt.c:328:12
	ldr	r0, [sp, #56]
	ldrsb.w	r0, [r0]
	.loc	2 328 27 is_stmt 0              @ lvgl/src/lv_misc/lv_txt.c:328:27
	cmp	r0, #10
	beq	.LBB10_28
	b	.LBB10_27
.LBB10_27:                              @   in Loop: Header=BB10_19 Depth=1
	.loc	2 328 30                        @ lvgl/src/lv_misc/lv_txt.c:328:30
	ldr	r0, [sp, #56]
	ldrsb.w	r0, [r0]
.Ltmp173:
	.loc	2 328 12                        @ lvgl/src/lv_misc/lv_txt.c:328:12
	cmp	r0, #13
	bne	.LBB10_29
	b	.LBB10_28
.LBB10_28:
.Ltmp174:
	.loc	2 328 46                        @ lvgl/src/lv_misc/lv_txt.c:328:46
	b	.LBB10_33
.Ltmp175:
.LBB10_29:                              @   in Loop: Header=BB10_19 Depth=1
	.loc	2 330 12 is_stmt 1              @ lvgl/src/lv_misc/lv_txt.c:330:12
	ldr	r0, [sp, #56]
	.loc	2 330 16 is_stmt 0              @ lvgl/src/lv_misc/lv_txt.c:330:16
	ldr	r1, [sp, #32]
	.loc	2 330 12                        @ lvgl/src/lv_misc/lv_txt.c:330:12
	ldrsb	r0, [r0, r1]
	.loc	2 330 27                        @ lvgl/src/lv_misc/lv_txt.c:330:27
	cmp	r0, #10
	beq	.LBB10_31
	b	.LBB10_30
.LBB10_30:                              @   in Loop: Header=BB10_19 Depth=1
	.loc	2 330 30                        @ lvgl/src/lv_misc/lv_txt.c:330:30
	ldr	r0, [sp, #56]
	.loc	2 330 34                        @ lvgl/src/lv_misc/lv_txt.c:330:34
	ldr	r1, [sp, #32]
	.loc	2 330 30                        @ lvgl/src/lv_misc/lv_txt.c:330:30
	ldrsb	r0, [r0, r1]
.Ltmp176:
	.loc	2 330 12                        @ lvgl/src/lv_misc/lv_txt.c:330:12
	cmp	r0, #13
	bne	.LBB10_32
	b	.LBB10_31
.LBB10_31:
.Ltmp177:
	.loc	2 331 14 is_stmt 1              @ lvgl/src/lv_misc/lv_txt.c:331:14
	ldr	r0, [sp, #32]
	adds	r0, #1
	str	r0, [sp, #32]
	.loc	2 332 13                        @ lvgl/src/lv_misc/lv_txt.c:332:13
	b	.LBB10_33
.Ltmp178:
.LBB10_32:                              @   in Loop: Header=BB10_19 Depth=1
	.loc	2 316 5                         @ lvgl/src/lv_misc/lv_txt.c:316:5
	b	.LBB10_19
.LBB10_33:
.Ltmp179:
	.loc	2 338 8                         @ lvgl/src/lv_misc/lv_txt.c:338:8
	ldr	r0, [sp, #32]
.Ltmp180:
	.loc	2 338 8 is_stmt 0               @ lvgl/src/lv_misc/lv_txt.c:338:8
	cbnz	r0, .LBB10_35
	b	.LBB10_34
.LBB10_34:
.Ltmp181:
	.loc	2 339 9 is_stmt 1               @ lvgl/src/lv_misc/lv_txt.c:339:9
	movw	r0, :lower16:_lv_txt_encoded_next
	movt	r0, :upper16:_lv_txt_encoded_next
	ldr	r2, [r0]
	.loc	2 339 30 is_stmt 0              @ lvgl/src/lv_misc/lv_txt.c:339:30
	ldr	r0, [sp, #56]
	add	r1, sp, #32
	.loc	2 339 9                         @ lvgl/src/lv_misc/lv_txt.c:339:9
	blx	r2
	.loc	2 340 5 is_stmt 1               @ lvgl/src/lv_misc/lv_txt.c:340:5
	b	.LBB10_35
.Ltmp182:
.LBB10_35:
	.loc	2 342 12                        @ lvgl/src/lv_misc/lv_txt.c:342:12
	ldr	r0, [sp, #32]
	.loc	2 342 5 is_stmt 0               @ lvgl/src/lv_misc/lv_txt.c:342:5
	str	r0, [sp, #60]
	b	.LBB10_36
.LBB10_36:
	.loc	2 343 1 is_stmt 1               @ lvgl/src/lv_misc/lv_txt.c:343:1
	ldr	r0, [sp, #60]
	add	sp, #64
	pop	{r4, pc}
.Ltmp183:
.Lfunc_end10:
	.size	_lv_txt_get_next_line, .Lfunc_end10-_lv_txt_get_next_line
	.cfi_endproc
	.cantunwind
	.fnend
                                        @ -- End function
	.section	.text._lv_txt_get_width,"ax",%progbits
	.hidden	_lv_txt_get_width               @ -- Begin function _lv_txt_get_width
	.globl	_lv_txt_get_width
	.p2align	3
	.type	_lv_txt_get_width,%function
	.code	16                              @ @_lv_txt_get_width
	.thumb_func
_lv_txt_get_width:
.Lfunc_begin11:
	.loc	2 357 0                         @ lvgl/src/lv_misc/lv_txt.c:357:0
	.fnstart
	.cfi_startproc
@ %bb.0:
	.save	{r7, lr}
	push	{r7, lr}
	.cfi_def_cfa_offset 8
	.cfi_offset lr, -4
	.cfi_offset r7, -8
	.pad	#48
	sub	sp, #48
	.cfi_def_cfa_offset 56
	mov	r12, r0
	ldr	r0, [sp, #56]
                                        @ kill: def $lr killed $r3
	str.w	r12, [sp, #40]
	str	r1, [sp, #36]
	str	r2, [sp, #32]
	strh.w	r3, [sp, #30]
	strb.w	r0, [sp, #29]
.Ltmp184:
	.loc	2 358 8 prologue_end            @ lvgl/src/lv_misc/lv_txt.c:358:8
	ldr	r0, [sp, #40]
.Ltmp185:
	.loc	2 358 8 is_stmt 0               @ lvgl/src/lv_misc/lv_txt.c:358:8
	cbnz	r0, .LBB11_2
	b	.LBB11_1
.LBB11_1:
	.loc	2 0 8                           @ lvgl/src/lv_misc/lv_txt.c:0:8
	movs	r0, #0
.Ltmp186:
	.loc	2 358 21                        @ lvgl/src/lv_misc/lv_txt.c:358:21
	strh.w	r0, [sp, #46]
	b	.LBB11_20
.Ltmp187:
.LBB11_2:
	.loc	2 359 8 is_stmt 1               @ lvgl/src/lv_misc/lv_txt.c:359:8
	ldr	r0, [sp, #32]
.Ltmp188:
	.loc	2 359 8 is_stmt 0               @ lvgl/src/lv_misc/lv_txt.c:359:8
	cbnz	r0, .LBB11_4
	b	.LBB11_3
.LBB11_3:
	.loc	2 0 8                           @ lvgl/src/lv_misc/lv_txt.c:0:8
	movs	r0, #0
.Ltmp189:
	.loc	2 359 22                        @ lvgl/src/lv_misc/lv_txt.c:359:22
	strh.w	r0, [sp, #46]
	b	.LBB11_20
.Ltmp190:
.LBB11_4:
	.loc	2 360 8 is_stmt 1               @ lvgl/src/lv_misc/lv_txt.c:360:8
	ldr	r0, [sp, #40]
	ldrsb.w	r0, [r0]
.Ltmp191:
	.loc	2 360 8 is_stmt 0               @ lvgl/src/lv_misc/lv_txt.c:360:8
	cbnz	r0, .LBB11_6
	b	.LBB11_5
.LBB11_5:
	.loc	2 0 8                           @ lvgl/src/lv_misc/lv_txt.c:0:8
	movs	r0, #0
.Ltmp192:
	.loc	2 360 24                        @ lvgl/src/lv_misc/lv_txt.c:360:24
	strh.w	r0, [sp, #46]
	b	.LBB11_20
.Ltmp193:
.LBB11_6:
	.loc	2 0 24                          @ lvgl/src/lv_misc/lv_txt.c:0:24
	movs	r0, #0
	.loc	2 362 14 is_stmt 1              @ lvgl/src/lv_misc/lv_txt.c:362:14
	str	r0, [sp, #24]
	.loc	2 363 16                        @ lvgl/src/lv_misc/lv_txt.c:363:16
	strh.w	r0, [sp, #22]
	.loc	2 364 24                        @ lvgl/src/lv_misc/lv_txt.c:364:24
	strb.w	r0, [sp, #21]
.Ltmp194:
	.loc	2 366 8                         @ lvgl/src/lv_misc/lv_txt.c:366:8
	ldr	r0, [sp, #36]
.Ltmp195:
	.loc	2 366 8 is_stmt 0               @ lvgl/src/lv_misc/lv_txt.c:366:8
	cmp	r0, #0
	beq	.LBB11_19
	b	.LBB11_7
.LBB11_7:
.Ltmp196:
	.loc	2 367 9 is_stmt 1               @ lvgl/src/lv_misc/lv_txt.c:367:9
	b	.LBB11_8
.LBB11_8:                               @ =>This Inner Loop Header: Depth=1
	.loc	2 367 15 is_stmt 0              @ lvgl/src/lv_misc/lv_txt.c:367:15
	ldr	r0, [sp, #24]
	.loc	2 367 19                        @ lvgl/src/lv_misc/lv_txt.c:367:19
	ldr	r1, [sp, #36]
	.loc	2 367 9                         @ lvgl/src/lv_misc/lv_txt.c:367:9
	cmp	r0, r1
	bhs	.LBB11_16
	b	.LBB11_9
.LBB11_9:                               @   in Loop: Header=BB11_8 Depth=1
.Ltmp197:
	.loc	2 368 36 is_stmt 1              @ lvgl/src/lv_misc/lv_txt.c:368:36
	movw	r0, :lower16:_lv_txt_encoded_next
	movt	r0, :upper16:_lv_txt_encoded_next
	str	r0, [sp, #4]                    @ 4-byte Spill
	ldr	r2, [r0]
	.loc	2 368 57 is_stmt 0              @ lvgl/src/lv_misc/lv_txt.c:368:57
	ldr	r0, [sp, #40]
	add	r1, sp, #24
	.loc	2 368 36                        @ lvgl/src/lv_misc/lv_txt.c:368:36
	blx	r2
	mov	r1, r0
	.loc	2 368 22                        @ lvgl/src/lv_misc/lv_txt.c:368:22
	ldr	r0, [sp, #4]                    @ 4-byte Reload
	str	r1, [sp, #16]
	.loc	2 369 36 is_stmt 1              @ lvgl/src/lv_misc/lv_txt.c:369:36
	ldr	r2, [r0]
	.loc	2 369 58 is_stmt 0              @ lvgl/src/lv_misc/lv_txt.c:369:58
	ldr	r0, [sp, #40]
	.loc	2 369 62                        @ lvgl/src/lv_misc/lv_txt.c:369:62
	ldr	r1, [sp, #24]
	.loc	2 369 58                        @ lvgl/src/lv_misc/lv_txt.c:369:58
	add	r0, r1
	movs	r1, #0
	.loc	2 369 36                        @ lvgl/src/lv_misc/lv_txt.c:369:36
	blx	r2
	.loc	2 369 22                        @ lvgl/src/lv_misc/lv_txt.c:369:22
	str	r0, [sp, #12]
.Ltmp198:
	.loc	2 370 17 is_stmt 1              @ lvgl/src/lv_misc/lv_txt.c:370:17
	ldrb.w	r0, [sp, #29]
.Ltmp199:
	.loc	2 370 16 is_stmt 0              @ lvgl/src/lv_misc/lv_txt.c:370:16
	lsls	r0, r0, #31
	cbz	r0, .LBB11_13
	b	.LBB11_10
.LBB11_10:                              @   in Loop: Header=BB11_8 Depth=1
.Ltmp200:
	.loc	2 371 47 is_stmt 1              @ lvgl/src/lv_misc/lv_txt.c:371:47
	ldr	r1, [sp, #16]
	add.w	r0, sp, #21
	.loc	2 371 20 is_stmt 0              @ lvgl/src/lv_misc/lv_txt.c:371:20
	bl	_lv_txt_is_cmd
.Ltmp201:
	.loc	2 371 20                        @ lvgl/src/lv_misc/lv_txt.c:371:20
	cbz	r0, .LBB11_12
	b	.LBB11_11
.LBB11_11:                              @   in Loop: Header=BB11_8 Depth=1
.Ltmp202:
	.loc	2 372 21 is_stmt 1              @ lvgl/src/lv_misc/lv_txt.c:372:21
	b	.LBB11_8
.Ltmp203:
.LBB11_12:                              @   in Loop: Header=BB11_8 Depth=1
	.loc	2 374 13                        @ lvgl/src/lv_misc/lv_txt.c:374:13
	b	.LBB11_13
.Ltmp204:
.LBB11_13:                              @   in Loop: Header=BB11_8 Depth=1
	.loc	2 376 61                        @ lvgl/src/lv_misc/lv_txt.c:376:61
	ldr	r0, [sp, #32]
	.loc	2 376 67 is_stmt 0              @ lvgl/src/lv_misc/lv_txt.c:376:67
	ldr	r1, [sp, #16]
	.loc	2 376 75                        @ lvgl/src/lv_misc/lv_txt.c:376:75
	ldr	r2, [sp, #12]
	.loc	2 376 37                        @ lvgl/src/lv_misc/lv_txt.c:376:37
	bl	lv_font_get_glyph_width
	.loc	2 376 24                        @ lvgl/src/lv_misc/lv_txt.c:376:24
	strh.w	r0, [sp, #10]
.Ltmp205:
	.loc	2 377 16 is_stmt 1              @ lvgl/src/lv_misc/lv_txt.c:377:16
	ldrsh.w	r0, [sp, #10]
.Ltmp206:
	.loc	2 377 16 is_stmt 0              @ lvgl/src/lv_misc/lv_txt.c:377:16
	cmp	r0, #1
	blt	.LBB11_15
	b	.LBB11_14
.LBB11_14:                              @   in Loop: Header=BB11_8 Depth=1
.Ltmp207:
	.loc	2 378 26 is_stmt 1              @ lvgl/src/lv_misc/lv_txt.c:378:26
	ldrh.w	r1, [sp, #10]
	.loc	2 378 23 is_stmt 0              @ lvgl/src/lv_misc/lv_txt.c:378:23
	ldrh.w	r0, [sp, #22]
	add	r0, r1
	strh.w	r0, [sp, #22]
	.loc	2 379 26 is_stmt 1              @ lvgl/src/lv_misc/lv_txt.c:379:26
	ldrh.w	r1, [sp, #30]
	.loc	2 379 23 is_stmt 0              @ lvgl/src/lv_misc/lv_txt.c:379:23
	ldrh.w	r0, [sp, #22]
	add	r0, r1
	strh.w	r0, [sp, #22]
	.loc	2 380 13 is_stmt 1              @ lvgl/src/lv_misc/lv_txt.c:380:13
	b	.LBB11_15
.Ltmp208:
.LBB11_15:                              @   in Loop: Header=BB11_8 Depth=1
	.loc	2 367 9                         @ lvgl/src/lv_misc/lv_txt.c:367:9
	b	.LBB11_8
.LBB11_16:
.Ltmp209:
	.loc	2 383 12                        @ lvgl/src/lv_misc/lv_txt.c:383:12
	ldrsh.w	r0, [sp, #22]
.Ltmp210:
	.loc	2 383 12 is_stmt 0              @ lvgl/src/lv_misc/lv_txt.c:383:12
	cmp	r0, #1
	blt	.LBB11_18
	b	.LBB11_17
.LBB11_17:
.Ltmp211:
	.loc	2 384 22 is_stmt 1              @ lvgl/src/lv_misc/lv_txt.c:384:22
	ldrh.w	r1, [sp, #30]
	.loc	2 384 19 is_stmt 0              @ lvgl/src/lv_misc/lv_txt.c:384:19
	ldrh.w	r0, [sp, #22]
	subs	r0, r0, r1
	strh.w	r0, [sp, #22]
	.loc	2 386 9 is_stmt 1               @ lvgl/src/lv_misc/lv_txt.c:386:9
	b	.LBB11_18
.Ltmp212:
.LBB11_18:
	.loc	2 387 5                         @ lvgl/src/lv_misc/lv_txt.c:387:5
	b	.LBB11_19
.Ltmp213:
.LBB11_19:
	.loc	2 389 12                        @ lvgl/src/lv_misc/lv_txt.c:389:12
	ldrh.w	r0, [sp, #22]
	.loc	2 389 5 is_stmt 0               @ lvgl/src/lv_misc/lv_txt.c:389:5
	strh.w	r0, [sp, #46]
	b	.LBB11_20
.LBB11_20:
	.loc	2 390 1 is_stmt 1               @ lvgl/src/lv_misc/lv_txt.c:390:1
	ldrsh.w	r0, [sp, #46]
	add	sp, #48
	pop	{r7, pc}
.Ltmp214:
.Lfunc_end11:
	.size	_lv_txt_get_width, .Lfunc_end11-_lv_txt_get_width
	.cfi_endproc
	.cantunwind
	.fnend
                                        @ -- End function
	.section	.text.lv_txt_get_next_word,"ax",%progbits
	.p2align	3                               @ -- Begin function lv_txt_get_next_word
	.type	lv_txt_get_next_word,%function
	.code	16                              @ @lv_txt_get_next_word
	.thumb_func
lv_txt_get_next_word:
.Lfunc_begin12:
	.loc	2 178 0                         @ lvgl/src/lv_misc/lv_txt.c:178:0
	.fnstart
	.cfi_startproc
@ %bb.0:
	.save	{r4, lr}
	push	{r4, lr}
	.cfi_def_cfa_offset 8
	.cfi_offset lr, -4
	.cfi_offset r4, -8
	.pad	#64
	sub	sp, #64
	.cfi_def_cfa_offset 72
	mov	r12, r1
	mov	lr, r0
	ldr	r0, [sp, #84]
	ldr	r1, [sp, #80]
	ldr	r1, [sp, #76]
	ldr	r1, [sp, #72]
                                        @ kill: def $r4 killed $r3
                                        @ kill: def $r4 killed $r2
	str.w	lr, [sp, #56]
	str.w	r12, [sp, #52]
	strh.w	r2, [sp, #50]
	strh.w	r3, [sp, #48]
	strb.w	r1, [sp, #47]
	strb.w	r0, [sp, #46]
.Ltmp215:
	.loc	2 179 8 prologue_end            @ lvgl/src/lv_misc/lv_txt.c:179:8
	ldr	r0, [sp, #56]
	.loc	2 179 20 is_stmt 0              @ lvgl/src/lv_misc/lv_txt.c:179:20
	cbz	r0, .LBB12_2
	b	.LBB12_1
.LBB12_1:
	.loc	2 179 23                        @ lvgl/src/lv_misc/lv_txt.c:179:23
	ldr	r0, [sp, #56]
	ldrsb.w	r0, [r0]
.Ltmp216:
	.loc	2 179 8                         @ lvgl/src/lv_misc/lv_txt.c:179:8
	cbnz	r0, .LBB12_3
	b	.LBB12_2
.LBB12_2:
	.loc	2 0 8                           @ lvgl/src/lv_misc/lv_txt.c:0:8
	movs	r0, #0
.Ltmp217:
	.loc	2 179 39                        @ lvgl/src/lv_misc/lv_txt.c:179:39
	str	r0, [sp, #60]
	b	.LBB12_41
.Ltmp218:
.LBB12_3:
	.loc	2 180 8 is_stmt 1               @ lvgl/src/lv_misc/lv_txt.c:180:8
	ldr	r0, [sp, #52]
.Ltmp219:
	.loc	2 180 8 is_stmt 0               @ lvgl/src/lv_misc/lv_txt.c:180:8
	cbnz	r0, .LBB12_5
	b	.LBB12_4
.LBB12_4:
	.loc	2 0 8                           @ lvgl/src/lv_misc/lv_txt.c:0:8
	movs	r0, #0
.Ltmp220:
	.loc	2 180 22                        @ lvgl/src/lv_misc/lv_txt.c:180:22
	str	r0, [sp, #60]
	b	.LBB12_41
.Ltmp221:
.LBB12_5:
	.loc	2 182 8 is_stmt 1               @ lvgl/src/lv_misc/lv_txt.c:182:8
	ldrb.w	r0, [sp, #47]
.Ltmp222:
	.loc	2 182 8 is_stmt 0               @ lvgl/src/lv_misc/lv_txt.c:182:8
	lsls	r0, r0, #30
	cmp	r0, #0
	bpl	.LBB12_7
	b	.LBB12_6
.LBB12_6:
	.loc	2 0 8                           @ lvgl/src/lv_misc/lv_txt.c:0:8
	movw	r0, #31768
.Ltmp223:
	.loc	2 182 45                        @ lvgl/src/lv_misc/lv_txt.c:182:45
	strh.w	r0, [sp, #48]
	.loc	2 182 35                        @ lvgl/src/lv_misc/lv_txt.c:182:35
	b	.LBB12_7
.Ltmp224:
.LBB12_7:
	.loc	2 0 35                          @ lvgl/src/lv_misc/lv_txt.c:0:35
	movs	r0, #0
	.loc	2 184 14 is_stmt 1              @ lvgl/src/lv_misc/lv_txt.c:184:14
	str	r0, [sp, #4]                    @ 4-byte Spill
	str	r0, [sp, #40]
	.loc	2 184 21 is_stmt 0              @ lvgl/src/lv_misc/lv_txt.c:184:21
	str	r0, [sp, #36]
	.loc	2 184 33                        @ lvgl/src/lv_misc/lv_txt.c:184:33
	str	r0, [sp, #32]
	.loc	2 185 14 is_stmt 1              @ lvgl/src/lv_misc/lv_txt.c:185:14
	str	r0, [sp, #28]
	.loc	2 186 14                        @ lvgl/src/lv_misc/lv_txt.c:186:14
	str	r0, [sp, #24]
	.loc	2 188 16                        @ lvgl/src/lv_misc/lv_txt.c:188:16
	strh.w	r0, [sp, #20]
	.loc	2 189 14                        @ lvgl/src/lv_misc/lv_txt.c:189:14
	str	r0, [sp, #16]
	mov.w	r1, #-1
	.loc	2 190 14                        @ lvgl/src/lv_misc/lv_txt.c:190:14
	str	r1, [sp, #12]
	.loc	2 191 14                        @ lvgl/src/lv_misc/lv_txt.c:191:14
	str	r0, [sp, #8]
	.loc	2 193 14                        @ lvgl/src/lv_misc/lv_txt.c:193:14
	movw	r0, :lower16:_lv_txt_encoded_next
	movt	r0, :upper16:_lv_txt_encoded_next
	ldr	r2, [r0]
	.loc	2 193 35 is_stmt 0              @ lvgl/src/lv_misc/lv_txt.c:193:35
	ldr	r0, [sp, #56]
	add	r1, sp, #36
	.loc	2 193 14                        @ lvgl/src/lv_misc/lv_txt.c:193:14
	blx	r2
	.loc	2 193 12                        @ lvgl/src/lv_misc/lv_txt.c:193:12
	str	r0, [sp, #28]
	.loc	2 194 19 is_stmt 1              @ lvgl/src/lv_misc/lv_txt.c:194:19
	ldr	r0, [sp, #36]
	.loc	2 194 17 is_stmt 0              @ lvgl/src/lv_misc/lv_txt.c:194:17
	str	r0, [sp, #32]
	.loc	2 197 5 is_stmt 1               @ lvgl/src/lv_misc/lv_txt.c:197:5
	b	.LBB12_8
.LBB12_8:                               @ =>This Inner Loop Header: Depth=1
	.loc	2 197 11 is_stmt 0              @ lvgl/src/lv_misc/lv_txt.c:197:11
	ldr	r0, [sp, #56]
	.loc	2 197 15                        @ lvgl/src/lv_misc/lv_txt.c:197:15
	ldr	r1, [sp, #40]
	.loc	2 197 11                        @ lvgl/src/lv_misc/lv_txt.c:197:11
	ldrsb	r0, [r0, r1]
	.loc	2 197 5                         @ lvgl/src/lv_misc/lv_txt.c:197:5
	cmp	r0, #0
	beq.w	.LBB12_30
	b	.LBB12_9
.LBB12_9:                               @   in Loop: Header=BB12_8 Depth=1
.Ltmp225:
	.loc	2 198 23 is_stmt 1              @ lvgl/src/lv_misc/lv_txt.c:198:23
	movw	r0, :lower16:_lv_txt_encoded_next
	movt	r0, :upper16:_lv_txt_encoded_next
	ldr	r2, [r0]
	.loc	2 198 44 is_stmt 0              @ lvgl/src/lv_misc/lv_txt.c:198:44
	ldr	r0, [sp, #56]
	add	r1, sp, #32
	.loc	2 198 23                        @ lvgl/src/lv_misc/lv_txt.c:198:23
	blx	r2
	.loc	2 198 21                        @ lvgl/src/lv_misc/lv_txt.c:198:21
	str	r0, [sp, #24]
	.loc	2 199 17 is_stmt 1              @ lvgl/src/lv_misc/lv_txt.c:199:17
	ldr	r0, [sp, #16]
	adds	r0, #1
	str	r0, [sp, #16]
.Ltmp226:
	.loc	2 202 13                        @ lvgl/src/lv_misc/lv_txt.c:202:13
	ldrb.w	r0, [sp, #47]
.Ltmp227:
	.loc	2 202 12 is_stmt 0              @ lvgl/src/lv_misc/lv_txt.c:202:12
	lsls	r0, r0, #31
	cbz	r0, .LBB12_13
	b	.LBB12_10
.LBB12_10:                              @   in Loop: Header=BB12_8 Depth=1
.Ltmp228:
	.loc	2 203 31 is_stmt 1              @ lvgl/src/lv_misc/lv_txt.c:203:31
	ldr	r0, [sp, #80]
	.loc	2 203 42 is_stmt 0              @ lvgl/src/lv_misc/lv_txt.c:203:42
	ldr	r1, [sp, #28]
	.loc	2 203 16                        @ lvgl/src/lv_misc/lv_txt.c:203:16
	bl	_lv_txt_is_cmd
.Ltmp229:
	.loc	2 203 16                        @ lvgl/src/lv_misc/lv_txt.c:203:16
	cbz	r0, .LBB12_12
	b	.LBB12_11
.LBB12_11:                              @   in Loop: Header=BB12_8 Depth=1
.Ltmp230:
	.loc	2 204 21 is_stmt 1              @ lvgl/src/lv_misc/lv_txt.c:204:21
	ldr	r0, [sp, #36]
	.loc	2 204 19 is_stmt 0              @ lvgl/src/lv_misc/lv_txt.c:204:19
	str	r0, [sp, #40]
	.loc	2 205 26 is_stmt 1              @ lvgl/src/lv_misc/lv_txt.c:205:26
	ldr	r0, [sp, #32]
	.loc	2 205 24 is_stmt 0              @ lvgl/src/lv_misc/lv_txt.c:205:24
	str	r0, [sp, #36]
	.loc	2 206 26 is_stmt 1              @ lvgl/src/lv_misc/lv_txt.c:206:26
	ldr	r0, [sp, #24]
	.loc	2 206 24 is_stmt 0              @ lvgl/src/lv_misc/lv_txt.c:206:24
	str	r0, [sp, #28]
	.loc	2 207 17 is_stmt 1              @ lvgl/src/lv_misc/lv_txt.c:207:17
	b	.LBB12_8
.Ltmp231:
.LBB12_12:                              @   in Loop: Header=BB12_8 Depth=1
	.loc	2 209 9                         @ lvgl/src/lv_misc/lv_txt.c:209:9
	b	.LBB12_13
.Ltmp232:
.LBB12_13:                              @   in Loop: Header=BB12_8 Depth=1
	.loc	2 211 44                        @ lvgl/src/lv_misc/lv_txt.c:211:44
	ldr	r0, [sp, #52]
	.loc	2 211 50 is_stmt 0              @ lvgl/src/lv_misc/lv_txt.c:211:50
	ldr	r1, [sp, #28]
	.loc	2 211 58                        @ lvgl/src/lv_misc/lv_txt.c:211:58
	ldr	r2, [sp, #24]
	.loc	2 211 20                        @ lvgl/src/lv_misc/lv_txt.c:211:20
	bl	lv_font_get_glyph_width
	.loc	2 211 18                        @ lvgl/src/lv_misc/lv_txt.c:211:18
	strh.w	r0, [sp, #22]
	.loc	2 212 18 is_stmt 1              @ lvgl/src/lv_misc/lv_txt.c:212:18
	ldrh.w	r1, [sp, #22]
	.loc	2 212 15 is_stmt 0              @ lvgl/src/lv_misc/lv_txt.c:212:15
	ldrh.w	r0, [sp, #20]
	add	r0, r1
	strh.w	r0, [sp, #20]
.Ltmp233:
	.loc	2 214 12 is_stmt 1              @ lvgl/src/lv_misc/lv_txt.c:214:12
	ldrsh.w	r0, [sp, #22]
.Ltmp234:
	.loc	2 214 12 is_stmt 0              @ lvgl/src/lv_misc/lv_txt.c:214:12
	cmp	r0, #1
	blt	.LBB12_15
	b	.LBB12_14
.LBB12_14:                              @   in Loop: Header=BB12_8 Depth=1
.Ltmp235:
	.loc	2 215 22 is_stmt 1              @ lvgl/src/lv_misc/lv_txt.c:215:22
	ldrh.w	r1, [sp, #50]
	.loc	2 215 19 is_stmt 0              @ lvgl/src/lv_misc/lv_txt.c:215:19
	ldrh.w	r0, [sp, #20]
	add	r0, r1
	strh.w	r0, [sp, #20]
	.loc	2 216 9 is_stmt 1               @ lvgl/src/lv_misc/lv_txt.c:216:9
	b	.LBB12_15
.Ltmp236:
.LBB12_15:                              @   in Loop: Header=BB12_8 Depth=1
	.loc	2 219 12                        @ lvgl/src/lv_misc/lv_txt.c:219:12
	ldr	r0, [sp, #12]
	.loc	2 219 42 is_stmt 0              @ lvgl/src/lv_misc/lv_txt.c:219:42
	adds	r0, #1
	cbnz	r0, .LBB12_18
	b	.LBB12_16
.LBB12_16:                              @   in Loop: Header=BB12_8 Depth=1
	.loc	2 219 46                        @ lvgl/src/lv_misc/lv_txt.c:219:46
	ldrsh.w	r0, [sp, #20]
	.loc	2 219 54                        @ lvgl/src/lv_misc/lv_txt.c:219:54
	ldrsh.w	r1, [sp, #50]
	.loc	2 219 52                        @ lvgl/src/lv_misc/lv_txt.c:219:52
	subs	r0, r0, r1
	.loc	2 219 70                        @ lvgl/src/lv_misc/lv_txt.c:219:70
	ldrsh.w	r1, [sp, #48]
.Ltmp237:
	.loc	2 219 12                        @ lvgl/src/lv_misc/lv_txt.c:219:12
	cmp	r0, r1
	ble	.LBB12_18
	b	.LBB12_17
.LBB12_17:                              @   in Loop: Header=BB12_8 Depth=1
.Ltmp238:
	.loc	2 220 27 is_stmt 1              @ lvgl/src/lv_misc/lv_txt.c:220:27
	ldr	r0, [sp, #40]
	.loc	2 220 25 is_stmt 0              @ lvgl/src/lv_misc/lv_txt.c:220:25
	str	r0, [sp, #12]
	.loc	2 221 34 is_stmt 1              @ lvgl/src/lv_misc/lv_txt.c:221:34
	ldr	r0, [sp, #16]
	.loc	2 221 43 is_stmt 0              @ lvgl/src/lv_misc/lv_txt.c:221:43
	subs	r0, #1
	.loc	2 221 32                        @ lvgl/src/lv_misc/lv_txt.c:221:32
	str	r0, [sp, #8]
	.loc	2 223 9 is_stmt 1               @ lvgl/src/lv_misc/lv_txt.c:223:9
	b	.LBB12_18
.Ltmp239:
.LBB12_18:                              @   in Loop: Header=BB12_8 Depth=1
	.loc	2 226 12                        @ lvgl/src/lv_misc/lv_txt.c:226:12
	ldr	r0, [sp, #28]
	.loc	2 226 27 is_stmt 0              @ lvgl/src/lv_misc/lv_txt.c:226:27
	cmp	r0, #10
	beq	.LBB12_21
	b	.LBB12_19
.LBB12_19:                              @   in Loop: Header=BB12_8 Depth=1
	.loc	2 226 30                        @ lvgl/src/lv_misc/lv_txt.c:226:30
	ldr	r0, [sp, #28]
	.loc	2 226 45                        @ lvgl/src/lv_misc/lv_txt.c:226:45
	cmp	r0, #13
	beq	.LBB12_21
	b	.LBB12_20
.LBB12_20:                              @   in Loop: Header=BB12_8 Depth=1
	.loc	2 226 62                        @ lvgl/src/lv_misc/lv_txt.c:226:62
	ldr	r0, [sp, #28]
	.loc	2 226 48                        @ lvgl/src/lv_misc/lv_txt.c:226:48
	bl	is_break_char
.Ltmp240:
	.loc	2 226 12                        @ lvgl/src/lv_misc/lv_txt.c:226:12
	cbz	r0, .LBB12_26
	b	.LBB12_21
.LBB12_21:
.Ltmp241:
	.loc	2 229 16 is_stmt 1              @ lvgl/src/lv_misc/lv_txt.c:229:16
	ldr	r0, [sp, #40]
	.loc	2 229 23 is_stmt 0              @ lvgl/src/lv_misc/lv_txt.c:229:23
	cbnz	r0, .LBB12_25
	b	.LBB12_22
.LBB12_22:
	.loc	2 229 26                        @ lvgl/src/lv_misc/lv_txt.c:229:26
	ldr	r0, [sp, #12]
	.loc	2 229 56                        @ lvgl/src/lv_misc/lv_txt.c:229:56
	adds	r0, #1
	cbnz	r0, .LBB12_25
	b	.LBB12_23
.LBB12_23:
	.loc	2 229 59                        @ lvgl/src/lv_misc/lv_txt.c:229:59
	ldr	r0, [sp, #76]
.Ltmp242:
	.loc	2 229 16                        @ lvgl/src/lv_misc/lv_txt.c:229:16
	cbz	r0, .LBB12_25
	b	.LBB12_24
.LBB12_24:
.Ltmp243:
	.loc	2 229 93                        @ lvgl/src/lv_misc/lv_txt.c:229:93
	ldrsh.w	r0, [sp, #20]
	.loc	2 229 80                        @ lvgl/src/lv_misc/lv_txt.c:229:80
	ldr	r1, [sp, #76]
	.loc	2 229 91                        @ lvgl/src/lv_misc/lv_txt.c:229:91
	str	r0, [r1]
	.loc	2 229 79                        @ lvgl/src/lv_misc/lv_txt.c:229:79
	b	.LBB12_25
.Ltmp244:
.LBB12_25:
	.loc	2 230 21 is_stmt 1              @ lvgl/src/lv_misc/lv_txt.c:230:21
	ldr	r0, [sp, #16]
	subs	r0, #1
	str	r0, [sp, #16]
	.loc	2 231 13                        @ lvgl/src/lv_misc/lv_txt.c:231:13
	b	.LBB12_30
.Ltmp245:
.LBB12_26:                              @   in Loop: Header=BB12_8 Depth=1
	.loc	2 235 12                        @ lvgl/src/lv_misc/lv_txt.c:235:12
	ldr	r0, [sp, #76]
	.loc	2 235 31 is_stmt 0              @ lvgl/src/lv_misc/lv_txt.c:235:31
	cbz	r0, .LBB12_29
	b	.LBB12_27
.LBB12_27:                              @   in Loop: Header=BB12_8 Depth=1
	.loc	2 235 34                        @ lvgl/src/lv_misc/lv_txt.c:235:34
	ldr	r0, [sp, #12]
.Ltmp246:
	.loc	2 235 12                        @ lvgl/src/lv_misc/lv_txt.c:235:12
	adds	r0, #1
	cbnz	r0, .LBB12_29
	b	.LBB12_28
.LBB12_28:                              @   in Loop: Header=BB12_8 Depth=1
.Ltmp247:
	.loc	2 235 79                        @ lvgl/src/lv_misc/lv_txt.c:235:79
	ldrsh.w	r0, [sp, #20]
	.loc	2 235 66                        @ lvgl/src/lv_misc/lv_txt.c:235:66
	ldr	r1, [sp, #76]
	.loc	2 235 77                        @ lvgl/src/lv_misc/lv_txt.c:235:77
	str	r0, [r1]
	.loc	2 235 65                        @ lvgl/src/lv_misc/lv_txt.c:235:65
	b	.LBB12_29
.Ltmp248:
.LBB12_29:                              @   in Loop: Header=BB12_8 Depth=1
	.loc	2 237 13 is_stmt 1              @ lvgl/src/lv_misc/lv_txt.c:237:13
	ldr	r0, [sp, #36]
	.loc	2 237 11 is_stmt 0              @ lvgl/src/lv_misc/lv_txt.c:237:11
	str	r0, [sp, #40]
	.loc	2 238 18 is_stmt 1              @ lvgl/src/lv_misc/lv_txt.c:238:18
	ldr	r0, [sp, #32]
	.loc	2 238 16 is_stmt 0              @ lvgl/src/lv_misc/lv_txt.c:238:16
	str	r0, [sp, #36]
	.loc	2 239 18 is_stmt 1              @ lvgl/src/lv_misc/lv_txt.c:239:18
	ldr	r0, [sp, #24]
	.loc	2 239 16 is_stmt 0              @ lvgl/src/lv_misc/lv_txt.c:239:16
	str	r0, [sp, #28]
.Ltmp249:
	.loc	2 197 5 is_stmt 1               @ lvgl/src/lv_misc/lv_txt.c:197:5
	b	.LBB12_8
.LBB12_30:
.Ltmp250:
	.loc	2 243 8                         @ lvgl/src/lv_misc/lv_txt.c:243:8
	ldr	r0, [sp, #12]
.Ltmp251:
	.loc	2 243 8 is_stmt 0               @ lvgl/src/lv_misc/lv_txt.c:243:8
	adds	r0, #1
	cbnz	r0, .LBB12_36
	b	.LBB12_31
.LBB12_31:
.Ltmp252:
	.loc	2 244 12 is_stmt 1              @ lvgl/src/lv_misc/lv_txt.c:244:12
	ldr	r0, [sp, #16]
	.loc	2 244 26 is_stmt 0              @ lvgl/src/lv_misc/lv_txt.c:244:26
	cbz	r0, .LBB12_34
	b	.LBB12_32
.LBB12_32:
	.loc	2 244 30                        @ lvgl/src/lv_misc/lv_txt.c:244:30
	ldr	r0, [sp, #28]
	.loc	2 244 45                        @ lvgl/src/lv_misc/lv_txt.c:244:45
	cmp	r0, #13
	bne	.LBB12_35
	b	.LBB12_33
.LBB12_33:
	.loc	2 244 48                        @ lvgl/src/lv_misc/lv_txt.c:244:48
	ldr	r0, [sp, #24]
.Ltmp253:
	.loc	2 244 12                        @ lvgl/src/lv_misc/lv_txt.c:244:12
	cmp	r0, #10
	bne	.LBB12_35
	b	.LBB12_34
.LBB12_34:
.Ltmp254:
	.loc	2 244 74                        @ lvgl/src/lv_misc/lv_txt.c:244:74
	ldr	r0, [sp, #36]
	.loc	2 244 72                        @ lvgl/src/lv_misc/lv_txt.c:244:72
	str	r0, [sp, #40]
	.loc	2 244 70                        @ lvgl/src/lv_misc/lv_txt.c:244:70
	b	.LBB12_35
.Ltmp255:
.LBB12_35:
	.loc	2 245 16 is_stmt 1              @ lvgl/src/lv_misc/lv_txt.c:245:16
	ldr	r0, [sp, #40]
	.loc	2 245 9 is_stmt 0               @ lvgl/src/lv_misc/lv_txt.c:245:9
	str	r0, [sp, #60]
	b	.LBB12_41
.Ltmp256:
.LBB12_36:
	.loc	2 276 8 is_stmt 1               @ lvgl/src/lv_misc/lv_txt.c:276:8
	ldrb.w	r0, [sp, #46]
.Ltmp257:
	.loc	2 276 8 is_stmt 0               @ lvgl/src/lv_misc/lv_txt.c:276:8
	lsls	r0, r0, #31
	cbz	r0, .LBB12_38
	b	.LBB12_37
.LBB12_37:
.Ltmp258:
	.loc	2 276 22                        @ lvgl/src/lv_misc/lv_txt.c:276:22
	ldr	r0, [sp, #12]
	.loc	2 276 15                        @ lvgl/src/lv_misc/lv_txt.c:276:15
	str	r0, [sp, #60]
	b	.LBB12_41
.Ltmp259:
.LBB12_38:
	.loc	2 277 8 is_stmt 1               @ lvgl/src/lv_misc/lv_txt.c:277:8
	ldr	r0, [sp, #76]
.Ltmp260:
	.loc	2 277 8 is_stmt 0               @ lvgl/src/lv_misc/lv_txt.c:277:8
	cbz	r0, .LBB12_40
	b	.LBB12_39
.LBB12_39:
.Ltmp261:
	.loc	2 277 29                        @ lvgl/src/lv_misc/lv_txt.c:277:29
	ldr	r1, [sp, #76]
	movs	r0, #0
	.loc	2 277 40                        @ lvgl/src/lv_misc/lv_txt.c:277:40
	str	r0, [r1]
	.loc	2 277 28                        @ lvgl/src/lv_misc/lv_txt.c:277:28
	b	.LBB12_40
.Ltmp262:
.LBB12_40:
	.loc	2 0 28                          @ lvgl/src/lv_misc/lv_txt.c:0:28
	movs	r0, #0
	.loc	2 279 5 is_stmt 1               @ lvgl/src/lv_misc/lv_txt.c:279:5
	str	r0, [sp, #60]
	b	.LBB12_41
.LBB12_41:
	.loc	2 281 1                         @ lvgl/src/lv_misc/lv_txt.c:281:1
	ldr	r0, [sp, #60]
	add	sp, #64
	pop	{r4, pc}
.Ltmp263:
.Lfunc_end12:
	.size	lv_txt_get_next_word, .Lfunc_end12-lv_txt_get_next_word
	.cfi_endproc
	.cantunwind
	.fnend
                                        @ -- End function
	.section	.text._lv_txt_is_cmd,"ax",%progbits
	.hidden	_lv_txt_is_cmd                  @ -- Begin function _lv_txt_is_cmd
	.globl	_lv_txt_is_cmd
	.p2align	3
	.type	_lv_txt_is_cmd,%function
	.code	16                              @ @_lv_txt_is_cmd
	.thumb_func
_lv_txt_is_cmd:
.Lfunc_begin13:
	.loc	2 401 0                         @ lvgl/src/lv_misc/lv_txt.c:401:0
	.fnstart
	.cfi_startproc
@ %bb.0:
	.pad	#12
	sub	sp, #12
	.cfi_def_cfa_offset 12
	str	r0, [sp, #8]
	str	r1, [sp, #4]
	movs	r0, #0
.Ltmp264:
	.loc	2 402 10 prologue_end           @ lvgl/src/lv_misc/lv_txt.c:402:10
	strb.w	r0, [sp, #3]
.Ltmp265:
	.loc	2 404 8                         @ lvgl/src/lv_misc/lv_txt.c:404:8
	ldr	r0, [sp, #4]
	.loc	2 404 23 is_stmt 0              @ lvgl/src/lv_misc/lv_txt.c:404:23
	movw	r1, :lower16:.L.str
	movt	r1, :upper16:.L.str
	ldrsb.w	r1, [r1]
.Ltmp266:
	.loc	2 404 8                         @ lvgl/src/lv_misc/lv_txt.c:404:8
	cmp	r0, r1
	bne	.LBB13_10
	b	.LBB13_1
.LBB13_1:
.Ltmp267:
	.loc	2 405 13 is_stmt 1              @ lvgl/src/lv_misc/lv_txt.c:405:13
	ldr	r0, [sp, #8]
	.loc	2 405 12 is_stmt 0              @ lvgl/src/lv_misc/lv_txt.c:405:12
	ldrb	r0, [r0]
.Ltmp268:
	.loc	2 405 12                        @ lvgl/src/lv_misc/lv_txt.c:405:12
	cbnz	r0, .LBB13_3
	b	.LBB13_2
.LBB13_2:
.Ltmp269:
	.loc	2 406 14 is_stmt 1              @ lvgl/src/lv_misc/lv_txt.c:406:14
	ldr	r1, [sp, #8]
	movs	r0, #1
	.loc	2 406 20 is_stmt 0              @ lvgl/src/lv_misc/lv_txt.c:406:20
	strb	r0, [r1]
	.loc	2 407 20 is_stmt 1              @ lvgl/src/lv_misc/lv_txt.c:407:20
	strb.w	r0, [sp, #3]
	.loc	2 408 9                         @ lvgl/src/lv_misc/lv_txt.c:408:9
	b	.LBB13_9
.Ltmp270:
.LBB13_3:
	.loc	2 410 18                        @ lvgl/src/lv_misc/lv_txt.c:410:18
	ldr	r0, [sp, #8]
	.loc	2 410 17 is_stmt 0              @ lvgl/src/lv_misc/lv_txt.c:410:17
	ldrb	r0, [r0]
.Ltmp271:
	.loc	2 410 17                        @ lvgl/src/lv_misc/lv_txt.c:410:17
	cmp	r0, #1
	bne	.LBB13_5
	b	.LBB13_4
.LBB13_4:
.Ltmp272:
	.loc	2 411 14 is_stmt 1              @ lvgl/src/lv_misc/lv_txt.c:411:14
	ldr	r1, [sp, #8]
	movs	r0, #0
	.loc	2 411 20 is_stmt 0              @ lvgl/src/lv_misc/lv_txt.c:411:20
	strb	r0, [r1]
	.loc	2 412 9 is_stmt 1               @ lvgl/src/lv_misc/lv_txt.c:412:9
	b	.LBB13_8
.Ltmp273:
.LBB13_5:
	.loc	2 414 18                        @ lvgl/src/lv_misc/lv_txt.c:414:18
	ldr	r0, [sp, #8]
	.loc	2 414 17 is_stmt 0              @ lvgl/src/lv_misc/lv_txt.c:414:17
	ldrb	r0, [r0]
.Ltmp274:
	.loc	2 414 17                        @ lvgl/src/lv_misc/lv_txt.c:414:17
	cmp	r0, #2
	bne	.LBB13_7
	b	.LBB13_6
.LBB13_6:
.Ltmp275:
	.loc	2 415 14 is_stmt 1              @ lvgl/src/lv_misc/lv_txt.c:415:14
	ldr	r1, [sp, #8]
	movs	r0, #0
	.loc	2 415 20 is_stmt 0              @ lvgl/src/lv_misc/lv_txt.c:415:20
	strb	r0, [r1]
	movs	r0, #1
	.loc	2 416 20 is_stmt 1              @ lvgl/src/lv_misc/lv_txt.c:416:20
	strb.w	r0, [sp, #3]
	.loc	2 417 9                         @ lvgl/src/lv_misc/lv_txt.c:417:9
	b	.LBB13_7
.Ltmp276:
.LBB13_7:
	.loc	2 0 9 is_stmt 0                 @ lvgl/src/lv_misc/lv_txt.c:0:9
	b	.LBB13_8
.LBB13_8:
	b	.LBB13_9
.LBB13_9:
	.loc	2 418 5 is_stmt 1               @ lvgl/src/lv_misc/lv_txt.c:418:5
	b	.LBB13_10
.Ltmp277:
.LBB13_10:
	.loc	2 421 9                         @ lvgl/src/lv_misc/lv_txt.c:421:9
	ldr	r0, [sp, #8]
	.loc	2 421 8 is_stmt 0               @ lvgl/src/lv_misc/lv_txt.c:421:8
	ldrb	r0, [r0]
.Ltmp278:
	.loc	2 421 8                         @ lvgl/src/lv_misc/lv_txt.c:421:8
	cmp	r0, #1
	bne	.LBB13_14
	b	.LBB13_11
.LBB13_11:
.Ltmp279:
	.loc	2 422 12 is_stmt 1              @ lvgl/src/lv_misc/lv_txt.c:422:12
	ldr	r0, [sp, #4]
.Ltmp280:
	.loc	2 422 12 is_stmt 0              @ lvgl/src/lv_misc/lv_txt.c:422:12
	cmp	r0, #32
	bne	.LBB13_13
	b	.LBB13_12
.LBB13_12:
.Ltmp281:
	.loc	2 423 14 is_stmt 1              @ lvgl/src/lv_misc/lv_txt.c:423:14
	ldr	r1, [sp, #8]
	movs	r0, #2
	.loc	2 423 20 is_stmt 0              @ lvgl/src/lv_misc/lv_txt.c:423:20
	strb	r0, [r1]
	.loc	2 424 9 is_stmt 1               @ lvgl/src/lv_misc/lv_txt.c:424:9
	b	.LBB13_13
.Ltmp282:
.LBB13_13:
	.loc	2 0 9 is_stmt 0                 @ lvgl/src/lv_misc/lv_txt.c:0:9
	movs	r0, #1
	.loc	2 425 13 is_stmt 1              @ lvgl/src/lv_misc/lv_txt.c:425:13
	strb.w	r0, [sp, #3]
	.loc	2 426 5                         @ lvgl/src/lv_misc/lv_txt.c:426:5
	b	.LBB13_14
.Ltmp283:
.LBB13_14:
	.loc	2 428 5                         @ lvgl/src/lv_misc/lv_txt.c:428:5
	ldrb.w	r0, [sp, #3]
	and	r0, r0, #1
	add	sp, #12
	bx	lr
.Ltmp284:
.Lfunc_end13:
	.size	_lv_txt_is_cmd, .Lfunc_end13-_lv_txt_is_cmd
	.cfi_endproc
	.cantunwind
	.fnend
                                        @ -- End function
	.section	.text._lv_txt_ins,"ax",%progbits
	.hidden	_lv_txt_ins                     @ -- Begin function _lv_txt_ins
	.globl	_lv_txt_ins
	.p2align	3
	.type	_lv_txt_ins,%function
	.code	16                              @ @_lv_txt_ins
	.thumb_func
_lv_txt_ins:
.Lfunc_begin14:
	.loc	2 439 0                         @ lvgl/src/lv_misc/lv_txt.c:439:0
	.fnstart
	.cfi_startproc
@ %bb.0:
	.save	{r7, lr}
	push	{r7, lr}
	.cfi_def_cfa_offset 8
	.cfi_offset lr, -4
	.cfi_offset r7, -8
	.pad	#32
	sub	sp, #32
	.cfi_def_cfa_offset 40
	str	r0, [sp, #28]
	str	r1, [sp, #24]
	str	r2, [sp, #20]
.Ltmp285:
	.loc	2 440 29 prologue_end           @ lvgl/src/lv_misc/lv_txt.c:440:29
	ldr	r0, [sp, #28]
	.loc	2 440 22 is_stmt 0              @ lvgl/src/lv_misc/lv_txt.c:440:22
	bl	strlen
	.loc	2 440 12                        @ lvgl/src/lv_misc/lv_txt.c:440:12
	str	r0, [sp, #16]
	.loc	2 441 29 is_stmt 1              @ lvgl/src/lv_misc/lv_txt.c:441:29
	ldr	r0, [sp, #20]
	.loc	2 441 22 is_stmt 0              @ lvgl/src/lv_misc/lv_txt.c:441:22
	bl	strlen
	.loc	2 441 12                        @ lvgl/src/lv_misc/lv_txt.c:441:12
	str	r0, [sp, #12]
.Ltmp286:
	.loc	2 442 8 is_stmt 1               @ lvgl/src/lv_misc/lv_txt.c:442:8
	ldr	r0, [sp, #12]
.Ltmp287:
	.loc	2 442 8 is_stmt 0               @ lvgl/src/lv_misc/lv_txt.c:442:8
	cbnz	r0, .LBB14_2
	b	.LBB14_1
.LBB14_1:
.Ltmp288:
	.loc	2 442 22                        @ lvgl/src/lv_misc/lv_txt.c:442:22
	b	.LBB14_7
.Ltmp289:
.LBB14_2:
	.loc	2 444 22 is_stmt 1              @ lvgl/src/lv_misc/lv_txt.c:444:22
	ldr	r0, [sp, #12]
	.loc	2 444 32 is_stmt 0              @ lvgl/src/lv_misc/lv_txt.c:444:32
	ldr	r1, [sp, #16]
	.loc	2 444 30                        @ lvgl/src/lv_misc/lv_txt.c:444:30
	add	r0, r1
	.loc	2 444 12                        @ lvgl/src/lv_misc/lv_txt.c:444:12
	str	r0, [sp, #8]
	.loc	2 445 24 is_stmt 1              @ lvgl/src/lv_misc/lv_txt.c:445:24
	movw	r0, :lower16:_lv_txt_encoded_get_byte_id
	movt	r0, :upper16:_lv_txt_encoded_get_byte_id
	ldr	r2, [r0]
	.loc	2 445 52 is_stmt 0              @ lvgl/src/lv_misc/lv_txt.c:445:52
	ldr	r0, [sp, #28]
	.loc	2 445 61                        @ lvgl/src/lv_misc/lv_txt.c:445:61
	ldr	r1, [sp, #24]
	.loc	2 445 24                        @ lvgl/src/lv_misc/lv_txt.c:445:24
	blx	r2
	.loc	2 445 22                        @ lvgl/src/lv_misc/lv_txt.c:445:22
	str	r0, [sp, #24]
.Ltmp290:
	.loc	2 449 13 is_stmt 1              @ lvgl/src/lv_misc/lv_txt.c:449:13
	ldr	r0, [sp, #8]
	.loc	2 449 11 is_stmt 0              @ lvgl/src/lv_misc/lv_txt.c:449:11
	str	r0, [sp, #4]
	.loc	2 449 9                         @ lvgl/src/lv_misc/lv_txt.c:449:9
	b	.LBB14_3
.LBB14_3:                               @ =>This Inner Loop Header: Depth=1
.Ltmp291:
	.loc	2 449 22                        @ lvgl/src/lv_misc/lv_txt.c:449:22
	ldr	r0, [sp, #4]
	.loc	2 449 27                        @ lvgl/src/lv_misc/lv_txt.c:449:27
	ldr	r1, [sp, #24]
	.loc	2 449 33                        @ lvgl/src/lv_misc/lv_txt.c:449:33
	ldr	r2, [sp, #12]
	.loc	2 449 31                        @ lvgl/src/lv_misc/lv_txt.c:449:31
	add	r1, r2
.Ltmp292:
	.loc	2 449 5                         @ lvgl/src/lv_misc/lv_txt.c:449:5
	cmp	r0, r1
	blo	.LBB14_6
	b	.LBB14_4
.LBB14_4:                               @   in Loop: Header=BB14_3 Depth=1
.Ltmp293:
	.loc	2 450 22 is_stmt 1              @ lvgl/src/lv_misc/lv_txt.c:450:22
	ldr	r1, [sp, #28]
	.loc	2 450 30 is_stmt 0              @ lvgl/src/lv_misc/lv_txt.c:450:30
	ldr	r2, [sp, #4]
	.loc	2 450 34                        @ lvgl/src/lv_misc/lv_txt.c:450:34
	ldr	r0, [sp, #12]
	.loc	2 450 32                        @ lvgl/src/lv_misc/lv_txt.c:450:32
	subs	r0, r2, r0
	.loc	2 450 22                        @ lvgl/src/lv_misc/lv_txt.c:450:22
	ldrb	r0, [r1, r0]
	.loc	2 450 20                        @ lvgl/src/lv_misc/lv_txt.c:450:20
	strb	r0, [r1, r2]
	.loc	2 451 5 is_stmt 1               @ lvgl/src/lv_misc/lv_txt.c:451:5
	b	.LBB14_5
.Ltmp294:
.LBB14_5:                               @   in Loop: Header=BB14_3 Depth=1
	.loc	2 449 43                        @ lvgl/src/lv_misc/lv_txt.c:449:43
	ldr	r0, [sp, #4]
	subs	r0, #1
	str	r0, [sp, #4]
	.loc	2 449 5 is_stmt 0               @ lvgl/src/lv_misc/lv_txt.c:449:5
	b	.LBB14_3
.Ltmp295:
.LBB14_6:
	.loc	2 454 22 is_stmt 1              @ lvgl/src/lv_misc/lv_txt.c:454:22
	ldr	r0, [sp, #28]
	.loc	2 454 32 is_stmt 0              @ lvgl/src/lv_misc/lv_txt.c:454:32
	ldr	r1, [sp, #24]
	.loc	2 454 30                        @ lvgl/src/lv_misc/lv_txt.c:454:30
	add	r0, r1
	.loc	2 454 37                        @ lvgl/src/lv_misc/lv_txt.c:454:37
	ldr	r1, [sp, #20]
	.loc	2 454 46                        @ lvgl/src/lv_misc/lv_txt.c:454:46
	ldr	r2, [sp, #12]
	.loc	2 454 5                         @ lvgl/src/lv_misc/lv_txt.c:454:5
	bl	_lv_memcpy_small
	.loc	2 455 1 is_stmt 1               @ lvgl/src/lv_misc/lv_txt.c:455:1
	b	.LBB14_7
.LBB14_7:
	add	sp, #32
	pop	{r7, pc}
.Ltmp296:
.Lfunc_end14:
	.size	_lv_txt_ins, .Lfunc_end14-_lv_txt_ins
	.cfi_endproc
	.cantunwind
	.fnend
                                        @ -- End function
	.section	.text._lv_memcpy_small,"ax",%progbits
	.p2align	3                               @ -- Begin function _lv_memcpy_small
	.type	_lv_memcpy_small,%function
	.code	16                              @ @_lv_memcpy_small
	.thumb_func
_lv_memcpy_small:
.Lfunc_begin15:
	.file	6 "E:\\Smart-access-control\\Hardware\\CODE" "lvgl/src/lv_misc/lv_mem.h"
	.loc	6 214 0                         @ lvgl/src/lv_misc/lv_mem.h:214:0
	.fnstart
	.cfi_startproc
@ %bb.0:
	.pad	#20
	sub	sp, #20
	.cfi_def_cfa_offset 20
	str	r0, [sp, #16]
	str	r1, [sp, #12]
	str	r2, [sp, #8]
.Ltmp297:
	.loc	6 215 31 prologue_end           @ lvgl/src/lv_misc/lv_mem.h:215:31
	ldr	r0, [sp, #16]
	.loc	6 215 15 is_stmt 0              @ lvgl/src/lv_misc/lv_mem.h:215:15
	str	r0, [sp, #4]
	.loc	6 216 43 is_stmt 1              @ lvgl/src/lv_misc/lv_mem.h:216:43
	ldr	r0, [sp, #12]
	.loc	6 216 21 is_stmt 0              @ lvgl/src/lv_misc/lv_mem.h:216:21
	str	r0, [sp]
	.loc	6 218 5 is_stmt 1               @ lvgl/src/lv_misc/lv_mem.h:218:5
	b	.LBB15_1
.LBB15_1:                               @ =>This Inner Loop Header: Depth=1
	.loc	6 218 11 is_stmt 0              @ lvgl/src/lv_misc/lv_mem.h:218:11
	ldr	r0, [sp, #8]
	.loc	6 218 5                         @ lvgl/src/lv_misc/lv_mem.h:218:5
	cbz	r0, .LBB15_3
	b	.LBB15_2
.LBB15_2:                               @   in Loop: Header=BB15_1 Depth=1
.Ltmp298:
	.loc	6 219 16 is_stmt 1              @ lvgl/src/lv_misc/lv_mem.h:219:16
	ldr	r0, [sp]
	.loc	6 219 15 is_stmt 0              @ lvgl/src/lv_misc/lv_mem.h:219:15
	ldrb	r0, [r0]
	.loc	6 219 10                        @ lvgl/src/lv_misc/lv_mem.h:219:10
	ldr	r1, [sp, #4]
	.loc	6 219 13                        @ lvgl/src/lv_misc/lv_mem.h:219:13
	strb	r0, [r1]
	.loc	6 220 11 is_stmt 1              @ lvgl/src/lv_misc/lv_mem.h:220:11
	ldr	r0, [sp, #4]
	adds	r0, #1
	str	r0, [sp, #4]
	.loc	6 221 11                        @ lvgl/src/lv_misc/lv_mem.h:221:11
	ldr	r0, [sp]
	adds	r0, #1
	str	r0, [sp]
	.loc	6 222 12                        @ lvgl/src/lv_misc/lv_mem.h:222:12
	ldr	r0, [sp, #8]
	subs	r0, #1
	str	r0, [sp, #8]
.Ltmp299:
	.loc	6 218 5                         @ lvgl/src/lv_misc/lv_mem.h:218:5
	b	.LBB15_1
.LBB15_3:
	.loc	6 225 12                        @ lvgl/src/lv_misc/lv_mem.h:225:12
	ldr	r0, [sp, #16]
	.loc	6 225 5 is_stmt 0               @ lvgl/src/lv_misc/lv_mem.h:225:5
	add	sp, #20
	bx	lr
.Ltmp300:
.Lfunc_end15:
	.size	_lv_memcpy_small, .Lfunc_end15-_lv_memcpy_small
	.cfi_endproc
	.cantunwind
	.fnend
                                        @ -- End function
	.section	.text._lv_txt_cut,"ax",%progbits
	.hidden	_lv_txt_cut                     @ -- Begin function _lv_txt_cut
	.globl	_lv_txt_cut
	.p2align	3
	.type	_lv_txt_cut,%function
	.code	16                              @ @_lv_txt_cut
	.thumb_func
_lv_txt_cut:
.Lfunc_begin16:
	.loc	2 465 0 is_stmt 1               @ lvgl/src/lv_misc/lv_txt.c:465:0
	.fnstart
	.cfi_startproc
@ %bb.0:
	.save	{r7, lr}
	push	{r7, lr}
	.cfi_def_cfa_offset 8
	.cfi_offset lr, -4
	.cfi_offset r7, -8
	.pad	#24
	sub	sp, #24
	.cfi_def_cfa_offset 32
	str	r0, [sp, #20]
	str	r1, [sp, #16]
	str	r2, [sp, #12]
.Ltmp301:
	.loc	2 467 29 prologue_end           @ lvgl/src/lv_misc/lv_txt.c:467:29
	ldr	r0, [sp, #20]
	.loc	2 467 22 is_stmt 0              @ lvgl/src/lv_misc/lv_txt.c:467:22
	bl	strlen
	.loc	2 467 12                        @ lvgl/src/lv_misc/lv_txt.c:467:12
	str	r0, [sp, #8]
	.loc	2 469 11 is_stmt 1              @ lvgl/src/lv_misc/lv_txt.c:469:11
	movw	r0, :lower16:_lv_txt_encoded_get_byte_id
	movt	r0, :upper16:_lv_txt_encoded_get_byte_id
	str	r0, [sp]                        @ 4-byte Spill
	ldr	r2, [r0]
	.loc	2 469 39 is_stmt 0              @ lvgl/src/lv_misc/lv_txt.c:469:39
	ldr	r0, [sp, #20]
	.loc	2 469 44                        @ lvgl/src/lv_misc/lv_txt.c:469:44
	ldr	r1, [sp, #16]
	.loc	2 469 11                        @ lvgl/src/lv_misc/lv_txt.c:469:11
	blx	r2
	mov	r1, r0
	.loc	2 469 9                         @ lvgl/src/lv_misc/lv_txt.c:469:9
	ldr	r0, [sp]                        @ 4-byte Reload
	str	r1, [sp, #16]
	.loc	2 470 11 is_stmt 1              @ lvgl/src/lv_misc/lv_txt.c:470:11
	ldr	r2, [r0]
	.loc	2 470 40 is_stmt 0              @ lvgl/src/lv_misc/lv_txt.c:470:40
	ldr	r0, [sp, #20]
	.loc	2 470 44                        @ lvgl/src/lv_misc/lv_txt.c:470:44
	ldr	r1, [sp, #16]
	.loc	2 470 40                        @ lvgl/src/lv_misc/lv_txt.c:470:40
	add	r0, r1
	.loc	2 470 50                        @ lvgl/src/lv_misc/lv_txt.c:470:50
	ldr	r1, [sp, #12]
	.loc	2 470 11                        @ lvgl/src/lv_misc/lv_txt.c:470:11
	blx	r2
	.loc	2 470 9                         @ lvgl/src/lv_misc/lv_txt.c:470:9
	str	r0, [sp, #12]
.Ltmp302:
	.loc	2 474 13 is_stmt 1              @ lvgl/src/lv_misc/lv_txt.c:474:13
	ldr	r0, [sp, #16]
	.loc	2 474 11 is_stmt 0              @ lvgl/src/lv_misc/lv_txt.c:474:11
	str	r0, [sp, #4]
	.loc	2 474 9                         @ lvgl/src/lv_misc/lv_txt.c:474:9
	b	.LBB16_1
.LBB16_1:                               @ =>This Inner Loop Header: Depth=1
.Ltmp303:
	.loc	2 474 18                        @ lvgl/src/lv_misc/lv_txt.c:474:18
	ldr	r0, [sp, #4]
	.loc	2 474 23                        @ lvgl/src/lv_misc/lv_txt.c:474:23
	ldr	r1, [sp, #8]
	.loc	2 474 33                        @ lvgl/src/lv_misc/lv_txt.c:474:33
	ldr	r2, [sp, #12]
	.loc	2 474 31                        @ lvgl/src/lv_misc/lv_txt.c:474:31
	subs	r1, r1, r2
.Ltmp304:
	.loc	2 474 5                         @ lvgl/src/lv_misc/lv_txt.c:474:5
	cmp	r0, r1
	bhi	.LBB16_4
	b	.LBB16_2
.LBB16_2:                               @   in Loop: Header=BB16_1 Depth=1
.Ltmp305:
	.loc	2 475 18 is_stmt 1              @ lvgl/src/lv_misc/lv_txt.c:475:18
	ldr	r1, [sp, #20]
	.loc	2 475 22 is_stmt 0              @ lvgl/src/lv_misc/lv_txt.c:475:22
	ldr	r2, [sp, #4]
	.loc	2 475 26                        @ lvgl/src/lv_misc/lv_txt.c:475:26
	ldr	r0, [sp, #12]
	.loc	2 475 24                        @ lvgl/src/lv_misc/lv_txt.c:475:24
	add	r0, r2
	.loc	2 475 18                        @ lvgl/src/lv_misc/lv_txt.c:475:18
	ldrb	r0, [r1, r0]
	.loc	2 475 16                        @ lvgl/src/lv_misc/lv_txt.c:475:16
	strb	r0, [r1, r2]
	.loc	2 476 5 is_stmt 1               @ lvgl/src/lv_misc/lv_txt.c:476:5
	b	.LBB16_3
.Ltmp306:
.LBB16_3:                               @   in Loop: Header=BB16_1 Depth=1
	.loc	2 474 39                        @ lvgl/src/lv_misc/lv_txt.c:474:39
	ldr	r0, [sp, #4]
	adds	r0, #1
	str	r0, [sp, #4]
	.loc	2 474 5 is_stmt 0               @ lvgl/src/lv_misc/lv_txt.c:474:5
	b	.LBB16_1
.Ltmp307:
.LBB16_4:
	.loc	2 477 1 is_stmt 1               @ lvgl/src/lv_misc/lv_txt.c:477:1
	add	sp, #24
	pop	{r7, pc}
.Ltmp308:
.Lfunc_end16:
	.size	_lv_txt_cut, .Lfunc_end16-_lv_txt_cut
	.cfi_endproc
	.cantunwind
	.fnend
                                        @ -- End function
	.section	.text._lv_txt_set_text_vfmt,"ax",%progbits
	.hidden	_lv_txt_set_text_vfmt           @ -- Begin function _lv_txt_set_text_vfmt
	.globl	_lv_txt_set_text_vfmt
	.p2align	3
	.type	_lv_txt_set_text_vfmt,%function
	.code	16                              @ @_lv_txt_set_text_vfmt
	.thumb_func
_lv_txt_set_text_vfmt:
.Lfunc_begin17:
	.loc	2 485 0                         @ lvgl/src/lv_misc/lv_txt.c:485:0
	.fnstart
	.cfi_startproc
@ %bb.0:
	.save	{r7, lr}
	push	{r7, lr}
	.cfi_def_cfa_offset 8
	.cfi_offset lr, -4
	.cfi_offset r7, -8
	.pad	#32
	sub	sp, #32
	.cfi_def_cfa_offset 40
	str	r1, [sp, #24]
	str	r0, [sp, #20]
.Ltmp309:
	.loc	2 488 5 prologue_end            @ lvgl/src/lv_misc/lv_txt.c:488:5
	ldr	r0, [sp, #24]
	str	r0, [sp, #16]
	.loc	2 489 42                        @ lvgl/src/lv_misc/lv_txt.c:489:42
	ldr	r2, [sp, #20]
	.loc	2 489 20 is_stmt 0              @ lvgl/src/lv_misc/lv_txt.c:489:20
	ldr	r3, [sp, #16]
	movs	r1, #0
	str	r1, [sp, #4]                    @ 4-byte Spill
	mov	r0, r1
	bl	rt_vsnprintf
	mov	r1, r0
	.loc	2 489 14                        @ lvgl/src/lv_misc/lv_txt.c:489:14
	ldr	r0, [sp, #4]                    @ 4-byte Reload
	str	r1, [sp, #12]
	.loc	2 492 12 is_stmt 1              @ lvgl/src/lv_misc/lv_txt.c:492:12
	str	r0, [sp, #8]
	.loc	2 514 25                        @ lvgl/src/lv_misc/lv_txt.c:514:25
	ldr	r0, [sp, #12]
	.loc	2 514 29 is_stmt 0              @ lvgl/src/lv_misc/lv_txt.c:514:29
	adds	r0, #1
	.loc	2 514 12                        @ lvgl/src/lv_misc/lv_txt.c:514:12
	bl	lv_mem_alloc
	.loc	2 514 10                        @ lvgl/src/lv_misc/lv_txt.c:514:10
	str	r0, [sp, #8]
	.loc	2 515 5 is_stmt 1               @ lvgl/src/lv_misc/lv_txt.c:515:5
	b	.LBB17_1
.LBB17_1:
.Ltmp310:
	.loc	2 515 5 is_stmt 0               @ lvgl/src/lv_misc/lv_txt.c:515:5
	ldr	r0, [sp, #8]
	bl	lv_debug_check_null
.Ltmp311:
	.loc	2 515 5                         @ lvgl/src/lv_misc/lv_txt.c:515:5
	cbnz	r0, .LBB17_4
	b	.LBB17_2
.LBB17_2:
.Ltmp312:
	.loc	2 515 5                         @ lvgl/src/lv_misc/lv_txt.c:515:5
	ldr	r2, [sp, #8]
	movw	r0, :lower16:.L.str.1
	movt	r0, :upper16:.L.str.1
	movs	r3, #0
	bl	lv_debug_log_error
	b	.LBB17_3
.LBB17_3:                               @ =>This Inner Loop Header: Depth=1
	b	.LBB17_3
.Ltmp313:
.LBB17_4:
	.loc	2 515 5                         @ lvgl/src/lv_misc/lv_txt.c:515:5
	b	.LBB17_5
.Ltmp314:
.LBB17_5:
	.loc	2 516 8 is_stmt 1               @ lvgl/src/lv_misc/lv_txt.c:516:8
	ldr	r0, [sp, #8]
.Ltmp315:
	.loc	2 516 8 is_stmt 0               @ lvgl/src/lv_misc/lv_txt.c:516:8
	cbnz	r0, .LBB17_7
	b	.LBB17_6
.LBB17_6:
	.loc	2 0 8                           @ lvgl/src/lv_misc/lv_txt.c:0:8
	movs	r0, #0
.Ltmp316:
	.loc	2 517 9 is_stmt 1               @ lvgl/src/lv_misc/lv_txt.c:517:9
	str	r0, [sp, #28]
	b	.LBB17_8
.Ltmp317:
.LBB17_7:
	.loc	2 519 5                         @ lvgl/src/lv_misc/lv_txt.c:519:5
	ldr	r1, [sp, #8]
	.loc	2 519 10 is_stmt 0              @ lvgl/src/lv_misc/lv_txt.c:519:10
	ldr	r2, [sp, #12]
	movs	r0, #0
	.loc	2 519 15                        @ lvgl/src/lv_misc/lv_txt.c:519:15
	strb	r0, [r1, r2]
	.loc	2 521 18 is_stmt 1              @ lvgl/src/lv_misc/lv_txt.c:521:18
	ldr	r0, [sp, #8]
	.loc	2 521 24 is_stmt 0              @ lvgl/src/lv_misc/lv_txt.c:521:24
	ldr	r1, [sp, #12]
	.loc	2 521 28                        @ lvgl/src/lv_misc/lv_txt.c:521:28
	adds	r1, #1
	.loc	2 521 33                        @ lvgl/src/lv_misc/lv_txt.c:521:33
	ldr	r2, [sp, #20]
	.loc	2 521 5                         @ lvgl/src/lv_misc/lv_txt.c:521:5
	ldr	r3, [sp, #24]
	bl	rt_vsnprintf
	.loc	2 524 12 is_stmt 1              @ lvgl/src/lv_misc/lv_txt.c:524:12
	ldr	r0, [sp, #8]
	.loc	2 524 5 is_stmt 0               @ lvgl/src/lv_misc/lv_txt.c:524:5
	str	r0, [sp, #28]
	b	.LBB17_8
.LBB17_8:
	.loc	2 525 1 is_stmt 1               @ lvgl/src/lv_misc/lv_txt.c:525:1
	ldr	r0, [sp, #28]
	add	sp, #32
	pop	{r7, pc}
.Ltmp318:
.Lfunc_end17:
	.size	_lv_txt_set_text_vfmt, .Lfunc_end17-_lv_txt_set_text_vfmt
	.cfi_endproc
	.cantunwind
	.fnend
                                        @ -- End function
	.section	.text.is_break_char,"ax",%progbits
	.p2align	3                               @ -- Begin function is_break_char
	.type	is_break_char,%function
	.code	16                              @ @is_break_char
	.thumb_func
is_break_char:
.Lfunc_begin18:
	.loc	2 899 0                         @ lvgl/src/lv_misc/lv_txt.c:899:0
	.fnstart
	.cfi_startproc
@ %bb.0:
	.pad	#8
	sub	sp, #8
	.cfi_def_cfa_offset 8
	str	r0, [sp, #4]
	movs	r0, #0
.Ltmp319:
	.loc	2 901 10 prologue_end           @ lvgl/src/lv_misc/lv_txt.c:901:10
	strb.w	r0, [sp, #2]
.Ltmp320:
	.loc	2 904 11                        @ lvgl/src/lv_misc/lv_txt.c:904:11
	strb.w	r0, [sp, #3]
	.loc	2 904 9 is_stmt 0               @ lvgl/src/lv_misc/lv_txt.c:904:9
	b	.LBB18_1
.LBB18_1:                               @ =>This Inner Loop Header: Depth=1
.Ltmp321:
	.loc	2 904 35                        @ lvgl/src/lv_misc/lv_txt.c:904:35
	ldrb.w	r1, [sp, #3]
	.loc	2 904 16                        @ lvgl/src/lv_misc/lv_txt.c:904:16
	movw	r0, :lower16:.L.str.2
	movt	r0, :upper16:.L.str.2
	ldrsb	r0, [r0, r1]
.Ltmp322:
	.loc	2 904 5                         @ lvgl/src/lv_misc/lv_txt.c:904:5
	cbz	r0, .LBB18_6
	b	.LBB18_2
.LBB18_2:                               @   in Loop: Header=BB18_1 Depth=1
.Ltmp323:
	.loc	2 905 12 is_stmt 1              @ lvgl/src/lv_misc/lv_txt.c:905:12
	ldr	r0, [sp, #4]
	.loc	2 905 51 is_stmt 0              @ lvgl/src/lv_misc/lv_txt.c:905:51
	ldrb.w	r2, [sp, #3]
	.loc	2 905 32                        @ lvgl/src/lv_misc/lv_txt.c:905:32
	movw	r1, :lower16:.L.str.2
	movt	r1, :upper16:.L.str.2
	ldrsb	r1, [r1, r2]
.Ltmp324:
	.loc	2 905 12                        @ lvgl/src/lv_misc/lv_txt.c:905:12
	cmp	r0, r1
	bne	.LBB18_4
	b	.LBB18_3
.LBB18_3:
	.loc	2 0 12                          @ lvgl/src/lv_misc/lv_txt.c:0:12
	movs	r0, #1
.Ltmp325:
	.loc	2 906 17 is_stmt 1              @ lvgl/src/lv_misc/lv_txt.c:906:17
	strb.w	r0, [sp, #2]
	.loc	2 907 13                        @ lvgl/src/lv_misc/lv_txt.c:907:13
	b	.LBB18_6
.Ltmp326:
.LBB18_4:                               @   in Loop: Header=BB18_1 Depth=1
	.loc	2 909 5                         @ lvgl/src/lv_misc/lv_txt.c:909:5
	b	.LBB18_5
.Ltmp327:
.LBB18_5:                               @   in Loop: Header=BB18_1 Depth=1
	.loc	2 904 48                        @ lvgl/src/lv_misc/lv_txt.c:904:48
	ldrb.w	r0, [sp, #3]
	adds	r0, #1
	strb.w	r0, [sp, #3]
	.loc	2 904 5 is_stmt 0               @ lvgl/src/lv_misc/lv_txt.c:904:5
	b	.LBB18_1
.Ltmp328:
.LBB18_6:
	.loc	2 911 5 is_stmt 1               @ lvgl/src/lv_misc/lv_txt.c:911:5
	ldrb.w	r0, [sp, #2]
	and	r0, r0, #1
	add	sp, #8
	bx	lr
.Ltmp329:
.Lfunc_end18:
	.size	is_break_char, .Lfunc_end18-is_break_char
	.cfi_endproc
	.cantunwind
	.fnend
                                        @ -- End function
	.hidden	_lv_txt_encoded_size            @ @_lv_txt_encoded_size
	.type	_lv_txt_encoded_size,%object
	.section	.data._lv_txt_encoded_size,"aw",%progbits
	.globl	_lv_txt_encoded_size
	.p2align	2
_lv_txt_encoded_size:
	.long	lv_txt_utf8_size
	.size	_lv_txt_encoded_size, 4

	.hidden	_lv_txt_unicode_to_encoded      @ @_lv_txt_unicode_to_encoded
	.type	_lv_txt_unicode_to_encoded,%object
	.section	.data._lv_txt_unicode_to_encoded,"aw",%progbits
	.globl	_lv_txt_unicode_to_encoded
	.p2align	2
_lv_txt_unicode_to_encoded:
	.long	lv_txt_unicode_to_utf8
	.size	_lv_txt_unicode_to_encoded, 4

	.hidden	_lv_txt_encoded_conv_wc         @ @_lv_txt_encoded_conv_wc
	.type	_lv_txt_encoded_conv_wc,%object
	.section	.data._lv_txt_encoded_conv_wc,"aw",%progbits
	.globl	_lv_txt_encoded_conv_wc
	.p2align	2
_lv_txt_encoded_conv_wc:
	.long	lv_txt_utf8_conv_wc
	.size	_lv_txt_encoded_conv_wc, 4

	.hidden	_lv_txt_encoded_next            @ @_lv_txt_encoded_next
	.type	_lv_txt_encoded_next,%object
	.section	.data._lv_txt_encoded_next,"aw",%progbits
	.globl	_lv_txt_encoded_next
	.p2align	2
_lv_txt_encoded_next:
	.long	lv_txt_utf8_next
	.size	_lv_txt_encoded_next, 4

	.hidden	_lv_txt_encoded_prev            @ @_lv_txt_encoded_prev
	.type	_lv_txt_encoded_prev,%object
	.section	.data._lv_txt_encoded_prev,"aw",%progbits
	.globl	_lv_txt_encoded_prev
	.p2align	2
_lv_txt_encoded_prev:
	.long	lv_txt_utf8_prev
	.size	_lv_txt_encoded_prev, 4

	.hidden	_lv_txt_encoded_get_byte_id     @ @_lv_txt_encoded_get_byte_id
	.type	_lv_txt_encoded_get_byte_id,%object
	.section	.data._lv_txt_encoded_get_byte_id,"aw",%progbits
	.globl	_lv_txt_encoded_get_byte_id
	.p2align	2
_lv_txt_encoded_get_byte_id:
	.long	lv_txt_utf8_get_byte_id
	.size	_lv_txt_encoded_get_byte_id, 4

	.hidden	_lv_txt_encoded_get_char_id     @ @_lv_txt_encoded_get_char_id
	.type	_lv_txt_encoded_get_char_id,%object
	.section	.data._lv_txt_encoded_get_char_id,"aw",%progbits
	.globl	_lv_txt_encoded_get_char_id
	.p2align	2
_lv_txt_encoded_get_char_id:
	.long	lv_txt_utf8_get_char_id
	.size	_lv_txt_encoded_get_char_id, 4

	.hidden	_lv_txt_get_encoded_length      @ @_lv_txt_get_encoded_length
	.type	_lv_txt_get_encoded_length,%object
	.section	.data._lv_txt_get_encoded_length,"aw",%progbits
	.globl	_lv_txt_get_encoded_length
	.p2align	2
_lv_txt_get_encoded_length:
	.long	lv_txt_utf8_get_length
	.size	_lv_txt_get_encoded_length, 4

	.type	.L.str,%object                  @ @.str
	.section	.rodata.str1.1,"aMS",%progbits,1
.L.str:
	.asciz	"#"
	.size	.L.str, 2

	.type	.L.str.1,%object                @ @.str.1
.L.str.1:
	.asciz	"Out of memory"
	.size	.L.str.1, 14

	.type	.L.str.2,%object                @ @.str.2
.L.str.2:
	.asciz	" ,.;:-_"
	.size	.L.str.2, 8

	.file	7 "E:\\Smart-access-control\\Hardware\\CODE" "lvgl/src/lv_misc/../lv_draw/../lv_misc/lv_area.h"
	.file	8 "D:\\Keil_v5\\ARM\\ARMCLANG\\Bin\\..\\include" "string.h"
	.file	9 "E:\\Smart-access-control\\Hardware\\CODE" "lvgl/src/lv_misc\\lv_txt.c"
	.file	10 "D:\\Keil_v5\\ARM\\ARMCLANG\\Bin\\..\\include" "stdarg.h"
	.section	".note.GNU-stack","",%progbits
	.eabi_attribute	30, 6	@ Tag_ABI_optimization_goals
	.ARM_attribute	16, 1	@ Tag_AV_eba