	.text
	.syntax unified
	.eabi_attribute	67, "2.09"	@ Tag_conformance
	.cpu	cortex-m7
	.eabi_attribute	6, 13	@ Tag_CPU_arch
	.eabi_attribute	7, 77	@ Tag_CPU_arch_profile
	.eabi_attribute	8, 0	@ Tag_ARM_ISA_use
	.eabi_attribute	9, 2	@ Tag_THUMB_ISA_use
	.fpu	fpv5-d16
	.eabi_attribute	36, 1	@ Tag_FP_HP_extension
	.eabi_attribute	34, 1	@ Tag_CPU_unaligned_access
	.eabi_attribute	17, 1	@ Tag_ABI_PCS_GOT_use
	.eabi_attribute	20, 2	@ Tag_ABI_FP_denormal
	.eabi_attribute	21, 0	@ Tag_ABI_FP_exceptions
	.eabi_attribute	23, 1	@ Tag_ABI_FP_number_model
	.eabi_attribute	24, 1	@ Tag_ABI_align_needed
	.eabi_attribute	25, 1	@ Tag_ABI_align_preserved
	.eabi_attribute	28, 1	@ Tag_ABI_VFP_args
	.eabi_attribute	38, 1	@ Tag_ABI_FP_16bit_format
	.eabi_attribute	18, 2	@ Tag_ABI_PCS_wchar_t
	.eabi_attribute	26, 1	@ Tag_ABI_enum_size
	.eabi_attribute	14, 0	@ Tag_ABI_PCS_R9_use
	.file	"lv_task.c"
	.file	1 "E:\\Smart-access-control\\Hardware\\CODE" "lvgl/src/lv_misc/lv_task.c"
	.file	2 "D:\\Keil_v5\\ARM\\ARMCLANG\\Bin\\..\\include" "stdint.h"
	.file	3 "E:\\Smart-access-control\\Hardware\\CODE" "lvgl/src/lv_misc/lv_task.h"
	.section	.text._lv_task_core_init,"ax",%progbits
	.hidden	_lv_task_core_init              @ -- Begin function _lv_task_core_init
	.globl	_lv_task_core_init
	.p2align	3
	.type	_lv_task_core_init,%function
	.code	16                              @ @_lv_task_core_init
	.thumb_func
_lv_task_core_init:
.Lfunc_begin0:
	.loc	1 54 0                          @ lvgl/src/lv_misc/lv_task.c:54:0
	.fnstart
	.cfi_sections .debug_frame
	.cfi_startproc
@ %bb.0:
	.save	{r7, lr}
	push	{r7, lr}
	.cfi_def_cfa_offset 8
	.cfi_offset lr, -4
	.cfi_offset r7, -8
.Ltmp0:
	.loc	1 55 5 prologue_end             @ lvgl/src/lv_misc/lv_task.c:55:5
	movw	r0, :lower16:_lv_task_ll
	movs	r1, #24
	movt	r0, :upper16:_lv_task_ll
	bl	_lv_ll_init
	.loc	1 58 5                          @ lvgl/src/lv_misc/lv_task.c:58:5
	movs	r0, #1
	bl	lv_task_enable
	.loc	1 59 1                          @ lvgl/src/lv_misc/lv_task.c:59:1
	pop	{r7, pc}
.Ltmp1:
.Lfunc_end0:
	.size	_lv_task_core_init, .Lfunc_end0-_lv_task_core_init
	.cfi_endproc
	.cantunwind
	.fnend
                                        @ -- End function
	.section	.text.lv_task_enable,"ax",%progbits
	.hidden	lv_task_enable                  @ -- Begin function lv_task_enable
	.globl	lv_task_enable
	.p2align	3
	.type	lv_task_enable,%function
	.code	16                              @ @lv_task_enable
	.thumb_func
lv_task_enable:
.Lfunc_begin1:
	.loc	1 347 0                         @ lvgl/src/lv_misc/lv_task.c:347:0
	.fnstart
	.cfi_startproc
@ %bb.0:
	.loc	1 348 17 prologue_end           @ lvgl/src/lv_misc/lv_task.c:348:17
	movw	r1, :lower16:lv_task_run
	movt	r1, :upper16:lv_task_run
	@DEBUG_VALUE: lv_task_enable:en <- undef
	strb	r0, [r1]
	.loc	1 349 1                         @ lvgl/src/lv_misc/lv_task.c:349:1
	bx	lr
.Ltmp2:
.Lfunc_end1:
	.size	lv_task_enable, .Lfunc_end1-lv_task_enable
	.cfi_endproc
	.cantunwind
	.fnend
                                        @ -- End function
	.section	.text.lv_task_handler,"ax",%progbits
	.hidden	lv_task_handler                 @ -- Begin function lv_task_handler
	.globl	lv_task_handler
	.p2align	3
	.type	lv_task_handler,%function
	.code	16                              @ @lv_task_handler
	.thumb_func
lv_task_handler:
.Lfunc_begin2:
	.loc	1 66 0                          @ lvgl/src/lv_misc/lv_task.c:66:0
	.fnstart
	.cfi_startproc
@ %bb.0:
	.save	{r4, r5, r6, r7, r8, r9, r10, r11, lr}
	push.w	{r4, r5, r6, r7, r8, r9, r10, r11, lr}
	.cfi_def_cfa_offset 36
	.cfi_offset lr, -4
	.cfi_offset r11, -8
	.cfi_offset r10, -12
	.cfi_offset r9, -16
	.cfi_offset r8, -20
	.cfi_offset r7, -24
	.cfi_offset r6, -28
	.cfi_offset r5, -32
	.cfi_offset r4, -36
	.pad	#4
	sub	sp, #4
	.cfi_def_cfa_offset 40
.Ltmp3:
	.loc	1 71 8 prologue_end             @ lvgl/src/lv_misc/lv_task.c:71:8
	movw	r1, :lower16:lv_task_handler.already_running
	movs	r5, #1
	movt	r1, :upper16:lv_task_handler.already_running
	ldrb	r0, [r1]
.Ltmp4:
	.loc	1 71 8 is_stmt 0                @ lvgl/src/lv_misc/lv_task.c:71:8
	cmp	r0, #0
	bne.w	.LBB2_32
@ %bb.1:
.Ltmp5:
	.loc	1 74 8 is_stmt 1                @ lvgl/src/lv_misc/lv_task.c:74:8
	movw	r0, :lower16:lv_task_run
.Ltmp6:
	.loc	1 72 21                         @ lvgl/src/lv_misc/lv_task.c:72:21
	strb	r5, [r1]
.Ltmp7:
	.loc	1 74 8                          @ lvgl/src/lv_misc/lv_task.c:74:8
	movt	r0, :upper16:lv_task_run
	ldrb	r0, [r0]
.Ltmp8:
	.loc	1 74 8 is_stmt 0                @ lvgl/src/lv_misc/lv_task.c:74:8
	cmp	r0, #0
	beq.w	.LBB2_31
@ %bb.2:
	.loc	1 0 8                           @ lvgl/src/lv_misc/lv_task.c:0:8
	mov.w	r10, #0
	.loc	1 82 30 is_stmt 1               @ lvgl/src/lv_misc/lv_task.c:82:30
	bl	lv_tick_get
	movw	r4, :lower16:task_deleted
	movw	r7, :lower16:task_created
	movw	r11, :lower16:task_list_changed
	movw	r5, :lower16:_lv_task_ll
	movw	r8, :lower16:_lv_task_act
	movt	r4, :upper16:task_deleted
	movt	r7, :upper16:task_created
	movt	r11, :upper16:task_list_changed
	movt	r5, :upper16:_lv_task_ll
	movt	r8, :upper16:_lv_task_act
	.loc	1 87 17                         @ lvgl/src/lv_misc/lv_task.c:87:17
	mov.w	r9, #0
	.loc	1 82 30                         @ lvgl/src/lv_misc/lv_task.c:82:30
	str	r0, [sp]                        @ 4-byte Spill
.Ltmp9:
	@DEBUG_VALUE: lv_task_handler:task_interrupter <- 0
	@DEBUG_VALUE: lv_task_handler:handler_start <- [$sp+0]
	.loc	1 0 30 is_stmt 0                @ lvgl/src/lv_misc/lv_task.c:0:30
	b	.LBB2_5
.Ltmp10:
	.p2align	2
.LBB2_3:                                @   in Loop: Header=BB2_5 Depth=1
	@DEBUG_VALUE: lv_task_handler:handler_start <- [$sp+0]
	@DEBUG_VALUE: lv_task_handler:end_flag <- 1
	movs	r0, #0
.Ltmp11:
.LBB2_4:                                @   in Loop: Header=BB2_5 Depth=1
	@DEBUG_VALUE: lv_task_handler:handler_start <- [$sp+0]
	@DEBUG_VALUE: lv_task_handler:task_interrupter <- $r9
	@DEBUG_VALUE: lv_task_handler:end_flag <- undef
	.loc	1 157 5 is_stmt 1               @ lvgl/src/lv_misc/lv_task.c:157:5
	cmp	r0, #0
	beq	.LBB2_23
.Ltmp12:
.LBB2_5:                                @ =>This Loop Header: Depth=1
                                        @     Child Loop BB2_7 Depth 2
	@DEBUG_VALUE: lv_task_handler:handler_start <- [$sp+0]
	@DEBUG_VALUE: lv_task_handler:task_interrupter <- $r9
	@DEBUG_VALUE: lv_task_handler:end_flag <- 1
	.loc	1 95 36                         @ lvgl/src/lv_misc/lv_task.c:95:36
	mov	r0, r5
	.loc	1 92 34                         @ lvgl/src/lv_misc/lv_task.c:92:34
	strb.w	r10, [r4]
	.loc	1 93 34                         @ lvgl/src/lv_misc/lv_task.c:93:34
	strb.w	r10, [r7]
	.loc	1 94 34                         @ lvgl/src/lv_misc/lv_task.c:94:34
	strb.w	r10, [r11]
	.loc	1 95 36                         @ lvgl/src/lv_misc/lv_task.c:95:36
	bl	_lv_ll_get_head
	.loc	1 96 9                          @ lvgl/src/lv_misc/lv_task.c:96:9
	cmp	r0, #0
	.loc	1 95 34                         @ lvgl/src/lv_misc/lv_task.c:95:34
	str.w	r0, [r8]
	.loc	1 96 9                          @ lvgl/src/lv_misc/lv_task.c:96:9
	beq	.LBB2_3
.Ltmp13:
@ %bb.6:                                @   in Loop: Header=BB2_5 Depth=1
	@DEBUG_VALUE: lv_task_handler:task_interrupter <- $r9
	@DEBUG_VALUE: lv_task_handler:handler_start <- [$sp+0]
	@DEBUG_VALUE: lv_task_handler:end_flag <- 1
	.loc	1 0 9 is_stmt 0                 @ lvgl/src/lv_misc/lv_task.c:0:9
	mov	r6, r0
	@DEBUG_VALUE: lv_task_handler:task_interrupter <- $r9
.Ltmp14:
	.p2align	2
.LBB2_7:                                @   Parent Loop BB2_5 Depth=1
                                        @ =>  This Inner Loop Header: Depth=2
	@DEBUG_VALUE: lv_task_handler:handler_start <- [$sp+0]
	@DEBUG_VALUE: lv_task_handler:end_flag <- 1
	.loc	1 99 20 is_stmt 1               @ lvgl/src/lv_misc/lv_task.c:99:20
	mov	r0, r5
	mov	r1, r6
	bl	_lv_ll_get_next
.Ltmp15:
	.loc	1 102 16                        @ lvgl/src/lv_misc/lv_task.c:102:16
	ldr.w	r1, [r8]
	.loc	1 102 42 is_stmt 0              @ lvgl/src/lv_misc/lv_task.c:102:42
	ldrb	r2, [r1, #20]
	ands	r2, r2, #7
.Ltmp16:
	@DEBUG_VALUE: lv_task_handler:next <- $r0
	.loc	1 102 16                        @ lvgl/src/lv_misc/lv_task.c:102:16
	beq	.LBB2_3
.Ltmp17:
@ %bb.8:                                @   in Loop: Header=BB2_7 Depth=2
	@DEBUG_VALUE: lv_task_handler:next <- $r0
	@DEBUG_VALUE: lv_task_handler:handler_start <- [$sp+0]
	@DEBUG_VALUE: lv_task_handler:end_flag <- 1
	.loc	1 0 0                           @ lvgl/src/lv_misc/lv_task.c:0:0
	mov	r6, r0
.Ltmp18:
	@DEBUG_VALUE: lv_task_handler:next <- $r6
	@DEBUG_VALUE: lv_task_handler:next <- $r6
	@DEBUG_VALUE: lv_task_handler:next <- $r6
	.loc	1 107 16 is_stmt 1              @ lvgl/src/lv_misc/lv_task.c:107:16
	cmp	r1, r9
	beq	.LBB2_19
.Ltmp19:
@ %bb.9:                                @   in Loop: Header=BB2_7 Depth=2
	@DEBUG_VALUE: lv_task_handler:next <- $r6
	@DEBUG_VALUE: lv_task_handler:handler_start <- [$sp+0]
	@DEBUG_VALUE: lv_task_handler:end_flag <- 1
	.loc	1 115 16                        @ lvgl/src/lv_misc/lv_task.c:115:16
	cmp	r2, #5
	bne	.LBB2_11
.Ltmp20:
@ %bb.10:                               @   in Loop: Header=BB2_7 Depth=2
	@DEBUG_VALUE: lv_task_handler:next <- $r6
	@DEBUG_VALUE: lv_task_handler:handler_start <- [$sp+0]
	@DEBUG_VALUE: lv_task_handler:end_flag <- 1
	.loc	1 116 17                        @ lvgl/src/lv_misc/lv_task.c:116:17
	mov	r0, r1
	bl	lv_task_exec
	b	.LBB2_16
.Ltmp21:
	.p2align	2
.LBB2_11:                               @   in Loop: Header=BB2_7 Depth=2
	@DEBUG_VALUE: lv_task_handler:next <- $r6
	@DEBUG_VALUE: lv_task_handler:handler_start <- [$sp+0]
	@DEBUG_VALUE: lv_task_handler:end_flag <- 1
	.loc	1 119 21                        @ lvgl/src/lv_misc/lv_task.c:119:21
	cmp.w	r9, #0
	beq	.LBB2_13
.Ltmp22:
@ %bb.12:                               @   in Loop: Header=BB2_7 Depth=2
	@DEBUG_VALUE: lv_task_handler:next <- $r6
	@DEBUG_VALUE: lv_task_handler:handler_start <- [$sp+0]
	@DEBUG_VALUE: lv_task_handler:end_flag <- 1
	.loc	1 120 71                        @ lvgl/src/lv_misc/lv_task.c:120:71
	ldrb.w	r0, [r9, #20]
	and	r0, r0, #7
.Ltmp23:
	.loc	1 120 20 is_stmt 0              @ lvgl/src/lv_misc/lv_task.c:120:20
	cmp	r2, r0
	bls	.LBB2_16
.Ltmp24:
.LBB2_13:                               @   in Loop: Header=BB2_7 Depth=2
	@DEBUG_VALUE: lv_task_handler:next <- $r6
	@DEBUG_VALUE: lv_task_handler:handler_start <- [$sp+0]
	@DEBUG_VALUE: lv_task_handler:end_flag <- 1
	.loc	1 0 0                           @ lvgl/src/lv_misc/lv_task.c:0:0
	mov	r0, r1
	bl	lv_task_exec
	cbz	r0, .LBB2_16
.Ltmp25:
@ %bb.14:                               @   in Loop: Header=BB2_7 Depth=2
	@DEBUG_VALUE: lv_task_handler:next <- $r6
	@DEBUG_VALUE: lv_task_handler:handler_start <- [$sp+0]
	@DEBUG_VALUE: lv_task_handler:end_flag <- 1
	ldrb	r0, [r7]
	cbnz	r0, .LBB2_16
.Ltmp26:
@ %bb.15:                               @   in Loop: Header=BB2_7 Depth=2
	@DEBUG_VALUE: lv_task_handler:next <- $r6
	@DEBUG_VALUE: lv_task_handler:handler_start <- [$sp+0]
	@DEBUG_VALUE: lv_task_handler:end_flag <- 1
	ldrb	r0, [r4]
	cbz	r0, .LBB2_22
.Ltmp27:
	.p2align	2
.LBB2_16:                               @   in Loop: Header=BB2_7 Depth=2
	@DEBUG_VALUE: lv_task_handler:next <- $r6
	@DEBUG_VALUE: lv_task_handler:handler_start <- [$sp+0]
	@DEBUG_VALUE: lv_task_handler:end_flag <- 1
	.loc	1 144 16 is_stmt 1              @ lvgl/src/lv_misc/lv_task.c:144:16
	ldrb	r0, [r7]
	.loc	1 144 29 is_stmt 0              @ lvgl/src/lv_misc/lv_task.c:144:29
	cmp	r0, #0
	.loc	1 144 32                        @ lvgl/src/lv_misc/lv_task.c:144:32
	itt	eq
	ldrbeq	r0, [r4]
.Ltmp28:
	.loc	1 144 16                        @ lvgl/src/lv_misc/lv_task.c:144:16
	cmpeq	r0, #0
	bne	.LBB2_20
.Ltmp29:
@ %bb.17:                               @   in Loop: Header=BB2_7 Depth=2
	@DEBUG_VALUE: lv_task_handler:next <- $r6
	@DEBUG_VALUE: lv_task_handler:handler_start <- [$sp+0]
	@DEBUG_VALUE: lv_task_handler:end_flag <- 1
	.loc	1 149 16 is_stmt 1              @ lvgl/src/lv_misc/lv_task.c:149:16
	ldrb.w	r0, [r11]
.Ltmp30:
	.loc	1 149 16 is_stmt 0              @ lvgl/src/lv_misc/lv_task.c:149:16
	cbnz	r0, .LBB2_21
.Ltmp31:
@ %bb.18:                               @   in Loop: Header=BB2_7 Depth=2
	@DEBUG_VALUE: lv_task_handler:next <- $r6
	@DEBUG_VALUE: lv_task_handler:handler_start <- [$sp+0]
	@DEBUG_VALUE: lv_task_handler:end_flag <- 1
	.loc	1 96 9 is_stmt 1                @ lvgl/src/lv_misc/lv_task.c:96:9
	cmp	r6, #0
.Ltmp32:
	.loc	1 155 38                        @ lvgl/src/lv_misc/lv_task.c:155:38
	str.w	r6, [r8]
.Ltmp33:
	@DEBUG_VALUE: lv_task_handler:task_interrupter <- $r9
	.loc	1 96 9                          @ lvgl/src/lv_misc/lv_task.c:96:9
	bne	.LBB2_7
	b	.LBB2_3
.Ltmp34:
.LBB2_19:                               @   in Loop: Header=BB2_7 Depth=2
	@DEBUG_VALUE: lv_task_handler:next <- $r6
	@DEBUG_VALUE: lv_task_handler:handler_start <- [$sp+0]
	@DEBUG_VALUE: lv_task_handler:end_flag <- 1
	@DEBUG_VALUE: lv_task_handler:task_interrupter <- 0
	cmp	r6, #0
	mov.w	r9, #0
	mov.w	r0, #0
.Ltmp35:
	.loc	1 110 42                        @ lvgl/src/lv_misc/lv_task.c:110:42
	str.w	r6, [r8]
.Ltmp36:
	.loc	1 96 9                          @ lvgl/src/lv_misc/lv_task.c:96:9
	bne	.LBB2_7
	b	.LBB2_4
.Ltmp37:
	.p2align	2
.LBB2_20:                               @   in Loop: Header=BB2_5 Depth=1
	@DEBUG_VALUE: lv_task_handler:next <- $r6
	@DEBUG_VALUE: lv_task_handler:handler_start <- [$sp+0]
	@DEBUG_VALUE: lv_task_handler:end_flag <- 1
	.loc	1 0 9 is_stmt 0                 @ lvgl/src/lv_misc/lv_task.c:0:9
	movs	r0, #0
	mov.w	r9, #0
	b	.LBB2_4
.Ltmp38:
.LBB2_21:                               @   in Loop: Header=BB2_5 Depth=1
	@DEBUG_VALUE: lv_task_handler:next <- $r6
	@DEBUG_VALUE: lv_task_handler:handler_start <- [$sp+0]
	@DEBUG_VALUE: lv_task_handler:end_flag <- 1
	mov.w	r9, #0
	movs	r0, #1
	b	.LBB2_4
.Ltmp39:
.LBB2_22:                               @   in Loop: Header=BB2_5 Depth=1
	@DEBUG_VALUE: lv_task_handler:next <- $r6
	@DEBUG_VALUE: lv_task_handler:handler_start <- [$sp+0]
	@DEBUG_VALUE: lv_task_handler:end_flag <- 1
	ldr.w	r9, [r8]
.Ltmp40:
	@DEBUG_VALUE: lv_task_handler:task_interrupter <- $r9
	movs	r0, #1
.Ltmp41:
	@DEBUG_VALUE: lv_task_handler:end_flag <- 0
	b	.LBB2_4
.Ltmp42:
.LBB2_23:
	@DEBUG_VALUE: lv_task_handler:task_interrupter <- $r9
	@DEBUG_VALUE: lv_task_handler:handler_start <- [$sp+0]
	@DEBUG_VALUE: lv_task_handler:time_till_next <- -1
	.loc	1 160 12 is_stmt 1              @ lvgl/src/lv_misc/lv_task.c:160:12
	movw	r0, :lower16:_lv_task_ll
	movt	r0, :upper16:_lv_task_ll
	bl	_lv_ll_get_head
.Ltmp43:
	@DEBUG_VALUE: lv_task_handler:next <- $r0
	.loc	1 161 16                        @ lvgl/src/lv_misc/lv_task.c:161:16
	cbz	r0, .LBB2_27
.Ltmp44:
@ %bb.24:
	@DEBUG_VALUE: lv_task_handler:task_interrupter <- $r9
	@DEBUG_VALUE: lv_task_handler:next <- $r0
	@DEBUG_VALUE: lv_task_handler:handler_start <- [$sp+0]
	@DEBUG_VALUE: lv_task_handler:time_till_next <- -1
	.loc	1 0 16 is_stmt 0                @ lvgl/src/lv_misc/lv_task.c:0:16
	movw	r7, :lower16:_lv_task_ll
	mov	r6, r0
.Ltmp45:
	@DEBUG_VALUE: lv_task_handler:next <- $r6
	@DEBUG_VALUE: lv_task_handler:next <- $r6
	mov.w	r5, #-1
	movt	r7, :upper16:_lv_task_ll
	ldr	r4, [sp]                        @ 4-byte Reload
.Ltmp46:
	.p2align	2
.LBB2_25:                               @ =>This Inner Loop Header: Depth=1
	@DEBUG_VALUE: lv_task_handler:task_interrupter <- $r9
	@DEBUG_VALUE: lv_task_handler:next <- $r6
	@DEBUG_VALUE: lv_task_handler:handler_start <- [$sp+0]
	@DEBUG_VALUE: lv_task_handler:time_till_next <- $r5
	.loc	1 161 25                        @ lvgl/src/lv_misc/lv_task.c:161:25
	ldrb	r0, [r6, #20]
	.loc	1 161 5                         @ lvgl/src/lv_misc/lv_task.c:161:5
	lsls	r0, r0, #29
	beq	.LBB2_28
.Ltmp47:
@ %bb.26:                               @   in Loop: Header=BB2_25 Depth=1
	@DEBUG_VALUE: lv_task_handler:task_interrupter <- $r9
	@DEBUG_VALUE: lv_task_handler:next <- $r6
	@DEBUG_VALUE: lv_task_handler:time_till_next <- $r5
	@DEBUG_VALUE: lv_task_handler:handler_start <- [$sp+0]
	.loc	1 162 26 is_stmt 1              @ lvgl/src/lv_misc/lv_task.c:162:26
	mov	r0, r6
	bl	lv_task_time_remaining
.Ltmp48:
	@DEBUG_VALUE: delay <- $r0
	.loc	1 163 12                        @ lvgl/src/lv_misc/lv_task.c:163:12
	cmp	r0, r5
	.loc	1 166 16                        @ lvgl/src/lv_misc/lv_task.c:166:16
	mov	r1, r6
	.loc	1 163 12                        @ lvgl/src/lv_misc/lv_task.c:163:12
	it	lo
	movlo	r5, r0
.Ltmp49:
	@DEBUG_VALUE: delay <- $r5
	@DEBUG_VALUE: lv_task_handler:time_till_next <- $r5
	.loc	1 166 16                        @ lvgl/src/lv_misc/lv_task.c:166:16
	mov	r0, r7
	bl	_lv_ll_get_next
	mov	r6, r0
.Ltmp50:
	@DEBUG_VALUE: lv_task_handler:next <- $r6
	.loc	1 161 16                        @ lvgl/src/lv_misc/lv_task.c:161:16
	cmp	r0, #0
	bne	.LBB2_25
	b	.LBB2_28
.Ltmp51:
.LBB2_27:
	@DEBUG_VALUE: lv_task_handler:task_interrupter <- $r9
	@DEBUG_VALUE: lv_task_handler:next <- $r0
	@DEBUG_VALUE: lv_task_handler:handler_start <- [$sp+0]
	@DEBUG_VALUE: lv_task_handler:time_till_next <- -1
	.loc	1 0 16 is_stmt 0                @ lvgl/src/lv_misc/lv_task.c:0:16
	mov.w	r5, #-1
	ldr	r4, [sp]                        @ 4-byte Reload
.Ltmp52:
.LBB2_28:
	@DEBUG_VALUE: lv_task_handler:task_interrupter <- $r9
	@DEBUG_VALUE: lv_task_handler:handler_start <- [$sp+0]
	.loc	1 169 18 is_stmt 1              @ lvgl/src/lv_misc/lv_task.c:169:18
	mov	r0, r4
	bl	lv_tick_elaps
	.loc	1 169 15 is_stmt 0              @ lvgl/src/lv_misc/lv_task.c:169:15
	movw	r6, :lower16:lv_task_handler.busy_time
	.loc	1 170 47 is_stmt 1              @ lvgl/src/lv_misc/lv_task.c:170:47
	movw	r4, :lower16:lv_task_handler.idle_period_start
	.loc	1 169 15                        @ lvgl/src/lv_misc/lv_task.c:169:15
	movt	r6, :upper16:lv_task_handler.busy_time
	.loc	1 170 47                        @ lvgl/src/lv_misc/lv_task.c:170:47
	movt	r4, :upper16:lv_task_handler.idle_period_start
	.loc	1 169 15                        @ lvgl/src/lv_misc/lv_task.c:169:15
	ldr	r1, [r6]
	add	r0, r1
	str	r0, [r6]
	.loc	1 170 47                        @ lvgl/src/lv_misc/lv_task.c:170:47
	ldr	r0, [r4]
	.loc	1 170 33 is_stmt 0              @ lvgl/src/lv_misc/lv_task.c:170:33
	bl	lv_tick_elaps
.Ltmp53:
	@DEBUG_VALUE: lv_task_handler:idle_period_time <- $r0
	.loc	1 171 8 is_stmt 1               @ lvgl/src/lv_misc/lv_task.c:171:8
	cmp.w	r0, #500
	blo	.LBB2_30
.Ltmp54:
@ %bb.29:
	@DEBUG_VALUE: lv_task_handler:task_interrupter <- $r9
	@DEBUG_VALUE: lv_task_handler:idle_period_time <- $r0
	@DEBUG_VALUE: lv_task_handler:handler_start <- [$sp+0]
	.loc	1 172 30                        @ lvgl/src/lv_misc/lv_task.c:172:30
	ldr	r1, [r6]
	movs	r2, #100
	movs	r3, #0
	.loc	1 172 40 is_stmt 0              @ lvgl/src/lv_misc/lv_task.c:172:40
	muls	r1, r2, r1
	.loc	1 172 47                        @ lvgl/src/lv_misc/lv_task.c:172:47
	udiv	r0, r1, r0
.Ltmp55:
	.loc	1 173 29 is_stmt 1              @ lvgl/src/lv_misc/lv_task.c:173:29
	uxtb	r0, r0
	rsb.w	r1, r0, #100
	cmp	r2, r0
	.loc	1 173 27 is_stmt 0              @ lvgl/src/lv_misc/lv_task.c:173:27
	movw	r0, :lower16:idle_last
	.loc	1 173 29                        @ lvgl/src/lv_misc/lv_task.c:173:29
	it	lo
	movlo	r1, r3
	.loc	1 173 27                        @ lvgl/src/lv_misc/lv_task.c:173:27
	movt	r0, :upper16:idle_last
	.loc	1 174 27 is_stmt 1              @ lvgl/src/lv_misc/lv_task.c:174:27
	str	r3, [r6]
	.loc	1 173 27                        @ lvgl/src/lv_misc/lv_task.c:173:27
	strb	r1, [r0]
	.loc	1 175 29                        @ lvgl/src/lv_misc/lv_task.c:175:29
	bl	lv_tick_get
	.loc	1 175 27 is_stmt 0              @ lvgl/src/lv_misc/lv_task.c:175:27
	str	r0, [r4]
.Ltmp56:
.LBB2_30:
	@DEBUG_VALUE: lv_task_handler:task_interrupter <- $r9
	@DEBUG_VALUE: lv_task_handler:handler_start <- [$sp+0]
	.loc	1 0 27                          @ lvgl/src/lv_misc/lv_task.c:0:27
	movw	r1, :lower16:lv_task_handler.already_running
	movt	r1, :upper16:lv_task_handler.already_running
.Ltmp57:
.LBB2_31:
	movs	r0, #0
	strb	r0, [r1]
.LBB2_32:
	.loc	1 182 1 is_stmt 1               @ lvgl/src/lv_misc/lv_task.c:182:1
	mov	r0, r5
	add	sp, #4
	pop.w	{r4, r5, r6, r7, r8, r9, r10, r11, pc}
.Ltmp58:
.Lfunc_end2:
	.size	lv_task_handler, .Lfunc_end2-lv_task_handler
	.cfi_endproc
	.cantunwind
	.fnend
                                        @ -- End function
	.section	.text.lv_task_exec,"ax",%progbits
	.p2align	3                               @ -- Begin function lv_task_exec
	.type	lv_task_exec,%function
	.code	16                              @ @lv_task_exec
	.thumb_func
lv_task_exec:
.Lfunc_begin3:
	.loc	1 381 0                         @ lvgl/src/lv_misc/lv_task.c:381:0
	.fnstart
	.cfi_startproc
@ %bb.0:
	@DEBUG_VALUE: lv_task_exec:task <- $r0
	.save	{r4, r5, r7, lr}
	push	{r4, r5, r7, lr}
	.cfi_def_cfa_offset 16
	.cfi_offset lr, -4
	.cfi_offset r7, -8
	.cfi_offset r5, -12
	.cfi_offset r4, -16
	mov	r4, r0
.Ltmp59:
	@DEBUG_VALUE: lv_task_exec:exec <- 0
	@DEBUG_VALUE: lv_task_exec:task <- $r4
	.loc	1 384 8 prologue_end            @ lvgl/src/lv_misc/lv_task.c:384:8
	bl	lv_task_time_remaining
	mov	r5, r0
.Ltmp60:
	.loc	1 384 8 is_stmt 0               @ lvgl/src/lv_misc/lv_task.c:384:8
	cbnz	r0, .LBB3_6
.Ltmp61:
@ %bb.1:
	@DEBUG_VALUE: lv_task_exec:task <- $r4
	@DEBUG_VALUE: lv_task_exec:exec <- 0
	.loc	1 385 26 is_stmt 1              @ lvgl/src/lv_misc/lv_task.c:385:26
	bl	lv_tick_get
.Ltmp62:
	.loc	1 386 18                        @ lvgl/src/lv_misc/lv_task.c:386:18
	ldr	r1, [r4, #8]
.Ltmp63:
	.loc	1 385 24                        @ lvgl/src/lv_misc/lv_task.c:385:24
	str	r0, [r4, #4]
	.loc	1 386 12                        @ lvgl/src/lv_misc/lv_task.c:386:12
	cbz	r1, .LBB3_3
.Ltmp64:
@ %bb.2:
	@DEBUG_VALUE: lv_task_exec:task <- $r4
	@DEBUG_VALUE: lv_task_exec:exec <- 0
	.loc	1 386 27 is_stmt 0              @ lvgl/src/lv_misc/lv_task.c:386:27
	mov	r0, r4
	blx	r1
.Ltmp65:
.LBB3_3:
	@DEBUG_VALUE: lv_task_exec:task <- $r4
	@DEBUG_VALUE: lv_task_exec:exec <- 0
	.loc	1 389 12 is_stmt 1              @ lvgl/src/lv_misc/lv_task.c:389:12
	movw	r0, :lower16:task_deleted
	movt	r0, :upper16:task_deleted
	ldrb	r0, [r0]
.Ltmp66:
	.loc	1 389 12 is_stmt 0              @ lvgl/src/lv_misc/lv_task.c:389:12
	cbnz	r0, .LBB3_6
.Ltmp67:
@ %bb.4:
	@DEBUG_VALUE: lv_task_exec:task <- $r4
	@DEBUG_VALUE: lv_task_exec:exec <- 0
	.loc	1 390 22 is_stmt 1              @ lvgl/src/lv_misc/lv_task.c:390:22
	ldr	r0, [r4, #16]
.Ltmp68:
	.loc	1 390 16 is_stmt 0              @ lvgl/src/lv_misc/lv_task.c:390:16
	cmp	r0, #1
.Ltmp69:
	.loc	1 391 35 is_stmt 1              @ lvgl/src/lv_misc/lv_task.c:391:35
	itt	ge
	subge	r0, #1
	strge	r0, [r4, #16]
.Ltmp70:
	.loc	1 393 22                        @ lvgl/src/lv_misc/lv_task.c:393:22
	ldr	r0, [r4, #16]
.Ltmp71:
	.loc	1 393 16 is_stmt 0              @ lvgl/src/lv_misc/lv_task.c:393:16
	cbnz	r0, .LBB3_6
.Ltmp72:
@ %bb.5:
	@DEBUG_VALUE: lv_task_exec:task <- $r4
	@DEBUG_VALUE: lv_task_exec:exec <- 0
	.loc	1 394 17 is_stmt 1              @ lvgl/src/lv_misc/lv_task.c:394:17
	mov	r0, r4
	bl	lv_task_del
.Ltmp73:
.LBB3_6:
	@DEBUG_VALUE: lv_task_exec:task <- $r4
	@DEBUG_VALUE: lv_task_exec:exec <- 0
	.loc	1 384 37                        @ lvgl/src/lv_misc/lv_task.c:384:37
	clz	r0, r5
	lsrs	r0, r0, #5
.Ltmp74:
	@DEBUG_VALUE: lv_task_exec:exec <- undef
	.loc	1 400 5                         @ lvgl/src/lv_misc/lv_task.c:400:5
	pop	{r4, r5, r7, pc}
.Ltmp75:
.Lfunc_end3:
	.size	lv_task_exec, .Lfunc_end3-lv_task_exec
	.cfi_endproc
	.cantunwind
	.fnend
                                        @ -- End function
	.section	.text.lv_task_time_remaining,"ax",%progbits
	.p2align	3                               @ -- Begin function lv_task_time_remaining
	.type	lv_task_time_remaining,%function
	.code	16                              @ @lv_task_time_remaining
	.thumb_func
lv_task_time_remaining:
.Lfunc_begin4:
	.loc	1 409 0                         @ lvgl/src/lv_misc/lv_task.c:409:0
	.fnstart
	.cfi_startproc
@ %bb.0:
	@DEBUG_VALUE: lv_task_time_remaining:task <- $r0
	.save	{r4, lr}
	push	{r4, lr}
	.cfi_def_cfa_offset 8
	.cfi_offset lr, -4
	.cfi_offset r4, -8
	mov	r4, r0
.Ltmp76:
	@DEBUG_VALUE: lv_task_time_remaining:task <- $r4
	.loc	1 411 40 prologue_end           @ lvgl/src/lv_misc/lv_task.c:411:40
	ldr	r0, [r0, #4]
	.loc	1 411 20 is_stmt 0              @ lvgl/src/lv_misc/lv_task.c:411:20
	bl	lv_tick_elaps
.Ltmp77:
	.loc	1 412 21 is_stmt 1              @ lvgl/src/lv_misc/lv_task.c:412:21
	ldr	r1, [r4]
.Ltmp78:
	@DEBUG_VALUE: lv_task_time_remaining:elp <- $r0
	.loc	1 412 8 is_stmt 0               @ lvgl/src/lv_misc/lv_task.c:412:8
	subs	r0, r1, r0
.Ltmp79:
	it	lo
	movlo	r0, #0
	.loc	1 415 1 is_stmt 1               @ lvgl/src/lv_misc/lv_task.c:415:1
	pop	{r4, pc}
.Ltmp80:
.Lfunc_end4:
	.size	lv_task_time_remaining, .Lfunc_end4-lv_task_time_remaining
	.cfi_endproc
	.cantunwind
	.fnend
                                        @ -- End function
	.section	.text.lv_task_create_basic,"ax",%progbits
	.hidden	lv_task_create_basic            @ -- Begin function lv_task_create_basic
	.globl	lv_task_create_basic
	.p2align	3
	.type	lv_task_create_basic,%function
	.code	16                              @ @lv_task_create_basic
	.thumb_func
lv_task_create_basic:
.Lfunc_begin5:
	.loc	1 189 0                         @ lvgl/src/lv_misc/lv_task.c:189:0
	.fnstart
	.cfi_startproc
@ %bb.0:
	.save	{r7, lr}
	push	{r7, lr}
	.cfi_def_cfa_offset 8
	.cfi_offset lr, -4
	.cfi_offset r7, -8
.Ltmp81:
	.loc	1 190 12 prologue_end           @ lvgl/src/lv_misc/lv_task.c:190:12
	movs	r0, #0
	mov.w	r1, #500
	movs	r2, #3
	movs	r3, #0
	bl	lv_task_create
	.loc	1 190 5 is_stmt 0               @ lvgl/src/lv_misc/lv_task.c:190:5
	pop	{r7, pc}
.Ltmp82:
.Lfunc_end5:
	.size	lv_task_create_basic, .Lfunc_end5-lv_task_create_basic
	.cfi_endproc
	.cantunwind
	.fnend
                                        @ -- End function
	.section	.text.lv_task_create,"ax",%progbits
	.hidden	lv_task_create                  @ -- Begin function lv_task_create
	.globl	lv_task_create
	.p2align	3
	.type	lv_task_create,%function
	.code	16                              @ @lv_task_create
	.thumb_func
lv_task_create:
.Lfunc_begin6:
	.loc	1 204 0 is_stmt 1               @ lvgl/src/lv_misc/lv_task.c:204:0
	.fnstart
	.cfi_startproc
@ %bb.0:
	@DEBUG_VALUE: lv_task_create:task_xcb <- $r0
	@DEBUG_VALUE: lv_task_create:period <- $r1
	@DEBUG_VALUE: lv_task_create:prio <- $r2
	@DEBUG_VALUE: lv_task_create:user_data <- $r3
	.save	{r4, r5, r6, r7, r8, r9, lr}
	push.w	{r4, r5, r6, r7, r8, r9, lr}
	.cfi_def_cfa_offset 28
	.cfi_offset lr, -4
	.cfi_offset r9, -8
	.cfi_offset r8, -12
	.cfi_offset r7, -16
	.cfi_offset r6, -20
	.cfi_offset r5, -24
	.cfi_offset r4, -28
	.pad	#4
	sub	sp, #4
	.cfi_def_cfa_offset 32
	mov	r9, r0
.Ltmp83:
	@DEBUG_VALUE: lv_task_create:task_xcb <- $r9
	@DEBUG_VALUE: lv_task_create:new_task <- 0
	@DEBUG_VALUE: lv_task_create:user_data <- $r8
	@DEBUG_VALUE: lv_task_create:prio <- $r5
	@DEBUG_VALUE: lv_task_create:period <- $r7
	@DEBUG_VALUE: lv_task_create:task_xcb <- $r9
	.loc	1 209 11 prologue_end           @ lvgl/src/lv_misc/lv_task.c:209:11
	movw	r0, :lower16:_lv_task_ll
	movt	r0, :upper16:_lv_task_ll
	mov	r8, r3
.Ltmp84:
	.loc	1 0 11 is_stmt 0                @ lvgl/src/lv_misc/lv_task.c:0:11
	mov	r5, r2
.Ltmp85:
	mov	r7, r1
.Ltmp86:
	.loc	1 209 11                        @ lvgl/src/lv_misc/lv_task.c:209:11
	bl	_lv_ll_get_head
.Ltmp87:
	@DEBUG_VALUE: lv_task_create:tmp <- $r0
	.loc	1 212 8 is_stmt 1               @ lvgl/src/lv_misc/lv_task.c:212:8
	cbz	r0, .LBB6_5
.Ltmp88:
@ %bb.1:
	@DEBUG_VALUE: lv_task_create:task_xcb <- $r9
	@DEBUG_VALUE: lv_task_create:tmp <- $r0
	@DEBUG_VALUE: lv_task_create:new_task <- 0
	.loc	1 0 8 is_stmt 0                 @ lvgl/src/lv_misc/lv_task.c:0:8
	movw	r4, :lower16:_lv_task_ll
	mov	r6, r0
.Ltmp89:
	@DEBUG_VALUE: lv_task_create:tmp <- $r6
	@DEBUG_VALUE: lv_task_create:tmp <- $r6
	movt	r4, :upper16:_lv_task_ll
.Ltmp90:
	.p2align	2
.LBB6_2:                                @ =>This Inner Loop Header: Depth=1
	@DEBUG_VALUE: lv_task_create:task_xcb <- $r9
	@DEBUG_VALUE: lv_task_create:tmp <- $r6
	@DEBUG_VALUE: lv_task_create:new_task <- 0
	@DEBUG_VALUE: lv_task_create:tmp <- $r6
	.loc	1 220 21 is_stmt 1              @ lvgl/src/lv_misc/lv_task.c:220:21
	ldrb	r0, [r6, #20]
	and	r0, r0, #7
.Ltmp91:
	.loc	1 220 16 is_stmt 0              @ lvgl/src/lv_misc/lv_task.c:220:16
	cmp	r0, r5
	bls	.LBB6_8
.Ltmp92:
@ %bb.3:                                @   in Loop: Header=BB6_2 Depth=1
	@DEBUG_VALUE: lv_task_create:task_xcb <- $r9
	@DEBUG_VALUE: lv_task_create:tmp <- $r6
	@DEBUG_VALUE: lv_task_create:new_task <- 0
	.loc	1 226 19 is_stmt 1              @ lvgl/src/lv_misc/lv_task.c:226:19
	mov	r0, r4
	mov	r1, r6
	bl	_lv_ll_get_next
	mov	r6, r0
.Ltmp93:
	@DEBUG_VALUE: lv_task_create:tmp <- $r6
	.loc	1 227 9                         @ lvgl/src/lv_misc/lv_task.c:227:9
	cmp	r0, #0
	bne	.LBB6_2
.Ltmp94:
@ %bb.4:
	@DEBUG_VALUE: lv_task_create:task_xcb <- $r9
	@DEBUG_VALUE: lv_task_create:tmp <- $r6
	@DEBUG_VALUE: lv_task_create:new_task <- 0
	.loc	1 0 9 is_stmt 0                 @ lvgl/src/lv_misc/lv_task.c:0:9
	movs	r4, #0
	movs	r6, #0
.Ltmp95:
	b	.LBB6_10
.Ltmp96:
.LBB6_5:
	@DEBUG_VALUE: lv_task_create:task_xcb <- $r9
	@DEBUG_VALUE: lv_task_create:tmp <- $r0
	@DEBUG_VALUE: lv_task_create:new_task <- 0
	.loc	1 213 20 is_stmt 1              @ lvgl/src/lv_misc/lv_task.c:213:20
	movw	r0, :lower16:_lv_task_ll
.Ltmp97:
	movt	r0, :upper16:_lv_task_ll
	bl	_lv_ll_ins_head
	mov	r4, r0
.Ltmp98:
	@DEBUG_VALUE: lv_task_create:new_task <- $r4
	.loc	1 214 9                         @ lvgl/src/lv_misc/lv_task.c:214:9
	bl	lv_debug_check_null
.Ltmp99:
	.loc	1 214 9 is_stmt 0               @ lvgl/src/lv_misc/lv_task.c:214:9
	cbz	r0, .LBB6_13
.Ltmp100:
@ %bb.6:
	@DEBUG_VALUE: lv_task_create:task_xcb <- $r9
	@DEBUG_VALUE: lv_task_create:new_task <- $r4
	@DEBUG_VALUE: lv_task_create:new_task <- $r4
	.loc	1 215 12 is_stmt 1              @ lvgl/src/lv_misc/lv_task.c:215:12
	cbnz	r4, .LBB6_11
.Ltmp101:
@ %bb.7:
	@DEBUG_VALUE: lv_task_create:task_xcb <- $r9
	@DEBUG_VALUE: lv_task_create:new_task <- $r4
	.loc	1 0 12 is_stmt 0                @ lvgl/src/lv_misc/lv_task.c:0:12
	movs	r4, #0
.Ltmp102:
	b	.LBB6_12
.Ltmp103:
.LBB6_8:
	@DEBUG_VALUE: lv_task_create:task_xcb <- $r9
	@DEBUG_VALUE: lv_task_create:tmp <- $r6
	@DEBUG_VALUE: lv_task_create:new_task <- 0
	.loc	1 221 28 is_stmt 1              @ lvgl/src/lv_misc/lv_task.c:221:28
	movw	r0, :lower16:_lv_task_ll
	mov	r1, r6
	movt	r0, :upper16:_lv_task_ll
	bl	_lv_ll_ins_prev
	mov	r4, r0
.Ltmp104:
	@DEBUG_VALUE: lv_task_create:new_task <- $r4
	.loc	1 222 17                        @ lvgl/src/lv_misc/lv_task.c:222:17
	bl	lv_debug_check_null
	cbz	r0, .LBB6_15
.Ltmp105:
@ %bb.9:
	@DEBUG_VALUE: lv_task_create:task_xcb <- $r9
	@DEBUG_VALUE: lv_task_create:tmp <- $r6
	@DEBUG_VALUE: lv_task_create:new_task <- $r4
	@DEBUG_VALUE: lv_task_create:new_task <- $r4
	.loc	1 223 20                        @ lvgl/src/lv_misc/lv_task.c:223:20
	cmp	r4, #0
	beq	.LBB6_22
.Ltmp106:
.LBB6_10:
	@DEBUG_VALUE: lv_task_create:task_xcb <- $r9
	@DEBUG_VALUE: lv_task_create:new_task <- $r4
	@DEBUG_VALUE: lv_task_create:tmp <- $r6
	.loc	1 230 12                        @ lvgl/src/lv_misc/lv_task.c:230:12
	cbz	r6, .LBB6_17
.Ltmp107:
.LBB6_11:
	@DEBUG_VALUE: lv_task_create:task_xcb <- $r9
	@DEBUG_VALUE: lv_task_create:new_task <- $r4
	@DEBUG_VALUE: lv_task_create:new_task <- $r4
	.loc	1 236 23                        @ lvgl/src/lv_misc/lv_task.c:236:23
	movw	r0, :lower16:task_list_changed
	movs	r6, #1
	movt	r0, :upper16:task_list_changed
	.loc	1 240 23                        @ lvgl/src/lv_misc/lv_task.c:240:23
	and	r1, r5, #7
	.loc	1 238 23                        @ lvgl/src/lv_misc/lv_task.c:238:23
	str	r7, [r4]
	.loc	1 236 23                        @ lvgl/src/lv_misc/lv_task.c:236:23
	strb	r6, [r0]
	.loc	1 240 23                        @ lvgl/src/lv_misc/lv_task.c:240:23
	ldrb	r0, [r4, #20]
	.loc	1 239 23                        @ lvgl/src/lv_misc/lv_task.c:239:23
	str.w	r9, [r4, #8]
	.loc	1 240 23                        @ lvgl/src/lv_misc/lv_task.c:240:23
	and	r0, r0, #248
	add	r0, r1
	strb	r0, [r4, #20]
	mov.w	r0, #-1
	.loc	1 242 28                        @ lvgl/src/lv_misc/lv_task.c:242:28
	str	r0, [r4, #16]
	.loc	1 243 26                        @ lvgl/src/lv_misc/lv_task.c:243:26
	bl	lv_tick_get
	.loc	1 243 24 is_stmt 0              @ lvgl/src/lv_misc/lv_task.c:243:24
	str	r0, [r4, #4]
	.loc	1 247 18 is_stmt 1              @ lvgl/src/lv_misc/lv_task.c:247:18
	movw	r0, :lower16:task_created
	movt	r0, :upper16:task_created
	.loc	1 245 25                        @ lvgl/src/lv_misc/lv_task.c:245:25
	str.w	r8, [r4, #12]
	.loc	1 247 18                        @ lvgl/src/lv_misc/lv_task.c:247:18
	strb	r6, [r0]
.Ltmp108:
.LBB6_12:
	@DEBUG_VALUE: lv_task_create:task_xcb <- $r9
	.loc	1 250 1                         @ lvgl/src/lv_misc/lv_task.c:250:1
	mov	r0, r4
	add	sp, #4
	pop.w	{r4, r5, r6, r7, r8, r9, pc}
.Ltmp109:
.LBB6_13:
	@DEBUG_VALUE: lv_task_create:task_xcb <- $r9
	@DEBUG_VALUE: lv_task_create:new_task <- $r4
	.loc	1 214 9                         @ lvgl/src/lv_misc/lv_task.c:214:9
	movw	r0, :lower16:.L.str
	movs	r3, #0
	movt	r0, :upper16:.L.str
	mov	r2, r4
	bl	lv_debug_log_error
.Ltmp110:
	.p2align	2
.LBB6_14:                               @ =>This Inner Loop Header: Depth=1
	@DEBUG_VALUE: lv_task_create:task_xcb <- $r9
	@DEBUG_VALUE: lv_task_create:new_task <- $r4
	b	.LBB6_14
.Ltmp111:
.LBB6_15:
	@DEBUG_VALUE: lv_task_create:task_xcb <- $r9
	@DEBUG_VALUE: lv_task_create:tmp <- $r6
	@DEBUG_VALUE: lv_task_create:new_task <- $r4
	.loc	1 222 17                        @ lvgl/src/lv_misc/lv_task.c:222:17
	movw	r0, :lower16:.L.str
	movs	r3, #0
	movt	r0, :upper16:.L.str
	mov	r2, r4
	bl	lv_debug_log_error
.Ltmp112:
	.p2align	2
.LBB6_16:                               @ =>This Inner Loop Header: Depth=1
	@DEBUG_VALUE: lv_task_create:task_xcb <- $r9
	@DEBUG_VALUE: lv_task_create:tmp <- $r6
	@DEBUG_VALUE: lv_task_create:new_task <- $r4
	b	.LBB6_16
.Ltmp113:
.LBB6_17:
	@DEBUG_VALUE: lv_task_create:task_xcb <- $r9
	@DEBUG_VALUE: lv_task_create:tmp <- $r6
	@DEBUG_VALUE: lv_task_create:new_task <- $r4
	.loc	1 231 24                        @ lvgl/src/lv_misc/lv_task.c:231:24
	movw	r0, :lower16:_lv_task_ll
	movt	r0, :upper16:_lv_task_ll
	bl	_lv_ll_ins_tail
	mov	r4, r0
.Ltmp114:
	@DEBUG_VALUE: lv_task_create:new_task <- $r4
	.loc	1 232 13                        @ lvgl/src/lv_misc/lv_task.c:232:13
	bl	lv_debug_check_null
.Ltmp115:
	.loc	1 232 13 is_stmt 0              @ lvgl/src/lv_misc/lv_task.c:232:13
	cbz	r0, .LBB6_20
.Ltmp116:
@ %bb.18:
	@DEBUG_VALUE: lv_task_create:task_xcb <- $r9
	@DEBUG_VALUE: lv_task_create:tmp <- $r6
	@DEBUG_VALUE: lv_task_create:new_task <- $r4
	@DEBUG_VALUE: lv_task_create:new_task <- $r4
	.loc	1 233 16 is_stmt 1              @ lvgl/src/lv_misc/lv_task.c:233:16
	cmp	r4, #0
	bne	.LBB6_11
.Ltmp117:
@ %bb.19:
	@DEBUG_VALUE: lv_task_create:task_xcb <- $r9
	@DEBUG_VALUE: lv_task_create:tmp <- $r6
	@DEBUG_VALUE: lv_task_create:new_task <- $r4
	.loc	1 0 16 is_stmt 0                @ lvgl/src/lv_misc/lv_task.c:0:16
	movs	r4, #0
.Ltmp118:
	b	.LBB6_12
.Ltmp119:
.LBB6_20:
	@DEBUG_VALUE: lv_task_create:task_xcb <- $r9
	@DEBUG_VALUE: lv_task_create:tmp <- $r6
	@DEBUG_VALUE: lv_task_create:new_task <- $r4
	.loc	1 232 13 is_stmt 1              @ lvgl/src/lv_misc/lv_task.c:232:13
	movw	r0, :lower16:.L.str
	movs	r3, #0
	movt	r0, :upper16:.L.str
	mov	r2, r4
	bl	lv_debug_log_error
.Ltmp120:
	.p2align	2
.LBB6_21:                               @ =>This Inner Loop Header: Depth=1
	@DEBUG_VALUE: lv_task_create:task_xcb <- $r9
	@DEBUG_VALUE: lv_task_create:tmp <- $r6
	@DEBUG_VALUE: lv_task_create:new_task <- $r4
	b	.LBB6_21
.Ltmp121:
.LBB6_22:
	@DEBUG_VALUE: lv_task_create:task_xcb <- $r9
	@DEBUG_VALUE: lv_task_create:tmp <- $r6
	@DEBUG_VALUE: lv_task_create:new_task <- $r4
	.loc	1 0 13 is_stmt 0                @ lvgl/src/lv_misc/lv_task.c:0:13
	movs	r4, #0
.Ltmp122:
	b	.LBB6_12
.Lfunc_end6:
	.size	lv_task_create, .Lfunc_end6-lv_task_create
	.cfi_endproc
	.cantunwind
	.fnend
                                        @ -- End function
	.section	.text.lv_task_set_cb,"ax",%progbits
	.hidden	lv_task_set_cb                  @ -- Begin function lv_task_set_cb
	.globl	lv_task_set_cb
	.p2align	3
	.type	lv_task_set_cb,%function
	.code	16                              @ @lv_task_set_cb
	.thumb_func
lv_task_set_cb:
.Lfunc_begin7:
	.loc	1 258 0 is_stmt 1               @ lvgl/src/lv_misc/lv_task.c:258:0
	.fnstart
	.cfi_startproc
@ %bb.0:
	@DEBUG_VALUE: lv_task_set_cb:task <- $r0
	@DEBUG_VALUE: lv_task_set_cb:task <- $r0
	@DEBUG_VALUE: lv_task_set_cb:task_cb <- $r1
	@DEBUG_VALUE: lv_task_set_cb:task_cb <- $r1
	.loc	1 259 19 prologue_end           @ lvgl/src/lv_misc/lv_task.c:259:19
	str	r1, [r0, #8]
	.loc	1 260 1                         @ lvgl/src/lv_misc/lv_task.c:260:1
	bx	lr
.Ltmp123:
.Lfunc_end7:
	.size	lv_task_set_cb, .Lfunc_end7-lv_task_set_cb
	.cfi_endproc
	.cantunwind
	.fnend
                                        @ -- End function
	.section	.text.lv_task_del,"ax",%progbits
	.hidden	lv_task_del                     @ -- Begin function lv_task_del
	.globl	lv_task_del
	.p2align	3
	.type	lv_task_del,%function
	.code	16                              @ @lv_task_del
	.thumb_func
lv_task_del:
.Lfunc_begin8:
	.loc	1 267 0                         @ lvgl/src/lv_misc/lv_task.c:267:0
	.fnstart
	.cfi_startproc
@ %bb.0:
	@DEBUG_VALUE: lv_task_del:task <- $r0
	.save	{r4, r5, r7, lr}
	push	{r4, r5, r7, lr}
	.cfi_def_cfa_offset 16
	.cfi_offset lr, -4
	.cfi_offset r7, -8
	.cfi_offset r5, -12
	.cfi_offset r4, -16
	mov	r4, r0
.Ltmp124:
	@DEBUG_VALUE: lv_task_del:task <- $r4
	@DEBUG_VALUE: lv_task_del:task <- $r4
	.loc	1 268 5 prologue_end            @ lvgl/src/lv_misc/lv_task.c:268:5
	movw	r0, :lower16:_lv_task_ll
	movt	r0, :upper16:_lv_task_ll
	mov	r1, r4
	bl	_lv_ll_remove
	.loc	1 269 23                        @ lvgl/src/lv_misc/lv_task.c:269:23
	movw	r0, :lower16:task_list_changed
	movs	r5, #1
	movt	r0, :upper16:task_list_changed
	strb	r5, [r0]
	.loc	1 271 5                         @ lvgl/src/lv_misc/lv_task.c:271:5
	mov	r0, r4
	bl	lv_mem_free
.Ltmp125:
	.loc	1 273 8                         @ lvgl/src/lv_misc/lv_task.c:273:8
	movw	r0, :lower16:_lv_task_act
	movt	r0, :upper16:_lv_task_act
	ldr	r0, [r0]
.Ltmp126:
	.loc	1 273 8 is_stmt 0               @ lvgl/src/lv_misc/lv_task.c:273:8
	cmp	r0, r4
	.loc	1 274 1 is_stmt 1               @ lvgl/src/lv_misc/lv_task.c:274:1
	it	ne
	popne	{r4, r5, r7, pc}
.Ltmp127:
.LBB8_1:
	.loc	1 273 55                        @ lvgl/src/lv_misc/lv_task.c:273:55
	movw	r0, :lower16:task_deleted
	movt	r0, :upper16:task_deleted
	strb	r5, [r0]
.Ltmp128:
	.loc	1 274 1                         @ lvgl/src/lv_misc/lv_task.c:274:1
	pop	{r4, r5, r7, pc}
.Ltmp129:
.Lfunc_end8:
	.size	lv_task_del, .Lfunc_end8-lv_task_del
	.cfi_endproc
	.cantunwind
	.fnend
                                        @ -- End function
	.section	.text.lv_task_set_prio,"ax",%progbits
	.hidden	lv_task_set_prio                @ -- Begin function lv_task_set_prio
	.globl	lv_task_set_prio
	.p2align	3
	.type	lv_task_set_prio,%function
	.code	16                              @ @lv_task_set_prio
	.thumb_func
lv_task_set_prio:
.Lfunc_begin9:
	.loc	1 282 0                         @ lvgl/src/lv_misc/lv_task.c:282:0
	.fnstart
	.cfi_startproc
@ %bb.0:
	@DEBUG_VALUE: lv_task_set_prio:task <- $r0
	@DEBUG_VALUE: lv_task_set_prio:prio <- $r1
	.save	{r4, r5, r6, lr}
	push	{r4, r5, r6, lr}
	.cfi_def_cfa_offset 16
	.cfi_offset lr, -4
	.cfi_offset r6, -8
	.cfi_offset r5, -12
	.cfi_offset r4, -16
	mov	r4, r0
.Ltmp130:
	@DEBUG_VALUE: lv_task_set_prio:task <- $r4
	.loc	1 283 14 prologue_end           @ lvgl/src/lv_misc/lv_task.c:283:14
	ldrb	r0, [r0, #20]
	and	r0, r0, #7
.Ltmp131:
	@DEBUG_VALUE: lv_task_set_prio:prio <- $r1
	.loc	1 283 8 is_stmt 0               @ lvgl/src/lv_misc/lv_task.c:283:8
	cmp	r0, r1
	.loc	1 301 1 is_stmt 1               @ lvgl/src/lv_misc/lv_task.c:301:1
	it	eq
	popeq	{r4, r5, r6, pc}
.Ltmp132:
.LBB9_1:
	@DEBUG_VALUE: lv_task_set_prio:prio <- $r1
	.loc	1 287 5                         @ lvgl/src/lv_misc/lv_task.c:287:5
	movw	r0, :lower16:_lv_task_ll
	mov	r5, r1
.Ltmp133:
	@DEBUG_VALUE: lv_task_set_prio:prio <- $r5
	@DEBUG_VALUE: lv_task_set_prio:prio <- $r5
	movt	r0, :upper16:_lv_task_ll
	bl	_lv_ll_get_head
.Ltmp134:
	@DEBUG_VALUE: lv_task_set_prio:i <- $r0
	cbz	r0, .LBB9_5
.Ltmp135:
@ %bb.2:
	@DEBUG_VALUE: lv_task_set_prio:prio <- $r5
	@DEBUG_VALUE: lv_task_set_prio:i <- $r0
	.loc	1 0 5 is_stmt 0                 @ lvgl/src/lv_misc/lv_task.c:0:5
	movw	r6, :lower16:_lv_task_ll
	mov	r2, r0
.Ltmp136:
	@DEBUG_VALUE: lv_task_set_prio:i <- $r2
	movt	r6, :upper16:_lv_task_ll
.Ltmp137:
	.p2align	2
.LBB9_3:                                @ =>This Inner Loop Header: Depth=1
	@DEBUG_VALUE: lv_task_set_prio:prio <- $r5
	@DEBUG_VALUE: lv_task_set_prio:i <- $r2
	.loc	1 288 15 is_stmt 1              @ lvgl/src/lv_misc/lv_task.c:288:15
	ldrb	r0, [r2, #20]
	and	r0, r0, #7
.Ltmp138:
	.loc	1 288 12 is_stmt 0              @ lvgl/src/lv_misc/lv_task.c:288:12
	cmp	r0, r5
	bls	.LBB9_6
.Ltmp139:
@ %bb.4:                                @   in Loop: Header=BB9_3 Depth=1
	@DEBUG_VALUE: lv_task_set_prio:prio <- $r5
	@DEBUG_VALUE: lv_task_set_prio:i <- $r2
	.loc	1 287 5 is_stmt 1               @ lvgl/src/lv_misc/lv_task.c:287:5
	mov	r0, r6
	mov	r1, r2
	bl	_lv_ll_get_next
.Ltmp140:
	mov	r2, r0
.Ltmp141:
	@DEBUG_VALUE: lv_task_set_prio:i <- $r2
	.loc	1 287 5 is_stmt 0               @ lvgl/src/lv_misc/lv_task.c:287:5
	cmp	r0, #0
	bne	.LBB9_3
.Ltmp142:
.LBB9_5:
	@DEBUG_VALUE: lv_task_set_prio:prio <- $r5
	.loc	1 296 9 is_stmt 1               @ lvgl/src/lv_misc/lv_task.c:296:9
	movw	r0, :lower16:_lv_task_ll
	movs	r2, #0
	b	.LBB9_8
.Ltmp143:
.LBB9_6:
	@DEBUG_VALUE: lv_task_set_prio:prio <- $r5
	@DEBUG_VALUE: lv_task_set_prio:i <- $r2
	.loc	1 289 16                        @ lvgl/src/lv_misc/lv_task.c:289:16
	cmp	r2, r4
	beq	.LBB9_9
.Ltmp144:
@ %bb.7:
	@DEBUG_VALUE: lv_task_set_prio:prio <- $r5
	@DEBUG_VALUE: lv_task_set_prio:i <- $r2
	.loc	1 289 27 is_stmt 0              @ lvgl/src/lv_misc/lv_task.c:289:27
	movw	r0, :lower16:_lv_task_ll
.Ltmp145:
.LBB9_8:
	@DEBUG_VALUE: lv_task_set_prio:prio <- $r5
	.loc	1 0 0                           @ lvgl/src/lv_misc/lv_task.c:0:0
	movt	r0, :upper16:_lv_task_ll
	mov	r1, r4
	bl	_lv_ll_move_before
.Ltmp146:
.LBB9_9:
	@DEBUG_VALUE: lv_task_set_prio:prio <- $r5
	.loc	1 298 23 is_stmt 1              @ lvgl/src/lv_misc/lv_task.c:298:23
	movw	r0, :lower16:task_list_changed
	.loc	1 300 16                        @ lvgl/src/lv_misc/lv_task.c:300:16
	ldrb	r1, [r4, #20]
	.loc	1 298 23                        @ lvgl/src/lv_misc/lv_task.c:298:23
	movt	r0, :upper16:task_list_changed
	movs	r2, #1
	.loc	1 300 16                        @ lvgl/src/lv_misc/lv_task.c:300:16
	and	r1, r1, #248
	.loc	1 298 23                        @ lvgl/src/lv_misc/lv_task.c:298:23
	strb	r2, [r0]
	.loc	1 300 16                        @ lvgl/src/lv_misc/lv_task.c:300:16
	and	r0, r5, #7
	add	r0, r1
	strb	r0, [r4, #20]
	.loc	1 301 1                         @ lvgl/src/lv_misc/lv_task.c:301:1
	pop	{r4, r5, r6, pc}
.Ltmp147:
.Lfunc_end9:
	.size	lv_task_set_prio, .Lfunc_end9-lv_task_set_prio
	.cfi_endproc
	.cantunwind
	.fnend
                                        @ -- End function
	.section	.text.lv_task_set_period,"ax",%progbits
	.hidden	lv_task_set_period              @ -- Begin function lv_task_set_period
	.globl	lv_task_set_period
	.p2align	3
	.type	lv_task_set_period,%function
	.code	16                              @ @lv_task_set_period
	.thumb_func
lv_task_set_period:
.Lfunc_begin10:
	.loc	1 309 0                         @ lvgl/src/lv_misc/lv_task.c:309:0
	.fnstart
	.cfi_startproc
@ %bb.0:
	@DEBUG_VALUE: lv_task_set_period:task <- $r0
	@DEBUG_VALUE: lv_task_set_period:task <- $r0
	@DEBUG_VALUE: lv_task_set_period:period <- $r1
	@DEBUG_VALUE: lv_task_set_period:period <- $r1
	.loc	1 310 18 prologue_end           @ lvgl/src/lv_misc/lv_task.c:310:18
	str	r1, [r0]
	.loc	1 311 1                         @ lvgl/src/lv_misc/lv_task.c:311:1
	bx	lr
.Ltmp148:
.Lfunc_end10:
	.size	lv_task_set_period, .Lfunc_end10-lv_task_set_period
	.cfi_endproc
	.cantunwind
	.fnend
                                        @ -- End function
	.section	.text.lv_task_ready,"ax",%progbits
	.hidden	lv_task_ready                   @ -- Begin function lv_task_ready
	.globl	lv_task_ready
	.p2align	3
	.type	lv_task_ready,%function
	.code	16                              @ @lv_task_ready
	.thumb_func
lv_task_ready:
.Lfunc_begin11:
	.loc	1 318 0                         @ lvgl/src/lv_misc/lv_task.c:318:0
	.fnstart
	.cfi_startproc
@ %bb.0:
	@DEBUG_VALUE: lv_task_ready:task <- $r0
	.save	{r4, lr}
	push	{r4, lr}
	.cfi_def_cfa_offset 8
	.cfi_offset lr, -4
	.cfi_offset r4, -8
	mov	r4, r0
.Ltmp149:
	@DEBUG_VALUE: lv_task_ready:task <- $r4
	@DEBUG_VALUE: lv_task_ready:task <- $r4
	.loc	1 319 22 prologue_end           @ lvgl/src/lv_misc/lv_task.c:319:22
	bl	lv_tick_get
	.loc	1 319 44 is_stmt 0              @ lvgl/src/lv_misc/lv_task.c:319:44
	ldr	r1, [r4]
	.loc	1 319 51                        @ lvgl/src/lv_misc/lv_task.c:319:51
	mvns	r1, r1
	add	r0, r1
	.loc	1 319 20                        @ lvgl/src/lv_misc/lv_task.c:319:20
	str	r0, [r4, #4]
	.loc	1 320 1 is_stmt 1               @ lvgl/src/lv_misc/lv_task.c:320:1
	pop	{r4, pc}
.Ltmp150:
.Lfunc_end11:
	.size	lv_task_ready, .Lfunc_end11-lv_task_ready
	.cfi_endproc
	.cantunwind
	.fnend
                                        @ -- End function
	.section	.text.lv_task_set_repeat_count,"ax",%progbits
	.hidden	lv_task_set_repeat_count        @ -- Begin function lv_task_set_repeat_count
	.globl	lv_task_set_repeat_count
	.p2align	3
	.type	lv_task_set_repeat_count,%function
	.code	16                              @ @lv_task_set_repeat_count
	.thumb_func
lv_task_set_repeat_count:
.Lfunc_begin12:
	.loc	1 328 0                         @ lvgl/src/lv_misc/lv_task.c:328:0
	.fnstart
	.cfi_startproc
@ %bb.0:
	@DEBUG_VALUE: lv_task_set_repeat_count:task <- $r0
	@DEBUG_VALUE: lv_task_set_repeat_count:task <- $r0
	@DEBUG_VALUE: lv_task_set_repeat_count:repeat_count <- $r1
	@DEBUG_VALUE: lv_task_set_repeat_count:repeat_count <- $r1
	.loc	1 329 24 prologue_end           @ lvgl/src/lv_misc/lv_task.c:329:24
	str	r1, [r0, #16]
	.loc	1 330 1                         @ lvgl/src/lv_misc/lv_task.c:330:1
	bx	lr
.Ltmp151:
.Lfunc_end12:
	.size	lv_task_set_repeat_count, .Lfunc_end12-lv_task_set_repeat_count
	.cfi_endproc
	.cantunwind
	.fnend
                                        @ -- End function
	.section	.text.lv_task_reset,"ax",%progbits
	.hidden	lv_task_reset                   @ -- Begin function lv_task_reset
	.globl	lv_task_reset
	.p2align	3
	.type	lv_task_reset,%function
	.code	16                              @ @lv_task_reset
	.thumb_func
lv_task_reset:
.Lfunc_begin13:
	.loc	1 338 0                         @ lvgl/src/lv_misc/lv_task.c:338:0
	.fnstart
	.cfi_startproc
@ %bb.0:
	@DEBUG_VALUE: lv_task_reset:task <- $r0
	.save	{r4, lr}
	push	{r4, lr}
	.cfi_def_cfa_offset 8
	.cfi_offset lr, -4
	.cfi_offset r4, -8
	mov	r4, r0
.Ltmp152:
	@DEBUG_VALUE: lv_task_reset:task <- $r4
	@DEBUG_VALUE: lv_task_reset:task <- $r4
	.loc	1 339 22 prologue_end           @ lvgl/src/lv_misc/lv_task.c:339:22
	bl	lv_tick_get
	.loc	1 339 20 is_stmt 0              @ lvgl/src/lv_misc/lv_task.c:339:20
	str	r0, [r4, #4]
	.loc	1 340 1 is_stmt 1               @ lvgl/src/lv_misc/lv_task.c:340:1
	pop	{r4, pc}
.Ltmp153:
.Lfunc_end13:
	.size	lv_task_reset, .Lfunc_end13-lv_task_reset
	.cfi_endproc
	.cantunwind
	.fnend
                                        @ -- End function
	.section	.text.lv_task_get_idle,"ax",%progbits
	.hidden	lv_task_get_idle                @ -- Begin function lv_task_get_idle
	.globl	lv_task_get_idle
	.p2align	3
	.type	lv_task_get_idle,%function
	.code	16                              @ @lv_task_get_idle
	.thumb_func
lv_task_get_idle:
.Lfunc_begin14:
	.loc	1 356 0                         @ lvgl/src/lv_misc/lv_task.c:356:0
	.fnstart
	.cfi_startproc
@ %bb.0:
	.loc	1 357 12 prologue_end           @ lvgl/src/lv_misc/lv_task.c:357:12
	movw	r0, :lower16:idle_last
	movt	r0, :upper16:idle_last
	ldrb	r0, [r0]
	.loc	1 357 5 is_stmt 0               @ lvgl/src/lv_misc/lv_task.c:357:5
	bx	lr
.Ltmp154:
.Lfunc_end14:
	.size	lv_task_get_idle, .Lfunc_end14-lv_task_get_idle
	.cfi_endproc
	.cantunwind
	.fnend
                                        @ -- End function
	.section	.text.lv_task_get_next,"ax",%progbits
	.hidden	lv_task_get_next                @ -- Begin function lv_task_get_next
	.globl	lv_task_get_next
	.p2align	3
	.type	lv_task_get_next,%function
	.code	16                              @ @lv_task_get_next
	.thumb_func
lv_task_get_next:
.Lfunc_begin15:
	.loc	1 366 0 is_stmt 1               @ lvgl/src/lv_misc/lv_task.c:366:0
	.fnstart
	.cfi_startproc
@ %bb.0:
	@DEBUG_VALUE: lv_task_get_next:task <- $r0
	@DEBUG_VALUE: lv_task_get_next:task <- $r0
	.save	{r7, lr}
	push	{r7, lr}
	.cfi_def_cfa_offset 8
	.cfi_offset lr, -4
	.cfi_offset r7, -8
.Ltmp155:
	.loc	1 367 8 prologue_end            @ lvgl/src/lv_misc/lv_task.c:367:8
	cbz	r0, .LBB15_2
.Ltmp156:
@ %bb.1:
	@DEBUG_VALUE: lv_task_get_next:task <- $r0
	.loc	1 0 8 is_stmt 0                 @ lvgl/src/lv_misc/lv_task.c:0:8
	mov	r1, r0
.Ltmp157:
	@DEBUG_VALUE: lv_task_get_next:task <- $r1
	.loc	1 368 17 is_stmt 1              @ lvgl/src/lv_misc/lv_task.c:368:17
	movw	r0, :lower16:_lv_task_ll
	movt	r0, :upper16:_lv_task_ll
	bl	_lv_ll_get_next
.Ltmp158:
	.loc	1 369 1                         @ lvgl/src/lv_misc/lv_task.c:369:1
	pop	{r7, pc}
.LBB15_2:
.Ltmp159:
	@DEBUG_VALUE: lv_task_get_next:task <- $r0
	.loc	1 367 29                        @ lvgl/src/lv_misc/lv_task.c:367:29
	movw	r0, :lower16:_lv_task_ll
.Ltmp160:
	@DEBUG_VALUE: lv_task_get_next:task <- [DW_OP_LLVM_entry_value 1] $r0
	movt	r0, :upper16:_lv_task_ll
	bl	_lv_ll_get_head
.Ltmp161:
	.loc	1 369 1                         @ lvgl/src/lv_misc/lv_task.c:369:1
	pop	{r7, pc}
.Ltmp162:
.Lfunc_end15:
	.size	lv_task_get_next, .Lfunc_end15-lv_task_get_next
	.cfi_endproc
	.cantunwind
	.fnend
                                        @ -- End function
	.type	lv_task_handler.already_running,%object @ @lv_task_handler.already_running
	.section	.bss.lv_task_handler.already_running,"aw",%nobits
lv_task_handler.already_running:
	.byte	0                               @ 0x0
	.size	lv_task_handler.already_running, 1

	.type	lv_task_run,%object             @ @lv_task_run
	.section	.bss.lv_task_run,"aw",%nobits
lv_task_run:
	.byte	0                               @ 0x0
	.size	lv_task_run, 1

	.type	lv_task_handler.idle_period_start,%object @ @lv_task_handler.idle_period_start
	.section	.bss.lv_task_handler.idle_period_start,"aw",%nobits
	.p2align	2
lv_task_handler.idle_period_start:
	.long	0                               @ 0x0
	.size	lv_task_handler.idle_period_start, 4

	.type	lv_task_handler.busy_time,%object @ @lv_task_handler.busy_time
	.section	.bss.lv_task_handler.busy_time,"aw",%nobits
	.p2align	2
lv_task_handler.busy_time:
	.long	0                               @ 0x0
	.size	lv_task_handler.busy_time, 4

	.type	task_deleted,%object            @ @task_deleted
	.section	.bss.task_deleted,"aw",%nobits
task_deleted:
	.byte	0                               @ 0x0
	.size	task_deleted, 1

	.type	task_created,%object            @ @task_created
	.section	.bss.task_created,"aw",%nobits
task_created:
	.byte	0                               @ 0x0
	.size	task_created, 1

	.type	task_list_changed,%object       @ @task_list_changed
	.section	.bss.task_list_changed,"aw",%nobits
task_list_changed:
	.byte	0                               @ 0x0
	.size	task_list_changed, 1

	.type	idle_last,%object               @ @idle_last
	.section	.bss.idle_last,"aw",%nobits
idle_last:
	.byte	0                               @ 0x0
	.size	idle_last, 1

	.type	.L.str,%object                  @ @.str
	.section	.rodata.str1.1,"aMS",%progbits,1
.L.str:
	.asciz	"Out of memory"
	.size	.L.str, 14

	.section	".note.GNU-stack","",%progbits
	.eabi_attribute	30, 1	@ Tag_ABI_optimization_goals
	.ARM_attribute	16, 1	@ Tag_AV_eba