	.text
	.syntax unified
	.eabi_attribute	67, "2.09"	@ Tag_conformance
	.cpu	cortex-m7
	.eabi_attribute	6, 13	@ Tag_CPU_arch
	.eabi_attribute	7, 77	@ Tag_CPU_arch_profile
	.eabi_attribute	8, 0	@ Tag_ARM_ISA_use
	.eabi_attribute	9, 2	@ Tag_THUMB_ISA_use
	.fpu	fpv5-d16
	.eabi_attribute	36, 1	@ Tag_FP_HP_extension
	.eabi_attribute	34, 1	@ Tag_CPU_unaligned_access
	.eabi_attribute	17, 1	@ Tag_ABI_PCS_GOT_use
	.eabi_attribute	20, 2	@ Tag_ABI_FP_denormal
	.eabi_attribute	21, 0	@ Tag_ABI_FP_exceptions
	.eabi_attribute	23, 1	@ Tag_ABI_FP_number_model
	.eabi_attribute	24, 1	@ Tag_ABI_align_needed
	.eabi_attribute	25, 1	@ Tag_ABI_align_preserved
	.eabi_attribute	28, 1	@ Tag_ABI_VFP_args
	.eabi_attribute	38, 1	@ Tag_ABI_FP_16bit_format
	.eabi_attribute	18, 2	@ Tag_ABI_PCS_wchar_t
	.eabi_attribute	26, 1	@ Tag_ABI_enum_size
	.eabi_attribute	14, 0	@ Tag_ABI_PCS_R9_use
	.file	"lv_tabview.c"
	.file	1 "D:\\Keil_v5\\ARM\\ARMCLANG\\Bin\\..\\include" "stdint.h"
	.file	2 "E:\\STM32\\Learning\\STM32H750_ART_PI_RGBLCD" "lvgl/src/lv_widgets/../lv_core/../lv_draw/../lv_misc/lv_types.h"
	.file	3 "E:\\STM32\\Learning\\STM32H750_ART_PI_RGBLCD" "lvgl/src/lv_widgets/../lv_themes/../lv_core/lv_obj.h"
	.file	4 "E:\\STM32\\Learning\\STM32H750_ART_PI_RGBLCD" "lvgl/src/lv_widgets/../lv_core/../lv_font/../lv_misc/lv_ll.h"
	.file	5 "E:\\STM32\\Learning\\STM32H750_ART_PI_RGBLCD" "./lvgl/src/lv_conf.h"
	.file	6 "E:\\STM32\\Learning\\STM32H750_ART_PI_RGBLCD" "lvgl/src/lv_widgets/../lv_core/../lv_hal/../lv_misc/lv_area.h"
	.file	7 "E:\\STM32\\Learning\\STM32H750_ART_PI_RGBLCD" "lvgl/src/lv_widgets/../lv_themes/../lv_core/lv_style.h"
	.file	8 "E:\\STM32\\Learning\\STM32H750_ART_PI_RGBLCD" "lvgl/src/lv_widgets/../lv_core/../lv_hal/lv_hal_indev.h"
	.file	9 "E:\\STM32\\Learning\\STM32H750_ART_PI_RGBLCD" "lvgl/src/lv_widgets/../lv_core/../lv_draw/../lv_misc/lv_bidi.h"
	.file	10 "E:\\STM32\\Learning\\STM32H750_ART_PI_RGBLCD" "lvgl/src/lv_widgets/lv_tabview.c"
	.file	11 "E:\\STM32\\Learning\\STM32H750_ART_PI_RGBLCD" "lvgl/src/lv_widgets/lv_tabview.h"
	.file	12 "E:\\STM32\\Learning\\STM32H750_ART_PI_RGBLCD" "lvgl/src/lv_widgets/lv_cont.h"
	.file	13 "E:\\STM32\\Learning\\STM32H750_ART_PI_RGBLCD" "lvgl/src/lv_widgets/../lv_widgets/lv_page.h"
	.file	14 "E:\\STM32\\Learning\\STM32H750_ART_PI_RGBLCD" "lvgl/src/lv_widgets/../lv_themes/lv_theme.h"
	.file	15 "E:\\STM32\\Learning\\STM32H750_ART_PI_RGBLCD" "lvgl/src/lv_widgets/lv_btnmatrix.h"
	.file	16 "E:\\STM32\\Learning\\STM32H750_ART_PI_RGBLCD" "lvgl/src/lv_widgets/../lv_misc/lv_anim.h"
	.section	.text.lv_tabview_create,"ax",%progbits
	.hidden	lv_tabview_create               @ -- Begin function lv_tabview_create
	.globl	lv_tabview_create
	.p2align	3
	.type	lv_tabview_create,%function
	.code	16                              @ @lv_tabview_create
	.thumb_func
lv_tabview_create:
.Lfunc_begin0:
	.loc	10 73 0                         @ lvgl/src/lv_widgets/lv_tabview.c:73:0
	.fnstart
	.cfi_sections .debug_frame
	.cfi_startproc
@ %bb.0:
	.save	{r7, lr}
	push	{r7, lr}
	.cfi_def_cfa_offset 8
	.cfi_offset lr, -4
	.cfi_offset r7, -8
	.pad	#96
	sub	sp, #96
	.cfi_def_cfa_offset 104
	str	r0, [sp, #88]
	str	r1, [sp, #84]
.Ltmp0:
	.loc	10 77 40 prologue_end           @ lvgl/src/lv_widgets/lv_tabview.c:77:40
	ldr	r0, [sp, #88]
	.loc	10 77 45 is_stmt 0              @ lvgl/src/lv_widgets/lv_tabview.c:77:45
	ldr	r1, [sp, #84]
	.loc	10 77 26                        @ lvgl/src/lv_widgets/lv_tabview.c:77:26
	bl	lv_obj_create
	.loc	10 77 16                        @ lvgl/src/lv_widgets/lv_tabview.c:77:16
	str	r0, [sp, #80]
	.loc	10 78 5 is_stmt 1               @ lvgl/src/lv_widgets/lv_tabview.c:78:5
	b	.LBB0_1
.LBB0_1:
.Ltmp1:
	.loc	10 78 5 is_stmt 0               @ lvgl/src/lv_widgets/lv_tabview.c:78:5
	ldr	r0, [sp, #80]
	bl	lv_debug_check_null
.Ltmp2:
	.loc	10 78 5                         @ lvgl/src/lv_widgets/lv_tabview.c:78:5
	cbnz	r0, .LBB0_4
	b	.LBB0_2
.LBB0_2:
.Ltmp3:
	.loc	10 78 5                         @ lvgl/src/lv_widgets/lv_tabview.c:78:5
	ldr	r2, [sp, #80]
	movw	r0, :lower16:.L.str
	movt	r0, :upper16:.L.str
	movs	r3, #0
	bl	lv_debug_log_error
	b	.LBB0_3
.LBB0_3:                                @ =>This Inner Loop Header: Depth=1
	b	.LBB0_3
.Ltmp4:
.LBB0_4:
	.loc	10 78 5                         @ lvgl/src/lv_widgets/lv_tabview.c:78:5
	b	.LBB0_5
.Ltmp5:
.LBB0_5:
	.loc	10 79 8 is_stmt 1               @ lvgl/src/lv_widgets/lv_tabview.c:79:8
	ldr	r0, [sp, #80]
.Ltmp6:
	.loc	10 79 8 is_stmt 0               @ lvgl/src/lv_widgets/lv_tabview.c:79:8
	cbnz	r0, .LBB0_7
	b	.LBB0_6
.LBB0_6:
	.loc	10 0 8                          @ lvgl/src/lv_widgets/lv_tabview.c:0:8
	movs	r0, #0
.Ltmp7:
	.loc	10 79 25                        @ lvgl/src/lv_widgets/lv_tabview.c:79:25
	str	r0, [sp, #92]
	b	.LBB0_43
.Ltmp8:
.LBB0_7:
	.loc	10 80 8 is_stmt 1               @ lvgl/src/lv_widgets/lv_tabview.c:80:8
	movw	r0, :lower16:ancestor_signal
	movt	r0, :upper16:ancestor_signal
	ldr	r0, [r0]
.Ltmp9:
	.loc	10 80 8 is_stmt 0               @ lvgl/src/lv_widgets/lv_tabview.c:80:8
	cbnz	r0, .LBB0_9
	b	.LBB0_8
.LBB0_8:
.Ltmp10:
	.loc	10 80 72                        @ lvgl/src/lv_widgets/lv_tabview.c:80:72
	ldr	r0, [sp, #80]
	.loc	10 80 51                        @ lvgl/src/lv_widgets/lv_tabview.c:80:51
	bl	lv_obj_get_signal_cb
	.loc	10 80 49                        @ lvgl/src/lv_widgets/lv_tabview.c:80:49
	movw	r1, :lower16:ancestor_signal
	movt	r1, :upper16:ancestor_signal
	str	r0, [r1]
	.loc	10 80 33                        @ lvgl/src/lv_widgets/lv_tabview.c:80:33
	b	.LBB0_9
.Ltmp11:
.LBB0_9:
	.loc	10 83 55 is_stmt 1              @ lvgl/src/lv_widgets/lv_tabview.c:83:55
	ldr	r0, [sp, #80]
	movs	r1, #28
	.loc	10 83 30 is_stmt 0              @ lvgl/src/lv_widgets/lv_tabview.c:83:30
	bl	lv_obj_allocate_ext_attr
	.loc	10 83 24                        @ lvgl/src/lv_widgets/lv_tabview.c:83:24
	str	r0, [sp, #76]
	.loc	10 84 5 is_stmt 1               @ lvgl/src/lv_widgets/lv_tabview.c:84:5
	b	.LBB0_10
.LBB0_10:
.Ltmp12:
	.loc	10 84 5 is_stmt 0               @ lvgl/src/lv_widgets/lv_tabview.c:84:5
	ldr	r0, [sp, #76]
	bl	lv_debug_check_null
.Ltmp13:
	.loc	10 84 5                         @ lvgl/src/lv_widgets/lv_tabview.c:84:5
	cbnz	r0, .LBB0_13
	b	.LBB0_11
.LBB0_11:
.Ltmp14:
	.loc	10 84 5                         @ lvgl/src/lv_widgets/lv_tabview.c:84:5
	ldr	r2, [sp, #76]
	movw	r0, :lower16:.L.str
	movt	r0, :upper16:.L.str
	movs	r3, #0
	bl	lv_debug_log_error
	b	.LBB0_12
.LBB0_12:                               @ =>This Inner Loop Header: Depth=1
	b	.LBB0_12
.Ltmp15:
.LBB0_13:
	.loc	10 84 5                         @ lvgl/src/lv_widgets/lv_tabview.c:84:5
	b	.LBB0_14
.Ltmp16:
.LBB0_14:
	.loc	10 85 8 is_stmt 1               @ lvgl/src/lv_widgets/lv_tabview.c:85:8
	ldr	r0, [sp, #76]
.Ltmp17:
	.loc	10 85 8 is_stmt 0               @ lvgl/src/lv_widgets/lv_tabview.c:85:8
	cbnz	r0, .LBB0_16
	b	.LBB0_15
.LBB0_15:
.Ltmp18:
	.loc	10 86 20 is_stmt 1              @ lvgl/src/lv_widgets/lv_tabview.c:86:20
	ldr	r0, [sp, #80]
	.loc	10 86 9 is_stmt 0               @ lvgl/src/lv_widgets/lv_tabview.c:86:9
	bl	lv_obj_del
	movs	r0, #0
	.loc	10 87 9 is_stmt 1               @ lvgl/src/lv_widgets/lv_tabview.c:87:9
	str	r0, [sp, #92]
	b	.LBB0_43
.Ltmp19:
.LBB0_16:
	.loc	10 91 5                         @ lvgl/src/lv_widgets/lv_tabview.c:91:5
	ldr	r1, [sp, #76]
	movs	r0, #0
	.loc	10 91 23 is_stmt 0              @ lvgl/src/lv_widgets/lv_tabview.c:91:23
	strh	r0, [r1, #20]
	.loc	10 92 5 is_stmt 1               @ lvgl/src/lv_widgets/lv_tabview.c:92:5
	ldr	r1, [sp, #76]
	.loc	10 92 23 is_stmt 0              @ lvgl/src/lv_widgets/lv_tabview.c:92:23
	strh	r0, [r1, #22]
	.loc	10 93 5 is_stmt 1               @ lvgl/src/lv_widgets/lv_tabview.c:93:5
	ldr	r1, [sp, #76]
	.loc	10 93 23 is_stmt 0              @ lvgl/src/lv_widgets/lv_tabview.c:93:23
	strh	r0, [r1, #16]
	.loc	10 94 5 is_stmt 1               @ lvgl/src/lv_widgets/lv_tabview.c:94:5
	ldr	r1, [sp, #76]
	.loc	10 94 23 is_stmt 0              @ lvgl/src/lv_widgets/lv_tabview.c:94:23
	strh	r0, [r1, #18]
	.loc	10 95 5 is_stmt 1               @ lvgl/src/lv_widgets/lv_tabview.c:95:5
	ldr	r1, [sp, #76]
	.loc	10 95 23 is_stmt 0              @ lvgl/src/lv_widgets/lv_tabview.c:95:23
	str	r0, [r1, #8]
	.loc	10 96 5 is_stmt 1               @ lvgl/src/lv_widgets/lv_tabview.c:96:5
	ldr	r1, [sp, #76]
	.loc	10 96 23 is_stmt 0              @ lvgl/src/lv_widgets/lv_tabview.c:96:23
	str	r0, [r1, #4]
	.loc	10 97 5 is_stmt 1               @ lvgl/src/lv_widgets/lv_tabview.c:97:5
	ldr	r1, [sp, #76]
	.loc	10 97 23 is_stmt 0              @ lvgl/src/lv_widgets/lv_tabview.c:97:23
	str	r0, [r1]
	.loc	10 98 5 is_stmt 1               @ lvgl/src/lv_widgets/lv_tabview.c:98:5
	ldr	r1, [sp, #76]
	.loc	10 98 23 is_stmt 0              @ lvgl/src/lv_widgets/lv_tabview.c:98:23
	ldrb	r0, [r1, #26]
	and	r0, r0, #248
	adds	r0, #1
	strb	r0, [r1, #26]
	.loc	10 100 5 is_stmt 1              @ lvgl/src/lv_widgets/lv_tabview.c:100:5
	ldr	r1, [sp, #76]
	mov.w	r0, #300
	.loc	10 100 20 is_stmt 0             @ lvgl/src/lv_widgets/lv_tabview.c:100:20
	strh	r0, [r1, #24]
	.loc	10 104 26 is_stmt 1             @ lvgl/src/lv_widgets/lv_tabview.c:104:26
	ldr	r0, [sp, #80]
	.loc	10 104 5 is_stmt 0              @ lvgl/src/lv_widgets/lv_tabview.c:104:5
	movw	r1, :lower16:lv_tabview_signal
	movt	r1, :upper16:lv_tabview_signal
	bl	lv_obj_set_signal_cb
.Ltmp20:
	.loc	10 106 8 is_stmt 1              @ lvgl/src/lv_widgets/lv_tabview.c:106:8
	ldr	r0, [sp, #84]
.Ltmp21:
	.loc	10 106 8 is_stmt 0              @ lvgl/src/lv_widgets/lv_tabview.c:106:8
	cmp	r0, #0
	bne.w	.LBB0_30
	b	.LBB0_17
.LBB0_17:
	.loc	10 0 8                          @ lvgl/src/lv_widgets/lv_tabview.c:0:8
	movs	r0, #4
.Ltmp22:
	.loc	10 107 29 is_stmt 1             @ lvgl/src/lv_widgets/lv_tabview.c:107:29
	bl	lv_mem_alloc
	.loc	10 107 9 is_stmt 0              @ lvgl/src/lv_widgets/lv_tabview.c:107:9
	ldr	r1, [sp, #76]
	.loc	10 107 27                       @ lvgl/src/lv_widgets/lv_tabview.c:107:27
	str	r0, [r1, #12]
	.loc	10 108 9 is_stmt 1              @ lvgl/src/lv_widgets/lv_tabview.c:108:9
	b	.LBB0_18
.LBB0_18:
.Ltmp23:
	.loc	10 108 9 is_stmt 0              @ lvgl/src/lv_widgets/lv_tabview.c:108:9
	ldr	r0, [sp, #76]
	ldr	r0, [r0, #12]
	bl	lv_debug_check_null
.Ltmp24:
	.loc	10 108 9                        @ lvgl/src/lv_widgets/lv_tabview.c:108:9
	cbnz	r0, .LBB0_21
	b	.LBB0_19
.LBB0_19:
.Ltmp25:
	.loc	10 108 9                        @ lvgl/src/lv_widgets/lv_tabview.c:108:9
	ldr	r0, [sp, #76]
	ldr	r2, [r0, #12]
	movw	r0, :lower16:.L.str
	movt	r0, :upper16:.L.str
	movs	r3, #0
	bl	lv_debug_log_error
	b	.LBB0_20
.LBB0_20:                               @ =>This Inner Loop Header: Depth=1
	b	.LBB0_20
.Ltmp26:
.LBB0_21:
	.loc	10 108 9                        @ lvgl/src/lv_widgets/lv_tabview.c:108:9
	b	.LBB0_22
.Ltmp27:
.LBB0_22:
	.loc	10 109 12 is_stmt 1             @ lvgl/src/lv_widgets/lv_tabview.c:109:12
	ldr	r0, [sp, #76]
	.loc	10 109 17 is_stmt 0             @ lvgl/src/lv_widgets/lv_tabview.c:109:17
	ldr	r0, [r0, #12]
.Ltmp28:
	.loc	10 109 12                       @ lvgl/src/lv_widgets/lv_tabview.c:109:12
	cbnz	r0, .LBB0_24
	b	.LBB0_23
.LBB0_23:
	.loc	10 0 12                         @ lvgl/src/lv_widgets/lv_tabview.c:0:12
	movs	r0, #0
.Ltmp29:
	.loc	10 109 39                       @ lvgl/src/lv_widgets/lv_tabview.c:109:39
	str	r0, [sp, #92]
	b	.LBB0_43
.Ltmp30:
.LBB0_24:
	.loc	10 110 9 is_stmt 1              @ lvgl/src/lv_widgets/lv_tabview.c:110:9
	ldr	r0, [sp, #76]
	.loc	10 110 14 is_stmt 0             @ lvgl/src/lv_widgets/lv_tabview.c:110:14
	ldr	r1, [r0, #12]
	.loc	10 110 30                       @ lvgl/src/lv_widgets/lv_tabview.c:110:30
	movw	r0, :lower16:.L.str.1
	movt	r0, :upper16:.L.str.1
	str	r0, [r1]
.Ltmp31:
	.loc	10 117 12 is_stmt 1             @ lvgl/src/lv_widgets/lv_tabview.c:117:12
	ldr	r0, [sp, #88]
.Ltmp32:
	.loc	10 117 12 is_stmt 0             @ lvgl/src/lv_widgets/lv_tabview.c:117:12
	cbz	r0, .LBB0_26
	b	.LBB0_25
.LBB0_25:
.Ltmp33:
	.loc	10 118 56 is_stmt 1             @ lvgl/src/lv_widgets/lv_tabview.c:118:56
	ldr	r0, [sp, #80]
	.loc	10 118 38 is_stmt 0             @ lvgl/src/lv_widgets/lv_tabview.c:118:38
	bl	lv_obj_get_parent
	.loc	10 118 17                       @ lvgl/src/lv_widgets/lv_tabview.c:118:17
	bl	lv_obj_get_width_fit
	.loc	10 118 15                       @ lvgl/src/lv_widgets/lv_tabview.c:118:15
	strh.w	r0, [sp, #74]
	.loc	10 119 57 is_stmt 1             @ lvgl/src/lv_widgets/lv_tabview.c:119:57
	ldr	r0, [sp, #80]
	.loc	10 119 39 is_stmt 0             @ lvgl/src/lv_widgets/lv_tabview.c:119:39
	bl	lv_obj_get_parent
	.loc	10 119 17                       @ lvgl/src/lv_widgets/lv_tabview.c:119:17
	bl	lv_obj_get_height_fit
	.loc	10 119 15                       @ lvgl/src/lv_widgets/lv_tabview.c:119:15
	strh.w	r0, [sp, #72]
	.loc	10 120 9 is_stmt 1              @ lvgl/src/lv_widgets/lv_tabview.c:120:9
	b	.LBB0_27
.Ltmp34:
.LBB0_26:
	.loc	10 0 9 is_stmt 0                @ lvgl/src/lv_widgets/lv_tabview.c:0:9
	movs	r0, #0
.Ltmp35:
	.loc	10 122 17 is_stmt 1             @ lvgl/src/lv_widgets/lv_tabview.c:122:17
	str	r0, [sp, #52]                   @ 4-byte Spill
	bl	lv_disp_get_hor_res
	mov	r1, r0
	.loc	10 122 15 is_stmt 0             @ lvgl/src/lv_widgets/lv_tabview.c:122:15
	ldr	r0, [sp, #52]                   @ 4-byte Reload
	strh.w	r1, [sp, #74]
	.loc	10 123 17 is_stmt 1             @ lvgl/src/lv_widgets/lv_tabview.c:123:17
	bl	lv_disp_get_ver_res
	.loc	10 123 15 is_stmt 0             @ lvgl/src/lv_widgets/lv_tabview.c:123:15
	strh.w	r0, [sp, #72]
	b	.LBB0_27
.Ltmp36:
.LBB0_27:
	.loc	10 126 25 is_stmt 1             @ lvgl/src/lv_widgets/lv_tabview.c:126:25
	ldr	r0, [sp, #80]
	.loc	10 126 34 is_stmt 0             @ lvgl/src/lv_widgets/lv_tabview.c:126:34
	ldrsh.w	r1, [sp, #74]
	.loc	10 126 37                       @ lvgl/src/lv_widgets/lv_tabview.c:126:37
	ldrsh.w	r2, [sp, #72]
	.loc	10 126 9                        @ lvgl/src/lv_widgets/lv_tabview.c:126:9
	bl	lv_obj_set_size
	.loc	10 128 39 is_stmt 1             @ lvgl/src/lv_widgets/lv_tabview.c:128:39
	ldr	r0, [sp, #80]
	movs	r1, #0
	.loc	10 128 24 is_stmt 0             @ lvgl/src/lv_widgets/lv_tabview.c:128:24
	str	r1, [sp, #48]                   @ 4-byte Spill
	bl	lv_page_create
	ldr	r1, [sp, #48]                   @ 4-byte Reload
	.loc	10 128 9                        @ lvgl/src/lv_widgets/lv_tabview.c:128:9
	ldr	r2, [sp, #76]
	.loc	10 128 22                       @ lvgl/src/lv_widgets/lv_tabview.c:128:22
	str	r0, [r2, #8]
	.loc	10 129 44 is_stmt 1             @ lvgl/src/lv_widgets/lv_tabview.c:129:44
	ldr	r0, [sp, #80]
	.loc	10 129 24 is_stmt 0             @ lvgl/src/lv_widgets/lv_tabview.c:129:24
	bl	lv_btnmatrix_create
	ldr	r1, [sp, #48]                   @ 4-byte Reload
	.loc	10 129 9                        @ lvgl/src/lv_widgets/lv_tabview.c:129:9
	ldr	r2, [sp, #76]
	.loc	10 129 22                       @ lvgl/src/lv_widgets/lv_tabview.c:129:22
	str	r0, [r2]
	.loc	10 130 38 is_stmt 1             @ lvgl/src/lv_widgets/lv_tabview.c:130:38
	ldr	r0, [sp, #76]
	.loc	10 130 43 is_stmt 0             @ lvgl/src/lv_widgets/lv_tabview.c:130:43
	ldr	r0, [r0]
	.loc	10 130 24                       @ lvgl/src/lv_widgets/lv_tabview.c:130:24
	bl	lv_obj_create
	.loc	10 130 9                        @ lvgl/src/lv_widgets/lv_tabview.c:130:9
	ldr	r1, [sp, #76]
	.loc	10 130 22                       @ lvgl/src/lv_widgets/lv_tabview.c:130:22
	str	r0, [r1, #4]
.Ltmp37:
	.loc	10 132 12 is_stmt 1             @ lvgl/src/lv_widgets/lv_tabview.c:132:12
	movw	r0, :lower16:ancestor_scrl_signal
	movt	r0, :upper16:ancestor_scrl_signal
	ldr	r0, [r0]
.Ltmp38:
	.loc	10 132 12 is_stmt 0             @ lvgl/src/lv_widgets/lv_tabview.c:132:12
	cbnz	r0, .LBB0_29
	b	.LBB0_28
.LBB0_28:
.Ltmp39:
	.loc	10 132 109                      @ lvgl/src/lv_widgets/lv_tabview.c:132:109
	ldr	r0, [sp, #76]
	.loc	10 132 114                      @ lvgl/src/lv_widgets/lv_tabview.c:132:114
	ldr	r0, [r0, #8]
	.loc	10 132 86                       @ lvgl/src/lv_widgets/lv_tabview.c:132:86
	bl	lv_page_get_scrollable
	.loc	10 132 65                       @ lvgl/src/lv_widgets/lv_tabview.c:132:65
	bl	lv_obj_get_signal_cb
	.loc	10 132 63                       @ lvgl/src/lv_widgets/lv_tabview.c:132:63
	movw	r1, :lower16:ancestor_scrl_signal
	movt	r1, :upper16:ancestor_scrl_signal
	str	r0, [r1]
	.loc	10 132 42                       @ lvgl/src/lv_widgets/lv_tabview.c:132:42
	b	.LBB0_29
.Ltmp40:
.LBB0_29:
	.loc	10 133 53 is_stmt 1             @ lvgl/src/lv_widgets/lv_tabview.c:133:53
	ldr	r0, [sp, #76]
	.loc	10 133 58 is_stmt 0             @ lvgl/src/lv_widgets/lv_tabview.c:133:58
	ldr	r0, [r0, #8]
	.loc	10 133 30                       @ lvgl/src/lv_widgets/lv_tabview.c:133:30
	bl	lv_page_get_scrollable
	.loc	10 133 9                        @ lvgl/src/lv_widgets/lv_tabview.c:133:9
	movw	r1, :lower16:tabview_scrl_signal
	movt	r1, :upper16:tabview_scrl_signal
	bl	lv_obj_set_signal_cb
	.loc	10 135 30 is_stmt 1             @ lvgl/src/lv_widgets/lv_tabview.c:135:30
	ldr	r0, [sp, #76]
	.loc	10 135 35 is_stmt 0             @ lvgl/src/lv_widgets/lv_tabview.c:135:35
	ldr	r0, [r0]
	.loc	10 135 9                        @ lvgl/src/lv_widgets/lv_tabview.c:135:9
	movw	r1, :lower16:tab_def
	movt	r1, :upper16:tab_def
	bl	lv_btnmatrix_set_map
	.loc	10 136 29 is_stmt 1             @ lvgl/src/lv_widgets/lv_tabview.c:136:29
	ldr	r0, [sp, #76]
	.loc	10 136 34 is_stmt 0             @ lvgl/src/lv_widgets/lv_tabview.c:136:34
	ldr	r0, [r0]
	.loc	10 136 9                        @ lvgl/src/lv_widgets/lv_tabview.c:136:9
	movw	r1, :lower16:tab_btnm_event_cb
	movt	r1, :upper16:tab_btnm_event_cb
	bl	lv_obj_set_event_cb
	.loc	10 138 26 is_stmt 1             @ lvgl/src/lv_widgets/lv_tabview.c:138:26
	ldr	r0, [sp, #76]
	.loc	10 138 31 is_stmt 0             @ lvgl/src/lv_widgets/lv_tabview.c:138:31
	ldr	r0, [r0, #4]
	movs	r1, #0
	.loc	10 138 9                        @ lvgl/src/lv_widgets/lv_tabview.c:138:9
	str	r1, [sp, #44]                   @ 4-byte Spill
	bl	lv_obj_set_click
	.loc	10 139 52 is_stmt 1             @ lvgl/src/lv_widgets/lv_tabview.c:139:52
	ldr	r0, [sp, #76]
	.loc	10 139 57 is_stmt 0             @ lvgl/src/lv_widgets/lv_tabview.c:139:57
	ldr	r0, [r0, #8]
	.loc	10 139 29                       @ lvgl/src/lv_widgets/lv_tabview.c:139:29
	bl	lv_page_get_scrollable
	movs	r1, #4
	.loc	10 139 9                        @ lvgl/src/lv_widgets/lv_tabview.c:139:9
	bl	lv_obj_set_drag_dir
	.loc	10 141 37 is_stmt 1             @ lvgl/src/lv_widgets/lv_tabview.c:141:37
	ldr	r0, [sp, #76]
	.loc	10 141 42 is_stmt 0             @ lvgl/src/lv_widgets/lv_tabview.c:141:42
	ldr	r0, [r0, #8]
	movs	r1, #1
	movs	r2, #2
	.loc	10 141 9                        @ lvgl/src/lv_widgets/lv_tabview.c:141:9
	bl	lv_page_set_scrollable_fit2
	.loc	10 142 33 is_stmt 1             @ lvgl/src/lv_widgets/lv_tabview.c:142:33
	ldr	r0, [sp, #76]
	.loc	10 142 38 is_stmt 0             @ lvgl/src/lv_widgets/lv_tabview.c:142:38
	ldr	r0, [r0, #8]
	movs	r1, #5
	.loc	10 142 9                        @ lvgl/src/lv_widgets/lv_tabview.c:142:9
	bl	lv_page_set_scrl_layout
	ldr	r1, [sp, #44]                   @ 4-byte Reload
	.loc	10 143 36 is_stmt 1             @ lvgl/src/lv_widgets/lv_tabview.c:143:36
	ldr	r0, [sp, #76]
	.loc	10 143 41 is_stmt 0             @ lvgl/src/lv_widgets/lv_tabview.c:143:41
	ldr	r0, [r0, #8]
	.loc	10 143 9                        @ lvgl/src/lv_widgets/lv_tabview.c:143:9
	bl	lv_page_set_scrollbar_mode
	ldr	r1, [sp, #44]                   @ 4-byte Reload
	.loc	10 145 33 is_stmt 1             @ lvgl/src/lv_widgets/lv_tabview.c:145:33
	ldr	r0, [sp, #76]
	.loc	10 145 38 is_stmt 0             @ lvgl/src/lv_widgets/lv_tabview.c:145:38
	ldr	r0, [r0, #8]
	.loc	10 145 9                        @ lvgl/src/lv_widgets/lv_tabview.c:145:9
	bl	lv_obj_clean_style_list
	.loc	10 147 24 is_stmt 1             @ lvgl/src/lv_widgets/lv_tabview.c:147:24
	ldr	r0, [sp, #80]
	movs	r1, #35
	.loc	10 147 9 is_stmt 0              @ lvgl/src/lv_widgets/lv_tabview.c:147:9
	bl	lv_theme_apply
	.loc	10 149 5 is_stmt 1              @ lvgl/src/lv_widgets/lv_tabview.c:149:5
	b	.LBB0_42
.Ltmp41:
.LBB0_30:
	.loc	10 152 59                       @ lvgl/src/lv_widgets/lv_tabview.c:152:59
	ldr	r0, [sp, #84]
	.loc	10 152 39 is_stmt 0             @ lvgl/src/lv_widgets/lv_tabview.c:152:39
	bl	lv_obj_get_ext_attr
	.loc	10 152 28                       @ lvgl/src/lv_widgets/lv_tabview.c:152:28
	str	r0, [sp, #68]
	.loc	10 153 9 is_stmt 1              @ lvgl/src/lv_widgets/lv_tabview.c:153:9
	ldr	r1, [sp, #76]
	movs	r0, #0
	.loc	10 153 37 is_stmt 0             @ lvgl/src/lv_widgets/lv_tabview.c:153:37
	strh	r0, [r1, #16]
	.loc	10 154 9 is_stmt 1              @ lvgl/src/lv_widgets/lv_tabview.c:154:9
	ldr	r1, [sp, #76]
	.loc	10 154 37 is_stmt 0             @ lvgl/src/lv_widgets/lv_tabview.c:154:37
	strh	r0, [r1, #18]
	.loc	10 155 59 is_stmt 1             @ lvgl/src/lv_widgets/lv_tabview.c:155:59
	ldr	r0, [sp, #80]
	.loc	10 155 68 is_stmt 0             @ lvgl/src/lv_widgets/lv_tabview.c:155:68
	ldr	r1, [sp, #68]
	.loc	10 155 78                       @ lvgl/src/lv_widgets/lv_tabview.c:155:78
	ldr	r1, [r1]
	.loc	10 155 39                       @ lvgl/src/lv_widgets/lv_tabview.c:155:39
	bl	lv_btnmatrix_create
	.loc	10 155 9                        @ lvgl/src/lv_widgets/lv_tabview.c:155:9
	ldr	r1, [sp, #76]
	.loc	10 155 37                       @ lvgl/src/lv_widgets/lv_tabview.c:155:37
	str	r0, [r1]
	.loc	10 156 53 is_stmt 1             @ lvgl/src/lv_widgets/lv_tabview.c:156:53
	ldr	r0, [sp, #76]
	.loc	10 156 58 is_stmt 0             @ lvgl/src/lv_widgets/lv_tabview.c:156:58
	ldr	r0, [r0]
	.loc	10 156 64                       @ lvgl/src/lv_widgets/lv_tabview.c:156:64
	ldr	r1, [sp, #68]
	.loc	10 156 74                       @ lvgl/src/lv_widgets/lv_tabview.c:156:74
	ldr	r1, [r1, #4]
	.loc	10 156 39                       @ lvgl/src/lv_widgets/lv_tabview.c:156:39
	bl	lv_obj_create
	.loc	10 156 9                        @ lvgl/src/lv_widgets/lv_tabview.c:156:9
	ldr	r1, [sp, #76]
	.loc	10 156 37                       @ lvgl/src/lv_widgets/lv_tabview.c:156:37
	str	r0, [r1, #4]
	.loc	10 157 54 is_stmt 1             @ lvgl/src/lv_widgets/lv_tabview.c:157:54
	ldr	r0, [sp, #80]
	.loc	10 157 63 is_stmt 0             @ lvgl/src/lv_widgets/lv_tabview.c:157:63
	ldr	r1, [sp, #68]
	.loc	10 157 73                       @ lvgl/src/lv_widgets/lv_tabview.c:157:73
	ldr	r1, [r1, #8]
	.loc	10 157 39                       @ lvgl/src/lv_widgets/lv_tabview.c:157:39
	bl	lv_page_create
	.loc	10 157 9                        @ lvgl/src/lv_widgets/lv_tabview.c:157:9
	ldr	r1, [sp, #76]
	.loc	10 157 37                       @ lvgl/src/lv_widgets/lv_tabview.c:157:37
	str	r0, [r1, #8]
	.loc	10 159 26 is_stmt 1             @ lvgl/src/lv_widgets/lv_tabview.c:159:26
	ldr	r0, [sp, #68]
	.loc	10 159 36 is_stmt 0             @ lvgl/src/lv_widgets/lv_tabview.c:159:36
	ldrh	r0, [r0, #24]
	.loc	10 159 9                        @ lvgl/src/lv_widgets/lv_tabview.c:159:9
	ldr	r1, [sp, #76]
	.loc	10 159 24                       @ lvgl/src/lv_widgets/lv_tabview.c:159:24
	strh	r0, [r1, #24]
	movs	r0, #4
	.loc	10 162 29 is_stmt 1             @ lvgl/src/lv_widgets/lv_tabview.c:162:29
	bl	lv_mem_alloc
	.loc	10 162 9 is_stmt 0              @ lvgl/src/lv_widgets/lv_tabview.c:162:9
	ldr	r1, [sp, #76]
	.loc	10 162 27                       @ lvgl/src/lv_widgets/lv_tabview.c:162:27
	str	r0, [r1, #12]
	.loc	10 163 9 is_stmt 1              @ lvgl/src/lv_widgets/lv_tabview.c:163:9
	b	.LBB0_31
.LBB0_31:
.Ltmp42:
	.loc	10 163 9 is_stmt 0              @ lvgl/src/lv_widgets/lv_tabview.c:163:9
	ldr	r0, [sp, #76]
	ldr	r0, [r0, #12]
	bl	lv_debug_check_null
.Ltmp43:
	.loc	10 163 9                        @ lvgl/src/lv_widgets/lv_tabview.c:163:9
	cbnz	r0, .LBB0_34
	b	.LBB0_32
.LBB0_32:
.Ltmp44:
	.loc	10 163 9                        @ lvgl/src/lv_widgets/lv_tabview.c:163:9
	ldr	r0, [sp, #76]
	ldr	r2, [r0, #12]
	movw	r0, :lower16:.L.str
	movt	r0, :upper16:.L.str
	movs	r3, #0
	bl	lv_debug_log_error
	b	.LBB0_33
.LBB0_33:                               @ =>This Inner Loop Header: Depth=1
	b	.LBB0_33
.Ltmp45:
.LBB0_34:
	.loc	10 163 9                        @ lvgl/src/lv_widgets/lv_tabview.c:163:9
	b	.LBB0_35
.Ltmp46:
.LBB0_35:
	.loc	10 164 12 is_stmt 1             @ lvgl/src/lv_widgets/lv_tabview.c:164:12
	ldr	r0, [sp, #76]
	.loc	10 164 17 is_stmt 0             @ lvgl/src/lv_widgets/lv_tabview.c:164:17
	ldr	r0, [r0, #12]
.Ltmp47:
	.loc	10 164 12                       @ lvgl/src/lv_widgets/lv_tabview.c:164:12
	cbnz	r0, .LBB0_37
	b	.LBB0_36
.LBB0_36:
	.loc	10 0 12                         @ lvgl/src/lv_widgets/lv_tabview.c:0:12
	movs	r0, #0
.Ltmp48:
	.loc	10 164 39                       @ lvgl/src/lv_widgets/lv_tabview.c:164:39
	str	r0, [sp, #92]
	b	.LBB0_43
.Ltmp49:
.LBB0_37:
	.loc	10 165 9 is_stmt 1              @ lvgl/src/lv_widgets/lv_tabview.c:165:9
	ldr	r0, [sp, #76]
	.loc	10 165 14 is_stmt 0             @ lvgl/src/lv_widgets/lv_tabview.c:165:14
	ldr	r1, [r0, #12]
	.loc	10 165 30                       @ lvgl/src/lv_widgets/lv_tabview.c:165:30
	movw	r0, :lower16:.L.str.1
	movt	r0, :upper16:.L.str.1
	str	r0, [r1]
	.loc	10 166 30 is_stmt 1             @ lvgl/src/lv_widgets/lv_tabview.c:166:30
	ldr	r1, [sp, #76]
	.loc	10 166 35 is_stmt 0             @ lvgl/src/lv_widgets/lv_tabview.c:166:35
	ldr	r0, [r1]
	.loc	10 166 46                       @ lvgl/src/lv_widgets/lv_tabview.c:166:46
	ldr	r1, [r1, #12]
	.loc	10 166 9                        @ lvgl/src/lv_widgets/lv_tabview.c:166:9
	bl	lv_btnmatrix_set_map
	.loc	10 168 50 is_stmt 1             @ lvgl/src/lv_widgets/lv_tabview.c:168:50
	ldr	r0, [sp, #80]
	movs	r1, #64
	.loc	10 168 28 is_stmt 0             @ lvgl/src/lv_widgets/lv_tabview.c:168:28
	str	r1, [sp, #20]                   @ 4-byte Spill
	bl	lv_obj_get_style_list
	ldr	r1, [sp, #20]                   @ 4-byte Reload
	.loc	10 168 113                      @ lvgl/src/lv_widgets/lv_tabview.c:168:113
	str	r0, [sp, #24]                   @ 4-byte Spill
	ldr	r0, [sp, #84]
	.loc	10 168 91                       @ lvgl/src/lv_widgets/lv_tabview.c:168:91
	bl	lv_obj_get_style_list
	mov	r1, r0
	.loc	10 168 9                        @ lvgl/src/lv_widgets/lv_tabview.c:168:9
	ldr	r0, [sp, #24]                   @ 4-byte Reload
	bl	lv_style_list_copy
	.loc	10 170 50 is_stmt 1             @ lvgl/src/lv_widgets/lv_tabview.c:170:50
	ldr	r0, [sp, #80]
	movs	r1, #65
	.loc	10 170 28 is_stmt 0             @ lvgl/src/lv_widgets/lv_tabview.c:170:28
	str	r1, [sp, #28]                   @ 4-byte Spill
	bl	lv_obj_get_style_list
	ldr	r1, [sp, #28]                   @ 4-byte Reload
	.loc	10 170 106                      @ lvgl/src/lv_widgets/lv_tabview.c:170:106
	str	r0, [sp, #32]                   @ 4-byte Spill
	ldr	r0, [sp, #84]
	.loc	10 170 84                       @ lvgl/src/lv_widgets/lv_tabview.c:170:84
	bl	lv_obj_get_style_list
	mov	r1, r0
	.loc	10 170 9                        @ lvgl/src/lv_widgets/lv_tabview.c:170:9
	ldr	r0, [sp, #32]                   @ 4-byte Reload
	bl	lv_style_list_copy
	.loc	10 172 50 is_stmt 1             @ lvgl/src/lv_widgets/lv_tabview.c:172:50
	ldr	r0, [sp, #80]
	movs	r1, #66
	.loc	10 172 28 is_stmt 0             @ lvgl/src/lv_widgets/lv_tabview.c:172:28
	str	r1, [sp, #36]                   @ 4-byte Spill
	bl	lv_obj_get_style_list
	ldr	r1, [sp, #36]                   @ 4-byte Reload
	.loc	10 172 107                      @ lvgl/src/lv_widgets/lv_tabview.c:172:107
	str	r0, [sp, #40]                   @ 4-byte Spill
	ldr	r0, [sp, #84]
	.loc	10 172 85                       @ lvgl/src/lv_widgets/lv_tabview.c:172:85
	bl	lv_obj_get_style_list
	mov	r1, r0
	.loc	10 172 9                        @ lvgl/src/lv_widgets/lv_tabview.c:172:9
	ldr	r0, [sp, #40]                   @ 4-byte Reload
	bl	lv_style_list_copy
	movs	r0, #0
.Ltmp50:
	.loc	10 176 15 is_stmt 1             @ lvgl/src/lv_widgets/lv_tabview.c:176:15
	strh.w	r0, [sp, #66]
	.loc	10 176 13 is_stmt 0             @ lvgl/src/lv_widgets/lv_tabview.c:176:13
	b	.LBB0_38
.LBB0_38:                               @ =>This Inner Loop Header: Depth=1
.Ltmp51:
	.loc	10 176 20                       @ lvgl/src/lv_widgets/lv_tabview.c:176:20
	ldrh.w	r0, [sp, #66]
	.loc	10 176 24                       @ lvgl/src/lv_widgets/lv_tabview.c:176:24
	ldr	r1, [sp, #68]
	.loc	10 176 34                       @ lvgl/src/lv_widgets/lv_tabview.c:176:34
	ldrh	r1, [r1, #22]
.Ltmp52:
	.loc	10 176 9                        @ lvgl/src/lv_widgets/lv_tabview.c:176:9
	cmp	r0, r1
	bge	.LBB0_41
	b	.LBB0_39
.LBB0_39:                               @   in Loop: Header=BB0_38 Depth=1
.Ltmp53:
	.loc	10 177 53 is_stmt 1             @ lvgl/src/lv_widgets/lv_tabview.c:177:53
	ldr	r0, [sp, #80]
	.loc	10 177 62 is_stmt 0             @ lvgl/src/lv_widgets/lv_tabview.c:177:62
	ldr	r1, [sp, #68]
	.loc	10 177 72                       @ lvgl/src/lv_widgets/lv_tabview.c:177:72
	ldr	r1, [r1, #12]
	.loc	10 177 85                       @ lvgl/src/lv_widgets/lv_tabview.c:177:85
	ldrh.w	r2, [sp, #66]
	.loc	10 177 62                       @ lvgl/src/lv_widgets/lv_tabview.c:177:62
	ldr.w	r1, [r1, r2, lsl #2]
	.loc	10 177 34                       @ lvgl/src/lv_widgets/lv_tabview.c:177:34
	bl	lv_tabview_add_tab
	.loc	10 177 24                       @ lvgl/src/lv_widgets/lv_tabview.c:177:24
	str	r0, [sp, #60]
	.loc	10 178 54 is_stmt 1             @ lvgl/src/lv_widgets/lv_tabview.c:178:54
	ldr	r0, [sp, #84]
	.loc	10 178 60 is_stmt 0             @ lvgl/src/lv_widgets/lv_tabview.c:178:60
	ldrh.w	r1, [sp, #66]
	.loc	10 178 35                       @ lvgl/src/lv_widgets/lv_tabview.c:178:35
	bl	lv_tabview_get_tab
	.loc	10 178 24                       @ lvgl/src/lv_widgets/lv_tabview.c:178:24
	str	r0, [sp, #56]
	.loc	10 179 54 is_stmt 1             @ lvgl/src/lv_widgets/lv_tabview.c:179:54
	ldr	r0, [sp, #60]
	movs	r1, #64
	.loc	10 179 32 is_stmt 0             @ lvgl/src/lv_widgets/lv_tabview.c:179:32
	str	r1, [sp, #4]                    @ 4-byte Spill
	bl	lv_obj_get_style_list
	ldr	r1, [sp, #4]                    @ 4-byte Reload
	.loc	10 179 111                      @ lvgl/src/lv_widgets/lv_tabview.c:179:111
	str	r0, [sp, #8]                    @ 4-byte Spill
	ldr	r0, [sp, #56]
	.loc	10 179 89                       @ lvgl/src/lv_widgets/lv_tabview.c:179:89
	bl	lv_obj_get_style_list
	mov	r1, r0
	.loc	10 179 13                       @ lvgl/src/lv_widgets/lv_tabview.c:179:13
	ldr	r0, [sp, #8]                    @ 4-byte Reload
	bl	lv_style_list_copy
	.loc	10 181 54 is_stmt 1             @ lvgl/src/lv_widgets/lv_tabview.c:181:54
	ldr	r0, [sp, #60]
	movs	r1, #1
	.loc	10 181 32 is_stmt 0             @ lvgl/src/lv_widgets/lv_tabview.c:181:32
	str	r1, [sp, #12]                   @ 4-byte Spill
	bl	lv_obj_get_style_list
	ldr	r1, [sp, #12]                   @ 4-byte Reload
	.loc	10 181 110                      @ lvgl/src/lv_widgets/lv_tabview.c:181:110
	str	r0, [sp, #16]                   @ 4-byte Spill
	ldr	r0, [sp, #56]
	.loc	10 181 88                       @ lvgl/src/lv_widgets/lv_tabview.c:181:88
	bl	lv_obj_get_style_list
	mov	r1, r0
	.loc	10 181 13                       @ lvgl/src/lv_widgets/lv_tabview.c:181:13
	ldr	r0, [sp, #16]                   @ 4-byte Reload
	bl	lv_style_list_copy
	.loc	10 183 34 is_stmt 1             @ lvgl/src/lv_widgets/lv_tabview.c:183:34
	ldr	r0, [sp, #60]
	movs	r2, #255
	.loc	10 183 13 is_stmt 0             @ lvgl/src/lv_widgets/lv_tabview.c:183:13
	mov	r1, r2
	bl	lv_obj_refresh_style
	.loc	10 184 9 is_stmt 1              @ lvgl/src/lv_widgets/lv_tabview.c:184:9
	b	.LBB0_40
.Ltmp54:
.LBB0_40:                               @   in Loop: Header=BB0_38 Depth=1
	.loc	10 176 44                       @ lvgl/src/lv_widgets/lv_tabview.c:176:44
	ldrh.w	r0, [sp, #66]
	adds	r0, #1
	strh.w	r0, [sp, #66]
	.loc	10 176 9 is_stmt 0              @ lvgl/src/lv_widgets/lv_tabview.c:176:9
	b	.LBB0_38
.Ltmp55:
.LBB0_41:
	.loc	10 187 30 is_stmt 1             @ lvgl/src/lv_widgets/lv_tabview.c:187:30
	ldr	r0, [sp, #80]
	movs	r2, #255
	.loc	10 187 9 is_stmt 0              @ lvgl/src/lv_widgets/lv_tabview.c:187:9
	mov	r1, r2
	bl	lv_obj_refresh_style
	b	.LBB0_42
.Ltmp56:
.LBB0_42:
	.loc	10 190 21 is_stmt 1             @ lvgl/src/lv_widgets/lv_tabview.c:190:21
	ldr	r0, [sp, #80]
	.loc	10 190 5 is_stmt 0              @ lvgl/src/lv_widgets/lv_tabview.c:190:5
	bl	tabview_realign
	.loc	10 194 12 is_stmt 1             @ lvgl/src/lv_widgets/lv_tabview.c:194:12
	ldr	r0, [sp, #80]
	.loc	10 194 5 is_stmt 0              @ lvgl/src/lv_widgets/lv_tabview.c:194:5
	str	r0, [sp, #92]
	b	.LBB0_43
.LBB0_43:
	.loc	10 195 1 is_stmt 1              @ lvgl/src/lv_widgets/lv_tabview.c:195:1
	ldr	r0, [sp, #92]
	add	sp, #96
	pop	{r7, pc}
.Ltmp57:
.Lfunc_end0:
	.size	lv_tabview_create, .Lfunc_end0-lv_tabview_create
	.cfi_endproc
	.cantunwind
	.fnend
                                        @ -- End function
	.section	.text.lv_tabview_signal,"ax",%progbits
	.p2align	3                               @ -- Begin function lv_tabview_signal
	.type	lv_tabview_signal,%function
	.code	16                              @ @lv_tabview_signal
	.thumb_func
lv_tabview_signal:
.Lfunc_begin1:
	.loc	10 604 0                        @ lvgl/src/lv_widgets/lv_tabview.c:604:0
	.fnstart
	.cfi_startproc
@ %bb.0:
	.save	{r7, lr}
	push	{r7, lr}
	.cfi_def_cfa_offset 8
	.cfi_offset lr, -4
	.cfi_offset r7, -8
	.pad	#88
	sub	sp, #88
	.cfi_def_cfa_offset 96
                                        @ kill: def $r3 killed $r1
	str	r0, [sp, #80]
	strb.w	r1, [sp, #79]
	str	r2, [sp, #72]
.Ltmp58:
	.loc	10 606 8 prologue_end           @ lvgl/src/lv_widgets/lv_tabview.c:606:8
	ldrb.w	r0, [sp, #79]
.Ltmp59:
	.loc	10 606 8 is_stmt 0              @ lvgl/src/lv_widgets/lv_tabview.c:606:8
	cmp	r0, #8
	bne	.LBB1_4
	b	.LBB1_1
.LBB1_1:
.Ltmp60:
	.loc	10 607 38 is_stmt 1             @ lvgl/src/lv_widgets/lv_tabview.c:607:38
	ldr	r0, [sp, #72]
	.loc	10 607 31 is_stmt 0             @ lvgl/src/lv_widgets/lv_tabview.c:607:31
	str	r0, [sp, #64]
	.loc	10 608 45 is_stmt 1             @ lvgl/src/lv_widgets/lv_tabview.c:608:45
	ldr	r0, [sp, #80]
	.loc	10 608 54 is_stmt 0             @ lvgl/src/lv_widgets/lv_tabview.c:608:54
	ldr	r1, [sp, #64]
	.loc	10 608 60                       @ lvgl/src/lv_widgets/lv_tabview.c:608:60
	ldrb	r1, [r1]
	.loc	10 608 24                       @ lvgl/src/lv_widgets/lv_tabview.c:608:24
	bl	lv_tabview_get_style
	.loc	10 608 9                        @ lvgl/src/lv_widgets/lv_tabview.c:608:9
	ldr	r1, [sp, #64]
	.loc	10 608 22                       @ lvgl/src/lv_widgets/lv_tabview.c:608:22
	str	r0, [r1, #4]
.Ltmp61:
	.loc	10 609 12 is_stmt 1             @ lvgl/src/lv_widgets/lv_tabview.c:609:12
	ldr	r0, [sp, #64]
	.loc	10 609 18 is_stmt 0             @ lvgl/src/lv_widgets/lv_tabview.c:609:18
	ldr	r0, [r0, #4]
.Ltmp62:
	.loc	10 609 12                       @ lvgl/src/lv_widgets/lv_tabview.c:609:12
	cbz	r0, .LBB1_3
	b	.LBB1_2
.LBB1_2:
	.loc	10 0 12                         @ lvgl/src/lv_widgets/lv_tabview.c:0:12
	movs	r0, #1
.Ltmp63:
	.loc	10 609 34                       @ lvgl/src/lv_widgets/lv_tabview.c:609:34
	strb.w	r0, [sp, #87]
	b	.LBB1_68
.LBB1_3:
	.loc	10 610 21 is_stmt 1             @ lvgl/src/lv_widgets/lv_tabview.c:610:21
	movw	r0, :lower16:ancestor_signal
	movt	r0, :upper16:ancestor_signal
	ldr	r3, [r0]
	.loc	10 610 37 is_stmt 0             @ lvgl/src/lv_widgets/lv_tabview.c:610:37
	ldr	r0, [sp, #80]
	.loc	10 610 46                       @ lvgl/src/lv_widgets/lv_tabview.c:610:46
	ldrb.w	r1, [sp, #79]
	.loc	10 610 52                       @ lvgl/src/lv_widgets/lv_tabview.c:610:52
	ldr	r2, [sp, #72]
	.loc	10 610 21                       @ lvgl/src/lv_widgets/lv_tabview.c:610:21
	blx	r3
	.loc	10 610 14                       @ lvgl/src/lv_widgets/lv_tabview.c:610:14
	strb.w	r0, [sp, #87]
	b	.LBB1_68
.Ltmp64:
.LBB1_4:
	.loc	10 612 13 is_stmt 1             @ lvgl/src/lv_widgets/lv_tabview.c:612:13
	ldrb.w	r0, [sp, #79]
.Ltmp65:
	.loc	10 612 13 is_stmt 0             @ lvgl/src/lv_widgets/lv_tabview.c:612:13
	cmp	r0, #9
	bne	.LBB1_17
	b	.LBB1_5
.LBB1_5:
.Ltmp66:
	.loc	10 613 54 is_stmt 1             @ lvgl/src/lv_widgets/lv_tabview.c:613:54
	ldr	r0, [sp, #80]
	.loc	10 613 34 is_stmt 0             @ lvgl/src/lv_widgets/lv_tabview.c:613:34
	bl	lv_obj_get_ext_attr
	.loc	10 613 28                       @ lvgl/src/lv_widgets/lv_tabview.c:613:28
	str	r0, [sp, #60]
	.loc	10 614 38 is_stmt 1             @ lvgl/src/lv_widgets/lv_tabview.c:614:38
	ldr	r0, [sp, #72]
	.loc	10 614 31 is_stmt 0             @ lvgl/src/lv_widgets/lv_tabview.c:614:31
	str	r0, [sp, #56]
.Ltmp67:
	.loc	10 615 12 is_stmt 1             @ lvgl/src/lv_widgets/lv_tabview.c:615:12
	ldr	r0, [sp, #56]
	.loc	10 615 18 is_stmt 0             @ lvgl/src/lv_widgets/lv_tabview.c:615:18
	ldrb	r0, [r0]
.Ltmp68:
	.loc	10 615 12                       @ lvgl/src/lv_widgets/lv_tabview.c:615:12
	cmp	r0, #65
	bne	.LBB1_7
	b	.LBB1_6
.LBB1_6:
.Ltmp69:
	.loc	10 615 82                       @ lvgl/src/lv_widgets/lv_tabview.c:615:82
	ldr	r0, [sp, #60]
	.loc	10 615 87                       @ lvgl/src/lv_widgets/lv_tabview.c:615:87
	ldr	r0, [r0]
	movs	r1, #0
	.loc	10 615 65                       @ lvgl/src/lv_widgets/lv_tabview.c:615:65
	bl	lv_obj_get_state
	.loc	10 615 50                       @ lvgl/src/lv_widgets/lv_tabview.c:615:50
	ldr	r1, [sp, #56]
	.loc	10 615 63                       @ lvgl/src/lv_widgets/lv_tabview.c:615:63
	strb	r0, [r1, #1]
	.loc	10 615 50                       @ lvgl/src/lv_widgets/lv_tabview.c:615:50
	b	.LBB1_16
.LBB1_7:
.Ltmp70:
	.loc	10 616 17 is_stmt 1             @ lvgl/src/lv_widgets/lv_tabview.c:616:17
	ldr	r0, [sp, #56]
	.loc	10 616 23 is_stmt 0             @ lvgl/src/lv_widgets/lv_tabview.c:616:23
	ldrb	r0, [r0]
.Ltmp71:
	.loc	10 616 17                       @ lvgl/src/lv_widgets/lv_tabview.c:616:17
	cmp	r0, #66
	bne	.LBB1_9
	b	.LBB1_8
.LBB1_8:
.Ltmp72:
	.loc	10 616 88                       @ lvgl/src/lv_widgets/lv_tabview.c:616:88
	ldr	r0, [sp, #60]
	.loc	10 616 93                       @ lvgl/src/lv_widgets/lv_tabview.c:616:93
	ldr	r0, [r0]
	movs	r1, #1
	.loc	10 616 71                       @ lvgl/src/lv_widgets/lv_tabview.c:616:71
	bl	lv_obj_get_state
	.loc	10 616 56                       @ lvgl/src/lv_widgets/lv_tabview.c:616:56
	ldr	r1, [sp, #56]
	.loc	10 616 69                       @ lvgl/src/lv_widgets/lv_tabview.c:616:69
	strb	r0, [r1, #1]
	.loc	10 616 56                       @ lvgl/src/lv_widgets/lv_tabview.c:616:56
	b	.LBB1_15
.LBB1_9:
.Ltmp73:
	.loc	10 617 17 is_stmt 1             @ lvgl/src/lv_widgets/lv_tabview.c:617:17
	ldr	r0, [sp, #56]
	.loc	10 617 23 is_stmt 0             @ lvgl/src/lv_widgets/lv_tabview.c:617:23
	ldrb	r0, [r0]
.Ltmp74:
	.loc	10 617 17                       @ lvgl/src/lv_widgets/lv_tabview.c:617:17
	cmp	r0, #67
	bne	.LBB1_11
	b	.LBB1_10
.LBB1_10:
.Ltmp75:
	.loc	10 617 86                       @ lvgl/src/lv_widgets/lv_tabview.c:617:86
	ldr	r0, [sp, #60]
	.loc	10 617 91                       @ lvgl/src/lv_widgets/lv_tabview.c:617:91
	ldr	r0, [r0, #4]
	movs	r1, #0
	.loc	10 617 69                       @ lvgl/src/lv_widgets/lv_tabview.c:617:69
	bl	lv_obj_get_state
	.loc	10 617 54                       @ lvgl/src/lv_widgets/lv_tabview.c:617:54
	ldr	r1, [sp, #56]
	.loc	10 617 67                       @ lvgl/src/lv_widgets/lv_tabview.c:617:67
	strb	r0, [r1, #1]
	.loc	10 617 54                       @ lvgl/src/lv_widgets/lv_tabview.c:617:54
	b	.LBB1_14
.LBB1_11:
.Ltmp76:
	.loc	10 618 17 is_stmt 1             @ lvgl/src/lv_widgets/lv_tabview.c:618:17
	ldr	r0, [sp, #56]
	.loc	10 618 23 is_stmt 0             @ lvgl/src/lv_widgets/lv_tabview.c:618:23
	ldrb	r0, [r0]
.Ltmp77:
	.loc	10 618 17                       @ lvgl/src/lv_widgets/lv_tabview.c:618:17
	cmp	r0, #64
	bne	.LBB1_13
	b	.LBB1_12
.LBB1_12:
.Ltmp78:
	.loc	10 618 94                       @ lvgl/src/lv_widgets/lv_tabview.c:618:94
	ldr	r0, [sp, #60]
	.loc	10 618 99                       @ lvgl/src/lv_widgets/lv_tabview.c:618:99
	ldr	r0, [r0, #8]
	movs	r1, #64
	.loc	10 618 77                       @ lvgl/src/lv_widgets/lv_tabview.c:618:77
	bl	lv_obj_get_state
	.loc	10 618 62                       @ lvgl/src/lv_widgets/lv_tabview.c:618:62
	ldr	r1, [sp, #56]
	.loc	10 618 75                       @ lvgl/src/lv_widgets/lv_tabview.c:618:75
	strb	r0, [r1, #1]
	.loc	10 618 62                       @ lvgl/src/lv_widgets/lv_tabview.c:618:62
	b	.LBB1_13
.Ltmp79:
.LBB1_13:
	.loc	10 0 62                         @ lvgl/src/lv_widgets/lv_tabview.c:0:62
	b	.LBB1_14
.LBB1_14:
	b	.LBB1_15
.LBB1_15:
	b	.LBB1_16
.LBB1_16:
	movs	r0, #1
	.loc	10 620 9 is_stmt 1              @ lvgl/src/lv_widgets/lv_tabview.c:620:9
	strb.w	r0, [sp, #87]
	b	.LBB1_68
.Ltmp80:
.LBB1_17:
	.loc	10 0 9 is_stmt 0                @ lvgl/src/lv_widgets/lv_tabview.c:0:9
	b	.LBB1_18
.LBB1_18:
	.loc	10 624 11 is_stmt 1             @ lvgl/src/lv_widgets/lv_tabview.c:624:11
	movw	r0, :lower16:ancestor_signal
	movt	r0, :upper16:ancestor_signal
	ldr	r3, [r0]
	.loc	10 624 27 is_stmt 0             @ lvgl/src/lv_widgets/lv_tabview.c:624:27
	ldr	r0, [sp, #80]
	.loc	10 624 36                       @ lvgl/src/lv_widgets/lv_tabview.c:624:36
	ldrb.w	r1, [sp, #79]
	.loc	10 624 42                       @ lvgl/src/lv_widgets/lv_tabview.c:624:42
	ldr	r2, [sp, #72]
	.loc	10 624 11                       @ lvgl/src/lv_widgets/lv_tabview.c:624:11
	blx	r3
	.loc	10 624 9                        @ lvgl/src/lv_widgets/lv_tabview.c:624:9
	strb.w	r0, [sp, #71]
.Ltmp81:
	.loc	10 625 8 is_stmt 1              @ lvgl/src/lv_widgets/lv_tabview.c:625:8
	ldrb.w	r0, [sp, #71]
.Ltmp82:
	.loc	10 625 8 is_stmt 0              @ lvgl/src/lv_widgets/lv_tabview.c:625:8
	cmp	r0, #1
	beq	.LBB1_20
	b	.LBB1_19
.LBB1_19:
.Ltmp83:
	.loc	10 625 33                       @ lvgl/src/lv_widgets/lv_tabview.c:625:33
	ldrb.w	r0, [sp, #71]
	.loc	10 625 26                       @ lvgl/src/lv_widgets/lv_tabview.c:625:26
	strb.w	r0, [sp, #87]
	b	.LBB1_68
.Ltmp84:
.LBB1_20:
	.loc	10 626 8 is_stmt 1              @ lvgl/src/lv_widgets/lv_tabview.c:626:8
	ldrb.w	r0, [sp, #79]
.Ltmp85:
	.loc	10 626 8 is_stmt 0              @ lvgl/src/lv_widgets/lv_tabview.c:626:8
	cmp	r0, #7
	bne	.LBB1_22
	b	.LBB1_21
.LBB1_21:
.Ltmp86:
	.loc	10 626 73                       @ lvgl/src/lv_widgets/lv_tabview.c:626:73
	ldr	r0, [sp, #72]
	.loc	10 626 43                       @ lvgl/src/lv_widgets/lv_tabview.c:626:43
	movw	r1, :lower16:.L.str.4
	movt	r1, :upper16:.L.str.4
	bl	lv_obj_handle_get_type_signal
	.loc	10 626 36                       @ lvgl/src/lv_widgets/lv_tabview.c:626:36
	strb.w	r0, [sp, #87]
	b	.LBB1_68
.Ltmp87:
.LBB1_22:
	.loc	10 628 50 is_stmt 1             @ lvgl/src/lv_widgets/lv_tabview.c:628:50
	ldr	r0, [sp, #80]
	.loc	10 628 30 is_stmt 0             @ lvgl/src/lv_widgets/lv_tabview.c:628:30
	bl	lv_obj_get_ext_attr
	.loc	10 628 24                       @ lvgl/src/lv_widgets/lv_tabview.c:628:24
	str	r0, [sp, #52]
.Ltmp88:
	.loc	10 629 8 is_stmt 1              @ lvgl/src/lv_widgets/lv_tabview.c:629:8
	ldrb.w	r0, [sp, #79]
.Ltmp89:
	.loc	10 629 8 is_stmt 0              @ lvgl/src/lv_widgets/lv_tabview.c:629:8
	cbnz	r0, .LBB1_30
	b	.LBB1_23
.LBB1_23:
	.loc	10 0 8                          @ lvgl/src/lv_widgets/lv_tabview.c:0:8
	movs	r0, #0
.Ltmp90:
	.loc	10 631 15 is_stmt 1             @ lvgl/src/lv_widgets/lv_tabview.c:631:15
	strb.w	r0, [sp, #51]
	.loc	10 631 13 is_stmt 0             @ lvgl/src/lv_widgets/lv_tabview.c:631:13
	b	.LBB1_24
.LBB1_24:                               @ =>This Inner Loop Header: Depth=1
.Ltmp91:
	.loc	10 631 20                       @ lvgl/src/lv_widgets/lv_tabview.c:631:20
	ldr	r0, [sp, #52]
	.loc	10 631 25                       @ lvgl/src/lv_widgets/lv_tabview.c:631:25
	ldr	r0, [r0, #12]
	.loc	10 631 38                       @ lvgl/src/lv_widgets/lv_tabview.c:631:38
	ldrb.w	r1, [sp, #51]
	.loc	10 631 20                       @ lvgl/src/lv_widgets/lv_tabview.c:631:20
	ldr.w	r0, [r0, r1, lsl #2]
	ldrsb.w	r1, [r0]
	movs	r0, #0
	.loc	10 631 52                       @ lvgl/src/lv_widgets/lv_tabview.c:631:52
	str	r0, [sp, #28]                   @ 4-byte Spill
	cbz	r1, .LBB1_26
	b	.LBB1_25
.LBB1_25:                               @   in Loop: Header=BB1_24 Depth=1
	.loc	10 631 55                       @ lvgl/src/lv_widgets/lv_tabview.c:631:55
	ldr	r0, [sp, #52]
	.loc	10 631 60                       @ lvgl/src/lv_widgets/lv_tabview.c:631:60
	ldr	r0, [r0, #12]
	.loc	10 631 73                       @ lvgl/src/lv_widgets/lv_tabview.c:631:73
	ldrb.w	r1, [sp, #51]
	.loc	10 631 55                       @ lvgl/src/lv_widgets/lv_tabview.c:631:55
	ldr.w	r0, [r0, r1, lsl #2]
	ldrsb.w	r0, [r0]
	.loc	10 631 79                       @ lvgl/src/lv_widgets/lv_tabview.c:631:79
	subs	r0, #10
	it	ne
	movne	r0, #1
	str	r0, [sp, #28]                   @ 4-byte Spill
	b	.LBB1_26
.LBB1_26:                               @   in Loop: Header=BB1_24 Depth=1
	.loc	10 0 0                          @ lvgl/src/lv_widgets/lv_tabview.c:0:0
	ldr	r0, [sp, #28]                   @ 4-byte Reload
.Ltmp92:
	.loc	10 631 9                        @ lvgl/src/lv_widgets/lv_tabview.c:631:9
	lsls	r0, r0, #31
	cbz	r0, .LBB1_29
	b	.LBB1_27
.LBB1_27:                               @   in Loop: Header=BB1_24 Depth=1
.Ltmp93:
	.loc	10 631 105                      @ lvgl/src/lv_widgets/lv_tabview.c:631:105
	ldr	r0, [sp, #52]
	.loc	10 631 110                      @ lvgl/src/lv_widgets/lv_tabview.c:631:110
	ldr	r0, [r0, #12]
	.loc	10 631 123                      @ lvgl/src/lv_widgets/lv_tabview.c:631:123
	ldrb.w	r1, [sp, #51]
	.loc	10 631 105                      @ lvgl/src/lv_widgets/lv_tabview.c:631:105
	ldr.w	r0, [r0, r1, lsl #2]
	.loc	10 631 93                       @ lvgl/src/lv_widgets/lv_tabview.c:631:93
	bl	lv_mem_free
	b	.LBB1_28
.LBB1_28:                               @   in Loop: Header=BB1_24 Depth=1
	.loc	10 631 89                       @ lvgl/src/lv_widgets/lv_tabview.c:631:89
	ldrb.w	r0, [sp, #51]
	adds	r0, #1
	strb.w	r0, [sp, #51]
	.loc	10 631 9                        @ lvgl/src/lv_widgets/lv_tabview.c:631:9
	b	.LBB1_24
.Ltmp94:
.LBB1_29:
	.loc	10 633 21 is_stmt 1             @ lvgl/src/lv_widgets/lv_tabview.c:633:21
	ldr	r0, [sp, #52]
	.loc	10 633 26 is_stmt 0             @ lvgl/src/lv_widgets/lv_tabview.c:633:26
	ldr	r0, [r0, #12]
	.loc	10 633 9                        @ lvgl/src/lv_widgets/lv_tabview.c:633:9
	bl	lv_mem_free
	.loc	10 634 9 is_stmt 1              @ lvgl/src/lv_widgets/lv_tabview.c:634:9
	ldr	r1, [sp, #52]
	movs	r0, #0
	.loc	10 634 27 is_stmt 0             @ lvgl/src/lv_widgets/lv_tabview.c:634:27
	str	r0, [r1, #12]
	.loc	10 635 9 is_stmt 1              @ lvgl/src/lv_widgets/lv_tabview.c:635:9
	ldr	r1, [sp, #52]
	.loc	10 635 27 is_stmt 0             @ lvgl/src/lv_widgets/lv_tabview.c:635:27
	str	r0, [r1]
	.loc	10 636 9 is_stmt 1              @ lvgl/src/lv_widgets/lv_tabview.c:636:9
	ldr	r1, [sp, #52]
	.loc	10 636 27 is_stmt 0             @ lvgl/src/lv_widgets/lv_tabview.c:636:27
	str	r0, [r1, #8]
	.loc	10 637 5 is_stmt 1              @ lvgl/src/lv_widgets/lv_tabview.c:637:5
	b	.LBB1_50
.Ltmp95:
.LBB1_30:
	.loc	10 638 13                       @ lvgl/src/lv_widgets/lv_tabview.c:638:13
	ldrb.w	r0, [sp, #79]
.Ltmp96:
	.loc	10 638 13 is_stmt 0             @ lvgl/src/lv_widgets/lv_tabview.c:638:13
	cmp	r0, #4
	bne	.LBB1_32
	b	.LBB1_31
.LBB1_31:
.Ltmp97:
	.loc	10 640 24 is_stmt 1             @ lvgl/src/lv_widgets/lv_tabview.c:640:24
	ldr	r0, [sp, #52]
	.loc	10 640 29 is_stmt 0             @ lvgl/src/lv_widgets/lv_tabview.c:640:29
	ldr	r0, [r0]
	movs	r1, #4
	movs	r2, #0
	.loc	10 640 9                        @ lvgl/src/lv_widgets/lv_tabview.c:640:9
	bl	lv_signal_send
	.loc	10 642 25 is_stmt 1             @ lvgl/src/lv_widgets/lv_tabview.c:642:25
	ldr	r0, [sp, #80]
	.loc	10 642 9 is_stmt 0              @ lvgl/src/lv_widgets/lv_tabview.c:642:9
	bl	tabview_realign
	.loc	10 643 5 is_stmt 1              @ lvgl/src/lv_widgets/lv_tabview.c:643:5
	b	.LBB1_49
.Ltmp98:
.LBB1_32:
	.loc	10 644 13                       @ lvgl/src/lv_widgets/lv_tabview.c:644:13
	ldrb.w	r0, [sp, #79]
.Ltmp99:
	.loc	10 644 13 is_stmt 0             @ lvgl/src/lv_widgets/lv_tabview.c:644:13
	cmp	r0, #2
	bne	.LBB1_38
	b	.LBB1_33
.LBB1_33:
.Ltmp100:
	.loc	10 645 12 is_stmt 1             @ lvgl/src/lv_widgets/lv_tabview.c:645:12
	ldr	r0, [sp, #52]
	.loc	10 645 17 is_stmt 0             @ lvgl/src/lv_widgets/lv_tabview.c:645:17
	ldr	r0, [r0, #8]
	.loc	10 645 33                       @ lvgl/src/lv_widgets/lv_tabview.c:645:33
	cbz	r0, .LBB1_37
	b	.LBB1_34
.LBB1_34:
	.loc	10 645 54                       @ lvgl/src/lv_widgets/lv_tabview.c:645:54
	ldr	r0, [sp, #80]
	.loc	10 645 37                       @ lvgl/src/lv_widgets/lv_tabview.c:645:37
	bl	lv_obj_get_width
	.loc	10 645 84                       @ lvgl/src/lv_widgets/lv_tabview.c:645:84
	str	r0, [sp, #24]                   @ 4-byte Spill
	ldr	r0, [sp, #72]
	.loc	10 645 66                       @ lvgl/src/lv_widgets/lv_tabview.c:645:66
	bl	lv_area_get_width
	mov	r1, r0
	.loc	10 645 91                       @ lvgl/src/lv_widgets/lv_tabview.c:645:91
	ldr	r0, [sp, #24]                   @ 4-byte Reload
	cmp	r0, r1
	bne	.LBB1_36
	b	.LBB1_35
.LBB1_35:
	.loc	10 646 55 is_stmt 1             @ lvgl/src/lv_widgets/lv_tabview.c:646:55
	ldr	r0, [sp, #80]
	.loc	10 646 37 is_stmt 0             @ lvgl/src/lv_widgets/lv_tabview.c:646:37
	bl	lv_obj_get_height
	.loc	10 646 86                       @ lvgl/src/lv_widgets/lv_tabview.c:646:86
	str	r0, [sp, #20]                   @ 4-byte Spill
	ldr	r0, [sp, #72]
	.loc	10 646 67                       @ lvgl/src/lv_widgets/lv_tabview.c:646:67
	bl	lv_area_get_height
	mov	r1, r0
.Ltmp101:
	.loc	10 645 12 is_stmt 1             @ lvgl/src/lv_widgets/lv_tabview.c:645:12
	ldr	r0, [sp, #20]                   @ 4-byte Reload
	cmp	r0, r1
	beq	.LBB1_37
	b	.LBB1_36
.LBB1_36:
.Ltmp102:
	.loc	10 647 29                       @ lvgl/src/lv_widgets/lv_tabview.c:647:29
	ldr	r0, [sp, #80]
	.loc	10 647 13 is_stmt 0             @ lvgl/src/lv_widgets/lv_tabview.c:647:13
	bl	tabview_realign
	.loc	10 648 9 is_stmt 1              @ lvgl/src/lv_widgets/lv_tabview.c:648:9
	b	.LBB1_37
.Ltmp103:
.LBB1_37:
	.loc	10 649 5                        @ lvgl/src/lv_widgets/lv_tabview.c:649:5
	b	.LBB1_48
.Ltmp104:
.LBB1_38:
	.loc	10 650 13                       @ lvgl/src/lv_widgets/lv_tabview.c:650:13
	ldrb.w	r0, [sp, #79]
.Ltmp105:
	.loc	10 650 13 is_stmt 0             @ lvgl/src/lv_widgets/lv_tabview.c:650:13
	cmp	r0, #14
	bne	.LBB1_44
	b	.LBB1_39
.LBB1_39:
.Ltmp106:
	.loc	10 654 38 is_stmt 1             @ lvgl/src/lv_widgets/lv_tabview.c:654:38
	bl	lv_indev_get_act
	.loc	10 654 22 is_stmt 0             @ lvgl/src/lv_widgets/lv_tabview.c:654:22
	str	r0, [sp, #44]
	.loc	10 655 56 is_stmt 1             @ lvgl/src/lv_widgets/lv_tabview.c:655:56
	ldr	r0, [sp, #44]
	.loc	10 655 38 is_stmt 0             @ lvgl/src/lv_widgets/lv_tabview.c:655:38
	bl	lv_indev_get_type
	.loc	10 655 25                       @ lvgl/src/lv_widgets/lv_tabview.c:655:25
	strb.w	r0, [sp, #43]
.Ltmp107:
	.loc	10 656 12 is_stmt 1             @ lvgl/src/lv_widgets/lv_tabview.c:656:12
	ldrb.w	r0, [sp, #43]
	.loc	10 656 47 is_stmt 0             @ lvgl/src/lv_widgets/lv_tabview.c:656:47
	cmp	r0, #2
	beq	.LBB1_42
	b	.LBB1_40
.LBB1_40:
	.loc	10 657 13 is_stmt 1             @ lvgl/src/lv_widgets/lv_tabview.c:657:13
	ldrb.w	r0, [sp, #43]
	.loc	10 657 49 is_stmt 0             @ lvgl/src/lv_widgets/lv_tabview.c:657:49
	cmp	r0, #4
	bne	.LBB1_43
	b	.LBB1_41
.LBB1_41:
	.loc	10 657 90                       @ lvgl/src/lv_widgets/lv_tabview.c:657:90
	ldr	r0, [sp, #80]
	.loc	10 657 73                       @ lvgl/src/lv_widgets/lv_tabview.c:657:73
	bl	lv_obj_get_group
	.loc	10 657 52                       @ lvgl/src/lv_widgets/lv_tabview.c:657:52
	bl	lv_group_get_editing
.Ltmp108:
	.loc	10 656 12 is_stmt 1             @ lvgl/src/lv_widgets/lv_tabview.c:656:12
	cbz	r0, .LBB1_43
	b	.LBB1_42
.LBB1_42:
.Ltmp109:
	.loc	10 658 27                       @ lvgl/src/lv_widgets/lv_tabview.c:658:27
	ldr	r0, [sp, #52]
	.loc	10 658 32 is_stmt 0             @ lvgl/src/lv_widgets/lv_tabview.c:658:32
	ldr	r0, [r0]
	.loc	10 658 56                       @ lvgl/src/lv_widgets/lv_tabview.c:658:56
	str	r0, [sp, #16]                   @ 4-byte Spill
	bl	lv_event_get_data
	mov	r2, r0
	.loc	10 658 13                       @ lvgl/src/lv_widgets/lv_tabview.c:658:13
	ldr	r0, [sp, #16]                   @ 4-byte Reload
	movs	r1, #6
	bl	lv_event_send
	.loc	10 659 9 is_stmt 1              @ lvgl/src/lv_widgets/lv_tabview.c:659:9
	b	.LBB1_43
.Ltmp110:
.LBB1_43:
	.loc	10 661 5                        @ lvgl/src/lv_widgets/lv_tabview.c:661:5
	b	.LBB1_47
.Ltmp111:
.LBB1_44:
	.loc	10 662 13                       @ lvgl/src/lv_widgets/lv_tabview.c:662:13
	ldrb.w	r0, [sp, #79]
.Ltmp112:
	.loc	10 662 13 is_stmt 0             @ lvgl/src/lv_widgets/lv_tabview.c:662:13
	cmp	r0, #25
	bne	.LBB1_46
	b	.LBB1_45
.LBB1_45:
.Ltmp113:
	.loc	10 664 35 is_stmt 1             @ lvgl/src/lv_widgets/lv_tabview.c:664:35
	ldr	r0, [sp, #72]
	.loc	10 664 16 is_stmt 0             @ lvgl/src/lv_widgets/lv_tabview.c:664:16
	str	r0, [sp, #36]
	.loc	10 665 10 is_stmt 1             @ lvgl/src/lv_widgets/lv_tabview.c:665:10
	ldr	r1, [sp, #36]
	movs	r0, #1
	.loc	10 665 25 is_stmt 0             @ lvgl/src/lv_widgets/lv_tabview.c:665:25
	strb	r0, [r1]
	.loc	10 667 5 is_stmt 1              @ lvgl/src/lv_widgets/lv_tabview.c:667:5
	b	.LBB1_46
.Ltmp114:
.LBB1_46:
	.loc	10 0 5 is_stmt 0                @ lvgl/src/lv_widgets/lv_tabview.c:0:5
	b	.LBB1_47
.LBB1_47:
	b	.LBB1_48
.LBB1_48:
	b	.LBB1_49
.LBB1_49:
	b	.LBB1_50
.LBB1_50:
.Ltmp115:
	.loc	10 669 8 is_stmt 1              @ lvgl/src/lv_widgets/lv_tabview.c:669:8
	ldrb.w	r0, [sp, #79]
	.loc	10 669 32 is_stmt 0             @ lvgl/src/lv_widgets/lv_tabview.c:669:32
	cmp	r0, #22
	beq	.LBB1_55
	b	.LBB1_51
.LBB1_51:
	.loc	10 669 35                       @ lvgl/src/lv_widgets/lv_tabview.c:669:35
	ldrb.w	r0, [sp, #79]
	.loc	10 669 61                       @ lvgl/src/lv_widgets/lv_tabview.c:669:61
	cmp	r0, #23
	beq	.LBB1_55
	b	.LBB1_52
.LBB1_52:
	.loc	10 671 8 is_stmt 1              @ lvgl/src/lv_widgets/lv_tabview.c:671:8
	ldrb.w	r0, [sp, #79]
	.loc	10 671 34 is_stmt 0             @ lvgl/src/lv_widgets/lv_tabview.c:671:34
	cmp	r0, #24
	beq	.LBB1_55
	b	.LBB1_53
.LBB1_53:
	.loc	10 673 8 is_stmt 1              @ lvgl/src/lv_widgets/lv_tabview.c:673:8
	ldrb.w	r0, [sp, #79]
	.loc	10 673 34 is_stmt 0             @ lvgl/src/lv_widgets/lv_tabview.c:673:34
	cmp	r0, #11
	beq	.LBB1_55
	b	.LBB1_54
.LBB1_54:
	.loc	10 673 37                       @ lvgl/src/lv_widgets/lv_tabview.c:673:37
	ldrb.w	r0, [sp, #79]
.Ltmp116:
	.loc	10 669 8 is_stmt 1              @ lvgl/src/lv_widgets/lv_tabview.c:669:8
	cmp	r0, #14
	bne	.LBB1_67
	b	.LBB1_55
.LBB1_55:
.Ltmp117:
	.loc	10 677 9                        @ lvgl/src/lv_widgets/lv_tabview.c:677:9
	ldr	r0, [sp, #52]
	.loc	10 677 14 is_stmt 0             @ lvgl/src/lv_widgets/lv_tabview.c:677:14
	ldr	r0, [r0]
	.loc	10 677 20                       @ lvgl/src/lv_widgets/lv_tabview.c:677:20
	ldr	r3, [r0, #28]
	.loc	10 677 41                       @ lvgl/src/lv_widgets/lv_tabview.c:677:41
	ldrb.w	r1, [sp, #79]
	.loc	10 677 47                       @ lvgl/src/lv_widgets/lv_tabview.c:677:47
	ldr	r2, [sp, #72]
	.loc	10 677 9                        @ lvgl/src/lv_widgets/lv_tabview.c:677:9
	blx	r3
.Ltmp118:
	.loc	10 680 12 is_stmt 1             @ lvgl/src/lv_widgets/lv_tabview.c:680:12
	ldrb.w	r0, [sp, #79]
.Ltmp119:
	.loc	10 680 12 is_stmt 0             @ lvgl/src/lv_widgets/lv_tabview.c:680:12
	cmp	r0, #22
	bne	.LBB1_57
	b	.LBB1_56
.LBB1_56:
.Ltmp120:
	.loc	10 681 42 is_stmt 1             @ lvgl/src/lv_widgets/lv_tabview.c:681:42
	ldr	r1, [sp, #52]
	.loc	10 681 47 is_stmt 0             @ lvgl/src/lv_widgets/lv_tabview.c:681:47
	ldr	r0, [r1]
	.loc	10 681 58                       @ lvgl/src/lv_widgets/lv_tabview.c:681:58
	ldrh	r1, [r1, #20]
	.loc	10 681 13                       @ lvgl/src/lv_widgets/lv_tabview.c:681:13
	bl	lv_btnmatrix_set_focused_btn
	.loc	10 682 9 is_stmt 1              @ lvgl/src/lv_widgets/lv_tabview.c:682:9
	b	.LBB1_57
.Ltmp121:
.LBB1_57:
	.loc	10 684 12                       @ lvgl/src/lv_widgets/lv_tabview.c:684:12
	ldrb.w	r0, [sp, #79]
	.loc	10 684 36 is_stmt 0             @ lvgl/src/lv_widgets/lv_tabview.c:684:36
	cmp	r0, #22
	beq	.LBB1_59
	b	.LBB1_58
.LBB1_58:
	.loc	10 684 39                       @ lvgl/src/lv_widgets/lv_tabview.c:684:39
	ldrb.w	r0, [sp, #79]
.Ltmp122:
	.loc	10 684 12                       @ lvgl/src/lv_widgets/lv_tabview.c:684:12
	cmp	r0, #23
	bne	.LBB1_66
	b	.LBB1_59
.LBB1_59:
.Ltmp123:
	.loc	10 685 49 is_stmt 1             @ lvgl/src/lv_widgets/lv_tabview.c:685:49
	ldr	r0, [sp, #80]
	movs	r1, #0
	.loc	10 685 32 is_stmt 0             @ lvgl/src/lv_widgets/lv_tabview.c:685:32
	bl	lv_obj_get_state
	.loc	10 685 24                       @ lvgl/src/lv_widgets/lv_tabview.c:685:24
	strb.w	r0, [sp, #35]
.Ltmp124:
	.loc	10 686 16 is_stmt 1             @ lvgl/src/lv_widgets/lv_tabview.c:686:16
	ldrb.w	r0, [sp, #35]
.Ltmp125:
	.loc	10 686 16 is_stmt 0             @ lvgl/src/lv_widgets/lv_tabview.c:686:16
	lsls	r0, r0, #30
	cmp	r0, #0
	bpl	.LBB1_61
	b	.LBB1_60
.LBB1_60:
.Ltmp126:
	.loc	10 687 34 is_stmt 1             @ lvgl/src/lv_widgets/lv_tabview.c:687:34
	ldr	r0, [sp, #52]
	.loc	10 687 39 is_stmt 0             @ lvgl/src/lv_widgets/lv_tabview.c:687:39
	ldr	r0, [r0]
	movs	r1, #2
	.loc	10 687 17                       @ lvgl/src/lv_widgets/lv_tabview.c:687:17
	str	r1, [sp, #12]                   @ 4-byte Spill
	bl	lv_obj_set_state
	ldr	r1, [sp, #12]                   @ 4-byte Reload
	.loc	10 688 34 is_stmt 1             @ lvgl/src/lv_widgets/lv_tabview.c:688:34
	ldr	r0, [sp, #52]
	.loc	10 688 39 is_stmt 0             @ lvgl/src/lv_widgets/lv_tabview.c:688:39
	ldr	r0, [r0, #4]
	.loc	10 688 17                       @ lvgl/src/lv_widgets/lv_tabview.c:688:17
	bl	lv_obj_set_state
	.loc	10 689 13 is_stmt 1             @ lvgl/src/lv_widgets/lv_tabview.c:689:13
	b	.LBB1_62
.Ltmp127:
.LBB1_61:
	.loc	10 691 36                       @ lvgl/src/lv_widgets/lv_tabview.c:691:36
	ldr	r0, [sp, #52]
	.loc	10 691 41 is_stmt 0             @ lvgl/src/lv_widgets/lv_tabview.c:691:41
	ldr	r0, [r0]
	movs	r1, #2
	.loc	10 691 17                       @ lvgl/src/lv_widgets/lv_tabview.c:691:17
	str	r1, [sp, #8]                    @ 4-byte Spill
	bl	lv_obj_clear_state
	ldr	r1, [sp, #8]                    @ 4-byte Reload
	.loc	10 692 36 is_stmt 1             @ lvgl/src/lv_widgets/lv_tabview.c:692:36
	ldr	r0, [sp, #52]
	.loc	10 692 41 is_stmt 0             @ lvgl/src/lv_widgets/lv_tabview.c:692:41
	ldr	r0, [r0, #4]
	.loc	10 692 17                       @ lvgl/src/lv_widgets/lv_tabview.c:692:17
	bl	lv_obj_clear_state
	b	.LBB1_62
.Ltmp128:
.LBB1_62:
	.loc	10 695 16 is_stmt 1             @ lvgl/src/lv_widgets/lv_tabview.c:695:16
	ldrb.w	r0, [sp, #35]
.Ltmp129:
	.loc	10 695 16 is_stmt 0             @ lvgl/src/lv_widgets/lv_tabview.c:695:16
	lsls	r0, r0, #29
	cmp	r0, #0
	bpl	.LBB1_64
	b	.LBB1_63
.LBB1_63:
.Ltmp130:
	.loc	10 696 34 is_stmt 1             @ lvgl/src/lv_widgets/lv_tabview.c:696:34
	ldr	r0, [sp, #52]
	.loc	10 696 39 is_stmt 0             @ lvgl/src/lv_widgets/lv_tabview.c:696:39
	ldr	r0, [r0]
	movs	r1, #4
	.loc	10 696 17                       @ lvgl/src/lv_widgets/lv_tabview.c:696:17
	str	r1, [sp, #4]                    @ 4-byte Spill
	bl	lv_obj_set_state
	ldr	r1, [sp, #4]                    @ 4-byte Reload
	.loc	10 697 34 is_stmt 1             @ lvgl/src/lv_widgets/lv_tabview.c:697:34
	ldr	r0, [sp, #52]
	.loc	10 697 39 is_stmt 0             @ lvgl/src/lv_widgets/lv_tabview.c:697:39
	ldr	r0, [r0, #4]
	.loc	10 697 17                       @ lvgl/src/lv_widgets/lv_tabview.c:697:17
	bl	lv_obj_set_state
	.loc	10 698 13 is_stmt 1             @ lvgl/src/lv_widgets/lv_tabview.c:698:13
	b	.LBB1_65
.Ltmp131:
.LBB1_64:
	.loc	10 700 36                       @ lvgl/src/lv_widgets/lv_tabview.c:700:36
	ldr	r0, [sp, #52]
	.loc	10 700 41 is_stmt 0             @ lvgl/src/lv_widgets/lv_tabview.c:700:41
	ldr	r0, [r0]
	movs	r1, #4
	.loc	10 700 17                       @ lvgl/src/lv_widgets/lv_tabview.c:700:17
	str	r1, [sp]                        @ 4-byte Spill
	bl	lv_obj_clear_state
	ldr	r1, [sp]                        @ 4-byte Reload
	.loc	10 701 36 is_stmt 1             @ lvgl/src/lv_widgets/lv_tabview.c:701:36
	ldr	r0, [sp, #52]
	.loc	10 701 41 is_stmt 0             @ lvgl/src/lv_widgets/lv_tabview.c:701:41
	ldr	r0, [r0, #4]
	.loc	10 701 17                       @ lvgl/src/lv_widgets/lv_tabview.c:701:17
	bl	lv_obj_clear_state
	b	.LBB1_65
.Ltmp132:
.LBB1_65:
	.loc	10 704 9 is_stmt 1              @ lvgl/src/lv_widgets/lv_tabview.c:704:9
	b	.LBB1_66
.Ltmp133:
.LBB1_66:
	.loc	10 705 5                        @ lvgl/src/lv_widgets/lv_tabview.c:705:5
	b	.LBB1_67
.Ltmp134:
.LBB1_67:
	.loc	10 707 12                       @ lvgl/src/lv_widgets/lv_tabview.c:707:12
	ldrb.w	r0, [sp, #71]
	.loc	10 707 5 is_stmt 0              @ lvgl/src/lv_widgets/lv_tabview.c:707:5
	strb.w	r0, [sp, #87]
	b	.LBB1_68
.LBB1_68:
	.loc	10 708 1 is_stmt 1              @ lvgl/src/lv_widgets/lv_tabview.c:708:1
	ldrb.w	r0, [sp, #87]
	add	sp, #88
	pop	{r7, pc}
.Ltmp135:
.Lfunc_end1:
	.size	lv_tabview_signal, .Lfunc_end1-lv_tabview_signal
	.cfi_endproc
	.cantunwind
	.fnend
                                        @ -- End function
	.section	.text.tabview_scrl_signal,"ax",%progbits
	.p2align	3                               @ -- Begin function tabview_scrl_signal
	.type	tabview_scrl_signal,%function
	.code	16                              @ @tabview_scrl_signal
	.thumb_func
tabview_scrl_signal:
.Lfunc_begin2:
	.loc	10 718 0                        @ lvgl/src/lv_widgets/lv_tabview.c:718:0
	.fnstart
	.cfi_startproc
@ %bb.0:
	.save	{r7, lr}
	push	{r7, lr}
	.cfi_def_cfa_offset 8
	.cfi_offset lr, -4
	.cfi_offset r7, -8
	.pad	#80
	sub	sp, #80
	.cfi_def_cfa_offset 88
                                        @ kill: def $r3 killed $r1
	str	r0, [sp, #72]
	strb.w	r1, [sp, #71]
	str	r2, [sp, #64]
.Ltmp136:
	.loc	10 722 11 prologue_end          @ lvgl/src/lv_widgets/lv_tabview.c:722:11
	movw	r0, :lower16:ancestor_scrl_signal
	movt	r0, :upper16:ancestor_scrl_signal
	ldr	r3, [r0]
	.loc	10 722 32 is_stmt 0             @ lvgl/src/lv_widgets/lv_tabview.c:722:32
	ldr	r0, [sp, #72]
	.loc	10 722 46                       @ lvgl/src/lv_widgets/lv_tabview.c:722:46
	ldrb.w	r1, [sp, #71]
	.loc	10 722 52                       @ lvgl/src/lv_widgets/lv_tabview.c:722:52
	ldr	r2, [sp, #64]
	.loc	10 722 11                       @ lvgl/src/lv_widgets/lv_tabview.c:722:11
	blx	r3
	.loc	10 722 9                        @ lvgl/src/lv_widgets/lv_tabview.c:722:9
	strb.w	r0, [sp, #63]
.Ltmp137:
	.loc	10 723 8 is_stmt 1              @ lvgl/src/lv_widgets/lv_tabview.c:723:8
	ldrb.w	r0, [sp, #63]
.Ltmp138:
	.loc	10 723 8 is_stmt 0              @ lvgl/src/lv_widgets/lv_tabview.c:723:8
	cmp	r0, #1
	beq	.LBB2_2
	b	.LBB2_1
.LBB2_1:
.Ltmp139:
	.loc	10 723 33                       @ lvgl/src/lv_widgets/lv_tabview.c:723:33
	ldrb.w	r0, [sp, #63]
	.loc	10 723 26                       @ lvgl/src/lv_widgets/lv_tabview.c:723:26
	strb.w	r0, [sp, #79]
	b	.LBB2_33
.Ltmp140:
.LBB2_2:
	.loc	10 724 8 is_stmt 1              @ lvgl/src/lv_widgets/lv_tabview.c:724:8
	ldrb.w	r0, [sp, #71]
.Ltmp141:
	.loc	10 724 8 is_stmt 0              @ lvgl/src/lv_widgets/lv_tabview.c:724:8
	cmp	r0, #7
	bne	.LBB2_4
	b	.LBB2_3
.LBB2_3:
.Ltmp142:
	.loc	10 724 73                       @ lvgl/src/lv_widgets/lv_tabview.c:724:73
	ldr	r0, [sp, #64]
	.loc	10 724 43                       @ lvgl/src/lv_widgets/lv_tabview.c:724:43
	movw	r1, :lower16:.L.str.1
	movt	r1, :upper16:.L.str.1
	bl	lv_obj_handle_get_type_signal
	.loc	10 724 36                       @ lvgl/src/lv_widgets/lv_tabview.c:724:36
	strb.w	r0, [sp, #79]
	b	.LBB2_33
.Ltmp143:
.LBB2_4:
	.loc	10 726 44 is_stmt 1             @ lvgl/src/lv_widgets/lv_tabview.c:726:44
	ldr	r0, [sp, #72]
	.loc	10 726 26 is_stmt 0             @ lvgl/src/lv_widgets/lv_tabview.c:726:26
	bl	lv_obj_get_parent
	.loc	10 726 16                       @ lvgl/src/lv_widgets/lv_tabview.c:726:16
	str	r0, [sp, #56]
	.loc	10 727 44 is_stmt 1             @ lvgl/src/lv_widgets/lv_tabview.c:727:44
	ldr	r0, [sp, #56]
	.loc	10 727 26 is_stmt 0             @ lvgl/src/lv_widgets/lv_tabview.c:727:26
	bl	lv_obj_get_parent
	.loc	10 727 16                       @ lvgl/src/lv_widgets/lv_tabview.c:727:16
	str	r0, [sp, #52]
.Ltmp144:
	.loc	10 729 8 is_stmt 1              @ lvgl/src/lv_widgets/lv_tabview.c:729:8
	ldrb.w	r0, [sp, #71]
.Ltmp145:
	.loc	10 729 8 is_stmt 0              @ lvgl/src/lv_widgets/lv_tabview.c:729:8
	cmp	r0, #18
	bne.w	.LBB2_32
	b	.LBB2_5
.LBB2_5:
.Ltmp146:
	.loc	10 730 54 is_stmt 1             @ lvgl/src/lv_widgets/lv_tabview.c:730:54
	ldr	r0, [sp, #52]
	.loc	10 730 34 is_stmt 0             @ lvgl/src/lv_widgets/lv_tabview.c:730:34
	bl	lv_obj_get_ext_attr
	.loc	10 730 28                       @ lvgl/src/lv_widgets/lv_tabview.c:730:28
	str	r0, [sp, #48]
	.loc	10 732 30 is_stmt 1             @ lvgl/src/lv_widgets/lv_tabview.c:732:30
	bl	lv_indev_get_act
	.loc	10 732 22 is_stmt 0             @ lvgl/src/lv_widgets/lv_tabview.c:732:22
	str	r0, [sp, #44]
	.loc	10 734 28 is_stmt 1             @ lvgl/src/lv_widgets/lv_tabview.c:734:28
	ldr	r0, [sp, #44]
	add	r1, sp, #40
	.loc	10 734 9 is_stmt 0              @ lvgl/src/lv_widgets/lv_tabview.c:734:9
	bl	lv_indev_get_point
	.loc	10 736 27 is_stmt 1             @ lvgl/src/lv_widgets/lv_tabview.c:736:27
	ldr	r0, [sp, #44]
	add	r1, sp, #36
	.loc	10 736 9 is_stmt 0              @ lvgl/src/lv_widgets/lv_tabview.c:736:9
	bl	lv_indev_get_vect
	movs	r0, #0
	.loc	10 737 20 is_stmt 1             @ lvgl/src/lv_widgets/lv_tabview.c:737:20
	strh.w	r0, [sp, #34]
	.loc	10 739 9                        @ lvgl/src/lv_widgets/lv_tabview.c:739:9
	b	.LBB2_6
.LBB2_6:                                @ =>This Inner Loop Header: Depth=1
	.loc	10 739 20 is_stmt 0             @ lvgl/src/lv_widgets/lv_tabview.c:739:20
	ldrsh.w	r0, [sp, #36]
	.loc	10 739 9                        @ lvgl/src/lv_widgets/lv_tabview.c:739:9
	cbz	r0, .LBB2_8
	b	.LBB2_7
.LBB2_7:                                @   in Loop: Header=BB2_6 Depth=1
.Ltmp147:
	.loc	10 740 26 is_stmt 1             @ lvgl/src/lv_widgets/lv_tabview.c:740:26
	ldrh.w	r1, [sp, #36]
	.loc	10 740 23 is_stmt 0             @ lvgl/src/lv_widgets/lv_tabview.c:740:23
	ldrh.w	r0, [sp, #34]
	add	r0, r1
	strh.w	r0, [sp, #34]
	.loc	10 741 27 is_stmt 1             @ lvgl/src/lv_widgets/lv_tabview.c:741:27
	ldrsh.w	r0, [sp, #36]
	movs	r1, #90
	.loc	10 741 29 is_stmt 0             @ lvgl/src/lv_widgets/lv_tabview.c:741:29
	muls	r0, r1, r0
	movw	r1, #34079
	movt	r1, #20971
	.loc	10 741 63                       @ lvgl/src/lv_widgets/lv_tabview.c:741:63
	smmul	r1, r0, r1
	lsrs	r0, r1, #5
	add.w	r0, r0, r1, lsr #31
	.loc	10 741 20                       @ lvgl/src/lv_widgets/lv_tabview.c:741:20
	strh.w	r0, [sp, #36]
.Ltmp148:
	.loc	10 739 9 is_stmt 1              @ lvgl/src/lv_widgets/lv_tabview.c:739:9
	b	.LBB2_6
.LBB2_8:
	.loc	10 744 36                       @ lvgl/src/lv_widgets/lv_tabview.c:744:36
	ldr	r0, [sp, #44]
	.loc	10 744 15 is_stmt 0             @ lvgl/src/lv_widgets/lv_tabview.c:744:15
	bl	lv_indev_finish_drag
	.loc	10 744 13                       @ lvgl/src/lv_widgets/lv_tabview.c:744:13
	strb.w	r0, [sp, #63]
.Ltmp149:
	.loc	10 745 12 is_stmt 1             @ lvgl/src/lv_widgets/lv_tabview.c:745:12
	ldrb.w	r0, [sp, #63]
.Ltmp150:
	.loc	10 745 12 is_stmt 0             @ lvgl/src/lv_widgets/lv_tabview.c:745:12
	cmp	r0, #1
	beq	.LBB2_10
	b	.LBB2_9
.LBB2_9:
.Ltmp151:
	.loc	10 745 37                       @ lvgl/src/lv_widgets/lv_tabview.c:745:37
	ldrb.w	r0, [sp, #63]
	.loc	10 745 30                       @ lvgl/src/lv_widgets/lv_tabview.c:745:30
	strb.w	r0, [sp, #79]
	b	.LBB2_33
.Ltmp152:
.LBB2_10:
	.loc	10 746 50 is_stmt 1             @ lvgl/src/lv_widgets/lv_tabview.c:746:50
	ldr	r0, [sp, #52]
	.loc	10 746 59 is_stmt 0             @ lvgl/src/lv_widgets/lv_tabview.c:746:59
	ldr	r1, [sp, #48]
	.loc	10 746 64                       @ lvgl/src/lv_widgets/lv_tabview.c:746:64
	ldrh	r1, [r1, #20]
	.loc	10 746 31                       @ lvgl/src/lv_widgets/lv_tabview.c:746:31
	bl	lv_tabview_get_tab
	.loc	10 746 20                       @ lvgl/src/lv_widgets/lv_tabview.c:746:20
	str	r0, [sp, #28]
.Ltmp153:
	.loc	10 747 12 is_stmt 1             @ lvgl/src/lv_widgets/lv_tabview.c:747:12
	ldr	r0, [sp, #28]
.Ltmp154:
	.loc	10 747 12 is_stmt 0             @ lvgl/src/lv_widgets/lv_tabview.c:747:12
	cbnz	r0, .LBB2_12
	b	.LBB2_11
.LBB2_11:
	.loc	10 0 12                         @ lvgl/src/lv_widgets/lv_tabview.c:0:12
	movs	r0, #1
.Ltmp155:
	.loc	10 747 30                       @ lvgl/src/lv_widgets/lv_tabview.c:747:30
	strb.w	r0, [sp, #79]
	b	.LBB2_33
.Ltmp156:
.LBB2_12:
	.loc	10 748 31 is_stmt 1             @ lvgl/src/lv_widgets/lv_tabview.c:748:31
	ldr	r0, [sp, #28]
	ldrh	r0, [r0, #16]
	.loc	10 748 53 is_stmt 0             @ lvgl/src/lv_widgets/lv_tabview.c:748:53
	ldr	r1, [sp, #52]
	ldrh	r1, [r1, #16]
	.loc	10 748 51                       @ lvgl/src/lv_widgets/lv_tabview.c:748:51
	subs	r0, r0, r1
	.loc	10 748 74                       @ lvgl/src/lv_widgets/lv_tabview.c:748:74
	ldrh.w	r1, [sp, #34]
	.loc	10 748 72                       @ lvgl/src/lv_widgets/lv_tabview.c:748:72
	add	r0, r1
	.loc	10 748 20                       @ lvgl/src/lv_widgets/lv_tabview.c:748:20
	strh.w	r0, [sp, #26]
	.loc	10 749 31 is_stmt 1             @ lvgl/src/lv_widgets/lv_tabview.c:749:31
	ldrh.w	r0, [sp, #26]
	.loc	10 749 58 is_stmt 0             @ lvgl/src/lv_widgets/lv_tabview.c:749:58
	str	r0, [sp, #4]                    @ 4-byte Spill
	ldr	r0, [sp, #52]
	.loc	10 749 41                       @ lvgl/src/lv_widgets/lv_tabview.c:749:41
	bl	lv_obj_get_width
	mov	r1, r0
	.loc	10 749 39                       @ lvgl/src/lv_widgets/lv_tabview.c:749:39
	ldr	r0, [sp, #4]                    @ 4-byte Reload
	add	r0, r1
	.loc	10 749 20                       @ lvgl/src/lv_widgets/lv_tabview.c:749:20
	strh.w	r0, [sp, #24]
	.loc	10 750 49 is_stmt 1             @ lvgl/src/lv_widgets/lv_tabview.c:750:49
	ldr	r0, [sp, #52]
	.loc	10 750 32 is_stmt 0             @ lvgl/src/lv_widgets/lv_tabview.c:750:32
	bl	lv_obj_get_width
	.loc	10 750 58                       @ lvgl/src/lv_widgets/lv_tabview.c:750:58
	add.w	r0, r0, r0, lsr #31
	lsrs	r0, r0, #1
	.loc	10 750 20                       @ lvgl/src/lv_widgets/lv_tabview.c:750:20
	strh.w	r0, [sp, #22]
	.loc	10 752 54 is_stmt 1             @ lvgl/src/lv_widgets/lv_tabview.c:752:54
	ldr	r0, [sp, #52]
	.loc	10 752 34 is_stmt 0             @ lvgl/src/lv_widgets/lv_tabview.c:752:34
	bl	lv_obj_get_base_dir
	.loc	10 752 23                       @ lvgl/src/lv_widgets/lv_tabview.c:752:23
	strb.w	r0, [sp, #21]
	.loc	10 753 27 is_stmt 1             @ lvgl/src/lv_widgets/lv_tabview.c:753:27
	ldr	r0, [sp, #48]
	.loc	10 753 32 is_stmt 0             @ lvgl/src/lv_widgets/lv_tabview.c:753:32
	ldrh	r0, [r0, #20]
	.loc	10 753 17                       @ lvgl/src/lv_widgets/lv_tabview.c:753:17
	strh.w	r0, [sp, #18]
.Ltmp157:
	.loc	10 754 12 is_stmt 1             @ lvgl/src/lv_widgets/lv_tabview.c:754:12
	ldrsh.w	r0, [sp, #26]
	.loc	10 754 22 is_stmt 0             @ lvgl/src/lv_widgets/lv_tabview.c:754:22
	ldrsh.w	r1, [sp, #22]
.Ltmp158:
	.loc	10 754 12                       @ lvgl/src/lv_widgets/lv_tabview.c:754:12
	cmp	r0, r1
	ble	.LBB2_17
	b	.LBB2_13
.LBB2_13:
.Ltmp159:
	.loc	10 755 16 is_stmt 1             @ lvgl/src/lv_widgets/lv_tabview.c:755:16
	ldrb.w	r0, [sp, #21]
.Ltmp160:
	.loc	10 755 16 is_stmt 0             @ lvgl/src/lv_widgets/lv_tabview.c:755:16
	cmp	r0, #1
	beq	.LBB2_15
	b	.LBB2_14
.LBB2_14:
.Ltmp161:
	.loc	10 755 52                       @ lvgl/src/lv_widgets/lv_tabview.c:755:52
	ldrh.w	r0, [sp, #18]
	subs	r0, #1
	strh.w	r0, [sp, #18]
	.loc	10 755 45                       @ lvgl/src/lv_widgets/lv_tabview.c:755:45
	b	.LBB2_16
.LBB2_15:
	.loc	10 756 26 is_stmt 1             @ lvgl/src/lv_widgets/lv_tabview.c:756:26
	ldrh.w	r0, [sp, #18]
	adds	r0, #1
	strh.w	r0, [sp, #18]
	b	.LBB2_16
.Ltmp162:
.LBB2_16:
	.loc	10 757 9                        @ lvgl/src/lv_widgets/lv_tabview.c:757:9
	b	.LBB2_23
.Ltmp163:
.LBB2_17:
	.loc	10 758 17                       @ lvgl/src/lv_widgets/lv_tabview.c:758:17
	ldrsh.w	r0, [sp, #24]
	.loc	10 758 27 is_stmt 0             @ lvgl/src/lv_widgets/lv_tabview.c:758:27
	ldrsh.w	r1, [sp, #22]
.Ltmp164:
	.loc	10 758 17                       @ lvgl/src/lv_widgets/lv_tabview.c:758:17
	cmp	r0, r1
	bge	.LBB2_22
	b	.LBB2_18
.LBB2_18:
.Ltmp165:
	.loc	10 759 16 is_stmt 1             @ lvgl/src/lv_widgets/lv_tabview.c:759:16
	ldrb.w	r0, [sp, #21]
.Ltmp166:
	.loc	10 759 16 is_stmt 0             @ lvgl/src/lv_widgets/lv_tabview.c:759:16
	cmp	r0, #1
	beq	.LBB2_20
	b	.LBB2_19
.LBB2_19:
.Ltmp167:
	.loc	10 759 52                       @ lvgl/src/lv_widgets/lv_tabview.c:759:52
	ldrh.w	r0, [sp, #18]
	adds	r0, #1
	strh.w	r0, [sp, #18]
	.loc	10 759 45                       @ lvgl/src/lv_widgets/lv_tabview.c:759:45
	b	.LBB2_21
.LBB2_20:
	.loc	10 760 26 is_stmt 1             @ lvgl/src/lv_widgets/lv_tabview.c:760:26
	ldrh.w	r0, [sp, #18]
	subs	r0, #1
	strh.w	r0, [sp, #18]
	b	.LBB2_21
.Ltmp168:
.LBB2_21:
	.loc	10 761 9                        @ lvgl/src/lv_widgets/lv_tabview.c:761:9
	b	.LBB2_22
.Ltmp169:
.LBB2_22:
	.loc	10 0 9 is_stmt 0                @ lvgl/src/lv_widgets/lv_tabview.c:0:9
	b	.LBB2_23
.LBB2_23:
.Ltmp170:
	.loc	10 763 12 is_stmt 1             @ lvgl/src/lv_widgets/lv_tabview.c:763:12
	ldrsh.w	r0, [sp, #18]
	.loc	10 763 22 is_stmt 0             @ lvgl/src/lv_widgets/lv_tabview.c:763:22
	ldr	r1, [sp, #48]
	.loc	10 763 27                       @ lvgl/src/lv_widgets/lv_tabview.c:763:27
	ldrh	r1, [r1, #22]
	.loc	10 763 35                       @ lvgl/src/lv_widgets/lv_tabview.c:763:35
	subs	r1, #1
.Ltmp171:
	.loc	10 763 12                       @ lvgl/src/lv_widgets/lv_tabview.c:763:12
	cmp	r0, r1
	ble	.LBB2_25
	b	.LBB2_24
.LBB2_24:
.Ltmp172:
	.loc	10 763 50                       @ lvgl/src/lv_widgets/lv_tabview.c:763:50
	ldr	r0, [sp, #48]
	ldrh	r0, [r0, #22]
	.loc	10 763 63                       @ lvgl/src/lv_widgets/lv_tabview.c:763:63
	subs	r0, #1
	.loc	10 763 48                       @ lvgl/src/lv_widgets/lv_tabview.c:763:48
	strh.w	r0, [sp, #18]
	.loc	10 763 40                       @ lvgl/src/lv_widgets/lv_tabview.c:763:40
	b	.LBB2_25
.Ltmp173:
.LBB2_25:
	.loc	10 764 12 is_stmt 1             @ lvgl/src/lv_widgets/lv_tabview.c:764:12
	ldrsh.w	r0, [sp, #18]
.Ltmp174:
	.loc	10 764 12 is_stmt 0             @ lvgl/src/lv_widgets/lv_tabview.c:764:12
	cmp.w	r0, #-1
	bgt	.LBB2_27
	b	.LBB2_26
.LBB2_26:
	.loc	10 0 12                         @ lvgl/src/lv_widgets/lv_tabview.c:0:12
	movs	r0, #0
.Ltmp175:
	.loc	10 764 33                       @ lvgl/src/lv_widgets/lv_tabview.c:764:33
	strh.w	r0, [sp, #18]
	.loc	10 764 25                       @ lvgl/src/lv_widgets/lv_tabview.c:764:25
	b	.LBB2_27
.Ltmp176:
.LBB2_27:
	.loc	10 766 51 is_stmt 1             @ lvgl/src/lv_widgets/lv_tabview.c:766:51
	ldr	r0, [sp, #52]
	.loc	10 766 28 is_stmt 0             @ lvgl/src/lv_widgets/lv_tabview.c:766:28
	bl	lv_tabview_get_tab_act
	.loc	10 766 18                       @ lvgl/src/lv_widgets/lv_tabview.c:766:18
	str	r0, [sp, #12]
	.loc	10 767 32 is_stmt 1             @ lvgl/src/lv_widgets/lv_tabview.c:767:32
	ldr	r0, [sp, #52]
	.loc	10 767 41 is_stmt 0             @ lvgl/src/lv_widgets/lv_tabview.c:767:41
	ldrh.w	r1, [sp, #18]
	movs	r2, #1
	.loc	10 767 9                        @ lvgl/src/lv_widgets/lv_tabview.c:767:9
	bl	lv_tabview_set_tab_act
	.loc	10 768 50 is_stmt 1             @ lvgl/src/lv_widgets/lv_tabview.c:768:50
	ldr	r0, [sp, #52]
	.loc	10 768 27 is_stmt 0             @ lvgl/src/lv_widgets/lv_tabview.c:768:27
	bl	lv_tabview_get_tab_act
	.loc	10 768 18                       @ lvgl/src/lv_widgets/lv_tabview.c:768:18
	str	r0, [sp, #8]
.Ltmp177:
	.loc	10 770 12 is_stmt 1             @ lvgl/src/lv_widgets/lv_tabview.c:770:12
	ldr	r0, [sp, #12]
	.loc	10 770 23 is_stmt 0             @ lvgl/src/lv_widgets/lv_tabview.c:770:23
	ldr	r1, [sp, #8]
.Ltmp178:
	.loc	10 770 12                       @ lvgl/src/lv_widgets/lv_tabview.c:770:12
	cmp	r0, r1
	beq	.LBB2_29
	b	.LBB2_28
.LBB2_28:
.Ltmp179:
	.loc	10 770 51                       @ lvgl/src/lv_widgets/lv_tabview.c:770:51
	ldr	r0, [sp, #52]
	movs	r1, #16
	add	r2, sp, #12
	.loc	10 770 37                       @ lvgl/src/lv_widgets/lv_tabview.c:770:37
	bl	lv_event_send
	.loc	10 770 35                       @ lvgl/src/lv_widgets/lv_tabview.c:770:35
	strb.w	r0, [sp, #63]
	.loc	10 770 31                       @ lvgl/src/lv_widgets/lv_tabview.c:770:31
	b	.LBB2_29
.Ltmp180:
.LBB2_29:
	.loc	10 771 12 is_stmt 1             @ lvgl/src/lv_widgets/lv_tabview.c:771:12
	ldrb.w	r0, [sp, #63]
.Ltmp181:
	.loc	10 771 12 is_stmt 0             @ lvgl/src/lv_widgets/lv_tabview.c:771:12
	cmp	r0, #1
	beq	.LBB2_31
	b	.LBB2_30
.LBB2_30:
.Ltmp182:
	.loc	10 771 37                       @ lvgl/src/lv_widgets/lv_tabview.c:771:37
	ldrb.w	r0, [sp, #63]
	.loc	10 771 30                       @ lvgl/src/lv_widgets/lv_tabview.c:771:30
	strb.w	r0, [sp, #79]
	b	.LBB2_33
.Ltmp183:
.LBB2_31:
	.loc	10 773 5 is_stmt 1              @ lvgl/src/lv_widgets/lv_tabview.c:773:5
	b	.LBB2_32
.Ltmp184:
.LBB2_32:
	.loc	10 774 12                       @ lvgl/src/lv_widgets/lv_tabview.c:774:12
	ldrb.w	r0, [sp, #63]
	.loc	10 774 5 is_stmt 0              @ lvgl/src/lv_widgets/lv_tabview.c:774:5
	strb.w	r0, [sp, #79]
	b	.LBB2_33
.LBB2_33:
	.loc	10 775 1 is_stmt 1              @ lvgl/src/lv_widgets/lv_tabview.c:775:1
	ldrb.w	r0, [sp, #79]
	add	sp, #80
	pop	{r7, pc}
.Ltmp185:
.Lfunc_end2:
	.size	tabview_scrl_signal, .Lfunc_end2-tabview_scrl_signal
	.cfi_endproc
	.cantunwind
	.fnend
                                        @ -- End function
	.section	.text.tab_btnm_event_cb,"ax",%progbits
	.p2align	3                               @ -- Begin function tab_btnm_event_cb
	.type	tab_btnm_event_cb,%function
	.code	16                              @ @tab_btnm_event_cb
	.thumb_func
tab_btnm_event_cb:
.Lfunc_begin3:
	.loc	10 819 0                        @ lvgl/src/lv_widgets/lv_tabview.c:819:0
	.fnstart
	.cfi_startproc
@ %bb.0:
	.save	{r7, lr}
	push	{r7, lr}
	.cfi_def_cfa_offset 8
	.cfi_offset lr, -4
	.cfi_offset r7, -8
	.pad	#32
	sub	sp, #32
	.cfi_def_cfa_offset 40
                                        @ kill: def $r2 killed $r1
	str	r0, [sp, #28]
	strb.w	r1, [sp, #27]
.Ltmp186:
	.loc	10 820 8 prologue_end           @ lvgl/src/lv_widgets/lv_tabview.c:820:8
	ldrb.w	r0, [sp, #27]
.Ltmp187:
	.loc	10 820 8 is_stmt 0              @ lvgl/src/lv_widgets/lv_tabview.c:820:8
	cmp	r0, #6
	beq	.LBB3_2
	b	.LBB3_1
.LBB3_1:
.Ltmp188:
	.loc	10 820 35                       @ lvgl/src/lv_widgets/lv_tabview.c:820:35
	b	.LBB3_12
.Ltmp189:
.LBB3_2:
	.loc	10 822 51 is_stmt 1             @ lvgl/src/lv_widgets/lv_tabview.c:822:51
	ldr	r0, [sp, #28]
	.loc	10 822 23 is_stmt 0             @ lvgl/src/lv_widgets/lv_tabview.c:822:23
	bl	lv_btnmatrix_get_active_btn
	.loc	10 822 14                       @ lvgl/src/lv_widgets/lv_tabview.c:822:14
	strh.w	r0, [sp, #24]
.Ltmp190:
	.loc	10 823 8 is_stmt 1              @ lvgl/src/lv_widgets/lv_tabview.c:823:8
	ldrh.w	r0, [sp, #24]
	movw	r1, #65535
.Ltmp191:
	.loc	10 823 8 is_stmt 0              @ lvgl/src/lv_widgets/lv_tabview.c:823:8
	cmp	r0, r1
	bne	.LBB3_4
	b	.LBB3_3
.LBB3_3:
.Ltmp192:
	.loc	10 823 41                       @ lvgl/src/lv_widgets/lv_tabview.c:823:41
	b	.LBB3_12
.Ltmp193:
.LBB3_4:
	.loc	10 825 34 is_stmt 1             @ lvgl/src/lv_widgets/lv_tabview.c:825:34
	ldr	r0, [sp, #28]
	.loc	10 825 44 is_stmt 0             @ lvgl/src/lv_widgets/lv_tabview.c:825:44
	ldrh.w	r1, [sp, #24]
	movs	r2, #32
	.loc	10 825 8                        @ lvgl/src/lv_widgets/lv_tabview.c:825:8
	bl	lv_btnmatrix_get_btn_ctrl
.Ltmp194:
	.loc	10 825 8                        @ lvgl/src/lv_widgets/lv_tabview.c:825:8
	cbz	r0, .LBB3_6
	b	.LBB3_5
.LBB3_5:
.Ltmp195:
	.loc	10 825 81                       @ lvgl/src/lv_widgets/lv_tabview.c:825:81
	b	.LBB3_12
.Ltmp196:
.LBB3_6:
	.loc	10 827 37 is_stmt 1             @ lvgl/src/lv_widgets/lv_tabview.c:827:37
	ldr	r0, [sp, #28]
	movs	r1, #128
	.loc	10 827 5 is_stmt 0              @ lvgl/src/lv_widgets/lv_tabview.c:827:5
	str	r1, [sp]                        @ 4-byte Spill
	bl	lv_btnmatrix_clear_btn_ctrl_all
	ldr	r2, [sp]                        @ 4-byte Reload
	.loc	10 828 31 is_stmt 1             @ lvgl/src/lv_widgets/lv_tabview.c:828:31
	ldr	r0, [sp, #28]
	.loc	10 828 41 is_stmt 0             @ lvgl/src/lv_widgets/lv_tabview.c:828:41
	ldrh.w	r1, [sp, #24]
	.loc	10 828 5                        @ lvgl/src/lv_widgets/lv_tabview.c:828:5
	bl	lv_btnmatrix_set_btn_ctrl
	.loc	10 830 44 is_stmt 1             @ lvgl/src/lv_widgets/lv_tabview.c:830:44
	ldr	r0, [sp, #28]
	.loc	10 830 26 is_stmt 0             @ lvgl/src/lv_widgets/lv_tabview.c:830:26
	bl	lv_obj_get_parent
	.loc	10 830 16                       @ lvgl/src/lv_widgets/lv_tabview.c:830:16
	str	r0, [sp, #20]
	.loc	10 832 47 is_stmt 1             @ lvgl/src/lv_widgets/lv_tabview.c:832:47
	ldr	r0, [sp, #20]
	.loc	10 832 24 is_stmt 0             @ lvgl/src/lv_widgets/lv_tabview.c:832:24
	bl	lv_tabview_get_tab_act
	.loc	10 832 14                       @ lvgl/src/lv_widgets/lv_tabview.c:832:14
	str	r0, [sp, #16]
	.loc	10 833 28 is_stmt 1             @ lvgl/src/lv_widgets/lv_tabview.c:833:28
	ldr	r0, [sp, #20]
	.loc	10 833 37 is_stmt 0             @ lvgl/src/lv_widgets/lv_tabview.c:833:37
	ldrh.w	r1, [sp, #24]
	movs	r2, #1
	.loc	10 833 5                        @ lvgl/src/lv_widgets/lv_tabview.c:833:5
	str	r2, [sp, #4]                    @ 4-byte Spill
	bl	lv_tabview_set_tab_act
	.loc	10 834 46 is_stmt 1             @ lvgl/src/lv_widgets/lv_tabview.c:834:46
	ldr	r0, [sp, #20]
	.loc	10 834 23 is_stmt 0             @ lvgl/src/lv_widgets/lv_tabview.c:834:23
	bl	lv_tabview_get_tab_act
	mov	r1, r0
	.loc	10 834 14                       @ lvgl/src/lv_widgets/lv_tabview.c:834:14
	ldr	r0, [sp, #4]                    @ 4-byte Reload
	str	r1, [sp, #12]
	.loc	10 836 14 is_stmt 1             @ lvgl/src/lv_widgets/lv_tabview.c:836:14
	strb.w	r0, [sp, #11]
.Ltmp197:
	.loc	10 837 8                        @ lvgl/src/lv_widgets/lv_tabview.c:837:8
	ldr	r0, [sp, #16]
	.loc	10 837 19 is_stmt 0             @ lvgl/src/lv_widgets/lv_tabview.c:837:19
	ldr	r1, [sp, #12]
.Ltmp198:
	.loc	10 837 8                        @ lvgl/src/lv_widgets/lv_tabview.c:837:8
	cmp	r0, r1
	beq	.LBB3_8
	b	.LBB3_7
.LBB3_7:
.Ltmp199:
	.loc	10 837 47                       @ lvgl/src/lv_widgets/lv_tabview.c:837:47
	ldr	r0, [sp, #20]
	movs	r1, #16
	add	r2, sp, #12
	.loc	10 837 33                       @ lvgl/src/lv_widgets/lv_tabview.c:837:33
	bl	lv_event_send
	.loc	10 837 31                       @ lvgl/src/lv_widgets/lv_tabview.c:837:31
	strb.w	r0, [sp, #11]
	.loc	10 837 27                       @ lvgl/src/lv_widgets/lv_tabview.c:837:27
	b	.LBB3_8
.Ltmp200:
.LBB3_8:
	.loc	10 840 26 is_stmt 1             @ lvgl/src/lv_widgets/lv_tabview.c:840:26
	bl	lv_indev_get_act
	.loc	10 840 8 is_stmt 0              @ lvgl/src/lv_widgets/lv_tabview.c:840:8
	bl	lv_indev_get_type
.Ltmp201:
	.loc	10 840 8                        @ lvgl/src/lv_widgets/lv_tabview.c:840:8
	cmp	r0, #4
	bne	.LBB3_10
	b	.LBB3_9
.LBB3_9:
.Ltmp202:
	.loc	10 841 47 is_stmt 1             @ lvgl/src/lv_widgets/lv_tabview.c:841:47
	ldr	r0, [sp, #20]
	.loc	10 841 30 is_stmt 0             @ lvgl/src/lv_widgets/lv_tabview.c:841:30
	bl	lv_obj_get_group
	movs	r1, #0
	.loc	10 841 9                        @ lvgl/src/lv_widgets/lv_tabview.c:841:9
	bl	lv_group_set_editing
	.loc	10 842 5 is_stmt 1              @ lvgl/src/lv_widgets/lv_tabview.c:842:5
	b	.LBB3_10
.Ltmp203:
.LBB3_10:
	.loc	10 845 8                        @ lvgl/src/lv_widgets/lv_tabview.c:845:8
	ldrb.w	r0, [sp, #11]
.Ltmp204:
	.loc	10 845 8 is_stmt 0              @ lvgl/src/lv_widgets/lv_tabview.c:845:8
	cmp	r0, #1
	beq	.LBB3_12
	b	.LBB3_11
.LBB3_11:
.Ltmp205:
	.loc	10 845 26                       @ lvgl/src/lv_widgets/lv_tabview.c:845:26
	b	.LBB3_12
.Ltmp206:
.LBB3_12:
	.loc	10 846 1 is_stmt 1              @ lvgl/src/lv_widgets/lv_tabview.c:846:1
	add	sp, #32
	pop	{r7, pc}
.Ltmp207:
.Lfunc_end3:
	.size	tab_btnm_event_cb, .Lfunc_end3-tab_btnm_event_cb
	.cfi_endproc
	.cantunwind
	.fnend
                                        @ -- End function
	.section	.text.lv_page_set_scrollable_fit2,"ax",%progbits
	.p2align	3                               @ -- Begin function lv_page_set_scrollable_fit2
	.type	lv_page_set_scrollable_fit2,%function
	.code	16                              @ @lv_page_set_scrollable_fit2
	.thumb_func
lv_page_set_scrollable_fit2:
.Lfunc_begin4:
	.loc	13 187 0                        @ lvgl/src/lv_widgets/../lv_widgets/lv_page.h:187:0
	.fnstart
	.cfi_startproc
@ %bb.0:
	.save	{r7, lr}
	push	{r7, lr}
	.cfi_def_cfa_offset 8
	.cfi_offset lr, -4
	.cfi_offset r7, -8
	.pad	#8
	sub	sp, #8
	.cfi_def_cfa_offset 16
                                        @ kill: def $r3 killed $r2
                                        @ kill: def $r3 killed $r1
	str	r0, [sp, #4]
	strb.w	r1, [sp, #3]
	strb.w	r2, [sp, #2]
.Ltmp208:
	.loc	13 188 45 prologue_end          @ lvgl/src/lv_widgets/../lv_widgets/lv_page.h:188:45
	ldr	r0, [sp, #4]
	.loc	13 188 22 is_stmt 0             @ lvgl/src/lv_widgets/../lv_widgets/lv_page.h:188:22
	bl	lv_page_get_scrollable
	.loc	13 188 52                       @ lvgl/src/lv_widgets/../lv_widgets/lv_page.h:188:52
	ldrb.w	r1, [sp, #3]
	.loc	13 188 57                       @ lvgl/src/lv_widgets/../lv_widgets/lv_page.h:188:57
	ldrb.w	r2, [sp, #2]
	.loc	13 188 5                        @ lvgl/src/lv_widgets/../lv_widgets/lv_page.h:188:5
	bl	lv_cont_set_fit2
	.loc	13 189 1 is_stmt 1              @ lvgl/src/lv_widgets/../lv_widgets/lv_page.h:189:1
	add	sp, #8
	pop	{r7, pc}
.Ltmp209:
.Lfunc_end4:
	.size	lv_page_set_scrollable_fit2, .Lfunc_end4-lv_page_set_scrollable_fit2
	.cfi_endproc
	.cantunwind
	.fnend
                                        @ -- End function
	.section	.text.lv_page_set_scrl_layout,"ax",%progbits
	.p2align	3                               @ -- Begin function lv_page_set_scrl_layout
	.type	lv_page_set_scrl_layout,%function
	.code	16                              @ @lv_page_set_scrl_layout
	.thumb_func
lv_page_set_scrl_layout:
.Lfunc_begin5:
	.loc	13 228 0                        @ lvgl/src/lv_widgets/../lv_widgets/lv_page.h:228:0
	.fnstart
	.cfi_startproc
@ %bb.0:
	.save	{r7, lr}
	push	{r7, lr}
	.cfi_def_cfa_offset 8
	.cfi_offset lr, -4
	.cfi_offset r7, -8
	.pad	#8
	sub	sp, #8
	.cfi_def_cfa_offset 16
                                        @ kill: def $r2 killed $r1
	str	r0, [sp, #4]
	strb.w	r1, [sp, #3]
.Ltmp210:
	.loc	13 229 47 prologue_end          @ lvgl/src/lv_widgets/../lv_widgets/lv_page.h:229:47
	ldr	r0, [sp, #4]
	.loc	13 229 24 is_stmt 0             @ lvgl/src/lv_widgets/../lv_widgets/lv_page.h:229:24
	bl	lv_page_get_scrollable
	.loc	13 229 54                       @ lvgl/src/lv_widgets/../lv_widgets/lv_page.h:229:54
	ldrb.w	r1, [sp, #3]
	.loc	13 229 5                        @ lvgl/src/lv_widgets/../lv_widgets/lv_page.h:229:5
	bl	lv_cont_set_layout
	.loc	13 230 1 is_stmt 1              @ lvgl/src/lv_widgets/../lv_widgets/lv_page.h:230:1
	add	sp, #8
	pop	{r7, pc}
.Ltmp211:
.Lfunc_end5:
	.size	lv_page_set_scrl_layout, .Lfunc_end5-lv_page_set_scrl_layout
	.cfi_endproc
	.cantunwind
	.fnend
                                        @ -- End function
	.section	.text.lv_tabview_add_tab,"ax",%progbits
	.hidden	lv_tabview_add_tab              @ -- Begin function lv_tabview_add_tab
	.globl	lv_tabview_add_tab
	.p2align	3
	.type	lv_tabview_add_tab,%function
	.code	16                              @ @lv_tabview_add_tab
	.thumb_func
lv_tabview_add_tab:
.Lfunc_begin6:
	.loc	10 208 0                        @ lvgl/src/lv_widgets/lv_tabview.c:208:0
	.fnstart
	.cfi_startproc
@ %bb.0:
	.save	{r7, lr}
	push	{r7, lr}
	.cfi_def_cfa_offset 8
	.cfi_offset lr, -4
	.cfi_offset r7, -8
	.pad	#56
	sub	sp, #56
	.cfi_def_cfa_offset 64
	str	r0, [sp, #48]
	str	r1, [sp, #44]
.Ltmp212:
	.loc	10 209 5 prologue_end           @ lvgl/src/lv_widgets/lv_tabview.c:209:5
	b	.LBB6_1
.LBB6_1:
.Ltmp213:
	.loc	10 209 5 is_stmt 0              @ lvgl/src/lv_widgets/lv_tabview.c:209:5
	ldr	r0, [sp, #48]
	bl	lv_debug_check_null
.Ltmp214:
	.loc	10 209 5                        @ lvgl/src/lv_widgets/lv_tabview.c:209:5
	cbnz	r0, .LBB6_4
	b	.LBB6_2
.LBB6_2:
.Ltmp215:
	.loc	10 209 5                        @ lvgl/src/lv_widgets/lv_tabview.c:209:5
	ldr	r2, [sp, #48]
	movw	r0, :lower16:.L.str.2
	movt	r0, :upper16:.L.str.2
	movs	r3, #0
	bl	lv_debug_log_error
	b	.LBB6_3
.LBB6_3:                                @ =>This Inner Loop Header: Depth=1
	b	.LBB6_3
.Ltmp216:
.LBB6_4:
	.loc	10 209 5                        @ lvgl/src/lv_widgets/lv_tabview.c:209:5
	b	.LBB6_5
.Ltmp217:
.LBB6_5:
	.loc	10 210 5 is_stmt 1              @ lvgl/src/lv_widgets/lv_tabview.c:210:5
	b	.LBB6_6
.LBB6_6:
.Ltmp218:
	.loc	10 210 5 is_stmt 0              @ lvgl/src/lv_widgets/lv_tabview.c:210:5
	ldr	r0, [sp, #44]
	bl	lv_debug_check_null
.Ltmp219:
	.loc	10 210 5                        @ lvgl/src/lv_widgets/lv_tabview.c:210:5
	cbnz	r0, .LBB6_9
	b	.LBB6_7
.LBB6_7:
.Ltmp220:
	.loc	10 210 5                        @ lvgl/src/lv_widgets/lv_tabview.c:210:5
	ldr	r2, [sp, #44]
	movw	r0, :lower16:.L.str.2
	movt	r0, :upper16:.L.str.2
	movs	r3, #0
	bl	lv_debug_log_error
	b	.LBB6_8
.LBB6_8:                                @ =>This Inner Loop Header: Depth=1
	b	.LBB6_8
.Ltmp221:
.LBB6_9:
	.loc	10 210 5                        @ lvgl/src/lv_widgets/lv_tabview.c:210:5
	b	.LBB6_10
.Ltmp222:
.LBB6_10:
	.loc	10 212 50 is_stmt 1             @ lvgl/src/lv_widgets/lv_tabview.c:212:50
	ldr	r0, [sp, #48]
	.loc	10 212 30 is_stmt 0             @ lvgl/src/lv_widgets/lv_tabview.c:212:30
	bl	lv_obj_get_ext_attr
	.loc	10 212 24                       @ lvgl/src/lv_widgets/lv_tabview.c:212:24
	str	r0, [sp, #40]
	.loc	10 215 35 is_stmt 1             @ lvgl/src/lv_widgets/lv_tabview.c:215:35
	ldr	r0, [sp, #40]
	.loc	10 215 40 is_stmt 0             @ lvgl/src/lv_widgets/lv_tabview.c:215:40
	ldr	r0, [r0, #8]
	movs	r1, #0
	.loc	10 215 20                       @ lvgl/src/lv_widgets/lv_tabview.c:215:20
	str	r1, [sp, #24]                   @ 4-byte Spill
	bl	lv_page_create
	.loc	10 215 16                       @ lvgl/src/lv_widgets/lv_tabview.c:215:16
	str	r0, [sp, #36]
	.loc	10 216 21 is_stmt 1             @ lvgl/src/lv_widgets/lv_tabview.c:216:21
	ldr	r0, [sp, #36]
	.loc	10 216 41 is_stmt 0             @ lvgl/src/lv_widgets/lv_tabview.c:216:41
	str	r0, [sp, #16]                   @ 4-byte Spill
	ldr	r0, [sp, #48]
	.loc	10 216 24                       @ lvgl/src/lv_widgets/lv_tabview.c:216:24
	bl	lv_obj_get_width
	.loc	10 216 69                       @ lvgl/src/lv_widgets/lv_tabview.c:216:69
	str	r0, [sp, #12]                   @ 4-byte Spill
	ldr	r0, [sp, #40]
	.loc	10 216 74                       @ lvgl/src/lv_widgets/lv_tabview.c:216:74
	ldr	r0, [r0, #8]
	.loc	10 216 51                       @ lvgl/src/lv_widgets/lv_tabview.c:216:51
	bl	lv_obj_get_height
	ldr	r1, [sp, #12]                   @ 4-byte Reload
	mov	r2, r0
	.loc	10 216 5                        @ lvgl/src/lv_widgets/lv_tabview.c:216:5
	ldr	r0, [sp, #16]                   @ 4-byte Reload
	bl	lv_obj_set_size
	.loc	10 217 32 is_stmt 1             @ lvgl/src/lv_widgets/lv_tabview.c:217:32
	ldr	r0, [sp, #36]
	movs	r1, #3
	.loc	10 217 5 is_stmt 0              @ lvgl/src/lv_widgets/lv_tabview.c:217:5
	str	r1, [sp, #20]                   @ 4-byte Spill
	bl	lv_page_set_scrollbar_mode
	.loc	10 218 36 is_stmt 1             @ lvgl/src/lv_widgets/lv_tabview.c:218:36
	ldr	r0, [sp, #36]
	movs	r1, #1
	.loc	10 218 5 is_stmt 0              @ lvgl/src/lv_widgets/lv_tabview.c:218:5
	bl	lv_page_set_scroll_propagation
	ldr	r2, [sp, #20]                   @ 4-byte Reload
	ldr	r3, [sp, #24]                   @ 4-byte Reload
	.loc	10 219 33 is_stmt 1             @ lvgl/src/lv_widgets/lv_tabview.c:219:33
	ldr	r0, [sp, #36]
	.loc	10 219 5 is_stmt 0              @ lvgl/src/lv_widgets/lv_tabview.c:219:5
	mov	r1, sp
	str	r2, [r1]
	mov	r1, r3
	bl	lv_page_set_scrollable_fit4
	.loc	10 220 20 is_stmt 1             @ lvgl/src/lv_widgets/lv_tabview.c:220:20
	ldr	r0, [sp, #36]
	movs	r1, #36
	.loc	10 220 5 is_stmt 0              @ lvgl/src/lv_widgets/lv_tabview.c:220:5
	bl	lv_theme_apply
.Ltmp223:
	.loc	10 222 8 is_stmt 1              @ lvgl/src/lv_widgets/lv_tabview.c:222:8
	movw	r0, :lower16:page_signal
	movt	r0, :upper16:page_signal
	ldr	r0, [r0]
.Ltmp224:
	.loc	10 222 8 is_stmt 0              @ lvgl/src/lv_widgets/lv_tabview.c:222:8
	cbnz	r0, .LBB6_12
	b	.LBB6_11
.LBB6_11:
.Ltmp225:
	.loc	10 222 64                       @ lvgl/src/lv_widgets/lv_tabview.c:222:64
	ldr	r0, [sp, #36]
	.loc	10 222 43                       @ lvgl/src/lv_widgets/lv_tabview.c:222:43
	bl	lv_obj_get_signal_cb
	.loc	10 222 41                       @ lvgl/src/lv_widgets/lv_tabview.c:222:41
	movw	r1, :lower16:page_signal
	movt	r1, :upper16:page_signal
	str	r0, [r1]
	.loc	10 222 29                       @ lvgl/src/lv_widgets/lv_tabview.c:222:29
	b	.LBB6_12
.Ltmp226:
.LBB6_12:
	.loc	10 226 35 is_stmt 1             @ lvgl/src/lv_widgets/lv_tabview.c:226:35
	ldr	r0, [sp, #44]
	.loc	10 226 28 is_stmt 0             @ lvgl/src/lv_widgets/lv_tabview.c:226:28
	bl	strlen
	.loc	10 226 41                       @ lvgl/src/lv_widgets/lv_tabview.c:226:41
	adds	r0, #1
	.loc	10 226 15                       @ lvgl/src/lv_widgets/lv_tabview.c:226:15
	bl	lv_mem_alloc
	.loc	10 226 13                       @ lvgl/src/lv_widgets/lv_tabview.c:226:13
	str	r0, [sp, #32]
	.loc	10 227 5 is_stmt 1              @ lvgl/src/lv_widgets/lv_tabview.c:227:5
	b	.LBB6_13
.LBB6_13:
.Ltmp227:
	.loc	10 227 5 is_stmt 0              @ lvgl/src/lv_widgets/lv_tabview.c:227:5
	ldr	r0, [sp, #32]
	bl	lv_debug_check_null
.Ltmp228:
	.loc	10 227 5                        @ lvgl/src/lv_widgets/lv_tabview.c:227:5
	cbnz	r0, .LBB6_16
	b	.LBB6_14
.LBB6_14:
.Ltmp229:
	.loc	10 227 5                        @ lvgl/src/lv_widgets/lv_tabview.c:227:5
	ldr	r2, [sp, #32]
	movw	r0, :lower16:.L.str
	movt	r0, :upper16:.L.str
	movs	r3, #0
	bl	lv_debug_log_error
	b	.LBB6_15
.LBB6_15:                               @ =>This Inner Loop Header: Depth=1
	b	.LBB6_15
.Ltmp230:
.LBB6_16:
	.loc	10 227 5                        @ lvgl/src/lv_widgets/lv_tabview.c:227:5
	b	.LBB6_17
.Ltmp231:
.LBB6_17:
	.loc	10 228 8 is_stmt 1              @ lvgl/src/lv_widgets/lv_tabview.c:228:8
	ldr	r0, [sp, #32]
.Ltmp232:
	.loc	10 228 8 is_stmt 0              @ lvgl/src/lv_widgets/lv_tabview.c:228:8
	cbnz	r0, .LBB6_19
	b	.LBB6_18
.LBB6_18:
	.loc	10 0 8                          @ lvgl/src/lv_widgets/lv_tabview.c:0:8
	movs	r0, #0
.Ltmp233:
	.loc	10 228 25                       @ lvgl/src/lv_widgets/lv_tabview.c:228:25
	str	r0, [sp, #52]
	b	.LBB6_44
.Ltmp234:
.LBB6_19:
	.loc	10 229 12 is_stmt 1             @ lvgl/src/lv_widgets/lv_tabview.c:229:12
	ldr	r0, [sp, #32]
	.loc	10 229 21 is_stmt 0             @ lvgl/src/lv_widgets/lv_tabview.c:229:21
	ldr	r1, [sp, #44]
	.loc	10 229 5                        @ lvgl/src/lv_widgets/lv_tabview.c:229:5
	bl	strcpy
	.loc	10 231 5 is_stmt 1              @ lvgl/src/lv_widgets/lv_tabview.c:231:5
	ldr	r1, [sp, #40]
	.loc	10 231 17 is_stmt 0             @ lvgl/src/lv_widgets/lv_tabview.c:231:17
	ldrh	r0, [r1, #22]
	adds	r0, #1
	strh	r0, [r1, #22]
	.loc	10 237 12 is_stmt 1             @ lvgl/src/lv_widgets/lv_tabview.c:237:12
	ldr	r0, [sp, #40]
	.loc	10 237 17 is_stmt 0             @ lvgl/src/lv_widgets/lv_tabview.c:237:17
	ldrb	r0, [r0, #26]
	.loc	10 237 12                       @ lvgl/src/lv_widgets/lv_tabview.c:237:12
	and	r0, r0, #7
	.loc	10 237 5                        @ lvgl/src/lv_widgets/lv_tabview.c:237:5
	mov	r1, r0
	str	r1, [sp, #8]                    @ 4-byte Spill
	cmp	r0, #3
	blo	.LBB6_22
	b	.LBB6_20
.LBB6_20:
	ldr	r0, [sp, #8]                    @ 4-byte Reload
	subs	r0, #3
	cmp	r0, #2
	blo	.LBB6_30
	b	.LBB6_21
.LBB6_21:
	.loc	10 237 27                       @ lvgl/src/lv_widgets/lv_tabview.c:237:27
	b	.LBB6_22
.LBB6_22:
.Ltmp235:
	.loc	10 242 48 is_stmt 1             @ lvgl/src/lv_widgets/lv_tabview.c:242:48
	ldr	r1, [sp, #40]
	.loc	10 242 53 is_stmt 0             @ lvgl/src/lv_widgets/lv_tabview.c:242:53
	ldr	r0, [r1, #12]
	.loc	10 242 90                       @ lvgl/src/lv_widgets/lv_tabview.c:242:90
	ldrh	r2, [r1, #22]
	movs	r1, #4
	.loc	10 242 82                       @ lvgl/src/lv_widgets/lv_tabview.c:242:82
	add.w	r1, r1, r2, lsl #2
	.loc	10 242 33                       @ lvgl/src/lv_widgets/lv_tabview.c:242:33
	bl	lv_mem_realloc
	.loc	10 242 13                       @ lvgl/src/lv_widgets/lv_tabview.c:242:13
	ldr	r1, [sp, #40]
	.loc	10 242 31                       @ lvgl/src/lv_widgets/lv_tabview.c:242:31
	str	r0, [r1, #12]
	.loc	10 244 13 is_stmt 1             @ lvgl/src/lv_widgets/lv_tabview.c:244:13
	b	.LBB6_23
.LBB6_23:
.Ltmp236:
	.loc	10 244 13 is_stmt 0             @ lvgl/src/lv_widgets/lv_tabview.c:244:13
	ldr	r0, [sp, #40]
	ldr	r0, [r0, #12]
	bl	lv_debug_check_null
.Ltmp237:
	.loc	10 244 13                       @ lvgl/src/lv_widgets/lv_tabview.c:244:13
	cbnz	r0, .LBB6_26
	b	.LBB6_24
.LBB6_24:
.Ltmp238:
	.loc	10 244 13                       @ lvgl/src/lv_widgets/lv_tabview.c:244:13
	ldr	r0, [sp, #40]
	ldr	r2, [r0, #12]
	movw	r0, :lower16:.L.str
	movt	r0, :upper16:.L.str
	movs	r3, #0
	bl	lv_debug_log_error
	b	.LBB6_25
.LBB6_25:                               @ =>This Inner Loop Header: Depth=1
	b	.LBB6_25
.Ltmp239:
.LBB6_26:
	.loc	10 244 13                       @ lvgl/src/lv_widgets/lv_tabview.c:244:13
	b	.LBB6_27
.Ltmp240:
.LBB6_27:
	.loc	10 245 16 is_stmt 1             @ lvgl/src/lv_widgets/lv_tabview.c:245:16
	ldr	r0, [sp, #40]
	.loc	10 245 21 is_stmt 0             @ lvgl/src/lv_widgets/lv_tabview.c:245:21
	ldr	r0, [r0, #12]
.Ltmp241:
	.loc	10 245 16                       @ lvgl/src/lv_widgets/lv_tabview.c:245:16
	cbnz	r0, .LBB6_29
	b	.LBB6_28
.LBB6_28:
	.loc	10 0 16                         @ lvgl/src/lv_widgets/lv_tabview.c:0:16
	movs	r0, #0
.Ltmp242:
	.loc	10 245 43                       @ lvgl/src/lv_widgets/lv_tabview.c:245:43
	str	r0, [sp, #52]
	b	.LBB6_44
.Ltmp243:
.LBB6_29:
	.loc	10 247 51 is_stmt 1             @ lvgl/src/lv_widgets/lv_tabview.c:247:51
	ldr	r0, [sp, #32]
	.loc	10 247 13 is_stmt 0             @ lvgl/src/lv_widgets/lv_tabview.c:247:13
	ldr	r2, [sp, #40]
	.loc	10 247 18                       @ lvgl/src/lv_widgets/lv_tabview.c:247:18
	ldr	r1, [r2, #12]
	.loc	10 247 36                       @ lvgl/src/lv_widgets/lv_tabview.c:247:36
	ldrh	r2, [r2, #22]
	.loc	10 247 13                       @ lvgl/src/lv_widgets/lv_tabview.c:247:13
	add.w	r1, r1, r2, lsl #2
	.loc	10 247 49                       @ lvgl/src/lv_widgets/lv_tabview.c:247:49
	str	r0, [r1, #-4]
	.loc	10 248 13 is_stmt 1             @ lvgl/src/lv_widgets/lv_tabview.c:248:13
	ldr	r0, [sp, #40]
	.loc	10 248 18 is_stmt 0             @ lvgl/src/lv_widgets/lv_tabview.c:248:18
	ldr	r1, [r0, #12]
	.loc	10 248 36                       @ lvgl/src/lv_widgets/lv_tabview.c:248:36
	ldrh	r2, [r0, #22]
	.loc	10 248 49                       @ lvgl/src/lv_widgets/lv_tabview.c:248:49
	movw	r0, :lower16:.L.str.1
	movt	r0, :upper16:.L.str.1
	str.w	r0, [r1, r2, lsl #2]
	.loc	10 250 13 is_stmt 1             @ lvgl/src/lv_widgets/lv_tabview.c:250:13
	b	.LBB6_41
.LBB6_30:
	.loc	10 253 48                       @ lvgl/src/lv_widgets/lv_tabview.c:253:48
	ldr	r1, [sp, #40]
	.loc	10 253 53 is_stmt 0             @ lvgl/src/lv_widgets/lv_tabview.c:253:53
	ldr	r0, [r1, #12]
	.loc	10 253 90                       @ lvgl/src/lv_widgets/lv_tabview.c:253:90
	ldrh	r1, [r1, #22]
	.loc	10 253 82                       @ lvgl/src/lv_widgets/lv_tabview.c:253:82
	lsls	r1, r1, #3
	.loc	10 253 33                       @ lvgl/src/lv_widgets/lv_tabview.c:253:33
	bl	lv_mem_realloc
	.loc	10 253 13                       @ lvgl/src/lv_widgets/lv_tabview.c:253:13
	ldr	r1, [sp, #40]
	.loc	10 253 31                       @ lvgl/src/lv_widgets/lv_tabview.c:253:31
	str	r0, [r1, #12]
	.loc	10 255 13 is_stmt 1             @ lvgl/src/lv_widgets/lv_tabview.c:255:13
	b	.LBB6_31
.LBB6_31:
.Ltmp244:
	.loc	10 255 13 is_stmt 0             @ lvgl/src/lv_widgets/lv_tabview.c:255:13
	ldr	r0, [sp, #40]
	ldr	r0, [r0, #12]
	bl	lv_debug_check_null
.Ltmp245:
	.loc	10 255 13                       @ lvgl/src/lv_widgets/lv_tabview.c:255:13
	cbnz	r0, .LBB6_34
	b	.LBB6_32
.LBB6_32:
.Ltmp246:
	.loc	10 255 13                       @ lvgl/src/lv_widgets/lv_tabview.c:255:13
	ldr	r0, [sp, #40]
	ldr	r2, [r0, #12]
	movw	r0, :lower16:.L.str
	movt	r0, :upper16:.L.str
	movs	r3, #0
	bl	lv_debug_log_error
	b	.LBB6_33
.LBB6_33:                               @ =>This Inner Loop Header: Depth=1
	b	.LBB6_33
.Ltmp247:
.LBB6_34:
	.loc	10 255 13                       @ lvgl/src/lv_widgets/lv_tabview.c:255:13
	b	.LBB6_35
.Ltmp248:
.LBB6_35:
	.loc	10 256 16 is_stmt 1             @ lvgl/src/lv_widgets/lv_tabview.c:256:16
	ldr	r0, [sp, #40]
	.loc	10 256 21 is_stmt 0             @ lvgl/src/lv_widgets/lv_tabview.c:256:21
	ldr	r0, [r0, #12]
.Ltmp249:
	.loc	10 256 16                       @ lvgl/src/lv_widgets/lv_tabview.c:256:16
	cbnz	r0, .LBB6_37
	b	.LBB6_36
.LBB6_36:
	.loc	10 0 16                         @ lvgl/src/lv_widgets/lv_tabview.c:0:16
	movs	r0, #0
.Ltmp250:
	.loc	10 256 43                       @ lvgl/src/lv_widgets/lv_tabview.c:256:43
	str	r0, [sp, #52]
	b	.LBB6_44
.Ltmp251:
.LBB6_37:
	.loc	10 258 16 is_stmt 1             @ lvgl/src/lv_widgets/lv_tabview.c:258:16
	ldr	r0, [sp, #40]
	.loc	10 258 21 is_stmt 0             @ lvgl/src/lv_widgets/lv_tabview.c:258:21
	ldrh	r0, [r0, #22]
.Ltmp252:
	.loc	10 258 16                       @ lvgl/src/lv_widgets/lv_tabview.c:258:16
	cmp	r0, #1
	bne	.LBB6_39
	b	.LBB6_38
.LBB6_38:
.Ltmp253:
	.loc	10 259 40 is_stmt 1             @ lvgl/src/lv_widgets/lv_tabview.c:259:40
	ldr	r0, [sp, #32]
	.loc	10 259 17 is_stmt 0             @ lvgl/src/lv_widgets/lv_tabview.c:259:17
	ldr	r1, [sp, #40]
	.loc	10 259 22                       @ lvgl/src/lv_widgets/lv_tabview.c:259:22
	ldr	r1, [r1, #12]
	.loc	10 259 38                       @ lvgl/src/lv_widgets/lv_tabview.c:259:38
	str	r0, [r1]
	.loc	10 260 17 is_stmt 1             @ lvgl/src/lv_widgets/lv_tabview.c:260:17
	ldr	r0, [sp, #40]
	.loc	10 260 22 is_stmt 0             @ lvgl/src/lv_widgets/lv_tabview.c:260:22
	ldr	r1, [r0, #12]
	.loc	10 260 38                       @ lvgl/src/lv_widgets/lv_tabview.c:260:38
	movw	r0, :lower16:.L.str.1
	movt	r0, :upper16:.L.str.1
	str	r0, [r1, #4]
	.loc	10 261 13 is_stmt 1             @ lvgl/src/lv_widgets/lv_tabview.c:261:13
	b	.LBB6_40
.Ltmp254:
.LBB6_39:
	.loc	10 263 17                       @ lvgl/src/lv_widgets/lv_tabview.c:263:17
	ldr	r1, [sp, #40]
	.loc	10 263 22 is_stmt 0             @ lvgl/src/lv_widgets/lv_tabview.c:263:22
	ldr	r0, [r1, #12]
	.loc	10 263 40                       @ lvgl/src/lv_widgets/lv_tabview.c:263:40
	ldrh	r1, [r1, #22]
	.loc	10 263 17                       @ lvgl/src/lv_widgets/lv_tabview.c:263:17
	add.w	r1, r0, r1, lsl #3
	.loc	10 263 57                       @ lvgl/src/lv_widgets/lv_tabview.c:263:57
	movw	r0, :lower16:.L.str.3
	movt	r0, :upper16:.L.str.3
	str	r0, [r1, #-12]
	.loc	10 264 59 is_stmt 1             @ lvgl/src/lv_widgets/lv_tabview.c:264:59
	ldr	r0, [sp, #32]
	.loc	10 264 17 is_stmt 0             @ lvgl/src/lv_widgets/lv_tabview.c:264:17
	ldr	r2, [sp, #40]
	.loc	10 264 22                       @ lvgl/src/lv_widgets/lv_tabview.c:264:22
	ldr	r1, [r2, #12]
	.loc	10 264 40                       @ lvgl/src/lv_widgets/lv_tabview.c:264:40
	ldrh	r2, [r2, #22]
	.loc	10 264 17                       @ lvgl/src/lv_widgets/lv_tabview.c:264:17
	add.w	r1, r1, r2, lsl #3
	.loc	10 264 57                       @ lvgl/src/lv_widgets/lv_tabview.c:264:57
	str	r0, [r1, #-8]
	.loc	10 265 17 is_stmt 1             @ lvgl/src/lv_widgets/lv_tabview.c:265:17
	ldr	r1, [sp, #40]
	.loc	10 265 22 is_stmt 0             @ lvgl/src/lv_widgets/lv_tabview.c:265:22
	ldr	r0, [r1, #12]
	.loc	10 265 40                       @ lvgl/src/lv_widgets/lv_tabview.c:265:40
	ldrh	r1, [r1, #22]
	.loc	10 265 17                       @ lvgl/src/lv_widgets/lv_tabview.c:265:17
	add.w	r1, r0, r1, lsl #3
	.loc	10 265 57                       @ lvgl/src/lv_widgets/lv_tabview.c:265:57
	movw	r0, :lower16:.L.str.1
	movt	r0, :upper16:.L.str.1
	str	r0, [r1, #-4]
	b	.LBB6_40
.Ltmp255:
.LBB6_40:
	.loc	10 267 13 is_stmt 1             @ lvgl/src/lv_widgets/lv_tabview.c:267:13
	b	.LBB6_41
.Ltmp256:
.LBB6_41:
	.loc	10 272 57                       @ lvgl/src/lv_widgets/lv_tabview.c:272:57
	ldr	r0, [sp, #40]
	.loc	10 272 62 is_stmt 0             @ lvgl/src/lv_widgets/lv_tabview.c:272:62
	ldr	r0, [r0]
	.loc	10 272 37                       @ lvgl/src/lv_widgets/lv_tabview.c:272:37
	bl	lv_obj_get_ext_attr
	.loc	10 272 26                       @ lvgl/src/lv_widgets/lv_tabview.c:272:26
	str	r0, [sp, #28]
	.loc	10 273 5 is_stmt 1              @ lvgl/src/lv_widgets/lv_tabview.c:273:5
	ldr	r1, [sp, #28]
	movs	r0, #0
	.loc	10 273 30 is_stmt 0             @ lvgl/src/lv_widgets/lv_tabview.c:273:30
	str	r0, [r1]
	.loc	10 275 26 is_stmt 1             @ lvgl/src/lv_widgets/lv_tabview.c:275:26
	ldr	r1, [sp, #40]
	.loc	10 275 31 is_stmt 0             @ lvgl/src/lv_widgets/lv_tabview.c:275:31
	ldr	r0, [r1]
	.loc	10 275 42                       @ lvgl/src/lv_widgets/lv_tabview.c:275:42
	ldr	r1, [r1, #12]
	.loc	10 275 5                        @ lvgl/src/lv_widgets/lv_tabview.c:275:5
	bl	lv_btnmatrix_set_map
	.loc	10 276 31 is_stmt 1             @ lvgl/src/lv_widgets/lv_tabview.c:276:31
	ldr	r1, [sp, #40]
	.loc	10 276 36 is_stmt 0             @ lvgl/src/lv_widgets/lv_tabview.c:276:36
	ldr	r0, [r1]
	.loc	10 276 47                       @ lvgl/src/lv_widgets/lv_tabview.c:276:47
	ldrh	r1, [r1, #20]
	movs	r2, #16
	.loc	10 276 5                        @ lvgl/src/lv_widgets/lv_tabview.c:276:5
	bl	lv_btnmatrix_set_btn_ctrl
.Ltmp257:
	.loc	10 279 8 is_stmt 1              @ lvgl/src/lv_widgets/lv_tabview.c:279:8
	ldr	r0, [sp, #40]
	.loc	10 279 13 is_stmt 0             @ lvgl/src/lv_widgets/lv_tabview.c:279:13
	ldrh	r0, [r0, #22]
.Ltmp258:
	.loc	10 279 8                        @ lvgl/src/lv_widgets/lv_tabview.c:279:8
	cmp	r0, #1
	bne	.LBB6_43
	b	.LBB6_42
.LBB6_42:
.Ltmp259:
	.loc	10 279 28                       @ lvgl/src/lv_widgets/lv_tabview.c:279:28
	ldr	r1, [sp, #40]
	movs	r0, #0
	.loc	10 279 41                       @ lvgl/src/lv_widgets/lv_tabview.c:279:41
	strh	r0, [r1, #20]
	.loc	10 279 28                       @ lvgl/src/lv_widgets/lv_tabview.c:279:28
	b	.LBB6_43
.Ltmp260:
.LBB6_43:
	.loc	10 281 21 is_stmt 1             @ lvgl/src/lv_widgets/lv_tabview.c:281:21
	ldr	r0, [sp, #48]
	.loc	10 281 5 is_stmt 0              @ lvgl/src/lv_widgets/lv_tabview.c:281:5
	bl	tabview_realign
	.loc	10 283 28 is_stmt 1             @ lvgl/src/lv_widgets/lv_tabview.c:283:28
	ldr	r0, [sp, #48]
	.loc	10 283 37 is_stmt 0             @ lvgl/src/lv_widgets/lv_tabview.c:283:37
	ldr	r1, [sp, #40]
	.loc	10 283 42                       @ lvgl/src/lv_widgets/lv_tabview.c:283:42
	ldrh	r1, [r1, #20]
	movs	r2, #0
	.loc	10 283 5                        @ lvgl/src/lv_widgets/lv_tabview.c:283:5
	bl	lv_tabview_set_tab_act
	.loc	10 285 12 is_stmt 1             @ lvgl/src/lv_widgets/lv_tabview.c:285:12
	ldr	r0, [sp, #36]
	.loc	10 285 5 is_stmt 0              @ lvgl/src/lv_widgets/lv_tabview.c:285:5
	str	r0, [sp, #52]
	b	.LBB6_44
.LBB6_44:
	.loc	10 286 1 is_stmt 1              @ lvgl/src/lv_widgets/lv_tabview.c:286:1
	ldr	r0, [sp, #52]
	add	sp, #56
	pop	{r7, pc}
.Ltmp261:
.Lfunc_end6:
	.size	lv_tabview_add_tab, .Lfunc_end6-lv_tabview_add_tab
	.cfi_endproc
	.cantunwind
	.fnend
                                        @ -- End function
	.section	.text.lv_tabview_get_tab,"ax",%progbits
	.hidden	lv_tabview_get_tab              @ -- Begin function lv_tabview_get_tab
	.globl	lv_tabview_get_tab
	.p2align	3
	.type	lv_tabview_get_tab,%function
	.code	16                              @ @lv_tabview_get_tab
	.thumb_func
lv_tabview_get_tab:
.Lfunc_begin7:
	.loc	10 544 0                        @ lvgl/src/lv_widgets/lv_tabview.c:544:0
	.fnstart
	.cfi_startproc
@ %bb.0:
	.save	{r7, lr}
	push	{r7, lr}
	.cfi_def_cfa_offset 8
	.cfi_offset lr, -4
	.cfi_offset r7, -8
	.pad	#32
	sub	sp, #32
	.cfi_def_cfa_offset 40
                                        @ kill: def $r2 killed $r1
	str	r0, [sp, #24]
	strh.w	r1, [sp, #22]
.Ltmp262:
	.loc	10 545 5 prologue_end           @ lvgl/src/lv_widgets/lv_tabview.c:545:5
	b	.LBB7_1
.LBB7_1:
.Ltmp263:
	.loc	10 545 5 is_stmt 0              @ lvgl/src/lv_widgets/lv_tabview.c:545:5
	ldr	r0, [sp, #24]
	bl	lv_debug_check_null
.Ltmp264:
	.loc	10 545 5                        @ lvgl/src/lv_widgets/lv_tabview.c:545:5
	cbnz	r0, .LBB7_4
	b	.LBB7_2
.LBB7_2:
.Ltmp265:
	.loc	10 545 5                        @ lvgl/src/lv_widgets/lv_tabview.c:545:5
	ldr	r2, [sp, #24]
	movw	r0, :lower16:.L.str.2
	movt	r0, :upper16:.L.str.2
	movs	r3, #0
	bl	lv_debug_log_error
	b	.LBB7_3
.LBB7_3:                                @ =>This Inner Loop Header: Depth=1
	b	.LBB7_3
.Ltmp266:
.LBB7_4:
	.loc	10 545 5                        @ lvgl/src/lv_widgets/lv_tabview.c:545:5
	b	.LBB7_5
.Ltmp267:
.LBB7_5:
	.loc	10 547 50 is_stmt 1             @ lvgl/src/lv_widgets/lv_tabview.c:547:50
	ldr	r0, [sp, #24]
	.loc	10 547 30 is_stmt 0             @ lvgl/src/lv_widgets/lv_tabview.c:547:30
	bl	lv_obj_get_ext_attr
	.loc	10 547 24                       @ lvgl/src/lv_widgets/lv_tabview.c:547:24
	str	r0, [sp, #16]
	.loc	10 548 54 is_stmt 1             @ lvgl/src/lv_widgets/lv_tabview.c:548:54
	ldr	r0, [sp, #16]
	.loc	10 548 59 is_stmt 0             @ lvgl/src/lv_widgets/lv_tabview.c:548:59
	ldr	r0, [r0, #8]
	.loc	10 548 31                       @ lvgl/src/lv_widgets/lv_tabview.c:548:31
	bl	lv_page_get_scrollable
	.loc	10 548 16                       @ lvgl/src/lv_widgets/lv_tabview.c:548:16
	str	r0, [sp, #12]
	movs	r1, #0
	.loc	10 549 14 is_stmt 1             @ lvgl/src/lv_widgets/lv_tabview.c:549:14
	strh.w	r1, [sp, #10]
	.loc	10 550 52                       @ lvgl/src/lv_widgets/lv_tabview.c:550:52
	ldr	r0, [sp, #12]
	.loc	10 550 30 is_stmt 0             @ lvgl/src/lv_widgets/lv_tabview.c:550:30
	bl	lv_obj_get_child_back
	.loc	10 550 16                       @ lvgl/src/lv_widgets/lv_tabview.c:550:16
	str	r0, [sp, #4]
	.loc	10 552 5 is_stmt 1              @ lvgl/src/lv_widgets/lv_tabview.c:552:5
	b	.LBB7_6
.LBB7_6:                                @ =>This Inner Loop Header: Depth=1
	.loc	10 552 11 is_stmt 0             @ lvgl/src/lv_widgets/lv_tabview.c:552:11
	ldr	r1, [sp, #4]
	movs	r0, #0
	.loc	10 552 24                       @ lvgl/src/lv_widgets/lv_tabview.c:552:24
	str	r0, [sp]                        @ 4-byte Spill
	cbz	r1, .LBB7_8
	b	.LBB7_7
.LBB7_7:                                @   in Loop: Header=BB7_6 Depth=1
	.loc	10 552 27                       @ lvgl/src/lv_widgets/lv_tabview.c:552:27
	ldrh.w	r0, [sp, #10]
	.loc	10 552 32                       @ lvgl/src/lv_widgets/lv_tabview.c:552:32
	ldrh.w	r1, [sp, #22]
	.loc	10 552 29                       @ lvgl/src/lv_widgets/lv_tabview.c:552:29
	subs	r0, r0, r1
	it	ne
	movne	r0, #1
	str	r0, [sp]                        @ 4-byte Spill
	b	.LBB7_8
.LBB7_8:                                @   in Loop: Header=BB7_6 Depth=1
	.loc	10 0 0                          @ lvgl/src/lv_widgets/lv_tabview.c:0:0
	ldr	r0, [sp]                        @ 4-byte Reload
	.loc	10 552 5                        @ lvgl/src/lv_widgets/lv_tabview.c:552:5
	lsls	r0, r0, #31
	cbz	r0, .LBB7_12
	b	.LBB7_9
.LBB7_9:                                @   in Loop: Header=BB7_6 Depth=1
.Ltmp268:
	.loc	10 553 33 is_stmt 1             @ lvgl/src/lv_widgets/lv_tabview.c:553:33
	ldr	r0, [sp, #4]
	.loc	10 553 12 is_stmt 0             @ lvgl/src/lv_widgets/lv_tabview.c:553:12
	bl	lv_obj_get_signal_cb
	.loc	10 553 42                       @ lvgl/src/lv_widgets/lv_tabview.c:553:42
	movw	r1, :lower16:page_signal
	movt	r1, :upper16:page_signal
	ldr	r1, [r1]
.Ltmp269:
	.loc	10 553 12                       @ lvgl/src/lv_widgets/lv_tabview.c:553:12
	cmp	r0, r1
	bne	.LBB7_11
	b	.LBB7_10
.LBB7_10:                               @   in Loop: Header=BB7_6 Depth=1
.Ltmp270:
	.loc	10 553 56                       @ lvgl/src/lv_widgets/lv_tabview.c:553:56
	ldrh.w	r0, [sp, #10]
	adds	r0, #1
	strh.w	r0, [sp, #10]
	.loc	10 553 55                       @ lvgl/src/lv_widgets/lv_tabview.c:553:55
	b	.LBB7_11
.Ltmp271:
.LBB7_11:                               @   in Loop: Header=BB7_6 Depth=1
	.loc	10 554 38 is_stmt 1             @ lvgl/src/lv_widgets/lv_tabview.c:554:38
	ldr	r0, [sp, #12]
	.loc	10 554 52 is_stmt 0             @ lvgl/src/lv_widgets/lv_tabview.c:554:52
	ldr	r1, [sp, #4]
	.loc	10 554 16                       @ lvgl/src/lv_widgets/lv_tabview.c:554:16
	bl	lv_obj_get_child_back
	.loc	10 554 14                       @ lvgl/src/lv_widgets/lv_tabview.c:554:14
	str	r0, [sp, #4]
.Ltmp272:
	.loc	10 552 5 is_stmt 1              @ lvgl/src/lv_widgets/lv_tabview.c:552:5
	b	.LBB7_6
.LBB7_12:
.Ltmp273:
	.loc	10 557 8                        @ lvgl/src/lv_widgets/lv_tabview.c:557:8
	ldrh.w	r0, [sp, #10]
	.loc	10 557 13 is_stmt 0             @ lvgl/src/lv_widgets/lv_tabview.c:557:13
	ldrh.w	r1, [sp, #22]
.Ltmp274:
	.loc	10 557 8                        @ lvgl/src/lv_widgets/lv_tabview.c:557:8
	cmp	r0, r1
	bne	.LBB7_14
	b	.LBB7_13
.LBB7_13:
.Ltmp275:
	.loc	10 557 24                       @ lvgl/src/lv_widgets/lv_tabview.c:557:24
	ldr	r0, [sp, #4]
	.loc	10 557 17                       @ lvgl/src/lv_widgets/lv_tabview.c:557:17
	str	r0, [sp, #28]
	b	.LBB7_15
.Ltmp276:
.LBB7_14:
	.loc	10 0 17                         @ lvgl/src/lv_widgets/lv_tabview.c:0:17
	movs	r0, #0
	.loc	10 559 5 is_stmt 1              @ lvgl/src/lv_widgets/lv_tabview.c:559:5
	str	r0, [sp, #28]
	b	.LBB7_15
.LBB7_15:
	.loc	10 560 1                        @ lvgl/src/lv_widgets/lv_tabview.c:560:1
	ldr	r0, [sp, #28]
	add	sp, #32
	pop	{r7, pc}
.Ltmp277:
.Lfunc_end7:
	.size	lv_tabview_get_tab, .Lfunc_end7-lv_tabview_get_tab
	.cfi_endproc
	.cantunwind
	.fnend
                                        @ -- End function
	.section	.text.tabview_realign,"ax",%progbits
	.p2align	3                               @ -- Begin function tabview_realign
	.type	tabview_realign,%function
	.code	16                              @ @tabview_realign
	.thumb_func
tabview_realign:
.Lfunc_begin8:
	.loc	10 853 0                        @ lvgl/src/lv_widgets/lv_tabview.c:853:0
	.fnstart
	.cfi_startproc
@ %bb.0:
	.save	{r7, lr}
	push	{r7, lr}
	.cfi_def_cfa_offset 8
	.cfi_offset lr, -4
	.cfi_offset r7, -8
	.pad	#8
	sub	sp, #8
	.cfi_def_cfa_offset 16
	str	r0, [sp, #4]
.Ltmp278:
	.loc	10 854 50 prologue_end          @ lvgl/src/lv_widgets/lv_tabview.c:854:50
	ldr	r0, [sp, #4]
	.loc	10 854 30 is_stmt 0             @ lvgl/src/lv_widgets/lv_tabview.c:854:30
	bl	lv_obj_get_ext_attr
	.loc	10 854 24                       @ lvgl/src/lv_widgets/lv_tabview.c:854:24
	str	r0, [sp]
	.loc	10 856 20 is_stmt 1             @ lvgl/src/lv_widgets/lv_tabview.c:856:20
	ldr	r0, [sp, #4]
	.loc	10 856 5 is_stmt 0              @ lvgl/src/lv_widgets/lv_tabview.c:856:5
	bl	refr_btns_size
	.loc	10 857 23 is_stmt 1             @ lvgl/src/lv_widgets/lv_tabview.c:857:23
	ldr	r0, [sp, #4]
	.loc	10 857 5 is_stmt 0              @ lvgl/src/lv_widgets/lv_tabview.c:857:5
	bl	refr_content_size
	.loc	10 858 21 is_stmt 1             @ lvgl/src/lv_widgets/lv_tabview.c:858:21
	ldr	r0, [sp, #4]
	.loc	10 858 5 is_stmt 0              @ lvgl/src/lv_widgets/lv_tabview.c:858:5
	bl	refr_indic_size
	.loc	10 860 16 is_stmt 1             @ lvgl/src/lv_widgets/lv_tabview.c:860:16
	ldr	r0, [sp, #4]
	.loc	10 860 5 is_stmt 0              @ lvgl/src/lv_widgets/lv_tabview.c:860:5
	bl	refr_align
	.loc	10 862 28 is_stmt 1             @ lvgl/src/lv_widgets/lv_tabview.c:862:28
	ldr	r0, [sp, #4]
	.loc	10 862 37 is_stmt 0             @ lvgl/src/lv_widgets/lv_tabview.c:862:37
	ldr	r1, [sp]
	.loc	10 862 42                       @ lvgl/src/lv_widgets/lv_tabview.c:862:42
	ldrh	r1, [r1, #20]
	movs	r2, #0
	.loc	10 862 5                        @ lvgl/src/lv_widgets/lv_tabview.c:862:5
	bl	lv_tabview_set_tab_act
	.loc	10 863 1 is_stmt 1              @ lvgl/src/lv_widgets/lv_tabview.c:863:1
	add	sp, #8
	pop	{r7, pc}
.Ltmp279:
.Lfunc_end8:
	.size	tabview_realign, .Lfunc_end8-tabview_realign
	.cfi_endproc
	.cantunwind
	.fnend
                                        @ -- End function
	.section	.text.lv_page_set_scrollable_fit4,"ax",%progbits
	.p2align	3                               @ -- Begin function lv_page_set_scrollable_fit4
	.type	lv_page_set_scrollable_fit4,%function
	.code	16                              @ @lv_page_set_scrollable_fit4
	.thumb_func
lv_page_set_scrollable_fit4:
.Lfunc_begin9:
	.loc	13 175 0                        @ lvgl/src/lv_widgets/../lv_widgets/lv_page.h:175:0
	.fnstart
	.cfi_startproc
@ %bb.0:
	.save	{r7, lr}
	push	{r7, lr}
	.cfi_def_cfa_offset 8
	.cfi_offset lr, -4
	.cfi_offset r7, -8
	.pad	#16
	sub	sp, #16
	.cfi_def_cfa_offset 24
	mov	r12, r0
	ldr	r0, [sp, #24]
                                        @ kill: def $lr killed $r3
                                        @ kill: def $lr killed $r2
                                        @ kill: def $lr killed $r1
	str.w	r12, [sp, #12]
	strb.w	r1, [sp, #11]
	strb.w	r2, [sp, #10]
	strb.w	r3, [sp, #9]
	strb.w	r0, [sp, #8]
.Ltmp280:
	.loc	13 176 45 prologue_end          @ lvgl/src/lv_widgets/../lv_widgets/lv_page.h:176:45
	ldr	r0, [sp, #12]
	.loc	13 176 22 is_stmt 0             @ lvgl/src/lv_widgets/../lv_widgets/lv_page.h:176:22
	bl	lv_page_get_scrollable
	.loc	13 176 52                       @ lvgl/src/lv_widgets/../lv_widgets/lv_page.h:176:52
	ldrb.w	r1, [sp, #11]
	.loc	13 176 58                       @ lvgl/src/lv_widgets/../lv_widgets/lv_page.h:176:58
	ldrb.w	r2, [sp, #10]
	.loc	13 176 65                       @ lvgl/src/lv_widgets/../lv_widgets/lv_page.h:176:65
	ldrb.w	r3, [sp, #9]
	.loc	13 176 70                       @ lvgl/src/lv_widgets/../lv_widgets/lv_page.h:176:70
	ldrb.w	r12, [sp, #8]
	.loc	13 176 5                        @ lvgl/src/lv_widgets/../lv_widgets/lv_page.h:176:5
	mov	lr, sp
	str.w	r12, [lr]
	bl	lv_cont_set_fit4
	.loc	13 177 1 is_stmt 1              @ lvgl/src/lv_widgets/../lv_widgets/lv_page.h:177:1
	add	sp, #16
	pop	{r7, pc}
.Ltmp281:
.Lfunc_end9:
	.size	lv_page_set_scrollable_fit4, .Lfunc_end9-lv_page_set_scrollable_fit4
	.cfi_endproc
	.cantunwind
	.fnend
                                        @ -- End function
	.section	.text.lv_tabview_set_tab_act,"ax",%progbits
	.hidden	lv_tabview_set_tab_act          @ -- Begin function lv_tabview_set_tab_act
	.globl	lv_tabview_set_tab_act
	.p2align	3
	.type	lv_tabview_set_tab_act,%function
	.code	16                              @ @lv_tabview_set_tab_act
	.thumb_func
lv_tabview_set_tab_act:
.Lfunc_begin10:
	.loc	10 311 0                        @ lvgl/src/lv_widgets/lv_tabview.c:311:0
	.fnstart
	.cfi_startproc
@ %bb.0:
	.save	{r7, lr}
	push	{r7, lr}
	.cfi_def_cfa_offset 8
	.cfi_offset lr, -4
	.cfi_offset r7, -8
	.pad	#208
	sub	sp, #208
	.cfi_def_cfa_offset 216
                                        @ kill: def $r3 killed $r2
                                        @ kill: def $r3 killed $r1
	str	r0, [sp, #204]
	strh.w	r1, [sp, #202]
	strb.w	r2, [sp, #201]
.Ltmp282:
	.loc	10 312 5 prologue_end           @ lvgl/src/lv_widgets/lv_tabview.c:312:5
	b	.LBB10_1
.LBB10_1:
.Ltmp283:
	.loc	10 312 5 is_stmt 0              @ lvgl/src/lv_widgets/lv_tabview.c:312:5
	ldr	r0, [sp, #204]
	bl	lv_debug_check_null
.Ltmp284:
	.loc	10 312 5                        @ lvgl/src/lv_widgets/lv_tabview.c:312:5
	cbnz	r0, .LBB10_4
	b	.LBB10_2
.LBB10_2:
.Ltmp285:
	.loc	10 312 5                        @ lvgl/src/lv_widgets/lv_tabview.c:312:5
	ldr	r2, [sp, #204]
	movw	r0, :lower16:.L.str.2
	movt	r0, :upper16:.L.str.2
	movs	r3, #0
	bl	lv_debug_log_error
	b	.LBB10_3
.LBB10_3:                               @ =>This Inner Loop Header: Depth=1
	b	.LBB10_3
.Ltmp286:
.LBB10_4:
	.loc	10 312 5                        @ lvgl/src/lv_widgets/lv_tabview.c:312:5
	b	.LBB10_5
.Ltmp287:
.LBB10_5:
	.loc	10 317 50 is_stmt 1             @ lvgl/src/lv_widgets/lv_tabview.c:317:50
	ldr	r0, [sp, #204]
	.loc	10 317 30 is_stmt 0             @ lvgl/src/lv_widgets/lv_tabview.c:317:30
	bl	lv_obj_get_ext_attr
	.loc	10 317 24                       @ lvgl/src/lv_widgets/lv_tabview.c:317:24
	str	r0, [sp, #196]
.Ltmp288:
	.loc	10 319 8 is_stmt 1              @ lvgl/src/lv_widgets/lv_tabview.c:319:8
	ldrh.w	r0, [sp, #202]
	.loc	10 319 14 is_stmt 0             @ lvgl/src/lv_widgets/lv_tabview.c:319:14
	ldr	r1, [sp, #196]
	.loc	10 319 19                       @ lvgl/src/lv_widgets/lv_tabview.c:319:19
	ldrh	r1, [r1, #22]
.Ltmp289:
	.loc	10 319 8                        @ lvgl/src/lv_widgets/lv_tabview.c:319:8
	cmp	r0, r1
	blt	.LBB10_7
	b	.LBB10_6
.LBB10_6:
.Ltmp290:
	.loc	10 319 33                       @ lvgl/src/lv_widgets/lv_tabview.c:319:33
	ldr	r0, [sp, #196]
	ldrh	r0, [r0, #22]
	.loc	10 319 46                       @ lvgl/src/lv_widgets/lv_tabview.c:319:46
	subs	r0, #1
	.loc	10 319 31                       @ lvgl/src/lv_widgets/lv_tabview.c:319:31
	strh.w	r0, [sp, #202]
	.loc	10 319 28                       @ lvgl/src/lv_widgets/lv_tabview.c:319:28
	b	.LBB10_7
.Ltmp291:
.LBB10_7:
	.loc	10 321 33 is_stmt 1             @ lvgl/src/lv_widgets/lv_tabview.c:321:33
	ldr	r1, [sp, #196]
	.loc	10 321 38 is_stmt 0             @ lvgl/src/lv_widgets/lv_tabview.c:321:38
	ldr	r0, [r1]
	.loc	10 321 49                       @ lvgl/src/lv_widgets/lv_tabview.c:321:49
	ldrh	r1, [r1, #20]
	movs	r2, #128
	.loc	10 321 5                        @ lvgl/src/lv_widgets/lv_tabview.c:321:5
	bl	lv_btnmatrix_clear_btn_ctrl
	.loc	10 323 20 is_stmt 1             @ lvgl/src/lv_widgets/lv_tabview.c:323:20
	ldrh.w	r0, [sp, #202]
	.loc	10 323 5 is_stmt 0              @ lvgl/src/lv_widgets/lv_tabview.c:323:5
	ldr	r1, [sp, #196]
	.loc	10 323 18                       @ lvgl/src/lv_widgets/lv_tabview.c:323:18
	strh	r0, [r1, #20]
.Ltmp292:
	.loc	10 325 28 is_stmt 1             @ lvgl/src/lv_widgets/lv_tabview.c:325:28
	ldr	r0, [sp, #204]
	.loc	10 325 8 is_stmt 0              @ lvgl/src/lv_widgets/lv_tabview.c:325:8
	bl	lv_obj_get_base_dir
.Ltmp293:
	.loc	10 325 8                        @ lvgl/src/lv_widgets/lv_tabview.c:325:8
	cmp	r0, #1
	bne	.LBB10_9
	b	.LBB10_8
.LBB10_8:
.Ltmp294:
	.loc	10 326 15 is_stmt 1             @ lvgl/src/lv_widgets/lv_tabview.c:326:15
	ldr	r0, [sp, #196]
	ldrh	r1, [r0, #22]
	.loc	10 326 31 is_stmt 0             @ lvgl/src/lv_widgets/lv_tabview.c:326:31
	ldrh.w	r0, [sp, #202]
	.loc	10 326 28                       @ lvgl/src/lv_widgets/lv_tabview.c:326:28
	mvns	r0, r0
	add	r0, r1
	.loc	10 326 12                       @ lvgl/src/lv_widgets/lv_tabview.c:326:12
	strh.w	r0, [sp, #202]
	.loc	10 327 5 is_stmt 1              @ lvgl/src/lv_widgets/lv_tabview.c:327:5
	b	.LBB10_9
.Ltmp295:
.LBB10_9:
	.loc	10 330 60                       @ lvgl/src/lv_widgets/lv_tabview.c:330:60
	ldr	r0, [sp, #196]
	.loc	10 330 65 is_stmt 0             @ lvgl/src/lv_widgets/lv_tabview.c:330:65
	ldr	r0, [r0, #8]
	movs	r1, #64
	.loc	10 330 33                       @ lvgl/src/lv_widgets/lv_tabview.c:330:33
	str	r1, [sp, #40]                   @ 4-byte Spill
	bl	lv_obj_get_style_pad_inner
	ldr	r1, [sp, #40]                   @ 4-byte Reload
	.loc	10 330 20                       @ lvgl/src/lv_widgets/lv_tabview.c:330:20
	strh.w	r0, [sp, #192]
	.loc	10 331 58 is_stmt 1             @ lvgl/src/lv_widgets/lv_tabview.c:331:58
	ldr	r0, [sp, #196]
	.loc	10 331 63 is_stmt 0             @ lvgl/src/lv_widgets/lv_tabview.c:331:63
	ldr	r0, [r0, #8]
	.loc	10 331 32                       @ lvgl/src/lv_widgets/lv_tabview.c:331:32
	bl	lv_obj_get_style_pad_left
	.loc	10 331 20                       @ lvgl/src/lv_widgets/lv_tabview.c:331:20
	strh.w	r0, [sp, #190]
	.loc	10 333 12 is_stmt 1             @ lvgl/src/lv_widgets/lv_tabview.c:333:12
	ldr	r0, [sp, #196]
	.loc	10 333 17 is_stmt 0             @ lvgl/src/lv_widgets/lv_tabview.c:333:17
	ldrb	r0, [r0, #26]
	.loc	10 333 12                       @ lvgl/src/lv_widgets/lv_tabview.c:333:12
	and	r0, r0, #7
	.loc	10 333 5                        @ lvgl/src/lv_widgets/lv_tabview.c:333:5
	mov	r1, r0
	str	r1, [sp, #44]                   @ 4-byte Spill
	cmp	r0, #3
	blo	.LBB10_12
	b	.LBB10_10
.LBB10_10:
	ldr	r0, [sp, #44]                   @ 4-byte Reload
	subs	r0, #3
	cmp	r0, #2
	blo	.LBB10_13
	b	.LBB10_11
.LBB10_11:
	.loc	10 333 27                       @ lvgl/src/lv_widgets/lv_tabview.c:333:27
	b	.LBB10_12
.LBB10_12:
.Ltmp296:
	.loc	10 338 41 is_stmt 1             @ lvgl/src/lv_widgets/lv_tabview.c:338:41
	ldr	r0, [sp, #204]
	.loc	10 338 24 is_stmt 0             @ lvgl/src/lv_widgets/lv_tabview.c:338:24
	bl	lv_obj_get_width
	.loc	10 338 52                       @ lvgl/src/lv_widgets/lv_tabview.c:338:52
	ldrh.w	r1, [sp, #202]
	.loc	10 338 57                       @ lvgl/src/lv_widgets/lv_tabview.c:338:57
	ldrh.w	r2, [sp, #192]
	.loc	10 338 68                       @ lvgl/src/lv_widgets/lv_tabview.c:338:68
	muls	r2, r1, r2
	.loc	10 338 55                       @ lvgl/src/lv_widgets/lv_tabview.c:338:55
	mla	r0, r0, r1, r2
	.loc	10 338 75                       @ lvgl/src/lv_widgets/lv_tabview.c:338:75
	ldrh.w	r1, [sp, #190]
	.loc	10 338 73                       @ lvgl/src/lv_widgets/lv_tabview.c:338:73
	add	r0, r1
	.loc	10 338 22                       @ lvgl/src/lv_widgets/lv_tabview.c:338:22
	rsbs	r0, r0, #0
	.loc	10 338 20                       @ lvgl/src/lv_widgets/lv_tabview.c:338:20
	strh.w	r0, [sp, #194]
	.loc	10 339 13 is_stmt 1             @ lvgl/src/lv_widgets/lv_tabview.c:339:13
	b	.LBB10_14
.LBB10_13:
	.loc	10 342 42                       @ lvgl/src/lv_widgets/lv_tabview.c:342:42
	ldr	r0, [sp, #204]
	.loc	10 342 25 is_stmt 0             @ lvgl/src/lv_widgets/lv_tabview.c:342:25
	bl	lv_obj_get_width
	.loc	10 342 70                       @ lvgl/src/lv_widgets/lv_tabview.c:342:70
	str	r0, [sp, #36]                   @ 4-byte Spill
	ldr	r0, [sp, #196]
	.loc	10 342 75                       @ lvgl/src/lv_widgets/lv_tabview.c:342:75
	ldr	r0, [r0]
	.loc	10 342 53                       @ lvgl/src/lv_widgets/lv_tabview.c:342:53
	bl	lv_obj_get_width
	mov	r1, r0
	.loc	10 342 51                       @ lvgl/src/lv_widgets/lv_tabview.c:342:51
	ldr	r0, [sp, #36]                   @ 4-byte Reload
	subs	r0, r0, r1
	.loc	10 342 84                       @ lvgl/src/lv_widgets/lv_tabview.c:342:84
	ldrh.w	r1, [sp, #202]
	.loc	10 342 89                       @ lvgl/src/lv_widgets/lv_tabview.c:342:89
	ldrh.w	r2, [sp, #192]
	.loc	10 342 100                      @ lvgl/src/lv_widgets/lv_tabview.c:342:100
	muls	r2, r1, r2
	.loc	10 342 87                       @ lvgl/src/lv_widgets/lv_tabview.c:342:87
	mla	r0, r0, r1, r2
	.loc	10 342 107                      @ lvgl/src/lv_widgets/lv_tabview.c:342:107
	ldrh.w	r1, [sp, #190]
	.loc	10 342 105                      @ lvgl/src/lv_widgets/lv_tabview.c:342:105
	add	r0, r1
	.loc	10 342 22                       @ lvgl/src/lv_widgets/lv_tabview.c:342:22
	rsbs	r0, r0, #0
	.loc	10 342 20                       @ lvgl/src/lv_widgets/lv_tabview.c:342:20
	strh.w	r0, [sp, #194]
	.loc	10 343 13 is_stmt 1             @ lvgl/src/lv_widgets/lv_tabview.c:343:13
	b	.LBB10_14
.Ltmp297:
.LBB10_14:
	.loc	10 346 8                        @ lvgl/src/lv_widgets/lv_tabview.c:346:8
	ldrb.w	r0, [sp, #201]
	.loc	10 346 28 is_stmt 0             @ lvgl/src/lv_widgets/lv_tabview.c:346:28
	cbz	r0, .LBB10_16
	b	.LBB10_15
.LBB10_15:
	.loc	10 346 56                       @ lvgl/src/lv_widgets/lv_tabview.c:346:56
	ldr	r0, [sp, #204]
	.loc	10 346 31                       @ lvgl/src/lv_widgets/lv_tabview.c:346:31
	bl	lv_tabview_get_anim_time
.Ltmp298:
	.loc	10 346 8                        @ lvgl/src/lv_widgets/lv_tabview.c:346:8
	cbnz	r0, .LBB10_17
	b	.LBB10_16
.LBB10_16:
.Ltmp299:
	.loc	10 347 45 is_stmt 1             @ lvgl/src/lv_widgets/lv_tabview.c:347:45
	ldr	r0, [sp, #196]
	.loc	10 347 50 is_stmt 0             @ lvgl/src/lv_widgets/lv_tabview.c:347:50
	ldr	r0, [r0, #8]
	.loc	10 347 22                       @ lvgl/src/lv_widgets/lv_tabview.c:347:22
	bl	lv_page_get_scrollable
	.loc	10 347 60                       @ lvgl/src/lv_widgets/lv_tabview.c:347:60
	ldrsh.w	r1, [sp, #194]
	.loc	10 347 9                        @ lvgl/src/lv_widgets/lv_tabview.c:347:9
	bl	lv_obj_set_x
	.loc	10 348 5 is_stmt 1              @ lvgl/src/lv_widgets/lv_tabview.c:348:5
	b	.LBB10_18
.Ltmp300:
.LBB10_17:
	.loc	10 0 5 is_stmt 0                @ lvgl/src/lv_widgets/lv_tabview.c:0:5
	add	r0, sp, #124
.Ltmp301:
	.loc	10 352 9 is_stmt 1              @ lvgl/src/lv_widgets/lv_tabview.c:352:9
	str	r0, [sp, #32]                   @ 4-byte Spill
	bl	lv_anim_init
	.loc	10 353 52                       @ lvgl/src/lv_widgets/lv_tabview.c:353:52
	ldr	r0, [sp, #196]
	.loc	10 353 57 is_stmt 0             @ lvgl/src/lv_widgets/lv_tabview.c:353:57
	ldr	r0, [r0, #8]
	.loc	10 353 29                       @ lvgl/src/lv_widgets/lv_tabview.c:353:29
	bl	lv_page_get_scrollable
	mov	r1, r0
	.loc	10 353 9                        @ lvgl/src/lv_widgets/lv_tabview.c:353:9
	ldr	r0, [sp, #32]                   @ 4-byte Reload
	bl	lv_anim_set_var
	ldr	r0, [sp, #32]                   @ 4-byte Reload
	.loc	10 354 9 is_stmt 1              @ lvgl/src/lv_widgets/lv_tabview.c:354:9
	movw	r1, :lower16:lv_obj_set_x
	movt	r1, :upper16:lv_obj_set_x
	bl	lv_anim_set_exec_cb
	.loc	10 355 68                       @ lvgl/src/lv_widgets/lv_tabview.c:355:68
	ldr	r0, [sp, #196]
	.loc	10 355 73 is_stmt 0             @ lvgl/src/lv_widgets/lv_tabview.c:355:73
	ldr	r0, [r0, #8]
	.loc	10 355 45                       @ lvgl/src/lv_widgets/lv_tabview.c:355:45
	bl	lv_page_get_scrollable
	.loc	10 355 32                       @ lvgl/src/lv_widgets/lv_tabview.c:355:32
	bl	lv_obj_get_x
	mov	r1, r0
	.loc	10 355 84                       @ lvgl/src/lv_widgets/lv_tabview.c:355:84
	ldr	r0, [sp, #32]                   @ 4-byte Reload
	ldrsh.w	r2, [sp, #194]
	.loc	10 355 9                        @ lvgl/src/lv_widgets/lv_tabview.c:355:9
	bl	lv_anim_set_values
	ldr	r0, [sp, #32]                   @ 4-byte Reload
	.loc	10 356 30 is_stmt 1             @ lvgl/src/lv_widgets/lv_tabview.c:356:30
	ldr	r1, [sp, #196]
	.loc	10 356 35 is_stmt 0             @ lvgl/src/lv_widgets/lv_tabview.c:356:35
	ldrh	r1, [r1, #24]
	.loc	10 356 9                        @ lvgl/src/lv_widgets/lv_tabview.c:356:9
	bl	lv_anim_set_time
	ldr	r0, [sp, #32]                   @ 4-byte Reload
	.loc	10 357 9 is_stmt 1              @ lvgl/src/lv_widgets/lv_tabview.c:357:9
	bl	lv_anim_start
	b	.LBB10_18
.Ltmp302:
.LBB10_18:
	.loc	10 0 9 is_stmt 0                @ lvgl/src/lv_widgets/lv_tabview.c:0:9
	movs	r0, #0
	.loc	10 363 16 is_stmt 1             @ lvgl/src/lv_widgets/lv_tabview.c:363:16
	strh.w	r0, [sp, #120]
	.loc	10 365 20                       @ lvgl/src/lv_widgets/lv_tabview.c:365:20
	strh.w	r0, [sp, #118]
	.loc	10 366 20                       @ lvgl/src/lv_widgets/lv_tabview.c:366:20
	strh.w	r0, [sp, #116]
	.loc	10 367 20                       @ lvgl/src/lv_widgets/lv_tabview.c:367:20
	strh.w	r0, [sp, #114]
	.loc	10 369 12                       @ lvgl/src/lv_widgets/lv_tabview.c:369:12
	ldr	r0, [sp, #196]
	.loc	10 369 17 is_stmt 0             @ lvgl/src/lv_widgets/lv_tabview.c:369:17
	ldrb	r0, [r0, #26]
	.loc	10 369 12                       @ lvgl/src/lv_widgets/lv_tabview.c:369:12
	and	r0, r0, #7
	.loc	10 369 5                        @ lvgl/src/lv_widgets/lv_tabview.c:369:5
	mov	r1, r0
	str	r1, [sp, #28]                   @ 4-byte Spill
	cbz	r0, .LBB10_22
	b	.LBB10_19
.LBB10_19:
	ldr	r0, [sp, #28]                   @ 4-byte Reload
	subs	r0, #1
	cmp	r0, #2
	blo	.LBB10_23
	b	.LBB10_20
.LBB10_20:
	ldr	r0, [sp, #28]                   @ 4-byte Reload
	subs	r0, #3
	cmp	r0, #2
	blo	.LBB10_24
	b	.LBB10_21
.LBB10_21:
	.loc	10 369 27                       @ lvgl/src/lv_widgets/lv_tabview.c:369:27
	b	.LBB10_22
.LBB10_22:
.Ltmp303:
	.loc	10 372 13 is_stmt 1             @ lvgl/src/lv_widgets/lv_tabview.c:372:13
	b	.LBB10_25
.LBB10_23:
	.loc	10 375 56                       @ lvgl/src/lv_widgets/lv_tabview.c:375:56
	ldr	r0, [sp, #204]
	movs	r1, #65
	.loc	10 375 29 is_stmt 0             @ lvgl/src/lv_widgets/lv_tabview.c:375:29
	str	r1, [sp, #24]                   @ 4-byte Spill
	bl	lv_obj_get_style_pad_inner
	ldr	r1, [sp, #24]                   @ 4-byte Reload
	.loc	10 375 27                       @ lvgl/src/lv_widgets/lv_tabview.c:375:27
	strh.w	r0, [sp, #118]
	.loc	10 376 54 is_stmt 1             @ lvgl/src/lv_widgets/lv_tabview.c:376:54
	ldr	r0, [sp, #204]
	.loc	10 376 28 is_stmt 0             @ lvgl/src/lv_widgets/lv_tabview.c:376:28
	bl	lv_obj_get_style_pad_left
	.loc	10 376 26                       @ lvgl/src/lv_widgets/lv_tabview.c:376:26
	strh.w	r0, [sp, #116]
	.loc	10 377 43 is_stmt 1             @ lvgl/src/lv_widgets/lv_tabview.c:377:43
	ldr	r0, [sp, #196]
	.loc	10 377 48 is_stmt 0             @ lvgl/src/lv_widgets/lv_tabview.c:377:48
	ldr	r0, [r0, #4]
	.loc	10 377 26                       @ lvgl/src/lv_widgets/lv_tabview.c:377:26
	bl	lv_obj_get_width
	.loc	10 377 24                       @ lvgl/src/lv_widgets/lv_tabview.c:377:24
	strh.w	r0, [sp, #122]
	.loc	10 378 26 is_stmt 1             @ lvgl/src/lv_widgets/lv_tabview.c:378:26
	ldrh.w	r0, [sp, #122]
	.loc	10 378 39 is_stmt 0             @ lvgl/src/lv_widgets/lv_tabview.c:378:39
	ldrh.w	r1, [sp, #202]
	.loc	10 378 44                       @ lvgl/src/lv_widgets/lv_tabview.c:378:44
	ldrh.w	r2, [sp, #118]
	.loc	10 378 58                       @ lvgl/src/lv_widgets/lv_tabview.c:378:58
	muls	r2, r1, r2
	.loc	10 378 42                       @ lvgl/src/lv_widgets/lv_tabview.c:378:42
	mla	r0, r0, r1, r2
	.loc	10 378 65                       @ lvgl/src/lv_widgets/lv_tabview.c:378:65
	ldrh.w	r1, [sp, #116]
	.loc	10 378 63                       @ lvgl/src/lv_widgets/lv_tabview.c:378:63
	add	r0, r1
	.loc	10 378 24                       @ lvgl/src/lv_widgets/lv_tabview.c:378:24
	strh.w	r0, [sp, #120]
	.loc	10 379 13 is_stmt 1             @ lvgl/src/lv_widgets/lv_tabview.c:379:13
	b	.LBB10_25
.LBB10_24:
	.loc	10 382 56                       @ lvgl/src/lv_widgets/lv_tabview.c:382:56
	ldr	r0, [sp, #204]
	movs	r1, #65
	.loc	10 382 29 is_stmt 0             @ lvgl/src/lv_widgets/lv_tabview.c:382:29
	str	r1, [sp, #20]                   @ 4-byte Spill
	bl	lv_obj_get_style_pad_inner
	ldr	r1, [sp, #20]                   @ 4-byte Reload
	.loc	10 382 27                       @ lvgl/src/lv_widgets/lv_tabview.c:382:27
	strh.w	r0, [sp, #118]
	.loc	10 383 52 is_stmt 1             @ lvgl/src/lv_widgets/lv_tabview.c:383:52
	ldr	r0, [sp, #204]
	.loc	10 383 27 is_stmt 0             @ lvgl/src/lv_widgets/lv_tabview.c:383:27
	bl	lv_obj_get_style_pad_top
	.loc	10 383 25                       @ lvgl/src/lv_widgets/lv_tabview.c:383:25
	strh.w	r0, [sp, #114]
	.loc	10 384 44 is_stmt 1             @ lvgl/src/lv_widgets/lv_tabview.c:384:44
	ldr	r0, [sp, #196]
	.loc	10 384 49 is_stmt 0             @ lvgl/src/lv_widgets/lv_tabview.c:384:49
	ldr	r0, [r0, #4]
	.loc	10 384 26                       @ lvgl/src/lv_widgets/lv_tabview.c:384:26
	bl	lv_obj_get_height
	.loc	10 384 24                       @ lvgl/src/lv_widgets/lv_tabview.c:384:24
	strh.w	r0, [sp, #122]
	.loc	10 385 26 is_stmt 1             @ lvgl/src/lv_widgets/lv_tabview.c:385:26
	ldrh.w	r2, [sp, #114]
	.loc	10 385 40 is_stmt 0             @ lvgl/src/lv_widgets/lv_tabview.c:385:40
	ldrh.w	r0, [sp, #202]
	.loc	10 385 46                       @ lvgl/src/lv_widgets/lv_tabview.c:385:46
	ldrh.w	r1, [sp, #122]
	.loc	10 385 59                       @ lvgl/src/lv_widgets/lv_tabview.c:385:59
	ldrh.w	r3, [sp, #118]
	.loc	10 385 57                       @ lvgl/src/lv_widgets/lv_tabview.c:385:57
	add	r1, r3
	.loc	10 385 38                       @ lvgl/src/lv_widgets/lv_tabview.c:385:38
	mla	r0, r0, r1, r2
	.loc	10 385 24                       @ lvgl/src/lv_widgets/lv_tabview.c:385:24
	strh.w	r0, [sp, #120]
	.loc	10 386 13 is_stmt 1             @ lvgl/src/lv_widgets/lv_tabview.c:386:13
	b	.LBB10_25
.Ltmp304:
.LBB10_25:
	.loc	10 390 8                        @ lvgl/src/lv_widgets/lv_tabview.c:390:8
	ldrb.w	r0, [sp, #201]
	.loc	10 390 28 is_stmt 0             @ lvgl/src/lv_widgets/lv_tabview.c:390:28
	cbz	r0, .LBB10_27
	b	.LBB10_26
.LBB10_26:
	.loc	10 390 31                       @ lvgl/src/lv_widgets/lv_tabview.c:390:31
	ldr	r0, [sp, #196]
	.loc	10 390 36                       @ lvgl/src/lv_widgets/lv_tabview.c:390:36
	ldrh	r0, [r0, #24]
.Ltmp305:
	.loc	10 390 8                        @ lvgl/src/lv_widgets/lv_tabview.c:390:8
	cbnz	r0, .LBB10_35
	b	.LBB10_27
.LBB10_27:
.Ltmp306:
	.loc	10 393 16 is_stmt 1             @ lvgl/src/lv_widgets/lv_tabview.c:393:16
	ldr	r0, [sp, #196]
	.loc	10 393 21 is_stmt 0             @ lvgl/src/lv_widgets/lv_tabview.c:393:21
	ldrb	r0, [r0, #26]
	.loc	10 393 16                       @ lvgl/src/lv_widgets/lv_tabview.c:393:16
	and	r0, r0, #7
	.loc	10 393 9                        @ lvgl/src/lv_widgets/lv_tabview.c:393:9
	mov	r1, r0
	str	r1, [sp, #16]                   @ 4-byte Spill
	cbz	r0, .LBB10_31
	b	.LBB10_28
.LBB10_28:
	ldr	r0, [sp, #16]                   @ 4-byte Reload
	subs	r0, #1
	cmp	r0, #2
	blo	.LBB10_32
	b	.LBB10_29
.LBB10_29:
	ldr	r0, [sp, #16]                   @ 4-byte Reload
	subs	r0, #3
	cmp	r0, #2
	blo	.LBB10_33
	b	.LBB10_30
.LBB10_30:
	.loc	10 393 31                       @ lvgl/src/lv_widgets/lv_tabview.c:393:31
	b	.LBB10_31
.LBB10_31:
.Ltmp307:
	.loc	10 396 17 is_stmt 1             @ lvgl/src/lv_widgets/lv_tabview.c:396:17
	b	.LBB10_34
.LBB10_32:
	.loc	10 399 30                       @ lvgl/src/lv_widgets/lv_tabview.c:399:30
	ldr	r0, [sp, #196]
	.loc	10 399 35 is_stmt 0             @ lvgl/src/lv_widgets/lv_tabview.c:399:35
	ldr	r0, [r0, #4]
	.loc	10 399 42                       @ lvgl/src/lv_widgets/lv_tabview.c:399:42
	ldrsh.w	r1, [sp, #120]
	.loc	10 399 17                       @ lvgl/src/lv_widgets/lv_tabview.c:399:17
	bl	lv_obj_set_x
	.loc	10 400 17 is_stmt 1             @ lvgl/src/lv_widgets/lv_tabview.c:400:17
	b	.LBB10_34
.LBB10_33:
	.loc	10 403 30                       @ lvgl/src/lv_widgets/lv_tabview.c:403:30
	ldr	r0, [sp, #196]
	.loc	10 403 35 is_stmt 0             @ lvgl/src/lv_widgets/lv_tabview.c:403:35
	ldr	r0, [r0, #4]
	.loc	10 403 42                       @ lvgl/src/lv_widgets/lv_tabview.c:403:42
	ldrsh.w	r1, [sp, #120]
	.loc	10 403 17                       @ lvgl/src/lv_widgets/lv_tabview.c:403:17
	bl	lv_obj_set_y
	.loc	10 404 17 is_stmt 1             @ lvgl/src/lv_widgets/lv_tabview.c:404:17
	b	.LBB10_34
.Ltmp308:
.LBB10_34:
	.loc	10 406 5                        @ lvgl/src/lv_widgets/lv_tabview.c:406:5
	b	.LBB10_43
.Ltmp309:
.LBB10_35:
	.loc	10 0 5 is_stmt 0                @ lvgl/src/lv_widgets/lv_tabview.c:0:5
	add	r0, sp, #48
.Ltmp310:
	.loc	10 410 9 is_stmt 1              @ lvgl/src/lv_widgets/lv_tabview.c:410:9
	str	r0, [sp, #8]                    @ 4-byte Spill
	bl	lv_anim_init
	ldr	r0, [sp, #8]                    @ 4-byte Reload
	.loc	10 411 29                       @ lvgl/src/lv_widgets/lv_tabview.c:411:29
	ldr	r1, [sp, #196]
	.loc	10 411 34 is_stmt 0             @ lvgl/src/lv_widgets/lv_tabview.c:411:34
	ldr	r1, [r1, #4]
	.loc	10 411 9                        @ lvgl/src/lv_widgets/lv_tabview.c:411:9
	bl	lv_anim_set_var
	ldr	r0, [sp, #8]                    @ 4-byte Reload
	.loc	10 412 30 is_stmt 1             @ lvgl/src/lv_widgets/lv_tabview.c:412:30
	ldr	r1, [sp, #196]
	.loc	10 412 35 is_stmt 0             @ lvgl/src/lv_widgets/lv_tabview.c:412:35
	ldrh	r1, [r1, #24]
	.loc	10 412 9                        @ lvgl/src/lv_widgets/lv_tabview.c:412:9
	bl	lv_anim_set_time
	.loc	10 414 16 is_stmt 1             @ lvgl/src/lv_widgets/lv_tabview.c:414:16
	ldr	r0, [sp, #196]
	.loc	10 414 21 is_stmt 0             @ lvgl/src/lv_widgets/lv_tabview.c:414:21
	ldrb	r0, [r0, #26]
	.loc	10 414 16                       @ lvgl/src/lv_widgets/lv_tabview.c:414:16
	and	r0, r0, #7
	.loc	10 414 9                        @ lvgl/src/lv_widgets/lv_tabview.c:414:9
	mov	r1, r0
	str	r1, [sp, #12]                   @ 4-byte Spill
	cbz	r0, .LBB10_39
	b	.LBB10_36
.LBB10_36:
	ldr	r0, [sp, #12]                   @ 4-byte Reload
	subs	r0, #1
	cmp	r0, #2
	blo	.LBB10_40
	b	.LBB10_37
.LBB10_37:
	ldr	r0, [sp, #12]                   @ 4-byte Reload
	subs	r0, #3
	cmp	r0, #2
	blo	.LBB10_41
	b	.LBB10_38
.LBB10_38:
	.loc	10 414 31                       @ lvgl/src/lv_widgets/lv_tabview.c:414:31
	b	.LBB10_39
.LBB10_39:
.Ltmp311:
	.loc	10 417 17 is_stmt 1             @ lvgl/src/lv_widgets/lv_tabview.c:417:17
	b	.LBB10_42
.LBB10_40:
	.loc	10 420 17                       @ lvgl/src/lv_widgets/lv_tabview.c:420:17
	movw	r1, :lower16:lv_obj_set_x
	movt	r1, :upper16:lv_obj_set_x
	add	r0, sp, #48
	str	r0, [sp, #4]                    @ 4-byte Spill
	bl	lv_anim_set_exec_cb
	.loc	10 421 53                       @ lvgl/src/lv_widgets/lv_tabview.c:421:53
	ldr	r0, [sp, #196]
	.loc	10 421 58 is_stmt 0             @ lvgl/src/lv_widgets/lv_tabview.c:421:58
	ldr	r0, [r0, #4]
	.loc	10 421 40                       @ lvgl/src/lv_widgets/lv_tabview.c:421:40
	bl	lv_obj_get_x
	mov	r1, r0
	.loc	10 421 66                       @ lvgl/src/lv_widgets/lv_tabview.c:421:66
	ldr	r0, [sp, #4]                    @ 4-byte Reload
	ldrsh.w	r2, [sp, #120]
	.loc	10 421 17                       @ lvgl/src/lv_widgets/lv_tabview.c:421:17
	bl	lv_anim_set_values
	.loc	10 422 17 is_stmt 1             @ lvgl/src/lv_widgets/lv_tabview.c:422:17
	b	.LBB10_42
.LBB10_41:
	.loc	10 425 17                       @ lvgl/src/lv_widgets/lv_tabview.c:425:17
	movw	r1, :lower16:lv_obj_set_y
	movt	r1, :upper16:lv_obj_set_y
	add	r0, sp, #48
	str	r0, [sp]                        @ 4-byte Spill
	bl	lv_anim_set_exec_cb
	.loc	10 426 53                       @ lvgl/src/lv_widgets/lv_tabview.c:426:53
	ldr	r0, [sp, #196]
	.loc	10 426 58 is_stmt 0             @ lvgl/src/lv_widgets/lv_tabview.c:426:58
	ldr	r0, [r0, #4]
	.loc	10 426 40                       @ lvgl/src/lv_widgets/lv_tabview.c:426:40
	bl	lv_obj_get_y
	mov	r1, r0
	.loc	10 426 66                       @ lvgl/src/lv_widgets/lv_tabview.c:426:66
	ldr	r0, [sp]                        @ 4-byte Reload
	ldrsh.w	r2, [sp, #120]
	.loc	10 426 17                       @ lvgl/src/lv_widgets/lv_tabview.c:426:17
	bl	lv_anim_set_values
	.loc	10 427 17 is_stmt 1             @ lvgl/src/lv_widgets/lv_tabview.c:427:17
	b	.LBB10_42
.Ltmp312:
.LBB10_42:
	.loc	10 0 17 is_stmt 0               @ lvgl/src/lv_widgets/lv_tabview.c:0:17
	add	r0, sp, #48
	.loc	10 430 9 is_stmt 1              @ lvgl/src/lv_widgets/lv_tabview.c:430:9
	bl	lv_anim_start
	b	.LBB10_43
.Ltmp313:
.LBB10_43:
	.loc	10 434 31                       @ lvgl/src/lv_widgets/lv_tabview.c:434:31
	ldr	r1, [sp, #196]
	.loc	10 434 36 is_stmt 0             @ lvgl/src/lv_widgets/lv_tabview.c:434:36
	ldr	r0, [r1]
	.loc	10 434 47                       @ lvgl/src/lv_widgets/lv_tabview.c:434:47
	ldrh	r1, [r1, #20]
	movs	r2, #128
	.loc	10 434 5                        @ lvgl/src/lv_widgets/lv_tabview.c:434:5
	bl	lv_btnmatrix_set_btn_ctrl
	.loc	10 435 1 is_stmt 1              @ lvgl/src/lv_widgets/lv_tabview.c:435:1
	add	sp, #208
	pop	{r7, pc}
.Ltmp314:
.Lfunc_end10:
	.size	lv_tabview_set_tab_act, .Lfunc_end10-lv_tabview_set_tab_act
	.cfi_endproc
	.cantunwind
	.fnend
                                        @ -- End function
	.section	.text.lv_tabview_clean_tab,"ax",%progbits
	.hidden	lv_tabview_clean_tab            @ -- Begin function lv_tabview_clean_tab
	.globl	lv_tabview_clean_tab
	.p2align	3
	.type	lv_tabview_clean_tab,%function
	.code	16                              @ @lv_tabview_clean_tab
	.thumb_func
lv_tabview_clean_tab:
.Lfunc_begin11:
	.loc	10 293 0                        @ lvgl/src/lv_widgets/lv_tabview.c:293:0
	.fnstart
	.cfi_startproc
@ %bb.0:
	.save	{r7, lr}
	push	{r7, lr}
	.cfi_def_cfa_offset 8
	.cfi_offset lr, -4
	.cfi_offset r7, -8
	.pad	#8
	sub	sp, #8
	.cfi_def_cfa_offset 16
	str	r0, [sp, #4]
.Ltmp315:
	.loc	10 294 5 prologue_end           @ lvgl/src/lv_widgets/lv_tabview.c:294:5
	b	.LBB11_1
.LBB11_1:
.Ltmp316:
	.loc	10 294 5 is_stmt 0              @ lvgl/src/lv_widgets/lv_tabview.c:294:5
	ldr	r0, [sp, #4]
	bl	lv_debug_check_null
.Ltmp317:
	.loc	10 294 5                        @ lvgl/src/lv_widgets/lv_tabview.c:294:5
	cbnz	r0, .LBB11_4
	b	.LBB11_2
.LBB11_2:
.Ltmp318:
	.loc	10 294 5                        @ lvgl/src/lv_widgets/lv_tabview.c:294:5
	ldr	r2, [sp, #4]
	movw	r0, :lower16:.L.str.2
	movt	r0, :upper16:.L.str.2
	movs	r3, #0
	bl	lv_debug_log_error
	b	.LBB11_3
.LBB11_3:                               @ =>This Inner Loop Header: Depth=1
	b	.LBB11_3
.Ltmp319:
.LBB11_4:
	.loc	10 294 5                        @ lvgl/src/lv_widgets/lv_tabview.c:294:5
	b	.LBB11_5
.Ltmp320:
.LBB11_5:
	.loc	10 296 46 is_stmt 1             @ lvgl/src/lv_widgets/lv_tabview.c:296:46
	ldr	r0, [sp, #4]
	.loc	10 296 23 is_stmt 0             @ lvgl/src/lv_widgets/lv_tabview.c:296:23
	bl	lv_page_get_scrollable
	.loc	10 296 16                       @ lvgl/src/lv_widgets/lv_tabview.c:296:16
	str	r0, [sp]
	.loc	10 297 18 is_stmt 1             @ lvgl/src/lv_widgets/lv_tabview.c:297:18
	ldr	r0, [sp]
	.loc	10 297 5 is_stmt 0              @ lvgl/src/lv_widgets/lv_tabview.c:297:5
	bl	lv_obj_clean
	.loc	10 298 1 is_stmt 1              @ lvgl/src/lv_widgets/lv_tabview.c:298:1
	add	sp, #8
	pop	{r7, pc}
.Ltmp321:
.Lfunc_end11:
	.size	lv_tabview_clean_tab, .Lfunc_end11-lv_tabview_clean_tab
	.cfi_endproc
	.cantunwind
	.fnend
                                        @ -- End function
	.section	.text.lv_obj_get_style_pad_inner,"ax",%progbits
	.p2align	3                               @ -- Begin function lv_obj_get_style_pad_inner
	.type	lv_obj_get_style_pad_inner,%function
	.code	16                              @ @lv_obj_get_style_pad_inner
	.thumb_func
lv_obj_get_style_pad_inner:
.Lfunc_begin12:
	.file	17 "E:\\STM32\\Learning\\STM32H750_ART_PI_RGBLCD" "lvgl/src/lv_widgets/../lv_core/lv_obj_style_dec.h"
	.loc	17 104 0                        @ lvgl/src/lv_widgets/../lv_core/lv_obj_style_dec.h:104:0
	.fnstart
	.cfi_startproc
@ %bb.0:
	.save	{r7, lr}
	push	{r7, lr}
	.cfi_def_cfa_offset 8
	.cfi_offset lr, -4
	.cfi_offset r7, -8
	.pad	#8
	sub	sp, #8
	.cfi_def_cfa_offset 16
                                        @ kill: def $r2 killed $r1
	str	r0, [sp, #4]
	strb.w	r1, [sp, #3]
.Ltmp322:
	.loc	17 104 1 prologue_end           @ lvgl/src/lv_widgets/../lv_core/lv_obj_style_dec.h:104:1
	ldr	r0, [sp, #4]
	ldrb.w	r1, [sp, #3]
	movs	r2, #20
	bl	_lv_obj_get_style_int
	add	sp, #8
	pop	{r7, pc}
.Ltmp323:
.Lfunc_end12:
	.size	lv_obj_get_style_pad_inner, .Lfunc_end12-lv_obj_get_style_pad_inner
	.cfi_endproc
	.cantunwind
	.fnend
                                        @ -- End function
	.section	.text.lv_obj_get_style_pad_left,"ax",%progbits
	.p2align	3                               @ -- Begin function lv_obj_get_style_pad_left
	.type	lv_obj_get_style_pad_left,%function
	.code	16                              @ @lv_obj_get_style_pad_left
	.thumb_func
lv_obj_get_style_pad_left:
.Lfunc_begin13:
	.loc	17 102 0                        @ lvgl/src/lv_widgets/../lv_core/lv_obj_style_dec.h:102:0
	.fnstart
	.cfi_startproc
@ %bb.0:
	.save	{r7, lr}
	push	{r7, lr}
	.cfi_def_cfa_offset 8
	.cfi_offset lr, -4
	.cfi_offset r7, -8
	.pad	#8
	sub	sp, #8
	.cfi_def_cfa_offset 16
                                        @ kill: def $r2 killed $r1
	str	r0, [sp, #4]
	strb.w	r1, [sp, #3]
.Ltmp324:
	.loc	17 102 1 prologue_end           @ lvgl/src/lv_widgets/../lv_core/lv_obj_style_dec.h:102:1
	ldr	r0, [sp, #4]
	ldrb.w	r1, [sp, #3]
	movs	r2, #18
	bl	_lv_obj_get_style_int
	add	sp, #8
	pop	{r7, pc}
.Ltmp325:
.Lfunc_end13:
	.size	lv_obj_get_style_pad_left, .Lfunc_end13-lv_obj_get_style_pad_left
	.cfi_endproc
	.cantunwind
	.fnend
                                        @ -- End function
	.section	.text.lv_tabview_get_anim_time,"ax",%progbits
	.hidden	lv_tabview_get_anim_time        @ -- Begin function lv_tabview_get_anim_time
	.globl	lv_tabview_get_anim_time
	.p2align	3
	.type	lv_tabview_get_anim_time,%function
	.code	16                              @ @lv_tabview_get_anim_time
	.thumb_func
lv_tabview_get_anim_time:
.Lfunc_begin14:
	.loc	10 568 0                        @ lvgl/src/lv_widgets/lv_tabview.c:568:0
	.fnstart
	.cfi_startproc
@ %bb.0:
	.save	{r7, lr}
	push	{r7, lr}
	.cfi_def_cfa_offset 8
	.cfi_offset lr, -4
	.cfi_offset r7, -8
	.pad	#8
	sub	sp, #8
	.cfi_def_cfa_offset 16
	str	r0, [sp, #4]
.Ltmp326:
	.loc	10 569 5 prologue_end           @ lvgl/src/lv_widgets/lv_tabview.c:569:5
	b	.LBB14_1
.LBB14_1:
.Ltmp327:
	.loc	10 569 5 is_stmt 0              @ lvgl/src/lv_widgets/lv_tabview.c:569:5
	ldr	r0, [sp, #4]
	bl	lv_debug_check_null
.Ltmp328:
	.loc	10 569 5                        @ lvgl/src/lv_widgets/lv_tabview.c:569:5
	cbnz	r0, .LBB14_4
	b	.LBB14_2
.LBB14_2:
.Ltmp329:
	.loc	10 569 5                        @ lvgl/src/lv_widgets/lv_tabview.c:569:5
	ldr	r2, [sp, #4]
	movw	r0, :lower16:.L.str.2
	movt	r0, :upper16:.L.str.2
	movs	r3, #0
	bl	lv_debug_log_error
	b	.LBB14_3
.LBB14_3:                               @ =>This Inner Loop Header: Depth=1
	b	.LBB14_3
.Ltmp330:
.LBB14_4:
	.loc	10 569 5                        @ lvgl/src/lv_widgets/lv_tabview.c:569:5
	b	.LBB14_5
.Ltmp331:
.LBB14_5:
	.loc	10 572 50 is_stmt 1             @ lvgl/src/lv_widgets/lv_tabview.c:572:50
	ldr	r0, [sp, #4]
	.loc	10 572 30 is_stmt 0             @ lvgl/src/lv_widgets/lv_tabview.c:572:30
	bl	lv_obj_get_ext_attr
	.loc	10 572 24                       @ lvgl/src/lv_widgets/lv_tabview.c:572:24
	str	r0, [sp]
	.loc	10 573 12 is_stmt 1             @ lvgl/src/lv_widgets/lv_tabview.c:573:12
	ldr	r0, [sp]
	.loc	10 573 17 is_stmt 0             @ lvgl/src/lv_widgets/lv_tabview.c:573:17
	ldrh	r0, [r0, #24]
	.loc	10 573 5                        @ lvgl/src/lv_widgets/lv_tabview.c:573:5
	add	sp, #8
	pop	{r7, pc}
.Ltmp332:
.Lfunc_end14:
	.size	lv_tabview_get_anim_time, .Lfunc_end14-lv_tabview_get_anim_time
	.cfi_endproc
	.cantunwind
	.fnend
                                        @ -- End function
	.section	.text.lv_anim_set_var,"ax",%progbits
	.p2align	3                               @ -- Begin function lv_anim_set_var
	.type	lv_anim_set_var,%function
	.code	16                              @ @lv_anim_set_var
	.thumb_func
lv_anim_set_var:
.Lfunc_begin15:
	.loc	16 126 0 is_stmt 1              @ lvgl/src/lv_widgets/../lv_misc/lv_anim.h:126:0
	.fnstart
	.cfi_startproc
@ %bb.0:
	.pad	#8
	sub	sp, #8
	.cfi_def_cfa_offset 8
	str	r0, [sp, #4]
	str	r1, [sp]
.Ltmp333:
	.loc	16 127 14 prologue_end          @ lvgl/src/lv_widgets/../lv_misc/lv_anim.h:127:14
	ldr	r0, [sp]
	.loc	16 127 5 is_stmt 0              @ lvgl/src/lv_widgets/../lv_misc/lv_anim.h:127:5
	ldr	r1, [sp, #4]
	.loc	16 127 12                       @ lvgl/src/lv_widgets/../lv_misc/lv_anim.h:127:12
	str	r0, [r1]
	.loc	16 128 1 is_stmt 1              @ lvgl/src/lv_widgets/../lv_misc/lv_anim.h:128:1
	add	sp, #8
	bx	lr
.Ltmp334:
.Lfunc_end15:
	.size	lv_anim_set_var, .Lfunc_end15-lv_anim_set_var
	.cfi_endproc
	.cantunwind
	.fnend
                                        @ -- End function
	.section	.text.lv_anim_set_exec_cb,"ax",%progbits
	.p2align	3                               @ -- Begin function lv_anim_set_exec_cb
	.type	lv_anim_set_exec_cb,%function
	.code	16                              @ @lv_anim_set_exec_cb
	.thumb_func
lv_anim_set_exec_cb:
.Lfunc_begin16:
	.loc	16 138 0                        @ lvgl/src/lv_widgets/../lv_misc/lv_anim.h:138:0
	.fnstart
	.cfi_startproc
@ %bb.0:
	.pad	#8
	sub	sp, #8
	.cfi_def_cfa_offset 8
	str	r0, [sp, #4]
	str	r1, [sp]
.Ltmp335:
	.loc	16 139 18 prologue_end          @ lvgl/src/lv_widgets/../lv_misc/lv_anim.h:139:18
	ldr	r0, [sp]
	.loc	16 139 5 is_stmt 0              @ lvgl/src/lv_widgets/../lv_misc/lv_anim.h:139:5
	ldr	r1, [sp, #4]
	.loc	16 139 16                       @ lvgl/src/lv_widgets/../lv_misc/lv_anim.h:139:16
	str	r0, [r1, #4]
	.loc	16 140 1 is_stmt 1              @ lvgl/src/lv_widgets/../lv_misc/lv_anim.h:140:1
	add	sp, #8
	bx	lr
.Ltmp336:
.Lfunc_end16:
	.size	lv_anim_set_exec_cb, .Lfunc_end16-lv_anim_set_exec_cb
	.cfi_endproc
	.cantunwind
	.fnend
                                        @ -- End function
	.section	.text.lv_anim_set_values,"ax",%progbits
	.p2align	3                               @ -- Begin function lv_anim_set_values
	.type	lv_anim_set_values,%function
	.code	16                              @ @lv_anim_set_values
	.thumb_func
lv_anim_set_values:
.Lfunc_begin17:
	.loc	16 169 0                        @ lvgl/src/lv_widgets/../lv_misc/lv_anim.h:169:0
	.fnstart
	.cfi_startproc
@ %bb.0:
	.pad	#8
	sub	sp, #8
	.cfi_def_cfa_offset 8
                                        @ kill: def $r3 killed $r2
                                        @ kill: def $r3 killed $r1
	str	r0, [sp, #4]
	strh.w	r1, [sp, #2]
	strh.w	r2, [sp]
.Ltmp337:
	.loc	16 170 16 prologue_end          @ lvgl/src/lv_widgets/../lv_misc/lv_anim.h:170:16
	ldrsh.w	r0, [sp, #2]
	.loc	16 170 5 is_stmt 0              @ lvgl/src/lv_widgets/../lv_misc/lv_anim.h:170:5
	ldr	r1, [sp, #4]
	.loc	16 170 14                       @ lvgl/src/lv_widgets/../lv_misc/lv_anim.h:170:14
	str	r0, [r1, #24]
	.loc	16 171 18 is_stmt 1             @ lvgl/src/lv_widgets/../lv_misc/lv_anim.h:171:18
	ldrsh.w	r0, [sp, #2]
	.loc	16 171 5 is_stmt 0              @ lvgl/src/lv_widgets/../lv_misc/lv_anim.h:171:5
	ldr	r1, [sp, #4]
	.loc	16 171 16                       @ lvgl/src/lv_widgets/../lv_misc/lv_anim.h:171:16
	str	r0, [r1, #28]
	.loc	16 172 14 is_stmt 1             @ lvgl/src/lv_widgets/../lv_misc/lv_anim.h:172:14
	ldrsh.w	r0, [sp]
	.loc	16 172 5 is_stmt 0              @ lvgl/src/lv_widgets/../lv_misc/lv_anim.h:172:5
	ldr	r1, [sp, #4]
	.loc	16 172 12                       @ lvgl/src/lv_widgets/../lv_misc/lv_anim.h:172:12
	str	r0, [r1, #32]
	.loc	16 173 1 is_stmt 1              @ lvgl/src/lv_widgets/../lv_misc/lv_anim.h:173:1
	add	sp, #8
	bx	lr
.Ltmp338:
.Lfunc_end17:
	.size	lv_anim_set_values, .Lfunc_end17-lv_anim_set_values
	.cfi_endproc
	.cantunwind
	.fnend
                                        @ -- End function
	.section	.text.lv_anim_set_time,"ax",%progbits
	.p2align	3                               @ -- Begin function lv_anim_set_time
	.type	lv_anim_set_time,%function
	.code	16                              @ @lv_anim_set_time
	.thumb_func
lv_anim_set_time:
.Lfunc_begin18:
	.loc	16 148 0                        @ lvgl/src/lv_widgets/../lv_misc/lv_anim.h:148:0
	.fnstart
	.cfi_startproc
@ %bb.0:
	.pad	#8
	sub	sp, #8
	.cfi_def_cfa_offset 8
	str	r0, [sp, #4]
	str	r1, [sp]
.Ltmp339:
	.loc	16 149 15 prologue_end          @ lvgl/src/lv_widgets/../lv_misc/lv_anim.h:149:15
	ldr	r0, [sp]
	.loc	16 149 5 is_stmt 0              @ lvgl/src/lv_widgets/../lv_misc/lv_anim.h:149:5
	ldr	r1, [sp, #4]
	.loc	16 149 13                       @ lvgl/src/lv_widgets/../lv_misc/lv_anim.h:149:13
	str	r0, [r1, #36]
	.loc	16 150 1 is_stmt 1              @ lvgl/src/lv_widgets/../lv_misc/lv_anim.h:150:1
	add	sp, #8
	bx	lr
.Ltmp340:
.Lfunc_end18:
	.size	lv_anim_set_time, .Lfunc_end18-lv_anim_set_time
	.cfi_endproc
	.cantunwind
	.fnend
                                        @ -- End function
	.section	.text.lv_obj_get_style_pad_top,"ax",%progbits
	.p2align	3                               @ -- Begin function lv_obj_get_style_pad_top
	.type	lv_obj_get_style_pad_top,%function
	.code	16                              @ @lv_obj_get_style_pad_top
	.thumb_func
lv_obj_get_style_pad_top:
.Lfunc_begin19:
	.loc	17 100 0                        @ lvgl/src/lv_widgets/../lv_core/lv_obj_style_dec.h:100:0
	.fnstart
	.cfi_startproc
@ %bb.0:
	.save	{r7, lr}
	push	{r7, lr}
	.cfi_def_cfa_offset 8
	.cfi_offset lr, -4
	.cfi_offset r7, -8
	.pad	#8
	sub	sp, #8
	.cfi_def_cfa_offset 16
                                        @ kill: def $r2 killed $r1
	str	r0, [sp, #4]
	strb.w	r1, [sp, #3]
.Ltmp341:
	.loc	17 100 1 prologue_end           @ lvgl/src/lv_widgets/../lv_core/lv_obj_style_dec.h:100:1
	ldr	r0, [sp, #4]
	ldrb.w	r1, [sp, #3]
	movs	r2, #16
	bl	_lv_obj_get_style_int
	add	sp, #8
	pop	{r7, pc}
.Ltmp342:
.Lfunc_end19:
	.size	lv_obj_get_style_pad_top, .Lfunc_end19-lv_obj_get_style_pad_top
	.cfi_endproc
	.cantunwind
	.fnend
                                        @ -- End function
	.section	.text.lv_tabview_set_tab_name,"ax",%progbits
	.hidden	lv_tabview_set_tab_name         @ -- Begin function lv_tabview_set_tab_name
	.globl	lv_tabview_set_tab_name
	.p2align	3
	.type	lv_tabview_set_tab_name,%function
	.code	16                              @ @lv_tabview_set_tab_name
	.thumb_func
lv_tabview_set_tab_name:
.Lfunc_begin20:
	.loc	10 444 0                        @ lvgl/src/lv_widgets/lv_tabview.c:444:0
	.fnstart
	.cfi_startproc
@ %bb.0:
	.save	{r7, lr}
	push	{r7, lr}
	.cfi_def_cfa_offset 8
	.cfi_offset lr, -4
	.cfi_offset r7, -8
	.pad	#24
	sub	sp, #24
	.cfi_def_cfa_offset 32
                                        @ kill: def $r3 killed $r1
	str	r0, [sp, #20]
	strh.w	r1, [sp, #18]
	str	r2, [sp, #12]
.Ltmp343:
	.loc	10 445 5 prologue_end           @ lvgl/src/lv_widgets/lv_tabview.c:445:5
	b	.LBB20_1
.LBB20_1:
.Ltmp344:
	.loc	10 445 5 is_stmt 0              @ lvgl/src/lv_widgets/lv_tabview.c:445:5
	ldr	r0, [sp, #20]
	bl	lv_debug_check_null
.Ltmp345:
	.loc	10 445 5                        @ lvgl/src/lv_widgets/lv_tabview.c:445:5
	cbnz	r0, .LBB20_4
	b	.LBB20_2
.LBB20_2:
.Ltmp346:
	.loc	10 445 5                        @ lvgl/src/lv_widgets/lv_tabview.c:445:5
	ldr	r2, [sp, #20]
	movw	r0, :lower16:.L.str.2
	movt	r0, :upper16:.L.str.2
	movs	r3, #0
	bl	lv_debug_log_error
	b	.LBB20_3
.LBB20_3:                               @ =>This Inner Loop Header: Depth=1
	b	.LBB20_3
.Ltmp347:
.LBB20_4:
	.loc	10 445 5                        @ lvgl/src/lv_widgets/lv_tabview.c:445:5
	b	.LBB20_5
.Ltmp348:
.LBB20_5:
	.loc	10 448 50 is_stmt 1             @ lvgl/src/lv_widgets/lv_tabview.c:448:50
	ldr	r0, [sp, #20]
	.loc	10 448 30 is_stmt 0             @ lvgl/src/lv_widgets/lv_tabview.c:448:30
	bl	lv_obj_get_ext_attr
	.loc	10 448 24                       @ lvgl/src/lv_widgets/lv_tabview.c:448:24
	str	r0, [sp, #8]
.Ltmp349:
	.loc	10 451 8 is_stmt 1              @ lvgl/src/lv_widgets/lv_tabview.c:451:8
	ldr	r0, [sp, #8]
	.loc	10 451 13 is_stmt 0             @ lvgl/src/lv_widgets/lv_tabview.c:451:13
	ldrh	r0, [r0, #22]
	.loc	10 451 23                       @ lvgl/src/lv_widgets/lv_tabview.c:451:23
	ldrh.w	r1, [sp, #18]
.Ltmp350:
	.loc	10 451 8                        @ lvgl/src/lv_widgets/lv_tabview.c:451:8
	cmp	r0, r1
	ble	.LBB20_12
	b	.LBB20_6
.LBB20_6:
.Ltmp351:
	.loc	10 453 45 is_stmt 1             @ lvgl/src/lv_widgets/lv_tabview.c:453:45
	ldr	r0, [sp, #8]
	.loc	10 453 50 is_stmt 0             @ lvgl/src/lv_widgets/lv_tabview.c:453:50
	ldr	r0, [r0, #12]
	.loc	10 453 63                       @ lvgl/src/lv_widgets/lv_tabview.c:453:63
	ldrh.w	r1, [sp, #18]
	.loc	10 453 45                       @ lvgl/src/lv_widgets/lv_tabview.c:453:45
	ldr.w	r0, [r0, r1, lsl #2]
	.loc	10 453 75                       @ lvgl/src/lv_widgets/lv_tabview.c:453:75
	str	r0, [sp]                        @ 4-byte Spill
	ldr	r0, [sp, #12]
	.loc	10 453 68                       @ lvgl/src/lv_widgets/lv_tabview.c:453:68
	bl	strlen
	mov	r1, r0
	.loc	10 453 81                       @ lvgl/src/lv_widgets/lv_tabview.c:453:81
	ldr	r0, [sp]                        @ 4-byte Reload
	adds	r1, #1
	.loc	10 453 22                       @ lvgl/src/lv_widgets/lv_tabview.c:453:22
	bl	lv_mem_realloc
	.loc	10 453 16                       @ lvgl/src/lv_widgets/lv_tabview.c:453:16
	str	r0, [sp, #4]
	.loc	10 454 9 is_stmt 1              @ lvgl/src/lv_widgets/lv_tabview.c:454:9
	b	.LBB20_7
.LBB20_7:
.Ltmp352:
	.loc	10 454 9 is_stmt 0              @ lvgl/src/lv_widgets/lv_tabview.c:454:9
	ldr	r0, [sp, #4]
	bl	lv_debug_check_null
.Ltmp353:
	.loc	10 454 9                        @ lvgl/src/lv_widgets/lv_tabview.c:454:9
	cbnz	r0, .LBB20_10
	b	.LBB20_8
.LBB20_8:
.Ltmp354:
	.loc	10 454 9                        @ lvgl/src/lv_widgets/lv_tabview.c:454:9
	ldr	r2, [sp, #4]
	movw	r0, :lower16:.L.str
	movt	r0, :upper16:.L.str
	movs	r3, #0
	bl	lv_debug_log_error
	b	.LBB20_9
.LBB20_9:                               @ =>This Inner Loop Header: Depth=1
	b	.LBB20_9
.Ltmp355:
.LBB20_10:
	.loc	10 454 9                        @ lvgl/src/lv_widgets/lv_tabview.c:454:9
	b	.LBB20_11
.Ltmp356:
.LBB20_11:
	.loc	10 457 16 is_stmt 1             @ lvgl/src/lv_widgets/lv_tabview.c:457:16
	ldr	r0, [sp, #4]
	.loc	10 457 21 is_stmt 0             @ lvgl/src/lv_widgets/lv_tabview.c:457:21
	ldr	r1, [sp, #12]
	.loc	10 457 9                        @ lvgl/src/lv_widgets/lv_tabview.c:457:9
	bl	strcpy
	.loc	10 459 33 is_stmt 1             @ lvgl/src/lv_widgets/lv_tabview.c:459:33
	ldr	r0, [sp, #4]
	.loc	10 459 9 is_stmt 0              @ lvgl/src/lv_widgets/lv_tabview.c:459:9
	ldr	r1, [sp, #8]
	.loc	10 459 14                       @ lvgl/src/lv_widgets/lv_tabview.c:459:14
	ldr	r1, [r1, #12]
	.loc	10 459 27                       @ lvgl/src/lv_widgets/lv_tabview.c:459:27
	ldrh.w	r2, [sp, #18]
	.loc	10 459 31                       @ lvgl/src/lv_widgets/lv_tabview.c:459:31
	str.w	r0, [r1, r2, lsl #2]
	.loc	10 462 27 is_stmt 1             @ lvgl/src/lv_widgets/lv_tabview.c:462:27
	ldr	r0, [sp, #8]
	.loc	10 462 32 is_stmt 0             @ lvgl/src/lv_widgets/lv_tabview.c:462:32
	ldr	r0, [r0]
	.loc	10 462 9                        @ lvgl/src/lv_widgets/lv_tabview.c:462:9
	bl	lv_obj_invalidate
	.loc	10 463 5 is_stmt 1              @ lvgl/src/lv_widgets/lv_tabview.c:463:5
	b	.LBB20_12
.Ltmp357:
.LBB20_12:
	.loc	10 464 1                        @ lvgl/src/lv_widgets/lv_tabview.c:464:1
	add	sp, #24
	pop	{r7, pc}
.Ltmp358:
.Lfunc_end20:
	.size	lv_tabview_set_tab_name, .Lfunc_end20-lv_tabview_set_tab_name
	.cfi_endproc
	.cantunwind
	.fnend
                                        @ -- End function
	.section	.text.lv_tabview_set_anim_time,"ax",%progbits
	.hidden	lv_tabview_set_anim_time        @ -- Begin function lv_tabview_set_anim_time
	.globl	lv_tabview_set_anim_time
	.p2align	3
	.type	lv_tabview_set_anim_time,%function
	.code	16                              @ @lv_tabview_set_anim_time
	.thumb_func
lv_tabview_set_anim_time:
.Lfunc_begin21:
	.loc	10 472 0                        @ lvgl/src/lv_widgets/lv_tabview.c:472:0
	.fnstart
	.cfi_startproc
@ %bb.0:
	.save	{r7, lr}
	push	{r7, lr}
	.cfi_def_cfa_offset 8
	.cfi_offset lr, -4
	.cfi_offset r7, -8
	.pad	#16
	sub	sp, #16
	.cfi_def_cfa_offset 24
                                        @ kill: def $r2 killed $r1
	str	r0, [sp, #12]
	strh.w	r1, [sp, #10]
.Ltmp359:
	.loc	10 473 5 prologue_end           @ lvgl/src/lv_widgets/lv_tabview.c:473:5
	b	.LBB21_1
.LBB21_1:
.Ltmp360:
	.loc	10 473 5 is_stmt 0              @ lvgl/src/lv_widgets/lv_tabview.c:473:5
	ldr	r0, [sp, #12]
	bl	lv_debug_check_null
.Ltmp361:
	.loc	10 473 5                        @ lvgl/src/lv_widgets/lv_tabview.c:473:5
	cbnz	r0, .LBB21_4
	b	.LBB21_2
.LBB21_2:
.Ltmp362:
	.loc	10 473 5                        @ lvgl/src/lv_widgets/lv_tabview.c:473:5
	ldr	r2, [sp, #12]
	movw	r0, :lower16:.L.str.2
	movt	r0, :upper16:.L.str.2
	movs	r3, #0
	bl	lv_debug_log_error
	b	.LBB21_3
.LBB21_3:                               @ =>This Inner Loop Header: Depth=1
	b	.LBB21_3
.Ltmp363:
.LBB21_4:
	.loc	10 473 5                        @ lvgl/src/lv_widgets/lv_tabview.c:473:5
	b	.LBB21_5
.Ltmp364:
.LBB21_5:
	.loc	10 476 50 is_stmt 1             @ lvgl/src/lv_widgets/lv_tabview.c:476:50
	ldr	r0, [sp, #12]
	.loc	10 476 30 is_stmt 0             @ lvgl/src/lv_widgets/lv_tabview.c:476:30
	bl	lv_obj_get_ext_attr
	.loc	10 476 24                       @ lvgl/src/lv_widgets/lv_tabview.c:476:24
	str	r0, [sp, #4]
	.loc	10 477 30 is_stmt 1             @ lvgl/src/lv_widgets/lv_tabview.c:477:30
	ldrh.w	r0, [sp, #10]
	.loc	10 477 5 is_stmt 0              @ lvgl/src/lv_widgets/lv_tabview.c:477:5
	ldr	r1, [sp, #4]
	.loc	10 477 28                       @ lvgl/src/lv_widgets/lv_tabview.c:477:28
	strh	r0, [r1, #24]
	.loc	10 482 1 is_stmt 1              @ lvgl/src/lv_widgets/lv_tabview.c:482:1
	add	sp, #16
	pop	{r7, pc}
.Ltmp365:
.Lfunc_end21:
	.size	lv_tabview_set_anim_time, .Lfunc_end21-lv_tabview_set_anim_time
	.cfi_endproc
	.cantunwind
	.fnend
                                        @ -- End function
	.section	.text.lv_tabview_set_btns_pos,"ax",%progbits
	.hidden	lv_tabview_set_btns_pos         @ -- Begin function lv_tabview_set_btns_pos
	.globl	lv_tabview_set_btns_pos
	.p2align	3
	.type	lv_tabview_set_btns_pos,%function
	.code	16                              @ @lv_tabview_set_btns_pos
	.thumb_func
lv_tabview_set_btns_pos:
.Lfunc_begin22:
	.loc	10 490 0                        @ lvgl/src/lv_widgets/lv_tabview.c:490:0
	.fnstart
	.cfi_startproc
@ %bb.0:
	.save	{r7, lr}
	push	{r7, lr}
	.cfi_def_cfa_offset 8
	.cfi_offset lr, -4
	.cfi_offset r7, -8
	.pad	#16
	sub	sp, #16
	.cfi_def_cfa_offset 24
                                        @ kill: def $r2 killed $r1
	str	r0, [sp, #12]
	strb.w	r1, [sp, #11]
.Ltmp366:
	.loc	10 491 8 prologue_end           @ lvgl/src/lv_widgets/lv_tabview.c:491:8
	ldrb.w	r0, [sp, #11]
	.loc	10 491 44 is_stmt 0             @ lvgl/src/lv_widgets/lv_tabview.c:491:44
	cbz	r0, .LBB22_6
	b	.LBB22_1
.LBB22_1:
	.loc	10 492 8 is_stmt 1              @ lvgl/src/lv_widgets/lv_tabview.c:492:8
	ldrb.w	r0, [sp, #11]
	.loc	10 492 43 is_stmt 0             @ lvgl/src/lv_widgets/lv_tabview.c:492:43
	cmp	r0, #1
	beq	.LBB22_6
	b	.LBB22_2
.LBB22_2:
	.loc	10 493 8 is_stmt 1              @ lvgl/src/lv_widgets/lv_tabview.c:493:8
	ldrb.w	r0, [sp, #11]
	.loc	10 493 46 is_stmt 0             @ lvgl/src/lv_widgets/lv_tabview.c:493:46
	cmp	r0, #2
	beq	.LBB22_6
	b	.LBB22_3
.LBB22_3:
	.loc	10 494 8 is_stmt 1              @ lvgl/src/lv_widgets/lv_tabview.c:494:8
	ldrb.w	r0, [sp, #11]
	.loc	10 494 44 is_stmt 0             @ lvgl/src/lv_widgets/lv_tabview.c:494:44
	cmp	r0, #3
	beq	.LBB22_6
	b	.LBB22_4
.LBB22_4:
	.loc	10 495 8 is_stmt 1              @ lvgl/src/lv_widgets/lv_tabview.c:495:8
	ldrb.w	r0, [sp, #11]
.Ltmp367:
	.loc	10 491 8                        @ lvgl/src/lv_widgets/lv_tabview.c:491:8
	cmp	r0, #4
	beq	.LBB22_6
	b	.LBB22_5
.LBB22_5:
.Ltmp368:
	.loc	10 497 9                        @ lvgl/src/lv_widgets/lv_tabview.c:497:9
	b	.LBB22_12
.Ltmp369:
.LBB22_6:
	.loc	10 499 5                        @ lvgl/src/lv_widgets/lv_tabview.c:499:5
	b	.LBB22_7
.LBB22_7:
.Ltmp370:
	.loc	10 499 5 is_stmt 0              @ lvgl/src/lv_widgets/lv_tabview.c:499:5
	ldr	r0, [sp, #12]
	bl	lv_debug_check_null
.Ltmp371:
	.loc	10 499 5                        @ lvgl/src/lv_widgets/lv_tabview.c:499:5
	cbnz	r0, .LBB22_10
	b	.LBB22_8
.LBB22_8:
.Ltmp372:
	.loc	10 499 5                        @ lvgl/src/lv_widgets/lv_tabview.c:499:5
	ldr	r2, [sp, #12]
	movw	r0, :lower16:.L.str.2
	movt	r0, :upper16:.L.str.2
	movs	r3, #0
	bl	lv_debug_log_error
	b	.LBB22_9
.LBB22_9:                               @ =>This Inner Loop Header: Depth=1
	b	.LBB22_9
.Ltmp373:
.LBB22_10:
	.loc	10 499 5                        @ lvgl/src/lv_widgets/lv_tabview.c:499:5
	b	.LBB22_11
.Ltmp374:
.LBB22_11:
	.loc	10 501 50 is_stmt 1             @ lvgl/src/lv_widgets/lv_tabview.c:501:50
	ldr	r0, [sp, #12]
	.loc	10 501 30 is_stmt 0             @ lvgl/src/lv_widgets/lv_tabview.c:501:30
	bl	lv_obj_get_ext_attr
	.loc	10 501 24                       @ lvgl/src/lv_widgets/lv_tabview.c:501:24
	str	r0, [sp, #4]
	.loc	10 503 21 is_stmt 1             @ lvgl/src/lv_widgets/lv_tabview.c:503:21
	ldrb.w	r2, [sp, #11]
	.loc	10 503 5 is_stmt 0              @ lvgl/src/lv_widgets/lv_tabview.c:503:5
	ldr	r1, [sp, #4]
	.loc	10 503 19                       @ lvgl/src/lv_widgets/lv_tabview.c:503:19
	ldrb	r0, [r1, #26]
	and	r2, r2, #7
	and	r0, r0, #248
	add	r0, r2
	strb	r0, [r1, #26]
	.loc	10 504 21 is_stmt 1             @ lvgl/src/lv_widgets/lv_tabview.c:504:21
	ldr	r0, [sp, #12]
	.loc	10 504 5 is_stmt 0              @ lvgl/src/lv_widgets/lv_tabview.c:504:5
	bl	tabview_realign
	.loc	10 505 1 is_stmt 1              @ lvgl/src/lv_widgets/lv_tabview.c:505:1
	b	.LBB22_12
.LBB22_12:
	add	sp, #16
	pop	{r7, pc}
.Ltmp375:
.Lfunc_end22:
	.size	lv_tabview_set_btns_pos, .Lfunc_end22-lv_tabview_set_btns_pos
	.cfi_endproc
	.cantunwind
	.fnend
                                        @ -- End function
	.section	.text.lv_tabview_get_tab_act,"ax",%progbits
	.hidden	lv_tabview_get_tab_act          @ -- Begin function lv_tabview_get_tab_act
	.globl	lv_tabview_get_tab_act
	.p2align	3
	.type	lv_tabview_get_tab_act,%function
	.code	16                              @ @lv_tabview_get_tab_act
	.thumb_func
lv_tabview_get_tab_act:
.Lfunc_begin23:
	.loc	10 517 0                        @ lvgl/src/lv_widgets/lv_tabview.c:517:0
	.fnstart
	.cfi_startproc
@ %bb.0:
	.save	{r7, lr}
	push	{r7, lr}
	.cfi_def_cfa_offset 8
	.cfi_offset lr, -4
	.cfi_offset r7, -8
	.pad	#8
	sub	sp, #8
	.cfi_def_cfa_offset 16
	str	r0, [sp, #4]
.Ltmp376:
	.loc	10 518 5 prologue_end           @ lvgl/src/lv_widgets/lv_tabview.c:518:5
	b	.LBB23_1
.LBB23_1:
.Ltmp377:
	.loc	10 518 5 is_stmt 0              @ lvgl/src/lv_widgets/lv_tabview.c:518:5
	ldr	r0, [sp, #4]
	bl	lv_debug_check_null
.Ltmp378:
	.loc	10 518 5                        @ lvgl/src/lv_widgets/lv_tabview.c:518:5
	cbnz	r0, .LBB23_4
	b	.LBB23_2
.LBB23_2:
.Ltmp379:
	.loc	10 518 5                        @ lvgl/src/lv_widgets/lv_tabview.c:518:5
	ldr	r2, [sp, #4]
	movw	r0, :lower16:.L.str.2
	movt	r0, :upper16:.L.str.2
	movs	r3, #0
	bl	lv_debug_log_error
	b	.LBB23_3
.LBB23_3:                               @ =>This Inner Loop Header: Depth=1
	b	.LBB23_3
.Ltmp380:
.LBB23_4:
	.loc	10 518 5                        @ lvgl/src/lv_widgets/lv_tabview.c:518:5
	b	.LBB23_5
.Ltmp381:
.LBB23_5:
	.loc	10 520 50 is_stmt 1             @ lvgl/src/lv_widgets/lv_tabview.c:520:50
	ldr	r0, [sp, #4]
	.loc	10 520 30 is_stmt 0             @ lvgl/src/lv_widgets/lv_tabview.c:520:30
	bl	lv_obj_get_ext_attr
	.loc	10 520 24                       @ lvgl/src/lv_widgets/lv_tabview.c:520:24
	str	r0, [sp]
	.loc	10 521 12 is_stmt 1             @ lvgl/src/lv_widgets/lv_tabview.c:521:12
	ldr	r0, [sp]
	.loc	10 521 17 is_stmt 0             @ lvgl/src/lv_widgets/lv_tabview.c:521:17
	ldrh	r0, [r0, #20]
	.loc	10 521 5                        @ lvgl/src/lv_widgets/lv_tabview.c:521:5
	add	sp, #8
	pop	{r7, pc}
.Ltmp382:
.Lfunc_end23:
	.size	lv_tabview_get_tab_act, .Lfunc_end23-lv_tabview_get_tab_act
	.cfi_endproc
	.cantunwind
	.fnend
                                        @ -- End function
	.section	.text.lv_tabview_get_tab_count,"ax",%progbits
	.hidden	lv_tabview_get_tab_count        @ -- Begin function lv_tabview_get_tab_count
	.globl	lv_tabview_get_tab_count
	.p2align	3
	.type	lv_tabview_get_tab_count,%function
	.code	16                              @ @lv_tabview_get_tab_count
	.thumb_func
lv_tabview_get_tab_count:
.Lfunc_begin24:
	.loc	10 530 0 is_stmt 1              @ lvgl/src/lv_widgets/lv_tabview.c:530:0
	.fnstart
	.cfi_startproc
@ %bb.0:
	.save	{r7, lr}
	push	{r7, lr}
	.cfi_def_cfa_offset 8
	.cfi_offset lr, -4
	.cfi_offset r7, -8
	.pad	#8
	sub	sp, #8
	.cfi_def_cfa_offset 16
	str	r0, [sp, #4]
.Ltmp383:
	.loc	10 531 5 prologue_end           @ lvgl/src/lv_widgets/lv_tabview.c:531:5
	b	.LBB24_1
.LBB24_1:
.Ltmp384:
	.loc	10 531 5 is_stmt 0              @ lvgl/src/lv_widgets/lv_tabview.c:531:5
	ldr	r0, [sp, #4]
	bl	lv_debug_check_null
.Ltmp385:
	.loc	10 531 5                        @ lvgl/src/lv_widgets/lv_tabview.c:531:5
	cbnz	r0, .LBB24_4
	b	.LBB24_2
.LBB24_2:
.Ltmp386:
	.loc	10 531 5                        @ lvgl/src/lv_widgets/lv_tabview.c:531:5
	ldr	r2, [sp, #4]
	movw	r0, :lower16:.L.str.2
	movt	r0, :upper16:.L.str.2
	movs	r3, #0
	bl	lv_debug_log_error
	b	.LBB24_3
.LBB24_3:                               @ =>This Inner Loop Header: Depth=1
	b	.LBB24_3
.Ltmp387:
.LBB24_4:
	.loc	10 531 5                        @ lvgl/src/lv_widgets/lv_tabview.c:531:5
	b	.LBB24_5
.Ltmp388:
.LBB24_5:
	.loc	10 533 50 is_stmt 1             @ lvgl/src/lv_widgets/lv_tabview.c:533:50
	ldr	r0, [sp, #4]
	.loc	10 533 30 is_stmt 0             @ lvgl/src/lv_widgets/lv_tabview.c:533:30
	bl	lv_obj_get_ext_attr
	.loc	10 533 24                       @ lvgl/src/lv_widgets/lv_tabview.c:533:24
	str	r0, [sp]
	.loc	10 534 12 is_stmt 1             @ lvgl/src/lv_widgets/lv_tabview.c:534:12
	ldr	r0, [sp]
	.loc	10 534 17 is_stmt 0             @ lvgl/src/lv_widgets/lv_tabview.c:534:17
	ldrh	r0, [r0, #22]
	.loc	10 534 5                        @ lvgl/src/lv_widgets/lv_tabview.c:534:5
	add	sp, #8
	pop	{r7, pc}
.Ltmp389:
.Lfunc_end24:
	.size	lv_tabview_get_tab_count, .Lfunc_end24-lv_tabview_get_tab_count
	.cfi_endproc
	.cantunwind
	.fnend
                                        @ -- End function
	.section	.text.lv_tabview_get_btns_pos,"ax",%progbits
	.hidden	lv_tabview_get_btns_pos         @ -- Begin function lv_tabview_get_btns_pos
	.globl	lv_tabview_get_btns_pos
	.p2align	3
	.type	lv_tabview_get_btns_pos,%function
	.code	16                              @ @lv_tabview_get_btns_pos
	.thumb_func
lv_tabview_get_btns_pos:
.Lfunc_begin25:
	.loc	10 585 0 is_stmt 1              @ lvgl/src/lv_widgets/lv_tabview.c:585:0
	.fnstart
	.cfi_startproc
@ %bb.0:
	.save	{r7, lr}
	push	{r7, lr}
	.cfi_def_cfa_offset 8
	.cfi_offset lr, -4
	.cfi_offset r7, -8
	.pad	#8
	sub	sp, #8
	.cfi_def_cfa_offset 16
	str	r0, [sp, #4]
.Ltmp390:
	.loc	10 586 5 prologue_end           @ lvgl/src/lv_widgets/lv_tabview.c:586:5
	b	.LBB25_1
.LBB25_1:
.Ltmp391:
	.loc	10 586 5 is_stmt 0              @ lvgl/src/lv_widgets/lv_tabview.c:586:5
	ldr	r0, [sp, #4]
	bl	lv_debug_check_null
.Ltmp392:
	.loc	10 586 5                        @ lvgl/src/lv_widgets/lv_tabview.c:586:5
	cbnz	r0, .LBB25_4
	b	.LBB25_2
.LBB25_2:
.Ltmp393:
	.loc	10 586 5                        @ lvgl/src/lv_widgets/lv_tabview.c:586:5
	ldr	r2, [sp, #4]
	movw	r0, :lower16:.L.str.2
	movt	r0, :upper16:.L.str.2
	movs	r3, #0
	bl	lv_debug_log_error
	b	.LBB25_3
.LBB25_3:                               @ =>This Inner Loop Header: Depth=1
	b	.LBB25_3
.Ltmp394:
.LBB25_4:
	.loc	10 586 5                        @ lvgl/src/lv_widgets/lv_tabview.c:586:5
	b	.LBB25_5
.Ltmp395:
.LBB25_5:
	.loc	10 588 50 is_stmt 1             @ lvgl/src/lv_widgets/lv_tabview.c:588:50
	ldr	r0, [sp, #4]
	.loc	10 588 30 is_stmt 0             @ lvgl/src/lv_widgets/lv_tabview.c:588:30
	bl	lv_obj_get_ext_attr
	.loc	10 588 24                       @ lvgl/src/lv_widgets/lv_tabview.c:588:24
	str	r0, [sp]
	.loc	10 589 12 is_stmt 1             @ lvgl/src/lv_widgets/lv_tabview.c:589:12
	ldr	r0, [sp]
	.loc	10 589 17 is_stmt 0             @ lvgl/src/lv_widgets/lv_tabview.c:589:17
	ldrb	r0, [r0, #26]
	.loc	10 589 5                        @ lvgl/src/lv_widgets/lv_tabview.c:589:5
	and	r0, r0, #7
	add	sp, #8
	pop	{r7, pc}
.Ltmp396:
.Lfunc_end25:
	.size	lv_tabview_get_btns_pos, .Lfunc_end25-lv_tabview_get_btns_pos
	.cfi_endproc
	.cantunwind
	.fnend
                                        @ -- End function
	.section	.text.lv_cont_set_fit2,"ax",%progbits
	.p2align	3                               @ -- Begin function lv_cont_set_fit2
	.type	lv_cont_set_fit2,%function
	.code	16                              @ @lv_cont_set_fit2
	.thumb_func
lv_cont_set_fit2:
.Lfunc_begin26:
	.loc	12 158 0 is_stmt 1              @ lvgl/src/lv_widgets/lv_cont.h:158:0
	.fnstart
	.cfi_startproc
@ %bb.0:
	.save	{r7, lr}
	push	{r7, lr}
	.cfi_def_cfa_offset 8
	.cfi_offset lr, -4
	.cfi_offset r7, -8
	.pad	#16
	sub	sp, #16
	.cfi_def_cfa_offset 24
                                        @ kill: def $r3 killed $r2
                                        @ kill: def $r3 killed $r1
	str	r0, [sp, #12]
	strb.w	r1, [sp, #11]
	strb.w	r2, [sp, #10]
.Ltmp397:
	.loc	12 159 22 prologue_end          @ lvgl/src/lv_widgets/lv_cont.h:159:22
	ldr	r0, [sp, #12]
	.loc	12 159 28 is_stmt 0             @ lvgl/src/lv_widgets/lv_cont.h:159:28
	ldrb.w	r2, [sp, #11]
	.loc	12 159 38                       @ lvgl/src/lv_widgets/lv_cont.h:159:38
	ldrb.w	r3, [sp, #10]
	.loc	12 159 5                        @ lvgl/src/lv_widgets/lv_cont.h:159:5
	mov	r1, sp
	str	r3, [r1]
	mov	r1, r2
	bl	lv_cont_set_fit4
	.loc	12 160 1 is_stmt 1              @ lvgl/src/lv_widgets/lv_cont.h:160:1
	add	sp, #16
	pop	{r7, pc}
.Ltmp398:
.Lfunc_end26:
	.size	lv_cont_set_fit2, .Lfunc_end26-lv_cont_set_fit2
	.cfi_endproc
	.cantunwind
	.fnend
                                        @ -- End function
	.section	.text.lv_tabview_get_style,"ax",%progbits
	.p2align	3                               @ -- Begin function lv_tabview_get_style
	.type	lv_tabview_get_style,%function
	.code	16                              @ @lv_tabview_get_style
	.thumb_func
lv_tabview_get_style:
.Lfunc_begin27:
	.loc	10 784 0                        @ lvgl/src/lv_widgets/lv_tabview.c:784:0
	.fnstart
	.cfi_startproc
@ %bb.0:
	.save	{r7, lr}
	push	{r7, lr}
	.cfi_def_cfa_offset 8
	.cfi_offset lr, -4
	.cfi_offset r7, -8
	.pad	#24
	sub	sp, #24
	.cfi_def_cfa_offset 32
                                        @ kill: def $r2 killed $r1
	str	r0, [sp, #20]
	strb.w	r1, [sp, #19]
.Ltmp399:
	.loc	10 785 5 prologue_end           @ lvgl/src/lv_widgets/lv_tabview.c:785:5
	b	.LBB27_1
.LBB27_1:
.Ltmp400:
	.loc	10 785 5 is_stmt 0              @ lvgl/src/lv_widgets/lv_tabview.c:785:5
	ldr	r0, [sp, #20]
	bl	lv_debug_check_null
.Ltmp401:
	.loc	10 785 5                        @ lvgl/src/lv_widgets/lv_tabview.c:785:5
	cbnz	r0, .LBB27_4
	b	.LBB27_2
.LBB27_2:
.Ltmp402:
	.loc	10 785 5                        @ lvgl/src/lv_widgets/lv_tabview.c:785:5
	ldr	r2, [sp, #20]
	movw	r0, :lower16:.L.str.2
	movt	r0, :upper16:.L.str.2
	movs	r3, #0
	bl	lv_debug_log_error
	b	.LBB27_3
.LBB27_3:                               @ =>This Inner Loop Header: Depth=1
	b	.LBB27_3
.Ltmp403:
.LBB27_4:
	.loc	10 785 5                        @ lvgl/src/lv_widgets/lv_tabview.c:785:5
	b	.LBB27_5
.Ltmp404:
.LBB27_5:
	.loc	10 787 50 is_stmt 1             @ lvgl/src/lv_widgets/lv_tabview.c:787:50
	ldr	r0, [sp, #20]
	.loc	10 787 30 is_stmt 0             @ lvgl/src/lv_widgets/lv_tabview.c:787:30
	bl	lv_obj_get_ext_attr
	.loc	10 787 24                       @ lvgl/src/lv_widgets/lv_tabview.c:787:24
	str	r0, [sp, #12]
	.loc	10 790 12 is_stmt 1             @ lvgl/src/lv_widgets/lv_tabview.c:790:12
	ldrb.w	r0, [sp, #19]
	.loc	10 790 5 is_stmt 0              @ lvgl/src/lv_widgets/lv_tabview.c:790:5
	mov	r1, r0
	str	r1, [sp, #4]                    @ 4-byte Spill
	cbz	r0, .LBB27_10
	b	.LBB27_6
.LBB27_6:
	ldr	r0, [sp, #4]                    @ 4-byte Reload
	cmp	r0, #64
	beq	.LBB27_11
	b	.LBB27_7
.LBB27_7:
	ldr	r0, [sp, #4]                    @ 4-byte Reload
	cmp	r0, #65
	beq	.LBB27_12
	b	.LBB27_8
.LBB27_8:
	ldr	r0, [sp, #4]                    @ 4-byte Reload
	cmp	r0, #66
	beq	.LBB27_13
	b	.LBB27_9
.LBB27_9:
	ldr	r0, [sp, #4]                    @ 4-byte Reload
	cmp	r0, #67
	beq	.LBB27_14
	b	.LBB27_15
.LBB27_10:
.Ltmp405:
	.loc	10 792 28 is_stmt 1             @ lvgl/src/lv_widgets/lv_tabview.c:792:28
	ldr	r0, [sp, #20]
	.loc	10 792 37 is_stmt 0             @ lvgl/src/lv_widgets/lv_tabview.c:792:37
	adds	r0, #40
	.loc	10 792 25                       @ lvgl/src/lv_widgets/lv_tabview.c:792:25
	str	r0, [sp, #8]
	.loc	10 793 13 is_stmt 1             @ lvgl/src/lv_widgets/lv_tabview.c:793:13
	b	.LBB27_16
.LBB27_11:
	.loc	10 795 49                       @ lvgl/src/lv_widgets/lv_tabview.c:795:49
	ldr	r0, [sp, #12]
	.loc	10 795 54 is_stmt 0             @ lvgl/src/lv_widgets/lv_tabview.c:795:54
	ldr	r0, [r0, #8]
	movs	r1, #64
	.loc	10 795 27                       @ lvgl/src/lv_widgets/lv_tabview.c:795:27
	bl	lv_obj_get_style_list
	.loc	10 795 25                       @ lvgl/src/lv_widgets/lv_tabview.c:795:25
	str	r0, [sp, #8]
	.loc	10 796 13 is_stmt 1             @ lvgl/src/lv_widgets/lv_tabview.c:796:13
	b	.LBB27_16
.LBB27_12:
	.loc	10 798 49                       @ lvgl/src/lv_widgets/lv_tabview.c:798:49
	ldr	r0, [sp, #12]
	.loc	10 798 54 is_stmt 0             @ lvgl/src/lv_widgets/lv_tabview.c:798:54
	ldr	r0, [r0]
	movs	r1, #0
	.loc	10 798 27                       @ lvgl/src/lv_widgets/lv_tabview.c:798:27
	bl	lv_obj_get_style_list
	.loc	10 798 25                       @ lvgl/src/lv_widgets/lv_tabview.c:798:25
	str	r0, [sp, #8]
	.loc	10 799 13 is_stmt 1             @ lvgl/src/lv_widgets/lv_tabview.c:799:13
	b	.LBB27_16
.LBB27_13:
	.loc	10 801 49                       @ lvgl/src/lv_widgets/lv_tabview.c:801:49
	ldr	r0, [sp, #12]
	.loc	10 801 54 is_stmt 0             @ lvgl/src/lv_widgets/lv_tabview.c:801:54
	ldr	r0, [r0]
	movs	r1, #1
	.loc	10 801 27                       @ lvgl/src/lv_widgets/lv_tabview.c:801:27
	bl	lv_obj_get_style_list
	.loc	10 801 25                       @ lvgl/src/lv_widgets/lv_tabview.c:801:25
	str	r0, [sp, #8]
	.loc	10 802 13 is_stmt 1             @ lvgl/src/lv_widgets/lv_tabview.c:802:13
	b	.LBB27_16
.LBB27_14:
	.loc	10 804 49                       @ lvgl/src/lv_widgets/lv_tabview.c:804:49
	ldr	r0, [sp, #12]
	.loc	10 804 54 is_stmt 0             @ lvgl/src/lv_widgets/lv_tabview.c:804:54
	ldr	r0, [r0, #4]
	movs	r1, #0
	.loc	10 804 27                       @ lvgl/src/lv_widgets/lv_tabview.c:804:27
	bl	lv_obj_get_style_list
	.loc	10 804 25                       @ lvgl/src/lv_widgets/lv_tabview.c:804:25
	str	r0, [sp, #8]
	.loc	10 805 13 is_stmt 1             @ lvgl/src/lv_widgets/lv_tabview.c:805:13
	b	.LBB27_16
.LBB27_15:
	.loc	10 0 13 is_stmt 0               @ lvgl/src/lv_widgets/lv_tabview.c:0:13
	movs	r0, #0
	.loc	10 807 25 is_stmt 1             @ lvgl/src/lv_widgets/lv_tabview.c:807:25
	str	r0, [sp, #8]
	.loc	10 808 5                        @ lvgl/src/lv_widgets/lv_tabview.c:808:5
	b	.LBB27_16
.Ltmp406:
.LBB27_16:
	.loc	10 810 12                       @ lvgl/src/lv_widgets/lv_tabview.c:810:12
	ldr	r0, [sp, #8]
	.loc	10 810 5 is_stmt 0              @ lvgl/src/lv_widgets/lv_tabview.c:810:5
	add	sp, #24
	pop	{r7, pc}
.Ltmp407:
.Lfunc_end27:
	.size	lv_tabview_get_style, .Lfunc_end27-lv_tabview_get_style
	.cfi_endproc
	.cantunwind
	.fnend
                                        @ -- End function
	.section	.text.lv_area_get_width,"ax",%progbits
	.p2align	3                               @ -- Begin function lv_area_get_width
	.type	lv_area_get_width,%function
	.code	16                              @ @lv_area_get_width
	.thumb_func
lv_area_get_width:
.Lfunc_begin28:
	.loc	6 108 0 is_stmt 1               @ lvgl/src/lv_widgets/../lv_core/../lv_hal/../lv_misc/lv_area.h:108:0
	.fnstart
	.cfi_startproc
@ %bb.0:
	.pad	#4
	sub	sp, #4
	.cfi_def_cfa_offset 4
	str	r0, [sp]
.Ltmp408:
	.loc	6 109 25 prologue_end           @ lvgl/src/lv_widgets/../lv_core/../lv_hal/../lv_misc/lv_area.h:109:25
	ldr	r1, [sp]
	ldrh	r0, [r1, #4]
	.loc	6 109 38 is_stmt 0              @ lvgl/src/lv_widgets/../lv_core/../lv_hal/../lv_misc/lv_area.h:109:38
	ldrh	r1, [r1]
	.loc	6 109 36                        @ lvgl/src/lv_widgets/../lv_core/../lv_hal/../lv_misc/lv_area.h:109:36
	subs	r0, r0, r1
	.loc	6 109 49                        @ lvgl/src/lv_widgets/../lv_core/../lv_hal/../lv_misc/lv_area.h:109:49
	adds	r0, #1
	.loc	6 109 5                         @ lvgl/src/lv_widgets/../lv_core/../lv_hal/../lv_misc/lv_area.h:109:5
	sxth	r0, r0
	add	sp, #4
	bx	lr
.Ltmp409:
.Lfunc_end28:
	.size	lv_area_get_width, .Lfunc_end28-lv_area_get_width
	.cfi_endproc
	.cantunwind
	.fnend
                                        @ -- End function
	.section	.text.lv_area_get_height,"ax",%progbits
	.p2align	3                               @ -- Begin function lv_area_get_height
	.type	lv_area_get_height,%function
	.code	16                              @ @lv_area_get_height
	.thumb_func
lv_area_get_height:
.Lfunc_begin29:
	.loc	6 118 0 is_stmt 1               @ lvgl/src/lv_widgets/../lv_core/../lv_hal/../lv_misc/lv_area.h:118:0
	.fnstart
	.cfi_startproc
@ %bb.0:
	.pad	#4
	sub	sp, #4
	.cfi_def_cfa_offset 4
	str	r0, [sp]
.Ltmp410:
	.loc	6 119 25 prologue_end           @ lvgl/src/lv_widgets/../lv_core/../lv_hal/../lv_misc/lv_area.h:119:25
	ldr	r1, [sp]
	ldrh	r0, [r1, #6]
	.loc	6 119 38 is_stmt 0              @ lvgl/src/lv_widgets/../lv_core/../lv_hal/../lv_misc/lv_area.h:119:38
	ldrh	r1, [r1, #2]
	.loc	6 119 36                        @ lvgl/src/lv_widgets/../lv_core/../lv_hal/../lv_misc/lv_area.h:119:36
	subs	r0, r0, r1
	.loc	6 119 49                        @ lvgl/src/lv_widgets/../lv_core/../lv_hal/../lv_misc/lv_area.h:119:49
	adds	r0, #1
	.loc	6 119 5                         @ lvgl/src/lv_widgets/../lv_core/../lv_hal/../lv_misc/lv_area.h:119:5
	sxth	r0, r0
	add	sp, #4
	bx	lr
.Ltmp411:
.Lfunc_end29:
	.size	lv_area_get_height, .Lfunc_end29-lv_area_get_height
	.cfi_endproc
	.cantunwind
	.fnend
                                        @ -- End function
	.section	.text.refr_btns_size,"ax",%progbits
	.p2align	3                               @ -- Begin function refr_btns_size
	.type	refr_btns_size,%function
	.code	16                              @ @refr_btns_size
	.thumb_func
refr_btns_size:
.Lfunc_begin30:
	.loc	10 914 0 is_stmt 1              @ lvgl/src/lv_widgets/lv_tabview.c:914:0
	.fnstart
	.cfi_startproc
@ %bb.0:
	.save	{r7, lr}
	push	{r7, lr}
	.cfi_def_cfa_offset 8
	.cfi_offset lr, -4
	.cfi_offset r7, -8
	.pad	#48
	sub	sp, #48
	.cfi_def_cfa_offset 56
	str	r0, [sp, #44]
.Ltmp412:
	.loc	10 915 50 prologue_end          @ lvgl/src/lv_widgets/lv_tabview.c:915:50
	ldr	r0, [sp, #44]
	.loc	10 915 30 is_stmt 0             @ lvgl/src/lv_widgets/lv_tabview.c:915:30
	bl	lv_obj_get_ext_attr
	.loc	10 915 24                       @ lvgl/src/lv_widgets/lv_tabview.c:915:24
	str	r0, [sp, #40]
	.loc	10 917 60 is_stmt 1             @ lvgl/src/lv_widgets/lv_tabview.c:917:60
	ldr	r0, [sp, #44]
	movs	r1, #65
	.loc	10 917 34 is_stmt 0             @ lvgl/src/lv_widgets/lv_tabview.c:917:34
	str	r1, [sp, #4]                    @ 4-byte Spill
	bl	lv_obj_get_style_pad_left
	ldr	r1, [sp, #4]                    @ 4-byte Reload
	.loc	10 917 20                       @ lvgl/src/lv_widgets/lv_tabview.c:917:20
	strh.w	r0, [sp, #38]
	.loc	10 918 62 is_stmt 1             @ lvgl/src/lv_widgets/lv_tabview.c:918:62
	ldr	r0, [sp, #44]
	.loc	10 918 35 is_stmt 0             @ lvgl/src/lv_widgets/lv_tabview.c:918:35
	bl	lv_obj_get_style_pad_right
	ldr	r1, [sp, #4]                    @ 4-byte Reload
	.loc	10 918 20                       @ lvgl/src/lv_widgets/lv_tabview.c:918:20
	strh.w	r0, [sp, #36]
	.loc	10 919 58 is_stmt 1             @ lvgl/src/lv_widgets/lv_tabview.c:919:58
	ldr	r0, [sp, #44]
	.loc	10 919 33 is_stmt 0             @ lvgl/src/lv_widgets/lv_tabview.c:919:33
	bl	lv_obj_get_style_pad_top
	ldr	r1, [sp, #4]                    @ 4-byte Reload
	.loc	10 919 20                       @ lvgl/src/lv_widgets/lv_tabview.c:919:20
	strh.w	r0, [sp, #34]
	.loc	10 920 64 is_stmt 1             @ lvgl/src/lv_widgets/lv_tabview.c:920:64
	ldr	r0, [sp, #44]
	.loc	10 920 36 is_stmt 0             @ lvgl/src/lv_widgets/lv_tabview.c:920:36
	bl	lv_obj_get_style_pad_bottom
	.loc	10 920 20                       @ lvgl/src/lv_widgets/lv_tabview.c:920:20
	strh.w	r0, [sp, #32]
	.loc	10 922 57 is_stmt 1             @ lvgl/src/lv_widgets/lv_tabview.c:922:57
	ldr	r0, [sp, #44]
	movs	r1, #66
	.loc	10 922 31 is_stmt 0             @ lvgl/src/lv_widgets/lv_tabview.c:922:31
	str	r1, [sp, #8]                    @ 4-byte Spill
	bl	lv_obj_get_style_pad_left
	ldr	r1, [sp, #8]                    @ 4-byte Reload
	.loc	10 922 20                       @ lvgl/src/lv_widgets/lv_tabview.c:922:20
	strh.w	r0, [sp, #30]
	.loc	10 923 59 is_stmt 1             @ lvgl/src/lv_widgets/lv_tabview.c:923:59
	ldr	r0, [sp, #44]
	.loc	10 923 32 is_stmt 0             @ lvgl/src/lv_widgets/lv_tabview.c:923:32
	bl	lv_obj_get_style_pad_right
	ldr	r1, [sp, #8]                    @ 4-byte Reload
	.loc	10 923 20                       @ lvgl/src/lv_widgets/lv_tabview.c:923:20
	strh.w	r0, [sp, #28]
	.loc	10 924 55 is_stmt 1             @ lvgl/src/lv_widgets/lv_tabview.c:924:55
	ldr	r0, [sp, #44]
	.loc	10 924 30 is_stmt 0             @ lvgl/src/lv_widgets/lv_tabview.c:924:30
	bl	lv_obj_get_style_pad_top
	ldr	r1, [sp, #8]                    @ 4-byte Reload
	.loc	10 924 20                       @ lvgl/src/lv_widgets/lv_tabview.c:924:20
	strh.w	r0, [sp, #26]
	.loc	10 925 61 is_stmt 1             @ lvgl/src/lv_widgets/lv_tabview.c:925:61
	ldr	r0, [sp, #44]
	.loc	10 925 33 is_stmt 0             @ lvgl/src/lv_widgets/lv_tabview.c:925:33
	bl	lv_obj_get_style_pad_bottom
	ldr	r1, [sp, #8]                    @ 4-byte Reload
	.loc	10 925 20                       @ lvgl/src/lv_widgets/lv_tabview.c:925:20
	strh.w	r0, [sp, #24]
	.loc	10 927 57 is_stmt 1             @ lvgl/src/lv_widgets/lv_tabview.c:927:57
	ldr	r0, [sp, #44]
	.loc	10 927 30 is_stmt 0             @ lvgl/src/lv_widgets/lv_tabview.c:927:30
	bl	lv_obj_get_style_text_font
	.loc	10 927 23                       @ lvgl/src/lv_widgets/lv_tabview.c:927:23
	str	r0, [sp, #20]
	.loc	10 933 12 is_stmt 1             @ lvgl/src/lv_widgets/lv_tabview.c:933:12
	ldr	r0, [sp, #40]
	.loc	10 933 17 is_stmt 0             @ lvgl/src/lv_widgets/lv_tabview.c:933:17
	ldrb	r0, [r0, #26]
	.loc	10 933 12                       @ lvgl/src/lv_widgets/lv_tabview.c:933:12
	and	r0, r0, #7
	.loc	10 933 5                        @ lvgl/src/lv_widgets/lv_tabview.c:933:5
	mov	r1, r0
	str	r1, [sp, #12]                   @ 4-byte Spill
	cbz	r0, .LBB30_4
	b	.LBB30_1
.LBB30_1:
	ldr	r0, [sp, #12]                   @ 4-byte Reload
	subs	r0, #1
	cmp	r0, #2
	blo	.LBB30_5
	b	.LBB30_2
.LBB30_2:
	ldr	r0, [sp, #12]                   @ 4-byte Reload
	subs	r0, #3
	cmp	r0, #2
	blo	.LBB30_6
	b	.LBB30_3
.LBB30_3:
	.loc	10 933 27                       @ lvgl/src/lv_widgets/lv_tabview.c:933:27
	b	.LBB30_4
.LBB30_4:
	.loc	10 0 27                         @ lvgl/src/lv_widgets/lv_tabview.c:0:27
	movs	r0, #0
.Ltmp413:
	.loc	10 936 20 is_stmt 1             @ lvgl/src/lv_widgets/lv_tabview.c:936:20
	strh.w	r0, [sp, #18]
	.loc	10 937 20                       @ lvgl/src/lv_widgets/lv_tabview.c:937:20
	strh.w	r0, [sp, #16]
	.loc	10 938 31                       @ lvgl/src/lv_widgets/lv_tabview.c:938:31
	ldr	r0, [sp, #40]
	.loc	10 938 36 is_stmt 0             @ lvgl/src/lv_widgets/lv_tabview.c:938:36
	ldr	r0, [r0]
	movs	r1, #1
	.loc	10 938 13                       @ lvgl/src/lv_widgets/lv_tabview.c:938:13
	bl	lv_obj_set_hidden
	.loc	10 939 13 is_stmt 1             @ lvgl/src/lv_widgets/lv_tabview.c:939:13
	b	.LBB30_7
.LBB30_5:
	.loc	10 942 31                       @ lvgl/src/lv_widgets/lv_tabview.c:942:31
	ldr	r0, [sp, #40]
	.loc	10 942 36 is_stmt 0             @ lvgl/src/lv_widgets/lv_tabview.c:942:36
	ldr	r0, [r0]
	movs	r1, #0
	.loc	10 942 13                       @ lvgl/src/lv_widgets/lv_tabview.c:942:13
	bl	lv_obj_set_hidden
	.loc	10 943 46 is_stmt 1             @ lvgl/src/lv_widgets/lv_tabview.c:943:46
	ldr	r0, [sp, #20]
	.loc	10 943 22 is_stmt 0             @ lvgl/src/lv_widgets/lv_tabview.c:943:22
	bl	lv_font_get_line_height
	.loc	10 943 54                       @ lvgl/src/lv_widgets/lv_tabview.c:943:54
	ldrh.w	r1, [sp, #26]
	.loc	10 943 52                       @ lvgl/src/lv_widgets/lv_tabview.c:943:52
	add	r0, r1
	.loc	10 943 64                       @ lvgl/src/lv_widgets/lv_tabview.c:943:64
	ldrh.w	r1, [sp, #24]
	.loc	10 943 62                       @ lvgl/src/lv_widgets/lv_tabview.c:943:62
	add	r0, r1
	.loc	10 943 77                       @ lvgl/src/lv_widgets/lv_tabview.c:943:77
	ldrh.w	r1, [sp, #34]
	.loc	10 943 75                       @ lvgl/src/lv_widgets/lv_tabview.c:943:75
	add	r0, r1
	.loc	10 943 90                       @ lvgl/src/lv_widgets/lv_tabview.c:943:90
	ldrh.w	r1, [sp, #32]
	.loc	10 943 88                       @ lvgl/src/lv_widgets/lv_tabview.c:943:88
	add	r0, r1
	.loc	10 943 20                       @ lvgl/src/lv_widgets/lv_tabview.c:943:20
	strh.w	r0, [sp, #16]
	.loc	10 944 39 is_stmt 1             @ lvgl/src/lv_widgets/lv_tabview.c:944:39
	ldr	r0, [sp, #44]
	.loc	10 944 22 is_stmt 0             @ lvgl/src/lv_widgets/lv_tabview.c:944:22
	bl	lv_obj_get_width
	.loc	10 944 20                       @ lvgl/src/lv_widgets/lv_tabview.c:944:20
	strh.w	r0, [sp, #18]
	.loc	10 946 13 is_stmt 1             @ lvgl/src/lv_widgets/lv_tabview.c:946:13
	b	.LBB30_7
.LBB30_6:
	.loc	10 949 31                       @ lvgl/src/lv_widgets/lv_tabview.c:949:31
	ldr	r0, [sp, #40]
	.loc	10 949 36 is_stmt 0             @ lvgl/src/lv_widgets/lv_tabview.c:949:36
	ldr	r0, [r0]
	movs	r1, #0
	.loc	10 949 13                       @ lvgl/src/lv_widgets/lv_tabview.c:949:13
	str	r1, [sp]                        @ 4-byte Spill
	bl	lv_obj_set_hidden
	ldr	r2, [sp]                        @ 4-byte Reload
	.loc	10 950 46 is_stmt 1             @ lvgl/src/lv_widgets/lv_tabview.c:950:46
	ldr	r0, [sp, #20]
	movs	r1, #65
	.loc	10 950 22 is_stmt 0             @ lvgl/src/lv_widgets/lv_tabview.c:950:22
	bl	lv_font_get_glyph_width
	.loc	10 951 22 is_stmt 1             @ lvgl/src/lv_widgets/lv_tabview.c:951:22
	ldrh.w	r1, [sp, #30]
	.loc	10 950 63                       @ lvgl/src/lv_widgets/lv_tabview.c:950:63
	add	r0, r1
	.loc	10 951 33                       @ lvgl/src/lv_widgets/lv_tabview.c:951:33
	ldrh.w	r1, [sp, #28]
	.loc	10 951 31 is_stmt 0             @ lvgl/src/lv_widgets/lv_tabview.c:951:31
	add	r0, r1
	.loc	10 951 45                       @ lvgl/src/lv_widgets/lv_tabview.c:951:45
	ldrh.w	r1, [sp, #38]
	.loc	10 951 43                       @ lvgl/src/lv_widgets/lv_tabview.c:951:43
	add	r0, r1
	.loc	10 951 59                       @ lvgl/src/lv_widgets/lv_tabview.c:951:59
	ldrh.w	r1, [sp, #36]
	.loc	10 951 57                       @ lvgl/src/lv_widgets/lv_tabview.c:951:57
	add	r0, r1
	.loc	10 950 20 is_stmt 1             @ lvgl/src/lv_widgets/lv_tabview.c:950:20
	strh.w	r0, [sp, #18]
	.loc	10 952 40                       @ lvgl/src/lv_widgets/lv_tabview.c:952:40
	ldr	r0, [sp, #44]
	.loc	10 952 22 is_stmt 0             @ lvgl/src/lv_widgets/lv_tabview.c:952:22
	bl	lv_obj_get_height
	.loc	10 952 20                       @ lvgl/src/lv_widgets/lv_tabview.c:952:20
	strh.w	r0, [sp, #16]
	.loc	10 953 13 is_stmt 1             @ lvgl/src/lv_widgets/lv_tabview.c:953:13
	b	.LBB30_7
.Ltmp414:
.LBB30_7:
	.loc	10 956 21                       @ lvgl/src/lv_widgets/lv_tabview.c:956:21
	ldr	r0, [sp, #40]
	.loc	10 956 26 is_stmt 0             @ lvgl/src/lv_widgets/lv_tabview.c:956:26
	ldr	r0, [r0]
	.loc	10 956 32                       @ lvgl/src/lv_widgets/lv_tabview.c:956:32
	ldrsh.w	r1, [sp, #18]
	.loc	10 956 40                       @ lvgl/src/lv_widgets/lv_tabview.c:956:40
	ldrsh.w	r2, [sp, #16]
	.loc	10 956 5                        @ lvgl/src/lv_widgets/lv_tabview.c:956:5
	bl	lv_obj_set_size
	.loc	10 957 1 is_stmt 1              @ lvgl/src/lv_widgets/lv_tabview.c:957:1
	add	sp, #48
	pop	{r7, pc}
.Ltmp415:
.Lfunc_end30:
	.size	refr_btns_size, .Lfunc_end30-refr_btns_size
	.cfi_endproc
	.cantunwind
	.fnend
                                        @ -- End function
	.section	.text.refr_content_size,"ax",%progbits
	.p2align	3                               @ -- Begin function refr_content_size
	.type	refr_content_size,%function
	.code	16                              @ @refr_content_size
	.thumb_func
refr_content_size:
.Lfunc_begin31:
	.loc	10 960 0                        @ lvgl/src/lv_widgets/lv_tabview.c:960:0
	.fnstart
	.cfi_startproc
@ %bb.0:
	.save	{r7, lr}
	push	{r7, lr}
	.cfi_def_cfa_offset 8
	.cfi_offset lr, -4
	.cfi_offset r7, -8
	.pad	#40
	sub	sp, #40
	.cfi_def_cfa_offset 48
	str	r0, [sp, #36]
.Ltmp416:
	.loc	10 961 50 prologue_end          @ lvgl/src/lv_widgets/lv_tabview.c:961:50
	ldr	r0, [sp, #36]
	.loc	10 961 30 is_stmt 0             @ lvgl/src/lv_widgets/lv_tabview.c:961:30
	bl	lv_obj_get_ext_attr
	.loc	10 961 24                       @ lvgl/src/lv_widgets/lv_tabview.c:961:24
	str	r0, [sp, #32]
	.loc	10 965 12 is_stmt 1             @ lvgl/src/lv_widgets/lv_tabview.c:965:12
	ldr	r0, [sp, #32]
	.loc	10 965 17 is_stmt 0             @ lvgl/src/lv_widgets/lv_tabview.c:965:17
	ldrb	r0, [r0, #26]
	.loc	10 965 12                       @ lvgl/src/lv_widgets/lv_tabview.c:965:12
	and	r0, r0, #7
	.loc	10 965 5                        @ lvgl/src/lv_widgets/lv_tabview.c:965:5
	mov	r1, r0
	str	r1, [sp, #12]                   @ 4-byte Spill
	cbz	r0, .LBB31_4
	b	.LBB31_1
.LBB31_1:
	ldr	r0, [sp, #12]                   @ 4-byte Reload
	subs	r0, #1
	cmp	r0, #2
	blo	.LBB31_5
	b	.LBB31_2
.LBB31_2:
	ldr	r0, [sp, #12]                   @ 4-byte Reload
	subs	r0, #3
	cmp	r0, #2
	blo	.LBB31_6
	b	.LBB31_3
.LBB31_3:
	.loc	10 965 27                       @ lvgl/src/lv_widgets/lv_tabview.c:965:27
	b	.LBB31_4
.LBB31_4:
.Ltmp417:
	.loc	10 968 39 is_stmt 1             @ lvgl/src/lv_widgets/lv_tabview.c:968:39
	ldr	r0, [sp, #36]
	.loc	10 968 22 is_stmt 0             @ lvgl/src/lv_widgets/lv_tabview.c:968:22
	bl	lv_obj_get_width
	.loc	10 968 20                       @ lvgl/src/lv_widgets/lv_tabview.c:968:20
	strh.w	r0, [sp, #30]
	.loc	10 969 40 is_stmt 1             @ lvgl/src/lv_widgets/lv_tabview.c:969:40
	ldr	r0, [sp, #36]
	.loc	10 969 22 is_stmt 0             @ lvgl/src/lv_widgets/lv_tabview.c:969:22
	bl	lv_obj_get_height
	.loc	10 969 20                       @ lvgl/src/lv_widgets/lv_tabview.c:969:20
	strh.w	r0, [sp, #28]
	.loc	10 970 13 is_stmt 1             @ lvgl/src/lv_widgets/lv_tabview.c:970:13
	b	.LBB31_7
.LBB31_5:
	.loc	10 973 39                       @ lvgl/src/lv_widgets/lv_tabview.c:973:39
	ldr	r0, [sp, #36]
	.loc	10 973 22 is_stmt 0             @ lvgl/src/lv_widgets/lv_tabview.c:973:22
	bl	lv_obj_get_width
	.loc	10 973 20                       @ lvgl/src/lv_widgets/lv_tabview.c:973:20
	strh.w	r0, [sp, #30]
	.loc	10 974 40 is_stmt 1             @ lvgl/src/lv_widgets/lv_tabview.c:974:40
	ldr	r0, [sp, #36]
	.loc	10 974 22 is_stmt 0             @ lvgl/src/lv_widgets/lv_tabview.c:974:22
	bl	lv_obj_get_height
	.loc	10 974 69                       @ lvgl/src/lv_widgets/lv_tabview.c:974:69
	str	r0, [sp, #8]                    @ 4-byte Spill
	ldr	r0, [sp, #32]
	.loc	10 974 74                       @ lvgl/src/lv_widgets/lv_tabview.c:974:74
	ldr	r0, [r0]
	.loc	10 974 51                       @ lvgl/src/lv_widgets/lv_tabview.c:974:51
	bl	lv_obj_get_height
	mov	r1, r0
	.loc	10 974 49                       @ lvgl/src/lv_widgets/lv_tabview.c:974:49
	ldr	r0, [sp, #8]                    @ 4-byte Reload
	subs	r0, r0, r1
	.loc	10 974 20                       @ lvgl/src/lv_widgets/lv_tabview.c:974:20
	strh.w	r0, [sp, #28]
	.loc	10 975 13 is_stmt 1             @ lvgl/src/lv_widgets/lv_tabview.c:975:13
	b	.LBB31_7
.LBB31_6:
	.loc	10 978 39                       @ lvgl/src/lv_widgets/lv_tabview.c:978:39
	ldr	r0, [sp, #36]
	.loc	10 978 22 is_stmt 0             @ lvgl/src/lv_widgets/lv_tabview.c:978:22
	bl	lv_obj_get_width
	.loc	10 978 67                       @ lvgl/src/lv_widgets/lv_tabview.c:978:67
	str	r0, [sp, #4]                    @ 4-byte Spill
	ldr	r0, [sp, #32]
	.loc	10 978 72                       @ lvgl/src/lv_widgets/lv_tabview.c:978:72
	ldr	r0, [r0]
	.loc	10 978 50                       @ lvgl/src/lv_widgets/lv_tabview.c:978:50
	bl	lv_obj_get_width
	mov	r1, r0
	.loc	10 978 48                       @ lvgl/src/lv_widgets/lv_tabview.c:978:48
	ldr	r0, [sp, #4]                    @ 4-byte Reload
	subs	r0, r0, r1
	.loc	10 978 20                       @ lvgl/src/lv_widgets/lv_tabview.c:978:20
	strh.w	r0, [sp, #30]
	.loc	10 979 40 is_stmt 1             @ lvgl/src/lv_widgets/lv_tabview.c:979:40
	ldr	r0, [sp, #36]
	.loc	10 979 22 is_stmt 0             @ lvgl/src/lv_widgets/lv_tabview.c:979:22
	bl	lv_obj_get_height
	.loc	10 979 20                       @ lvgl/src/lv_widgets/lv_tabview.c:979:20
	strh.w	r0, [sp, #28]
	.loc	10 980 13 is_stmt 1             @ lvgl/src/lv_widgets/lv_tabview.c:980:13
	b	.LBB31_7
.Ltmp418:
.LBB31_7:
	.loc	10 983 21                       @ lvgl/src/lv_widgets/lv_tabview.c:983:21
	ldr	r0, [sp, #32]
	.loc	10 983 26 is_stmt 0             @ lvgl/src/lv_widgets/lv_tabview.c:983:26
	ldr	r0, [r0, #8]
	.loc	10 983 35                       @ lvgl/src/lv_widgets/lv_tabview.c:983:35
	ldrsh.w	r1, [sp, #30]
	.loc	10 983 43                       @ lvgl/src/lv_widgets/lv_tabview.c:983:43
	ldrsh.w	r2, [sp, #28]
	.loc	10 983 5                        @ lvgl/src/lv_widgets/lv_tabview.c:983:5
	bl	lv_obj_set_size
	.loc	10 986 54 is_stmt 1             @ lvgl/src/lv_widgets/lv_tabview.c:986:54
	ldr	r0, [sp, #36]
	movs	r1, #64
	.loc	10 986 29 is_stmt 0             @ lvgl/src/lv_widgets/lv_tabview.c:986:29
	str	r1, [sp]                        @ 4-byte Spill
	bl	lv_obj_get_style_pad_top
	ldr	r1, [sp]                        @ 4-byte Reload
	.loc	10 986 20                       @ lvgl/src/lv_widgets/lv_tabview.c:986:20
	strh.w	r0, [sp, #26]
	.loc	10 987 60 is_stmt 1             @ lvgl/src/lv_widgets/lv_tabview.c:987:60
	ldr	r0, [sp, #36]
	.loc	10 987 32 is_stmt 0             @ lvgl/src/lv_widgets/lv_tabview.c:987:32
	bl	lv_obj_get_style_pad_bottom
	.loc	10 987 20                       @ lvgl/src/lv_widgets/lv_tabview.c:987:20
	strh.w	r0, [sp, #24]
	.loc	10 988 15 is_stmt 1             @ lvgl/src/lv_widgets/lv_tabview.c:988:15
	ldrh.w	r0, [sp, #26]
	.loc	10 988 24 is_stmt 0             @ lvgl/src/lv_widgets/lv_tabview.c:988:24
	ldrh.w	r1, [sp, #24]
	.loc	10 988 22                       @ lvgl/src/lv_widgets/lv_tabview.c:988:22
	add	r1, r0
	.loc	10 988 12                       @ lvgl/src/lv_widgets/lv_tabview.c:988:12
	ldrh.w	r0, [sp, #28]
	subs	r0, r0, r1
	strh.w	r0, [sp, #28]
	.loc	10 989 54 is_stmt 1             @ lvgl/src/lv_widgets/lv_tabview.c:989:54
	ldr	r0, [sp, #32]
	.loc	10 989 59 is_stmt 0             @ lvgl/src/lv_widgets/lv_tabview.c:989:59
	ldr	r0, [r0, #8]
	.loc	10 989 31                       @ lvgl/src/lv_widgets/lv_tabview.c:989:31
	bl	lv_page_get_scrollable
	.loc	10 989 16                       @ lvgl/src/lv_widgets/lv_tabview.c:989:16
	str	r0, [sp, #20]
	.loc	10 990 41 is_stmt 1             @ lvgl/src/lv_widgets/lv_tabview.c:990:41
	ldr	r0, [sp, #20]
	movs	r1, #0
	.loc	10 990 24 is_stmt 0             @ lvgl/src/lv_widgets/lv_tabview.c:990:24
	bl	lv_obj_get_child
	.loc	10 990 16                       @ lvgl/src/lv_widgets/lv_tabview.c:990:16
	str	r0, [sp, #16]
	.loc	10 991 5 is_stmt 1              @ lvgl/src/lv_widgets/lv_tabview.c:991:5
	b	.LBB31_8
.LBB31_8:                               @ =>This Inner Loop Header: Depth=1
	.loc	10 991 11 is_stmt 0             @ lvgl/src/lv_widgets/lv_tabview.c:991:11
	ldr	r0, [sp, #16]
	.loc	10 991 5                        @ lvgl/src/lv_widgets/lv_tabview.c:991:5
	cbz	r0, .LBB31_12
	b	.LBB31_9
.LBB31_9:                               @   in Loop: Header=BB31_8 Depth=1
.Ltmp419:
	.loc	10 993 33 is_stmt 1             @ lvgl/src/lv_widgets/lv_tabview.c:993:33
	ldr	r0, [sp, #16]
	.loc	10 993 12 is_stmt 0             @ lvgl/src/lv_widgets/lv_tabview.c:993:12
	bl	lv_obj_get_signal_cb
	.loc	10 993 43                       @ lvgl/src/lv_widgets/lv_tabview.c:993:43
	movw	r1, :lower16:page_signal
	movt	r1, :upper16:page_signal
	ldr	r1, [r1]
.Ltmp420:
	.loc	10 993 12                       @ lvgl/src/lv_widgets/lv_tabview.c:993:12
	cmp	r0, r1
	bne	.LBB31_11
	b	.LBB31_10
.LBB31_10:                              @   in Loop: Header=BB31_8 Depth=1
.Ltmp421:
	.loc	10 994 29 is_stmt 1             @ lvgl/src/lv_widgets/lv_tabview.c:994:29
	ldr	r0, [sp, #16]
	.loc	10 994 36 is_stmt 0             @ lvgl/src/lv_widgets/lv_tabview.c:994:36
	ldrsh.w	r1, [sp, #30]
	.loc	10 994 44                       @ lvgl/src/lv_widgets/lv_tabview.c:994:44
	ldrsh.w	r2, [sp, #28]
	.loc	10 994 13                       @ lvgl/src/lv_widgets/lv_tabview.c:994:13
	bl	lv_obj_set_size
	.loc	10 995 9 is_stmt 1              @ lvgl/src/lv_widgets/lv_tabview.c:995:9
	b	.LBB31_11
.Ltmp422:
.LBB31_11:                              @   in Loop: Header=BB31_8 Depth=1
	.loc	10 996 34                       @ lvgl/src/lv_widgets/lv_tabview.c:996:34
	ldr	r0, [sp, #20]
	.loc	10 996 48 is_stmt 0             @ lvgl/src/lv_widgets/lv_tabview.c:996:48
	ldr	r1, [sp, #16]
	.loc	10 996 17                       @ lvgl/src/lv_widgets/lv_tabview.c:996:17
	bl	lv_obj_get_child
	.loc	10 996 15                       @ lvgl/src/lv_widgets/lv_tabview.c:996:15
	str	r0, [sp, #16]
.Ltmp423:
	.loc	10 991 5 is_stmt 1              @ lvgl/src/lv_widgets/lv_tabview.c:991:5
	b	.LBB31_8
.LBB31_12:
	.loc	10 998 1                        @ lvgl/src/lv_widgets/lv_tabview.c:998:1
	add	sp, #40
	pop	{r7, pc}
.Ltmp424:
.Lfunc_end31:
	.size	refr_content_size, .Lfunc_end31-refr_content_size
	.cfi_endproc
	.cantunwind
	.fnend
                                        @ -- End function
	.section	.text.refr_indic_size,"ax",%progbits
	.p2align	3                               @ -- Begin function refr_indic_size
	.type	refr_indic_size,%function
	.code	16                              @ @refr_indic_size
	.thumb_func
refr_indic_size:
.Lfunc_begin32:
	.loc	10 866 0                        @ lvgl/src/lv_widgets/lv_tabview.c:866:0
	.fnstart
	.cfi_startproc
@ %bb.0:
	.save	{r7, lr}
	push	{r7, lr}
	.cfi_def_cfa_offset 8
	.cfi_offset lr, -4
	.cfi_offset r7, -8
	.pad	#24
	sub	sp, #24
	.cfi_def_cfa_offset 32
	str	r0, [sp, #20]
.Ltmp425:
	.loc	10 867 50 prologue_end          @ lvgl/src/lv_widgets/lv_tabview.c:867:50
	ldr	r0, [sp, #20]
	.loc	10 867 30 is_stmt 0             @ lvgl/src/lv_widgets/lv_tabview.c:867:30
	bl	lv_obj_get_ext_attr
	.loc	10 867 24                       @ lvgl/src/lv_widgets/lv_tabview.c:867:24
	str	r0, [sp, #16]
	.loc	10 868 57 is_stmt 1             @ lvgl/src/lv_widgets/lv_tabview.c:868:57
	ldr	r0, [sp, #16]
	.loc	10 868 62 is_stmt 0             @ lvgl/src/lv_widgets/lv_tabview.c:868:62
	ldr	r0, [r0]
	.loc	10 868 37                       @ lvgl/src/lv_widgets/lv_tabview.c:868:37
	bl	lv_obj_get_ext_attr
	.loc	10 868 26                       @ lvgl/src/lv_widgets/lv_tabview.c:868:26
	str	r0, [sp, #12]
	.loc	10 870 51 is_stmt 1             @ lvgl/src/lv_widgets/lv_tabview.c:870:51
	ldr	r0, [sp, #20]
	movs	r1, #67
	.loc	10 870 29 is_stmt 0             @ lvgl/src/lv_widgets/lv_tabview.c:870:29
	bl	lv_obj_get_style_size
	.loc	10 870 16                       @ lvgl/src/lv_widgets/lv_tabview.c:870:16
	strh.w	r0, [sp, #10]
	.loc	10 876 12 is_stmt 1             @ lvgl/src/lv_widgets/lv_tabview.c:876:12
	ldr	r0, [sp, #16]
	.loc	10 876 17 is_stmt 0             @ lvgl/src/lv_widgets/lv_tabview.c:876:17
	ldrb	r0, [r0, #26]
	.loc	10 876 12                       @ lvgl/src/lv_widgets/lv_tabview.c:876:12
	and	r0, r0, #7
	.loc	10 876 5                        @ lvgl/src/lv_widgets/lv_tabview.c:876:5
	mov	r1, r0
	str	r1, [sp]                        @ 4-byte Spill
	cbz	r0, .LBB32_4
	b	.LBB32_1
.LBB32_1:
	ldr	r0, [sp]                        @ 4-byte Reload
	subs	r0, #1
	cmp	r0, #2
	blo	.LBB32_5
	b	.LBB32_2
.LBB32_2:
	ldr	r0, [sp]                        @ 4-byte Reload
	subs	r0, #3
	cmp	r0, #2
	blo	.LBB32_9
	b	.LBB32_3
.LBB32_3:
	.loc	10 876 27                       @ lvgl/src/lv_widgets/lv_tabview.c:876:27
	b	.LBB32_4
.LBB32_4:
.Ltmp426:
	.loc	10 879 31 is_stmt 1             @ lvgl/src/lv_widgets/lv_tabview.c:879:31
	ldr	r0, [sp, #16]
	.loc	10 879 36 is_stmt 0             @ lvgl/src/lv_widgets/lv_tabview.c:879:36
	ldr	r0, [r0, #4]
	movs	r1, #1
	.loc	10 879 13                       @ lvgl/src/lv_widgets/lv_tabview.c:879:13
	bl	lv_obj_set_hidden
	movs	r0, #0
	.loc	10 880 21 is_stmt 1             @ lvgl/src/lv_widgets/lv_tabview.c:880:21
	strh.w	r0, [sp, #8]
	.loc	10 881 21                       @ lvgl/src/lv_widgets/lv_tabview.c:881:21
	strh.w	r0, [sp, #6]
	.loc	10 882 13                       @ lvgl/src/lv_widgets/lv_tabview.c:882:13
	b	.LBB32_13
.LBB32_5:
	.loc	10 885 31                       @ lvgl/src/lv_widgets/lv_tabview.c:885:31
	ldr	r0, [sp, #16]
	.loc	10 885 36 is_stmt 0             @ lvgl/src/lv_widgets/lv_tabview.c:885:36
	ldr	r0, [r0, #4]
	movs	r1, #0
	.loc	10 885 13                       @ lvgl/src/lv_widgets/lv_tabview.c:885:13
	bl	lv_obj_set_hidden
.Ltmp427:
	.loc	10 886 16 is_stmt 1             @ lvgl/src/lv_widgets/lv_tabview.c:886:16
	ldr	r0, [sp, #16]
	.loc	10 886 21 is_stmt 0             @ lvgl/src/lv_widgets/lv_tabview.c:886:21
	ldrh	r0, [r0, #22]
.Ltmp428:
	.loc	10 886 16                       @ lvgl/src/lv_widgets/lv_tabview.c:886:16
	cbz	r0, .LBB32_7
	b	.LBB32_6
.LBB32_6:
.Ltmp429:
	.loc	10 887 27 is_stmt 1             @ lvgl/src/lv_widgets/lv_tabview.c:887:27
	ldrh.w	r0, [sp, #10]
	.loc	10 887 25 is_stmt 0             @ lvgl/src/lv_widgets/lv_tabview.c:887:25
	strh.w	r0, [sp, #6]
	.loc	10 888 46 is_stmt 1             @ lvgl/src/lv_widgets/lv_tabview.c:888:46
	ldr	r0, [sp, #12]
	.loc	10 888 56 is_stmt 0             @ lvgl/src/lv_widgets/lv_tabview.c:888:56
	ldr	r0, [r0, #4]
	.loc	10 888 27                       @ lvgl/src/lv_widgets/lv_tabview.c:888:27
	bl	lv_area_get_width
	.loc	10 888 25                       @ lvgl/src/lv_widgets/lv_tabview.c:888:25
	strh.w	r0, [sp, #8]
	.loc	10 889 13 is_stmt 1             @ lvgl/src/lv_widgets/lv_tabview.c:889:13
	b	.LBB32_8
.Ltmp430:
.LBB32_7:
	.loc	10 0 13 is_stmt 0               @ lvgl/src/lv_widgets/lv_tabview.c:0:13
	movs	r0, #0
.Ltmp431:
	.loc	10 891 25 is_stmt 1             @ lvgl/src/lv_widgets/lv_tabview.c:891:25
	strh.w	r0, [sp, #8]
	.loc	10 892 25                       @ lvgl/src/lv_widgets/lv_tabview.c:892:25
	strh.w	r0, [sp, #6]
	b	.LBB32_8
.Ltmp432:
.LBB32_8:
	.loc	10 894 13                       @ lvgl/src/lv_widgets/lv_tabview.c:894:13
	b	.LBB32_13
.LBB32_9:
	.loc	10 897 31                       @ lvgl/src/lv_widgets/lv_tabview.c:897:31
	ldr	r0, [sp, #16]
	.loc	10 897 36 is_stmt 0             @ lvgl/src/lv_widgets/lv_tabview.c:897:36
	ldr	r0, [r0, #4]
	movs	r1, #0
	.loc	10 897 13                       @ lvgl/src/lv_widgets/lv_tabview.c:897:13
	bl	lv_obj_set_hidden
.Ltmp433:
	.loc	10 898 16 is_stmt 1             @ lvgl/src/lv_widgets/lv_tabview.c:898:16
	ldr	r0, [sp, #16]
	.loc	10 898 21 is_stmt 0             @ lvgl/src/lv_widgets/lv_tabview.c:898:21
	ldrh	r0, [r0, #22]
.Ltmp434:
	.loc	10 898 16                       @ lvgl/src/lv_widgets/lv_tabview.c:898:16
	cbz	r0, .LBB32_11
	b	.LBB32_10
.LBB32_10:
.Ltmp435:
	.loc	10 899 27 is_stmt 1             @ lvgl/src/lv_widgets/lv_tabview.c:899:27
	ldrh.w	r0, [sp, #10]
	.loc	10 899 25 is_stmt 0             @ lvgl/src/lv_widgets/lv_tabview.c:899:25
	strh.w	r0, [sp, #8]
	.loc	10 900 47 is_stmt 1             @ lvgl/src/lv_widgets/lv_tabview.c:900:47
	ldr	r0, [sp, #12]
	.loc	10 900 57 is_stmt 0             @ lvgl/src/lv_widgets/lv_tabview.c:900:57
	ldr	r0, [r0, #4]
	.loc	10 900 27                       @ lvgl/src/lv_widgets/lv_tabview.c:900:27
	bl	lv_area_get_height
	.loc	10 900 25                       @ lvgl/src/lv_widgets/lv_tabview.c:900:25
	strh.w	r0, [sp, #6]
	.loc	10 901 13 is_stmt 1             @ lvgl/src/lv_widgets/lv_tabview.c:901:13
	b	.LBB32_12
.Ltmp436:
.LBB32_11:
	.loc	10 0 13 is_stmt 0               @ lvgl/src/lv_widgets/lv_tabview.c:0:13
	movs	r0, #0
.Ltmp437:
	.loc	10 903 25 is_stmt 1             @ lvgl/src/lv_widgets/lv_tabview.c:903:25
	strh.w	r0, [sp, #8]
	.loc	10 904 25                       @ lvgl/src/lv_widgets/lv_tabview.c:904:25
	strh.w	r0, [sp, #6]
	b	.LBB32_12
.Ltmp438:
.LBB32_12:
	.loc	10 906 13                       @ lvgl/src/lv_widgets/lv_tabview.c:906:13
	b	.LBB32_13
.Ltmp439:
.LBB32_13:
	.loc	10 909 22                       @ lvgl/src/lv_widgets/lv_tabview.c:909:22
	ldr	r0, [sp, #16]
	.loc	10 909 27 is_stmt 0             @ lvgl/src/lv_widgets/lv_tabview.c:909:27
	ldr	r0, [r0, #4]
	.loc	10 909 34                       @ lvgl/src/lv_widgets/lv_tabview.c:909:34
	ldrsh.w	r1, [sp, #8]
	.loc	10 909 5                        @ lvgl/src/lv_widgets/lv_tabview.c:909:5
	bl	lv_obj_set_width
	.loc	10 910 23 is_stmt 1             @ lvgl/src/lv_widgets/lv_tabview.c:910:23
	ldr	r0, [sp, #16]
	.loc	10 910 28 is_stmt 0             @ lvgl/src/lv_widgets/lv_tabview.c:910:28
	ldr	r0, [r0, #4]
	.loc	10 910 35                       @ lvgl/src/lv_widgets/lv_tabview.c:910:35
	ldrsh.w	r1, [sp, #6]
	.loc	10 910 5                        @ lvgl/src/lv_widgets/lv_tabview.c:910:5
	bl	lv_obj_set_height
	.loc	10 911 1 is_stmt 1              @ lvgl/src/lv_widgets/lv_tabview.c:911:1
	add	sp, #24
	pop	{r7, pc}
.Ltmp440:
.Lfunc_end32:
	.size	refr_indic_size, .Lfunc_end32-refr_indic_size
	.cfi_endproc
	.cantunwind
	.fnend
                                        @ -- End function
	.section	.text.refr_align,"ax",%progbits
	.p2align	3                               @ -- Begin function refr_align
	.type	refr_align,%function
	.code	16                              @ @refr_align
	.thumb_func
refr_align:
.Lfunc_begin33:
	.loc	10 1001 0                       @ lvgl/src/lv_widgets/lv_tabview.c:1001:0
	.fnstart
	.cfi_startproc
@ %bb.0:
	.save	{r7, lr}
	push	{r7, lr}
	.cfi_def_cfa_offset 8
	.cfi_offset lr, -4
	.cfi_offset r7, -8
	.pad	#56
	sub	sp, #56
	.cfi_def_cfa_offset 64
	str	r0, [sp, #52]
.Ltmp441:
	.loc	10 1002 50 prologue_end         @ lvgl/src/lv_widgets/lv_tabview.c:1002:50
	ldr	r0, [sp, #52]
	.loc	10 1002 30 is_stmt 0            @ lvgl/src/lv_widgets/lv_tabview.c:1002:30
	bl	lv_obj_get_ext_attr
	.loc	10 1002 24                      @ lvgl/src/lv_widgets/lv_tabview.c:1002:24
	str	r0, [sp, #48]
	.loc	10 1004 12 is_stmt 1            @ lvgl/src/lv_widgets/lv_tabview.c:1004:12
	ldr	r0, [sp, #48]
	.loc	10 1004 17 is_stmt 0            @ lvgl/src/lv_widgets/lv_tabview.c:1004:17
	ldrb	r0, [r0, #26]
	.loc	10 1004 12                      @ lvgl/src/lv_widgets/lv_tabview.c:1004:12
	and	r0, r0, #7
	.loc	10 1004 5                       @ lvgl/src/lv_widgets/lv_tabview.c:1004:5
	mov	r1, r0
	str	r1, [sp, #44]                   @ 4-byte Spill
	cmp	r0, #4
	bhi	.LBB33_3
@ %bb.1:
	.loc	10 0 5                          @ lvgl/src/lv_widgets/lv_tabview.c:0:5
	ldr	r1, [sp, #44]                   @ 4-byte Reload
.LCPI33_0:
	tbb	[pc, r1]
@ %bb.2:
.LJTI33_0:
	.byte	(.LBB33_4-(.LCPI33_0+4))/2
	.byte	(.LBB33_5-(.LCPI33_0+4))/2
	.byte	(.LBB33_6-(.LCPI33_0+4))/2
	.byte	(.LBB33_7-(.LCPI33_0+4))/2
	.byte	(.LBB33_8-(.LCPI33_0+4))/2
	.p2align	1
.LBB33_3:
	.loc	10 1004 27                      @ lvgl/src/lv_widgets/lv_tabview.c:1004:27
	b	.LBB33_4
.LBB33_4:
.Ltmp442:
	.loc	10 1007 26 is_stmt 1            @ lvgl/src/lv_widgets/lv_tabview.c:1007:26
	ldr	r0, [sp, #48]
	.loc	10 1007 31 is_stmt 0            @ lvgl/src/lv_widgets/lv_tabview.c:1007:31
	ldr	r0, [r0, #8]
	.loc	10 1007 13                      @ lvgl/src/lv_widgets/lv_tabview.c:1007:13
	mov	r1, sp
	movs	r3, #0
	str	r3, [r1]
	movs	r2, #1
	mov	r1, r3
	bl	lv_obj_align
	.loc	10 1008 13 is_stmt 1            @ lvgl/src/lv_widgets/lv_tabview.c:1008:13
	b	.LBB33_9
.LBB33_5:
	.loc	10 1010 26                      @ lvgl/src/lv_widgets/lv_tabview.c:1010:26
	ldr	r0, [sp, #48]
	.loc	10 1010 31 is_stmt 0            @ lvgl/src/lv_widgets/lv_tabview.c:1010:31
	ldr	r0, [r0]
	.loc	10 1010 13                      @ lvgl/src/lv_widgets/lv_tabview.c:1010:13
	mov	r1, sp
	movs	r3, #0
	str	r3, [sp, #40]                   @ 4-byte Spill
	str	r3, [r1]
	movs	r2, #1
	mov	r1, r3
	bl	lv_obj_align
	ldr	r3, [sp, #40]                   @ 4-byte Reload
	.loc	10 1011 26 is_stmt 1            @ lvgl/src/lv_widgets/lv_tabview.c:1011:26
	ldr	r0, [sp, #48]
	.loc	10 1011 45 is_stmt 0            @ lvgl/src/lv_widgets/lv_tabview.c:1011:45
	ldr	r1, [r0]
	.loc	10 1011 31                      @ lvgl/src/lv_widgets/lv_tabview.c:1011:31
	ldr	r0, [r0, #8]
	.loc	10 1011 13                      @ lvgl/src/lv_widgets/lv_tabview.c:1011:13
	mov	r2, sp
	str	r3, [r2]
	movs	r2, #12
	bl	lv_obj_align
	ldr	r3, [sp, #40]                   @ 4-byte Reload
	.loc	10 1012 26 is_stmt 1            @ lvgl/src/lv_widgets/lv_tabview.c:1012:26
	ldr	r0, [sp, #48]
	.loc	10 1012 43 is_stmt 0            @ lvgl/src/lv_widgets/lv_tabview.c:1012:43
	ldr	r1, [r0]
	.loc	10 1012 31                      @ lvgl/src/lv_widgets/lv_tabview.c:1012:31
	ldr	r0, [r0, #4]
	.loc	10 1012 13                      @ lvgl/src/lv_widgets/lv_tabview.c:1012:13
	mov	r2, sp
	str	r3, [r2]
	movs	r2, #4
	bl	lv_obj_align
	.loc	10 1013 13 is_stmt 1            @ lvgl/src/lv_widgets/lv_tabview.c:1013:13
	b	.LBB33_9
.LBB33_6:
	.loc	10 1015 26                      @ lvgl/src/lv_widgets/lv_tabview.c:1015:26
	ldr	r0, [sp, #48]
	.loc	10 1015 31 is_stmt 0            @ lvgl/src/lv_widgets/lv_tabview.c:1015:31
	ldr	r0, [r0, #8]
	.loc	10 1015 13                      @ lvgl/src/lv_widgets/lv_tabview.c:1015:13
	mov	r1, sp
	movs	r3, #0
	str	r3, [sp, #36]                   @ 4-byte Spill
	str	r3, [r1]
	movs	r2, #1
	str	r2, [sp, #32]                   @ 4-byte Spill
	mov	r1, r3
	bl	lv_obj_align
	ldr	r3, [sp, #36]                   @ 4-byte Reload
	.loc	10 1016 26 is_stmt 1            @ lvgl/src/lv_widgets/lv_tabview.c:1016:26
	ldr	r1, [sp, #48]
	.loc	10 1016 31 is_stmt 0            @ lvgl/src/lv_widgets/lv_tabview.c:1016:31
	ldr	r0, [r1]
	.loc	10 1016 42                      @ lvgl/src/lv_widgets/lv_tabview.c:1016:42
	ldr	r1, [r1, #8]
	.loc	10 1016 13                      @ lvgl/src/lv_widgets/lv_tabview.c:1016:13
	mov	r2, sp
	str	r3, [r2]
	movs	r2, #12
	bl	lv_obj_align
	ldr	r2, [sp, #32]                   @ 4-byte Reload
	ldr	r3, [sp, #36]                   @ 4-byte Reload
	.loc	10 1017 26 is_stmt 1            @ lvgl/src/lv_widgets/lv_tabview.c:1017:26
	ldr	r0, [sp, #48]
	.loc	10 1017 43 is_stmt 0            @ lvgl/src/lv_widgets/lv_tabview.c:1017:43
	ldr	r1, [r0]
	.loc	10 1017 31                      @ lvgl/src/lv_widgets/lv_tabview.c:1017:31
	ldr	r0, [r0, #4]
	.loc	10 1017 13                      @ lvgl/src/lv_widgets/lv_tabview.c:1017:13
	mov	r12, sp
	str.w	r3, [r12]
	bl	lv_obj_align
	.loc	10 1018 13 is_stmt 1            @ lvgl/src/lv_widgets/lv_tabview.c:1018:13
	b	.LBB33_9
.LBB33_7:
	.loc	10 1020 26                      @ lvgl/src/lv_widgets/lv_tabview.c:1020:26
	ldr	r0, [sp, #48]
	.loc	10 1020 31 is_stmt 0            @ lvgl/src/lv_widgets/lv_tabview.c:1020:31
	ldr	r0, [r0]
	.loc	10 1020 13                      @ lvgl/src/lv_widgets/lv_tabview.c:1020:13
	mov	r1, sp
	movs	r3, #0
	str	r3, [sp, #28]                   @ 4-byte Spill
	str	r3, [r1]
	movs	r2, #1
	str	r2, [sp, #20]                   @ 4-byte Spill
	mov	r1, r3
	bl	lv_obj_align
	.loc	10 1021 26 is_stmt 1            @ lvgl/src/lv_widgets/lv_tabview.c:1021:26
	ldr	r1, [sp, #48]
	.loc	10 1021 93 is_stmt 0            @ lvgl/src/lv_widgets/lv_tabview.c:1021:93
	ldr	r0, [r1]
	.loc	10 1021 31                      @ lvgl/src/lv_widgets/lv_tabview.c:1021:31
	ldr	r1, [r1, #8]
	.loc	10 1021 40                      @ lvgl/src/lv_widgets/lv_tabview.c:1021:40
	str	r1, [sp, #24]                   @ 4-byte Spill
	ldr	r1, [sp, #52]
	.loc	10 1021 71                      @ lvgl/src/lv_widgets/lv_tabview.c:1021:71
	str	r1, [sp, #16]                   @ 4-byte Spill
	bl	lv_obj_get_width
	ldr	r1, [sp, #16]                   @ 4-byte Reload
	ldr	r2, [sp, #20]                   @ 4-byte Reload
	ldr.w	r12, [sp, #28]                  @ 4-byte Reload
	mov	r3, r0
	.loc	10 1021 13                      @ lvgl/src/lv_widgets/lv_tabview.c:1021:13
	ldr	r0, [sp, #24]                   @ 4-byte Reload
	mov	lr, sp
	str.w	r12, [lr]
	bl	lv_obj_align
	ldr	r3, [sp, #28]                   @ 4-byte Reload
	.loc	10 1022 26 is_stmt 1            @ lvgl/src/lv_widgets/lv_tabview.c:1022:26
	ldr	r0, [sp, #48]
	.loc	10 1022 43 is_stmt 0            @ lvgl/src/lv_widgets/lv_tabview.c:1022:43
	ldr	r1, [r0]
	.loc	10 1022 31                      @ lvgl/src/lv_widgets/lv_tabview.c:1022:31
	ldr	r0, [r0, #4]
	.loc	10 1022 13                      @ lvgl/src/lv_widgets/lv_tabview.c:1022:13
	mov	r2, sp
	str	r3, [r2]
	movs	r2, #3
	bl	lv_obj_align
	.loc	10 1023 13 is_stmt 1            @ lvgl/src/lv_widgets/lv_tabview.c:1023:13
	b	.LBB33_9
.LBB33_8:
	.loc	10 1025 26                      @ lvgl/src/lv_widgets/lv_tabview.c:1025:26
	ldr	r0, [sp, #48]
	.loc	10 1025 31 is_stmt 0            @ lvgl/src/lv_widgets/lv_tabview.c:1025:31
	ldr	r0, [r0]
	.loc	10 1025 13                      @ lvgl/src/lv_widgets/lv_tabview.c:1025:13
	mov	r1, sp
	movs	r3, #0
	str	r3, [sp, #12]                   @ 4-byte Spill
	str	r3, [r1]
	movs	r2, #3
	mov	r1, r3
	bl	lv_obj_align
	ldr	r3, [sp, #12]                   @ 4-byte Reload
	.loc	10 1026 26 is_stmt 1            @ lvgl/src/lv_widgets/lv_tabview.c:1026:26
	ldr	r0, [sp, #48]
	.loc	10 1026 31 is_stmt 0            @ lvgl/src/lv_widgets/lv_tabview.c:1026:31
	ldr	r0, [r0, #8]
	.loc	10 1026 40                      @ lvgl/src/lv_widgets/lv_tabview.c:1026:40
	ldr	r1, [sp, #52]
	.loc	10 1026 13                      @ lvgl/src/lv_widgets/lv_tabview.c:1026:13
	mov	r2, sp
	str	r3, [r2]
	movs	r2, #1
	str	r2, [sp, #8]                    @ 4-byte Spill
	bl	lv_obj_align
	ldr	r2, [sp, #8]                    @ 4-byte Reload
	ldr	r3, [sp, #12]                   @ 4-byte Reload
	.loc	10 1027 26 is_stmt 1            @ lvgl/src/lv_widgets/lv_tabview.c:1027:26
	ldr	r0, [sp, #48]
	.loc	10 1027 43 is_stmt 0            @ lvgl/src/lv_widgets/lv_tabview.c:1027:43
	ldr	r1, [r0]
	.loc	10 1027 31                      @ lvgl/src/lv_widgets/lv_tabview.c:1027:31
	ldr	r0, [r0, #4]
	.loc	10 1027 13                      @ lvgl/src/lv_widgets/lv_tabview.c:1027:13
	mov	r12, sp
	str.w	r3, [r12]
	bl	lv_obj_align
	.loc	10 1028 13 is_stmt 1            @ lvgl/src/lv_widgets/lv_tabview.c:1028:13
	b	.LBB33_9
.Ltmp443:
.LBB33_9:
	.loc	10 1030 1                       @ lvgl/src/lv_widgets/lv_tabview.c:1030:1
	add	sp, #56
	pop	{r7, pc}
.Ltmp444:
.Lfunc_end33:
	.size	refr_align, .Lfunc_end33-refr_align
	.cfi_endproc
	.cantunwind
	.fnend
                                        @ -- End function
	.section	.text.lv_obj_get_style_pad_right,"ax",%progbits
	.p2align	3                               @ -- Begin function lv_obj_get_style_pad_right
	.type	lv_obj_get_style_pad_right,%function
	.code	16                              @ @lv_obj_get_style_pad_right
	.thumb_func
lv_obj_get_style_pad_right:
.Lfunc_begin34:
	.loc	17 103 0                        @ lvgl/src/lv_widgets/../lv_core/lv_obj_style_dec.h:103:0
	.fnstart
	.cfi_startproc
@ %bb.0:
	.save	{r7, lr}
	push	{r7, lr}
	.cfi_def_cfa_offset 8
	.cfi_offset lr, -4
	.cfi_offset r7, -8
	.pad	#8
	sub	sp, #8
	.cfi_def_cfa_offset 16
                                        @ kill: def $r2 killed $r1
	str	r0, [sp, #4]
	strb.w	r1, [sp, #3]
.Ltmp445:
	.loc	17 103 1 prologue_end           @ lvgl/src/lv_widgets/../lv_core/lv_obj_style_dec.h:103:1
	ldr	r0, [sp, #4]
	ldrb.w	r1, [sp, #3]
	movs	r2, #19
	bl	_lv_obj_get_style_int
	add	sp, #8
	pop	{r7, pc}
.Ltmp446:
.Lfunc_end34:
	.size	lv_obj_get_style_pad_right, .Lfunc_end34-lv_obj_get_style_pad_right
	.cfi_endproc
	.cantunwind
	.fnend
                                        @ -- End function
	.section	.text.lv_obj_get_style_pad_bottom,"ax",%progbits
	.p2align	3                               @ -- Begin function lv_obj_get_style_pad_bottom
	.type	lv_obj_get_style_pad_bottom,%function
	.code	16                              @ @lv_obj_get_style_pad_bottom
	.thumb_func
lv_obj_get_style_pad_bottom:
.Lfunc_begin35:
	.loc	17 101 0                        @ lvgl/src/lv_widgets/../lv_core/lv_obj_style_dec.h:101:0
	.fnstart
	.cfi_startproc
@ %bb.0:
	.save	{r7, lr}
	push	{r7, lr}
	.cfi_def_cfa_offset 8
	.cfi_offset lr, -4
	.cfi_offset r7, -8
	.pad	#8
	sub	sp, #8
	.cfi_def_cfa_offset 16
                                        @ kill: def $r2 killed $r1
	str	r0, [sp, #4]
	strb.w	r1, [sp, #3]
.Ltmp447:
	.loc	17 101 1 prologue_end           @ lvgl/src/lv_widgets/../lv_core/lv_obj_style_dec.h:101:1
	ldr	r0, [sp, #4]
	ldrb.w	r1, [sp, #3]
	movs	r2, #17
	bl	_lv_obj_get_style_int
	add	sp, #8
	pop	{r7, pc}
.Ltmp448:
.Lfunc_end35:
	.size	lv_obj_get_style_pad_bottom, .Lfunc_end35-lv_obj_get_style_pad_bottom
	.cfi_endproc
	.cantunwind
	.fnend
                                        @ -- End function
	.section	.text.lv_obj_get_style_text_font,"ax",%progbits
	.p2align	3                               @ -- Begin function lv_obj_get_style_text_font
	.type	lv_obj_get_style_text_font,%function
	.code	16                              @ @lv_obj_get_style_text_font
	.thumb_func
lv_obj_get_style_text_font:
.Lfunc_begin36:
	.loc	17 158 0                        @ lvgl/src/lv_widgets/../lv_core/lv_obj_style_dec.h:158:0
	.fnstart
	.cfi_startproc
@ %bb.0:
	.save	{r7, lr}
	push	{r7, lr}
	.cfi_def_cfa_offset 8
	.cfi_offset lr, -4
	.cfi_offset r7, -8
	.pad	#8
	sub	sp, #8
	.cfi_def_cfa_offset 16
                                        @ kill: def $r2 killed $r1
	str	r0, [sp, #4]
	strb.w	r1, [sp, #3]
.Ltmp449:
	.loc	17 158 1 prologue_end           @ lvgl/src/lv_widgets/../lv_core/lv_obj_style_dec.h:158:1
	ldr	r0, [sp, #4]
	ldrb.w	r1, [sp, #3]
	movw	r2, #32910
	bl	_lv_obj_get_style_ptr
	add	sp, #8
	pop	{r7, pc}
.Ltmp450:
.Lfunc_end36:
	.size	lv_obj_get_style_text_font, .Lfunc_end36-lv_obj_get_style_text_font
	.cfi_endproc
	.cantunwind
	.fnend
                                        @ -- End function
	.section	.text.lv_font_get_line_height,"ax",%progbits
	.p2align	3                               @ -- Begin function lv_font_get_line_height
	.type	lv_font_get_line_height,%function
	.code	16                              @ @lv_font_get_line_height
	.thumb_func
lv_font_get_line_height:
.Lfunc_begin37:
	.file	18 "E:\\STM32\\Learning\\STM32H750_ART_PI_RGBLCD" "lvgl/src/lv_widgets/../lv_font/lv_font.h"
	.loc	18 117 0                        @ lvgl/src/lv_widgets/../lv_font/lv_font.h:117:0
	.fnstart
	.cfi_startproc
@ %bb.0:
	.pad	#4
	sub	sp, #4
	.cfi_def_cfa_offset 4
	str	r0, [sp]
.Ltmp451:
	.loc	18 118 12 prologue_end          @ lvgl/src/lv_widgets/../lv_font/lv_font.h:118:12
	ldr	r0, [sp]
	.loc	18 118 20 is_stmt 0             @ lvgl/src/lv_widgets/../lv_font/lv_font.h:118:20
	ldrsh.w	r0, [r0, #8]
	.loc	18 118 5                        @ lvgl/src/lv_widgets/../lv_font/lv_font.h:118:5
	add	sp, #4
	bx	lr
.Ltmp452:
.Lfunc_end37:
	.size	lv_font_get_line_height, .Lfunc_end37-lv_font_get_line_height
	.cfi_endproc
	.cantunwind
	.fnend
                                        @ -- End function
	.section	.text.lv_obj_get_style_size,"ax",%progbits
	.p2align	3                               @ -- Begin function lv_obj_get_style_size
	.type	lv_obj_get_style_size,%function
	.code	16                              @ @lv_obj_get_style_size
	.thumb_func
lv_obj_get_style_size:
.Lfunc_begin38:
	.loc	17 94 0 is_stmt 1               @ lvgl/src/lv_widgets/../lv_core/lv_obj_style_dec.h:94:0
	.fnstart
	.cfi_startproc
@ %bb.0:
	.save	{r7, lr}
	push	{r7, lr}
	.cfi_def_cfa_offset 8
	.cfi_offset lr, -4
	.cfi_offset r7, -8
	.pad	#8
	sub	sp, #8
	.cfi_def_cfa_offset 16
                                        @ kill: def $r2 killed $r1
	str	r0, [sp, #4]
	strb.w	r1, [sp, #3]
.Ltmp453:
	.loc	17 94 1 prologue_end            @ lvgl/src/lv_widgets/../lv_core/lv_obj_style_dec.h:94:1
	ldr	r0, [sp, #4]
	ldrb.w	r1, [sp, #3]
	movs	r2, #3
	bl	_lv_obj_get_style_int
	add	sp, #8
	pop	{r7, pc}
.Ltmp454:
.Lfunc_end38:
	.size	lv_obj_get_style_size, .Lfunc_end38-lv_obj_get_style_size
	.cfi_endproc
	.cantunwind
	.fnend
                                        @ -- End function
	.type	.L.str,%object                  @ @.str
	.section	.rodata.str1.1,"aMS",%progbits,1
.L.str:
	.asciz	"Out of memory"
	.size	.L.str, 14

	.type	ancestor_signal,%object         @ @ancestor_signal
	.section	.bss.ancestor_signal,"aw",%nobits
	.p2align	2
ancestor_signal:
	.long	0
	.size	ancestor_signal, 4

	.type	.L.str.1,%object                @ @.str.1
	.section	.rodata.str1.1,"aMS",%progbits,1
.L.str.1:
	.zero	1
	.size	.L.str.1, 1

	.type	ancestor_scrl_signal,%object    @ @ancestor_scrl_signal
	.section	.bss.ancestor_scrl_signal,"aw",%nobits
	.p2align	2
ancestor_scrl_signal:
	.long	0
	.size	ancestor_scrl_signal, 4

	.type	tab_def,%object                 @ @tab_def
	.section	.data.tab_def,"aw",%progbits
	.p2align	2
tab_def:
	.long	.L.str.1
	.size	tab_def, 4

	.type	.L.str.2,%object                @ @.str.2
	.section	.rodata.str1.1,"aMS",%progbits,1
.L.str.2:
	.asciz	"NULL pointer"
	.size	.L.str.2, 13

	.type	page_signal,%object             @ @page_signal
	.section	.bss.page_signal,"aw",%nobits
	.p2align	2
page_signal:
	.long	0
	.size	page_signal, 4

	.type	.L.str.3,%object                @ @.str.3
	.section	.rodata.str1.1,"aMS",%progbits,1
.L.str.3:
	.asciz	"\n"
	.size	.L.str.3, 2

	.type	.L.str.4,%object                @ @.str.4
.L.str.4:
	.asciz	"lv_tabview"
	.size	.L.str.4, 11

	.file	19 "E:\\STM32\\Learning\\STM32H750_ART_PI_RGBLCD" "lvgl/src/lv_widgets/../lv_core/../lv_hal/lv_hal_disp.h"
	.file	20 "E:\\STM32\\Learning\\STM32H750_ART_PI_RGBLCD" "lvgl/src/lv_widgets/../lv_core/../lv_hal/../lv_misc/lv_color.h"
	.file	21 "E:\\STM32\\Learning\\STM32H750_ART_PI_RGBLCD" "lvgl/src/lv_widgets/../lv_core/../lv_hal/../lv_misc/lv_task.h"
	.file	22 "E:\\STM32\\Learning\\STM32H750_ART_PI_RGBLCD" "lvgl/src/lv_widgets/../lv_core/../lv_core/lv_group.h"
	.section	".note.GNU-stack","",%progbits
	.eabi_attribute	30, 6	@ Tag_ABI_optimization_goals
	.ARM_attribute	16, 1	@ Tag_AV_eba