	.text
	.syntax unified
	.eabi_attribute	67, "2.09"	@ Tag_conformance
	.cpu	cortex-m7
	.eabi_attribute	6, 13	@ Tag_CPU_arch
	.eabi_attribute	7, 77	@ Tag_CPU_arch_profile
	.eabi_attribute	8, 0	@ Tag_ARM_ISA_use
	.eabi_attribute	9, 2	@ Tag_THUMB_ISA_use
	.fpu	fpv5-d16
	.eabi_attribute	36, 1	@ Tag_FP_HP_extension
	.eabi_attribute	34, 1	@ Tag_CPU_unaligned_access
	.eabi_attribute	17, 1	@ Tag_ABI_PCS_GOT_use
	.eabi_attribute	20, 2	@ Tag_ABI_FP_denormal
	.eabi_attribute	21, 0	@ Tag_ABI_FP_exceptions
	.eabi_attribute	23, 1	@ Tag_ABI_FP_number_model
	.eabi_attribute	24, 1	@ Tag_ABI_align_needed
	.eabi_attribute	25, 1	@ Tag_ABI_align_preserved
	.eabi_attribute	28, 1	@ Tag_ABI_VFP_args
	.eabi_attribute	38, 1	@ Tag_ABI_FP_16bit_format
	.eabi_attribute	18, 2	@ Tag_ABI_PCS_wchar_t
	.eabi_attribute	26, 1	@ Tag_ABI_enum_size
	.eabi_attribute	14, 0	@ Tag_ABI_PCS_R9_use
	.file	"lv_tileview.c"
	.file	1 "D:\\Keil_v5\\ARM\\ARMCLANG\\Bin\\..\\include" "stdint.h"
	.file	2 "E:\\Smart-access-control\\Hardware\\CODE" "lvgl/src/lv_widgets/../lv_core/../lv_draw/../lv_misc/lv_types.h"
	.file	3 "E:\\Smart-access-control\\Hardware\\CODE" "lvgl/src/lv_widgets/../lv_themes/../lv_core/lv_obj.h"
	.file	4 "E:\\Smart-access-control\\Hardware\\CODE" "lvgl/src/lv_widgets/../lv_core/../lv_font/../lv_misc/lv_ll.h"
	.file	5 "E:\\Smart-access-control\\Hardware\\CODE" "./lvgl/src/lv_conf.h"
	.file	6 "E:\\Smart-access-control\\Hardware\\CODE" "lvgl/src/lv_widgets/../lv_core/../lv_hal/../lv_misc/lv_area.h"
	.file	7 "E:\\Smart-access-control\\Hardware\\CODE" "lvgl/src/lv_widgets/../lv_themes/../lv_core/lv_style.h"
	.file	8 "E:\\Smart-access-control\\Hardware\\CODE" "lvgl/src/lv_widgets/../lv_core/../lv_hal/lv_hal_indev.h"
	.file	9 "E:\\Smart-access-control\\Hardware\\CODE" "lvgl/src/lv_widgets/../lv_core/../lv_draw/../lv_misc/lv_bidi.h"
	.file	10 "E:\\Smart-access-control\\Hardware\\CODE" "lvgl/src/lv_widgets/lv_tileview.c"
	.file	11 "E:\\Smart-access-control\\Hardware\\CODE" "lvgl/src/lv_widgets/lv_cont.h"
	.file	12 "E:\\Smart-access-control\\Hardware\\CODE" "lvgl/src/lv_widgets/../lv_widgets/lv_page.h"
	.file	13 "E:\\Smart-access-control\\Hardware\\CODE" "lvgl/src/lv_widgets/../lv_themes/lv_theme.h"
	.file	14 "E:\\Smart-access-control\\Hardware\\CODE" "lvgl/src/lv_widgets/../lv_misc/lv_anim.h"
	.file	15 "E:\\Smart-access-control\\Hardware\\CODE" "lvgl/src/lv_widgets/lv_tileview.h"
	.section	.text.lv_tileview_create,"ax",%progbits
	.hidden	lv_tileview_create              @ -- Begin function lv_tileview_create
	.globl	lv_tileview_create
	.p2align	3
	.type	lv_tileview_create,%function
	.code	16                              @ @lv_tileview_create
	.thumb_func
lv_tileview_create:
.Lfunc_begin0:
	.loc	10 66 0                         @ lvgl/src/lv_widgets/lv_tileview.c:66:0
	.fnstart
	.cfi_sections .debug_frame
	.cfi_startproc
@ %bb.0:
	.save	{r7, lr}
	push	{r7, lr}
	.cfi_def_cfa_offset 8
	.cfi_offset lr, -4
	.cfi_offset r7, -8
	.pad	#32
	sub	sp, #32
	.cfi_def_cfa_offset 40
	str	r0, [sp, #24]
	str	r1, [sp, #20]
.Ltmp0:
	.loc	10 70 46 prologue_end           @ lvgl/src/lv_widgets/lv_tileview.c:70:46
	ldr	r0, [sp, #24]
	.loc	10 70 51 is_stmt 0              @ lvgl/src/lv_widgets/lv_tileview.c:70:51
	ldr	r1, [sp, #20]
	.loc	10 70 31                        @ lvgl/src/lv_widgets/lv_tileview.c:70:31
	bl	lv_page_create
	.loc	10 70 16                        @ lvgl/src/lv_widgets/lv_tileview.c:70:16
	str	r0, [sp, #16]
	.loc	10 71 5 is_stmt 1               @ lvgl/src/lv_widgets/lv_tileview.c:71:5
	b	.LBB0_1
.LBB0_1:
.Ltmp1:
	.loc	10 71 5 is_stmt 0               @ lvgl/src/lv_widgets/lv_tileview.c:71:5
	ldr	r0, [sp, #16]
	bl	lv_debug_check_null
.Ltmp2:
	.loc	10 71 5                         @ lvgl/src/lv_widgets/lv_tileview.c:71:5
	cbnz	r0, .LBB0_4
	b	.LBB0_2
.LBB0_2:
.Ltmp3:
	.loc	10 71 5                         @ lvgl/src/lv_widgets/lv_tileview.c:71:5
	ldr	r2, [sp, #16]
	movw	r0, :lower16:.L.str
	movt	r0, :upper16:.L.str
	movs	r3, #0
	bl	lv_debug_log_error
	b	.LBB0_3
.LBB0_3:                                @ =>This Inner Loop Header: Depth=1
	b	.LBB0_3
.Ltmp4:
.LBB0_4:
	.loc	10 71 5                         @ lvgl/src/lv_widgets/lv_tileview.c:71:5
	b	.LBB0_5
.Ltmp5:
.LBB0_5:
	.loc	10 72 8 is_stmt 1               @ lvgl/src/lv_widgets/lv_tileview.c:72:8
	ldr	r0, [sp, #16]
.Ltmp6:
	.loc	10 72 8 is_stmt 0               @ lvgl/src/lv_widgets/lv_tileview.c:72:8
	cbnz	r0, .LBB0_7
	b	.LBB0_6
.LBB0_6:
	.loc	10 0 8                          @ lvgl/src/lv_widgets/lv_tileview.c:0:8
	movs	r0, #0
.Ltmp7:
	.loc	10 72 30                        @ lvgl/src/lv_widgets/lv_tileview.c:72:30
	str	r0, [sp, #28]
	b	.LBB0_27
.Ltmp8:
.LBB0_7:
	.loc	10 75 56 is_stmt 1              @ lvgl/src/lv_widgets/lv_tileview.c:75:56
	ldr	r0, [sp, #16]
	movs	r1, #80
	.loc	10 75 31 is_stmt 0              @ lvgl/src/lv_widgets/lv_tileview.c:75:31
	bl	lv_obj_allocate_ext_attr
	.loc	10 75 25                        @ lvgl/src/lv_widgets/lv_tileview.c:75:25
	str	r0, [sp, #12]
	.loc	10 76 5 is_stmt 1               @ lvgl/src/lv_widgets/lv_tileview.c:76:5
	b	.LBB0_8
.LBB0_8:
.Ltmp9:
	.loc	10 76 5 is_stmt 0               @ lvgl/src/lv_widgets/lv_tileview.c:76:5
	ldr	r0, [sp, #12]
	bl	lv_debug_check_null
.Ltmp10:
	.loc	10 76 5                         @ lvgl/src/lv_widgets/lv_tileview.c:76:5
	cbnz	r0, .LBB0_11
	b	.LBB0_9
.LBB0_9:
.Ltmp11:
	.loc	10 76 5                         @ lvgl/src/lv_widgets/lv_tileview.c:76:5
	ldr	r2, [sp, #12]
	movw	r0, :lower16:.L.str
	movt	r0, :upper16:.L.str
	movs	r3, #0
	bl	lv_debug_log_error
	b	.LBB0_10
.LBB0_10:                               @ =>This Inner Loop Header: Depth=1
	b	.LBB0_10
.Ltmp12:
.LBB0_11:
	.loc	10 76 5                         @ lvgl/src/lv_widgets/lv_tileview.c:76:5
	b	.LBB0_12
.Ltmp13:
.LBB0_12:
	.loc	10 77 8 is_stmt 1               @ lvgl/src/lv_widgets/lv_tileview.c:77:8
	ldr	r0, [sp, #12]
.Ltmp14:
	.loc	10 77 8 is_stmt 0               @ lvgl/src/lv_widgets/lv_tileview.c:77:8
	cbnz	r0, .LBB0_14
	b	.LBB0_13
.LBB0_13:
.Ltmp15:
	.loc	10 78 20 is_stmt 1              @ lvgl/src/lv_widgets/lv_tileview.c:78:20
	ldr	r0, [sp, #16]
	.loc	10 78 9 is_stmt 0               @ lvgl/src/lv_widgets/lv_tileview.c:78:9
	bl	lv_obj_del
	movs	r0, #0
	.loc	10 79 9 is_stmt 1               @ lvgl/src/lv_widgets/lv_tileview.c:79:9
	str	r0, [sp, #28]
	b	.LBB0_27
.Ltmp16:
.LBB0_14:
	.loc	10 82 8                         @ lvgl/src/lv_widgets/lv_tileview.c:82:8
	movw	r0, :lower16:ancestor_signal
	movt	r0, :upper16:ancestor_signal
	ldr	r0, [r0]
.Ltmp17:
	.loc	10 82 8 is_stmt 0               @ lvgl/src/lv_widgets/lv_tileview.c:82:8
	cbnz	r0, .LBB0_16
	b	.LBB0_15
.LBB0_15:
.Ltmp18:
	.loc	10 82 72                        @ lvgl/src/lv_widgets/lv_tileview.c:82:72
	ldr	r0, [sp, #16]
	.loc	10 82 51                        @ lvgl/src/lv_widgets/lv_tileview.c:82:51
	bl	lv_obj_get_signal_cb
	.loc	10 82 49                        @ lvgl/src/lv_widgets/lv_tileview.c:82:49
	movw	r1, :lower16:ancestor_signal
	movt	r1, :upper16:ancestor_signal
	str	r0, [r1]
	.loc	10 82 33                        @ lvgl/src/lv_widgets/lv_tileview.c:82:33
	b	.LBB0_16
.Ltmp19:
.LBB0_16:
	.loc	10 83 8 is_stmt 1               @ lvgl/src/lv_widgets/lv_tileview.c:83:8
	movw	r0, :lower16:ancestor_scrl_signal
	movt	r0, :upper16:ancestor_scrl_signal
	ldr	r0, [r0]
.Ltmp20:
	.loc	10 83 8 is_stmt 0               @ lvgl/src/lv_widgets/lv_tileview.c:83:8
	cbnz	r0, .LBB0_18
	b	.LBB0_17
.LBB0_17:
.Ltmp21:
	.loc	10 83 105                       @ lvgl/src/lv_widgets/lv_tileview.c:83:105
	ldr	r0, [sp, #16]
	.loc	10 83 82                        @ lvgl/src/lv_widgets/lv_tileview.c:83:82
	bl	lv_page_get_scrollable
	.loc	10 83 61                        @ lvgl/src/lv_widgets/lv_tileview.c:83:61
	bl	lv_obj_get_signal_cb
	.loc	10 83 59                        @ lvgl/src/lv_widgets/lv_tileview.c:83:59
	movw	r1, :lower16:ancestor_scrl_signal
	movt	r1, :upper16:ancestor_scrl_signal
	str	r0, [r1]
	.loc	10 83 38                        @ lvgl/src/lv_widgets/lv_tileview.c:83:38
	b	.LBB0_18
.Ltmp22:
.LBB0_18:
	.loc	10 84 8 is_stmt 1               @ lvgl/src/lv_widgets/lv_tileview.c:84:8
	movw	r0, :lower16:ancestor_design
	movt	r0, :upper16:ancestor_design
	ldr	r0, [r0]
.Ltmp23:
	.loc	10 84 8 is_stmt 0               @ lvgl/src/lv_widgets/lv_tileview.c:84:8
	cbnz	r0, .LBB0_20
	b	.LBB0_19
.LBB0_19:
.Ltmp24:
	.loc	10 84 72                        @ lvgl/src/lv_widgets/lv_tileview.c:84:72
	ldr	r0, [sp, #16]
	.loc	10 84 51                        @ lvgl/src/lv_widgets/lv_tileview.c:84:51
	bl	lv_obj_get_design_cb
	.loc	10 84 49                        @ lvgl/src/lv_widgets/lv_tileview.c:84:49
	movw	r1, :lower16:ancestor_design
	movt	r1, :upper16:ancestor_design
	str	r0, [r1]
	.loc	10 84 33                        @ lvgl/src/lv_widgets/lv_tileview.c:84:33
	b	.LBB0_20
.Ltmp25:
.LBB0_20:
	.loc	10 88 5 is_stmt 1               @ lvgl/src/lv_widgets/lv_tileview.c:88:5
	ldr	r1, [sp, #12]
	mov.w	r0, #300
	.loc	10 88 20 is_stmt 0              @ lvgl/src/lv_widgets/lv_tileview.c:88:20
	strh.w	r0, [r1, #70]
	.loc	10 90 5 is_stmt 1               @ lvgl/src/lv_widgets/lv_tileview.c:90:5
	ldr	r1, [sp, #12]
	movs	r0, #0
	.loc	10 90 24 is_stmt 0              @ lvgl/src/lv_widgets/lv_tileview.c:90:24
	strh.w	r0, [r1, #72]
	.loc	10 91 5 is_stmt 1               @ lvgl/src/lv_widgets/lv_tileview.c:91:5
	ldr	r1, [sp, #12]
	.loc	10 91 24 is_stmt 0              @ lvgl/src/lv_widgets/lv_tileview.c:91:24
	strh.w	r0, [r1, #74]
	.loc	10 92 5 is_stmt 1               @ lvgl/src/lv_widgets/lv_tileview.c:92:5
	ldr	r1, [sp, #12]
	.loc	10 92 24 is_stmt 0              @ lvgl/src/lv_widgets/lv_tileview.c:92:24
	str	r0, [r1, #64]
	.loc	10 93 5 is_stmt 1               @ lvgl/src/lv_widgets/lv_tileview.c:93:5
	ldr	r1, [sp, #12]
	.loc	10 93 24 is_stmt 0              @ lvgl/src/lv_widgets/lv_tileview.c:93:24
	strh.w	r0, [r1, #68]
	.loc	10 96 26 is_stmt 1              @ lvgl/src/lv_widgets/lv_tileview.c:96:26
	ldr	r0, [sp, #16]
	.loc	10 96 5 is_stmt 0               @ lvgl/src/lv_widgets/lv_tileview.c:96:5
	movw	r1, :lower16:lv_tileview_signal
	movt	r1, :upper16:lv_tileview_signal
	bl	lv_obj_set_signal_cb
	.loc	10 97 49 is_stmt 1              @ lvgl/src/lv_widgets/lv_tileview.c:97:49
	ldr	r0, [sp, #16]
	.loc	10 97 26 is_stmt 0              @ lvgl/src/lv_widgets/lv_tileview.c:97:26
	bl	lv_page_get_scrollable
	.loc	10 97 5                         @ lvgl/src/lv_widgets/lv_tileview.c:97:5
	movw	r1, :lower16:lv_tileview_scrl_signal
	movt	r1, :upper16:lv_tileview_scrl_signal
	bl	lv_obj_set_signal_cb
.Ltmp26:
	.loc	10 100 8 is_stmt 1              @ lvgl/src/lv_widgets/lv_tileview.c:100:8
	ldr	r0, [sp, #20]
.Ltmp27:
	.loc	10 100 8 is_stmt 0              @ lvgl/src/lv_widgets/lv_tileview.c:100:8
	cmp	r0, #0
	bne	.LBB0_25
	b	.LBB0_21
.LBB0_21:
.Ltmp28:
	.loc	10 106 12 is_stmt 1             @ lvgl/src/lv_widgets/lv_tileview.c:106:12
	ldr	r0, [sp, #24]
.Ltmp29:
	.loc	10 106 12 is_stmt 0             @ lvgl/src/lv_widgets/lv_tileview.c:106:12
	cbz	r0, .LBB0_23
	b	.LBB0_22
.LBB0_22:
.Ltmp30:
	.loc	10 107 56 is_stmt 1             @ lvgl/src/lv_widgets/lv_tileview.c:107:56
	ldr	r0, [sp, #16]
	.loc	10 107 38 is_stmt 0             @ lvgl/src/lv_widgets/lv_tileview.c:107:38
	bl	lv_obj_get_parent
	.loc	10 107 17                       @ lvgl/src/lv_widgets/lv_tileview.c:107:17
	bl	lv_obj_get_width_fit
	.loc	10 107 15                       @ lvgl/src/lv_widgets/lv_tileview.c:107:15
	strh.w	r0, [sp, #10]
	.loc	10 108 57 is_stmt 1             @ lvgl/src/lv_widgets/lv_tileview.c:108:57
	ldr	r0, [sp, #16]
	.loc	10 108 39 is_stmt 0             @ lvgl/src/lv_widgets/lv_tileview.c:108:39
	bl	lv_obj_get_parent
	.loc	10 108 17                       @ lvgl/src/lv_widgets/lv_tileview.c:108:17
	bl	lv_obj_get_height_fit
	.loc	10 108 15                       @ lvgl/src/lv_widgets/lv_tileview.c:108:15
	strh.w	r0, [sp, #8]
	.loc	10 109 9 is_stmt 1              @ lvgl/src/lv_widgets/lv_tileview.c:109:9
	b	.LBB0_24
.Ltmp31:
.LBB0_23:
	.loc	10 0 9 is_stmt 0                @ lvgl/src/lv_widgets/lv_tileview.c:0:9
	movs	r0, #0
.Ltmp32:
	.loc	10 111 17 is_stmt 1             @ lvgl/src/lv_widgets/lv_tileview.c:111:17
	str	r0, [sp]                        @ 4-byte Spill
	bl	lv_disp_get_hor_res
	mov	r1, r0
	.loc	10 111 15 is_stmt 0             @ lvgl/src/lv_widgets/lv_tileview.c:111:15
	ldr	r0, [sp]                        @ 4-byte Reload
	strh.w	r1, [sp, #10]
	.loc	10 112 17 is_stmt 1             @ lvgl/src/lv_widgets/lv_tileview.c:112:17
	bl	lv_disp_get_ver_res
	.loc	10 112 15 is_stmt 0             @ lvgl/src/lv_widgets/lv_tileview.c:112:15
	strh.w	r0, [sp, #8]
	b	.LBB0_24
.Ltmp33:
.LBB0_24:
	.loc	10 115 25 is_stmt 1             @ lvgl/src/lv_widgets/lv_tileview.c:115:25
	ldr	r0, [sp, #16]
	.loc	10 115 39 is_stmt 0             @ lvgl/src/lv_widgets/lv_tileview.c:115:39
	ldrsh.w	r1, [sp, #10]
	.loc	10 115 42                       @ lvgl/src/lv_widgets/lv_tileview.c:115:42
	ldrsh.w	r2, [sp, #8]
	.loc	10 115 9                        @ lvgl/src/lv_widgets/lv_tileview.c:115:9
	bl	lv_obj_set_size
	.loc	10 116 54 is_stmt 1             @ lvgl/src/lv_widgets/lv_tileview.c:116:54
	ldr	r0, [sp, #16]
	.loc	10 116 31 is_stmt 0             @ lvgl/src/lv_widgets/lv_tileview.c:116:31
	bl	lv_page_get_scrollable
	movs	r1, #1
	.loc	10 116 9                        @ lvgl/src/lv_widgets/lv_tileview.c:116:9
	bl	lv_obj_set_drag_throw
	.loc	10 117 52 is_stmt 1             @ lvgl/src/lv_widgets/lv_tileview.c:117:52
	ldr	r0, [sp, #16]
	.loc	10 117 29 is_stmt 0             @ lvgl/src/lv_widgets/lv_tileview.c:117:29
	bl	lv_page_get_scrollable
	movs	r1, #4
	.loc	10 117 9                        @ lvgl/src/lv_widgets/lv_tileview.c:117:9
	bl	lv_obj_set_drag_dir
	.loc	10 119 36 is_stmt 1             @ lvgl/src/lv_widgets/lv_tileview.c:119:36
	ldr	r0, [sp, #16]
	movs	r1, #3
	.loc	10 119 9 is_stmt 0              @ lvgl/src/lv_widgets/lv_tileview.c:119:9
	bl	lv_page_set_scrollable_fit
	.loc	10 121 33 is_stmt 1             @ lvgl/src/lv_widgets/lv_tileview.c:121:33
	ldr	r0, [sp, #16]
	movs	r1, #64
	.loc	10 121 9 is_stmt 0              @ lvgl/src/lv_widgets/lv_tileview.c:121:9
	bl	lv_obj_reset_style_list
	.loc	10 122 24 is_stmt 1             @ lvgl/src/lv_widgets/lv_tileview.c:122:24
	ldr	r0, [sp, #16]
	movs	r1, #38
	.loc	10 122 9 is_stmt 0              @ lvgl/src/lv_widgets/lv_tileview.c:122:9
	bl	lv_theme_apply
	.loc	10 123 5 is_stmt 1              @ lvgl/src/lv_widgets/lv_tileview.c:123:5
	b	.LBB0_26
.Ltmp34:
.LBB0_25:
	.loc	10 126 60                       @ lvgl/src/lv_widgets/lv_tileview.c:126:60
	ldr	r0, [sp, #20]
	.loc	10 126 40 is_stmt 0             @ lvgl/src/lv_widgets/lv_tileview.c:126:40
	bl	lv_obj_get_ext_attr
	.loc	10 126 29                       @ lvgl/src/lv_widgets/lv_tileview.c:126:29
	str	r0, [sp, #4]
	.loc	10 127 40 is_stmt 1             @ lvgl/src/lv_widgets/lv_tileview.c:127:40
	ldr	r0, [sp, #4]
	.loc	10 127 57 is_stmt 0             @ lvgl/src/lv_widgets/lv_tileview.c:127:57
	ldrh.w	r0, [r0, #72]
	.loc	10 127 9                        @ lvgl/src/lv_widgets/lv_tileview.c:127:9
	ldr	r1, [sp, #12]
	.loc	10 127 38                       @ lvgl/src/lv_widgets/lv_tileview.c:127:38
	strh.w	r0, [r1, #72]
	.loc	10 128 40 is_stmt 1             @ lvgl/src/lv_widgets/lv_tileview.c:128:40
	ldr	r0, [sp, #4]
	.loc	10 128 57 is_stmt 0             @ lvgl/src/lv_widgets/lv_tileview.c:128:57
	ldrh.w	r0, [r0, #74]
	.loc	10 128 9                        @ lvgl/src/lv_widgets/lv_tileview.c:128:9
	ldr	r1, [sp, #12]
	.loc	10 128 38                       @ lvgl/src/lv_widgets/lv_tileview.c:128:38
	strh.w	r0, [r1, #74]
	.loc	10 129 40 is_stmt 1             @ lvgl/src/lv_widgets/lv_tileview.c:129:40
	ldr	r0, [sp, #4]
	.loc	10 129 50 is_stmt 0             @ lvgl/src/lv_widgets/lv_tileview.c:129:50
	ldr	r0, [r0, #64]
	.loc	10 129 9                        @ lvgl/src/lv_widgets/lv_tileview.c:129:9
	ldr	r1, [sp, #12]
	.loc	10 129 38                       @ lvgl/src/lv_widgets/lv_tileview.c:129:38
	str	r0, [r1, #64]
	.loc	10 130 40 is_stmt 1             @ lvgl/src/lv_widgets/lv_tileview.c:130:40
	ldr	r0, [sp, #4]
	.loc	10 130 50 is_stmt 0             @ lvgl/src/lv_widgets/lv_tileview.c:130:50
	ldrh.w	r0, [r0, #68]
	.loc	10 130 9                        @ lvgl/src/lv_widgets/lv_tileview.c:130:9
	ldr	r1, [sp, #12]
	.loc	10 130 38                       @ lvgl/src/lv_widgets/lv_tileview.c:130:38
	strh.w	r0, [r1, #68]
	.loc	10 132 26 is_stmt 1             @ lvgl/src/lv_widgets/lv_tileview.c:132:26
	ldr	r0, [sp, #4]
	.loc	10 132 36 is_stmt 0             @ lvgl/src/lv_widgets/lv_tileview.c:132:36
	ldrh.w	r0, [r0, #70]
	.loc	10 132 9                        @ lvgl/src/lv_widgets/lv_tileview.c:132:9
	ldr	r1, [sp, #12]
	.loc	10 132 24                       @ lvgl/src/lv_widgets/lv_tileview.c:132:24
	strh.w	r0, [r1, #70]
	.loc	10 136 30 is_stmt 1             @ lvgl/src/lv_widgets/lv_tileview.c:136:30
	ldr	r0, [sp, #16]
	movs	r2, #255
	.loc	10 136 9 is_stmt 0              @ lvgl/src/lv_widgets/lv_tileview.c:136:9
	mov	r1, r2
	bl	lv_obj_refresh_style
	b	.LBB0_26
.Ltmp35:
.LBB0_26:
	.loc	10 141 12 is_stmt 1             @ lvgl/src/lv_widgets/lv_tileview.c:141:12
	ldr	r0, [sp, #16]
	.loc	10 141 5 is_stmt 0              @ lvgl/src/lv_widgets/lv_tileview.c:141:5
	str	r0, [sp, #28]
	b	.LBB0_27
.LBB0_27:
	.loc	10 142 1 is_stmt 1              @ lvgl/src/lv_widgets/lv_tileview.c:142:1
	ldr	r0, [sp, #28]
	add	sp, #32
	pop	{r7, pc}
.Ltmp36:
.Lfunc_end0:
	.size	lv_tileview_create, .Lfunc_end0-lv_tileview_create
	.cfi_endproc
	.cantunwind
	.fnend
                                        @ -- End function
	.section	.text.lv_tileview_signal,"ax",%progbits
	.p2align	3                               @ -- Begin function lv_tileview_signal
	.type	lv_tileview_signal,%function
	.code	16                              @ @lv_tileview_signal
	.thumb_func
lv_tileview_signal:
.Lfunc_begin1:
	.loc	10 307 0                        @ lvgl/src/lv_widgets/lv_tileview.c:307:0
	.fnstart
	.cfi_startproc
@ %bb.0:
	.save	{r7, lr}
	push	{r7, lr}
	.cfi_def_cfa_offset 8
	.cfi_offset lr, -4
	.cfi_offset r7, -8
	.pad	#24
	sub	sp, #24
	.cfi_def_cfa_offset 32
                                        @ kill: def $r3 killed $r1
	str	r0, [sp, #16]
	strb.w	r1, [sp, #15]
	str	r2, [sp, #8]
.Ltmp37:
	.loc	10 311 11 prologue_end          @ lvgl/src/lv_widgets/lv_tileview.c:311:11
	movw	r0, :lower16:ancestor_signal
	movt	r0, :upper16:ancestor_signal
	ldr	r3, [r0]
	.loc	10 311 27 is_stmt 0             @ lvgl/src/lv_widgets/lv_tileview.c:311:27
	ldr	r0, [sp, #16]
	.loc	10 311 37                       @ lvgl/src/lv_widgets/lv_tileview.c:311:37
	ldrb.w	r1, [sp, #15]
	.loc	10 311 43                       @ lvgl/src/lv_widgets/lv_tileview.c:311:43
	ldr	r2, [sp, #8]
	.loc	10 311 11                       @ lvgl/src/lv_widgets/lv_tileview.c:311:11
	blx	r3
	.loc	10 311 9                        @ lvgl/src/lv_widgets/lv_tileview.c:311:9
	strb.w	r0, [sp, #7]
.Ltmp38:
	.loc	10 312 8 is_stmt 1              @ lvgl/src/lv_widgets/lv_tileview.c:312:8
	ldrb.w	r0, [sp, #7]
.Ltmp39:
	.loc	10 312 8 is_stmt 0              @ lvgl/src/lv_widgets/lv_tileview.c:312:8
	cmp	r0, #1
	beq	.LBB1_2
	b	.LBB1_1
.LBB1_1:
.Ltmp40:
	.loc	10 312 33                       @ lvgl/src/lv_widgets/lv_tileview.c:312:33
	ldrb.w	r0, [sp, #7]
	.loc	10 312 26                       @ lvgl/src/lv_widgets/lv_tileview.c:312:26
	strb.w	r0, [sp, #23]
	b	.LBB1_7
.Ltmp41:
.LBB1_2:
	.loc	10 313 8 is_stmt 1              @ lvgl/src/lv_widgets/lv_tileview.c:313:8
	ldrb.w	r0, [sp, #15]
.Ltmp42:
	.loc	10 313 8 is_stmt 0              @ lvgl/src/lv_widgets/lv_tileview.c:313:8
	cmp	r0, #7
	bne	.LBB1_4
	b	.LBB1_3
.LBB1_3:
.Ltmp43:
	.loc	10 313 73                       @ lvgl/src/lv_widgets/lv_tileview.c:313:73
	ldr	r0, [sp, #8]
	.loc	10 313 43                       @ lvgl/src/lv_widgets/lv_tileview.c:313:43
	movw	r1, :lower16:.L.str.2
	movt	r1, :upper16:.L.str.2
	bl	lv_obj_handle_get_type_signal
	.loc	10 313 36                       @ lvgl/src/lv_widgets/lv_tileview.c:313:36
	strb.w	r0, [sp, #23]
	b	.LBB1_7
.Ltmp44:
.LBB1_4:
	.loc	10 315 8 is_stmt 1              @ lvgl/src/lv_widgets/lv_tileview.c:315:8
	ldrb.w	r0, [sp, #15]
.Ltmp45:
	.loc	10 315 8 is_stmt 0              @ lvgl/src/lv_widgets/lv_tileview.c:315:8
	cbnz	r0, .LBB1_6
	b	.LBB1_5
.LBB1_5:
.Ltmp46:
	.loc	10 317 5 is_stmt 1              @ lvgl/src/lv_widgets/lv_tileview.c:317:5
	b	.LBB1_6
.Ltmp47:
.LBB1_6:
	.loc	10 319 12                       @ lvgl/src/lv_widgets/lv_tileview.c:319:12
	ldrb.w	r0, [sp, #7]
	.loc	10 319 5 is_stmt 0              @ lvgl/src/lv_widgets/lv_tileview.c:319:5
	strb.w	r0, [sp, #23]
	b	.LBB1_7
.LBB1_7:
	.loc	10 320 1 is_stmt 1              @ lvgl/src/lv_widgets/lv_tileview.c:320:1
	ldrb.w	r0, [sp, #23]
	add	sp, #24
	pop	{r7, pc}
.Ltmp48:
.Lfunc_end1:
	.size	lv_tileview_signal, .Lfunc_end1-lv_tileview_signal
	.cfi_endproc
	.cantunwind
	.fnend
                                        @ -- End function
	.section	.text.lv_tileview_scrl_signal,"ax",%progbits
	.p2align	3                               @ -- Begin function lv_tileview_scrl_signal
	.type	lv_tileview_scrl_signal,%function
	.code	16                              @ @lv_tileview_scrl_signal
	.thumb_func
lv_tileview_scrl_signal:
.Lfunc_begin2:
	.loc	10 330 0                        @ lvgl/src/lv_widgets/lv_tileview.c:330:0
	.fnstart
	.cfi_startproc
@ %bb.0:
	.save	{r7, lr}
	push	{r7, lr}
	.cfi_def_cfa_offset 8
	.cfi_offset lr, -4
	.cfi_offset r7, -8
	.pad	#72
	sub	sp, #72
	.cfi_def_cfa_offset 80
                                        @ kill: def $r3 killed $r1
	str	r0, [sp, #64]
	strb.w	r1, [sp, #63]
	str	r2, [sp, #56]
.Ltmp49:
	.loc	10 335 11 prologue_end          @ lvgl/src/lv_widgets/lv_tileview.c:335:11
	movw	r0, :lower16:ancestor_scrl_signal
	movt	r0, :upper16:ancestor_scrl_signal
	ldr	r3, [r0]
	.loc	10 335 32 is_stmt 0             @ lvgl/src/lv_widgets/lv_tileview.c:335:32
	ldr	r0, [sp, #64]
	.loc	10 335 38                       @ lvgl/src/lv_widgets/lv_tileview.c:335:38
	ldrb.w	r1, [sp, #63]
	.loc	10 335 44                       @ lvgl/src/lv_widgets/lv_tileview.c:335:44
	ldr	r2, [sp, #56]
	.loc	10 335 11                       @ lvgl/src/lv_widgets/lv_tileview.c:335:11
	blx	r3
	.loc	10 335 9                        @ lvgl/src/lv_widgets/lv_tileview.c:335:9
	strb.w	r0, [sp, #55]
.Ltmp50:
	.loc	10 336 8 is_stmt 1              @ lvgl/src/lv_widgets/lv_tileview.c:336:8
	ldrb.w	r0, [sp, #55]
.Ltmp51:
	.loc	10 336 8 is_stmt 0              @ lvgl/src/lv_widgets/lv_tileview.c:336:8
	cmp	r0, #1
	beq	.LBB2_2
	b	.LBB2_1
.LBB2_1:
.Ltmp52:
	.loc	10 336 33                       @ lvgl/src/lv_widgets/lv_tileview.c:336:33
	ldrb.w	r0, [sp, #55]
	.loc	10 336 26                       @ lvgl/src/lv_widgets/lv_tileview.c:336:26
	strb.w	r0, [sp, #71]
	b	.LBB2_38
.Ltmp53:
.LBB2_2:
	.loc	10 337 8 is_stmt 1              @ lvgl/src/lv_widgets/lv_tileview.c:337:8
	ldrb.w	r0, [sp, #63]
.Ltmp54:
	.loc	10 337 8 is_stmt 0              @ lvgl/src/lv_widgets/lv_tileview.c:337:8
	cmp	r0, #7
	bne	.LBB2_4
	b	.LBB2_3
.LBB2_3:
.Ltmp55:
	.loc	10 337 73                       @ lvgl/src/lv_widgets/lv_tileview.c:337:73
	ldr	r0, [sp, #56]
	.loc	10 337 43                       @ lvgl/src/lv_widgets/lv_tileview.c:337:43
	movw	r1, :lower16:.L.str.3
	movt	r1, :upper16:.L.str.3
	bl	lv_obj_handle_get_type_signal
	.loc	10 337 36                       @ lvgl/src/lv_widgets/lv_tileview.c:337:36
	strb.w	r0, [sp, #71]
	b	.LBB2_38
.Ltmp56:
.LBB2_4:
	.loc	10 339 53 is_stmt 1             @ lvgl/src/lv_widgets/lv_tileview.c:339:53
	ldr	r0, [sp, #64]
	.loc	10 339 35 is_stmt 0             @ lvgl/src/lv_widgets/lv_tileview.c:339:35
	bl	lv_obj_get_parent
	.loc	10 339 16                       @ lvgl/src/lv_widgets/lv_tileview.c:339:16
	str	r0, [sp, #48]
.Ltmp57:
	.loc	10 341 8 is_stmt 1              @ lvgl/src/lv_widgets/lv_tileview.c:341:8
	ldrb.w	r0, [sp, #63]
.Ltmp58:
	.loc	10 341 8 is_stmt 0              @ lvgl/src/lv_widgets/lv_tileview.c:341:8
	cmp	r0, #17
	bne	.LBB2_6
	b	.LBB2_5
.LBB2_5:
.Ltmp59:
	.loc	10 342 29 is_stmt 1             @ lvgl/src/lv_widgets/lv_tileview.c:342:29
	ldr	r0, [sp, #48]
	.loc	10 342 9 is_stmt 0              @ lvgl/src/lv_widgets/lv_tileview.c:342:9
	bl	set_valid_drag_dirs
	.loc	10 343 5 is_stmt 1              @ lvgl/src/lv_widgets/lv_tileview.c:343:5
	b	.LBB2_37
.Ltmp60:
.LBB2_6:
	.loc	10 344 13                       @ lvgl/src/lv_widgets/lv_tileview.c:344:13
	ldrb.w	r0, [sp, #63]
.Ltmp61:
	.loc	10 344 13 is_stmt 0             @ lvgl/src/lv_widgets/lv_tileview.c:344:13
	cmp	r0, #18
	bne	.LBB2_10
	b	.LBB2_7
.LBB2_7:
.Ltmp62:
	.loc	10 345 26 is_stmt 1             @ lvgl/src/lv_widgets/lv_tileview.c:345:26
	ldr	r0, [sp, #48]
	.loc	10 345 9 is_stmt 0              @ lvgl/src/lv_widgets/lv_tileview.c:345:9
	bl	drag_end_handler
	.loc	10 347 36 is_stmt 1             @ lvgl/src/lv_widgets/lv_tileview.c:347:36
	bl	lv_indev_get_act
	.loc	10 347 15 is_stmt 0             @ lvgl/src/lv_widgets/lv_tileview.c:347:15
	bl	lv_indev_finish_drag
	.loc	10 347 13                       @ lvgl/src/lv_widgets/lv_tileview.c:347:13
	strb.w	r0, [sp, #55]
.Ltmp63:
	.loc	10 348 12 is_stmt 1             @ lvgl/src/lv_widgets/lv_tileview.c:348:12
	ldrb.w	r0, [sp, #55]
.Ltmp64:
	.loc	10 348 12 is_stmt 0             @ lvgl/src/lv_widgets/lv_tileview.c:348:12
	cmp	r0, #1
	beq	.LBB2_9
	b	.LBB2_8
.LBB2_8:
.Ltmp65:
	.loc	10 348 37                       @ lvgl/src/lv_widgets/lv_tileview.c:348:37
	ldrb.w	r0, [sp, #55]
	.loc	10 348 30                       @ lvgl/src/lv_widgets/lv_tileview.c:348:30
	strb.w	r0, [sp, #71]
	b	.LBB2_38
.Ltmp66:
.LBB2_9:
	.loc	10 349 5 is_stmt 1              @ lvgl/src/lv_widgets/lv_tileview.c:349:5
	b	.LBB2_36
.Ltmp67:
.LBB2_10:
	.loc	10 351 13                       @ lvgl/src/lv_widgets/lv_tileview.c:351:13
	ldrb.w	r0, [sp, #63]
.Ltmp68:
	.loc	10 351 13 is_stmt 0             @ lvgl/src/lv_widgets/lv_tileview.c:351:13
	cmp	r0, #2
	bne.w	.LBB2_35
	b	.LBB2_11
.LBB2_11:
.Ltmp69:
	.loc	10 352 30 is_stmt 1             @ lvgl/src/lv_widgets/lv_tileview.c:352:30
	bl	lv_indev_get_act
	.loc	10 352 22 is_stmt 0             @ lvgl/src/lv_widgets/lv_tileview.c:352:22
	str	r0, [sp, #44]
.Ltmp70:
	.loc	10 353 12 is_stmt 1             @ lvgl/src/lv_widgets/lv_tileview.c:353:12
	ldr	r0, [sp, #44]
.Ltmp71:
	.loc	10 353 12 is_stmt 0             @ lvgl/src/lv_widgets/lv_tileview.c:353:12
	cmp	r0, #0
	beq.w	.LBB2_34
	b	.LBB2_12
.LBB2_12:
.Ltmp72:
	.loc	10 354 59 is_stmt 1             @ lvgl/src/lv_widgets/lv_tileview.c:354:59
	ldr	r0, [sp, #48]
	.loc	10 354 39 is_stmt 0             @ lvgl/src/lv_widgets/lv_tileview.c:354:39
	bl	lv_obj_get_ext_attr
	.loc	10 354 33                       @ lvgl/src/lv_widgets/lv_tileview.c:354:33
	str	r0, [sp, #40]
	.loc	10 356 41 is_stmt 1             @ lvgl/src/lv_widgets/lv_tileview.c:356:41
	ldr	r0, [sp, #64]
	.loc	10 356 28 is_stmt 0             @ lvgl/src/lv_widgets/lv_tileview.c:356:28
	bl	lv_obj_get_x
	.loc	10 356 24                       @ lvgl/src/lv_widgets/lv_tileview.c:356:24
	strh.w	r0, [sp, #38]
	.loc	10 357 41 is_stmt 1             @ lvgl/src/lv_widgets/lv_tileview.c:357:41
	ldr	r0, [sp, #64]
	.loc	10 357 28 is_stmt 0             @ lvgl/src/lv_widgets/lv_tileview.c:357:28
	bl	lv_obj_get_y
	.loc	10 357 24                       @ lvgl/src/lv_widgets/lv_tileview.c:357:24
	strh.w	r0, [sp, #36]
	.loc	10 358 46 is_stmt 1             @ lvgl/src/lv_widgets/lv_tileview.c:358:46
	ldr	r0, [sp, #48]
	.loc	10 358 28 is_stmt 0             @ lvgl/src/lv_widgets/lv_tileview.c:358:28
	bl	lv_obj_get_height
	.loc	10 358 24                       @ lvgl/src/lv_widgets/lv_tileview.c:358:24
	strh.w	r0, [sp, #34]
	.loc	10 359 45 is_stmt 1             @ lvgl/src/lv_widgets/lv_tileview.c:359:45
	ldr	r0, [sp, #48]
	.loc	10 359 28 is_stmt 0             @ lvgl/src/lv_widgets/lv_tileview.c:359:28
	bl	lv_obj_get_width
	.loc	10 359 24                       @ lvgl/src/lv_widgets/lv_tileview.c:359:24
	strh.w	r0, [sp, #32]
	.loc	10 360 55 is_stmt 1             @ lvgl/src/lv_widgets/lv_tileview.c:360:55
	ldr	r0, [sp, #48]
	movs	r1, #0
	.loc	10 360 30 is_stmt 0             @ lvgl/src/lv_widgets/lv_tileview.c:360:30
	str	r1, [sp, #20]                   @ 4-byte Spill
	bl	lv_obj_get_style_pad_top
	ldr	r1, [sp, #20]                   @ 4-byte Reload
	.loc	10 360 24                       @ lvgl/src/lv_widgets/lv_tileview.c:360:24
	strh.w	r0, [sp, #30]
	.loc	10 361 57 is_stmt 1             @ lvgl/src/lv_widgets/lv_tileview.c:361:57
	ldr	r0, [sp, #48]
	.loc	10 361 31 is_stmt 0             @ lvgl/src/lv_widgets/lv_tileview.c:361:31
	bl	lv_obj_get_style_pad_left
	.loc	10 361 24                       @ lvgl/src/lv_widgets/lv_tileview.c:361:24
	strh.w	r0, [sp, #28]
.Ltmp73:
	.loc	10 362 17 is_stmt 1             @ lvgl/src/lv_widgets/lv_tileview.c:362:17
	ldr	r0, [sp, #40]
	.loc	10 362 22 is_stmt 0             @ lvgl/src/lv_widgets/lv_tileview.c:362:22
	ldrb.w	r0, [r0, #76]
	.loc	10 362 34                       @ lvgl/src/lv_widgets/lv_tileview.c:362:34
	lsls	r0, r0, #31
	cbnz	r0, .LBB2_16
	b	.LBB2_13
.LBB2_13:
	.loc	10 362 37                       @ lvgl/src/lv_widgets/lv_tileview.c:362:37
	ldrsh.w	r0, [sp, #36]
	.loc	10 362 43                       @ lvgl/src/lv_widgets/lv_tileview.c:362:43
	ldr	r1, [sp, #40]
	.loc	10 362 55                       @ lvgl/src/lv_widgets/lv_tileview.c:362:55
	ldrsh.w	r1, [r1, #74]
	.loc	10 362 59                       @ lvgl/src/lv_widgets/lv_tileview.c:362:59
	ldrsh.w	r2, [sp, #34]
	.loc	10 362 57                       @ lvgl/src/lv_widgets/lv_tileview.c:362:57
	muls	r1, r2, r1
	.loc	10 362 41                       @ lvgl/src/lv_widgets/lv_tileview.c:362:41
	rsbs	r1, r1, #0
	.loc	10 362 62                       @ lvgl/src/lv_widgets/lv_tileview.c:362:62
	cmp	r0, r1
	ble	.LBB2_16
	b	.LBB2_14
.LBB2_14:
	.loc	10 362 65                       @ lvgl/src/lv_widgets/lv_tileview.c:362:65
	ldr	r0, [sp, #44]
	.loc	10 362 96                       @ lvgl/src/lv_widgets/lv_tileview.c:362:96
	ldrsh.w	r0, [r0, #42]
.Ltmp74:
	.loc	10 362 16                       @ lvgl/src/lv_widgets/lv_tileview.c:362:16
	cmp	r0, #1
	blt	.LBB2_16
	b	.LBB2_15
.LBB2_15:
.Ltmp75:
	.loc	10 363 42 is_stmt 1             @ lvgl/src/lv_widgets/lv_tileview.c:363:42
	ldr	r0, [sp, #48]
	movs	r1, #2
	.loc	10 363 17 is_stmt 0             @ lvgl/src/lv_widgets/lv_tileview.c:363:17
	bl	lv_page_start_edge_flash
	.loc	10 364 30 is_stmt 1             @ lvgl/src/lv_widgets/lv_tileview.c:364:30
	ldr	r0, [sp, #64]
	.loc	10 364 37 is_stmt 0             @ lvgl/src/lv_widgets/lv_tileview.c:364:37
	ldr	r1, [sp, #40]
	ldrh.w	r1, [r1, #74]
	.loc	10 364 36                       @ lvgl/src/lv_widgets/lv_tileview.c:364:36
	rsbs	r1, r1, #0
	.loc	10 364 53                       @ lvgl/src/lv_widgets/lv_tileview.c:364:53
	ldrh.w	r2, [sp, #34]
	.loc	10 364 57                       @ lvgl/src/lv_widgets/lv_tileview.c:364:57
	ldrh.w	r3, [sp, #30]
	.loc	10 364 55                       @ lvgl/src/lv_widgets/lv_tileview.c:364:55
	mla	r1, r1, r2, r3
	.loc	10 364 17                       @ lvgl/src/lv_widgets/lv_tileview.c:364:17
	sxth	r1, r1
	bl	lv_obj_set_y
	.loc	10 365 13 is_stmt 1             @ lvgl/src/lv_widgets/lv_tileview.c:365:13
	b	.LBB2_16
.Ltmp76:
.LBB2_16:
	.loc	10 366 17                       @ lvgl/src/lv_widgets/lv_tileview.c:366:17
	ldr	r0, [sp, #40]
	.loc	10 366 22 is_stmt 0             @ lvgl/src/lv_widgets/lv_tileview.c:366:22
	ldrb.w	r0, [r0, #76]
	lsrs	r0, r0, #1
	.loc	10 366 37                       @ lvgl/src/lv_widgets/lv_tileview.c:366:37
	lsls	r0, r0, #31
	cbnz	r0, .LBB2_20
	b	.LBB2_17
.LBB2_17:
	.loc	10 366 40                       @ lvgl/src/lv_widgets/lv_tileview.c:366:40
	ldr	r0, [sp, #44]
	.loc	10 366 71                       @ lvgl/src/lv_widgets/lv_tileview.c:366:71
	ldrsh.w	r0, [r0, #42]
	.loc	10 366 77                       @ lvgl/src/lv_widgets/lv_tileview.c:366:77
	cmp.w	r0, #-1
	bgt	.LBB2_20
	b	.LBB2_18
.LBB2_18:
	.loc	10 366 80                       @ lvgl/src/lv_widgets/lv_tileview.c:366:80
	ldrsh.w	r0, [sp, #36]
	.loc	10 366 86                       @ lvgl/src/lv_widgets/lv_tileview.c:366:86
	ldr	r1, [sp, #40]
	.loc	10 366 98                       @ lvgl/src/lv_widgets/lv_tileview.c:366:98
	ldrsh.w	r1, [r1, #74]
	.loc	10 366 102                      @ lvgl/src/lv_widgets/lv_tileview.c:366:102
	ldrsh.w	r2, [sp, #34]
	.loc	10 366 100                      @ lvgl/src/lv_widgets/lv_tileview.c:366:100
	muls	r1, r2, r1
	.loc	10 366 84                       @ lvgl/src/lv_widgets/lv_tileview.c:366:84
	rsbs	r1, r1, #0
.Ltmp77:
	.loc	10 366 16                       @ lvgl/src/lv_widgets/lv_tileview.c:366:16
	cmp	r0, r1
	bge	.LBB2_20
	b	.LBB2_19
.LBB2_19:
.Ltmp78:
	.loc	10 367 42 is_stmt 1             @ lvgl/src/lv_widgets/lv_tileview.c:367:42
	ldr	r0, [sp, #48]
	movs	r1, #8
	.loc	10 367 17 is_stmt 0             @ lvgl/src/lv_widgets/lv_tileview.c:367:17
	bl	lv_page_start_edge_flash
	.loc	10 368 30 is_stmt 1             @ lvgl/src/lv_widgets/lv_tileview.c:368:30
	ldr	r0, [sp, #64]
	.loc	10 368 37 is_stmt 0             @ lvgl/src/lv_widgets/lv_tileview.c:368:37
	ldr	r1, [sp, #40]
	ldrh.w	r1, [r1, #74]
	.loc	10 368 36                       @ lvgl/src/lv_widgets/lv_tileview.c:368:36
	rsbs	r1, r1, #0
	.loc	10 368 53                       @ lvgl/src/lv_widgets/lv_tileview.c:368:53
	ldrh.w	r2, [sp, #34]
	.loc	10 368 57                       @ lvgl/src/lv_widgets/lv_tileview.c:368:57
	ldrh.w	r3, [sp, #30]
	.loc	10 368 55                       @ lvgl/src/lv_widgets/lv_tileview.c:368:55
	mla	r1, r1, r2, r3
	.loc	10 368 17                       @ lvgl/src/lv_widgets/lv_tileview.c:368:17
	sxth	r1, r1
	bl	lv_obj_set_y
	.loc	10 369 13 is_stmt 1             @ lvgl/src/lv_widgets/lv_tileview.c:369:13
	b	.LBB2_20
.Ltmp79:
.LBB2_20:
	.loc	10 371 17                       @ lvgl/src/lv_widgets/lv_tileview.c:371:17
	ldr	r0, [sp, #40]
	.loc	10 371 22 is_stmt 0             @ lvgl/src/lv_widgets/lv_tileview.c:371:22
	ldrb.w	r0, [r0, #76]
	lsrs	r0, r0, #2
	.loc	10 371 35                       @ lvgl/src/lv_widgets/lv_tileview.c:371:35
	lsls	r0, r0, #31
	cbnz	r0, .LBB2_24
	b	.LBB2_21
.LBB2_21:
	.loc	10 371 38                       @ lvgl/src/lv_widgets/lv_tileview.c:371:38
	ldrsh.w	r0, [sp, #38]
	.loc	10 371 44                       @ lvgl/src/lv_widgets/lv_tileview.c:371:44
	ldr	r1, [sp, #40]
	.loc	10 371 56                       @ lvgl/src/lv_widgets/lv_tileview.c:371:56
	ldrsh.w	r1, [r1, #72]
	.loc	10 371 60                       @ lvgl/src/lv_widgets/lv_tileview.c:371:60
	ldrsh.w	r2, [sp, #32]
	.loc	10 371 58                       @ lvgl/src/lv_widgets/lv_tileview.c:371:58
	muls	r1, r2, r1
	.loc	10 371 42                       @ lvgl/src/lv_widgets/lv_tileview.c:371:42
	rsbs	r1, r1, #0
	.loc	10 371 63                       @ lvgl/src/lv_widgets/lv_tileview.c:371:63
	cmp	r0, r1
	ble	.LBB2_24
	b	.LBB2_22
.LBB2_22:
	.loc	10 371 66                       @ lvgl/src/lv_widgets/lv_tileview.c:371:66
	ldr	r0, [sp, #44]
	.loc	10 371 97                       @ lvgl/src/lv_widgets/lv_tileview.c:371:97
	ldrsh.w	r0, [r0, #40]
.Ltmp80:
	.loc	10 371 16                       @ lvgl/src/lv_widgets/lv_tileview.c:371:16
	cmp	r0, #1
	blt	.LBB2_24
	b	.LBB2_23
.LBB2_23:
.Ltmp81:
	.loc	10 372 42 is_stmt 1             @ lvgl/src/lv_widgets/lv_tileview.c:372:42
	ldr	r0, [sp, #48]
	movs	r1, #1
	.loc	10 372 17 is_stmt 0             @ lvgl/src/lv_widgets/lv_tileview.c:372:17
	bl	lv_page_start_edge_flash
	.loc	10 373 30 is_stmt 1             @ lvgl/src/lv_widgets/lv_tileview.c:373:30
	ldr	r0, [sp, #64]
	.loc	10 373 37 is_stmt 0             @ lvgl/src/lv_widgets/lv_tileview.c:373:37
	ldr	r1, [sp, #40]
	ldrh.w	r1, [r1, #72]
	.loc	10 373 36                       @ lvgl/src/lv_widgets/lv_tileview.c:373:36
	rsbs	r1, r1, #0
	.loc	10 373 53                       @ lvgl/src/lv_widgets/lv_tileview.c:373:53
	ldrh.w	r2, [sp, #32]
	.loc	10 373 57                       @ lvgl/src/lv_widgets/lv_tileview.c:373:57
	ldrh.w	r3, [sp, #28]
	.loc	10 373 55                       @ lvgl/src/lv_widgets/lv_tileview.c:373:55
	mla	r1, r1, r2, r3
	.loc	10 373 17                       @ lvgl/src/lv_widgets/lv_tileview.c:373:17
	sxth	r1, r1
	bl	lv_obj_set_x
	.loc	10 374 13 is_stmt 1             @ lvgl/src/lv_widgets/lv_tileview.c:374:13
	b	.LBB2_24
.Ltmp82:
.LBB2_24:
	.loc	10 376 17                       @ lvgl/src/lv_widgets/lv_tileview.c:376:17
	ldr	r0, [sp, #40]
	.loc	10 376 22 is_stmt 0             @ lvgl/src/lv_widgets/lv_tileview.c:376:22
	ldrb.w	r0, [r0, #76]
	lsrs	r0, r0, #3
	.loc	10 376 36                       @ lvgl/src/lv_widgets/lv_tileview.c:376:36
	lsls	r0, r0, #31
	cbnz	r0, .LBB2_28
	b	.LBB2_25
.LBB2_25:
	.loc	10 376 39                       @ lvgl/src/lv_widgets/lv_tileview.c:376:39
	ldr	r0, [sp, #44]
	.loc	10 376 70                       @ lvgl/src/lv_widgets/lv_tileview.c:376:70
	ldrsh.w	r0, [r0, #40]
	.loc	10 376 76                       @ lvgl/src/lv_widgets/lv_tileview.c:376:76
	cmp.w	r0, #-1
	bgt	.LBB2_28
	b	.LBB2_26
.LBB2_26:
	.loc	10 376 79                       @ lvgl/src/lv_widgets/lv_tileview.c:376:79
	ldrsh.w	r0, [sp, #38]
	.loc	10 376 85                       @ lvgl/src/lv_widgets/lv_tileview.c:376:85
	ldr	r1, [sp, #40]
	.loc	10 376 97                       @ lvgl/src/lv_widgets/lv_tileview.c:376:97
	ldrsh.w	r1, [r1, #72]
	.loc	10 376 101                      @ lvgl/src/lv_widgets/lv_tileview.c:376:101
	ldrsh.w	r2, [sp, #32]
	.loc	10 376 99                       @ lvgl/src/lv_widgets/lv_tileview.c:376:99
	muls	r1, r2, r1
	.loc	10 376 83                       @ lvgl/src/lv_widgets/lv_tileview.c:376:83
	rsbs	r1, r1, #0
.Ltmp83:
	.loc	10 376 16                       @ lvgl/src/lv_widgets/lv_tileview.c:376:16
	cmp	r0, r1
	bge	.LBB2_28
	b	.LBB2_27
.LBB2_27:
.Ltmp84:
	.loc	10 377 42 is_stmt 1             @ lvgl/src/lv_widgets/lv_tileview.c:377:42
	ldr	r0, [sp, #48]
	movs	r1, #4
	.loc	10 377 17 is_stmt 0             @ lvgl/src/lv_widgets/lv_tileview.c:377:17
	bl	lv_page_start_edge_flash
	.loc	10 378 30 is_stmt 1             @ lvgl/src/lv_widgets/lv_tileview.c:378:30
	ldr	r0, [sp, #64]
	.loc	10 378 37 is_stmt 0             @ lvgl/src/lv_widgets/lv_tileview.c:378:37
	ldr	r1, [sp, #40]
	ldrh.w	r1, [r1, #72]
	.loc	10 378 36                       @ lvgl/src/lv_widgets/lv_tileview.c:378:36
	rsbs	r1, r1, #0
	.loc	10 378 53                       @ lvgl/src/lv_widgets/lv_tileview.c:378:53
	ldrh.w	r2, [sp, #32]
	.loc	10 378 57                       @ lvgl/src/lv_widgets/lv_tileview.c:378:57
	ldrh.w	r3, [sp, #28]
	.loc	10 378 55                       @ lvgl/src/lv_widgets/lv_tileview.c:378:55
	mla	r1, r1, r2, r3
	.loc	10 378 17                       @ lvgl/src/lv_widgets/lv_tileview.c:378:17
	sxth	r1, r1
	bl	lv_obj_set_x
	.loc	10 379 13 is_stmt 1             @ lvgl/src/lv_widgets/lv_tileview.c:379:13
	b	.LBB2_28
.Ltmp85:
.LBB2_28:
	.loc	10 382 38                       @ lvgl/src/lv_widgets/lv_tileview.c:382:38
	ldr	r0, [sp, #44]
	.loc	10 382 64 is_stmt 0             @ lvgl/src/lv_widgets/lv_tileview.c:382:64
	ldrb.w	r0, [r0, #70]
	ubfx	r0, r0, #2, #3
	.loc	10 382 27                       @ lvgl/src/lv_widgets/lv_tileview.c:382:27
	strb.w	r0, [sp, #27]
.Ltmp86:
	.loc	10 383 16 is_stmt 1             @ lvgl/src/lv_widgets/lv_tileview.c:383:16
	ldrb.w	r0, [sp, #27]
.Ltmp87:
	.loc	10 383 16 is_stmt 0             @ lvgl/src/lv_widgets/lv_tileview.c:383:16
	cmp	r0, #1
	bne	.LBB2_30
	b	.LBB2_29
.LBB2_29:
.Ltmp88:
	.loc	10 384 30 is_stmt 1             @ lvgl/src/lv_widgets/lv_tileview.c:384:30
	ldr	r0, [sp, #64]
	.loc	10 384 37 is_stmt 0             @ lvgl/src/lv_widgets/lv_tileview.c:384:37
	str	r0, [sp, #16]                   @ 4-byte Spill
	ldr	r0, [sp, #40]
	ldrh.w	r0, [r0, #74]
	.loc	10 384 36                       @ lvgl/src/lv_widgets/lv_tileview.c:384:36
	rsbs	r0, r0, #0
	.loc	10 384 71                       @ lvgl/src/lv_widgets/lv_tileview.c:384:71
	str	r0, [sp, #12]                   @ 4-byte Spill
	ldr	r0, [sp, #48]
	.loc	10 384 53                       @ lvgl/src/lv_widgets/lv_tileview.c:384:53
	bl	lv_obj_get_height
	ldr	r1, [sp, #12]                   @ 4-byte Reload
	mov	r2, r0
	.loc	10 384 83                       @ lvgl/src/lv_widgets/lv_tileview.c:384:83
	ldr	r0, [sp, #16]                   @ 4-byte Reload
	ldrh.w	r3, [sp, #30]
	.loc	10 384 81                       @ lvgl/src/lv_widgets/lv_tileview.c:384:81
	mla	r1, r1, r2, r3
	.loc	10 384 17                       @ lvgl/src/lv_widgets/lv_tileview.c:384:17
	sxth	r1, r1
	bl	lv_obj_set_y
	b	.LBB2_33
.LBB2_30:
.Ltmp89:
	.loc	10 385 21 is_stmt 1             @ lvgl/src/lv_widgets/lv_tileview.c:385:21
	ldrb.w	r0, [sp, #27]
.Ltmp90:
	.loc	10 385 21 is_stmt 0             @ lvgl/src/lv_widgets/lv_tileview.c:385:21
	cmp	r0, #2
	bne	.LBB2_32
	b	.LBB2_31
.LBB2_31:
.Ltmp91:
	.loc	10 386 30 is_stmt 1             @ lvgl/src/lv_widgets/lv_tileview.c:386:30
	ldr	r0, [sp, #64]
	.loc	10 386 37 is_stmt 0             @ lvgl/src/lv_widgets/lv_tileview.c:386:37
	str	r0, [sp, #8]                    @ 4-byte Spill
	ldr	r0, [sp, #40]
	ldrh.w	r0, [r0, #72]
	.loc	10 386 36                       @ lvgl/src/lv_widgets/lv_tileview.c:386:36
	rsbs	r0, r0, #0
	.loc	10 386 70                       @ lvgl/src/lv_widgets/lv_tileview.c:386:70
	str	r0, [sp, #4]                    @ 4-byte Spill
	ldr	r0, [sp, #48]
	.loc	10 386 53                       @ lvgl/src/lv_widgets/lv_tileview.c:386:53
	bl	lv_obj_get_width
	ldr	r1, [sp, #4]                    @ 4-byte Reload
	mov	r2, r0
	.loc	10 386 82                       @ lvgl/src/lv_widgets/lv_tileview.c:386:82
	ldr	r0, [sp, #8]                    @ 4-byte Reload
	ldrh.w	r3, [sp, #28]
	.loc	10 386 80                       @ lvgl/src/lv_widgets/lv_tileview.c:386:80
	mla	r1, r1, r2, r3
	.loc	10 386 17                       @ lvgl/src/lv_widgets/lv_tileview.c:386:17
	sxth	r1, r1
	bl	lv_obj_set_x
	b	.LBB2_32
.Ltmp92:
.LBB2_32:
	.loc	10 0 17                         @ lvgl/src/lv_widgets/lv_tileview.c:0:17
	b	.LBB2_33
.LBB2_33:
	.loc	10 387 9 is_stmt 1              @ lvgl/src/lv_widgets/lv_tileview.c:387:9
	b	.LBB2_34
.Ltmp93:
.LBB2_34:
	.loc	10 388 5                        @ lvgl/src/lv_widgets/lv_tileview.c:388:5
	b	.LBB2_35
.Ltmp94:
.LBB2_35:
	.loc	10 0 5 is_stmt 0                @ lvgl/src/lv_widgets/lv_tileview.c:0:5
	b	.LBB2_36
.LBB2_36:
	b	.LBB2_37
.LBB2_37:
	.loc	10 389 12 is_stmt 1             @ lvgl/src/lv_widgets/lv_tileview.c:389:12
	ldrb.w	r0, [sp, #55]
	.loc	10 389 5 is_stmt 0              @ lvgl/src/lv_widgets/lv_tileview.c:389:5
	strb.w	r0, [sp, #71]
	b	.LBB2_38
.LBB2_38:
	.loc	10 390 1 is_stmt 1              @ lvgl/src/lv_widgets/lv_tileview.c:390:1
	ldrb.w	r0, [sp, #71]
	add	sp, #72
	pop	{r7, pc}
.Ltmp95:
.Lfunc_end2:
	.size	lv_tileview_scrl_signal, .Lfunc_end2-lv_tileview_scrl_signal
	.cfi_endproc
	.cantunwind
	.fnend
                                        @ -- End function
	.section	.text.lv_page_set_scrollable_fit,"ax",%progbits
	.p2align	3                               @ -- Begin function lv_page_set_scrollable_fit
	.type	lv_page_set_scrollable_fit,%function
	.code	16                              @ @lv_page_set_scrollable_fit
	.thumb_func
lv_page_set_scrollable_fit:
.Lfunc_begin3:
	.loc	12 198 0                        @ lvgl/src/lv_widgets/../lv_widgets/lv_page.h:198:0
	.fnstart
	.cfi_startproc
@ %bb.0:
	.save	{r7, lr}
	push	{r7, lr}
	.cfi_def_cfa_offset 8
	.cfi_offset lr, -4
	.cfi_offset r7, -8
	.pad	#8
	sub	sp, #8
	.cfi_def_cfa_offset 16
                                        @ kill: def $r2 killed $r1
	str	r0, [sp, #4]
	strb.w	r1, [sp, #3]
.Ltmp96:
	.loc	12 199 44 prologue_end          @ lvgl/src/lv_widgets/../lv_widgets/lv_page.h:199:44
	ldr	r0, [sp, #4]
	.loc	12 199 21 is_stmt 0             @ lvgl/src/lv_widgets/../lv_widgets/lv_page.h:199:21
	bl	lv_page_get_scrollable
	.loc	12 199 51                       @ lvgl/src/lv_widgets/../lv_widgets/lv_page.h:199:51
	ldrb.w	r1, [sp, #3]
	.loc	12 199 5                        @ lvgl/src/lv_widgets/../lv_widgets/lv_page.h:199:5
	bl	lv_cont_set_fit
	.loc	12 200 1 is_stmt 1              @ lvgl/src/lv_widgets/../lv_widgets/lv_page.h:200:1
	add	sp, #8
	pop	{r7, pc}
.Ltmp97:
.Lfunc_end3:
	.size	lv_page_set_scrollable_fit, .Lfunc_end3-lv_page_set_scrollable_fit
	.cfi_endproc
	.cantunwind
	.fnend
                                        @ -- End function
	.section	.text.lv_tileview_add_element,"ax",%progbits
	.hidden	lv_tileview_add_element         @ -- Begin function lv_tileview_add_element
	.globl	lv_tileview_add_element
	.p2align	3
	.type	lv_tileview_add_element,%function
	.code	16                              @ @lv_tileview_add_element
	.thumb_func
lv_tileview_add_element:
.Lfunc_begin4:
	.loc	10 154 0                        @ lvgl/src/lv_widgets/lv_tileview.c:154:0
	.fnstart
	.cfi_startproc
@ %bb.0:
	.save	{r7, lr}
	push	{r7, lr}
	.cfi_def_cfa_offset 8
	.cfi_offset lr, -4
	.cfi_offset r7, -8
	.pad	#8
	sub	sp, #8
	.cfi_def_cfa_offset 16
	str	r0, [sp, #4]
	str	r1, [sp]
.Ltmp98:
	.loc	10 156 5 prologue_end           @ lvgl/src/lv_widgets/lv_tileview.c:156:5
	b	.LBB4_1
.LBB4_1:
.Ltmp99:
	.loc	10 156 5 is_stmt 0              @ lvgl/src/lv_widgets/lv_tileview.c:156:5
	ldr	r0, [sp, #4]
	bl	lv_debug_check_null
.Ltmp100:
	.loc	10 156 5                        @ lvgl/src/lv_widgets/lv_tileview.c:156:5
	cbnz	r0, .LBB4_4
	b	.LBB4_2
.LBB4_2:
.Ltmp101:
	.loc	10 156 5                        @ lvgl/src/lv_widgets/lv_tileview.c:156:5
	ldr	r2, [sp, #4]
	movw	r0, :lower16:.L.str.1
	movt	r0, :upper16:.L.str.1
	movs	r3, #0
	bl	lv_debug_log_error
	b	.LBB4_3
.LBB4_3:                                @ =>This Inner Loop Header: Depth=1
	b	.LBB4_3
.Ltmp102:
.LBB4_4:
	.loc	10 156 5                        @ lvgl/src/lv_widgets/lv_tileview.c:156:5
	b	.LBB4_5
.Ltmp103:
.LBB4_5:
	.loc	10 157 5 is_stmt 1              @ lvgl/src/lv_widgets/lv_tileview.c:157:5
	b	.LBB4_6
.LBB4_6:
.Ltmp104:
	.loc	10 157 5 is_stmt 0              @ lvgl/src/lv_widgets/lv_tileview.c:157:5
	ldr	r0, [sp, #4]
	bl	lv_debug_check_null
.Ltmp105:
	.loc	10 157 5                        @ lvgl/src/lv_widgets/lv_tileview.c:157:5
	cbnz	r0, .LBB4_9
	b	.LBB4_7
.LBB4_7:
.Ltmp106:
	.loc	10 157 5                        @ lvgl/src/lv_widgets/lv_tileview.c:157:5
	ldr	r2, [sp, #4]
	movw	r0, :lower16:.L.str.1
	movt	r0, :upper16:.L.str.1
	movs	r3, #0
	bl	lv_debug_log_error
	b	.LBB4_8
.LBB4_8:                                @ =>This Inner Loop Header: Depth=1
	b	.LBB4_8
.Ltmp107:
.LBB4_9:
	.loc	10 157 5                        @ lvgl/src/lv_widgets/lv_tileview.c:157:5
	b	.LBB4_10
.Ltmp108:
.LBB4_10:
	.loc	10 159 22 is_stmt 1             @ lvgl/src/lv_widgets/lv_tileview.c:159:22
	ldr	r0, [sp]
	movs	r1, #1
	.loc	10 159 5 is_stmt 0              @ lvgl/src/lv_widgets/lv_tileview.c:159:5
	bl	lv_page_glue_obj
	.loc	10 160 1 is_stmt 1              @ lvgl/src/lv_widgets/lv_tileview.c:160:1
	add	sp, #8
	pop	{r7, pc}
.Ltmp109:
.Lfunc_end4:
	.size	lv_tileview_add_element, .Lfunc_end4-lv_tileview_add_element
	.cfi_endproc
	.cantunwind
	.fnend
                                        @ -- End function
	.section	.text.lv_tileview_set_valid_positions,"ax",%progbits
	.hidden	lv_tileview_set_valid_positions @ -- Begin function lv_tileview_set_valid_positions
	.globl	lv_tileview_set_valid_positions
	.p2align	3
	.type	lv_tileview_set_valid_positions,%function
	.code	16                              @ @lv_tileview_set_valid_positions
	.thumb_func
lv_tileview_set_valid_positions:
.Lfunc_begin5:
	.loc	10 174 0                        @ lvgl/src/lv_widgets/lv_tileview.c:174:0
	.fnstart
	.cfi_startproc
@ %bb.0:
	.save	{r7, lr}
	push	{r7, lr}
	.cfi_def_cfa_offset 8
	.cfi_offset lr, -4
	.cfi_offset r7, -8
	.pad	#24
	sub	sp, #24
	.cfi_def_cfa_offset 32
                                        @ kill: def $r3 killed $r2
	str	r0, [sp, #20]
	str	r1, [sp, #16]
	strh.w	r2, [sp, #14]
.Ltmp110:
	.loc	10 175 5 prologue_end           @ lvgl/src/lv_widgets/lv_tileview.c:175:5
	b	.LBB5_1
.LBB5_1:
.Ltmp111:
	.loc	10 175 5 is_stmt 0              @ lvgl/src/lv_widgets/lv_tileview.c:175:5
	ldr	r0, [sp, #20]
	bl	lv_debug_check_null
.Ltmp112:
	.loc	10 175 5                        @ lvgl/src/lv_widgets/lv_tileview.c:175:5
	cbnz	r0, .LBB5_4
	b	.LBB5_2
.LBB5_2:
.Ltmp113:
	.loc	10 175 5                        @ lvgl/src/lv_widgets/lv_tileview.c:175:5
	ldr	r2, [sp, #20]
	movw	r0, :lower16:.L.str.1
	movt	r0, :upper16:.L.str.1
	movs	r3, #0
	bl	lv_debug_log_error
	b	.LBB5_3
.LBB5_3:                                @ =>This Inner Loop Header: Depth=1
	b	.LBB5_3
.Ltmp114:
.LBB5_4:
	.loc	10 175 5                        @ lvgl/src/lv_widgets/lv_tileview.c:175:5
	b	.LBB5_5
.Ltmp115:
.LBB5_5:
	.loc	10 176 5 is_stmt 1              @ lvgl/src/lv_widgets/lv_tileview.c:176:5
	b	.LBB5_6
.LBB5_6:
.Ltmp116:
	.loc	10 176 5 is_stmt 0              @ lvgl/src/lv_widgets/lv_tileview.c:176:5
	ldr	r0, [sp, #16]
	bl	lv_debug_check_null
.Ltmp117:
	.loc	10 176 5                        @ lvgl/src/lv_widgets/lv_tileview.c:176:5
	cbnz	r0, .LBB5_9
	b	.LBB5_7
.LBB5_7:
.Ltmp118:
	.loc	10 176 5                        @ lvgl/src/lv_widgets/lv_tileview.c:176:5
	ldr	r2, [sp, #16]
	movw	r0, :lower16:.L.str.1
	movt	r0, :upper16:.L.str.1
	movs	r3, #0
	bl	lv_debug_log_error
	b	.LBB5_8
.LBB5_8:                                @ =>This Inner Loop Header: Depth=1
	b	.LBB5_8
.Ltmp119:
.LBB5_9:
	.loc	10 176 5                        @ lvgl/src/lv_widgets/lv_tileview.c:176:5
	b	.LBB5_10
.Ltmp120:
.LBB5_10:
	.loc	10 178 51 is_stmt 1             @ lvgl/src/lv_widgets/lv_tileview.c:178:51
	ldr	r0, [sp, #20]
	.loc	10 178 31 is_stmt 0             @ lvgl/src/lv_widgets/lv_tileview.c:178:31
	bl	lv_obj_get_ext_attr
	.loc	10 178 25                       @ lvgl/src/lv_widgets/lv_tileview.c:178:25
	str	r0, [sp, #8]
	.loc	10 179 31 is_stmt 1             @ lvgl/src/lv_widgets/lv_tileview.c:179:31
	ldr	r0, [sp, #16]
	.loc	10 179 5 is_stmt 0              @ lvgl/src/lv_widgets/lv_tileview.c:179:5
	ldr	r1, [sp, #8]
	.loc	10 179 29                       @ lvgl/src/lv_widgets/lv_tileview.c:179:29
	str	r0, [r1, #64]
	.loc	10 180 31 is_stmt 1             @ lvgl/src/lv_widgets/lv_tileview.c:180:31
	ldrh.w	r0, [sp, #14]
	.loc	10 180 5 is_stmt 0              @ lvgl/src/lv_widgets/lv_tileview.c:180:5
	ldr	r1, [sp, #8]
	.loc	10 180 29                       @ lvgl/src/lv_widgets/lv_tileview.c:180:29
	strh.w	r0, [r1, #68]
	.loc	10 182 25 is_stmt 1             @ lvgl/src/lv_widgets/lv_tileview.c:182:25
	ldr	r0, [sp, #20]
	.loc	10 182 5 is_stmt 0              @ lvgl/src/lv_widgets/lv_tileview.c:182:5
	bl	set_valid_drag_dirs
	movs	r0, #0
.Ltmp121:
	.loc	10 186 11 is_stmt 1             @ lvgl/src/lv_widgets/lv_tileview.c:186:11
	strh.w	r0, [sp, #6]
	.loc	10 186 9 is_stmt 0              @ lvgl/src/lv_widgets/lv_tileview.c:186:9
	b	.LBB5_11
.LBB5_11:                               @ =>This Inner Loop Header: Depth=1
.Ltmp122:
	.loc	10 186 16                       @ lvgl/src/lv_widgets/lv_tileview.c:186:16
	ldrh.w	r0, [sp, #6]
	.loc	10 186 20                       @ lvgl/src/lv_widgets/lv_tileview.c:186:20
	ldrh.w	r1, [sp, #14]
.Ltmp123:
	.loc	10 186 5                        @ lvgl/src/lv_widgets/lv_tileview.c:186:5
	cmp	r0, r1
	bge	.LBB5_17
	b	.LBB5_12
.LBB5_12:                               @   in Loop: Header=BB5_11 Depth=1
.Ltmp124:
	.loc	10 187 12 is_stmt 1             @ lvgl/src/lv_widgets/lv_tileview.c:187:12
	ldr	r0, [sp, #16]
	.loc	10 187 22 is_stmt 0             @ lvgl/src/lv_widgets/lv_tileview.c:187:22
	ldrh.w	r1, [sp, #6]
	.loc	10 187 25                       @ lvgl/src/lv_widgets/lv_tileview.c:187:25
	ldrsh.w	r0, [r0, r1, lsl #2]
	.loc	10 187 30                       @ lvgl/src/lv_widgets/lv_tileview.c:187:30
	ldr	r1, [sp, #8]
	.loc	10 187 42                       @ lvgl/src/lv_widgets/lv_tileview.c:187:42
	ldrsh.w	r1, [r1, #72]
	.loc	10 187 44                       @ lvgl/src/lv_widgets/lv_tileview.c:187:44
	cmp	r0, r1
	bne	.LBB5_15
	b	.LBB5_13
.LBB5_13:                               @   in Loop: Header=BB5_11 Depth=1
	.loc	10 187 47                       @ lvgl/src/lv_widgets/lv_tileview.c:187:47
	ldr	r0, [sp, #16]
	.loc	10 187 57                       @ lvgl/src/lv_widgets/lv_tileview.c:187:57
	ldrh.w	r1, [sp, #6]
	.loc	10 187 47                       @ lvgl/src/lv_widgets/lv_tileview.c:187:47
	add.w	r0, r0, r1, lsl #2
	.loc	10 187 60                       @ lvgl/src/lv_widgets/lv_tileview.c:187:60
	ldrsh.w	r0, [r0, #2]
	.loc	10 187 65                       @ lvgl/src/lv_widgets/lv_tileview.c:187:65
	ldr	r1, [sp, #8]
	.loc	10 187 77                       @ lvgl/src/lv_widgets/lv_tileview.c:187:77
	ldrsh.w	r1, [r1, #74]
.Ltmp125:
	.loc	10 187 12                       @ lvgl/src/lv_widgets/lv_tileview.c:187:12
	cmp	r0, r1
	bne	.LBB5_15
	b	.LBB5_14
.LBB5_14:
.Ltmp126:
	.loc	10 188 13 is_stmt 1             @ lvgl/src/lv_widgets/lv_tileview.c:188:13
	b	.LBB5_19
.Ltmp127:
.LBB5_15:                               @   in Loop: Header=BB5_11 Depth=1
	.loc	10 190 5                        @ lvgl/src/lv_widgets/lv_tileview.c:190:5
	b	.LBB5_16
.Ltmp128:
.LBB5_16:                               @   in Loop: Header=BB5_11 Depth=1
	.loc	10 186 36                       @ lvgl/src/lv_widgets/lv_tileview.c:186:36
	ldrh.w	r0, [sp, #6]
	adds	r0, #1
	strh.w	r0, [sp, #6]
	.loc	10 186 5 is_stmt 0              @ lvgl/src/lv_widgets/lv_tileview.c:186:5
	b	.LBB5_11
.Ltmp129:
.LBB5_17:
	.loc	10 193 8 is_stmt 1              @ lvgl/src/lv_widgets/lv_tileview.c:193:8
	ldrh.w	r0, [sp, #14]
.Ltmp130:
	.loc	10 193 8 is_stmt 0              @ lvgl/src/lv_widgets/lv_tileview.c:193:8
	cmp	r0, #1
	blt	.LBB5_19
	b	.LBB5_18
.LBB5_18:
.Ltmp131:
	.loc	10 194 34 is_stmt 1             @ lvgl/src/lv_widgets/lv_tileview.c:194:34
	ldr	r0, [sp, #20]
	.loc	10 194 44 is_stmt 0             @ lvgl/src/lv_widgets/lv_tileview.c:194:44
	ldr	r2, [sp, #16]
	.loc	10 194 57                       @ lvgl/src/lv_widgets/lv_tileview.c:194:57
	ldrsh.w	r1, [r2]
	.loc	10 194 73                       @ lvgl/src/lv_widgets/lv_tileview.c:194:73
	ldrsh.w	r2, [r2, #2]
	movs	r3, #0
	.loc	10 194 9                        @ lvgl/src/lv_widgets/lv_tileview.c:194:9
	bl	lv_tileview_set_tile_act
	.loc	10 195 5 is_stmt 1              @ lvgl/src/lv_widgets/lv_tileview.c:195:5
	b	.LBB5_19
.Ltmp132:
.LBB5_19:
	.loc	10 196 1                        @ lvgl/src/lv_widgets/lv_tileview.c:196:1
	add	sp, #24
	pop	{r7, pc}
.Ltmp133:
.Lfunc_end5:
	.size	lv_tileview_set_valid_positions, .Lfunc_end5-lv_tileview_set_valid_positions
	.cfi_endproc
	.cantunwind
	.fnend
                                        @ -- End function
	.section	.text.set_valid_drag_dirs,"ax",%progbits
	.p2align	3                               @ -- Begin function set_valid_drag_dirs
	.type	set_valid_drag_dirs,%function
	.code	16                              @ @set_valid_drag_dirs
	.thumb_func
set_valid_drag_dirs:
.Lfunc_begin6:
	.loc	10 453 0                        @ lvgl/src/lv_widgets/lv_tileview.c:453:0
	.fnstart
	.cfi_startproc
@ %bb.0:
	.save	{r7, lr}
	push	{r7, lr}
	.cfi_def_cfa_offset 8
	.cfi_offset lr, -4
	.cfi_offset r7, -8
	.pad	#16
	sub	sp, #16
	.cfi_def_cfa_offset 24
	str	r0, [sp, #8]
.Ltmp134:
	.loc	10 455 51 prologue_end          @ lvgl/src/lv_widgets/lv_tileview.c:455:51
	ldr	r0, [sp, #8]
	.loc	10 455 31 is_stmt 0             @ lvgl/src/lv_widgets/lv_tileview.c:455:31
	bl	lv_obj_get_ext_attr
	.loc	10 455 25                       @ lvgl/src/lv_widgets/lv_tileview.c:455:25
	str	r0, [sp, #4]
.Ltmp135:
	.loc	10 456 8 is_stmt 1              @ lvgl/src/lv_widgets/lv_tileview.c:456:8
	ldr	r0, [sp, #4]
	.loc	10 456 13 is_stmt 0             @ lvgl/src/lv_widgets/lv_tileview.c:456:13
	ldr	r0, [r0, #64]
.Ltmp136:
	.loc	10 456 8                        @ lvgl/src/lv_widgets/lv_tileview.c:456:8
	cbnz	r0, .LBB6_2
	b	.LBB6_1
.LBB6_1:
	.loc	10 0 8                          @ lvgl/src/lv_widgets/lv_tileview.c:0:8
	movs	r0, #0
.Ltmp137:
	.loc	10 456 32                       @ lvgl/src/lv_widgets/lv_tileview.c:456:32
	strb.w	r0, [sp, #15]
	b	.LBB6_19
.Ltmp138:
.LBB6_2:
	.loc	10 458 5 is_stmt 1              @ lvgl/src/lv_widgets/lv_tileview.c:458:5
	ldr	r1, [sp, #4]
	.loc	10 458 25 is_stmt 0             @ lvgl/src/lv_widgets/lv_tileview.c:458:25
	ldrb.w	r0, [r1, #76]
	and	r0, r0, #253
	strb.w	r0, [r1, #76]
	.loc	10 459 5 is_stmt 1              @ lvgl/src/lv_widgets/lv_tileview.c:459:5
	ldr	r1, [sp, #4]
	.loc	10 459 25 is_stmt 0             @ lvgl/src/lv_widgets/lv_tileview.c:459:25
	ldrb.w	r0, [r1, #76]
	and	r0, r0, #254
	strb.w	r0, [r1, #76]
	.loc	10 460 5 is_stmt 1              @ lvgl/src/lv_widgets/lv_tileview.c:460:5
	ldr	r1, [sp, #4]
	.loc	10 460 25 is_stmt 0             @ lvgl/src/lv_widgets/lv_tileview.c:460:25
	ldrb.w	r0, [r1, #76]
	and	r0, r0, #251
	strb.w	r0, [r1, #76]
	.loc	10 461 5 is_stmt 1              @ lvgl/src/lv_widgets/lv_tileview.c:461:5
	ldr	r1, [sp, #4]
	.loc	10 461 25 is_stmt 0             @ lvgl/src/lv_widgets/lv_tileview.c:461:25
	ldrb.w	r0, [r1, #76]
	and	r0, r0, #247
	strb.w	r0, [r1, #76]
	movs	r0, #0
.Ltmp139:
	.loc	10 464 11 is_stmt 1             @ lvgl/src/lv_widgets/lv_tileview.c:464:11
	strh.w	r0, [sp, #2]
	.loc	10 464 9 is_stmt 0              @ lvgl/src/lv_widgets/lv_tileview.c:464:9
	b	.LBB6_3
.LBB6_3:                                @ =>This Inner Loop Header: Depth=1
.Ltmp140:
	.loc	10 464 16                       @ lvgl/src/lv_widgets/lv_tileview.c:464:16
	ldrh.w	r0, [sp, #2]
	.loc	10 464 20                       @ lvgl/src/lv_widgets/lv_tileview.c:464:20
	ldr	r1, [sp, #4]
	.loc	10 464 25                       @ lvgl/src/lv_widgets/lv_tileview.c:464:25
	ldrh.w	r1, [r1, #68]
.Ltmp141:
	.loc	10 464 5                        @ lvgl/src/lv_widgets/lv_tileview.c:464:5
	cmp	r0, r1
	bge.w	.LBB6_18
	b	.LBB6_4
.LBB6_4:                                @   in Loop: Header=BB6_3 Depth=1
.Ltmp142:
	.loc	10 465 12 is_stmt 1             @ lvgl/src/lv_widgets/lv_tileview.c:465:12
	ldr	r1, [sp, #4]
	.loc	10 465 17 is_stmt 0             @ lvgl/src/lv_widgets/lv_tileview.c:465:17
	ldr	r0, [r1, #64]
	.loc	10 465 27                       @ lvgl/src/lv_widgets/lv_tileview.c:465:27
	ldrh.w	r2, [sp, #2]
	.loc	10 465 30                       @ lvgl/src/lv_widgets/lv_tileview.c:465:30
	ldrsh.w	r0, [r0, r2, lsl #2]
	.loc	10 465 47                       @ lvgl/src/lv_widgets/lv_tileview.c:465:47
	ldrsh.w	r1, [r1, #72]
	.loc	10 465 49                       @ lvgl/src/lv_widgets/lv_tileview.c:465:49
	cmp	r0, r1
	bne	.LBB6_7
	b	.LBB6_5
.LBB6_5:                                @   in Loop: Header=BB6_3 Depth=1
	.loc	10 465 52                       @ lvgl/src/lv_widgets/lv_tileview.c:465:52
	ldr	r1, [sp, #4]
	.loc	10 465 57                       @ lvgl/src/lv_widgets/lv_tileview.c:465:57
	ldr	r0, [r1, #64]
	.loc	10 465 67                       @ lvgl/src/lv_widgets/lv_tileview.c:465:67
	ldrh.w	r2, [sp, #2]
	.loc	10 465 52                       @ lvgl/src/lv_widgets/lv_tileview.c:465:52
	add.w	r0, r0, r2, lsl #2
	.loc	10 465 70                       @ lvgl/src/lv_widgets/lv_tileview.c:465:70
	ldrsh.w	r0, [r0, #2]
	.loc	10 465 87                       @ lvgl/src/lv_widgets/lv_tileview.c:465:87
	ldrsh.w	r1, [r1, #74]
	.loc	10 465 89                       @ lvgl/src/lv_widgets/lv_tileview.c:465:89
	subs	r1, #1
.Ltmp143:
	.loc	10 465 12                       @ lvgl/src/lv_widgets/lv_tileview.c:465:12
	cmp	r0, r1
	bne	.LBB6_7
	b	.LBB6_6
.LBB6_6:                                @   in Loop: Header=BB6_3 Depth=1
.Ltmp144:
	.loc	10 465 94                       @ lvgl/src/lv_widgets/lv_tileview.c:465:94
	ldr	r1, [sp, #4]
	.loc	10 465 111                      @ lvgl/src/lv_widgets/lv_tileview.c:465:111
	ldrb.w	r0, [r1, #76]
	orr	r0, r0, #1
	strb.w	r0, [r1, #76]
	.loc	10 465 94                       @ lvgl/src/lv_widgets/lv_tileview.c:465:94
	b	.LBB6_7
.Ltmp145:
.LBB6_7:                                @   in Loop: Header=BB6_3 Depth=1
	.loc	10 466 12 is_stmt 1             @ lvgl/src/lv_widgets/lv_tileview.c:466:12
	ldr	r1, [sp, #4]
	.loc	10 466 17 is_stmt 0             @ lvgl/src/lv_widgets/lv_tileview.c:466:17
	ldr	r0, [r1, #64]
	.loc	10 466 27                       @ lvgl/src/lv_widgets/lv_tileview.c:466:27
	ldrh.w	r2, [sp, #2]
	.loc	10 466 30                       @ lvgl/src/lv_widgets/lv_tileview.c:466:30
	ldrsh.w	r0, [r0, r2, lsl #2]
	.loc	10 466 47                       @ lvgl/src/lv_widgets/lv_tileview.c:466:47
	ldrsh.w	r1, [r1, #72]
	.loc	10 466 49                       @ lvgl/src/lv_widgets/lv_tileview.c:466:49
	cmp	r0, r1
	bne	.LBB6_10
	b	.LBB6_8
.LBB6_8:                                @   in Loop: Header=BB6_3 Depth=1
	.loc	10 466 52                       @ lvgl/src/lv_widgets/lv_tileview.c:466:52
	ldr	r1, [sp, #4]
	.loc	10 466 57                       @ lvgl/src/lv_widgets/lv_tileview.c:466:57
	ldr	r0, [r1, #64]
	.loc	10 466 67                       @ lvgl/src/lv_widgets/lv_tileview.c:466:67
	ldrh.w	r2, [sp, #2]
	.loc	10 466 52                       @ lvgl/src/lv_widgets/lv_tileview.c:466:52
	add.w	r0, r0, r2, lsl #2
	.loc	10 466 70                       @ lvgl/src/lv_widgets/lv_tileview.c:466:70
	ldrsh.w	r0, [r0, #2]
	.loc	10 466 87                       @ lvgl/src/lv_widgets/lv_tileview.c:466:87
	ldrsh.w	r1, [r1, #74]
	.loc	10 466 89                       @ lvgl/src/lv_widgets/lv_tileview.c:466:89
	adds	r1, #1
.Ltmp146:
	.loc	10 466 12                       @ lvgl/src/lv_widgets/lv_tileview.c:466:12
	cmp	r0, r1
	bne	.LBB6_10
	b	.LBB6_9
.LBB6_9:                                @   in Loop: Header=BB6_3 Depth=1
.Ltmp147:
	.loc	10 466 94                       @ lvgl/src/lv_widgets/lv_tileview.c:466:94
	ldr	r1, [sp, #4]
	.loc	10 466 114                      @ lvgl/src/lv_widgets/lv_tileview.c:466:114
	ldrb.w	r0, [r1, #76]
	orr	r0, r0, #2
	strb.w	r0, [r1, #76]
	.loc	10 466 94                       @ lvgl/src/lv_widgets/lv_tileview.c:466:94
	b	.LBB6_10
.Ltmp148:
.LBB6_10:                               @   in Loop: Header=BB6_3 Depth=1
	.loc	10 467 12 is_stmt 1             @ lvgl/src/lv_widgets/lv_tileview.c:467:12
	ldr	r1, [sp, #4]
	.loc	10 467 17 is_stmt 0             @ lvgl/src/lv_widgets/lv_tileview.c:467:17
	ldr	r0, [r1, #64]
	.loc	10 467 27                       @ lvgl/src/lv_widgets/lv_tileview.c:467:27
	ldrh.w	r2, [sp, #2]
	.loc	10 467 30                       @ lvgl/src/lv_widgets/lv_tileview.c:467:30
	ldrsh.w	r0, [r0, r2, lsl #2]
	.loc	10 467 47                       @ lvgl/src/lv_widgets/lv_tileview.c:467:47
	ldrsh.w	r1, [r1, #72]
	.loc	10 467 49                       @ lvgl/src/lv_widgets/lv_tileview.c:467:49
	subs	r1, #1
	.loc	10 467 53                       @ lvgl/src/lv_widgets/lv_tileview.c:467:53
	cmp	r0, r1
	bne	.LBB6_13
	b	.LBB6_11
.LBB6_11:                               @   in Loop: Header=BB6_3 Depth=1
	.loc	10 467 56                       @ lvgl/src/lv_widgets/lv_tileview.c:467:56
	ldr	r1, [sp, #4]
	.loc	10 467 61                       @ lvgl/src/lv_widgets/lv_tileview.c:467:61
	ldr	r0, [r1, #64]
	.loc	10 467 71                       @ lvgl/src/lv_widgets/lv_tileview.c:467:71
	ldrh.w	r2, [sp, #2]
	.loc	10 467 56                       @ lvgl/src/lv_widgets/lv_tileview.c:467:56
	add.w	r0, r0, r2, lsl #2
	.loc	10 467 74                       @ lvgl/src/lv_widgets/lv_tileview.c:467:74
	ldrsh.w	r0, [r0, #2]
	.loc	10 467 91                       @ lvgl/src/lv_widgets/lv_tileview.c:467:91
	ldrsh.w	r1, [r1, #74]
.Ltmp149:
	.loc	10 467 12                       @ lvgl/src/lv_widgets/lv_tileview.c:467:12
	cmp	r0, r1
	bne	.LBB6_13
	b	.LBB6_12
.LBB6_12:                               @   in Loop: Header=BB6_3 Depth=1
.Ltmp150:
	.loc	10 467 94                       @ lvgl/src/lv_widgets/lv_tileview.c:467:94
	ldr	r1, [sp, #4]
	.loc	10 467 112                      @ lvgl/src/lv_widgets/lv_tileview.c:467:112
	ldrb.w	r0, [r1, #76]
	orr	r0, r0, #4
	strb.w	r0, [r1, #76]
	.loc	10 467 94                       @ lvgl/src/lv_widgets/lv_tileview.c:467:94
	b	.LBB6_13
.Ltmp151:
.LBB6_13:                               @   in Loop: Header=BB6_3 Depth=1
	.loc	10 468 12 is_stmt 1             @ lvgl/src/lv_widgets/lv_tileview.c:468:12
	ldr	r1, [sp, #4]
	.loc	10 468 17 is_stmt 0             @ lvgl/src/lv_widgets/lv_tileview.c:468:17
	ldr	r0, [r1, #64]
	.loc	10 468 27                       @ lvgl/src/lv_widgets/lv_tileview.c:468:27
	ldrh.w	r2, [sp, #2]
	.loc	10 468 30                       @ lvgl/src/lv_widgets/lv_tileview.c:468:30
	ldrsh.w	r0, [r0, r2, lsl #2]
	.loc	10 468 47                       @ lvgl/src/lv_widgets/lv_tileview.c:468:47
	ldrsh.w	r1, [r1, #72]
	.loc	10 468 49                       @ lvgl/src/lv_widgets/lv_tileview.c:468:49
	adds	r1, #1
	.loc	10 468 53                       @ lvgl/src/lv_widgets/lv_tileview.c:468:53
	cmp	r0, r1
	bne	.LBB6_16
	b	.LBB6_14
.LBB6_14:                               @   in Loop: Header=BB6_3 Depth=1
	.loc	10 468 56                       @ lvgl/src/lv_widgets/lv_tileview.c:468:56
	ldr	r1, [sp, #4]
	.loc	10 468 61                       @ lvgl/src/lv_widgets/lv_tileview.c:468:61
	ldr	r0, [r1, #64]
	.loc	10 468 71                       @ lvgl/src/lv_widgets/lv_tileview.c:468:71
	ldrh.w	r2, [sp, #2]
	.loc	10 468 56                       @ lvgl/src/lv_widgets/lv_tileview.c:468:56
	add.w	r0, r0, r2, lsl #2
	.loc	10 468 74                       @ lvgl/src/lv_widgets/lv_tileview.c:468:74
	ldrsh.w	r0, [r0, #2]
	.loc	10 468 91                       @ lvgl/src/lv_widgets/lv_tileview.c:468:91
	ldrsh.w	r1, [r1, #74]
.Ltmp152:
	.loc	10 468 12                       @ lvgl/src/lv_widgets/lv_tileview.c:468:12
	cmp	r0, r1
	bne	.LBB6_16
	b	.LBB6_15
.LBB6_15:                               @   in Loop: Header=BB6_3 Depth=1
.Ltmp153:
	.loc	10 468 94                       @ lvgl/src/lv_widgets/lv_tileview.c:468:94
	ldr	r1, [sp, #4]
	.loc	10 468 113                      @ lvgl/src/lv_widgets/lv_tileview.c:468:113
	ldrb.w	r0, [r1, #76]
	orr	r0, r0, #8
	strb.w	r0, [r1, #76]
	.loc	10 468 94                       @ lvgl/src/lv_widgets/lv_tileview.c:468:94
	b	.LBB6_16
.Ltmp154:
.LBB6_16:                               @   in Loop: Header=BB6_3 Depth=1
	.loc	10 469 5 is_stmt 1              @ lvgl/src/lv_widgets/lv_tileview.c:469:5
	b	.LBB6_17
.Ltmp155:
.LBB6_17:                               @   in Loop: Header=BB6_3 Depth=1
	.loc	10 464 41                       @ lvgl/src/lv_widgets/lv_tileview.c:464:41
	ldrh.w	r0, [sp, #2]
	adds	r0, #1
	strh.w	r0, [sp, #2]
	.loc	10 464 5 is_stmt 0              @ lvgl/src/lv_widgets/lv_tileview.c:464:5
	b	.LBB6_3
.Ltmp156:
.LBB6_18:
	.loc	10 0 5                          @ lvgl/src/lv_widgets/lv_tileview.c:0:5
	movs	r0, #1
	.loc	10 471 5 is_stmt 1              @ lvgl/src/lv_widgets/lv_tileview.c:471:5
	strb.w	r0, [sp, #15]
	b	.LBB6_19
.LBB6_19:
	.loc	10 472 1                        @ lvgl/src/lv_widgets/lv_tileview.c:472:1
	ldrb.w	r0, [sp, #15]
	add	sp, #16
	pop	{r7, pc}
.Ltmp157:
.Lfunc_end6:
	.size	set_valid_drag_dirs, .Lfunc_end6-set_valid_drag_dirs
	.cfi_endproc
	.cantunwind
	.fnend
                                        @ -- End function
	.section	.text.lv_tileview_set_tile_act,"ax",%progbits
	.hidden	lv_tileview_set_tile_act        @ -- Begin function lv_tileview_set_tile_act
	.globl	lv_tileview_set_tile_act
	.p2align	3
	.type	lv_tileview_set_tile_act,%function
	.code	16                              @ @lv_tileview_set_tile_act
	.thumb_func
lv_tileview_set_tile_act:
.Lfunc_begin7:
	.loc	10 206 0                        @ lvgl/src/lv_widgets/lv_tileview.c:206:0
	.fnstart
	.cfi_startproc
@ %bb.0:
	.save	{r7, lr}
	push	{r7, lr}
	.cfi_def_cfa_offset 8
	.cfi_offset lr, -4
	.cfi_offset r7, -8
	.pad	#128
	sub	sp, #128
	.cfi_def_cfa_offset 136
                                        @ kill: def $r12 killed $r3
                                        @ kill: def $r12 killed $r2
                                        @ kill: def $r12 killed $r1
	str	r0, [sp, #124]
	strh.w	r1, [sp, #122]
	strh.w	r2, [sp, #120]
	strb.w	r3, [sp, #119]
.Ltmp158:
	.loc	10 207 5 prologue_end           @ lvgl/src/lv_widgets/lv_tileview.c:207:5
	b	.LBB7_1
.LBB7_1:
.Ltmp159:
	.loc	10 207 5 is_stmt 0              @ lvgl/src/lv_widgets/lv_tileview.c:207:5
	ldr	r0, [sp, #124]
	bl	lv_debug_check_null
.Ltmp160:
	.loc	10 207 5                        @ lvgl/src/lv_widgets/lv_tileview.c:207:5
	cbnz	r0, .LBB7_4
	b	.LBB7_2
.LBB7_2:
.Ltmp161:
	.loc	10 207 5                        @ lvgl/src/lv_widgets/lv_tileview.c:207:5
	ldr	r2, [sp, #124]
	movw	r0, :lower16:.L.str.1
	movt	r0, :upper16:.L.str.1
	movs	r3, #0
	bl	lv_debug_log_error
	b	.LBB7_3
.LBB7_3:                                @ =>This Inner Loop Header: Depth=1
	b	.LBB7_3
.Ltmp162:
.LBB7_4:
	.loc	10 207 5                        @ lvgl/src/lv_widgets/lv_tileview.c:207:5
	b	.LBB7_5
.Ltmp163:
.LBB7_5:
	.loc	10 213 51 is_stmt 1             @ lvgl/src/lv_widgets/lv_tileview.c:213:51
	ldr	r0, [sp, #124]
	.loc	10 213 31 is_stmt 0             @ lvgl/src/lv_widgets/lv_tileview.c:213:31
	bl	lv_obj_get_ext_attr
	.loc	10 213 25                       @ lvgl/src/lv_widgets/lv_tileview.c:213:25
	str	r0, [sp, #112]
	movs	r0, #0
	.loc	10 216 10 is_stmt 1             @ lvgl/src/lv_widgets/lv_tileview.c:216:10
	strb.w	r0, [sp, #107]
.Ltmp164:
	.loc	10 217 17                       @ lvgl/src/lv_widgets/lv_tileview.c:217:17
	str	r0, [sp, #108]
	.loc	10 217 9 is_stmt 0              @ lvgl/src/lv_widgets/lv_tileview.c:217:9
	b	.LBB7_6
.LBB7_6:                                @ =>This Inner Loop Header: Depth=1
.Ltmp165:
	.loc	10 217 22                       @ lvgl/src/lv_widgets/lv_tileview.c:217:22
	ldr	r0, [sp, #108]
	.loc	10 217 32                       @ lvgl/src/lv_widgets/lv_tileview.c:217:32
	ldr	r1, [sp, #112]
	.loc	10 217 37                       @ lvgl/src/lv_widgets/lv_tileview.c:217:37
	ldrh.w	r1, [r1, #68]
.Ltmp166:
	.loc	10 217 5                        @ lvgl/src/lv_widgets/lv_tileview.c:217:5
	cmp	r0, r1
	bhs	.LBB7_12
	b	.LBB7_7
.LBB7_7:                                @   in Loop: Header=BB7_6 Depth=1
.Ltmp167:
	.loc	10 218 12 is_stmt 1             @ lvgl/src/lv_widgets/lv_tileview.c:218:12
	ldr	r0, [sp, #112]
	.loc	10 218 17 is_stmt 0             @ lvgl/src/lv_widgets/lv_tileview.c:218:17
	ldr	r0, [r0, #64]
	.loc	10 218 27                       @ lvgl/src/lv_widgets/lv_tileview.c:218:27
	ldr	r1, [sp, #108]
	.loc	10 218 36                       @ lvgl/src/lv_widgets/lv_tileview.c:218:36
	ldrsh.w	r0, [r0, r1, lsl #2]
	.loc	10 218 41                       @ lvgl/src/lv_widgets/lv_tileview.c:218:41
	ldrsh.w	r1, [sp, #122]
	.loc	10 218 43                       @ lvgl/src/lv_widgets/lv_tileview.c:218:43
	cmp	r0, r1
	bne	.LBB7_10
	b	.LBB7_8
.LBB7_8:                                @   in Loop: Header=BB7_6 Depth=1
	.loc	10 218 46                       @ lvgl/src/lv_widgets/lv_tileview.c:218:46
	ldr	r0, [sp, #112]
	.loc	10 218 51                       @ lvgl/src/lv_widgets/lv_tileview.c:218:51
	ldr	r0, [r0, #64]
	.loc	10 218 61                       @ lvgl/src/lv_widgets/lv_tileview.c:218:61
	ldr	r1, [sp, #108]
	.loc	10 218 46                       @ lvgl/src/lv_widgets/lv_tileview.c:218:46
	add.w	r0, r0, r1, lsl #2
	.loc	10 218 70                       @ lvgl/src/lv_widgets/lv_tileview.c:218:70
	ldrsh.w	r0, [r0, #2]
	.loc	10 218 75                       @ lvgl/src/lv_widgets/lv_tileview.c:218:75
	ldrsh.w	r1, [sp, #120]
.Ltmp168:
	.loc	10 218 12                       @ lvgl/src/lv_widgets/lv_tileview.c:218:12
	cmp	r0, r1
	bne	.LBB7_10
	b	.LBB7_9
.LBB7_9:
	.loc	10 0 12                         @ lvgl/src/lv_widgets/lv_tileview.c:0:12
	movs	r0, #1
.Ltmp169:
	.loc	10 219 19 is_stmt 1             @ lvgl/src/lv_widgets/lv_tileview.c:219:19
	strb.w	r0, [sp, #107]
	.loc	10 220 13                       @ lvgl/src/lv_widgets/lv_tileview.c:220:13
	b	.LBB7_12
.Ltmp170:
.LBB7_10:                               @   in Loop: Header=BB7_6 Depth=1
	.loc	10 222 5                        @ lvgl/src/lv_widgets/lv_tileview.c:222:5
	b	.LBB7_11
.Ltmp171:
.LBB7_11:                               @   in Loop: Header=BB7_6 Depth=1
	.loc	10 217 59                       @ lvgl/src/lv_widgets/lv_tileview.c:217:59
	ldr	r0, [sp, #108]
	adds	r0, #1
	str	r0, [sp, #108]
	.loc	10 217 5 is_stmt 0              @ lvgl/src/lv_widgets/lv_tileview.c:217:5
	b	.LBB7_6
.Ltmp172:
.LBB7_12:
	.loc	10 224 8 is_stmt 1              @ lvgl/src/lv_widgets/lv_tileview.c:224:8
	ldrb.w	r0, [sp, #107]
.Ltmp173:
	.loc	10 224 8 is_stmt 0              @ lvgl/src/lv_widgets/lv_tileview.c:224:8
	lsls	r0, r0, #31
	cbnz	r0, .LBB7_14
	b	.LBB7_13
.LBB7_13:
.Ltmp174:
	.loc	10 224 24                       @ lvgl/src/lv_widgets/lv_tileview.c:224:24
	b	.LBB7_24
.Ltmp175:
.LBB7_14:
	.loc	10 226 21 is_stmt 1             @ lvgl/src/lv_widgets/lv_tileview.c:226:21
	ldrh.w	r0, [sp, #122]
	.loc	10 226 5 is_stmt 0              @ lvgl/src/lv_widgets/lv_tileview.c:226:5
	ldr	r1, [sp, #112]
	.loc	10 226 19                       @ lvgl/src/lv_widgets/lv_tileview.c:226:19
	strh.w	r0, [r1, #72]
	.loc	10 227 21 is_stmt 1             @ lvgl/src/lv_widgets/lv_tileview.c:227:21
	ldrh.w	r0, [sp, #120]
	.loc	10 227 5 is_stmt 0              @ lvgl/src/lv_widgets/lv_tileview.c:227:5
	ldr	r1, [sp, #112]
	.loc	10 227 19                       @ lvgl/src/lv_widgets/lv_tileview.c:227:19
	strh.w	r0, [r1, #74]
	.loc	10 229 27 is_stmt 1             @ lvgl/src/lv_widgets/lv_tileview.c:229:27
	ldrh.w	r0, [sp, #122]
	.loc	10 229 26 is_stmt 0             @ lvgl/src/lv_widgets/lv_tileview.c:229:26
	rsbs	r0, r0, #0
	.loc	10 229 48                       @ lvgl/src/lv_widgets/lv_tileview.c:229:48
	str	r0, [sp, #16]                   @ 4-byte Spill
	ldr	r0, [sp, #124]
	.loc	10 229 31                       @ lvgl/src/lv_widgets/lv_tileview.c:229:31
	bl	lv_obj_get_width
	mov	r1, r0
	.loc	10 229 29                       @ lvgl/src/lv_widgets/lv_tileview.c:229:29
	ldr	r0, [sp, #16]                   @ 4-byte Reload
	muls	r0, r1, r0
	.loc	10 229 16                       @ lvgl/src/lv_widgets/lv_tileview.c:229:16
	strh.w	r0, [sp, #104]
	.loc	10 230 27 is_stmt 1             @ lvgl/src/lv_widgets/lv_tileview.c:230:27
	ldrh.w	r0, [sp, #120]
	.loc	10 230 26 is_stmt 0             @ lvgl/src/lv_widgets/lv_tileview.c:230:26
	rsbs	r0, r0, #0
	.loc	10 230 49                       @ lvgl/src/lv_widgets/lv_tileview.c:230:49
	str	r0, [sp, #20]                   @ 4-byte Spill
	ldr	r0, [sp, #124]
	.loc	10 230 31                       @ lvgl/src/lv_widgets/lv_tileview.c:230:31
	bl	lv_obj_get_height
	mov	r1, r0
	.loc	10 230 29                       @ lvgl/src/lv_widgets/lv_tileview.c:230:29
	ldr	r0, [sp, #20]                   @ 4-byte Reload
	muls	r0, r1, r0
	.loc	10 230 16                       @ lvgl/src/lv_widgets/lv_tileview.c:230:16
	strh.w	r0, [sp, #102]
	.loc	10 231 49 is_stmt 1             @ lvgl/src/lv_widgets/lv_tileview.c:231:49
	ldr	r0, [sp, #124]
	.loc	10 231 26 is_stmt 0             @ lvgl/src/lv_widgets/lv_tileview.c:231:26
	bl	lv_page_get_scrollable
	.loc	10 231 16                       @ lvgl/src/lv_widgets/lv_tileview.c:231:16
	str	r0, [sp, #96]
.Ltmp176:
	.loc	10 232 8 is_stmt 1              @ lvgl/src/lv_widgets/lv_tileview.c:232:8
	ldrb.w	r0, [sp, #119]
.Ltmp177:
	.loc	10 232 8 is_stmt 0              @ lvgl/src/lv_widgets/lv_tileview.c:232:8
	cmp	r0, #0
	beq	.LBB7_20
	b	.LBB7_15
.LBB7_15:
.Ltmp178:
	.loc	10 234 41 is_stmt 1             @ lvgl/src/lv_widgets/lv_tileview.c:234:41
	ldr	r0, [sp, #96]
	.loc	10 234 28 is_stmt 0             @ lvgl/src/lv_widgets/lv_tileview.c:234:28
	bl	lv_obj_get_x
	.loc	10 234 20                       @ lvgl/src/lv_widgets/lv_tileview.c:234:20
	strh.w	r0, [sp, #94]
	.loc	10 235 41 is_stmt 1             @ lvgl/src/lv_widgets/lv_tileview.c:235:41
	ldr	r0, [sp, #96]
	.loc	10 235 28 is_stmt 0             @ lvgl/src/lv_widgets/lv_tileview.c:235:28
	bl	lv_obj_get_y
	.loc	10 235 20                       @ lvgl/src/lv_widgets/lv_tileview.c:235:20
	strh.w	r0, [sp, #92]
	add	r0, sp, #28
	.loc	10 238 9 is_stmt 1              @ lvgl/src/lv_widgets/lv_tileview.c:238:9
	str	r0, [sp, #12]                   @ 4-byte Spill
	bl	lv_anim_init
	ldr	r0, [sp, #12]                   @ 4-byte Reload
	.loc	10 239 29                       @ lvgl/src/lv_widgets/lv_tileview.c:239:29
	ldr	r1, [sp, #96]
	.loc	10 239 9 is_stmt 0              @ lvgl/src/lv_widgets/lv_tileview.c:239:9
	bl	lv_anim_set_var
	ldr	r0, [sp, #12]                   @ 4-byte Reload
	.loc	10 240 9 is_stmt 1              @ lvgl/src/lv_widgets/lv_tileview.c:240:9
	movw	r1, :lower16:lv_obj_set_x
	movt	r1, :upper16:lv_obj_set_x
	bl	lv_anim_set_exec_cb
	ldr	r0, [sp, #12]                   @ 4-byte Reload
	.loc	10 241 30                       @ lvgl/src/lv_widgets/lv_tileview.c:241:30
	ldr	r1, [sp, #112]
	.loc	10 241 35 is_stmt 0             @ lvgl/src/lv_widgets/lv_tileview.c:241:35
	ldrh.w	r1, [r1, #70]
	.loc	10 241 9                        @ lvgl/src/lv_widgets/lv_tileview.c:241:9
	bl	lv_anim_set_time
.Ltmp179:
	.loc	10 243 12 is_stmt 1             @ lvgl/src/lv_widgets/lv_tileview.c:243:12
	ldrsh.w	r0, [sp, #104]
	.loc	10 243 23 is_stmt 0             @ lvgl/src/lv_widgets/lv_tileview.c:243:23
	ldrsh.w	r1, [sp, #94]
.Ltmp180:
	.loc	10 243 12                       @ lvgl/src/lv_widgets/lv_tileview.c:243:12
	cmp	r0, r1
	beq	.LBB7_17
	b	.LBB7_16
.LBB7_16:
.Ltmp181:
	.loc	10 244 36 is_stmt 1             @ lvgl/src/lv_widgets/lv_tileview.c:244:36
	ldrsh.w	r1, [sp, #94]
	.loc	10 244 43 is_stmt 0             @ lvgl/src/lv_widgets/lv_tileview.c:244:43
	ldrsh.w	r2, [sp, #104]
	add	r0, sp, #28
	.loc	10 244 13                       @ lvgl/src/lv_widgets/lv_tileview.c:244:13
	str	r0, [sp, #8]                    @ 4-byte Spill
	bl	lv_anim_set_values
	ldr	r0, [sp, #8]                    @ 4-byte Reload
	.loc	10 245 13 is_stmt 1             @ lvgl/src/lv_widgets/lv_tileview.c:245:13
	bl	lv_anim_start
	.loc	10 246 9                        @ lvgl/src/lv_widgets/lv_tileview.c:246:9
	b	.LBB7_17
.Ltmp182:
.LBB7_17:
	.loc	10 248 12                       @ lvgl/src/lv_widgets/lv_tileview.c:248:12
	ldrsh.w	r0, [sp, #102]
	.loc	10 248 23 is_stmt 0             @ lvgl/src/lv_widgets/lv_tileview.c:248:23
	ldrsh.w	r1, [sp, #92]
.Ltmp183:
	.loc	10 248 12                       @ lvgl/src/lv_widgets/lv_tileview.c:248:12
	cmp	r0, r1
	beq	.LBB7_19
	b	.LBB7_18
.LBB7_18:
.Ltmp184:
	.loc	10 249 13 is_stmt 1             @ lvgl/src/lv_widgets/lv_tileview.c:249:13
	movw	r1, :lower16:lv_obj_set_y
	movt	r1, :upper16:lv_obj_set_y
	add	r0, sp, #28
	str	r0, [sp, #4]                    @ 4-byte Spill
	bl	lv_anim_set_exec_cb
	ldr	r0, [sp, #4]                    @ 4-byte Reload
	.loc	10 250 36                       @ lvgl/src/lv_widgets/lv_tileview.c:250:36
	ldrsh.w	r1, [sp, #92]
	.loc	10 250 43 is_stmt 0             @ lvgl/src/lv_widgets/lv_tileview.c:250:43
	ldrsh.w	r2, [sp, #102]
	.loc	10 250 13                       @ lvgl/src/lv_widgets/lv_tileview.c:250:13
	bl	lv_anim_set_values
	ldr	r0, [sp, #4]                    @ 4-byte Reload
	.loc	10 251 13 is_stmt 1             @ lvgl/src/lv_widgets/lv_tileview.c:251:13
	bl	lv_anim_start
	.loc	10 252 9                        @ lvgl/src/lv_widgets/lv_tileview.c:252:9
	b	.LBB7_19
.Ltmp185:
.LBB7_19:
	.loc	10 254 5                        @ lvgl/src/lv_widgets/lv_tileview.c:254:5
	b	.LBB7_21
.Ltmp186:
.LBB7_20:
	.loc	10 256 24                       @ lvgl/src/lv_widgets/lv_tileview.c:256:24
	ldr	r0, [sp, #96]
	.loc	10 256 30 is_stmt 0             @ lvgl/src/lv_widgets/lv_tileview.c:256:30
	ldrsh.w	r1, [sp, #104]
	.loc	10 256 39                       @ lvgl/src/lv_widgets/lv_tileview.c:256:39
	ldrsh.w	r2, [sp, #102]
	.loc	10 256 9                        @ lvgl/src/lv_widgets/lv_tileview.c:256:9
	bl	lv_obj_set_pos
	b	.LBB7_21
.Ltmp187:
.LBB7_21:
	.loc	10 260 34 is_stmt 1             @ lvgl/src/lv_widgets/lv_tileview.c:260:34
	ldr	r0, [sp, #124]
	movs	r1, #16
	add	r2, sp, #108
	.loc	10 260 20 is_stmt 0             @ lvgl/src/lv_widgets/lv_tileview.c:260:20
	bl	lv_event_send
	.loc	10 260 18                       @ lvgl/src/lv_widgets/lv_tileview.c:260:18
	strb.w	r0, [sp, #27]
.Ltmp188:
	.loc	10 261 8 is_stmt 1              @ lvgl/src/lv_widgets/lv_tileview.c:261:8
	ldrb.w	r0, [sp, #27]
.Ltmp189:
	.loc	10 261 8 is_stmt 0              @ lvgl/src/lv_widgets/lv_tileview.c:261:8
	cmp	r0, #1
	beq	.LBB7_23
	b	.LBB7_22
.LBB7_22:
.Ltmp190:
	.loc	10 261 26                       @ lvgl/src/lv_widgets/lv_tileview.c:261:26
	b	.LBB7_24
.Ltmp191:
.LBB7_23:
	.loc	10 263 25 is_stmt 1             @ lvgl/src/lv_widgets/lv_tileview.c:263:25
	ldr	r0, [sp, #124]
	.loc	10 263 5 is_stmt 0              @ lvgl/src/lv_widgets/lv_tileview.c:263:5
	bl	set_valid_drag_dirs
	.loc	10 264 1 is_stmt 1              @ lvgl/src/lv_widgets/lv_tileview.c:264:1
	b	.LBB7_24
.LBB7_24:
	add	sp, #128
	pop	{r7, pc}
.Ltmp192:
.Lfunc_end7:
	.size	lv_tileview_set_tile_act, .Lfunc_end7-lv_tileview_set_tile_act
	.cfi_endproc
	.cantunwind
	.fnend
                                        @ -- End function
	.section	.text.lv_anim_set_var,"ax",%progbits
	.p2align	3                               @ -- Begin function lv_anim_set_var
	.type	lv_anim_set_var,%function
	.code	16                              @ @lv_anim_set_var
	.thumb_func
lv_anim_set_var:
.Lfunc_begin8:
	.loc	14 126 0                        @ lvgl/src/lv_widgets/../lv_misc/lv_anim.h:126:0
	.fnstart
	.cfi_startproc
@ %bb.0:
	.pad	#8
	sub	sp, #8
	.cfi_def_cfa_offset 8
	str	r0, [sp, #4]
	str	r1, [sp]
.Ltmp193:
	.loc	14 127 14 prologue_end          @ lvgl/src/lv_widgets/../lv_misc/lv_anim.h:127:14
	ldr	r0, [sp]
	.loc	14 127 5 is_stmt 0              @ lvgl/src/lv_widgets/../lv_misc/lv_anim.h:127:5
	ldr	r1, [sp, #4]
	.loc	14 127 12                       @ lvgl/src/lv_widgets/../lv_misc/lv_anim.h:127:12
	str	r0, [r1]
	.loc	14 128 1 is_stmt 1              @ lvgl/src/lv_widgets/../lv_misc/lv_anim.h:128:1
	add	sp, #8
	bx	lr
.Ltmp194:
.Lfunc_end8:
	.size	lv_anim_set_var, .Lfunc_end8-lv_anim_set_var
	.cfi_endproc
	.cantunwind
	.fnend
                                        @ -- End function
	.section	.text.lv_anim_set_exec_cb,"ax",%progbits
	.p2align	3                               @ -- Begin function lv_anim_set_exec_cb
	.type	lv_anim_set_exec_cb,%function
	.code	16                              @ @lv_anim_set_exec_cb
	.thumb_func
lv_anim_set_exec_cb:
.Lfunc_begin9:
	.loc	14 138 0                        @ lvgl/src/lv_widgets/../lv_misc/lv_anim.h:138:0
	.fnstart
	.cfi_startproc
@ %bb.0:
	.pad	#8
	sub	sp, #8
	.cfi_def_cfa_offset 8
	str	r0, [sp, #4]
	str	r1, [sp]
.Ltmp195:
	.loc	14 139 18 prologue_end          @ lvgl/src/lv_widgets/../lv_misc/lv_anim.h:139:18
	ldr	r0, [sp]
	.loc	14 139 5 is_stmt 0              @ lvgl/src/lv_widgets/../lv_misc/lv_anim.h:139:5
	ldr	r1, [sp, #4]
	.loc	14 139 16                       @ lvgl/src/lv_widgets/../lv_misc/lv_anim.h:139:16
	str	r0, [r1, #4]
	.loc	14 140 1 is_stmt 1              @ lvgl/src/lv_widgets/../lv_misc/lv_anim.h:140:1
	add	sp, #8
	bx	lr
.Ltmp196:
.Lfunc_end9:
	.size	lv_anim_set_exec_cb, .Lfunc_end9-lv_anim_set_exec_cb
	.cfi_endproc
	.cantunwind
	.fnend
                                        @ -- End function
	.section	.text.lv_anim_set_time,"ax",%progbits
	.p2align	3                               @ -- Begin function lv_anim_set_time
	.type	lv_anim_set_time,%function
	.code	16                              @ @lv_anim_set_time
	.thumb_func
lv_anim_set_time:
.Lfunc_begin10:
	.loc	14 148 0                        @ lvgl/src/lv_widgets/../lv_misc/lv_anim.h:148:0
	.fnstart
	.cfi_startproc
@ %bb.0:
	.pad	#8
	sub	sp, #8
	.cfi_def_cfa_offset 8
	str	r0, [sp, #4]
	str	r1, [sp]
.Ltmp197:
	.loc	14 149 15 prologue_end          @ lvgl/src/lv_widgets/../lv_misc/lv_anim.h:149:15
	ldr	r0, [sp]
	.loc	14 149 5 is_stmt 0              @ lvgl/src/lv_widgets/../lv_misc/lv_anim.h:149:5
	ldr	r1, [sp, #4]
	.loc	14 149 13                       @ lvgl/src/lv_widgets/../lv_misc/lv_anim.h:149:13
	str	r0, [r1, #36]
	.loc	14 150 1 is_stmt 1              @ lvgl/src/lv_widgets/../lv_misc/lv_anim.h:150:1
	add	sp, #8
	bx	lr
.Ltmp198:
.Lfunc_end10:
	.size	lv_anim_set_time, .Lfunc_end10-lv_anim_set_time
	.cfi_endproc
	.cantunwind
	.fnend
                                        @ -- End function
	.section	.text.lv_anim_set_values,"ax",%progbits
	.p2align	3                               @ -- Begin function lv_anim_set_values
	.type	lv_anim_set_values,%function
	.code	16                              @ @lv_anim_set_values
	.thumb_func
lv_anim_set_values:
.Lfunc_begin11:
	.loc	14 169 0                        @ lvgl/src/lv_widgets/../lv_misc/lv_anim.h:169:0
	.fnstart
	.cfi_startproc
@ %bb.0:
	.pad	#8
	sub	sp, #8
	.cfi_def_cfa_offset 8
                                        @ kill: def $r3 killed $r2
                                        @ kill: def $r3 killed $r1
	str	r0, [sp, #4]
	strh.w	r1, [sp, #2]
	strh.w	r2, [sp]
.Ltmp199:
	.loc	14 170 16 prologue_end          @ lvgl/src/lv_widgets/../lv_misc/lv_anim.h:170:16
	ldrsh.w	r0, [sp, #2]
	.loc	14 170 5 is_stmt 0              @ lvgl/src/lv_widgets/../lv_misc/lv_anim.h:170:5
	ldr	r1, [sp, #4]
	.loc	14 170 14                       @ lvgl/src/lv_widgets/../lv_misc/lv_anim.h:170:14
	str	r0, [r1, #24]
	.loc	14 171 18 is_stmt 1             @ lvgl/src/lv_widgets/../lv_misc/lv_anim.h:171:18
	ldrsh.w	r0, [sp, #2]
	.loc	14 171 5 is_stmt 0              @ lvgl/src/lv_widgets/../lv_misc/lv_anim.h:171:5
	ldr	r1, [sp, #4]
	.loc	14 171 16                       @ lvgl/src/lv_widgets/../lv_misc/lv_anim.h:171:16
	str	r0, [r1, #28]
	.loc	14 172 14 is_stmt 1             @ lvgl/src/lv_widgets/../lv_misc/lv_anim.h:172:14
	ldrsh.w	r0, [sp]
	.loc	14 172 5 is_stmt 0              @ lvgl/src/lv_widgets/../lv_misc/lv_anim.h:172:5
	ldr	r1, [sp, #4]
	.loc	14 172 12                       @ lvgl/src/lv_widgets/../lv_misc/lv_anim.h:172:12
	str	r0, [r1, #32]
	.loc	14 173 1 is_stmt 1              @ lvgl/src/lv_widgets/../lv_misc/lv_anim.h:173:1
	add	sp, #8
	bx	lr
.Ltmp200:
.Lfunc_end11:
	.size	lv_anim_set_values, .Lfunc_end11-lv_anim_set_values
	.cfi_endproc
	.cantunwind
	.fnend
                                        @ -- End function
	.section	.text.lv_tileview_get_tile_act,"ax",%progbits
	.hidden	lv_tileview_get_tile_act        @ -- Begin function lv_tileview_get_tile_act
	.globl	lv_tileview_get_tile_act
	.p2align	3
	.type	lv_tileview_get_tile_act,%function
	.code	16                              @ @lv_tileview_get_tile_act
	.thumb_func
lv_tileview_get_tile_act:
.Lfunc_begin12:
	.loc	10 280 0                        @ lvgl/src/lv_widgets/lv_tileview.c:280:0
	.fnstart
	.cfi_startproc
@ %bb.0:
	.save	{r7, lr}
	push	{r7, lr}
	.cfi_def_cfa_offset 8
	.cfi_offset lr, -4
	.cfi_offset r7, -8
	.pad	#16
	sub	sp, #16
	.cfi_def_cfa_offset 24
	str	r0, [sp, #12]
	str	r1, [sp, #8]
	str	r2, [sp, #4]
.Ltmp201:
	.loc	10 281 51 prologue_end          @ lvgl/src/lv_widgets/lv_tileview.c:281:51
	ldr	r0, [sp, #12]
	.loc	10 281 31 is_stmt 0             @ lvgl/src/lv_widgets/lv_tileview.c:281:31
	bl	lv_obj_get_ext_attr
	.loc	10 281 25                       @ lvgl/src/lv_widgets/lv_tileview.c:281:25
	str	r0, [sp]
	.loc	10 283 10 is_stmt 1             @ lvgl/src/lv_widgets/lv_tileview.c:283:10
	ldr	r0, [sp]
	.loc	10 283 22 is_stmt 0             @ lvgl/src/lv_widgets/lv_tileview.c:283:22
	ldrh.w	r0, [r0, #72]
	.loc	10 283 6                        @ lvgl/src/lv_widgets/lv_tileview.c:283:6
	ldr	r1, [sp, #8]
	.loc	10 283 8                        @ lvgl/src/lv_widgets/lv_tileview.c:283:8
	strh	r0, [r1]
	.loc	10 284 10 is_stmt 1             @ lvgl/src/lv_widgets/lv_tileview.c:284:10
	ldr	r0, [sp]
	.loc	10 284 22 is_stmt 0             @ lvgl/src/lv_widgets/lv_tileview.c:284:22
	ldrh.w	r0, [r0, #74]
	.loc	10 284 6                        @ lvgl/src/lv_widgets/lv_tileview.c:284:6
	ldr	r1, [sp, #4]
	.loc	10 284 8                        @ lvgl/src/lv_widgets/lv_tileview.c:284:8
	strh	r0, [r1]
	.loc	10 285 1 is_stmt 1              @ lvgl/src/lv_widgets/lv_tileview.c:285:1
	add	sp, #16
	pop	{r7, pc}
.Ltmp202:
.Lfunc_end12:
	.size	lv_tileview_get_tile_act, .Lfunc_end12-lv_tileview_get_tile_act
	.cfi_endproc
	.cantunwind
	.fnend
                                        @ -- End function
	.section	.text.lv_cont_set_fit,"ax",%progbits
	.p2align	3                               @ -- Begin function lv_cont_set_fit
	.type	lv_cont_set_fit,%function
	.code	16                              @ @lv_cont_set_fit
	.thumb_func
lv_cont_set_fit:
.Lfunc_begin13:
	.loc	11 169 0                        @ lvgl/src/lv_widgets/lv_cont.h:169:0
	.fnstart
	.cfi_startproc
@ %bb.0:
	.save	{r7, lr}
	push	{r7, lr}
	.cfi_def_cfa_offset 8
	.cfi_offset lr, -4
	.cfi_offset r7, -8
	.pad	#16
	sub	sp, #16
	.cfi_def_cfa_offset 24
                                        @ kill: def $r2 killed $r1
	str	r0, [sp, #12]
	strb.w	r1, [sp, #11]
.Ltmp203:
	.loc	11 170 22 prologue_end          @ lvgl/src/lv_widgets/lv_cont.h:170:22
	ldr	r0, [sp, #12]
	.loc	11 170 28 is_stmt 0             @ lvgl/src/lv_widgets/lv_cont.h:170:28
	ldrb.w	r3, [sp, #11]
	.loc	11 170 5                        @ lvgl/src/lv_widgets/lv_cont.h:170:5
	mov	r1, sp
	str	r3, [r1]
	mov	r1, r3
	mov	r2, r3
	bl	lv_cont_set_fit4
	.loc	11 171 1 is_stmt 1              @ lvgl/src/lv_widgets/lv_cont.h:171:1
	add	sp, #16
	pop	{r7, pc}
.Ltmp204:
.Lfunc_end13:
	.size	lv_cont_set_fit, .Lfunc_end13-lv_cont_set_fit
	.cfi_endproc
	.cantunwind
	.fnend
                                        @ -- End function
	.section	.text.drag_end_handler,"ax",%progbits
	.p2align	3                               @ -- Begin function drag_end_handler
	.type	drag_end_handler,%function
	.code	16                              @ @drag_end_handler
	.thumb_func
drag_end_handler:
.Lfunc_begin14:
	.loc	10 397 0                        @ lvgl/src/lv_widgets/lv_tileview.c:397:0
	.fnstart
	.cfi_startproc
@ %bb.0:
	.save	{r7, lr}
	push	{r7, lr}
	.cfi_def_cfa_offset 8
	.cfi_offset lr, -4
	.cfi_offset r7, -8
	.pad	#64
	sub	sp, #64
	.cfi_def_cfa_offset 72
	str	r0, [sp, #60]
.Ltmp205:
	.loc	10 398 51 prologue_end          @ lvgl/src/lv_widgets/lv_tileview.c:398:51
	ldr	r0, [sp, #60]
	.loc	10 398 31 is_stmt 0             @ lvgl/src/lv_widgets/lv_tileview.c:398:31
	bl	lv_obj_get_ext_attr
	.loc	10 398 25                       @ lvgl/src/lv_widgets/lv_tileview.c:398:25
	str	r0, [sp, #56]
	.loc	10 399 31 is_stmt 1             @ lvgl/src/lv_widgets/lv_tileview.c:399:31
	bl	lv_indev_get_act
	.loc	10 399 18 is_stmt 0             @ lvgl/src/lv_widgets/lv_tileview.c:399:18
	str	r0, [sp, #52]
	.loc	10 401 24 is_stmt 1             @ lvgl/src/lv_widgets/lv_tileview.c:401:24
	ldr	r0, [sp, #52]
	add	r1, sp, #48
	.loc	10 401 5 is_stmt 0              @ lvgl/src/lv_widgets/lv_tileview.c:401:5
	bl	lv_indev_get_point
	.loc	10 402 46 is_stmt 1             @ lvgl/src/lv_widgets/lv_tileview.c:402:46
	ldr	r0, [sp, #60]
	.loc	10 402 23 is_stmt 0             @ lvgl/src/lv_widgets/lv_tileview.c:402:23
	bl	lv_page_get_scrollable
	.loc	10 402 16                       @ lvgl/src/lv_widgets/lv_tileview.c:402:16
	str	r0, [sp, #44]
	.loc	10 405 26 is_stmt 1             @ lvgl/src/lv_widgets/lv_tileview.c:405:26
	ldr	r0, [sp, #44]
	.loc	10 405 13 is_stmt 0             @ lvgl/src/lv_widgets/lv_tileview.c:405:13
	bl	lv_obj_get_x
	.loc	10 405 51                       @ lvgl/src/lv_widgets/lv_tileview.c:405:51
	str	r0, [sp, #8]                    @ 4-byte Spill
	ldr	r0, [sp, #60]
	.loc	10 405 34                       @ lvgl/src/lv_widgets/lv_tileview.c:405:34
	bl	lv_obj_get_width
	mov	r1, r0
	.loc	10 405 61                       @ lvgl/src/lv_widgets/lv_tileview.c:405:61
	ldr	r0, [sp, #8]                    @ 4-byte Reload
	add.w	r1, r1, r1, lsr #31
	.loc	10 405 11                       @ lvgl/src/lv_widgets/lv_tileview.c:405:11
	rsb	r0, r0, r1, lsr #1
	.loc	10 405 9                        @ lvgl/src/lv_widgets/lv_tileview.c:405:9
	strh.w	r0, [sp, #40]
	.loc	10 406 26 is_stmt 1             @ lvgl/src/lv_widgets/lv_tileview.c:406:26
	ldr	r0, [sp, #44]
	.loc	10 406 13 is_stmt 0             @ lvgl/src/lv_widgets/lv_tileview.c:406:13
	bl	lv_obj_get_y
	.loc	10 406 52                       @ lvgl/src/lv_widgets/lv_tileview.c:406:52
	str	r0, [sp, #12]                   @ 4-byte Spill
	ldr	r0, [sp, #60]
	.loc	10 406 34                       @ lvgl/src/lv_widgets/lv_tileview.c:406:34
	bl	lv_obj_get_height
	mov	r1, r0
	.loc	10 406 62                       @ lvgl/src/lv_widgets/lv_tileview.c:406:62
	ldr	r0, [sp, #12]                   @ 4-byte Reload
	add.w	r1, r1, r1, lsr #31
	.loc	10 406 11                       @ lvgl/src/lv_widgets/lv_tileview.c:406:11
	rsb	r0, r0, r1, lsr #1
	.loc	10 406 9                        @ lvgl/src/lv_widgets/lv_tileview.c:406:9
	strh.w	r0, [sp, #42]
	.loc	10 408 30 is_stmt 1             @ lvgl/src/lv_widgets/lv_tileview.c:408:30
	ldr	r0, [sp, #52]
	.loc	10 408 56 is_stmt 0             @ lvgl/src/lv_widgets/lv_tileview.c:408:56
	ldrb.w	r0, [r0, #70]
	ubfx	r0, r0, #2, #3
	.loc	10 408 19                       @ lvgl/src/lv_widgets/lv_tileview.c:408:19
	strb.w	r0, [sp, #39]
.Ltmp206:
	.loc	10 410 8 is_stmt 1              @ lvgl/src/lv_widgets/lv_tileview.c:410:8
	ldrb.w	r0, [sp, #39]
.Ltmp207:
	.loc	10 410 8 is_stmt 0              @ lvgl/src/lv_widgets/lv_tileview.c:410:8
	lsls	r0, r0, #31
	cbz	r0, .LBB14_5
	b	.LBB14_1
.LBB14_1:
.Ltmp208:
	.loc	10 412 27 is_stmt 1             @ lvgl/src/lv_widgets/lv_tileview.c:412:27
	ldr	r0, [sp, #52]
	add	r1, sp, #32
	.loc	10 412 9 is_stmt 0              @ lvgl/src/lv_widgets/lv_tileview.c:412:9
	bl	lv_indev_get_vect
	movs	r0, #0
	.loc	10 413 20 is_stmt 1             @ lvgl/src/lv_widgets/lv_tileview.c:413:20
	strh.w	r0, [sp, #30]
	.loc	10 415 9                        @ lvgl/src/lv_widgets/lv_tileview.c:415:9
	b	.LBB14_2
.LBB14_2:                               @ =>This Inner Loop Header: Depth=1
	.loc	10 415 20 is_stmt 0             @ lvgl/src/lv_widgets/lv_tileview.c:415:20
	ldrsh.w	r0, [sp, #32]
	.loc	10 415 9                        @ lvgl/src/lv_widgets/lv_tileview.c:415:9
	cbz	r0, .LBB14_4
	b	.LBB14_3
.LBB14_3:                               @   in Loop: Header=BB14_2 Depth=1
.Ltmp209:
	.loc	10 416 24 is_stmt 1             @ lvgl/src/lv_widgets/lv_tileview.c:416:24
	ldrh.w	r1, [sp, #32]
	.loc	10 416 21 is_stmt 0             @ lvgl/src/lv_widgets/lv_tileview.c:416:21
	ldrh.w	r0, [sp, #30]
	add	r0, r1
	strh.w	r0, [sp, #30]
	.loc	10 417 27 is_stmt 1             @ lvgl/src/lv_widgets/lv_tileview.c:417:27
	ldrsh.w	r0, [sp, #32]
	movs	r1, #90
	.loc	10 417 29 is_stmt 0             @ lvgl/src/lv_widgets/lv_tileview.c:417:29
	muls	r0, r1, r0
	movw	r1, #34079
	movt	r1, #20971
	.loc	10 417 63                       @ lvgl/src/lv_widgets/lv_tileview.c:417:63
	smmul	r1, r0, r1
	lsrs	r0, r1, #5
	add.w	r0, r0, r1, lsr #31
	.loc	10 417 20                       @ lvgl/src/lv_widgets/lv_tileview.c:417:20
	strh.w	r0, [sp, #32]
.Ltmp210:
	.loc	10 415 9 is_stmt 1              @ lvgl/src/lv_widgets/lv_tileview.c:415:9
	b	.LBB14_2
.LBB14_4:
	.loc	10 420 16                       @ lvgl/src/lv_widgets/lv_tileview.c:420:16
	ldrh.w	r1, [sp, #30]
	.loc	10 420 13 is_stmt 0             @ lvgl/src/lv_widgets/lv_tileview.c:420:13
	ldrh.w	r0, [sp, #40]
	subs	r0, r0, r1
	strh.w	r0, [sp, #40]
	.loc	10 422 5 is_stmt 1              @ lvgl/src/lv_widgets/lv_tileview.c:422:5
	b	.LBB14_11
.Ltmp211:
.LBB14_5:
	.loc	10 423 13                       @ lvgl/src/lv_widgets/lv_tileview.c:423:13
	ldrb.w	r0, [sp, #39]
.Ltmp212:
	.loc	10 423 13 is_stmt 0             @ lvgl/src/lv_widgets/lv_tileview.c:423:13
	lsls	r0, r0, #30
	cmp	r0, #0
	bpl	.LBB14_10
	b	.LBB14_6
.LBB14_6:
.Ltmp213:
	.loc	10 425 27 is_stmt 1             @ lvgl/src/lv_widgets/lv_tileview.c:425:27
	ldr	r0, [sp, #52]
	add	r1, sp, #24
	.loc	10 425 9 is_stmt 0              @ lvgl/src/lv_widgets/lv_tileview.c:425:9
	bl	lv_indev_get_vect
	movs	r0, #0
	.loc	10 426 20 is_stmt 1             @ lvgl/src/lv_widgets/lv_tileview.c:426:20
	strh.w	r0, [sp, #22]
	.loc	10 428 9                        @ lvgl/src/lv_widgets/lv_tileview.c:428:9
	b	.LBB14_7
.LBB14_7:                               @ =>This Inner Loop Header: Depth=1
	.loc	10 428 20 is_stmt 0             @ lvgl/src/lv_widgets/lv_tileview.c:428:20
	ldrsh.w	r0, [sp, #26]
	.loc	10 428 9                        @ lvgl/src/lv_widgets/lv_tileview.c:428:9
	cbz	r0, .LBB14_9
	b	.LBB14_8
.LBB14_8:                               @   in Loop: Header=BB14_7 Depth=1
.Ltmp214:
	.loc	10 429 24 is_stmt 1             @ lvgl/src/lv_widgets/lv_tileview.c:429:24
	ldrh.w	r1, [sp, #26]
	.loc	10 429 21 is_stmt 0             @ lvgl/src/lv_widgets/lv_tileview.c:429:21
	ldrh.w	r0, [sp, #22]
	add	r0, r1
	strh.w	r0, [sp, #22]
	.loc	10 430 27 is_stmt 1             @ lvgl/src/lv_widgets/lv_tileview.c:430:27
	ldrsh.w	r0, [sp, #26]
	movs	r1, #90
	.loc	10 430 29 is_stmt 0             @ lvgl/src/lv_widgets/lv_tileview.c:430:29
	muls	r0, r1, r0
	movw	r1, #34079
	movt	r1, #20971
	.loc	10 430 63                       @ lvgl/src/lv_widgets/lv_tileview.c:430:63
	smmul	r1, r0, r1
	lsrs	r0, r1, #5
	add.w	r0, r0, r1, lsr #31
	.loc	10 430 20                       @ lvgl/src/lv_widgets/lv_tileview.c:430:20
	strh.w	r0, [sp, #26]
.Ltmp215:
	.loc	10 428 9 is_stmt 1              @ lvgl/src/lv_widgets/lv_tileview.c:428:9
	b	.LBB14_7
.LBB14_9:
	.loc	10 433 16                       @ lvgl/src/lv_widgets/lv_tileview.c:433:16
	ldrh.w	r1, [sp, #22]
	.loc	10 433 13 is_stmt 0             @ lvgl/src/lv_widgets/lv_tileview.c:433:13
	ldrh.w	r0, [sp, #42]
	subs	r0, r0, r1
	strh.w	r0, [sp, #42]
	.loc	10 434 5 is_stmt 1              @ lvgl/src/lv_widgets/lv_tileview.c:434:5
	b	.LBB14_10
.Ltmp216:
.LBB14_10:
	.loc	10 0 5 is_stmt 0                @ lvgl/src/lv_widgets/lv_tileview.c:0:5
	b	.LBB14_11
.LBB14_11:
	.loc	10 437 13 is_stmt 1             @ lvgl/src/lv_widgets/lv_tileview.c:437:13
	ldrsh.w	r0, [sp, #40]
	.loc	10 437 34 is_stmt 0             @ lvgl/src/lv_widgets/lv_tileview.c:437:34
	str	r0, [sp]                        @ 4-byte Spill
	ldr	r0, [sp, #60]
	.loc	10 437 17                       @ lvgl/src/lv_widgets/lv_tileview.c:437:17
	bl	lv_obj_get_width
	mov	r1, r0
	.loc	10 437 15                       @ lvgl/src/lv_widgets/lv_tileview.c:437:15
	ldr	r0, [sp]                        @ 4-byte Reload
	sdiv	r0, r0, r1
	.loc	10 437 9                        @ lvgl/src/lv_widgets/lv_tileview.c:437:9
	strh.w	r0, [sp, #40]
	.loc	10 438 13 is_stmt 1             @ lvgl/src/lv_widgets/lv_tileview.c:438:13
	ldrsh.w	r0, [sp, #42]
	.loc	10 438 35 is_stmt 0             @ lvgl/src/lv_widgets/lv_tileview.c:438:35
	str	r0, [sp, #4]                    @ 4-byte Spill
	ldr	r0, [sp, #60]
	.loc	10 438 17                       @ lvgl/src/lv_widgets/lv_tileview.c:438:17
	bl	lv_obj_get_height
	mov	r1, r0
	.loc	10 438 15                       @ lvgl/src/lv_widgets/lv_tileview.c:438:15
	ldr	r0, [sp, #4]                    @ 4-byte Reload
	sdiv	r0, r0, r1
	.loc	10 438 9                        @ lvgl/src/lv_widgets/lv_tileview.c:438:9
	strh.w	r0, [sp, #42]
	.loc	10 441 25 is_stmt 1             @ lvgl/src/lv_widgets/lv_tileview.c:441:25
	ldrh.w	r0, [sp, #40]
	.loc	10 441 31 is_stmt 0             @ lvgl/src/lv_widgets/lv_tileview.c:441:31
	ldr	r1, [sp, #56]
	ldrh.w	r1, [r1, #72]
	.loc	10 441 29                       @ lvgl/src/lv_widgets/lv_tileview.c:441:29
	subs	r0, r0, r1
	.loc	10 441 16                       @ lvgl/src/lv_widgets/lv_tileview.c:441:16
	strh.w	r0, [sp, #20]
	.loc	10 442 25 is_stmt 1             @ lvgl/src/lv_widgets/lv_tileview.c:442:25
	ldrh.w	r0, [sp, #42]
	.loc	10 442 31 is_stmt 0             @ lvgl/src/lv_widgets/lv_tileview.c:442:31
	ldr	r1, [sp, #56]
	ldrh.w	r1, [r1, #74]
	.loc	10 442 29                       @ lvgl/src/lv_widgets/lv_tileview.c:442:29
	subs	r0, r0, r1
	.loc	10 442 16                       @ lvgl/src/lv_widgets/lv_tileview.c:442:16
	strh.w	r0, [sp, #18]
.Ltmp217:
	.loc	10 443 8 is_stmt 1              @ lvgl/src/lv_widgets/lv_tileview.c:443:8
	ldrsh.w	r0, [sp, #20]
.Ltmp218:
	.loc	10 443 8 is_stmt 0              @ lvgl/src/lv_widgets/lv_tileview.c:443:8
	cmn.w	r0, #2
	bgt	.LBB14_13
	b	.LBB14_12
.LBB14_12:
	.loc	10 0 8                          @ lvgl/src/lv_widgets/lv_tileview.c:0:8
	movw	r0, #65535
.Ltmp219:
	.loc	10 443 28                       @ lvgl/src/lv_widgets/lv_tileview.c:443:28
	strh.w	r0, [sp, #20]
	.loc	10 443 21                       @ lvgl/src/lv_widgets/lv_tileview.c:443:21
	b	.LBB14_13
.Ltmp220:
.LBB14_13:
	.loc	10 444 8 is_stmt 1              @ lvgl/src/lv_widgets/lv_tileview.c:444:8
	ldrsh.w	r0, [sp, #20]
.Ltmp221:
	.loc	10 444 8 is_stmt 0              @ lvgl/src/lv_widgets/lv_tileview.c:444:8
	cmp	r0, #2
	blt	.LBB14_15
	b	.LBB14_14
.LBB14_14:
	.loc	10 0 8                          @ lvgl/src/lv_widgets/lv_tileview.c:0:8
	movs	r0, #1
.Ltmp222:
	.loc	10 444 27                       @ lvgl/src/lv_widgets/lv_tileview.c:444:27
	strh.w	r0, [sp, #20]
	.loc	10 444 20                       @ lvgl/src/lv_widgets/lv_tileview.c:444:20
	b	.LBB14_15
.Ltmp223:
.LBB14_15:
	.loc	10 445 8 is_stmt 1              @ lvgl/src/lv_widgets/lv_tileview.c:445:8
	ldrsh.w	r0, [sp, #18]
.Ltmp224:
	.loc	10 445 8 is_stmt 0              @ lvgl/src/lv_widgets/lv_tileview.c:445:8
	cmn.w	r0, #2
	bgt	.LBB14_17
	b	.LBB14_16
.LBB14_16:
	.loc	10 0 8                          @ lvgl/src/lv_widgets/lv_tileview.c:0:8
	movw	r0, #65535
.Ltmp225:
	.loc	10 445 28                       @ lvgl/src/lv_widgets/lv_tileview.c:445:28
	strh.w	r0, [sp, #18]
	.loc	10 445 21                       @ lvgl/src/lv_widgets/lv_tileview.c:445:21
	b	.LBB14_17
.Ltmp226:
.LBB14_17:
	.loc	10 446 8 is_stmt 1              @ lvgl/src/lv_widgets/lv_tileview.c:446:8
	ldrsh.w	r0, [sp, #18]
.Ltmp227:
	.loc	10 446 8 is_stmt 0              @ lvgl/src/lv_widgets/lv_tileview.c:446:8
	cmp	r0, #2
	blt	.LBB14_19
	b	.LBB14_18
.LBB14_18:
	.loc	10 0 8                          @ lvgl/src/lv_widgets/lv_tileview.c:0:8
	movs	r0, #1
.Ltmp228:
	.loc	10 446 27                       @ lvgl/src/lv_widgets/lv_tileview.c:446:27
	strh.w	r0, [sp, #18]
	.loc	10 446 20                       @ lvgl/src/lv_widgets/lv_tileview.c:446:20
	b	.LBB14_19
.Ltmp229:
.LBB14_19:
	.loc	10 449 30 is_stmt 1             @ lvgl/src/lv_widgets/lv_tileview.c:449:30
	ldr	r0, [sp, #60]
	.loc	10 449 40 is_stmt 0             @ lvgl/src/lv_widgets/lv_tileview.c:449:40
	ldr	r2, [sp, #56]
	ldrh.w	r1, [r2, #72]
	.loc	10 449 56                       @ lvgl/src/lv_widgets/lv_tileview.c:449:56
	ldrh.w	r3, [sp, #20]
	.loc	10 449 54                       @ lvgl/src/lv_widgets/lv_tileview.c:449:54
	add	r1, r3
	.loc	10 449 64                       @ lvgl/src/lv_widgets/lv_tileview.c:449:64
	ldrh.w	r2, [r2, #74]
	.loc	10 449 80                       @ lvgl/src/lv_widgets/lv_tileview.c:449:80
	ldrh.w	r3, [sp, #18]
	.loc	10 449 78                       @ lvgl/src/lv_widgets/lv_tileview.c:449:78
	add	r2, r3
	.loc	10 449 5                        @ lvgl/src/lv_widgets/lv_tileview.c:449:5
	sxth	r1, r1
	sxth	r2, r2
	movs	r3, #1
	bl	lv_tileview_set_tile_act
	.loc	10 450 1 is_stmt 1              @ lvgl/src/lv_widgets/lv_tileview.c:450:1
	add	sp, #64
	pop	{r7, pc}
.Ltmp230:
.Lfunc_end14:
	.size	drag_end_handler, .Lfunc_end14-drag_end_handler
	.cfi_endproc
	.cantunwind
	.fnend
                                        @ -- End function
	.section	.text.lv_obj_get_style_pad_top,"ax",%progbits
	.p2align	3                               @ -- Begin function lv_obj_get_style_pad_top
	.type	lv_obj_get_style_pad_top,%function
	.code	16                              @ @lv_obj_get_style_pad_top
	.thumb_func
lv_obj_get_style_pad_top:
.Lfunc_begin15:
	.file	16 "E:\\Smart-access-control\\Hardware\\CODE" "lvgl/src/lv_widgets/../lv_core/lv_obj_style_dec.h"
	.loc	16 100 0                        @ lvgl/src/lv_widgets/../lv_core/lv_obj_style_dec.h:100:0
	.fnstart
	.cfi_startproc
@ %bb.0:
	.save	{r7, lr}
	push	{r7, lr}
	.cfi_def_cfa_offset 8
	.cfi_offset lr, -4
	.cfi_offset r7, -8
	.pad	#8
	sub	sp, #8
	.cfi_def_cfa_offset 16
                                        @ kill: def $r2 killed $r1
	str	r0, [sp, #4]
	strb.w	r1, [sp, #3]
.Ltmp231:
	.loc	16 100 1 prologue_end           @ lvgl/src/lv_widgets/../lv_core/lv_obj_style_dec.h:100:1
	ldr	r0, [sp, #4]
	ldrb.w	r1, [sp, #3]
	movs	r2, #16
	bl	_lv_obj_get_style_int
	add	sp, #8
	pop	{r7, pc}
.Ltmp232:
.Lfunc_end15:
	.size	lv_obj_get_style_pad_top, .Lfunc_end15-lv_obj_get_style_pad_top
	.cfi_endproc
	.cantunwind
	.fnend
                                        @ -- End function
	.section	.text.lv_obj_get_style_pad_left,"ax",%progbits
	.p2align	3                               @ -- Begin function lv_obj_get_style_pad_left
	.type	lv_obj_get_style_pad_left,%function
	.code	16                              @ @lv_obj_get_style_pad_left
	.thumb_func
lv_obj_get_style_pad_left:
.Lfunc_begin16:
	.loc	16 102 0                        @ lvgl/src/lv_widgets/../lv_core/lv_obj_style_dec.h:102:0
	.fnstart
	.cfi_startproc
@ %bb.0:
	.save	{r7, lr}
	push	{r7, lr}
	.cfi_def_cfa_offset 8
	.cfi_offset lr, -4
	.cfi_offset r7, -8
	.pad	#8
	sub	sp, #8
	.cfi_def_cfa_offset 16
                                        @ kill: def $r2 killed $r1
	str	r0, [sp, #4]
	strb.w	r1, [sp, #3]
.Ltmp233:
	.loc	16 102 1 prologue_end           @ lvgl/src/lv_widgets/../lv_core/lv_obj_style_dec.h:102:1
	ldr	r0, [sp, #4]
	ldrb.w	r1, [sp, #3]
	movs	r2, #18
	bl	_lv_obj_get_style_int
	add	sp, #8
	pop	{r7, pc}
.Ltmp234:
.Lfunc_end16:
	.size	lv_obj_get_style_pad_left, .Lfunc_end16-lv_obj_get_style_pad_left
	.cfi_endproc
	.cantunwind
	.fnend
                                        @ -- End function
	.type	.L.str,%object                  @ @.str
	.section	.rodata.str1.1,"aMS",%progbits,1
.L.str:
	.asciz	"Out of memory"
	.size	.L.str, 14

	.type	ancestor_signal,%object         @ @ancestor_signal
	.section	.bss.ancestor_signal,"aw",%nobits
	.p2align	2
ancestor_signal:
	.long	0
	.size	ancestor_signal, 4

	.type	ancestor_scrl_signal,%object    @ @ancestor_scrl_signal
	.section	.bss.ancestor_scrl_signal,"aw",%nobits
	.p2align	2
ancestor_scrl_signal:
	.long	0
	.size	ancestor_scrl_signal, 4

	.type	ancestor_design,%object         @ @ancestor_design
	.section	.bss.ancestor_design,"aw",%nobits
	.p2align	2
ancestor_design:
	.long	0
	.size	ancestor_design, 4

	.type	.L.str.1,%object                @ @.str.1
	.section	.rodata.str1.1,"aMS",%progbits,1
.L.str.1:
	.asciz	"NULL pointer"
	.size	.L.str.1, 13

	.type	.L.str.2,%object                @ @.str.2
.L.str.2:
	.asciz	"lv_tileview"
	.size	.L.str.2, 12

	.type	.L.str.3,%object                @ @.str.3
.L.str.3:
	.zero	1
	.size	.L.str.3, 1

	.file	17 "E:\\Smart-access-control\\Hardware\\CODE" "lvgl/src/lv_widgets/../lv_core/../lv_hal/lv_hal_disp.h"
	.file	18 "E:\\Smart-access-control\\Hardware\\CODE" "lvgl/src/lv_widgets/../lv_core/../lv_hal/../lv_misc/lv_color.h"
	.file	19 "E:\\Smart-access-control\\Hardware\\CODE" "lvgl/src/lv_widgets/../lv_core/../lv_hal/../lv_misc/lv_task.h"
	.file	20 "E:\\Smart-access-control\\Hardware\\CODE" "lvgl/src/lv_widgets/../lv_core/../lv_core/lv_group.h"
	.section	".note.GNU-stack","",%progbits
	.eabi_attribute	30, 6	@ Tag_ABI_optimization_goals
	.ARM_attribute	16, 1	@ Tag_AV_eba