	.text
	.syntax unified
	.eabi_attribute	67, "2.09"	@ Tag_conformance
	.cpu	cortex-m7
	.eabi_attribute	6, 13	@ Tag_CPU_arch
	.eabi_attribute	7, 77	@ Tag_CPU_arch_profile
	.eabi_attribute	8, 0	@ Tag_ARM_ISA_use
	.eabi_attribute	9, 2	@ Tag_THUMB_ISA_use
	.fpu	fpv5-d16
	.eabi_attribute	36, 1	@ Tag_FP_HP_extension
	.eabi_attribute	34, 1	@ Tag_CPU_unaligned_access
	.eabi_attribute	17, 1	@ Tag_ABI_PCS_GOT_use
	.eabi_attribute	20, 2	@ Tag_ABI_FP_denormal
	.eabi_attribute	21, 0	@ Tag_ABI_FP_exceptions
	.eabi_attribute	23, 1	@ Tag_ABI_FP_number_model
	.eabi_attribute	24, 1	@ Tag_ABI_align_needed
	.eabi_attribute	25, 1	@ Tag_ABI_align_preserved
	.eabi_attribute	28, 1	@ Tag_ABI_VFP_args
	.eabi_attribute	38, 1	@ Tag_ABI_FP_16bit_format
	.eabi_attribute	18, 2	@ Tag_ABI_PCS_wchar_t
	.eabi_attribute	26, 1	@ Tag_ABI_enum_size
	.eabi_attribute	14, 0	@ Tag_ABI_PCS_R9_use
	.file	"lv_utils.c"
	.section	.text._lv_utils_num_to_str,"ax",%progbits
	.hidden	_lv_utils_num_to_str            @ -- Begin function _lv_utils_num_to_str
	.globl	_lv_utils_num_to_str
	.p2align	3
	.type	_lv_utils_num_to_str,%function
	.code	16                              @ @_lv_utils_num_to_str
	.thumb_func
_lv_utils_num_to_str:
.Lfunc_begin0:
	.file	1 "E:\\Smart-access-control\\Hardware\\CODE" "lvgl/src/lv_misc/lv_utils.c"
	.loc	1 47 0                          @ lvgl/src/lv_misc/lv_utils.c:47:0
	.fnstart
	.cfi_sections .debug_frame
	.cfi_startproc
@ %bb.0:
	.pad	#20
	sub	sp, #20
	.cfi_def_cfa_offset 20
	str	r0, [sp, #12]
	str	r1, [sp, #8]
.Ltmp0:
	.loc	1 48 8 prologue_end             @ lvgl/src/lv_misc/lv_utils.c:48:8
	ldr	r0, [sp, #12]
.Ltmp1:
	.loc	1 48 8 is_stmt 0                @ lvgl/src/lv_misc/lv_utils.c:48:8
	cbnz	r0, .LBB0_2
	b	.LBB0_1
.LBB0_1:
.Ltmp2:
	.loc	1 49 9 is_stmt 1                @ lvgl/src/lv_misc/lv_utils.c:49:9
	ldr	r1, [sp, #8]
	movs	r0, #48
	.loc	1 49 16 is_stmt 0               @ lvgl/src/lv_misc/lv_utils.c:49:16
	strb	r0, [r1]
	.loc	1 50 9 is_stmt 1                @ lvgl/src/lv_misc/lv_utils.c:50:9
	ldr	r1, [sp, #8]
	movs	r0, #0
	.loc	1 50 16 is_stmt 0               @ lvgl/src/lv_misc/lv_utils.c:50:16
	strb	r0, [r1, #1]
	.loc	1 51 16 is_stmt 1               @ lvgl/src/lv_misc/lv_utils.c:51:16
	ldr	r0, [sp, #8]
	.loc	1 51 9 is_stmt 0                @ lvgl/src/lv_misc/lv_utils.c:51:9
	str	r0, [sp, #16]
	b	.LBB0_14
.Ltmp3:
.LBB0_2:
	.loc	1 0 9                           @ lvgl/src/lv_misc/lv_utils.c:0:9
	movs	r0, #0
	.loc	1 53 12 is_stmt 1               @ lvgl/src/lv_misc/lv_utils.c:53:12
	strb.w	r0, [sp, #7]
	.loc	1 54 12                         @ lvgl/src/lv_misc/lv_utils.c:54:12
	strb.w	r0, [sp, #6]
.Ltmp4:
	.loc	1 55 8                          @ lvgl/src/lv_misc/lv_utils.c:55:8
	ldr	r0, [sp, #12]
.Ltmp5:
	.loc	1 55 8 is_stmt 0                @ lvgl/src/lv_misc/lv_utils.c:55:8
	cmp.w	r0, #-1
	bgt	.LBB0_7
	b	.LBB0_3
.LBB0_3:
.Ltmp6:
	.loc	1 56 9 is_stmt 1                @ lvgl/src/lv_misc/lv_utils.c:56:9
	ldr	r1, [sp, #8]
	ldrsb.w	r2, [sp, #7]
	.loc	1 56 23 is_stmt 0               @ lvgl/src/lv_misc/lv_utils.c:56:23
	adds	r0, r2, #1
	strb.w	r0, [sp, #7]
	movs	r0, #45
	.loc	1 56 27                         @ lvgl/src/lv_misc/lv_utils.c:56:27
	strb	r0, [r1, r2]
	.loc	1 57 29 is_stmt 1               @ lvgl/src/lv_misc/lv_utils.c:57:29
	ldr	r0, [sp, #12]
	cmp	r0, #1
	blt	.LBB0_5
	b	.LBB0_4
.LBB0_4:
	ldr	r0, [sp, #12]
	str	r0, [sp]                        @ 4-byte Spill
	b	.LBB0_6
.LBB0_5:
	ldr	r0, [sp, #12]
	rsbs	r0, r0, #0
	str	r0, [sp]                        @ 4-byte Spill
	b	.LBB0_6
.LBB0_6:
	ldr	r0, [sp]                        @ 4-byte Reload
	.loc	1 57 27 is_stmt 0               @ lvgl/src/lv_misc/lv_utils.c:57:27
	str	r0, [sp, #12]
	.loc	1 58 9 is_stmt 1                @ lvgl/src/lv_misc/lv_utils.c:58:9
	ldrb.w	r0, [sp, #6]
	adds	r0, #1
	strb.w	r0, [sp, #6]
	.loc	1 59 5                          @ lvgl/src/lv_misc/lv_utils.c:59:5
	b	.LBB0_7
.Ltmp7:
.LBB0_7:
	.loc	1 60 5                          @ lvgl/src/lv_misc/lv_utils.c:60:5
	b	.LBB0_8
.LBB0_8:                                @ =>This Inner Loop Header: Depth=1
	.loc	1 60 11 is_stmt 0               @ lvgl/src/lv_misc/lv_utils.c:60:11
	ldr	r0, [sp, #12]
	.loc	1 60 5                          @ lvgl/src/lv_misc/lv_utils.c:60:5
	cbz	r0, .LBB0_10
	b	.LBB0_9
.LBB0_9:                                @   in Loop: Header=BB0_8 Depth=1
.Ltmp8:
	.loc	1 61 29 is_stmt 1               @ lvgl/src/lv_misc/lv_utils.c:61:29
	ldr	r0, [sp, #12]
	movw	r1, #26215
	movt	r1, #26214
	.loc	1 61 33 is_stmt 0               @ lvgl/src/lv_misc/lv_utils.c:61:33
	smmul	r3, r0, r1
	asrs	r2, r3, #2
	add.w	r2, r2, r3, lsr #31
	add.w	r2, r2, r2, lsl #2
	sub.w	r0, r0, r2, lsl #1
	.loc	1 61 14                         @ lvgl/src/lv_misc/lv_utils.c:61:14
	strb.w	r0, [sp, #5]
	.loc	1 62 29 is_stmt 1               @ lvgl/src/lv_misc/lv_utils.c:62:29
	ldrb.w	r0, [sp, #5]
	.loc	1 62 35 is_stmt 0               @ lvgl/src/lv_misc/lv_utils.c:62:35
	adds	r0, #48
	.loc	1 62 9                          @ lvgl/src/lv_misc/lv_utils.c:62:9
	ldr	r2, [sp, #8]
	ldrsb.w	r3, [sp, #7]
	.loc	1 62 23                         @ lvgl/src/lv_misc/lv_utils.c:62:23
	add.w	r12, r3, #1
	strb.w	r12, [sp, #7]
	.loc	1 62 27                         @ lvgl/src/lv_misc/lv_utils.c:62:27
	strb	r0, [r2, r3]
	.loc	1 63 13 is_stmt 1               @ lvgl/src/lv_misc/lv_utils.c:63:13
	ldr	r0, [sp, #12]
	smmul	r1, r0, r1
	asrs	r0, r1, #2
	add.w	r0, r0, r1, lsr #31
	str	r0, [sp, #12]
.Ltmp9:
	.loc	1 60 5                          @ lvgl/src/lv_misc/lv_utils.c:60:5
	b	.LBB0_8
.LBB0_10:
	.loc	1 65 5                          @ lvgl/src/lv_misc/lv_utils.c:65:5
	ldr	r1, [sp, #8]
	.loc	1 65 9 is_stmt 0                @ lvgl/src/lv_misc/lv_utils.c:65:9
	ldrsb.w	r2, [sp, #7]
	movs	r0, #0
	.loc	1 65 21                         @ lvgl/src/lv_misc/lv_utils.c:65:21
	strb	r0, [r1, r2]
	.loc	1 66 15 is_stmt 1               @ lvgl/src/lv_misc/lv_utils.c:66:15
	ldrb.w	r0, [sp, #7]
	subs	r0, #1
	strb.w	r0, [sp, #7]
	.loc	1 67 5                          @ lvgl/src/lv_misc/lv_utils.c:67:5
	b	.LBB0_11
.LBB0_11:                               @ =>This Inner Loop Header: Depth=1
	.loc	1 67 11 is_stmt 0               @ lvgl/src/lv_misc/lv_utils.c:67:11
	ldrsb.w	r0, [sp, #7]
	.loc	1 67 24                         @ lvgl/src/lv_misc/lv_utils.c:67:24
	ldrsb.w	r1, [sp, #6]
	.loc	1 67 5                          @ lvgl/src/lv_misc/lv_utils.c:67:5
	cmp	r0, r1
	ble	.LBB0_13
	b	.LBB0_12
.LBB0_12:                               @   in Loop: Header=BB0_11 Depth=1
.Ltmp10:
	.loc	1 68 27 is_stmt 1               @ lvgl/src/lv_misc/lv_utils.c:68:27
	ldr	r0, [sp, #8]
	.loc	1 68 31 is_stmt 0               @ lvgl/src/lv_misc/lv_utils.c:68:31
	ldrsb.w	r1, [sp, #6]
	.loc	1 68 27                         @ lvgl/src/lv_misc/lv_utils.c:68:27
	ldrb	r0, [r0, r1]
	.loc	1 68 14                         @ lvgl/src/lv_misc/lv_utils.c:68:14
	strb.w	r0, [sp, #4]
	.loc	1 69 27 is_stmt 1               @ lvgl/src/lv_misc/lv_utils.c:69:27
	ldr	r1, [sp, #8]
	.loc	1 69 31 is_stmt 0               @ lvgl/src/lv_misc/lv_utils.c:69:31
	ldrsb.w	r0, [sp, #7]
	.loc	1 69 27                         @ lvgl/src/lv_misc/lv_utils.c:69:27
	ldrb	r0, [r1, r0]
	.loc	1 69 13                         @ lvgl/src/lv_misc/lv_utils.c:69:13
	ldrsb.w	r2, [sp, #6]
	.loc	1 69 25                         @ lvgl/src/lv_misc/lv_utils.c:69:25
	strb	r0, [r1, r2]
	.loc	1 70 27 is_stmt 1               @ lvgl/src/lv_misc/lv_utils.c:70:27
	ldrb.w	r0, [sp, #4]
	.loc	1 70 9 is_stmt 0                @ lvgl/src/lv_misc/lv_utils.c:70:9
	ldr	r1, [sp, #8]
	.loc	1 70 13                         @ lvgl/src/lv_misc/lv_utils.c:70:13
	ldrsb.w	r2, [sp, #7]
	.loc	1 70 25                         @ lvgl/src/lv_misc/lv_utils.c:70:25
	strb	r0, [r1, r2]
	.loc	1 71 19 is_stmt 1               @ lvgl/src/lv_misc/lv_utils.c:71:19
	ldrb.w	r0, [sp, #7]
	subs	r0, #1
	strb.w	r0, [sp, #7]
	.loc	1 72 10                         @ lvgl/src/lv_misc/lv_utils.c:72:10
	ldrb.w	r0, [sp, #6]
	adds	r0, #1
	strb.w	r0, [sp, #6]
.Ltmp11:
	.loc	1 67 5                          @ lvgl/src/lv_misc/lv_utils.c:67:5
	b	.LBB0_11
.LBB0_13:
	.loc	1 74 12                         @ lvgl/src/lv_misc/lv_utils.c:74:12
	ldr	r0, [sp, #8]
	.loc	1 74 5 is_stmt 0                @ lvgl/src/lv_misc/lv_utils.c:74:5
	str	r0, [sp, #16]
	b	.LBB0_14
.LBB0_14:
	.loc	1 75 1 is_stmt 1                @ lvgl/src/lv_misc/lv_utils.c:75:1
	ldr	r0, [sp, #16]
	add	sp, #20
	bx	lr
.Ltmp12:
.Lfunc_end0:
	.size	_lv_utils_num_to_str, .Lfunc_end0-_lv_utils_num_to_str
	.cfi_endproc
	.cantunwind
	.fnend
                                        @ -- End function
	.section	.text._lv_utils_bsearch,"ax",%progbits
	.hidden	_lv_utils_bsearch               @ -- Begin function _lv_utils_bsearch
	.globl	_lv_utils_bsearch
	.p2align	3
	.type	_lv_utils_bsearch,%function
	.code	16                              @ @_lv_utils_bsearch
	.thumb_func
_lv_utils_bsearch:
.Lfunc_begin1:
	.loc	1 96 0                          @ lvgl/src/lv_misc/lv_utils.c:96:0
	.fnstart
	.cfi_startproc
@ %bb.0:
	.save	{r7, lr}
	push	{r7, lr}
	.cfi_def_cfa_offset 8
	.cfi_offset lr, -4
	.cfi_offset r7, -8
	.pad	#32
	sub	sp, #32
	.cfi_def_cfa_offset 40
	ldr.w	r12, [sp, #40]
	str	r0, [sp, #24]
	str	r1, [sp, #20]
	str	r2, [sp, #16]
	str	r3, [sp, #12]
.Ltmp13:
	.loc	1 100 18 prologue_end           @ lvgl/src/lv_misc/lv_utils.c:100:18
	ldr	r0, [sp, #20]
	.loc	1 100 16 is_stmt 0              @ lvgl/src/lv_misc/lv_utils.c:100:16
	str	r0, [sp, #8]
	.loc	1 100 9                         @ lvgl/src/lv_misc/lv_utils.c:100:9
	b	.LBB1_1
.LBB1_1:                                @ =>This Inner Loop Header: Depth=1
.Ltmp14:
	.loc	1 100 24                        @ lvgl/src/lv_misc/lv_utils.c:100:24
	ldr	r0, [sp, #16]
.Ltmp15:
	.loc	1 100 5                         @ lvgl/src/lv_misc/lv_utils.c:100:5
	cbz	r0, .LBB1_9
	b	.LBB1_2
.LBB1_2:                                @   in Loop: Header=BB1_1 Depth=1
.Ltmp16:
	.loc	1 101 20 is_stmt 1              @ lvgl/src/lv_misc/lv_utils.c:101:20
	ldr	r0, [sp, #16]
	.loc	1 101 22 is_stmt 0              @ lvgl/src/lv_misc/lv_utils.c:101:22
	lsrs	r0, r0, #1
	.loc	1 101 29                        @ lvgl/src/lv_misc/lv_utils.c:101:29
	ldr	r1, [sp, #12]
	.loc	1 101 16                        @ lvgl/src/lv_misc/lv_utils.c:101:16
	ldr	r2, [sp, #8]
	mla	r0, r0, r1, r2
	str	r0, [sp, #8]
.Ltmp17:
	.loc	1 102 19 is_stmt 1              @ lvgl/src/lv_misc/lv_utils.c:102:19
	ldr	r2, [sp, #40]
	.loc	1 102 24 is_stmt 0              @ lvgl/src/lv_misc/lv_utils.c:102:24
	ldr	r0, [sp, #24]
	.loc	1 102 29                        @ lvgl/src/lv_misc/lv_utils.c:102:29
	ldr	r1, [sp, #8]
	.loc	1 102 17                        @ lvgl/src/lv_misc/lv_utils.c:102:17
	blx	r2
	.loc	1 102 15                        @ lvgl/src/lv_misc/lv_utils.c:102:15
	str	r0, [sp, #4]
.Ltmp18:
	.loc	1 102 12                        @ lvgl/src/lv_misc/lv_utils.c:102:12
	cmp	r0, #1
	blt	.LBB1_4
	b	.LBB1_3
.LBB1_3:                                @   in Loop: Header=BB1_1 Depth=1
.Ltmp19:
	.loc	1 103 21 is_stmt 1              @ lvgl/src/lv_misc/lv_utils.c:103:21
	ldr	r2, [sp, #16]
	.loc	1 103 23 is_stmt 0              @ lvgl/src/lv_misc/lv_utils.c:103:23
	lsrs	r0, r2, #1
	mov.w	r1, #-1
	.loc	1 103 28                        @ lvgl/src/lv_misc/lv_utils.c:103:28
	add.w	r1, r1, r2, lsr #1
	lsls	r2, r2, #31
	cmp	r2, #0
	it	eq
	moveq	r0, r1
	.loc	1 103 18                        @ lvgl/src/lv_misc/lv_utils.c:103:18
	str	r0, [sp, #16]
	.loc	1 104 31 is_stmt 1              @ lvgl/src/lv_misc/lv_utils.c:104:31
	ldr	r1, [sp, #12]
	.loc	1 104 28 is_stmt 0              @ lvgl/src/lv_misc/lv_utils.c:104:28
	ldr	r0, [sp, #8]
	add	r0, r1
	str	r0, [sp, #8]
	.loc	1 104 18                        @ lvgl/src/lv_misc/lv_utils.c:104:18
	str	r0, [sp, #20]
	.loc	1 105 9 is_stmt 1               @ lvgl/src/lv_misc/lv_utils.c:105:9
	b	.LBB1_8
.Ltmp20:
.LBB1_4:                                @   in Loop: Header=BB1_1 Depth=1
	.loc	1 106 17                        @ lvgl/src/lv_misc/lv_utils.c:106:17
	ldr	r0, [sp, #4]
.Ltmp21:
	.loc	1 106 17 is_stmt 0              @ lvgl/src/lv_misc/lv_utils.c:106:17
	cmp.w	r0, #-1
	bgt	.LBB1_6
	b	.LBB1_5
.LBB1_5:                                @   in Loop: Header=BB1_1 Depth=1
.Ltmp22:
	.loc	1 107 15 is_stmt 1              @ lvgl/src/lv_misc/lv_utils.c:107:15
	ldr	r0, [sp, #16]
	lsrs	r0, r0, #1
	str	r0, [sp, #16]
	.loc	1 108 22                        @ lvgl/src/lv_misc/lv_utils.c:108:22
	ldr	r0, [sp, #20]
	.loc	1 108 20 is_stmt 0              @ lvgl/src/lv_misc/lv_utils.c:108:20
	str	r0, [sp, #8]
	.loc	1 109 9 is_stmt 1               @ lvgl/src/lv_misc/lv_utils.c:109:9
	b	.LBB1_7
.Ltmp23:
.LBB1_6:
	.loc	1 111 28                        @ lvgl/src/lv_misc/lv_utils.c:111:28
	ldr	r0, [sp, #8]
	.loc	1 111 13 is_stmt 0              @ lvgl/src/lv_misc/lv_utils.c:111:13
	str	r0, [sp, #28]
	b	.LBB1_10
.Ltmp24:
.LBB1_7:                                @   in Loop: Header=BB1_1 Depth=1
	.loc	1 0 13                          @ lvgl/src/lv_misc/lv_utils.c:0:13
	b	.LBB1_8
.LBB1_8:                                @   in Loop: Header=BB1_1 Depth=1
	.loc	1 100 5 is_stmt 1               @ lvgl/src/lv_misc/lv_utils.c:100:5
	b	.LBB1_1
.Ltmp25:
.LBB1_9:
	.loc	1 0 5 is_stmt 0                 @ lvgl/src/lv_misc/lv_utils.c:0:5
	movs	r0, #0
	.loc	1 114 5 is_stmt 1               @ lvgl/src/lv_misc/lv_utils.c:114:5
	str	r0, [sp, #28]
	b	.LBB1_10
.LBB1_10:
	.loc	1 115 1                         @ lvgl/src/lv_misc/lv_utils.c:115:1
	ldr	r0, [sp, #28]
	add	sp, #32
	pop	{r7, pc}
.Ltmp26:
.Lfunc_end1:
	.size	_lv_utils_bsearch, .Lfunc_end1-_lv_utils_bsearch
	.cfi_endproc
	.cantunwind
	.fnend
                                        @ -- End function
	.file	2 "D:\\Keil_v5\\ARM\\ARMCLANG\\Bin\\..\\include" "stdint.h"
	.section	".note.GNU-stack","",%progbits
	.eabi_attribute	30, 6	@ Tag_ABI_optimization_goals
	.ARM_attribute	16, 1	@ Tag_AV_eba