	.text
	.syntax unified
	.eabi_attribute	67, "2.09"	@ Tag_conformance
	.cpu	cortex-m7
	.eabi_attribute	6, 13	@ Tag_CPU_arch
	.eabi_attribute	7, 77	@ Tag_CPU_arch_profile
	.eabi_attribute	8, 0	@ Tag_ARM_ISA_use
	.eabi_attribute	9, 2	@ Tag_THUMB_ISA_use
	.fpu	fpv5-d16
	.eabi_attribute	36, 1	@ Tag_FP_HP_extension
	.eabi_attribute	34, 1	@ Tag_CPU_unaligned_access
	.eabi_attribute	17, 1	@ Tag_ABI_PCS_GOT_use
	.eabi_attribute	20, 2	@ Tag_ABI_FP_denormal
	.eabi_attribute	21, 0	@ Tag_ABI_FP_exceptions
	.eabi_attribute	23, 1	@ Tag_ABI_FP_number_model
	.eabi_attribute	24, 1	@ Tag_ABI_align_needed
	.eabi_attribute	25, 1	@ Tag_ABI_align_preserved
	.eabi_attribute	28, 1	@ Tag_ABI_VFP_args
	.eabi_attribute	38, 1	@ Tag_ABI_FP_16bit_format
	.eabi_attribute	18, 2	@ Tag_ABI_PCS_wchar_t
	.eabi_attribute	26, 1	@ Tag_ABI_enum_size
	.eabi_attribute	14, 0	@ Tag_ABI_PCS_R9_use
	.file	"lv_win.c"
	.file	1 "D:\\Keil_v5\\ARM\\ARMCLANG\\Bin\\..\\include" "stdint.h"
	.file	2 "E:\\STM32\\Learning\\STM32H750_ART_PI_RGBLCD" "lvgl/src/lv_widgets/../lv_themes/../lv_core/lv_obj.h"
	.file	3 "E:\\STM32\\Learning\\STM32H750_ART_PI_RGBLCD" "lvgl/src/lv_widgets/../lv_core/../lv_font/../lv_misc/lv_ll.h"
	.file	4 "E:\\STM32\\Learning\\STM32H750_ART_PI_RGBLCD" "./lvgl/src/lv_conf.h"
	.file	5 "E:\\STM32\\Learning\\STM32H750_ART_PI_RGBLCD" "lvgl/src/lv_widgets/../lv_core/../lv_hal/../lv_misc/lv_area.h"
	.file	6 "E:\\STM32\\Learning\\STM32H750_ART_PI_RGBLCD" "lvgl/src/lv_widgets/../lv_core/../lv_draw/../lv_misc/lv_types.h"
	.file	7 "E:\\STM32\\Learning\\STM32H750_ART_PI_RGBLCD" "lvgl/src/lv_widgets/../lv_themes/../lv_core/lv_style.h"
	.file	8 "E:\\STM32\\Learning\\STM32H750_ART_PI_RGBLCD" "lvgl/src/lv_widgets/../lv_core/../lv_hal/lv_hal_indev.h"
	.file	9 "E:\\STM32\\Learning\\STM32H750_ART_PI_RGBLCD" "lvgl/src/lv_widgets/../lv_core/../lv_draw/../lv_misc/lv_bidi.h"
	.file	10 "E:\\STM32\\Learning\\STM32H750_ART_PI_RGBLCD" "lvgl/src/lv_widgets/lv_win.c"
	.file	11 "E:\\STM32\\Learning\\STM32H750_ART_PI_RGBLCD" "lvgl/src/lv_widgets/../lv_misc/lv_txt.h"
	.file	12 "E:\\STM32\\Learning\\STM32H750_ART_PI_RGBLCD" "lvgl/src/lv_widgets/lv_page.h"
	.file	13 "E:\\STM32\\Learning\\STM32H750_ART_PI_RGBLCD" "lvgl/src/lv_widgets/../lv_themes/lv_theme.h"
	.file	14 "E:\\STM32\\Learning\\STM32H750_ART_PI_RGBLCD" "lvgl/src/lv_widgets/lv_win.h"
	.file	15 "E:\\STM32\\Learning\\STM32H750_ART_PI_RGBLCD" "lvgl/src/lv_widgets/lv_cont.h"
	.section	.text.lv_win_create,"ax",%progbits
	.hidden	lv_win_create                   @ -- Begin function lv_win_create
	.globl	lv_win_create
	.p2align	3
	.type	lv_win_create,%function
	.code	16                              @ @lv_win_create
	.thumb_func
lv_win_create:
.Lfunc_begin0:
	.loc	10 74 0                         @ lvgl/src/lv_widgets/lv_win.c:74:0
	.fnstart
	.cfi_sections .debug_frame
	.cfi_startproc
@ %bb.0:
	.save	{r7, lr}
	push	{r7, lr}
	.cfi_def_cfa_offset 8
	.cfi_offset lr, -4
	.cfi_offset r7, -8
	.pad	#72
	sub	sp, #72
	.cfi_def_cfa_offset 80
	str	r0, [sp, #64]
	str	r1, [sp, #60]
.Ltmp0:
	.loc	10 78 40 prologue_end           @ lvgl/src/lv_widgets/lv_win.c:78:40
	ldr	r0, [sp, #64]
	.loc	10 78 45 is_stmt 0              @ lvgl/src/lv_widgets/lv_win.c:78:45
	ldr	r1, [sp, #60]
	.loc	10 78 26                        @ lvgl/src/lv_widgets/lv_win.c:78:26
	bl	lv_obj_create
	.loc	10 78 16                        @ lvgl/src/lv_widgets/lv_win.c:78:16
	str	r0, [sp, #56]
	.loc	10 79 5 is_stmt 1               @ lvgl/src/lv_widgets/lv_win.c:79:5
	b	.LBB0_1
.LBB0_1:
.Ltmp1:
	.loc	10 79 5 is_stmt 0               @ lvgl/src/lv_widgets/lv_win.c:79:5
	ldr	r0, [sp, #56]
	bl	lv_debug_check_null
.Ltmp2:
	.loc	10 79 5                         @ lvgl/src/lv_widgets/lv_win.c:79:5
	cbnz	r0, .LBB0_4
	b	.LBB0_2
.LBB0_2:
.Ltmp3:
	.loc	10 79 5                         @ lvgl/src/lv_widgets/lv_win.c:79:5
	ldr	r2, [sp, #56]
	movw	r0, :lower16:.L.str
	movt	r0, :upper16:.L.str
	movs	r3, #0
	bl	lv_debug_log_error
	b	.LBB0_3
.LBB0_3:                                @ =>This Inner Loop Header: Depth=1
	b	.LBB0_3
.Ltmp4:
.LBB0_4:
	.loc	10 79 5                         @ lvgl/src/lv_widgets/lv_win.c:79:5
	b	.LBB0_5
.Ltmp5:
.LBB0_5:
	.loc	10 80 8 is_stmt 1               @ lvgl/src/lv_widgets/lv_win.c:80:8
	ldr	r0, [sp, #56]
.Ltmp6:
	.loc	10 80 8 is_stmt 0               @ lvgl/src/lv_widgets/lv_win.c:80:8
	cbnz	r0, .LBB0_7
	b	.LBB0_6
.LBB0_6:
	.loc	10 0 8                          @ lvgl/src/lv_widgets/lv_win.c:0:8
	movs	r0, #0
.Ltmp7:
	.loc	10 80 25                        @ lvgl/src/lv_widgets/lv_win.c:80:25
	str	r0, [sp, #68]
	b	.LBB0_34
.Ltmp8:
.LBB0_7:
	.loc	10 82 8 is_stmt 1               @ lvgl/src/lv_widgets/lv_win.c:82:8
	movw	r0, :lower16:ancestor_signal
	movt	r0, :upper16:ancestor_signal
	ldr	r0, [r0]
.Ltmp9:
	.loc	10 82 8 is_stmt 0               @ lvgl/src/lv_widgets/lv_win.c:82:8
	cbnz	r0, .LBB0_9
	b	.LBB0_8
.LBB0_8:
.Ltmp10:
	.loc	10 82 72                        @ lvgl/src/lv_widgets/lv_win.c:82:72
	ldr	r0, [sp, #56]
	.loc	10 82 51                        @ lvgl/src/lv_widgets/lv_win.c:82:51
	bl	lv_obj_get_signal_cb
	.loc	10 82 49                        @ lvgl/src/lv_widgets/lv_win.c:82:49
	movw	r1, :lower16:ancestor_signal
	movt	r1, :upper16:ancestor_signal
	str	r0, [r1]
	.loc	10 82 33                        @ lvgl/src/lv_widgets/lv_win.c:82:33
	b	.LBB0_9
.Ltmp11:
.LBB0_9:
	.loc	10 85 51 is_stmt 1              @ lvgl/src/lv_widgets/lv_win.c:85:51
	ldr	r0, [sp, #56]
	movs	r1, #16
	.loc	10 85 26 is_stmt 0              @ lvgl/src/lv_widgets/lv_win.c:85:26
	bl	lv_obj_allocate_ext_attr
	.loc	10 85 20                        @ lvgl/src/lv_widgets/lv_win.c:85:20
	str	r0, [sp, #52]
	.loc	10 86 5 is_stmt 1               @ lvgl/src/lv_widgets/lv_win.c:86:5
	b	.LBB0_10
.LBB0_10:
.Ltmp12:
	.loc	10 86 5 is_stmt 0               @ lvgl/src/lv_widgets/lv_win.c:86:5
	ldr	r0, [sp, #52]
	bl	lv_debug_check_null
.Ltmp13:
	.loc	10 86 5                         @ lvgl/src/lv_widgets/lv_win.c:86:5
	cbnz	r0, .LBB0_13
	b	.LBB0_11
.LBB0_11:
.Ltmp14:
	.loc	10 86 5                         @ lvgl/src/lv_widgets/lv_win.c:86:5
	ldr	r2, [sp, #52]
	movw	r0, :lower16:.L.str
	movt	r0, :upper16:.L.str
	movs	r3, #0
	bl	lv_debug_log_error
	b	.LBB0_12
.LBB0_12:                               @ =>This Inner Loop Header: Depth=1
	b	.LBB0_12
.Ltmp15:
.LBB0_13:
	.loc	10 86 5                         @ lvgl/src/lv_widgets/lv_win.c:86:5
	b	.LBB0_14
.Ltmp16:
.LBB0_14:
	.loc	10 87 8 is_stmt 1               @ lvgl/src/lv_widgets/lv_win.c:87:8
	ldr	r0, [sp, #52]
.Ltmp17:
	.loc	10 87 8 is_stmt 0               @ lvgl/src/lv_widgets/lv_win.c:87:8
	cbnz	r0, .LBB0_16
	b	.LBB0_15
.LBB0_15:
.Ltmp18:
	.loc	10 88 20 is_stmt 1              @ lvgl/src/lv_widgets/lv_win.c:88:20
	ldr	r0, [sp, #56]
	.loc	10 88 9 is_stmt 0               @ lvgl/src/lv_widgets/lv_win.c:88:9
	bl	lv_obj_del
	movs	r0, #0
	.loc	10 89 9 is_stmt 1               @ lvgl/src/lv_widgets/lv_win.c:89:9
	str	r0, [sp, #68]
	b	.LBB0_34
.Ltmp19:
.LBB0_16:
	.loc	10 92 5                         @ lvgl/src/lv_widgets/lv_win.c:92:5
	ldr	r1, [sp, #52]
	movs	r0, #0
	.loc	10 92 24 is_stmt 0              @ lvgl/src/lv_widgets/lv_win.c:92:24
	str	r0, [sp, #32]                   @ 4-byte Spill
	str	r0, [r1]
	.loc	10 93 5 is_stmt 1               @ lvgl/src/lv_widgets/lv_win.c:93:5
	ldr	r1, [sp, #52]
	.loc	10 93 24 is_stmt 0              @ lvgl/src/lv_widgets/lv_win.c:93:24
	str	r0, [r1, #4]
	movs	r0, #7
	.loc	10 94 25 is_stmt 1              @ lvgl/src/lv_widgets/lv_win.c:94:25
	bl	lv_mem_alloc
	mov	r1, r0
	.loc	10 94 5 is_stmt 0               @ lvgl/src/lv_widgets/lv_win.c:94:5
	ldr	r0, [sp, #32]                   @ 4-byte Reload
	ldr	r2, [sp, #52]
	.loc	10 94 23                        @ lvgl/src/lv_widgets/lv_win.c:94:23
	str	r1, [r2, #8]
	.loc	10 95 5 is_stmt 1               @ lvgl/src/lv_widgets/lv_win.c:95:5
	ldr	r1, [sp, #52]
	.loc	10 95 26 is_stmt 0              @ lvgl/src/lv_widgets/lv_win.c:95:26
	strb	r0, [r1, #14]
	.loc	10 96 12 is_stmt 1              @ lvgl/src/lv_widgets/lv_win.c:96:12
	ldr	r0, [sp, #52]
	.loc	10 96 17 is_stmt 0              @ lvgl/src/lv_widgets/lv_win.c:96:17
	ldr	r0, [r0, #8]
	.loc	10 96 5                         @ lvgl/src/lv_widgets/lv_win.c:96:5
	movw	r1, :lower16:.L.str.1
	movt	r1, :upper16:.L.str.1
	bl	strcpy
.Ltmp20:
	.loc	10 99 8 is_stmt 1               @ lvgl/src/lv_widgets/lv_win.c:99:8
	ldr	r0, [sp, #60]
.Ltmp21:
	.loc	10 99 8 is_stmt 0               @ lvgl/src/lv_widgets/lv_win.c:99:8
	cmp	r0, #0
	bne.w	.LBB0_29
	b	.LBB0_17
.LBB0_17:
.Ltmp22:
	.loc	10 105 12 is_stmt 1             @ lvgl/src/lv_widgets/lv_win.c:105:12
	ldr	r0, [sp, #64]
.Ltmp23:
	.loc	10 105 12 is_stmt 0             @ lvgl/src/lv_widgets/lv_win.c:105:12
	cbz	r0, .LBB0_19
	b	.LBB0_18
.LBB0_18:
.Ltmp24:
	.loc	10 106 56 is_stmt 1             @ lvgl/src/lv_widgets/lv_win.c:106:56
	ldr	r0, [sp, #56]
	.loc	10 106 38 is_stmt 0             @ lvgl/src/lv_widgets/lv_win.c:106:38
	bl	lv_obj_get_parent
	.loc	10 106 17                       @ lvgl/src/lv_widgets/lv_win.c:106:17
	bl	lv_obj_get_width_fit
	.loc	10 106 15                       @ lvgl/src/lv_widgets/lv_win.c:106:15
	strh.w	r0, [sp, #50]
	.loc	10 107 57 is_stmt 1             @ lvgl/src/lv_widgets/lv_win.c:107:57
	ldr	r0, [sp, #56]
	.loc	10 107 39 is_stmt 0             @ lvgl/src/lv_widgets/lv_win.c:107:39
	bl	lv_obj_get_parent
	.loc	10 107 17                       @ lvgl/src/lv_widgets/lv_win.c:107:17
	bl	lv_obj_get_height_fit
	.loc	10 107 15                       @ lvgl/src/lv_widgets/lv_win.c:107:15
	strh.w	r0, [sp, #48]
	.loc	10 108 9 is_stmt 1              @ lvgl/src/lv_widgets/lv_win.c:108:9
	b	.LBB0_20
.Ltmp25:
.LBB0_19:
	.loc	10 0 9 is_stmt 0                @ lvgl/src/lv_widgets/lv_win.c:0:9
	movs	r0, #0
.Ltmp26:
	.loc	10 110 17 is_stmt 1             @ lvgl/src/lv_widgets/lv_win.c:110:17
	str	r0, [sp, #28]                   @ 4-byte Spill
	bl	lv_disp_get_hor_res
	mov	r1, r0
	.loc	10 110 15 is_stmt 0             @ lvgl/src/lv_widgets/lv_win.c:110:15
	ldr	r0, [sp, #28]                   @ 4-byte Reload
	strh.w	r1, [sp, #50]
	.loc	10 111 17 is_stmt 1             @ lvgl/src/lv_widgets/lv_win.c:111:17
	bl	lv_disp_get_ver_res
	.loc	10 111 15 is_stmt 0             @ lvgl/src/lv_widgets/lv_win.c:111:15
	strh.w	r0, [sp, #48]
	b	.LBB0_20
.Ltmp27:
.LBB0_20:
	.loc	10 114 25 is_stmt 1             @ lvgl/src/lv_widgets/lv_win.c:114:25
	ldr	r0, [sp, #56]
	.loc	10 114 34 is_stmt 0             @ lvgl/src/lv_widgets/lv_win.c:114:34
	ldrsh.w	r1, [sp, #50]
	.loc	10 114 37                       @ lvgl/src/lv_widgets/lv_win.c:114:37
	ldrsh.w	r2, [sp, #48]
	.loc	10 114 9                        @ lvgl/src/lv_widgets/lv_win.c:114:9
	bl	lv_obj_set_size
	movs	r0, #0
	.loc	10 116 22 is_stmt 1             @ lvgl/src/lv_widgets/lv_win.c:116:22
	bl	lv_disp_get_dpi
	add.w	r0, r0, r0, lsl #6
	adds	r0, #80
	movw	r1, #26215
	movt	r1, #26214
	smmul	r1, r0, r1
	asrs	r0, r1, #6
	add.w	r0, r0, r1, lsr #31
	cmp	r0, #2
	blt	.LBB0_22
	b	.LBB0_21
.LBB0_21:
	.loc	10 0 22 is_stmt 0               @ lvgl/src/lv_widgets/lv_win.c:0:22
	movs	r0, #0
	.loc	10 116 22                       @ lvgl/src/lv_widgets/lv_win.c:116:22
	bl	lv_disp_get_dpi
	add.w	r0, r0, r0, lsl #6
	adds	r0, #80
	movw	r1, #26215
	movt	r1, #26214
	smmul	r1, r0, r1
	asrs	r0, r1, #6
	add.w	r0, r0, r1, lsr #31
	str	r0, [sp, #24]                   @ 4-byte Spill
	b	.LBB0_23
.LBB0_22:
	.loc	10 0 22                         @ lvgl/src/lv_widgets/lv_win.c:0:22
	movs	r0, #1
	.loc	10 116 22                       @ lvgl/src/lv_widgets/lv_win.c:116:22
	str	r0, [sp, #24]                   @ 4-byte Spill
	b	.LBB0_23
.LBB0_23:
	ldr	r0, [sp, #24]                   @ 4-byte Reload
	.loc	10 116 9                        @ lvgl/src/lv_widgets/lv_win.c:116:9
	ldr	r1, [sp, #52]
	.loc	10 116 20                       @ lvgl/src/lv_widgets/lv_win.c:116:20
	strh	r0, [r1, #12]
	.loc	10 118 36 is_stmt 1             @ lvgl/src/lv_widgets/lv_win.c:118:36
	ldr	r0, [sp, #56]
	movs	r1, #0
	.loc	10 118 21 is_stmt 0             @ lvgl/src/lv_widgets/lv_win.c:118:21
	str	r1, [sp, #16]                   @ 4-byte Spill
	bl	lv_page_create
	.loc	10 118 9                        @ lvgl/src/lv_widgets/lv_win.c:118:9
	ldr	r1, [sp, #52]
	.loc	10 118 19                       @ lvgl/src/lv_widgets/lv_win.c:118:19
	str	r0, [r1]
	.loc	10 119 28 is_stmt 1             @ lvgl/src/lv_widgets/lv_win.c:119:28
	ldr	r0, [sp, #52]
	.loc	10 119 33 is_stmt 0             @ lvgl/src/lv_widgets/lv_win.c:119:33
	ldr	r0, [r0]
	movs	r1, #2
	.loc	10 119 9                        @ lvgl/src/lv_widgets/lv_win.c:119:9
	str	r1, [sp, #20]                   @ 4-byte Spill
	bl	lv_obj_add_protect
	.loc	10 120 36 is_stmt 1             @ lvgl/src/lv_widgets/lv_win.c:120:36
	ldr	r0, [sp, #52]
	.loc	10 120 41 is_stmt 0             @ lvgl/src/lv_widgets/lv_win.c:120:41
	ldr	r0, [r0]
	movs	r1, #3
	.loc	10 120 9                        @ lvgl/src/lv_widgets/lv_win.c:120:9
	bl	lv_page_set_scrollbar_mode
	ldr	r1, [sp, #16]                   @ 4-byte Reload
	.loc	10 121 33 is_stmt 1             @ lvgl/src/lv_widgets/lv_win.c:121:33
	ldr	r0, [sp, #52]
	.loc	10 121 38 is_stmt 0             @ lvgl/src/lv_widgets/lv_win.c:121:38
	ldr	r0, [r0]
	.loc	10 121 9                        @ lvgl/src/lv_widgets/lv_win.c:121:9
	bl	lv_obj_clean_style_list
	ldr	r1, [sp, #16]                   @ 4-byte Reload
	.loc	10 124 37 is_stmt 1             @ lvgl/src/lv_widgets/lv_win.c:124:37
	ldr	r0, [sp, #56]
	.loc	10 124 23 is_stmt 0             @ lvgl/src/lv_widgets/lv_win.c:124:23
	bl	lv_obj_create
	ldr	r1, [sp, #20]                   @ 4-byte Reload
	.loc	10 124 9                        @ lvgl/src/lv_widgets/lv_win.c:124:9
	ldr	r2, [sp, #52]
	.loc	10 124 21                       @ lvgl/src/lv_widgets/lv_win.c:124:21
	str	r0, [r2, #4]
	.loc	10 126 28 is_stmt 1             @ lvgl/src/lv_widgets/lv_win.c:126:28
	ldr	r0, [sp, #52]
	.loc	10 126 33 is_stmt 0             @ lvgl/src/lv_widgets/lv_win.c:126:33
	ldr	r0, [r0, #4]
	.loc	10 126 9                        @ lvgl/src/lv_widgets/lv_win.c:126:9
	bl	lv_obj_add_protect
	.loc	10 127 27 is_stmt 1             @ lvgl/src/lv_widgets/lv_win.c:127:27
	ldr	r0, [sp, #52]
	.loc	10 127 32 is_stmt 0             @ lvgl/src/lv_widgets/lv_win.c:127:32
	ldr	r0, [r0, #4]
	.loc	10 127 40                       @ lvgl/src/lv_widgets/lv_win.c:127:40
	ldr	r1, [sp, #56]
	.loc	10 127 9                        @ lvgl/src/lv_widgets/lv_win.c:127:9
	bl	lv_obj_set_parent
.Ltmp28:
	.loc	10 128 12 is_stmt 1             @ lvgl/src/lv_widgets/lv_win.c:128:12
	movw	r0, :lower16:ancestor_header_design
	movt	r0, :upper16:ancestor_header_design
	ldr	r0, [r0]
.Ltmp29:
	.loc	10 128 12 is_stmt 0             @ lvgl/src/lv_widgets/lv_win.c:128:12
	cbnz	r0, .LBB0_25
	b	.LBB0_24
.LBB0_24:
.Ltmp30:
	.loc	10 128 90                       @ lvgl/src/lv_widgets/lv_win.c:128:90
	ldr	r0, [sp, #52]
	.loc	10 128 95                       @ lvgl/src/lv_widgets/lv_win.c:128:95
	ldr	r0, [r0, #4]
	.loc	10 128 69                       @ lvgl/src/lv_widgets/lv_win.c:128:69
	bl	lv_obj_get_design_cb
	.loc	10 128 67                       @ lvgl/src/lv_widgets/lv_win.c:128:67
	movw	r1, :lower16:ancestor_header_design
	movt	r1, :upper16:ancestor_header_design
	str	r0, [r1]
	.loc	10 128 44                       @ lvgl/src/lv_widgets/lv_win.c:128:44
	b	.LBB0_25
.Ltmp31:
.LBB0_25:
	.loc	10 129 27 is_stmt 1             @ lvgl/src/lv_widgets/lv_win.c:129:27
	ldr	r0, [sp, #52]
	.loc	10 129 32 is_stmt 0             @ lvgl/src/lv_widgets/lv_win.c:129:32
	ldr	r0, [r0, #4]
	.loc	10 129 40                       @ lvgl/src/lv_widgets/lv_win.c:129:40
	str	r0, [sp, #12]                   @ 4-byte Spill
	movs	r0, #0
	bl	lv_disp_get_dpi
	add.w	r0, r0, r0, lsl #6
	adds	r0, #80
	movw	r1, #26215
	movt	r1, #26214
	smmul	r1, r0, r1
	asrs	r0, r1, #6
	add.w	r0, r0, r1, lsr #31
	cmp	r0, #2
	blt	.LBB0_27
	b	.LBB0_26
.LBB0_26:
	.loc	10 0 40                         @ lvgl/src/lv_widgets/lv_win.c:0:40
	movs	r0, #0
	.loc	10 129 40                       @ lvgl/src/lv_widgets/lv_win.c:129:40
	bl	lv_disp_get_dpi
	add.w	r0, r0, r0, lsl #6
	adds	r0, #80
	movw	r1, #26215
	movt	r1, #26214
	smmul	r1, r0, r1
	asrs	r0, r1, #6
	add.w	r0, r0, r1, lsr #31
	str	r0, [sp, #8]                    @ 4-byte Spill
	b	.LBB0_28
.LBB0_27:
	.loc	10 0 40                         @ lvgl/src/lv_widgets/lv_win.c:0:40
	movs	r0, #1
	.loc	10 129 40                       @ lvgl/src/lv_widgets/lv_win.c:129:40
	str	r0, [sp, #8]                    @ 4-byte Spill
	b	.LBB0_28
.LBB0_28:
	ldr	r0, [sp, #12]                   @ 4-byte Reload
	ldr	r1, [sp, #8]                    @ 4-byte Reload
	.loc	10 129 9                        @ lvgl/src/lv_widgets/lv_win.c:129:9
	sxth	r1, r1
	bl	lv_obj_set_height
	.loc	10 131 30 is_stmt 1             @ lvgl/src/lv_widgets/lv_win.c:131:30
	ldr	r0, [sp, #52]
	.loc	10 131 35 is_stmt 0             @ lvgl/src/lv_widgets/lv_win.c:131:35
	ldr	r0, [r0, #4]
	.loc	10 131 9                        @ lvgl/src/lv_widgets/lv_win.c:131:9
	movw	r1, :lower16:lv_win_header_design
	movt	r1, :upper16:lv_win_header_design
	bl	lv_obj_set_design_cb
	.loc	10 132 30 is_stmt 1             @ lvgl/src/lv_widgets/lv_win.c:132:30
	ldr	r0, [sp, #56]
	.loc	10 132 9 is_stmt 0              @ lvgl/src/lv_widgets/lv_win.c:132:9
	movw	r1, :lower16:lv_win_signal
	movt	r1, :upper16:lv_win_signal
	bl	lv_obj_set_signal_cb
	.loc	10 134 24 is_stmt 1             @ lvgl/src/lv_widgets/lv_win.c:134:24
	ldr	r0, [sp, #56]
	movs	r1, #39
	.loc	10 134 9 is_stmt 0              @ lvgl/src/lv_widgets/lv_win.c:134:9
	bl	lv_theme_apply
	.loc	10 135 5 is_stmt 1              @ lvgl/src/lv_widgets/lv_win.c:135:5
	b	.LBB0_33
.Ltmp32:
.LBB0_29:
	.loc	10 138 55                       @ lvgl/src/lv_widgets/lv_win.c:138:55
	ldr	r0, [sp, #60]
	.loc	10 138 35 is_stmt 0             @ lvgl/src/lv_widgets/lv_win.c:138:35
	bl	lv_obj_get_ext_attr
	.loc	10 138 24                       @ lvgl/src/lv_widgets/lv_win.c:138:24
	str	r0, [sp, #44]
	.loc	10 140 39 is_stmt 1             @ lvgl/src/lv_widgets/lv_win.c:140:39
	ldr	r0, [sp, #56]
	.loc	10 140 48 is_stmt 0             @ lvgl/src/lv_widgets/lv_win.c:140:48
	ldr	r1, [sp, #44]
	.loc	10 140 58                       @ lvgl/src/lv_widgets/lv_win.c:140:58
	ldr	r1, [r1, #4]
	.loc	10 140 25                       @ lvgl/src/lv_widgets/lv_win.c:140:25
	bl	lv_obj_create
	.loc	10 140 9                        @ lvgl/src/lv_widgets/lv_win.c:140:9
	ldr	r1, [sp, #52]
	.loc	10 140 23                       @ lvgl/src/lv_widgets/lv_win.c:140:23
	str	r0, [r1, #4]
	.loc	10 141 49 is_stmt 1             @ lvgl/src/lv_widgets/lv_win.c:141:49
	ldr	r0, [sp, #44]
	.loc	10 141 59 is_stmt 0             @ lvgl/src/lv_widgets/lv_win.c:141:59
	ldr	r0, [r0, #8]
	.loc	10 141 42                       @ lvgl/src/lv_widgets/lv_win.c:141:42
	bl	strlen
	.loc	10 141 70                       @ lvgl/src/lv_widgets/lv_win.c:141:70
	adds	r0, #1
	.loc	10 141 29                       @ lvgl/src/lv_widgets/lv_win.c:141:29
	bl	lv_mem_alloc
	.loc	10 141 9                        @ lvgl/src/lv_widgets/lv_win.c:141:9
	ldr	r1, [sp, #52]
	.loc	10 141 27                       @ lvgl/src/lv_widgets/lv_win.c:141:27
	str	r0, [r1, #8]
	.loc	10 142 16 is_stmt 1             @ lvgl/src/lv_widgets/lv_win.c:142:16
	ldr	r0, [sp, #52]
	.loc	10 142 21 is_stmt 0             @ lvgl/src/lv_widgets/lv_win.c:142:21
	ldr	r0, [r0, #8]
	.loc	10 142 32                       @ lvgl/src/lv_widgets/lv_win.c:142:32
	ldr	r1, [sp, #44]
	.loc	10 142 42                       @ lvgl/src/lv_widgets/lv_win.c:142:42
	ldr	r1, [r1, #8]
	.loc	10 142 9                        @ lvgl/src/lv_widgets/lv_win.c:142:9
	bl	strcpy
	.loc	10 143 40 is_stmt 1             @ lvgl/src/lv_widgets/lv_win.c:143:40
	ldr	r0, [sp, #56]
	.loc	10 143 49 is_stmt 0             @ lvgl/src/lv_widgets/lv_win.c:143:49
	ldr	r1, [sp, #44]
	.loc	10 143 59                       @ lvgl/src/lv_widgets/lv_win.c:143:59
	ldr	r1, [r1]
	.loc	10 143 25                       @ lvgl/src/lv_widgets/lv_win.c:143:25
	bl	lv_page_create
	.loc	10 143 9                        @ lvgl/src/lv_widgets/lv_win.c:143:9
	ldr	r1, [sp, #52]
	.loc	10 143 23                       @ lvgl/src/lv_widgets/lv_win.c:143:23
	str	r0, [r1]
	.loc	10 144 26 is_stmt 1             @ lvgl/src/lv_widgets/lv_win.c:144:26
	ldr	r0, [sp, #44]
	.loc	10 144 36 is_stmt 0             @ lvgl/src/lv_widgets/lv_win.c:144:36
	ldrh	r0, [r0, #12]
	.loc	10 144 9                        @ lvgl/src/lv_widgets/lv_win.c:144:9
	ldr	r1, [sp, #52]
	.loc	10 144 24                       @ lvgl/src/lv_widgets/lv_win.c:144:24
	strh	r0, [r1, #12]
	.loc	10 148 39 is_stmt 1             @ lvgl/src/lv_widgets/lv_win.c:148:39
	ldr	r0, [sp, #44]
	.loc	10 148 49 is_stmt 0             @ lvgl/src/lv_widgets/lv_win.c:148:49
	ldr	r0, [r0, #4]
	movs	r1, #0
	.loc	10 148 17                       @ lvgl/src/lv_widgets/lv_win.c:148:17
	bl	lv_obj_get_child_back
	.loc	10 148 15                       @ lvgl/src/lv_widgets/lv_win.c:148:15
	str	r0, [sp, #40]
	.loc	10 149 39 is_stmt 1             @ lvgl/src/lv_widgets/lv_win.c:149:39
	ldr	r0, [sp, #44]
	.loc	10 149 49 is_stmt 0             @ lvgl/src/lv_widgets/lv_win.c:149:49
	ldr	r0, [r0, #4]
	.loc	10 149 57                       @ lvgl/src/lv_widgets/lv_win.c:149:57
	ldr	r1, [sp, #40]
	.loc	10 149 17                       @ lvgl/src/lv_widgets/lv_win.c:149:17
	bl	lv_obj_get_child_back
	.loc	10 149 15                       @ lvgl/src/lv_widgets/lv_win.c:149:15
	str	r0, [sp, #40]
	.loc	10 150 9 is_stmt 1              @ lvgl/src/lv_widgets/lv_win.c:150:9
	b	.LBB0_30
.LBB0_30:                               @ =>This Inner Loop Header: Depth=1
	.loc	10 150 15 is_stmt 0             @ lvgl/src/lv_widgets/lv_win.c:150:15
	ldr	r0, [sp, #40]
	.loc	10 150 9                        @ lvgl/src/lv_widgets/lv_win.c:150:9
	cbz	r0, .LBB0_32
	b	.LBB0_31
.LBB0_31:                               @   in Loop: Header=BB0_30 Depth=1
.Ltmp33:
	.loc	10 151 44 is_stmt 1             @ lvgl/src/lv_widgets/lv_win.c:151:44
	ldr	r0, [sp, #52]
	.loc	10 151 49 is_stmt 0             @ lvgl/src/lv_widgets/lv_win.c:151:49
	ldr	r0, [r0, #4]
	.loc	10 151 57                       @ lvgl/src/lv_widgets/lv_win.c:151:57
	ldr	r1, [sp, #40]
	.loc	10 151 30                       @ lvgl/src/lv_widgets/lv_win.c:151:30
	bl	lv_btn_create
	.loc	10 151 24                       @ lvgl/src/lv_widgets/lv_win.c:151:24
	str	r0, [sp, #36]
	.loc	10 152 27 is_stmt 1             @ lvgl/src/lv_widgets/lv_win.c:152:27
	ldr	r0, [sp, #36]
	.loc	10 152 49 is_stmt 0             @ lvgl/src/lv_widgets/lv_win.c:152:49
	str	r0, [sp, #4]                    @ 4-byte Spill
	ldr	r0, [sp, #40]
	movs	r1, #0
	.loc	10 152 32                       @ lvgl/src/lv_widgets/lv_win.c:152:32
	bl	lv_obj_get_child
	mov	r1, r0
	.loc	10 152 13                       @ lvgl/src/lv_widgets/lv_win.c:152:13
	ldr	r0, [sp, #4]                    @ 4-byte Reload
	bl	lv_img_create
	.loc	10 153 43 is_stmt 1             @ lvgl/src/lv_widgets/lv_win.c:153:43
	ldr	r0, [sp, #44]
	.loc	10 153 53 is_stmt 0             @ lvgl/src/lv_widgets/lv_win.c:153:53
	ldr	r0, [r0, #4]
	.loc	10 153 61                       @ lvgl/src/lv_widgets/lv_win.c:153:61
	ldr	r1, [sp, #40]
	.loc	10 153 21                       @ lvgl/src/lv_widgets/lv_win.c:153:21
	bl	lv_obj_get_child_back
	.loc	10 153 19                       @ lvgl/src/lv_widgets/lv_win.c:153:19
	str	r0, [sp, #40]
.Ltmp34:
	.loc	10 150 9 is_stmt 1              @ lvgl/src/lv_widgets/lv_win.c:150:9
	b	.LBB0_30
.LBB0_32:
	.loc	10 156 30                       @ lvgl/src/lv_widgets/lv_win.c:156:30
	ldr	r0, [sp, #56]
	.loc	10 156 9 is_stmt 0              @ lvgl/src/lv_widgets/lv_win.c:156:9
	movw	r1, :lower16:lv_win_signal
	movt	r1, :upper16:lv_win_signal
	bl	lv_obj_set_signal_cb
	b	.LBB0_33
.Ltmp35:
.LBB0_33:
	.loc	10 160 26 is_stmt 1             @ lvgl/src/lv_widgets/lv_win.c:160:26
	ldr	r0, [sp, #56]
	movs	r2, #255
	.loc	10 160 5 is_stmt 0              @ lvgl/src/lv_widgets/lv_win.c:160:5
	mov	r1, r2
	bl	lv_obj_refresh_style
	.loc	10 162 20 is_stmt 1             @ lvgl/src/lv_widgets/lv_win.c:162:20
	ldr	r0, [sp, #56]
	.loc	10 162 5 is_stmt 0              @ lvgl/src/lv_widgets/lv_win.c:162:5
	bl	lv_win_realign
	.loc	10 166 12 is_stmt 1             @ lvgl/src/lv_widgets/lv_win.c:166:12
	ldr	r0, [sp, #56]
	.loc	10 166 5 is_stmt 0              @ lvgl/src/lv_widgets/lv_win.c:166:5
	str	r0, [sp, #68]
	b	.LBB0_34
.LBB0_34:
	.loc	10 167 1 is_stmt 1              @ lvgl/src/lv_widgets/lv_win.c:167:1
	ldr	r0, [sp, #68]
	add	sp, #72
	pop	{r7, pc}
.Ltmp36:
.Lfunc_end0:
	.size	lv_win_create, .Lfunc_end0-lv_win_create
	.cfi_endproc
	.cantunwind
	.fnend
                                        @ -- End function
	.section	.text.lv_win_header_design,"ax",%progbits
	.p2align	3                               @ -- Begin function lv_win_header_design
	.type	lv_win_header_design,%function
	.code	16                              @ @lv_win_header_design
	.thumb_func
lv_win_header_design:
.Lfunc_begin1:
	.loc	10 552 0                        @ lvgl/src/lv_widgets/lv_win.c:552:0
	.fnstart
	.cfi_startproc
@ %bb.0:
	.save	{r7, lr}
	push	{r7, lr}
	.cfi_def_cfa_offset 8
	.cfi_offset lr, -4
	.cfi_offset r7, -8
	.pad	#144
	sub	sp, #144
	.cfi_def_cfa_offset 152
                                        @ kill: def $r3 killed $r2
	str	r0, [sp, #136]
	str	r1, [sp, #132]
	strb.w	r2, [sp, #131]
.Ltmp37:
	.loc	10 554 8 prologue_end           @ lvgl/src/lv_widgets/lv_win.c:554:8
	ldrb.w	r0, [sp, #131]
.Ltmp38:
	.loc	10 554 8 is_stmt 0              @ lvgl/src/lv_widgets/lv_win.c:554:8
	cmp	r0, #2
	bne	.LBB1_2
	b	.LBB1_1
.LBB1_1:
.Ltmp39:
	.loc	10 555 16 is_stmt 1             @ lvgl/src/lv_widgets/lv_win.c:555:16
	movw	r0, :lower16:ancestor_header_design
	movt	r0, :upper16:ancestor_header_design
	ldr	r3, [r0]
	.loc	10 555 39 is_stmt 0             @ lvgl/src/lv_widgets/lv_win.c:555:39
	ldr	r0, [sp, #136]
	.loc	10 555 47                       @ lvgl/src/lv_widgets/lv_win.c:555:47
	ldr	r1, [sp, #132]
	.loc	10 555 58                       @ lvgl/src/lv_widgets/lv_win.c:555:58
	ldrb.w	r2, [sp, #131]
	.loc	10 555 16                       @ lvgl/src/lv_widgets/lv_win.c:555:16
	blx	r3
	.loc	10 555 9                        @ lvgl/src/lv_widgets/lv_win.c:555:9
	strb.w	r0, [sp, #143]
	b	.LBB1_24
.Ltmp40:
.LBB1_2:
	.loc	10 558 13 is_stmt 1             @ lvgl/src/lv_widgets/lv_win.c:558:13
	ldrb.w	r0, [sp, #131]
.Ltmp41:
	.loc	10 558 13 is_stmt 0             @ lvgl/src/lv_widgets/lv_win.c:558:13
	cmp	r0, #0
	bne.w	.LBB1_19
	b	.LBB1_3
.LBB1_3:
.Ltmp42:
	.loc	10 559 9 is_stmt 1              @ lvgl/src/lv_widgets/lv_win.c:559:9
	movw	r0, :lower16:ancestor_header_design
	movt	r0, :upper16:ancestor_header_design
	ldr	r3, [r0]
	.loc	10 559 32 is_stmt 0             @ lvgl/src/lv_widgets/lv_win.c:559:32
	ldr	r0, [sp, #136]
	.loc	10 559 40                       @ lvgl/src/lv_widgets/lv_win.c:559:40
	ldr	r1, [sp, #132]
	.loc	10 559 51                       @ lvgl/src/lv_widgets/lv_win.c:559:51
	ldrb.w	r2, [sp, #131]
	.loc	10 559 9                        @ lvgl/src/lv_widgets/lv_win.c:559:9
	blx	r3
	.loc	10 561 44 is_stmt 1             @ lvgl/src/lv_widgets/lv_win.c:561:44
	ldr	r0, [sp, #136]
	.loc	10 561 26 is_stmt 0             @ lvgl/src/lv_widgets/lv_win.c:561:26
	bl	lv_obj_get_parent
	.loc	10 561 20                       @ lvgl/src/lv_widgets/lv_win.c:561:20
	str	r0, [sp, #124]
	.loc	10 562 50 is_stmt 1             @ lvgl/src/lv_widgets/lv_win.c:562:50
	ldr	r0, [sp, #124]
	.loc	10 562 30 is_stmt 0             @ lvgl/src/lv_widgets/lv_win.c:562:30
	bl	lv_obj_get_ext_attr
	.loc	10 562 24                       @ lvgl/src/lv_widgets/lv_win.c:562:24
	str	r0, [sp, #120]
	.loc	10 564 64 is_stmt 1             @ lvgl/src/lv_widgets/lv_win.c:564:64
	ldr	r0, [sp, #124]
	movs	r1, #64
	.loc	10 564 38 is_stmt 0             @ lvgl/src/lv_widgets/lv_win.c:564:38
	str	r1, [sp, #36]                   @ 4-byte Spill
	bl	lv_obj_get_style_pad_left
	ldr	r1, [sp, #36]                   @ 4-byte Reload
	.loc	10 564 24                       @ lvgl/src/lv_widgets/lv_win.c:564:24
	strh.w	r0, [sp, #118]
	.loc	10 565 66 is_stmt 1             @ lvgl/src/lv_widgets/lv_win.c:565:66
	ldr	r0, [sp, #124]
	.loc	10 565 39 is_stmt 0             @ lvgl/src/lv_widgets/lv_win.c:565:39
	bl	lv_obj_get_style_pad_right
	ldr	r1, [sp, #36]                   @ 4-byte Reload
	.loc	10 565 24                       @ lvgl/src/lv_widgets/lv_win.c:565:24
	strh.w	r0, [sp, #116]
	.loc	10 566 66 is_stmt 1             @ lvgl/src/lv_widgets/lv_win.c:566:66
	ldr	r0, [sp, #124]
	.loc	10 566 39 is_stmt 0             @ lvgl/src/lv_widgets/lv_win.c:566:39
	bl	lv_obj_get_style_pad_inner
	.loc	10 566 24                       @ lvgl/src/lv_widgets/lv_win.c:566:24
	strh.w	r0, [sp, #114]
	add	r0, sp, #72
	.loc	10 569 9 is_stmt 1              @ lvgl/src/lv_widgets/lv_win.c:569:9
	str	r0, [sp, #40]                   @ 4-byte Spill
	bl	lv_draw_label_dsc_init
	ldr	r2, [sp, #40]                   @ 4-byte Reload
	.loc	10 570 36                       @ lvgl/src/lv_widgets/lv_win.c:570:36
	ldr	r0, [sp, #136]
	movs	r1, #0
	.loc	10 570 9 is_stmt 0              @ lvgl/src/lv_widgets/lv_win.c:570:9
	str	r1, [sp, #44]                   @ 4-byte Spill
	bl	lv_obj_init_draw_label_dsc
	.loc	10 571 26 is_stmt 1             @ lvgl/src/lv_widgets/lv_win.c:571:26
	ldr	r0, [sp, #120]
	.loc	10 571 31 is_stmt 0             @ lvgl/src/lv_widgets/lv_win.c:571:31
	ldrb	r0, [r0, #14]
	.loc	10 571 24                       @ lvgl/src/lv_widgets/lv_win.c:571:24
	strb.w	r0, [sp, #109]
	.loc	10 576 37 is_stmt 1             @ lvgl/src/lv_widgets/lv_win.c:576:37
	ldr	r0, [sp, #120]
	.loc	10 576 42 is_stmt 0             @ lvgl/src/lv_widgets/lv_win.c:576:42
	ldr	r1, [r0, #8]
	.loc	10 576 63                       @ lvgl/src/lv_widgets/lv_win.c:576:63
	ldr	r2, [sp, #84]
	.loc	10 576 79                       @ lvgl/src/lv_widgets/lv_win.c:576:79
	ldrsh.w	r3, [sp, #92]
	.loc	10 576 103                      @ lvgl/src/lv_widgets/lv_win.c:576:103
	ldrsh.w	r0, [sp, #90]
	.loc	10 577 36 is_stmt 1             @ lvgl/src/lv_widgets/lv_win.c:577:36
	ldrb.w	lr, [sp, #109]
	.loc	10 576 9                        @ lvgl/src/lv_widgets/lv_win.c:576:9
	mov	r12, sp
	str.w	lr, [r12, #8]
	movw	lr, #31768
	str.w	lr, [r12, #4]
	str.w	r0, [r12]
	add	r0, sp, #60
	bl	_lv_txt_get_size
	ldr	r0, [sp, #44]                   @ 4-byte Reload
	.loc	10 579 20                       @ lvgl/src/lv_widgets/lv_win.c:579:20
	str	r0, [sp, #56]
	.loc	10 581 50                       @ lvgl/src/lv_widgets/lv_win.c:581:50
	ldr	r0, [sp, #136]
	.loc	10 581 28 is_stmt 0             @ lvgl/src/lv_widgets/lv_win.c:581:28
	bl	lv_obj_get_height_fit
	.loc	10 581 20                       @ lvgl/src/lv_widgets/lv_win.c:581:20
	strh.w	r0, [sp, #54]
	.loc	10 582 28 is_stmt 1             @ lvgl/src/lv_widgets/lv_win.c:582:28
	ldr	r0, [sp, #120]
	.loc	10 582 33 is_stmt 0             @ lvgl/src/lv_widgets/lv_win.c:582:33
	ldrsh.w	r0, [r0, #12]
	.loc	10 582 28                       @ lvgl/src/lv_widgets/lv_win.c:582:28
	cbz	r0, .LBB1_5
	b	.LBB1_4
.LBB1_4:
	.loc	10 582 46                       @ lvgl/src/lv_widgets/lv_win.c:582:46
	ldr	r0, [sp, #120]
	.loc	10 582 51                       @ lvgl/src/lv_widgets/lv_win.c:582:51
	ldrsh.w	r0, [r0, #12]
	.loc	10 582 28                       @ lvgl/src/lv_widgets/lv_win.c:582:28
	str	r0, [sp, #32]                   @ 4-byte Spill
	b	.LBB1_6
.LBB1_5:
	.loc	10 582 59                       @ lvgl/src/lv_widgets/lv_win.c:582:59
	ldrsh.w	r0, [sp, #54]
	.loc	10 582 28                       @ lvgl/src/lv_widgets/lv_win.c:582:28
	str	r0, [sp, #32]                   @ 4-byte Spill
	b	.LBB1_6
.LBB1_6:
	ldr	r0, [sp, #32]                   @ 4-byte Reload
	.loc	10 582 20                       @ lvgl/src/lv_widgets/lv_win.c:582:20
	strh.w	r0, [sp, #52]
	movs	r1, #0
	.loc	10 586 20 is_stmt 1             @ lvgl/src/lv_widgets/lv_win.c:586:20
	strh.w	r1, [sp, #50]
	.loc	10 587 37                       @ lvgl/src/lv_widgets/lv_win.c:587:37
	ldr	r0, [sp, #120]
	.loc	10 587 42 is_stmt 0             @ lvgl/src/lv_widgets/lv_win.c:587:42
	ldr	r0, [r0, #4]
	.loc	10 587 15                       @ lvgl/src/lv_widgets/lv_win.c:587:15
	bl	lv_obj_get_child_back
	.loc	10 587 13                       @ lvgl/src/lv_widgets/lv_win.c:587:13
	str	r0, [sp, #56]
	.loc	10 588 9 is_stmt 1              @ lvgl/src/lv_widgets/lv_win.c:588:9
	b	.LBB1_7
.LBB1_7:                                @ =>This Inner Loop Header: Depth=1
	.loc	10 588 15 is_stmt 0             @ lvgl/src/lv_widgets/lv_win.c:588:15
	ldr	r0, [sp, #56]
	.loc	10 588 9                        @ lvgl/src/lv_widgets/lv_win.c:588:9
	cbz	r0, .LBB1_11
	b	.LBB1_8
.LBB1_8:                                @   in Loop: Header=BB1_7 Depth=1
.Ltmp43:
	.loc	10 589 66 is_stmt 1             @ lvgl/src/lv_widgets/lv_win.c:589:66
	ldr	r0, [sp, #56]
	.loc	10 589 41 is_stmt 0             @ lvgl/src/lv_widgets/lv_win.c:589:41
	bl	lv_win_btn_get_alignment
.Ltmp44:
	.loc	10 589 16                       @ lvgl/src/lv_widgets/lv_win.c:589:16
	cmp	r0, #1
	bne	.LBB1_10
	b	.LBB1_9
.LBB1_9:                                @   in Loop: Header=BB1_7 Depth=1
.Ltmp45:
	.loc	10 590 31 is_stmt 1             @ lvgl/src/lv_widgets/lv_win.c:590:31
	ldrh.w	r0, [sp, #52]
	.loc	10 590 39 is_stmt 0             @ lvgl/src/lv_widgets/lv_win.c:590:39
	ldrh.w	r1, [sp, #114]
	.loc	10 590 37                       @ lvgl/src/lv_widgets/lv_win.c:590:37
	add	r1, r0
	.loc	10 590 28                       @ lvgl/src/lv_widgets/lv_win.c:590:28
	ldrh.w	r0, [sp, #50]
	add	r0, r1
	strh.w	r0, [sp, #50]
	.loc	10 591 13 is_stmt 1             @ lvgl/src/lv_widgets/lv_win.c:591:13
	b	.LBB1_10
.Ltmp46:
.LBB1_10:                               @   in Loop: Header=BB1_7 Depth=1
	.loc	10 593 41                       @ lvgl/src/lv_widgets/lv_win.c:593:41
	ldr	r0, [sp, #136]
	.loc	10 593 49 is_stmt 0             @ lvgl/src/lv_widgets/lv_win.c:593:49
	ldr	r1, [sp, #56]
	.loc	10 593 19                       @ lvgl/src/lv_widgets/lv_win.c:593:19
	bl	lv_obj_get_child_back
	.loc	10 593 17                       @ lvgl/src/lv_widgets/lv_win.c:593:17
	str	r0, [sp, #56]
.Ltmp47:
	.loc	10 588 9 is_stmt 1              @ lvgl/src/lv_widgets/lv_win.c:588:9
	b	.LBB1_7
.LBB1_11:
	.loc	10 595 26                       @ lvgl/src/lv_widgets/lv_win.c:595:26
	ldrb.w	r0, [sp, #109]
	.loc	10 595 9 is_stmt 0              @ lvgl/src/lv_widgets/lv_win.c:595:9
	subs	r0, #2
	mov	r1, r0
	str	r1, [sp, #28]                   @ 4-byte Spill
	cmp	r0, #14
	bhi.w	.LBB1_17
@ %bb.12:
	.loc	10 0 9                          @ lvgl/src/lv_widgets/lv_win.c:0:9
	ldr	r1, [sp, #28]                   @ 4-byte Reload
.LCPI1_0:
	tbb	[pc, r1]
@ %bb.13:
.LJTI1_0:
	.byte	(.LBB1_16-(.LCPI1_0+4))/2
	.byte	(.LBB1_17-(.LCPI1_0+4))/2
	.byte	(.LBB1_14-(.LCPI1_0+4))/2
	.byte	(.LBB1_17-(.LCPI1_0+4))/2
	.byte	(.LBB1_17-(.LCPI1_0+4))/2
	.byte	(.LBB1_17-(.LCPI1_0+4))/2
	.byte	(.LBB1_15-(.LCPI1_0+4))/2
	.byte	(.LBB1_17-(.LCPI1_0+4))/2
	.byte	(.LBB1_17-(.LCPI1_0+4))/2
	.byte	(.LBB1_17-(.LCPI1_0+4))/2
	.byte	(.LBB1_17-(.LCPI1_0+4))/2
	.byte	(.LBB1_17-(.LCPI1_0+4))/2
	.byte	(.LBB1_17-(.LCPI1_0+4))/2
	.byte	(.LBB1_17-(.LCPI1_0+4))/2
	.byte	(.LBB1_16-(.LCPI1_0+4))/2
	.p2align	1
.LBB1_14:
.Ltmp48:
	.loc	10 597 31 is_stmt 1             @ lvgl/src/lv_widgets/lv_win.c:597:31
	ldr	r0, [sp, #136]
	ldrh	r0, [r0, #16]
	.loc	10 597 51 is_stmt 0             @ lvgl/src/lv_widgets/lv_win.c:597:51
	ldrh.w	r1, [sp, #118]
	.loc	10 597 49                       @ lvgl/src/lv_widgets/lv_win.c:597:49
	add	r0, r1
	.loc	10 597 65                       @ lvgl/src/lv_widgets/lv_win.c:597:65
	ldrh.w	r1, [sp, #50]
	.loc	10 597 63                       @ lvgl/src/lv_widgets/lv_win.c:597:63
	add	r0, r1
	.loc	10 597 29                       @ lvgl/src/lv_widgets/lv_win.c:597:29
	strh.w	r0, [sp, #64]
	.loc	10 598 31 is_stmt 1             @ lvgl/src/lv_widgets/lv_win.c:598:31
	ldr	r0, [sp, #136]
	ldrh	r0, [r0, #20]
	.loc	10 598 51 is_stmt 0             @ lvgl/src/lv_widgets/lv_win.c:598:51
	ldrh.w	r1, [sp, #116]
	.loc	10 598 49                       @ lvgl/src/lv_widgets/lv_win.c:598:49
	subs	r0, r0, r1
	.loc	10 598 66                       @ lvgl/src/lv_widgets/lv_win.c:598:66
	ldrh.w	r1, [sp, #50]
	.loc	10 598 64                       @ lvgl/src/lv_widgets/lv_win.c:598:64
	subs	r0, r0, r1
	.loc	10 598 29                       @ lvgl/src/lv_widgets/lv_win.c:598:29
	strh.w	r0, [sp, #68]
	.loc	10 599 31 is_stmt 1             @ lvgl/src/lv_widgets/lv_win.c:599:31
	ldr	r0, [sp, #136]
	ldrh	r1, [r0, #18]
	.loc	10 599 52 is_stmt 0             @ lvgl/src/lv_widgets/lv_win.c:599:52
	str	r1, [sp, #24]                   @ 4-byte Spill
	bl	lv_obj_get_height
	mov	r1, r0
	.loc	10 599 89                       @ lvgl/src/lv_widgets/lv_win.c:599:89
	ldr	r0, [sp, #24]                   @ 4-byte Reload
	ldrsh.w	r2, [sp, #62]
	.loc	10 599 78                       @ lvgl/src/lv_widgets/lv_win.c:599:78
	subs	r1, r1, r2
	.loc	10 599 92                       @ lvgl/src/lv_widgets/lv_win.c:599:92
	add.w	r1, r1, r1, lsr #31
	.loc	10 599 49                       @ lvgl/src/lv_widgets/lv_win.c:599:49
	add.w	r0, r0, r1, lsr #1
	.loc	10 599 29                       @ lvgl/src/lv_widgets/lv_win.c:599:29
	strh.w	r0, [sp, #66]
	.loc	10 600 31 is_stmt 1             @ lvgl/src/lv_widgets/lv_win.c:600:31
	ldrh.w	r0, [sp, #66]
	.loc	10 600 45 is_stmt 0             @ lvgl/src/lv_widgets/lv_win.c:600:45
	ldrh.w	r1, [sp, #62]
	.loc	10 600 43                       @ lvgl/src/lv_widgets/lv_win.c:600:43
	add	r0, r1
	.loc	10 600 29                       @ lvgl/src/lv_widgets/lv_win.c:600:29
	strh.w	r0, [sp, #70]
	.loc	10 601 17 is_stmt 1             @ lvgl/src/lv_widgets/lv_win.c:601:17
	b	.LBB1_18
.LBB1_15:
	.loc	10 603 31                       @ lvgl/src/lv_widgets/lv_win.c:603:31
	ldr	r0, [sp, #136]
	.loc	10 603 46 is_stmt 0             @ lvgl/src/lv_widgets/lv_win.c:603:46
	ldrh	r0, [r0, #16]
	.loc	10 603 29                       @ lvgl/src/lv_widgets/lv_win.c:603:29
	strh.w	r0, [sp, #64]
	.loc	10 604 31 is_stmt 1             @ lvgl/src/lv_widgets/lv_win.c:604:31
	ldr	r0, [sp, #136]
	ldrh	r0, [r0, #20]
	.loc	10 604 51 is_stmt 0             @ lvgl/src/lv_widgets/lv_win.c:604:51
	ldrh.w	r1, [sp, #116]
	.loc	10 604 49                       @ lvgl/src/lv_widgets/lv_win.c:604:49
	subs	r0, r0, r1
	.loc	10 604 66                       @ lvgl/src/lv_widgets/lv_win.c:604:66
	ldrh.w	r1, [sp, #50]
	.loc	10 604 64                       @ lvgl/src/lv_widgets/lv_win.c:604:64
	subs	r0, r0, r1
	.loc	10 604 29                       @ lvgl/src/lv_widgets/lv_win.c:604:29
	strh.w	r0, [sp, #68]
	.loc	10 605 31 is_stmt 1             @ lvgl/src/lv_widgets/lv_win.c:605:31
	ldr	r0, [sp, #136]
	ldrh	r1, [r0, #18]
	.loc	10 605 52 is_stmt 0             @ lvgl/src/lv_widgets/lv_win.c:605:52
	str	r1, [sp, #20]                   @ 4-byte Spill
	bl	lv_obj_get_height
	mov	r1, r0
	.loc	10 605 89                       @ lvgl/src/lv_widgets/lv_win.c:605:89
	ldr	r0, [sp, #20]                   @ 4-byte Reload
	ldrsh.w	r2, [sp, #62]
	.loc	10 605 78                       @ lvgl/src/lv_widgets/lv_win.c:605:78
	subs	r1, r1, r2
	.loc	10 605 92                       @ lvgl/src/lv_widgets/lv_win.c:605:92
	add.w	r1, r1, r1, lsr #31
	.loc	10 605 49                       @ lvgl/src/lv_widgets/lv_win.c:605:49
	add.w	r0, r0, r1, lsr #1
	.loc	10 605 29                       @ lvgl/src/lv_widgets/lv_win.c:605:29
	strh.w	r0, [sp, #66]
	.loc	10 606 31 is_stmt 1             @ lvgl/src/lv_widgets/lv_win.c:606:31
	ldrh.w	r0, [sp, #66]
	.loc	10 606 45 is_stmt 0             @ lvgl/src/lv_widgets/lv_win.c:606:45
	ldrh.w	r1, [sp, #62]
	.loc	10 606 43                       @ lvgl/src/lv_widgets/lv_win.c:606:43
	add	r0, r1
	.loc	10 606 29                       @ lvgl/src/lv_widgets/lv_win.c:606:29
	strh.w	r0, [sp, #70]
	.loc	10 607 17 is_stmt 1             @ lvgl/src/lv_widgets/lv_win.c:607:17
	b	.LBB1_18
.LBB1_16:
	.loc	10 610 31                       @ lvgl/src/lv_widgets/lv_win.c:610:31
	ldr	r0, [sp, #136]
	.loc	10 610 46 is_stmt 0             @ lvgl/src/lv_widgets/lv_win.c:610:46
	ldrh	r0, [r0, #16]
	.loc	10 610 29                       @ lvgl/src/lv_widgets/lv_win.c:610:29
	strh.w	r0, [sp, #64]
	.loc	10 611 31 is_stmt 1             @ lvgl/src/lv_widgets/lv_win.c:611:31
	ldr	r0, [sp, #136]
	.loc	10 611 46 is_stmt 0             @ lvgl/src/lv_widgets/lv_win.c:611:46
	ldrh	r0, [r0, #20]
	.loc	10 611 29                       @ lvgl/src/lv_widgets/lv_win.c:611:29
	strh.w	r0, [sp, #68]
	.loc	10 612 31 is_stmt 1             @ lvgl/src/lv_widgets/lv_win.c:612:31
	ldr	r0, [sp, #136]
	ldrh	r1, [r0, #18]
	.loc	10 612 52 is_stmt 0             @ lvgl/src/lv_widgets/lv_win.c:612:52
	str	r1, [sp, #16]                   @ 4-byte Spill
	bl	lv_obj_get_height
	mov	r1, r0
	.loc	10 612 89                       @ lvgl/src/lv_widgets/lv_win.c:612:89
	ldr	r0, [sp, #16]                   @ 4-byte Reload
	ldrsh.w	r2, [sp, #62]
	.loc	10 612 78                       @ lvgl/src/lv_widgets/lv_win.c:612:78
	subs	r1, r1, r2
	.loc	10 612 92                       @ lvgl/src/lv_widgets/lv_win.c:612:92
	add.w	r1, r1, r1, lsr #31
	.loc	10 612 49                       @ lvgl/src/lv_widgets/lv_win.c:612:49
	add.w	r0, r0, r1, lsr #1
	.loc	10 612 29                       @ lvgl/src/lv_widgets/lv_win.c:612:29
	strh.w	r0, [sp, #66]
	.loc	10 613 31 is_stmt 1             @ lvgl/src/lv_widgets/lv_win.c:613:31
	ldrh.w	r0, [sp, #66]
	.loc	10 613 45 is_stmt 0             @ lvgl/src/lv_widgets/lv_win.c:613:45
	ldrh.w	r1, [sp, #62]
	.loc	10 613 43                       @ lvgl/src/lv_widgets/lv_win.c:613:43
	add	r0, r1
	.loc	10 613 29                       @ lvgl/src/lv_widgets/lv_win.c:613:29
	strh.w	r0, [sp, #70]
	.loc	10 614 17 is_stmt 1             @ lvgl/src/lv_widgets/lv_win.c:614:17
	b	.LBB1_18
.LBB1_17:
	.loc	10 616 31                       @ lvgl/src/lv_widgets/lv_win.c:616:31
	ldr	r0, [sp, #136]
	ldrh	r0, [r0, #16]
	.loc	10 616 51 is_stmt 0             @ lvgl/src/lv_widgets/lv_win.c:616:51
	ldrh.w	r1, [sp, #118]
	.loc	10 616 49                       @ lvgl/src/lv_widgets/lv_win.c:616:49
	add	r0, r1
	.loc	10 616 65                       @ lvgl/src/lv_widgets/lv_win.c:616:65
	ldrh.w	r1, [sp, #50]
	.loc	10 616 63                       @ lvgl/src/lv_widgets/lv_win.c:616:63
	add	r0, r1
	.loc	10 616 29                       @ lvgl/src/lv_widgets/lv_win.c:616:29
	strh.w	r0, [sp, #64]
	.loc	10 617 31 is_stmt 1             @ lvgl/src/lv_widgets/lv_win.c:617:31
	ldrh.w	r0, [sp, #64]
	.loc	10 617 45 is_stmt 0             @ lvgl/src/lv_widgets/lv_win.c:617:45
	ldrh.w	r1, [sp, #60]
	.loc	10 617 43                       @ lvgl/src/lv_widgets/lv_win.c:617:43
	add	r0, r1
	.loc	10 617 59                       @ lvgl/src/lv_widgets/lv_win.c:617:59
	ldrh.w	r1, [sp, #50]
	.loc	10 617 57                       @ lvgl/src/lv_widgets/lv_win.c:617:57
	add	r0, r1
	.loc	10 617 29                       @ lvgl/src/lv_widgets/lv_win.c:617:29
	strh.w	r0, [sp, #68]
	.loc	10 618 31 is_stmt 1             @ lvgl/src/lv_widgets/lv_win.c:618:31
	ldr	r0, [sp, #136]
	ldrh	r1, [r0, #18]
	.loc	10 618 52 is_stmt 0             @ lvgl/src/lv_widgets/lv_win.c:618:52
	str	r1, [sp, #12]                   @ 4-byte Spill
	bl	lv_obj_get_height
	mov	r1, r0
	.loc	10 618 89                       @ lvgl/src/lv_widgets/lv_win.c:618:89
	ldr	r0, [sp, #12]                   @ 4-byte Reload
	ldrsh.w	r2, [sp, #62]
	.loc	10 618 78                       @ lvgl/src/lv_widgets/lv_win.c:618:78
	subs	r1, r1, r2
	.loc	10 618 92                       @ lvgl/src/lv_widgets/lv_win.c:618:92
	add.w	r1, r1, r1, lsr #31
	.loc	10 618 49                       @ lvgl/src/lv_widgets/lv_win.c:618:49
	add.w	r0, r0, r1, lsr #1
	.loc	10 618 29                       @ lvgl/src/lv_widgets/lv_win.c:618:29
	strh.w	r0, [sp, #66]
	.loc	10 619 31 is_stmt 1             @ lvgl/src/lv_widgets/lv_win.c:619:31
	ldrh.w	r0, [sp, #66]
	.loc	10 619 45 is_stmt 0             @ lvgl/src/lv_widgets/lv_win.c:619:45
	ldrh.w	r1, [sp, #62]
	.loc	10 619 43                       @ lvgl/src/lv_widgets/lv_win.c:619:43
	add	r0, r1
	.loc	10 619 29                       @ lvgl/src/lv_widgets/lv_win.c:619:29
	strh.w	r0, [sp, #70]
	.loc	10 620 17 is_stmt 1             @ lvgl/src/lv_widgets/lv_win.c:620:17
	b	.LBB1_18
.Ltmp49:
.LBB1_18:
	.loc	10 622 34                       @ lvgl/src/lv_widgets/lv_win.c:622:34
	ldr	r1, [sp, #132]
	.loc	10 622 57 is_stmt 0             @ lvgl/src/lv_widgets/lv_win.c:622:57
	ldr	r0, [sp, #120]
	.loc	10 622 62                       @ lvgl/src/lv_widgets/lv_win.c:622:62
	ldr	r3, [r0, #8]
	.loc	10 622 9                        @ lvgl/src/lv_widgets/lv_win.c:622:9
	mov	r2, sp
	movs	r0, #0
	str	r0, [r2]
	add	r0, sp, #64
	add	r2, sp, #72
	bl	lv_draw_label
	.loc	10 623 5 is_stmt 1              @ lvgl/src/lv_widgets/lv_win.c:623:5
	b	.LBB1_22
.Ltmp50:
.LBB1_19:
	.loc	10 624 13                       @ lvgl/src/lv_widgets/lv_win.c:624:13
	ldrb.w	r0, [sp, #131]
.Ltmp51:
	.loc	10 624 13 is_stmt 0             @ lvgl/src/lv_widgets/lv_win.c:624:13
	cmp	r0, #1
	bne	.LBB1_21
	b	.LBB1_20
.LBB1_20:
.Ltmp52:
	.loc	10 625 9 is_stmt 1              @ lvgl/src/lv_widgets/lv_win.c:625:9
	movw	r0, :lower16:ancestor_header_design
	movt	r0, :upper16:ancestor_header_design
	ldr	r3, [r0]
	.loc	10 625 32 is_stmt 0             @ lvgl/src/lv_widgets/lv_win.c:625:32
	ldr	r0, [sp, #136]
	.loc	10 625 40                       @ lvgl/src/lv_widgets/lv_win.c:625:40
	ldr	r1, [sp, #132]
	.loc	10 625 51                       @ lvgl/src/lv_widgets/lv_win.c:625:51
	ldrb.w	r2, [sp, #131]
	.loc	10 625 9                        @ lvgl/src/lv_widgets/lv_win.c:625:9
	blx	r3
	.loc	10 626 5 is_stmt 1              @ lvgl/src/lv_widgets/lv_win.c:626:5
	b	.LBB1_21
.Ltmp53:
.LBB1_21:
	.loc	10 0 5 is_stmt 0                @ lvgl/src/lv_widgets/lv_win.c:0:5
	b	.LBB1_22
.LBB1_22:
	b	.LBB1_23
.LBB1_23:
	movs	r0, #0
	.loc	10 628 5 is_stmt 1              @ lvgl/src/lv_widgets/lv_win.c:628:5
	strb.w	r0, [sp, #143]
	b	.LBB1_24
.LBB1_24:
	.loc	10 629 1                        @ lvgl/src/lv_widgets/lv_win.c:629:1
	ldrb.w	r0, [sp, #143]
	add	sp, #144
	pop	{r7, pc}
.Ltmp54:
.Lfunc_end1:
	.size	lv_win_header_design, .Lfunc_end1-lv_win_header_design
	.cfi_endproc
	.cantunwind
	.fnend
                                        @ -- End function
	.section	.text.lv_win_signal,"ax",%progbits
	.p2align	3                               @ -- Begin function lv_win_signal
	.type	lv_win_signal,%function
	.code	16                              @ @lv_win_signal
	.thumb_func
lv_win_signal:
.Lfunc_begin2:
	.loc	10 638 0                        @ lvgl/src/lv_widgets/lv_win.c:638:0
	.fnstart
	.cfi_startproc
@ %bb.0:
	.save	{r7, lr}
	push	{r7, lr}
	.cfi_def_cfa_offset 8
	.cfi_offset lr, -4
	.cfi_offset r7, -8
	.pad	#64
	sub	sp, #64
	.cfi_def_cfa_offset 72
                                        @ kill: def $r3 killed $r1
	str	r0, [sp, #56]
	strb.w	r1, [sp, #55]
	str	r2, [sp, #48]
.Ltmp55:
	.loc	10 641 8 prologue_end           @ lvgl/src/lv_widgets/lv_win.c:641:8
	ldrb.w	r0, [sp, #55]
.Ltmp56:
	.loc	10 641 8 is_stmt 0              @ lvgl/src/lv_widgets/lv_win.c:641:8
	cmp	r0, #8
	bne	.LBB2_4
	b	.LBB2_1
.LBB2_1:
.Ltmp57:
	.loc	10 642 38 is_stmt 1             @ lvgl/src/lv_widgets/lv_win.c:642:38
	ldr	r0, [sp, #48]
	.loc	10 642 31 is_stmt 0             @ lvgl/src/lv_widgets/lv_win.c:642:31
	str	r0, [sp, #40]
	.loc	10 643 41 is_stmt 1             @ lvgl/src/lv_widgets/lv_win.c:643:41
	ldr	r0, [sp, #56]
	.loc	10 643 46 is_stmt 0             @ lvgl/src/lv_widgets/lv_win.c:643:46
	ldr	r1, [sp, #40]
	.loc	10 643 52                       @ lvgl/src/lv_widgets/lv_win.c:643:52
	ldrb	r1, [r1]
	.loc	10 643 24                       @ lvgl/src/lv_widgets/lv_win.c:643:24
	bl	lv_win_get_style
	.loc	10 643 9                        @ lvgl/src/lv_widgets/lv_win.c:643:9
	ldr	r1, [sp, #40]
	.loc	10 643 22                       @ lvgl/src/lv_widgets/lv_win.c:643:22
	str	r0, [r1, #4]
.Ltmp58:
	.loc	10 644 12 is_stmt 1             @ lvgl/src/lv_widgets/lv_win.c:644:12
	ldr	r0, [sp, #40]
	.loc	10 644 18 is_stmt 0             @ lvgl/src/lv_widgets/lv_win.c:644:18
	ldr	r0, [r0, #4]
.Ltmp59:
	.loc	10 644 12                       @ lvgl/src/lv_widgets/lv_win.c:644:12
	cbz	r0, .LBB2_3
	b	.LBB2_2
.LBB2_2:
	.loc	10 0 12                         @ lvgl/src/lv_widgets/lv_win.c:0:12
	movs	r0, #1
.Ltmp60:
	.loc	10 644 34                       @ lvgl/src/lv_widgets/lv_win.c:644:34
	strb.w	r0, [sp, #63]
	b	.LBB2_45
.LBB2_3:
	.loc	10 645 21 is_stmt 1             @ lvgl/src/lv_widgets/lv_win.c:645:21
	movw	r0, :lower16:ancestor_signal
	movt	r0, :upper16:ancestor_signal
	ldr	r3, [r0]
	.loc	10 645 37 is_stmt 0             @ lvgl/src/lv_widgets/lv_win.c:645:37
	ldr	r0, [sp, #56]
	.loc	10 645 42                       @ lvgl/src/lv_widgets/lv_win.c:645:42
	ldrb.w	r1, [sp, #55]
	.loc	10 645 48                       @ lvgl/src/lv_widgets/lv_win.c:645:48
	ldr	r2, [sp, #48]
	.loc	10 645 21                       @ lvgl/src/lv_widgets/lv_win.c:645:21
	blx	r3
	.loc	10 645 14                       @ lvgl/src/lv_widgets/lv_win.c:645:14
	strb.w	r0, [sp, #63]
	b	.LBB2_45
.Ltmp61:
.LBB2_4:
	.loc	10 647 13 is_stmt 1             @ lvgl/src/lv_widgets/lv_win.c:647:13
	ldrb.w	r0, [sp, #55]
.Ltmp62:
	.loc	10 647 13 is_stmt 0             @ lvgl/src/lv_widgets/lv_win.c:647:13
	cmp	r0, #9
	bne	.LBB2_14
	b	.LBB2_5
.LBB2_5:
.Ltmp63:
	.loc	10 648 50 is_stmt 1             @ lvgl/src/lv_widgets/lv_win.c:648:50
	ldr	r0, [sp, #56]
	.loc	10 648 30 is_stmt 0             @ lvgl/src/lv_widgets/lv_win.c:648:30
	bl	lv_obj_get_ext_attr
	.loc	10 648 24                       @ lvgl/src/lv_widgets/lv_win.c:648:24
	str	r0, [sp, #36]
	.loc	10 649 38 is_stmt 1             @ lvgl/src/lv_widgets/lv_win.c:649:38
	ldr	r0, [sp, #48]
	.loc	10 649 31 is_stmt 0             @ lvgl/src/lv_widgets/lv_win.c:649:31
	str	r0, [sp, #32]
.Ltmp64:
	.loc	10 650 12 is_stmt 1             @ lvgl/src/lv_widgets/lv_win.c:650:12
	ldr	r0, [sp, #32]
	.loc	10 650 18 is_stmt 0             @ lvgl/src/lv_widgets/lv_win.c:650:18
	ldrb	r0, [r0]
.Ltmp65:
	.loc	10 650 12                       @ lvgl/src/lv_widgets/lv_win.c:650:12
	cmp	r0, #65
	bne	.LBB2_7
	b	.LBB2_6
.LBB2_6:
.Ltmp66:
	.loc	10 650 113                      @ lvgl/src/lv_widgets/lv_win.c:650:113
	ldr	r0, [sp, #36]
	.loc	10 650 118                      @ lvgl/src/lv_widgets/lv_win.c:650:118
	ldr	r0, [r0]
	.loc	10 650 90                       @ lvgl/src/lv_widgets/lv_win.c:650:90
	bl	lv_page_get_scrollable
	movs	r1, #0
	.loc	10 650 73                       @ lvgl/src/lv_widgets/lv_win.c:650:73
	bl	lv_obj_get_state
	.loc	10 650 58                       @ lvgl/src/lv_widgets/lv_win.c:650:58
	ldr	r1, [sp, #32]
	.loc	10 650 71                       @ lvgl/src/lv_widgets/lv_win.c:650:71
	strb	r0, [r1, #1]
	.loc	10 650 58                       @ lvgl/src/lv_widgets/lv_win.c:650:58
	b	.LBB2_13
.LBB2_7:
.Ltmp67:
	.loc	10 652 17 is_stmt 1             @ lvgl/src/lv_widgets/lv_win.c:652:17
	ldr	r0, [sp, #32]
	.loc	10 652 23 is_stmt 0             @ lvgl/src/lv_widgets/lv_win.c:652:23
	ldrb	r0, [r0]
.Ltmp68:
	.loc	10 652 17                       @ lvgl/src/lv_widgets/lv_win.c:652:17
	cmp	r0, #66
	bne	.LBB2_9
	b	.LBB2_8
.LBB2_8:
.Ltmp69:
	.loc	10 652 86                       @ lvgl/src/lv_widgets/lv_win.c:652:86
	ldr	r0, [sp, #36]
	.loc	10 652 91                       @ lvgl/src/lv_widgets/lv_win.c:652:91
	ldr	r0, [r0]
	movs	r1, #1
	.loc	10 652 69                       @ lvgl/src/lv_widgets/lv_win.c:652:69
	bl	lv_obj_get_state
	.loc	10 652 54                       @ lvgl/src/lv_widgets/lv_win.c:652:54
	ldr	r1, [sp, #32]
	.loc	10 652 67                       @ lvgl/src/lv_widgets/lv_win.c:652:67
	strb	r0, [r1, #1]
	.loc	10 652 54                       @ lvgl/src/lv_widgets/lv_win.c:652:54
	b	.LBB2_12
.LBB2_9:
.Ltmp70:
	.loc	10 653 17 is_stmt 1             @ lvgl/src/lv_widgets/lv_win.c:653:17
	ldr	r0, [sp, #32]
	.loc	10 653 23 is_stmt 0             @ lvgl/src/lv_widgets/lv_win.c:653:23
	ldrb	r0, [r0]
.Ltmp71:
	.loc	10 653 17                       @ lvgl/src/lv_widgets/lv_win.c:653:17
	cmp	r0, #64
	bne	.LBB2_11
	b	.LBB2_10
.LBB2_10:
.Ltmp72:
	.loc	10 653 83                       @ lvgl/src/lv_widgets/lv_win.c:653:83
	ldr	r0, [sp, #36]
	.loc	10 653 88                       @ lvgl/src/lv_widgets/lv_win.c:653:88
	ldr	r0, [r0, #4]
	movs	r1, #0
	.loc	10 653 66                       @ lvgl/src/lv_widgets/lv_win.c:653:66
	bl	lv_obj_get_state
	.loc	10 653 51                       @ lvgl/src/lv_widgets/lv_win.c:653:51
	ldr	r1, [sp, #32]
	.loc	10 653 64                       @ lvgl/src/lv_widgets/lv_win.c:653:64
	strb	r0, [r1, #1]
	.loc	10 653 51                       @ lvgl/src/lv_widgets/lv_win.c:653:51
	b	.LBB2_11
.Ltmp73:
.LBB2_11:
	.loc	10 0 51                         @ lvgl/src/lv_widgets/lv_win.c:0:51
	b	.LBB2_12
.LBB2_12:
	b	.LBB2_13
.LBB2_13:
	movs	r0, #1
	.loc	10 654 9 is_stmt 1              @ lvgl/src/lv_widgets/lv_win.c:654:9
	strb.w	r0, [sp, #63]
	b	.LBB2_45
.Ltmp74:
.LBB2_14:
	.loc	10 0 9 is_stmt 0                @ lvgl/src/lv_widgets/lv_win.c:0:9
	b	.LBB2_15
.LBB2_15:
	.loc	10 658 11 is_stmt 1             @ lvgl/src/lv_widgets/lv_win.c:658:11
	movw	r0, :lower16:ancestor_signal
	movt	r0, :upper16:ancestor_signal
	ldr	r3, [r0]
	.loc	10 658 27 is_stmt 0             @ lvgl/src/lv_widgets/lv_win.c:658:27
	ldr	r0, [sp, #56]
	.loc	10 658 32                       @ lvgl/src/lv_widgets/lv_win.c:658:32
	ldrb.w	r1, [sp, #55]
	.loc	10 658 38                       @ lvgl/src/lv_widgets/lv_win.c:658:38
	ldr	r2, [sp, #48]
	.loc	10 658 11                       @ lvgl/src/lv_widgets/lv_win.c:658:11
	blx	r3
	.loc	10 658 9                        @ lvgl/src/lv_widgets/lv_win.c:658:9
	strb.w	r0, [sp, #47]
.Ltmp75:
	.loc	10 659 8 is_stmt 1              @ lvgl/src/lv_widgets/lv_win.c:659:8
	ldrb.w	r0, [sp, #47]
.Ltmp76:
	.loc	10 659 8 is_stmt 0              @ lvgl/src/lv_widgets/lv_win.c:659:8
	cmp	r0, #1
	beq	.LBB2_17
	b	.LBB2_16
.LBB2_16:
.Ltmp77:
	.loc	10 659 33                       @ lvgl/src/lv_widgets/lv_win.c:659:33
	ldrb.w	r0, [sp, #47]
	.loc	10 659 26                       @ lvgl/src/lv_widgets/lv_win.c:659:26
	strb.w	r0, [sp, #63]
	b	.LBB2_45
.Ltmp78:
.LBB2_17:
	.loc	10 660 8 is_stmt 1              @ lvgl/src/lv_widgets/lv_win.c:660:8
	ldrb.w	r0, [sp, #55]
.Ltmp79:
	.loc	10 660 8 is_stmt 0              @ lvgl/src/lv_widgets/lv_win.c:660:8
	cmp	r0, #7
	bne	.LBB2_19
	b	.LBB2_18
.LBB2_18:
.Ltmp80:
	.loc	10 660 73                       @ lvgl/src/lv_widgets/lv_win.c:660:73
	ldr	r0, [sp, #48]
	.loc	10 660 43                       @ lvgl/src/lv_widgets/lv_win.c:660:43
	movw	r1, :lower16:.L.str.3
	movt	r1, :upper16:.L.str.3
	bl	lv_obj_handle_get_type_signal
	.loc	10 660 36                       @ lvgl/src/lv_widgets/lv_win.c:660:36
	strb.w	r0, [sp, #63]
	b	.LBB2_45
.Ltmp81:
.LBB2_19:
	.loc	10 662 46 is_stmt 1             @ lvgl/src/lv_widgets/lv_win.c:662:46
	ldr	r0, [sp, #56]
	.loc	10 662 26 is_stmt 0             @ lvgl/src/lv_widgets/lv_win.c:662:26
	bl	lv_obj_get_ext_attr
	.loc	10 662 20                       @ lvgl/src/lv_widgets/lv_win.c:662:20
	str	r0, [sp, #28]
.Ltmp82:
	.loc	10 663 8 is_stmt 1              @ lvgl/src/lv_widgets/lv_win.c:663:8
	ldrb.w	r0, [sp, #55]
.Ltmp83:
	.loc	10 663 8 is_stmt 0              @ lvgl/src/lv_widgets/lv_win.c:663:8
	cmp	r0, #1
	bne	.LBB2_29
	b	.LBB2_20
.LBB2_20:
.Ltmp84:
	.loc	10 664 27 is_stmt 1             @ lvgl/src/lv_widgets/lv_win.c:664:27
	ldr	r0, [sp, #28]
	.loc	10 664 32 is_stmt 0             @ lvgl/src/lv_widgets/lv_win.c:664:32
	ldr	r0, [r0]
	.loc	10 664 20                       @ lvgl/src/lv_widgets/lv_win.c:664:20
	str	r0, [sp, #24]
.Ltmp85:
	.loc	10 665 12 is_stmt 1             @ lvgl/src/lv_widgets/lv_win.c:665:12
	ldr	r0, [sp, #24]
.Ltmp86:
	.loc	10 665 12 is_stmt 0             @ lvgl/src/lv_widgets/lv_win.c:665:12
	cbz	r0, .LBB2_28
	b	.LBB2_21
.LBB2_21:
.Ltmp87:
	.loc	10 667 38 is_stmt 1             @ lvgl/src/lv_widgets/lv_win.c:667:38
	ldr	r0, [sp, #56]
	movs	r1, #0
	.loc	10 667 21 is_stmt 0             @ lvgl/src/lv_widgets/lv_win.c:667:21
	bl	lv_obj_get_child
	.loc	10 667 19                       @ lvgl/src/lv_widgets/lv_win.c:667:19
	str	r0, [sp, #20]
	.loc	10 668 13 is_stmt 1             @ lvgl/src/lv_widgets/lv_win.c:668:13
	b	.LBB2_22
.LBB2_22:                               @ =>This Inner Loop Header: Depth=1
	.loc	10 668 19 is_stmt 0             @ lvgl/src/lv_widgets/lv_win.c:668:19
	ldr	r0, [sp, #20]
	.loc	10 668 13                       @ lvgl/src/lv_widgets/lv_win.c:668:13
	cbz	r0, .LBB2_27
	b	.LBB2_23
.LBB2_23:                               @   in Loop: Header=BB2_22 Depth=1
.Ltmp88:
	.loc	10 669 40 is_stmt 1             @ lvgl/src/lv_widgets/lv_win.c:669:40
	ldr	r0, [sp, #20]
	movs	r1, #2
	.loc	10 669 20 is_stmt 0             @ lvgl/src/lv_widgets/lv_win.c:669:20
	bl	lv_obj_is_protected
.Ltmp89:
	.loc	10 669 20                       @ lvgl/src/lv_widgets/lv_win.c:669:20
	cbnz	r0, .LBB2_25
	b	.LBB2_24
.LBB2_24:                               @   in Loop: Header=BB2_22 Depth=1
.Ltmp90:
	.loc	10 670 38 is_stmt 1             @ lvgl/src/lv_widgets/lv_win.c:670:38
	ldr	r0, [sp, #20]
	.loc	10 670 32 is_stmt 0             @ lvgl/src/lv_widgets/lv_win.c:670:32
	str	r0, [sp, #16]
	.loc	10 671 55 is_stmt 1             @ lvgl/src/lv_widgets/lv_win.c:671:55
	ldr	r0, [sp, #56]
	.loc	10 671 60 is_stmt 0             @ lvgl/src/lv_widgets/lv_win.c:671:60
	ldr	r1, [sp, #20]
	.loc	10 671 38                       @ lvgl/src/lv_widgets/lv_win.c:671:38
	bl	lv_obj_get_child
	.loc	10 671 36                       @ lvgl/src/lv_widgets/lv_win.c:671:36
	str	r0, [sp, #20]
	.loc	10 672 39 is_stmt 1             @ lvgl/src/lv_widgets/lv_win.c:672:39
	ldr	r0, [sp, #16]
	.loc	10 672 44 is_stmt 0             @ lvgl/src/lv_widgets/lv_win.c:672:44
	ldr	r1, [sp, #24]
	.loc	10 672 21                       @ lvgl/src/lv_widgets/lv_win.c:672:21
	bl	lv_obj_set_parent
	.loc	10 673 17 is_stmt 1             @ lvgl/src/lv_widgets/lv_win.c:673:17
	b	.LBB2_26
.Ltmp91:
.LBB2_25:                               @   in Loop: Header=BB2_22 Depth=1
	.loc	10 675 46                       @ lvgl/src/lv_widgets/lv_win.c:675:46
	ldr	r0, [sp, #56]
	.loc	10 675 51 is_stmt 0             @ lvgl/src/lv_widgets/lv_win.c:675:51
	ldr	r1, [sp, #20]
	.loc	10 675 29                       @ lvgl/src/lv_widgets/lv_win.c:675:29
	bl	lv_obj_get_child
	.loc	10 675 27                       @ lvgl/src/lv_widgets/lv_win.c:675:27
	str	r0, [sp, #20]
	b	.LBB2_26
.Ltmp92:
.LBB2_26:                               @   in Loop: Header=BB2_22 Depth=1
	.loc	10 668 13 is_stmt 1             @ lvgl/src/lv_widgets/lv_win.c:668:13
	b	.LBB2_22
.LBB2_27:
	.loc	10 678 9                        @ lvgl/src/lv_widgets/lv_win.c:678:9
	b	.LBB2_28
.Ltmp93:
.LBB2_28:
	.loc	10 679 5                        @ lvgl/src/lv_widgets/lv_win.c:679:5
	b	.LBB2_44
.Ltmp94:
.LBB2_29:
	.loc	10 680 13                       @ lvgl/src/lv_widgets/lv_win.c:680:13
	ldrb.w	r0, [sp, #55]
.Ltmp95:
	.loc	10 680 13 is_stmt 0             @ lvgl/src/lv_widgets/lv_win.c:680:13
	cmp	r0, #4
	bne	.LBB2_31
	b	.LBB2_30
.LBB2_30:
.Ltmp96:
	.loc	10 681 24 is_stmt 1             @ lvgl/src/lv_widgets/lv_win.c:681:24
	ldr	r0, [sp, #56]
	.loc	10 681 9 is_stmt 0              @ lvgl/src/lv_widgets/lv_win.c:681:9
	bl	lv_win_realign
	.loc	10 682 5 is_stmt 1              @ lvgl/src/lv_widgets/lv_win.c:682:5
	b	.LBB2_43
.Ltmp97:
.LBB2_31:
	.loc	10 683 13                       @ lvgl/src/lv_widgets/lv_win.c:683:13
	ldrb.w	r0, [sp, #55]
.Ltmp98:
	.loc	10 683 13 is_stmt 0             @ lvgl/src/lv_widgets/lv_win.c:683:13
	cmp	r0, #2
	bne	.LBB2_36
	b	.LBB2_32
.LBB2_32:
.Ltmp99:
	.loc	10 685 30 is_stmt 1             @ lvgl/src/lv_widgets/lv_win.c:685:30
	ldr	r0, [sp, #48]
	.loc	10 685 12 is_stmt 0             @ lvgl/src/lv_widgets/lv_win.c:685:12
	bl	lv_area_get_width
	.loc	10 685 57                       @ lvgl/src/lv_widgets/lv_win.c:685:57
	str	r0, [sp, #12]                   @ 4-byte Spill
	ldr	r0, [sp, #56]
	.loc	10 685 40                       @ lvgl/src/lv_widgets/lv_win.c:685:40
	bl	lv_obj_get_width
	mov	r1, r0
	.loc	10 685 62                       @ lvgl/src/lv_widgets/lv_win.c:685:62
	ldr	r0, [sp, #12]                   @ 4-byte Reload
	cmp	r0, r1
	bne	.LBB2_34
	b	.LBB2_33
.LBB2_33:
	.loc	10 685 84                       @ lvgl/src/lv_widgets/lv_win.c:685:84
	ldr	r0, [sp, #48]
	.loc	10 685 65                       @ lvgl/src/lv_widgets/lv_win.c:685:65
	bl	lv_area_get_height
	.loc	10 685 112                      @ lvgl/src/lv_widgets/lv_win.c:685:112
	str	r0, [sp, #8]                    @ 4-byte Spill
	ldr	r0, [sp, #56]
	.loc	10 685 94                       @ lvgl/src/lv_widgets/lv_win.c:685:94
	bl	lv_obj_get_height
	mov	r1, r0
.Ltmp100:
	.loc	10 685 12                       @ lvgl/src/lv_widgets/lv_win.c:685:12
	ldr	r0, [sp, #8]                    @ 4-byte Reload
	cmp	r0, r1
	beq	.LBB2_35
	b	.LBB2_34
.LBB2_34:
.Ltmp101:
	.loc	10 686 28 is_stmt 1             @ lvgl/src/lv_widgets/lv_win.c:686:28
	ldr	r0, [sp, #56]
	.loc	10 686 13 is_stmt 0             @ lvgl/src/lv_widgets/lv_win.c:686:13
	bl	lv_win_realign
	.loc	10 687 9 is_stmt 1              @ lvgl/src/lv_widgets/lv_win.c:687:9
	b	.LBB2_35
.Ltmp102:
.LBB2_35:
	.loc	10 688 5                        @ lvgl/src/lv_widgets/lv_win.c:688:5
	b	.LBB2_42
.Ltmp103:
.LBB2_36:
	.loc	10 689 13                       @ lvgl/src/lv_widgets/lv_win.c:689:13
	ldrb.w	r0, [sp, #55]
.Ltmp104:
	.loc	10 689 13 is_stmt 0             @ lvgl/src/lv_widgets/lv_win.c:689:13
	cbnz	r0, .LBB2_38
	b	.LBB2_37
.LBB2_37:
.Ltmp105:
	.loc	10 690 9 is_stmt 1              @ lvgl/src/lv_widgets/lv_win.c:690:9
	ldr	r1, [sp, #28]
	movs	r0, #0
	.loc	10 690 21 is_stmt 0             @ lvgl/src/lv_widgets/lv_win.c:690:21
	str	r0, [sp, #4]                    @ 4-byte Spill
	str	r0, [r1, #4]
	.loc	10 691 9 is_stmt 1              @ lvgl/src/lv_widgets/lv_win.c:691:9
	ldr	r1, [sp, #28]
	.loc	10 691 21 is_stmt 0             @ lvgl/src/lv_widgets/lv_win.c:691:21
	str	r0, [r1]
	.loc	10 692 21 is_stmt 1             @ lvgl/src/lv_widgets/lv_win.c:692:21
	ldr	r0, [sp, #28]
	.loc	10 692 26 is_stmt 0             @ lvgl/src/lv_widgets/lv_win.c:692:26
	ldr	r0, [r0, #8]
	.loc	10 692 9                        @ lvgl/src/lv_widgets/lv_win.c:692:9
	bl	lv_mem_free
	ldr	r0, [sp, #4]                    @ 4-byte Reload
	.loc	10 693 9 is_stmt 1              @ lvgl/src/lv_widgets/lv_win.c:693:9
	ldr	r1, [sp, #28]
	.loc	10 693 25 is_stmt 0             @ lvgl/src/lv_widgets/lv_win.c:693:25
	str	r0, [r1, #8]
	.loc	10 694 5 is_stmt 1              @ lvgl/src/lv_widgets/lv_win.c:694:5
	b	.LBB2_41
.Ltmp106:
.LBB2_38:
	.loc	10 695 13                       @ lvgl/src/lv_widgets/lv_win.c:695:13
	ldrb.w	r0, [sp, #55]
.Ltmp107:
	.loc	10 695 13 is_stmt 0             @ lvgl/src/lv_widgets/lv_win.c:695:13
	cmp	r0, #24
	bne	.LBB2_40
	b	.LBB2_39
.LBB2_39:
.Ltmp108:
	.loc	10 698 9 is_stmt 1              @ lvgl/src/lv_widgets/lv_win.c:698:9
	ldr	r0, [sp, #28]
	.loc	10 698 14 is_stmt 0             @ lvgl/src/lv_widgets/lv_win.c:698:14
	ldr	r0, [r0]
	.loc	10 698 20                       @ lvgl/src/lv_widgets/lv_win.c:698:20
	ldr	r3, [r0, #28]
	.loc	10 698 41                       @ lvgl/src/lv_widgets/lv_win.c:698:41
	ldrb.w	r1, [sp, #55]
	.loc	10 698 47                       @ lvgl/src/lv_widgets/lv_win.c:698:47
	ldr	r2, [sp, #48]
	.loc	10 698 9                        @ lvgl/src/lv_widgets/lv_win.c:698:9
	blx	r3
	.loc	10 700 5 is_stmt 1              @ lvgl/src/lv_widgets/lv_win.c:700:5
	b	.LBB2_40
.Ltmp109:
.LBB2_40:
	.loc	10 0 5 is_stmt 0                @ lvgl/src/lv_widgets/lv_win.c:0:5
	b	.LBB2_41
.LBB2_41:
	b	.LBB2_42
.LBB2_42:
	b	.LBB2_43
.LBB2_43:
	b	.LBB2_44
.LBB2_44:
	.loc	10 702 12 is_stmt 1             @ lvgl/src/lv_widgets/lv_win.c:702:12
	ldrb.w	r0, [sp, #47]
	.loc	10 702 5 is_stmt 0              @ lvgl/src/lv_widgets/lv_win.c:702:5
	strb.w	r0, [sp, #63]
	b	.LBB2_45
.LBB2_45:
	.loc	10 703 1 is_stmt 1              @ lvgl/src/lv_widgets/lv_win.c:703:1
	ldrb.w	r0, [sp, #63]
	add	sp, #64
	pop	{r7, pc}
.Ltmp110:
.Lfunc_end2:
	.size	lv_win_signal, .Lfunc_end2-lv_win_signal
	.cfi_endproc
	.cantunwind
	.fnend
                                        @ -- End function
	.section	.text.lv_win_realign,"ax",%progbits
	.p2align	3                               @ -- Begin function lv_win_realign
	.type	lv_win_realign,%function
	.code	16                              @ @lv_win_realign
	.thumb_func
lv_win_realign:
.Lfunc_begin3:
	.loc	10 741 0                        @ lvgl/src/lv_widgets/lv_win.c:741:0
	.fnstart
	.cfi_startproc
@ %bb.0:
	.save	{r7, lr}
	push	{r7, lr}
	.cfi_def_cfa_offset 8
	.cfi_offset lr, -4
	.cfi_offset r7, -8
	.pad	#80
	sub	sp, #80
	.cfi_def_cfa_offset 88
	str	r0, [sp, #76]
.Ltmp111:
	.loc	10 742 46 prologue_end          @ lvgl/src/lv_widgets/lv_win.c:742:46
	ldr	r0, [sp, #76]
	.loc	10 742 26 is_stmt 0             @ lvgl/src/lv_widgets/lv_win.c:742:26
	bl	lv_obj_get_ext_attr
	.loc	10 742 20                       @ lvgl/src/lv_widgets/lv_win.c:742:20
	str	r0, [sp, #72]
.Ltmp112:
	.loc	10 744 8 is_stmt 1              @ lvgl/src/lv_widgets/lv_win.c:744:8
	ldr	r0, [sp, #72]
	.loc	10 744 13 is_stmt 0             @ lvgl/src/lv_widgets/lv_win.c:744:13
	ldr	r0, [r0]
	.loc	10 744 26                       @ lvgl/src/lv_widgets/lv_win.c:744:26
	cbz	r0, .LBB3_2
	b	.LBB3_1
.LBB3_1:
	.loc	10 744 29                       @ lvgl/src/lv_widgets/lv_win.c:744:29
	ldr	r0, [sp, #72]
	.loc	10 744 34                       @ lvgl/src/lv_widgets/lv_win.c:744:34
	ldr	r0, [r0, #4]
.Ltmp113:
	.loc	10 744 8                        @ lvgl/src/lv_widgets/lv_win.c:744:8
	cbnz	r0, .LBB3_3
	b	.LBB3_2
.LBB3_2:
.Ltmp114:
	.loc	10 744 50                       @ lvgl/src/lv_widgets/lv_win.c:744:50
	b	.LBB3_21
.Ltmp115:
.LBB3_3:
	.loc	10 746 22 is_stmt 1             @ lvgl/src/lv_widgets/lv_win.c:746:22
	ldr	r0, [sp, #72]
	.loc	10 746 27 is_stmt 0             @ lvgl/src/lv_widgets/lv_win.c:746:27
	ldr	r0, [r0, #4]
	.loc	10 746 52                       @ lvgl/src/lv_widgets/lv_win.c:746:52
	str	r0, [sp, #40]                   @ 4-byte Spill
	ldr	r0, [sp, #76]
	.loc	10 746 35                       @ lvgl/src/lv_widgets/lv_win.c:746:35
	bl	lv_obj_get_width
	mov	r1, r0
	.loc	10 746 5                        @ lvgl/src/lv_widgets/lv_win.c:746:5
	ldr	r0, [sp, #40]                   @ 4-byte Reload
	bl	lv_obj_set_width
	movs	r0, #0
	.loc	10 749 16 is_stmt 1             @ lvgl/src/lv_widgets/lv_win.c:749:16
	str	r0, [sp, #64]
	.loc	10 750 16                       @ lvgl/src/lv_widgets/lv_win.c:750:16
	str	r0, [sp, #60]
	movs	r0, #1
	.loc	10 752 10                       @ lvgl/src/lv_widgets/lv_win.c:752:10
	strb.w	r0, [sp, #59]
	.loc	10 753 10                       @ lvgl/src/lv_widgets/lv_win.c:753:10
	strb.w	r0, [sp, #58]
	.loc	10 755 46                       @ lvgl/src/lv_widgets/lv_win.c:755:46
	ldr	r0, [sp, #72]
	.loc	10 755 51 is_stmt 0             @ lvgl/src/lv_widgets/lv_win.c:755:51
	ldr	r0, [r0, #4]
	.loc	10 755 24                       @ lvgl/src/lv_widgets/lv_win.c:755:24
	bl	lv_obj_get_height_fit
	.loc	10 755 16                       @ lvgl/src/lv_widgets/lv_win.c:755:16
	strh.w	r0, [sp, #56]
	.loc	10 756 24 is_stmt 1             @ lvgl/src/lv_widgets/lv_win.c:756:24
	ldr	r0, [sp, #72]
	.loc	10 756 29 is_stmt 0             @ lvgl/src/lv_widgets/lv_win.c:756:29
	ldrsh.w	r0, [r0, #12]
	.loc	10 756 24                       @ lvgl/src/lv_widgets/lv_win.c:756:24
	cbz	r0, .LBB3_5
	b	.LBB3_4
.LBB3_4:
	.loc	10 756 42                       @ lvgl/src/lv_widgets/lv_win.c:756:42
	ldr	r0, [sp, #72]
	.loc	10 756 47                       @ lvgl/src/lv_widgets/lv_win.c:756:47
	ldrsh.w	r0, [r0, #12]
	.loc	10 756 24                       @ lvgl/src/lv_widgets/lv_win.c:756:24
	str	r0, [sp, #36]                   @ 4-byte Spill
	b	.LBB3_6
.LBB3_5:
	.loc	10 756 55                       @ lvgl/src/lv_widgets/lv_win.c:756:55
	ldrsh.w	r0, [sp, #56]
	.loc	10 756 24                       @ lvgl/src/lv_widgets/lv_win.c:756:24
	str	r0, [sp, #36]                   @ 4-byte Spill
	b	.LBB3_6
.LBB3_6:
	ldr	r0, [sp, #36]                   @ 4-byte Reload
	.loc	10 756 16                       @ lvgl/src/lv_widgets/lv_win.c:756:16
	strh.w	r0, [sp, #54]
	.loc	10 757 62 is_stmt 1             @ lvgl/src/lv_widgets/lv_win.c:757:62
	ldr	r0, [sp, #76]
	movs	r1, #64
	.loc	10 757 35 is_stmt 0             @ lvgl/src/lv_widgets/lv_win.c:757:35
	str	r1, [sp, #32]                   @ 4-byte Spill
	bl	lv_obj_get_style_pad_inner
	ldr	r1, [sp, #32]                   @ 4-byte Reload
	.loc	10 757 20                       @ lvgl/src/lv_widgets/lv_win.c:757:20
	strh.w	r0, [sp, #52]
	.loc	10 758 62 is_stmt 1             @ lvgl/src/lv_widgets/lv_win.c:758:62
	ldr	r0, [sp, #76]
	.loc	10 758 35 is_stmt 0             @ lvgl/src/lv_widgets/lv_win.c:758:35
	bl	lv_obj_get_style_pad_right
	ldr	r1, [sp, #32]                   @ 4-byte Reload
	.loc	10 758 20                       @ lvgl/src/lv_widgets/lv_win.c:758:20
	strh.w	r0, [sp, #50]
	.loc	10 759 60 is_stmt 1             @ lvgl/src/lv_widgets/lv_win.c:759:60
	ldr	r0, [sp, #76]
	.loc	10 759 34 is_stmt 0             @ lvgl/src/lv_widgets/lv_win.c:759:34
	bl	lv_obj_get_style_pad_left
	.loc	10 759 20                       @ lvgl/src/lv_widgets/lv_win.c:759:20
	strh.w	r0, [sp, #48]
	.loc	10 762 33 is_stmt 1             @ lvgl/src/lv_widgets/lv_win.c:762:33
	ldr	r0, [sp, #72]
	.loc	10 762 38 is_stmt 0             @ lvgl/src/lv_widgets/lv_win.c:762:38
	ldr	r0, [r0, #4]
	movs	r1, #0
	.loc	10 762 11                       @ lvgl/src/lv_widgets/lv_win.c:762:11
	bl	lv_obj_get_child_back
	.loc	10 762 9                        @ lvgl/src/lv_widgets/lv_win.c:762:9
	str	r0, [sp, #68]
	.loc	10 763 5 is_stmt 1              @ lvgl/src/lv_widgets/lv_win.c:763:5
	b	.LBB3_7
.LBB3_7:                                @ =>This Inner Loop Header: Depth=1
	.loc	10 763 11 is_stmt 0             @ lvgl/src/lv_widgets/lv_win.c:763:11
	ldr	r0, [sp, #68]
	.loc	10 763 5                        @ lvgl/src/lv_widgets/lv_win.c:763:5
	cmp	r0, #0
	beq	.LBB3_20
	b	.LBB3_8
.LBB3_8:                                @   in Loop: Header=BB3_7 Depth=1
.Ltmp116:
	.loc	10 764 25 is_stmt 1             @ lvgl/src/lv_widgets/lv_win.c:764:25
	ldr	r0, [sp, #68]
	.loc	10 764 30 is_stmt 0             @ lvgl/src/lv_widgets/lv_win.c:764:30
	ldrsh.w	r1, [sp, #54]
	.loc	10 764 37                       @ lvgl/src/lv_widgets/lv_win.c:764:37
	ldrsh.w	r2, [sp, #56]
	.loc	10 764 9                        @ lvgl/src/lv_widgets/lv_win.c:764:9
	bl	lv_obj_set_size
	.loc	10 765 58 is_stmt 1             @ lvgl/src/lv_widgets/lv_win.c:765:58
	ldr	r0, [sp, #68]
	.loc	10 765 33 is_stmt 0             @ lvgl/src/lv_widgets/lv_win.c:765:33
	bl	lv_win_btn_get_alignment
	.loc	10 765 17                       @ lvgl/src/lv_widgets/lv_win.c:765:17
	strb.w	r0, [sp, #47]
.Ltmp117:
	.loc	10 767 38 is_stmt 1             @ lvgl/src/lv_widgets/lv_win.c:767:38
	ldrb.w	r0, [sp, #47]
.Ltmp118:
	.loc	10 767 12 is_stmt 0             @ lvgl/src/lv_widgets/lv_win.c:767:12
	cbnz	r0, .LBB3_13
	b	.LBB3_9
.LBB3_9:                                @   in Loop: Header=BB3_7 Depth=1
.Ltmp119:
	.loc	10 768 16 is_stmt 1             @ lvgl/src/lv_widgets/lv_win.c:768:16
	ldrb.w	r0, [sp, #59]
.Ltmp120:
	.loc	10 768 16 is_stmt 0             @ lvgl/src/lv_widgets/lv_win.c:768:16
	lsls	r0, r0, #31
	cbz	r0, .LBB3_11
	b	.LBB3_10
.LBB3_10:                               @   in Loop: Header=BB3_7 Depth=1
.Ltmp121:
	.loc	10 770 30 is_stmt 1             @ lvgl/src/lv_widgets/lv_win.c:770:30
	ldr	r0, [sp, #68]
	.loc	10 770 35 is_stmt 0             @ lvgl/src/lv_widgets/lv_win.c:770:35
	ldr	r1, [sp, #72]
	.loc	10 770 40                       @ lvgl/src/lv_widgets/lv_win.c:770:40
	ldr	r1, [r1, #4]
	.loc	10 770 72                       @ lvgl/src/lv_widgets/lv_win.c:770:72
	ldrh.w	r2, [sp, #50]
	.loc	10 770 71                       @ lvgl/src/lv_widgets/lv_win.c:770:71
	rsbs	r2, r2, #0
	.loc	10 770 17                       @ lvgl/src/lv_widgets/lv_win.c:770:17
	mov	r12, sp
	movs	r3, #0
	str	r3, [sp, #28]                   @ 4-byte Spill
	str.w	r3, [r12]
	sxth	r3, r2
	movs	r2, #8
	bl	lv_obj_align
	ldr	r0, [sp, #28]                   @ 4-byte Reload
	.loc	10 772 44 is_stmt 1             @ lvgl/src/lv_widgets/lv_win.c:772:44
	strb.w	r0, [sp, #59]
	.loc	10 773 13                       @ lvgl/src/lv_widgets/lv_win.c:773:13
	b	.LBB3_12
.Ltmp122:
.LBB3_11:                               @   in Loop: Header=BB3_7 Depth=1
	.loc	10 776 30                       @ lvgl/src/lv_widgets/lv_win.c:776:30
	ldr	r0, [sp, #68]
	.loc	10 776 35 is_stmt 0             @ lvgl/src/lv_widgets/lv_win.c:776:35
	ldr	r1, [sp, #60]
	.loc	10 776 78                       @ lvgl/src/lv_widgets/lv_win.c:776:78
	ldrh.w	r2, [sp, #52]
	.loc	10 776 77                       @ lvgl/src/lv_widgets/lv_win.c:776:77
	rsbs	r2, r2, #0
	.loc	10 776 17                       @ lvgl/src/lv_widgets/lv_win.c:776:17
	mov	r12, sp
	movs	r3, #0
	str.w	r3, [r12]
	sxth	r3, r2
	movs	r2, #16
	bl	lv_obj_align
	b	.LBB3_12
.Ltmp123:
.LBB3_12:                               @   in Loop: Header=BB3_7 Depth=1
	.loc	10 779 33 is_stmt 1             @ lvgl/src/lv_widgets/lv_win.c:779:33
	ldr	r0, [sp, #68]
	.loc	10 779 31 is_stmt 0             @ lvgl/src/lv_widgets/lv_win.c:779:31
	str	r0, [sp, #60]
	.loc	10 780 9 is_stmt 1              @ lvgl/src/lv_widgets/lv_win.c:780:9
	b	.LBB3_19
.Ltmp124:
.LBB3_13:                               @   in Loop: Header=BB3_7 Depth=1
	.loc	10 781 42                       @ lvgl/src/lv_widgets/lv_win.c:781:42
	ldrb.w	r0, [sp, #47]
.Ltmp125:
	.loc	10 781 17 is_stmt 0             @ lvgl/src/lv_widgets/lv_win.c:781:17
	cmp	r0, #1
	bne	.LBB3_18
	b	.LBB3_14
.LBB3_14:                               @   in Loop: Header=BB3_7 Depth=1
.Ltmp126:
	.loc	10 782 16 is_stmt 1             @ lvgl/src/lv_widgets/lv_win.c:782:16
	ldrb.w	r0, [sp, #58]
.Ltmp127:
	.loc	10 782 16 is_stmt 0             @ lvgl/src/lv_widgets/lv_win.c:782:16
	lsls	r0, r0, #31
	cbz	r0, .LBB3_16
	b	.LBB3_15
.LBB3_15:                               @   in Loop: Header=BB3_7 Depth=1
.Ltmp128:
	.loc	10 784 30 is_stmt 1             @ lvgl/src/lv_widgets/lv_win.c:784:30
	ldr	r0, [sp, #68]
	.loc	10 784 35 is_stmt 0             @ lvgl/src/lv_widgets/lv_win.c:784:35
	ldr	r1, [sp, #72]
	.loc	10 784 40                       @ lvgl/src/lv_widgets/lv_win.c:784:40
	ldr	r1, [r1, #4]
	.loc	10 784 70                       @ lvgl/src/lv_widgets/lv_win.c:784:70
	ldrsh.w	r3, [sp, #48]
	.loc	10 784 17                       @ lvgl/src/lv_widgets/lv_win.c:784:17
	mov	r12, sp
	movs	r2, #0
	str	r2, [sp, #24]                   @ 4-byte Spill
	str.w	r2, [r12]
	movs	r2, #7
	bl	lv_obj_align
	ldr	r0, [sp, #24]                   @ 4-byte Reload
	.loc	10 786 43 is_stmt 1             @ lvgl/src/lv_widgets/lv_win.c:786:43
	strb.w	r0, [sp, #58]
	.loc	10 787 13                       @ lvgl/src/lv_widgets/lv_win.c:787:13
	b	.LBB3_17
.Ltmp129:
.LBB3_16:                               @   in Loop: Header=BB3_7 Depth=1
	.loc	10 790 30                       @ lvgl/src/lv_widgets/lv_win.c:790:30
	ldr	r0, [sp, #68]
	.loc	10 790 35 is_stmt 0             @ lvgl/src/lv_widgets/lv_win.c:790:35
	ldr	r1, [sp, #64]
	.loc	10 790 77                       @ lvgl/src/lv_widgets/lv_win.c:790:77
	ldrsh.w	r3, [sp, #52]
	.loc	10 790 17                       @ lvgl/src/lv_widgets/lv_win.c:790:17
	mov	r12, sp
	movs	r2, #0
	str.w	r2, [r12]
	movs	r2, #19
	bl	lv_obj_align
	b	.LBB3_17
.Ltmp130:
.LBB3_17:                               @   in Loop: Header=BB3_7 Depth=1
	.loc	10 793 32 is_stmt 1             @ lvgl/src/lv_widgets/lv_win.c:793:32
	ldr	r0, [sp, #68]
	.loc	10 793 30 is_stmt 0             @ lvgl/src/lv_widgets/lv_win.c:793:30
	str	r0, [sp, #64]
	.loc	10 794 9 is_stmt 1              @ lvgl/src/lv_widgets/lv_win.c:794:9
	b	.LBB3_18
.Ltmp131:
.LBB3_18:                               @   in Loop: Header=BB3_7 Depth=1
	.loc	10 0 9 is_stmt 0                @ lvgl/src/lv_widgets/lv_win.c:0:9
	b	.LBB3_19
.LBB3_19:                               @   in Loop: Header=BB3_7 Depth=1
	.loc	10 796 37 is_stmt 1             @ lvgl/src/lv_widgets/lv_win.c:796:37
	ldr	r0, [sp, #72]
	.loc	10 796 42 is_stmt 0             @ lvgl/src/lv_widgets/lv_win.c:796:42
	ldr	r0, [r0, #4]
	.loc	10 796 50                       @ lvgl/src/lv_widgets/lv_win.c:796:50
	ldr	r1, [sp, #68]
	.loc	10 796 15                       @ lvgl/src/lv_widgets/lv_win.c:796:15
	bl	lv_obj_get_child_back
	.loc	10 796 13                       @ lvgl/src/lv_widgets/lv_win.c:796:13
	str	r0, [sp, #68]
.Ltmp132:
	.loc	10 763 5 is_stmt 1              @ lvgl/src/lv_widgets/lv_win.c:763:5
	b	.LBB3_7
.LBB3_20:
	.loc	10 799 20                       @ lvgl/src/lv_widgets/lv_win.c:799:20
	ldr	r0, [sp, #72]
	.loc	10 799 25 is_stmt 0             @ lvgl/src/lv_widgets/lv_win.c:799:25
	ldr	r0, [r0, #4]
	movs	r2, #0
	.loc	10 799 5                        @ lvgl/src/lv_widgets/lv_win.c:799:5
	str	r2, [sp, #20]                   @ 4-byte Spill
	mov	r1, r2
	bl	lv_obj_set_pos
	.loc	10 801 21 is_stmt 1             @ lvgl/src/lv_widgets/lv_win.c:801:21
	ldr	r0, [sp, #72]
	.loc	10 801 26 is_stmt 0             @ lvgl/src/lv_widgets/lv_win.c:801:26
	ldr	r0, [r0]
	.loc	10 801 49                       @ lvgl/src/lv_widgets/lv_win.c:801:49
	str	r0, [sp, #16]                   @ 4-byte Spill
	ldr	r0, [sp, #76]
	.loc	10 801 32                       @ lvgl/src/lv_widgets/lv_win.c:801:32
	bl	lv_obj_get_width
	.loc	10 801 73                       @ lvgl/src/lv_widgets/lv_win.c:801:73
	str	r0, [sp, #12]                   @ 4-byte Spill
	ldr	r0, [sp, #76]
	.loc	10 801 55                       @ lvgl/src/lv_widgets/lv_win.c:801:55
	bl	lv_obj_get_height
	.loc	10 801 98                       @ lvgl/src/lv_widgets/lv_win.c:801:98
	str	r0, [sp, #8]                    @ 4-byte Spill
	ldr	r0, [sp, #72]
	.loc	10 801 103                      @ lvgl/src/lv_widgets/lv_win.c:801:103
	ldr	r0, [r0, #4]
	.loc	10 801 80                       @ lvgl/src/lv_widgets/lv_win.c:801:80
	bl	lv_obj_get_height
	ldr	r2, [sp, #8]                    @ 4-byte Reload
	ldr	r1, [sp, #12]                   @ 4-byte Reload
	mov	r3, r0
	.loc	10 801 78                       @ lvgl/src/lv_widgets/lv_win.c:801:78
	ldr	r0, [sp, #16]                   @ 4-byte Reload
	subs	r2, r2, r3
	.loc	10 801 5                        @ lvgl/src/lv_widgets/lv_win.c:801:5
	sxth	r2, r2
	bl	lv_obj_set_size
	ldr	r3, [sp, #20]                   @ 4-byte Reload
	.loc	10 802 18 is_stmt 1             @ lvgl/src/lv_widgets/lv_win.c:802:18
	ldr	r1, [sp, #72]
	.loc	10 802 23 is_stmt 0             @ lvgl/src/lv_widgets/lv_win.c:802:23
	ldr	r0, [r1]
	.loc	10 802 34                       @ lvgl/src/lv_widgets/lv_win.c:802:34
	ldr	r1, [r1, #4]
	.loc	10 802 5                        @ lvgl/src/lv_widgets/lv_win.c:802:5
	mov	r2, sp
	str	r3, [r2]
	movs	r2, #12
	bl	lv_obj_align
	.loc	10 803 1 is_stmt 1              @ lvgl/src/lv_widgets/lv_win.c:803:1
	b	.LBB3_21
.LBB3_21:
	add	sp, #80
	pop	{r7, pc}
.Ltmp133:
.Lfunc_end3:
	.size	lv_win_realign, .Lfunc_end3-lv_win_realign
	.cfi_endproc
	.cantunwind
	.fnend
                                        @ -- End function
	.section	.text.lv_win_clean,"ax",%progbits
	.hidden	lv_win_clean                    @ -- Begin function lv_win_clean
	.globl	lv_win_clean
	.p2align	3
	.type	lv_win_clean,%function
	.code	16                              @ @lv_win_clean
	.thumb_func
lv_win_clean:
.Lfunc_begin4:
	.loc	10 174 0                        @ lvgl/src/lv_widgets/lv_win.c:174:0
	.fnstart
	.cfi_startproc
@ %bb.0:
	.save	{r7, lr}
	push	{r7, lr}
	.cfi_def_cfa_offset 8
	.cfi_offset lr, -4
	.cfi_offset r7, -8
	.pad	#16
	sub	sp, #16
	.cfi_def_cfa_offset 24
	str	r0, [sp, #12]
.Ltmp134:
	.loc	10 175 5 prologue_end           @ lvgl/src/lv_widgets/lv_win.c:175:5
	b	.LBB4_1
.LBB4_1:
.Ltmp135:
	.loc	10 175 5 is_stmt 0              @ lvgl/src/lv_widgets/lv_win.c:175:5
	ldr	r0, [sp, #12]
	bl	lv_debug_check_null
.Ltmp136:
	.loc	10 175 5                        @ lvgl/src/lv_widgets/lv_win.c:175:5
	cbnz	r0, .LBB4_4
	b	.LBB4_2
.LBB4_2:
.Ltmp137:
	.loc	10 175 5                        @ lvgl/src/lv_widgets/lv_win.c:175:5
	ldr	r2, [sp, #12]
	movw	r0, :lower16:.L.str.2
	movt	r0, :upper16:.L.str.2
	movs	r3, #0
	bl	lv_debug_log_error
	b	.LBB4_3
.LBB4_3:                                @ =>This Inner Loop Header: Depth=1
	b	.LBB4_3
.Ltmp138:
.LBB4_4:
	.loc	10 175 5                        @ lvgl/src/lv_widgets/lv_win.c:175:5
	b	.LBB4_5
.Ltmp139:
.LBB4_5:
	.loc	10 176 46 is_stmt 1             @ lvgl/src/lv_widgets/lv_win.c:176:46
	ldr	r0, [sp, #12]
	.loc	10 176 26 is_stmt 0             @ lvgl/src/lv_widgets/lv_win.c:176:26
	bl	lv_obj_get_ext_attr
	.loc	10 176 20                       @ lvgl/src/lv_widgets/lv_win.c:176:20
	str	r0, [sp, #8]
	.loc	10 178 46 is_stmt 1             @ lvgl/src/lv_widgets/lv_win.c:178:46
	ldr	r0, [sp, #8]
	.loc	10 178 51 is_stmt 0             @ lvgl/src/lv_widgets/lv_win.c:178:51
	ldr	r0, [r0]
	.loc	10 178 23                       @ lvgl/src/lv_widgets/lv_win.c:178:23
	bl	lv_page_get_scrollable
	.loc	10 178 16                       @ lvgl/src/lv_widgets/lv_win.c:178:16
	str	r0, [sp, #4]
	.loc	10 179 18 is_stmt 1             @ lvgl/src/lv_widgets/lv_win.c:179:18
	ldr	r0, [sp, #4]
	.loc	10 179 5 is_stmt 0              @ lvgl/src/lv_widgets/lv_win.c:179:5
	bl	lv_obj_clean
	.loc	10 180 1 is_stmt 1              @ lvgl/src/lv_widgets/lv_win.c:180:1
	add	sp, #16
	pop	{r7, pc}
.Ltmp140:
.Lfunc_end4:
	.size	lv_win_clean, .Lfunc_end4-lv_win_clean
	.cfi_endproc
	.cantunwind
	.fnend
                                        @ -- End function
	.section	.text.lv_win_add_btn_right,"ax",%progbits
	.hidden	lv_win_add_btn_right            @ -- Begin function lv_win_add_btn_right
	.globl	lv_win_add_btn_right
	.p2align	3
	.type	lv_win_add_btn_right,%function
	.code	16                              @ @lv_win_add_btn_right
	.thumb_func
lv_win_add_btn_right:
.Lfunc_begin5:
	.loc	10 194 0                        @ lvgl/src/lv_widgets/lv_win.c:194:0
	.fnstart
	.cfi_startproc
@ %bb.0:
	.save	{r7, lr}
	push	{r7, lr}
	.cfi_def_cfa_offset 8
	.cfi_offset lr, -4
	.cfi_offset r7, -8
	.pad	#16
	sub	sp, #16
	.cfi_def_cfa_offset 24
	str	r0, [sp, #12]
	str	r1, [sp, #8]
.Ltmp141:
	.loc	10 195 5 prologue_end           @ lvgl/src/lv_widgets/lv_win.c:195:5
	b	.LBB5_1
.LBB5_1:
.Ltmp142:
	.loc	10 195 5 is_stmt 0              @ lvgl/src/lv_widgets/lv_win.c:195:5
	ldr	r0, [sp, #12]
	bl	lv_debug_check_null
.Ltmp143:
	.loc	10 195 5                        @ lvgl/src/lv_widgets/lv_win.c:195:5
	cbnz	r0, .LBB5_4
	b	.LBB5_2
.LBB5_2:
.Ltmp144:
	.loc	10 195 5                        @ lvgl/src/lv_widgets/lv_win.c:195:5
	ldr	r2, [sp, #12]
	movw	r0, :lower16:.L.str.2
	movt	r0, :upper16:.L.str.2
	movs	r3, #0
	bl	lv_debug_log_error
	b	.LBB5_3
.LBB5_3:                                @ =>This Inner Loop Header: Depth=1
	b	.LBB5_3
.Ltmp145:
.LBB5_4:
	.loc	10 195 5                        @ lvgl/src/lv_widgets/lv_win.c:195:5
	b	.LBB5_5
.Ltmp146:
.LBB5_5:
	.loc	10 196 5 is_stmt 1              @ lvgl/src/lv_widgets/lv_win.c:196:5
	b	.LBB5_6
.LBB5_6:
.Ltmp147:
	.loc	10 196 5 is_stmt 0              @ lvgl/src/lv_widgets/lv_win.c:196:5
	ldr	r0, [sp, #8]
	bl	lv_debug_check_null
.Ltmp148:
	.loc	10 196 5                        @ lvgl/src/lv_widgets/lv_win.c:196:5
	cbnz	r0, .LBB5_9
	b	.LBB5_7
.LBB5_7:
.Ltmp149:
	.loc	10 196 5                        @ lvgl/src/lv_widgets/lv_win.c:196:5
	ldr	r2, [sp, #8]
	movw	r0, :lower16:.L.str.2
	movt	r0, :upper16:.L.str.2
	movs	r3, #0
	bl	lv_debug_log_error
	b	.LBB5_8
.LBB5_8:                                @ =>This Inner Loop Header: Depth=1
	b	.LBB5_8
.Ltmp150:
.LBB5_9:
	.loc	10 196 5                        @ lvgl/src/lv_widgets/lv_win.c:196:5
	b	.LBB5_10
.Ltmp151:
.LBB5_10:
	.loc	10 198 46 is_stmt 1             @ lvgl/src/lv_widgets/lv_win.c:198:46
	ldr	r0, [sp, #12]
	.loc	10 198 26 is_stmt 0             @ lvgl/src/lv_widgets/lv_win.c:198:26
	bl	lv_obj_get_ext_attr
	.loc	10 198 20                       @ lvgl/src/lv_widgets/lv_win.c:198:20
	str	r0, [sp, #4]
	.loc	10 200 40 is_stmt 1             @ lvgl/src/lv_widgets/lv_win.c:200:40
	ldr	r0, [sp, #4]
	.loc	10 200 45 is_stmt 0             @ lvgl/src/lv_widgets/lv_win.c:200:45
	ldr	r0, [r0, #4]
	.loc	10 200 53                       @ lvgl/src/lv_widgets/lv_win.c:200:53
	ldr	r1, [sp, #8]
	.loc	10 200 22                       @ lvgl/src/lv_widgets/lv_win.c:200:22
	bl	lv_win_btn_create
	.loc	10 200 16                       @ lvgl/src/lv_widgets/lv_win.c:200:16
	str	r0, [sp]
	.loc	10 201 30 is_stmt 1             @ lvgl/src/lv_widgets/lv_win.c:201:30
	ldr	r0, [sp]
	movs	r1, #0
	.loc	10 201 5 is_stmt 0              @ lvgl/src/lv_widgets/lv_win.c:201:5
	bl	lv_win_btn_set_alignment
	.loc	10 203 20 is_stmt 1             @ lvgl/src/lv_widgets/lv_win.c:203:20
	ldr	r0, [sp, #12]
	.loc	10 203 5 is_stmt 0              @ lvgl/src/lv_widgets/lv_win.c:203:5
	bl	lv_win_realign
	.loc	10 205 12 is_stmt 1             @ lvgl/src/lv_widgets/lv_win.c:205:12
	ldr	r0, [sp]
	.loc	10 205 5 is_stmt 0              @ lvgl/src/lv_widgets/lv_win.c:205:5
	add	sp, #16
	pop	{r7, pc}
.Ltmp152:
.Lfunc_end5:
	.size	lv_win_add_btn_right, .Lfunc_end5-lv_win_add_btn_right
	.cfi_endproc
	.cantunwind
	.fnend
                                        @ -- End function
	.section	.text.lv_win_btn_create,"ax",%progbits
	.p2align	3                               @ -- Begin function lv_win_btn_create
	.type	lv_win_btn_create,%function
	.code	16                              @ @lv_win_btn_create
	.thumb_func
lv_win_btn_create:
.Lfunc_begin6:
	.loc	10 806 0 is_stmt 1              @ lvgl/src/lv_widgets/lv_win.c:806:0
	.fnstart
	.cfi_startproc
@ %bb.0:
	.save	{r7, lr}
	push	{r7, lr}
	.cfi_def_cfa_offset 8
	.cfi_offset lr, -4
	.cfi_offset r7, -8
	.pad	#32
	sub	sp, #32
	.cfi_def_cfa_offset 40
	str	r0, [sp, #24]
	str	r1, [sp, #20]
.Ltmp153:
	.loc	10 811 29 prologue_end          @ lvgl/src/lv_widgets/lv_win.c:811:29
	ldr	r0, [sp, #24]
	movs	r1, #0
	.loc	10 811 15 is_stmt 0             @ lvgl/src/lv_widgets/lv_win.c:811:15
	bl	lv_btn_create
	.loc	10 811 13                       @ lvgl/src/lv_widgets/lv_win.c:811:13
	str	r0, [sp, #16]
	.loc	10 812 5 is_stmt 1              @ lvgl/src/lv_widgets/lv_win.c:812:5
	b	.LBB6_1
.LBB6_1:
.Ltmp154:
	.loc	10 812 5 is_stmt 0              @ lvgl/src/lv_widgets/lv_win.c:812:5
	ldr	r0, [sp, #16]
	bl	lv_debug_check_null
.Ltmp155:
	.loc	10 812 5                        @ lvgl/src/lv_widgets/lv_win.c:812:5
	cbnz	r0, .LBB6_4
	b	.LBB6_2
.LBB6_2:
.Ltmp156:
	.loc	10 812 5                        @ lvgl/src/lv_widgets/lv_win.c:812:5
	ldr	r2, [sp, #16]
	movw	r0, :lower16:.L.str
	movt	r0, :upper16:.L.str
	movs	r3, #0
	bl	lv_debug_log_error
	b	.LBB6_3
.LBB6_3:                                @ =>This Inner Loop Header: Depth=1
	b	.LBB6_3
.Ltmp157:
.LBB6_4:
	.loc	10 812 5                        @ lvgl/src/lv_widgets/lv_win.c:812:5
	b	.LBB6_5
.Ltmp158:
.LBB6_5:
	.loc	10 813 8 is_stmt 1              @ lvgl/src/lv_widgets/lv_win.c:813:8
	ldr	r0, [sp, #16]
.Ltmp159:
	.loc	10 813 8 is_stmt 0              @ lvgl/src/lv_widgets/lv_win.c:813:8
	cbnz	r0, .LBB6_7
	b	.LBB6_6
.LBB6_6:
	.loc	10 0 8                          @ lvgl/src/lv_widgets/lv_win.c:0:8
	movs	r0, #0
.Ltmp160:
	.loc	10 813 25                       @ lvgl/src/lv_widgets/lv_win.c:813:25
	str	r0, [sp, #28]
	b	.LBB6_15
.Ltmp161:
.LBB6_7:
	.loc	10 816 55 is_stmt 1             @ lvgl/src/lv_widgets/lv_win.c:816:55
	ldr	r0, [sp, #16]
	movs	r1, #4
	.loc	10 816 30 is_stmt 0             @ lvgl/src/lv_widgets/lv_win.c:816:30
	bl	lv_obj_allocate_ext_attr
	.loc	10 816 24                       @ lvgl/src/lv_widgets/lv_win.c:816:24
	str	r0, [sp, #12]
	.loc	10 817 5 is_stmt 1              @ lvgl/src/lv_widgets/lv_win.c:817:5
	b	.LBB6_8
.LBB6_8:
.Ltmp162:
	.loc	10 817 5 is_stmt 0              @ lvgl/src/lv_widgets/lv_win.c:817:5
	ldr	r0, [sp, #12]
	bl	lv_debug_check_null
.Ltmp163:
	.loc	10 817 5                        @ lvgl/src/lv_widgets/lv_win.c:817:5
	cbnz	r0, .LBB6_11
	b	.LBB6_9
.LBB6_9:
.Ltmp164:
	.loc	10 817 5                        @ lvgl/src/lv_widgets/lv_win.c:817:5
	ldr	r2, [sp, #12]
	movw	r0, :lower16:.L.str
	movt	r0, :upper16:.L.str
	movs	r3, #0
	bl	lv_debug_log_error
	b	.LBB6_10
.LBB6_10:                               @ =>This Inner Loop Header: Depth=1
	b	.LBB6_10
.Ltmp165:
.LBB6_11:
	.loc	10 817 5                        @ lvgl/src/lv_widgets/lv_win.c:817:5
	b	.LBB6_12
.Ltmp166:
.LBB6_12:
	.loc	10 818 8 is_stmt 1              @ lvgl/src/lv_widgets/lv_win.c:818:8
	ldr	r0, [sp, #12]
.Ltmp167:
	.loc	10 818 8 is_stmt 0              @ lvgl/src/lv_widgets/lv_win.c:818:8
	cbnz	r0, .LBB6_14
	b	.LBB6_13
.LBB6_13:
.Ltmp168:
	.loc	10 819 20 is_stmt 1             @ lvgl/src/lv_widgets/lv_win.c:819:20
	ldr	r0, [sp, #16]
	.loc	10 819 9 is_stmt 0              @ lvgl/src/lv_widgets/lv_win.c:819:9
	bl	lv_obj_del
	movs	r0, #0
	.loc	10 820 9 is_stmt 1              @ lvgl/src/lv_widgets/lv_win.c:820:9
	str	r0, [sp, #28]
	b	.LBB6_15
.Ltmp169:
.LBB6_14:
	.loc	10 823 5                        @ lvgl/src/lv_widgets/lv_win.c:823:5
	ldr	r1, [sp, #12]
	.loc	10 823 30 is_stmt 0             @ lvgl/src/lv_widgets/lv_win.c:823:30
	ldrb	r0, [r1, #3]
	and	r0, r0, #254
	strb	r0, [r1, #3]
	.loc	10 825 22 is_stmt 1             @ lvgl/src/lv_widgets/lv_win.c:825:22
	ldr	r0, [sp, #16]
	movs	r1, #1
	.loc	10 825 5 is_stmt 0              @ lvgl/src/lv_widgets/lv_win.c:825:5
	bl	lv_obj_set_click
	.loc	10 826 30 is_stmt 1             @ lvgl/src/lv_widgets/lv_win.c:826:30
	ldr	r0, [sp, #16]
	movs	r1, #0
	.loc	10 826 5 is_stmt 0              @ lvgl/src/lv_widgets/lv_win.c:826:5
	str	r1, [sp]                        @ 4-byte Spill
	bl	lv_win_btn_set_alignment
	.loc	10 828 20 is_stmt 1             @ lvgl/src/lv_widgets/lv_win.c:828:20
	ldr	r0, [sp, #16]
	movs	r1, #40
	.loc	10 828 5 is_stmt 0              @ lvgl/src/lv_widgets/lv_win.c:828:5
	bl	lv_theme_apply
	.loc	10 829 49 is_stmt 1             @ lvgl/src/lv_widgets/lv_win.c:829:49
	ldr	r0, [sp, #24]
	.loc	10 829 27 is_stmt 0             @ lvgl/src/lv_widgets/lv_win.c:829:27
	bl	lv_obj_get_height_fit
	.loc	10 829 16                       @ lvgl/src/lv_widgets/lv_win.c:829:16
	strh.w	r0, [sp, #10]
	.loc	10 830 21 is_stmt 1             @ lvgl/src/lv_widgets/lv_win.c:830:21
	ldr	r0, [sp, #16]
	.loc	10 830 30 is_stmt 0             @ lvgl/src/lv_widgets/lv_win.c:830:30
	ldrsh.w	r2, [sp, #10]
	.loc	10 830 5                        @ lvgl/src/lv_widgets/lv_win.c:830:5
	mov	r1, r2
	bl	lv_obj_set_size
	ldr	r1, [sp]                        @ 4-byte Reload
	.loc	10 832 36 is_stmt 1             @ lvgl/src/lv_widgets/lv_win.c:832:36
	ldr	r0, [sp, #16]
	.loc	10 832 22 is_stmt 0             @ lvgl/src/lv_widgets/lv_win.c:832:22
	bl	lv_img_create
	ldr	r1, [sp]                        @ 4-byte Reload
	.loc	10 832 16                       @ lvgl/src/lv_widgets/lv_win.c:832:16
	str	r0, [sp, #4]
	.loc	10 833 22 is_stmt 1             @ lvgl/src/lv_widgets/lv_win.c:833:22
	ldr	r0, [sp, #4]
	.loc	10 833 5 is_stmt 0              @ lvgl/src/lv_widgets/lv_win.c:833:5
	bl	lv_obj_set_click
	.loc	10 834 20 is_stmt 1             @ lvgl/src/lv_widgets/lv_win.c:834:20
	ldr	r0, [sp, #4]
	.loc	10 834 25 is_stmt 0             @ lvgl/src/lv_widgets/lv_win.c:834:25
	ldr	r1, [sp, #20]
	.loc	10 834 5                        @ lvgl/src/lv_widgets/lv_win.c:834:5
	bl	lv_img_set_src
	.loc	10 838 12 is_stmt 1             @ lvgl/src/lv_widgets/lv_win.c:838:12
	ldr	r0, [sp, #16]
	.loc	10 838 5 is_stmt 0              @ lvgl/src/lv_widgets/lv_win.c:838:5
	str	r0, [sp, #28]
	b	.LBB6_15
.LBB6_15:
	.loc	10 839 1 is_stmt 1              @ lvgl/src/lv_widgets/lv_win.c:839:1
	ldr	r0, [sp, #28]
	add	sp, #32
	pop	{r7, pc}
.Ltmp170:
.Lfunc_end6:
	.size	lv_win_btn_create, .Lfunc_end6-lv_win_btn_create
	.cfi_endproc
	.cantunwind
	.fnend
                                        @ -- End function
	.section	.text.lv_win_btn_set_alignment,"ax",%progbits
	.p2align	3                               @ -- Begin function lv_win_btn_set_alignment
	.type	lv_win_btn_set_alignment,%function
	.code	16                              @ @lv_win_btn_set_alignment
	.thumb_func
lv_win_btn_set_alignment:
.Lfunc_begin7:
	.loc	10 842 0                        @ lvgl/src/lv_widgets/lv_win.c:842:0
	.fnstart
	.cfi_startproc
@ %bb.0:
	.save	{r7, lr}
	push	{r7, lr}
	.cfi_def_cfa_offset 8
	.cfi_offset lr, -4
	.cfi_offset r7, -8
	.pad	#16
	sub	sp, #16
	.cfi_def_cfa_offset 24
                                        @ kill: def $r2 killed $r1
	str	r0, [sp, #12]
	strb.w	r1, [sp, #11]
.Ltmp171:
	.loc	10 843 50 prologue_end          @ lvgl/src/lv_widgets/lv_win.c:843:50
	ldr	r0, [sp, #12]
	.loc	10 843 30 is_stmt 0             @ lvgl/src/lv_widgets/lv_win.c:843:30
	bl	lv_obj_get_ext_attr
	.loc	10 843 24                       @ lvgl/src/lv_widgets/lv_win.c:843:24
	str	r0, [sp, #4]
	.loc	10 845 32 is_stmt 1             @ lvgl/src/lv_widgets/lv_win.c:845:32
	ldrb.w	r2, [sp, #11]
	.loc	10 845 5 is_stmt 0              @ lvgl/src/lv_widgets/lv_win.c:845:5
	ldr	r1, [sp, #4]
	.loc	10 845 30                       @ lvgl/src/lv_widgets/lv_win.c:845:30
	ldrb	r0, [r1, #3]
	and	r2, r2, #1
	and	r0, r0, #254
	add	r0, r2
	strb	r0, [r1, #3]
	.loc	10 846 1 is_stmt 1              @ lvgl/src/lv_widgets/lv_win.c:846:1
	add	sp, #16
	pop	{r7, pc}
.Ltmp172:
.Lfunc_end7:
	.size	lv_win_btn_set_alignment, .Lfunc_end7-lv_win_btn_set_alignment
	.cfi_endproc
	.cantunwind
	.fnend
                                        @ -- End function
	.section	.text.lv_win_add_btn_left,"ax",%progbits
	.hidden	lv_win_add_btn_left             @ -- Begin function lv_win_add_btn_left
	.globl	lv_win_add_btn_left
	.p2align	3
	.type	lv_win_add_btn_left,%function
	.code	16                              @ @lv_win_add_btn_left
	.thumb_func
lv_win_add_btn_left:
.Lfunc_begin8:
	.loc	10 215 0                        @ lvgl/src/lv_widgets/lv_win.c:215:0
	.fnstart
	.cfi_startproc
@ %bb.0:
	.save	{r7, lr}
	push	{r7, lr}
	.cfi_def_cfa_offset 8
	.cfi_offset lr, -4
	.cfi_offset r7, -8
	.pad	#16
	sub	sp, #16
	.cfi_def_cfa_offset 24
	str	r0, [sp, #12]
	str	r1, [sp, #8]
.Ltmp173:
	.loc	10 216 5 prologue_end           @ lvgl/src/lv_widgets/lv_win.c:216:5
	b	.LBB8_1
.LBB8_1:
.Ltmp174:
	.loc	10 216 5 is_stmt 0              @ lvgl/src/lv_widgets/lv_win.c:216:5
	ldr	r0, [sp, #12]
	bl	lv_debug_check_null
.Ltmp175:
	.loc	10 216 5                        @ lvgl/src/lv_widgets/lv_win.c:216:5
	cbnz	r0, .LBB8_4
	b	.LBB8_2
.LBB8_2:
.Ltmp176:
	.loc	10 216 5                        @ lvgl/src/lv_widgets/lv_win.c:216:5
	ldr	r2, [sp, #12]
	movw	r0, :lower16:.L.str.2
	movt	r0, :upper16:.L.str.2
	movs	r3, #0
	bl	lv_debug_log_error
	b	.LBB8_3
.LBB8_3:                                @ =>This Inner Loop Header: Depth=1
	b	.LBB8_3
.Ltmp177:
.LBB8_4:
	.loc	10 216 5                        @ lvgl/src/lv_widgets/lv_win.c:216:5
	b	.LBB8_5
.Ltmp178:
.LBB8_5:
	.loc	10 217 5 is_stmt 1              @ lvgl/src/lv_widgets/lv_win.c:217:5
	b	.LBB8_6
.LBB8_6:
.Ltmp179:
	.loc	10 217 5 is_stmt 0              @ lvgl/src/lv_widgets/lv_win.c:217:5
	ldr	r0, [sp, #8]
	bl	lv_debug_check_null
.Ltmp180:
	.loc	10 217 5                        @ lvgl/src/lv_widgets/lv_win.c:217:5
	cbnz	r0, .LBB8_9
	b	.LBB8_7
.LBB8_7:
.Ltmp181:
	.loc	10 217 5                        @ lvgl/src/lv_widgets/lv_win.c:217:5
	ldr	r2, [sp, #8]
	movw	r0, :lower16:.L.str.2
	movt	r0, :upper16:.L.str.2
	movs	r3, #0
	bl	lv_debug_log_error
	b	.LBB8_8
.LBB8_8:                                @ =>This Inner Loop Header: Depth=1
	b	.LBB8_8
.Ltmp182:
.LBB8_9:
	.loc	10 217 5                        @ lvgl/src/lv_widgets/lv_win.c:217:5
	b	.LBB8_10
.Ltmp183:
.LBB8_10:
	.loc	10 219 46 is_stmt 1             @ lvgl/src/lv_widgets/lv_win.c:219:46
	ldr	r0, [sp, #12]
	.loc	10 219 26 is_stmt 0             @ lvgl/src/lv_widgets/lv_win.c:219:26
	bl	lv_obj_get_ext_attr
	.loc	10 219 20                       @ lvgl/src/lv_widgets/lv_win.c:219:20
	str	r0, [sp, #4]
	.loc	10 221 40 is_stmt 1             @ lvgl/src/lv_widgets/lv_win.c:221:40
	ldr	r0, [sp, #4]
	.loc	10 221 45 is_stmt 0             @ lvgl/src/lv_widgets/lv_win.c:221:45
	ldr	r0, [r0, #4]
	.loc	10 221 53                       @ lvgl/src/lv_widgets/lv_win.c:221:53
	ldr	r1, [sp, #8]
	.loc	10 221 22                       @ lvgl/src/lv_widgets/lv_win.c:221:22
	bl	lv_win_btn_create
	.loc	10 221 16                       @ lvgl/src/lv_widgets/lv_win.c:221:16
	str	r0, [sp]
	.loc	10 222 30 is_stmt 1             @ lvgl/src/lv_widgets/lv_win.c:222:30
	ldr	r0, [sp]
	movs	r1, #1
	.loc	10 222 5 is_stmt 0              @ lvgl/src/lv_widgets/lv_win.c:222:5
	bl	lv_win_btn_set_alignment
	.loc	10 224 20 is_stmt 1             @ lvgl/src/lv_widgets/lv_win.c:224:20
	ldr	r0, [sp, #12]
	.loc	10 224 5 is_stmt 0              @ lvgl/src/lv_widgets/lv_win.c:224:5
	bl	lv_win_realign
	.loc	10 226 12 is_stmt 1             @ lvgl/src/lv_widgets/lv_win.c:226:12
	ldr	r0, [sp]
	.loc	10 226 5 is_stmt 0              @ lvgl/src/lv_widgets/lv_win.c:226:5
	add	sp, #16
	pop	{r7, pc}
.Ltmp184:
.Lfunc_end8:
	.size	lv_win_add_btn_left, .Lfunc_end8-lv_win_add_btn_left
	.cfi_endproc
	.cantunwind
	.fnend
                                        @ -- End function
	.section	.text.lv_win_close_event_cb,"ax",%progbits
	.hidden	lv_win_close_event_cb           @ -- Begin function lv_win_close_event_cb
	.globl	lv_win_close_event_cb
	.p2align	3
	.type	lv_win_close_event_cb,%function
	.code	16                              @ @lv_win_close_event_cb
	.thumb_func
lv_win_close_event_cb:
.Lfunc_begin9:
	.loc	10 239 0 is_stmt 1              @ lvgl/src/lv_widgets/lv_win.c:239:0
	.fnstart
	.cfi_startproc
@ %bb.0:
	.save	{r7, lr}
	push	{r7, lr}
	.cfi_def_cfa_offset 8
	.cfi_offset lr, -4
	.cfi_offset r7, -8
	.pad	#16
	sub	sp, #16
	.cfi_def_cfa_offset 24
                                        @ kill: def $r2 killed $r1
	str	r0, [sp, #12]
	strb.w	r1, [sp, #11]
.Ltmp185:
	.loc	10 240 5 prologue_end           @ lvgl/src/lv_widgets/lv_win.c:240:5
	b	.LBB9_1
.LBB9_1:
.Ltmp186:
	.loc	10 240 5 is_stmt 0              @ lvgl/src/lv_widgets/lv_win.c:240:5
	ldr	r0, [sp, #12]
	bl	lv_debug_check_null
.Ltmp187:
	.loc	10 240 5                        @ lvgl/src/lv_widgets/lv_win.c:240:5
	cbnz	r0, .LBB9_4
	b	.LBB9_2
.LBB9_2:
.Ltmp188:
	.loc	10 240 5                        @ lvgl/src/lv_widgets/lv_win.c:240:5
	ldr	r2, [sp, #12]
	movw	r0, :lower16:.L.str.2
	movt	r0, :upper16:.L.str.2
	movs	r3, #0
	bl	lv_debug_log_error
	b	.LBB9_3
.LBB9_3:                                @ =>This Inner Loop Header: Depth=1
	b	.LBB9_3
.Ltmp189:
.LBB9_4:
	.loc	10 240 5                        @ lvgl/src/lv_widgets/lv_win.c:240:5
	b	.LBB9_5
.Ltmp190:
.LBB9_5:
	.loc	10 242 8 is_stmt 1              @ lvgl/src/lv_widgets/lv_win.c:242:8
	ldrb.w	r0, [sp, #11]
.Ltmp191:
	.loc	10 242 8 is_stmt 0              @ lvgl/src/lv_widgets/lv_win.c:242:8
	cmp	r0, #7
	bne	.LBB9_7
	b	.LBB9_6
.LBB9_6:
.Ltmp192:
	.loc	10 243 46 is_stmt 1             @ lvgl/src/lv_widgets/lv_win.c:243:46
	ldr	r0, [sp, #12]
	.loc	10 243 26 is_stmt 0             @ lvgl/src/lv_widgets/lv_win.c:243:26
	bl	lv_win_get_from_btn
	.loc	10 243 20                       @ lvgl/src/lv_widgets/lv_win.c:243:20
	str	r0, [sp, #4]
	.loc	10 245 20 is_stmt 1             @ lvgl/src/lv_widgets/lv_win.c:245:20
	ldr	r0, [sp, #4]
	.loc	10 245 9 is_stmt 0              @ lvgl/src/lv_widgets/lv_win.c:245:9
	bl	lv_obj_del
	.loc	10 246 5 is_stmt 1              @ lvgl/src/lv_widgets/lv_win.c:246:5
	b	.LBB9_7
.Ltmp193:
.LBB9_7:
	.loc	10 247 1                        @ lvgl/src/lv_widgets/lv_win.c:247:1
	add	sp, #16
	pop	{r7, pc}
.Ltmp194:
.Lfunc_end9:
	.size	lv_win_close_event_cb, .Lfunc_end9-lv_win_close_event_cb
	.cfi_endproc
	.cantunwind
	.fnend
                                        @ -- End function
	.section	.text.lv_win_get_from_btn,"ax",%progbits
	.hidden	lv_win_get_from_btn             @ -- Begin function lv_win_get_from_btn
	.globl	lv_win_get_from_btn
	.p2align	3
	.type	lv_win_get_from_btn,%function
	.code	16                              @ @lv_win_get_from_btn
	.thumb_func
lv_win_get_from_btn:
.Lfunc_begin10:
	.loc	10 448 0                        @ lvgl/src/lv_widgets/lv_win.c:448:0
	.fnstart
	.cfi_startproc
@ %bb.0:
	.save	{r7, lr}
	push	{r7, lr}
	.cfi_def_cfa_offset 8
	.cfi_offset lr, -4
	.cfi_offset r7, -8
	.pad	#16
	sub	sp, #16
	.cfi_def_cfa_offset 24
	str	r0, [sp, #12]
.Ltmp195:
	.loc	10 449 5 prologue_end           @ lvgl/src/lv_widgets/lv_win.c:449:5
	b	.LBB10_1
.LBB10_1:
.Ltmp196:
	.loc	10 449 5 is_stmt 0              @ lvgl/src/lv_widgets/lv_win.c:449:5
	ldr	r0, [sp, #12]
	bl	lv_debug_check_null
.Ltmp197:
	.loc	10 449 5                        @ lvgl/src/lv_widgets/lv_win.c:449:5
	cbnz	r0, .LBB10_4
	b	.LBB10_2
.LBB10_2:
.Ltmp198:
	.loc	10 449 5                        @ lvgl/src/lv_widgets/lv_win.c:449:5
	ldr	r2, [sp, #12]
	movw	r0, :lower16:.L.str.2
	movt	r0, :upper16:.L.str.2
	movs	r3, #0
	bl	lv_debug_log_error
	b	.LBB10_3
.LBB10_3:                               @ =>This Inner Loop Header: Depth=1
	b	.LBB10_3
.Ltmp199:
.LBB10_4:
	.loc	10 449 5                        @ lvgl/src/lv_widgets/lv_win.c:449:5
	b	.LBB10_5
.Ltmp200:
.LBB10_5:
	.loc	10 451 43 is_stmt 1             @ lvgl/src/lv_widgets/lv_win.c:451:43
	ldr	r0, [sp, #12]
	.loc	10 451 25 is_stmt 0             @ lvgl/src/lv_widgets/lv_win.c:451:25
	bl	lv_obj_get_parent
	.loc	10 451 16                       @ lvgl/src/lv_widgets/lv_win.c:451:16
	str	r0, [sp, #8]
	.loc	10 452 43 is_stmt 1             @ lvgl/src/lv_widgets/lv_win.c:452:43
	ldr	r0, [sp, #8]
	.loc	10 452 25 is_stmt 0             @ lvgl/src/lv_widgets/lv_win.c:452:25
	bl	lv_obj_get_parent
	.loc	10 452 16                       @ lvgl/src/lv_widgets/lv_win.c:452:16
	str	r0, [sp, #4]
	.loc	10 454 12 is_stmt 1             @ lvgl/src/lv_widgets/lv_win.c:454:12
	ldr	r0, [sp, #4]
	.loc	10 454 5 is_stmt 0              @ lvgl/src/lv_widgets/lv_win.c:454:5
	add	sp, #16
	pop	{r7, pc}
.Ltmp201:
.Lfunc_end10:
	.size	lv_win_get_from_btn, .Lfunc_end10-lv_win_get_from_btn
	.cfi_endproc
	.cantunwind
	.fnend
                                        @ -- End function
	.section	.text.lv_win_set_title,"ax",%progbits
	.hidden	lv_win_set_title                @ -- Begin function lv_win_set_title
	.globl	lv_win_set_title
	.p2align	3
	.type	lv_win_set_title,%function
	.code	16                              @ @lv_win_set_title
	.thumb_func
lv_win_set_title:
.Lfunc_begin11:
	.loc	10 255 0 is_stmt 1              @ lvgl/src/lv_widgets/lv_win.c:255:0
	.fnstart
	.cfi_startproc
@ %bb.0:
	.save	{r7, lr}
	push	{r7, lr}
	.cfi_def_cfa_offset 8
	.cfi_offset lr, -4
	.cfi_offset r7, -8
	.pad	#16
	sub	sp, #16
	.cfi_def_cfa_offset 24
	str	r0, [sp, #12]
	str	r1, [sp, #8]
.Ltmp202:
	.loc	10 256 5 prologue_end           @ lvgl/src/lv_widgets/lv_win.c:256:5
	b	.LBB11_1
.LBB11_1:
.Ltmp203:
	.loc	10 256 5 is_stmt 0              @ lvgl/src/lv_widgets/lv_win.c:256:5
	ldr	r0, [sp, #12]
	bl	lv_debug_check_null
.Ltmp204:
	.loc	10 256 5                        @ lvgl/src/lv_widgets/lv_win.c:256:5
	cbnz	r0, .LBB11_4
	b	.LBB11_2
.LBB11_2:
.Ltmp205:
	.loc	10 256 5                        @ lvgl/src/lv_widgets/lv_win.c:256:5
	ldr	r2, [sp, #12]
	movw	r0, :lower16:.L.str.2
	movt	r0, :upper16:.L.str.2
	movs	r3, #0
	bl	lv_debug_log_error
	b	.LBB11_3
.LBB11_3:                               @ =>This Inner Loop Header: Depth=1
	b	.LBB11_3
.Ltmp206:
.LBB11_4:
	.loc	10 256 5                        @ lvgl/src/lv_widgets/lv_win.c:256:5
	b	.LBB11_5
.Ltmp207:
.LBB11_5:
	.loc	10 257 5 is_stmt 1              @ lvgl/src/lv_widgets/lv_win.c:257:5
	b	.LBB11_6
.LBB11_6:
.Ltmp208:
	.loc	10 257 5 is_stmt 0              @ lvgl/src/lv_widgets/lv_win.c:257:5
	ldr	r0, [sp, #8]
	bl	lv_debug_check_null
.Ltmp209:
	.loc	10 257 5                        @ lvgl/src/lv_widgets/lv_win.c:257:5
	cbnz	r0, .LBB11_9
	b	.LBB11_7
.LBB11_7:
.Ltmp210:
	.loc	10 257 5                        @ lvgl/src/lv_widgets/lv_win.c:257:5
	ldr	r2, [sp, #8]
	movw	r0, :lower16:.L.str.2
	movt	r0, :upper16:.L.str.2
	movs	r3, #0
	bl	lv_debug_log_error
	b	.LBB11_8
.LBB11_8:                               @ =>This Inner Loop Header: Depth=1
	b	.LBB11_8
.Ltmp211:
.LBB11_9:
	.loc	10 257 5                        @ lvgl/src/lv_widgets/lv_win.c:257:5
	b	.LBB11_10
.Ltmp212:
.LBB11_10:
	.loc	10 259 46 is_stmt 1             @ lvgl/src/lv_widgets/lv_win.c:259:46
	ldr	r0, [sp, #12]
	.loc	10 259 26 is_stmt 0             @ lvgl/src/lv_widgets/lv_win.c:259:26
	bl	lv_obj_get_ext_attr
	.loc	10 259 20                       @ lvgl/src/lv_widgets/lv_win.c:259:20
	str	r0, [sp, #4]
	.loc	10 262 25 is_stmt 1             @ lvgl/src/lv_widgets/lv_win.c:262:25
	ldr	r0, [sp, #8]
	.loc	10 262 18 is_stmt 0             @ lvgl/src/lv_widgets/lv_win.c:262:18
	bl	strlen
	.loc	10 262 32                       @ lvgl/src/lv_widgets/lv_win.c:262:32
	adds	r0, #1
	.loc	10 262 12                       @ lvgl/src/lv_widgets/lv_win.c:262:12
	str	r0, [sp]
	.loc	10 267 40 is_stmt 1             @ lvgl/src/lv_widgets/lv_win.c:267:40
	ldr	r0, [sp, #4]
	.loc	10 267 45 is_stmt 0             @ lvgl/src/lv_widgets/lv_win.c:267:45
	ldr	r0, [r0, #8]
	.loc	10 267 56                       @ lvgl/src/lv_widgets/lv_win.c:267:56
	ldr	r1, [sp]
	.loc	10 267 60                       @ lvgl/src/lv_widgets/lv_win.c:267:60
	adds	r1, #1
	.loc	10 267 25                       @ lvgl/src/lv_widgets/lv_win.c:267:25
	bl	lv_mem_realloc
	.loc	10 267 5                        @ lvgl/src/lv_widgets/lv_win.c:267:5
	ldr	r1, [sp, #4]
	.loc	10 267 23                       @ lvgl/src/lv_widgets/lv_win.c:267:23
	str	r0, [r1, #8]
	.loc	10 268 5 is_stmt 1              @ lvgl/src/lv_widgets/lv_win.c:268:5
	b	.LBB11_11
.LBB11_11:
.Ltmp213:
	.loc	10 268 5 is_stmt 0              @ lvgl/src/lv_widgets/lv_win.c:268:5
	ldr	r0, [sp, #4]
	ldr	r0, [r0, #8]
	bl	lv_debug_check_null
.Ltmp214:
	.loc	10 268 5                        @ lvgl/src/lv_widgets/lv_win.c:268:5
	cbnz	r0, .LBB11_14
	b	.LBB11_12
.LBB11_12:
.Ltmp215:
	.loc	10 268 5                        @ lvgl/src/lv_widgets/lv_win.c:268:5
	ldr	r0, [sp, #4]
	ldr	r2, [r0, #8]
	movw	r0, :lower16:.L.str
	movt	r0, :upper16:.L.str
	movs	r3, #0
	bl	lv_debug_log_error
	b	.LBB11_13
.LBB11_13:                              @ =>This Inner Loop Header: Depth=1
	b	.LBB11_13
.Ltmp216:
.LBB11_14:
	.loc	10 268 5                        @ lvgl/src/lv_widgets/lv_win.c:268:5
	b	.LBB11_15
.Ltmp217:
.LBB11_15:
	.loc	10 269 8 is_stmt 1              @ lvgl/src/lv_widgets/lv_win.c:269:8
	ldr	r0, [sp, #4]
	.loc	10 269 13 is_stmt 0             @ lvgl/src/lv_widgets/lv_win.c:269:13
	ldr	r0, [r0, #8]
.Ltmp218:
	.loc	10 269 8                        @ lvgl/src/lv_widgets/lv_win.c:269:8
	cbnz	r0, .LBB11_17
	b	.LBB11_16
.LBB11_16:
.Ltmp219:
	.loc	10 269 32                       @ lvgl/src/lv_widgets/lv_win.c:269:32
	b	.LBB11_18
.Ltmp220:
.LBB11_17:
	.loc	10 271 12 is_stmt 1             @ lvgl/src/lv_widgets/lv_win.c:271:12
	ldr	r0, [sp, #4]
	.loc	10 271 17 is_stmt 0             @ lvgl/src/lv_widgets/lv_win.c:271:17
	ldr	r0, [r0, #8]
	.loc	10 271 28                       @ lvgl/src/lv_widgets/lv_win.c:271:28
	ldr	r1, [sp, #8]
	.loc	10 271 5                        @ lvgl/src/lv_widgets/lv_win.c:271:5
	bl	strcpy
	.loc	10 275 23 is_stmt 1             @ lvgl/src/lv_widgets/lv_win.c:275:23
	ldr	r0, [sp, #4]
	.loc	10 275 28 is_stmt 0             @ lvgl/src/lv_widgets/lv_win.c:275:28
	ldr	r0, [r0, #4]
	.loc	10 275 5                        @ lvgl/src/lv_widgets/lv_win.c:275:5
	bl	lv_obj_invalidate
	.loc	10 276 1 is_stmt 1              @ lvgl/src/lv_widgets/lv_win.c:276:1
	b	.LBB11_18
.LBB11_18:
	add	sp, #16
	pop	{r7, pc}
.Ltmp221:
.Lfunc_end11:
	.size	lv_win_set_title, .Lfunc_end11-lv_win_set_title
	.cfi_endproc
	.cantunwind
	.fnend
                                        @ -- End function
	.section	.text.lv_win_set_header_height,"ax",%progbits
	.hidden	lv_win_set_header_height        @ -- Begin function lv_win_set_header_height
	.globl	lv_win_set_header_height
	.p2align	3
	.type	lv_win_set_header_height,%function
	.code	16                              @ @lv_win_set_header_height
	.thumb_func
lv_win_set_header_height:
.Lfunc_begin12:
	.loc	10 284 0                        @ lvgl/src/lv_widgets/lv_win.c:284:0
	.fnstart
	.cfi_startproc
@ %bb.0:
	.save	{r7, lr}
	push	{r7, lr}
	.cfi_def_cfa_offset 8
	.cfi_offset lr, -4
	.cfi_offset r7, -8
	.pad	#16
	sub	sp, #16
	.cfi_def_cfa_offset 24
                                        @ kill: def $r2 killed $r1
	str	r0, [sp, #12]
	strh.w	r1, [sp, #10]
.Ltmp222:
	.loc	10 285 5 prologue_end           @ lvgl/src/lv_widgets/lv_win.c:285:5
	b	.LBB12_1
.LBB12_1:
.Ltmp223:
	.loc	10 285 5 is_stmt 0              @ lvgl/src/lv_widgets/lv_win.c:285:5
	ldr	r0, [sp, #12]
	bl	lv_debug_check_null
.Ltmp224:
	.loc	10 285 5                        @ lvgl/src/lv_widgets/lv_win.c:285:5
	cbnz	r0, .LBB12_4
	b	.LBB12_2
.LBB12_2:
.Ltmp225:
	.loc	10 285 5                        @ lvgl/src/lv_widgets/lv_win.c:285:5
	ldr	r2, [sp, #12]
	movw	r0, :lower16:.L.str.2
	movt	r0, :upper16:.L.str.2
	movs	r3, #0
	bl	lv_debug_log_error
	b	.LBB12_3
.LBB12_3:                               @ =>This Inner Loop Header: Depth=1
	b	.LBB12_3
.Ltmp226:
.LBB12_4:
	.loc	10 285 5                        @ lvgl/src/lv_widgets/lv_win.c:285:5
	b	.LBB12_5
.Ltmp227:
.LBB12_5:
	.loc	10 287 46 is_stmt 1             @ lvgl/src/lv_widgets/lv_win.c:287:46
	ldr	r0, [sp, #12]
	.loc	10 287 26 is_stmt 0             @ lvgl/src/lv_widgets/lv_win.c:287:26
	bl	lv_obj_get_ext_attr
	.loc	10 287 20                       @ lvgl/src/lv_widgets/lv_win.c:287:20
	str	r0, [sp, #4]
	.loc	10 289 23 is_stmt 1             @ lvgl/src/lv_widgets/lv_win.c:289:23
	ldr	r0, [sp, #4]
	.loc	10 289 28 is_stmt 0             @ lvgl/src/lv_widgets/lv_win.c:289:28
	ldr	r0, [r0, #4]
	.loc	10 289 36                       @ lvgl/src/lv_widgets/lv_win.c:289:36
	ldrsh.w	r1, [sp, #10]
	.loc	10 289 5                        @ lvgl/src/lv_widgets/lv_win.c:289:5
	bl	lv_obj_set_height
	.loc	10 290 20 is_stmt 1             @ lvgl/src/lv_widgets/lv_win.c:290:20
	ldr	r0, [sp, #12]
	.loc	10 290 5 is_stmt 0              @ lvgl/src/lv_widgets/lv_win.c:290:5
	bl	lv_win_realign
	.loc	10 291 1 is_stmt 1              @ lvgl/src/lv_widgets/lv_win.c:291:1
	add	sp, #16
	pop	{r7, pc}
.Ltmp228:
.Lfunc_end12:
	.size	lv_win_set_header_height, .Lfunc_end12-lv_win_set_header_height
	.cfi_endproc
	.cantunwind
	.fnend
                                        @ -- End function
	.section	.text.lv_win_set_btn_width,"ax",%progbits
	.hidden	lv_win_set_btn_width            @ -- Begin function lv_win_set_btn_width
	.globl	lv_win_set_btn_width
	.p2align	3
	.type	lv_win_set_btn_width,%function
	.code	16                              @ @lv_win_set_btn_width
	.thumb_func
lv_win_set_btn_width:
.Lfunc_begin13:
	.loc	10 299 0                        @ lvgl/src/lv_widgets/lv_win.c:299:0
	.fnstart
	.cfi_startproc
@ %bb.0:
	.save	{r7, lr}
	push	{r7, lr}
	.cfi_def_cfa_offset 8
	.cfi_offset lr, -4
	.cfi_offset r7, -8
	.pad	#16
	sub	sp, #16
	.cfi_def_cfa_offset 24
                                        @ kill: def $r2 killed $r1
	str	r0, [sp, #12]
	strh.w	r1, [sp, #10]
.Ltmp229:
	.loc	10 300 5 prologue_end           @ lvgl/src/lv_widgets/lv_win.c:300:5
	b	.LBB13_1
.LBB13_1:
.Ltmp230:
	.loc	10 300 5 is_stmt 0              @ lvgl/src/lv_widgets/lv_win.c:300:5
	ldr	r0, [sp, #12]
	bl	lv_debug_check_null
.Ltmp231:
	.loc	10 300 5                        @ lvgl/src/lv_widgets/lv_win.c:300:5
	cbnz	r0, .LBB13_4
	b	.LBB13_2
.LBB13_2:
.Ltmp232:
	.loc	10 300 5                        @ lvgl/src/lv_widgets/lv_win.c:300:5
	ldr	r2, [sp, #12]
	movw	r0, :lower16:.L.str.2
	movt	r0, :upper16:.L.str.2
	movs	r3, #0
	bl	lv_debug_log_error
	b	.LBB13_3
.LBB13_3:                               @ =>This Inner Loop Header: Depth=1
	b	.LBB13_3
.Ltmp233:
.LBB13_4:
	.loc	10 300 5                        @ lvgl/src/lv_widgets/lv_win.c:300:5
	b	.LBB13_5
.Ltmp234:
.LBB13_5:
	.loc	10 302 46 is_stmt 1             @ lvgl/src/lv_widgets/lv_win.c:302:46
	ldr	r0, [sp, #12]
	.loc	10 302 26 is_stmt 0             @ lvgl/src/lv_widgets/lv_win.c:302:26
	bl	lv_obj_get_ext_attr
	.loc	10 302 20                       @ lvgl/src/lv_widgets/lv_win.c:302:20
	str	r0, [sp, #4]
	.loc	10 303 18 is_stmt 1             @ lvgl/src/lv_widgets/lv_win.c:303:18
	ldrh.w	r0, [sp, #10]
	.loc	10 303 5 is_stmt 0              @ lvgl/src/lv_widgets/lv_win.c:303:5
	ldr	r1, [sp, #4]
	.loc	10 303 16                       @ lvgl/src/lv_widgets/lv_win.c:303:16
	strh	r0, [r1, #12]
	.loc	10 304 20 is_stmt 1             @ lvgl/src/lv_widgets/lv_win.c:304:20
	ldr	r0, [sp, #12]
	.loc	10 304 5 is_stmt 0              @ lvgl/src/lv_widgets/lv_win.c:304:5
	bl	lv_win_realign
	.loc	10 305 1 is_stmt 1              @ lvgl/src/lv_widgets/lv_win.c:305:1
	add	sp, #16
	pop	{r7, pc}
.Ltmp235:
.Lfunc_end13:
	.size	lv_win_set_btn_width, .Lfunc_end13-lv_win_set_btn_width
	.cfi_endproc
	.cantunwind
	.fnend
                                        @ -- End function
	.section	.text.lv_win_set_content_size,"ax",%progbits
	.hidden	lv_win_set_content_size         @ -- Begin function lv_win_set_content_size
	.globl	lv_win_set_content_size
	.p2align	3
	.type	lv_win_set_content_size,%function
	.code	16                              @ @lv_win_set_content_size
	.thumb_func
lv_win_set_content_size:
.Lfunc_begin14:
	.loc	10 315 0                        @ lvgl/src/lv_widgets/lv_win.c:315:0
	.fnstart
	.cfi_startproc
@ %bb.0:
	.save	{r7, lr}
	push	{r7, lr}
	.cfi_def_cfa_offset 8
	.cfi_offset lr, -4
	.cfi_offset r7, -8
	.pad	#16
	sub	sp, #16
	.cfi_def_cfa_offset 24
                                        @ kill: def $r3 killed $r2
                                        @ kill: def $r3 killed $r1
	str	r0, [sp, #12]
	strh.w	r1, [sp, #10]
	strh.w	r2, [sp, #8]
.Ltmp236:
	.loc	10 316 5 prologue_end           @ lvgl/src/lv_widgets/lv_win.c:316:5
	b	.LBB14_1
.LBB14_1:
.Ltmp237:
	.loc	10 316 5 is_stmt 0              @ lvgl/src/lv_widgets/lv_win.c:316:5
	ldr	r0, [sp, #12]
	bl	lv_debug_check_null
.Ltmp238:
	.loc	10 316 5                        @ lvgl/src/lv_widgets/lv_win.c:316:5
	cbnz	r0, .LBB14_4
	b	.LBB14_2
.LBB14_2:
.Ltmp239:
	.loc	10 316 5                        @ lvgl/src/lv_widgets/lv_win.c:316:5
	ldr	r2, [sp, #12]
	movw	r0, :lower16:.L.str.2
	movt	r0, :upper16:.L.str.2
	movs	r3, #0
	bl	lv_debug_log_error
	b	.LBB14_3
.LBB14_3:                               @ =>This Inner Loop Header: Depth=1
	b	.LBB14_3
.Ltmp240:
.LBB14_4:
	.loc	10 316 5                        @ lvgl/src/lv_widgets/lv_win.c:316:5
	b	.LBB14_5
.Ltmp241:
.LBB14_5:
	.loc	10 318 46 is_stmt 1             @ lvgl/src/lv_widgets/lv_win.c:318:46
	ldr	r0, [sp, #12]
	.loc	10 318 26 is_stmt 0             @ lvgl/src/lv_widgets/lv_win.c:318:26
	bl	lv_obj_get_ext_attr
	.loc	10 318 20                       @ lvgl/src/lv_widgets/lv_win.c:318:20
	str	r0, [sp, #4]
	.loc	10 319 28 is_stmt 1             @ lvgl/src/lv_widgets/lv_win.c:319:28
	ldr	r0, [sp, #4]
	.loc	10 319 33 is_stmt 0             @ lvgl/src/lv_widgets/lv_win.c:319:33
	ldr	r0, [r0, #4]
	.loc	10 319 10                       @ lvgl/src/lv_widgets/lv_win.c:319:10
	bl	lv_obj_get_height
	mov	r1, r0
	.loc	10 319 7                        @ lvgl/src/lv_widgets/lv_win.c:319:7
	ldrh.w	r0, [sp, #8]
	add	r0, r1
	strh.w	r0, [sp, #8]
	.loc	10 321 21 is_stmt 1             @ lvgl/src/lv_widgets/lv_win.c:321:21
	ldr	r0, [sp, #12]
	.loc	10 321 26 is_stmt 0             @ lvgl/src/lv_widgets/lv_win.c:321:26
	ldrsh.w	r1, [sp, #10]
	.loc	10 321 29                       @ lvgl/src/lv_widgets/lv_win.c:321:29
	ldrsh.w	r2, [sp, #8]
	.loc	10 321 5                        @ lvgl/src/lv_widgets/lv_win.c:321:5
	bl	lv_obj_set_size
	.loc	10 322 1 is_stmt 1              @ lvgl/src/lv_widgets/lv_win.c:322:1
	add	sp, #16
	pop	{r7, pc}
.Ltmp242:
.Lfunc_end14:
	.size	lv_win_set_content_size, .Lfunc_end14-lv_win_set_content_size
	.cfi_endproc
	.cantunwind
	.fnend
                                        @ -- End function
	.section	.text.lv_win_set_layout,"ax",%progbits
	.hidden	lv_win_set_layout               @ -- Begin function lv_win_set_layout
	.globl	lv_win_set_layout
	.p2align	3
	.type	lv_win_set_layout,%function
	.code	16                              @ @lv_win_set_layout
	.thumb_func
lv_win_set_layout:
.Lfunc_begin15:
	.loc	10 330 0                        @ lvgl/src/lv_widgets/lv_win.c:330:0
	.fnstart
	.cfi_startproc
@ %bb.0:
	.save	{r7, lr}
	push	{r7, lr}
	.cfi_def_cfa_offset 8
	.cfi_offset lr, -4
	.cfi_offset r7, -8
	.pad	#16
	sub	sp, #16
	.cfi_def_cfa_offset 24
                                        @ kill: def $r2 killed $r1
	str	r0, [sp, #12]
	strb.w	r1, [sp, #11]
.Ltmp243:
	.loc	10 331 5 prologue_end           @ lvgl/src/lv_widgets/lv_win.c:331:5
	b	.LBB15_1
.LBB15_1:
.Ltmp244:
	.loc	10 331 5 is_stmt 0              @ lvgl/src/lv_widgets/lv_win.c:331:5
	ldr	r0, [sp, #12]
	bl	lv_debug_check_null
.Ltmp245:
	.loc	10 331 5                        @ lvgl/src/lv_widgets/lv_win.c:331:5
	cbnz	r0, .LBB15_4
	b	.LBB15_2
.LBB15_2:
.Ltmp246:
	.loc	10 331 5                        @ lvgl/src/lv_widgets/lv_win.c:331:5
	ldr	r2, [sp, #12]
	movw	r0, :lower16:.L.str.2
	movt	r0, :upper16:.L.str.2
	movs	r3, #0
	bl	lv_debug_log_error
	b	.LBB15_3
.LBB15_3:                               @ =>This Inner Loop Header: Depth=1
	b	.LBB15_3
.Ltmp247:
.LBB15_4:
	.loc	10 331 5                        @ lvgl/src/lv_widgets/lv_win.c:331:5
	b	.LBB15_5
.Ltmp248:
.LBB15_5:
	.loc	10 333 46 is_stmt 1             @ lvgl/src/lv_widgets/lv_win.c:333:46
	ldr	r0, [sp, #12]
	.loc	10 333 26 is_stmt 0             @ lvgl/src/lv_widgets/lv_win.c:333:26
	bl	lv_obj_get_ext_attr
	.loc	10 333 20                       @ lvgl/src/lv_widgets/lv_win.c:333:20
	str	r0, [sp, #4]
	.loc	10 334 29 is_stmt 1             @ lvgl/src/lv_widgets/lv_win.c:334:29
	ldr	r0, [sp, #4]
	.loc	10 334 34 is_stmt 0             @ lvgl/src/lv_widgets/lv_win.c:334:34
	ldr	r0, [r0]
	.loc	10 334 40                       @ lvgl/src/lv_widgets/lv_win.c:334:40
	ldrb.w	r1, [sp, #11]
	.loc	10 334 5                        @ lvgl/src/lv_widgets/lv_win.c:334:5
	bl	lv_page_set_scrl_layout
	.loc	10 335 1 is_stmt 1              @ lvgl/src/lv_widgets/lv_win.c:335:1
	add	sp, #16
	pop	{r7, pc}
.Ltmp249:
.Lfunc_end15:
	.size	lv_win_set_layout, .Lfunc_end15-lv_win_set_layout
	.cfi_endproc
	.cantunwind
	.fnend
                                        @ -- End function
	.section	.text.lv_page_set_scrl_layout,"ax",%progbits
	.p2align	3                               @ -- Begin function lv_page_set_scrl_layout
	.type	lv_page_set_scrl_layout,%function
	.code	16                              @ @lv_page_set_scrl_layout
	.thumb_func
lv_page_set_scrl_layout:
.Lfunc_begin16:
	.loc	12 228 0                        @ lvgl/src/lv_widgets/lv_page.h:228:0
	.fnstart
	.cfi_startproc
@ %bb.0:
	.save	{r7, lr}
	push	{r7, lr}
	.cfi_def_cfa_offset 8
	.cfi_offset lr, -4
	.cfi_offset r7, -8
	.pad	#8
	sub	sp, #8
	.cfi_def_cfa_offset 16
                                        @ kill: def $r2 killed $r1
	str	r0, [sp, #4]
	strb.w	r1, [sp, #3]
.Ltmp250:
	.loc	12 229 47 prologue_end          @ lvgl/src/lv_widgets/lv_page.h:229:47
	ldr	r0, [sp, #4]
	.loc	12 229 24 is_stmt 0             @ lvgl/src/lv_widgets/lv_page.h:229:24
	bl	lv_page_get_scrollable
	.loc	12 229 54                       @ lvgl/src/lv_widgets/lv_page.h:229:54
	ldrb.w	r1, [sp, #3]
	.loc	12 229 5                        @ lvgl/src/lv_widgets/lv_page.h:229:5
	bl	lv_cont_set_layout
	.loc	12 230 1 is_stmt 1              @ lvgl/src/lv_widgets/lv_page.h:230:1
	add	sp, #8
	pop	{r7, pc}
.Ltmp251:
.Lfunc_end16:
	.size	lv_page_set_scrl_layout, .Lfunc_end16-lv_page_set_scrl_layout
	.cfi_endproc
	.cantunwind
	.fnend
                                        @ -- End function
	.section	.text.lv_win_set_scrollbar_mode,"ax",%progbits
	.hidden	lv_win_set_scrollbar_mode       @ -- Begin function lv_win_set_scrollbar_mode
	.globl	lv_win_set_scrollbar_mode
	.p2align	3
	.type	lv_win_set_scrollbar_mode,%function
	.code	16                              @ @lv_win_set_scrollbar_mode
	.thumb_func
lv_win_set_scrollbar_mode:
.Lfunc_begin17:
	.loc	10 343 0                        @ lvgl/src/lv_widgets/lv_win.c:343:0
	.fnstart
	.cfi_startproc
@ %bb.0:
	.save	{r7, lr}
	push	{r7, lr}
	.cfi_def_cfa_offset 8
	.cfi_offset lr, -4
	.cfi_offset r7, -8
	.pad	#16
	sub	sp, #16
	.cfi_def_cfa_offset 24
                                        @ kill: def $r2 killed $r1
	str	r0, [sp, #12]
	strb.w	r1, [sp, #11]
.Ltmp252:
	.loc	10 344 5 prologue_end           @ lvgl/src/lv_widgets/lv_win.c:344:5
	b	.LBB17_1
.LBB17_1:
.Ltmp253:
	.loc	10 344 5 is_stmt 0              @ lvgl/src/lv_widgets/lv_win.c:344:5
	ldr	r0, [sp, #12]
	bl	lv_debug_check_null
.Ltmp254:
	.loc	10 344 5                        @ lvgl/src/lv_widgets/lv_win.c:344:5
	cbnz	r0, .LBB17_4
	b	.LBB17_2
.LBB17_2:
.Ltmp255:
	.loc	10 344 5                        @ lvgl/src/lv_widgets/lv_win.c:344:5
	ldr	r2, [sp, #12]
	movw	r0, :lower16:.L.str.2
	movt	r0, :upper16:.L.str.2
	movs	r3, #0
	bl	lv_debug_log_error
	b	.LBB17_3
.LBB17_3:                               @ =>This Inner Loop Header: Depth=1
	b	.LBB17_3
.Ltmp256:
.LBB17_4:
	.loc	10 344 5                        @ lvgl/src/lv_widgets/lv_win.c:344:5
	b	.LBB17_5
.Ltmp257:
.LBB17_5:
	.loc	10 346 46 is_stmt 1             @ lvgl/src/lv_widgets/lv_win.c:346:46
	ldr	r0, [sp, #12]
	.loc	10 346 26 is_stmt 0             @ lvgl/src/lv_widgets/lv_win.c:346:26
	bl	lv_obj_get_ext_attr
	.loc	10 346 20                       @ lvgl/src/lv_widgets/lv_win.c:346:20
	str	r0, [sp, #4]
	.loc	10 347 32 is_stmt 1             @ lvgl/src/lv_widgets/lv_win.c:347:32
	ldr	r0, [sp, #4]
	.loc	10 347 37 is_stmt 0             @ lvgl/src/lv_widgets/lv_win.c:347:37
	ldr	r0, [r0]
	.loc	10 347 43                       @ lvgl/src/lv_widgets/lv_win.c:347:43
	ldrb.w	r1, [sp, #11]
	.loc	10 347 5                        @ lvgl/src/lv_widgets/lv_win.c:347:5
	bl	lv_page_set_scrollbar_mode
	.loc	10 348 1 is_stmt 1              @ lvgl/src/lv_widgets/lv_win.c:348:1
	add	sp, #16
	pop	{r7, pc}
.Ltmp258:
.Lfunc_end17:
	.size	lv_win_set_scrollbar_mode, .Lfunc_end17-lv_win_set_scrollbar_mode
	.cfi_endproc
	.cantunwind
	.fnend
                                        @ -- End function
	.section	.text.lv_win_set_anim_time,"ax",%progbits
	.hidden	lv_win_set_anim_time            @ -- Begin function lv_win_set_anim_time
	.globl	lv_win_set_anim_time
	.p2align	3
	.type	lv_win_set_anim_time,%function
	.code	16                              @ @lv_win_set_anim_time
	.thumb_func
lv_win_set_anim_time:
.Lfunc_begin18:
	.loc	10 355 0                        @ lvgl/src/lv_widgets/lv_win.c:355:0
	.fnstart
	.cfi_startproc
@ %bb.0:
	.save	{r7, lr}
	push	{r7, lr}
	.cfi_def_cfa_offset 8
	.cfi_offset lr, -4
	.cfi_offset r7, -8
	.pad	#8
	sub	sp, #8
	.cfi_def_cfa_offset 16
                                        @ kill: def $r2 killed $r1
	str	r0, [sp, #4]
	strh.w	r1, [sp, #2]
.Ltmp259:
	.loc	10 356 5 prologue_end           @ lvgl/src/lv_widgets/lv_win.c:356:5
	b	.LBB18_1
.LBB18_1:
.Ltmp260:
	.loc	10 356 5 is_stmt 0              @ lvgl/src/lv_widgets/lv_win.c:356:5
	ldr	r0, [sp, #4]
	bl	lv_debug_check_null
.Ltmp261:
	.loc	10 356 5                        @ lvgl/src/lv_widgets/lv_win.c:356:5
	cbnz	r0, .LBB18_4
	b	.LBB18_2
.LBB18_2:
.Ltmp262:
	.loc	10 356 5                        @ lvgl/src/lv_widgets/lv_win.c:356:5
	ldr	r2, [sp, #4]
	movw	r0, :lower16:.L.str.2
	movt	r0, :upper16:.L.str.2
	movs	r3, #0
	bl	lv_debug_log_error
	b	.LBB18_3
.LBB18_3:                               @ =>This Inner Loop Header: Depth=1
	b	.LBB18_3
.Ltmp263:
.LBB18_4:
	.loc	10 356 5                        @ lvgl/src/lv_widgets/lv_win.c:356:5
	b	.LBB18_5
.Ltmp264:
.LBB18_5:
	.loc	10 358 46 is_stmt 1             @ lvgl/src/lv_widgets/lv_win.c:358:46
	ldr	r0, [sp, #4]
	.loc	10 358 27 is_stmt 0             @ lvgl/src/lv_widgets/lv_win.c:358:27
	bl	lv_win_get_content
	.loc	10 358 52                       @ lvgl/src/lv_widgets/lv_win.c:358:52
	ldrh.w	r1, [sp, #2]
	.loc	10 358 5                        @ lvgl/src/lv_widgets/lv_win.c:358:5
	bl	lv_page_set_anim_time
	.loc	10 359 1 is_stmt 1              @ lvgl/src/lv_widgets/lv_win.c:359:1
	add	sp, #8
	pop	{r7, pc}
.Ltmp265:
.Lfunc_end18:
	.size	lv_win_set_anim_time, .Lfunc_end18-lv_win_set_anim_time
	.cfi_endproc
	.cantunwind
	.fnend
                                        @ -- End function
	.section	.text.lv_win_get_content,"ax",%progbits
	.hidden	lv_win_get_content              @ -- Begin function lv_win_get_content
	.globl	lv_win_get_content
	.p2align	3
	.type	lv_win_get_content,%function
	.code	16                              @ @lv_win_get_content
	.thumb_func
lv_win_get_content:
.Lfunc_begin19:
	.loc	10 407 0                        @ lvgl/src/lv_widgets/lv_win.c:407:0
	.fnstart
	.cfi_startproc
@ %bb.0:
	.save	{r7, lr}
	push	{r7, lr}
	.cfi_def_cfa_offset 8
	.cfi_offset lr, -4
	.cfi_offset r7, -8
	.pad	#8
	sub	sp, #8
	.cfi_def_cfa_offset 16
	str	r0, [sp, #4]
.Ltmp266:
	.loc	10 408 5 prologue_end           @ lvgl/src/lv_widgets/lv_win.c:408:5
	b	.LBB19_1
.LBB19_1:
.Ltmp267:
	.loc	10 408 5 is_stmt 0              @ lvgl/src/lv_widgets/lv_win.c:408:5
	ldr	r0, [sp, #4]
	bl	lv_debug_check_null
.Ltmp268:
	.loc	10 408 5                        @ lvgl/src/lv_widgets/lv_win.c:408:5
	cbnz	r0, .LBB19_4
	b	.LBB19_2
.LBB19_2:
.Ltmp269:
	.loc	10 408 5                        @ lvgl/src/lv_widgets/lv_win.c:408:5
	ldr	r2, [sp, #4]
	movw	r0, :lower16:.L.str.2
	movt	r0, :upper16:.L.str.2
	movs	r3, #0
	bl	lv_debug_log_error
	b	.LBB19_3
.LBB19_3:                               @ =>This Inner Loop Header: Depth=1
	b	.LBB19_3
.Ltmp270:
.LBB19_4:
	.loc	10 408 5                        @ lvgl/src/lv_widgets/lv_win.c:408:5
	b	.LBB19_5
.Ltmp271:
.LBB19_5:
	.loc	10 410 46 is_stmt 1             @ lvgl/src/lv_widgets/lv_win.c:410:46
	ldr	r0, [sp, #4]
	.loc	10 410 26 is_stmt 0             @ lvgl/src/lv_widgets/lv_win.c:410:26
	bl	lv_obj_get_ext_attr
	.loc	10 410 20                       @ lvgl/src/lv_widgets/lv_win.c:410:20
	str	r0, [sp]
	.loc	10 411 12 is_stmt 1             @ lvgl/src/lv_widgets/lv_win.c:411:12
	ldr	r0, [sp]
	.loc	10 411 17 is_stmt 0             @ lvgl/src/lv_widgets/lv_win.c:411:17
	ldr	r0, [r0]
	.loc	10 411 5                        @ lvgl/src/lv_widgets/lv_win.c:411:5
	add	sp, #8
	pop	{r7, pc}
.Ltmp272:
.Lfunc_end19:
	.size	lv_win_get_content, .Lfunc_end19-lv_win_get_content
	.cfi_endproc
	.cantunwind
	.fnend
                                        @ -- End function
	.section	.text.lv_win_set_drag,"ax",%progbits
	.hidden	lv_win_set_drag                 @ -- Begin function lv_win_set_drag
	.globl	lv_win_set_drag
	.p2align	3
	.type	lv_win_set_drag,%function
	.code	16                              @ @lv_win_set_drag
	.thumb_func
lv_win_set_drag:
.Lfunc_begin20:
	.loc	10 367 0 is_stmt 1              @ lvgl/src/lv_widgets/lv_win.c:367:0
	.fnstart
	.cfi_startproc
@ %bb.0:
	.save	{r7, lr}
	push	{r7, lr}
	.cfi_def_cfa_offset 8
	.cfi_offset lr, -4
	.cfi_offset r7, -8
	.pad	#16
	sub	sp, #16
	.cfi_def_cfa_offset 24
                                        @ kill: def $r2 killed $r1
	str	r0, [sp, #12]
	strb.w	r1, [sp, #11]
.Ltmp273:
	.loc	10 368 5 prologue_end           @ lvgl/src/lv_widgets/lv_win.c:368:5
	b	.LBB20_1
.LBB20_1:
.Ltmp274:
	.loc	10 368 5 is_stmt 0              @ lvgl/src/lv_widgets/lv_win.c:368:5
	ldr	r0, [sp, #12]
	bl	lv_debug_check_null
.Ltmp275:
	.loc	10 368 5                        @ lvgl/src/lv_widgets/lv_win.c:368:5
	cbnz	r0, .LBB20_4
	b	.LBB20_2
.LBB20_2:
.Ltmp276:
	.loc	10 368 5                        @ lvgl/src/lv_widgets/lv_win.c:368:5
	ldr	r2, [sp, #12]
	movw	r0, :lower16:.L.str.2
	movt	r0, :upper16:.L.str.2
	movs	r3, #0
	bl	lv_debug_log_error
	b	.LBB20_3
.LBB20_3:                               @ =>This Inner Loop Header: Depth=1
	b	.LBB20_3
.Ltmp277:
.LBB20_4:
	.loc	10 368 5                        @ lvgl/src/lv_widgets/lv_win.c:368:5
	b	.LBB20_5
.Ltmp278:
.LBB20_5:
	.loc	10 370 49 is_stmt 1             @ lvgl/src/lv_widgets/lv_win.c:370:49
	ldr	r0, [sp, #12]
	.loc	10 370 29 is_stmt 0             @ lvgl/src/lv_widgets/lv_win.c:370:29
	bl	lv_obj_get_ext_attr
	.loc	10 370 20                       @ lvgl/src/lv_widgets/lv_win.c:370:20
	str	r0, [sp, #4]
	.loc	10 371 29 is_stmt 1             @ lvgl/src/lv_widgets/lv_win.c:371:29
	ldr	r0, [sp, #4]
	.loc	10 371 34 is_stmt 0             @ lvgl/src/lv_widgets/lv_win.c:371:34
	ldr	r0, [r0, #4]
	.loc	10 371 16                       @ lvgl/src/lv_widgets/lv_win.c:371:16
	str	r0, [sp]
	.loc	10 372 28 is_stmt 1             @ lvgl/src/lv_widgets/lv_win.c:372:28
	ldr	r0, [sp]
	.loc	10 372 5 is_stmt 0              @ lvgl/src/lv_widgets/lv_win.c:372:5
	ldrb.w	r1, [sp, #11]
	and	r1, r1, #1
	bl	lv_obj_set_drag_parent
	.loc	10 373 21 is_stmt 1             @ lvgl/src/lv_widgets/lv_win.c:373:21
	ldr	r0, [sp, #12]
	.loc	10 373 5 is_stmt 0              @ lvgl/src/lv_widgets/lv_win.c:373:5
	ldrb.w	r1, [sp, #11]
	and	r1, r1, #1
	bl	lv_obj_set_drag
	.loc	10 374 1 is_stmt 1              @ lvgl/src/lv_widgets/lv_win.c:374:1
	add	sp, #16
	pop	{r7, pc}
.Ltmp279:
.Lfunc_end20:
	.size	lv_win_set_drag, .Lfunc_end20-lv_win_set_drag
	.cfi_endproc
	.cantunwind
	.fnend
                                        @ -- End function
	.section	.text.lv_win_title_set_alignment,"ax",%progbits
	.hidden	lv_win_title_set_alignment      @ -- Begin function lv_win_title_set_alignment
	.globl	lv_win_title_set_alignment
	.p2align	3
	.type	lv_win_title_set_alignment,%function
	.code	16                              @ @lv_win_title_set_alignment
	.thumb_func
lv_win_title_set_alignment:
.Lfunc_begin21:
	.loc	10 377 0                        @ lvgl/src/lv_widgets/lv_win.c:377:0
	.fnstart
	.cfi_startproc
@ %bb.0:
	.save	{r7, lr}
	push	{r7, lr}
	.cfi_def_cfa_offset 8
	.cfi_offset lr, -4
	.cfi_offset r7, -8
	.pad	#16
	sub	sp, #16
	.cfi_def_cfa_offset 24
                                        @ kill: def $r2 killed $r1
	str	r0, [sp, #12]
	strb.w	r1, [sp, #11]
.Ltmp280:
	.loc	10 378 46 prologue_end          @ lvgl/src/lv_widgets/lv_win.c:378:46
	ldr	r0, [sp, #12]
	.loc	10 378 26 is_stmt 0             @ lvgl/src/lv_widgets/lv_win.c:378:26
	bl	lv_obj_get_ext_attr
	.loc	10 378 20                       @ lvgl/src/lv_widgets/lv_win.c:378:20
	str	r0, [sp, #4]
	.loc	10 380 28 is_stmt 1             @ lvgl/src/lv_widgets/lv_win.c:380:28
	ldrb.w	r0, [sp, #11]
	.loc	10 380 5 is_stmt 0              @ lvgl/src/lv_widgets/lv_win.c:380:5
	ldr	r1, [sp, #4]
	.loc	10 380 26                       @ lvgl/src/lv_widgets/lv_win.c:380:26
	strb	r0, [r1, #14]
	.loc	10 382 1 is_stmt 1              @ lvgl/src/lv_widgets/lv_win.c:382:1
	add	sp, #16
	pop	{r7, pc}
.Ltmp281:
.Lfunc_end21:
	.size	lv_win_title_set_alignment, .Lfunc_end21-lv_win_title_set_alignment
	.cfi_endproc
	.cantunwind
	.fnend
                                        @ -- End function
	.section	.text.lv_win_get_title,"ax",%progbits
	.hidden	lv_win_get_title                @ -- Begin function lv_win_get_title
	.globl	lv_win_get_title
	.p2align	3
	.type	lv_win_get_title,%function
	.code	16                              @ @lv_win_get_title
	.thumb_func
lv_win_get_title:
.Lfunc_begin22:
	.loc	10 394 0                        @ lvgl/src/lv_widgets/lv_win.c:394:0
	.fnstart
	.cfi_startproc
@ %bb.0:
	.save	{r7, lr}
	push	{r7, lr}
	.cfi_def_cfa_offset 8
	.cfi_offset lr, -4
	.cfi_offset r7, -8
	.pad	#8
	sub	sp, #8
	.cfi_def_cfa_offset 16
	str	r0, [sp, #4]
.Ltmp282:
	.loc	10 395 5 prologue_end           @ lvgl/src/lv_widgets/lv_win.c:395:5
	b	.LBB22_1
.LBB22_1:
.Ltmp283:
	.loc	10 395 5 is_stmt 0              @ lvgl/src/lv_widgets/lv_win.c:395:5
	ldr	r0, [sp, #4]
	bl	lv_debug_check_null
.Ltmp284:
	.loc	10 395 5                        @ lvgl/src/lv_widgets/lv_win.c:395:5
	cbnz	r0, .LBB22_4
	b	.LBB22_2
.LBB22_2:
.Ltmp285:
	.loc	10 395 5                        @ lvgl/src/lv_widgets/lv_win.c:395:5
	ldr	r2, [sp, #4]
	movw	r0, :lower16:.L.str.2
	movt	r0, :upper16:.L.str.2
	movs	r3, #0
	bl	lv_debug_log_error
	b	.LBB22_3
.LBB22_3:                               @ =>This Inner Loop Header: Depth=1
	b	.LBB22_3
.Ltmp286:
.LBB22_4:
	.loc	10 395 5                        @ lvgl/src/lv_widgets/lv_win.c:395:5
	b	.LBB22_5
.Ltmp287:
.LBB22_5:
	.loc	10 397 46 is_stmt 1             @ lvgl/src/lv_widgets/lv_win.c:397:46
	ldr	r0, [sp, #4]
	.loc	10 397 26 is_stmt 0             @ lvgl/src/lv_widgets/lv_win.c:397:26
	bl	lv_obj_get_ext_attr
	.loc	10 397 20                       @ lvgl/src/lv_widgets/lv_win.c:397:20
	str	r0, [sp]
	.loc	10 398 12 is_stmt 1             @ lvgl/src/lv_widgets/lv_win.c:398:12
	ldr	r0, [sp]
	.loc	10 398 17 is_stmt 0             @ lvgl/src/lv_widgets/lv_win.c:398:17
	ldr	r0, [r0, #8]
	.loc	10 398 5                        @ lvgl/src/lv_widgets/lv_win.c:398:5
	add	sp, #8
	pop	{r7, pc}
.Ltmp288:
.Lfunc_end22:
	.size	lv_win_get_title, .Lfunc_end22-lv_win_get_title
	.cfi_endproc
	.cantunwind
	.fnend
                                        @ -- End function
	.section	.text.lv_win_get_header_height,"ax",%progbits
	.hidden	lv_win_get_header_height        @ -- Begin function lv_win_get_header_height
	.globl	lv_win_get_header_height
	.p2align	3
	.type	lv_win_get_header_height,%function
	.code	16                              @ @lv_win_get_header_height
	.thumb_func
lv_win_get_header_height:
.Lfunc_begin23:
	.loc	10 420 0 is_stmt 1              @ lvgl/src/lv_widgets/lv_win.c:420:0
	.fnstart
	.cfi_startproc
@ %bb.0:
	.save	{r7, lr}
	push	{r7, lr}
	.cfi_def_cfa_offset 8
	.cfi_offset lr, -4
	.cfi_offset r7, -8
	.pad	#8
	sub	sp, #8
	.cfi_def_cfa_offset 16
	str	r0, [sp, #4]
.Ltmp289:
	.loc	10 421 5 prologue_end           @ lvgl/src/lv_widgets/lv_win.c:421:5
	b	.LBB23_1
.LBB23_1:
.Ltmp290:
	.loc	10 421 5 is_stmt 0              @ lvgl/src/lv_widgets/lv_win.c:421:5
	ldr	r0, [sp, #4]
	bl	lv_debug_check_null
.Ltmp291:
	.loc	10 421 5                        @ lvgl/src/lv_widgets/lv_win.c:421:5
	cbnz	r0, .LBB23_4
	b	.LBB23_2
.LBB23_2:
.Ltmp292:
	.loc	10 421 5                        @ lvgl/src/lv_widgets/lv_win.c:421:5
	ldr	r2, [sp, #4]
	movw	r0, :lower16:.L.str.2
	movt	r0, :upper16:.L.str.2
	movs	r3, #0
	bl	lv_debug_log_error
	b	.LBB23_3
.LBB23_3:                               @ =>This Inner Loop Header: Depth=1
	b	.LBB23_3
.Ltmp293:
.LBB23_4:
	.loc	10 421 5                        @ lvgl/src/lv_widgets/lv_win.c:421:5
	b	.LBB23_5
.Ltmp294:
.LBB23_5:
	.loc	10 423 46 is_stmt 1             @ lvgl/src/lv_widgets/lv_win.c:423:46
	ldr	r0, [sp, #4]
	.loc	10 423 26 is_stmt 0             @ lvgl/src/lv_widgets/lv_win.c:423:26
	bl	lv_obj_get_ext_attr
	.loc	10 423 20                       @ lvgl/src/lv_widgets/lv_win.c:423:20
	str	r0, [sp]
	.loc	10 424 30 is_stmt 1             @ lvgl/src/lv_widgets/lv_win.c:424:30
	ldr	r0, [sp]
	.loc	10 424 35 is_stmt 0             @ lvgl/src/lv_widgets/lv_win.c:424:35
	ldr	r0, [r0, #4]
	.loc	10 424 12                       @ lvgl/src/lv_widgets/lv_win.c:424:12
	bl	lv_obj_get_height
	.loc	10 424 5                        @ lvgl/src/lv_widgets/lv_win.c:424:5
	add	sp, #8
	pop	{r7, pc}
.Ltmp295:
.Lfunc_end23:
	.size	lv_win_get_header_height, .Lfunc_end23-lv_win_get_header_height
	.cfi_endproc
	.cantunwind
	.fnend
                                        @ -- End function
	.section	.text.lv_win_get_btn_width,"ax",%progbits
	.hidden	lv_win_get_btn_width            @ -- Begin function lv_win_get_btn_width
	.globl	lv_win_get_btn_width
	.p2align	3
	.type	lv_win_get_btn_width,%function
	.code	16                              @ @lv_win_get_btn_width
	.thumb_func
lv_win_get_btn_width:
.Lfunc_begin24:
	.loc	10 433 0 is_stmt 1              @ lvgl/src/lv_widgets/lv_win.c:433:0
	.fnstart
	.cfi_startproc
@ %bb.0:
	.save	{r7, lr}
	push	{r7, lr}
	.cfi_def_cfa_offset 8
	.cfi_offset lr, -4
	.cfi_offset r7, -8
	.pad	#8
	sub	sp, #8
	.cfi_def_cfa_offset 16
	str	r0, [sp, #4]
.Ltmp296:
	.loc	10 434 5 prologue_end           @ lvgl/src/lv_widgets/lv_win.c:434:5
	b	.LBB24_1
.LBB24_1:
.Ltmp297:
	.loc	10 434 5 is_stmt 0              @ lvgl/src/lv_widgets/lv_win.c:434:5
	ldr	r0, [sp, #4]
	bl	lv_debug_check_null
.Ltmp298:
	.loc	10 434 5                        @ lvgl/src/lv_widgets/lv_win.c:434:5
	cbnz	r0, .LBB24_4
	b	.LBB24_2
.LBB24_2:
.Ltmp299:
	.loc	10 434 5                        @ lvgl/src/lv_widgets/lv_win.c:434:5
	ldr	r2, [sp, #4]
	movw	r0, :lower16:.L.str.2
	movt	r0, :upper16:.L.str.2
	movs	r3, #0
	bl	lv_debug_log_error
	b	.LBB24_3
.LBB24_3:                               @ =>This Inner Loop Header: Depth=1
	b	.LBB24_3
.Ltmp300:
.LBB24_4:
	.loc	10 434 5                        @ lvgl/src/lv_widgets/lv_win.c:434:5
	b	.LBB24_5
.Ltmp301:
.LBB24_5:
	.loc	10 436 46 is_stmt 1             @ lvgl/src/lv_widgets/lv_win.c:436:46
	ldr	r0, [sp, #4]
	.loc	10 436 26 is_stmt 0             @ lvgl/src/lv_widgets/lv_win.c:436:26
	bl	lv_obj_get_ext_attr
	.loc	10 436 20                       @ lvgl/src/lv_widgets/lv_win.c:436:20
	str	r0, [sp]
	.loc	10 437 12 is_stmt 1             @ lvgl/src/lv_widgets/lv_win.c:437:12
	ldr	r0, [sp]
	.loc	10 437 17 is_stmt 0             @ lvgl/src/lv_widgets/lv_win.c:437:17
	ldrsh.w	r0, [r0, #12]
	.loc	10 437 5                        @ lvgl/src/lv_widgets/lv_win.c:437:5
	add	sp, #8
	pop	{r7, pc}
.Ltmp302:
.Lfunc_end24:
	.size	lv_win_get_btn_width, .Lfunc_end24-lv_win_get_btn_width
	.cfi_endproc
	.cantunwind
	.fnend
                                        @ -- End function
	.section	.text.lv_win_get_layout,"ax",%progbits
	.hidden	lv_win_get_layout               @ -- Begin function lv_win_get_layout
	.globl	lv_win_get_layout
	.p2align	3
	.type	lv_win_get_layout,%function
	.code	16                              @ @lv_win_get_layout
	.thumb_func
lv_win_get_layout:
.Lfunc_begin25:
	.loc	10 463 0 is_stmt 1              @ lvgl/src/lv_widgets/lv_win.c:463:0
	.fnstart
	.cfi_startproc
@ %bb.0:
	.save	{r7, lr}
	push	{r7, lr}
	.cfi_def_cfa_offset 8
	.cfi_offset lr, -4
	.cfi_offset r7, -8
	.pad	#8
	sub	sp, #8
	.cfi_def_cfa_offset 16
	str	r0, [sp, #4]
.Ltmp303:
	.loc	10 464 5 prologue_end           @ lvgl/src/lv_widgets/lv_win.c:464:5
	b	.LBB25_1
.LBB25_1:
.Ltmp304:
	.loc	10 464 5 is_stmt 0              @ lvgl/src/lv_widgets/lv_win.c:464:5
	ldr	r0, [sp, #4]
	bl	lv_debug_check_null
.Ltmp305:
	.loc	10 464 5                        @ lvgl/src/lv_widgets/lv_win.c:464:5
	cbnz	r0, .LBB25_4
	b	.LBB25_2
.LBB25_2:
.Ltmp306:
	.loc	10 464 5                        @ lvgl/src/lv_widgets/lv_win.c:464:5
	ldr	r2, [sp, #4]
	movw	r0, :lower16:.L.str.2
	movt	r0, :upper16:.L.str.2
	movs	r3, #0
	bl	lv_debug_log_error
	b	.LBB25_3
.LBB25_3:                               @ =>This Inner Loop Header: Depth=1
	b	.LBB25_3
.Ltmp307:
.LBB25_4:
	.loc	10 464 5                        @ lvgl/src/lv_widgets/lv_win.c:464:5
	b	.LBB25_5
.Ltmp308:
.LBB25_5:
	.loc	10 466 46 is_stmt 1             @ lvgl/src/lv_widgets/lv_win.c:466:46
	ldr	r0, [sp, #4]
	.loc	10 466 26 is_stmt 0             @ lvgl/src/lv_widgets/lv_win.c:466:26
	bl	lv_obj_get_ext_attr
	.loc	10 466 20                       @ lvgl/src/lv_widgets/lv_win.c:466:20
	str	r0, [sp]
	.loc	10 467 36 is_stmt 1             @ lvgl/src/lv_widgets/lv_win.c:467:36
	ldr	r0, [sp]
	.loc	10 467 41 is_stmt 0             @ lvgl/src/lv_widgets/lv_win.c:467:41
	ldr	r0, [r0]
	.loc	10 467 12                       @ lvgl/src/lv_widgets/lv_win.c:467:12
	bl	lv_page_get_scrl_layout
	.loc	10 467 5                        @ lvgl/src/lv_widgets/lv_win.c:467:5
	add	sp, #8
	pop	{r7, pc}
.Ltmp309:
.Lfunc_end25:
	.size	lv_win_get_layout, .Lfunc_end25-lv_win_get_layout
	.cfi_endproc
	.cantunwind
	.fnend
                                        @ -- End function
	.section	.text.lv_page_get_scrl_layout,"ax",%progbits
	.p2align	3                               @ -- Begin function lv_page_get_scrl_layout
	.type	lv_page_get_scrl_layout,%function
	.code	16                              @ @lv_page_get_scrl_layout
	.thumb_func
lv_page_get_scrl_layout:
.Lfunc_begin26:
	.loc	12 323 0 is_stmt 1              @ lvgl/src/lv_widgets/lv_page.h:323:0
	.fnstart
	.cfi_startproc
@ %bb.0:
	.save	{r7, lr}
	push	{r7, lr}
	.cfi_def_cfa_offset 8
	.cfi_offset lr, -4
	.cfi_offset r7, -8
	.pad	#8
	sub	sp, #8
	.cfi_def_cfa_offset 16
	str	r0, [sp, #4]
.Ltmp310:
	.loc	12 324 54 prologue_end          @ lvgl/src/lv_widgets/lv_page.h:324:54
	ldr	r0, [sp, #4]
	.loc	12 324 31 is_stmt 0             @ lvgl/src/lv_widgets/lv_page.h:324:31
	bl	lv_page_get_scrollable
	.loc	12 324 12                       @ lvgl/src/lv_widgets/lv_page.h:324:12
	bl	lv_cont_get_layout
	.loc	12 324 5                        @ lvgl/src/lv_widgets/lv_page.h:324:5
	add	sp, #8
	pop	{r7, pc}
.Ltmp311:
.Lfunc_end26:
	.size	lv_page_get_scrl_layout, .Lfunc_end26-lv_page_get_scrl_layout
	.cfi_endproc
	.cantunwind
	.fnend
                                        @ -- End function
	.section	.text.lv_win_get_sb_mode,"ax",%progbits
	.hidden	lv_win_get_sb_mode              @ -- Begin function lv_win_get_sb_mode
	.globl	lv_win_get_sb_mode
	.p2align	3
	.type	lv_win_get_sb_mode,%function
	.code	16                              @ @lv_win_get_sb_mode
	.thumb_func
lv_win_get_sb_mode:
.Lfunc_begin27:
	.loc	10 476 0 is_stmt 1              @ lvgl/src/lv_widgets/lv_win.c:476:0
	.fnstart
	.cfi_startproc
@ %bb.0:
	.save	{r7, lr}
	push	{r7, lr}
	.cfi_def_cfa_offset 8
	.cfi_offset lr, -4
	.cfi_offset r7, -8
	.pad	#8
	sub	sp, #8
	.cfi_def_cfa_offset 16
	str	r0, [sp, #4]
.Ltmp312:
	.loc	10 477 5 prologue_end           @ lvgl/src/lv_widgets/lv_win.c:477:5
	b	.LBB27_1
.LBB27_1:
.Ltmp313:
	.loc	10 477 5 is_stmt 0              @ lvgl/src/lv_widgets/lv_win.c:477:5
	ldr	r0, [sp, #4]
	bl	lv_debug_check_null
.Ltmp314:
	.loc	10 477 5                        @ lvgl/src/lv_widgets/lv_win.c:477:5
	cbnz	r0, .LBB27_4
	b	.LBB27_2
.LBB27_2:
.Ltmp315:
	.loc	10 477 5                        @ lvgl/src/lv_widgets/lv_win.c:477:5
	ldr	r2, [sp, #4]
	movw	r0, :lower16:.L.str.2
	movt	r0, :upper16:.L.str.2
	movs	r3, #0
	bl	lv_debug_log_error
	b	.LBB27_3
.LBB27_3:                               @ =>This Inner Loop Header: Depth=1
	b	.LBB27_3
.Ltmp316:
.LBB27_4:
	.loc	10 477 5                        @ lvgl/src/lv_widgets/lv_win.c:477:5
	b	.LBB27_5
.Ltmp317:
.LBB27_5:
	.loc	10 479 46 is_stmt 1             @ lvgl/src/lv_widgets/lv_win.c:479:46
	ldr	r0, [sp, #4]
	.loc	10 479 26 is_stmt 0             @ lvgl/src/lv_widgets/lv_win.c:479:26
	bl	lv_obj_get_ext_attr
	.loc	10 479 20                       @ lvgl/src/lv_widgets/lv_win.c:479:20
	str	r0, [sp]
	.loc	10 480 39 is_stmt 1             @ lvgl/src/lv_widgets/lv_win.c:480:39
	ldr	r0, [sp]
	.loc	10 480 44 is_stmt 0             @ lvgl/src/lv_widgets/lv_win.c:480:44
	ldr	r0, [r0]
	.loc	10 480 12                       @ lvgl/src/lv_widgets/lv_win.c:480:12
	bl	lv_page_get_scrollbar_mode
	.loc	10 480 5                        @ lvgl/src/lv_widgets/lv_win.c:480:5
	add	sp, #8
	pop	{r7, pc}
.Ltmp318:
.Lfunc_end27:
	.size	lv_win_get_sb_mode, .Lfunc_end27-lv_win_get_sb_mode
	.cfi_endproc
	.cantunwind
	.fnend
                                        @ -- End function
	.section	.text.lv_win_get_anim_time,"ax",%progbits
	.hidden	lv_win_get_anim_time            @ -- Begin function lv_win_get_anim_time
	.globl	lv_win_get_anim_time
	.p2align	3
	.type	lv_win_get_anim_time,%function
	.code	16                              @ @lv_win_get_anim_time
	.thumb_func
lv_win_get_anim_time:
.Lfunc_begin28:
	.loc	10 489 0 is_stmt 1              @ lvgl/src/lv_widgets/lv_win.c:489:0
	.fnstart
	.cfi_startproc
@ %bb.0:
	.save	{r7, lr}
	push	{r7, lr}
	.cfi_def_cfa_offset 8
	.cfi_offset lr, -4
	.cfi_offset r7, -8
	.pad	#8
	sub	sp, #8
	.cfi_def_cfa_offset 16
	str	r0, [sp, #4]
.Ltmp319:
	.loc	10 490 5 prologue_end           @ lvgl/src/lv_widgets/lv_win.c:490:5
	b	.LBB28_1
.LBB28_1:
.Ltmp320:
	.loc	10 490 5 is_stmt 0              @ lvgl/src/lv_widgets/lv_win.c:490:5
	ldr	r0, [sp, #4]
	bl	lv_debug_check_null
.Ltmp321:
	.loc	10 490 5                        @ lvgl/src/lv_widgets/lv_win.c:490:5
	cbnz	r0, .LBB28_4
	b	.LBB28_2
.LBB28_2:
.Ltmp322:
	.loc	10 490 5                        @ lvgl/src/lv_widgets/lv_win.c:490:5
	ldr	r2, [sp, #4]
	movw	r0, :lower16:.L.str.2
	movt	r0, :upper16:.L.str.2
	movs	r3, #0
	bl	lv_debug_log_error
	b	.LBB28_3
.LBB28_3:                               @ =>This Inner Loop Header: Depth=1
	b	.LBB28_3
.Ltmp323:
.LBB28_4:
	.loc	10 490 5                        @ lvgl/src/lv_widgets/lv_win.c:490:5
	b	.LBB28_5
.Ltmp324:
.LBB28_5:
	.loc	10 492 53 is_stmt 1             @ lvgl/src/lv_widgets/lv_win.c:492:53
	ldr	r0, [sp, #4]
	.loc	10 492 34 is_stmt 0             @ lvgl/src/lv_widgets/lv_win.c:492:34
	bl	lv_win_get_content
	.loc	10 492 12                       @ lvgl/src/lv_widgets/lv_win.c:492:12
	bl	lv_page_get_anim_time
	.loc	10 492 5                        @ lvgl/src/lv_widgets/lv_win.c:492:5
	add	sp, #8
	pop	{r7, pc}
.Ltmp325:
.Lfunc_end28:
	.size	lv_win_get_anim_time, .Lfunc_end28-lv_win_get_anim_time
	.cfi_endproc
	.cantunwind
	.fnend
                                        @ -- End function
	.section	.text.lv_win_get_width,"ax",%progbits
	.hidden	lv_win_get_width                @ -- Begin function lv_win_get_width
	.globl	lv_win_get_width
	.p2align	3
	.type	lv_win_get_width,%function
	.code	16                              @ @lv_win_get_width
	.thumb_func
lv_win_get_width:
.Lfunc_begin29:
	.loc	10 501 0 is_stmt 1              @ lvgl/src/lv_widgets/lv_win.c:501:0
	.fnstart
	.cfi_startproc
@ %bb.0:
	.save	{r7, lr}
	push	{r7, lr}
	.cfi_def_cfa_offset 8
	.cfi_offset lr, -4
	.cfi_offset r7, -8
	.pad	#24
	sub	sp, #24
	.cfi_def_cfa_offset 32
	str	r0, [sp, #20]
.Ltmp326:
	.loc	10 502 5 prologue_end           @ lvgl/src/lv_widgets/lv_win.c:502:5
	b	.LBB29_1
.LBB29_1:
.Ltmp327:
	.loc	10 502 5 is_stmt 0              @ lvgl/src/lv_widgets/lv_win.c:502:5
	ldr	r0, [sp, #20]
	bl	lv_debug_check_null
.Ltmp328:
	.loc	10 502 5                        @ lvgl/src/lv_widgets/lv_win.c:502:5
	cbnz	r0, .LBB29_4
	b	.LBB29_2
.LBB29_2:
.Ltmp329:
	.loc	10 502 5                        @ lvgl/src/lv_widgets/lv_win.c:502:5
	ldr	r2, [sp, #20]
	movw	r0, :lower16:.L.str.2
	movt	r0, :upper16:.L.str.2
	movs	r3, #0
	bl	lv_debug_log_error
	b	.LBB29_3
.LBB29_3:                               @ =>This Inner Loop Header: Depth=1
	b	.LBB29_3
.Ltmp330:
.LBB29_4:
	.loc	10 502 5                        @ lvgl/src/lv_widgets/lv_win.c:502:5
	b	.LBB29_5
.Ltmp331:
.LBB29_5:
	.loc	10 504 57 is_stmt 1             @ lvgl/src/lv_widgets/lv_win.c:504:57
	ldr	r0, [sp, #20]
	.loc	10 504 37 is_stmt 0             @ lvgl/src/lv_widgets/lv_win.c:504:37
	bl	lv_obj_get_ext_attr
	.loc	10 504 20                       @ lvgl/src/lv_widgets/lv_win.c:504:20
	str	r0, [sp, #16]
	.loc	10 505 60 is_stmt 1             @ lvgl/src/lv_widgets/lv_win.c:505:60
	ldr	r0, [sp, #16]
	.loc	10 505 65 is_stmt 0             @ lvgl/src/lv_widgets/lv_win.c:505:65
	ldr	r0, [r0]
	.loc	10 505 37                       @ lvgl/src/lv_widgets/lv_win.c:505:37
	bl	lv_page_get_scrollable
	.loc	10 505 16                       @ lvgl/src/lv_widgets/lv_win.c:505:16
	str	r0, [sp, #12]
	.loc	10 506 49 is_stmt 1             @ lvgl/src/lv_widgets/lv_win.c:506:49
	ldr	r0, [sp, #20]
	movs	r1, #0
	.loc	10 506 23 is_stmt 0             @ lvgl/src/lv_widgets/lv_win.c:506:23
	str	r1, [sp, #4]                    @ 4-byte Spill
	bl	lv_obj_get_style_pad_left
	ldr	r1, [sp, #4]                    @ 4-byte Reload
	.loc	10 506 16                       @ lvgl/src/lv_widgets/lv_win.c:506:16
	strh.w	r0, [sp, #10]
	.loc	10 507 50 is_stmt 1             @ lvgl/src/lv_widgets/lv_win.c:507:50
	ldr	r0, [sp, #20]
	.loc	10 507 24 is_stmt 0             @ lvgl/src/lv_widgets/lv_win.c:507:24
	bl	lv_obj_get_style_pad_left
	.loc	10 507 16                       @ lvgl/src/lv_widgets/lv_win.c:507:16
	strh.w	r0, [sp, #8]
	.loc	10 509 33 is_stmt 1             @ lvgl/src/lv_widgets/lv_win.c:509:33
	ldr	r0, [sp, #12]
	.loc	10 509 12 is_stmt 0             @ lvgl/src/lv_widgets/lv_win.c:509:12
	bl	lv_obj_get_width_fit
	.loc	10 509 41                       @ lvgl/src/lv_widgets/lv_win.c:509:41
	ldrh.w	r1, [sp, #10]
	.loc	10 509 39                       @ lvgl/src/lv_widgets/lv_win.c:509:39
	subs	r0, r0, r1
	.loc	10 509 48                       @ lvgl/src/lv_widgets/lv_win.c:509:48
	ldrh.w	r1, [sp, #8]
	.loc	10 509 46                       @ lvgl/src/lv_widgets/lv_win.c:509:46
	subs	r0, r0, r1
	.loc	10 509 5                        @ lvgl/src/lv_widgets/lv_win.c:509:5
	sxth	r0, r0
	add	sp, #24
	pop	{r7, pc}
.Ltmp332:
.Lfunc_end29:
	.size	lv_win_get_width, .Lfunc_end29-lv_win_get_width
	.cfi_endproc
	.cantunwind
	.fnend
                                        @ -- End function
	.section	.text.lv_obj_get_style_pad_left,"ax",%progbits
	.p2align	3                               @ -- Begin function lv_obj_get_style_pad_left
	.type	lv_obj_get_style_pad_left,%function
	.code	16                              @ @lv_obj_get_style_pad_left
	.thumb_func
lv_obj_get_style_pad_left:
.Lfunc_begin30:
	.file	16 "E:\\STM32\\Learning\\STM32H750_ART_PI_RGBLCD" "lvgl/src/lv_widgets/../lv_core/lv_obj_style_dec.h"
	.loc	16 102 0 is_stmt 1              @ lvgl/src/lv_widgets/../lv_core/lv_obj_style_dec.h:102:0
	.fnstart
	.cfi_startproc
@ %bb.0:
	.save	{r7, lr}
	push	{r7, lr}
	.cfi_def_cfa_offset 8
	.cfi_offset lr, -4
	.cfi_offset r7, -8
	.pad	#8
	sub	sp, #8
	.cfi_def_cfa_offset 16
                                        @ kill: def $r2 killed $r1
	str	r0, [sp, #4]
	strb.w	r1, [sp, #3]
.Ltmp333:
	.loc	16 102 1 prologue_end           @ lvgl/src/lv_widgets/../lv_core/lv_obj_style_dec.h:102:1
	ldr	r0, [sp, #4]
	ldrb.w	r1, [sp, #3]
	movs	r2, #18
	bl	_lv_obj_get_style_int
	add	sp, #8
	pop	{r7, pc}
.Ltmp334:
.Lfunc_end30:
	.size	lv_obj_get_style_pad_left, .Lfunc_end30-lv_obj_get_style_pad_left
	.cfi_endproc
	.cantunwind
	.fnend
                                        @ -- End function
	.section	.text.lv_win_title_get_alignment,"ax",%progbits
	.hidden	lv_win_title_get_alignment      @ -- Begin function lv_win_title_get_alignment
	.globl	lv_win_title_get_alignment
	.p2align	3
	.type	lv_win_title_get_alignment,%function
	.code	16                              @ @lv_win_title_get_alignment
	.thumb_func
lv_win_title_get_alignment:
.Lfunc_begin31:
	.loc	10 513 0                        @ lvgl/src/lv_widgets/lv_win.c:513:0
	.fnstart
	.cfi_startproc
@ %bb.0:
	.save	{r7, lr}
	push	{r7, lr}
	.cfi_def_cfa_offset 8
	.cfi_offset lr, -4
	.cfi_offset r7, -8
	.pad	#8
	sub	sp, #8
	.cfi_def_cfa_offset 16
	str	r0, [sp, #4]
.Ltmp335:
	.loc	10 514 46 prologue_end          @ lvgl/src/lv_widgets/lv_win.c:514:46
	ldr	r0, [sp, #4]
	.loc	10 514 26 is_stmt 0             @ lvgl/src/lv_widgets/lv_win.c:514:26
	bl	lv_obj_get_ext_attr
	.loc	10 514 20                       @ lvgl/src/lv_widgets/lv_win.c:514:20
	str	r0, [sp]
	.loc	10 516 12 is_stmt 1             @ lvgl/src/lv_widgets/lv_win.c:516:12
	ldr	r0, [sp]
	.loc	10 516 17 is_stmt 0             @ lvgl/src/lv_widgets/lv_win.c:516:17
	ldrb	r0, [r0, #14]
	.loc	10 516 5                        @ lvgl/src/lv_widgets/lv_win.c:516:5
	add	sp, #8
	pop	{r7, pc}
.Ltmp336:
.Lfunc_end31:
	.size	lv_win_title_get_alignment, .Lfunc_end31-lv_win_title_get_alignment
	.cfi_endproc
	.cantunwind
	.fnend
                                        @ -- End function
	.section	.text.lv_win_focus,"ax",%progbits
	.hidden	lv_win_focus                    @ -- Begin function lv_win_focus
	.globl	lv_win_focus
	.p2align	3
	.type	lv_win_focus,%function
	.code	16                              @ @lv_win_focus
	.thumb_func
lv_win_focus:
.Lfunc_begin32:
	.loc	10 530 0 is_stmt 1              @ lvgl/src/lv_widgets/lv_win.c:530:0
	.fnstart
	.cfi_startproc
@ %bb.0:
	.save	{r7, lr}
	push	{r7, lr}
	.cfi_def_cfa_offset 8
	.cfi_offset lr, -4
	.cfi_offset r7, -8
	.pad	#16
	sub	sp, #16
	.cfi_def_cfa_offset 24
                                        @ kill: def $r3 killed $r2
	str	r0, [sp, #12]
	str	r1, [sp, #8]
	strb.w	r2, [sp, #7]
.Ltmp337:
	.loc	10 531 5 prologue_end           @ lvgl/src/lv_widgets/lv_win.c:531:5
	b	.LBB32_1
.LBB32_1:
.Ltmp338:
	.loc	10 531 5 is_stmt 0              @ lvgl/src/lv_widgets/lv_win.c:531:5
	ldr	r0, [sp, #12]
	bl	lv_debug_check_null
.Ltmp339:
	.loc	10 531 5                        @ lvgl/src/lv_widgets/lv_win.c:531:5
	cbnz	r0, .LBB32_4
	b	.LBB32_2
.LBB32_2:
.Ltmp340:
	.loc	10 531 5                        @ lvgl/src/lv_widgets/lv_win.c:531:5
	ldr	r2, [sp, #12]
	movw	r0, :lower16:.L.str.2
	movt	r0, :upper16:.L.str.2
	movs	r3, #0
	bl	lv_debug_log_error
	b	.LBB32_3
.LBB32_3:                               @ =>This Inner Loop Header: Depth=1
	b	.LBB32_3
.Ltmp341:
.LBB32_4:
	.loc	10 531 5                        @ lvgl/src/lv_widgets/lv_win.c:531:5
	b	.LBB32_5
.Ltmp342:
.LBB32_5:
	.loc	10 532 5 is_stmt 1              @ lvgl/src/lv_widgets/lv_win.c:532:5
	b	.LBB32_6
.LBB32_6:
.Ltmp343:
	.loc	10 532 5 is_stmt 0              @ lvgl/src/lv_widgets/lv_win.c:532:5
	ldr	r0, [sp, #8]
	bl	lv_debug_check_null
.Ltmp344:
	.loc	10 532 5                        @ lvgl/src/lv_widgets/lv_win.c:532:5
	cbnz	r0, .LBB32_9
	b	.LBB32_7
.LBB32_7:
.Ltmp345:
	.loc	10 532 5                        @ lvgl/src/lv_widgets/lv_win.c:532:5
	ldr	r2, [sp, #8]
	movw	r0, :lower16:.L.str.2
	movt	r0, :upper16:.L.str.2
	movs	r3, #0
	bl	lv_debug_log_error
	b	.LBB32_8
.LBB32_8:                               @ =>This Inner Loop Header: Depth=1
	b	.LBB32_8
.Ltmp346:
.LBB32_9:
	.loc	10 532 5                        @ lvgl/src/lv_widgets/lv_win.c:532:5
	b	.LBB32_10
.Ltmp347:
.LBB32_10:
	.loc	10 534 46 is_stmt 1             @ lvgl/src/lv_widgets/lv_win.c:534:46
	ldr	r0, [sp, #12]
	.loc	10 534 26 is_stmt 0             @ lvgl/src/lv_widgets/lv_win.c:534:26
	bl	lv_obj_get_ext_attr
	.loc	10 534 20                       @ lvgl/src/lv_widgets/lv_win.c:534:20
	str	r0, [sp]
	.loc	10 535 19 is_stmt 1             @ lvgl/src/lv_widgets/lv_win.c:535:19
	ldr	r0, [sp]
	.loc	10 535 24 is_stmt 0             @ lvgl/src/lv_widgets/lv_win.c:535:24
	ldr	r0, [r0]
	.loc	10 535 30                       @ lvgl/src/lv_widgets/lv_win.c:535:30
	ldr	r1, [sp, #8]
	.loc	10 535 35                       @ lvgl/src/lv_widgets/lv_win.c:535:35
	ldrb.w	r2, [sp, #7]
	.loc	10 535 5                        @ lvgl/src/lv_widgets/lv_win.c:535:5
	bl	lv_page_focus
	.loc	10 536 1 is_stmt 1              @ lvgl/src/lv_widgets/lv_win.c:536:1
	add	sp, #16
	pop	{r7, pc}
.Ltmp348:
.Lfunc_end32:
	.size	lv_win_focus, .Lfunc_end32-lv_win_focus
	.cfi_endproc
	.cantunwind
	.fnend
                                        @ -- End function
	.section	.text.lv_obj_get_style_pad_right,"ax",%progbits
	.p2align	3                               @ -- Begin function lv_obj_get_style_pad_right
	.type	lv_obj_get_style_pad_right,%function
	.code	16                              @ @lv_obj_get_style_pad_right
	.thumb_func
lv_obj_get_style_pad_right:
.Lfunc_begin33:
	.loc	16 103 0                        @ lvgl/src/lv_widgets/../lv_core/lv_obj_style_dec.h:103:0
	.fnstart
	.cfi_startproc
@ %bb.0:
	.save	{r7, lr}
	push	{r7, lr}
	.cfi_def_cfa_offset 8
	.cfi_offset lr, -4
	.cfi_offset r7, -8
	.pad	#8
	sub	sp, #8
	.cfi_def_cfa_offset 16
                                        @ kill: def $r2 killed $r1
	str	r0, [sp, #4]
	strb.w	r1, [sp, #3]
.Ltmp349:
	.loc	16 103 1 prologue_end           @ lvgl/src/lv_widgets/../lv_core/lv_obj_style_dec.h:103:1
	ldr	r0, [sp, #4]
	ldrb.w	r1, [sp, #3]
	movs	r2, #19
	bl	_lv_obj_get_style_int
	add	sp, #8
	pop	{r7, pc}
.Ltmp350:
.Lfunc_end33:
	.size	lv_obj_get_style_pad_right, .Lfunc_end33-lv_obj_get_style_pad_right
	.cfi_endproc
	.cantunwind
	.fnend
                                        @ -- End function
	.section	.text.lv_obj_get_style_pad_inner,"ax",%progbits
	.p2align	3                               @ -- Begin function lv_obj_get_style_pad_inner
	.type	lv_obj_get_style_pad_inner,%function
	.code	16                              @ @lv_obj_get_style_pad_inner
	.thumb_func
lv_obj_get_style_pad_inner:
.Lfunc_begin34:
	.loc	16 104 0                        @ lvgl/src/lv_widgets/../lv_core/lv_obj_style_dec.h:104:0
	.fnstart
	.cfi_startproc
@ %bb.0:
	.save	{r7, lr}
	push	{r7, lr}
	.cfi_def_cfa_offset 8
	.cfi_offset lr, -4
	.cfi_offset r7, -8
	.pad	#8
	sub	sp, #8
	.cfi_def_cfa_offset 16
                                        @ kill: def $r2 killed $r1
	str	r0, [sp, #4]
	strb.w	r1, [sp, #3]
.Ltmp351:
	.loc	16 104 1 prologue_end           @ lvgl/src/lv_widgets/../lv_core/lv_obj_style_dec.h:104:1
	ldr	r0, [sp, #4]
	ldrb.w	r1, [sp, #3]
	movs	r2, #20
	bl	_lv_obj_get_style_int
	add	sp, #8
	pop	{r7, pc}
.Ltmp352:
.Lfunc_end34:
	.size	lv_obj_get_style_pad_inner, .Lfunc_end34-lv_obj_get_style_pad_inner
	.cfi_endproc
	.cantunwind
	.fnend
                                        @ -- End function
	.section	.text.lv_win_btn_get_alignment,"ax",%progbits
	.p2align	3                               @ -- Begin function lv_win_btn_get_alignment
	.type	lv_win_btn_get_alignment,%function
	.code	16                              @ @lv_win_btn_get_alignment
	.thumb_func
lv_win_btn_get_alignment:
.Lfunc_begin35:
	.loc	10 849 0                        @ lvgl/src/lv_widgets/lv_win.c:849:0
	.fnstart
	.cfi_startproc
@ %bb.0:
	.save	{r7, lr}
	push	{r7, lr}
	.cfi_def_cfa_offset 8
	.cfi_offset lr, -4
	.cfi_offset r7, -8
	.pad	#8
	sub	sp, #8
	.cfi_def_cfa_offset 16
	str	r0, [sp, #4]
.Ltmp353:
	.loc	10 850 50 prologue_end          @ lvgl/src/lv_widgets/lv_win.c:850:50
	ldr	r0, [sp, #4]
	.loc	10 850 30 is_stmt 0             @ lvgl/src/lv_widgets/lv_win.c:850:30
	bl	lv_obj_get_ext_attr
	.loc	10 850 24                       @ lvgl/src/lv_widgets/lv_win.c:850:24
	str	r0, [sp]
	.loc	10 852 12 is_stmt 1             @ lvgl/src/lv_widgets/lv_win.c:852:12
	ldr	r0, [sp]
	.loc	10 852 17 is_stmt 0             @ lvgl/src/lv_widgets/lv_win.c:852:17
	ldrb	r0, [r0, #3]
	.loc	10 852 5                        @ lvgl/src/lv_widgets/lv_win.c:852:5
	and	r0, r0, #1
	add	sp, #8
	pop	{r7, pc}
.Ltmp354:
.Lfunc_end35:
	.size	lv_win_btn_get_alignment, .Lfunc_end35-lv_win_btn_get_alignment
	.cfi_endproc
	.cantunwind
	.fnend
                                        @ -- End function
	.section	.text.lv_win_get_style,"ax",%progbits
	.p2align	3                               @ -- Begin function lv_win_get_style
	.type	lv_win_get_style,%function
	.code	16                              @ @lv_win_get_style
	.thumb_func
lv_win_get_style:
.Lfunc_begin36:
	.loc	10 711 0 is_stmt 1              @ lvgl/src/lv_widgets/lv_win.c:711:0
	.fnstart
	.cfi_startproc
@ %bb.0:
	.save	{r7, lr}
	push	{r7, lr}
	.cfi_def_cfa_offset 8
	.cfi_offset lr, -4
	.cfi_offset r7, -8
	.pad	#24
	sub	sp, #24
	.cfi_def_cfa_offset 32
                                        @ kill: def $r2 killed $r1
	str	r0, [sp, #20]
	strb.w	r1, [sp, #19]
.Ltmp355:
	.loc	10 712 5 prologue_end           @ lvgl/src/lv_widgets/lv_win.c:712:5
	b	.LBB36_1
.LBB36_1:
.Ltmp356:
	.loc	10 712 5 is_stmt 0              @ lvgl/src/lv_widgets/lv_win.c:712:5
	ldr	r0, [sp, #20]
	bl	lv_debug_check_null
.Ltmp357:
	.loc	10 712 5                        @ lvgl/src/lv_widgets/lv_win.c:712:5
	cbnz	r0, .LBB36_4
	b	.LBB36_2
.LBB36_2:
.Ltmp358:
	.loc	10 712 5                        @ lvgl/src/lv_widgets/lv_win.c:712:5
	ldr	r2, [sp, #20]
	movw	r0, :lower16:.L.str.2
	movt	r0, :upper16:.L.str.2
	movs	r3, #0
	bl	lv_debug_log_error
	b	.LBB36_3
.LBB36_3:                               @ =>This Inner Loop Header: Depth=1
	b	.LBB36_3
.Ltmp359:
.LBB36_4:
	.loc	10 712 5                        @ lvgl/src/lv_widgets/lv_win.c:712:5
	b	.LBB36_5
.Ltmp360:
.LBB36_5:
	.loc	10 714 46 is_stmt 1             @ lvgl/src/lv_widgets/lv_win.c:714:46
	ldr	r0, [sp, #20]
	.loc	10 714 26 is_stmt 0             @ lvgl/src/lv_widgets/lv_win.c:714:26
	bl	lv_obj_get_ext_attr
	.loc	10 714 20                       @ lvgl/src/lv_widgets/lv_win.c:714:20
	str	r0, [sp, #12]
	.loc	10 717 12 is_stmt 1             @ lvgl/src/lv_widgets/lv_win.c:717:12
	ldrb.w	r0, [sp, #19]
	.loc	10 717 5 is_stmt 0              @ lvgl/src/lv_widgets/lv_win.c:717:5
	mov	r1, r0
	str	r1, [sp, #4]                    @ 4-byte Spill
	cbz	r0, .LBB36_9
	b	.LBB36_6
.LBB36_6:
	ldr	r0, [sp, #4]                    @ 4-byte Reload
	cmp	r0, #64
	beq	.LBB36_10
	b	.LBB36_7
.LBB36_7:
	ldr	r0, [sp, #4]                    @ 4-byte Reload
	cmp	r0, #65
	beq	.LBB36_12
	b	.LBB36_8
.LBB36_8:
	ldr	r0, [sp, #4]                    @ 4-byte Reload
	cmp	r0, #66
	beq	.LBB36_11
	b	.LBB36_13
.LBB36_9:
.Ltmp361:
	.loc	10 719 28 is_stmt 1             @ lvgl/src/lv_widgets/lv_win.c:719:28
	ldr	r0, [sp, #20]
	.loc	10 719 33 is_stmt 0             @ lvgl/src/lv_widgets/lv_win.c:719:33
	adds	r0, #40
	.loc	10 719 25                       @ lvgl/src/lv_widgets/lv_win.c:719:25
	str	r0, [sp, #8]
	.loc	10 720 13 is_stmt 1             @ lvgl/src/lv_widgets/lv_win.c:720:13
	b	.LBB36_14
.LBB36_10:
	.loc	10 722 49                       @ lvgl/src/lv_widgets/lv_win.c:722:49
	ldr	r0, [sp, #12]
	.loc	10 722 54 is_stmt 0             @ lvgl/src/lv_widgets/lv_win.c:722:54
	ldr	r0, [r0, #4]
	movs	r1, #0
	.loc	10 722 27                       @ lvgl/src/lv_widgets/lv_win.c:722:27
	bl	lv_obj_get_style_list
	.loc	10 722 25                       @ lvgl/src/lv_widgets/lv_win.c:722:25
	str	r0, [sp, #8]
	.loc	10 723 13 is_stmt 1             @ lvgl/src/lv_widgets/lv_win.c:723:13
	b	.LBB36_14
.LBB36_11:
	.loc	10 725 49                       @ lvgl/src/lv_widgets/lv_win.c:725:49
	ldr	r0, [sp, #12]
	.loc	10 725 54 is_stmt 0             @ lvgl/src/lv_widgets/lv_win.c:725:54
	ldr	r0, [r0]
	movs	r1, #1
	.loc	10 725 27                       @ lvgl/src/lv_widgets/lv_win.c:725:27
	bl	lv_obj_get_style_list
	.loc	10 725 25                       @ lvgl/src/lv_widgets/lv_win.c:725:25
	str	r0, [sp, #8]
	.loc	10 726 13 is_stmt 1             @ lvgl/src/lv_widgets/lv_win.c:726:13
	b	.LBB36_14
.LBB36_12:
	.loc	10 728 49                       @ lvgl/src/lv_widgets/lv_win.c:728:49
	ldr	r0, [sp, #12]
	.loc	10 728 54 is_stmt 0             @ lvgl/src/lv_widgets/lv_win.c:728:54
	ldr	r0, [r0]
	movs	r1, #64
	.loc	10 728 27                       @ lvgl/src/lv_widgets/lv_win.c:728:27
	bl	lv_obj_get_style_list
	.loc	10 728 25                       @ lvgl/src/lv_widgets/lv_win.c:728:25
	str	r0, [sp, #8]
	.loc	10 729 13 is_stmt 1             @ lvgl/src/lv_widgets/lv_win.c:729:13
	b	.LBB36_14
.LBB36_13:
	.loc	10 0 13 is_stmt 0               @ lvgl/src/lv_widgets/lv_win.c:0:13
	movs	r0, #0
	.loc	10 731 25 is_stmt 1             @ lvgl/src/lv_widgets/lv_win.c:731:25
	str	r0, [sp, #8]
	.loc	10 732 5                        @ lvgl/src/lv_widgets/lv_win.c:732:5
	b	.LBB36_14
.Ltmp362:
.LBB36_14:
	.loc	10 734 12                       @ lvgl/src/lv_widgets/lv_win.c:734:12
	ldr	r0, [sp, #8]
	.loc	10 734 5 is_stmt 0              @ lvgl/src/lv_widgets/lv_win.c:734:5
	add	sp, #24
	pop	{r7, pc}
.Ltmp363:
.Lfunc_end36:
	.size	lv_win_get_style, .Lfunc_end36-lv_win_get_style
	.cfi_endproc
	.cantunwind
	.fnend
                                        @ -- End function
	.section	.text.lv_area_get_width,"ax",%progbits
	.p2align	3                               @ -- Begin function lv_area_get_width
	.type	lv_area_get_width,%function
	.code	16                              @ @lv_area_get_width
	.thumb_func
lv_area_get_width:
.Lfunc_begin37:
	.loc	5 108 0 is_stmt 1               @ lvgl/src/lv_widgets/../lv_core/../lv_hal/../lv_misc/lv_area.h:108:0
	.fnstart
	.cfi_startproc
@ %bb.0:
	.pad	#4
	sub	sp, #4
	.cfi_def_cfa_offset 4
	str	r0, [sp]
.Ltmp364:
	.loc	5 109 25 prologue_end           @ lvgl/src/lv_widgets/../lv_core/../lv_hal/../lv_misc/lv_area.h:109:25
	ldr	r1, [sp]
	ldrh	r0, [r1, #4]
	.loc	5 109 38 is_stmt 0              @ lvgl/src/lv_widgets/../lv_core/../lv_hal/../lv_misc/lv_area.h:109:38
	ldrh	r1, [r1]
	.loc	5 109 36                        @ lvgl/src/lv_widgets/../lv_core/../lv_hal/../lv_misc/lv_area.h:109:36
	subs	r0, r0, r1
	.loc	5 109 49                        @ lvgl/src/lv_widgets/../lv_core/../lv_hal/../lv_misc/lv_area.h:109:49
	adds	r0, #1
	.loc	5 109 5                         @ lvgl/src/lv_widgets/../lv_core/../lv_hal/../lv_misc/lv_area.h:109:5
	sxth	r0, r0
	add	sp, #4
	bx	lr
.Ltmp365:
.Lfunc_end37:
	.size	lv_area_get_width, .Lfunc_end37-lv_area_get_width
	.cfi_endproc
	.cantunwind
	.fnend
                                        @ -- End function
	.section	.text.lv_area_get_height,"ax",%progbits
	.p2align	3                               @ -- Begin function lv_area_get_height
	.type	lv_area_get_height,%function
	.code	16                              @ @lv_area_get_height
	.thumb_func
lv_area_get_height:
.Lfunc_begin38:
	.loc	5 118 0 is_stmt 1               @ lvgl/src/lv_widgets/../lv_core/../lv_hal/../lv_misc/lv_area.h:118:0
	.fnstart
	.cfi_startproc
@ %bb.0:
	.pad	#4
	sub	sp, #4
	.cfi_def_cfa_offset 4
	str	r0, [sp]
.Ltmp366:
	.loc	5 119 25 prologue_end           @ lvgl/src/lv_widgets/../lv_core/../lv_hal/../lv_misc/lv_area.h:119:25
	ldr	r1, [sp]
	ldrh	r0, [r1, #6]
	.loc	5 119 38 is_stmt 0              @ lvgl/src/lv_widgets/../lv_core/../lv_hal/../lv_misc/lv_area.h:119:38
	ldrh	r1, [r1, #2]
	.loc	5 119 36                        @ lvgl/src/lv_widgets/../lv_core/../lv_hal/../lv_misc/lv_area.h:119:36
	subs	r0, r0, r1
	.loc	5 119 49                        @ lvgl/src/lv_widgets/../lv_core/../lv_hal/../lv_misc/lv_area.h:119:49
	adds	r0, #1
	.loc	5 119 5                         @ lvgl/src/lv_widgets/../lv_core/../lv_hal/../lv_misc/lv_area.h:119:5
	sxth	r0, r0
	add	sp, #4
	bx	lr
.Ltmp367:
.Lfunc_end38:
	.size	lv_area_get_height, .Lfunc_end38-lv_area_get_height
	.cfi_endproc
	.cantunwind
	.fnend
                                        @ -- End function
	.type	.L.str,%object                  @ @.str
	.section	.rodata.str1.1,"aMS",%progbits,1
.L.str:
	.asciz	"Out of memory"
	.size	.L.str, 14

	.type	ancestor_signal,%object         @ @ancestor_signal
	.section	.bss.ancestor_signal,"aw",%nobits
	.p2align	2
ancestor_signal:
	.long	0
	.size	ancestor_signal, 4

	.type	.L.str.1,%object                @ @.str.1
	.section	.rodata.str1.1,"aMS",%progbits,1
.L.str.1:
	.asciz	"Window"
	.size	.L.str.1, 7

	.type	ancestor_header_design,%object  @ @ancestor_header_design
	.section	.bss.ancestor_header_design,"aw",%nobits
	.p2align	2
ancestor_header_design:
	.long	0
	.size	ancestor_header_design, 4

	.type	.L.str.2,%object                @ @.str.2
	.section	.rodata.str1.1,"aMS",%progbits,1
.L.str.2:
	.asciz	"NULL pointer"
	.size	.L.str.2, 13

	.type	.L.str.3,%object                @ @.str.3
.L.str.3:
	.asciz	"lv_win"
	.size	.L.str.3, 7

	.file	17 "E:\\STM32\\Learning\\STM32H750_ART_PI_RGBLCD" "lvgl/src/lv_widgets/../lv_core/../lv_hal/../lv_misc/lv_color.h"
	.file	18 "E:\\STM32\\Learning\\STM32H750_ART_PI_RGBLCD" "lvgl/src/lv_widgets/../lv_core/../lv_draw/lv_draw_label.h"
	.file	19 "E:\\STM32\\Learning\\STM32H750_ART_PI_RGBLCD" "lvgl/src/lv_widgets/../lv_font/lv_font.h"
	.file	20 "E:\\STM32\\Learning\\STM32H750_ART_PI_RGBLCD" "lvgl/src/lv_widgets/../lv_core/../lv_draw/lv_draw_blend.h"
	.file	21 "E:\\STM32\\Learning\\STM32H750_ART_PI_RGBLCD" "lvgl/src/lv_widgets/lv_btn.h"
	.file	22 "D:\\Keil_v5\\ARM\\ARMCLANG\\Bin\\..\\include" "stddef.h"
	.file	23 "E:\\STM32\\Learning\\STM32H750_ART_PI_RGBLCD" "lvgl/src/lv_widgets/../lv_misc/lv_anim.h"
	.section	".note.GNU-stack","",%progbits
	.eabi_attribute	30, 6	@ Tag_ABI_optimization_goals
	.ARM_attribute	16, 1	@ Tag_AV_eba