	.text
	.syntax unified
	.eabi_attribute	67, "2.09"	@ Tag_conformance
	.cpu	cortex-m7
	.eabi_attribute	6, 13	@ Tag_CPU_arch
	.eabi_attribute	7, 77	@ Tag_CPU_arch_profile
	.eabi_attribute	8, 0	@ Tag_ARM_ISA_use
	.eabi_attribute	9, 2	@ Tag_THUMB_ISA_use
	.fpu	fpv5-d16
	.eabi_attribute	36, 1	@ Tag_FP_HP_extension
	.eabi_attribute	34, 1	@ Tag_CPU_unaligned_access
	.eabi_attribute	17, 1	@ Tag_ABI_PCS_GOT_use
	.eabi_attribute	20, 2	@ Tag_ABI_FP_denormal
	.eabi_attribute	21, 0	@ Tag_ABI_FP_exceptions
	.eabi_attribute	23, 1	@ Tag_ABI_FP_number_model
	.eabi_attribute	24, 1	@ Tag_ABI_align_needed
	.eabi_attribute	25, 1	@ Tag_ABI_align_preserved
	.eabi_attribute	28, 1	@ Tag_ABI_VFP_args
	.eabi_attribute	38, 1	@ Tag_ABI_FP_16bit_format
	.eabi_attribute	18, 2	@ Tag_ABI_PCS_wchar_t
	.eabi_attribute	26, 1	@ Tag_ABI_enum_size
	.eabi_attribute	14, 0	@ Tag_ABI_PCS_R9_use
	.file	"md5.c"
	.file	1 "E:\\STM32\\Learning\\STM32H750_ART_PI_RGBLCD" "rt-thread/components/net/lwip-2.0.2/src/netif/ppp/polarssl/md5.c"
	.section	.text.md5_starts,"ax",%progbits
	.hidden	md5_starts                      @ -- Begin function md5_starts
	.globl	md5_starts
	.p2align	3
	.type	md5_starts,%function
	.code	16                              @ @md5_starts
	.thumb_func
md5_starts:
.Lfunc_begin0:
	.loc	1 75 0                          @ rt-thread/components/net/lwip-2.0.2/src/netif/ppp/polarssl/md5.c:75:0
	.fnstart
	.cfi_sections .debug_frame
	.cfi_startproc
@ %bb.0:
	.pad	#4
	sub	sp, #4
	.cfi_def_cfa_offset 4
	str	r0, [sp]
.Ltmp0:
	.loc	1 76 5 prologue_end             @ rt-thread/components/net/lwip-2.0.2/src/netif/ppp/polarssl/md5.c:76:5
	ldr	r1, [sp]
	movs	r0, #0
	.loc	1 76 19 is_stmt 0               @ rt-thread/components/net/lwip-2.0.2/src/netif/ppp/polarssl/md5.c:76:19
	str	r0, [r1]
	.loc	1 77 5 is_stmt 1                @ rt-thread/components/net/lwip-2.0.2/src/netif/ppp/polarssl/md5.c:77:5
	ldr	r1, [sp]
	.loc	1 77 19 is_stmt 0               @ rt-thread/components/net/lwip-2.0.2/src/netif/ppp/polarssl/md5.c:77:19
	str	r0, [r1, #4]
	.loc	1 79 5 is_stmt 1                @ rt-thread/components/net/lwip-2.0.2/src/netif/ppp/polarssl/md5.c:79:5
	ldr	r1, [sp]
	movw	r0, #8961
	movt	r0, #26437
	.loc	1 79 19 is_stmt 0               @ rt-thread/components/net/lwip-2.0.2/src/netif/ppp/polarssl/md5.c:79:19
	str	r0, [r1, #8]
	.loc	1 80 5 is_stmt 1                @ rt-thread/components/net/lwip-2.0.2/src/netif/ppp/polarssl/md5.c:80:5
	ldr	r1, [sp]
	movw	r0, #43913
	movt	r0, #61389
	.loc	1 80 19 is_stmt 0               @ rt-thread/components/net/lwip-2.0.2/src/netif/ppp/polarssl/md5.c:80:19
	str	r0, [r1, #12]
	.loc	1 81 5 is_stmt 1                @ rt-thread/components/net/lwip-2.0.2/src/netif/ppp/polarssl/md5.c:81:5
	ldr	r1, [sp]
	movw	r0, #56574
	movt	r0, #39098
	.loc	1 81 19 is_stmt 0               @ rt-thread/components/net/lwip-2.0.2/src/netif/ppp/polarssl/md5.c:81:19
	str	r0, [r1, #16]
	.loc	1 82 5 is_stmt 1                @ rt-thread/components/net/lwip-2.0.2/src/netif/ppp/polarssl/md5.c:82:5
	ldr	r1, [sp]
	movw	r0, #21622
	movt	r0, #4146
	.loc	1 82 19 is_stmt 0               @ rt-thread/components/net/lwip-2.0.2/src/netif/ppp/polarssl/md5.c:82:19
	str	r0, [r1, #20]
	.loc	1 83 1 is_stmt 1                @ rt-thread/components/net/lwip-2.0.2/src/netif/ppp/polarssl/md5.c:83:1
	add	sp, #4
	bx	lr
.Ltmp1:
.Lfunc_end0:
	.size	md5_starts, .Lfunc_end0-md5_starts
	.cfi_endproc
	.cantunwind
	.fnend
                                        @ -- End function
	.section	.text.md5_update,"ax",%progbits
	.hidden	md5_update                      @ -- Begin function md5_update
	.globl	md5_update
	.p2align	3
	.type	md5_update,%function
	.code	16                              @ @md5_update
	.thumb_func
md5_update:
.Lfunc_begin1:
	.loc	1 212 0                         @ rt-thread/components/net/lwip-2.0.2/src/netif/ppp/polarssl/md5.c:212:0
	.fnstart
	.cfi_startproc
@ %bb.0:
	.save	{r7, lr}
	push	{r7, lr}
	.cfi_def_cfa_offset 8
	.cfi_offset lr, -4
	.cfi_offset r7, -8
	.pad	#24
	sub	sp, #24
	.cfi_def_cfa_offset 32
	str	r0, [sp, #20]
	str	r1, [sp, #16]
	str	r2, [sp, #12]
.Ltmp2:
	.loc	1 216 9 prologue_end            @ rt-thread/components/net/lwip-2.0.2/src/netif/ppp/polarssl/md5.c:216:9
	ldr	r0, [sp, #12]
.Ltmp3:
	.loc	1 216 9 is_stmt 0               @ rt-thread/components/net/lwip-2.0.2/src/netif/ppp/polarssl/md5.c:216:9
	cmp	r0, #0
	bgt	.LBB1_2
	b	.LBB1_1
.LBB1_1:
.Ltmp4:
	.loc	1 217 9 is_stmt 1               @ rt-thread/components/net/lwip-2.0.2/src/netif/ppp/polarssl/md5.c:217:9
	b	.LBB1_12
.Ltmp5:
.LBB1_2:
	.loc	1 219 12                        @ rt-thread/components/net/lwip-2.0.2/src/netif/ppp/polarssl/md5.c:219:12
	ldr	r0, [sp, #20]
	ldr	r0, [r0]
	.loc	1 219 26 is_stmt 0              @ rt-thread/components/net/lwip-2.0.2/src/netif/ppp/polarssl/md5.c:219:26
	and	r0, r0, #63
	.loc	1 219 10                        @ rt-thread/components/net/lwip-2.0.2/src/netif/ppp/polarssl/md5.c:219:10
	str	r0, [sp, #4]
	.loc	1 220 17 is_stmt 1              @ rt-thread/components/net/lwip-2.0.2/src/netif/ppp/polarssl/md5.c:220:17
	ldr	r0, [sp, #4]
	.loc	1 220 15 is_stmt 0              @ rt-thread/components/net/lwip-2.0.2/src/netif/ppp/polarssl/md5.c:220:15
	rsb.w	r0, r0, #64
	.loc	1 220 10                        @ rt-thread/components/net/lwip-2.0.2/src/netif/ppp/polarssl/md5.c:220:10
	str	r0, [sp, #8]
	.loc	1 222 22 is_stmt 1              @ rt-thread/components/net/lwip-2.0.2/src/netif/ppp/polarssl/md5.c:222:22
	ldr	r2, [sp, #12]
	.loc	1 222 5 is_stmt 0               @ rt-thread/components/net/lwip-2.0.2/src/netif/ppp/polarssl/md5.c:222:5
	ldr	r1, [sp, #20]
	.loc	1 222 19                        @ rt-thread/components/net/lwip-2.0.2/src/netif/ppp/polarssl/md5.c:222:19
	ldr	r0, [r1]
	add	r0, r2
	str	r0, [r1]
	.loc	1 223 5 is_stmt 1               @ rt-thread/components/net/lwip-2.0.2/src/netif/ppp/polarssl/md5.c:223:5
	ldr	r0, [sp, #20]
.Ltmp6:
	.loc	1 225 9                         @ rt-thread/components/net/lwip-2.0.2/src/netif/ppp/polarssl/md5.c:225:9
	ldr	r0, [r0]
	.loc	1 225 41 is_stmt 0              @ rt-thread/components/net/lwip-2.0.2/src/netif/ppp/polarssl/md5.c:225:41
	ldr	r1, [sp, #12]
.Ltmp7:
	.loc	1 225 9                         @ rt-thread/components/net/lwip-2.0.2/src/netif/ppp/polarssl/md5.c:225:9
	cmp	r0, r1
	bhs	.LBB1_4
	b	.LBB1_3
.LBB1_3:
.Ltmp8:
	.loc	1 226 9 is_stmt 1               @ rt-thread/components/net/lwip-2.0.2/src/netif/ppp/polarssl/md5.c:226:9
	ldr	r1, [sp, #20]
	.loc	1 226 22 is_stmt 0              @ rt-thread/components/net/lwip-2.0.2/src/netif/ppp/polarssl/md5.c:226:22
	ldr	r0, [r1, #4]
	adds	r0, #1
	str	r0, [r1, #4]
	.loc	1 226 9                         @ rt-thread/components/net/lwip-2.0.2/src/netif/ppp/polarssl/md5.c:226:9
	b	.LBB1_4
.Ltmp9:
.LBB1_4:
	.loc	1 228 9 is_stmt 1               @ rt-thread/components/net/lwip-2.0.2/src/netif/ppp/polarssl/md5.c:228:9
	ldr	r0, [sp, #4]
	.loc	1 228 14 is_stmt 0              @ rt-thread/components/net/lwip-2.0.2/src/netif/ppp/polarssl/md5.c:228:14
	cbz	r0, .LBB1_7
	b	.LBB1_5
.LBB1_5:
	.loc	1 228 17                        @ rt-thread/components/net/lwip-2.0.2/src/netif/ppp/polarssl/md5.c:228:17
	ldr	r0, [sp, #12]
	.loc	1 228 25                        @ rt-thread/components/net/lwip-2.0.2/src/netif/ppp/polarssl/md5.c:228:25
	ldr	r1, [sp, #8]
.Ltmp10:
	.loc	1 228 9                         @ rt-thread/components/net/lwip-2.0.2/src/netif/ppp/polarssl/md5.c:228:9
	cmp	r0, r1
	blt	.LBB1_7
	b	.LBB1_6
.LBB1_6:
.Ltmp11:
	.loc	1 230 9 is_stmt 1               @ rt-thread/components/net/lwip-2.0.2/src/netif/ppp/polarssl/md5.c:230:9
	ldr	r0, [sp, #20]
	ldr	r1, [sp, #4]
	add	r0, r1
	adds	r0, #24
	ldr	r1, [sp, #16]
	ldr	r2, [sp, #8]
	bl	__aeabi_memcpy
	.loc	1 232 22                        @ rt-thread/components/net/lwip-2.0.2/src/netif/ppp/polarssl/md5.c:232:22
	ldr	r0, [sp, #20]
	.loc	1 232 32 is_stmt 0              @ rt-thread/components/net/lwip-2.0.2/src/netif/ppp/polarssl/md5.c:232:32
	add.w	r1, r0, #24
	.loc	1 232 9                         @ rt-thread/components/net/lwip-2.0.2/src/netif/ppp/polarssl/md5.c:232:9
	bl	md5_process
	.loc	1 233 18 is_stmt 1              @ rt-thread/components/net/lwip-2.0.2/src/netif/ppp/polarssl/md5.c:233:18
	ldr	r1, [sp, #8]
	.loc	1 233 15 is_stmt 0              @ rt-thread/components/net/lwip-2.0.2/src/netif/ppp/polarssl/md5.c:233:15
	ldr	r0, [sp, #16]
	add	r0, r1
	str	r0, [sp, #16]
	.loc	1 234 18 is_stmt 1              @ rt-thread/components/net/lwip-2.0.2/src/netif/ppp/polarssl/md5.c:234:18
	ldr	r1, [sp, #8]
	.loc	1 234 15 is_stmt 0              @ rt-thread/components/net/lwip-2.0.2/src/netif/ppp/polarssl/md5.c:234:15
	ldr	r0, [sp, #12]
	subs	r0, r0, r1
	str	r0, [sp, #12]
	movs	r0, #0
	.loc	1 235 14 is_stmt 1              @ rt-thread/components/net/lwip-2.0.2/src/netif/ppp/polarssl/md5.c:235:14
	str	r0, [sp, #4]
	.loc	1 236 5                         @ rt-thread/components/net/lwip-2.0.2/src/netif/ppp/polarssl/md5.c:236:5
	b	.LBB1_7
.Ltmp12:
.LBB1_7:
	.loc	1 238 5                         @ rt-thread/components/net/lwip-2.0.2/src/netif/ppp/polarssl/md5.c:238:5
	b	.LBB1_8
.LBB1_8:                                @ =>This Inner Loop Header: Depth=1
	.loc	1 238 12 is_stmt 0              @ rt-thread/components/net/lwip-2.0.2/src/netif/ppp/polarssl/md5.c:238:12
	ldr	r0, [sp, #12]
	.loc	1 238 5                         @ rt-thread/components/net/lwip-2.0.2/src/netif/ppp/polarssl/md5.c:238:5
	cmp	r0, #64
	blt	.LBB1_10
	b	.LBB1_9
.LBB1_9:                                @   in Loop: Header=BB1_8 Depth=1
.Ltmp13:
	.loc	1 240 22 is_stmt 1              @ rt-thread/components/net/lwip-2.0.2/src/netif/ppp/polarssl/md5.c:240:22
	ldr	r0, [sp, #20]
	.loc	1 240 27 is_stmt 0              @ rt-thread/components/net/lwip-2.0.2/src/netif/ppp/polarssl/md5.c:240:27
	ldr	r1, [sp, #16]
	.loc	1 240 9                         @ rt-thread/components/net/lwip-2.0.2/src/netif/ppp/polarssl/md5.c:240:9
	bl	md5_process
	.loc	1 241 15 is_stmt 1              @ rt-thread/components/net/lwip-2.0.2/src/netif/ppp/polarssl/md5.c:241:15
	ldr	r0, [sp, #16]
	adds	r0, #64
	str	r0, [sp, #16]
	.loc	1 242 15                        @ rt-thread/components/net/lwip-2.0.2/src/netif/ppp/polarssl/md5.c:242:15
	ldr	r0, [sp, #12]
	subs	r0, #64
	str	r0, [sp, #12]
.Ltmp14:
	.loc	1 238 5                         @ rt-thread/components/net/lwip-2.0.2/src/netif/ppp/polarssl/md5.c:238:5
	b	.LBB1_8
.LBB1_10:
.Ltmp15:
	.loc	1 245 9                         @ rt-thread/components/net/lwip-2.0.2/src/netif/ppp/polarssl/md5.c:245:9
	ldr	r0, [sp, #12]
.Ltmp16:
	.loc	1 245 9 is_stmt 0               @ rt-thread/components/net/lwip-2.0.2/src/netif/ppp/polarssl/md5.c:245:9
	cmp	r0, #1
	blt	.LBB1_12
	b	.LBB1_11
.LBB1_11:
.Ltmp17:
	.loc	1 247 9 is_stmt 1               @ rt-thread/components/net/lwip-2.0.2/src/netif/ppp/polarssl/md5.c:247:9
	ldr	r0, [sp, #20]
	ldr	r1, [sp, #4]
	add	r0, r1
	adds	r0, #24
	ldr	r1, [sp, #16]
	ldr	r2, [sp, #12]
	bl	__aeabi_memcpy
	.loc	1 249 5                         @ rt-thread/components/net/lwip-2.0.2/src/netif/ppp/polarssl/md5.c:249:5
	b	.LBB1_12
.Ltmp18:
.LBB1_12:
	.loc	1 250 1                         @ rt-thread/components/net/lwip-2.0.2/src/netif/ppp/polarssl/md5.c:250:1
	add	sp, #24
	pop	{r7, pc}
.Ltmp19:
.Lfunc_end1:
	.size	md5_update, .Lfunc_end1-md5_update
	.cfi_endproc
	.cantunwind
	.fnend
                                        @ -- End function
	.section	.text.md5_process,"ax",%progbits
	.p2align	3                               @ -- Begin function md5_process
	.type	md5_process,%function
	.code	16                              @ @md5_process
	.thumb_func
md5_process:
.Lfunc_begin2:
	.loc	1 86 0                          @ rt-thread/components/net/lwip-2.0.2/src/netif/ppp/polarssl/md5.c:86:0
	.fnstart
	.cfi_startproc
@ %bb.0:
	.pad	#88
	sub	sp, #88
	.cfi_def_cfa_offset 88
	str	r0, [sp, #84]
	str	r1, [sp, #80]
.Ltmp20:
	.loc	1 89 5 prologue_end             @ rt-thread/components/net/lwip-2.0.2/src/netif/ppp/polarssl/md5.c:89:5
	ldr	r0, [sp, #80]
	ldr	r0, [r0]
	str	r0, [sp, #16]
.Ltmp21:
	.loc	1 90 5                          @ rt-thread/components/net/lwip-2.0.2/src/netif/ppp/polarssl/md5.c:90:5
	ldr	r0, [sp, #80]
	ldr	r0, [r0, #4]
	str	r0, [sp, #20]
.Ltmp22:
	.loc	1 91 5                          @ rt-thread/components/net/lwip-2.0.2/src/netif/ppp/polarssl/md5.c:91:5
	ldr	r0, [sp, #80]
	ldr	r0, [r0, #8]
	str	r0, [sp, #24]
.Ltmp23:
	.loc	1 92 5                          @ rt-thread/components/net/lwip-2.0.2/src/netif/ppp/polarssl/md5.c:92:5
	ldr	r0, [sp, #80]
	ldr	r0, [r0, #12]
	str	r0, [sp, #28]
.Ltmp24:
	.loc	1 93 5                          @ rt-thread/components/net/lwip-2.0.2/src/netif/ppp/polarssl/md5.c:93:5
	ldr	r0, [sp, #80]
	ldr	r0, [r0, #16]
	str	r0, [sp, #32]
.Ltmp25:
	.loc	1 94 5                          @ rt-thread/components/net/lwip-2.0.2/src/netif/ppp/polarssl/md5.c:94:5
	ldr	r0, [sp, #80]
	ldr	r0, [r0, #20]
	str	r0, [sp, #36]
.Ltmp26:
	.loc	1 95 5                          @ rt-thread/components/net/lwip-2.0.2/src/netif/ppp/polarssl/md5.c:95:5
	ldr	r0, [sp, #80]
	ldr	r0, [r0, #24]
	str	r0, [sp, #40]
.Ltmp27:
	.loc	1 96 5                          @ rt-thread/components/net/lwip-2.0.2/src/netif/ppp/polarssl/md5.c:96:5
	ldr	r0, [sp, #80]
	ldr	r0, [r0, #28]
	str	r0, [sp, #44]
.Ltmp28:
	.loc	1 97 5                          @ rt-thread/components/net/lwip-2.0.2/src/netif/ppp/polarssl/md5.c:97:5
	ldr	r0, [sp, #80]
	ldr	r0, [r0, #32]
	str	r0, [sp, #48]
.Ltmp29:
	.loc	1 98 5                          @ rt-thread/components/net/lwip-2.0.2/src/netif/ppp/polarssl/md5.c:98:5
	ldr	r0, [sp, #80]
	ldr	r0, [r0, #36]
	str	r0, [sp, #52]
.Ltmp30:
	.loc	1 99 5                          @ rt-thread/components/net/lwip-2.0.2/src/netif/ppp/polarssl/md5.c:99:5
	ldr	r0, [sp, #80]
	ldr	r0, [r0, #40]
	str	r0, [sp, #56]
.Ltmp31:
	.loc	1 100 5                         @ rt-thread/components/net/lwip-2.0.2/src/netif/ppp/polarssl/md5.c:100:5
	ldr	r0, [sp, #80]
	ldr	r0, [r0, #44]
	str	r0, [sp, #60]
.Ltmp32:
	.loc	1 101 5                         @ rt-thread/components/net/lwip-2.0.2/src/netif/ppp/polarssl/md5.c:101:5
	ldr	r0, [sp, #80]
	ldr	r0, [r0, #48]
	str	r0, [sp, #64]
.Ltmp33:
	.loc	1 102 5                         @ rt-thread/components/net/lwip-2.0.2/src/netif/ppp/polarssl/md5.c:102:5
	ldr	r0, [sp, #80]
	ldr	r0, [r0, #52]
	str	r0, [sp, #68]
.Ltmp34:
	.loc	1 103 5                         @ rt-thread/components/net/lwip-2.0.2/src/netif/ppp/polarssl/md5.c:103:5
	ldr	r0, [sp, #80]
	ldr	r0, [r0, #56]
	str	r0, [sp, #72]
.Ltmp35:
	.loc	1 104 5                         @ rt-thread/components/net/lwip-2.0.2/src/netif/ppp/polarssl/md5.c:104:5
	ldr	r0, [sp, #80]
	ldr	r0, [r0, #60]
	str	r0, [sp, #76]
.Ltmp36:
	.loc	1 113 9                         @ rt-thread/components/net/lwip-2.0.2/src/netif/ppp/polarssl/md5.c:113:9
	ldr	r0, [sp, #84]
	ldr	r0, [r0, #8]
	.loc	1 113 7 is_stmt 0               @ rt-thread/components/net/lwip-2.0.2/src/netif/ppp/polarssl/md5.c:113:7
	str	r0, [sp, #12]
	.loc	1 114 9 is_stmt 1               @ rt-thread/components/net/lwip-2.0.2/src/netif/ppp/polarssl/md5.c:114:9
	ldr	r0, [sp, #84]
	ldr	r0, [r0, #12]
	.loc	1 114 7 is_stmt 0               @ rt-thread/components/net/lwip-2.0.2/src/netif/ppp/polarssl/md5.c:114:7
	str	r0, [sp, #8]
	.loc	1 115 9 is_stmt 1               @ rt-thread/components/net/lwip-2.0.2/src/netif/ppp/polarssl/md5.c:115:9
	ldr	r0, [sp, #84]
	ldr	r0, [r0, #16]
	.loc	1 115 7 is_stmt 0               @ rt-thread/components/net/lwip-2.0.2/src/netif/ppp/polarssl/md5.c:115:7
	str	r0, [sp, #4]
	.loc	1 116 9 is_stmt 1               @ rt-thread/components/net/lwip-2.0.2/src/netif/ppp/polarssl/md5.c:116:9
	ldr	r0, [sp, #84]
	ldr	r0, [r0, #20]
	.loc	1 116 7 is_stmt 0               @ rt-thread/components/net/lwip-2.0.2/src/netif/ppp/polarssl/md5.c:116:7
	str	r0, [sp]
.Ltmp37:
	.loc	1 120 5 is_stmt 1               @ rt-thread/components/net/lwip-2.0.2/src/netif/ppp/polarssl/md5.c:120:5
	ldr	r0, [sp]
	ldr	r1, [sp, #8]
	ldr	r2, [sp, #4]
	eors	r2, r0
	ands	r1, r2
	eors	r0, r1
	ldr	r1, [sp, #16]
	add	r0, r1
	ldr	r1, [sp, #12]
	add	r0, r1
	movw	r1, #42104
	movt	r1, #55146
	add	r0, r1
	str	r0, [sp, #12]
	ldr	r1, [sp, #12]
	ldr	r0, [sp, #8]
	add.w	r0, r0, r1, ror #25
	str	r0, [sp, #12]
.Ltmp38:
	.loc	1 121 5                         @ rt-thread/components/net/lwip-2.0.2/src/netif/ppp/polarssl/md5.c:121:5
	ldr	r0, [sp, #4]
	ldr	r1, [sp, #12]
	ldr	r2, [sp, #8]
	eors	r2, r0
	ands	r1, r2
	eors	r0, r1
	ldr	r1, [sp, #20]
	add	r0, r1
	ldr	r1, [sp]
	add	r0, r1
	movw	r1, #46934
	movt	r1, #59591
	add	r0, r1
	str	r0, [sp]
	ldr	r1, [sp]
	ldr	r0, [sp, #12]
	add.w	r0, r0, r1, ror #20
	str	r0, [sp]
.Ltmp39:
	.loc	1 122 5                         @ rt-thread/components/net/lwip-2.0.2/src/netif/ppp/polarssl/md5.c:122:5
	ldr	r0, [sp, #8]
	ldr	r1, [sp]
	ldr	r2, [sp, #12]
	eors	r2, r0
	ands	r1, r2
	eors	r0, r1
	ldr	r1, [sp, #24]
	add	r0, r1
	ldr	r1, [sp, #4]
	add	r0, r1
	movw	r1, #28891
	movt	r1, #9248
	add	r0, r1
	str	r0, [sp, #4]
	ldr	r1, [sp, #4]
	ldr	r0, [sp]
	add.w	r0, r0, r1, ror #15
	str	r0, [sp, #4]
.Ltmp40:
	.loc	1 123 5                         @ rt-thread/components/net/lwip-2.0.2/src/netif/ppp/polarssl/md5.c:123:5
	ldr	r0, [sp, #12]
	ldr	r1, [sp, #4]
	ldr	r2, [sp]
	eors	r2, r0
	ands	r1, r2
	eors	r0, r1
	ldr	r1, [sp, #28]
	add	r0, r1
	ldr	r1, [sp, #8]
	add	r0, r1
	movw	r1, #52974
	movt	r1, #49597
	add	r0, r1
	str	r0, [sp, #8]
	ldr	r1, [sp, #8]
	ldr	r0, [sp, #4]
	add.w	r0, r0, r1, ror #10
	str	r0, [sp, #8]
.Ltmp41:
	.loc	1 124 5                         @ rt-thread/components/net/lwip-2.0.2/src/netif/ppp/polarssl/md5.c:124:5
	ldr	r0, [sp]
	ldr	r1, [sp, #8]
	ldr	r2, [sp, #4]
	eors	r2, r0
	ands	r1, r2
	eors	r0, r1
	ldr	r1, [sp, #32]
	add	r0, r1
	ldr	r1, [sp, #12]
	add	r0, r1
	movw	r1, #4015
	movt	r1, #62844
	add	r0, r1
	str	r0, [sp, #12]
	ldr	r1, [sp, #12]
	ldr	r0, [sp, #8]
	add.w	r0, r0, r1, ror #25
	str	r0, [sp, #12]
.Ltmp42:
	.loc	1 125 5                         @ rt-thread/components/net/lwip-2.0.2/src/netif/ppp/polarssl/md5.c:125:5
	ldr	r0, [sp, #4]
	ldr	r1, [sp, #12]
	ldr	r2, [sp, #8]
	eors	r2, r0
	ands	r1, r2
	eors	r0, r1
	ldr	r1, [sp, #36]
	add	r0, r1
	ldr	r1, [sp]
	add	r0, r1
	movw	r1, #50730
	movt	r1, #18311
	add	r0, r1
	str	r0, [sp]
	ldr	r1, [sp]
	ldr	r0, [sp, #12]
	add.w	r0, r0, r1, ror #20
	str	r0, [sp]
.Ltmp43:
	.loc	1 126 5                         @ rt-thread/components/net/lwip-2.0.2/src/netif/ppp/polarssl/md5.c:126:5
	ldr	r0, [sp, #8]
	ldr	r1, [sp]
	ldr	r2, [sp, #12]
	eors	r2, r0
	ands	r1, r2
	eors	r0, r1
	ldr	r1, [sp, #40]
	add	r0, r1
	ldr	r1, [sp, #4]
	add	r0, r1
	movw	r1, #17939
	movt	r1, #43056
	add	r0, r1
	str	r0, [sp, #4]
	ldr	r1, [sp, #4]
	ldr	r0, [sp]
	add.w	r0, r0, r1, ror #15
	str	r0, [sp, #4]
.Ltmp44:
	.loc	1 127 5                         @ rt-thread/components/net/lwip-2.0.2/src/netif/ppp/polarssl/md5.c:127:5
	ldr	r0, [sp, #12]
	ldr	r1, [sp, #4]
	ldr	r2, [sp]
	eors	r2, r0
	ands	r1, r2
	eors	r0, r1
	ldr	r1, [sp, #44]
	add	r0, r1
	ldr	r1, [sp, #8]
	add	r0, r1
	movw	r1, #38145
	movt	r1, #64838
	add	r0, r1
	str	r0, [sp, #8]
	ldr	r1, [sp, #8]
	ldr	r0, [sp, #4]
	add.w	r0, r0, r1, ror #10
	str	r0, [sp, #8]
.Ltmp45:
	.loc	1 128 5                         @ rt-thread/components/net/lwip-2.0.2/src/netif/ppp/polarssl/md5.c:128:5
	ldr	r0, [sp]
	ldr	r1, [sp, #8]
	ldr	r2, [sp, #4]
	eors	r2, r0
	ands	r1, r2
	eors	r0, r1
	ldr	r1, [sp, #48]
	add	r0, r1
	ldr	r1, [sp, #12]
	add	r0, r1
	movw	r1, #39128
	movt	r1, #27008
	add	r0, r1
	str	r0, [sp, #12]
	ldr	r1, [sp, #12]
	ldr	r0, [sp, #8]
	add.w	r0, r0, r1, ror #25
	str	r0, [sp, #12]
.Ltmp46:
	.loc	1 129 5                         @ rt-thread/components/net/lwip-2.0.2/src/netif/ppp/polarssl/md5.c:129:5
	ldr	r0, [sp, #4]
	ldr	r1, [sp, #12]
	ldr	r2, [sp, #8]
	eors	r2, r0
	ands	r1, r2
	eors	r0, r1
	ldr	r1, [sp, #52]
	add	r0, r1
	ldr	r1, [sp]
	add	r0, r1
	movw	r1, #63407
	movt	r1, #35652
	add	r0, r1
	str	r0, [sp]
	ldr	r1, [sp]
	ldr	r0, [sp, #12]
	add.w	r0, r0, r1, ror #20
	str	r0, [sp]
.Ltmp47:
	.loc	1 130 5                         @ rt-thread/components/net/lwip-2.0.2/src/netif/ppp/polarssl/md5.c:130:5
	ldr	r0, [sp, #8]
	ldr	r1, [sp]
	ldr	r2, [sp, #12]
	eors	r2, r0
	ands	r1, r2
	eors	r0, r1
	ldr	r1, [sp, #56]
	add	r0, r1
	ldr	r1, [sp, #4]
	add	r0, r1
	movw	r1, #42063
	subs	r0, r0, r1
	str	r0, [sp, #4]
	ldr	r1, [sp, #4]
	ldr	r0, [sp]
	add.w	r0, r0, r1, ror #15
	str	r0, [sp, #4]
.Ltmp48:
	.loc	1 131 5                         @ rt-thread/components/net/lwip-2.0.2/src/netif/ppp/polarssl/md5.c:131:5
	ldr	r0, [sp, #12]
	ldr	r1, [sp, #4]
	ldr	r2, [sp]
	eors	r2, r0
	ands	r1, r2
	eors	r0, r1
	ldr	r1, [sp, #60]
	add	r0, r1
	ldr	r1, [sp, #8]
	add	r0, r1
	movw	r1, #55230
	movt	r1, #35164
	add	r0, r1
	str	r0, [sp, #8]
	ldr	r1, [sp, #8]
	ldr	r0, [sp, #4]
	add.w	r0, r0, r1, ror #10
	str	r0, [sp, #8]
.Ltmp49:
	.loc	1 132 5                         @ rt-thread/components/net/lwip-2.0.2/src/netif/ppp/polarssl/md5.c:132:5
	ldr	r0, [sp]
	ldr	r1, [sp, #8]
	ldr	r2, [sp, #4]
	eors	r2, r0
	ands	r1, r2
	eors	r0, r1
	ldr	r1, [sp, #64]
	add	r0, r1
	ldr	r1, [sp, #12]
	add	r0, r1
	movw	r1, #4386
	movt	r1, #27536
	add	r0, r1
	str	r0, [sp, #12]
	ldr	r1, [sp, #12]
	ldr	r0, [sp, #8]
	add.w	r0, r0, r1, ror #25
	str	r0, [sp, #12]
.Ltmp50:
	.loc	1 133 5                         @ rt-thread/components/net/lwip-2.0.2/src/netif/ppp/polarssl/md5.c:133:5
	ldr	r0, [sp, #4]
	ldr	r1, [sp, #12]
	ldr	r2, [sp, #8]
	eors	r2, r0
	ands	r1, r2
	eors	r0, r1
	ldr	r1, [sp, #68]
	add	r0, r1
	ldr	r1, [sp]
	add	r0, r1
	movw	r1, #29075
	movt	r1, #64920
	add	r0, r1
	str	r0, [sp]
	ldr	r1, [sp]
	ldr	r0, [sp, #12]
	add.w	r0, r0, r1, ror #20
	str	r0, [sp]
.Ltmp51:
	.loc	1 134 5                         @ rt-thread/components/net/lwip-2.0.2/src/netif/ppp/polarssl/md5.c:134:5
	ldr	r0, [sp, #8]
	ldr	r1, [sp]
	ldr	r2, [sp, #12]
	eors	r2, r0
	ands	r1, r2
	eors	r0, r1
	ldr	r1, [sp, #72]
	add	r0, r1
	ldr	r1, [sp, #4]
	add	r0, r1
	movw	r1, #17294
	movt	r1, #42617
	add	r0, r1
	str	r0, [sp, #4]
	ldr	r1, [sp, #4]
	ldr	r0, [sp]
	add.w	r0, r0, r1, ror #15
	str	r0, [sp, #4]
.Ltmp52:
	.loc	1 135 5                         @ rt-thread/components/net/lwip-2.0.2/src/netif/ppp/polarssl/md5.c:135:5
	ldr	r0, [sp, #12]
	ldr	r1, [sp, #4]
	ldr	r2, [sp]
	eors	r2, r0
	ands	r1, r2
	eors	r0, r1
	ldr	r1, [sp, #76]
	add	r0, r1
	ldr	r1, [sp, #8]
	add	r0, r1
	movw	r1, #2081
	movt	r1, #18868
	add	r0, r1
	str	r0, [sp, #8]
	ldr	r1, [sp, #8]
	ldr	r0, [sp, #4]
	add.w	r0, r0, r1, ror #10
	str	r0, [sp, #8]
.Ltmp53:
	.loc	1 141 5                         @ rt-thread/components/net/lwip-2.0.2/src/netif/ppp/polarssl/md5.c:141:5
	ldr	r0, [sp, #4]
	ldr	r1, [sp]
	ldr	r2, [sp, #8]
	eors	r2, r0
	ands	r1, r2
	eors	r0, r1
	ldr	r1, [sp, #20]
	add	r0, r1
	ldr	r1, [sp, #12]
	add	r0, r1
	movw	r1, #9570
	movt	r1, #63006
	add	r0, r1
	str	r0, [sp, #12]
	ldr	r1, [sp, #12]
	ldr	r0, [sp, #8]
	add.w	r0, r0, r1, ror #27
	str	r0, [sp, #12]
.Ltmp54:
	.loc	1 142 5                         @ rt-thread/components/net/lwip-2.0.2/src/netif/ppp/polarssl/md5.c:142:5
	ldr	r0, [sp, #8]
	ldr	r1, [sp, #4]
	ldr	r2, [sp, #12]
	eors	r2, r0
	ands	r1, r2
	eors	r0, r1
	ldr	r1, [sp, #40]
	add	r0, r1
	ldr	r1, [sp]
	add	r0, r1
	movw	r1, #45888
	movt	r1, #49216
	add	r0, r1
	str	r0, [sp]
	ldr	r1, [sp]
	ldr	r0, [sp, #12]
	add.w	r0, r0, r1, ror #23
	str	r0, [sp]
.Ltmp55:
	.loc	1 143 5                         @ rt-thread/components/net/lwip-2.0.2/src/netif/ppp/polarssl/md5.c:143:5
	ldr	r0, [sp, #12]
	ldr	r1, [sp, #8]
	ldr	r2, [sp]
	eors	r2, r0
	ands	r1, r2
	eors	r0, r1
	ldr	r1, [sp, #60]
	add	r0, r1
	ldr	r1, [sp, #4]
	add	r0, r1
	movw	r1, #23121
	movt	r1, #9822
	add	r0, r1
	str	r0, [sp, #4]
	ldr	r1, [sp, #4]
	ldr	r0, [sp]
	add.w	r0, r0, r1, ror #18
	str	r0, [sp, #4]
.Ltmp56:
	.loc	1 144 5                         @ rt-thread/components/net/lwip-2.0.2/src/netif/ppp/polarssl/md5.c:144:5
	ldr	r0, [sp]
	ldr	r1, [sp, #12]
	ldr	r2, [sp, #4]
	eors	r2, r0
	ands	r1, r2
	eors	r0, r1
	ldr	r1, [sp, #16]
	add	r0, r1
	ldr	r1, [sp, #8]
	add	r0, r1
	movw	r1, #51114
	movt	r1, #59830
	add	r0, r1
	str	r0, [sp, #8]
	ldr	r1, [sp, #8]
	ldr	r0, [sp, #4]
	add.w	r0, r0, r1, ror #12
	str	r0, [sp, #8]
.Ltmp57:
	.loc	1 145 5                         @ rt-thread/components/net/lwip-2.0.2/src/netif/ppp/polarssl/md5.c:145:5
	ldr	r0, [sp, #4]
	ldr	r1, [sp]
	ldr	r2, [sp, #8]
	eors	r2, r0
	ands	r1, r2
	eors	r0, r1
	ldr	r1, [sp, #36]
	add	r0, r1
	ldr	r1, [sp, #12]
	add	r0, r1
	movw	r1, #4189
	movt	r1, #54831
	add	r0, r1
	str	r0, [sp, #12]
	ldr	r1, [sp, #12]
	ldr	r0, [sp, #8]
	add.w	r0, r0, r1, ror #27
	str	r0, [sp, #12]
.Ltmp58:
	.loc	1 146 5                         @ rt-thread/components/net/lwip-2.0.2/src/netif/ppp/polarssl/md5.c:146:5
	ldr	r0, [sp, #8]
	ldr	r1, [sp, #4]
	ldr	r2, [sp, #12]
	eors	r2, r0
	ands	r1, r2
	eors	r0, r1
	ldr	r1, [sp, #56]
	add	r0, r1
	ldr	r1, [sp]
	add	r0, r1
	movw	r1, #5203
	movt	r1, #580
	add	r0, r1
	str	r0, [sp]
	ldr	r1, [sp]
	ldr	r0, [sp, #12]
	add.w	r0, r0, r1, ror #23
	str	r0, [sp]
.Ltmp59:
	.loc	1 147 5                         @ rt-thread/components/net/lwip-2.0.2/src/netif/ppp/polarssl/md5.c:147:5
	ldr	r0, [sp, #12]
	ldr	r1, [sp, #8]
	ldr	r2, [sp]
	eors	r2, r0
	ands	r1, r2
	eors	r0, r1
	ldr	r1, [sp, #76]
	add	r0, r1
	ldr	r1, [sp, #4]
	add	r0, r1
	movw	r1, #59009
	movt	r1, #55457
	add	r0, r1
	str	r0, [sp, #4]
	ldr	r1, [sp, #4]
	ldr	r0, [sp]
	add.w	r0, r0, r1, ror #18
	str	r0, [sp, #4]
.Ltmp60:
	.loc	1 148 5                         @ rt-thread/components/net/lwip-2.0.2/src/netif/ppp/polarssl/md5.c:148:5
	ldr	r0, [sp]
	ldr	r1, [sp, #12]
	ldr	r2, [sp, #4]
	eors	r2, r0
	ands	r1, r2
	eors	r0, r1
	ldr	r1, [sp, #32]
	add	r0, r1
	ldr	r1, [sp, #8]
	add	r0, r1
	movw	r1, #64456
	movt	r1, #59347
	add	r0, r1
	str	r0, [sp, #8]
	ldr	r1, [sp, #8]
	ldr	r0, [sp, #4]
	add.w	r0, r0, r1, ror #12
	str	r0, [sp, #8]
.Ltmp61:
	.loc	1 149 5                         @ rt-thread/components/net/lwip-2.0.2/src/netif/ppp/polarssl/md5.c:149:5
	ldr	r0, [sp, #4]
	ldr	r1, [sp]
	ldr	r2, [sp, #8]
	eors	r2, r0
	ands	r1, r2
	eors	r0, r1
	ldr	r1, [sp, #52]
	add	r0, r1
	ldr	r1, [sp, #12]
	add	r0, r1
	movw	r1, #52710
	movt	r1, #8673
	add	r0, r1
	str	r0, [sp, #12]
	ldr	r1, [sp, #12]
	ldr	r0, [sp, #8]
	add.w	r0, r0, r1, ror #27
	str	r0, [sp, #12]
.Ltmp62:
	.loc	1 150 5                         @ rt-thread/components/net/lwip-2.0.2/src/netif/ppp/polarssl/md5.c:150:5
	ldr	r0, [sp, #8]
	ldr	r1, [sp, #4]
	ldr	r2, [sp, #12]
	eors	r2, r0
	ands	r1, r2
	eors	r0, r1
	ldr	r1, [sp, #72]
	add	r0, r1
	ldr	r1, [sp]
	add	r0, r1
	movw	r1, #2006
	movt	r1, #49975
	add	r0, r1
	str	r0, [sp]
	ldr	r1, [sp]
	ldr	r0, [sp, #12]
	add.w	r0, r0, r1, ror #23
	str	r0, [sp]
.Ltmp63:
	.loc	1 151 5                         @ rt-thread/components/net/lwip-2.0.2/src/netif/ppp/polarssl/md5.c:151:5
	ldr	r0, [sp, #12]
	ldr	r1, [sp, #8]
	ldr	r2, [sp]
	eors	r2, r0
	ands	r1, r2
	eors	r0, r1
	ldr	r1, [sp, #28]
	add	r0, r1
	ldr	r1, [sp, #4]
	add	r0, r1
	movw	r1, #3463
	movt	r1, #62677
	add	r0, r1
	str	r0, [sp, #4]
	ldr	r1, [sp, #4]
	ldr	r0, [sp]
	add.w	r0, r0, r1, ror #18
	str	r0, [sp, #4]
.Ltmp64:
	.loc	1 152 5                         @ rt-thread/components/net/lwip-2.0.2/src/netif/ppp/polarssl/md5.c:152:5
	ldr	r0, [sp]
	ldr	r1, [sp, #12]
	ldr	r2, [sp, #4]
	eors	r2, r0
	ands	r1, r2
	eors	r0, r1
	ldr	r1, [sp, #48]
	add	r0, r1
	ldr	r1, [sp, #8]
	add	r0, r1
	movw	r1, #5357
	movt	r1, #17754
	add	r0, r1
	str	r0, [sp, #8]
	ldr	r1, [sp, #8]
	ldr	r0, [sp, #4]
	add.w	r0, r0, r1, ror #12
	str	r0, [sp, #8]
.Ltmp65:
	.loc	1 153 5                         @ rt-thread/components/net/lwip-2.0.2/src/netif/ppp/polarssl/md5.c:153:5
	ldr	r0, [sp, #4]
	ldr	r1, [sp]
	ldr	r2, [sp, #8]
	eors	r2, r0
	ands	r1, r2
	eors	r0, r1
	ldr	r1, [sp, #68]
	add	r0, r1
	ldr	r1, [sp, #12]
	add	r0, r1
	movw	r1, #59653
	movt	r1, #43491
	add	r0, r1
	str	r0, [sp, #12]
	ldr	r1, [sp, #12]
	ldr	r0, [sp, #8]
	add.w	r0, r0, r1, ror #27
	str	r0, [sp, #12]
.Ltmp66:
	.loc	1 154 5                         @ rt-thread/components/net/lwip-2.0.2/src/netif/ppp/polarssl/md5.c:154:5
	ldr	r0, [sp, #8]
	ldr	r1, [sp, #4]
	ldr	r2, [sp, #12]
	eors	r2, r0
	ands	r1, r2
	eors	r0, r1
	ldr	r1, [sp, #24]
	add	r0, r1
	ldr	r1, [sp]
	add	r0, r1
	movw	r1, #41976
	movt	r1, #64751
	add	r0, r1
	str	r0, [sp]
	ldr	r1, [sp]
	ldr	r0, [sp, #12]
	add.w	r0, r0, r1, ror #23
	str	r0, [sp]
.Ltmp67:
	.loc	1 155 5                         @ rt-thread/components/net/lwip-2.0.2/src/netif/ppp/polarssl/md5.c:155:5
	ldr	r0, [sp, #12]
	ldr	r1, [sp, #8]
	ldr	r2, [sp]
	eors	r2, r0
	ands	r1, r2
	eors	r0, r1
	ldr	r1, [sp, #44]
	add	r0, r1
	ldr	r1, [sp, #4]
	add	r0, r1
	movw	r1, #729
	movt	r1, #26479
	add	r0, r1
	str	r0, [sp, #4]
	ldr	r1, [sp, #4]
	ldr	r0, [sp]
	add.w	r0, r0, r1, ror #18
	str	r0, [sp, #4]
.Ltmp68:
	.loc	1 156 5                         @ rt-thread/components/net/lwip-2.0.2/src/netif/ppp/polarssl/md5.c:156:5
	ldr	r0, [sp]
	ldr	r1, [sp, #12]
	ldr	r2, [sp, #4]
	eors	r2, r0
	ands	r1, r2
	eors	r0, r1
	ldr	r1, [sp, #64]
	add	r0, r1
	ldr	r1, [sp, #8]
	add	r0, r1
	movw	r1, #19594
	movt	r1, #36138
	add	r0, r1
	str	r0, [sp, #8]
	ldr	r1, [sp, #8]
	ldr	r0, [sp, #4]
	add.w	r0, r0, r1, ror #12
	str	r0, [sp, #8]
.Ltmp69:
	.loc	1 162 5                         @ rt-thread/components/net/lwip-2.0.2/src/netif/ppp/polarssl/md5.c:162:5
	ldr	r0, [sp, #8]
	ldr	r1, [sp, #4]
	eors	r0, r1
	ldr	r1, [sp]
	eors	r0, r1
	ldr	r1, [sp, #36]
	add	r0, r1
	ldr	r1, [sp, #12]
	add	r0, r1
	movw	r1, #14658
	movt	r1, #65530
	add	r0, r1
	str	r0, [sp, #12]
	ldr	r1, [sp, #12]
	ldr	r0, [sp, #8]
	add.w	r0, r0, r1, ror #28
	str	r0, [sp, #12]
.Ltmp70:
	.loc	1 163 5                         @ rt-thread/components/net/lwip-2.0.2/src/netif/ppp/polarssl/md5.c:163:5
	ldr	r0, [sp, #12]
	ldr	r1, [sp, #8]
	eors	r0, r1
	ldr	r1, [sp, #4]
	eors	r0, r1
	ldr	r1, [sp, #48]
	add	r0, r1
	ldr	r1, [sp]
	add	r0, r1
	movw	r1, #63105
	movt	r1, #34673
	add	r0, r1
	str	r0, [sp]
	ldr	r1, [sp]
	ldr	r0, [sp, #12]
	add.w	r0, r0, r1, ror #21
	str	r0, [sp]
.Ltmp71:
	.loc	1 164 5                         @ rt-thread/components/net/lwip-2.0.2/src/netif/ppp/polarssl/md5.c:164:5
	ldr	r0, [sp]
	ldr	r1, [sp, #12]
	eors	r0, r1
	ldr	r1, [sp, #8]
	eors	r0, r1
	ldr	r1, [sp, #60]
	add	r0, r1
	ldr	r1, [sp, #4]
	add	r0, r1
	movw	r1, #24866
	movt	r1, #28061
	add	r0, r1
	str	r0, [sp, #4]
	ldr	r1, [sp, #4]
	ldr	r0, [sp]
	add.w	r0, r0, r1, ror #16
	str	r0, [sp, #4]
.Ltmp72:
	.loc	1 165 5                         @ rt-thread/components/net/lwip-2.0.2/src/netif/ppp/polarssl/md5.c:165:5
	ldr	r0, [sp, #4]
	ldr	r1, [sp]
	eors	r0, r1
	ldr	r1, [sp, #12]
	eors	r0, r1
	ldr	r1, [sp, #72]
	add	r0, r1
	ldr	r1, [sp, #8]
	add	r0, r1
	movw	r1, #14348
	movt	r1, #64997
	add	r0, r1
	str	r0, [sp, #8]
	ldr	r1, [sp, #8]
	ldr	r0, [sp, #4]
	add.w	r0, r0, r1, ror #9
	str	r0, [sp, #8]
.Ltmp73:
	.loc	1 166 5                         @ rt-thread/components/net/lwip-2.0.2/src/netif/ppp/polarssl/md5.c:166:5
	ldr	r0, [sp, #8]
	ldr	r1, [sp, #4]
	eors	r0, r1
	ldr	r1, [sp]
	eors	r0, r1
	ldr	r1, [sp, #20]
	add	r0, r1
	ldr	r1, [sp, #12]
	add	r0, r1
	movw	r1, #59972
	movt	r1, #42174
	add	r0, r1
	str	r0, [sp, #12]
	ldr	r1, [sp, #12]
	ldr	r0, [sp, #8]
	add.w	r0, r0, r1, ror #28
	str	r0, [sp, #12]
.Ltmp74:
	.loc	1 167 5                         @ rt-thread/components/net/lwip-2.0.2/src/netif/ppp/polarssl/md5.c:167:5
	ldr	r0, [sp, #12]
	ldr	r1, [sp, #8]
	eors	r0, r1
	ldr	r1, [sp, #4]
	eors	r0, r1
	ldr	r1, [sp, #32]
	add	r0, r1
	ldr	r1, [sp]
	add	r0, r1
	movw	r1, #53161
	movt	r1, #19422
	add	r0, r1
	str	r0, [sp]
	ldr	r1, [sp]
	ldr	r0, [sp, #12]
	add.w	r0, r0, r1, ror #21
	str	r0, [sp]
.Ltmp75:
	.loc	1 168 5                         @ rt-thread/components/net/lwip-2.0.2/src/netif/ppp/polarssl/md5.c:168:5
	ldr	r0, [sp]
	ldr	r1, [sp, #12]
	eors	r0, r1
	ldr	r1, [sp, #8]
	eors	r0, r1
	ldr	r1, [sp, #44]
	add	r0, r1
	ldr	r1, [sp, #4]
	add	r0, r1
	movw	r1, #19296
	movt	r1, #63163
	add	r0, r1
	str	r0, [sp, #4]
	ldr	r1, [sp, #4]
	ldr	r0, [sp]
	add.w	r0, r0, r1, ror #16
	str	r0, [sp, #4]
.Ltmp76:
	.loc	1 169 5                         @ rt-thread/components/net/lwip-2.0.2/src/netif/ppp/polarssl/md5.c:169:5
	ldr	r0, [sp, #4]
	ldr	r1, [sp]
	eors	r0, r1
	ldr	r1, [sp, #12]
	eors	r0, r1
	ldr	r1, [sp, #56]
	add	r0, r1
	ldr	r1, [sp, #8]
	add	r0, r1
	movw	r1, #48240
	movt	r1, #48831
	add	r0, r1
	str	r0, [sp, #8]
	ldr	r1, [sp, #8]
	ldr	r0, [sp, #4]
	add.w	r0, r0, r1, ror #9
	str	r0, [sp, #8]
.Ltmp77:
	.loc	1 170 5                         @ rt-thread/components/net/lwip-2.0.2/src/netif/ppp/polarssl/md5.c:170:5
	ldr	r0, [sp, #8]
	ldr	r1, [sp, #4]
	eors	r0, r1
	ldr	r1, [sp]
	eors	r0, r1
	ldr	r1, [sp, #68]
	add	r0, r1
	ldr	r1, [sp, #12]
	add	r0, r1
	movw	r1, #32454
	movt	r1, #10395
	add	r0, r1
	str	r0, [sp, #12]
	ldr	r1, [sp, #12]
	ldr	r0, [sp, #8]
	add.w	r0, r0, r1, ror #28
	str	r0, [sp, #12]
.Ltmp78:
	.loc	1 171 5                         @ rt-thread/components/net/lwip-2.0.2/src/netif/ppp/polarssl/md5.c:171:5
	ldr	r0, [sp, #12]
	ldr	r1, [sp, #8]
	eors	r0, r1
	ldr	r1, [sp, #4]
	eors	r0, r1
	ldr	r1, [sp, #16]
	add	r0, r1
	ldr	r1, [sp]
	add	r0, r1
	movw	r1, #10234
	movt	r1, #60065
	add	r0, r1
	str	r0, [sp]
	ldr	r1, [sp]
	ldr	r0, [sp, #12]
	add.w	r0, r0, r1, ror #21
	str	r0, [sp]
.Ltmp79:
	.loc	1 172 5                         @ rt-thread/components/net/lwip-2.0.2/src/netif/ppp/polarssl/md5.c:172:5
	ldr	r0, [sp]
	ldr	r1, [sp, #12]
	eors	r0, r1
	ldr	r1, [sp, #8]
	eors	r0, r1
	ldr	r1, [sp, #28]
	add	r0, r1
	ldr	r1, [sp, #4]
	add	r0, r1
	movw	r1, #12421
	movt	r1, #54511
	add	r0, r1
	str	r0, [sp, #4]
	ldr	r1, [sp, #4]
	ldr	r0, [sp]
	add.w	r0, r0, r1, ror #16
	str	r0, [sp, #4]
.Ltmp80:
	.loc	1 173 5                         @ rt-thread/components/net/lwip-2.0.2/src/netif/ppp/polarssl/md5.c:173:5
	ldr	r0, [sp, #4]
	ldr	r1, [sp]
	eors	r0, r1
	ldr	r1, [sp, #12]
	eors	r0, r1
	ldr	r1, [sp, #40]
	add	r0, r1
	ldr	r1, [sp, #8]
	add	r0, r1
	movw	r1, #7429
	movt	r1, #1160
	add	r0, r1
	str	r0, [sp, #8]
	ldr	r1, [sp, #8]
	ldr	r0, [sp, #4]
	add.w	r0, r0, r1, ror #9
	str	r0, [sp, #8]
.Ltmp81:
	.loc	1 174 5                         @ rt-thread/components/net/lwip-2.0.2/src/netif/ppp/polarssl/md5.c:174:5
	ldr	r0, [sp, #8]
	ldr	r1, [sp, #4]
	eors	r0, r1
	ldr	r1, [sp]
	eors	r0, r1
	ldr	r1, [sp, #52]
	add	r0, r1
	ldr	r1, [sp, #12]
	add	r0, r1
	movw	r1, #53305
	movt	r1, #55764
	add	r0, r1
	str	r0, [sp, #12]
	ldr	r1, [sp, #12]
	ldr	r0, [sp, #8]
	add.w	r0, r0, r1, ror #28
	str	r0, [sp, #12]
.Ltmp82:
	.loc	1 175 5                         @ rt-thread/components/net/lwip-2.0.2/src/netif/ppp/polarssl/md5.c:175:5
	ldr	r0, [sp, #12]
	ldr	r1, [sp, #8]
	eors	r0, r1
	ldr	r1, [sp, #4]
	eors	r0, r1
	ldr	r1, [sp, #64]
	add	r0, r1
	ldr	r1, [sp]
	add	r0, r1
	movw	r1, #39397
	movt	r1, #59099
	add	r0, r1
	str	r0, [sp]
	ldr	r1, [sp]
	ldr	r0, [sp, #12]
	add.w	r0, r0, r1, ror #21
	str	r0, [sp]
.Ltmp83:
	.loc	1 176 5                         @ rt-thread/components/net/lwip-2.0.2/src/netif/ppp/polarssl/md5.c:176:5
	ldr	r0, [sp]
	ldr	r1, [sp, #12]
	eors	r0, r1
	ldr	r1, [sp, #8]
	eors	r0, r1
	ldr	r1, [sp, #76]
	add	r0, r1
	ldr	r1, [sp, #4]
	add	r0, r1
	movw	r1, #31992
	movt	r1, #8098
	add	r0, r1
	str	r0, [sp, #4]
	ldr	r1, [sp, #4]
	ldr	r0, [sp]
	add.w	r0, r0, r1, ror #16
	str	r0, [sp, #4]
.Ltmp84:
	.loc	1 177 5                         @ rt-thread/components/net/lwip-2.0.2/src/netif/ppp/polarssl/md5.c:177:5
	ldr	r0, [sp, #4]
	ldr	r1, [sp]
	eors	r0, r1
	ldr	r1, [sp, #12]
	eors	r0, r1
	ldr	r1, [sp, #24]
	add	r0, r1
	ldr	r1, [sp, #8]
	add	r0, r1
	movw	r1, #22117
	movt	r1, #50348
	add	r0, r1
	str	r0, [sp, #8]
	ldr	r1, [sp, #8]
	ldr	r0, [sp, #4]
	add.w	r0, r0, r1, ror #9
	str	r0, [sp, #8]
.Ltmp85:
	.loc	1 183 5                         @ rt-thread/components/net/lwip-2.0.2/src/netif/ppp/polarssl/md5.c:183:5
	ldr	r0, [sp, #4]
	ldr	r1, [sp, #8]
	ldr	r2, [sp]
	orn	r1, r1, r2
	eors	r0, r1
	ldr	r1, [sp, #16]
	add	r0, r1
	ldr	r1, [sp, #12]
	add	r0, r1
	movw	r1, #8772
	movt	r1, #62505
	add	r0, r1
	str	r0, [sp, #12]
	ldr	r1, [sp, #12]
	ldr	r0, [sp, #8]
	add.w	r0, r0, r1, ror #26
	str	r0, [sp, #12]
.Ltmp86:
	.loc	1 184 5                         @ rt-thread/components/net/lwip-2.0.2/src/netif/ppp/polarssl/md5.c:184:5
	ldr	r0, [sp, #8]
	ldr	r1, [sp, #12]
	ldr	r2, [sp, #4]
	orn	r1, r1, r2
	eors	r0, r1
	ldr	r1, [sp, #44]
	add	r0, r1
	ldr	r1, [sp]
	add	r0, r1
	movw	r1, #65431
	movt	r1, #17194
	add	r0, r1
	str	r0, [sp]
	ldr	r1, [sp]
	ldr	r0, [sp, #12]
	add.w	r0, r0, r1, ror #22
	str	r0, [sp]
.Ltmp87:
	.loc	1 185 5                         @ rt-thread/components/net/lwip-2.0.2/src/netif/ppp/polarssl/md5.c:185:5
	ldr	r0, [sp, #12]
	ldr	r1, [sp]
	ldr	r2, [sp, #8]
	orn	r1, r1, r2
	eors	r0, r1
	ldr	r1, [sp, #72]
	add	r0, r1
	ldr	r1, [sp, #4]
	add	r0, r1
	movw	r1, #9127
	movt	r1, #43924
	add	r0, r1
	str	r0, [sp, #4]
	ldr	r1, [sp, #4]
	ldr	r0, [sp]
	add.w	r0, r0, r1, ror #17
	str	r0, [sp, #4]
.Ltmp88:
	.loc	1 186 5                         @ rt-thread/components/net/lwip-2.0.2/src/netif/ppp/polarssl/md5.c:186:5
	ldr	r0, [sp]
	ldr	r1, [sp, #4]
	ldr	r2, [sp, #12]
	orn	r1, r1, r2
	eors	r0, r1
	ldr	r1, [sp, #36]
	add	r0, r1
	ldr	r1, [sp, #8]
	add	r0, r1
	movw	r1, #41017
	movt	r1, #64659
	add	r0, r1
	str	r0, [sp, #8]
	ldr	r1, [sp, #8]
	ldr	r0, [sp, #4]
	add.w	r0, r0, r1, ror #11
	str	r0, [sp, #8]
.Ltmp89:
	.loc	1 187 5                         @ rt-thread/components/net/lwip-2.0.2/src/netif/ppp/polarssl/md5.c:187:5
	ldr	r0, [sp, #4]
	ldr	r1, [sp, #8]
	ldr	r2, [sp]
	orn	r1, r1, r2
	eors	r0, r1
	ldr	r1, [sp, #64]
	add	r0, r1
	ldr	r1, [sp, #12]
	add	r0, r1
	movw	r1, #22979
	movt	r1, #25947
	add	r0, r1
	str	r0, [sp, #12]
	ldr	r1, [sp, #12]
	ldr	r0, [sp, #8]
	add.w	r0, r0, r1, ror #26
	str	r0, [sp, #12]
.Ltmp90:
	.loc	1 188 5                         @ rt-thread/components/net/lwip-2.0.2/src/netif/ppp/polarssl/md5.c:188:5
	ldr	r0, [sp, #8]
	ldr	r1, [sp, #12]
	ldr	r2, [sp, #4]
	orn	r1, r1, r2
	eors	r0, r1
	ldr	r1, [sp, #28]
	add	r0, r1
	ldr	r1, [sp]
	add	r0, r1
	movw	r1, #52370
	movt	r1, #36620
	add	r0, r1
	str	r0, [sp]
	ldr	r1, [sp]
	ldr	r0, [sp, #12]
	add.w	r0, r0, r1, ror #22
	str	r0, [sp]
.Ltmp91:
	.loc	1 189 5                         @ rt-thread/components/net/lwip-2.0.2/src/netif/ppp/polarssl/md5.c:189:5
	ldr	r0, [sp, #12]
	ldr	r1, [sp]
	ldr	r2, [sp, #8]
	orn	r1, r1, r2
	eors	r0, r1
	ldr	r1, [sp, #56]
	add	r0, r1
	ldr	r1, [sp, #4]
	add	r0, r1
	movw	r1, #62589
	movt	r1, #65519
	add	r0, r1
	str	r0, [sp, #4]
	ldr	r1, [sp, #4]
	ldr	r0, [sp]
	add.w	r0, r0, r1, ror #17
	str	r0, [sp, #4]
.Ltmp92:
	.loc	1 190 5                         @ rt-thread/components/net/lwip-2.0.2/src/netif/ppp/polarssl/md5.c:190:5
	ldr	r0, [sp]
	ldr	r1, [sp, #4]
	ldr	r2, [sp, #12]
	orn	r1, r1, r2
	eors	r0, r1
	ldr	r1, [sp, #20]
	add	r0, r1
	ldr	r1, [sp, #8]
	add	r0, r1
	movw	r1, #24017
	movt	r1, #34180
	add	r0, r1
	str	r0, [sp, #8]
	ldr	r1, [sp, #8]
	ldr	r0, [sp, #4]
	add.w	r0, r0, r1, ror #11
	str	r0, [sp, #8]
.Ltmp93:
	.loc	1 191 5                         @ rt-thread/components/net/lwip-2.0.2/src/netif/ppp/polarssl/md5.c:191:5
	ldr	r0, [sp, #4]
	ldr	r1, [sp, #8]
	ldr	r2, [sp]
	orn	r1, r1, r2
	eors	r0, r1
	ldr	r1, [sp, #48]
	add	r0, r1
	ldr	r1, [sp, #12]
	add	r0, r1
	movw	r1, #32335
	movt	r1, #28584
	add	r0, r1
	str	r0, [sp, #12]
	ldr	r1, [sp, #12]
	ldr	r0, [sp, #8]
	add.w	r0, r0, r1, ror #26
	str	r0, [sp, #12]
.Ltmp94:
	.loc	1 192 5                         @ rt-thread/components/net/lwip-2.0.2/src/netif/ppp/polarssl/md5.c:192:5
	ldr	r0, [sp, #8]
	ldr	r1, [sp, #12]
	ldr	r2, [sp, #4]
	orn	r1, r1, r2
	eors	r0, r1
	ldr	r1, [sp, #76]
	add	r0, r1
	ldr	r1, [sp]
	add	r0, r1
	movw	r1, #59104
	movt	r1, #65068
	add	r0, r1
	str	r0, [sp]
	ldr	r1, [sp]
	ldr	r0, [sp, #12]
	add.w	r0, r0, r1, ror #22
	str	r0, [sp]
.Ltmp95:
	.loc	1 193 5                         @ rt-thread/components/net/lwip-2.0.2/src/netif/ppp/polarssl/md5.c:193:5
	ldr	r0, [sp, #12]
	ldr	r1, [sp]
	ldr	r2, [sp, #8]
	orn	r1, r1, r2
	eors	r0, r1
	ldr	r1, [sp, #40]
	add	r0, r1
	ldr	r1, [sp, #4]
	add	r0, r1
	movw	r1, #17172
	movt	r1, #41729
	add	r0, r1
	str	r0, [sp, #4]
	ldr	r1, [sp, #4]
	ldr	r0, [sp]
	add.w	r0, r0, r1, ror #17
	str	r0, [sp, #4]
.Ltmp96:
	.loc	1 194 5                         @ rt-thread/components/net/lwip-2.0.2/src/netif/ppp/polarssl/md5.c:194:5
	ldr	r0, [sp]
	ldr	r1, [sp, #4]
	ldr	r2, [sp, #12]
	orn	r1, r1, r2
	eors	r0, r1
	ldr	r1, [sp, #68]
	add	r0, r1
	ldr	r1, [sp, #8]
	add	r0, r1
	movw	r1, #4513
	movt	r1, #19976
	add	r0, r1
	str	r0, [sp, #8]
	ldr	r1, [sp, #8]
	ldr	r0, [sp, #4]
	add.w	r0, r0, r1, ror #11
	str	r0, [sp, #8]
.Ltmp97:
	.loc	1 195 5                         @ rt-thread/components/net/lwip-2.0.2/src/netif/ppp/polarssl/md5.c:195:5
	ldr	r0, [sp, #4]
	ldr	r1, [sp, #8]
	ldr	r2, [sp]
	orn	r1, r1, r2
	eors	r0, r1
	ldr	r1, [sp, #32]
	add	r0, r1
	ldr	r1, [sp, #12]
	add	r0, r1
	movw	r1, #32386
	movt	r1, #63315
	add	r0, r1
	str	r0, [sp, #12]
	ldr	r1, [sp, #12]
	ldr	r0, [sp, #8]
	add.w	r0, r0, r1, ror #26
	str	r0, [sp, #12]
.Ltmp98:
	.loc	1 196 5                         @ rt-thread/components/net/lwip-2.0.2/src/netif/ppp/polarssl/md5.c:196:5
	ldr	r0, [sp, #8]
	ldr	r1, [sp, #12]
	ldr	r2, [sp, #4]
	orn	r1, r1, r2
	eors	r0, r1
	ldr	r1, [sp, #60]
	add	r0, r1
	ldr	r1, [sp]
	add	r0, r1
	movw	r1, #62005
	movt	r1, #48442
	add	r0, r1
	str	r0, [sp]
	ldr	r1, [sp]
	ldr	r0, [sp, #12]
	add.w	r0, r0, r1, ror #22
	str	r0, [sp]
.Ltmp99:
	.loc	1 197 5                         @ rt-thread/components/net/lwip-2.0.2/src/netif/ppp/polarssl/md5.c:197:5
	ldr	r0, [sp, #12]
	ldr	r1, [sp]
	ldr	r2, [sp, #8]
	orn	r1, r1, r2
	eors	r0, r1
	ldr	r1, [sp, #24]
	add	r0, r1
	ldr	r1, [sp, #4]
	add	r0, r1
	movw	r1, #53947
	movt	r1, #10967
	add	r0, r1
	str	r0, [sp, #4]
	ldr	r1, [sp, #4]
	ldr	r0, [sp]
	add.w	r0, r0, r1, ror #17
	str	r0, [sp, #4]
.Ltmp100:
	.loc	1 198 5                         @ rt-thread/components/net/lwip-2.0.2/src/netif/ppp/polarssl/md5.c:198:5
	ldr	r0, [sp]
	ldr	r1, [sp, #4]
	ldr	r2, [sp, #12]
	orn	r1, r1, r2
	eors	r0, r1
	ldr	r1, [sp, #52]
	add	r0, r1
	ldr	r1, [sp, #8]
	add	r0, r1
	movw	r1, #54161
	movt	r1, #60294
	add	r0, r1
	str	r0, [sp, #8]
	ldr	r1, [sp, #8]
	ldr	r0, [sp, #4]
	add.w	r0, r0, r1, ror #11
	str	r0, [sp, #8]
.Ltmp101:
	.loc	1 202 22                        @ rt-thread/components/net/lwip-2.0.2/src/netif/ppp/polarssl/md5.c:202:22
	ldr	r2, [sp, #12]
	.loc	1 202 5 is_stmt 0               @ rt-thread/components/net/lwip-2.0.2/src/netif/ppp/polarssl/md5.c:202:5
	ldr	r1, [sp, #84]
	.loc	1 202 19                        @ rt-thread/components/net/lwip-2.0.2/src/netif/ppp/polarssl/md5.c:202:19
	ldr	r0, [r1, #8]
	add	r0, r2
	str	r0, [r1, #8]
	.loc	1 203 22 is_stmt 1              @ rt-thread/components/net/lwip-2.0.2/src/netif/ppp/polarssl/md5.c:203:22
	ldr	r2, [sp, #8]
	.loc	1 203 5 is_stmt 0               @ rt-thread/components/net/lwip-2.0.2/src/netif/ppp/polarssl/md5.c:203:5
	ldr	r1, [sp, #84]
	.loc	1 203 19                        @ rt-thread/components/net/lwip-2.0.2/src/netif/ppp/polarssl/md5.c:203:19
	ldr	r0, [r1, #12]
	add	r0, r2
	str	r0, [r1, #12]
	.loc	1 204 22 is_stmt 1              @ rt-thread/components/net/lwip-2.0.2/src/netif/ppp/polarssl/md5.c:204:22
	ldr	r2, [sp, #4]
	.loc	1 204 5 is_stmt 0               @ rt-thread/components/net/lwip-2.0.2/src/netif/ppp/polarssl/md5.c:204:5
	ldr	r1, [sp, #84]
	.loc	1 204 19                        @ rt-thread/components/net/lwip-2.0.2/src/netif/ppp/polarssl/md5.c:204:19
	ldr	r0, [r1, #16]
	add	r0, r2
	str	r0, [r1, #16]
	.loc	1 205 22 is_stmt 1              @ rt-thread/components/net/lwip-2.0.2/src/netif/ppp/polarssl/md5.c:205:22
	ldr	r2, [sp]
	.loc	1 205 5 is_stmt 0               @ rt-thread/components/net/lwip-2.0.2/src/netif/ppp/polarssl/md5.c:205:5
	ldr	r1, [sp, #84]
	.loc	1 205 19                        @ rt-thread/components/net/lwip-2.0.2/src/netif/ppp/polarssl/md5.c:205:19
	ldr	r0, [r1, #20]
	add	r0, r2
	str	r0, [r1, #20]
	.loc	1 206 1 is_stmt 1               @ rt-thread/components/net/lwip-2.0.2/src/netif/ppp/polarssl/md5.c:206:1
	add	sp, #88
	bx	lr
.Ltmp102:
.Lfunc_end2:
	.size	md5_process, .Lfunc_end2-md5_process
	.cfi_endproc
	.cantunwind
	.fnend
                                        @ -- End function
	.section	.text.md5_finish,"ax",%progbits
	.hidden	md5_finish                      @ -- Begin function md5_finish
	.globl	md5_finish
	.p2align	3
	.type	md5_finish,%function
	.code	16                              @ @md5_finish
	.thumb_func
md5_finish:
.Lfunc_begin3:
	.loc	1 264 0                         @ rt-thread/components/net/lwip-2.0.2/src/netif/ppp/polarssl/md5.c:264:0
	.fnstart
	.cfi_startproc
@ %bb.0:
	.save	{r7, lr}
	push	{r7, lr}
	.cfi_def_cfa_offset 8
	.cfi_offset lr, -4
	.cfi_offset r7, -8
	.pad	#40
	sub	sp, #40
	.cfi_def_cfa_offset 48
	str	r0, [sp, #36]
	str	r1, [sp, #32]
.Ltmp103:
	.loc	1 269 14 prologue_end           @ rt-thread/components/net/lwip-2.0.2/src/netif/ppp/polarssl/md5.c:269:14
	ldr	r1, [sp, #36]
	ldr	r0, [r1]
	.loc	1 270 14                        @ rt-thread/components/net/lwip-2.0.2/src/netif/ppp/polarssl/md5.c:270:14
	ldr	r1, [r1, #4]
	.loc	1 269 28                        @ rt-thread/components/net/lwip-2.0.2/src/netif/ppp/polarssl/md5.c:269:28
	lsrs	r0, r0, #29
	.loc	1 270 10                        @ rt-thread/components/net/lwip-2.0.2/src/netif/ppp/polarssl/md5.c:270:10
	orr.w	r0, r0, r1, lsl #3
	.loc	1 269 10                        @ rt-thread/components/net/lwip-2.0.2/src/netif/ppp/polarssl/md5.c:269:10
	str	r0, [sp, #20]
	.loc	1 271 14                        @ rt-thread/components/net/lwip-2.0.2/src/netif/ppp/polarssl/md5.c:271:14
	ldr	r0, [sp, #36]
	ldr	r0, [r0]
	.loc	1 271 28 is_stmt 0              @ rt-thread/components/net/lwip-2.0.2/src/netif/ppp/polarssl/md5.c:271:28
	lsls	r0, r0, #3
	.loc	1 271 10                        @ rt-thread/components/net/lwip-2.0.2/src/netif/ppp/polarssl/md5.c:271:10
	str	r0, [sp, #16]
.Ltmp104:
	.loc	1 273 5 is_stmt 1               @ rt-thread/components/net/lwip-2.0.2/src/netif/ppp/polarssl/md5.c:273:5
	ldr	r0, [sp, #16]
	strb.w	r0, [sp, #8]
	ldr	r0, [sp, #16]
	lsrs	r0, r0, #8
	strb.w	r0, [sp, #9]
	ldrh.w	r0, [sp, #18]
	strb.w	r0, [sp, #10]
	ldrb.w	r0, [sp, #19]
	strb.w	r0, [sp, #11]
.Ltmp105:
	.loc	1 274 5                         @ rt-thread/components/net/lwip-2.0.2/src/netif/ppp/polarssl/md5.c:274:5
	ldr	r0, [sp, #20]
	strb.w	r0, [sp, #12]
	ldr	r0, [sp, #20]
	lsrs	r0, r0, #8
	strb.w	r0, [sp, #13]
	ldrh.w	r0, [sp, #22]
	strb.w	r0, [sp, #14]
	ldrb.w	r0, [sp, #23]
	strb.w	r0, [sp, #15]
.Ltmp106:
	.loc	1 276 12                        @ rt-thread/components/net/lwip-2.0.2/src/netif/ppp/polarssl/md5.c:276:12
	ldr	r0, [sp, #36]
	ldr	r0, [r0]
	.loc	1 276 26 is_stmt 0              @ rt-thread/components/net/lwip-2.0.2/src/netif/ppp/polarssl/md5.c:276:26
	and	r0, r0, #63
	.loc	1 276 10                        @ rt-thread/components/net/lwip-2.0.2/src/netif/ppp/polarssl/md5.c:276:10
	str	r0, [sp, #28]
	.loc	1 277 14 is_stmt 1              @ rt-thread/components/net/lwip-2.0.2/src/netif/ppp/polarssl/md5.c:277:14
	ldr	r0, [sp, #28]
	.loc	1 277 12 is_stmt 0              @ rt-thread/components/net/lwip-2.0.2/src/netif/ppp/polarssl/md5.c:277:12
	cmp	r0, #55
	bhi	.LBB3_2
	b	.LBB3_1
.LBB3_1:
	.loc	1 277 35                        @ rt-thread/components/net/lwip-2.0.2/src/netif/ppp/polarssl/md5.c:277:35
	ldr	r0, [sp, #28]
	.loc	1 277 33                        @ rt-thread/components/net/lwip-2.0.2/src/netif/ppp/polarssl/md5.c:277:33
	rsb.w	r0, r0, #56
	.loc	1 277 12                        @ rt-thread/components/net/lwip-2.0.2/src/netif/ppp/polarssl/md5.c:277:12
	str	r0, [sp, #4]                    @ 4-byte Spill
	b	.LBB3_3
.LBB3_2:
	.loc	1 277 52                        @ rt-thread/components/net/lwip-2.0.2/src/netif/ppp/polarssl/md5.c:277:52
	ldr	r0, [sp, #28]
	.loc	1 277 50                        @ rt-thread/components/net/lwip-2.0.2/src/netif/ppp/polarssl/md5.c:277:50
	rsb.w	r0, r0, #120
	.loc	1 277 12                        @ rt-thread/components/net/lwip-2.0.2/src/netif/ppp/polarssl/md5.c:277:12
	str	r0, [sp, #4]                    @ 4-byte Spill
	b	.LBB3_3
.LBB3_3:
	ldr	r0, [sp, #4]                    @ 4-byte Reload
	.loc	1 277 10                        @ rt-thread/components/net/lwip-2.0.2/src/netif/ppp/polarssl/md5.c:277:10
	str	r0, [sp, #24]
	.loc	1 279 17 is_stmt 1              @ rt-thread/components/net/lwip-2.0.2/src/netif/ppp/polarssl/md5.c:279:17
	ldr	r0, [sp, #36]
	.loc	1 279 35 is_stmt 0              @ rt-thread/components/net/lwip-2.0.2/src/netif/ppp/polarssl/md5.c:279:35
	ldr	r2, [sp, #24]
	.loc	1 279 5                         @ rt-thread/components/net/lwip-2.0.2/src/netif/ppp/polarssl/md5.c:279:5
	movw	r1, :lower16:md5_padding
	movt	r1, :upper16:md5_padding
	bl	md5_update
	.loc	1 280 17 is_stmt 1              @ rt-thread/components/net/lwip-2.0.2/src/netif/ppp/polarssl/md5.c:280:17
	ldr	r0, [sp, #36]
	add	r1, sp, #8
	movs	r2, #8
	.loc	1 280 5 is_stmt 0               @ rt-thread/components/net/lwip-2.0.2/src/netif/ppp/polarssl/md5.c:280:5
	bl	md5_update
.Ltmp107:
	.loc	1 282 5 is_stmt 1               @ rt-thread/components/net/lwip-2.0.2/src/netif/ppp/polarssl/md5.c:282:5
	ldr	r0, [sp, #36]
	ldr	r0, [r0, #8]
	ldr	r1, [sp, #32]
	strb	r0, [r1]
	ldr	r0, [sp, #36]
	ldr	r0, [r0, #8]
	lsrs	r0, r0, #8
	ldr	r1, [sp, #32]
	strb	r0, [r1, #1]
	ldr	r0, [sp, #36]
	ldrh	r0, [r0, #10]
	ldr	r1, [sp, #32]
	strb	r0, [r1, #2]
	ldr	r0, [sp, #36]
	ldrb	r0, [r0, #11]
	ldr	r1, [sp, #32]
	strb	r0, [r1, #3]
.Ltmp108:
	.loc	1 283 5                         @ rt-thread/components/net/lwip-2.0.2/src/netif/ppp/polarssl/md5.c:283:5
	ldr	r0, [sp, #36]
	ldr	r0, [r0, #12]
	ldr	r1, [sp, #32]
	strb	r0, [r1, #4]
	ldr	r0, [sp, #36]
	ldr	r0, [r0, #12]
	lsrs	r0, r0, #8
	ldr	r1, [sp, #32]
	strb	r0, [r1, #5]
	ldr	r0, [sp, #36]
	ldrh	r0, [r0, #14]
	ldr	r1, [sp, #32]
	strb	r0, [r1, #6]
	ldr	r0, [sp, #36]
	ldrb	r0, [r0, #15]
	ldr	r1, [sp, #32]
	strb	r0, [r1, #7]
.Ltmp109:
	.loc	1 284 5                         @ rt-thread/components/net/lwip-2.0.2/src/netif/ppp/polarssl/md5.c:284:5
	ldr	r0, [sp, #36]
	ldr	r0, [r0, #16]
	ldr	r1, [sp, #32]
	strb	r0, [r1, #8]
	ldr	r0, [sp, #36]
	ldr	r0, [r0, #16]
	lsrs	r0, r0, #8
	ldr	r1, [sp, #32]
	strb	r0, [r1, #9]
	ldr	r0, [sp, #36]
	ldrh	r0, [r0, #18]
	ldr	r1, [sp, #32]
	strb	r0, [r1, #10]
	ldr	r0, [sp, #36]
	ldrb	r0, [r0, #19]
	ldr	r1, [sp, #32]
	strb	r0, [r1, #11]
.Ltmp110:
	.loc	1 285 5                         @ rt-thread/components/net/lwip-2.0.2/src/netif/ppp/polarssl/md5.c:285:5
	ldr	r0, [sp, #36]
	ldr	r0, [r0, #20]
	ldr	r1, [sp, #32]
	strb	r0, [r1, #12]
	ldr	r0, [sp, #36]
	ldr	r0, [r0, #20]
	lsrs	r0, r0, #8
	ldr	r1, [sp, #32]
	strb	r0, [r1, #13]
	ldr	r0, [sp, #36]
	ldrh	r0, [r0, #22]
	ldr	r1, [sp, #32]
	strb	r0, [r1, #14]
	ldr	r0, [sp, #36]
	ldrb	r0, [r0, #23]
	ldr	r1, [sp, #32]
	strb	r0, [r1, #15]
.Ltmp111:
	.loc	1 286 1                         @ rt-thread/components/net/lwip-2.0.2/src/netif/ppp/polarssl/md5.c:286:1
	add	sp, #40
	pop	{r7, pc}
.Ltmp112:
.Lfunc_end3:
	.size	md5_finish, .Lfunc_end3-md5_finish
	.cfi_endproc
	.cantunwind
	.fnend
                                        @ -- End function
	.section	.text.md5,"ax",%progbits
	.hidden	md5                             @ -- Begin function md5
	.globl	md5
	.p2align	3
	.type	md5,%function
	.code	16                              @ @md5
	.thumb_func
md5:
.Lfunc_begin4:
	.loc	1 292 0                         @ rt-thread/components/net/lwip-2.0.2/src/netif/ppp/polarssl/md5.c:292:0
	.fnstart
	.cfi_startproc
@ %bb.0:
	.save	{r7, lr}
	push	{r7, lr}
	.cfi_def_cfa_offset 8
	.cfi_offset lr, -4
	.cfi_offset r7, -8
	.pad	#104
	sub	sp, #104
	.cfi_def_cfa_offset 112
	str	r0, [sp, #100]
	str	r1, [sp, #96]
	str	r2, [sp, #92]
	add	r0, sp, #4
.Ltmp113:
	.loc	1 295 5 prologue_end            @ rt-thread/components/net/lwip-2.0.2/src/netif/ppp/polarssl/md5.c:295:5
	str	r0, [sp]                        @ 4-byte Spill
	bl	md5_starts
	ldr	r0, [sp]                        @ 4-byte Reload
	.loc	1 296 23                        @ rt-thread/components/net/lwip-2.0.2/src/netif/ppp/polarssl/md5.c:296:23
	ldr	r1, [sp, #100]
	.loc	1 296 30 is_stmt 0              @ rt-thread/components/net/lwip-2.0.2/src/netif/ppp/polarssl/md5.c:296:30
	ldr	r2, [sp, #96]
	.loc	1 296 5                         @ rt-thread/components/net/lwip-2.0.2/src/netif/ppp/polarssl/md5.c:296:5
	bl	md5_update
	ldr	r0, [sp]                        @ 4-byte Reload
	.loc	1 297 23 is_stmt 1              @ rt-thread/components/net/lwip-2.0.2/src/netif/ppp/polarssl/md5.c:297:23
	ldr	r1, [sp, #92]
	.loc	1 297 5 is_stmt 0               @ rt-thread/components/net/lwip-2.0.2/src/netif/ppp/polarssl/md5.c:297:5
	bl	md5_finish
	.loc	1 298 1 is_stmt 1               @ rt-thread/components/net/lwip-2.0.2/src/netif/ppp/polarssl/md5.c:298:1
	add	sp, #104
	pop	{r7, pc}
.Ltmp114:
.Lfunc_end4:
	.size	md5, .Lfunc_end4-md5
	.cfi_endproc
	.cantunwind
	.fnend
                                        @ -- End function
	.type	md5_padding,%object             @ @md5_padding
	.section	.rodata.md5_padding,"a",%progbits
md5_padding:
	.byte	128                             @ 0x80
	.zero	63
	.size	md5_padding, 64

	.file	2 "E:\\STM32\\Learning\\STM32H750_ART_PI_RGBLCD" "./rt-thread/components/net/lwip-2.0.2/src/include\\netif/ppp/polarssl/md5.h"
	.section	".note.GNU-stack","",%progbits
	.eabi_attribute	30, 6	@ Tag_ABI_optimization_goals
	.ARM_attribute	16, 1	@ Tag_AV_eba