	.text
	.syntax unified
	.eabi_attribute	67, "2.09"	@ Tag_conformance
	.cpu	cortex-m7
	.eabi_attribute	6, 13	@ Tag_CPU_arch
	.eabi_attribute	7, 77	@ Tag_CPU_arch_profile
	.eabi_attribute	8, 0	@ Tag_ARM_ISA_use
	.eabi_attribute	9, 2	@ Tag_THUMB_ISA_use
	.fpu	fpv5-d16
	.eabi_attribute	36, 1	@ Tag_FP_HP_extension
	.eabi_attribute	34, 1	@ Tag_CPU_unaligned_access
	.eabi_attribute	17, 1	@ Tag_ABI_PCS_GOT_use
	.eabi_attribute	20, 2	@ Tag_ABI_FP_denormal
	.eabi_attribute	21, 0	@ Tag_ABI_FP_exceptions
	.eabi_attribute	23, 1	@ Tag_ABI_FP_number_model
	.eabi_attribute	24, 1	@ Tag_ABI_align_needed
	.eabi_attribute	25, 1	@ Tag_ABI_align_preserved
	.eabi_attribute	28, 1	@ Tag_ABI_VFP_args
	.eabi_attribute	38, 1	@ Tag_ABI_FP_16bit_format
	.eabi_attribute	18, 2	@ Tag_ABI_PCS_wchar_t
	.eabi_attribute	26, 1	@ Tag_ABI_enum_size
	.eabi_attribute	14, 0	@ Tag_ABI_PCS_R9_use
	.file	"memheap.c"
	.file	1 "E:\\Smart-access-control\\Hardware\\CODE" "rt-thread/include\\rtdef.h"
	.file	2 "E:\\Smart-access-control\\Hardware\\CODE" "rt-thread/src/memheap.c"
	.section	.text.rt_memheap_init,"ax",%progbits
	.hidden	rt_memheap_init                 @ -- Begin function rt_memheap_init
	.globl	rt_memheap_init
	.p2align	3
	.type	rt_memheap_init,%function
	.code	16                              @ @rt_memheap_init
	.thumb_func
rt_memheap_init:
.Lfunc_begin0:
	.loc	2 54 0                          @ rt-thread/src/memheap.c:54:0
	.fnstart
	.cfi_sections .debug_frame
	.cfi_startproc
@ %bb.0:
	@DEBUG_VALUE: rt_memheap_init:memheap <- $r0
	@DEBUG_VALUE: rt_memheap_init:name <- $r1
	@DEBUG_VALUE: rt_memheap_init:start_addr <- $r2
	@DEBUG_VALUE: rt_memheap_init:size <- $r3
	.save	{r4, r5, r6, r7, lr}
	push	{r4, r5, r6, r7, lr}
	.cfi_def_cfa_offset 20
	.cfi_offset lr, -4
	.cfi_offset r7, -8
	.cfi_offset r6, -12
	.cfi_offset r5, -16
	.cfi_offset r4, -20
	.pad	#4
	sub	sp, #4
	.cfi_def_cfa_offset 24
	mov	r5, r0
.Ltmp0:
	@DEBUG_VALUE: rt_memheap_init:memheap <- $r5
	mov	r7, r3
.Ltmp1:
	@DEBUG_VALUE: rt_memheap_init:size <- $r7
	@DEBUG_VALUE: rt_memheap_init:size <- $r7
	mov	r6, r2
.Ltmp2:
	@DEBUG_VALUE: rt_memheap_init:start_addr <- $r6
	@DEBUG_VALUE: rt_memheap_init:start_addr <- $r6
	mov	r4, r1
.Ltmp3:
	@DEBUG_VALUE: rt_memheap_init:name <- $r4
	@DEBUG_VALUE: rt_memheap_init:name <- $r4
	.loc	2 57 5 prologue_end             @ rt-thread/src/memheap.c:57:5
	cbnz	r0, .LBB0_2
.Ltmp4:
@ %bb.1:
	@DEBUG_VALUE: rt_memheap_init:size <- $r7
	@DEBUG_VALUE: rt_memheap_init:start_addr <- $r6
	@DEBUG_VALUE: rt_memheap_init:memheap <- $r5
	@DEBUG_VALUE: rt_memheap_init:name <- $r4
	.loc	2 57 5 is_stmt 0                @ rt-thread/src/memheap.c:57:5
	adr	r0, .LCPI0_0
	adr	r1, .LCPI0_1
	movs	r2, #57
	bl	rt_assert_handler
.Ltmp5:
.LBB0_2:
	@DEBUG_VALUE: rt_memheap_init:size <- $r7
	@DEBUG_VALUE: rt_memheap_init:start_addr <- $r6
	@DEBUG_VALUE: rt_memheap_init:memheap <- $r5
	@DEBUG_VALUE: rt_memheap_init:name <- $r4
	.loc	2 60 5 is_stmt 1                @ rt-thread/src/memheap.c:60:5
	movs	r1, #7
	mov	r0, r5
	mov	r2, r4
	bl	rt_object_init
	.loc	2 63 31                         @ rt-thread/src/memheap.c:63:31
	bic	r0, r7, #3
	.loc	2 69 21                         @ rt-thread/src/memheap.c:69:21
	mov	r2, r5
	.loc	2 64 50                         @ rt-thread/src/memheap.c:64:50
	sub.w	r1, r0, #48
	.loc	2 63 29                         @ rt-thread/src/memheap.c:63:29
	str	r0, [r5, #24]
	movs	r0, #48
	.loc	2 70 21                         @ rt-thread/src/memheap.c:70:21
	str	r5, [r5, #48]
	.loc	2 64 29                         @ rt-thread/src/memheap.c:64:29
	strd	r1, r0, [r5, #28]
	movw	r0, #7840
	.loc	2 89 38                         @ rt-thread/src/memheap.c:89:38
	add	r1, r6
	movt	r0, #7840
	.loc	2 69 21                         @ rt-thread/src/memheap.c:69:21
	str	r0, [r2, #44]!
.Ltmp6:
	@DEBUG_VALUE: rt_memheap_init:item <- $r2
	.loc	2 73 21                         @ rt-thread/src/memheap.c:73:21
	strd	r2, r2, [r5, #60]
	.loc	2 85 21                         @ rt-thread/src/memheap.c:85:21
	str	r6, [r6, #16]
	movs	r3, #0
	.loc	2 81 21                         @ rt-thread/src/memheap.c:81:21
	strd	r0, r5, [r6]
	.loc	2 106 21                        @ rt-thread/src/memheap.c:106:21
	adds	r0, #1
	str	r0, [r1, #24]!
.Ltmp7:
	@DEBUG_VALUE: rt_memheap_init:item <- $r1
	.loc	2 96 43                         @ rt-thread/src/memheap.c:96:43
	ldr	r0, [r5, #60]
	.loc	2 96 21 is_stmt 0               @ rt-thread/src/memheap.c:96:21
	str	r0, [r6, #16]
	.loc	2 98 25 is_stmt 1               @ rt-thread/src/memheap.c:98:25
	ldr	r0, [r5, #60]
	.loc	2 77 24                         @ rt-thread/src/memheap.c:77:24
	str	r2, [r5, #40]
.Ltmp8:
	@DEBUG_VALUE: rt_memheap_init:item <- $r6
	.loc	2 71 21                         @ rt-thread/src/memheap.c:71:21
	strd	r3, r3, [r5, #52]
	.loc	2 83 21                         @ rt-thread/src/memheap.c:83:21
	strd	r3, r3, [r6, #8]
	.loc	2 86 21                         @ rt-thread/src/memheap.c:86:21
	str	r6, [r6, #20]
	.loc	2 88 16                         @ rt-thread/src/memheap.c:88:16
	strd	r1, r1, [r6, #8]
	.loc	2 97 21                         @ rt-thread/src/memheap.c:97:21
	str	r2, [r6, #20]
	.loc	2 114 5                         @ rt-thread/src/memheap.c:114:5
	movs	r2, #1
	.loc	2 98 46                         @ rt-thread/src/memheap.c:98:46
	str	r6, [r0, #20]
	.loc	2 114 28                        @ rt-thread/src/memheap.c:114:28
	add.w	r0, r5, #68
	.loc	2 99 46                         @ rt-thread/src/memheap.c:99:46
	str	r6, [r5, #60]
	.loc	2 107 21                        @ rt-thread/src/memheap.c:107:21
	strd	r5, r6, [r1, #4]
	.loc	2 109 21                        @ rt-thread/src/memheap.c:109:21
	strd	r6, r3, [r1, #12]
	.loc	2 111 39                        @ rt-thread/src/memheap.c:111:39
	str	r3, [r1, #20]
	.loc	2 114 5                         @ rt-thread/src/memheap.c:114:5
	movs	r3, #0
	mov	r1, r4
	.loc	2 62 29                         @ rt-thread/src/memheap.c:62:29
	str	r6, [r5, #20]
	.loc	2 93 25                         @ rt-thread/src/memheap.c:93:25
	str	r6, [r5, #36]
	.loc	2 114 5                         @ rt-thread/src/memheap.c:114:5
	bl	rt_sem_init
	.loc	2 120 5                         @ rt-thread/src/memheap.c:120:5
	movs	r0, #0
	add	sp, #4
	pop	{r4, r5, r6, r7, pc}
.Ltmp9:
	.p2align	2
@ %bb.3:
	.loc	2 0 5 is_stmt 0                 @ rt-thread/src/memheap.c:0:5
.LCPI0_0:
.L.str:
	.asciz	"memheap != RT_NULL\000"
.LCPI0_1:
.L__FUNCTION__.rt_memheap_init:
	.asciz	"rt_memheap_init"
.Lfunc_end0:
	.size	rt_memheap_init, .Lfunc_end0-rt_memheap_init
	.cfi_endproc
	.cantunwind
	.fnend
                                        @ -- End function
	.section	.text.rt_memheap_detach,"ax",%progbits
	.hidden	rt_memheap_detach               @ -- Begin function rt_memheap_detach
	.globl	rt_memheap_detach
	.p2align	3
	.type	rt_memheap_detach,%function
	.code	16                              @ @rt_memheap_detach
	.thumb_func
rt_memheap_detach:
.Lfunc_begin1:
	.loc	2 125 0 is_stmt 1               @ rt-thread/src/memheap.c:125:0
	.fnstart
	.cfi_startproc
@ %bb.0:
	@DEBUG_VALUE: rt_memheap_detach:heap <- $r0
	.save	{r4, lr}
	push	{r4, lr}
	.cfi_def_cfa_offset 8
	.cfi_offset lr, -4
	.cfi_offset r4, -8
	mov	r4, r0
.Ltmp10:
	@DEBUG_VALUE: rt_memheap_detach:heap <- $r4
	.loc	2 126 5 prologue_end            @ rt-thread/src/memheap.c:126:5
	cbnz	r0, .LBB1_2
.Ltmp11:
@ %bb.1:
	@DEBUG_VALUE: rt_memheap_detach:heap <- $r4
	.loc	2 126 5 is_stmt 0               @ rt-thread/src/memheap.c:126:5
	movw	r0, :lower16:.L.str.1
	movw	r1, :lower16:.L__FUNCTION__.rt_memheap_detach
	movt	r0, :upper16:.L.str.1
	movt	r1, :upper16:.L__FUNCTION__.rt_memheap_detach
	movs	r2, #126
	bl	rt_assert_handler
.Ltmp12:
.LBB1_2:
	@DEBUG_VALUE: rt_memheap_detach:heap <- $r4
	.loc	2 127 5 is_stmt 1               @ rt-thread/src/memheap.c:127:5
	mov	r0, r4
	bl	rt_object_get_type
.Ltmp13:
	.loc	2 127 5 is_stmt 0               @ rt-thread/src/memheap.c:127:5
	cmp	r0, #7
	beq	.LBB1_4
.Ltmp14:
@ %bb.3:
	@DEBUG_VALUE: rt_memheap_detach:heap <- $r4
	.loc	2 127 5                         @ rt-thread/src/memheap.c:127:5
	movw	r0, :lower16:.L.str.2
	movw	r1, :lower16:.L__FUNCTION__.rt_memheap_detach
	movt	r0, :upper16:.L.str.2
	movt	r1, :upper16:.L__FUNCTION__.rt_memheap_detach
	movs	r2, #127
	bl	rt_assert_handler
.Ltmp15:
.LBB1_4:
	@DEBUG_VALUE: rt_memheap_detach:heap <- $r4
	.loc	2 128 5 is_stmt 1               @ rt-thread/src/memheap.c:128:5
	mov	r0, r4
	bl	rt_object_is_systemobject
.Ltmp16:
	.loc	2 128 5 is_stmt 0               @ rt-thread/src/memheap.c:128:5
	cbnz	r0, .LBB1_6
.Ltmp17:
@ %bb.5:
	@DEBUG_VALUE: rt_memheap_detach:heap <- $r4
	.loc	2 128 5                         @ rt-thread/src/memheap.c:128:5
	movw	r1, :lower16:.L__FUNCTION__.rt_memheap_detach
	adr	r0, .LCPI1_0
	movt	r1, :upper16:.L__FUNCTION__.rt_memheap_detach
	movs	r2, #128
	bl	rt_assert_handler
.Ltmp18:
.LBB1_6:
	@DEBUG_VALUE: rt_memheap_detach:heap <- $r4
	.loc	2 130 42 is_stmt 1              @ rt-thread/src/memheap.c:130:42
	add.w	r0, r4, #68
	.loc	2 130 5 is_stmt 0               @ rt-thread/src/memheap.c:130:5
	bl	rt_object_detach
	.loc	2 131 5 is_stmt 1               @ rt-thread/src/memheap.c:131:5
	mov	r0, r4
	bl	rt_object_detach
	.loc	2 134 5                         @ rt-thread/src/memheap.c:134:5
	movs	r0, #0
	pop	{r4, pc}
.Ltmp19:
	.p2align	2
@ %bb.7:
	.loc	2 0 5 is_stmt 0                 @ rt-thread/src/memheap.c:0:5
.LCPI1_0:
.L.str.3:
	.asciz	"rt_object_is_systemobject(&heap->parent)\000\000\000"
.Lfunc_end1:
	.size	rt_memheap_detach, .Lfunc_end1-rt_memheap_detach
	.cfi_endproc
	.cantunwind
	.fnend
                                        @ -- End function
	.section	.text.rt_memheap_alloc,"ax",%progbits
	.hidden	rt_memheap_alloc                @ -- Begin function rt_memheap_alloc
	.globl	rt_memheap_alloc
	.p2align	3
	.type	rt_memheap_alloc,%function
	.code	16                              @ @rt_memheap_alloc
	.thumb_func
rt_memheap_alloc:
.Lfunc_begin2:
	.loc	2 139 0 is_stmt 1               @ rt-thread/src/memheap.c:139:0
	.fnstart
	.cfi_startproc
@ %bb.0:
	@DEBUG_VALUE: rt_memheap_alloc:heap <- $r0
	@DEBUG_VALUE: rt_memheap_alloc:size <- $r1
	.save	{r4, r5, r6, r7, lr}
	push	{r4, r5, r6, r7, lr}
	.cfi_def_cfa_offset 20
	.cfi_offset lr, -4
	.cfi_offset r7, -8
	.cfi_offset r6, -12
	.cfi_offset r5, -16
	.cfi_offset r4, -20
	.pad	#4
	sub	sp, #4
	.cfi_def_cfa_offset 24
	mov	r4, r0
.Ltmp20:
	@DEBUG_VALUE: rt_memheap_alloc:heap <- $r4
	mov	r5, r1
.Ltmp21:
	@DEBUG_VALUE: rt_memheap_alloc:size <- $r5
	@DEBUG_VALUE: rt_memheap_alloc:size <- $r5
	.loc	2 144 5 prologue_end            @ rt-thread/src/memheap.c:144:5
	cbnz	r0, .LBB2_2
.Ltmp22:
@ %bb.1:
	@DEBUG_VALUE: rt_memheap_alloc:size <- $r5
	@DEBUG_VALUE: rt_memheap_alloc:heap <- $r4
	.loc	2 144 5 is_stmt 0               @ rt-thread/src/memheap.c:144:5
	movw	r1, :lower16:.L__FUNCTION__.rt_memheap_alloc
	adr	r0, .LCPI2_0
	movt	r1, :upper16:.L__FUNCTION__.rt_memheap_alloc
	movs	r2, #144
	bl	rt_assert_handler
.Ltmp23:
.LBB2_2:
	@DEBUG_VALUE: rt_memheap_alloc:size <- $r5
	@DEBUG_VALUE: rt_memheap_alloc:heap <- $r4
	.loc	2 145 5 is_stmt 1               @ rt-thread/src/memheap.c:145:5
	mov	r0, r4
	bl	rt_object_get_type
.Ltmp24:
	.loc	2 145 5 is_stmt 0               @ rt-thread/src/memheap.c:145:5
	cmp	r0, #7
	beq	.LBB2_4
.Ltmp25:
@ %bb.3:
	@DEBUG_VALUE: rt_memheap_alloc:size <- $r5
	@DEBUG_VALUE: rt_memheap_alloc:heap <- $r4
	.loc	2 145 5                         @ rt-thread/src/memheap.c:145:5
	movw	r0, :lower16:.L.str.2
	movw	r1, :lower16:.L__FUNCTION__.rt_memheap_alloc
	movt	r0, :upper16:.L.str.2
	movt	r1, :upper16:.L__FUNCTION__.rt_memheap_alloc
	movs	r2, #145
	bl	rt_assert_handler
.Ltmp26:
.LBB2_4:
	@DEBUG_VALUE: rt_memheap_alloc:size <- $r5
	@DEBUG_VALUE: rt_memheap_alloc:heap <- $r4
	.loc	2 148 12 is_stmt 1              @ rt-thread/src/memheap.c:148:12
	adds	r0, r5, #3
	bic	r7, r0, #3
.Ltmp27:
	@DEBUG_VALUE: rt_memheap_alloc:size <- $r7
	.loc	2 149 9                         @ rt-thread/src/memheap.c:149:9
	cmp	r7, #12
	it	ls
	movls	r7, #12
.Ltmp28:
	@DEBUG_VALUE: rt_memheap_alloc:size <- $r7
	.loc	2 155 22                        @ rt-thread/src/memheap.c:155:22
	ldr	r0, [r4, #28]
.Ltmp29:
	.loc	2 155 9 is_stmt 0               @ rt-thread/src/memheap.c:155:9
	cmp	r7, r0
	bhs	.LBB2_7
.Ltmp30:
@ %bb.5:
	@DEBUG_VALUE: rt_memheap_alloc:size <- $r7
	@DEBUG_VALUE: rt_memheap_alloc:heap <- $r4
	@DEBUG_VALUE: rt_memheap_alloc:free_size <- 0
	.loc	2 161 38 is_stmt 1              @ rt-thread/src/memheap.c:161:38
	add.w	r6, r4, #68
	.loc	2 161 18 is_stmt 0              @ rt-thread/src/memheap.c:161:18
	mov.w	r1, #-1
	mov	r0, r6
	bl	rt_sem_take
.Ltmp31:
	@DEBUG_VALUE: rt_memheap_alloc:result <- $r0
	.loc	2 162 13 is_stmt 1              @ rt-thread/src/memheap.c:162:13
	cbz	r0, .LBB2_9
.Ltmp32:
@ %bb.6:
	@DEBUG_VALUE: rt_memheap_alloc:size <- $r7
	@DEBUG_VALUE: rt_memheap_alloc:heap <- $r4
	@DEBUG_VALUE: rt_memheap_alloc:result <- $r0
	@DEBUG_VALUE: rt_memheap_alloc:free_size <- 0
	.loc	2 164 13                        @ rt-thread/src/memheap.c:164:13
	bl	rt_set_errno
.Ltmp33:
	.loc	2 0 13 is_stmt 0                @ rt-thread/src/memheap.c:0:13
	movs	r5, #0
	.loc	2 166 13 is_stmt 1              @ rt-thread/src/memheap.c:166:13
	b	.LBB2_8
.Ltmp34:
.LBB2_7:
	@DEBUG_VALUE: rt_memheap_alloc:size <- $r7
	@DEBUG_VALUE: rt_memheap_alloc:heap <- $r4
	.loc	2 0 13 is_stmt 0                @ rt-thread/src/memheap.c:0:13
	movs	r5, #0
.Ltmp35:
.LBB2_8:
	@DEBUG_VALUE: rt_memheap_alloc:heap <- $r4
	.loc	2 281 1 is_stmt 1               @ rt-thread/src/memheap.c:281:1
	mov	r0, r5
	add	sp, #4
	pop	{r4, r5, r6, r7, pc}
.Ltmp36:
.LBB2_9:
	@DEBUG_VALUE: rt_memheap_alloc:size <- $r7
	@DEBUG_VALUE: rt_memheap_alloc:heap <- $r4
	@DEBUG_VALUE: rt_memheap_alloc:result <- $r0
	@DEBUG_VALUE: rt_memheap_alloc:free_size <- 0
	.loc	2 170 28                        @ rt-thread/src/memheap.c:170:28
	ldr	r0, [r4, #40]
.Ltmp37:
	.loc	2 0 28 is_stmt 0                @ rt-thread/src/memheap.c:0:28
	movs	r1, #0
	.loc	2 170 39                        @ rt-thread/src/memheap.c:170:39
	ldr	r5, [r0, #16]
.Ltmp38:
	@DEBUG_VALUE: rt_memheap_alloc:header_ptr <- $r5
	@DEBUG_VALUE: rt_memheap_alloc:free_size <- 0
	.loc	2 171 9 is_stmt 1               @ rt-thread/src/memheap.c:171:9
	cmp	r5, r0
	beq	.LBB2_14
.Ltmp39:
	.p2align	2
.LBB2_10:                               @ =>This Inner Loop Header: Depth=1
	@DEBUG_VALUE: rt_memheap_alloc:size <- $r7
	@DEBUG_VALUE: rt_memheap_alloc:header_ptr <- $r5
	@DEBUG_VALUE: rt_memheap_alloc:heap <- $r4
	@DEBUG_VALUE: rt_memheap_alloc:header_ptr <- $r5
	.loc	2 174 25                        @ rt-thread/src/memheap.c:174:25
	ldr	r1, [r5, #8]
.Ltmp40:
	.loc	2 171 46                        @ rt-thread/src/memheap.c:171:46
	movs	r2, #0
.Ltmp41:
	.loc	2 174 25                        @ rt-thread/src/memheap.c:174:25
	subs	r1, r1, r5
	subs	r1, #24
.Ltmp42:
	@DEBUG_VALUE: rt_memheap_alloc:free_size <- $r1
	.loc	2 175 17                        @ rt-thread/src/memheap.c:175:17
	cmp	r1, r7
.Ltmp43:
	.loc	2 178 42                        @ rt-thread/src/memheap.c:178:42
	it	lo
	ldrlo	r5, [r5, #16]
.Ltmp44:
	@DEBUG_VALUE: rt_memheap_alloc:header_ptr <- $r5
	@DEBUG_VALUE: rt_memheap_alloc:free_size <- $r1
	@DEBUG_VALUE: rt_memheap_alloc:header_ptr <- $r5
	.loc	2 171 46                        @ rt-thread/src/memheap.c:171:46
	cmp	r1, r7
	it	lo
	movlo	r2, #1
	.loc	2 171 9 is_stmt 0               @ rt-thread/src/memheap.c:171:9
	bhs	.LBB2_12
.Ltmp45:
@ %bb.11:                               @   in Loop: Header=BB2_10 Depth=1
	@DEBUG_VALUE: rt_memheap_alloc:size <- $r7
	@DEBUG_VALUE: rt_memheap_alloc:header_ptr <- $r5
	@DEBUG_VALUE: rt_memheap_alloc:heap <- $r4
	@DEBUG_VALUE: rt_memheap_alloc:free_size <- $r1
	cmp	r5, r0
	bne	.LBB2_10
.Ltmp46:
.LBB2_12:
	@DEBUG_VALUE: rt_memheap_alloc:size <- $r7
	@DEBUG_VALUE: rt_memheap_alloc:header_ptr <- $r5
	@DEBUG_VALUE: rt_memheap_alloc:heap <- $r4
	@DEBUG_VALUE: rt_memheap_alloc:free_size <- $r1
	.loc	2 183 13 is_stmt 1              @ rt-thread/src/memheap.c:183:13
	cbz	r2, .LBB2_15
.Ltmp47:
.LBB2_13:
	@DEBUG_VALUE: rt_memheap_alloc:size <- $r7
	@DEBUG_VALUE: rt_memheap_alloc:header_ptr <- $r5
	@DEBUG_VALUE: rt_memheap_alloc:heap <- $r4
	.loc	2 274 9                         @ rt-thread/src/memheap.c:274:9
	mov	r0, r6
	bl	rt_sem_release
	movs	r5, #0
.Ltmp48:
	.loc	2 0 9 is_stmt 0                 @ rt-thread/src/memheap.c:0:9
	b	.LBB2_8
.Ltmp49:
.LBB2_14:
	@DEBUG_VALUE: rt_memheap_alloc:size <- $r7
	@DEBUG_VALUE: rt_memheap_alloc:header_ptr <- $r5
	@DEBUG_VALUE: rt_memheap_alloc:heap <- $r4
	@DEBUG_VALUE: rt_memheap_alloc:free_size <- 0
	movs	r2, #1
	.loc	2 183 13 is_stmt 1              @ rt-thread/src/memheap.c:183:13
	cmp	r2, #0
	bne	.LBB2_13
.Ltmp50:
.LBB2_15:
	@DEBUG_VALUE: rt_memheap_alloc:size <- $r7
	@DEBUG_VALUE: rt_memheap_alloc:header_ptr <- $r5
	@DEBUG_VALUE: rt_memheap_alloc:heap <- $r4
	.loc	2 188 54                        @ rt-thread/src/memheap.c:188:54
	add.w	r2, r7, #36
.Ltmp51:
	.loc	2 188 17 is_stmt 0              @ rt-thread/src/memheap.c:188:17
	cmp	r1, r2
	bhs	.LBB2_17
.Ltmp52:
@ %bb.16:
	@DEBUG_VALUE: rt_memheap_alloc:size <- $r7
	@DEBUG_VALUE: rt_memheap_alloc:header_ptr <- $r5
	@DEBUG_VALUE: rt_memheap_alloc:heap <- $r4
	.loc	2 241 27 is_stmt 1              @ rt-thread/src/memheap.c:241:27
	ldrd	r2, r0, [r4, #24]
.Ltmp53:
	.loc	2 240 61                        @ rt-thread/src/memheap.c:240:61
	subs	r1, r0, r1
.Ltmp54:
	.loc	2 241 68                        @ rt-thread/src/memheap.c:241:68
	ldr	r3, [r4, #32]
	.loc	2 241 37 is_stmt 0              @ rt-thread/src/memheap.c:241:37
	subs	r0, r2, r1
.Ltmp55:
	.loc	2 240 38 is_stmt 1              @ rt-thread/src/memheap.c:240:38
	str	r1, [r4, #28]
	.loc	2 241 21                        @ rt-thread/src/memheap.c:241:21
	cmp	r0, r3
.Ltmp56:
	.loc	2 242 41                        @ rt-thread/src/memheap.c:242:41
	it	hi
	strhi	r0, [r4, #32]
.Ltmp57:
	.loc	2 251 29                        @ rt-thread/src/memheap.c:251:29
	ldrd	r0, r1, [r5, #16]
	.loc	2 251 50 is_stmt 0              @ rt-thread/src/memheap.c:251:50
	str	r1, [r0, #20]
	.loc	2 252 29 is_stmt 1              @ rt-thread/src/memheap.c:252:29
	ldr	r1, [r5, #20]
	.loc	2 252 50 is_stmt 0              @ rt-thread/src/memheap.c:252:50
	str	r0, [r1, #16]
	movs	r0, #0
	.loc	2 253 39 is_stmt 1              @ rt-thread/src/memheap.c:253:39
	strd	r0, r0, [r5, #16]
	b	.LBB2_19
.Ltmp58:
.LBB2_17:
	@DEBUG_VALUE: rt_memheap_alloc:size <- $r7
	@DEBUG_VALUE: rt_memheap_alloc:header_ptr <- $r5
	@DEBUG_VALUE: rt_memheap_alloc:heap <- $r4
	.loc	2 194 55                        @ rt-thread/src/memheap.c:194:55
	adds	r1, r5, r7
	movw	r2, #7840
	.loc	2 216 29                        @ rt-thread/src/memheap.c:216:29
	ldr	r3, [r5, #16]
	movt	r2, #7840
	.loc	2 204 32                        @ rt-thread/src/memheap.c:204:32
	str	r2, [r1, #24]!
.Ltmp59:
	@DEBUG_VALUE: new_ptr <- $r1
	.loc	2 211 54                        @ rt-thread/src/memheap.c:211:54
	ldr	r2, [r5, #8]
	.loc	2 211 40 is_stmt 0              @ rt-thread/src/memheap.c:211:40
	strd	r2, r5, [r1, #8]
	.loc	2 216 64 is_stmt 1              @ rt-thread/src/memheap.c:216:64
	ldr	r2, [r5, #20]
	.loc	2 216 50 is_stmt 0              @ rt-thread/src/memheap.c:216:50
	str	r2, [r3, #20]
	.loc	2 217 29 is_stmt 1              @ rt-thread/src/memheap.c:217:29
	ldr	r2, [r5, #20]
	.loc	2 212 29                        @ rt-thread/src/memheap.c:212:29
	ldr.w	r12, [r5, #8]
	.loc	2 207 35                        @ rt-thread/src/memheap.c:207:35
	str	r4, [r1, #4]
	.loc	2 217 50                        @ rt-thread/src/memheap.c:217:50
	str	r3, [r2, #16]
	movs	r2, #0
	.loc	2 218 39                        @ rt-thread/src/memheap.c:218:39
	strd	r2, r2, [r5, #16]
	.loc	2 222 55                        @ rt-thread/src/memheap.c:222:55
	ldr	r2, [r0, #16]
	.loc	2 231 46                        @ rt-thread/src/memheap.c:231:46
	ldr	r3, [r4, #28]
	.loc	2 222 36                        @ rt-thread/src/memheap.c:222:36
	strd	r2, r0, [r1, #16]
	.loc	2 224 34                        @ rt-thread/src/memheap.c:224:34
	ldr	r2, [r0, #16]
	.loc	2 225 55                        @ rt-thread/src/memheap.c:225:55
	str	r1, [r0, #16]
	.loc	2 231 61                        @ rt-thread/src/memheap.c:231:61
	subs	r0, r3, r7
.Ltmp60:
	.loc	2 234 68                        @ rt-thread/src/memheap.c:234:68
	ldr	r7, [r4, #32]
.Ltmp61:
	.loc	2 232 45                        @ rt-thread/src/memheap.c:232:45
	sub.w	r3, r0, #24
.Ltmp62:
	.loc	2 234 27                        @ rt-thread/src/memheap.c:234:27
	ldr	r0, [r4, #24]
	.loc	2 234 37 is_stmt 0              @ rt-thread/src/memheap.c:234:37
	subs	r0, r0, r3
.Ltmp63:
	.loc	2 212 40 is_stmt 1              @ rt-thread/src/memheap.c:212:40
	str.w	r1, [r12, #12]
	.loc	2 234 21                        @ rt-thread/src/memheap.c:234:21
	cmp	r0, r7
	.loc	2 213 40                        @ rt-thread/src/memheap.c:213:40
	str	r1, [r5, #8]
	.loc	2 224 55                        @ rt-thread/src/memheap.c:224:55
	str	r1, [r2, #20]
	.loc	2 231 38                        @ rt-thread/src/memheap.c:231:38
	str	r3, [r4, #28]
	.loc	2 234 21                        @ rt-thread/src/memheap.c:234:21
	bls	.LBB2_19
.Ltmp64:
@ %bb.18:
	@DEBUG_VALUE: rt_memheap_alloc:header_ptr <- $r5
	@DEBUG_VALUE: rt_memheap_alloc:heap <- $r4
	@DEBUG_VALUE: new_ptr <- $r1
	.loc	2 235 41                        @ rt-thread/src/memheap.c:235:41
	str	r0, [r4, #32]
.Ltmp65:
.LBB2_19:
	@DEBUG_VALUE: rt_memheap_alloc:header_ptr <- $r5
	@DEBUG_VALUE: rt_memheap_alloc:heap <- $r4
	.loc	2 258 31                        @ rt-thread/src/memheap.c:258:31
	ldr	r0, [r5]
	orr	r0, r0, #1
	str	r0, [r5], #24
.Ltmp66:
	.loc	2 261 13                        @ rt-thread/src/memheap.c:261:13
	mov	r0, r6
	bl	rt_sem_release
	.loc	2 270 13                        @ rt-thread/src/memheap.c:270:13
	b	.LBB2_8
.Ltmp67:
	.p2align	2
@ %bb.20:
	.loc	2 0 13 is_stmt 0                @ rt-thread/src/memheap.c:0:13
.LCPI2_0:
.L.str.4:
	.asciz	"heap != RT_NULL"
.Lfunc_end2:
	.size	rt_memheap_alloc, .Lfunc_end2-rt_memheap_alloc
	.cfi_endproc
	.cantunwind
	.fnend
                                        @ -- End function
	.section	.text.rt_memheap_realloc,"ax",%progbits
	.hidden	rt_memheap_realloc              @ -- Begin function rt_memheap_realloc
	.globl	rt_memheap_realloc
	.p2align	3
	.type	rt_memheap_realloc,%function
	.code	16                              @ @rt_memheap_realloc
	.thumb_func
rt_memheap_realloc:
.Lfunc_begin3:
	.loc	2 285 0 is_stmt 1               @ rt-thread/src/memheap.c:285:0
	.fnstart
	.cfi_startproc
@ %bb.0:
	@DEBUG_VALUE: rt_memheap_realloc:heap <- $r0
	@DEBUG_VALUE: rt_memheap_realloc:ptr <- $r1
	@DEBUG_VALUE: rt_memheap_realloc:newsize <- $r2
	.save	{r4, r5, r6, r7, r8, r9, r10, r11, lr}
	push.w	{r4, r5, r6, r7, r8, r9, r10, r11, lr}
	.cfi_def_cfa_offset 36
	.cfi_offset lr, -4
	.cfi_offset r11, -8
	.cfi_offset r10, -12
	.cfi_offset r9, -16
	.cfi_offset r8, -20
	.cfi_offset r7, -24
	.cfi_offset r6, -28
	.cfi_offset r5, -32
	.cfi_offset r4, -36
	.pad	#4
	sub	sp, #4
	.cfi_def_cfa_offset 40
	mov	r5, r0
.Ltmp68:
	@DEBUG_VALUE: rt_memheap_realloc:heap <- $r5
	mov	r6, r2
.Ltmp69:
	@DEBUG_VALUE: rt_memheap_realloc:newsize <- $r6
	@DEBUG_VALUE: rt_memheap_realloc:newsize <- $r6
	mov	r4, r1
.Ltmp70:
	@DEBUG_VALUE: rt_memheap_realloc:ptr <- $r4
	@DEBUG_VALUE: rt_memheap_realloc:ptr <- $r4
	.loc	2 291 5 prologue_end            @ rt-thread/src/memheap.c:291:5
	cbnz	r0, .LBB3_2
.Ltmp71:
@ %bb.1:
	@DEBUG_VALUE: rt_memheap_realloc:newsize <- $r6
	@DEBUG_VALUE: rt_memheap_realloc:heap <- $r5
	@DEBUG_VALUE: rt_memheap_realloc:ptr <- $r4
	.loc	2 291 5 is_stmt 0               @ rt-thread/src/memheap.c:291:5
	movw	r0, :lower16:.L.str.1
	movw	r1, :lower16:.L__FUNCTION__.rt_memheap_realloc
	movt	r0, :upper16:.L.str.1
	movt	r1, :upper16:.L__FUNCTION__.rt_memheap_realloc
	movw	r2, #291
	bl	rt_assert_handler
.Ltmp72:
.LBB3_2:
	@DEBUG_VALUE: rt_memheap_realloc:newsize <- $r6
	@DEBUG_VALUE: rt_memheap_realloc:heap <- $r5
	@DEBUG_VALUE: rt_memheap_realloc:ptr <- $r4
	.loc	2 292 5 is_stmt 1               @ rt-thread/src/memheap.c:292:5
	mov	r0, r5
	bl	rt_object_get_type
.Ltmp73:
	.loc	2 292 5 is_stmt 0               @ rt-thread/src/memheap.c:292:5
	cmp	r0, #7
	beq	.LBB3_4
.Ltmp74:
@ %bb.3:
	@DEBUG_VALUE: rt_memheap_realloc:newsize <- $r6
	@DEBUG_VALUE: rt_memheap_realloc:heap <- $r5
	@DEBUG_VALUE: rt_memheap_realloc:ptr <- $r4
	.loc	2 292 5                         @ rt-thread/src/memheap.c:292:5
	movw	r0, :lower16:.L.str.2
	movw	r1, :lower16:.L__FUNCTION__.rt_memheap_realloc
	movt	r0, :upper16:.L.str.2
	movt	r1, :upper16:.L__FUNCTION__.rt_memheap_realloc
	mov.w	r2, #292
	bl	rt_assert_handler
.Ltmp75:
.LBB3_4:
	@DEBUG_VALUE: rt_memheap_realloc:newsize <- $r6
	@DEBUG_VALUE: rt_memheap_realloc:heap <- $r5
	@DEBUG_VALUE: rt_memheap_realloc:ptr <- $r4
	.loc	2 294 9 is_stmt 1               @ rt-thread/src/memheap.c:294:9
	cbz	r6, .LBB3_9
.Ltmp76:
@ %bb.5:
	@DEBUG_VALUE: rt_memheap_realloc:newsize <- $r6
	@DEBUG_VALUE: rt_memheap_realloc:heap <- $r5
	@DEBUG_VALUE: rt_memheap_realloc:ptr <- $r4
	.loc	2 301 15                        @ rt-thread/src/memheap.c:301:15
	adds	r0, r6, #3
	bic	r6, r0, #3
.Ltmp77:
	@DEBUG_VALUE: rt_memheap_realloc:newsize <- [DW_OP_LLVM_entry_value 1] $r2
	@DEBUG_VALUE: rt_memheap_realloc:newsize <- $r6
	.loc	2 302 9                         @ rt-thread/src/memheap.c:302:9
	cmp	r6, #12
	it	ls
	movls	r6, #12
.Ltmp78:
	@DEBUG_VALUE: rt_memheap_realloc:newsize <- $r6
	.loc	2 305 9                         @ rt-thread/src/memheap.c:305:9
	cbz	r4, .LBB3_10
.Ltmp79:
@ %bb.6:
	@DEBUG_VALUE: rt_memheap_realloc:newsize <- $r6
	@DEBUG_VALUE: rt_memheap_realloc:heap <- $r5
	@DEBUG_VALUE: rt_memheap_realloc:ptr <- $r4
	.loc	2 312 37                        @ rt-thread/src/memheap.c:312:37
	sub.w	r9, r4, #24
.Ltmp80:
	@DEBUG_VALUE: rt_memheap_realloc:header_ptr <- $r9
	.loc	2 313 15                        @ rt-thread/src/memheap.c:313:15
	ldr	r0, [r4, #-16]
	sub.w	r7, r0, r9
	sub.w	r11, r7, #24
.Ltmp81:
	@DEBUG_VALUE: rt_memheap_realloc:oldsize <- $r11
	.loc	2 315 9                         @ rt-thread/src/memheap.c:315:9
	cmp	r11, r6
	bhs	.LBB3_11
.Ltmp82:
@ %bb.7:
	@DEBUG_VALUE: rt_memheap_realloc:oldsize <- $r11
	@DEBUG_VALUE: rt_memheap_realloc:header_ptr <- $r9
	@DEBUG_VALUE: rt_memheap_realloc:newsize <- $r6
	@DEBUG_VALUE: rt_memheap_realloc:heap <- $r5
	@DEBUG_VALUE: rt_memheap_realloc:ptr <- $r4
	.loc	2 321 38                        @ rt-thread/src/memheap.c:321:38
	add.w	r8, r5, #68
	.loc	2 321 18 is_stmt 0              @ rt-thread/src/memheap.c:321:18
	mov.w	r1, #-1
	mov	r0, r8
	bl	rt_sem_take
.Ltmp83:
	@DEBUG_VALUE: rt_memheap_realloc:result <- $r0
	.loc	2 322 13 is_stmt 1              @ rt-thread/src/memheap.c:322:13
	cbz	r0, .LBB3_14
.Ltmp84:
@ %bb.8:
	@DEBUG_VALUE: rt_memheap_realloc:oldsize <- $r11
	@DEBUG_VALUE: rt_memheap_realloc:header_ptr <- $r9
	@DEBUG_VALUE: rt_memheap_realloc:newsize <- $r6
	@DEBUG_VALUE: rt_memheap_realloc:heap <- $r5
	@DEBUG_VALUE: rt_memheap_realloc:ptr <- $r4
	@DEBUG_VALUE: rt_memheap_realloc:result <- $r0
	.loc	2 324 13                        @ rt-thread/src/memheap.c:324:13
	bl	rt_set_errno
.Ltmp85:
	.loc	2 0 13 is_stmt 0                @ rt-thread/src/memheap.c:0:13
	movs	r4, #0
.Ltmp86:
	@DEBUG_VALUE: rt_memheap_realloc:ptr <- [DW_OP_LLVM_entry_value 1] $r1
	.loc	2 325 13 is_stmt 1              @ rt-thread/src/memheap.c:325:13
	b	.LBB3_27
.Ltmp87:
.LBB3_9:
	@DEBUG_VALUE: rt_memheap_realloc:newsize <- $r6
	@DEBUG_VALUE: rt_memheap_realloc:heap <- $r5
	@DEBUG_VALUE: rt_memheap_realloc:ptr <- $r4
	.loc	2 296 9                         @ rt-thread/src/memheap.c:296:9
	mov	r0, r4
	bl	rt_memheap_free
	movs	r4, #0
.Ltmp88:
	@DEBUG_VALUE: rt_memheap_realloc:ptr <- [DW_OP_LLVM_entry_value 1] $r1
	.loc	2 298 9                         @ rt-thread/src/memheap.c:298:9
	b	.LBB3_27
.Ltmp89:
.LBB3_10:
	@DEBUG_VALUE: rt_memheap_realloc:newsize <- $r6
	@DEBUG_VALUE: rt_memheap_realloc:heap <- $r5
	@DEBUG_VALUE: rt_memheap_realloc:ptr <- $r4
	.loc	2 307 16                        @ rt-thread/src/memheap.c:307:16
	mov	r0, r5
	mov	r1, r6
	bl	rt_memheap_alloc
	mov	r4, r0
.Ltmp90:
	@DEBUG_VALUE: rt_memheap_realloc:ptr <- [DW_OP_LLVM_entry_value 1] $r1
	.loc	2 307 9 is_stmt 0               @ rt-thread/src/memheap.c:307:9
	b	.LBB3_27
.Ltmp91:
.LBB3_11:
	@DEBUG_VALUE: rt_memheap_realloc:oldsize <- $r11
	@DEBUG_VALUE: rt_memheap_realloc:header_ptr <- $r9
	@DEBUG_VALUE: rt_memheap_realloc:newsize <- $r6
	@DEBUG_VALUE: rt_memheap_realloc:heap <- $r5
	@DEBUG_VALUE: rt_memheap_realloc:ptr <- $r4
	.loc	2 420 35 is_stmt 1              @ rt-thread/src/memheap.c:420:35
	add.w	r0, r6, #36
.Ltmp92:
	.loc	2 420 9 is_stmt 0               @ rt-thread/src/memheap.c:420:9
	cmp	r0, r11
	bhs.w	.LBB3_27
.Ltmp93:
@ %bb.12:
	@DEBUG_VALUE: rt_memheap_realloc:oldsize <- $r11
	@DEBUG_VALUE: rt_memheap_realloc:header_ptr <- $r9
	@DEBUG_VALUE: rt_memheap_realloc:newsize <- $r6
	@DEBUG_VALUE: rt_memheap_realloc:heap <- $r5
	@DEBUG_VALUE: rt_memheap_realloc:ptr <- $r4
	.loc	2 424 34 is_stmt 1              @ rt-thread/src/memheap.c:424:34
	add.w	r7, r5, #68
	.loc	2 424 14 is_stmt 0              @ rt-thread/src/memheap.c:424:14
	mov.w	r1, #-1
	mov	r0, r7
	bl	rt_sem_take
.Ltmp94:
	@DEBUG_VALUE: rt_memheap_realloc:result <- $r0
	.loc	2 425 9 is_stmt 1               @ rt-thread/src/memheap.c:425:9
	cmp	r0, #0
	beq	.LBB3_23
.Ltmp95:
@ %bb.13:
	@DEBUG_VALUE: rt_memheap_realloc:oldsize <- $r11
	@DEBUG_VALUE: rt_memheap_realloc:header_ptr <- $r9
	@DEBUG_VALUE: rt_memheap_realloc:newsize <- $r6
	@DEBUG_VALUE: rt_memheap_realloc:heap <- $r5
	@DEBUG_VALUE: rt_memheap_realloc:ptr <- $r4
	@DEBUG_VALUE: rt_memheap_realloc:result <- $r0
	.loc	2 427 9                         @ rt-thread/src/memheap.c:427:9
	bl	rt_set_errno
.Ltmp96:
	.loc	2 0 9 is_stmt 0                 @ rt-thread/src/memheap.c:0:9
	movs	r4, #0
.Ltmp97:
	@DEBUG_VALUE: rt_memheap_realloc:ptr <- [DW_OP_LLVM_entry_value 1] $r1
	.loc	2 429 9 is_stmt 1               @ rt-thread/src/memheap.c:429:9
	b	.LBB3_27
.Ltmp98:
.LBB3_14:
	@DEBUG_VALUE: rt_memheap_realloc:oldsize <- $r11
	@DEBUG_VALUE: rt_memheap_realloc:header_ptr <- $r9
	@DEBUG_VALUE: rt_memheap_realloc:newsize <- $r6
	@DEBUG_VALUE: rt_memheap_realloc:heap <- $r5
	@DEBUG_VALUE: rt_memheap_realloc:ptr <- $r4
	@DEBUG_VALUE: rt_memheap_realloc:result <- $r0
	.loc	2 328 32                        @ rt-thread/src/memheap.c:328:32
	ldr	r10, [r4, #-16]
.Ltmp99:
	@DEBUG_VALUE: next_ptr <- $r10
	.loc	2 331 9                         @ rt-thread/src/memheap.c:331:9
	cmp	r10, r9
	bhi	.LBB3_16
.Ltmp100:
@ %bb.15:
	@DEBUG_VALUE: rt_memheap_realloc:oldsize <- $r11
	@DEBUG_VALUE: next_ptr <- $r10
	@DEBUG_VALUE: rt_memheap_realloc:header_ptr <- $r9
	@DEBUG_VALUE: rt_memheap_realloc:newsize <- $r6
	@DEBUG_VALUE: rt_memheap_realloc:heap <- $r5
	@DEBUG_VALUE: rt_memheap_realloc:ptr <- $r4
	@DEBUG_VALUE: rt_memheap_realloc:result <- $r0
	.loc	2 331 9 is_stmt 0               @ rt-thread/src/memheap.c:331:9
	movw	r1, :lower16:.L__FUNCTION__.rt_memheap_realloc
	adr	r0, .LCPI3_0
.Ltmp101:
	movt	r1, :upper16:.L__FUNCTION__.rt_memheap_realloc
	movw	r2, #331
	bl	rt_assert_handler
.Ltmp102:
.LBB3_16:
	@DEBUG_VALUE: rt_memheap_realloc:oldsize <- $r11
	@DEBUG_VALUE: next_ptr <- $r10
	@DEBUG_VALUE: rt_memheap_realloc:header_ptr <- $r9
	@DEBUG_VALUE: rt_memheap_realloc:newsize <- $r6
	@DEBUG_VALUE: rt_memheap_realloc:heap <- $r5
	@DEBUG_VALUE: rt_memheap_realloc:ptr <- $r4
	.loc	2 334 13 is_stmt 1              @ rt-thread/src/memheap.c:334:13
	ldrb.w	r0, [r10]
	lsls	r0, r0, #31
	bne	.LBB3_21
.Ltmp103:
@ %bb.17:
	@DEBUG_VALUE: rt_memheap_realloc:oldsize <- $r11
	@DEBUG_VALUE: next_ptr <- $r10
	@DEBUG_VALUE: rt_memheap_realloc:header_ptr <- $r9
	@DEBUG_VALUE: rt_memheap_realloc:newsize <- $r6
	@DEBUG_VALUE: rt_memheap_realloc:heap <- $r5
	@DEBUG_VALUE: rt_memheap_realloc:ptr <- $r4
	.loc	2 339 13                        @ rt-thread/src/memheap.c:339:13
	cmp.w	r10, #0
	.loc	2 338 24                        @ rt-thread/src/memheap.c:338:24
	ldr.w	r1, [r10, #8]
.Ltmp104:
	@DEBUG_VALUE: nextsize <- undef
	.loc	2 339 13                        @ rt-thread/src/memheap.c:339:13
	bne	.LBB3_19
.Ltmp105:
@ %bb.18:
	@DEBUG_VALUE: rt_memheap_realloc:oldsize <- $r11
	@DEBUG_VALUE: next_ptr <- $r10
	@DEBUG_VALUE: rt_memheap_realloc:header_ptr <- $r9
	@DEBUG_VALUE: rt_memheap_realloc:newsize <- $r6
	@DEBUG_VALUE: rt_memheap_realloc:heap <- $r5
	@DEBUG_VALUE: rt_memheap_realloc:ptr <- $r4
	.loc	2 0 13 is_stmt 0                @ rt-thread/src/memheap.c:0:13
	str	r1, [sp]                        @ 4-byte Spill
.Ltmp106:
	.loc	2 339 13                        @ rt-thread/src/memheap.c:339:13
	movw	r1, :lower16:.L__FUNCTION__.rt_memheap_realloc
	adr	r0, .LCPI3_1
	movt	r1, :upper16:.L__FUNCTION__.rt_memheap_realloc
	movw	r2, #339
	bl	rt_assert_handler
	ldr	r1, [sp]                        @ 4-byte Reload
.Ltmp107:
.LBB3_19:
	@DEBUG_VALUE: rt_memheap_realloc:oldsize <- $r11
	@DEBUG_VALUE: next_ptr <- $r10
	@DEBUG_VALUE: rt_memheap_realloc:header_ptr <- $r9
	@DEBUG_VALUE: rt_memheap_realloc:newsize <- $r6
	@DEBUG_VALUE: rt_memheap_realloc:heap <- $r5
	@DEBUG_VALUE: rt_memheap_realloc:ptr <- $r4
	.loc	2 338 24 is_stmt 1              @ rt-thread/src/memheap.c:338:24
	sub.w	r0, r7, r10
	add	r0, r1
.Ltmp108:
	.loc	2 350 46                        @ rt-thread/src/memheap.c:350:46
	add.w	r1, r6, #12
	.loc	2 350 26 is_stmt 0              @ rt-thread/src/memheap.c:350:26
	subs	r0, #48
.Ltmp109:
	.loc	2 350 17                        @ rt-thread/src/memheap.c:350:17
	cmp	r0, r1
	bls	.LBB3_21
.Ltmp110:
@ %bb.20:
	@DEBUG_VALUE: rt_memheap_realloc:oldsize <- $r11
	@DEBUG_VALUE: next_ptr <- $r10
	@DEBUG_VALUE: rt_memheap_realloc:header_ptr <- $r9
	@DEBUG_VALUE: rt_memheap_realloc:newsize <- $r6
	@DEBUG_VALUE: rt_memheap_realloc:heap <- $r5
	@DEBUG_VALUE: rt_memheap_realloc:ptr <- $r4
	.loc	2 353 72 is_stmt 1              @ rt-thread/src/memheap.c:353:72
	sub.w	r0, r11, r6
.Ltmp111:
	.loc	2 354 68                        @ rt-thread/src/memheap.c:354:68
	ldr	r3, [r5, #32]
	.loc	2 354 27 is_stmt 0              @ rt-thread/src/memheap.c:354:27
	ldrd	r2, r1, [r5, #24]
.Ltmp112:
	.loc	2 353 61 is_stmt 1              @ rt-thread/src/memheap.c:353:61
	add	r1, r0
	.loc	2 353 38 is_stmt 0              @ rt-thread/src/memheap.c:353:38
	str	r1, [r5, #28]
.Ltmp113:
	.loc	2 354 37 is_stmt 1              @ rt-thread/src/memheap.c:354:37
	subs	r0, r2, r1
.Ltmp114:
	.loc	2 354 21 is_stmt 0              @ rt-thread/src/memheap.c:354:21
	cmp	r0, r3
.Ltmp115:
	.loc	2 355 41 is_stmt 1              @ rt-thread/src/memheap.c:355:41
	it	hi
	strhi	r0, [r5, #32]
.Ltmp116:
	.loc	2 364 27                        @ rt-thread/src/memheap.c:364:27
	ldrd	r0, r3, [r10, #16]
	.loc	2 366 27                        @ rt-thread/src/memheap.c:366:27
	ldrd	r1, r2, [r10, #8]
	.loc	2 364 48                        @ rt-thread/src/memheap.c:364:48
	str	r3, [r0, #20]
	.loc	2 365 27                        @ rt-thread/src/memheap.c:365:27
	ldr.w	r3, [r10, #20]
	.loc	2 366 38                        @ rt-thread/src/memheap.c:366:38
	str	r2, [r1, #12]
	.loc	2 367 27                        @ rt-thread/src/memheap.c:367:27
	ldr.w	r2, [r10, #12]
	.loc	2 365 48                        @ rt-thread/src/memheap.c:365:48
	str	r0, [r3, #16]
	.loc	2 370 67                        @ rt-thread/src/memheap.c:370:67
	adds	r0, r4, r6
.Ltmp117:
	@DEBUG_VALUE: next_ptr <- $r0
	.loc	2 367 38                        @ rt-thread/src/memheap.c:367:38
	str	r1, [r2, #8]
	movw	r1, #7840
	movt	r1, #7840
	.loc	2 379 33                        @ rt-thread/src/memheap.c:379:33
	str	r1, [r4, r6]
	.loc	2 385 55                        @ rt-thread/src/memheap.c:385:55
	ldr	r1, [r4, #-16]
	.loc	2 390 45                        @ rt-thread/src/memheap.c:390:45
	ldr	r2, [r5, #40]
	.loc	2 382 36                        @ rt-thread/src/memheap.c:382:36
	strd	r5, r1, [r0, #4]
	.loc	2 386 29                        @ rt-thread/src/memheap.c:386:29
	ldr	r1, [r4, #-16]
	.loc	2 384 41                        @ rt-thread/src/memheap.c:384:41
	str.w	r9, [r0, #12]
	.loc	2 387 40                        @ rt-thread/src/memheap.c:387:40
	str	r0, [r4, #-16]
	.loc	2 386 40                        @ rt-thread/src/memheap.c:386:40
	str	r0, [r1, #12]
	.loc	2 390 56                        @ rt-thread/src/memheap.c:390:56
	ldr	r1, [r2, #16]
	.loc	2 390 37 is_stmt 0              @ rt-thread/src/memheap.c:390:37
	str	r1, [r0, #16]
	.loc	2 392 34 is_stmt 1              @ rt-thread/src/memheap.c:392:34
	ldr	r1, [r2, #16]
	.loc	2 391 37                        @ rt-thread/src/memheap.c:391:37
	str	r2, [r0, #20]
	.loc	2 393 55                        @ rt-thread/src/memheap.c:393:55
	str	r0, [r2, #16]
	.loc	2 392 55                        @ rt-thread/src/memheap.c:392:55
	str	r0, [r1, #20]
	.loc	2 399 17                        @ rt-thread/src/memheap.c:399:17
	mov	r0, r8
.Ltmp118:
	bl	rt_sem_release
	b	.LBB3_27
.Ltmp119:
.LBB3_21:
	@DEBUG_VALUE: rt_memheap_realloc:oldsize <- $r11
	@DEBUG_VALUE: next_ptr <- $r10
	@DEBUG_VALUE: rt_memheap_realloc:header_ptr <- $r9
	@DEBUG_VALUE: rt_memheap_realloc:newsize <- $r6
	@DEBUG_VALUE: rt_memheap_realloc:heap <- $r5
	@DEBUG_VALUE: rt_memheap_realloc:ptr <- $r4
	.loc	2 406 9                         @ rt-thread/src/memheap.c:406:9
	mov	r0, r8
	bl	rt_sem_release
	.loc	2 409 27                        @ rt-thread/src/memheap.c:409:27
	mov	r0, r5
	mov	r1, r6
	bl	rt_memheap_alloc
	mov	r5, r0
.Ltmp120:
	@DEBUG_VALUE: rt_memheap_realloc:heap <- [DW_OP_LLVM_entry_value 1] $r0
	@DEBUG_VALUE: new_ptr <- $r5
	.loc	2 410 13                        @ rt-thread/src/memheap.c:410:13
	cmp	r0, #0
	beq	.LBB3_26
.Ltmp121:
@ %bb.22:
	@DEBUG_VALUE: rt_memheap_realloc:oldsize <- $r11
	@DEBUG_VALUE: next_ptr <- $r10
	@DEBUG_VALUE: rt_memheap_realloc:header_ptr <- $r9
	@DEBUG_VALUE: rt_memheap_realloc:newsize <- $r6
	@DEBUG_VALUE: new_ptr <- $r5
	@DEBUG_VALUE: rt_memheap_realloc:ptr <- $r4
	@DEBUG_VALUE: rt_memheap_realloc:heap <- [DW_OP_LLVM_entry_value 1] $r0
	.loc	2 412 13                        @ rt-thread/src/memheap.c:412:13
	mov	r0, r5
	mov	r1, r4
	mov	r2, r11
	bl	rt_memcpy
	.loc	2 413 13                        @ rt-thread/src/memheap.c:413:13
	mov	r0, r4
	bl	rt_memheap_free
.Ltmp122:
	.loc	2 0 0 is_stmt 0                 @ rt-thread/src/memheap.c:0:0
	mov	r4, r5
.Ltmp123:
	@DEBUG_VALUE: new_ptr <- $r4
	@DEBUG_VALUE: rt_memheap_realloc:ptr <- [DW_OP_LLVM_entry_value 1] $r1
	.loc	2 414 9 is_stmt 1               @ rt-thread/src/memheap.c:414:9
	b	.LBB3_27
.Ltmp124:
.LBB3_23:
	@DEBUG_VALUE: rt_memheap_realloc:oldsize <- $r11
	@DEBUG_VALUE: rt_memheap_realloc:header_ptr <- $r9
	@DEBUG_VALUE: rt_memheap_realloc:newsize <- $r6
	@DEBUG_VALUE: rt_memheap_realloc:heap <- $r5
	@DEBUG_VALUE: rt_memheap_realloc:ptr <- $r4
	@DEBUG_VALUE: rt_memheap_realloc:result <- $r0
	.loc	2 434 43                        @ rt-thread/src/memheap.c:434:43
	add.w	r1, r9, r6
	.loc	2 450 42                        @ rt-thread/src/memheap.c:450:42
	ldr	r2, [r4, #-16]
	movw	r0, #7840
.Ltmp125:
	.loc	2 450 28 is_stmt 0              @ rt-thread/src/memheap.c:450:28
	str	r2, [r1, #32]
	movt	r0, #7840
	.loc	2 444 20 is_stmt 1              @ rt-thread/src/memheap.c:444:20
	str	r0, [r4, r6]
	.loc	2 434 53                        @ rt-thread/src/memheap.c:434:53
	add.w	r0, r1, #24
.Ltmp126:
	@DEBUG_VALUE: rt_memheap_realloc:new_ptr <- $r0
	.loc	2 451 17                        @ rt-thread/src/memheap.c:451:17
	ldr	r2, [r4, #-16]
	.loc	2 452 28                        @ rt-thread/src/memheap.c:452:28
	str	r0, [r4, #-16]
	.loc	2 446 23                        @ rt-thread/src/memheap.c:446:23
	str	r5, [r1, #28]
	.loc	2 449 28                        @ rt-thread/src/memheap.c:449:28
	str.w	r9, [r1, #36]
.Ltmp127:
	.loc	2 455 10                        @ rt-thread/src/memheap.c:455:10
	ldr	r1, [r1, #32]
.Ltmp128:
	.loc	2 451 28                        @ rt-thread/src/memheap.c:451:28
	str	r0, [r2, #12]
	.loc	2 455 9                         @ rt-thread/src/memheap.c:455:9
	ldrb	r2, [r1]
	lsls	r2, r2, #31
	bne	.LBB3_25
.Ltmp129:
@ %bb.24:
	@DEBUG_VALUE: rt_memheap_realloc:oldsize <- $r11
	@DEBUG_VALUE: rt_memheap_realloc:header_ptr <- $r9
	@DEBUG_VALUE: rt_memheap_realloc:newsize <- $r6
	@DEBUG_VALUE: rt_memheap_realloc:heap <- $r5
	@DEBUG_VALUE: rt_memheap_realloc:ptr <- $r4
	@DEBUG_VALUE: rt_memheap_realloc:new_ptr <- $r0
	@DEBUG_VALUE: free_ptr <- $r1
	.loc	2 461 38                        @ rt-thread/src/memheap.c:461:38
	ldr	r2, [r5, #28]
	.loc	2 461 55 is_stmt 0              @ rt-thread/src/memheap.c:461:55
	ldr	r3, [r1, #8]
	add	r2, r1
	.loc	2 471 19 is_stmt 1              @ rt-thread/src/memheap.c:471:19
	ldr	r6, [r1, #16]
.Ltmp130:
	.loc	2 461 53                        @ rt-thread/src/memheap.c:461:53
	subs	r2, r2, r3
	.loc	2 467 30                        @ rt-thread/src/memheap.c:467:30
	str	r0, [r3, #12]
	.loc	2 461 53                        @ rt-thread/src/memheap.c:461:53
	adds	r2, #24
	.loc	2 461 30 is_stmt 0              @ rt-thread/src/memheap.c:461:30
	str	r2, [r5, #28]
	.loc	2 471 52 is_stmt 1              @ rt-thread/src/memheap.c:471:52
	ldr	r2, [r1, #20]
	.loc	2 471 40 is_stmt 0              @ rt-thread/src/memheap.c:471:40
	str	r2, [r6, #20]
	.loc	2 472 19 is_stmt 1              @ rt-thread/src/memheap.c:472:19
	ldr	r1, [r1, #20]
.Ltmp131:
	.loc	2 468 25                        @ rt-thread/src/memheap.c:468:25
	str	r3, [r0, #8]
	.loc	2 472 40                        @ rt-thread/src/memheap.c:472:40
	str	r6, [r1, #16]
.Ltmp132:
.LBB3_25:
	@DEBUG_VALUE: rt_memheap_realloc:oldsize <- $r11
	@DEBUG_VALUE: rt_memheap_realloc:header_ptr <- $r9
	@DEBUG_VALUE: rt_memheap_realloc:heap <- $r5
	@DEBUG_VALUE: rt_memheap_realloc:ptr <- $r4
	@DEBUG_VALUE: rt_memheap_realloc:new_ptr <- $r0
	.loc	2 476 32                        @ rt-thread/src/memheap.c:476:32
	ldr	r1, [r5, #40]
	.loc	2 485 34                        @ rt-thread/src/memheap.c:485:34
	ldr	r3, [r5, #28]
	.loc	2 477 24                        @ rt-thread/src/memheap.c:477:24
	str	r1, [r0, #20]
	.loc	2 485 51                        @ rt-thread/src/memheap.c:485:51
	subs	r3, r3, r0
	.loc	2 476 43                        @ rt-thread/src/memheap.c:476:43
	ldr	r2, [r1, #16]
	.loc	2 476 24 is_stmt 0              @ rt-thread/src/memheap.c:476:24
	str	r2, [r0, #16]
	.loc	2 478 22 is_stmt 1              @ rt-thread/src/memheap.c:478:22
	ldr	r2, [r1, #16]
	.loc	2 479 43                        @ rt-thread/src/memheap.c:479:43
	str	r0, [r1, #16]
	.loc	2 478 43                        @ rt-thread/src/memheap.c:478:43
	str	r0, [r2, #20]
	.loc	2 485 51                        @ rt-thread/src/memheap.c:485:51
	ldr	r2, [r0, #8]
	adds	r0, r3, r2
.Ltmp133:
	.loc	2 485 49 is_stmt 0              @ rt-thread/src/memheap.c:485:49
	subs	r0, #24
	.loc	2 485 26                        @ rt-thread/src/memheap.c:485:26
	str	r0, [r5, #28]
	.loc	2 488 5 is_stmt 1               @ rt-thread/src/memheap.c:488:5
	mov	r0, r7
	bl	rt_sem_release
	b	.LBB3_27
.Ltmp134:
.LBB3_26:
	@DEBUG_VALUE: rt_memheap_realloc:oldsize <- $r11
	@DEBUG_VALUE: next_ptr <- $r10
	@DEBUG_VALUE: rt_memheap_realloc:header_ptr <- $r9
	@DEBUG_VALUE: rt_memheap_realloc:newsize <- $r6
	@DEBUG_VALUE: new_ptr <- $r5
	@DEBUG_VALUE: rt_memheap_realloc:ptr <- $r4
	@DEBUG_VALUE: rt_memheap_realloc:heap <- [DW_OP_LLVM_entry_value 1] $r0
	.loc	2 0 0 is_stmt 0                 @ rt-thread/src/memheap.c:0:0
	mov	r4, r5
.Ltmp135:
	@DEBUG_VALUE: new_ptr <- $r4
	@DEBUG_VALUE: rt_memheap_realloc:ptr <- [DW_OP_LLVM_entry_value 1] $r1
.LBB3_27:
	.loc	2 492 1 is_stmt 1               @ rt-thread/src/memheap.c:492:1
	mov	r0, r4
	add	sp, #4
	pop.w	{r4, r5, r6, r7, r8, r9, r10, r11, pc}
.Ltmp136:
	.p2align	2
@ %bb.28:
	.loc	2 0 1 is_stmt 0                 @ rt-thread/src/memheap.c:0:1
.LCPI3_0:
.L.str.5:
	.asciz	"next_ptr > header_ptr\000\000"
.LCPI3_1:
.L.str.6:
	.asciz	"next_ptr > 0\000\000\000"
.Lfunc_end3:
	.size	rt_memheap_realloc, .Lfunc_end3-rt_memheap_realloc
	.cfi_endproc
	.cantunwind
	.fnend
                                        @ -- End function
	.section	.text.rt_memheap_free,"ax",%progbits
	.hidden	rt_memheap_free                 @ -- Begin function rt_memheap_free
	.globl	rt_memheap_free
	.p2align	3
	.type	rt_memheap_free,%function
	.code	16                              @ @rt_memheap_free
	.thumb_func
rt_memheap_free:
.Lfunc_begin4:
	.loc	2 496 0 is_stmt 1               @ rt-thread/src/memheap.c:496:0
	.fnstart
	.cfi_startproc
@ %bb.0:
	@DEBUG_VALUE: rt_memheap_free:ptr <- $r0
	@DEBUG_VALUE: rt_memheap_free:ptr <- $r0
	.save	{r4, r5, r6, r7, lr}
	push	{r4, r5, r6, r7, lr}
	.cfi_def_cfa_offset 20
	.cfi_offset lr, -4
	.cfi_offset r7, -8
	.cfi_offset r6, -12
	.cfi_offset r5, -16
	.cfi_offset r4, -20
	.pad	#4
	sub	sp, #4
	.cfi_def_cfa_offset 24
.Ltmp137:
	.loc	2 503 9 prologue_end            @ rt-thread/src/memheap.c:503:9
	cmp	r0, #0
	beq.w	.LBB4_20
.Ltmp138:
@ %bb.1:
	@DEBUG_VALUE: rt_memheap_free:ptr <- $r0
	.loc	2 515 5                         @ rt-thread/src/memheap.c:515:5
	mov	r7, r0
	mov	r4, r0
.Ltmp139:
	@DEBUG_VALUE: rt_memheap_free:ptr <- $r4
	@DEBUG_VALUE: rt_memheap_free:ptr <- $r4
	@DEBUG_VALUE: rt_memheap_free:insert_header <- 1
	@DEBUG_VALUE: rt_memheap_free:new_ptr <- 0
	.loc	2 0 5 is_stmt 0                 @ rt-thread/src/memheap.c:0:5
	movw	r1, #3920
	.loc	2 515 5                         @ rt-thread/src/memheap.c:515:5
	ldr	r0, [r7, #-24]!
.Ltmp140:
	@DEBUG_VALUE: rt_memheap_free:header_ptr <- $r7
	.loc	2 0 5                           @ rt-thread/src/memheap.c:0:5
	movt	r1, #3920
.Ltmp141:
	.loc	2 515 5                         @ rt-thread/src/memheap.c:515:5
	cmp.w	r1, r0, lsr #1
	beq	.LBB4_3
.Ltmp142:
@ %bb.2:
	@DEBUG_VALUE: rt_memheap_free:header_ptr <- $r7
	@DEBUG_VALUE: rt_memheap_free:ptr <- $r4
	@DEBUG_VALUE: rt_memheap_free:new_ptr <- 0
	@DEBUG_VALUE: rt_memheap_free:insert_header <- 1
	.loc	2 515 5                         @ rt-thread/src/memheap.c:515:5
	movw	r1, :lower16:.L__FUNCTION__.rt_memheap_free
	adr	r0, .LCPI4_0
	movt	r1, :upper16:.L__FUNCTION__.rt_memheap_free
	movw	r2, #515
	bl	rt_assert_handler
.Ltmp143:
.LBB4_3:
	@DEBUG_VALUE: rt_memheap_free:header_ptr <- $r7
	@DEBUG_VALUE: rt_memheap_free:ptr <- $r4
	@DEBUG_VALUE: rt_memheap_free:new_ptr <- 0
	@DEBUG_VALUE: rt_memheap_free:insert_header <- 1
	.loc	2 516 5 is_stmt 1               @ rt-thread/src/memheap.c:516:5
	ldrb	r0, [r7]
	movw	r5, #7840
	movt	r5, #7840
	lsls	r0, r0, #31
	bne	.LBB4_5
.Ltmp144:
@ %bb.4:
	@DEBUG_VALUE: rt_memheap_free:header_ptr <- $r7
	@DEBUG_VALUE: rt_memheap_free:ptr <- $r4
	@DEBUG_VALUE: rt_memheap_free:new_ptr <- 0
	@DEBUG_VALUE: rt_memheap_free:insert_header <- 1
	.loc	2 516 5 is_stmt 0               @ rt-thread/src/memheap.c:516:5
	movw	r1, :lower16:.L__FUNCTION__.rt_memheap_free
	adr	r0, .LCPI4_1
	movt	r1, :upper16:.L__FUNCTION__.rt_memheap_free
	mov.w	r2, #516
	bl	rt_assert_handler
.Ltmp145:
.LBB4_5:
	@DEBUG_VALUE: rt_memheap_free:header_ptr <- $r7
	@DEBUG_VALUE: rt_memheap_free:ptr <- $r4
	@DEBUG_VALUE: rt_memheap_free:new_ptr <- 0
	@DEBUG_VALUE: rt_memheap_free:insert_header <- 1
	.loc	2 518 5 is_stmt 1               @ rt-thread/src/memheap.c:518:5
	ldr	r0, [r4, #-16]
	ldr	r0, [r0]
	bic	r0, r0, #1
.Ltmp146:
	.loc	2 518 5 is_stmt 0               @ rt-thread/src/memheap.c:518:5
	cmp	r0, r5
	beq	.LBB4_7
.Ltmp147:
@ %bb.6:
	@DEBUG_VALUE: rt_memheap_free:header_ptr <- $r7
	@DEBUG_VALUE: rt_memheap_free:ptr <- $r4
	@DEBUG_VALUE: rt_memheap_free:new_ptr <- 0
	@DEBUG_VALUE: rt_memheap_free:insert_header <- 1
	.loc	2 518 5                         @ rt-thread/src/memheap.c:518:5
	movw	r0, :lower16:.L.str.9
	movw	r1, :lower16:.L__FUNCTION__.rt_memheap_free
	movt	r0, :upper16:.L.str.9
	movt	r1, :upper16:.L__FUNCTION__.rt_memheap_free
	movw	r2, #518
	bl	rt_assert_handler
.Ltmp148:
.LBB4_7:
	@DEBUG_VALUE: rt_memheap_free:header_ptr <- $r7
	@DEBUG_VALUE: rt_memheap_free:ptr <- $r4
	@DEBUG_VALUE: rt_memheap_free:new_ptr <- 0
	@DEBUG_VALUE: rt_memheap_free:insert_header <- 1
	.loc	2 521 24 is_stmt 1              @ rt-thread/src/memheap.c:521:24
	ldr	r5, [r4, #-20]
.Ltmp149:
	@DEBUG_VALUE: rt_memheap_free:heap <- $r5
	.loc	2 523 5                         @ rt-thread/src/memheap.c:523:5
	cbnz	r5, .LBB4_9
.Ltmp150:
@ %bb.8:
	@DEBUG_VALUE: rt_memheap_free:header_ptr <- $r7
	@DEBUG_VALUE: rt_memheap_free:heap <- $r5
	@DEBUG_VALUE: rt_memheap_free:ptr <- $r4
	@DEBUG_VALUE: rt_memheap_free:new_ptr <- 0
	@DEBUG_VALUE: rt_memheap_free:insert_header <- 1
	.loc	2 523 5 is_stmt 0               @ rt-thread/src/memheap.c:523:5
	movw	r0, :lower16:.L.str.1
	movw	r1, :lower16:.L__FUNCTION__.rt_memheap_free
	movt	r0, :upper16:.L.str.1
	movt	r1, :upper16:.L__FUNCTION__.rt_memheap_free
	movw	r2, #523
	bl	rt_assert_handler
.Ltmp151:
.LBB4_9:
	@DEBUG_VALUE: rt_memheap_free:header_ptr <- $r7
	@DEBUG_VALUE: rt_memheap_free:heap <- $r5
	@DEBUG_VALUE: rt_memheap_free:ptr <- $r4
	@DEBUG_VALUE: rt_memheap_free:new_ptr <- 0
	@DEBUG_VALUE: rt_memheap_free:insert_header <- 1
	.loc	2 524 5 is_stmt 1               @ rt-thread/src/memheap.c:524:5
	mov	r0, r5
	bl	rt_object_get_type
.Ltmp152:
	.loc	2 524 5 is_stmt 0               @ rt-thread/src/memheap.c:524:5
	cmp	r0, #7
	beq	.LBB4_11
.Ltmp153:
@ %bb.10:
	@DEBUG_VALUE: rt_memheap_free:header_ptr <- $r7
	@DEBUG_VALUE: rt_memheap_free:heap <- $r5
	@DEBUG_VALUE: rt_memheap_free:ptr <- $r4
	@DEBUG_VALUE: rt_memheap_free:new_ptr <- 0
	@DEBUG_VALUE: rt_memheap_free:insert_header <- 1
	.loc	2 524 5                         @ rt-thread/src/memheap.c:524:5
	movw	r0, :lower16:.L.str.2
	movw	r1, :lower16:.L__FUNCTION__.rt_memheap_free
	movt	r0, :upper16:.L.str.2
	movt	r1, :upper16:.L__FUNCTION__.rt_memheap_free
	mov.w	r2, #524
	bl	rt_assert_handler
.Ltmp154:
.LBB4_11:
	@DEBUG_VALUE: rt_memheap_free:header_ptr <- $r7
	@DEBUG_VALUE: rt_memheap_free:heap <- $r5
	@DEBUG_VALUE: rt_memheap_free:ptr <- $r4
	@DEBUG_VALUE: rt_memheap_free:new_ptr <- 0
	@DEBUG_VALUE: rt_memheap_free:insert_header <- 1
	.loc	2 527 34 is_stmt 1              @ rt-thread/src/memheap.c:527:34
	add.w	r6, r5, #68
	.loc	2 527 14 is_stmt 0              @ rt-thread/src/memheap.c:527:14
	mov.w	r1, #-1
	mov	r0, r6
	bl	rt_sem_take
.Ltmp155:
	@DEBUG_VALUE: rt_memheap_free:result <- $r0
	.loc	2 528 9 is_stmt 1               @ rt-thread/src/memheap.c:528:9
	cbz	r0, .LBB4_13
.Ltmp156:
@ %bb.12:
	@DEBUG_VALUE: rt_memheap_free:header_ptr <- $r7
	@DEBUG_VALUE: rt_memheap_free:heap <- $r5
	@DEBUG_VALUE: rt_memheap_free:ptr <- $r4
	@DEBUG_VALUE: rt_memheap_free:result <- $r0
	@DEBUG_VALUE: rt_memheap_free:new_ptr <- 0
	@DEBUG_VALUE: rt_memheap_free:insert_header <- 1
	.loc	2 530 9                         @ rt-thread/src/memheap.c:530:9
	bl	rt_set_errno
.Ltmp157:
	.loc	2 595 1                         @ rt-thread/src/memheap.c:595:1
	add	sp, #4
	pop	{r4, r5, r6, r7, pc}
.Ltmp158:
.LBB4_13:
	@DEBUG_VALUE: rt_memheap_free:header_ptr <- $r7
	@DEBUG_VALUE: rt_memheap_free:heap <- $r5
	@DEBUG_VALUE: rt_memheap_free:ptr <- $r4
	@DEBUG_VALUE: rt_memheap_free:result <- $r0
	@DEBUG_VALUE: rt_memheap_free:new_ptr <- 0
	@DEBUG_VALUE: rt_memheap_free:insert_header <- 1
	.loc	2 536 23                        @ rt-thread/src/memheap.c:536:23
	ldr	r0, [r4, #-24]
.Ltmp159:
	.loc	2 538 51                        @ rt-thread/src/memheap.c:538:51
	ldrd	r12, r1, [r4, #-16]
	.loc	2 536 23                        @ rt-thread/src/memheap.c:536:23
	bic	r0, r0, #1
	str	r0, [r4, #-24]
	.loc	2 538 34                        @ rt-thread/src/memheap.c:538:34
	ldr	r0, [r5, #28]
	.loc	2 538 51 is_stmt 0              @ rt-thread/src/memheap.c:538:51
	sub.w	r3, r12, r7
.Ltmp160:
	.loc	2 541 10 is_stmt 1              @ rt-thread/src/memheap.c:541:10
	ldr	r2, [r1]
.Ltmp161:
	.loc	2 538 51                        @ rt-thread/src/memheap.c:538:51
	add	r3, r0
.Ltmp162:
	.loc	2 541 10                        @ rt-thread/src/memheap.c:541:10
	ands	r0, r2, #1
.Ltmp163:
	.loc	2 538 49                        @ rt-thread/src/memheap.c:538:49
	sub.w	r2, r3, #24
	.loc	2 538 26 is_stmt 0              @ rt-thread/src/memheap.c:538:26
	str	r2, [r5, #28]
	.loc	2 541 9 is_stmt 1               @ rt-thread/src/memheap.c:541:9
	bne	.LBB4_15
.Ltmp164:
@ %bb.14:
	@DEBUG_VALUE: rt_memheap_free:header_ptr <- $r7
	@DEBUG_VALUE: rt_memheap_free:heap <- $r5
	@DEBUG_VALUE: rt_memheap_free:ptr <- $r4
	@DEBUG_VALUE: rt_memheap_free:new_ptr <- 0
	@DEBUG_VALUE: rt_memheap_free:insert_header <- 1
	.loc	2 550 34                        @ rt-thread/src/memheap.c:550:34
	str.w	r12, [r1, #8]
	.loc	2 551 22                        @ rt-thread/src/memheap.c:551:22
	ldr	r2, [r4, #-16]
	.loc	2 547 30                        @ rt-thread/src/memheap.c:547:30
	str	r3, [r5, #28]
	.loc	2 551 34                        @ rt-thread/src/memheap.c:551:34
	str	r1, [r2, #12]
	.loc	2 554 34                        @ rt-thread/src/memheap.c:554:34
	ldr	r7, [r4, #-12]
.Ltmp165:
	@DEBUG_VALUE: rt_memheap_free:header_ptr <- $r7
	@DEBUG_VALUE: rt_memheap_free:insert_header <- 0
.LBB4_15:
	@DEBUG_VALUE: rt_memheap_free:header_ptr <- $r7
	@DEBUG_VALUE: rt_memheap_free:heap <- $r5
	@DEBUG_VALUE: rt_memheap_free:ptr <- $r4
	@DEBUG_VALUE: rt_memheap_free:new_ptr <- 0
	@DEBUG_VALUE: rt_memheap_free:insert_header <- undef
	@DEBUG_VALUE: rt_memheap_free:header_ptr <- $r7
	.loc	2 560 10                        @ rt-thread/src/memheap.c:560:10
	ldr	r1, [r7, #8]
.Ltmp166:
	.loc	2 560 9 is_stmt 0               @ rt-thread/src/memheap.c:560:9
	ldrb	r2, [r1]
	lsls	r2, r2, #31
	bne	.LBB4_17
.Ltmp167:
@ %bb.16:
	@DEBUG_VALUE: rt_memheap_free:header_ptr <- $r7
	@DEBUG_VALUE: rt_memheap_free:heap <- $r5
	@DEBUG_VALUE: rt_memheap_free:ptr <- $r4
	@DEBUG_VALUE: rt_memheap_free:new_ptr <- 0
	.loc	2 576 18 is_stmt 1              @ rt-thread/src/memheap.c:576:18
	ldr	r3, [r1, #16]
	.loc	2 563 38                        @ rt-thread/src/memheap.c:563:38
	ldr	r2, [r5, #28]
	.loc	2 576 50                        @ rt-thread/src/memheap.c:576:50
	ldr	r4, [r1, #20]
.Ltmp168:
	.loc	2 563 53                        @ rt-thread/src/memheap.c:563:53
	adds	r2, #24
	.loc	2 576 39                        @ rt-thread/src/memheap.c:576:39
	str	r4, [r3, #20]
	.loc	2 563 30                        @ rt-thread/src/memheap.c:563:30
	str	r2, [r5, #28]
.Ltmp169:
	@DEBUG_VALUE: rt_memheap_free:new_ptr <- $r1
	.loc	2 572 18                        @ rt-thread/src/memheap.c:572:18
	ldr	r2, [r1, #8]
	.loc	2 577 18                        @ rt-thread/src/memheap.c:577:18
	ldr	r1, [r1, #20]
.Ltmp170:
	.loc	2 573 29                        @ rt-thread/src/memheap.c:573:29
	str	r2, [r7, #8]
	.loc	2 572 29                        @ rt-thread/src/memheap.c:572:29
	str	r7, [r2, #12]
	.loc	2 577 39                        @ rt-thread/src/memheap.c:577:39
	str	r3, [r1, #16]
.Ltmp171:
.LBB4_17:
	@DEBUG_VALUE: rt_memheap_free:header_ptr <- $r7
	@DEBUG_VALUE: rt_memheap_free:heap <- $r5
	.loc	2 580 9                         @ rt-thread/src/memheap.c:580:9
	cbz	r0, .LBB4_19
.Ltmp172:
@ %bb.18:
	@DEBUG_VALUE: rt_memheap_free:header_ptr <- $r7
	@DEBUG_VALUE: rt_memheap_free:heap <- $r5
	.loc	2 583 39                        @ rt-thread/src/memheap.c:583:39
	ldr	r0, [r5, #40]
	.loc	2 584 31                        @ rt-thread/src/memheap.c:584:31
	str	r0, [r7, #20]
	.loc	2 583 50                        @ rt-thread/src/memheap.c:583:50
	ldr	r1, [r0, #16]
	.loc	2 583 31 is_stmt 0              @ rt-thread/src/memheap.c:583:31
	str	r1, [r7, #16]
	.loc	2 585 26 is_stmt 1              @ rt-thread/src/memheap.c:585:26
	ldr	r1, [r0, #16]
	.loc	2 586 47                        @ rt-thread/src/memheap.c:586:47
	str	r7, [r0, #16]
	.loc	2 585 47                        @ rt-thread/src/memheap.c:585:47
	str	r7, [r1, #20]
.Ltmp173:
.LBB4_19:
	@DEBUG_VALUE: rt_memheap_free:header_ptr <- $r7
	@DEBUG_VALUE: rt_memheap_free:heap <- $r5
	.loc	2 594 5                         @ rt-thread/src/memheap.c:594:5
	mov	r0, r6
	bl	rt_sem_release
.Ltmp174:
.LBB4_20:
	.loc	2 595 1                         @ rt-thread/src/memheap.c:595:1
	add	sp, #4
	pop	{r4, r5, r6, r7, pc}
.Ltmp175:
	.p2align	2
@ %bb.21:
	.loc	2 0 1 is_stmt 0                 @ rt-thread/src/memheap.c:0:1
.LCPI4_0:
.L.str.7:
	.asciz	"(header_ptr->magic & RT_MEMHEAP_MASK) == RT_MEMHEAP_MAGIC\000\000"
.LCPI4_1:
.L.str.8:
	.asciz	"header_ptr->magic & RT_MEMHEAP_USED"
.Lfunc_end4:
	.size	rt_memheap_free, .Lfunc_end4-rt_memheap_free
	.cfi_endproc
	.cantunwind
	.fnend
                                        @ -- End function
	.section	.text.rt_system_heap_init,"ax",%progbits
	.hidden	rt_system_heap_init             @ -- Begin function rt_system_heap_init
	.globl	rt_system_heap_init
	.p2align	3
	.type	rt_system_heap_init,%function
	.code	16                              @ @rt_system_heap_init
	.thumb_func
rt_system_heap_init:
.Lfunc_begin5:
	.loc	2 602 0 is_stmt 1               @ rt-thread/src/memheap.c:602:0
	.fnstart
	.cfi_startproc
@ %bb.0:
	@DEBUG_VALUE: rt_system_heap_init:begin_addr <- $r0
	@DEBUG_VALUE: rt_system_heap_init:end_addr <- $r1
	.save	{r7, lr}
	push	{r7, lr}
	.cfi_def_cfa_offset 8
	.cfi_offset lr, -4
	.cfi_offset r7, -8
	mov	r2, r0
	@DEBUG_VALUE: rt_system_heap_init:end_addr <- $r1
.Ltmp176:
	@DEBUG_VALUE: rt_system_heap_init:begin_addr <- $r2
	.loc	2 607 43 prologue_end           @ rt-thread/src/memheap.c:607:43
	subs	r3, r1, r0
	.loc	2 604 5                         @ rt-thread/src/memheap.c:604:5
	movw	r0, :lower16:_heap
	movw	r1, :lower16:.L.str.1
.Ltmp177:
	@DEBUG_VALUE: rt_system_heap_init:end_addr <- [DW_OP_LLVM_entry_value 1] $r1
	movt	r0, :upper16:_heap
	movt	r1, :upper16:.L.str.1
	bl	rt_memheap_init
.Ltmp178:
	.loc	2 608 1                         @ rt-thread/src/memheap.c:608:1
	pop	{r7, pc}
.Ltmp179:
.Lfunc_end5:
	.size	rt_system_heap_init, .Lfunc_end5-rt_system_heap_init
	.cfi_endproc
	.cantunwind
	.fnend
                                        @ -- End function
	.section	.text.rt_malloc,"ax",%progbits
	.hidden	rt_malloc                       @ -- Begin function rt_malloc
	.globl	rt_malloc
	.p2align	3
	.type	rt_malloc,%function
	.code	16                              @ @rt_malloc
	.thumb_func
rt_malloc:
.Lfunc_begin6:
	.loc	2 611 0                         @ rt-thread/src/memheap.c:611:0
	.fnstart
	.cfi_startproc
@ %bb.0:
	@DEBUG_VALUE: rt_malloc:size <- $r0
	.save	{r4, r5, r6, r7, r8, r9, r10, lr}
	push.w	{r4, r5, r6, r7, r8, r9, r10, lr}
	.cfi_def_cfa_offset 32
	.cfi_offset lr, -4
	.cfi_offset r10, -8
	.cfi_offset r9, -12
	.cfi_offset r8, -16
	.cfi_offset r7, -20
	.cfi_offset r6, -24
	.cfi_offset r5, -28
	.cfi_offset r4, -32
.Ltmp180:
	.loc	2 615 11 prologue_end           @ rt-thread/src/memheap.c:615:11
	movw	r10, :lower16:_heap
	mov	r4, r0
.Ltmp181:
	@DEBUG_VALUE: rt_malloc:size <- $r4
	@DEBUG_VALUE: rt_malloc:size <- $r4
	movt	r10, :upper16:_heap
	mov	r1, r4
	mov	r0, r10
	bl	rt_memheap_alloc
.Ltmp182:
	@DEBUG_VALUE: rt_malloc:ptr <- $r0
	.loc	2 616 9                         @ rt-thread/src/memheap.c:616:9
	cmp	r0, #0
	@DEBUG_VALUE: rt_malloc:ptr <- $r0
	.loc	2 646 5                         @ rt-thread/src/memheap.c:646:5
	it	ne
	popne.w	{r4, r5, r6, r7, r8, r9, r10, pc}
.Ltmp183:
.LBB6_1:
	@DEBUG_VALUE: rt_malloc:ptr <- $r0
	.loc	2 624 23                        @ rt-thread/src/memheap.c:624:23
	movs	r0, #7
.Ltmp184:
	bl	rt_object_get_information
	mov	r6, r0
.Ltmp185:
	@DEBUG_VALUE: information <- $r6
	.loc	2 625 9                         @ rt-thread/src/memheap.c:625:9
	cbnz	r0, .LBB6_3
.Ltmp186:
@ %bb.2:
	@DEBUG_VALUE: information <- $r6
	.loc	2 625 9 is_stmt 0               @ rt-thread/src/memheap.c:625:9
	movw	r1, :lower16:.L__FUNCTION__.rt_malloc
	adr	r0, .LCPI6_0
	movt	r1, :upper16:.L__FUNCTION__.rt_malloc
	movw	r2, #625
	bl	rt_assert_handler
.Ltmp187:
.LBB6_3:
	@DEBUG_VALUE: information <- $r6
	@DEBUG_VALUE: node <- undef
	.loc	2 0 0                           @ rt-thread/src/memheap.c:0:0
	ldr	r5, [r6, #4]!
.Ltmp188:
	@DEBUG_VALUE: node <- $r5
	@DEBUG_VALUE: rt_malloc:ptr <- 0
	.loc	2 626 9 is_stmt 1               @ rt-thread/src/memheap.c:626:9
	cmp	r5, r6
	beq	.LBB6_11
.Ltmp189:
@ %bb.4:
	@DEBUG_VALUE: node <- $r5
	@DEBUG_VALUE: rt_malloc:ptr <- 0
	.loc	2 0 9 is_stmt 0                 @ rt-thread/src/memheap.c:0:9
	movw	r8, :lower16:.L.str.2
	movw	r9, :lower16:.L__FUNCTION__.rt_malloc
	movt	r8, :upper16:.L.str.2
	movt	r9, :upper16:.L__FUNCTION__.rt_malloc
	b	.LBB6_6
.Ltmp190:
	.p2align	2
.LBB6_5:                                @   in Loop: Header=BB6_6 Depth=1
	@DEBUG_VALUE: object <- $r7
	@DEBUG_VALUE: heap <- $r7
	@DEBUG_VALUE: node <- $r5
	@DEBUG_VALUE: rt_malloc:ptr <- 0
	@DEBUG_VALUE: node <- undef
	ldr	r5, [r5]
.Ltmp191:
	@DEBUG_VALUE: node <- $r5
	.loc	2 626 9                         @ rt-thread/src/memheap.c:626:9
	cmp	r5, r6
	beq	.LBB6_11
.Ltmp192:
.LBB6_6:                                @ =>This Inner Loop Header: Depth=1
	@DEBUG_VALUE: node <- $r5
	@DEBUG_VALUE: rt_malloc:ptr <- 0
	.loc	2 630 22 is_stmt 1              @ rt-thread/src/memheap.c:630:22
	sub.w	r7, r5, #12
.Ltmp193:
	@DEBUG_VALUE: heap <- $r7
	@DEBUG_VALUE: object <- $r7
	.loc	2 634 13                        @ rt-thread/src/memheap.c:634:13
	mov	r0, r7
	bl	rt_object_get_type
.Ltmp194:
	.loc	2 634 13 is_stmt 0              @ rt-thread/src/memheap.c:634:13
	cmp	r0, #7
	beq	.LBB6_8
.Ltmp195:
@ %bb.7:                                @   in Loop: Header=BB6_6 Depth=1
	@DEBUG_VALUE: object <- $r7
	@DEBUG_VALUE: heap <- $r7
	@DEBUG_VALUE: node <- $r5
	@DEBUG_VALUE: rt_malloc:ptr <- 0
	.loc	2 634 13                        @ rt-thread/src/memheap.c:634:13
	movw	r2, #634
	mov	r0, r8
	mov	r1, r9
	bl	rt_assert_handler
.Ltmp196:
.LBB6_8:                                @   in Loop: Header=BB6_6 Depth=1
	@DEBUG_VALUE: object <- $r7
	@DEBUG_VALUE: heap <- $r7
	@DEBUG_VALUE: node <- $r5
	@DEBUG_VALUE: rt_malloc:ptr <- 0
	.loc	2 637 17 is_stmt 1              @ rt-thread/src/memheap.c:637:17
	cmp	r7, r10
	beq	.LBB6_5
.Ltmp197:
@ %bb.9:                                @   in Loop: Header=BB6_6 Depth=1
	@DEBUG_VALUE: object <- $r7
	@DEBUG_VALUE: heap <- $r7
	@DEBUG_VALUE: node <- $r5
	@DEBUG_VALUE: rt_malloc:ptr <- 0
	.loc	2 640 19                        @ rt-thread/src/memheap.c:640:19
	mov	r0, r7
	mov	r1, r4
	bl	rt_memheap_alloc
.Ltmp198:
	@DEBUG_VALUE: rt_malloc:ptr <- $r0
	.loc	2 641 17                        @ rt-thread/src/memheap.c:641:17
	cmp	r0, #0
	beq	.LBB6_5
.Ltmp199:
@ %bb.10:
	@DEBUG_VALUE: rt_malloc:ptr <- $r0
	@DEBUG_VALUE: rt_malloc:ptr <- $r0
	.loc	2 646 5                         @ rt-thread/src/memheap.c:646:5
	pop.w	{r4, r5, r6, r7, r8, r9, r10, pc}
.Ltmp200:
.LBB6_11:
	@DEBUG_VALUE: rt_malloc:ptr <- 0
	.loc	2 0 5 is_stmt 0                 @ rt-thread/src/memheap.c:0:5
	movs	r0, #0
.Ltmp201:
	@DEBUG_VALUE: rt_malloc:ptr <- $r0
	.loc	2 646 5                         @ rt-thread/src/memheap.c:646:5
	pop.w	{r4, r5, r6, r7, r8, r9, r10, pc}
.Ltmp202:
	.p2align	2
@ %bb.12:
	.loc	2 0 5                           @ rt-thread/src/memheap.c:0:5
.LCPI6_0:
.L.str.10:
	.asciz	"information != RT_NULL\000"
.Lfunc_end6:
	.size	rt_malloc, .Lfunc_end6-rt_malloc
	.cfi_endproc
	.cantunwind
	.fnend
                                        @ -- End function
	.section	.text.rt_free,"ax",%progbits
	.hidden	rt_free                         @ -- Begin function rt_free
	.globl	rt_free
	.p2align	3
	.type	rt_free,%function
	.code	16                              @ @rt_free
	.thumb_func
rt_free:
.Lfunc_begin7:
	.loc	2 651 0 is_stmt 1               @ rt-thread/src/memheap.c:651:0
	.fnstart
	.cfi_startproc
@ %bb.0:
	@DEBUG_VALUE: rt_free:rmem <- $r0
	@DEBUG_VALUE: rt_free:rmem <- $r0
	@DEBUG_VALUE: rt_free:rmem <- $r0
	.save	{r7, lr}
	push	{r7, lr}
	.cfi_def_cfa_offset 8
	.cfi_offset lr, -4
	.cfi_offset r7, -8
.Ltmp203:
	.loc	2 652 5 prologue_end            @ rt-thread/src/memheap.c:652:5
	bl	rt_memheap_free
.Ltmp204:
	@DEBUG_VALUE: rt_free:rmem <- [DW_OP_LLVM_entry_value 1] $r0
	.loc	2 653 1                         @ rt-thread/src/memheap.c:653:1
	pop	{r7, pc}
.Ltmp205:
.Lfunc_end7:
	.size	rt_free, .Lfunc_end7-rt_free
	.cfi_endproc
	.cantunwind
	.fnend
                                        @ -- End function
	.section	.text.rt_realloc,"ax",%progbits
	.hidden	rt_realloc                      @ -- Begin function rt_realloc
	.globl	rt_realloc
	.p2align	3
	.type	rt_realloc,%function
	.code	16                              @ @rt_realloc
	.thumb_func
rt_realloc:
.Lfunc_begin8:
	.loc	2 657 0                         @ rt-thread/src/memheap.c:657:0
	.fnstart
	.cfi_startproc
@ %bb.0:
	@DEBUG_VALUE: rt_realloc:rmem <- $r0
	@DEBUG_VALUE: rt_realloc:newsize <- $r1
	@DEBUG_VALUE: rt_realloc:rmem <- $r0
	.save	{r4, r5, r6, lr}
	push	{r4, r5, r6, lr}
	.cfi_def_cfa_offset 16
	.cfi_offset lr, -4
	.cfi_offset r6, -8
	.cfi_offset r5, -12
	.cfi_offset r4, -16
	mov	r5, r1
.Ltmp206:
	@DEBUG_VALUE: rt_realloc:newsize <- $r5
	@DEBUG_VALUE: rt_realloc:newsize <- $r5
	.loc	2 661 9 prologue_end            @ rt-thread/src/memheap.c:661:9
	cbz	r0, .LBB8_4
.Ltmp207:
@ %bb.1:
	@DEBUG_VALUE: rt_realloc:newsize <- $r5
	@DEBUG_VALUE: rt_realloc:rmem <- $r0
	.loc	2 0 9 is_stmt 0                 @ rt-thread/src/memheap.c:0:9
	mov	r4, r0
.Ltmp208:
	@DEBUG_VALUE: rt_realloc:rmem <- $r4
	@DEBUG_VALUE: rt_realloc:rmem <- $r4
	.loc	2 664 9 is_stmt 1               @ rt-thread/src/memheap.c:664:9
	cbz	r5, .LBB8_5
.Ltmp209:
@ %bb.2:
	@DEBUG_VALUE: rt_realloc:newsize <- $r5
	@DEBUG_VALUE: rt_realloc:rmem <- $r4
	@DEBUG_VALUE: rt_realloc:header_ptr <- undef
	.loc	2 674 46                        @ rt-thread/src/memheap.c:674:46
	ldr	r0, [r4, #-20]
	.loc	2 674 15 is_stmt 0              @ rt-thread/src/memheap.c:674:15
	mov	r1, r4
	mov	r2, r5
	bl	rt_memheap_realloc
	mov	r6, r0
.Ltmp210:
	@DEBUG_VALUE: rt_realloc:new_ptr <- $r6
	.loc	2 675 28 is_stmt 1              @ rt-thread/src/memheap.c:675:28
	cbz	r0, .LBB8_7
.Ltmp211:
@ %bb.3:
	@DEBUG_VALUE: rt_realloc:new_ptr <- $r6
	@DEBUG_VALUE: rt_realloc:newsize <- $r5
	@DEBUG_VALUE: rt_realloc:rmem <- $r4
	.loc	2 695 1                         @ rt-thread/src/memheap.c:695:1
	mov	r0, r6
	pop	{r4, r5, r6, pc}
.Ltmp212:
.LBB8_4:
	@DEBUG_VALUE: rt_realloc:newsize <- $r5
	@DEBUG_VALUE: rt_realloc:rmem <- $r0
	.loc	2 662 16                        @ rt-thread/src/memheap.c:662:16
	mov	r0, r5
.Ltmp213:
	@DEBUG_VALUE: rt_realloc:rmem <- [DW_OP_LLVM_entry_value 1] $r0
	bl	rt_malloc
.Ltmp214:
	.loc	2 695 1                         @ rt-thread/src/memheap.c:695:1
	pop	{r4, r5, r6, pc}
.Ltmp215:
.LBB8_5:
	@DEBUG_VALUE: rt_realloc:newsize <- $r5
	@DEBUG_VALUE: rt_realloc:rmem <- $r4
	.loc	2 666 9                         @ rt-thread/src/memheap.c:666:9
	mov	r0, r4
	bl	rt_free
.Ltmp216:
.LBB8_6:
	@DEBUG_VALUE: rt_realloc:newsize <- $r5
	@DEBUG_VALUE: rt_realloc:rmem <- $r4
	.loc	2 0 9 is_stmt 0                 @ rt-thread/src/memheap.c:0:9
	movs	r0, #0
	.loc	2 695 1 is_stmt 1               @ rt-thread/src/memheap.c:695:1
	pop	{r4, r5, r6, pc}
.Ltmp217:
.LBB8_7:
	@DEBUG_VALUE: rt_realloc:new_ptr <- $r6
	@DEBUG_VALUE: rt_realloc:newsize <- $r5
	@DEBUG_VALUE: rt_realloc:rmem <- $r4
	@DEBUG_VALUE: rt_realloc:header_ptr <- undef
	.loc	2 678 19                        @ rt-thread/src/memheap.c:678:19
	mov	r0, r5
	bl	rt_malloc
.Ltmp218:
	@DEBUG_VALUE: rt_realloc:new_ptr <- $r0
	.loc	2 679 32                        @ rt-thread/src/memheap.c:679:32
	cmp	r0, #0
	beq	.LBB8_6
.Ltmp219:
@ %bb.8:
	@DEBUG_VALUE: rt_realloc:newsize <- $r5
	@DEBUG_VALUE: rt_realloc:rmem <- $r4
	@DEBUG_VALUE: rt_realloc:new_ptr <- $r0
	.loc	2 0 0 is_stmt 0                 @ rt-thread/src/memheap.c:0:0
	mov	r6, r0
.Ltmp220:
	@DEBUG_VALUE: rt_realloc:new_ptr <- $r6
	@DEBUG_VALUE: rt_realloc:new_ptr <- $r6
	sub.w	r0, r4, #24
.Ltmp221:
	@DEBUG_VALUE: rt_realloc:header_ptr <- $r0
	.loc	2 684 23 is_stmt 1              @ rt-thread/src/memheap.c:684:23
	ldr	r1, [r4, #-16]
	subs	r0, r1, r0
.Ltmp222:
	.loc	2 0 0 is_stmt 0                 @ rt-thread/src/memheap.c:0:0
	mov	r1, r4
.Ltmp223:
	.loc	2 684 23                        @ rt-thread/src/memheap.c:684:23
	subs	r0, #24
.Ltmp224:
	@DEBUG_VALUE: oldsize <- $r0
	.loc	2 685 17 is_stmt 1              @ rt-thread/src/memheap.c:685:17
	cmp	r0, r5
	it	lo
	movlo	r5, r0
.Ltmp225:
	@DEBUG_VALUE: oldsize <- $r5
	@DEBUG_VALUE: rt_realloc:newsize <- [DW_OP_LLVM_entry_value 1] $r1
	.loc	2 0 0 is_stmt 0                 @ rt-thread/src/memheap.c:0:0
	mov	r0, r6
	mov	r2, r5
	bl	rt_memcpy
.Ltmp226:
	.loc	2 690 13 is_stmt 1              @ rt-thread/src/memheap.c:690:13
	mov	r0, r4
	bl	rt_free
.Ltmp227:
	.loc	2 695 1                         @ rt-thread/src/memheap.c:695:1
	mov	r0, r6
	pop	{r4, r5, r6, pc}
.Ltmp228:
.Lfunc_end8:
	.size	rt_realloc, .Lfunc_end8-rt_realloc
	.cfi_endproc
	.cantunwind
	.fnend
                                        @ -- End function
	.section	.text.rt_calloc,"ax",%progbits
	.hidden	rt_calloc                       @ -- Begin function rt_calloc
	.globl	rt_calloc
	.p2align	3
	.type	rt_calloc,%function
	.code	16                              @ @rt_calloc
	.thumb_func
rt_calloc:
.Lfunc_begin9:
	.loc	2 699 0                         @ rt-thread/src/memheap.c:699:0
	.fnstart
	.cfi_startproc
@ %bb.0:
	@DEBUG_VALUE: rt_calloc:count <- $r0
	@DEBUG_VALUE: rt_calloc:count <- $r0
	@DEBUG_VALUE: rt_calloc:size <- $r1
	@DEBUG_VALUE: rt_calloc:size <- $r1
	.save	{r4, r5, r7, lr}
	push	{r4, r5, r7, lr}
	.cfi_def_cfa_offset 16
	.cfi_offset lr, -4
	.cfi_offset r7, -8
	.cfi_offset r5, -12
	.cfi_offset r4, -16
.Ltmp229:
	.loc	2 703 24 prologue_end           @ rt-thread/src/memheap.c:703:24
	mul	r4, r1, r0
.Ltmp230:
	@DEBUG_VALUE: rt_calloc:total_size <- $r4
	.loc	2 704 11                        @ rt-thread/src/memheap.c:704:11
	mov	r0, r4
.Ltmp231:
	@DEBUG_VALUE: rt_calloc:count <- [DW_OP_LLVM_entry_value 1] $r0
	bl	rt_malloc
.Ltmp232:
	@DEBUG_VALUE: rt_calloc:size <- [DW_OP_LLVM_entry_value 1] $r1
	mov	r5, r0
.Ltmp233:
	@DEBUG_VALUE: rt_calloc:ptr <- $r5
	.loc	2 705 9                         @ rt-thread/src/memheap.c:705:9
	cbz	r0, .LBB9_2
.Ltmp234:
@ %bb.1:
	@DEBUG_VALUE: rt_calloc:ptr <- $r5
	@DEBUG_VALUE: rt_calloc:total_size <- $r4
	@DEBUG_VALUE: rt_calloc:size <- [DW_OP_LLVM_entry_value 1] $r1
	@DEBUG_VALUE: rt_calloc:count <- [DW_OP_LLVM_entry_value 1] $r0
	.loc	2 708 9                         @ rt-thread/src/memheap.c:708:9
	movs	r1, #0
	mov	r0, r5
	mov	r2, r4
	bl	rt_memset
.Ltmp235:
.LBB9_2:
	@DEBUG_VALUE: rt_calloc:ptr <- $r5
	@DEBUG_VALUE: rt_calloc:total_size <- $r4
	@DEBUG_VALUE: rt_calloc:size <- [DW_OP_LLVM_entry_value 1] $r1
	@DEBUG_VALUE: rt_calloc:count <- [DW_OP_LLVM_entry_value 1] $r0
	.loc	2 711 5                         @ rt-thread/src/memheap.c:711:5
	mov	r0, r5
	pop	{r4, r5, r7, pc}
.Ltmp236:
.Lfunc_end9:
	.size	rt_calloc, .Lfunc_end9-rt_calloc
	.cfi_endproc
	.cantunwind
	.fnend
                                        @ -- End function
	.type	.L.str.1,%object                @ @.str.1
	.section	.rodata.str1.1,"aMS",%progbits,1
.L.str.1:
	.asciz	"heap"
	.size	.L.str.1, 5

	.type	.L__FUNCTION__.rt_memheap_detach,%object @ @__FUNCTION__.rt_memheap_detach
.L__FUNCTION__.rt_memheap_detach:
	.asciz	"rt_memheap_detach"
	.size	.L__FUNCTION__.rt_memheap_detach, 18

	.type	.L.str.2,%object                @ @.str.2
.L.str.2:
	.asciz	"rt_object_get_type(&heap->parent) == RT_Object_Class_MemHeap"
	.size	.L.str.2, 61

	.type	.L__FUNCTION__.rt_memheap_alloc,%object @ @__FUNCTION__.rt_memheap_alloc
.L__FUNCTION__.rt_memheap_alloc:
	.asciz	"rt_memheap_alloc"
	.size	.L__FUNCTION__.rt_memheap_alloc, 17

	.type	.L__FUNCTION__.rt_memheap_realloc,%object @ @__FUNCTION__.rt_memheap_realloc
.L__FUNCTION__.rt_memheap_realloc:
	.asciz	"rt_memheap_realloc"
	.size	.L__FUNCTION__.rt_memheap_realloc, 19

	.type	.L__FUNCTION__.rt_memheap_free,%object @ @__FUNCTION__.rt_memheap_free
.L__FUNCTION__.rt_memheap_free:
	.asciz	"rt_memheap_free"
	.size	.L__FUNCTION__.rt_memheap_free, 16

	.type	.L.str.9,%object                @ @.str.9
.L.str.9:
	.asciz	"(header_ptr->next->magic & RT_MEMHEAP_MASK) == RT_MEMHEAP_MAGIC"
	.size	.L.str.9, 64

	.type	_heap,%object                   @ @_heap
	.section	.bss._heap,"aw",%nobits
	.p2align	2
_heap:
	.zero	100
	.size	_heap, 100

	.type	.L__FUNCTION__.rt_malloc,%object @ @__FUNCTION__.rt_malloc
	.section	.rodata.str1.1,"aMS",%progbits,1
.L__FUNCTION__.rt_malloc:
	.asciz	"rt_malloc"
	.size	.L__FUNCTION__.rt_malloc, 10

	.section	".note.GNU-stack","",%progbits
	.eabi_attribute	30, 1	@ Tag_ABI_optimization_goals
	.ARM_attribute	16, 1	@ Tag_AV_eba