	.text
	.syntax unified
	.eabi_attribute	67, "2.09"	@ Tag_conformance
	.cpu	cortex-m7
	.eabi_attribute	6, 13	@ Tag_CPU_arch
	.eabi_attribute	7, 77	@ Tag_CPU_arch_profile
	.eabi_attribute	8, 0	@ Tag_ARM_ISA_use
	.eabi_attribute	9, 2	@ Tag_THUMB_ISA_use
	.fpu	fpv5-d16
	.eabi_attribute	36, 1	@ Tag_FP_HP_extension
	.eabi_attribute	34, 1	@ Tag_CPU_unaligned_access
	.eabi_attribute	17, 1	@ Tag_ABI_PCS_GOT_use
	.eabi_attribute	20, 2	@ Tag_ABI_FP_denormal
	.eabi_attribute	21, 0	@ Tag_ABI_FP_exceptions
	.eabi_attribute	23, 1	@ Tag_ABI_FP_number_model
	.eabi_attribute	24, 1	@ Tag_ABI_align_needed
	.eabi_attribute	25, 1	@ Tag_ABI_align_preserved
	.eabi_attribute	28, 1	@ Tag_ABI_VFP_args
	.eabi_attribute	38, 1	@ Tag_ABI_FP_16bit_format
	.eabi_attribute	18, 2	@ Tag_ABI_PCS_wchar_t
	.eabi_attribute	26, 1	@ Tag_ABI_enum_size
	.eabi_attribute	14, 0	@ Tag_ABI_PCS_R9_use
	.file	"mempool.c"
	.file	1 "E:\\STM32\\Learning\\STM32H750_ART_PI_RGBLCD" "rt-thread/include\\rtdef.h"
	.file	2 "E:\\STM32\\Learning\\STM32H750_ART_PI_RGBLCD" "rt-thread/src/mempool.c"
	.section	.text.rt_mp_alloc_sethook,"ax",%progbits
	.hidden	rt_mp_alloc_sethook             @ -- Begin function rt_mp_alloc_sethook
	.globl	rt_mp_alloc_sethook
	.p2align	3
	.type	rt_mp_alloc_sethook,%function
	.code	16                              @ @rt_mp_alloc_sethook
	.thumb_func
rt_mp_alloc_sethook:
.Lfunc_begin0:
	.loc	2 41 0                          @ rt-thread/src/mempool.c:41:0
	.fnstart
	.cfi_sections .debug_frame
	.cfi_startproc
@ %bb.0:
	.pad	#4
	sub	sp, #4
	.cfi_def_cfa_offset 4
	str	r0, [sp]
.Ltmp0:
	.loc	2 42 24 prologue_end            @ rt-thread/src/mempool.c:42:24
	ldr	r0, [sp]
	.loc	2 42 22 is_stmt 0               @ rt-thread/src/mempool.c:42:22
	movw	r1, :lower16:rt_mp_alloc_hook
	movt	r1, :upper16:rt_mp_alloc_hook
	str	r0, [r1]
	.loc	2 43 1 is_stmt 1                @ rt-thread/src/mempool.c:43:1
	add	sp, #4
	bx	lr
.Ltmp1:
.Lfunc_end0:
	.size	rt_mp_alloc_sethook, .Lfunc_end0-rt_mp_alloc_sethook
	.cfi_endproc
	.cantunwind
	.fnend
                                        @ -- End function
	.section	.text.rt_mp_free_sethook,"ax",%progbits
	.hidden	rt_mp_free_sethook              @ -- Begin function rt_mp_free_sethook
	.globl	rt_mp_free_sethook
	.p2align	3
	.type	rt_mp_free_sethook,%function
	.code	16                              @ @rt_mp_free_sethook
	.thumb_func
rt_mp_free_sethook:
.Lfunc_begin1:
	.loc	2 52 0                          @ rt-thread/src/mempool.c:52:0
	.fnstart
	.cfi_startproc
@ %bb.0:
	.pad	#4
	sub	sp, #4
	.cfi_def_cfa_offset 4
	str	r0, [sp]
.Ltmp2:
	.loc	2 53 23 prologue_end            @ rt-thread/src/mempool.c:53:23
	ldr	r0, [sp]
	.loc	2 53 21 is_stmt 0               @ rt-thread/src/mempool.c:53:21
	movw	r1, :lower16:rt_mp_free_hook
	movt	r1, :upper16:rt_mp_free_hook
	str	r0, [r1]
	.loc	2 54 1 is_stmt 1                @ rt-thread/src/mempool.c:54:1
	add	sp, #4
	bx	lr
.Ltmp3:
.Lfunc_end1:
	.size	rt_mp_free_sethook, .Lfunc_end1-rt_mp_free_sethook
	.cfi_endproc
	.cantunwind
	.fnend
                                        @ -- End function
	.section	.text.rt_mp_init,"ax",%progbits
	.hidden	rt_mp_init                      @ -- Begin function rt_mp_init
	.globl	rt_mp_init
	.p2align	3
	.type	rt_mp_init,%function
	.code	16                              @ @rt_mp_init
	.thumb_func
rt_mp_init:
.Lfunc_begin2:
	.loc	2 82 0                          @ rt-thread/src/mempool.c:82:0
	.fnstart
	.cfi_startproc
@ %bb.0:
	.save	{r7, lr}
	push	{r7, lr}
	.cfi_def_cfa_offset 8
	.cfi_offset lr, -4
	.cfi_offset r7, -8
	.pad	#24
	sub	sp, #24
	.cfi_def_cfa_offset 32
	ldr.w	r12, [sp, #32]
	str	r0, [sp, #20]
	str	r1, [sp, #16]
	str	r2, [sp, #12]
	str	r3, [sp, #8]
.Ltmp4:
	.loc	2 87 5 prologue_end             @ rt-thread/src/mempool.c:87:5
	ldr	r0, [sp, #20]
.Ltmp5:
	.loc	2 87 5 is_stmt 0                @ rt-thread/src/mempool.c:87:5
	cbnz	r0, .LBB2_2
	b	.LBB2_1
.LBB2_1:
.Ltmp6:
	.loc	2 87 5                          @ rt-thread/src/mempool.c:87:5
	movw	r0, :lower16:.L.str
	movt	r0, :upper16:.L.str
	movw	r1, :lower16:.L__FUNCTION__.rt_mp_init
	movt	r1, :upper16:.L__FUNCTION__.rt_mp_init
	movs	r2, #87
	bl	rt_assert_handler
	b	.LBB2_2
.Ltmp7:
.LBB2_2:
	.loc	2 88 5 is_stmt 1                @ rt-thread/src/mempool.c:88:5
	ldr	r0, [sp, #16]
.Ltmp8:
	.loc	2 88 5 is_stmt 0                @ rt-thread/src/mempool.c:88:5
	cbnz	r0, .LBB2_4
	b	.LBB2_3
.LBB2_3:
.Ltmp9:
	.loc	2 88 5                          @ rt-thread/src/mempool.c:88:5
	movw	r0, :lower16:.L.str.1
	movt	r0, :upper16:.L.str.1
	movw	r1, :lower16:.L__FUNCTION__.rt_mp_init
	movt	r1, :upper16:.L__FUNCTION__.rt_mp_init
	movs	r2, #88
	bl	rt_assert_handler
	b	.LBB2_4
.Ltmp10:
.LBB2_4:
	.loc	2 89 5 is_stmt 1                @ rt-thread/src/mempool.c:89:5
	ldr	r0, [sp, #12]
.Ltmp11:
	.loc	2 89 5 is_stmt 0                @ rt-thread/src/mempool.c:89:5
	cbnz	r0, .LBB2_6
	b	.LBB2_5
.LBB2_5:
.Ltmp12:
	.loc	2 89 5                          @ rt-thread/src/mempool.c:89:5
	movw	r0, :lower16:.L.str.2
	movt	r0, :upper16:.L.str.2
	movw	r1, :lower16:.L__FUNCTION__.rt_mp_init
	movt	r1, :upper16:.L__FUNCTION__.rt_mp_init
	movs	r2, #89
	bl	rt_assert_handler
	b	.LBB2_6
.Ltmp13:
.LBB2_6:
	.loc	2 90 5 is_stmt 1                @ rt-thread/src/mempool.c:90:5
	ldr	r0, [sp, #8]
	cbz	r0, .LBB2_8
	b	.LBB2_7
.LBB2_7:
	ldr	r0, [sp, #32]
.Ltmp14:
	.loc	2 90 5 is_stmt 0                @ rt-thread/src/mempool.c:90:5
	cbnz	r0, .LBB2_9
	b	.LBB2_8
.LBB2_8:
.Ltmp15:
	.loc	2 90 5                          @ rt-thread/src/mempool.c:90:5
	movw	r0, :lower16:.L.str.3
	movt	r0, :upper16:.L.str.3
	movw	r1, :lower16:.L__FUNCTION__.rt_mp_init
	movt	r1, :upper16:.L__FUNCTION__.rt_mp_init
	movs	r2, #90
	bl	rt_assert_handler
	b	.LBB2_9
.Ltmp16:
.LBB2_9:
	.loc	2 93 22 is_stmt 1               @ rt-thread/src/mempool.c:93:22
	ldr	r0, [sp, #20]
	.loc	2 93 60 is_stmt 0               @ rt-thread/src/mempool.c:93:60
	ldr	r2, [sp, #16]
	movs	r1, #8
	.loc	2 93 5                          @ rt-thread/src/mempool.c:93:5
	bl	rt_object_init
	.loc	2 96 25 is_stmt 1               @ rt-thread/src/mempool.c:96:25
	ldr	r0, [sp, #12]
	.loc	2 96 5 is_stmt 0                @ rt-thread/src/mempool.c:96:5
	ldr	r1, [sp, #20]
	.loc	2 96 23                         @ rt-thread/src/mempool.c:96:23
	str	r0, [r1, #20]
	.loc	2 97 16 is_stmt 1               @ rt-thread/src/mempool.c:97:16
	ldr	r0, [sp, #8]
	bic	r0, r0, #3
	.loc	2 97 5 is_stmt 0                @ rt-thread/src/mempool.c:97:5
	ldr	r1, [sp, #20]
	.loc	2 97 14                         @ rt-thread/src/mempool.c:97:14
	str	r0, [r1, #24]
	.loc	2 100 18 is_stmt 1              @ rt-thread/src/mempool.c:100:18
	ldr	r0, [sp, #32]
	adds	r0, #3
	bic	r0, r0, #3
	.loc	2 100 16 is_stmt 0              @ rt-thread/src/mempool.c:100:16
	str	r0, [sp, #32]
	.loc	2 101 22 is_stmt 1              @ rt-thread/src/mempool.c:101:22
	ldr	r0, [sp, #32]
	.loc	2 101 5 is_stmt 0               @ rt-thread/src/mempool.c:101:5
	ldr	r1, [sp, #20]
	.loc	2 101 20                        @ rt-thread/src/mempool.c:101:20
	str	r0, [r1, #28]
	.loc	2 104 29 is_stmt 1              @ rt-thread/src/mempool.c:104:29
	ldr	r1, [sp, #20]
	.loc	2 104 33 is_stmt 0              @ rt-thread/src/mempool.c:104:33
	ldr	r0, [r1, #24]
	.loc	2 104 45                        @ rt-thread/src/mempool.c:104:45
	ldr	r2, [r1, #28]
	.loc	2 104 56                        @ rt-thread/src/mempool.c:104:56
	adds	r2, #4
	.loc	2 104 38                        @ rt-thread/src/mempool.c:104:38
	udiv	r0, r0, r2
	.loc	2 104 27                        @ rt-thread/src/mempool.c:104:27
	str	r0, [r1, #36]
	.loc	2 105 29 is_stmt 1              @ rt-thread/src/mempool.c:105:29
	ldr	r1, [sp, #20]
	.loc	2 105 33 is_stmt 0              @ rt-thread/src/mempool.c:105:33
	ldr	r0, [r1, #36]
	.loc	2 105 27                        @ rt-thread/src/mempool.c:105:27
	str	r0, [r1, #40]
	.loc	2 108 20 is_stmt 1              @ rt-thread/src/mempool.c:108:20
	ldr	r0, [sp, #20]
	.loc	2 108 24 is_stmt 0              @ rt-thread/src/mempool.c:108:24
	adds	r0, #44
	.loc	2 108 5                         @ rt-thread/src/mempool.c:108:5
	bl	rt_list_init
	.loc	2 111 31 is_stmt 1              @ rt-thread/src/mempool.c:111:31
	ldr	r0, [sp, #20]
	.loc	2 111 35 is_stmt 0              @ rt-thread/src/mempool.c:111:35
	ldr	r0, [r0, #20]
	.loc	2 111 15                        @ rt-thread/src/mempool.c:111:15
	str	r0, [sp, #4]
	movs	r0, #0
.Ltmp17:
	.loc	2 112 17 is_stmt 1              @ rt-thread/src/mempool.c:112:17
	str	r0, [sp]
	.loc	2 112 10 is_stmt 0              @ rt-thread/src/mempool.c:112:10
	b	.LBB2_10
.LBB2_10:                               @ =>This Inner Loop Header: Depth=1
.Ltmp18:
	.loc	2 112 22                        @ rt-thread/src/mempool.c:112:22
	ldr	r0, [sp]
	.loc	2 112 31                        @ rt-thread/src/mempool.c:112:31
	ldr	r1, [sp, #20]
	.loc	2 112 35                        @ rt-thread/src/mempool.c:112:35
	ldr	r1, [r1, #36]
.Ltmp19:
	.loc	2 112 5                         @ rt-thread/src/mempool.c:112:5
	cmp	r0, r1
	bhs	.LBB2_13
	b	.LBB2_11
.LBB2_11:                               @   in Loop: Header=BB2_10 Depth=1
.Ltmp20:
	.loc	2 115 28 is_stmt 1              @ rt-thread/src/mempool.c:115:28
	ldr	r1, [sp, #4]
	.loc	2 115 41 is_stmt 0              @ rt-thread/src/mempool.c:115:41
	ldr	r2, [sp]
	.loc	2 115 48                        @ rt-thread/src/mempool.c:115:48
	adds	r0, r2, #1
	.loc	2 115 56                        @ rt-thread/src/mempool.c:115:56
	ldr	r3, [sp, #32]
	.loc	2 115 67                        @ rt-thread/src/mempool.c:115:67
	adds	r3, #4
	.loc	2 115 38                        @ rt-thread/src/mempool.c:115:38
	mla	r0, r0, r3, r1
	.loc	2 114 45 is_stmt 1              @ rt-thread/src/mempool.c:114:45
	muls	r2, r3, r2
	.loc	2 114 84 is_stmt 0              @ rt-thread/src/mempool.c:114:84
	str	r0, [r1, r2]
	.loc	2 116 5 is_stmt 1               @ rt-thread/src/mempool.c:116:5
	b	.LBB2_12
.Ltmp21:
.LBB2_12:                               @   in Loop: Header=BB2_10 Depth=1
	.loc	2 112 61                        @ rt-thread/src/mempool.c:112:61
	ldr	r0, [sp]
	adds	r0, #1
	str	r0, [sp]
	.loc	2 112 5 is_stmt 0               @ rt-thread/src/mempool.c:112:5
	b	.LBB2_10
.Ltmp22:
.LBB2_13:
	.loc	2 118 22 is_stmt 1              @ rt-thread/src/mempool.c:118:22
	ldr	r1, [sp, #4]
	.loc	2 118 35 is_stmt 0              @ rt-thread/src/mempool.c:118:35
	ldr	r0, [sp]
	.loc	2 118 42                        @ rt-thread/src/mempool.c:118:42
	subs	r0, #1
	.loc	2 118 50                        @ rt-thread/src/mempool.c:118:50
	ldr	r2, [sp, #32]
	.loc	2 118 61                        @ rt-thread/src/mempool.c:118:61
	adds	r2, #4
	.loc	2 118 47                        @ rt-thread/src/mempool.c:118:47
	muls	r2, r0, r2
	movs	r0, #0
	.loc	2 118 86                        @ rt-thread/src/mempool.c:118:86
	str	r0, [r1, r2]
	.loc	2 121 22 is_stmt 1              @ rt-thread/src/mempool.c:121:22
	ldr	r1, [sp, #4]
	.loc	2 121 5 is_stmt 0               @ rt-thread/src/mempool.c:121:5
	ldr	r2, [sp, #20]
	.loc	2 121 20                        @ rt-thread/src/mempool.c:121:20
	str	r1, [r2, #32]
	.loc	2 123 5 is_stmt 1               @ rt-thread/src/mempool.c:123:5
	add	sp, #24
	pop	{r7, pc}
.Ltmp23:
.Lfunc_end2:
	.size	rt_mp_init, .Lfunc_end2-rt_mp_init
	.cfi_endproc
	.cantunwind
	.fnend
                                        @ -- End function
	.section	.text.rt_list_init,"ax",%progbits
	.p2align	3                               @ -- Begin function rt_list_init
	.type	rt_list_init,%function
	.code	16                              @ @rt_list_init
	.thumb_func
rt_list_init:
.Lfunc_begin3:
	.file	3 "E:\\STM32\\Learning\\STM32H750_ART_PI_RGBLCD" "rt-thread/include\\rtservice.h"
	.loc	3 48 0                          @ rt-thread/include\rtservice.h:48:0
	.fnstart
	.cfi_startproc
@ %bb.0:
	.pad	#4
	sub	sp, #4
	.cfi_def_cfa_offset 4
	str	r0, [sp]
.Ltmp24:
	.loc	3 49 25 prologue_end            @ rt-thread/include\rtservice.h:49:25
	ldr	r0, [sp]
	.loc	3 49 23 is_stmt 0               @ rt-thread/include\rtservice.h:49:23
	str	r0, [r0, #4]
	.loc	3 49 5                          @ rt-thread/include\rtservice.h:49:5
	ldr	r1, [sp]
	.loc	3 49 13                         @ rt-thread/include\rtservice.h:49:13
	str	r0, [r1]
	.loc	3 50 1 is_stmt 1                @ rt-thread/include\rtservice.h:50:1
	add	sp, #4
	bx	lr
.Ltmp25:
.Lfunc_end3:
	.size	rt_list_init, .Lfunc_end3-rt_list_init
	.cfi_endproc
	.cantunwind
	.fnend
                                        @ -- End function
	.section	.text.rt_mp_detach,"ax",%progbits
	.hidden	rt_mp_detach                    @ -- Begin function rt_mp_detach
	.globl	rt_mp_detach
	.p2align	3
	.type	rt_mp_detach,%function
	.code	16                              @ @rt_mp_detach
	.thumb_func
rt_mp_detach:
.Lfunc_begin4:
	.loc	2 135 0                         @ rt-thread/src/mempool.c:135:0
	.fnstart
	.cfi_startproc
@ %bb.0:
	.save	{r7, lr}
	push	{r7, lr}
	.cfi_def_cfa_offset 8
	.cfi_offset lr, -4
	.cfi_offset r7, -8
	.pad	#16
	sub	sp, #16
	.cfi_def_cfa_offset 24
	str	r0, [sp, #12]
.Ltmp26:
	.loc	2 140 5 prologue_end            @ rt-thread/src/mempool.c:140:5
	ldr	r0, [sp, #12]
.Ltmp27:
	.loc	2 140 5 is_stmt 0               @ rt-thread/src/mempool.c:140:5
	cbnz	r0, .LBB4_2
	b	.LBB4_1
.LBB4_1:
.Ltmp28:
	.loc	2 140 5                         @ rt-thread/src/mempool.c:140:5
	movw	r0, :lower16:.L.str
	movt	r0, :upper16:.L.str
	movw	r1, :lower16:.L__FUNCTION__.rt_mp_detach
	movt	r1, :upper16:.L__FUNCTION__.rt_mp_detach
	movs	r2, #140
	bl	rt_assert_handler
	b	.LBB4_2
.Ltmp29:
.LBB4_2:
	.loc	2 141 5 is_stmt 1               @ rt-thread/src/mempool.c:141:5
	ldr	r0, [sp, #12]
	bl	rt_object_get_type
.Ltmp30:
	.loc	2 141 5 is_stmt 0               @ rt-thread/src/mempool.c:141:5
	cmp	r0, #8
	beq	.LBB4_4
	b	.LBB4_3
.LBB4_3:
.Ltmp31:
	.loc	2 141 5                         @ rt-thread/src/mempool.c:141:5
	movw	r0, :lower16:.L.str.4
	movt	r0, :upper16:.L.str.4
	movw	r1, :lower16:.L__FUNCTION__.rt_mp_detach
	movt	r1, :upper16:.L__FUNCTION__.rt_mp_detach
	movs	r2, #141
	bl	rt_assert_handler
	b	.LBB4_4
.Ltmp32:
.LBB4_4:
	.loc	2 142 5 is_stmt 1               @ rt-thread/src/mempool.c:142:5
	ldr	r0, [sp, #12]
	bl	rt_object_is_systemobject
.Ltmp33:
	.loc	2 142 5 is_stmt 0               @ rt-thread/src/mempool.c:142:5
	cbnz	r0, .LBB4_6
	b	.LBB4_5
.LBB4_5:
.Ltmp34:
	.loc	2 142 5                         @ rt-thread/src/mempool.c:142:5
	movw	r0, :lower16:.L.str.5
	movt	r0, :upper16:.L.str.5
	movw	r1, :lower16:.L__FUNCTION__.rt_mp_detach
	movt	r1, :upper16:.L__FUNCTION__.rt_mp_detach
	movs	r2, #142
	bl	rt_assert_handler
	b	.LBB4_6
.Ltmp35:
.LBB4_6:
	.loc	2 145 5 is_stmt 1               @ rt-thread/src/mempool.c:145:5
	b	.LBB4_7
.LBB4_7:                                @ =>This Inner Loop Header: Depth=1
	.loc	2 145 31 is_stmt 0              @ rt-thread/src/mempool.c:145:31
	ldr	r0, [sp, #12]
	.loc	2 145 35                        @ rt-thread/src/mempool.c:145:35
	adds	r0, #44
	.loc	2 145 13                        @ rt-thread/src/mempool.c:145:13
	bl	rt_list_isempty
	.loc	2 145 5                         @ rt-thread/src/mempool.c:145:5
	cbnz	r0, .LBB4_9
	b	.LBB4_8
.LBB4_8:                                @   in Loop: Header=BB4_7 Depth=1
.Ltmp36:
	.loc	2 148 16 is_stmt 1              @ rt-thread/src/mempool.c:148:16
	bl	rt_hw_interrupt_disable
	.loc	2 148 14 is_stmt 0              @ rt-thread/src/mempool.c:148:14
	str	r0, [sp, #4]
	.loc	2 151 18 is_stmt 1              @ rt-thread/src/mempool.c:151:18
	ldr	r0, [sp, #12]
	ldr	r0, [r0, #44]
	subs	r0, #20
	.loc	2 151 16 is_stmt 0              @ rt-thread/src/mempool.c:151:16
	str	r0, [sp, #8]
	.loc	2 153 9 is_stmt 1               @ rt-thread/src/mempool.c:153:9
	ldr	r1, [sp, #8]
	mov.w	r0, #-1
	.loc	2 153 23 is_stmt 0              @ rt-thread/src/mempool.c:153:23
	str	r0, [r1, #48]
	.loc	2 160 26 is_stmt 1              @ rt-thread/src/mempool.c:160:26
	ldr	r0, [sp, #8]
	.loc	2 160 9 is_stmt 0               @ rt-thread/src/mempool.c:160:9
	bl	rt_thread_resume
	.loc	2 163 32 is_stmt 1              @ rt-thread/src/mempool.c:163:32
	ldr	r0, [sp, #4]
	.loc	2 163 9 is_stmt 0               @ rt-thread/src/mempool.c:163:9
	bl	rt_hw_interrupt_enable
.Ltmp37:
	.loc	2 145 5 is_stmt 1               @ rt-thread/src/mempool.c:145:5
	b	.LBB4_7
.LBB4_9:
	.loc	2 167 24                        @ rt-thread/src/mempool.c:167:24
	ldr	r0, [sp, #12]
	.loc	2 167 5 is_stmt 0               @ rt-thread/src/mempool.c:167:5
	bl	rt_object_detach
	movs	r0, #0
	.loc	2 169 5 is_stmt 1               @ rt-thread/src/mempool.c:169:5
	add	sp, #16
	pop	{r7, pc}
.Ltmp38:
.Lfunc_end4:
	.size	rt_mp_detach, .Lfunc_end4-rt_mp_detach
	.cfi_endproc
	.cantunwind
	.fnend
                                        @ -- End function
	.section	.text.rt_list_isempty,"ax",%progbits
	.p2align	3                               @ -- Begin function rt_list_isempty
	.type	rt_list_isempty,%function
	.code	16                              @ @rt_list_isempty
	.thumb_func
rt_list_isempty:
.Lfunc_begin5:
	.loc	3 99 0                          @ rt-thread/include\rtservice.h:99:0
	.fnstart
	.cfi_startproc
@ %bb.0:
	.pad	#4
	sub	sp, #4
	.cfi_def_cfa_offset 4
	str	r0, [sp]
.Ltmp39:
	.loc	3 100 12 prologue_end           @ rt-thread/include\rtservice.h:100:12
	ldr	r1, [sp]
	.loc	3 100 15 is_stmt 0              @ rt-thread/include\rtservice.h:100:15
	ldr	r0, [r1]
	.loc	3 100 20                        @ rt-thread/include\rtservice.h:100:20
	subs	r0, r0, r1
	clz	r0, r0
	lsrs	r0, r0, #5
	.loc	3 100 5                         @ rt-thread/include\rtservice.h:100:5
	add	sp, #4
	bx	lr
.Ltmp40:
.Lfunc_end5:
	.size	rt_list_isempty, .Lfunc_end5-rt_list_isempty
	.cfi_endproc
	.cantunwind
	.fnend
                                        @ -- End function
	.section	.text.rt_mp_create,"ax",%progbits
	.hidden	rt_mp_create                    @ -- Begin function rt_mp_create
	.globl	rt_mp_create
	.p2align	3
	.type	rt_mp_create,%function
	.code	16                              @ @rt_mp_create
	.thumb_func
rt_mp_create:
.Lfunc_begin6:
	.loc	2 187 0 is_stmt 1               @ rt-thread/src/mempool.c:187:0
	.fnstart
	.cfi_startproc
@ %bb.0:
	.save	{r7, lr}
	push	{r7, lr}
	.cfi_def_cfa_offset 8
	.cfi_offset lr, -4
	.cfi_offset r7, -8
	.pad	#32
	sub	sp, #32
	.cfi_def_cfa_offset 40
	str	r0, [sp, #24]
	str	r1, [sp, #20]
	str	r2, [sp, #16]
.Ltmp41:
	.loc	2 192 5 prologue_end            @ rt-thread/src/mempool.c:192:5
	b	.LBB6_1
.LBB6_1:
.Ltmp42:
	.loc	2 192 5 is_stmt 0               @ rt-thread/src/mempool.c:192:5
	bl	rt_hw_interrupt_disable
	str	r0, [sp]
.Ltmp43:
	.loc	2 192 5                         @ rt-thread/src/mempool.c:192:5
	bl	rt_interrupt_get_nest
.Ltmp44:
	.loc	2 192 5                         @ rt-thread/src/mempool.c:192:5
	cbz	r0, .LBB6_3
	b	.LBB6_2
.LBB6_2:
.Ltmp45:
	.loc	2 192 5                         @ rt-thread/src/mempool.c:192:5
	movw	r0, :lower16:.L.str.6
	movt	r0, :upper16:.L.str.6
	movw	r1, :lower16:.L__FUNCTION__.rt_mp_create
	movt	r1, :upper16:.L__FUNCTION__.rt_mp_create
	movs	r2, #192
	bl	rt_assert_handler
.Ltmp46:
	.loc	2 192 5                         @ rt-thread/src/mempool.c:192:5
	b	.LBB6_3
.Ltmp47:
.LBB6_3:
	.loc	2 192 5                         @ rt-thread/src/mempool.c:192:5
	ldr	r0, [sp]
	bl	rt_hw_interrupt_enable
	b	.LBB6_4
.Ltmp48:
.LBB6_4:
	.loc	2 195 5 is_stmt 1               @ rt-thread/src/mempool.c:195:5
	ldr	r0, [sp, #24]
.Ltmp49:
	.loc	2 195 5 is_stmt 0               @ rt-thread/src/mempool.c:195:5
	cbnz	r0, .LBB6_6
	b	.LBB6_5
.LBB6_5:
.Ltmp50:
	.loc	2 195 5                         @ rt-thread/src/mempool.c:195:5
	movw	r0, :lower16:.L.str.1
	movt	r0, :upper16:.L.str.1
	movw	r1, :lower16:.L__FUNCTION__.rt_mp_create
	movt	r1, :upper16:.L__FUNCTION__.rt_mp_create
	movs	r2, #195
	bl	rt_assert_handler
	b	.LBB6_6
.Ltmp51:
.LBB6_6:
	.loc	2 196 5 is_stmt 1               @ rt-thread/src/mempool.c:196:5
	ldr	r0, [sp, #20]
	cbz	r0, .LBB6_8
	b	.LBB6_7
.LBB6_7:
	ldr	r0, [sp, #16]
.Ltmp52:
	.loc	2 196 5 is_stmt 0               @ rt-thread/src/mempool.c:196:5
	cbnz	r0, .LBB6_9
	b	.LBB6_8
.LBB6_8:
.Ltmp53:
	.loc	2 196 5                         @ rt-thread/src/mempool.c:196:5
	movw	r0, :lower16:.L.str.7
	movt	r0, :upper16:.L.str.7
	movw	r1, :lower16:.L__FUNCTION__.rt_mp_create
	movt	r1, :upper16:.L__FUNCTION__.rt_mp_create
	movs	r2, #196
	bl	rt_assert_handler
	b	.LBB6_9
.Ltmp54:
.LBB6_9:
	.loc	2 199 75 is_stmt 1              @ rt-thread/src/mempool.c:199:75
	ldr	r1, [sp, #24]
	movs	r0, #8
	.loc	2 199 31 is_stmt 0              @ rt-thread/src/mempool.c:199:31
	bl	rt_object_allocate
	.loc	2 199 8                         @ rt-thread/src/mempool.c:199:8
	str	r0, [sp, #8]
.Ltmp55:
	.loc	2 201 9 is_stmt 1               @ rt-thread/src/mempool.c:201:9
	ldr	r0, [sp, #8]
.Ltmp56:
	.loc	2 201 9 is_stmt 0               @ rt-thread/src/mempool.c:201:9
	cbnz	r0, .LBB6_11
	b	.LBB6_10
.LBB6_10:
	.loc	2 0 9                           @ rt-thread/src/mempool.c:0:9
	movs	r0, #0
.Ltmp57:
	.loc	2 202 9 is_stmt 1               @ rt-thread/src/mempool.c:202:9
	str	r0, [sp, #28]
	b	.LBB6_18
.Ltmp58:
.LBB6_11:
	.loc	2 205 22                        @ rt-thread/src/mempool.c:205:22
	ldr	r0, [sp, #16]
	adds	r0, #3
	bic	r0, r0, #3
	.loc	2 205 20 is_stmt 0              @ rt-thread/src/mempool.c:205:20
	str	r0, [sp, #16]
	.loc	2 206 22 is_stmt 1              @ rt-thread/src/mempool.c:206:22
	ldr	r0, [sp, #16]
	.loc	2 206 5 is_stmt 0               @ rt-thread/src/mempool.c:206:5
	ldr	r1, [sp, #8]
	.loc	2 206 20                        @ rt-thread/src/mempool.c:206:20
	str	r0, [r1, #28]
	.loc	2 207 23 is_stmt 1              @ rt-thread/src/mempool.c:207:23
	ldr	r0, [sp, #16]
	.loc	2 207 34 is_stmt 0              @ rt-thread/src/mempool.c:207:34
	adds	r0, #4
	.loc	2 207 60                        @ rt-thread/src/mempool.c:207:60
	ldr	r1, [sp, #20]
	.loc	2 207 58                        @ rt-thread/src/mempool.c:207:58
	muls	r0, r1, r0
	.loc	2 207 5                         @ rt-thread/src/mempool.c:207:5
	ldr	r1, [sp, #8]
	.loc	2 207 20                        @ rt-thread/src/mempool.c:207:20
	str	r0, [r1, #24]
	.loc	2 210 36 is_stmt 1              @ rt-thread/src/mempool.c:210:36
	ldr	r0, [sp, #16]
	.loc	2 210 47 is_stmt 0              @ rt-thread/src/mempool.c:210:47
	adds	r0, #4
	.loc	2 211 35 is_stmt 1              @ rt-thread/src/mempool.c:211:35
	ldr	r1, [sp, #20]
	.loc	2 210 71                        @ rt-thread/src/mempool.c:210:71
	muls	r0, r1, r0
	.loc	2 210 25 is_stmt 0              @ rt-thread/src/mempool.c:210:25
	bl	rt_malloc
	.loc	2 210 5                         @ rt-thread/src/mempool.c:210:5
	ldr	r1, [sp, #8]
	.loc	2 210 23                        @ rt-thread/src/mempool.c:210:23
	str	r0, [r1, #20]
.Ltmp59:
	.loc	2 212 9 is_stmt 1               @ rt-thread/src/mempool.c:212:9
	ldr	r0, [sp, #8]
	.loc	2 212 13 is_stmt 0              @ rt-thread/src/mempool.c:212:13
	ldr	r0, [r0, #20]
.Ltmp60:
	.loc	2 212 9                         @ rt-thread/src/mempool.c:212:9
	cbnz	r0, .LBB6_13
	b	.LBB6_12
.LBB6_12:
.Ltmp61:
	.loc	2 215 28 is_stmt 1              @ rt-thread/src/mempool.c:215:28
	ldr	r0, [sp, #8]
	.loc	2 215 9 is_stmt 0               @ rt-thread/src/mempool.c:215:9
	bl	rt_object_delete
	movs	r0, #0
	.loc	2 217 9 is_stmt 1               @ rt-thread/src/mempool.c:217:9
	str	r0, [sp, #28]
	b	.LBB6_18
.Ltmp62:
.LBB6_13:
	.loc	2 220 29                        @ rt-thread/src/mempool.c:220:29
	ldr	r0, [sp, #20]
	.loc	2 220 5 is_stmt 0               @ rt-thread/src/mempool.c:220:5
	ldr	r1, [sp, #8]
	.loc	2 220 27                        @ rt-thread/src/mempool.c:220:27
	str	r0, [r1, #36]
	.loc	2 221 29 is_stmt 1              @ rt-thread/src/mempool.c:221:29
	ldr	r1, [sp, #8]
	.loc	2 221 33 is_stmt 0              @ rt-thread/src/mempool.c:221:33
	ldr	r0, [r1, #36]
	.loc	2 221 27                        @ rt-thread/src/mempool.c:221:27
	str	r0, [r1, #40]
	.loc	2 224 20 is_stmt 1              @ rt-thread/src/mempool.c:224:20
	ldr	r0, [sp, #8]
	.loc	2 224 24 is_stmt 0              @ rt-thread/src/mempool.c:224:24
	adds	r0, #44
	.loc	2 224 5                         @ rt-thread/src/mempool.c:224:5
	bl	rt_list_init
	.loc	2 227 31 is_stmt 1              @ rt-thread/src/mempool.c:227:31
	ldr	r0, [sp, #8]
	.loc	2 227 35 is_stmt 0              @ rt-thread/src/mempool.c:227:35
	ldr	r0, [r0, #20]
	.loc	2 227 15                        @ rt-thread/src/mempool.c:227:15
	str	r0, [sp, #12]
	movs	r0, #0
.Ltmp63:
	.loc	2 228 17 is_stmt 1              @ rt-thread/src/mempool.c:228:17
	str	r0, [sp, #4]
	.loc	2 228 10 is_stmt 0              @ rt-thread/src/mempool.c:228:10
	b	.LBB6_14
.LBB6_14:                               @ =>This Inner Loop Header: Depth=1
.Ltmp64:
	.loc	2 228 22                        @ rt-thread/src/mempool.c:228:22
	ldr	r0, [sp, #4]
	.loc	2 228 31                        @ rt-thread/src/mempool.c:228:31
	ldr	r1, [sp, #8]
	.loc	2 228 35                        @ rt-thread/src/mempool.c:228:35
	ldr	r1, [r1, #36]
.Ltmp65:
	.loc	2 228 5                         @ rt-thread/src/mempool.c:228:5
	cmp	r0, r1
	bhs	.LBB6_17
	b	.LBB6_15
.LBB6_15:                               @   in Loop: Header=BB6_14 Depth=1
.Ltmp66:
	.loc	2 231 15 is_stmt 1              @ rt-thread/src/mempool.c:231:15
	ldr	r1, [sp, #12]
	.loc	2 231 28 is_stmt 0              @ rt-thread/src/mempool.c:231:28
	ldr	r2, [sp, #4]
	.loc	2 231 35                        @ rt-thread/src/mempool.c:231:35
	adds	r0, r2, #1
	.loc	2 231 43                        @ rt-thread/src/mempool.c:231:43
	ldr	r3, [sp, #16]
	.loc	2 231 54                        @ rt-thread/src/mempool.c:231:54
	adds	r3, #4
	.loc	2 231 25                        @ rt-thread/src/mempool.c:231:25
	mla	r0, r0, r3, r1
	.loc	2 230 45 is_stmt 1              @ rt-thread/src/mempool.c:230:45
	muls	r2, r3, r2
	.loc	2 231 13                        @ rt-thread/src/mempool.c:231:13
	str	r0, [r1, r2]
	.loc	2 232 5                         @ rt-thread/src/mempool.c:232:5
	b	.LBB6_16
.Ltmp67:
.LBB6_16:                               @   in Loop: Header=BB6_14 Depth=1
	.loc	2 228 61                        @ rt-thread/src/mempool.c:228:61
	ldr	r0, [sp, #4]
	adds	r0, #1
	str	r0, [sp, #4]
	.loc	2 228 5 is_stmt 0               @ rt-thread/src/mempool.c:228:5
	b	.LBB6_14
.Ltmp68:
.LBB6_17:
	.loc	2 234 22 is_stmt 1              @ rt-thread/src/mempool.c:234:22
	ldr	r1, [sp, #12]
	.loc	2 234 35 is_stmt 0              @ rt-thread/src/mempool.c:234:35
	ldr	r0, [sp, #4]
	.loc	2 234 42                        @ rt-thread/src/mempool.c:234:42
	subs	r0, #1
	.loc	2 234 50                        @ rt-thread/src/mempool.c:234:50
	ldr	r2, [sp, #16]
	.loc	2 234 61                        @ rt-thread/src/mempool.c:234:61
	adds	r2, #4
	.loc	2 234 47                        @ rt-thread/src/mempool.c:234:47
	muls	r2, r0, r2
	movs	r0, #0
	.loc	2 235 9 is_stmt 1               @ rt-thread/src/mempool.c:235:9
	str	r0, [r1, r2]
	.loc	2 237 22                        @ rt-thread/src/mempool.c:237:22
	ldr	r0, [sp, #12]
	.loc	2 237 5 is_stmt 0               @ rt-thread/src/mempool.c:237:5
	ldr	r1, [sp, #8]
	.loc	2 237 20                        @ rt-thread/src/mempool.c:237:20
	str	r0, [r1, #32]
	.loc	2 239 12 is_stmt 1              @ rt-thread/src/mempool.c:239:12
	ldr	r0, [sp, #8]
	.loc	2 239 5 is_stmt 0               @ rt-thread/src/mempool.c:239:5
	str	r0, [sp, #28]
	b	.LBB6_18
.LBB6_18:
	.loc	2 240 1 is_stmt 1               @ rt-thread/src/mempool.c:240:1
	ldr	r0, [sp, #28]
	add	sp, #32
	pop	{r7, pc}
.Ltmp69:
.Lfunc_end6:
	.size	rt_mp_create, .Lfunc_end6-rt_mp_create
	.cfi_endproc
	.cantunwind
	.fnend
                                        @ -- End function
	.section	.text.rt_mp_delete,"ax",%progbits
	.hidden	rt_mp_delete                    @ -- Begin function rt_mp_delete
	.globl	rt_mp_delete
	.p2align	3
	.type	rt_mp_delete,%function
	.code	16                              @ @rt_mp_delete
	.thumb_func
rt_mp_delete:
.Lfunc_begin7:
	.loc	2 251 0                         @ rt-thread/src/mempool.c:251:0
	.fnstart
	.cfi_startproc
@ %bb.0:
	.save	{r7, lr}
	push	{r7, lr}
	.cfi_def_cfa_offset 8
	.cfi_offset lr, -4
	.cfi_offset r7, -8
	.pad	#16
	sub	sp, #16
	.cfi_def_cfa_offset 24
	str	r0, [sp, #12]
.Ltmp70:
	.loc	2 255 5 prologue_end            @ rt-thread/src/mempool.c:255:5
	b	.LBB7_1
.LBB7_1:
.Ltmp71:
	.loc	2 255 5 is_stmt 0               @ rt-thread/src/mempool.c:255:5
	bl	rt_hw_interrupt_disable
	str	r0, [sp]
.Ltmp72:
	.loc	2 255 5                         @ rt-thread/src/mempool.c:255:5
	bl	rt_interrupt_get_nest
.Ltmp73:
	.loc	2 255 5                         @ rt-thread/src/mempool.c:255:5
	cbz	r0, .LBB7_3
	b	.LBB7_2
.LBB7_2:
.Ltmp74:
	.loc	2 255 5                         @ rt-thread/src/mempool.c:255:5
	movw	r0, :lower16:.L.str.6
	movt	r0, :upper16:.L.str.6
	movw	r1, :lower16:.L__FUNCTION__.rt_mp_delete
	movt	r1, :upper16:.L__FUNCTION__.rt_mp_delete
	movs	r2, #255
	bl	rt_assert_handler
.Ltmp75:
	.loc	2 255 5                         @ rt-thread/src/mempool.c:255:5
	b	.LBB7_3
.Ltmp76:
.LBB7_3:
	.loc	2 255 5                         @ rt-thread/src/mempool.c:255:5
	ldr	r0, [sp]
	bl	rt_hw_interrupt_enable
	b	.LBB7_4
.Ltmp77:
.LBB7_4:
	.loc	2 258 5 is_stmt 1               @ rt-thread/src/mempool.c:258:5
	ldr	r0, [sp, #12]
.Ltmp78:
	.loc	2 258 5 is_stmt 0               @ rt-thread/src/mempool.c:258:5
	cbnz	r0, .LBB7_6
	b	.LBB7_5
.LBB7_5:
.Ltmp79:
	.loc	2 258 5                         @ rt-thread/src/mempool.c:258:5
	movw	r0, :lower16:.L.str
	movt	r0, :upper16:.L.str
	movw	r1, :lower16:.L__FUNCTION__.rt_mp_delete
	movt	r1, :upper16:.L__FUNCTION__.rt_mp_delete
	mov.w	r2, #258
	bl	rt_assert_handler
	b	.LBB7_6
.Ltmp80:
.LBB7_6:
	.loc	2 259 5 is_stmt 1               @ rt-thread/src/mempool.c:259:5
	ldr	r0, [sp, #12]
	bl	rt_object_get_type
.Ltmp81:
	.loc	2 259 5 is_stmt 0               @ rt-thread/src/mempool.c:259:5
	cmp	r0, #8
	beq	.LBB7_8
	b	.LBB7_7
.LBB7_7:
.Ltmp82:
	.loc	2 259 5                         @ rt-thread/src/mempool.c:259:5
	movw	r0, :lower16:.L.str.4
	movt	r0, :upper16:.L.str.4
	movw	r1, :lower16:.L__FUNCTION__.rt_mp_delete
	movt	r1, :upper16:.L__FUNCTION__.rt_mp_delete
	movw	r2, #259
	bl	rt_assert_handler
	b	.LBB7_8
.Ltmp83:
.LBB7_8:
	.loc	2 260 5 is_stmt 1               @ rt-thread/src/mempool.c:260:5
	ldr	r0, [sp, #12]
	bl	rt_object_is_systemobject
.Ltmp84:
	.loc	2 260 5 is_stmt 0               @ rt-thread/src/mempool.c:260:5
	cbz	r0, .LBB7_10
	b	.LBB7_9
.LBB7_9:
.Ltmp85:
	.loc	2 260 5                         @ rt-thread/src/mempool.c:260:5
	movw	r0, :lower16:.L.str.8
	movt	r0, :upper16:.L.str.8
	movw	r1, :lower16:.L__FUNCTION__.rt_mp_delete
	movt	r1, :upper16:.L__FUNCTION__.rt_mp_delete
	mov.w	r2, #260
	bl	rt_assert_handler
	b	.LBB7_10
.Ltmp86:
.LBB7_10:
	.loc	2 263 5 is_stmt 1               @ rt-thread/src/mempool.c:263:5
	b	.LBB7_11
.LBB7_11:                               @ =>This Inner Loop Header: Depth=1
	.loc	2 263 31 is_stmt 0              @ rt-thread/src/mempool.c:263:31
	ldr	r0, [sp, #12]
	.loc	2 263 35                        @ rt-thread/src/mempool.c:263:35
	adds	r0, #44
	.loc	2 263 13                        @ rt-thread/src/mempool.c:263:13
	bl	rt_list_isempty
	.loc	2 263 5                         @ rt-thread/src/mempool.c:263:5
	cbnz	r0, .LBB7_13
	b	.LBB7_12
.LBB7_12:                               @   in Loop: Header=BB7_11 Depth=1
.Ltmp87:
	.loc	2 266 16 is_stmt 1              @ rt-thread/src/mempool.c:266:16
	bl	rt_hw_interrupt_disable
	.loc	2 266 14 is_stmt 0              @ rt-thread/src/mempool.c:266:14
	str	r0, [sp, #4]
	.loc	2 269 18 is_stmt 1              @ rt-thread/src/mempool.c:269:18
	ldr	r0, [sp, #12]
	ldr	r0, [r0, #44]
	subs	r0, #20
	.loc	2 269 16 is_stmt 0              @ rt-thread/src/mempool.c:269:16
	str	r0, [sp, #8]
	.loc	2 271 9 is_stmt 1               @ rt-thread/src/mempool.c:271:9
	ldr	r1, [sp, #8]
	mov.w	r0, #-1
	.loc	2 271 23 is_stmt 0              @ rt-thread/src/mempool.c:271:23
	str	r0, [r1, #48]
	.loc	2 278 26 is_stmt 1              @ rt-thread/src/mempool.c:278:26
	ldr	r0, [sp, #8]
	.loc	2 278 9 is_stmt 0               @ rt-thread/src/mempool.c:278:9
	bl	rt_thread_resume
	.loc	2 281 32 is_stmt 1              @ rt-thread/src/mempool.c:281:32
	ldr	r0, [sp, #4]
	.loc	2 281 9 is_stmt 0               @ rt-thread/src/mempool.c:281:9
	bl	rt_hw_interrupt_enable
.Ltmp88:
	.loc	2 263 5 is_stmt 1               @ rt-thread/src/mempool.c:263:5
	b	.LBB7_11
.LBB7_13:
	.loc	2 285 13                        @ rt-thread/src/mempool.c:285:13
	ldr	r0, [sp, #12]
	.loc	2 285 17 is_stmt 0              @ rt-thread/src/mempool.c:285:17
	ldr	r0, [r0, #20]
	.loc	2 285 5                         @ rt-thread/src/mempool.c:285:5
	bl	rt_free
	.loc	2 288 24 is_stmt 1              @ rt-thread/src/mempool.c:288:24
	ldr	r0, [sp, #12]
	.loc	2 288 5 is_stmt 0               @ rt-thread/src/mempool.c:288:5
	bl	rt_object_delete
	movs	r0, #0
	.loc	2 290 5 is_stmt 1               @ rt-thread/src/mempool.c:290:5
	add	sp, #16
	pop	{r7, pc}
.Ltmp89:
.Lfunc_end7:
	.size	rt_mp_delete, .Lfunc_end7-rt_mp_delete
	.cfi_endproc
	.cantunwind
	.fnend
                                        @ -- End function
	.section	.text.rt_mp_alloc,"ax",%progbits
	.hidden	rt_mp_alloc                     @ -- Begin function rt_mp_alloc
	.globl	rt_mp_alloc
	.p2align	3
	.type	rt_mp_alloc,%function
	.code	16                              @ @rt_mp_alloc
	.thumb_func
rt_mp_alloc:
.Lfunc_begin8:
	.loc	2 304 0                         @ rt-thread/src/mempool.c:304:0
	.fnstart
	.cfi_startproc
@ %bb.0:
	.save	{r7, lr}
	push	{r7, lr}
	.cfi_def_cfa_offset 8
	.cfi_offset lr, -4
	.cfi_offset r7, -8
	.pad	#32
	sub	sp, #32
	.cfi_def_cfa_offset 40
	str	r0, [sp, #24]
	str	r1, [sp, #20]
	movs	r0, #0
.Ltmp90:
	.loc	2 308 17 prologue_end           @ rt-thread/src/mempool.c:308:17
	str	r0, [sp, #4]
.Ltmp91:
	.loc	2 311 5                         @ rt-thread/src/mempool.c:311:5
	ldr	r0, [sp, #24]
.Ltmp92:
	.loc	2 311 5 is_stmt 0               @ rt-thread/src/mempool.c:311:5
	cbnz	r0, .LBB8_2
	b	.LBB8_1
.LBB8_1:
.Ltmp93:
	.loc	2 311 5                         @ rt-thread/src/mempool.c:311:5
	movw	r0, :lower16:.L.str
	movt	r0, :upper16:.L.str
	movw	r1, :lower16:.L__FUNCTION__.rt_mp_alloc
	movt	r1, :upper16:.L__FUNCTION__.rt_mp_alloc
	movw	r2, #311
	bl	rt_assert_handler
	b	.LBB8_2
.Ltmp94:
.LBB8_2:
	.loc	2 314 14 is_stmt 1              @ rt-thread/src/mempool.c:314:14
	bl	rt_thread_self
	.loc	2 314 12 is_stmt 0              @ rt-thread/src/mempool.c:314:12
	str	r0, [sp, #8]
	.loc	2 317 13 is_stmt 1              @ rt-thread/src/mempool.c:317:13
	bl	rt_hw_interrupt_disable
	.loc	2 317 11 is_stmt 0              @ rt-thread/src/mempool.c:317:11
	str	r0, [sp, #12]
	.loc	2 319 5 is_stmt 1               @ rt-thread/src/mempool.c:319:5
	b	.LBB8_3
.LBB8_3:                                @ =>This Inner Loop Header: Depth=1
	.loc	2 319 12 is_stmt 0              @ rt-thread/src/mempool.c:319:12
	ldr	r0, [sp, #24]
	.loc	2 319 16                        @ rt-thread/src/mempool.c:319:16
	ldr	r0, [r0, #40]
	.loc	2 319 5                         @ rt-thread/src/mempool.c:319:5
	cmp	r0, #0
	bne	.LBB8_19
	b	.LBB8_4
.LBB8_4:                                @   in Loop: Header=BB8_3 Depth=1
.Ltmp95:
	.loc	2 322 13 is_stmt 1              @ rt-thread/src/mempool.c:322:13
	ldr	r0, [sp, #20]
.Ltmp96:
	.loc	2 322 13 is_stmt 0              @ rt-thread/src/mempool.c:322:13
	cbnz	r0, .LBB8_6
	b	.LBB8_5
.LBB8_5:
.Ltmp97:
	.loc	2 325 36 is_stmt 1              @ rt-thread/src/mempool.c:325:36
	ldr	r0, [sp, #12]
	.loc	2 325 13 is_stmt 0              @ rt-thread/src/mempool.c:325:13
	bl	rt_hw_interrupt_enable
	mvn	r0, #1
	.loc	2 327 13 is_stmt 1              @ rt-thread/src/mempool.c:327:13
	bl	rt_set_errno
	movs	r0, #0
	.loc	2 329 13                        @ rt-thread/src/mempool.c:329:13
	str	r0, [sp, #28]
	b	.LBB8_26
.Ltmp98:
.LBB8_6:                                @   in Loop: Header=BB8_3 Depth=1
	.loc	2 332 9                         @ rt-thread/src/mempool.c:332:9
	b	.LBB8_7
.LBB8_7:                                @   in Loop: Header=BB8_3 Depth=1
.Ltmp99:
	.loc	2 332 9 is_stmt 0               @ rt-thread/src/mempool.c:332:9
	bl	rt_hw_interrupt_disable
	str	r0, [sp]
.Ltmp100:
	.loc	2 332 9                         @ rt-thread/src/mempool.c:332:9
	bl	rt_interrupt_get_nest
.Ltmp101:
	.loc	2 332 9                         @ rt-thread/src/mempool.c:332:9
	cbz	r0, .LBB8_9
	b	.LBB8_8
.LBB8_8:                                @   in Loop: Header=BB8_3 Depth=1
.Ltmp102:
	.loc	2 332 9                         @ rt-thread/src/mempool.c:332:9
	movw	r0, :lower16:.L.str.6
	movt	r0, :upper16:.L.str.6
	movw	r1, :lower16:.L__FUNCTION__.rt_mp_alloc
	movt	r1, :upper16:.L__FUNCTION__.rt_mp_alloc
	mov.w	r2, #332
	bl	rt_assert_handler
.Ltmp103:
	.loc	2 332 9                         @ rt-thread/src/mempool.c:332:9
	b	.LBB8_9
.Ltmp104:
.LBB8_9:                                @   in Loop: Header=BB8_3 Depth=1
	.loc	2 332 9                         @ rt-thread/src/mempool.c:332:9
	ldr	r0, [sp]
	bl	rt_hw_interrupt_enable
	b	.LBB8_10
.Ltmp105:
.LBB8_10:                               @   in Loop: Header=BB8_3 Depth=1
	.loc	2 334 9 is_stmt 1               @ rt-thread/src/mempool.c:334:9
	ldr	r1, [sp, #8]
	movs	r0, #0
	.loc	2 334 23 is_stmt 0              @ rt-thread/src/mempool.c:334:23
	str	r0, [r1, #48]
	.loc	2 337 27 is_stmt 1              @ rt-thread/src/mempool.c:337:27
	ldr	r0, [sp, #8]
	.loc	2 337 9 is_stmt 0               @ rt-thread/src/mempool.c:337:9
	bl	rt_thread_suspend
	.loc	2 338 32 is_stmt 1              @ rt-thread/src/mempool.c:338:32
	ldr	r0, [sp, #24]
	.loc	2 338 36 is_stmt 0              @ rt-thread/src/mempool.c:338:36
	adds	r0, #44
	.loc	2 338 55                        @ rt-thread/src/mempool.c:338:55
	ldr	r1, [sp, #8]
	.loc	2 338 63                        @ rt-thread/src/mempool.c:338:63
	adds	r1, #20
	.loc	2 338 9                         @ rt-thread/src/mempool.c:338:9
	bl	rt_list_insert_after
.Ltmp106:
	.loc	2 340 13 is_stmt 1              @ rt-thread/src/mempool.c:340:13
	ldr	r0, [sp, #20]
.Ltmp107:
	.loc	2 340 13 is_stmt 0              @ rt-thread/src/mempool.c:340:13
	cmp	r0, #1
	blt	.LBB8_12
	b	.LBB8_11
.LBB8_11:                               @   in Loop: Header=BB8_3 Depth=1
.Ltmp108:
	.loc	2 343 28 is_stmt 1              @ rt-thread/src/mempool.c:343:28
	bl	rt_tick_get
	.loc	2 343 26 is_stmt 0              @ rt-thread/src/mempool.c:343:26
	str	r0, [sp, #4]
	.loc	2 346 32 is_stmt 1              @ rt-thread/src/mempool.c:346:32
	ldr	r0, [sp, #8]
	.loc	2 346 40 is_stmt 0              @ rt-thread/src/mempool.c:346:40
	adds	r0, #76
	movs	r1, #0
	add	r2, sp, #20
	.loc	2 346 13                        @ rt-thread/src/mempool.c:346:13
	bl	rt_timer_control
	.loc	2 349 30 is_stmt 1              @ rt-thread/src/mempool.c:349:30
	ldr	r0, [sp, #8]
	.loc	2 349 38 is_stmt 0              @ rt-thread/src/mempool.c:349:38
	adds	r0, #76
	.loc	2 349 13                        @ rt-thread/src/mempool.c:349:13
	bl	rt_timer_start
	.loc	2 350 9 is_stmt 1               @ rt-thread/src/mempool.c:350:9
	b	.LBB8_12
.Ltmp109:
.LBB8_12:                               @   in Loop: Header=BB8_3 Depth=1
	.loc	2 353 32                        @ rt-thread/src/mempool.c:353:32
	ldr	r0, [sp, #12]
	.loc	2 353 9 is_stmt 0               @ rt-thread/src/mempool.c:353:9
	bl	rt_hw_interrupt_enable
	.loc	2 356 9 is_stmt 1               @ rt-thread/src/mempool.c:356:9
	bl	rt_schedule
.Ltmp110:
	.loc	2 358 13                        @ rt-thread/src/mempool.c:358:13
	ldr	r0, [sp, #8]
	.loc	2 358 21 is_stmt 0              @ rt-thread/src/mempool.c:358:21
	ldr	r0, [r0, #48]
.Ltmp111:
	.loc	2 358 13                        @ rt-thread/src/mempool.c:358:13
	cbz	r0, .LBB8_14
	b	.LBB8_13
.LBB8_13:
	.loc	2 0 13                          @ rt-thread/src/mempool.c:0:13
	movs	r0, #0
.Ltmp112:
	.loc	2 359 13 is_stmt 1              @ rt-thread/src/mempool.c:359:13
	str	r0, [sp, #28]
	b	.LBB8_26
.Ltmp113:
.LBB8_14:                               @   in Loop: Header=BB8_3 Depth=1
	.loc	2 361 13                        @ rt-thread/src/mempool.c:361:13
	ldr	r0, [sp, #20]
.Ltmp114:
	.loc	2 361 13 is_stmt 0              @ rt-thread/src/mempool.c:361:13
	cmp	r0, #1
	blt	.LBB8_18
	b	.LBB8_15
.LBB8_15:                               @   in Loop: Header=BB8_3 Depth=1
.Ltmp115:
	.loc	2 363 21 is_stmt 1              @ rt-thread/src/mempool.c:363:21
	bl	rt_tick_get
	mov	r2, r0
	.loc	2 363 37 is_stmt 0              @ rt-thread/src/mempool.c:363:37
	ldr	r1, [sp, #4]
	.loc	2 363 18                        @ rt-thread/src/mempool.c:363:18
	ldr	r0, [sp, #20]
	subs	r1, r1, r2
	add	r0, r1
	str	r0, [sp, #20]
.Ltmp116:
	.loc	2 364 17 is_stmt 1              @ rt-thread/src/mempool.c:364:17
	ldr	r0, [sp, #20]
.Ltmp117:
	.loc	2 364 17 is_stmt 0              @ rt-thread/src/mempool.c:364:17
	cmp.w	r0, #-1
	bgt	.LBB8_17
	b	.LBB8_16
.LBB8_16:                               @   in Loop: Header=BB8_3 Depth=1
	.loc	2 0 17                          @ rt-thread/src/mempool.c:0:17
	movs	r0, #0
.Ltmp118:
	.loc	2 365 22 is_stmt 1              @ rt-thread/src/mempool.c:365:22
	str	r0, [sp, #20]
	.loc	2 365 17 is_stmt 0              @ rt-thread/src/mempool.c:365:17
	b	.LBB8_17
.Ltmp119:
.LBB8_17:                               @   in Loop: Header=BB8_3 Depth=1
	.loc	2 366 9 is_stmt 1               @ rt-thread/src/mempool.c:366:9
	b	.LBB8_18
.Ltmp120:
.LBB8_18:                               @   in Loop: Header=BB8_3 Depth=1
	.loc	2 368 17                        @ rt-thread/src/mempool.c:368:17
	bl	rt_hw_interrupt_disable
	.loc	2 368 15 is_stmt 0              @ rt-thread/src/mempool.c:368:15
	str	r0, [sp, #12]
.Ltmp121:
	.loc	2 319 5 is_stmt 1               @ rt-thread/src/mempool.c:319:5
	b	.LBB8_3
.LBB8_19:
	.loc	2 372 5                         @ rt-thread/src/mempool.c:372:5
	ldr	r1, [sp, #24]
	.loc	2 372 25 is_stmt 0              @ rt-thread/src/mempool.c:372:25
	ldr	r0, [r1, #40]
	subs	r0, #1
	str	r0, [r1, #40]
	.loc	2 375 17 is_stmt 1              @ rt-thread/src/mempool.c:375:17
	ldr	r0, [sp, #24]
	.loc	2 375 21 is_stmt 0              @ rt-thread/src/mempool.c:375:21
	ldr	r0, [r0, #32]
	.loc	2 375 15                        @ rt-thread/src/mempool.c:375:15
	str	r0, [sp, #16]
.Ltmp122:
	.loc	2 376 5 is_stmt 1               @ rt-thread/src/mempool.c:376:5
	ldr	r0, [sp, #16]
.Ltmp123:
	.loc	2 376 5 is_stmt 0               @ rt-thread/src/mempool.c:376:5
	cbnz	r0, .LBB8_21
	b	.LBB8_20
.LBB8_20:
.Ltmp124:
	.loc	2 376 5                         @ rt-thread/src/mempool.c:376:5
	movw	r0, :lower16:.L.str.9
	movt	r0, :upper16:.L.str.9
	movw	r1, :lower16:.L__FUNCTION__.rt_mp_alloc
	movt	r1, :upper16:.L__FUNCTION__.rt_mp_alloc
	mov.w	r2, #376
	bl	rt_assert_handler
	b	.LBB8_21
.Ltmp125:
.LBB8_21:
	.loc	2 379 38 is_stmt 1              @ rt-thread/src/mempool.c:379:38
	ldr	r0, [sp, #16]
	.loc	2 379 22 is_stmt 0              @ rt-thread/src/mempool.c:379:22
	ldr	r0, [r0]
	.loc	2 379 5                         @ rt-thread/src/mempool.c:379:5
	ldr	r1, [sp, #24]
	.loc	2 379 20                        @ rt-thread/src/mempool.c:379:20
	str	r0, [r1, #32]
	.loc	2 382 47 is_stmt 1              @ rt-thread/src/mempool.c:382:47
	ldr	r0, [sp, #24]
	.loc	2 382 21 is_stmt 0              @ rt-thread/src/mempool.c:382:21
	ldr	r1, [sp, #16]
	.loc	2 382 31                        @ rt-thread/src/mempool.c:382:31
	str	r0, [r1]
	.loc	2 385 28 is_stmt 1              @ rt-thread/src/mempool.c:385:28
	ldr	r0, [sp, #12]
	.loc	2 385 5 is_stmt 0               @ rt-thread/src/mempool.c:385:5
	bl	rt_hw_interrupt_enable
	.loc	2 387 5 is_stmt 1               @ rt-thread/src/mempool.c:387:5
	b	.LBB8_22
.LBB8_22:
.Ltmp126:
	.loc	2 387 5 is_stmt 0               @ rt-thread/src/mempool.c:387:5
	movw	r0, :lower16:rt_mp_alloc_hook
	movt	r0, :upper16:rt_mp_alloc_hook
	ldr	r0, [r0]
.Ltmp127:
	.loc	2 387 5                         @ rt-thread/src/mempool.c:387:5
	cbz	r0, .LBB8_24
	b	.LBB8_23
.LBB8_23:
.Ltmp128:
	.loc	2 387 5                         @ rt-thread/src/mempool.c:387:5
	movw	r0, :lower16:rt_mp_alloc_hook
	movt	r0, :upper16:rt_mp_alloc_hook
	ldr	r2, [r0]
	ldr	r0, [sp, #24]
	ldr	r1, [sp, #16]
	adds	r1, #4
	blx	r2
	b	.LBB8_24
.Ltmp129:
.LBB8_24:
	.loc	2 387 5                         @ rt-thread/src/mempool.c:387:5
	b	.LBB8_25
.Ltmp130:
.LBB8_25:
	.loc	2 390 27 is_stmt 1              @ rt-thread/src/mempool.c:390:27
	ldr	r0, [sp, #16]
	.loc	2 390 37 is_stmt 0              @ rt-thread/src/mempool.c:390:37
	adds	r0, #4
	.loc	2 390 5                         @ rt-thread/src/mempool.c:390:5
	str	r0, [sp, #28]
	b	.LBB8_26
.LBB8_26:
	.loc	2 391 1 is_stmt 1               @ rt-thread/src/mempool.c:391:1
	ldr	r0, [sp, #28]
	add	sp, #32
	pop	{r7, pc}
.Ltmp131:
.Lfunc_end8:
	.size	rt_mp_alloc, .Lfunc_end8-rt_mp_alloc
	.cfi_endproc
	.cantunwind
	.fnend
                                        @ -- End function
	.section	.text.rt_list_insert_after,"ax",%progbits
	.p2align	3                               @ -- Begin function rt_list_insert_after
	.type	rt_list_insert_after,%function
	.code	16                              @ @rt_list_insert_after
	.thumb_func
rt_list_insert_after:
.Lfunc_begin9:
	.loc	3 59 0                          @ rt-thread/include\rtservice.h:59:0
	.fnstart
	.cfi_startproc
@ %bb.0:
	.pad	#8
	sub	sp, #8
	.cfi_def_cfa_offset 8
	str	r0, [sp, #4]
	str	r1, [sp]
.Ltmp132:
	.loc	3 60 21 prologue_end            @ rt-thread/include\rtservice.h:60:21
	ldr	r0, [sp]
	.loc	3 60 5 is_stmt 0                @ rt-thread/include\rtservice.h:60:5
	ldr	r1, [sp, #4]
	.loc	3 60 8                          @ rt-thread/include\rtservice.h:60:8
	ldr	r1, [r1]
	.loc	3 60 19                         @ rt-thread/include\rtservice.h:60:19
	str	r0, [r1, #4]
	.loc	3 61 15 is_stmt 1               @ rt-thread/include\rtservice.h:61:15
	ldr	r0, [sp, #4]
	.loc	3 61 18 is_stmt 0               @ rt-thread/include\rtservice.h:61:18
	ldr	r0, [r0]
	.loc	3 61 5                          @ rt-thread/include\rtservice.h:61:5
	ldr	r1, [sp]
	.loc	3 61 13                         @ rt-thread/include\rtservice.h:61:13
	str	r0, [r1]
	.loc	3 63 15 is_stmt 1               @ rt-thread/include\rtservice.h:63:15
	ldr	r0, [sp]
	.loc	3 63 5 is_stmt 0                @ rt-thread/include\rtservice.h:63:5
	ldr	r1, [sp, #4]
	.loc	3 63 13                         @ rt-thread/include\rtservice.h:63:13
	str	r0, [r1]
	.loc	3 64 15 is_stmt 1               @ rt-thread/include\rtservice.h:64:15
	ldr	r0, [sp, #4]
	.loc	3 64 5 is_stmt 0                @ rt-thread/include\rtservice.h:64:5
	ldr	r1, [sp]
	.loc	3 64 13                         @ rt-thread/include\rtservice.h:64:13
	str	r0, [r1, #4]
	.loc	3 65 1 is_stmt 1                @ rt-thread/include\rtservice.h:65:1
	add	sp, #8
	bx	lr
.Ltmp133:
.Lfunc_end9:
	.size	rt_list_insert_after, .Lfunc_end9-rt_list_insert_after
	.cfi_endproc
	.cantunwind
	.fnend
                                        @ -- End function
	.section	.text.rt_mp_free,"ax",%progbits
	.hidden	rt_mp_free                      @ -- Begin function rt_mp_free
	.globl	rt_mp_free
	.p2align	3
	.type	rt_mp_free,%function
	.code	16                              @ @rt_mp_free
	.thumb_func
rt_mp_free:
.Lfunc_begin10:
	.loc	2 400 0                         @ rt-thread/src/mempool.c:400:0
	.fnstart
	.cfi_startproc
@ %bb.0:
	.save	{r7, lr}
	push	{r7, lr}
	.cfi_def_cfa_offset 8
	.cfi_offset lr, -4
	.cfi_offset r7, -8
	.pad	#24
	sub	sp, #24
	.cfi_def_cfa_offset 32
	str	r0, [sp, #20]
.Ltmp134:
	.loc	2 407 9 prologue_end            @ rt-thread/src/mempool.c:407:9
	ldr	r0, [sp, #20]
.Ltmp135:
	.loc	2 407 9 is_stmt 0               @ rt-thread/src/mempool.c:407:9
	cbnz	r0, .LBB10_2
	b	.LBB10_1
.LBB10_1:
.Ltmp136:
	.loc	2 407 27                        @ rt-thread/src/mempool.c:407:27
	b	.LBB10_9
.Ltmp137:
.LBB10_2:
	.loc	2 410 47 is_stmt 1              @ rt-thread/src/mempool.c:410:47
	ldr	r0, [sp, #20]
	.loc	2 410 53 is_stmt 0              @ rt-thread/src/mempool.c:410:53
	subs	r0, #4
	.loc	2 410 15                        @ rt-thread/src/mempool.c:410:15
	str	r0, [sp, #16]
	.loc	2 411 39 is_stmt 1              @ rt-thread/src/mempool.c:411:39
	ldr	r0, [sp, #16]
	.loc	2 411 38 is_stmt 0              @ rt-thread/src/mempool.c:411:38
	ldr	r0, [r0]
	.loc	2 411 15                        @ rt-thread/src/mempool.c:411:15
	str	r0, [sp, #12]
	.loc	2 413 5 is_stmt 1               @ rt-thread/src/mempool.c:413:5
	b	.LBB10_3
.LBB10_3:
.Ltmp138:
	.loc	2 413 5 is_stmt 0               @ rt-thread/src/mempool.c:413:5
	movw	r0, :lower16:rt_mp_free_hook
	movt	r0, :upper16:rt_mp_free_hook
	ldr	r0, [r0]
.Ltmp139:
	.loc	2 413 5                         @ rt-thread/src/mempool.c:413:5
	cbz	r0, .LBB10_5
	b	.LBB10_4
.LBB10_4:
.Ltmp140:
	.loc	2 413 5                         @ rt-thread/src/mempool.c:413:5
	movw	r0, :lower16:rt_mp_free_hook
	movt	r0, :upper16:rt_mp_free_hook
	ldr	r2, [r0]
	ldr	r0, [sp, #12]
	ldr	r1, [sp, #20]
	blx	r2
	b	.LBB10_5
.Ltmp141:
.LBB10_5:
	.loc	2 413 5                         @ rt-thread/src/mempool.c:413:5
	b	.LBB10_6
.Ltmp142:
.LBB10_6:
	.loc	2 416 13 is_stmt 1              @ rt-thread/src/mempool.c:416:13
	bl	rt_hw_interrupt_disable
	.loc	2 416 11 is_stmt 0              @ rt-thread/src/mempool.c:416:11
	str	r0, [sp, #4]
	.loc	2 419 5 is_stmt 1               @ rt-thread/src/mempool.c:419:5
	ldr	r1, [sp, #12]
	.loc	2 419 26 is_stmt 0              @ rt-thread/src/mempool.c:419:26
	ldr	r0, [r1, #40]
	adds	r0, #1
	str	r0, [r1, #40]
	.loc	2 422 18 is_stmt 1              @ rt-thread/src/mempool.c:422:18
	ldr	r0, [sp, #12]
	.loc	2 422 22 is_stmt 0              @ rt-thread/src/mempool.c:422:22
	ldr	r0, [r0, #32]
	.loc	2 422 6                         @ rt-thread/src/mempool.c:422:6
	ldr	r1, [sp, #16]
	.loc	2 422 16                        @ rt-thread/src/mempool.c:422:16
	str	r0, [r1]
	.loc	2 423 36 is_stmt 1              @ rt-thread/src/mempool.c:423:36
	ldr	r0, [sp, #16]
	.loc	2 423 5 is_stmt 0               @ rt-thread/src/mempool.c:423:5
	ldr	r1, [sp, #12]
	.loc	2 423 20                        @ rt-thread/src/mempool.c:423:20
	str	r0, [r1, #32]
.Ltmp143:
	.loc	2 425 28 is_stmt 1              @ rt-thread/src/mempool.c:425:28
	ldr	r0, [sp, #12]
	.loc	2 425 32 is_stmt 0              @ rt-thread/src/mempool.c:425:32
	adds	r0, #44
	.loc	2 425 10                        @ rt-thread/src/mempool.c:425:10
	bl	rt_list_isempty
.Ltmp144:
	.loc	2 425 9                         @ rt-thread/src/mempool.c:425:9
	cbnz	r0, .LBB10_8
	b	.LBB10_7
.LBB10_7:
.Ltmp145:
	.loc	2 428 18 is_stmt 1              @ rt-thread/src/mempool.c:428:18
	ldr	r0, [sp, #12]
	ldr	r0, [r0, #44]
	subs	r0, #20
	.loc	2 428 16 is_stmt 0              @ rt-thread/src/mempool.c:428:16
	str	r0, [sp, #8]
	.loc	2 433 9 is_stmt 1               @ rt-thread/src/mempool.c:433:9
	ldr	r1, [sp, #8]
	movs	r0, #0
	.loc	2 433 23 is_stmt 0              @ rt-thread/src/mempool.c:433:23
	str	r0, [r1, #48]
	.loc	2 436 26 is_stmt 1              @ rt-thread/src/mempool.c:436:26
	ldr	r0, [sp, #8]
	.loc	2 436 9 is_stmt 0               @ rt-thread/src/mempool.c:436:9
	bl	rt_thread_resume
	.loc	2 439 32 is_stmt 1              @ rt-thread/src/mempool.c:439:32
	ldr	r0, [sp, #4]
	.loc	2 439 9 is_stmt 0               @ rt-thread/src/mempool.c:439:9
	bl	rt_hw_interrupt_enable
	.loc	2 442 9 is_stmt 1               @ rt-thread/src/mempool.c:442:9
	bl	rt_schedule
	.loc	2 444 9                         @ rt-thread/src/mempool.c:444:9
	b	.LBB10_9
.Ltmp146:
.LBB10_8:
	.loc	2 448 28                        @ rt-thread/src/mempool.c:448:28
	ldr	r0, [sp, #4]
	.loc	2 448 5 is_stmt 0               @ rt-thread/src/mempool.c:448:5
	bl	rt_hw_interrupt_enable
	.loc	2 449 1 is_stmt 1               @ rt-thread/src/mempool.c:449:1
	b	.LBB10_9
.LBB10_9:
	add	sp, #24
	pop	{r7, pc}
.Ltmp147:
.Lfunc_end10:
	.size	rt_mp_free, .Lfunc_end10-rt_mp_free
	.cfi_endproc
	.cantunwind
	.fnend
                                        @ -- End function
	.type	rt_mp_alloc_hook,%object        @ @rt_mp_alloc_hook
	.section	.bss.rt_mp_alloc_hook,"aw",%nobits
	.p2align	2
rt_mp_alloc_hook:
	.long	0
	.size	rt_mp_alloc_hook, 4

	.type	rt_mp_free_hook,%object         @ @rt_mp_free_hook
	.section	.bss.rt_mp_free_hook,"aw",%nobits
	.p2align	2
rt_mp_free_hook:
	.long	0
	.size	rt_mp_free_hook, 4

	.type	.L.str,%object                  @ @.str
	.section	.rodata.str1.1,"aMS",%progbits,1
.L.str:
	.asciz	"mp != RT_NULL"
	.size	.L.str, 14

	.type	.L__FUNCTION__.rt_mp_init,%object @ @__FUNCTION__.rt_mp_init
.L__FUNCTION__.rt_mp_init:
	.asciz	"rt_mp_init"
	.size	.L__FUNCTION__.rt_mp_init, 11

	.type	.L.str.1,%object                @ @.str.1
.L.str.1:
	.asciz	"name != RT_NULL"
	.size	.L.str.1, 16

	.type	.L.str.2,%object                @ @.str.2
.L.str.2:
	.asciz	"start != RT_NULL"
	.size	.L.str.2, 17

	.type	.L.str.3,%object                @ @.str.3
.L.str.3:
	.asciz	"size > 0 && block_size > 0"
	.size	.L.str.3, 27

	.type	.L__FUNCTION__.rt_mp_detach,%object @ @__FUNCTION__.rt_mp_detach
.L__FUNCTION__.rt_mp_detach:
	.asciz	"rt_mp_detach"
	.size	.L__FUNCTION__.rt_mp_detach, 13

	.type	.L.str.4,%object                @ @.str.4
.L.str.4:
	.asciz	"rt_object_get_type(&mp->parent) == RT_Object_Class_MemPool"
	.size	.L.str.4, 59

	.type	.L.str.5,%object                @ @.str.5
.L.str.5:
	.asciz	"rt_object_is_systemobject(&mp->parent)"
	.size	.L.str.5, 39

	.type	.L.str.6,%object                @ @.str.6
.L.str.6:
	.asciz	"0"
	.size	.L.str.6, 2

	.type	.L__FUNCTION__.rt_mp_create,%object @ @__FUNCTION__.rt_mp_create
.L__FUNCTION__.rt_mp_create:
	.asciz	"rt_mp_create"
	.size	.L__FUNCTION__.rt_mp_create, 13

	.type	.L.str.7,%object                @ @.str.7
.L.str.7:
	.asciz	"block_count > 0 && block_size > 0"
	.size	.L.str.7, 34

	.type	.L__FUNCTION__.rt_mp_delete,%object @ @__FUNCTION__.rt_mp_delete
.L__FUNCTION__.rt_mp_delete:
	.asciz	"rt_mp_delete"
	.size	.L__FUNCTION__.rt_mp_delete, 13

	.type	.L.str.8,%object                @ @.str.8
.L.str.8:
	.asciz	"rt_object_is_systemobject(&mp->parent) == RT_FALSE"
	.size	.L.str.8, 51

	.type	.L__FUNCTION__.rt_mp_alloc,%object @ @__FUNCTION__.rt_mp_alloc
.L__FUNCTION__.rt_mp_alloc:
	.asciz	"rt_mp_alloc"
	.size	.L__FUNCTION__.rt_mp_alloc, 12

	.type	.L.str.9,%object                @ @.str.9
.L.str.9:
	.asciz	"block_ptr != RT_NULL"
	.size	.L.str.9, 21

	.section	".note.GNU-stack","",%progbits
	.eabi_attribute	30, 6	@ Tag_ABI_optimization_goals
	.ARM_attribute	16, 1	@ Tag_AV_eba