	.text
	.syntax unified
	.eabi_attribute	67, "2.09"	@ Tag_conformance
	.cpu	cortex-m7
	.eabi_attribute	6, 13	@ Tag_CPU_arch
	.eabi_attribute	7, 77	@ Tag_CPU_arch_profile
	.eabi_attribute	8, 0	@ Tag_ARM_ISA_use
	.eabi_attribute	9, 2	@ Tag_THUMB_ISA_use
	.fpu	fpv5-d16
	.eabi_attribute	36, 1	@ Tag_FP_HP_extension
	.eabi_attribute	34, 1	@ Tag_CPU_unaligned_access
	.eabi_attribute	17, 1	@ Tag_ABI_PCS_GOT_use
	.eabi_attribute	20, 2	@ Tag_ABI_FP_denormal
	.eabi_attribute	21, 0	@ Tag_ABI_FP_exceptions
	.eabi_attribute	23, 1	@ Tag_ABI_FP_number_model
	.eabi_attribute	24, 1	@ Tag_ABI_align_needed
	.eabi_attribute	25, 1	@ Tag_ABI_align_preserved
	.eabi_attribute	28, 1	@ Tag_ABI_VFP_args
	.eabi_attribute	38, 1	@ Tag_ABI_FP_16bit_format
	.eabi_attribute	18, 2	@ Tag_ABI_PCS_wchar_t
	.eabi_attribute	26, 1	@ Tag_ABI_enum_size
	.eabi_attribute	14, 0	@ Tag_ABI_PCS_R9_use
	.file	"memp.c"
	.file	1 "E:\\Smart-access-control\\Hardware\\CODE" "./rt-thread/components/net/lwip-2.0.2/src/include\\lwip/priv/memp_priv.h"
	.file	2 "D:\\Keil_v5\\ARM\\ARMCLANG\\Bin\\..\\include" "stdint.h"
	.file	3 "E:\\Smart-access-control\\Hardware\\CODE" "./rt-thread/components/net/lwip-2.0.2/src/include\\lwip/arch.h"
	.file	4 "E:\\Smart-access-control\\Hardware\\CODE" "./rt-thread/components/net/lwip-2.0.2/src/include\\lwip/priv/memp_std.h"
	.file	5 "E:\\Smart-access-control\\Hardware\\CODE" "rt-thread/components/net/lwip-2.0.2/src/core/memp.c"
	.file	6 "E:\\Smart-access-control\\Hardware\\CODE" "./rt-thread/components/net/lwip-2.0.2/src/include\\lwip/memp.h"
	.section	.text.memp_init_pool,"ax",%progbits
	.hidden	memp_init_pool                  @ -- Begin function memp_init_pool
	.globl	memp_init_pool
	.p2align	3
	.type	memp_init_pool,%function
	.code	16                              @ @memp_init_pool
	.thumb_func
memp_init_pool:
.Lfunc_begin0:
	.loc	5 231 0                         @ rt-thread/components/net/lwip-2.0.2/src/core/memp.c:231:0
	.fnstart
	.cfi_sections .debug_frame
	.cfi_startproc
@ %bb.0:
	.save	{r7, lr}
	push	{r7, lr}
	.cfi_def_cfa_offset 8
	.cfi_offset lr, -4
	.cfi_offset r7, -8
	.pad	#16
	sub	sp, #16
	.cfi_def_cfa_offset 24
	str	r0, [sp, #12]
.Ltmp0:
	.loc	5 238 4 prologue_end            @ rt-thread/components/net/lwip-2.0.2/src/core/memp.c:238:4
	ldr	r0, [sp, #12]
	.loc	5 238 10 is_stmt 0              @ rt-thread/components/net/lwip-2.0.2/src/core/memp.c:238:10
	ldr	r1, [r0, #12]
	movs	r0, #0
	.loc	5 238 14                        @ rt-thread/components/net/lwip-2.0.2/src/core/memp.c:238:14
	str	r0, [r1]
	.loc	5 239 24 is_stmt 1              @ rt-thread/components/net/lwip-2.0.2/src/core/memp.c:239:24
	ldr	r1, [sp, #12]
	ldr	r1, [r1, #8]
	adds	r1, #3
	bic	r1, r1, #3
	.loc	5 239 8 is_stmt 0               @ rt-thread/components/net/lwip-2.0.2/src/core/memp.c:239:8
	str	r1, [sp, #4]
.Ltmp1:
	.loc	5 241 10 is_stmt 1              @ rt-thread/components/net/lwip-2.0.2/src/core/memp.c:241:10
	str	r0, [sp, #8]
	.loc	5 241 8 is_stmt 0               @ rt-thread/components/net/lwip-2.0.2/src/core/memp.c:241:8
	b	.LBB0_1
.LBB0_1:                                @ =>This Inner Loop Header: Depth=1
.Ltmp2:
	.loc	5 241 15                        @ rt-thread/components/net/lwip-2.0.2/src/core/memp.c:241:15
	ldr	r0, [sp, #8]
	.loc	5 241 19                        @ rt-thread/components/net/lwip-2.0.2/src/core/memp.c:241:19
	ldr	r1, [sp, #12]
	.loc	5 241 25                        @ rt-thread/components/net/lwip-2.0.2/src/core/memp.c:241:25
	ldrh	r1, [r1, #6]
.Ltmp3:
	.loc	5 241 3                         @ rt-thread/components/net/lwip-2.0.2/src/core/memp.c:241:3
	cmp	r0, r1
	bge	.LBB0_4
	b	.LBB0_2
.LBB0_2:                                @   in Loop: Header=BB0_1 Depth=1
.Ltmp4:
	.loc	5 242 19 is_stmt 1              @ rt-thread/components/net/lwip-2.0.2/src/core/memp.c:242:19
	ldr	r0, [sp, #12]
	.loc	5 242 25 is_stmt 0              @ rt-thread/components/net/lwip-2.0.2/src/core/memp.c:242:25
	ldr	r0, [r0, #12]
	.loc	5 242 18                        @ rt-thread/components/net/lwip-2.0.2/src/core/memp.c:242:18
	ldr	r0, [r0]
	.loc	5 242 5                         @ rt-thread/components/net/lwip-2.0.2/src/core/memp.c:242:5
	ldr	r1, [sp, #4]
	.loc	5 242 16                        @ rt-thread/components/net/lwip-2.0.2/src/core/memp.c:242:16
	str	r0, [r1]
	.loc	5 243 18 is_stmt 1              @ rt-thread/components/net/lwip-2.0.2/src/core/memp.c:243:18
	ldr	r0, [sp, #4]
	.loc	5 243 6 is_stmt 0               @ rt-thread/components/net/lwip-2.0.2/src/core/memp.c:243:6
	ldr	r1, [sp, #12]
	.loc	5 243 12                        @ rt-thread/components/net/lwip-2.0.2/src/core/memp.c:243:12
	ldr	r1, [r1, #12]
	.loc	5 243 16                        @ rt-thread/components/net/lwip-2.0.2/src/core/memp.c:243:16
	str	r0, [r1]
	.loc	5 245 32 is_stmt 1              @ rt-thread/components/net/lwip-2.0.2/src/core/memp.c:245:32
	ldr	r0, [sp, #4]
	.loc	5 245 38 is_stmt 0              @ rt-thread/components/net/lwip-2.0.2/src/core/memp.c:245:38
	ldr	r1, [sp, #12]
	.loc	5 245 5                         @ rt-thread/components/net/lwip-2.0.2/src/core/memp.c:245:5
	bl	memp_overflow_init_element
	.loc	5 248 43 is_stmt 1              @ rt-thread/components/net/lwip-2.0.2/src/core/memp.c:248:43
	ldr	r0, [sp, #4]
	.loc	5 248 62 is_stmt 0              @ rt-thread/components/net/lwip-2.0.2/src/core/memp.c:248:62
	ldr	r1, [sp, #12]
	.loc	5 248 68                        @ rt-thread/components/net/lwip-2.0.2/src/core/memp.c:248:68
	ldrh	r1, [r1, #4]
	.loc	5 248 48                        @ rt-thread/components/net/lwip-2.0.2/src/core/memp.c:248:48
	add	r0, r1
	.loc	5 250 7 is_stmt 1               @ rt-thread/components/net/lwip-2.0.2/src/core/memp.c:250:7
	adds	r0, #44
	.loc	5 248 9                         @ rt-thread/components/net/lwip-2.0.2/src/core/memp.c:248:9
	str	r0, [sp, #4]
	.loc	5 253 3                         @ rt-thread/components/net/lwip-2.0.2/src/core/memp.c:253:3
	b	.LBB0_3
.Ltmp5:
.LBB0_3:                                @   in Loop: Header=BB0_1 Depth=1
	.loc	5 241 30                        @ rt-thread/components/net/lwip-2.0.2/src/core/memp.c:241:30
	ldr	r0, [sp, #8]
	adds	r0, #1
	str	r0, [sp, #8]
	.loc	5 241 3 is_stmt 0               @ rt-thread/components/net/lwip-2.0.2/src/core/memp.c:241:3
	b	.LBB0_1
.Ltmp6:
.LBB0_4:
	.loc	5 262 1 is_stmt 1               @ rt-thread/components/net/lwip-2.0.2/src/core/memp.c:262:1
	add	sp, #16
	pop	{r7, pc}
.Ltmp7:
.Lfunc_end0:
	.size	memp_init_pool, .Lfunc_end0-memp_init_pool
	.cfi_endproc
	.cantunwind
	.fnend
                                        @ -- End function
	.section	.text.memp_overflow_init_element,"ax",%progbits
	.p2align	3                               @ -- Begin function memp_overflow_init_element
	.type	memp_overflow_init_element,%function
	.code	16                              @ @memp_overflow_init_element
	.thumb_func
memp_overflow_init_element:
.Lfunc_begin1:
	.loc	5 179 0                         @ rt-thread/components/net/lwip-2.0.2/src/core/memp.c:179:0
	.fnstart
	.cfi_startproc
@ %bb.0:
	.pad	#12
	sub	sp, #12
	.cfi_def_cfa_offset 12
	str	r0, [sp, #8]
	str	r1, [sp, #4]
.Ltmp8:
	.loc	5 183 14 prologue_end           @ rt-thread/components/net/lwip-2.0.2/src/core/memp.c:183:14
	ldr	r0, [sp, #8]
	.loc	5 183 28 is_stmt 0              @ rt-thread/components/net/lwip-2.0.2/src/core/memp.c:183:28
	adds	r0, #12
	.loc	5 183 5                         @ rt-thread/components/net/lwip-2.0.2/src/core/memp.c:183:5
	str	r0, [sp]
	.loc	5 184 10 is_stmt 1              @ rt-thread/components/net/lwip-2.0.2/src/core/memp.c:184:10
	ldr	r1, [sp]
	mov.w	r0, #-842150451
	.loc	5 184 3 is_stmt 0               @ rt-thread/components/net/lwip-2.0.2/src/core/memp.c:184:3
	str	r0, [r1, #12]
	str	r0, [r1, #8]
	str	r0, [r1, #4]
	str	r0, [r1]
	.loc	5 187 14 is_stmt 1              @ rt-thread/components/net/lwip-2.0.2/src/core/memp.c:187:14
	ldr	r1, [sp, #8]
	.loc	5 187 30 is_stmt 0              @ rt-thread/components/net/lwip-2.0.2/src/core/memp.c:187:30
	ldr	r2, [sp, #4]
	.loc	5 187 36                        @ rt-thread/components/net/lwip-2.0.2/src/core/memp.c:187:36
	ldrh	r2, [r2, #4]
	.loc	5 187 16                        @ rt-thread/components/net/lwip-2.0.2/src/core/memp.c:187:16
	add	r1, r2
	.loc	5 187 28                        @ rt-thread/components/net/lwip-2.0.2/src/core/memp.c:187:28
	adds	r1, #28
	.loc	5 187 5                         @ rt-thread/components/net/lwip-2.0.2/src/core/memp.c:187:5
	str	r1, [sp]
	.loc	5 188 10 is_stmt 1              @ rt-thread/components/net/lwip-2.0.2/src/core/memp.c:188:10
	ldr	r1, [sp]
	.loc	5 188 3 is_stmt 0               @ rt-thread/components/net/lwip-2.0.2/src/core/memp.c:188:3
	str	r0, [r1, #12]
	str	r0, [r1, #8]
	str	r0, [r1, #4]
	str	r0, [r1]
	.loc	5 194 1 is_stmt 1               @ rt-thread/components/net/lwip-2.0.2/src/core/memp.c:194:1
	add	sp, #12
	bx	lr
.Ltmp9:
.Lfunc_end1:
	.size	memp_overflow_init_element, .Lfunc_end1-memp_overflow_init_element
	.cfi_endproc
	.cantunwind
	.fnend
                                        @ -- End function
	.section	.text.memp_init,"ax",%progbits
	.hidden	memp_init                       @ -- Begin function memp_init
	.globl	memp_init
	.p2align	3
	.type	memp_init,%function
	.code	16                              @ @memp_init
	.thumb_func
memp_init:
.Lfunc_begin2:
	.loc	5 272 0                         @ rt-thread/components/net/lwip-2.0.2/src/core/memp.c:272:0
	.fnstart
	.cfi_startproc
@ %bb.0:
	.save	{r7, lr}
	push	{r7, lr}
	.cfi_def_cfa_offset 8
	.cfi_offset lr, -4
	.cfi_offset r7, -8
	.pad	#8
	sub	sp, #8
	.cfi_def_cfa_offset 16
	movs	r0, #0
.Ltmp10:
	.loc	5 276 10 prologue_end           @ rt-thread/components/net/lwip-2.0.2/src/core/memp.c:276:10
	strh.w	r0, [sp, #6]
	.loc	5 276 8 is_stmt 0               @ rt-thread/components/net/lwip-2.0.2/src/core/memp.c:276:8
	b	.LBB2_1
.LBB2_1:                                @ =>This Inner Loop Header: Depth=1
.Ltmp11:
	.loc	5 276 15                        @ rt-thread/components/net/lwip-2.0.2/src/core/memp.c:276:15
	ldrh.w	r0, [sp, #6]
.Ltmp12:
	.loc	5 276 3                         @ rt-thread/components/net/lwip-2.0.2/src/core/memp.c:276:3
	cmp	r0, #14
	bhi	.LBB2_4
	b	.LBB2_2
.LBB2_2:                                @   in Loop: Header=BB2_1 Depth=1
.Ltmp13:
	.loc	5 277 31 is_stmt 1              @ rt-thread/components/net/lwip-2.0.2/src/core/memp.c:277:31
	ldrh.w	r1, [sp, #6]
	.loc	5 277 20 is_stmt 0              @ rt-thread/components/net/lwip-2.0.2/src/core/memp.c:277:20
	movw	r0, :lower16:memp_pools
	movt	r0, :upper16:memp_pools
	ldr.w	r0, [r0, r1, lsl #2]
	.loc	5 277 5                         @ rt-thread/components/net/lwip-2.0.2/src/core/memp.c:277:5
	bl	memp_init_pool
	.loc	5 282 3 is_stmt 1               @ rt-thread/components/net/lwip-2.0.2/src/core/memp.c:282:3
	b	.LBB2_3
.Ltmp14:
.LBB2_3:                                @   in Loop: Header=BB2_1 Depth=1
	.loc	5 276 48                        @ rt-thread/components/net/lwip-2.0.2/src/core/memp.c:276:48
	ldrh.w	r0, [sp, #6]
	adds	r0, #1
	strh.w	r0, [sp, #6]
	.loc	5 276 3 is_stmt 0               @ rt-thread/components/net/lwip-2.0.2/src/core/memp.c:276:3
	b	.LBB2_1
.Ltmp15:
.LBB2_4:
	.loc	5 288 1 is_stmt 1               @ rt-thread/components/net/lwip-2.0.2/src/core/memp.c:288:1
	add	sp, #8
	pop	{r7, pc}
.Ltmp16:
.Lfunc_end2:
	.size	memp_init, .Lfunc_end2-memp_init
	.cfi_endproc
	.cantunwind
	.fnend
                                        @ -- End function
	.section	.text.memp_malloc_pool_fn,"ax",%progbits
	.hidden	memp_malloc_pool_fn             @ -- Begin function memp_malloc_pool_fn
	.globl	memp_malloc_pool_fn
	.p2align	3
	.type	memp_malloc_pool_fn,%function
	.code	16                              @ @memp_malloc_pool_fn
	.thumb_func
memp_malloc_pool_fn:
.Lfunc_begin3:
	.loc	5 363 0                         @ rt-thread/components/net/lwip-2.0.2/src/core/memp.c:363:0
	.fnstart
	.cfi_startproc
@ %bb.0:
	.save	{r7, lr}
	push	{r7, lr}
	.cfi_def_cfa_offset 8
	.cfi_offset lr, -4
	.cfi_offset r7, -8
	.pad	#16
	sub	sp, #16
	.cfi_def_cfa_offset 24
	str	r0, [sp, #8]
	str	r1, [sp, #4]
	str	r2, [sp]
.Ltmp17:
	.loc	5 364 3 prologue_end            @ rt-thread/components/net/lwip-2.0.2/src/core/memp.c:364:3
	b	.LBB3_1
.LBB3_1:
.Ltmp18:
	.loc	5 364 3 is_stmt 0               @ rt-thread/components/net/lwip-2.0.2/src/core/memp.c:364:3
	ldr	r0, [sp, #8]
.Ltmp19:
	.loc	5 364 3                         @ rt-thread/components/net/lwip-2.0.2/src/core/memp.c:364:3
	cbnz	r0, .LBB3_5
	b	.LBB3_2
.LBB3_2:
.Ltmp20:
	.loc	5 364 3                         @ rt-thread/components/net/lwip-2.0.2/src/core/memp.c:364:3
	b	.LBB3_3
.LBB3_3:
.Ltmp21:
	.loc	5 364 3                         @ rt-thread/components/net/lwip-2.0.2/src/core/memp.c:364:3
	movw	r0, :lower16:.L.str.15
	movt	r0, :upper16:.L.str.15
	bl	rt_kprintf
	movw	r0, :lower16:.L.str.16
	movt	r0, :upper16:.L.str.16
	mov.w	r1, #364
	bl	sys_arch_assert
	b	.LBB3_4
.Ltmp22:
.LBB3_4:
	.loc	5 364 3                         @ rt-thread/components/net/lwip-2.0.2/src/core/memp.c:364:3
	b	.LBB3_5
.Ltmp23:
.LBB3_5:
	.loc	5 364 3                         @ rt-thread/components/net/lwip-2.0.2/src/core/memp.c:364:3
	b	.LBB3_6
.Ltmp24:
.LBB3_6:
	.loc	5 365 7 is_stmt 1               @ rt-thread/components/net/lwip-2.0.2/src/core/memp.c:365:7
	ldr	r0, [sp, #8]
.Ltmp25:
	.loc	5 365 7 is_stmt 0               @ rt-thread/components/net/lwip-2.0.2/src/core/memp.c:365:7
	cbnz	r0, .LBB3_8
	b	.LBB3_7
.LBB3_7:
	.loc	5 0 7                           @ rt-thread/components/net/lwip-2.0.2/src/core/memp.c:0:7
	movs	r0, #0
.Ltmp26:
	.loc	5 366 5 is_stmt 1               @ rt-thread/components/net/lwip-2.0.2/src/core/memp.c:366:5
	str	r0, [sp, #12]
	b	.LBB3_9
.Ltmp27:
.LBB3_8:
	.loc	5 372 33                        @ rt-thread/components/net/lwip-2.0.2/src/core/memp.c:372:33
	ldr	r0, [sp, #8]
	.loc	5 372 39 is_stmt 0              @ rt-thread/components/net/lwip-2.0.2/src/core/memp.c:372:39
	ldr	r1, [sp, #4]
	.loc	5 372 45                        @ rt-thread/components/net/lwip-2.0.2/src/core/memp.c:372:45
	ldr	r2, [sp]
	.loc	5 372 10                        @ rt-thread/components/net/lwip-2.0.2/src/core/memp.c:372:10
	bl	do_memp_malloc_pool_fn
	.loc	5 372 3                         @ rt-thread/components/net/lwip-2.0.2/src/core/memp.c:372:3
	str	r0, [sp, #12]
	b	.LBB3_9
.LBB3_9:
	.loc	5 374 1 is_stmt 1               @ rt-thread/components/net/lwip-2.0.2/src/core/memp.c:374:1
	ldr	r0, [sp, #12]
	add	sp, #16
	pop	{r7, pc}
.Ltmp28:
.Lfunc_end3:
	.size	memp_malloc_pool_fn, .Lfunc_end3-memp_malloc_pool_fn
	.cfi_endproc
	.cantunwind
	.fnend
                                        @ -- End function
	.section	.text.do_memp_malloc_pool_fn,"ax",%progbits
	.p2align	3                               @ -- Begin function do_memp_malloc_pool_fn
	.type	do_memp_malloc_pool_fn,%function
	.code	16                              @ @do_memp_malloc_pool_fn
	.thumb_func
do_memp_malloc_pool_fn:
.Lfunc_begin4:
	.loc	5 296 0                         @ rt-thread/components/net/lwip-2.0.2/src/core/memp.c:296:0
	.fnstart
	.cfi_startproc
@ %bb.0:
	.save	{r7, lr}
	push	{r7, lr}
	.cfi_def_cfa_offset 8
	.cfi_offset lr, -4
	.cfi_offset r7, -8
	.pad	#24
	sub	sp, #24
	.cfi_def_cfa_offset 32
	str	r0, [sp, #16]
	str	r1, [sp, #12]
	str	r2, [sp, #8]
.Ltmp29:
	.loc	5 304 3 prologue_end            @ rt-thread/components/net/lwip-2.0.2/src/core/memp.c:304:3
	bl	rt_enter_critical
	.loc	5 306 11                        @ rt-thread/components/net/lwip-2.0.2/src/core/memp.c:306:11
	ldr	r0, [sp, #16]
	.loc	5 306 17 is_stmt 0              @ rt-thread/components/net/lwip-2.0.2/src/core/memp.c:306:17
	ldr	r0, [r0, #12]
	.loc	5 306 10                        @ rt-thread/components/net/lwip-2.0.2/src/core/memp.c:306:10
	ldr	r0, [r0]
	.loc	5 306 8                         @ rt-thread/components/net/lwip-2.0.2/src/core/memp.c:306:8
	str	r0, [sp, #4]
.Ltmp30:
	.loc	5 309 7 is_stmt 1               @ rt-thread/components/net/lwip-2.0.2/src/core/memp.c:309:7
	ldr	r0, [sp, #4]
.Ltmp31:
	.loc	5 309 7 is_stmt 0               @ rt-thread/components/net/lwip-2.0.2/src/core/memp.c:309:7
	cbz	r0, .LBB4_8
	b	.LBB4_1
.LBB4_1:
.Ltmp32:
	.loc	5 312 42 is_stmt 1              @ rt-thread/components/net/lwip-2.0.2/src/core/memp.c:312:42
	ldr	r0, [sp, #4]
	.loc	5 312 48 is_stmt 0              @ rt-thread/components/net/lwip-2.0.2/src/core/memp.c:312:48
	ldr	r1, [sp, #16]
	.loc	5 312 5                         @ rt-thread/components/net/lwip-2.0.2/src/core/memp.c:312:5
	bl	memp_overflow_check_element_overflow
	.loc	5 313 43 is_stmt 1              @ rt-thread/components/net/lwip-2.0.2/src/core/memp.c:313:43
	ldr	r0, [sp, #4]
	.loc	5 313 49 is_stmt 0              @ rt-thread/components/net/lwip-2.0.2/src/core/memp.c:313:49
	ldr	r1, [sp, #16]
	.loc	5 313 5                         @ rt-thread/components/net/lwip-2.0.2/src/core/memp.c:313:5
	bl	memp_overflow_check_element_underflow
	.loc	5 316 18 is_stmt 1              @ rt-thread/components/net/lwip-2.0.2/src/core/memp.c:316:18
	ldr	r0, [sp, #4]
	.loc	5 316 24 is_stmt 0              @ rt-thread/components/net/lwip-2.0.2/src/core/memp.c:316:24
	ldr	r0, [r0]
	.loc	5 316 6                         @ rt-thread/components/net/lwip-2.0.2/src/core/memp.c:316:6
	ldr	r1, [sp, #16]
	.loc	5 316 12                        @ rt-thread/components/net/lwip-2.0.2/src/core/memp.c:316:12
	ldr	r1, [r1, #12]
	.loc	5 316 16                        @ rt-thread/components/net/lwip-2.0.2/src/core/memp.c:316:16
	str	r0, [r1]
	.loc	5 318 5 is_stmt 1               @ rt-thread/components/net/lwip-2.0.2/src/core/memp.c:318:5
	ldr	r1, [sp, #4]
	movs	r0, #0
	.loc	5 318 16 is_stmt 0              @ rt-thread/components/net/lwip-2.0.2/src/core/memp.c:318:16
	str	r0, [r1]
	.loc	5 322 18 is_stmt 1              @ rt-thread/components/net/lwip-2.0.2/src/core/memp.c:322:18
	ldr	r0, [sp, #12]
	.loc	5 322 5 is_stmt 0               @ rt-thread/components/net/lwip-2.0.2/src/core/memp.c:322:5
	ldr	r1, [sp, #4]
	.loc	5 322 16                        @ rt-thread/components/net/lwip-2.0.2/src/core/memp.c:322:16
	str	r0, [r1, #4]
	.loc	5 323 18 is_stmt 1              @ rt-thread/components/net/lwip-2.0.2/src/core/memp.c:323:18
	ldr	r0, [sp, #8]
	.loc	5 323 5 is_stmt 0               @ rt-thread/components/net/lwip-2.0.2/src/core/memp.c:323:5
	ldr	r1, [sp, #4]
	.loc	5 323 16                        @ rt-thread/components/net/lwip-2.0.2/src/core/memp.c:323:16
	str	r0, [r1, #8]
	.loc	5 328 5 is_stmt 1               @ rt-thread/components/net/lwip-2.0.2/src/core/memp.c:328:5
	b	.LBB4_2
.LBB4_2:
.Ltmp33:
	.loc	5 328 5 is_stmt 0               @ rt-thread/components/net/lwip-2.0.2/src/core/memp.c:328:5
	ldrb.w	r0, [sp, #4]
	lsls	r0, r0, #30
	cbz	r0, .LBB4_6
	b	.LBB4_3
.LBB4_3:
.Ltmp34:
	.loc	5 328 5                         @ rt-thread/components/net/lwip-2.0.2/src/core/memp.c:328:5
	b	.LBB4_4
.LBB4_4:
.Ltmp35:
	.loc	5 328 5                         @ rt-thread/components/net/lwip-2.0.2/src/core/memp.c:328:5
	movw	r0, :lower16:.L.str.19
	movt	r0, :upper16:.L.str.19
	bl	rt_kprintf
	movw	r0, :lower16:.L.str.16
	movt	r0, :upper16:.L.str.16
	movw	r1, #329
	bl	sys_arch_assert
	b	.LBB4_5
.Ltmp36:
.LBB4_5:
	.loc	5 328 5                         @ rt-thread/components/net/lwip-2.0.2/src/core/memp.c:328:5
	b	.LBB4_6
.Ltmp37:
.LBB4_6:
	.loc	5 328 5                         @ rt-thread/components/net/lwip-2.0.2/src/core/memp.c:328:5
	b	.LBB4_7
.Ltmp38:
.LBB4_7:
	.loc	5 336 5 is_stmt 1               @ rt-thread/components/net/lwip-2.0.2/src/core/memp.c:336:5
	bl	rt_exit_critical
	.loc	5 338 20                        @ rt-thread/components/net/lwip-2.0.2/src/core/memp.c:338:20
	ldr	r0, [sp, #4]
	.loc	5 338 25 is_stmt 0              @ rt-thread/components/net/lwip-2.0.2/src/core/memp.c:338:25
	adds	r0, #28
	.loc	5 338 5                         @ rt-thread/components/net/lwip-2.0.2/src/core/memp.c:338:5
	str	r0, [sp, #20]
	b	.LBB4_10
.Ltmp39:
.LBB4_8:
	.loc	5 0 5                           @ rt-thread/components/net/lwip-2.0.2/src/core/memp.c:0:5
	b	.LBB4_9
.LBB4_9:
	.loc	5 346 3 is_stmt 1               @ rt-thread/components/net/lwip-2.0.2/src/core/memp.c:346:3
	bl	rt_exit_critical
	movs	r0, #0
	.loc	5 347 3                         @ rt-thread/components/net/lwip-2.0.2/src/core/memp.c:347:3
	str	r0, [sp, #20]
	b	.LBB4_10
.LBB4_10:
	.loc	5 348 1                         @ rt-thread/components/net/lwip-2.0.2/src/core/memp.c:348:1
	ldr	r0, [sp, #20]
	add	sp, #24
	pop	{r7, pc}
.Ltmp40:
.Lfunc_end4:
	.size	do_memp_malloc_pool_fn, .Lfunc_end4-do_memp_malloc_pool_fn
	.cfi_endproc
	.cantunwind
	.fnend
                                        @ -- End function
	.section	.text.memp_malloc_fn,"ax",%progbits
	.hidden	memp_malloc_fn                  @ -- Begin function memp_malloc_fn
	.globl	memp_malloc_fn
	.p2align	3
	.type	memp_malloc_fn,%function
	.code	16                              @ @memp_malloc_fn
	.thumb_func
memp_malloc_fn:
.Lfunc_begin5:
	.loc	5 389 0                         @ rt-thread/components/net/lwip-2.0.2/src/core/memp.c:389:0
	.fnstart
	.cfi_startproc
@ %bb.0:
	.save	{r7, lr}
	push	{r7, lr}
	.cfi_def_cfa_offset 8
	.cfi_offset lr, -4
	.cfi_offset r7, -8
	.pad	#24
	sub	sp, #24
	.cfi_def_cfa_offset 32
                                        @ kill: def $r3 killed $r0
	strb.w	r0, [sp, #19]
	str	r1, [sp, #12]
	str	r2, [sp, #8]
.Ltmp41:
	.loc	5 391 3 prologue_end            @ rt-thread/components/net/lwip-2.0.2/src/core/memp.c:391:3
	b	.LBB5_1
.LBB5_1:
.Ltmp42:
	.loc	5 391 3 is_stmt 0               @ rt-thread/components/net/lwip-2.0.2/src/core/memp.c:391:3
	ldrb.w	r0, [sp, #19]
.Ltmp43:
	.loc	5 391 3                         @ rt-thread/components/net/lwip-2.0.2/src/core/memp.c:391:3
	cmp	r0, #15
	blt	.LBB5_5
	b	.LBB5_2
.LBB5_2:
.Ltmp44:
	.loc	5 391 3                         @ rt-thread/components/net/lwip-2.0.2/src/core/memp.c:391:3
	b	.LBB5_3
.LBB5_3:
.Ltmp45:
	.loc	5 391 3                         @ rt-thread/components/net/lwip-2.0.2/src/core/memp.c:391:3
	movw	r0, :lower16:.L.str.17
	movt	r0, :upper16:.L.str.17
	bl	rt_kprintf
	movw	r0, :lower16:.L.str.16
	movt	r0, :upper16:.L.str.16
	movw	r1, #391
	bl	sys_arch_assert
	b	.LBB5_4
.Ltmp46:
.LBB5_4:
	.loc	5 0 3                           @ rt-thread/components/net/lwip-2.0.2/src/core/memp.c:0:3
	movs	r0, #0
	.loc	5 391 3                         @ rt-thread/components/net/lwip-2.0.2/src/core/memp.c:391:3
	str	r0, [sp, #20]
	b	.LBB5_7
.Ltmp47:
.LBB5_5:
	.loc	5 391 3                         @ rt-thread/components/net/lwip-2.0.2/src/core/memp.c:391:3
	b	.LBB5_6
.Ltmp48:
.LBB5_6:
	.loc	5 400 44 is_stmt 1              @ rt-thread/components/net/lwip-2.0.2/src/core/memp.c:400:44
	ldrb.w	r1, [sp, #19]
	.loc	5 400 33 is_stmt 0              @ rt-thread/components/net/lwip-2.0.2/src/core/memp.c:400:33
	movw	r0, :lower16:memp_pools
	movt	r0, :upper16:memp_pools
	ldr.w	r0, [r0, r1, lsl #2]
	.loc	5 400 51                        @ rt-thread/components/net/lwip-2.0.2/src/core/memp.c:400:51
	ldr	r1, [sp, #12]
	.loc	5 400 57                        @ rt-thread/components/net/lwip-2.0.2/src/core/memp.c:400:57
	ldr	r2, [sp, #8]
	.loc	5 400 10                        @ rt-thread/components/net/lwip-2.0.2/src/core/memp.c:400:10
	bl	do_memp_malloc_pool_fn
	.loc	5 400 8                         @ rt-thread/components/net/lwip-2.0.2/src/core/memp.c:400:8
	str	r0, [sp, #4]
	.loc	5 403 10 is_stmt 1              @ rt-thread/components/net/lwip-2.0.2/src/core/memp.c:403:10
	ldr	r0, [sp, #4]
	.loc	5 403 3 is_stmt 0               @ rt-thread/components/net/lwip-2.0.2/src/core/memp.c:403:3
	str	r0, [sp, #20]
	b	.LBB5_7
.LBB5_7:
	.loc	5 404 1 is_stmt 1               @ rt-thread/components/net/lwip-2.0.2/src/core/memp.c:404:1
	ldr	r0, [sp, #20]
	add	sp, #24
	pop	{r7, pc}
.Ltmp49:
.Lfunc_end5:
	.size	memp_malloc_fn, .Lfunc_end5-memp_malloc_fn
	.cfi_endproc
	.cantunwind
	.fnend
                                        @ -- End function
	.section	.text.memp_free_pool,"ax",%progbits
	.hidden	memp_free_pool                  @ -- Begin function memp_free_pool
	.globl	memp_free_pool
	.p2align	3
	.type	memp_free_pool,%function
	.code	16                              @ @memp_free_pool
	.thumb_func
memp_free_pool:
.Lfunc_begin6:
	.loc	5 453 0                         @ rt-thread/components/net/lwip-2.0.2/src/core/memp.c:453:0
	.fnstart
	.cfi_startproc
@ %bb.0:
	.save	{r7, lr}
	push	{r7, lr}
	.cfi_def_cfa_offset 8
	.cfi_offset lr, -4
	.cfi_offset r7, -8
	.pad	#8
	sub	sp, #8
	.cfi_def_cfa_offset 16
	str	r0, [sp, #4]
	str	r1, [sp]
.Ltmp50:
	.loc	5 454 3 prologue_end            @ rt-thread/components/net/lwip-2.0.2/src/core/memp.c:454:3
	b	.LBB6_1
.LBB6_1:
.Ltmp51:
	.loc	5 454 3 is_stmt 0               @ rt-thread/components/net/lwip-2.0.2/src/core/memp.c:454:3
	ldr	r0, [sp, #4]
.Ltmp52:
	.loc	5 454 3                         @ rt-thread/components/net/lwip-2.0.2/src/core/memp.c:454:3
	cbnz	r0, .LBB6_5
	b	.LBB6_2
.LBB6_2:
.Ltmp53:
	.loc	5 454 3                         @ rt-thread/components/net/lwip-2.0.2/src/core/memp.c:454:3
	b	.LBB6_3
.LBB6_3:
.Ltmp54:
	.loc	5 454 3                         @ rt-thread/components/net/lwip-2.0.2/src/core/memp.c:454:3
	movw	r0, :lower16:.L.str.15
	movt	r0, :upper16:.L.str.15
	bl	rt_kprintf
	movw	r0, :lower16:.L.str.16
	movt	r0, :upper16:.L.str.16
	mov.w	r1, #454
	bl	sys_arch_assert
	b	.LBB6_4
.Ltmp55:
.LBB6_4:
	.loc	5 454 3                         @ rt-thread/components/net/lwip-2.0.2/src/core/memp.c:454:3
	b	.LBB6_5
.Ltmp56:
.LBB6_5:
	.loc	5 454 3                         @ rt-thread/components/net/lwip-2.0.2/src/core/memp.c:454:3
	b	.LBB6_6
.Ltmp57:
.LBB6_6:
	.loc	5 455 8 is_stmt 1               @ rt-thread/components/net/lwip-2.0.2/src/core/memp.c:455:8
	ldr	r0, [sp, #4]
	.loc	5 455 22 is_stmt 0              @ rt-thread/components/net/lwip-2.0.2/src/core/memp.c:455:22
	cbz	r0, .LBB6_8
	b	.LBB6_7
.LBB6_7:
	.loc	5 455 26                        @ rt-thread/components/net/lwip-2.0.2/src/core/memp.c:455:26
	ldr	r0, [sp]
.Ltmp58:
	.loc	5 455 7                         @ rt-thread/components/net/lwip-2.0.2/src/core/memp.c:455:7
	cbnz	r0, .LBB6_9
	b	.LBB6_8
.LBB6_8:
.Ltmp59:
	.loc	5 456 5 is_stmt 1               @ rt-thread/components/net/lwip-2.0.2/src/core/memp.c:456:5
	b	.LBB6_10
.Ltmp60:
.LBB6_9:
	.loc	5 459 21                        @ rt-thread/components/net/lwip-2.0.2/src/core/memp.c:459:21
	ldr	r0, [sp, #4]
	.loc	5 459 27 is_stmt 0              @ rt-thread/components/net/lwip-2.0.2/src/core/memp.c:459:27
	ldr	r1, [sp]
	.loc	5 459 3                         @ rt-thread/components/net/lwip-2.0.2/src/core/memp.c:459:3
	bl	do_memp_free_pool
	.loc	5 460 1 is_stmt 1               @ rt-thread/components/net/lwip-2.0.2/src/core/memp.c:460:1
	b	.LBB6_10
.LBB6_10:
	add	sp, #8
	pop	{r7, pc}
.Ltmp61:
.Lfunc_end6:
	.size	memp_free_pool, .Lfunc_end6-memp_free_pool
	.cfi_endproc
	.cantunwind
	.fnend
                                        @ -- End function
	.section	.text.do_memp_free_pool,"ax",%progbits
	.p2align	3                               @ -- Begin function do_memp_free_pool
	.type	do_memp_free_pool,%function
	.code	16                              @ @do_memp_free_pool
	.thumb_func
do_memp_free_pool:
.Lfunc_begin7:
	.loc	5 408 0                         @ rt-thread/components/net/lwip-2.0.2/src/core/memp.c:408:0
	.fnstart
	.cfi_startproc
@ %bb.0:
	.save	{r7, lr}
	push	{r7, lr}
	.cfi_def_cfa_offset 8
	.cfi_offset lr, -4
	.cfi_offset r7, -8
	.pad	#16
	sub	sp, #16
	.cfi_def_cfa_offset 24
	str	r0, [sp, #12]
	str	r1, [sp, #8]
.Ltmp62:
	.loc	5 412 3 prologue_end            @ rt-thread/components/net/lwip-2.0.2/src/core/memp.c:412:3
	b	.LBB7_1
.LBB7_1:
.Ltmp63:
	.loc	5 412 3 is_stmt 0               @ rt-thread/components/net/lwip-2.0.2/src/core/memp.c:412:3
	ldrb.w	r0, [sp, #8]
	lsls	r0, r0, #30
	cbz	r0, .LBB7_5
	b	.LBB7_2
.LBB7_2:
.Ltmp64:
	.loc	5 412 3                         @ rt-thread/components/net/lwip-2.0.2/src/core/memp.c:412:3
	b	.LBB7_3
.LBB7_3:
.Ltmp65:
	.loc	5 412 3                         @ rt-thread/components/net/lwip-2.0.2/src/core/memp.c:412:3
	movw	r0, :lower16:.L.str.20
	movt	r0, :upper16:.L.str.20
	bl	rt_kprintf
	movw	r0, :lower16:.L.str.16
	movt	r0, :upper16:.L.str.16
	movw	r1, #413
	bl	sys_arch_assert
	b	.LBB7_4
.Ltmp66:
.LBB7_4:
	.loc	5 412 3                         @ rt-thread/components/net/lwip-2.0.2/src/core/memp.c:412:3
	b	.LBB7_5
.Ltmp67:
.LBB7_5:
	.loc	5 412 3                         @ rt-thread/components/net/lwip-2.0.2/src/core/memp.c:412:3
	b	.LBB7_6
.Ltmp68:
.LBB7_6:
	.loc	5 416 41 is_stmt 1              @ rt-thread/components/net/lwip-2.0.2/src/core/memp.c:416:41
	ldr	r0, [sp, #8]
	.loc	5 416 45 is_stmt 0              @ rt-thread/components/net/lwip-2.0.2/src/core/memp.c:416:45
	subs	r0, #28
	.loc	5 416 8                         @ rt-thread/components/net/lwip-2.0.2/src/core/memp.c:416:8
	str	r0, [sp, #4]
	.loc	5 418 3 is_stmt 1               @ rt-thread/components/net/lwip-2.0.2/src/core/memp.c:418:3
	bl	rt_enter_critical
	.loc	5 421 40                        @ rt-thread/components/net/lwip-2.0.2/src/core/memp.c:421:40
	ldr	r0, [sp, #4]
	.loc	5 421 46 is_stmt 0              @ rt-thread/components/net/lwip-2.0.2/src/core/memp.c:421:46
	ldr	r1, [sp, #12]
	.loc	5 421 3                         @ rt-thread/components/net/lwip-2.0.2/src/core/memp.c:421:3
	bl	memp_overflow_check_element_overflow
	.loc	5 422 41 is_stmt 1              @ rt-thread/components/net/lwip-2.0.2/src/core/memp.c:422:41
	ldr	r0, [sp, #4]
	.loc	5 422 47 is_stmt 0              @ rt-thread/components/net/lwip-2.0.2/src/core/memp.c:422:47
	ldr	r1, [sp, #12]
	.loc	5 422 3                         @ rt-thread/components/net/lwip-2.0.2/src/core/memp.c:422:3
	bl	memp_overflow_check_element_underflow
	.loc	5 434 17 is_stmt 1              @ rt-thread/components/net/lwip-2.0.2/src/core/memp.c:434:17
	ldr	r0, [sp, #12]
	.loc	5 434 23 is_stmt 0              @ rt-thread/components/net/lwip-2.0.2/src/core/memp.c:434:23
	ldr	r0, [r0, #12]
	.loc	5 434 16                        @ rt-thread/components/net/lwip-2.0.2/src/core/memp.c:434:16
	ldr	r0, [r0]
	.loc	5 434 3                         @ rt-thread/components/net/lwip-2.0.2/src/core/memp.c:434:3
	ldr	r1, [sp, #4]
	.loc	5 434 14                        @ rt-thread/components/net/lwip-2.0.2/src/core/memp.c:434:14
	str	r0, [r1]
	.loc	5 435 16 is_stmt 1              @ rt-thread/components/net/lwip-2.0.2/src/core/memp.c:435:16
	ldr	r0, [sp, #4]
	.loc	5 435 4 is_stmt 0               @ rt-thread/components/net/lwip-2.0.2/src/core/memp.c:435:4
	ldr	r1, [sp, #12]
	.loc	5 435 10                        @ rt-thread/components/net/lwip-2.0.2/src/core/memp.c:435:10
	ldr	r1, [r1, #12]
	.loc	5 435 14                        @ rt-thread/components/net/lwip-2.0.2/src/core/memp.c:435:14
	str	r0, [r1]
	.loc	5 441 3 is_stmt 1               @ rt-thread/components/net/lwip-2.0.2/src/core/memp.c:441:3
	bl	rt_exit_critical
	.loc	5 443 1                         @ rt-thread/components/net/lwip-2.0.2/src/core/memp.c:443:1
	add	sp, #16
	pop	{r7, pc}
.Ltmp69:
.Lfunc_end7:
	.size	do_memp_free_pool, .Lfunc_end7-do_memp_free_pool
	.cfi_endproc
	.cantunwind
	.fnend
                                        @ -- End function
	.section	.text.memp_free,"ax",%progbits
	.hidden	memp_free                       @ -- Begin function memp_free
	.globl	memp_free
	.p2align	3
	.type	memp_free,%function
	.code	16                              @ @memp_free
	.thumb_func
memp_free:
.Lfunc_begin8:
	.loc	5 470 0                         @ rt-thread/components/net/lwip-2.0.2/src/core/memp.c:470:0
	.fnstart
	.cfi_startproc
@ %bb.0:
	.save	{r7, lr}
	push	{r7, lr}
	.cfi_def_cfa_offset 8
	.cfi_offset lr, -4
	.cfi_offset r7, -8
	.pad	#8
	sub	sp, #8
	.cfi_def_cfa_offset 16
                                        @ kill: def $r2 killed $r0
	strb.w	r0, [sp, #7]
	str	r1, [sp]
.Ltmp70:
	.loc	5 475 3 prologue_end            @ rt-thread/components/net/lwip-2.0.2/src/core/memp.c:475:3
	b	.LBB8_1
.LBB8_1:
.Ltmp71:
	.loc	5 475 3 is_stmt 0               @ rt-thread/components/net/lwip-2.0.2/src/core/memp.c:475:3
	ldrb.w	r0, [sp, #7]
.Ltmp72:
	.loc	5 475 3                         @ rt-thread/components/net/lwip-2.0.2/src/core/memp.c:475:3
	cmp	r0, #15
	blt	.LBB8_5
	b	.LBB8_2
.LBB8_2:
.Ltmp73:
	.loc	5 475 3                         @ rt-thread/components/net/lwip-2.0.2/src/core/memp.c:475:3
	b	.LBB8_3
.LBB8_3:
.Ltmp74:
	.loc	5 475 3                         @ rt-thread/components/net/lwip-2.0.2/src/core/memp.c:475:3
	movw	r0, :lower16:.L.str.18
	movt	r0, :upper16:.L.str.18
	bl	rt_kprintf
	movw	r0, :lower16:.L.str.16
	movt	r0, :upper16:.L.str.16
	movw	r1, #475
	bl	sys_arch_assert
	b	.LBB8_4
.Ltmp75:
.LBB8_4:
	.loc	5 475 3                         @ rt-thread/components/net/lwip-2.0.2/src/core/memp.c:475:3
	b	.LBB8_9
.Ltmp76:
.LBB8_5:
	.loc	5 475 3                         @ rt-thread/components/net/lwip-2.0.2/src/core/memp.c:475:3
	b	.LBB8_6
.Ltmp77:
.LBB8_6:
	.loc	5 477 7 is_stmt 1               @ rt-thread/components/net/lwip-2.0.2/src/core/memp.c:477:7
	ldr	r0, [sp]
.Ltmp78:
	.loc	5 477 7 is_stmt 0               @ rt-thread/components/net/lwip-2.0.2/src/core/memp.c:477:7
	cbnz	r0, .LBB8_8
	b	.LBB8_7
.LBB8_7:
.Ltmp79:
	.loc	5 478 5 is_stmt 1               @ rt-thread/components/net/lwip-2.0.2/src/core/memp.c:478:5
	b	.LBB8_9
.Ltmp80:
.LBB8_8:
	.loc	5 489 32                        @ rt-thread/components/net/lwip-2.0.2/src/core/memp.c:489:32
	ldrb.w	r1, [sp, #7]
	.loc	5 489 21 is_stmt 0              @ rt-thread/components/net/lwip-2.0.2/src/core/memp.c:489:21
	movw	r0, :lower16:memp_pools
	movt	r0, :upper16:memp_pools
	ldr.w	r0, [r0, r1, lsl #2]
	.loc	5 489 39                        @ rt-thread/components/net/lwip-2.0.2/src/core/memp.c:489:39
	ldr	r1, [sp]
	.loc	5 489 3                         @ rt-thread/components/net/lwip-2.0.2/src/core/memp.c:489:3
	bl	do_memp_free_pool
	.loc	5 496 1 is_stmt 1               @ rt-thread/components/net/lwip-2.0.2/src/core/memp.c:496:1
	b	.LBB8_9
.LBB8_9:
	add	sp, #8
	pop	{r7, pc}
.Ltmp81:
.Lfunc_end8:
	.size	memp_free, .Lfunc_end8-memp_free
	.cfi_endproc
	.cantunwind
	.fnend
                                        @ -- End function
	.section	.text.memp_overflow_check_element_overflow,"ax",%progbits
	.p2align	3                               @ -- Begin function memp_overflow_check_element_overflow
	.type	memp_overflow_check_element_overflow,%function
	.code	16                              @ @memp_overflow_check_element_overflow
	.thumb_func
memp_overflow_check_element_overflow:
.Lfunc_begin9:
	.loc	5 129 0                         @ rt-thread/components/net/lwip-2.0.2/src/core/memp.c:129:0
	.fnstart
	.cfi_startproc
@ %bb.0:
	.save	{r7, lr}
	push	{r7, lr}
	.cfi_def_cfa_offset 8
	.cfi_offset lr, -4
	.cfi_offset r7, -8
	.pad	#152
	sub	sp, #152
	.cfi_def_cfa_offset 160
	str	r0, [sp, #148]
	str	r1, [sp, #144]
.Ltmp82:
	.loc	5 133 14 prologue_end           @ rt-thread/components/net/lwip-2.0.2/src/core/memp.c:133:14
	ldr	r0, [sp, #148]
	.loc	5 133 30 is_stmt 0              @ rt-thread/components/net/lwip-2.0.2/src/core/memp.c:133:30
	ldr	r1, [sp, #144]
	.loc	5 133 36                        @ rt-thread/components/net/lwip-2.0.2/src/core/memp.c:133:36
	ldrh	r1, [r1, #4]
	.loc	5 133 16                        @ rt-thread/components/net/lwip-2.0.2/src/core/memp.c:133:16
	add	r0, r1
	.loc	5 133 28                        @ rt-thread/components/net/lwip-2.0.2/src/core/memp.c:133:28
	adds	r0, #28
	.loc	5 133 5                         @ rt-thread/components/net/lwip-2.0.2/src/core/memp.c:133:5
	str	r0, [sp, #136]
	movs	r0, #0
.Ltmp83:
	.loc	5 134 10 is_stmt 1              @ rt-thread/components/net/lwip-2.0.2/src/core/memp.c:134:10
	strh.w	r0, [sp, #142]
	.loc	5 134 8 is_stmt 0               @ rt-thread/components/net/lwip-2.0.2/src/core/memp.c:134:8
	b	.LBB9_1
.LBB9_1:                                @ =>This Inner Loop Header: Depth=1
.Ltmp84:
	.loc	5 134 15                        @ rt-thread/components/net/lwip-2.0.2/src/core/memp.c:134:15
	ldrh.w	r0, [sp, #142]
.Ltmp85:
	.loc	5 134 3                         @ rt-thread/components/net/lwip-2.0.2/src/core/memp.c:134:3
	cmp	r0, #15
	bhi	.LBB9_10
	b	.LBB9_2
.LBB9_2:                                @   in Loop: Header=BB9_1 Depth=1
.Ltmp86:
	.loc	5 135 9 is_stmt 1               @ rt-thread/components/net/lwip-2.0.2/src/core/memp.c:135:9
	ldr	r0, [sp, #136]
	.loc	5 135 11 is_stmt 0              @ rt-thread/components/net/lwip-2.0.2/src/core/memp.c:135:11
	ldrh.w	r1, [sp, #142]
	.loc	5 135 9                         @ rt-thread/components/net/lwip-2.0.2/src/core/memp.c:135:9
	ldrb	r0, [r0, r1]
.Ltmp87:
	.loc	5 135 9                         @ rt-thread/components/net/lwip-2.0.2/src/core/memp.c:135:9
	cmp	r0, #205
	beq	.LBB9_8
	b	.LBB9_3
.LBB9_3:                                @   in Loop: Header=BB9_1 Depth=1
.Ltmp88:
	.loc	5 136 12 is_stmt 1              @ rt-thread/components/net/lwip-2.0.2/src/core/memp.c:136:12
	movw	r1, :lower16:.L__const.memp_overflow_check_element_overflow.errstr
	movt	r1, :upper16:.L__const.memp_overflow_check_element_overflow.errstr
	add	r0, sp, #8
	str	r0, [sp, #4]                    @ 4-byte Spill
	movs	r2, #128
	bl	__aeabi_memcpy
                                        @ kill: def $r1 killed $r0
	.loc	5 137 22                        @ rt-thread/components/net/lwip-2.0.2/src/core/memp.c:137:22
	ldr	r0, [sp, #4]                    @ 4-byte Reload
	ldr	r1, [sp, #144]
	.loc	5 137 28 is_stmt 0              @ rt-thread/components/net/lwip-2.0.2/src/core/memp.c:137:28
	ldr	r1, [r1]
	.loc	5 137 7                         @ rt-thread/components/net/lwip-2.0.2/src/core/memp.c:137:7
	bl	strcat
	.loc	5 138 7 is_stmt 1               @ rt-thread/components/net/lwip-2.0.2/src/core/memp.c:138:7
	b	.LBB9_4
.LBB9_4:                                @   in Loop: Header=BB9_1 Depth=1
.Ltmp89:
	.loc	5 138 7 is_stmt 0               @ rt-thread/components/net/lwip-2.0.2/src/core/memp.c:138:7
	b	.LBB9_5
.LBB9_5:                                @   in Loop: Header=BB9_1 Depth=1
	.loc	5 0 7                           @ rt-thread/components/net/lwip-2.0.2/src/core/memp.c:0:7
	add	r0, sp, #8
.Ltmp90:
	.loc	5 138 7                         @ rt-thread/components/net/lwip-2.0.2/src/core/memp.c:138:7
	bl	rt_kprintf
	movw	r0, :lower16:.L.str.16
	movt	r0, :upper16:.L.str.16
	movs	r1, #138
	bl	sys_arch_assert
	b	.LBB9_6
.Ltmp91:
.LBB9_6:                                @   in Loop: Header=BB9_1 Depth=1
	.loc	5 138 7                         @ rt-thread/components/net/lwip-2.0.2/src/core/memp.c:138:7
	b	.LBB9_7
.Ltmp92:
.LBB9_7:                                @   in Loop: Header=BB9_1 Depth=1
	.loc	5 139 5 is_stmt 1               @ rt-thread/components/net/lwip-2.0.2/src/core/memp.c:139:5
	b	.LBB9_8
.Ltmp93:
.LBB9_8:                                @   in Loop: Header=BB9_1 Depth=1
	.loc	5 140 3                         @ rt-thread/components/net/lwip-2.0.2/src/core/memp.c:140:3
	b	.LBB9_9
.Ltmp94:
.LBB9_9:                                @   in Loop: Header=BB9_1 Depth=1
	.loc	5 134 54                        @ rt-thread/components/net/lwip-2.0.2/src/core/memp.c:134:54
	ldrh.w	r0, [sp, #142]
	adds	r0, #1
	strh.w	r0, [sp, #142]
	.loc	5 134 3 is_stmt 0               @ rt-thread/components/net/lwip-2.0.2/src/core/memp.c:134:3
	b	.LBB9_1
.Ltmp95:
.LBB9_10:
	.loc	5 145 1 is_stmt 1               @ rt-thread/components/net/lwip-2.0.2/src/core/memp.c:145:1
	add	sp, #152
	pop	{r7, pc}
.Ltmp96:
.Lfunc_end9:
	.size	memp_overflow_check_element_overflow, .Lfunc_end9-memp_overflow_check_element_overflow
	.cfi_endproc
	.cantunwind
	.fnend
                                        @ -- End function
	.section	.text.memp_overflow_check_element_underflow,"ax",%progbits
	.p2align	3                               @ -- Begin function memp_overflow_check_element_underflow
	.type	memp_overflow_check_element_underflow,%function
	.code	16                              @ @memp_overflow_check_element_underflow
	.thumb_func
memp_overflow_check_element_underflow:
.Lfunc_begin10:
	.loc	5 156 0                         @ rt-thread/components/net/lwip-2.0.2/src/core/memp.c:156:0
	.fnstart
	.cfi_startproc
@ %bb.0:
	.save	{r7, lr}
	push	{r7, lr}
	.cfi_def_cfa_offset 8
	.cfi_offset lr, -4
	.cfi_offset r7, -8
	.pad	#152
	sub	sp, #152
	.cfi_def_cfa_offset 160
	str	r0, [sp, #148]
	str	r1, [sp, #144]
.Ltmp97:
	.loc	5 160 14 prologue_end           @ rt-thread/components/net/lwip-2.0.2/src/core/memp.c:160:14
	ldr	r0, [sp, #148]
	.loc	5 160 28 is_stmt 0              @ rt-thread/components/net/lwip-2.0.2/src/core/memp.c:160:28
	adds	r0, #12
	.loc	5 160 5                         @ rt-thread/components/net/lwip-2.0.2/src/core/memp.c:160:5
	str	r0, [sp, #136]
	movs	r0, #0
.Ltmp98:
	.loc	5 161 10 is_stmt 1              @ rt-thread/components/net/lwip-2.0.2/src/core/memp.c:161:10
	strh.w	r0, [sp, #142]
	.loc	5 161 8 is_stmt 0               @ rt-thread/components/net/lwip-2.0.2/src/core/memp.c:161:8
	b	.LBB10_1
.LBB10_1:                               @ =>This Inner Loop Header: Depth=1
.Ltmp99:
	.loc	5 161 15                        @ rt-thread/components/net/lwip-2.0.2/src/core/memp.c:161:15
	ldrh.w	r0, [sp, #142]
.Ltmp100:
	.loc	5 161 3                         @ rt-thread/components/net/lwip-2.0.2/src/core/memp.c:161:3
	cmp	r0, #15
	bhi	.LBB10_10
	b	.LBB10_2
.LBB10_2:                               @   in Loop: Header=BB10_1 Depth=1
.Ltmp101:
	.loc	5 162 9 is_stmt 1               @ rt-thread/components/net/lwip-2.0.2/src/core/memp.c:162:9
	ldr	r0, [sp, #136]
	.loc	5 162 11 is_stmt 0              @ rt-thread/components/net/lwip-2.0.2/src/core/memp.c:162:11
	ldrh.w	r1, [sp, #142]
	.loc	5 162 9                         @ rt-thread/components/net/lwip-2.0.2/src/core/memp.c:162:9
	ldrb	r0, [r0, r1]
.Ltmp102:
	.loc	5 162 9                         @ rt-thread/components/net/lwip-2.0.2/src/core/memp.c:162:9
	cmp	r0, #205
	beq	.LBB10_8
	b	.LBB10_3
.LBB10_3:                               @   in Loop: Header=BB10_1 Depth=1
.Ltmp103:
	.loc	5 163 12 is_stmt 1              @ rt-thread/components/net/lwip-2.0.2/src/core/memp.c:163:12
	movw	r1, :lower16:.L__const.memp_overflow_check_element_underflow.errstr
	movt	r1, :upper16:.L__const.memp_overflow_check_element_underflow.errstr
	add	r0, sp, #8
	str	r0, [sp, #4]                    @ 4-byte Spill
	movs	r2, #128
	bl	__aeabi_memcpy
                                        @ kill: def $r1 killed $r0
	.loc	5 164 22                        @ rt-thread/components/net/lwip-2.0.2/src/core/memp.c:164:22
	ldr	r0, [sp, #4]                    @ 4-byte Reload
	ldr	r1, [sp, #144]
	.loc	5 164 28 is_stmt 0              @ rt-thread/components/net/lwip-2.0.2/src/core/memp.c:164:28
	ldr	r1, [r1]
	.loc	5 164 7                         @ rt-thread/components/net/lwip-2.0.2/src/core/memp.c:164:7
	bl	strcat
	.loc	5 165 7 is_stmt 1               @ rt-thread/components/net/lwip-2.0.2/src/core/memp.c:165:7
	b	.LBB10_4
.LBB10_4:                               @   in Loop: Header=BB10_1 Depth=1
.Ltmp104:
	.loc	5 165 7 is_stmt 0               @ rt-thread/components/net/lwip-2.0.2/src/core/memp.c:165:7
	b	.LBB10_5
.LBB10_5:                               @   in Loop: Header=BB10_1 Depth=1
	.loc	5 0 7                           @ rt-thread/components/net/lwip-2.0.2/src/core/memp.c:0:7
	add	r0, sp, #8
.Ltmp105:
	.loc	5 165 7                         @ rt-thread/components/net/lwip-2.0.2/src/core/memp.c:165:7
	bl	rt_kprintf
	movw	r0, :lower16:.L.str.16
	movt	r0, :upper16:.L.str.16
	movs	r1, #165
	bl	sys_arch_assert
	b	.LBB10_6
.Ltmp106:
.LBB10_6:                               @   in Loop: Header=BB10_1 Depth=1
	.loc	5 165 7                         @ rt-thread/components/net/lwip-2.0.2/src/core/memp.c:165:7
	b	.LBB10_7
.Ltmp107:
.LBB10_7:                               @   in Loop: Header=BB10_1 Depth=1
	.loc	5 166 5 is_stmt 1               @ rt-thread/components/net/lwip-2.0.2/src/core/memp.c:166:5
	b	.LBB10_8
.Ltmp108:
.LBB10_8:                               @   in Loop: Header=BB10_1 Depth=1
	.loc	5 167 3                         @ rt-thread/components/net/lwip-2.0.2/src/core/memp.c:167:3
	b	.LBB10_9
.Ltmp109:
.LBB10_9:                               @   in Loop: Header=BB10_1 Depth=1
	.loc	5 161 55                        @ rt-thread/components/net/lwip-2.0.2/src/core/memp.c:161:55
	ldrh.w	r0, [sp, #142]
	adds	r0, #1
	strh.w	r0, [sp, #142]
	.loc	5 161 3 is_stmt 0               @ rt-thread/components/net/lwip-2.0.2/src/core/memp.c:161:3
	b	.LBB10_1
.Ltmp110:
.LBB10_10:
	.loc	5 172 1 is_stmt 1               @ rt-thread/components/net/lwip-2.0.2/src/core/memp.c:172:1
	add	sp, #152
	pop	{r7, pc}
.Ltmp111:
.Lfunc_end10:
	.size	memp_overflow_check_element_underflow, .Lfunc_end10-memp_overflow_check_element_underflow
	.cfi_endproc
	.cantunwind
	.fnend
                                        @ -- End function
	.type	.L.str,%object                  @ @.str
	.section	.rodata.str1.1,"aMS",%progbits,1
.L.str:
	.asciz	"RAW_PCB"
	.size	.L.str, 8

	.hidden	memp_memory_RAW_PCB_base        @ @memp_memory_RAW_PCB_base
	.type	memp_memory_RAW_PCB_base,%object
	.section	.bss.memp_memory_RAW_PCB_base,"aw",%nobits
	.globl	memp_memory_RAW_PCB_base
memp_memory_RAW_PCB_base:
	.zero	291
	.size	memp_memory_RAW_PCB_base, 291

	.type	memp_tab_RAW_PCB,%object        @ @memp_tab_RAW_PCB
	.section	.bss.memp_tab_RAW_PCB,"aw",%nobits
	.p2align	2
memp_tab_RAW_PCB:
	.long	0
	.size	memp_tab_RAW_PCB, 4

	.hidden	memp_RAW_PCB                    @ @memp_RAW_PCB
	.type	memp_RAW_PCB,%object
	.section	.rodata.memp_RAW_PCB,"a",%progbits
	.globl	memp_RAW_PCB
	.p2align	2
memp_RAW_PCB:
	.long	.L.str
	.short	28                              @ 0x1c
	.short	4                               @ 0x4
	.long	memp_memory_RAW_PCB_base
	.long	memp_tab_RAW_PCB
	.size	memp_RAW_PCB, 16

	.type	.L.str.1,%object                @ @.str.1
	.section	.rodata.str1.1,"aMS",%progbits,1
.L.str.1:
	.asciz	"UDP_PCB"
	.size	.L.str.1, 8

	.hidden	memp_memory_UDP_PCB_base        @ @memp_memory_UDP_PCB_base
	.type	memp_memory_UDP_PCB_base,%object
	.section	.bss.memp_memory_UDP_PCB_base,"aw",%nobits
	.globl	memp_memory_UDP_PCB_base
memp_memory_UDP_PCB_base:
	.zero	339
	.size	memp_memory_UDP_PCB_base, 339

	.type	memp_tab_UDP_PCB,%object        @ @memp_tab_UDP_PCB
	.section	.bss.memp_tab_UDP_PCB,"aw",%nobits
	.p2align	2
memp_tab_UDP_PCB:
	.long	0
	.size	memp_tab_UDP_PCB, 4

	.hidden	memp_UDP_PCB                    @ @memp_UDP_PCB
	.type	memp_UDP_PCB,%object
	.section	.rodata.memp_UDP_PCB,"a",%progbits
	.globl	memp_UDP_PCB
	.p2align	2
memp_UDP_PCB:
	.long	.L.str.1
	.short	40                              @ 0x28
	.short	4                               @ 0x4
	.long	memp_memory_UDP_PCB_base
	.long	memp_tab_UDP_PCB
	.size	memp_UDP_PCB, 16

	.type	.L.str.2,%object                @ @.str.2
	.section	.rodata.str1.1,"aMS",%progbits,1
.L.str.2:
	.asciz	"TCP_PCB"
	.size	.L.str.2, 8

	.hidden	memp_memory_TCP_PCB_base        @ @memp_memory_TCP_PCB_base
	.type	memp_memory_TCP_PCB_base,%object
	.section	.bss.memp_memory_TCP_PCB_base,"aw",%nobits
	.globl	memp_memory_TCP_PCB_base
memp_memory_TCP_PCB_base:
	.zero	819
	.size	memp_memory_TCP_PCB_base, 819

	.type	memp_tab_TCP_PCB,%object        @ @memp_tab_TCP_PCB
	.section	.bss.memp_tab_TCP_PCB,"aw",%nobits
	.p2align	2
memp_tab_TCP_PCB:
	.long	0
	.size	memp_tab_TCP_PCB, 4

	.hidden	memp_TCP_PCB                    @ @memp_TCP_PCB
	.type	memp_TCP_PCB,%object
	.section	.rodata.memp_TCP_PCB,"a",%progbits
	.globl	memp_TCP_PCB
	.p2align	2
memp_TCP_PCB:
	.long	.L.str.2
	.short	160                             @ 0xa0
	.short	4                               @ 0x4
	.long	memp_memory_TCP_PCB_base
	.long	memp_tab_TCP_PCB
	.size	memp_TCP_PCB, 16

	.type	.L.str.3,%object                @ @.str.3
	.section	.rodata.str1.1,"aMS",%progbits,1
.L.str.3:
	.asciz	"TCP_PCB_LISTEN"
	.size	.L.str.3, 15

	.hidden	memp_memory_TCP_PCB_LISTEN_base @ @memp_memory_TCP_PCB_LISTEN_base
	.type	memp_memory_TCP_PCB_LISTEN_base,%object
	.section	.bss.memp_memory_TCP_PCB_LISTEN_base,"aw",%nobits
	.globl	memp_memory_TCP_PCB_LISTEN_base
memp_memory_TCP_PCB_LISTEN_base:
	.zero	579
	.size	memp_memory_TCP_PCB_LISTEN_base, 579

	.type	memp_tab_TCP_PCB_LISTEN,%object @ @memp_tab_TCP_PCB_LISTEN
	.section	.bss.memp_tab_TCP_PCB_LISTEN,"aw",%nobits
	.p2align	2
memp_tab_TCP_PCB_LISTEN:
	.long	0
	.size	memp_tab_TCP_PCB_LISTEN, 4

	.hidden	memp_TCP_PCB_LISTEN             @ @memp_TCP_PCB_LISTEN
	.type	memp_TCP_PCB_LISTEN,%object
	.section	.rodata.memp_TCP_PCB_LISTEN,"a",%progbits
	.globl	memp_TCP_PCB_LISTEN
	.p2align	2
memp_TCP_PCB_LISTEN:
	.long	.L.str.3
	.short	28                              @ 0x1c
	.short	8                               @ 0x8
	.long	memp_memory_TCP_PCB_LISTEN_base
	.long	memp_tab_TCP_PCB_LISTEN
	.size	memp_TCP_PCB_LISTEN, 16

	.type	.L.str.4,%object                @ @.str.4
	.section	.rodata.str1.1,"aMS",%progbits,1
.L.str.4:
	.asciz	"TCP_SEG"
	.size	.L.str.4, 8

	.hidden	memp_memory_TCP_SEG_base        @ @memp_memory_TCP_SEG_base
	.type	memp_memory_TCP_SEG_base,%object
	.section	.bss.memp_memory_TCP_SEG_base,"aw",%nobits
	.globl	memp_memory_TCP_SEG_base
memp_memory_TCP_SEG_base:
	.zero	2403
	.size	memp_memory_TCP_SEG_base, 2403

	.type	memp_tab_TCP_SEG,%object        @ @memp_tab_TCP_SEG
	.section	.bss.memp_tab_TCP_SEG,"aw",%nobits
	.p2align	2
memp_tab_TCP_SEG:
	.long	0
	.size	memp_tab_TCP_SEG, 4

	.hidden	memp_TCP_SEG                    @ @memp_TCP_SEG
	.type	memp_TCP_SEG,%object
	.section	.rodata.memp_TCP_SEG,"a",%progbits
	.globl	memp_TCP_SEG
	.p2align	2
memp_TCP_SEG:
	.long	.L.str.4
	.short	16                              @ 0x10
	.short	40                              @ 0x28
	.long	memp_memory_TCP_SEG_base
	.long	memp_tab_TCP_SEG
	.size	memp_TCP_SEG, 16

	.type	.L.str.5,%object                @ @.str.5
	.section	.rodata.str1.1,"aMS",%progbits,1
.L.str.5:
	.asciz	"NETBUF"
	.size	.L.str.5, 7

	.hidden	memp_memory_NETBUF_base         @ @memp_memory_NETBUF_base
	.type	memp_memory_NETBUF_base,%object
	.section	.bss.memp_memory_NETBUF_base,"aw",%nobits
	.globl	memp_memory_NETBUF_base
memp_memory_NETBUF_base:
	.zero	123
	.size	memp_memory_NETBUF_base, 123

	.type	memp_tab_NETBUF,%object         @ @memp_tab_NETBUF
	.section	.bss.memp_tab_NETBUF,"aw",%nobits
	.p2align	2
memp_tab_NETBUF:
	.long	0
	.size	memp_tab_NETBUF, 4

	.hidden	memp_NETBUF                     @ @memp_NETBUF
	.type	memp_NETBUF,%object
	.section	.rodata.memp_NETBUF,"a",%progbits
	.globl	memp_NETBUF
	.p2align	2
memp_NETBUF:
	.long	.L.str.5
	.short	16                              @ 0x10
	.short	2                               @ 0x2
	.long	memp_memory_NETBUF_base
	.long	memp_tab_NETBUF
	.size	memp_NETBUF, 16

	.type	.L.str.6,%object                @ @.str.6
	.section	.rodata.str1.1,"aMS",%progbits,1
.L.str.6:
	.asciz	"NETCONN"
	.size	.L.str.6, 8

	.hidden	memp_memory_NETCONN_base        @ @memp_memory_NETCONN_base
	.type	memp_memory_NETCONN_base,%object
	.section	.bss.memp_memory_NETCONN_base,"aw",%nobits
	.globl	memp_memory_NETCONN_base
memp_memory_NETCONN_base:
	.zero	835
	.size	memp_memory_NETCONN_base, 835

	.type	memp_tab_NETCONN,%object        @ @memp_tab_NETCONN
	.section	.bss.memp_tab_NETCONN,"aw",%nobits
	.p2align	2
memp_tab_NETCONN:
	.long	0
	.size	memp_tab_NETCONN, 4

	.hidden	memp_NETCONN                    @ @memp_NETCONN
	.type	memp_NETCONN,%object
	.section	.rodata.memp_NETCONN,"a",%progbits
	.globl	memp_NETCONN
	.p2align	2
memp_NETCONN:
	.long	.L.str.6
	.short	60                              @ 0x3c
	.short	8                               @ 0x8
	.long	memp_memory_NETCONN_base
	.long	memp_tab_NETCONN
	.size	memp_NETCONN, 16

	.type	.L.str.7,%object                @ @.str.7
	.section	.rodata.str1.1,"aMS",%progbits,1
.L.str.7:
	.asciz	"TCPIP_MSG_API"
	.size	.L.str.7, 14

	.hidden	memp_memory_TCPIP_MSG_API_base  @ @memp_memory_TCPIP_MSG_API_base
	.type	memp_memory_TCPIP_MSG_API_base,%object
	.section	.bss.memp_memory_TCPIP_MSG_API_base,"aw",%nobits
	.globl	memp_memory_TCPIP_MSG_API_base
memp_memory_TCPIP_MSG_API_base:
	.zero	483
	.size	memp_memory_TCPIP_MSG_API_base, 483

	.type	memp_tab_TCPIP_MSG_API,%object  @ @memp_tab_TCPIP_MSG_API
	.section	.bss.memp_tab_TCPIP_MSG_API,"aw",%nobits
	.p2align	2
memp_tab_TCPIP_MSG_API:
	.long	0
	.size	memp_tab_TCPIP_MSG_API, 4

	.hidden	memp_TCPIP_MSG_API              @ @memp_TCPIP_MSG_API
	.type	memp_TCPIP_MSG_API,%object
	.section	.rodata.memp_TCPIP_MSG_API,"a",%progbits
	.globl	memp_TCPIP_MSG_API
	.p2align	2
memp_TCPIP_MSG_API:
	.long	.L.str.7
	.short	16                              @ 0x10
	.short	8                               @ 0x8
	.long	memp_memory_TCPIP_MSG_API_base
	.long	memp_tab_TCPIP_MSG_API
	.size	memp_TCPIP_MSG_API, 16

	.type	.L.str.8,%object                @ @.str.8
	.section	.rodata.str1.1,"aMS",%progbits,1
.L.str.8:
	.asciz	"TCPIP_MSG_INPKT"
	.size	.L.str.8, 16

	.hidden	memp_memory_TCPIP_MSG_INPKT_base @ @memp_memory_TCPIP_MSG_INPKT_base
	.type	memp_memory_TCPIP_MSG_INPKT_base,%object
	.section	.bss.memp_memory_TCPIP_MSG_INPKT_base,"aw",%nobits
	.globl	memp_memory_TCPIP_MSG_INPKT_base
memp_memory_TCPIP_MSG_INPKT_base:
	.zero	483
	.size	memp_memory_TCPIP_MSG_INPKT_base, 483

	.type	memp_tab_TCPIP_MSG_INPKT,%object @ @memp_tab_TCPIP_MSG_INPKT
	.section	.bss.memp_tab_TCPIP_MSG_INPKT,"aw",%nobits
	.p2align	2
memp_tab_TCPIP_MSG_INPKT:
	.long	0
	.size	memp_tab_TCPIP_MSG_INPKT, 4

	.hidden	memp_TCPIP_MSG_INPKT            @ @memp_TCPIP_MSG_INPKT
	.type	memp_TCPIP_MSG_INPKT,%object
	.section	.rodata.memp_TCPIP_MSG_INPKT,"a",%progbits
	.globl	memp_TCPIP_MSG_INPKT
	.p2align	2
memp_TCPIP_MSG_INPKT:
	.long	.L.str.8
	.short	16                              @ 0x10
	.short	8                               @ 0x8
	.long	memp_memory_TCPIP_MSG_INPKT_base
	.long	memp_tab_TCPIP_MSG_INPKT
	.size	memp_TCPIP_MSG_INPKT, 16

	.type	.L.str.9,%object                @ @.str.9
	.section	.rodata.str1.1,"aMS",%progbits,1
.L.str.9:
	.asciz	"ARP_QUEUE"
	.size	.L.str.9, 10

	.hidden	memp_memory_ARP_QUEUE_base      @ @memp_memory_ARP_QUEUE_base
	.type	memp_memory_ARP_QUEUE_base,%object
	.section	.bss.memp_memory_ARP_QUEUE_base,"aw",%nobits
	.globl	memp_memory_ARP_QUEUE_base
memp_memory_ARP_QUEUE_base:
	.zero	1563
	.size	memp_memory_ARP_QUEUE_base, 1563

	.type	memp_tab_ARP_QUEUE,%object      @ @memp_tab_ARP_QUEUE
	.section	.bss.memp_tab_ARP_QUEUE,"aw",%nobits
	.p2align	2
memp_tab_ARP_QUEUE:
	.long	0
	.size	memp_tab_ARP_QUEUE, 4

	.hidden	memp_ARP_QUEUE                  @ @memp_ARP_QUEUE
	.type	memp_ARP_QUEUE,%object
	.section	.rodata.memp_ARP_QUEUE,"a",%progbits
	.globl	memp_ARP_QUEUE
	.p2align	2
memp_ARP_QUEUE:
	.long	.L.str.9
	.short	8                               @ 0x8
	.short	30                              @ 0x1e
	.long	memp_memory_ARP_QUEUE_base
	.long	memp_tab_ARP_QUEUE
	.size	memp_ARP_QUEUE, 16

	.type	.L.str.10,%object               @ @.str.10
	.section	.rodata.str1.1,"aMS",%progbits,1
.L.str.10:
	.asciz	"IGMP_GROUP"
	.size	.L.str.10, 11

	.hidden	memp_memory_IGMP_GROUP_base     @ @memp_memory_IGMP_GROUP_base
	.type	memp_memory_IGMP_GROUP_base,%object
	.section	.bss.memp_memory_IGMP_GROUP_base,"aw",%nobits
	.globl	memp_memory_IGMP_GROUP_base
memp_memory_IGMP_GROUP_base:
	.zero	483
	.size	memp_memory_IGMP_GROUP_base, 483

	.type	memp_tab_IGMP_GROUP,%object     @ @memp_tab_IGMP_GROUP
	.section	.bss.memp_tab_IGMP_GROUP,"aw",%nobits
	.p2align	2
memp_tab_IGMP_GROUP:
	.long	0
	.size	memp_tab_IGMP_GROUP, 4

	.hidden	memp_IGMP_GROUP                 @ @memp_IGMP_GROUP
	.type	memp_IGMP_GROUP,%object
	.section	.rodata.memp_IGMP_GROUP,"a",%progbits
	.globl	memp_IGMP_GROUP
	.p2align	2
memp_IGMP_GROUP:
	.long	.L.str.10
	.short	16                              @ 0x10
	.short	8                               @ 0x8
	.long	memp_memory_IGMP_GROUP_base
	.long	memp_tab_IGMP_GROUP
	.size	memp_IGMP_GROUP, 16

	.type	.L.str.11,%object               @ @.str.11
	.section	.rodata.str1.1,"aMS",%progbits,1
.L.str.11:
	.asciz	"SYS_TIMEOUT"
	.size	.L.str.11, 12

	.hidden	memp_memory_SYS_TIMEOUT_base    @ @memp_memory_SYS_TIMEOUT_base
	.type	memp_memory_SYS_TIMEOUT_base,%object
	.section	.bss.memp_memory_SYS_TIMEOUT_base,"aw",%nobits
	.globl	memp_memory_SYS_TIMEOUT_base
memp_memory_SYS_TIMEOUT_base:
	.zero	423
	.size	memp_memory_SYS_TIMEOUT_base, 423

	.type	memp_tab_SYS_TIMEOUT,%object    @ @memp_tab_SYS_TIMEOUT
	.section	.bss.memp_tab_SYS_TIMEOUT,"aw",%nobits
	.p2align	2
memp_tab_SYS_TIMEOUT:
	.long	0
	.size	memp_tab_SYS_TIMEOUT, 4

	.hidden	memp_SYS_TIMEOUT                @ @memp_SYS_TIMEOUT
	.type	memp_SYS_TIMEOUT,%object
	.section	.rodata.memp_SYS_TIMEOUT,"a",%progbits
	.globl	memp_SYS_TIMEOUT
	.p2align	2
memp_SYS_TIMEOUT:
	.long	.L.str.11
	.short	16                              @ 0x10
	.short	7                               @ 0x7
	.long	memp_memory_SYS_TIMEOUT_base
	.long	memp_tab_SYS_TIMEOUT
	.size	memp_SYS_TIMEOUT, 16

	.type	.L.str.12,%object               @ @.str.12
	.section	.rodata.str1.1,"aMS",%progbits,1
.L.str.12:
	.asciz	"NETDB"
	.size	.L.str.12, 6

	.hidden	memp_memory_NETDB_base          @ @memp_memory_NETDB_base
	.type	memp_memory_NETDB_base,%object
	.section	.bss.memp_memory_NETDB_base,"aw",%nobits
	.globl	memp_memory_NETDB_base
memp_memory_NETDB_base:
	.zero	355
	.size	memp_memory_NETDB_base, 355

	.type	memp_tab_NETDB,%object          @ @memp_tab_NETDB
	.section	.bss.memp_tab_NETDB,"aw",%nobits
	.p2align	2
memp_tab_NETDB:
	.long	0
	.size	memp_tab_NETDB, 4

	.hidden	memp_NETDB                      @ @memp_NETDB
	.type	memp_NETDB,%object
	.section	.rodata.memp_NETDB,"a",%progbits
	.globl	memp_NETDB
	.p2align	2
memp_NETDB:
	.long	.L.str.12
	.short	308                             @ 0x134
	.short	1                               @ 0x1
	.long	memp_memory_NETDB_base
	.long	memp_tab_NETDB
	.size	memp_NETDB, 16

	.type	.L.str.13,%object               @ @.str.13
	.section	.rodata.str1.1,"aMS",%progbits,1
.L.str.13:
	.asciz	"PBUF_REF/ROM"
	.size	.L.str.13, 13

	.hidden	memp_memory_PBUF_base           @ @memp_memory_PBUF_base
	.type	memp_memory_PBUF_base,%object
	.section	.bss.memp_memory_PBUF_base,"aw",%nobits
	.globl	memp_memory_PBUF_base
memp_memory_PBUF_base:
	.zero	2947
	.size	memp_memory_PBUF_base, 2947

	.type	memp_tab_PBUF,%object           @ @memp_tab_PBUF
	.section	.bss.memp_tab_PBUF,"aw",%nobits
	.p2align	2
memp_tab_PBUF:
	.long	0
	.size	memp_tab_PBUF, 4

	.hidden	memp_PBUF                       @ @memp_PBUF
	.type	memp_PBUF,%object
	.section	.rodata.memp_PBUF,"a",%progbits
	.globl	memp_PBUF
	.p2align	2
memp_PBUF:
	.long	.L.str.13
	.short	48                              @ 0x30
	.short	32                              @ 0x20
	.long	memp_memory_PBUF_base
	.long	memp_tab_PBUF
	.size	memp_PBUF, 16

	.type	.L.str.14,%object               @ @.str.14
	.section	.rodata.str1.1,"aMS",%progbits,1
.L.str.14:
	.asciz	"PBUF_POOL"
	.size	.L.str.14, 10

	.hidden	memp_memory_PBUF_POOL_base      @ @memp_memory_PBUF_POOL_base
	.type	memp_memory_PBUF_POOL_base,%object
	.section	.bss.memp_memory_PBUF_POOL_base,"aw",%nobits
	.globl	memp_memory_PBUF_POOL_base
memp_memory_PBUF_POOL_base:
	.zero	25731
	.size	memp_memory_PBUF_POOL_base, 25731

	.type	memp_tab_PBUF_POOL,%object      @ @memp_tab_PBUF_POOL
	.section	.bss.memp_tab_PBUF_POOL,"aw",%nobits
	.p2align	2
memp_tab_PBUF_POOL:
	.long	0
	.size	memp_tab_PBUF_POOL, 4

	.hidden	memp_PBUF_POOL                  @ @memp_PBUF_POOL
	.type	memp_PBUF_POOL,%object
	.section	.rodata.memp_PBUF_POOL,"a",%progbits
	.globl	memp_PBUF_POOL
	.p2align	2
memp_PBUF_POOL:
	.long	.L.str.14
	.short	1564                            @ 0x61c
	.short	16                              @ 0x10
	.long	memp_memory_PBUF_POOL_base
	.long	memp_tab_PBUF_POOL
	.size	memp_PBUF_POOL, 16

	.hidden	memp_pools                      @ @memp_pools
	.type	memp_pools,%object
	.section	.rodata.memp_pools,"a",%progbits
	.globl	memp_pools
	.p2align	2
memp_pools:
	.long	memp_RAW_PCB
	.long	memp_UDP_PCB
	.long	memp_TCP_PCB
	.long	memp_TCP_PCB_LISTEN
	.long	memp_TCP_SEG
	.long	memp_NETBUF
	.long	memp_NETCONN
	.long	memp_TCPIP_MSG_API
	.long	memp_TCPIP_MSG_INPKT
	.long	memp_ARP_QUEUE
	.long	memp_IGMP_GROUP
	.long	memp_SYS_TIMEOUT
	.long	memp_NETDB
	.long	memp_PBUF
	.long	memp_PBUF_POOL
	.size	memp_pools, 60

	.type	.L.str.15,%object               @ @.str.15
	.section	.rodata.str1.1,"aMS",%progbits,1
.L.str.15:
	.asciz	"invalid pool desc"
	.size	.L.str.15, 18

	.type	.L.str.16,%object               @ @.str.16
.L.str.16:
	.asciz	"rt-thread/components/net/lwip-2.0.2/src/core/memp.c"
	.size	.L.str.16, 52

	.type	.L.str.17,%object               @ @.str.17
.L.str.17:
	.asciz	"memp_malloc: type < MEMP_MAX"
	.size	.L.str.17, 29

	.type	.L.str.18,%object               @ @.str.18
.L.str.18:
	.asciz	"memp_free: type < MEMP_MAX"
	.size	.L.str.18, 27

	.type	.L.str.19,%object               @ @.str.19
.L.str.19:
	.asciz	"memp_malloc: memp properly aligned"
	.size	.L.str.19, 35

	.type	.L__const.memp_overflow_check_element_overflow.errstr,%object @ @__const.memp_overflow_check_element_overflow.errstr
	.section	.rodata..L__const.memp_overflow_check_element_overflow.errstr,"a",%progbits
.L__const.memp_overflow_check_element_overflow.errstr:
	.asciz	"detected memp overflow in pool \000\000\000\000\000\000\000\000\000\000\000\000\000\000\000\000\000\000\000\000\000\000\000\000\000\000\000\000\000\000\000\000\000\000\000\000\000\000\000\000\000\000\000\000\000\000\000\000\000\000\000\000\000\000\000\000\000\000\000\000\000\000\000\000\000\000\000\000\000\000\000\000\000\000\000\000\000\000\000\000\000\000\000\000\000\000\000\000\000\000\000\000\000\000\000\000"
	.size	.L__const.memp_overflow_check_element_overflow.errstr, 128

	.type	.L__const.memp_overflow_check_element_underflow.errstr,%object @ @__const.memp_overflow_check_element_underflow.errstr
	.section	.rodata..L__const.memp_overflow_check_element_underflow.errstr,"a",%progbits
.L__const.memp_overflow_check_element_underflow.errstr:
	.asciz	"detected memp underflow in pool \000\000\000\000\000\000\000\000\000\000\000\000\000\000\000\000\000\000\000\000\000\000\000\000\000\000\000\000\000\000\000\000\000\000\000\000\000\000\000\000\000\000\000\000\000\000\000\000\000\000\000\000\000\000\000\000\000\000\000\000\000\000\000\000\000\000\000\000\000\000\000\000\000\000\000\000\000\000\000\000\000\000\000\000\000\000\000\000\000\000\000\000\000\000\000"
	.size	.L__const.memp_overflow_check_element_underflow.errstr, 128

	.type	.L.str.20,%object               @ @.str.20
	.section	.rodata.str1.1,"aMS",%progbits,1
.L.str.20:
	.asciz	"memp_free: mem properly aligned"
	.size	.L.str.20, 32

	.section	".note.GNU-stack","",%progbits
	.eabi_attribute	30, 6	@ Tag_ABI_optimization_goals
	.ARM_attribute	16, 1	@ Tag_AV_eba