	.text
	.syntax unified
	.eabi_attribute	67, "2.09"	@ Tag_conformance
	.cpu	cortex-m7
	.eabi_attribute	6, 13	@ Tag_CPU_arch
	.eabi_attribute	7, 77	@ Tag_CPU_arch_profile
	.eabi_attribute	8, 0	@ Tag_ARM_ISA_use
	.eabi_attribute	9, 2	@ Tag_THUMB_ISA_use
	.fpu	fpv5-d16
	.eabi_attribute	36, 1	@ Tag_FP_HP_extension
	.eabi_attribute	34, 1	@ Tag_CPU_unaligned_access
	.eabi_attribute	17, 1	@ Tag_ABI_PCS_GOT_use
	.eabi_attribute	20, 2	@ Tag_ABI_FP_denormal
	.eabi_attribute	21, 0	@ Tag_ABI_FP_exceptions
	.eabi_attribute	23, 1	@ Tag_ABI_FP_number_model
	.eabi_attribute	24, 1	@ Tag_ABI_align_needed
	.eabi_attribute	25, 1	@ Tag_ABI_align_preserved
	.eabi_attribute	28, 1	@ Tag_ABI_VFP_args
	.eabi_attribute	38, 1	@ Tag_ABI_FP_16bit_format
	.eabi_attribute	18, 2	@ Tag_ABI_PCS_wchar_t
	.eabi_attribute	26, 1	@ Tag_ABI_enum_size
	.eabi_attribute	14, 0	@ Tag_ABI_PCS_R9_use
	.file	"mmc.c"
	.file	1 "E:\\Smart-access-control\\Hardware\\CODE" "rt-thread/include\\rtdef.h"
	.file	2 "E:\\Smart-access-control\\Hardware\\CODE" "rt-thread/components/drivers/sdio/mmc.c"
	.section	.text.mmc_send_op_cond,"ax",%progbits
	.hidden	mmc_send_op_cond                @ -- Begin function mmc_send_op_cond
	.globl	mmc_send_op_cond
	.p2align	3
	.type	mmc_send_op_cond,%function
	.code	16                              @ @mmc_send_op_cond
	.thumb_func
mmc_send_op_cond:
.Lfunc_begin0:
	.loc	2 366 0                         @ rt-thread/components/drivers/sdio/mmc.c:366:0
	.fnstart
	.cfi_sections .debug_frame
	.cfi_startproc
@ %bb.0:
	.save	{r7, lr}
	push	{r7, lr}
	.cfi_def_cfa_offset 8
	.cfi_offset lr, -4
	.cfi_offset r7, -8
	.pad	#72
	sub	sp, #72
	.cfi_def_cfa_offset 80
	str	r0, [sp, #68]
	str	r1, [sp, #64]
	str	r2, [sp, #60]
	movs	r1, #0
.Ltmp0:
	.loc	2 369 14 prologue_end           @ rt-thread/components/drivers/sdio/mmc.c:369:14
	str	r1, [sp, #8]
	add	r0, sp, #16
	movs	r2, #44
	.loc	2 371 5                         @ rt-thread/components/drivers/sdio/mmc.c:371:5
	bl	rt_memset
	movs	r0, #1
	.loc	2 373 18                        @ rt-thread/components/drivers/sdio/mmc.c:373:18
	str	r0, [sp, #16]
	.loc	2 374 15                        @ rt-thread/components/drivers/sdio/mmc.c:374:15
	ldr	r0, [sp, #68]
	ldrb.w	r0, [r0, #32]
	lsls	r0, r0, #28
	cmp	r0, #0
	bpl	.LBB0_2
	b	.LBB0_1
.LBB0_1:
	.loc	2 0 15 is_stmt 0                @ rt-thread/components/drivers/sdio/mmc.c:0:15
	movs	r0, #0
	.loc	2 374 15                        @ rt-thread/components/drivers/sdio/mmc.c:374:15
	str	r0, [sp, #4]                    @ 4-byte Spill
	b	.LBB0_3
.LBB0_2:
	.loc	2 374 45                        @ rt-thread/components/drivers/sdio/mmc.c:374:45
	ldr	r0, [sp, #64]
	.loc	2 374 15                        @ rt-thread/components/drivers/sdio/mmc.c:374:15
	str	r0, [sp, #4]                    @ 4-byte Spill
	b	.LBB0_3
.LBB0_3:
	ldr	r0, [sp, #4]                    @ 4-byte Reload
	.loc	2 374 13                        @ rt-thread/components/drivers/sdio/mmc.c:374:13
	str	r0, [sp, #20]
	movs	r0, #116
	.loc	2 375 15 is_stmt 1              @ rt-thread/components/drivers/sdio/mmc.c:375:15
	str	r0, [sp, #40]
	movs	r0, #100
.Ltmp1:
	.loc	2 377 12                        @ rt-thread/components/drivers/sdio/mmc.c:377:12
	str	r0, [sp, #12]
	.loc	2 377 10 is_stmt 0              @ rt-thread/components/drivers/sdio/mmc.c:377:10
	b	.LBB0_4
.LBB0_4:                                @ =>This Inner Loop Header: Depth=1
.Ltmp2:
	.loc	2 377 19                        @ rt-thread/components/drivers/sdio/mmc.c:377:19
	ldr	r0, [sp, #12]
.Ltmp3:
	.loc	2 377 5                         @ rt-thread/components/drivers/sdio/mmc.c:377:5
	cbz	r0, .LBB0_18
	b	.LBB0_5
.LBB0_5:                                @   in Loop: Header=BB0_4 Depth=1
.Ltmp4:
	.loc	2 378 28 is_stmt 1              @ rt-thread/components/drivers/sdio/mmc.c:378:28
	ldr	r0, [sp, #68]
	add	r1, sp, #16
	movs	r2, #3
	.loc	2 378 13 is_stmt 0              @ rt-thread/components/drivers/sdio/mmc.c:378:13
	bl	mmcsd_send_cmd
	.loc	2 378 11                        @ rt-thread/components/drivers/sdio/mmc.c:378:11
	str	r0, [sp, #8]
.Ltmp5:
	.loc	2 379 11 is_stmt 1              @ rt-thread/components/drivers/sdio/mmc.c:379:11
	ldr	r0, [sp, #8]
.Ltmp6:
	.loc	2 379 11 is_stmt 0              @ rt-thread/components/drivers/sdio/mmc.c:379:11
	cbz	r0, .LBB0_7
	b	.LBB0_6
.LBB0_6:
.Ltmp7:
	.loc	2 380 9 is_stmt 1               @ rt-thread/components/drivers/sdio/mmc.c:380:9
	b	.LBB0_18
.Ltmp8:
.LBB0_7:                                @   in Loop: Header=BB0_4 Depth=1
	.loc	2 383 11                        @ rt-thread/components/drivers/sdio/mmc.c:383:11
	ldr	r0, [sp, #64]
.Ltmp9:
	.loc	2 383 11 is_stmt 0              @ rt-thread/components/drivers/sdio/mmc.c:383:11
	cbnz	r0, .LBB0_9
	b	.LBB0_8
.LBB0_8:
.Ltmp10:
	.loc	2 384 9 is_stmt 1               @ rt-thread/components/drivers/sdio/mmc.c:384:9
	b	.LBB0_18
.Ltmp11:
.LBB0_9:                                @   in Loop: Header=BB0_4 Depth=1
	.loc	2 387 11                        @ rt-thread/components/drivers/sdio/mmc.c:387:11
	ldr	r0, [sp, #68]
.Ltmp12:
	.loc	2 387 11 is_stmt 0              @ rt-thread/components/drivers/sdio/mmc.c:387:11
	ldrb.w	r0, [r0, #32]
	lsls	r0, r0, #28
	cmp	r0, #0
	bpl	.LBB0_13
	b	.LBB0_10
.LBB0_10:                               @   in Loop: Header=BB0_4 Depth=1
.Ltmp13:
	.loc	2 388 13 is_stmt 1              @ rt-thread/components/drivers/sdio/mmc.c:388:13
	ldrb.w	r0, [sp, #24]
	lsls	r0, r0, #31
	cbnz	r0, .LBB0_12
	b	.LBB0_11
.LBB0_11:
.Ltmp14:
	.loc	2 389 11                        @ rt-thread/components/drivers/sdio/mmc.c:389:11
	b	.LBB0_18
.Ltmp15:
.LBB0_12:                               @   in Loop: Header=BB0_4 Depth=1
	.loc	2 390 7                         @ rt-thread/components/drivers/sdio/mmc.c:390:7
	b	.LBB0_16
.Ltmp16:
.LBB0_13:                               @   in Loop: Header=BB0_4 Depth=1
	.loc	2 391 13                        @ rt-thread/components/drivers/sdio/mmc.c:391:13
	ldrb.w	r0, [sp, #27]
	lsls	r0, r0, #24
	cmp	r0, #0
	bpl	.LBB0_15
	b	.LBB0_14
.LBB0_14:
.Ltmp17:
	.loc	2 392 11                        @ rt-thread/components/drivers/sdio/mmc.c:392:11
	b	.LBB0_18
.Ltmp18:
.LBB0_15:                               @   in Loop: Header=BB0_4 Depth=1
	.loc	2 0 11 is_stmt 0                @ rt-thread/components/drivers/sdio/mmc.c:0:11
	b	.LBB0_16
.LBB0_16:                               @   in Loop: Header=BB0_4 Depth=1
	mvn	r0, #1
	.loc	2 395 11 is_stmt 1              @ rt-thread/components/drivers/sdio/mmc.c:395:11
	str	r0, [sp, #8]
	movs	r0, #10
	.loc	2 397 7                         @ rt-thread/components/drivers/sdio/mmc.c:397:7
	bl	mmcsd_delay_ms
	.loc	2 398 5                         @ rt-thread/components/drivers/sdio/mmc.c:398:5
	b	.LBB0_17
.Ltmp19:
.LBB0_17:                               @   in Loop: Header=BB0_4 Depth=1
	.loc	2 377 23                        @ rt-thread/components/drivers/sdio/mmc.c:377:23
	ldr	r0, [sp, #12]
	subs	r0, #1
	str	r0, [sp, #12]
	.loc	2 377 5 is_stmt 0               @ rt-thread/components/drivers/sdio/mmc.c:377:5
	b	.LBB0_4
.Ltmp20:
.LBB0_18:
	.loc	2 400 7 is_stmt 1               @ rt-thread/components/drivers/sdio/mmc.c:400:7
	ldr	r0, [sp, #60]
	.loc	2 400 12 is_stmt 0              @ rt-thread/components/drivers/sdio/mmc.c:400:12
	cbz	r0, .LBB0_21
	b	.LBB0_19
.LBB0_19:
	.loc	2 400 16                        @ rt-thread/components/drivers/sdio/mmc.c:400:16
	ldr	r0, [sp, #68]
.Ltmp21:
	.loc	2 400 7                         @ rt-thread/components/drivers/sdio/mmc.c:400:7
	ldrb.w	r0, [r0, #32]
	lsls	r0, r0, #28
	cmp	r0, #0
	bmi	.LBB0_21
	b	.LBB0_20
.LBB0_20:
.Ltmp22:
	.loc	2 401 13 is_stmt 1              @ rt-thread/components/drivers/sdio/mmc.c:401:13
	ldr	r0, [sp, #24]
	.loc	2 401 6 is_stmt 0               @ rt-thread/components/drivers/sdio/mmc.c:401:6
	ldr	r1, [sp, #60]
	.loc	2 401 11                        @ rt-thread/components/drivers/sdio/mmc.c:401:11
	str	r0, [r1]
	.loc	2 401 5                         @ rt-thread/components/drivers/sdio/mmc.c:401:5
	b	.LBB0_21
.Ltmp23:
.LBB0_21:
	.loc	2 403 10 is_stmt 1              @ rt-thread/components/drivers/sdio/mmc.c:403:10
	ldr	r0, [sp, #8]
	.loc	2 403 3 is_stmt 0               @ rt-thread/components/drivers/sdio/mmc.c:403:3
	add	sp, #72
	pop	{r7, pc}
.Ltmp24:
.Lfunc_end0:
	.size	mmc_send_op_cond, .Lfunc_end0-mmc_send_op_cond
	.cfi_endproc
	.cantunwind
	.fnend
                                        @ -- End function
	.section	.text.mmcsd_delay_ms,"ax",%progbits
	.p2align	3                               @ -- Begin function mmcsd_delay_ms
	.type	mmcsd_delay_ms,%function
	.code	16                              @ @mmcsd_delay_ms
	.thumb_func
mmcsd_delay_ms:
.Lfunc_begin1:
	.file	3 "E:\\Smart-access-control\\Hardware\\CODE" "rt-thread/components/drivers/include\\drivers/mmcsd_host.h"
	.loc	3 111 0 is_stmt 1               @ rt-thread/components/drivers/include\drivers/mmcsd_host.h:111:0
	.fnstart
	.cfi_startproc
@ %bb.0:
	.save	{r7, lr}
	push	{r7, lr}
	.cfi_def_cfa_offset 8
	.cfi_offset lr, -4
	.cfi_offset r7, -8
	.pad	#8
	sub	sp, #8
	.cfi_def_cfa_offset 16
	str	r0, [sp, #4]
.Ltmp25:
	.loc	3 112 6 prologue_end            @ rt-thread/components/drivers/include\drivers/mmcsd_host.h:112:6
	ldr	r0, [sp, #4]
.Ltmp26:
	.loc	3 112 6 is_stmt 0               @ rt-thread/components/drivers/include\drivers/mmcsd_host.h:112:6
	cbnz	r0, .LBB1_2
	b	.LBB1_1
.LBB1_1:
	.loc	3 0 6                           @ rt-thread/components/drivers/include\drivers/mmcsd_host.h:0:6
	movs	r0, #1
.Ltmp27:
	.loc	3 114 3 is_stmt 1               @ rt-thread/components/drivers/include\drivers/mmcsd_host.h:114:3
	bl	rt_thread_delay
	.loc	3 115 2                         @ rt-thread/components/drivers/include\drivers/mmcsd_host.h:115:2
	b	.LBB1_3
.Ltmp28:
.LBB1_2:
	.loc	3 118 19                        @ rt-thread/components/drivers/include\drivers/mmcsd_host.h:118:19
	ldr	r0, [sp, #4]
	.loc	3 118 3 is_stmt 0               @ rt-thread/components/drivers/include\drivers/mmcsd_host.h:118:3
	bl	rt_thread_delay
	b	.LBB1_3
.Ltmp29:
.LBB1_3:
	.loc	3 120 1 is_stmt 1               @ rt-thread/components/drivers/include\drivers/mmcsd_host.h:120:1
	add	sp, #8
	pop	{r7, pc}
.Ltmp30:
.Lfunc_end1:
	.size	mmcsd_delay_ms, .Lfunc_end1-mmcsd_delay_ms
	.cfi_endproc
	.cantunwind
	.fnend
                                        @ -- End function
	.section	.text.init_mmc,"ax",%progbits
	.hidden	init_mmc                        @ -- Begin function init_mmc
	.globl	init_mmc
	.p2align	3
	.type	init_mmc,%function
	.code	16                              @ @init_mmc
	.thumb_func
init_mmc:
.Lfunc_begin2:
	.loc	2 542 0                         @ rt-thread/components/drivers/sdio/mmc.c:542:0
	.fnstart
	.cfi_startproc
@ %bb.0:
	.save	{r7, lr}
	push	{r7, lr}
	.cfi_def_cfa_offset 8
	.cfi_offset lr, -4
	.cfi_offset r7, -8
	.pad	#24
	sub	sp, #24
	.cfi_def_cfa_offset 32
	str	r0, [sp, #16]
	str	r1, [sp, #12]
.Ltmp31:
	.loc	2 548 9 prologue_end            @ rt-thread/components/drivers/sdio/mmc.c:548:9
	ldr	r0, [sp, #16]
.Ltmp32:
	.loc	2 548 9 is_stmt 0               @ rt-thread/components/drivers/sdio/mmc.c:548:9
	ldrb.w	r0, [r0, #32]
	lsls	r0, r0, #28
	cmp	r0, #0
	bpl	.LBB2_4
	b	.LBB2_1
.LBB2_1:
.Ltmp33:
	.loc	2 550 34 is_stmt 1              @ rt-thread/components/drivers/sdio/mmc.c:550:34
	ldr	r0, [sp, #16]
	movs	r1, #0
	add	r2, sp, #12
	.loc	2 550 15 is_stmt 0              @ rt-thread/components/drivers/sdio/mmc.c:550:15
	bl	mmcsd_spi_read_ocr
	.loc	2 550 13                        @ rt-thread/components/drivers/sdio/mmc.c:550:13
	str	r0, [sp, #8]
.Ltmp34:
	.loc	2 551 13 is_stmt 1              @ rt-thread/components/drivers/sdio/mmc.c:551:13
	ldr	r0, [sp, #8]
.Ltmp35:
	.loc	2 551 13 is_stmt 0              @ rt-thread/components/drivers/sdio/mmc.c:551:13
	cbz	r0, .LBB2_3
	b	.LBB2_2
.LBB2_2:
.Ltmp36:
	.loc	2 552 13 is_stmt 1              @ rt-thread/components/drivers/sdio/mmc.c:552:13
	b	.LBB2_12
.Ltmp37:
.LBB2_3:
	.loc	2 553 5                         @ rt-thread/components/drivers/sdio/mmc.c:553:5
	b	.LBB2_4
.Ltmp38:
.LBB2_4:
	.loc	2 555 40                        @ rt-thread/components/drivers/sdio/mmc.c:555:40
	ldr	r0, [sp, #16]
	.loc	2 555 46 is_stmt 0              @ rt-thread/components/drivers/sdio/mmc.c:555:46
	ldr	r1, [sp, #12]
	.loc	2 555 19                        @ rt-thread/components/drivers/sdio/mmc.c:555:19
	bl	mmcsd_select_voltage
	.loc	2 555 17                        @ rt-thread/components/drivers/sdio/mmc.c:555:17
	str	r0, [sp, #4]
.Ltmp39:
	.loc	2 560 10 is_stmt 1              @ rt-thread/components/drivers/sdio/mmc.c:560:10
	ldr	r0, [sp, #4]
.Ltmp40:
	.loc	2 560 9 is_stmt 0               @ rt-thread/components/drivers/sdio/mmc.c:560:9
	cbnz	r0, .LBB2_6
	b	.LBB2_5
.LBB2_5:
	.loc	2 0 9                           @ rt-thread/components/drivers/sdio/mmc.c:0:9
	mov.w	r0, #-1
.Ltmp41:
	.loc	2 562 13 is_stmt 1              @ rt-thread/components/drivers/sdio/mmc.c:562:13
	str	r0, [sp, #8]
	.loc	2 563 9                         @ rt-thread/components/drivers/sdio/mmc.c:563:9
	b	.LBB2_12
.Ltmp42:
.LBB2_6:
	.loc	2 569 31                        @ rt-thread/components/drivers/sdio/mmc.c:569:31
	ldr	r0, [sp, #16]
	.loc	2 569 37 is_stmt 0              @ rt-thread/components/drivers/sdio/mmc.c:569:37
	ldr	r1, [sp, #4]
	.loc	2 569 11                        @ rt-thread/components/drivers/sdio/mmc.c:569:11
	bl	mmcsd_mmc_init_card
	.loc	2 569 9                         @ rt-thread/components/drivers/sdio/mmc.c:569:9
	str	r0, [sp, #8]
.Ltmp43:
	.loc	2 570 9 is_stmt 1               @ rt-thread/components/drivers/sdio/mmc.c:570:9
	ldr	r0, [sp, #8]
.Ltmp44:
	.loc	2 570 9 is_stmt 0               @ rt-thread/components/drivers/sdio/mmc.c:570:9
	cbz	r0, .LBB2_8
	b	.LBB2_7
.LBB2_7:
.Ltmp45:
	.loc	2 571 9 is_stmt 1               @ rt-thread/components/drivers/sdio/mmc.c:571:9
	b	.LBB2_12
.Ltmp46:
.LBB2_8:
	.loc	2 573 23                        @ rt-thread/components/drivers/sdio/mmc.c:573:23
	ldr	r0, [sp, #16]
	.loc	2 573 5 is_stmt 0               @ rt-thread/components/drivers/sdio/mmc.c:573:5
	bl	mmcsd_host_unlock
	.loc	2 575 30 is_stmt 1              @ rt-thread/components/drivers/sdio/mmc.c:575:30
	ldr	r0, [sp, #16]
	.loc	2 575 36 is_stmt 0              @ rt-thread/components/drivers/sdio/mmc.c:575:36
	ldr	r0, [r0]
	.loc	2 575 11                        @ rt-thread/components/drivers/sdio/mmc.c:575:11
	bl	rt_mmcsd_blk_probe
	.loc	2 575 9                         @ rt-thread/components/drivers/sdio/mmc.c:575:9
	str	r0, [sp, #8]
.Ltmp47:
	.loc	2 576 9 is_stmt 1               @ rt-thread/components/drivers/sdio/mmc.c:576:9
	ldr	r0, [sp, #8]
.Ltmp48:
	.loc	2 576 9 is_stmt 0               @ rt-thread/components/drivers/sdio/mmc.c:576:9
	cbz	r0, .LBB2_10
	b	.LBB2_9
.LBB2_9:
.Ltmp49:
	.loc	2 577 9 is_stmt 1               @ rt-thread/components/drivers/sdio/mmc.c:577:9
	b	.LBB2_11
.Ltmp50:
.LBB2_10:
	.loc	2 578 21                        @ rt-thread/components/drivers/sdio/mmc.c:578:21
	ldr	r0, [sp, #16]
	.loc	2 578 5 is_stmt 0               @ rt-thread/components/drivers/sdio/mmc.c:578:5
	bl	mmcsd_host_lock
	movs	r0, #0
	.loc	2 580 5 is_stmt 1               @ rt-thread/components/drivers/sdio/mmc.c:580:5
	str	r0, [sp, #20]
	b	.LBB2_15
.LBB2_11:
.Ltmp51:
	@DEBUG_LABEL: init_mmc:remove_card
	.loc	2 583 21                        @ rt-thread/components/drivers/sdio/mmc.c:583:21
	ldr	r0, [sp, #16]
	.loc	2 583 5 is_stmt 0               @ rt-thread/components/drivers/sdio/mmc.c:583:5
	bl	mmcsd_host_lock
	.loc	2 584 25 is_stmt 1              @ rt-thread/components/drivers/sdio/mmc.c:584:25
	ldr	r0, [sp, #16]
	.loc	2 584 31 is_stmt 0              @ rt-thread/components/drivers/sdio/mmc.c:584:31
	ldr	r0, [r0]
	.loc	2 584 5                         @ rt-thread/components/drivers/sdio/mmc.c:584:5
	bl	rt_mmcsd_blk_remove
	.loc	2 585 13 is_stmt 1              @ rt-thread/components/drivers/sdio/mmc.c:585:13
	ldr	r0, [sp, #16]
	.loc	2 585 19 is_stmt 0              @ rt-thread/components/drivers/sdio/mmc.c:585:19
	ldr	r0, [r0]
	.loc	2 585 5                         @ rt-thread/components/drivers/sdio/mmc.c:585:5
	bl	rt_free
	.loc	2 586 5 is_stmt 1               @ rt-thread/components/drivers/sdio/mmc.c:586:5
	ldr	r1, [sp, #16]
	movs	r0, #0
	.loc	2 586 16 is_stmt 0              @ rt-thread/components/drivers/sdio/mmc.c:586:16
	str	r0, [r1]
	.loc	2 586 5                         @ rt-thread/components/drivers/sdio/mmc.c:586:5
	b	.LBB2_12
.LBB2_12:
.Ltmp52:
	@DEBUG_LABEL: init_mmc:err
	.loc	2 589 5 is_stmt 1               @ rt-thread/components/drivers/sdio/mmc.c:589:5
	b	.LBB2_13
.LBB2_13:
.Ltmp53:
	.loc	2 589 5 is_stmt 0               @ rt-thread/components/drivers/sdio/mmc.c:589:5
	movw	r0, :lower16:.L.str
	movt	r0, :upper16:.L.str
	bl	rt_kprintf
	movw	r0, :lower16:.L.str.1
	movt	r0, :upper16:.L.str.1
	bl	rt_kprintf
	movw	r0, :lower16:.L.str.2
	movt	r0, :upper16:.L.str.2
	bl	rt_kprintf
	b	.LBB2_14
.Ltmp54:
.LBB2_14:
	.loc	2 591 12 is_stmt 1              @ rt-thread/components/drivers/sdio/mmc.c:591:12
	ldr	r0, [sp, #8]
	.loc	2 591 5 is_stmt 0               @ rt-thread/components/drivers/sdio/mmc.c:591:5
	str	r0, [sp, #20]
	b	.LBB2_15
.LBB2_15:
	.loc	2 592 1 is_stmt 1               @ rt-thread/components/drivers/sdio/mmc.c:592:1
	ldr	r0, [sp, #20]
	add	sp, #24
	pop	{r7, pc}
.Ltmp55:
.Lfunc_end2:
	.size	init_mmc, .Lfunc_end2-init_mmc
	.cfi_endproc
	.cantunwind
	.fnend
                                        @ -- End function
	.section	.text.mmcsd_mmc_init_card,"ax",%progbits
	.p2align	3                               @ -- Begin function mmcsd_mmc_init_card
	.type	mmcsd_mmc_init_card,%function
	.code	16                              @ @mmcsd_mmc_init_card
	.thumb_func
mmcsd_mmc_init_card:
.Lfunc_begin3:
	.loc	2 426 0                         @ rt-thread/components/drivers/sdio/mmc.c:426:0
	.fnstart
	.cfi_startproc
@ %bb.0:
	.save	{r7, lr}
	push	{r7, lr}
	.cfi_def_cfa_offset 8
	.cfi_offset lr, -4
	.cfi_offset r7, -8
	.pad	#56
	sub	sp, #56
	.cfi_def_cfa_offset 64
	str	r0, [sp, #48]
	str	r1, [sp, #44]
	movs	r0, #0
.Ltmp56:
	.loc	2 429 17 prologue_end           @ rt-thread/components/drivers/sdio/mmc.c:429:17
	str	r0, [sp, #20]
	.loc	2 431 17                        @ rt-thread/components/drivers/sdio/mmc.c:431:17
	str	r0, [sp, #12]
	.loc	2 432 27                        @ rt-thread/components/drivers/sdio/mmc.c:432:27
	str	r0, [sp, #8]
	.loc	2 434 19                        @ rt-thread/components/drivers/sdio/mmc.c:434:19
	ldr	r0, [sp, #48]
	.loc	2 434 5 is_stmt 0               @ rt-thread/components/drivers/sdio/mmc.c:434:5
	bl	mmcsd_go_idle
	.loc	2 437 28 is_stmt 1              @ rt-thread/components/drivers/sdio/mmc.c:437:28
	ldr	r0, [sp, #48]
	.loc	2 437 34 is_stmt 0              @ rt-thread/components/drivers/sdio/mmc.c:437:34
	ldr	r1, [sp, #44]
	.loc	2 437 38                        @ rt-thread/components/drivers/sdio/mmc.c:437:38
	orr	r1, r1, #1073741824
	add	r2, sp, #20
	.loc	2 437 11                        @ rt-thread/components/drivers/sdio/mmc.c:437:11
	bl	mmc_send_op_cond
	.loc	2 437 9                         @ rt-thread/components/drivers/sdio/mmc.c:437:9
	str	r0, [sp, #40]
.Ltmp57:
	.loc	2 438 9 is_stmt 1               @ rt-thread/components/drivers/sdio/mmc.c:438:9
	ldr	r0, [sp, #40]
.Ltmp58:
	.loc	2 438 9 is_stmt 0               @ rt-thread/components/drivers/sdio/mmc.c:438:9
	cbz	r0, .LBB3_2
	b	.LBB3_1
.LBB3_1:
.Ltmp59:
	.loc	2 439 7 is_stmt 1               @ rt-thread/components/drivers/sdio/mmc.c:439:7
	b	.LBB3_39
.Ltmp60:
.LBB3_2:
	.loc	2 441 9                         @ rt-thread/components/drivers/sdio/mmc.c:441:9
	ldr	r0, [sp, #48]
.Ltmp61:
	.loc	2 441 9 is_stmt 0               @ rt-thread/components/drivers/sdio/mmc.c:441:9
	ldrb.w	r0, [r0, #32]
	lsls	r0, r0, #28
	cmp	r0, #0
	bpl	.LBB3_6
	b	.LBB3_3
.LBB3_3:
.Ltmp62:
	.loc	2 443 33 is_stmt 1              @ rt-thread/components/drivers/sdio/mmc.c:443:33
	ldr	r0, [sp, #48]
	movs	r1, #1
	.loc	2 443 15 is_stmt 0              @ rt-thread/components/drivers/sdio/mmc.c:443:15
	bl	mmcsd_spi_use_crc
	.loc	2 443 13                        @ rt-thread/components/drivers/sdio/mmc.c:443:13
	str	r0, [sp, #40]
.Ltmp63:
	.loc	2 444 13 is_stmt 1              @ rt-thread/components/drivers/sdio/mmc.c:444:13
	ldr	r0, [sp, #40]
.Ltmp64:
	.loc	2 444 13 is_stmt 0              @ rt-thread/components/drivers/sdio/mmc.c:444:13
	cbz	r0, .LBB3_5
	b	.LBB3_4
.LBB3_4:
.Ltmp65:
	.loc	2 445 13 is_stmt 1              @ rt-thread/components/drivers/sdio/mmc.c:445:13
	b	.LBB3_38
.Ltmp66:
.LBB3_5:
	.loc	2 446 5                         @ rt-thread/components/drivers/sdio/mmc.c:446:5
	b	.LBB3_6
.Ltmp67:
.LBB3_6:
	.loc	2 448 9                         @ rt-thread/components/drivers/sdio/mmc.c:448:9
	ldr	r0, [sp, #48]
.Ltmp68:
	.loc	2 448 9 is_stmt 0               @ rt-thread/components/drivers/sdio/mmc.c:448:9
	ldrb.w	r0, [r0, #32]
	lsls	r0, r0, #28
	cmp	r0, #0
	bpl	.LBB3_8
	b	.LBB3_7
.LBB3_7:
.Ltmp69:
	.loc	2 449 29 is_stmt 1              @ rt-thread/components/drivers/sdio/mmc.c:449:29
	ldr	r0, [sp, #48]
	add	r1, sp, #24
	.loc	2 449 15 is_stmt 0              @ rt-thread/components/drivers/sdio/mmc.c:449:15
	bl	mmcsd_get_cid
	.loc	2 449 13                        @ rt-thread/components/drivers/sdio/mmc.c:449:13
	str	r0, [sp, #40]
	.loc	2 449 9                         @ rt-thread/components/drivers/sdio/mmc.c:449:9
	b	.LBB3_9
.LBB3_8:
	.loc	2 451 33 is_stmt 1              @ rt-thread/components/drivers/sdio/mmc.c:451:33
	ldr	r0, [sp, #48]
	add	r1, sp, #24
	.loc	2 451 15 is_stmt 0              @ rt-thread/components/drivers/sdio/mmc.c:451:15
	bl	mmcsd_all_get_cid
	.loc	2 451 13                        @ rt-thread/components/drivers/sdio/mmc.c:451:13
	str	r0, [sp, #40]
	b	.LBB3_9
.Ltmp70:
.LBB3_9:
	.loc	2 452 9 is_stmt 1               @ rt-thread/components/drivers/sdio/mmc.c:452:9
	ldr	r0, [sp, #40]
.Ltmp71:
	.loc	2 452 9 is_stmt 0               @ rt-thread/components/drivers/sdio/mmc.c:452:9
	cbz	r0, .LBB3_11
	b	.LBB3_10
.LBB3_10:
.Ltmp72:
	.loc	2 453 9 is_stmt 1               @ rt-thread/components/drivers/sdio/mmc.c:453:9
	b	.LBB3_39
.Ltmp73:
.LBB3_11:
	.loc	2 0 9 is_stmt 0                 @ rt-thread/components/drivers/sdio/mmc.c:0:9
	movs	r0, #156
	.loc	2 455 12 is_stmt 1              @ rt-thread/components/drivers/sdio/mmc.c:455:12
	bl	rt_malloc
	.loc	2 455 10 is_stmt 0              @ rt-thread/components/drivers/sdio/mmc.c:455:10
	str	r0, [sp, #8]
.Ltmp74:
	.loc	2 456 10 is_stmt 1              @ rt-thread/components/drivers/sdio/mmc.c:456:10
	ldr	r0, [sp, #8]
.Ltmp75:
	.loc	2 456 9 is_stmt 0               @ rt-thread/components/drivers/sdio/mmc.c:456:9
	cbnz	r0, .LBB3_15
	b	.LBB3_12
.LBB3_12:
.Ltmp76:
	.loc	2 458 9 is_stmt 1               @ rt-thread/components/drivers/sdio/mmc.c:458:9
	b	.LBB3_13
.LBB3_13:
.Ltmp77:
	.loc	2 458 9 is_stmt 0               @ rt-thread/components/drivers/sdio/mmc.c:458:9
	movw	r0, :lower16:.L.str
	movt	r0, :upper16:.L.str
	bl	rt_kprintf
	movw	r0, :lower16:.L.str.3
	movt	r0, :upper16:.L.str.3
	bl	rt_kprintf
	movw	r0, :lower16:.L.str.2
	movt	r0, :upper16:.L.str.2
	bl	rt_kprintf
	b	.LBB3_14
.Ltmp78:
.LBB3_14:
	.loc	2 0 9                           @ rt-thread/components/drivers/sdio/mmc.c:0:9
	mvn	r0, #4
	.loc	2 459 13 is_stmt 1              @ rt-thread/components/drivers/sdio/mmc.c:459:13
	str	r0, [sp, #40]
	.loc	2 460 9                         @ rt-thread/components/drivers/sdio/mmc.c:460:9
	b	.LBB3_39
.Ltmp79:
.LBB3_15:
	.loc	2 462 15                        @ rt-thread/components/drivers/sdio/mmc.c:462:15
	ldr	r0, [sp, #8]
	movs	r1, #0
	str	r1, [sp, #4]                    @ 4-byte Spill
	movs	r2, #156
	.loc	2 462 5 is_stmt 0               @ rt-thread/components/drivers/sdio/mmc.c:462:5
	bl	rt_memset
                                        @ kill: def $r1 killed $r0
	.loc	2 464 5 is_stmt 1               @ rt-thread/components/drivers/sdio/mmc.c:464:5
	ldr	r0, [sp, #4]                    @ 4-byte Reload
	ldr	r1, [sp, #8]
	.loc	2 464 21 is_stmt 0              @ rt-thread/components/drivers/sdio/mmc.c:464:21
	strh.w	r0, [r1, #72]
	.loc	2 465 18 is_stmt 1              @ rt-thread/components/drivers/sdio/mmc.c:465:18
	ldr	r0, [sp, #48]
	.loc	2 465 5 is_stmt 0               @ rt-thread/components/drivers/sdio/mmc.c:465:5
	ldr	r1, [sp, #8]
	.loc	2 465 16                        @ rt-thread/components/drivers/sdio/mmc.c:465:16
	str	r0, [r1]
	.loc	2 466 5 is_stmt 1               @ rt-thread/components/drivers/sdio/mmc.c:466:5
	ldr	r1, [sp, #8]
	movs	r0, #1
	.loc	2 466 15 is_stmt 0              @ rt-thread/components/drivers/sdio/mmc.c:466:15
	str	r0, [r1, #4]
	.loc	2 467 15 is_stmt 1              @ rt-thread/components/drivers/sdio/mmc.c:467:15
	ldr	r0, [sp, #8]
	.loc	2 467 21 is_stmt 0              @ rt-thread/components/drivers/sdio/mmc.c:467:21
	adds	r0, #8
	add	r1, sp, #24
	movs	r2, #16
	.loc	2 467 5                         @ rt-thread/components/drivers/sdio/mmc.c:467:5
	bl	rt_memcpy
.Ltmp80:
	.loc	2 472 10 is_stmt 1              @ rt-thread/components/drivers/sdio/mmc.c:472:10
	ldr	r0, [sp, #48]
.Ltmp81:
	.loc	2 472 9 is_stmt 0               @ rt-thread/components/drivers/sdio/mmc.c:472:9
	ldrb.w	r0, [r0, #32]
	lsls	r0, r0, #28
	cmp	r0, #0
	bmi	.LBB3_19
	b	.LBB3_16
.LBB3_16:
.Ltmp82:
	.loc	2 474 33 is_stmt 1              @ rt-thread/components/drivers/sdio/mmc.c:474:33
	ldr	r0, [sp, #48]
	.loc	2 474 39 is_stmt 0              @ rt-thread/components/drivers/sdio/mmc.c:474:39
	ldr	r1, [sp, #8]
	.loc	2 474 45                        @ rt-thread/components/drivers/sdio/mmc.c:474:45
	ldr	r1, [r1, #4]
	.loc	2 474 15                        @ rt-thread/components/drivers/sdio/mmc.c:474:15
	bl	mmc_set_card_addr
	.loc	2 474 13                        @ rt-thread/components/drivers/sdio/mmc.c:474:13
	str	r0, [sp, #40]
.Ltmp83:
	.loc	2 475 13 is_stmt 1              @ rt-thread/components/drivers/sdio/mmc.c:475:13
	ldr	r0, [sp, #40]
.Ltmp84:
	.loc	2 475 13 is_stmt 0              @ rt-thread/components/drivers/sdio/mmc.c:475:13
	cbz	r0, .LBB3_18
	b	.LBB3_17
.LBB3_17:
.Ltmp85:
	.loc	2 476 13 is_stmt 1              @ rt-thread/components/drivers/sdio/mmc.c:476:13
	b	.LBB3_38
.Ltmp86:
.LBB3_18:
	.loc	2 478 28                        @ rt-thread/components/drivers/sdio/mmc.c:478:28
	ldr	r0, [sp, #48]
	movs	r1, #2
	.loc	2 478 9 is_stmt 0               @ rt-thread/components/drivers/sdio/mmc.c:478:9
	bl	mmcsd_set_bus_mode
	.loc	2 479 5 is_stmt 1               @ rt-thread/components/drivers/sdio/mmc.c:479:5
	b	.LBB3_19
.Ltmp87:
.LBB3_19:
	.loc	2 481 25                        @ rt-thread/components/drivers/sdio/mmc.c:481:25
	ldr	r0, [sp, #8]
	.loc	2 481 37 is_stmt 0              @ rt-thread/components/drivers/sdio/mmc.c:481:37
	add.w	r1, r0, #24
	.loc	2 481 11                        @ rt-thread/components/drivers/sdio/mmc.c:481:11
	bl	mmcsd_get_csd
	.loc	2 481 9                         @ rt-thread/components/drivers/sdio/mmc.c:481:9
	str	r0, [sp, #40]
.Ltmp88:
	.loc	2 482 9 is_stmt 1               @ rt-thread/components/drivers/sdio/mmc.c:482:9
	ldr	r0, [sp, #40]
.Ltmp89:
	.loc	2 482 9 is_stmt 0               @ rt-thread/components/drivers/sdio/mmc.c:482:9
	cbz	r0, .LBB3_21
	b	.LBB3_20
.LBB3_20:
.Ltmp90:
	.loc	2 483 9 is_stmt 1               @ rt-thread/components/drivers/sdio/mmc.c:483:9
	b	.LBB3_38
.Ltmp91:
.LBB3_21:
	.loc	2 485 27                        @ rt-thread/components/drivers/sdio/mmc.c:485:27
	ldr	r0, [sp, #8]
	.loc	2 485 11 is_stmt 0              @ rt-thread/components/drivers/sdio/mmc.c:485:11
	bl	mmcsd_parse_csd
	.loc	2 485 9                         @ rt-thread/components/drivers/sdio/mmc.c:485:9
	str	r0, [sp, #40]
.Ltmp92:
	.loc	2 486 9 is_stmt 1               @ rt-thread/components/drivers/sdio/mmc.c:486:9
	ldr	r0, [sp, #40]
.Ltmp93:
	.loc	2 486 9 is_stmt 0               @ rt-thread/components/drivers/sdio/mmc.c:486:9
	cbz	r0, .LBB3_23
	b	.LBB3_22
.LBB3_22:
.Ltmp94:
	.loc	2 487 9 is_stmt 1               @ rt-thread/components/drivers/sdio/mmc.c:487:9
	b	.LBB3_38
.Ltmp95:
.LBB3_23:
	.loc	2 489 10                        @ rt-thread/components/drivers/sdio/mmc.c:489:10
	ldr	r0, [sp, #48]
.Ltmp96:
	.loc	2 489 9 is_stmt 0               @ rt-thread/components/drivers/sdio/mmc.c:489:9
	ldrb.w	r0, [r0, #32]
	lsls	r0, r0, #28
	cmp	r0, #0
	bmi	.LBB3_27
	b	.LBB3_24
.LBB3_24:
.Ltmp97:
	.loc	2 491 33 is_stmt 1              @ rt-thread/components/drivers/sdio/mmc.c:491:33
	ldr	r0, [sp, #8]
	.loc	2 491 15 is_stmt 0              @ rt-thread/components/drivers/sdio/mmc.c:491:15
	bl	mmcsd_select_card
	.loc	2 491 13                        @ rt-thread/components/drivers/sdio/mmc.c:491:13
	str	r0, [sp, #40]
.Ltmp98:
	.loc	2 492 13 is_stmt 1              @ rt-thread/components/drivers/sdio/mmc.c:492:13
	ldr	r0, [sp, #40]
.Ltmp99:
	.loc	2 492 13 is_stmt 0              @ rt-thread/components/drivers/sdio/mmc.c:492:13
	cbz	r0, .LBB3_26
	b	.LBB3_25
.LBB3_25:
.Ltmp100:
	.loc	2 493 13 is_stmt 1              @ rt-thread/components/drivers/sdio/mmc.c:493:13
	b	.LBB3_38
.Ltmp101:
.LBB3_26:
	.loc	2 494 5                         @ rt-thread/components/drivers/sdio/mmc.c:494:5
	b	.LBB3_27
.Ltmp102:
.LBB3_27:
	.loc	2 500 27                        @ rt-thread/components/drivers/sdio/mmc.c:500:27
	ldr	r0, [sp, #8]
	add	r1, sp, #12
	.loc	2 500 11 is_stmt 0              @ rt-thread/components/drivers/sdio/mmc.c:500:11
	bl	mmc_get_ext_csd
	.loc	2 500 9                         @ rt-thread/components/drivers/sdio/mmc.c:500:9
	str	r0, [sp, #40]
.Ltmp103:
	.loc	2 501 9 is_stmt 1               @ rt-thread/components/drivers/sdio/mmc.c:501:9
	ldr	r0, [sp, #40]
.Ltmp104:
	.loc	2 501 9 is_stmt 0               @ rt-thread/components/drivers/sdio/mmc.c:501:9
	cbz	r0, .LBB3_29
	b	.LBB3_28
.LBB3_28:
.Ltmp105:
	.loc	2 502 7 is_stmt 1               @ rt-thread/components/drivers/sdio/mmc.c:502:7
	b	.LBB3_38
.Ltmp106:
.LBB3_29:
	.loc	2 503 29                        @ rt-thread/components/drivers/sdio/mmc.c:503:29
	ldr	r0, [sp, #8]
	.loc	2 503 35 is_stmt 0              @ rt-thread/components/drivers/sdio/mmc.c:503:35
	ldr	r1, [sp, #12]
	.loc	2 503 11                        @ rt-thread/components/drivers/sdio/mmc.c:503:11
	bl	mmc_parse_ext_csd
	.loc	2 503 9                         @ rt-thread/components/drivers/sdio/mmc.c:503:9
	str	r0, [sp, #40]
.Ltmp107:
	.loc	2 504 9 is_stmt 1               @ rt-thread/components/drivers/sdio/mmc.c:504:9
	ldr	r0, [sp, #40]
.Ltmp108:
	.loc	2 504 9 is_stmt 0               @ rt-thread/components/drivers/sdio/mmc.c:504:9
	cbz	r0, .LBB3_31
	b	.LBB3_30
.LBB3_30:
.Ltmp109:
	.loc	2 505 7 is_stmt 1               @ rt-thread/components/drivers/sdio/mmc.c:505:7
	b	.LBB3_38
.Ltmp110:
.LBB3_31:
	.loc	2 512 11                        @ rt-thread/components/drivers/sdio/mmc.c:512:11
	ldr	r0, [sp, #8]
	ldrh.w	r0, [r0, #74]
	.loc	2 512 41 is_stmt 0              @ rt-thread/components/drivers/sdio/mmc.c:512:41
	lsls	r0, r0, #30
	cmp	r0, #0
	bmi	.LBB3_34
	b	.LBB3_32
.Ltmp111:
.LBB3_32:
	.loc	2 512 9                         @ rt-thread/components/drivers/sdio/mmc.c:512:9
	ldrb.w	r0, [sp, #23]
	lsls	r0, r0, #25
	cmp	r0, #0
	bpl	.LBB3_34
	b	.LBB3_33
.LBB3_33:
.Ltmp112:
	.loc	2 513 9 is_stmt 1               @ rt-thread/components/drivers/sdio/mmc.c:513:9
	ldr	r1, [sp, #8]
	.loc	2 513 21 is_stmt 0              @ rt-thread/components/drivers/sdio/mmc.c:513:21
	ldrh.w	r0, [r1, #74]
	orr	r0, r0, #2
	strh.w	r0, [r1, #74]
	.loc	2 513 9                         @ rt-thread/components/drivers/sdio/mmc.c:513:9
	b	.LBB3_34
.Ltmp113:
.LBB3_34:
	.loc	2 516 9 is_stmt 1               @ rt-thread/components/drivers/sdio/mmc.c:516:9
	ldr	r0, [sp, #8]
	ldrh.w	r0, [r0, #74]
.Ltmp114:
	.loc	2 516 9 is_stmt 0               @ rt-thread/components/drivers/sdio/mmc.c:516:9
	lsls	r0, r0, #31
	cbz	r0, .LBB3_36
	b	.LBB3_35
.LBB3_35:
.Ltmp115:
	.loc	2 517 25 is_stmt 1              @ rt-thread/components/drivers/sdio/mmc.c:517:25
	ldr	r0, [sp, #8]
	.loc	2 517 31 is_stmt 0              @ rt-thread/components/drivers/sdio/mmc.c:517:31
	ldr	r0, [r0, #100]
	.loc	2 517 23                        @ rt-thread/components/drivers/sdio/mmc.c:517:23
	str	r0, [sp, #16]
	.loc	2 517 9                         @ rt-thread/components/drivers/sdio/mmc.c:517:9
	b	.LBB3_37
.LBB3_36:
	.loc	2 519 25 is_stmt 1              @ rt-thread/components/drivers/sdio/mmc.c:519:25
	ldr	r0, [sp, #8]
	.loc	2 519 31 is_stmt 0              @ rt-thread/components/drivers/sdio/mmc.c:519:31
	ldr	r0, [r0, #56]
	.loc	2 519 23                        @ rt-thread/components/drivers/sdio/mmc.c:519:23
	str	r0, [sp, #16]
	b	.LBB3_37
.Ltmp116:
.LBB3_37:
	.loc	2 521 21 is_stmt 1              @ rt-thread/components/drivers/sdio/mmc.c:521:21
	ldr	r0, [sp, #48]
	.loc	2 521 27 is_stmt 0              @ rt-thread/components/drivers/sdio/mmc.c:521:27
	ldr	r1, [sp, #16]
	.loc	2 521 5                         @ rt-thread/components/drivers/sdio/mmc.c:521:5
	bl	mmcsd_set_clock
	.loc	2 524 26 is_stmt 1              @ rt-thread/components/drivers/sdio/mmc.c:524:26
	ldr	r0, [sp, #8]
	.loc	2 524 32 is_stmt 0              @ rt-thread/components/drivers/sdio/mmc.c:524:32
	ldr	r1, [sp, #12]
	.loc	2 524 5                         @ rt-thread/components/drivers/sdio/mmc.c:524:5
	bl	mmc_select_bus_width
	.loc	2 526 18 is_stmt 1              @ rt-thread/components/drivers/sdio/mmc.c:526:18
	ldr	r0, [sp, #8]
	.loc	2 526 5 is_stmt 0               @ rt-thread/components/drivers/sdio/mmc.c:526:5
	ldr	r1, [sp, #48]
	.loc	2 526 16                        @ rt-thread/components/drivers/sdio/mmc.c:526:16
	str	r0, [r1]
	.loc	2 528 13 is_stmt 1              @ rt-thread/components/drivers/sdio/mmc.c:528:13
	ldr	r0, [sp, #12]
	.loc	2 528 5 is_stmt 0               @ rt-thread/components/drivers/sdio/mmc.c:528:5
	bl	rt_free
	movs	r0, #0
	.loc	2 529 5 is_stmt 1               @ rt-thread/components/drivers/sdio/mmc.c:529:5
	str	r0, [sp, #52]
	b	.LBB3_40
.LBB3_38:
.Ltmp117:
	@DEBUG_LABEL: mmcsd_mmc_init_card:err1
	.loc	2 532 13                        @ rt-thread/components/drivers/sdio/mmc.c:532:13
	ldr	r0, [sp, #8]
	.loc	2 532 5 is_stmt 0               @ rt-thread/components/drivers/sdio/mmc.c:532:5
	bl	rt_free
	b	.LBB3_39
.LBB3_39:
.Ltmp118:
	@DEBUG_LABEL: mmcsd_mmc_init_card:err
	.loc	2 535 12 is_stmt 1              @ rt-thread/components/drivers/sdio/mmc.c:535:12
	ldr	r0, [sp, #40]
	.loc	2 535 5 is_stmt 0               @ rt-thread/components/drivers/sdio/mmc.c:535:5
	str	r0, [sp, #52]
	b	.LBB3_40
.LBB3_40:
	.loc	2 536 1 is_stmt 1               @ rt-thread/components/drivers/sdio/mmc.c:536:1
	ldr	r0, [sp, #52]
	add	sp, #56
	pop	{r7, pc}
.Ltmp119:
.Lfunc_end3:
	.size	mmcsd_mmc_init_card, .Lfunc_end3-mmcsd_mmc_init_card
	.cfi_endproc
	.cantunwind
	.fnend
                                        @ -- End function
	.section	.text.mmc_set_card_addr,"ax",%progbits
	.p2align	3                               @ -- Begin function mmc_set_card_addr
	.type	mmc_set_card_addr,%function
	.code	16                              @ @mmc_set_card_addr
	.thumb_func
mmc_set_card_addr:
.Lfunc_begin4:
	.loc	2 407 0                         @ rt-thread/components/drivers/sdio/mmc.c:407:0
	.fnstart
	.cfi_startproc
@ %bb.0:
	.save	{r7, lr}
	push	{r7, lr}
	.cfi_def_cfa_offset 8
	.cfi_offset lr, -4
	.cfi_offset r7, -8
	.pad	#64
	sub	sp, #64
	.cfi_def_cfa_offset 72
	str	r0, [sp, #56]
	str	r1, [sp, #52]
	add	r0, sp, #4
	str	r0, [sp]                        @ 4-byte Spill
	movs	r1, #0
	movs	r2, #44
.Ltmp120:
	.loc	2 411 3 prologue_end            @ rt-thread/components/drivers/sdio/mmc.c:411:3
	bl	rt_memset
	ldr	r1, [sp]                        @ 4-byte Reload
	movs	r2, #3
	.loc	2 413 16                        @ rt-thread/components/drivers/sdio/mmc.c:413:16
	str	r2, [sp, #4]
	.loc	2 414 13                        @ rt-thread/components/drivers/sdio/mmc.c:414:13
	ldr	r0, [sp, #52]
	.loc	2 414 17 is_stmt 0              @ rt-thread/components/drivers/sdio/mmc.c:414:17
	lsls	r0, r0, #16
	.loc	2 414 11                        @ rt-thread/components/drivers/sdio/mmc.c:414:11
	str	r0, [sp, #8]
	movs	r0, #1
	.loc	2 415 13 is_stmt 1              @ rt-thread/components/drivers/sdio/mmc.c:415:13
	str	r0, [sp, #28]
	.loc	2 417 24                        @ rt-thread/components/drivers/sdio/mmc.c:417:24
	ldr	r0, [sp, #56]
	.loc	2 417 9 is_stmt 0               @ rt-thread/components/drivers/sdio/mmc.c:417:9
	bl	mmcsd_send_cmd
	.loc	2 417 7                         @ rt-thread/components/drivers/sdio/mmc.c:417:7
	str	r0, [sp, #48]
.Ltmp121:
	.loc	2 418 7 is_stmt 1               @ rt-thread/components/drivers/sdio/mmc.c:418:7
	ldr	r0, [sp, #48]
.Ltmp122:
	.loc	2 418 7 is_stmt 0               @ rt-thread/components/drivers/sdio/mmc.c:418:7
	cbz	r0, .LBB4_2
	b	.LBB4_1
.LBB4_1:
.Ltmp123:
	.loc	2 419 12 is_stmt 1              @ rt-thread/components/drivers/sdio/mmc.c:419:12
	ldr	r0, [sp, #48]
	.loc	2 419 5 is_stmt 0               @ rt-thread/components/drivers/sdio/mmc.c:419:5
	str	r0, [sp, #60]
	b	.LBB4_3
.Ltmp124:
.LBB4_2:
	.loc	2 0 5                           @ rt-thread/components/drivers/sdio/mmc.c:0:5
	movs	r0, #0
	.loc	2 421 3 is_stmt 1               @ rt-thread/components/drivers/sdio/mmc.c:421:3
	str	r0, [sp, #60]
	b	.LBB4_3
.LBB4_3:
	.loc	2 422 1                         @ rt-thread/components/drivers/sdio/mmc.c:422:1
	ldr	r0, [sp, #60]
	add	sp, #64
	pop	{r7, pc}
.Ltmp125:
.Lfunc_end4:
	.size	mmc_set_card_addr, .Lfunc_end4-mmc_set_card_addr
	.cfi_endproc
	.cantunwind
	.fnend
                                        @ -- End function
	.section	.text.mmcsd_parse_csd,"ax",%progbits
	.p2align	3                               @ -- Begin function mmcsd_parse_csd
	.type	mmcsd_parse_csd,%function
	.code	16                              @ @mmcsd_parse_csd
	.thumb_func
mmcsd_parse_csd:
.Lfunc_begin5:
	.loc	2 66 0                          @ rt-thread/components/drivers/sdio/mmc.c:66:0
	.fnstart
	.cfi_startproc
@ %bb.0:
	.save	{r7, lr}
	push	{r7, lr}
	.cfi_def_cfa_offset 8
	.cfi_offset lr, -4
	.cfi_offset r7, -8
	.pad	#48
	sub	sp, #48
	.cfi_def_cfa_offset 56
	str	r0, [sp, #40]
.Ltmp126:
	.loc	2 68 35 prologue_end            @ rt-thread/components/drivers/sdio/mmc.c:68:35
	ldr	r0, [sp, #40]
	.loc	2 68 41 is_stmt 0               @ rt-thread/components/drivers/sdio/mmc.c:68:41
	adds	r0, #80
	.loc	2 68 28                         @ rt-thread/components/drivers/sdio/mmc.c:68:28
	str	r0, [sp, #28]
	.loc	2 69 27 is_stmt 1               @ rt-thread/components/drivers/sdio/mmc.c:69:27
	ldr	r0, [sp, #40]
	.loc	2 69 33 is_stmt 0               @ rt-thread/components/drivers/sdio/mmc.c:69:33
	adds	r0, #24
	.loc	2 69 20                         @ rt-thread/components/drivers/sdio/mmc.c:69:20
	str	r0, [sp, #24]
	.loc	2 76 37 is_stmt 1               @ rt-thread/components/drivers/sdio/mmc.c:76:37
	ldr	r0, [sp, #24]
	movs	r1, #126
	movs	r2, #2
	.loc	2 76 28 is_stmt 0               @ rt-thread/components/drivers/sdio/mmc.c:76:28
	bl	GET_BITS
	.loc	2 76 7                          @ rt-thread/components/drivers/sdio/mmc.c:76:7
	ldr	r1, [sp, #28]
	.loc	2 76 26                         @ rt-thread/components/drivers/sdio/mmc.c:76:26
	strb	r0, [r1]
.Ltmp127:
	.loc	2 77 11 is_stmt 1               @ rt-thread/components/drivers/sdio/mmc.c:77:11
	ldr	r0, [sp, #28]
	.loc	2 77 16 is_stmt 0               @ rt-thread/components/drivers/sdio/mmc.c:77:16
	ldrb	r0, [r0]
.Ltmp128:
	.loc	2 77 11                         @ rt-thread/components/drivers/sdio/mmc.c:77:11
	cbnz	r0, .LBB5_4
	b	.LBB5_1
.LBB5_1:
.Ltmp129:
	.loc	2 78 9 is_stmt 1                @ rt-thread/components/drivers/sdio/mmc.c:78:9
	b	.LBB5_2
.LBB5_2:
.Ltmp130:
	.loc	2 78 9 is_stmt 0                @ rt-thread/components/drivers/sdio/mmc.c:78:9
	movw	r0, :lower16:.L.str
	movt	r0, :upper16:.L.str
	bl	rt_kprintf
	ldr	r0, [sp, #28]
	ldrb	r1, [r0]
	movw	r0, :lower16:.L.str.4
	movt	r0, :upper16:.L.str.4
	bl	rt_kprintf
	movw	r0, :lower16:.L.str.2
	movt	r0, :upper16:.L.str.2
	bl	rt_kprintf
	b	.LBB5_3
.Ltmp131:
.LBB5_3:
	.loc	2 0 9                           @ rt-thread/components/drivers/sdio/mmc.c:0:9
	mov.w	r0, #-1
	.loc	2 80 9 is_stmt 1                @ rt-thread/components/drivers/sdio/mmc.c:80:9
	str	r0, [sp, #44]
	b	.LBB5_7
.Ltmp132:
.LBB5_4:
	.loc	2 83 28                         @ rt-thread/components/drivers/sdio/mmc.c:83:28
	ldr	r0, [sp, #24]
	movs	r1, #112
	movs	r2, #8
	.loc	2 83 19 is_stmt 0               @ rt-thread/components/drivers/sdio/mmc.c:83:19
	str	r2, [sp, #4]                    @ 4-byte Spill
	bl	GET_BITS
	ldr	r2, [sp, #4]                    @ 4-byte Reload
	.loc	2 83 7                          @ rt-thread/components/drivers/sdio/mmc.c:83:7
	ldr	r1, [sp, #28]
	.loc	2 83 17                         @ rt-thread/components/drivers/sdio/mmc.c:83:17
	strb	r0, [r1, #1]
	.loc	2 84 28 is_stmt 1               @ rt-thread/components/drivers/sdio/mmc.c:84:28
	ldr	r0, [sp, #24]
	movs	r1, #104
	.loc	2 84 19 is_stmt 0               @ rt-thread/components/drivers/sdio/mmc.c:84:19
	bl	GET_BITS
	ldr	r2, [sp, #4]                    @ 4-byte Reload
	.loc	2 84 7                          @ rt-thread/components/drivers/sdio/mmc.c:84:7
	ldr	r1, [sp, #28]
	.loc	2 84 17                         @ rt-thread/components/drivers/sdio/mmc.c:84:17
	strb	r0, [r1, #2]
	.loc	2 85 34 is_stmt 1               @ rt-thread/components/drivers/sdio/mmc.c:85:34
	ldr	r0, [sp, #24]
	movs	r1, #96
	.loc	2 85 25 is_stmt 0               @ rt-thread/components/drivers/sdio/mmc.c:85:25
	bl	GET_BITS
	.loc	2 85 7                          @ rt-thread/components/drivers/sdio/mmc.c:85:7
	ldr	r1, [sp, #28]
	.loc	2 85 23                         @ rt-thread/components/drivers/sdio/mmc.c:85:23
	strb	r0, [r1, #3]
	.loc	2 86 38 is_stmt 1               @ rt-thread/components/drivers/sdio/mmc.c:86:38
	ldr	r0, [sp, #24]
	movs	r1, #84
	movs	r2, #12
	.loc	2 86 29 is_stmt 0               @ rt-thread/components/drivers/sdio/mmc.c:86:29
	str	r2, [sp, #8]                    @ 4-byte Spill
	bl	GET_BITS
	.loc	2 86 7                          @ rt-thread/components/drivers/sdio/mmc.c:86:7
	ldr	r1, [sp, #28]
	.loc	2 86 27                         @ rt-thread/components/drivers/sdio/mmc.c:86:27
	strh	r0, [r1, #4]
	.loc	2 87 34 is_stmt 1               @ rt-thread/components/drivers/sdio/mmc.c:87:34
	ldr	r0, [sp, #24]
	movs	r1, #80
	movs	r2, #4
	.loc	2 87 25 is_stmt 0               @ rt-thread/components/drivers/sdio/mmc.c:87:25
	str	r2, [sp, #16]                   @ 4-byte Spill
	bl	GET_BITS
	.loc	2 87 7                          @ rt-thread/components/drivers/sdio/mmc.c:87:7
	ldr	r1, [sp, #28]
	.loc	2 87 23                         @ rt-thread/components/drivers/sdio/mmc.c:87:23
	strb	r0, [r1, #6]
	.loc	2 88 35 is_stmt 1               @ rt-thread/components/drivers/sdio/mmc.c:88:35
	ldr	r0, [sp, #24]
	movs	r1, #79
	movs	r2, #1
	.loc	2 88 26 is_stmt 0               @ rt-thread/components/drivers/sdio/mmc.c:88:26
	str	r2, [sp, #20]                   @ 4-byte Spill
	bl	GET_BITS
	ldr	r2, [sp, #20]                   @ 4-byte Reload
	.loc	2 88 7                          @ rt-thread/components/drivers/sdio/mmc.c:88:7
	ldr	r1, [sp, #28]
	.loc	2 88 24                         @ rt-thread/components/drivers/sdio/mmc.c:88:24
	strb	r0, [r1, #7]
	.loc	2 89 39 is_stmt 1               @ rt-thread/components/drivers/sdio/mmc.c:89:39
	ldr	r0, [sp, #24]
	movs	r1, #78
	.loc	2 89 30 is_stmt 0               @ rt-thread/components/drivers/sdio/mmc.c:89:30
	bl	GET_BITS
	ldr	r2, [sp, #20]                   @ 4-byte Reload
	.loc	2 89 7                          @ rt-thread/components/drivers/sdio/mmc.c:89:7
	ldr	r1, [sp, #28]
	.loc	2 89 28                         @ rt-thread/components/drivers/sdio/mmc.c:89:28
	strb	r0, [r1, #8]
	.loc	2 90 39 is_stmt 1               @ rt-thread/components/drivers/sdio/mmc.c:90:39
	ldr	r0, [sp, #24]
	movs	r1, #77
	.loc	2 90 30 is_stmt 0               @ rt-thread/components/drivers/sdio/mmc.c:90:30
	bl	GET_BITS
	ldr	r2, [sp, #20]                   @ 4-byte Reload
	.loc	2 90 7                          @ rt-thread/components/drivers/sdio/mmc.c:90:7
	ldr	r1, [sp, #28]
	.loc	2 90 28                         @ rt-thread/components/drivers/sdio/mmc.c:90:28
	strb	r0, [r1, #9]
	.loc	2 91 31 is_stmt 1               @ rt-thread/components/drivers/sdio/mmc.c:91:31
	ldr	r0, [sp, #24]
	movs	r1, #76
	.loc	2 91 22 is_stmt 0               @ rt-thread/components/drivers/sdio/mmc.c:91:22
	bl	GET_BITS
	ldr	r2, [sp, #8]                    @ 4-byte Reload
	.loc	2 91 7                          @ rt-thread/components/drivers/sdio/mmc.c:91:7
	ldr	r1, [sp, #28]
	.loc	2 91 20                         @ rt-thread/components/drivers/sdio/mmc.c:91:20
	strb	r0, [r1, #10]
	.loc	2 92 30 is_stmt 1               @ rt-thread/components/drivers/sdio/mmc.c:92:30
	ldr	r0, [sp, #24]
	movs	r1, #62
	.loc	2 92 21 is_stmt 0               @ rt-thread/components/drivers/sdio/mmc.c:92:21
	bl	GET_BITS
	.loc	2 92 7                          @ rt-thread/components/drivers/sdio/mmc.c:92:7
	ldr	r1, [sp, #28]
	.loc	2 92 19                         @ rt-thread/components/drivers/sdio/mmc.c:92:19
	str	r0, [r1, #12]
	.loc	2 93 35 is_stmt 1               @ rt-thread/components/drivers/sdio/mmc.c:93:35
	ldr	r0, [sp, #24]
	movs	r1, #47
	movs	r2, #3
	.loc	2 93 26 is_stmt 0               @ rt-thread/components/drivers/sdio/mmc.c:93:26
	str	r2, [sp, #12]                   @ 4-byte Spill
	bl	GET_BITS
	ldr	r2, [sp, #12]                   @ 4-byte Reload
	.loc	2 93 7                          @ rt-thread/components/drivers/sdio/mmc.c:93:7
	ldr	r1, [sp, #28]
	.loc	2 93 24                         @ rt-thread/components/drivers/sdio/mmc.c:93:24
	strb	r0, [r1, #11]
	.loc	2 94 34 is_stmt 1               @ rt-thread/components/drivers/sdio/mmc.c:94:34
	ldr	r0, [sp, #24]
	movs	r1, #26
	.loc	2 94 25 is_stmt 0               @ rt-thread/components/drivers/sdio/mmc.c:94:25
	bl	GET_BITS
	ldr	r2, [sp, #16]                   @ 4-byte Reload
	.loc	2 94 7                          @ rt-thread/components/drivers/sdio/mmc.c:94:7
	ldr	r1, [sp, #28]
	.loc	2 94 23                         @ rt-thread/components/drivers/sdio/mmc.c:94:23
	strb	r0, [r1, #16]
	.loc	2 95 34 is_stmt 1               @ rt-thread/components/drivers/sdio/mmc.c:95:34
	ldr	r0, [sp, #24]
	movs	r1, #22
	.loc	2 95 25 is_stmt 0               @ rt-thread/components/drivers/sdio/mmc.c:95:25
	bl	GET_BITS
	ldr	r2, [sp, #20]                   @ 4-byte Reload
	.loc	2 95 7                          @ rt-thread/components/drivers/sdio/mmc.c:95:7
	ldr	r1, [sp, #28]
	.loc	2 95 23                         @ rt-thread/components/drivers/sdio/mmc.c:95:23
	strb	r0, [r1, #17]
	.loc	2 96 38 is_stmt 1               @ rt-thread/components/drivers/sdio/mmc.c:96:38
	ldr	r0, [sp, #24]
	movs	r1, #21
	.loc	2 96 29 is_stmt 0               @ rt-thread/components/drivers/sdio/mmc.c:96:29
	bl	GET_BITS
	ldr	r1, [sp, #20]                   @ 4-byte Reload
	.loc	2 96 7                          @ rt-thread/components/drivers/sdio/mmc.c:96:7
	ldr	r2, [sp, #28]
	.loc	2 96 27                         @ rt-thread/components/drivers/sdio/mmc.c:96:27
	strb	r0, [r2, #18]
	.loc	2 97 31 is_stmt 1               @ rt-thread/components/drivers/sdio/mmc.c:97:31
	ldr	r0, [sp, #24]
	movs	r2, #7
	.loc	2 97 22 is_stmt 0               @ rt-thread/components/drivers/sdio/mmc.c:97:22
	bl	GET_BITS
	mov	r1, r0
	.loc	2 97 7                          @ rt-thread/components/drivers/sdio/mmc.c:97:7
	ldr	r0, [sp, #20]                   @ 4-byte Reload
	ldr	r2, [sp, #28]
	.loc	2 97 20                         @ rt-thread/components/drivers/sdio/mmc.c:97:20
	strb	r1, [r2, #19]
	.loc	2 99 33 is_stmt 1               @ rt-thread/components/drivers/sdio/mmc.c:99:33
	ldr	r1, [sp, #28]
	.loc	2 99 38 is_stmt 0               @ rt-thread/components/drivers/sdio/mmc.c:99:38
	ldrb	r1, [r1, #6]
	.loc	2 99 30                         @ rt-thread/components/drivers/sdio/mmc.c:99:30
	lsls	r0, r1
	.loc	2 99 7                          @ rt-thread/components/drivers/sdio/mmc.c:99:7
	ldr	r1, [sp, #40]
	.loc	2 99 26                         @ rt-thread/components/drivers/sdio/mmc.c:99:26
	str	r0, [r1, #64]
	.loc	2 100 25 is_stmt 1              @ rt-thread/components/drivers/sdio/mmc.c:100:25
	ldr	r0, [sp, #28]
	.loc	2 100 30 is_stmt 0              @ rt-thread/components/drivers/sdio/mmc.c:100:30
	ldrb	r0, [r0, #2]
	movs	r1, #100
	.loc	2 100 35                        @ rt-thread/components/drivers/sdio/mmc.c:100:35
	muls	r0, r1, r0
	.loc	2 100 7                         @ rt-thread/components/drivers/sdio/mmc.c:100:7
	ldr	r1, [sp, #40]
	.loc	2 100 23                        @ rt-thread/components/drivers/sdio/mmc.c:100:23
	strh	r0, [r1, #48]
	.loc	2 101 34 is_stmt 1              @ rt-thread/components/drivers/sdio/mmc.c:101:34
	ldr	r0, [sp, #28]
	.loc	2 101 39 is_stmt 0              @ rt-thread/components/drivers/sdio/mmc.c:101:39
	ldrb	r1, [r0, #1]
	.loc	2 101 43                        @ rt-thread/components/drivers/sdio/mmc.c:101:43
	and	r2, r1, #7
	.loc	2 101 24                        @ rt-thread/components/drivers/sdio/mmc.c:101:24
	movw	r0, :lower16:tacc_uint
	movt	r0, :upper16:tacc_uint
	ldr.w	r0, [r0, r2, lsl #2]
	.loc	2 101 79                        @ rt-thread/components/drivers/sdio/mmc.c:101:79
	ubfx	r2, r1, #3, #4
	.loc	2 101 52                        @ rt-thread/components/drivers/sdio/mmc.c:101:52
	movw	r1, :lower16:tacc_value
	movt	r1, :upper16:tacc_value
	ldrb	r1, [r1, r2]
	.loc	2 101 50                        @ rt-thread/components/drivers/sdio/mmc.c:101:50
	muls	r0, r1, r0
	.loc	2 101 84                        @ rt-thread/components/drivers/sdio/mmc.c:101:84
	adds	r0, #9
	movw	r1, #52429
	movt	r1, #52428
	.loc	2 101 89                        @ rt-thread/components/drivers/sdio/mmc.c:101:89
	umull	r1, r0, r0, r1
	lsrs	r0, r0, #3
	.loc	2 101 7                         @ rt-thread/components/drivers/sdio/mmc.c:101:7
	ldr	r1, [sp, #40]
	.loc	2 101 21                        @ rt-thread/components/drivers/sdio/mmc.c:101:21
	str	r0, [r1, #52]
	.loc	2 102 39 is_stmt 1              @ rt-thread/components/drivers/sdio/mmc.c:102:39
	ldr	r0, [sp, #28]
	.loc	2 102 44 is_stmt 0              @ rt-thread/components/drivers/sdio/mmc.c:102:44
	ldrb	r1, [r0, #3]
	.loc	2 102 54                        @ rt-thread/components/drivers/sdio/mmc.c:102:54
	and	r2, r1, #7
	.loc	2 102 29                        @ rt-thread/components/drivers/sdio/mmc.c:102:29
	movw	r0, :lower16:tran_unit
	movt	r0, :upper16:tran_unit
	ldr.w	r0, [r0, r2, lsl #2]
	.loc	2 102 96                        @ rt-thread/components/drivers/sdio/mmc.c:102:96
	ubfx	r2, r1, #3, #4
	.loc	2 102 63                        @ rt-thread/components/drivers/sdio/mmc.c:102:63
	movw	r1, :lower16:tran_value
	movt	r1, :upper16:tran_value
	ldrb	r1, [r1, r2]
	.loc	2 102 61                        @ rt-thread/components/drivers/sdio/mmc.c:102:61
	muls	r0, r1, r0
	.loc	2 102 7                         @ rt-thread/components/drivers/sdio/mmc.c:102:7
	ldr	r1, [sp, #40]
	.loc	2 102 27                        @ rt-thread/components/drivers/sdio/mmc.c:102:27
	str	r0, [r1, #56]
.Ltmp133:
	.loc	2 103 11 is_stmt 1              @ rt-thread/components/drivers/sdio/mmc.c:103:11
	ldr	r0, [sp, #28]
	.loc	2 103 16 is_stmt 0              @ rt-thread/components/drivers/sdio/mmc.c:103:16
	ldrb	r0, [r0, #17]
.Ltmp134:
	.loc	2 103 11                        @ rt-thread/components/drivers/sdio/mmc.c:103:11
	cmp	r0, #9
	blt	.LBB5_6
	b	.LBB5_5
.LBB5_5:
.Ltmp135:
	.loc	2 104 22 is_stmt 1              @ rt-thread/components/drivers/sdio/mmc.c:104:22
	ldr	r0, [sp, #24]
	movs	r1, #42
	movs	r2, #5
	.loc	2 104 13 is_stmt 0              @ rt-thread/components/drivers/sdio/mmc.c:104:13
	str	r2, [sp]                        @ 4-byte Spill
	bl	GET_BITS
	ldr	r2, [sp]                        @ 4-byte Reload
	.loc	2 104 11                        @ rt-thread/components/drivers/sdio/mmc.c:104:11
	str	r0, [sp, #36]
	.loc	2 105 22 is_stmt 1              @ rt-thread/components/drivers/sdio/mmc.c:105:22
	ldr	r0, [sp, #24]
	movs	r1, #37
	.loc	2 105 13 is_stmt 0              @ rt-thread/components/drivers/sdio/mmc.c:105:13
	bl	GET_BITS
	.loc	2 105 11                        @ rt-thread/components/drivers/sdio/mmc.c:105:11
	str	r0, [sp, #32]
	.loc	2 106 29 is_stmt 1              @ rt-thread/components/drivers/sdio/mmc.c:106:29
	ldr	r0, [sp, #36]
	.loc	2 106 31 is_stmt 0              @ rt-thread/components/drivers/sdio/mmc.c:106:31
	adds	r0, #1
	.loc	2 106 39                        @ rt-thread/components/drivers/sdio/mmc.c:106:39
	ldr	r1, [sp, #32]
	.loc	2 106 41                        @ rt-thread/components/drivers/sdio/mmc.c:106:41
	adds	r1, #1
	.loc	2 106 36                        @ rt-thread/components/drivers/sdio/mmc.c:106:36
	muls	r0, r1, r0
	.loc	2 106 9                         @ rt-thread/components/drivers/sdio/mmc.c:106:9
	ldr	r1, [sp, #40]
	.loc	2 106 26                        @ rt-thread/components/drivers/sdio/mmc.c:106:26
	str	r0, [r1, #68]
	.loc	2 107 30 is_stmt 1              @ rt-thread/components/drivers/sdio/mmc.c:107:30
	ldr	r0, [sp, #28]
	.loc	2 107 35 is_stmt 0              @ rt-thread/components/drivers/sdio/mmc.c:107:35
	ldrb	r0, [r0, #17]
	.loc	2 107 46                        @ rt-thread/components/drivers/sdio/mmc.c:107:46
	sub.w	r2, r0, #9
	.loc	2 107 9                         @ rt-thread/components/drivers/sdio/mmc.c:107:9
	ldr	r1, [sp, #40]
	.loc	2 107 26                        @ rt-thread/components/drivers/sdio/mmc.c:107:26
	ldr	r0, [r1, #68]
	lsls	r0, r2
	str	r0, [r1, #68]
	.loc	2 108 7 is_stmt 1               @ rt-thread/components/drivers/sdio/mmc.c:108:7
	b	.LBB5_6
.Ltmp136:
.LBB5_6:
	.loc	2 0 7 is_stmt 0                 @ rt-thread/components/drivers/sdio/mmc.c:0:7
	movs	r0, #0
	.loc	2 110 7 is_stmt 1               @ rt-thread/components/drivers/sdio/mmc.c:110:7
	str	r0, [sp, #44]
	b	.LBB5_7
.LBB5_7:
	.loc	2 111 1                         @ rt-thread/components/drivers/sdio/mmc.c:111:1
	ldr	r0, [sp, #44]
	add	sp, #48
	pop	{r7, pc}
.Ltmp137:
.Lfunc_end5:
	.size	mmcsd_parse_csd, .Lfunc_end5-mmcsd_parse_csd
	.cfi_endproc
	.cantunwind
	.fnend
                                        @ -- End function
	.section	.text.mmc_get_ext_csd,"ax",%progbits
	.p2align	3                               @ -- Begin function mmc_get_ext_csd
	.type	mmc_get_ext_csd,%function
	.code	16                              @ @mmc_get_ext_csd
	.thumb_func
mmc_get_ext_csd:
.Lfunc_begin6:
	.loc	2 117 0                         @ rt-thread/components/drivers/sdio/mmc.c:117:0
	.fnstart
	.cfi_startproc
@ %bb.0:
	.save	{r7, lr}
	push	{r7, lr}
	.cfi_def_cfa_offset 8
	.cfi_offset lr, -4
	.cfi_offset r7, -8
	.pad	#128
	sub	sp, #128
	.cfi_def_cfa_offset 136
	str	r0, [sp, #120]
	str	r1, [sp, #116]
.Ltmp138:
	.loc	2 123 4 prologue_end            @ rt-thread/components/drivers/sdio/mmc.c:123:4
	ldr	r1, [sp, #116]
	movs	r0, #0
	.loc	2 123 16 is_stmt 0              @ rt-thread/components/drivers/sdio/mmc.c:123:16
	str	r0, [r1]
.Ltmp139:
	.loc	2 125 16 is_stmt 1              @ rt-thread/components/drivers/sdio/mmc.c:125:16
	ldr	r0, [sp, #120]
	.loc	2 125 22 is_stmt 0              @ rt-thread/components/drivers/sdio/mmc.c:125:22
	adds	r0, #8
	movs	r1, #122
	movs	r2, #4
	.loc	2 125 7                         @ rt-thread/components/drivers/sdio/mmc.c:125:7
	bl	GET_BITS
.Ltmp140:
	.loc	2 125 7                         @ rt-thread/components/drivers/sdio/mmc.c:125:7
	cmp	r0, #3
	bhi	.LBB6_2
	b	.LBB6_1
.LBB6_1:
	.loc	2 0 7                           @ rt-thread/components/drivers/sdio/mmc.c:0:7
	movs	r0, #0
.Ltmp141:
	.loc	2 126 6 is_stmt 1               @ rt-thread/components/drivers/sdio/mmc.c:126:6
	str	r0, [sp, #124]
	b	.LBB6_11
.Ltmp142:
.LBB6_2:
	.loc	2 0 6 is_stmt 0                 @ rt-thread/components/drivers/sdio/mmc.c:0:6
	mov.w	r0, #512
	.loc	2 132 13 is_stmt 1              @ rt-thread/components/drivers/sdio/mmc.c:132:13
	bl	rt_malloc
	.loc	2 132 11 is_stmt 0              @ rt-thread/components/drivers/sdio/mmc.c:132:11
	str	r0, [sp, #112]
.Ltmp143:
	.loc	2 133 8 is_stmt 1               @ rt-thread/components/drivers/sdio/mmc.c:133:8
	ldr	r0, [sp, #112]
.Ltmp144:
	.loc	2 133 7 is_stmt 0               @ rt-thread/components/drivers/sdio/mmc.c:133:7
	cbnz	r0, .LBB6_6
	b	.LBB6_3
.LBB6_3:
.Ltmp145:
	.loc	2 134 5 is_stmt 1               @ rt-thread/components/drivers/sdio/mmc.c:134:5
	b	.LBB6_4
.LBB6_4:
.Ltmp146:
	.loc	2 134 5 is_stmt 0               @ rt-thread/components/drivers/sdio/mmc.c:134:5
	movw	r0, :lower16:.L.str
	movt	r0, :upper16:.L.str
	bl	rt_kprintf
	movw	r0, :lower16:.L.str.5
	movt	r0, :upper16:.L.str.5
	bl	rt_kprintf
	movw	r0, :lower16:.L.str.2
	movt	r0, :upper16:.L.str.2
	bl	rt_kprintf
	b	.LBB6_5
.Ltmp147:
.LBB6_5:
	.loc	2 0 5                           @ rt-thread/components/drivers/sdio/mmc.c:0:5
	mvn	r0, #4
	.loc	2 135 5 is_stmt 1               @ rt-thread/components/drivers/sdio/mmc.c:135:5
	str	r0, [sp, #124]
	b	.LBB6_11
.Ltmp148:
.LBB6_6:
	.loc	2 0 5 is_stmt 0                 @ rt-thread/components/drivers/sdio/mmc.c:0:5
	add	r0, sp, #100
	str	r0, [sp, #8]                    @ 4-byte Spill
	movs	r1, #0
	str	r1, [sp, #12]                   @ 4-byte Spill
	movs	r2, #12
	.loc	2 138 3 is_stmt 1               @ rt-thread/components/drivers/sdio/mmc.c:138:3
	bl	rt_memset
	ldr	r1, [sp, #12]                   @ 4-byte Reload
	add	r0, sp, #56
	str	r0, [sp]                        @ 4-byte Spill
	movs	r2, #44
	.loc	2 139 3                         @ rt-thread/components/drivers/sdio/mmc.c:139:3
	bl	rt_memset
	ldr	r1, [sp, #12]                   @ 4-byte Reload
	add	r0, sp, #16
	str	r0, [sp, #4]                    @ 4-byte Spill
	movs	r2, #40
	.loc	2 140 3                         @ rt-thread/components/drivers/sdio/mmc.c:140:3
	bl	rt_memset
	ldr	r3, [sp]                        @ 4-byte Reload
	ldr	r2, [sp, #4]                    @ 4-byte Reload
	ldr	r1, [sp, #8]                    @ 4-byte Reload
                                        @ kill: def $r12 killed $r0
	.loc	2 142 11                        @ rt-thread/components/drivers/sdio/mmc.c:142:11
	ldr	r0, [sp, #12]                   @ 4-byte Reload
	str	r3, [sp, #104]
	.loc	2 143 12                        @ rt-thread/components/drivers/sdio/mmc.c:143:12
	str	r2, [sp, #100]
	movs	r2, #8
	.loc	2 145 16                        @ rt-thread/components/drivers/sdio/mmc.c:145:16
	str	r2, [sp, #56]
	.loc	2 146 11                        @ rt-thread/components/drivers/sdio/mmc.c:146:11
	str	r0, [sp, #60]
	movs	r2, #81
	.loc	2 153 13                        @ rt-thread/components/drivers/sdio/mmc.c:153:13
	str	r2, [sp, #80]
	mov.w	r2, #512
	.loc	2 155 16                        @ rt-thread/components/drivers/sdio/mmc.c:155:16
	str	r2, [sp, #16]
	movs	r2, #1
	.loc	2 156 13                        @ rt-thread/components/drivers/sdio/mmc.c:156:13
	str	r2, [sp, #20]
	movs	r2, #2
	.loc	2 157 14                        @ rt-thread/components/drivers/sdio/mmc.c:157:14
	str	r2, [sp, #32]
	.loc	2 158 14                        @ rt-thread/components/drivers/sdio/mmc.c:158:14
	ldr	r2, [sp, #112]
	.loc	2 158 12 is_stmt 0              @ rt-thread/components/drivers/sdio/mmc.c:158:12
	str	r2, [sp, #24]
	movw	r2, #41728
	movt	r2, #4577
	.loc	2 166 19 is_stmt 1              @ rt-thread/components/drivers/sdio/mmc.c:166:19
	str	r2, [sp, #48]
	.loc	2 167 21                        @ rt-thread/components/drivers/sdio/mmc.c:167:21
	str	r0, [sp, #52]
	.loc	2 169 22                        @ rt-thread/components/drivers/sdio/mmc.c:169:22
	ldr	r0, [sp, #120]
	.loc	2 169 28 is_stmt 0              @ rt-thread/components/drivers/sdio/mmc.c:169:28
	ldr	r0, [r0]
	.loc	2 169 3                         @ rt-thread/components/drivers/sdio/mmc.c:169:3
	bl	mmcsd_send_request
.Ltmp149:
	.loc	2 171 11 is_stmt 1              @ rt-thread/components/drivers/sdio/mmc.c:171:11
	ldr	r0, [sp, #88]
.Ltmp150:
	.loc	2 171 7 is_stmt 0               @ rt-thread/components/drivers/sdio/mmc.c:171:7
	cbz	r0, .LBB6_8
	b	.LBB6_7
.LBB6_7:
.Ltmp151:
	.loc	2 172 16 is_stmt 1              @ rt-thread/components/drivers/sdio/mmc.c:172:16
	ldr	r0, [sp, #88]
	.loc	2 172 5 is_stmt 0               @ rt-thread/components/drivers/sdio/mmc.c:172:5
	str	r0, [sp, #124]
	b	.LBB6_11
.Ltmp152:
.LBB6_8:
	.loc	2 173 12 is_stmt 1              @ rt-thread/components/drivers/sdio/mmc.c:173:12
	ldr	r0, [sp, #28]
.Ltmp153:
	.loc	2 173 7 is_stmt 0               @ rt-thread/components/drivers/sdio/mmc.c:173:7
	cbz	r0, .LBB6_10
	b	.LBB6_9
.LBB6_9:
.Ltmp154:
	.loc	2 174 17 is_stmt 1              @ rt-thread/components/drivers/sdio/mmc.c:174:17
	ldr	r0, [sp, #28]
	.loc	2 174 5 is_stmt 0               @ rt-thread/components/drivers/sdio/mmc.c:174:5
	str	r0, [sp, #124]
	b	.LBB6_11
.Ltmp155:
.LBB6_10:
	.loc	2 176 18 is_stmt 1              @ rt-thread/components/drivers/sdio/mmc.c:176:18
	ldr	r0, [sp, #112]
	.loc	2 176 4 is_stmt 0               @ rt-thread/components/drivers/sdio/mmc.c:176:4
	ldr	r1, [sp, #116]
	.loc	2 176 16                        @ rt-thread/components/drivers/sdio/mmc.c:176:16
	str	r0, [r1]
	movs	r0, #0
	.loc	2 177 3 is_stmt 1               @ rt-thread/components/drivers/sdio/mmc.c:177:3
	str	r0, [sp, #124]
	b	.LBB6_11
.LBB6_11:
	.loc	2 178 1                         @ rt-thread/components/drivers/sdio/mmc.c:178:1
	ldr	r0, [sp, #124]
	add	sp, #128
	pop	{r7, pc}
.Ltmp156:
.Lfunc_end6:
	.size	mmc_get_ext_csd, .Lfunc_end6-mmc_get_ext_csd
	.cfi_endproc
	.cantunwind
	.fnend
                                        @ -- End function
	.section	.text.mmc_parse_ext_csd,"ax",%progbits
	.p2align	3                               @ -- Begin function mmc_parse_ext_csd
	.type	mmc_parse_ext_csd,%function
	.code	16                              @ @mmc_parse_ext_csd
	.thumb_func
mmc_parse_ext_csd:
.Lfunc_begin7:
	.loc	2 184 0                         @ rt-thread/components/drivers/sdio/mmc.c:184:0
	.fnstart
	.cfi_startproc
@ %bb.0:
	.save	{r7, lr}
	push	{r7, lr}
	.cfi_def_cfa_offset 8
	.cfi_offset lr, -4
	.cfi_offset r7, -8
	.pad	#24
	sub	sp, #24
	.cfi_def_cfa_offset 32
	str	r0, [sp, #16]
	str	r1, [sp, #12]
	movs	r0, #0
.Ltmp157:
	.loc	2 185 15 prologue_end           @ rt-thread/components/drivers/sdio/mmc.c:185:15
	str	r0, [sp, #4]
	str	r0, [sp]
.Ltmp158:
	.loc	2 187 6                         @ rt-thread/components/drivers/sdio/mmc.c:187:6
	ldr	r0, [sp, #16]
	.loc	2 187 22 is_stmt 0              @ rt-thread/components/drivers/sdio/mmc.c:187:22
	cbz	r0, .LBB7_2
	b	.LBB7_1
.LBB7_1:
	.loc	2 187 25                        @ rt-thread/components/drivers/sdio/mmc.c:187:25
	ldr	r0, [sp, #12]
.Ltmp159:
	.loc	2 187 6                         @ rt-thread/components/drivers/sdio/mmc.c:187:6
	cbnz	r0, .LBB7_5
	b	.LBB7_2
.LBB7_2:
.Ltmp160:
	.loc	2 189 5 is_stmt 1               @ rt-thread/components/drivers/sdio/mmc.c:189:5
	b	.LBB7_3
.LBB7_3:
.Ltmp161:
	.loc	2 189 5 is_stmt 0               @ rt-thread/components/drivers/sdio/mmc.c:189:5
	movw	r0, :lower16:.L.str
	movt	r0, :upper16:.L.str
	bl	rt_kprintf
	movw	r0, :lower16:.L.str.6
	movt	r0, :upper16:.L.str.6
	bl	rt_kprintf
	movw	r0, :lower16:.L.str.2
	movt	r0, :upper16:.L.str.2
	bl	rt_kprintf
	b	.LBB7_4
.Ltmp162:
.LBB7_4:
	.loc	2 0 5                           @ rt-thread/components/drivers/sdio/mmc.c:0:5
	mov.w	r0, #-1
	.loc	2 190 5 is_stmt 1               @ rt-thread/components/drivers/sdio/mmc.c:190:5
	str	r0, [sp, #20]
	b	.LBB7_8
.Ltmp163:
.LBB7_5:
	.loc	2 193 3                         @ rt-thread/components/drivers/sdio/mmc.c:193:3
	ldr	r1, [sp, #16]
	.loc	2 193 15 is_stmt 0              @ rt-thread/components/drivers/sdio/mmc.c:193:15
	ldrh.w	r0, [r1, #74]
	orr	r0, r0, #1
	strh.w	r0, [r1, #74]
	.loc	2 194 3 is_stmt 1               @ rt-thread/components/drivers/sdio/mmc.c:194:3
	ldr	r1, [sp, #16]
	movw	r0, #29952
	movt	r0, #793
	.loc	2 194 26 is_stmt 0              @ rt-thread/components/drivers/sdio/mmc.c:194:26
	str	r0, [r1, #100]
	.loc	2 196 37 is_stmt 1              @ rt-thread/components/drivers/sdio/mmc.c:196:37
	ldr	r0, [sp, #12]
	.loc	2 196 19 is_stmt 0              @ rt-thread/components/drivers/sdio/mmc.c:196:19
	ldr.w	r0, [r0, #212]
	movs	r1, #0
	.loc	2 196 17                        @ rt-thread/components/drivers/sdio/mmc.c:196:17
	str	r1, [sp, #4]
	str	r0, [sp]
	.loc	2 197 20 is_stmt 1              @ rt-thread/components/drivers/sdio/mmc.c:197:20
	ldr	r0, [sp, #16]
	.loc	2 197 26 is_stmt 0              @ rt-thread/components/drivers/sdio/mmc.c:197:26
	ldr	r2, [r0, #64]
	.loc	2 197 17                        @ rt-thread/components/drivers/sdio/mmc.c:197:17
	ldr	r1, [sp]
	ldr	r0, [sp, #4]
	umull	r1, r3, r1, r2
	mla	r0, r0, r2, r3
	str	r1, [sp]
	str	r0, [sp, #4]
	.loc	2 198 17 is_stmt 1              @ rt-thread/components/drivers/sdio/mmc.c:198:17
	ldr	r0, [sp]
	ldr	r1, [sp, #4]
	lsrs	r0, r0, #10
	orr.w	r0, r0, r1, lsl #22
	lsrs	r1, r1, #10
	str	r1, [sp, #4]
	str	r0, [sp]
	.loc	2 199 25                        @ rt-thread/components/drivers/sdio/mmc.c:199:25
	ldr	r0, [sp]
	.loc	2 199 3 is_stmt 0               @ rt-thread/components/drivers/sdio/mmc.c:199:3
	ldr	r1, [sp, #16]
	.loc	2 199 23                        @ rt-thread/components/drivers/sdio/mmc.c:199:23
	str	r0, [r1, #60]
	.loc	2 200 3 is_stmt 1               @ rt-thread/components/drivers/sdio/mmc.c:200:3
	b	.LBB7_6
.LBB7_6:
.Ltmp164:
	.loc	2 200 3 is_stmt 0               @ rt-thread/components/drivers/sdio/mmc.c:200:3
	movw	r0, :lower16:.L.str.7
	movt	r0, :upper16:.L.str.7
	bl	rt_kprintf
	ldr	r0, [sp, #16]
	ldr	r1, [r0, #60]
	movw	r0, :lower16:.L.str.8
	movt	r0, :upper16:.L.str.8
	bl	rt_kprintf
	movw	r0, :lower16:.L.str.2
	movt	r0, :upper16:.L.str.2
	bl	rt_kprintf
	b	.LBB7_7
.Ltmp165:
.LBB7_7:
	.loc	2 0 3                           @ rt-thread/components/drivers/sdio/mmc.c:0:3
	movs	r0, #0
	.loc	2 202 3 is_stmt 1               @ rt-thread/components/drivers/sdio/mmc.c:202:3
	str	r0, [sp, #20]
	b	.LBB7_8
.LBB7_8:
	.loc	2 203 1                         @ rt-thread/components/drivers/sdio/mmc.c:203:1
	ldr	r0, [sp, #20]
	add	sp, #24
	pop	{r7, pc}
.Ltmp166:
.Lfunc_end7:
	.size	mmc_parse_ext_csd, .Lfunc_end7-mmc_parse_ext_csd
	.cfi_endproc
	.cantunwind
	.fnend
                                        @ -- End function
	.section	.text.mmc_select_bus_width,"ax",%progbits
	.p2align	3                               @ -- Begin function mmc_select_bus_width
	.type	mmc_select_bus_width,%function
	.code	16                              @ @mmc_select_bus_width
	.thumb_func
mmc_select_bus_width:
.Lfunc_begin8:
	.loc	2 291 0                         @ rt-thread/components/drivers/sdio/mmc.c:291:0
	.fnstart
	.cfi_startproc
@ %bb.0:
	.save	{r7, lr}
	push	{r7, lr}
	.cfi_def_cfa_offset 8
	.cfi_offset lr, -4
	.cfi_offset r7, -8
	.pad	#56
	sub	sp, #56
	.cfi_def_cfa_offset 64
	str	r0, [sp, #48]
	str	r1, [sp, #44]
.Ltmp167:
	.loc	2 292 15 prologue_end           @ rt-thread/components/drivers/sdio/mmc.c:292:15
	movw	r2, :lower16:.L__const.mmc_select_bus_width.ext_csd_bits
	movt	r2, :upper16:.L__const.mmc_select_bus_width.ext_csd_bits
	ldr	r0, [r2]
	ldr	r1, [r2, #4]
	ldr	r2, [r2, #8]
	str	r2, [sp, #40]
	str	r1, [sp, #36]
	str	r0, [sp, #32]
	.loc	2 297 15                        @ rt-thread/components/drivers/sdio/mmc.c:297:15
	movw	r2, :lower16:.L__const.mmc_select_bus_width.bus_widths
	movt	r2, :upper16:.L__const.mmc_select_bus_width.bus_widths
	ldr	r0, [r2]
	ldr	r1, [r2, #4]
	ldr	r2, [r2, #8]
	str	r2, [sp, #28]
	str	r1, [sp, #24]
	str	r0, [sp, #20]
	.loc	2 302 32                        @ rt-thread/components/drivers/sdio/mmc.c:302:32
	ldr	r0, [sp, #48]
	.loc	2 302 38 is_stmt 0              @ rt-thread/components/drivers/sdio/mmc.c:302:38
	ldr	r0, [r0]
	.loc	2 302 25                        @ rt-thread/components/drivers/sdio/mmc.c:302:25
	str	r0, [sp, #16]
	movs	r0, #0
	.loc	2 303 17 is_stmt 1              @ rt-thread/components/drivers/sdio/mmc.c:303:17
	str	r0, [sp, #8]
	.loc	2 304 7                         @ rt-thread/components/drivers/sdio/mmc.c:304:7
	str	r0, [sp, #4]
.Ltmp168:
	.loc	2 306 16                        @ rt-thread/components/drivers/sdio/mmc.c:306:16
	ldr	r0, [sp, #48]
	.loc	2 306 22 is_stmt 0              @ rt-thread/components/drivers/sdio/mmc.c:306:22
	adds	r0, #8
	movs	r1, #122
	movs	r2, #4
	.loc	2 306 7                         @ rt-thread/components/drivers/sdio/mmc.c:306:7
	bl	GET_BITS
.Ltmp169:
	.loc	2 306 7                         @ rt-thread/components/drivers/sdio/mmc.c:306:7
	cmp	r0, #3
	bhi	.LBB8_2
	b	.LBB8_1
.LBB8_1:
	.loc	2 0 7                           @ rt-thread/components/drivers/sdio/mmc.c:0:7
	movs	r0, #0
.Ltmp170:
	.loc	2 307 6 is_stmt 1               @ rt-thread/components/drivers/sdio/mmc.c:307:6
	str	r0, [sp, #52]
	b	.LBB8_31
.Ltmp171:
.LBB8_2:
	.loc	2 0 6 is_stmt 0                 @ rt-thread/components/drivers/sdio/mmc.c:0:6
	movs	r0, #0
.Ltmp172:
	.loc	2 315 12 is_stmt 1              @ rt-thread/components/drivers/sdio/mmc.c:315:12
	str	r0, [sp, #12]
	.loc	2 315 8 is_stmt 0               @ rt-thread/components/drivers/sdio/mmc.c:315:8
	b	.LBB8_3
.LBB8_3:                                @ =>This Inner Loop Header: Depth=1
.Ltmp173:
	.loc	2 315 17                        @ rt-thread/components/drivers/sdio/mmc.c:315:17
	ldr	r0, [sp, #12]
.Ltmp174:
	.loc	2 315 3                         @ rt-thread/components/drivers/sdio/mmc.c:315:3
	cmp	r0, #2
	bhi.w	.LBB8_30
	b	.LBB8_4
.LBB8_4:                                @   in Loop: Header=BB8_3 Depth=1
.Ltmp175:
	.loc	2 325 13 is_stmt 1              @ rt-thread/components/drivers/sdio/mmc.c:325:13
	ldr	r0, [sp, #16]
	.loc	2 325 45 is_stmt 0              @ rt-thread/components/drivers/sdio/mmc.c:325:45
	ldrb.w	r0, [r0, #32]
	lsls	r0, r0, #30
	cmp	r0, #0
	bmi	.LBB8_6
	b	.LBB8_5
.LBB8_5:                                @   in Loop: Header=BB8_3 Depth=1
	.loc	2 326 17 is_stmt 1              @ rt-thread/components/drivers/sdio/mmc.c:326:17
	ldr	r1, [sp, #12]
	add	r0, sp, #32
	.loc	2 326 4 is_stmt 0               @ rt-thread/components/drivers/sdio/mmc.c:326:4
	ldr.w	r0, [r0, r1, lsl #2]
	.loc	2 326 46                        @ rt-thread/components/drivers/sdio/mmc.c:326:46
	cmp	r0, #2
	beq	.LBB8_9
	b	.LBB8_6
.LBB8_6:                                @   in Loop: Header=BB8_3 Depth=1
	.loc	2 327 13 is_stmt 1              @ rt-thread/components/drivers/sdio/mmc.c:327:13
	ldr	r0, [sp, #16]
	.loc	2 327 45 is_stmt 0              @ rt-thread/components/drivers/sdio/mmc.c:327:45
	ldrb.w	r0, [r0, #32]
	lsls	r0, r0, #31
	cbnz	r0, .LBB8_10
	b	.LBB8_7
.LBB8_7:                                @   in Loop: Header=BB8_3 Depth=1
	.loc	2 328 18 is_stmt 1              @ rt-thread/components/drivers/sdio/mmc.c:328:18
	ldr	r1, [sp, #12]
	add	r0, sp, #32
	.loc	2 328 5 is_stmt 0               @ rt-thread/components/drivers/sdio/mmc.c:328:5
	ldr.w	r0, [r0, r1, lsl #2]
	.loc	2 328 46                        @ rt-thread/components/drivers/sdio/mmc.c:328:46
	cmp	r0, #1
	beq	.LBB8_9
	b	.LBB8_8
.LBB8_8:                                @   in Loop: Header=BB8_3 Depth=1
	.loc	2 329 17 is_stmt 1              @ rt-thread/components/drivers/sdio/mmc.c:329:17
	ldr	r1, [sp, #12]
	add	r0, sp, #32
	.loc	2 329 4 is_stmt 0               @ rt-thread/components/drivers/sdio/mmc.c:329:4
	ldr.w	r0, [r0, r1, lsl #2]
.Ltmp176:
	.loc	2 325 10 is_stmt 1              @ rt-thread/components/drivers/sdio/mmc.c:325:10
	cmp	r0, #2
	bne	.LBB8_10
	b	.LBB8_9
.LBB8_9:                                @   in Loop: Header=BB8_3 Depth=1
.Ltmp177:
	.loc	2 330 7                         @ rt-thread/components/drivers/sdio/mmc.c:330:7
	b	.LBB8_29
.Ltmp178:
.LBB8_10:                               @   in Loop: Header=BB8_3 Depth=1
	.loc	2 332 22                        @ rt-thread/components/drivers/sdio/mmc.c:332:22
	ldr	r0, [sp, #48]
	.loc	2 334 35                        @ rt-thread/components/drivers/sdio/mmc.c:334:35
	ldr	r2, [sp, #12]
	add	r1, sp, #32
	.loc	2 334 22 is_stmt 0              @ rt-thread/components/drivers/sdio/mmc.c:334:22
	ldrb.w	r3, [r1, r2, lsl #2]
	movs	r1, #1
	movs	r2, #183
	.loc	2 332 11 is_stmt 1              @ rt-thread/components/drivers/sdio/mmc.c:332:11
	bl	mmc_switch
	.loc	2 332 9 is_stmt 0               @ rt-thread/components/drivers/sdio/mmc.c:332:9
	str	r0, [sp, #4]
.Ltmp179:
	.loc	2 335 9 is_stmt 1               @ rt-thread/components/drivers/sdio/mmc.c:335:9
	ldr	r0, [sp, #4]
.Ltmp180:
	.loc	2 335 9 is_stmt 0               @ rt-thread/components/drivers/sdio/mmc.c:335:9
	cbz	r0, .LBB8_12
	b	.LBB8_11
.LBB8_11:                               @   in Loop: Header=BB8_3 Depth=1
.Ltmp181:
	.loc	2 336 7 is_stmt 1               @ rt-thread/components/drivers/sdio/mmc.c:336:7
	b	.LBB8_29
.Ltmp182:
.LBB8_12:                               @   in Loop: Header=BB8_3 Depth=1
	.loc	2 338 28                        @ rt-thread/components/drivers/sdio/mmc.c:338:28
	ldr	r1, [sp, #12]
	add	r0, sp, #20
	.loc	2 338 17 is_stmt 0              @ rt-thread/components/drivers/sdio/mmc.c:338:17
	ldr.w	r0, [r0, r1, lsl #2]
	.loc	2 338 15                        @ rt-thread/components/drivers/sdio/mmc.c:338:15
	str	r0, [sp, #8]
	.loc	2 339 25 is_stmt 1              @ rt-thread/components/drivers/sdio/mmc.c:339:25
	ldr	r0, [sp, #16]
	.loc	2 339 31 is_stmt 0              @ rt-thread/components/drivers/sdio/mmc.c:339:31
	ldr	r1, [sp, #8]
	.loc	2 339 5                         @ rt-thread/components/drivers/sdio/mmc.c:339:5
	bl	mmcsd_set_bus_width
	movs	r0, #20
	.loc	2 340 5 is_stmt 1               @ rt-thread/components/drivers/sdio/mmc.c:340:5
	bl	mmcsd_delay_ms
	.loc	2 341 32                        @ rt-thread/components/drivers/sdio/mmc.c:341:32
	ldr	r0, [sp, #48]
	.loc	2 341 38 is_stmt 0              @ rt-thread/components/drivers/sdio/mmc.c:341:38
	ldr	r1, [sp, #44]
	.loc	2 341 47                        @ rt-thread/components/drivers/sdio/mmc.c:341:47
	ldr	r2, [sp, #8]
	.loc	2 341 11                        @ rt-thread/components/drivers/sdio/mmc.c:341:11
	bl	mmc_compare_ext_csds
	.loc	2 341 9                         @ rt-thread/components/drivers/sdio/mmc.c:341:9
	str	r0, [sp, #4]
.Ltmp183:
	.loc	2 342 10 is_stmt 1              @ rt-thread/components/drivers/sdio/mmc.c:342:10
	ldr	r0, [sp, #4]
.Ltmp184:
	.loc	2 342 9 is_stmt 0               @ rt-thread/components/drivers/sdio/mmc.c:342:9
	cbnz	r0, .LBB8_14
	b	.LBB8_13
.LBB8_13:
.Ltmp185:
	.loc	2 343 13 is_stmt 1              @ rt-thread/components/drivers/sdio/mmc.c:343:13
	ldr	r0, [sp, #8]
	.loc	2 343 11 is_stmt 0              @ rt-thread/components/drivers/sdio/mmc.c:343:11
	str	r0, [sp, #4]
	.loc	2 344 7 is_stmt 1               @ rt-thread/components/drivers/sdio/mmc.c:344:7
	b	.LBB8_30
.Ltmp186:
.LBB8_14:                               @   in Loop: Header=BB8_3 Depth=1
	.loc	2 346 27                        @ rt-thread/components/drivers/sdio/mmc.c:346:27
	ldr	r1, [sp, #12]
	add	r0, sp, #32
	.loc	2 346 14 is_stmt 0              @ rt-thread/components/drivers/sdio/mmc.c:346:14
	ldr.w	r0, [r0, r1, lsl #2]
	.loc	2 346 7                         @ rt-thread/components/drivers/sdio/mmc.c:346:7
	str	r0, [sp]                        @ 4-byte Spill
	cbz	r0, .LBB8_17
	b	.LBB8_15
.LBB8_15:                               @   in Loop: Header=BB8_3 Depth=1
	ldr	r0, [sp]                        @ 4-byte Reload
	cmp	r0, #1
	beq	.LBB8_20
	b	.LBB8_16
.LBB8_16:                               @   in Loop: Header=BB8_3 Depth=1
	ldr	r0, [sp]                        @ 4-byte Reload
	cmp	r0, #2
	beq	.LBB8_23
	b	.LBB8_26
.LBB8_17:                               @   in Loop: Header=BB8_3 Depth=1
.Ltmp187:
	.loc	2 348 13 is_stmt 1              @ rt-thread/components/drivers/sdio/mmc.c:348:13
	b	.LBB8_18
.LBB8_18:                               @   in Loop: Header=BB8_3 Depth=1
.Ltmp188:
	.loc	2 348 13 is_stmt 0              @ rt-thread/components/drivers/sdio/mmc.c:348:13
	movw	r0, :lower16:.L.str
	movt	r0, :upper16:.L.str
	bl	rt_kprintf
	movw	r0, :lower16:.L.str.9
	movt	r0, :upper16:.L.str.9
	bl	rt_kprintf
	movw	r0, :lower16:.L.str.2
	movt	r0, :upper16:.L.str.2
	bl	rt_kprintf
	b	.LBB8_19
.Ltmp189:
.LBB8_19:                               @   in Loop: Header=BB8_3 Depth=1
	.loc	2 349 13 is_stmt 1              @ rt-thread/components/drivers/sdio/mmc.c:349:13
	b	.LBB8_27
.LBB8_20:                               @   in Loop: Header=BB8_3 Depth=1
	.loc	2 351 13                        @ rt-thread/components/drivers/sdio/mmc.c:351:13
	b	.LBB8_21
.LBB8_21:                               @   in Loop: Header=BB8_3 Depth=1
.Ltmp190:
	.loc	2 351 13 is_stmt 0              @ rt-thread/components/drivers/sdio/mmc.c:351:13
	movw	r0, :lower16:.L.str
	movt	r0, :upper16:.L.str
	bl	rt_kprintf
	movw	r0, :lower16:.L.str.10
	movt	r0, :upper16:.L.str.10
	bl	rt_kprintf
	movw	r0, :lower16:.L.str.2
	movt	r0, :upper16:.L.str.2
	bl	rt_kprintf
	b	.LBB8_22
.Ltmp191:
.LBB8_22:                               @   in Loop: Header=BB8_3 Depth=1
	.loc	2 352 13 is_stmt 1              @ rt-thread/components/drivers/sdio/mmc.c:352:13
	b	.LBB8_27
.LBB8_23:                               @   in Loop: Header=BB8_3 Depth=1
	.loc	2 354 13                        @ rt-thread/components/drivers/sdio/mmc.c:354:13
	b	.LBB8_24
.LBB8_24:                               @   in Loop: Header=BB8_3 Depth=1
.Ltmp192:
	.loc	2 354 13 is_stmt 0              @ rt-thread/components/drivers/sdio/mmc.c:354:13
	movw	r0, :lower16:.L.str
	movt	r0, :upper16:.L.str
	bl	rt_kprintf
	movw	r0, :lower16:.L.str.11
	movt	r0, :upper16:.L.str.11
	bl	rt_kprintf
	movw	r0, :lower16:.L.str.2
	movt	r0, :upper16:.L.str.2
	bl	rt_kprintf
	b	.LBB8_25
.Ltmp193:
.LBB8_25:                               @   in Loop: Header=BB8_3 Depth=1
	.loc	2 355 13 is_stmt 1              @ rt-thread/components/drivers/sdio/mmc.c:355:13
	b	.LBB8_27
.LBB8_26:                               @   in Loop: Header=BB8_3 Depth=1
	.loc	2 357 13                        @ rt-thread/components/drivers/sdio/mmc.c:357:13
	b	.LBB8_27
.Ltmp194:
.LBB8_27:                               @   in Loop: Header=BB8_3 Depth=1
	.loc	2 0 13 is_stmt 0                @ rt-thread/components/drivers/sdio/mmc.c:0:13
	b	.LBB8_28
.LBB8_28:                               @   in Loop: Header=BB8_3 Depth=1
	.loc	2 360 3 is_stmt 1               @ rt-thread/components/drivers/sdio/mmc.c:360:3
	b	.LBB8_29
.Ltmp195:
.LBB8_29:                               @   in Loop: Header=BB8_3 Depth=1
	.loc	2 315 66                        @ rt-thread/components/drivers/sdio/mmc.c:315:66
	ldr	r0, [sp, #12]
	adds	r0, #1
	str	r0, [sp, #12]
	.loc	2 315 3 is_stmt 0               @ rt-thread/components/drivers/sdio/mmc.c:315:3
	b	.LBB8_3
.Ltmp196:
.LBB8_30:
	.loc	2 362 10 is_stmt 1              @ rt-thread/components/drivers/sdio/mmc.c:362:10
	ldr	r0, [sp, #4]
	.loc	2 362 3 is_stmt 0               @ rt-thread/components/drivers/sdio/mmc.c:362:3
	str	r0, [sp, #52]
	b	.LBB8_31
.LBB8_31:
	.loc	2 363 1 is_stmt 1               @ rt-thread/components/drivers/sdio/mmc.c:363:1
	ldr	r0, [sp, #52]
	add	sp, #56
	pop	{r7, pc}
.Ltmp197:
.Lfunc_end8:
	.size	mmc_select_bus_width, .Lfunc_end8-mmc_select_bus_width
	.cfi_endproc
	.cantunwind
	.fnend
                                        @ -- End function
	.section	.text.GET_BITS,"ax",%progbits
	.p2align	3                               @ -- Begin function GET_BITS
	.type	GET_BITS,%function
	.code	16                              @ @GET_BITS
	.thumb_func
GET_BITS:
.Lfunc_begin9:
	.loc	2 48 0                          @ rt-thread/components/drivers/sdio/mmc.c:48:0
	.fnstart
	.cfi_startproc
@ %bb.0:
	.pad	#36
	sub	sp, #36
	.cfi_def_cfa_offset 36
	str	r0, [sp, #32]
	str	r1, [sp, #28]
	str	r2, [sp, #24]
.Ltmp198:
	.loc	2 49 35 prologue_end            @ rt-thread/components/drivers/sdio/mmc.c:49:35
	ldr	r0, [sp, #24]
	.loc	2 49 26 is_stmt 0               @ rt-thread/components/drivers/sdio/mmc.c:49:26
	str	r0, [sp, #20]
	.loc	2 50 37 is_stmt 1               @ rt-thread/components/drivers/sdio/mmc.c:50:37
	ldr	r0, [sp, #20]
	cmp	r0, #31
	bgt	.LBB9_2
	b	.LBB9_1
.LBB9_1:
	.loc	2 50 56 is_stmt 0               @ rt-thread/components/drivers/sdio/mmc.c:50:56
	ldr	r1, [sp, #20]
	movs	r0, #1
	.loc	2 50 53                         @ rt-thread/components/drivers/sdio/mmc.c:50:53
	lsls	r0, r1
	.loc	2 50 37                         @ rt-thread/components/drivers/sdio/mmc.c:50:37
	str	r0, [sp]                        @ 4-byte Spill
	b	.LBB9_3
.LBB9_2:
	.loc	2 0 37                          @ rt-thread/components/drivers/sdio/mmc.c:0:37
	movs	r0, #0
	.loc	2 50 37                         @ rt-thread/components/drivers/sdio/mmc.c:50:37
	str	r0, [sp]                        @ 4-byte Spill
	b	.LBB9_3
.LBB9_3:
	ldr	r0, [sp]                        @ 4-byte Reload
	.loc	2 50 68                         @ rt-thread/components/drivers/sdio/mmc.c:50:68
	subs	r0, #1
	.loc	2 50 27                         @ rt-thread/components/drivers/sdio/mmc.c:50:27
	str	r0, [sp, #16]
	.loc	2 51 40 is_stmt 1               @ rt-thread/components/drivers/sdio/mmc.c:51:40
	ldr	r1, [sp, #28]
	movs	r0, #3
	.loc	2 51 36 is_stmt 0               @ rt-thread/components/drivers/sdio/mmc.c:51:36
	sub.w	r0, r0, r1, lsr #5
	.loc	2 51 26                         @ rt-thread/components/drivers/sdio/mmc.c:51:26
	str	r0, [sp, #12]
	.loc	2 52 36 is_stmt 1               @ rt-thread/components/drivers/sdio/mmc.c:52:36
	ldr	r0, [sp, #28]
	.loc	2 52 43 is_stmt 0               @ rt-thread/components/drivers/sdio/mmc.c:52:43
	and	r0, r0, #31
	.loc	2 52 26                         @ rt-thread/components/drivers/sdio/mmc.c:52:26
	str	r0, [sp, #8]
	.loc	2 55 17 is_stmt 1               @ rt-thread/components/drivers/sdio/mmc.c:55:17
	ldr	r0, [sp, #32]
	.loc	2 55 22 is_stmt 0               @ rt-thread/components/drivers/sdio/mmc.c:55:22
	ldr	r1, [sp, #12]
	.loc	2 55 17                         @ rt-thread/components/drivers/sdio/mmc.c:55:17
	ldr.w	r0, [r0, r1, lsl #2]
	.loc	2 55 32                         @ rt-thread/components/drivers/sdio/mmc.c:55:32
	ldr	r1, [sp, #8]
	.loc	2 55 29                         @ rt-thread/components/drivers/sdio/mmc.c:55:29
	lsrs	r0, r1
	.loc	2 55 15                         @ rt-thread/components/drivers/sdio/mmc.c:55:15
	str	r0, [sp, #4]
.Ltmp199:
	.loc	2 56 13 is_stmt 1               @ rt-thread/components/drivers/sdio/mmc.c:56:13
	ldr	r0, [sp, #20]
	.loc	2 56 22 is_stmt 0               @ rt-thread/components/drivers/sdio/mmc.c:56:22
	ldr	r1, [sp, #8]
	.loc	2 56 20                         @ rt-thread/components/drivers/sdio/mmc.c:56:20
	add	r0, r1
.Ltmp200:
	.loc	2 56 13                         @ rt-thread/components/drivers/sdio/mmc.c:56:13
	cmp	r0, #33
	blt	.LBB9_5
	b	.LBB9_4
.LBB9_4:
.Ltmp201:
	.loc	2 57 22 is_stmt 1               @ rt-thread/components/drivers/sdio/mmc.c:57:22
	ldr	r0, [sp, #32]
	.loc	2 57 27 is_stmt 0               @ rt-thread/components/drivers/sdio/mmc.c:57:27
	ldr	r1, [sp, #12]
	.loc	2 57 22                         @ rt-thread/components/drivers/sdio/mmc.c:57:22
	add.w	r0, r0, r1, lsl #2
	ldr	r0, [r0, #-4]
	.loc	2 57 46                         @ rt-thread/components/drivers/sdio/mmc.c:57:46
	ldr	r1, [sp, #8]
	.loc	2 57 44                         @ rt-thread/components/drivers/sdio/mmc.c:57:44
	rsb.w	r1, r1, #32
	.loc	2 57 54                         @ rt-thread/components/drivers/sdio/mmc.c:57:54
	asrs	r2, r1, #31
	add.w	r2, r1, r2, lsr #27
	bic	r2, r2, #31
	subs	r1, r1, r2
	.loc	2 57 36                         @ rt-thread/components/drivers/sdio/mmc.c:57:36
	lsl.w	r1, r0, r1
	.loc	2 57 19                         @ rt-thread/components/drivers/sdio/mmc.c:57:19
	ldr	r0, [sp, #4]
	orrs	r0, r1
	str	r0, [sp, #4]
	.loc	2 57 13                         @ rt-thread/components/drivers/sdio/mmc.c:57:13
	b	.LBB9_5
.Ltmp202:
.LBB9_5:
	.loc	2 59 16 is_stmt 1               @ rt-thread/components/drivers/sdio/mmc.c:59:16
	ldr	r0, [sp, #4]
	.loc	2 59 24 is_stmt 0               @ rt-thread/components/drivers/sdio/mmc.c:59:24
	ldr	r1, [sp, #16]
	.loc	2 59 22                         @ rt-thread/components/drivers/sdio/mmc.c:59:22
	ands	r0, r1
	.loc	2 59 9                          @ rt-thread/components/drivers/sdio/mmc.c:59:9
	add	sp, #36
	bx	lr
.Ltmp203:
.Lfunc_end9:
	.size	GET_BITS, .Lfunc_end9-GET_BITS
	.cfi_endproc
	.cantunwind
	.fnend
                                        @ -- End function
	.section	.text.mmc_switch,"ax",%progbits
	.p2align	3                               @ -- Begin function mmc_switch
	.type	mmc_switch,%function
	.code	16                              @ @mmc_switch
	.thumb_func
mmc_switch:
.Lfunc_begin10:
	.loc	2 216 0 is_stmt 1               @ rt-thread/components/drivers/sdio/mmc.c:216:0
	.fnstart
	.cfi_startproc
@ %bb.0:
	.save	{r7, lr}
	push	{r7, lr}
	.cfi_def_cfa_offset 8
	.cfi_offset lr, -4
	.cfi_offset r7, -8
	.pad	#72
	sub	sp, #72
	.cfi_def_cfa_offset 80
                                        @ kill: def $r12 killed $r3
                                        @ kill: def $r12 killed $r2
                                        @ kill: def $r12 killed $r1
	str	r0, [sp, #64]
	strb.w	r1, [sp, #63]
	strb.w	r2, [sp, #62]
	strb.w	r3, [sp, #61]
.Ltmp204:
	.loc	2 218 32 prologue_end           @ rt-thread/components/drivers/sdio/mmc.c:218:32
	ldr	r0, [sp, #64]
	.loc	2 218 38 is_stmt 0              @ rt-thread/components/drivers/sdio/mmc.c:218:38
	ldr	r0, [r0]
	.loc	2 218 25                        @ rt-thread/components/drivers/sdio/mmc.c:218:25
	str	r0, [sp, #52]
	add	r0, sp, #8
	str	r0, [sp, #4]                    @ 4-byte Spill
	movs	r1, #44
	.loc	2 219 23 is_stmt 1              @ rt-thread/components/drivers/sdio/mmc.c:219:23
	bl	__aeabi_memclr4
	ldr	r1, [sp, #4]                    @ 4-byte Reload
	movs	r0, #6
	.loc	2 221 16                        @ rt-thread/components/drivers/sdio/mmc.c:221:16
	str	r0, [sp, #8]
	.loc	2 223 6                         @ rt-thread/components/drivers/sdio/mmc.c:223:6
	ldrb.w	r0, [sp, #62]
	.loc	2 223 12 is_stmt 0              @ rt-thread/components/drivers/sdio/mmc.c:223:12
	lsls	r0, r0, #16
	.loc	2 223 22                        @ rt-thread/components/drivers/sdio/mmc.c:223:22
	ldrb.w	r2, [sp, #61]
	.loc	2 222 48 is_stmt 1              @ rt-thread/components/drivers/sdio/mmc.c:222:48
	orr.w	r0, r0, r2, lsl #8
	.loc	2 223 36                        @ rt-thread/components/drivers/sdio/mmc.c:223:36
	ldrb.w	r2, [sp, #63]
	.loc	2 223 19 is_stmt 0              @ rt-thread/components/drivers/sdio/mmc.c:223:19
	add	r0, r2
	.loc	2 223 34                        @ rt-thread/components/drivers/sdio/mmc.c:223:34
	add.w	r0, r0, #50331648
	.loc	2 222 11 is_stmt 1              @ rt-thread/components/drivers/sdio/mmc.c:222:11
	str	r0, [sp, #12]
	movs	r0, #65
	.loc	2 224 13                        @ rt-thread/components/drivers/sdio/mmc.c:224:13
	str	r0, [sp, #32]
	.loc	2 226 24                        @ rt-thread/components/drivers/sdio/mmc.c:226:24
	ldr	r0, [sp, #52]
	movs	r2, #3
	.loc	2 226 9 is_stmt 0               @ rt-thread/components/drivers/sdio/mmc.c:226:9
	bl	mmcsd_send_cmd
	.loc	2 226 7                         @ rt-thread/components/drivers/sdio/mmc.c:226:7
	str	r0, [sp, #56]
.Ltmp205:
	.loc	2 227 7 is_stmt 1               @ rt-thread/components/drivers/sdio/mmc.c:227:7
	ldr	r0, [sp, #56]
.Ltmp206:
	.loc	2 227 7 is_stmt 0               @ rt-thread/components/drivers/sdio/mmc.c:227:7
	cbz	r0, .LBB10_2
	b	.LBB10_1
.LBB10_1:
.Ltmp207:
	.loc	2 228 12 is_stmt 1              @ rt-thread/components/drivers/sdio/mmc.c:228:12
	ldr	r0, [sp, #56]
	.loc	2 228 5 is_stmt 0               @ rt-thread/components/drivers/sdio/mmc.c:228:5
	str	r0, [sp, #68]
	b	.LBB10_3
.Ltmp208:
.LBB10_2:
	.loc	2 0 5                           @ rt-thread/components/drivers/sdio/mmc.c:0:5
	movs	r0, #0
	.loc	2 230 3 is_stmt 1               @ rt-thread/components/drivers/sdio/mmc.c:230:3
	str	r0, [sp, #68]
	b	.LBB10_3
.LBB10_3:
	.loc	2 231 1                         @ rt-thread/components/drivers/sdio/mmc.c:231:1
	ldr	r0, [sp, #68]
	add	sp, #72
	pop	{r7, pc}
.Ltmp209:
.Lfunc_end10:
	.size	mmc_switch, .Lfunc_end10-mmc_switch
	.cfi_endproc
	.cantunwind
	.fnend
                                        @ -- End function
	.section	.text.mmc_compare_ext_csds,"ax",%progbits
	.p2align	3                               @ -- Begin function mmc_compare_ext_csds
	.type	mmc_compare_ext_csds,%function
	.code	16                              @ @mmc_compare_ext_csds
	.thumb_func
mmc_compare_ext_csds:
.Lfunc_begin11:
	.loc	2 235 0                         @ rt-thread/components/drivers/sdio/mmc.c:235:0
	.fnstart
	.cfi_startproc
@ %bb.0:
	.save	{r7, lr}
	push	{r7, lr}
	.cfi_def_cfa_offset 8
	.cfi_offset lr, -4
	.cfi_offset r7, -8
	.pad	#32
	sub	sp, #32
	.cfi_def_cfa_offset 40
	str	r0, [sp, #24]
	str	r1, [sp, #20]
	str	r2, [sp, #16]
.Ltmp210:
	.loc	2 239 7 prologue_end            @ rt-thread/components/drivers/sdio/mmc.c:239:7
	ldr	r0, [sp, #16]
.Ltmp211:
	.loc	2 239 7 is_stmt 0               @ rt-thread/components/drivers/sdio/mmc.c:239:7
	cbnz	r0, .LBB11_2
	b	.LBB11_1
.LBB11_1:
	.loc	2 0 7                           @ rt-thread/components/drivers/sdio/mmc.c:0:7
	movs	r0, #0
.Ltmp212:
	.loc	2 240 5 is_stmt 1               @ rt-thread/components/drivers/sdio/mmc.c:240:5
	str	r0, [sp, #28]
	b	.LBB11_35
.Ltmp213:
.LBB11_2:
	.loc	2 242 25                        @ rt-thread/components/drivers/sdio/mmc.c:242:25
	ldr	r0, [sp, #24]
	add	r1, sp, #12
	.loc	2 242 9 is_stmt 0               @ rt-thread/components/drivers/sdio/mmc.c:242:9
	bl	mmc_get_ext_csd
	.loc	2 242 7                         @ rt-thread/components/drivers/sdio/mmc.c:242:7
	str	r0, [sp, #8]
.Ltmp214:
	.loc	2 244 7 is_stmt 1               @ rt-thread/components/drivers/sdio/mmc.c:244:7
	ldr	r0, [sp, #8]
	.loc	2 244 11 is_stmt 0              @ rt-thread/components/drivers/sdio/mmc.c:244:11
	cbnz	r0, .LBB11_4
	b	.LBB11_3
.LBB11_3:
	.loc	2 244 14                        @ rt-thread/components/drivers/sdio/mmc.c:244:14
	ldr	r0, [sp, #12]
.Ltmp215:
	.loc	2 244 7                         @ rt-thread/components/drivers/sdio/mmc.c:244:7
	cbnz	r0, .LBB11_5
	b	.LBB11_4
.LBB11_4:
	.loc	2 0 7                           @ rt-thread/components/drivers/sdio/mmc.c:0:7
	mov.w	r0, #-1
.Ltmp216:
	.loc	2 245 9 is_stmt 1               @ rt-thread/components/drivers/sdio/mmc.c:245:9
	str	r0, [sp, #8]
	.loc	2 246 5                         @ rt-thread/components/drivers/sdio/mmc.c:246:5
	b	.LBB11_34
.Ltmp217:
.LBB11_5:
	.loc	2 250 12                        @ rt-thread/components/drivers/sdio/mmc.c:250:12
	ldr	r0, [sp, #20]
	ldrb.w	r1, [r0, #160]
	.loc	2 250 50 is_stmt 0              @ rt-thread/components/drivers/sdio/mmc.c:250:50
	ldr	r0, [sp, #12]
	ldrb.w	r2, [r0, #160]
	movs	r0, #0
	.loc	2 250 89                        @ rt-thread/components/drivers/sdio/mmc.c:250:89
	cmp	r1, r2
	str	r0, [sp, #4]                    @ 4-byte Spill
	bne.w	.LBB11_31
	b	.LBB11_6
.LBB11_6:
	.loc	2 251 12 is_stmt 1              @ rt-thread/components/drivers/sdio/mmc.c:251:12
	ldr	r0, [sp, #20]
	ldrb.w	r1, [r0, #181]
	.loc	2 251 48 is_stmt 0              @ rt-thread/components/drivers/sdio/mmc.c:251:48
	ldr	r0, [sp, #12]
	ldrb.w	r2, [r0, #181]
	movs	r0, #0
	.loc	2 251 85                        @ rt-thread/components/drivers/sdio/mmc.c:251:85
	cmp	r1, r2
	str	r0, [sp, #4]                    @ 4-byte Spill
	bne.w	.LBB11_31
	b	.LBB11_7
.LBB11_7:
	.loc	2 252 12 is_stmt 1              @ rt-thread/components/drivers/sdio/mmc.c:252:12
	ldr	r0, [sp, #20]
	ldrb.w	r1, [r0, #192]
	.loc	2 252 36 is_stmt 0              @ rt-thread/components/drivers/sdio/mmc.c:252:36
	ldr	r0, [sp, #12]
	ldrb.w	r2, [r0, #192]
	movs	r0, #0
	.loc	2 252 61                        @ rt-thread/components/drivers/sdio/mmc.c:252:61
	cmp	r1, r2
	str	r0, [sp, #4]                    @ 4-byte Spill
	bne.w	.LBB11_31
	b	.LBB11_8
.LBB11_8:
	.loc	2 253 12 is_stmt 1              @ rt-thread/components/drivers/sdio/mmc.c:253:12
	ldr	r0, [sp, #20]
	ldrb.w	r1, [r0, #194]
	.loc	2 253 42 is_stmt 0              @ rt-thread/components/drivers/sdio/mmc.c:253:42
	ldr	r0, [sp, #12]
	ldrb.w	r2, [r0, #194]
	movs	r0, #0
	.loc	2 253 73                        @ rt-thread/components/drivers/sdio/mmc.c:253:73
	cmp	r1, r2
	str	r0, [sp, #4]                    @ 4-byte Spill
	bne.w	.LBB11_31
	b	.LBB11_9
.LBB11_9:
	.loc	2 254 12 is_stmt 1              @ rt-thread/components/drivers/sdio/mmc.c:254:12
	ldr	r0, [sp, #20]
	ldrb.w	r1, [r0, #196]
	.loc	2 254 42 is_stmt 0              @ rt-thread/components/drivers/sdio/mmc.c:254:42
	ldr	r0, [sp, #12]
	ldrb.w	r2, [r0, #196]
	movs	r0, #0
	.loc	2 254 73                        @ rt-thread/components/drivers/sdio/mmc.c:254:73
	cmp	r1, r2
	str	r0, [sp, #4]                    @ 4-byte Spill
	bne.w	.LBB11_31
	b	.LBB11_10
.LBB11_10:
	.loc	2 255 12 is_stmt 1              @ rt-thread/components/drivers/sdio/mmc.c:255:12
	ldr	r0, [sp, #20]
	ldrb.w	r1, [r0, #217]
	.loc	2 255 44 is_stmt 0              @ rt-thread/components/drivers/sdio/mmc.c:255:44
	ldr	r0, [sp, #12]
	ldrb.w	r2, [r0, #217]
	movs	r0, #0
	.loc	2 255 77                        @ rt-thread/components/drivers/sdio/mmc.c:255:77
	cmp	r1, r2
	str	r0, [sp, #4]                    @ 4-byte Spill
	bne.w	.LBB11_31
	b	.LBB11_11
.LBB11_11:
	.loc	2 256 12 is_stmt 1              @ rt-thread/components/drivers/sdio/mmc.c:256:12
	ldr	r0, [sp, #20]
	ldrb.w	r1, [r0, #221]
	.loc	2 256 47 is_stmt 0              @ rt-thread/components/drivers/sdio/mmc.c:256:47
	ldr	r0, [sp, #12]
	ldrb.w	r2, [r0, #221]
	movs	r0, #0
	.loc	2 256 83                        @ rt-thread/components/drivers/sdio/mmc.c:256:83
	cmp	r1, r2
	str	r0, [sp, #4]                    @ 4-byte Spill
	bne.w	.LBB11_31
	b	.LBB11_12
.LBB11_12:
	.loc	2 257 12 is_stmt 1              @ rt-thread/components/drivers/sdio/mmc.c:257:12
	ldr	r0, [sp, #20]
	ldrb.w	r1, [r0, #223]
	.loc	2 257 51 is_stmt 0              @ rt-thread/components/drivers/sdio/mmc.c:257:51
	ldr	r0, [sp, #12]
	ldrb.w	r2, [r0, #223]
	movs	r0, #0
	.loc	2 257 91                        @ rt-thread/components/drivers/sdio/mmc.c:257:91
	cmp	r1, r2
	str	r0, [sp, #4]                    @ 4-byte Spill
	bne.w	.LBB11_31
	b	.LBB11_13
.LBB11_13:
	.loc	2 258 12 is_stmt 1              @ rt-thread/components/drivers/sdio/mmc.c:258:12
	ldr	r0, [sp, #20]
	ldrb.w	r1, [r0, #224]
	.loc	2 258 50 is_stmt 0              @ rt-thread/components/drivers/sdio/mmc.c:258:50
	ldr	r0, [sp, #12]
	ldrb.w	r2, [r0, #224]
	movs	r0, #0
	.loc	2 258 89                        @ rt-thread/components/drivers/sdio/mmc.c:258:89
	cmp	r1, r2
	str	r0, [sp, #4]                    @ 4-byte Spill
	bne.w	.LBB11_31
	b	.LBB11_14
.LBB11_14:
	.loc	2 259 12 is_stmt 1              @ rt-thread/components/drivers/sdio/mmc.c:259:12
	ldr	r0, [sp, #20]
	ldrb.w	r1, [r0, #229]
	.loc	2 259 46 is_stmt 0              @ rt-thread/components/drivers/sdio/mmc.c:259:46
	ldr	r0, [sp, #12]
	ldrb.w	r2, [r0, #229]
	movs	r0, #0
	.loc	2 259 81                        @ rt-thread/components/drivers/sdio/mmc.c:259:81
	cmp	r1, r2
	str	r0, [sp, #4]                    @ 4-byte Spill
	bne.w	.LBB11_31
	b	.LBB11_15
.LBB11_15:
	.loc	2 260 12 is_stmt 1              @ rt-thread/components/drivers/sdio/mmc.c:260:12
	ldr	r0, [sp, #20]
	ldrb.w	r1, [r0, #230]
	.loc	2 260 47 is_stmt 0              @ rt-thread/components/drivers/sdio/mmc.c:260:47
	ldr	r0, [sp, #12]
	ldrb.w	r2, [r0, #230]
	movs	r0, #0
	.loc	2 260 83                        @ rt-thread/components/drivers/sdio/mmc.c:260:83
	cmp	r1, r2
	str	r0, [sp, #4]                    @ 4-byte Spill
	bne.w	.LBB11_31
	b	.LBB11_16
.LBB11_16:
	.loc	2 261 12 is_stmt 1              @ rt-thread/components/drivers/sdio/mmc.c:261:12
	ldr	r0, [sp, #20]
	ldrb.w	r1, [r0, #231]
	.loc	2 261 52 is_stmt 0              @ rt-thread/components/drivers/sdio/mmc.c:261:52
	ldr	r0, [sp, #12]
	ldrb.w	r2, [r0, #231]
	movs	r0, #0
	.loc	2 261 93                        @ rt-thread/components/drivers/sdio/mmc.c:261:93
	cmp	r1, r2
	str	r0, [sp, #4]                    @ 4-byte Spill
	bne.w	.LBB11_31
	b	.LBB11_17
.LBB11_17:
	.loc	2 262 12 is_stmt 1              @ rt-thread/components/drivers/sdio/mmc.c:262:12
	ldr	r0, [sp, #20]
	ldrb.w	r1, [r0, #232]
	.loc	2 262 42 is_stmt 0              @ rt-thread/components/drivers/sdio/mmc.c:262:42
	ldr	r0, [sp, #12]
	ldrb.w	r2, [r0, #232]
	movs	r0, #0
	.loc	2 262 73                        @ rt-thread/components/drivers/sdio/mmc.c:262:73
	cmp	r1, r2
	str	r0, [sp, #4]                    @ 4-byte Spill
	bne.w	.LBB11_31
	b	.LBB11_18
.LBB11_18:
	.loc	2 263 12 is_stmt 1              @ rt-thread/components/drivers/sdio/mmc.c:263:12
	ldr	r0, [sp, #20]
	ldrb.w	r1, [r0, #212]
	.loc	2 263 44 is_stmt 0              @ rt-thread/components/drivers/sdio/mmc.c:263:44
	ldr	r0, [sp, #12]
	ldrb.w	r2, [r0, #212]
	movs	r0, #0
	.loc	2 263 77                        @ rt-thread/components/drivers/sdio/mmc.c:263:77
	cmp	r1, r2
	str	r0, [sp, #4]                    @ 4-byte Spill
	bne.w	.LBB11_31
	b	.LBB11_19
.LBB11_19:
	.loc	2 264 12 is_stmt 1              @ rt-thread/components/drivers/sdio/mmc.c:264:12
	ldr	r0, [sp, #20]
	ldrb.w	r1, [r0, #213]
	.loc	2 264 44 is_stmt 0              @ rt-thread/components/drivers/sdio/mmc.c:264:44
	ldr	r0, [sp, #12]
	ldrb.w	r2, [r0, #213]
	movs	r0, #0
	.loc	2 264 77                        @ rt-thread/components/drivers/sdio/mmc.c:264:77
	cmp	r1, r2
	str	r0, [sp, #4]                    @ 4-byte Spill
	bne	.LBB11_31
	b	.LBB11_20
.LBB11_20:
	.loc	2 265 12 is_stmt 1              @ rt-thread/components/drivers/sdio/mmc.c:265:12
	ldr	r0, [sp, #20]
	ldrb.w	r1, [r0, #214]
	.loc	2 265 44 is_stmt 0              @ rt-thread/components/drivers/sdio/mmc.c:265:44
	ldr	r0, [sp, #12]
	ldrb.w	r2, [r0, #214]
	movs	r0, #0
	.loc	2 265 77                        @ rt-thread/components/drivers/sdio/mmc.c:265:77
	cmp	r1, r2
	str	r0, [sp, #4]                    @ 4-byte Spill
	bne	.LBB11_31
	b	.LBB11_21
.LBB11_21:
	.loc	2 266 12 is_stmt 1              @ rt-thread/components/drivers/sdio/mmc.c:266:12
	ldr	r0, [sp, #20]
	ldrb.w	r1, [r0, #215]
	.loc	2 266 44 is_stmt 0              @ rt-thread/components/drivers/sdio/mmc.c:266:44
	ldr	r0, [sp, #12]
	ldrb.w	r2, [r0, #215]
	movs	r0, #0
	.loc	2 266 77                        @ rt-thread/components/drivers/sdio/mmc.c:266:77
	cmp	r1, r2
	str	r0, [sp, #4]                    @ 4-byte Spill
	bne	.LBB11_31
	b	.LBB11_22
.LBB11_22:
	.loc	2 267 12 is_stmt 1              @ rt-thread/components/drivers/sdio/mmc.c:267:12
	ldr	r0, [sp, #20]
	ldrb.w	r1, [r0, #200]
	.loc	2 267 46 is_stmt 0              @ rt-thread/components/drivers/sdio/mmc.c:267:46
	ldr	r0, [sp, #12]
	ldrb.w	r2, [r0, #200]
	movs	r0, #0
	.loc	2 267 81                        @ rt-thread/components/drivers/sdio/mmc.c:267:81
	cmp	r1, r2
	str	r0, [sp, #4]                    @ 4-byte Spill
	bne	.LBB11_31
	b	.LBB11_23
.LBB11_23:
	.loc	2 268 12 is_stmt 1              @ rt-thread/components/drivers/sdio/mmc.c:268:12
	ldr	r0, [sp, #20]
	ldrb.w	r1, [r0, #201]
	.loc	2 268 46 is_stmt 0              @ rt-thread/components/drivers/sdio/mmc.c:268:46
	ldr	r0, [sp, #12]
	ldrb.w	r2, [r0, #201]
	movs	r0, #0
	.loc	2 268 81                        @ rt-thread/components/drivers/sdio/mmc.c:268:81
	cmp	r1, r2
	str	r0, [sp, #4]                    @ 4-byte Spill
	bne	.LBB11_31
	b	.LBB11_24
.LBB11_24:
	.loc	2 269 12 is_stmt 1              @ rt-thread/components/drivers/sdio/mmc.c:269:12
	ldr	r0, [sp, #20]
	ldrb.w	r1, [r0, #202]
	.loc	2 269 46 is_stmt 0              @ rt-thread/components/drivers/sdio/mmc.c:269:46
	ldr	r0, [sp, #12]
	ldrb.w	r2, [r0, #202]
	movs	r0, #0
	.loc	2 269 81                        @ rt-thread/components/drivers/sdio/mmc.c:269:81
	cmp	r1, r2
	str	r0, [sp, #4]                    @ 4-byte Spill
	bne	.LBB11_31
	b	.LBB11_25
.LBB11_25:
	.loc	2 270 12 is_stmt 1              @ rt-thread/components/drivers/sdio/mmc.c:270:12
	ldr	r0, [sp, #20]
	ldrb.w	r1, [r0, #203]
	.loc	2 270 46 is_stmt 0              @ rt-thread/components/drivers/sdio/mmc.c:270:46
	ldr	r0, [sp, #12]
	ldrb.w	r2, [r0, #203]
	movs	r0, #0
	.loc	2 270 81                        @ rt-thread/components/drivers/sdio/mmc.c:270:81
	cmp	r1, r2
	str	r0, [sp, #4]                    @ 4-byte Spill
	bne	.LBB11_31
	b	.LBB11_26
.LBB11_26:
	.loc	2 271 12 is_stmt 1              @ rt-thread/components/drivers/sdio/mmc.c:271:12
	ldr	r0, [sp, #20]
	ldrb.w	r1, [r0, #236]
	.loc	2 271 47 is_stmt 0              @ rt-thread/components/drivers/sdio/mmc.c:271:47
	ldr	r0, [sp, #12]
	ldrb.w	r2, [r0, #236]
	movs	r0, #0
	.loc	2 271 83                        @ rt-thread/components/drivers/sdio/mmc.c:271:83
	cmp	r1, r2
	str	r0, [sp, #4]                    @ 4-byte Spill
	bne	.LBB11_31
	b	.LBB11_27
.LBB11_27:
	.loc	2 272 12 is_stmt 1              @ rt-thread/components/drivers/sdio/mmc.c:272:12
	ldr	r0, [sp, #20]
	ldrb.w	r1, [r0, #237]
	.loc	2 272 47 is_stmt 0              @ rt-thread/components/drivers/sdio/mmc.c:272:47
	ldr	r0, [sp, #12]
	ldrb.w	r2, [r0, #237]
	movs	r0, #0
	.loc	2 272 83                        @ rt-thread/components/drivers/sdio/mmc.c:272:83
	cmp	r1, r2
	str	r0, [sp, #4]                    @ 4-byte Spill
	bne	.LBB11_31
	b	.LBB11_28
.LBB11_28:
	.loc	2 273 12 is_stmt 1              @ rt-thread/components/drivers/sdio/mmc.c:273:12
	ldr	r0, [sp, #20]
	ldrb.w	r1, [r0, #238]
	.loc	2 273 50 is_stmt 0              @ rt-thread/components/drivers/sdio/mmc.c:273:50
	ldr	r0, [sp, #12]
	ldrb.w	r2, [r0, #238]
	movs	r0, #0
	.loc	2 273 89                        @ rt-thread/components/drivers/sdio/mmc.c:273:89
	cmp	r1, r2
	str	r0, [sp, #4]                    @ 4-byte Spill
	bne	.LBB11_31
	b	.LBB11_29
.LBB11_29:
	.loc	2 274 12 is_stmt 1              @ rt-thread/components/drivers/sdio/mmc.c:274:12
	ldr	r0, [sp, #20]
	ldrb.w	r1, [r0, #239]
	.loc	2 274 50 is_stmt 0              @ rt-thread/components/drivers/sdio/mmc.c:274:50
	ldr	r0, [sp, #12]
	ldrb.w	r2, [r0, #239]
	movs	r0, #0
	.loc	2 274 89                        @ rt-thread/components/drivers/sdio/mmc.c:274:89
	cmp	r1, r2
	str	r0, [sp, #4]                    @ 4-byte Spill
	bne	.LBB11_31
	b	.LBB11_30
.LBB11_30:
	.loc	2 275 12 is_stmt 1              @ rt-thread/components/drivers/sdio/mmc.c:275:12
	ldr	r0, [sp, #20]
	ldrb.w	r0, [r0, #253]
	.loc	2 275 51 is_stmt 0              @ rt-thread/components/drivers/sdio/mmc.c:275:51
	ldr	r1, [sp, #12]
	ldrb.w	r1, [r1, #253]
	.loc	2 275 48                        @ rt-thread/components/drivers/sdio/mmc.c:275:48
	subs	r0, r0, r1
	clz	r0, r0
	lsrs	r0, r0, #5
	str	r0, [sp, #4]                    @ 4-byte Spill
	b	.LBB11_31
.LBB11_31:
	.loc	2 0 0                           @ rt-thread/components/drivers/sdio/mmc.c:0:0
	ldr	r1, [sp, #4]                    @ 4-byte Reload
	movs	r0, #1
	.loc	2 250 9 is_stmt 1               @ rt-thread/components/drivers/sdio/mmc.c:250:9
	bics	r0, r1
	.loc	2 250 7 is_stmt 0               @ rt-thread/components/drivers/sdio/mmc.c:250:7
	str	r0, [sp, #8]
.Ltmp218:
	.loc	2 277 7 is_stmt 1               @ rt-thread/components/drivers/sdio/mmc.c:277:7
	ldr	r0, [sp, #8]
.Ltmp219:
	.loc	2 277 7 is_stmt 0               @ rt-thread/components/drivers/sdio/mmc.c:277:7
	cbz	r0, .LBB11_33
	b	.LBB11_32
.LBB11_32:
	.loc	2 0 7                           @ rt-thread/components/drivers/sdio/mmc.c:0:7
	mov.w	r0, #-1
.Ltmp220:
	.loc	2 278 10 is_stmt 1              @ rt-thread/components/drivers/sdio/mmc.c:278:10
	str	r0, [sp, #8]
	.loc	2 278 6 is_stmt 0               @ rt-thread/components/drivers/sdio/mmc.c:278:6
	b	.LBB11_33
.LBB11_33:
	.loc	2 277 7 is_stmt 1               @ rt-thread/components/drivers/sdio/mmc.c:277:7
	b	.LBB11_34
.Ltmp221:
.LBB11_34:
	@DEBUG_LABEL: mmc_compare_ext_csds:out
	.loc	2 281 11                        @ rt-thread/components/drivers/sdio/mmc.c:281:11
	ldr	r0, [sp, #12]
	.loc	2 281 3 is_stmt 0               @ rt-thread/components/drivers/sdio/mmc.c:281:3
	bl	rt_free
	.loc	2 282 10 is_stmt 1              @ rt-thread/components/drivers/sdio/mmc.c:282:10
	ldr	r0, [sp, #8]
	.loc	2 282 3 is_stmt 0               @ rt-thread/components/drivers/sdio/mmc.c:282:3
	str	r0, [sp, #28]
	b	.LBB11_35
.LBB11_35:
	.loc	2 283 1 is_stmt 1               @ rt-thread/components/drivers/sdio/mmc.c:283:1
	ldr	r0, [sp, #28]
	add	sp, #32
	pop	{r7, pc}
.Ltmp222:
.Lfunc_end11:
	.size	mmc_compare_ext_csds, .Lfunc_end11-mmc_compare_ext_csds
	.cfi_endproc
	.cantunwind
	.fnend
                                        @ -- End function
	.type	.L.str,%object                  @ @.str
	.section	.rodata.str1.1,"aMS",%progbits,1
.L.str:
	.asciz	"[E/SDIO] "
	.size	.L.str, 10

	.type	.L.str.1,%object                @ @.str.1
.L.str.1:
	.asciz	"init MMC card failed!"
	.size	.L.str.1, 22

	.type	.L.str.2,%object                @ @.str.2
.L.str.2:
	.asciz	"\n"
	.size	.L.str.2, 2

	.type	.L.str.3,%object                @ @.str.3
.L.str.3:
	.asciz	"malloc card failed!"
	.size	.L.str.3, 20

	.type	.L.str.4,%object                @ @.str.4
.L.str.4:
	.asciz	"unrecognised CSD structure version %d!"
	.size	.L.str.4, 39

	.type	tacc_uint,%object               @ @tacc_uint
	.section	.rodata.tacc_uint,"a",%progbits
	.p2align	2
tacc_uint:
	.long	1                               @ 0x1
	.long	10                              @ 0xa
	.long	100                             @ 0x64
	.long	1000                            @ 0x3e8
	.long	10000                           @ 0x2710
	.long	100000                          @ 0x186a0
	.long	1000000                         @ 0xf4240
	.long	10000000                        @ 0x989680
	.size	tacc_uint, 32

	.type	tacc_value,%object              @ @tacc_value
	.section	.rodata.tacc_value,"a",%progbits
tacc_value:
	.ascii	"\000\n\f\r\017\024\031\036#(-27<FP"
	.size	tacc_value, 16

	.type	tran_unit,%object               @ @tran_unit
	.section	.rodata.tran_unit,"a",%progbits
	.p2align	2
tran_unit:
	.long	10000                           @ 0x2710
	.long	100000                          @ 0x186a0
	.long	1000000                         @ 0xf4240
	.long	10000000                        @ 0x989680
	.long	0                               @ 0x0
	.long	0                               @ 0x0
	.long	0                               @ 0x0
	.long	0                               @ 0x0
	.size	tran_unit, 32

	.type	tran_value,%object              @ @tran_value
	.section	.rodata.tran_value,"a",%progbits
tran_value:
	.ascii	"\000\n\f\r\017\024\031\036#(-27<FP"
	.size	tran_value, 16

	.type	.L.str.5,%object                @ @.str.5
	.section	.rodata.str1.1,"aMS",%progbits,1
.L.str.5:
	.asciz	"alloc memory failed when get ext csd!"
	.size	.L.str.5, 38

	.type	.L.str.6,%object                @ @.str.6
.L.str.6:
	.asciz	"emmc parse ext csd fail, invaild args"
	.size	.L.str.6, 38

	.type	.L.str.7,%object                @ @.str.7
.L.str.7:
	.asciz	"[I/SDIO] "
	.size	.L.str.7, 10

	.type	.L.str.8,%object                @ @.str.8
.L.str.8:
	.asciz	"emmc card capacity %d KB."
	.size	.L.str.8, 26

	.type	.L__const.mmc_select_bus_width.ext_csd_bits,%object @ @__const.mmc_select_bus_width.ext_csd_bits
	.section	.rodata.str4.4,"aMS",%progbits,4
	.p2align	2
.L__const.mmc_select_bus_width.ext_csd_bits:
	.long	2                               @ 0x2
	.long	1                               @ 0x1
	.long	0                               @ 0x0
	.size	.L__const.mmc_select_bus_width.ext_csd_bits, 12

	.type	.L__const.mmc_select_bus_width.bus_widths,%object @ @__const.mmc_select_bus_width.bus_widths
	.p2align	2
.L__const.mmc_select_bus_width.bus_widths:
	.long	3                               @ 0x3
	.long	2                               @ 0x2
	.long	0                               @ 0x0
	.size	.L__const.mmc_select_bus_width.bus_widths, 12

	.type	.L.str.9,%object                @ @.str.9
	.section	.rodata.str1.1,"aMS",%progbits,1
.L.str.9:
	.asciz	"switch to bus width 1 bit failed!"
	.size	.L.str.9, 34

	.type	.L.str.10,%object               @ @.str.10
.L.str.10:
	.asciz	"switch to bus width 4 bit failed!"
	.size	.L.str.10, 34

	.type	.L.str.11,%object               @ @.str.11
.L.str.11:
	.asciz	"switch to bus width 8 bit failed!"
	.size	.L.str.11, 34

	.file	4 "E:\\Smart-access-control\\Hardware\\CODE" "rt-thread/components/drivers/include\\drivers/mmcsd_card.h"
	.file	5 "E:\\Smart-access-control\\Hardware\\CODE" "rt-thread/components/drivers/include\\drivers/mmcsd_core.h"
	.section	".note.GNU-stack","",%progbits
	.eabi_attribute	30, 6	@ Tag_ABI_optimization_goals
	.ARM_attribute	16, 1	@ Tag_AV_eba