	.text
	.syntax unified
	.eabi_attribute	67, "2.09"	@ Tag_conformance
	.cpu	cortex-m7
	.eabi_attribute	6, 13	@ Tag_CPU_arch
	.eabi_attribute	7, 77	@ Tag_CPU_arch_profile
	.eabi_attribute	8, 0	@ Tag_ARM_ISA_use
	.eabi_attribute	9, 2	@ Tag_THUMB_ISA_use
	.fpu	fpv5-d16
	.eabi_attribute	36, 1	@ Tag_FP_HP_extension
	.eabi_attribute	34, 1	@ Tag_CPU_unaligned_access
	.eabi_attribute	17, 1	@ Tag_ABI_PCS_GOT_use
	.eabi_attribute	20, 2	@ Tag_ABI_FP_denormal
	.eabi_attribute	21, 0	@ Tag_ABI_FP_exceptions
	.eabi_attribute	23, 1	@ Tag_ABI_FP_number_model
	.eabi_attribute	24, 1	@ Tag_ABI_align_needed
	.eabi_attribute	25, 1	@ Tag_ABI_align_preserved
	.eabi_attribute	28, 1	@ Tag_ABI_VFP_args
	.eabi_attribute	38, 1	@ Tag_ABI_FP_16bit_format
	.eabi_attribute	18, 2	@ Tag_ABI_PCS_wchar_t
	.eabi_attribute	26, 1	@ Tag_ABI_enum_size
	.eabi_attribute	14, 0	@ Tag_ABI_PCS_R9_use
	.file	"mmcsd_core.c"
	.file	1 "E:\\Smart-access-control\\Hardware\\CODE" "rt-thread/include\\rtdef.h"
	.file	2 "E:\\Smart-access-control\\Hardware\\CODE" "rt-thread/components/drivers/sdio/mmcsd_core.c"
	.section	.text.mmcsd_host_lock,"ax",%progbits
	.hidden	mmcsd_host_lock                 @ -- Begin function mmcsd_host_lock
	.globl	mmcsd_host_lock
	.p2align	3
	.type	mmcsd_host_lock,%function
	.code	16                              @ @mmcsd_host_lock
	.thumb_func
mmcsd_host_lock:
.Lfunc_begin0:
	.loc	2 45 0                          @ rt-thread/components/drivers/sdio/mmcsd_core.c:45:0
	.fnstart
	.cfi_sections .debug_frame
	.cfi_startproc
@ %bb.0:
	.save	{r7, lr}
	push	{r7, lr}
	.cfi_def_cfa_offset 8
	.cfi_offset lr, -4
	.cfi_offset r7, -8
	.pad	#8
	sub	sp, #8
	.cfi_def_cfa_offset 16
	str	r0, [sp, #4]
.Ltmp0:
	.loc	2 46 20 prologue_end            @ rt-thread/components/drivers/sdio/mmcsd_core.c:46:20
	ldr	r0, [sp, #4]
	.loc	2 46 26 is_stmt 0               @ rt-thread/components/drivers/sdio/mmcsd_core.c:46:26
	adds	r0, #56
	mov.w	r1, #-1
	.loc	2 46 5                          @ rt-thread/components/drivers/sdio/mmcsd_core.c:46:5
	bl	rt_mutex_take
	.loc	2 47 1 is_stmt 1                @ rt-thread/components/drivers/sdio/mmcsd_core.c:47:1
	add	sp, #8
	pop	{r7, pc}
.Ltmp1:
.Lfunc_end0:
	.size	mmcsd_host_lock, .Lfunc_end0-mmcsd_host_lock
	.cfi_endproc
	.cantunwind
	.fnend
                                        @ -- End function
	.section	.text.mmcsd_host_unlock,"ax",%progbits
	.hidden	mmcsd_host_unlock               @ -- Begin function mmcsd_host_unlock
	.globl	mmcsd_host_unlock
	.p2align	3
	.type	mmcsd_host_unlock,%function
	.code	16                              @ @mmcsd_host_unlock
	.thumb_func
mmcsd_host_unlock:
.Lfunc_begin1:
	.loc	2 50 0                          @ rt-thread/components/drivers/sdio/mmcsd_core.c:50:0
	.fnstart
	.cfi_startproc
@ %bb.0:
	.save	{r7, lr}
	push	{r7, lr}
	.cfi_def_cfa_offset 8
	.cfi_offset lr, -4
	.cfi_offset r7, -8
	.pad	#8
	sub	sp, #8
	.cfi_def_cfa_offset 16
	str	r0, [sp, #4]
.Ltmp2:
	.loc	2 51 23 prologue_end            @ rt-thread/components/drivers/sdio/mmcsd_core.c:51:23
	ldr	r0, [sp, #4]
	.loc	2 51 29 is_stmt 0               @ rt-thread/components/drivers/sdio/mmcsd_core.c:51:29
	adds	r0, #56
	.loc	2 51 5                          @ rt-thread/components/drivers/sdio/mmcsd_core.c:51:5
	bl	rt_mutex_release
	.loc	2 52 1 is_stmt 1                @ rt-thread/components/drivers/sdio/mmcsd_core.c:52:1
	add	sp, #8
	pop	{r7, pc}
.Ltmp3:
.Lfunc_end1:
	.size	mmcsd_host_unlock, .Lfunc_end1-mmcsd_host_unlock
	.cfi_endproc
	.cantunwind
	.fnend
                                        @ -- End function
	.section	.text.mmcsd_req_complete,"ax",%progbits
	.hidden	mmcsd_req_complete              @ -- Begin function mmcsd_req_complete
	.globl	mmcsd_req_complete
	.p2align	3
	.type	mmcsd_req_complete,%function
	.code	16                              @ @mmcsd_req_complete
	.thumb_func
mmcsd_req_complete:
.Lfunc_begin2:
	.loc	2 55 0                          @ rt-thread/components/drivers/sdio/mmcsd_core.c:55:0
	.fnstart
	.cfi_startproc
@ %bb.0:
	.save	{r7, lr}
	push	{r7, lr}
	.cfi_def_cfa_offset 8
	.cfi_offset lr, -4
	.cfi_offset r7, -8
	.pad	#8
	sub	sp, #8
	.cfi_def_cfa_offset 16
	str	r0, [sp, #4]
.Ltmp4:
	.loc	2 56 21 prologue_end            @ rt-thread/components/drivers/sdio/mmcsd_core.c:56:21
	ldr	r0, [sp, #4]
	.loc	2 56 27 is_stmt 0               @ rt-thread/components/drivers/sdio/mmcsd_core.c:56:27
	adds	r0, #92
	.loc	2 56 5                          @ rt-thread/components/drivers/sdio/mmcsd_core.c:56:5
	bl	rt_sem_release
	.loc	2 57 1 is_stmt 1                @ rt-thread/components/drivers/sdio/mmcsd_core.c:57:1
	add	sp, #8
	pop	{r7, pc}
.Ltmp5:
.Lfunc_end2:
	.size	mmcsd_req_complete, .Lfunc_end2-mmcsd_req_complete
	.cfi_endproc
	.cantunwind
	.fnend
                                        @ -- End function
	.section	.text.mmcsd_send_request,"ax",%progbits
	.hidden	mmcsd_send_request              @ -- Begin function mmcsd_send_request
	.globl	mmcsd_send_request
	.p2align	3
	.type	mmcsd_send_request,%function
	.code	16                              @ @mmcsd_send_request
	.thumb_func
mmcsd_send_request:
.Lfunc_begin3:
	.loc	2 60 0                          @ rt-thread/components/drivers/sdio/mmcsd_core.c:60:0
	.fnstart
	.cfi_startproc
@ %bb.0:
	.save	{r7, lr}
	push	{r7, lr}
	.cfi_def_cfa_offset 8
	.cfi_offset lr, -4
	.cfi_offset r7, -8
	.pad	#16
	sub	sp, #16
	.cfi_def_cfa_offset 24
	str	r0, [sp, #12]
	str	r1, [sp, #8]
.Ltmp6:
	.loc	2 61 5 prologue_end             @ rt-thread/components/drivers/sdio/mmcsd_core.c:61:5
	b	.LBB3_1
.LBB3_1:                                @ =>This Inner Loop Header: Depth=1
.Ltmp7:
	.loc	2 62 9                          @ rt-thread/components/drivers/sdio/mmcsd_core.c:62:9
	ldr	r0, [sp, #8]
	.loc	2 62 14 is_stmt 0               @ rt-thread/components/drivers/sdio/mmcsd_core.c:62:14
	ldr	r1, [r0, #4]
	.loc	2 62 26                         @ rt-thread/components/drivers/sdio/mmcsd_core.c:62:26
	ldr	r0, [r1, #28]
	subs	r0, #1
	str	r0, [r1, #28]
	.loc	2 63 9 is_stmt 1                @ rt-thread/components/drivers/sdio/mmcsd_core.c:63:9
	ldr	r0, [sp, #8]
	.loc	2 63 14 is_stmt 0               @ rt-thread/components/drivers/sdio/mmcsd_core.c:63:14
	ldr	r1, [r0, #4]
	movs	r0, #0
	.loc	2 63 23                         @ rt-thread/components/drivers/sdio/mmcsd_core.c:63:23
	str	r0, [r1, #32]
	.loc	2 64 25 is_stmt 1               @ rt-thread/components/drivers/sdio/mmcsd_core.c:64:25
	ldr	r0, [sp, #8]
	.loc	2 64 14 is_stmt 0               @ rt-thread/components/drivers/sdio/mmcsd_core.c:64:14
	ldr	r1, [r0, #4]
	.loc	2 64 23                         @ rt-thread/components/drivers/sdio/mmcsd_core.c:64:23
	str	r0, [r1, #40]
.Ltmp8:
	.loc	2 65 13 is_stmt 1               @ rt-thread/components/drivers/sdio/mmcsd_core.c:65:13
	ldr	r0, [sp, #8]
	.loc	2 65 18 is_stmt 0               @ rt-thread/components/drivers/sdio/mmcsd_core.c:65:18
	ldr	r0, [r0]
.Ltmp9:
	.loc	2 65 13                         @ rt-thread/components/drivers/sdio/mmcsd_core.c:65:13
	cbz	r0, .LBB3_5
	b	.LBB3_2
.LBB3_2:                                @   in Loop: Header=BB3_1 Depth=1
.Ltmp10:
	.loc	2 67 30 is_stmt 1               @ rt-thread/components/drivers/sdio/mmcsd_core.c:67:30
	ldr	r1, [sp, #8]
	.loc	2 67 35 is_stmt 0               @ rt-thread/components/drivers/sdio/mmcsd_core.c:67:35
	ldr	r0, [r1]
	.loc	2 67 18                         @ rt-thread/components/drivers/sdio/mmcsd_core.c:67:18
	ldr	r1, [r1, #4]
	.loc	2 67 28                         @ rt-thread/components/drivers/sdio/mmcsd_core.c:67:28
	str	r0, [r1, #36]
	.loc	2 68 13 is_stmt 1               @ rt-thread/components/drivers/sdio/mmcsd_core.c:68:13
	ldr	r0, [sp, #8]
	.loc	2 68 18 is_stmt 0               @ rt-thread/components/drivers/sdio/mmcsd_core.c:68:18
	ldr	r1, [r0]
	movs	r0, #0
	.loc	2 68 28                         @ rt-thread/components/drivers/sdio/mmcsd_core.c:68:28
	str	r0, [r1, #12]
	.loc	2 69 30 is_stmt 1               @ rt-thread/components/drivers/sdio/mmcsd_core.c:69:30
	ldr	r0, [sp, #8]
	.loc	2 69 18 is_stmt 0               @ rt-thread/components/drivers/sdio/mmcsd_core.c:69:18
	ldr	r1, [r0]
	.loc	2 69 28                         @ rt-thread/components/drivers/sdio/mmcsd_core.c:69:28
	str	r0, [r1, #28]
.Ltmp11:
	.loc	2 70 17 is_stmt 1               @ rt-thread/components/drivers/sdio/mmcsd_core.c:70:17
	ldr	r0, [sp, #8]
	.loc	2 70 22 is_stmt 0               @ rt-thread/components/drivers/sdio/mmcsd_core.c:70:22
	ldr	r0, [r0, #8]
.Ltmp12:
	.loc	2 70 17                         @ rt-thread/components/drivers/sdio/mmcsd_core.c:70:17
	cbz	r0, .LBB3_4
	b	.LBB3_3
.LBB3_3:                                @   in Loop: Header=BB3_1 Depth=1
.Ltmp13:
	.loc	2 72 35 is_stmt 1               @ rt-thread/components/drivers/sdio/mmcsd_core.c:72:35
	ldr	r0, [sp, #8]
	.loc	2 72 22 is_stmt 0               @ rt-thread/components/drivers/sdio/mmcsd_core.c:72:22
	ldr	r1, [r0]
	.loc	2 72 40                         @ rt-thread/components/drivers/sdio/mmcsd_core.c:72:40
	ldr	r0, [r0, #8]
	.loc	2 72 33                         @ rt-thread/components/drivers/sdio/mmcsd_core.c:72:33
	str	r0, [r1, #24]
	.loc	2 73 17 is_stmt 1               @ rt-thread/components/drivers/sdio/mmcsd_core.c:73:17
	ldr	r0, [sp, #8]
	.loc	2 73 22 is_stmt 0               @ rt-thread/components/drivers/sdio/mmcsd_core.c:73:22
	ldr	r1, [r0, #8]
	movs	r0, #0
	.loc	2 73 32                         @ rt-thread/components/drivers/sdio/mmcsd_core.c:73:32
	str	r0, [r1, #32]
	.loc	2 74 34 is_stmt 1               @ rt-thread/components/drivers/sdio/mmcsd_core.c:74:34
	ldr	r0, [sp, #8]
	.loc	2 74 22 is_stmt 0               @ rt-thread/components/drivers/sdio/mmcsd_core.c:74:22
	ldr	r1, [r0, #8]
	.loc	2 74 32                         @ rt-thread/components/drivers/sdio/mmcsd_core.c:74:32
	str	r0, [r1, #40]
	.loc	2 75 13 is_stmt 1               @ rt-thread/components/drivers/sdio/mmcsd_core.c:75:13
	b	.LBB3_4
.Ltmp14:
.LBB3_4:                                @   in Loop: Header=BB3_1 Depth=1
	.loc	2 76 9                          @ rt-thread/components/drivers/sdio/mmcsd_core.c:76:9
	b	.LBB3_5
.Ltmp15:
.LBB3_5:                                @   in Loop: Header=BB3_1 Depth=1
	.loc	2 77 9                          @ rt-thread/components/drivers/sdio/mmcsd_core.c:77:9
	ldr	r0, [sp, #12]
	.loc	2 77 15 is_stmt 0               @ rt-thread/components/drivers/sdio/mmcsd_core.c:77:15
	ldr	r1, [r0, #4]
	.loc	2 77 20                         @ rt-thread/components/drivers/sdio/mmcsd_core.c:77:20
	ldr	r2, [r1]
	.loc	2 77 34                         @ rt-thread/components/drivers/sdio/mmcsd_core.c:77:34
	ldr	r1, [sp, #8]
	.loc	2 77 9                          @ rt-thread/components/drivers/sdio/mmcsd_core.c:77:9
	blx	r2
	.loc	2 79 22 is_stmt 1               @ rt-thread/components/drivers/sdio/mmcsd_core.c:79:22
	ldr	r0, [sp, #12]
	.loc	2 79 28 is_stmt 0               @ rt-thread/components/drivers/sdio/mmcsd_core.c:79:28
	adds	r0, #92
	mov.w	r1, #-1
	.loc	2 79 9                          @ rt-thread/components/drivers/sdio/mmcsd_core.c:79:9
	bl	rt_sem_take
	.loc	2 81 5 is_stmt 1                @ rt-thread/components/drivers/sdio/mmcsd_core.c:81:5
	b	.LBB3_6
.Ltmp16:
.LBB3_6:                                @   in Loop: Header=BB3_1 Depth=1
	.loc	2 81 13 is_stmt 0               @ rt-thread/components/drivers/sdio/mmcsd_core.c:81:13
	ldr	r0, [sp, #8]
	.loc	2 81 18                         @ rt-thread/components/drivers/sdio/mmcsd_core.c:81:18
	ldr	r0, [r0, #4]
	.loc	2 81 23                         @ rt-thread/components/drivers/sdio/mmcsd_core.c:81:23
	ldr	r1, [r0, #32]
	movs	r0, #0
	.loc	2 81 27                         @ rt-thread/components/drivers/sdio/mmcsd_core.c:81:27
	str	r0, [sp, #4]                    @ 4-byte Spill
	cbz	r1, .LBB3_8
	b	.LBB3_7
.LBB3_7:                                @   in Loop: Header=BB3_1 Depth=1
	.loc	2 81 31                         @ rt-thread/components/drivers/sdio/mmcsd_core.c:81:31
	ldr	r0, [sp, #8]
	.loc	2 81 36                         @ rt-thread/components/drivers/sdio/mmcsd_core.c:81:36
	ldr	r0, [r0, #4]
	.loc	2 81 41                         @ rt-thread/components/drivers/sdio/mmcsd_core.c:81:41
	ldr	r1, [r0, #28]
	movs	r0, #0
	.loc	2 81 49                         @ rt-thread/components/drivers/sdio/mmcsd_core.c:81:49
	cmp	r1, #0
	it	gt
	movgt	r0, #1
	str	r0, [sp, #4]                    @ 4-byte Spill
	b	.LBB3_8
.LBB3_8:                                @   in Loop: Header=BB3_1 Depth=1
	.loc	2 0 0                           @ rt-thread/components/drivers/sdio/mmcsd_core.c:0:0
	ldr	r0, [sp, #4]                    @ 4-byte Reload
.Ltmp17:
	.loc	2 81 5                          @ rt-thread/components/drivers/sdio/mmcsd_core.c:81:5
	lsls	r0, r0, #31
	cmp	r0, #0
	bne	.LBB3_1
	b	.LBB3_9
.Ltmp18:
.LBB3_9:
	.loc	2 84 1 is_stmt 1                @ rt-thread/components/drivers/sdio/mmcsd_core.c:84:1
	add	sp, #16
	pop	{r7, pc}
.Ltmp19:
.Lfunc_end3:
	.size	mmcsd_send_request, .Lfunc_end3-mmcsd_send_request
	.cfi_endproc
	.cantunwind
	.fnend
                                        @ -- End function
	.section	.text.mmcsd_send_cmd,"ax",%progbits
	.hidden	mmcsd_send_cmd                  @ -- Begin function mmcsd_send_cmd
	.globl	mmcsd_send_cmd
	.p2align	3
	.type	mmcsd_send_cmd,%function
	.code	16                              @ @mmcsd_send_cmd
	.thumb_func
mmcsd_send_cmd:
.Lfunc_begin4:
	.loc	2 89 0                          @ rt-thread/components/drivers/sdio/mmcsd_core.c:89:0
	.fnstart
	.cfi_startproc
@ %bb.0:
	.save	{r7, lr}
	push	{r7, lr}
	.cfi_def_cfa_offset 8
	.cfi_offset lr, -4
	.cfi_offset r7, -8
	.pad	#32
	sub	sp, #32
	.cfi_def_cfa_offset 40
	str	r0, [sp, #28]
	str	r1, [sp, #24]
	str	r2, [sp, #20]
	add	r0, sp, #8
	str	r0, [sp]                        @ 4-byte Spill
	movs	r1, #0
	str	r1, [sp, #4]                    @ 4-byte Spill
	movs	r2, #12
.Ltmp20:
	.loc	2 92 5 prologue_end             @ rt-thread/components/drivers/sdio/mmcsd_core.c:92:5
	bl	rt_memset
	ldr	r1, [sp, #4]                    @ 4-byte Reload
	.loc	2 93 15                         @ rt-thread/components/drivers/sdio/mmcsd_core.c:93:15
	ldr	r0, [sp, #24]
	.loc	2 93 20 is_stmt 0               @ rt-thread/components/drivers/sdio/mmcsd_core.c:93:20
	adds	r0, #8
	movs	r2, #16
	.loc	2 93 5                          @ rt-thread/components/drivers/sdio/mmcsd_core.c:93:5
	bl	rt_memset
	ldr	r1, [sp]                        @ 4-byte Reload
                                        @ kill: def $r2 killed $r0
	.loc	2 94 20 is_stmt 1               @ rt-thread/components/drivers/sdio/mmcsd_core.c:94:20
	ldr	r0, [sp, #4]                    @ 4-byte Reload
	ldr	r2, [sp, #20]
	.loc	2 94 5 is_stmt 0                @ rt-thread/components/drivers/sdio/mmcsd_core.c:94:5
	ldr	r3, [sp, #24]
	.loc	2 94 18                         @ rt-thread/components/drivers/sdio/mmcsd_core.c:94:18
	str	r2, [r3, #28]
	.loc	2 96 15 is_stmt 1               @ rt-thread/components/drivers/sdio/mmcsd_core.c:96:15
	ldr	r2, [sp, #24]
	.loc	2 96 13 is_stmt 0               @ rt-thread/components/drivers/sdio/mmcsd_core.c:96:13
	str	r2, [sp, #12]
	.loc	2 97 5 is_stmt 1                @ rt-thread/components/drivers/sdio/mmcsd_core.c:97:5
	ldr	r2, [sp, #24]
	.loc	2 97 15 is_stmt 0               @ rt-thread/components/drivers/sdio/mmcsd_core.c:97:15
	str	r0, [r2, #36]
	.loc	2 99 24 is_stmt 1               @ rt-thread/components/drivers/sdio/mmcsd_core.c:99:24
	ldr	r0, [sp, #28]
	.loc	2 99 5 is_stmt 0                @ rt-thread/components/drivers/sdio/mmcsd_core.c:99:5
	bl	mmcsd_send_request
	.loc	2 101 12 is_stmt 1              @ rt-thread/components/drivers/sdio/mmcsd_core.c:101:12
	ldr	r0, [sp, #24]
	.loc	2 101 17 is_stmt 0              @ rt-thread/components/drivers/sdio/mmcsd_core.c:101:17
	ldr	r0, [r0, #32]
	.loc	2 101 5                         @ rt-thread/components/drivers/sdio/mmcsd_core.c:101:5
	add	sp, #32
	pop	{r7, pc}
.Ltmp21:
.Lfunc_end4:
	.size	mmcsd_send_cmd, .Lfunc_end4-mmcsd_send_cmd
	.cfi_endproc
	.cantunwind
	.fnend
                                        @ -- End function
	.section	.text.mmcsd_go_idle,"ax",%progbits
	.hidden	mmcsd_go_idle                   @ -- Begin function mmcsd_go_idle
	.globl	mmcsd_go_idle
	.p2align	3
	.type	mmcsd_go_idle,%function
	.code	16                              @ @mmcsd_go_idle
	.thumb_func
mmcsd_go_idle:
.Lfunc_begin5:
	.loc	2 105 0 is_stmt 1               @ rt-thread/components/drivers/sdio/mmcsd_core.c:105:0
	.fnstart
	.cfi_startproc
@ %bb.0:
	.save	{r7, lr}
	push	{r7, lr}
	.cfi_def_cfa_offset 8
	.cfi_offset lr, -4
	.cfi_offset r7, -8
	.pad	#64
	sub	sp, #64
	.cfi_def_cfa_offset 72
	str	r0, [sp, #60]
.Ltmp22:
	.loc	2 109 10 prologue_end           @ rt-thread/components/drivers/sdio/mmcsd_core.c:109:10
	ldr	r0, [sp, #60]
.Ltmp23:
	.loc	2 109 9 is_stmt 0               @ rt-thread/components/drivers/sdio/mmcsd_core.c:109:9
	ldrb.w	r0, [r0, #32]
	lsls	r0, r0, #28
	cmp	r0, #0
	bmi	.LBB5_2
	b	.LBB5_1
.LBB5_1:
.Ltmp24:
	.loc	2 111 31 is_stmt 1              @ rt-thread/components/drivers/sdio/mmcsd_core.c:111:31
	ldr	r0, [sp, #60]
	movs	r1, #1
	.loc	2 111 9 is_stmt 0               @ rt-thread/components/drivers/sdio/mmcsd_core.c:111:9
	str	r1, [sp, #8]                    @ 4-byte Spill
	bl	mmcsd_set_chip_select
	ldr	r0, [sp, #8]                    @ 4-byte Reload
	.loc	2 112 9 is_stmt 1               @ rt-thread/components/drivers/sdio/mmcsd_core.c:112:9
	bl	mmcsd_delay_ms
	.loc	2 113 5                         @ rt-thread/components/drivers/sdio/mmcsd_core.c:113:5
	b	.LBB5_2
.Ltmp25:
.LBB5_2:
	.loc	2 0 5 is_stmt 0                 @ rt-thread/components/drivers/sdio/mmcsd_core.c:0:5
	add	r0, sp, #12
	str	r0, [sp]                        @ 4-byte Spill
	movs	r1, #0
	str	r1, [sp, #4]                    @ 4-byte Spill
	movs	r2, #44
	.loc	2 115 5 is_stmt 1               @ rt-thread/components/drivers/sdio/mmcsd_core.c:115:5
	bl	rt_memset
	ldr	r1, [sp]                        @ 4-byte Reload
	ldr	r2, [sp, #4]                    @ 4-byte Reload
	.loc	2 117 18                        @ rt-thread/components/drivers/sdio/mmcsd_core.c:117:18
	str	r2, [sp, #12]
	.loc	2 118 13                        @ rt-thread/components/drivers/sdio/mmcsd_core.c:118:13
	str	r2, [sp, #16]
	movs	r0, #96
	.loc	2 119 15                        @ rt-thread/components/drivers/sdio/mmcsd_core.c:119:15
	str	r0, [sp, #36]
	.loc	2 121 26                        @ rt-thread/components/drivers/sdio/mmcsd_core.c:121:26
	ldr	r0, [sp, #60]
	.loc	2 121 11 is_stmt 0              @ rt-thread/components/drivers/sdio/mmcsd_core.c:121:11
	bl	mmcsd_send_cmd
	.loc	2 121 9                         @ rt-thread/components/drivers/sdio/mmcsd_core.c:121:9
	str	r0, [sp, #56]
	movs	r0, #1
	.loc	2 123 5 is_stmt 1               @ rt-thread/components/drivers/sdio/mmcsd_core.c:123:5
	bl	mmcsd_delay_ms
.Ltmp26:
	.loc	2 125 10                        @ rt-thread/components/drivers/sdio/mmcsd_core.c:125:10
	ldr	r0, [sp, #60]
.Ltmp27:
	.loc	2 125 9 is_stmt 0               @ rt-thread/components/drivers/sdio/mmcsd_core.c:125:9
	ldrb.w	r0, [r0, #32]
	lsls	r0, r0, #28
	cmp	r0, #0
	bmi	.LBB5_4
	b	.LBB5_3
.LBB5_3:
.Ltmp28:
	.loc	2 127 31 is_stmt 1              @ rt-thread/components/drivers/sdio/mmcsd_core.c:127:31
	ldr	r0, [sp, #60]
	movs	r1, #0
	.loc	2 127 9 is_stmt 0               @ rt-thread/components/drivers/sdio/mmcsd_core.c:127:9
	bl	mmcsd_set_chip_select
	movs	r0, #1
	.loc	2 128 9 is_stmt 1               @ rt-thread/components/drivers/sdio/mmcsd_core.c:128:9
	bl	mmcsd_delay_ms
	.loc	2 129 5                         @ rt-thread/components/drivers/sdio/mmcsd_core.c:129:5
	b	.LBB5_4
.Ltmp29:
.LBB5_4:
	.loc	2 131 12                        @ rt-thread/components/drivers/sdio/mmcsd_core.c:131:12
	ldr	r0, [sp, #56]
	.loc	2 131 5 is_stmt 0               @ rt-thread/components/drivers/sdio/mmcsd_core.c:131:5
	add	sp, #64
	pop	{r7, pc}
.Ltmp30:
.Lfunc_end5:
	.size	mmcsd_go_idle, .Lfunc_end5-mmcsd_go_idle
	.cfi_endproc
	.cantunwind
	.fnend
                                        @ -- End function
	.section	.text.mmcsd_set_chip_select,"ax",%progbits
	.hidden	mmcsd_set_chip_select           @ -- Begin function mmcsd_set_chip_select
	.globl	mmcsd_set_chip_select
	.p2align	3
	.type	mmcsd_set_chip_select,%function
	.code	16                              @ @mmcsd_set_chip_select
	.thumb_func
mmcsd_set_chip_select:
.Lfunc_begin6:
	.loc	2 402 0 is_stmt 1               @ rt-thread/components/drivers/sdio/mmcsd_core.c:402:0
	.fnstart
	.cfi_startproc
@ %bb.0:
	.save	{r7, lr}
	push	{r7, lr}
	.cfi_def_cfa_offset 8
	.cfi_offset lr, -4
	.cfi_offset r7, -8
	.pad	#8
	sub	sp, #8
	.cfi_def_cfa_offset 16
	str	r0, [sp, #4]
	str	r1, [sp]
.Ltmp31:
	.loc	2 403 32 prologue_end           @ rt-thread/components/drivers/sdio/mmcsd_core.c:403:32
	ldr	r0, [sp]
	.loc	2 403 5 is_stmt 0               @ rt-thread/components/drivers/sdio/mmcsd_core.c:403:5
	ldr	r1, [sp, #4]
	.loc	2 403 30                        @ rt-thread/components/drivers/sdio/mmcsd_core.c:403:30
	strb	r0, [r1, #23]
	.loc	2 404 21 is_stmt 1              @ rt-thread/components/drivers/sdio/mmcsd_core.c:404:21
	ldr	r0, [sp, #4]
	.loc	2 404 5 is_stmt 0               @ rt-thread/components/drivers/sdio/mmcsd_core.c:404:5
	bl	mmcsd_set_iocfg
	.loc	2 405 1 is_stmt 1               @ rt-thread/components/drivers/sdio/mmcsd_core.c:405:1
	add	sp, #8
	pop	{r7, pc}
.Ltmp32:
.Lfunc_end6:
	.size	mmcsd_set_chip_select, .Lfunc_end6-mmcsd_set_chip_select
	.cfi_endproc
	.cantunwind
	.fnend
                                        @ -- End function
	.section	.text.mmcsd_delay_ms,"ax",%progbits
	.p2align	3                               @ -- Begin function mmcsd_delay_ms
	.type	mmcsd_delay_ms,%function
	.code	16                              @ @mmcsd_delay_ms
	.thumb_func
mmcsd_delay_ms:
.Lfunc_begin7:
	.file	3 "E:\\Smart-access-control\\Hardware\\CODE" "rt-thread/components/drivers/include\\drivers/mmcsd_host.h"
	.loc	3 111 0                         @ rt-thread/components/drivers/include\drivers/mmcsd_host.h:111:0
	.fnstart
	.cfi_startproc
@ %bb.0:
	.save	{r7, lr}
	push	{r7, lr}
	.cfi_def_cfa_offset 8
	.cfi_offset lr, -4
	.cfi_offset r7, -8
	.pad	#8
	sub	sp, #8
	.cfi_def_cfa_offset 16
	str	r0, [sp, #4]
.Ltmp33:
	.loc	3 112 6 prologue_end            @ rt-thread/components/drivers/include\drivers/mmcsd_host.h:112:6
	ldr	r0, [sp, #4]
.Ltmp34:
	.loc	3 112 6 is_stmt 0               @ rt-thread/components/drivers/include\drivers/mmcsd_host.h:112:6
	cbnz	r0, .LBB7_2
	b	.LBB7_1
.LBB7_1:
	.loc	3 0 6                           @ rt-thread/components/drivers/include\drivers/mmcsd_host.h:0:6
	movs	r0, #1
.Ltmp35:
	.loc	3 114 3 is_stmt 1               @ rt-thread/components/drivers/include\drivers/mmcsd_host.h:114:3
	bl	rt_thread_delay
	.loc	3 115 2                         @ rt-thread/components/drivers/include\drivers/mmcsd_host.h:115:2
	b	.LBB7_3
.Ltmp36:
.LBB7_2:
	.loc	3 118 19                        @ rt-thread/components/drivers/include\drivers/mmcsd_host.h:118:19
	ldr	r0, [sp, #4]
	.loc	3 118 3 is_stmt 0               @ rt-thread/components/drivers/include\drivers/mmcsd_host.h:118:3
	bl	rt_thread_delay
	b	.LBB7_3
.Ltmp37:
.LBB7_3:
	.loc	3 120 1 is_stmt 1               @ rt-thread/components/drivers/include\drivers/mmcsd_host.h:120:1
	add	sp, #8
	pop	{r7, pc}
.Ltmp38:
.Lfunc_end7:
	.size	mmcsd_delay_ms, .Lfunc_end7-mmcsd_delay_ms
	.cfi_endproc
	.cantunwind
	.fnend
                                        @ -- End function
	.section	.text.mmcsd_spi_read_ocr,"ax",%progbits
	.hidden	mmcsd_spi_read_ocr              @ -- Begin function mmcsd_spi_read_ocr
	.globl	mmcsd_spi_read_ocr
	.p2align	3
	.type	mmcsd_spi_read_ocr,%function
	.code	16                              @ @mmcsd_spi_read_ocr
	.thumb_func
mmcsd_spi_read_ocr:
.Lfunc_begin8:
	.loc	2 137 0                         @ rt-thread/components/drivers/sdio/mmcsd_core.c:137:0
	.fnstart
	.cfi_startproc
@ %bb.0:
	.save	{r7, lr}
	push	{r7, lr}
	.cfi_def_cfa_offset 8
	.cfi_offset lr, -4
	.cfi_offset r7, -8
	.pad	#72
	sub	sp, #72
	.cfi_def_cfa_offset 80
	str	r0, [sp, #68]
	str	r1, [sp, #64]
	str	r2, [sp, #60]
	add	r0, sp, #16
	str	r0, [sp, #4]                    @ 4-byte Spill
	movs	r1, #0
	str	r1, [sp, #8]                    @ 4-byte Spill
	movs	r2, #44
.Ltmp39:
	.loc	2 141 5 prologue_end            @ rt-thread/components/drivers/sdio/mmcsd_core.c:141:5
	bl	rt_memset
	ldr	r1, [sp, #4]                    @ 4-byte Reload
	ldr	r2, [sp, #8]                    @ 4-byte Reload
	movs	r0, #58
	.loc	2 143 18                        @ rt-thread/components/drivers/sdio/mmcsd_core.c:143:18
	str	r0, [sp, #16]
	.loc	2 144 15                        @ rt-thread/components/drivers/sdio/mmcsd_core.c:144:15
	ldr	r0, [sp, #64]
	cmp	r0, #0
	it	ne
	movne	r0, #1
	lsls	r0, r0, #30
	.loc	2 144 13 is_stmt 0              @ rt-thread/components/drivers/sdio/mmcsd_core.c:144:13
	str	r0, [sp, #20]
	mov.w	r0, #256
	.loc	2 145 15 is_stmt 1              @ rt-thread/components/drivers/sdio/mmcsd_core.c:145:15
	str	r0, [sp, #40]
	.loc	2 147 26                        @ rt-thread/components/drivers/sdio/mmcsd_core.c:147:26
	ldr	r0, [sp, #68]
	.loc	2 147 11 is_stmt 0              @ rt-thread/components/drivers/sdio/mmcsd_core.c:147:11
	bl	mmcsd_send_cmd
	.loc	2 147 9                         @ rt-thread/components/drivers/sdio/mmcsd_core.c:147:9
	str	r0, [sp, #12]
	.loc	2 149 12 is_stmt 1              @ rt-thread/components/drivers/sdio/mmcsd_core.c:149:12
	ldr	r0, [sp, #28]
	.loc	2 149 6 is_stmt 0               @ rt-thread/components/drivers/sdio/mmcsd_core.c:149:6
	ldr	r1, [sp, #60]
	.loc	2 149 10                        @ rt-thread/components/drivers/sdio/mmcsd_core.c:149:10
	str	r0, [r1]
	.loc	2 151 12 is_stmt 1              @ rt-thread/components/drivers/sdio/mmcsd_core.c:151:12
	ldr	r0, [sp, #12]
	.loc	2 151 5 is_stmt 0               @ rt-thread/components/drivers/sdio/mmcsd_core.c:151:5
	add	sp, #72
	pop	{r7, pc}
.Ltmp40:
.Lfunc_end8:
	.size	mmcsd_spi_read_ocr, .Lfunc_end8-mmcsd_spi_read_ocr
	.cfi_endproc
	.cantunwind
	.fnend
                                        @ -- End function
	.section	.text.mmcsd_all_get_cid,"ax",%progbits
	.hidden	mmcsd_all_get_cid               @ -- Begin function mmcsd_all_get_cid
	.globl	mmcsd_all_get_cid
	.p2align	3
	.type	mmcsd_all_get_cid,%function
	.code	16                              @ @mmcsd_all_get_cid
	.thumb_func
mmcsd_all_get_cid:
.Lfunc_begin9:
	.loc	2 155 0 is_stmt 1               @ rt-thread/components/drivers/sdio/mmcsd_core.c:155:0
	.fnstart
	.cfi_startproc
@ %bb.0:
	.save	{r7, lr}
	push	{r7, lr}
	.cfi_def_cfa_offset 8
	.cfi_offset lr, -4
	.cfi_offset r7, -8
	.pad	#72
	sub	sp, #72
	.cfi_def_cfa_offset 80
	str	r0, [sp, #64]
	str	r1, [sp, #60]
	add	r0, sp, #12
	str	r0, [sp, #4]                    @ 4-byte Spill
	movs	r1, #0
	str	r1, [sp, #8]                    @ 4-byte Spill
	movs	r2, #44
.Ltmp41:
	.loc	2 159 5 prologue_end            @ rt-thread/components/drivers/sdio/mmcsd_core.c:159:5
	bl	rt_memset
	ldr	r1, [sp, #4]                    @ 4-byte Reload
                                        @ kill: def $r2 killed $r0
	ldr	r0, [sp, #8]                    @ 4-byte Reload
	movs	r2, #2
	.loc	2 161 18                        @ rt-thread/components/drivers/sdio/mmcsd_core.c:161:18
	str	r2, [sp, #12]
	.loc	2 162 13                        @ rt-thread/components/drivers/sdio/mmcsd_core.c:162:13
	str	r0, [sp, #16]
	movs	r0, #51
	.loc	2 163 15                        @ rt-thread/components/drivers/sdio/mmcsd_core.c:163:15
	str	r0, [sp, #36]
	.loc	2 165 26                        @ rt-thread/components/drivers/sdio/mmcsd_core.c:165:26
	ldr	r0, [sp, #64]
	movs	r2, #3
	.loc	2 165 11 is_stmt 0              @ rt-thread/components/drivers/sdio/mmcsd_core.c:165:11
	bl	mmcsd_send_cmd
	.loc	2 165 9                         @ rt-thread/components/drivers/sdio/mmcsd_core.c:165:9
	str	r0, [sp, #56]
.Ltmp42:
	.loc	2 166 9 is_stmt 1               @ rt-thread/components/drivers/sdio/mmcsd_core.c:166:9
	ldr	r0, [sp, #56]
.Ltmp43:
	.loc	2 166 9 is_stmt 0               @ rt-thread/components/drivers/sdio/mmcsd_core.c:166:9
	cbz	r0, .LBB9_2
	b	.LBB9_1
.LBB9_1:
.Ltmp44:
	.loc	2 167 16 is_stmt 1              @ rt-thread/components/drivers/sdio/mmcsd_core.c:167:16
	ldr	r0, [sp, #56]
	.loc	2 167 9 is_stmt 0               @ rt-thread/components/drivers/sdio/mmcsd_core.c:167:9
	str	r0, [sp, #68]
	b	.LBB9_3
.Ltmp45:
.LBB9_2:
	.loc	2 169 15 is_stmt 1              @ rt-thread/components/drivers/sdio/mmcsd_core.c:169:15
	ldr	r0, [sp, #60]
	add	r1, sp, #12
	.loc	2 169 24 is_stmt 0              @ rt-thread/components/drivers/sdio/mmcsd_core.c:169:24
	adds	r1, #8
	movs	r2, #16
	.loc	2 169 5                         @ rt-thread/components/drivers/sdio/mmcsd_core.c:169:5
	bl	rt_memcpy
	movs	r0, #0
	.loc	2 171 5 is_stmt 1               @ rt-thread/components/drivers/sdio/mmcsd_core.c:171:5
	str	r0, [sp, #68]
	b	.LBB9_3
.LBB9_3:
	.loc	2 172 1                         @ rt-thread/components/drivers/sdio/mmcsd_core.c:172:1
	ldr	r0, [sp, #68]
	add	sp, #72
	pop	{r7, pc}
.Ltmp46:
.Lfunc_end9:
	.size	mmcsd_all_get_cid, .Lfunc_end9-mmcsd_all_get_cid
	.cfi_endproc
	.cantunwind
	.fnend
                                        @ -- End function
	.section	.text.mmcsd_get_cid,"ax",%progbits
	.hidden	mmcsd_get_cid                   @ -- Begin function mmcsd_get_cid
	.globl	mmcsd_get_cid
	.p2align	3
	.type	mmcsd_get_cid,%function
	.code	16                              @ @mmcsd_get_cid
	.thumb_func
mmcsd_get_cid:
.Lfunc_begin10:
	.loc	2 175 0                         @ rt-thread/components/drivers/sdio/mmcsd_core.c:175:0
	.fnstart
	.cfi_startproc
@ %bb.0:
	.save	{r7, lr}
	push	{r7, lr}
	.cfi_def_cfa_offset 8
	.cfi_offset lr, -4
	.cfi_offset r7, -8
	.pad	#144
	sub	sp, #144
	.cfi_def_cfa_offset 152
	str	r0, [sp, #136]
	str	r1, [sp, #132]
	movs	r0, #0
.Ltmp47:
	.loc	2 180 18 prologue_end           @ rt-thread/components/drivers/sdio/mmcsd_core.c:180:18
	str	r0, [sp, #24]
.Ltmp48:
	.loc	2 182 10                        @ rt-thread/components/drivers/sdio/mmcsd_core.c:182:10
	ldr	r0, [sp, #136]
.Ltmp49:
	.loc	2 182 9 is_stmt 0               @ rt-thread/components/drivers/sdio/mmcsd_core.c:182:9
	ldrb.w	r0, [r0, #32]
	lsls	r0, r0, #28
	cmp	r0, #0
	bmi	.LBB10_6
	b	.LBB10_1
.LBB10_1:
.Ltmp50:
	.loc	2 184 14 is_stmt 1              @ rt-thread/components/drivers/sdio/mmcsd_core.c:184:14
	ldr	r0, [sp, #136]
	.loc	2 184 20 is_stmt 0              @ rt-thread/components/drivers/sdio/mmcsd_core.c:184:20
	ldr	r0, [r0]
.Ltmp51:
	.loc	2 184 13                        @ rt-thread/components/drivers/sdio/mmcsd_core.c:184:13
	cbnz	r0, .LBB10_3
	b	.LBB10_2
.LBB10_2:
	.loc	2 0 13                          @ rt-thread/components/drivers/sdio/mmcsd_core.c:0:13
	mov.w	r0, #-1
.Ltmp52:
	.loc	2 185 13 is_stmt 1              @ rt-thread/components/drivers/sdio/mmcsd_core.c:185:13
	str	r0, [sp, #140]
	b	.LBB10_18
.Ltmp53:
.LBB10_3:
	.loc	2 0 13 is_stmt 0                @ rt-thread/components/drivers/sdio/mmcsd_core.c:0:13
	add	r0, sp, #68
	str	r0, [sp, #20]                   @ 4-byte Spill
	movs	r1, #0
	movs	r2, #44
	.loc	2 186 9 is_stmt 1               @ rt-thread/components/drivers/sdio/mmcsd_core.c:186:9
	bl	rt_memset
	ldr	r1, [sp, #20]                   @ 4-byte Reload
	movs	r0, #10
	.loc	2 188 22                        @ rt-thread/components/drivers/sdio/mmcsd_core.c:188:22
	str	r0, [sp, #68]
	.loc	2 189 19                        @ rt-thread/components/drivers/sdio/mmcsd_core.c:189:19
	ldr	r0, [sp, #136]
	.loc	2 189 25 is_stmt 0              @ rt-thread/components/drivers/sdio/mmcsd_core.c:189:25
	ldr	r0, [r0]
	.loc	2 189 31                        @ rt-thread/components/drivers/sdio/mmcsd_core.c:189:31
	ldr	r0, [r0, #4]
	.loc	2 189 35                        @ rt-thread/components/drivers/sdio/mmcsd_core.c:189:35
	lsls	r0, r0, #16
	.loc	2 189 17                        @ rt-thread/components/drivers/sdio/mmcsd_core.c:189:17
	str	r0, [sp, #72]
	movs	r2, #3
	.loc	2 190 19 is_stmt 1              @ rt-thread/components/drivers/sdio/mmcsd_core.c:190:19
	str	r2, [sp, #92]
	.loc	2 191 30                        @ rt-thread/components/drivers/sdio/mmcsd_core.c:191:30
	ldr	r0, [sp, #136]
	.loc	2 191 15 is_stmt 0              @ rt-thread/components/drivers/sdio/mmcsd_core.c:191:15
	bl	mmcsd_send_cmd
	.loc	2 191 13                        @ rt-thread/components/drivers/sdio/mmcsd_core.c:191:13
	str	r0, [sp, #128]
.Ltmp54:
	.loc	2 192 13 is_stmt 1              @ rt-thread/components/drivers/sdio/mmcsd_core.c:192:13
	ldr	r0, [sp, #128]
.Ltmp55:
	.loc	2 192 13 is_stmt 0              @ rt-thread/components/drivers/sdio/mmcsd_core.c:192:13
	cbz	r0, .LBB10_5
	b	.LBB10_4
.LBB10_4:
.Ltmp56:
	.loc	2 193 20 is_stmt 1              @ rt-thread/components/drivers/sdio/mmcsd_core.c:193:20
	ldr	r0, [sp, #128]
	.loc	2 193 13 is_stmt 0              @ rt-thread/components/drivers/sdio/mmcsd_core.c:193:13
	str	r0, [sp, #140]
	b	.LBB10_18
.Ltmp57:
.LBB10_5:
	.loc	2 195 19 is_stmt 1              @ rt-thread/components/drivers/sdio/mmcsd_core.c:195:19
	ldr	r0, [sp, #132]
	add	r1, sp, #68
	.loc	2 195 28 is_stmt 0              @ rt-thread/components/drivers/sdio/mmcsd_core.c:195:28
	adds	r1, #8
	movs	r2, #16
	.loc	2 195 9                         @ rt-thread/components/drivers/sdio/mmcsd_core.c:195:9
	bl	rt_memcpy
	movs	r0, #0
	.loc	2 197 9 is_stmt 1               @ rt-thread/components/drivers/sdio/mmcsd_core.c:197:9
	str	r0, [sp, #140]
	b	.LBB10_18
.Ltmp58:
.LBB10_6:
	.loc	2 0 9 is_stmt 0                 @ rt-thread/components/drivers/sdio/mmcsd_core.c:0:9
	movs	r0, #16
	.loc	2 200 26 is_stmt 1              @ rt-thread/components/drivers/sdio/mmcsd_core.c:200:26
	bl	rt_malloc
	.loc	2 200 9 is_stmt 0               @ rt-thread/components/drivers/sdio/mmcsd_core.c:200:9
	str	r0, [sp, #24]
.Ltmp59:
	.loc	2 201 10 is_stmt 1              @ rt-thread/components/drivers/sdio/mmcsd_core.c:201:10
	ldr	r0, [sp, #24]
.Ltmp60:
	.loc	2 201 9 is_stmt 0               @ rt-thread/components/drivers/sdio/mmcsd_core.c:201:9
	cbnz	r0, .LBB10_10
	b	.LBB10_7
.LBB10_7:
.Ltmp61:
	.loc	2 203 9 is_stmt 1               @ rt-thread/components/drivers/sdio/mmcsd_core.c:203:9
	b	.LBB10_8
.LBB10_8:
.Ltmp62:
	.loc	2 203 9 is_stmt 0               @ rt-thread/components/drivers/sdio/mmcsd_core.c:203:9
	movw	r0, :lower16:.L.str
	movt	r0, :upper16:.L.str
	bl	rt_kprintf
	movw	r0, :lower16:.L.str.1
	movt	r0, :upper16:.L.str.1
	bl	rt_kprintf
	movw	r0, :lower16:.L.str.2
	movt	r0, :upper16:.L.str.2
	bl	rt_kprintf
	b	.LBB10_9
.Ltmp63:
.LBB10_9:
	.loc	2 0 9                           @ rt-thread/components/drivers/sdio/mmcsd_core.c:0:9
	mvn	r0, #4
	.loc	2 205 9 is_stmt 1               @ rt-thread/components/drivers/sdio/mmcsd_core.c:205:9
	str	r0, [sp, #140]
	b	.LBB10_18
.Ltmp64:
.LBB10_10:
	.loc	2 0 9 is_stmt 0                 @ rt-thread/components/drivers/sdio/mmcsd_core.c:0:9
	add	r0, sp, #112
	str	r0, [sp, #12]                   @ 4-byte Spill
	movs	r1, #0
	str	r1, [sp, #16]                   @ 4-byte Spill
	movs	r2, #12
	.loc	2 208 5 is_stmt 1               @ rt-thread/components/drivers/sdio/mmcsd_core.c:208:5
	bl	rt_memset
	ldr	r1, [sp, #16]                   @ 4-byte Reload
	add	r0, sp, #68
	str	r0, [sp, #4]                    @ 4-byte Spill
	movs	r2, #44
	.loc	2 209 5                         @ rt-thread/components/drivers/sdio/mmcsd_core.c:209:5
	bl	rt_memset
	ldr	r1, [sp, #16]                   @ 4-byte Reload
	add	r0, sp, #28
	str	r0, [sp, #8]                    @ 4-byte Spill
	movs	r2, #40
	.loc	2 210 5                         @ rt-thread/components/drivers/sdio/mmcsd_core.c:210:5
	bl	rt_memset
	ldr	r3, [sp, #4]                    @ 4-byte Reload
	ldr	r2, [sp, #8]                    @ 4-byte Reload
	ldr	r1, [sp, #12]                   @ 4-byte Reload
                                        @ kill: def $r12 killed $r0
	.loc	2 212 13                        @ rt-thread/components/drivers/sdio/mmcsd_core.c:212:13
	ldr	r0, [sp, #16]                   @ 4-byte Reload
	str	r3, [sp, #116]
	.loc	2 213 14                        @ rt-thread/components/drivers/sdio/mmcsd_core.c:213:14
	str	r2, [sp, #112]
	movs	r2, #10
	.loc	2 215 18                        @ rt-thread/components/drivers/sdio/mmcsd_core.c:215:18
	str	r2, [sp, #68]
	.loc	2 216 13                        @ rt-thread/components/drivers/sdio/mmcsd_core.c:216:13
	str	r0, [sp, #72]
	movs	r2, #81
	.loc	2 223 15                        @ rt-thread/components/drivers/sdio/mmcsd_core.c:223:15
	str	r2, [sp, #92]
	movs	r2, #16
	.loc	2 225 18                        @ rt-thread/components/drivers/sdio/mmcsd_core.c:225:18
	str	r2, [sp, #28]
	movs	r2, #1
	.loc	2 226 15                        @ rt-thread/components/drivers/sdio/mmcsd_core.c:226:15
	str	r2, [sp, #32]
	movs	r2, #2
	.loc	2 227 16                        @ rt-thread/components/drivers/sdio/mmcsd_core.c:227:16
	str	r2, [sp, #44]
	.loc	2 228 16                        @ rt-thread/components/drivers/sdio/mmcsd_core.c:228:16
	ldr	r2, [sp, #24]
	.loc	2 228 14 is_stmt 0              @ rt-thread/components/drivers/sdio/mmcsd_core.c:228:14
	str	r2, [sp, #36]
	.loc	2 233 21 is_stmt 1              @ rt-thread/components/drivers/sdio/mmcsd_core.c:233:21
	str	r0, [sp, #60]
	movs	r0, #64
	.loc	2 234 23                        @ rt-thread/components/drivers/sdio/mmcsd_core.c:234:23
	str	r0, [sp, #64]
	.loc	2 236 24                        @ rt-thread/components/drivers/sdio/mmcsd_core.c:236:24
	ldr	r0, [sp, #136]
	.loc	2 236 5 is_stmt 0               @ rt-thread/components/drivers/sdio/mmcsd_core.c:236:5
	bl	mmcsd_send_request
.Ltmp65:
	.loc	2 238 13 is_stmt 1              @ rt-thread/components/drivers/sdio/mmcsd_core.c:238:13
	ldr	r0, [sp, #100]
	.loc	2 238 17 is_stmt 0              @ rt-thread/components/drivers/sdio/mmcsd_core.c:238:17
	cbnz	r0, .LBB10_12
	b	.LBB10_11
.LBB10_11:
	.loc	2 238 25                        @ rt-thread/components/drivers/sdio/mmcsd_core.c:238:25
	ldr	r0, [sp, #40]
.Ltmp66:
	.loc	2 238 9                         @ rt-thread/components/drivers/sdio/mmcsd_core.c:238:9
	cbz	r0, .LBB10_13
	b	.LBB10_12
.LBB10_12:
.Ltmp67:
	.loc	2 240 17 is_stmt 1              @ rt-thread/components/drivers/sdio/mmcsd_core.c:240:17
	ldr	r0, [sp, #24]
	.loc	2 240 9 is_stmt 0               @ rt-thread/components/drivers/sdio/mmcsd_core.c:240:9
	bl	rt_free
	mov.w	r0, #-1
	.loc	2 242 9 is_stmt 1               @ rt-thread/components/drivers/sdio/mmcsd_core.c:242:9
	str	r0, [sp, #140]
	b	.LBB10_18
.Ltmp68:
.LBB10_13:
	.loc	2 0 9 is_stmt 0                 @ rt-thread/components/drivers/sdio/mmcsd_core.c:0:9
	movs	r0, #0
.Ltmp69:
	.loc	2 245 12 is_stmt 1              @ rt-thread/components/drivers/sdio/mmcsd_core.c:245:12
	str	r0, [sp, #124]
	.loc	2 245 10 is_stmt 0              @ rt-thread/components/drivers/sdio/mmcsd_core.c:245:10
	b	.LBB10_14
.LBB10_14:                              @ =>This Inner Loop Header: Depth=1
.Ltmp70:
	.loc	2 245 16                        @ rt-thread/components/drivers/sdio/mmcsd_core.c:245:16
	ldr	r0, [sp, #124]
.Ltmp71:
	.loc	2 245 5                         @ rt-thread/components/drivers/sdio/mmcsd_core.c:245:5
	cmp	r0, #3
	bgt	.LBB10_17
	b	.LBB10_15
.LBB10_15:                              @   in Loop: Header=BB10_14 Depth=1
.Ltmp72:
	.loc	2 246 18 is_stmt 1              @ rt-thread/components/drivers/sdio/mmcsd_core.c:246:18
	ldr	r0, [sp, #24]
	.loc	2 246 22 is_stmt 0              @ rt-thread/components/drivers/sdio/mmcsd_core.c:246:22
	ldr	r2, [sp, #124]
	.loc	2 246 18                        @ rt-thread/components/drivers/sdio/mmcsd_core.c:246:18
	ldr.w	r0, [r0, r2, lsl #2]
	.loc	2 246 9                         @ rt-thread/components/drivers/sdio/mmcsd_core.c:246:9
	ldr	r1, [sp, #132]
	.loc	2 246 16                        @ rt-thread/components/drivers/sdio/mmcsd_core.c:246:16
	str.w	r0, [r1, r2, lsl #2]
	.loc	2 246 9                         @ rt-thread/components/drivers/sdio/mmcsd_core.c:246:9
	b	.LBB10_16
.LBB10_16:                              @   in Loop: Header=BB10_14 Depth=1
	.loc	2 245 23 is_stmt 1              @ rt-thread/components/drivers/sdio/mmcsd_core.c:245:23
	ldr	r0, [sp, #124]
	adds	r0, #1
	str	r0, [sp, #124]
	.loc	2 245 5 is_stmt 0               @ rt-thread/components/drivers/sdio/mmcsd_core.c:245:5
	b	.LBB10_14
.Ltmp73:
.LBB10_17:
	.loc	2 247 13 is_stmt 1              @ rt-thread/components/drivers/sdio/mmcsd_core.c:247:13
	ldr	r0, [sp, #24]
	.loc	2 247 5 is_stmt 0               @ rt-thread/components/drivers/sdio/mmcsd_core.c:247:5
	bl	rt_free
	movs	r0, #0
	.loc	2 249 5 is_stmt 1               @ rt-thread/components/drivers/sdio/mmcsd_core.c:249:5
	str	r0, [sp, #140]
	b	.LBB10_18
.LBB10_18:
	.loc	2 250 1                         @ rt-thread/components/drivers/sdio/mmcsd_core.c:250:1
	ldr	r0, [sp, #140]
	add	sp, #144
	pop	{r7, pc}
.Ltmp74:
.Lfunc_end10:
	.size	mmcsd_get_cid, .Lfunc_end10-mmcsd_get_cid
	.cfi_endproc
	.cantunwind
	.fnend
                                        @ -- End function
	.section	.text.mmcsd_get_csd,"ax",%progbits
	.hidden	mmcsd_get_csd                   @ -- Begin function mmcsd_get_csd
	.globl	mmcsd_get_csd
	.p2align	3
	.type	mmcsd_get_csd,%function
	.code	16                              @ @mmcsd_get_csd
	.thumb_func
mmcsd_get_csd:
.Lfunc_begin11:
	.loc	2 253 0                         @ rt-thread/components/drivers/sdio/mmcsd_core.c:253:0
	.fnstart
	.cfi_startproc
@ %bb.0:
	.save	{r7, lr}
	push	{r7, lr}
	.cfi_def_cfa_offset 8
	.cfi_offset lr, -4
	.cfi_offset r7, -8
	.pad	#144
	sub	sp, #144
	.cfi_def_cfa_offset 152
	str	r0, [sp, #136]
	str	r1, [sp, #132]
	movs	r0, #0
.Ltmp75:
	.loc	2 258 18 prologue_end           @ rt-thread/components/drivers/sdio/mmcsd_core.c:258:18
	str	r0, [sp, #24]
.Ltmp76:
	.loc	2 260 10                        @ rt-thread/components/drivers/sdio/mmcsd_core.c:260:10
	ldr	r0, [sp, #136]
	ldr	r0, [r0]
.Ltmp77:
	.loc	2 260 9 is_stmt 0               @ rt-thread/components/drivers/sdio/mmcsd_core.c:260:9
	ldrb.w	r0, [r0, #32]
	lsls	r0, r0, #28
	cmp	r0, #0
	bmi	.LBB11_4
	b	.LBB11_1
.LBB11_1:
	.loc	2 0 9                           @ rt-thread/components/drivers/sdio/mmcsd_core.c:0:9
	add	r0, sp, #68
	str	r0, [sp, #20]                   @ 4-byte Spill
	movs	r1, #0
	movs	r2, #44
.Ltmp78:
	.loc	2 262 9 is_stmt 1               @ rt-thread/components/drivers/sdio/mmcsd_core.c:262:9
	bl	rt_memset
	ldr	r1, [sp, #20]                   @ 4-byte Reload
	movs	r0, #9
	.loc	2 264 22                        @ rt-thread/components/drivers/sdio/mmcsd_core.c:264:22
	str	r0, [sp, #68]
	.loc	2 265 19                        @ rt-thread/components/drivers/sdio/mmcsd_core.c:265:19
	ldr	r0, [sp, #136]
	.loc	2 265 25 is_stmt 0              @ rt-thread/components/drivers/sdio/mmcsd_core.c:265:25
	ldr	r0, [r0, #4]
	.loc	2 265 29                        @ rt-thread/components/drivers/sdio/mmcsd_core.c:265:29
	lsls	r0, r0, #16
	.loc	2 265 17                        @ rt-thread/components/drivers/sdio/mmcsd_core.c:265:17
	str	r0, [sp, #72]
	movs	r2, #3
	.loc	2 266 19 is_stmt 1              @ rt-thread/components/drivers/sdio/mmcsd_core.c:266:19
	str	r2, [sp, #92]
	.loc	2 267 30                        @ rt-thread/components/drivers/sdio/mmcsd_core.c:267:30
	ldr	r0, [sp, #136]
	.loc	2 267 36 is_stmt 0              @ rt-thread/components/drivers/sdio/mmcsd_core.c:267:36
	ldr	r0, [r0]
	.loc	2 267 15                        @ rt-thread/components/drivers/sdio/mmcsd_core.c:267:15
	bl	mmcsd_send_cmd
	.loc	2 267 13                        @ rt-thread/components/drivers/sdio/mmcsd_core.c:267:13
	str	r0, [sp, #128]
.Ltmp79:
	.loc	2 268 13 is_stmt 1              @ rt-thread/components/drivers/sdio/mmcsd_core.c:268:13
	ldr	r0, [sp, #128]
.Ltmp80:
	.loc	2 268 13 is_stmt 0              @ rt-thread/components/drivers/sdio/mmcsd_core.c:268:13
	cbz	r0, .LBB11_3
	b	.LBB11_2
.LBB11_2:
.Ltmp81:
	.loc	2 269 20 is_stmt 1              @ rt-thread/components/drivers/sdio/mmcsd_core.c:269:20
	ldr	r0, [sp, #128]
	.loc	2 269 13 is_stmt 0              @ rt-thread/components/drivers/sdio/mmcsd_core.c:269:13
	str	r0, [sp, #140]
	b	.LBB11_16
.Ltmp82:
.LBB11_3:
	.loc	2 271 19 is_stmt 1              @ rt-thread/components/drivers/sdio/mmcsd_core.c:271:19
	ldr	r0, [sp, #132]
	add	r1, sp, #68
	.loc	2 271 28 is_stmt 0              @ rt-thread/components/drivers/sdio/mmcsd_core.c:271:28
	adds	r1, #8
	movs	r2, #16
	.loc	2 271 9                         @ rt-thread/components/drivers/sdio/mmcsd_core.c:271:9
	bl	rt_memcpy
	movs	r0, #0
	.loc	2 273 9 is_stmt 1               @ rt-thread/components/drivers/sdio/mmcsd_core.c:273:9
	str	r0, [sp, #140]
	b	.LBB11_16
.Ltmp83:
.LBB11_4:
	.loc	2 0 9 is_stmt 0                 @ rt-thread/components/drivers/sdio/mmcsd_core.c:0:9
	movs	r0, #16
	.loc	2 276 25 is_stmt 1              @ rt-thread/components/drivers/sdio/mmcsd_core.c:276:25
	bl	rt_malloc
	.loc	2 276 9 is_stmt 0               @ rt-thread/components/drivers/sdio/mmcsd_core.c:276:9
	str	r0, [sp, #24]
.Ltmp84:
	.loc	2 277 10 is_stmt 1              @ rt-thread/components/drivers/sdio/mmcsd_core.c:277:10
	ldr	r0, [sp, #24]
.Ltmp85:
	.loc	2 277 9 is_stmt 0               @ rt-thread/components/drivers/sdio/mmcsd_core.c:277:9
	cbnz	r0, .LBB11_8
	b	.LBB11_5
.LBB11_5:
.Ltmp86:
	.loc	2 279 9 is_stmt 1               @ rt-thread/components/drivers/sdio/mmcsd_core.c:279:9
	b	.LBB11_6
.LBB11_6:
.Ltmp87:
	.loc	2 279 9 is_stmt 0               @ rt-thread/components/drivers/sdio/mmcsd_core.c:279:9
	movw	r0, :lower16:.L.str
	movt	r0, :upper16:.L.str
	bl	rt_kprintf
	movw	r0, :lower16:.L.str.1
	movt	r0, :upper16:.L.str.1
	bl	rt_kprintf
	movw	r0, :lower16:.L.str.2
	movt	r0, :upper16:.L.str.2
	bl	rt_kprintf
	b	.LBB11_7
.Ltmp88:
.LBB11_7:
	.loc	2 0 9                           @ rt-thread/components/drivers/sdio/mmcsd_core.c:0:9
	mvn	r0, #4
	.loc	2 281 9 is_stmt 1               @ rt-thread/components/drivers/sdio/mmcsd_core.c:281:9
	str	r0, [sp, #140]
	b	.LBB11_16
.Ltmp89:
.LBB11_8:
	.loc	2 0 9 is_stmt 0                 @ rt-thread/components/drivers/sdio/mmcsd_core.c:0:9
	add	r0, sp, #112
	str	r0, [sp, #12]                   @ 4-byte Spill
	movs	r1, #0
	str	r1, [sp, #16]                   @ 4-byte Spill
	movs	r2, #12
	.loc	2 284 5 is_stmt 1               @ rt-thread/components/drivers/sdio/mmcsd_core.c:284:5
	bl	rt_memset
	ldr	r1, [sp, #16]                   @ 4-byte Reload
	add	r0, sp, #68
	str	r0, [sp, #4]                    @ 4-byte Spill
	movs	r2, #44
	.loc	2 285 5                         @ rt-thread/components/drivers/sdio/mmcsd_core.c:285:5
	bl	rt_memset
	ldr	r1, [sp, #16]                   @ 4-byte Reload
	add	r0, sp, #28
	str	r0, [sp, #8]                    @ 4-byte Spill
	movs	r2, #40
	.loc	2 286 5                         @ rt-thread/components/drivers/sdio/mmcsd_core.c:286:5
	bl	rt_memset
	ldr	r3, [sp, #4]                    @ 4-byte Reload
	ldr	r2, [sp, #8]                    @ 4-byte Reload
	ldr	r1, [sp, #12]                   @ 4-byte Reload
                                        @ kill: def $r12 killed $r0
	.loc	2 288 13                        @ rt-thread/components/drivers/sdio/mmcsd_core.c:288:13
	ldr	r0, [sp, #16]                   @ 4-byte Reload
	str	r3, [sp, #116]
	.loc	2 289 14                        @ rt-thread/components/drivers/sdio/mmcsd_core.c:289:14
	str	r2, [sp, #112]
	movs	r2, #9
	.loc	2 291 18                        @ rt-thread/components/drivers/sdio/mmcsd_core.c:291:18
	str	r2, [sp, #68]
	.loc	2 292 13                        @ rt-thread/components/drivers/sdio/mmcsd_core.c:292:13
	str	r0, [sp, #72]
	movs	r2, #81
	.loc	2 299 15                        @ rt-thread/components/drivers/sdio/mmcsd_core.c:299:15
	str	r2, [sp, #92]
	movs	r2, #16
	.loc	2 301 18                        @ rt-thread/components/drivers/sdio/mmcsd_core.c:301:18
	str	r2, [sp, #28]
	movs	r2, #1
	.loc	2 302 15                        @ rt-thread/components/drivers/sdio/mmcsd_core.c:302:15
	str	r2, [sp, #32]
	movs	r2, #2
	.loc	2 303 16                        @ rt-thread/components/drivers/sdio/mmcsd_core.c:303:16
	str	r2, [sp, #44]
	.loc	2 304 16                        @ rt-thread/components/drivers/sdio/mmcsd_core.c:304:16
	ldr	r2, [sp, #24]
	.loc	2 304 14 is_stmt 0              @ rt-thread/components/drivers/sdio/mmcsd_core.c:304:14
	str	r2, [sp, #36]
	.loc	2 310 21 is_stmt 1              @ rt-thread/components/drivers/sdio/mmcsd_core.c:310:21
	str	r0, [sp, #60]
	movs	r0, #64
	.loc	2 311 23                        @ rt-thread/components/drivers/sdio/mmcsd_core.c:311:23
	str	r0, [sp, #64]
	.loc	2 313 24                        @ rt-thread/components/drivers/sdio/mmcsd_core.c:313:24
	ldr	r0, [sp, #136]
	.loc	2 313 30 is_stmt 0              @ rt-thread/components/drivers/sdio/mmcsd_core.c:313:30
	ldr	r0, [r0]
	.loc	2 313 5                         @ rt-thread/components/drivers/sdio/mmcsd_core.c:313:5
	bl	mmcsd_send_request
.Ltmp90:
	.loc	2 315 13 is_stmt 1              @ rt-thread/components/drivers/sdio/mmcsd_core.c:315:13
	ldr	r0, [sp, #100]
	.loc	2 315 17 is_stmt 0              @ rt-thread/components/drivers/sdio/mmcsd_core.c:315:17
	cbnz	r0, .LBB11_10
	b	.LBB11_9
.LBB11_9:
	.loc	2 315 25                        @ rt-thread/components/drivers/sdio/mmcsd_core.c:315:25
	ldr	r0, [sp, #40]
.Ltmp91:
	.loc	2 315 9                         @ rt-thread/components/drivers/sdio/mmcsd_core.c:315:9
	cbz	r0, .LBB11_11
	b	.LBB11_10
.LBB11_10:
.Ltmp92:
	.loc	2 317 17 is_stmt 1              @ rt-thread/components/drivers/sdio/mmcsd_core.c:317:17
	ldr	r0, [sp, #24]
	.loc	2 317 9 is_stmt 0               @ rt-thread/components/drivers/sdio/mmcsd_core.c:317:9
	bl	rt_free
	mov.w	r0, #-1
	.loc	2 319 9 is_stmt 1               @ rt-thread/components/drivers/sdio/mmcsd_core.c:319:9
	str	r0, [sp, #140]
	b	.LBB11_16
.Ltmp93:
.LBB11_11:
	.loc	2 0 9 is_stmt 0                 @ rt-thread/components/drivers/sdio/mmcsd_core.c:0:9
	movs	r0, #0
.Ltmp94:
	.loc	2 322 12 is_stmt 1              @ rt-thread/components/drivers/sdio/mmcsd_core.c:322:12
	str	r0, [sp, #124]
	.loc	2 322 10 is_stmt 0              @ rt-thread/components/drivers/sdio/mmcsd_core.c:322:10
	b	.LBB11_12
.LBB11_12:                              @ =>This Inner Loop Header: Depth=1
.Ltmp95:
	.loc	2 322 16                        @ rt-thread/components/drivers/sdio/mmcsd_core.c:322:16
	ldr	r0, [sp, #124]
.Ltmp96:
	.loc	2 322 5                         @ rt-thread/components/drivers/sdio/mmcsd_core.c:322:5
	cmp	r0, #3
	bgt	.LBB11_15
	b	.LBB11_13
.LBB11_13:                              @   in Loop: Header=BB11_12 Depth=1
.Ltmp97:
	.loc	2 323 18 is_stmt 1              @ rt-thread/components/drivers/sdio/mmcsd_core.c:323:18
	ldr	r0, [sp, #24]
	.loc	2 323 22 is_stmt 0              @ rt-thread/components/drivers/sdio/mmcsd_core.c:323:22
	ldr	r2, [sp, #124]
	.loc	2 323 18                        @ rt-thread/components/drivers/sdio/mmcsd_core.c:323:18
	ldr.w	r0, [r0, r2, lsl #2]
	.loc	2 323 9                         @ rt-thread/components/drivers/sdio/mmcsd_core.c:323:9
	ldr	r1, [sp, #132]
	.loc	2 323 16                        @ rt-thread/components/drivers/sdio/mmcsd_core.c:323:16
	str.w	r0, [r1, r2, lsl #2]
	.loc	2 323 9                         @ rt-thread/components/drivers/sdio/mmcsd_core.c:323:9
	b	.LBB11_14
.LBB11_14:                              @   in Loop: Header=BB11_12 Depth=1
	.loc	2 322 23 is_stmt 1              @ rt-thread/components/drivers/sdio/mmcsd_core.c:322:23
	ldr	r0, [sp, #124]
	adds	r0, #1
	str	r0, [sp, #124]
	.loc	2 322 5 is_stmt 0               @ rt-thread/components/drivers/sdio/mmcsd_core.c:322:5
	b	.LBB11_12
.Ltmp98:
.LBB11_15:
	.loc	2 324 13 is_stmt 1              @ rt-thread/components/drivers/sdio/mmcsd_core.c:324:13
	ldr	r0, [sp, #24]
	.loc	2 324 5 is_stmt 0               @ rt-thread/components/drivers/sdio/mmcsd_core.c:324:5
	bl	rt_free
	movs	r0, #0
	.loc	2 326 5 is_stmt 1               @ rt-thread/components/drivers/sdio/mmcsd_core.c:326:5
	str	r0, [sp, #140]
	b	.LBB11_16
.LBB11_16:
	.loc	2 327 1                         @ rt-thread/components/drivers/sdio/mmcsd_core.c:327:1
	ldr	r0, [sp, #140]
	add	sp, #144
	pop	{r7, pc}
.Ltmp99:
.Lfunc_end11:
	.size	mmcsd_get_csd, .Lfunc_end11-mmcsd_get_csd
	.cfi_endproc
	.cantunwind
	.fnend
                                        @ -- End function
	.section	.text.mmcsd_select_card,"ax",%progbits
	.hidden	mmcsd_select_card               @ -- Begin function mmcsd_select_card
	.globl	mmcsd_select_card
	.p2align	3
	.type	mmcsd_select_card,%function
	.code	16                              @ @mmcsd_select_card
	.thumb_func
mmcsd_select_card:
.Lfunc_begin12:
	.loc	2 358 0                         @ rt-thread/components/drivers/sdio/mmcsd_core.c:358:0
	.fnstart
	.cfi_startproc
@ %bb.0:
	.save	{r7, lr}
	push	{r7, lr}
	.cfi_def_cfa_offset 8
	.cfi_offset lr, -4
	.cfi_offset r7, -8
	.pad	#8
	sub	sp, #8
	.cfi_def_cfa_offset 16
	str	r0, [sp, #4]
.Ltmp100:
	.loc	2 359 31 prologue_end           @ rt-thread/components/drivers/sdio/mmcsd_core.c:359:31
	ldr	r1, [sp, #4]
	.loc	2 359 37 is_stmt 0              @ rt-thread/components/drivers/sdio/mmcsd_core.c:359:37
	ldr	r0, [r1]
	.loc	2 359 12                        @ rt-thread/components/drivers/sdio/mmcsd_core.c:359:12
	bl	_mmcsd_select_card
	.loc	2 359 5                         @ rt-thread/components/drivers/sdio/mmcsd_core.c:359:5
	add	sp, #8
	pop	{r7, pc}
.Ltmp101:
.Lfunc_end12:
	.size	mmcsd_select_card, .Lfunc_end12-mmcsd_select_card
	.cfi_endproc
	.cantunwind
	.fnend
                                        @ -- End function
	.section	.text._mmcsd_select_card,"ax",%progbits
	.p2align	3                               @ -- Begin function _mmcsd_select_card
	.type	_mmcsd_select_card,%function
	.code	16                              @ @_mmcsd_select_card
	.thumb_func
_mmcsd_select_card:
.Lfunc_begin13:
	.loc	2 331 0 is_stmt 1               @ rt-thread/components/drivers/sdio/mmcsd_core.c:331:0
	.fnstart
	.cfi_startproc
@ %bb.0:
	.save	{r7, lr}
	push	{r7, lr}
	.cfi_def_cfa_offset 8
	.cfi_offset lr, -4
	.cfi_offset r7, -8
	.pad	#64
	sub	sp, #64
	.cfi_def_cfa_offset 72
	str	r0, [sp, #56]
	str	r1, [sp, #52]
	add	r0, sp, #4
	movs	r1, #0
	movs	r2, #44
.Ltmp102:
	.loc	2 335 5 prologue_end            @ rt-thread/components/drivers/sdio/mmcsd_core.c:335:5
	bl	rt_memset
	movs	r0, #7
	.loc	2 337 18                        @ rt-thread/components/drivers/sdio/mmcsd_core.c:337:18
	str	r0, [sp, #4]
.Ltmp103:
	.loc	2 339 9                         @ rt-thread/components/drivers/sdio/mmcsd_core.c:339:9
	ldr	r0, [sp, #52]
.Ltmp104:
	.loc	2 339 9 is_stmt 0               @ rt-thread/components/drivers/sdio/mmcsd_core.c:339:9
	cbz	r0, .LBB13_2
	b	.LBB13_1
.LBB13_1:
.Ltmp105:
	.loc	2 341 19 is_stmt 1              @ rt-thread/components/drivers/sdio/mmcsd_core.c:341:19
	ldr	r0, [sp, #52]
	.loc	2 341 25 is_stmt 0              @ rt-thread/components/drivers/sdio/mmcsd_core.c:341:25
	ldr	r0, [r0, #4]
	.loc	2 341 29                        @ rt-thread/components/drivers/sdio/mmcsd_core.c:341:29
	lsls	r0, r0, #16
	.loc	2 341 17                        @ rt-thread/components/drivers/sdio/mmcsd_core.c:341:17
	str	r0, [sp, #8]
	movs	r0, #1
	.loc	2 342 19 is_stmt 1              @ rt-thread/components/drivers/sdio/mmcsd_core.c:342:19
	str	r0, [sp, #28]
	.loc	2 343 5                         @ rt-thread/components/drivers/sdio/mmcsd_core.c:343:5
	b	.LBB13_3
.Ltmp106:
.LBB13_2:
	.loc	2 0 5 is_stmt 0                 @ rt-thread/components/drivers/sdio/mmcsd_core.c:0:5
	movs	r0, #0
.Ltmp107:
	.loc	2 346 17 is_stmt 1              @ rt-thread/components/drivers/sdio/mmcsd_core.c:346:17
	str	r0, [sp, #8]
	.loc	2 347 19                        @ rt-thread/components/drivers/sdio/mmcsd_core.c:347:19
	str	r0, [sp, #28]
	b	.LBB13_3
.Ltmp108:
.LBB13_3:
	.loc	2 350 26                        @ rt-thread/components/drivers/sdio/mmcsd_core.c:350:26
	ldr	r0, [sp, #56]
	add	r1, sp, #4
	movs	r2, #3
	.loc	2 350 11 is_stmt 0              @ rt-thread/components/drivers/sdio/mmcsd_core.c:350:11
	bl	mmcsd_send_cmd
	.loc	2 350 9                         @ rt-thread/components/drivers/sdio/mmcsd_core.c:350:9
	str	r0, [sp, #48]
.Ltmp109:
	.loc	2 351 9 is_stmt 1               @ rt-thread/components/drivers/sdio/mmcsd_core.c:351:9
	ldr	r0, [sp, #48]
.Ltmp110:
	.loc	2 351 9 is_stmt 0               @ rt-thread/components/drivers/sdio/mmcsd_core.c:351:9
	cbz	r0, .LBB13_5
	b	.LBB13_4
.LBB13_4:
.Ltmp111:
	.loc	2 352 16 is_stmt 1              @ rt-thread/components/drivers/sdio/mmcsd_core.c:352:16
	ldr	r0, [sp, #48]
	.loc	2 352 9 is_stmt 0               @ rt-thread/components/drivers/sdio/mmcsd_core.c:352:9
	str	r0, [sp, #60]
	b	.LBB13_6
.Ltmp112:
.LBB13_5:
	.loc	2 0 9                           @ rt-thread/components/drivers/sdio/mmcsd_core.c:0:9
	movs	r0, #0
	.loc	2 354 5 is_stmt 1               @ rt-thread/components/drivers/sdio/mmcsd_core.c:354:5
	str	r0, [sp, #60]
	b	.LBB13_6
.LBB13_6:
	.loc	2 355 1                         @ rt-thread/components/drivers/sdio/mmcsd_core.c:355:1
	ldr	r0, [sp, #60]
	add	sp, #64
	pop	{r7, pc}
.Ltmp113:
.Lfunc_end13:
	.size	_mmcsd_select_card, .Lfunc_end13-_mmcsd_select_card
	.cfi_endproc
	.cantunwind
	.fnend
                                        @ -- End function
	.section	.text.mmcsd_deselect_cards,"ax",%progbits
	.hidden	mmcsd_deselect_cards            @ -- Begin function mmcsd_deselect_cards
	.globl	mmcsd_deselect_cards
	.p2align	3
	.type	mmcsd_deselect_cards,%function
	.code	16                              @ @mmcsd_deselect_cards
	.thumb_func
mmcsd_deselect_cards:
.Lfunc_begin14:
	.loc	2 363 0                         @ rt-thread/components/drivers/sdio/mmcsd_core.c:363:0
	.fnstart
	.cfi_startproc
@ %bb.0:
	.save	{r7, lr}
	push	{r7, lr}
	.cfi_def_cfa_offset 8
	.cfi_offset lr, -4
	.cfi_offset r7, -8
	.pad	#8
	sub	sp, #8
	.cfi_def_cfa_offset 16
	str	r0, [sp, #4]
.Ltmp114:
	.loc	2 364 31 prologue_end           @ rt-thread/components/drivers/sdio/mmcsd_core.c:364:31
	ldr	r0, [sp, #4]
	.loc	2 364 37 is_stmt 0              @ rt-thread/components/drivers/sdio/mmcsd_core.c:364:37
	ldr	r0, [r0]
	movs	r1, #0
	.loc	2 364 12                        @ rt-thread/components/drivers/sdio/mmcsd_core.c:364:12
	bl	_mmcsd_select_card
	.loc	2 364 5                         @ rt-thread/components/drivers/sdio/mmcsd_core.c:364:5
	add	sp, #8
	pop	{r7, pc}
.Ltmp115:
.Lfunc_end14:
	.size	mmcsd_deselect_cards, .Lfunc_end14-mmcsd_deselect_cards
	.cfi_endproc
	.cantunwind
	.fnend
                                        @ -- End function
	.section	.text.mmcsd_spi_use_crc,"ax",%progbits
	.hidden	mmcsd_spi_use_crc               @ -- Begin function mmcsd_spi_use_crc
	.globl	mmcsd_spi_use_crc
	.p2align	3
	.type	mmcsd_spi_use_crc,%function
	.code	16                              @ @mmcsd_spi_use_crc
	.thumb_func
mmcsd_spi_use_crc:
.Lfunc_begin15:
	.loc	2 368 0 is_stmt 1               @ rt-thread/components/drivers/sdio/mmcsd_core.c:368:0
	.fnstart
	.cfi_startproc
@ %bb.0:
	.save	{r7, lr}
	push	{r7, lr}
	.cfi_def_cfa_offset 8
	.cfi_offset lr, -4
	.cfi_offset r7, -8
	.pad	#64
	sub	sp, #64
	.cfi_def_cfa_offset 72
	str	r0, [sp, #60]
	str	r1, [sp, #56]
	add	r0, sp, #12
	str	r0, [sp]                        @ 4-byte Spill
	movs	r1, #0
	str	r1, [sp, #4]                    @ 4-byte Spill
	movs	r2, #44
.Ltmp116:
	.loc	2 372 5 prologue_end            @ rt-thread/components/drivers/sdio/mmcsd_core.c:372:5
	bl	rt_memset
	ldr	r1, [sp]                        @ 4-byte Reload
	ldr	r2, [sp, #4]                    @ 4-byte Reload
	movs	r0, #59
	.loc	2 374 18                        @ rt-thread/components/drivers/sdio/mmcsd_core.c:374:18
	str	r0, [sp, #12]
	movs	r0, #64
	.loc	2 375 15                        @ rt-thread/components/drivers/sdio/mmcsd_core.c:375:15
	str	r0, [sp, #36]
	.loc	2 376 15                        @ rt-thread/components/drivers/sdio/mmcsd_core.c:376:15
	ldr	r0, [sp, #56]
	.loc	2 376 13 is_stmt 0              @ rt-thread/components/drivers/sdio/mmcsd_core.c:376:13
	str	r0, [sp, #16]
	.loc	2 378 26 is_stmt 1              @ rt-thread/components/drivers/sdio/mmcsd_core.c:378:26
	ldr	r0, [sp, #60]
	.loc	2 378 11 is_stmt 0              @ rt-thread/components/drivers/sdio/mmcsd_core.c:378:11
	bl	mmcsd_send_cmd
	.loc	2 378 9                         @ rt-thread/components/drivers/sdio/mmcsd_core.c:378:9
	str	r0, [sp, #8]
.Ltmp117:
	.loc	2 379 10 is_stmt 1              @ rt-thread/components/drivers/sdio/mmcsd_core.c:379:10
	ldr	r0, [sp, #8]
.Ltmp118:
	.loc	2 379 9 is_stmt 0               @ rt-thread/components/drivers/sdio/mmcsd_core.c:379:9
	cbnz	r0, .LBB15_2
	b	.LBB15_1
.LBB15_1:
.Ltmp119:
	.loc	2 380 29 is_stmt 1              @ rt-thread/components/drivers/sdio/mmcsd_core.c:380:29
	ldr	r0, [sp, #56]
	.loc	2 380 9 is_stmt 0               @ rt-thread/components/drivers/sdio/mmcsd_core.c:380:9
	ldr	r1, [sp, #60]
	.loc	2 380 27                        @ rt-thread/components/drivers/sdio/mmcsd_core.c:380:27
	str	r0, [r1, #52]
	.loc	2 380 9                         @ rt-thread/components/drivers/sdio/mmcsd_core.c:380:9
	b	.LBB15_2
.Ltmp120:
.LBB15_2:
	.loc	2 382 12 is_stmt 1              @ rt-thread/components/drivers/sdio/mmcsd_core.c:382:12
	ldr	r0, [sp, #8]
	.loc	2 382 5 is_stmt 0               @ rt-thread/components/drivers/sdio/mmcsd_core.c:382:5
	add	sp, #64
	pop	{r7, pc}
.Ltmp121:
.Lfunc_end15:
	.size	mmcsd_spi_use_crc, .Lfunc_end15-mmcsd_spi_use_crc
	.cfi_endproc
	.cantunwind
	.fnend
                                        @ -- End function
	.section	.text.mmcsd_set_iocfg,"ax",%progbits
	.p2align	3                               @ -- Begin function mmcsd_set_iocfg
	.type	mmcsd_set_iocfg,%function
	.code	16                              @ @mmcsd_set_iocfg
	.thumb_func
mmcsd_set_iocfg:
.Lfunc_begin16:
	.loc	2 386 0 is_stmt 1               @ rt-thread/components/drivers/sdio/mmcsd_core.c:386:0
	.fnstart
	.cfi_startproc
@ %bb.0:
	.save	{r7, lr}
	push	{r7, lr}
	.cfi_def_cfa_offset 8
	.cfi_offset lr, -4
	.cfi_offset r7, -8
	.pad	#8
	sub	sp, #8
	.cfi_def_cfa_offset 16
	str	r0, [sp, #4]
.Ltmp122:
	.loc	2 387 39 prologue_end           @ rt-thread/components/drivers/sdio/mmcsd_core.c:387:39
	ldr	r0, [sp, #4]
	.loc	2 387 45 is_stmt 0              @ rt-thread/components/drivers/sdio/mmcsd_core.c:387:45
	adds	r0, #16
	.loc	2 387 29                        @ rt-thread/components/drivers/sdio/mmcsd_core.c:387:29
	str	r0, [sp]
	.loc	2 395 5 is_stmt 1               @ rt-thread/components/drivers/sdio/mmcsd_core.c:395:5
	ldr	r0, [sp, #4]
	.loc	2 395 11 is_stmt 0              @ rt-thread/components/drivers/sdio/mmcsd_core.c:395:11
	ldr	r1, [r0, #4]
	.loc	2 395 16                        @ rt-thread/components/drivers/sdio/mmcsd_core.c:395:16
	ldr	r2, [r1, #4]
	.loc	2 395 32                        @ rt-thread/components/drivers/sdio/mmcsd_core.c:395:32
	ldr	r1, [sp]
	.loc	2 395 5                         @ rt-thread/components/drivers/sdio/mmcsd_core.c:395:5
	blx	r2
	.loc	2 396 1 is_stmt 1               @ rt-thread/components/drivers/sdio/mmcsd_core.c:396:1
	add	sp, #8
	pop	{r7, pc}
.Ltmp123:
.Lfunc_end16:
	.size	mmcsd_set_iocfg, .Lfunc_end16-mmcsd_set_iocfg
	.cfi_endproc
	.cantunwind
	.fnend
                                        @ -- End function
	.section	.text.mmcsd_set_clock,"ax",%progbits
	.hidden	mmcsd_set_clock                 @ -- Begin function mmcsd_set_clock
	.globl	mmcsd_set_clock
	.p2align	3
	.type	mmcsd_set_clock,%function
	.code	16                              @ @mmcsd_set_clock
	.thumb_func
mmcsd_set_clock:
.Lfunc_begin17:
	.loc	2 412 0                         @ rt-thread/components/drivers/sdio/mmcsd_core.c:412:0
	.fnstart
	.cfi_startproc
@ %bb.0:
	.save	{r7, lr}
	push	{r7, lr}
	.cfi_def_cfa_offset 8
	.cfi_offset lr, -4
	.cfi_offset r7, -8
	.pad	#8
	sub	sp, #8
	.cfi_def_cfa_offset 16
	str	r0, [sp, #4]
	str	r1, [sp]
.Ltmp124:
	.loc	2 413 9 prologue_end            @ rt-thread/components/drivers/sdio/mmcsd_core.c:413:9
	ldr	r0, [sp]
	.loc	2 413 15 is_stmt 0              @ rt-thread/components/drivers/sdio/mmcsd_core.c:413:15
	ldr	r1, [sp, #4]
	.loc	2 413 21                        @ rt-thread/components/drivers/sdio/mmcsd_core.c:413:21
	ldr	r1, [r1, #8]
.Ltmp125:
	.loc	2 413 9                         @ rt-thread/components/drivers/sdio/mmcsd_core.c:413:9
	cmp	r0, r1
	bhs	.LBB17_4
	b	.LBB17_1
.LBB17_1:
.Ltmp126:
	.loc	2 415 9 is_stmt 1               @ rt-thread/components/drivers/sdio/mmcsd_core.c:415:9
	b	.LBB17_2
.LBB17_2:
.Ltmp127:
	.loc	2 415 9 is_stmt 0               @ rt-thread/components/drivers/sdio/mmcsd_core.c:415:9
	movw	r0, :lower16:.L.str.3
	movt	r0, :upper16:.L.str.3
	bl	rt_kprintf
	movw	r0, :lower16:.L.str.4
	movt	r0, :upper16:.L.str.4
	bl	rt_kprintf
	movw	r0, :lower16:.L.str.2
	movt	r0, :upper16:.L.str.2
	bl	rt_kprintf
	b	.LBB17_3
.Ltmp128:
.LBB17_3:
	.loc	2 416 5 is_stmt 1               @ rt-thread/components/drivers/sdio/mmcsd_core.c:416:5
	b	.LBB17_4
.Ltmp129:
.LBB17_4:
	.loc	2 418 26                        @ rt-thread/components/drivers/sdio/mmcsd_core.c:418:26
	ldr	r0, [sp]
	.loc	2 418 5 is_stmt 0               @ rt-thread/components/drivers/sdio/mmcsd_core.c:418:5
	ldr	r1, [sp, #4]
	.loc	2 418 24                        @ rt-thread/components/drivers/sdio/mmcsd_core.c:418:24
	str	r0, [r1, #16]
	.loc	2 419 21 is_stmt 1              @ rt-thread/components/drivers/sdio/mmcsd_core.c:419:21
	ldr	r0, [sp, #4]
	.loc	2 419 5 is_stmt 0               @ rt-thread/components/drivers/sdio/mmcsd_core.c:419:5
	bl	mmcsd_set_iocfg
	.loc	2 420 1 is_stmt 1               @ rt-thread/components/drivers/sdio/mmcsd_core.c:420:1
	add	sp, #8
	pop	{r7, pc}
.Ltmp130:
.Lfunc_end17:
	.size	mmcsd_set_clock, .Lfunc_end17-mmcsd_set_clock
	.cfi_endproc
	.cantunwind
	.fnend
                                        @ -- End function
	.section	.text.mmcsd_set_bus_mode,"ax",%progbits
	.hidden	mmcsd_set_bus_mode              @ -- Begin function mmcsd_set_bus_mode
	.globl	mmcsd_set_bus_mode
	.p2align	3
	.type	mmcsd_set_bus_mode,%function
	.code	16                              @ @mmcsd_set_bus_mode
	.thumb_func
mmcsd_set_bus_mode:
.Lfunc_begin18:
	.loc	2 426 0                         @ rt-thread/components/drivers/sdio/mmcsd_core.c:426:0
	.fnstart
	.cfi_startproc
@ %bb.0:
	.save	{r7, lr}
	push	{r7, lr}
	.cfi_def_cfa_offset 8
	.cfi_offset lr, -4
	.cfi_offset r7, -8
	.pad	#8
	sub	sp, #8
	.cfi_def_cfa_offset 16
	str	r0, [sp, #4]
	str	r1, [sp]
.Ltmp131:
	.loc	2 427 29 prologue_end           @ rt-thread/components/drivers/sdio/mmcsd_core.c:427:29
	ldr	r0, [sp]
	.loc	2 427 5 is_stmt 0               @ rt-thread/components/drivers/sdio/mmcsd_core.c:427:5
	ldr	r1, [sp, #4]
	.loc	2 427 27                        @ rt-thread/components/drivers/sdio/mmcsd_core.c:427:27
	strb	r0, [r1, #22]
	.loc	2 428 21 is_stmt 1              @ rt-thread/components/drivers/sdio/mmcsd_core.c:428:21
	ldr	r0, [sp, #4]
	.loc	2 428 5 is_stmt 0               @ rt-thread/components/drivers/sdio/mmcsd_core.c:428:5
	bl	mmcsd_set_iocfg
	.loc	2 429 1 is_stmt 1               @ rt-thread/components/drivers/sdio/mmcsd_core.c:429:1
	add	sp, #8
	pop	{r7, pc}
.Ltmp132:
.Lfunc_end18:
	.size	mmcsd_set_bus_mode, .Lfunc_end18-mmcsd_set_bus_mode
	.cfi_endproc
	.cantunwind
	.fnend
                                        @ -- End function
	.section	.text.mmcsd_set_bus_width,"ax",%progbits
	.hidden	mmcsd_set_bus_width             @ -- Begin function mmcsd_set_bus_width
	.globl	mmcsd_set_bus_width
	.p2align	3
	.type	mmcsd_set_bus_width,%function
	.code	16                              @ @mmcsd_set_bus_width
	.thumb_func
mmcsd_set_bus_width:
.Lfunc_begin19:
	.loc	2 435 0                         @ rt-thread/components/drivers/sdio/mmcsd_core.c:435:0
	.fnstart
	.cfi_startproc
@ %bb.0:
	.save	{r7, lr}
	push	{r7, lr}
	.cfi_def_cfa_offset 8
	.cfi_offset lr, -4
	.cfi_offset r7, -8
	.pad	#8
	sub	sp, #8
	.cfi_def_cfa_offset 16
	str	r0, [sp, #4]
	str	r1, [sp]
.Ltmp133:
	.loc	2 436 30 prologue_end           @ rt-thread/components/drivers/sdio/mmcsd_core.c:436:30
	ldr	r0, [sp]
	.loc	2 436 5 is_stmt 0               @ rt-thread/components/drivers/sdio/mmcsd_core.c:436:5
	ldr	r1, [sp, #4]
	.loc	2 436 28                        @ rt-thread/components/drivers/sdio/mmcsd_core.c:436:28
	strb	r0, [r1, #25]
	.loc	2 437 21 is_stmt 1              @ rt-thread/components/drivers/sdio/mmcsd_core.c:437:21
	ldr	r0, [sp, #4]
	.loc	2 437 5 is_stmt 0               @ rt-thread/components/drivers/sdio/mmcsd_core.c:437:5
	bl	mmcsd_set_iocfg
	.loc	2 438 1 is_stmt 1               @ rt-thread/components/drivers/sdio/mmcsd_core.c:438:1
	add	sp, #8
	pop	{r7, pc}
.Ltmp134:
.Lfunc_end19:
	.size	mmcsd_set_bus_width, .Lfunc_end19-mmcsd_set_bus_width
	.cfi_endproc
	.cantunwind
	.fnend
                                        @ -- End function
	.section	.text.mmcsd_set_data_timeout,"ax",%progbits
	.hidden	mmcsd_set_data_timeout          @ -- Begin function mmcsd_set_data_timeout
	.globl	mmcsd_set_data_timeout
	.p2align	3
	.type	mmcsd_set_data_timeout,%function
	.code	16                              @ @mmcsd_set_data_timeout
	.thumb_func
mmcsd_set_data_timeout:
.Lfunc_begin20:
	.loc	2 442 0                         @ rt-thread/components/drivers/sdio/mmcsd_core.c:442:0
	.fnstart
	.cfi_startproc
@ %bb.0:
	.pad	#20
	sub	sp, #20
	.cfi_def_cfa_offset 20
	str	r0, [sp, #16]
	str	r1, [sp, #12]
.Ltmp135:
	.loc	2 445 9 prologue_end            @ rt-thread/components/drivers/sdio/mmcsd_core.c:445:9
	ldr	r0, [sp, #12]
	.loc	2 445 15 is_stmt 0              @ rt-thread/components/drivers/sdio/mmcsd_core.c:445:15
	ldrh.w	r0, [r0, #72]
.Ltmp136:
	.loc	2 445 9                         @ rt-thread/components/drivers/sdio/mmcsd_core.c:445:9
	cmp	r0, #2
	bne	.LBB20_2
	b	.LBB20_1
.LBB20_1:
.Ltmp137:
	.loc	2 447 9 is_stmt 1               @ rt-thread/components/drivers/sdio/mmcsd_core.c:447:9
	ldr	r1, [sp, #16]
	movw	r0, #51712
	movt	r0, #15258
	.loc	2 447 26 is_stmt 0              @ rt-thread/components/drivers/sdio/mmcsd_core.c:447:26
	str	r0, [r1, #32]
	.loc	2 448 9 is_stmt 1               @ rt-thread/components/drivers/sdio/mmcsd_core.c:448:9
	ldr	r1, [sp, #16]
	movs	r0, #0
	.loc	2 448 28 is_stmt 0              @ rt-thread/components/drivers/sdio/mmcsd_core.c:448:28
	str	r0, [r1, #36]
	.loc	2 450 9 is_stmt 1               @ rt-thread/components/drivers/sdio/mmcsd_core.c:450:9
	b	.LBB20_21
.Ltmp138:
.LBB20_2:
	.loc	2 456 13                        @ rt-thread/components/drivers/sdio/mmcsd_core.c:456:13
	ldr	r0, [sp, #12]
	.loc	2 456 19 is_stmt 0              @ rt-thread/components/drivers/sdio/mmcsd_core.c:456:19
	ldrh.w	r1, [r0, #72]
	movs	r0, #10
	.loc	2 456 12                        @ rt-thread/components/drivers/sdio/mmcsd_core.c:456:12
	cmp	r1, #1
	it	eq
	moveq	r0, #100
	.loc	2 456 10                        @ rt-thread/components/drivers/sdio/mmcsd_core.c:456:10
	str	r0, [sp, #8]
.Ltmp139:
	.loc	2 462 9 is_stmt 1               @ rt-thread/components/drivers/sdio/mmcsd_core.c:462:9
	ldr	r0, [sp, #16]
.Ltmp140:
	.loc	2 462 9 is_stmt 0               @ rt-thread/components/drivers/sdio/mmcsd_core.c:462:9
	ldrb	r0, [r0, #16]
	lsls	r0, r0, #31
	cbz	r0, .LBB20_4
	b	.LBB20_3
.LBB20_3:
.Ltmp141:
	.loc	2 463 18 is_stmt 1              @ rt-thread/components/drivers/sdio/mmcsd_core.c:463:18
	ldr	r0, [sp, #12]
	.loc	2 463 28 is_stmt 0              @ rt-thread/components/drivers/sdio/mmcsd_core.c:463:28
	ldrb.w	r1, [r0, #96]
	.loc	2 463 14                        @ rt-thread/components/drivers/sdio/mmcsd_core.c:463:14
	ldr	r0, [sp, #8]
	lsls	r0, r1
	str	r0, [sp, #8]
	.loc	2 463 9                         @ rt-thread/components/drivers/sdio/mmcsd_core.c:463:9
	b	.LBB20_4
.Ltmp142:
.LBB20_4:
	.loc	2 465 24 is_stmt 1              @ rt-thread/components/drivers/sdio/mmcsd_core.c:465:24
	ldr	r0, [sp, #12]
	.loc	2 465 30 is_stmt 0              @ rt-thread/components/drivers/sdio/mmcsd_core.c:465:30
	ldr	r0, [r0, #52]
	.loc	2 465 40                        @ rt-thread/components/drivers/sdio/mmcsd_core.c:465:40
	ldr	r1, [sp, #8]
	.loc	2 465 38                        @ rt-thread/components/drivers/sdio/mmcsd_core.c:465:38
	muls	r0, r1, r0
	.loc	2 465 5                         @ rt-thread/components/drivers/sdio/mmcsd_core.c:465:5
	ldr	r1, [sp, #16]
	.loc	2 465 22                        @ rt-thread/components/drivers/sdio/mmcsd_core.c:465:22
	str	r0, [r1, #32]
	.loc	2 466 26 is_stmt 1              @ rt-thread/components/drivers/sdio/mmcsd_core.c:466:26
	ldr	r0, [sp, #12]
	.loc	2 466 32 is_stmt 0              @ rt-thread/components/drivers/sdio/mmcsd_core.c:466:32
	ldrh	r0, [r0, #48]
	.loc	2 466 44                        @ rt-thread/components/drivers/sdio/mmcsd_core.c:466:44
	ldr	r1, [sp, #8]
	.loc	2 466 42                        @ rt-thread/components/drivers/sdio/mmcsd_core.c:466:42
	muls	r0, r1, r0
	.loc	2 466 5                         @ rt-thread/components/drivers/sdio/mmcsd_core.c:466:5
	ldr	r1, [sp, #16]
	.loc	2 466 24                        @ rt-thread/components/drivers/sdio/mmcsd_core.c:466:24
	str	r0, [r1, #36]
.Ltmp143:
	.loc	2 471 9 is_stmt 1               @ rt-thread/components/drivers/sdio/mmcsd_core.c:471:9
	ldr	r0, [sp, #12]
	.loc	2 471 15 is_stmt 0              @ rt-thread/components/drivers/sdio/mmcsd_core.c:471:15
	ldrh.w	r0, [r0, #72]
.Ltmp144:
	.loc	2 471 9                         @ rt-thread/components/drivers/sdio/mmcsd_core.c:471:9
	cmp	r0, #1
	bne	.LBB20_12
	b	.LBB20_5
.LBB20_5:
.Ltmp145:
	.loc	2 475 22 is_stmt 1              @ rt-thread/components/drivers/sdio/mmcsd_core.c:475:22
	ldr	r0, [sp, #16]
	.loc	2 475 28 is_stmt 0              @ rt-thread/components/drivers/sdio/mmcsd_core.c:475:28
	ldr	r0, [r0, #32]
	movw	r2, #19923
	movt	r2, #4194
	.loc	2 475 39                        @ rt-thread/components/drivers/sdio/mmcsd_core.c:475:39
	umull	r1, r0, r0, r2
	lsrs	r0, r0, #6
	.loc	2 475 20                        @ rt-thread/components/drivers/sdio/mmcsd_core.c:475:20
	str	r0, [sp, #4]
	.loc	2 476 23 is_stmt 1              @ rt-thread/components/drivers/sdio/mmcsd_core.c:476:23
	ldr	r0, [sp, #16]
	.loc	2 476 29 is_stmt 0              @ rt-thread/components/drivers/sdio/mmcsd_core.c:476:29
	ldr	r0, [r0, #36]
	mov.w	r1, #1000
	.loc	2 476 42                        @ rt-thread/components/drivers/sdio/mmcsd_core.c:476:42
	muls	r0, r1, r0
	.loc	2 477 14 is_stmt 1              @ rt-thread/components/drivers/sdio/mmcsd_core.c:477:14
	ldr	r1, [sp, #12]
	.loc	2 477 20 is_stmt 0              @ rt-thread/components/drivers/sdio/mmcsd_core.c:477:20
	ldr	r1, [r1]
	.loc	2 477 33                        @ rt-thread/components/drivers/sdio/mmcsd_core.c:477:33
	ldr	r1, [r1, #16]
	.loc	2 477 39                        @ rt-thread/components/drivers/sdio/mmcsd_core.c:477:39
	umull	r2, r1, r1, r2
	lsrs	r1, r1, #6
	.loc	2 476 49 is_stmt 1              @ rt-thread/components/drivers/sdio/mmcsd_core.c:476:49
	udiv	r1, r0, r1
	.loc	2 476 20 is_stmt 0              @ rt-thread/components/drivers/sdio/mmcsd_core.c:476:20
	ldr	r0, [sp, #4]
	add	r0, r1
	str	r0, [sp, #4]
.Ltmp146:
	.loc	2 479 13 is_stmt 1              @ rt-thread/components/drivers/sdio/mmcsd_core.c:479:13
	ldr	r0, [sp, #16]
.Ltmp147:
	.loc	2 479 13 is_stmt 0              @ rt-thread/components/drivers/sdio/mmcsd_core.c:479:13
	ldrb	r0, [r0, #16]
	lsls	r0, r0, #31
	cbz	r0, .LBB20_7
	b	.LBB20_6
.LBB20_6:
	.loc	2 0 13                          @ rt-thread/components/drivers/sdio/mmcsd_core.c:0:13
	movw	r0, #37856
	movt	r0, #4
.Ltmp148:
	.loc	2 484 22 is_stmt 1              @ rt-thread/components/drivers/sdio/mmcsd_core.c:484:22
	str	r0, [sp]
	.loc	2 484 13 is_stmt 0              @ rt-thread/components/drivers/sdio/mmcsd_core.c:484:13
	b	.LBB20_8
.LBB20_7:
	.loc	2 0 13                          @ rt-thread/components/drivers/sdio/mmcsd_core.c:0:13
	movw	r0, #34464
	movt	r0, #1
	.loc	2 486 22 is_stmt 1              @ rt-thread/components/drivers/sdio/mmcsd_core.c:486:22
	str	r0, [sp]
	b	.LBB20_8
.Ltmp149:
.LBB20_8:
	.loc	2 491 13                        @ rt-thread/components/drivers/sdio/mmcsd_core.c:491:13
	ldr	r0, [sp, #4]
	.loc	2 491 26 is_stmt 0              @ rt-thread/components/drivers/sdio/mmcsd_core.c:491:26
	ldr	r1, [sp]
	.loc	2 491 35                        @ rt-thread/components/drivers/sdio/mmcsd_core.c:491:35
	cmp	r0, r1
	bhi	.LBB20_10
	b	.LBB20_9
.LBB20_9:
	.loc	2 491 38                        @ rt-thread/components/drivers/sdio/mmcsd_core.c:491:38
	ldr	r0, [sp, #12]
	ldrh.w	r0, [r0, #74]
.Ltmp150:
	.loc	2 491 13                        @ rt-thread/components/drivers/sdio/mmcsd_core.c:491:13
	lsls	r0, r0, #30
	cmp	r0, #0
	bpl	.LBB20_11
	b	.LBB20_10
.LBB20_10:
.Ltmp151:
	.loc	2 493 32 is_stmt 1              @ rt-thread/components/drivers/sdio/mmcsd_core.c:493:32
	ldr	r0, [sp]
	mov.w	r1, #1000
	.loc	2 493 41 is_stmt 0              @ rt-thread/components/drivers/sdio/mmcsd_core.c:493:41
	muls	r0, r1, r0
	.loc	2 493 13                        @ rt-thread/components/drivers/sdio/mmcsd_core.c:493:13
	ldr	r1, [sp, #16]
	.loc	2 493 30                        @ rt-thread/components/drivers/sdio/mmcsd_core.c:493:30
	str	r0, [r1, #32]
	.loc	2 494 13 is_stmt 1              @ rt-thread/components/drivers/sdio/mmcsd_core.c:494:13
	ldr	r1, [sp, #16]
	movs	r0, #0
	.loc	2 494 32 is_stmt 0              @ rt-thread/components/drivers/sdio/mmcsd_core.c:494:32
	str	r0, [r1, #36]
	.loc	2 495 9 is_stmt 1               @ rt-thread/components/drivers/sdio/mmcsd_core.c:495:9
	b	.LBB20_11
.Ltmp152:
.LBB20_11:
	.loc	2 496 5                         @ rt-thread/components/drivers/sdio/mmcsd_core.c:496:5
	b	.LBB20_12
.Ltmp153:
.LBB20_12:
	.loc	2 498 9                         @ rt-thread/components/drivers/sdio/mmcsd_core.c:498:9
	ldr	r0, [sp, #12]
	ldr	r0, [r0]
.Ltmp154:
	.loc	2 498 9 is_stmt 0               @ rt-thread/components/drivers/sdio/mmcsd_core.c:498:9
	ldrb.w	r0, [r0, #32]
	lsls	r0, r0, #28
	cmp	r0, #0
	bpl	.LBB20_21
	b	.LBB20_13
.LBB20_13:
.Ltmp155:
	.loc	2 500 13 is_stmt 1              @ rt-thread/components/drivers/sdio/mmcsd_core.c:500:13
	ldr	r0, [sp, #16]
.Ltmp156:
	.loc	2 500 13 is_stmt 0              @ rt-thread/components/drivers/sdio/mmcsd_core.c:500:13
	ldrb	r0, [r0, #16]
	lsls	r0, r0, #31
	cbz	r0, .LBB20_17
	b	.LBB20_14
.LBB20_14:
.Ltmp157:
	.loc	2 502 17 is_stmt 1              @ rt-thread/components/drivers/sdio/mmcsd_core.c:502:17
	ldr	r0, [sp, #16]
	.loc	2 502 23 is_stmt 0              @ rt-thread/components/drivers/sdio/mmcsd_core.c:502:23
	ldr	r0, [r0, #32]
	movw	r1, #51711
	movt	r1, #15258
.Ltmp158:
	.loc	2 502 17                        @ rt-thread/components/drivers/sdio/mmcsd_core.c:502:17
	cmp	r0, r1
	bhi	.LBB20_16
	b	.LBB20_15
.LBB20_15:
.Ltmp159:
	.loc	2 503 17 is_stmt 1              @ rt-thread/components/drivers/sdio/mmcsd_core.c:503:17
	ldr	r1, [sp, #16]
	movw	r0, #51712
	movt	r0, #15258
	.loc	2 503 34 is_stmt 0              @ rt-thread/components/drivers/sdio/mmcsd_core.c:503:34
	str	r0, [r1, #32]
	.loc	2 503 17                        @ rt-thread/components/drivers/sdio/mmcsd_core.c:503:17
	b	.LBB20_16
.Ltmp160:
.LBB20_16:
	.loc	2 504 9 is_stmt 1               @ rt-thread/components/drivers/sdio/mmcsd_core.c:504:9
	b	.LBB20_20
.Ltmp161:
.LBB20_17:
	.loc	2 507 17                        @ rt-thread/components/drivers/sdio/mmcsd_core.c:507:17
	ldr	r0, [sp, #16]
	.loc	2 507 23 is_stmt 0              @ rt-thread/components/drivers/sdio/mmcsd_core.c:507:23
	ldr	r0, [r0, #32]
	movw	r1, #57599
	movt	r1, #1525
.Ltmp162:
	.loc	2 507 17                        @ rt-thread/components/drivers/sdio/mmcsd_core.c:507:17
	cmp	r0, r1
	bhi	.LBB20_19
	b	.LBB20_18
.LBB20_18:
.Ltmp163:
	.loc	2 508 17 is_stmt 1              @ rt-thread/components/drivers/sdio/mmcsd_core.c:508:17
	ldr	r1, [sp, #16]
	movw	r0, #57600
	movt	r0, #1525
	.loc	2 508 34 is_stmt 0              @ rt-thread/components/drivers/sdio/mmcsd_core.c:508:34
	str	r0, [r1, #32]
	.loc	2 508 17                        @ rt-thread/components/drivers/sdio/mmcsd_core.c:508:17
	b	.LBB20_19
.Ltmp164:
.LBB20_19:
	.loc	2 0 17                          @ rt-thread/components/drivers/sdio/mmcsd_core.c:0:17
	b	.LBB20_20
.LBB20_20:
	.loc	2 510 5 is_stmt 1               @ rt-thread/components/drivers/sdio/mmcsd_core.c:510:5
	b	.LBB20_21
.Ltmp165:
.LBB20_21:
	.loc	2 511 1                         @ rt-thread/components/drivers/sdio/mmcsd_core.c:511:1
	add	sp, #20
	bx	lr
.Ltmp166:
.Lfunc_end20:
	.size	mmcsd_set_data_timeout, .Lfunc_end20-mmcsd_set_data_timeout
	.cfi_endproc
	.cantunwind
	.fnend
                                        @ -- End function
	.section	.text.mmcsd_select_voltage,"ax",%progbits
	.hidden	mmcsd_select_voltage            @ -- Begin function mmcsd_select_voltage
	.globl	mmcsd_select_voltage
	.p2align	3
	.type	mmcsd_select_voltage,%function
	.code	16                              @ @mmcsd_select_voltage
	.thumb_func
mmcsd_select_voltage:
.Lfunc_begin21:
	.loc	2 518 0                         @ rt-thread/components/drivers/sdio/mmcsd_core.c:518:0
	.fnstart
	.cfi_startproc
@ %bb.0:
	.save	{r7, lr}
	push	{r7, lr}
	.cfi_def_cfa_offset 8
	.cfi_offset lr, -4
	.cfi_offset r7, -8
	.pad	#16
	sub	sp, #16
	.cfi_def_cfa_offset 24
	str	r0, [sp, #12]
	str	r1, [sp, #8]
.Ltmp167:
	.loc	2 522 12 prologue_end           @ rt-thread/components/drivers/sdio/mmcsd_core.c:522:12
	ldr	r0, [sp, #12]
	.loc	2 522 18 is_stmt 0              @ rt-thread/components/drivers/sdio/mmcsd_core.c:522:18
	ldr	r1, [r0, #28]
	.loc	2 522 9                         @ rt-thread/components/drivers/sdio/mmcsd_core.c:522:9
	ldr	r0, [sp, #8]
	ands	r0, r1
	str	r0, [sp, #8]
	.loc	2 524 20 is_stmt 1              @ rt-thread/components/drivers/sdio/mmcsd_core.c:524:20
	ldr	r0, [sp, #8]
	.loc	2 524 11 is_stmt 0              @ rt-thread/components/drivers/sdio/mmcsd_core.c:524:11
	bl	__rt_ffs
	.loc	2 524 9                         @ rt-thread/components/drivers/sdio/mmcsd_core.c:524:9
	str	r0, [sp, #4]
.Ltmp168:
	.loc	2 525 9 is_stmt 1               @ rt-thread/components/drivers/sdio/mmcsd_core.c:525:9
	ldr	r0, [sp, #4]
.Ltmp169:
	.loc	2 525 9 is_stmt 0               @ rt-thread/components/drivers/sdio/mmcsd_core.c:525:9
	cbz	r0, .LBB21_2
	b	.LBB21_1
.LBB21_1:
.Ltmp170:
	.loc	2 527 13 is_stmt 1              @ rt-thread/components/drivers/sdio/mmcsd_core.c:527:13
	ldr	r0, [sp, #4]
	subs	r0, #1
	str	r0, [sp, #4]
	.loc	2 529 21                        @ rt-thread/components/drivers/sdio/mmcsd_core.c:529:21
	ldr	r1, [sp, #4]
	movs	r0, #3
	.loc	2 529 18 is_stmt 0              @ rt-thread/components/drivers/sdio/mmcsd_core.c:529:18
	lsl.w	r1, r0, r1
	.loc	2 529 13                        @ rt-thread/components/drivers/sdio/mmcsd_core.c:529:13
	ldr	r0, [sp, #8]
	ands	r0, r1
	str	r0, [sp, #8]
	.loc	2 531 28 is_stmt 1              @ rt-thread/components/drivers/sdio/mmcsd_core.c:531:28
	ldr	r0, [sp, #4]
	.loc	2 531 9 is_stmt 0               @ rt-thread/components/drivers/sdio/mmcsd_core.c:531:9
	ldr	r1, [sp, #12]
	.loc	2 531 26                        @ rt-thread/components/drivers/sdio/mmcsd_core.c:531:26
	strh	r0, [r1, #20]
	.loc	2 532 25 is_stmt 1              @ rt-thread/components/drivers/sdio/mmcsd_core.c:532:25
	ldr	r0, [sp, #12]
	.loc	2 532 9 is_stmt 0               @ rt-thread/components/drivers/sdio/mmcsd_core.c:532:9
	bl	mmcsd_set_iocfg
	.loc	2 533 5 is_stmt 1               @ rt-thread/components/drivers/sdio/mmcsd_core.c:533:5
	b	.LBB21_5
.Ltmp171:
.LBB21_2:
	.loc	2 536 9                         @ rt-thread/components/drivers/sdio/mmcsd_core.c:536:9
	b	.LBB21_3
.LBB21_3:
.Ltmp172:
	.loc	2 536 9 is_stmt 0               @ rt-thread/components/drivers/sdio/mmcsd_core.c:536:9
	movw	r0, :lower16:.L.str.3
	movt	r0, :upper16:.L.str.3
	bl	rt_kprintf
	movw	r0, :lower16:.L.str.5
	movt	r0, :upper16:.L.str.5
	bl	rt_kprintf
	movw	r0, :lower16:.L.str.2
	movt	r0, :upper16:.L.str.2
	bl	rt_kprintf
	b	.LBB21_4
.Ltmp173:
.LBB21_4:
	.loc	2 0 9                           @ rt-thread/components/drivers/sdio/mmcsd_core.c:0:9
	movs	r0, #0
	.loc	2 537 13 is_stmt 1              @ rt-thread/components/drivers/sdio/mmcsd_core.c:537:13
	str	r0, [sp, #8]
	b	.LBB21_5
.Ltmp174:
.LBB21_5:
	.loc	2 540 12                        @ rt-thread/components/drivers/sdio/mmcsd_core.c:540:12
	ldr	r0, [sp, #8]
	.loc	2 540 5 is_stmt 0               @ rt-thread/components/drivers/sdio/mmcsd_core.c:540:5
	add	sp, #16
	pop	{r7, pc}
.Ltmp175:
.Lfunc_end21:
	.size	mmcsd_select_voltage, .Lfunc_end21-mmcsd_select_voltage
	.cfi_endproc
	.cantunwind
	.fnend
                                        @ -- End function
	.section	.text.mmcsd_wait_cd_changed,"ax",%progbits
	.hidden	mmcsd_wait_cd_changed           @ -- Begin function mmcsd_wait_cd_changed
	.globl	mmcsd_wait_cd_changed
	.p2align	3
	.type	mmcsd_wait_cd_changed,%function
	.code	16                              @ @mmcsd_wait_cd_changed
	.thumb_func
mmcsd_wait_cd_changed:
.Lfunc_begin22:
	.loc	2 594 0 is_stmt 1               @ rt-thread/components/drivers/sdio/mmcsd_core.c:594:0
	.fnstart
	.cfi_startproc
@ %bb.0:
	.save	{r7, lr}
	push	{r7, lr}
	.cfi_def_cfa_offset 8
	.cfi_offset lr, -4
	.cfi_offset r7, -8
	.pad	#16
	sub	sp, #16
	.cfi_def_cfa_offset 24
	str	r0, [sp, #8]
.Ltmp176:
	.loc	2 596 61 prologue_end           @ rt-thread/components/drivers/sdio/mmcsd_core.c:596:61
	ldr	r2, [sp, #8]
	.loc	2 596 9 is_stmt 0               @ rt-thread/components/drivers/sdio/mmcsd_core.c:596:9
	movw	r0, :lower16:mmcsd_hotpluge_mb
	movt	r0, :upper16:mmcsd_hotpluge_mb
	add	r1, sp, #4
	bl	rt_mb_recv
.Ltmp177:
	.loc	2 596 9                         @ rt-thread/components/drivers/sdio/mmcsd_core.c:596:9
	cbnz	r0, .LBB22_4
	b	.LBB22_1
.LBB22_1:
.Ltmp178:
	.loc	2 598 12 is_stmt 1              @ rt-thread/components/drivers/sdio/mmcsd_core.c:598:12
	ldr	r0, [sp, #4]
	.loc	2 598 18 is_stmt 0              @ rt-thread/components/drivers/sdio/mmcsd_core.c:598:18
	ldr	r0, [r0]
.Ltmp179:
	.loc	2 598 12                        @ rt-thread/components/drivers/sdio/mmcsd_core.c:598:12
	cbnz	r0, .LBB22_3
	b	.LBB22_2
.LBB22_2:
	.loc	2 0 12                          @ rt-thread/components/drivers/sdio/mmcsd_core.c:0:12
	movs	r0, #1
.Ltmp180:
	.loc	2 600 13 is_stmt 1              @ rt-thread/components/drivers/sdio/mmcsd_core.c:600:13
	str	r0, [sp, #12]
	b	.LBB22_5
.Ltmp181:
.LBB22_3:
	.loc	2 0 13 is_stmt 0                @ rt-thread/components/drivers/sdio/mmcsd_core.c:0:13
	movs	r0, #0
.Ltmp182:
	.loc	2 604 13 is_stmt 1              @ rt-thread/components/drivers/sdio/mmcsd_core.c:604:13
	str	r0, [sp, #12]
	b	.LBB22_5
.Ltmp183:
.LBB22_4:
	.loc	2 0 13 is_stmt 0                @ rt-thread/components/drivers/sdio/mmcsd_core.c:0:13
	mvn	r0, #1
	.loc	2 607 5 is_stmt 1               @ rt-thread/components/drivers/sdio/mmcsd_core.c:607:5
	str	r0, [sp, #12]
	b	.LBB22_5
.LBB22_5:
	.loc	2 608 1                         @ rt-thread/components/drivers/sdio/mmcsd_core.c:608:1
	ldr	r0, [sp, #12]
	add	sp, #16
	pop	{r7, pc}
.Ltmp184:
.Lfunc_end22:
	.size	mmcsd_wait_cd_changed, .Lfunc_end22-mmcsd_wait_cd_changed
	.cfi_endproc
	.cantunwind
	.fnend
                                        @ -- End function
	.section	.text.mmcsd_change,"ax",%progbits
	.hidden	mmcsd_change                    @ -- Begin function mmcsd_change
	.globl	mmcsd_change
	.p2align	3
	.type	mmcsd_change,%function
	.code	16                              @ @mmcsd_change
	.thumb_func
mmcsd_change:
.Lfunc_begin23:
	.loc	2 612 0                         @ rt-thread/components/drivers/sdio/mmcsd_core.c:612:0
	.fnstart
	.cfi_startproc
@ %bb.0:
	.save	{r7, lr}
	push	{r7, lr}
	.cfi_def_cfa_offset 8
	.cfi_offset lr, -4
	.cfi_offset r7, -8
	.pad	#8
	sub	sp, #8
	.cfi_def_cfa_offset 16
	str	r0, [sp, #4]
.Ltmp185:
	.loc	2 613 46 prologue_end           @ rt-thread/components/drivers/sdio/mmcsd_core.c:613:46
	ldr	r1, [sp, #4]
	.loc	2 613 5 is_stmt 0               @ rt-thread/components/drivers/sdio/mmcsd_core.c:613:5
	movw	r0, :lower16:mmcsd_detect_mb
	movt	r0, :upper16:mmcsd_detect_mb
	bl	rt_mb_send
	.loc	2 614 1 is_stmt 1               @ rt-thread/components/drivers/sdio/mmcsd_core.c:614:1
	add	sp, #8
	pop	{r7, pc}
.Ltmp186:
.Lfunc_end23:
	.size	mmcsd_change, .Lfunc_end23-mmcsd_change
	.cfi_endproc
	.cantunwind
	.fnend
                                        @ -- End function
	.section	.text.mmcsd_detect,"ax",%progbits
	.hidden	mmcsd_detect                    @ -- Begin function mmcsd_detect
	.globl	mmcsd_detect
	.p2align	3
	.type	mmcsd_detect,%function
	.code	16                              @ @mmcsd_detect
	.thumb_func
mmcsd_detect:
.Lfunc_begin24:
	.loc	2 617 0                         @ rt-thread/components/drivers/sdio/mmcsd_core.c:617:0
	.fnstart
	.cfi_startproc
@ %bb.0:
	.save	{r7, lr}
	push	{r7, lr}
	.cfi_def_cfa_offset 8
	.cfi_offset lr, -4
	.cfi_offset r7, -8
	.pad	#16
	sub	sp, #16
	.cfi_def_cfa_offset 24
	str	r0, [sp, #12]
.Ltmp187:
	.loc	2 622 5 prologue_end            @ rt-thread/components/drivers/sdio/mmcsd_core.c:622:5
	b	.LBB24_1
.LBB24_1:                               @ =>This Inner Loop Header: Depth=1
.Ltmp188:
	.loc	2 624 13                        @ rt-thread/components/drivers/sdio/mmcsd_core.c:624:13
	movw	r0, :lower16:mmcsd_detect_mb
	movt	r0, :upper16:mmcsd_detect_mb
	add	r1, sp, #8
	mov.w	r2, #-1
	bl	rt_mb_recv
.Ltmp189:
	.loc	2 624 13 is_stmt 0              @ rt-thread/components/drivers/sdio/mmcsd_core.c:624:13
	cmp	r0, #0
	bne.w	.LBB24_23
	b	.LBB24_2
.LBB24_2:                               @   in Loop: Header=BB24_1 Depth=1
.Ltmp190:
	.loc	2 626 17 is_stmt 1              @ rt-thread/components/drivers/sdio/mmcsd_core.c:626:17
	ldr	r0, [sp, #8]
	.loc	2 626 23 is_stmt 0              @ rt-thread/components/drivers/sdio/mmcsd_core.c:626:23
	ldr	r0, [r0]
.Ltmp191:
	.loc	2 626 17                        @ rt-thread/components/drivers/sdio/mmcsd_core.c:626:17
	cmp	r0, #0
	bne	.LBB24_16
	b	.LBB24_3
.LBB24_3:                               @   in Loop: Header=BB24_1 Depth=1
.Ltmp192:
	.loc	2 628 33 is_stmt 1              @ rt-thread/components/drivers/sdio/mmcsd_core.c:628:33
	ldr	r0, [sp, #8]
	.loc	2 628 17 is_stmt 0              @ rt-thread/components/drivers/sdio/mmcsd_core.c:628:17
	bl	mmcsd_host_lock
	.loc	2 629 32 is_stmt 1              @ rt-thread/components/drivers/sdio/mmcsd_core.c:629:32
	ldr	r0, [sp, #8]
	.loc	2 629 17 is_stmt 0              @ rt-thread/components/drivers/sdio/mmcsd_core.c:629:17
	bl	mmcsd_power_up
	.loc	2 630 31 is_stmt 1              @ rt-thread/components/drivers/sdio/mmcsd_core.c:630:31
	ldr	r0, [sp, #8]
	.loc	2 630 17 is_stmt 0              @ rt-thread/components/drivers/sdio/mmcsd_core.c:630:17
	bl	mmcsd_go_idle
	.loc	2 632 36 is_stmt 1              @ rt-thread/components/drivers/sdio/mmcsd_core.c:632:36
	ldr	r0, [sp, #8]
	.loc	2 632 48 is_stmt 0              @ rt-thread/components/drivers/sdio/mmcsd_core.c:632:48
	ldr	r1, [r0, #28]
	.loc	2 632 17                        @ rt-thread/components/drivers/sdio/mmcsd_core.c:632:17
	bl	mmcsd_send_if_cond
	.loc	2 634 44 is_stmt 1              @ rt-thread/components/drivers/sdio/mmcsd_core.c:634:44
	ldr	r0, [sp, #8]
	movs	r1, #0
	add	r2, sp, #4
	.loc	2 634 23 is_stmt 0              @ rt-thread/components/drivers/sdio/mmcsd_core.c:634:23
	bl	sdio_io_send_op_cond
	.loc	2 634 21                        @ rt-thread/components/drivers/sdio/mmcsd_core.c:634:21
	str	r0, [sp]
.Ltmp193:
	.loc	2 635 22 is_stmt 1              @ rt-thread/components/drivers/sdio/mmcsd_core.c:635:22
	ldr	r0, [sp]
.Ltmp194:
	.loc	2 635 21 is_stmt 0              @ rt-thread/components/drivers/sdio/mmcsd_core.c:635:21
	cbnz	r0, .LBB24_7
	b	.LBB24_4
.LBB24_4:                               @   in Loop: Header=BB24_1 Depth=1
.Ltmp195:
	.loc	2 637 35 is_stmt 1              @ rt-thread/components/drivers/sdio/mmcsd_core.c:637:35
	ldr	r0, [sp, #8]
	.loc	2 637 41 is_stmt 0              @ rt-thread/components/drivers/sdio/mmcsd_core.c:637:41
	ldr	r1, [sp, #4]
	.loc	2 637 25                        @ rt-thread/components/drivers/sdio/mmcsd_core.c:637:25
	bl	init_sdio
.Ltmp196:
	.loc	2 637 25                        @ rt-thread/components/drivers/sdio/mmcsd_core.c:637:25
	cbz	r0, .LBB24_6
	b	.LBB24_5
.LBB24_5:                               @   in Loop: Header=BB24_1 Depth=1
.Ltmp197:
	.loc	2 638 41 is_stmt 1              @ rt-thread/components/drivers/sdio/mmcsd_core.c:638:41
	ldr	r0, [sp, #8]
	.loc	2 638 25 is_stmt 0              @ rt-thread/components/drivers/sdio/mmcsd_core.c:638:25
	bl	mmcsd_power_off
	b	.LBB24_6
.Ltmp198:
.LBB24_6:                               @   in Loop: Header=BB24_1 Depth=1
	.loc	2 639 39 is_stmt 1              @ rt-thread/components/drivers/sdio/mmcsd_core.c:639:39
	ldr	r0, [sp, #8]
	.loc	2 639 21 is_stmt 0              @ rt-thread/components/drivers/sdio/mmcsd_core.c:639:21
	bl	mmcsd_host_unlock
	.loc	2 640 21 is_stmt 1              @ rt-thread/components/drivers/sdio/mmcsd_core.c:640:21
	b	.LBB24_1
.Ltmp199:
.LBB24_7:                               @   in Loop: Header=BB24_1 Depth=1
	.loc	2 646 46                        @ rt-thread/components/drivers/sdio/mmcsd_core.c:646:46
	ldr	r0, [sp, #8]
	movs	r1, #0
	add	r2, sp, #4
	.loc	2 646 23 is_stmt 0              @ rt-thread/components/drivers/sdio/mmcsd_core.c:646:23
	bl	mmcsd_send_app_op_cond
	.loc	2 646 21                        @ rt-thread/components/drivers/sdio/mmcsd_core.c:646:21
	str	r0, [sp]
.Ltmp200:
	.loc	2 647 22 is_stmt 1              @ rt-thread/components/drivers/sdio/mmcsd_core.c:647:22
	ldr	r0, [sp]
.Ltmp201:
	.loc	2 647 21 is_stmt 0              @ rt-thread/components/drivers/sdio/mmcsd_core.c:647:21
	cbnz	r0, .LBB24_11
	b	.LBB24_8
.LBB24_8:                               @   in Loop: Header=BB24_1 Depth=1
.Ltmp202:
	.loc	2 649 33 is_stmt 1              @ rt-thread/components/drivers/sdio/mmcsd_core.c:649:33
	ldr	r0, [sp, #8]
	.loc	2 649 39 is_stmt 0              @ rt-thread/components/drivers/sdio/mmcsd_core.c:649:39
	ldr	r1, [sp, #4]
	.loc	2 649 25                        @ rt-thread/components/drivers/sdio/mmcsd_core.c:649:25
	bl	init_sd
.Ltmp203:
	.loc	2 649 25                        @ rt-thread/components/drivers/sdio/mmcsd_core.c:649:25
	cbz	r0, .LBB24_10
	b	.LBB24_9
.LBB24_9:                               @   in Loop: Header=BB24_1 Depth=1
.Ltmp204:
	.loc	2 650 41 is_stmt 1              @ rt-thread/components/drivers/sdio/mmcsd_core.c:650:41
	ldr	r0, [sp, #8]
	.loc	2 650 25 is_stmt 0              @ rt-thread/components/drivers/sdio/mmcsd_core.c:650:25
	bl	mmcsd_power_off
	b	.LBB24_10
.Ltmp205:
.LBB24_10:                              @   in Loop: Header=BB24_1 Depth=1
	.loc	2 651 39 is_stmt 1              @ rt-thread/components/drivers/sdio/mmcsd_core.c:651:39
	ldr	r0, [sp, #8]
	.loc	2 651 21 is_stmt 0              @ rt-thread/components/drivers/sdio/mmcsd_core.c:651:21
	bl	mmcsd_host_unlock
	.loc	2 652 64 is_stmt 1              @ rt-thread/components/drivers/sdio/mmcsd_core.c:652:64
	ldr	r1, [sp, #8]
	.loc	2 652 21 is_stmt 0              @ rt-thread/components/drivers/sdio/mmcsd_core.c:652:21
	movw	r0, :lower16:mmcsd_hotpluge_mb
	movt	r0, :upper16:mmcsd_hotpluge_mb
	bl	rt_mb_send
	.loc	2 653 21 is_stmt 1              @ rt-thread/components/drivers/sdio/mmcsd_core.c:653:21
	b	.LBB24_1
.Ltmp206:
.LBB24_11:                              @   in Loop: Header=BB24_1 Depth=1
	.loc	2 659 40                        @ rt-thread/components/drivers/sdio/mmcsd_core.c:659:40
	ldr	r0, [sp, #8]
	movs	r1, #0
	add	r2, sp, #4
	.loc	2 659 23 is_stmt 0              @ rt-thread/components/drivers/sdio/mmcsd_core.c:659:23
	bl	mmc_send_op_cond
	.loc	2 659 21                        @ rt-thread/components/drivers/sdio/mmcsd_core.c:659:21
	str	r0, [sp]
.Ltmp207:
	.loc	2 660 22 is_stmt 1              @ rt-thread/components/drivers/sdio/mmcsd_core.c:660:22
	ldr	r0, [sp]
.Ltmp208:
	.loc	2 660 21 is_stmt 0              @ rt-thread/components/drivers/sdio/mmcsd_core.c:660:21
	cbnz	r0, .LBB24_15
	b	.LBB24_12
.LBB24_12:                              @   in Loop: Header=BB24_1 Depth=1
.Ltmp209:
	.loc	2 662 34 is_stmt 1              @ rt-thread/components/drivers/sdio/mmcsd_core.c:662:34
	ldr	r0, [sp, #8]
	.loc	2 662 40 is_stmt 0              @ rt-thread/components/drivers/sdio/mmcsd_core.c:662:40
	ldr	r1, [sp, #4]
	.loc	2 662 25                        @ rt-thread/components/drivers/sdio/mmcsd_core.c:662:25
	bl	init_mmc
.Ltmp210:
	.loc	2 662 25                        @ rt-thread/components/drivers/sdio/mmcsd_core.c:662:25
	cbz	r0, .LBB24_14
	b	.LBB24_13
.LBB24_13:                              @   in Loop: Header=BB24_1 Depth=1
.Ltmp211:
	.loc	2 663 41 is_stmt 1              @ rt-thread/components/drivers/sdio/mmcsd_core.c:663:41
	ldr	r0, [sp, #8]
	.loc	2 663 25 is_stmt 0              @ rt-thread/components/drivers/sdio/mmcsd_core.c:663:25
	bl	mmcsd_power_off
	b	.LBB24_14
.Ltmp212:
.LBB24_14:                              @   in Loop: Header=BB24_1 Depth=1
	.loc	2 664 39 is_stmt 1              @ rt-thread/components/drivers/sdio/mmcsd_core.c:664:39
	ldr	r0, [sp, #8]
	.loc	2 664 21 is_stmt 0              @ rt-thread/components/drivers/sdio/mmcsd_core.c:664:21
	bl	mmcsd_host_unlock
	.loc	2 665 64 is_stmt 1              @ rt-thread/components/drivers/sdio/mmcsd_core.c:665:64
	ldr	r1, [sp, #8]
	.loc	2 665 21 is_stmt 0              @ rt-thread/components/drivers/sdio/mmcsd_core.c:665:21
	movw	r0, :lower16:mmcsd_hotpluge_mb
	movt	r0, :upper16:mmcsd_hotpluge_mb
	bl	rt_mb_send
	.loc	2 666 21 is_stmt 1              @ rt-thread/components/drivers/sdio/mmcsd_core.c:666:21
	b	.LBB24_1
.Ltmp213:
.LBB24_15:                              @   in Loop: Header=BB24_1 Depth=1
	.loc	2 668 35                        @ rt-thread/components/drivers/sdio/mmcsd_core.c:668:35
	ldr	r0, [sp, #8]
	.loc	2 668 17 is_stmt 0              @ rt-thread/components/drivers/sdio/mmcsd_core.c:668:17
	bl	mmcsd_host_unlock
	.loc	2 669 13 is_stmt 1              @ rt-thread/components/drivers/sdio/mmcsd_core.c:669:13
	b	.LBB24_22
.Ltmp214:
.LBB24_16:                              @   in Loop: Header=BB24_1 Depth=1
	.loc	2 673 30                        @ rt-thread/components/drivers/sdio/mmcsd_core.c:673:30
	ldr	r0, [sp, #8]
	.loc	2 673 14 is_stmt 0              @ rt-thread/components/drivers/sdio/mmcsd_core.c:673:14
	bl	mmcsd_host_lock
.Ltmp215:
	.loc	2 674 18 is_stmt 1              @ rt-thread/components/drivers/sdio/mmcsd_core.c:674:18
	ldr	r0, [sp, #8]
	.loc	2 674 24 is_stmt 0              @ rt-thread/components/drivers/sdio/mmcsd_core.c:674:24
	ldr	r0, [r0]
	.loc	2 674 30                        @ rt-thread/components/drivers/sdio/mmcsd_core.c:674:30
	ldrb.w	r0, [r0, #104]
.Ltmp216:
	.loc	2 674 18                        @ rt-thread/components/drivers/sdio/mmcsd_core.c:674:18
	cbz	r0, .LBB24_20
	b	.LBB24_17
.LBB24_17:                              @   in Loop: Header=BB24_1 Depth=1
.Ltmp217:
	.loc	2 676 15 is_stmt 1              @ rt-thread/components/drivers/sdio/mmcsd_core.c:676:15
	b	.LBB24_18
.LBB24_18:                              @   in Loop: Header=BB24_1 Depth=1
.Ltmp218:
	.loc	2 676 15 is_stmt 0              @ rt-thread/components/drivers/sdio/mmcsd_core.c:676:15
	movw	r0, :lower16:.L.str.3
	movt	r0, :upper16:.L.str.3
	bl	rt_kprintf
	movw	r0, :lower16:.L.str.6
	movt	r0, :upper16:.L.str.6
	bl	rt_kprintf
	movw	r0, :lower16:.L.str.2
	movt	r0, :upper16:.L.str.2
	bl	rt_kprintf
	b	.LBB24_19
.Ltmp219:
.LBB24_19:                              @   in Loop: Header=BB24_1 Depth=1
	.loc	2 677 14 is_stmt 1              @ rt-thread/components/drivers/sdio/mmcsd_core.c:677:14
	b	.LBB24_21
.Ltmp220:
.LBB24_20:                              @   in Loop: Header=BB24_1 Depth=1
	.loc	2 680 35                        @ rt-thread/components/drivers/sdio/mmcsd_core.c:680:35
	ldr	r0, [sp, #8]
	.loc	2 680 41 is_stmt 0              @ rt-thread/components/drivers/sdio/mmcsd_core.c:680:41
	ldr	r0, [r0]
	.loc	2 680 15                        @ rt-thread/components/drivers/sdio/mmcsd_core.c:680:15
	bl	rt_mmcsd_blk_remove
	.loc	2 681 23 is_stmt 1              @ rt-thread/components/drivers/sdio/mmcsd_core.c:681:23
	ldr	r0, [sp, #8]
	.loc	2 681 29 is_stmt 0              @ rt-thread/components/drivers/sdio/mmcsd_core.c:681:29
	ldr	r0, [r0]
	.loc	2 681 15                        @ rt-thread/components/drivers/sdio/mmcsd_core.c:681:15
	bl	rt_free
	.loc	2 683 15 is_stmt 1              @ rt-thread/components/drivers/sdio/mmcsd_core.c:683:15
	ldr	r1, [sp, #8]
	movs	r0, #0
	.loc	2 683 26 is_stmt 0              @ rt-thread/components/drivers/sdio/mmcsd_core.c:683:26
	str	r0, [r1]
	b	.LBB24_21
.Ltmp221:
.LBB24_21:                              @   in Loop: Header=BB24_1 Depth=1
	.loc	2 685 32 is_stmt 1              @ rt-thread/components/drivers/sdio/mmcsd_core.c:685:32
	ldr	r0, [sp, #8]
	.loc	2 685 14 is_stmt 0              @ rt-thread/components/drivers/sdio/mmcsd_core.c:685:14
	bl	mmcsd_host_unlock
	.loc	2 686 57 is_stmt 1              @ rt-thread/components/drivers/sdio/mmcsd_core.c:686:57
	ldr	r1, [sp, #8]
	.loc	2 686 14 is_stmt 0              @ rt-thread/components/drivers/sdio/mmcsd_core.c:686:14
	movw	r0, :lower16:mmcsd_hotpluge_mb
	movt	r0, :upper16:mmcsd_hotpluge_mb
	bl	rt_mb_send
	b	.LBB24_22
.Ltmp222:
.LBB24_22:                              @   in Loop: Header=BB24_1 Depth=1
	.loc	2 688 9 is_stmt 1               @ rt-thread/components/drivers/sdio/mmcsd_core.c:688:9
	b	.LBB24_23
.Ltmp223:
.LBB24_23:                              @   in Loop: Header=BB24_1 Depth=1
	.loc	2 622 5                         @ rt-thread/components/drivers/sdio/mmcsd_core.c:622:5
	b	.LBB24_1
.Ltmp224:
.Lfunc_end24:
	.size	mmcsd_detect, .Lfunc_end24-mmcsd_detect
	.cfi_endproc
	.cantunwind
	.fnend
                                        @ -- End function
	.section	.text.mmcsd_power_up,"ax",%progbits
	.p2align	3                               @ -- Begin function mmcsd_power_up
	.type	mmcsd_power_up,%function
	.code	16                              @ @mmcsd_power_up
	.thumb_func
mmcsd_power_up:
.Lfunc_begin25:
	.loc	2 544 0                         @ rt-thread/components/drivers/sdio/mmcsd_core.c:544:0
	.fnstart
	.cfi_startproc
@ %bb.0:
	.save	{r7, lr}
	push	{r7, lr}
	.cfi_def_cfa_offset 8
	.cfi_offset lr, -4
	.cfi_offset r7, -8
	.pad	#16
	sub	sp, #16
	.cfi_def_cfa_offset 24
	str	r0, [sp, #12]
.Ltmp225:
	.loc	2 545 24 prologue_end           @ rt-thread/components/drivers/sdio/mmcsd_core.c:545:24
	ldr	r0, [sp, #12]
	.loc	2 545 30 is_stmt 0              @ rt-thread/components/drivers/sdio/mmcsd_core.c:545:30
	ldr	r0, [r0, #28]
	.loc	2 545 15                        @ rt-thread/components/drivers/sdio/mmcsd_core.c:545:15
	bl	__rt_fls
	.loc	2 545 41                        @ rt-thread/components/drivers/sdio/mmcsd_core.c:545:41
	subs	r0, #1
	.loc	2 545 9                         @ rt-thread/components/drivers/sdio/mmcsd_core.c:545:9
	str	r0, [sp, #8]
	.loc	2 547 24 is_stmt 1              @ rt-thread/components/drivers/sdio/mmcsd_core.c:547:24
	ldr	r0, [sp, #8]
	.loc	2 547 5 is_stmt 0               @ rt-thread/components/drivers/sdio/mmcsd_core.c:547:5
	ldr	r1, [sp, #12]
	.loc	2 547 22                        @ rt-thread/components/drivers/sdio/mmcsd_core.c:547:22
	strh	r0, [r1, #20]
.Ltmp226:
	.loc	2 548 9 is_stmt 1               @ rt-thread/components/drivers/sdio/mmcsd_core.c:548:9
	ldr	r0, [sp, #12]
.Ltmp227:
	.loc	2 548 9 is_stmt 0               @ rt-thread/components/drivers/sdio/mmcsd_core.c:548:9
	ldrb.w	r0, [r0, #32]
	lsls	r0, r0, #28
	cmp	r0, #0
	bpl	.LBB25_2
	b	.LBB25_1
.LBB25_1:
.Ltmp228:
	.loc	2 550 9 is_stmt 1               @ rt-thread/components/drivers/sdio/mmcsd_core.c:550:9
	ldr	r1, [sp, #12]
	movs	r0, #1
	.loc	2 550 34 is_stmt 0              @ rt-thread/components/drivers/sdio/mmcsd_core.c:550:34
	strb	r0, [r1, #23]
	.loc	2 551 9 is_stmt 1               @ rt-thread/components/drivers/sdio/mmcsd_core.c:551:9
	ldr	r1, [sp, #12]
	movs	r0, #2
	.loc	2 551 31 is_stmt 0              @ rt-thread/components/drivers/sdio/mmcsd_core.c:551:31
	strb	r0, [r1, #22]
	.loc	2 552 5 is_stmt 1               @ rt-thread/components/drivers/sdio/mmcsd_core.c:552:5
	b	.LBB25_3
.Ltmp229:
.LBB25_2:
	.loc	2 555 9                         @ rt-thread/components/drivers/sdio/mmcsd_core.c:555:9
	ldr	r1, [sp, #12]
	movs	r0, #0
	.loc	2 555 34 is_stmt 0              @ rt-thread/components/drivers/sdio/mmcsd_core.c:555:34
	strb	r0, [r1, #23]
	.loc	2 556 9 is_stmt 1               @ rt-thread/components/drivers/sdio/mmcsd_core.c:556:9
	ldr	r1, [sp, #12]
	movs	r0, #1
	.loc	2 556 31 is_stmt 0              @ rt-thread/components/drivers/sdio/mmcsd_core.c:556:31
	strb	r0, [r1, #22]
	b	.LBB25_3
.Ltmp230:
.LBB25_3:
	.loc	2 558 5 is_stmt 1               @ rt-thread/components/drivers/sdio/mmcsd_core.c:558:5
	ldr	r1, [sp, #12]
	movs	r0, #1
	.loc	2 558 29 is_stmt 0              @ rt-thread/components/drivers/sdio/mmcsd_core.c:558:29
	strb	r0, [r1, #24]
	.loc	2 559 5 is_stmt 1               @ rt-thread/components/drivers/sdio/mmcsd_core.c:559:5
	ldr	r1, [sp, #12]
	movs	r0, #0
	.loc	2 559 28 is_stmt 0              @ rt-thread/components/drivers/sdio/mmcsd_core.c:559:28
	strb	r0, [r1, #25]
	.loc	2 560 21 is_stmt 1              @ rt-thread/components/drivers/sdio/mmcsd_core.c:560:21
	ldr	r0, [sp, #12]
	.loc	2 560 5 is_stmt 0               @ rt-thread/components/drivers/sdio/mmcsd_core.c:560:5
	bl	mmcsd_set_iocfg
	movs	r0, #10
	.loc	2 566 5 is_stmt 1               @ rt-thread/components/drivers/sdio/mmcsd_core.c:566:5
	str	r0, [sp, #4]                    @ 4-byte Spill
	bl	mmcsd_delay_ms
	.loc	2 568 26                        @ rt-thread/components/drivers/sdio/mmcsd_core.c:568:26
	ldr	r1, [sp, #12]
	.loc	2 568 32 is_stmt 0              @ rt-thread/components/drivers/sdio/mmcsd_core.c:568:32
	ldr	r0, [r1, #8]
	.loc	2 568 24                        @ rt-thread/components/drivers/sdio/mmcsd_core.c:568:24
	str	r0, [r1, #16]
	.loc	2 569 5 is_stmt 1               @ rt-thread/components/drivers/sdio/mmcsd_core.c:569:5
	ldr	r1, [sp, #12]
	movs	r0, #2
	.loc	2 569 29 is_stmt 0              @ rt-thread/components/drivers/sdio/mmcsd_core.c:569:29
	strb	r0, [r1, #24]
	.loc	2 570 21 is_stmt 1              @ rt-thread/components/drivers/sdio/mmcsd_core.c:570:21
	ldr	r0, [sp, #12]
	.loc	2 570 5 is_stmt 0               @ rt-thread/components/drivers/sdio/mmcsd_core.c:570:5
	bl	mmcsd_set_iocfg
	ldr	r0, [sp, #4]                    @ 4-byte Reload
	.loc	2 576 5 is_stmt 1               @ rt-thread/components/drivers/sdio/mmcsd_core.c:576:5
	bl	mmcsd_delay_ms
	.loc	2 577 1                         @ rt-thread/components/drivers/sdio/mmcsd_core.c:577:1
	add	sp, #16
	pop	{r7, pc}
.Ltmp231:
.Lfunc_end25:
	.size	mmcsd_power_up, .Lfunc_end25-mmcsd_power_up
	.cfi_endproc
	.cantunwind
	.fnend
                                        @ -- End function
	.section	.text.mmcsd_power_off,"ax",%progbits
	.p2align	3                               @ -- Begin function mmcsd_power_off
	.type	mmcsd_power_off,%function
	.code	16                              @ @mmcsd_power_off
	.thumb_func
mmcsd_power_off:
.Lfunc_begin26:
	.loc	2 580 0                         @ rt-thread/components/drivers/sdio/mmcsd_core.c:580:0
	.fnstart
	.cfi_startproc
@ %bb.0:
	.save	{r7, lr}
	push	{r7, lr}
	.cfi_def_cfa_offset 8
	.cfi_offset lr, -4
	.cfi_offset r7, -8
	.pad	#8
	sub	sp, #8
	.cfi_def_cfa_offset 16
	str	r0, [sp, #4]
.Ltmp232:
	.loc	2 581 5 prologue_end            @ rt-thread/components/drivers/sdio/mmcsd_core.c:581:5
	ldr	r1, [sp, #4]
	movs	r0, #0
	.loc	2 581 24 is_stmt 0              @ rt-thread/components/drivers/sdio/mmcsd_core.c:581:24
	str	r0, [r1, #16]
	.loc	2 582 5 is_stmt 1               @ rt-thread/components/drivers/sdio/mmcsd_core.c:582:5
	ldr	r1, [sp, #4]
	.loc	2 582 22 is_stmt 0              @ rt-thread/components/drivers/sdio/mmcsd_core.c:582:22
	strh	r0, [r1, #20]
.Ltmp233:
	.loc	2 583 10 is_stmt 1              @ rt-thread/components/drivers/sdio/mmcsd_core.c:583:10
	ldr	r0, [sp, #4]
.Ltmp234:
	.loc	2 583 9 is_stmt 0               @ rt-thread/components/drivers/sdio/mmcsd_core.c:583:9
	ldrb.w	r0, [r0, #32]
	lsls	r0, r0, #28
	cmp	r0, #0
	bmi	.LBB26_2
	b	.LBB26_1
.LBB26_1:
.Ltmp235:
	.loc	2 585 9 is_stmt 1               @ rt-thread/components/drivers/sdio/mmcsd_core.c:585:9
	ldr	r1, [sp, #4]
	movs	r0, #1
	.loc	2 585 31 is_stmt 0              @ rt-thread/components/drivers/sdio/mmcsd_core.c:585:31
	strb	r0, [r1, #22]
	.loc	2 586 9 is_stmt 1               @ rt-thread/components/drivers/sdio/mmcsd_core.c:586:9
	ldr	r1, [sp, #4]
	movs	r0, #0
	.loc	2 586 34 is_stmt 0              @ rt-thread/components/drivers/sdio/mmcsd_core.c:586:34
	strb	r0, [r1, #23]
	.loc	2 587 5 is_stmt 1               @ rt-thread/components/drivers/sdio/mmcsd_core.c:587:5
	b	.LBB26_2
.Ltmp236:
.LBB26_2:
	.loc	2 588 5                         @ rt-thread/components/drivers/sdio/mmcsd_core.c:588:5
	ldr	r1, [sp, #4]
	movs	r0, #0
	.loc	2 588 29 is_stmt 0              @ rt-thread/components/drivers/sdio/mmcsd_core.c:588:29
	strb	r0, [r1, #24]
	.loc	2 589 5 is_stmt 1               @ rt-thread/components/drivers/sdio/mmcsd_core.c:589:5
	ldr	r1, [sp, #4]
	.loc	2 589 28 is_stmt 0              @ rt-thread/components/drivers/sdio/mmcsd_core.c:589:28
	strb	r0, [r1, #25]
	.loc	2 590 21 is_stmt 1              @ rt-thread/components/drivers/sdio/mmcsd_core.c:590:21
	ldr	r0, [sp, #4]
	.loc	2 590 5 is_stmt 0               @ rt-thread/components/drivers/sdio/mmcsd_core.c:590:5
	bl	mmcsd_set_iocfg
	.loc	2 591 1 is_stmt 1               @ rt-thread/components/drivers/sdio/mmcsd_core.c:591:1
	add	sp, #8
	pop	{r7, pc}
.Ltmp237:
.Lfunc_end26:
	.size	mmcsd_power_off, .Lfunc_end26-mmcsd_power_off
	.cfi_endproc
	.cantunwind
	.fnend
                                        @ -- End function
	.section	.text.mmcsd_alloc_host,"ax",%progbits
	.hidden	mmcsd_alloc_host                @ -- Begin function mmcsd_alloc_host
	.globl	mmcsd_alloc_host
	.p2align	3
	.type	mmcsd_alloc_host,%function
	.code	16                              @ @mmcsd_alloc_host
	.thumb_func
mmcsd_alloc_host:
.Lfunc_begin27:
	.loc	2 693 0                         @ rt-thread/components/drivers/sdio/mmcsd_core.c:693:0
	.fnstart
	.cfi_startproc
@ %bb.0:
	.save	{r7, lr}
	push	{r7, lr}
	.cfi_def_cfa_offset 8
	.cfi_offset lr, -4
	.cfi_offset r7, -8
	.pad	#16
	sub	sp, #16
	.cfi_def_cfa_offset 24
	movs	r0, #140
.Ltmp238:
	.loc	2 696 12 prologue_end           @ rt-thread/components/drivers/sdio/mmcsd_core.c:696:12
	bl	rt_malloc
	.loc	2 696 10 is_stmt 0              @ rt-thread/components/drivers/sdio/mmcsd_core.c:696:10
	str	r0, [sp, #8]
.Ltmp239:
	.loc	2 697 10 is_stmt 1              @ rt-thread/components/drivers/sdio/mmcsd_core.c:697:10
	ldr	r0, [sp, #8]
.Ltmp240:
	.loc	2 697 9 is_stmt 0               @ rt-thread/components/drivers/sdio/mmcsd_core.c:697:9
	cbnz	r0, .LBB27_4
	b	.LBB27_1
.LBB27_1:
.Ltmp241:
	.loc	2 699 9 is_stmt 1               @ rt-thread/components/drivers/sdio/mmcsd_core.c:699:9
	b	.LBB27_2
.LBB27_2:
.Ltmp242:
	.loc	2 699 9 is_stmt 0               @ rt-thread/components/drivers/sdio/mmcsd_core.c:699:9
	movw	r0, :lower16:.L.str
	movt	r0, :upper16:.L.str
	bl	rt_kprintf
	movw	r0, :lower16:.L.str.7
	movt	r0, :upper16:.L.str.7
	bl	rt_kprintf
	movw	r0, :lower16:.L.str.2
	movt	r0, :upper16:.L.str.2
	bl	rt_kprintf
	b	.LBB27_3
.Ltmp243:
.LBB27_3:
	.loc	2 0 9                           @ rt-thread/components/drivers/sdio/mmcsd_core.c:0:9
	movs	r0, #0
	.loc	2 701 9 is_stmt 1               @ rt-thread/components/drivers/sdio/mmcsd_core.c:701:9
	str	r0, [sp, #12]
	b	.LBB27_5
.Ltmp244:
.LBB27_4:
	.loc	2 704 15                        @ rt-thread/components/drivers/sdio/mmcsd_core.c:704:15
	ldr	r0, [sp, #8]
	movs	r1, #0
	str	r1, [sp, #4]                    @ 4-byte Spill
	movs	r2, #140
	.loc	2 704 5 is_stmt 0               @ rt-thread/components/drivers/sdio/mmcsd_core.c:704:5
	bl	rt_memset
	ldr	r2, [sp, #4]                    @ 4-byte Reload
	.loc	2 706 5 is_stmt 1               @ rt-thread/components/drivers/sdio/mmcsd_core.c:706:5
	ldr	r1, [sp, #8]
	movw	r0, #65535
	.loc	2 706 24 is_stmt 0              @ rt-thread/components/drivers/sdio/mmcsd_core.c:706:24
	str	r0, [r1, #36]
	.loc	2 707 5 is_stmt 1               @ rt-thread/components/drivers/sdio/mmcsd_core.c:707:5
	ldr	r1, [sp, #8]
	movs	r0, #1
	.loc	2 707 24 is_stmt 0              @ rt-thread/components/drivers/sdio/mmcsd_core.c:707:24
	str	r0, [r1, #40]
	.loc	2 708 5 is_stmt 1               @ rt-thread/components/drivers/sdio/mmcsd_core.c:708:5
	ldr	r1, [sp, #8]
	mov.w	r0, #512
	.loc	2 708 24 is_stmt 0              @ rt-thread/components/drivers/sdio/mmcsd_core.c:708:24
	str	r0, [r1, #44]
	.loc	2 709 5 is_stmt 1               @ rt-thread/components/drivers/sdio/mmcsd_core.c:709:5
	ldr	r1, [sp, #8]
	mov.w	r0, #4096
	.loc	2 709 25 is_stmt 0              @ rt-thread/components/drivers/sdio/mmcsd_core.c:709:25
	str	r0, [r1, #48]
	.loc	2 711 20 is_stmt 1              @ rt-thread/components/drivers/sdio/mmcsd_core.c:711:20
	ldr	r0, [sp, #8]
	.loc	2 711 26 is_stmt 0              @ rt-thread/components/drivers/sdio/mmcsd_core.c:711:26
	adds	r0, #56
	.loc	2 711 5                         @ rt-thread/components/drivers/sdio/mmcsd_core.c:711:5
	movw	r1, :lower16:.L.str.8
	movt	r1, :upper16:.L.str.8
	bl	rt_mutex_init
	ldr	r3, [sp, #4]                    @ 4-byte Reload
	.loc	2 712 18 is_stmt 1              @ rt-thread/components/drivers/sdio/mmcsd_core.c:712:18
	ldr	r0, [sp, #8]
	.loc	2 712 24 is_stmt 0              @ rt-thread/components/drivers/sdio/mmcsd_core.c:712:24
	adds	r0, #92
	.loc	2 712 5                         @ rt-thread/components/drivers/sdio/mmcsd_core.c:712:5
	movw	r1, :lower16:.L.str.9
	movt	r1, :upper16:.L.str.9
	mov	r2, r3
	bl	rt_sem_init
	.loc	2 714 12 is_stmt 1              @ rt-thread/components/drivers/sdio/mmcsd_core.c:714:12
	ldr	r0, [sp, #8]
	.loc	2 714 5 is_stmt 0               @ rt-thread/components/drivers/sdio/mmcsd_core.c:714:5
	str	r0, [sp, #12]
	b	.LBB27_5
.LBB27_5:
	.loc	2 715 1 is_stmt 1               @ rt-thread/components/drivers/sdio/mmcsd_core.c:715:1
	ldr	r0, [sp, #12]
	add	sp, #16
	pop	{r7, pc}
.Ltmp245:
.Lfunc_end27:
	.size	mmcsd_alloc_host, .Lfunc_end27-mmcsd_alloc_host
	.cfi_endproc
	.cantunwind
	.fnend
                                        @ -- End function
	.section	.text.mmcsd_free_host,"ax",%progbits
	.hidden	mmcsd_free_host                 @ -- Begin function mmcsd_free_host
	.globl	mmcsd_free_host
	.p2align	3
	.type	mmcsd_free_host,%function
	.code	16                              @ @mmcsd_free_host
	.thumb_func
mmcsd_free_host:
.Lfunc_begin28:
	.loc	2 718 0                         @ rt-thread/components/drivers/sdio/mmcsd_core.c:718:0
	.fnstart
	.cfi_startproc
@ %bb.0:
	.save	{r7, lr}
	push	{r7, lr}
	.cfi_def_cfa_offset 8
	.cfi_offset lr, -4
	.cfi_offset r7, -8
	.pad	#8
	sub	sp, #8
	.cfi_def_cfa_offset 16
	str	r0, [sp, #4]
.Ltmp246:
	.loc	2 719 22 prologue_end           @ rt-thread/components/drivers/sdio/mmcsd_core.c:719:22
	ldr	r0, [sp, #4]
	.loc	2 719 28 is_stmt 0              @ rt-thread/components/drivers/sdio/mmcsd_core.c:719:28
	adds	r0, #56
	.loc	2 719 5                         @ rt-thread/components/drivers/sdio/mmcsd_core.c:719:5
	bl	rt_mutex_detach
	.loc	2 720 20 is_stmt 1              @ rt-thread/components/drivers/sdio/mmcsd_core.c:720:20
	ldr	r0, [sp, #4]
	.loc	2 720 26 is_stmt 0              @ rt-thread/components/drivers/sdio/mmcsd_core.c:720:26
	adds	r0, #92
	.loc	2 720 5                         @ rt-thread/components/drivers/sdio/mmcsd_core.c:720:5
	bl	rt_sem_detach
	.loc	2 721 13 is_stmt 1              @ rt-thread/components/drivers/sdio/mmcsd_core.c:721:13
	ldr	r0, [sp, #4]
	.loc	2 721 5 is_stmt 0               @ rt-thread/components/drivers/sdio/mmcsd_core.c:721:5
	bl	rt_free
	.loc	2 722 1 is_stmt 1               @ rt-thread/components/drivers/sdio/mmcsd_core.c:722:1
	add	sp, #8
	pop	{r7, pc}
.Ltmp247:
.Lfunc_end28:
	.size	mmcsd_free_host, .Lfunc_end28-mmcsd_free_host
	.cfi_endproc
	.cantunwind
	.fnend
                                        @ -- End function
	.section	.text.rt_mmcsd_core_init,"ax",%progbits
	.hidden	rt_mmcsd_core_init              @ -- Begin function rt_mmcsd_core_init
	.globl	rt_mmcsd_core_init
	.p2align	3
	.type	rt_mmcsd_core_init,%function
	.code	16                              @ @rt_mmcsd_core_init
	.thumb_func
rt_mmcsd_core_init:
.Lfunc_begin29:
	.loc	2 725 0                         @ rt-thread/components/drivers/sdio/mmcsd_core.c:725:0
	.fnstart
	.cfi_startproc
@ %bb.0:
	.save	{r7, lr}
	push	{r7, lr}
	.cfi_def_cfa_offset 8
	.cfi_offset lr, -4
	.cfi_offset r7, -8
	.pad	#24
	sub	sp, #24
	.cfi_def_cfa_offset 32
.Ltmp248:
	.loc	2 730 11 prologue_end           @ rt-thread/components/drivers/sdio/mmcsd_core.c:730:11
	mov	r1, sp
	movs	r0, #0
	str	r0, [r1]
	movw	r0, :lower16:mmcsd_detect_mb
	movt	r0, :upper16:mmcsd_detect_mb
	movw	r1, :lower16:.L.str.10
	movt	r1, :upper16:.L.str.10
	movw	r2, :lower16:mmcsd_detect_mb_pool
	movt	r2, :upper16:mmcsd_detect_mb_pool
	movs	r3, #4
	bl	rt_mb_init
	.loc	2 730 9 is_stmt 0               @ rt-thread/components/drivers/sdio/mmcsd_core.c:730:9
	str	r0, [sp, #20]
.Ltmp249:
	.loc	2 733 5 is_stmt 1               @ rt-thread/components/drivers/sdio/mmcsd_core.c:733:5
	ldr	r0, [sp, #20]
.Ltmp250:
	.loc	2 733 5 is_stmt 0               @ rt-thread/components/drivers/sdio/mmcsd_core.c:733:5
	cbz	r0, .LBB29_2
	b	.LBB29_1
.LBB29_1:
.Ltmp251:
	.loc	2 733 5                         @ rt-thread/components/drivers/sdio/mmcsd_core.c:733:5
	movw	r0, :lower16:.L.str.11
	movt	r0, :upper16:.L.str.11
	movw	r1, :lower16:.L__FUNCTION__.rt_mmcsd_core_init
	movt	r1, :upper16:.L__FUNCTION__.rt_mmcsd_core_init
	movw	r2, #733
	bl	rt_assert_handler
	b	.LBB29_2
.Ltmp252:
.LBB29_2:
	.loc	2 735 10 is_stmt 1              @ rt-thread/components/drivers/sdio/mmcsd_core.c:735:10
	mov	r1, sp
	movs	r0, #0
	str	r0, [r1]
	movw	r0, :lower16:mmcsd_hotpluge_mb
	movt	r0, :upper16:mmcsd_hotpluge_mb
	movw	r1, :lower16:.L.str.12
	movt	r1, :upper16:.L.str.12
	movw	r2, :lower16:mmcsd_hotpluge_mb_pool
	movt	r2, :upper16:mmcsd_hotpluge_mb_pool
	movs	r3, #4
	bl	rt_mb_init
	.loc	2 735 8 is_stmt 0               @ rt-thread/components/drivers/sdio/mmcsd_core.c:735:8
	str	r0, [sp, #20]
.Ltmp253:
	.loc	2 738 5 is_stmt 1               @ rt-thread/components/drivers/sdio/mmcsd_core.c:738:5
	ldr	r0, [sp, #20]
.Ltmp254:
	.loc	2 738 5 is_stmt 0               @ rt-thread/components/drivers/sdio/mmcsd_core.c:738:5
	cbz	r0, .LBB29_4
	b	.LBB29_3
.LBB29_3:
.Ltmp255:
	.loc	2 738 5                         @ rt-thread/components/drivers/sdio/mmcsd_core.c:738:5
	movw	r0, :lower16:.L.str.11
	movt	r0, :upper16:.L.str.11
	movw	r1, :lower16:.L__FUNCTION__.rt_mmcsd_core_init
	movt	r1, :upper16:.L__FUNCTION__.rt_mmcsd_core_init
	movw	r2, #738
	bl	rt_assert_handler
	b	.LBB29_4
.Ltmp256:
.LBB29_4:
	.loc	2 739 12 is_stmt 1              @ rt-thread/components/drivers/sdio/mmcsd_core.c:739:12
	mov	r1, sp
	movs	r0, #20
	str	r0, [r1, #12]
	movs	r0, #22
	str	r0, [r1, #8]
	mov.w	r0, #1024
	str	r0, [r1, #4]
	movw	r0, :lower16:mmcsd_stack
	movt	r0, :upper16:mmcsd_stack
	str	r0, [r1]
	movw	r0, :lower16:mmcsd_detect_thread
	movt	r0, :upper16:mmcsd_detect_thread
	movw	r1, :lower16:.L.str.13
	movt	r1, :upper16:.L.str.13
	movw	r2, :lower16:mmcsd_detect
	movt	r2, :upper16:mmcsd_detect
	movs	r3, #0
	bl	rt_thread_init
	.loc	2 739 10 is_stmt 0              @ rt-thread/components/drivers/sdio/mmcsd_core.c:739:10
	str	r0, [sp, #20]
.Ltmp257:
	.loc	2 741 9 is_stmt 1               @ rt-thread/components/drivers/sdio/mmcsd_core.c:741:9
	ldr	r0, [sp, #20]
.Ltmp258:
	.loc	2 741 9 is_stmt 0               @ rt-thread/components/drivers/sdio/mmcsd_core.c:741:9
	cbnz	r0, .LBB29_6
	b	.LBB29_5
.LBB29_5:
.Ltmp259:
	.loc	2 743 9 is_stmt 1               @ rt-thread/components/drivers/sdio/mmcsd_core.c:743:9
	movw	r0, :lower16:mmcsd_detect_thread
	movt	r0, :upper16:mmcsd_detect_thread
	bl	rt_thread_startup
	.loc	2 744 5                         @ rt-thread/components/drivers/sdio/mmcsd_core.c:744:5
	b	.LBB29_6
.Ltmp260:
.LBB29_6:
	.loc	2 746 5                         @ rt-thread/components/drivers/sdio/mmcsd_core.c:746:5
	bl	rt_sdio_init
	movs	r0, #0
	.loc	2 748 2                         @ rt-thread/components/drivers/sdio/mmcsd_core.c:748:2
	add	sp, #24
	pop	{r7, pc}
.Ltmp261:
.Lfunc_end29:
	.size	rt_mmcsd_core_init, .Lfunc_end29-rt_mmcsd_core_init
	.cfi_endproc
	.cantunwind
	.fnend
                                        @ -- End function
	.section	.text.__rt_fls,"ax",%progbits
	.p2align	3                               @ -- Begin function __rt_fls
	.type	__rt_fls,%function
	.code	16                              @ @__rt_fls
	.thumb_func
__rt_fls:
.Lfunc_begin30:
	.file	4 "E:\\Smart-access-control\\Hardware\\CODE" "rt-thread/components/drivers/include\\drivers/mmcsd_core.h"
	.loc	4 175 0                         @ rt-thread/components/drivers/include\drivers/mmcsd_core.h:175:0
	.fnstart
	.cfi_startproc
@ %bb.0:
	.pad	#12
	sub	sp, #12
	.cfi_def_cfa_offset 12
	str	r0, [sp, #4]
	movs	r0, #32
.Ltmp262:
	.loc	4 176 15 prologue_end           @ rt-thread/components/drivers/include\drivers/mmcsd_core.h:176:15
	str	r0, [sp]
.Ltmp263:
	.loc	4 178 7                         @ rt-thread/components/drivers/include\drivers/mmcsd_core.h:178:7
	ldr	r0, [sp, #4]
.Ltmp264:
	.loc	4 178 6 is_stmt 0               @ rt-thread/components/drivers/include\drivers/mmcsd_core.h:178:6
	cbnz	r0, .LBB30_2
	b	.LBB30_1
.LBB30_1:
	.loc	4 0 6                           @ rt-thread/components/drivers/include\drivers/mmcsd_core.h:0:6
	movs	r0, #0
.Ltmp265:
	.loc	4 179 3 is_stmt 1               @ rt-thread/components/drivers/include\drivers/mmcsd_core.h:179:3
	str	r0, [sp, #8]
	b	.LBB30_13
.Ltmp266:
.LBB30_2:
	.loc	4 180 6                         @ rt-thread/components/drivers/include\drivers/mmcsd_core.h:180:6
	ldrh.w	r0, [sp, #6]
	cbnz	r0, .LBB30_4
	b	.LBB30_3
.LBB30_3:
.Ltmp267:
	.loc	4 182 7                         @ rt-thread/components/drivers/include\drivers/mmcsd_core.h:182:7
	ldr	r0, [sp, #4]
	lsls	r0, r0, #16
	str	r0, [sp, #4]
	.loc	4 183 7                         @ rt-thread/components/drivers/include\drivers/mmcsd_core.h:183:7
	ldr	r0, [sp]
	subs	r0, #16
	str	r0, [sp]
	.loc	4 184 2                         @ rt-thread/components/drivers/include\drivers/mmcsd_core.h:184:2
	b	.LBB30_4
.Ltmp268:
.LBB30_4:
	.loc	4 185 6                         @ rt-thread/components/drivers/include\drivers/mmcsd_core.h:185:6
	ldrb.w	r0, [sp, #7]
	cbnz	r0, .LBB30_6
	b	.LBB30_5
.LBB30_5:
.Ltmp269:
	.loc	4 187 7                         @ rt-thread/components/drivers/include\drivers/mmcsd_core.h:187:7
	ldr	r0, [sp, #4]
	lsls	r0, r0, #8
	str	r0, [sp, #4]
	.loc	4 188 7                         @ rt-thread/components/drivers/include\drivers/mmcsd_core.h:188:7
	ldr	r0, [sp]
	subs	r0, #8
	str	r0, [sp]
	.loc	4 189 2                         @ rt-thread/components/drivers/include\drivers/mmcsd_core.h:189:2
	b	.LBB30_6
.Ltmp270:
.LBB30_6:
	.loc	4 190 6                         @ rt-thread/components/drivers/include\drivers/mmcsd_core.h:190:6
	ldrb.w	r0, [sp, #7]
	tst.w	r0, #240
	bne	.LBB30_8
	b	.LBB30_7
.LBB30_7:
.Ltmp271:
	.loc	4 192 7                         @ rt-thread/components/drivers/include\drivers/mmcsd_core.h:192:7
	ldr	r0, [sp, #4]
	lsls	r0, r0, #4
	str	r0, [sp, #4]
	.loc	4 193 7                         @ rt-thread/components/drivers/include\drivers/mmcsd_core.h:193:7
	ldr	r0, [sp]
	subs	r0, #4
	str	r0, [sp]
	.loc	4 194 2                         @ rt-thread/components/drivers/include\drivers/mmcsd_core.h:194:2
	b	.LBB30_8
.Ltmp272:
.LBB30_8:
	.loc	4 195 6                         @ rt-thread/components/drivers/include\drivers/mmcsd_core.h:195:6
	ldrb.w	r0, [sp, #7]
	tst.w	r0, #192
	bne	.LBB30_10
	b	.LBB30_9
.LBB30_9:
.Ltmp273:
	.loc	4 197 7                         @ rt-thread/components/drivers/include\drivers/mmcsd_core.h:197:7
	ldr	r0, [sp, #4]
	lsls	r0, r0, #2
	str	r0, [sp, #4]
	.loc	4 198 7                         @ rt-thread/components/drivers/include\drivers/mmcsd_core.h:198:7
	ldr	r0, [sp]
	subs	r0, #2
	str	r0, [sp]
	.loc	4 199 2                         @ rt-thread/components/drivers/include\drivers/mmcsd_core.h:199:2
	b	.LBB30_10
.Ltmp274:
.LBB30_10:
	.loc	4 200 6                         @ rt-thread/components/drivers/include\drivers/mmcsd_core.h:200:6
	ldrb.w	r0, [sp, #7]
	lsls	r0, r0, #24
	cmp	r0, #0
	bmi	.LBB30_12
	b	.LBB30_11
.LBB30_11:
.Ltmp275:
	.loc	4 202 7                         @ rt-thread/components/drivers/include\drivers/mmcsd_core.h:202:7
	ldr	r0, [sp]
	subs	r0, #1
	str	r0, [sp]
	.loc	4 203 2                         @ rt-thread/components/drivers/include\drivers/mmcsd_core.h:203:2
	b	.LBB30_12
.Ltmp276:
.LBB30_12:
	.loc	4 205 9                         @ rt-thread/components/drivers/include\drivers/mmcsd_core.h:205:9
	ldr	r0, [sp]
	.loc	4 205 2 is_stmt 0               @ rt-thread/components/drivers/include\drivers/mmcsd_core.h:205:2
	str	r0, [sp, #8]
	b	.LBB30_13
.LBB30_13:
	.loc	4 206 1 is_stmt 1               @ rt-thread/components/drivers/include\drivers/mmcsd_core.h:206:1
	ldr	r0, [sp, #8]
	add	sp, #12
	bx	lr
.Ltmp277:
.Lfunc_end30:
	.size	__rt_fls, .Lfunc_end30-__rt_fls
	.cfi_endproc
	.cantunwind
	.fnend
                                        @ -- End function
	.type	.L.str,%object                  @ @.str
	.section	.rodata.str1.1,"aMS",%progbits,1
.L.str:
	.asciz	"[E/SDIO] "
	.size	.L.str, 10

	.type	.L.str.1,%object                @ @.str.1
.L.str.1:
	.asciz	"allocate memory failed!"
	.size	.L.str.1, 24

	.type	.L.str.2,%object                @ @.str.2
.L.str.2:
	.asciz	"\n"
	.size	.L.str.2, 2

	.type	.L.str.3,%object                @ @.str.3
.L.str.3:
	.asciz	"[W/SDIO] "
	.size	.L.str.3, 10

	.type	.L.str.4,%object                @ @.str.4
.L.str.4:
	.asciz	"clock too low!"
	.size	.L.str.4, 15

	.type	.L.str.5,%object                @ @.str.5
.L.str.5:
	.asciz	"host doesn't support card's voltages!"
	.size	.L.str.5, 38

	.type	mmcsd_hotpluge_mb,%object       @ @mmcsd_hotpluge_mb
	.section	.bss.mmcsd_hotpluge_mb,"aw",%nobits
	.p2align	2
mmcsd_hotpluge_mb:
	.zero	48
	.size	mmcsd_hotpluge_mb, 48

	.type	mmcsd_detect_mb,%object         @ @mmcsd_detect_mb
	.section	.bss.mmcsd_detect_mb,"aw",%nobits
	.p2align	2
mmcsd_detect_mb:
	.zero	48
	.size	mmcsd_detect_mb, 48

	.type	.L.str.6,%object                @ @.str.6
	.section	.rodata.str1.1,"aMS",%progbits,1
.L.str.6:
	.asciz	"unsupport sdio card plug out!"
	.size	.L.str.6, 30

	.type	.L.str.7,%object                @ @.str.7
.L.str.7:
	.asciz	"alloc host failed"
	.size	.L.str.7, 18

	.type	.L.str.8,%object                @ @.str.8
.L.str.8:
	.asciz	"sd_bus_lock"
	.size	.L.str.8, 12

	.type	.L.str.9,%object                @ @.str.9
.L.str.9:
	.asciz	"sd_ack"
	.size	.L.str.9, 7

	.type	.L.str.10,%object               @ @.str.10
.L.str.10:
	.asciz	"mmcsdmb"
	.size	.L.str.10, 8

	.type	mmcsd_detect_mb_pool,%object    @ @mmcsd_detect_mb_pool
	.section	.bss.mmcsd_detect_mb_pool,"aw",%nobits
	.p2align	2
mmcsd_detect_mb_pool:
	.zero	16
	.size	mmcsd_detect_mb_pool, 16

	.type	.L.str.11,%object               @ @.str.11
	.section	.rodata.str1.1,"aMS",%progbits,1
.L.str.11:
	.asciz	"ret == RT_EOK"
	.size	.L.str.11, 14

	.type	.L__FUNCTION__.rt_mmcsd_core_init,%object @ @__FUNCTION__.rt_mmcsd_core_init
.L__FUNCTION__.rt_mmcsd_core_init:
	.asciz	"rt_mmcsd_core_init"
	.size	.L__FUNCTION__.rt_mmcsd_core_init, 19

	.type	.L.str.12,%object               @ @.str.12
.L.str.12:
	.asciz	"mmcsdhotplugmb"
	.size	.L.str.12, 15

	.type	mmcsd_hotpluge_mb_pool,%object  @ @mmcsd_hotpluge_mb_pool
	.section	.bss.mmcsd_hotpluge_mb_pool,"aw",%nobits
	.p2align	2
mmcsd_hotpluge_mb_pool:
	.zero	16
	.size	mmcsd_hotpluge_mb_pool, 16

	.type	mmcsd_detect_thread,%object     @ @mmcsd_detect_thread
	.section	.bss.mmcsd_detect_thread,"aw",%nobits
	.p2align	2
mmcsd_detect_thread:
	.zero	128
	.size	mmcsd_detect_thread, 128

	.type	.L.str.13,%object               @ @.str.13
	.section	.rodata.str1.1,"aMS",%progbits,1
.L.str.13:
	.asciz	"mmcsd_detect"
	.size	.L.str.13, 13

	.type	mmcsd_stack,%object             @ @mmcsd_stack
	.section	.bss.mmcsd_stack,"aw",%nobits
mmcsd_stack:
	.zero	1024
	.size	mmcsd_stack, 1024

	.hidden	__rt_init_rt_mmcsd_core_init    @ @__rt_init_rt_mmcsd_core_init
	.type	__rt_init_rt_mmcsd_core_init,%object
	.section	.rti_fn.2,"a",%progbits
	.globl	__rt_init_rt_mmcsd_core_init
	.p2align	2
__rt_init_rt_mmcsd_core_init:
__tagsym$$used.0:
	.long	rt_mmcsd_core_init
	.size	__rt_init_rt_mmcsd_core_init, 4

	.globl	__rt_init_rt_mmcsd_core_init
	.file	5 "E:\\Smart-access-control\\Hardware\\CODE" "rt-thread/components/drivers/include\\drivers/mmcsd_card.h"
	.section	".note.GNU-stack","",%progbits
	.eabi_attribute	30, 6	@ Tag_ABI_optimization_goals
	.ARM_attribute	16, 1	@ Tag_AV_eba