	.text
	.syntax unified
	.eabi_attribute	67, "2.09"	@ Tag_conformance
	.cpu	cortex-m7
	.eabi_attribute	6, 13	@ Tag_CPU_arch
	.eabi_attribute	7, 77	@ Tag_CPU_arch_profile
	.eabi_attribute	8, 0	@ Tag_ARM_ISA_use
	.eabi_attribute	9, 2	@ Tag_THUMB_ISA_use
	.fpu	fpv5-d16
	.eabi_attribute	36, 1	@ Tag_FP_HP_extension
	.eabi_attribute	34, 1	@ Tag_CPU_unaligned_access
	.eabi_attribute	17, 1	@ Tag_ABI_PCS_GOT_use
	.eabi_attribute	20, 2	@ Tag_ABI_FP_denormal
	.eabi_attribute	21, 0	@ Tag_ABI_FP_exceptions
	.eabi_attribute	23, 1	@ Tag_ABI_FP_number_model
	.eabi_attribute	24, 1	@ Tag_ABI_align_needed
	.eabi_attribute	25, 1	@ Tag_ABI_align_preserved
	.eabi_attribute	28, 1	@ Tag_ABI_VFP_args
	.eabi_attribute	38, 1	@ Tag_ABI_FP_16bit_format
	.eabi_attribute	18, 2	@ Tag_ABI_PCS_wchar_t
	.eabi_attribute	26, 1	@ Tag_ABI_enum_size
	.eabi_attribute	14, 0	@ Tag_ABI_PCS_R9_use
	.file	"MQTTConnectClient.c"
	.file	1 "E:\\STM32\\Learning\\STM32H750_ART_PI_RGBLCD" "./packages/paho_mqtt/MQTTPacket/src/MQTTPacket.h"
	.section	.text.MQTTSerialize_connectLength,"ax",%progbits
	.hidden	MQTTSerialize_connectLength     @ -- Begin function MQTTSerialize_connectLength
	.globl	MQTTSerialize_connectLength
	.p2align	3
	.type	MQTTSerialize_connectLength,%function
	.code	16                              @ @MQTTSerialize_connectLength
	.thumb_func
MQTTSerialize_connectLength:
.Lfunc_begin0:
	.file	2 "E:\\STM32\\Learning\\STM32H750_ART_PI_RGBLCD" "packages/paho_mqtt/MQTTPacket/src/MQTTConnectClient.c"
	.loc	2 28 0                          @ packages/paho_mqtt/MQTTPacket/src/MQTTConnectClient.c:28:0
	.fnstart
	.cfi_sections .debug_frame
	.cfi_startproc
@ %bb.0:
	.save	{r7, lr}
	push	{r7, lr}
	.cfi_def_cfa_offset 8
	.cfi_offset lr, -4
	.cfi_offset r7, -8
	.pad	#16
	sub	sp, #16
	.cfi_def_cfa_offset 24
	str	r0, [sp, #12]
	movs	r0, #0
.Ltmp0:
	.loc	2 29 6 prologue_end             @ packages/paho_mqtt/MQTTPacket/src/MQTTConnectClient.c:29:6
	str	r0, [sp, #8]
.Ltmp1:
	.loc	2 33 6                          @ packages/paho_mqtt/MQTTPacket/src/MQTTConnectClient.c:33:6
	ldr	r0, [sp, #12]
	.loc	2 33 15 is_stmt 0               @ packages/paho_mqtt/MQTTPacket/src/MQTTConnectClient.c:33:15
	ldrb	r0, [r0, #8]
.Ltmp2:
	.loc	2 33 6                          @ packages/paho_mqtt/MQTTPacket/src/MQTTConnectClient.c:33:6
	cmp	r0, #3
	bne	.LBB0_2
	b	.LBB0_1
.LBB0_1:
	.loc	2 0 6                           @ packages/paho_mqtt/MQTTPacket/src/MQTTConnectClient.c:0:6
	movs	r0, #12
.Ltmp3:
	.loc	2 34 7 is_stmt 1                @ packages/paho_mqtt/MQTTPacket/src/MQTTConnectClient.c:34:7
	str	r0, [sp, #8]
	.loc	2 34 3 is_stmt 0                @ packages/paho_mqtt/MQTTPacket/src/MQTTConnectClient.c:34:3
	b	.LBB0_5
.LBB0_2:
.Ltmp4:
	.loc	2 35 11 is_stmt 1               @ packages/paho_mqtt/MQTTPacket/src/MQTTConnectClient.c:35:11
	ldr	r0, [sp, #12]
	.loc	2 35 20 is_stmt 0               @ packages/paho_mqtt/MQTTPacket/src/MQTTConnectClient.c:35:20
	ldrb	r0, [r0, #8]
.Ltmp5:
	.loc	2 35 11                         @ packages/paho_mqtt/MQTTPacket/src/MQTTConnectClient.c:35:11
	cmp	r0, #4
	bne	.LBB0_4
	b	.LBB0_3
.LBB0_3:
	.loc	2 0 11                          @ packages/paho_mqtt/MQTTPacket/src/MQTTConnectClient.c:0:11
	movs	r0, #10
.Ltmp6:
	.loc	2 36 7 is_stmt 1                @ packages/paho_mqtt/MQTTPacket/src/MQTTConnectClient.c:36:7
	str	r0, [sp, #8]
	.loc	2 36 3 is_stmt 0                @ packages/paho_mqtt/MQTTPacket/src/MQTTConnectClient.c:36:3
	b	.LBB0_4
.Ltmp7:
.LBB0_4:
	.loc	2 0 3                           @ packages/paho_mqtt/MQTTPacket/src/MQTTConnectClient.c:0:3
	b	.LBB0_5
.LBB0_5:
	.loc	2 38 20 is_stmt 1               @ packages/paho_mqtt/MQTTPacket/src/MQTTConnectClient.c:38:20
	ldr	r2, [sp, #12]
	.loc	2 38 9 is_stmt 0                @ packages/paho_mqtt/MQTTPacket/src/MQTTConnectClient.c:38:9
	ldr	r0, [r2, #12]
	ldr	r1, [r2, #16]
	ldr	r2, [r2, #20]
	bl	MQTTstrlen
	.loc	2 38 6                          @ packages/paho_mqtt/MQTTPacket/src/MQTTConnectClient.c:38:6
	ldr	r1, [sp, #8]
	.loc	2 38 38                         @ packages/paho_mqtt/MQTTPacket/src/MQTTConnectClient.c:38:38
	add	r0, r1
	.loc	2 38 6                          @ packages/paho_mqtt/MQTTPacket/src/MQTTConnectClient.c:38:6
	adds	r0, #2
	str	r0, [sp, #8]
.Ltmp8:
	.loc	2 39 6 is_stmt 1                @ packages/paho_mqtt/MQTTPacket/src/MQTTConnectClient.c:39:6
	ldr	r0, [sp, #12]
	.loc	2 39 15 is_stmt 0               @ packages/paho_mqtt/MQTTPacket/src/MQTTConnectClient.c:39:15
	ldrb	r0, [r0, #27]
.Ltmp9:
	.loc	2 39 6                          @ packages/paho_mqtt/MQTTPacket/src/MQTTConnectClient.c:39:6
	cbz	r0, .LBB0_7
	b	.LBB0_6
.LBB0_6:
.Ltmp10:
	.loc	2 40 21 is_stmt 1               @ packages/paho_mqtt/MQTTPacket/src/MQTTConnectClient.c:40:21
	ldr	r2, [sp, #12]
	.loc	2 40 10 is_stmt 0               @ packages/paho_mqtt/MQTTPacket/src/MQTTConnectClient.c:40:10
	ldr	r0, [r2, #36]
	ldr	r1, [r2, #40]
	ldr	r2, [r2, #44]
	bl	MQTTstrlen
	.loc	2 40 61                         @ packages/paho_mqtt/MQTTPacket/src/MQTTConnectClient.c:40:61
	str	r0, [sp, #4]                    @ 4-byte Spill
	ldr	r2, [sp, #12]
	.loc	2 40 50                         @ packages/paho_mqtt/MQTTPacket/src/MQTTConnectClient.c:40:50
	ldr	r0, [r2, #48]
	ldr	r1, [r2, #52]
	ldr	r2, [r2, #56]
	bl	MQTTstrlen
	mov	r1, r0
	.loc	2 40 45                         @ packages/paho_mqtt/MQTTPacket/src/MQTTConnectClient.c:40:45
	ldr	r0, [sp, #4]                    @ 4-byte Reload
	add	r0, r1
	.loc	2 40 7                          @ packages/paho_mqtt/MQTTPacket/src/MQTTConnectClient.c:40:7
	ldr	r1, [sp, #8]
	.loc	2 40 48                         @ packages/paho_mqtt/MQTTPacket/src/MQTTConnectClient.c:40:48
	add	r0, r1
	.loc	2 40 7                          @ packages/paho_mqtt/MQTTPacket/src/MQTTConnectClient.c:40:7
	adds	r0, #4
	str	r0, [sp, #8]
	.loc	2 40 3                          @ packages/paho_mqtt/MQTTPacket/src/MQTTConnectClient.c:40:3
	b	.LBB0_7
.Ltmp11:
.LBB0_7:
	.loc	2 41 6 is_stmt 1                @ packages/paho_mqtt/MQTTPacket/src/MQTTConnectClient.c:41:6
	ldr	r0, [sp, #12]
	.loc	2 41 24 is_stmt 0               @ packages/paho_mqtt/MQTTPacket/src/MQTTConnectClient.c:41:24
	ldr	r0, [r0, #64]
	.loc	2 41 32                         @ packages/paho_mqtt/MQTTPacket/src/MQTTConnectClient.c:41:32
	cbnz	r0, .LBB0_9
	b	.LBB0_8
.LBB0_8:
	.loc	2 41 35                         @ packages/paho_mqtt/MQTTPacket/src/MQTTConnectClient.c:41:35
	ldr	r0, [sp, #12]
	.loc	2 41 63                         @ packages/paho_mqtt/MQTTPacket/src/MQTTConnectClient.c:41:63
	ldr	r0, [r0, #72]
.Ltmp12:
	.loc	2 41 6                          @ packages/paho_mqtt/MQTTPacket/src/MQTTConnectClient.c:41:6
	cbz	r0, .LBB0_10
	b	.LBB0_9
.LBB0_9:
.Ltmp13:
	.loc	2 42 21 is_stmt 1               @ packages/paho_mqtt/MQTTPacket/src/MQTTConnectClient.c:42:21
	ldr	r2, [sp, #12]
	.loc	2 42 10 is_stmt 0               @ packages/paho_mqtt/MQTTPacket/src/MQTTConnectClient.c:42:10
	ldr	r0, [r2, #64]
	ldr	r1, [r2, #68]
	ldr	r2, [r2, #72]
	bl	MQTTstrlen
	.loc	2 42 7                          @ packages/paho_mqtt/MQTTPacket/src/MQTTConnectClient.c:42:7
	ldr	r1, [sp, #8]
	.loc	2 42 39                         @ packages/paho_mqtt/MQTTPacket/src/MQTTConnectClient.c:42:39
	add	r0, r1
	.loc	2 42 7                          @ packages/paho_mqtt/MQTTPacket/src/MQTTConnectClient.c:42:7
	adds	r0, #2
	str	r0, [sp, #8]
	.loc	2 42 3                          @ packages/paho_mqtt/MQTTPacket/src/MQTTConnectClient.c:42:3
	b	.LBB0_10
.Ltmp14:
.LBB0_10:
	.loc	2 43 6 is_stmt 1                @ packages/paho_mqtt/MQTTPacket/src/MQTTConnectClient.c:43:6
	ldr	r0, [sp, #12]
	.loc	2 43 24 is_stmt 0               @ packages/paho_mqtt/MQTTPacket/src/MQTTConnectClient.c:43:24
	ldr	r0, [r0, #76]
	.loc	2 43 32                         @ packages/paho_mqtt/MQTTPacket/src/MQTTConnectClient.c:43:32
	cbnz	r0, .LBB0_12
	b	.LBB0_11
.LBB0_11:
	.loc	2 43 35                         @ packages/paho_mqtt/MQTTPacket/src/MQTTConnectClient.c:43:35
	ldr	r0, [sp, #12]
	.loc	2 43 63                         @ packages/paho_mqtt/MQTTPacket/src/MQTTConnectClient.c:43:63
	ldr	r0, [r0, #84]
.Ltmp15:
	.loc	2 43 6                          @ packages/paho_mqtt/MQTTPacket/src/MQTTConnectClient.c:43:6
	cbz	r0, .LBB0_13
	b	.LBB0_12
.LBB0_12:
.Ltmp16:
	.loc	2 44 21 is_stmt 1               @ packages/paho_mqtt/MQTTPacket/src/MQTTConnectClient.c:44:21
	ldr	r2, [sp, #12]
	.loc	2 44 10 is_stmt 0               @ packages/paho_mqtt/MQTTPacket/src/MQTTConnectClient.c:44:10
	ldr	r0, [r2, #76]
	ldr	r1, [r2, #80]
	ldr	r2, [r2, #84]
	bl	MQTTstrlen
	.loc	2 44 7                          @ packages/paho_mqtt/MQTTPacket/src/MQTTConnectClient.c:44:7
	ldr	r1, [sp, #8]
	.loc	2 44 39                         @ packages/paho_mqtt/MQTTPacket/src/MQTTConnectClient.c:44:39
	add	r0, r1
	.loc	2 44 7                          @ packages/paho_mqtt/MQTTPacket/src/MQTTConnectClient.c:44:7
	adds	r0, #2
	str	r0, [sp, #8]
	.loc	2 44 3                          @ packages/paho_mqtt/MQTTPacket/src/MQTTConnectClient.c:44:3
	b	.LBB0_13
.Ltmp17:
.LBB0_13:
	.loc	2 47 9 is_stmt 1                @ packages/paho_mqtt/MQTTPacket/src/MQTTConnectClient.c:47:9
	ldr	r0, [sp, #8]
	.loc	2 47 2 is_stmt 0                @ packages/paho_mqtt/MQTTPacket/src/MQTTConnectClient.c:47:2
	add	sp, #16
	pop	{r7, pc}
.Ltmp18:
.Lfunc_end0:
	.size	MQTTSerialize_connectLength, .Lfunc_end0-MQTTSerialize_connectLength
	.cfi_endproc
	.cantunwind
	.fnend
                                        @ -- End function
	.section	.text.MQTTSerialize_connect,"ax",%progbits
	.hidden	MQTTSerialize_connect           @ -- Begin function MQTTSerialize_connect
	.globl	MQTTSerialize_connect
	.p2align	3
	.type	MQTTSerialize_connect,%function
	.code	16                              @ @MQTTSerialize_connect
	.thumb_func
MQTTSerialize_connect:
.Lfunc_begin1:
	.loc	2 59 0 is_stmt 1                @ packages/paho_mqtt/MQTTPacket/src/MQTTConnectClient.c:59:0
	.fnstart
	.cfi_startproc
@ %bb.0:
	.save	{r7, lr}
	push	{r7, lr}
	.cfi_def_cfa_offset 8
	.cfi_offset lr, -4
	.cfi_offset r7, -8
	.pad	#48
	sub	sp, #48
	.cfi_def_cfa_offset 56
	str	r0, [sp, #44]
	str	r1, [sp, #40]
	str	r2, [sp, #36]
.Ltmp19:
	.loc	2 60 23 prologue_end            @ packages/paho_mqtt/MQTTPacket/src/MQTTConnectClient.c:60:23
	ldr	r0, [sp, #44]
	.loc	2 60 17 is_stmt 0               @ packages/paho_mqtt/MQTTPacket/src/MQTTConnectClient.c:60:17
	str	r0, [sp, #32]
	.loc	2 61 13 is_stmt 1               @ packages/paho_mqtt/MQTTPacket/src/MQTTConnectClient.c:61:13
	movw	r0, :lower16:.L__const.MQTTSerialize_connect.header
	movt	r0, :upper16:.L__const.MQTTSerialize_connect.header
	ldr	r0, [r0]
	str	r0, [sp, #28]
	.loc	2 62 19                         @ packages/paho_mqtt/MQTTPacket/src/MQTTConnectClient.c:62:19
	movw	r0, :lower16:.L__const.MQTTSerialize_connect.flags
	movt	r0, :upper16:.L__const.MQTTSerialize_connect.flags
	ldr	r0, [r0]
	str	r0, [sp, #24]
	movs	r0, #0
	.loc	2 63 6                          @ packages/paho_mqtt/MQTTPacket/src/MQTTConnectClient.c:63:6
	str	r0, [sp, #20]
	mov.w	r0, #-1
	.loc	2 64 6                          @ packages/paho_mqtt/MQTTPacket/src/MQTTConnectClient.c:64:6
	str	r0, [sp, #16]
.Ltmp20:
	.loc	2 67 55                         @ packages/paho_mqtt/MQTTPacket/src/MQTTConnectClient.c:67:55
	ldr	r0, [sp, #36]
	.loc	2 67 27 is_stmt 0               @ packages/paho_mqtt/MQTTPacket/src/MQTTConnectClient.c:67:27
	bl	MQTTSerialize_connectLength
	.loc	2 67 25                         @ packages/paho_mqtt/MQTTPacket/src/MQTTConnectClient.c:67:25
	str	r0, [sp, #20]
	.loc	2 67 6                          @ packages/paho_mqtt/MQTTPacket/src/MQTTConnectClient.c:67:6
	bl	MQTTPacket_len
	.loc	2 67 67                         @ packages/paho_mqtt/MQTTPacket/src/MQTTConnectClient.c:67:67
	ldr	r1, [sp, #40]
.Ltmp21:
	.loc	2 67 6                          @ packages/paho_mqtt/MQTTPacket/src/MQTTConnectClient.c:67:6
	cmp	r0, r1
	ble	.LBB1_2
	b	.LBB1_1
.LBB1_1:
	.loc	2 0 6                           @ packages/paho_mqtt/MQTTPacket/src/MQTTConnectClient.c:0:6
	mvn	r0, #1
.Ltmp22:
	.loc	2 69 6 is_stmt 1                @ packages/paho_mqtt/MQTTPacket/src/MQTTConnectClient.c:69:6
	str	r0, [sp, #16]
	.loc	2 70 3                          @ packages/paho_mqtt/MQTTPacket/src/MQTTConnectClient.c:70:3
	b	.LBB1_20
.Ltmp23:
.LBB1_2:
	.loc	2 0 3 is_stmt 0                 @ packages/paho_mqtt/MQTTPacket/src/MQTTConnectClient.c:0:3
	movs	r0, #0
	.loc	2 73 14 is_stmt 1               @ packages/paho_mqtt/MQTTPacket/src/MQTTConnectClient.c:73:14
	strb.w	r0, [sp, #28]
	.loc	2 74 19                         @ packages/paho_mqtt/MQTTPacket/src/MQTTConnectClient.c:74:19
	ldrb.w	r0, [sp, #28]
	movs	r1, #1
	bfi	r0, r1, #4, #28
	strb.w	r0, [sp, #28]
	.loc	2 75 25                         @ packages/paho_mqtt/MQTTPacket/src/MQTTConnectClient.c:75:25
	ldrsb.w	r1, [sp, #28]
	add	r0, sp, #32
	.loc	2 75 2 is_stmt 0                @ packages/paho_mqtt/MQTTPacket/src/MQTTConnectClient.c:75:2
	bl	writeChar
	.loc	2 77 27 is_stmt 1               @ packages/paho_mqtt/MQTTPacket/src/MQTTConnectClient.c:77:27
	ldr	r0, [sp, #32]
	.loc	2 77 32 is_stmt 0               @ packages/paho_mqtt/MQTTPacket/src/MQTTConnectClient.c:77:32
	ldr	r1, [sp, #20]
	.loc	2 77 9                          @ packages/paho_mqtt/MQTTPacket/src/MQTTConnectClient.c:77:9
	bl	MQTTPacket_encode
	mov	r1, r0
	.loc	2 77 6                          @ packages/paho_mqtt/MQTTPacket/src/MQTTConnectClient.c:77:6
	ldr	r0, [sp, #32]
	add	r0, r1
	str	r0, [sp, #32]
.Ltmp24:
	.loc	2 79 6 is_stmt 1                @ packages/paho_mqtt/MQTTPacket/src/MQTTConnectClient.c:79:6
	ldr	r0, [sp, #36]
	.loc	2 79 15 is_stmt 0               @ packages/paho_mqtt/MQTTPacket/src/MQTTConnectClient.c:79:15
	ldrb	r0, [r0, #8]
.Ltmp25:
	.loc	2 79 6                          @ packages/paho_mqtt/MQTTPacket/src/MQTTConnectClient.c:79:6
	cmp	r0, #4
	bne	.LBB1_4
	b	.LBB1_3
.LBB1_3:
.Ltmp26:
	.loc	2 81 3 is_stmt 1                @ packages/paho_mqtt/MQTTPacket/src/MQTTConnectClient.c:81:3
	movw	r1, :lower16:.L.str
	movt	r1, :upper16:.L.str
	add	r0, sp, #32
	str	r0, [sp, #12]                   @ 4-byte Spill
	bl	writeCString
	ldr	r0, [sp, #12]                   @ 4-byte Reload
	movs	r1, #4
	.loc	2 82 3                          @ packages/paho_mqtt/MQTTPacket/src/MQTTConnectClient.c:82:3
	bl	writeChar
	.loc	2 83 2                          @ packages/paho_mqtt/MQTTPacket/src/MQTTConnectClient.c:83:2
	b	.LBB1_5
.Ltmp27:
.LBB1_4:
	.loc	2 86 3                          @ packages/paho_mqtt/MQTTPacket/src/MQTTConnectClient.c:86:3
	movw	r1, :lower16:.L.str.1
	movt	r1, :upper16:.L.str.1
	add	r0, sp, #32
	str	r0, [sp, #8]                    @ 4-byte Spill
	bl	writeCString
	ldr	r0, [sp, #8]                    @ 4-byte Reload
	movs	r1, #3
	.loc	2 87 3                          @ packages/paho_mqtt/MQTTPacket/src/MQTTConnectClient.c:87:3
	bl	writeChar
	b	.LBB1_5
.Ltmp28:
.LBB1_5:
	.loc	2 0 3 is_stmt 0                 @ packages/paho_mqtt/MQTTPacket/src/MQTTConnectClient.c:0:3
	movs	r0, #0
	.loc	2 90 12 is_stmt 1               @ packages/paho_mqtt/MQTTPacket/src/MQTTConnectClient.c:90:12
	strb.w	r0, [sp, #24]
	.loc	2 91 28                         @ packages/paho_mqtt/MQTTPacket/src/MQTTConnectClient.c:91:28
	ldr	r0, [sp, #36]
	.loc	2 91 37 is_stmt 0               @ packages/paho_mqtt/MQTTPacket/src/MQTTConnectClient.c:91:37
	ldrb	r1, [r0, #26]
	.loc	2 91 26                         @ packages/paho_mqtt/MQTTPacket/src/MQTTConnectClient.c:91:26
	ldrb.w	r0, [sp, #24]
	and	r1, r1, #1
	and	r0, r0, #253
	orr.w	r0, r0, r1, lsl #1
	strb.w	r0, [sp, #24]
	.loc	2 92 21 is_stmt 1               @ packages/paho_mqtt/MQTTPacket/src/MQTTConnectClient.c:92:21
	ldr	r0, [sp, #36]
	.loc	2 92 30 is_stmt 0               @ packages/paho_mqtt/MQTTPacket/src/MQTTConnectClient.c:92:30
	ldrb	r1, [r0, #27]
	.loc	2 92 20                         @ packages/paho_mqtt/MQTTPacket/src/MQTTConnectClient.c:92:20
	cmp	r1, #0
	it	ne
	movne	r1, #1
	.loc	2 92 18                         @ packages/paho_mqtt/MQTTPacket/src/MQTTConnectClient.c:92:18
	ldrb.w	r0, [sp, #24]
	and	r0, r0, #251
	orr.w	r0, r0, r1, lsl #2
	strb.w	r0, [sp, #24]
.Ltmp29:
	.loc	2 93 17 is_stmt 1               @ packages/paho_mqtt/MQTTPacket/src/MQTTConnectClient.c:93:17
	ldrb.w	r0, [sp, #24]
	lsrs	r0, r0, #2
.Ltmp30:
	.loc	2 93 6 is_stmt 0                @ packages/paho_mqtt/MQTTPacket/src/MQTTConnectClient.c:93:6
	lsls	r0, r0, #31
	cbz	r0, .LBB1_7
	b	.LBB1_6
.LBB1_6:
.Ltmp31:
	.loc	2 95 24 is_stmt 1               @ packages/paho_mqtt/MQTTPacket/src/MQTTConnectClient.c:95:24
	ldr	r0, [sp, #36]
	.loc	2 95 38 is_stmt 0               @ packages/paho_mqtt/MQTTPacket/src/MQTTConnectClient.c:95:38
	ldrb.w	r1, [r0, #61]
	.loc	2 95 22                         @ packages/paho_mqtt/MQTTPacket/src/MQTTConnectClient.c:95:22
	ldrb.w	r0, [sp, #24]
	and	r1, r1, #3
	and	r0, r0, #231
	orr.w	r0, r0, r1, lsl #3
	strb.w	r0, [sp, #24]
	.loc	2 96 27 is_stmt 1               @ packages/paho_mqtt/MQTTPacket/src/MQTTConnectClient.c:96:27
	ldr	r0, [sp, #36]
	.loc	2 96 41 is_stmt 0               @ packages/paho_mqtt/MQTTPacket/src/MQTTConnectClient.c:96:41
	ldrb.w	r1, [r0, #60]
	.loc	2 96 25                         @ packages/paho_mqtt/MQTTPacket/src/MQTTConnectClient.c:96:25
	ldrb.w	r0, [sp, #24]
	and	r1, r1, #1
	and	r0, r0, #223
	orr.w	r0, r0, r1, lsl #5
	strb.w	r0, [sp, #24]
	.loc	2 97 2 is_stmt 1                @ packages/paho_mqtt/MQTTPacket/src/MQTTConnectClient.c:97:2
	b	.LBB1_7
.Ltmp32:
.LBB1_7:
	.loc	2 99 6                          @ packages/paho_mqtt/MQTTPacket/src/MQTTConnectClient.c:99:6
	ldr	r0, [sp, #36]
	.loc	2 99 24 is_stmt 0               @ packages/paho_mqtt/MQTTPacket/src/MQTTConnectClient.c:99:24
	ldr	r0, [r0, #64]
	.loc	2 99 32                         @ packages/paho_mqtt/MQTTPacket/src/MQTTConnectClient.c:99:32
	cbnz	r0, .LBB1_9
	b	.LBB1_8
.LBB1_8:
	.loc	2 99 35                         @ packages/paho_mqtt/MQTTPacket/src/MQTTConnectClient.c:99:35
	ldr	r0, [sp, #36]
	.loc	2 99 63                         @ packages/paho_mqtt/MQTTPacket/src/MQTTConnectClient.c:99:63
	ldr	r0, [r0, #72]
.Ltmp33:
	.loc	2 99 6                          @ packages/paho_mqtt/MQTTPacket/src/MQTTConnectClient.c:99:6
	cbz	r0, .LBB1_10
	b	.LBB1_9
.LBB1_9:
.Ltmp34:
	.loc	2 100 23 is_stmt 1              @ packages/paho_mqtt/MQTTPacket/src/MQTTConnectClient.c:100:23
	ldrb.w	r0, [sp, #24]
	orr	r0, r0, #128
	strb.w	r0, [sp, #24]
	.loc	2 100 3 is_stmt 0               @ packages/paho_mqtt/MQTTPacket/src/MQTTConnectClient.c:100:3
	b	.LBB1_10
.Ltmp35:
.LBB1_10:
	.loc	2 101 6 is_stmt 1               @ packages/paho_mqtt/MQTTPacket/src/MQTTConnectClient.c:101:6
	ldr	r0, [sp, #36]
	.loc	2 101 24 is_stmt 0              @ packages/paho_mqtt/MQTTPacket/src/MQTTConnectClient.c:101:24
	ldr	r0, [r0, #76]
	.loc	2 101 32                        @ packages/paho_mqtt/MQTTPacket/src/MQTTConnectClient.c:101:32
	cbnz	r0, .LBB1_12
	b	.LBB1_11
.LBB1_11:
	.loc	2 101 35                        @ packages/paho_mqtt/MQTTPacket/src/MQTTConnectClient.c:101:35
	ldr	r0, [sp, #36]
	.loc	2 101 63                        @ packages/paho_mqtt/MQTTPacket/src/MQTTConnectClient.c:101:63
	ldr	r0, [r0, #84]
.Ltmp36:
	.loc	2 101 6                         @ packages/paho_mqtt/MQTTPacket/src/MQTTConnectClient.c:101:6
	cbz	r0, .LBB1_13
	b	.LBB1_12
.LBB1_12:
.Ltmp37:
	.loc	2 102 23 is_stmt 1              @ packages/paho_mqtt/MQTTPacket/src/MQTTConnectClient.c:102:23
	ldrb.w	r0, [sp, #24]
	orr	r0, r0, #64
	strb.w	r0, [sp, #24]
	.loc	2 102 3 is_stmt 0               @ packages/paho_mqtt/MQTTPacket/src/MQTTConnectClient.c:102:3
	b	.LBB1_13
.Ltmp38:
.LBB1_13:
	.loc	2 104 24 is_stmt 1              @ packages/paho_mqtt/MQTTPacket/src/MQTTConnectClient.c:104:24
	ldrsb.w	r1, [sp, #24]
	add	r0, sp, #32
	.loc	2 104 2 is_stmt 0               @ packages/paho_mqtt/MQTTPacket/src/MQTTConnectClient.c:104:2
	str	r0, [sp, #4]                    @ 4-byte Spill
	bl	writeChar
	ldr	r0, [sp, #4]                    @ 4-byte Reload
	.loc	2 105 17 is_stmt 1              @ packages/paho_mqtt/MQTTPacket/src/MQTTConnectClient.c:105:17
	ldr	r1, [sp, #36]
	.loc	2 105 26 is_stmt 0              @ packages/paho_mqtt/MQTTPacket/src/MQTTConnectClient.c:105:26
	ldrh	r1, [r1, #24]
	.loc	2 105 2                         @ packages/paho_mqtt/MQTTPacket/src/MQTTConnectClient.c:105:2
	bl	writeInt
	ldr	r0, [sp, #4]                    @ 4-byte Reload
	.loc	2 106 24 is_stmt 1              @ packages/paho_mqtt/MQTTPacket/src/MQTTConnectClient.c:106:24
	ldr	r3, [sp, #36]
	.loc	2 106 2 is_stmt 0               @ packages/paho_mqtt/MQTTPacket/src/MQTTConnectClient.c:106:2
	ldr	r1, [r3, #12]
	ldr	r2, [r3, #16]
	ldr	r3, [r3, #20]
	bl	writeMQTTString
.Ltmp39:
	.loc	2 107 6 is_stmt 1               @ packages/paho_mqtt/MQTTPacket/src/MQTTConnectClient.c:107:6
	ldr	r0, [sp, #36]
	.loc	2 107 15 is_stmt 0              @ packages/paho_mqtt/MQTTPacket/src/MQTTConnectClient.c:107:15
	ldrb	r0, [r0, #27]
.Ltmp40:
	.loc	2 107 6                         @ packages/paho_mqtt/MQTTPacket/src/MQTTConnectClient.c:107:6
	cbz	r0, .LBB1_15
	b	.LBB1_14
.LBB1_14:
.Ltmp41:
	.loc	2 109 25 is_stmt 1              @ packages/paho_mqtt/MQTTPacket/src/MQTTConnectClient.c:109:25
	ldr	r0, [sp, #36]
	.loc	2 109 3 is_stmt 0               @ packages/paho_mqtt/MQTTPacket/src/MQTTConnectClient.c:109:3
	ldr	r1, [r0, #36]
	ldr	r2, [r0, #40]
	ldr	r3, [r0, #44]
	add	r0, sp, #32
	str	r0, [sp]                        @ 4-byte Spill
	bl	writeMQTTString
	ldr	r0, [sp]                        @ 4-byte Reload
	.loc	2 110 25 is_stmt 1              @ packages/paho_mqtt/MQTTPacket/src/MQTTConnectClient.c:110:25
	ldr	r3, [sp, #36]
	.loc	2 110 3 is_stmt 0               @ packages/paho_mqtt/MQTTPacket/src/MQTTConnectClient.c:110:3
	ldr	r1, [r3, #48]
	ldr	r2, [r3, #52]
	ldr	r3, [r3, #56]
	bl	writeMQTTString
	.loc	2 111 2 is_stmt 1               @ packages/paho_mqtt/MQTTPacket/src/MQTTConnectClient.c:111:2
	b	.LBB1_15
.Ltmp42:
.LBB1_15:
	.loc	2 112 17                        @ packages/paho_mqtt/MQTTPacket/src/MQTTConnectClient.c:112:17
	ldrb.w	r1, [sp, #24]
	movs	r0, #0
.Ltmp43:
	.loc	2 112 6 is_stmt 0               @ packages/paho_mqtt/MQTTPacket/src/MQTTConnectClient.c:112:6
	cmp.w	r0, r1, lsr #7
	beq	.LBB1_17
	b	.LBB1_16
.LBB1_16:
.Ltmp44:
	.loc	2 113 25 is_stmt 1              @ packages/paho_mqtt/MQTTPacket/src/MQTTConnectClient.c:113:25
	ldr	r0, [sp, #36]
	.loc	2 113 3 is_stmt 0               @ packages/paho_mqtt/MQTTPacket/src/MQTTConnectClient.c:113:3
	ldr	r1, [r0, #64]
	ldr	r2, [r0, #68]
	ldr	r3, [r0, #72]
	add	r0, sp, #32
	bl	writeMQTTString
	b	.LBB1_17
.Ltmp45:
.LBB1_17:
	.loc	2 114 17 is_stmt 1              @ packages/paho_mqtt/MQTTPacket/src/MQTTConnectClient.c:114:17
	ldrb.w	r0, [sp, #24]
	lsrs	r0, r0, #6
.Ltmp46:
	.loc	2 114 6 is_stmt 0               @ packages/paho_mqtt/MQTTPacket/src/MQTTConnectClient.c:114:6
	lsls	r0, r0, #31
	cbz	r0, .LBB1_19
	b	.LBB1_18
.LBB1_18:
.Ltmp47:
	.loc	2 115 25 is_stmt 1              @ packages/paho_mqtt/MQTTPacket/src/MQTTConnectClient.c:115:25
	ldr	r0, [sp, #36]
	.loc	2 115 3 is_stmt 0               @ packages/paho_mqtt/MQTTPacket/src/MQTTConnectClient.c:115:3
	ldr	r1, [r0, #76]
	ldr	r2, [r0, #80]
	ldr	r3, [r0, #84]
	add	r0, sp, #32
	bl	writeMQTTString
	b	.LBB1_19
.Ltmp48:
.LBB1_19:
	.loc	2 117 7 is_stmt 1               @ packages/paho_mqtt/MQTTPacket/src/MQTTConnectClient.c:117:7
	ldr	r0, [sp, #32]
	.loc	2 117 13 is_stmt 0              @ packages/paho_mqtt/MQTTPacket/src/MQTTConnectClient.c:117:13
	ldr	r1, [sp, #44]
	.loc	2 117 11                        @ packages/paho_mqtt/MQTTPacket/src/MQTTConnectClient.c:117:11
	subs	r0, r0, r1
	.loc	2 117 5                         @ packages/paho_mqtt/MQTTPacket/src/MQTTConnectClient.c:117:5
	str	r0, [sp, #16]
	.loc	2 117 2                         @ packages/paho_mqtt/MQTTPacket/src/MQTTConnectClient.c:117:2
	b	.LBB1_20
.LBB1_20:
.Ltmp49:
	@DEBUG_LABEL: MQTTSerialize_connect:exit
	.loc	2 120 9 is_stmt 1               @ packages/paho_mqtt/MQTTPacket/src/MQTTConnectClient.c:120:9
	ldr	r0, [sp, #16]
	.loc	2 120 2 is_stmt 0               @ packages/paho_mqtt/MQTTPacket/src/MQTTConnectClient.c:120:2
	add	sp, #48
	pop	{r7, pc}
.Ltmp50:
.Lfunc_end1:
	.size	MQTTSerialize_connect, .Lfunc_end1-MQTTSerialize_connect
	.cfi_endproc
	.cantunwind
	.fnend
                                        @ -- End function
	.section	.text.MQTTDeserialize_connack,"ax",%progbits
	.hidden	MQTTDeserialize_connack         @ -- Begin function MQTTDeserialize_connack
	.globl	MQTTDeserialize_connack
	.p2align	3
	.type	MQTTDeserialize_connack,%function
	.code	16                              @ @MQTTDeserialize_connack
	.thumb_func
MQTTDeserialize_connack:
.Lfunc_begin2:
	.loc	2 133 0 is_stmt 1               @ packages/paho_mqtt/MQTTPacket/src/MQTTConnectClient.c:133:0
	.fnstart
	.cfi_startproc
@ %bb.0:
	.save	{r7, lr}
	push	{r7, lr}
	.cfi_def_cfa_offset 8
	.cfi_offset lr, -4
	.cfi_offset r7, -8
	.pad	#48
	sub	sp, #48
	.cfi_def_cfa_offset 56
	str	r0, [sp, #44]
	str	r1, [sp, #40]
	str	r2, [sp, #36]
	str	r3, [sp, #32]
.Ltmp51:
	.loc	2 134 13 prologue_end           @ packages/paho_mqtt/MQTTPacket/src/MQTTConnectClient.c:134:13
	movw	r0, :lower16:.L__const.MQTTDeserialize_connack.header
	movt	r0, :upper16:.L__const.MQTTDeserialize_connack.header
	ldr	r0, [r0]
	str	r0, [sp, #28]
	.loc	2 135 27                        @ packages/paho_mqtt/MQTTPacket/src/MQTTConnectClient.c:135:27
	ldr	r0, [sp, #36]
	.loc	2 135 17 is_stmt 0              @ packages/paho_mqtt/MQTTPacket/src/MQTTConnectClient.c:135:17
	str	r0, [sp, #24]
	movs	r0, #0
	.loc	2 136 17 is_stmt 1              @ packages/paho_mqtt/MQTTPacket/src/MQTTConnectClient.c:136:17
	str	r0, [sp, #20]
	.loc	2 137 6                         @ packages/paho_mqtt/MQTTPacket/src/MQTTConnectClient.c:137:6
	str	r0, [sp, #16]
	.loc	2 139 19                        @ packages/paho_mqtt/MQTTPacket/src/MQTTConnectClient.c:139:19
	movw	r0, :lower16:.L__const.MQTTDeserialize_connack.flags
	movt	r0, :upper16:.L__const.MQTTDeserialize_connack.flags
	ldr	r0, [r0]
	str	r0, [sp, #8]
	add	r0, sp, #24
	.loc	2 142 16                        @ packages/paho_mqtt/MQTTPacket/src/MQTTConnectClient.c:142:16
	bl	readChar
	.loc	2 142 14 is_stmt 0              @ packages/paho_mqtt/MQTTPacket/src/MQTTConnectClient.c:142:14
	strb.w	r0, [sp, #28]
.Ltmp52:
	.loc	2 143 18 is_stmt 1              @ packages/paho_mqtt/MQTTPacket/src/MQTTConnectClient.c:143:18
	ldrb.w	r1, [sp, #28]
	movs	r0, #2
.Ltmp53:
	.loc	2 143 6 is_stmt 0               @ packages/paho_mqtt/MQTTPacket/src/MQTTConnectClient.c:143:6
	cmp.w	r0, r1, lsr #4
	beq	.LBB2_2
	b	.LBB2_1
.LBB2_1:
.Ltmp54:
	.loc	2 144 3 is_stmt 1               @ packages/paho_mqtt/MQTTPacket/src/MQTTConnectClient.c:144:3
	b	.LBB2_5
.Ltmp55:
.LBB2_2:
	.loc	2 146 40                        @ packages/paho_mqtt/MQTTPacket/src/MQTTConnectClient.c:146:40
	ldr	r0, [sp, #24]
	add	r1, sp, #12
	.loc	2 146 19 is_stmt 0              @ packages/paho_mqtt/MQTTPacket/src/MQTTConnectClient.c:146:19
	bl	MQTTPacket_decodeBuf
	mov	r1, r0
	.loc	2 146 17                        @ packages/paho_mqtt/MQTTPacket/src/MQTTConnectClient.c:146:17
	str	r1, [sp, #16]
	.loc	2 146 10                        @ packages/paho_mqtt/MQTTPacket/src/MQTTConnectClient.c:146:10
	ldr	r0, [sp, #24]
	add	r0, r1
	str	r0, [sp, #24]
	.loc	2 147 12 is_stmt 1              @ packages/paho_mqtt/MQTTPacket/src/MQTTConnectClient.c:147:12
	ldr	r0, [sp, #24]
	.loc	2 147 22 is_stmt 0              @ packages/paho_mqtt/MQTTPacket/src/MQTTConnectClient.c:147:22
	ldr	r1, [sp, #12]
	.loc	2 147 20                        @ packages/paho_mqtt/MQTTPacket/src/MQTTConnectClient.c:147:20
	add	r0, r1
	.loc	2 147 10                        @ packages/paho_mqtt/MQTTPacket/src/MQTTConnectClient.c:147:10
	str	r0, [sp, #20]
.Ltmp56:
	.loc	2 148 6 is_stmt 1               @ packages/paho_mqtt/MQTTPacket/src/MQTTConnectClient.c:148:6
	ldr	r0, [sp, #20]
	.loc	2 148 16 is_stmt 0              @ packages/paho_mqtt/MQTTPacket/src/MQTTConnectClient.c:148:16
	ldr	r1, [sp, #24]
	.loc	2 148 14                        @ packages/paho_mqtt/MQTTPacket/src/MQTTConnectClient.c:148:14
	subs	r0, r0, r1
.Ltmp57:
	.loc	2 148 6                         @ packages/paho_mqtt/MQTTPacket/src/MQTTConnectClient.c:148:6
	cmp	r0, #1
	bgt	.LBB2_4
	b	.LBB2_3
.LBB2_3:
.Ltmp58:
	.loc	2 149 3 is_stmt 1               @ packages/paho_mqtt/MQTTPacket/src/MQTTConnectClient.c:149:3
	b	.LBB2_5
.Ltmp59:
.LBB2_4:
	.loc	2 0 3 is_stmt 0                 @ packages/paho_mqtt/MQTTPacket/src/MQTTConnectClient.c:0:3
	add	r0, sp, #24
	.loc	2 151 14 is_stmt 1              @ packages/paho_mqtt/MQTTPacket/src/MQTTConnectClient.c:151:14
	str	r0, [sp, #4]                    @ 4-byte Spill
	bl	readChar
	mov	r1, r0
	.loc	2 151 12 is_stmt 0              @ packages/paho_mqtt/MQTTPacket/src/MQTTConnectClient.c:151:12
	ldr	r0, [sp, #4]                    @ 4-byte Reload
	strb.w	r1, [sp, #8]
	.loc	2 152 31 is_stmt 1              @ packages/paho_mqtt/MQTTPacket/src/MQTTConnectClient.c:152:31
	ldrb.w	r1, [sp, #8]
	and	r1, r1, #1
	.loc	2 152 3 is_stmt 0               @ packages/paho_mqtt/MQTTPacket/src/MQTTConnectClient.c:152:3
	ldr	r2, [sp, #44]
	.loc	2 152 18                        @ packages/paho_mqtt/MQTTPacket/src/MQTTConnectClient.c:152:18
	strb	r1, [r2]
	.loc	2 153 16 is_stmt 1              @ packages/paho_mqtt/MQTTPacket/src/MQTTConnectClient.c:153:16
	bl	readChar
	.loc	2 153 3 is_stmt 0               @ packages/paho_mqtt/MQTTPacket/src/MQTTConnectClient.c:153:3
	ldr	r1, [sp, #40]
	.loc	2 153 14                        @ packages/paho_mqtt/MQTTPacket/src/MQTTConnectClient.c:153:14
	strb	r0, [r1]
	movs	r0, #1
	.loc	2 155 5 is_stmt 1               @ packages/paho_mqtt/MQTTPacket/src/MQTTConnectClient.c:155:5
	str	r0, [sp, #16]
	.loc	2 155 2 is_stmt 0               @ packages/paho_mqtt/MQTTPacket/src/MQTTConnectClient.c:155:2
	b	.LBB2_5
.LBB2_5:
.Ltmp60:
	@DEBUG_LABEL: MQTTDeserialize_connack:exit
	.loc	2 158 9 is_stmt 1               @ packages/paho_mqtt/MQTTPacket/src/MQTTConnectClient.c:158:9
	ldr	r0, [sp, #16]
	.loc	2 158 2 is_stmt 0               @ packages/paho_mqtt/MQTTPacket/src/MQTTConnectClient.c:158:2
	add	sp, #48
	pop	{r7, pc}
.Ltmp61:
.Lfunc_end2:
	.size	MQTTDeserialize_connack, .Lfunc_end2-MQTTDeserialize_connack
	.cfi_endproc
	.cantunwind
	.fnend
                                        @ -- End function
	.section	.text.MQTTSerialize_zero,"ax",%progbits
	.hidden	MQTTSerialize_zero              @ -- Begin function MQTTSerialize_zero
	.globl	MQTTSerialize_zero
	.p2align	3
	.type	MQTTSerialize_zero,%function
	.code	16                              @ @MQTTSerialize_zero
	.thumb_func
MQTTSerialize_zero:
.Lfunc_begin3:
	.loc	2 170 0 is_stmt 1               @ packages/paho_mqtt/MQTTPacket/src/MQTTConnectClient.c:170:0
	.fnstart
	.cfi_startproc
@ %bb.0:
	.save	{r7, lr}
	push	{r7, lr}
	.cfi_def_cfa_offset 8
	.cfi_offset lr, -4
	.cfi_offset r7, -8
	.pad	#32
	sub	sp, #32
	.cfi_def_cfa_offset 40
                                        @ kill: def $r3 killed $r2
	str	r0, [sp, #28]
	str	r1, [sp, #24]
	strb.w	r2, [sp, #23]
.Ltmp62:
	.loc	2 171 13 prologue_end           @ packages/paho_mqtt/MQTTPacket/src/MQTTConnectClient.c:171:13
	movw	r0, :lower16:.L__const.MQTTSerialize_zero.header
	movt	r0, :upper16:.L__const.MQTTSerialize_zero.header
	ldr	r0, [r0]
	str	r0, [sp, #16]
	mov.w	r0, #-1
	.loc	2 172 6                         @ packages/paho_mqtt/MQTTPacket/src/MQTTConnectClient.c:172:6
	str	r0, [sp, #12]
	.loc	2 173 23                        @ packages/paho_mqtt/MQTTPacket/src/MQTTConnectClient.c:173:23
	ldr	r0, [sp, #28]
	.loc	2 173 17 is_stmt 0              @ packages/paho_mqtt/MQTTPacket/src/MQTTConnectClient.c:173:17
	str	r0, [sp, #8]
.Ltmp63:
	.loc	2 176 6 is_stmt 1               @ packages/paho_mqtt/MQTTPacket/src/MQTTConnectClient.c:176:6
	ldr	r0, [sp, #24]
.Ltmp64:
	.loc	2 176 6 is_stmt 0               @ packages/paho_mqtt/MQTTPacket/src/MQTTConnectClient.c:176:6
	cmp	r0, #1
	bgt	.LBB3_2
	b	.LBB3_1
.LBB3_1:
	.loc	2 0 6                           @ packages/paho_mqtt/MQTTPacket/src/MQTTConnectClient.c:0:6
	mvn	r0, #1
.Ltmp65:
	.loc	2 178 6 is_stmt 1               @ packages/paho_mqtt/MQTTPacket/src/MQTTConnectClient.c:178:6
	str	r0, [sp, #12]
	.loc	2 179 3                         @ packages/paho_mqtt/MQTTPacket/src/MQTTConnectClient.c:179:3
	b	.LBB3_3
.Ltmp66:
.LBB3_2:
	.loc	2 0 3 is_stmt 0                 @ packages/paho_mqtt/MQTTPacket/src/MQTTConnectClient.c:0:3
	movs	r0, #0
	.loc	2 181 14 is_stmt 1              @ packages/paho_mqtt/MQTTPacket/src/MQTTConnectClient.c:181:14
	str	r0, [sp, #4]                    @ 4-byte Spill
	strb.w	r0, [sp, #16]
	.loc	2 182 21                        @ packages/paho_mqtt/MQTTPacket/src/MQTTConnectClient.c:182:21
	ldrb.w	r1, [sp, #23]
	.loc	2 182 19 is_stmt 0              @ packages/paho_mqtt/MQTTPacket/src/MQTTConnectClient.c:182:19
	ldrb.w	r0, [sp, #16]
	and	r0, r0, #15
	orr.w	r0, r0, r1, lsl #4
	strb.w	r0, [sp, #16]
	.loc	2 183 25 is_stmt 1              @ packages/paho_mqtt/MQTTPacket/src/MQTTConnectClient.c:183:25
	ldrsb.w	r1, [sp, #16]
	add	r0, sp, #8
	.loc	2 183 2 is_stmt 0               @ packages/paho_mqtt/MQTTPacket/src/MQTTConnectClient.c:183:2
	bl	writeChar
	ldr	r1, [sp, #4]                    @ 4-byte Reload
	.loc	2 185 27 is_stmt 1              @ packages/paho_mqtt/MQTTPacket/src/MQTTConnectClient.c:185:27
	ldr	r0, [sp, #8]
	.loc	2 185 9 is_stmt 0               @ packages/paho_mqtt/MQTTPacket/src/MQTTConnectClient.c:185:9
	bl	MQTTPacket_encode
	mov	r1, r0
	.loc	2 185 6                         @ packages/paho_mqtt/MQTTPacket/src/MQTTConnectClient.c:185:6
	ldr	r0, [sp, #8]
	add	r0, r1
	str	r0, [sp, #8]
	.loc	2 186 7 is_stmt 1               @ packages/paho_mqtt/MQTTPacket/src/MQTTConnectClient.c:186:7
	ldr	r0, [sp, #8]
	.loc	2 186 13 is_stmt 0              @ packages/paho_mqtt/MQTTPacket/src/MQTTConnectClient.c:186:13
	ldr	r1, [sp, #28]
	.loc	2 186 11                        @ packages/paho_mqtt/MQTTPacket/src/MQTTConnectClient.c:186:11
	subs	r0, r0, r1
	.loc	2 186 5                         @ packages/paho_mqtt/MQTTPacket/src/MQTTConnectClient.c:186:5
	str	r0, [sp, #12]
	.loc	2 186 2                         @ packages/paho_mqtt/MQTTPacket/src/MQTTConnectClient.c:186:2
	b	.LBB3_3
.LBB3_3:
.Ltmp67:
	@DEBUG_LABEL: MQTTSerialize_zero:exit
	.loc	2 189 9 is_stmt 1               @ packages/paho_mqtt/MQTTPacket/src/MQTTConnectClient.c:189:9
	ldr	r0, [sp, #12]
	.loc	2 189 2 is_stmt 0               @ packages/paho_mqtt/MQTTPacket/src/MQTTConnectClient.c:189:2
	add	sp, #32
	pop	{r7, pc}
.Ltmp68:
.Lfunc_end3:
	.size	MQTTSerialize_zero, .Lfunc_end3-MQTTSerialize_zero
	.cfi_endproc
	.cantunwind
	.fnend
                                        @ -- End function
	.section	.text.MQTTSerialize_disconnect,"ax",%progbits
	.hidden	MQTTSerialize_disconnect        @ -- Begin function MQTTSerialize_disconnect
	.globl	MQTTSerialize_disconnect
	.p2align	3
	.type	MQTTSerialize_disconnect,%function
	.code	16                              @ @MQTTSerialize_disconnect
	.thumb_func
MQTTSerialize_disconnect:
.Lfunc_begin4:
	.loc	2 200 0 is_stmt 1               @ packages/paho_mqtt/MQTTPacket/src/MQTTConnectClient.c:200:0
	.fnstart
	.cfi_startproc
@ %bb.0:
	.save	{r7, lr}
	push	{r7, lr}
	.cfi_def_cfa_offset 8
	.cfi_offset lr, -4
	.cfi_offset r7, -8
	.pad	#8
	sub	sp, #8
	.cfi_def_cfa_offset 16
	str	r0, [sp, #4]
	str	r1, [sp]
.Ltmp69:
	.loc	2 201 28 prologue_end           @ packages/paho_mqtt/MQTTPacket/src/MQTTConnectClient.c:201:28
	ldr	r0, [sp, #4]
	.loc	2 201 33 is_stmt 0              @ packages/paho_mqtt/MQTTPacket/src/MQTTConnectClient.c:201:33
	ldr	r1, [sp]
	movs	r2, #14
	.loc	2 201 9                         @ packages/paho_mqtt/MQTTPacket/src/MQTTConnectClient.c:201:9
	bl	MQTTSerialize_zero
	.loc	2 201 2                         @ packages/paho_mqtt/MQTTPacket/src/MQTTConnectClient.c:201:2
	add	sp, #8
	pop	{r7, pc}
.Ltmp70:
.Lfunc_end4:
	.size	MQTTSerialize_disconnect, .Lfunc_end4-MQTTSerialize_disconnect
	.cfi_endproc
	.cantunwind
	.fnend
                                        @ -- End function
	.section	.text.MQTTSerialize_pingreq,"ax",%progbits
	.hidden	MQTTSerialize_pingreq           @ -- Begin function MQTTSerialize_pingreq
	.globl	MQTTSerialize_pingreq
	.p2align	3
	.type	MQTTSerialize_pingreq,%function
	.code	16                              @ @MQTTSerialize_pingreq
	.thumb_func
MQTTSerialize_pingreq:
.Lfunc_begin5:
	.loc	2 212 0 is_stmt 1               @ packages/paho_mqtt/MQTTPacket/src/MQTTConnectClient.c:212:0
	.fnstart
	.cfi_startproc
@ %bb.0:
	.save	{r7, lr}
	push	{r7, lr}
	.cfi_def_cfa_offset 8
	.cfi_offset lr, -4
	.cfi_offset r7, -8
	.pad	#8
	sub	sp, #8
	.cfi_def_cfa_offset 16
	str	r0, [sp, #4]
	str	r1, [sp]
.Ltmp71:
	.loc	2 213 28 prologue_end           @ packages/paho_mqtt/MQTTPacket/src/MQTTConnectClient.c:213:28
	ldr	r0, [sp, #4]
	.loc	2 213 33 is_stmt 0              @ packages/paho_mqtt/MQTTPacket/src/MQTTConnectClient.c:213:33
	ldr	r1, [sp]
	movs	r2, #12
	.loc	2 213 9                         @ packages/paho_mqtt/MQTTPacket/src/MQTTConnectClient.c:213:9
	bl	MQTTSerialize_zero
	.loc	2 213 2                         @ packages/paho_mqtt/MQTTPacket/src/MQTTConnectClient.c:213:2
	add	sp, #8
	pop	{r7, pc}
.Ltmp72:
.Lfunc_end5:
	.size	MQTTSerialize_pingreq, .Lfunc_end5-MQTTSerialize_pingreq
	.cfi_endproc
	.cantunwind
	.fnend
                                        @ -- End function
	.type	.L__const.MQTTSerialize_connect.header,%object @ @__const.MQTTSerialize_connect.header
	.section	.rodata.cst4,"aM",%progbits,4
	.p2align	2
.L__const.MQTTSerialize_connect.header:
	.byte	0                               @ 0x0
	.zero	3
	.size	.L__const.MQTTSerialize_connect.header, 4

	.type	.L__const.MQTTSerialize_connect.flags,%object @ @__const.MQTTSerialize_connect.flags
	.p2align	2
.L__const.MQTTSerialize_connect.flags:
	.byte	0                               @ 0x0
	.zero	3
	.size	.L__const.MQTTSerialize_connect.flags, 4

	.type	.L.str,%object                  @ @.str
	.section	.rodata.str1.1,"aMS",%progbits,1
.L.str:
	.asciz	"MQTT"
	.size	.L.str, 5

	.type	.L.str.1,%object                @ @.str.1
.L.str.1:
	.asciz	"MQIsdp"
	.size	.L.str.1, 7

	.type	.L__const.MQTTDeserialize_connack.header,%object @ @__const.MQTTDeserialize_connack.header
	.section	.rodata.cst4,"aM",%progbits,4
	.p2align	2
.L__const.MQTTDeserialize_connack.header:
	.byte	0                               @ 0x0
	.zero	3
	.size	.L__const.MQTTDeserialize_connack.header, 4

	.type	.L__const.MQTTDeserialize_connack.flags,%object @ @__const.MQTTDeserialize_connack.flags
	.p2align	2
.L__const.MQTTDeserialize_connack.flags:
	.byte	0                               @ 0x0
	.zero	3
	.size	.L__const.MQTTDeserialize_connack.flags, 4

	.type	.L__const.MQTTSerialize_zero.header,%object @ @__const.MQTTSerialize_zero.header
	.p2align	2
.L__const.MQTTSerialize_zero.header:
	.byte	0                               @ 0x0
	.zero	3
	.size	.L__const.MQTTSerialize_zero.header, 4

	.file	3 "E:\\STM32\\Learning\\STM32H750_ART_PI_RGBLCD" "./packages/paho_mqtt/MQTTPacket/src/MQTTConnect.h"
	.section	".note.GNU-stack","",%progbits
	.eabi_attribute	30, 6	@ Tag_ABI_optimization_goals
	.ARM_attribute	16, 1	@ Tag_AV_eba