	.text
	.syntax unified
	.eabi_attribute	67, "2.09"	@ Tag_conformance
	.cpu	cortex-m7
	.eabi_attribute	6, 13	@ Tag_CPU_arch
	.eabi_attribute	7, 77	@ Tag_CPU_arch_profile
	.eabi_attribute	8, 0	@ Tag_ARM_ISA_use
	.eabi_attribute	9, 2	@ Tag_THUMB_ISA_use
	.fpu	fpv5-d16
	.eabi_attribute	36, 1	@ Tag_FP_HP_extension
	.eabi_attribute	34, 1	@ Tag_CPU_unaligned_access
	.eabi_attribute	17, 1	@ Tag_ABI_PCS_GOT_use
	.eabi_attribute	20, 2	@ Tag_ABI_FP_denormal
	.eabi_attribute	21, 0	@ Tag_ABI_FP_exceptions
	.eabi_attribute	23, 1	@ Tag_ABI_FP_number_model
	.eabi_attribute	24, 1	@ Tag_ABI_align_needed
	.eabi_attribute	25, 1	@ Tag_ABI_align_preserved
	.eabi_attribute	28, 1	@ Tag_ABI_VFP_args
	.eabi_attribute	38, 1	@ Tag_ABI_FP_16bit_format
	.eabi_attribute	18, 2	@ Tag_ABI_PCS_wchar_t
	.eabi_attribute	26, 1	@ Tag_ABI_enum_size
	.eabi_attribute	14, 0	@ Tag_ABI_PCS_R9_use
	.file	"MQTTSubscribeClient.c"
	.file	1 "E:\\STM32\\Learning\\STM32H750_ART_PI_RGBLCD" "./packages/paho_mqtt/MQTTPacket/src/MQTTPacket.h"
	.section	.text.MQTTSerialize_subscribeLength,"ax",%progbits
	.hidden	MQTTSerialize_subscribeLength   @ -- Begin function MQTTSerialize_subscribeLength
	.globl	MQTTSerialize_subscribeLength
	.p2align	3
	.type	MQTTSerialize_subscribeLength,%function
	.code	16                              @ @MQTTSerialize_subscribeLength
	.thumb_func
MQTTSerialize_subscribeLength:
.Lfunc_begin0:
	.file	2 "E:\\STM32\\Learning\\STM32H750_ART_PI_RGBLCD" "packages/paho_mqtt/MQTTPacket/src/MQTTSubscribeClient.c"
	.loc	2 29 0                          @ packages/paho_mqtt/MQTTPacket/src/MQTTSubscribeClient.c:29:0
	.fnstart
	.cfi_sections .debug_frame
	.cfi_startproc
@ %bb.0:
	.save	{r7, lr}
	push	{r7, lr}
	.cfi_def_cfa_offset 8
	.cfi_offset lr, -4
	.cfi_offset r7, -8
	.pad	#16
	sub	sp, #16
	.cfi_def_cfa_offset 24
	str	r0, [sp, #12]
	str	r1, [sp, #8]
	movs	r0, #2
.Ltmp0:
	.loc	2 31 6 prologue_end             @ packages/paho_mqtt/MQTTPacket/src/MQTTSubscribeClient.c:31:6
	str	r0, [sp]
	movs	r0, #0
.Ltmp1:
	.loc	2 33 9                          @ packages/paho_mqtt/MQTTPacket/src/MQTTSubscribeClient.c:33:9
	str	r0, [sp, #4]
	.loc	2 33 7 is_stmt 0                @ packages/paho_mqtt/MQTTPacket/src/MQTTSubscribeClient.c:33:7
	b	.LBB0_1
.LBB0_1:                                @ =>This Inner Loop Header: Depth=1
.Ltmp2:
	.loc	2 33 14                         @ packages/paho_mqtt/MQTTPacket/src/MQTTSubscribeClient.c:33:14
	ldr	r0, [sp, #4]
	.loc	2 33 18                         @ packages/paho_mqtt/MQTTPacket/src/MQTTSubscribeClient.c:33:18
	ldr	r1, [sp, #12]
.Ltmp3:
	.loc	2 33 2                          @ packages/paho_mqtt/MQTTPacket/src/MQTTSubscribeClient.c:33:2
	cmp	r0, r1
	bge	.LBB0_4
	b	.LBB0_2
.LBB0_2:                                @   in Loop: Header=BB0_1 Depth=1
.Ltmp4:
	.loc	2 34 25 is_stmt 1               @ packages/paho_mqtt/MQTTPacket/src/MQTTSubscribeClient.c:34:25
	ldr	r0, [sp, #8]
	.loc	2 34 38 is_stmt 0               @ packages/paho_mqtt/MQTTPacket/src/MQTTSubscribeClient.c:34:38
	ldr	r1, [sp, #4]
	.loc	2 34 25                         @ packages/paho_mqtt/MQTTPacket/src/MQTTSubscribeClient.c:34:25
	add.w	r1, r1, r1, lsl #1
	add.w	r2, r0, r1, lsl #2
	.loc	2 34 14                         @ packages/paho_mqtt/MQTTPacket/src/MQTTSubscribeClient.c:34:14
	ldr.w	r0, [r0, r1, lsl #2]
	ldr	r1, [r2, #4]
	ldr	r2, [r2, #8]
	bl	MQTTstrlen
	.loc	2 34 7                          @ packages/paho_mqtt/MQTTPacket/src/MQTTSubscribeClient.c:34:7
	ldr	r1, [sp]
	.loc	2 34 12                         @ packages/paho_mqtt/MQTTPacket/src/MQTTSubscribeClient.c:34:12
	add	r0, r1
	.loc	2 34 7                          @ packages/paho_mqtt/MQTTPacket/src/MQTTSubscribeClient.c:34:7
	adds	r0, #3
	str	r0, [sp]
	.loc	2 34 3                          @ packages/paho_mqtt/MQTTPacket/src/MQTTSubscribeClient.c:34:3
	b	.LBB0_3
.LBB0_3:                                @   in Loop: Header=BB0_1 Depth=1
	.loc	2 33 25 is_stmt 1               @ packages/paho_mqtt/MQTTPacket/src/MQTTSubscribeClient.c:33:25
	ldr	r0, [sp, #4]
	adds	r0, #1
	str	r0, [sp, #4]
	.loc	2 33 2 is_stmt 0                @ packages/paho_mqtt/MQTTPacket/src/MQTTSubscribeClient.c:33:2
	b	.LBB0_1
.Ltmp5:
.LBB0_4:
	.loc	2 35 9 is_stmt 1                @ packages/paho_mqtt/MQTTPacket/src/MQTTSubscribeClient.c:35:9
	ldr	r0, [sp]
	.loc	2 35 2 is_stmt 0                @ packages/paho_mqtt/MQTTPacket/src/MQTTSubscribeClient.c:35:2
	add	sp, #16
	pop	{r7, pc}
.Ltmp6:
.Lfunc_end0:
	.size	MQTTSerialize_subscribeLength, .Lfunc_end0-MQTTSerialize_subscribeLength
	.cfi_endproc
	.cantunwind
	.fnend
                                        @ -- End function
	.section	.text.MQTTSerialize_subscribe,"ax",%progbits
	.hidden	MQTTSerialize_subscribe         @ -- Begin function MQTTSerialize_subscribe
	.globl	MQTTSerialize_subscribe
	.p2align	3
	.type	MQTTSerialize_subscribe,%function
	.code	16                              @ @MQTTSerialize_subscribe
	.thumb_func
MQTTSerialize_subscribe:
.Lfunc_begin1:
	.loc	2 52 0 is_stmt 1                @ packages/paho_mqtt/MQTTPacket/src/MQTTSubscribeClient.c:52:0
	.fnstart
	.cfi_startproc
@ %bb.0:
	.save	{r7, lr}
	push	{r7, lr}
	.cfi_def_cfa_offset 8
	.cfi_offset lr, -4
	.cfi_offset r7, -8
	.pad	#48
	sub	sp, #48
	.cfi_def_cfa_offset 56
	ldr.w	r12, [sp, #64]
	ldr.w	r12, [sp, #60]
	ldr.w	r12, [sp, #56]
                                        @ kill: def $r12 killed $r3
                                        @ kill: def $r12 killed $r2
	str	r0, [sp, #44]
	str	r1, [sp, #40]
	strb.w	r2, [sp, #39]
	strh.w	r3, [sp, #36]
.Ltmp7:
	.loc	2 53 23 prologue_end            @ packages/paho_mqtt/MQTTPacket/src/MQTTSubscribeClient.c:53:23
	ldr	r0, [sp, #44]
	.loc	2 53 17 is_stmt 0               @ packages/paho_mqtt/MQTTPacket/src/MQTTSubscribeClient.c:53:17
	str	r0, [sp, #32]
	.loc	2 54 13 is_stmt 1               @ packages/paho_mqtt/MQTTPacket/src/MQTTSubscribeClient.c:54:13
	movw	r0, :lower16:.L__const.MQTTSerialize_subscribe.header
	movt	r0, :upper16:.L__const.MQTTSerialize_subscribe.header
	ldr	r0, [r0]
	str	r0, [sp, #28]
	movs	r0, #0
	.loc	2 55 6                          @ packages/paho_mqtt/MQTTPacket/src/MQTTSubscribeClient.c:55:6
	str	r0, [sp, #24]
	.loc	2 56 6                          @ packages/paho_mqtt/MQTTPacket/src/MQTTSubscribeClient.c:56:6
	str	r0, [sp, #20]
	.loc	2 57 6                          @ packages/paho_mqtt/MQTTPacket/src/MQTTSubscribeClient.c:57:6
	str	r0, [sp, #16]
.Ltmp8:
	.loc	2 60 61                         @ packages/paho_mqtt/MQTTPacket/src/MQTTSubscribeClient.c:60:61
	ldr	r0, [sp, #56]
	.loc	2 60 68 is_stmt 0               @ packages/paho_mqtt/MQTTPacket/src/MQTTSubscribeClient.c:60:68
	ldr	r1, [sp, #60]
	.loc	2 60 31                         @ packages/paho_mqtt/MQTTPacket/src/MQTTSubscribeClient.c:60:31
	bl	MQTTSerialize_subscribeLength
	.loc	2 60 29                         @ packages/paho_mqtt/MQTTPacket/src/MQTTSubscribeClient.c:60:29
	str	r0, [sp, #24]
	.loc	2 60 6                          @ packages/paho_mqtt/MQTTPacket/src/MQTTSubscribeClient.c:60:6
	bl	MQTTPacket_len
	.loc	2 60 85                         @ packages/paho_mqtt/MQTTPacket/src/MQTTSubscribeClient.c:60:85
	ldr	r1, [sp, #40]
.Ltmp9:
	.loc	2 60 6                          @ packages/paho_mqtt/MQTTPacket/src/MQTTSubscribeClient.c:60:6
	cmp	r0, r1
	ble	.LBB1_2
	b	.LBB1_1
.LBB1_1:
	.loc	2 0 6                           @ packages/paho_mqtt/MQTTPacket/src/MQTTSubscribeClient.c:0:6
	mvn	r0, #1
.Ltmp10:
	.loc	2 62 6 is_stmt 1                @ packages/paho_mqtt/MQTTPacket/src/MQTTSubscribeClient.c:62:6
	str	r0, [sp, #20]
	.loc	2 63 3                          @ packages/paho_mqtt/MQTTPacket/src/MQTTSubscribeClient.c:63:3
	b	.LBB1_7
.Ltmp11:
.LBB1_2:
	.loc	2 0 3 is_stmt 0                 @ packages/paho_mqtt/MQTTPacket/src/MQTTSubscribeClient.c:0:3
	movs	r0, #0
	.loc	2 66 14 is_stmt 1               @ packages/paho_mqtt/MQTTPacket/src/MQTTSubscribeClient.c:66:14
	str	r0, [sp, #12]                   @ 4-byte Spill
	strb.w	r0, [sp, #28]
	.loc	2 67 19                         @ packages/paho_mqtt/MQTTPacket/src/MQTTSubscribeClient.c:67:19
	ldrb.w	r0, [sp, #28]
	movs	r1, #8
	bfi	r0, r1, #4, #28
	strb.w	r0, [sp, #28]
	.loc	2 68 20                         @ packages/paho_mqtt/MQTTPacket/src/MQTTSubscribeClient.c:68:20
	ldrb.w	r1, [sp, #39]
	.loc	2 68 18 is_stmt 0               @ packages/paho_mqtt/MQTTPacket/src/MQTTSubscribeClient.c:68:18
	ldrb.w	r0, [sp, #28]
	and	r1, r1, #1
	and	r0, r0, #247
	orr.w	r0, r0, r1, lsl #3
	strb.w	r0, [sp, #28]
	.loc	2 69 18 is_stmt 1               @ packages/paho_mqtt/MQTTPacket/src/MQTTSubscribeClient.c:69:18
	ldrb.w	r0, [sp, #28]
	and	r0, r0, #249
	adds	r0, #2
	strb.w	r0, [sp, #28]
	.loc	2 70 25                         @ packages/paho_mqtt/MQTTPacket/src/MQTTSubscribeClient.c:70:25
	ldrsb.w	r1, [sp, #28]
	add	r0, sp, #32
	.loc	2 70 2 is_stmt 0                @ packages/paho_mqtt/MQTTPacket/src/MQTTSubscribeClient.c:70:2
	str	r0, [sp, #8]                    @ 4-byte Spill
	bl	writeChar
	.loc	2 72 27 is_stmt 1               @ packages/paho_mqtt/MQTTPacket/src/MQTTSubscribeClient.c:72:27
	ldr	r0, [sp, #32]
	.loc	2 72 32 is_stmt 0               @ packages/paho_mqtt/MQTTPacket/src/MQTTSubscribeClient.c:72:32
	ldr	r1, [sp, #24]
	.loc	2 72 9                          @ packages/paho_mqtt/MQTTPacket/src/MQTTSubscribeClient.c:72:9
	bl	MQTTPacket_encode
	mov	r2, r0
	.loc	2 72 6                          @ packages/paho_mqtt/MQTTPacket/src/MQTTSubscribeClient.c:72:6
	ldr	r0, [sp, #8]                    @ 4-byte Reload
	ldr	r1, [sp, #32]
	add	r1, r2
	str	r1, [sp, #32]
	.loc	2 74 17 is_stmt 1               @ packages/paho_mqtt/MQTTPacket/src/MQTTSubscribeClient.c:74:17
	ldrh.w	r1, [sp, #36]
	.loc	2 74 2 is_stmt 0                @ packages/paho_mqtt/MQTTPacket/src/MQTTSubscribeClient.c:74:2
	bl	writeInt
	ldr	r0, [sp, #12]                   @ 4-byte Reload
.Ltmp12:
	.loc	2 76 9 is_stmt 1                @ packages/paho_mqtt/MQTTPacket/src/MQTTSubscribeClient.c:76:9
	str	r0, [sp, #16]
	.loc	2 76 7 is_stmt 0                @ packages/paho_mqtt/MQTTPacket/src/MQTTSubscribeClient.c:76:7
	b	.LBB1_3
.LBB1_3:                                @ =>This Inner Loop Header: Depth=1
.Ltmp13:
	.loc	2 76 14                         @ packages/paho_mqtt/MQTTPacket/src/MQTTSubscribeClient.c:76:14
	ldr	r0, [sp, #16]
	.loc	2 76 18                         @ packages/paho_mqtt/MQTTPacket/src/MQTTSubscribeClient.c:76:18
	ldr	r1, [sp, #56]
.Ltmp14:
	.loc	2 76 2                          @ packages/paho_mqtt/MQTTPacket/src/MQTTSubscribeClient.c:76:2
	cmp	r0, r1
	bge	.LBB1_6
	b	.LBB1_4
.LBB1_4:                                @   in Loop: Header=BB1_3 Depth=1
.Ltmp15:
	.loc	2 78 25 is_stmt 1               @ packages/paho_mqtt/MQTTPacket/src/MQTTSubscribeClient.c:78:25
	ldr	r1, [sp, #60]
	.loc	2 78 38 is_stmt 0               @ packages/paho_mqtt/MQTTPacket/src/MQTTSubscribeClient.c:78:38
	ldr	r0, [sp, #16]
	.loc	2 78 25                         @ packages/paho_mqtt/MQTTPacket/src/MQTTSubscribeClient.c:78:25
	add.w	r2, r0, r0, lsl #1
	add.w	r0, r1, r2, lsl #2
	.loc	2 78 3                          @ packages/paho_mqtt/MQTTPacket/src/MQTTSubscribeClient.c:78:3
	ldr.w	r1, [r1, r2, lsl #2]
	ldr	r2, [r0, #4]
	ldr	r3, [r0, #8]
	add	r0, sp, #32
	str	r0, [sp, #4]                    @ 4-byte Spill
	bl	writeMQTTString
	ldr	r0, [sp, #4]                    @ 4-byte Reload
	.loc	2 79 19 is_stmt 1               @ packages/paho_mqtt/MQTTPacket/src/MQTTSubscribeClient.c:79:19
	ldr	r1, [sp, #64]
	.loc	2 79 33 is_stmt 0               @ packages/paho_mqtt/MQTTPacket/src/MQTTSubscribeClient.c:79:33
	ldr	r2, [sp, #16]
	.loc	2 79 19                         @ packages/paho_mqtt/MQTTPacket/src/MQTTSubscribeClient.c:79:19
	ldrsb.w	r1, [r1, r2, lsl #2]
	.loc	2 79 3                          @ packages/paho_mqtt/MQTTPacket/src/MQTTSubscribeClient.c:79:3
	bl	writeChar
	.loc	2 80 2 is_stmt 1                @ packages/paho_mqtt/MQTTPacket/src/MQTTSubscribeClient.c:80:2
	b	.LBB1_5
.Ltmp16:
.LBB1_5:                                @   in Loop: Header=BB1_3 Depth=1
	.loc	2 76 25                         @ packages/paho_mqtt/MQTTPacket/src/MQTTSubscribeClient.c:76:25
	ldr	r0, [sp, #16]
	adds	r0, #1
	str	r0, [sp, #16]
	.loc	2 76 2 is_stmt 0                @ packages/paho_mqtt/MQTTPacket/src/MQTTSubscribeClient.c:76:2
	b	.LBB1_3
.Ltmp17:
.LBB1_6:
	.loc	2 82 7 is_stmt 1                @ packages/paho_mqtt/MQTTPacket/src/MQTTSubscribeClient.c:82:7
	ldr	r0, [sp, #32]
	.loc	2 82 13 is_stmt 0               @ packages/paho_mqtt/MQTTPacket/src/MQTTSubscribeClient.c:82:13
	ldr	r1, [sp, #44]
	.loc	2 82 11                         @ packages/paho_mqtt/MQTTPacket/src/MQTTSubscribeClient.c:82:11
	subs	r0, r0, r1
	.loc	2 82 5                          @ packages/paho_mqtt/MQTTPacket/src/MQTTSubscribeClient.c:82:5
	str	r0, [sp, #20]
	.loc	2 82 2                          @ packages/paho_mqtt/MQTTPacket/src/MQTTSubscribeClient.c:82:2
	b	.LBB1_7
.LBB1_7:
.Ltmp18:
	@DEBUG_LABEL: MQTTSerialize_subscribe:exit
	.loc	2 85 9 is_stmt 1                @ packages/paho_mqtt/MQTTPacket/src/MQTTSubscribeClient.c:85:9
	ldr	r0, [sp, #20]
	.loc	2 85 2 is_stmt 0                @ packages/paho_mqtt/MQTTPacket/src/MQTTSubscribeClient.c:85:2
	add	sp, #48
	pop	{r7, pc}
.Ltmp19:
.Lfunc_end1:
	.size	MQTTSerialize_subscribe, .Lfunc_end1-MQTTSerialize_subscribe
	.cfi_endproc
	.cantunwind
	.fnend
                                        @ -- End function
	.section	.text.MQTTDeserialize_suback,"ax",%progbits
	.hidden	MQTTDeserialize_suback          @ -- Begin function MQTTDeserialize_suback
	.globl	MQTTDeserialize_suback
	.p2align	3
	.type	MQTTDeserialize_suback,%function
	.code	16                              @ @MQTTDeserialize_suback
	.thumb_func
MQTTDeserialize_suback:
.Lfunc_begin2:
	.loc	2 101 0 is_stmt 1               @ packages/paho_mqtt/MQTTPacket/src/MQTTSubscribeClient.c:101:0
	.fnstart
	.cfi_startproc
@ %bb.0:
	.save	{r7, lr}
	push	{r7, lr}
	.cfi_def_cfa_offset 8
	.cfi_offset lr, -4
	.cfi_offset r7, -8
	.pad	#40
	sub	sp, #40
	.cfi_def_cfa_offset 48
	ldr.w	r12, [sp, #52]
	ldr.w	r12, [sp, #48]
	str	r0, [sp, #36]
	str	r1, [sp, #32]
	str	r2, [sp, #28]
	str	r3, [sp, #24]
.Ltmp20:
	.loc	2 102 13 prologue_end           @ packages/paho_mqtt/MQTTPacket/src/MQTTSubscribeClient.c:102:13
	movw	r0, :lower16:.L__const.MQTTDeserialize_suback.header
	movt	r0, :upper16:.L__const.MQTTDeserialize_suback.header
	ldr	r0, [r0]
	str	r0, [sp, #20]
	.loc	2 103 27                        @ packages/paho_mqtt/MQTTPacket/src/MQTTSubscribeClient.c:103:27
	ldr	r0, [sp, #48]
	.loc	2 103 17 is_stmt 0              @ packages/paho_mqtt/MQTTPacket/src/MQTTSubscribeClient.c:103:17
	str	r0, [sp, #16]
	movs	r0, #0
	.loc	2 104 17 is_stmt 1              @ packages/paho_mqtt/MQTTPacket/src/MQTTSubscribeClient.c:104:17
	str	r0, [sp, #12]
	.loc	2 105 6                         @ packages/paho_mqtt/MQTTPacket/src/MQTTSubscribeClient.c:105:6
	str	r0, [sp, #8]
	add	r0, sp, #16
	.loc	2 109 16                        @ packages/paho_mqtt/MQTTPacket/src/MQTTSubscribeClient.c:109:16
	bl	readChar
	.loc	2 109 14 is_stmt 0              @ packages/paho_mqtt/MQTTPacket/src/MQTTSubscribeClient.c:109:14
	strb.w	r0, [sp, #20]
.Ltmp21:
	.loc	2 110 18 is_stmt 1              @ packages/paho_mqtt/MQTTPacket/src/MQTTSubscribeClient.c:110:18
	ldrb.w	r1, [sp, #20]
	movs	r0, #9
.Ltmp22:
	.loc	2 110 6 is_stmt 0               @ packages/paho_mqtt/MQTTPacket/src/MQTTSubscribeClient.c:110:6
	cmp.w	r0, r1, lsr #4
	beq	.LBB2_2
	b	.LBB2_1
.LBB2_1:
.Ltmp23:
	.loc	2 111 3 is_stmt 1               @ packages/paho_mqtt/MQTTPacket/src/MQTTSubscribeClient.c:111:3
	b	.LBB2_10
.Ltmp24:
.LBB2_2:
	.loc	2 113 40                        @ packages/paho_mqtt/MQTTPacket/src/MQTTSubscribeClient.c:113:40
	ldr	r0, [sp, #16]
	add	r1, sp, #4
	.loc	2 113 19 is_stmt 0              @ packages/paho_mqtt/MQTTPacket/src/MQTTSubscribeClient.c:113:19
	bl	MQTTPacket_decodeBuf
	mov	r1, r0
	.loc	2 113 17                        @ packages/paho_mqtt/MQTTPacket/src/MQTTSubscribeClient.c:113:17
	str	r1, [sp, #8]
	.loc	2 113 10                        @ packages/paho_mqtt/MQTTPacket/src/MQTTSubscribeClient.c:113:10
	ldr	r0, [sp, #16]
	add	r0, r1
	str	r0, [sp, #16]
	.loc	2 114 12 is_stmt 1              @ packages/paho_mqtt/MQTTPacket/src/MQTTSubscribeClient.c:114:12
	ldr	r0, [sp, #16]
	.loc	2 114 22 is_stmt 0              @ packages/paho_mqtt/MQTTPacket/src/MQTTSubscribeClient.c:114:22
	ldr	r1, [sp, #4]
	.loc	2 114 20                        @ packages/paho_mqtt/MQTTPacket/src/MQTTSubscribeClient.c:114:20
	add	r0, r1
	.loc	2 114 10                        @ packages/paho_mqtt/MQTTPacket/src/MQTTSubscribeClient.c:114:10
	str	r0, [sp, #12]
.Ltmp25:
	.loc	2 115 6 is_stmt 1               @ packages/paho_mqtt/MQTTPacket/src/MQTTSubscribeClient.c:115:6
	ldr	r0, [sp, #12]
	.loc	2 115 16 is_stmt 0              @ packages/paho_mqtt/MQTTPacket/src/MQTTSubscribeClient.c:115:16
	ldr	r1, [sp, #16]
	.loc	2 115 14                        @ packages/paho_mqtt/MQTTPacket/src/MQTTSubscribeClient.c:115:14
	subs	r0, r0, r1
.Ltmp26:
	.loc	2 115 6                         @ packages/paho_mqtt/MQTTPacket/src/MQTTSubscribeClient.c:115:6
	cmp	r0, #1
	bgt	.LBB2_4
	b	.LBB2_3
.LBB2_3:
.Ltmp27:
	.loc	2 116 3 is_stmt 1               @ packages/paho_mqtt/MQTTPacket/src/MQTTSubscribeClient.c:116:3
	b	.LBB2_10
.Ltmp28:
.LBB2_4:
	.loc	2 0 3 is_stmt 0                 @ packages/paho_mqtt/MQTTPacket/src/MQTTSubscribeClient.c:0:3
	add	r0, sp, #16
	.loc	2 118 14 is_stmt 1              @ packages/paho_mqtt/MQTTPacket/src/MQTTSubscribeClient.c:118:14
	bl	readInt
	.loc	2 118 3 is_stmt 0               @ packages/paho_mqtt/MQTTPacket/src/MQTTSubscribeClient.c:118:3
	ldr	r1, [sp, #36]
	.loc	2 118 12                        @ packages/paho_mqtt/MQTTPacket/src/MQTTSubscribeClient.c:118:12
	strh	r0, [r1]
	.loc	2 120 3 is_stmt 1               @ packages/paho_mqtt/MQTTPacket/src/MQTTSubscribeClient.c:120:3
	ldr	r1, [sp, #28]
	movs	r0, #0
	.loc	2 120 9 is_stmt 0               @ packages/paho_mqtt/MQTTPacket/src/MQTTSubscribeClient.c:120:9
	str	r0, [r1]
	.loc	2 121 2 is_stmt 1               @ packages/paho_mqtt/MQTTPacket/src/MQTTSubscribeClient.c:121:2
	b	.LBB2_5
.LBB2_5:                                @ =>This Inner Loop Header: Depth=1
	.loc	2 121 9 is_stmt 0               @ packages/paho_mqtt/MQTTPacket/src/MQTTSubscribeClient.c:121:9
	ldr	r0, [sp, #16]
	.loc	2 121 19                        @ packages/paho_mqtt/MQTTPacket/src/MQTTSubscribeClient.c:121:19
	ldr	r1, [sp, #12]
	.loc	2 121 2                         @ packages/paho_mqtt/MQTTPacket/src/MQTTSubscribeClient.c:121:2
	cmp	r0, r1
	bhs	.LBB2_9
	b	.LBB2_6
.LBB2_6:                                @   in Loop: Header=BB2_5 Depth=1
.Ltmp29:
	.loc	2 123 8 is_stmt 1               @ packages/paho_mqtt/MQTTPacket/src/MQTTSubscribeClient.c:123:8
	ldr	r0, [sp, #28]
	.loc	2 123 7 is_stmt 0               @ packages/paho_mqtt/MQTTPacket/src/MQTTSubscribeClient.c:123:7
	ldr	r0, [r0]
	.loc	2 123 16                        @ packages/paho_mqtt/MQTTPacket/src/MQTTSubscribeClient.c:123:16
	ldr	r1, [sp, #32]
.Ltmp30:
	.loc	2 123 7                         @ packages/paho_mqtt/MQTTPacket/src/MQTTSubscribeClient.c:123:7
	cmp	r0, r1
	ble	.LBB2_8
	b	.LBB2_7
.LBB2_7:
	.loc	2 0 7                           @ packages/paho_mqtt/MQTTPacket/src/MQTTSubscribeClient.c:0:7
	mov.w	r0, #-1
.Ltmp31:
	.loc	2 125 7 is_stmt 1               @ packages/paho_mqtt/MQTTPacket/src/MQTTSubscribeClient.c:125:7
	str	r0, [sp, #8]
	.loc	2 126 4                         @ packages/paho_mqtt/MQTTPacket/src/MQTTSubscribeClient.c:126:4
	b	.LBB2_10
.Ltmp32:
.LBB2_8:                                @   in Loop: Header=BB2_5 Depth=1
	.loc	2 0 4 is_stmt 0                 @ packages/paho_mqtt/MQTTPacket/src/MQTTSubscribeClient.c:0:4
	add	r0, sp, #16
	.loc	2 128 29 is_stmt 1              @ packages/paho_mqtt/MQTTPacket/src/MQTTSubscribeClient.c:128:29
	bl	readChar
	.loc	2 128 3 is_stmt 0               @ packages/paho_mqtt/MQTTPacket/src/MQTTSubscribeClient.c:128:3
	ldr	r1, [sp, #24]
	.loc	2 128 17                        @ packages/paho_mqtt/MQTTPacket/src/MQTTSubscribeClient.c:128:17
	ldr.w	r12, [sp, #28]
	.loc	2 128 23                        @ packages/paho_mqtt/MQTTPacket/src/MQTTSubscribeClient.c:128:23
	ldr.w	r2, [r12]
	adds	r3, r2, #1
	str.w	r3, [r12]
	.loc	2 128 27                        @ packages/paho_mqtt/MQTTPacket/src/MQTTSubscribeClient.c:128:27
	str.w	r0, [r1, r2, lsl #2]
.Ltmp33:
	.loc	2 121 2 is_stmt 1               @ packages/paho_mqtt/MQTTPacket/src/MQTTSubscribeClient.c:121:2
	b	.LBB2_5
.LBB2_9:
	.loc	2 0 2 is_stmt 0                 @ packages/paho_mqtt/MQTTPacket/src/MQTTSubscribeClient.c:0:2
	movs	r0, #1
	.loc	2 131 5 is_stmt 1               @ packages/paho_mqtt/MQTTPacket/src/MQTTSubscribeClient.c:131:5
	str	r0, [sp, #8]
	.loc	2 131 2 is_stmt 0               @ packages/paho_mqtt/MQTTPacket/src/MQTTSubscribeClient.c:131:2
	b	.LBB2_10
.LBB2_10:
.Ltmp34:
	@DEBUG_LABEL: MQTTDeserialize_suback:exit
	.loc	2 134 9 is_stmt 1               @ packages/paho_mqtt/MQTTPacket/src/MQTTSubscribeClient.c:134:9
	ldr	r0, [sp, #8]
	.loc	2 134 2 is_stmt 0               @ packages/paho_mqtt/MQTTPacket/src/MQTTSubscribeClient.c:134:2
	add	sp, #40
	pop	{r7, pc}
.Ltmp35:
.Lfunc_end2:
	.size	MQTTDeserialize_suback, .Lfunc_end2-MQTTDeserialize_suback
	.cfi_endproc
	.cantunwind
	.fnend
                                        @ -- End function
	.type	.L__const.MQTTSerialize_subscribe.header,%object @ @__const.MQTTSerialize_subscribe.header
	.section	.rodata.cst4,"aM",%progbits,4
	.p2align	2
.L__const.MQTTSerialize_subscribe.header:
	.byte	0                               @ 0x0
	.zero	3
	.size	.L__const.MQTTSerialize_subscribe.header, 4

	.type	.L__const.MQTTDeserialize_suback.header,%object @ @__const.MQTTDeserialize_suback.header
	.p2align	2
.L__const.MQTTDeserialize_suback.header:
	.byte	0                               @ 0x0
	.zero	3
	.size	.L__const.MQTTDeserialize_suback.header, 4

	.section	".note.GNU-stack","",%progbits
	.eabi_attribute	30, 6	@ Tag_ABI_optimization_goals
	.ARM_attribute	16, 1	@ Tag_AV_eba