	.text
	.syntax unified
	.eabi_attribute	67, "2.09"	@ Tag_conformance
	.cpu	cortex-m7
	.eabi_attribute	6, 13	@ Tag_CPU_arch
	.eabi_attribute	7, 77	@ Tag_CPU_arch_profile
	.eabi_attribute	8, 0	@ Tag_ARM_ISA_use
	.eabi_attribute	9, 2	@ Tag_THUMB_ISA_use
	.fpu	fpv5-d16
	.eabi_attribute	36, 1	@ Tag_FP_HP_extension
	.eabi_attribute	34, 1	@ Tag_CPU_unaligned_access
	.eabi_attribute	17, 1	@ Tag_ABI_PCS_GOT_use
	.eabi_attribute	20, 2	@ Tag_ABI_FP_denormal
	.eabi_attribute	21, 0	@ Tag_ABI_FP_exceptions
	.eabi_attribute	23, 1	@ Tag_ABI_FP_number_model
	.eabi_attribute	24, 1	@ Tag_ABI_align_needed
	.eabi_attribute	25, 1	@ Tag_ABI_align_preserved
	.eabi_attribute	28, 1	@ Tag_ABI_VFP_args
	.eabi_attribute	38, 1	@ Tag_ABI_FP_16bit_format
	.eabi_attribute	18, 2	@ Tag_ABI_PCS_wchar_t
	.eabi_attribute	26, 1	@ Tag_ABI_enum_size
	.eabi_attribute	14, 0	@ Tag_ABI_PCS_R9_use
	.file	"mqtt.c"
	.file	1 "E:\\STM32\\Learning\\STM32H750_ART_PI_RGBLCD" "./rt-thread/components/net/lwip-2.0.2/src/include\\lwip/tcp.h"
	.file	2 "E:\\STM32\\Learning\\STM32H750_ART_PI_RGBLCD" "./rt-thread/components/net/lwip-2.0.2/src/include\\lwip/apps/mqtt.h"
	.file	3 "E:\\STM32\\Learning\\STM32H750_ART_PI_RGBLCD" "rt-thread/components/net/lwip-2.0.2/src/apps/mqtt/mqtt.c"
	.file	4 "E:\\STM32\\Learning\\STM32H750_ART_PI_RGBLCD" "./rt-thread/components/net/lwip-2.0.2/src/include\\lwip/err.h"
	.file	5 "D:\\Keil_v5\\ARM\\ARMCLANG\\Bin\\..\\include" "stdint.h"
	.file	6 "E:\\STM32\\Learning\\STM32H750_ART_PI_RGBLCD" "./rt-thread/components/net/lwip-2.0.2/src/include\\lwip/arch.h"
	.file	7 "E:\\STM32\\Learning\\STM32H750_ART_PI_RGBLCD" "./rt-thread/components/net/lwip-2.0.2/src/include\\lwip/ip4_addr.h"
	.file	8 "E:\\STM32\\Learning\\STM32H750_ART_PI_RGBLCD" "./rt-thread/components/net/lwip-2.0.2/src/include\\lwip/ip_addr.h"
	.file	9 "E:\\STM32\\Learning\\STM32H750_ART_PI_RGBLCD" "./rt-thread/components/net/lwip-2.0.2/src/include\\lwip/pbuf.h"
	.section	.text.mqtt_publish,"ax",%progbits
	.hidden	mqtt_publish                    @ -- Begin function mqtt_publish
	.globl	mqtt_publish
	.p2align	3
	.type	mqtt_publish,%function
	.code	16                              @ @mqtt_publish
	.thumb_func
mqtt_publish:
.Lfunc_begin0:
	.loc	3 1026 0                        @ rt-thread/components/net/lwip-2.0.2/src/apps/mqtt/mqtt.c:1026:0
	.fnstart
	.cfi_sections .debug_frame
	.cfi_startproc
@ %bb.0:
	.save	{r4, lr}
	push	{r4, lr}
	.cfi_def_cfa_offset 8
	.cfi_offset lr, -4
	.cfi_offset r4, -8
	.pad	#48
	sub	sp, #48
	.cfi_def_cfa_offset 56
	mov	r12, r1
	mov	lr, r0
	ldr	r0, [sp, #68]
	ldr	r0, [sp, #64]
	ldr	r0, [sp, #60]
	ldr	r1, [sp, #56]
                                        @ kill: def $r4 killed $r3
	str.w	lr, [sp, #40]
	str.w	r12, [sp, #36]
	str	r2, [sp, #32]
	strh.w	r3, [sp, #30]
	strb.w	r1, [sp, #29]
	strb.w	r0, [sp, #28]
.Ltmp0:
	.loc	3 1034 3 prologue_end           @ rt-thread/components/net/lwip-2.0.2/src/apps/mqtt/mqtt.c:1034:3
	b	.LBB0_1
.LBB0_1:
.Ltmp1:
	.loc	3 1034 3 is_stmt 0              @ rt-thread/components/net/lwip-2.0.2/src/apps/mqtt/mqtt.c:1034:3
	ldr	r0, [sp, #40]
.Ltmp2:
	.loc	3 1034 3                        @ rt-thread/components/net/lwip-2.0.2/src/apps/mqtt/mqtt.c:1034:3
	cbnz	r0, .LBB0_5
	b	.LBB0_2
.LBB0_2:
.Ltmp3:
	.loc	3 1034 3                        @ rt-thread/components/net/lwip-2.0.2/src/apps/mqtt/mqtt.c:1034:3
	b	.LBB0_3
.LBB0_3:
.Ltmp4:
	.loc	3 1034 3                        @ rt-thread/components/net/lwip-2.0.2/src/apps/mqtt/mqtt.c:1034:3
	movw	r0, :lower16:.L.str
	movt	r0, :upper16:.L.str
	bl	rt_kprintf
	movw	r0, :lower16:.L.str.1
	movt	r0, :upper16:.L.str.1
	movw	r1, #1034
	bl	sys_arch_assert
	b	.LBB0_4
.Ltmp5:
.LBB0_4:
	.loc	3 1034 3                        @ rt-thread/components/net/lwip-2.0.2/src/apps/mqtt/mqtt.c:1034:3
	b	.LBB0_5
.Ltmp6:
.LBB0_5:
	.loc	3 1034 3                        @ rt-thread/components/net/lwip-2.0.2/src/apps/mqtt/mqtt.c:1034:3
	b	.LBB0_6
.Ltmp7:
.LBB0_6:
	.loc	3 1035 3 is_stmt 1              @ rt-thread/components/net/lwip-2.0.2/src/apps/mqtt/mqtt.c:1035:3
	b	.LBB0_7
.LBB0_7:
.Ltmp8:
	.loc	3 1035 3 is_stmt 0              @ rt-thread/components/net/lwip-2.0.2/src/apps/mqtt/mqtt.c:1035:3
	ldr	r0, [sp, #36]
.Ltmp9:
	.loc	3 1035 3                        @ rt-thread/components/net/lwip-2.0.2/src/apps/mqtt/mqtt.c:1035:3
	cbnz	r0, .LBB0_11
	b	.LBB0_8
.LBB0_8:
.Ltmp10:
	.loc	3 1035 3                        @ rt-thread/components/net/lwip-2.0.2/src/apps/mqtt/mqtt.c:1035:3
	b	.LBB0_9
.LBB0_9:
.Ltmp11:
	.loc	3 1035 3                        @ rt-thread/components/net/lwip-2.0.2/src/apps/mqtt/mqtt.c:1035:3
	movw	r0, :lower16:.L.str.2
	movt	r0, :upper16:.L.str.2
	bl	rt_kprintf
	movw	r0, :lower16:.L.str.1
	movt	r0, :upper16:.L.str.1
	movw	r1, #1035
	bl	sys_arch_assert
	b	.LBB0_10
.Ltmp12:
.LBB0_10:
	.loc	3 1035 3                        @ rt-thread/components/net/lwip-2.0.2/src/apps/mqtt/mqtt.c:1035:3
	b	.LBB0_11
.Ltmp13:
.LBB0_11:
	.loc	3 1035 3                        @ rt-thread/components/net/lwip-2.0.2/src/apps/mqtt/mqtt.c:1035:3
	b	.LBB0_12
.Ltmp14:
.LBB0_12:
	.loc	3 1036 3 is_stmt 1              @ rt-thread/components/net/lwip-2.0.2/src/apps/mqtt/mqtt.c:1036:3
	b	.LBB0_13
.LBB0_13:
.Ltmp15:
	.loc	3 1036 3 is_stmt 0              @ rt-thread/components/net/lwip-2.0.2/src/apps/mqtt/mqtt.c:1036:3
	ldr	r0, [sp, #40]
	ldrb	r0, [r0, #10]
.Ltmp16:
	.loc	3 1036 3                        @ rt-thread/components/net/lwip-2.0.2/src/apps/mqtt/mqtt.c:1036:3
	cbnz	r0, .LBB0_17
	b	.LBB0_14
.LBB0_14:
.Ltmp17:
	.loc	3 1036 3                        @ rt-thread/components/net/lwip-2.0.2/src/apps/mqtt/mqtt.c:1036:3
	b	.LBB0_15
.LBB0_15:
.Ltmp18:
	.loc	3 1036 3                        @ rt-thread/components/net/lwip-2.0.2/src/apps/mqtt/mqtt.c:1036:3
	movw	r0, :lower16:.L.str.3
	movt	r0, :upper16:.L.str.3
	bl	rt_kprintf
	movw	r0, :lower16:.L.str.1
	movt	r0, :upper16:.L.str.1
	movw	r1, #1036
	bl	sys_arch_assert
	b	.LBB0_16
.Ltmp19:
.LBB0_16:
	.loc	3 0 3                           @ rt-thread/components/net/lwip-2.0.2/src/apps/mqtt/mqtt.c:0:3
	movs	r0, #245
	.loc	3 1036 3                        @ rt-thread/components/net/lwip-2.0.2/src/apps/mqtt/mqtt.c:1036:3
	strb.w	r0, [sp, #47]
	b	.LBB0_43
.Ltmp20:
.LBB0_17:
	.loc	3 1036 3                        @ rt-thread/components/net/lwip-2.0.2/src/apps/mqtt/mqtt.c:1036:3
	b	.LBB0_18
.Ltmp21:
.LBB0_18:
	.loc	3 1038 25 is_stmt 1             @ rt-thread/components/net/lwip-2.0.2/src/apps/mqtt/mqtt.c:1038:25
	ldr	r0, [sp, #36]
	.loc	3 1038 18 is_stmt 0             @ rt-thread/components/net/lwip-2.0.2/src/apps/mqtt/mqtt.c:1038:18
	bl	strlen
	.loc	3 1038 16                       @ rt-thread/components/net/lwip-2.0.2/src/apps/mqtt/mqtt.c:1038:16
	str	r0, [sp, #16]
	.loc	3 1039 3 is_stmt 1              @ rt-thread/components/net/lwip-2.0.2/src/apps/mqtt/mqtt.c:1039:3
	b	.LBB0_19
.LBB0_19:
.Ltmp22:
	.loc	3 1039 3 is_stmt 0              @ rt-thread/components/net/lwip-2.0.2/src/apps/mqtt/mqtt.c:1039:3
	ldr	r0, [sp, #16]
	movw	r1, #65534
.Ltmp23:
	.loc	3 1039 3                        @ rt-thread/components/net/lwip-2.0.2/src/apps/mqtt/mqtt.c:1039:3
	cmp	r0, r1
	blo	.LBB0_23
	b	.LBB0_20
.LBB0_20:
.Ltmp24:
	.loc	3 1039 3                        @ rt-thread/components/net/lwip-2.0.2/src/apps/mqtt/mqtt.c:1039:3
	b	.LBB0_21
.LBB0_21:
.Ltmp25:
	.loc	3 1039 3                        @ rt-thread/components/net/lwip-2.0.2/src/apps/mqtt/mqtt.c:1039:3
	movw	r0, :lower16:.L.str.4
	movt	r0, :upper16:.L.str.4
	bl	rt_kprintf
	movw	r0, :lower16:.L.str.1
	movt	r0, :upper16:.L.str.1
	movw	r1, #1039
	bl	sys_arch_assert
	b	.LBB0_22
.Ltmp26:
.LBB0_22:
	.loc	3 0 3                           @ rt-thread/components/net/lwip-2.0.2/src/apps/mqtt/mqtt.c:0:3
	movs	r0, #240
	.loc	3 1039 3                        @ rt-thread/components/net/lwip-2.0.2/src/apps/mqtt/mqtt.c:1039:3
	strb.w	r0, [sp, #47]
	b	.LBB0_43
.Ltmp27:
.LBB0_23:
	.loc	3 1039 3                        @ rt-thread/components/net/lwip-2.0.2/src/apps/mqtt/mqtt.c:1039:3
	b	.LBB0_24
.Ltmp28:
.LBB0_24:
	.loc	3 1040 22 is_stmt 1             @ rt-thread/components/net/lwip-2.0.2/src/apps/mqtt/mqtt.c:1040:22
	ldr	r0, [sp, #16]
	.loc	3 1040 13 is_stmt 0             @ rt-thread/components/net/lwip-2.0.2/src/apps/mqtt/mqtt.c:1040:13
	strh.w	r0, [sp, #10]
	.loc	3 1041 19 is_stmt 1             @ rt-thread/components/net/lwip-2.0.2/src/apps/mqtt/mqtt.c:1041:19
	ldrh.w	r0, [sp, #10]
	.loc	3 1041 31 is_stmt 0             @ rt-thread/components/net/lwip-2.0.2/src/apps/mqtt/mqtt.c:1041:31
	ldrh.w	r1, [sp, #30]
	.loc	3 1041 17                       @ rt-thread/components/net/lwip-2.0.2/src/apps/mqtt/mqtt.c:1041:17
	add	r0, r1
	.loc	3 1041 29                       @ rt-thread/components/net/lwip-2.0.2/src/apps/mqtt/mqtt.c:1041:29
	adds	r0, #2
	.loc	3 1041 13                       @ rt-thread/components/net/lwip-2.0.2/src/apps/mqtt/mqtt.c:1041:13
	str	r0, [sp, #12]
	.loc	3 1042 3 is_stmt 1              @ rt-thread/components/net/lwip-2.0.2/src/apps/mqtt/mqtt.c:1042:3
	b	.LBB0_25
.LBB0_25:
.Ltmp29:
	.loc	3 1042 3 is_stmt 0              @ rt-thread/components/net/lwip-2.0.2/src/apps/mqtt/mqtt.c:1042:3
	ldr	r0, [sp, #12]
.Ltmp30:
	.loc	3 1042 3                        @ rt-thread/components/net/lwip-2.0.2/src/apps/mqtt/mqtt.c:1042:3
	cmp.w	r0, #65536
	blo	.LBB0_29
	b	.LBB0_26
.LBB0_26:
.Ltmp31:
	.loc	3 1042 3                        @ rt-thread/components/net/lwip-2.0.2/src/apps/mqtt/mqtt.c:1042:3
	b	.LBB0_27
.LBB0_27:
.Ltmp32:
	.loc	3 1042 3                        @ rt-thread/components/net/lwip-2.0.2/src/apps/mqtt/mqtt.c:1042:3
	movw	r0, :lower16:.L.str.5
	movt	r0, :upper16:.L.str.5
	bl	rt_kprintf
	movw	r0, :lower16:.L.str.1
	movt	r0, :upper16:.L.str.1
	movw	r1, #1042
	bl	sys_arch_assert
	b	.LBB0_28
.Ltmp33:
.LBB0_28:
	.loc	3 0 3                           @ rt-thread/components/net/lwip-2.0.2/src/apps/mqtt/mqtt.c:0:3
	movs	r0, #240
	.loc	3 1042 3                        @ rt-thread/components/net/lwip-2.0.2/src/apps/mqtt/mqtt.c:1042:3
	strb.w	r0, [sp, #47]
	b	.LBB0_43
.Ltmp34:
.LBB0_29:
	.loc	3 1042 3                        @ rt-thread/components/net/lwip-2.0.2/src/apps/mqtt/mqtt.c:1042:3
	b	.LBB0_30
.Ltmp35:
.LBB0_30:
	.loc	3 1043 29 is_stmt 1             @ rt-thread/components/net/lwip-2.0.2/src/apps/mqtt/mqtt.c:1043:29
	ldr	r0, [sp, #12]
	.loc	3 1043 20 is_stmt 0             @ rt-thread/components/net/lwip-2.0.2/src/apps/mqtt/mqtt.c:1043:20
	strh.w	r0, [sp, #8]
.Ltmp36:
	.loc	3 1047 7 is_stmt 1              @ rt-thread/components/net/lwip-2.0.2/src/apps/mqtt/mqtt.c:1047:7
	ldrb.w	r0, [sp, #29]
.Ltmp37:
	.loc	3 1047 7 is_stmt 0              @ rt-thread/components/net/lwip-2.0.2/src/apps/mqtt/mqtt.c:1047:7
	cmp	r0, #1
	blt	.LBB0_32
	b	.LBB0_31
.LBB0_31:
.Ltmp38:
	.loc	3 1048 22 is_stmt 1             @ rt-thread/components/net/lwip-2.0.2/src/apps/mqtt/mqtt.c:1048:22
	ldrh.w	r0, [sp, #8]
	adds	r0, #2
	strh.w	r0, [sp, #8]
	.loc	3 1050 37                       @ rt-thread/components/net/lwip-2.0.2/src/apps/mqtt/mqtt.c:1050:37
	ldr	r0, [sp, #40]
	.loc	3 1050 14 is_stmt 0             @ rt-thread/components/net/lwip-2.0.2/src/apps/mqtt/mqtt.c:1050:14
	bl	msg_generate_packet_id
	.loc	3 1050 12                       @ rt-thread/components/net/lwip-2.0.2/src/apps/mqtt/mqtt.c:1050:12
	strh.w	r0, [sp, #22]
	.loc	3 1051 3 is_stmt 1              @ rt-thread/components/net/lwip-2.0.2/src/apps/mqtt/mqtt.c:1051:3
	b	.LBB0_33
.Ltmp39:
.LBB0_32:
	.loc	3 0 3 is_stmt 0                 @ rt-thread/components/net/lwip-2.0.2/src/apps/mqtt/mqtt.c:0:3
	movs	r0, #0
.Ltmp40:
	.loc	3 1053 12 is_stmt 1             @ rt-thread/components/net/lwip-2.0.2/src/apps/mqtt/mqtt.c:1053:12
	strh.w	r0, [sp, #22]
	b	.LBB0_33
.Ltmp41:
.LBB0_33:
	.loc	3 1056 27                       @ rt-thread/components/net/lwip-2.0.2/src/apps/mqtt/mqtt.c:1056:27
	ldr	r0, [sp, #40]
	.loc	3 1056 35 is_stmt 0             @ rt-thread/components/net/lwip-2.0.2/src/apps/mqtt/mqtt.c:1056:35
	adds	r0, #28
	.loc	3 1056 45                       @ rt-thread/components/net/lwip-2.0.2/src/apps/mqtt/mqtt.c:1056:45
	ldrh.w	r1, [sp, #22]
	.loc	3 1056 53                       @ rt-thread/components/net/lwip-2.0.2/src/apps/mqtt/mqtt.c:1056:53
	ldr	r2, [sp, #64]
	.loc	3 1056 57                       @ rt-thread/components/net/lwip-2.0.2/src/apps/mqtt/mqtt.c:1056:57
	ldr	r3, [sp, #68]
	.loc	3 1056 7                        @ rt-thread/components/net/lwip-2.0.2/src/apps/mqtt/mqtt.c:1056:7
	bl	mqtt_create_request
	.loc	3 1056 5                        @ rt-thread/components/net/lwip-2.0.2/src/apps/mqtt/mqtt.c:1056:5
	str	r0, [sp, #24]
.Ltmp42:
	.loc	3 1057 7 is_stmt 1              @ rt-thread/components/net/lwip-2.0.2/src/apps/mqtt/mqtt.c:1057:7
	ldr	r0, [sp, #24]
.Ltmp43:
	.loc	3 1057 7 is_stmt 0              @ rt-thread/components/net/lwip-2.0.2/src/apps/mqtt/mqtt.c:1057:7
	cbnz	r0, .LBB0_35
	b	.LBB0_34
.LBB0_34:
	.loc	3 0 7                           @ rt-thread/components/net/lwip-2.0.2/src/apps/mqtt/mqtt.c:0:7
	movs	r0, #255
.Ltmp44:
	.loc	3 1058 5 is_stmt 1              @ rt-thread/components/net/lwip-2.0.2/src/apps/mqtt/mqtt.c:1058:5
	strb.w	r0, [sp, #47]
	b	.LBB0_43
.Ltmp45:
.LBB0_35:
	.loc	3 1061 32                       @ rt-thread/components/net/lwip-2.0.2/src/apps/mqtt/mqtt.c:1061:32
	ldr	r0, [sp, #40]
	.loc	3 1061 40 is_stmt 0             @ rt-thread/components/net/lwip-2.0.2/src/apps/mqtt/mqtt.c:1061:40
	adds	r0, #236
	.loc	3 1061 48                       @ rt-thread/components/net/lwip-2.0.2/src/apps/mqtt/mqtt.c:1061:48
	ldrh.w	r1, [sp, #8]
	.loc	3 1061 7                        @ rt-thread/components/net/lwip-2.0.2/src/apps/mqtt/mqtt.c:1061:7
	bl	mqtt_output_check_space
.Ltmp46:
	.loc	3 1061 7                        @ rt-thread/components/net/lwip-2.0.2/src/apps/mqtt/mqtt.c:1061:7
	cbnz	r0, .LBB0_37
	b	.LBB0_36
.LBB0_36:
.Ltmp47:
	.loc	3 1062 25 is_stmt 1             @ rt-thread/components/net/lwip-2.0.2/src/apps/mqtt/mqtt.c:1062:25
	ldr	r0, [sp, #24]
	.loc	3 1062 5 is_stmt 0              @ rt-thread/components/net/lwip-2.0.2/src/apps/mqtt/mqtt.c:1062:5
	bl	mqtt_delete_request
	movs	r0, #255
	.loc	3 1063 5 is_stmt 1              @ rt-thread/components/net/lwip-2.0.2/src/apps/mqtt/mqtt.c:1063:5
	strb.w	r0, [sp, #47]
	b	.LBB0_43
.Ltmp48:
.LBB0_37:
	.loc	3 1066 36                       @ rt-thread/components/net/lwip-2.0.2/src/apps/mqtt/mqtt.c:1066:36
	ldr	r0, [sp, #40]
	.loc	3 1066 44 is_stmt 0             @ rt-thread/components/net/lwip-2.0.2/src/apps/mqtt/mqtt.c:1066:44
	adds	r0, #236
	.loc	3 1066 78                       @ rt-thread/components/net/lwip-2.0.2/src/apps/mqtt/mqtt.c:1066:78
	ldrb.w	r3, [sp, #29]
	.loc	3 1066 83                       @ rt-thread/components/net/lwip-2.0.2/src/apps/mqtt/mqtt.c:1066:83
	ldrb.w	r1, [sp, #28]
	.loc	3 1066 91                       @ rt-thread/components/net/lwip-2.0.2/src/apps/mqtt/mqtt.c:1066:91
	ldrh.w	r12, [sp, #8]
	.loc	3 1066 3                        @ rt-thread/components/net/lwip-2.0.2/src/apps/mqtt/mqtt.c:1066:3
	mov	r2, sp
	str.w	r12, [r2, #4]
	str	r1, [r2]
	movs	r1, #3
	movs	r2, #0
	bl	mqtt_output_append_fixed_header
	.loc	3 1069 30 is_stmt 1             @ rt-thread/components/net/lwip-2.0.2/src/apps/mqtt/mqtt.c:1069:30
	ldr	r0, [sp, #40]
	.loc	3 1069 38 is_stmt 0             @ rt-thread/components/net/lwip-2.0.2/src/apps/mqtt/mqtt.c:1069:38
	adds	r0, #236
	.loc	3 1069 46                       @ rt-thread/components/net/lwip-2.0.2/src/apps/mqtt/mqtt.c:1069:46
	ldr	r1, [sp, #36]
	.loc	3 1069 53                       @ rt-thread/components/net/lwip-2.0.2/src/apps/mqtt/mqtt.c:1069:53
	ldrh.w	r2, [sp, #10]
	.loc	3 1069 3                        @ rt-thread/components/net/lwip-2.0.2/src/apps/mqtt/mqtt.c:1069:3
	bl	mqtt_output_append_string
.Ltmp49:
	.loc	3 1072 7 is_stmt 1              @ rt-thread/components/net/lwip-2.0.2/src/apps/mqtt/mqtt.c:1072:7
	ldrb.w	r0, [sp, #29]
.Ltmp50:
	.loc	3 1072 7 is_stmt 0              @ rt-thread/components/net/lwip-2.0.2/src/apps/mqtt/mqtt.c:1072:7
	cmp	r0, #1
	blt	.LBB0_39
	b	.LBB0_38
.LBB0_38:
.Ltmp51:
	.loc	3 1073 29 is_stmt 1             @ rt-thread/components/net/lwip-2.0.2/src/apps/mqtt/mqtt.c:1073:29
	ldr	r0, [sp, #40]
	.loc	3 1073 37 is_stmt 0             @ rt-thread/components/net/lwip-2.0.2/src/apps/mqtt/mqtt.c:1073:37
	adds	r0, #236
	.loc	3 1073 45                       @ rt-thread/components/net/lwip-2.0.2/src/apps/mqtt/mqtt.c:1073:45
	ldrh.w	r1, [sp, #22]
	.loc	3 1073 5                        @ rt-thread/components/net/lwip-2.0.2/src/apps/mqtt/mqtt.c:1073:5
	bl	mqtt_output_append_u16
	.loc	3 1074 3 is_stmt 1              @ rt-thread/components/net/lwip-2.0.2/src/apps/mqtt/mqtt.c:1074:3
	b	.LBB0_39
.Ltmp52:
.LBB0_39:
	.loc	3 1077 8                        @ rt-thread/components/net/lwip-2.0.2/src/apps/mqtt/mqtt.c:1077:8
	ldr	r0, [sp, #32]
	.loc	3 1077 25 is_stmt 0             @ rt-thread/components/net/lwip-2.0.2/src/apps/mqtt/mqtt.c:1077:25
	cbz	r0, .LBB0_42
	b	.LBB0_40
.LBB0_40:
	.loc	3 1077 29                       @ rt-thread/components/net/lwip-2.0.2/src/apps/mqtt/mqtt.c:1077:29
	ldrh.w	r0, [sp, #30]
.Ltmp53:
	.loc	3 1077 7                        @ rt-thread/components/net/lwip-2.0.2/src/apps/mqtt/mqtt.c:1077:7
	cmp	r0, #1
	blt	.LBB0_42
	b	.LBB0_41
.LBB0_41:
.Ltmp54:
	.loc	3 1078 29 is_stmt 1             @ rt-thread/components/net/lwip-2.0.2/src/apps/mqtt/mqtt.c:1078:29
	ldr	r0, [sp, #40]
	.loc	3 1078 37 is_stmt 0             @ rt-thread/components/net/lwip-2.0.2/src/apps/mqtt/mqtt.c:1078:37
	adds	r0, #236
	.loc	3 1078 45                       @ rt-thread/components/net/lwip-2.0.2/src/apps/mqtt/mqtt.c:1078:45
	ldr	r1, [sp, #32]
	.loc	3 1078 54                       @ rt-thread/components/net/lwip-2.0.2/src/apps/mqtt/mqtt.c:1078:54
	ldrh.w	r2, [sp, #30]
	.loc	3 1078 5                        @ rt-thread/components/net/lwip-2.0.2/src/apps/mqtt/mqtt.c:1078:5
	bl	mqtt_output_append_buf
	.loc	3 1079 3 is_stmt 1              @ rt-thread/components/net/lwip-2.0.2/src/apps/mqtt/mqtt.c:1079:3
	b	.LBB0_42
.Ltmp55:
.LBB0_42:
	.loc	3 1081 24                       @ rt-thread/components/net/lwip-2.0.2/src/apps/mqtt/mqtt.c:1081:24
	ldr	r0, [sp, #40]
	.loc	3 1081 32 is_stmt 0             @ rt-thread/components/net/lwip-2.0.2/src/apps/mqtt/mqtt.c:1081:32
	adds	r0, #24
	.loc	3 1081 48                       @ rt-thread/components/net/lwip-2.0.2/src/apps/mqtt/mqtt.c:1081:48
	ldr	r1, [sp, #24]
	.loc	3 1081 3                        @ rt-thread/components/net/lwip-2.0.2/src/apps/mqtt/mqtt.c:1081:3
	bl	mqtt_append_request
	.loc	3 1082 21 is_stmt 1             @ rt-thread/components/net/lwip-2.0.2/src/apps/mqtt/mqtt.c:1082:21
	ldr	r1, [sp, #40]
	.loc	3 1082 29 is_stmt 0             @ rt-thread/components/net/lwip-2.0.2/src/apps/mqtt/mqtt.c:1082:29
	add.w	r0, r1, #236
	.loc	3 1082 45                       @ rt-thread/components/net/lwip-2.0.2/src/apps/mqtt/mqtt.c:1082:45
	ldr	r1, [r1, #12]
	.loc	3 1082 3                        @ rt-thread/components/net/lwip-2.0.2/src/apps/mqtt/mqtt.c:1082:3
	bl	mqtt_output_send
	movs	r0, #0
	.loc	3 1083 3 is_stmt 1              @ rt-thread/components/net/lwip-2.0.2/src/apps/mqtt/mqtt.c:1083:3
	strb.w	r0, [sp, #47]
	b	.LBB0_43
.LBB0_43:
	.loc	3 1084 1                        @ rt-thread/components/net/lwip-2.0.2/src/apps/mqtt/mqtt.c:1084:1
	ldrsb.w	r0, [sp, #47]
	add	sp, #48
	pop	{r4, pc}
.Ltmp56:
.Lfunc_end0:
	.size	mqtt_publish, .Lfunc_end0-mqtt_publish
	.cfi_endproc
	.cantunwind
	.fnend
                                        @ -- End function
	.section	.text.msg_generate_packet_id,"ax",%progbits
	.p2align	3                               @ -- Begin function msg_generate_packet_id
	.type	msg_generate_packet_id,%function
	.code	16                              @ @msg_generate_packet_id
	.thumb_func
msg_generate_packet_id:
.Lfunc_begin1:
	.loc	3 167 0                         @ rt-thread/components/net/lwip-2.0.2/src/apps/mqtt/mqtt.c:167:0
	.fnstart
	.cfi_startproc
@ %bb.0:
	.pad	#4
	sub	sp, #4
	.cfi_def_cfa_offset 4
	str	r0, [sp]
.Ltmp57:
	.loc	3 168 3 prologue_end            @ rt-thread/components/net/lwip-2.0.2/src/apps/mqtt/mqtt.c:168:3
	ldr	r1, [sp]
	.loc	3 168 21 is_stmt 0              @ rt-thread/components/net/lwip-2.0.2/src/apps/mqtt/mqtt.c:168:21
	ldrh	r0, [r1, #6]
	adds	r0, #1
	strh	r0, [r1, #6]
.Ltmp58:
	.loc	3 169 7 is_stmt 1               @ rt-thread/components/net/lwip-2.0.2/src/apps/mqtt/mqtt.c:169:7
	ldr	r0, [sp]
	.loc	3 169 15 is_stmt 0              @ rt-thread/components/net/lwip-2.0.2/src/apps/mqtt/mqtt.c:169:15
	ldrh	r0, [r0, #6]
.Ltmp59:
	.loc	3 169 7                         @ rt-thread/components/net/lwip-2.0.2/src/apps/mqtt/mqtt.c:169:7
	cbnz	r0, .LBB1_2
	b	.LBB1_1
.LBB1_1:
.Ltmp60:
	.loc	3 170 5 is_stmt 1               @ rt-thread/components/net/lwip-2.0.2/src/apps/mqtt/mqtt.c:170:5
	ldr	r1, [sp]
	.loc	3 170 23 is_stmt 0              @ rt-thread/components/net/lwip-2.0.2/src/apps/mqtt/mqtt.c:170:23
	ldrh	r0, [r1, #6]
	adds	r0, #1
	strh	r0, [r1, #6]
	.loc	3 171 3 is_stmt 1               @ rt-thread/components/net/lwip-2.0.2/src/apps/mqtt/mqtt.c:171:3
	b	.LBB1_2
.Ltmp61:
.LBB1_2:
	.loc	3 172 10                        @ rt-thread/components/net/lwip-2.0.2/src/apps/mqtt/mqtt.c:172:10
	ldr	r0, [sp]
	.loc	3 172 18 is_stmt 0              @ rt-thread/components/net/lwip-2.0.2/src/apps/mqtt/mqtt.c:172:18
	ldrh	r0, [r0, #6]
	.loc	3 172 3                         @ rt-thread/components/net/lwip-2.0.2/src/apps/mqtt/mqtt.c:172:3
	add	sp, #4
	bx	lr
.Ltmp62:
.Lfunc_end1:
	.size	msg_generate_packet_id, .Lfunc_end1-msg_generate_packet_id
	.cfi_endproc
	.cantunwind
	.fnend
                                        @ -- End function
	.section	.text.mqtt_create_request,"ax",%progbits
	.p2align	3                               @ -- Begin function mqtt_create_request
	.type	mqtt_create_request,%function
	.code	16                              @ @mqtt_create_request
	.thumb_func
mqtt_create_request:
.Lfunc_begin2:
	.loc	3 258 0 is_stmt 1               @ rt-thread/components/net/lwip-2.0.2/src/apps/mqtt/mqtt.c:258:0
	.fnstart
	.cfi_startproc
@ %bb.0:
	.save	{r7, lr}
	push	{r7, lr}
	.cfi_def_cfa_offset 8
	.cfi_offset lr, -4
	.cfi_offset r7, -8
	.pad	#24
	sub	sp, #24
	.cfi_def_cfa_offset 32
                                        @ kill: def $r12 killed $r1
	str	r0, [sp, #20]
	strh.w	r1, [sp, #18]
	str	r2, [sp, #12]
	str	r3, [sp, #8]
	movs	r0, #0
.Ltmp63:
	.loc	3 259 26 prologue_end           @ rt-thread/components/net/lwip-2.0.2/src/apps/mqtt/mqtt.c:259:26
	str	r0, [sp, #4]
	.loc	3 261 3                         @ rt-thread/components/net/lwip-2.0.2/src/apps/mqtt/mqtt.c:261:3
	b	.LBB2_1
.LBB2_1:
.Ltmp64:
	.loc	3 261 3 is_stmt 0               @ rt-thread/components/net/lwip-2.0.2/src/apps/mqtt/mqtt.c:261:3
	ldr	r0, [sp, #20]
.Ltmp65:
	.loc	3 261 3                         @ rt-thread/components/net/lwip-2.0.2/src/apps/mqtt/mqtt.c:261:3
	cbnz	r0, .LBB2_5
	b	.LBB2_2
.LBB2_2:
.Ltmp66:
	.loc	3 261 3                         @ rt-thread/components/net/lwip-2.0.2/src/apps/mqtt/mqtt.c:261:3
	b	.LBB2_3
.LBB2_3:
.Ltmp67:
	.loc	3 261 3                         @ rt-thread/components/net/lwip-2.0.2/src/apps/mqtt/mqtt.c:261:3
	movw	r0, :lower16:.L.str.24
	movt	r0, :upper16:.L.str.24
	bl	rt_kprintf
	movw	r0, :lower16:.L.str.1
	movt	r0, :upper16:.L.str.1
	movw	r1, #261
	bl	sys_arch_assert
	b	.LBB2_4
.Ltmp68:
.LBB2_4:
	.loc	3 261 3                         @ rt-thread/components/net/lwip-2.0.2/src/apps/mqtt/mqtt.c:261:3
	b	.LBB2_5
.Ltmp69:
.LBB2_5:
	.loc	3 261 3                         @ rt-thread/components/net/lwip-2.0.2/src/apps/mqtt/mqtt.c:261:3
	b	.LBB2_6
.Ltmp70:
.LBB2_6:
	.loc	3 0 3                           @ rt-thread/components/net/lwip-2.0.2/src/apps/mqtt/mqtt.c:0:3
	movs	r0, #0
.Ltmp71:
	.loc	3 262 10 is_stmt 1              @ rt-thread/components/net/lwip-2.0.2/src/apps/mqtt/mqtt.c:262:10
	strb.w	r0, [sp, #3]
	.loc	3 262 8 is_stmt 0               @ rt-thread/components/net/lwip-2.0.2/src/apps/mqtt/mqtt.c:262:8
	b	.LBB2_7
.LBB2_7:                                @ =>This Inner Loop Header: Depth=1
.Ltmp72:
	.loc	3 262 15                        @ rt-thread/components/net/lwip-2.0.2/src/apps/mqtt/mqtt.c:262:15
	ldrb.w	r0, [sp, #3]
.Ltmp73:
	.loc	3 262 3                         @ rt-thread/components/net/lwip-2.0.2/src/apps/mqtt/mqtt.c:262:3
	cmp	r0, #3
	bgt	.LBB2_12
	b	.LBB2_8
.LBB2_8:                                @   in Loop: Header=BB2_7 Depth=1
.Ltmp74:
	.loc	3 264 9 is_stmt 1               @ rt-thread/components/net/lwip-2.0.2/src/apps/mqtt/mqtt.c:264:9
	ldr	r0, [sp, #20]
	.loc	3 264 16 is_stmt 0              @ rt-thread/components/net/lwip-2.0.2/src/apps/mqtt/mqtt.c:264:16
	ldrb.w	r2, [sp, #3]
	.loc	3 264 9                         @ rt-thread/components/net/lwip-2.0.2/src/apps/mqtt/mqtt.c:264:9
	add.w	r1, r0, r2, lsl #4
	lsls	r2, r2, #4
	.loc	3 264 19                        @ rt-thread/components/net/lwip-2.0.2/src/apps/mqtt/mqtt.c:264:19
	ldr	r0, [r0, r2]
.Ltmp75:
	.loc	3 264 9                         @ rt-thread/components/net/lwip-2.0.2/src/apps/mqtt/mqtt.c:264:9
	cmp	r0, r1
	bne	.LBB2_10
	b	.LBB2_9
.LBB2_9:
.Ltmp76:
	.loc	3 265 12 is_stmt 1              @ rt-thread/components/net/lwip-2.0.2/src/apps/mqtt/mqtt.c:265:12
	ldr	r0, [sp, #20]
	.loc	3 265 19 is_stmt 0              @ rt-thread/components/net/lwip-2.0.2/src/apps/mqtt/mqtt.c:265:19
	ldrb.w	r1, [sp, #3]
	.loc	3 265 12                        @ rt-thread/components/net/lwip-2.0.2/src/apps/mqtt/mqtt.c:265:12
	add.w	r0, r0, r1, lsl #4
	.loc	3 265 9                         @ rt-thread/components/net/lwip-2.0.2/src/apps/mqtt/mqtt.c:265:9
	str	r0, [sp, #4]
	.loc	3 266 7 is_stmt 1               @ rt-thread/components/net/lwip-2.0.2/src/apps/mqtt/mqtt.c:266:7
	ldr	r1, [sp, #4]
	movs	r0, #0
	.loc	3 266 15 is_stmt 0              @ rt-thread/components/net/lwip-2.0.2/src/apps/mqtt/mqtt.c:266:15
	str	r0, [r1]
	.loc	3 267 15 is_stmt 1              @ rt-thread/components/net/lwip-2.0.2/src/apps/mqtt/mqtt.c:267:15
	ldr	r0, [sp, #12]
	.loc	3 267 7 is_stmt 0               @ rt-thread/components/net/lwip-2.0.2/src/apps/mqtt/mqtt.c:267:7
	ldr	r1, [sp, #4]
	.loc	3 267 13                        @ rt-thread/components/net/lwip-2.0.2/src/apps/mqtt/mqtt.c:267:13
	str	r0, [r1, #4]
	.loc	3 268 16 is_stmt 1              @ rt-thread/components/net/lwip-2.0.2/src/apps/mqtt/mqtt.c:268:16
	ldr	r0, [sp, #8]
	.loc	3 268 7 is_stmt 0               @ rt-thread/components/net/lwip-2.0.2/src/apps/mqtt/mqtt.c:268:7
	ldr	r1, [sp, #4]
	.loc	3 268 14                        @ rt-thread/components/net/lwip-2.0.2/src/apps/mqtt/mqtt.c:268:14
	str	r0, [r1, #8]
	.loc	3 269 19 is_stmt 1              @ rt-thread/components/net/lwip-2.0.2/src/apps/mqtt/mqtt.c:269:19
	ldrh.w	r0, [sp, #18]
	.loc	3 269 7 is_stmt 0               @ rt-thread/components/net/lwip-2.0.2/src/apps/mqtt/mqtt.c:269:7
	ldr	r1, [sp, #4]
	.loc	3 269 17                        @ rt-thread/components/net/lwip-2.0.2/src/apps/mqtt/mqtt.c:269:17
	strh	r0, [r1, #12]
	.loc	3 270 7 is_stmt 1               @ rt-thread/components/net/lwip-2.0.2/src/apps/mqtt/mqtt.c:270:7
	b	.LBB2_12
.Ltmp77:
.LBB2_10:                               @   in Loop: Header=BB2_7 Depth=1
	.loc	3 272 3                         @ rt-thread/components/net/lwip-2.0.2/src/apps/mqtt/mqtt.c:272:3
	b	.LBB2_11
.Ltmp78:
.LBB2_11:                               @   in Loop: Header=BB2_7 Depth=1
	.loc	3 262 44                        @ rt-thread/components/net/lwip-2.0.2/src/apps/mqtt/mqtt.c:262:44
	ldrb.w	r0, [sp, #3]
	adds	r0, #1
	strb.w	r0, [sp, #3]
	.loc	3 262 3 is_stmt 0               @ rt-thread/components/net/lwip-2.0.2/src/apps/mqtt/mqtt.c:262:3
	b	.LBB2_7
.Ltmp79:
.LBB2_12:
	.loc	3 273 10 is_stmt 1              @ rt-thread/components/net/lwip-2.0.2/src/apps/mqtt/mqtt.c:273:10
	ldr	r0, [sp, #4]
	.loc	3 273 3 is_stmt 0               @ rt-thread/components/net/lwip-2.0.2/src/apps/mqtt/mqtt.c:273:3
	add	sp, #24
	pop	{r7, pc}
.Ltmp80:
.Lfunc_end2:
	.size	mqtt_create_request, .Lfunc_end2-mqtt_create_request
	.cfi_endproc
	.cantunwind
	.fnend
                                        @ -- End function
	.section	.text.mqtt_output_check_space,"ax",%progbits
	.p2align	3                               @ -- Begin function mqtt_output_check_space
	.type	mqtt_output_check_space,%function
	.code	16                              @ @mqtt_output_check_space
	.thumb_func
mqtt_output_check_space:
.Lfunc_begin3:
	.loc	3 483 0 is_stmt 1               @ rt-thread/components/net/lwip-2.0.2/src/apps/mqtt/mqtt.c:483:0
	.fnstart
	.cfi_startproc
@ %bb.0:
	.save	{r7, lr}
	push	{r7, lr}
	.cfi_def_cfa_offset 8
	.cfi_offset lr, -4
	.cfi_offset r7, -8
	.pad	#8
	sub	sp, #8
	.cfi_def_cfa_offset 16
                                        @ kill: def $r2 killed $r1
	str	r0, [sp, #4]
	strh.w	r1, [sp, #2]
.Ltmp81:
	.loc	3 485 25 prologue_end           @ rt-thread/components/net/lwip-2.0.2/src/apps/mqtt/mqtt.c:485:25
	ldrh.w	r0, [sp, #2]
	.loc	3 485 23 is_stmt 0              @ rt-thread/components/net/lwip-2.0.2/src/apps/mqtt/mqtt.c:485:23
	adds	r0, #1
	.loc	3 485 9                         @ rt-thread/components/net/lwip-2.0.2/src/apps/mqtt/mqtt.c:485:9
	strh.w	r0, [sp]
	.loc	3 487 3 is_stmt 1               @ rt-thread/components/net/lwip-2.0.2/src/apps/mqtt/mqtt.c:487:3
	b	.LBB3_1
.LBB3_1:
.Ltmp82:
	.loc	3 487 3 is_stmt 0               @ rt-thread/components/net/lwip-2.0.2/src/apps/mqtt/mqtt.c:487:3
	ldr	r0, [sp, #4]
.Ltmp83:
	.loc	3 487 3                         @ rt-thread/components/net/lwip-2.0.2/src/apps/mqtt/mqtt.c:487:3
	cbnz	r0, .LBB3_5
	b	.LBB3_2
.LBB3_2:
.Ltmp84:
	.loc	3 487 3                         @ rt-thread/components/net/lwip-2.0.2/src/apps/mqtt/mqtt.c:487:3
	b	.LBB3_3
.LBB3_3:
.Ltmp85:
	.loc	3 487 3                         @ rt-thread/components/net/lwip-2.0.2/src/apps/mqtt/mqtt.c:487:3
	movw	r0, :lower16:.L.str.25
	movt	r0, :upper16:.L.str.25
	bl	rt_kprintf
	movw	r0, :lower16:.L.str.1
	movt	r0, :upper16:.L.str.1
	movw	r1, #487
	bl	sys_arch_assert
	b	.LBB3_4
.Ltmp86:
.LBB3_4:
	.loc	3 487 3                         @ rt-thread/components/net/lwip-2.0.2/src/apps/mqtt/mqtt.c:487:3
	b	.LBB3_5
.Ltmp87:
.LBB3_5:
	.loc	3 487 3                         @ rt-thread/components/net/lwip-2.0.2/src/apps/mqtt/mqtt.c:487:3
	b	.LBB3_6
.Ltmp88:
.LBB3_6:
	.loc	3 490 3 is_stmt 1               @ rt-thread/components/net/lwip-2.0.2/src/apps/mqtt/mqtt.c:490:3
	b	.LBB3_7
.LBB3_7:                                @ =>This Inner Loop Header: Depth=1
.Ltmp89:
	.loc	3 491 14                        @ rt-thread/components/net/lwip-2.0.2/src/apps/mqtt/mqtt.c:491:14
	ldrh.w	r0, [sp]
	adds	r0, #1
	strh.w	r0, [sp]
	.loc	3 492 14                        @ rt-thread/components/net/lwip-2.0.2/src/apps/mqtt/mqtt.c:492:14
	ldrh.w	r0, [sp, #2]
	lsrs	r0, r0, #7
	strh.w	r0, [sp, #2]
	.loc	3 493 3                         @ rt-thread/components/net/lwip-2.0.2/src/apps/mqtt/mqtt.c:493:3
	b	.LBB3_8
.Ltmp90:
.LBB3_8:                                @   in Loop: Header=BB3_7 Depth=1
	.loc	3 493 12 is_stmt 0              @ rt-thread/components/net/lwip-2.0.2/src/apps/mqtt/mqtt.c:493:12
	ldrh.w	r0, [sp, #2]
.Ltmp91:
	.loc	3 493 3                         @ rt-thread/components/net/lwip-2.0.2/src/apps/mqtt/mqtt.c:493:3
	cmp	r0, #0
	bgt	.LBB3_7
	b	.LBB3_9
.Ltmp92:
.LBB3_9:
	.loc	3 495 11 is_stmt 1              @ rt-thread/components/net/lwip-2.0.2/src/apps/mqtt/mqtt.c:495:11
	ldrh.w	r1, [sp]
	.loc	3 495 24 is_stmt 0              @ rt-thread/components/net/lwip-2.0.2/src/apps/mqtt/mqtt.c:495:24
	ldr	r2, [sp, #4]
	ldrh	r0, [r2]
	ldrh	r2, [r2, #2]
	subs	r0, r0, r2
	uxth	r0, r0
	rsb.w	r2, r0, #256
	movs	r0, #0
	.loc	3 495 21                        @ rt-thread/components/net/lwip-2.0.2/src/apps/mqtt/mqtt.c:495:21
	cmp	r1, r2
	it	le
	movle	r0, #1
	.loc	3 495 3                         @ rt-thread/components/net/lwip-2.0.2/src/apps/mqtt/mqtt.c:495:3
	add	sp, #8
	pop	{r7, pc}
.Ltmp93:
.Lfunc_end3:
	.size	mqtt_output_check_space, .Lfunc_end3-mqtt_output_check_space
	.cfi_endproc
	.cantunwind
	.fnend
                                        @ -- End function
	.section	.text.mqtt_delete_request,"ax",%progbits
	.p2align	3                               @ -- Begin function mqtt_delete_request
	.type	mqtt_delete_request,%function
	.code	16                              @ @mqtt_delete_request
	.thumb_func
mqtt_delete_request:
.Lfunc_begin4:
	.loc	3 313 0 is_stmt 1               @ rt-thread/components/net/lwip-2.0.2/src/apps/mqtt/mqtt.c:313:0
	.fnstart
	.cfi_startproc
@ %bb.0:
	.pad	#4
	sub	sp, #4
	.cfi_def_cfa_offset 4
	str	r0, [sp]
.Ltmp94:
	.loc	3 314 7 prologue_end            @ rt-thread/components/net/lwip-2.0.2/src/apps/mqtt/mqtt.c:314:7
	ldr	r0, [sp]
.Ltmp95:
	.loc	3 314 7 is_stmt 0               @ rt-thread/components/net/lwip-2.0.2/src/apps/mqtt/mqtt.c:314:7
	cbz	r0, .LBB4_2
	b	.LBB4_1
.LBB4_1:
.Ltmp96:
	.loc	3 315 15 is_stmt 1              @ rt-thread/components/net/lwip-2.0.2/src/apps/mqtt/mqtt.c:315:15
	ldr	r0, [sp]
	.loc	3 315 13 is_stmt 0              @ rt-thread/components/net/lwip-2.0.2/src/apps/mqtt/mqtt.c:315:13
	str	r0, [r0]
	.loc	3 316 3 is_stmt 1               @ rt-thread/components/net/lwip-2.0.2/src/apps/mqtt/mqtt.c:316:3
	b	.LBB4_2
.Ltmp97:
.LBB4_2:
	.loc	3 317 1                         @ rt-thread/components/net/lwip-2.0.2/src/apps/mqtt/mqtt.c:317:1
	add	sp, #4
	bx	lr
.Ltmp98:
.Lfunc_end4:
	.size	mqtt_delete_request, .Lfunc_end4-mqtt_delete_request
	.cfi_endproc
	.cantunwind
	.fnend
                                        @ -- End function
	.section	.text.mqtt_output_append_fixed_header,"ax",%progbits
	.p2align	3                               @ -- Begin function mqtt_output_append_fixed_header
	.type	mqtt_output_append_fixed_header,%function
	.code	16                              @ @mqtt_output_append_fixed_header
	.thumb_func
mqtt_output_append_fixed_header:
.Lfunc_begin5:
	.loc	3 464 0                         @ rt-thread/components/net/lwip-2.0.2/src/apps/mqtt/mqtt.c:464:0
	.fnstart
	.cfi_startproc
@ %bb.0:
	.save	{r4, lr}
	push	{r4, lr}
	.cfi_def_cfa_offset 8
	.cfi_offset lr, -4
	.cfi_offset r4, -8
	.pad	#16
	sub	sp, #16
	.cfi_def_cfa_offset 24
	mov	r12, r1
	mov	lr, r0
	ldr	r0, [sp, #28]
	ldr	r1, [sp, #24]
                                        @ kill: def $r4 killed $r3
                                        @ kill: def $r4 killed $r2
                                        @ kill: def $r4 killed $r12
	str.w	lr, [sp, #12]
	strb.w	r12, [sp, #11]
	strb.w	r2, [sp, #10]
	strb.w	r3, [sp, #9]
	strb.w	r1, [sp, #8]
	strh.w	r0, [sp, #6]
.Ltmp99:
	.loc	3 466 25 prologue_end           @ rt-thread/components/net/lwip-2.0.2/src/apps/mqtt/mqtt.c:466:25
	ldr	r0, [sp, #12]
	.loc	3 466 32 is_stmt 0              @ rt-thread/components/net/lwip-2.0.2/src/apps/mqtt/mqtt.c:466:32
	ldrb.w	r1, [sp, #11]
	.loc	3 466 41                        @ rt-thread/components/net/lwip-2.0.2/src/apps/mqtt/mqtt.c:466:41
	and	r1, r1, #15
	.loc	3 466 49                        @ rt-thread/components/net/lwip-2.0.2/src/apps/mqtt/mqtt.c:466:49
	lsls	r1, r1, #4
	.loc	3 466 59                        @ rt-thread/components/net/lwip-2.0.2/src/apps/mqtt/mqtt.c:466:59
	ldrb.w	r2, [sp, #10]
	.loc	3 466 63                        @ rt-thread/components/net/lwip-2.0.2/src/apps/mqtt/mqtt.c:466:63
	and	r2, r2, #1
	.loc	3 466 55                        @ rt-thread/components/net/lwip-2.0.2/src/apps/mqtt/mqtt.c:466:55
	orr.w	r1, r1, r2, lsl #3
	.loc	3 466 78                        @ rt-thread/components/net/lwip-2.0.2/src/apps/mqtt/mqtt.c:466:78
	ldrb.w	r2, [sp, #9]
	.loc	3 466 82                        @ rt-thread/components/net/lwip-2.0.2/src/apps/mqtt/mqtt.c:466:82
	and	r2, r2, #3
	.loc	3 466 74                        @ rt-thread/components/net/lwip-2.0.2/src/apps/mqtt/mqtt.c:466:74
	orr.w	r1, r1, r2, lsl #1
	.loc	3 466 96                        @ rt-thread/components/net/lwip-2.0.2/src/apps/mqtt/mqtt.c:466:96
	ldrb.w	r2, [sp, #8]
	.loc	3 466 103                       @ rt-thread/components/net/lwip-2.0.2/src/apps/mqtt/mqtt.c:466:103
	and	r2, r2, #1
	.loc	3 466 93                        @ rt-thread/components/net/lwip-2.0.2/src/apps/mqtt/mqtt.c:466:93
	add	r1, r2
	.loc	3 466 3                         @ rt-thread/components/net/lwip-2.0.2/src/apps/mqtt/mqtt.c:466:3
	bl	mqtt_output_append_u8
	.loc	3 468 3 is_stmt 1               @ rt-thread/components/net/lwip-2.0.2/src/apps/mqtt/mqtt.c:468:3
	b	.LBB5_1
.LBB5_1:                                @ =>This Inner Loop Header: Depth=1
.Ltmp100:
	.loc	3 469 27                        @ rt-thread/components/net/lwip-2.0.2/src/apps/mqtt/mqtt.c:469:27
	ldr	r0, [sp, #12]
	.loc	3 469 32 is_stmt 0              @ rt-thread/components/net/lwip-2.0.2/src/apps/mqtt/mqtt.c:469:32
	ldrh.w	r3, [sp, #6]
	.loc	3 469 41                        @ rt-thread/components/net/lwip-2.0.2/src/apps/mqtt/mqtt.c:469:41
	and	r1, r3, #127
	.loc	3 469 49                        @ rt-thread/components/net/lwip-2.0.2/src/apps/mqtt/mqtt.c:469:49
	add.w	r2, r1, #128
	cmp	r3, #127
	it	gt
	movgt	r1, r2
	.loc	3 469 5                         @ rt-thread/components/net/lwip-2.0.2/src/apps/mqtt/mqtt.c:469:5
	bl	mqtt_output_append_u8
	.loc	3 470 14 is_stmt 1              @ rt-thread/components/net/lwip-2.0.2/src/apps/mqtt/mqtt.c:470:14
	ldrh.w	r0, [sp, #6]
	lsrs	r0, r0, #7
	strh.w	r0, [sp, #6]
	.loc	3 471 3                         @ rt-thread/components/net/lwip-2.0.2/src/apps/mqtt/mqtt.c:471:3
	b	.LBB5_2
.Ltmp101:
.LBB5_2:                                @   in Loop: Header=BB5_1 Depth=1
	.loc	3 471 12 is_stmt 0              @ rt-thread/components/net/lwip-2.0.2/src/apps/mqtt/mqtt.c:471:12
	ldrh.w	r0, [sp, #6]
.Ltmp102:
	.loc	3 471 3                         @ rt-thread/components/net/lwip-2.0.2/src/apps/mqtt/mqtt.c:471:3
	cmp	r0, #0
	bgt	.LBB5_1
	b	.LBB5_3
.Ltmp103:
.LBB5_3:
	.loc	3 472 1 is_stmt 1               @ rt-thread/components/net/lwip-2.0.2/src/apps/mqtt/mqtt.c:472:1
	add	sp, #16
	pop	{r4, pc}
.Ltmp104:
.Lfunc_end5:
	.size	mqtt_output_append_fixed_header, .Lfunc_end5-mqtt_output_append_fixed_header
	.cfi_endproc
	.cantunwind
	.fnend
                                        @ -- End function
	.section	.text.mqtt_output_append_string,"ax",%progbits
	.p2align	3                               @ -- Begin function mqtt_output_append_string
	.type	mqtt_output_append_string,%function
	.code	16                              @ @mqtt_output_append_string
	.thumb_func
mqtt_output_append_string:
.Lfunc_begin6:
	.loc	3 442 0                         @ rt-thread/components/net/lwip-2.0.2/src/apps/mqtt/mqtt.c:442:0
	.fnstart
	.cfi_startproc
@ %bb.0:
	.pad	#12
	sub	sp, #12
	.cfi_def_cfa_offset 12
                                        @ kill: def $r3 killed $r2
	str	r0, [sp, #8]
	str	r1, [sp, #4]
	strh.w	r2, [sp, #2]
.Ltmp105:
	.loc	3 444 3 prologue_end            @ rt-thread/components/net/lwip-2.0.2/src/apps/mqtt/mqtt.c:444:3
	ldrb.w	r0, [sp, #3]
	ldr	r3, [sp, #8]
	ldrh	r2, [r3]
	uxtab	r1, r3, r2
	adds	r2, #1
	strh	r2, [r3]
	strb	r0, [r1, #4]
	.loc	3 445 3                         @ rt-thread/components/net/lwip-2.0.2/src/apps/mqtt/mqtt.c:445:3
	ldrh.w	r0, [sp, #2]
	ldr	r3, [sp, #8]
	ldrh	r2, [r3]
	uxtab	r1, r3, r2
	adds	r2, #1
	strh	r2, [r3]
	strb	r0, [r1, #4]
	movs	r0, #0
.Ltmp106:
	.loc	3 446 10                        @ rt-thread/components/net/lwip-2.0.2/src/apps/mqtt/mqtt.c:446:10
	strh.w	r0, [sp]
	.loc	3 446 8 is_stmt 0               @ rt-thread/components/net/lwip-2.0.2/src/apps/mqtt/mqtt.c:446:8
	b	.LBB6_1
.LBB6_1:                                @ =>This Inner Loop Header: Depth=1
.Ltmp107:
	.loc	3 446 15                        @ rt-thread/components/net/lwip-2.0.2/src/apps/mqtt/mqtt.c:446:15
	ldrh.w	r0, [sp]
	.loc	3 446 19                        @ rt-thread/components/net/lwip-2.0.2/src/apps/mqtt/mqtt.c:446:19
	ldrh.w	r1, [sp, #2]
.Ltmp108:
	.loc	3 446 3                         @ rt-thread/components/net/lwip-2.0.2/src/apps/mqtt/mqtt.c:446:3
	cmp	r0, r1
	bge	.LBB6_4
	b	.LBB6_2
.LBB6_2:                                @   in Loop: Header=BB6_1 Depth=1
.Ltmp109:
	.loc	3 447 5 is_stmt 1               @ rt-thread/components/net/lwip-2.0.2/src/apps/mqtt/mqtt.c:447:5
	ldr	r0, [sp, #4]
	ldrh.w	r1, [sp]
	ldrb	r0, [r0, r1]
	ldr	r3, [sp, #8]
	ldrh	r2, [r3]
	uxtab	r1, r3, r2
	adds	r2, #1
	strh	r2, [r3]
	strb	r0, [r1, #4]
	.loc	3 448 3                         @ rt-thread/components/net/lwip-2.0.2/src/apps/mqtt/mqtt.c:448:3
	b	.LBB6_3
.Ltmp110:
.LBB6_3:                                @   in Loop: Header=BB6_1 Depth=1
	.loc	3 446 28                        @ rt-thread/components/net/lwip-2.0.2/src/apps/mqtt/mqtt.c:446:28
	ldrh.w	r0, [sp]
	adds	r0, #1
	strh.w	r0, [sp]
	.loc	3 446 3 is_stmt 0               @ rt-thread/components/net/lwip-2.0.2/src/apps/mqtt/mqtt.c:446:3
	b	.LBB6_1
.Ltmp111:
.LBB6_4:
	.loc	3 449 1 is_stmt 1               @ rt-thread/components/net/lwip-2.0.2/src/apps/mqtt/mqtt.c:449:1
	add	sp, #12
	bx	lr
.Ltmp112:
.Lfunc_end6:
	.size	mqtt_output_append_string, .Lfunc_end6-mqtt_output_append_string
	.cfi_endproc
	.cantunwind
	.fnend
                                        @ -- End function
	.section	.text.mqtt_output_append_u16,"ax",%progbits
	.p2align	3                               @ -- Begin function mqtt_output_append_u16
	.type	mqtt_output_append_u16,%function
	.code	16                              @ @mqtt_output_append_u16
	.thumb_func
mqtt_output_append_u16:
.Lfunc_begin7:
	.loc	3 426 0                         @ rt-thread/components/net/lwip-2.0.2/src/apps/mqtt/mqtt.c:426:0
	.fnstart
	.cfi_startproc
@ %bb.0:
	.pad	#8
	sub	sp, #8
	.cfi_def_cfa_offset 8
                                        @ kill: def $r2 killed $r1
	str	r0, [sp, #4]
	strh.w	r1, [sp, #2]
.Ltmp113:
	.loc	3 427 3 prologue_end            @ rt-thread/components/net/lwip-2.0.2/src/apps/mqtt/mqtt.c:427:3
	ldrb.w	r0, [sp, #3]
	ldr	r3, [sp, #4]
	ldrh	r2, [r3]
	uxtab	r1, r3, r2
	adds	r2, #1
	strh	r2, [r3]
	strb	r0, [r1, #4]
	.loc	3 428 3                         @ rt-thread/components/net/lwip-2.0.2/src/apps/mqtt/mqtt.c:428:3
	ldrh.w	r0, [sp, #2]
	ldr	r3, [sp, #4]
	ldrh	r2, [r3]
	uxtab	r1, r3, r2
	adds	r2, #1
	strh	r2, [r3]
	strb	r0, [r1, #4]
	.loc	3 429 1                         @ rt-thread/components/net/lwip-2.0.2/src/apps/mqtt/mqtt.c:429:1
	add	sp, #8
	bx	lr
.Ltmp114:
.Lfunc_end7:
	.size	mqtt_output_append_u16, .Lfunc_end7-mqtt_output_append_u16
	.cfi_endproc
	.cantunwind
	.fnend
                                        @ -- End function
	.section	.text.mqtt_output_append_buf,"ax",%progbits
	.p2align	3                               @ -- Begin function mqtt_output_append_buf
	.type	mqtt_output_append_buf,%function
	.code	16                              @ @mqtt_output_append_buf
	.thumb_func
mqtt_output_append_buf:
.Lfunc_begin8:
	.loc	3 433 0                         @ rt-thread/components/net/lwip-2.0.2/src/apps/mqtt/mqtt.c:433:0
	.fnstart
	.cfi_startproc
@ %bb.0:
	.pad	#12
	sub	sp, #12
	.cfi_def_cfa_offset 12
                                        @ kill: def $r3 killed $r2
	str	r0, [sp, #8]
	str	r1, [sp, #4]
	strh.w	r2, [sp, #2]
	movs	r0, #0
.Ltmp115:
	.loc	3 435 10 prologue_end           @ rt-thread/components/net/lwip-2.0.2/src/apps/mqtt/mqtt.c:435:10
	strh.w	r0, [sp]
	.loc	3 435 8 is_stmt 0               @ rt-thread/components/net/lwip-2.0.2/src/apps/mqtt/mqtt.c:435:8
	b	.LBB8_1
.LBB8_1:                                @ =>This Inner Loop Header: Depth=1
.Ltmp116:
	.loc	3 435 15                        @ rt-thread/components/net/lwip-2.0.2/src/apps/mqtt/mqtt.c:435:15
	ldrh.w	r0, [sp]
	.loc	3 435 19                        @ rt-thread/components/net/lwip-2.0.2/src/apps/mqtt/mqtt.c:435:19
	ldrh.w	r1, [sp, #2]
.Ltmp117:
	.loc	3 435 3                         @ rt-thread/components/net/lwip-2.0.2/src/apps/mqtt/mqtt.c:435:3
	cmp	r0, r1
	bge	.LBB8_4
	b	.LBB8_2
.LBB8_2:                                @   in Loop: Header=BB8_1 Depth=1
.Ltmp118:
	.loc	3 436 5 is_stmt 1               @ rt-thread/components/net/lwip-2.0.2/src/apps/mqtt/mqtt.c:436:5
	ldr	r0, [sp, #4]
	ldrh.w	r1, [sp]
	ldrb	r0, [r0, r1]
	ldr	r3, [sp, #8]
	ldrh	r2, [r3]
	uxtab	r1, r3, r2
	adds	r2, #1
	strh	r2, [r3]
	strb	r0, [r1, #4]
	.loc	3 437 3                         @ rt-thread/components/net/lwip-2.0.2/src/apps/mqtt/mqtt.c:437:3
	b	.LBB8_3
.Ltmp119:
.LBB8_3:                                @   in Loop: Header=BB8_1 Depth=1
	.loc	3 435 28                        @ rt-thread/components/net/lwip-2.0.2/src/apps/mqtt/mqtt.c:435:28
	ldrh.w	r0, [sp]
	adds	r0, #1
	strh.w	r0, [sp]
	.loc	3 435 3 is_stmt 0               @ rt-thread/components/net/lwip-2.0.2/src/apps/mqtt/mqtt.c:435:3
	b	.LBB8_1
.Ltmp120:
.LBB8_4:
	.loc	3 438 1 is_stmt 1               @ rt-thread/components/net/lwip-2.0.2/src/apps/mqtt/mqtt.c:438:1
	add	sp, #12
	bx	lr
.Ltmp121:
.Lfunc_end8:
	.size	mqtt_output_append_buf, .Lfunc_end8-mqtt_output_append_buf
	.cfi_endproc
	.cantunwind
	.fnend
                                        @ -- End function
	.section	.text.mqtt_append_request,"ax",%progbits
	.p2align	3                               @ -- Begin function mqtt_append_request
	.type	mqtt_append_request,%function
	.code	16                              @ @mqtt_append_request
	.thumb_func
mqtt_append_request:
.Lfunc_begin9:
	.loc	3 284 0                         @ rt-thread/components/net/lwip-2.0.2/src/apps/mqtt/mqtt.c:284:0
	.fnstart
	.cfi_startproc
@ %bb.0:
	.save	{r7, lr}
	push	{r7, lr}
	.cfi_def_cfa_offset 8
	.cfi_offset lr, -4
	.cfi_offset r7, -8
	.pad	#24
	sub	sp, #24
	.cfi_def_cfa_offset 32
	str	r0, [sp, #20]
	str	r1, [sp, #16]
	movs	r0, #0
.Ltmp122:
	.loc	3 285 26 prologue_end           @ rt-thread/components/net/lwip-2.0.2/src/apps/mqtt/mqtt.c:285:26
	str	r0, [sp, #12]
	.loc	3 286 9                         @ rt-thread/components/net/lwip-2.0.2/src/apps/mqtt/mqtt.c:286:9
	strh.w	r0, [sp, #10]
	.loc	3 289 3                         @ rt-thread/components/net/lwip-2.0.2/src/apps/mqtt/mqtt.c:289:3
	b	.LBB9_1
.LBB9_1:
.Ltmp123:
	.loc	3 289 3 is_stmt 0               @ rt-thread/components/net/lwip-2.0.2/src/apps/mqtt/mqtt.c:289:3
	ldr	r0, [sp, #20]
.Ltmp124:
	.loc	3 289 3                         @ rt-thread/components/net/lwip-2.0.2/src/apps/mqtt/mqtt.c:289:3
	cbnz	r0, .LBB9_5
	b	.LBB9_2
.LBB9_2:
.Ltmp125:
	.loc	3 289 3                         @ rt-thread/components/net/lwip-2.0.2/src/apps/mqtt/mqtt.c:289:3
	b	.LBB9_3
.LBB9_3:
.Ltmp126:
	.loc	3 289 3                         @ rt-thread/components/net/lwip-2.0.2/src/apps/mqtt/mqtt.c:289:3
	movw	r0, :lower16:.L.str.26
	movt	r0, :upper16:.L.str.26
	bl	rt_kprintf
	movw	r0, :lower16:.L.str.1
	movt	r0, :upper16:.L.str.1
	movw	r1, #289
	bl	sys_arch_assert
	b	.LBB9_4
.Ltmp127:
.LBB9_4:
	.loc	3 289 3                         @ rt-thread/components/net/lwip-2.0.2/src/apps/mqtt/mqtt.c:289:3
	b	.LBB9_5
.Ltmp128:
.LBB9_5:
	.loc	3 289 3                         @ rt-thread/components/net/lwip-2.0.2/src/apps/mqtt/mqtt.c:289:3
	b	.LBB9_6
.Ltmp129:
.LBB9_6:
	.loc	3 292 16 is_stmt 1              @ rt-thread/components/net/lwip-2.0.2/src/apps/mqtt/mqtt.c:292:16
	ldr	r0, [sp, #20]
	.loc	3 292 15 is_stmt 0              @ rt-thread/components/net/lwip-2.0.2/src/apps/mqtt/mqtt.c:292:15
	ldr	r0, [r0]
	.loc	3 292 13                        @ rt-thread/components/net/lwip-2.0.2/src/apps/mqtt/mqtt.c:292:13
	str	r0, [sp, #4]
	.loc	3 292 8                         @ rt-thread/components/net/lwip-2.0.2/src/apps/mqtt/mqtt.c:292:8
	b	.LBB9_7
.LBB9_7:                                @ =>This Inner Loop Header: Depth=1
.Ltmp130:
	.loc	3 292 22                        @ rt-thread/components/net/lwip-2.0.2/src/apps/mqtt/mqtt.c:292:22
	ldr	r0, [sp, #4]
.Ltmp131:
	.loc	3 292 3                         @ rt-thread/components/net/lwip-2.0.2/src/apps/mqtt/mqtt.c:292:3
	cbz	r0, .LBB9_10
	b	.LBB9_8
.LBB9_8:                                @   in Loop: Header=BB9_7 Depth=1
.Ltmp132:
	.loc	3 293 20 is_stmt 1              @ rt-thread/components/net/lwip-2.0.2/src/apps/mqtt/mqtt.c:293:20
	ldr	r0, [sp, #4]
	ldrh	r1, [r0, #14]
	.loc	3 293 17 is_stmt 0              @ rt-thread/components/net/lwip-2.0.2/src/apps/mqtt/mqtt.c:293:17
	ldrh.w	r0, [sp, #10]
	add	r0, r1
	strh.w	r0, [sp, #10]
	.loc	3 294 12 is_stmt 1              @ rt-thread/components/net/lwip-2.0.2/src/apps/mqtt/mqtt.c:294:12
	ldr	r0, [sp, #4]
	.loc	3 294 10 is_stmt 0              @ rt-thread/components/net/lwip-2.0.2/src/apps/mqtt/mqtt.c:294:10
	str	r0, [sp, #12]
	.loc	3 295 3 is_stmt 1               @ rt-thread/components/net/lwip-2.0.2/src/apps/mqtt/mqtt.c:295:3
	b	.LBB9_9
.Ltmp133:
.LBB9_9:                                @   in Loop: Header=BB9_7 Depth=1
	.loc	3 292 43                        @ rt-thread/components/net/lwip-2.0.2/src/apps/mqtt/mqtt.c:292:43
	ldr	r0, [sp, #4]
	.loc	3 292 49 is_stmt 0              @ rt-thread/components/net/lwip-2.0.2/src/apps/mqtt/mqtt.c:292:49
	ldr	r0, [r0]
	.loc	3 292 41                        @ rt-thread/components/net/lwip-2.0.2/src/apps/mqtt/mqtt.c:292:41
	str	r0, [sp, #4]
	.loc	3 292 3                         @ rt-thread/components/net/lwip-2.0.2/src/apps/mqtt/mqtt.c:292:3
	b	.LBB9_7
.Ltmp134:
.LBB9_10:
	.loc	3 297 3 is_stmt 1               @ rt-thread/components/net/lwip-2.0.2/src/apps/mqtt/mqtt.c:297:3
	b	.LBB9_11
.LBB9_11:
.Ltmp135:
	.loc	3 297 3 is_stmt 0               @ rt-thread/components/net/lwip-2.0.2/src/apps/mqtt/mqtt.c:297:3
	ldrsh.w	r0, [sp, #10]
.Ltmp136:
	.loc	3 297 3                         @ rt-thread/components/net/lwip-2.0.2/src/apps/mqtt/mqtt.c:297:3
	cmp	r0, #31
	blt	.LBB9_15
	b	.LBB9_12
.LBB9_12:
.Ltmp137:
	.loc	3 297 3                         @ rt-thread/components/net/lwip-2.0.2/src/apps/mqtt/mqtt.c:297:3
	b	.LBB9_13
.LBB9_13:
.Ltmp138:
	.loc	3 297 3                         @ rt-thread/components/net/lwip-2.0.2/src/apps/mqtt/mqtt.c:297:3
	movw	r0, :lower16:.L.str.27
	movt	r0, :upper16:.L.str.27
	bl	rt_kprintf
	movw	r0, :lower16:.L.str.1
	movt	r0, :upper16:.L.str.1
	movw	r1, #297
	bl	sys_arch_assert
	b	.LBB9_14
.Ltmp139:
.LBB9_14:
	.loc	3 297 3                         @ rt-thread/components/net/lwip-2.0.2/src/apps/mqtt/mqtt.c:297:3
	b	.LBB9_15
.Ltmp140:
.LBB9_15:
	.loc	3 297 3                         @ rt-thread/components/net/lwip-2.0.2/src/apps/mqtt/mqtt.c:297:3
	b	.LBB9_16
.Ltmp141:
.LBB9_16:
	.loc	3 298 40 is_stmt 1              @ rt-thread/components/net/lwip-2.0.2/src/apps/mqtt/mqtt.c:298:40
	ldrh.w	r0, [sp, #10]
	.loc	3 298 38 is_stmt 0              @ rt-thread/components/net/lwip-2.0.2/src/apps/mqtt/mqtt.c:298:38
	rsb.w	r0, r0, #30
	.loc	3 298 3                         @ rt-thread/components/net/lwip-2.0.2/src/apps/mqtt/mqtt.c:298:3
	ldr	r1, [sp, #16]
	.loc	3 298 19                        @ rt-thread/components/net/lwip-2.0.2/src/apps/mqtt/mqtt.c:298:19
	strh	r0, [r1, #14]
.Ltmp142:
	.loc	3 299 7 is_stmt 1               @ rt-thread/components/net/lwip-2.0.2/src/apps/mqtt/mqtt.c:299:7
	ldr	r0, [sp, #12]
.Ltmp143:
	.loc	3 299 7 is_stmt 0               @ rt-thread/components/net/lwip-2.0.2/src/apps/mqtt/mqtt.c:299:7
	cbnz	r0, .LBB9_18
	b	.LBB9_17
.LBB9_17:
.Ltmp144:
	.loc	3 300 13 is_stmt 1              @ rt-thread/components/net/lwip-2.0.2/src/apps/mqtt/mqtt.c:300:13
	ldr	r0, [sp, #16]
	.loc	3 300 6 is_stmt 0               @ rt-thread/components/net/lwip-2.0.2/src/apps/mqtt/mqtt.c:300:6
	ldr	r1, [sp, #20]
	.loc	3 300 11                        @ rt-thread/components/net/lwip-2.0.2/src/apps/mqtt/mqtt.c:300:11
	str	r0, [r1]
	.loc	3 301 3 is_stmt 1               @ rt-thread/components/net/lwip-2.0.2/src/apps/mqtt/mqtt.c:301:3
	b	.LBB9_19
.Ltmp145:
.LBB9_18:
	.loc	3 302 18                        @ rt-thread/components/net/lwip-2.0.2/src/apps/mqtt/mqtt.c:302:18
	ldr	r0, [sp, #16]
	.loc	3 302 5 is_stmt 0               @ rt-thread/components/net/lwip-2.0.2/src/apps/mqtt/mqtt.c:302:5
	ldr	r1, [sp, #12]
	.loc	3 302 16                        @ rt-thread/components/net/lwip-2.0.2/src/apps/mqtt/mqtt.c:302:16
	str	r0, [r1]
	b	.LBB9_19
.Ltmp146:
.LBB9_19:
	.loc	3 304 1 is_stmt 1               @ rt-thread/components/net/lwip-2.0.2/src/apps/mqtt/mqtt.c:304:1
	add	sp, #24
	pop	{r7, pc}
.Ltmp147:
.Lfunc_end9:
	.size	mqtt_append_request, .Lfunc_end9-mqtt_append_request
	.cfi_endproc
	.cantunwind
	.fnend
                                        @ -- End function
	.section	.text.mqtt_output_send,"ax",%progbits
	.p2align	3                               @ -- Begin function mqtt_output_send
	.type	mqtt_output_send,%function
	.code	16                              @ @mqtt_output_send
	.thumb_func
mqtt_output_send:
.Lfunc_begin10:
	.loc	3 206 0                         @ rt-thread/components/net/lwip-2.0.2/src/apps/mqtt/mqtt.c:206:0
	.fnstart
	.cfi_startproc
@ %bb.0:
	.save	{r7, lr}
	push	{r7, lr}
	.cfi_def_cfa_offset 8
	.cfi_offset lr, -4
	.cfi_offset r7, -8
	.pad	#40
	sub	sp, #40
	.cfi_def_cfa_offset 48
	str	r0, [sp, #36]
	str	r1, [sp, #32]
	movs	r0, #0
.Ltmp148:
	.loc	3 208 8 prologue_end            @ rt-thread/components/net/lwip-2.0.2/src/apps/mqtt/mqtt.c:208:8
	strb.w	r0, [sp, #30]
	.loc	3 209 27                        @ rt-thread/components/net/lwip-2.0.2/src/apps/mqtt/mqtt.c:209:27
	ldr	r1, [sp, #36]
	ldrh	r0, [r1]
	ldrh	r1, [r1, #2]
	subs	r0, r0, r1
	uxth	r0, r0
	uxtb	r1, r1
	rsb.w	r1, r1, #256
	cmp	r0, r1
	bge	.LBB10_2
	b	.LBB10_1
.LBB10_1:
	ldr	r1, [sp, #36]
	ldrh	r0, [r1]
	ldrh	r1, [r1, #2]
	subs	r0, r0, r1
	uxth	r0, r0
	str	r0, [sp, #20]                   @ 4-byte Spill
	b	.LBB10_3
.LBB10_2:
	ldr	r0, [sp, #36]
	ldrb	r0, [r0, #2]
	rsb.w	r0, r0, #256
	str	r0, [sp, #20]                   @ 4-byte Spill
	b	.LBB10_3
.LBB10_3:
	ldr	r0, [sp, #20]                   @ 4-byte Reload
	.loc	3 209 9 is_stmt 0               @ rt-thread/components/net/lwip-2.0.2/src/apps/mqtt/mqtt.c:209:9
	strh.w	r0, [sp, #28]
	.loc	3 210 20 is_stmt 1              @ rt-thread/components/net/lwip-2.0.2/src/apps/mqtt/mqtt.c:210:20
	ldr	r0, [sp, #32]
	ldrh.w	r0, [r0, #96]
	.loc	3 210 9 is_stmt 0               @ rt-thread/components/net/lwip-2.0.2/src/apps/mqtt/mqtt.c:210:9
	strh.w	r0, [sp, #26]
	.loc	3 211 3 is_stmt 1               @ rt-thread/components/net/lwip-2.0.2/src/apps/mqtt/mqtt.c:211:3
	b	.LBB10_4
.LBB10_4:
.Ltmp149:
	.loc	3 211 3 is_stmt 0               @ rt-thread/components/net/lwip-2.0.2/src/apps/mqtt/mqtt.c:211:3
	ldr	r0, [sp, #32]
.Ltmp150:
	.loc	3 211 3                         @ rt-thread/components/net/lwip-2.0.2/src/apps/mqtt/mqtt.c:211:3
	cbnz	r0, .LBB10_8
	b	.LBB10_5
.LBB10_5:
.Ltmp151:
	.loc	3 211 3                         @ rt-thread/components/net/lwip-2.0.2/src/apps/mqtt/mqtt.c:211:3
	b	.LBB10_6
.LBB10_6:
.Ltmp152:
	.loc	3 211 3                         @ rt-thread/components/net/lwip-2.0.2/src/apps/mqtt/mqtt.c:211:3
	movw	r0, :lower16:.L.str.28
	movt	r0, :upper16:.L.str.28
	bl	rt_kprintf
	movw	r0, :lower16:.L.str.1
	movt	r0, :upper16:.L.str.1
	movs	r1, #211
	bl	sys_arch_assert
	b	.LBB10_7
.Ltmp153:
.LBB10_7:
	.loc	3 211 3                         @ rt-thread/components/net/lwip-2.0.2/src/apps/mqtt/mqtt.c:211:3
	b	.LBB10_8
.Ltmp154:
.LBB10_8:
	.loc	3 211 3                         @ rt-thread/components/net/lwip-2.0.2/src/apps/mqtt/mqtt.c:211:3
	b	.LBB10_9
.Ltmp155:
.LBB10_9:
	.loc	3 213 7 is_stmt 1               @ rt-thread/components/net/lwip-2.0.2/src/apps/mqtt/mqtt.c:213:7
	ldrh.w	r0, [sp, #26]
	.loc	3 213 21 is_stmt 0              @ rt-thread/components/net/lwip-2.0.2/src/apps/mqtt/mqtt.c:213:21
	cbz	r0, .LBB10_11
	b	.LBB10_10
.LBB10_10:
	.loc	3 213 24                        @ rt-thread/components/net/lwip-2.0.2/src/apps/mqtt/mqtt.c:213:24
	ldrh.w	r0, [sp, #28]
.Ltmp156:
	.loc	3 213 7                         @ rt-thread/components/net/lwip-2.0.2/src/apps/mqtt/mqtt.c:213:7
	cbnz	r0, .LBB10_12
	b	.LBB10_11
.LBB10_11:
.Ltmp157:
	.loc	3 214 5 is_stmt 1               @ rt-thread/components/net/lwip-2.0.2/src/apps/mqtt/mqtt.c:214:5
	b	.LBB10_29
.Ltmp158:
.LBB10_12:
	.loc	3 220 7                         @ rt-thread/components/net/lwip-2.0.2/src/apps/mqtt/mqtt.c:220:7
	ldrh.w	r0, [sp, #26]
	.loc	3 220 18 is_stmt 0              @ rt-thread/components/net/lwip-2.0.2/src/apps/mqtt/mqtt.c:220:18
	ldrh.w	r1, [sp, #28]
.Ltmp159:
	.loc	3 220 7                         @ rt-thread/components/net/lwip-2.0.2/src/apps/mqtt/mqtt.c:220:7
	cmp	r0, r1
	ble	.LBB10_14
	b	.LBB10_13
.LBB10_13:
.Ltmp160:
	.loc	3 222 16 is_stmt 1              @ rt-thread/components/net/lwip-2.0.2/src/apps/mqtt/mqtt.c:222:16
	ldrh.w	r0, [sp, #28]
	.loc	3 222 14 is_stmt 0              @ rt-thread/components/net/lwip-2.0.2/src/apps/mqtt/mqtt.c:222:14
	strh.w	r0, [sp, #26]
	.loc	3 224 13 is_stmt 1              @ rt-thread/components/net/lwip-2.0.2/src/apps/mqtt/mqtt.c:224:13
	ldr	r1, [sp, #36]
	ldrh	r0, [r1]
	ldrh	r1, [r1, #2]
	subs	r0, r0, r1
	uxth	r1, r0
	.loc	3 224 36 is_stmt 0              @ rt-thread/components/net/lwip-2.0.2/src/apps/mqtt/mqtt.c:224:36
	ldrh.w	r2, [sp, #28]
	movs	r0, #0
	.loc	3 224 34                        @ rt-thread/components/net/lwip-2.0.2/src/apps/mqtt/mqtt.c:224:34
	cmp	r1, r2
	it	gt
	movgt	r0, #1
	.loc	3 224 10                        @ rt-thread/components/net/lwip-2.0.2/src/apps/mqtt/mqtt.c:224:10
	strb.w	r0, [sp, #30]
	.loc	3 225 3 is_stmt 1               @ rt-thread/components/net/lwip-2.0.2/src/apps/mqtt/mqtt.c:225:3
	b	.LBB10_14
.Ltmp161:
.LBB10_14:
	.loc	3 226 19                        @ rt-thread/components/net/lwip-2.0.2/src/apps/mqtt/mqtt.c:226:19
	ldr	r0, [sp, #32]
	.loc	3 226 25 is_stmt 0              @ rt-thread/components/net/lwip-2.0.2/src/apps/mqtt/mqtt.c:226:25
	ldr	r1, [sp, #36]
	ldrb	r2, [r1, #2]
	add	r1, r2
	adds	r1, #4
	.loc	3 226 51                        @ rt-thread/components/net/lwip-2.0.2/src/apps/mqtt/mqtt.c:226:51
	ldrh.w	r2, [sp, #26]
	.loc	3 226 84                        @ rt-thread/components/net/lwip-2.0.2/src/apps/mqtt/mqtt.c:226:84
	ldrb.w	r12, [sp, #30]
	movs	r3, #1
	cmp.w	r12, #0
	it	ne
	movne	r3, #3
	.loc	3 226 9                         @ rt-thread/components/net/lwip-2.0.2/src/apps/mqtt/mqtt.c:226:9
	bl	tcp_write
	.loc	3 226 7                         @ rt-thread/components/net/lwip-2.0.2/src/apps/mqtt/mqtt.c:226:7
	strb.w	r0, [sp, #31]
.Ltmp162:
	.loc	3 227 8 is_stmt 1               @ rt-thread/components/net/lwip-2.0.2/src/apps/mqtt/mqtt.c:227:8
	ldrsb.w	r0, [sp, #31]
	.loc	3 227 23 is_stmt 0              @ rt-thread/components/net/lwip-2.0.2/src/apps/mqtt/mqtt.c:227:23
	cmp	r0, #0
	bne	.LBB10_26
	b	.LBB10_15
.LBB10_15:
	.loc	3 227 26                        @ rt-thread/components/net/lwip-2.0.2/src/apps/mqtt/mqtt.c:227:26
	ldrb.w	r0, [sp, #30]
.Ltmp163:
	.loc	3 227 7                         @ rt-thread/components/net/lwip-2.0.2/src/apps/mqtt/mqtt.c:227:7
	cmp	r0, #0
	beq	.LBB10_26
	b	.LBB10_16
.LBB10_16:
.Ltmp164:
	.loc	3 228 5 is_stmt 1               @ rt-thread/components/net/lwip-2.0.2/src/apps/mqtt/mqtt.c:228:5
	ldrh.w	r2, [sp, #26]
	ldr	r1, [sp, #36]
	ldrh	r0, [r1, #2]
	add	r0, r2
	strh	r0, [r1, #2]
	.loc	3 230 16                        @ rt-thread/components/net/lwip-2.0.2/src/apps/mqtt/mqtt.c:230:16
	ldr	r0, [sp, #32]
	ldrh.w	r0, [r0, #96]
	str	r0, [sp, #16]                   @ 4-byte Spill
	ldr	r1, [sp, #36]
	ldrh	r0, [r1]
	ldrh	r1, [r1, #2]
	subs	r0, r0, r1
	uxth	r0, r0
	uxtb	r1, r1
	rsb.w	r1, r1, #256
	cmp	r0, r1
	bge	.LBB10_18
	b	.LBB10_17
.LBB10_17:
	ldr	r1, [sp, #36]
	ldrh	r0, [r1]
	ldrh	r1, [r1, #2]
	subs	r0, r0, r1
	uxth	r0, r0
	str	r0, [sp, #12]                   @ 4-byte Spill
	b	.LBB10_19
.LBB10_18:
	ldr	r0, [sp, #36]
	ldrb	r0, [r0, #2]
	rsb.w	r0, r0, #256
	str	r0, [sp, #12]                   @ 4-byte Spill
	b	.LBB10_19
.LBB10_19:
	ldr	r0, [sp, #16]                   @ 4-byte Reload
	ldr	r1, [sp, #12]                   @ 4-byte Reload
	cmp	r0, r1
	bge	.LBB10_21
	b	.LBB10_20
.LBB10_20:
	ldr	r0, [sp, #32]
	ldrh.w	r0, [r0, #96]
	str	r0, [sp, #8]                    @ 4-byte Spill
	b	.LBB10_25
.LBB10_21:
	ldr	r1, [sp, #36]
	ldrh	r0, [r1]
	ldrh	r1, [r1, #2]
	subs	r0, r0, r1
	uxth	r0, r0
	uxtb	r1, r1
	rsb.w	r1, r1, #256
	cmp	r0, r1
	bge	.LBB10_23
	b	.LBB10_22
.LBB10_22:
	ldr	r1, [sp, #36]
	ldrh	r0, [r1]
	ldrh	r1, [r1, #2]
	subs	r0, r0, r1
	uxth	r0, r0
	str	r0, [sp, #4]                    @ 4-byte Spill
	b	.LBB10_24
.LBB10_23:
	ldr	r0, [sp, #36]
	ldrb	r0, [r0, #2]
	rsb.w	r0, r0, #256
	str	r0, [sp, #4]                    @ 4-byte Spill
	b	.LBB10_24
.LBB10_24:
	ldr	r0, [sp, #4]                    @ 4-byte Reload
	str	r0, [sp, #8]                    @ 4-byte Spill
	b	.LBB10_25
.LBB10_25:
	ldr	r0, [sp, #8]                    @ 4-byte Reload
	.loc	3 230 14 is_stmt 0              @ rt-thread/components/net/lwip-2.0.2/src/apps/mqtt/mqtt.c:230:14
	strh.w	r0, [sp, #26]
	.loc	3 231 21 is_stmt 1              @ rt-thread/components/net/lwip-2.0.2/src/apps/mqtt/mqtt.c:231:21
	ldr	r0, [sp, #32]
	.loc	3 231 27 is_stmt 0              @ rt-thread/components/net/lwip-2.0.2/src/apps/mqtt/mqtt.c:231:27
	ldr	r1, [sp, #36]
	ldrb	r2, [r1, #2]
	add	r1, r2
	adds	r1, #4
	.loc	3 231 53                        @ rt-thread/components/net/lwip-2.0.2/src/apps/mqtt/mqtt.c:231:53
	ldrh.w	r2, [sp, #26]
	movs	r3, #1
	.loc	3 231 11                        @ rt-thread/components/net/lwip-2.0.2/src/apps/mqtt/mqtt.c:231:11
	bl	tcp_write
	.loc	3 231 9                         @ rt-thread/components/net/lwip-2.0.2/src/apps/mqtt/mqtt.c:231:9
	strb.w	r0, [sp, #31]
	.loc	3 232 3 is_stmt 1               @ rt-thread/components/net/lwip-2.0.2/src/apps/mqtt/mqtt.c:232:3
	b	.LBB10_26
.Ltmp165:
.LBB10_26:
	.loc	3 234 7                         @ rt-thread/components/net/lwip-2.0.2/src/apps/mqtt/mqtt.c:234:7
	ldrsb.w	r0, [sp, #31]
.Ltmp166:
	.loc	3 234 7 is_stmt 0               @ rt-thread/components/net/lwip-2.0.2/src/apps/mqtt/mqtt.c:234:7
	cbnz	r0, .LBB10_28
	b	.LBB10_27
.LBB10_27:
.Ltmp167:
	.loc	3 235 5 is_stmt 1               @ rt-thread/components/net/lwip-2.0.2/src/apps/mqtt/mqtt.c:235:5
	ldrh.w	r2, [sp, #26]
	ldr	r1, [sp, #36]
	ldrh	r0, [r1, #2]
	add	r0, r2
	strh	r0, [r1, #2]
	.loc	3 237 16                        @ rt-thread/components/net/lwip-2.0.2/src/apps/mqtt/mqtt.c:237:16
	ldr	r0, [sp, #32]
	.loc	3 237 5 is_stmt 0               @ rt-thread/components/net/lwip-2.0.2/src/apps/mqtt/mqtt.c:237:5
	bl	tcp_output
	.loc	3 238 3 is_stmt 1               @ rt-thread/components/net/lwip-2.0.2/src/apps/mqtt/mqtt.c:238:3
	b	.LBB10_29
.Ltmp168:
.LBB10_28:
	.loc	3 0 3 is_stmt 0                 @ rt-thread/components/net/lwip-2.0.2/src/apps/mqtt/mqtt.c:0:3
	b	.LBB10_29
.LBB10_29:
	.loc	3 241 1 is_stmt 1               @ rt-thread/components/net/lwip-2.0.2/src/apps/mqtt/mqtt.c:241:1
	add	sp, #40
	pop	{r7, pc}
.Ltmp169:
.Lfunc_end10:
	.size	mqtt_output_send, .Lfunc_end10-mqtt_output_send
	.cfi_endproc
	.cantunwind
	.fnend
                                        @ -- End function
	.section	.text.mqtt_sub_unsub,"ax",%progbits
	.hidden	mqtt_sub_unsub                  @ -- Begin function mqtt_sub_unsub
	.globl	mqtt_sub_unsub
	.p2align	3
	.type	mqtt_sub_unsub,%function
	.code	16                              @ @mqtt_sub_unsub
	.thumb_func
mqtt_sub_unsub:
.Lfunc_begin11:
	.loc	3 1100 0                        @ rt-thread/components/net/lwip-2.0.2/src/apps/mqtt/mqtt.c:1100:0
	.fnstart
	.cfi_startproc
@ %bb.0:
	.save	{r7, lr}
	push	{r7, lr}
	.cfi_def_cfa_offset 8
	.cfi_offset lr, -4
	.cfi_offset r7, -8
	.pad	#64
	sub	sp, #64
	.cfi_def_cfa_offset 72
	mov	r12, r0
	ldr	r0, [sp, #76]
	ldr.w	lr, [sp, #72]
                                        @ kill: def $lr killed $r2
	str.w	r12, [sp, #56]
	str	r1, [sp, #52]
	strb.w	r2, [sp, #51]
	str	r3, [sp, #44]
	strb.w	r0, [sp, #43]
.Ltmp170:
	.loc	3 1108 3 prologue_end           @ rt-thread/components/net/lwip-2.0.2/src/apps/mqtt/mqtt.c:1108:3
	b	.LBB11_1
.LBB11_1:
.Ltmp171:
	.loc	3 1108 3 is_stmt 0              @ rt-thread/components/net/lwip-2.0.2/src/apps/mqtt/mqtt.c:1108:3
	ldr	r0, [sp, #56]
.Ltmp172:
	.loc	3 1108 3                        @ rt-thread/components/net/lwip-2.0.2/src/apps/mqtt/mqtt.c:1108:3
	cbnz	r0, .LBB11_5
	b	.LBB11_2
.LBB11_2:
.Ltmp173:
	.loc	3 1108 3                        @ rt-thread/components/net/lwip-2.0.2/src/apps/mqtt/mqtt.c:1108:3
	b	.LBB11_3
.LBB11_3:
.Ltmp174:
	.loc	3 1108 3                        @ rt-thread/components/net/lwip-2.0.2/src/apps/mqtt/mqtt.c:1108:3
	movw	r0, :lower16:.L.str.6
	movt	r0, :upper16:.L.str.6
	bl	rt_kprintf
	movw	r0, :lower16:.L.str.1
	movt	r0, :upper16:.L.str.1
	movw	r1, #1108
	bl	sys_arch_assert
	b	.LBB11_4
.Ltmp175:
.LBB11_4:
	.loc	3 1108 3                        @ rt-thread/components/net/lwip-2.0.2/src/apps/mqtt/mqtt.c:1108:3
	b	.LBB11_5
.Ltmp176:
.LBB11_5:
	.loc	3 1108 3                        @ rt-thread/components/net/lwip-2.0.2/src/apps/mqtt/mqtt.c:1108:3
	b	.LBB11_6
.Ltmp177:
.LBB11_6:
	.loc	3 1109 3 is_stmt 1              @ rt-thread/components/net/lwip-2.0.2/src/apps/mqtt/mqtt.c:1109:3
	b	.LBB11_7
.LBB11_7:
.Ltmp178:
	.loc	3 1109 3 is_stmt 0              @ rt-thread/components/net/lwip-2.0.2/src/apps/mqtt/mqtt.c:1109:3
	ldr	r0, [sp, #52]
.Ltmp179:
	.loc	3 1109 3                        @ rt-thread/components/net/lwip-2.0.2/src/apps/mqtt/mqtt.c:1109:3
	cbnz	r0, .LBB11_11
	b	.LBB11_8
.LBB11_8:
.Ltmp180:
	.loc	3 1109 3                        @ rt-thread/components/net/lwip-2.0.2/src/apps/mqtt/mqtt.c:1109:3
	b	.LBB11_9
.LBB11_9:
.Ltmp181:
	.loc	3 1109 3                        @ rt-thread/components/net/lwip-2.0.2/src/apps/mqtt/mqtt.c:1109:3
	movw	r0, :lower16:.L.str.7
	movt	r0, :upper16:.L.str.7
	bl	rt_kprintf
	movw	r0, :lower16:.L.str.1
	movt	r0, :upper16:.L.str.1
	movw	r1, #1109
	bl	sys_arch_assert
	b	.LBB11_10
.Ltmp182:
.LBB11_10:
	.loc	3 1109 3                        @ rt-thread/components/net/lwip-2.0.2/src/apps/mqtt/mqtt.c:1109:3
	b	.LBB11_11
.Ltmp183:
.LBB11_11:
	.loc	3 1109 3                        @ rt-thread/components/net/lwip-2.0.2/src/apps/mqtt/mqtt.c:1109:3
	b	.LBB11_12
.Ltmp184:
.LBB11_12:
	.loc	3 1111 25 is_stmt 1             @ rt-thread/components/net/lwip-2.0.2/src/apps/mqtt/mqtt.c:1111:25
	ldr	r0, [sp, #52]
	.loc	3 1111 18 is_stmt 0             @ rt-thread/components/net/lwip-2.0.2/src/apps/mqtt/mqtt.c:1111:18
	bl	strlen
	.loc	3 1111 16                       @ rt-thread/components/net/lwip-2.0.2/src/apps/mqtt/mqtt.c:1111:16
	str	r0, [sp, #36]
	.loc	3 1112 3 is_stmt 1              @ rt-thread/components/net/lwip-2.0.2/src/apps/mqtt/mqtt.c:1112:3
	b	.LBB11_13
.LBB11_13:
.Ltmp185:
	.loc	3 1112 3 is_stmt 0              @ rt-thread/components/net/lwip-2.0.2/src/apps/mqtt/mqtt.c:1112:3
	ldr	r0, [sp, #36]
	movw	r1, #65534
.Ltmp186:
	.loc	3 1112 3                        @ rt-thread/components/net/lwip-2.0.2/src/apps/mqtt/mqtt.c:1112:3
	cmp	r0, r1
	blo	.LBB11_17
	b	.LBB11_14
.LBB11_14:
.Ltmp187:
	.loc	3 1112 3                        @ rt-thread/components/net/lwip-2.0.2/src/apps/mqtt/mqtt.c:1112:3
	b	.LBB11_15
.LBB11_15:
.Ltmp188:
	.loc	3 1112 3                        @ rt-thread/components/net/lwip-2.0.2/src/apps/mqtt/mqtt.c:1112:3
	movw	r0, :lower16:.L.str.8
	movt	r0, :upper16:.L.str.8
	bl	rt_kprintf
	movw	r0, :lower16:.L.str.1
	movt	r0, :upper16:.L.str.1
	mov.w	r1, #1112
	bl	sys_arch_assert
	b	.LBB11_16
.Ltmp189:
.LBB11_16:
	.loc	3 0 3                           @ rt-thread/components/net/lwip-2.0.2/src/apps/mqtt/mqtt.c:0:3
	movs	r0, #240
	.loc	3 1112 3                        @ rt-thread/components/net/lwip-2.0.2/src/apps/mqtt/mqtt.c:1112:3
	strb.w	r0, [sp, #63]
	b	.LBB11_42
.Ltmp190:
.LBB11_17:
	.loc	3 1112 3                        @ rt-thread/components/net/lwip-2.0.2/src/apps/mqtt/mqtt.c:1112:3
	b	.LBB11_18
.Ltmp191:
.LBB11_18:
	.loc	3 1113 22 is_stmt 1             @ rt-thread/components/net/lwip-2.0.2/src/apps/mqtt/mqtt.c:1113:22
	ldr	r0, [sp, #36]
	.loc	3 1113 13 is_stmt 0             @ rt-thread/components/net/lwip-2.0.2/src/apps/mqtt/mqtt.c:1113:13
	strh.w	r0, [sp, #30]
	.loc	3 1115 16 is_stmt 1             @ rt-thread/components/net/lwip-2.0.2/src/apps/mqtt/mqtt.c:1115:16
	ldrh.w	r0, [sp, #30]
	.loc	3 1115 26 is_stmt 0             @ rt-thread/components/net/lwip-2.0.2/src/apps/mqtt/mqtt.c:1115:26
	adds	r1, r0, #1
	.loc	3 1115 37                       @ rt-thread/components/net/lwip-2.0.2/src/apps/mqtt/mqtt.c:1115:37
	ldrb.w	r2, [sp, #43]
	.loc	3 1115 26                       @ rt-thread/components/net/lwip-2.0.2/src/apps/mqtt/mqtt.c:1115:26
	cmp	r2, #0
	it	ne
	movne	r0, r1
	.loc	3 1115 34                       @ rt-thread/components/net/lwip-2.0.2/src/apps/mqtt/mqtt.c:1115:34
	adds	r0, #4
	.loc	3 1115 13                       @ rt-thread/components/net/lwip-2.0.2/src/apps/mqtt/mqtt.c:1115:13
	str	r0, [sp, #32]
	.loc	3 1116 3 is_stmt 1              @ rt-thread/components/net/lwip-2.0.2/src/apps/mqtt/mqtt.c:1116:3
	b	.LBB11_19
.LBB11_19:
.Ltmp192:
	.loc	3 1116 3 is_stmt 0              @ rt-thread/components/net/lwip-2.0.2/src/apps/mqtt/mqtt.c:1116:3
	ldr	r0, [sp, #32]
.Ltmp193:
	.loc	3 1116 3                        @ rt-thread/components/net/lwip-2.0.2/src/apps/mqtt/mqtt.c:1116:3
	cmp.w	r0, #65536
	blo	.LBB11_23
	b	.LBB11_20
.LBB11_20:
.Ltmp194:
	.loc	3 1116 3                        @ rt-thread/components/net/lwip-2.0.2/src/apps/mqtt/mqtt.c:1116:3
	b	.LBB11_21
.LBB11_21:
.Ltmp195:
	.loc	3 1116 3                        @ rt-thread/components/net/lwip-2.0.2/src/apps/mqtt/mqtt.c:1116:3
	movw	r0, :lower16:.L.str.9
	movt	r0, :upper16:.L.str.9
	bl	rt_kprintf
	movw	r0, :lower16:.L.str.1
	movt	r0, :upper16:.L.str.1
	movw	r1, #1116
	bl	sys_arch_assert
	b	.LBB11_22
.Ltmp196:
.LBB11_22:
	.loc	3 0 3                           @ rt-thread/components/net/lwip-2.0.2/src/apps/mqtt/mqtt.c:0:3
	movs	r0, #240
	.loc	3 1116 3                        @ rt-thread/components/net/lwip-2.0.2/src/apps/mqtt/mqtt.c:1116:3
	strb.w	r0, [sp, #63]
	b	.LBB11_42
.Ltmp197:
.LBB11_23:
	.loc	3 1116 3                        @ rt-thread/components/net/lwip-2.0.2/src/apps/mqtt/mqtt.c:1116:3
	b	.LBB11_24
.Ltmp198:
.LBB11_24:
	.loc	3 1117 29 is_stmt 1             @ rt-thread/components/net/lwip-2.0.2/src/apps/mqtt/mqtt.c:1117:29
	ldr	r0, [sp, #32]
	.loc	3 1117 20 is_stmt 0             @ rt-thread/components/net/lwip-2.0.2/src/apps/mqtt/mqtt.c:1117:20
	strh.w	r0, [sp, #28]
	.loc	3 1119 3 is_stmt 1              @ rt-thread/components/net/lwip-2.0.2/src/apps/mqtt/mqtt.c:1119:3
	b	.LBB11_25
.LBB11_25:
.Ltmp199:
	.loc	3 1119 3 is_stmt 0              @ rt-thread/components/net/lwip-2.0.2/src/apps/mqtt/mqtt.c:1119:3
	ldrb.w	r0, [sp, #51]
.Ltmp200:
	.loc	3 1119 3                        @ rt-thread/components/net/lwip-2.0.2/src/apps/mqtt/mqtt.c:1119:3
	cmp	r0, #3
	blt	.LBB11_29
	b	.LBB11_26
.LBB11_26:
.Ltmp201:
	.loc	3 1119 3                        @ rt-thread/components/net/lwip-2.0.2/src/apps/mqtt/mqtt.c:1119:3
	b	.LBB11_27
.LBB11_27:
.Ltmp202:
	.loc	3 1119 3                        @ rt-thread/components/net/lwip-2.0.2/src/apps/mqtt/mqtt.c:1119:3
	movw	r0, :lower16:.L.str.10
	movt	r0, :upper16:.L.str.10
	bl	rt_kprintf
	movw	r0, :lower16:.L.str.1
	movt	r0, :upper16:.L.str.1
	movw	r1, #1119
	bl	sys_arch_assert
	b	.LBB11_28
.Ltmp203:
.LBB11_28:
	.loc	3 1119 3                        @ rt-thread/components/net/lwip-2.0.2/src/apps/mqtt/mqtt.c:1119:3
	b	.LBB11_29
.Ltmp204:
.LBB11_29:
	.loc	3 1119 3                        @ rt-thread/components/net/lwip-2.0.2/src/apps/mqtt/mqtt.c:1119:3
	b	.LBB11_30
.Ltmp205:
.LBB11_30:
	.loc	3 1120 7 is_stmt 1              @ rt-thread/components/net/lwip-2.0.2/src/apps/mqtt/mqtt.c:1120:7
	ldr	r0, [sp, #56]
	.loc	3 1120 15 is_stmt 0             @ rt-thread/components/net/lwip-2.0.2/src/apps/mqtt/mqtt.c:1120:15
	ldrb	r0, [r0, #10]
.Ltmp206:
	.loc	3 1120 7                        @ rt-thread/components/net/lwip-2.0.2/src/apps/mqtt/mqtt.c:1120:7
	cbnz	r0, .LBB11_32
	b	.LBB11_31
.LBB11_31:
	.loc	3 0 7                           @ rt-thread/components/net/lwip-2.0.2/src/apps/mqtt/mqtt.c:0:7
	movs	r0, #245
.Ltmp207:
	.loc	3 1122 5 is_stmt 1              @ rt-thread/components/net/lwip-2.0.2/src/apps/mqtt/mqtt.c:1122:5
	strb.w	r0, [sp, #63]
	b	.LBB11_42
.Ltmp208:
.LBB11_32:
	.loc	3 1125 35                       @ rt-thread/components/net/lwip-2.0.2/src/apps/mqtt/mqtt.c:1125:35
	ldr	r0, [sp, #56]
	.loc	3 1125 12 is_stmt 0             @ rt-thread/components/net/lwip-2.0.2/src/apps/mqtt/mqtt.c:1125:12
	bl	msg_generate_packet_id
	.loc	3 1125 10                       @ rt-thread/components/net/lwip-2.0.2/src/apps/mqtt/mqtt.c:1125:10
	strh.w	r0, [sp, #26]
	.loc	3 1126 27 is_stmt 1             @ rt-thread/components/net/lwip-2.0.2/src/apps/mqtt/mqtt.c:1126:27
	ldr	r0, [sp, #56]
	.loc	3 1126 35 is_stmt 0             @ rt-thread/components/net/lwip-2.0.2/src/apps/mqtt/mqtt.c:1126:35
	adds	r0, #28
	.loc	3 1126 45                       @ rt-thread/components/net/lwip-2.0.2/src/apps/mqtt/mqtt.c:1126:45
	ldrh.w	r1, [sp, #26]
	.loc	3 1126 53                       @ rt-thread/components/net/lwip-2.0.2/src/apps/mqtt/mqtt.c:1126:53
	ldr	r2, [sp, #44]
	.loc	3 1126 57                       @ rt-thread/components/net/lwip-2.0.2/src/apps/mqtt/mqtt.c:1126:57
	ldr	r3, [sp, #72]
	.loc	3 1126 7                        @ rt-thread/components/net/lwip-2.0.2/src/apps/mqtt/mqtt.c:1126:7
	bl	mqtt_create_request
	.loc	3 1126 5                        @ rt-thread/components/net/lwip-2.0.2/src/apps/mqtt/mqtt.c:1126:5
	str	r0, [sp, #20]
.Ltmp209:
	.loc	3 1127 7 is_stmt 1              @ rt-thread/components/net/lwip-2.0.2/src/apps/mqtt/mqtt.c:1127:7
	ldr	r0, [sp, #20]
.Ltmp210:
	.loc	3 1127 7 is_stmt 0              @ rt-thread/components/net/lwip-2.0.2/src/apps/mqtt/mqtt.c:1127:7
	cbnz	r0, .LBB11_34
	b	.LBB11_33
.LBB11_33:
	.loc	3 0 7                           @ rt-thread/components/net/lwip-2.0.2/src/apps/mqtt/mqtt.c:0:7
	movs	r0, #255
.Ltmp211:
	.loc	3 1128 5 is_stmt 1              @ rt-thread/components/net/lwip-2.0.2/src/apps/mqtt/mqtt.c:1128:5
	strb.w	r0, [sp, #63]
	b	.LBB11_42
.Ltmp212:
.LBB11_34:
	.loc	3 1131 32                       @ rt-thread/components/net/lwip-2.0.2/src/apps/mqtt/mqtt.c:1131:32
	ldr	r0, [sp, #56]
	.loc	3 1131 40 is_stmt 0             @ rt-thread/components/net/lwip-2.0.2/src/apps/mqtt/mqtt.c:1131:40
	adds	r0, #236
	.loc	3 1131 48                       @ rt-thread/components/net/lwip-2.0.2/src/apps/mqtt/mqtt.c:1131:48
	ldrh.w	r1, [sp, #28]
	.loc	3 1131 7                        @ rt-thread/components/net/lwip-2.0.2/src/apps/mqtt/mqtt.c:1131:7
	bl	mqtt_output_check_space
.Ltmp213:
	.loc	3 1131 7                        @ rt-thread/components/net/lwip-2.0.2/src/apps/mqtt/mqtt.c:1131:7
	cbnz	r0, .LBB11_36
	b	.LBB11_35
.LBB11_35:
.Ltmp214:
	.loc	3 1132 25 is_stmt 1             @ rt-thread/components/net/lwip-2.0.2/src/apps/mqtt/mqtt.c:1132:25
	ldr	r0, [sp, #20]
	.loc	3 1132 5 is_stmt 0              @ rt-thread/components/net/lwip-2.0.2/src/apps/mqtt/mqtt.c:1132:5
	bl	mqtt_delete_request
	movs	r0, #255
	.loc	3 1133 5 is_stmt 1              @ rt-thread/components/net/lwip-2.0.2/src/apps/mqtt/mqtt.c:1133:5
	strb.w	r0, [sp, #63]
	b	.LBB11_42
.Ltmp215:
.LBB11_36:
	.loc	3 1138 36                       @ rt-thread/components/net/lwip-2.0.2/src/apps/mqtt/mqtt.c:1138:36
	ldr	r0, [sp, #56]
	.loc	3 1138 44 is_stmt 0             @ rt-thread/components/net/lwip-2.0.2/src/apps/mqtt/mqtt.c:1138:44
	adds	r0, #236
	.loc	3 1138 52                       @ rt-thread/components/net/lwip-2.0.2/src/apps/mqtt/mqtt.c:1138:52
	ldrb.w	r2, [sp, #43]
	movs	r1, #10
	cmp	r2, #0
	it	ne
	movne	r1, #8
	.loc	3 1138 120                      @ rt-thread/components/net/lwip-2.0.2/src/apps/mqtt/mqtt.c:1138:120
	ldrh.w	r2, [sp, #28]
	.loc	3 1138 3                        @ rt-thread/components/net/lwip-2.0.2/src/apps/mqtt/mqtt.c:1138:3
	mov	r3, sp
	str	r2, [r3, #4]
	movs	r2, #0
	str	r2, [r3]
	movs	r3, #1
	bl	mqtt_output_append_fixed_header
	.loc	3 1140 27 is_stmt 1             @ rt-thread/components/net/lwip-2.0.2/src/apps/mqtt/mqtt.c:1140:27
	ldr	r0, [sp, #56]
	.loc	3 1140 35 is_stmt 0             @ rt-thread/components/net/lwip-2.0.2/src/apps/mqtt/mqtt.c:1140:35
	adds	r0, #236
	.loc	3 1140 43                       @ rt-thread/components/net/lwip-2.0.2/src/apps/mqtt/mqtt.c:1140:43
	ldrh.w	r1, [sp, #26]
	.loc	3 1140 3                        @ rt-thread/components/net/lwip-2.0.2/src/apps/mqtt/mqtt.c:1140:3
	bl	mqtt_output_append_u16
	.loc	3 1142 30 is_stmt 1             @ rt-thread/components/net/lwip-2.0.2/src/apps/mqtt/mqtt.c:1142:30
	ldr	r0, [sp, #56]
	.loc	3 1142 38 is_stmt 0             @ rt-thread/components/net/lwip-2.0.2/src/apps/mqtt/mqtt.c:1142:38
	adds	r0, #236
	.loc	3 1142 46                       @ rt-thread/components/net/lwip-2.0.2/src/apps/mqtt/mqtt.c:1142:46
	ldr	r1, [sp, #52]
	.loc	3 1142 53                       @ rt-thread/components/net/lwip-2.0.2/src/apps/mqtt/mqtt.c:1142:53
	ldrh.w	r2, [sp, #30]
	.loc	3 1142 3                        @ rt-thread/components/net/lwip-2.0.2/src/apps/mqtt/mqtt.c:1142:3
	bl	mqtt_output_append_string
.Ltmp216:
	.loc	3 1144 7 is_stmt 1              @ rt-thread/components/net/lwip-2.0.2/src/apps/mqtt/mqtt.c:1144:7
	ldrb.w	r0, [sp, #43]
.Ltmp217:
	.loc	3 1144 7 is_stmt 0              @ rt-thread/components/net/lwip-2.0.2/src/apps/mqtt/mqtt.c:1144:7
	cbz	r0, .LBB11_41
	b	.LBB11_37
.LBB11_37:
.Ltmp218:
	.loc	3 1145 28 is_stmt 1             @ rt-thread/components/net/lwip-2.0.2/src/apps/mqtt/mqtt.c:1145:28
	ldr	r0, [sp, #56]
	.loc	3 1145 36 is_stmt 0             @ rt-thread/components/net/lwip-2.0.2/src/apps/mqtt/mqtt.c:1145:36
	adds	r0, #236
	.loc	3 1145 44                       @ rt-thread/components/net/lwip-2.0.2/src/apps/mqtt/mqtt.c:1145:44
	str	r0, [sp, #16]                   @ 4-byte Spill
	ldrb.w	r0, [sp, #51]
	cmp	r0, #1
	bgt	.LBB11_39
	b	.LBB11_38
.LBB11_38:
	ldrb.w	r0, [sp, #51]
	str	r0, [sp, #12]                   @ 4-byte Spill
	b	.LBB11_40
.LBB11_39:
	.loc	3 0 44                          @ rt-thread/components/net/lwip-2.0.2/src/apps/mqtt/mqtt.c:0:44
	movs	r0, #2
	.loc	3 1145 44                       @ rt-thread/components/net/lwip-2.0.2/src/apps/mqtt/mqtt.c:1145:44
	str	r0, [sp, #12]                   @ 4-byte Spill
	b	.LBB11_40
.LBB11_40:
	ldr	r0, [sp, #16]                   @ 4-byte Reload
	ldr	r1, [sp, #12]                   @ 4-byte Reload
	.loc	3 1145 5                        @ rt-thread/components/net/lwip-2.0.2/src/apps/mqtt/mqtt.c:1145:5
	uxtb	r1, r1
	bl	mqtt_output_append_u8
	.loc	3 1146 3 is_stmt 1              @ rt-thread/components/net/lwip-2.0.2/src/apps/mqtt/mqtt.c:1146:3
	b	.LBB11_41
.Ltmp219:
.LBB11_41:
	.loc	3 1148 24                       @ rt-thread/components/net/lwip-2.0.2/src/apps/mqtt/mqtt.c:1148:24
	ldr	r0, [sp, #56]
	.loc	3 1148 32 is_stmt 0             @ rt-thread/components/net/lwip-2.0.2/src/apps/mqtt/mqtt.c:1148:32
	adds	r0, #24
	.loc	3 1148 48                       @ rt-thread/components/net/lwip-2.0.2/src/apps/mqtt/mqtt.c:1148:48
	ldr	r1, [sp, #20]
	.loc	3 1148 3                        @ rt-thread/components/net/lwip-2.0.2/src/apps/mqtt/mqtt.c:1148:3
	bl	mqtt_append_request
	.loc	3 1149 21 is_stmt 1             @ rt-thread/components/net/lwip-2.0.2/src/apps/mqtt/mqtt.c:1149:21
	ldr	r1, [sp, #56]
	.loc	3 1149 29 is_stmt 0             @ rt-thread/components/net/lwip-2.0.2/src/apps/mqtt/mqtt.c:1149:29
	add.w	r0, r1, #236
	.loc	3 1149 45                       @ rt-thread/components/net/lwip-2.0.2/src/apps/mqtt/mqtt.c:1149:45
	ldr	r1, [r1, #12]
	.loc	3 1149 3                        @ rt-thread/components/net/lwip-2.0.2/src/apps/mqtt/mqtt.c:1149:3
	bl	mqtt_output_send
	movs	r0, #0
	.loc	3 1150 3 is_stmt 1              @ rt-thread/components/net/lwip-2.0.2/src/apps/mqtt/mqtt.c:1150:3
	strb.w	r0, [sp, #63]
	b	.LBB11_42
.LBB11_42:
	.loc	3 1151 1                        @ rt-thread/components/net/lwip-2.0.2/src/apps/mqtt/mqtt.c:1151:1
	ldrsb.w	r0, [sp, #63]
	add	sp, #64
	pop	{r7, pc}
.Ltmp220:
.Lfunc_end11:
	.size	mqtt_sub_unsub, .Lfunc_end11-mqtt_sub_unsub
	.cfi_endproc
	.cantunwind
	.fnend
                                        @ -- End function
	.section	.text.mqtt_output_append_u8,"ax",%progbits
	.p2align	3                               @ -- Begin function mqtt_output_append_u8
	.type	mqtt_output_append_u8,%function
	.code	16                              @ @mqtt_output_append_u8
	.thumb_func
mqtt_output_append_u8:
.Lfunc_begin12:
	.loc	3 420 0                         @ rt-thread/components/net/lwip-2.0.2/src/apps/mqtt/mqtt.c:420:0
	.fnstart
	.cfi_startproc
@ %bb.0:
	.pad	#8
	sub	sp, #8
	.cfi_def_cfa_offset 8
                                        @ kill: def $r2 killed $r1
	str	r0, [sp, #4]
	strb.w	r1, [sp, #3]
.Ltmp221:
	.loc	3 421 3 prologue_end            @ rt-thread/components/net/lwip-2.0.2/src/apps/mqtt/mqtt.c:421:3
	ldrb.w	r0, [sp, #3]
	ldr	r3, [sp, #4]
	ldrh	r2, [r3]
	uxtab	r1, r3, r2
	adds	r2, #1
	strh	r2, [r3]
	strb	r0, [r1, #4]
	.loc	3 422 1                         @ rt-thread/components/net/lwip-2.0.2/src/apps/mqtt/mqtt.c:422:1
	add	sp, #8
	bx	lr
.Ltmp222:
.Lfunc_end12:
	.size	mqtt_output_append_u8, .Lfunc_end12-mqtt_output_append_u8
	.cfi_endproc
	.cantunwind
	.fnend
                                        @ -- End function
	.section	.text.mqtt_set_inpub_callback,"ax",%progbits
	.hidden	mqtt_set_inpub_callback         @ -- Begin function mqtt_set_inpub_callback
	.globl	mqtt_set_inpub_callback
	.p2align	3
	.type	mqtt_set_inpub_callback,%function
	.code	16                              @ @mqtt_set_inpub_callback
	.thumb_func
mqtt_set_inpub_callback:
.Lfunc_begin13:
	.loc	3 1165 0                        @ rt-thread/components/net/lwip-2.0.2/src/apps/mqtt/mqtt.c:1165:0
	.fnstart
	.cfi_startproc
@ %bb.0:
	.save	{r7, lr}
	push	{r7, lr}
	.cfi_def_cfa_offset 8
	.cfi_offset lr, -4
	.cfi_offset r7, -8
	.pad	#16
	sub	sp, #16
	.cfi_def_cfa_offset 24
	str	r0, [sp, #12]
	str	r1, [sp, #8]
	str	r2, [sp, #4]
	str	r3, [sp]
.Ltmp223:
	.loc	3 1166 3 prologue_end           @ rt-thread/components/net/lwip-2.0.2/src/apps/mqtt/mqtt.c:1166:3
	b	.LBB13_1
.LBB13_1:
.Ltmp224:
	.loc	3 1166 3 is_stmt 0              @ rt-thread/components/net/lwip-2.0.2/src/apps/mqtt/mqtt.c:1166:3
	ldr	r0, [sp, #12]
.Ltmp225:
	.loc	3 1166 3                        @ rt-thread/components/net/lwip-2.0.2/src/apps/mqtt/mqtt.c:1166:3
	cbnz	r0, .LBB13_5
	b	.LBB13_2
.LBB13_2:
.Ltmp226:
	.loc	3 1166 3                        @ rt-thread/components/net/lwip-2.0.2/src/apps/mqtt/mqtt.c:1166:3
	b	.LBB13_3
.LBB13_3:
.Ltmp227:
	.loc	3 1166 3                        @ rt-thread/components/net/lwip-2.0.2/src/apps/mqtt/mqtt.c:1166:3
	movw	r0, :lower16:.L.str.11
	movt	r0, :upper16:.L.str.11
	bl	rt_kprintf
	movw	r0, :lower16:.L.str.1
	movt	r0, :upper16:.L.str.1
	movw	r1, #1166
	bl	sys_arch_assert
	b	.LBB13_4
.Ltmp228:
.LBB13_4:
	.loc	3 1166 3                        @ rt-thread/components/net/lwip-2.0.2/src/apps/mqtt/mqtt.c:1166:3
	b	.LBB13_5
.Ltmp229:
.LBB13_5:
	.loc	3 1166 3                        @ rt-thread/components/net/lwip-2.0.2/src/apps/mqtt/mqtt.c:1166:3
	b	.LBB13_6
.Ltmp230:
.LBB13_6:
	.loc	3 1167 21 is_stmt 1             @ rt-thread/components/net/lwip-2.0.2/src/apps/mqtt/mqtt.c:1167:21
	ldr	r0, [sp, #4]
	.loc	3 1167 3 is_stmt 0              @ rt-thread/components/net/lwip-2.0.2/src/apps/mqtt/mqtt.c:1167:3
	ldr	r1, [sp, #12]
	.loc	3 1167 19                       @ rt-thread/components/net/lwip-2.0.2/src/apps/mqtt/mqtt.c:1167:19
	str	r0, [r1, #96]
	.loc	3 1168 20 is_stmt 1             @ rt-thread/components/net/lwip-2.0.2/src/apps/mqtt/mqtt.c:1168:20
	ldr	r0, [sp, #8]
	.loc	3 1168 3 is_stmt 0              @ rt-thread/components/net/lwip-2.0.2/src/apps/mqtt/mqtt.c:1168:3
	ldr	r1, [sp, #12]
	.loc	3 1168 18                       @ rt-thread/components/net/lwip-2.0.2/src/apps/mqtt/mqtt.c:1168:18
	str	r0, [r1, #100]
	.loc	3 1169 23 is_stmt 1             @ rt-thread/components/net/lwip-2.0.2/src/apps/mqtt/mqtt.c:1169:23
	ldr	r0, [sp]
	.loc	3 1169 3 is_stmt 0              @ rt-thread/components/net/lwip-2.0.2/src/apps/mqtt/mqtt.c:1169:3
	ldr	r1, [sp, #12]
	.loc	3 1169 21                       @ rt-thread/components/net/lwip-2.0.2/src/apps/mqtt/mqtt.c:1169:21
	str	r0, [r1, #92]
	.loc	3 1170 1 is_stmt 1              @ rt-thread/components/net/lwip-2.0.2/src/apps/mqtt/mqtt.c:1170:1
	add	sp, #16
	pop	{r7, pc}
.Ltmp231:
.Lfunc_end13:
	.size	mqtt_set_inpub_callback, .Lfunc_end13-mqtt_set_inpub_callback
	.cfi_endproc
	.cantunwind
	.fnend
                                        @ -- End function
	.section	.text.mqtt_client_new,"ax",%progbits
	.hidden	mqtt_client_new                 @ -- Begin function mqtt_client_new
	.globl	mqtt_client_new
	.p2align	3
	.type	mqtt_client_new,%function
	.code	16                              @ @mqtt_client_new
	.thumb_func
mqtt_client_new:
.Lfunc_begin14:
	.loc	3 1179 0                        @ rt-thread/components/net/lwip-2.0.2/src/apps/mqtt/mqtt.c:1179:0
	.fnstart
	.cfi_startproc
@ %bb.0:
	.save	{r7, lr}
	push	{r7, lr}
	.cfi_def_cfa_offset 8
	.cfi_offset lr, -4
	.cfi_offset r7, -8
	.pad	#8
	sub	sp, #8
	.cfi_def_cfa_offset 16
	mov.w	r0, #496
.Ltmp232:
	.loc	3 1180 44 prologue_end          @ rt-thread/components/net/lwip-2.0.2/src/apps/mqtt/mqtt.c:1180:44
	bl	mem_malloc
	.loc	3 1180 18 is_stmt 0             @ rt-thread/components/net/lwip-2.0.2/src/apps/mqtt/mqtt.c:1180:18
	str	r0, [sp, #4]
.Ltmp233:
	.loc	3 1181 7 is_stmt 1              @ rt-thread/components/net/lwip-2.0.2/src/apps/mqtt/mqtt.c:1181:7
	ldr	r0, [sp, #4]
.Ltmp234:
	.loc	3 1181 7 is_stmt 0              @ rt-thread/components/net/lwip-2.0.2/src/apps/mqtt/mqtt.c:1181:7
	cbz	r0, .LBB14_2
	b	.LBB14_1
.LBB14_1:
.Ltmp235:
	.loc	3 1182 12 is_stmt 1             @ rt-thread/components/net/lwip-2.0.2/src/apps/mqtt/mqtt.c:1182:12
	ldr	r0, [sp, #4]
	mov.w	r1, #496
	.loc	3 1182 5 is_stmt 0              @ rt-thread/components/net/lwip-2.0.2/src/apps/mqtt/mqtt.c:1182:5
	bl	__aeabi_memclr4
	.loc	3 1183 3 is_stmt 1              @ rt-thread/components/net/lwip-2.0.2/src/apps/mqtt/mqtt.c:1183:3
	b	.LBB14_2
.Ltmp236:
.LBB14_2:
	.loc	3 1184 10                       @ rt-thread/components/net/lwip-2.0.2/src/apps/mqtt/mqtt.c:1184:10
	ldr	r0, [sp, #4]
	.loc	3 1184 3 is_stmt 0              @ rt-thread/components/net/lwip-2.0.2/src/apps/mqtt/mqtt.c:1184:3
	add	sp, #8
	pop	{r7, pc}
.Ltmp237:
.Lfunc_end14:
	.size	mqtt_client_new, .Lfunc_end14-mqtt_client_new
	.cfi_endproc
	.cantunwind
	.fnend
                                        @ -- End function
	.section	.text.mqtt_client_connect,"ax",%progbits
	.hidden	mqtt_client_connect             @ -- Begin function mqtt_client_connect
	.globl	mqtt_client_connect
	.p2align	3
	.type	mqtt_client_connect,%function
	.code	16                              @ @mqtt_client_connect
	.thumb_func
mqtt_client_connect:
.Lfunc_begin15:
	.loc	3 1202 0 is_stmt 1              @ rt-thread/components/net/lwip-2.0.2/src/apps/mqtt/mqtt.c:1202:0
	.fnstart
	.cfi_startproc
@ %bb.0:
	.save	{r7, lr}
	push	{r7, lr}
	.cfi_def_cfa_offset 8
	.cfi_offset lr, -4
	.cfi_offset r7, -8
	.pad	#64
	sub	sp, #64
	.cfi_def_cfa_offset 72
	ldr.w	r12, [sp, #76]
	ldr.w	r12, [sp, #72]
                                        @ kill: def $r12 killed $r2
	str	r0, [sp, #56]
	str	r1, [sp, #52]
	strh.w	r2, [sp, #50]
	str	r3, [sp, #44]
	movs	r0, #10
.Ltmp238:
	.loc	3 1207 9 prologue_end           @ rt-thread/components/net/lwip-2.0.2/src/apps/mqtt/mqtt.c:1207:9
	strh.w	r0, [sp, #32]
	movs	r0, #0
	.loc	3 1208 8                        @ rt-thread/components/net/lwip-2.0.2/src/apps/mqtt/mqtt.c:1208:8
	strb.w	r0, [sp, #31]
	.loc	3 1208 19 is_stmt 0             @ rt-thread/components/net/lwip-2.0.2/src/apps/mqtt/mqtt.c:1208:19
	strb.w	r0, [sp, #30]
	.loc	3 1208 39                       @ rt-thread/components/net/lwip-2.0.2/src/apps/mqtt/mqtt.c:1208:39
	strb.w	r0, [sp, #29]
	.loc	3 1210 3 is_stmt 1              @ rt-thread/components/net/lwip-2.0.2/src/apps/mqtt/mqtt.c:1210:3
	b	.LBB15_1
.LBB15_1:
.Ltmp239:
	.loc	3 1210 3 is_stmt 0              @ rt-thread/components/net/lwip-2.0.2/src/apps/mqtt/mqtt.c:1210:3
	ldr	r0, [sp, #56]
.Ltmp240:
	.loc	3 1210 3                        @ rt-thread/components/net/lwip-2.0.2/src/apps/mqtt/mqtt.c:1210:3
	cbnz	r0, .LBB15_5
	b	.LBB15_2
.LBB15_2:
.Ltmp241:
	.loc	3 1210 3                        @ rt-thread/components/net/lwip-2.0.2/src/apps/mqtt/mqtt.c:1210:3
	b	.LBB15_3
.LBB15_3:
.Ltmp242:
	.loc	3 1210 3                        @ rt-thread/components/net/lwip-2.0.2/src/apps/mqtt/mqtt.c:1210:3
	movw	r0, :lower16:.L.str.12
	movt	r0, :upper16:.L.str.12
	bl	rt_kprintf
	movw	r0, :lower16:.L.str.1
	movt	r0, :upper16:.L.str.1
	movw	r1, #1210
	bl	sys_arch_assert
	b	.LBB15_4
.Ltmp243:
.LBB15_4:
	.loc	3 1210 3                        @ rt-thread/components/net/lwip-2.0.2/src/apps/mqtt/mqtt.c:1210:3
	b	.LBB15_5
.Ltmp244:
.LBB15_5:
	.loc	3 1210 3                        @ rt-thread/components/net/lwip-2.0.2/src/apps/mqtt/mqtt.c:1210:3
	b	.LBB15_6
.Ltmp245:
.LBB15_6:
	.loc	3 1211 3 is_stmt 1              @ rt-thread/components/net/lwip-2.0.2/src/apps/mqtt/mqtt.c:1211:3
	b	.LBB15_7
.LBB15_7:
.Ltmp246:
	.loc	3 1211 3 is_stmt 0              @ rt-thread/components/net/lwip-2.0.2/src/apps/mqtt/mqtt.c:1211:3
	ldr	r0, [sp, #52]
.Ltmp247:
	.loc	3 1211 3                        @ rt-thread/components/net/lwip-2.0.2/src/apps/mqtt/mqtt.c:1211:3
	cbnz	r0, .LBB15_11
	b	.LBB15_8
.LBB15_8:
.Ltmp248:
	.loc	3 1211 3                        @ rt-thread/components/net/lwip-2.0.2/src/apps/mqtt/mqtt.c:1211:3
	b	.LBB15_9
.LBB15_9:
.Ltmp249:
	.loc	3 1211 3                        @ rt-thread/components/net/lwip-2.0.2/src/apps/mqtt/mqtt.c:1211:3
	movw	r0, :lower16:.L.str.13
	movt	r0, :upper16:.L.str.13
	bl	rt_kprintf
	movw	r0, :lower16:.L.str.1
	movt	r0, :upper16:.L.str.1
	movw	r1, #1211
	bl	sys_arch_assert
	b	.LBB15_10
.Ltmp250:
.LBB15_10:
	.loc	3 1211 3                        @ rt-thread/components/net/lwip-2.0.2/src/apps/mqtt/mqtt.c:1211:3
	b	.LBB15_11
.Ltmp251:
.LBB15_11:
	.loc	3 1211 3                        @ rt-thread/components/net/lwip-2.0.2/src/apps/mqtt/mqtt.c:1211:3
	b	.LBB15_12
.Ltmp252:
.LBB15_12:
	.loc	3 1212 3 is_stmt 1              @ rt-thread/components/net/lwip-2.0.2/src/apps/mqtt/mqtt.c:1212:3
	b	.LBB15_13
.LBB15_13:
.Ltmp253:
	.loc	3 1212 3 is_stmt 0              @ rt-thread/components/net/lwip-2.0.2/src/apps/mqtt/mqtt.c:1212:3
	ldr	r0, [sp, #76]
.Ltmp254:
	.loc	3 1212 3                        @ rt-thread/components/net/lwip-2.0.2/src/apps/mqtt/mqtt.c:1212:3
	cbnz	r0, .LBB15_17
	b	.LBB15_14
.LBB15_14:
.Ltmp255:
	.loc	3 1212 3                        @ rt-thread/components/net/lwip-2.0.2/src/apps/mqtt/mqtt.c:1212:3
	b	.LBB15_15
.LBB15_15:
.Ltmp256:
	.loc	3 1212 3                        @ rt-thread/components/net/lwip-2.0.2/src/apps/mqtt/mqtt.c:1212:3
	movw	r0, :lower16:.L.str.14
	movt	r0, :upper16:.L.str.14
	bl	rt_kprintf
	movw	r0, :lower16:.L.str.1
	movt	r0, :upper16:.L.str.1
	movw	r1, #1212
	bl	sys_arch_assert
	b	.LBB15_16
.Ltmp257:
.LBB15_16:
	.loc	3 1212 3                        @ rt-thread/components/net/lwip-2.0.2/src/apps/mqtt/mqtt.c:1212:3
	b	.LBB15_17
.Ltmp258:
.LBB15_17:
	.loc	3 1212 3                        @ rt-thread/components/net/lwip-2.0.2/src/apps/mqtt/mqtt.c:1212:3
	b	.LBB15_18
.Ltmp259:
.LBB15_18:
	.loc	3 1213 3 is_stmt 1              @ rt-thread/components/net/lwip-2.0.2/src/apps/mqtt/mqtt.c:1213:3
	b	.LBB15_19
.LBB15_19:
.Ltmp260:
	.loc	3 1213 3 is_stmt 0              @ rt-thread/components/net/lwip-2.0.2/src/apps/mqtt/mqtt.c:1213:3
	ldr	r0, [sp, #76]
	ldr	r0, [r0]
.Ltmp261:
	.loc	3 1213 3                        @ rt-thread/components/net/lwip-2.0.2/src/apps/mqtt/mqtt.c:1213:3
	cbnz	r0, .LBB15_23
	b	.LBB15_20
.LBB15_20:
.Ltmp262:
	.loc	3 1213 3                        @ rt-thread/components/net/lwip-2.0.2/src/apps/mqtt/mqtt.c:1213:3
	b	.LBB15_21
.LBB15_21:
.Ltmp263:
	.loc	3 1213 3                        @ rt-thread/components/net/lwip-2.0.2/src/apps/mqtt/mqtt.c:1213:3
	movw	r0, :lower16:.L.str.15
	movt	r0, :upper16:.L.str.15
	bl	rt_kprintf
	movw	r0, :lower16:.L.str.1
	movt	r0, :upper16:.L.str.1
	movw	r1, #1213
	bl	sys_arch_assert
	b	.LBB15_22
.Ltmp264:
.LBB15_22:
	.loc	3 1213 3                        @ rt-thread/components/net/lwip-2.0.2/src/apps/mqtt/mqtt.c:1213:3
	b	.LBB15_23
.Ltmp265:
.LBB15_23:
	.loc	3 1213 3                        @ rt-thread/components/net/lwip-2.0.2/src/apps/mqtt/mqtt.c:1213:3
	b	.LBB15_24
.Ltmp266:
.LBB15_24:
	.loc	3 1215 7 is_stmt 1              @ rt-thread/components/net/lwip-2.0.2/src/apps/mqtt/mqtt.c:1215:7
	ldr	r0, [sp, #56]
	.loc	3 1215 15 is_stmt 0             @ rt-thread/components/net/lwip-2.0.2/src/apps/mqtt/mqtt.c:1215:15
	ldrb	r0, [r0, #10]
.Ltmp267:
	.loc	3 1215 7                        @ rt-thread/components/net/lwip-2.0.2/src/apps/mqtt/mqtt.c:1215:7
	cbz	r0, .LBB15_26
	b	.LBB15_25
.LBB15_25:
	.loc	3 0 7                           @ rt-thread/components/net/lwip-2.0.2/src/apps/mqtt/mqtt.c:0:7
	movs	r0, #246
.Ltmp268:
	.loc	3 1217 5 is_stmt 1              @ rt-thread/components/net/lwip-2.0.2/src/apps/mqtt/mqtt.c:1217:5
	strb.w	r0, [sp, #63]
	b	.LBB15_87
.Ltmp269:
.LBB15_26:
	.loc	3 1221 10                       @ rt-thread/components/net/lwip-2.0.2/src/apps/mqtt/mqtt.c:1221:10
	ldr	r0, [sp, #56]
	mov.w	r1, #496
	.loc	3 1221 3 is_stmt 0              @ rt-thread/components/net/lwip-2.0.2/src/apps/mqtt/mqtt.c:1221:3
	bl	__aeabi_memclr4
	.loc	3 1222 25 is_stmt 1             @ rt-thread/components/net/lwip-2.0.2/src/apps/mqtt/mqtt.c:1222:25
	ldr	r0, [sp, #72]
	.loc	3 1222 3 is_stmt 0              @ rt-thread/components/net/lwip-2.0.2/src/apps/mqtt/mqtt.c:1222:3
	ldr	r1, [sp, #56]
	.loc	3 1222 23                       @ rt-thread/components/net/lwip-2.0.2/src/apps/mqtt/mqtt.c:1222:23
	str	r0, [r1, #16]
	.loc	3 1223 24 is_stmt 1             @ rt-thread/components/net/lwip-2.0.2/src/apps/mqtt/mqtt.c:1223:24
	ldr	r0, [sp, #44]
	.loc	3 1223 3 is_stmt 0              @ rt-thread/components/net/lwip-2.0.2/src/apps/mqtt/mqtt.c:1223:3
	ldr	r1, [sp, #56]
	.loc	3 1223 22                       @ rt-thread/components/net/lwip-2.0.2/src/apps/mqtt/mqtt.c:1223:22
	str	r0, [r1, #20]
	.loc	3 1224 24 is_stmt 1             @ rt-thread/components/net/lwip-2.0.2/src/apps/mqtt/mqtt.c:1224:24
	ldr	r0, [sp, #76]
	.loc	3 1224 37 is_stmt 0             @ rt-thread/components/net/lwip-2.0.2/src/apps/mqtt/mqtt.c:1224:37
	ldrh	r0, [r0, #12]
	.loc	3 1224 3                        @ rt-thread/components/net/lwip-2.0.2/src/apps/mqtt/mqtt.c:1224:3
	ldr	r1, [sp, #56]
	.loc	3 1224 22                       @ rt-thread/components/net/lwip-2.0.2/src/apps/mqtt/mqtt.c:1224:22
	strh	r0, [r1, #2]
	.loc	3 1225 22 is_stmt 1             @ rt-thread/components/net/lwip-2.0.2/src/apps/mqtt/mqtt.c:1225:22
	ldr	r0, [sp, #56]
	.loc	3 1225 30 is_stmt 0             @ rt-thread/components/net/lwip-2.0.2/src/apps/mqtt/mqtt.c:1225:30
	adds	r0, #28
	.loc	3 1225 3                        @ rt-thread/components/net/lwip-2.0.2/src/apps/mqtt/mqtt.c:1225:3
	bl	mqtt_init_requests
.Ltmp270:
	.loc	3 1228 7 is_stmt 1              @ rt-thread/components/net/lwip-2.0.2/src/apps/mqtt/mqtt.c:1228:7
	ldr	r0, [sp, #76]
	.loc	3 1228 20 is_stmt 0             @ rt-thread/components/net/lwip-2.0.2/src/apps/mqtt/mqtt.c:1228:20
	ldr	r0, [r0, #16]
	.loc	3 1228 39                       @ rt-thread/components/net/lwip-2.0.2/src/apps/mqtt/mqtt.c:1228:39
	cmp	r0, #0
	beq.w	.LBB15_55
	b	.LBB15_27
.LBB15_27:
	.loc	3 1228 42                       @ rt-thread/components/net/lwip-2.0.2/src/apps/mqtt/mqtt.c:1228:42
	ldr	r0, [sp, #76]
	.loc	3 1228 55                       @ rt-thread/components/net/lwip-2.0.2/src/apps/mqtt/mqtt.c:1228:55
	ldr	r0, [r0, #20]
.Ltmp271:
	.loc	3 1228 7                        @ rt-thread/components/net/lwip-2.0.2/src/apps/mqtt/mqtt.c:1228:7
	cmp	r0, #0
	beq.w	.LBB15_55
	b	.LBB15_28
.LBB15_28:
.Ltmp272:
	.loc	3 1229 11 is_stmt 1             @ rt-thread/components/net/lwip-2.0.2/src/apps/mqtt/mqtt.c:1229:11
	ldrb.w	r0, [sp, #31]
	orr	r0, r0, #4
	strb.w	r0, [sp, #31]
	.loc	3 1230 15                       @ rt-thread/components/net/lwip-2.0.2/src/apps/mqtt/mqtt.c:1230:15
	ldr	r0, [sp, #76]
	ldrb	r0, [r0, #24]
	.loc	3 1230 37 is_stmt 0             @ rt-thread/components/net/lwip-2.0.2/src/apps/mqtt/mqtt.c:1230:37
	and	r1, r0, #3
	.loc	3 1230 11                       @ rt-thread/components/net/lwip-2.0.2/src/apps/mqtt/mqtt.c:1230:11
	ldrb.w	r0, [sp, #31]
	orr.w	r0, r0, r1, lsl #3
	strb.w	r0, [sp, #31]
.Ltmp273:
	.loc	3 1231 9 is_stmt 1              @ rt-thread/components/net/lwip-2.0.2/src/apps/mqtt/mqtt.c:1231:9
	ldr	r0, [sp, #76]
	.loc	3 1231 22 is_stmt 0             @ rt-thread/components/net/lwip-2.0.2/src/apps/mqtt/mqtt.c:1231:22
	ldrb	r0, [r0, #25]
.Ltmp274:
	.loc	3 1231 9                        @ rt-thread/components/net/lwip-2.0.2/src/apps/mqtt/mqtt.c:1231:9
	cbz	r0, .LBB15_30
	b	.LBB15_29
.LBB15_29:
.Ltmp275:
	.loc	3 1232 13 is_stmt 1             @ rt-thread/components/net/lwip-2.0.2/src/apps/mqtt/mqtt.c:1232:13
	ldrb.w	r0, [sp, #31]
	orr	r0, r0, #32
	strb.w	r0, [sp, #31]
	.loc	3 1233 5                        @ rt-thread/components/net/lwip-2.0.2/src/apps/mqtt/mqtt.c:1233:5
	b	.LBB15_30
.Ltmp276:
.LBB15_30:
	.loc	3 1235 18                       @ rt-thread/components/net/lwip-2.0.2/src/apps/mqtt/mqtt.c:1235:18
	ldr	r0, [sp, #76]
	.loc	3 1235 31 is_stmt 0             @ rt-thread/components/net/lwip-2.0.2/src/apps/mqtt/mqtt.c:1235:31
	ldr	r0, [r0, #16]
	.loc	3 1235 11                       @ rt-thread/components/net/lwip-2.0.2/src/apps/mqtt/mqtt.c:1235:11
	bl	strlen
	.loc	3 1235 9                        @ rt-thread/components/net/lwip-2.0.2/src/apps/mqtt/mqtt.c:1235:9
	str	r0, [sp, #36]
	.loc	3 1236 5 is_stmt 1              @ rt-thread/components/net/lwip-2.0.2/src/apps/mqtt/mqtt.c:1236:5
	b	.LBB15_31
.LBB15_31:
.Ltmp277:
	.loc	3 1236 5 is_stmt 0              @ rt-thread/components/net/lwip-2.0.2/src/apps/mqtt/mqtt.c:1236:5
	ldr	r0, [sp, #36]
.Ltmp278:
	.loc	3 1236 5                        @ rt-thread/components/net/lwip-2.0.2/src/apps/mqtt/mqtt.c:1236:5
	cmp.w	r0, #256
	blo	.LBB15_35
	b	.LBB15_32
.LBB15_32:
.Ltmp279:
	.loc	3 1236 5                        @ rt-thread/components/net/lwip-2.0.2/src/apps/mqtt/mqtt.c:1236:5
	b	.LBB15_33
.LBB15_33:
.Ltmp280:
	.loc	3 1236 5                        @ rt-thread/components/net/lwip-2.0.2/src/apps/mqtt/mqtt.c:1236:5
	movw	r0, :lower16:.L.str.16
	movt	r0, :upper16:.L.str.16
	bl	rt_kprintf
	movw	r0, :lower16:.L.str.1
	movt	r0, :upper16:.L.str.1
	movw	r1, #1236
	bl	sys_arch_assert
	b	.LBB15_34
.Ltmp281:
.LBB15_34:
	.loc	3 0 5                           @ rt-thread/components/net/lwip-2.0.2/src/apps/mqtt/mqtt.c:0:5
	movs	r0, #250
	.loc	3 1236 5                        @ rt-thread/components/net/lwip-2.0.2/src/apps/mqtt/mqtt.c:1236:5
	strb.w	r0, [sp, #63]
	b	.LBB15_87
.Ltmp282:
.LBB15_35:
	.loc	3 1236 5                        @ rt-thread/components/net/lwip-2.0.2/src/apps/mqtt/mqtt.c:1236:5
	b	.LBB15_36
.Ltmp283:
.LBB15_36:
	.loc	3 1237 5 is_stmt 1              @ rt-thread/components/net/lwip-2.0.2/src/apps/mqtt/mqtt.c:1237:5
	b	.LBB15_37
.LBB15_37:
.Ltmp284:
	.loc	3 1237 5 is_stmt 0              @ rt-thread/components/net/lwip-2.0.2/src/apps/mqtt/mqtt.c:1237:5
	ldr	r0, [sp, #36]
.Ltmp285:
	.loc	3 1237 5                        @ rt-thread/components/net/lwip-2.0.2/src/apps/mqtt/mqtt.c:1237:5
	cbnz	r0, .LBB15_41
	b	.LBB15_38
.LBB15_38:
.Ltmp286:
	.loc	3 1237 5                        @ rt-thread/components/net/lwip-2.0.2/src/apps/mqtt/mqtt.c:1237:5
	b	.LBB15_39
.LBB15_39:
.Ltmp287:
	.loc	3 1237 5                        @ rt-thread/components/net/lwip-2.0.2/src/apps/mqtt/mqtt.c:1237:5
	movw	r0, :lower16:.L.str.17
	movt	r0, :upper16:.L.str.17
	bl	rt_kprintf
	movw	r0, :lower16:.L.str.1
	movt	r0, :upper16:.L.str.1
	movw	r1, #1237
	bl	sys_arch_assert
	b	.LBB15_40
.Ltmp288:
.LBB15_40:
	.loc	3 0 5                           @ rt-thread/components/net/lwip-2.0.2/src/apps/mqtt/mqtt.c:0:5
	movs	r0, #250
	.loc	3 1237 5                        @ rt-thread/components/net/lwip-2.0.2/src/apps/mqtt/mqtt.c:1237:5
	strb.w	r0, [sp, #63]
	b	.LBB15_87
.Ltmp289:
.LBB15_41:
	.loc	3 1237 5                        @ rt-thread/components/net/lwip-2.0.2/src/apps/mqtt/mqtt.c:1237:5
	b	.LBB15_42
.Ltmp290:
.LBB15_42:
	.loc	3 1238 28 is_stmt 1             @ rt-thread/components/net/lwip-2.0.2/src/apps/mqtt/mqtt.c:1238:28
	ldr	r0, [sp, #36]
	.loc	3 1238 20 is_stmt 0             @ rt-thread/components/net/lwip-2.0.2/src/apps/mqtt/mqtt.c:1238:20
	strb.w	r0, [sp, #30]
	.loc	3 1239 18 is_stmt 1             @ rt-thread/components/net/lwip-2.0.2/src/apps/mqtt/mqtt.c:1239:18
	ldr	r0, [sp, #76]
	.loc	3 1239 31 is_stmt 0             @ rt-thread/components/net/lwip-2.0.2/src/apps/mqtt/mqtt.c:1239:31
	ldr	r0, [r0, #20]
	.loc	3 1239 11                       @ rt-thread/components/net/lwip-2.0.2/src/apps/mqtt/mqtt.c:1239:11
	bl	strlen
	.loc	3 1239 9                        @ rt-thread/components/net/lwip-2.0.2/src/apps/mqtt/mqtt.c:1239:9
	str	r0, [sp, #36]
	.loc	3 1240 5 is_stmt 1              @ rt-thread/components/net/lwip-2.0.2/src/apps/mqtt/mqtt.c:1240:5
	b	.LBB15_43
.LBB15_43:
.Ltmp291:
	.loc	3 1240 5 is_stmt 0              @ rt-thread/components/net/lwip-2.0.2/src/apps/mqtt/mqtt.c:1240:5
	ldr	r0, [sp, #36]
.Ltmp292:
	.loc	3 1240 5                        @ rt-thread/components/net/lwip-2.0.2/src/apps/mqtt/mqtt.c:1240:5
	cmp.w	r0, #256
	blo	.LBB15_47
	b	.LBB15_44
.LBB15_44:
.Ltmp293:
	.loc	3 1240 5                        @ rt-thread/components/net/lwip-2.0.2/src/apps/mqtt/mqtt.c:1240:5
	b	.LBB15_45
.LBB15_45:
.Ltmp294:
	.loc	3 1240 5                        @ rt-thread/components/net/lwip-2.0.2/src/apps/mqtt/mqtt.c:1240:5
	movw	r0, :lower16:.L.str.18
	movt	r0, :upper16:.L.str.18
	bl	rt_kprintf
	movw	r0, :lower16:.L.str.1
	movt	r0, :upper16:.L.str.1
	mov.w	r1, #1240
	bl	sys_arch_assert
	b	.LBB15_46
.Ltmp295:
.LBB15_46:
	.loc	3 0 5                           @ rt-thread/components/net/lwip-2.0.2/src/apps/mqtt/mqtt.c:0:5
	movs	r0, #250
	.loc	3 1240 5                        @ rt-thread/components/net/lwip-2.0.2/src/apps/mqtt/mqtt.c:1240:5
	strb.w	r0, [sp, #63]
	b	.LBB15_87
.Ltmp296:
.LBB15_47:
	.loc	3 1240 5                        @ rt-thread/components/net/lwip-2.0.2/src/apps/mqtt/mqtt.c:1240:5
	b	.LBB15_48
.Ltmp297:
.LBB15_48:
	.loc	3 1241 26 is_stmt 1             @ rt-thread/components/net/lwip-2.0.2/src/apps/mqtt/mqtt.c:1241:26
	ldr	r0, [sp, #36]
	.loc	3 1241 18 is_stmt 0             @ rt-thread/components/net/lwip-2.0.2/src/apps/mqtt/mqtt.c:1241:18
	strb.w	r0, [sp, #29]
	.loc	3 1242 11 is_stmt 1             @ rt-thread/components/net/lwip-2.0.2/src/apps/mqtt/mqtt.c:1242:11
	ldrh.w	r0, [sp, #32]
	.loc	3 1242 34 is_stmt 0             @ rt-thread/components/net/lwip-2.0.2/src/apps/mqtt/mqtt.c:1242:34
	ldrb.w	r1, [sp, #30]
	.loc	3 1242 28                       @ rt-thread/components/net/lwip-2.0.2/src/apps/mqtt/mqtt.c:1242:28
	add	r0, r1
	.loc	3 1242 55                       @ rt-thread/components/net/lwip-2.0.2/src/apps/mqtt/mqtt.c:1242:55
	ldrb.w	r1, [sp, #29]
	.loc	3 1242 32                       @ rt-thread/components/net/lwip-2.0.2/src/apps/mqtt/mqtt.c:1242:32
	add	r0, r1
	.loc	3 1242 53                       @ rt-thread/components/net/lwip-2.0.2/src/apps/mqtt/mqtt.c:1242:53
	adds	r0, #4
	.loc	3 1242 9                        @ rt-thread/components/net/lwip-2.0.2/src/apps/mqtt/mqtt.c:1242:9
	str	r0, [sp, #36]
	.loc	3 1243 5 is_stmt 1              @ rt-thread/components/net/lwip-2.0.2/src/apps/mqtt/mqtt.c:1243:5
	b	.LBB15_49
.LBB15_49:
.Ltmp298:
	.loc	3 1243 5 is_stmt 0              @ rt-thread/components/net/lwip-2.0.2/src/apps/mqtt/mqtt.c:1243:5
	ldr	r0, [sp, #36]
.Ltmp299:
	.loc	3 1243 5                        @ rt-thread/components/net/lwip-2.0.2/src/apps/mqtt/mqtt.c:1243:5
	cmp.w	r0, #65536
	blo	.LBB15_53
	b	.LBB15_50
.LBB15_50:
.Ltmp300:
	.loc	3 1243 5                        @ rt-thread/components/net/lwip-2.0.2/src/apps/mqtt/mqtt.c:1243:5
	b	.LBB15_51
.LBB15_51:
.Ltmp301:
	.loc	3 1243 5                        @ rt-thread/components/net/lwip-2.0.2/src/apps/mqtt/mqtt.c:1243:5
	movw	r0, :lower16:.L.str.19
	movt	r0, :upper16:.L.str.19
	bl	rt_kprintf
	movw	r0, :lower16:.L.str.1
	movt	r0, :upper16:.L.str.1
	movw	r1, #1243
	bl	sys_arch_assert
	b	.LBB15_52
.Ltmp302:
.LBB15_52:
	.loc	3 0 5                           @ rt-thread/components/net/lwip-2.0.2/src/apps/mqtt/mqtt.c:0:5
	movs	r0, #250
	.loc	3 1243 5                        @ rt-thread/components/net/lwip-2.0.2/src/apps/mqtt/mqtt.c:1243:5
	strb.w	r0, [sp, #63]
	b	.LBB15_87
.Ltmp303:
.LBB15_53:
	.loc	3 1243 5                        @ rt-thread/components/net/lwip-2.0.2/src/apps/mqtt/mqtt.c:1243:5
	b	.LBB15_54
.Ltmp304:
.LBB15_54:
	.loc	3 1244 31 is_stmt 1             @ rt-thread/components/net/lwip-2.0.2/src/apps/mqtt/mqtt.c:1244:31
	ldr	r0, [sp, #36]
	.loc	3 1244 22 is_stmt 0             @ rt-thread/components/net/lwip-2.0.2/src/apps/mqtt/mqtt.c:1244:22
	strh.w	r0, [sp, #32]
	.loc	3 1245 3 is_stmt 1              @ rt-thread/components/net/lwip-2.0.2/src/apps/mqtt/mqtt.c:1245:3
	b	.LBB15_55
.Ltmp305:
.LBB15_55:
	.loc	3 1248 9                        @ rt-thread/components/net/lwip-2.0.2/src/apps/mqtt/mqtt.c:1248:9
	ldrb.w	r0, [sp, #31]
	orr	r0, r0, #2
	strb.w	r0, [sp, #31]
	.loc	3 1250 16                       @ rt-thread/components/net/lwip-2.0.2/src/apps/mqtt/mqtt.c:1250:16
	ldr	r0, [sp, #76]
	.loc	3 1250 29 is_stmt 0             @ rt-thread/components/net/lwip-2.0.2/src/apps/mqtt/mqtt.c:1250:29
	ldr	r0, [r0]
	.loc	3 1250 9                        @ rt-thread/components/net/lwip-2.0.2/src/apps/mqtt/mqtt.c:1250:9
	bl	strlen
	.loc	3 1250 7                        @ rt-thread/components/net/lwip-2.0.2/src/apps/mqtt/mqtt.c:1250:7
	str	r0, [sp, #36]
	.loc	3 1251 3 is_stmt 1              @ rt-thread/components/net/lwip-2.0.2/src/apps/mqtt/mqtt.c:1251:3
	b	.LBB15_56
.LBB15_56:
.Ltmp306:
	.loc	3 1251 3 is_stmt 0              @ rt-thread/components/net/lwip-2.0.2/src/apps/mqtt/mqtt.c:1251:3
	ldr	r0, [sp, #36]
.Ltmp307:
	.loc	3 1251 3                        @ rt-thread/components/net/lwip-2.0.2/src/apps/mqtt/mqtt.c:1251:3
	cmp.w	r0, #65536
	blo	.LBB15_60
	b	.LBB15_57
.LBB15_57:
.Ltmp308:
	.loc	3 1251 3                        @ rt-thread/components/net/lwip-2.0.2/src/apps/mqtt/mqtt.c:1251:3
	b	.LBB15_58
.LBB15_58:
.Ltmp309:
	.loc	3 1251 3                        @ rt-thread/components/net/lwip-2.0.2/src/apps/mqtt/mqtt.c:1251:3
	movw	r0, :lower16:.L.str.20
	movt	r0, :upper16:.L.str.20
	bl	rt_kprintf
	movw	r0, :lower16:.L.str.1
	movt	r0, :upper16:.L.str.1
	movw	r1, #1251
	bl	sys_arch_assert
	b	.LBB15_59
.Ltmp310:
.LBB15_59:
	.loc	3 0 3                           @ rt-thread/components/net/lwip-2.0.2/src/apps/mqtt/mqtt.c:0:3
	movs	r0, #250
	.loc	3 1251 3                        @ rt-thread/components/net/lwip-2.0.2/src/apps/mqtt/mqtt.c:1251:3
	strb.w	r0, [sp, #63]
	b	.LBB15_87
.Ltmp311:
.LBB15_60:
	.loc	3 1251 3                        @ rt-thread/components/net/lwip-2.0.2/src/apps/mqtt/mqtt.c:1251:3
	b	.LBB15_61
.Ltmp312:
.LBB15_61:
	.loc	3 1252 29 is_stmt 1             @ rt-thread/components/net/lwip-2.0.2/src/apps/mqtt/mqtt.c:1252:29
	ldr	r0, [sp, #36]
	.loc	3 1252 20 is_stmt 0             @ rt-thread/components/net/lwip-2.0.2/src/apps/mqtt/mqtt.c:1252:20
	strh.w	r0, [sp, #34]
	.loc	3 1253 9 is_stmt 1              @ rt-thread/components/net/lwip-2.0.2/src/apps/mqtt/mqtt.c:1253:9
	ldrh.w	r0, [sp, #32]
	.loc	3 1253 32 is_stmt 0             @ rt-thread/components/net/lwip-2.0.2/src/apps/mqtt/mqtt.c:1253:32
	ldrh.w	r1, [sp, #34]
	.loc	3 1253 26                       @ rt-thread/components/net/lwip-2.0.2/src/apps/mqtt/mqtt.c:1253:26
	add	r0, r1
	.loc	3 1253 30                       @ rt-thread/components/net/lwip-2.0.2/src/apps/mqtt/mqtt.c:1253:30
	adds	r0, #2
	.loc	3 1253 7                        @ rt-thread/components/net/lwip-2.0.2/src/apps/mqtt/mqtt.c:1253:7
	str	r0, [sp, #36]
	.loc	3 1254 3 is_stmt 1              @ rt-thread/components/net/lwip-2.0.2/src/apps/mqtt/mqtt.c:1254:3
	b	.LBB15_62
.LBB15_62:
.Ltmp313:
	.loc	3 1254 3 is_stmt 0              @ rt-thread/components/net/lwip-2.0.2/src/apps/mqtt/mqtt.c:1254:3
	ldr	r0, [sp, #36]
.Ltmp314:
	.loc	3 1254 3                        @ rt-thread/components/net/lwip-2.0.2/src/apps/mqtt/mqtt.c:1254:3
	cmp.w	r0, #65536
	blo	.LBB15_66
	b	.LBB15_63
.LBB15_63:
.Ltmp315:
	.loc	3 1254 3                        @ rt-thread/components/net/lwip-2.0.2/src/apps/mqtt/mqtt.c:1254:3
	b	.LBB15_64
.LBB15_64:
.Ltmp316:
	.loc	3 1254 3                        @ rt-thread/components/net/lwip-2.0.2/src/apps/mqtt/mqtt.c:1254:3
	movw	r0, :lower16:.L.str.19
	movt	r0, :upper16:.L.str.19
	bl	rt_kprintf
	movw	r0, :lower16:.L.str.1
	movt	r0, :upper16:.L.str.1
	movw	r1, #1254
	bl	sys_arch_assert
	b	.LBB15_65
.Ltmp317:
.LBB15_65:
	.loc	3 0 3                           @ rt-thread/components/net/lwip-2.0.2/src/apps/mqtt/mqtt.c:0:3
	movs	r0, #250
	.loc	3 1254 3                        @ rt-thread/components/net/lwip-2.0.2/src/apps/mqtt/mqtt.c:1254:3
	strb.w	r0, [sp, #63]
	b	.LBB15_87
.Ltmp318:
.LBB15_66:
	.loc	3 1254 3                        @ rt-thread/components/net/lwip-2.0.2/src/apps/mqtt/mqtt.c:1254:3
	b	.LBB15_67
.Ltmp319:
.LBB15_67:
	.loc	3 1256 8 is_stmt 1              @ rt-thread/components/net/lwip-2.0.2/src/apps/mqtt/mqtt.c:1256:8
	ldr	r0, [sp, #76]
	.loc	3 1256 21 is_stmt 0             @ rt-thread/components/net/lwip-2.0.2/src/apps/mqtt/mqtt.c:1256:21
	ldr	r0, [r0, #4]
.Ltmp320:
	.loc	3 1256 8                        @ rt-thread/components/net/lwip-2.0.2/src/apps/mqtt/mqtt.c:1256:8
	cbz	r0, .LBB15_69
	b	.LBB15_68
.LBB15_68:
.Ltmp321:
	.loc	3 1258 15 is_stmt 1             @ rt-thread/components/net/lwip-2.0.2/src/apps/mqtt/mqtt.c:1258:15
	ldrb.w	r0, [sp, #31]
	orr	r0, r0, #128
	strb.w	r0, [sp, #31]
	.loc	3 1259 12                       @ rt-thread/components/net/lwip-2.0.2/src/apps/mqtt/mqtt.c:1259:12
	ldr	r0, [sp, #36]
	adds	r0, #2
	str	r0, [sp, #36]
	.loc	3 1260 21                       @ rt-thread/components/net/lwip-2.0.2/src/apps/mqtt/mqtt.c:1260:21
	ldr	r0, [sp, #76]
	.loc	3 1260 34 is_stmt 0             @ rt-thread/components/net/lwip-2.0.2/src/apps/mqtt/mqtt.c:1260:34
	ldr	r0, [r0, #4]
	.loc	3 1260 14                       @ rt-thread/components/net/lwip-2.0.2/src/apps/mqtt/mqtt.c:1260:14
	bl	strlen
	mov	r1, r0
	.loc	3 1260 12                       @ rt-thread/components/net/lwip-2.0.2/src/apps/mqtt/mqtt.c:1260:12
	ldr	r0, [sp, #36]
	add	r0, r1
	str	r0, [sp, #36]
	.loc	3 1261 5 is_stmt 1              @ rt-thread/components/net/lwip-2.0.2/src/apps/mqtt/mqtt.c:1261:5
	b	.LBB15_69
.Ltmp322:
.LBB15_69:
	.loc	3 1262 8                        @ rt-thread/components/net/lwip-2.0.2/src/apps/mqtt/mqtt.c:1262:8
	ldr	r0, [sp, #76]
	.loc	3 1262 21 is_stmt 0             @ rt-thread/components/net/lwip-2.0.2/src/apps/mqtt/mqtt.c:1262:21
	ldr	r0, [r0, #8]
.Ltmp323:
	.loc	3 1262 8                        @ rt-thread/components/net/lwip-2.0.2/src/apps/mqtt/mqtt.c:1262:8
	cbz	r0, .LBB15_71
	b	.LBB15_70
.LBB15_70:
.Ltmp324:
	.loc	3 1264 15 is_stmt 1             @ rt-thread/components/net/lwip-2.0.2/src/apps/mqtt/mqtt.c:1264:15
	ldrb.w	r0, [sp, #31]
	orr	r0, r0, #64
	strb.w	r0, [sp, #31]
	.loc	3 1265 12                       @ rt-thread/components/net/lwip-2.0.2/src/apps/mqtt/mqtt.c:1265:12
	ldr	r0, [sp, #36]
	adds	r0, #2
	str	r0, [sp, #36]
	.loc	3 1266 21                       @ rt-thread/components/net/lwip-2.0.2/src/apps/mqtt/mqtt.c:1266:21
	ldr	r0, [sp, #76]
	.loc	3 1266 34 is_stmt 0             @ rt-thread/components/net/lwip-2.0.2/src/apps/mqtt/mqtt.c:1266:34
	ldr	r0, [r0, #8]
	.loc	3 1266 14                       @ rt-thread/components/net/lwip-2.0.2/src/apps/mqtt/mqtt.c:1266:14
	bl	strlen
	mov	r1, r0
	.loc	3 1266 12                       @ rt-thread/components/net/lwip-2.0.2/src/apps/mqtt/mqtt.c:1266:12
	ldr	r0, [sp, #36]
	add	r0, r1
	str	r0, [sp, #36]
	.loc	3 1267 5 is_stmt 1              @ rt-thread/components/net/lwip-2.0.2/src/apps/mqtt/mqtt.c:1267:5
	b	.LBB15_71
.Ltmp325:
.LBB15_71:
	.loc	3 1268 31                       @ rt-thread/components/net/lwip-2.0.2/src/apps/mqtt/mqtt.c:1268:31
	ldr	r0, [sp, #36]
	.loc	3 1268 22 is_stmt 0             @ rt-thread/components/net/lwip-2.0.2/src/apps/mqtt/mqtt.c:1268:22
	strh.w	r0, [sp, #32]
.Ltmp326:
	.loc	3 1269 32 is_stmt 1             @ rt-thread/components/net/lwip-2.0.2/src/apps/mqtt/mqtt.c:1269:32
	ldr	r0, [sp, #56]
	.loc	3 1269 40 is_stmt 0             @ rt-thread/components/net/lwip-2.0.2/src/apps/mqtt/mqtt.c:1269:40
	adds	r0, #236
	.loc	3 1269 48                       @ rt-thread/components/net/lwip-2.0.2/src/apps/mqtt/mqtt.c:1269:48
	ldrh.w	r1, [sp, #32]
	.loc	3 1269 7                        @ rt-thread/components/net/lwip-2.0.2/src/apps/mqtt/mqtt.c:1269:7
	bl	mqtt_output_check_space
.Ltmp327:
	.loc	3 1269 7                        @ rt-thread/components/net/lwip-2.0.2/src/apps/mqtt/mqtt.c:1269:7
	cbnz	r0, .LBB15_73
	b	.LBB15_72
.LBB15_72:
	.loc	3 0 7                           @ rt-thread/components/net/lwip-2.0.2/src/apps/mqtt/mqtt.c:0:7
	movs	r0, #255
.Ltmp328:
	.loc	3 1270 5 is_stmt 1              @ rt-thread/components/net/lwip-2.0.2/src/apps/mqtt/mqtt.c:1270:5
	strb.w	r0, [sp, #63]
	b	.LBB15_87
.Ltmp329:
.LBB15_73:
	.loc	3 1273 18                       @ rt-thread/components/net/lwip-2.0.2/src/apps/mqtt/mqtt.c:1273:18
	bl	tcp_new
	.loc	3 1273 3 is_stmt 0              @ rt-thread/components/net/lwip-2.0.2/src/apps/mqtt/mqtt.c:1273:3
	ldr	r1, [sp, #56]
	.loc	3 1273 16                       @ rt-thread/components/net/lwip-2.0.2/src/apps/mqtt/mqtt.c:1273:16
	str	r0, [r1, #12]
.Ltmp330:
	.loc	3 1274 7 is_stmt 1              @ rt-thread/components/net/lwip-2.0.2/src/apps/mqtt/mqtt.c:1274:7
	ldr	r0, [sp, #56]
	.loc	3 1274 15 is_stmt 0             @ rt-thread/components/net/lwip-2.0.2/src/apps/mqtt/mqtt.c:1274:15
	ldr	r0, [r0, #12]
.Ltmp331:
	.loc	3 1274 7                        @ rt-thread/components/net/lwip-2.0.2/src/apps/mqtt/mqtt.c:1274:7
	cbnz	r0, .LBB15_75
	b	.LBB15_74
.LBB15_74:
	.loc	3 0 7                           @ rt-thread/components/net/lwip-2.0.2/src/apps/mqtt/mqtt.c:0:7
	movs	r0, #255
.Ltmp332:
	.loc	3 1275 5 is_stmt 1              @ rt-thread/components/net/lwip-2.0.2/src/apps/mqtt/mqtt.c:1275:5
	strb.w	r0, [sp, #63]
	b	.LBB15_87
.Ltmp333:
.LBB15_75:
	.loc	3 1279 11                       @ rt-thread/components/net/lwip-2.0.2/src/apps/mqtt/mqtt.c:1279:11
	ldr	r1, [sp, #56]
	.loc	3 1279 19 is_stmt 0             @ rt-thread/components/net/lwip-2.0.2/src/apps/mqtt/mqtt.c:1279:19
	ldr	r0, [r1, #12]
	.loc	3 1279 3                        @ rt-thread/components/net/lwip-2.0.2/src/apps/mqtt/mqtt.c:1279:3
	bl	tcp_arg
	.loc	3 1281 18 is_stmt 1             @ rt-thread/components/net/lwip-2.0.2/src/apps/mqtt/mqtt.c:1281:18
	ldr	r0, [sp, #56]
	.loc	3 1281 26 is_stmt 0             @ rt-thread/components/net/lwip-2.0.2/src/apps/mqtt/mqtt.c:1281:26
	ldr	r0, [r0, #12]
	.loc	3 1281 9                        @ rt-thread/components/net/lwip-2.0.2/src/apps/mqtt/mqtt.c:1281:9
	movw	r1, :lower16:ip_addr_any
	movt	r1, :upper16:ip_addr_any
	movs	r2, #0
	bl	tcp_bind
	.loc	3 1281 7                        @ rt-thread/components/net/lwip-2.0.2/src/apps/mqtt/mqtt.c:1281:7
	strb.w	r0, [sp, #43]
.Ltmp334:
	.loc	3 1282 7 is_stmt 1              @ rt-thread/components/net/lwip-2.0.2/src/apps/mqtt/mqtt.c:1282:7
	ldrsb.w	r0, [sp, #43]
.Ltmp335:
	.loc	3 1282 7 is_stmt 0              @ rt-thread/components/net/lwip-2.0.2/src/apps/mqtt/mqtt.c:1282:7
	cbz	r0, .LBB15_77
	b	.LBB15_76
.LBB15_76:
.Ltmp336:
	.loc	3 1284 5 is_stmt 1              @ rt-thread/components/net/lwip-2.0.2/src/apps/mqtt/mqtt.c:1284:5
	b	.LBB15_86
.Ltmp337:
.LBB15_77:
	.loc	3 1289 21                       @ rt-thread/components/net/lwip-2.0.2/src/apps/mqtt/mqtt.c:1289:21
	ldr	r0, [sp, #56]
	.loc	3 1289 29 is_stmt 0             @ rt-thread/components/net/lwip-2.0.2/src/apps/mqtt/mqtt.c:1289:29
	ldr	r0, [r0, #12]
	.loc	3 1289 35                       @ rt-thread/components/net/lwip-2.0.2/src/apps/mqtt/mqtt.c:1289:35
	ldr	r1, [sp, #52]
	.loc	3 1289 44                       @ rt-thread/components/net/lwip-2.0.2/src/apps/mqtt/mqtt.c:1289:44
	ldrh.w	r2, [sp, #50]
	.loc	3 1289 9                        @ rt-thread/components/net/lwip-2.0.2/src/apps/mqtt/mqtt.c:1289:9
	movw	r3, :lower16:mqtt_tcp_connect_cb
	movt	r3, :upper16:mqtt_tcp_connect_cb
	bl	tcp_connect
	.loc	3 1289 7                        @ rt-thread/components/net/lwip-2.0.2/src/apps/mqtt/mqtt.c:1289:7
	strb.w	r0, [sp, #43]
.Ltmp338:
	.loc	3 1290 7 is_stmt 1              @ rt-thread/components/net/lwip-2.0.2/src/apps/mqtt/mqtt.c:1290:7
	ldrsb.w	r0, [sp, #43]
.Ltmp339:
	.loc	3 1290 7 is_stmt 0              @ rt-thread/components/net/lwip-2.0.2/src/apps/mqtt/mqtt.c:1290:7
	cbz	r0, .LBB15_79
	b	.LBB15_78
.LBB15_78:
.Ltmp340:
	.loc	3 1292 5 is_stmt 1              @ rt-thread/components/net/lwip-2.0.2/src/apps/mqtt/mqtt.c:1292:5
	b	.LBB15_86
.Ltmp341:
.LBB15_79:
	.loc	3 1295 11                       @ rt-thread/components/net/lwip-2.0.2/src/apps/mqtt/mqtt.c:1295:11
	ldr	r0, [sp, #56]
	.loc	3 1295 19 is_stmt 0             @ rt-thread/components/net/lwip-2.0.2/src/apps/mqtt/mqtt.c:1295:19
	ldr	r0, [r0, #12]
	.loc	3 1295 3                        @ rt-thread/components/net/lwip-2.0.2/src/apps/mqtt/mqtt.c:1295:3
	movw	r1, :lower16:mqtt_tcp_err_cb
	movt	r1, :upper16:mqtt_tcp_err_cb
	bl	tcp_err
	.loc	3 1296 3 is_stmt 1              @ rt-thread/components/net/lwip-2.0.2/src/apps/mqtt/mqtt.c:1296:3
	ldr	r0, [sp, #56]
	movs	r1, #1
	.loc	3 1296 22 is_stmt 0             @ rt-thread/components/net/lwip-2.0.2/src/apps/mqtt/mqtt.c:1296:22
	strb	r1, [r0, #10]
	.loc	3 1299 36 is_stmt 1             @ rt-thread/components/net/lwip-2.0.2/src/apps/mqtt/mqtt.c:1299:36
	ldr	r0, [sp, #56]
	.loc	3 1299 44 is_stmt 0             @ rt-thread/components/net/lwip-2.0.2/src/apps/mqtt/mqtt.c:1299:44
	adds	r0, #236
	.loc	3 1299 84                       @ rt-thread/components/net/lwip-2.0.2/src/apps/mqtt/mqtt.c:1299:84
	ldrh.w	r3, [sp, #32]
	.loc	3 1299 3                        @ rt-thread/components/net/lwip-2.0.2/src/apps/mqtt/mqtt.c:1299:3
	mov	r2, sp
	str	r3, [r2, #4]
	movs	r3, #0
	str	r3, [r2]
	mov	r2, r3
	bl	mqtt_output_append_fixed_header
	.loc	3 1301 30 is_stmt 1             @ rt-thread/components/net/lwip-2.0.2/src/apps/mqtt/mqtt.c:1301:30
	ldr	r0, [sp, #56]
	.loc	3 1301 38 is_stmt 0             @ rt-thread/components/net/lwip-2.0.2/src/apps/mqtt/mqtt.c:1301:38
	adds	r0, #236
	.loc	3 1301 3                        @ rt-thread/components/net/lwip-2.0.2/src/apps/mqtt/mqtt.c:1301:3
	movw	r1, :lower16:.L.str.21
	movt	r1, :upper16:.L.str.21
	movs	r2, #4
	str	r2, [sp, #24]                   @ 4-byte Spill
	bl	mqtt_output_append_string
	ldr	r1, [sp, #24]                   @ 4-byte Reload
	.loc	3 1303 26 is_stmt 1             @ rt-thread/components/net/lwip-2.0.2/src/apps/mqtt/mqtt.c:1303:26
	ldr	r0, [sp, #56]
	.loc	3 1303 34 is_stmt 0             @ rt-thread/components/net/lwip-2.0.2/src/apps/mqtt/mqtt.c:1303:34
	adds	r0, #236
	.loc	3 1303 3                        @ rt-thread/components/net/lwip-2.0.2/src/apps/mqtt/mqtt.c:1303:3
	bl	mqtt_output_append_u8
	.loc	3 1305 26 is_stmt 1             @ rt-thread/components/net/lwip-2.0.2/src/apps/mqtt/mqtt.c:1305:26
	ldr	r0, [sp, #56]
	.loc	3 1305 34 is_stmt 0             @ rt-thread/components/net/lwip-2.0.2/src/apps/mqtt/mqtt.c:1305:34
	adds	r0, #236
	.loc	3 1305 42                       @ rt-thread/components/net/lwip-2.0.2/src/apps/mqtt/mqtt.c:1305:42
	ldrb.w	r1, [sp, #31]
	.loc	3 1305 3                        @ rt-thread/components/net/lwip-2.0.2/src/apps/mqtt/mqtt.c:1305:3
	bl	mqtt_output_append_u8
	.loc	3 1307 27 is_stmt 1             @ rt-thread/components/net/lwip-2.0.2/src/apps/mqtt/mqtt.c:1307:27
	ldr	r0, [sp, #56]
	.loc	3 1307 35 is_stmt 0             @ rt-thread/components/net/lwip-2.0.2/src/apps/mqtt/mqtt.c:1307:35
	adds	r0, #236
	.loc	3 1307 43                       @ rt-thread/components/net/lwip-2.0.2/src/apps/mqtt/mqtt.c:1307:43
	ldr	r1, [sp, #76]
	.loc	3 1307 56                       @ rt-thread/components/net/lwip-2.0.2/src/apps/mqtt/mqtt.c:1307:56
	ldrh	r1, [r1, #12]
	.loc	3 1307 3                        @ rt-thread/components/net/lwip-2.0.2/src/apps/mqtt/mqtt.c:1307:3
	bl	mqtt_output_append_u16
	.loc	3 1309 30 is_stmt 1             @ rt-thread/components/net/lwip-2.0.2/src/apps/mqtt/mqtt.c:1309:30
	ldr	r0, [sp, #56]
	.loc	3 1309 38 is_stmt 0             @ rt-thread/components/net/lwip-2.0.2/src/apps/mqtt/mqtt.c:1309:38
	adds	r0, #236
	.loc	3 1309 46                       @ rt-thread/components/net/lwip-2.0.2/src/apps/mqtt/mqtt.c:1309:46
	ldr	r1, [sp, #76]
	.loc	3 1309 59                       @ rt-thread/components/net/lwip-2.0.2/src/apps/mqtt/mqtt.c:1309:59
	ldr	r1, [r1]
	.loc	3 1309 70                       @ rt-thread/components/net/lwip-2.0.2/src/apps/mqtt/mqtt.c:1309:70
	ldrh.w	r2, [sp, #34]
	.loc	3 1309 3                        @ rt-thread/components/net/lwip-2.0.2/src/apps/mqtt/mqtt.c:1309:3
	bl	mqtt_output_append_string
.Ltmp342:
	.loc	3 1311 8 is_stmt 1              @ rt-thread/components/net/lwip-2.0.2/src/apps/mqtt/mqtt.c:1311:8
	ldrb.w	r0, [sp, #31]
.Ltmp343:
	.loc	3 1311 7 is_stmt 0              @ rt-thread/components/net/lwip-2.0.2/src/apps/mqtt/mqtt.c:1311:7
	lsls	r0, r0, #29
	cmp	r0, #0
	bpl	.LBB15_81
	b	.LBB15_80
.LBB15_80:
.Ltmp344:
	.loc	3 1312 32 is_stmt 1             @ rt-thread/components/net/lwip-2.0.2/src/apps/mqtt/mqtt.c:1312:32
	ldr	r0, [sp, #56]
	.loc	3 1312 40 is_stmt 0             @ rt-thread/components/net/lwip-2.0.2/src/apps/mqtt/mqtt.c:1312:40
	adds	r0, #236
	.loc	3 1312 48                       @ rt-thread/components/net/lwip-2.0.2/src/apps/mqtt/mqtt.c:1312:48
	ldr	r1, [sp, #76]
	.loc	3 1312 61                       @ rt-thread/components/net/lwip-2.0.2/src/apps/mqtt/mqtt.c:1312:61
	ldr	r1, [r1, #16]
	.loc	3 1312 73                       @ rt-thread/components/net/lwip-2.0.2/src/apps/mqtt/mqtt.c:1312:73
	ldrb.w	r2, [sp, #30]
	.loc	3 1312 5                        @ rt-thread/components/net/lwip-2.0.2/src/apps/mqtt/mqtt.c:1312:5
	bl	mqtt_output_append_string
	.loc	3 1313 32 is_stmt 1             @ rt-thread/components/net/lwip-2.0.2/src/apps/mqtt/mqtt.c:1313:32
	ldr	r0, [sp, #56]
	.loc	3 1313 40 is_stmt 0             @ rt-thread/components/net/lwip-2.0.2/src/apps/mqtt/mqtt.c:1313:40
	adds	r0, #236
	.loc	3 1313 48                       @ rt-thread/components/net/lwip-2.0.2/src/apps/mqtt/mqtt.c:1313:48
	ldr	r1, [sp, #76]
	.loc	3 1313 61                       @ rt-thread/components/net/lwip-2.0.2/src/apps/mqtt/mqtt.c:1313:61
	ldr	r1, [r1, #20]
	.loc	3 1313 71                       @ rt-thread/components/net/lwip-2.0.2/src/apps/mqtt/mqtt.c:1313:71
	ldrb.w	r2, [sp, #29]
	.loc	3 1313 5                        @ rt-thread/components/net/lwip-2.0.2/src/apps/mqtt/mqtt.c:1313:5
	bl	mqtt_output_append_string
	.loc	3 1314 3 is_stmt 1              @ rt-thread/components/net/lwip-2.0.2/src/apps/mqtt/mqtt.c:1314:3
	b	.LBB15_81
.Ltmp345:
.LBB15_81:
	.loc	3 1315 7                        @ rt-thread/components/net/lwip-2.0.2/src/apps/mqtt/mqtt.c:1315:7
	ldrb.w	r0, [sp, #31]
.Ltmp346:
	.loc	3 1315 6 is_stmt 0              @ rt-thread/components/net/lwip-2.0.2/src/apps/mqtt/mqtt.c:1315:6
	lsls	r0, r0, #24
	cmp	r0, #0
	bpl	.LBB15_83
	b	.LBB15_82
.LBB15_82:
.Ltmp347:
	.loc	3 1317 36 is_stmt 1             @ rt-thread/components/net/lwip-2.0.2/src/apps/mqtt/mqtt.c:1317:36
	ldr	r0, [sp, #56]
	.loc	3 1317 44 is_stmt 0             @ rt-thread/components/net/lwip-2.0.2/src/apps/mqtt/mqtt.c:1317:44
	adds	r0, #236
	.loc	3 1317 52                       @ rt-thread/components/net/lwip-2.0.2/src/apps/mqtt/mqtt.c:1317:52
	str	r0, [sp, #20]                   @ 4-byte Spill
	ldr	r0, [sp, #76]
	.loc	3 1317 65                       @ rt-thread/components/net/lwip-2.0.2/src/apps/mqtt/mqtt.c:1317:65
	ldr	r0, [r0, #4]
	.loc	3 1317 78                       @ rt-thread/components/net/lwip-2.0.2/src/apps/mqtt/mqtt.c:1317:78
	str	r0, [sp, #16]                   @ 4-byte Spill
	bl	strlen
	ldr	r1, [sp, #16]                   @ 4-byte Reload
	mov	r2, r0
	.loc	3 1317 9                        @ rt-thread/components/net/lwip-2.0.2/src/apps/mqtt/mqtt.c:1317:9
	ldr	r0, [sp, #20]                   @ 4-byte Reload
	uxth	r2, r2
	bl	mqtt_output_append_string
	.loc	3 1318 5 is_stmt 1              @ rt-thread/components/net/lwip-2.0.2/src/apps/mqtt/mqtt.c:1318:5
	b	.LBB15_83
.Ltmp348:
.LBB15_83:
	.loc	3 1319 9                        @ rt-thread/components/net/lwip-2.0.2/src/apps/mqtt/mqtt.c:1319:9
	ldrb.w	r0, [sp, #31]
.Ltmp349:
	.loc	3 1319 8 is_stmt 0              @ rt-thread/components/net/lwip-2.0.2/src/apps/mqtt/mqtt.c:1319:8
	lsls	r0, r0, #25
	cmp	r0, #0
	bpl	.LBB15_85
	b	.LBB15_84
.LBB15_84:
.Ltmp350:
	.loc	3 1321 36 is_stmt 1             @ rt-thread/components/net/lwip-2.0.2/src/apps/mqtt/mqtt.c:1321:36
	ldr	r0, [sp, #56]
	.loc	3 1321 44 is_stmt 0             @ rt-thread/components/net/lwip-2.0.2/src/apps/mqtt/mqtt.c:1321:44
	adds	r0, #236
	.loc	3 1321 52                       @ rt-thread/components/net/lwip-2.0.2/src/apps/mqtt/mqtt.c:1321:52
	str	r0, [sp, #12]                   @ 4-byte Spill
	ldr	r0, [sp, #76]
	.loc	3 1321 65                       @ rt-thread/components/net/lwip-2.0.2/src/apps/mqtt/mqtt.c:1321:65
	ldr	r0, [r0, #8]
	.loc	3 1321 78                       @ rt-thread/components/net/lwip-2.0.2/src/apps/mqtt/mqtt.c:1321:78
	str	r0, [sp, #8]                    @ 4-byte Spill
	bl	strlen
	ldr	r1, [sp, #8]                    @ 4-byte Reload
	mov	r2, r0
	.loc	3 1321 9                        @ rt-thread/components/net/lwip-2.0.2/src/apps/mqtt/mqtt.c:1321:9
	ldr	r0, [sp, #12]                   @ 4-byte Reload
	uxth	r2, r2
	bl	mqtt_output_append_string
	.loc	3 1322 5 is_stmt 1              @ rt-thread/components/net/lwip-2.0.2/src/apps/mqtt/mqtt.c:1322:5
	b	.LBB15_85
.Ltmp351:
.LBB15_85:
	.loc	3 0 5 is_stmt 0                 @ rt-thread/components/net/lwip-2.0.2/src/apps/mqtt/mqtt.c:0:5
	movs	r0, #0
	.loc	3 1323 3 is_stmt 1              @ rt-thread/components/net/lwip-2.0.2/src/apps/mqtt/mqtt.c:1323:3
	strb.w	r0, [sp, #63]
	b	.LBB15_87
.LBB15_86:
.Ltmp352:
	@DEBUG_LABEL: mqtt_client_connect:tcp_fail
	.loc	3 1326 13                       @ rt-thread/components/net/lwip-2.0.2/src/apps/mqtt/mqtt.c:1326:13
	ldr	r0, [sp, #56]
	.loc	3 1326 21 is_stmt 0             @ rt-thread/components/net/lwip-2.0.2/src/apps/mqtt/mqtt.c:1326:21
	ldr	r0, [r0, #12]
	.loc	3 1326 3                        @ rt-thread/components/net/lwip-2.0.2/src/apps/mqtt/mqtt.c:1326:3
	bl	tcp_abort
	.loc	3 1327 3 is_stmt 1              @ rt-thread/components/net/lwip-2.0.2/src/apps/mqtt/mqtt.c:1327:3
	ldr	r1, [sp, #56]
	movs	r0, #0
	.loc	3 1327 16 is_stmt 0             @ rt-thread/components/net/lwip-2.0.2/src/apps/mqtt/mqtt.c:1327:16
	str	r0, [r1, #12]
	.loc	3 1328 10 is_stmt 1             @ rt-thread/components/net/lwip-2.0.2/src/apps/mqtt/mqtt.c:1328:10
	ldrb.w	r0, [sp, #43]
	.loc	3 1328 3 is_stmt 0              @ rt-thread/components/net/lwip-2.0.2/src/apps/mqtt/mqtt.c:1328:3
	strb.w	r0, [sp, #63]
	b	.LBB15_87
.LBB15_87:
	.loc	3 1329 1 is_stmt 1              @ rt-thread/components/net/lwip-2.0.2/src/apps/mqtt/mqtt.c:1329:1
	ldrsb.w	r0, [sp, #63]
	add	sp, #64
	pop	{r7, pc}
.Ltmp353:
.Lfunc_end15:
	.size	mqtt_client_connect, .Lfunc_end15-mqtt_client_connect
	.cfi_endproc
	.cantunwind
	.fnend
                                        @ -- End function
	.section	.text.mqtt_init_requests,"ax",%progbits
	.p2align	3                               @ -- Begin function mqtt_init_requests
	.type	mqtt_init_requests,%function
	.code	16                              @ @mqtt_init_requests
	.thumb_func
mqtt_init_requests:
.Lfunc_begin16:
	.loc	3 405 0                         @ rt-thread/components/net/lwip-2.0.2/src/apps/mqtt/mqtt.c:405:0
	.fnstart
	.cfi_startproc
@ %bb.0:
	.save	{r7, lr}
	push	{r7, lr}
	.cfi_def_cfa_offset 8
	.cfi_offset lr, -4
	.cfi_offset r7, -8
	.pad	#8
	sub	sp, #8
	.cfi_def_cfa_offset 16
	str	r0, [sp, #4]
.Ltmp354:
	.loc	3 407 3 prologue_end            @ rt-thread/components/net/lwip-2.0.2/src/apps/mqtt/mqtt.c:407:3
	b	.LBB16_1
.LBB16_1:
.Ltmp355:
	.loc	3 407 3 is_stmt 0               @ rt-thread/components/net/lwip-2.0.2/src/apps/mqtt/mqtt.c:407:3
	ldr	r0, [sp, #4]
.Ltmp356:
	.loc	3 407 3                         @ rt-thread/components/net/lwip-2.0.2/src/apps/mqtt/mqtt.c:407:3
	cbnz	r0, .LBB16_5
	b	.LBB16_2
.LBB16_2:
.Ltmp357:
	.loc	3 407 3                         @ rt-thread/components/net/lwip-2.0.2/src/apps/mqtt/mqtt.c:407:3
	b	.LBB16_3
.LBB16_3:
.Ltmp358:
	.loc	3 407 3                         @ rt-thread/components/net/lwip-2.0.2/src/apps/mqtt/mqtt.c:407:3
	movw	r0, :lower16:.L.str.29
	movt	r0, :upper16:.L.str.29
	bl	rt_kprintf
	movw	r0, :lower16:.L.str.1
	movt	r0, :upper16:.L.str.1
	movw	r1, #407
	bl	sys_arch_assert
	b	.LBB16_4
.Ltmp359:
.LBB16_4:
	.loc	3 407 3                         @ rt-thread/components/net/lwip-2.0.2/src/apps/mqtt/mqtt.c:407:3
	b	.LBB16_5
.Ltmp360:
.LBB16_5:
	.loc	3 407 3                         @ rt-thread/components/net/lwip-2.0.2/src/apps/mqtt/mqtt.c:407:3
	b	.LBB16_6
.Ltmp361:
.LBB16_6:
	.loc	3 0 3                           @ rt-thread/components/net/lwip-2.0.2/src/apps/mqtt/mqtt.c:0:3
	movs	r0, #0
.Ltmp362:
	.loc	3 408 10 is_stmt 1              @ rt-thread/components/net/lwip-2.0.2/src/apps/mqtt/mqtt.c:408:10
	strb.w	r0, [sp, #3]
	.loc	3 408 8 is_stmt 0               @ rt-thread/components/net/lwip-2.0.2/src/apps/mqtt/mqtt.c:408:8
	b	.LBB16_7
.LBB16_7:                               @ =>This Inner Loop Header: Depth=1
.Ltmp363:
	.loc	3 408 15                        @ rt-thread/components/net/lwip-2.0.2/src/apps/mqtt/mqtt.c:408:15
	ldrb.w	r0, [sp, #3]
.Ltmp364:
	.loc	3 408 3                         @ rt-thread/components/net/lwip-2.0.2/src/apps/mqtt/mqtt.c:408:3
	cmp	r0, #3
	bgt	.LBB16_10
	b	.LBB16_8
.LBB16_8:                               @   in Loop: Header=BB16_7 Depth=1
.Ltmp365:
	.loc	3 410 23 is_stmt 1              @ rt-thread/components/net/lwip-2.0.2/src/apps/mqtt/mqtt.c:410:23
	ldr	r1, [sp, #4]
	.loc	3 410 30 is_stmt 0              @ rt-thread/components/net/lwip-2.0.2/src/apps/mqtt/mqtt.c:410:30
	ldrb.w	r2, [sp, #3]
	.loc	3 410 23                        @ rt-thread/components/net/lwip-2.0.2/src/apps/mqtt/mqtt.c:410:23
	add.w	r0, r1, r2, lsl #4
	lsls	r2, r2, #4
	.loc	3 410 20                        @ rt-thread/components/net/lwip-2.0.2/src/apps/mqtt/mqtt.c:410:20
	str	r0, [r1, r2]
	.loc	3 411 3 is_stmt 1               @ rt-thread/components/net/lwip-2.0.2/src/apps/mqtt/mqtt.c:411:3
	b	.LBB16_9
.Ltmp366:
.LBB16_9:                               @   in Loop: Header=BB16_7 Depth=1
	.loc	3 408 44                        @ rt-thread/components/net/lwip-2.0.2/src/apps/mqtt/mqtt.c:408:44
	ldrb.w	r0, [sp, #3]
	adds	r0, #1
	strb.w	r0, [sp, #3]
	.loc	3 408 3 is_stmt 0               @ rt-thread/components/net/lwip-2.0.2/src/apps/mqtt/mqtt.c:408:3
	b	.LBB16_7
.Ltmp367:
.LBB16_10:
	.loc	3 412 1 is_stmt 1               @ rt-thread/components/net/lwip-2.0.2/src/apps/mqtt/mqtt.c:412:1
	add	sp, #8
	pop	{r7, pc}
.Ltmp368:
.Lfunc_end16:
	.size	mqtt_init_requests, .Lfunc_end16-mqtt_init_requests
	.cfi_endproc
	.cantunwind
	.fnend
                                        @ -- End function
	.section	.text.mqtt_tcp_connect_cb,"ax",%progbits
	.p2align	3                               @ -- Begin function mqtt_tcp_connect_cb
	.type	mqtt_tcp_connect_cb,%function
	.code	16                              @ @mqtt_tcp_connect_cb
	.thumb_func
mqtt_tcp_connect_cb:
.Lfunc_begin17:
	.loc	3 972 0                         @ rt-thread/components/net/lwip-2.0.2/src/apps/mqtt/mqtt.c:972:0
	.fnstart
	.cfi_startproc
@ %bb.0:
	.save	{r7, lr}
	push	{r7, lr}
	.cfi_def_cfa_offset 8
	.cfi_offset lr, -4
	.cfi_offset r7, -8
	.pad	#32
	sub	sp, #32
	.cfi_def_cfa_offset 40
                                        @ kill: def $r3 killed $r2
	str	r0, [sp, #24]
	str	r1, [sp, #20]
	strb.w	r2, [sp, #19]
.Ltmp369:
	.loc	3 973 44 prologue_end           @ rt-thread/components/net/lwip-2.0.2/src/apps/mqtt/mqtt.c:973:44
	ldr	r0, [sp, #24]
	.loc	3 973 18 is_stmt 0              @ rt-thread/components/net/lwip-2.0.2/src/apps/mqtt/mqtt.c:973:18
	str	r0, [sp, #12]
.Ltmp370:
	.loc	3 975 7 is_stmt 1               @ rt-thread/components/net/lwip-2.0.2/src/apps/mqtt/mqtt.c:975:7
	ldrsb.w	r0, [sp, #19]
.Ltmp371:
	.loc	3 975 7 is_stmt 0               @ rt-thread/components/net/lwip-2.0.2/src/apps/mqtt/mqtt.c:975:7
	cbz	r0, .LBB17_2
	b	.LBB17_1
.LBB17_1:
.Ltmp372:
	.loc	3 977 12 is_stmt 1              @ rt-thread/components/net/lwip-2.0.2/src/apps/mqtt/mqtt.c:977:12
	ldrb.w	r0, [sp, #19]
	.loc	3 977 5 is_stmt 0               @ rt-thread/components/net/lwip-2.0.2/src/apps/mqtt/mqtt.c:977:5
	strb.w	r0, [sp, #31]
	b	.LBB17_3
.Ltmp373:
.LBB17_2:
	.loc	3 981 3 is_stmt 1               @ rt-thread/components/net/lwip-2.0.2/src/apps/mqtt/mqtt.c:981:3
	ldr	r1, [sp, #12]
	movs	r0, #0
	.loc	3 981 19 is_stmt 0              @ rt-thread/components/net/lwip-2.0.2/src/apps/mqtt/mqtt.c:981:19
	str	r0, [sp, #8]                    @ 4-byte Spill
	str	r0, [r1, #104]
	.loc	3 984 12 is_stmt 1              @ rt-thread/components/net/lwip-2.0.2/src/apps/mqtt/mqtt.c:984:12
	ldr	r0, [sp, #20]
	.loc	3 984 3 is_stmt 0               @ rt-thread/components/net/lwip-2.0.2/src/apps/mqtt/mqtt.c:984:3
	movw	r1, :lower16:mqtt_tcp_recv_cb
	movt	r1, :upper16:mqtt_tcp_recv_cb
	bl	tcp_recv
	.loc	3 985 12 is_stmt 1              @ rt-thread/components/net/lwip-2.0.2/src/apps/mqtt/mqtt.c:985:12
	ldr	r0, [sp, #20]
	.loc	3 985 3 is_stmt 0               @ rt-thread/components/net/lwip-2.0.2/src/apps/mqtt/mqtt.c:985:3
	movw	r1, :lower16:mqtt_tcp_sent_cb
	movt	r1, :upper16:mqtt_tcp_sent_cb
	bl	tcp_sent
	.loc	3 986 12 is_stmt 1              @ rt-thread/components/net/lwip-2.0.2/src/apps/mqtt/mqtt.c:986:12
	ldr	r0, [sp, #20]
	.loc	3 986 3 is_stmt 0               @ rt-thread/components/net/lwip-2.0.2/src/apps/mqtt/mqtt.c:986:3
	movw	r1, :lower16:mqtt_tcp_poll_cb
	movt	r1, :upper16:mqtt_tcp_poll_cb
	movs	r2, #2
	str	r2, [sp, #4]                    @ 4-byte Spill
	bl	tcp_poll
	ldr	r0, [sp, #4]                    @ 4-byte Reload
	.loc	3 990 3 is_stmt 1               @ rt-thread/components/net/lwip-2.0.2/src/apps/mqtt/mqtt.c:990:3
	ldr	r1, [sp, #12]
	.loc	3 990 22 is_stmt 0              @ rt-thread/components/net/lwip-2.0.2/src/apps/mqtt/mqtt.c:990:22
	strb	r0, [r1, #10]
	.loc	3 993 67 is_stmt 1              @ rt-thread/components/net/lwip-2.0.2/src/apps/mqtt/mqtt.c:993:67
	ldr	r2, [sp, #12]
	.loc	3 993 3 is_stmt 0               @ rt-thread/components/net/lwip-2.0.2/src/apps/mqtt/mqtt.c:993:3
	movw	r1, :lower16:mqtt_cyclic_timer
	movt	r1, :upper16:mqtt_cyclic_timer
	movw	r0, #5000
	bl	sys_timeout
	ldr	r0, [sp, #8]                    @ 4-byte Reload
	.loc	3 994 3 is_stmt 1               @ rt-thread/components/net/lwip-2.0.2/src/apps/mqtt/mqtt.c:994:3
	ldr	r1, [sp, #12]
	.loc	3 994 23 is_stmt 0              @ rt-thread/components/net/lwip-2.0.2/src/apps/mqtt/mqtt.c:994:23
	strh	r0, [r1]
	.loc	3 997 21 is_stmt 1              @ rt-thread/components/net/lwip-2.0.2/src/apps/mqtt/mqtt.c:997:21
	ldr	r1, [sp, #12]
	.loc	3 997 29 is_stmt 0              @ rt-thread/components/net/lwip-2.0.2/src/apps/mqtt/mqtt.c:997:29
	add.w	r0, r1, #236
	.loc	3 997 45                        @ rt-thread/components/net/lwip-2.0.2/src/apps/mqtt/mqtt.c:997:45
	ldr	r1, [r1, #12]
	.loc	3 997 3                         @ rt-thread/components/net/lwip-2.0.2/src/apps/mqtt/mqtt.c:997:3
	bl	mqtt_output_send
	ldr	r0, [sp, #8]                    @ 4-byte Reload
	.loc	3 999 3 is_stmt 1               @ rt-thread/components/net/lwip-2.0.2/src/apps/mqtt/mqtt.c:999:3
	strb.w	r0, [sp, #31]
	b	.LBB17_3
.LBB17_3:
	.loc	3 1000 1                        @ rt-thread/components/net/lwip-2.0.2/src/apps/mqtt/mqtt.c:1000:1
	ldrsb.w	r0, [sp, #31]
	add	sp, #32
	pop	{r7, pc}
.Ltmp374:
.Lfunc_end17:
	.size	mqtt_tcp_connect_cb, .Lfunc_end17-mqtt_tcp_connect_cb
	.cfi_endproc
	.cantunwind
	.fnend
                                        @ -- End function
	.section	.text.mqtt_tcp_err_cb,"ax",%progbits
	.p2align	3                               @ -- Begin function mqtt_tcp_err_cb
	.type	mqtt_tcp_err_cb,%function
	.code	16                              @ @mqtt_tcp_err_cb
	.thumb_func
mqtt_tcp_err_cb:
.Lfunc_begin18:
	.loc	3 937 0                         @ rt-thread/components/net/lwip-2.0.2/src/apps/mqtt/mqtt.c:937:0
	.fnstart
	.cfi_startproc
@ %bb.0:
	.save	{r7, lr}
	push	{r7, lr}
	.cfi_def_cfa_offset 8
	.cfi_offset lr, -4
	.cfi_offset r7, -8
	.pad	#16
	sub	sp, #16
	.cfi_def_cfa_offset 24
                                        @ kill: def $r2 killed $r1
	str	r0, [sp, #12]
	strb.w	r1, [sp, #11]
.Ltmp375:
	.loc	3 938 44 prologue_end           @ rt-thread/components/net/lwip-2.0.2/src/apps/mqtt/mqtt.c:938:44
	ldr	r0, [sp, #12]
	.loc	3 938 18 is_stmt 0              @ rt-thread/components/net/lwip-2.0.2/src/apps/mqtt/mqtt.c:938:18
	str	r0, [sp, #4]
	.loc	3 941 3 is_stmt 1               @ rt-thread/components/net/lwip-2.0.2/src/apps/mqtt/mqtt.c:941:3
	b	.LBB18_1
.LBB18_1:
.Ltmp376:
	.loc	3 941 3 is_stmt 0               @ rt-thread/components/net/lwip-2.0.2/src/apps/mqtt/mqtt.c:941:3
	ldr	r0, [sp, #4]
.Ltmp377:
	.loc	3 941 3                         @ rt-thread/components/net/lwip-2.0.2/src/apps/mqtt/mqtt.c:941:3
	cbnz	r0, .LBB18_5
	b	.LBB18_2
.LBB18_2:
.Ltmp378:
	.loc	3 941 3                         @ rt-thread/components/net/lwip-2.0.2/src/apps/mqtt/mqtt.c:941:3
	b	.LBB18_3
.LBB18_3:
.Ltmp379:
	.loc	3 941 3                         @ rt-thread/components/net/lwip-2.0.2/src/apps/mqtt/mqtt.c:941:3
	movw	r0, :lower16:.L.str.35
	movt	r0, :upper16:.L.str.35
	bl	rt_kprintf
	movw	r0, :lower16:.L.str.1
	movt	r0, :upper16:.L.str.1
	movw	r1, #941
	bl	sys_arch_assert
	b	.LBB18_4
.Ltmp380:
.LBB18_4:
	.loc	3 941 3                         @ rt-thread/components/net/lwip-2.0.2/src/apps/mqtt/mqtt.c:941:3
	b	.LBB18_5
.Ltmp381:
.LBB18_5:
	.loc	3 941 3                         @ rt-thread/components/net/lwip-2.0.2/src/apps/mqtt/mqtt.c:941:3
	b	.LBB18_6
.Ltmp382:
.LBB18_6:
	.loc	3 943 3 is_stmt 1               @ rt-thread/components/net/lwip-2.0.2/src/apps/mqtt/mqtt.c:943:3
	ldr	r1, [sp, #4]
	movs	r0, #0
	.loc	3 943 16 is_stmt 0              @ rt-thread/components/net/lwip-2.0.2/src/apps/mqtt/mqtt.c:943:16
	str	r0, [r1, #12]
	.loc	3 944 14 is_stmt 1              @ rt-thread/components/net/lwip-2.0.2/src/apps/mqtt/mqtt.c:944:14
	ldr	r0, [sp, #4]
	mov.w	r1, #256
	.loc	3 944 3 is_stmt 0               @ rt-thread/components/net/lwip-2.0.2/src/apps/mqtt/mqtt.c:944:3
	bl	mqtt_close
	.loc	3 945 1 is_stmt 1               @ rt-thread/components/net/lwip-2.0.2/src/apps/mqtt/mqtt.c:945:1
	add	sp, #16
	pop	{r7, pc}
.Ltmp383:
.Lfunc_end18:
	.size	mqtt_tcp_err_cb, .Lfunc_end18-mqtt_tcp_err_cb
	.cfi_endproc
	.cantunwind
	.fnend
                                        @ -- End function
	.section	.text.mqtt_disconnect,"ax",%progbits
	.hidden	mqtt_disconnect                 @ -- Begin function mqtt_disconnect
	.globl	mqtt_disconnect
	.p2align	3
	.type	mqtt_disconnect,%function
	.code	16                              @ @mqtt_disconnect
	.thumb_func
mqtt_disconnect:
.Lfunc_begin19:
	.loc	3 1340 0                        @ rt-thread/components/net/lwip-2.0.2/src/apps/mqtt/mqtt.c:1340:0
	.fnstart
	.cfi_startproc
@ %bb.0:
	.save	{r7, lr}
	push	{r7, lr}
	.cfi_def_cfa_offset 8
	.cfi_offset lr, -4
	.cfi_offset r7, -8
	.pad	#8
	sub	sp, #8
	.cfi_def_cfa_offset 16
	str	r0, [sp, #4]
.Ltmp384:
	.loc	3 1341 3 prologue_end           @ rt-thread/components/net/lwip-2.0.2/src/apps/mqtt/mqtt.c:1341:3
	b	.LBB19_1
.LBB19_1:
.Ltmp385:
	.loc	3 1341 3 is_stmt 0              @ rt-thread/components/net/lwip-2.0.2/src/apps/mqtt/mqtt.c:1341:3
	ldr	r0, [sp, #4]
.Ltmp386:
	.loc	3 1341 3                        @ rt-thread/components/net/lwip-2.0.2/src/apps/mqtt/mqtt.c:1341:3
	cbnz	r0, .LBB19_5
	b	.LBB19_2
.LBB19_2:
.Ltmp387:
	.loc	3 1341 3                        @ rt-thread/components/net/lwip-2.0.2/src/apps/mqtt/mqtt.c:1341:3
	b	.LBB19_3
.LBB19_3:
.Ltmp388:
	.loc	3 1341 3                        @ rt-thread/components/net/lwip-2.0.2/src/apps/mqtt/mqtt.c:1341:3
	movw	r0, :lower16:.L.str.22
	movt	r0, :upper16:.L.str.22
	bl	rt_kprintf
	movw	r0, :lower16:.L.str.1
	movt	r0, :upper16:.L.str.1
	movw	r1, #1341
	bl	sys_arch_assert
	b	.LBB19_4
.Ltmp389:
.LBB19_4:
	.loc	3 1341 3                        @ rt-thread/components/net/lwip-2.0.2/src/apps/mqtt/mqtt.c:1341:3
	b	.LBB19_5
.Ltmp390:
.LBB19_5:
	.loc	3 1341 3                        @ rt-thread/components/net/lwip-2.0.2/src/apps/mqtt/mqtt.c:1341:3
	b	.LBB19_6
.Ltmp391:
.LBB19_6:
	.loc	3 1343 7 is_stmt 1              @ rt-thread/components/net/lwip-2.0.2/src/apps/mqtt/mqtt.c:1343:7
	ldr	r0, [sp, #4]
	.loc	3 1343 15 is_stmt 0             @ rt-thread/components/net/lwip-2.0.2/src/apps/mqtt/mqtt.c:1343:15
	ldrb	r0, [r0, #10]
.Ltmp392:
	.loc	3 1343 7                        @ rt-thread/components/net/lwip-2.0.2/src/apps/mqtt/mqtt.c:1343:7
	cbz	r0, .LBB19_8
	b	.LBB19_7
.LBB19_7:
.Ltmp393:
	.loc	3 1345 5 is_stmt 1              @ rt-thread/components/net/lwip-2.0.2/src/apps/mqtt/mqtt.c:1345:5
	ldr	r0, [sp, #4]
	movs	r1, #0
	.loc	3 1345 24 is_stmt 0             @ rt-thread/components/net/lwip-2.0.2/src/apps/mqtt/mqtt.c:1345:24
	strb	r1, [r0, #10]
	.loc	3 1346 16 is_stmt 1             @ rt-thread/components/net/lwip-2.0.2/src/apps/mqtt/mqtt.c:1346:16
	ldr	r0, [sp, #4]
	.loc	3 1346 5 is_stmt 0              @ rt-thread/components/net/lwip-2.0.2/src/apps/mqtt/mqtt.c:1346:5
	bl	mqtt_close
	.loc	3 1347 3 is_stmt 1              @ rt-thread/components/net/lwip-2.0.2/src/apps/mqtt/mqtt.c:1347:3
	b	.LBB19_8
.Ltmp394:
.LBB19_8:
	.loc	3 1348 1                        @ rt-thread/components/net/lwip-2.0.2/src/apps/mqtt/mqtt.c:1348:1
	add	sp, #8
	pop	{r7, pc}
.Ltmp395:
.Lfunc_end19:
	.size	mqtt_disconnect, .Lfunc_end19-mqtt_disconnect
	.cfi_endproc
	.cantunwind
	.fnend
                                        @ -- End function
	.section	.text.mqtt_close,"ax",%progbits
	.p2align	3                               @ -- Begin function mqtt_close
	.type	mqtt_close,%function
	.code	16                              @ @mqtt_close
	.thumb_func
mqtt_close:
.Lfunc_begin20:
	.loc	3 506 0                         @ rt-thread/components/net/lwip-2.0.2/src/apps/mqtt/mqtt.c:506:0
	.fnstart
	.cfi_startproc
@ %bb.0:
	.save	{r7, lr}
	push	{r7, lr}
	.cfi_def_cfa_offset 8
	.cfi_offset lr, -4
	.cfi_offset r7, -8
	.pad	#16
	sub	sp, #16
	.cfi_def_cfa_offset 24
                                        @ kill: def $r2 killed $r1
	str	r0, [sp, #12]
	strh.w	r1, [sp, #10]
.Ltmp396:
	.loc	3 507 3 prologue_end            @ rt-thread/components/net/lwip-2.0.2/src/apps/mqtt/mqtt.c:507:3
	b	.LBB20_1
.LBB20_1:
.Ltmp397:
	.loc	3 507 3 is_stmt 0               @ rt-thread/components/net/lwip-2.0.2/src/apps/mqtt/mqtt.c:507:3
	ldr	r0, [sp, #12]
.Ltmp398:
	.loc	3 507 3                         @ rt-thread/components/net/lwip-2.0.2/src/apps/mqtt/mqtt.c:507:3
	cbnz	r0, .LBB20_5
	b	.LBB20_2
.LBB20_2:
.Ltmp399:
	.loc	3 507 3                         @ rt-thread/components/net/lwip-2.0.2/src/apps/mqtt/mqtt.c:507:3
	b	.LBB20_3
.LBB20_3:
.Ltmp400:
	.loc	3 507 3                         @ rt-thread/components/net/lwip-2.0.2/src/apps/mqtt/mqtt.c:507:3
	movw	r0, :lower16:.L.str.36
	movt	r0, :upper16:.L.str.36
	bl	rt_kprintf
	movw	r0, :lower16:.L.str.1
	movt	r0, :upper16:.L.str.1
	movw	r1, #507
	bl	sys_arch_assert
	b	.LBB20_4
.Ltmp401:
.LBB20_4:
	.loc	3 507 3                         @ rt-thread/components/net/lwip-2.0.2/src/apps/mqtt/mqtt.c:507:3
	b	.LBB20_5
.Ltmp402:
.LBB20_5:
	.loc	3 507 3                         @ rt-thread/components/net/lwip-2.0.2/src/apps/mqtt/mqtt.c:507:3
	b	.LBB20_6
.Ltmp403:
.LBB20_6:
	.loc	3 510 7 is_stmt 1               @ rt-thread/components/net/lwip-2.0.2/src/apps/mqtt/mqtt.c:510:7
	ldr	r0, [sp, #12]
	.loc	3 510 15 is_stmt 0              @ rt-thread/components/net/lwip-2.0.2/src/apps/mqtt/mqtt.c:510:15
	ldr	r0, [r0, #12]
.Ltmp404:
	.loc	3 510 7                         @ rt-thread/components/net/lwip-2.0.2/src/apps/mqtt/mqtt.c:510:7
	cbz	r0, .LBB20_10
	b	.LBB20_7
.LBB20_7:
.Ltmp405:
	.loc	3 512 14 is_stmt 1              @ rt-thread/components/net/lwip-2.0.2/src/apps/mqtt/mqtt.c:512:14
	ldr	r0, [sp, #12]
	.loc	3 512 22 is_stmt 0              @ rt-thread/components/net/lwip-2.0.2/src/apps/mqtt/mqtt.c:512:22
	ldr	r0, [r0, #12]
	movs	r1, #0
	.loc	3 512 5                         @ rt-thread/components/net/lwip-2.0.2/src/apps/mqtt/mqtt.c:512:5
	str	r1, [sp, #4]                    @ 4-byte Spill
	bl	tcp_recv
	ldr	r1, [sp, #4]                    @ 4-byte Reload
	.loc	3 513 13 is_stmt 1              @ rt-thread/components/net/lwip-2.0.2/src/apps/mqtt/mqtt.c:513:13
	ldr	r0, [sp, #12]
	.loc	3 513 21 is_stmt 0              @ rt-thread/components/net/lwip-2.0.2/src/apps/mqtt/mqtt.c:513:21
	ldr	r0, [r0, #12]
	.loc	3 513 5                         @ rt-thread/components/net/lwip-2.0.2/src/apps/mqtt/mqtt.c:513:5
	bl	tcp_err
	ldr	r1, [sp, #4]                    @ 4-byte Reload
	.loc	3 514 14 is_stmt 1              @ rt-thread/components/net/lwip-2.0.2/src/apps/mqtt/mqtt.c:514:14
	ldr	r0, [sp, #12]
	.loc	3 514 22 is_stmt 0              @ rt-thread/components/net/lwip-2.0.2/src/apps/mqtt/mqtt.c:514:22
	ldr	r0, [r0, #12]
	.loc	3 514 5                         @ rt-thread/components/net/lwip-2.0.2/src/apps/mqtt/mqtt.c:514:5
	bl	tcp_sent
	.loc	3 515 21 is_stmt 1              @ rt-thread/components/net/lwip-2.0.2/src/apps/mqtt/mqtt.c:515:21
	ldr	r0, [sp, #12]
	.loc	3 515 29 is_stmt 0              @ rt-thread/components/net/lwip-2.0.2/src/apps/mqtt/mqtt.c:515:29
	ldr	r0, [r0, #12]
	.loc	3 515 11                        @ rt-thread/components/net/lwip-2.0.2/src/apps/mqtt/mqtt.c:515:11
	bl	tcp_close
	.loc	3 515 9                         @ rt-thread/components/net/lwip-2.0.2/src/apps/mqtt/mqtt.c:515:9
	strb.w	r0, [sp, #9]
.Ltmp406:
	.loc	3 516 9 is_stmt 1               @ rt-thread/components/net/lwip-2.0.2/src/apps/mqtt/mqtt.c:516:9
	ldrsb.w	r0, [sp, #9]
.Ltmp407:
	.loc	3 516 9 is_stmt 0               @ rt-thread/components/net/lwip-2.0.2/src/apps/mqtt/mqtt.c:516:9
	cbz	r0, .LBB20_9
	b	.LBB20_8
.LBB20_8:
.Ltmp408:
	.loc	3 517 17 is_stmt 1              @ rt-thread/components/net/lwip-2.0.2/src/apps/mqtt/mqtt.c:517:17
	ldr	r0, [sp, #12]
	.loc	3 517 25 is_stmt 0              @ rt-thread/components/net/lwip-2.0.2/src/apps/mqtt/mqtt.c:517:25
	ldr	r0, [r0, #12]
	.loc	3 517 7                         @ rt-thread/components/net/lwip-2.0.2/src/apps/mqtt/mqtt.c:517:7
	bl	tcp_abort
	.loc	3 519 5 is_stmt 1               @ rt-thread/components/net/lwip-2.0.2/src/apps/mqtt/mqtt.c:519:5
	b	.LBB20_9
.Ltmp409:
.LBB20_9:
	.loc	3 520 5                         @ rt-thread/components/net/lwip-2.0.2/src/apps/mqtt/mqtt.c:520:5
	ldr	r1, [sp, #12]
	movs	r0, #0
	.loc	3 520 18 is_stmt 0              @ rt-thread/components/net/lwip-2.0.2/src/apps/mqtt/mqtt.c:520:18
	str	r0, [r1, #12]
	.loc	3 521 3 is_stmt 1               @ rt-thread/components/net/lwip-2.0.2/src/apps/mqtt/mqtt.c:521:3
	b	.LBB20_10
.Ltmp410:
.LBB20_10:
	.loc	3 524 24                        @ rt-thread/components/net/lwip-2.0.2/src/apps/mqtt/mqtt.c:524:24
	ldr	r0, [sp, #12]
	.loc	3 524 32 is_stmt 0              @ rt-thread/components/net/lwip-2.0.2/src/apps/mqtt/mqtt.c:524:32
	adds	r0, #24
	.loc	3 524 3                         @ rt-thread/components/net/lwip-2.0.2/src/apps/mqtt/mqtt.c:524:3
	bl	mqtt_clear_requests
	.loc	3 526 36 is_stmt 1              @ rt-thread/components/net/lwip-2.0.2/src/apps/mqtt/mqtt.c:526:36
	ldr	r1, [sp, #12]
	.loc	3 526 3 is_stmt 0               @ rt-thread/components/net/lwip-2.0.2/src/apps/mqtt/mqtt.c:526:3
	movw	r0, :lower16:mqtt_cyclic_timer
	movt	r0, :upper16:mqtt_cyclic_timer
	bl	sys_untimeout
.Ltmp411:
	.loc	3 529 7 is_stmt 1               @ rt-thread/components/net/lwip-2.0.2/src/apps/mqtt/mqtt.c:529:7
	ldr	r0, [sp, #12]
	.loc	3 529 15 is_stmt 0              @ rt-thread/components/net/lwip-2.0.2/src/apps/mqtt/mqtt.c:529:15
	ldrb	r0, [r0, #10]
.Ltmp412:
	.loc	3 529 7                         @ rt-thread/components/net/lwip-2.0.2/src/apps/mqtt/mqtt.c:529:7
	cbz	r0, .LBB20_14
	b	.LBB20_11
.LBB20_11:
.Ltmp413:
	.loc	3 531 5 is_stmt 1               @ rt-thread/components/net/lwip-2.0.2/src/apps/mqtt/mqtt.c:531:5
	ldr	r1, [sp, #12]
	movs	r0, #0
	.loc	3 531 24 is_stmt 0              @ rt-thread/components/net/lwip-2.0.2/src/apps/mqtt/mqtt.c:531:24
	strb	r0, [r1, #10]
.Ltmp414:
	.loc	3 532 9 is_stmt 1               @ rt-thread/components/net/lwip-2.0.2/src/apps/mqtt/mqtt.c:532:9
	ldr	r0, [sp, #12]
	.loc	3 532 17 is_stmt 0              @ rt-thread/components/net/lwip-2.0.2/src/apps/mqtt/mqtt.c:532:17
	ldr	r0, [r0, #20]
.Ltmp415:
	.loc	3 532 9                         @ rt-thread/components/net/lwip-2.0.2/src/apps/mqtt/mqtt.c:532:9
	cbz	r0, .LBB20_13
	b	.LBB20_12
.LBB20_12:
.Ltmp416:
	.loc	3 533 7 is_stmt 1               @ rt-thread/components/net/lwip-2.0.2/src/apps/mqtt/mqtt.c:533:7
	ldr	r0, [sp, #12]
	.loc	3 533 42 is_stmt 0              @ rt-thread/components/net/lwip-2.0.2/src/apps/mqtt/mqtt.c:533:42
	ldr	r1, [r0, #16]
	.loc	3 533 15                        @ rt-thread/components/net/lwip-2.0.2/src/apps/mqtt/mqtt.c:533:15
	ldr	r3, [r0, #20]
	.loc	3 533 55                        @ rt-thread/components/net/lwip-2.0.2/src/apps/mqtt/mqtt.c:533:55
	ldrh.w	r2, [sp, #10]
	.loc	3 533 7                         @ rt-thread/components/net/lwip-2.0.2/src/apps/mqtt/mqtt.c:533:7
	blx	r3
	.loc	3 534 5 is_stmt 1               @ rt-thread/components/net/lwip-2.0.2/src/apps/mqtt/mqtt.c:534:5
	b	.LBB20_13
.Ltmp417:
.LBB20_13:
	.loc	3 535 3                         @ rt-thread/components/net/lwip-2.0.2/src/apps/mqtt/mqtt.c:535:3
	b	.LBB20_14
.Ltmp418:
.LBB20_14:
	.loc	3 536 1                         @ rt-thread/components/net/lwip-2.0.2/src/apps/mqtt/mqtt.c:536:1
	add	sp, #16
	pop	{r7, pc}
.Ltmp419:
.Lfunc_end20:
	.size	mqtt_close, .Lfunc_end20-mqtt_close
	.cfi_endproc
	.cantunwind
	.fnend
                                        @ -- End function
	.section	.text.mqtt_client_is_connected,"ax",%progbits
	.hidden	mqtt_client_is_connected        @ -- Begin function mqtt_client_is_connected
	.globl	mqtt_client_is_connected
	.p2align	3
	.type	mqtt_client_is_connected,%function
	.code	16                              @ @mqtt_client_is_connected
	.thumb_func
mqtt_client_is_connected:
.Lfunc_begin21:
	.loc	3 1358 0                        @ rt-thread/components/net/lwip-2.0.2/src/apps/mqtt/mqtt.c:1358:0
	.fnstart
	.cfi_startproc
@ %bb.0:
	.save	{r7, lr}
	push	{r7, lr}
	.cfi_def_cfa_offset 8
	.cfi_offset lr, -4
	.cfi_offset r7, -8
	.pad	#8
	sub	sp, #8
	.cfi_def_cfa_offset 16
	str	r0, [sp, #4]
.Ltmp420:
	.loc	3 1359 3 prologue_end           @ rt-thread/components/net/lwip-2.0.2/src/apps/mqtt/mqtt.c:1359:3
	b	.LBB21_1
.LBB21_1:
.Ltmp421:
	.loc	3 1359 3 is_stmt 0              @ rt-thread/components/net/lwip-2.0.2/src/apps/mqtt/mqtt.c:1359:3
	ldr	r0, [sp, #4]
.Ltmp422:
	.loc	3 1359 3                        @ rt-thread/components/net/lwip-2.0.2/src/apps/mqtt/mqtt.c:1359:3
	cbnz	r0, .LBB21_5
	b	.LBB21_2
.LBB21_2:
.Ltmp423:
	.loc	3 1359 3                        @ rt-thread/components/net/lwip-2.0.2/src/apps/mqtt/mqtt.c:1359:3
	b	.LBB21_3
.LBB21_3:
.Ltmp424:
	.loc	3 1359 3                        @ rt-thread/components/net/lwip-2.0.2/src/apps/mqtt/mqtt.c:1359:3
	movw	r0, :lower16:.L.str.23
	movt	r0, :upper16:.L.str.23
	bl	rt_kprintf
	movw	r0, :lower16:.L.str.1
	movt	r0, :upper16:.L.str.1
	movw	r1, #1359
	bl	sys_arch_assert
	b	.LBB21_4
.Ltmp425:
.LBB21_4:
	.loc	3 1359 3                        @ rt-thread/components/net/lwip-2.0.2/src/apps/mqtt/mqtt.c:1359:3
	b	.LBB21_5
.Ltmp426:
.LBB21_5:
	.loc	3 1359 3                        @ rt-thread/components/net/lwip-2.0.2/src/apps/mqtt/mqtt.c:1359:3
	b	.LBB21_6
.Ltmp427:
.LBB21_6:
	.loc	3 1360 10 is_stmt 1             @ rt-thread/components/net/lwip-2.0.2/src/apps/mqtt/mqtt.c:1360:10
	ldr	r0, [sp, #4]
	.loc	3 1360 18 is_stmt 0             @ rt-thread/components/net/lwip-2.0.2/src/apps/mqtt/mqtt.c:1360:18
	ldrb	r0, [r0, #10]
	.loc	3 1360 29                       @ rt-thread/components/net/lwip-2.0.2/src/apps/mqtt/mqtt.c:1360:29
	subs	r0, #3
	clz	r0, r0
	lsrs	r0, r0, #5
	.loc	3 1360 3                        @ rt-thread/components/net/lwip-2.0.2/src/apps/mqtt/mqtt.c:1360:3
	add	sp, #8
	pop	{r7, pc}
.Ltmp428:
.Lfunc_end21:
	.size	mqtt_client_is_connected, .Lfunc_end21-mqtt_client_is_connected
	.cfi_endproc
	.cantunwind
	.fnend
                                        @ -- End function
	.section	.text.mqtt_tcp_recv_cb,"ax",%progbits
	.p2align	3                               @ -- Begin function mqtt_tcp_recv_cb
	.type	mqtt_tcp_recv_cb,%function
	.code	16                              @ @mqtt_tcp_recv_cb
	.thumb_func
mqtt_tcp_recv_cb:
.Lfunc_begin22:
	.loc	3 860 0 is_stmt 1               @ rt-thread/components/net/lwip-2.0.2/src/apps/mqtt/mqtt.c:860:0
	.fnstart
	.cfi_startproc
@ %bb.0:
	.save	{r7, lr}
	push	{r7, lr}
	.cfi_def_cfa_offset 8
	.cfi_offset lr, -4
	.cfi_offset r7, -8
	.pad	#32
	sub	sp, #32
	.cfi_def_cfa_offset 40
                                        @ kill: def $r12 killed $r3
	str	r0, [sp, #24]
	str	r1, [sp, #20]
	str	r2, [sp, #16]
	strb.w	r3, [sp, #15]
.Ltmp429:
	.loc	3 861 44 prologue_end           @ rt-thread/components/net/lwip-2.0.2/src/apps/mqtt/mqtt.c:861:44
	ldr	r0, [sp, #24]
	.loc	3 861 18 is_stmt 0              @ rt-thread/components/net/lwip-2.0.2/src/apps/mqtt/mqtt.c:861:18
	str	r0, [sp, #8]
	.loc	3 862 3 is_stmt 1               @ rt-thread/components/net/lwip-2.0.2/src/apps/mqtt/mqtt.c:862:3
	b	.LBB22_1
.LBB22_1:
.Ltmp430:
	.loc	3 862 3 is_stmt 0               @ rt-thread/components/net/lwip-2.0.2/src/apps/mqtt/mqtt.c:862:3
	ldr	r0, [sp, #8]
.Ltmp431:
	.loc	3 862 3                         @ rt-thread/components/net/lwip-2.0.2/src/apps/mqtt/mqtt.c:862:3
	cbnz	r0, .LBB22_5
	b	.LBB22_2
.LBB22_2:
.Ltmp432:
	.loc	3 862 3                         @ rt-thread/components/net/lwip-2.0.2/src/apps/mqtt/mqtt.c:862:3
	b	.LBB22_3
.LBB22_3:
.Ltmp433:
	.loc	3 862 3                         @ rt-thread/components/net/lwip-2.0.2/src/apps/mqtt/mqtt.c:862:3
	movw	r0, :lower16:.L.str.30
	movt	r0, :upper16:.L.str.30
	bl	rt_kprintf
	movw	r0, :lower16:.L.str.1
	movt	r0, :upper16:.L.str.1
	movw	r1, #862
	bl	sys_arch_assert
	b	.LBB22_4
.Ltmp434:
.LBB22_4:
	.loc	3 862 3                         @ rt-thread/components/net/lwip-2.0.2/src/apps/mqtt/mqtt.c:862:3
	b	.LBB22_5
.Ltmp435:
.LBB22_5:
	.loc	3 862 3                         @ rt-thread/components/net/lwip-2.0.2/src/apps/mqtt/mqtt.c:862:3
	b	.LBB22_6
.Ltmp436:
.LBB22_6:
	.loc	3 863 3 is_stmt 1               @ rt-thread/components/net/lwip-2.0.2/src/apps/mqtt/mqtt.c:863:3
	b	.LBB22_7
.LBB22_7:
.Ltmp437:
	.loc	3 863 3 is_stmt 0               @ rt-thread/components/net/lwip-2.0.2/src/apps/mqtt/mqtt.c:863:3
	ldr	r0, [sp, #8]
	ldr	r0, [r0, #12]
	ldr	r1, [sp, #20]
.Ltmp438:
	.loc	3 863 3                         @ rt-thread/components/net/lwip-2.0.2/src/apps/mqtt/mqtt.c:863:3
	cmp	r0, r1
	beq	.LBB22_11
	b	.LBB22_8
.LBB22_8:
.Ltmp439:
	.loc	3 863 3                         @ rt-thread/components/net/lwip-2.0.2/src/apps/mqtt/mqtt.c:863:3
	b	.LBB22_9
.LBB22_9:
.Ltmp440:
	.loc	3 863 3                         @ rt-thread/components/net/lwip-2.0.2/src/apps/mqtt/mqtt.c:863:3
	movw	r0, :lower16:.L.str.31
	movt	r0, :upper16:.L.str.31
	bl	rt_kprintf
	movw	r0, :lower16:.L.str.1
	movt	r0, :upper16:.L.str.1
	movw	r1, #863
	bl	sys_arch_assert
	b	.LBB22_10
.Ltmp441:
.LBB22_10:
	.loc	3 863 3                         @ rt-thread/components/net/lwip-2.0.2/src/apps/mqtt/mqtt.c:863:3
	b	.LBB22_11
.Ltmp442:
.LBB22_11:
	.loc	3 863 3                         @ rt-thread/components/net/lwip-2.0.2/src/apps/mqtt/mqtt.c:863:3
	b	.LBB22_12
.Ltmp443:
.LBB22_12:
	.loc	3 865 7 is_stmt 1               @ rt-thread/components/net/lwip-2.0.2/src/apps/mqtt/mqtt.c:865:7
	ldr	r0, [sp, #16]
.Ltmp444:
	.loc	3 865 7 is_stmt 0               @ rt-thread/components/net/lwip-2.0.2/src/apps/mqtt/mqtt.c:865:7
	cbnz	r0, .LBB22_14
	b	.LBB22_13
.LBB22_13:
.Ltmp445:
	.loc	3 867 16 is_stmt 1              @ rt-thread/components/net/lwip-2.0.2/src/apps/mqtt/mqtt.c:867:16
	ldr	r0, [sp, #8]
	mov.w	r1, #256
	.loc	3 867 5 is_stmt 0               @ rt-thread/components/net/lwip-2.0.2/src/apps/mqtt/mqtt.c:867:5
	bl	mqtt_close
	.loc	3 868 3 is_stmt 1               @ rt-thread/components/net/lwip-2.0.2/src/apps/mqtt/mqtt.c:868:3
	b	.LBB22_21
.Ltmp446:
.LBB22_14:
	.loc	3 870 9                         @ rt-thread/components/net/lwip-2.0.2/src/apps/mqtt/mqtt.c:870:9
	ldrsb.w	r0, [sp, #15]
.Ltmp447:
	.loc	3 870 9 is_stmt 0               @ rt-thread/components/net/lwip-2.0.2/src/apps/mqtt/mqtt.c:870:9
	cbz	r0, .LBB22_16
	b	.LBB22_15
.LBB22_15:
.Ltmp448:
	.loc	3 872 17 is_stmt 1              @ rt-thread/components/net/lwip-2.0.2/src/apps/mqtt/mqtt.c:872:17
	ldr	r0, [sp, #16]
	.loc	3 872 7 is_stmt 0               @ rt-thread/components/net/lwip-2.0.2/src/apps/mqtt/mqtt.c:872:7
	bl	pbuf_free
	.loc	3 873 14 is_stmt 1              @ rt-thread/components/net/lwip-2.0.2/src/apps/mqtt/mqtt.c:873:14
	ldrb.w	r0, [sp, #15]
	.loc	3 873 7 is_stmt 0               @ rt-thread/components/net/lwip-2.0.2/src/apps/mqtt/mqtt.c:873:7
	strb.w	r0, [sp, #31]
	b	.LBB22_22
.Ltmp449:
.LBB22_16:
	.loc	3 877 16 is_stmt 1              @ rt-thread/components/net/lwip-2.0.2/src/apps/mqtt/mqtt.c:877:16
	ldr	r0, [sp, #20]
	.loc	3 877 21 is_stmt 0              @ rt-thread/components/net/lwip-2.0.2/src/apps/mqtt/mqtt.c:877:21
	ldr	r1, [sp, #16]
	.loc	3 877 24                        @ rt-thread/components/net/lwip-2.0.2/src/apps/mqtt/mqtt.c:877:24
	ldrh	r1, [r1, #8]
	.loc	3 877 5                         @ rt-thread/components/net/lwip-2.0.2/src/apps/mqtt/mqtt.c:877:5
	bl	tcp_recved
	.loc	3 878 31 is_stmt 1              @ rt-thread/components/net/lwip-2.0.2/src/apps/mqtt/mqtt.c:878:31
	ldr	r0, [sp, #8]
	.loc	3 878 39 is_stmt 0              @ rt-thread/components/net/lwip-2.0.2/src/apps/mqtt/mqtt.c:878:39
	ldr	r1, [sp, #16]
	.loc	3 878 11                        @ rt-thread/components/net/lwip-2.0.2/src/apps/mqtt/mqtt.c:878:11
	bl	mqtt_parse_incoming
	.loc	3 878 9                         @ rt-thread/components/net/lwip-2.0.2/src/apps/mqtt/mqtt.c:878:9
	strh.w	r0, [sp, #6]
	.loc	3 879 15 is_stmt 1              @ rt-thread/components/net/lwip-2.0.2/src/apps/mqtt/mqtt.c:879:15
	ldr	r0, [sp, #16]
	.loc	3 879 5 is_stmt 0               @ rt-thread/components/net/lwip-2.0.2/src/apps/mqtt/mqtt.c:879:5
	bl	pbuf_free
.Ltmp450:
	.loc	3 881 9 is_stmt 1               @ rt-thread/components/net/lwip-2.0.2/src/apps/mqtt/mqtt.c:881:9
	ldrh.w	r0, [sp, #6]
.Ltmp451:
	.loc	3 881 9 is_stmt 0               @ rt-thread/components/net/lwip-2.0.2/src/apps/mqtt/mqtt.c:881:9
	cbz	r0, .LBB22_18
	b	.LBB22_17
.LBB22_17:
.Ltmp452:
	.loc	3 882 18 is_stmt 1              @ rt-thread/components/net/lwip-2.0.2/src/apps/mqtt/mqtt.c:882:18
	ldr	r0, [sp, #8]
	.loc	3 882 26 is_stmt 0              @ rt-thread/components/net/lwip-2.0.2/src/apps/mqtt/mqtt.c:882:26
	ldrh.w	r1, [sp, #6]
	.loc	3 882 7                         @ rt-thread/components/net/lwip-2.0.2/src/apps/mqtt/mqtt.c:882:7
	bl	mqtt_close
	.loc	3 883 5 is_stmt 1               @ rt-thread/components/net/lwip-2.0.2/src/apps/mqtt/mqtt.c:883:5
	b	.LBB22_18
.Ltmp453:
.LBB22_18:
	.loc	3 885 9                         @ rt-thread/components/net/lwip-2.0.2/src/apps/mqtt/mqtt.c:885:9
	ldr	r0, [sp, #8]
	.loc	3 885 17 is_stmt 0              @ rt-thread/components/net/lwip-2.0.2/src/apps/mqtt/mqtt.c:885:17
	ldrh	r0, [r0, #2]
.Ltmp454:
	.loc	3 885 9                         @ rt-thread/components/net/lwip-2.0.2/src/apps/mqtt/mqtt.c:885:9
	cbz	r0, .LBB22_20
	b	.LBB22_19
.LBB22_19:
.Ltmp455:
	.loc	3 887 7 is_stmt 1               @ rt-thread/components/net/lwip-2.0.2/src/apps/mqtt/mqtt.c:887:7
	ldr	r1, [sp, #8]
	movs	r0, #0
	.loc	3 887 31 is_stmt 0              @ rt-thread/components/net/lwip-2.0.2/src/apps/mqtt/mqtt.c:887:31
	strh	r0, [r1, #4]
	.loc	3 888 5 is_stmt 1               @ rt-thread/components/net/lwip-2.0.2/src/apps/mqtt/mqtt.c:888:5
	b	.LBB22_20
.Ltmp456:
.LBB22_20:
	.loc	3 0 5 is_stmt 0                 @ rt-thread/components/net/lwip-2.0.2/src/apps/mqtt/mqtt.c:0:5
	b	.LBB22_21
.LBB22_21:
	movs	r0, #0
	.loc	3 891 3 is_stmt 1               @ rt-thread/components/net/lwip-2.0.2/src/apps/mqtt/mqtt.c:891:3
	strb.w	r0, [sp, #31]
	b	.LBB22_22
.LBB22_22:
	.loc	3 892 1                         @ rt-thread/components/net/lwip-2.0.2/src/apps/mqtt/mqtt.c:892:1
	ldrsb.w	r0, [sp, #31]
	add	sp, #32
	pop	{r7, pc}
.Ltmp457:
.Lfunc_end22:
	.size	mqtt_tcp_recv_cb, .Lfunc_end22-mqtt_tcp_recv_cb
	.cfi_endproc
	.cantunwind
	.fnend
                                        @ -- End function
	.section	.text.mqtt_tcp_sent_cb,"ax",%progbits
	.p2align	3                               @ -- Begin function mqtt_tcp_sent_cb
	.type	mqtt_tcp_sent_cb,%function
	.code	16                              @ @mqtt_tcp_sent_cb
	.thumb_func
mqtt_tcp_sent_cb:
.Lfunc_begin23:
	.loc	3 904 0                         @ rt-thread/components/net/lwip-2.0.2/src/apps/mqtt/mqtt.c:904:0
	.fnstart
	.cfi_startproc
@ %bb.0:
	.save	{r7, lr}
	push	{r7, lr}
	.cfi_def_cfa_offset 8
	.cfi_offset lr, -4
	.cfi_offset r7, -8
	.pad	#24
	sub	sp, #24
	.cfi_def_cfa_offset 32
                                        @ kill: def $r3 killed $r2
	str	r0, [sp, #20]
	str	r1, [sp, #16]
	strh.w	r2, [sp, #14]
.Ltmp458:
	.loc	3 905 44 prologue_end           @ rt-thread/components/net/lwip-2.0.2/src/apps/mqtt/mqtt.c:905:44
	ldr	r0, [sp, #20]
	.loc	3 905 18 is_stmt 0              @ rt-thread/components/net/lwip-2.0.2/src/apps/mqtt/mqtt.c:905:18
	str	r0, [sp, #8]
.Ltmp459:
	.loc	3 910 7 is_stmt 1               @ rt-thread/components/net/lwip-2.0.2/src/apps/mqtt/mqtt.c:910:7
	ldr	r0, [sp, #8]
	.loc	3 910 15 is_stmt 0              @ rt-thread/components/net/lwip-2.0.2/src/apps/mqtt/mqtt.c:910:15
	ldrb	r0, [r0, #10]
.Ltmp460:
	.loc	3 910 7                         @ rt-thread/components/net/lwip-2.0.2/src/apps/mqtt/mqtt.c:910:7
	cmp	r0, #3
	bne	.LBB23_7
	b	.LBB23_1
.LBB23_1:
.Ltmp461:
	.loc	3 914 5 is_stmt 1               @ rt-thread/components/net/lwip-2.0.2/src/apps/mqtt/mqtt.c:914:5
	ldr	r1, [sp, #8]
	movs	r0, #0
	.loc	3 914 25 is_stmt 0              @ rt-thread/components/net/lwip-2.0.2/src/apps/mqtt/mqtt.c:914:25
	strh	r0, [r1]
	.loc	3 915 5 is_stmt 1               @ rt-thread/components/net/lwip-2.0.2/src/apps/mqtt/mqtt.c:915:5
	ldr	r1, [sp, #8]
	.loc	3 915 29 is_stmt 0              @ rt-thread/components/net/lwip-2.0.2/src/apps/mqtt/mqtt.c:915:29
	strh	r0, [r1, #4]
	.loc	3 917 5 is_stmt 1               @ rt-thread/components/net/lwip-2.0.2/src/apps/mqtt/mqtt.c:917:5
	b	.LBB23_2
.LBB23_2:                               @ =>This Inner Loop Header: Depth=1
	.loc	3 917 36 is_stmt 0              @ rt-thread/components/net/lwip-2.0.2/src/apps/mqtt/mqtt.c:917:36
	ldr	r0, [sp, #8]
	.loc	3 917 44                        @ rt-thread/components/net/lwip-2.0.2/src/apps/mqtt/mqtt.c:917:44
	adds	r0, #24
	movs	r1, #0
	.loc	3 917 17                        @ rt-thread/components/net/lwip-2.0.2/src/apps/mqtt/mqtt.c:917:17
	bl	mqtt_take_request
	.loc	3 917 15                        @ rt-thread/components/net/lwip-2.0.2/src/apps/mqtt/mqtt.c:917:15
	str	r0, [sp, #4]
	.loc	3 917 5                         @ rt-thread/components/net/lwip-2.0.2/src/apps/mqtt/mqtt.c:917:5
	cbz	r0, .LBB23_6
	b	.LBB23_3
.LBB23_3:                               @   in Loop: Header=BB23_2 Depth=1
.Ltmp462:
	.loc	3 919 11 is_stmt 1              @ rt-thread/components/net/lwip-2.0.2/src/apps/mqtt/mqtt.c:919:11
	ldr	r0, [sp, #4]
	.loc	3 919 14 is_stmt 0              @ rt-thread/components/net/lwip-2.0.2/src/apps/mqtt/mqtt.c:919:14
	ldr	r0, [r0, #4]
.Ltmp463:
	.loc	3 919 11                        @ rt-thread/components/net/lwip-2.0.2/src/apps/mqtt/mqtt.c:919:11
	cbz	r0, .LBB23_5
	b	.LBB23_4
.LBB23_4:                               @   in Loop: Header=BB23_2 Depth=1
.Ltmp464:
	.loc	3 920 9 is_stmt 1               @ rt-thread/components/net/lwip-2.0.2/src/apps/mqtt/mqtt.c:920:9
	ldr	r0, [sp, #4]
	.loc	3 920 12 is_stmt 0              @ rt-thread/components/net/lwip-2.0.2/src/apps/mqtt/mqtt.c:920:12
	ldr	r2, [r0, #4]
	.loc	3 920 18                        @ rt-thread/components/net/lwip-2.0.2/src/apps/mqtt/mqtt.c:920:18
	ldr	r0, [r0, #8]
	movs	r1, #0
	.loc	3 920 9                         @ rt-thread/components/net/lwip-2.0.2/src/apps/mqtt/mqtt.c:920:9
	blx	r2
	.loc	3 921 7 is_stmt 1               @ rt-thread/components/net/lwip-2.0.2/src/apps/mqtt/mqtt.c:921:7
	b	.LBB23_5
.Ltmp465:
.LBB23_5:                               @   in Loop: Header=BB23_2 Depth=1
	.loc	3 922 27                        @ rt-thread/components/net/lwip-2.0.2/src/apps/mqtt/mqtt.c:922:27
	ldr	r0, [sp, #4]
	.loc	3 922 7 is_stmt 0               @ rt-thread/components/net/lwip-2.0.2/src/apps/mqtt/mqtt.c:922:7
	bl	mqtt_delete_request
.Ltmp466:
	.loc	3 917 5 is_stmt 1               @ rt-thread/components/net/lwip-2.0.2/src/apps/mqtt/mqtt.c:917:5
	b	.LBB23_2
.LBB23_6:
	.loc	3 925 23                        @ rt-thread/components/net/lwip-2.0.2/src/apps/mqtt/mqtt.c:925:23
	ldr	r1, [sp, #8]
	.loc	3 925 31 is_stmt 0              @ rt-thread/components/net/lwip-2.0.2/src/apps/mqtt/mqtt.c:925:31
	add.w	r0, r1, #236
	.loc	3 925 47                        @ rt-thread/components/net/lwip-2.0.2/src/apps/mqtt/mqtt.c:925:47
	ldr	r1, [r1, #12]
	.loc	3 925 5                         @ rt-thread/components/net/lwip-2.0.2/src/apps/mqtt/mqtt.c:925:5
	bl	mqtt_output_send
	.loc	3 926 3 is_stmt 1               @ rt-thread/components/net/lwip-2.0.2/src/apps/mqtt/mqtt.c:926:3
	b	.LBB23_7
.Ltmp467:
.LBB23_7:
	.loc	3 0 3 is_stmt 0                 @ rt-thread/components/net/lwip-2.0.2/src/apps/mqtt/mqtt.c:0:3
	movs	r0, #0
	.loc	3 927 3 is_stmt 1               @ rt-thread/components/net/lwip-2.0.2/src/apps/mqtt/mqtt.c:927:3
	add	sp, #24
	pop	{r7, pc}
.Ltmp468:
.Lfunc_end23:
	.size	mqtt_tcp_sent_cb, .Lfunc_end23-mqtt_tcp_sent_cb
	.cfi_endproc
	.cantunwind
	.fnend
                                        @ -- End function
	.section	.text.mqtt_tcp_poll_cb,"ax",%progbits
	.p2align	3                               @ -- Begin function mqtt_tcp_poll_cb
	.type	mqtt_tcp_poll_cb,%function
	.code	16                              @ @mqtt_tcp_poll_cb
	.thumb_func
mqtt_tcp_poll_cb:
.Lfunc_begin24:
	.loc	3 955 0                         @ rt-thread/components/net/lwip-2.0.2/src/apps/mqtt/mqtt.c:955:0
	.fnstart
	.cfi_startproc
@ %bb.0:
	.save	{r7, lr}
	push	{r7, lr}
	.cfi_def_cfa_offset 8
	.cfi_offset lr, -4
	.cfi_offset r7, -8
	.pad	#16
	sub	sp, #16
	.cfi_def_cfa_offset 24
	str	r0, [sp, #12]
	str	r1, [sp, #8]
.Ltmp469:
	.loc	3 956 44 prologue_end           @ rt-thread/components/net/lwip-2.0.2/src/apps/mqtt/mqtt.c:956:44
	ldr	r0, [sp, #12]
	.loc	3 956 18 is_stmt 0              @ rt-thread/components/net/lwip-2.0.2/src/apps/mqtt/mqtt.c:956:18
	str	r0, [sp, #4]
.Ltmp470:
	.loc	3 957 7 is_stmt 1               @ rt-thread/components/net/lwip-2.0.2/src/apps/mqtt/mqtt.c:957:7
	ldr	r0, [sp, #4]
	.loc	3 957 15 is_stmt 0              @ rt-thread/components/net/lwip-2.0.2/src/apps/mqtt/mqtt.c:957:15
	ldrb	r0, [r0, #10]
.Ltmp471:
	.loc	3 957 7                         @ rt-thread/components/net/lwip-2.0.2/src/apps/mqtt/mqtt.c:957:7
	cmp	r0, #3
	bne	.LBB24_2
	b	.LBB24_1
.LBB24_1:
.Ltmp472:
	.loc	3 959 23 is_stmt 1              @ rt-thread/components/net/lwip-2.0.2/src/apps/mqtt/mqtt.c:959:23
	ldr	r0, [sp, #4]
	.loc	3 959 31 is_stmt 0              @ rt-thread/components/net/lwip-2.0.2/src/apps/mqtt/mqtt.c:959:31
	adds	r0, #236
	.loc	3 959 39                        @ rt-thread/components/net/lwip-2.0.2/src/apps/mqtt/mqtt.c:959:39
	ldr	r1, [sp, #8]
	.loc	3 959 5                         @ rt-thread/components/net/lwip-2.0.2/src/apps/mqtt/mqtt.c:959:5
	bl	mqtt_output_send
	.loc	3 960 3 is_stmt 1               @ rt-thread/components/net/lwip-2.0.2/src/apps/mqtt/mqtt.c:960:3
	b	.LBB24_2
.Ltmp473:
.LBB24_2:
	.loc	3 0 3 is_stmt 0                 @ rt-thread/components/net/lwip-2.0.2/src/apps/mqtt/mqtt.c:0:3
	movs	r0, #0
	.loc	3 961 3 is_stmt 1               @ rt-thread/components/net/lwip-2.0.2/src/apps/mqtt/mqtt.c:961:3
	add	sp, #16
	pop	{r7, pc}
.Ltmp474:
.Lfunc_end24:
	.size	mqtt_tcp_poll_cb, .Lfunc_end24-mqtt_tcp_poll_cb
	.cfi_endproc
	.cantunwind
	.fnend
                                        @ -- End function
	.section	.text.mqtt_cyclic_timer,"ax",%progbits
	.p2align	3                               @ -- Begin function mqtt_cyclic_timer
	.type	mqtt_cyclic_timer,%function
	.code	16                              @ @mqtt_cyclic_timer
	.thumb_func
mqtt_cyclic_timer:
.Lfunc_begin25:
	.loc	3 545 0                         @ rt-thread/components/net/lwip-2.0.2/src/apps/mqtt/mqtt.c:545:0
	.fnstart
	.cfi_startproc
@ %bb.0:
	.save	{r7, lr}
	push	{r7, lr}
	.cfi_def_cfa_offset 8
	.cfi_offset lr, -4
	.cfi_offset r7, -8
	.pad	#24
	sub	sp, #24
	.cfi_def_cfa_offset 32
	str	r0, [sp, #20]
	movs	r0, #1
.Ltmp475:
	.loc	3 546 8 prologue_end            @ rt-thread/components/net/lwip-2.0.2/src/apps/mqtt/mqtt.c:546:8
	strb.w	r0, [sp, #19]
	.loc	3 547 44                        @ rt-thread/components/net/lwip-2.0.2/src/apps/mqtt/mqtt.c:547:44
	ldr	r0, [sp, #20]
	.loc	3 547 18 is_stmt 0              @ rt-thread/components/net/lwip-2.0.2/src/apps/mqtt/mqtt.c:547:18
	str	r0, [sp, #12]
	.loc	3 548 3 is_stmt 1               @ rt-thread/components/net/lwip-2.0.2/src/apps/mqtt/mqtt.c:548:3
	b	.LBB25_1
.LBB25_1:
.Ltmp476:
	.loc	3 548 3 is_stmt 0               @ rt-thread/components/net/lwip-2.0.2/src/apps/mqtt/mqtt.c:548:3
	ldr	r0, [sp, #12]
.Ltmp477:
	.loc	3 548 3                         @ rt-thread/components/net/lwip-2.0.2/src/apps/mqtt/mqtt.c:548:3
	cbnz	r0, .LBB25_5
	b	.LBB25_2
.LBB25_2:
.Ltmp478:
	.loc	3 548 3                         @ rt-thread/components/net/lwip-2.0.2/src/apps/mqtt/mqtt.c:548:3
	b	.LBB25_3
.LBB25_3:
.Ltmp479:
	.loc	3 548 3                         @ rt-thread/components/net/lwip-2.0.2/src/apps/mqtt/mqtt.c:548:3
	movw	r0, :lower16:.L.str.33
	movt	r0, :upper16:.L.str.33
	bl	rt_kprintf
	movw	r0, :lower16:.L.str.1
	movt	r0, :upper16:.L.str.1
	mov.w	r1, #548
	bl	sys_arch_assert
	b	.LBB25_4
.Ltmp480:
.LBB25_4:
	.loc	3 548 3                         @ rt-thread/components/net/lwip-2.0.2/src/apps/mqtt/mqtt.c:548:3
	b	.LBB25_5
.Ltmp481:
.LBB25_5:
	.loc	3 548 3                         @ rt-thread/components/net/lwip-2.0.2/src/apps/mqtt/mqtt.c:548:3
	b	.LBB25_6
.Ltmp482:
.LBB25_6:
	.loc	3 550 7 is_stmt 1               @ rt-thread/components/net/lwip-2.0.2/src/apps/mqtt/mqtt.c:550:7
	ldr	r0, [sp, #12]
	.loc	3 550 15 is_stmt 0              @ rt-thread/components/net/lwip-2.0.2/src/apps/mqtt/mqtt.c:550:15
	ldrb	r0, [r0, #10]
.Ltmp483:
	.loc	3 550 7                         @ rt-thread/components/net/lwip-2.0.2/src/apps/mqtt/mqtt.c:550:7
	cmp	r0, #2
	bne	.LBB25_10
	b	.LBB25_7
.LBB25_7:
.Ltmp484:
	.loc	3 551 5 is_stmt 1               @ rt-thread/components/net/lwip-2.0.2/src/apps/mqtt/mqtt.c:551:5
	ldr	r1, [sp, #12]
	.loc	3 551 24 is_stmt 0              @ rt-thread/components/net/lwip-2.0.2/src/apps/mqtt/mqtt.c:551:24
	ldrh	r0, [r1]
	adds	r0, #1
	strh	r0, [r1]
.Ltmp485:
	.loc	3 552 10 is_stmt 1              @ rt-thread/components/net/lwip-2.0.2/src/apps/mqtt/mqtt.c:552:10
	ldr	r0, [sp, #12]
	.loc	3 552 18 is_stmt 0              @ rt-thread/components/net/lwip-2.0.2/src/apps/mqtt/mqtt.c:552:18
	ldrh	r0, [r0]
	.loc	3 552 30                        @ rt-thread/components/net/lwip-2.0.2/src/apps/mqtt/mqtt.c:552:30
	add.w	r0, r0, r0, lsl #2
.Ltmp486:
	.loc	3 552 9                         @ rt-thread/components/net/lwip-2.0.2/src/apps/mqtt/mqtt.c:552:9
	cmp	r0, #100
	blt	.LBB25_9
	b	.LBB25_8
.LBB25_8:
.Ltmp487:
	.loc	3 555 18 is_stmt 1              @ rt-thread/components/net/lwip-2.0.2/src/apps/mqtt/mqtt.c:555:18
	ldr	r0, [sp, #12]
	movw	r1, #257
	.loc	3 555 7 is_stmt 0               @ rt-thread/components/net/lwip-2.0.2/src/apps/mqtt/mqtt.c:555:7
	bl	mqtt_close
	movs	r0, #0
	.loc	3 556 21 is_stmt 1              @ rt-thread/components/net/lwip-2.0.2/src/apps/mqtt/mqtt.c:556:21
	strb.w	r0, [sp, #19]
	.loc	3 557 5                         @ rt-thread/components/net/lwip-2.0.2/src/apps/mqtt/mqtt.c:557:5
	b	.LBB25_9
.Ltmp488:
.LBB25_9:
	.loc	3 558 3                         @ rt-thread/components/net/lwip-2.0.2/src/apps/mqtt/mqtt.c:558:3
	b	.LBB25_23
.Ltmp489:
.LBB25_10:
	.loc	3 558 14 is_stmt 0              @ rt-thread/components/net/lwip-2.0.2/src/apps/mqtt/mqtt.c:558:14
	ldr	r0, [sp, #12]
	.loc	3 558 22                        @ rt-thread/components/net/lwip-2.0.2/src/apps/mqtt/mqtt.c:558:22
	ldrb	r0, [r0, #10]
.Ltmp490:
	.loc	3 558 14                        @ rt-thread/components/net/lwip-2.0.2/src/apps/mqtt/mqtt.c:558:14
	cmp	r0, #3
	bne	.LBB25_21
	b	.LBB25_11
.LBB25_11:
.Ltmp491:
	.loc	3 560 32 is_stmt 1              @ rt-thread/components/net/lwip-2.0.2/src/apps/mqtt/mqtt.c:560:32
	ldr	r0, [sp, #12]
	.loc	3 560 40 is_stmt 0              @ rt-thread/components/net/lwip-2.0.2/src/apps/mqtt/mqtt.c:560:40
	adds	r0, #24
	movs	r1, #5
	.loc	3 560 5                         @ rt-thread/components/net/lwip-2.0.2/src/apps/mqtt/mqtt.c:560:5
	bl	mqtt_request_time_elapsed
.Ltmp492:
	.loc	3 563 9 is_stmt 1               @ rt-thread/components/net/lwip-2.0.2/src/apps/mqtt/mqtt.c:563:9
	ldr	r0, [sp, #12]
	.loc	3 563 17 is_stmt 0              @ rt-thread/components/net/lwip-2.0.2/src/apps/mqtt/mqtt.c:563:17
	ldrh	r0, [r0, #2]
.Ltmp493:
	.loc	3 563 9                         @ rt-thread/components/net/lwip-2.0.2/src/apps/mqtt/mqtt.c:563:9
	cmp	r0, #1
	blt	.LBB25_20
	b	.LBB25_12
.LBB25_12:
.Ltmp494:
	.loc	3 565 7 is_stmt 1               @ rt-thread/components/net/lwip-2.0.2/src/apps/mqtt/mqtt.c:565:7
	ldr	r1, [sp, #12]
	.loc	3 565 30 is_stmt 0              @ rt-thread/components/net/lwip-2.0.2/src/apps/mqtt/mqtt.c:565:30
	ldrh	r0, [r1, #4]
	adds	r0, #1
	strh	r0, [r1, #4]
.Ltmp495:
	.loc	3 567 12 is_stmt 1              @ rt-thread/components/net/lwip-2.0.2/src/apps/mqtt/mqtt.c:567:12
	ldr	r1, [sp, #12]
	.loc	3 567 20 is_stmt 0              @ rt-thread/components/net/lwip-2.0.2/src/apps/mqtt/mqtt.c:567:20
	ldrh	r0, [r1, #4]
	.loc	3 567 36                        @ rt-thread/components/net/lwip-2.0.2/src/apps/mqtt/mqtt.c:567:36
	add.w	r0, r0, r0, lsl #2
	.loc	3 567 77                        @ rt-thread/components/net/lwip-2.0.2/src/apps/mqtt/mqtt.c:567:77
	ldrh	r1, [r1, #2]
	.loc	3 567 88                        @ rt-thread/components/net/lwip-2.0.2/src/apps/mqtt/mqtt.c:567:88
	add.w	r1, r1, r1, lsr #1
.Ltmp496:
	.loc	3 567 11                        @ rt-thread/components/net/lwip-2.0.2/src/apps/mqtt/mqtt.c:567:11
	cmp	r0, r1
	ble	.LBB25_14
	b	.LBB25_13
.LBB25_13:
.Ltmp497:
	.loc	3 569 20 is_stmt 1              @ rt-thread/components/net/lwip-2.0.2/src/apps/mqtt/mqtt.c:569:20
	ldr	r0, [sp, #12]
	movw	r1, #257
	.loc	3 569 9 is_stmt 0               @ rt-thread/components/net/lwip-2.0.2/src/apps/mqtt/mqtt.c:569:9
	bl	mqtt_close
	movs	r0, #0
	.loc	3 570 23 is_stmt 1              @ rt-thread/components/net/lwip-2.0.2/src/apps/mqtt/mqtt.c:570:23
	strb.w	r0, [sp, #19]
	.loc	3 571 7                         @ rt-thread/components/net/lwip-2.0.2/src/apps/mqtt/mqtt.c:571:7
	b	.LBB25_14
.Ltmp498:
.LBB25_14:
	.loc	3 574 12                        @ rt-thread/components/net/lwip-2.0.2/src/apps/mqtt/mqtt.c:574:12
	ldr	r1, [sp, #12]
	.loc	3 574 20 is_stmt 0              @ rt-thread/components/net/lwip-2.0.2/src/apps/mqtt/mqtt.c:574:20
	ldrh	r0, [r1]
	.loc	3 574 32                        @ rt-thread/components/net/lwip-2.0.2/src/apps/mqtt/mqtt.c:574:32
	add.w	r0, r0, r0, lsl #2
	.loc	3 574 73                        @ rt-thread/components/net/lwip-2.0.2/src/apps/mqtt/mqtt.c:574:73
	ldrh	r1, [r1, #2]
.Ltmp499:
	.loc	3 574 11                        @ rt-thread/components/net/lwip-2.0.2/src/apps/mqtt/mqtt.c:574:11
	cmp	r0, r1
	blt	.LBB25_18
	b	.LBB25_15
.LBB25_15:
.Ltmp500:
	.loc	3 576 38 is_stmt 1              @ rt-thread/components/net/lwip-2.0.2/src/apps/mqtt/mqtt.c:576:38
	ldr	r0, [sp, #12]
	.loc	3 576 46 is_stmt 0              @ rt-thread/components/net/lwip-2.0.2/src/apps/mqtt/mqtt.c:576:46
	adds	r0, #236
	movs	r1, #0
	.loc	3 576 13                        @ rt-thread/components/net/lwip-2.0.2/src/apps/mqtt/mqtt.c:576:13
	bl	mqtt_output_check_space
.Ltmp501:
	.loc	3 576 13                        @ rt-thread/components/net/lwip-2.0.2/src/apps/mqtt/mqtt.c:576:13
	cbz	r0, .LBB25_17
	b	.LBB25_16
.LBB25_16:
.Ltmp502:
	.loc	3 577 44 is_stmt 1              @ rt-thread/components/net/lwip-2.0.2/src/apps/mqtt/mqtt.c:577:44
	ldr	r0, [sp, #12]
	.loc	3 577 52 is_stmt 0              @ rt-thread/components/net/lwip-2.0.2/src/apps/mqtt/mqtt.c:577:52
	adds	r0, #236
	.loc	3 577 11                        @ rt-thread/components/net/lwip-2.0.2/src/apps/mqtt/mqtt.c:577:11
	mov	r1, sp
	movs	r3, #0
	str	r3, [sp, #8]                    @ 4-byte Spill
	str	r3, [r1, #4]
	str	r3, [r1]
	movs	r1, #12
	mov	r2, r3
	bl	mqtt_output_append_fixed_header
	ldr	r0, [sp, #8]                    @ 4-byte Reload
	.loc	3 578 11 is_stmt 1              @ rt-thread/components/net/lwip-2.0.2/src/apps/mqtt/mqtt.c:578:11
	ldr	r1, [sp, #12]
	.loc	3 578 31 is_stmt 0              @ rt-thread/components/net/lwip-2.0.2/src/apps/mqtt/mqtt.c:578:31
	strh	r0, [r1]
	.loc	3 579 9 is_stmt 1               @ rt-thread/components/net/lwip-2.0.2/src/apps/mqtt/mqtt.c:579:9
	b	.LBB25_17
.Ltmp503:
.LBB25_17:
	.loc	3 580 7                         @ rt-thread/components/net/lwip-2.0.2/src/apps/mqtt/mqtt.c:580:7
	b	.LBB25_19
.Ltmp504:
.LBB25_18:
	.loc	3 581 9                         @ rt-thread/components/net/lwip-2.0.2/src/apps/mqtt/mqtt.c:581:9
	ldr	r1, [sp, #12]
	.loc	3 581 28 is_stmt 0              @ rt-thread/components/net/lwip-2.0.2/src/apps/mqtt/mqtt.c:581:28
	ldrh	r0, [r1]
	adds	r0, #1
	strh	r0, [r1]
	b	.LBB25_19
.Ltmp505:
.LBB25_19:
	.loc	3 583 5 is_stmt 1               @ rt-thread/components/net/lwip-2.0.2/src/apps/mqtt/mqtt.c:583:5
	b	.LBB25_20
.Ltmp506:
.LBB25_20:
	.loc	3 584 3                         @ rt-thread/components/net/lwip-2.0.2/src/apps/mqtt/mqtt.c:584:3
	b	.LBB25_22
.Ltmp507:
.LBB25_21:
	.loc	3 0 3 is_stmt 0                 @ rt-thread/components/net/lwip-2.0.2/src/apps/mqtt/mqtt.c:0:3
	movs	r0, #0
.Ltmp508:
	.loc	3 586 19 is_stmt 1              @ rt-thread/components/net/lwip-2.0.2/src/apps/mqtt/mqtt.c:586:19
	strb.w	r0, [sp, #19]
	b	.LBB25_22
.Ltmp509:
.LBB25_22:
	.loc	3 0 19 is_stmt 0                @ rt-thread/components/net/lwip-2.0.2/src/apps/mqtt/mqtt.c:0:19
	b	.LBB25_23
.LBB25_23:
.Ltmp510:
	.loc	3 588 7 is_stmt 1               @ rt-thread/components/net/lwip-2.0.2/src/apps/mqtt/mqtt.c:588:7
	ldrb.w	r0, [sp, #19]
.Ltmp511:
	.loc	3 588 7 is_stmt 0               @ rt-thread/components/net/lwip-2.0.2/src/apps/mqtt/mqtt.c:588:7
	cbz	r0, .LBB25_25
	b	.LBB25_24
.LBB25_24:
.Ltmp512:
	.loc	3 589 69 is_stmt 1              @ rt-thread/components/net/lwip-2.0.2/src/apps/mqtt/mqtt.c:589:69
	ldr	r2, [sp, #20]
	.loc	3 589 5 is_stmt 0               @ rt-thread/components/net/lwip-2.0.2/src/apps/mqtt/mqtt.c:589:5
	movw	r1, :lower16:mqtt_cyclic_timer
	movt	r1, :upper16:mqtt_cyclic_timer
	movw	r0, #5000
	bl	sys_timeout
	.loc	3 590 3 is_stmt 1               @ rt-thread/components/net/lwip-2.0.2/src/apps/mqtt/mqtt.c:590:3
	b	.LBB25_25
.Ltmp513:
.LBB25_25:
	.loc	3 591 1                         @ rt-thread/components/net/lwip-2.0.2/src/apps/mqtt/mqtt.c:591:1
	add	sp, #24
	pop	{r7, pc}
.Ltmp514:
.Lfunc_end25:
	.size	mqtt_cyclic_timer, .Lfunc_end25-mqtt_cyclic_timer
	.cfi_endproc
	.cantunwind
	.fnend
                                        @ -- End function
	.section	.text.mqtt_parse_incoming,"ax",%progbits
	.p2align	3                               @ -- Begin function mqtt_parse_incoming
	.type	mqtt_parse_incoming,%function
	.code	16                              @ @mqtt_parse_incoming
	.thumb_func
mqtt_parse_incoming:
.Lfunc_begin26:
	.loc	3 779 0                         @ rt-thread/components/net/lwip-2.0.2/src/apps/mqtt/mqtt.c:779:0
	.fnstart
	.cfi_startproc
@ %bb.0:
	.save	{r7, lr}
	push	{r7, lr}
	.cfi_def_cfa_offset 8
	.cfi_offset lr, -4
	.cfi_offset r7, -8
	.pad	#40
	sub	sp, #40
	.cfi_def_cfa_offset 48
	str	r0, [sp, #32]
	str	r1, [sp, #28]
	movs	r0, #0
.Ltmp515:
	.loc	3 780 9 prologue_end            @ rt-thread/components/net/lwip-2.0.2/src/apps/mqtt/mqtt.c:780:9
	strh.w	r0, [sp, #26]
	.loc	3 781 9                         @ rt-thread/components/net/lwip-2.0.2/src/apps/mqtt/mqtt.c:781:9
	str	r0, [sp, #20]
	.loc	3 782 8                         @ rt-thread/components/net/lwip-2.0.2/src/apps/mqtt/mqtt.c:782:8
	strb.w	r0, [sp, #19]
	.loc	3 783 8                         @ rt-thread/components/net/lwip-2.0.2/src/apps/mqtt/mqtt.c:783:8
	strb.w	r0, [sp, #18]
	.loc	3 785 3                         @ rt-thread/components/net/lwip-2.0.2/src/apps/mqtt/mqtt.c:785:3
	b	.LBB26_1
.LBB26_1:                               @ =>This Inner Loop Header: Depth=1
	.loc	3 785 10 is_stmt 0              @ rt-thread/components/net/lwip-2.0.2/src/apps/mqtt/mqtt.c:785:10
	ldr	r0, [sp, #28]
	.loc	3 785 13                        @ rt-thread/components/net/lwip-2.0.2/src/apps/mqtt/mqtt.c:785:13
	ldrh	r0, [r0, #8]
	.loc	3 785 23                        @ rt-thread/components/net/lwip-2.0.2/src/apps/mqtt/mqtt.c:785:23
	ldrh.w	r1, [sp, #26]
	.loc	3 785 3                         @ rt-thread/components/net/lwip-2.0.2/src/apps/mqtt/mqtt.c:785:3
	cmp	r0, r1
	ble.w	.LBB26_29
	b	.LBB26_2
.LBB26_2:                               @   in Loop: Header=BB26_1 Depth=1
.Ltmp516:
	.loc	3 786 10 is_stmt 1              @ rt-thread/components/net/lwip-2.0.2/src/apps/mqtt/mqtt.c:786:10
	ldrb.w	r0, [sp, #19]
	.loc	3 786 29 is_stmt 0              @ rt-thread/components/net/lwip-2.0.2/src/apps/mqtt/mqtt.c:786:29
	cmp	r0, #2
	blt	.LBB26_4
	b	.LBB26_3
.LBB26_3:                               @   in Loop: Header=BB26_1 Depth=1
	.loc	3 786 34                        @ rt-thread/components/net/lwip-2.0.2/src/apps/mqtt/mqtt.c:786:34
	ldrb.w	r0, [sp, #18]
.Ltmp517:
	.loc	3 786 9                         @ rt-thread/components/net/lwip-2.0.2/src/apps/mqtt/mqtt.c:786:9
	lsls	r0, r0, #24
	cmp	r0, #0
	bpl	.LBB26_15
	b	.LBB26_4
.LBB26_4:                               @   in Loop: Header=BB26_1 Depth=1
.Ltmp518:
	.loc	3 788 11 is_stmt 1              @ rt-thread/components/net/lwip-2.0.2/src/apps/mqtt/mqtt.c:788:11
	ldrb.w	r0, [sp, #19]
	.loc	3 788 27 is_stmt 0              @ rt-thread/components/net/lwip-2.0.2/src/apps/mqtt/mqtt.c:788:27
	ldr	r1, [sp, #32]
	.loc	3 788 35                        @ rt-thread/components/net/lwip-2.0.2/src/apps/mqtt/mqtt.c:788:35
	ldr	r1, [r1, #104]
.Ltmp519:
	.loc	3 788 11                        @ rt-thread/components/net/lwip-2.0.2/src/apps/mqtt/mqtt.c:788:11
	cmp	r0, r1
	bhs	.LBB26_6
	b	.LBB26_5
.LBB26_5:                               @   in Loop: Header=BB26_1 Depth=1
.Ltmp520:
	.loc	3 789 13 is_stmt 1              @ rt-thread/components/net/lwip-2.0.2/src/apps/mqtt/mqtt.c:789:13
	ldr	r0, [sp, #32]
	.loc	3 789 31 is_stmt 0              @ rt-thread/components/net/lwip-2.0.2/src/apps/mqtt/mqtt.c:789:31
	ldrb.w	r1, [sp, #19]
	.loc	3 789 21                        @ rt-thread/components/net/lwip-2.0.2/src/apps/mqtt/mqtt.c:789:21
	add	r0, r1
	.loc	3 789 13                        @ rt-thread/components/net/lwip-2.0.2/src/apps/mqtt/mqtt.c:789:13
	ldrb.w	r0, [r0, #108]
	.loc	3 789 11                        @ rt-thread/components/net/lwip-2.0.2/src/apps/mqtt/mqtt.c:789:11
	strb.w	r0, [sp, #18]
	.loc	3 790 7 is_stmt 1               @ rt-thread/components/net/lwip-2.0.2/src/apps/mqtt/mqtt.c:790:7
	b	.LBB26_7
.Ltmp521:
.LBB26_6:                               @   in Loop: Header=BB26_1 Depth=1
	.loc	3 791 25                        @ rt-thread/components/net/lwip-2.0.2/src/apps/mqtt/mqtt.c:791:25
	ldr	r0, [sp, #28]
	.loc	3 791 37 is_stmt 0              @ rt-thread/components/net/lwip-2.0.2/src/apps/mqtt/mqtt.c:791:37
	ldrh.w	r1, [sp, #26]
	adds	r2, r1, #1
	strh.w	r2, [sp, #26]
	.loc	3 791 13                        @ rt-thread/components/net/lwip-2.0.2/src/apps/mqtt/mqtt.c:791:13
	bl	pbuf_get_at
	.loc	3 791 11                        @ rt-thread/components/net/lwip-2.0.2/src/apps/mqtt/mqtt.c:791:11
	strb.w	r0, [sp, #18]
	.loc	3 792 48 is_stmt 1              @ rt-thread/components/net/lwip-2.0.2/src/apps/mqtt/mqtt.c:792:48
	ldrb.w	r0, [sp, #18]
	.loc	3 792 9 is_stmt 0               @ rt-thread/components/net/lwip-2.0.2/src/apps/mqtt/mqtt.c:792:9
	ldr	r3, [sp, #32]
	.loc	3 792 42                        @ rt-thread/components/net/lwip-2.0.2/src/apps/mqtt/mqtt.c:792:42
	ldr	r2, [r3, #104]
	.loc	3 792 17                        @ rt-thread/components/net/lwip-2.0.2/src/apps/mqtt/mqtt.c:792:17
	adds	r1, r3, r2
	.loc	3 792 42                        @ rt-thread/components/net/lwip-2.0.2/src/apps/mqtt/mqtt.c:792:42
	adds	r2, #1
	str	r2, [r3, #104]
	.loc	3 792 46                        @ rt-thread/components/net/lwip-2.0.2/src/apps/mqtt/mqtt.c:792:46
	strb.w	r0, [r1, #108]
	b	.LBB26_7
.Ltmp522:
.LBB26_7:                               @   in Loop: Header=BB26_1 Depth=1
	.loc	3 794 20 is_stmt 1              @ rt-thread/components/net/lwip-2.0.2/src/apps/mqtt/mqtt.c:794:20
	ldrb.w	r0, [sp, #19]
	adds	r0, #1
	strb.w	r0, [sp, #19]
.Ltmp523:
	.loc	3 796 11                        @ rt-thread/components/net/lwip-2.0.2/src/apps/mqtt/mqtt.c:796:11
	ldrb.w	r0, [sp, #19]
.Ltmp524:
	.loc	3 796 11 is_stmt 0              @ rt-thread/components/net/lwip-2.0.2/src/apps/mqtt/mqtt.c:796:11
	cmp	r0, #2
	blt	.LBB26_14
	b	.LBB26_8
.LBB26_8:                               @   in Loop: Header=BB26_1 Depth=1
.Ltmp525:
	.loc	3 797 32 is_stmt 1              @ rt-thread/components/net/lwip-2.0.2/src/apps/mqtt/mqtt.c:797:32
	ldrb.w	r0, [sp, #18]
	.loc	3 797 34 is_stmt 0              @ rt-thread/components/net/lwip-2.0.2/src/apps/mqtt/mqtt.c:797:34
	and	r0, r0, #127
	.loc	3 797 47                        @ rt-thread/components/net/lwip-2.0.2/src/apps/mqtt/mqtt.c:797:47
	ldrb.w	r1, [sp, #19]
	.loc	3 797 61                        @ rt-thread/components/net/lwip-2.0.2/src/apps/mqtt/mqtt.c:797:61
	rsb	r1, r1, r1, lsl #3
	.loc	3 797 66                        @ rt-thread/components/net/lwip-2.0.2/src/apps/mqtt/mqtt.c:797:66
	subs	r1, #14
	.loc	3 797 42                        @ rt-thread/components/net/lwip-2.0.2/src/apps/mqtt/mqtt.c:797:42
	lsl.w	r1, r0, r1
	.loc	3 797 21                        @ rt-thread/components/net/lwip-2.0.2/src/apps/mqtt/mqtt.c:797:21
	ldr	r0, [sp, #20]
	orrs	r0, r1
	str	r0, [sp, #20]
.Ltmp526:
	.loc	3 798 14 is_stmt 1              @ rt-thread/components/net/lwip-2.0.2/src/apps/mqtt/mqtt.c:798:14
	ldrb.w	r0, [sp, #18]
.Ltmp527:
	.loc	3 798 13 is_stmt 0              @ rt-thread/components/net/lwip-2.0.2/src/apps/mqtt/mqtt.c:798:13
	lsls	r0, r0, #24
	cmp	r0, #0
	bmi	.LBB26_13
	b	.LBB26_9
.LBB26_9:                               @   in Loop: Header=BB26_1 Depth=1
.Ltmp528:
	.loc	3 800 15 is_stmt 1              @ rt-thread/components/net/lwip-2.0.2/src/apps/mqtt/mqtt.c:800:15
	ldr	r0, [sp, #20]
.Ltmp529:
	.loc	3 800 15 is_stmt 0              @ rt-thread/components/net/lwip-2.0.2/src/apps/mqtt/mqtt.c:800:15
	cbnz	r0, .LBB26_11
	b	.LBB26_10
.LBB26_10:                              @   in Loop: Header=BB26_1 Depth=1
.Ltmp530:
	.loc	3 802 35 is_stmt 1              @ rt-thread/components/net/lwip-2.0.2/src/apps/mqtt/mqtt.c:802:35
	ldr	r0, [sp, #32]
	.loc	3 802 43 is_stmt 0              @ rt-thread/components/net/lwip-2.0.2/src/apps/mqtt/mqtt.c:802:43
	ldrb.w	r1, [sp, #19]
	movs	r3, #0
	.loc	3 802 13                        @ rt-thread/components/net/lwip-2.0.2/src/apps/mqtt/mqtt.c:802:13
	str	r3, [sp, #4]                    @ 4-byte Spill
	mov	r2, r3
	bl	mqtt_message_received
                                        @ kill: def $r1 killed $r0
	.loc	3 803 13 is_stmt 1              @ rt-thread/components/net/lwip-2.0.2/src/apps/mqtt/mqtt.c:803:13
	ldr	r0, [sp, #4]                    @ 4-byte Reload
	ldr	r1, [sp, #32]
	.loc	3 803 29 is_stmt 0              @ rt-thread/components/net/lwip-2.0.2/src/apps/mqtt/mqtt.c:803:29
	str	r0, [r1, #104]
	.loc	3 804 27 is_stmt 1              @ rt-thread/components/net/lwip-2.0.2/src/apps/mqtt/mqtt.c:804:27
	strb.w	r0, [sp, #19]
	.loc	3 805 11                        @ rt-thread/components/net/lwip-2.0.2/src/apps/mqtt/mqtt.c:805:11
	b	.LBB26_12
.Ltmp531:
.LBB26_11:                              @   in Loop: Header=BB26_1 Depth=1
	.loc	3 807 28                        @ rt-thread/components/net/lwip-2.0.2/src/apps/mqtt/mqtt.c:807:28
	ldr	r0, [sp, #20]
	.loc	3 807 42 is_stmt 0              @ rt-thread/components/net/lwip-2.0.2/src/apps/mqtt/mqtt.c:807:42
	ldrb.w	r1, [sp, #19]
	.loc	3 807 40                        @ rt-thread/components/net/lwip-2.0.2/src/apps/mqtt/mqtt.c:807:40
	add	r0, r1
	.loc	3 807 59                        @ rt-thread/components/net/lwip-2.0.2/src/apps/mqtt/mqtt.c:807:59
	ldr	r1, [sp, #32]
	.loc	3 807 67                        @ rt-thread/components/net/lwip-2.0.2/src/apps/mqtt/mqtt.c:807:67
	ldr	r1, [r1, #104]
	.loc	3 807 57                        @ rt-thread/components/net/lwip-2.0.2/src/apps/mqtt/mqtt.c:807:57
	subs	r0, r0, r1
	.loc	3 807 25                        @ rt-thread/components/net/lwip-2.0.2/src/apps/mqtt/mqtt.c:807:25
	str	r0, [sp, #20]
	b	.LBB26_12
.Ltmp532:
.LBB26_12:                              @   in Loop: Header=BB26_1 Depth=1
	.loc	3 809 9 is_stmt 1               @ rt-thread/components/net/lwip-2.0.2/src/apps/mqtt/mqtt.c:809:9
	b	.LBB26_13
.Ltmp533:
.LBB26_13:                              @   in Loop: Header=BB26_1 Depth=1
	.loc	3 810 7                         @ rt-thread/components/net/lwip-2.0.2/src/apps/mqtt/mqtt.c:810:7
	b	.LBB26_14
.Ltmp534:
.LBB26_14:                              @   in Loop: Header=BB26_1 Depth=1
	.loc	3 811 5                         @ rt-thread/components/net/lwip-2.0.2/src/apps/mqtt/mqtt.c:811:5
	b	.LBB26_28
.Ltmp535:
.LBB26_15:                              @   in Loop: Header=BB26_1 Depth=1
	.loc	3 814 20                        @ rt-thread/components/net/lwip-2.0.2/src/apps/mqtt/mqtt.c:814:20
	ldr	r0, [sp, #32]
	.loc	3 814 28 is_stmt 0              @ rt-thread/components/net/lwip-2.0.2/src/apps/mqtt/mqtt.c:814:28
	ldr	r0, [r0, #104]
	.loc	3 814 38                        @ rt-thread/components/net/lwip-2.0.2/src/apps/mqtt/mqtt.c:814:38
	ldrb.w	r1, [sp, #19]
	.loc	3 814 36                        @ rt-thread/components/net/lwip-2.0.2/src/apps/mqtt/mqtt.c:814:36
	subs	r3, r0, r1
	.loc	3 814 83                        @ rt-thread/components/net/lwip-2.0.2/src/apps/mqtt/mqtt.c:814:83
	rsb.w	r2, r1, #128
	.loc	3 814 53                        @ rt-thread/components/net/lwip-2.0.2/src/apps/mqtt/mqtt.c:814:53
	udiv	r0, r3, r2
	mls	r0, r0, r2, r3
	.loc	3 814 100                       @ rt-thread/components/net/lwip-2.0.2/src/apps/mqtt/mqtt.c:814:100
	add	r0, r1
	.loc	3 814 17                        @ rt-thread/components/net/lwip-2.0.2/src/apps/mqtt/mqtt.c:814:17
	strh.w	r0, [sp, #14]
	.loc	3 817 24 is_stmt 1              @ rt-thread/components/net/lwip-2.0.2/src/apps/mqtt/mqtt.c:817:24
	ldr	r0, [sp, #28]
	ldrh	r0, [r0, #8]
	ldrh.w	r1, [sp, #26]
	subs	r0, r0, r1
	uxth	r0, r0
	ldr	r1, [sp, #20]
	cmp	r0, r1
	bhs	.LBB26_17
	b	.LBB26_16
.LBB26_16:                              @   in Loop: Header=BB26_1 Depth=1
	ldr	r0, [sp, #28]
	ldrh	r0, [r0, #8]
	ldrh.w	r1, [sp, #26]
	subs	r0, r0, r1
	uxth	r0, r0
	str	r0, [sp]                        @ 4-byte Spill
	b	.LBB26_18
.LBB26_17:                              @   in Loop: Header=BB26_1 Depth=1
	ldr	r0, [sp, #20]
	str	r0, [sp]                        @ 4-byte Spill
	b	.LBB26_18
.LBB26_18:                              @   in Loop: Header=BB26_1 Depth=1
	ldr	r0, [sp]                        @ 4-byte Reload
	.loc	3 817 15 is_stmt 0              @ rt-thread/components/net/lwip-2.0.2/src/apps/mqtt/mqtt.c:817:15
	strh.w	r0, [sp, #16]
	.loc	3 820 51 is_stmt 1              @ rt-thread/components/net/lwip-2.0.2/src/apps/mqtt/mqtt.c:820:51
	ldrh.w	r0, [sp, #14]
	.loc	3 820 49 is_stmt 0              @ rt-thread/components/net/lwip-2.0.2/src/apps/mqtt/mqtt.c:820:49
	rsb.w	r0, r0, #128
	.loc	3 820 20                        @ rt-thread/components/net/lwip-2.0.2/src/apps/mqtt/mqtt.c:820:20
	strh.w	r0, [sp, #12]
.Ltmp536:
	.loc	3 821 11 is_stmt 1              @ rt-thread/components/net/lwip-2.0.2/src/apps/mqtt/mqtt.c:821:11
	ldrh.w	r0, [sp, #16]
	.loc	3 821 21 is_stmt 0              @ rt-thread/components/net/lwip-2.0.2/src/apps/mqtt/mqtt.c:821:21
	ldrh.w	r1, [sp, #12]
.Ltmp537:
	.loc	3 821 11                        @ rt-thread/components/net/lwip-2.0.2/src/apps/mqtt/mqtt.c:821:11
	cmp	r0, r1
	ble	.LBB26_20
	b	.LBB26_19
.LBB26_19:                              @   in Loop: Header=BB26_1 Depth=1
.Ltmp538:
	.loc	3 822 19 is_stmt 1              @ rt-thread/components/net/lwip-2.0.2/src/apps/mqtt/mqtt.c:822:19
	ldrh.w	r0, [sp, #12]
	.loc	3 822 17 is_stmt 0              @ rt-thread/components/net/lwip-2.0.2/src/apps/mqtt/mqtt.c:822:17
	strh.w	r0, [sp, #16]
	.loc	3 823 7 is_stmt 1               @ rt-thread/components/net/lwip-2.0.2/src/apps/mqtt/mqtt.c:823:7
	b	.LBB26_20
.Ltmp539:
.LBB26_20:                              @   in Loop: Header=BB26_1 Depth=1
	.loc	3 824 25                        @ rt-thread/components/net/lwip-2.0.2/src/apps/mqtt/mqtt.c:824:25
	ldr	r0, [sp, #28]
	.loc	3 824 28 is_stmt 0              @ rt-thread/components/net/lwip-2.0.2/src/apps/mqtt/mqtt.c:824:28
	ldr	r1, [sp, #32]
	.loc	3 824 46                        @ rt-thread/components/net/lwip-2.0.2/src/apps/mqtt/mqtt.c:824:46
	ldrh.w	r2, [sp, #14]
	.loc	3 824 36                        @ rt-thread/components/net/lwip-2.0.2/src/apps/mqtt/mqtt.c:824:36
	add	r1, r2
	.loc	3 824 45                        @ rt-thread/components/net/lwip-2.0.2/src/apps/mqtt/mqtt.c:824:45
	adds	r1, #108
	.loc	3 824 57                        @ rt-thread/components/net/lwip-2.0.2/src/apps/mqtt/mqtt.c:824:57
	ldrh.w	r2, [sp, #16]
	.loc	3 824 66                        @ rt-thread/components/net/lwip-2.0.2/src/apps/mqtt/mqtt.c:824:66
	ldrh.w	r3, [sp, #26]
	.loc	3 824 7                         @ rt-thread/components/net/lwip-2.0.2/src/apps/mqtt/mqtt.c:824:7
	bl	pbuf_copy_partial
	.loc	3 827 26 is_stmt 1              @ rt-thread/components/net/lwip-2.0.2/src/apps/mqtt/mqtt.c:827:26
	ldrh.w	r2, [sp, #16]
	.loc	3 827 7 is_stmt 0               @ rt-thread/components/net/lwip-2.0.2/src/apps/mqtt/mqtt.c:827:7
	ldr	r1, [sp, #32]
	.loc	3 827 23                        @ rt-thread/components/net/lwip-2.0.2/src/apps/mqtt/mqtt.c:827:23
	ldr	r0, [r1, #104]
	add	r0, r2
	str	r0, [r1, #104]
	.loc	3 828 20 is_stmt 1              @ rt-thread/components/net/lwip-2.0.2/src/apps/mqtt/mqtt.c:828:20
	ldrh.w	r1, [sp, #16]
	.loc	3 828 17 is_stmt 0              @ rt-thread/components/net/lwip-2.0.2/src/apps/mqtt/mqtt.c:828:17
	ldrh.w	r0, [sp, #26]
	add	r0, r1
	strh.w	r0, [sp, #26]
	.loc	3 829 22 is_stmt 1              @ rt-thread/components/net/lwip-2.0.2/src/apps/mqtt/mqtt.c:829:22
	ldrh.w	r1, [sp, #16]
	.loc	3 829 19 is_stmt 0              @ rt-thread/components/net/lwip-2.0.2/src/apps/mqtt/mqtt.c:829:19
	ldr	r0, [sp, #20]
	subs	r0, r0, r1
	str	r0, [sp, #20]
.Ltmp540:
	.loc	3 832 11 is_stmt 1              @ rt-thread/components/net/lwip-2.0.2/src/apps/mqtt/mqtt.c:832:11
	ldr	r0, [sp, #20]
	.loc	3 832 28 is_stmt 0              @ rt-thread/components/net/lwip-2.0.2/src/apps/mqtt/mqtt.c:832:28
	cbz	r0, .LBB26_22
	b	.LBB26_21
.LBB26_21:                              @   in Loop: Header=BB26_1 Depth=1
	.loc	3 832 31                        @ rt-thread/components/net/lwip-2.0.2/src/apps/mqtt/mqtt.c:832:31
	ldrh.w	r0, [sp, #16]
	.loc	3 832 42                        @ rt-thread/components/net/lwip-2.0.2/src/apps/mqtt/mqtt.c:832:42
	ldrh.w	r1, [sp, #12]
.Ltmp541:
	.loc	3 832 11                        @ rt-thread/components/net/lwip-2.0.2/src/apps/mqtt/mqtt.c:832:11
	cmp	r0, r1
	bne	.LBB26_27
	b	.LBB26_22
.LBB26_22:                              @   in Loop: Header=BB26_1 Depth=1
.Ltmp542:
	.loc	3 834 62 is_stmt 1              @ rt-thread/components/net/lwip-2.0.2/src/apps/mqtt/mqtt.c:834:62
	ldr	r0, [sp, #32]
	.loc	3 834 70 is_stmt 0              @ rt-thread/components/net/lwip-2.0.2/src/apps/mqtt/mqtt.c:834:70
	ldrb.w	r1, [sp, #19]
	.loc	3 834 86                        @ rt-thread/components/net/lwip-2.0.2/src/apps/mqtt/mqtt.c:834:86
	ldrh.w	r2, [sp, #14]
	.loc	3 834 98                        @ rt-thread/components/net/lwip-2.0.2/src/apps/mqtt/mqtt.c:834:98
	ldrh.w	r3, [sp, #16]
	.loc	3 834 96                        @ rt-thread/components/net/lwip-2.0.2/src/apps/mqtt/mqtt.c:834:96
	add	r2, r3
	.loc	3 834 107                       @ rt-thread/components/net/lwip-2.0.2/src/apps/mqtt/mqtt.c:834:107
	subs	r2, r2, r1
	.loc	3 834 124                       @ rt-thread/components/net/lwip-2.0.2/src/apps/mqtt/mqtt.c:834:124
	ldr	r3, [sp, #20]
	.loc	3 834 40                        @ rt-thread/components/net/lwip-2.0.2/src/apps/mqtt/mqtt.c:834:40
	uxth	r2, r2
	bl	mqtt_message_received
	.loc	3 834 34                        @ rt-thread/components/net/lwip-2.0.2/src/apps/mqtt/mqtt.c:834:34
	strh.w	r0, [sp, #10]
.Ltmp543:
	.loc	3 835 13 is_stmt 1              @ rt-thread/components/net/lwip-2.0.2/src/apps/mqtt/mqtt.c:835:13
	ldrh.w	r0, [sp, #10]
.Ltmp544:
	.loc	3 835 13 is_stmt 0              @ rt-thread/components/net/lwip-2.0.2/src/apps/mqtt/mqtt.c:835:13
	cbz	r0, .LBB26_24
	b	.LBB26_23
.LBB26_23:
.Ltmp545:
	.loc	3 836 18 is_stmt 1              @ rt-thread/components/net/lwip-2.0.2/src/apps/mqtt/mqtt.c:836:18
	ldrh.w	r0, [sp, #10]
	.loc	3 836 11 is_stmt 0              @ rt-thread/components/net/lwip-2.0.2/src/apps/mqtt/mqtt.c:836:11
	strh.w	r0, [sp, #38]
	b	.LBB26_30
.Ltmp546:
.LBB26_24:                              @   in Loop: Header=BB26_1 Depth=1
	.loc	3 838 13 is_stmt 1              @ rt-thread/components/net/lwip-2.0.2/src/apps/mqtt/mqtt.c:838:13
	ldr	r0, [sp, #20]
.Ltmp547:
	.loc	3 838 13 is_stmt 0              @ rt-thread/components/net/lwip-2.0.2/src/apps/mqtt/mqtt.c:838:13
	cbnz	r0, .LBB26_26
	b	.LBB26_25
.LBB26_25:                              @   in Loop: Header=BB26_1 Depth=1
.Ltmp548:
	.loc	3 840 11 is_stmt 1              @ rt-thread/components/net/lwip-2.0.2/src/apps/mqtt/mqtt.c:840:11
	ldr	r1, [sp, #32]
	movs	r0, #0
	.loc	3 840 27 is_stmt 0              @ rt-thread/components/net/lwip-2.0.2/src/apps/mqtt/mqtt.c:840:27
	str	r0, [r1, #104]
	.loc	3 842 25 is_stmt 1              @ rt-thread/components/net/lwip-2.0.2/src/apps/mqtt/mqtt.c:842:25
	strb.w	r0, [sp, #19]
	.loc	3 843 9                         @ rt-thread/components/net/lwip-2.0.2/src/apps/mqtt/mqtt.c:843:9
	b	.LBB26_26
.Ltmp549:
.LBB26_26:                              @   in Loop: Header=BB26_1 Depth=1
	.loc	3 844 7                         @ rt-thread/components/net/lwip-2.0.2/src/apps/mqtt/mqtt.c:844:7
	b	.LBB26_27
.Ltmp550:
.LBB26_27:                              @   in Loop: Header=BB26_1 Depth=1
	.loc	3 0 7 is_stmt 0                 @ rt-thread/components/net/lwip-2.0.2/src/apps/mqtt/mqtt.c:0:7
	b	.LBB26_28
.LBB26_28:                              @   in Loop: Header=BB26_1 Depth=1
	.loc	3 785 3 is_stmt 1               @ rt-thread/components/net/lwip-2.0.2/src/apps/mqtt/mqtt.c:785:3
	b	.LBB26_1
.LBB26_29:
	.loc	3 0 3 is_stmt 0                 @ rt-thread/components/net/lwip-2.0.2/src/apps/mqtt/mqtt.c:0:3
	movs	r0, #0
	.loc	3 847 3 is_stmt 1               @ rt-thread/components/net/lwip-2.0.2/src/apps/mqtt/mqtt.c:847:3
	strh.w	r0, [sp, #38]
	b	.LBB26_30
.LBB26_30:
	.loc	3 848 1                         @ rt-thread/components/net/lwip-2.0.2/src/apps/mqtt/mqtt.c:848:1
	ldrh.w	r0, [sp, #38]
	add	sp, #40
	pop	{r7, pc}
.Ltmp551:
.Lfunc_end26:
	.size	mqtt_parse_incoming, .Lfunc_end26-mqtt_parse_incoming
	.cfi_endproc
	.cantunwind
	.fnend
                                        @ -- End function
	.section	.text.mqtt_message_received,"ax",%progbits
	.p2align	3                               @ -- Begin function mqtt_message_received
	.type	mqtt_message_received,%function
	.code	16                              @ @mqtt_message_received
	.thumb_func
mqtt_message_received:
.Lfunc_begin27:
	.loc	3 641 0                         @ rt-thread/components/net/lwip-2.0.2/src/apps/mqtt/mqtt.c:641:0
	.fnstart
	.cfi_startproc
@ %bb.0:
	.save	{r7, lr}
	push	{r7, lr}
	.cfi_def_cfa_offset 8
	.cfi_offset lr, -4
	.cfi_offset r7, -8
	.pad	#56
	sub	sp, #56
	.cfi_def_cfa_offset 64
                                        @ kill: def $r12 killed $r2
                                        @ kill: def $r12 killed $r1
	str	r0, [sp, #48]
	strb.w	r1, [sp, #47]
	strh.w	r2, [sp, #44]
	str	r3, [sp, #40]
	movs	r0, #0
.Ltmp552:
	.loc	3 642 28 prologue_end           @ rt-thread/components/net/lwip-2.0.2/src/apps/mqtt/mqtt.c:642:28
	strh.w	r0, [sp, #38]
	.loc	3 644 27                        @ rt-thread/components/net/lwip-2.0.2/src/apps/mqtt/mqtt.c:644:27
	ldr	r1, [sp, #48]
	.loc	3 644 47 is_stmt 0              @ rt-thread/components/net/lwip-2.0.2/src/apps/mqtt/mqtt.c:644:47
	ldrb.w	r2, [sp, #47]
	.loc	3 644 35                        @ rt-thread/components/net/lwip-2.0.2/src/apps/mqtt/mqtt.c:644:35
	add	r1, r2
	.loc	3 644 45                        @ rt-thread/components/net/lwip-2.0.2/src/apps/mqtt/mqtt.c:644:45
	adds	r1, #108
	.loc	3 644 9                         @ rt-thread/components/net/lwip-2.0.2/src/apps/mqtt/mqtt.c:644:9
	str	r1, [sp, #32]
	.loc	3 647 19 is_stmt 1              @ rt-thread/components/net/lwip-2.0.2/src/apps/mqtt/mqtt.c:647:19
	ldr	r1, [sp, #48]
	ldrb.w	r1, [r1, #108]
	lsrs	r1, r1, #4
	.loc	3 647 8 is_stmt 0               @ rt-thread/components/net/lwip-2.0.2/src/apps/mqtt/mqtt.c:647:8
	strb.w	r1, [sp, #31]
	.loc	3 648 9 is_stmt 1               @ rt-thread/components/net/lwip-2.0.2/src/apps/mqtt/mqtt.c:648:9
	strh.w	r0, [sp, #28]
.Ltmp553:
	.loc	3 650 7                         @ rt-thread/components/net/lwip-2.0.2/src/apps/mqtt/mqtt.c:650:7
	ldrb.w	r0, [sp, #31]
.Ltmp554:
	.loc	3 650 7 is_stmt 0               @ rt-thread/components/net/lwip-2.0.2/src/apps/mqtt/mqtt.c:650:7
	cmp	r0, #2
	bne	.LBB27_9
	b	.LBB27_1
.LBB27_1:
.Ltmp555:
	.loc	3 651 9 is_stmt 1               @ rt-thread/components/net/lwip-2.0.2/src/apps/mqtt/mqtt.c:651:9
	ldr	r0, [sp, #48]
	.loc	3 651 17 is_stmt 0              @ rt-thread/components/net/lwip-2.0.2/src/apps/mqtt/mqtt.c:651:17
	ldrb	r0, [r0, #10]
.Ltmp556:
	.loc	3 651 9                         @ rt-thread/components/net/lwip-2.0.2/src/apps/mqtt/mqtt.c:651:9
	cmp	r0, #2
	bne	.LBB27_7
	b	.LBB27_2
.LBB27_2:
.Ltmp557:
	.loc	3 653 39 is_stmt 1              @ rt-thread/components/net/lwip-2.0.2/src/apps/mqtt/mqtt.c:653:39
	ldr	r0, [sp, #32]
	ldrb	r0, [r0, #1]
	.loc	3 653 11 is_stmt 0              @ rt-thread/components/net/lwip-2.0.2/src/apps/mqtt/mqtt.c:653:11
	strh.w	r0, [sp, #38]
.Ltmp558:
	.loc	3 655 11 is_stmt 1              @ rt-thread/components/net/lwip-2.0.2/src/apps/mqtt/mqtt.c:655:11
	ldrh.w	r0, [sp, #38]
.Ltmp559:
	.loc	3 655 11 is_stmt 0              @ rt-thread/components/net/lwip-2.0.2/src/apps/mqtt/mqtt.c:655:11
	cbnz	r0, .LBB27_6
	b	.LBB27_3
.LBB27_3:
.Ltmp560:
	.loc	3 657 9 is_stmt 1               @ rt-thread/components/net/lwip-2.0.2/src/apps/mqtt/mqtt.c:657:9
	ldr	r1, [sp, #48]
	movs	r0, #0
	.loc	3 657 29 is_stmt 0              @ rt-thread/components/net/lwip-2.0.2/src/apps/mqtt/mqtt.c:657:29
	strh	r0, [r1]
	.loc	3 658 9 is_stmt 1               @ rt-thread/components/net/lwip-2.0.2/src/apps/mqtt/mqtt.c:658:9
	ldr	r1, [sp, #48]
	movs	r0, #3
	.loc	3 658 28 is_stmt 0              @ rt-thread/components/net/lwip-2.0.2/src/apps/mqtt/mqtt.c:658:28
	strb	r0, [r1, #10]
.Ltmp561:
	.loc	3 660 13 is_stmt 1              @ rt-thread/components/net/lwip-2.0.2/src/apps/mqtt/mqtt.c:660:13
	ldr	r0, [sp, #48]
	.loc	3 660 21 is_stmt 0              @ rt-thread/components/net/lwip-2.0.2/src/apps/mqtt/mqtt.c:660:21
	ldr	r0, [r0, #20]
.Ltmp562:
	.loc	3 660 13                        @ rt-thread/components/net/lwip-2.0.2/src/apps/mqtt/mqtt.c:660:13
	cbz	r0, .LBB27_5
	b	.LBB27_4
.LBB27_4:
.Ltmp563:
	.loc	3 661 11 is_stmt 1              @ rt-thread/components/net/lwip-2.0.2/src/apps/mqtt/mqtt.c:661:11
	ldr	r0, [sp, #48]
	.loc	3 661 46 is_stmt 0              @ rt-thread/components/net/lwip-2.0.2/src/apps/mqtt/mqtt.c:661:46
	ldr	r1, [r0, #16]
	.loc	3 661 19                        @ rt-thread/components/net/lwip-2.0.2/src/apps/mqtt/mqtt.c:661:19
	ldr	r3, [r0, #20]
	.loc	3 661 59                        @ rt-thread/components/net/lwip-2.0.2/src/apps/mqtt/mqtt.c:661:59
	ldrh.w	r2, [sp, #38]
	.loc	3 661 11                        @ rt-thread/components/net/lwip-2.0.2/src/apps/mqtt/mqtt.c:661:11
	blx	r3
	.loc	3 662 9 is_stmt 1               @ rt-thread/components/net/lwip-2.0.2/src/apps/mqtt/mqtt.c:662:9
	b	.LBB27_5
.Ltmp564:
.LBB27_5:
	.loc	3 663 7                         @ rt-thread/components/net/lwip-2.0.2/src/apps/mqtt/mqtt.c:663:7
	b	.LBB27_6
.Ltmp565:
.LBB27_6:
	.loc	3 664 5                         @ rt-thread/components/net/lwip-2.0.2/src/apps/mqtt/mqtt.c:664:5
	b	.LBB27_8
.Ltmp566:
.LBB27_7:
	.loc	3 0 5 is_stmt 0                 @ rt-thread/components/net/lwip-2.0.2/src/apps/mqtt/mqtt.c:0:5
	b	.LBB27_8
.LBB27_8:
	.loc	3 667 3 is_stmt 1               @ rt-thread/components/net/lwip-2.0.2/src/apps/mqtt/mqtt.c:667:3
	b	.LBB27_56
.Ltmp567:
.LBB27_9:
	.loc	3 667 14 is_stmt 0              @ rt-thread/components/net/lwip-2.0.2/src/apps/mqtt/mqtt.c:667:14
	ldrb.w	r0, [sp, #31]
.Ltmp568:
	.loc	3 667 14                        @ rt-thread/components/net/lwip-2.0.2/src/apps/mqtt/mqtt.c:667:14
	cmp	r0, #13
	bne	.LBB27_11
	b	.LBB27_10
.LBB27_10:
.Ltmp569:
	.loc	3 670 3 is_stmt 1               @ rt-thread/components/net/lwip-2.0.2/src/apps/mqtt/mqtt.c:670:3
	b	.LBB27_55
.Ltmp570:
.LBB27_11:
	.loc	3 670 14 is_stmt 0              @ rt-thread/components/net/lwip-2.0.2/src/apps/mqtt/mqtt.c:670:14
	ldrb.w	r0, [sp, #31]
.Ltmp571:
	.loc	3 670 14                        @ rt-thread/components/net/lwip-2.0.2/src/apps/mqtt/mqtt.c:670:14
	cmp	r0, #3
	bne.w	.LBB27_28
	b	.LBB27_12
.LBB27_12:
	.loc	3 0 14                          @ rt-thread/components/net/lwip-2.0.2/src/apps/mqtt/mqtt.c:0:14
	movs	r0, #0
.Ltmp572:
	.loc	3 671 11 is_stmt 1              @ rt-thread/components/net/lwip-2.0.2/src/apps/mqtt/mqtt.c:671:11
	strh.w	r0, [sp, #26]
	.loc	3 672 28                        @ rt-thread/components/net/lwip-2.0.2/src/apps/mqtt/mqtt.c:672:28
	ldrh.w	r0, [sp, #44]
	.loc	3 672 11 is_stmt 0              @ rt-thread/components/net/lwip-2.0.2/src/apps/mqtt/mqtt.c:672:11
	strh.w	r0, [sp, #24]
	.loc	3 673 16 is_stmt 1              @ rt-thread/components/net/lwip-2.0.2/src/apps/mqtt/mqtt.c:673:16
	ldr	r0, [sp, #48]
	ldrb.w	r0, [r0, #108]
	ubfx	r0, r0, #1, #2
	.loc	3 673 10 is_stmt 0              @ rt-thread/components/net/lwip-2.0.2/src/apps/mqtt/mqtt.c:673:10
	strb.w	r0, [sp, #23]
.Ltmp573:
	.loc	3 675 9 is_stmt 1               @ rt-thread/components/net/lwip-2.0.2/src/apps/mqtt/mqtt.c:675:9
	ldr	r0, [sp, #48]
	.loc	3 675 17 is_stmt 0              @ rt-thread/components/net/lwip-2.0.2/src/apps/mqtt/mqtt.c:675:17
	ldr	r0, [r0, #104]
.Ltmp574:
	.loc	3 675 9                         @ rt-thread/components/net/lwip-2.0.2/src/apps/mqtt/mqtt.c:675:9
	cmp	r0, #128
	bhi	.LBB27_21
	b	.LBB27_13
.LBB27_13:
.Ltmp575:
	.loc	3 680 25 is_stmt 1              @ rt-thread/components/net/lwip-2.0.2/src/apps/mqtt/mqtt.c:680:25
	ldr	r0, [sp, #32]
	ldrb	r0, [r0]
	.loc	3 680 13 is_stmt 0              @ rt-thread/components/net/lwip-2.0.2/src/apps/mqtt/mqtt.c:680:13
	strh.w	r0, [sp, #10]
	.loc	3 681 20 is_stmt 1              @ rt-thread/components/net/lwip-2.0.2/src/apps/mqtt/mqtt.c:681:20
	ldrh.w	r1, [sp, #10]
	.loc	3 681 46 is_stmt 0              @ rt-thread/components/net/lwip-2.0.2/src/apps/mqtt/mqtt.c:681:46
	ldr	r0, [sp, #32]
	ldrb	r0, [r0, #1]
	.loc	3 681 36                        @ rt-thread/components/net/lwip-2.0.2/src/apps/mqtt/mqtt.c:681:36
	orr.w	r0, r0, r1, lsl #8
	.loc	3 681 17                        @ rt-thread/components/net/lwip-2.0.2/src/apps/mqtt/mqtt.c:681:17
	strh.w	r0, [sp, #10]
	.loc	3 683 15 is_stmt 1              @ rt-thread/components/net/lwip-2.0.2/src/apps/mqtt/mqtt.c:683:15
	ldr	r0, [sp, #32]
	.loc	3 683 31 is_stmt 0              @ rt-thread/components/net/lwip-2.0.2/src/apps/mqtt/mqtt.c:683:31
	adds	r0, #2
	.loc	3 683 13                        @ rt-thread/components/net/lwip-2.0.2/src/apps/mqtt/mqtt.c:683:13
	str	r0, [sp, #16]
	.loc	3 684 25 is_stmt 1              @ rt-thread/components/net/lwip-2.0.2/src/apps/mqtt/mqtt.c:684:25
	ldrh.w	r0, [sp, #10]
	.loc	3 684 23 is_stmt 0              @ rt-thread/components/net/lwip-2.0.2/src/apps/mqtt/mqtt.c:684:23
	adds	r0, #2
	.loc	3 684 19                        @ rt-thread/components/net/lwip-2.0.2/src/apps/mqtt/mqtt.c:684:19
	strh.w	r0, [sp, #14]
.Ltmp576:
	.loc	3 686 12 is_stmt 1              @ rt-thread/components/net/lwip-2.0.2/src/apps/mqtt/mqtt.c:686:12
	ldrh.w	r0, [sp, #14]
	.loc	3 686 27 is_stmt 0              @ rt-thread/components/net/lwip-2.0.2/src/apps/mqtt/mqtt.c:686:27
	ldrb.w	r2, [sp, #23]
	movs	r1, #1
	cmp	r2, #0
	it	ne
	movne	r1, #2
	.loc	3 686 24                        @ rt-thread/components/net/lwip-2.0.2/src/apps/mqtt/mqtt.c:686:24
	add	r0, r1
	.loc	3 686 42                        @ rt-thread/components/net/lwip-2.0.2/src/apps/mqtt/mqtt.c:686:42
	ldrh.w	r1, [sp, #44]
.Ltmp577:
	.loc	3 686 11                        @ rt-thread/components/net/lwip-2.0.2/src/apps/mqtt/mqtt.c:686:11
	cmp	r0, r1
	ble	.LBB27_15
	b	.LBB27_14
.LBB27_14:
.Ltmp578:
	.loc	3 688 9 is_stmt 1               @ rt-thread/components/net/lwip-2.0.2/src/apps/mqtt/mqtt.c:688:9
	b	.LBB27_57
.Ltmp579:
.LBB27_15:
	.loc	3 692 11                        @ rt-thread/components/net/lwip-2.0.2/src/apps/mqtt/mqtt.c:692:11
	ldrb.w	r0, [sp, #23]
.Ltmp580:
	.loc	3 692 11 is_stmt 0              @ rt-thread/components/net/lwip-2.0.2/src/apps/mqtt/mqtt.c:692:11
	cmp	r0, #1
	blt	.LBB27_17
	b	.LBB27_16
.LBB27_16:
.Ltmp581:
	.loc	3 693 40 is_stmt 1              @ rt-thread/components/net/lwip-2.0.2/src/apps/mqtt/mqtt.c:693:40
	ldr	r1, [sp, #32]
	.loc	3 693 56 is_stmt 0              @ rt-thread/components/net/lwip-2.0.2/src/apps/mqtt/mqtt.c:693:56
	ldrh.w	r2, [sp, #14]
	.loc	3 693 40                        @ rt-thread/components/net/lwip-2.0.2/src/apps/mqtt/mqtt.c:693:40
	adds	r0, r1, r2
	.loc	3 693 33                        @ rt-thread/components/net/lwip-2.0.2/src/apps/mqtt/mqtt.c:693:33
	ldrb	r1, [r1, r2]
	.loc	3 693 84                        @ rt-thread/components/net/lwip-2.0.2/src/apps/mqtt/mqtt.c:693:84
	ldrb	r0, [r0, #1]
	.loc	3 693 75                        @ rt-thread/components/net/lwip-2.0.2/src/apps/mqtt/mqtt.c:693:75
	orr.w	r0, r0, r1, lsl #8
	.loc	3 693 9                         @ rt-thread/components/net/lwip-2.0.2/src/apps/mqtt/mqtt.c:693:9
	ldr	r1, [sp, #48]
	.loc	3 693 30                        @ rt-thread/components/net/lwip-2.0.2/src/apps/mqtt/mqtt.c:693:30
	strh	r0, [r1, #8]
	.loc	3 694 21 is_stmt 1              @ rt-thread/components/net/lwip-2.0.2/src/apps/mqtt/mqtt.c:694:21
	ldrh.w	r0, [sp, #14]
	adds	r0, #2
	strh.w	r0, [sp, #14]
	.loc	3 695 7                         @ rt-thread/components/net/lwip-2.0.2/src/apps/mqtt/mqtt.c:695:7
	b	.LBB27_18
.Ltmp582:
.LBB27_17:
	.loc	3 696 9                         @ rt-thread/components/net/lwip-2.0.2/src/apps/mqtt/mqtt.c:696:9
	ldr	r1, [sp, #48]
	movs	r0, #0
	.loc	3 696 30 is_stmt 0              @ rt-thread/components/net/lwip-2.0.2/src/apps/mqtt/mqtt.c:696:30
	strh	r0, [r1, #8]
	b	.LBB27_18
.Ltmp583:
.LBB27_18:
	.loc	3 699 13 is_stmt 1              @ rt-thread/components/net/lwip-2.0.2/src/apps/mqtt/mqtt.c:699:13
	ldr	r0, [sp, #16]
	.loc	3 699 19 is_stmt 0              @ rt-thread/components/net/lwip-2.0.2/src/apps/mqtt/mqtt.c:699:19
	ldrh.w	r1, [sp, #10]
	.loc	3 699 13                        @ rt-thread/components/net/lwip-2.0.2/src/apps/mqtt/mqtt.c:699:13
	ldrb	r0, [r0, r1]
	.loc	3 699 11                        @ rt-thread/components/net/lwip-2.0.2/src/apps/mqtt/mqtt.c:699:11
	strb.w	r0, [sp, #13]
	.loc	3 701 7 is_stmt 1               @ rt-thread/components/net/lwip-2.0.2/src/apps/mqtt/mqtt.c:701:7
	ldr	r1, [sp, #16]
	.loc	3 701 13 is_stmt 0              @ rt-thread/components/net/lwip-2.0.2/src/apps/mqtt/mqtt.c:701:13
	ldrh.w	r2, [sp, #10]
	movs	r0, #0
	.loc	3 701 24                        @ rt-thread/components/net/lwip-2.0.2/src/apps/mqtt/mqtt.c:701:24
	strb	r0, [r1, r2]
	.loc	3 703 24 is_stmt 1              @ rt-thread/components/net/lwip-2.0.2/src/apps/mqtt/mqtt.c:703:24
	ldrh.w	r0, [sp, #44]
	.loc	3 703 33 is_stmt 0              @ rt-thread/components/net/lwip-2.0.2/src/apps/mqtt/mqtt.c:703:33
	ldrh.w	r1, [sp, #14]
	.loc	3 703 31                        @ rt-thread/components/net/lwip-2.0.2/src/apps/mqtt/mqtt.c:703:31
	subs	r0, r0, r1
	.loc	3 703 22                        @ rt-thread/components/net/lwip-2.0.2/src/apps/mqtt/mqtt.c:703:22
	strh.w	r0, [sp, #24]
	.loc	3 704 24 is_stmt 1              @ rt-thread/components/net/lwip-2.0.2/src/apps/mqtt/mqtt.c:704:24
	ldrh.w	r0, [sp, #14]
	.loc	3 704 22 is_stmt 0              @ rt-thread/components/net/lwip-2.0.2/src/apps/mqtt/mqtt.c:704:22
	strh.w	r0, [sp, #26]
.Ltmp584:
	.loc	3 708 11 is_stmt 1              @ rt-thread/components/net/lwip-2.0.2/src/apps/mqtt/mqtt.c:708:11
	ldr	r0, [sp, #48]
	.loc	3 708 19 is_stmt 0              @ rt-thread/components/net/lwip-2.0.2/src/apps/mqtt/mqtt.c:708:19
	ldr	r0, [r0, #100]
.Ltmp585:
	.loc	3 708 11                        @ rt-thread/components/net/lwip-2.0.2/src/apps/mqtt/mqtt.c:708:11
	cbz	r0, .LBB27_20
	b	.LBB27_19
.LBB27_19:
.Ltmp586:
	.loc	3 709 9 is_stmt 1               @ rt-thread/components/net/lwip-2.0.2/src/apps/mqtt/mqtt.c:709:9
	ldr	r1, [sp, #48]
	.loc	3 709 32 is_stmt 0              @ rt-thread/components/net/lwip-2.0.2/src/apps/mqtt/mqtt.c:709:32
	ldr	r0, [r1, #92]
	.loc	3 709 17                        @ rt-thread/components/net/lwip-2.0.2/src/apps/mqtt/mqtt.c:709:17
	ldr	r3, [r1, #100]
	.loc	3 709 57                        @ rt-thread/components/net/lwip-2.0.2/src/apps/mqtt/mqtt.c:709:57
	ldr	r1, [sp, #16]
	.loc	3 709 64                        @ rt-thread/components/net/lwip-2.0.2/src/apps/mqtt/mqtt.c:709:64
	ldr	r2, [sp, #40]
	.loc	3 709 83                        @ rt-thread/components/net/lwip-2.0.2/src/apps/mqtt/mqtt.c:709:83
	ldrh.w	r12, [sp, #24]
	.loc	3 709 81                        @ rt-thread/components/net/lwip-2.0.2/src/apps/mqtt/mqtt.c:709:81
	add	r2, r12
	.loc	3 709 9                         @ rt-thread/components/net/lwip-2.0.2/src/apps/mqtt/mqtt.c:709:9
	blx	r3
	.loc	3 710 7 is_stmt 1               @ rt-thread/components/net/lwip-2.0.2/src/apps/mqtt/mqtt.c:710:7
	b	.LBB27_20
.Ltmp587:
.LBB27_20:
	.loc	3 712 26                        @ rt-thread/components/net/lwip-2.0.2/src/apps/mqtt/mqtt.c:712:26
	ldrb.w	r0, [sp, #13]
	.loc	3 712 7 is_stmt 0               @ rt-thread/components/net/lwip-2.0.2/src/apps/mqtt/mqtt.c:712:7
	ldr	r1, [sp, #16]
	.loc	3 712 13                        @ rt-thread/components/net/lwip-2.0.2/src/apps/mqtt/mqtt.c:712:13
	ldrh.w	r2, [sp, #10]
	.loc	3 712 24                        @ rt-thread/components/net/lwip-2.0.2/src/apps/mqtt/mqtt.c:712:24
	strb	r0, [r1, r2]
	.loc	3 713 5 is_stmt 1               @ rt-thread/components/net/lwip-2.0.2/src/apps/mqtt/mqtt.c:713:5
	b	.LBB27_21
.Ltmp588:
.LBB27_21:
	.loc	3 714 9                         @ rt-thread/components/net/lwip-2.0.2/src/apps/mqtt/mqtt.c:714:9
	ldrh.w	r0, [sp, #24]
	.loc	3 714 28 is_stmt 0              @ rt-thread/components/net/lwip-2.0.2/src/apps/mqtt/mqtt.c:714:28
	cmp	r0, #0
	bgt	.LBB27_23
	b	.LBB27_22
.LBB27_22:
	.loc	3 714 31                        @ rt-thread/components/net/lwip-2.0.2/src/apps/mqtt/mqtt.c:714:31
	ldr	r0, [sp, #40]
.Ltmp589:
	.loc	3 714 9                         @ rt-thread/components/net/lwip-2.0.2/src/apps/mqtt/mqtt.c:714:9
	cbnz	r0, .LBB27_27
	b	.LBB27_23
.LBB27_23:
.Ltmp590:
	.loc	3 715 7 is_stmt 1               @ rt-thread/components/net/lwip-2.0.2/src/apps/mqtt/mqtt.c:715:7
	ldr	r1, [sp, #48]
	.loc	3 715 31 is_stmt 0              @ rt-thread/components/net/lwip-2.0.2/src/apps/mqtt/mqtt.c:715:31
	ldr	r0, [r1, #92]
	.loc	3 715 15                        @ rt-thread/components/net/lwip-2.0.2/src/apps/mqtt/mqtt.c:715:15
	ldr.w	r12, [r1, #96]
	.loc	3 715 42                        @ rt-thread/components/net/lwip-2.0.2/src/apps/mqtt/mqtt.c:715:42
	ldr	r1, [sp, #32]
	.loc	3 715 60                        @ rt-thread/components/net/lwip-2.0.2/src/apps/mqtt/mqtt.c:715:60
	ldrh.w	r2, [sp, #26]
	.loc	3 715 58                        @ rt-thread/components/net/lwip-2.0.2/src/apps/mqtt/mqtt.c:715:58
	add	r1, r2
	.loc	3 715 76                        @ rt-thread/components/net/lwip-2.0.2/src/apps/mqtt/mqtt.c:715:76
	ldrh.w	r2, [sp, #24]
	.loc	3 715 92                        @ rt-thread/components/net/lwip-2.0.2/src/apps/mqtt/mqtt.c:715:92
	ldr	r3, [sp, #40]
	.loc	3 715 109                       @ rt-thread/components/net/lwip-2.0.2/src/apps/mqtt/mqtt.c:715:109
	clz	r3, r3
	lsrs	r3, r3, #5
	.loc	3 715 7                         @ rt-thread/components/net/lwip-2.0.2/src/apps/mqtt/mqtt.c:715:7
	blx	r12
.Ltmp591:
	.loc	3 717 11 is_stmt 1              @ rt-thread/components/net/lwip-2.0.2/src/apps/mqtt/mqtt.c:717:11
	ldr	r0, [sp, #40]
	.loc	3 717 33 is_stmt 0              @ rt-thread/components/net/lwip-2.0.2/src/apps/mqtt/mqtt.c:717:33
	cbnz	r0, .LBB27_26
	b	.LBB27_24
.LBB27_24:
	.loc	3 717 36                        @ rt-thread/components/net/lwip-2.0.2/src/apps/mqtt/mqtt.c:717:36
	ldrb.w	r0, [sp, #23]
.Ltmp592:
	.loc	3 717 11                        @ rt-thread/components/net/lwip-2.0.2/src/apps/mqtt/mqtt.c:717:11
	cmp	r0, #1
	blt	.LBB27_26
	b	.LBB27_25
.LBB27_25:
.Ltmp593:
	.loc	3 719 26 is_stmt 1              @ rt-thread/components/net/lwip-2.0.2/src/apps/mqtt/mqtt.c:719:26
	ldrb.w	r1, [sp, #23]
	movs	r0, #5
	.loc	3 719 25 is_stmt 0              @ rt-thread/components/net/lwip-2.0.2/src/apps/mqtt/mqtt.c:719:25
	cmp	r1, #1
	it	eq
	moveq	r0, #4
	.loc	3 719 14                        @ rt-thread/components/net/lwip-2.0.2/src/apps/mqtt/mqtt.c:719:14
	strb.w	r0, [sp, #9]
	.loc	3 722 34 is_stmt 1              @ rt-thread/components/net/lwip-2.0.2/src/apps/mqtt/mqtt.c:722:34
	ldr	r0, [sp, #48]
	.loc	3 722 42 is_stmt 0              @ rt-thread/components/net/lwip-2.0.2/src/apps/mqtt/mqtt.c:722:42
	ldrb.w	r1, [sp, #9]
	.loc	3 722 60                        @ rt-thread/components/net/lwip-2.0.2/src/apps/mqtt/mqtt.c:722:60
	ldrh	r2, [r0, #8]
	movs	r3, #0
	.loc	3 722 9                         @ rt-thread/components/net/lwip-2.0.2/src/apps/mqtt/mqtt.c:722:9
	bl	pub_ack_rec_rel_response
	.loc	3 723 7 is_stmt 1               @ rt-thread/components/net/lwip-2.0.2/src/apps/mqtt/mqtt.c:723:7
	b	.LBB27_26
.Ltmp594:
.LBB27_26:
	.loc	3 724 5                         @ rt-thread/components/net/lwip-2.0.2/src/apps/mqtt/mqtt.c:724:5
	b	.LBB27_27
.Ltmp595:
.LBB27_27:
	.loc	3 725 3                         @ rt-thread/components/net/lwip-2.0.2/src/apps/mqtt/mqtt.c:725:3
	b	.LBB27_54
.Ltmp596:
.LBB27_28:
	.loc	3 727 21                        @ rt-thread/components/net/lwip-2.0.2/src/apps/mqtt/mqtt.c:727:21
	ldr	r0, [sp, #32]
	.loc	3 727 14 is_stmt 0              @ rt-thread/components/net/lwip-2.0.2/src/apps/mqtt/mqtt.c:727:14
	ldrb	r0, [r0]
	.loc	3 727 40                        @ rt-thread/components/net/lwip-2.0.2/src/apps/mqtt/mqtt.c:727:40
	lsls	r0, r0, #8
	.loc	3 727 12                        @ rt-thread/components/net/lwip-2.0.2/src/apps/mqtt/mqtt.c:727:12
	strh.w	r0, [sp, #28]
	.loc	3 728 22 is_stmt 1              @ rt-thread/components/net/lwip-2.0.2/src/apps/mqtt/mqtt.c:728:22
	ldr	r0, [sp, #32]
	ldrb	r1, [r0, #1]
	.loc	3 728 12 is_stmt 0              @ rt-thread/components/net/lwip-2.0.2/src/apps/mqtt/mqtt.c:728:12
	ldrh.w	r0, [sp, #28]
	orrs	r0, r1
	strh.w	r0, [sp, #28]
.Ltmp597:
	.loc	3 729 9 is_stmt 1               @ rt-thread/components/net/lwip-2.0.2/src/apps/mqtt/mqtt.c:729:9
	ldrh.w	r0, [sp, #28]
.Ltmp598:
	.loc	3 729 9 is_stmt 0               @ rt-thread/components/net/lwip-2.0.2/src/apps/mqtt/mqtt.c:729:9
	cbnz	r0, .LBB27_30
	b	.LBB27_29
.LBB27_29:
.Ltmp599:
	.loc	3 731 7 is_stmt 1               @ rt-thread/components/net/lwip-2.0.2/src/apps/mqtt/mqtt.c:731:7
	b	.LBB27_57
.Ltmp600:
.LBB27_30:
	.loc	3 733 9                         @ rt-thread/components/net/lwip-2.0.2/src/apps/mqtt/mqtt.c:733:9
	ldrb.w	r0, [sp, #31]
.Ltmp601:
	.loc	3 733 9 is_stmt 0               @ rt-thread/components/net/lwip-2.0.2/src/apps/mqtt/mqtt.c:733:9
	cmp	r0, #5
	bne	.LBB27_32
	b	.LBB27_31
.LBB27_31:
.Ltmp602:
	.loc	3 735 32 is_stmt 1              @ rt-thread/components/net/lwip-2.0.2/src/apps/mqtt/mqtt.c:735:32
	ldr	r0, [sp, #48]
	.loc	3 735 62 is_stmt 0              @ rt-thread/components/net/lwip-2.0.2/src/apps/mqtt/mqtt.c:735:62
	ldrh.w	r2, [sp, #28]
	movs	r1, #6
	movs	r3, #1
	.loc	3 735 7                         @ rt-thread/components/net/lwip-2.0.2/src/apps/mqtt/mqtt.c:735:7
	bl	pub_ack_rec_rel_response
	.loc	3 737 5 is_stmt 1               @ rt-thread/components/net/lwip-2.0.2/src/apps/mqtt/mqtt.c:737:5
	b	.LBB27_53
.Ltmp603:
.LBB27_32:
	.loc	3 737 16 is_stmt 0              @ rt-thread/components/net/lwip-2.0.2/src/apps/mqtt/mqtt.c:737:16
	ldrb.w	r0, [sp, #31]
.Ltmp604:
	.loc	3 737 16                        @ rt-thread/components/net/lwip-2.0.2/src/apps/mqtt/mqtt.c:737:16
	cmp	r0, #6
	bne	.LBB27_34
	b	.LBB27_33
.LBB27_33:
.Ltmp605:
	.loc	3 739 32 is_stmt 1              @ rt-thread/components/net/lwip-2.0.2/src/apps/mqtt/mqtt.c:739:32
	ldr	r0, [sp, #48]
	.loc	3 739 63 is_stmt 0              @ rt-thread/components/net/lwip-2.0.2/src/apps/mqtt/mqtt.c:739:63
	ldrh.w	r2, [sp, #28]
	movs	r1, #7
	movs	r3, #0
	.loc	3 739 7                         @ rt-thread/components/net/lwip-2.0.2/src/apps/mqtt/mqtt.c:739:7
	bl	pub_ack_rec_rel_response
	.loc	3 741 5 is_stmt 1               @ rt-thread/components/net/lwip-2.0.2/src/apps/mqtt/mqtt.c:741:5
	b	.LBB27_52
.Ltmp606:
.LBB27_34:
	.loc	3 741 16 is_stmt 0              @ rt-thread/components/net/lwip-2.0.2/src/apps/mqtt/mqtt.c:741:16
	ldrb.w	r0, [sp, #31]
	.loc	3 741 49                        @ rt-thread/components/net/lwip-2.0.2/src/apps/mqtt/mqtt.c:741:49
	cmp	r0, #9
	beq	.LBB27_38
	b	.LBB27_35
.LBB27_35:
	.loc	3 741 52                        @ rt-thread/components/net/lwip-2.0.2/src/apps/mqtt/mqtt.c:741:52
	ldrb.w	r0, [sp, #31]
	.loc	3 741 87                        @ rt-thread/components/net/lwip-2.0.2/src/apps/mqtt/mqtt.c:741:87
	cmp	r0, #11
	beq	.LBB27_38
	b	.LBB27_36
.LBB27_36:
	.loc	3 742 15 is_stmt 1              @ rt-thread/components/net/lwip-2.0.2/src/apps/mqtt/mqtt.c:742:15
	ldrb.w	r0, [sp, #31]
	.loc	3 742 49 is_stmt 0              @ rt-thread/components/net/lwip-2.0.2/src/apps/mqtt/mqtt.c:742:49
	cmp	r0, #7
	beq	.LBB27_38
	b	.LBB27_37
.LBB27_37:
	.loc	3 742 52                        @ rt-thread/components/net/lwip-2.0.2/src/apps/mqtt/mqtt.c:742:52
	ldrb.w	r0, [sp, #31]
.Ltmp607:
	.loc	3 741 16 is_stmt 1              @ rt-thread/components/net/lwip-2.0.2/src/apps/mqtt/mqtt.c:741:16
	cmp	r0, #4
	bne	.LBB27_50
	b	.LBB27_38
.LBB27_38:
.Ltmp608:
	.loc	3 743 53                        @ rt-thread/components/net/lwip-2.0.2/src/apps/mqtt/mqtt.c:743:53
	ldr	r0, [sp, #48]
	.loc	3 743 61 is_stmt 0              @ rt-thread/components/net/lwip-2.0.2/src/apps/mqtt/mqtt.c:743:61
	adds	r0, #24
	.loc	3 743 77                        @ rt-thread/components/net/lwip-2.0.2/src/apps/mqtt/mqtt.c:743:77
	ldrh.w	r1, [sp, #28]
	.loc	3 743 34                        @ rt-thread/components/net/lwip-2.0.2/src/apps/mqtt/mqtt.c:743:34
	bl	mqtt_take_request
	.loc	3 743 30                        @ rt-thread/components/net/lwip-2.0.2/src/apps/mqtt/mqtt.c:743:30
	str	r0, [sp, #4]
.Ltmp609:
	.loc	3 744 11 is_stmt 1              @ rt-thread/components/net/lwip-2.0.2/src/apps/mqtt/mqtt.c:744:11
	ldr	r0, [sp, #4]
.Ltmp610:
	.loc	3 744 11 is_stmt 0              @ rt-thread/components/net/lwip-2.0.2/src/apps/mqtt/mqtt.c:744:11
	cbz	r0, .LBB27_48
	b	.LBB27_39
.LBB27_39:
.Ltmp611:
	.loc	3 746 13 is_stmt 1              @ rt-thread/components/net/lwip-2.0.2/src/apps/mqtt/mqtt.c:746:13
	ldrb.w	r0, [sp, #31]
.Ltmp612:
	.loc	3 746 13 is_stmt 0              @ rt-thread/components/net/lwip-2.0.2/src/apps/mqtt/mqtt.c:746:13
	cmp	r0, #9
	bne	.LBB27_44
	b	.LBB27_40
.LBB27_40:
.Ltmp613:
	.loc	3 747 15 is_stmt 1              @ rt-thread/components/net/lwip-2.0.2/src/apps/mqtt/mqtt.c:747:15
	ldrh.w	r0, [sp, #44]
.Ltmp614:
	.loc	3 747 15 is_stmt 0              @ rt-thread/components/net/lwip-2.0.2/src/apps/mqtt/mqtt.c:747:15
	cmp	r0, #2
	bgt	.LBB27_42
	b	.LBB27_41
.LBB27_41:
.Ltmp615:
	.loc	3 749 13 is_stmt 1              @ rt-thread/components/net/lwip-2.0.2/src/apps/mqtt/mqtt.c:749:13
	b	.LBB27_57
.Ltmp616:
.LBB27_42:
	.loc	3 751 35                        @ rt-thread/components/net/lwip-2.0.2/src/apps/mqtt/mqtt.c:751:35
	ldr	r0, [sp, #4]
	.loc	3 751 38 is_stmt 0              @ rt-thread/components/net/lwip-2.0.2/src/apps/mqtt/mqtt.c:751:38
	ldr	r1, [sp, #32]
	ldrb	r1, [r1, #2]
	.loc	3 751 13                        @ rt-thread/components/net/lwip-2.0.2/src/apps/mqtt/mqtt.c:751:13
	bl	mqtt_incomming_suback
	b	.LBB27_43
.Ltmp617:
.LBB27_43:
	.loc	3 753 9 is_stmt 1               @ rt-thread/components/net/lwip-2.0.2/src/apps/mqtt/mqtt.c:753:9
	b	.LBB27_47
.Ltmp618:
.LBB27_44:
	.loc	3 753 20 is_stmt 0              @ rt-thread/components/net/lwip-2.0.2/src/apps/mqtt/mqtt.c:753:20
	ldr	r0, [sp, #4]
	.loc	3 753 23                        @ rt-thread/components/net/lwip-2.0.2/src/apps/mqtt/mqtt.c:753:23
	ldr	r0, [r0, #4]
.Ltmp619:
	.loc	3 753 20                        @ rt-thread/components/net/lwip-2.0.2/src/apps/mqtt/mqtt.c:753:20
	cbz	r0, .LBB27_46
	b	.LBB27_45
.LBB27_45:
.Ltmp620:
	.loc	3 754 11 is_stmt 1              @ rt-thread/components/net/lwip-2.0.2/src/apps/mqtt/mqtt.c:754:11
	ldr	r0, [sp, #4]
	.loc	3 754 14 is_stmt 0              @ rt-thread/components/net/lwip-2.0.2/src/apps/mqtt/mqtt.c:754:14
	ldr	r2, [r0, #4]
	.loc	3 754 20                        @ rt-thread/components/net/lwip-2.0.2/src/apps/mqtt/mqtt.c:754:20
	ldr	r0, [r0, #8]
	movs	r1, #0
	.loc	3 754 11                        @ rt-thread/components/net/lwip-2.0.2/src/apps/mqtt/mqtt.c:754:11
	blx	r2
	.loc	3 755 9 is_stmt 1               @ rt-thread/components/net/lwip-2.0.2/src/apps/mqtt/mqtt.c:755:9
	b	.LBB27_46
.Ltmp621:
.LBB27_46:
	.loc	3 0 9 is_stmt 0                 @ rt-thread/components/net/lwip-2.0.2/src/apps/mqtt/mqtt.c:0:9
	b	.LBB27_47
.LBB27_47:
	.loc	3 756 29 is_stmt 1              @ rt-thread/components/net/lwip-2.0.2/src/apps/mqtt/mqtt.c:756:29
	ldr	r0, [sp, #4]
	.loc	3 756 9 is_stmt 0               @ rt-thread/components/net/lwip-2.0.2/src/apps/mqtt/mqtt.c:756:9
	bl	mqtt_delete_request
	.loc	3 757 7 is_stmt 1               @ rt-thread/components/net/lwip-2.0.2/src/apps/mqtt/mqtt.c:757:7
	b	.LBB27_49
.Ltmp622:
.LBB27_48:
	.loc	3 0 7 is_stmt 0                 @ rt-thread/components/net/lwip-2.0.2/src/apps/mqtt/mqtt.c:0:7
	b	.LBB27_49
.LBB27_49:
	.loc	3 760 5 is_stmt 1               @ rt-thread/components/net/lwip-2.0.2/src/apps/mqtt/mqtt.c:760:5
	b	.LBB27_51
.Ltmp623:
.LBB27_50:
	.loc	3 762 7                         @ rt-thread/components/net/lwip-2.0.2/src/apps/mqtt/mqtt.c:762:7
	b	.LBB27_57
.Ltmp624:
.LBB27_51:
	.loc	3 0 7 is_stmt 0                 @ rt-thread/components/net/lwip-2.0.2/src/apps/mqtt/mqtt.c:0:7
	b	.LBB27_52
.LBB27_52:
	b	.LBB27_53
.LBB27_53:
	b	.LBB27_54
.LBB27_54:
	b	.LBB27_55
.LBB27_55:
	b	.LBB27_56
.LBB27_56:
	.loc	3 765 10 is_stmt 1              @ rt-thread/components/net/lwip-2.0.2/src/apps/mqtt/mqtt.c:765:10
	ldrh.w	r0, [sp, #38]
	.loc	3 765 3 is_stmt 0               @ rt-thread/components/net/lwip-2.0.2/src/apps/mqtt/mqtt.c:765:3
	strh.w	r0, [sp, #54]
	b	.LBB27_58
.LBB27_57:
.Ltmp625:
	@DEBUG_LABEL: mqtt_message_received:out_disconnect
	.loc	3 0 3                           @ rt-thread/components/net/lwip-2.0.2/src/apps/mqtt/mqtt.c:0:3
	mov.w	r0, #256
	.loc	3 767 3 is_stmt 1               @ rt-thread/components/net/lwip-2.0.2/src/apps/mqtt/mqtt.c:767:3
	strh.w	r0, [sp, #54]
	b	.LBB27_58
.LBB27_58:
	.loc	3 768 1                         @ rt-thread/components/net/lwip-2.0.2/src/apps/mqtt/mqtt.c:768:1
	ldrh.w	r0, [sp, #54]
	add	sp, #56
	pop	{r7, pc}
.Ltmp626:
.Lfunc_end27:
	.size	mqtt_message_received, .Lfunc_end27-mqtt_message_received
	.cfi_endproc
	.cantunwind
	.fnend
                                        @ -- End function
	.section	.text.pub_ack_rec_rel_response,"ax",%progbits
	.p2align	3                               @ -- Begin function pub_ack_rec_rel_response
	.type	pub_ack_rec_rel_response,%function
	.code	16                              @ @pub_ack_rec_rel_response
	.thumb_func
pub_ack_rec_rel_response:
.Lfunc_begin28:
	.loc	3 604 0                         @ rt-thread/components/net/lwip-2.0.2/src/apps/mqtt/mqtt.c:604:0
	.fnstart
	.cfi_startproc
@ %bb.0:
	.save	{r7, lr}
	push	{r7, lr}
	.cfi_def_cfa_offset 8
	.cfi_offset lr, -4
	.cfi_offset r7, -8
	.pad	#24
	sub	sp, #24
	.cfi_def_cfa_offset 32
                                        @ kill: def $r12 killed $r3
                                        @ kill: def $r12 killed $r2
                                        @ kill: def $r12 killed $r1
	str	r0, [sp, #20]
	strb.w	r1, [sp, #19]
	strh.w	r2, [sp, #16]
	strb.w	r3, [sp, #15]
	movs	r0, #0
.Ltmp627:
	.loc	3 605 9 prologue_end            @ rt-thread/components/net/lwip-2.0.2/src/apps/mqtt/mqtt.c:605:9
	strb.w	r0, [sp, #14]
.Ltmp628:
	.loc	3 606 32                        @ rt-thread/components/net/lwip-2.0.2/src/apps/mqtt/mqtt.c:606:32
	ldr	r0, [sp, #20]
	.loc	3 606 40 is_stmt 0              @ rt-thread/components/net/lwip-2.0.2/src/apps/mqtt/mqtt.c:606:40
	adds	r0, #236
	movs	r1, #2
	.loc	3 606 7                         @ rt-thread/components/net/lwip-2.0.2/src/apps/mqtt/mqtt.c:606:7
	bl	mqtt_output_check_space
.Ltmp629:
	.loc	3 606 7                         @ rt-thread/components/net/lwip-2.0.2/src/apps/mqtt/mqtt.c:606:7
	cbz	r0, .LBB28_2
	b	.LBB28_1
.LBB28_1:
.Ltmp630:
	.loc	3 607 38 is_stmt 1              @ rt-thread/components/net/lwip-2.0.2/src/apps/mqtt/mqtt.c:607:38
	ldr	r0, [sp, #20]
	.loc	3 607 46 is_stmt 0              @ rt-thread/components/net/lwip-2.0.2/src/apps/mqtt/mqtt.c:607:46
	adds	r0, #236
	.loc	3 607 54                        @ rt-thread/components/net/lwip-2.0.2/src/apps/mqtt/mqtt.c:607:54
	ldrb.w	r1, [sp, #19]
	.loc	3 607 62                        @ rt-thread/components/net/lwip-2.0.2/src/apps/mqtt/mqtt.c:607:62
	ldrb.w	r3, [sp, #15]
	.loc	3 607 5                         @ rt-thread/components/net/lwip-2.0.2/src/apps/mqtt/mqtt.c:607:5
	mov	r12, sp
	movs	r2, #2
	str.w	r2, [r12, #4]
	movs	r2, #0
	str.w	r2, [r12]
	bl	mqtt_output_append_fixed_header
	.loc	3 608 29 is_stmt 1              @ rt-thread/components/net/lwip-2.0.2/src/apps/mqtt/mqtt.c:608:29
	ldr	r0, [sp, #20]
	.loc	3 608 37 is_stmt 0              @ rt-thread/components/net/lwip-2.0.2/src/apps/mqtt/mqtt.c:608:37
	adds	r0, #236
	.loc	3 608 45                        @ rt-thread/components/net/lwip-2.0.2/src/apps/mqtt/mqtt.c:608:45
	ldrh.w	r1, [sp, #16]
	.loc	3 608 5                         @ rt-thread/components/net/lwip-2.0.2/src/apps/mqtt/mqtt.c:608:5
	bl	mqtt_output_append_u16
	.loc	3 609 23 is_stmt 1              @ rt-thread/components/net/lwip-2.0.2/src/apps/mqtt/mqtt.c:609:23
	ldr	r1, [sp, #20]
	.loc	3 609 31 is_stmt 0              @ rt-thread/components/net/lwip-2.0.2/src/apps/mqtt/mqtt.c:609:31
	add.w	r0, r1, #236
	.loc	3 609 47                        @ rt-thread/components/net/lwip-2.0.2/src/apps/mqtt/mqtt.c:609:47
	ldr	r1, [r1, #12]
	.loc	3 609 5                         @ rt-thread/components/net/lwip-2.0.2/src/apps/mqtt/mqtt.c:609:5
	bl	mqtt_output_send
	.loc	3 610 3 is_stmt 1               @ rt-thread/components/net/lwip-2.0.2/src/apps/mqtt/mqtt.c:610:3
	b	.LBB28_3
.Ltmp631:
.LBB28_2:
	.loc	3 0 3 is_stmt 0                 @ rt-thread/components/net/lwip-2.0.2/src/apps/mqtt/mqtt.c:0:3
	movs	r0, #255
.Ltmp632:
	.loc	3 613 9 is_stmt 1               @ rt-thread/components/net/lwip-2.0.2/src/apps/mqtt/mqtt.c:613:9
	strb.w	r0, [sp, #14]
	b	.LBB28_3
.Ltmp633:
.LBB28_3:
	.loc	3 615 10                        @ rt-thread/components/net/lwip-2.0.2/src/apps/mqtt/mqtt.c:615:10
	ldrsb.w	r0, [sp, #14]
	.loc	3 615 3 is_stmt 0               @ rt-thread/components/net/lwip-2.0.2/src/apps/mqtt/mqtt.c:615:3
	add	sp, #24
	pop	{r7, pc}
.Ltmp634:
.Lfunc_end28:
	.size	pub_ack_rec_rel_response, .Lfunc_end28-pub_ack_rec_rel_response
	.cfi_endproc
	.cantunwind
	.fnend
                                        @ -- End function
	.section	.text.mqtt_take_request,"ax",%progbits
	.p2align	3                               @ -- Begin function mqtt_take_request
	.type	mqtt_take_request,%function
	.code	16                              @ @mqtt_take_request
	.thumb_func
mqtt_take_request:
.Lfunc_begin29:
	.loc	3 327 0 is_stmt 1               @ rt-thread/components/net/lwip-2.0.2/src/apps/mqtt/mqtt.c:327:0
	.fnstart
	.cfi_startproc
@ %bb.0:
	.save	{r7, lr}
	push	{r7, lr}
	.cfi_def_cfa_offset 8
	.cfi_offset lr, -4
	.cfi_offset r7, -8
	.pad	#16
	sub	sp, #16
	.cfi_def_cfa_offset 24
                                        @ kill: def $r2 killed $r1
	str	r0, [sp, #12]
	strh.w	r1, [sp, #10]
	movs	r0, #0
.Ltmp635:
	.loc	3 328 26 prologue_end           @ rt-thread/components/net/lwip-2.0.2/src/apps/mqtt/mqtt.c:328:26
	str	r0, [sp, #4]
	.loc	3 328 40 is_stmt 0              @ rt-thread/components/net/lwip-2.0.2/src/apps/mqtt/mqtt.c:328:40
	str	r0, [sp]
	.loc	3 329 3 is_stmt 1               @ rt-thread/components/net/lwip-2.0.2/src/apps/mqtt/mqtt.c:329:3
	b	.LBB29_1
.LBB29_1:
.Ltmp636:
	.loc	3 329 3 is_stmt 0               @ rt-thread/components/net/lwip-2.0.2/src/apps/mqtt/mqtt.c:329:3
	ldr	r0, [sp, #12]
.Ltmp637:
	.loc	3 329 3                         @ rt-thread/components/net/lwip-2.0.2/src/apps/mqtt/mqtt.c:329:3
	cbnz	r0, .LBB29_5
	b	.LBB29_2
.LBB29_2:
.Ltmp638:
	.loc	3 329 3                         @ rt-thread/components/net/lwip-2.0.2/src/apps/mqtt/mqtt.c:329:3
	b	.LBB29_3
.LBB29_3:
.Ltmp639:
	.loc	3 329 3                         @ rt-thread/components/net/lwip-2.0.2/src/apps/mqtt/mqtt.c:329:3
	movw	r0, :lower16:.L.str.32
	movt	r0, :upper16:.L.str.32
	bl	rt_kprintf
	movw	r0, :lower16:.L.str.1
	movt	r0, :upper16:.L.str.1
	movw	r1, #329
	bl	sys_arch_assert
	b	.LBB29_4
.Ltmp640:
.LBB29_4:
	.loc	3 329 3                         @ rt-thread/components/net/lwip-2.0.2/src/apps/mqtt/mqtt.c:329:3
	b	.LBB29_5
.Ltmp641:
.LBB29_5:
	.loc	3 329 3                         @ rt-thread/components/net/lwip-2.0.2/src/apps/mqtt/mqtt.c:329:3
	b	.LBB29_6
.Ltmp642:
.LBB29_6:
	.loc	3 331 16 is_stmt 1              @ rt-thread/components/net/lwip-2.0.2/src/apps/mqtt/mqtt.c:331:16
	ldr	r0, [sp, #12]
	.loc	3 331 15 is_stmt 0              @ rt-thread/components/net/lwip-2.0.2/src/apps/mqtt/mqtt.c:331:15
	ldr	r0, [r0]
	.loc	3 331 13                        @ rt-thread/components/net/lwip-2.0.2/src/apps/mqtt/mqtt.c:331:13
	str	r0, [sp, #4]
	.loc	3 331 8                         @ rt-thread/components/net/lwip-2.0.2/src/apps/mqtt/mqtt.c:331:8
	b	.LBB29_7
.LBB29_7:                               @ =>This Inner Loop Header: Depth=1
.Ltmp643:
	.loc	3 331 22                        @ rt-thread/components/net/lwip-2.0.2/src/apps/mqtt/mqtt.c:331:22
	ldr	r0, [sp, #4]
.Ltmp644:
	.loc	3 331 3                         @ rt-thread/components/net/lwip-2.0.2/src/apps/mqtt/mqtt.c:331:3
	cbz	r0, .LBB29_12
	b	.LBB29_8
.LBB29_8:                               @   in Loop: Header=BB29_7 Depth=1
.Ltmp645:
	.loc	3 332 9 is_stmt 1               @ rt-thread/components/net/lwip-2.0.2/src/apps/mqtt/mqtt.c:332:9
	ldr	r0, [sp, #4]
	.loc	3 332 15 is_stmt 0              @ rt-thread/components/net/lwip-2.0.2/src/apps/mqtt/mqtt.c:332:15
	ldrh	r0, [r0, #12]
	.loc	3 332 25                        @ rt-thread/components/net/lwip-2.0.2/src/apps/mqtt/mqtt.c:332:25
	ldrh.w	r1, [sp, #10]
.Ltmp646:
	.loc	3 332 9                         @ rt-thread/components/net/lwip-2.0.2/src/apps/mqtt/mqtt.c:332:9
	cmp	r0, r1
	bne	.LBB29_10
	b	.LBB29_9
.LBB29_9:
.Ltmp647:
	.loc	3 333 7 is_stmt 1               @ rt-thread/components/net/lwip-2.0.2/src/apps/mqtt/mqtt.c:333:7
	b	.LBB29_12
.Ltmp648:
.LBB29_10:                              @   in Loop: Header=BB29_7 Depth=1
	.loc	3 335 12                        @ rt-thread/components/net/lwip-2.0.2/src/apps/mqtt/mqtt.c:335:12
	ldr	r0, [sp, #4]
	.loc	3 335 10 is_stmt 0              @ rt-thread/components/net/lwip-2.0.2/src/apps/mqtt/mqtt.c:335:10
	str	r0, [sp]
	.loc	3 336 3 is_stmt 1               @ rt-thread/components/net/lwip-2.0.2/src/apps/mqtt/mqtt.c:336:3
	b	.LBB29_11
.Ltmp649:
.LBB29_11:                              @   in Loop: Header=BB29_7 Depth=1
	.loc	3 331 43                        @ rt-thread/components/net/lwip-2.0.2/src/apps/mqtt/mqtt.c:331:43
	ldr	r0, [sp, #4]
	.loc	3 331 49 is_stmt 0              @ rt-thread/components/net/lwip-2.0.2/src/apps/mqtt/mqtt.c:331:49
	ldr	r0, [r0]
	.loc	3 331 41                        @ rt-thread/components/net/lwip-2.0.2/src/apps/mqtt/mqtt.c:331:41
	str	r0, [sp, #4]
	.loc	3 331 3                         @ rt-thread/components/net/lwip-2.0.2/src/apps/mqtt/mqtt.c:331:3
	b	.LBB29_7
.Ltmp650:
.LBB29_12:
	.loc	3 339 7 is_stmt 1               @ rt-thread/components/net/lwip-2.0.2/src/apps/mqtt/mqtt.c:339:7
	ldr	r0, [sp, #4]
.Ltmp651:
	.loc	3 339 7 is_stmt 0               @ rt-thread/components/net/lwip-2.0.2/src/apps/mqtt/mqtt.c:339:7
	cbz	r0, .LBB29_19
	b	.LBB29_13
.LBB29_13:
.Ltmp652:
	.loc	3 341 9 is_stmt 1               @ rt-thread/components/net/lwip-2.0.2/src/apps/mqtt/mqtt.c:341:9
	ldr	r0, [sp]
.Ltmp653:
	.loc	3 341 9 is_stmt 0               @ rt-thread/components/net/lwip-2.0.2/src/apps/mqtt/mqtt.c:341:9
	cbnz	r0, .LBB29_15
	b	.LBB29_14
.LBB29_14:
.Ltmp654:
	.loc	3 342 14 is_stmt 1              @ rt-thread/components/net/lwip-2.0.2/src/apps/mqtt/mqtt.c:342:14
	ldr	r0, [sp, #4]
	.loc	3 342 20 is_stmt 0              @ rt-thread/components/net/lwip-2.0.2/src/apps/mqtt/mqtt.c:342:20
	ldr	r0, [r0]
	.loc	3 342 8                         @ rt-thread/components/net/lwip-2.0.2/src/apps/mqtt/mqtt.c:342:8
	ldr	r1, [sp, #12]
	.loc	3 342 12                        @ rt-thread/components/net/lwip-2.0.2/src/apps/mqtt/mqtt.c:342:12
	str	r0, [r1]
	.loc	3 343 5 is_stmt 1               @ rt-thread/components/net/lwip-2.0.2/src/apps/mqtt/mqtt.c:343:5
	b	.LBB29_16
.Ltmp655:
.LBB29_15:
	.loc	3 344 20                        @ rt-thread/components/net/lwip-2.0.2/src/apps/mqtt/mqtt.c:344:20
	ldr	r0, [sp, #4]
	.loc	3 344 26 is_stmt 0              @ rt-thread/components/net/lwip-2.0.2/src/apps/mqtt/mqtt.c:344:26
	ldr	r0, [r0]
	.loc	3 344 7                         @ rt-thread/components/net/lwip-2.0.2/src/apps/mqtt/mqtt.c:344:7
	ldr	r1, [sp]
	.loc	3 344 18                        @ rt-thread/components/net/lwip-2.0.2/src/apps/mqtt/mqtt.c:344:18
	str	r0, [r1]
	b	.LBB29_16
.Ltmp656:
.LBB29_16:
	.loc	3 347 9 is_stmt 1               @ rt-thread/components/net/lwip-2.0.2/src/apps/mqtt/mqtt.c:347:9
	ldr	r0, [sp, #4]
	.loc	3 347 15 is_stmt 0              @ rt-thread/components/net/lwip-2.0.2/src/apps/mqtt/mqtt.c:347:15
	ldr	r0, [r0]
.Ltmp657:
	.loc	3 347 9                         @ rt-thread/components/net/lwip-2.0.2/src/apps/mqtt/mqtt.c:347:9
	cbz	r0, .LBB29_18
	b	.LBB29_17
.LBB29_17:
.Ltmp658:
	.loc	3 348 35 is_stmt 1              @ rt-thread/components/net/lwip-2.0.2/src/apps/mqtt/mqtt.c:348:35
	ldr	r0, [sp, #4]
	ldrh	r2, [r0, #14]
	.loc	3 348 13 is_stmt 0              @ rt-thread/components/net/lwip-2.0.2/src/apps/mqtt/mqtt.c:348:13
	ldr	r1, [r0]
	.loc	3 348 32                        @ rt-thread/components/net/lwip-2.0.2/src/apps/mqtt/mqtt.c:348:32
	ldrh	r0, [r1, #14]
	add	r0, r2
	strh	r0, [r1, #14]
	.loc	3 349 5 is_stmt 1               @ rt-thread/components/net/lwip-2.0.2/src/apps/mqtt/mqtt.c:349:5
	b	.LBB29_18
.Ltmp659:
.LBB29_18:
	.loc	3 350 5                         @ rt-thread/components/net/lwip-2.0.2/src/apps/mqtt/mqtt.c:350:5
	ldr	r1, [sp, #4]
	movs	r0, #0
	.loc	3 350 16 is_stmt 0              @ rt-thread/components/net/lwip-2.0.2/src/apps/mqtt/mqtt.c:350:16
	str	r0, [r1]
	.loc	3 351 3 is_stmt 1               @ rt-thread/components/net/lwip-2.0.2/src/apps/mqtt/mqtt.c:351:3
	b	.LBB29_19
.Ltmp660:
.LBB29_19:
	.loc	3 352 10                        @ rt-thread/components/net/lwip-2.0.2/src/apps/mqtt/mqtt.c:352:10
	ldr	r0, [sp, #4]
	.loc	3 352 3 is_stmt 0               @ rt-thread/components/net/lwip-2.0.2/src/apps/mqtt/mqtt.c:352:3
	add	sp, #16
	pop	{r7, pc}
.Ltmp661:
.Lfunc_end29:
	.size	mqtt_take_request, .Lfunc_end29-mqtt_take_request
	.cfi_endproc
	.cantunwind
	.fnend
                                        @ -- End function
	.section	.text.mqtt_incomming_suback,"ax",%progbits
	.p2align	3                               @ -- Begin function mqtt_incomming_suback
	.type	mqtt_incomming_suback,%function
	.code	16                              @ @mqtt_incomming_suback
	.thumb_func
mqtt_incomming_suback:
.Lfunc_begin30:
	.loc	3 625 0 is_stmt 1               @ rt-thread/components/net/lwip-2.0.2/src/apps/mqtt/mqtt.c:625:0
	.fnstart
	.cfi_startproc
@ %bb.0:
	.save	{r7, lr}
	push	{r7, lr}
	.cfi_def_cfa_offset 8
	.cfi_offset lr, -4
	.cfi_offset r7, -8
	.pad	#8
	sub	sp, #8
	.cfi_def_cfa_offset 16
                                        @ kill: def $r2 killed $r1
	str	r0, [sp, #4]
	strb.w	r1, [sp, #3]
.Ltmp662:
	.loc	3 626 7 prologue_end            @ rt-thread/components/net/lwip-2.0.2/src/apps/mqtt/mqtt.c:626:7
	ldr	r0, [sp, #4]
	.loc	3 626 10 is_stmt 0              @ rt-thread/components/net/lwip-2.0.2/src/apps/mqtt/mqtt.c:626:10
	ldr	r0, [r0, #4]
.Ltmp663:
	.loc	3 626 7                         @ rt-thread/components/net/lwip-2.0.2/src/apps/mqtt/mqtt.c:626:7
	cbz	r0, .LBB30_2
	b	.LBB30_1
.LBB30_1:
.Ltmp664:
	.loc	3 627 5 is_stmt 1               @ rt-thread/components/net/lwip-2.0.2/src/apps/mqtt/mqtt.c:627:5
	ldr	r0, [sp, #4]
	.loc	3 627 8 is_stmt 0               @ rt-thread/components/net/lwip-2.0.2/src/apps/mqtt/mqtt.c:627:8
	ldr	r2, [r0, #4]
	.loc	3 627 14                        @ rt-thread/components/net/lwip-2.0.2/src/apps/mqtt/mqtt.c:627:14
	ldr	r0, [r0, #8]
	.loc	3 627 19                        @ rt-thread/components/net/lwip-2.0.2/src/apps/mqtt/mqtt.c:627:19
	ldrb.w	r3, [sp, #3]
	mvn	r1, #12
	cmp	r3, #3
	it	lt
	movlt	r1, #0
	.loc	3 627 5                         @ rt-thread/components/net/lwip-2.0.2/src/apps/mqtt/mqtt.c:627:5
	blx	r2
	.loc	3 628 3 is_stmt 1               @ rt-thread/components/net/lwip-2.0.2/src/apps/mqtt/mqtt.c:628:3
	b	.LBB30_2
.Ltmp665:
.LBB30_2:
	.loc	3 629 1                         @ rt-thread/components/net/lwip-2.0.2/src/apps/mqtt/mqtt.c:629:1
	add	sp, #8
	pop	{r7, pc}
.Ltmp666:
.Lfunc_end30:
	.size	mqtt_incomming_suback, .Lfunc_end30-mqtt_incomming_suback
	.cfi_endproc
	.cantunwind
	.fnend
                                        @ -- End function
	.section	.text.mqtt_request_time_elapsed,"ax",%progbits
	.p2align	3                               @ -- Begin function mqtt_request_time_elapsed
	.type	mqtt_request_time_elapsed,%function
	.code	16                              @ @mqtt_request_time_elapsed
	.thumb_func
mqtt_request_time_elapsed:
.Lfunc_begin31:
	.loc	3 362 0                         @ rt-thread/components/net/lwip-2.0.2/src/apps/mqtt/mqtt.c:362:0
	.fnstart
	.cfi_startproc
@ %bb.0:
	.save	{r7, lr}
	push	{r7, lr}
	.cfi_def_cfa_offset 8
	.cfi_offset lr, -4
	.cfi_offset r7, -8
	.pad	#16
	sub	sp, #16
	.cfi_def_cfa_offset 24
                                        @ kill: def $r2 killed $r1
	str	r0, [sp, #12]
	strb.w	r1, [sp, #11]
.Ltmp667:
	.loc	3 363 31 prologue_end           @ rt-thread/components/net/lwip-2.0.2/src/apps/mqtt/mqtt.c:363:31
	ldr	r0, [sp, #12]
	.loc	3 363 30 is_stmt 0              @ rt-thread/components/net/lwip-2.0.2/src/apps/mqtt/mqtt.c:363:30
	ldr	r0, [r0]
	.loc	3 363 26                        @ rt-thread/components/net/lwip-2.0.2/src/apps/mqtt/mqtt.c:363:26
	str	r0, [sp, #4]
	.loc	3 364 3 is_stmt 1               @ rt-thread/components/net/lwip-2.0.2/src/apps/mqtt/mqtt.c:364:3
	b	.LBB31_1
.LBB31_1:
.Ltmp668:
	.loc	3 364 3 is_stmt 0               @ rt-thread/components/net/lwip-2.0.2/src/apps/mqtt/mqtt.c:364:3
	ldr	r0, [sp, #12]
.Ltmp669:
	.loc	3 364 3                         @ rt-thread/components/net/lwip-2.0.2/src/apps/mqtt/mqtt.c:364:3
	cbnz	r0, .LBB31_5
	b	.LBB31_2
.LBB31_2:
.Ltmp670:
	.loc	3 364 3                         @ rt-thread/components/net/lwip-2.0.2/src/apps/mqtt/mqtt.c:364:3
	b	.LBB31_3
.LBB31_3:
.Ltmp671:
	.loc	3 364 3                         @ rt-thread/components/net/lwip-2.0.2/src/apps/mqtt/mqtt.c:364:3
	movw	r0, :lower16:.L.str.34
	movt	r0, :upper16:.L.str.34
	bl	rt_kprintf
	movw	r0, :lower16:.L.str.1
	movt	r0, :upper16:.L.str.1
	mov.w	r1, #364
	bl	sys_arch_assert
	b	.LBB31_4
.Ltmp672:
.LBB31_4:
	.loc	3 364 3                         @ rt-thread/components/net/lwip-2.0.2/src/apps/mqtt/mqtt.c:364:3
	b	.LBB31_5
.Ltmp673:
.LBB31_5:
	.loc	3 364 3                         @ rt-thread/components/net/lwip-2.0.2/src/apps/mqtt/mqtt.c:364:3
	b	.LBB31_6
.Ltmp674:
.LBB31_6:
	.loc	3 365 3 is_stmt 1               @ rt-thread/components/net/lwip-2.0.2/src/apps/mqtt/mqtt.c:365:3
	b	.LBB31_7
.LBB31_7:                               @ =>This Inner Loop Header: Depth=1
	.loc	3 365 10 is_stmt 0              @ rt-thread/components/net/lwip-2.0.2/src/apps/mqtt/mqtt.c:365:10
	ldrb.w	r1, [sp, #11]
	movs	r0, #0
	.loc	3 365 16                        @ rt-thread/components/net/lwip-2.0.2/src/apps/mqtt/mqtt.c:365:16
	cmp	r1, #1
	str	r0, [sp]                        @ 4-byte Spill
	blt	.LBB31_9
	b	.LBB31_8
.LBB31_8:                               @   in Loop: Header=BB31_7 Depth=1
	.loc	3 365 19                        @ rt-thread/components/net/lwip-2.0.2/src/apps/mqtt/mqtt.c:365:19
	ldr	r0, [sp, #4]
	.loc	3 365 21                        @ rt-thread/components/net/lwip-2.0.2/src/apps/mqtt/mqtt.c:365:21
	cmp	r0, #0
	it	ne
	movne	r0, #1
	str	r0, [sp]                        @ 4-byte Spill
	b	.LBB31_9
.LBB31_9:                               @   in Loop: Header=BB31_7 Depth=1
	.loc	3 0 0                           @ rt-thread/components/net/lwip-2.0.2/src/apps/mqtt/mqtt.c:0:0
	ldr	r0, [sp]                        @ 4-byte Reload
	.loc	3 365 3                         @ rt-thread/components/net/lwip-2.0.2/src/apps/mqtt/mqtt.c:365:3
	lsls	r0, r0, #31
	cbz	r0, .LBB31_16
	b	.LBB31_10
.LBB31_10:                              @   in Loop: Header=BB31_7 Depth=1
.Ltmp675:
	.loc	3 366 9 is_stmt 1               @ rt-thread/components/net/lwip-2.0.2/src/apps/mqtt/mqtt.c:366:9
	ldrb.w	r0, [sp, #11]
	.loc	3 366 14 is_stmt 0              @ rt-thread/components/net/lwip-2.0.2/src/apps/mqtt/mqtt.c:366:14
	ldr	r1, [sp, #4]
	.loc	3 366 17                        @ rt-thread/components/net/lwip-2.0.2/src/apps/mqtt/mqtt.c:366:17
	ldrh	r1, [r1, #14]
.Ltmp676:
	.loc	3 366 9                         @ rt-thread/components/net/lwip-2.0.2/src/apps/mqtt/mqtt.c:366:9
	cmp	r0, r1
	blt	.LBB31_14
	b	.LBB31_11
.LBB31_11:                              @   in Loop: Header=BB31_7 Depth=1
.Ltmp677:
	.loc	3 367 18 is_stmt 1              @ rt-thread/components/net/lwip-2.0.2/src/apps/mqtt/mqtt.c:367:18
	ldr	r0, [sp, #4]
	.loc	3 367 12 is_stmt 0              @ rt-thread/components/net/lwip-2.0.2/src/apps/mqtt/mqtt.c:367:12
	ldrb	r1, [r0, #14]
	.loc	3 367 9                         @ rt-thread/components/net/lwip-2.0.2/src/apps/mqtt/mqtt.c:367:9
	ldrb.w	r0, [sp, #11]
	subs	r0, r0, r1
	strb.w	r0, [sp, #11]
	.loc	3 369 15 is_stmt 1              @ rt-thread/components/net/lwip-2.0.2/src/apps/mqtt/mqtt.c:369:15
	ldr	r0, [sp, #4]
	.loc	3 369 18 is_stmt 0              @ rt-thread/components/net/lwip-2.0.2/src/apps/mqtt/mqtt.c:369:18
	ldr	r0, [r0]
	.loc	3 369 8                         @ rt-thread/components/net/lwip-2.0.2/src/apps/mqtt/mqtt.c:369:8
	ldr	r1, [sp, #12]
	.loc	3 369 13                        @ rt-thread/components/net/lwip-2.0.2/src/apps/mqtt/mqtt.c:369:13
	str	r0, [r1]
.Ltmp678:
	.loc	3 371 11 is_stmt 1              @ rt-thread/components/net/lwip-2.0.2/src/apps/mqtt/mqtt.c:371:11
	ldr	r0, [sp, #4]
	.loc	3 371 14 is_stmt 0              @ rt-thread/components/net/lwip-2.0.2/src/apps/mqtt/mqtt.c:371:14
	ldr	r0, [r0, #4]
.Ltmp679:
	.loc	3 371 11                        @ rt-thread/components/net/lwip-2.0.2/src/apps/mqtt/mqtt.c:371:11
	cbz	r0, .LBB31_13
	b	.LBB31_12
.LBB31_12:                              @   in Loop: Header=BB31_7 Depth=1
.Ltmp680:
	.loc	3 372 9 is_stmt 1               @ rt-thread/components/net/lwip-2.0.2/src/apps/mqtt/mqtt.c:372:9
	ldr	r0, [sp, #4]
	.loc	3 372 12 is_stmt 0              @ rt-thread/components/net/lwip-2.0.2/src/apps/mqtt/mqtt.c:372:12
	ldr	r2, [r0, #4]
	.loc	3 372 18                        @ rt-thread/components/net/lwip-2.0.2/src/apps/mqtt/mqtt.c:372:18
	ldr	r0, [r0, #8]
	mvn	r1, #2
	.loc	3 372 9                         @ rt-thread/components/net/lwip-2.0.2/src/apps/mqtt/mqtt.c:372:9
	blx	r2
	.loc	3 373 7 is_stmt 1               @ rt-thread/components/net/lwip-2.0.2/src/apps/mqtt/mqtt.c:373:7
	b	.LBB31_13
.Ltmp681:
.LBB31_13:                              @   in Loop: Header=BB31_7 Depth=1
	.loc	3 374 27                        @ rt-thread/components/net/lwip-2.0.2/src/apps/mqtt/mqtt.c:374:27
	ldr	r0, [sp, #4]
	.loc	3 374 7 is_stmt 0               @ rt-thread/components/net/lwip-2.0.2/src/apps/mqtt/mqtt.c:374:7
	bl	mqtt_delete_request
	.loc	3 376 54 is_stmt 1              @ rt-thread/components/net/lwip-2.0.2/src/apps/mqtt/mqtt.c:376:54
	ldr	r0, [sp, #12]
	.loc	3 376 11 is_stmt 0              @ rt-thread/components/net/lwip-2.0.2/src/apps/mqtt/mqtt.c:376:11
	ldr	r0, [r0]
	.loc	3 376 9                         @ rt-thread/components/net/lwip-2.0.2/src/apps/mqtt/mqtt.c:376:9
	str	r0, [sp, #4]
	.loc	3 377 5 is_stmt 1               @ rt-thread/components/net/lwip-2.0.2/src/apps/mqtt/mqtt.c:377:5
	b	.LBB31_15
.Ltmp682:
.LBB31_14:                              @   in Loop: Header=BB31_7 Depth=1
	.loc	3 378 26                        @ rt-thread/components/net/lwip-2.0.2/src/apps/mqtt/mqtt.c:378:26
	ldrb.w	r2, [sp, #11]
	.loc	3 378 7 is_stmt 0               @ rt-thread/components/net/lwip-2.0.2/src/apps/mqtt/mqtt.c:378:7
	ldr	r1, [sp, #4]
	.loc	3 378 23                        @ rt-thread/components/net/lwip-2.0.2/src/apps/mqtt/mqtt.c:378:23
	ldrh	r0, [r1, #14]
	subs	r0, r0, r2
	strh	r0, [r1, #14]
	movs	r0, #0
	.loc	3 379 9 is_stmt 1               @ rt-thread/components/net/lwip-2.0.2/src/apps/mqtt/mqtt.c:379:9
	strb.w	r0, [sp, #11]
	b	.LBB31_15
.Ltmp683:
.LBB31_15:                              @   in Loop: Header=BB31_7 Depth=1
	.loc	3 365 3                         @ rt-thread/components/net/lwip-2.0.2/src/apps/mqtt/mqtt.c:365:3
	b	.LBB31_7
.LBB31_16:
	.loc	3 382 1                         @ rt-thread/components/net/lwip-2.0.2/src/apps/mqtt/mqtt.c:382:1
	add	sp, #16
	pop	{r7, pc}
.Ltmp684:
.Lfunc_end31:
	.size	mqtt_request_time_elapsed, .Lfunc_end31-mqtt_request_time_elapsed
	.cfi_endproc
	.cantunwind
	.fnend
                                        @ -- End function
