	.text
	.syntax unified
	.eabi_attribute	67, "2.09"	@ Tag_conformance
	.cpu	cortex-m7
	.eabi_attribute	6, 13	@ Tag_CPU_arch
	.eabi_attribute	7, 77	@ Tag_CPU_arch_profile
	.eabi_attribute	8, 0	@ Tag_ARM_ISA_use
	.eabi_attribute	9, 2	@ Tag_THUMB_ISA_use
	.fpu	fpv5-d16
	.eabi_attribute	36, 1	@ Tag_FP_HP_extension
	.eabi_attribute	34, 1	@ Tag_CPU_unaligned_access
	.eabi_attribute	17, 1	@ Tag_ABI_PCS_GOT_use
	.eabi_attribute	20, 2	@ Tag_ABI_FP_denormal
	.eabi_attribute	21, 0	@ Tag_ABI_FP_exceptions
	.eabi_attribute	23, 1	@ Tag_ABI_FP_number_model
	.eabi_attribute	24, 1	@ Tag_ABI_align_needed
	.eabi_attribute	25, 1	@ Tag_ABI_align_preserved
	.eabi_attribute	28, 1	@ Tag_ABI_VFP_args
	.eabi_attribute	38, 1	@ Tag_ABI_FP_16bit_format
	.eabi_attribute	18, 2	@ Tag_ABI_PCS_wchar_t
	.eabi_attribute	26, 1	@ Tag_ABI_enum_size
	.eabi_attribute	14, 0	@ Tag_ABI_PCS_R9_use
	.file	"MQTTSubscribeServer.c"
	.file	1 "E:\\STM32\\Learning\\STM32H750_ART_PI_RGBLCD" "./packages/paho_mqtt/MQTTPacket/src/MQTTPacket.h"
	.section	.text.MQTTDeserialize_subscribe,"ax",%progbits
	.hidden	MQTTDeserialize_subscribe       @ -- Begin function MQTTDeserialize_subscribe
	.globl	MQTTDeserialize_subscribe
	.p2align	3
	.type	MQTTDeserialize_subscribe,%function
	.code	16                              @ @MQTTDeserialize_subscribe
	.thumb_func
MQTTDeserialize_subscribe:
.Lfunc_begin0:
	.file	2 "E:\\STM32\\Learning\\STM32H750_ART_PI_RGBLCD" "packages/paho_mqtt/MQTTPacket/src/MQTTSubscribeServer.c"
	.loc	2 37 0                          @ packages/paho_mqtt/MQTTPacket/src/MQTTSubscribeServer.c:37:0
	.fnstart
	.cfi_sections .debug_frame
	.cfi_startproc
@ %bb.0:
	.save	{r7, lr}
	push	{r7, lr}
	.cfi_def_cfa_offset 8
	.cfi_offset lr, -4
	.cfi_offset r7, -8
	.pad	#40
	sub	sp, #40
	.cfi_def_cfa_offset 48
	ldr.w	r12, [sp, #60]
	ldr.w	r12, [sp, #56]
	ldr.w	r12, [sp, #52]
	ldr.w	r12, [sp, #48]
	str	r0, [sp, #36]
	str	r1, [sp, #32]
	str	r2, [sp, #28]
	str	r3, [sp, #24]
.Ltmp0:
	.loc	2 38 13 prologue_end            @ packages/paho_mqtt/MQTTPacket/src/MQTTSubscribeServer.c:38:13
	movw	r0, :lower16:.L__const.MQTTDeserialize_subscribe.header
	movt	r0, :upper16:.L__const.MQTTDeserialize_subscribe.header
	ldr	r0, [r0]
	str	r0, [sp, #20]
	.loc	2 39 27                         @ packages/paho_mqtt/MQTTPacket/src/MQTTSubscribeServer.c:39:27
	ldr	r0, [sp, #56]
	.loc	2 39 17 is_stmt 0               @ packages/paho_mqtt/MQTTPacket/src/MQTTSubscribeServer.c:39:17
	str	r0, [sp, #16]
	movs	r0, #0
	.loc	2 40 17 is_stmt 1               @ packages/paho_mqtt/MQTTPacket/src/MQTTSubscribeServer.c:40:17
	str	r0, [sp, #12]
	mov.w	r1, #-1
	.loc	2 41 6                          @ packages/paho_mqtt/MQTTPacket/src/MQTTSubscribeServer.c:41:6
	str	r1, [sp, #8]
	.loc	2 42 6                          @ packages/paho_mqtt/MQTTPacket/src/MQTTSubscribeServer.c:42:6
	str	r0, [sp, #4]
	add	r0, sp, #16
	.loc	2 45 16                         @ packages/paho_mqtt/MQTTPacket/src/MQTTSubscribeServer.c:45:16
	bl	readChar
	.loc	2 45 14 is_stmt 0               @ packages/paho_mqtt/MQTTPacket/src/MQTTSubscribeServer.c:45:14
	strb.w	r0, [sp, #20]
.Ltmp1:
	.loc	2 46 18 is_stmt 1               @ packages/paho_mqtt/MQTTPacket/src/MQTTSubscribeServer.c:46:18
	ldrb.w	r1, [sp, #20]
	movs	r0, #8
.Ltmp2:
	.loc	2 46 6 is_stmt 0                @ packages/paho_mqtt/MQTTPacket/src/MQTTSubscribeServer.c:46:6
	cmp.w	r0, r1, lsr #4
	beq	.LBB0_2
	b	.LBB0_1
.LBB0_1:
.Ltmp3:
	.loc	2 47 3 is_stmt 1                @ packages/paho_mqtt/MQTTPacket/src/MQTTSubscribeServer.c:47:3
	b	.LBB0_10
.Ltmp4:
.LBB0_2:
	.loc	2 48 21                         @ packages/paho_mqtt/MQTTPacket/src/MQTTSubscribeServer.c:48:21
	ldrb.w	r0, [sp, #20]
	ubfx	r0, r0, #3, #1
	.loc	2 48 3 is_stmt 0                @ packages/paho_mqtt/MQTTPacket/src/MQTTSubscribeServer.c:48:3
	ldr	r1, [sp, #36]
	.loc	2 48 7                          @ packages/paho_mqtt/MQTTPacket/src/MQTTSubscribeServer.c:48:7
	strb	r0, [r1]
	.loc	2 50 40 is_stmt 1               @ packages/paho_mqtt/MQTTPacket/src/MQTTSubscribeServer.c:50:40
	ldr	r0, [sp, #16]
	add	r1, sp, #4
	.loc	2 50 19 is_stmt 0               @ packages/paho_mqtt/MQTTPacket/src/MQTTSubscribeServer.c:50:19
	bl	MQTTPacket_decodeBuf
	mov	r1, r0
	.loc	2 50 17                         @ packages/paho_mqtt/MQTTPacket/src/MQTTSubscribeServer.c:50:17
	str	r1, [sp, #8]
	.loc	2 50 10                         @ packages/paho_mqtt/MQTTPacket/src/MQTTSubscribeServer.c:50:10
	ldr	r0, [sp, #16]
	add	r0, r1
	str	r0, [sp, #16]
	.loc	2 51 12 is_stmt 1               @ packages/paho_mqtt/MQTTPacket/src/MQTTSubscribeServer.c:51:12
	ldr	r0, [sp, #16]
	.loc	2 51 22 is_stmt 0               @ packages/paho_mqtt/MQTTPacket/src/MQTTSubscribeServer.c:51:22
	ldr	r1, [sp, #4]
	.loc	2 51 20                         @ packages/paho_mqtt/MQTTPacket/src/MQTTSubscribeServer.c:51:20
	add	r0, r1
	.loc	2 51 10                         @ packages/paho_mqtt/MQTTPacket/src/MQTTSubscribeServer.c:51:10
	str	r0, [sp, #12]
	add	r0, sp, #16
	.loc	2 53 14 is_stmt 1               @ packages/paho_mqtt/MQTTPacket/src/MQTTSubscribeServer.c:53:14
	bl	readInt
	.loc	2 53 3 is_stmt 0                @ packages/paho_mqtt/MQTTPacket/src/MQTTSubscribeServer.c:53:3
	ldr	r1, [sp, #32]
	.loc	2 53 12                         @ packages/paho_mqtt/MQTTPacket/src/MQTTSubscribeServer.c:53:12
	strh	r0, [r1]
	.loc	2 55 3 is_stmt 1                @ packages/paho_mqtt/MQTTPacket/src/MQTTSubscribeServer.c:55:3
	ldr	r1, [sp, #24]
	movs	r0, #0
	.loc	2 55 9 is_stmt 0                @ packages/paho_mqtt/MQTTPacket/src/MQTTSubscribeServer.c:55:9
	str	r0, [r1]
	.loc	2 56 2 is_stmt 1                @ packages/paho_mqtt/MQTTPacket/src/MQTTSubscribeServer.c:56:2
	b	.LBB0_3
.LBB0_3:                                @ =>This Inner Loop Header: Depth=1
	.loc	2 56 9 is_stmt 0                @ packages/paho_mqtt/MQTTPacket/src/MQTTSubscribeServer.c:56:9
	ldr	r0, [sp, #16]
	.loc	2 56 19                         @ packages/paho_mqtt/MQTTPacket/src/MQTTSubscribeServer.c:56:19
	ldr	r1, [sp, #12]
	.loc	2 56 2                          @ packages/paho_mqtt/MQTTPacket/src/MQTTSubscribeServer.c:56:2
	cmp	r0, r1
	bhs	.LBB0_9
	b	.LBB0_4
.LBB0_4:                                @   in Loop: Header=BB0_3 Depth=1
.Ltmp5:
	.loc	2 58 27 is_stmt 1               @ packages/paho_mqtt/MQTTPacket/src/MQTTSubscribeServer.c:58:27
	ldr	r0, [sp, #48]
	.loc	2 58 41 is_stmt 0               @ packages/paho_mqtt/MQTTPacket/src/MQTTSubscribeServer.c:58:41
	ldr	r1, [sp, #24]
	.loc	2 58 40                         @ packages/paho_mqtt/MQTTPacket/src/MQTTSubscribeServer.c:58:40
	ldr	r1, [r1]
	.loc	2 58 27                         @ packages/paho_mqtt/MQTTPacket/src/MQTTSubscribeServer.c:58:27
	add.w	r1, r1, r1, lsl #1
	add.w	r0, r0, r1, lsl #2
	.loc	2 58 59                         @ packages/paho_mqtt/MQTTPacket/src/MQTTSubscribeServer.c:58:59
	ldr	r2, [sp, #12]
	add	r1, sp, #16
	.loc	2 58 8                          @ packages/paho_mqtt/MQTTPacket/src/MQTTSubscribeServer.c:58:8
	bl	readMQTTLenString
.Ltmp6:
	.loc	2 58 7                          @ packages/paho_mqtt/MQTTPacket/src/MQTTSubscribeServer.c:58:7
	cbnz	r0, .LBB0_6
	b	.LBB0_5
.LBB0_5:
.Ltmp7:
	.loc	2 59 4 is_stmt 1                @ packages/paho_mqtt/MQTTPacket/src/MQTTSubscribeServer.c:59:4
	b	.LBB0_10
.Ltmp8:
.LBB0_6:                                @   in Loop: Header=BB0_3 Depth=1
	.loc	2 60 7                          @ packages/paho_mqtt/MQTTPacket/src/MQTTSubscribeServer.c:60:7
	ldr	r0, [sp, #16]
	.loc	2 60 18 is_stmt 0               @ packages/paho_mqtt/MQTTPacket/src/MQTTSubscribeServer.c:60:18
	ldr	r1, [sp, #12]
.Ltmp9:
	.loc	2 60 7                          @ packages/paho_mqtt/MQTTPacket/src/MQTTSubscribeServer.c:60:7
	cmp	r0, r1
	blo	.LBB0_8
	b	.LBB0_7
.LBB0_7:
.Ltmp10:
	.loc	2 61 4 is_stmt 1                @ packages/paho_mqtt/MQTTPacket/src/MQTTSubscribeServer.c:61:4
	b	.LBB0_10
.Ltmp11:
.LBB0_8:                                @   in Loop: Header=BB0_3 Depth=1
	.loc	2 0 4 is_stmt 0                 @ packages/paho_mqtt/MQTTPacket/src/MQTTSubscribeServer.c:0:4
	add	r0, sp, #16
	.loc	2 62 27 is_stmt 1               @ packages/paho_mqtt/MQTTPacket/src/MQTTSubscribeServer.c:62:27
	bl	readChar
	.loc	2 62 3 is_stmt 0                @ packages/paho_mqtt/MQTTPacket/src/MQTTSubscribeServer.c:62:3
	ldr	r1, [sp, #52]
	.loc	2 62 18                         @ packages/paho_mqtt/MQTTPacket/src/MQTTSubscribeServer.c:62:18
	ldr	r2, [sp, #24]
	.loc	2 62 17                         @ packages/paho_mqtt/MQTTPacket/src/MQTTSubscribeServer.c:62:17
	ldr	r2, [r2]
	.loc	2 62 25                         @ packages/paho_mqtt/MQTTPacket/src/MQTTSubscribeServer.c:62:25
	str.w	r0, [r1, r2, lsl #2]
	.loc	2 63 5 is_stmt 1                @ packages/paho_mqtt/MQTTPacket/src/MQTTSubscribeServer.c:63:5
	ldr	r1, [sp, #24]
	.loc	2 63 11 is_stmt 0               @ packages/paho_mqtt/MQTTPacket/src/MQTTSubscribeServer.c:63:11
	ldr	r0, [r1]
	adds	r0, #1
	str	r0, [r1]
.Ltmp12:
	.loc	2 56 2 is_stmt 1                @ packages/paho_mqtt/MQTTPacket/src/MQTTSubscribeServer.c:56:2
	b	.LBB0_3
.LBB0_9:
	.loc	2 0 2 is_stmt 0                 @ packages/paho_mqtt/MQTTPacket/src/MQTTSubscribeServer.c:0:2
	movs	r0, #1
	.loc	2 66 5 is_stmt 1                @ packages/paho_mqtt/MQTTPacket/src/MQTTSubscribeServer.c:66:5
	str	r0, [sp, #8]
	.loc	2 66 2 is_stmt 0                @ packages/paho_mqtt/MQTTPacket/src/MQTTSubscribeServer.c:66:2
	b	.LBB0_10
.LBB0_10:
.Ltmp13:
	@DEBUG_LABEL: MQTTDeserialize_subscribe:exit
	.loc	2 69 9 is_stmt 1                @ packages/paho_mqtt/MQTTPacket/src/MQTTSubscribeServer.c:69:9
	ldr	r0, [sp, #8]
	.loc	2 69 2 is_stmt 0                @ packages/paho_mqtt/MQTTPacket/src/MQTTSubscribeServer.c:69:2
	add	sp, #40
	pop	{r7, pc}
.Ltmp14:
.Lfunc_end0:
	.size	MQTTDeserialize_subscribe, .Lfunc_end0-MQTTDeserialize_subscribe
	.cfi_endproc
	.cantunwind
	.fnend
                                        @ -- End function
	.section	.text.MQTTSerialize_suback,"ax",%progbits
	.hidden	MQTTSerialize_suback            @ -- Begin function MQTTSerialize_suback
	.globl	MQTTSerialize_suback
	.p2align	3
	.type	MQTTSerialize_suback,%function
	.code	16                              @ @MQTTSerialize_suback
	.thumb_func
MQTTSerialize_suback:
.Lfunc_begin1:
	.loc	2 83 0 is_stmt 1                @ packages/paho_mqtt/MQTTPacket/src/MQTTSubscribeServer.c:83:0
	.fnstart
	.cfi_startproc
@ %bb.0:
	.save	{r7, lr}
	push	{r7, lr}
	.cfi_def_cfa_offset 8
	.cfi_offset lr, -4
	.cfi_offset r7, -8
	.pad	#40
	sub	sp, #40
	.cfi_def_cfa_offset 48
	ldr.w	r12, [sp, #48]
                                        @ kill: def $r12 killed $r2
	str	r0, [sp, #36]
	str	r1, [sp, #32]
	strh.w	r2, [sp, #30]
	str	r3, [sp, #24]
.Ltmp15:
	.loc	2 84 13 prologue_end            @ packages/paho_mqtt/MQTTPacket/src/MQTTSubscribeServer.c:84:13
	movw	r0, :lower16:.L__const.MQTTSerialize_suback.header
	movt	r0, :upper16:.L__const.MQTTSerialize_suback.header
	ldr	r0, [r0]
	str	r0, [sp, #20]
	mov.w	r0, #-1
	.loc	2 85 6                          @ packages/paho_mqtt/MQTTPacket/src/MQTTSubscribeServer.c:85:6
	str	r0, [sp, #16]
	.loc	2 86 23                         @ packages/paho_mqtt/MQTTPacket/src/MQTTSubscribeServer.c:86:23
	ldr	r0, [sp, #36]
	.loc	2 86 17 is_stmt 0               @ packages/paho_mqtt/MQTTPacket/src/MQTTSubscribeServer.c:86:17
	str	r0, [sp, #12]
.Ltmp16:
	.loc	2 90 6 is_stmt 1                @ packages/paho_mqtt/MQTTPacket/src/MQTTSubscribeServer.c:90:6
	ldr	r0, [sp, #32]
	.loc	2 90 19 is_stmt 0               @ packages/paho_mqtt/MQTTPacket/src/MQTTSubscribeServer.c:90:19
	ldr	r1, [sp, #24]
	.loc	2 90 17                         @ packages/paho_mqtt/MQTTPacket/src/MQTTSubscribeServer.c:90:17
	adds	r1, #2
.Ltmp17:
	.loc	2 90 6                          @ packages/paho_mqtt/MQTTPacket/src/MQTTSubscribeServer.c:90:6
	cmp	r0, r1
	bge	.LBB1_2
	b	.LBB1_1
.LBB1_1:
	.loc	2 0 6                           @ packages/paho_mqtt/MQTTPacket/src/MQTTSubscribeServer.c:0:6
	mvn	r0, #1
.Ltmp18:
	.loc	2 92 6 is_stmt 1                @ packages/paho_mqtt/MQTTPacket/src/MQTTSubscribeServer.c:92:6
	str	r0, [sp, #16]
	.loc	2 93 3                          @ packages/paho_mqtt/MQTTPacket/src/MQTTSubscribeServer.c:93:3
	b	.LBB1_7
.Ltmp19:
.LBB1_2:
	.loc	2 0 3 is_stmt 0                 @ packages/paho_mqtt/MQTTPacket/src/MQTTSubscribeServer.c:0:3
	movs	r0, #0
	.loc	2 95 14 is_stmt 1               @ packages/paho_mqtt/MQTTPacket/src/MQTTSubscribeServer.c:95:14
	str	r0, [sp, #4]                    @ 4-byte Spill
	strb.w	r0, [sp, #20]
	.loc	2 96 19                         @ packages/paho_mqtt/MQTTPacket/src/MQTTSubscribeServer.c:96:19
	ldrb.w	r0, [sp, #20]
	movs	r1, #9
	bfi	r0, r1, #4, #28
	strb.w	r0, [sp, #20]
	.loc	2 97 25                         @ packages/paho_mqtt/MQTTPacket/src/MQTTSubscribeServer.c:97:25
	ldrsb.w	r1, [sp, #20]
	add	r0, sp, #12
	.loc	2 97 2 is_stmt 0                @ packages/paho_mqtt/MQTTPacket/src/MQTTSubscribeServer.c:97:2
	str	r0, [sp]                        @ 4-byte Spill
	bl	writeChar
	.loc	2 99 27 is_stmt 1               @ packages/paho_mqtt/MQTTPacket/src/MQTTSubscribeServer.c:99:27
	ldr	r0, [sp, #12]
	.loc	2 99 36 is_stmt 0               @ packages/paho_mqtt/MQTTPacket/src/MQTTSubscribeServer.c:99:36
	ldr	r1, [sp, #24]
	.loc	2 99 34                         @ packages/paho_mqtt/MQTTPacket/src/MQTTSubscribeServer.c:99:34
	adds	r1, #2
	.loc	2 99 9                          @ packages/paho_mqtt/MQTTPacket/src/MQTTSubscribeServer.c:99:9
	bl	MQTTPacket_encode
	mov	r2, r0
	.loc	2 99 6                          @ packages/paho_mqtt/MQTTPacket/src/MQTTSubscribeServer.c:99:6
	ldr	r0, [sp]                        @ 4-byte Reload
	ldr	r1, [sp, #12]
	add	r1, r2
	str	r1, [sp, #12]
	.loc	2 101 17 is_stmt 1              @ packages/paho_mqtt/MQTTPacket/src/MQTTSubscribeServer.c:101:17
	ldrh.w	r1, [sp, #30]
	.loc	2 101 2 is_stmt 0               @ packages/paho_mqtt/MQTTPacket/src/MQTTSubscribeServer.c:101:2
	bl	writeInt
	ldr	r0, [sp, #4]                    @ 4-byte Reload
.Ltmp20:
	.loc	2 103 9 is_stmt 1               @ packages/paho_mqtt/MQTTPacket/src/MQTTSubscribeServer.c:103:9
	str	r0, [sp, #8]
	.loc	2 103 7 is_stmt 0               @ packages/paho_mqtt/MQTTPacket/src/MQTTSubscribeServer.c:103:7
	b	.LBB1_3
.LBB1_3:                                @ =>This Inner Loop Header: Depth=1
.Ltmp21:
	.loc	2 103 14                        @ packages/paho_mqtt/MQTTPacket/src/MQTTSubscribeServer.c:103:14
	ldr	r0, [sp, #8]
	.loc	2 103 18                        @ packages/paho_mqtt/MQTTPacket/src/MQTTSubscribeServer.c:103:18
	ldr	r1, [sp, #24]
.Ltmp22:
	.loc	2 103 2                         @ packages/paho_mqtt/MQTTPacket/src/MQTTSubscribeServer.c:103:2
	cmp	r0, r1
	bge	.LBB1_6
	b	.LBB1_4
.LBB1_4:                                @   in Loop: Header=BB1_3 Depth=1
.Ltmp23:
	.loc	2 104 19 is_stmt 1              @ packages/paho_mqtt/MQTTPacket/src/MQTTSubscribeServer.c:104:19
	ldr	r0, [sp, #48]
	.loc	2 104 31 is_stmt 0              @ packages/paho_mqtt/MQTTPacket/src/MQTTSubscribeServer.c:104:31
	ldr	r1, [sp, #8]
	.loc	2 104 19                        @ packages/paho_mqtt/MQTTPacket/src/MQTTSubscribeServer.c:104:19
	ldrsb.w	r1, [r0, r1, lsl #2]
	add	r0, sp, #12
	.loc	2 104 3                         @ packages/paho_mqtt/MQTTPacket/src/MQTTSubscribeServer.c:104:3
	bl	writeChar
	b	.LBB1_5
.LBB1_5:                                @   in Loop: Header=BB1_3 Depth=1
	.loc	2 103 25 is_stmt 1              @ packages/paho_mqtt/MQTTPacket/src/MQTTSubscribeServer.c:103:25
	ldr	r0, [sp, #8]
	adds	r0, #1
	str	r0, [sp, #8]
	.loc	2 103 2 is_stmt 0               @ packages/paho_mqtt/MQTTPacket/src/MQTTSubscribeServer.c:103:2
	b	.LBB1_3
.Ltmp24:
.LBB1_6:
	.loc	2 106 7 is_stmt 1               @ packages/paho_mqtt/MQTTPacket/src/MQTTSubscribeServer.c:106:7
	ldr	r0, [sp, #12]
	.loc	2 106 13 is_stmt 0              @ packages/paho_mqtt/MQTTPacket/src/MQTTSubscribeServer.c:106:13
	ldr	r1, [sp, #36]
	.loc	2 106 11                        @ packages/paho_mqtt/MQTTPacket/src/MQTTSubscribeServer.c:106:11
	subs	r0, r0, r1
	.loc	2 106 5                         @ packages/paho_mqtt/MQTTPacket/src/MQTTSubscribeServer.c:106:5
	str	r0, [sp, #16]
	.loc	2 106 2                         @ packages/paho_mqtt/MQTTPacket/src/MQTTSubscribeServer.c:106:2
	b	.LBB1_7
.LBB1_7:
.Ltmp25:
	@DEBUG_LABEL: MQTTSerialize_suback:exit
	.loc	2 109 9 is_stmt 1               @ packages/paho_mqtt/MQTTPacket/src/MQTTSubscribeServer.c:109:9
	ldr	r0, [sp, #16]
	.loc	2 109 2 is_stmt 0               @ packages/paho_mqtt/MQTTPacket/src/MQTTSubscribeServer.c:109:2
	add	sp, #40
	pop	{r7, pc}
.Ltmp26:
.Lfunc_end1:
	.size	MQTTSerialize_suback, .Lfunc_end1-MQTTSerialize_suback
	.cfi_endproc
	.cantunwind
	.fnend
                                        @ -- End function
	.type	.L__const.MQTTDeserialize_subscribe.header,%object @ @__const.MQTTDeserialize_subscribe.header
	.section	.rodata.cst4,"aM",%progbits,4
	.p2align	2
.L__const.MQTTDeserialize_subscribe.header:
	.byte	0                               @ 0x0
	.zero	3
	.size	.L__const.MQTTDeserialize_subscribe.header, 4

	.type	.L__const.MQTTSerialize_suback.header,%object @ @__const.MQTTSerialize_suback.header
	.p2align	2
.L__const.MQTTSerialize_suback.header:
	.byte	0                               @ 0x0
	.zero	3
	.size	.L__const.MQTTSerialize_suback.header, 4

	.section	".note.GNU-stack","",%progbits
	.eabi_attribute	30, 6	@ Tag_ABI_optimization_goals
	.ARM_attribute	16, 1	@ Tag_AV_eba