	.text
	.syntax unified
	.eabi_attribute	67, "2.09"	@ Tag_conformance
	.cpu	cortex-m7
	.eabi_attribute	6, 13	@ Tag_CPU_arch
	.eabi_attribute	7, 77	@ Tag_CPU_arch_profile
	.eabi_attribute	8, 0	@ Tag_ARM_ISA_use
	.eabi_attribute	9, 2	@ Tag_THUMB_ISA_use
	.fpu	fpv5-d16
	.eabi_attribute	36, 1	@ Tag_FP_HP_extension
	.eabi_attribute	34, 1	@ Tag_CPU_unaligned_access
	.eabi_attribute	17, 1	@ Tag_ABI_PCS_GOT_use
	.eabi_attribute	20, 2	@ Tag_ABI_FP_denormal
	.eabi_attribute	21, 0	@ Tag_ABI_FP_exceptions
	.eabi_attribute	23, 1	@ Tag_ABI_FP_number_model
	.eabi_attribute	24, 1	@ Tag_ABI_align_needed
	.eabi_attribute	25, 1	@ Tag_ABI_align_preserved
	.eabi_attribute	28, 1	@ Tag_ABI_VFP_args
	.eabi_attribute	38, 1	@ Tag_ABI_FP_16bit_format
	.eabi_attribute	18, 2	@ Tag_ABI_PCS_wchar_t
	.eabi_attribute	26, 1	@ Tag_ABI_enum_size
	.eabi_attribute	14, 0	@ Tag_ABI_PCS_R9_use
	.file	"MQTTConnectServer.c"
	.file	1 "E:\\STM32\\Learning\\STM32H750_ART_PI_RGBLCD" "./packages/paho_mqtt/MQTTPacket/src/MQTTPacket.h"
	.section	.text.MQTTPacket_checkVersion,"ax",%progbits
	.hidden	MQTTPacket_checkVersion         @ -- Begin function MQTTPacket_checkVersion
	.globl	MQTTPacket_checkVersion
	.p2align	3
	.type	MQTTPacket_checkVersion,%function
	.code	16                              @ @MQTTPacket_checkVersion
	.thumb_func
MQTTPacket_checkVersion:
.Lfunc_begin0:
	.file	2 "E:\\STM32\\Learning\\STM32H750_ART_PI_RGBLCD" "packages/paho_mqtt/MQTTPacket/src/MQTTConnectServer.c"
	.loc	2 31 0                          @ packages/paho_mqtt/MQTTPacket/src/MQTTConnectServer.c:31:0
	.fnstart
	.cfi_sections .debug_frame
	.cfi_startproc
@ %bb.0:
	.save	{r7, lr}
	push	{r7, lr}
	.cfi_def_cfa_offset 8
	.cfi_offset lr, -4
	.cfi_offset r7, -8
	.pad	#32
	sub	sp, #32
	.cfi_def_cfa_offset 40
	str	r0, [sp, #28]
	str	r1, [sp, #24]
	movs	r0, #0
.Ltmp0:
	.loc	2 32 6 prologue_end             @ packages/paho_mqtt/MQTTPacket/src/MQTTConnectServer.c:32:6
	str	r0, [sp, #20]
.Ltmp1:
	.loc	2 34 6                          @ packages/paho_mqtt/MQTTPacket/src/MQTTConnectServer.c:34:6
	ldr	r0, [sp, #24]
	.loc	2 34 19 is_stmt 0               @ packages/paho_mqtt/MQTTPacket/src/MQTTConnectServer.c:34:19
	cmp	r0, #3
	bne	.LBB0_6
	b	.LBB0_1
.LBB0_1:
	.loc	2 34 29                         @ packages/paho_mqtt/MQTTPacket/src/MQTTConnectServer.c:34:29
	ldr	r1, [sp, #28]
	.loc	2 35 4 is_stmt 1                @ packages/paho_mqtt/MQTTPacket/src/MQTTConnectServer.c:35:4
	ldr	r0, [r1, #4]
	.loc	2 34 49                         @ packages/paho_mqtt/MQTTPacket/src/MQTTConnectServer.c:34:49
	ldr	r1, [r1, #8]
	.loc	2 35 4                          @ packages/paho_mqtt/MQTTPacket/src/MQTTConnectServer.c:35:4
	str	r1, [sp, #16]                   @ 4-byte Spill
	cmp	r0, #7
	blt	.LBB0_3
	b	.LBB0_2
.LBB0_2:
	.loc	2 0 4 is_stmt 0                 @ packages/paho_mqtt/MQTTPacket/src/MQTTConnectServer.c:0:4
	movs	r0, #6
	.loc	2 35 4                          @ packages/paho_mqtt/MQTTPacket/src/MQTTConnectServer.c:35:4
	str	r0, [sp, #12]                   @ 4-byte Spill
	b	.LBB0_4
.LBB0_3:
	ldr	r0, [sp, #28]
	ldr	r0, [r0, #4]
	str	r0, [sp, #12]                   @ 4-byte Spill
	b	.LBB0_4
.LBB0_4:
	ldr	r0, [sp, #16]                   @ 4-byte Reload
	ldr	r2, [sp, #12]                   @ 4-byte Reload
	.loc	2 34 22 is_stmt 1               @ packages/paho_mqtt/MQTTPacket/src/MQTTConnectServer.c:34:22
	movw	r1, :lower16:.L.str
	movt	r1, :upper16:.L.str
	bl	memcmp
.Ltmp2:
	.loc	2 34 6 is_stmt 0                @ packages/paho_mqtt/MQTTPacket/src/MQTTConnectServer.c:34:6
	cbnz	r0, .LBB0_6
	b	.LBB0_5
.LBB0_5:
	.loc	2 0 6                           @ packages/paho_mqtt/MQTTPacket/src/MQTTConnectServer.c:0:6
	movs	r0, #1
.Ltmp3:
	.loc	2 36 6 is_stmt 1                @ packages/paho_mqtt/MQTTPacket/src/MQTTConnectServer.c:36:6
	str	r0, [sp, #20]
	.loc	2 36 3 is_stmt 0                @ packages/paho_mqtt/MQTTPacket/src/MQTTConnectServer.c:36:3
	b	.LBB0_13
.LBB0_6:
.Ltmp4:
	.loc	2 37 11 is_stmt 1               @ packages/paho_mqtt/MQTTPacket/src/MQTTConnectServer.c:37:11
	ldr	r0, [sp, #24]
	.loc	2 37 24 is_stmt 0               @ packages/paho_mqtt/MQTTPacket/src/MQTTConnectServer.c:37:24
	cmp	r0, #4
	bne	.LBB0_12
	b	.LBB0_7
.LBB0_7:
	.loc	2 37 34                         @ packages/paho_mqtt/MQTTPacket/src/MQTTConnectServer.c:37:34
	ldr	r1, [sp, #28]
	.loc	2 38 4 is_stmt 1                @ packages/paho_mqtt/MQTTPacket/src/MQTTConnectServer.c:38:4
	ldr	r0, [r1, #4]
	.loc	2 37 54                         @ packages/paho_mqtt/MQTTPacket/src/MQTTConnectServer.c:37:54
	ldr	r1, [r1, #8]
	.loc	2 38 4                          @ packages/paho_mqtt/MQTTPacket/src/MQTTConnectServer.c:38:4
	str	r1, [sp, #8]                    @ 4-byte Spill
	cmp	r0, #5
	blt	.LBB0_9
	b	.LBB0_8
.LBB0_8:
	.loc	2 0 4 is_stmt 0                 @ packages/paho_mqtt/MQTTPacket/src/MQTTConnectServer.c:0:4
	movs	r0, #4
	.loc	2 38 4                          @ packages/paho_mqtt/MQTTPacket/src/MQTTConnectServer.c:38:4
	str	r0, [sp, #4]                    @ 4-byte Spill
	b	.LBB0_10
.LBB0_9:
	ldr	r0, [sp, #28]
	ldr	r0, [r0, #4]
	str	r0, [sp, #4]                    @ 4-byte Spill
	b	.LBB0_10
.LBB0_10:
	ldr	r0, [sp, #8]                    @ 4-byte Reload
	ldr	r2, [sp, #4]                    @ 4-byte Reload
	.loc	2 37 27 is_stmt 1               @ packages/paho_mqtt/MQTTPacket/src/MQTTConnectServer.c:37:27
	movw	r1, :lower16:.L.str.1
	movt	r1, :upper16:.L.str.1
	bl	memcmp
.Ltmp5:
	.loc	2 37 11 is_stmt 0               @ packages/paho_mqtt/MQTTPacket/src/MQTTConnectServer.c:37:11
	cbnz	r0, .LBB0_12
	b	.LBB0_11
.LBB0_11:
	.loc	2 0 11                          @ packages/paho_mqtt/MQTTPacket/src/MQTTConnectServer.c:0:11
	movs	r0, #1
.Ltmp6:
	.loc	2 39 6 is_stmt 1                @ packages/paho_mqtt/MQTTPacket/src/MQTTConnectServer.c:39:6
	str	r0, [sp, #20]
	.loc	2 39 3 is_stmt 0                @ packages/paho_mqtt/MQTTPacket/src/MQTTConnectServer.c:39:3
	b	.LBB0_12
.Ltmp7:
.LBB0_12:
	.loc	2 0 3                           @ packages/paho_mqtt/MQTTPacket/src/MQTTConnectServer.c:0:3
	b	.LBB0_13
.LBB0_13:
	.loc	2 40 9 is_stmt 1                @ packages/paho_mqtt/MQTTPacket/src/MQTTConnectServer.c:40:9
	ldr	r0, [sp, #20]
	.loc	2 40 2 is_stmt 0                @ packages/paho_mqtt/MQTTPacket/src/MQTTConnectServer.c:40:2
	add	sp, #32
	pop	{r7, pc}
.Ltmp8:
.Lfunc_end0:
	.size	MQTTPacket_checkVersion, .Lfunc_end0-MQTTPacket_checkVersion
	.cfi_endproc
	.cantunwind
	.fnend
                                        @ -- End function
	.section	.text.MQTTDeserialize_connect,"ax",%progbits
	.hidden	MQTTDeserialize_connect         @ -- Begin function MQTTDeserialize_connect
	.globl	MQTTDeserialize_connect
	.p2align	3
	.type	MQTTDeserialize_connect,%function
	.code	16                              @ @MQTTDeserialize_connect
	.thumb_func
MQTTDeserialize_connect:
.Lfunc_begin1:
	.loc	2 52 0 is_stmt 1                @ packages/paho_mqtt/MQTTPacket/src/MQTTConnectServer.c:52:0
	.fnstart
	.cfi_startproc
@ %bb.0:
	.save	{r7, lr}
	push	{r7, lr}
	.cfi_def_cfa_offset 8
	.cfi_offset lr, -4
	.cfi_offset r7, -8
	.pad	#56
	sub	sp, #56
	.cfi_def_cfa_offset 64
	str	r0, [sp, #52]
	str	r1, [sp, #48]
	str	r2, [sp, #44]
.Ltmp9:
	.loc	2 53 13 prologue_end            @ packages/paho_mqtt/MQTTPacket/src/MQTTConnectServer.c:53:13
	movw	r0, :lower16:.L__const.MQTTDeserialize_connect.header
	movt	r0, :upper16:.L__const.MQTTDeserialize_connect.header
	ldr	r0, [r0]
	str	r0, [sp, #40]
	.loc	2 54 19                         @ packages/paho_mqtt/MQTTPacket/src/MQTTConnectServer.c:54:19
	movw	r0, :lower16:.L__const.MQTTDeserialize_connect.flags
	movt	r0, :upper16:.L__const.MQTTDeserialize_connect.flags
	ldr	r0, [r0]
	str	r0, [sp, #36]
	.loc	2 55 27                         @ packages/paho_mqtt/MQTTPacket/src/MQTTConnectServer.c:55:27
	ldr	r0, [sp, #48]
	.loc	2 55 17 is_stmt 0               @ packages/paho_mqtt/MQTTPacket/src/MQTTConnectServer.c:55:17
	str	r0, [sp, #32]
	.loc	2 56 28 is_stmt 1               @ packages/paho_mqtt/MQTTPacket/src/MQTTConnectServer.c:56:28
	ldr	r0, [sp, #48]
	.loc	2 56 32 is_stmt 0               @ packages/paho_mqtt/MQTTPacket/src/MQTTConnectServer.c:56:32
	ldr	r1, [sp, #44]
	.loc	2 56 28                         @ packages/paho_mqtt/MQTTPacket/src/MQTTConnectServer.c:56:28
	add	r0, r1
	.loc	2 56 17                         @ packages/paho_mqtt/MQTTPacket/src/MQTTConnectServer.c:56:17
	str	r0, [sp, #28]
	movs	r0, #0
	.loc	2 57 6 is_stmt 1                @ packages/paho_mqtt/MQTTPacket/src/MQTTConnectServer.c:57:6
	str	r0, [sp, #24]
	.loc	2 60 6                          @ packages/paho_mqtt/MQTTPacket/src/MQTTConnectServer.c:60:6
	str	r0, [sp, #4]
	add	r0, sp, #32
	.loc	2 63 16                         @ packages/paho_mqtt/MQTTPacket/src/MQTTConnectServer.c:63:16
	bl	readChar
	.loc	2 63 14 is_stmt 0               @ packages/paho_mqtt/MQTTPacket/src/MQTTConnectServer.c:63:14
	strb.w	r0, [sp, #40]
.Ltmp10:
	.loc	2 64 18 is_stmt 1               @ packages/paho_mqtt/MQTTPacket/src/MQTTConnectServer.c:64:18
	ldrb.w	r1, [sp, #40]
	movs	r0, #1
.Ltmp11:
	.loc	2 64 6 is_stmt 0                @ packages/paho_mqtt/MQTTPacket/src/MQTTConnectServer.c:64:6
	cmp.w	r0, r1, lsr #4
	beq	.LBB1_2
	b	.LBB1_1
.LBB1_1:
.Ltmp12:
	.loc	2 65 3 is_stmt 1                @ packages/paho_mqtt/MQTTPacket/src/MQTTConnectServer.c:65:3
	b	.LBB1_27
.Ltmp13:
.LBB1_2:
	.loc	2 67 34                         @ packages/paho_mqtt/MQTTPacket/src/MQTTConnectServer.c:67:34
	ldr	r0, [sp, #32]
	add	r1, sp, #4
	.loc	2 67 13 is_stmt 0               @ packages/paho_mqtt/MQTTPacket/src/MQTTConnectServer.c:67:13
	bl	MQTTPacket_decodeBuf
	mov	r1, r0
	.loc	2 67 10                         @ packages/paho_mqtt/MQTTPacket/src/MQTTConnectServer.c:67:10
	ldr	r0, [sp, #32]
	add	r0, r1
	str	r0, [sp, #32]
.Ltmp14:
	.loc	2 69 46 is_stmt 1               @ packages/paho_mqtt/MQTTPacket/src/MQTTConnectServer.c:69:46
	ldr	r2, [sp, #28]
	add	r0, sp, #12
	add	r1, sp, #32
	.loc	2 69 7 is_stmt 0                @ packages/paho_mqtt/MQTTPacket/src/MQTTConnectServer.c:69:7
	bl	readMQTTLenString
	.loc	2 69 55                         @ packages/paho_mqtt/MQTTPacket/src/MQTTConnectServer.c:69:55
	cbz	r0, .LBB1_4
	b	.LBB1_3
.LBB1_3:
	.loc	2 70 3 is_stmt 1                @ packages/paho_mqtt/MQTTPacket/src/MQTTConnectServer.c:70:3
	ldr	r0, [sp, #28]
	.loc	2 70 13 is_stmt 0               @ packages/paho_mqtt/MQTTPacket/src/MQTTConnectServer.c:70:13
	ldr	r1, [sp, #32]
	.loc	2 70 11                         @ packages/paho_mqtt/MQTTPacket/src/MQTTConnectServer.c:70:11
	subs	r0, r0, r1
.Ltmp15:
	.loc	2 69 6 is_stmt 1                @ packages/paho_mqtt/MQTTPacket/src/MQTTConnectServer.c:69:6
	cmp.w	r0, #-1
	bgt	.LBB1_5
	b	.LBB1_4
.LBB1_4:
.Ltmp16:
	.loc	2 71 3                          @ packages/paho_mqtt/MQTTPacket/src/MQTTConnectServer.c:71:3
	b	.LBB1_27
.Ltmp17:
.LBB1_5:
	.loc	2 0 3 is_stmt 0                 @ packages/paho_mqtt/MQTTPacket/src/MQTTConnectServer.c:0:3
	add	r0, sp, #32
	.loc	2 73 17 is_stmt 1               @ packages/paho_mqtt/MQTTPacket/src/MQTTConnectServer.c:73:17
	bl	readChar
	.loc	2 73 10 is_stmt 0               @ packages/paho_mqtt/MQTTPacket/src/MQTTConnectServer.c:73:10
	str	r0, [sp, #8]
.Ltmp18:
	.loc	2 77 41 is_stmt 1               @ packages/paho_mqtt/MQTTPacket/src/MQTTConnectServer.c:77:41
	ldr	r1, [sp, #8]
	add	r0, sp, #12
	.loc	2 77 6 is_stmt 0                @ packages/paho_mqtt/MQTTPacket/src/MQTTConnectServer.c:77:6
	bl	MQTTPacket_checkVersion
.Ltmp19:
	.loc	2 77 6                          @ packages/paho_mqtt/MQTTPacket/src/MQTTConnectServer.c:77:6
	cmp	r0, #0
	beq	.LBB1_26
	b	.LBB1_6
.LBB1_6:
	.loc	2 0 6                           @ packages/paho_mqtt/MQTTPacket/src/MQTTConnectServer.c:0:6
	add	r0, sp, #32
.Ltmp20:
	.loc	2 79 15 is_stmt 1               @ packages/paho_mqtt/MQTTPacket/src/MQTTConnectServer.c:79:15
	str	r0, [sp]                        @ 4-byte Spill
	bl	readChar
	mov	r1, r0
	.loc	2 79 13 is_stmt 0               @ packages/paho_mqtt/MQTTPacket/src/MQTTConnectServer.c:79:13
	ldr	r0, [sp]                        @ 4-byte Reload
	strb.w	r1, [sp, #36]
	.loc	2 80 35 is_stmt 1               @ packages/paho_mqtt/MQTTPacket/src/MQTTConnectServer.c:80:35
	ldrb.w	r1, [sp, #36]
	ubfx	r1, r1, #1, #1
	.loc	2 80 3 is_stmt 0                @ packages/paho_mqtt/MQTTPacket/src/MQTTConnectServer.c:80:3
	ldr	r2, [sp, #52]
	.loc	2 80 22                         @ packages/paho_mqtt/MQTTPacket/src/MQTTConnectServer.c:80:22
	strb	r1, [r2, #26]
	.loc	2 81 29 is_stmt 1               @ packages/paho_mqtt/MQTTPacket/src/MQTTConnectServer.c:81:29
	bl	readInt
	ldr	r1, [sp]                        @ 4-byte Reload
	.loc	2 81 3 is_stmt 0                @ packages/paho_mqtt/MQTTPacket/src/MQTTConnectServer.c:81:3
	ldr	r2, [sp, #52]
	.loc	2 81 27                         @ packages/paho_mqtt/MQTTPacket/src/MQTTConnectServer.c:81:27
	strh	r0, [r2, #24]
.Ltmp21:
	.loc	2 82 27 is_stmt 1               @ packages/paho_mqtt/MQTTPacket/src/MQTTConnectServer.c:82:27
	ldr	r0, [sp, #52]
	.loc	2 82 33 is_stmt 0               @ packages/paho_mqtt/MQTTPacket/src/MQTTConnectServer.c:82:33
	adds	r0, #12
	.loc	2 82 53                         @ packages/paho_mqtt/MQTTPacket/src/MQTTConnectServer.c:82:53
	ldr	r2, [sp, #28]
	.loc	2 82 8                          @ packages/paho_mqtt/MQTTPacket/src/MQTTConnectServer.c:82:8
	bl	readMQTTLenString
.Ltmp22:
	.loc	2 82 7                          @ packages/paho_mqtt/MQTTPacket/src/MQTTConnectServer.c:82:7
	cbnz	r0, .LBB1_8
	b	.LBB1_7
.LBB1_7:
.Ltmp23:
	.loc	2 83 4 is_stmt 1                @ packages/paho_mqtt/MQTTPacket/src/MQTTConnectServer.c:83:4
	b	.LBB1_27
.Ltmp24:
.LBB1_8:
	.loc	2 84 31                         @ packages/paho_mqtt/MQTTPacket/src/MQTTConnectServer.c:84:31
	ldrb.w	r0, [sp, #36]
	ubfx	r0, r0, #2, #1
	.loc	2 84 3 is_stmt 0                @ packages/paho_mqtt/MQTTPacket/src/MQTTConnectServer.c:84:3
	ldr	r1, [sp, #52]
	.loc	2 84 18                         @ packages/paho_mqtt/MQTTPacket/src/MQTTConnectServer.c:84:18
	strb	r0, [r1, #27]
.Ltmp25:
	.loc	2 85 18 is_stmt 1               @ packages/paho_mqtt/MQTTPacket/src/MQTTConnectServer.c:85:18
	ldrb.w	r0, [sp, #36]
	lsrs	r0, r0, #2
.Ltmp26:
	.loc	2 85 7 is_stmt 0                @ packages/paho_mqtt/MQTTPacket/src/MQTTConnectServer.c:85:7
	lsls	r0, r0, #31
	cbz	r0, .LBB1_13
	b	.LBB1_9
.LBB1_9:
.Ltmp27:
	.loc	2 87 32 is_stmt 1               @ packages/paho_mqtt/MQTTPacket/src/MQTTConnectServer.c:87:32
	ldrb.w	r0, [sp, #36]
	ubfx	r0, r0, #3, #2
	.loc	2 87 4 is_stmt 0                @ packages/paho_mqtt/MQTTPacket/src/MQTTConnectServer.c:87:4
	ldr	r1, [sp, #52]
	.loc	2 87 19                         @ packages/paho_mqtt/MQTTPacket/src/MQTTConnectServer.c:87:19
	strb.w	r0, [r1, #61]
	.loc	2 88 37 is_stmt 1               @ packages/paho_mqtt/MQTTPacket/src/MQTTConnectServer.c:88:37
	ldrb.w	r0, [sp, #36]
	ubfx	r0, r0, #5, #1
	.loc	2 88 4 is_stmt 0                @ packages/paho_mqtt/MQTTPacket/src/MQTTConnectServer.c:88:4
	ldr	r1, [sp, #52]
	.loc	2 88 24                         @ packages/paho_mqtt/MQTTPacket/src/MQTTConnectServer.c:88:24
	strb.w	r0, [r1, #60]
.Ltmp28:
	.loc	2 89 28 is_stmt 1               @ packages/paho_mqtt/MQTTPacket/src/MQTTConnectServer.c:89:28
	ldr	r0, [sp, #52]
	.loc	2 89 39 is_stmt 0               @ packages/paho_mqtt/MQTTPacket/src/MQTTConnectServer.c:89:39
	adds	r0, #36
	.loc	2 89 60                         @ packages/paho_mqtt/MQTTPacket/src/MQTTConnectServer.c:89:60
	ldr	r2, [sp, #28]
	add	r1, sp, #32
	.loc	2 89 9                          @ packages/paho_mqtt/MQTTPacket/src/MQTTConnectServer.c:89:9
	bl	readMQTTLenString
	.loc	2 89 69                         @ packages/paho_mqtt/MQTTPacket/src/MQTTConnectServer.c:89:69
	cbz	r0, .LBB1_11
	b	.LBB1_10
.LBB1_10:
	.loc	2 90 27 is_stmt 1               @ packages/paho_mqtt/MQTTPacket/src/MQTTConnectServer.c:90:27
	ldr	r0, [sp, #52]
	.loc	2 90 38 is_stmt 0               @ packages/paho_mqtt/MQTTPacket/src/MQTTConnectServer.c:90:38
	adds	r0, #48
	.loc	2 90 57                         @ packages/paho_mqtt/MQTTPacket/src/MQTTConnectServer.c:90:57
	ldr	r2, [sp, #28]
	add	r1, sp, #32
	.loc	2 90 8                          @ packages/paho_mqtt/MQTTPacket/src/MQTTConnectServer.c:90:8
	bl	readMQTTLenString
.Ltmp29:
	.loc	2 89 8 is_stmt 1                @ packages/paho_mqtt/MQTTPacket/src/MQTTConnectServer.c:89:8
	cbnz	r0, .LBB1_12
	b	.LBB1_11
.LBB1_11:
.Ltmp30:
	.loc	2 91 5                          @ packages/paho_mqtt/MQTTPacket/src/MQTTConnectServer.c:91:5
	b	.LBB1_27
.Ltmp31:
.LBB1_12:
	.loc	2 92 3                          @ packages/paho_mqtt/MQTTPacket/src/MQTTConnectServer.c:92:3
	b	.LBB1_13
.Ltmp32:
.LBB1_13:
	.loc	2 93 18                         @ packages/paho_mqtt/MQTTPacket/src/MQTTConnectServer.c:93:18
	ldrb.w	r1, [sp, #36]
	movs	r0, #0
.Ltmp33:
	.loc	2 93 7 is_stmt 0                @ packages/paho_mqtt/MQTTPacket/src/MQTTConnectServer.c:93:7
	cmp.w	r0, r1, lsr #7
	beq	.LBB1_22
	b	.LBB1_14
.LBB1_14:
.Ltmp34:
	.loc	2 95 8 is_stmt 1                @ packages/paho_mqtt/MQTTPacket/src/MQTTConnectServer.c:95:8
	ldr	r0, [sp, #28]
	.loc	2 95 18 is_stmt 0               @ packages/paho_mqtt/MQTTPacket/src/MQTTConnectServer.c:95:18
	ldr	r1, [sp, #32]
	.loc	2 95 16                         @ packages/paho_mqtt/MQTTPacket/src/MQTTConnectServer.c:95:16
	subs	r0, r0, r1
	.loc	2 95 30                         @ packages/paho_mqtt/MQTTPacket/src/MQTTConnectServer.c:95:30
	cmp	r0, #3
	blt	.LBB1_16
	b	.LBB1_15
.LBB1_15:
	.loc	2 95 53                         @ packages/paho_mqtt/MQTTPacket/src/MQTTConnectServer.c:95:53
	ldr	r0, [sp, #52]
	.loc	2 95 59                         @ packages/paho_mqtt/MQTTPacket/src/MQTTConnectServer.c:95:59
	adds	r0, #64
	.loc	2 95 79                         @ packages/paho_mqtt/MQTTPacket/src/MQTTConnectServer.c:95:79
	ldr	r2, [sp, #28]
	add	r1, sp, #32
	.loc	2 95 34                         @ packages/paho_mqtt/MQTTPacket/src/MQTTConnectServer.c:95:34
	bl	readMQTTLenString
.Ltmp35:
	.loc	2 95 8                          @ packages/paho_mqtt/MQTTPacket/src/MQTTConnectServer.c:95:8
	cbnz	r0, .LBB1_17
	b	.LBB1_16
.LBB1_16:
.Ltmp36:
	.loc	2 96 5 is_stmt 1                @ packages/paho_mqtt/MQTTPacket/src/MQTTConnectServer.c:96:5
	b	.LBB1_27
.Ltmp37:
.LBB1_17:
	.loc	2 97 19                         @ packages/paho_mqtt/MQTTPacket/src/MQTTConnectServer.c:97:19
	ldrb.w	r0, [sp, #36]
	lsrs	r0, r0, #6
	.loc	2 97 28 is_stmt 0               @ packages/paho_mqtt/MQTTPacket/src/MQTTConnectServer.c:97:28
	lsls	r0, r0, #31
	cbz	r0, .LBB1_21
	b	.LBB1_18
.LBB1_18:
	.loc	2 98 6 is_stmt 1                @ packages/paho_mqtt/MQTTPacket/src/MQTTConnectServer.c:98:6
	ldr	r0, [sp, #28]
	.loc	2 98 16 is_stmt 0               @ packages/paho_mqtt/MQTTPacket/src/MQTTConnectServer.c:98:16
	ldr	r1, [sp, #32]
	.loc	2 98 14                         @ packages/paho_mqtt/MQTTPacket/src/MQTTConnectServer.c:98:14
	subs	r0, r0, r1
	.loc	2 98 28                         @ packages/paho_mqtt/MQTTPacket/src/MQTTConnectServer.c:98:28
	cmp	r0, #3
	blt	.LBB1_20
	b	.LBB1_19
.LBB1_19:
	.loc	2 98 51                         @ packages/paho_mqtt/MQTTPacket/src/MQTTConnectServer.c:98:51
	ldr	r0, [sp, #52]
	.loc	2 98 57                         @ packages/paho_mqtt/MQTTPacket/src/MQTTConnectServer.c:98:57
	adds	r0, #76
	.loc	2 98 77                         @ packages/paho_mqtt/MQTTPacket/src/MQTTConnectServer.c:98:77
	ldr	r2, [sp, #28]
	add	r1, sp, #32
	.loc	2 98 32                         @ packages/paho_mqtt/MQTTPacket/src/MQTTConnectServer.c:98:32
	bl	readMQTTLenString
.Ltmp38:
	.loc	2 97 8 is_stmt 1                @ packages/paho_mqtt/MQTTPacket/src/MQTTConnectServer.c:97:8
	cbnz	r0, .LBB1_21
	b	.LBB1_20
.LBB1_20:
.Ltmp39:
	.loc	2 99 5                          @ packages/paho_mqtt/MQTTPacket/src/MQTTConnectServer.c:99:5
	b	.LBB1_27
.Ltmp40:
.LBB1_21:
	.loc	2 100 3                         @ packages/paho_mqtt/MQTTPacket/src/MQTTConnectServer.c:100:3
	b	.LBB1_25
.Ltmp41:
.LBB1_22:
	.loc	2 101 23                        @ packages/paho_mqtt/MQTTPacket/src/MQTTConnectServer.c:101:23
	ldrb.w	r0, [sp, #36]
	lsrs	r0, r0, #6
.Ltmp42:
	.loc	2 101 12 is_stmt 0              @ packages/paho_mqtt/MQTTPacket/src/MQTTConnectServer.c:101:12
	lsls	r0, r0, #31
	cbz	r0, .LBB1_24
	b	.LBB1_23
.LBB1_23:
.Ltmp43:
	.loc	2 102 4 is_stmt 1               @ packages/paho_mqtt/MQTTPacket/src/MQTTConnectServer.c:102:4
	b	.LBB1_27
.Ltmp44:
.LBB1_24:
	.loc	2 0 4 is_stmt 0                 @ packages/paho_mqtt/MQTTPacket/src/MQTTConnectServer.c:0:4
	b	.LBB1_25
.LBB1_25:
	movs	r0, #1
	.loc	2 103 6 is_stmt 1               @ packages/paho_mqtt/MQTTPacket/src/MQTTConnectServer.c:103:6
	str	r0, [sp, #24]
	.loc	2 104 2                         @ packages/paho_mqtt/MQTTPacket/src/MQTTConnectServer.c:104:2
	b	.LBB1_26
.Ltmp45:
.LBB1_26:
	.loc	2 77 48                         @ packages/paho_mqtt/MQTTPacket/src/MQTTConnectServer.c:77:48
	b	.LBB1_27
.Ltmp46:
.LBB1_27:
	@DEBUG_LABEL: MQTTDeserialize_connect:exit
	.loc	2 107 9                         @ packages/paho_mqtt/MQTTPacket/src/MQTTConnectServer.c:107:9
	ldr	r0, [sp, #24]
	.loc	2 107 2 is_stmt 0               @ packages/paho_mqtt/MQTTPacket/src/MQTTConnectServer.c:107:2
	add	sp, #56
	pop	{r7, pc}
.Ltmp47:
.Lfunc_end1:
	.size	MQTTDeserialize_connect, .Lfunc_end1-MQTTDeserialize_connect
	.cfi_endproc
	.cantunwind
	.fnend
                                        @ -- End function
	.section	.text.MQTTSerialize_connack,"ax",%progbits
	.hidden	MQTTSerialize_connack           @ -- Begin function MQTTSerialize_connack
	.globl	MQTTSerialize_connack
	.p2align	3
	.type	MQTTSerialize_connack,%function
	.code	16                              @ @MQTTSerialize_connack
	.thumb_func
MQTTSerialize_connack:
.Lfunc_begin2:
	.loc	2 120 0 is_stmt 1               @ packages/paho_mqtt/MQTTPacket/src/MQTTConnectServer.c:120:0
	.fnstart
	.cfi_startproc
@ %bb.0:
	.save	{r7, lr}
	push	{r7, lr}
	.cfi_def_cfa_offset 8
	.cfi_offset lr, -4
	.cfi_offset r7, -8
	.pad	#40
	sub	sp, #40
	.cfi_def_cfa_offset 48
                                        @ kill: def $r12 killed $r3
                                        @ kill: def $r12 killed $r2
	str	r0, [sp, #36]
	str	r1, [sp, #32]
	strb.w	r2, [sp, #31]
	strb.w	r3, [sp, #30]
.Ltmp48:
	.loc	2 121 13 prologue_end           @ packages/paho_mqtt/MQTTPacket/src/MQTTConnectServer.c:121:13
	movw	r0, :lower16:.L__const.MQTTSerialize_connack.header
	movt	r0, :upper16:.L__const.MQTTSerialize_connack.header
	ldr	r0, [r0]
	str	r0, [sp, #24]
	movs	r0, #0
	.loc	2 122 6                         @ packages/paho_mqtt/MQTTPacket/src/MQTTConnectServer.c:122:6
	str	r0, [sp, #20]
	.loc	2 123 23                        @ packages/paho_mqtt/MQTTPacket/src/MQTTConnectServer.c:123:23
	ldr	r0, [sp, #36]
	.loc	2 123 17 is_stmt 0              @ packages/paho_mqtt/MQTTPacket/src/MQTTConnectServer.c:123:17
	str	r0, [sp, #16]
	.loc	2 124 19 is_stmt 1              @ packages/paho_mqtt/MQTTPacket/src/MQTTConnectServer.c:124:19
	movw	r0, :lower16:.L__const.MQTTSerialize_connack.flags
	movt	r0, :upper16:.L__const.MQTTSerialize_connack.flags
	ldr	r0, [r0]
	str	r0, [sp, #12]
.Ltmp49:
	.loc	2 127 6                         @ packages/paho_mqtt/MQTTPacket/src/MQTTConnectServer.c:127:6
	ldr	r0, [sp, #32]
.Ltmp50:
	.loc	2 127 6 is_stmt 0               @ packages/paho_mqtt/MQTTPacket/src/MQTTConnectServer.c:127:6
	cmp	r0, #1
	bgt	.LBB2_2
	b	.LBB2_1
.LBB2_1:
	.loc	2 0 6                           @ packages/paho_mqtt/MQTTPacket/src/MQTTConnectServer.c:0:6
	mvn	r0, #1
.Ltmp51:
	.loc	2 129 6 is_stmt 1               @ packages/paho_mqtt/MQTTPacket/src/MQTTConnectServer.c:129:6
	str	r0, [sp, #20]
	.loc	2 130 3                         @ packages/paho_mqtt/MQTTPacket/src/MQTTConnectServer.c:130:3
	b	.LBB2_3
.Ltmp52:
.LBB2_2:
	.loc	2 0 3 is_stmt 0                 @ packages/paho_mqtt/MQTTPacket/src/MQTTConnectServer.c:0:3
	movs	r0, #0
	.loc	2 132 14 is_stmt 1              @ packages/paho_mqtt/MQTTPacket/src/MQTTConnectServer.c:132:14
	str	r0, [sp, #4]                    @ 4-byte Spill
	strb.w	r0, [sp, #24]
	.loc	2 133 19                        @ packages/paho_mqtt/MQTTPacket/src/MQTTConnectServer.c:133:19
	ldrb.w	r0, [sp, #24]
	movs	r1, #2
	str	r1, [sp]                        @ 4-byte Spill
	bfi	r0, r1, #4, #28
	strb.w	r0, [sp, #24]
	.loc	2 134 25                        @ packages/paho_mqtt/MQTTPacket/src/MQTTConnectServer.c:134:25
	ldrsb.w	r1, [sp, #24]
	add	r0, sp, #16
	.loc	2 134 2 is_stmt 0               @ packages/paho_mqtt/MQTTPacket/src/MQTTConnectServer.c:134:2
	str	r0, [sp, #8]                    @ 4-byte Spill
	bl	writeChar
	ldr	r1, [sp]                        @ 4-byte Reload
	.loc	2 136 27 is_stmt 1              @ packages/paho_mqtt/MQTTPacket/src/MQTTConnectServer.c:136:27
	ldr	r0, [sp, #16]
	.loc	2 136 9 is_stmt 0               @ packages/paho_mqtt/MQTTPacket/src/MQTTConnectServer.c:136:9
	bl	MQTTPacket_encode
	ldr	r1, [sp, #4]                    @ 4-byte Reload
	mov	r3, r0
	.loc	2 136 6                         @ packages/paho_mqtt/MQTTPacket/src/MQTTConnectServer.c:136:6
	ldr	r0, [sp, #8]                    @ 4-byte Reload
	ldr	r2, [sp, #16]
	add	r2, r3
	str	r2, [sp, #16]
	.loc	2 138 12 is_stmt 1              @ packages/paho_mqtt/MQTTPacket/src/MQTTConnectServer.c:138:12
	strb.w	r1, [sp, #12]
	.loc	2 139 30                        @ packages/paho_mqtt/MQTTPacket/src/MQTTConnectServer.c:139:30
	ldrb.w	r2, [sp, #30]
	.loc	2 139 28 is_stmt 0              @ packages/paho_mqtt/MQTTPacket/src/MQTTConnectServer.c:139:28
	ldrb.w	r1, [sp, #12]
	and	r2, r2, #1
	and	r1, r1, #254
	add	r1, r2
	strb.w	r1, [sp, #12]
	.loc	2 140 24 is_stmt 1              @ packages/paho_mqtt/MQTTPacket/src/MQTTConnectServer.c:140:24
	ldrsb.w	r1, [sp, #12]
	.loc	2 140 2 is_stmt 0               @ packages/paho_mqtt/MQTTPacket/src/MQTTConnectServer.c:140:2
	bl	writeChar
	ldr	r0, [sp, #8]                    @ 4-byte Reload
	.loc	2 141 18 is_stmt 1              @ packages/paho_mqtt/MQTTPacket/src/MQTTConnectServer.c:141:18
	ldrsb.w	r1, [sp, #31]
	.loc	2 141 2 is_stmt 0               @ packages/paho_mqtt/MQTTPacket/src/MQTTConnectServer.c:141:2
	bl	writeChar
	.loc	2 143 7 is_stmt 1               @ packages/paho_mqtt/MQTTPacket/src/MQTTConnectServer.c:143:7
	ldr	r0, [sp, #16]
	.loc	2 143 13 is_stmt 0              @ packages/paho_mqtt/MQTTPacket/src/MQTTConnectServer.c:143:13
	ldr	r1, [sp, #36]
	.loc	2 143 11                        @ packages/paho_mqtt/MQTTPacket/src/MQTTConnectServer.c:143:11
	subs	r0, r0, r1
	.loc	2 143 5                         @ packages/paho_mqtt/MQTTPacket/src/MQTTConnectServer.c:143:5
	str	r0, [sp, #20]
	.loc	2 143 2                         @ packages/paho_mqtt/MQTTPacket/src/MQTTConnectServer.c:143:2
	b	.LBB2_3
.LBB2_3:
.Ltmp53:
	@DEBUG_LABEL: MQTTSerialize_connack:exit
	.loc	2 146 9 is_stmt 1               @ packages/paho_mqtt/MQTTPacket/src/MQTTConnectServer.c:146:9
	ldr	r0, [sp, #20]
	.loc	2 146 2 is_stmt 0               @ packages/paho_mqtt/MQTTPacket/src/MQTTConnectServer.c:146:2
	add	sp, #40
	pop	{r7, pc}
.Ltmp54:
.Lfunc_end2:
	.size	MQTTSerialize_connack, .Lfunc_end2-MQTTSerialize_connack
	.cfi_endproc
	.cantunwind
	.fnend
                                        @ -- End function
	.type	.L.str,%object                  @ @.str
	.section	.rodata.str1.1,"aMS",%progbits,1
.L.str:
	.asciz	"MQIsdp"
	.size	.L.str, 7

	.type	.L.str.1,%object                @ @.str.1
.L.str.1:
	.asciz	"MQTT"
	.size	.L.str.1, 5

	.type	.L__const.MQTTDeserialize_connect.header,%object @ @__const.MQTTDeserialize_connect.header
	.section	.rodata.cst4,"aM",%progbits,4
	.p2align	2
.L__const.MQTTDeserialize_connect.header:
	.byte	0                               @ 0x0
	.zero	3
	.size	.L__const.MQTTDeserialize_connect.header, 4

	.type	.L__const.MQTTDeserialize_connect.flags,%object @ @__const.MQTTDeserialize_connect.flags
	.p2align	2
.L__const.MQTTDeserialize_connect.flags:
	.byte	0                               @ 0x0
	.zero	3
	.size	.L__const.MQTTDeserialize_connect.flags, 4

	.type	.L__const.MQTTSerialize_connack.header,%object @ @__const.MQTTSerialize_connack.header
	.p2align	2
.L__const.MQTTSerialize_connack.header:
	.byte	0                               @ 0x0
	.zero	3
	.size	.L__const.MQTTSerialize_connack.header, 4

	.type	.L__const.MQTTSerialize_connack.flags,%object @ @__const.MQTTSerialize_connack.flags
	.p2align	2
.L__const.MQTTSerialize_connack.flags:
	.byte	0                               @ 0x0
	.zero	3
	.size	.L__const.MQTTSerialize_connack.flags, 4

	.file	3 "E:\\STM32\\Learning\\STM32H750_ART_PI_RGBLCD" "./packages/paho_mqtt/MQTTPacket/src/MQTTConnect.h"
	.section	".note.GNU-stack","",%progbits
	.eabi_attribute	30, 6	@ Tag_ABI_optimization_goals
	.ARM_attribute	16, 1	@ Tag_AV_eba