	.text
	.syntax unified
	.eabi_attribute	67, "2.09"	@ Tag_conformance
	.cpu	cortex-m7
	.eabi_attribute	6, 13	@ Tag_CPU_arch
	.eabi_attribute	7, 77	@ Tag_CPU_arch_profile
	.eabi_attribute	8, 0	@ Tag_ARM_ISA_use
	.eabi_attribute	9, 2	@ Tag_THUMB_ISA_use
	.fpu	fpv5-d16
	.eabi_attribute	36, 1	@ Tag_FP_HP_extension
	.eabi_attribute	34, 1	@ Tag_CPU_unaligned_access
	.eabi_attribute	17, 1	@ Tag_ABI_PCS_GOT_use
	.eabi_attribute	20, 2	@ Tag_ABI_FP_denormal
	.eabi_attribute	21, 0	@ Tag_ABI_FP_exceptions
	.eabi_attribute	23, 1	@ Tag_ABI_FP_number_model
	.eabi_attribute	24, 1	@ Tag_ABI_align_needed
	.eabi_attribute	25, 1	@ Tag_ABI_align_preserved
	.eabi_attribute	28, 1	@ Tag_ABI_VFP_args
	.eabi_attribute	38, 1	@ Tag_ABI_FP_16bit_format
	.eabi_attribute	18, 2	@ Tag_ABI_PCS_wchar_t
	.eabi_attribute	26, 1	@ Tag_ABI_enum_size
	.eabi_attribute	14, 0	@ Tag_ABI_PCS_R9_use
	.file	"msh.c"
	.file	1 "E:\\Smart-access-control\\Hardware\\CODE" "rt-thread/components/finsh/msh.c"
	.file	2 "E:\\Smart-access-control\\Hardware\\CODE" "rt-thread/components/finsh/finsh_api.h"
	.file	3 "E:\\Smart-access-control\\Hardware\\CODE" "rt-thread/include\\rtdef.h"
	.section	.text.msh_is_used,"ax",%progbits
	.hidden	msh_is_used                     @ -- Begin function msh_is_used
	.globl	msh_is_used
	.p2align	3
	.type	msh_is_used,%function
	.code	16                              @ @msh_is_used
	.thumb_func
msh_is_used:
.Lfunc_begin0:
	.loc	1 47 0                          @ rt-thread/components/finsh/msh.c:47:0
	.fnstart
	.cfi_sections .debug_frame
	.cfi_startproc
@ %bb.0:
	.loc	1 48 12 prologue_end            @ rt-thread/components/finsh/msh.c:48:12
	movw	r0, :lower16:__msh_state
	movt	r0, :upper16:__msh_state
	ldrb	r0, [r0]
	eor	r0, r0, #1
	.loc	1 48 5 is_stmt 0                @ rt-thread/components/finsh/msh.c:48:5
	bx	lr
.Ltmp0:
.Lfunc_end0:
	.size	msh_is_used, .Lfunc_end0-msh_is_used
	.cfi_endproc
	.cantunwind
	.fnend
                                        @ -- End function
	.section	.text.msh_exit,"ax",%progbits
	.p2align	3                               @ -- Begin function msh_exit
	.type	msh_exit,%function
	.code	16                              @ @msh_exit
	.thumb_func
msh_exit:
.Lfunc_begin1:
	.loc	1 52 0 is_stmt 1                @ rt-thread/components/finsh/msh.c:52:0
	.fnstart
	.cfi_startproc
@ %bb.0:
	@DEBUG_VALUE: msh_exit:argc <- $r0
	@DEBUG_VALUE: msh_exit:argv <- $r1
	.loc	1 54 17 prologue_end            @ rt-thread/components/finsh/msh.c:54:17
	movw	r1, :lower16:__msh_state
.Ltmp1:
	@DEBUG_VALUE: msh_exit:argv <- [DW_OP_LLVM_entry_value 1] $r1
	.loc	1 55 5                          @ rt-thread/components/finsh/msh.c:55:5
	movs	r0, #0
.Ltmp2:
	@DEBUG_VALUE: msh_exit:argc <- [DW_OP_LLVM_entry_value 1] $r0
	.loc	1 54 17                         @ rt-thread/components/finsh/msh.c:54:17
	movt	r1, :upper16:__msh_state
	movs	r2, #1
	strb	r2, [r1]
	.loc	1 55 5                          @ rt-thread/components/finsh/msh.c:55:5
	bx	lr
.Ltmp3:
.Lfunc_end1:
	.size	msh_exit, .Lfunc_end1-msh_exit
	.cfi_endproc
	.cantunwind
	.fnend
                                        @ -- End function
	.section	.text.msh_enter,"ax",%progbits
	.p2align	3                               @ -- Begin function msh_enter
	.type	msh_enter,%function
	.code	16                              @ @msh_enter
	.thumb_func
msh_enter:
.Lfunc_begin2:
	.loc	1 60 0                          @ rt-thread/components/finsh/msh.c:60:0
	.fnstart
	.cfi_startproc
@ %bb.0:
	.loc	1 62 17 prologue_end            @ rt-thread/components/finsh/msh.c:62:17
	movw	r1, :lower16:__msh_state
	.loc	1 63 5                          @ rt-thread/components/finsh/msh.c:63:5
	movs	r0, #0
	.loc	1 62 17                         @ rt-thread/components/finsh/msh.c:62:17
	movt	r1, :upper16:__msh_state
	movs	r2, #0
	strb	r2, [r1]
	.loc	1 63 5                          @ rt-thread/components/finsh/msh.c:63:5
	bx	lr
.Ltmp4:
.Lfunc_end2:
	.size	msh_enter, .Lfunc_end2-msh_enter
	.cfi_endproc
	.cantunwind
	.fnend
                                        @ -- End function
	.section	.text.msh_help,"ax",%progbits
	.hidden	msh_help                        @ -- Begin function msh_help
	.globl	msh_help
	.p2align	3
	.type	msh_help,%function
	.code	16                              @ @msh_help
	.thumb_func
msh_help:
.Lfunc_begin3:
	.loc	1 69 0                          @ rt-thread/components/finsh/msh.c:69:0
	.fnstart
	.cfi_startproc
@ %bb.0:
	@DEBUG_VALUE: msh_help:argc <- undef
	@DEBUG_VALUE: msh_help:argv <- undef
	.save	{r4, r5, r6, r7, r8, lr}
	push.w	{r4, r5, r6, r7, r8, lr}
	.cfi_def_cfa_offset 24
	.cfi_offset lr, -4
	.cfi_offset r8, -8
	.cfi_offset r7, -12
	.cfi_offset r6, -16
	.cfi_offset r5, -20
	.cfi_offset r4, -24
.Ltmp5:
	.loc	1 70 5 prologue_end             @ rt-thread/components/finsh/msh.c:70:5
	adr	r0, .LCPI3_0
	bl	rt_kprintf
.Ltmp6:
	.loc	1 74 22                         @ rt-thread/components/finsh/msh.c:74:22
	movw	r0, :lower16:_syscall_table_begin
.Ltmp7:
	.loc	1 75 25                         @ rt-thread/components/finsh/msh.c:75:25
	movw	r7, :lower16:_syscall_table_end
.Ltmp8:
	.loc	1 74 22                         @ rt-thread/components/finsh/msh.c:74:22
	movt	r0, :upper16:_syscall_table_begin
.Ltmp9:
	.loc	1 75 25                         @ rt-thread/components/finsh/msh.c:75:25
	movt	r7, :upper16:_syscall_table_end
.Ltmp10:
	.loc	1 74 22                         @ rt-thread/components/finsh/msh.c:74:22
	ldr	r5, [r0]
.Ltmp11:
	@DEBUG_VALUE: index <- $r5
	.loc	1 75 25                         @ rt-thread/components/finsh/msh.c:75:25
	ldr	r0, [r7]
.Ltmp12:
	.loc	1 74 9                          @ rt-thread/components/finsh/msh.c:74:9
	cmp	r5, r0
	bhs	.LBB3_5
.Ltmp13:
@ %bb.1:
	@DEBUG_VALUE: index <- $r5
	.loc	1 0 9 is_stmt 0                 @ rt-thread/components/finsh/msh.c:0:9
	movw	r4, :lower16:.L.str.1
	adr.w	r8, .LCPI3_1
	movt	r4, :upper16:.L.str.1
	b	.LBB3_3
.Ltmp14:
	.p2align	2
.LBB3_2:                                @   in Loop: Header=BB3_3 Depth=1
	@DEBUG_VALUE: index <- $r5
	.loc	1 76 17 is_stmt 1               @ rt-thread/components/finsh/msh.c:76:17
	adds	r5, #12
.Ltmp15:
	@DEBUG_VALUE: index <- $r5
	.loc	1 75 25                         @ rt-thread/components/finsh/msh.c:75:25
	ldr	r0, [r7]
.Ltmp16:
	.loc	1 74 9                          @ rt-thread/components/finsh/msh.c:74:9
	cmp	r5, r0
	bhs	.LBB3_5
.Ltmp17:
.LBB3_3:                                @ =>This Inner Loop Header: Depth=1
	@DEBUG_VALUE: index <- $r5
	@DEBUG_VALUE: index <- $r5
	.loc	1 78 32                         @ rt-thread/components/finsh/msh.c:78:32
	ldr	r6, [r5]
	.loc	1 78 17 is_stmt 0               @ rt-thread/components/finsh/msh.c:78:17
	movs	r2, #6
	mov	r0, r6
	mov	r1, r4
	bl	strncmp
.Ltmp18:
	.loc	1 78 17                         @ rt-thread/components/finsh/msh.c:78:17
	cmp	r0, #0
	bne	.LBB3_2
.Ltmp19:
@ %bb.4:                                @   in Loop: Header=BB3_3 Depth=1
	@DEBUG_VALUE: index <- $r5
	.loc	1 80 41 is_stmt 1               @ rt-thread/components/finsh/msh.c:80:41
	adds	r1, r6, #6
	.loc	1 80 64 is_stmt 0               @ rt-thread/components/finsh/msh.c:80:64
	ldr	r2, [r5, #4]
	.loc	1 80 13                         @ rt-thread/components/finsh/msh.c:80:13
	mov	r0, r8
	bl	rt_kprintf
	b	.LBB3_2
.Ltmp20:
.LBB3_5:
	.loc	1 86 5 is_stmt 1                @ rt-thread/components/finsh/msh.c:86:5
	movw	r0, :lower16:.L.str.3
	movt	r0, :upper16:.L.str.3
	bl	rt_kprintf
	.loc	1 88 5                          @ rt-thread/components/finsh/msh.c:88:5
	movs	r0, #0
	pop.w	{r4, r5, r6, r7, r8, pc}
.Ltmp21:
	.p2align	2
@ %bb.6:
	.loc	1 0 5 is_stmt 0                 @ rt-thread/components/finsh/msh.c:0:5
.LCPI3_0:
.L.str:
	.asciz	"RT-Thread shell commands:\n\000"
.LCPI3_1:
.L.str.2:
	.asciz	"%-16s - %s\n"
.Lfunc_end3:
	.size	msh_help, .Lfunc_end3-msh_help
	.cfi_endproc
	.cantunwind
	.fnend
                                        @ -- End function
	.section	.text.cmd_ps,"ax",%progbits
	.hidden	cmd_ps                          @ -- Begin function cmd_ps
	.globl	cmd_ps
	.p2align	3
	.type	cmd_ps,%function
	.code	16                              @ @cmd_ps
	.thumb_func
cmd_ps:
.Lfunc_begin4:
	.loc	1 93 0 is_stmt 1                @ rt-thread/components/finsh/msh.c:93:0
	.fnstart
	.cfi_startproc
@ %bb.0:
	@DEBUG_VALUE: cmd_ps:argc <- undef
	@DEBUG_VALUE: cmd_ps:argv <- undef
	.save	{r7, lr}
	push	{r7, lr}
	.cfi_def_cfa_offset 8
	.cfi_offset lr, -4
	.cfi_offset r7, -8
.Ltmp22:
	.loc	1 102 9 prologue_end            @ rt-thread/components/finsh/msh.c:102:9
	bl	list_thread
	.loc	1 103 5                         @ rt-thread/components/finsh/msh.c:103:5
	movs	r0, #0
	pop	{r7, pc}
.Ltmp23:
.Lfunc_end4:
	.size	cmd_ps, .Lfunc_end4-cmd_ps
	.cfi_endproc
	.cantunwind
	.fnend
                                        @ -- End function
	.section	.text.cmd_free,"ax",%progbits
	.hidden	cmd_free                        @ -- Begin function cmd_free
	.globl	cmd_free
	.p2align	3
	.type	cmd_free,%function
	.code	16                              @ @cmd_free
	.thumb_func
cmd_free:
.Lfunc_begin5:
	.loc	1 109 0                         @ rt-thread/components/finsh/msh.c:109:0
	.fnstart
	.cfi_startproc
@ %bb.0:
	@DEBUG_VALUE: cmd_free:argc <- undef
	@DEBUG_VALUE: cmd_free:argv <- undef
	.save	{r7, lr}
	push	{r7, lr}
	.cfi_def_cfa_offset 8
	.cfi_offset lr, -4
	.cfi_offset r7, -8
.Ltmp24:
	.loc	1 114 5 prologue_end            @ rt-thread/components/finsh/msh.c:114:5
	bl	list_memheap
	.loc	1 118 5                         @ rt-thread/components/finsh/msh.c:118:5
	movs	r0, #0
	pop	{r7, pc}
.Ltmp25:
.Lfunc_end5:
	.size	cmd_free, .Lfunc_end5-cmd_free
	.cfi_endproc
	.cantunwind
	.fnend
                                        @ -- End function
	.section	.text.msh_exec,"ax",%progbits
	.hidden	msh_exec                        @ -- Begin function msh_exec
	.globl	msh_exec
	.p2align	3
	.type	msh_exec,%function
	.code	16                              @ @msh_exec
	.thumb_func
msh_exec:
.Lfunc_begin6:
	.loc	1 373 0                         @ rt-thread/components/finsh/msh.c:373:0
	.fnstart
	.cfi_startproc
@ %bb.0:
	@DEBUG_VALUE: msh_exec:cmd <- $r0
	@DEBUG_VALUE: msh_exec:length <- $r1
	.save	{r4, r5, r7, lr}
	push	{r4, r5, r7, lr}
	.cfi_def_cfa_offset 16
	.cfi_offset lr, -4
	.cfi_offset r7, -8
	.cfi_offset r5, -12
	.cfi_offset r4, -16
	.pad	#8
	sub	sp, #8
	.cfi_def_cfa_offset 24
	mov	r5, r1
.Ltmp26:
	@DEBUG_VALUE: msh_exec:length <- $r5
	mov	r4, r0
.Ltmp27:
	@DEBUG_VALUE: msh_exec:cmd <- $r4
	@DEBUG_VALUE: msh_exec:length <- $r5
	@DEBUG_VALUE: msh_exec:cmd <- $r4
	b	.LBB6_2
.Ltmp28:
	.p2align	2
.LBB6_1:                                @   in Loop: Header=BB6_2 Depth=1
	@DEBUG_VALUE: msh_exec:length <- $r5
	@DEBUG_VALUE: msh_exec:cmd <- $r4
	.loc	1 379 12 prologue_end           @ rt-thread/components/finsh/msh.c:379:12
	adds	r4, #1
.Ltmp29:
	@DEBUG_VALUE: msh_exec:cmd <- $r4
	.loc	1 380 15                        @ rt-thread/components/finsh/msh.c:380:15
	subs	r5, #1
.Ltmp30:
	@DEBUG_VALUE: msh_exec:length <- $r5
.LBB6_2:                                @ =>This Inner Loop Header: Depth=1
	@DEBUG_VALUE: msh_exec:length <- $r5
	@DEBUG_VALUE: msh_exec:cmd <- $r4
	@DEBUG_VALUE: msh_exec:cmd <- $r4
	@DEBUG_VALUE: msh_exec:length <- $r5
	.loc	1 377 12                        @ rt-thread/components/finsh/msh.c:377:12
	ldrb	r0, [r4]
	.loc	1 377 25 is_stmt 0              @ rt-thread/components/finsh/msh.c:377:25
	cmp	r0, #32
	beq	.LBB6_1
.Ltmp31:
@ %bb.3:                                @   in Loop: Header=BB6_2 Depth=1
	@DEBUG_VALUE: msh_exec:length <- $r5
	@DEBUG_VALUE: msh_exec:cmd <- $r4
	cmp	r0, #9
	beq	.LBB6_1
.Ltmp32:
@ %bb.4:
	@DEBUG_VALUE: msh_exec:length <- $r5
	@DEBUG_VALUE: msh_exec:cmd <- $r4
	.loc	1 383 9 is_stmt 1               @ rt-thread/components/finsh/msh.c:383:9
	cbz	r5, .LBB6_10
.Ltmp33:
@ %bb.5:
	@DEBUG_VALUE: msh_exec:length <- $r5
	@DEBUG_VALUE: msh_exec:cmd <- $r4
	@DEBUG_VALUE: msh_exec:cmd_ret <- [DW_OP_plus_uconst 4, DW_OP_deref] $sp
	.loc	1 0 9 is_stmt 0                 @ rt-thread/components/finsh/msh.c:0:9
	add	r2, sp, #4
.Ltmp34:
	.loc	1 390 9 is_stmt 1               @ rt-thread/components/finsh/msh.c:390:9
	mov	r0, r4
	mov	r1, r5
	bl	_msh_exec_cmd
.Ltmp35:
	.loc	1 390 9 is_stmt 0               @ rt-thread/components/finsh/msh.c:390:9
	cbz	r0, .LBB6_11
.Ltmp36:
@ %bb.6:
	@DEBUG_VALUE: msh_exec:length <- $r5
	@DEBUG_VALUE: msh_exec:cmd <- $r4
	@DEBUG_VALUE: msh_exec:cmd_ret <- [DW_OP_plus_uconst 4, DW_OP_deref] $sp
	.loc	1 396 9 is_stmt 1               @ rt-thread/components/finsh/msh.c:396:9
	mov	r0, r4
	mov	r1, r5
	bl	msh_exec_script
.Ltmp37:
	.loc	1 396 9 is_stmt 0               @ rt-thread/components/finsh/msh.c:396:9
	cbz	r0, .LBB6_10
.Ltmp38:
@ %bb.7:
	@DEBUG_VALUE: msh_exec:length <- $r5
	@DEBUG_VALUE: msh_exec:cmd <- $r4
	@DEBUG_VALUE: msh_exec:cmd_ret <- [DW_OP_plus_uconst 4, DW_OP_deref] $sp
	.loc	1 0 0                           @ rt-thread/components/finsh/msh.c:0:0
	mov	r0, r4
.Ltmp39:
	.p2align	2
.LBB6_8:                                @ =>This Inner Loop Header: Depth=1
	@DEBUG_VALUE: msh_exec:length <- $r5
	@DEBUG_VALUE: msh_exec:cmd <- $r4
	@DEBUG_VALUE: msh_exec:cmd_ret <- [DW_OP_plus_uconst 4, DW_OP_deref] $sp
	@DEBUG_VALUE: tcmd <- $r0
	.loc	1 421 16 is_stmt 1              @ rt-thread/components/finsh/msh.c:421:16
	ldrb	r1, [r0]
	.loc	1 421 29 is_stmt 0              @ rt-thread/components/finsh/msh.c:421:29
	orr	r1, r1, #32
	cmp	r1, #32
	beq	.LBB6_12
.Ltmp40:
@ %bb.9:                                @   in Loop: Header=BB6_8 Depth=1
	@DEBUG_VALUE: msh_exec:length <- $r5
	@DEBUG_VALUE: msh_exec:cmd <- $r4
	@DEBUG_VALUE: tcmd <- $r0
	@DEBUG_VALUE: msh_exec:cmd_ret <- [DW_OP_plus_uconst 4, DW_OP_deref] $sp
	.loc	1 423 17 is_stmt 1              @ rt-thread/components/finsh/msh.c:423:17
	adds	r0, #1
.Ltmp41:
	@DEBUG_VALUE: tcmd <- $r0
	.loc	1 0 17 is_stmt 0                @ rt-thread/components/finsh/msh.c:0:17
	b	.LBB6_8
.Ltmp42:
.LBB6_10:
	@DEBUG_VALUE: msh_exec:length <- $r5
	@DEBUG_VALUE: msh_exec:cmd <- $r4
	movs	r0, #0
	.loc	1 429 1 is_stmt 1               @ rt-thread/components/finsh/msh.c:429:1
	add	sp, #8
	pop	{r4, r5, r7, pc}
.Ltmp43:
.LBB6_11:
	@DEBUG_VALUE: msh_exec:length <- $r5
	@DEBUG_VALUE: msh_exec:cmd <- $r4
	@DEBUG_VALUE: msh_exec:cmd_ret <- [DW_OP_plus_uconst 4, DW_OP_deref] $sp
	.loc	1 392 16                        @ rt-thread/components/finsh/msh.c:392:16
	ldr	r0, [sp, #4]
.Ltmp44:
	@DEBUG_VALUE: msh_exec:cmd_ret <- $r0
	.loc	1 429 1                         @ rt-thread/components/finsh/msh.c:429:1
	add	sp, #8
	pop	{r4, r5, r7, pc}
.Ltmp45:
.LBB6_12:
	@DEBUG_VALUE: msh_exec:length <- $r5
	@DEBUG_VALUE: msh_exec:cmd <- $r4
	@DEBUG_VALUE: tcmd <- $r0
	@DEBUG_VALUE: msh_exec:cmd_ret <- [DW_OP_plus_uconst 4, DW_OP_deref] $sp
	.loc	1 0 1 is_stmt 0                 @ rt-thread/components/finsh/msh.c:0:1
	movs	r1, #0
.Ltmp46:
	.loc	1 425 15 is_stmt 1              @ rt-thread/components/finsh/msh.c:425:15
	strb	r1, [r0]
.Ltmp47:
	.loc	1 427 5                         @ rt-thread/components/finsh/msh.c:427:5
	adr	r0, .LCPI6_0
.Ltmp48:
	mov	r1, r4
	bl	rt_kprintf
	mov.w	r0, #-1
	.loc	1 429 1                         @ rt-thread/components/finsh/msh.c:429:1
	add	sp, #8
	pop	{r4, r5, r7, pc}
.Ltmp49:
	.p2align	2
@ %bb.13:
	.loc	1 0 1 is_stmt 0                 @ rt-thread/components/finsh/msh.c:0:1
.LCPI6_0:
.L.str.4:
	.asciz	"%s: command not found.\n"
.Lfunc_end6:
	.size	msh_exec, .Lfunc_end6-msh_exec
	.cfi_endproc
	.cantunwind
	.fnend
                                        @ -- End function
	.section	.text._msh_exec_cmd,"ax",%progbits
	.p2align	3                               @ -- Begin function _msh_exec_cmd
	.type	_msh_exec_cmd,%function
	.code	16                              @ @_msh_exec_cmd
	.thumb_func
_msh_exec_cmd:
.Lfunc_begin7:
	.loc	1 304 0 is_stmt 1               @ rt-thread/components/finsh/msh.c:304:0
	.fnstart
	.cfi_startproc
@ %bb.0:
	@DEBUG_VALUE: _msh_exec_cmd:cmd <- $r0
	@DEBUG_VALUE: _msh_exec_cmd:length <- $r1
	@DEBUG_VALUE: _msh_exec_cmd:retp <- $r2
	.save	{r4, r5, r6, r7, r8, lr}
	push.w	{r4, r5, r6, r7, r8, lr}
	.cfi_def_cfa_offset 24
	.cfi_offset lr, -4
	.cfi_offset r8, -8
	.cfi_offset r7, -12
	.cfi_offset r6, -16
	.cfi_offset r5, -20
	.cfi_offset r4, -24
	.pad	#40
	sub	sp, #40
	.cfi_def_cfa_offset 64
	mov	r5, r0
.Ltmp50:
	@DEBUG_VALUE: _msh_exec_cmd:cmd0_size <- 0
	@DEBUG_VALUE: _msh_exec_cmd:cmd <- $r5
	mov	r4, r2
.Ltmp51:
	@DEBUG_VALUE: _msh_exec_cmd:retp <- $r4
	@DEBUG_VALUE: _msh_exec_cmd:retp <- $r4
	mov	r6, r1
.Ltmp52:
	@DEBUG_VALUE: _msh_exec_cmd:length <- $r6
	@DEBUG_VALUE: _msh_exec_cmd:length <- $r6
	.loc	1 310 5 prologue_end            @ rt-thread/components/finsh/msh.c:310:5
	cbz	r0, .LBB7_10
.Ltmp53:
@ %bb.1:
	@DEBUG_VALUE: _msh_exec_cmd:length <- $r6
	@DEBUG_VALUE: _msh_exec_cmd:cmd <- $r5
	@DEBUG_VALUE: _msh_exec_cmd:retp <- $r4
	@DEBUG_VALUE: _msh_exec_cmd:cmd0_size <- 0
	.loc	1 311 5                         @ rt-thread/components/finsh/msh.c:311:5
	cbz	r4, .LBB7_11
.Ltmp54:
.LBB7_2:
	@DEBUG_VALUE: _msh_exec_cmd:length <- $r6
	@DEBUG_VALUE: _msh_exec_cmd:cmd <- $r5
	@DEBUG_VALUE: _msh_exec_cmd:retp <- $r4
	@DEBUG_VALUE: _msh_exec_cmd:cmd0_size <- 0
	.loc	1 0 5 is_stmt 0                 @ rt-thread/components/finsh/msh.c:0:5
	movs	r1, #0
	b	.LBB7_5
.Ltmp55:
	.p2align	2
.LBB7_3:                                @   in Loop: Header=BB7_5 Depth=1
	@DEBUG_VALUE: _msh_exec_cmd:length <- $r6
	@DEBUG_VALUE: _msh_exec_cmd:cmd <- $r5
	@DEBUG_VALUE: _msh_exec_cmd:retp <- $r4
	@DEBUG_VALUE: _msh_exec_cmd:cmd0_size <- $r1
	.loc	1 314 5 is_stmt 1               @ rt-thread/components/finsh/msh.c:314:5
	cmp	r6, r1
	beq	.LBB7_12
.Ltmp56:
@ %bb.4:                                @   in Loop: Header=BB7_5 Depth=1
	@DEBUG_VALUE: _msh_exec_cmd:length <- $r6
	@DEBUG_VALUE: _msh_exec_cmd:cmd <- $r5
	@DEBUG_VALUE: _msh_exec_cmd:retp <- $r4
	@DEBUG_VALUE: _msh_exec_cmd:cmd0_size <- $r1
	.loc	1 315 19                        @ rt-thread/components/finsh/msh.c:315:19
	adds	r1, #1
.Ltmp57:
	@DEBUG_VALUE: _msh_exec_cmd:cmd0_size <- $r1
.LBB7_5:                                @ =>This Inner Loop Header: Depth=1
	@DEBUG_VALUE: _msh_exec_cmd:length <- $r6
	@DEBUG_VALUE: _msh_exec_cmd:cmd <- $r5
	@DEBUG_VALUE: _msh_exec_cmd:retp <- $r4
	@DEBUG_VALUE: _msh_exec_cmd:cmd0_size <- $r1
	.loc	1 314 13                        @ rt-thread/components/finsh/msh.c:314:13
	ldrb	r0, [r5, r1]
	.loc	1 314 35 is_stmt 0              @ rt-thread/components/finsh/msh.c:314:35
	cmp	r0, #9
	it	ne
	cmpne	r0, #32
	bne	.LBB7_3
.Ltmp58:
@ %bb.6:
	@DEBUG_VALUE: _msh_exec_cmd:length <- $r6
	@DEBUG_VALUE: _msh_exec_cmd:cmd <- $r5
	@DEBUG_VALUE: _msh_exec_cmd:retp <- $r4
	@DEBUG_VALUE: _msh_exec_cmd:cmd0_size <- $r1
	.loc	1 0 35                          @ rt-thread/components/finsh/msh.c:0:35
	cbz	r1, .LBB7_13
.Ltmp59:
.LBB7_7:
	@DEBUG_VALUE: _msh_exec_cmd:length <- $r6
	@DEBUG_VALUE: _msh_exec_cmd:cmd <- $r5
	@DEBUG_VALUE: _msh_exec_cmd:retp <- $r4
	.loc	1 319 16 is_stmt 1              @ rt-thread/components/finsh/msh.c:319:16
	mov	r0, r5
	bl	msh_get_cmd
.Ltmp60:
	@DEBUG_VALUE: _msh_exec_cmd:cmd_func <- $r0
	.loc	1 320 9                         @ rt-thread/components/finsh/msh.c:320:9
	cbz	r0, .LBB7_13
.Ltmp61:
@ %bb.8:
	@DEBUG_VALUE: _msh_exec_cmd:length <- $r6
	@DEBUG_VALUE: _msh_exec_cmd:cmd <- $r5
	@DEBUG_VALUE: _msh_exec_cmd:retp <- $r4
	@DEBUG_VALUE: _msh_exec_cmd:cmd_func <- $r0
	.loc	1 0 9 is_stmt 0                 @ rt-thread/components/finsh/msh.c:0:9
	mov	r8, sp
	mov	r7, r0
.Ltmp62:
	@DEBUG_VALUE: _msh_exec_cmd:cmd_func <- $r7
	@DEBUG_VALUE: _msh_exec_cmd:cmd_func <- $r7
	.loc	1 324 5 is_stmt 1               @ rt-thread/components/finsh/msh.c:324:5
	movs	r1, #40
	mov	r0, r8
	bl	__aeabi_memclr4
	.loc	1 325 12                        @ rt-thread/components/finsh/msh.c:325:12
	mov	r0, r5
	mov	r1, r6
	mov	r2, r8
	bl	msh_split
.Ltmp63:
	@DEBUG_VALUE: _msh_exec_cmd:argc <- $r0
	.loc	1 326 9                         @ rt-thread/components/finsh/msh.c:326:9
	cbz	r0, .LBB7_13
.Ltmp64:
@ %bb.9:
	@DEBUG_VALUE: _msh_exec_cmd:cmd_func <- $r7
	@DEBUG_VALUE: _msh_exec_cmd:length <- $r6
	@DEBUG_VALUE: _msh_exec_cmd:cmd <- $r5
	@DEBUG_VALUE: _msh_exec_cmd:retp <- $r4
	@DEBUG_VALUE: _msh_exec_cmd:argc <- $r0
	.loc	1 0 9 is_stmt 0                 @ rt-thread/components/finsh/msh.c:0:9
	mov	r1, sp
	.loc	1 330 13 is_stmt 1              @ rt-thread/components/finsh/msh.c:330:13
	blx	r7
.Ltmp65:
	.loc	1 330 11 is_stmt 0              @ rt-thread/components/finsh/msh.c:330:11
	str	r0, [r4]
	movs	r0, #0
	.loc	1 332 1 is_stmt 1               @ rt-thread/components/finsh/msh.c:332:1
	add	sp, #40
	pop.w	{r4, r5, r6, r7, r8, pc}
.Ltmp66:
.LBB7_10:
	@DEBUG_VALUE: _msh_exec_cmd:length <- $r6
	@DEBUG_VALUE: _msh_exec_cmd:cmd <- $r5
	@DEBUG_VALUE: _msh_exec_cmd:retp <- $r4
	@DEBUG_VALUE: _msh_exec_cmd:cmd0_size <- 0
	.loc	1 310 5                         @ rt-thread/components/finsh/msh.c:310:5
	movw	r1, :lower16:.L__FUNCTION__._msh_exec_cmd
	adr	r0, .LCPI7_0
	movt	r1, :upper16:.L__FUNCTION__._msh_exec_cmd
	mov.w	r2, #310
	bl	rt_assert_handler
.Ltmp67:
	.loc	1 311 5                         @ rt-thread/components/finsh/msh.c:311:5
	cmp	r4, #0
	bne	.LBB7_2
.Ltmp68:
.LBB7_11:
	@DEBUG_VALUE: _msh_exec_cmd:length <- $r6
	@DEBUG_VALUE: _msh_exec_cmd:cmd <- $r5
	@DEBUG_VALUE: _msh_exec_cmd:retp <- $r4
	@DEBUG_VALUE: _msh_exec_cmd:cmd0_size <- 0
	.loc	1 311 5 is_stmt 0               @ rt-thread/components/finsh/msh.c:311:5
	movw	r1, :lower16:.L__FUNCTION__._msh_exec_cmd
	adr	r0, .LCPI7_1
	movt	r1, :upper16:.L__FUNCTION__._msh_exec_cmd
	movw	r2, #311
	bl	rt_assert_handler
	b	.LBB7_2
.Ltmp69:
.LBB7_12:
	@DEBUG_VALUE: _msh_exec_cmd:length <- $r6
	@DEBUG_VALUE: _msh_exec_cmd:cmd <- $r5
	@DEBUG_VALUE: _msh_exec_cmd:retp <- $r4
	@DEBUG_VALUE: _msh_exec_cmd:cmd0_size <- $r1
	.loc	1 0 0                           @ rt-thread/components/finsh/msh.c:0:0
	mov	r1, r6
.Ltmp70:
	.loc	1 316 9 is_stmt 1               @ rt-thread/components/finsh/msh.c:316:9
	cmp	r1, #0
	bne	.LBB7_7
.Ltmp71:
.LBB7_13:
	@DEBUG_VALUE: _msh_exec_cmd:length <- $r6
	@DEBUG_VALUE: _msh_exec_cmd:cmd <- $r5
	@DEBUG_VALUE: _msh_exec_cmd:retp <- $r4
	.loc	1 0 9 is_stmt 0                 @ rt-thread/components/finsh/msh.c:0:9
	mov.w	r0, #-1
	.loc	1 332 1 is_stmt 1               @ rt-thread/components/finsh/msh.c:332:1
	add	sp, #40
	pop.w	{r4, r5, r6, r7, r8, pc}
.Ltmp72:
	.p2align	2
@ %bb.14:
	.loc	1 0 1 is_stmt 0                 @ rt-thread/components/finsh/msh.c:0:1
.LCPI7_0:
.L.str.7:
	.asciz	"cmd"
.LCPI7_1:
.L.str.8:
	.asciz	"retp\000\000\000"
.Lfunc_end7:
	.size	_msh_exec_cmd, .Lfunc_end7-_msh_exec_cmd
	.cfi_endproc
	.cantunwind
	.fnend
                                        @ -- End function
	.section	.text.msh_auto_complete_path,"ax",%progbits
	.hidden	msh_auto_complete_path          @ -- Begin function msh_auto_complete_path
	.globl	msh_auto_complete_path
	.p2align	3
	.type	msh_auto_complete_path,%function
	.code	16                              @ @msh_auto_complete_path
	.thumb_func
msh_auto_complete_path:
.Lfunc_begin8:
	.loc	1 446 0 is_stmt 1               @ rt-thread/components/finsh/msh.c:446:0
	.fnstart
	.cfi_startproc
@ %bb.0:
	@DEBUG_VALUE: msh_auto_complete_path:path <- $r0
	@DEBUG_VALUE: msh_auto_complete_path:path <- $r0
	.save	{r4, r5, r6, r7, r8, r9, lr}
	push.w	{r4, r5, r6, r7, r8, r9, lr}
	.cfi_def_cfa_offset 28
	.cfi_offset lr, -4
	.cfi_offset r9, -8
	.cfi_offset r8, -12
	.cfi_offset r7, -16
	.cfi_offset r6, -20
	.cfi_offset r5, -24
	.cfi_offset r4, -28
	.pad	#4
	sub	sp, #4
	.cfi_def_cfa_offset 32
.Ltmp73:
	@DEBUG_VALUE: msh_auto_complete_path:dirent <- 0
	@DEBUG_VALUE: msh_auto_complete_path:dir <- 0
	.loc	1 451 9 prologue_end            @ rt-thread/components/finsh/msh.c:451:9
	cmp	r0, #0
	beq.w	.LBB8_37
.Ltmp74:
@ %bb.1:
	@DEBUG_VALUE: msh_auto_complete_path:path <- $r0
	@DEBUG_VALUE: msh_auto_complete_path:dir <- 0
	@DEBUG_VALUE: msh_auto_complete_path:dirent <- 0
	.loc	1 0 9 is_stmt 0                 @ rt-thread/components/finsh/msh.c:0:9
	mov	r7, r0
.Ltmp75:
	@DEBUG_VALUE: msh_auto_complete_path:path <- $r7
	@DEBUG_VALUE: msh_auto_complete_path:path <- $r7
	.loc	1 454 25 is_stmt 1              @ rt-thread/components/finsh/msh.c:454:25
	mov.w	r0, #256
	bl	rt_malloc
.Ltmp76:
	@DEBUG_VALUE: msh_auto_complete_path:full_path <- $r0
	.loc	1 455 9                         @ rt-thread/components/finsh/msh.c:455:9
	cmp	r0, #0
	beq.w	.LBB8_37
.Ltmp77:
@ %bb.2:
	@DEBUG_VALUE: msh_auto_complete_path:path <- $r7
	@DEBUG_VALUE: msh_auto_complete_path:full_path <- $r0
	@DEBUG_VALUE: msh_auto_complete_path:dir <- 0
	@DEBUG_VALUE: msh_auto_complete_path:dirent <- 0
	.loc	1 0 0 is_stmt 0                 @ rt-thread/components/finsh/msh.c:0:0
	mov	r9, r0
.Ltmp78:
	@DEBUG_VALUE: msh_auto_complete_path:full_path <- $r9
	@DEBUG_VALUE: msh_auto_complete_path:full_path <- $r9
	.loc	1 457 9 is_stmt 1               @ rt-thread/components/finsh/msh.c:457:9
	ldrb	r0, [r7]
.Ltmp79:
	.loc	1 457 9 is_stmt 0               @ rt-thread/components/finsh/msh.c:457:9
	cmp	r0, #47
	bne	.LBB8_4
.Ltmp80:
@ %bb.3:
	@DEBUG_VALUE: msh_auto_complete_path:full_path <- $r9
	@DEBUG_VALUE: msh_auto_complete_path:path <- $r7
	@DEBUG_VALUE: msh_auto_complete_path:dir <- 0
	@DEBUG_VALUE: msh_auto_complete_path:dirent <- 0
	.loc	1 0 9                           @ rt-thread/components/finsh/msh.c:0:9
	movs	r0, #0
.Ltmp81:
	.loc	1 463 21 is_stmt 1              @ rt-thread/components/finsh/msh.c:463:21
	strb.w	r0, [r9]
	b	.LBB8_6
.Ltmp82:
.LBB8_4:
	@DEBUG_VALUE: msh_auto_complete_path:full_path <- $r9
	@DEBUG_VALUE: msh_auto_complete_path:path <- $r7
	@DEBUG_VALUE: msh_auto_complete_path:dir <- 0
	@DEBUG_VALUE: msh_auto_complete_path:dirent <- 0
	.loc	1 459 9                         @ rt-thread/components/finsh/msh.c:459:9
	mov.w	r1, #256
	mov	r0, r9
	bl	getcwd
.Ltmp83:
	.loc	1 460 23                        @ rt-thread/components/finsh/msh.c:460:23
	mov	r0, r9
	bl	rt_strlen
	.loc	1 460 44 is_stmt 0              @ rt-thread/components/finsh/msh.c:460:44
	add	r0, r9
	.loc	1 460 13                        @ rt-thread/components/finsh/msh.c:460:13
	ldrb	r0, [r0, #-1]
.Ltmp84:
	.loc	1 460 13                        @ rt-thread/components/finsh/msh.c:460:13
	cmp	r0, #47
	beq	.LBB8_6
.Ltmp85:
@ %bb.5:
	@DEBUG_VALUE: msh_auto_complete_path:full_path <- $r9
	@DEBUG_VALUE: msh_auto_complete_path:path <- $r7
	@DEBUG_VALUE: msh_auto_complete_path:dir <- 0
	@DEBUG_VALUE: msh_auto_complete_path:dirent <- 0
	.loc	1 461 13 is_stmt 1              @ rt-thread/components/finsh/msh.c:461:13
	mov	r0, r9
	bl	strlen
	movs	r1, #47
	strh.w	r1, [r9, r0]
.Ltmp86:
.LBB8_6:
	@DEBUG_VALUE: msh_auto_complete_path:full_path <- $r9
	@DEBUG_VALUE: msh_auto_complete_path:path <- $r7
	@DEBUG_VALUE: msh_auto_complete_path:dir <- 0
	@DEBUG_VALUE: msh_auto_complete_path:dirent <- 0
	.loc	1 467 5                         @ rt-thread/components/finsh/msh.c:467:5
	adds	r0, r7, #1
	movs	r5, #0
.Ltmp87:
	.p2align	2
.LBB8_7:                                @ =>This Inner Loop Header: Depth=1
	@DEBUG_VALUE: msh_auto_complete_path:full_path <- $r9
	@DEBUG_VALUE: msh_auto_complete_path:path <- $r7
	@DEBUG_VALUE: msh_auto_complete_path:dir <- 0
	@DEBUG_VALUE: msh_auto_complete_path:dirent <- 0
	@DEBUG_VALUE: msh_auto_complete_path:index <- $r5
	@DEBUG_VALUE: msh_auto_complete_path:ptr <- [DW_OP_constu 1, DW_OP_minus, DW_OP_stack_value] $r0
	.loc	1 469 13                        @ rt-thread/components/finsh/msh.c:469:13
	ldrb	r1, [r0, #-1]
.Ltmp88:
	.loc	1 469 13 is_stmt 0              @ rt-thread/components/finsh/msh.c:469:13
	cmp	r1, #47
	it	eq
	moveq	r5, r0
.Ltmp89:
	@DEBUG_VALUE: msh_auto_complete_path:index <- $r5
	.loc	1 470 13 is_stmt 1              @ rt-thread/components/finsh/msh.c:470:13
	cmp	r1, #0
	add.w	r0, r0, #1
.Ltmp90:
	bne	.LBB8_7
.Ltmp91:
@ %bb.8:
	@DEBUG_VALUE: msh_auto_complete_path:full_path <- $r9
	@DEBUG_VALUE: msh_auto_complete_path:path <- $r7
	@DEBUG_VALUE: msh_auto_complete_path:index <- $r5
	@DEBUG_VALUE: msh_auto_complete_path:dir <- 0
	@DEBUG_VALUE: msh_auto_complete_path:dirent <- 0
	.loc	1 476 9                         @ rt-thread/components/finsh/msh.c:476:9
	sub.w	r0, r9, #1
.Ltmp92:
	.p2align	2
.LBB8_9:                                @ =>This Inner Loop Header: Depth=1
	@DEBUG_VALUE: msh_auto_complete_path:full_path <- $r9
	@DEBUG_VALUE: msh_auto_complete_path:path <- $r7
	@DEBUG_VALUE: msh_auto_complete_path:index <- $r5
	@DEBUG_VALUE: msh_auto_complete_path:dir <- 0
	@DEBUG_VALUE: msh_auto_complete_path:dirent <- 0
	@DEBUG_VALUE: msh_auto_complete_path:ptr <- [DW_OP_plus_uconst 1, DW_OP_stack_value] $r0
	.loc	1 482 16                        @ rt-thread/components/finsh/msh.c:482:16
	ldrb	r1, [r0, #1]!
.Ltmp93:
	@DEBUG_VALUE: msh_auto_complete_path:ptr <- [DW_OP_plus_uconst 2, DW_OP_stack_value] undef
	.loc	1 482 9 is_stmt 0               @ rt-thread/components/finsh/msh.c:482:9
	cmp	r1, #0
	bne	.LBB8_9
.Ltmp94:
@ %bb.10:
	@DEBUG_VALUE: msh_auto_complete_path:full_path <- $r9
	@DEBUG_VALUE: msh_auto_complete_path:path <- $r7
	@DEBUG_VALUE: msh_auto_complete_path:index <- $r5
	@DEBUG_VALUE: msh_auto_complete_path:dir <- 0
	@DEBUG_VALUE: msh_auto_complete_path:dirent <- 0
	.loc	1 474 9 is_stmt 1               @ rt-thread/components/finsh/msh.c:474:9
	cmp	r5, #0
	it	eq
	moveq	r5, r7
.Ltmp95:
	@DEBUG_VALUE: msh_auto_complete_path:ptr <- undef
	@DEBUG_VALUE: msh_auto_complete_path:index <- $r7
	.loc	1 484 9                         @ rt-thread/components/finsh/msh.c:484:9
	cmp	r5, r7
	beq	.LBB8_14
.Ltmp96:
@ %bb.11:
	@DEBUG_VALUE: msh_auto_complete_path:full_path <- $r9
	@DEBUG_VALUE: msh_auto_complete_path:index <- $r7
	@DEBUG_VALUE: msh_auto_complete_path:path <- $r7
	@DEBUG_VALUE: msh_auto_complete_path:dir <- 0
	@DEBUG_VALUE: msh_auto_complete_path:dirent <- 0
	subs	r2, r5, r7
	movs	r1, #0
.Ltmp97:
	.p2align	2
.LBB8_12:                               @ =>This Inner Loop Header: Depth=1
	@DEBUG_VALUE: msh_auto_complete_path:full_path <- $r9
	@DEBUG_VALUE: msh_auto_complete_path:path <- $r7
	@DEBUG_VALUE: msh_auto_complete_path:dir <- 0
	@DEBUG_VALUE: msh_auto_complete_path:dirent <- 0
	@DEBUG_VALUE: msh_auto_complete_path:index <- [DW_OP_plus_uconst 1, DW_OP_stack_value] undef
	@DEBUG_VALUE: msh_auto_complete_path:ptr <- undef
	.loc	1 485 22                        @ rt-thread/components/finsh/msh.c:485:22
	ldrb	r3, [r7, r1]
.Ltmp98:
	@DEBUG_VALUE: msh_auto_complete_path:ptr <- [DW_OP_plus_uconst 1, DW_OP_stack_value] undef
	.loc	1 485 20 is_stmt 0              @ rt-thread/components/finsh/msh.c:485:20
	strb	r3, [r0, r1]
	.loc	1 484 34 is_stmt 1              @ rt-thread/components/finsh/msh.c:484:34
	adds	r1, #1
.Ltmp99:
	.loc	1 484 9 is_stmt 0               @ rt-thread/components/finsh/msh.c:484:9
	cmp	r2, r1
	bne	.LBB8_12
.Ltmp100:
@ %bb.13:
	@DEBUG_VALUE: msh_auto_complete_path:full_path <- $r9
	@DEBUG_VALUE: msh_auto_complete_path:path <- $r7
	@DEBUG_VALUE: msh_auto_complete_path:dir <- 0
	@DEBUG_VALUE: msh_auto_complete_path:dirent <- 0
	.loc	1 486 14 is_stmt 1              @ rt-thread/components/finsh/msh.c:486:14
	add	r7, r1
.Ltmp101:
	@DEBUG_VALUE: msh_auto_complete_path:path <- [DW_OP_LLVM_entry_value 1] $r0
	add	r0, r1
.Ltmp102:
.LBB8_14:
	@DEBUG_VALUE: msh_auto_complete_path:full_path <- $r9
	@DEBUG_VALUE: msh_auto_complete_path:dir <- 0
	@DEBUG_VALUE: msh_auto_complete_path:dirent <- 0
	.loc	1 0 14 is_stmt 0                @ rt-thread/components/finsh/msh.c:0:14
	movs	r1, #0
	.loc	1 486 14                        @ rt-thread/components/finsh/msh.c:486:14
	strb	r1, [r0]
	.loc	1 488 15 is_stmt 1              @ rt-thread/components/finsh/msh.c:488:15
	mov	r0, r9
	bl	opendir
	mov	r6, r0
.Ltmp103:
	@DEBUG_VALUE: msh_auto_complete_path:dir <- $r6
	.loc	1 489 13                        @ rt-thread/components/finsh/msh.c:489:13
	cbnz	r0, .LBB8_16
.Ltmp104:
@ %bb.15:
	@DEBUG_VALUE: msh_auto_complete_path:full_path <- $r9
	@DEBUG_VALUE: msh_auto_complete_path:dir <- $r6
	@DEBUG_VALUE: msh_auto_complete_path:dirent <- 0
	.loc	1 491 13                        @ rt-thread/components/finsh/msh.c:491:13
	mov	r0, r9
	bl	rt_free
.Ltmp105:
	.loc	1 0 0 is_stmt 0                 @ rt-thread/components/finsh/msh.c:0:0
	mov	r5, r7
.Ltmp106:
.LBB8_16:
	@DEBUG_VALUE: msh_auto_complete_path:full_path <- $r9
	@DEBUG_VALUE: msh_auto_complete_path:dir <- $r6
	@DEBUG_VALUE: msh_auto_complete_path:dirent <- 0
	@DEBUG_VALUE: msh_auto_complete_path:index <- $r5
	cmp	r6, #0
	beq	.LBB8_37
.Ltmp107:
@ %bb.17:
	@DEBUG_VALUE: msh_auto_complete_path:full_path <- $r9
	@DEBUG_VALUE: msh_auto_complete_path:dir <- $r6
	@DEBUG_VALUE: msh_auto_complete_path:index <- $r5
	@DEBUG_VALUE: msh_auto_complete_path:dirent <- 0
	@DEBUG_VALUE: msh_auto_complete_path:dir <- $r6
	@DEBUG_VALUE: msh_auto_complete_path:index <- $r5
	.loc	1 500 9 is_stmt 1               @ rt-thread/components/finsh/msh.c:500:9
	ldrb	r4, [r5]
	.loc	1 0 0 is_stmt 0                 @ rt-thread/components/finsh/msh.c:0:0
	mov	r0, r6
	bl	readdir
.Ltmp108:
	.loc	1 500 9                         @ rt-thread/components/finsh/msh.c:500:9
	cmp	r4, #0
.Ltmp109:
	@DEBUG_VALUE: msh_auto_complete_path:dirent <- $r0
	beq	.LBB8_33
.Ltmp110:
@ %bb.18:
	@DEBUG_VALUE: msh_auto_complete_path:full_path <- $r9
	@DEBUG_VALUE: msh_auto_complete_path:dir <- $r6
	@DEBUG_VALUE: msh_auto_complete_path:index <- $r5
	@DEBUG_VALUE: msh_auto_complete_path:dirent <- $r0
	@DEBUG_VALUE: min_length <- 0
	.loc	1 0 9                           @ rt-thread/components/finsh/msh.c:0:9
	movs	r7, #0
	b	.LBB8_21
.Ltmp111:
	.p2align	2
.LBB8_19:                               @   in Loop: Header=BB8_21 Depth=1
	@DEBUG_VALUE: msh_auto_complete_path:full_path <- $r9
	@DEBUG_VALUE: min_length <- $r7
	@DEBUG_VALUE: msh_auto_complete_path:dir <- $r6
	@DEBUG_VALUE: msh_auto_complete_path:index <- $r5
	@DEBUG_VALUE: min_length <- $r7
	.loc	1 530 26 is_stmt 1              @ rt-thread/components/finsh/msh.c:530:26
	mov	r0, r4
	mov	r1, r9
	bl	str_common
.Ltmp112:
	@DEBUG_VALUE: length <- $r0
	.loc	1 532 21                        @ rt-thread/components/finsh/msh.c:532:21
	cmp	r0, r7
	it	lo
	movlo	r7, r0
.Ltmp113:
	@DEBUG_VALUE: length <- $r7
.LBB8_20:                               @   in Loop: Header=BB8_21 Depth=1
	@DEBUG_VALUE: msh_auto_complete_path:full_path <- $r9
	@DEBUG_VALUE: msh_auto_complete_path:dir <- $r6
	@DEBUG_VALUE: msh_auto_complete_path:index <- $r5
	@DEBUG_VALUE: min_length <- $r7
	.loc	1 517 22                        @ rt-thread/components/finsh/msh.c:517:22
	mov	r0, r6
	bl	readdir
.Ltmp114:
	@DEBUG_VALUE: msh_auto_complete_path:dirent <- $r0
.LBB8_21:                               @ =>This Inner Loop Header: Depth=1
	@DEBUG_VALUE: msh_auto_complete_path:full_path <- $r9
	@DEBUG_VALUE: msh_auto_complete_path:dir <- $r6
	@DEBUG_VALUE: msh_auto_complete_path:index <- $r5
	@DEBUG_VALUE: msh_auto_complete_path:dirent <- $r0
	.loc	1 0 22 is_stmt 0                @ rt-thread/components/finsh/msh.c:0:22
	cbz	r0, .LBB8_25
.Ltmp115:
@ %bb.22:                               @   in Loop: Header=BB8_21 Depth=1
	@DEBUG_VALUE: msh_auto_complete_path:full_path <- $r9
	@DEBUG_VALUE: msh_auto_complete_path:dir <- $r6
	@DEBUG_VALUE: msh_auto_complete_path:index <- $r5
	@DEBUG_VALUE: msh_auto_complete_path:dirent <- $r0
	@DEBUG_VALUE: min_length <- $r7
	.loc	1 521 32 is_stmt 1              @ rt-thread/components/finsh/msh.c:521:32
	adds	r4, r0, #4
	.loc	1 521 48 is_stmt 0              @ rt-thread/components/finsh/msh.c:521:48
	mov	r0, r5
.Ltmp116:
	bl	rt_strlen
	mov	r2, r0
	.loc	1 521 17                        @ rt-thread/components/finsh/msh.c:521:17
	mov	r0, r5
	mov	r1, r4
	bl	strncmp
.Ltmp117:
	.loc	1 521 17                        @ rt-thread/components/finsh/msh.c:521:17
	cmp	r0, #0
	bne	.LBB8_20
.Ltmp118:
@ %bb.23:                               @   in Loop: Header=BB8_21 Depth=1
	@DEBUG_VALUE: msh_auto_complete_path:full_path <- $r9
	@DEBUG_VALUE: min_length <- $r7
	@DEBUG_VALUE: msh_auto_complete_path:dir <- $r6
	@DEBUG_VALUE: msh_auto_complete_path:index <- $r5
	.loc	1 523 21 is_stmt 1              @ rt-thread/components/finsh/msh.c:523:21
	cmp	r7, #0
	bne	.LBB8_19
.Ltmp119:
@ %bb.24:                               @   in Loop: Header=BB8_21 Depth=1
	@DEBUG_VALUE: msh_auto_complete_path:full_path <- $r9
	@DEBUG_VALUE: min_length <- $r7
	@DEBUG_VALUE: msh_auto_complete_path:dir <- $r6
	@DEBUG_VALUE: msh_auto_complete_path:index <- $r5
	.loc	1 525 34                        @ rt-thread/components/finsh/msh.c:525:34
	mov	r0, r4
	bl	rt_strlen
	mov	r7, r0
.Ltmp120:
	@DEBUG_VALUE: min_length <- $r7
	.loc	1 527 21                        @ rt-thread/components/finsh/msh.c:527:21
	mov	r0, r9
	mov	r1, r4
	bl	strcpy
	b	.LBB8_19
.Ltmp121:
.LBB8_25:
	@DEBUG_VALUE: msh_auto_complete_path:full_path <- $r9
	@DEBUG_VALUE: msh_auto_complete_path:dir <- $r6
	@DEBUG_VALUE: msh_auto_complete_path:index <- $r5
	@DEBUG_VALUE: msh_auto_complete_path:dirent <- $r0
	.loc	1 0 21 is_stmt 0                @ rt-thread/components/finsh/msh.c:0:21
	cbz	r7, .LBB8_36
.Ltmp122:
@ %bb.26:
	@DEBUG_VALUE: msh_auto_complete_path:full_path <- $r9
	@DEBUG_VALUE: msh_auto_complete_path:dir <- $r6
	@DEBUG_VALUE: msh_auto_complete_path:index <- $r5
	@DEBUG_VALUE: msh_auto_complete_path:dirent <- $r0
	.loc	1 541 30 is_stmt 1              @ rt-thread/components/finsh/msh.c:541:30
	mov	r0, r9
.Ltmp123:
	bl	rt_strlen
.Ltmp124:
	.loc	1 541 17 is_stmt 0              @ rt-thread/components/finsh/msh.c:541:17
	cmp	r7, r0
	bhs	.LBB8_32
.Ltmp125:
@ %bb.27:
	@DEBUG_VALUE: msh_auto_complete_path:full_path <- $r9
	@DEBUG_VALUE: msh_auto_complete_path:dir <- $r6
	@DEBUG_VALUE: msh_auto_complete_path:index <- $r5
	.loc	1 544 17 is_stmt 1              @ rt-thread/components/finsh/msh.c:544:17
	mov	r0, r6
	bl	rewinddir
.Ltmp126:
	.loc	1 548 30                        @ rt-thread/components/finsh/msh.c:548:30
	mov	r0, r6
	bl	readdir
.Ltmp127:
	@DEBUG_VALUE: msh_auto_complete_path:dirent <- $r0
	.loc	1 0 30 is_stmt 0                @ rt-thread/components/finsh/msh.c:0:30
	cbz	r0, .LBB8_32
.Ltmp128:
@ %bb.28:
	@DEBUG_VALUE: msh_auto_complete_path:full_path <- $r9
	@DEBUG_VALUE: msh_auto_complete_path:dir <- $r6
	@DEBUG_VALUE: msh_auto_complete_path:index <- $r5
	@DEBUG_VALUE: msh_auto_complete_path:dirent <- $r0
	movw	r8, :lower16:.L.str.6
	movt	r8, :upper16:.L.str.6
	b	.LBB8_30
.Ltmp129:
	.p2align	2
.LBB8_29:                               @   in Loop: Header=BB8_30 Depth=1
	@DEBUG_VALUE: msh_auto_complete_path:full_path <- $r9
	@DEBUG_VALUE: msh_auto_complete_path:dir <- $r6
	@DEBUG_VALUE: msh_auto_complete_path:index <- $r5
	.loc	1 548 30                        @ rt-thread/components/finsh/msh.c:548:30
	mov	r0, r6
	bl	readdir
.Ltmp130:
	@DEBUG_VALUE: msh_auto_complete_path:dirent <- $r0
	.loc	1 0 30                          @ rt-thread/components/finsh/msh.c:0:30
	cbz	r0, .LBB8_32
.Ltmp131:
.LBB8_30:                               @ =>This Inner Loop Header: Depth=1
	@DEBUG_VALUE: msh_auto_complete_path:full_path <- $r9
	@DEBUG_VALUE: msh_auto_complete_path:dir <- $r6
	@DEBUG_VALUE: msh_auto_complete_path:index <- $r5
	@DEBUG_VALUE: msh_auto_complete_path:dirent <- $r0
	.loc	1 551 40 is_stmt 1              @ rt-thread/components/finsh/msh.c:551:40
	adds	r4, r0, #4
	.loc	1 551 56 is_stmt 0              @ rt-thread/components/finsh/msh.c:551:56
	mov	r0, r5
.Ltmp132:
	bl	rt_strlen
	mov	r2, r0
	.loc	1 551 25                        @ rt-thread/components/finsh/msh.c:551:25
	mov	r0, r5
	mov	r1, r4
	bl	strncmp
.Ltmp133:
	.loc	1 551 25                        @ rt-thread/components/finsh/msh.c:551:25
	cmp	r0, #0
	bne	.LBB8_29
.Ltmp134:
@ %bb.31:                               @   in Loop: Header=BB8_30 Depth=1
	@DEBUG_VALUE: msh_auto_complete_path:full_path <- $r9
	@DEBUG_VALUE: msh_auto_complete_path:dir <- $r6
	@DEBUG_VALUE: msh_auto_complete_path:index <- $r5
	.loc	1 552 25 is_stmt 1              @ rt-thread/components/finsh/msh.c:552:25
	mov	r0, r8
	mov	r1, r4
	bl	rt_kprintf
	b	.LBB8_29
.Ltmp135:
.LBB8_32:
	@DEBUG_VALUE: msh_auto_complete_path:full_path <- $r9
	@DEBUG_VALUE: msh_auto_complete_path:dir <- $r6
	@DEBUG_VALUE: msh_auto_complete_path:index <- $r5
	@DEBUG_VALUE: length <- undef
	.loc	1 557 13                        @ rt-thread/components/finsh/msh.c:557:13
	mov	r0, r5
	mov	r1, r9
	mov	r2, r7
	bl	__aeabi_memcpy
	movs	r0, #0
	.loc	1 558 39                        @ rt-thread/components/finsh/msh.c:558:39
	strb	r0, [r5, r7]
	b	.LBB8_36
.Ltmp136:
.LBB8_33:
	@DEBUG_VALUE: msh_auto_complete_path:full_path <- $r9
	@DEBUG_VALUE: msh_auto_complete_path:dir <- $r6
	@DEBUG_VALUE: msh_auto_complete_path:index <- $r5
	@DEBUG_VALUE: msh_auto_complete_path:dirent <- $r0
	.loc	1 505 17                        @ rt-thread/components/finsh/msh.c:505:17
	cbz	r0, .LBB8_36
.Ltmp137:
@ %bb.34:
	@DEBUG_VALUE: msh_auto_complete_path:full_path <- $r9
	@DEBUG_VALUE: msh_auto_complete_path:dir <- $r6
	@DEBUG_VALUE: msh_auto_complete_path:index <- $r5
	@DEBUG_VALUE: msh_auto_complete_path:dirent <- $r0
	.loc	1 0 17 is_stmt 0                @ rt-thread/components/finsh/msh.c:0:17
	movw	r4, :lower16:.L.str.6
	movt	r4, :upper16:.L.str.6
.Ltmp138:
	.p2align	2
.LBB8_35:                               @ =>This Inner Loop Header: Depth=1
	@DEBUG_VALUE: msh_auto_complete_path:full_path <- $r9
	@DEBUG_VALUE: msh_auto_complete_path:dir <- $r6
	@DEBUG_VALUE: msh_auto_complete_path:index <- $r5
	@DEBUG_VALUE: msh_auto_complete_path:dirent <- $r0
	.loc	1 507 32 is_stmt 1              @ rt-thread/components/finsh/msh.c:507:32
	adds	r1, r0, #4
	.loc	1 507 13 is_stmt 0              @ rt-thread/components/finsh/msh.c:507:13
	mov	r0, r4
.Ltmp139:
	bl	rt_kprintf
	.loc	1 504 22 is_stmt 1              @ rt-thread/components/finsh/msh.c:504:22
	mov	r0, r6
	bl	readdir
.Ltmp140:
	@DEBUG_VALUE: msh_auto_complete_path:dirent <- $r0
	.loc	1 505 17                        @ rt-thread/components/finsh/msh.c:505:17
	cmp	r0, #0
	bne	.LBB8_35
.Ltmp141:
.LBB8_36:
	@DEBUG_VALUE: msh_auto_complete_path:full_path <- $r9
	@DEBUG_VALUE: msh_auto_complete_path:dir <- $r6
	@DEBUG_VALUE: msh_auto_complete_path:index <- $r5
	.loc	1 562 5                         @ rt-thread/components/finsh/msh.c:562:5
	mov	r0, r6
	bl	closedir
	.loc	1 563 5                         @ rt-thread/components/finsh/msh.c:563:5
	mov	r0, r9
	bl	rt_free
.Ltmp142:
.LBB8_37:
	.loc	1 564 1                         @ rt-thread/components/finsh/msh.c:564:1
	add	sp, #4
	pop.w	{r4, r5, r6, r7, r8, r9, pc}
.Ltmp143:
.Lfunc_end8:
	.size	msh_auto_complete_path, .Lfunc_end8-msh_auto_complete_path
	.cfi_endproc
	.cantunwind
	.fnend
                                        @ -- End function
	.section	.text.str_common,"ax",%progbits
	.p2align	3                               @ -- Begin function str_common
	.type	str_common,%function
	.code	16                              @ @str_common
	.thumb_func
str_common:
.Lfunc_begin9:
	.loc	1 432 0                         @ rt-thread/components/finsh/msh.c:432:0
	.fnstart
	.cfi_startproc
@ %bb.0:
	@DEBUG_VALUE: str_common:str1 <- $r0
	@DEBUG_VALUE: str_common:str1 <- $r0
	@DEBUG_VALUE: str_common:str2 <- $r1
	@DEBUG_VALUE: str_common:str <- $r0
	@DEBUG_VALUE: str_common:str <- $r0
	.loc	1 435 13 prologue_end           @ rt-thread/components/finsh/msh.c:435:13
	ldrb.w	r12, [r0]
	.loc	1 0 0 is_stmt 0                 @ rt-thread/components/finsh/msh.c:0:0
	mov	r2, r0
	.loc	1 435 24                        @ rt-thread/components/finsh/msh.c:435:24
	cmp.w	r12, #0
	@DEBUG_VALUE: str_common:str2 <- $r1
	beq	.LBB9_5
.Ltmp144:
@ %bb.1:
	@DEBUG_VALUE: str_common:str2 <- $r1
	@DEBUG_VALUE: str_common:str <- $r0
	@DEBUG_VALUE: str_common:str1 <- $r0
	.loc	1 0 24                          @ rt-thread/components/finsh/msh.c:0:24
	mov	r2, r0
.Ltmp145:
	.p2align	2
.LBB9_2:                                @ =>This Inner Loop Header: Depth=1
	@DEBUG_VALUE: str_common:str2 <- $r1
	@DEBUG_VALUE: str_common:str1 <- $r0
	@DEBUG_VALUE: str_common:str2 <- $r1
	@DEBUG_VALUE: str_common:str <- $r2
	.loc	1 435 28                        @ rt-thread/components/finsh/msh.c:435:28
	ldrb	r3, [r1]
	.loc	1 435 40                        @ rt-thread/components/finsh/msh.c:435:40
	cbz	r3, .LBB9_5
.Ltmp146:
@ %bb.3:                                @   in Loop: Header=BB9_2 Depth=1
	@DEBUG_VALUE: str_common:str <- $r2
	@DEBUG_VALUE: str_common:str2 <- $r1
	@DEBUG_VALUE: str_common:str1 <- $r0
	cmp	r12, r3
	bne	.LBB9_5
.Ltmp147:
@ %bb.4:                                @   in Loop: Header=BB9_2 Depth=1
	@DEBUG_VALUE: str_common:str <- $r2
	@DEBUG_VALUE: str_common:str2 <- $r1
	@DEBUG_VALUE: str_common:str1 <- $r0
	.loc	1 435 13                        @ rt-thread/components/finsh/msh.c:435:13
	ldrb	r12, [r2, #1]!
.Ltmp148:
	@DEBUG_VALUE: str_common:str <- $r2
	.loc	1 438 14 is_stmt 1              @ rt-thread/components/finsh/msh.c:438:14
	adds	r1, #1
.Ltmp149:
	@DEBUG_VALUE: str_common:str2 <- [DW_OP_LLVM_entry_value 1] $r1
	@DEBUG_VALUE: str_common:str2 <- $r1
	.loc	1 435 24                        @ rt-thread/components/finsh/msh.c:435:24
	cmp.w	r12, #0
	bne	.LBB9_2
.Ltmp150:
.LBB9_5:
	@DEBUG_VALUE: str_common:str2 <- $r1
	@DEBUG_VALUE: str_common:str1 <- $r0
	.loc	1 441 17                        @ rt-thread/components/finsh/msh.c:441:17
	subs	r0, r2, r0
.Ltmp151:
	@DEBUG_VALUE: str_common:str1 <- [DW_OP_LLVM_entry_value 1] $r0
	.loc	1 441 5 is_stmt 0               @ rt-thread/components/finsh/msh.c:441:5
	bx	lr
.Ltmp152:
.Lfunc_end9:
	.size	str_common, .Lfunc_end9-str_common
	.cfi_endproc
	.cantunwind
	.fnend
                                        @ -- End function
	.section	.text.msh_auto_complete,"ax",%progbits
	.hidden	msh_auto_complete               @ -- Begin function msh_auto_complete
	.globl	msh_auto_complete
	.p2align	3
	.type	msh_auto_complete,%function
	.code	16                              @ @msh_auto_complete
	.thumb_func
msh_auto_complete:
.Lfunc_begin10:
	.loc	1 568 0 is_stmt 1               @ rt-thread/components/finsh/msh.c:568:0
	.fnstart
	.cfi_startproc
@ %bb.0:
	@DEBUG_VALUE: msh_auto_complete:prefix <- $r0
	.save	{r4, r5, r6, r7, r8, r9, r10, r11, lr}
	push.w	{r4, r5, r6, r7, r8, r9, r10, r11, lr}
	.cfi_def_cfa_offset 36
	.cfi_offset lr, -4
	.cfi_offset r11, -8
	.cfi_offset r10, -12
	.cfi_offset r9, -16
	.cfi_offset r8, -20
	.cfi_offset r7, -24
	.cfi_offset r6, -28
	.cfi_offset r5, -32
	.cfi_offset r4, -36
	.pad	#4
	sub	sp, #4
	.cfi_def_cfa_offset 40
	mov	r4, r0
.Ltmp153:
	@DEBUG_VALUE: msh_auto_complete:name_ptr <- 0
	@DEBUG_VALUE: msh_auto_complete:min_length <- 0
	@DEBUG_VALUE: msh_auto_complete:prefix <- $r4
	.loc	1 576 9 prologue_end            @ rt-thread/components/finsh/msh.c:576:9
	ldrb	r0, [r0]
.Ltmp154:
	.loc	1 576 9 is_stmt 0               @ rt-thread/components/finsh/msh.c:576:9
	cbz	r0, .LBB10_4
.Ltmp155:
@ %bb.1:
	@DEBUG_VALUE: msh_auto_complete:prefix <- $r4
	@DEBUG_VALUE: msh_auto_complete:min_length <- 0
	@DEBUG_VALUE: msh_auto_complete:name_ptr <- 0
	.loc	1 587 24 is_stmt 1              @ rt-thread/components/finsh/msh.c:587:24
	mov	r0, r4
	bl	rt_strlen
.Ltmp156:
	@DEBUG_VALUE: ptr <- undef
	.loc	1 588 9                         @ rt-thread/components/finsh/msh.c:588:9
	cbz	r0, .LBB10_6
.Ltmp157:
	.p2align	2
.LBB10_2:                               @ =>This Inner Loop Header: Depth=1
	@DEBUG_VALUE: msh_auto_complete:prefix <- $r4
	@DEBUG_VALUE: msh_auto_complete:min_length <- 0
	@DEBUG_VALUE: msh_auto_complete:name_ptr <- 0
	@DEBUG_VALUE: ptr <- undef
	.loc	1 590 17                        @ rt-thread/components/finsh/msh.c:590:17
	ldrb	r1, [r4, r0]
.Ltmp158:
	.loc	1 590 17 is_stmt 0              @ rt-thread/components/finsh/msh.c:590:17
	cmp	r1, #32
	beq	.LBB10_5
.Ltmp159:
@ %bb.3:                                @   in Loop: Header=BB10_2 Depth=1
	@DEBUG_VALUE: msh_auto_complete:prefix <- $r4
	@DEBUG_VALUE: msh_auto_complete:min_length <- 0
	@DEBUG_VALUE: msh_auto_complete:name_ptr <- 0
	@DEBUG_VALUE: ptr <- [DW_OP_constu 1, DW_OP_minus, DW_OP_stack_value] undef
	.loc	1 588 20 is_stmt 1              @ rt-thread/components/finsh/msh.c:588:20
	subs	r0, #1
	.loc	1 588 9 is_stmt 0               @ rt-thread/components/finsh/msh.c:588:9
	bne	.LBB10_2
	b	.LBB10_6
.Ltmp160:
.LBB10_4:
	@DEBUG_VALUE: msh_auto_complete:prefix <- $r4
	@DEBUG_VALUE: msh_auto_complete:min_length <- 0
	@DEBUG_VALUE: msh_auto_complete:name_ptr <- 0
	.loc	1 578 9 is_stmt 1               @ rt-thread/components/finsh/msh.c:578:9
	bl	msh_help
.Ltmp161:
	.loc	1 644 1                         @ rt-thread/components/finsh/msh.c:644:1
	add	sp, #4
	pop.w	{r4, r5, r6, r7, r8, r9, r10, r11, pc}
.Ltmp162:
.LBB10_5:
	@DEBUG_VALUE: msh_auto_complete:prefix <- $r4
	@DEBUG_VALUE: msh_auto_complete:min_length <- 0
	@DEBUG_VALUE: msh_auto_complete:name_ptr <- 0
	.loc	1 592 17                        @ rt-thread/components/finsh/msh.c:592:17
	add	r0, r4
	adds	r0, #1
	bl	msh_auto_complete_path
.Ltmp163:
.LBB10_6:
	@DEBUG_VALUE: msh_auto_complete:prefix <- $r4
	@DEBUG_VALUE: msh_auto_complete:min_length <- 0
	@DEBUG_VALUE: msh_auto_complete:name_ptr <- 0
	.loc	1 612 22                        @ rt-thread/components/finsh/msh.c:612:22
	movw	r0, :lower16:_syscall_table_begin
.Ltmp164:
	.loc	1 612 52 is_stmt 0              @ rt-thread/components/finsh/msh.c:612:52
	movw	r11, :lower16:_syscall_table_end
.Ltmp165:
	.loc	1 612 22                        @ rt-thread/components/finsh/msh.c:612:22
	movt	r0, :upper16:_syscall_table_begin
.Ltmp166:
	.loc	1 612 52                        @ rt-thread/components/finsh/msh.c:612:52
	movt	r11, :upper16:_syscall_table_end
.Ltmp167:
	.loc	1 612 22                        @ rt-thread/components/finsh/msh.c:612:22
	ldr	r7, [r0]
.Ltmp168:
	@DEBUG_VALUE: msh_auto_complete:index <- $r7
	@DEBUG_VALUE: msh_auto_complete:name_ptr <- 0
	@DEBUG_VALUE: msh_auto_complete:min_length <- 0
	.loc	1 612 52                        @ rt-thread/components/finsh/msh.c:612:52
	ldr.w	r0, [r11]
.Ltmp169:
	.loc	1 612 9                         @ rt-thread/components/finsh/msh.c:612:9
	cmp	r7, r0
	bhs	.LBB10_14
.Ltmp170:
@ %bb.7:
	@DEBUG_VALUE: msh_auto_complete:index <- $r7
	@DEBUG_VALUE: msh_auto_complete:prefix <- $r4
	@DEBUG_VALUE: msh_auto_complete:min_length <- 0
	@DEBUG_VALUE: msh_auto_complete:name_ptr <- 0
	.loc	1 0 9                           @ rt-thread/components/finsh/msh.c:0:9
	movw	r10, :lower16:.L.str.1
	movw	r8, :lower16:.L.str.6
	movs	r5, #0
	movt	r10, :upper16:.L.str.1
	movt	r8, :upper16:.L.str.6
	mov.w	r9, #0
	b	.LBB10_10
.Ltmp171:
.LBB10_8:                               @   in Loop: Header=BB10_10 Depth=1
	@DEBUG_VALUE: msh_auto_complete:index <- $r7
	@DEBUG_VALUE: msh_auto_complete:cmd_name <- $r6
	@DEBUG_VALUE: msh_auto_complete:min_length <- $r5
	@DEBUG_VALUE: msh_auto_complete:prefix <- $r4
	@DEBUG_VALUE: msh_auto_complete:min_length <- $r5
	@DEBUG_VALUE: msh_auto_complete:name_ptr <- $r9
	.loc	1 628 26 is_stmt 1              @ rt-thread/components/finsh/msh.c:628:26
	mov	r0, r9
	mov	r1, r6
	bl	str_common
.Ltmp172:
	@DEBUG_VALUE: msh_auto_complete:length <- $r0
	.loc	1 629 21                        @ rt-thread/components/finsh/msh.c:629:21
	cmp	r0, r5
	.loc	1 632 17                        @ rt-thread/components/finsh/msh.c:632:17
	mov	r1, r6
	.loc	1 629 21                        @ rt-thread/components/finsh/msh.c:629:21
	it	lt
	movlt	r5, r0
.Ltmp173:
	@DEBUG_VALUE: msh_auto_complete:length <- $r5
	@DEBUG_VALUE: msh_auto_complete:min_length <- $r5
	.loc	1 632 17                        @ rt-thread/components/finsh/msh.c:632:17
	mov	r0, r8
	bl	rt_kprintf
.Ltmp174:
	.p2align	2
.LBB10_9:                               @   in Loop: Header=BB10_10 Depth=1
	@DEBUG_VALUE: msh_auto_complete:name_ptr <- $r9
	@DEBUG_VALUE: msh_auto_complete:index <- $r7
	@DEBUG_VALUE: msh_auto_complete:min_length <- $r5
	@DEBUG_VALUE: msh_auto_complete:prefix <- $r4
	@DEBUG_VALUE: msh_auto_complete:min_length <- $r5
	@DEBUG_VALUE: msh_auto_complete:name_ptr <- $r9
	.loc	1 612 72                        @ rt-thread/components/finsh/msh.c:612:72
	adds	r7, #12
.Ltmp175:
	@DEBUG_VALUE: msh_auto_complete:index <- $r7
	.loc	1 612 52 is_stmt 0              @ rt-thread/components/finsh/msh.c:612:52
	ldr.w	r0, [r11]
.Ltmp176:
	.loc	1 612 9                         @ rt-thread/components/finsh/msh.c:612:9
	cmp	r7, r0
	bhs	.LBB10_15
.Ltmp177:
.LBB10_10:                              @ =>This Inner Loop Header: Depth=1
	@DEBUG_VALUE: msh_auto_complete:index <- $r7
	@DEBUG_VALUE: msh_auto_complete:prefix <- $r4
	@DEBUG_VALUE: msh_auto_complete:min_length <- $r5
	@DEBUG_VALUE: msh_auto_complete:name_ptr <- $r9
	@DEBUG_VALUE: msh_auto_complete:index <- $r7
	.loc	1 615 32 is_stmt 1              @ rt-thread/components/finsh/msh.c:615:32
	ldr	r6, [r7]
	.loc	1 615 17 is_stmt 0              @ rt-thread/components/finsh/msh.c:615:17
	movs	r2, #6
	mov	r0, r6
	mov	r1, r10
	bl	strncmp
.Ltmp178:
	.loc	1 615 17                        @ rt-thread/components/finsh/msh.c:615:17
	cmp	r0, #0
	bne	.LBB10_9
.Ltmp179:
@ %bb.11:                               @   in Loop: Header=BB10_10 Depth=1
	@DEBUG_VALUE: msh_auto_complete:name_ptr <- $r9
	@DEBUG_VALUE: msh_auto_complete:index <- $r7
	@DEBUG_VALUE: msh_auto_complete:min_length <- $r5
	@DEBUG_VALUE: msh_auto_complete:prefix <- $r4
	.loc	1 618 43 is_stmt 1              @ rt-thread/components/finsh/msh.c:618:43
	mov	r0, r4
.Ltmp180:
	.loc	1 617 40                        @ rt-thread/components/finsh/msh.c:617:40
	adds	r6, #6
.Ltmp181:
	@DEBUG_VALUE: msh_auto_complete:cmd_name <- $r6
	.loc	1 618 43                        @ rt-thread/components/finsh/msh.c:618:43
	bl	strlen
	mov	r2, r0
	.loc	1 618 17 is_stmt 0              @ rt-thread/components/finsh/msh.c:618:17
	mov	r0, r4
	mov	r1, r6
	bl	strncmp
.Ltmp182:
	.loc	1 618 17                        @ rt-thread/components/finsh/msh.c:618:17
	cmp	r0, #0
	bne	.LBB10_9
.Ltmp183:
@ %bb.12:                               @   in Loop: Header=BB10_10 Depth=1
	@DEBUG_VALUE: msh_auto_complete:name_ptr <- $r9
	@DEBUG_VALUE: msh_auto_complete:index <- $r7
	@DEBUG_VALUE: msh_auto_complete:cmd_name <- $r6
	@DEBUG_VALUE: msh_auto_complete:min_length <- $r5
	@DEBUG_VALUE: msh_auto_complete:prefix <- $r4
	.loc	1 620 21 is_stmt 1              @ rt-thread/components/finsh/msh.c:620:21
	cmp	r5, #0
	bne	.LBB10_8
.Ltmp184:
@ %bb.13:                               @   in Loop: Header=BB10_10 Depth=1
	@DEBUG_VALUE: msh_auto_complete:name_ptr <- $r9
	@DEBUG_VALUE: msh_auto_complete:index <- $r7
	@DEBUG_VALUE: msh_auto_complete:cmd_name <- $r6
	@DEBUG_VALUE: msh_auto_complete:min_length <- $r5
	@DEBUG_VALUE: msh_auto_complete:prefix <- $r4
	@DEBUG_VALUE: msh_auto_complete:name_ptr <- $r6
	.loc	1 625 34                        @ rt-thread/components/finsh/msh.c:625:34
	mov	r0, r6
	bl	strlen
	mov	r5, r0
.Ltmp185:
	@DEBUG_VALUE: msh_auto_complete:min_length <- $r5
	.loc	1 0 0 is_stmt 0                 @ rt-thread/components/finsh/msh.c:0:0
	mov	r9, r6
	b	.LBB10_8
.Ltmp186:
.LBB10_14:
	@DEBUG_VALUE: msh_auto_complete:index <- $r7
	@DEBUG_VALUE: msh_auto_complete:prefix <- $r4
	@DEBUG_VALUE: msh_auto_complete:min_length <- 0
	@DEBUG_VALUE: msh_auto_complete:name_ptr <- 0
	mov.w	r9, #0
	.loc	1 573 16 is_stmt 1              @ rt-thread/components/finsh/msh.c:573:16
	movs	r5, #0
.Ltmp187:
.LBB10_15:
	@DEBUG_VALUE: msh_auto_complete:index <- $r7
	@DEBUG_VALUE: msh_auto_complete:prefix <- $r4
	.loc	1 638 9                         @ rt-thread/components/finsh/msh.c:638:9
	cmp.w	r9, #0
	beq	.LBB10_17
.Ltmp188:
@ %bb.16:
	@DEBUG_VALUE: msh_auto_complete:index <- $r7
	@DEBUG_VALUE: msh_auto_complete:prefix <- $r4
	.loc	1 640 9                         @ rt-thread/components/finsh/msh.c:640:9
	mov	r0, r4
	mov	r1, r9
	mov	r2, r5
	bl	rt_strncpy
.Ltmp189:
.LBB10_17:
	@DEBUG_VALUE: msh_auto_complete:index <- $r7
	@DEBUG_VALUE: msh_auto_complete:prefix <- $r4
	.loc	1 644 1                         @ rt-thread/components/finsh/msh.c:644:1
	add	sp, #4
	pop.w	{r4, r5, r6, r7, r8, r9, r10, r11, pc}
.Ltmp190:
.Lfunc_end10:
	.size	msh_auto_complete, .Lfunc_end10-msh_auto_complete
	.cfi_endproc
	.cantunwind
	.fnend
                                        @ -- End function
	.section	.text.msh_get_cmd,"ax",%progbits
	.p2align	3                               @ -- Begin function msh_get_cmd
	.type	msh_get_cmd,%function
	.code	16                              @ @msh_get_cmd
	.thumb_func
msh_get_cmd:
.Lfunc_begin11:
	.loc	1 194 0                         @ rt-thread/components/finsh/msh.c:194:0
	.fnstart
	.cfi_startproc
@ %bb.0:
	@DEBUG_VALUE: msh_get_cmd:cmd <- $r0
	@DEBUG_VALUE: msh_get_cmd:size <- $r1
	.save	{r4, r5, r6, r7, r8, r9, r10, lr}
	push.w	{r4, r5, r6, r7, r8, r9, r10, lr}
	.cfi_def_cfa_offset 32
	.cfi_offset lr, -4
	.cfi_offset r10, -8
	.cfi_offset r9, -12
	.cfi_offset r8, -16
	.cfi_offset r7, -20
	.cfi_offset r6, -24
	.cfi_offset r5, -28
	.cfi_offset r4, -32
.Ltmp191:
	.loc	1 198 18 prologue_end           @ rt-thread/components/finsh/msh.c:198:18
	movw	r3, :lower16:_syscall_table_begin
.Ltmp192:
	.loc	1 199 21                        @ rt-thread/components/finsh/msh.c:199:21
	movw	r2, :lower16:_syscall_table_end
.Ltmp193:
	.loc	1 198 18                        @ rt-thread/components/finsh/msh.c:198:18
	movt	r3, :upper16:_syscall_table_begin
.Ltmp194:
	.loc	1 199 21                        @ rt-thread/components/finsh/msh.c:199:21
	movt	r2, :upper16:_syscall_table_end
.Ltmp195:
	.loc	1 198 18                        @ rt-thread/components/finsh/msh.c:198:18
	ldr	r5, [r3]
.Ltmp196:
	@DEBUG_VALUE: msh_get_cmd:index <- $r5
	.loc	1 199 21                        @ rt-thread/components/finsh/msh.c:199:21
	ldr	r3, [r2]
.Ltmp197:
	.loc	1 198 5                         @ rt-thread/components/finsh/msh.c:198:5
	cmp	r5, r3
	@DEBUG_VALUE: msh_get_cmd:size <- $r1
.Ltmp198:
	@DEBUG_VALUE: msh_get_cmd:cmd_func <- 0
	@DEBUG_VALUE: msh_get_cmd:cmd <- $r0
	bhs	.LBB11_7
.Ltmp199:
@ %bb.1:
	@DEBUG_VALUE: msh_get_cmd:index <- $r5
	@DEBUG_VALUE: msh_get_cmd:size <- $r1
	@DEBUG_VALUE: msh_get_cmd:cmd <- $r0
	@DEBUG_VALUE: msh_get_cmd:cmd_func <- 0
	.loc	1 0 5 is_stmt 0                 @ rt-thread/components/finsh/msh.c:0:5
	movw	r6, :lower16:.L.str.1
	mov	r10, r1
.Ltmp200:
	@DEBUG_VALUE: msh_get_cmd:size <- $r10
	mov	r8, r0
.Ltmp201:
	@DEBUG_VALUE: msh_get_cmd:cmd <- $r8
	@DEBUG_VALUE: msh_get_cmd:cmd <- $r8
	add.w	r9, r1, #6
	ldr	r4, [r2]
	movt	r6, :upper16:.L.str.1
	b	.LBB11_3
.Ltmp202:
	.p2align	2
.LBB11_2:                               @   in Loop: Header=BB11_3 Depth=1
	@DEBUG_VALUE: msh_get_cmd:size <- $r10
	@DEBUG_VALUE: msh_get_cmd:cmd <- $r8
	@DEBUG_VALUE: msh_get_cmd:index <- $r5
	@DEBUG_VALUE: msh_get_cmd:cmd_func <- 0
	.loc	1 200 13 is_stmt 1              @ rt-thread/components/finsh/msh.c:200:13
	adds	r5, #12
.Ltmp203:
	@DEBUG_VALUE: msh_get_cmd:index <- $r5
	.loc	1 198 5                         @ rt-thread/components/finsh/msh.c:198:5
	cmp	r5, r4
	bhs	.LBB11_7
.Ltmp204:
.LBB11_3:                               @ =>This Inner Loop Header: Depth=1
	@DEBUG_VALUE: msh_get_cmd:size <- $r10
	@DEBUG_VALUE: msh_get_cmd:cmd <- $r8
	@DEBUG_VALUE: msh_get_cmd:index <- $r5
	@DEBUG_VALUE: msh_get_cmd:cmd_func <- 0
	@DEBUG_VALUE: msh_get_cmd:index <- $r5
	.loc	1 202 28                        @ rt-thread/components/finsh/msh.c:202:28
	ldr	r7, [r5]
	.loc	1 202 13 is_stmt 0              @ rt-thread/components/finsh/msh.c:202:13
	movs	r2, #6
	mov	r0, r7
	mov	r1, r6
	bl	strncmp
.Ltmp205:
	.loc	1 202 13                        @ rt-thread/components/finsh/msh.c:202:13
	cmp	r0, #0
	bne	.LBB11_2
.Ltmp206:
@ %bb.4:                                @   in Loop: Header=BB11_3 Depth=1
	@DEBUG_VALUE: msh_get_cmd:size <- $r10
	@DEBUG_VALUE: msh_get_cmd:cmd <- $r8
	@DEBUG_VALUE: msh_get_cmd:index <- $r5
	@DEBUG_VALUE: msh_get_cmd:cmd_func <- 0
	.loc	1 204 22 is_stmt 1              @ rt-thread/components/finsh/msh.c:204:22
	adds	r0, r7, #6
	.loc	1 204 13 is_stmt 0              @ rt-thread/components/finsh/msh.c:204:13
	mov	r1, r8
	mov	r2, r10
	bl	strncmp
	.loc	1 204 54                        @ rt-thread/components/finsh/msh.c:204:54
	cmp	r0, #0
	bne	.LBB11_2
.Ltmp207:
@ %bb.5:                                @   in Loop: Header=BB11_3 Depth=1
	@DEBUG_VALUE: msh_get_cmd:size <- $r10
	@DEBUG_VALUE: msh_get_cmd:cmd <- $r8
	@DEBUG_VALUE: msh_get_cmd:index <- $r5
	@DEBUG_VALUE: msh_get_cmd:cmd_func <- 0
	.loc	1 205 17 is_stmt 1              @ rt-thread/components/finsh/msh.c:205:17
	ldrb.w	r0, [r7, r9]
.Ltmp208:
	.loc	1 204 13                        @ rt-thread/components/finsh/msh.c:204:13
	cmp	r0, #0
	bne	.LBB11_2
.Ltmp209:
@ %bb.6:
	@DEBUG_VALUE: msh_get_cmd:size <- $r10
	@DEBUG_VALUE: msh_get_cmd:cmd <- $r8
	@DEBUG_VALUE: msh_get_cmd:index <- $r5
	@DEBUG_VALUE: msh_get_cmd:cmd_func <- 0
	.loc	1 207 47                        @ rt-thread/components/finsh/msh.c:207:47
	ldr	r0, [r5, #8]
.Ltmp210:
	@DEBUG_VALUE: msh_get_cmd:cmd_func <- $r0
	@DEBUG_VALUE: msh_get_cmd:cmd_func <- $r0
	.loc	1 212 5                         @ rt-thread/components/finsh/msh.c:212:5
	pop.w	{r4, r5, r6, r7, r8, r9, r10, pc}
.Ltmp211:
.LBB11_7:
	@DEBUG_VALUE: msh_get_cmd:index <- $r5
	@DEBUG_VALUE: msh_get_cmd:cmd_func <- 0
	.loc	1 0 5 is_stmt 0                 @ rt-thread/components/finsh/msh.c:0:5
	movs	r0, #0
.Ltmp212:
	@DEBUG_VALUE: msh_get_cmd:cmd_func <- $r0
	.loc	1 212 5                         @ rt-thread/components/finsh/msh.c:212:5
	pop.w	{r4, r5, r6, r7, r8, r9, r10, pc}
.Ltmp213:
.Lfunc_end11:
	.size	msh_get_cmd, .Lfunc_end11-msh_get_cmd
	.cfi_endproc
	.cantunwind
	.fnend
                                        @ -- End function
	.section	.text.msh_split,"ax",%progbits
	.p2align	3                               @ -- Begin function msh_split
	.type	msh_split,%function
	.code	16                              @ @msh_split
	.thumb_func
msh_split:
.Lfunc_begin12:
	.loc	1 124 0 is_stmt 1               @ rt-thread/components/finsh/msh.c:124:0
	.fnstart
	.cfi_startproc
@ %bb.0:
	@DEBUG_VALUE: msh_split:cmd <- $r0
	@DEBUG_VALUE: msh_split:length <- $r1
	@DEBUG_VALUE: msh_split:length <- $r1
	@DEBUG_VALUE: msh_split:argv <- $r2
	.save	{r4, r5, r6, r7, r8, lr}
	push.w	{r4, r5, r6, r7, r8, lr}
	.cfi_def_cfa_offset 24
	.cfi_offset lr, -4
	.cfi_offset r8, -8
	.cfi_offset r7, -12
	.cfi_offset r6, -16
	.cfi_offset r5, -20
	.cfi_offset r4, -24
.Ltmp214:
	@DEBUG_VALUE: msh_split:ptr <- $r0
	.loc	1 133 5 prologue_end            @ rt-thread/components/finsh/msh.c:133:5
	cmp	r1, #0
	mov	r8, r2
.Ltmp215:
	@DEBUG_VALUE: msh_split:argv <- $r8
	@DEBUG_VALUE: msh_split:argc <- 0
	@DEBUG_VALUE: msh_split:position <- 0
	@DEBUG_VALUE: msh_split:ptr <- $r0
	@DEBUG_VALUE: msh_split:argv <- $r8
	@DEBUG_VALUE: msh_split:cmd <- $r0
	.loc	1 0 5 is_stmt 0                 @ rt-thread/components/finsh/msh.c:0:5
	mov.w	r2, #0
	mov.w	r4, #0
	.loc	1 133 5                         @ rt-thread/components/finsh/msh.c:133:5
	beq	.LBB12_26
.Ltmp216:
@ %bb.1:
	@DEBUG_VALUE: msh_split:argv <- $r8
	@DEBUG_VALUE: msh_split:length <- $r1
	@DEBUG_VALUE: msh_split:ptr <- $r0
	@DEBUG_VALUE: msh_split:cmd <- $r0
	@DEBUG_VALUE: msh_split:position <- 0
	@DEBUG_VALUE: msh_split:argc <- 0
	.loc	1 0 5                           @ rt-thread/components/finsh/msh.c:0:5
	movs	r6, #0
	b	.LBB12_5
.Ltmp217:
.LBB12_2:                               @   in Loop: Header=BB12_5 Depth=1
	@DEBUG_VALUE: msh_split:argv <- $r8
	@DEBUG_VALUE: msh_split:position <- $r6
	@DEBUG_VALUE: msh_split:argc <- $r4
	@DEBUG_VALUE: msh_split:length <- $r1
	@DEBUG_VALUE: msh_split:ptr <- $r0
	mov	r6, r3
.Ltmp218:
	.p2align	2
.LBB12_3:                               @   in Loop: Header=BB12_5 Depth=1
	@DEBUG_VALUE: msh_split:argv <- $r8
	@DEBUG_VALUE: msh_split:argc <- $r4
	@DEBUG_VALUE: msh_split:length <- $r1
	@DEBUG_VALUE: msh_split:ptr <- $r0
	.loc	1 186 17 is_stmt 1              @ rt-thread/components/finsh/msh.c:186:17
	cmp	r6, r1
	bhs	.LBB12_26
.Ltmp219:
@ %bb.4:                                @   in Loop: Header=BB12_5 Depth=1
	@DEBUG_VALUE: msh_split:argv <- $r8
	@DEBUG_VALUE: msh_split:argc <- $r4
	@DEBUG_VALUE: msh_split:length <- $r1
	@DEBUG_VALUE: msh_split:ptr <- $r0
	@DEBUG_VALUE: msh_split:ptr <- $r0
	@DEBUG_VALUE: msh_split:position <- $r6
	@DEBUG_VALUE: msh_split:argc <- $r4
	.loc	1 133 5                         @ rt-thread/components/finsh/msh.c:133:5
	cmp	r6, r1
	bhs	.LBB12_26
.Ltmp220:
.LBB12_5:                               @ =>This Loop Header: Depth=1
                                        @     Child Loop BB12_6 Depth 2
                                        @     Child Loop BB12_21 Depth 2
                                        @     Child Loop BB12_16 Depth 2
	@DEBUG_VALUE: msh_split:argv <- $r8
	@DEBUG_VALUE: msh_split:length <- $r1
	@DEBUG_VALUE: msh_split:ptr <- $r0
	@DEBUG_VALUE: msh_split:ptr <- $r0
	@DEBUG_VALUE: msh_split:position <- $r6
	@DEBUG_VALUE: msh_split:argc <- $r4
	.loc	1 136 9                         @ rt-thread/components/finsh/msh.c:136:9
	mov	r3, r1
	cmp	r6, r1
	it	hi
	movhi	r3, r6
.Ltmp221:
	.p2align	2
.LBB12_6:                               @   Parent Loop BB12_5 Depth=1
                                        @ =>  This Inner Loop Header: Depth=2
	@DEBUG_VALUE: msh_split:argv <- $r8
	@DEBUG_VALUE: msh_split:position <- $r6
	@DEBUG_VALUE: msh_split:argc <- $r4
	@DEBUG_VALUE: msh_split:length <- $r1
	@DEBUG_VALUE: msh_split:ptr <- $r0
	adds	r0, #1
.Ltmp222:
	@DEBUG_VALUE: msh_split:cmd <- [DW_OP_LLVM_entry_value 1] $r0
	@DEBUG_VALUE: msh_split:ptr <- [DW_OP_constu 1, DW_OP_minus, DW_OP_stack_value] $r0
	@DEBUG_VALUE: msh_split:position <- $r6
	.loc	1 136 17 is_stmt 0              @ rt-thread/components/finsh/msh.c:136:17
	ldrb	r7, [r0, #-1]
	.loc	1 136 29                        @ rt-thread/components/finsh/msh.c:136:29
	cmp	r7, #32
	beq	.LBB12_8
.Ltmp223:
@ %bb.7:                                @   in Loop: Header=BB12_6 Depth=2
	@DEBUG_VALUE: msh_split:argv <- $r8
	@DEBUG_VALUE: msh_split:position <- $r6
	@DEBUG_VALUE: msh_split:argc <- $r4
	@DEBUG_VALUE: msh_split:length <- $r1
	@DEBUG_VALUE: msh_split:ptr <- [DW_OP_constu 1, DW_OP_minus, DW_OP_stack_value] $r0
	cmp	r7, #9
	bne	.LBB12_11
.Ltmp224:
.LBB12_8:                               @   in Loop: Header=BB12_6 Depth=2
	@DEBUG_VALUE: msh_split:argv <- $r8
	@DEBUG_VALUE: msh_split:position <- $r6
	@DEBUG_VALUE: msh_split:argc <- $r4
	@DEBUG_VALUE: msh_split:length <- $r1
	@DEBUG_VALUE: msh_split:ptr <- [DW_OP_constu 1, DW_OP_minus, DW_OP_stack_value] $r0
	.loc	1 136 9                         @ rt-thread/components/finsh/msh.c:136:9
	cmp	r3, r6
	beq	.LBB12_10
.Ltmp225:
@ %bb.9:                                @   in Loop: Header=BB12_6 Depth=2
	@DEBUG_VALUE: msh_split:argv <- $r8
	@DEBUG_VALUE: msh_split:position <- $r6
	@DEBUG_VALUE: msh_split:argc <- $r4
	@DEBUG_VALUE: msh_split:length <- $r1
	@DEBUG_VALUE: msh_split:ptr <- [DW_OP_constu 1, DW_OP_minus, DW_OP_stack_value] $r0
	.loc	1 138 18 is_stmt 1              @ rt-thread/components/finsh/msh.c:138:18
	strb	r2, [r0, #-1]
.Ltmp226:
	@DEBUG_VALUE: msh_split:ptr <- $r0
	.loc	1 139 30                        @ rt-thread/components/finsh/msh.c:139:30
	adds	r6, #1
.Ltmp227:
	@DEBUG_VALUE: msh_split:position <- $r6
	.loc	1 0 30 is_stmt 0                @ rt-thread/components/finsh/msh.c:0:30
	b	.LBB12_6
.Ltmp228:
	.p2align	2
.LBB12_10:                              @   in Loop: Header=BB12_5 Depth=1
	@DEBUG_VALUE: msh_split:argv <- $r8
	@DEBUG_VALUE: msh_split:position <- $r6
	@DEBUG_VALUE: msh_split:argc <- $r4
	@DEBUG_VALUE: msh_split:length <- $r1
	@DEBUG_VALUE: msh_split:ptr <- [DW_OP_constu 1, DW_OP_minus, DW_OP_stack_value] $r0
	mov	r6, r3
.Ltmp229:
.LBB12_11:                              @   in Loop: Header=BB12_5 Depth=1
	@DEBUG_VALUE: msh_split:argv <- $r8
	@DEBUG_VALUE: msh_split:argc <- $r4
	@DEBUG_VALUE: msh_split:length <- $r1
	@DEBUG_VALUE: msh_split:ptr <- [DW_OP_constu 1, DW_OP_minus, DW_OP_stack_value] $r0
	.loc	1 142 12 is_stmt 1              @ rt-thread/components/finsh/msh.c:142:12
	cmp	r4, #10
	bhs	.LBB12_27
.Ltmp230:
@ %bb.12:                               @   in Loop: Header=BB12_5 Depth=1
	@DEBUG_VALUE: msh_split:argv <- $r8
	@DEBUG_VALUE: msh_split:argc <- $r4
	@DEBUG_VALUE: msh_split:length <- $r1
	@DEBUG_VALUE: msh_split:ptr <- [DW_OP_constu 1, DW_OP_minus, DW_OP_stack_value] $r0
	.loc	1 153 13                        @ rt-thread/components/finsh/msh.c:153:13
	cmp	r6, r1
	bhs	.LBB12_26
.Ltmp231:
@ %bb.13:                               @   in Loop: Header=BB12_5 Depth=1
	@DEBUG_VALUE: msh_split:argv <- $r8
	@DEBUG_VALUE: msh_split:argc <- $r4
	@DEBUG_VALUE: msh_split:length <- $r1
	@DEBUG_VALUE: msh_split:ptr <- [DW_OP_constu 1, DW_OP_minus, DW_OP_stack_value] $r0
	.loc	1 156 13                        @ rt-thread/components/finsh/msh.c:156:13
	cmp	r7, #34
	bne	.LBB12_20
.Ltmp232:
@ %bb.14:                               @   in Loop: Header=BB12_5 Depth=1
	@DEBUG_VALUE: msh_split:argv <- $r8
	@DEBUG_VALUE: msh_split:argc <- $r4
	@DEBUG_VALUE: msh_split:length <- $r1
	@DEBUG_VALUE: msh_split:ptr <- [DW_OP_constu 1, DW_OP_minus, DW_OP_stack_value] $r0
	@DEBUG_VALUE: msh_split:ptr <- [DW_OP_plus_uconst 1, DW_OP_stack_value] undef
	@DEBUG_VALUE: msh_split:position <- [DW_OP_plus_uconst 1, DW_OP_stack_value] $r6
	.loc	1 159 24                        @ rt-thread/components/finsh/msh.c:159:24
	str.w	r0, [r8, r4, lsl #2]
.Ltmp233:
	@DEBUG_VALUE: msh_split:argc <- undef
	.loc	1 0 0 is_stmt 0                 @ rt-thread/components/finsh/msh.c:0:0
	adds	r3, r6, #1
.Ltmp234:
	@DEBUG_VALUE: msh_split:position <- $r3
	@DEBUG_VALUE: msh_split:ptr <- [DW_OP_plus_uconst 1, DW_OP_stack_value] undef
	.loc	1 162 20 is_stmt 1              @ rt-thread/components/finsh/msh.c:162:20
	ldrb	r7, [r0]
	b	.LBB12_16
.Ltmp235:
	.p2align	2
.LBB12_15:                              @   in Loop: Header=BB12_16 Depth=2
	@DEBUG_VALUE: msh_split:argv <- $r8
	@DEBUG_VALUE: msh_split:length <- $r1
	ldrb	r7, [r0, #1]!
.Ltmp236:
	@DEBUG_VALUE: msh_split:ptr <- $r0
	.loc	1 0 0 is_stmt 0                 @ rt-thread/components/finsh/msh.c:0:0
	mov	r6, r3
	@DEBUG_VALUE: msh_split:ptr <- $r0
.Ltmp237:
	@DEBUG_VALUE: msh_split:position <- [DW_OP_plus_uconst 1, DW_OP_stack_value] $r6
	adds	r3, #1
.Ltmp238:
	@DEBUG_VALUE: msh_split:position <- $r3
.LBB12_16:                              @   Parent Loop BB12_5 Depth=1
                                        @ =>  This Inner Loop Header: Depth=2
	@DEBUG_VALUE: msh_split:argv <- $r8
	@DEBUG_VALUE: msh_split:position <- $r3
	@DEBUG_VALUE: msh_split:length <- $r1
	.loc	1 162 32                        @ rt-thread/components/finsh/msh.c:162:32
	movs	r5, #0
	cmp	r3, r1
	it	lo
	movlo	r5, #1
	.loc	1 162 13                        @ rt-thread/components/finsh/msh.c:162:13
	cmp	r7, #34
	beq	.LBB12_24
.Ltmp239:
@ %bb.17:                               @   in Loop: Header=BB12_16 Depth=2
	@DEBUG_VALUE: msh_split:argv <- $r8
	@DEBUG_VALUE: msh_split:position <- $r3
	@DEBUG_VALUE: msh_split:length <- $r1
	cmp	r3, r1
	bhs	.LBB12_24
.Ltmp240:
@ %bb.18:                               @   in Loop: Header=BB12_16 Depth=2
	@DEBUG_VALUE: msh_split:argv <- $r8
	@DEBUG_VALUE: msh_split:position <- $r3
	@DEBUG_VALUE: msh_split:length <- $r1
	@DEBUG_VALUE: msh_split:ptr <- $r0
	.loc	1 164 21 is_stmt 1              @ rt-thread/components/finsh/msh.c:164:21
	cmp	r7, #92
	bne	.LBB12_15
.Ltmp241:
@ %bb.19:                               @   in Loop: Header=BB12_16 Depth=2
	@DEBUG_VALUE: msh_split:argv <- $r8
	@DEBUG_VALUE: msh_split:position <- $r3
	@DEBUG_VALUE: msh_split:length <- $r1
	@DEBUG_VALUE: msh_split:ptr <- $r0
	.loc	1 166 25                        @ rt-thread/components/finsh/msh.c:166:25
	mov	r7, r0
	ldrb	r5, [r7, #1]!
.Ltmp242:
	.loc	1 166 25 is_stmt 0              @ rt-thread/components/finsh/msh.c:166:25
	cmp	r5, #34
	itt	eq
	addeq	r3, r6, #2
.Ltmp243:
	moveq	r0, r7
.Ltmp244:
	.loc	1 0 25                          @ rt-thread/components/finsh/msh.c:0:25
	b	.LBB12_15
.Ltmp245:
	.p2align	2
.LBB12_20:                              @   in Loop: Header=BB12_5 Depth=1
	@DEBUG_VALUE: msh_split:argv <- $r8
	@DEBUG_VALUE: msh_split:argc <- $r4
	@DEBUG_VALUE: msh_split:length <- $r1
	@DEBUG_VALUE: msh_split:ptr <- [DW_OP_constu 1, DW_OP_minus, DW_OP_stack_value] $r0
	subs	r0, #1
.Ltmp246:
	.loc	1 180 24 is_stmt 1              @ rt-thread/components/finsh/msh.c:180:24
	str.w	r0, [r8, r4, lsl #2]
	.loc	1 181 18                        @ rt-thread/components/finsh/msh.c:181:18
	adds	r4, #1
.Ltmp247:
	@DEBUG_VALUE: msh_split:argc <- $r4
	.loc	1 182 13                        @ rt-thread/components/finsh/msh.c:182:13
	mov	r3, r1
	cmp	r6, r1
	it	hi
	movhi	r3, r6
.Ltmp248:
.LBB12_21:                              @   Parent Loop BB12_5 Depth=1
                                        @ =>  This Inner Loop Header: Depth=2
	@DEBUG_VALUE: msh_split:argv <- $r8
	@DEBUG_VALUE: msh_split:argc <- $r4
	@DEBUG_VALUE: msh_split:length <- $r1
	@DEBUG_VALUE: msh_split:ptr <- $r0
	@DEBUG_VALUE: msh_split:position <- $r6
	.loc	1 182 21 is_stmt 0              @ rt-thread/components/finsh/msh.c:182:21
	ldrb	r7, [r0]
	.loc	1 182 33                        @ rt-thread/components/finsh/msh.c:182:33
	cmp	r7, #9
	it	ne
	cmpne	r7, #32
	beq	.LBB12_3
.Ltmp249:
@ %bb.22:                               @   in Loop: Header=BB12_21 Depth=2
	@DEBUG_VALUE: msh_split:argv <- $r8
	@DEBUG_VALUE: msh_split:position <- $r6
	@DEBUG_VALUE: msh_split:argc <- $r4
	@DEBUG_VALUE: msh_split:length <- $r1
	@DEBUG_VALUE: msh_split:ptr <- $r0
	.loc	1 182 13                        @ rt-thread/components/finsh/msh.c:182:13
	cmp	r3, r6
	beq	.LBB12_2
.Ltmp250:
@ %bb.23:                               @   in Loop: Header=BB12_21 Depth=2
	@DEBUG_VALUE: msh_split:argv <- $r8
	@DEBUG_VALUE: msh_split:position <- $r6
	@DEBUG_VALUE: msh_split:argc <- $r4
	@DEBUG_VALUE: msh_split:length <- $r1
	@DEBUG_VALUE: msh_split:ptr <- $r0
	.loc	1 184 21 is_stmt 1              @ rt-thread/components/finsh/msh.c:184:21
	adds	r0, #1
.Ltmp251:
	@DEBUG_VALUE: msh_split:ptr <- $r0
	.loc	1 184 34 is_stmt 0              @ rt-thread/components/finsh/msh.c:184:34
	adds	r6, #1
.Ltmp252:
	@DEBUG_VALUE: msh_split:position <- $r6
	.loc	1 0 34                          @ rt-thread/components/finsh/msh.c:0:34
	b	.LBB12_21
.Ltmp253:
	.p2align	2
.LBB12_24:                              @   in Loop: Header=BB12_5 Depth=1
	@DEBUG_VALUE: msh_split:argv <- $r8
	@DEBUG_VALUE: msh_split:position <- $r3
	@DEBUG_VALUE: msh_split:length <- $r1
	add.w	r4, r4, #1
.Ltmp254:
	@DEBUG_VALUE: msh_split:argc <- $r4
	.loc	1 173 17 is_stmt 1              @ rt-thread/components/finsh/msh.c:173:17
	cbz	r5, .LBB12_26
.Ltmp255:
@ %bb.25:                               @   in Loop: Header=BB12_5 Depth=1
	@DEBUG_VALUE: msh_split:argv <- $r8
	@DEBUG_VALUE: msh_split:argc <- $r4
	@DEBUG_VALUE: msh_split:position <- $r3
	@DEBUG_VALUE: msh_split:length <- $r1
	.loc	1 176 18                        @ rt-thread/components/finsh/msh.c:176:18
	strb	r2, [r0], #1
.Ltmp256:
	@DEBUG_VALUE: msh_split:ptr <- $r0
	.loc	1 176 43 is_stmt 0              @ rt-thread/components/finsh/msh.c:176:43
	adds	r6, #2
.Ltmp257:
	@DEBUG_VALUE: msh_split:position <- $r6
	@DEBUG_VALUE: msh_split:ptr <- $r0
	@DEBUG_VALUE: msh_split:position <- $r6
	@DEBUG_VALUE: msh_split:argc <- $r4
	.loc	1 133 5 is_stmt 1               @ rt-thread/components/finsh/msh.c:133:5
	cmp	r6, r1
	blo	.LBB12_5
.Ltmp258:
.LBB12_26:
	@DEBUG_VALUE: msh_split:argv <- $r8
	@DEBUG_VALUE: msh_split:length <- $r1
	@DEBUG_VALUE: msh_split:argc <- $r4
	.loc	1 190 5                         @ rt-thread/components/finsh/msh.c:190:5
	mov	r0, r4
	pop.w	{r4, r5, r6, r7, r8, pc}
.Ltmp259:
.LBB12_27:
	@DEBUG_VALUE: msh_split:argv <- $r8
	@DEBUG_VALUE: msh_split:argc <- $r4
	@DEBUG_VALUE: msh_split:length <- $r1
	@DEBUG_VALUE: msh_split:ptr <- [DW_OP_constu 1, DW_OP_minus, DW_OP_stack_value] $r0
	.loc	1 144 13                        @ rt-thread/components/finsh/msh.c:144:13
	adr	r0, .LCPI12_0
.Ltmp260:
	bl	rt_kprintf
.Ltmp261:
	@DEBUG_VALUE: msh_split:length <- [DW_OP_LLVM_entry_value 1] $r1
	@DEBUG_VALUE: msh_split:length <- [DW_OP_LLVM_entry_value 1] $r1
	@DEBUG_VALUE: msh_split:length <- [DW_OP_LLVM_entry_value 1] $r1
	.loc	1 0 13 is_stmt 0                @ rt-thread/components/finsh/msh.c:0:13
	movs	r5, #0
.Ltmp262:
	@DEBUG_VALUE: msh_split:i <- 0
	adr	r6, .LCPI12_1
.Ltmp263:
	.p2align	2
.LBB12_28:                              @ =>This Inner Loop Header: Depth=1
	@DEBUG_VALUE: msh_split:argv <- $r8
	@DEBUG_VALUE: msh_split:argc <- $r4
	@DEBUG_VALUE: msh_split:length <- [DW_OP_LLVM_entry_value 1] $r1
	@DEBUG_VALUE: msh_split:i <- $r5
	.loc	1 147 35 is_stmt 1              @ rt-thread/components/finsh/msh.c:147:35
	ldr.w	r1, [r8, r5, lsl #2]
	.loc	1 147 17 is_stmt 0              @ rt-thread/components/finsh/msh.c:147:17
	mov	r0, r6
	bl	rt_kprintf
.Ltmp264:
	.loc	1 145 35 is_stmt 1              @ rt-thread/components/finsh/msh.c:145:35
	adds	r5, #1
.Ltmp265:
	@DEBUG_VALUE: msh_split:i <- $r5
	.loc	1 145 13 is_stmt 0              @ rt-thread/components/finsh/msh.c:145:13
	cmp	r4, r5
	bne	.LBB12_28
.Ltmp266:
@ %bb.29:
	@DEBUG_VALUE: msh_split:argv <- $r8
	@DEBUG_VALUE: msh_split:i <- $r5
	@DEBUG_VALUE: msh_split:argc <- $r4
	@DEBUG_VALUE: msh_split:length <- [DW_OP_LLVM_entry_value 1] $r1
	.loc	1 149 13 is_stmt 1              @ rt-thread/components/finsh/msh.c:149:13
	movw	r0, :lower16:.L.str.3
	movt	r0, :upper16:.L.str.3
	bl	rt_kprintf
.Ltmp267:
	@DEBUG_VALUE: msh_split:argc <- $r4
	.loc	1 190 5                         @ rt-thread/components/finsh/msh.c:190:5
	mov	r0, r4
	pop.w	{r4, r5, r6, r7, r8, pc}
.Ltmp268:
	.p2align	2
@ %bb.30:
	.loc	1 0 5 is_stmt 0                 @ rt-thread/components/finsh/msh.c:0:5
.LCPI12_0:
.L.str.9:
	.asciz	"Too many args ! We only Use:\n\000\000"
.LCPI12_1:
.L.str.10:
	.asciz	"%s "
.Lfunc_end12:
	.size	msh_split, .Lfunc_end12-msh_split
	.cfi_endproc
	.cantunwind
	.fnend
                                        @ -- End function
	.type	__msh_state,%object             @ @__msh_state
	.section	.bss.__msh_state,"aw",%nobits
	.p2align	2
__msh_state:
	.byte	0                               @ 0x0
	.size	__msh_state, 1

	.hidden	__fsym___cmd_exit_name          @ @__fsym___cmd_exit_name
	.type	__fsym___cmd_exit_name,%object
	.section	.rodata.name,"a",%progbits
	.globl	__fsym___cmd_exit_name
__fsym___cmd_exit_name:
	.asciz	"__cmd_exit"
	.size	__fsym___cmd_exit_name, 11

	.hidden	__fsym___cmd_exit_desc          @ @__fsym___cmd_exit_desc
	.type	__fsym___cmd_exit_desc,%object
	.globl	__fsym___cmd_exit_desc
__fsym___cmd_exit_desc:
	.asciz	"return to RT-Thread shell mode."
	.size	__fsym___cmd_exit_desc, 32

	.hidden	__fsym___cmd_exit               @ @__fsym___cmd_exit
	.type	__fsym___cmd_exit,%object
	.section	FSymTab,"a",%progbits
	.globl	__fsym___cmd_exit
	.p2align	2
__fsym___cmd_exit:
__tagsym$$used.0:
	.long	__fsym___cmd_exit_name
	.long	__fsym___cmd_exit_desc
	.long	msh_exit
	.size	__fsym___cmd_exit, 12

	.hidden	__fsym_msh_name                 @ @__fsym_msh_name
	.type	__fsym_msh_name,%object
	.section	.rodata.name,"a",%progbits
	.globl	__fsym_msh_name
__fsym_msh_name:
	.asciz	"msh"
	.size	__fsym_msh_name, 4

	.hidden	__fsym_msh_desc                 @ @__fsym_msh_desc
	.type	__fsym_msh_desc,%object
	.globl	__fsym_msh_desc
__fsym_msh_desc:
	.asciz	"use module shell"
	.size	__fsym_msh_desc, 17

	.hidden	__fsym_msh                      @ @__fsym_msh
	.type	__fsym_msh,%object
	.section	FSymTab,"a",%progbits
	.globl	__fsym_msh
	.p2align	2
__fsym_msh:
__tagsym$$used.1:
	.long	__fsym_msh_name
	.long	__fsym_msh_desc
	.long	msh_enter
	.size	__fsym_msh, 12

	.type	.L.str.1,%object                @ @.str.1
	.section	.rodata.str1.1,"aMS",%progbits,1
.L.str.1:
	.asciz	"__cmd_"
	.size	.L.str.1, 7

	.type	.L.str.3,%object                @ @.str.3
.L.str.3:
	.asciz	"\n"
	.size	.L.str.3, 2

	.hidden	__fsym___cmd_help_name          @ @__fsym___cmd_help_name
	.type	__fsym___cmd_help_name,%object
	.section	.rodata.name,"a",%progbits
	.globl	__fsym___cmd_help_name
__fsym___cmd_help_name:
	.asciz	"__cmd_help"
	.size	__fsym___cmd_help_name, 11

	.hidden	__fsym___cmd_help_desc          @ @__fsym___cmd_help_desc
	.type	__fsym___cmd_help_desc,%object
	.globl	__fsym___cmd_help_desc
__fsym___cmd_help_desc:
	.asciz	"RT-Thread shell help."
	.size	__fsym___cmd_help_desc, 22

	.hidden	__fsym___cmd_help               @ @__fsym___cmd_help
	.type	__fsym___cmd_help,%object
	.section	FSymTab,"a",%progbits
	.globl	__fsym___cmd_help
	.p2align	2
__fsym___cmd_help:
__tagsym$$used.2:
	.long	__fsym___cmd_help_name
	.long	__fsym___cmd_help_desc
	.long	msh_help
	.size	__fsym___cmd_help, 12

	.hidden	__fsym___cmd_ps_name            @ @__fsym___cmd_ps_name
	.type	__fsym___cmd_ps_name,%object
	.section	.rodata.name,"a",%progbits
	.globl	__fsym___cmd_ps_name
__fsym___cmd_ps_name:
	.asciz	"__cmd_ps"
	.size	__fsym___cmd_ps_name, 9

	.hidden	__fsym___cmd_ps_desc            @ @__fsym___cmd_ps_desc
	.type	__fsym___cmd_ps_desc,%object
	.globl	__fsym___cmd_ps_desc
__fsym___cmd_ps_desc:
	.asciz	"List threads in the system."
	.size	__fsym___cmd_ps_desc, 28

	.hidden	__fsym___cmd_ps                 @ @__fsym___cmd_ps
	.type	__fsym___cmd_ps,%object
	.section	FSymTab,"a",%progbits
	.globl	__fsym___cmd_ps
	.p2align	2
__fsym___cmd_ps:
__tagsym$$used.3:
	.long	__fsym___cmd_ps_name
	.long	__fsym___cmd_ps_desc
	.long	cmd_ps
	.size	__fsym___cmd_ps, 12

	.hidden	__fsym___cmd_free_name          @ @__fsym___cmd_free_name
	.type	__fsym___cmd_free_name,%object
	.section	.rodata.name,"a",%progbits
	.globl	__fsym___cmd_free_name
__fsym___cmd_free_name:
	.asciz	"__cmd_free"
	.size	__fsym___cmd_free_name, 11

	.hidden	__fsym___cmd_free_desc          @ @__fsym___cmd_free_desc
	.type	__fsym___cmd_free_desc,%object
	.globl	__fsym___cmd_free_desc
__fsym___cmd_free_desc:
	.asciz	"Show the memory usage in the system."
	.size	__fsym___cmd_free_desc, 37

	.hidden	__fsym___cmd_free               @ @__fsym___cmd_free
	.type	__fsym___cmd_free,%object
	.section	FSymTab,"a",%progbits
	.globl	__fsym___cmd_free
	.p2align	2
__fsym___cmd_free:
__tagsym$$used.4:
	.long	__fsym___cmd_free_name
	.long	__fsym___cmd_free_desc
	.long	cmd_free
	.size	__fsym___cmd_free, 12

	.type	.L.str.6,%object                @ @.str.6
	.section	.rodata.str1.1,"aMS",%progbits,1
.L.str.6:
	.asciz	"%s\n"
	.size	.L.str.6, 4

	.type	.L__FUNCTION__._msh_exec_cmd,%object @ @__FUNCTION__._msh_exec_cmd
.L__FUNCTION__._msh_exec_cmd:
	.asciz	"_msh_exec_cmd"
	.size	.L__FUNCTION__._msh_exec_cmd, 14

	.globl	__fsym___cmd_exit
	.globl	__fsym___cmd_free
	.globl	__fsym___cmd_help
	.globl	__fsym___cmd_ps
	.globl	__fsym_msh
	.file	4 "D:\\Keil_v5\\ARM\\ARMCLANG\\Bin\\..\\include" "stdint.h"
	.file	5 "E:\\Smart-access-control\\Hardware\\CODE" "rt-thread/components/dfs/include\\dfs.h"
	.file	6 "E:\\Smart-access-control\\Hardware\\CODE" "rt-thread/components/dfs/include\\dfs_posix.h"
	.section	".note.GNU-stack","",%progbits
	.eabi_attribute	30, 1	@ Tag_ABI_optimization_goals
	.ARM_attribute	16, 1	@ Tag_AV_eba