	.text
	.syntax unified
	.eabi_attribute	67, "2.09"	@ Tag_conformance
	.cpu	cortex-m7
	.eabi_attribute	6, 13	@ Tag_CPU_arch
	.eabi_attribute	7, 77	@ Tag_CPU_arch_profile
	.eabi_attribute	8, 0	@ Tag_ARM_ISA_use
	.eabi_attribute	9, 2	@ Tag_THUMB_ISA_use
	.fpu	fpv5-d16
	.eabi_attribute	36, 1	@ Tag_FP_HP_extension
	.eabi_attribute	34, 1	@ Tag_CPU_unaligned_access
	.eabi_attribute	17, 1	@ Tag_ABI_PCS_GOT_use
	.eabi_attribute	20, 2	@ Tag_ABI_FP_denormal
	.eabi_attribute	21, 0	@ Tag_ABI_FP_exceptions
	.eabi_attribute	23, 1	@ Tag_ABI_FP_number_model
	.eabi_attribute	24, 1	@ Tag_ABI_align_needed
	.eabi_attribute	25, 1	@ Tag_ABI_align_preserved
	.eabi_attribute	28, 1	@ Tag_ABI_VFP_args
	.eabi_attribute	38, 1	@ Tag_ABI_FP_16bit_format
	.eabi_attribute	18, 2	@ Tag_ABI_PCS_wchar_t
	.eabi_attribute	26, 1	@ Tag_ABI_enum_size
	.eabi_attribute	14, 0	@ Tag_ABI_PCS_R9_use
	.file	"msh_file.c"
	.file	1 "E:\\Smart-access-control\\Hardware\\CODE" "rt-thread/components/finsh/msh_file.c"
	.file	2 "E:\\Smart-access-control\\Hardware\\CODE" "rt-thread/components/finsh/finsh_api.h"
	.section	.text.msh_exec_script,"ax",%progbits
	.hidden	msh_exec_script                 @ -- Begin function msh_exec_script
	.globl	msh_exec_script
	.p2align	3
	.type	msh_exec_script,%function
	.code	16                              @ @msh_exec_script
	.thumb_func
msh_exec_script:
.Lfunc_begin0:
	.loc	1 60 0                          @ rt-thread/components/finsh/msh_file.c:60:0
	.fnstart
	.cfi_sections .debug_frame
	.cfi_startproc
@ %bb.0:
	@DEBUG_VALUE: msh_exec_script:cmd_line <- $r0
	@DEBUG_VALUE: msh_exec_script:size <- $r1
	@DEBUG_VALUE: msh_exec_script:size <- $r1
	.save	{r4, r5, r6, r7, lr}
	push	{r4, r5, r6, r7, lr}
	.cfi_def_cfa_offset 20
	.cfi_offset lr, -4
	.cfi_offset r7, -8
	.cfi_offset r6, -12
	.cfi_offset r5, -16
	.cfi_offset r4, -20
	.pad	#4
	sub	sp, #4
	.cfi_def_cfa_offset 24
.Ltmp0:
	.loc	1 66 9 prologue_end             @ rt-thread/components/finsh/msh_file.c:66:9
	cmp	r1, #0
.Ltmp1:
	@DEBUG_VALUE: msh_exec_script:cmd_length <- 0
	@DEBUG_VALUE: msh_exec_script:fd <- -1
	@DEBUG_VALUE: msh_exec_script:cmd_line <- $r0
	beq	.LBB0_23
.Ltmp2:
@ %bb.1:
	@DEBUG_VALUE: msh_exec_script:size <- $r1
	@DEBUG_VALUE: msh_exec_script:cmd_line <- $r0
	@DEBUG_VALUE: msh_exec_script:fd <- -1
	@DEBUG_VALUE: msh_exec_script:cmd_length <- 0
	.loc	1 0 9 is_stmt 0                 @ rt-thread/components/finsh/msh_file.c:0:9
	mov	r4, r0
.Ltmp3:
	@DEBUG_VALUE: msh_exec_script:cmd_line <- $r4
	@DEBUG_VALUE: msh_exec_script:cmd_line <- $r4
	.loc	1 69 5 is_stmt 1                @ rt-thread/components/finsh/msh_file.c:69:5
	bic.w	r0, r1, r1, asr #31
	movs	r5, #0
	b	.LBB0_4
.Ltmp4:
	.p2align	2
.LBB0_2:                                @   in Loop: Header=BB0_4 Depth=1
	@DEBUG_VALUE: msh_exec_script:cmd_length <- $r5
	@DEBUG_VALUE: msh_exec_script:cmd_line <- $r4
	@DEBUG_VALUE: msh_exec_script:fd <- -1
	cmp	r0, r5
	beq	.LBB0_26
.Ltmp5:
@ %bb.3:                                @   in Loop: Header=BB0_4 Depth=1
	@DEBUG_VALUE: msh_exec_script:cmd_length <- $r5
	@DEBUG_VALUE: msh_exec_script:cmd_line <- $r4
	@DEBUG_VALUE: msh_exec_script:fd <- -1
	.loc	1 70 20                         @ rt-thread/components/finsh/msh_file.c:70:20
	adds	r5, #1
.Ltmp6:
	@DEBUG_VALUE: msh_exec_script:cmd_length <- $r5
.LBB0_4:                                @ =>This Inner Loop Header: Depth=1
	@DEBUG_VALUE: msh_exec_script:cmd_line <- $r4
	@DEBUG_VALUE: msh_exec_script:fd <- -1
	@DEBUG_VALUE: msh_exec_script:cmd_length <- $r5
	.loc	1 69 13                         @ rt-thread/components/finsh/msh_file.c:69:13
	ldrb	r1, [r4, r5]
.Ltmp7:
	@DEBUG_VALUE: msh_exec_script:size <- [DW_OP_LLVM_entry_value 1] $r1
	.loc	1 69 41 is_stmt 0               @ rt-thread/components/finsh/msh_file.c:69:41
	cmp	r1, #9
	it	ne
	cmpne	r1, #32
	bne	.LBB0_2
.Ltmp8:
.LBB0_5:
	@DEBUG_VALUE: msh_exec_script:cmd_line <- $r4
	@DEBUG_VALUE: msh_exec_script:fd <- -1
	.loc	1 73 25 is_stmt 1               @ rt-thread/components/finsh/msh_file.c:73:25
	add.w	r0, r5, #32
.Ltmp9:
	@DEBUG_VALUE: msh_exec_script:length <- $r0
	.loc	1 76 24                         @ rt-thread/components/finsh/msh_file.c:76:24
	bl	rt_malloc
.Ltmp10:
	@DEBUG_VALUE: msh_exec_script:pg_name <- $r0
	.loc	1 0 24 is_stmt 0                @ rt-thread/components/finsh/msh_file.c:0:24
	cbz	r0, .LBB0_14
.Ltmp11:
@ %bb.6:
	@DEBUG_VALUE: msh_exec_script:cmd_line <- $r4
	@DEBUG_VALUE: msh_exec_script:pg_name <- $r0
	@DEBUG_VALUE: msh_exec_script:fd <- -1
	.loc	1 80 5 is_stmt 1                @ rt-thread/components/finsh/msh_file.c:80:5
	mov	r1, r4
	mov	r2, r5
	.loc	1 0 0 is_stmt 0                 @ rt-thread/components/finsh/msh_file.c:0:0
	mov	r7, r0
.Ltmp12:
	@DEBUG_VALUE: msh_exec_script:pg_name <- $r7
	.loc	1 80 5                          @ rt-thread/components/finsh/msh_file.c:80:5
	bl	__aeabi_memcpy
	movs	r0, #0
	.loc	1 81 25 is_stmt 1               @ rt-thread/components/finsh/msh_file.c:81:25
	strb	r0, [r7, r5]
.Ltmp13:
	.loc	1 83 9                          @ rt-thread/components/finsh/msh_file.c:83:9
	adr	r1, .LCPI0_0
	mov	r0, r7
	bl	strstr
	.loc	1 83 43 is_stmt 0               @ rt-thread/components/finsh/msh_file.c:83:43
	cbnz	r0, .LBB0_8
.Ltmp14:
@ %bb.7:
	@DEBUG_VALUE: msh_exec_script:pg_name <- $r7
	@DEBUG_VALUE: msh_exec_script:cmd_line <- $r4
	@DEBUG_VALUE: msh_exec_script:fd <- -1
	.loc	1 83 46                         @ rt-thread/components/finsh/msh_file.c:83:46
	adr	r1, .LCPI0_1
	mov	r0, r7
	bl	strstr
.Ltmp15:
	.loc	1 83 9                          @ rt-thread/components/finsh/msh_file.c:83:9
	cbz	r0, .LBB0_10
.Ltmp16:
.LBB0_8:
	@DEBUG_VALUE: msh_exec_script:pg_name <- $r7
	@DEBUG_VALUE: msh_exec_script:cmd_line <- $r4
	@DEBUG_VALUE: msh_exec_script:fd <- -1
	.loc	1 86 14 is_stmt 1               @ rt-thread/components/finsh/msh_file.c:86:14
	movs	r1, #0
	movs	r2, #0
	mov	r0, r7
	bl	open
	mov	r6, r0
.Ltmp17:
	@DEBUG_VALUE: msh_exec_script:fd <- $r6
	.loc	1 89 13                         @ rt-thread/components/finsh/msh_file.c:89:13
	cmp.w	r0, #-1
	bgt	.LBB0_11
.Ltmp18:
@ %bb.9:
	@DEBUG_VALUE: msh_exec_script:pg_name <- $r7
	@DEBUG_VALUE: msh_exec_script:fd <- $r6
	@DEBUG_VALUE: msh_exec_script:cmd_line <- $r4
	.loc	1 91 41                         @ rt-thread/components/finsh/msh_file.c:91:41
	add.w	r1, r5, #31
	.loc	1 91 13 is_stmt 0               @ rt-thread/components/finsh/msh_file.c:91:13
	adr	r2, .LCPI0_2
	mov	r0, r7
	mov	r3, r5
	str	r4, [sp]
	bl	rt_snprintf
	.loc	1 92 18 is_stmt 1               @ rt-thread/components/finsh/msh_file.c:92:18
	movs	r1, #0
	movs	r2, #0
	mov	r0, r7
	bl	open
	mov	r6, r0
.Ltmp19:
	@DEBUG_VALUE: msh_exec_script:fd <- $r6
	.loc	1 0 18 is_stmt 0                @ rt-thread/components/finsh/msh_file.c:0:18
	b	.LBB0_11
.Ltmp20:
.LBB0_10:
	@DEBUG_VALUE: msh_exec_script:pg_name <- $r7
	@DEBUG_VALUE: msh_exec_script:cmd_line <- $r4
	@DEBUG_VALUE: msh_exec_script:fd <- -1
	mov.w	r6, #-1
.Ltmp21:
.LBB0_11:
	@DEBUG_VALUE: msh_exec_script:pg_name <- $r7
	@DEBUG_VALUE: msh_exec_script:cmd_line <- $r4
	@DEBUG_VALUE: msh_exec_script:fd <- $r6
	.loc	1 96 5 is_stmt 1                @ rt-thread/components/finsh/msh_file.c:96:5
	mov	r0, r7
	bl	rt_free
	.loc	1 97 9                          @ rt-thread/components/finsh/msh_file.c:97:9
	cmp	r6, #0
	bmi	.LBB0_23
.Ltmp22:
@ %bb.12:
	@DEBUG_VALUE: msh_exec_script:pg_name <- $r7
	@DEBUG_VALUE: msh_exec_script:fd <- $r6
	@DEBUG_VALUE: msh_exec_script:cmd_line <- $r4
	.loc	1 103 29                        @ rt-thread/components/finsh/msh_file.c:103:29
	movs	r0, #128
	bl	rt_malloc
	mov	r4, r0
.Ltmp23:
	@DEBUG_VALUE: msh_exec_script:cmd_line <- [DW_OP_LLVM_entry_value 1] $r0
	@DEBUG_VALUE: msh_exec_script:cmd_line <- [DW_OP_LLVM_entry_value 1] $r0
	@DEBUG_VALUE: line_buf <- $r4
	.loc	1 104 13                        @ rt-thread/components/finsh/msh_file.c:104:13
	cbnz	r0, .LBB0_16
.Ltmp24:
@ %bb.13:
	@DEBUG_VALUE: msh_exec_script:pg_name <- $r7
	@DEBUG_VALUE: msh_exec_script:fd <- $r6
	@DEBUG_VALUE: line_buf <- $r4
	@DEBUG_VALUE: msh_exec_script:cmd_line <- [DW_OP_LLVM_entry_value 1] $r0
	.loc	1 106 13                        @ rt-thread/components/finsh/msh_file.c:106:13
	mov	r0, r6
	bl	close
.Ltmp25:
	@DEBUG_VALUE: msh_exec_script:ret <- 0
	.loc	1 0 13 is_stmt 0                @ rt-thread/components/finsh/msh_file.c:0:13
	cbnz	r4, .LBB0_25
.Ltmp26:
.LBB0_14:
	mvn	r0, #4
	.loc	1 143 1 is_stmt 1               @ rt-thread/components/finsh/msh_file.c:143:1
	add	sp, #4
	pop	{r4, r5, r6, r7, pc}
	.p2align	2
.LBB0_15:                               @   in Loop: Header=BB0_16 Depth=1
.Ltmp27:
	@DEBUG_VALUE: msh_exec_script:pg_name <- $r7
	@DEBUG_VALUE: msh_exec_script:fd <- $r6
	@DEBUG_VALUE: length <- $r5
	@DEBUG_VALUE: line_buf <- $r4
	@DEBUG_VALUE: msh_exec_script:cmd_line <- [DW_OP_LLVM_entry_value 1] $r0
	.loc	1 129 9                         @ rt-thread/components/finsh/msh_file.c:129:9
	cmp	r5, #0
	ble	.LBB0_24
.Ltmp28:
.LBB0_16:                               @ =>This Loop Header: Depth=1
                                        @     Child Loop BB0_19 Depth 2
	@DEBUG_VALUE: msh_exec_script:pg_name <- $r7
	@DEBUG_VALUE: msh_exec_script:fd <- $r6
	@DEBUG_VALUE: line_buf <- $r4
	@DEBUG_VALUE: msh_exec_script:cmd_line <- [DW_OP_LLVM_entry_value 1] $r0
	.loc	1 113 22                        @ rt-thread/components/finsh/msh_file.c:113:22
	mov	r0, r6
	mov	r1, r4
	bl	msh_readline
.Ltmp29:
	@DEBUG_VALUE: length <- $r0
	.loc	1 114 17                        @ rt-thread/components/finsh/msh_file.c:114:17
	cmp	r0, #1
	blt	.LBB0_24
.Ltmp30:
@ %bb.17:                               @   in Loop: Header=BB0_16 Depth=1
	@DEBUG_VALUE: msh_exec_script:pg_name <- $r7
	@DEBUG_VALUE: msh_exec_script:fd <- $r6
	@DEBUG_VALUE: line_buf <- $r4
	@DEBUG_VALUE: length <- $r0
	@DEBUG_VALUE: msh_exec_script:cmd_line <- [DW_OP_LLVM_entry_value 1] $r0
	.loc	1 0 17 is_stmt 0                @ rt-thread/components/finsh/msh_file.c:0:17
	mov	r5, r0
.Ltmp31:
	@DEBUG_VALUE: length <- $r5
	@DEBUG_VALUE: length <- $r5
	@DEBUG_VALUE: length <- $r5
	movs	r0, #0
	b	.LBB0_19
.Ltmp32:
	.p2align	2
.LBB0_18:                               @   in Loop: Header=BB0_19 Depth=2
	@DEBUG_VALUE: msh_exec_script:pg_name <- $r7
	@DEBUG_VALUE: msh_exec_script:fd <- $r6
	@DEBUG_VALUE: length <- $r5
	@DEBUG_VALUE: line_buf <- $r4
	@DEBUG_VALUE: ch <- $r1
	@DEBUG_VALUE: index <- $r0
	@DEBUG_VALUE: msh_exec_script:cmd_line <- [DW_OP_LLVM_entry_value 1] $r0
	.loc	1 119 55 is_stmt 1              @ rt-thread/components/finsh/msh_file.c:119:55
	adds	r0, #1
.Ltmp33:
	@DEBUG_VALUE: index <- $r0
	.loc	1 119 17 is_stmt 0              @ rt-thread/components/finsh/msh_file.c:119:17
	cmp	r5, r0
.Ltmp34:
	@DEBUG_VALUE: ch <- undef
	beq	.LBB0_21
.Ltmp35:
.LBB0_19:                               @   Parent Loop BB0_16 Depth=1
                                        @ =>  This Inner Loop Header: Depth=2
	@DEBUG_VALUE: msh_exec_script:pg_name <- $r7
	@DEBUG_VALUE: msh_exec_script:fd <- $r6
	@DEBUG_VALUE: length <- $r5
	@DEBUG_VALUE: line_buf <- $r4
	@DEBUG_VALUE: msh_exec_script:cmd_line <- [DW_OP_LLVM_entry_value 1] $r0
	@DEBUG_VALUE: index <- $r0
	.loc	1 121 26 is_stmt 1              @ rt-thread/components/finsh/msh_file.c:121:26
	ldrb	r1, [r4, r0]
.Ltmp36:
	@DEBUG_VALUE: ch <- $r1
	.loc	1 122 35                        @ rt-thread/components/finsh/msh_file.c:122:35
	cmp	r1, #9
	beq	.LBB0_18
.Ltmp37:
@ %bb.20:                               @   in Loop: Header=BB0_19 Depth=2
	@DEBUG_VALUE: msh_exec_script:pg_name <- $r7
	@DEBUG_VALUE: msh_exec_script:fd <- $r6
	@DEBUG_VALUE: length <- $r5
	@DEBUG_VALUE: line_buf <- $r4
	@DEBUG_VALUE: ch <- $r1
	@DEBUG_VALUE: index <- $r0
	@DEBUG_VALUE: msh_exec_script:cmd_line <- [DW_OP_LLVM_entry_value 1] $r0
	cmp	r1, #32
	beq	.LBB0_18
.Ltmp38:
.LBB0_21:                               @   in Loop: Header=BB0_16 Depth=1
	@DEBUG_VALUE: msh_exec_script:pg_name <- $r7
	@DEBUG_VALUE: msh_exec_script:fd <- $r6
	@DEBUG_VALUE: length <- $r5
	@DEBUG_VALUE: line_buf <- $r4
	@DEBUG_VALUE: index <- $r0
	@DEBUG_VALUE: msh_exec_script:cmd_line <- [DW_OP_LLVM_entry_value 1] $r0
	.loc	1 0 0 is_stmt 0                 @ rt-thread/components/finsh/msh_file.c:0:0
	cmp	r1, #35
.Ltmp39:
	@DEBUG_VALUE: ch <- undef
	beq	.LBB0_15
.Ltmp40:
@ %bb.22:                               @   in Loop: Header=BB0_16 Depth=1
	@DEBUG_VALUE: msh_exec_script:pg_name <- $r7
	@DEBUG_VALUE: msh_exec_script:fd <- $r6
	@DEBUG_VALUE: length <- $r5
	@DEBUG_VALUE: line_buf <- $r4
	@DEBUG_VALUE: index <- $r0
	@DEBUG_VALUE: msh_exec_script:cmd_line <- [DW_OP_LLVM_entry_value 1] $r0
	.loc	1 127 21 is_stmt 1              @ rt-thread/components/finsh/msh_file.c:127:21
	mov	r0, r4
.Ltmp41:
	mov	r1, r5
	bl	msh_exec
	b	.LBB0_15
.Ltmp42:
.LBB0_23:
	.loc	1 0 21 is_stmt 0                @ rt-thread/components/finsh/msh_file.c:0:21
	mov.w	r0, #-1
	.loc	1 143 1 is_stmt 1               @ rt-thread/components/finsh/msh_file.c:143:1
	add	sp, #4
	pop	{r4, r5, r6, r7, pc}
.LBB0_24:
.Ltmp43:
	@DEBUG_VALUE: msh_exec_script:pg_name <- $r7
	@DEBUG_VALUE: msh_exec_script:fd <- $r6
	@DEBUG_VALUE: line_buf <- $r4
	@DEBUG_VALUE: msh_exec_script:cmd_line <- [DW_OP_LLVM_entry_value 1] $r0
	.loc	1 132 9                         @ rt-thread/components/finsh/msh_file.c:132:9
	mov	r0, r6
	bl	close
	.loc	1 133 9                         @ rt-thread/components/finsh/msh_file.c:133:9
	mov	r0, r4
	bl	rt_free
.Ltmp44:
	@DEBUG_VALUE: msh_exec_script:ret <- 0
	@DEBUG_VALUE: msh_exec_script:ret <- 0
	.loc	1 0 9 is_stmt 0                 @ rt-thread/components/finsh/msh_file.c:0:9
	cmp	r4, #0
	beq	.LBB0_14
.Ltmp45:
.LBB0_25:
	@DEBUG_VALUE: msh_exec_script:pg_name <- $r7
	@DEBUG_VALUE: msh_exec_script:fd <- $r6
	@DEBUG_VALUE: msh_exec_script:ret <- 0
	@DEBUG_VALUE: msh_exec_script:cmd_line <- [DW_OP_LLVM_entry_value 1] $r0
	movs	r0, #0
.Ltmp46:
	@DEBUG_VALUE: msh_exec_script:ret <- $r0
	.loc	1 143 1 is_stmt 1               @ rt-thread/components/finsh/msh_file.c:143:1
	add	sp, #4
	pop	{r4, r5, r6, r7, pc}
.Ltmp47:
.LBB0_26:
	@DEBUG_VALUE: msh_exec_script:cmd_length <- $r5
	@DEBUG_VALUE: msh_exec_script:cmd_line <- $r4
	@DEBUG_VALUE: msh_exec_script:fd <- -1
	.loc	1 0 0 is_stmt 0                 @ rt-thread/components/finsh/msh_file.c:0:0
	mov	r5, r0
.Ltmp48:
	b	.LBB0_5
.Ltmp49:
	.p2align	2
@ %bb.27:
.LCPI0_0:
.L.str:
	.asciz	".sh"
.LCPI0_1:
.L.str.1:
	.asciz	".SH"
.LCPI0_2:
.L.str.2:
	.asciz	"/bin/%.*s\000\000"
.Lfunc_end0:
	.size	msh_exec_script, .Lfunc_end0-msh_exec_script
	.cfi_endproc
	.cantunwind
	.fnend
                                        @ -- End function
	.section	.text.msh_readline,"ax",%progbits
	.p2align	3                               @ -- Begin function msh_readline
	.type	msh_readline,%function
	.code	16                              @ @msh_readline
	.thumb_func
msh_readline:
.Lfunc_begin1:
	.loc	1 20 0 is_stmt 1                @ rt-thread/components/finsh/msh_file.c:20:0
	.fnstart
	.cfi_startproc
@ %bb.0:
	@DEBUG_VALUE: msh_readline:fd <- $r0
	@DEBUG_VALUE: msh_readline:line_buf <- $r1
	.save	{r4, r5, r6, r7, lr}
	push	{r4, r5, r6, r7, lr}
	.cfi_def_cfa_offset 20
	.cfi_offset lr, -4
	.cfi_offset r7, -8
	.cfi_offset r6, -12
	.cfi_offset r5, -16
	.cfi_offset r4, -20
	.pad	#4
	sub	sp, #4
	.cfi_def_cfa_offset 24
	mov	r4, r1
.Ltmp50:
	@DEBUG_VALUE: msh_readline:line_buf <- $r4
	add.w	r1, sp, #3
.Ltmp51:
	.loc	1 26 13 prologue_end            @ rt-thread/components/finsh/msh_file.c:26:13
	movs	r2, #1
	mov	r5, r0
.Ltmp52:
	@DEBUG_VALUE: msh_readline:ch <- [DW_OP_plus_uconst 3, DW_OP_deref] $sp
	@DEBUG_VALUE: msh_readline:index <- 0
	@DEBUG_VALUE: msh_readline:size <- 128
	@DEBUG_VALUE: msh_readline:line_buf <- $r4
	@DEBUG_VALUE: msh_readline:fd <- $r5
	bl	read
.Ltmp53:
	.loc	1 26 13 is_stmt 0               @ rt-thread/components/finsh/msh_file.c:26:13
	cmp	r0, #1
	bne	.LBB1_10
.Ltmp54:
@ %bb.1:
	@DEBUG_VALUE: msh_readline:fd <- $r5
	@DEBUG_VALUE: msh_readline:line_buf <- $r4
	@DEBUG_VALUE: msh_readline:ch <- [DW_OP_plus_uconst 3, DW_OP_deref] $sp
	@DEBUG_VALUE: msh_readline:size <- 128
	@DEBUG_VALUE: msh_readline:index <- 0
	.loc	1 0 13                          @ rt-thread/components/finsh/msh_file.c:0:13
	add.w	r6, sp, #3
	b	.LBB1_3
.Ltmp55:
	.p2align	2
.LBB1_2:                                @   in Loop: Header=BB1_3 Depth=1
	@DEBUG_VALUE: msh_readline:fd <- $r5
	@DEBUG_VALUE: msh_readline:line_buf <- $r4
	@DEBUG_VALUE: msh_readline:ch <- $r0
	@DEBUG_VALUE: msh_readline:size <- 128
	@DEBUG_VALUE: msh_readline:index <- 0
	@DEBUG_VALUE: msh_readline:ch <- [DW_OP_plus_uconst 3, DW_OP_deref] $sp
	.loc	1 26 13                         @ rt-thread/components/finsh/msh_file.c:26:13
	movs	r2, #1
	mov	r0, r5
	mov	r1, r6
	bl	read
.Ltmp56:
	.loc	1 26 13                         @ rt-thread/components/finsh/msh_file.c:26:13
	cmp	r0, #1
	bne	.LBB1_11
.Ltmp57:
.LBB1_3:                                @ =>This Inner Loop Header: Depth=1
	@DEBUG_VALUE: msh_readline:fd <- $r5
	@DEBUG_VALUE: msh_readline:line_buf <- $r4
	@DEBUG_VALUE: msh_readline:ch <- [DW_OP_plus_uconst 3, DW_OP_deref] $sp
	@DEBUG_VALUE: msh_readline:size <- 128
	@DEBUG_VALUE: msh_readline:index <- 0
	.loc	1 32 12 is_stmt 1               @ rt-thread/components/finsh/msh_file.c:32:12
	ldrb.w	r0, [sp, #3]
.Ltmp58:
	@DEBUG_VALUE: msh_readline:ch <- $r0
	.loc	1 31 5                          @ rt-thread/components/finsh/msh_file.c:31:5
	cmp	r0, #13
	beq	.LBB1_2
.Ltmp59:
@ %bb.4:                                @   in Loop: Header=BB1_3 Depth=1
	@DEBUG_VALUE: msh_readline:fd <- $r5
	@DEBUG_VALUE: msh_readline:line_buf <- $r4
	@DEBUG_VALUE: msh_readline:ch <- $r0
	@DEBUG_VALUE: msh_readline:size <- 128
	@DEBUG_VALUE: msh_readline:index <- 0
	cmp	r0, #10
	beq	.LBB1_2
.Ltmp60:
@ %bb.5:
	@DEBUG_VALUE: msh_readline:fd <- $r5
	@DEBUG_VALUE: msh_readline:line_buf <- $r4
	@DEBUG_VALUE: msh_readline:ch <- $r0
	@DEBUG_VALUE: msh_readline:size <- 128
	@DEBUG_VALUE: msh_readline:index <- 0
	@DEBUG_VALUE: msh_readline:index <- 1
	.loc	1 0 5 is_stmt 0                 @ rt-thread/components/finsh/msh_file.c:0:5
	movs	r6, #1
	add.w	r7, sp, #3
	.loc	1 35 24 is_stmt 1               @ rt-thread/components/finsh/msh_file.c:35:24
	strb	r0, [r4]
.Ltmp61:
	.p2align	2
.LBB1_6:                                @ =>This Inner Loop Header: Depth=1
	@DEBUG_VALUE: msh_readline:fd <- $r5
	@DEBUG_VALUE: msh_readline:line_buf <- $r4
	@DEBUG_VALUE: msh_readline:ch <- $r0
	@DEBUG_VALUE: msh_readline:size <- 128
	@DEBUG_VALUE: msh_readline:index <- $r6
	@DEBUG_VALUE: msh_readline:ch <- [DW_OP_plus_uconst 3, DW_OP_deref] $sp
	.loc	1 39 13                         @ rt-thread/components/finsh/msh_file.c:39:13
	movs	r2, #1
	mov	r0, r5
	mov	r1, r7
	bl	read
.Ltmp62:
	.loc	1 39 13 is_stmt 0               @ rt-thread/components/finsh/msh_file.c:39:13
	cmp	r0, #1
	bne	.LBB1_13
.Ltmp63:
@ %bb.7:                                @   in Loop: Header=BB1_6 Depth=1
	@DEBUG_VALUE: msh_readline:index <- $r6
	@DEBUG_VALUE: msh_readline:fd <- $r5
	@DEBUG_VALUE: msh_readline:line_buf <- $r4
	@DEBUG_VALUE: msh_readline:ch <- [DW_OP_plus_uconst 3, DW_OP_deref] $sp
	@DEBUG_VALUE: msh_readline:size <- 128
	.loc	1 41 17 is_stmt 1               @ rt-thread/components/finsh/msh_file.c:41:17
	ldrb.w	r0, [sp, #3]
.Ltmp64:
	@DEBUG_VALUE: msh_readline:ch <- $r0
	.loc	1 41 28 is_stmt 0               @ rt-thread/components/finsh/msh_file.c:41:28
	cmp	r0, #13
	it	ne
	cmpne	r0, #10
	beq	.LBB1_12
.Ltmp65:
@ %bb.8:                                @   in Loop: Header=BB1_6 Depth=1
	@DEBUG_VALUE: msh_readline:index <- $r6
	@DEBUG_VALUE: msh_readline:fd <- $r5
	@DEBUG_VALUE: msh_readline:line_buf <- $r4
	@DEBUG_VALUE: msh_readline:ch <- $r0
	@DEBUG_VALUE: msh_readline:size <- 128
	.loc	1 47 27 is_stmt 1               @ rt-thread/components/finsh/msh_file.c:47:27
	adds	r1, r6, #1
.Ltmp66:
	@DEBUG_VALUE: msh_readline:index <- $r1
	.loc	1 47 31 is_stmt 0               @ rt-thread/components/finsh/msh_file.c:47:31
	strb	r0, [r4, r6]
.Ltmp67:
	.loc	1 37 5 is_stmt 1                @ rt-thread/components/finsh/msh_file.c:37:5
	cmp	r1, #128
	mov	r6, r1
.Ltmp68:
	@DEBUG_VALUE: msh_readline:index <- $r6
	@DEBUG_VALUE: msh_readline:index <- $r6
	bne	.LBB1_6
.Ltmp69:
@ %bb.9:
	@DEBUG_VALUE: msh_readline:index <- $r6
	@DEBUG_VALUE: msh_readline:fd <- $r5
	@DEBUG_VALUE: msh_readline:line_buf <- $r4
	@DEBUG_VALUE: msh_readline:ch <- $r0
	@DEBUG_VALUE: msh_readline:size <- 128
	.loc	1 0 5 is_stmt 0                 @ rt-thread/components/finsh/msh_file.c:0:5
	movs	r6, #128
.Ltmp70:
	b	.LBB1_14
.Ltmp71:
.LBB1_10:
	@DEBUG_VALUE: msh_readline:fd <- $r5
	@DEBUG_VALUE: msh_readline:line_buf <- $r4
	@DEBUG_VALUE: msh_readline:ch <- [DW_OP_plus_uconst 3, DW_OP_deref] $sp
	@DEBUG_VALUE: msh_readline:size <- 128
	@DEBUG_VALUE: msh_readline:index <- 0
	movs	r6, #0
	b	.LBB1_14
.Ltmp72:
.LBB1_11:
	@DEBUG_VALUE: msh_readline:fd <- $r5
	@DEBUG_VALUE: msh_readline:line_buf <- $r4
	@DEBUG_VALUE: msh_readline:ch <- [DW_OP_plus_uconst 3, DW_OP_deref] $sp
	@DEBUG_VALUE: msh_readline:size <- 128
	@DEBUG_VALUE: msh_readline:index <- 0
	movs	r6, #0
	b	.LBB1_14
.Ltmp73:
.LBB1_12:
	@DEBUG_VALUE: msh_readline:index <- $r6
	@DEBUG_VALUE: msh_readline:fd <- $r5
	@DEBUG_VALUE: msh_readline:line_buf <- $r4
	@DEBUG_VALUE: msh_readline:ch <- $r0
	@DEBUG_VALUE: msh_readline:size <- 128
	movs	r0, #0
.Ltmp74:
	.loc	1 43 33 is_stmt 1               @ rt-thread/components/finsh/msh_file.c:43:33
	strb	r0, [r4, r6]
	.loc	1 44 17                         @ rt-thread/components/finsh/msh_file.c:44:17
	b	.LBB1_14
.Ltmp75:
.LBB1_13:
	@DEBUG_VALUE: msh_readline:index <- $r6
	@DEBUG_VALUE: msh_readline:fd <- $r5
	@DEBUG_VALUE: msh_readline:line_buf <- $r4
	@DEBUG_VALUE: msh_readline:ch <- [DW_OP_plus_uconst 3, DW_OP_deref] $sp
	@DEBUG_VALUE: msh_readline:size <- 128
	.loc	1 0 17 is_stmt 0                @ rt-thread/components/finsh/msh_file.c:0:17
	movs	r0, #0
.Ltmp76:
	.loc	1 51 29 is_stmt 1               @ rt-thread/components/finsh/msh_file.c:51:29
	strb	r0, [r4, r6]
.Ltmp77:
.LBB1_14:
	@DEBUG_VALUE: msh_readline:fd <- $r5
	@DEBUG_VALUE: msh_readline:line_buf <- $r4
	@DEBUG_VALUE: msh_readline:size <- 128
	.loc	1 57 1                          @ rt-thread/components/finsh/msh_file.c:57:1
	mov	r0, r6
	add	sp, #4
	pop	{r4, r5, r6, r7, pc}
.Ltmp78:
.Lfunc_end1:
	.size	msh_readline, .Lfunc_end1-msh_readline
	.cfi_endproc
	.cantunwind
	.fnend
                                        @ -- End function
	.section	.text.cmd_ls,"ax",%progbits
	.hidden	cmd_ls                          @ -- Begin function cmd_ls
	.globl	cmd_ls
	.p2align	3
	.type	cmd_ls,%function
	.code	16                              @ @cmd_ls
	.thumb_func
cmd_ls:
.Lfunc_begin2:
	.loc	1 150 0                         @ rt-thread/components/finsh/msh_file.c:150:0
	.fnstart
	.cfi_startproc
@ %bb.0:
	@DEBUG_VALUE: cmd_ls:argc <- $r0
	@DEBUG_VALUE: cmd_ls:argc <- $r0
	@DEBUG_VALUE: cmd_ls:argv <- $r1
	.save	{r7, lr}
	push	{r7, lr}
	.cfi_def_cfa_offset 8
	.cfi_offset lr, -4
	.cfi_offset r7, -8
.Ltmp79:
	.loc	1 153 9 prologue_end            @ rt-thread/components/finsh/msh_file.c:153:9
	cmp	r0, #1
	@DEBUG_VALUE: cmd_ls:argv <- $r1
	bne	.LBB2_2
.Ltmp80:
@ %bb.1:
	@DEBUG_VALUE: cmd_ls:argv <- $r1
	@DEBUG_VALUE: cmd_ls:argc <- $r0
	.loc	1 0 9 is_stmt 0                 @ rt-thread/components/finsh/msh_file.c:0:9
	movw	r0, :lower16:working_directory
.Ltmp81:
	@DEBUG_VALUE: cmd_ls:argc <- [DW_OP_LLVM_entry_value 1] $r0
	movt	r0, :upper16:working_directory
	b	.LBB2_3
.Ltmp82:
.LBB2_2:
	@DEBUG_VALUE: cmd_ls:argv <- $r1
	@DEBUG_VALUE: cmd_ls:argc <- $r0
	.loc	1 163 12 is_stmt 1              @ rt-thread/components/finsh/msh_file.c:163:12
	ldr	r0, [r1, #4]
.Ltmp83:
	@DEBUG_VALUE: cmd_ls:argc <- [DW_OP_LLVM_entry_value 1] $r0
.LBB2_3:
	@DEBUG_VALUE: cmd_ls:argv <- $r1
	@DEBUG_VALUE: cmd_ls:argc <- [DW_OP_LLVM_entry_value 1] $r0
	.loc	1 0 0 is_stmt 0                 @ rt-thread/components/finsh/msh_file.c:0:0
	bl	ls
.Ltmp84:
	@DEBUG_VALUE: cmd_ls:argv <- [DW_OP_LLVM_entry_value 1] $r1
	.loc	1 166 5 is_stmt 1               @ rt-thread/components/finsh/msh_file.c:166:5
	movs	r0, #0
	pop	{r7, pc}
.Ltmp85:
.Lfunc_end2:
	.size	cmd_ls, .Lfunc_end2-cmd_ls
	.cfi_endproc
	.cantunwind
	.fnend
                                        @ -- End function
	.section	.text.cmd_cp,"ax",%progbits
	.hidden	cmd_cp                          @ -- Begin function cmd_cp
	.globl	cmd_cp
	.p2align	3
	.type	cmd_cp,%function
	.code	16                              @ @cmd_cp
	.thumb_func
cmd_cp:
.Lfunc_begin3:
	.loc	1 171 0                         @ rt-thread/components/finsh/msh_file.c:171:0
	.fnstart
	.cfi_startproc
@ %bb.0:
	@DEBUG_VALUE: cmd_cp:argc <- $r0
	@DEBUG_VALUE: cmd_cp:argc <- $r0
	@DEBUG_VALUE: cmd_cp:argv <- $r1
	.save	{r7, lr}
	push	{r7, lr}
	.cfi_def_cfa_offset 8
	.cfi_offset lr, -4
	.cfi_offset r7, -8
.Ltmp86:
	.loc	1 174 9 prologue_end            @ rt-thread/components/finsh/msh_file.c:174:9
	cmp	r0, #3
	@DEBUG_VALUE: cmd_cp:argv <- $r1
	bne	.LBB3_2
.Ltmp87:
@ %bb.1:
	@DEBUG_VALUE: cmd_cp:argv <- $r1
	@DEBUG_VALUE: cmd_cp:argc <- $r0
	.loc	1 181 14                        @ rt-thread/components/finsh/msh_file.c:181:14
	ldrd	r0, r1, [r1, #4]
.Ltmp88:
	@DEBUG_VALUE: cmd_cp:argv <- [DW_OP_LLVM_entry_value 1] $r1
	@DEBUG_VALUE: cmd_cp:argc <- [DW_OP_LLVM_entry_value 1] $r0
	.loc	1 181 9 is_stmt 0               @ rt-thread/components/finsh/msh_file.c:181:9
	bl	copy
.Ltmp89:
	.loc	1 184 5 is_stmt 1               @ rt-thread/components/finsh/msh_file.c:184:5
	movs	r0, #0
	pop	{r7, pc}
.Ltmp90:
.LBB3_2:
	@DEBUG_VALUE: cmd_cp:argv <- $r1
	@DEBUG_VALUE: cmd_cp:argc <- $r0
	.loc	1 176 9                         @ rt-thread/components/finsh/msh_file.c:176:9
	adr	r0, .LCPI3_0
.Ltmp91:
	@DEBUG_VALUE: cmd_cp:argc <- [DW_OP_LLVM_entry_value 1] $r0
	bl	rt_kprintf
.Ltmp92:
	@DEBUG_VALUE: cmd_cp:argv <- [DW_OP_LLVM_entry_value 1] $r1
	.loc	1 177 9                         @ rt-thread/components/finsh/msh_file.c:177:9
	adr	r0, .LCPI3_1
	bl	rt_kprintf
.Ltmp93:
	.loc	1 184 5                         @ rt-thread/components/finsh/msh_file.c:184:5
	movs	r0, #0
	pop	{r7, pc}
.Ltmp94:
	.p2align	2
@ %bb.3:
	.loc	1 0 5 is_stmt 0                 @ rt-thread/components/finsh/msh_file.c:0:5
.LCPI3_0:
.L.str.3:
	.asciz	"Usage: cp SOURCE DEST\n\000"
.LCPI3_1:
.L.str.4:
	.asciz	"Copy SOURCE to DEST.\n\000\000"
.Lfunc_end3:
	.size	cmd_cp, .Lfunc_end3-cmd_cp
	.cfi_endproc
	.cantunwind
	.fnend
                                        @ -- End function
	.section	.text.cmd_mv,"ax",%progbits
	.hidden	cmd_mv                          @ -- Begin function cmd_mv
	.globl	cmd_mv
	.p2align	3
	.type	cmd_mv,%function
	.code	16                              @ @cmd_mv
	.thumb_func
cmd_mv:
.Lfunc_begin4:
	.loc	1 189 0 is_stmt 1               @ rt-thread/components/finsh/msh_file.c:189:0
	.fnstart
	.cfi_startproc
@ %bb.0:
	@DEBUG_VALUE: cmd_mv:argc <- $r0
	@DEBUG_VALUE: cmd_mv:argc <- $r0
	@DEBUG_VALUE: cmd_mv:argv <- $r1
	.save	{r4, r5, r6, lr}
	push	{r4, r5, r6, lr}
	.cfi_def_cfa_offset 16
	.cfi_offset lr, -4
	.cfi_offset r6, -8
	.cfi_offset r5, -12
	.cfi_offset r4, -16
	.pad	#8
	sub	sp, #8
	.cfi_def_cfa_offset 24
.Ltmp95:
	.loc	1 190 9 prologue_end            @ rt-thread/components/finsh/msh_file.c:190:9
	cmp	r0, #3
	@DEBUG_VALUE: cmd_mv:argv <- $r1
	bne	.LBB4_4
.Ltmp96:
@ %bb.1:
	@DEBUG_VALUE: cmd_mv:argv <- $r1
	@DEBUG_VALUE: cmd_mv:argc <- $r0
	.loc	1 0 9 is_stmt 0                 @ rt-thread/components/finsh/msh_file.c:0:9
	mov	r4, r1
.Ltmp97:
	@DEBUG_VALUE: cmd_mv:argv <- $r4
	@DEBUG_VALUE: dest <- 0
	.loc	1 200 34 is_stmt 1              @ rt-thread/components/finsh/msh_file.c:200:34
	ldr	r1, [r1, #4]
	.loc	1 200 9 is_stmt 0               @ rt-thread/components/finsh/msh_file.c:200:9
	adr	r0, .LCPI4_2
.Ltmp98:
	@DEBUG_VALUE: cmd_mv:argc <- [DW_OP_LLVM_entry_value 1] $r0
	.loc	1 200 43                        @ rt-thread/components/finsh/msh_file.c:200:43
	ldr	r2, [r4, #8]
	.loc	1 200 9                         @ rt-thread/components/finsh/msh_file.c:200:9
	bl	rt_kprintf
	.loc	1 202 19 is_stmt 1              @ rt-thread/components/finsh/msh_file.c:202:19
	ldr	r0, [r4, #8]
	.loc	1 202 14 is_stmt 0              @ rt-thread/components/finsh/msh_file.c:202:14
	mov.w	r1, #65536
	movs	r2, #0
	bl	open
.Ltmp99:
	@DEBUG_VALUE: fd <- $r0
	.loc	1 203 13 is_stmt 1              @ rt-thread/components/finsh/msh_file.c:203:13
	cmp	r0, #0
	bmi	.LBB4_5
.Ltmp100:
@ %bb.2:
	@DEBUG_VALUE: cmd_mv:argv <- $r4
	@DEBUG_VALUE: fd <- $r0
	@DEBUG_VALUE: dest <- 0
	@DEBUG_VALUE: cmd_mv:argc <- [DW_OP_LLVM_entry_value 1] $r0
	.loc	1 207 13                        @ rt-thread/components/finsh/msh_file.c:207:13
	bl	close
.Ltmp101:
	.loc	1 210 28                        @ rt-thread/components/finsh/msh_file.c:210:28
	mov.w	r0, #256
	bl	rt_malloc
	mov	r5, r0
.Ltmp102:
	@DEBUG_VALUE: dest <- $r5
	.loc	1 211 17                        @ rt-thread/components/finsh/msh_file.c:211:17
	cbz	r0, .LBB4_15
.Ltmp103:
@ %bb.3:
	@DEBUG_VALUE: dest <- $r5
	@DEBUG_VALUE: cmd_mv:argv <- $r4
	@DEBUG_VALUE: cmd_mv:argc <- [DW_OP_LLVM_entry_value 1] $r0
	.loc	1 217 19                        @ rt-thread/components/finsh/msh_file.c:217:19
	ldr	r6, [r4, #4]
	.loc	1 217 29 is_stmt 0              @ rt-thread/components/finsh/msh_file.c:217:29
	mov	r0, r6
	bl	rt_strlen
	.loc	1 217 27                        @ rt-thread/components/finsh/msh_file.c:217:27
	add	r0, r6
.Ltmp104:
	@DEBUG_VALUE: src <- $r0
	.loc	1 0 27                          @ rt-thread/components/finsh/msh_file.c:0:27
	b	.LBB4_9
.Ltmp105:
.LBB4_4:
	@DEBUG_VALUE: cmd_mv:argv <- $r1
	@DEBUG_VALUE: cmd_mv:argc <- $r0
	.loc	1 192 9 is_stmt 1               @ rt-thread/components/finsh/msh_file.c:192:9
	adr	r0, .LCPI4_0
.Ltmp106:
	@DEBUG_VALUE: cmd_mv:argc <- [DW_OP_LLVM_entry_value 1] $r0
	bl	rt_kprintf
.Ltmp107:
	@DEBUG_VALUE: cmd_mv:argv <- [DW_OP_LLVM_entry_value 1] $r1
	.loc	1 193 9                         @ rt-thread/components/finsh/msh_file.c:193:9
	adr	r0, .LCPI4_1
	bl	rt_kprintf
	b	.LBB4_14
.Ltmp108:
.LBB4_5:
	@DEBUG_VALUE: cmd_mv:argv <- $r4
	@DEBUG_VALUE: fd <- $r0
	@DEBUG_VALUE: dest <- 0
	@DEBUG_VALUE: cmd_mv:argc <- [DW_OP_LLVM_entry_value 1] $r0
	.loc	1 228 23                        @ rt-thread/components/finsh/msh_file.c:228:23
	ldr	r0, [r4, #8]
.Ltmp109:
	.loc	1 228 18 is_stmt 0              @ rt-thread/components/finsh/msh_file.c:228:18
	movs	r1, #0
	movs	r2, #0
	bl	open
.Ltmp110:
	@DEBUG_VALUE: fd <- $r0
	.loc	1 229 17 is_stmt 1              @ rt-thread/components/finsh/msh_file.c:229:17
	cmp	r0, #0
	bmi	.LBB4_7
.Ltmp111:
@ %bb.6:
	@DEBUG_VALUE: cmd_mv:argv <- $r4
	@DEBUG_VALUE: fd <- $r0
	@DEBUG_VALUE: dest <- 0
	@DEBUG_VALUE: cmd_mv:argc <- [DW_OP_LLVM_entry_value 1] $r0
	.loc	1 231 17                        @ rt-thread/components/finsh/msh_file.c:231:17
	bl	close
.Ltmp112:
	.loc	1 233 24                        @ rt-thread/components/finsh/msh_file.c:233:24
	ldr	r0, [r4, #8]
	.loc	1 233 17 is_stmt 0              @ rt-thread/components/finsh/msh_file.c:233:17
	bl	unlink
.Ltmp113:
.LBB4_7:
	@DEBUG_VALUE: cmd_mv:argv <- $r4
	@DEBUG_VALUE: dest <- 0
	@DEBUG_VALUE: cmd_mv:argc <- [DW_OP_LLVM_entry_value 1] $r0
	.loc	1 236 20 is_stmt 1              @ rt-thread/components/finsh/msh_file.c:236:20
	ldr	r5, [r4, #8]
.Ltmp114:
	@DEBUG_VALUE: dest <- $r5
	.loc	1 0 20 is_stmt 0                @ rt-thread/components/finsh/msh_file.c:0:20
	b	.LBB4_11
.Ltmp115:
.LBB4_8:                                @   in Loop: Header=BB4_9 Depth=1
	@DEBUG_VALUE: dest <- $r5
	@DEBUG_VALUE: cmd_mv:argv <- $r4
	@DEBUG_VALUE: src <- $r0
	@DEBUG_VALUE: cmd_mv:argc <- [DW_OP_LLVM_entry_value 1] $r0
	.loc	1 221 21 is_stmt 1              @ rt-thread/components/finsh/msh_file.c:221:21
	subs	r0, #1
.Ltmp116:
	@DEBUG_VALUE: src <- $r0
.LBB4_9:                                @ =>This Inner Loop Header: Depth=1
	@DEBUG_VALUE: dest <- $r5
	@DEBUG_VALUE: cmd_mv:argv <- $r4
	@DEBUG_VALUE: src <- $r0
	@DEBUG_VALUE: cmd_mv:argc <- [DW_OP_LLVM_entry_value 1] $r0
	.loc	1 218 27                        @ rt-thread/components/finsh/msh_file.c:218:27
	ldr	r1, [r4, #4]
	.loc	1 218 13 is_stmt 0              @ rt-thread/components/finsh/msh_file.c:218:13
	cmp	r0, r1
	@DEBUG_VALUE: src <- $r0
.Ltmp117:
	.loc	1 220 21 is_stmt 1              @ rt-thread/components/finsh/msh_file.c:220:21
	itt	ne
	ldrbne	r1, [r0]
.Ltmp118:
	.loc	1 220 21 is_stmt 0              @ rt-thread/components/finsh/msh_file.c:220:21
	cmpne	r1, #47
	bne	.LBB4_8
.Ltmp119:
@ %bb.10:
	@DEBUG_VALUE: dest <- $r5
	@DEBUG_VALUE: cmd_mv:argv <- $r4
	@DEBUG_VALUE: src <- $r0
	@DEBUG_VALUE: cmd_mv:argc <- [DW_OP_LLVM_entry_value 1] $r0
	.loc	1 224 58 is_stmt 1              @ rt-thread/components/finsh/msh_file.c:224:58
	ldr	r3, [r4, #8]
	.loc	1 224 13 is_stmt 0              @ rt-thread/components/finsh/msh_file.c:224:13
	adr	r2, .LCPI4_3
	movs	r1, #255
	str	r0, [sp]
	mov	r0, r5
.Ltmp120:
	bl	rt_snprintf
	cbz	r5, .LBB4_16
.Ltmp121:
.LBB4_11:
	@DEBUG_VALUE: dest <- $r5
	@DEBUG_VALUE: cmd_mv:argv <- $r4
	@DEBUG_VALUE: cmd_mv:argc <- [DW_OP_LLVM_entry_value 1] $r0
	@DEBUG_VALUE: dest <- $r5
	.loc	1 239 16 is_stmt 1              @ rt-thread/components/finsh/msh_file.c:239:16
	ldr	r0, [r4, #4]
	.loc	1 239 9 is_stmt 0               @ rt-thread/components/finsh/msh_file.c:239:9
	mov	r1, r5
	bl	rename
.Ltmp122:
	.loc	1 240 29 is_stmt 1              @ rt-thread/components/finsh/msh_file.c:240:29
	cbz	r5, .LBB4_14
.Ltmp123:
@ %bb.12:
	@DEBUG_VALUE: dest <- $r5
	@DEBUG_VALUE: cmd_mv:argv <- $r4
	@DEBUG_VALUE: cmd_mv:argc <- [DW_OP_LLVM_entry_value 1] $r0
	.loc	1 240 40 is_stmt 0              @ rt-thread/components/finsh/msh_file.c:240:40
	ldr	r0, [r4, #8]
.Ltmp124:
	.loc	1 240 13                        @ rt-thread/components/finsh/msh_file.c:240:13
	cmp	r5, r0
	beq	.LBB4_14
.Ltmp125:
@ %bb.13:
	@DEBUG_VALUE: dest <- $r5
	@DEBUG_VALUE: cmd_mv:argv <- $r4
	@DEBUG_VALUE: cmd_mv:argc <- [DW_OP_LLVM_entry_value 1] $r0
	.loc	1 240 49                        @ rt-thread/components/finsh/msh_file.c:240:49
	mov	r0, r5
	bl	rt_free
.Ltmp126:
.LBB4_14:
	@DEBUG_VALUE: cmd_mv:argc <- [DW_OP_LLVM_entry_value 1] $r0
	.loc	1 0 49                          @ rt-thread/components/finsh/msh_file.c:0:49
	movs	r0, #0
	.loc	1 244 1 is_stmt 1               @ rt-thread/components/finsh/msh_file.c:244:1
	add	sp, #8
	pop	{r4, r5, r6, pc}
.Ltmp127:
.LBB4_15:
	@DEBUG_VALUE: dest <- $r5
	@DEBUG_VALUE: cmd_mv:argv <- $r4
	@DEBUG_VALUE: cmd_mv:argc <- [DW_OP_LLVM_entry_value 1] $r0
	.loc	1 213 17                        @ rt-thread/components/finsh/msh_file.c:213:17
	adr	r0, .LCPI4_4
	bl	rt_kprintf
	cmp	r5, #0
	bne	.LBB4_11
.Ltmp128:
.LBB4_16:
	@DEBUG_VALUE: cmd_mv:argv <- $r4
	@DEBUG_VALUE: cmd_mv:argc <- [DW_OP_LLVM_entry_value 1] $r0
	.loc	1 0 17 is_stmt 0                @ rt-thread/components/finsh/msh_file.c:0:17
	mvn	r0, #4
	.loc	1 244 1 is_stmt 1               @ rt-thread/components/finsh/msh_file.c:244:1
	add	sp, #8
	pop	{r4, r5, r6, pc}
.Ltmp129:
	.p2align	2
@ %bb.17:
	.loc	1 0 1 is_stmt 0                 @ rt-thread/components/finsh/msh_file.c:0:1
.LCPI4_0:
.L.str.5:
	.asciz	"Usage: mv SOURCE DEST\n\000"
.LCPI4_1:
.L.str.6:
	.asciz	"Rename SOURCE to DEST, or move SOURCE(s) to DIRECTORY.\n"
.LCPI4_2:
.L.str.7:
	.asciz	"%s => %s\n\000\000"
.LCPI4_3:
.L.str.9:
	.asciz	"%s/%s\000\000"
.LCPI4_4:
.L.str.8:
	.asciz	"out of memory\n\000"
.Lfunc_end4:
	.size	cmd_mv, .Lfunc_end4-cmd_mv
	.cfi_endproc
	.cantunwind
	.fnend
                                        @ -- End function
	.section	.text.cmd_cat,"ax",%progbits
	.hidden	cmd_cat                         @ -- Begin function cmd_cat
	.globl	cmd_cat
	.p2align	3
	.type	cmd_cat,%function
	.code	16                              @ @cmd_cat
	.thumb_func
cmd_cat:
.Lfunc_begin5:
	.loc	1 248 0 is_stmt 1               @ rt-thread/components/finsh/msh_file.c:248:0
	.fnstart
	.cfi_startproc
@ %bb.0:
	@DEBUG_VALUE: cmd_cat:argc <- $r0
	@DEBUG_VALUE: cmd_cat:argc <- $r0
	@DEBUG_VALUE: cmd_cat:argv <- $r1
	.save	{r4, r5, r7, lr}
	push	{r4, r5, r7, lr}
	.cfi_def_cfa_offset 16
	.cfi_offset lr, -4
	.cfi_offset r7, -8
	.cfi_offset r5, -12
	.cfi_offset r4, -16
.Ltmp130:
	.loc	1 252 9 prologue_end            @ rt-thread/components/finsh/msh_file.c:252:9
	cmp	r0, #1
	@DEBUG_VALUE: cmd_cat:argv <- $r1
	bne	.LBB5_2
.Ltmp131:
@ %bb.1:
	@DEBUG_VALUE: cmd_cat:argv <- $r1
	@DEBUG_VALUE: cmd_cat:argc <- $r0
	.loc	1 254 9                         @ rt-thread/components/finsh/msh_file.c:254:9
	adr	r0, .LCPI5_0
.Ltmp132:
	@DEBUG_VALUE: cmd_cat:argc <- [DW_OP_LLVM_entry_value 1] $r0
	bl	rt_kprintf
.Ltmp133:
	@DEBUG_VALUE: cmd_cat:argv <- [DW_OP_LLVM_entry_value 1] $r1
	.loc	1 255 9                         @ rt-thread/components/finsh/msh_file.c:255:9
	adr	r0, .LCPI5_1
	bl	rt_kprintf
.Ltmp134:
	.loc	1 265 1                         @ rt-thread/components/finsh/msh_file.c:265:1
	movs	r0, #0
	pop	{r4, r5, r7, pc}
.Ltmp135:
.LBB5_2:
	@DEBUG_VALUE: cmd_cat:argv <- $r1
	@DEBUG_VALUE: cmd_cat:argc <- $r0
	@DEBUG_VALUE: cmd_cat:index <- 1
	.loc	1 259 5                         @ rt-thread/components/finsh/msh_file.c:259:5
	cmp	r0, #2
	blt	.LBB5_5
.Ltmp136:
@ %bb.3:
	@DEBUG_VALUE: cmd_cat:argv <- $r1
	@DEBUG_VALUE: cmd_cat:argc <- $r0
	@DEBUG_VALUE: cmd_cat:index <- 1
	rsbs	r4, r0, #0
	subs	r5, r1, #4
.Ltmp137:
	.p2align	2
.LBB5_4:                                @ =>This Inner Loop Header: Depth=1
	@DEBUG_VALUE: cmd_cat:index <- undef
	.loc	1 261 13                        @ rt-thread/components/finsh/msh_file.c:261:13
	ldr	r0, [r5, #8]
.Ltmp138:
	@DEBUG_VALUE: cmd_cat:argc <- [DW_OP_LLVM_entry_value 1] $r0
	.loc	1 261 9 is_stmt 0               @ rt-thread/components/finsh/msh_file.c:261:9
	bl	cat
.Ltmp139:
	@DEBUG_VALUE: cmd_cat:argv <- [DW_OP_LLVM_entry_value 1] $r1
	@DEBUG_VALUE: cmd_cat:index <- [DW_OP_plus_uconst 1, DW_OP_stack_value] undef
	.loc	1 259 27 is_stmt 1              @ rt-thread/components/finsh/msh_file.c:259:27
	adds	r4, #1
	adds	r5, #4
.Ltmp140:
	.loc	1 259 5 is_stmt 0               @ rt-thread/components/finsh/msh_file.c:259:5
	adds	r0, r4, #1
	bne	.LBB5_4
.Ltmp141:
.LBB5_5:
	.loc	1 265 1 is_stmt 1               @ rt-thread/components/finsh/msh_file.c:265:1
	movs	r0, #0
	pop	{r4, r5, r7, pc}
.Ltmp142:
	.p2align	2
@ %bb.6:
	.loc	1 0 1 is_stmt 0                 @ rt-thread/components/finsh/msh_file.c:0:1
.LCPI5_0:
.L.str.10:
	.asciz	"Usage: cat [FILE]...\n\000\000"
.LCPI5_1:
.L.str.11:
	.asciz	"Concatenate FILE(s)\n\000\000\000"
.Lfunc_end5:
	.size	cmd_cat, .Lfunc_end5-cmd_cat
	.cfi_endproc
	.cantunwind
	.fnend
                                        @ -- End function
	.section	.text.cmd_rm,"ax",%progbits
	.hidden	cmd_rm                          @ -- Begin function cmd_rm
	.globl	cmd_rm
	.p2align	3
	.type	cmd_rm,%function
	.code	16                              @ @cmd_rm
	.thumb_func
cmd_rm:
.Lfunc_begin6:
	.loc	1 269 0 is_stmt 1               @ rt-thread/components/finsh/msh_file.c:269:0
	.fnstart
	.cfi_startproc
@ %bb.0:
	@DEBUG_VALUE: cmd_rm:argc <- $r0
	@DEBUG_VALUE: cmd_rm:argc <- $r0
	@DEBUG_VALUE: cmd_rm:argv <- $r1
	.save	{r4, r5, r7, lr}
	push	{r4, r5, r7, lr}
	.cfi_def_cfa_offset 16
	.cfi_offset lr, -4
	.cfi_offset r7, -8
	.cfi_offset r5, -12
	.cfi_offset r4, -16
.Ltmp143:
	.loc	1 272 9 prologue_end            @ rt-thread/components/finsh/msh_file.c:272:9
	cmp	r0, #1
	@DEBUG_VALUE: cmd_rm:argv <- $r1
	bne	.LBB6_2
.Ltmp144:
@ %bb.1:
	@DEBUG_VALUE: cmd_rm:argv <- $r1
	@DEBUG_VALUE: cmd_rm:argc <- $r0
	.loc	1 274 9                         @ rt-thread/components/finsh/msh_file.c:274:9
	adr	r0, .LCPI6_0
.Ltmp145:
	@DEBUG_VALUE: cmd_rm:argc <- [DW_OP_LLVM_entry_value 1] $r0
	bl	rt_kprintf
.Ltmp146:
	@DEBUG_VALUE: cmd_rm:argv <- [DW_OP_LLVM_entry_value 1] $r1
	.loc	1 275 9                         @ rt-thread/components/finsh/msh_file.c:275:9
	adr	r0, .LCPI6_1
	bl	rt_kprintf
.Ltmp147:
	.loc	1 285 1                         @ rt-thread/components/finsh/msh_file.c:285:1
	movs	r0, #0
	pop	{r4, r5, r7, pc}
.Ltmp148:
.LBB6_2:
	@DEBUG_VALUE: cmd_rm:argv <- $r1
	@DEBUG_VALUE: cmd_rm:argc <- $r0
	@DEBUG_VALUE: cmd_rm:index <- 1
	.loc	1 279 5                         @ rt-thread/components/finsh/msh_file.c:279:5
	cmp	r0, #2
	blt	.LBB6_5
.Ltmp149:
@ %bb.3:
	@DEBUG_VALUE: cmd_rm:argv <- $r1
	@DEBUG_VALUE: cmd_rm:argc <- $r0
	@DEBUG_VALUE: cmd_rm:index <- 1
	rsbs	r4, r0, #0
	subs	r5, r1, #4
.Ltmp150:
	.p2align	2
.LBB6_4:                                @ =>This Inner Loop Header: Depth=1
	@DEBUG_VALUE: cmd_rm:index <- undef
	.loc	1 281 16                        @ rt-thread/components/finsh/msh_file.c:281:16
	ldr	r0, [r5, #8]
.Ltmp151:
	@DEBUG_VALUE: cmd_rm:argc <- [DW_OP_LLVM_entry_value 1] $r0
	.loc	1 281 9 is_stmt 0               @ rt-thread/components/finsh/msh_file.c:281:9
	bl	unlink
.Ltmp152:
	@DEBUG_VALUE: cmd_rm:argv <- [DW_OP_LLVM_entry_value 1] $r1
	@DEBUG_VALUE: cmd_rm:index <- [DW_OP_plus_uconst 1, DW_OP_stack_value] undef
	.loc	1 279 27 is_stmt 1              @ rt-thread/components/finsh/msh_file.c:279:27
	adds	r4, #1
	adds	r5, #4
.Ltmp153:
	.loc	1 279 5 is_stmt 0               @ rt-thread/components/finsh/msh_file.c:279:5
	adds	r0, r4, #1
	bne	.LBB6_4
.Ltmp154:
.LBB6_5:
	.loc	1 285 1 is_stmt 1               @ rt-thread/components/finsh/msh_file.c:285:1
	movs	r0, #0
	pop	{r4, r5, r7, pc}
.Ltmp155:
	.p2align	2
@ %bb.6:
	.loc	1 0 1 is_stmt 0                 @ rt-thread/components/finsh/msh_file.c:0:1
.LCPI6_0:
.L.str.12:
	.asciz	"Usage: rm FILE...\n\000"
.LCPI6_1:
.L.str.13:
	.asciz	"Remove (unlink) the FILE(s).\n\000\000"
.Lfunc_end6:
	.size	cmd_rm, .Lfunc_end6-cmd_rm
	.cfi_endproc
	.cantunwind
	.fnend
                                        @ -- End function
	.section	.text.cmd_cd,"ax",%progbits
	.hidden	cmd_cd                          @ -- Begin function cmd_cd
	.globl	cmd_cd
	.p2align	3
	.type	cmd_cd,%function
	.code	16                              @ @cmd_cd
	.thumb_func
cmd_cd:
.Lfunc_begin7:
	.loc	1 290 0 is_stmt 1               @ rt-thread/components/finsh/msh_file.c:290:0
	.fnstart
	.cfi_startproc
@ %bb.0:
	@DEBUG_VALUE: cmd_cd:argc <- $r0
	@DEBUG_VALUE: cmd_cd:argc <- $r0
	@DEBUG_VALUE: cmd_cd:argv <- $r1
	.save	{r4, lr}
	push	{r4, lr}
	.cfi_def_cfa_offset 8
	.cfi_offset lr, -4
	.cfi_offset r4, -8
.Ltmp156:
	.loc	1 291 9 prologue_end            @ rt-thread/components/finsh/msh_file.c:291:9
	cmp	r0, #2
	@DEBUG_VALUE: cmd_cd:argv <- $r1
	beq	.LBB7_3
.Ltmp157:
@ %bb.1:
	@DEBUG_VALUE: cmd_cd:argv <- $r1
	@DEBUG_VALUE: cmd_cd:argc <- $r0
	cmp	r0, #1
	bne	.LBB7_5
.Ltmp158:
@ %bb.2:
	@DEBUG_VALUE: cmd_cd:argv <- $r1
	@DEBUG_VALUE: cmd_cd:argc <- $r0
	.loc	1 293 9                         @ rt-thread/components/finsh/msh_file.c:293:9
	movw	r0, :lower16:.L.str.14
.Ltmp159:
	@DEBUG_VALUE: cmd_cd:argc <- [DW_OP_LLVM_entry_value 1] $r0
	movw	r1, :lower16:working_directory
.Ltmp160:
	@DEBUG_VALUE: cmd_cd:argv <- [DW_OP_LLVM_entry_value 1] $r1
	movt	r0, :upper16:.L.str.14
	movt	r1, :upper16:working_directory
	bl	rt_kprintf
.Ltmp161:
	.loc	1 303 5                         @ rt-thread/components/finsh/msh_file.c:303:5
	movs	r0, #0
	pop	{r4, pc}
.Ltmp162:
.LBB7_3:
	@DEBUG_VALUE: cmd_cd:argv <- $r1
	@DEBUG_VALUE: cmd_cd:argc <- $r0
	.loc	1 297 19                        @ rt-thread/components/finsh/msh_file.c:297:19
	ldr	r0, [r1, #4]
.Ltmp163:
	@DEBUG_VALUE: cmd_cd:argc <- [DW_OP_LLVM_entry_value 1] $r0
	.loc	1 0 19 is_stmt 0                @ rt-thread/components/finsh/msh_file.c:0:19
	mov	r4, r1
.Ltmp164:
	@DEBUG_VALUE: cmd_cd:argv <- $r4
	@DEBUG_VALUE: cmd_cd:argv <- $r4
	.loc	1 297 13                        @ rt-thread/components/finsh/msh_file.c:297:13
	bl	chdir
.Ltmp165:
	.loc	1 297 13                        @ rt-thread/components/finsh/msh_file.c:297:13
	cbz	r0, .LBB7_5
.Ltmp166:
@ %bb.4:
	@DEBUG_VALUE: cmd_cd:argv <- $r4
	@DEBUG_VALUE: cmd_cd:argc <- [DW_OP_LLVM_entry_value 1] $r0
	.loc	1 299 51 is_stmt 1              @ rt-thread/components/finsh/msh_file.c:299:51
	ldr	r1, [r4, #4]
	.loc	1 299 13 is_stmt 0              @ rt-thread/components/finsh/msh_file.c:299:13
	adr	r0, .LCPI7_0
	bl	rt_kprintf
.Ltmp167:
.LBB7_5:
	.loc	1 303 5 is_stmt 1               @ rt-thread/components/finsh/msh_file.c:303:5
	movs	r0, #0
	pop	{r4, pc}
.Ltmp168:
	.p2align	2
@ %bb.6:
	.loc	1 0 5 is_stmt 0                 @ rt-thread/components/finsh/msh_file.c:0:5
.LCPI7_0:
.L.str.15:
	.asciz	"No such directory: %s\n\000"
.Lfunc_end7:
	.size	cmd_cd, .Lfunc_end7-cmd_cd
	.cfi_endproc
	.cantunwind
	.fnend
                                        @ -- End function
	.section	.text.cmd_pwd,"ax",%progbits
	.hidden	cmd_pwd                         @ -- Begin function cmd_pwd
	.globl	cmd_pwd
	.p2align	3
	.type	cmd_pwd,%function
	.code	16                              @ @cmd_pwd
	.thumb_func
cmd_pwd:
.Lfunc_begin8:
	.loc	1 308 0 is_stmt 1               @ rt-thread/components/finsh/msh_file.c:308:0
	.fnstart
	.cfi_startproc
@ %bb.0:
	@DEBUG_VALUE: cmd_pwd:argc <- undef
	@DEBUG_VALUE: cmd_pwd:argv <- undef
	.save	{r7, lr}
	push	{r7, lr}
	.cfi_def_cfa_offset 8
	.cfi_offset lr, -4
	.cfi_offset r7, -8
.Ltmp169:
	.loc	1 309 5 prologue_end            @ rt-thread/components/finsh/msh_file.c:309:5
	movw	r0, :lower16:.L.str.14
	movw	r1, :lower16:working_directory
	movt	r0, :upper16:.L.str.14
	movt	r1, :upper16:working_directory
	bl	rt_kprintf
	.loc	1 310 5                         @ rt-thread/components/finsh/msh_file.c:310:5
	movs	r0, #0
	pop	{r7, pc}
.Ltmp170:
.Lfunc_end8:
	.size	cmd_pwd, .Lfunc_end8-cmd_pwd
	.cfi_endproc
	.cantunwind
	.fnend
                                        @ -- End function
	.section	.text.cmd_mkdir,"ax",%progbits
	.hidden	cmd_mkdir                       @ -- Begin function cmd_mkdir
	.globl	cmd_mkdir
	.p2align	3
	.type	cmd_mkdir,%function
	.code	16                              @ @cmd_mkdir
	.thumb_func
cmd_mkdir:
.Lfunc_begin9:
	.loc	1 316 0                         @ rt-thread/components/finsh/msh_file.c:316:0
	.fnstart
	.cfi_startproc
@ %bb.0:
	@DEBUG_VALUE: cmd_mkdir:argc <- $r0
	@DEBUG_VALUE: cmd_mkdir:argc <- $r0
	@DEBUG_VALUE: cmd_mkdir:argv <- $r1
	.save	{r7, lr}
	push	{r7, lr}
	.cfi_def_cfa_offset 8
	.cfi_offset lr, -4
	.cfi_offset r7, -8
.Ltmp171:
	.loc	1 317 9 prologue_end            @ rt-thread/components/finsh/msh_file.c:317:9
	cmp	r0, #1
	@DEBUG_VALUE: cmd_mkdir:argv <- $r1
	bne	.LBB9_2
.Ltmp172:
@ %bb.1:
	@DEBUG_VALUE: cmd_mkdir:argv <- $r1
	@DEBUG_VALUE: cmd_mkdir:argc <- $r0
	.loc	1 319 9                         @ rt-thread/components/finsh/msh_file.c:319:9
	adr	r0, .LCPI9_0
.Ltmp173:
	@DEBUG_VALUE: cmd_mkdir:argc <- [DW_OP_LLVM_entry_value 1] $r0
	bl	rt_kprintf
.Ltmp174:
	@DEBUG_VALUE: cmd_mkdir:argv <- [DW_OP_LLVM_entry_value 1] $r1
	.loc	1 320 9                         @ rt-thread/components/finsh/msh_file.c:320:9
	adr	r0, .LCPI9_1
	bl	rt_kprintf
.Ltmp175:
	.loc	1 327 5                         @ rt-thread/components/finsh/msh_file.c:327:5
	movs	r0, #0
	pop	{r7, pc}
.Ltmp176:
.LBB9_2:
	@DEBUG_VALUE: cmd_mkdir:argv <- $r1
	@DEBUG_VALUE: cmd_mkdir:argc <- $r0
	.loc	1 324 15                        @ rt-thread/components/finsh/msh_file.c:324:15
	ldr	r0, [r1, #4]
.Ltmp177:
	@DEBUG_VALUE: cmd_mkdir:argc <- [DW_OP_LLVM_entry_value 1] $r0
	.loc	1 324 9 is_stmt 0               @ rt-thread/components/finsh/msh_file.c:324:9
	movs	r1, #0
.Ltmp178:
	@DEBUG_VALUE: cmd_mkdir:argv <- [DW_OP_LLVM_entry_value 1] $r1
	bl	mkdir
.Ltmp179:
	.loc	1 327 5 is_stmt 1               @ rt-thread/components/finsh/msh_file.c:327:5
	movs	r0, #0
	pop	{r7, pc}
.Ltmp180:
	.p2align	2
@ %bb.3:
	.loc	1 0 5 is_stmt 0                 @ rt-thread/components/finsh/msh_file.c:0:5
.LCPI9_0:
.L.str.16:
	.asciz	"Usage: mkdir [OPTION] DIRECTORY\n\000\000\000"
.LCPI9_1:
.L.str.17:
	.asciz	"Create the DIRECTORY, if they do not already exist.\n\000\000\000"
.Lfunc_end9:
	.size	cmd_mkdir, .Lfunc_end9-cmd_mkdir
	.cfi_endproc
	.cantunwind
	.fnend
                                        @ -- End function
	.section	.text.cmd_mkfs,"ax",%progbits
	.hidden	cmd_mkfs                        @ -- Begin function cmd_mkfs
	.globl	cmd_mkfs
	.p2align	3
	.type	cmd_mkfs,%function
	.code	16                              @ @cmd_mkfs
	.thumb_func
cmd_mkfs:
.Lfunc_begin10:
	.loc	1 332 0 is_stmt 1               @ rt-thread/components/finsh/msh_file.c:332:0
	.fnstart
	.cfi_startproc
@ %bb.0:
	@DEBUG_VALUE: cmd_mkfs:argc <- $r0
	@DEBUG_VALUE: cmd_mkfs:argc <- $r0
	@DEBUG_VALUE: cmd_mkfs:argv <- $r1
	.save	{r4, lr}
	push	{r4, lr}
	.cfi_def_cfa_offset 8
	.cfi_offset lr, -4
	.cfi_offset r4, -8
.Ltmp181:
	@DEBUG_VALUE: cmd_mkfs:type <- undef
	@DEBUG_VALUE: cmd_mkfs:result <- 0
	.loc	1 336 9 prologue_end            @ rt-thread/components/finsh/msh_file.c:336:9
	cmp	r0, #2
	mov	r4, r1
.Ltmp182:
	@DEBUG_VALUE: cmd_mkfs:argv <- $r4
	@DEBUG_VALUE: cmd_mkfs:argv <- $r4
	beq	.LBB10_4
.Ltmp183:
@ %bb.1:
	@DEBUG_VALUE: cmd_mkfs:argv <- $r4
	@DEBUG_VALUE: cmd_mkfs:argc <- $r0
	@DEBUG_VALUE: cmd_mkfs:result <- 0
	cmp	r0, #4
	bne	.LBB10_5
.Ltmp184:
@ %bb.2:
	@DEBUG_VALUE: cmd_mkfs:argv <- $r4
	@DEBUG_VALUE: cmd_mkfs:argc <- $r0
	@DEBUG_VALUE: cmd_mkfs:result <- 0
	.loc	1 342 20                        @ rt-thread/components/finsh/msh_file.c:342:20
	ldr	r0, [r4, #4]
.Ltmp185:
	@DEBUG_VALUE: cmd_mkfs:argc <- [DW_OP_LLVM_entry_value 1] $r0
	.loc	1 342 13 is_stmt 0              @ rt-thread/components/finsh/msh_file.c:342:13
	adr	r1, .LCPI10_1
	bl	strcmp
.Ltmp186:
	.loc	1 342 13                        @ rt-thread/components/finsh/msh_file.c:342:13
	cbz	r0, .LBB10_6
.Ltmp187:
@ %bb.3:
	@DEBUG_VALUE: cmd_mkfs:argv <- $r4
	@DEBUG_VALUE: cmd_mkfs:argc <- [DW_OP_LLVM_entry_value 1] $r0
	@DEBUG_VALUE: cmd_mkfs:result <- 0
	.loc	1 0 13                          @ rt-thread/components/finsh/msh_file.c:0:13
	movs	r1, #0
.Ltmp188:
	@DEBUG_VALUE: cmd_mkfs:result <- $r1
	cbnz	r1, .LBB10_8
	b	.LBB10_9
.Ltmp189:
.LBB10_4:
	@DEBUG_VALUE: cmd_mkfs:argv <- $r4
	@DEBUG_VALUE: cmd_mkfs:argc <- $r0
	@DEBUG_VALUE: cmd_mkfs:result <- 0
	adr	r0, .LCPI10_0
.Ltmp190:
	@DEBUG_VALUE: cmd_mkfs:argc <- [DW_OP_LLVM_entry_value 1] $r0
	@DEBUG_VALUE: cmd_mkfs:type <- $r0
	movs	r1, #1
	b	.LBB10_7
.Ltmp191:
.LBB10_5:
	@DEBUG_VALUE: cmd_mkfs:argv <- $r4
	@DEBUG_VALUE: cmd_mkfs:argc <- $r0
	@DEBUG_VALUE: cmd_mkfs:result <- 0
	.loc	1 350 9 is_stmt 1               @ rt-thread/components/finsh/msh_file.c:350:9
	adr	r0, .LCPI10_3
.Ltmp192:
	@DEBUG_VALUE: cmd_mkfs:argc <- [DW_OP_LLVM_entry_value 1] $r0
	bl	rt_kprintf
.Ltmp193:
	.loc	1 360 1                         @ rt-thread/components/finsh/msh_file.c:360:1
	movs	r0, #0
	pop	{r4, pc}
.Ltmp194:
.LBB10_6:
	@DEBUG_VALUE: cmd_mkfs:argv <- $r4
	@DEBUG_VALUE: cmd_mkfs:argc <- [DW_OP_LLVM_entry_value 1] $r0
	@DEBUG_VALUE: cmd_mkfs:result <- 0
	.loc	1 344 20                        @ rt-thread/components/finsh/msh_file.c:344:20
	ldr	r0, [r4, #8]
.Ltmp195:
	@DEBUG_VALUE: cmd_mkfs:type <- $r0
	.loc	1 0 20 is_stmt 0                @ rt-thread/components/finsh/msh_file.c:0:20
	movs	r1, #3
.Ltmp196:
.LBB10_7:
	@DEBUG_VALUE: cmd_mkfs:argv <- $r4
	@DEBUG_VALUE: cmd_mkfs:type <- $r0
	@DEBUG_VALUE: cmd_mkfs:argc <- [DW_OP_LLVM_entry_value 1] $r0
	@DEBUG_VALUE: cmd_mkfs:result <- 0
	ldr.w	r1, [r4, r1, lsl #2]
	bl	dfs_mkfs
.Ltmp197:
	mov	r1, r0
.Ltmp198:
	@DEBUG_VALUE: cmd_mkfs:result <- $r1
	@DEBUG_VALUE: cmd_mkfs:result <- $r1
	.loc	1 354 9 is_stmt 1               @ rt-thread/components/finsh/msh_file.c:354:9
	cbz	r1, .LBB10_9
.Ltmp199:
.LBB10_8:
	@DEBUG_VALUE: cmd_mkfs:argv <- $r4
	@DEBUG_VALUE: cmd_mkfs:result <- $r1
	@DEBUG_VALUE: cmd_mkfs:argc <- [DW_OP_LLVM_entry_value 1] $r0
	.loc	1 356 9                         @ rt-thread/components/finsh/msh_file.c:356:9
	adr	r0, .LCPI10_2
	bl	rt_kprintf
.Ltmp200:
.LBB10_9:
	@DEBUG_VALUE: cmd_mkfs:argv <- $r4
	@DEBUG_VALUE: cmd_mkfs:argc <- [DW_OP_LLVM_entry_value 1] $r0
	.loc	1 360 1                         @ rt-thread/components/finsh/msh_file.c:360:1
	movs	r0, #0
	pop	{r4, pc}
.Ltmp201:
	.p2align	2
@ %bb.10:
	.loc	1 0 1 is_stmt 0                 @ rt-thread/components/finsh/msh_file.c:0:1
.LCPI10_0:
.L.str.18:
	.asciz	"elm"
.LCPI10_1:
.L.str.19:
	.asciz	"-t\000"
.LCPI10_2:
.L.str.21:
	.asciz	"mkfs failed, result=%d\n"
.LCPI10_3:
.L.str.20:
	.asciz	"Usage: mkfs [-t type] device\n\000\000"
.Lfunc_end10:
	.size	cmd_mkfs, .Lfunc_end10-cmd_mkfs
	.cfi_endproc
	.cantunwind
	.fnend
                                        @ -- End function
	.section	.text.cmd_df,"ax",%progbits
	.hidden	cmd_df                          @ -- Begin function cmd_df
	.globl	cmd_df
	.p2align	3
	.type	cmd_df,%function
	.code	16                              @ @cmd_df
	.thumb_func
cmd_df:
.Lfunc_begin11:
	.loc	1 365 0 is_stmt 1               @ rt-thread/components/finsh/msh_file.c:365:0
	.fnstart
	.cfi_startproc
@ %bb.0:
	@DEBUG_VALUE: cmd_df:argc <- $r0
	@DEBUG_VALUE: cmd_df:argc <- $r0
	@DEBUG_VALUE: cmd_df:argv <- $r1
	.save	{r4, lr}
	push	{r4, lr}
	.cfi_def_cfa_offset 8
	.cfi_offset lr, -4
	.cfi_offset r4, -8
.Ltmp202:
	.loc	1 366 9 prologue_end            @ rt-thread/components/finsh/msh_file.c:366:9
	cmp	r0, #2
	@DEBUG_VALUE: cmd_df:argv <- $r1
	bne	.LBB11_4
.Ltmp203:
@ %bb.1:
	@DEBUG_VALUE: cmd_df:argv <- $r1
	@DEBUG_VALUE: cmd_df:argc <- $r0
	.loc	1 372 21                        @ rt-thread/components/finsh/msh_file.c:372:21
	ldr	r4, [r1, #4]
	.loc	1 372 14 is_stmt 0              @ rt-thread/components/finsh/msh_file.c:372:14
	adr	r1, .LCPI11_1
.Ltmp204:
	@DEBUG_VALUE: cmd_df:argv <- [DW_OP_LLVM_entry_value 1] $r1
	mov	r0, r4
.Ltmp205:
	@DEBUG_VALUE: cmd_df:argc <- [DW_OP_LLVM_entry_value 1] $r0
	bl	strcmp
	.loc	1 372 46                        @ rt-thread/components/finsh/msh_file.c:372:46
	cbz	r0, .LBB11_6
.Ltmp206:
@ %bb.2:
	@DEBUG_VALUE: cmd_df:argv <- [DW_OP_LLVM_entry_value 1] $r1
	@DEBUG_VALUE: cmd_df:argc <- [DW_OP_LLVM_entry_value 1] $r0
	.loc	1 372 50                        @ rt-thread/components/finsh/msh_file.c:372:50
	adr	r1, .LCPI11_2
	mov	r0, r4
	bl	strcmp
.Ltmp207:
	.loc	1 372 13                        @ rt-thread/components/finsh/msh_file.c:372:13
	cbz	r0, .LBB11_6
.Ltmp208:
@ %bb.3:
	@DEBUG_VALUE: cmd_df:argv <- [DW_OP_LLVM_entry_value 1] $r1
	@DEBUG_VALUE: cmd_df:argc <- [DW_OP_LLVM_entry_value 1] $r0
	.loc	1 378 13 is_stmt 1              @ rt-thread/components/finsh/msh_file.c:378:13
	mov	r0, r4
	b	.LBB11_5
.Ltmp209:
.LBB11_4:
	@DEBUG_VALUE: cmd_df:argv <- $r1
	@DEBUG_VALUE: cmd_df:argc <- $r0
	.loc	1 368 9                         @ rt-thread/components/finsh/msh_file.c:368:9
	adr	r0, .LCPI11_0
.Ltmp210:
	@DEBUG_VALUE: cmd_df:argc <- [DW_OP_LLVM_entry_value 1] $r0
.LBB11_5:
	@DEBUG_VALUE: cmd_df:argc <- [DW_OP_LLVM_entry_value 1] $r0
	.loc	1 0 0 is_stmt 0                 @ rt-thread/components/finsh/msh_file.c:0:0
	bl	df
.Ltmp211:
	.loc	1 382 5 is_stmt 1               @ rt-thread/components/finsh/msh_file.c:382:5
	movs	r0, #0
	pop	{r4, pc}
.Ltmp212:
.LBB11_6:
	@DEBUG_VALUE: cmd_df:argv <- [DW_OP_LLVM_entry_value 1] $r1
	@DEBUG_VALUE: cmd_df:argc <- [DW_OP_LLVM_entry_value 1] $r0
	.loc	1 374 13                        @ rt-thread/components/finsh/msh_file.c:374:13
	adr	r0, .LCPI11_3
	bl	rt_kprintf
.Ltmp213:
	.loc	1 382 5                         @ rt-thread/components/finsh/msh_file.c:382:5
	movs	r0, #0
	pop	{r4, pc}
.Ltmp214:
	.p2align	2
@ %bb.7:
	.loc	1 0 5 is_stmt 0                 @ rt-thread/components/finsh/msh_file.c:0:5
.LCPI11_0:
.L.str.22:
	.asciz	"/\000\000"
.LCPI11_1:
.L.str.23:
	.asciz	"--help\000"
.LCPI11_2:
.L.str.24:
	.asciz	"-h\000"
.LCPI11_3:
.L.str.25:
	.asciz	"df [path]\n\000"
.Lfunc_end11:
	.size	cmd_df, .Lfunc_end11-cmd_df
	.cfi_endproc
	.cantunwind
	.fnend
                                        @ -- End function
	.section	.text.cmd_echo,"ax",%progbits
	.hidden	cmd_echo                        @ -- Begin function cmd_echo
	.globl	cmd_echo
	.p2align	3
	.type	cmd_echo,%function
	.code	16                              @ @cmd_echo
	.thumb_func
cmd_echo:
.Lfunc_begin12:
	.loc	1 387 0 is_stmt 1               @ rt-thread/components/finsh/msh_file.c:387:0
	.fnstart
	.cfi_startproc
@ %bb.0:
	@DEBUG_VALUE: cmd_echo:argc <- $r0
	@DEBUG_VALUE: cmd_echo:argc <- $r0
	@DEBUG_VALUE: cmd_echo:argv <- $r1
	.save	{r4, r5, r7, lr}
	push	{r4, r5, r7, lr}
	.cfi_def_cfa_offset 16
	.cfi_offset lr, -4
	.cfi_offset r7, -8
	.cfi_offset r5, -12
	.cfi_offset r4, -16
.Ltmp215:
	.loc	1 388 9 prologue_end            @ rt-thread/components/finsh/msh_file.c:388:9
	cmp	r0, #3
	mov	r4, r1
.Ltmp216:
	@DEBUG_VALUE: cmd_echo:argv <- $r4
	@DEBUG_VALUE: cmd_echo:argv <- $r4
	beq	.LBB12_3
.Ltmp217:
@ %bb.1:
	@DEBUG_VALUE: cmd_echo:argv <- $r4
	@DEBUG_VALUE: cmd_echo:argc <- $r0
	cmp	r0, #2
	bne	.LBB12_5
.Ltmp218:
@ %bb.2:
	@DEBUG_VALUE: cmd_echo:argv <- $r4
	@DEBUG_VALUE: cmd_echo:argc <- $r0
	.loc	1 390 9                         @ rt-thread/components/finsh/msh_file.c:390:9
	movw	r0, :lower16:.L.str.14
.Ltmp219:
	@DEBUG_VALUE: cmd_echo:argc <- [DW_OP_LLVM_entry_value 1] $r0
	.loc	1 390 28 is_stmt 0              @ rt-thread/components/finsh/msh_file.c:390:28
	ldr	r1, [r4, #4]
	.loc	1 390 9                         @ rt-thread/components/finsh/msh_file.c:390:9
	movt	r0, :upper16:.L.str.14
	b	.LBB12_7
.Ltmp220:
.LBB12_3:
	@DEBUG_VALUE: cmd_echo:argv <- $r4
	@DEBUG_VALUE: cmd_echo:argc <- $r0
	.loc	1 396 19 is_stmt 1              @ rt-thread/components/finsh/msh_file.c:396:19
	ldr	r0, [r4, #8]
.Ltmp221:
	@DEBUG_VALUE: cmd_echo:argc <- [DW_OP_LLVM_entry_value 1] $r0
	.loc	1 396 14 is_stmt 0              @ rt-thread/components/finsh/msh_file.c:396:14
	movw	r1, #1090
	movs	r2, #0
	bl	open
.Ltmp222:
	@DEBUG_VALUE: fd <- $r0
	.loc	1 397 13 is_stmt 1              @ rt-thread/components/finsh/msh_file.c:397:13
	cmp	r0, #0
	bmi	.LBB12_6
.Ltmp223:
@ %bb.4:
	@DEBUG_VALUE: cmd_echo:argv <- $r4
	@DEBUG_VALUE: fd <- $r0
	@DEBUG_VALUE: cmd_echo:argc <- [DW_OP_LLVM_entry_value 1] $r0
	.loc	1 399 24                        @ rt-thread/components/finsh/msh_file.c:399:24
	ldr	r4, [r4, #4]
.Ltmp224:
	@DEBUG_VALUE: cmd_echo:argv <- [DW_OP_LLVM_entry_value 1] $r1
	.loc	1 0 0 is_stmt 0                 @ rt-thread/components/finsh/msh_file.c:0:0
	mov	r5, r0
.Ltmp225:
	@DEBUG_VALUE: fd <- $r5
	@DEBUG_VALUE: fd <- $r5
	.loc	1 399 33                        @ rt-thread/components/finsh/msh_file.c:399:33
	mov	r0, r4
	bl	strlen
	mov	r2, r0
	.loc	1 399 13                        @ rt-thread/components/finsh/msh_file.c:399:13
	mov	r0, r5
	mov	r1, r4
	bl	write
	.loc	1 400 13 is_stmt 1              @ rt-thread/components/finsh/msh_file.c:400:13
	mov	r0, r5
	bl	close
.Ltmp226:
	.loc	1 412 5                         @ rt-thread/components/finsh/msh_file.c:412:5
	movs	r0, #0
	pop	{r4, r5, r7, pc}
.Ltmp227:
.LBB12_5:
	@DEBUG_VALUE: cmd_echo:argv <- $r4
	@DEBUG_VALUE: cmd_echo:argc <- $r0
	.loc	1 409 9                         @ rt-thread/components/finsh/msh_file.c:409:9
	adr	r0, .LCPI12_1
.Ltmp228:
	@DEBUG_VALUE: cmd_echo:argc <- [DW_OP_LLVM_entry_value 1] $r0
	bl	rt_kprintf
.Ltmp229:
	.loc	1 412 5                         @ rt-thread/components/finsh/msh_file.c:412:5
	movs	r0, #0
	pop	{r4, r5, r7, pc}
.Ltmp230:
.LBB12_6:
	@DEBUG_VALUE: cmd_echo:argv <- $r4
	@DEBUG_VALUE: fd <- $r0
	@DEBUG_VALUE: cmd_echo:argc <- [DW_OP_LLVM_entry_value 1] $r0
	.loc	1 404 50                        @ rt-thread/components/finsh/msh_file.c:404:50
	ldr	r1, [r4, #8]
	.loc	1 404 13 is_stmt 0              @ rt-thread/components/finsh/msh_file.c:404:13
	adr	r0, .LCPI12_0
.Ltmp231:
.LBB12_7:
	@DEBUG_VALUE: cmd_echo:argv <- $r4
	@DEBUG_VALUE: cmd_echo:argc <- [DW_OP_LLVM_entry_value 1] $r0
	.loc	1 0 0                           @ rt-thread/components/finsh/msh_file.c:0:0
	bl	rt_kprintf
.Ltmp232:
	.loc	1 412 5 is_stmt 1               @ rt-thread/components/finsh/msh_file.c:412:5
	movs	r0, #0
	pop	{r4, r5, r7, pc}
.Ltmp233:
	.p2align	2
@ %bb.8:
	.loc	1 0 5 is_stmt 0                 @ rt-thread/components/finsh/msh_file.c:0:5
.LCPI12_0:
.L.str.26:
	.asciz	"open file:%s failed!\n\000\000"
.LCPI12_1:
.L.str.27:
	.asciz	"Usage: echo \"string\" [filename]\n\000\000\000"
.Lfunc_end12:
	.size	cmd_echo, .Lfunc_end12-cmd_echo
	.cfi_endproc
	.cantunwind
	.fnend
                                        @ -- End function
	.hidden	__fsym___cmd_ls_name            @ @__fsym___cmd_ls_name
	.type	__fsym___cmd_ls_name,%object
	.section	.rodata.name,"a",%progbits
	.globl	__fsym___cmd_ls_name
__fsym___cmd_ls_name:
	.asciz	"__cmd_ls"
	.size	__fsym___cmd_ls_name, 9

	.hidden	__fsym___cmd_ls_desc            @ @__fsym___cmd_ls_desc
	.type	__fsym___cmd_ls_desc,%object
	.globl	__fsym___cmd_ls_desc
__fsym___cmd_ls_desc:
	.asciz	"List information about the FILEs."
	.size	__fsym___cmd_ls_desc, 34

	.hidden	__fsym___cmd_ls                 @ @__fsym___cmd_ls
	.type	__fsym___cmd_ls,%object
	.section	FSymTab,"a",%progbits
	.globl	__fsym___cmd_ls
	.p2align	2
__fsym___cmd_ls:
__tagsym$$used.0:
	.long	__fsym___cmd_ls_name
	.long	__fsym___cmd_ls_desc
	.long	cmd_ls
	.size	__fsym___cmd_ls, 12

	.hidden	__fsym___cmd_cp_name            @ @__fsym___cmd_cp_name
	.type	__fsym___cmd_cp_name,%object
	.section	.rodata.name,"a",%progbits
	.globl	__fsym___cmd_cp_name
__fsym___cmd_cp_name:
	.asciz	"__cmd_cp"
	.size	__fsym___cmd_cp_name, 9

	.hidden	__fsym___cmd_cp_desc            @ @__fsym___cmd_cp_desc
	.type	__fsym___cmd_cp_desc,%object
	.globl	__fsym___cmd_cp_desc
__fsym___cmd_cp_desc:
	.asciz	"Copy SOURCE to DEST."
	.size	__fsym___cmd_cp_desc, 21

	.hidden	__fsym___cmd_cp                 @ @__fsym___cmd_cp
	.type	__fsym___cmd_cp,%object
	.section	FSymTab,"a",%progbits
	.globl	__fsym___cmd_cp
	.p2align	2
__fsym___cmd_cp:
__tagsym$$used.1:
	.long	__fsym___cmd_cp_name
	.long	__fsym___cmd_cp_desc
	.long	cmd_cp
	.size	__fsym___cmd_cp, 12

	.hidden	__fsym___cmd_mv_name            @ @__fsym___cmd_mv_name
	.type	__fsym___cmd_mv_name,%object
	.section	.rodata.name,"a",%progbits
	.globl	__fsym___cmd_mv_name
__fsym___cmd_mv_name:
	.asciz	"__cmd_mv"
	.size	__fsym___cmd_mv_name, 9

	.hidden	__fsym___cmd_mv_desc            @ @__fsym___cmd_mv_desc
	.type	__fsym___cmd_mv_desc,%object
	.globl	__fsym___cmd_mv_desc
__fsym___cmd_mv_desc:
	.asciz	"Rename SOURCE to DEST."
	.size	__fsym___cmd_mv_desc, 23

	.hidden	__fsym___cmd_mv                 @ @__fsym___cmd_mv
	.type	__fsym___cmd_mv,%object
	.section	FSymTab,"a",%progbits
	.globl	__fsym___cmd_mv
	.p2align	2
__fsym___cmd_mv:
__tagsym$$used.2:
	.long	__fsym___cmd_mv_name
	.long	__fsym___cmd_mv_desc
	.long	cmd_mv
	.size	__fsym___cmd_mv, 12

	.hidden	__fsym___cmd_cat_name           @ @__fsym___cmd_cat_name
	.type	__fsym___cmd_cat_name,%object
	.section	.rodata.name,"a",%progbits
	.globl	__fsym___cmd_cat_name
__fsym___cmd_cat_name:
	.asciz	"__cmd_cat"
	.size	__fsym___cmd_cat_name, 10

	.hidden	__fsym___cmd_cat_desc           @ @__fsym___cmd_cat_desc
	.type	__fsym___cmd_cat_desc,%object
	.globl	__fsym___cmd_cat_desc
__fsym___cmd_cat_desc:
	.asciz	"Concatenate FILE(s)"
	.size	__fsym___cmd_cat_desc, 20

	.hidden	__fsym___cmd_cat                @ @__fsym___cmd_cat
	.type	__fsym___cmd_cat,%object
	.section	FSymTab,"a",%progbits
	.globl	__fsym___cmd_cat
	.p2align	2
__fsym___cmd_cat:
__tagsym$$used.3:
	.long	__fsym___cmd_cat_name
	.long	__fsym___cmd_cat_desc
	.long	cmd_cat
	.size	__fsym___cmd_cat, 12

	.hidden	__fsym___cmd_rm_name            @ @__fsym___cmd_rm_name
	.type	__fsym___cmd_rm_name,%object
	.section	.rodata.name,"a",%progbits
	.globl	__fsym___cmd_rm_name
__fsym___cmd_rm_name:
	.asciz	"__cmd_rm"
	.size	__fsym___cmd_rm_name, 9

	.hidden	__fsym___cmd_rm_desc            @ @__fsym___cmd_rm_desc
	.type	__fsym___cmd_rm_desc,%object
	.globl	__fsym___cmd_rm_desc
__fsym___cmd_rm_desc:
	.asciz	"Remove(unlink) the FILE(s)."
	.size	__fsym___cmd_rm_desc, 28

	.hidden	__fsym___cmd_rm                 @ @__fsym___cmd_rm
	.type	__fsym___cmd_rm,%object
	.section	FSymTab,"a",%progbits
	.globl	__fsym___cmd_rm
	.p2align	2
__fsym___cmd_rm:
__tagsym$$used.4:
	.long	__fsym___cmd_rm_name
	.long	__fsym___cmd_rm_desc
	.long	cmd_rm
	.size	__fsym___cmd_rm, 12

	.type	.L.str.14,%object               @ @.str.14
	.section	.rodata.str1.1,"aMS",%progbits,1
.L.str.14:
	.asciz	"%s\n"
	.size	.L.str.14, 4

	.hidden	__fsym___cmd_cd_name            @ @__fsym___cmd_cd_name
	.type	__fsym___cmd_cd_name,%object
	.section	.rodata.name,"a",%progbits
	.globl	__fsym___cmd_cd_name
__fsym___cmd_cd_name:
	.asciz	"__cmd_cd"
	.size	__fsym___cmd_cd_name, 9

	.hidden	__fsym___cmd_cd_desc            @ @__fsym___cmd_cd_desc
	.type	__fsym___cmd_cd_desc,%object
	.globl	__fsym___cmd_cd_desc
__fsym___cmd_cd_desc:
	.asciz	"Change the shell working directory."
	.size	__fsym___cmd_cd_desc, 36

	.hidden	__fsym___cmd_cd                 @ @__fsym___cmd_cd
	.type	__fsym___cmd_cd,%object
	.section	FSymTab,"a",%progbits
	.globl	__fsym___cmd_cd
	.p2align	2
__fsym___cmd_cd:
__tagsym$$used.5:
	.long	__fsym___cmd_cd_name
	.long	__fsym___cmd_cd_desc
	.long	cmd_cd
	.size	__fsym___cmd_cd, 12

	.hidden	__fsym___cmd_pwd_name           @ @__fsym___cmd_pwd_name
	.type	__fsym___cmd_pwd_name,%object
	.section	.rodata.name,"a",%progbits
	.globl	__fsym___cmd_pwd_name
__fsym___cmd_pwd_name:
	.asciz	"__cmd_pwd"
	.size	__fsym___cmd_pwd_name, 10

	.hidden	__fsym___cmd_pwd_desc           @ @__fsym___cmd_pwd_desc
	.type	__fsym___cmd_pwd_desc,%object
	.globl	__fsym___cmd_pwd_desc
__fsym___cmd_pwd_desc:
	.asciz	"Print the name of the current working directory."
	.size	__fsym___cmd_pwd_desc, 49

	.hidden	__fsym___cmd_pwd                @ @__fsym___cmd_pwd
	.type	__fsym___cmd_pwd,%object
	.section	FSymTab,"a",%progbits
	.globl	__fsym___cmd_pwd
	.p2align	2
__fsym___cmd_pwd:
__tagsym$$used.6:
	.long	__fsym___cmd_pwd_name
	.long	__fsym___cmd_pwd_desc
	.long	cmd_pwd
	.size	__fsym___cmd_pwd, 12

	.hidden	__fsym___cmd_mkdir_name         @ @__fsym___cmd_mkdir_name
	.type	__fsym___cmd_mkdir_name,%object
	.section	.rodata.name,"a",%progbits
	.globl	__fsym___cmd_mkdir_name
__fsym___cmd_mkdir_name:
	.asciz	"__cmd_mkdir"
	.size	__fsym___cmd_mkdir_name, 12

	.hidden	__fsym___cmd_mkdir_desc         @ @__fsym___cmd_mkdir_desc
	.type	__fsym___cmd_mkdir_desc,%object
	.globl	__fsym___cmd_mkdir_desc
__fsym___cmd_mkdir_desc:
	.asciz	"Create the DIRECTORY."
	.size	__fsym___cmd_mkdir_desc, 22

	.hidden	__fsym___cmd_mkdir              @ @__fsym___cmd_mkdir
	.type	__fsym___cmd_mkdir,%object
	.section	FSymTab,"a",%progbits
	.globl	__fsym___cmd_mkdir
	.p2align	2
__fsym___cmd_mkdir:
__tagsym$$used.7:
	.long	__fsym___cmd_mkdir_name
	.long	__fsym___cmd_mkdir_desc
	.long	cmd_mkdir
	.size	__fsym___cmd_mkdir, 12

	.hidden	__fsym___cmd_mkfs_name          @ @__fsym___cmd_mkfs_name
	.type	__fsym___cmd_mkfs_name,%object
	.section	.rodata.name,"a",%progbits
	.globl	__fsym___cmd_mkfs_name
__fsym___cmd_mkfs_name:
	.asciz	"__cmd_mkfs"
	.size	__fsym___cmd_mkfs_name, 11

	.hidden	__fsym___cmd_mkfs_desc          @ @__fsym___cmd_mkfs_desc
	.type	__fsym___cmd_mkfs_desc,%object
	.globl	__fsym___cmd_mkfs_desc
__fsym___cmd_mkfs_desc:
	.asciz	"format disk with file system"
	.size	__fsym___cmd_mkfs_desc, 29

	.hidden	__fsym___cmd_mkfs               @ @__fsym___cmd_mkfs
	.type	__fsym___cmd_mkfs,%object
	.section	FSymTab,"a",%progbits
	.globl	__fsym___cmd_mkfs
	.p2align	2
__fsym___cmd_mkfs:
__tagsym$$used.8:
	.long	__fsym___cmd_mkfs_name
	.long	__fsym___cmd_mkfs_desc
	.long	cmd_mkfs
	.size	__fsym___cmd_mkfs, 12

	.hidden	__fsym___cmd_df_name            @ @__fsym___cmd_df_name
	.type	__fsym___cmd_df_name,%object
	.section	.rodata.name,"a",%progbits
	.globl	__fsym___cmd_df_name
__fsym___cmd_df_name:
	.asciz	"__cmd_df"
	.size	__fsym___cmd_df_name, 9

	.hidden	__fsym___cmd_df_desc            @ @__fsym___cmd_df_desc
	.type	__fsym___cmd_df_desc,%object
	.globl	__fsym___cmd_df_desc
__fsym___cmd_df_desc:
	.asciz	"disk free"
	.size	__fsym___cmd_df_desc, 10

	.hidden	__fsym___cmd_df                 @ @__fsym___cmd_df
	.type	__fsym___cmd_df,%object
	.section	FSymTab,"a",%progbits
	.globl	__fsym___cmd_df
	.p2align	2
__fsym___cmd_df:
__tagsym$$used.9:
	.long	__fsym___cmd_df_name
	.long	__fsym___cmd_df_desc
	.long	cmd_df
	.size	__fsym___cmd_df, 12

	.hidden	__fsym___cmd_echo_name          @ @__fsym___cmd_echo_name
	.type	__fsym___cmd_echo_name,%object
	.section	.rodata.name,"a",%progbits
	.globl	__fsym___cmd_echo_name
__fsym___cmd_echo_name:
	.asciz	"__cmd_echo"
	.size	__fsym___cmd_echo_name, 11

	.hidden	__fsym___cmd_echo_desc          @ @__fsym___cmd_echo_desc
	.type	__fsym___cmd_echo_desc,%object
	.globl	__fsym___cmd_echo_desc
__fsym___cmd_echo_desc:
	.asciz	"echo string to file"
	.size	__fsym___cmd_echo_desc, 20

	.hidden	__fsym___cmd_echo               @ @__fsym___cmd_echo
	.type	__fsym___cmd_echo,%object
	.section	FSymTab,"a",%progbits
	.globl	__fsym___cmd_echo
	.p2align	2
__fsym___cmd_echo:
__tagsym$$used.10:
	.long	__fsym___cmd_echo_name
	.long	__fsym___cmd_echo_desc
	.long	cmd_echo
	.size	__fsym___cmd_echo, 12

	.globl	__fsym___cmd_cat
	.globl	__fsym___cmd_cd
	.globl	__fsym___cmd_cp
	.globl	__fsym___cmd_df
	.globl	__fsym___cmd_echo
	.globl	__fsym___cmd_ls
	.globl	__fsym___cmd_mkdir
	.globl	__fsym___cmd_mkfs
	.globl	__fsym___cmd_mv
	.globl	__fsym___cmd_pwd
	.globl	__fsym___cmd_rm
	.section	".note.GNU-stack","",%progbits
	.eabi_attribute	30, 1	@ Tag_ABI_optimization_goals
	.ARM_attribute	16, 1	@ Tag_AV_eba