	.text
	.syntax unified
	.eabi_attribute	67, "2.09"	@ Tag_conformance
	.cpu	cortex-m7
	.eabi_attribute	6, 13	@ Tag_CPU_arch
	.eabi_attribute	7, 77	@ Tag_CPU_arch_profile
	.eabi_attribute	8, 0	@ Tag_ARM_ISA_use
	.eabi_attribute	9, 2	@ Tag_THUMB_ISA_use
	.fpu	fpv5-d16
	.eabi_attribute	36, 1	@ Tag_FP_HP_extension
	.eabi_attribute	34, 1	@ Tag_CPU_unaligned_access
	.eabi_attribute	17, 1	@ Tag_ABI_PCS_GOT_use
	.eabi_attribute	20, 2	@ Tag_ABI_FP_denormal
	.eabi_attribute	21, 0	@ Tag_ABI_FP_exceptions
	.eabi_attribute	23, 1	@ Tag_ABI_FP_number_model
	.eabi_attribute	24, 1	@ Tag_ABI_align_needed
	.eabi_attribute	25, 1	@ Tag_ABI_align_preserved
	.eabi_attribute	28, 1	@ Tag_ABI_VFP_args
	.eabi_attribute	38, 1	@ Tag_ABI_FP_16bit_format
	.eabi_attribute	18, 2	@ Tag_ABI_PCS_wchar_t
	.eabi_attribute	26, 1	@ Tag_ABI_enum_size
	.eabi_attribute	14, 0	@ Tag_ABI_PCS_R9_use
	.file	"mtd_nor.c"
	.file	1 "E:\\Smart-access-control\\Hardware\\CODE" "rt-thread/include\\rtdef.h"
	.section	.text.rt_mtd_nor_register_device,"ax",%progbits
	.hidden	rt_mtd_nor_register_device      @ -- Begin function rt_mtd_nor_register_device
	.globl	rt_mtd_nor_register_device
	.p2align	3
	.type	rt_mtd_nor_register_device,%function
	.code	16                              @ @rt_mtd_nor_register_device
	.thumb_func
rt_mtd_nor_register_device:
.Lfunc_begin0:
	.file	2 "E:\\Smart-access-control\\Hardware\\CODE" "rt-thread/components/drivers/mtd/mtd_nor.c"
	.loc	2 68 0                          @ rt-thread/components/drivers/mtd/mtd_nor.c:68:0
	.fnstart
	.cfi_sections .debug_frame
	.cfi_startproc
@ %bb.0:
	.save	{r7, lr}
	push	{r7, lr}
	.cfi_def_cfa_offset 8
	.cfi_offset lr, -4
	.cfi_offset r7, -8
	.pad	#16
	sub	sp, #16
	.cfi_def_cfa_offset 24
	str	r0, [sp, #12]
	str	r1, [sp, #8]
.Ltmp0:
	.loc	2 71 11 prologue_end            @ rt-thread/components/drivers/mtd/mtd_nor.c:71:11
	ldr	r0, [sp, #8]
	.loc	2 71 9 is_stmt 0                @ rt-thread/components/drivers/mtd/mtd_nor.c:71:9
	str	r0, [sp, #4]
.Ltmp1:
	.loc	2 72 5 is_stmt 1                @ rt-thread/components/drivers/mtd/mtd_nor.c:72:5
	ldr	r0, [sp, #4]
.Ltmp2:
	.loc	2 72 5 is_stmt 0                @ rt-thread/components/drivers/mtd/mtd_nor.c:72:5
	cbnz	r0, .LBB0_2
	b	.LBB0_1
.LBB0_1:
.Ltmp3:
	.loc	2 72 5                          @ rt-thread/components/drivers/mtd/mtd_nor.c:72:5
	movw	r0, :lower16:.L.str
	movt	r0, :upper16:.L.str
	movw	r1, :lower16:.L__FUNCTION__.rt_mtd_nor_register_device
	movt	r1, :upper16:.L__FUNCTION__.rt_mtd_nor_register_device
	movs	r2, #72
	bl	rt_assert_handler
	b	.LBB0_2
.Ltmp4:
.LBB0_2:
	.loc	2 75 5 is_stmt 1                @ rt-thread/components/drivers/mtd/mtd_nor.c:75:5
	ldr	r1, [sp, #4]
	movs	r0, #3
	.loc	2 75 22 is_stmt 0               @ rt-thread/components/drivers/mtd/mtd_nor.c:75:22
	strb	r0, [r1, #20]
	.loc	2 79 5 is_stmt 1                @ rt-thread/components/drivers/mtd/mtd_nor.c:79:5
	ldr	r1, [sp, #4]
	.loc	2 79 22 is_stmt 0               @ rt-thread/components/drivers/mtd/mtd_nor.c:79:22
	movw	r0, :lower16:_mtd_init
	movt	r0, :upper16:_mtd_init
	str	r0, [r1, #36]
	.loc	2 80 5 is_stmt 1                @ rt-thread/components/drivers/mtd/mtd_nor.c:80:5
	ldr	r1, [sp, #4]
	.loc	2 80 22 is_stmt 0               @ rt-thread/components/drivers/mtd/mtd_nor.c:80:22
	movw	r0, :lower16:_mtd_open
	movt	r0, :upper16:_mtd_open
	str	r0, [r1, #40]
	.loc	2 81 5 is_stmt 1                @ rt-thread/components/drivers/mtd/mtd_nor.c:81:5
	ldr	r1, [sp, #4]
	.loc	2 81 22 is_stmt 0               @ rt-thread/components/drivers/mtd/mtd_nor.c:81:22
	movw	r0, :lower16:_mtd_read
	movt	r0, :upper16:_mtd_read
	str	r0, [r1, #48]
	.loc	2 82 5 is_stmt 1                @ rt-thread/components/drivers/mtd/mtd_nor.c:82:5
	ldr	r1, [sp, #4]
	.loc	2 82 22 is_stmt 0               @ rt-thread/components/drivers/mtd/mtd_nor.c:82:22
	movw	r0, :lower16:_mtd_write
	movt	r0, :upper16:_mtd_write
	str	r0, [r1, #52]
	.loc	2 83 5 is_stmt 1                @ rt-thread/components/drivers/mtd/mtd_nor.c:83:5
	ldr	r1, [sp, #4]
	.loc	2 83 22 is_stmt 0               @ rt-thread/components/drivers/mtd/mtd_nor.c:83:22
	movw	r0, :lower16:_mtd_close
	movt	r0, :upper16:_mtd_close
	str	r0, [r1, #44]
	.loc	2 84 5 is_stmt 1                @ rt-thread/components/drivers/mtd/mtd_nor.c:84:5
	ldr	r1, [sp, #4]
	.loc	2 84 22 is_stmt 0               @ rt-thread/components/drivers/mtd/mtd_nor.c:84:22
	movw	r0, :lower16:_mtd_control
	movt	r0, :upper16:_mtd_control
	str	r0, [r1, #56]
	.loc	2 87 5 is_stmt 1                @ rt-thread/components/drivers/mtd/mtd_nor.c:87:5
	ldr	r1, [sp, #4]
	movs	r0, #0
	.loc	2 87 22 is_stmt 0               @ rt-thread/components/drivers/mtd/mtd_nor.c:87:22
	str	r0, [r1, #28]
	.loc	2 88 5 is_stmt 1                @ rt-thread/components/drivers/mtd/mtd_nor.c:88:5
	ldr	r1, [sp, #4]
	.loc	2 88 22 is_stmt 0               @ rt-thread/components/drivers/mtd/mtd_nor.c:88:22
	str	r0, [r1, #32]
	.loc	2 91 31 is_stmt 1               @ rt-thread/components/drivers/mtd/mtd_nor.c:91:31
	ldr	r0, [sp, #4]
	.loc	2 91 36 is_stmt 0               @ rt-thread/components/drivers/mtd/mtd_nor.c:91:36
	ldr	r1, [sp, #12]
	movs	r2, #11
	.loc	2 91 12                         @ rt-thread/components/drivers/mtd/mtd_nor.c:91:12
	bl	rt_device_register
	.loc	2 91 5                          @ rt-thread/components/drivers/mtd/mtd_nor.c:91:5
	add	sp, #16
	pop	{r7, pc}
.Ltmp5:
.Lfunc_end0:
	.size	rt_mtd_nor_register_device, .Lfunc_end0-rt_mtd_nor_register_device
	.cfi_endproc
	.cantunwind
	.fnend
                                        @ -- End function
	.section	.text._mtd_init,"ax",%progbits
	.p2align	3                               @ -- Begin function _mtd_init
	.type	_mtd_init,%function
	.code	16                              @ @_mtd_init
	.thumb_func
_mtd_init:
.Lfunc_begin1:
	.loc	2 19 0 is_stmt 1                @ rt-thread/components/drivers/mtd/mtd_nor.c:19:0
	.fnstart
	.cfi_startproc
@ %bb.0:
	.pad	#4
	sub	sp, #4
	.cfi_def_cfa_offset 4
	str	r0, [sp]
	movs	r0, #0
.Ltmp6:
	.loc	2 20 5 prologue_end             @ rt-thread/components/drivers/mtd/mtd_nor.c:20:5
	add	sp, #4
	bx	lr
.Ltmp7:
.Lfunc_end1:
	.size	_mtd_init, .Lfunc_end1-_mtd_init
	.cfi_endproc
	.cantunwind
	.fnend
                                        @ -- End function
	.section	.text._mtd_open,"ax",%progbits
	.p2align	3                               @ -- Begin function _mtd_open
	.type	_mtd_open,%function
	.code	16                              @ @_mtd_open
	.thumb_func
_mtd_open:
.Lfunc_begin2:
	.loc	2 24 0                          @ rt-thread/components/drivers/mtd/mtd_nor.c:24:0
	.fnstart
	.cfi_startproc
@ %bb.0:
	.pad	#8
	sub	sp, #8
	.cfi_def_cfa_offset 8
                                        @ kill: def $r2 killed $r1
	str	r0, [sp, #4]
	strh.w	r1, [sp, #2]
	movs	r0, #0
.Ltmp8:
	.loc	2 25 5 prologue_end             @ rt-thread/components/drivers/mtd/mtd_nor.c:25:5
	add	sp, #8
	bx	lr
.Ltmp9:
.Lfunc_end2:
	.size	_mtd_open, .Lfunc_end2-_mtd_open
	.cfi_endproc
	.cantunwind
	.fnend
                                        @ -- End function
	.section	.text._mtd_read,"ax",%progbits
	.p2align	3                               @ -- Begin function _mtd_read
	.type	_mtd_read,%function
	.code	16                              @ @_mtd_read
	.thumb_func
_mtd_read:
.Lfunc_begin3:
	.loc	2 37 0                          @ rt-thread/components/drivers/mtd/mtd_nor.c:37:0
	.fnstart
	.cfi_startproc
@ %bb.0:
	.pad	#16
	sub	sp, #16
	.cfi_def_cfa_offset 16
	str	r0, [sp, #12]
	str	r1, [sp, #8]
	str	r2, [sp, #4]
	str	r3, [sp]
.Ltmp10:
	.loc	2 38 12 prologue_end            @ rt-thread/components/drivers/mtd/mtd_nor.c:38:12
	ldr	r0, [sp]
	.loc	2 38 5 is_stmt 0                @ rt-thread/components/drivers/mtd/mtd_nor.c:38:5
	add	sp, #16
	bx	lr
.Ltmp11:
.Lfunc_end3:
	.size	_mtd_read, .Lfunc_end3-_mtd_read
	.cfi_endproc
	.cantunwind
	.fnend
                                        @ -- End function
	.section	.text._mtd_write,"ax",%progbits
	.p2align	3                               @ -- Begin function _mtd_write
	.type	_mtd_write,%function
	.code	16                              @ @_mtd_write
	.thumb_func
_mtd_write:
.Lfunc_begin4:
	.loc	2 45 0 is_stmt 1                @ rt-thread/components/drivers/mtd/mtd_nor.c:45:0
	.fnstart
	.cfi_startproc
@ %bb.0:
	.pad	#16
	sub	sp, #16
	.cfi_def_cfa_offset 16
	str	r0, [sp, #12]
	str	r1, [sp, #8]
	str	r2, [sp, #4]
	str	r3, [sp]
.Ltmp12:
	.loc	2 46 12 prologue_end            @ rt-thread/components/drivers/mtd/mtd_nor.c:46:12
	ldr	r0, [sp]
	.loc	2 46 5 is_stmt 0                @ rt-thread/components/drivers/mtd/mtd_nor.c:46:5
	add	sp, #16
	bx	lr
.Ltmp13:
.Lfunc_end4:
	.size	_mtd_write, .Lfunc_end4-_mtd_write
	.cfi_endproc
	.cantunwind
	.fnend
                                        @ -- End function
	.section	.text._mtd_close,"ax",%progbits
	.p2align	3                               @ -- Begin function _mtd_close
	.type	_mtd_close,%function
	.code	16                              @ @_mtd_close
	.thumb_func
_mtd_close:
.Lfunc_begin5:
	.loc	2 29 0 is_stmt 1                @ rt-thread/components/drivers/mtd/mtd_nor.c:29:0
	.fnstart
	.cfi_startproc
@ %bb.0:
	.pad	#4
	sub	sp, #4
	.cfi_def_cfa_offset 4
	str	r0, [sp]
	movs	r0, #0
.Ltmp14:
	.loc	2 30 5 prologue_end             @ rt-thread/components/drivers/mtd/mtd_nor.c:30:5
	add	sp, #4
	bx	lr
.Ltmp15:
.Lfunc_end5:
	.size	_mtd_close, .Lfunc_end5-_mtd_close
	.cfi_endproc
	.cantunwind
	.fnend
                                        @ -- End function
	.section	.text._mtd_control,"ax",%progbits
	.p2align	3                               @ -- Begin function _mtd_control
	.type	_mtd_control,%function
	.code	16                              @ @_mtd_control
	.thumb_func
_mtd_control:
.Lfunc_begin6:
	.loc	2 50 0                          @ rt-thread/components/drivers/mtd/mtd_nor.c:50:0
	.fnstart
	.cfi_startproc
@ %bb.0:
	.pad	#12
	sub	sp, #12
	.cfi_def_cfa_offset 12
	str	r0, [sp, #8]
	str	r1, [sp, #4]
	str	r2, [sp]
	movs	r0, #0
.Ltmp16:
	.loc	2 51 5 prologue_end             @ rt-thread/components/drivers/mtd/mtd_nor.c:51:5
	add	sp, #12
	bx	lr
.Ltmp17:
.Lfunc_end6:
	.size	_mtd_control, .Lfunc_end6-_mtd_control
	.cfi_endproc
	.cantunwind
	.fnend
                                        @ -- End function
	.type	.L.str,%object                  @ @.str
	.section	.rodata.str1.1,"aMS",%progbits,1
.L.str:
	.asciz	"dev != RT_NULL"
	.size	.L.str, 15

	.type	.L__FUNCTION__.rt_mtd_nor_register_device,%object @ @__FUNCTION__.rt_mtd_nor_register_device
.L__FUNCTION__.rt_mtd_nor_register_device:
	.asciz	"rt_mtd_nor_register_device"
	.size	.L__FUNCTION__.rt_mtd_nor_register_device, 27

	.file	3 "E:\\Smart-access-control\\Hardware\\CODE" "rt-thread/components/drivers/include/drivers/mtd_nor.h"
	.section	".note.GNU-stack","",%progbits
	.eabi_attribute	30, 6	@ Tag_ABI_optimization_goals
	.ARM_attribute	16, 1	@ Tag_AV_eba