	.text
	.syntax unified
	.eabi_attribute	67, "2.09"	@ Tag_conformance
	.cpu	cortex-m7
	.eabi_attribute	6, 13	@ Tag_CPU_arch
	.eabi_attribute	7, 77	@ Tag_CPU_arch_profile
	.eabi_attribute	8, 0	@ Tag_ARM_ISA_use
	.eabi_attribute	9, 2	@ Tag_THUMB_ISA_use
	.fpu	fpv5-d16
	.eabi_attribute	36, 1	@ Tag_FP_HP_extension
	.eabi_attribute	34, 1	@ Tag_CPU_unaligned_access
	.eabi_attribute	17, 1	@ Tag_ABI_PCS_GOT_use
	.eabi_attribute	20, 2	@ Tag_ABI_FP_denormal
	.eabi_attribute	21, 0	@ Tag_ABI_FP_exceptions
	.eabi_attribute	23, 1	@ Tag_ABI_FP_number_model
	.eabi_attribute	24, 1	@ Tag_ABI_align_needed
	.eabi_attribute	25, 1	@ Tag_ABI_align_preserved
	.eabi_attribute	28, 1	@ Tag_ABI_VFP_args
	.eabi_attribute	38, 1	@ Tag_ABI_FP_16bit_format
	.eabi_attribute	18, 2	@ Tag_ABI_PCS_wchar_t
	.eabi_attribute	26, 1	@ Tag_ABI_enum_size
	.eabi_attribute	14, 0	@ Tag_ABI_PCS_R9_use
	.file	"net_netdb.c"
	.section	.text.gethostbyname,"ax",%progbits
	.hidden	gethostbyname                   @ -- Begin function gethostbyname
	.globl	gethostbyname
	.p2align	3
	.type	gethostbyname,%function
	.code	16                              @ @gethostbyname
	.thumb_func
gethostbyname:
.Lfunc_begin0:
	.file	1 "E:\\Smart-access-control\\Hardware\\CODE" "rt-thread/components/net/sal_socket/socket/net_netdb.c"
	.loc	1 17 0                          @ rt-thread/components/net/sal_socket/socket/net_netdb.c:17:0
	.fnstart
	.cfi_sections .debug_frame
	.cfi_startproc
@ %bb.0:
	.save	{r7, lr}
	push	{r7, lr}
	.cfi_def_cfa_offset 8
	.cfi_offset lr, -4
	.cfi_offset r7, -8
	.pad	#8
	sub	sp, #8
	.cfi_def_cfa_offset 16
	str	r0, [sp, #4]
.Ltmp0:
	.loc	1 18 30 prologue_end            @ rt-thread/components/net/sal_socket/socket/net_netdb.c:18:30
	ldr	r0, [sp, #4]
	.loc	1 18 12 is_stmt 0               @ rt-thread/components/net/sal_socket/socket/net_netdb.c:18:12
	bl	sal_gethostbyname
	.loc	1 18 5                          @ rt-thread/components/net/sal_socket/socket/net_netdb.c:18:5
	add	sp, #8
	pop	{r7, pc}
.Ltmp1:
.Lfunc_end0:
	.size	gethostbyname, .Lfunc_end0-gethostbyname
	.cfi_endproc
	.cantunwind
	.fnend
                                        @ -- End function
	.section	.text.gethostbyname_r,"ax",%progbits
	.hidden	gethostbyname_r                 @ -- Begin function gethostbyname_r
	.globl	gethostbyname_r
	.p2align	3
	.type	gethostbyname_r,%function
	.code	16                              @ @gethostbyname_r
	.thumb_func
gethostbyname_r:
.Lfunc_begin1:
	.loc	1 24 0 is_stmt 1                @ rt-thread/components/net/sal_socket/socket/net_netdb.c:24:0
	.fnstart
	.cfi_startproc
@ %bb.0:
	.save	{r4, lr}
	push	{r4, lr}
	.cfi_def_cfa_offset 8
	.cfi_offset lr, -4
	.cfi_offset r4, -8
	.pad	#24
	sub	sp, #24
	.cfi_def_cfa_offset 32
	ldr.w	r12, [sp, #36]
	ldr.w	r12, [sp, #32]
	str	r0, [sp, #20]
	str	r1, [sp, #16]
	str	r2, [sp, #12]
	str	r3, [sp, #8]
.Ltmp2:
	.loc	1 25 32 prologue_end            @ rt-thread/components/net/sal_socket/socket/net_netdb.c:25:32
	ldr	r0, [sp, #20]
	.loc	1 25 38 is_stmt 0               @ rt-thread/components/net/sal_socket/socket/net_netdb.c:25:38
	ldr	r1, [sp, #16]
	.loc	1 25 43                         @ rt-thread/components/net/sal_socket/socket/net_netdb.c:25:43
	ldr	r2, [sp, #12]
	.loc	1 25 48                         @ rt-thread/components/net/sal_socket/socket/net_netdb.c:25:48
	ldr	r3, [sp, #8]
	.loc	1 25 56                         @ rt-thread/components/net/sal_socket/socket/net_netdb.c:25:56
	ldr.w	r12, [sp, #32]
	.loc	1 25 64                         @ rt-thread/components/net/sal_socket/socket/net_netdb.c:25:64
	ldr	r4, [sp, #36]
	.loc	1 25 12                         @ rt-thread/components/net/sal_socket/socket/net_netdb.c:25:12
	mov	lr, sp
	str.w	r4, [lr, #4]
	str.w	r12, [lr]
	bl	sal_gethostbyname_r
	.loc	1 25 5                          @ rt-thread/components/net/sal_socket/socket/net_netdb.c:25:5
	add	sp, #24
	pop	{r4, pc}
.Ltmp3:
.Lfunc_end1:
	.size	gethostbyname_r, .Lfunc_end1-gethostbyname_r
	.cfi_endproc
	.cantunwind
	.fnend
                                        @ -- End function
	.section	.text.freeaddrinfo,"ax",%progbits
	.hidden	freeaddrinfo                    @ -- Begin function freeaddrinfo
	.globl	freeaddrinfo
	.p2align	3
	.type	freeaddrinfo,%function
	.code	16                              @ @freeaddrinfo
	.thumb_func
freeaddrinfo:
.Lfunc_begin2:
	.loc	1 30 0 is_stmt 1                @ rt-thread/components/net/sal_socket/socket/net_netdb.c:30:0
	.fnstart
	.cfi_startproc
@ %bb.0:
	.save	{r7, lr}
	push	{r7, lr}
	.cfi_def_cfa_offset 8
	.cfi_offset lr, -4
	.cfi_offset r7, -8
	.pad	#8
	sub	sp, #8
	.cfi_def_cfa_offset 16
	str	r0, [sp, #4]
.Ltmp4:
	.loc	1 31 22 prologue_end            @ rt-thread/components/net/sal_socket/socket/net_netdb.c:31:22
	ldr	r0, [sp, #4]
	.loc	1 31 5 is_stmt 0                @ rt-thread/components/net/sal_socket/socket/net_netdb.c:31:5
	bl	sal_freeaddrinfo
	.loc	1 32 1 is_stmt 1                @ rt-thread/components/net/sal_socket/socket/net_netdb.c:32:1
	add	sp, #8
	pop	{r7, pc}
.Ltmp5:
.Lfunc_end2:
	.size	freeaddrinfo, .Lfunc_end2-freeaddrinfo
	.cfi_endproc
	.cantunwind
	.fnend
                                        @ -- End function
	.section	.text.getaddrinfo,"ax",%progbits
	.hidden	getaddrinfo                     @ -- Begin function getaddrinfo
	.globl	getaddrinfo
	.p2align	3
	.type	getaddrinfo,%function
	.code	16                              @ @getaddrinfo
	.thumb_func
getaddrinfo:
.Lfunc_begin3:
	.loc	1 39 0                          @ rt-thread/components/net/sal_socket/socket/net_netdb.c:39:0
	.fnstart
	.cfi_startproc
@ %bb.0:
	.save	{r7, lr}
	push	{r7, lr}
	.cfi_def_cfa_offset 8
	.cfi_offset lr, -4
	.cfi_offset r7, -8
	.pad	#16
	sub	sp, #16
	.cfi_def_cfa_offset 24
	str	r0, [sp, #12]
	str	r1, [sp, #8]
	str	r2, [sp, #4]
	str	r3, [sp]
.Ltmp6:
	.loc	1 40 28 prologue_end            @ rt-thread/components/net/sal_socket/socket/net_netdb.c:40:28
	ldr	r0, [sp, #12]
	.loc	1 40 38 is_stmt 0               @ rt-thread/components/net/sal_socket/socket/net_netdb.c:40:38
	ldr	r1, [sp, #8]
	.loc	1 40 48                         @ rt-thread/components/net/sal_socket/socket/net_netdb.c:40:48
	ldr	r2, [sp, #4]
	.loc	1 40 55                         @ rt-thread/components/net/sal_socket/socket/net_netdb.c:40:55
	ldr	r3, [sp]
	.loc	1 40 12                         @ rt-thread/components/net/sal_socket/socket/net_netdb.c:40:12
	bl	sal_getaddrinfo
	.loc	1 40 5                          @ rt-thread/components/net/sal_socket/socket/net_netdb.c:40:5
	add	sp, #16
	pop	{r7, pc}
.Ltmp7:
.Lfunc_end3:
	.size	getaddrinfo, .Lfunc_end3-getaddrinfo
	.cfi_endproc
	.cantunwind
	.fnend
                                        @ -- End function
	.file	2 "E:\\Smart-access-control\\Hardware\\CODE" "./rt-thread/components/net/sal_socket/include\\sal_netdb.h"
	.file	3 "D:\\Keil_v5\\ARM\\ARMCLANG\\Bin\\..\\include" "time.h"
	.file	4 "D:\\Keil_v5\\ARM\\ARMCLANG\\Bin\\..\\include" "stdint.h"
	.file	5 "E:\\Smart-access-control\\Hardware\\CODE" "./rt-thread/components/net/sal_socket/include/sal_socket.h"
	.section	".note.GNU-stack","",%progbits
	.eabi_attribute	30, 6	@ Tag_ABI_optimization_goals
	.ARM_attribute	16, 1	@ Tag_AV_eba