	.text
	.syntax unified
	.eabi_attribute	67, "2.09"	@ Tag_conformance
	.cpu	cortex-m7
	.eabi_attribute	6, 13	@ Tag_CPU_arch
	.eabi_attribute	7, 77	@ Tag_CPU_arch_profile
	.eabi_attribute	8, 0	@ Tag_ARM_ISA_use
	.eabi_attribute	9, 2	@ Tag_THUMB_ISA_use
	.fpu	fpv5-d16
	.eabi_attribute	36, 1	@ Tag_FP_HP_extension
	.eabi_attribute	34, 1	@ Tag_CPU_unaligned_access
	.eabi_attribute	17, 1	@ Tag_ABI_PCS_GOT_use
	.eabi_attribute	20, 2	@ Tag_ABI_FP_denormal
	.eabi_attribute	21, 0	@ Tag_ABI_FP_exceptions
	.eabi_attribute	23, 1	@ Tag_ABI_FP_number_model
	.eabi_attribute	24, 1	@ Tag_ABI_align_needed
	.eabi_attribute	25, 1	@ Tag_ABI_align_preserved
	.eabi_attribute	28, 1	@ Tag_ABI_VFP_args
	.eabi_attribute	38, 1	@ Tag_ABI_FP_16bit_format
	.eabi_attribute	18, 2	@ Tag_ABI_PCS_wchar_t
	.eabi_attribute	26, 1	@ Tag_ABI_enum_size
	.eabi_attribute	14, 0	@ Tag_ABI_PCS_R9_use
	.file	"netbuf.c"
	.file	1 "E:\\STM32\\Learning\\STM32H750_ART_PI_RGBLCD" "./rt-thread/components/net/lwip-2.0.2/src/include\\lwip/memp.h"
	.file	2 "E:\\STM32\\Learning\\STM32H750_ART_PI_RGBLCD" "./rt-thread/components/net/lwip-2.0.2/src/include\\lwip/pbuf.h"
	.file	3 "E:\\STM32\\Learning\\STM32H750_ART_PI_RGBLCD" "./rt-thread/components/net/lwip-2.0.2/src/include\\lwip/err.h"
	.file	4 "D:\\Keil_v5\\ARM\\ARMCLANG\\Bin\\..\\include" "stdint.h"
	.file	5 "E:\\STM32\\Learning\\STM32H750_ART_PI_RGBLCD" "./rt-thread/components/net/lwip-2.0.2/src/include\\lwip/arch.h"
	.file	6 "E:\\STM32\\Learning\\STM32H750_ART_PI_RGBLCD" "./rt-thread/components/net/lwip-2.0.2/src/include\\lwip/netbuf.h"
	.file	7 "E:\\STM32\\Learning\\STM32H750_ART_PI_RGBLCD" "./rt-thread/components/net/lwip-2.0.2/src/include\\lwip/ip4_addr.h"
	.file	8 "E:\\STM32\\Learning\\STM32H750_ART_PI_RGBLCD" "./rt-thread/components/net/lwip-2.0.2/src/include\\lwip/ip_addr.h"
	.section	.text.netbuf_new,"ax",%progbits
	.hidden	netbuf_new                      @ -- Begin function netbuf_new
	.globl	netbuf_new
	.p2align	3
	.type	netbuf_new,%function
	.code	16                              @ @netbuf_new
	.thumb_func
netbuf_new:
.Lfunc_begin0:
	.file	9 "E:\\STM32\\Learning\\STM32H750_ART_PI_RGBLCD" "rt-thread/components/net/lwip-2.0.2/src/api/netbuf.c"
	.loc	9 64 0                          @ rt-thread/components/net/lwip-2.0.2/src/api/netbuf.c:64:0
	.fnstart
	.cfi_sections .debug_frame
	.cfi_startproc
@ %bb.0:
	.save	{r7, lr}
	push	{r7, lr}
	.cfi_def_cfa_offset 8
	.cfi_offset lr, -4
	.cfi_offset r7, -8
	.pad	#8
	sub	sp, #8
	.cfi_def_cfa_offset 16
.Ltmp0:
	.loc	9 67 26 prologue_end            @ rt-thread/components/net/lwip-2.0.2/src/api/netbuf.c:67:26
	movw	r1, :lower16:.L.str
	movt	r1, :upper16:.L.str
	movs	r0, #5
	movs	r2, #67
	bl	memp_malloc_fn
	.loc	9 67 7 is_stmt 0                @ rt-thread/components/net/lwip-2.0.2/src/api/netbuf.c:67:7
	str	r0, [sp, #4]
.Ltmp1:
	.loc	9 68 7 is_stmt 1                @ rt-thread/components/net/lwip-2.0.2/src/api/netbuf.c:68:7
	ldr	r0, [sp, #4]
.Ltmp2:
	.loc	9 68 7 is_stmt 0                @ rt-thread/components/net/lwip-2.0.2/src/api/netbuf.c:68:7
	cbz	r0, .LBB0_2
	b	.LBB0_1
.LBB0_1:
.Ltmp3:
	.loc	9 69 12 is_stmt 1               @ rt-thread/components/net/lwip-2.0.2/src/api/netbuf.c:69:12
	ldr	r1, [sp, #4]
	movs	r0, #0
	.loc	9 69 5 is_stmt 0                @ rt-thread/components/net/lwip-2.0.2/src/api/netbuf.c:69:5
	str	r0, [r1, #12]
	str	r0, [r1, #8]
	str	r0, [r1, #4]
	str	r0, [r1]
	.loc	9 70 3 is_stmt 1                @ rt-thread/components/net/lwip-2.0.2/src/api/netbuf.c:70:3
	b	.LBB0_2
.Ltmp4:
.LBB0_2:
	.loc	9 71 10                         @ rt-thread/components/net/lwip-2.0.2/src/api/netbuf.c:71:10
	ldr	r0, [sp, #4]
	.loc	9 71 3 is_stmt 0                @ rt-thread/components/net/lwip-2.0.2/src/api/netbuf.c:71:3
	add	sp, #8
	pop	{r7, pc}
.Ltmp5:
.Lfunc_end0:
	.size	netbuf_new, .Lfunc_end0-netbuf_new
	.cfi_endproc
	.cantunwind
	.fnend
                                        @ -- End function
	.section	.text.netbuf_delete,"ax",%progbits
	.hidden	netbuf_delete                   @ -- Begin function netbuf_delete
	.globl	netbuf_delete
	.p2align	3
	.type	netbuf_delete,%function
	.code	16                              @ @netbuf_delete
	.thumb_func
netbuf_delete:
.Lfunc_begin1:
	.loc	9 82 0 is_stmt 1                @ rt-thread/components/net/lwip-2.0.2/src/api/netbuf.c:82:0
	.fnstart
	.cfi_startproc
@ %bb.0:
	.save	{r7, lr}
	push	{r7, lr}
	.cfi_def_cfa_offset 8
	.cfi_offset lr, -4
	.cfi_offset r7, -8
	.pad	#8
	sub	sp, #8
	.cfi_def_cfa_offset 16
	str	r0, [sp, #4]
.Ltmp6:
	.loc	9 83 7 prologue_end             @ rt-thread/components/net/lwip-2.0.2/src/api/netbuf.c:83:7
	ldr	r0, [sp, #4]
.Ltmp7:
	.loc	9 83 7 is_stmt 0                @ rt-thread/components/net/lwip-2.0.2/src/api/netbuf.c:83:7
	cbz	r0, .LBB1_4
	b	.LBB1_1
.LBB1_1:
.Ltmp8:
	.loc	9 84 9 is_stmt 1                @ rt-thread/components/net/lwip-2.0.2/src/api/netbuf.c:84:9
	ldr	r0, [sp, #4]
	.loc	9 84 14 is_stmt 0               @ rt-thread/components/net/lwip-2.0.2/src/api/netbuf.c:84:14
	ldr	r0, [r0]
.Ltmp9:
	.loc	9 84 9                          @ rt-thread/components/net/lwip-2.0.2/src/api/netbuf.c:84:9
	cbz	r0, .LBB1_3
	b	.LBB1_2
.LBB1_2:
.Ltmp10:
	.loc	9 85 17 is_stmt 1               @ rt-thread/components/net/lwip-2.0.2/src/api/netbuf.c:85:17
	ldr	r0, [sp, #4]
	.loc	9 85 22 is_stmt 0               @ rt-thread/components/net/lwip-2.0.2/src/api/netbuf.c:85:22
	ldr	r0, [r0]
	.loc	9 85 7                          @ rt-thread/components/net/lwip-2.0.2/src/api/netbuf.c:85:7
	bl	pbuf_free
	.loc	9 86 16 is_stmt 1               @ rt-thread/components/net/lwip-2.0.2/src/api/netbuf.c:86:16
	ldr	r1, [sp, #4]
	movs	r0, #0
	.loc	9 86 25 is_stmt 0               @ rt-thread/components/net/lwip-2.0.2/src/api/netbuf.c:86:25
	str	r0, [r1, #4]
	.loc	9 86 7                          @ rt-thread/components/net/lwip-2.0.2/src/api/netbuf.c:86:7
	ldr	r1, [sp, #4]
	.loc	9 86 14                         @ rt-thread/components/net/lwip-2.0.2/src/api/netbuf.c:86:14
	str	r0, [r1]
	.loc	9 87 5 is_stmt 1                @ rt-thread/components/net/lwip-2.0.2/src/api/netbuf.c:87:5
	b	.LBB1_3
.Ltmp11:
.LBB1_3:
	.loc	9 88 28                         @ rt-thread/components/net/lwip-2.0.2/src/api/netbuf.c:88:28
	ldr	r1, [sp, #4]
	movs	r0, #5
	.loc	9 88 5 is_stmt 0                @ rt-thread/components/net/lwip-2.0.2/src/api/netbuf.c:88:5
	bl	memp_free
	.loc	9 89 3 is_stmt 1                @ rt-thread/components/net/lwip-2.0.2/src/api/netbuf.c:89:3
	b	.LBB1_4
.Ltmp12:
.LBB1_4:
	.loc	9 90 1                          @ rt-thread/components/net/lwip-2.0.2/src/api/netbuf.c:90:1
	add	sp, #8
	pop	{r7, pc}
.Ltmp13:
.Lfunc_end1:
	.size	netbuf_delete, .Lfunc_end1-netbuf_delete
	.cfi_endproc
	.cantunwind
	.fnend
                                        @ -- End function
	.section	.text.netbuf_alloc,"ax",%progbits
	.hidden	netbuf_alloc                    @ -- Begin function netbuf_alloc
	.globl	netbuf_alloc
	.p2align	3
	.type	netbuf_alloc,%function
	.code	16                              @ @netbuf_alloc
	.thumb_func
netbuf_alloc:
.Lfunc_begin2:
	.loc	9 103 0                         @ rt-thread/components/net/lwip-2.0.2/src/api/netbuf.c:103:0
	.fnstart
	.cfi_startproc
@ %bb.0:
	.save	{r7, lr}
	push	{r7, lr}
	.cfi_def_cfa_offset 8
	.cfi_offset lr, -4
	.cfi_offset r7, -8
	.pad	#16
	sub	sp, #16
	.cfi_def_cfa_offset 24
                                        @ kill: def $r2 killed $r1
	str	r0, [sp, #8]
	strh.w	r1, [sp, #6]
.Ltmp14:
	.loc	9 104 3 prologue_end            @ rt-thread/components/net/lwip-2.0.2/src/api/netbuf.c:104:3
	b	.LBB2_1
.LBB2_1:
.Ltmp15:
	.loc	9 104 3 is_stmt 0               @ rt-thread/components/net/lwip-2.0.2/src/api/netbuf.c:104:3
	ldr	r0, [sp, #8]
.Ltmp16:
	.loc	9 104 3                         @ rt-thread/components/net/lwip-2.0.2/src/api/netbuf.c:104:3
	cbnz	r0, .LBB2_5
	b	.LBB2_2
.LBB2_2:
.Ltmp17:
	.loc	9 104 3                         @ rt-thread/components/net/lwip-2.0.2/src/api/netbuf.c:104:3
	b	.LBB2_3
.LBB2_3:
.Ltmp18:
	.loc	9 104 3                         @ rt-thread/components/net/lwip-2.0.2/src/api/netbuf.c:104:3
	movw	r0, :lower16:.L.str.1
	movt	r0, :upper16:.L.str.1
	bl	rt_kprintf
	movw	r0, :lower16:.L.str
	movt	r0, :upper16:.L.str
	movs	r1, #104
	bl	sys_arch_assert
	b	.LBB2_4
.Ltmp19:
.LBB2_4:
	.loc	9 0 3                           @ rt-thread/components/net/lwip-2.0.2/src/api/netbuf.c:0:3
	movs	r0, #0
	.loc	9 104 3                         @ rt-thread/components/net/lwip-2.0.2/src/api/netbuf.c:104:3
	str	r0, [sp, #12]
	b	.LBB2_17
.Ltmp20:
.LBB2_5:
	.loc	9 104 3                         @ rt-thread/components/net/lwip-2.0.2/src/api/netbuf.c:104:3
	b	.LBB2_6
.Ltmp21:
.LBB2_6:
	.loc	9 107 7 is_stmt 1               @ rt-thread/components/net/lwip-2.0.2/src/api/netbuf.c:107:7
	ldr	r0, [sp, #8]
	.loc	9 107 12 is_stmt 0              @ rt-thread/components/net/lwip-2.0.2/src/api/netbuf.c:107:12
	ldr	r0, [r0]
.Ltmp22:
	.loc	9 107 7                         @ rt-thread/components/net/lwip-2.0.2/src/api/netbuf.c:107:7
	cbz	r0, .LBB2_8
	b	.LBB2_7
.LBB2_7:
.Ltmp23:
	.loc	9 108 15 is_stmt 1              @ rt-thread/components/net/lwip-2.0.2/src/api/netbuf.c:108:15
	ldr	r0, [sp, #8]
	.loc	9 108 20 is_stmt 0              @ rt-thread/components/net/lwip-2.0.2/src/api/netbuf.c:108:20
	ldr	r0, [r0]
	.loc	9 108 5                         @ rt-thread/components/net/lwip-2.0.2/src/api/netbuf.c:108:5
	bl	pbuf_free
	.loc	9 109 3 is_stmt 1               @ rt-thread/components/net/lwip-2.0.2/src/api/netbuf.c:109:3
	b	.LBB2_8
.Ltmp24:
.LBB2_8:
	.loc	9 110 39                        @ rt-thread/components/net/lwip-2.0.2/src/api/netbuf.c:110:39
	ldrh.w	r1, [sp, #6]
	movs	r2, #0
	.loc	9 110 12 is_stmt 0              @ rt-thread/components/net/lwip-2.0.2/src/api/netbuf.c:110:12
	mov	r0, r2
	bl	pbuf_alloc
	.loc	9 110 3                         @ rt-thread/components/net/lwip-2.0.2/src/api/netbuf.c:110:3
	ldr	r1, [sp, #8]
	.loc	9 110 10                        @ rt-thread/components/net/lwip-2.0.2/src/api/netbuf.c:110:10
	str	r0, [r1]
.Ltmp25:
	.loc	9 111 7 is_stmt 1               @ rt-thread/components/net/lwip-2.0.2/src/api/netbuf.c:111:7
	ldr	r0, [sp, #8]
	.loc	9 111 12 is_stmt 0              @ rt-thread/components/net/lwip-2.0.2/src/api/netbuf.c:111:12
	ldr	r0, [r0]
.Ltmp26:
	.loc	9 111 7                         @ rt-thread/components/net/lwip-2.0.2/src/api/netbuf.c:111:7
	cbnz	r0, .LBB2_10
	b	.LBB2_9
.LBB2_9:
	.loc	9 0 7                           @ rt-thread/components/net/lwip-2.0.2/src/api/netbuf.c:0:7
	movs	r0, #0
.Ltmp27:
	.loc	9 112 6 is_stmt 1               @ rt-thread/components/net/lwip-2.0.2/src/api/netbuf.c:112:6
	str	r0, [sp, #12]
	b	.LBB2_17
.Ltmp28:
.LBB2_10:
	.loc	9 114 3                         @ rt-thread/components/net/lwip-2.0.2/src/api/netbuf.c:114:3
	b	.LBB2_11
.LBB2_11:
.Ltmp29:
	.loc	9 114 3 is_stmt 0               @ rt-thread/components/net/lwip-2.0.2/src/api/netbuf.c:114:3
	ldr	r0, [sp, #8]
	ldr	r0, [r0]
	ldrh	r0, [r0, #10]
	ldrh.w	r1, [sp, #6]
.Ltmp30:
	.loc	9 114 3                         @ rt-thread/components/net/lwip-2.0.2/src/api/netbuf.c:114:3
	cmp	r0, r1
	bge	.LBB2_15
	b	.LBB2_12
.LBB2_12:
.Ltmp31:
	.loc	9 114 3                         @ rt-thread/components/net/lwip-2.0.2/src/api/netbuf.c:114:3
	b	.LBB2_13
.LBB2_13:
.Ltmp32:
	.loc	9 114 3                         @ rt-thread/components/net/lwip-2.0.2/src/api/netbuf.c:114:3
	movw	r0, :lower16:.L.str.2
	movt	r0, :upper16:.L.str.2
	bl	rt_kprintf
	movw	r0, :lower16:.L.str
	movt	r0, :upper16:.L.str
	movs	r1, #115
	bl	sys_arch_assert
	b	.LBB2_14
.Ltmp33:
.LBB2_14:
	.loc	9 114 3                         @ rt-thread/components/net/lwip-2.0.2/src/api/netbuf.c:114:3
	b	.LBB2_15
.Ltmp34:
.LBB2_15:
	.loc	9 114 3                         @ rt-thread/components/net/lwip-2.0.2/src/api/netbuf.c:114:3
	b	.LBB2_16
.Ltmp35:
.LBB2_16:
	.loc	9 116 14 is_stmt 1              @ rt-thread/components/net/lwip-2.0.2/src/api/netbuf.c:116:14
	ldr	r1, [sp, #8]
	.loc	9 116 19 is_stmt 0              @ rt-thread/components/net/lwip-2.0.2/src/api/netbuf.c:116:19
	ldr	r0, [r1]
	.loc	9 116 12                        @ rt-thread/components/net/lwip-2.0.2/src/api/netbuf.c:116:12
	str	r0, [r1, #4]
	.loc	9 117 10 is_stmt 1              @ rt-thread/components/net/lwip-2.0.2/src/api/netbuf.c:117:10
	ldr	r0, [sp, #8]
	.loc	9 117 15 is_stmt 0              @ rt-thread/components/net/lwip-2.0.2/src/api/netbuf.c:117:15
	ldr	r0, [r0]
	.loc	9 117 18                        @ rt-thread/components/net/lwip-2.0.2/src/api/netbuf.c:117:18
	ldr	r0, [r0, #4]
	.loc	9 117 3                         @ rt-thread/components/net/lwip-2.0.2/src/api/netbuf.c:117:3
	str	r0, [sp, #12]
	b	.LBB2_17
.LBB2_17:
	.loc	9 118 1 is_stmt 1               @ rt-thread/components/net/lwip-2.0.2/src/api/netbuf.c:118:1
	ldr	r0, [sp, #12]
	add	sp, #16
	pop	{r7, pc}
.Ltmp36:
.Lfunc_end2:
	.size	netbuf_alloc, .Lfunc_end2-netbuf_alloc
	.cfi_endproc
	.cantunwind
	.fnend
                                        @ -- End function
	.section	.text.netbuf_free,"ax",%progbits
	.hidden	netbuf_free                     @ -- Begin function netbuf_free
	.globl	netbuf_free
	.p2align	3
	.type	netbuf_free,%function
	.code	16                              @ @netbuf_free
	.thumb_func
netbuf_free:
.Lfunc_begin3:
	.loc	9 128 0                         @ rt-thread/components/net/lwip-2.0.2/src/api/netbuf.c:128:0
	.fnstart
	.cfi_startproc
@ %bb.0:
	.save	{r7, lr}
	push	{r7, lr}
	.cfi_def_cfa_offset 8
	.cfi_offset lr, -4
	.cfi_offset r7, -8
	.pad	#8
	sub	sp, #8
	.cfi_def_cfa_offset 16
	str	r0, [sp, #4]
.Ltmp37:
	.loc	9 129 3 prologue_end            @ rt-thread/components/net/lwip-2.0.2/src/api/netbuf.c:129:3
	b	.LBB3_1
.LBB3_1:
.Ltmp38:
	.loc	9 129 3 is_stmt 0               @ rt-thread/components/net/lwip-2.0.2/src/api/netbuf.c:129:3
	ldr	r0, [sp, #4]
.Ltmp39:
	.loc	9 129 3                         @ rt-thread/components/net/lwip-2.0.2/src/api/netbuf.c:129:3
	cbnz	r0, .LBB3_5
	b	.LBB3_2
.LBB3_2:
.Ltmp40:
	.loc	9 129 3                         @ rt-thread/components/net/lwip-2.0.2/src/api/netbuf.c:129:3
	b	.LBB3_3
.LBB3_3:
.Ltmp41:
	.loc	9 129 3                         @ rt-thread/components/net/lwip-2.0.2/src/api/netbuf.c:129:3
	movw	r0, :lower16:.L.str.3
	movt	r0, :upper16:.L.str.3
	bl	rt_kprintf
	movw	r0, :lower16:.L.str
	movt	r0, :upper16:.L.str
	movs	r1, #129
	bl	sys_arch_assert
	b	.LBB3_4
.Ltmp42:
.LBB3_4:
	.loc	9 129 3                         @ rt-thread/components/net/lwip-2.0.2/src/api/netbuf.c:129:3
	b	.LBB3_9
.Ltmp43:
.LBB3_5:
	.loc	9 129 3                         @ rt-thread/components/net/lwip-2.0.2/src/api/netbuf.c:129:3
	b	.LBB3_6
.Ltmp44:
.LBB3_6:
	.loc	9 130 7 is_stmt 1               @ rt-thread/components/net/lwip-2.0.2/src/api/netbuf.c:130:7
	ldr	r0, [sp, #4]
	.loc	9 130 12 is_stmt 0              @ rt-thread/components/net/lwip-2.0.2/src/api/netbuf.c:130:12
	ldr	r0, [r0]
.Ltmp45:
	.loc	9 130 7                         @ rt-thread/components/net/lwip-2.0.2/src/api/netbuf.c:130:7
	cbz	r0, .LBB3_8
	b	.LBB3_7
.LBB3_7:
.Ltmp46:
	.loc	9 131 15 is_stmt 1              @ rt-thread/components/net/lwip-2.0.2/src/api/netbuf.c:131:15
	ldr	r0, [sp, #4]
	.loc	9 131 20 is_stmt 0              @ rt-thread/components/net/lwip-2.0.2/src/api/netbuf.c:131:20
	ldr	r0, [r0]
	.loc	9 131 5                         @ rt-thread/components/net/lwip-2.0.2/src/api/netbuf.c:131:5
	bl	pbuf_free
	.loc	9 132 3 is_stmt 1               @ rt-thread/components/net/lwip-2.0.2/src/api/netbuf.c:132:3
	b	.LBB3_8
.Ltmp47:
.LBB3_8:
	.loc	9 133 12                        @ rt-thread/components/net/lwip-2.0.2/src/api/netbuf.c:133:12
	ldr	r1, [sp, #4]
	movs	r0, #0
	.loc	9 133 21 is_stmt 0              @ rt-thread/components/net/lwip-2.0.2/src/api/netbuf.c:133:21
	str	r0, [r1, #4]
	.loc	9 133 3                         @ rt-thread/components/net/lwip-2.0.2/src/api/netbuf.c:133:3
	ldr	r1, [sp, #4]
	.loc	9 133 10                        @ rt-thread/components/net/lwip-2.0.2/src/api/netbuf.c:133:10
	str	r0, [r1]
	.loc	9 134 1 is_stmt 1               @ rt-thread/components/net/lwip-2.0.2/src/api/netbuf.c:134:1
	b	.LBB3_9
.LBB3_9:
	add	sp, #8
	pop	{r7, pc}
.Ltmp48:
.Lfunc_end3:
	.size	netbuf_free, .Lfunc_end3-netbuf_free
	.cfi_endproc
	.cantunwind
	.fnend
                                        @ -- End function
	.section	.text.netbuf_ref,"ax",%progbits
	.hidden	netbuf_ref                      @ -- Begin function netbuf_ref
	.globl	netbuf_ref
	.p2align	3
	.type	netbuf_ref,%function
	.code	16                              @ @netbuf_ref
	.thumb_func
netbuf_ref:
.Lfunc_begin4:
	.loc	9 148 0                         @ rt-thread/components/net/lwip-2.0.2/src/api/netbuf.c:148:0
	.fnstart
	.cfi_startproc
@ %bb.0:
	.save	{r7, lr}
	push	{r7, lr}
	.cfi_def_cfa_offset 8
	.cfi_offset lr, -4
	.cfi_offset r7, -8
	.pad	#16
	sub	sp, #16
	.cfi_def_cfa_offset 24
                                        @ kill: def $r3 killed $r2
	str	r0, [sp, #8]
	str	r1, [sp, #4]
	strh.w	r2, [sp, #2]
.Ltmp49:
	.loc	9 149 3 prologue_end            @ rt-thread/components/net/lwip-2.0.2/src/api/netbuf.c:149:3
	b	.LBB4_1
.LBB4_1:
.Ltmp50:
	.loc	9 149 3 is_stmt 0               @ rt-thread/components/net/lwip-2.0.2/src/api/netbuf.c:149:3
	ldr	r0, [sp, #8]
.Ltmp51:
	.loc	9 149 3                         @ rt-thread/components/net/lwip-2.0.2/src/api/netbuf.c:149:3
	cbnz	r0, .LBB4_5
	b	.LBB4_2
.LBB4_2:
.Ltmp52:
	.loc	9 149 3                         @ rt-thread/components/net/lwip-2.0.2/src/api/netbuf.c:149:3
	b	.LBB4_3
.LBB4_3:
.Ltmp53:
	.loc	9 149 3                         @ rt-thread/components/net/lwip-2.0.2/src/api/netbuf.c:149:3
	movw	r0, :lower16:.L.str.4
	movt	r0, :upper16:.L.str.4
	bl	rt_kprintf
	movw	r0, :lower16:.L.str
	movt	r0, :upper16:.L.str
	movs	r1, #149
	bl	sys_arch_assert
	b	.LBB4_4
.Ltmp54:
.LBB4_4:
	.loc	9 0 3                           @ rt-thread/components/net/lwip-2.0.2/src/api/netbuf.c:0:3
	movs	r0, #240
	.loc	9 149 3                         @ rt-thread/components/net/lwip-2.0.2/src/api/netbuf.c:149:3
	strb.w	r0, [sp, #15]
	b	.LBB4_11
.Ltmp55:
.LBB4_5:
	.loc	9 149 3                         @ rt-thread/components/net/lwip-2.0.2/src/api/netbuf.c:149:3
	b	.LBB4_6
.Ltmp56:
.LBB4_6:
	.loc	9 150 7 is_stmt 1               @ rt-thread/components/net/lwip-2.0.2/src/api/netbuf.c:150:7
	ldr	r0, [sp, #8]
	.loc	9 150 12 is_stmt 0              @ rt-thread/components/net/lwip-2.0.2/src/api/netbuf.c:150:12
	ldr	r0, [r0]
.Ltmp57:
	.loc	9 150 7                         @ rt-thread/components/net/lwip-2.0.2/src/api/netbuf.c:150:7
	cbz	r0, .LBB4_8
	b	.LBB4_7
.LBB4_7:
.Ltmp58:
	.loc	9 151 15 is_stmt 1              @ rt-thread/components/net/lwip-2.0.2/src/api/netbuf.c:151:15
	ldr	r0, [sp, #8]
	.loc	9 151 20 is_stmt 0              @ rt-thread/components/net/lwip-2.0.2/src/api/netbuf.c:151:20
	ldr	r0, [r0]
	.loc	9 151 5                         @ rt-thread/components/net/lwip-2.0.2/src/api/netbuf.c:151:5
	bl	pbuf_free
	.loc	9 152 3 is_stmt 1               @ rt-thread/components/net/lwip-2.0.2/src/api/netbuf.c:152:3
	b	.LBB4_8
.Ltmp59:
.LBB4_8:
	.loc	9 0 3 is_stmt 0                 @ rt-thread/components/net/lwip-2.0.2/src/api/netbuf.c:0:3
	movs	r1, #0
	movs	r2, #2
	.loc	9 153 12 is_stmt 1              @ rt-thread/components/net/lwip-2.0.2/src/api/netbuf.c:153:12
	mov	r0, r1
	bl	pbuf_alloc
	.loc	9 153 3 is_stmt 0               @ rt-thread/components/net/lwip-2.0.2/src/api/netbuf.c:153:3
	ldr	r1, [sp, #8]
	.loc	9 153 10                        @ rt-thread/components/net/lwip-2.0.2/src/api/netbuf.c:153:10
	str	r0, [r1]
.Ltmp60:
	.loc	9 154 7 is_stmt 1               @ rt-thread/components/net/lwip-2.0.2/src/api/netbuf.c:154:7
	ldr	r0, [sp, #8]
	.loc	9 154 12 is_stmt 0              @ rt-thread/components/net/lwip-2.0.2/src/api/netbuf.c:154:12
	ldr	r0, [r0]
.Ltmp61:
	.loc	9 154 7                         @ rt-thread/components/net/lwip-2.0.2/src/api/netbuf.c:154:7
	cbnz	r0, .LBB4_10
	b	.LBB4_9
.LBB4_9:
.Ltmp62:
	.loc	9 155 5 is_stmt 1               @ rt-thread/components/net/lwip-2.0.2/src/api/netbuf.c:155:5
	ldr	r1, [sp, #8]
	movs	r0, #0
	.loc	9 155 14 is_stmt 0              @ rt-thread/components/net/lwip-2.0.2/src/api/netbuf.c:155:14
	str	r0, [r1, #4]
	movs	r0, #255
	.loc	9 156 5 is_stmt 1               @ rt-thread/components/net/lwip-2.0.2/src/api/netbuf.c:156:5
	strb.w	r0, [sp, #15]
	b	.LBB4_11
.Ltmp63:
.LBB4_10:
	.loc	9 158 41                        @ rt-thread/components/net/lwip-2.0.2/src/api/netbuf.c:158:41
	ldr	r0, [sp, #4]
	.loc	9 158 22 is_stmt 0              @ rt-thread/components/net/lwip-2.0.2/src/api/netbuf.c:158:22
	ldr	r1, [sp, #8]
	.loc	9 158 27                        @ rt-thread/components/net/lwip-2.0.2/src/api/netbuf.c:158:27
	ldr	r1, [r1]
	.loc	9 158 39                        @ rt-thread/components/net/lwip-2.0.2/src/api/netbuf.c:158:39
	str	r0, [r1, #4]
	.loc	9 159 35 is_stmt 1              @ rt-thread/components/net/lwip-2.0.2/src/api/netbuf.c:159:35
	ldrh.w	r0, [sp, #2]
	.loc	9 159 17 is_stmt 0              @ rt-thread/components/net/lwip-2.0.2/src/api/netbuf.c:159:17
	ldr	r1, [sp, #8]
	.loc	9 159 22                        @ rt-thread/components/net/lwip-2.0.2/src/api/netbuf.c:159:22
	ldr	r1, [r1]
	.loc	9 159 33                        @ rt-thread/components/net/lwip-2.0.2/src/api/netbuf.c:159:33
	strh	r0, [r1, #8]
	.loc	9 159 3                         @ rt-thread/components/net/lwip-2.0.2/src/api/netbuf.c:159:3
	ldr	r1, [sp, #8]
	.loc	9 159 8                         @ rt-thread/components/net/lwip-2.0.2/src/api/netbuf.c:159:8
	ldr	r1, [r1]
	.loc	9 159 15                        @ rt-thread/components/net/lwip-2.0.2/src/api/netbuf.c:159:15
	strh	r0, [r1, #10]
	.loc	9 160 14 is_stmt 1              @ rt-thread/components/net/lwip-2.0.2/src/api/netbuf.c:160:14
	ldr	r1, [sp, #8]
	.loc	9 160 19 is_stmt 0              @ rt-thread/components/net/lwip-2.0.2/src/api/netbuf.c:160:19
	ldr	r0, [r1]
	.loc	9 160 12                        @ rt-thread/components/net/lwip-2.0.2/src/api/netbuf.c:160:12
	str	r0, [r1, #4]
	movs	r0, #0
	.loc	9 161 3 is_stmt 1               @ rt-thread/components/net/lwip-2.0.2/src/api/netbuf.c:161:3
	strb.w	r0, [sp, #15]
	b	.LBB4_11
.LBB4_11:
	.loc	9 162 1                         @ rt-thread/components/net/lwip-2.0.2/src/api/netbuf.c:162:1
	ldrsb.w	r0, [sp, #15]
	add	sp, #16
	pop	{r7, pc}
.Ltmp64:
.Lfunc_end4:
	.size	netbuf_ref, .Lfunc_end4-netbuf_ref
	.cfi_endproc
	.cantunwind
	.fnend
                                        @ -- End function
	.section	.text.netbuf_chain,"ax",%progbits
	.hidden	netbuf_chain                    @ -- Begin function netbuf_chain
	.globl	netbuf_chain
	.p2align	3
	.type	netbuf_chain,%function
	.code	16                              @ @netbuf_chain
	.thumb_func
netbuf_chain:
.Lfunc_begin5:
	.loc	9 173 0                         @ rt-thread/components/net/lwip-2.0.2/src/api/netbuf.c:173:0
	.fnstart
	.cfi_startproc
@ %bb.0:
	.save	{r7, lr}
	push	{r7, lr}
	.cfi_def_cfa_offset 8
	.cfi_offset lr, -4
	.cfi_offset r7, -8
	.pad	#8
	sub	sp, #8
	.cfi_def_cfa_offset 16
	str	r0, [sp, #4]
	str	r1, [sp]
.Ltmp65:
	.loc	9 174 3 prologue_end            @ rt-thread/components/net/lwip-2.0.2/src/api/netbuf.c:174:3
	b	.LBB5_1
.LBB5_1:
.Ltmp66:
	.loc	9 174 3 is_stmt 0               @ rt-thread/components/net/lwip-2.0.2/src/api/netbuf.c:174:3
	ldr	r0, [sp, #4]
.Ltmp67:
	.loc	9 174 3                         @ rt-thread/components/net/lwip-2.0.2/src/api/netbuf.c:174:3
	cbnz	r0, .LBB5_5
	b	.LBB5_2
.LBB5_2:
.Ltmp68:
	.loc	9 174 3                         @ rt-thread/components/net/lwip-2.0.2/src/api/netbuf.c:174:3
	b	.LBB5_3
.LBB5_3:
.Ltmp69:
	.loc	9 174 3                         @ rt-thread/components/net/lwip-2.0.2/src/api/netbuf.c:174:3
	movw	r0, :lower16:.L.str.5
	movt	r0, :upper16:.L.str.5
	bl	rt_kprintf
	movw	r0, :lower16:.L.str
	movt	r0, :upper16:.L.str
	movs	r1, #174
	bl	sys_arch_assert
	b	.LBB5_4
.Ltmp70:
.LBB5_4:
	.loc	9 174 3                         @ rt-thread/components/net/lwip-2.0.2/src/api/netbuf.c:174:3
	b	.LBB5_13
.Ltmp71:
.LBB5_5:
	.loc	9 174 3                         @ rt-thread/components/net/lwip-2.0.2/src/api/netbuf.c:174:3
	b	.LBB5_6
.Ltmp72:
.LBB5_6:
	.loc	9 175 3 is_stmt 1               @ rt-thread/components/net/lwip-2.0.2/src/api/netbuf.c:175:3
	b	.LBB5_7
.LBB5_7:
.Ltmp73:
	.loc	9 175 3 is_stmt 0               @ rt-thread/components/net/lwip-2.0.2/src/api/netbuf.c:175:3
	ldr	r0, [sp]
.Ltmp74:
	.loc	9 175 3                         @ rt-thread/components/net/lwip-2.0.2/src/api/netbuf.c:175:3
	cbnz	r0, .LBB5_11
	b	.LBB5_8
.LBB5_8:
.Ltmp75:
	.loc	9 175 3                         @ rt-thread/components/net/lwip-2.0.2/src/api/netbuf.c:175:3
	b	.LBB5_9
.LBB5_9:
.Ltmp76:
	.loc	9 175 3                         @ rt-thread/components/net/lwip-2.0.2/src/api/netbuf.c:175:3
	movw	r0, :lower16:.L.str.6
	movt	r0, :upper16:.L.str.6
	bl	rt_kprintf
	movw	r0, :lower16:.L.str
	movt	r0, :upper16:.L.str
	movs	r1, #175
	bl	sys_arch_assert
	b	.LBB5_10
.Ltmp77:
.LBB5_10:
	.loc	9 175 3                         @ rt-thread/components/net/lwip-2.0.2/src/api/netbuf.c:175:3
	b	.LBB5_13
.Ltmp78:
.LBB5_11:
	.loc	9 175 3                         @ rt-thread/components/net/lwip-2.0.2/src/api/netbuf.c:175:3
	b	.LBB5_12
.Ltmp79:
.LBB5_12:
	.loc	9 176 12 is_stmt 1              @ rt-thread/components/net/lwip-2.0.2/src/api/netbuf.c:176:12
	ldr	r0, [sp, #4]
	.loc	9 176 18 is_stmt 0              @ rt-thread/components/net/lwip-2.0.2/src/api/netbuf.c:176:18
	ldr	r0, [r0]
	.loc	9 176 21                        @ rt-thread/components/net/lwip-2.0.2/src/api/netbuf.c:176:21
	ldr	r1, [sp]
	.loc	9 176 27                        @ rt-thread/components/net/lwip-2.0.2/src/api/netbuf.c:176:27
	ldr	r1, [r1]
	.loc	9 176 3                         @ rt-thread/components/net/lwip-2.0.2/src/api/netbuf.c:176:3
	bl	pbuf_cat
	.loc	9 177 15 is_stmt 1              @ rt-thread/components/net/lwip-2.0.2/src/api/netbuf.c:177:15
	ldr	r1, [sp, #4]
	.loc	9 177 21 is_stmt 0              @ rt-thread/components/net/lwip-2.0.2/src/api/netbuf.c:177:21
	ldr	r0, [r1]
	.loc	9 177 13                        @ rt-thread/components/net/lwip-2.0.2/src/api/netbuf.c:177:13
	str	r0, [r1, #4]
	.loc	9 178 26 is_stmt 1              @ rt-thread/components/net/lwip-2.0.2/src/api/netbuf.c:178:26
	ldr	r1, [sp]
	movs	r0, #5
	.loc	9 178 3 is_stmt 0               @ rt-thread/components/net/lwip-2.0.2/src/api/netbuf.c:178:3
	bl	memp_free
	.loc	9 179 1 is_stmt 1               @ rt-thread/components/net/lwip-2.0.2/src/api/netbuf.c:179:1
	b	.LBB5_13
.LBB5_13:
	add	sp, #8
	pop	{r7, pc}
.Ltmp80:
.Lfunc_end5:
	.size	netbuf_chain, .Lfunc_end5-netbuf_chain
	.cfi_endproc
	.cantunwind
	.fnend
                                        @ -- End function
	.section	.text.netbuf_data,"ax",%progbits
	.hidden	netbuf_data                     @ -- Begin function netbuf_data
	.globl	netbuf_data
	.p2align	3
	.type	netbuf_data,%function
	.code	16                              @ @netbuf_data
	.thumb_func
netbuf_data:
.Lfunc_begin6:
	.loc	9 193 0                         @ rt-thread/components/net/lwip-2.0.2/src/api/netbuf.c:193:0
	.fnstart
	.cfi_startproc
@ %bb.0:
	.save	{r7, lr}
	push	{r7, lr}
	.cfi_def_cfa_offset 8
	.cfi_offset lr, -4
	.cfi_offset r7, -8
	.pad	#16
	sub	sp, #16
	.cfi_def_cfa_offset 24
	str	r0, [sp, #8]
	str	r1, [sp, #4]
	str	r2, [sp]
.Ltmp81:
	.loc	9 194 3 prologue_end            @ rt-thread/components/net/lwip-2.0.2/src/api/netbuf.c:194:3
	b	.LBB6_1
.LBB6_1:
.Ltmp82:
	.loc	9 194 3 is_stmt 0               @ rt-thread/components/net/lwip-2.0.2/src/api/netbuf.c:194:3
	ldr	r0, [sp, #8]
.Ltmp83:
	.loc	9 194 3                         @ rt-thread/components/net/lwip-2.0.2/src/api/netbuf.c:194:3
	cbnz	r0, .LBB6_5
	b	.LBB6_2
.LBB6_2:
.Ltmp84:
	.loc	9 194 3                         @ rt-thread/components/net/lwip-2.0.2/src/api/netbuf.c:194:3
	b	.LBB6_3
.LBB6_3:
.Ltmp85:
	.loc	9 194 3                         @ rt-thread/components/net/lwip-2.0.2/src/api/netbuf.c:194:3
	movw	r0, :lower16:.L.str.7
	movt	r0, :upper16:.L.str.7
	bl	rt_kprintf
	movw	r0, :lower16:.L.str
	movt	r0, :upper16:.L.str
	movs	r1, #194
	bl	sys_arch_assert
	b	.LBB6_4
.Ltmp86:
.LBB6_4:
	.loc	9 0 3                           @ rt-thread/components/net/lwip-2.0.2/src/api/netbuf.c:0:3
	movs	r0, #240
	.loc	9 194 3                         @ rt-thread/components/net/lwip-2.0.2/src/api/netbuf.c:194:3
	strb.w	r0, [sp, #15]
	b	.LBB6_21
.Ltmp87:
.LBB6_5:
	.loc	9 194 3                         @ rt-thread/components/net/lwip-2.0.2/src/api/netbuf.c:194:3
	b	.LBB6_6
.Ltmp88:
.LBB6_6:
	.loc	9 195 3 is_stmt 1               @ rt-thread/components/net/lwip-2.0.2/src/api/netbuf.c:195:3
	b	.LBB6_7
.LBB6_7:
.Ltmp89:
	.loc	9 195 3 is_stmt 0               @ rt-thread/components/net/lwip-2.0.2/src/api/netbuf.c:195:3
	ldr	r0, [sp, #4]
.Ltmp90:
	.loc	9 195 3                         @ rt-thread/components/net/lwip-2.0.2/src/api/netbuf.c:195:3
	cbnz	r0, .LBB6_11
	b	.LBB6_8
.LBB6_8:
.Ltmp91:
	.loc	9 195 3                         @ rt-thread/components/net/lwip-2.0.2/src/api/netbuf.c:195:3
	b	.LBB6_9
.LBB6_9:
.Ltmp92:
	.loc	9 195 3                         @ rt-thread/components/net/lwip-2.0.2/src/api/netbuf.c:195:3
	movw	r0, :lower16:.L.str.8
	movt	r0, :upper16:.L.str.8
	bl	rt_kprintf
	movw	r0, :lower16:.L.str
	movt	r0, :upper16:.L.str
	movs	r1, #195
	bl	sys_arch_assert
	b	.LBB6_10
.Ltmp93:
.LBB6_10:
	.loc	9 0 3                           @ rt-thread/components/net/lwip-2.0.2/src/api/netbuf.c:0:3
	movs	r0, #240
	.loc	9 195 3                         @ rt-thread/components/net/lwip-2.0.2/src/api/netbuf.c:195:3
	strb.w	r0, [sp, #15]
	b	.LBB6_21
.Ltmp94:
.LBB6_11:
	.loc	9 195 3                         @ rt-thread/components/net/lwip-2.0.2/src/api/netbuf.c:195:3
	b	.LBB6_12
.Ltmp95:
.LBB6_12:
	.loc	9 196 3 is_stmt 1               @ rt-thread/components/net/lwip-2.0.2/src/api/netbuf.c:196:3
	b	.LBB6_13
.LBB6_13:
.Ltmp96:
	.loc	9 196 3 is_stmt 0               @ rt-thread/components/net/lwip-2.0.2/src/api/netbuf.c:196:3
	ldr	r0, [sp]
.Ltmp97:
	.loc	9 196 3                         @ rt-thread/components/net/lwip-2.0.2/src/api/netbuf.c:196:3
	cbnz	r0, .LBB6_17
	b	.LBB6_14
.LBB6_14:
.Ltmp98:
	.loc	9 196 3                         @ rt-thread/components/net/lwip-2.0.2/src/api/netbuf.c:196:3
	b	.LBB6_15
.LBB6_15:
.Ltmp99:
	.loc	9 196 3                         @ rt-thread/components/net/lwip-2.0.2/src/api/netbuf.c:196:3
	movw	r0, :lower16:.L.str.9
	movt	r0, :upper16:.L.str.9
	bl	rt_kprintf
	movw	r0, :lower16:.L.str
	movt	r0, :upper16:.L.str
	movs	r1, #196
	bl	sys_arch_assert
	b	.LBB6_16
.Ltmp100:
.LBB6_16:
	.loc	9 0 3                           @ rt-thread/components/net/lwip-2.0.2/src/api/netbuf.c:0:3
	movs	r0, #240
	.loc	9 196 3                         @ rt-thread/components/net/lwip-2.0.2/src/api/netbuf.c:196:3
	strb.w	r0, [sp, #15]
	b	.LBB6_21
.Ltmp101:
.LBB6_17:
	.loc	9 196 3                         @ rt-thread/components/net/lwip-2.0.2/src/api/netbuf.c:196:3
	b	.LBB6_18
.Ltmp102:
.LBB6_18:
	.loc	9 198 7 is_stmt 1               @ rt-thread/components/net/lwip-2.0.2/src/api/netbuf.c:198:7
	ldr	r0, [sp, #8]
	.loc	9 198 12 is_stmt 0              @ rt-thread/components/net/lwip-2.0.2/src/api/netbuf.c:198:12
	ldr	r0, [r0, #4]
.Ltmp103:
	.loc	9 198 7                         @ rt-thread/components/net/lwip-2.0.2/src/api/netbuf.c:198:7
	cbnz	r0, .LBB6_20
	b	.LBB6_19
.LBB6_19:
	.loc	9 0 7                           @ rt-thread/components/net/lwip-2.0.2/src/api/netbuf.c:0:7
	movs	r0, #254
.Ltmp104:
	.loc	9 199 5 is_stmt 1               @ rt-thread/components/net/lwip-2.0.2/src/api/netbuf.c:199:5
	strb.w	r0, [sp, #15]
	b	.LBB6_21
.Ltmp105:
.LBB6_20:
	.loc	9 201 14                        @ rt-thread/components/net/lwip-2.0.2/src/api/netbuf.c:201:14
	ldr	r0, [sp, #8]
	.loc	9 201 19 is_stmt 0              @ rt-thread/components/net/lwip-2.0.2/src/api/netbuf.c:201:19
	ldr	r0, [r0, #4]
	.loc	9 201 24                        @ rt-thread/components/net/lwip-2.0.2/src/api/netbuf.c:201:24
	ldr	r0, [r0, #4]
	.loc	9 201 4                         @ rt-thread/components/net/lwip-2.0.2/src/api/netbuf.c:201:4
	ldr	r1, [sp, #4]
	.loc	9 201 12                        @ rt-thread/components/net/lwip-2.0.2/src/api/netbuf.c:201:12
	str	r0, [r1]
	.loc	9 202 10 is_stmt 1              @ rt-thread/components/net/lwip-2.0.2/src/api/netbuf.c:202:10
	ldr	r0, [sp, #8]
	.loc	9 202 15 is_stmt 0              @ rt-thread/components/net/lwip-2.0.2/src/api/netbuf.c:202:15
	ldr	r0, [r0, #4]
	.loc	9 202 20                        @ rt-thread/components/net/lwip-2.0.2/src/api/netbuf.c:202:20
	ldrh	r0, [r0, #10]
	.loc	9 202 4                         @ rt-thread/components/net/lwip-2.0.2/src/api/netbuf.c:202:4
	ldr	r1, [sp]
	.loc	9 202 8                         @ rt-thread/components/net/lwip-2.0.2/src/api/netbuf.c:202:8
	strh	r0, [r1]
	movs	r0, #0
	.loc	9 203 3 is_stmt 1               @ rt-thread/components/net/lwip-2.0.2/src/api/netbuf.c:203:3
	strb.w	r0, [sp, #15]
	b	.LBB6_21
.LBB6_21:
	.loc	9 204 1                         @ rt-thread/components/net/lwip-2.0.2/src/api/netbuf.c:204:1
	ldrsb.w	r0, [sp, #15]
	add	sp, #16
	pop	{r7, pc}
.Ltmp106:
.Lfunc_end6:
	.size	netbuf_data, .Lfunc_end6-netbuf_data
	.cfi_endproc
	.cantunwind
	.fnend
                                        @ -- End function
	.section	.text.netbuf_next,"ax",%progbits
	.hidden	netbuf_next                     @ -- Begin function netbuf_next
	.globl	netbuf_next
	.p2align	3
	.type	netbuf_next,%function
	.code	16                              @ @netbuf_next
	.thumb_func
netbuf_next:
.Lfunc_begin7:
	.loc	9 219 0                         @ rt-thread/components/net/lwip-2.0.2/src/api/netbuf.c:219:0
	.fnstart
	.cfi_startproc
@ %bb.0:
	.save	{r7, lr}
	push	{r7, lr}
	.cfi_def_cfa_offset 8
	.cfi_offset lr, -4
	.cfi_offset r7, -8
	.pad	#8
	sub	sp, #8
	.cfi_def_cfa_offset 16
	str	r0, [sp]
.Ltmp107:
	.loc	9 220 3 prologue_end            @ rt-thread/components/net/lwip-2.0.2/src/api/netbuf.c:220:3
	b	.LBB7_1
.LBB7_1:
.Ltmp108:
	.loc	9 220 3 is_stmt 0               @ rt-thread/components/net/lwip-2.0.2/src/api/netbuf.c:220:3
	ldr	r0, [sp]
.Ltmp109:
	.loc	9 220 3                         @ rt-thread/components/net/lwip-2.0.2/src/api/netbuf.c:220:3
	cbnz	r0, .LBB7_5
	b	.LBB7_2
.LBB7_2:
.Ltmp110:
	.loc	9 220 3                         @ rt-thread/components/net/lwip-2.0.2/src/api/netbuf.c:220:3
	b	.LBB7_3
.LBB7_3:
.Ltmp111:
	.loc	9 220 3                         @ rt-thread/components/net/lwip-2.0.2/src/api/netbuf.c:220:3
	movw	r0, :lower16:.L.str.10
	movt	r0, :upper16:.L.str.10
	bl	rt_kprintf
	movw	r0, :lower16:.L.str
	movt	r0, :upper16:.L.str
	movs	r1, #220
	bl	sys_arch_assert
	b	.LBB7_4
.Ltmp112:
.LBB7_4:
	.loc	9 0 3                           @ rt-thread/components/net/lwip-2.0.2/src/api/netbuf.c:0:3
	movs	r0, #255
	.loc	9 220 3                         @ rt-thread/components/net/lwip-2.0.2/src/api/netbuf.c:220:3
	strb.w	r0, [sp, #7]
	b	.LBB7_11
.Ltmp113:
.LBB7_5:
	.loc	9 220 3                         @ rt-thread/components/net/lwip-2.0.2/src/api/netbuf.c:220:3
	b	.LBB7_6
.Ltmp114:
.LBB7_6:
	.loc	9 221 7 is_stmt 1               @ rt-thread/components/net/lwip-2.0.2/src/api/netbuf.c:221:7
	ldr	r0, [sp]
	.loc	9 221 12 is_stmt 0              @ rt-thread/components/net/lwip-2.0.2/src/api/netbuf.c:221:12
	ldr	r0, [r0, #4]
	.loc	9 221 17                        @ rt-thread/components/net/lwip-2.0.2/src/api/netbuf.c:221:17
	ldr	r0, [r0]
.Ltmp115:
	.loc	9 221 7                         @ rt-thread/components/net/lwip-2.0.2/src/api/netbuf.c:221:7
	cbnz	r0, .LBB7_8
	b	.LBB7_7
.LBB7_7:
	.loc	9 0 7                           @ rt-thread/components/net/lwip-2.0.2/src/api/netbuf.c:0:7
	movs	r0, #255
.Ltmp116:
	.loc	9 222 5 is_stmt 1               @ rt-thread/components/net/lwip-2.0.2/src/api/netbuf.c:222:5
	strb.w	r0, [sp, #7]
	b	.LBB7_11
.Ltmp117:
.LBB7_8:
	.loc	9 224 14                        @ rt-thread/components/net/lwip-2.0.2/src/api/netbuf.c:224:14
	ldr	r1, [sp]
	.loc	9 224 19 is_stmt 0              @ rt-thread/components/net/lwip-2.0.2/src/api/netbuf.c:224:19
	ldr	r0, [r1, #4]
	.loc	9 224 24                        @ rt-thread/components/net/lwip-2.0.2/src/api/netbuf.c:224:24
	ldr	r0, [r0]
	.loc	9 224 12                        @ rt-thread/components/net/lwip-2.0.2/src/api/netbuf.c:224:12
	str	r0, [r1, #4]
.Ltmp118:
	.loc	9 225 7 is_stmt 1               @ rt-thread/components/net/lwip-2.0.2/src/api/netbuf.c:225:7
	ldr	r0, [sp]
	.loc	9 225 12 is_stmt 0              @ rt-thread/components/net/lwip-2.0.2/src/api/netbuf.c:225:12
	ldr	r0, [r0, #4]
	.loc	9 225 17                        @ rt-thread/components/net/lwip-2.0.2/src/api/netbuf.c:225:17
	ldr	r0, [r0]
.Ltmp119:
	.loc	9 225 7                         @ rt-thread/components/net/lwip-2.0.2/src/api/netbuf.c:225:7
	cbnz	r0, .LBB7_10
	b	.LBB7_9
.LBB7_9:
	.loc	9 0 7                           @ rt-thread/components/net/lwip-2.0.2/src/api/netbuf.c:0:7
	movs	r0, #1
.Ltmp120:
	.loc	9 226 5 is_stmt 1               @ rt-thread/components/net/lwip-2.0.2/src/api/netbuf.c:226:5
	strb.w	r0, [sp, #7]
	b	.LBB7_11
.Ltmp121:
.LBB7_10:
	.loc	9 0 5 is_stmt 0                 @ rt-thread/components/net/lwip-2.0.2/src/api/netbuf.c:0:5
	movs	r0, #0
	.loc	9 228 3 is_stmt 1               @ rt-thread/components/net/lwip-2.0.2/src/api/netbuf.c:228:3
	strb.w	r0, [sp, #7]
	b	.LBB7_11
.LBB7_11:
	.loc	9 229 1                         @ rt-thread/components/net/lwip-2.0.2/src/api/netbuf.c:229:1
	ldrsb.w	r0, [sp, #7]
	add	sp, #8
	pop	{r7, pc}
.Ltmp122:
.Lfunc_end7:
	.size	netbuf_next, .Lfunc_end7-netbuf_next
	.cfi_endproc
	.cantunwind
	.fnend
                                        @ -- End function
	.section	.text.netbuf_first,"ax",%progbits
	.hidden	netbuf_first                    @ -- Begin function netbuf_first
	.globl	netbuf_first
	.p2align	3
	.type	netbuf_first,%function
	.code	16                              @ @netbuf_first
	.thumb_func
netbuf_first:
.Lfunc_begin8:
	.loc	9 241 0                         @ rt-thread/components/net/lwip-2.0.2/src/api/netbuf.c:241:0
	.fnstart
	.cfi_startproc
@ %bb.0:
	.save	{r7, lr}
	push	{r7, lr}
	.cfi_def_cfa_offset 8
	.cfi_offset lr, -4
	.cfi_offset r7, -8
	.pad	#8
	sub	sp, #8
	.cfi_def_cfa_offset 16
	str	r0, [sp, #4]
.Ltmp123:
	.loc	9 242 3 prologue_end            @ rt-thread/components/net/lwip-2.0.2/src/api/netbuf.c:242:3
	b	.LBB8_1
.LBB8_1:
.Ltmp124:
	.loc	9 242 3 is_stmt 0               @ rt-thread/components/net/lwip-2.0.2/src/api/netbuf.c:242:3
	ldr	r0, [sp, #4]
.Ltmp125:
	.loc	9 242 3                         @ rt-thread/components/net/lwip-2.0.2/src/api/netbuf.c:242:3
	cbnz	r0, .LBB8_5
	b	.LBB8_2
.LBB8_2:
.Ltmp126:
	.loc	9 242 3                         @ rt-thread/components/net/lwip-2.0.2/src/api/netbuf.c:242:3
	b	.LBB8_3
.LBB8_3:
.Ltmp127:
	.loc	9 242 3                         @ rt-thread/components/net/lwip-2.0.2/src/api/netbuf.c:242:3
	movw	r0, :lower16:.L.str.11
	movt	r0, :upper16:.L.str.11
	bl	rt_kprintf
	movw	r0, :lower16:.L.str
	movt	r0, :upper16:.L.str
	movs	r1, #242
	bl	sys_arch_assert
	b	.LBB8_4
.Ltmp128:
.LBB8_4:
	.loc	9 242 3                         @ rt-thread/components/net/lwip-2.0.2/src/api/netbuf.c:242:3
	b	.LBB8_7
.Ltmp129:
.LBB8_5:
	.loc	9 242 3                         @ rt-thread/components/net/lwip-2.0.2/src/api/netbuf.c:242:3
	b	.LBB8_6
.Ltmp130:
.LBB8_6:
	.loc	9 243 14 is_stmt 1              @ rt-thread/components/net/lwip-2.0.2/src/api/netbuf.c:243:14
	ldr	r1, [sp, #4]
	.loc	9 243 19 is_stmt 0              @ rt-thread/components/net/lwip-2.0.2/src/api/netbuf.c:243:19
	ldr	r0, [r1]
	.loc	9 243 12                        @ rt-thread/components/net/lwip-2.0.2/src/api/netbuf.c:243:12
	str	r0, [r1, #4]
	.loc	9 244 1 is_stmt 1               @ rt-thread/components/net/lwip-2.0.2/src/api/netbuf.c:244:1
	b	.LBB8_7
.LBB8_7:
	add	sp, #8
	pop	{r7, pc}
.Ltmp131:
.Lfunc_end8:
	.size	netbuf_first, .Lfunc_end8-netbuf_first
	.cfi_endproc
	.cantunwind
	.fnend
                                        @ -- End function
	.type	.L.str,%object                  @ @.str
	.section	.rodata.str1.1,"aMS",%progbits,1
.L.str:
	.asciz	"rt-thread/components/net/lwip-2.0.2/src/api/netbuf.c"
	.size	.L.str, 53

	.type	.L.str.1,%object                @ @.str.1
.L.str.1:
	.asciz	"netbuf_alloc: invalid buf"
	.size	.L.str.1, 26

	.type	.L.str.2,%object                @ @.str.2
.L.str.2:
	.asciz	"check that first pbuf can hold size"
	.size	.L.str.2, 36

	.type	.L.str.3,%object                @ @.str.3
.L.str.3:
	.asciz	"netbuf_free: invalid buf"
	.size	.L.str.3, 25

	.type	.L.str.4,%object                @ @.str.4
.L.str.4:
	.asciz	"netbuf_ref: invalid buf"
	.size	.L.str.4, 24

	.type	.L.str.5,%object                @ @.str.5
.L.str.5:
	.asciz	"netbuf_chain: invalid head"
	.size	.L.str.5, 27

	.type	.L.str.6,%object                @ @.str.6
.L.str.6:
	.asciz	"netbuf_chain: invalid tail"
	.size	.L.str.6, 27

	.type	.L.str.7,%object                @ @.str.7
.L.str.7:
	.asciz	"netbuf_data: invalid buf"
	.size	.L.str.7, 25

	.type	.L.str.8,%object                @ @.str.8
.L.str.8:
	.asciz	"netbuf_data: invalid dataptr"
	.size	.L.str.8, 29

	.type	.L.str.9,%object                @ @.str.9
.L.str.9:
	.asciz	"netbuf_data: invalid len"
	.size	.L.str.9, 25

	.type	.L.str.10,%object               @ @.str.10
.L.str.10:
	.asciz	"netbuf_next: invalid buf"
	.size	.L.str.10, 25

	.type	.L.str.11,%object               @ @.str.11
.L.str.11:
	.asciz	"netbuf_first: invalid buf"
	.size	.L.str.11, 26

	.section	".note.GNU-stack","",%progbits
	.eabi_attribute	30, 6	@ Tag_ABI_optimization_goals
	.ARM_attribute	16, 1	@ Tag_AV_eba