	.text
	.syntax unified
	.eabi_attribute	67, "2.09"	@ Tag_conformance
	.cpu	cortex-m7
	.eabi_attribute	6, 13	@ Tag_CPU_arch
	.eabi_attribute	7, 77	@ Tag_CPU_arch_profile
	.eabi_attribute	8, 0	@ Tag_ARM_ISA_use
	.eabi_attribute	9, 2	@ Tag_THUMB_ISA_use
	.fpu	fpv5-d16
	.eabi_attribute	36, 1	@ Tag_FP_HP_extension
	.eabi_attribute	34, 1	@ Tag_CPU_unaligned_access
	.eabi_attribute	17, 1	@ Tag_ABI_PCS_GOT_use
	.eabi_attribute	20, 2	@ Tag_ABI_FP_denormal
	.eabi_attribute	21, 0	@ Tag_ABI_FP_exceptions
	.eabi_attribute	23, 1	@ Tag_ABI_FP_number_model
	.eabi_attribute	24, 1	@ Tag_ABI_align_needed
	.eabi_attribute	25, 1	@ Tag_ABI_align_preserved
	.eabi_attribute	28, 1	@ Tag_ABI_VFP_args
	.eabi_attribute	38, 1	@ Tag_ABI_FP_16bit_format
	.eabi_attribute	18, 2	@ Tag_ABI_PCS_wchar_t
	.eabi_attribute	26, 1	@ Tag_ABI_enum_size
	.eabi_attribute	14, 0	@ Tag_ABI_PCS_R9_use
	.file	"netdb.c"
	.file	1 "E:\\Smart-access-control\\Hardware\\CODE" "./rt-thread/components/net/lwip-2.0.2/src/include\\lwip/netdb.h"
	.file	2 "E:\\Smart-access-control\\Hardware\\CODE" "rt-thread/components/net/lwip-2.0.2/src/api/netdb.c"
	.file	3 "D:\\Keil_v5\\ARM\\ARMCLANG\\Bin\\..\\include" "stdint.h"
	.file	4 "E:\\Smart-access-control\\Hardware\\CODE" "./rt-thread/components/net/lwip-2.0.2/src/include\\lwip/arch.h"
	.file	5 "E:\\Smart-access-control\\Hardware\\CODE" "./rt-thread/components/net/lwip-2.0.2/src/include\\lwip/ip4_addr.h"
	.file	6 "E:\\Smart-access-control\\Hardware\\CODE" "./rt-thread/components/net/lwip-2.0.2/src/include\\lwip/ip_addr.h"
	.file	7 "E:\\Smart-access-control\\Hardware\\CODE" "./rt-thread/components/net/lwip-2.0.2/src/include\\lwip/err.h"
	.file	8 "E:\\Smart-access-control\\Hardware\\CODE" "./rt-thread/components/net/lwip-2.0.2/src/include\\lwip/memp.h"
	.file	9 "E:\\Smart-access-control\\Hardware\\CODE" "./rt-thread/components/net/lwip-2.0.2/src/include\\lwip/sockets.h"
	.file	10 "E:\\Smart-access-control\\Hardware\\CODE" "./rt-thread/components/net/lwip-2.0.2/src/include\\lwip/inet.h"
	.section	.text.lwip_gethostbyname,"ax",%progbits
	.hidden	lwip_gethostbyname              @ -- Begin function lwip_gethostbyname
	.globl	lwip_gethostbyname
	.p2align	3
	.type	lwip_gethostbyname,%function
	.code	16                              @ @lwip_gethostbyname
	.thumb_func
lwip_gethostbyname:
.Lfunc_begin0:
	.loc	2 88 0                          @ rt-thread/components/net/lwip-2.0.2/src/api/netdb.c:88:0
	.fnstart
	.cfi_sections .debug_frame
	.cfi_startproc
@ %bb.0:
	.save	{r7, lr}
	push	{r7, lr}
	.cfi_def_cfa_offset 8
	.cfi_offset lr, -4
	.cfi_offset r7, -8
	.pad	#32
	sub	sp, #32
	.cfi_def_cfa_offset 40
	str	r0, [sp, #24]
.Ltmp0:
	.loc	2 100 31 prologue_end           @ rt-thread/components/net/lwip-2.0.2/src/api/netdb.c:100:31
	ldr	r0, [sp, #24]
	add	r1, sp, #16
	.loc	2 100 9 is_stmt 0               @ rt-thread/components/net/lwip-2.0.2/src/api/netdb.c:100:9
	bl	netconn_gethostbyname
	.loc	2 100 7                         @ rt-thread/components/net/lwip-2.0.2/src/api/netdb.c:100:7
	strb.w	r0, [sp, #23]
.Ltmp1:
	.loc	2 101 7 is_stmt 1               @ rt-thread/components/net/lwip-2.0.2/src/api/netdb.c:101:7
	ldrsb.w	r0, [sp, #23]
.Ltmp2:
	.loc	2 101 7 is_stmt 0               @ rt-thread/components/net/lwip-2.0.2/src/api/netdb.c:101:7
	cbz	r0, .LBB0_2
	b	.LBB0_1
.LBB0_1:
.Ltmp3:
	.loc	2 103 13 is_stmt 1              @ rt-thread/components/net/lwip-2.0.2/src/api/netdb.c:103:13
	movw	r1, :lower16:h_errno
	movt	r1, :upper16:h_errno
	movs	r0, #210
	str	r0, [r1]
	movs	r0, #0
	.loc	2 104 5                         @ rt-thread/components/net/lwip-2.0.2/src/api/netdb.c:104:5
	str	r0, [sp, #28]
	b	.LBB0_3
.Ltmp4:
.LBB0_2:
	.loc	2 108 20                        @ rt-thread/components/net/lwip-2.0.2/src/api/netdb.c:108:20
	movw	r0, :lower16:lwip_gethostbyname.s_hostent_addr
	movt	r0, :upper16:lwip_gethostbyname.s_hostent_addr
	ldr	r1, [sp, #16]
	str	r1, [r0]
	.loc	2 109 22                        @ rt-thread/components/net/lwip-2.0.2/src/api/netdb.c:109:22
	movw	r1, :lower16:lwip_gethostbyname.s_phostent_addr
	movt	r1, :upper16:lwip_gethostbyname.s_phostent_addr
	str	r1, [sp, #12]                   @ 4-byte Spill
	str	r0, [r1]
	movs	r0, #0
	.loc	2 110 22                        @ rt-thread/components/net/lwip-2.0.2/src/api/netdb.c:110:22
	str	r0, [sp, #8]                    @ 4-byte Spill
	str	r0, [r1, #4]
	.loc	2 111 23                        @ rt-thread/components/net/lwip-2.0.2/src/api/netdb.c:111:23
	ldr	r1, [sp, #24]
	.loc	2 111 3 is_stmt 0               @ rt-thread/components/net/lwip-2.0.2/src/api/netdb.c:111:3
	movw	r0, :lower16:lwip_gethostbyname.s_hostname
	movt	r0, :upper16:lwip_gethostbyname.s_hostname
	str	r0, [sp, #4]                    @ 4-byte Spill
	mov.w	r2, #256
	bl	strncpy
	ldr	r2, [sp, #4]                    @ 4-byte Reload
	ldr	r3, [sp, #8]                    @ 4-byte Reload
	ldr	r1, [sp, #12]                   @ 4-byte Reload
	.loc	2 112 35 is_stmt 1              @ rt-thread/components/net/lwip-2.0.2/src/api/netdb.c:112:35
	strb.w	r3, [r2, #256]
	.loc	2 113 20                        @ rt-thread/components/net/lwip-2.0.2/src/api/netdb.c:113:20
	movw	r0, :lower16:lwip_gethostbyname.s_hostent
	movt	r0, :upper16:lwip_gethostbyname.s_hostent
	str	r2, [r0]
	.loc	2 114 13                        @ rt-thread/components/net/lwip-2.0.2/src/api/netdb.c:114:13
	movw	r2, :lower16:lwip_gethostbyname.s_aliases
	movt	r2, :upper16:lwip_gethostbyname.s_aliases
	str	r3, [r2]
	.loc	2 115 23                        @ rt-thread/components/net/lwip-2.0.2/src/api/netdb.c:115:23
	str	r2, [r0, #4]
	movs	r2, #2
	.loc	2 116 24                        @ rt-thread/components/net/lwip-2.0.2/src/api/netdb.c:116:24
	str	r2, [r0, #8]
	movs	r2, #4
	.loc	2 117 22                        @ rt-thread/components/net/lwip-2.0.2/src/api/netdb.c:117:22
	str	r2, [r0, #12]
	.loc	2 118 25                        @ rt-thread/components/net/lwip-2.0.2/src/api/netdb.c:118:25
	str	r1, [r0, #16]
	.loc	2 141 3                         @ rt-thread/components/net/lwip-2.0.2/src/api/netdb.c:141:3
	str	r0, [sp, #28]
	b	.LBB0_3
.LBB0_3:
	.loc	2 143 1                         @ rt-thread/components/net/lwip-2.0.2/src/api/netdb.c:143:1
	ldr	r0, [sp, #28]
	add	sp, #32
	pop	{r7, pc}
.Ltmp5:
.Lfunc_end0:
	.size	lwip_gethostbyname, .Lfunc_end0-lwip_gethostbyname
	.cfi_endproc
	.cantunwind
	.fnend
                                        @ -- End function
	.section	.text.lwip_gethostbyname_r,"ax",%progbits
	.hidden	lwip_gethostbyname_r            @ -- Begin function lwip_gethostbyname_r
	.globl	lwip_gethostbyname_r
	.p2align	3
	.type	lwip_gethostbyname_r,%function
	.code	16                              @ @lwip_gethostbyname_r
	.thumb_func
lwip_gethostbyname_r:
.Lfunc_begin1:
	.loc	2 164 0                         @ rt-thread/components/net/lwip-2.0.2/src/api/netdb.c:164:0
	.fnstart
	.cfi_startproc
@ %bb.0:
	.save	{r7, lr}
	push	{r7, lr}
	.cfi_def_cfa_offset 8
	.cfi_offset lr, -4
	.cfi_offset r7, -8
	.pad	#40
	sub	sp, #40
	.cfi_def_cfa_offset 48
	ldr.w	r12, [sp, #52]
	ldr.w	r12, [sp, #48]
	str	r0, [sp, #32]
	str	r1, [sp, #28]
	str	r2, [sp, #24]
	str	r3, [sp, #20]
.Ltmp6:
	.loc	2 171 7 prologue_end            @ rt-thread/components/net/lwip-2.0.2/src/api/netdb.c:171:7
	ldr	r0, [sp, #52]
.Ltmp7:
	.loc	2 171 7 is_stmt 0               @ rt-thread/components/net/lwip-2.0.2/src/api/netdb.c:171:7
	cbnz	r0, .LBB1_2
	b	.LBB1_1
.LBB1_1:
	.loc	2 0 7                           @ rt-thread/components/net/lwip-2.0.2/src/api/netdb.c:0:7
	mov	r0, sp
.Ltmp8:
	.loc	2 173 14 is_stmt 1              @ rt-thread/components/net/lwip-2.0.2/src/api/netdb.c:173:14
	str	r0, [sp, #52]
	.loc	2 174 3                         @ rt-thread/components/net/lwip-2.0.2/src/api/netdb.c:174:3
	b	.LBB1_2
.Ltmp9:
.LBB1_2:
	.loc	2 176 7                         @ rt-thread/components/net/lwip-2.0.2/src/api/netdb.c:176:7
	ldr	r0, [sp, #48]
.Ltmp10:
	.loc	2 176 7 is_stmt 0               @ rt-thread/components/net/lwip-2.0.2/src/api/netdb.c:176:7
	cbnz	r0, .LBB1_4
	b	.LBB1_3
.LBB1_3:
.Ltmp11:
	.loc	2 178 6 is_stmt 1               @ rt-thread/components/net/lwip-2.0.2/src/api/netdb.c:178:6
	ldr	r1, [sp, #52]
	movs	r0, #22
	.loc	2 178 15 is_stmt 0              @ rt-thread/components/net/lwip-2.0.2/src/api/netdb.c:178:15
	str	r0, [r1]
	mov.w	r0, #-1
	.loc	2 179 5 is_stmt 1               @ rt-thread/components/net/lwip-2.0.2/src/api/netdb.c:179:5
	str	r0, [sp, #36]
	b	.LBB1_13
.Ltmp12:
.LBB1_4:
	.loc	2 182 4                         @ rt-thread/components/net/lwip-2.0.2/src/api/netdb.c:182:4
	ldr	r1, [sp, #48]
	movs	r0, #0
	.loc	2 182 11 is_stmt 0              @ rt-thread/components/net/lwip-2.0.2/src/api/netdb.c:182:11
	str	r0, [r1]
.Ltmp13:
	.loc	2 183 8 is_stmt 1               @ rt-thread/components/net/lwip-2.0.2/src/api/netdb.c:183:8
	ldr	r0, [sp, #32]
	.loc	2 183 22 is_stmt 0              @ rt-thread/components/net/lwip-2.0.2/src/api/netdb.c:183:22
	cbz	r0, .LBB1_7
	b	.LBB1_5
.LBB1_5:
	.loc	2 183 26                        @ rt-thread/components/net/lwip-2.0.2/src/api/netdb.c:183:26
	ldr	r0, [sp, #28]
	.loc	2 183 39                        @ rt-thread/components/net/lwip-2.0.2/src/api/netdb.c:183:39
	cbz	r0, .LBB1_7
	b	.LBB1_6
.LBB1_6:
	.loc	2 183 43                        @ rt-thread/components/net/lwip-2.0.2/src/api/netdb.c:183:43
	ldr	r0, [sp, #24]
.Ltmp14:
	.loc	2 183 7                         @ rt-thread/components/net/lwip-2.0.2/src/api/netdb.c:183:7
	cbnz	r0, .LBB1_8
	b	.LBB1_7
.LBB1_7:
.Ltmp15:
	.loc	2 185 6 is_stmt 1               @ rt-thread/components/net/lwip-2.0.2/src/api/netdb.c:185:6
	ldr	r1, [sp, #52]
	movs	r0, #22
	.loc	2 185 15 is_stmt 0              @ rt-thread/components/net/lwip-2.0.2/src/api/netdb.c:185:15
	str	r0, [r1]
	mov.w	r0, #-1
	.loc	2 186 5 is_stmt 1               @ rt-thread/components/net/lwip-2.0.2/src/api/netdb.c:186:5
	str	r0, [sp, #36]
	b	.LBB1_13
.Ltmp16:
.LBB1_8:
	.loc	2 189 20                        @ rt-thread/components/net/lwip-2.0.2/src/api/netdb.c:189:20
	ldr	r0, [sp, #32]
	.loc	2 189 13 is_stmt 0              @ rt-thread/components/net/lwip-2.0.2/src/api/netdb.c:189:13
	bl	strlen
	.loc	2 189 11                        @ rt-thread/components/net/lwip-2.0.2/src/api/netdb.c:189:11
	str	r0, [sp, #4]
.Ltmp17:
	.loc	2 190 7 is_stmt 1               @ rt-thread/components/net/lwip-2.0.2/src/api/netdb.c:190:7
	ldr	r0, [sp, #20]
	.loc	2 190 57 is_stmt 0              @ rt-thread/components/net/lwip-2.0.2/src/api/netdb.c:190:57
	ldr	r1, [sp, #4]
	.loc	2 190 69                        @ rt-thread/components/net/lwip-2.0.2/src/api/netdb.c:190:69
	adds	r1, #20
.Ltmp18:
	.loc	2 190 7                         @ rt-thread/components/net/lwip-2.0.2/src/api/netdb.c:190:7
	cmp	r0, r1
	bhs	.LBB1_10
	b	.LBB1_9
.LBB1_9:
.Ltmp19:
	.loc	2 192 6 is_stmt 1               @ rt-thread/components/net/lwip-2.0.2/src/api/netdb.c:192:6
	ldr	r1, [sp, #52]
	movs	r0, #34
	.loc	2 192 15 is_stmt 0              @ rt-thread/components/net/lwip-2.0.2/src/api/netdb.c:192:15
	str	r0, [r1]
	mov.w	r0, #-1
	.loc	2 193 5 is_stmt 1               @ rt-thread/components/net/lwip-2.0.2/src/api/netdb.c:193:5
	str	r0, [sp, #36]
	b	.LBB1_13
.Ltmp20:
.LBB1_10:
	.loc	2 196 39                        @ rt-thread/components/net/lwip-2.0.2/src/api/netdb.c:196:39
	ldr	r0, [sp, #24]
	adds	r0, #3
	bic	r0, r0, #3
	.loc	2 196 5 is_stmt 0               @ rt-thread/components/net/lwip-2.0.2/src/api/netdb.c:196:5
	str	r0, [sp, #12]
	.loc	2 197 22 is_stmt 1              @ rt-thread/components/net/lwip-2.0.2/src/api/netdb.c:197:22
	ldr	r0, [sp, #12]
	.loc	2 197 25 is_stmt 0              @ rt-thread/components/net/lwip-2.0.2/src/api/netdb.c:197:25
	adds	r0, #16
	.loc	2 197 12                        @ rt-thread/components/net/lwip-2.0.2/src/api/netdb.c:197:12
	str	r0, [sp, #8]
	.loc	2 200 31 is_stmt 1              @ rt-thread/components/net/lwip-2.0.2/src/api/netdb.c:200:31
	ldr	r0, [sp, #32]
	.loc	2 200 38 is_stmt 0              @ rt-thread/components/net/lwip-2.0.2/src/api/netdb.c:200:38
	ldr	r1, [sp, #12]
	.loc	2 200 41                        @ rt-thread/components/net/lwip-2.0.2/src/api/netdb.c:200:41
	adds	r1, #8
	.loc	2 200 9                         @ rt-thread/components/net/lwip-2.0.2/src/api/netdb.c:200:9
	bl	netconn_gethostbyname
	.loc	2 200 7                         @ rt-thread/components/net/lwip-2.0.2/src/api/netdb.c:200:7
	strb.w	r0, [sp, #19]
.Ltmp21:
	.loc	2 201 7 is_stmt 1               @ rt-thread/components/net/lwip-2.0.2/src/api/netdb.c:201:7
	ldrsb.w	r0, [sp, #19]
.Ltmp22:
	.loc	2 201 7 is_stmt 0               @ rt-thread/components/net/lwip-2.0.2/src/api/netdb.c:201:7
	cbz	r0, .LBB1_12
	b	.LBB1_11
.LBB1_11:
.Ltmp23:
	.loc	2 203 6 is_stmt 1               @ rt-thread/components/net/lwip-2.0.2/src/api/netdb.c:203:6
	ldr	r1, [sp, #52]
	movs	r0, #210
	.loc	2 203 15 is_stmt 0              @ rt-thread/components/net/lwip-2.0.2/src/api/netdb.c:203:15
	str	r0, [r1]
	mov.w	r0, #-1
	.loc	2 204 5 is_stmt 1               @ rt-thread/components/net/lwip-2.0.2/src/api/netdb.c:204:5
	str	r0, [sp, #36]
	b	.LBB1_13
.Ltmp24:
.LBB1_12:
	.loc	2 208 3                         @ rt-thread/components/net/lwip-2.0.2/src/api/netdb.c:208:3
	ldr	r0, [sp, #8]
	ldr	r1, [sp, #32]
	ldr	r2, [sp, #4]
	bl	__aeabi_memcpy
	.loc	2 209 3                         @ rt-thread/components/net/lwip-2.0.2/src/api/netdb.c:209:3
	ldr	r1, [sp, #8]
	.loc	2 209 12 is_stmt 0              @ rt-thread/components/net/lwip-2.0.2/src/api/netdb.c:209:12
	ldr	r2, [sp, #4]
	movs	r0, #0
	.loc	2 209 21                        @ rt-thread/components/net/lwip-2.0.2/src/api/netdb.c:209:21
	strb	r0, [r1, r2]
	.loc	2 212 22 is_stmt 1              @ rt-thread/components/net/lwip-2.0.2/src/api/netdb.c:212:22
	ldr	r2, [sp, #12]
	.loc	2 212 25 is_stmt 0              @ rt-thread/components/net/lwip-2.0.2/src/api/netdb.c:212:25
	add.w	r1, r2, #8
	.loc	2 212 19                        @ rt-thread/components/net/lwip-2.0.2/src/api/netdb.c:212:19
	str	r1, [r2]
	.loc	2 213 3 is_stmt 1               @ rt-thread/components/net/lwip-2.0.2/src/api/netdb.c:213:3
	ldr	r1, [sp, #12]
	.loc	2 213 19 is_stmt 0              @ rt-thread/components/net/lwip-2.0.2/src/api/netdb.c:213:19
	str	r0, [r1, #4]
	.loc	2 214 3 is_stmt 1               @ rt-thread/components/net/lwip-2.0.2/src/api/netdb.c:214:3
	ldr	r1, [sp, #12]
	.loc	2 214 14 is_stmt 0              @ rt-thread/components/net/lwip-2.0.2/src/api/netdb.c:214:14
	str	r0, [r1, #12]
	.loc	2 215 17 is_stmt 1              @ rt-thread/components/net/lwip-2.0.2/src/api/netdb.c:215:17
	ldr	r1, [sp, #8]
	.loc	2 215 3 is_stmt 0               @ rt-thread/components/net/lwip-2.0.2/src/api/netdb.c:215:3
	ldr	r2, [sp, #28]
	.loc	2 215 15                        @ rt-thread/components/net/lwip-2.0.2/src/api/netdb.c:215:15
	str	r1, [r2]
	.loc	2 216 21 is_stmt 1              @ rt-thread/components/net/lwip-2.0.2/src/api/netdb.c:216:21
	ldr	r1, [sp, #12]
	.loc	2 216 24 is_stmt 0              @ rt-thread/components/net/lwip-2.0.2/src/api/netdb.c:216:24
	adds	r1, #12
	.loc	2 216 3                         @ rt-thread/components/net/lwip-2.0.2/src/api/netdb.c:216:3
	ldr	r2, [sp, #28]
	.loc	2 216 18                        @ rt-thread/components/net/lwip-2.0.2/src/api/netdb.c:216:18
	str	r1, [r2, #4]
	.loc	2 217 3 is_stmt 1               @ rt-thread/components/net/lwip-2.0.2/src/api/netdb.c:217:3
	ldr	r2, [sp, #28]
	movs	r1, #2
	.loc	2 217 19 is_stmt 0              @ rt-thread/components/net/lwip-2.0.2/src/api/netdb.c:217:19
	str	r1, [r2, #8]
	.loc	2 218 3 is_stmt 1               @ rt-thread/components/net/lwip-2.0.2/src/api/netdb.c:218:3
	ldr	r2, [sp, #28]
	movs	r1, #4
	.loc	2 218 17 is_stmt 0              @ rt-thread/components/net/lwip-2.0.2/src/api/netdb.c:218:17
	str	r1, [r2, #12]
	.loc	2 219 31 is_stmt 1              @ rt-thread/components/net/lwip-2.0.2/src/api/netdb.c:219:31
	ldr	r1, [sp, #12]
	.loc	2 219 3 is_stmt 0               @ rt-thread/components/net/lwip-2.0.2/src/api/netdb.c:219:3
	ldr	r2, [sp, #28]
	.loc	2 219 20                        @ rt-thread/components/net/lwip-2.0.2/src/api/netdb.c:219:20
	str	r1, [r2, #16]
	.loc	2 222 13 is_stmt 1              @ rt-thread/components/net/lwip-2.0.2/src/api/netdb.c:222:13
	ldr	r1, [sp, #28]
	.loc	2 222 4 is_stmt 0               @ rt-thread/components/net/lwip-2.0.2/src/api/netdb.c:222:4
	ldr	r2, [sp, #48]
	.loc	2 222 11                        @ rt-thread/components/net/lwip-2.0.2/src/api/netdb.c:222:11
	str	r1, [r2]
	.loc	2 225 3 is_stmt 1               @ rt-thread/components/net/lwip-2.0.2/src/api/netdb.c:225:3
	str	r0, [sp, #36]
	b	.LBB1_13
.LBB1_13:
	.loc	2 226 1                         @ rt-thread/components/net/lwip-2.0.2/src/api/netdb.c:226:1
	ldr	r0, [sp, #36]
	add	sp, #40
	pop	{r7, pc}
.Ltmp25:
.Lfunc_end1:
	.size	lwip_gethostbyname_r, .Lfunc_end1-lwip_gethostbyname_r
	.cfi_endproc
	.cantunwind
	.fnend
                                        @ -- End function
	.section	.text.lwip_freeaddrinfo,"ax",%progbits
	.hidden	lwip_freeaddrinfo               @ -- Begin function lwip_freeaddrinfo
	.globl	lwip_freeaddrinfo
	.p2align	3
	.type	lwip_freeaddrinfo,%function
	.code	16                              @ @lwip_freeaddrinfo
	.thumb_func
lwip_freeaddrinfo:
.Lfunc_begin2:
	.loc	2 237 0                         @ rt-thread/components/net/lwip-2.0.2/src/api/netdb.c:237:0
	.fnstart
	.cfi_startproc
@ %bb.0:
	.save	{r7, lr}
	push	{r7, lr}
	.cfi_def_cfa_offset 8
	.cfi_offset lr, -4
	.cfi_offset r7, -8
	.pad	#8
	sub	sp, #8
	.cfi_def_cfa_offset 16
	str	r0, [sp, #4]
.Ltmp26:
	.loc	2 240 3 prologue_end            @ rt-thread/components/net/lwip-2.0.2/src/api/netdb.c:240:3
	b	.LBB2_1
.LBB2_1:                                @ =>This Inner Loop Header: Depth=1
	.loc	2 240 10 is_stmt 0              @ rt-thread/components/net/lwip-2.0.2/src/api/netdb.c:240:10
	ldr	r0, [sp, #4]
	.loc	2 240 3                         @ rt-thread/components/net/lwip-2.0.2/src/api/netdb.c:240:3
	cbz	r0, .LBB2_3
	b	.LBB2_2
.LBB2_2:                                @   in Loop: Header=BB2_1 Depth=1
.Ltmp27:
	.loc	2 241 12 is_stmt 1              @ rt-thread/components/net/lwip-2.0.2/src/api/netdb.c:241:12
	ldr	r0, [sp, #4]
	.loc	2 241 16 is_stmt 0              @ rt-thread/components/net/lwip-2.0.2/src/api/netdb.c:241:16
	ldr	r0, [r0, #28]
	.loc	2 241 10                        @ rt-thread/components/net/lwip-2.0.2/src/api/netdb.c:241:10
	str	r0, [sp]
	.loc	2 242 27 is_stmt 1              @ rt-thread/components/net/lwip-2.0.2/src/api/netdb.c:242:27
	ldr	r1, [sp, #4]
	movs	r0, #12
	.loc	2 242 5 is_stmt 0               @ rt-thread/components/net/lwip-2.0.2/src/api/netdb.c:242:5
	bl	memp_free
	.loc	2 243 10 is_stmt 1              @ rt-thread/components/net/lwip-2.0.2/src/api/netdb.c:243:10
	ldr	r0, [sp]
	.loc	2 243 8 is_stmt 0               @ rt-thread/components/net/lwip-2.0.2/src/api/netdb.c:243:8
	str	r0, [sp, #4]
.Ltmp28:
	.loc	2 240 3 is_stmt 1               @ rt-thread/components/net/lwip-2.0.2/src/api/netdb.c:240:3
	b	.LBB2_1
.LBB2_3:
	.loc	2 245 1                         @ rt-thread/components/net/lwip-2.0.2/src/api/netdb.c:245:1
	add	sp, #8
	pop	{r7, pc}
.Ltmp29:
.Lfunc_end2:
	.size	lwip_freeaddrinfo, .Lfunc_end2-lwip_freeaddrinfo
	.cfi_endproc
	.cantunwind
	.fnend
                                        @ -- End function
	.section	.text.lwip_getaddrinfo,"ax",%progbits
	.hidden	lwip_getaddrinfo                @ -- Begin function lwip_getaddrinfo
	.globl	lwip_getaddrinfo
	.p2align	3
	.type	lwip_getaddrinfo,%function
	.code	16                              @ @lwip_getaddrinfo
	.thumb_func
lwip_getaddrinfo:
.Lfunc_begin3:
	.loc	2 271 0                         @ rt-thread/components/net/lwip-2.0.2/src/api/netdb.c:271:0
	.fnstart
	.cfi_startproc
@ %bb.0:
	.save	{r7, lr}
	push	{r7, lr}
	.cfi_def_cfa_offset 8
	.cfi_offset lr, -4
	.cfi_offset r7, -8
	.pad	#64
	sub	sp, #64
	.cfi_def_cfa_offset 72
	str	r0, [sp, #56]
	str	r1, [sp, #52]
	str	r2, [sp, #48]
	str	r3, [sp, #44]
	movs	r0, #0
.Ltmp30:
	.loc	2 275 28 prologue_end           @ rt-thread/components/net/lwip-2.0.2/src/api/netdb.c:275:28
	str	r0, [sp, #28]
	.loc	2 276 7                         @ rt-thread/components/net/lwip-2.0.2/src/api/netdb.c:276:7
	str	r0, [sp, #24]
	.loc	2 278 10                        @ rt-thread/components/net/lwip-2.0.2/src/api/netdb.c:278:10
	str	r0, [sp, #16]
.Ltmp31:
	.loc	2 281 7                         @ rt-thread/components/net/lwip-2.0.2/src/api/netdb.c:281:7
	ldr	r0, [sp, #44]
.Ltmp32:
	.loc	2 281 7 is_stmt 0               @ rt-thread/components/net/lwip-2.0.2/src/api/netdb.c:281:7
	cbnz	r0, .LBB3_2
	b	.LBB3_1
.LBB3_1:
	.loc	2 0 7                           @ rt-thread/components/net/lwip-2.0.2/src/api/netdb.c:0:7
	movs	r0, #202
.Ltmp33:
	.loc	2 282 5 is_stmt 1               @ rt-thread/components/net/lwip-2.0.2/src/api/netdb.c:282:5
	str	r0, [sp, #60]
	b	.LBB3_54
.Ltmp34:
.LBB3_2:
	.loc	2 284 4                         @ rt-thread/components/net/lwip-2.0.2/src/api/netdb.c:284:4
	ldr	r1, [sp, #44]
	movs	r0, #0
	.loc	2 284 8 is_stmt 0               @ rt-thread/components/net/lwip-2.0.2/src/api/netdb.c:284:8
	str	r0, [r1]
.Ltmp35:
	.loc	2 285 8 is_stmt 1               @ rt-thread/components/net/lwip-2.0.2/src/api/netdb.c:285:8
	ldr	r0, [sp, #56]
	.loc	2 285 26 is_stmt 0              @ rt-thread/components/net/lwip-2.0.2/src/api/netdb.c:285:26
	cbnz	r0, .LBB3_5
	b	.LBB3_3
.LBB3_3:
	.loc	2 285 30                        @ rt-thread/components/net/lwip-2.0.2/src/api/netdb.c:285:30
	ldr	r0, [sp, #52]
.Ltmp36:
	.loc	2 285 7                         @ rt-thread/components/net/lwip-2.0.2/src/api/netdb.c:285:7
	cbnz	r0, .LBB3_5
	b	.LBB3_4
.LBB3_4:
	.loc	2 0 7                           @ rt-thread/components/net/lwip-2.0.2/src/api/netdb.c:0:7
	movs	r0, #200
.Ltmp37:
	.loc	2 286 5 is_stmt 1               @ rt-thread/components/net/lwip-2.0.2/src/api/netdb.c:286:5
	str	r0, [sp, #60]
	b	.LBB3_54
.Ltmp38:
.LBB3_5:
	.loc	2 289 7                         @ rt-thread/components/net/lwip-2.0.2/src/api/netdb.c:289:7
	ldr	r0, [sp, #48]
.Ltmp39:
	.loc	2 289 7 is_stmt 0               @ rt-thread/components/net/lwip-2.0.2/src/api/netdb.c:289:7
	cbz	r0, .LBB3_10
	b	.LBB3_6
.LBB3_6:
.Ltmp40:
	.loc	2 290 17 is_stmt 1              @ rt-thread/components/net/lwip-2.0.2/src/api/netdb.c:290:17
	ldr	r0, [sp, #48]
	.loc	2 290 24 is_stmt 0              @ rt-thread/components/net/lwip-2.0.2/src/api/netdb.c:290:24
	ldr	r0, [r0, #4]
	.loc	2 290 15                        @ rt-thread/components/net/lwip-2.0.2/src/api/netdb.c:290:15
	str	r0, [sp, #12]
.Ltmp41:
	.loc	2 291 10 is_stmt 1              @ rt-thread/components/net/lwip-2.0.2/src/api/netdb.c:291:10
	ldr	r0, [sp, #12]
	.loc	2 293 7                         @ rt-thread/components/net/lwip-2.0.2/src/api/netdb.c:293:7
	cbz	r0, .LBB3_9
	b	.LBB3_7
.LBB3_7:
	.loc	2 293 11 is_stmt 0              @ rt-thread/components/net/lwip-2.0.2/src/api/netdb.c:293:11
	ldr	r0, [sp, #12]
.Ltmp42:
	.loc	2 291 9 is_stmt 1               @ rt-thread/components/net/lwip-2.0.2/src/api/netdb.c:291:9
	cmp	r0, #2
	beq	.LBB3_9
	b	.LBB3_8
.LBB3_8:
	.loc	2 0 9 is_stmt 0                 @ rt-thread/components/net/lwip-2.0.2/src/api/netdb.c:0:9
	movs	r0, #204
.Ltmp43:
	.loc	2 299 7 is_stmt 1               @ rt-thread/components/net/lwip-2.0.2/src/api/netdb.c:299:7
	str	r0, [sp, #60]
	b	.LBB3_54
.Ltmp44:
.LBB3_9:
	.loc	2 301 3                         @ rt-thread/components/net/lwip-2.0.2/src/api/netdb.c:301:3
	b	.LBB3_11
.Ltmp45:
.LBB3_10:
	.loc	2 0 3 is_stmt 0                 @ rt-thread/components/net/lwip-2.0.2/src/api/netdb.c:0:3
	movs	r0, #0
.Ltmp46:
	.loc	2 302 15 is_stmt 1              @ rt-thread/components/net/lwip-2.0.2/src/api/netdb.c:302:15
	str	r0, [sp, #12]
	b	.LBB3_11
.Ltmp47:
.LBB3_11:
	.loc	2 305 7                         @ rt-thread/components/net/lwip-2.0.2/src/api/netdb.c:305:7
	ldr	r0, [sp, #52]
.Ltmp48:
	.loc	2 305 7 is_stmt 0               @ rt-thread/components/net/lwip-2.0.2/src/api/netdb.c:305:7
	cbz	r0, .LBB3_16
	b	.LBB3_12
.LBB3_12:
.Ltmp49:
	.loc	2 308 20 is_stmt 1              @ rt-thread/components/net/lwip-2.0.2/src/api/netdb.c:308:20
	ldr	r0, [sp, #52]
	.loc	2 308 15 is_stmt 0              @ rt-thread/components/net/lwip-2.0.2/src/api/netdb.c:308:15
	bl	atoi
	.loc	2 308 13                        @ rt-thread/components/net/lwip-2.0.2/src/api/netdb.c:308:13
	str	r0, [sp, #24]
.Ltmp50:
	.loc	2 309 10 is_stmt 1              @ rt-thread/components/net/lwip-2.0.2/src/api/netdb.c:309:10
	ldr	r0, [sp, #24]
	.loc	2 309 24 is_stmt 0              @ rt-thread/components/net/lwip-2.0.2/src/api/netdb.c:309:24
	cmp	r0, #1
	blt	.LBB3_14
	b	.LBB3_13
.LBB3_13:
	.loc	2 309 28                        @ rt-thread/components/net/lwip-2.0.2/src/api/netdb.c:309:28
	ldr	r0, [sp, #24]
.Ltmp51:
	.loc	2 309 9                         @ rt-thread/components/net/lwip-2.0.2/src/api/netdb.c:309:9
	cmp.w	r0, #65536
	blt	.LBB3_15
	b	.LBB3_14
.LBB3_14:
	.loc	2 0 9                           @ rt-thread/components/net/lwip-2.0.2/src/api/netdb.c:0:9
	movs	r0, #201
.Ltmp52:
	.loc	2 310 7 is_stmt 1               @ rt-thread/components/net/lwip-2.0.2/src/api/netdb.c:310:7
	str	r0, [sp, #60]
	b	.LBB3_54
.Ltmp53:
.LBB3_15:
	.loc	2 312 3                         @ rt-thread/components/net/lwip-2.0.2/src/api/netdb.c:312:3
	b	.LBB3_16
.Ltmp54:
.LBB3_16:
	.loc	2 314 7                         @ rt-thread/components/net/lwip-2.0.2/src/api/netdb.c:314:7
	ldr	r0, [sp, #56]
.Ltmp55:
	.loc	2 314 7 is_stmt 0               @ rt-thread/components/net/lwip-2.0.2/src/api/netdb.c:314:7
	cbz	r0, .LBB3_26
	b	.LBB3_17
.LBB3_17:
.Ltmp56:
	.loc	2 316 10 is_stmt 1              @ rt-thread/components/net/lwip-2.0.2/src/api/netdb.c:316:10
	ldr	r0, [sp, #48]
	.loc	2 316 25 is_stmt 0              @ rt-thread/components/net/lwip-2.0.2/src/api/netdb.c:316:25
	cbz	r0, .LBB3_22
	b	.LBB3_18
.LBB3_18:
	.loc	2 316 29                        @ rt-thread/components/net/lwip-2.0.2/src/api/netdb.c:316:29
	ldr	r0, [sp, #48]
.Ltmp57:
	.loc	2 316 9                         @ rt-thread/components/net/lwip-2.0.2/src/api/netdb.c:316:9
	ldrb	r0, [r0]
	lsls	r0, r0, #29
	cmp	r0, #0
	bpl	.LBB3_22
	b	.LBB3_19
.LBB3_19:
.Ltmp58:
	.loc	2 318 12 is_stmt 1              @ rt-thread/components/net/lwip-2.0.2/src/api/netdb.c:318:12
	ldr	r0, [sp, #56]
	add	r1, sp, #36
	bl	ip4addr_aton
.Ltmp59:
	.loc	2 318 11 is_stmt 0              @ rt-thread/components/net/lwip-2.0.2/src/api/netdb.c:318:11
	cbnz	r0, .LBB3_21
	b	.LBB3_20
.LBB3_20:
	.loc	2 0 11                          @ rt-thread/components/net/lwip-2.0.2/src/api/netdb.c:0:11
	movs	r0, #200
.Ltmp60:
	.loc	2 319 9 is_stmt 1               @ rt-thread/components/net/lwip-2.0.2/src/api/netdb.c:319:9
	str	r0, [sp, #60]
	b	.LBB3_54
.Ltmp61:
.LBB3_21:
	.loc	2 327 5                         @ rt-thread/components/net/lwip-2.0.2/src/api/netdb.c:327:5
	b	.LBB3_25
.Ltmp62:
.LBB3_22:
	.loc	2 337 13                        @ rt-thread/components/net/lwip-2.0.2/src/api/netdb.c:337:13
	ldr	r0, [sp, #56]
	add	r1, sp, #36
	bl	netconn_gethostbyname
	.loc	2 337 11 is_stmt 0              @ rt-thread/components/net/lwip-2.0.2/src/api/netdb.c:337:11
	strb.w	r0, [sp, #43]
.Ltmp63:
	.loc	2 338 11 is_stmt 1              @ rt-thread/components/net/lwip-2.0.2/src/api/netdb.c:338:11
	ldrsb.w	r0, [sp, #43]
.Ltmp64:
	.loc	2 338 11 is_stmt 0              @ rt-thread/components/net/lwip-2.0.2/src/api/netdb.c:338:11
	cbz	r0, .LBB3_24
	b	.LBB3_23
.LBB3_23:
	.loc	2 0 11                          @ rt-thread/components/net/lwip-2.0.2/src/api/netdb.c:0:11
	movs	r0, #202
.Ltmp65:
	.loc	2 339 9 is_stmt 1               @ rt-thread/components/net/lwip-2.0.2/src/api/netdb.c:339:9
	str	r0, [sp, #60]
	b	.LBB3_54
.Ltmp66:
.LBB3_24:
	.loc	2 0 9 is_stmt 0                 @ rt-thread/components/net/lwip-2.0.2/src/api/netdb.c:0:9
	b	.LBB3_25
.LBB3_25:
	.loc	2 342 3 is_stmt 1               @ rt-thread/components/net/lwip-2.0.2/src/api/netdb.c:342:3
	b	.LBB3_31
.Ltmp67:
.LBB3_26:
	.loc	2 344 10                        @ rt-thread/components/net/lwip-2.0.2/src/api/netdb.c:344:10
	ldr	r0, [sp, #48]
	.loc	2 344 25 is_stmt 0              @ rt-thread/components/net/lwip-2.0.2/src/api/netdb.c:344:25
	cbz	r0, .LBB3_29
	b	.LBB3_27
.LBB3_27:
	.loc	2 344 29                        @ rt-thread/components/net/lwip-2.0.2/src/api/netdb.c:344:29
	ldr	r0, [sp, #48]
.Ltmp68:
	.loc	2 344 9                         @ rt-thread/components/net/lwip-2.0.2/src/api/netdb.c:344:9
	ldrb	r0, [r0]
	lsls	r0, r0, #31
	cbz	r0, .LBB3_29
	b	.LBB3_28
.LBB3_28:
	.loc	2 0 9                           @ rt-thread/components/net/lwip-2.0.2/src/api/netdb.c:0:9
	movs	r0, #0
.Ltmp69:
	.loc	2 345 7 is_stmt 1               @ rt-thread/components/net/lwip-2.0.2/src/api/netdb.c:345:7
	str	r0, [sp, #36]
	.loc	2 346 5                         @ rt-thread/components/net/lwip-2.0.2/src/api/netdb.c:346:5
	b	.LBB3_30
.Ltmp70:
.LBB3_29:
	.loc	2 0 5 is_stmt 0                 @ rt-thread/components/net/lwip-2.0.2/src/api/netdb.c:0:5
	movs	r0, #127
	movt	r0, #256
.Ltmp71:
	.loc	2 347 7 is_stmt 1               @ rt-thread/components/net/lwip-2.0.2/src/api/netdb.c:347:7
	str	r0, [sp, #36]
	b	.LBB3_30
.Ltmp72:
.LBB3_30:
	.loc	2 0 7 is_stmt 0                 @ rt-thread/components/net/lwip-2.0.2/src/api/netdb.c:0:7
	b	.LBB3_31
.LBB3_31:
	movs	r0, #48
	.loc	2 351 14 is_stmt 1              @ rt-thread/components/net/lwip-2.0.2/src/api/netdb.c:351:14
	str	r0, [sp, #20]
.Ltmp73:
	.loc	2 352 7                         @ rt-thread/components/net/lwip-2.0.2/src/api/netdb.c:352:7
	ldr	r0, [sp, #56]
.Ltmp74:
	.loc	2 352 7 is_stmt 0               @ rt-thread/components/net/lwip-2.0.2/src/api/netdb.c:352:7
	cbz	r0, .LBB3_41
	b	.LBB3_32
.LBB3_32:
.Ltmp75:
	.loc	2 353 22 is_stmt 1              @ rt-thread/components/net/lwip-2.0.2/src/api/netdb.c:353:22
	ldr	r0, [sp, #56]
	.loc	2 353 15 is_stmt 0              @ rt-thread/components/net/lwip-2.0.2/src/api/netdb.c:353:15
	bl	strlen
	.loc	2 353 13                        @ rt-thread/components/net/lwip-2.0.2/src/api/netdb.c:353:13
	str	r0, [sp, #16]
.Ltmp76:
	.loc	2 354 9 is_stmt 1               @ rt-thread/components/net/lwip-2.0.2/src/api/netdb.c:354:9
	ldr	r0, [sp, #16]
.Ltmp77:
	.loc	2 354 9 is_stmt 0               @ rt-thread/components/net/lwip-2.0.2/src/api/netdb.c:354:9
	cmp.w	r0, #256
	bls	.LBB3_34
	b	.LBB3_33
.LBB3_33:
	.loc	2 0 9                           @ rt-thread/components/net/lwip-2.0.2/src/api/netdb.c:0:9
	movs	r0, #202
.Ltmp78:
	.loc	2 356 7 is_stmt 1               @ rt-thread/components/net/lwip-2.0.2/src/api/netdb.c:356:7
	str	r0, [sp, #60]
	b	.LBB3_54
.Ltmp79:
.LBB3_34:
	.loc	2 358 5                         @ rt-thread/components/net/lwip-2.0.2/src/api/netdb.c:358:5
	b	.LBB3_35
.LBB3_35:
.Ltmp80:
	.loc	2 358 5 is_stmt 0               @ rt-thread/components/net/lwip-2.0.2/src/api/netdb.c:358:5
	ldr	r1, [sp, #20]
	ldr	r0, [sp, #16]
	add	r0, r1
	adds	r0, #1
.Ltmp81:
	.loc	2 358 5                         @ rt-thread/components/net/lwip-2.0.2/src/api/netdb.c:358:5
	cmp	r0, r1
	bhi	.LBB3_39
	b	.LBB3_36
.LBB3_36:
.Ltmp82:
	.loc	2 358 5                         @ rt-thread/components/net/lwip-2.0.2/src/api/netdb.c:358:5
	b	.LBB3_37
.LBB3_37:
.Ltmp83:
	.loc	2 358 5                         @ rt-thread/components/net/lwip-2.0.2/src/api/netdb.c:358:5
	movw	r0, :lower16:.L.str
	movt	r0, :upper16:.L.str
	bl	rt_kprintf
	movw	r0, :lower16:.L.str.1
	movt	r0, :upper16:.L.str.1
	mov.w	r1, #358
	bl	sys_arch_assert
	b	.LBB3_38
.Ltmp84:
.LBB3_38:
	.loc	2 358 5                         @ rt-thread/components/net/lwip-2.0.2/src/api/netdb.c:358:5
	b	.LBB3_39
.Ltmp85:
.LBB3_39:
	.loc	2 358 5                         @ rt-thread/components/net/lwip-2.0.2/src/api/netdb.c:358:5
	b	.LBB3_40
.Ltmp86:
.LBB3_40:
	.loc	2 359 19 is_stmt 1              @ rt-thread/components/net/lwip-2.0.2/src/api/netdb.c:359:19
	ldr	r0, [sp, #16]
	.loc	2 359 16 is_stmt 0              @ rt-thread/components/net/lwip-2.0.2/src/api/netdb.c:359:16
	ldr	r1, [sp, #20]
	.loc	2 359 27                        @ rt-thread/components/net/lwip-2.0.2/src/api/netdb.c:359:27
	add	r0, r1
	.loc	2 359 16                        @ rt-thread/components/net/lwip-2.0.2/src/api/netdb.c:359:16
	adds	r0, #1
	str	r0, [sp, #20]
	.loc	2 360 3 is_stmt 1               @ rt-thread/components/net/lwip-2.0.2/src/api/netdb.c:360:3
	b	.LBB3_41
.Ltmp87:
.LBB3_41:
	.loc	2 362 3                         @ rt-thread/components/net/lwip-2.0.2/src/api/netdb.c:362:3
	b	.LBB3_42
.LBB3_42:
.Ltmp88:
	.loc	2 362 3 is_stmt 0               @ rt-thread/components/net/lwip-2.0.2/src/api/netdb.c:362:3
	ldr	r0, [sp, #20]
.Ltmp89:
	.loc	2 362 3                         @ rt-thread/components/net/lwip-2.0.2/src/api/netdb.c:362:3
	cmp.w	r0, #306
	blo	.LBB3_46
	b	.LBB3_43
.LBB3_43:
.Ltmp90:
	.loc	2 362 3                         @ rt-thread/components/net/lwip-2.0.2/src/api/netdb.c:362:3
	b	.LBB3_44
.LBB3_44:
.Ltmp91:
	.loc	2 362 3                         @ rt-thread/components/net/lwip-2.0.2/src/api/netdb.c:362:3
	movw	r0, :lower16:.L.str.2
	movt	r0, :upper16:.L.str.2
	bl	rt_kprintf
	movw	r0, :lower16:.L.str.1
	movt	r0, :upper16:.L.str.1
	movw	r1, #363
	bl	sys_arch_assert
	b	.LBB3_45
.Ltmp92:
.LBB3_45:
	.loc	2 362 3                         @ rt-thread/components/net/lwip-2.0.2/src/api/netdb.c:362:3
	b	.LBB3_46
.Ltmp93:
.LBB3_46:
	.loc	2 362 3                         @ rt-thread/components/net/lwip-2.0.2/src/api/netdb.c:362:3
	b	.LBB3_47
.Ltmp94:
.LBB3_47:
	.loc	2 364 27 is_stmt 1              @ rt-thread/components/net/lwip-2.0.2/src/api/netdb.c:364:27
	movw	r1, :lower16:.L.str.1
	movt	r1, :upper16:.L.str.1
	movs	r0, #12
	mov.w	r2, #364
	bl	memp_malloc_fn
	.loc	2 364 6 is_stmt 0               @ rt-thread/components/net/lwip-2.0.2/src/api/netdb.c:364:6
	str	r0, [sp, #32]
.Ltmp95:
	.loc	2 365 7 is_stmt 1               @ rt-thread/components/net/lwip-2.0.2/src/api/netdb.c:365:7
	ldr	r0, [sp, #32]
.Ltmp96:
	.loc	2 365 7 is_stmt 0               @ rt-thread/components/net/lwip-2.0.2/src/api/netdb.c:365:7
	cbnz	r0, .LBB3_49
	b	.LBB3_48
.LBB3_48:
	.loc	2 0 7                           @ rt-thread/components/net/lwip-2.0.2/src/api/netdb.c:0:7
	movs	r0, #203
.Ltmp97:
	.loc	2 366 5 is_stmt 1               @ rt-thread/components/net/lwip-2.0.2/src/api/netdb.c:366:5
	str	r0, [sp, #60]
	b	.LBB3_54
.Ltmp98:
.LBB3_49:
	.loc	2 368 10                        @ rt-thread/components/net/lwip-2.0.2/src/api/netdb.c:368:10
	ldr	r0, [sp, #32]
	.loc	2 368 17 is_stmt 0              @ rt-thread/components/net/lwip-2.0.2/src/api/netdb.c:368:17
	ldr	r1, [sp, #20]
	.loc	2 368 3                         @ rt-thread/components/net/lwip-2.0.2/src/api/netdb.c:368:3
	bl	__aeabi_memclr4
	.loc	2 370 50 is_stmt 1              @ rt-thread/components/net/lwip-2.0.2/src/api/netdb.c:370:50
	ldr	r0, [sp, #32]
	.loc	2 370 53 is_stmt 0              @ rt-thread/components/net/lwip-2.0.2/src/api/netdb.c:370:53
	adds	r0, #32
	.loc	2 370 6                         @ rt-thread/components/net/lwip-2.0.2/src/api/netdb.c:370:6
	str	r0, [sp, #28]
.Ltmp99:
	.loc	2 383 52 is_stmt 1              @ rt-thread/components/net/lwip-2.0.2/src/api/netdb.c:383:52
	ldr	r0, [sp, #28]
	.loc	2 383 25 is_stmt 0              @ rt-thread/components/net/lwip-2.0.2/src/api/netdb.c:383:25
	str	r0, [sp, #8]
	.loc	2 385 5 is_stmt 1               @ rt-thread/components/net/lwip-2.0.2/src/api/netdb.c:385:5
	ldr	r0, [sp, #36]
	ldr	r1, [sp, #8]
	str	r0, [r1, #4]
	.loc	2 386 5                         @ rt-thread/components/net/lwip-2.0.2/src/api/netdb.c:386:5
	ldr	r1, [sp, #8]
	movs	r0, #2
	.loc	2 386 21 is_stmt 0              @ rt-thread/components/net/lwip-2.0.2/src/api/netdb.c:386:21
	str	r0, [sp, #4]                    @ 4-byte Spill
	strb	r0, [r1, #1]
	.loc	2 387 5 is_stmt 1               @ rt-thread/components/net/lwip-2.0.2/src/api/netdb.c:387:5
	ldr	r1, [sp, #8]
	movs	r0, #16
	.loc	2 387 18 is_stmt 0              @ rt-thread/components/net/lwip-2.0.2/src/api/netdb.c:387:18
	strb	r0, [r1]
	.loc	2 388 39 is_stmt 1              @ rt-thread/components/net/lwip-2.0.2/src/api/netdb.c:388:39
	ldrh.w	r0, [sp, #24]
	.loc	2 388 21 is_stmt 0              @ rt-thread/components/net/lwip-2.0.2/src/api/netdb.c:388:21
	bl	lwip_htons
	mov	r1, r0
	.loc	2 388 5                         @ rt-thread/components/net/lwip-2.0.2/src/api/netdb.c:388:5
	ldr	r0, [sp, #4]                    @ 4-byte Reload
	ldr	r2, [sp, #8]
	.loc	2 388 19                        @ rt-thread/components/net/lwip-2.0.2/src/api/netdb.c:388:19
	strh	r1, [r2, #2]
	.loc	2 389 5 is_stmt 1               @ rt-thread/components/net/lwip-2.0.2/src/api/netdb.c:389:5
	ldr	r1, [sp, #32]
	.loc	2 389 19 is_stmt 0              @ rt-thread/components/net/lwip-2.0.2/src/api/netdb.c:389:19
	str	r0, [r1, #4]
.Ltmp100:
	.loc	2 394 7 is_stmt 1               @ rt-thread/components/net/lwip-2.0.2/src/api/netdb.c:394:7
	ldr	r0, [sp, #48]
.Ltmp101:
	.loc	2 394 7 is_stmt 0               @ rt-thread/components/net/lwip-2.0.2/src/api/netdb.c:394:7
	cbz	r0, .LBB3_51
	b	.LBB3_50
.LBB3_50:
.Ltmp102:
	.loc	2 396 23 is_stmt 1              @ rt-thread/components/net/lwip-2.0.2/src/api/netdb.c:396:23
	ldr	r0, [sp, #48]
	.loc	2 396 30 is_stmt 0              @ rt-thread/components/net/lwip-2.0.2/src/api/netdb.c:396:30
	ldr	r0, [r0, #8]
	.loc	2 396 5                         @ rt-thread/components/net/lwip-2.0.2/src/api/netdb.c:396:5
	ldr	r1, [sp, #32]
	.loc	2 396 21                        @ rt-thread/components/net/lwip-2.0.2/src/api/netdb.c:396:21
	str	r0, [r1, #8]
	.loc	2 397 23 is_stmt 1              @ rt-thread/components/net/lwip-2.0.2/src/api/netdb.c:397:23
	ldr	r0, [sp, #48]
	.loc	2 397 30 is_stmt 0              @ rt-thread/components/net/lwip-2.0.2/src/api/netdb.c:397:30
	ldr	r0, [r0, #12]
	.loc	2 397 5                         @ rt-thread/components/net/lwip-2.0.2/src/api/netdb.c:397:5
	ldr	r1, [sp, #32]
	.loc	2 397 21                        @ rt-thread/components/net/lwip-2.0.2/src/api/netdb.c:397:21
	str	r0, [r1, #12]
	.loc	2 398 3 is_stmt 1               @ rt-thread/components/net/lwip-2.0.2/src/api/netdb.c:398:3
	b	.LBB3_51
.Ltmp103:
.LBB3_51:
	.loc	2 399 7                         @ rt-thread/components/net/lwip-2.0.2/src/api/netdb.c:399:7
	ldr	r0, [sp, #56]
.Ltmp104:
	.loc	2 399 7 is_stmt 0               @ rt-thread/components/net/lwip-2.0.2/src/api/netdb.c:399:7
	cbz	r0, .LBB3_53
	b	.LBB3_52
.LBB3_52:
.Ltmp105:
	.loc	2 401 32 is_stmt 1              @ rt-thread/components/net/lwip-2.0.2/src/api/netdb.c:401:32
	ldr	r1, [sp, #32]
	.loc	2 401 61 is_stmt 0              @ rt-thread/components/net/lwip-2.0.2/src/api/netdb.c:401:61
	add.w	r0, r1, #48
	.loc	2 401 22                        @ rt-thread/components/net/lwip-2.0.2/src/api/netdb.c:401:22
	str	r0, [r1, #24]
	.loc	2 402 5 is_stmt 1               @ rt-thread/components/net/lwip-2.0.2/src/api/netdb.c:402:5
	ldr	r0, [sp, #32]
	ldr	r0, [r0, #24]
	ldr	r1, [sp, #56]
	ldr	r2, [sp, #16]
	bl	__aeabi_memcpy
	.loc	2 403 5                         @ rt-thread/components/net/lwip-2.0.2/src/api/netdb.c:403:5
	ldr	r0, [sp, #32]
	.loc	2 403 9 is_stmt 0               @ rt-thread/components/net/lwip-2.0.2/src/api/netdb.c:403:9
	ldr	r1, [r0, #24]
	.loc	2 403 22                        @ rt-thread/components/net/lwip-2.0.2/src/api/netdb.c:403:22
	ldr	r2, [sp, #16]
	movs	r0, #0
	.loc	2 403 31                        @ rt-thread/components/net/lwip-2.0.2/src/api/netdb.c:403:31
	strb	r0, [r1, r2]
	.loc	2 404 3 is_stmt 1               @ rt-thread/components/net/lwip-2.0.2/src/api/netdb.c:404:3
	b	.LBB3_53
.Ltmp106:
.LBB3_53:
	.loc	2 405 3                         @ rt-thread/components/net/lwip-2.0.2/src/api/netdb.c:405:3
	ldr	r1, [sp, #32]
	movs	r0, #16
	.loc	2 405 18 is_stmt 0              @ rt-thread/components/net/lwip-2.0.2/src/api/netdb.c:405:18
	str	r0, [r1, #16]
	.loc	2 406 35 is_stmt 1              @ rt-thread/components/net/lwip-2.0.2/src/api/netdb.c:406:35
	ldr	r0, [sp, #28]
	.loc	2 406 3 is_stmt 0               @ rt-thread/components/net/lwip-2.0.2/src/api/netdb.c:406:3
	ldr	r1, [sp, #32]
	.loc	2 406 15                        @ rt-thread/components/net/lwip-2.0.2/src/api/netdb.c:406:15
	str	r0, [r1, #20]
	.loc	2 408 10 is_stmt 1              @ rt-thread/components/net/lwip-2.0.2/src/api/netdb.c:408:10
	ldr	r0, [sp, #32]
	.loc	2 408 4 is_stmt 0               @ rt-thread/components/net/lwip-2.0.2/src/api/netdb.c:408:4
	ldr	r1, [sp, #44]
	.loc	2 408 8                         @ rt-thread/components/net/lwip-2.0.2/src/api/netdb.c:408:8
	str	r0, [r1]
	movs	r0, #0
	.loc	2 410 3 is_stmt 1               @ rt-thread/components/net/lwip-2.0.2/src/api/netdb.c:410:3
	str	r0, [sp, #60]
	b	.LBB3_54
.LBB3_54:
	.loc	2 411 1                         @ rt-thread/components/net/lwip-2.0.2/src/api/netdb.c:411:1
	ldr	r0, [sp, #60]
	add	sp, #64
	pop	{r7, pc}
.Ltmp107:
.Lfunc_end3:
	.size	lwip_getaddrinfo, .Lfunc_end3-lwip_getaddrinfo
	.cfi_endproc
	.cantunwind
	.fnend
                                        @ -- End function
	.type	lwip_gethostbyname.s_hostent,%object @ @lwip_gethostbyname.s_hostent
	.section	.bss.lwip_gethostbyname.s_hostent,"aw",%nobits
	.p2align	2
lwip_gethostbyname.s_hostent:
	.zero	20
	.size	lwip_gethostbyname.s_hostent, 20

	.type	lwip_gethostbyname.s_aliases,%object @ @lwip_gethostbyname.s_aliases
	.section	.bss.lwip_gethostbyname.s_aliases,"aw",%nobits
	.p2align	2
lwip_gethostbyname.s_aliases:
	.long	0
	.size	lwip_gethostbyname.s_aliases, 4

	.type	lwip_gethostbyname.s_hostent_addr,%object @ @lwip_gethostbyname.s_hostent_addr
	.section	.bss.lwip_gethostbyname.s_hostent_addr,"aw",%nobits
	.p2align	2
lwip_gethostbyname.s_hostent_addr:
	.zero	4
	.size	lwip_gethostbyname.s_hostent_addr, 4

	.type	lwip_gethostbyname.s_phostent_addr,%object @ @lwip_gethostbyname.s_phostent_addr
	.section	.bss.lwip_gethostbyname.s_phostent_addr,"aw",%nobits
	.p2align	2
lwip_gethostbyname.s_phostent_addr:
	.zero	8
	.size	lwip_gethostbyname.s_phostent_addr, 8

	.type	lwip_gethostbyname.s_hostname,%object @ @lwip_gethostbyname.s_hostname
	.section	.bss.lwip_gethostbyname.s_hostname,"aw",%nobits
lwip_gethostbyname.s_hostname:
	.zero	257
	.size	lwip_gethostbyname.s_hostname, 257

	.hidden	h_errno                         @ @h_errno
	.type	h_errno,%object
	.section	.bss.h_errno,"aw",%nobits
	.globl	h_errno
	.p2align	2
h_errno:
	.long	0                               @ 0x0
	.size	h_errno, 4

	.type	.L.str,%object                  @ @.str
	.section	.rodata.str1.1,"aMS",%progbits,1
.L.str:
	.asciz	"namelen is too long"
	.size	.L.str, 20

	.type	.L.str.1,%object                @ @.str.1
.L.str.1:
	.asciz	"rt-thread/components/net/lwip-2.0.2/src/api/netdb.c"
	.size	.L.str.1, 52

	.type	.L.str.2,%object                @ @.str.2
.L.str.2:
	.asciz	"total_size <= NETDB_ELEM_SIZE: please report this!"
	.size	.L.str.2, 51

	.file	11 "D:\\Keil_v5\\ARM\\ARMCLANG\\Bin\\..\\include" "stdlib.h"
	.section	".note.GNU-stack","",%progbits
	.eabi_attribute	30, 6	@ Tag_ABI_optimization_goals
	.ARM_attribute	16, 1	@ Tag_AV_eba