	.text
	.syntax unified
	.eabi_attribute	67, "2.09"	@ Tag_conformance
	.cpu	cortex-m7
	.eabi_attribute	6, 13	@ Tag_CPU_arch
	.eabi_attribute	7, 77	@ Tag_CPU_arch_profile
	.eabi_attribute	8, 0	@ Tag_ARM_ISA_use
	.eabi_attribute	9, 2	@ Tag_THUMB_ISA_use
	.fpu	fpv5-d16
	.eabi_attribute	36, 1	@ Tag_FP_HP_extension
	.eabi_attribute	34, 1	@ Tag_CPU_unaligned_access
	.eabi_attribute	17, 1	@ Tag_ABI_PCS_GOT_use
	.eabi_attribute	20, 2	@ Tag_ABI_FP_denormal
	.eabi_attribute	21, 0	@ Tag_ABI_FP_exceptions
	.eabi_attribute	23, 1	@ Tag_ABI_FP_number_model
	.eabi_attribute	24, 1	@ Tag_ABI_align_needed
	.eabi_attribute	25, 1	@ Tag_ABI_align_preserved
	.eabi_attribute	28, 1	@ Tag_ABI_VFP_args
	.eabi_attribute	38, 1	@ Tag_ABI_FP_16bit_format
	.eabi_attribute	18, 2	@ Tag_ABI_PCS_wchar_t
	.eabi_attribute	26, 1	@ Tag_ABI_enum_size
	.eabi_attribute	14, 0	@ Tag_ABI_PCS_R9_use
	.file	"netdev_ipaddr.c"
	.file	1 "E:\\Smart-access-control\\Hardware\\CODE" "rt-thread/components/net/netdev/src/netdev_ipaddr.c"
	.file	2 "D:\\Keil_v5\\ARM\\ARMCLANG\\Bin\\..\\include" "stdint.h"
	.file	3 "E:\\Smart-access-control\\Hardware\\CODE" "./rt-thread/components/net/netdev/include\\netdev_ipaddr.h"
	.section	.text.netdev_ip4addr_aton,"ax",%progbits
	.hidden	netdev_ip4addr_aton             @ -- Begin function netdev_ip4addr_aton
	.globl	netdev_ip4addr_aton
	.p2align	3
	.type	netdev_ip4addr_aton,%function
	.code	16                              @ @netdev_ip4addr_aton
	.thumb_func
netdev_ip4addr_aton:
.Lfunc_begin0:
	.loc	1 39 0                          @ rt-thread/components/net/netdev/src/netdev_ipaddr.c:39:0
	.fnstart
	.cfi_sections .debug_frame
	.cfi_startproc
@ %bb.0:
	@DEBUG_VALUE: netdev_ip4addr_aton:cp <- $r0
	@DEBUG_VALUE: netdev_ip4addr_aton:cp <- $r0
	@DEBUG_VALUE: netdev_ip4addr_aton:addr <- $r1
	.save	{r4, r5, r6, r7, r8, lr}
	push.w	{r4, r5, r6, r7, r8, lr}
	.cfi_def_cfa_offset 24
	.cfi_offset lr, -4
	.cfi_offset r8, -8
	.cfi_offset r7, -12
	.cfi_offset r6, -16
	.cfi_offset r5, -20
	.cfi_offset r4, -24
	.pad	#16
	sub	sp, #16
	.cfi_def_cfa_offset 40
.Ltmp0:
	@DEBUG_VALUE: netdev_ip4addr_aton:pp <- $sp
	@DEBUG_VALUE: netdev_ip4addr_aton:c <- undef
	.loc	1 0 0 prologue_end              @ rt-thread/components/net/netdev/src/netdev_ipaddr.c:0:0
	ldrb	r6, [r0]
.Ltmp1:
	@DEBUG_VALUE: netdev_ip4addr_aton:c <- $r6
	.loc	1 54 14                         @ rt-thread/components/net/netdev/src/netdev_ipaddr.c:54:14
	sub.w	r2, r6, #48
	uxtb	r2, r2
	cmp	r2, #9
	@DEBUG_VALUE: netdev_ip4addr_aton:addr <- $r1
	bhi.w	.LBB0_18
.Ltmp2:
@ %bb.1:
	@DEBUG_VALUE: netdev_ip4addr_aton:c <- $r6
	@DEBUG_VALUE: netdev_ip4addr_aton:addr <- $r1
	@DEBUG_VALUE: netdev_ip4addr_aton:cp <- $r0
	@DEBUG_VALUE: netdev_ip4addr_aton:pp <- $sp
	.loc	1 0 14 is_stmt 0                @ rt-thread/components/net/netdev/src/netdev_ipaddr.c:0:14
	mov	r12, sp
	mov	r8, r1
.Ltmp3:
	@DEBUG_VALUE: netdev_ip4addr_aton:addr <- $r8
	@DEBUG_VALUE: netdev_ip4addr_aton:addr <- $r8
	add.w	lr, r12, #12
	mov	r3, r12
.Ltmp4:
.LBB0_2:                                @ =>This Loop Header: Depth=1
                                        @     Child Loop BB0_9 Depth 2
	@DEBUG_VALUE: netdev_ip4addr_aton:addr <- $r8
	@DEBUG_VALUE: netdev_ip4addr_aton:c <- $r6
	@DEBUG_VALUE: netdev_ip4addr_aton:cp <- $r0
	@DEBUG_VALUE: netdev_ip4addr_aton:pp <- $r3
	@DEBUG_VALUE: netdev_ip4addr_aton:val <- 0
	@DEBUG_VALUE: netdev_ip4addr_aton:base <- 10
	.loc	1 60 15 is_stmt 1               @ rt-thread/components/net/netdev/src/netdev_ipaddr.c:60:15
	uxtb	r1, r6
.Ltmp5:
	.loc	1 60 13 is_stmt 0               @ rt-thread/components/net/netdev/src/netdev_ipaddr.c:60:13
	cmp	r1, #48
	bne	.LBB0_5
.Ltmp6:
@ %bb.3:                                @   in Loop: Header=BB0_2 Depth=1
	@DEBUG_VALUE: netdev_ip4addr_aton:addr <- $r8
	@DEBUG_VALUE: netdev_ip4addr_aton:c <- $r6
	@DEBUG_VALUE: netdev_ip4addr_aton:pp <- $r3
	@DEBUG_VALUE: netdev_ip4addr_aton:cp <- $r0
	@DEBUG_VALUE: netdev_ip4addr_aton:base <- 10
	@DEBUG_VALUE: netdev_ip4addr_aton:val <- 0
	.loc	1 62 17 is_stmt 1               @ rt-thread/components/net/netdev/src/netdev_ipaddr.c:62:17
	mov	r5, r0
	ldrb	r6, [r5, #1]!
.Ltmp7:
	@DEBUG_VALUE: netdev_ip4addr_aton:c <- undef
	@DEBUG_VALUE: netdev_ip4addr_aton:cp <- $r5
	.loc	1 63 26                         @ rt-thread/components/net/netdev/src/netdev_ipaddr.c:63:26
	orr	r1, r6, #32
	cmp	r1, #120
	bne	.LBB0_6
.Ltmp8:
@ %bb.4:                                @   in Loop: Header=BB0_2 Depth=1
	@DEBUG_VALUE: netdev_ip4addr_aton:addr <- $r8
	@DEBUG_VALUE: netdev_ip4addr_aton:cp <- $r5
	@DEBUG_VALUE: netdev_ip4addr_aton:pp <- $r3
	@DEBUG_VALUE: netdev_ip4addr_aton:base <- 10
	@DEBUG_VALUE: netdev_ip4addr_aton:val <- 0
	@DEBUG_VALUE: netdev_ip4addr_aton:base <- 16
	.loc	1 66 21                         @ rt-thread/components/net/netdev/src/netdev_ipaddr.c:66:21
	ldrb	r6, [r0, #2]!
.Ltmp9:
	@DEBUG_VALUE: netdev_ip4addr_aton:cp <- $r0
	.loc	1 0 21 is_stmt 0                @ rt-thread/components/net/netdev/src/netdev_ipaddr.c:0:21
	movs	r1, #16
	movs	r7, #1
.Ltmp10:
	@DEBUG_VALUE: netdev_ip4addr_aton:c <- undef
	b	.LBB0_7
.Ltmp11:
	.p2align	2
.LBB0_5:                                @   in Loop: Header=BB0_2 Depth=1
	@DEBUG_VALUE: netdev_ip4addr_aton:addr <- $r8
	@DEBUG_VALUE: netdev_ip4addr_aton:c <- $r6
	@DEBUG_VALUE: netdev_ip4addr_aton:pp <- $r3
	@DEBUG_VALUE: netdev_ip4addr_aton:cp <- $r0
	@DEBUG_VALUE: netdev_ip4addr_aton:base <- 10
	@DEBUG_VALUE: netdev_ip4addr_aton:val <- 0
	movs	r1, #10
	movs	r7, #0
	b	.LBB0_7
.Ltmp12:
.LBB0_6:                                @   in Loop: Header=BB0_2 Depth=1
	@DEBUG_VALUE: netdev_ip4addr_aton:addr <- $r8
	@DEBUG_VALUE: netdev_ip4addr_aton:cp <- $r5
	@DEBUG_VALUE: netdev_ip4addr_aton:pp <- $r3
	@DEBUG_VALUE: netdev_ip4addr_aton:base <- 10
	@DEBUG_VALUE: netdev_ip4addr_aton:val <- 0
	movs	r1, #8
	movs	r7, #0
	mov	r0, r5
.Ltmp13:
	.p2align	2
.LBB0_7:                                @   in Loop: Header=BB0_2 Depth=1
	@DEBUG_VALUE: netdev_ip4addr_aton:addr <- $r8
	@DEBUG_VALUE: netdev_ip4addr_aton:pp <- $r3
	@DEBUG_VALUE: netdev_ip4addr_aton:val <- 0
	@DEBUG_VALUE: netdev_ip4addr_aton:cp <- $r0
	@DEBUG_VALUE: netdev_ip4addr_aton:c <- $r6
	@DEBUG_VALUE: netdev_ip4addr_aton:base <- undef
	.loc	1 73 9 is_stmt 1                @ rt-thread/components/net/netdev/src/netdev_ipaddr.c:73:9
	adds	r0, #1
.Ltmp14:
	.loc	1 0 9 is_stmt 0                 @ rt-thread/components/net/netdev/src/netdev_ipaddr.c:0:9
	movs	r5, #0
	b	.LBB0_9
.Ltmp15:
	.p2align	2
.LBB0_8:                                @   in Loop: Header=BB0_9 Depth=2
	@DEBUG_VALUE: netdev_ip4addr_aton:addr <- $r8
	@DEBUG_VALUE: netdev_ip4addr_aton:c <- $r6
	@DEBUG_VALUE: netdev_ip4addr_aton:val <- $r5
	@DEBUG_VALUE: netdev_ip4addr_aton:pp <- $r3
	@DEBUG_VALUE: netdev_ip4addr_aton:cp <- [DW_OP_constu 1, DW_OP_minus, DW_OP_stack_value] $r0
	.loc	1 77 50 is_stmt 1               @ rt-thread/components/net/netdev/src/netdev_ipaddr.c:77:50
	sxtb	r2, r6
	.loc	1 77 52 is_stmt 0               @ rt-thread/components/net/netdev/src/netdev_ipaddr.c:77:52
	mla	r2, r5, r1, r2
.Ltmp16:
	.loc	1 0 0                           @ rt-thread/components/net/netdev/src/netdev_ipaddr.c:0:0
	ldrb	r6, [r0], #1
.Ltmp17:
	@DEBUG_VALUE: netdev_ip4addr_aton:val <- undef
	@DEBUG_VALUE: netdev_ip4addr_aton:c <- undef
	@DEBUG_VALUE: netdev_ip4addr_aton:cp <- $r0
	.loc	1 77 36                         @ rt-thread/components/net/netdev/src/netdev_ipaddr.c:77:36
	sub.w	r5, r2, #48
.Ltmp18:
	@DEBUG_VALUE: netdev_ip4addr_aton:val <- $r5
	@DEBUG_VALUE: netdev_ip4addr_aton:c <- undef
	@DEBUG_VALUE: netdev_ip4addr_aton:cp <- [DW_OP_constu 1, DW_OP_minus, DW_OP_plus_uconst 1, DW_OP_stack_value] $r0
.LBB0_9:                                @   Parent Loop BB0_2 Depth=1
                                        @ =>  This Inner Loop Header: Depth=2
	@DEBUG_VALUE: netdev_ip4addr_aton:addr <- $r8
	@DEBUG_VALUE: netdev_ip4addr_aton:pp <- $r3
	@DEBUG_VALUE: netdev_ip4addr_aton:cp <- [DW_OP_constu 1, DW_OP_minus, DW_OP_stack_value] $r0
	@DEBUG_VALUE: netdev_ip4addr_aton:c <- $r6
	@DEBUG_VALUE: netdev_ip4addr_aton:val <- $r5
	.loc	1 75 17 is_stmt 1               @ rt-thread/components/net/netdev/src/netdev_ipaddr.c:75:17
	sub.w	r2, r6, #48
	uxtb	r2, r2
	cmp	r2, #9
	bls	.LBB0_8
.Ltmp19:
@ %bb.10:                               @   in Loop: Header=BB0_9 Depth=2
	@DEBUG_VALUE: netdev_ip4addr_aton:addr <- $r8
	@DEBUG_VALUE: netdev_ip4addr_aton:c <- $r6
	@DEBUG_VALUE: netdev_ip4addr_aton:val <- $r5
	@DEBUG_VALUE: netdev_ip4addr_aton:pp <- $r3
	@DEBUG_VALUE: netdev_ip4addr_aton:cp <- [DW_OP_constu 1, DW_OP_minus, DW_OP_stack_value] $r0
	.loc	1 80 33                         @ rt-thread/components/net/netdev/src/netdev_ipaddr.c:80:33
	cmp	r7, #0
	beq.w	.LBB0_15
.Ltmp20:
@ %bb.11:                               @   in Loop: Header=BB0_9 Depth=2
	@DEBUG_VALUE: netdev_ip4addr_aton:addr <- $r8
	@DEBUG_VALUE: netdev_ip4addr_aton:c <- $r6
	@DEBUG_VALUE: netdev_ip4addr_aton:val <- $r5
	@DEBUG_VALUE: netdev_ip4addr_aton:pp <- $r3
	@DEBUG_VALUE: netdev_ip4addr_aton:cp <- [DW_OP_constu 1, DW_OP_minus, DW_OP_stack_value] $r0
	.loc	1 80 36 is_stmt 0               @ rt-thread/components/net/netdev/src/netdev_ipaddr.c:80:36
	uxtb	r2, r6
	cmp	r2, #102
	bhi.w	.LBB0_40
.Ltmp21:
@ %bb.12:                               @   in Loop: Header=BB0_9 Depth=2
	@DEBUG_VALUE: netdev_ip4addr_aton:addr <- $r8
	@DEBUG_VALUE: netdev_ip4addr_aton:c <- $r6
	@DEBUG_VALUE: netdev_ip4addr_aton:val <- $r5
	@DEBUG_VALUE: netdev_ip4addr_aton:pp <- $r3
	@DEBUG_VALUE: netdev_ip4addr_aton:cp <- [DW_OP_constu 1, DW_OP_minus, DW_OP_stack_value] $r0
	.loc	1 0 36                          @ rt-thread/components/net/netdev/src/netdev_ipaddr.c:0:36
.LCPI0_2:
	tbh	[pc, r2, lsl #1]
.Ltmp22:
@ %bb.13:
.LJTI0_0:
	.short	(.LBB0_22-(.LCPI0_2+4))/2
	.short	(.LBB0_40-(.LCPI0_2+4))/2
	.short	(.LBB0_40-(.LCPI0_2+4))/2
	.short	(.LBB0_40-(.LCPI0_2+4))/2
	.short	(.LBB0_40-(.LCPI0_2+4))/2
	.short	(.LBB0_40-(.LCPI0_2+4))/2
	.short	(.LBB0_40-(.LCPI0_2+4))/2
	.short	(.LBB0_40-(.LCPI0_2+4))/2
	.short	(.LBB0_40-(.LCPI0_2+4))/2
	.short	(.LBB0_22-(.LCPI0_2+4))/2
	.short	(.LBB0_22-(.LCPI0_2+4))/2
	.short	(.LBB0_22-(.LCPI0_2+4))/2
	.short	(.LBB0_22-(.LCPI0_2+4))/2
	.short	(.LBB0_22-(.LCPI0_2+4))/2
	.short	(.LBB0_40-(.LCPI0_2+4))/2
	.short	(.LBB0_40-(.LCPI0_2+4))/2
	.short	(.LBB0_40-(.LCPI0_2+4))/2
	.short	(.LBB0_40-(.LCPI0_2+4))/2
	.short	(.LBB0_40-(.LCPI0_2+4))/2
	.short	(.LBB0_40-(.LCPI0_2+4))/2
	.short	(.LBB0_40-(.LCPI0_2+4))/2
	.short	(.LBB0_40-(.LCPI0_2+4))/2
	.short	(.LBB0_40-(.LCPI0_2+4))/2
	.short	(.LBB0_40-(.LCPI0_2+4))/2
	.short	(.LBB0_40-(.LCPI0_2+4))/2
	.short	(.LBB0_40-(.LCPI0_2+4))/2
	.short	(.LBB0_40-(.LCPI0_2+4))/2
	.short	(.LBB0_40-(.LCPI0_2+4))/2
	.short	(.LBB0_40-(.LCPI0_2+4))/2
	.short	(.LBB0_40-(.LCPI0_2+4))/2
	.short	(.LBB0_40-(.LCPI0_2+4))/2
	.short	(.LBB0_40-(.LCPI0_2+4))/2
	.short	(.LBB0_22-(.LCPI0_2+4))/2
	.short	(.LBB0_40-(.LCPI0_2+4))/2
	.short	(.LBB0_40-(.LCPI0_2+4))/2
	.short	(.LBB0_40-(.LCPI0_2+4))/2
	.short	(.LBB0_40-(.LCPI0_2+4))/2
	.short	(.LBB0_40-(.LCPI0_2+4))/2
	.short	(.LBB0_40-(.LCPI0_2+4))/2
	.short	(.LBB0_40-(.LCPI0_2+4))/2
	.short	(.LBB0_40-(.LCPI0_2+4))/2
	.short	(.LBB0_40-(.LCPI0_2+4))/2
	.short	(.LBB0_40-(.LCPI0_2+4))/2
	.short	(.LBB0_40-(.LCPI0_2+4))/2
	.short	(.LBB0_40-(.LCPI0_2+4))/2
	.short	(.LBB0_40-(.LCPI0_2+4))/2
	.short	(.LBB0_16-(.LCPI0_2+4))/2
	.short	(.LBB0_40-(.LCPI0_2+4))/2
	.short	(.LBB0_40-(.LCPI0_2+4))/2
	.short	(.LBB0_40-(.LCPI0_2+4))/2
	.short	(.LBB0_40-(.LCPI0_2+4))/2
	.short	(.LBB0_40-(.LCPI0_2+4))/2
	.short	(.LBB0_40-(.LCPI0_2+4))/2
	.short	(.LBB0_40-(.LCPI0_2+4))/2
	.short	(.LBB0_40-(.LCPI0_2+4))/2
	.short	(.LBB0_40-(.LCPI0_2+4))/2
	.short	(.LBB0_40-(.LCPI0_2+4))/2
	.short	(.LBB0_40-(.LCPI0_2+4))/2
	.short	(.LBB0_40-(.LCPI0_2+4))/2
	.short	(.LBB0_40-(.LCPI0_2+4))/2
	.short	(.LBB0_40-(.LCPI0_2+4))/2
	.short	(.LBB0_40-(.LCPI0_2+4))/2
	.short	(.LBB0_40-(.LCPI0_2+4))/2
	.short	(.LBB0_40-(.LCPI0_2+4))/2
	.short	(.LBB0_40-(.LCPI0_2+4))/2
	.short	(.LBB0_14-(.LCPI0_2+4))/2
	.short	(.LBB0_14-(.LCPI0_2+4))/2
	.short	(.LBB0_14-(.LCPI0_2+4))/2
	.short	(.LBB0_14-(.LCPI0_2+4))/2
	.short	(.LBB0_14-(.LCPI0_2+4))/2
	.short	(.LBB0_14-(.LCPI0_2+4))/2
	.short	(.LBB0_40-(.LCPI0_2+4))/2
	.short	(.LBB0_40-(.LCPI0_2+4))/2
	.short	(.LBB0_40-(.LCPI0_2+4))/2
	.short	(.LBB0_40-(.LCPI0_2+4))/2
	.short	(.LBB0_40-(.LCPI0_2+4))/2
	.short	(.LBB0_40-(.LCPI0_2+4))/2
	.short	(.LBB0_40-(.LCPI0_2+4))/2
	.short	(.LBB0_40-(.LCPI0_2+4))/2
	.short	(.LBB0_40-(.LCPI0_2+4))/2
	.short	(.LBB0_40-(.LCPI0_2+4))/2
	.short	(.LBB0_40-(.LCPI0_2+4))/2
	.short	(.LBB0_40-(.LCPI0_2+4))/2
	.short	(.LBB0_40-(.LCPI0_2+4))/2
	.short	(.LBB0_40-(.LCPI0_2+4))/2
	.short	(.LBB0_40-(.LCPI0_2+4))/2
	.short	(.LBB0_40-(.LCPI0_2+4))/2
	.short	(.LBB0_40-(.LCPI0_2+4))/2
	.short	(.LBB0_40-(.LCPI0_2+4))/2
	.short	(.LBB0_40-(.LCPI0_2+4))/2
	.short	(.LBB0_40-(.LCPI0_2+4))/2
	.short	(.LBB0_40-(.LCPI0_2+4))/2
	.short	(.LBB0_40-(.LCPI0_2+4))/2
	.short	(.LBB0_40-(.LCPI0_2+4))/2
	.short	(.LBB0_40-(.LCPI0_2+4))/2
	.short	(.LBB0_40-(.LCPI0_2+4))/2
	.short	(.LBB0_40-(.LCPI0_2+4))/2
	.short	(.LBB0_14-(.LCPI0_2+4))/2
	.short	(.LBB0_14-(.LCPI0_2+4))/2
	.short	(.LBB0_14-(.LCPI0_2+4))/2
	.short	(.LBB0_14-(.LCPI0_2+4))/2
	.short	(.LBB0_14-(.LCPI0_2+4))/2
	.short	(.LBB0_14-(.LCPI0_2+4))/2
	.p2align	1
.LBB0_14:                               @   in Loop: Header=BB0_9 Depth=2
.Ltmp23:
	@DEBUG_VALUE: netdev_ip4addr_aton:addr <- $r8
	@DEBUG_VALUE: netdev_ip4addr_aton:c <- $r6
	@DEBUG_VALUE: netdev_ip4addr_aton:val <- $r5
	@DEBUG_VALUE: netdev_ip4addr_aton:pp <- $r3
	@DEBUG_VALUE: netdev_ip4addr_aton:cp <- [DW_OP_constu 1, DW_OP_minus, DW_OP_stack_value] $r0
	.loc	1 82 58 is_stmt 1               @ rt-thread/components/net/netdev/src/netdev_ipaddr.c:82:58
	sub.w	r2, r6, #97
	uxtb	r2, r2
	cmp	r2, #26
	mvn	r2, #64
	it	lo
	mvnlo	r2, #96
	.loc	1 82 50 is_stmt 0               @ rt-thread/components/net/netdev/src/netdev_ipaddr.c:82:50
	sxtab	r2, r2, r6
.Ltmp24:
	.loc	1 0 0                           @ rt-thread/components/net/netdev/src/netdev_ipaddr.c:0:0
	ldrb	r6, [r0], #1
.Ltmp25:
	@DEBUG_VALUE: netdev_ip4addr_aton:val <- $r5
	@DEBUG_VALUE: netdev_ip4addr_aton:c <- undef
	@DEBUG_VALUE: netdev_ip4addr_aton:cp <- $r0
	.loc	1 82 55                         @ rt-thread/components/net/netdev/src/netdev_ipaddr.c:82:55
	adds	r2, #10
	.loc	1 82 34                         @ rt-thread/components/net/netdev/src/netdev_ipaddr.c:82:34
	orr.w	r5, r2, r5, lsl #4
.Ltmp26:
	@DEBUG_VALUE: netdev_ip4addr_aton:val <- $r5
	@DEBUG_VALUE: netdev_ip4addr_aton:c <- undef
	@DEBUG_VALUE: netdev_ip4addr_aton:cp <- [DW_OP_constu 1, DW_OP_minus, DW_OP_plus_uconst 1, DW_OP_stack_value] $r0
	.loc	1 0 34                          @ rt-thread/components/net/netdev/src/netdev_ipaddr.c:0:34
	b	.LBB0_9
.Ltmp27:
	.p2align	2
.LBB0_15:                               @   in Loop: Header=BB0_2 Depth=1
	@DEBUG_VALUE: netdev_ip4addr_aton:addr <- $r8
	@DEBUG_VALUE: netdev_ip4addr_aton:c <- $r6
	@DEBUG_VALUE: netdev_ip4addr_aton:val <- $r5
	@DEBUG_VALUE: netdev_ip4addr_aton:pp <- $r3
	@DEBUG_VALUE: netdev_ip4addr_aton:cp <- [DW_OP_constu 1, DW_OP_minus, DW_OP_stack_value] $r0
	.loc	1 90 13 is_stmt 1               @ rt-thread/components/net/netdev/src/netdev_ipaddr.c:90:13
	uxtb	r1, r6
	cmp	r1, #46
	bne	.LBB0_20
.Ltmp28:
.LBB0_16:                               @   in Loop: Header=BB0_2 Depth=1
	@DEBUG_VALUE: netdev_ip4addr_aton:addr <- $r8
	@DEBUG_VALUE: netdev_ip4addr_aton:c <- $r6
	@DEBUG_VALUE: netdev_ip4addr_aton:val <- $r5
	@DEBUG_VALUE: netdev_ip4addr_aton:pp <- $r3
	@DEBUG_VALUE: netdev_ip4addr_aton:cp <- [DW_OP_constu 1, DW_OP_minus, DW_OP_stack_value] $r0
	.loc	1 98 17                         @ rt-thread/components/net/netdev/src/netdev_ipaddr.c:98:17
	cmp	r3, lr
	bhs	.LBB0_47
.Ltmp29:
@ %bb.17:                               @   in Loop: Header=BB0_2 Depth=1
	@DEBUG_VALUE: netdev_ip4addr_aton:addr <- $r8
	@DEBUG_VALUE: netdev_ip4addr_aton:c <- $r6
	@DEBUG_VALUE: netdev_ip4addr_aton:val <- $r5
	@DEBUG_VALUE: netdev_ip4addr_aton:pp <- $r3
	@DEBUG_VALUE: netdev_ip4addr_aton:cp <- [DW_OP_constu 1, DW_OP_minus, DW_OP_stack_value] $r0
	.loc	1 102 19                        @ rt-thread/components/net/netdev/src/netdev_ipaddr.c:102:19
	str	r5, [r3], #4
.Ltmp30:
	@DEBUG_VALUE: netdev_ip4addr_aton:c <- undef
	@DEBUG_VALUE: netdev_ip4addr_aton:pp <- $r3
	@DEBUG_VALUE: netdev_ip4addr_aton:cp <- [DW_OP_plus_uconst 1, DW_OP_stack_value] undef
	.loc	1 0 0 is_stmt 0                 @ rt-thread/components/net/netdev/src/netdev_ipaddr.c:0:0
	ldrb	r6, [r0]
.Ltmp31:
	@DEBUG_VALUE: netdev_ip4addr_aton:c <- $r6
	.loc	1 54 14 is_stmt 1               @ rt-thread/components/net/netdev/src/netdev_ipaddr.c:54:14
	sub.w	r1, r6, #48
	uxtb	r1, r1
	cmp	r1, #10
	mov.w	r1, #0
	blo.w	.LBB0_2
	b	.LBB0_19
.Ltmp32:
.LBB0_18:
	@DEBUG_VALUE: netdev_ip4addr_aton:c <- $r6
	@DEBUG_VALUE: netdev_ip4addr_aton:addr <- $r1
	@DEBUG_VALUE: netdev_ip4addr_aton:cp <- $r0
	@DEBUG_VALUE: netdev_ip4addr_aton:pp <- $sp
	.loc	1 0 14 is_stmt 0                @ rt-thread/components/net/netdev/src/netdev_ipaddr.c:0:14
	movs	r1, #0
.Ltmp33:
	@DEBUG_VALUE: netdev_ip4addr_aton:addr <- [DW_OP_LLVM_entry_value 1] $r1
.LBB0_19:
	@DEBUG_VALUE: netdev_ip4addr_aton:c <- $r6
	.loc	1 174 1 is_stmt 1               @ rt-thread/components/net/netdev/src/netdev_ipaddr.c:174:1
	mov	r0, r1
	add	sp, #16
	pop.w	{r4, r5, r6, r7, r8, pc}
.Ltmp34:
.LBB0_20:
	@DEBUG_VALUE: netdev_ip4addr_aton:addr <- $r8
	@DEBUG_VALUE: netdev_ip4addr_aton:c <- $r6
	@DEBUG_VALUE: netdev_ip4addr_aton:val <- $r5
	@DEBUG_VALUE: netdev_ip4addr_aton:pp <- $r3
	@DEBUG_VALUE: netdev_ip4addr_aton:cp <- [DW_OP_constu 1, DW_OP_minus, DW_OP_stack_value] $r0
	.loc	1 0 1 is_stmt 0                 @ rt-thread/components/net/netdev/src/netdev_ipaddr.c:0:1
	sub.w	r0, r1, #9
.Ltmp35:
	cmp	r0, #23
	bhi	.LBB0_42
.Ltmp36:
@ %bb.21:
	@DEBUG_VALUE: netdev_ip4addr_aton:addr <- $r8
	@DEBUG_VALUE: netdev_ip4addr_aton:c <- $r6
	@DEBUG_VALUE: netdev_ip4addr_aton:val <- $r5
	@DEBUG_VALUE: netdev_ip4addr_aton:pp <- $r3
	movs	r2, #1
	lsl.w	r0, r2, r0
	movs	r2, #31
	movt	r2, #128
	tst	r0, r2
	beq	.LBB0_42
.Ltmp37:
.LBB0_22:
	@DEBUG_VALUE: netdev_ip4addr_aton:addr <- $r8
	@DEBUG_VALUE: netdev_ip4addr_aton:c <- $r6
	@DEBUG_VALUE: netdev_ip4addr_aton:val <- $r5
	@DEBUG_VALUE: netdev_ip4addr_aton:pp <- $r3
	.loc	1 121 16 is_stmt 1              @ rt-thread/components/net/netdev/src/netdev_ipaddr.c:121:16
	sub.w	r0, r3, r12
	movs	r1, #1
	.loc	1 121 5 is_stmt 0               @ rt-thread/components/net/netdev/src/netdev_ipaddr.c:121:5
	add.w	r0, r1, r0, asr #2
	cmp	r0, #4
	bhi	.LBB0_29
.Ltmp38:
@ %bb.23:
	@DEBUG_VALUE: netdev_ip4addr_aton:addr <- $r8
	@DEBUG_VALUE: netdev_ip4addr_aton:c <- $r6
	@DEBUG_VALUE: netdev_ip4addr_aton:val <- $r5
	@DEBUG_VALUE: netdev_ip4addr_aton:pp <- $r3
	.loc	1 0 5                           @ rt-thread/components/net/netdev/src/netdev_ipaddr.c:0:5
	movs	r1, #0
.LCPI0_3:
	tbb	[pc, r0]
.Ltmp39:
@ %bb.24:
.LJTI0_1:
	.byte	(.LBB0_25-(.LCPI0_3+4))/2
	.byte	(.LBB0_30-(.LCPI0_3+4))/2
	.byte	(.LBB0_26-(.LCPI0_3+4))/2
	.byte	(.LBB0_33-(.LCPI0_3+4))/2
	.byte	(.LBB0_37-(.LCPI0_3+4))/2
	.p2align	1
.LBB0_25:
	b	.LBB0_19
.LBB0_26:
.Ltmp40:
	@DEBUG_VALUE: netdev_ip4addr_aton:addr <- $r8
	@DEBUG_VALUE: netdev_ip4addr_aton:c <- $r6
	@DEBUG_VALUE: netdev_ip4addr_aton:val <- $r5
	@DEBUG_VALUE: netdev_ip4addr_aton:pp <- $r3
	movs	r1, #0
.Ltmp41:
	.loc	1 131 13 is_stmt 1              @ rt-thread/components/net/netdev/src/netdev_ipaddr.c:131:13
	cmp.w	r1, r5, lsr #24
	bne	.LBB0_19
.Ltmp42:
@ %bb.27:
	@DEBUG_VALUE: netdev_ip4addr_aton:addr <- $r8
	@DEBUG_VALUE: netdev_ip4addr_aton:c <- $r6
	@DEBUG_VALUE: netdev_ip4addr_aton:val <- $r5
	@DEBUG_VALUE: netdev_ip4addr_aton:pp <- $r3
	.loc	1 0 13 is_stmt 0                @ rt-thread/components/net/netdev/src/netdev_ipaddr.c:0:13
	ldr	r0, [sp]
	.loc	1 131 13                        @ rt-thread/components/net/netdev/src/netdev_ipaddr.c:131:13
	cmp	r0, #255
	bhi	.LBB0_19
.Ltmp43:
@ %bb.28:
	@DEBUG_VALUE: netdev_ip4addr_aton:addr <- $r8
	@DEBUG_VALUE: netdev_ip4addr_aton:c <- $r6
	@DEBUG_VALUE: netdev_ip4addr_aton:val <- $r5
	@DEBUG_VALUE: netdev_ip4addr_aton:pp <- $r3
	.loc	1 139 13 is_stmt 1              @ rt-thread/components/net/netdev/src/netdev_ipaddr.c:139:13
	orr.w	r5, r5, r0, lsl #24
.Ltmp44:
	@DEBUG_VALUE: netdev_ip4addr_aton:val <- $r5
	.loc	1 0 13 is_stmt 0                @ rt-thread/components/net/netdev/src/netdev_ipaddr.c:0:13
	b	.LBB0_30
.Ltmp45:
.LBB0_29:
	@DEBUG_VALUE: netdev_ip4addr_aton:addr <- $r8
	@DEBUG_VALUE: netdev_ip4addr_aton:c <- $r6
	@DEBUG_VALUE: netdev_ip4addr_aton:val <- $r5
	@DEBUG_VALUE: netdev_ip4addr_aton:pp <- $r3
	.loc	1 166 9 is_stmt 1               @ rt-thread/components/net/netdev/src/netdev_ipaddr.c:166:9
	adr	r0, .LCPI0_0
	adr	r1, .LCPI0_1
	movs	r2, #166
	bl	rt_assert_handler
.Ltmp46:
.LBB0_30:
	@DEBUG_VALUE: netdev_ip4addr_aton:addr <- $r8
	@DEBUG_VALUE: netdev_ip4addr_aton:c <- $r6
	@DEBUG_VALUE: netdev_ip4addr_aton:val <- $r5
	@DEBUG_VALUE: netdev_ip4addr_aton:val <- $r5
	.loc	1 169 9                         @ rt-thread/components/net/netdev/src/netdev_ipaddr.c:169:9
	cmp.w	r8, #0
	beq	.LBB0_32
.Ltmp47:
@ %bb.31:
	@DEBUG_VALUE: netdev_ip4addr_aton:addr <- $r8
	@DEBUG_VALUE: netdev_ip4addr_aton:c <- $r6
	@DEBUG_VALUE: netdev_ip4addr_aton:val <- $r5
	.loc	1 171 9                         @ rt-thread/components/net/netdev/src/netdev_ipaddr.c:171:9
	rev	r0, r5
	str.w	r0, [r8]
	movs	r1, #1
	.loc	1 172 5                         @ rt-thread/components/net/netdev/src/netdev_ipaddr.c:172:5
	b	.LBB0_19
.Ltmp48:
.LBB0_32:
	@DEBUG_VALUE: netdev_ip4addr_aton:addr <- $r8
	@DEBUG_VALUE: netdev_ip4addr_aton:c <- $r6
	@DEBUG_VALUE: netdev_ip4addr_aton:val <- $r5
	.loc	1 0 5 is_stmt 0                 @ rt-thread/components/net/netdev/src/netdev_ipaddr.c:0:5
	movs	r1, #1
	b	.LBB0_19
.Ltmp49:
.LBB0_33:
	@DEBUG_VALUE: netdev_ip4addr_aton:addr <- $r8
	@DEBUG_VALUE: netdev_ip4addr_aton:c <- $r6
	@DEBUG_VALUE: netdev_ip4addr_aton:val <- $r5
	@DEBUG_VALUE: netdev_ip4addr_aton:pp <- $r3
	movs	r1, #0
.Ltmp50:
	.loc	1 143 13 is_stmt 1              @ rt-thread/components/net/netdev/src/netdev_ipaddr.c:143:13
	cmp.w	r1, r5, lsr #16
	bne	.LBB0_19
.Ltmp51:
@ %bb.34:
	@DEBUG_VALUE: netdev_ip4addr_aton:addr <- $r8
	@DEBUG_VALUE: netdev_ip4addr_aton:c <- $r6
	@DEBUG_VALUE: netdev_ip4addr_aton:val <- $r5
	@DEBUG_VALUE: netdev_ip4addr_aton:pp <- $r3
	.loc	1 0 13 is_stmt 0                @ rt-thread/components/net/netdev/src/netdev_ipaddr.c:0:13
	ldr	r0, [sp]
	.loc	1 143 13                        @ rt-thread/components/net/netdev/src/netdev_ipaddr.c:143:13
	cmp	r0, #255
	bhi	.LBB0_19
.Ltmp52:
@ %bb.35:
	@DEBUG_VALUE: netdev_ip4addr_aton:addr <- $r8
	@DEBUG_VALUE: netdev_ip4addr_aton:c <- $r6
	@DEBUG_VALUE: netdev_ip4addr_aton:val <- $r5
	@DEBUG_VALUE: netdev_ip4addr_aton:pp <- $r3
	.loc	1 147 35 is_stmt 1              @ rt-thread/components/net/netdev/src/netdev_ipaddr.c:147:35
	ldr	r1, [sp, #4]
.Ltmp53:
	.loc	1 147 13 is_stmt 0              @ rt-thread/components/net/netdev/src/netdev_ipaddr.c:147:13
	cmp	r1, #255
	bls	.LBB0_46
.Ltmp54:
@ %bb.36:
	@DEBUG_VALUE: netdev_ip4addr_aton:addr <- $r8
	@DEBUG_VALUE: netdev_ip4addr_aton:c <- $r6
	@DEBUG_VALUE: netdev_ip4addr_aton:val <- $r5
	@DEBUG_VALUE: netdev_ip4addr_aton:pp <- $r3
	.loc	1 0 13                          @ rt-thread/components/net/netdev/src/netdev_ipaddr.c:0:13
	movs	r1, #0
	b	.LBB0_19
.Ltmp55:
.LBB0_37:
	@DEBUG_VALUE: netdev_ip4addr_aton:addr <- $r8
	@DEBUG_VALUE: netdev_ip4addr_aton:c <- $r6
	@DEBUG_VALUE: netdev_ip4addr_aton:val <- $r5
	@DEBUG_VALUE: netdev_ip4addr_aton:pp <- $r3
	ldr	r0, [sp]
	.loc	1 155 13 is_stmt 1              @ rt-thread/components/net/netdev/src/netdev_ipaddr.c:155:13
	orr.w	r1, r0, r5
	cmp	r1, #255
	bhi	.LBB0_41
.Ltmp56:
@ %bb.38:
	@DEBUG_VALUE: netdev_ip4addr_aton:addr <- $r8
	@DEBUG_VALUE: netdev_ip4addr_aton:c <- $r6
	@DEBUG_VALUE: netdev_ip4addr_aton:val <- $r5
	@DEBUG_VALUE: netdev_ip4addr_aton:pp <- $r3
	.loc	1 159 35                        @ rt-thread/components/net/netdev/src/netdev_ipaddr.c:159:35
	ldr	r1, [sp, #4]
	.loc	1 159 52 is_stmt 0              @ rt-thread/components/net/netdev/src/netdev_ipaddr.c:159:52
	cmp	r1, #255
	bls	.LBB0_44
.Ltmp57:
@ %bb.39:
	@DEBUG_VALUE: netdev_ip4addr_aton:addr <- $r8
	@DEBUG_VALUE: netdev_ip4addr_aton:c <- $r6
	@DEBUG_VALUE: netdev_ip4addr_aton:val <- $r5
	@DEBUG_VALUE: netdev_ip4addr_aton:pp <- $r3
	.loc	1 0 52                          @ rt-thread/components/net/netdev/src/netdev_ipaddr.c:0:52
	movs	r1, #0
	b	.LBB0_19
.Ltmp58:
.LBB0_40:
	@DEBUG_VALUE: netdev_ip4addr_aton:addr <- $r8
	@DEBUG_VALUE: netdev_ip4addr_aton:c <- $r6
	@DEBUG_VALUE: netdev_ip4addr_aton:val <- $r5
	@DEBUG_VALUE: netdev_ip4addr_aton:pp <- $r3
	@DEBUG_VALUE: netdev_ip4addr_aton:cp <- [DW_OP_constu 1, DW_OP_minus, DW_OP_stack_value] $r0
	movs	r1, #0
	b	.LBB0_19
.Ltmp59:
.LBB0_41:
	@DEBUG_VALUE: netdev_ip4addr_aton:addr <- $r8
	@DEBUG_VALUE: netdev_ip4addr_aton:c <- $r6
	@DEBUG_VALUE: netdev_ip4addr_aton:val <- $r5
	@DEBUG_VALUE: netdev_ip4addr_aton:pp <- $r3
	movs	r1, #0
	b	.LBB0_19
.Ltmp60:
.LBB0_42:
	@DEBUG_VALUE: netdev_ip4addr_aton:addr <- $r8
	@DEBUG_VALUE: netdev_ip4addr_aton:c <- $r6
	@DEBUG_VALUE: netdev_ip4addr_aton:val <- $r5
	@DEBUG_VALUE: netdev_ip4addr_aton:pp <- $r3
	.loc	1 90 13 is_stmt 1               @ rt-thread/components/net/netdev/src/netdev_ipaddr.c:90:13
	cmp	r1, #0
	beq	.LBB0_22
.Ltmp61:
@ %bb.43:
	@DEBUG_VALUE: netdev_ip4addr_aton:addr <- $r8
	@DEBUG_VALUE: netdev_ip4addr_aton:c <- $r6
	@DEBUG_VALUE: netdev_ip4addr_aton:val <- $r5
	@DEBUG_VALUE: netdev_ip4addr_aton:pp <- $r3
	.loc	1 0 13 is_stmt 0                @ rt-thread/components/net/netdev/src/netdev_ipaddr.c:0:13
	movs	r1, #0
	b	.LBB0_19
.Ltmp62:
.LBB0_44:
	@DEBUG_VALUE: netdev_ip4addr_aton:addr <- $r8
	@DEBUG_VALUE: netdev_ip4addr_aton:c <- $r6
	@DEBUG_VALUE: netdev_ip4addr_aton:val <- $r5
	@DEBUG_VALUE: netdev_ip4addr_aton:pp <- $r3
	.loc	1 159 56 is_stmt 1              @ rt-thread/components/net/netdev/src/netdev_ipaddr.c:159:56
	ldr	r2, [sp, #8]
.Ltmp63:
	.loc	1 159 13 is_stmt 0              @ rt-thread/components/net/netdev/src/netdev_ipaddr.c:159:13
	cmp	r2, #255
	bls	.LBB0_48
.Ltmp64:
@ %bb.45:
	@DEBUG_VALUE: netdev_ip4addr_aton:addr <- $r8
	@DEBUG_VALUE: netdev_ip4addr_aton:c <- $r6
	@DEBUG_VALUE: netdev_ip4addr_aton:val <- $r5
	@DEBUG_VALUE: netdev_ip4addr_aton:pp <- $r3
	.loc	1 0 13                          @ rt-thread/components/net/netdev/src/netdev_ipaddr.c:0:13
	movs	r1, #0
	b	.LBB0_19
.Ltmp65:
.LBB0_46:
	@DEBUG_VALUE: netdev_ip4addr_aton:addr <- $r8
	@DEBUG_VALUE: netdev_ip4addr_aton:c <- $r6
	@DEBUG_VALUE: netdev_ip4addr_aton:val <- $r5
	@DEBUG_VALUE: netdev_ip4addr_aton:pp <- $r3
	.loc	1 151 33 is_stmt 1              @ rt-thread/components/net/netdev/src/netdev_ipaddr.c:151:33
	orr.w	r0, r5, r0, lsl #24
	.loc	1 151 13 is_stmt 0              @ rt-thread/components/net/netdev/src/netdev_ipaddr.c:151:13
	orr.w	r5, r0, r1, lsl #16
.Ltmp66:
	@DEBUG_VALUE: netdev_ip4addr_aton:val <- $r5
	.loc	1 0 13                          @ rt-thread/components/net/netdev/src/netdev_ipaddr.c:0:13
	b	.LBB0_30
.Ltmp67:
.LBB0_47:
	@DEBUG_VALUE: netdev_ip4addr_aton:addr <- $r8
	@DEBUG_VALUE: netdev_ip4addr_aton:c <- $r6
	@DEBUG_VALUE: netdev_ip4addr_aton:val <- $r5
	@DEBUG_VALUE: netdev_ip4addr_aton:pp <- $r3
	@DEBUG_VALUE: netdev_ip4addr_aton:cp <- [DW_OP_constu 1, DW_OP_minus, DW_OP_stack_value] $r0
	movs	r1, #0
	b	.LBB0_19
.Ltmp68:
.LBB0_48:
	@DEBUG_VALUE: netdev_ip4addr_aton:addr <- $r8
	@DEBUG_VALUE: netdev_ip4addr_aton:c <- $r6
	@DEBUG_VALUE: netdev_ip4addr_aton:val <- $r5
	@DEBUG_VALUE: netdev_ip4addr_aton:pp <- $r3
	.loc	1 163 33 is_stmt 1              @ rt-thread/components/net/netdev/src/netdev_ipaddr.c:163:33
	orr.w	r0, r5, r0, lsl #24
	.loc	1 163 52 is_stmt 0              @ rt-thread/components/net/netdev/src/netdev_ipaddr.c:163:52
	orr.w	r0, r0, r1, lsl #16
	.loc	1 163 13                        @ rt-thread/components/net/netdev/src/netdev_ipaddr.c:163:13
	orr.w	r5, r0, r2, lsl #8
.Ltmp69:
	@DEBUG_VALUE: netdev_ip4addr_aton:val <- $r5
	.loc	1 0 13                          @ rt-thread/components/net/netdev/src/netdev_ipaddr.c:0:13
	b	.LBB0_30
.Ltmp70:
	.p2align	2
@ %bb.49:
.LCPI0_0:
.L.str:
	.asciz	"0\000\000"
.LCPI0_1:
.L__FUNCTION__.netdev_ip4addr_aton:
	.asciz	"netdev_ip4addr_aton"
.Lfunc_end0:
	.size	netdev_ip4addr_aton, .Lfunc_end0-netdev_ip4addr_aton
	.cfi_endproc
	.cantunwind
	.fnend
                                        @ -- End function
	.section	.text.netdev_ip4addr_ntoa_r,"ax",%progbits
	.hidden	netdev_ip4addr_ntoa_r           @ -- Begin function netdev_ip4addr_ntoa_r
	.globl	netdev_ip4addr_ntoa_r
	.p2align	3
	.type	netdev_ip4addr_ntoa_r,%function
	.code	16                              @ @netdev_ip4addr_ntoa_r
	.thumb_func
netdev_ip4addr_ntoa_r:
.Lfunc_begin1:
	.loc	1 186 0 is_stmt 1               @ rt-thread/components/net/netdev/src/netdev_ipaddr.c:186:0
	.fnstart
	.cfi_startproc
@ %bb.0:
	@DEBUG_VALUE: netdev_ip4addr_ntoa_r:addr <- $r0
	@DEBUG_VALUE: netdev_ip4addr_ntoa_r:buf <- $r1
	@DEBUG_VALUE: netdev_ip4addr_ntoa_r:buflen <- $r2
	.save	{r4, r5, r6, r7, r8, r9, r10, r11, lr}
	push.w	{r4, r5, r6, r7, r8, r9, r10, r11, lr}
	.cfi_def_cfa_offset 36
	.cfi_offset lr, -4
	.cfi_offset r11, -8
	.cfi_offset r10, -12
	.cfi_offset r9, -16
	.cfi_offset r8, -20
	.cfi_offset r7, -24
	.cfi_offset r6, -28
	.cfi_offset r5, -32
	.cfi_offset r4, -36
	.pad	#12
	sub	sp, #12
	.cfi_def_cfa_offset 48
	add.w	r9, sp, #8
.Ltmp71:
	@DEBUG_VALUE: netdev_ip4addr_ntoa_r:len <- 0
	@DEBUG_VALUE: netdev_ip4addr_ntoa_r:ap <- [DW_OP_plus_uconst 8, DW_OP_stack_value] $sp
	@DEBUG_VALUE: netdev_ip4addr_ntoa_r:buflen <- $r2
	@DEBUG_VALUE: netdev_ip4addr_ntoa_r:buf <- $lr
	@DEBUG_VALUE: netdev_ip4addr_ntoa_r:addr <- $r0
	movw	r11, #52429
	mov	lr, r1
.Ltmp72:
	.loc	1 196 14 prologue_end           @ rt-thread/components/net/netdev/src/netdev_ipaddr.c:196:14
	ldr	r0, [r0]
.Ltmp73:
	@DEBUG_VALUE: netdev_ip4addr_ntoa_r:addr <- [DW_OP_LLVM_entry_value 1] $r0
	@DEBUG_VALUE: netdev_ip4addr_ntoa_r:s_addr <- $r0
	.loc	1 196 12 is_stmt 0              @ rt-thread/components/net/netdev/src/netdev_ipaddr.c:196:12
	str	r0, [sp, #8]
.Ltmp74:
	@DEBUG_VALUE: netdev_ip4addr_ntoa_r:n <- 0
	@DEBUG_VALUE: netdev_ip4addr_ntoa_r:rp <- undef
	.loc	1 200 5 is_stmt 1               @ rt-thread/components/net/netdev/src/netdev_ipaddr.c:200:5
	add.w	r0, r9, #3
.Ltmp75:
	.loc	1 0 5 is_stmt 0                 @ rt-thread/components/net/netdev/src/netdev_ipaddr.c:0:5
	str	r0, [sp]                        @ 4-byte Spill
	movs	r0, #0
	movt	r11, #52428
	add.w	r12, sp, #5
	mov	r10, r1
.Ltmp76:
.LBB1_1:                                @ =>This Loop Header: Depth=1
                                        @     Child Loop BB1_2 Depth 2
                                        @     Child Loop BB1_5 Depth 2
	@DEBUG_VALUE: netdev_ip4addr_ntoa_r:buflen <- $r2
	@DEBUG_VALUE: netdev_ip4addr_ntoa_r:addr <- [DW_OP_LLVM_entry_value 1] $r0
	@DEBUG_VALUE: netdev_ip4addr_ntoa_r:ap <- $r9
	@DEBUG_VALUE: netdev_ip4addr_ntoa_r:len <- $r0
	@DEBUG_VALUE: netdev_ip4addr_ntoa_r:rp <- $r10
	@DEBUG_VALUE: netdev_ip4addr_ntoa_r:n <- undef
	ldrb.w	r3, [r9]
	movs	r7, #0
.Ltmp77:
	.p2align	2
.LBB1_2:                                @   Parent Loop BB1_1 Depth=1
                                        @ =>  This Inner Loop Header: Depth=2
	@DEBUG_VALUE: netdev_ip4addr_ntoa_r:rp <- $r10
	@DEBUG_VALUE: netdev_ip4addr_ntoa_r:ap <- $r9
	@DEBUG_VALUE: netdev_ip4addr_ntoa_r:buflen <- $r2
	@DEBUG_VALUE: netdev_ip4addr_ntoa_r:len <- $r0
	@DEBUG_VALUE: netdev_ip4addr_ntoa_r:addr <- [DW_OP_LLVM_entry_value 1] $r0
	uxtb	r1, r3
	mov	r6, r3
.Ltmp78:
	@DEBUG_VALUE: netdev_ip4addr_ntoa_r:i <- undef
	.loc	1 207 13 is_stmt 1              @ rt-thread/components/net/netdev/src/netdev_ipaddr.c:207:13
	uxtb	r4, r7
	.loc	1 206 17                        @ rt-thread/components/net/netdev/src/netdev_ipaddr.c:206:17
	umull	r3, r5, r1, r11
	.loc	1 208 9                         @ rt-thread/components/net/netdev/src/netdev_ipaddr.c:208:9
	cmp	r1, #9
	.loc	1 206 17                        @ rt-thread/components/net/netdev/src/netdev_ipaddr.c:206:17
	lsr.w	r3, r5, #3
.Ltmp79:
	.loc	1 0 0 is_stmt 0                 @ rt-thread/components/net/netdev/src/netdev_ipaddr.c:0:0
	mov	r5, r7
.Ltmp80:
	.loc	1 207 18 is_stmt 1              @ rt-thread/components/net/netdev/src/netdev_ipaddr.c:207:18
	add.w	r7, r7, #1
.Ltmp81:
	@DEBUG_VALUE: netdev_ip4addr_ntoa_r:i <- $r7
	.loc	1 0 18 is_stmt 0                @ rt-thread/components/net/netdev/src/netdev_ipaddr.c:0:18
	add.w	r8, r3, r3, lsl #2
	sub.w	r6, r6, r8, lsl #1
.Ltmp82:
	@DEBUG_VALUE: netdev_ip4addr_ntoa_r:rem <- $r6
	.loc	1 207 36                        @ rt-thread/components/net/netdev/src/netdev_ipaddr.c:207:36
	orr	r6, r6, #48
.Ltmp83:
	.loc	1 207 22                        @ rt-thread/components/net/netdev/src/netdev_ipaddr.c:207:22
	strb.w	r6, [r12, r4]
	.loc	1 208 9 is_stmt 1               @ rt-thread/components/net/netdev/src/netdev_ipaddr.c:208:9
	bhi	.LBB1_2
.Ltmp84:
@ %bb.3:                                @   in Loop: Header=BB1_1 Depth=1
	@DEBUG_VALUE: netdev_ip4addr_ntoa_r:rp <- $r10
	@DEBUG_VALUE: netdev_ip4addr_ntoa_r:ap <- $r9
	@DEBUG_VALUE: netdev_ip4addr_ntoa_r:i <- $r7
	@DEBUG_VALUE: netdev_ip4addr_ntoa_r:buflen <- $r2
	@DEBUG_VALUE: netdev_ip4addr_ntoa_r:len <- $r0
	@DEBUG_VALUE: netdev_ip4addr_ntoa_r:addr <- [DW_OP_LLVM_entry_value 1] $r0
	.loc	1 209 9                         @ rt-thread/components/net/netdev/src/netdev_ipaddr.c:209:9
	lsls	r1, r7, #24
.Ltmp85:
	.loc	1 0 0 is_stmt 0                 @ rt-thread/components/net/netdev/src/netdev_ipaddr.c:0:0
	strb.w	r3, [r9]
.Ltmp86:
	@DEBUG_VALUE: netdev_ip4addr_ntoa_r:i <- $r5
	@DEBUG_VALUE: netdev_ip4addr_ntoa_r:rp <- $r10
	@DEBUG_VALUE: netdev_ip4addr_ntoa_r:len <- $r0
	.loc	1 209 9                         @ rt-thread/components/net/netdev/src/netdev_ipaddr.c:209:9
	beq	.LBB1_8
.Ltmp87:
@ %bb.4:                                @   in Loop: Header=BB1_1 Depth=1
	@DEBUG_VALUE: netdev_ip4addr_ntoa_r:rp <- $r10
	@DEBUG_VALUE: netdev_ip4addr_ntoa_r:ap <- $r9
	@DEBUG_VALUE: netdev_ip4addr_ntoa_r:i <- $r5
	@DEBUG_VALUE: netdev_ip4addr_ntoa_r:buflen <- $r2
	@DEBUG_VALUE: netdev_ip4addr_ntoa_r:len <- $r0
	@DEBUG_VALUE: netdev_ip4addr_ntoa_r:addr <- [DW_OP_LLVM_entry_value 1] $r0
	mov	r3, r2
	mov	r7, r10
.Ltmp88:
	@DEBUG_VALUE: netdev_ip4addr_ntoa_r:rp <- $r7
	cmp	r0, r2
	it	gt
	movgt	r3, r0
.Ltmp89:
	.p2align	2
.LBB1_5:                                @   Parent Loop BB1_1 Depth=1
                                        @ =>  This Inner Loop Header: Depth=2
	@DEBUG_VALUE: netdev_ip4addr_ntoa_r:ap <- $r9
	@DEBUG_VALUE: netdev_ip4addr_ntoa_r:rp <- $r7
	@DEBUG_VALUE: netdev_ip4addr_ntoa_r:i <- $r5
	@DEBUG_VALUE: netdev_ip4addr_ntoa_r:buflen <- $r2
	@DEBUG_VALUE: netdev_ip4addr_ntoa_r:len <- $r0
	@DEBUG_VALUE: netdev_ip4addr_ntoa_r:addr <- [DW_OP_LLVM_entry_value 1] $r0
	@DEBUG_VALUE: netdev_ip4addr_ntoa_r:len <- [DW_OP_plus_uconst 1, DW_OP_stack_value] $r0
	@DEBUG_VALUE: netdev_ip4addr_ntoa_r:rp <- $r7
	.loc	1 211 17 is_stmt 1              @ rt-thread/components/net/netdev/src/netdev_ipaddr.c:211:17
	cmp	r3, r0
	beq	.LBB1_11
.Ltmp90:
@ %bb.6:                                @   in Loop: Header=BB1_5 Depth=2
	@DEBUG_VALUE: netdev_ip4addr_ntoa_r:ap <- $r9
	@DEBUG_VALUE: netdev_ip4addr_ntoa_r:rp <- $r7
	@DEBUG_VALUE: netdev_ip4addr_ntoa_r:i <- $r5
	@DEBUG_VALUE: netdev_ip4addr_ntoa_r:buflen <- $r2
	@DEBUG_VALUE: netdev_ip4addr_ntoa_r:len <- [DW_OP_plus_uconst 1, DW_OP_stack_value] $r0
	@DEBUG_VALUE: netdev_ip4addr_ntoa_r:addr <- [DW_OP_LLVM_entry_value 1] $r0
	.loc	1 215 21                        @ rt-thread/components/net/netdev/src/netdev_ipaddr.c:215:21
	uxtb	r1, r5
.Ltmp91:
	.loc	1 211 20                        @ rt-thread/components/net/netdev/src/netdev_ipaddr.c:211:20
	adds	r0, #1
.Ltmp92:
	@DEBUG_VALUE: netdev_ip4addr_ntoa_r:len <- $r0
	.loc	1 209 9                         @ rt-thread/components/net/netdev/src/netdev_ipaddr.c:209:9
	cmp	r1, #0
	.loc	1 209 17 is_stmt 0              @ rt-thread/components/net/netdev/src/netdev_ipaddr.c:209:17
	sub.w	r5, r5, #1
.Ltmp93:
	@DEBUG_VALUE: netdev_ip4addr_ntoa_r:i <- $r5
	.loc	1 215 21 is_stmt 1              @ rt-thread/components/net/netdev/src/netdev_ipaddr.c:215:21
	ldrb.w	r4, [r12, r1]
	.loc	1 215 19 is_stmt 0              @ rt-thread/components/net/netdev/src/netdev_ipaddr.c:215:19
	strb	r4, [r7], #1
.Ltmp94:
	@DEBUG_VALUE: netdev_ip4addr_ntoa_r:i <- $r5
	@DEBUG_VALUE: netdev_ip4addr_ntoa_r:rp <- $r7
	.loc	1 209 9 is_stmt 1               @ rt-thread/components/net/netdev/src/netdev_ipaddr.c:209:9
	bne	.LBB1_5
.Ltmp95:
@ %bb.7:                                @   in Loop: Header=BB1_1 Depth=1
	@DEBUG_VALUE: netdev_ip4addr_ntoa_r:ap <- $r9
	@DEBUG_VALUE: netdev_ip4addr_ntoa_r:rp <- $r7
	@DEBUG_VALUE: netdev_ip4addr_ntoa_r:i <- $r5
	@DEBUG_VALUE: netdev_ip4addr_ntoa_r:buflen <- $r2
	@DEBUG_VALUE: netdev_ip4addr_ntoa_r:len <- $r0
	@DEBUG_VALUE: netdev_ip4addr_ntoa_r:addr <- [DW_OP_LLVM_entry_value 1] $r0
	@DEBUG_VALUE: netdev_ip4addr_ntoa_r:len <- [DW_OP_plus_uconst 1, DW_OP_stack_value] $r0
	.loc	1 217 13                        @ rt-thread/components/net/netdev/src/netdev_ipaddr.c:217:13
	cmp	r0, r2
	blt	.LBB1_9
	b	.LBB1_13
.Ltmp96:
	.p2align	2
.LBB1_8:                                @   in Loop: Header=BB1_1 Depth=1
	@DEBUG_VALUE: netdev_ip4addr_ntoa_r:rp <- $r10
	@DEBUG_VALUE: netdev_ip4addr_ntoa_r:ap <- $r9
	@DEBUG_VALUE: netdev_ip4addr_ntoa_r:i <- $r5
	@DEBUG_VALUE: netdev_ip4addr_ntoa_r:buflen <- $r2
	@DEBUG_VALUE: netdev_ip4addr_ntoa_r:len <- $r0
	@DEBUG_VALUE: netdev_ip4addr_ntoa_r:addr <- [DW_OP_LLVM_entry_value 1] $r0
	.loc	1 0 0 is_stmt 0                 @ rt-thread/components/net/netdev/src/netdev_ipaddr.c:0:0
	mov	r7, r10
.Ltmp97:
	@DEBUG_VALUE: netdev_ip4addr_ntoa_r:rp <- $r7
	@DEBUG_VALUE: netdev_ip4addr_ntoa_r:len <- [DW_OP_plus_uconst 1, DW_OP_stack_value] $r0
	.loc	1 217 13                        @ rt-thread/components/net/netdev/src/netdev_ipaddr.c:217:13
	cmp	r0, r2
	bge	.LBB1_13
.Ltmp98:
.LBB1_9:                                @   in Loop: Header=BB1_1 Depth=1
	@DEBUG_VALUE: netdev_ip4addr_ntoa_r:ap <- $r9
	@DEBUG_VALUE: netdev_ip4addr_ntoa_r:rp <- $r7
	@DEBUG_VALUE: netdev_ip4addr_ntoa_r:i <- $r5
	@DEBUG_VALUE: netdev_ip4addr_ntoa_r:buflen <- $r2
	@DEBUG_VALUE: netdev_ip4addr_ntoa_r:len <- [DW_OP_plus_uconst 1, DW_OP_stack_value] $r0
	@DEBUG_VALUE: netdev_ip4addr_ntoa_r:addr <- [DW_OP_LLVM_entry_value 1] $r0
	.loc	1 221 15 is_stmt 1              @ rt-thread/components/net/netdev/src/netdev_ipaddr.c:221:15
	mov	r10, r7
	movs	r1, #46
.Ltmp99:
	.loc	1 217 16                        @ rt-thread/components/net/netdev/src/netdev_ipaddr.c:217:16
	adds	r0, #1
.Ltmp100:
	@DEBUG_VALUE: netdev_ip4addr_ntoa_r:len <- $r0
	@DEBUG_VALUE: netdev_ip4addr_ntoa_r:ap <- $r9
	.loc	1 221 15                        @ rt-thread/components/net/netdev/src/netdev_ipaddr.c:221:15
	strb	r1, [r10], #1
.Ltmp101:
	@DEBUG_VALUE: netdev_ip4addr_ntoa_r:rp <- $r10
	.loc	1 200 5                         @ rt-thread/components/net/netdev/src/netdev_ipaddr.c:200:5
	ldr	r1, [sp]                        @ 4-byte Reload
	cmp	r9, r1
.Ltmp102:
	.loc	1 222 11                        @ rt-thread/components/net/netdev/src/netdev_ipaddr.c:222:11
	add.w	r9, r9, #1
.Ltmp103:
	@DEBUG_VALUE: netdev_ip4addr_ntoa_r:n <- [DW_OP_plus_uconst 1, DW_OP_stack_value] undef
	@DEBUG_VALUE: netdev_ip4addr_ntoa_r:ap <- $r9
	.loc	1 200 5                         @ rt-thread/components/net/netdev/src/netdev_ipaddr.c:200:5
	bne	.LBB1_1
.Ltmp104:
@ %bb.10:
	@DEBUG_VALUE: netdev_ip4addr_ntoa_r:rp <- $r10
	@DEBUG_VALUE: netdev_ip4addr_ntoa_r:ap <- $r9
	@DEBUG_VALUE: netdev_ip4addr_ntoa_r:i <- $r5
	@DEBUG_VALUE: netdev_ip4addr_ntoa_r:buflen <- $r2
	@DEBUG_VALUE: netdev_ip4addr_ntoa_r:len <- $r0
	@DEBUG_VALUE: netdev_ip4addr_ntoa_r:addr <- [DW_OP_LLVM_entry_value 1] $r0
	@DEBUG_VALUE: netdev_ip4addr_ntoa_r:rp <- $r7
	.loc	1 0 5 is_stmt 0                 @ rt-thread/components/net/netdev/src/netdev_ipaddr.c:0:5
	movs	r0, #0
.Ltmp105:
	.loc	1 224 11 is_stmt 1              @ rt-thread/components/net/netdev/src/netdev_ipaddr.c:224:11
	strb	r0, [r7]
	b	.LBB1_12
.Ltmp106:
.LBB1_11:
	@DEBUG_VALUE: netdev_ip4addr_ntoa_r:ap <- $r9
	@DEBUG_VALUE: netdev_ip4addr_ntoa_r:rp <- $r7
	@DEBUG_VALUE: netdev_ip4addr_ntoa_r:i <- $r5
	@DEBUG_VALUE: netdev_ip4addr_ntoa_r:buflen <- $r2
	@DEBUG_VALUE: netdev_ip4addr_ntoa_r:len <- [DW_OP_plus_uconst 1, DW_OP_stack_value] $r0
	@DEBUG_VALUE: netdev_ip4addr_ntoa_r:addr <- [DW_OP_LLVM_entry_value 1] $r0
	.loc	1 0 11 is_stmt 0                @ rt-thread/components/net/netdev/src/netdev_ipaddr.c:0:11
	mov.w	lr, #0
.Ltmp107:
.LBB1_12:
	@DEBUG_VALUE: netdev_ip4addr_ntoa_r:ap <- $r9
	@DEBUG_VALUE: netdev_ip4addr_ntoa_r:rp <- $r7
	@DEBUG_VALUE: netdev_ip4addr_ntoa_r:i <- $r5
	@DEBUG_VALUE: netdev_ip4addr_ntoa_r:buflen <- $r2
	@DEBUG_VALUE: netdev_ip4addr_ntoa_r:addr <- [DW_OP_LLVM_entry_value 1] $r0
	.loc	1 226 1 is_stmt 1               @ rt-thread/components/net/netdev/src/netdev_ipaddr.c:226:1
	mov	r0, lr
	add	sp, #12
	pop.w	{r4, r5, r6, r7, r8, r9, r10, r11, pc}
.Ltmp108:
.LBB1_13:
	@DEBUG_VALUE: netdev_ip4addr_ntoa_r:ap <- $r9
	@DEBUG_VALUE: netdev_ip4addr_ntoa_r:rp <- $r7
	@DEBUG_VALUE: netdev_ip4addr_ntoa_r:i <- $r5
	@DEBUG_VALUE: netdev_ip4addr_ntoa_r:buflen <- $r2
	@DEBUG_VALUE: netdev_ip4addr_ntoa_r:len <- [DW_OP_plus_uconst 1, DW_OP_stack_value] $r0
	@DEBUG_VALUE: netdev_ip4addr_ntoa_r:addr <- [DW_OP_LLVM_entry_value 1] $r0
	.loc	1 0 1 is_stmt 0                 @ rt-thread/components/net/netdev/src/netdev_ipaddr.c:0:1
	mov.w	lr, #0
	b	.LBB1_12
.Lfunc_end1:
	.size	netdev_ip4addr_ntoa_r, .Lfunc_end1-netdev_ip4addr_ntoa_r
	.cfi_endproc
	.cantunwind
	.fnend
                                        @ -- End function
	.section	.text.netdev_ip4addr_ntoa,"ax",%progbits
	.hidden	netdev_ip4addr_ntoa             @ -- Begin function netdev_ip4addr_ntoa
	.globl	netdev_ip4addr_ntoa
	.p2align	3
	.type	netdev_ip4addr_ntoa,%function
	.code	16                              @ @netdev_ip4addr_ntoa
	.thumb_func
netdev_ip4addr_ntoa:
.Lfunc_begin2:
	.loc	1 238 0 is_stmt 1               @ rt-thread/components/net/netdev/src/netdev_ipaddr.c:238:0
	.fnstart
	.cfi_startproc
@ %bb.0:
	@DEBUG_VALUE: netdev_ip4addr_ntoa:addr <- $r0
	@DEBUG_VALUE: netdev_ip4addr_ntoa:addr <- $r0
	.save	{r7, lr}
	push	{r7, lr}
	.cfi_def_cfa_offset 8
	.cfi_offset lr, -4
	.cfi_offset r7, -8
.Ltmp109:
	.loc	1 240 12 prologue_end           @ rt-thread/components/net/netdev/src/netdev_ipaddr.c:240:12
	movw	r1, :lower16:netdev_ip4addr_ntoa.str
	movs	r2, #16
	@DEBUG_VALUE: netdev_ip4addr_ntoa:addr <- $r0
	movt	r1, :upper16:netdev_ip4addr_ntoa.str
	bl	netdev_ip4addr_ntoa_r
.Ltmp110:
	@DEBUG_VALUE: netdev_ip4addr_ntoa:addr <- [DW_OP_LLVM_entry_value 1] $r0
	.loc	1 240 5 is_stmt 0               @ rt-thread/components/net/netdev/src/netdev_ipaddr.c:240:5
	pop	{r7, pc}
.Ltmp111:
.Lfunc_end2:
	.size	netdev_ip4addr_ntoa, .Lfunc_end2-netdev_ip4addr_ntoa
	.cfi_endproc
	.cantunwind
	.fnend
                                        @ -- End function
	.section	.text.netdev_ipaddr_addr,"ax",%progbits
	.hidden	netdev_ipaddr_addr              @ -- Begin function netdev_ipaddr_addr
	.globl	netdev_ipaddr_addr
	.p2align	3
	.type	netdev_ipaddr_addr,%function
	.code	16                              @ @netdev_ipaddr_addr
	.thumb_func
netdev_ipaddr_addr:
.Lfunc_begin3:
	.loc	1 252 0 is_stmt 1               @ rt-thread/components/net/netdev/src/netdev_ipaddr.c:252:0
	.fnstart
	.cfi_startproc
@ %bb.0:
	@DEBUG_VALUE: netdev_ipaddr_addr:cp <- $r0
	@DEBUG_VALUE: netdev_ipaddr_addr:cp <- $r0
	.save	{r7, lr}
	push	{r7, lr}
	.cfi_def_cfa_offset 8
	.cfi_offset lr, -4
	.cfi_offset r7, -8
	.pad	#8
	sub	sp, #8
	.cfi_def_cfa_offset 16
	add	r1, sp, #4
	@DEBUG_VALUE: netdev_ipaddr_addr:cp <- $r0
.Ltmp112:
	.loc	1 255 9 prologue_end            @ rt-thread/components/net/netdev/src/netdev_ipaddr.c:255:9
	bl	netdev_ip4addr_aton
.Ltmp113:
	@DEBUG_VALUE: netdev_ipaddr_addr:cp <- [DW_OP_LLVM_entry_value 1] $r0
	.loc	1 255 9 is_stmt 0               @ rt-thread/components/net/netdev/src/netdev_ipaddr.c:255:9
	ldr	r1, [sp, #4]
	cmp	r0, #0
	it	eq
	moveq.w	r1, #-1
	.loc	1 259 1 is_stmt 1               @ rt-thread/components/net/netdev/src/netdev_ipaddr.c:259:1
	mov	r0, r1
	add	sp, #8
	pop	{r7, pc}
.Ltmp114:
.Lfunc_end3:
	.size	netdev_ipaddr_addr, .Lfunc_end3-netdev_ipaddr_addr
	.cfi_endproc
	.cantunwind
	.fnend
                                        @ -- End function
	.section	.text.netdev_inet_ntop,"ax",%progbits
	.hidden	netdev_inet_ntop                @ -- Begin function netdev_inet_ntop
	.globl	netdev_inet_ntop
	.p2align	3
	.type	netdev_inet_ntop,%function
	.code	16                              @ @netdev_inet_ntop
	.thumb_func
netdev_inet_ntop:
.Lfunc_begin4:
	.loc	1 555 0                         @ rt-thread/components/net/netdev/src/netdev_ipaddr.c:555:0
	.fnstart
	.cfi_startproc
@ %bb.0:
	@DEBUG_VALUE: netdev_inet_ntop:af <- $r0
	@DEBUG_VALUE: netdev_inet_ntop:af <- $r0
	@DEBUG_VALUE: netdev_inet_ntop:src <- $r1
	@DEBUG_VALUE: netdev_inet_ntop:dst <- $r2
	@DEBUG_VALUE: netdev_inet_ntop:size <- $r3
	@DEBUG_VALUE: netdev_inet_ntop:size_int <- $r3
	@DEBUG_VALUE: netdev_inet_ntop:ret <- 0
	.loc	1 561 9 prologue_end            @ rt-thread/components/net/netdev/src/netdev_ipaddr.c:561:9
	cmp	r0, #2
	@DEBUG_VALUE: netdev_inet_ntop:size_int <- $r3
	@DEBUG_VALUE: netdev_inet_ntop:size <- $r3
	@DEBUG_VALUE: netdev_inet_ntop:dst <- $r2
	@DEBUG_VALUE: netdev_inet_ntop:src <- $r1
	mov.w	r0, #0
.Ltmp115:
	@DEBUG_VALUE: netdev_inet_ntop:af <- [DW_OP_LLVM_entry_value 1] $r0
	bne	.LBB4_3
.Ltmp116:
@ %bb.1:
	@DEBUG_VALUE: netdev_inet_ntop:size_int <- $r3
	@DEBUG_VALUE: netdev_inet_ntop:size <- $r3
	@DEBUG_VALUE: netdev_inet_ntop:dst <- $r2
	@DEBUG_VALUE: netdev_inet_ntop:src <- $r1
	@DEBUG_VALUE: netdev_inet_ntop:af <- [DW_OP_LLVM_entry_value 1] $r0
	@DEBUG_VALUE: netdev_inet_ntop:ret <- 0
	cmp	r3, #0
	.loc	1 579 1                         @ rt-thread/components/net/netdev/src/netdev_ipaddr.c:579:1
	it	mi
	bxmi	lr
.Ltmp117:
.LBB4_2:
	@DEBUG_VALUE: netdev_inet_ntop:size_int <- $r3
	@DEBUG_VALUE: netdev_inet_ntop:size <- $r3
	@DEBUG_VALUE: netdev_inet_ntop:dst <- $r2
	@DEBUG_VALUE: netdev_inet_ntop:src <- $r1
	@DEBUG_VALUE: netdev_inet_ntop:af <- [DW_OP_LLVM_entry_value 1] $r0
	@DEBUG_VALUE: netdev_inet_ntop:ret <- 0
	.save	{r7, lr}
	push	{r7, lr}
	.cfi_def_cfa_offset 8
	.cfi_offset lr, -4
	.cfi_offset r7, -8
.Ltmp118:
	.loc	1 569 16                        @ rt-thread/components/net/netdev/src/netdev_ipaddr.c:569:16
	mov	r0, r1
	mov	r1, r2
.Ltmp119:
	@DEBUG_VALUE: netdev_inet_ntop:src <- [DW_OP_LLVM_entry_value 1] $r1
	mov	r2, r3
.Ltmp120:
	@DEBUG_VALUE: netdev_inet_ntop:dst <- [DW_OP_LLVM_entry_value 1] $r2
	bl	netdev_ip4addr_ntoa_r
.Ltmp121:
	@DEBUG_VALUE: netdev_inet_ntop:size <- [DW_OP_LLVM_entry_value 1] $r3
	.loc	1 0 16 is_stmt 0                @ rt-thread/components/net/netdev/src/netdev_ipaddr.c:0:16
	pop.w	{r7, lr}
.Ltmp122:
.LBB4_3:
	@DEBUG_VALUE: netdev_inet_ntop:af <- [DW_OP_LLVM_entry_value 1] $r0
	@DEBUG_VALUE: netdev_inet_ntop:ret <- 0
	.loc	1 579 1 is_stmt 1               @ rt-thread/components/net/netdev/src/netdev_ipaddr.c:579:1
	bx	lr
.Ltmp123:
.Lfunc_end4:
	.size	netdev_inet_ntop, .Lfunc_end4-netdev_inet_ntop
	.cfi_endproc
	.cantunwind
	.fnend
                                        @ -- End function
	.section	.text.netdev_inet_pton,"ax",%progbits
	.hidden	netdev_inet_pton                @ -- Begin function netdev_inet_pton
	.globl	netdev_inet_pton
	.p2align	3
	.type	netdev_inet_pton,%function
	.code	16                              @ @netdev_inet_pton
	.thumb_func
netdev_inet_pton:
.Lfunc_begin5:
	.loc	1 583 0                         @ rt-thread/components/net/netdev/src/netdev_ipaddr.c:583:0
	.fnstart
	.cfi_startproc
@ %bb.0:
	@DEBUG_VALUE: netdev_inet_pton:af <- $r0
	@DEBUG_VALUE: netdev_inet_pton:af <- $r0
	@DEBUG_VALUE: netdev_inet_pton:src <- $r1
	@DEBUG_VALUE: netdev_inet_pton:dst <- $r2
	.loc	1 588 5 prologue_end            @ rt-thread/components/net/netdev/src/netdev_ipaddr.c:588:5
	cmp	r0, #2
	@DEBUG_VALUE: netdev_inet_pton:dst <- $r2
	@DEBUG_VALUE: netdev_inet_pton:src <- $r1
	bne	.LBB5_2
.Ltmp124:
@ %bb.1:
	@DEBUG_VALUE: netdev_inet_pton:dst <- $r2
	@DEBUG_VALUE: netdev_inet_pton:src <- $r1
	@DEBUG_VALUE: netdev_inet_pton:af <- $r0
	.save	{r7, lr}
	push	{r7, lr}
	.cfi_def_cfa_offset 8
	.cfi_offset lr, -4
	.cfi_offset r7, -8
.Ltmp125:
	.loc	1 592 15                        @ rt-thread/components/net/netdev/src/netdev_ipaddr.c:592:15
	mov	r0, r1
.Ltmp126:
	@DEBUG_VALUE: netdev_inet_pton:af <- [DW_OP_LLVM_entry_value 1] $r0
	mov	r1, r2
.Ltmp127:
	@DEBUG_VALUE: netdev_inet_pton:src <- [DW_OP_LLVM_entry_value 1] $r1
	bl	netdev_ip4addr_aton
.Ltmp128:
	@DEBUG_VALUE: netdev_inet_pton:dst <- [DW_OP_LLVM_entry_value 1] $r2
	@DEBUG_VALUE: netdev_inet_pton:err <- $r0
	.loc	1 0 15 is_stmt 0                @ rt-thread/components/net/netdev/src/netdev_ipaddr.c:0:15
	pop	{r7, pc}
.Ltmp129:
.LBB5_2:
	@DEBUG_VALUE: netdev_inet_pton:dst <- $r2
	@DEBUG_VALUE: netdev_inet_pton:src <- $r1
	@DEBUG_VALUE: netdev_inet_pton:af <- $r0
	mov.w	r0, #-1
.Ltmp130:
	@DEBUG_VALUE: netdev_inet_pton:af <- [DW_OP_LLVM_entry_value 1] $r0
	@DEBUG_VALUE: netdev_inet_pton:err <- $r0
	.loc	1 613 5 is_stmt 1               @ rt-thread/components/net/netdev/src/netdev_ipaddr.c:613:5
	bx	lr
.Ltmp131:
.Lfunc_end5:
	.size	netdev_inet_pton, .Lfunc_end5-netdev_inet_pton
	.cfi_endproc
	.cantunwind
	.fnend
                                        @ -- End function
	.type	netdev_ip4addr_ntoa.str,%object @ @netdev_ip4addr_ntoa.str
	.section	.bss.netdev_ip4addr_ntoa.str,"aw",%nobits
netdev_ip4addr_ntoa.str:
	.zero	16
	.size	netdev_ip4addr_ntoa.str, 16

	.section	".note.GNU-stack","",%progbits
	.eabi_attribute	30, 1	@ Tag_ABI_optimization_goals
	.ARM_attribute	16, 1	@ Tag_AV_eba