	.text
	.syntax unified
	.eabi_attribute	67, "2.09"	@ Tag_conformance
	.cpu	cortex-m7
	.eabi_attribute	6, 13	@ Tag_CPU_arch
	.eabi_attribute	7, 77	@ Tag_CPU_arch_profile
	.eabi_attribute	8, 0	@ Tag_ARM_ISA_use
	.eabi_attribute	9, 2	@ Tag_THUMB_ISA_use
	.fpu	fpv5-d16
	.eabi_attribute	36, 1	@ Tag_FP_HP_extension
	.eabi_attribute	34, 1	@ Tag_CPU_unaligned_access
	.eabi_attribute	17, 1	@ Tag_ABI_PCS_GOT_use
	.eabi_attribute	20, 2	@ Tag_ABI_FP_denormal
	.eabi_attribute	21, 0	@ Tag_ABI_FP_exceptions
	.eabi_attribute	23, 1	@ Tag_ABI_FP_number_model
	.eabi_attribute	24, 1	@ Tag_ABI_align_needed
	.eabi_attribute	25, 1	@ Tag_ABI_align_preserved
	.eabi_attribute	28, 1	@ Tag_ABI_VFP_args
	.eabi_attribute	38, 1	@ Tag_ABI_FP_16bit_format
	.eabi_attribute	18, 2	@ Tag_ABI_PCS_wchar_t
	.eabi_attribute	26, 1	@ Tag_ABI_enum_size
	.eabi_attribute	14, 0	@ Tag_ABI_PCS_R9_use
	.file	"netdev.c"
	.file	1 "E:\\Smart-access-control\\Hardware\\CODE" "rt-thread/components/net/netdev/src/netdev.c"
	.file	2 "E:\\Smart-access-control\\Hardware\\CODE" "rt-thread/components/finsh/finsh_api.h"
	.file	3 "E:\\Smart-access-control\\Hardware\\CODE" "rt-thread/include\\rtdef.h"
	.file	4 "E:\\Smart-access-control\\Hardware\\CODE" "./rt-thread/components/net/netdev/include\\netdev.h"
	.file	5 "D:\\Keil_v5\\ARM\\ARMCLANG\\Bin\\..\\include" "stdint.h"
	.file	6 "E:\\Smart-access-control\\Hardware\\CODE" "./rt-thread/components/net/netdev/include\\netdev_ipaddr.h"
	.file	7 "D:\\Keil_v5\\ARM\\ARMCLANG\\Bin\\..\\include" "stdio.h"
	.file	8 "E:\\Smart-access-control\\Hardware\\CODE" "./rt-thread/components/net/sal_socket/include\\sal.h"
	.file	9 "E:\\Smart-access-control\\Hardware\\CODE" "./rt-thread/components/net/sal_socket/include/sal_socket.h"
	.file	10 "E:\\Smart-access-control\\Hardware\\CODE" "./rt-thread/components/net/sal_socket/include\\sal_netdb.h"
	.section	.text.netdev_register,"ax",%progbits
	.hidden	netdev_register                 @ -- Begin function netdev_register
	.globl	netdev_register
	.p2align	3
	.type	netdev_register,%function
	.code	16                              @ @netdev_register
	.thumb_func
netdev_register:
.Lfunc_begin0:
	.loc	1 46 0                          @ rt-thread/components/net/netdev/src/netdev.c:46:0
	.fnstart
	.cfi_sections .debug_frame
	.cfi_startproc
@ %bb.0:
	.save	{r7, lr}
	push	{r7, lr}
	.cfi_def_cfa_offset 8
	.cfi_offset lr, -4
	.cfi_offset r7, -8
	.pad	#32
	sub	sp, #32
	.cfi_def_cfa_offset 40
	str	r0, [sp, #28]
	str	r1, [sp, #24]
	str	r2, [sp, #20]
.Ltmp0:
	.loc	1 51 5 prologue_end             @ rt-thread/components/net/netdev/src/netdev.c:51:5
	ldr	r0, [sp, #28]
.Ltmp1:
	.loc	1 51 5 is_stmt 0                @ rt-thread/components/net/netdev/src/netdev.c:51:5
	cbnz	r0, .LBB0_2
	b	.LBB0_1
.LBB0_1:
.Ltmp2:
	.loc	1 51 5                          @ rt-thread/components/net/netdev/src/netdev.c:51:5
	movw	r0, :lower16:.L.str
	movt	r0, :upper16:.L.str
	movw	r1, :lower16:.L__FUNCTION__.netdev_register
	movt	r1, :upper16:.L__FUNCTION__.netdev_register
	movs	r2, #51
	bl	rt_assert_handler
	b	.LBB0_2
.Ltmp3:
.LBB0_2:
	.loc	1 52 5 is_stmt 1                @ rt-thread/components/net/netdev/src/netdev.c:52:5
	ldr	r0, [sp, #24]
.Ltmp4:
	.loc	1 52 5 is_stmt 0                @ rt-thread/components/net/netdev/src/netdev.c:52:5
	cbnz	r0, .LBB0_4
	b	.LBB0_3
.LBB0_3:
.Ltmp5:
	.loc	1 52 5                          @ rt-thread/components/net/netdev/src/netdev.c:52:5
	movw	r0, :lower16:.L.str.1
	movt	r0, :upper16:.L.str.1
	movw	r1, :lower16:.L__FUNCTION__.netdev_register
	movt	r1, :upper16:.L__FUNCTION__.netdev_register
	movs	r2, #52
	bl	rt_assert_handler
	b	.LBB0_4
.Ltmp6:
.LBB0_4:
	.loc	1 0 5                           @ rt-thread/components/net/netdev/src/netdev.c:0:5
	movw	r0, #389
	.loc	1 55 16 is_stmt 1               @ rt-thread/components/net/netdev/src/netdev.c:55:16
	strh.w	r0, [sp, #14]
	.loc	1 56 23                         @ rt-thread/components/net/netdev/src/netdev.c:56:23
	ldrh.w	r2, [sp, #14]
	.loc	1 56 5 is_stmt 0                @ rt-thread/components/net/netdev/src/netdev.c:56:5
	ldr	r1, [sp, #28]
	.loc	1 56 19                         @ rt-thread/components/net/netdev/src/netdev.c:56:19
	ldrh	r0, [r1, #42]
	bics	r0, r2
	strh	r0, [r1, #42]
	.loc	1 58 5 is_stmt 1                @ rt-thread/components/net/netdev/src/netdev.c:58:5
	ldr	r1, [sp, #28]
	movs	r0, #0
	str	r0, [r1, #12]
	.loc	1 59 5                          @ rt-thread/components/net/netdev/src/netdev.c:59:5
	ldr	r1, [sp, #28]
	str	r0, [r1, #16]
	.loc	1 60 5                          @ rt-thread/components/net/netdev/src/netdev.c:60:5
	ldr	r1, [sp, #28]
	str	r0, [r1, #20]
.Ltmp7:
	.loc	1 72 16                         @ rt-thread/components/net/netdev/src/netdev.c:72:16
	str	r0, [sp, #8]
	.loc	1 72 10 is_stmt 0               @ rt-thread/components/net/netdev/src/netdev.c:72:10
	b	.LBB0_5
.LBB0_5:                                @ =>This Inner Loop Header: Depth=1
.Ltmp8:
	.loc	1 72 21                         @ rt-thread/components/net/netdev/src/netdev.c:72:21
	ldr	r0, [sp, #8]
.Ltmp9:
	.loc	1 72 5                          @ rt-thread/components/net/netdev/src/netdev.c:72:5
	cmp	r0, #1
	bhi	.LBB0_8
	b	.LBB0_6
.LBB0_6:                                @   in Loop: Header=BB0_5 Depth=1
.Ltmp10:
	.loc	1 74 9 is_stmt 1                @ rt-thread/components/net/netdev/src/netdev.c:74:9
	ldr	r0, [sp, #28]
	ldr	r1, [sp, #8]
	add.w	r1, r0, r1, lsl #2
	movs	r0, #0
	str	r0, [r1, #24]
	.loc	1 76 5                          @ rt-thread/components/net/netdev/src/netdev.c:76:5
	b	.LBB0_7
.Ltmp11:
.LBB0_7:                                @   in Loop: Header=BB0_5 Depth=1
	.loc	1 72 58                         @ rt-thread/components/net/netdev/src/netdev.c:72:58
	ldr	r0, [sp, #8]
	adds	r0, #1
	str	r0, [sp, #8]
	.loc	1 72 5 is_stmt 0                @ rt-thread/components/net/netdev/src/netdev.c:72:5
	b	.LBB0_5
.Ltmp12:
.LBB0_8:
	.loc	1 77 5 is_stmt 1                @ rt-thread/components/net/netdev/src/netdev.c:77:5
	ldr	r1, [sp, #28]
	movs	r0, #0
	.loc	1 77 29 is_stmt 0               @ rt-thread/components/net/netdev/src/netdev.c:77:29
	str	r0, [r1, #52]
	.loc	1 78 5 is_stmt 1                @ rt-thread/components/net/netdev/src/netdev.c:78:5
	ldr	r1, [sp, #28]
	.loc	1 78 27 is_stmt 0               @ rt-thread/components/net/netdev/src/netdev.c:78:27
	str	r0, [r1, #56]
	.loc	1 81 16 is_stmt 1               @ rt-thread/components/net/netdev/src/netdev.c:81:16
	ldr	r0, [sp, #28]
	.loc	1 81 24 is_stmt 0               @ rt-thread/components/net/netdev/src/netdev.c:81:24
	adds	r0, #4
	.loc	1 81 30                         @ rt-thread/components/net/netdev/src/netdev.c:81:30
	str	r0, [sp, #4]                    @ 4-byte Spill
	ldr	r0, [sp, #24]
	.loc	1 81 36                         @ rt-thread/components/net/netdev/src/netdev.c:81:36
	str	r0, [sp]                        @ 4-byte Spill
	bl	rt_strlen
	ldr	r1, [sp]                        @ 4-byte Reload
	mov	r2, r0
	.loc	1 81 5                          @ rt-thread/components/net/netdev/src/netdev.c:81:5
	ldr	r0, [sp, #4]                    @ 4-byte Reload
	bl	rt_strncpy
	.loc	1 82 25 is_stmt 1               @ rt-thread/components/net/netdev/src/netdev.c:82:25
	ldr	r0, [sp, #20]
	.loc	1 82 5 is_stmt 0                @ rt-thread/components/net/netdev/src/netdev.c:82:5
	ldr	r1, [sp, #28]
	.loc	1 82 23                         @ rt-thread/components/net/netdev/src/netdev.c:82:23
	str	r0, [r1, #64]
	.loc	1 85 21 is_stmt 1               @ rt-thread/components/net/netdev/src/netdev.c:85:21
	ldr	r0, [sp, #28]
	.loc	1 85 5 is_stmt 0                @ rt-thread/components/net/netdev/src/netdev.c:85:5
	bl	rt_slist_init
	.loc	1 87 13 is_stmt 1               @ rt-thread/components/net/netdev/src/netdev.c:87:13
	bl	rt_hw_interrupt_disable
	.loc	1 87 11 is_stmt 0               @ rt-thread/components/net/netdev/src/netdev.c:87:11
	str	r0, [sp, #16]
.Ltmp13:
	.loc	1 89 9 is_stmt 1                @ rt-thread/components/net/netdev/src/netdev.c:89:9
	movw	r0, :lower16:netdev_list
	movt	r0, :upper16:netdev_list
	ldr	r0, [r0]
.Ltmp14:
	.loc	1 89 9 is_stmt 0                @ rt-thread/components/net/netdev/src/netdev.c:89:9
	cbnz	r0, .LBB0_10
	b	.LBB0_9
.LBB0_9:
.Ltmp15:
	.loc	1 91 23 is_stmt 1               @ rt-thread/components/net/netdev/src/netdev.c:91:23
	ldr	r0, [sp, #28]
	.loc	1 91 21 is_stmt 0               @ rt-thread/components/net/netdev/src/netdev.c:91:21
	movw	r1, :lower16:netdev_list
	movt	r1, :upper16:netdev_list
	str	r0, [r1]
	.loc	1 92 26 is_stmt 1               @ rt-thread/components/net/netdev/src/netdev.c:92:26
	ldr	r0, [sp, #28]
	.loc	1 92 24 is_stmt 0               @ rt-thread/components/net/netdev/src/netdev.c:92:24
	movw	r1, :lower16:netdev_default
	movt	r1, :upper16:netdev_default
	str	r0, [r1]
	.loc	1 93 5 is_stmt 1                @ rt-thread/components/net/netdev/src/netdev.c:93:5
	b	.LBB0_11
.Ltmp16:
.LBB0_10:
	.loc	1 97 27                         @ rt-thread/components/net/netdev/src/netdev.c:97:27
	movw	r0, :lower16:netdev_list
	movt	r0, :upper16:netdev_list
	ldr	r0, [r0]
	.loc	1 97 49 is_stmt 0               @ rt-thread/components/net/netdev/src/netdev.c:97:49
	ldr	r1, [sp, #28]
	.loc	1 97 9                          @ rt-thread/components/net/netdev/src/netdev.c:97:9
	bl	rt_slist_append
	b	.LBB0_11
.Ltmp17:
.LBB0_11:
	.loc	1 100 28 is_stmt 1              @ rt-thread/components/net/netdev/src/netdev.c:100:28
	ldr	r0, [sp, #16]
	.loc	1 100 5 is_stmt 0               @ rt-thread/components/net/netdev/src/netdev.c:100:5
	bl	rt_hw_interrupt_enable
	movs	r0, #0
	.loc	1 102 5 is_stmt 1               @ rt-thread/components/net/netdev/src/netdev.c:102:5
	add	sp, #32
	pop	{r7, pc}
.Ltmp18:
.Lfunc_end0:
	.size	netdev_register, .Lfunc_end0-netdev_register
	.cfi_endproc
	.cantunwind
	.fnend
                                        @ -- End function
	.section	.text.rt_slist_init,"ax",%progbits
	.p2align	3                               @ -- Begin function rt_slist_init
	.type	rt_slist_init,%function
	.code	16                              @ @rt_slist_init
	.thumb_func
rt_slist_init:
.Lfunc_begin1:
	.file	11 "E:\\Smart-access-control\\Hardware\\CODE" "rt-thread/include\\rtservice.h"
	.loc	11 190 0                        @ rt-thread/include\rtservice.h:190:0
	.fnstart
	.cfi_startproc
@ %bb.0:
	.pad	#4
	sub	sp, #4
	.cfi_def_cfa_offset 4
	str	r0, [sp]
.Ltmp19:
	.loc	11 191 5 prologue_end           @ rt-thread/include\rtservice.h:191:5
	ldr	r1, [sp]
	movs	r0, #0
	.loc	11 191 13 is_stmt 0             @ rt-thread/include\rtservice.h:191:13
	str	r0, [r1]
	.loc	11 192 1 is_stmt 1              @ rt-thread/include\rtservice.h:192:1
	add	sp, #4
	bx	lr
.Ltmp20:
.Lfunc_end1:
	.size	rt_slist_init, .Lfunc_end1-rt_slist_init
	.cfi_endproc
	.cantunwind
	.fnend
                                        @ -- End function
	.section	.text.rt_slist_append,"ax",%progbits
	.p2align	3                               @ -- Begin function rt_slist_append
	.type	rt_slist_append,%function
	.code	16                              @ @rt_slist_append
	.thumb_func
rt_slist_append:
.Lfunc_begin2:
	.loc	11 195 0                        @ rt-thread/include\rtservice.h:195:0
	.fnstart
	.cfi_startproc
@ %bb.0:
	.pad	#12
	sub	sp, #12
	.cfi_def_cfa_offset 12
	str	r0, [sp, #8]
	str	r1, [sp, #4]
.Ltmp21:
	.loc	11 198 12 prologue_end          @ rt-thread/include\rtservice.h:198:12
	ldr	r0, [sp, #8]
	.loc	11 198 10 is_stmt 0             @ rt-thread/include\rtservice.h:198:10
	str	r0, [sp]
	.loc	11 199 5 is_stmt 1              @ rt-thread/include\rtservice.h:199:5
	b	.LBB2_1
.LBB2_1:                                @ =>This Inner Loop Header: Depth=1
	.loc	11 199 12 is_stmt 0             @ rt-thread/include\rtservice.h:199:12
	ldr	r0, [sp]
	.loc	11 199 18                       @ rt-thread/include\rtservice.h:199:18
	ldr	r0, [r0]
	.loc	11 199 5                        @ rt-thread/include\rtservice.h:199:5
	cbz	r0, .LBB2_3
	b	.LBB2_2
.LBB2_2:                                @   in Loop: Header=BB2_1 Depth=1
	.loc	11 199 31                       @ rt-thread/include\rtservice.h:199:31
	ldr	r0, [sp]
	.loc	11 199 37                       @ rt-thread/include\rtservice.h:199:37
	ldr	r0, [r0]
	.loc	11 199 29                       @ rt-thread/include\rtservice.h:199:29
	str	r0, [sp]
	.loc	11 199 5                        @ rt-thread/include\rtservice.h:199:5
	b	.LBB2_1
.LBB2_3:
	.loc	11 202 18 is_stmt 1             @ rt-thread/include\rtservice.h:202:18
	ldr	r0, [sp, #4]
	.loc	11 202 5 is_stmt 0              @ rt-thread/include\rtservice.h:202:5
	ldr	r1, [sp]
	.loc	11 202 16                       @ rt-thread/include\rtservice.h:202:16
	str	r0, [r1]
	.loc	11 203 5 is_stmt 1              @ rt-thread/include\rtservice.h:203:5
	ldr	r1, [sp, #4]
	movs	r0, #0
	.loc	11 203 13 is_stmt 0             @ rt-thread/include\rtservice.h:203:13
	str	r0, [r1]
	.loc	11 204 1 is_stmt 1              @ rt-thread/include\rtservice.h:204:1
	add	sp, #12
	bx	lr
.Ltmp22:
.Lfunc_end2:
	.size	rt_slist_append, .Lfunc_end2-rt_slist_append
	.cfi_endproc
	.cantunwind
	.fnend
                                        @ -- End function
	.section	.text.netdev_unregister,"ax",%progbits
	.hidden	netdev_unregister               @ -- Begin function netdev_unregister
	.globl	netdev_unregister
	.p2align	3
	.type	netdev_unregister,%function
	.code	16                              @ @netdev_unregister
	.thumb_func
netdev_unregister:
.Lfunc_begin3:
	.loc	1 115 0                         @ rt-thread/components/net/netdev/src/netdev.c:115:0
	.fnstart
	.cfi_startproc
@ %bb.0:
	.save	{r7, lr}
	push	{r7, lr}
	.cfi_def_cfa_offset 8
	.cfi_offset lr, -4
	.cfi_offset r7, -8
	.pad	#24
	sub	sp, #24
	.cfi_def_cfa_offset 32
	str	r0, [sp, #16]
	movs	r0, #0
.Ltmp23:
	.loc	1 117 17 prologue_end           @ rt-thread/components/net/netdev/src/netdev.c:117:17
	str	r0, [sp, #8]
	.loc	1 118 20                        @ rt-thread/components/net/netdev/src/netdev.c:118:20
	str	r0, [sp, #4]
.Ltmp24:
	.loc	1 120 5                         @ rt-thread/components/net/netdev/src/netdev.c:120:5
	ldr	r0, [sp, #16]
.Ltmp25:
	.loc	1 120 5 is_stmt 0               @ rt-thread/components/net/netdev/src/netdev.c:120:5
	cbnz	r0, .LBB3_2
	b	.LBB3_1
.LBB3_1:
.Ltmp26:
	.loc	1 120 5                         @ rt-thread/components/net/netdev/src/netdev.c:120:5
	movw	r0, :lower16:.L.str
	movt	r0, :upper16:.L.str
	movw	r1, :lower16:.L__FUNCTION__.netdev_unregister
	movt	r1, :upper16:.L__FUNCTION__.netdev_unregister
	movs	r2, #120
	bl	rt_assert_handler
	b	.LBB3_2
.Ltmp27:
.LBB3_2:
	.loc	1 122 9 is_stmt 1               @ rt-thread/components/net/netdev/src/netdev.c:122:9
	movw	r0, :lower16:netdev_list
	movt	r0, :upper16:netdev_list
	ldr	r0, [r0]
.Ltmp28:
	.loc	1 122 9 is_stmt 0               @ rt-thread/components/net/netdev/src/netdev.c:122:9
	cbnz	r0, .LBB3_4
	b	.LBB3_3
.LBB3_3:
	.loc	1 0 9                           @ rt-thread/components/net/netdev/src/netdev.c:0:9
	mov.w	r0, #-1
.Ltmp29:
	.loc	1 124 9 is_stmt 1               @ rt-thread/components/net/netdev/src/netdev.c:124:9
	str	r0, [sp, #20]
	b	.LBB3_19
.Ltmp30:
.LBB3_4:
	.loc	1 127 13                        @ rt-thread/components/net/netdev/src/netdev.c:127:13
	bl	rt_hw_interrupt_disable
	.loc	1 127 11 is_stmt 0              @ rt-thread/components/net/netdev/src/netdev.c:127:11
	str	r0, [sp, #12]
.Ltmp31:
	.loc	1 129 19 is_stmt 1              @ rt-thread/components/net/netdev/src/netdev.c:129:19
	movw	r0, :lower16:netdev_list
	movt	r0, :upper16:netdev_list
	ldr	r0, [r0]
	.loc	1 129 15 is_stmt 0              @ rt-thread/components/net/netdev/src/netdev.c:129:15
	str	r0, [sp, #8]
	.loc	1 129 10                        @ rt-thread/components/net/netdev/src/netdev.c:129:10
	b	.LBB3_5
.LBB3_5:                                @ =>This Inner Loop Header: Depth=1
.Ltmp32:
	.loc	1 129 39                        @ rt-thread/components/net/netdev/src/netdev.c:129:39
	ldr	r0, [sp, #8]
.Ltmp33:
	.loc	1 129 5                         @ rt-thread/components/net/netdev/src/netdev.c:129:5
	cmp	r0, #0
	beq	.LBB3_16
	b	.LBB3_6
.LBB3_6:                                @   in Loop: Header=BB3_5 Depth=1
.Ltmp34:
	.loc	1 131 22 is_stmt 1              @ rt-thread/components/net/netdev/src/netdev.c:131:22
	ldr	r0, [sp, #8]
	.loc	1 131 20 is_stmt 0              @ rt-thread/components/net/netdev/src/netdev.c:131:20
	str	r0, [sp, #4]
.Ltmp35:
	.loc	1 132 13 is_stmt 1              @ rt-thread/components/net/netdev/src/netdev.c:132:13
	ldr	r0, [sp, #4]
	.loc	1 132 27 is_stmt 0              @ rt-thread/components/net/netdev/src/netdev.c:132:27
	ldr	r1, [sp, #16]
.Ltmp36:
	.loc	1 132 13                        @ rt-thread/components/net/netdev/src/netdev.c:132:13
	cmp	r0, r1
	bne	.LBB3_14
	b	.LBB3_7
.LBB3_7:
.Ltmp37:
	.loc	1 135 17 is_stmt 1              @ rt-thread/components/net/netdev/src/netdev.c:135:17
	movw	r0, :lower16:netdev_list
	movt	r0, :upper16:netdev_list
	ldr	r0, [r0]
	.loc	1 135 32 is_stmt 0              @ rt-thread/components/net/netdev/src/netdev.c:135:32
	ldr	r1, [sp, #16]
	.loc	1 135 39                        @ rt-thread/components/net/netdev/src/netdev.c:135:39
	cmp	r0, r1
	bne	.LBB3_10
	b	.LBB3_8
.LBB3_8:
	.loc	1 135 57                        @ rt-thread/components/net/netdev/src/netdev.c:135:57
	movw	r0, :lower16:netdev_list
	movt	r0, :upper16:netdev_list
	ldr	r0, [r0]
	.loc	1 135 42                        @ rt-thread/components/net/netdev/src/netdev.c:135:42
	bl	rt_slist_next
.Ltmp38:
	.loc	1 135 17                        @ rt-thread/components/net/netdev/src/netdev.c:135:17
	cbnz	r0, .LBB3_10
	b	.LBB3_9
.LBB3_9:
.Ltmp39:
	.loc	1 137 29 is_stmt 1              @ rt-thread/components/net/netdev/src/netdev.c:137:29
	movw	r1, :lower16:netdev_list
	movt	r1, :upper16:netdev_list
	movs	r0, #0
	str	r0, [r1]
	.loc	1 138 13                        @ rt-thread/components/net/netdev/src/netdev.c:138:13
	b	.LBB3_11
.Ltmp40:
.LBB3_10:
	.loc	1 141 35                        @ rt-thread/components/net/netdev/src/netdev.c:141:35
	movw	r0, :lower16:netdev_list
	movt	r0, :upper16:netdev_list
	ldr	r0, [r0]
	.loc	1 141 57 is_stmt 0              @ rt-thread/components/net/netdev/src/netdev.c:141:57
	ldr	r1, [sp, #4]
	.loc	1 141 17                        @ rt-thread/components/net/netdev/src/netdev.c:141:17
	bl	rt_slist_remove
	b	.LBB3_11
.Ltmp41:
.LBB3_11:
	.loc	1 143 17 is_stmt 1              @ rt-thread/components/net/netdev/src/netdev.c:143:17
	movw	r0, :lower16:netdev_default
	movt	r0, :upper16:netdev_default
	ldr	r0, [r0]
	.loc	1 143 35 is_stmt 0              @ rt-thread/components/net/netdev/src/netdev.c:143:35
	ldr	r1, [sp, #16]
.Ltmp42:
	.loc	1 143 17                        @ rt-thread/components/net/netdev/src/netdev.c:143:17
	cmp	r0, r1
	bne	.LBB3_13
	b	.LBB3_12
.LBB3_12:
.Ltmp43:
	.loc	1 145 34 is_stmt 1              @ rt-thread/components/net/netdev/src/netdev.c:145:34
	movw	r0, :lower16:netdev_list
	movt	r0, :upper16:netdev_list
	ldr	r0, [r0]
	.loc	1 145 32 is_stmt 0              @ rt-thread/components/net/netdev/src/netdev.c:145:32
	movw	r1, :lower16:netdev_default
	movt	r1, :upper16:netdev_default
	str	r0, [r1]
	.loc	1 146 13 is_stmt 1              @ rt-thread/components/net/netdev/src/netdev.c:146:13
	b	.LBB3_13
.Ltmp44:
.LBB3_13:
	.loc	1 147 13                        @ rt-thread/components/net/netdev/src/netdev.c:147:13
	b	.LBB3_16
.Ltmp45:
.LBB3_14:                               @   in Loop: Header=BB3_5 Depth=1
	.loc	1 149 5                         @ rt-thread/components/net/netdev/src/netdev.c:149:5
	b	.LBB3_15
.Ltmp46:
.LBB3_15:                               @   in Loop: Header=BB3_5 Depth=1
	.loc	1 129 66                        @ rt-thread/components/net/netdev/src/netdev.c:129:66
	ldr	r0, [sp, #8]
	.loc	1 129 52 is_stmt 0              @ rt-thread/components/net/netdev/src/netdev.c:129:52
	bl	rt_slist_next
	.loc	1 129 50                        @ rt-thread/components/net/netdev/src/netdev.c:129:50
	str	r0, [sp, #8]
	.loc	1 129 5                         @ rt-thread/components/net/netdev/src/netdev.c:129:5
	b	.LBB3_5
.Ltmp47:
.LBB3_16:
	.loc	1 150 28 is_stmt 1              @ rt-thread/components/net/netdev/src/netdev.c:150:28
	ldr	r0, [sp, #12]
	.loc	1 150 5 is_stmt 0               @ rt-thread/components/net/netdev/src/netdev.c:150:5
	bl	rt_hw_interrupt_enable
.Ltmp48:
	.loc	1 152 9 is_stmt 1               @ rt-thread/components/net/netdev/src/netdev.c:152:9
	ldr	r0, [sp, #4]
	.loc	1 152 23 is_stmt 0              @ rt-thread/components/net/netdev/src/netdev.c:152:23
	ldr	r1, [sp, #16]
.Ltmp49:
	.loc	1 152 9                         @ rt-thread/components/net/netdev/src/netdev.c:152:9
	cmp	r0, r1
	bne	.LBB3_18
	b	.LBB3_17
.LBB3_17:
.Ltmp50:
	.loc	1 156 28 is_stmt 1              @ rt-thread/components/net/netdev/src/netdev.c:156:28
	ldr	r0, [sp, #16]
	.loc	1 156 9 is_stmt 0               @ rt-thread/components/net/netdev/src/netdev.c:156:9
	bl	sal_netdev_cleanup
	.loc	1 158 19 is_stmt 1              @ rt-thread/components/net/netdev/src/netdev.c:158:19
	ldr	r0, [sp, #16]
	movs	r1, #0
	movs	r2, #68
	.loc	1 158 9 is_stmt 0               @ rt-thread/components/net/netdev/src/netdev.c:158:9
	bl	rt_memset
	.loc	1 159 5 is_stmt 1               @ rt-thread/components/net/netdev/src/netdev.c:159:5
	b	.LBB3_18
.Ltmp51:
.LBB3_18:
	.loc	1 0 5 is_stmt 0                 @ rt-thread/components/net/netdev/src/netdev.c:0:5
	mov.w	r0, #-1
	.loc	1 161 5 is_stmt 1               @ rt-thread/components/net/netdev/src/netdev.c:161:5
	str	r0, [sp, #20]
	b	.LBB3_19
.LBB3_19:
	.loc	1 162 1                         @ rt-thread/components/net/netdev/src/netdev.c:162:1
	ldr	r0, [sp, #20]
	add	sp, #24
	pop	{r7, pc}
.Ltmp52:
.Lfunc_end3:
	.size	netdev_unregister, .Lfunc_end3-netdev_unregister
	.cfi_endproc
	.cantunwind
	.fnend
                                        @ -- End function
	.section	.text.rt_slist_next,"ax",%progbits
	.p2align	3                               @ -- Begin function rt_slist_next
	.type	rt_slist_next,%function
	.code	16                              @ @rt_slist_next
	.thumb_func
rt_slist_next:
.Lfunc_begin4:
	.loc	11 250 0                        @ rt-thread/include\rtservice.h:250:0
	.fnstart
	.cfi_startproc
@ %bb.0:
	.pad	#4
	sub	sp, #4
	.cfi_def_cfa_offset 4
	str	r0, [sp]
.Ltmp53:
	.loc	11 251 12 prologue_end          @ rt-thread/include\rtservice.h:251:12
	ldr	r0, [sp]
	.loc	11 251 15 is_stmt 0             @ rt-thread/include\rtservice.h:251:15
	ldr	r0, [r0]
	.loc	11 251 5                        @ rt-thread/include\rtservice.h:251:5
	add	sp, #4
	bx	lr
.Ltmp54:
.Lfunc_end4:
	.size	rt_slist_next, .Lfunc_end4-rt_slist_next
	.cfi_endproc
	.cantunwind
	.fnend
                                        @ -- End function
	.section	.text.rt_slist_remove,"ax",%progbits
	.p2align	3                               @ -- Begin function rt_slist_remove
	.type	rt_slist_remove,%function
	.code	16                              @ @rt_slist_remove
	.thumb_func
rt_slist_remove:
.Lfunc_begin5:
	.loc	11 226 0 is_stmt 1              @ rt-thread/include\rtservice.h:226:0
	.fnstart
	.cfi_startproc
@ %bb.0:
	.pad	#16
	sub	sp, #16
	.cfi_def_cfa_offset 16
	str	r0, [sp, #12]
	str	r1, [sp, #8]
.Ltmp55:
	.loc	11 228 34 prologue_end          @ rt-thread/include\rtservice.h:228:34
	ldr	r0, [sp, #12]
	.loc	11 228 27 is_stmt 0             @ rt-thread/include\rtservice.h:228:27
	str	r0, [sp, #4]
	.loc	11 229 5 is_stmt 1              @ rt-thread/include\rtservice.h:229:5
	b	.LBB5_1
.LBB5_1:                                @ =>This Inner Loop Header: Depth=1
	.loc	11 229 12 is_stmt 0             @ rt-thread/include\rtservice.h:229:12
	ldr	r0, [sp, #4]
	.loc	11 229 18                       @ rt-thread/include\rtservice.h:229:18
	ldr	r1, [r0]
	movs	r0, #0
	.loc	11 229 23                       @ rt-thread/include\rtservice.h:229:23
	str	r0, [sp]                        @ 4-byte Spill
	cbz	r1, .LBB5_3
	b	.LBB5_2
.LBB5_2:                                @   in Loop: Header=BB5_1 Depth=1
	.loc	11 229 26                       @ rt-thread/include\rtservice.h:229:26
	ldr	r0, [sp, #4]
	.loc	11 229 32                       @ rt-thread/include\rtservice.h:229:32
	ldr	r0, [r0]
	.loc	11 229 40                       @ rt-thread/include\rtservice.h:229:40
	ldr	r1, [sp, #8]
	.loc	11 229 37                       @ rt-thread/include\rtservice.h:229:37
	subs	r0, r0, r1
	it	ne
	movne	r0, #1
	str	r0, [sp]                        @ 4-byte Spill
	b	.LBB5_3
.LBB5_3:                                @   in Loop: Header=BB5_1 Depth=1
	.loc	11 0 0                          @ rt-thread/include\rtservice.h:0:0
	ldr	r0, [sp]                        @ 4-byte Reload
	.loc	11 229 5                        @ rt-thread/include\rtservice.h:229:5
	lsls	r0, r0, #31
	cbz	r0, .LBB5_5
	b	.LBB5_4
.LBB5_4:                                @   in Loop: Header=BB5_1 Depth=1
	.loc	11 229 50                       @ rt-thread/include\rtservice.h:229:50
	ldr	r0, [sp, #4]
	.loc	11 229 56                       @ rt-thread/include\rtservice.h:229:56
	ldr	r0, [r0]
	.loc	11 229 48                       @ rt-thread/include\rtservice.h:229:48
	str	r0, [sp, #4]
	.loc	11 229 5                        @ rt-thread/include\rtservice.h:229:5
	b	.LBB5_1
.LBB5_5:
.Ltmp56:
	.loc	11 232 9 is_stmt 1              @ rt-thread/include\rtservice.h:232:9
	ldr	r0, [sp, #4]
	.loc	11 232 15 is_stmt 0             @ rt-thread/include\rtservice.h:232:15
	ldr	r0, [r0]
.Ltmp57:
	.loc	11 232 9                        @ rt-thread/include\rtservice.h:232:9
	cbz	r0, .LBB5_7
	b	.LBB5_6
.LBB5_6:
.Ltmp58:
	.loc	11 232 53                       @ rt-thread/include\rtservice.h:232:53
	ldr	r1, [sp, #4]
	.loc	11 232 59                       @ rt-thread/include\rtservice.h:232:59
	ldr	r0, [r1]
	.loc	11 232 65                       @ rt-thread/include\rtservice.h:232:65
	ldr	r0, [r0]
	.loc	11 232 51                       @ rt-thread/include\rtservice.h:232:51
	str	r0, [r1]
	.loc	11 232 40                       @ rt-thread/include\rtservice.h:232:40
	b	.LBB5_7
.Ltmp59:
.LBB5_7:
	.loc	11 234 12 is_stmt 1             @ rt-thread/include\rtservice.h:234:12
	ldr	r0, [sp, #12]
	.loc	11 234 5 is_stmt 0              @ rt-thread/include\rtservice.h:234:5
	add	sp, #16
	bx	lr
.Ltmp60:
.Lfunc_end5:
	.size	rt_slist_remove, .Lfunc_end5-rt_slist_remove
	.cfi_endproc
	.cantunwind
	.fnend
                                        @ -- End function
	.section	.text.netdev_get_first_by_flags,"ax",%progbits
	.hidden	netdev_get_first_by_flags       @ -- Begin function netdev_get_first_by_flags
	.globl	netdev_get_first_by_flags
	.p2align	3
	.type	netdev_get_first_by_flags,%function
	.code	16                              @ @netdev_get_first_by_flags
	.thumb_func
netdev_get_first_by_flags:
.Lfunc_begin6:
	.loc	1 174 0 is_stmt 1               @ rt-thread/components/net/netdev/src/netdev.c:174:0
	.fnstart
	.cfi_startproc
@ %bb.0:
	.save	{r7, lr}
	push	{r7, lr}
	.cfi_def_cfa_offset 8
	.cfi_offset lr, -4
	.cfi_offset r7, -8
	.pad	#24
	sub	sp, #24
	.cfi_def_cfa_offset 32
                                        @ kill: def $r1 killed $r0
	strh.w	r0, [sp, #18]
	movs	r0, #0
.Ltmp61:
	.loc	1 176 17 prologue_end           @ rt-thread/components/net/netdev/src/netdev.c:176:17
	str	r0, [sp, #8]
	.loc	1 177 20                        @ rt-thread/components/net/netdev/src/netdev.c:177:20
	str	r0, [sp, #4]
.Ltmp62:
	.loc	1 179 9                         @ rt-thread/components/net/netdev/src/netdev.c:179:9
	movw	r0, :lower16:netdev_list
	movt	r0, :upper16:netdev_list
	ldr	r0, [r0]
.Ltmp63:
	.loc	1 179 9 is_stmt 0               @ rt-thread/components/net/netdev/src/netdev.c:179:9
	cbnz	r0, .LBB6_2
	b	.LBB6_1
.LBB6_1:
	.loc	1 0 9                           @ rt-thread/components/net/netdev/src/netdev.c:0:9
	movs	r0, #0
.Ltmp64:
	.loc	1 181 9 is_stmt 1               @ rt-thread/components/net/netdev/src/netdev.c:181:9
	str	r0, [sp, #20]
	b	.LBB6_10
.Ltmp65:
.LBB6_2:
	.loc	1 184 13                        @ rt-thread/components/net/netdev/src/netdev.c:184:13
	bl	rt_hw_interrupt_disable
	.loc	1 184 11 is_stmt 0              @ rt-thread/components/net/netdev/src/netdev.c:184:11
	str	r0, [sp, #12]
.Ltmp66:
	.loc	1 186 19 is_stmt 1              @ rt-thread/components/net/netdev/src/netdev.c:186:19
	movw	r0, :lower16:netdev_list
	movt	r0, :upper16:netdev_list
	ldr	r0, [r0]
	.loc	1 186 15 is_stmt 0              @ rt-thread/components/net/netdev/src/netdev.c:186:15
	str	r0, [sp, #8]
	.loc	1 186 10                        @ rt-thread/components/net/netdev/src/netdev.c:186:10
	b	.LBB6_3
.LBB6_3:                                @ =>This Inner Loop Header: Depth=1
.Ltmp67:
	.loc	1 186 39                        @ rt-thread/components/net/netdev/src/netdev.c:186:39
	ldr	r0, [sp, #8]
.Ltmp68:
	.loc	1 186 5                         @ rt-thread/components/net/netdev/src/netdev.c:186:5
	cbz	r0, .LBB6_9
	b	.LBB6_4
.LBB6_4:                                @   in Loop: Header=BB6_3 Depth=1
.Ltmp69:
	.loc	1 188 18 is_stmt 1              @ rt-thread/components/net/netdev/src/netdev.c:188:18
	ldr	r0, [sp, #8]
	.loc	1 188 16 is_stmt 0              @ rt-thread/components/net/netdev/src/netdev.c:188:16
	str	r0, [sp, #4]
.Ltmp70:
	.loc	1 189 13 is_stmt 1              @ rt-thread/components/net/netdev/src/netdev.c:189:13
	ldr	r0, [sp, #4]
	.loc	1 189 20 is_stmt 0              @ rt-thread/components/net/netdev/src/netdev.c:189:20
	cbz	r0, .LBB6_7
	b	.LBB6_5
.LBB6_5:                                @   in Loop: Header=BB6_3 Depth=1
	.loc	1 189 24                        @ rt-thread/components/net/netdev/src/netdev.c:189:24
	ldr	r0, [sp, #4]
	.loc	1 189 32                        @ rt-thread/components/net/netdev/src/netdev.c:189:32
	ldrh	r0, [r0, #42]
	.loc	1 189 40                        @ rt-thread/components/net/netdev/src/netdev.c:189:40
	ldrh.w	r1, [sp, #18]
.Ltmp71:
	.loc	1 189 13                        @ rt-thread/components/net/netdev/src/netdev.c:189:13
	tst	r0, r1
	beq	.LBB6_7
	b	.LBB6_6
.LBB6_6:
.Ltmp72:
	.loc	1 191 36 is_stmt 1              @ rt-thread/components/net/netdev/src/netdev.c:191:36
	ldr	r0, [sp, #12]
	.loc	1 191 13 is_stmt 0              @ rt-thread/components/net/netdev/src/netdev.c:191:13
	bl	rt_hw_interrupt_enable
	.loc	1 192 20 is_stmt 1              @ rt-thread/components/net/netdev/src/netdev.c:192:20
	ldr	r0, [sp, #4]
	.loc	1 192 13 is_stmt 0              @ rt-thread/components/net/netdev/src/netdev.c:192:13
	str	r0, [sp, #20]
	b	.LBB6_10
.Ltmp73:
.LBB6_7:                                @   in Loop: Header=BB6_3 Depth=1
	.loc	1 194 5 is_stmt 1               @ rt-thread/components/net/netdev/src/netdev.c:194:5
	b	.LBB6_8
.Ltmp74:
.LBB6_8:                                @   in Loop: Header=BB6_3 Depth=1
	.loc	1 186 66                        @ rt-thread/components/net/netdev/src/netdev.c:186:66
	ldr	r0, [sp, #8]
	.loc	1 186 52 is_stmt 0              @ rt-thread/components/net/netdev/src/netdev.c:186:52
	bl	rt_slist_next
	.loc	1 186 50                        @ rt-thread/components/net/netdev/src/netdev.c:186:50
	str	r0, [sp, #8]
	.loc	1 186 5                         @ rt-thread/components/net/netdev/src/netdev.c:186:5
	b	.LBB6_3
.Ltmp75:
.LBB6_9:
	.loc	1 196 28 is_stmt 1              @ rt-thread/components/net/netdev/src/netdev.c:196:28
	ldr	r0, [sp, #12]
	.loc	1 196 5 is_stmt 0               @ rt-thread/components/net/netdev/src/netdev.c:196:5
	bl	rt_hw_interrupt_enable
	movs	r0, #0
	.loc	1 198 5 is_stmt 1               @ rt-thread/components/net/netdev/src/netdev.c:198:5
	str	r0, [sp, #20]
	b	.LBB6_10
.LBB6_10:
	.loc	1 199 1                         @ rt-thread/components/net/netdev/src/netdev.c:199:1
	ldr	r0, [sp, #20]
	add	sp, #24
	pop	{r7, pc}
.Ltmp76:
.Lfunc_end6:
	.size	netdev_get_first_by_flags, .Lfunc_end6-netdev_get_first_by_flags
	.cfi_endproc
	.cantunwind
	.fnend
                                        @ -- End function
	.section	.text.netdev_get_by_ipaddr,"ax",%progbits
	.hidden	netdev_get_by_ipaddr            @ -- Begin function netdev_get_by_ipaddr
	.globl	netdev_get_by_ipaddr
	.p2align	3
	.type	netdev_get_by_ipaddr,%function
	.code	16                              @ @netdev_get_by_ipaddr
	.thumb_func
netdev_get_by_ipaddr:
.Lfunc_begin7:
	.loc	1 211 0                         @ rt-thread/components/net/netdev/src/netdev.c:211:0
	.fnstart
	.cfi_startproc
@ %bb.0:
	.save	{r7, lr}
	push	{r7, lr}
	.cfi_def_cfa_offset 8
	.cfi_offset lr, -4
	.cfi_offset r7, -8
	.pad	#24
	sub	sp, #24
	.cfi_def_cfa_offset 32
	str	r0, [sp, #16]
	movs	r0, #0
.Ltmp77:
	.loc	1 213 17 prologue_end           @ rt-thread/components/net/netdev/src/netdev.c:213:17
	str	r0, [sp, #8]
	.loc	1 214 20                        @ rt-thread/components/net/netdev/src/netdev.c:214:20
	str	r0, [sp, #4]
.Ltmp78:
	.loc	1 216 9                         @ rt-thread/components/net/netdev/src/netdev.c:216:9
	movw	r0, :lower16:netdev_list
	movt	r0, :upper16:netdev_list
	ldr	r0, [r0]
.Ltmp79:
	.loc	1 216 9 is_stmt 0               @ rt-thread/components/net/netdev/src/netdev.c:216:9
	cbnz	r0, .LBB7_2
	b	.LBB7_1
.LBB7_1:
	.loc	1 0 9                           @ rt-thread/components/net/netdev/src/netdev.c:0:9
	movs	r0, #0
.Ltmp80:
	.loc	1 218 9 is_stmt 1               @ rt-thread/components/net/netdev/src/netdev.c:218:9
	str	r0, [sp, #20]
	b	.LBB7_10
.Ltmp81:
.LBB7_2:
	.loc	1 221 13                        @ rt-thread/components/net/netdev/src/netdev.c:221:13
	bl	rt_hw_interrupt_disable
	.loc	1 221 11 is_stmt 0              @ rt-thread/components/net/netdev/src/netdev.c:221:11
	str	r0, [sp, #12]
.Ltmp82:
	.loc	1 223 19 is_stmt 1              @ rt-thread/components/net/netdev/src/netdev.c:223:19
	movw	r0, :lower16:netdev_list
	movt	r0, :upper16:netdev_list
	ldr	r0, [r0]
	.loc	1 223 15 is_stmt 0              @ rt-thread/components/net/netdev/src/netdev.c:223:15
	str	r0, [sp, #8]
	.loc	1 223 10                        @ rt-thread/components/net/netdev/src/netdev.c:223:10
	b	.LBB7_3
.LBB7_3:                                @ =>This Inner Loop Header: Depth=1
.Ltmp83:
	.loc	1 223 39                        @ rt-thread/components/net/netdev/src/netdev.c:223:39
	ldr	r0, [sp, #8]
.Ltmp84:
	.loc	1 223 5                         @ rt-thread/components/net/netdev/src/netdev.c:223:5
	cbz	r0, .LBB7_9
	b	.LBB7_4
.LBB7_4:                                @   in Loop: Header=BB7_3 Depth=1
.Ltmp85:
	.loc	1 225 18 is_stmt 1              @ rt-thread/components/net/netdev/src/netdev.c:225:18
	ldr	r0, [sp, #8]
	.loc	1 225 16 is_stmt 0              @ rt-thread/components/net/netdev/src/netdev.c:225:16
	str	r0, [sp, #4]
.Ltmp86:
	.loc	1 226 13 is_stmt 1              @ rt-thread/components/net/netdev/src/netdev.c:226:13
	ldr	r0, [sp, #4]
	.loc	1 226 20 is_stmt 0              @ rt-thread/components/net/netdev/src/netdev.c:226:20
	cbz	r0, .LBB7_7
	b	.LBB7_5
.LBB7_5:                                @   in Loop: Header=BB7_3 Depth=1
	.loc	1 226 23                        @ rt-thread/components/net/netdev/src/netdev.c:226:23
	ldr	r0, [sp, #4]
	ldr	r0, [r0, #12]
	ldr	r1, [sp, #16]
	ldr	r1, [r1]
.Ltmp87:
	.loc	1 226 13                        @ rt-thread/components/net/netdev/src/netdev.c:226:13
	cmp	r0, r1
	bne	.LBB7_7
	b	.LBB7_6
.LBB7_6:
.Ltmp88:
	.loc	1 228 36 is_stmt 1              @ rt-thread/components/net/netdev/src/netdev.c:228:36
	ldr	r0, [sp, #12]
	.loc	1 228 13 is_stmt 0              @ rt-thread/components/net/netdev/src/netdev.c:228:13
	bl	rt_hw_interrupt_enable
	.loc	1 229 20 is_stmt 1              @ rt-thread/components/net/netdev/src/netdev.c:229:20
	ldr	r0, [sp, #4]
	.loc	1 229 13 is_stmt 0              @ rt-thread/components/net/netdev/src/netdev.c:229:13
	str	r0, [sp, #20]
	b	.LBB7_10
.Ltmp89:
.LBB7_7:                                @   in Loop: Header=BB7_3 Depth=1
	.loc	1 231 5 is_stmt 1               @ rt-thread/components/net/netdev/src/netdev.c:231:5
	b	.LBB7_8
.Ltmp90:
.LBB7_8:                                @   in Loop: Header=BB7_3 Depth=1
	.loc	1 223 66                        @ rt-thread/components/net/netdev/src/netdev.c:223:66
	ldr	r0, [sp, #8]
	.loc	1 223 52 is_stmt 0              @ rt-thread/components/net/netdev/src/netdev.c:223:52
	bl	rt_slist_next
	.loc	1 223 50                        @ rt-thread/components/net/netdev/src/netdev.c:223:50
	str	r0, [sp, #8]
	.loc	1 223 5                         @ rt-thread/components/net/netdev/src/netdev.c:223:5
	b	.LBB7_3
.Ltmp91:
.LBB7_9:
	.loc	1 233 28 is_stmt 1              @ rt-thread/components/net/netdev/src/netdev.c:233:28
	ldr	r0, [sp, #12]
	.loc	1 233 5 is_stmt 0               @ rt-thread/components/net/netdev/src/netdev.c:233:5
	bl	rt_hw_interrupt_enable
	movs	r0, #0
	.loc	1 235 5 is_stmt 1               @ rt-thread/components/net/netdev/src/netdev.c:235:5
	str	r0, [sp, #20]
	b	.LBB7_10
.LBB7_10:
	.loc	1 236 1                         @ rt-thread/components/net/netdev/src/netdev.c:236:1
	ldr	r0, [sp, #20]
	add	sp, #24
	pop	{r7, pc}
.Ltmp92:
.Lfunc_end7:
	.size	netdev_get_by_ipaddr, .Lfunc_end7-netdev_get_by_ipaddr
	.cfi_endproc
	.cantunwind
	.fnend
                                        @ -- End function
	.section	.text.netdev_get_by_name,"ax",%progbits
	.hidden	netdev_get_by_name              @ -- Begin function netdev_get_by_name
	.globl	netdev_get_by_name
	.p2align	3
	.type	netdev_get_by_name,%function
	.code	16                              @ @netdev_get_by_name
	.thumb_func
netdev_get_by_name:
.Lfunc_begin8:
	.loc	1 248 0                         @ rt-thread/components/net/netdev/src/netdev.c:248:0
	.fnstart
	.cfi_startproc
@ %bb.0:
	.save	{r7, lr}
	push	{r7, lr}
	.cfi_def_cfa_offset 8
	.cfi_offset lr, -4
	.cfi_offset r7, -8
	.pad	#32
	sub	sp, #32
	.cfi_def_cfa_offset 40
	str	r0, [sp, #24]
	movs	r0, #0
.Ltmp93:
	.loc	1 250 17 prologue_end           @ rt-thread/components/net/netdev/src/netdev.c:250:17
	str	r0, [sp, #16]
	.loc	1 251 20                        @ rt-thread/components/net/netdev/src/netdev.c:251:20
	str	r0, [sp, #12]
.Ltmp94:
	.loc	1 253 9                         @ rt-thread/components/net/netdev/src/netdev.c:253:9
	movw	r0, :lower16:netdev_list
	movt	r0, :upper16:netdev_list
	ldr	r0, [r0]
.Ltmp95:
	.loc	1 253 9 is_stmt 0               @ rt-thread/components/net/netdev/src/netdev.c:253:9
	cbnz	r0, .LBB8_2
	b	.LBB8_1
.LBB8_1:
	.loc	1 0 9                           @ rt-thread/components/net/netdev/src/netdev.c:0:9
	movs	r0, #0
.Ltmp96:
	.loc	1 255 9 is_stmt 1               @ rt-thread/components/net/netdev/src/netdev.c:255:9
	str	r0, [sp, #28]
	b	.LBB8_10
.Ltmp97:
.LBB8_2:
	.loc	1 258 13                        @ rt-thread/components/net/netdev/src/netdev.c:258:13
	bl	rt_hw_interrupt_disable
	.loc	1 258 11 is_stmt 0              @ rt-thread/components/net/netdev/src/netdev.c:258:11
	str	r0, [sp, #20]
.Ltmp98:
	.loc	1 260 19 is_stmt 1              @ rt-thread/components/net/netdev/src/netdev.c:260:19
	movw	r0, :lower16:netdev_list
	movt	r0, :upper16:netdev_list
	ldr	r0, [r0]
	.loc	1 260 15 is_stmt 0              @ rt-thread/components/net/netdev/src/netdev.c:260:15
	str	r0, [sp, #16]
	.loc	1 260 10                        @ rt-thread/components/net/netdev/src/netdev.c:260:10
	b	.LBB8_3
.LBB8_3:                                @ =>This Inner Loop Header: Depth=1
.Ltmp99:
	.loc	1 260 39                        @ rt-thread/components/net/netdev/src/netdev.c:260:39
	ldr	r0, [sp, #16]
.Ltmp100:
	.loc	1 260 5                         @ rt-thread/components/net/netdev/src/netdev.c:260:5
	cbz	r0, .LBB8_9
	b	.LBB8_4
.LBB8_4:                                @   in Loop: Header=BB8_3 Depth=1
.Ltmp101:
	.loc	1 262 18 is_stmt 1              @ rt-thread/components/net/netdev/src/netdev.c:262:18
	ldr	r0, [sp, #16]
	.loc	1 262 16 is_stmt 0              @ rt-thread/components/net/netdev/src/netdev.c:262:16
	str	r0, [sp, #12]
.Ltmp102:
	.loc	1 263 13 is_stmt 1              @ rt-thread/components/net/netdev/src/netdev.c:263:13
	ldr	r0, [sp, #12]
	.loc	1 263 20 is_stmt 0              @ rt-thread/components/net/netdev/src/netdev.c:263:20
	cbz	r0, .LBB8_7
	b	.LBB8_5
.LBB8_5:                                @   in Loop: Header=BB8_3 Depth=1
	.loc	1 263 35                        @ rt-thread/components/net/netdev/src/netdev.c:263:35
	ldr	r0, [sp, #12]
	.loc	1 263 43                        @ rt-thread/components/net/netdev/src/netdev.c:263:43
	adds	r0, #4
	.loc	1 263 49                        @ rt-thread/components/net/netdev/src/netdev.c:263:49
	str	r0, [sp, #8]                    @ 4-byte Spill
	ldr	r1, [sp, #24]
	.loc	1 263 55                        @ rt-thread/components/net/netdev/src/netdev.c:263:55
	str	r1, [sp, #4]                    @ 4-byte Spill
	bl	rt_strlen
	ldr	r1, [sp, #4]                    @ 4-byte Reload
	mov	r2, r0
	.loc	1 263 24                        @ rt-thread/components/net/netdev/src/netdev.c:263:24
	ldr	r0, [sp, #8]                    @ 4-byte Reload
	bl	rt_strncmp
.Ltmp103:
	.loc	1 263 13                        @ rt-thread/components/net/netdev/src/netdev.c:263:13
	cbnz	r0, .LBB8_7
	b	.LBB8_6
.LBB8_6:
.Ltmp104:
	.loc	1 265 36 is_stmt 1              @ rt-thread/components/net/netdev/src/netdev.c:265:36
	ldr	r0, [sp, #20]
	.loc	1 265 13 is_stmt 0              @ rt-thread/components/net/netdev/src/netdev.c:265:13
	bl	rt_hw_interrupt_enable
	.loc	1 266 20 is_stmt 1              @ rt-thread/components/net/netdev/src/netdev.c:266:20
	ldr	r0, [sp, #12]
	.loc	1 266 13 is_stmt 0              @ rt-thread/components/net/netdev/src/netdev.c:266:13
	str	r0, [sp, #28]
	b	.LBB8_10
.Ltmp105:
.LBB8_7:                                @   in Loop: Header=BB8_3 Depth=1
	.loc	1 268 5 is_stmt 1               @ rt-thread/components/net/netdev/src/netdev.c:268:5
	b	.LBB8_8
.Ltmp106:
.LBB8_8:                                @   in Loop: Header=BB8_3 Depth=1
	.loc	1 260 66                        @ rt-thread/components/net/netdev/src/netdev.c:260:66
	ldr	r0, [sp, #16]
	.loc	1 260 52 is_stmt 0              @ rt-thread/components/net/netdev/src/netdev.c:260:52
	bl	rt_slist_next
	.loc	1 260 50                        @ rt-thread/components/net/netdev/src/netdev.c:260:50
	str	r0, [sp, #16]
	.loc	1 260 5                         @ rt-thread/components/net/netdev/src/netdev.c:260:5
	b	.LBB8_3
.Ltmp107:
.LBB8_9:
	.loc	1 270 28 is_stmt 1              @ rt-thread/components/net/netdev/src/netdev.c:270:28
	ldr	r0, [sp, #20]
	.loc	1 270 5 is_stmt 0               @ rt-thread/components/net/netdev/src/netdev.c:270:5
	bl	rt_hw_interrupt_enable
	movs	r0, #0
	.loc	1 272 5 is_stmt 1               @ rt-thread/components/net/netdev/src/netdev.c:272:5
	str	r0, [sp, #28]
	b	.LBB8_10
.LBB8_10:
	.loc	1 273 1                         @ rt-thread/components/net/netdev/src/netdev.c:273:1
	ldr	r0, [sp, #28]
	add	sp, #32
	pop	{r7, pc}
.Ltmp108:
.Lfunc_end8:
	.size	netdev_get_by_name, .Lfunc_end8-netdev_get_by_name
	.cfi_endproc
	.cantunwind
	.fnend
                                        @ -- End function
	.section	.text.netdev_get_by_family,"ax",%progbits
	.hidden	netdev_get_by_family            @ -- Begin function netdev_get_by_family
	.globl	netdev_get_by_family
	.p2align	3
	.type	netdev_get_by_family,%function
	.code	16                              @ @netdev_get_by_family
	.thumb_func
netdev_get_by_family:
.Lfunc_begin9:
	.loc	1 286 0                         @ rt-thread/components/net/netdev/src/netdev.c:286:0
	.fnstart
	.cfi_startproc
@ %bb.0:
	.save	{r7, lr}
	push	{r7, lr}
	.cfi_def_cfa_offset 8
	.cfi_offset lr, -4
	.cfi_offset r7, -8
	.pad	#24
	sub	sp, #24
	.cfi_def_cfa_offset 32
	str	r0, [sp, #16]
	movs	r0, #0
.Ltmp109:
	.loc	1 288 17 prologue_end           @ rt-thread/components/net/netdev/src/netdev.c:288:17
	str	r0, [sp, #8]
	.loc	1 289 20                        @ rt-thread/components/net/netdev/src/netdev.c:289:20
	str	r0, [sp, #4]
	.loc	1 290 30                        @ rt-thread/components/net/netdev/src/netdev.c:290:30
	str	r0, [sp]
.Ltmp110:
	.loc	1 292 9                         @ rt-thread/components/net/netdev/src/netdev.c:292:9
	movw	r0, :lower16:netdev_list
	movt	r0, :upper16:netdev_list
	ldr	r0, [r0]
.Ltmp111:
	.loc	1 292 9 is_stmt 0               @ rt-thread/components/net/netdev/src/netdev.c:292:9
	cbnz	r0, .LBB9_2
	b	.LBB9_1
.LBB9_1:
	.loc	1 0 9                           @ rt-thread/components/net/netdev/src/netdev.c:0:9
	movs	r0, #0
.Ltmp112:
	.loc	1 294 9 is_stmt 1               @ rt-thread/components/net/netdev/src/netdev.c:294:9
	str	r0, [sp, #20]
	b	.LBB9_25
.Ltmp113:
.LBB9_2:
	.loc	1 297 13                        @ rt-thread/components/net/netdev/src/netdev.c:297:13
	bl	rt_hw_interrupt_disable
	.loc	1 297 11 is_stmt 0              @ rt-thread/components/net/netdev/src/netdev.c:297:11
	str	r0, [sp, #12]
.Ltmp114:
	.loc	1 299 19 is_stmt 1              @ rt-thread/components/net/netdev/src/netdev.c:299:19
	movw	r0, :lower16:netdev_list
	movt	r0, :upper16:netdev_list
	ldr	r0, [r0]
	.loc	1 299 15 is_stmt 0              @ rt-thread/components/net/netdev/src/netdev.c:299:15
	str	r0, [sp, #8]
	.loc	1 299 10                        @ rt-thread/components/net/netdev/src/netdev.c:299:10
	b	.LBB9_3
.LBB9_3:                                @ =>This Inner Loop Header: Depth=1
.Ltmp115:
	.loc	1 299 39                        @ rt-thread/components/net/netdev/src/netdev.c:299:39
	ldr	r0, [sp, #8]
.Ltmp116:
	.loc	1 299 5                         @ rt-thread/components/net/netdev/src/netdev.c:299:5
	cbz	r0, .LBB9_13
	b	.LBB9_4
.LBB9_4:                                @   in Loop: Header=BB9_3 Depth=1
.Ltmp117:
	.loc	1 301 18 is_stmt 1              @ rt-thread/components/net/netdev/src/netdev.c:301:18
	ldr	r0, [sp, #8]
	.loc	1 301 16 is_stmt 0              @ rt-thread/components/net/netdev/src/netdev.c:301:16
	str	r0, [sp, #4]
	.loc	1 302 42 is_stmt 1              @ rt-thread/components/net/netdev/src/netdev.c:302:42
	ldr	r0, [sp, #4]
	.loc	1 302 50 is_stmt 0              @ rt-thread/components/net/netdev/src/netdev.c:302:50
	ldr	r0, [r0, #60]
	.loc	1 302 12                        @ rt-thread/components/net/netdev/src/netdev.c:302:12
	str	r0, [sp]
.Ltmp118:
	.loc	1 303 13 is_stmt 1              @ rt-thread/components/net/netdev/src/netdev.c:303:13
	ldr	r0, [sp]
	.loc	1 303 16 is_stmt 0              @ rt-thread/components/net/netdev/src/netdev.c:303:16
	cbz	r0, .LBB9_11
	b	.LBB9_5
.LBB9_5:                                @   in Loop: Header=BB9_3 Depth=1
	.loc	1 303 19                        @ rt-thread/components/net/netdev/src/netdev.c:303:19
	ldr	r0, [sp]
	.loc	1 303 23                        @ rt-thread/components/net/netdev/src/netdev.c:303:23
	ldr	r0, [r0, #8]
	.loc	1 303 31                        @ rt-thread/components/net/netdev/src/netdev.c:303:31
	cbz	r0, .LBB9_11
	b	.LBB9_6
.LBB9_6:                                @   in Loop: Header=BB9_3 Depth=1
	.loc	1 303 34                        @ rt-thread/components/net/netdev/src/netdev.c:303:34
	ldr	r0, [sp]
	.loc	1 303 38                        @ rt-thread/components/net/netdev/src/netdev.c:303:38
	ldr	r0, [r0]
	.loc	1 303 48                        @ rt-thread/components/net/netdev/src/netdev.c:303:48
	ldr	r1, [sp, #16]
	.loc	1 303 55                        @ rt-thread/components/net/netdev/src/netdev.c:303:55
	cmp	r0, r1
	bne	.LBB9_11
	b	.LBB9_7
.LBB9_7:                                @   in Loop: Header=BB9_3 Depth=1
	.loc	1 303 58                        @ rt-thread/components/net/netdev/src/netdev.c:303:58
	ldr	r0, [sp, #4]
	ldrh	r0, [r0, #42]
.Ltmp119:
	.loc	1 303 13                        @ rt-thread/components/net/netdev/src/netdev.c:303:13
	lsls	r0, r0, #31
	cbz	r0, .LBB9_9
	b	.LBB9_8
.LBB9_8:                                @   in Loop: Header=BB9_3 Depth=1
	.loc	1 0 13                          @ rt-thread/components/net/netdev/src/netdev.c:0:13
	movs	r0, #1
.Ltmp120:
	.loc	1 303 58                        @ rt-thread/components/net/netdev/src/netdev.c:303:58
	cbnz	r0, .LBB9_10
	b	.LBB9_11
.Ltmp121:
.LBB9_9:                                @   in Loop: Header=BB9_3 Depth=1
	.loc	1 0 58                          @ rt-thread/components/net/netdev/src/netdev.c:0:58
	movs	r0, #1
	.loc	1 303 13                        @ rt-thread/components/net/netdev/src/netdev.c:303:13
	cbnz	r0, .LBB9_11
	b	.LBB9_10
.LBB9_10:
.Ltmp122:
	.loc	1 305 36 is_stmt 1              @ rt-thread/components/net/netdev/src/netdev.c:305:36
	ldr	r0, [sp, #12]
	.loc	1 305 13 is_stmt 0              @ rt-thread/components/net/netdev/src/netdev.c:305:13
	bl	rt_hw_interrupt_enable
	.loc	1 306 20 is_stmt 1              @ rt-thread/components/net/netdev/src/netdev.c:306:20
	ldr	r0, [sp, #4]
	.loc	1 306 13 is_stmt 0              @ rt-thread/components/net/netdev/src/netdev.c:306:13
	str	r0, [sp, #20]
	b	.LBB9_25
.Ltmp123:
.LBB9_11:                               @   in Loop: Header=BB9_3 Depth=1
	.loc	1 308 5 is_stmt 1               @ rt-thread/components/net/netdev/src/netdev.c:308:5
	b	.LBB9_12
.Ltmp124:
.LBB9_12:                               @   in Loop: Header=BB9_3 Depth=1
	.loc	1 299 66                        @ rt-thread/components/net/netdev/src/netdev.c:299:66
	ldr	r0, [sp, #8]
	.loc	1 299 52 is_stmt 0              @ rt-thread/components/net/netdev/src/netdev.c:299:52
	bl	rt_slist_next
	.loc	1 299 50                        @ rt-thread/components/net/netdev/src/netdev.c:299:50
	str	r0, [sp, #8]
	.loc	1 299 5                         @ rt-thread/components/net/netdev/src/netdev.c:299:5
	b	.LBB9_3
.Ltmp125:
.LBB9_13:
	.loc	1 310 19 is_stmt 1              @ rt-thread/components/net/netdev/src/netdev.c:310:19
	movw	r0, :lower16:netdev_list
	movt	r0, :upper16:netdev_list
	ldr	r0, [r0]
	.loc	1 310 15 is_stmt 0              @ rt-thread/components/net/netdev/src/netdev.c:310:15
	str	r0, [sp, #8]
	.loc	1 310 10                        @ rt-thread/components/net/netdev/src/netdev.c:310:10
	b	.LBB9_14
.LBB9_14:                               @ =>This Inner Loop Header: Depth=1
.Ltmp126:
	.loc	1 310 39                        @ rt-thread/components/net/netdev/src/netdev.c:310:39
	ldr	r0, [sp, #8]
.Ltmp127:
	.loc	1 310 5                         @ rt-thread/components/net/netdev/src/netdev.c:310:5
	cbz	r0, .LBB9_24
	b	.LBB9_15
.LBB9_15:                               @   in Loop: Header=BB9_14 Depth=1
.Ltmp128:
	.loc	1 312 18 is_stmt 1              @ rt-thread/components/net/netdev/src/netdev.c:312:18
	ldr	r0, [sp, #8]
	.loc	1 312 16 is_stmt 0              @ rt-thread/components/net/netdev/src/netdev.c:312:16
	str	r0, [sp, #4]
	.loc	1 313 42 is_stmt 1              @ rt-thread/components/net/netdev/src/netdev.c:313:42
	ldr	r0, [sp, #4]
	.loc	1 313 50 is_stmt 0              @ rt-thread/components/net/netdev/src/netdev.c:313:50
	ldr	r0, [r0, #60]
	.loc	1 313 12                        @ rt-thread/components/net/netdev/src/netdev.c:313:12
	str	r0, [sp]
.Ltmp129:
	.loc	1 314 13 is_stmt 1              @ rt-thread/components/net/netdev/src/netdev.c:314:13
	ldr	r0, [sp]
	.loc	1 314 16 is_stmt 0              @ rt-thread/components/net/netdev/src/netdev.c:314:16
	cbz	r0, .LBB9_22
	b	.LBB9_16
.LBB9_16:                               @   in Loop: Header=BB9_14 Depth=1
	.loc	1 314 19                        @ rt-thread/components/net/netdev/src/netdev.c:314:19
	ldr	r0, [sp]
	.loc	1 314 23                        @ rt-thread/components/net/netdev/src/netdev.c:314:23
	ldr	r0, [r0, #8]
	.loc	1 314 31                        @ rt-thread/components/net/netdev/src/netdev.c:314:31
	cbz	r0, .LBB9_22
	b	.LBB9_17
.LBB9_17:                               @   in Loop: Header=BB9_14 Depth=1
	.loc	1 314 34                        @ rt-thread/components/net/netdev/src/netdev.c:314:34
	ldr	r0, [sp]
	.loc	1 314 38                        @ rt-thread/components/net/netdev/src/netdev.c:314:38
	ldr	r0, [r0, #4]
	.loc	1 314 52                        @ rt-thread/components/net/netdev/src/netdev.c:314:52
	ldr	r1, [sp, #16]
	.loc	1 314 59                        @ rt-thread/components/net/netdev/src/netdev.c:314:59
	cmp	r0, r1
	bne	.LBB9_22
	b	.LBB9_18
.LBB9_18:                               @   in Loop: Header=BB9_14 Depth=1
	.loc	1 314 62                        @ rt-thread/components/net/netdev/src/netdev.c:314:62
	ldr	r0, [sp, #4]
	ldrh	r0, [r0, #42]
.Ltmp130:
	.loc	1 314 13                        @ rt-thread/components/net/netdev/src/netdev.c:314:13
	lsls	r0, r0, #31
	cbz	r0, .LBB9_20
	b	.LBB9_19
.LBB9_19:                               @   in Loop: Header=BB9_14 Depth=1
	.loc	1 0 13                          @ rt-thread/components/net/netdev/src/netdev.c:0:13
	movs	r0, #1
.Ltmp131:
	.loc	1 314 62                        @ rt-thread/components/net/netdev/src/netdev.c:314:62
	cbnz	r0, .LBB9_21
	b	.LBB9_22
.Ltmp132:
.LBB9_20:                               @   in Loop: Header=BB9_14 Depth=1
	.loc	1 0 62                          @ rt-thread/components/net/netdev/src/netdev.c:0:62
	movs	r0, #1
	.loc	1 314 13                        @ rt-thread/components/net/netdev/src/netdev.c:314:13
	cbnz	r0, .LBB9_22
	b	.LBB9_21
.LBB9_21:
.Ltmp133:
	.loc	1 316 36 is_stmt 1              @ rt-thread/components/net/netdev/src/netdev.c:316:36
	ldr	r0, [sp, #12]
	.loc	1 316 13 is_stmt 0              @ rt-thread/components/net/netdev/src/netdev.c:316:13
	bl	rt_hw_interrupt_enable
	.loc	1 317 20 is_stmt 1              @ rt-thread/components/net/netdev/src/netdev.c:317:20
	ldr	r0, [sp, #4]
	.loc	1 317 13 is_stmt 0              @ rt-thread/components/net/netdev/src/netdev.c:317:13
	str	r0, [sp, #20]
	b	.LBB9_25
.Ltmp134:
.LBB9_22:                               @   in Loop: Header=BB9_14 Depth=1
	.loc	1 319 5 is_stmt 1               @ rt-thread/components/net/netdev/src/netdev.c:319:5
	b	.LBB9_23
.Ltmp135:
.LBB9_23:                               @   in Loop: Header=BB9_14 Depth=1
	.loc	1 310 66                        @ rt-thread/components/net/netdev/src/netdev.c:310:66
	ldr	r0, [sp, #8]
	.loc	1 310 52 is_stmt 0              @ rt-thread/components/net/netdev/src/netdev.c:310:52
	bl	rt_slist_next
	.loc	1 310 50                        @ rt-thread/components/net/netdev/src/netdev.c:310:50
	str	r0, [sp, #8]
	.loc	1 310 5                         @ rt-thread/components/net/netdev/src/netdev.c:310:5
	b	.LBB9_14
.Ltmp136:
.LBB9_24:
	.loc	1 321 28 is_stmt 1              @ rt-thread/components/net/netdev/src/netdev.c:321:28
	ldr	r0, [sp, #12]
	.loc	1 321 5 is_stmt 0               @ rt-thread/components/net/netdev/src/netdev.c:321:5
	bl	rt_hw_interrupt_enable
	movs	r0, #0
	.loc	1 323 5 is_stmt 1               @ rt-thread/components/net/netdev/src/netdev.c:323:5
	str	r0, [sp, #20]
	b	.LBB9_25
.LBB9_25:
	.loc	1 324 1                         @ rt-thread/components/net/netdev/src/netdev.c:324:1
	ldr	r0, [sp, #20]
	add	sp, #24
	pop	{r7, pc}
.Ltmp137:
.Lfunc_end9:
	.size	netdev_get_by_family, .Lfunc_end9-netdev_get_by_family
	.cfi_endproc
	.cantunwind
	.fnend
                                        @ -- End function
	.section	.text.netdev_family_get,"ax",%progbits
	.hidden	netdev_family_get               @ -- Begin function netdev_family_get
	.globl	netdev_family_get
	.p2align	3
	.type	netdev_family_get,%function
	.code	16                              @ @netdev_family_get
	.thumb_func
netdev_family_get:
.Lfunc_begin10:
	.loc	1 334 0                         @ rt-thread/components/net/netdev/src/netdev.c:334:0
	.fnstart
	.cfi_startproc
@ %bb.0:
	.save	{r7, lr}
	push	{r7, lr}
	.cfi_def_cfa_offset 8
	.cfi_offset lr, -4
	.cfi_offset r7, -8
	.pad	#8
	sub	sp, #8
	.cfi_def_cfa_offset 16
	str	r0, [sp, #4]
.Ltmp138:
	.loc	1 335 5 prologue_end            @ rt-thread/components/net/netdev/src/netdev.c:335:5
	ldr	r0, [sp, #4]
.Ltmp139:
	.loc	1 335 5 is_stmt 0               @ rt-thread/components/net/netdev/src/netdev.c:335:5
	cbnz	r0, .LBB10_2
	b	.LBB10_1
.LBB10_1:
.Ltmp140:
	.loc	1 335 5                         @ rt-thread/components/net/netdev/src/netdev.c:335:5
	movw	r0, :lower16:.L.str
	movt	r0, :upper16:.L.str
	movw	r1, :lower16:.L__FUNCTION__.netdev_family_get
	movt	r1, :upper16:.L__FUNCTION__.netdev_family_get
	movw	r2, #335
	bl	rt_assert_handler
	b	.LBB10_2
.Ltmp141:
.LBB10_2:
	.loc	1 337 40 is_stmt 1              @ rt-thread/components/net/netdev/src/netdev.c:337:40
	ldr	r0, [sp, #4]
	.loc	1 337 48 is_stmt 0              @ rt-thread/components/net/netdev/src/netdev.c:337:48
	ldr	r0, [r0, #60]
	.loc	1 337 64                        @ rt-thread/components/net/netdev/src/netdev.c:337:64
	ldr	r0, [r0]
	.loc	1 337 5                         @ rt-thread/components/net/netdev/src/netdev.c:337:5
	add	sp, #8
	pop	{r7, pc}
.Ltmp142:
.Lfunc_end10:
	.size	netdev_family_get, .Lfunc_end10-netdev_family_get
	.cfi_endproc
	.cantunwind
	.fnend
                                        @ -- End function
	.section	.text.netdev_set_default,"ax",%progbits
	.hidden	netdev_set_default              @ -- Begin function netdev_set_default
	.globl	netdev_set_default
	.p2align	3
	.type	netdev_set_default,%function
	.code	16                              @ @netdev_set_default
	.thumb_func
netdev_set_default:
.Lfunc_begin11:
	.loc	1 348 0 is_stmt 1               @ rt-thread/components/net/netdev/src/netdev.c:348:0
	.fnstart
	.cfi_startproc
@ %bb.0:
	.save	{r7, lr}
	push	{r7, lr}
	.cfi_def_cfa_offset 8
	.cfi_offset lr, -4
	.cfi_offset r7, -8
	.pad	#8
	sub	sp, #8
	.cfi_def_cfa_offset 16
	str	r0, [sp, #4]
.Ltmp143:
	.loc	1 349 9 prologue_end            @ rt-thread/components/net/netdev/src/netdev.c:349:9
	ldr	r0, [sp, #4]
.Ltmp144:
	.loc	1 349 9 is_stmt 0               @ rt-thread/components/net/netdev/src/netdev.c:349:9
	cbz	r0, .LBB11_4
	b	.LBB11_1
.LBB11_1:
.Ltmp145:
	.loc	1 351 26 is_stmt 1              @ rt-thread/components/net/netdev/src/netdev.c:351:26
	ldr	r0, [sp, #4]
	.loc	1 351 24 is_stmt 0              @ rt-thread/components/net/netdev/src/netdev.c:351:24
	movw	r1, :lower16:netdev_default
	movt	r1, :upper16:netdev_default
	str	r0, [r1]
.Ltmp146:
	.loc	1 353 13 is_stmt 1              @ rt-thread/components/net/netdev/src/netdev.c:353:13
	ldr	r0, [sp, #4]
	.loc	1 353 21 is_stmt 0              @ rt-thread/components/net/netdev/src/netdev.c:353:21
	ldr	r0, [r0, #48]
	.loc	1 353 26                        @ rt-thread/components/net/netdev/src/netdev.c:353:26
	ldr	r0, [r0, #28]
.Ltmp147:
	.loc	1 353 13                        @ rt-thread/components/net/netdev/src/netdev.c:353:13
	cbz	r0, .LBB11_3
	b	.LBB11_2
.LBB11_2:
.Ltmp148:
	.loc	1 356 13 is_stmt 1              @ rt-thread/components/net/netdev/src/netdev.c:356:13
	ldr	r0, [sp, #4]
	.loc	1 356 21 is_stmt 0              @ rt-thread/components/net/netdev/src/netdev.c:356:21
	ldr	r1, [r0, #48]
	.loc	1 356 26                        @ rt-thread/components/net/netdev/src/netdev.c:356:26
	ldr	r1, [r1, #28]
	.loc	1 356 13                        @ rt-thread/components/net/netdev/src/netdev.c:356:13
	blx	r1
	.loc	1 357 9 is_stmt 1               @ rt-thread/components/net/netdev/src/netdev.c:357:9
	b	.LBB11_3
.Ltmp149:
.LBB11_3:
	.loc	1 359 5                         @ rt-thread/components/net/netdev/src/netdev.c:359:5
	b	.LBB11_4
.Ltmp150:
.LBB11_4:
	.loc	1 360 1                         @ rt-thread/components/net/netdev/src/netdev.c:360:1
	add	sp, #8
	pop	{r7, pc}
.Ltmp151:
.Lfunc_end11:
	.size	netdev_set_default, .Lfunc_end11-netdev_set_default
	.cfi_endproc
	.cantunwind
	.fnend
                                        @ -- End function
	.section	.text.netdev_set_up,"ax",%progbits
	.hidden	netdev_set_up                   @ -- Begin function netdev_set_up
	.globl	netdev_set_up
	.p2align	3
	.type	netdev_set_up,%function
	.code	16                              @ @netdev_set_up
	.thumb_func
netdev_set_up:
.Lfunc_begin12:
	.loc	1 371 0                         @ rt-thread/components/net/netdev/src/netdev.c:371:0
	.fnstart
	.cfi_startproc
@ %bb.0:
	.save	{r7, lr}
	push	{r7, lr}
	.cfi_def_cfa_offset 8
	.cfi_offset lr, -4
	.cfi_offset r7, -8
	.pad	#8
	sub	sp, #8
	.cfi_def_cfa_offset 16
	str	r0, [sp]
.Ltmp152:
	.loc	1 372 5 prologue_end            @ rt-thread/components/net/netdev/src/netdev.c:372:5
	ldr	r0, [sp]
.Ltmp153:
	.loc	1 372 5 is_stmt 0               @ rt-thread/components/net/netdev/src/netdev.c:372:5
	cbnz	r0, .LBB12_2
	b	.LBB12_1
.LBB12_1:
.Ltmp154:
	.loc	1 372 5                         @ rt-thread/components/net/netdev/src/netdev.c:372:5
	movw	r0, :lower16:.L.str
	movt	r0, :upper16:.L.str
	movw	r1, :lower16:.L__FUNCTION__.netdev_set_up
	movt	r1, :upper16:.L__FUNCTION__.netdev_set_up
	mov.w	r2, #372
	bl	rt_assert_handler
	b	.LBB12_2
.Ltmp155:
.LBB12_2:
	.loc	1 374 10 is_stmt 1              @ rt-thread/components/net/netdev/src/netdev.c:374:10
	ldr	r0, [sp]
	.loc	1 374 18 is_stmt 0              @ rt-thread/components/net/netdev/src/netdev.c:374:18
	ldr	r0, [r0, #48]
	.loc	1 374 22                        @ rt-thread/components/net/netdev/src/netdev.c:374:22
	cbz	r0, .LBB12_4
	b	.LBB12_3
.LBB12_3:
	.loc	1 374 26                        @ rt-thread/components/net/netdev/src/netdev.c:374:26
	ldr	r0, [sp]
	.loc	1 374 34                        @ rt-thread/components/net/netdev/src/netdev.c:374:34
	ldr	r0, [r0, #48]
	.loc	1 374 39                        @ rt-thread/components/net/netdev/src/netdev.c:374:39
	ldr	r0, [r0]
.Ltmp156:
	.loc	1 374 9                         @ rt-thread/components/net/netdev/src/netdev.c:374:9
	cbnz	r0, .LBB12_7
	b	.LBB12_4
.LBB12_4:
.Ltmp157:
	.loc	1 376 9 is_stmt 1               @ rt-thread/components/net/netdev/src/netdev.c:376:9
	b	.LBB12_5
.LBB12_5:
.Ltmp158:
	.loc	1 376 9 is_stmt 0               @ rt-thread/components/net/netdev/src/netdev.c:376:9
	movw	r0, :lower16:.L.str.2
	movt	r0, :upper16:.L.str.2
	bl	rt_kprintf
	ldr	r0, [sp]
	adds	r1, r0, #4
	movw	r0, :lower16:.L.str.3
	movt	r0, :upper16:.L.str.3
	bl	rt_kprintf
	movw	r0, :lower16:.L.str.4
	movt	r0, :upper16:.L.str.4
	bl	rt_kprintf
	b	.LBB12_6
.Ltmp159:
.LBB12_6:
	.loc	1 0 9                           @ rt-thread/components/net/netdev/src/netdev.c:0:9
	mov.w	r0, #-1
	.loc	1 377 9 is_stmt 1               @ rt-thread/components/net/netdev/src/netdev.c:377:9
	str	r0, [sp, #4]
	b	.LBB12_12
.Ltmp160:
.LBB12_7:
	.loc	1 381 9                         @ rt-thread/components/net/netdev/src/netdev.c:381:9
	ldr	r0, [sp]
	ldrh	r0, [r0, #42]
.Ltmp161:
	.loc	1 381 9 is_stmt 0               @ rt-thread/components/net/netdev/src/netdev.c:381:9
	lsls	r0, r0, #31
	cbz	r0, .LBB12_9
	b	.LBB12_8
.LBB12_8:
	.loc	1 0 9                           @ rt-thread/components/net/netdev/src/netdev.c:0:9
	movs	r0, #1
.Ltmp162:
	.loc	1 381 9                         @ rt-thread/components/net/netdev/src/netdev.c:381:9
	cbnz	r0, .LBB12_10
	b	.LBB12_11
.Ltmp163:
.LBB12_9:
	.loc	1 0 9                           @ rt-thread/components/net/netdev/src/netdev.c:0:9
	movs	r0, #1
	.loc	1 381 9                         @ rt-thread/components/net/netdev/src/netdev.c:381:9
	cbnz	r0, .LBB12_11
	b	.LBB12_10
.LBB12_10:
	.loc	1 0 9                           @ rt-thread/components/net/netdev/src/netdev.c:0:9
	movs	r0, #0
.Ltmp164:
	.loc	1 383 9 is_stmt 1               @ rt-thread/components/net/netdev/src/netdev.c:383:9
	str	r0, [sp, #4]
	b	.LBB12_12
.Ltmp165:
.LBB12_11:
	.loc	1 387 12                        @ rt-thread/components/net/netdev/src/netdev.c:387:12
	ldr	r0, [sp]
	.loc	1 387 20 is_stmt 0              @ rt-thread/components/net/netdev/src/netdev.c:387:20
	ldr	r1, [r0, #48]
	.loc	1 387 25                        @ rt-thread/components/net/netdev/src/netdev.c:387:25
	ldr	r1, [r1]
	.loc	1 387 12                        @ rt-thread/components/net/netdev/src/netdev.c:387:12
	blx	r1
	.loc	1 387 5                         @ rt-thread/components/net/netdev/src/netdev.c:387:5
	str	r0, [sp, #4]
	b	.LBB12_12
.LBB12_12:
	.loc	1 388 1 is_stmt 1               @ rt-thread/components/net/netdev/src/netdev.c:388:1
	ldr	r0, [sp, #4]
	add	sp, #8
	pop	{r7, pc}
.Ltmp166:
.Lfunc_end12:
	.size	netdev_set_up, .Lfunc_end12-netdev_set_up
	.cfi_endproc
	.cantunwind
	.fnend
                                        @ -- End function
	.section	.text.netdev_set_down,"ax",%progbits
	.hidden	netdev_set_down                 @ -- Begin function netdev_set_down
	.globl	netdev_set_down
	.p2align	3
	.type	netdev_set_down,%function
	.code	16                              @ @netdev_set_down
	.thumb_func
netdev_set_down:
.Lfunc_begin13:
	.loc	1 398 0                         @ rt-thread/components/net/netdev/src/netdev.c:398:0
	.fnstart
	.cfi_startproc
@ %bb.0:
	.save	{r7, lr}
	push	{r7, lr}
	.cfi_def_cfa_offset 8
	.cfi_offset lr, -4
	.cfi_offset r7, -8
	.pad	#8
	sub	sp, #8
	.cfi_def_cfa_offset 16
	str	r0, [sp]
.Ltmp167:
	.loc	1 399 5 prologue_end            @ rt-thread/components/net/netdev/src/netdev.c:399:5
	ldr	r0, [sp]
.Ltmp168:
	.loc	1 399 5 is_stmt 0               @ rt-thread/components/net/netdev/src/netdev.c:399:5
	cbnz	r0, .LBB13_2
	b	.LBB13_1
.LBB13_1:
.Ltmp169:
	.loc	1 399 5                         @ rt-thread/components/net/netdev/src/netdev.c:399:5
	movw	r0, :lower16:.L.str
	movt	r0, :upper16:.L.str
	movw	r1, :lower16:.L__FUNCTION__.netdev_set_down
	movt	r1, :upper16:.L__FUNCTION__.netdev_set_down
	movw	r2, #399
	bl	rt_assert_handler
	b	.LBB13_2
.Ltmp170:
.LBB13_2:
	.loc	1 401 10 is_stmt 1              @ rt-thread/components/net/netdev/src/netdev.c:401:10
	ldr	r0, [sp]
	.loc	1 401 18 is_stmt 0              @ rt-thread/components/net/netdev/src/netdev.c:401:18
	ldr	r0, [r0, #48]
	.loc	1 401 22                        @ rt-thread/components/net/netdev/src/netdev.c:401:22
	cbz	r0, .LBB13_4
	b	.LBB13_3
.LBB13_3:
	.loc	1 401 26                        @ rt-thread/components/net/netdev/src/netdev.c:401:26
	ldr	r0, [sp]
	.loc	1 401 34                        @ rt-thread/components/net/netdev/src/netdev.c:401:34
	ldr	r0, [r0, #48]
	.loc	1 401 39                        @ rt-thread/components/net/netdev/src/netdev.c:401:39
	ldr	r0, [r0, #4]
.Ltmp171:
	.loc	1 401 9                         @ rt-thread/components/net/netdev/src/netdev.c:401:9
	cbnz	r0, .LBB13_7
	b	.LBB13_4
.LBB13_4:
.Ltmp172:
	.loc	1 403 9 is_stmt 1               @ rt-thread/components/net/netdev/src/netdev.c:403:9
	b	.LBB13_5
.LBB13_5:
.Ltmp173:
	.loc	1 403 9 is_stmt 0               @ rt-thread/components/net/netdev/src/netdev.c:403:9
	movw	r0, :lower16:.L.str.2
	movt	r0, :upper16:.L.str.2
	bl	rt_kprintf
	ldr	r0, [sp]
	adds	r1, r0, #4
	movw	r0, :lower16:.L.str.3
	movt	r0, :upper16:.L.str.3
	bl	rt_kprintf
	movw	r0, :lower16:.L.str.4
	movt	r0, :upper16:.L.str.4
	bl	rt_kprintf
	b	.LBB13_6
.Ltmp174:
.LBB13_6:
	.loc	1 0 9                           @ rt-thread/components/net/netdev/src/netdev.c:0:9
	mov.w	r0, #-1
	.loc	1 404 9 is_stmt 1               @ rt-thread/components/net/netdev/src/netdev.c:404:9
	str	r0, [sp, #4]
	b	.LBB13_12
.Ltmp175:
.LBB13_7:
	.loc	1 408 10                        @ rt-thread/components/net/netdev/src/netdev.c:408:10
	ldr	r0, [sp]
	ldrh	r0, [r0, #42]
.Ltmp176:
	.loc	1 408 9 is_stmt 0               @ rt-thread/components/net/netdev/src/netdev.c:408:9
	lsls	r0, r0, #31
	cbz	r0, .LBB13_9
	b	.LBB13_8
.LBB13_8:
	.loc	1 0 9                           @ rt-thread/components/net/netdev/src/netdev.c:0:9
	movs	r0, #1
.Ltmp177:
	.loc	1 408 10                        @ rt-thread/components/net/netdev/src/netdev.c:408:10
	cbnz	r0, .LBB13_11
	b	.LBB13_10
.Ltmp178:
.LBB13_9:
	.loc	1 0 10                          @ rt-thread/components/net/netdev/src/netdev.c:0:10
	movs	r0, #0
	.loc	1 408 9                         @ rt-thread/components/net/netdev/src/netdev.c:408:9
	cbnz	r0, .LBB13_11
	b	.LBB13_10
.LBB13_10:
	.loc	1 0 9                           @ rt-thread/components/net/netdev/src/netdev.c:0:9
	movs	r0, #0
.Ltmp179:
	.loc	1 410 9 is_stmt 1               @ rt-thread/components/net/netdev/src/netdev.c:410:9
	str	r0, [sp, #4]
	b	.LBB13_12
.Ltmp180:
.LBB13_11:
	.loc	1 414 12                        @ rt-thread/components/net/netdev/src/netdev.c:414:12
	ldr	r0, [sp]
	.loc	1 414 20 is_stmt 0              @ rt-thread/components/net/netdev/src/netdev.c:414:20
	ldr	r1, [r0, #48]
	.loc	1 414 25                        @ rt-thread/components/net/netdev/src/netdev.c:414:25
	ldr	r1, [r1, #4]
	.loc	1 414 12                        @ rt-thread/components/net/netdev/src/netdev.c:414:12
	blx	r1
	.loc	1 414 5                         @ rt-thread/components/net/netdev/src/netdev.c:414:5
	str	r0, [sp, #4]
	b	.LBB13_12
.LBB13_12:
	.loc	1 415 1 is_stmt 1               @ rt-thread/components/net/netdev/src/netdev.c:415:1
	ldr	r0, [sp, #4]
	add	sp, #8
	pop	{r7, pc}
.Ltmp181:
.Lfunc_end13:
	.size	netdev_set_down, .Lfunc_end13-netdev_set_down
	.cfi_endproc
	.cantunwind
	.fnend
                                        @ -- End function
	.section	.text.netdev_dhcp_enabled,"ax",%progbits
	.hidden	netdev_dhcp_enabled             @ -- Begin function netdev_dhcp_enabled
	.globl	netdev_dhcp_enabled
	.p2align	3
	.type	netdev_dhcp_enabled,%function
	.code	16                              @ @netdev_dhcp_enabled
	.thumb_func
netdev_dhcp_enabled:
.Lfunc_begin14:
	.loc	1 427 0                         @ rt-thread/components/net/netdev/src/netdev.c:427:0
	.fnstart
	.cfi_startproc
@ %bb.0:
	.save	{r7, lr}
	push	{r7, lr}
	.cfi_def_cfa_offset 8
	.cfi_offset lr, -4
	.cfi_offset r7, -8
	.pad	#16
	sub	sp, #16
	.cfi_def_cfa_offset 24
	str	r0, [sp, #8]
	str	r1, [sp, #4]
.Ltmp182:
	.loc	1 428 5 prologue_end            @ rt-thread/components/net/netdev/src/netdev.c:428:5
	ldr	r0, [sp, #8]
.Ltmp183:
	.loc	1 428 5 is_stmt 0               @ rt-thread/components/net/netdev/src/netdev.c:428:5
	cbnz	r0, .LBB14_2
	b	.LBB14_1
.LBB14_1:
.Ltmp184:
	.loc	1 428 5                         @ rt-thread/components/net/netdev/src/netdev.c:428:5
	movw	r0, :lower16:.L.str
	movt	r0, :upper16:.L.str
	movw	r1, :lower16:.L__FUNCTION__.netdev_dhcp_enabled
	movt	r1, :upper16:.L__FUNCTION__.netdev_dhcp_enabled
	mov.w	r2, #428
	bl	rt_assert_handler
	b	.LBB14_2
.Ltmp185:
.LBB14_2:
	.loc	1 430 10 is_stmt 1              @ rt-thread/components/net/netdev/src/netdev.c:430:10
	ldr	r0, [sp, #8]
	.loc	1 430 18 is_stmt 0              @ rt-thread/components/net/netdev/src/netdev.c:430:18
	ldr	r0, [r0, #48]
	.loc	1 430 22                        @ rt-thread/components/net/netdev/src/netdev.c:430:22
	cbz	r0, .LBB14_4
	b	.LBB14_3
.LBB14_3:
	.loc	1 430 26                        @ rt-thread/components/net/netdev/src/netdev.c:430:26
	ldr	r0, [sp, #8]
	.loc	1 430 34                        @ rt-thread/components/net/netdev/src/netdev.c:430:34
	ldr	r0, [r0, #48]
	.loc	1 430 39                        @ rt-thread/components/net/netdev/src/netdev.c:430:39
	ldr	r0, [r0, #16]
.Ltmp186:
	.loc	1 430 9                         @ rt-thread/components/net/netdev/src/netdev.c:430:9
	cbnz	r0, .LBB14_7
	b	.LBB14_4
.LBB14_4:
.Ltmp187:
	.loc	1 432 9 is_stmt 1               @ rt-thread/components/net/netdev/src/netdev.c:432:9
	b	.LBB14_5
.LBB14_5:
.Ltmp188:
	.loc	1 432 9 is_stmt 0               @ rt-thread/components/net/netdev/src/netdev.c:432:9
	movw	r0, :lower16:.L.str.2
	movt	r0, :upper16:.L.str.2
	bl	rt_kprintf
	ldr	r0, [sp, #8]
	adds	r1, r0, #4
	movw	r0, :lower16:.L.str.5
	movt	r0, :upper16:.L.str.5
	bl	rt_kprintf
	movw	r0, :lower16:.L.str.4
	movt	r0, :upper16:.L.str.4
	bl	rt_kprintf
	b	.LBB14_6
.Ltmp189:
.LBB14_6:
	.loc	1 0 9                           @ rt-thread/components/net/netdev/src/netdev.c:0:9
	mov.w	r0, #-1
	.loc	1 433 9 is_stmt 1               @ rt-thread/components/net/netdev/src/netdev.c:433:9
	str	r0, [sp, #12]
	b	.LBB14_10
.Ltmp190:
.LBB14_7:
	.loc	1 437 9                         @ rt-thread/components/net/netdev/src/netdev.c:437:9
	ldr	r0, [sp, #8]
	ldrh	r0, [r0, #42]
	and	r1, r0, #256
	.loc	1 437 43 is_stmt 0              @ rt-thread/components/net/netdev/src/netdev.c:437:43
	ldr	r0, [sp, #4]
.Ltmp191:
	.loc	1 437 9                         @ rt-thread/components/net/netdev/src/netdev.c:437:9
	cmp.w	r0, r1, lsr #8
	bne	.LBB14_9
	b	.LBB14_8
.LBB14_8:
	.loc	1 0 9                           @ rt-thread/components/net/netdev/src/netdev.c:0:9
	movs	r0, #0
.Ltmp192:
	.loc	1 439 9 is_stmt 1               @ rt-thread/components/net/netdev/src/netdev.c:439:9
	str	r0, [sp, #12]
	b	.LBB14_10
.Ltmp193:
.LBB14_9:
	.loc	1 443 12                        @ rt-thread/components/net/netdev/src/netdev.c:443:12
	ldr	r0, [sp, #8]
	.loc	1 443 20 is_stmt 0              @ rt-thread/components/net/netdev/src/netdev.c:443:20
	ldr	r1, [r0, #48]
	.loc	1 443 25                        @ rt-thread/components/net/netdev/src/netdev.c:443:25
	ldr	r2, [r1, #16]
	.loc	1 443 42                        @ rt-thread/components/net/netdev/src/netdev.c:443:42
	ldr	r1, [sp, #4]
	.loc	1 443 12                        @ rt-thread/components/net/netdev/src/netdev.c:443:12
	blx	r2
	.loc	1 443 5                         @ rt-thread/components/net/netdev/src/netdev.c:443:5
	str	r0, [sp, #12]
	b	.LBB14_10
.LBB14_10:
	.loc	1 444 1 is_stmt 1               @ rt-thread/components/net/netdev/src/netdev.c:444:1
	ldr	r0, [sp, #12]
	add	sp, #16
	pop	{r7, pc}
.Ltmp194:
.Lfunc_end14:
	.size	netdev_dhcp_enabled, .Lfunc_end14-netdev_dhcp_enabled
	.cfi_endproc
	.cantunwind
	.fnend
                                        @ -- End function
	.section	.text.netdev_set_ipaddr,"ax",%progbits
	.hidden	netdev_set_ipaddr               @ -- Begin function netdev_set_ipaddr
	.globl	netdev_set_ipaddr
	.p2align	3
	.type	netdev_set_ipaddr,%function
	.code	16                              @ @netdev_set_ipaddr
	.thumb_func
netdev_set_ipaddr:
.Lfunc_begin15:
	.loc	1 456 0                         @ rt-thread/components/net/netdev/src/netdev.c:456:0
	.fnstart
	.cfi_startproc
@ %bb.0:
	.save	{r7, lr}
	push	{r7, lr}
	.cfi_def_cfa_offset 8
	.cfi_offset lr, -4
	.cfi_offset r7, -8
	.pad	#16
	sub	sp, #16
	.cfi_def_cfa_offset 24
	str	r0, [sp, #8]
	str	r1, [sp, #4]
.Ltmp195:
	.loc	1 457 5 prologue_end            @ rt-thread/components/net/netdev/src/netdev.c:457:5
	ldr	r0, [sp, #8]
.Ltmp196:
	.loc	1 457 5 is_stmt 0               @ rt-thread/components/net/netdev/src/netdev.c:457:5
	cbnz	r0, .LBB15_2
	b	.LBB15_1
.LBB15_1:
.Ltmp197:
	.loc	1 457 5                         @ rt-thread/components/net/netdev/src/netdev.c:457:5
	movw	r0, :lower16:.L.str
	movt	r0, :upper16:.L.str
	movw	r1, :lower16:.L__FUNCTION__.netdev_set_ipaddr
	movt	r1, :upper16:.L__FUNCTION__.netdev_set_ipaddr
	movw	r2, #457
	bl	rt_assert_handler
	b	.LBB15_2
.Ltmp198:
.LBB15_2:
	.loc	1 458 5 is_stmt 1               @ rt-thread/components/net/netdev/src/netdev.c:458:5
	ldr	r0, [sp, #4]
.Ltmp199:
	.loc	1 458 5 is_stmt 0               @ rt-thread/components/net/netdev/src/netdev.c:458:5
	cbnz	r0, .LBB15_4
	b	.LBB15_3
.LBB15_3:
.Ltmp200:
	.loc	1 458 5                         @ rt-thread/components/net/netdev/src/netdev.c:458:5
	movw	r0, :lower16:.L.str.6
	movt	r0, :upper16:.L.str.6
	movw	r1, :lower16:.L__FUNCTION__.netdev_set_ipaddr
	movt	r1, :upper16:.L__FUNCTION__.netdev_set_ipaddr
	mov.w	r2, #458
	bl	rt_assert_handler
	b	.LBB15_4
.Ltmp201:
.LBB15_4:
	.loc	1 460 10 is_stmt 1              @ rt-thread/components/net/netdev/src/netdev.c:460:10
	ldr	r0, [sp, #8]
	.loc	1 460 18 is_stmt 0              @ rt-thread/components/net/netdev/src/netdev.c:460:18
	ldr	r0, [r0, #48]
	.loc	1 460 22                        @ rt-thread/components/net/netdev/src/netdev.c:460:22
	cbz	r0, .LBB15_6
	b	.LBB15_5
.LBB15_5:
	.loc	1 460 26                        @ rt-thread/components/net/netdev/src/netdev.c:460:26
	ldr	r0, [sp, #8]
	.loc	1 460 34                        @ rt-thread/components/net/netdev/src/netdev.c:460:34
	ldr	r0, [r0, #48]
	.loc	1 460 39                        @ rt-thread/components/net/netdev/src/netdev.c:460:39
	ldr	r0, [r0, #8]
.Ltmp202:
	.loc	1 460 9                         @ rt-thread/components/net/netdev/src/netdev.c:460:9
	cbnz	r0, .LBB15_9
	b	.LBB15_6
.LBB15_6:
.Ltmp203:
	.loc	1 462 9 is_stmt 1               @ rt-thread/components/net/netdev/src/netdev.c:462:9
	b	.LBB15_7
.LBB15_7:
.Ltmp204:
	.loc	1 462 9 is_stmt 0               @ rt-thread/components/net/netdev/src/netdev.c:462:9
	movw	r0, :lower16:.L.str.2
	movt	r0, :upper16:.L.str.2
	bl	rt_kprintf
	ldr	r0, [sp, #8]
	adds	r1, r0, #4
	movw	r0, :lower16:.L.str.7
	movt	r0, :upper16:.L.str.7
	bl	rt_kprintf
	movw	r0, :lower16:.L.str.4
	movt	r0, :upper16:.L.str.4
	bl	rt_kprintf
	b	.LBB15_8
.Ltmp205:
.LBB15_8:
	.loc	1 0 9                           @ rt-thread/components/net/netdev/src/netdev.c:0:9
	mov.w	r0, #-1
	.loc	1 463 9 is_stmt 1               @ rt-thread/components/net/netdev/src/netdev.c:463:9
	str	r0, [sp, #12]
	b	.LBB15_16
.Ltmp206:
.LBB15_9:
	.loc	1 466 9                         @ rt-thread/components/net/netdev/src/netdev.c:466:9
	ldr	r0, [sp, #8]
	ldrh	r0, [r0, #42]
.Ltmp207:
	.loc	1 466 9 is_stmt 0               @ rt-thread/components/net/netdev/src/netdev.c:466:9
	lsls	r0, r0, #23
	cmp	r0, #0
	bpl	.LBB15_11
	b	.LBB15_10
.LBB15_10:
	.loc	1 0 9                           @ rt-thread/components/net/netdev/src/netdev.c:0:9
	movs	r0, #1
.Ltmp208:
	.loc	1 466 9                         @ rt-thread/components/net/netdev/src/netdev.c:466:9
	cbnz	r0, .LBB15_12
	b	.LBB15_15
.Ltmp209:
.LBB15_11:
	.loc	1 0 9                           @ rt-thread/components/net/netdev/src/netdev.c:0:9
	movs	r0, #1
	.loc	1 466 9                         @ rt-thread/components/net/netdev/src/netdev.c:466:9
	cbnz	r0, .LBB15_15
	b	.LBB15_12
.LBB15_12:
.Ltmp210:
	.loc	1 468 9 is_stmt 1               @ rt-thread/components/net/netdev/src/netdev.c:468:9
	b	.LBB15_13
.LBB15_13:
.Ltmp211:
	.loc	1 468 9 is_stmt 0               @ rt-thread/components/net/netdev/src/netdev.c:468:9
	movw	r0, :lower16:.L.str.2
	movt	r0, :upper16:.L.str.2
	bl	rt_kprintf
	ldr	r0, [sp, #8]
	adds	r1, r0, #4
	movw	r0, :lower16:.L.str.8
	movt	r0, :upper16:.L.str.8
	bl	rt_kprintf
	movw	r0, :lower16:.L.str.4
	movt	r0, :upper16:.L.str.4
	bl	rt_kprintf
	b	.LBB15_14
.Ltmp212:
.LBB15_14:
	.loc	1 0 9                           @ rt-thread/components/net/netdev/src/netdev.c:0:9
	mov.w	r0, #-1
	.loc	1 469 9 is_stmt 1               @ rt-thread/components/net/netdev/src/netdev.c:469:9
	str	r0, [sp, #12]
	b	.LBB15_16
.Ltmp213:
.LBB15_15:
	.loc	1 473 12                        @ rt-thread/components/net/netdev/src/netdev.c:473:12
	ldr	r0, [sp, #8]
	.loc	1 473 20 is_stmt 0              @ rt-thread/components/net/netdev/src/netdev.c:473:20
	ldr	r1, [r0, #48]
	.loc	1 473 25                        @ rt-thread/components/net/netdev/src/netdev.c:473:25
	ldr.w	r12, [r1, #8]
	.loc	1 473 60                        @ rt-thread/components/net/netdev/src/netdev.c:473:60
	ldr	r1, [sp, #4]
	movs	r3, #0
	.loc	1 473 12                        @ rt-thread/components/net/netdev/src/netdev.c:473:12
	mov	r2, r3
	blx	r12
	.loc	1 473 5                         @ rt-thread/components/net/netdev/src/netdev.c:473:5
	str	r0, [sp, #12]
	b	.LBB15_16
.LBB15_16:
	.loc	1 474 1 is_stmt 1               @ rt-thread/components/net/netdev/src/netdev.c:474:1
	ldr	r0, [sp, #12]
	add	sp, #16
	pop	{r7, pc}
.Ltmp214:
.Lfunc_end15:
	.size	netdev_set_ipaddr, .Lfunc_end15-netdev_set_ipaddr
	.cfi_endproc
	.cantunwind
	.fnend
                                        @ -- End function
	.section	.text.netdev_set_netmask,"ax",%progbits
	.hidden	netdev_set_netmask              @ -- Begin function netdev_set_netmask
	.globl	netdev_set_netmask
	.p2align	3
	.type	netdev_set_netmask,%function
	.code	16                              @ @netdev_set_netmask
	.thumb_func
netdev_set_netmask:
.Lfunc_begin16:
	.loc	1 486 0                         @ rt-thread/components/net/netdev/src/netdev.c:486:0
	.fnstart
	.cfi_startproc
@ %bb.0:
	.save	{r7, lr}
	push	{r7, lr}
	.cfi_def_cfa_offset 8
	.cfi_offset lr, -4
	.cfi_offset r7, -8
	.pad	#16
	sub	sp, #16
	.cfi_def_cfa_offset 24
	str	r0, [sp, #8]
	str	r1, [sp, #4]
.Ltmp215:
	.loc	1 487 5 prologue_end            @ rt-thread/components/net/netdev/src/netdev.c:487:5
	ldr	r0, [sp, #8]
.Ltmp216:
	.loc	1 487 5 is_stmt 0               @ rt-thread/components/net/netdev/src/netdev.c:487:5
	cbnz	r0, .LBB16_2
	b	.LBB16_1
.LBB16_1:
.Ltmp217:
	.loc	1 487 5                         @ rt-thread/components/net/netdev/src/netdev.c:487:5
	movw	r0, :lower16:.L.str
	movt	r0, :upper16:.L.str
	movw	r1, :lower16:.L__FUNCTION__.netdev_set_netmask
	movt	r1, :upper16:.L__FUNCTION__.netdev_set_netmask
	movw	r2, #487
	bl	rt_assert_handler
	b	.LBB16_2
.Ltmp218:
.LBB16_2:
	.loc	1 488 5 is_stmt 1               @ rt-thread/components/net/netdev/src/netdev.c:488:5
	ldr	r0, [sp, #4]
.Ltmp219:
	.loc	1 488 5 is_stmt 0               @ rt-thread/components/net/netdev/src/netdev.c:488:5
	cbnz	r0, .LBB16_4
	b	.LBB16_3
.LBB16_3:
.Ltmp220:
	.loc	1 488 5                         @ rt-thread/components/net/netdev/src/netdev.c:488:5
	movw	r0, :lower16:.L.str.9
	movt	r0, :upper16:.L.str.9
	movw	r1, :lower16:.L__FUNCTION__.netdev_set_netmask
	movt	r1, :upper16:.L__FUNCTION__.netdev_set_netmask
	mov.w	r2, #488
	bl	rt_assert_handler
	b	.LBB16_4
.Ltmp221:
.LBB16_4:
	.loc	1 490 10 is_stmt 1              @ rt-thread/components/net/netdev/src/netdev.c:490:10
	ldr	r0, [sp, #8]
	.loc	1 490 18 is_stmt 0              @ rt-thread/components/net/netdev/src/netdev.c:490:18
	ldr	r0, [r0, #48]
	.loc	1 490 22                        @ rt-thread/components/net/netdev/src/netdev.c:490:22
	cbz	r0, .LBB16_6
	b	.LBB16_5
.LBB16_5:
	.loc	1 490 26                        @ rt-thread/components/net/netdev/src/netdev.c:490:26
	ldr	r0, [sp, #8]
	.loc	1 490 34                        @ rt-thread/components/net/netdev/src/netdev.c:490:34
	ldr	r0, [r0, #48]
	.loc	1 490 39                        @ rt-thread/components/net/netdev/src/netdev.c:490:39
	ldr	r0, [r0, #8]
.Ltmp222:
	.loc	1 490 9                         @ rt-thread/components/net/netdev/src/netdev.c:490:9
	cbnz	r0, .LBB16_9
	b	.LBB16_6
.LBB16_6:
.Ltmp223:
	.loc	1 492 9 is_stmt 1               @ rt-thread/components/net/netdev/src/netdev.c:492:9
	b	.LBB16_7
.LBB16_7:
.Ltmp224:
	.loc	1 492 9 is_stmt 0               @ rt-thread/components/net/netdev/src/netdev.c:492:9
	movw	r0, :lower16:.L.str.2
	movt	r0, :upper16:.L.str.2
	bl	rt_kprintf
	ldr	r0, [sp, #8]
	adds	r1, r0, #4
	movw	r0, :lower16:.L.str.10
	movt	r0, :upper16:.L.str.10
	bl	rt_kprintf
	movw	r0, :lower16:.L.str.4
	movt	r0, :upper16:.L.str.4
	bl	rt_kprintf
	b	.LBB16_8
.Ltmp225:
.LBB16_8:
	.loc	1 0 9                           @ rt-thread/components/net/netdev/src/netdev.c:0:9
	mov.w	r0, #-1
	.loc	1 493 9 is_stmt 1               @ rt-thread/components/net/netdev/src/netdev.c:493:9
	str	r0, [sp, #12]
	b	.LBB16_16
.Ltmp226:
.LBB16_9:
	.loc	1 496 9                         @ rt-thread/components/net/netdev/src/netdev.c:496:9
	ldr	r0, [sp, #8]
	ldrh	r0, [r0, #42]
.Ltmp227:
	.loc	1 496 9 is_stmt 0               @ rt-thread/components/net/netdev/src/netdev.c:496:9
	lsls	r0, r0, #23
	cmp	r0, #0
	bpl	.LBB16_11
	b	.LBB16_10
.LBB16_10:
	.loc	1 0 9                           @ rt-thread/components/net/netdev/src/netdev.c:0:9
	movs	r0, #1
.Ltmp228:
	.loc	1 496 9                         @ rt-thread/components/net/netdev/src/netdev.c:496:9
	cbnz	r0, .LBB16_12
	b	.LBB16_15
.Ltmp229:
.LBB16_11:
	.loc	1 0 9                           @ rt-thread/components/net/netdev/src/netdev.c:0:9
	movs	r0, #1
	.loc	1 496 9                         @ rt-thread/components/net/netdev/src/netdev.c:496:9
	cbnz	r0, .LBB16_15
	b	.LBB16_12
.LBB16_12:
.Ltmp230:
	.loc	1 498 9 is_stmt 1               @ rt-thread/components/net/netdev/src/netdev.c:498:9
	b	.LBB16_13
.LBB16_13:
.Ltmp231:
	.loc	1 498 9 is_stmt 0               @ rt-thread/components/net/netdev/src/netdev.c:498:9
	movw	r0, :lower16:.L.str.2
	movt	r0, :upper16:.L.str.2
	bl	rt_kprintf
	ldr	r0, [sp, #8]
	adds	r1, r0, #4
	movw	r0, :lower16:.L.str.11
	movt	r0, :upper16:.L.str.11
	bl	rt_kprintf
	movw	r0, :lower16:.L.str.4
	movt	r0, :upper16:.L.str.4
	bl	rt_kprintf
	b	.LBB16_14
.Ltmp232:
.LBB16_14:
	.loc	1 0 9                           @ rt-thread/components/net/netdev/src/netdev.c:0:9
	mov.w	r0, #-1
	.loc	1 499 9 is_stmt 1               @ rt-thread/components/net/netdev/src/netdev.c:499:9
	str	r0, [sp, #12]
	b	.LBB16_16
.Ltmp233:
.LBB16_15:
	.loc	1 503 12                        @ rt-thread/components/net/netdev/src/netdev.c:503:12
	ldr	r0, [sp, #8]
	.loc	1 503 20 is_stmt 0              @ rt-thread/components/net/netdev/src/netdev.c:503:20
	ldr	r1, [r0, #48]
	.loc	1 503 25                        @ rt-thread/components/net/netdev/src/netdev.c:503:25
	ldr.w	r12, [r1, #8]
	.loc	1 503 69                        @ rt-thread/components/net/netdev/src/netdev.c:503:69
	ldr	r2, [sp, #4]
	movs	r3, #0
	.loc	1 503 12                        @ rt-thread/components/net/netdev/src/netdev.c:503:12
	mov	r1, r3
	blx	r12
	.loc	1 503 5                         @ rt-thread/components/net/netdev/src/netdev.c:503:5
	str	r0, [sp, #12]
	b	.LBB16_16
.LBB16_16:
	.loc	1 504 1 is_stmt 1               @ rt-thread/components/net/netdev/src/netdev.c:504:1
	ldr	r0, [sp, #12]
	add	sp, #16
	pop	{r7, pc}
.Ltmp234:
.Lfunc_end16:
	.size	netdev_set_netmask, .Lfunc_end16-netdev_set_netmask
	.cfi_endproc
	.cantunwind
	.fnend
                                        @ -- End function
	.section	.text.netdev_set_gw,"ax",%progbits
	.hidden	netdev_set_gw                   @ -- Begin function netdev_set_gw
	.globl	netdev_set_gw
	.p2align	3
	.type	netdev_set_gw,%function
	.code	16                              @ @netdev_set_gw
	.thumb_func
netdev_set_gw:
.Lfunc_begin17:
	.loc	1 516 0                         @ rt-thread/components/net/netdev/src/netdev.c:516:0
	.fnstart
	.cfi_startproc
@ %bb.0:
	.save	{r7, lr}
	push	{r7, lr}
	.cfi_def_cfa_offset 8
	.cfi_offset lr, -4
	.cfi_offset r7, -8
	.pad	#16
	sub	sp, #16
	.cfi_def_cfa_offset 24
	str	r0, [sp, #8]
	str	r1, [sp, #4]
.Ltmp235:
	.loc	1 517 5 prologue_end            @ rt-thread/components/net/netdev/src/netdev.c:517:5
	ldr	r0, [sp, #8]
.Ltmp236:
	.loc	1 517 5 is_stmt 0               @ rt-thread/components/net/netdev/src/netdev.c:517:5
	cbnz	r0, .LBB17_2
	b	.LBB17_1
.LBB17_1:
.Ltmp237:
	.loc	1 517 5                         @ rt-thread/components/net/netdev/src/netdev.c:517:5
	movw	r0, :lower16:.L.str
	movt	r0, :upper16:.L.str
	movw	r1, :lower16:.L__FUNCTION__.netdev_set_gw
	movt	r1, :upper16:.L__FUNCTION__.netdev_set_gw
	movw	r2, #517
	bl	rt_assert_handler
	b	.LBB17_2
.Ltmp238:
.LBB17_2:
	.loc	1 518 5 is_stmt 1               @ rt-thread/components/net/netdev/src/netdev.c:518:5
	ldr	r0, [sp, #4]
.Ltmp239:
	.loc	1 518 5 is_stmt 0               @ rt-thread/components/net/netdev/src/netdev.c:518:5
	cbnz	r0, .LBB17_4
	b	.LBB17_3
.LBB17_3:
.Ltmp240:
	.loc	1 518 5                         @ rt-thread/components/net/netdev/src/netdev.c:518:5
	movw	r0, :lower16:.L.str.12
	movt	r0, :upper16:.L.str.12
	movw	r1, :lower16:.L__FUNCTION__.netdev_set_gw
	movt	r1, :upper16:.L__FUNCTION__.netdev_set_gw
	movw	r2, #518
	bl	rt_assert_handler
	b	.LBB17_4
.Ltmp241:
.LBB17_4:
	.loc	1 520 10 is_stmt 1              @ rt-thread/components/net/netdev/src/netdev.c:520:10
	ldr	r0, [sp, #8]
	.loc	1 520 18 is_stmt 0              @ rt-thread/components/net/netdev/src/netdev.c:520:18
	ldr	r0, [r0, #48]
	.loc	1 520 22                        @ rt-thread/components/net/netdev/src/netdev.c:520:22
	cbz	r0, .LBB17_6
	b	.LBB17_5
.LBB17_5:
	.loc	1 520 26                        @ rt-thread/components/net/netdev/src/netdev.c:520:26
	ldr	r0, [sp, #8]
	.loc	1 520 34                        @ rt-thread/components/net/netdev/src/netdev.c:520:34
	ldr	r0, [r0, #48]
	.loc	1 520 39                        @ rt-thread/components/net/netdev/src/netdev.c:520:39
	ldr	r0, [r0, #8]
.Ltmp242:
	.loc	1 520 9                         @ rt-thread/components/net/netdev/src/netdev.c:520:9
	cbnz	r0, .LBB17_9
	b	.LBB17_6
.LBB17_6:
.Ltmp243:
	.loc	1 522 9 is_stmt 1               @ rt-thread/components/net/netdev/src/netdev.c:522:9
	b	.LBB17_7
.LBB17_7:
.Ltmp244:
	.loc	1 522 9 is_stmt 0               @ rt-thread/components/net/netdev/src/netdev.c:522:9
	movw	r0, :lower16:.L.str.2
	movt	r0, :upper16:.L.str.2
	bl	rt_kprintf
	ldr	r0, [sp, #8]
	adds	r1, r0, #4
	movw	r0, :lower16:.L.str.13
	movt	r0, :upper16:.L.str.13
	bl	rt_kprintf
	movw	r0, :lower16:.L.str.4
	movt	r0, :upper16:.L.str.4
	bl	rt_kprintf
	b	.LBB17_8
.Ltmp245:
.LBB17_8:
	.loc	1 0 9                           @ rt-thread/components/net/netdev/src/netdev.c:0:9
	mov.w	r0, #-1
	.loc	1 523 9 is_stmt 1               @ rt-thread/components/net/netdev/src/netdev.c:523:9
	str	r0, [sp, #12]
	b	.LBB17_16
.Ltmp246:
.LBB17_9:
	.loc	1 526 9                         @ rt-thread/components/net/netdev/src/netdev.c:526:9
	ldr	r0, [sp, #8]
	ldrh	r0, [r0, #42]
.Ltmp247:
	.loc	1 526 9 is_stmt 0               @ rt-thread/components/net/netdev/src/netdev.c:526:9
	lsls	r0, r0, #23
	cmp	r0, #0
	bpl	.LBB17_11
	b	.LBB17_10
.LBB17_10:
	.loc	1 0 9                           @ rt-thread/components/net/netdev/src/netdev.c:0:9
	movs	r0, #1
.Ltmp248:
	.loc	1 526 9                         @ rt-thread/components/net/netdev/src/netdev.c:526:9
	cbnz	r0, .LBB17_12
	b	.LBB17_15
.Ltmp249:
.LBB17_11:
	.loc	1 0 9                           @ rt-thread/components/net/netdev/src/netdev.c:0:9
	movs	r0, #1
	.loc	1 526 9                         @ rt-thread/components/net/netdev/src/netdev.c:526:9
	cbnz	r0, .LBB17_15
	b	.LBB17_12
.LBB17_12:
.Ltmp250:
	.loc	1 528 9 is_stmt 1               @ rt-thread/components/net/netdev/src/netdev.c:528:9
	b	.LBB17_13
.LBB17_13:
.Ltmp251:
	.loc	1 528 9 is_stmt 0               @ rt-thread/components/net/netdev/src/netdev.c:528:9
	movw	r0, :lower16:.L.str.2
	movt	r0, :upper16:.L.str.2
	bl	rt_kprintf
	ldr	r0, [sp, #8]
	adds	r1, r0, #4
	movw	r0, :lower16:.L.str.14
	movt	r0, :upper16:.L.str.14
	bl	rt_kprintf
	movw	r0, :lower16:.L.str.4
	movt	r0, :upper16:.L.str.4
	bl	rt_kprintf
	b	.LBB17_14
.Ltmp252:
.LBB17_14:
	.loc	1 0 9                           @ rt-thread/components/net/netdev/src/netdev.c:0:9
	mov.w	r0, #-1
	.loc	1 529 9 is_stmt 1               @ rt-thread/components/net/netdev/src/netdev.c:529:9
	str	r0, [sp, #12]
	b	.LBB17_16
.Ltmp253:
.LBB17_15:
	.loc	1 533 12                        @ rt-thread/components/net/netdev/src/netdev.c:533:12
	ldr	r0, [sp, #8]
	.loc	1 533 20 is_stmt 0              @ rt-thread/components/net/netdev/src/netdev.c:533:20
	ldr	r1, [r0, #48]
	.loc	1 533 25                        @ rt-thread/components/net/netdev/src/netdev.c:533:25
	ldr.w	r12, [r1, #8]
	.loc	1 533 78                        @ rt-thread/components/net/netdev/src/netdev.c:533:78
	ldr	r3, [sp, #4]
	movs	r2, #0
	.loc	1 533 12                        @ rt-thread/components/net/netdev/src/netdev.c:533:12
	mov	r1, r2
	blx	r12
	.loc	1 533 5                         @ rt-thread/components/net/netdev/src/netdev.c:533:5
	str	r0, [sp, #12]
	b	.LBB17_16
.LBB17_16:
	.loc	1 534 1 is_stmt 1               @ rt-thread/components/net/netdev/src/netdev.c:534:1
	ldr	r0, [sp, #12]
	add	sp, #16
	pop	{r7, pc}
.Ltmp254:
.Lfunc_end17:
	.size	netdev_set_gw, .Lfunc_end17-netdev_set_gw
	.cfi_endproc
	.cantunwind
	.fnend
                                        @ -- End function
	.section	.text.netdev_set_dns_server,"ax",%progbits
	.hidden	netdev_set_dns_server           @ -- Begin function netdev_set_dns_server
	.globl	netdev_set_dns_server
	.p2align	3
	.type	netdev_set_dns_server,%function
	.code	16                              @ @netdev_set_dns_server
	.thumb_func
netdev_set_dns_server:
.Lfunc_begin18:
	.loc	1 546 0                         @ rt-thread/components/net/netdev/src/netdev.c:546:0
	.fnstart
	.cfi_startproc
@ %bb.0:
	.save	{r7, lr}
	push	{r7, lr}
	.cfi_def_cfa_offset 8
	.cfi_offset lr, -4
	.cfi_offset r7, -8
	.pad	#16
	sub	sp, #16
	.cfi_def_cfa_offset 24
                                        @ kill: def $r3 killed $r1
	str	r0, [sp, #8]
	strb.w	r1, [sp, #7]
	str	r2, [sp]
.Ltmp255:
	.loc	1 547 5 prologue_end            @ rt-thread/components/net/netdev/src/netdev.c:547:5
	ldr	r0, [sp, #8]
.Ltmp256:
	.loc	1 547 5 is_stmt 0               @ rt-thread/components/net/netdev/src/netdev.c:547:5
	cbnz	r0, .LBB18_2
	b	.LBB18_1
.LBB18_1:
.Ltmp257:
	.loc	1 547 5                         @ rt-thread/components/net/netdev/src/netdev.c:547:5
	movw	r0, :lower16:.L.str
	movt	r0, :upper16:.L.str
	movw	r1, :lower16:.L__FUNCTION__.netdev_set_dns_server
	movt	r1, :upper16:.L__FUNCTION__.netdev_set_dns_server
	movw	r2, #547
	bl	rt_assert_handler
	b	.LBB18_2
.Ltmp258:
.LBB18_2:
	.loc	1 548 5 is_stmt 1               @ rt-thread/components/net/netdev/src/netdev.c:548:5
	ldr	r0, [sp]
.Ltmp259:
	.loc	1 548 5 is_stmt 0               @ rt-thread/components/net/netdev/src/netdev.c:548:5
	cbnz	r0, .LBB18_4
	b	.LBB18_3
.LBB18_3:
.Ltmp260:
	.loc	1 548 5                         @ rt-thread/components/net/netdev/src/netdev.c:548:5
	movw	r0, :lower16:.L.str.15
	movt	r0, :upper16:.L.str.15
	movw	r1, :lower16:.L__FUNCTION__.netdev_set_dns_server
	movt	r1, :upper16:.L__FUNCTION__.netdev_set_dns_server
	mov.w	r2, #548
	bl	rt_assert_handler
	b	.LBB18_4
.Ltmp261:
.LBB18_4:
	.loc	1 550 9 is_stmt 1               @ rt-thread/components/net/netdev/src/netdev.c:550:9
	ldrb.w	r0, [sp, #7]
.Ltmp262:
	.loc	1 550 9 is_stmt 0               @ rt-thread/components/net/netdev/src/netdev.c:550:9
	cmp	r0, #2
	blo	.LBB18_8
	b	.LBB18_5
.LBB18_5:
.Ltmp263:
	.loc	1 552 9 is_stmt 1               @ rt-thread/components/net/netdev/src/netdev.c:552:9
	b	.LBB18_6
.LBB18_6:
.Ltmp264:
	.loc	1 552 9 is_stmt 0               @ rt-thread/components/net/netdev/src/netdev.c:552:9
	movw	r0, :lower16:.L.str.2
	movt	r0, :upper16:.L.str.2
	bl	rt_kprintf
	ldrb.w	r0, [sp, #7]
	adds	r1, r0, #1
	movw	r0, :lower16:.L.str.16
	movt	r0, :upper16:.L.str.16
	movs	r2, #2
	bl	rt_kprintf
	movw	r0, :lower16:.L.str.4
	movt	r0, :upper16:.L.str.4
	bl	rt_kprintf
	b	.LBB18_7
.Ltmp265:
.LBB18_7:
	.loc	1 0 9                           @ rt-thread/components/net/netdev/src/netdev.c:0:9
	mov.w	r0, #-1
	.loc	1 553 9 is_stmt 1               @ rt-thread/components/net/netdev/src/netdev.c:553:9
	str	r0, [sp, #12]
	b	.LBB18_14
.Ltmp266:
.LBB18_8:
	.loc	1 556 10                        @ rt-thread/components/net/netdev/src/netdev.c:556:10
	ldr	r0, [sp, #8]
	.loc	1 556 18 is_stmt 0              @ rt-thread/components/net/netdev/src/netdev.c:556:18
	ldr	r0, [r0, #48]
	.loc	1 556 22                        @ rt-thread/components/net/netdev/src/netdev.c:556:22
	cbz	r0, .LBB18_10
	b	.LBB18_9
.LBB18_9:
	.loc	1 556 26                        @ rt-thread/components/net/netdev/src/netdev.c:556:26
	ldr	r0, [sp, #8]
	.loc	1 556 34                        @ rt-thread/components/net/netdev/src/netdev.c:556:34
	ldr	r0, [r0, #48]
	.loc	1 556 39                        @ rt-thread/components/net/netdev/src/netdev.c:556:39
	ldr	r0, [r0, #12]
.Ltmp267:
	.loc	1 556 9                         @ rt-thread/components/net/netdev/src/netdev.c:556:9
	cbnz	r0, .LBB18_13
	b	.LBB18_10
.LBB18_10:
.Ltmp268:
	.loc	1 558 9 is_stmt 1               @ rt-thread/components/net/netdev/src/netdev.c:558:9
	b	.LBB18_11
.LBB18_11:
.Ltmp269:
	.loc	1 558 9 is_stmt 0               @ rt-thread/components/net/netdev/src/netdev.c:558:9
	movw	r0, :lower16:.L.str.2
	movt	r0, :upper16:.L.str.2
	bl	rt_kprintf
	ldr	r0, [sp, #8]
	adds	r1, r0, #4
	movw	r0, :lower16:.L.str.17
	movt	r0, :upper16:.L.str.17
	bl	rt_kprintf
	movw	r0, :lower16:.L.str.4
	movt	r0, :upper16:.L.str.4
	bl	rt_kprintf
	b	.LBB18_12
.Ltmp270:
.LBB18_12:
	.loc	1 0 9                           @ rt-thread/components/net/netdev/src/netdev.c:0:9
	mov.w	r0, #-1
	.loc	1 559 9 is_stmt 1               @ rt-thread/components/net/netdev/src/netdev.c:559:9
	str	r0, [sp, #12]
	b	.LBB18_14
.Ltmp271:
.LBB18_13:
	.loc	1 563 12                        @ rt-thread/components/net/netdev/src/netdev.c:563:12
	ldr	r0, [sp, #8]
	.loc	1 563 20 is_stmt 0              @ rt-thread/components/net/netdev/src/netdev.c:563:20
	ldr	r1, [r0, #48]
	.loc	1 563 25                        @ rt-thread/components/net/netdev/src/netdev.c:563:25
	ldr	r3, [r1, #12]
	.loc	1 563 48                        @ rt-thread/components/net/netdev/src/netdev.c:563:48
	ldrb.w	r1, [sp, #7]
	.loc	1 563 70                        @ rt-thread/components/net/netdev/src/netdev.c:563:70
	ldr	r2, [sp]
	.loc	1 563 12                        @ rt-thread/components/net/netdev/src/netdev.c:563:12
	blx	r3
	.loc	1 563 5                         @ rt-thread/components/net/netdev/src/netdev.c:563:5
	str	r0, [sp, #12]
	b	.LBB18_14
.LBB18_14:
	.loc	1 564 1 is_stmt 1               @ rt-thread/components/net/netdev/src/netdev.c:564:1
	ldr	r0, [sp, #12]
	add	sp, #16
	pop	{r7, pc}
.Ltmp272:
.Lfunc_end18:
	.size	netdev_set_dns_server, .Lfunc_end18-netdev_set_dns_server
	.cfi_endproc
	.cantunwind
	.fnend
                                        @ -- End function
	.section	.text.netdev_set_status_callback,"ax",%progbits
	.hidden	netdev_set_status_callback      @ -- Begin function netdev_set_status_callback
	.globl	netdev_set_status_callback
	.p2align	3
	.type	netdev_set_status_callback,%function
	.code	16                              @ @netdev_set_status_callback
	.thumb_func
netdev_set_status_callback:
.Lfunc_begin19:
	.loc	1 573 0                         @ rt-thread/components/net/netdev/src/netdev.c:573:0
	.fnstart
	.cfi_startproc
@ %bb.0:
	.save	{r7, lr}
	push	{r7, lr}
	.cfi_def_cfa_offset 8
	.cfi_offset lr, -4
	.cfi_offset r7, -8
	.pad	#8
	sub	sp, #8
	.cfi_def_cfa_offset 16
	str	r0, [sp, #4]
	str	r1, [sp]
.Ltmp273:
	.loc	1 574 5 prologue_end            @ rt-thread/components/net/netdev/src/netdev.c:574:5
	ldr	r0, [sp, #4]
.Ltmp274:
	.loc	1 574 5 is_stmt 0               @ rt-thread/components/net/netdev/src/netdev.c:574:5
	cbnz	r0, .LBB19_2
	b	.LBB19_1
.LBB19_1:
.Ltmp275:
	.loc	1 574 5                         @ rt-thread/components/net/netdev/src/netdev.c:574:5
	movw	r0, :lower16:.L.str
	movt	r0, :upper16:.L.str
	movw	r1, :lower16:.L__FUNCTION__.netdev_set_status_callback
	movt	r1, :upper16:.L__FUNCTION__.netdev_set_status_callback
	movw	r2, #574
	bl	rt_assert_handler
	b	.LBB19_2
.Ltmp276:
.LBB19_2:
	.loc	1 575 5 is_stmt 1               @ rt-thread/components/net/netdev/src/netdev.c:575:5
	ldr	r0, [sp]
.Ltmp277:
	.loc	1 575 5 is_stmt 0               @ rt-thread/components/net/netdev/src/netdev.c:575:5
	cbnz	r0, .LBB19_4
	b	.LBB19_3
.LBB19_3:
.Ltmp278:
	.loc	1 575 5                         @ rt-thread/components/net/netdev/src/netdev.c:575:5
	movw	r0, :lower16:.L.str.18
	movt	r0, :upper16:.L.str.18
	movw	r1, :lower16:.L__FUNCTION__.netdev_set_status_callback
	movt	r1, :upper16:.L__FUNCTION__.netdev_set_status_callback
	movw	r2, #575
	bl	rt_assert_handler
	b	.LBB19_4
.Ltmp279:
.LBB19_4:
	.loc	1 577 31 is_stmt 1              @ rt-thread/components/net/netdev/src/netdev.c:577:31
	ldr	r0, [sp]
	.loc	1 577 5 is_stmt 0               @ rt-thread/components/net/netdev/src/netdev.c:577:5
	ldr	r1, [sp, #4]
	.loc	1 577 29                        @ rt-thread/components/net/netdev/src/netdev.c:577:29
	str	r0, [r1, #52]
	.loc	1 578 1 is_stmt 1               @ rt-thread/components/net/netdev/src/netdev.c:578:1
	add	sp, #8
	pop	{r7, pc}
.Ltmp280:
.Lfunc_end19:
	.size	netdev_set_status_callback, .Lfunc_end19-netdev_set_status_callback
	.cfi_endproc
	.cantunwind
	.fnend
                                        @ -- End function
	.section	.text.netdev_set_addr_callback,"ax",%progbits
	.hidden	netdev_set_addr_callback        @ -- Begin function netdev_set_addr_callback
	.globl	netdev_set_addr_callback
	.p2align	3
	.type	netdev_set_addr_callback,%function
	.code	16                              @ @netdev_set_addr_callback
	.thumb_func
netdev_set_addr_callback:
.Lfunc_begin20:
	.loc	1 587 0                         @ rt-thread/components/net/netdev/src/netdev.c:587:0
	.fnstart
	.cfi_startproc
@ %bb.0:
	.save	{r7, lr}
	push	{r7, lr}
	.cfi_def_cfa_offset 8
	.cfi_offset lr, -4
	.cfi_offset r7, -8
	.pad	#8
	sub	sp, #8
	.cfi_def_cfa_offset 16
	str	r0, [sp, #4]
	str	r1, [sp]
.Ltmp281:
	.loc	1 588 5 prologue_end            @ rt-thread/components/net/netdev/src/netdev.c:588:5
	ldr	r0, [sp, #4]
.Ltmp282:
	.loc	1 588 5 is_stmt 0               @ rt-thread/components/net/netdev/src/netdev.c:588:5
	cbnz	r0, .LBB20_2
	b	.LBB20_1
.LBB20_1:
.Ltmp283:
	.loc	1 588 5                         @ rt-thread/components/net/netdev/src/netdev.c:588:5
	movw	r0, :lower16:.L.str
	movt	r0, :upper16:.L.str
	movw	r1, :lower16:.L__FUNCTION__.netdev_set_addr_callback
	movt	r1, :upper16:.L__FUNCTION__.netdev_set_addr_callback
	mov.w	r2, #588
	bl	rt_assert_handler
	b	.LBB20_2
.Ltmp284:
.LBB20_2:
	.loc	1 589 5 is_stmt 1               @ rt-thread/components/net/netdev/src/netdev.c:589:5
	ldr	r0, [sp]
.Ltmp285:
	.loc	1 589 5 is_stmt 0               @ rt-thread/components/net/netdev/src/netdev.c:589:5
	cbnz	r0, .LBB20_4
	b	.LBB20_3
.LBB20_3:
.Ltmp286:
	.loc	1 589 5                         @ rt-thread/components/net/netdev/src/netdev.c:589:5
	movw	r0, :lower16:.L.str.19
	movt	r0, :upper16:.L.str.19
	movw	r1, :lower16:.L__FUNCTION__.netdev_set_addr_callback
	movt	r1, :upper16:.L__FUNCTION__.netdev_set_addr_callback
	movw	r2, #589
	bl	rt_assert_handler
	b	.LBB20_4
.Ltmp287:
.LBB20_4:
	.loc	1 591 29 is_stmt 1              @ rt-thread/components/net/netdev/src/netdev.c:591:29
	ldr	r0, [sp]
	.loc	1 591 5 is_stmt 0               @ rt-thread/components/net/netdev/src/netdev.c:591:5
	ldr	r1, [sp, #4]
	.loc	1 591 27                        @ rt-thread/components/net/netdev/src/netdev.c:591:27
	str	r0, [r1, #56]
	.loc	1 592 1 is_stmt 1               @ rt-thread/components/net/netdev/src/netdev.c:592:1
	add	sp, #8
	pop	{r7, pc}
.Ltmp288:
.Lfunc_end20:
	.size	netdev_set_addr_callback, .Lfunc_end20-netdev_set_addr_callback
	.cfi_endproc
	.cantunwind
	.fnend
                                        @ -- End function
	.section	.text.netdev_low_level_set_ipaddr,"ax",%progbits
	.hidden	netdev_low_level_set_ipaddr     @ -- Begin function netdev_low_level_set_ipaddr
	.globl	netdev_low_level_set_ipaddr
	.p2align	3
	.type	netdev_low_level_set_ipaddr,%function
	.code	16                              @ @netdev_low_level_set_ipaddr
	.thumb_func
netdev_low_level_set_ipaddr:
.Lfunc_begin21:
	.loc	1 603 0                         @ rt-thread/components/net/netdev/src/netdev.c:603:0
	.fnstart
	.cfi_startproc
@ %bb.0:
	.save	{r7, lr}
	push	{r7, lr}
	.cfi_def_cfa_offset 8
	.cfi_offset lr, -4
	.cfi_offset r7, -8
	.pad	#8
	sub	sp, #8
	.cfi_def_cfa_offset 16
	str	r0, [sp, #4]
	str	r1, [sp]
.Ltmp289:
	.loc	1 604 5 prologue_end            @ rt-thread/components/net/netdev/src/netdev.c:604:5
	ldr	r0, [sp]
.Ltmp290:
	.loc	1 604 5 is_stmt 0               @ rt-thread/components/net/netdev/src/netdev.c:604:5
	cbnz	r0, .LBB21_2
	b	.LBB21_1
.LBB21_1:
.Ltmp291:
	.loc	1 604 5                         @ rt-thread/components/net/netdev/src/netdev.c:604:5
	movw	r0, :lower16:.L.str.6
	movt	r0, :upper16:.L.str.6
	movw	r1, :lower16:.L__FUNCTION__.netdev_low_level_set_ipaddr
	movt	r1, :upper16:.L__FUNCTION__.netdev_low_level_set_ipaddr
	mov.w	r2, #604
	bl	rt_assert_handler
	b	.LBB21_2
.Ltmp292:
.LBB21_2:
	.loc	1 606 9 is_stmt 1               @ rt-thread/components/net/netdev/src/netdev.c:606:9
	ldr	r0, [sp, #4]
	.loc	1 606 16 is_stmt 0              @ rt-thread/components/net/netdev/src/netdev.c:606:16
	cbz	r0, .LBB21_14
	b	.LBB21_3
.LBB21_3:
	.loc	1 606 19                        @ rt-thread/components/net/netdev/src/netdev.c:606:19
	ldr	r0, [sp, #4]
	ldr	r0, [r0, #12]
	ldr	r1, [sp]
	ldr	r1, [r1]
.Ltmp293:
	.loc	1 606 9                         @ rt-thread/components/net/netdev/src/netdev.c:606:9
	cmp	r0, r1
	beq	.LBB21_14
	b	.LBB21_4
.LBB21_4:
.Ltmp294:
	.loc	1 608 9 is_stmt 1               @ rt-thread/components/net/netdev/src/netdev.c:608:9
	ldr	r0, [sp]
	ldr	r0, [r0]
	ldr	r1, [sp, #4]
	str	r0, [r1, #12]
.Ltmp295:
	.loc	1 612 13                        @ rt-thread/components/net/netdev/src/netdev.c:612:13
	ldr	r0, [sp, #4]
	ldrh	r0, [r0, #42]
	.loc	1 612 34 is_stmt 0              @ rt-thread/components/net/netdev/src/netdev.c:612:34
	lsls	r0, r0, #31
	cbz	r0, .LBB21_6
	b	.LBB21_5
.LBB21_5:
	.loc	1 0 34                          @ rt-thread/components/net/netdev/src/netdev.c:0:34
	movs	r0, #1
	.loc	1 612 13                        @ rt-thread/components/net/netdev/src/netdev.c:612:13
	cbnz	r0, .LBB21_7
	b	.LBB21_11
.LBB21_6:
	.loc	1 0 13                          @ rt-thread/components/net/netdev/src/netdev.c:0:13
	movs	r0, #1
	.loc	1 612 34                        @ rt-thread/components/net/netdev/src/netdev.c:612:34
	cbnz	r0, .LBB21_11
	b	.LBB21_7
.LBB21_7:
	.loc	1 612 37                        @ rt-thread/components/net/netdev/src/netdev.c:612:37
	ldr	r0, [sp, #4]
	ldrh	r0, [r0, #42]
.Ltmp296:
	.loc	1 612 13                        @ rt-thread/components/net/netdev/src/netdev.c:612:13
	lsls	r0, r0, #29
	cmp	r0, #0
	bpl	.LBB21_9
	b	.LBB21_8
.LBB21_8:
	.loc	1 0 13                          @ rt-thread/components/net/netdev/src/netdev.c:0:13
	movs	r0, #1
.Ltmp297:
	.loc	1 612 37                        @ rt-thread/components/net/netdev/src/netdev.c:612:37
	cbnz	r0, .LBB21_10
	b	.LBB21_11
.Ltmp298:
.LBB21_9:
	.loc	1 0 37                          @ rt-thread/components/net/netdev/src/netdev.c:0:37
	movs	r0, #1
	.loc	1 612 13                        @ rt-thread/components/net/netdev/src/netdev.c:612:13
	cbnz	r0, .LBB21_11
	b	.LBB21_10
.LBB21_10:
.Ltmp299:
	.loc	1 614 42 is_stmt 1              @ rt-thread/components/net/netdev/src/netdev.c:614:42
	ldr	r0, [sp, #4]
	.loc	1 614 13 is_stmt 0              @ rt-thread/components/net/netdev/src/netdev.c:614:13
	bl	sal_check_netdev_internet_up
	.loc	1 615 9 is_stmt 1               @ rt-thread/components/net/netdev/src/netdev.c:615:9
	b	.LBB21_11
.Ltmp300:
.LBB21_11:
	.loc	1 619 13                        @ rt-thread/components/net/netdev/src/netdev.c:619:13
	ldr	r0, [sp, #4]
	.loc	1 619 21 is_stmt 0              @ rt-thread/components/net/netdev/src/netdev.c:619:21
	ldr	r0, [r0, #56]
.Ltmp301:
	.loc	1 619 13                        @ rt-thread/components/net/netdev/src/netdev.c:619:13
	cbz	r0, .LBB21_13
	b	.LBB21_12
.LBB21_12:
.Ltmp302:
	.loc	1 621 13 is_stmt 1              @ rt-thread/components/net/netdev/src/netdev.c:621:13
	ldr	r0, [sp, #4]
	.loc	1 621 21 is_stmt 0              @ rt-thread/components/net/netdev/src/netdev.c:621:21
	ldr	r2, [r0, #56]
	movs	r1, #0
	.loc	1 621 13                        @ rt-thread/components/net/netdev/src/netdev.c:621:13
	blx	r2
	.loc	1 622 9 is_stmt 1               @ rt-thread/components/net/netdev/src/netdev.c:622:9
	b	.LBB21_13
.Ltmp303:
.LBB21_13:
	.loc	1 623 5                         @ rt-thread/components/net/netdev/src/netdev.c:623:5
	b	.LBB21_14
.Ltmp304:
.LBB21_14:
	.loc	1 624 1                         @ rt-thread/components/net/netdev/src/netdev.c:624:1
	add	sp, #8
	pop	{r7, pc}
.Ltmp305:
.Lfunc_end21:
	.size	netdev_low_level_set_ipaddr, .Lfunc_end21-netdev_low_level_set_ipaddr
	.cfi_endproc
	.cantunwind
	.fnend
                                        @ -- End function
	.section	.text.netdev_low_level_set_netmask,"ax",%progbits
	.hidden	netdev_low_level_set_netmask    @ -- Begin function netdev_low_level_set_netmask
	.globl	netdev_low_level_set_netmask
	.p2align	3
	.type	netdev_low_level_set_netmask,%function
	.code	16                              @ @netdev_low_level_set_netmask
	.thumb_func
netdev_low_level_set_netmask:
.Lfunc_begin22:
	.loc	1 634 0                         @ rt-thread/components/net/netdev/src/netdev.c:634:0
	.fnstart
	.cfi_startproc
@ %bb.0:
	.save	{r7, lr}
	push	{r7, lr}
	.cfi_def_cfa_offset 8
	.cfi_offset lr, -4
	.cfi_offset r7, -8
	.pad	#8
	sub	sp, #8
	.cfi_def_cfa_offset 16
	str	r0, [sp, #4]
	str	r1, [sp]
.Ltmp306:
	.loc	1 635 5 prologue_end            @ rt-thread/components/net/netdev/src/netdev.c:635:5
	ldr	r0, [sp]
.Ltmp307:
	.loc	1 635 5 is_stmt 0               @ rt-thread/components/net/netdev/src/netdev.c:635:5
	cbnz	r0, .LBB22_2
	b	.LBB22_1
.LBB22_1:
.Ltmp308:
	.loc	1 635 5                         @ rt-thread/components/net/netdev/src/netdev.c:635:5
	movw	r0, :lower16:.L.str.9
	movt	r0, :upper16:.L.str.9
	movw	r1, :lower16:.L__FUNCTION__.netdev_low_level_set_netmask
	movt	r1, :upper16:.L__FUNCTION__.netdev_low_level_set_netmask
	movw	r2, #635
	bl	rt_assert_handler
	b	.LBB22_2
.Ltmp309:
.LBB22_2:
	.loc	1 637 9 is_stmt 1               @ rt-thread/components/net/netdev/src/netdev.c:637:9
	ldr	r0, [sp, #4]
	.loc	1 637 16 is_stmt 0              @ rt-thread/components/net/netdev/src/netdev.c:637:16
	cbz	r0, .LBB22_16
	b	.LBB22_3
.LBB22_3:
	.loc	1 637 19                        @ rt-thread/components/net/netdev/src/netdev.c:637:19
	ldr	r0, [sp, #4]
	ldr	r0, [r0, #16]
	ldr	r1, [sp]
	ldr	r1, [r1]
.Ltmp310:
	.loc	1 637 9                         @ rt-thread/components/net/netdev/src/netdev.c:637:9
	cmp	r0, r1
	beq	.LBB22_16
	b	.LBB22_4
.LBB22_4:
.Ltmp311:
	.loc	1 639 9 is_stmt 1               @ rt-thread/components/net/netdev/src/netdev.c:639:9
	ldr	r0, [sp]
	ldr	r0, [r0]
	ldr	r1, [sp, #4]
	str	r0, [r1, #16]
.Ltmp312:
	.loc	1 643 13                        @ rt-thread/components/net/netdev/src/netdev.c:643:13
	ldr	r0, [sp, #4]
	ldrh	r0, [r0, #42]
	.loc	1 643 34 is_stmt 0              @ rt-thread/components/net/netdev/src/netdev.c:643:34
	lsls	r0, r0, #31
	cbz	r0, .LBB22_6
	b	.LBB22_5
.LBB22_5:
	.loc	1 0 34                          @ rt-thread/components/net/netdev/src/netdev.c:0:34
	movs	r0, #1
	.loc	1 643 13                        @ rt-thread/components/net/netdev/src/netdev.c:643:13
	cbnz	r0, .LBB22_7
	b	.LBB22_13
.LBB22_6:
	.loc	1 0 13                          @ rt-thread/components/net/netdev/src/netdev.c:0:13
	movs	r0, #1
	.loc	1 643 34                        @ rt-thread/components/net/netdev/src/netdev.c:643:34
	cbnz	r0, .LBB22_13
	b	.LBB22_7
.LBB22_7:
	.loc	1 643 37                        @ rt-thread/components/net/netdev/src/netdev.c:643:37
	ldr	r0, [sp, #4]
	ldrh	r0, [r0, #42]
	.loc	1 643 63                        @ rt-thread/components/net/netdev/src/netdev.c:643:63
	lsls	r0, r0, #29
	cmp	r0, #0
	bpl	.LBB22_9
	b	.LBB22_8
.LBB22_8:
	.loc	1 0 63                          @ rt-thread/components/net/netdev/src/netdev.c:0:63
	movs	r0, #1
	.loc	1 643 37                        @ rt-thread/components/net/netdev/src/netdev.c:643:37
	cbnz	r0, .LBB22_10
	b	.LBB22_13
.LBB22_9:
	.loc	1 0 37                          @ rt-thread/components/net/netdev/src/netdev.c:0:37
	movs	r0, #1
	.loc	1 643 63                        @ rt-thread/components/net/netdev/src/netdev.c:643:63
	cbnz	r0, .LBB22_13
	b	.LBB22_10
.LBB22_10:
	.loc	1 644 18 is_stmt 1              @ rt-thread/components/net/netdev/src/netdev.c:644:18
	ldr	r0, [sp, #4]
	adds	r0, #12
	cbz	r0, .LBB22_13
	b	.LBB22_11
.LBB22_11:
	ldr	r0, [sp, #4]
	ldr	r0, [r0, #12]
.Ltmp313:
	.loc	1 643 13                        @ rt-thread/components/net/netdev/src/netdev.c:643:13
	cbz	r0, .LBB22_13
	b	.LBB22_12
.LBB22_12:
.Ltmp314:
	.loc	1 646 42                        @ rt-thread/components/net/netdev/src/netdev.c:646:42
	ldr	r0, [sp, #4]
	.loc	1 646 13 is_stmt 0              @ rt-thread/components/net/netdev/src/netdev.c:646:13
	bl	sal_check_netdev_internet_up
	.loc	1 647 9 is_stmt 1               @ rt-thread/components/net/netdev/src/netdev.c:647:9
	b	.LBB22_13
.Ltmp315:
.LBB22_13:
	.loc	1 651 13                        @ rt-thread/components/net/netdev/src/netdev.c:651:13
	ldr	r0, [sp, #4]
	.loc	1 651 21 is_stmt 0              @ rt-thread/components/net/netdev/src/netdev.c:651:21
	ldr	r0, [r0, #56]
.Ltmp316:
	.loc	1 651 13                        @ rt-thread/components/net/netdev/src/netdev.c:651:13
	cbz	r0, .LBB22_15
	b	.LBB22_14
.LBB22_14:
.Ltmp317:
	.loc	1 653 13 is_stmt 1              @ rt-thread/components/net/netdev/src/netdev.c:653:13
	ldr	r0, [sp, #4]
	.loc	1 653 21 is_stmt 0              @ rt-thread/components/net/netdev/src/netdev.c:653:21
	ldr	r2, [r0, #56]
	movs	r1, #1
	.loc	1 653 13                        @ rt-thread/components/net/netdev/src/netdev.c:653:13
	blx	r2
	.loc	1 654 9 is_stmt 1               @ rt-thread/components/net/netdev/src/netdev.c:654:9
	b	.LBB22_15
.Ltmp318:
.LBB22_15:
	.loc	1 655 5                         @ rt-thread/components/net/netdev/src/netdev.c:655:5
	b	.LBB22_16
.Ltmp319:
.LBB22_16:
	.loc	1 656 1                         @ rt-thread/components/net/netdev/src/netdev.c:656:1
	add	sp, #8
	pop	{r7, pc}
.Ltmp320:
.Lfunc_end22:
	.size	netdev_low_level_set_netmask, .Lfunc_end22-netdev_low_level_set_netmask
	.cfi_endproc
	.cantunwind
	.fnend
                                        @ -- End function
	.section	.text.netdev_low_level_set_gw,"ax",%progbits
	.hidden	netdev_low_level_set_gw         @ -- Begin function netdev_low_level_set_gw
	.globl	netdev_low_level_set_gw
	.p2align	3
	.type	netdev_low_level_set_gw,%function
	.code	16                              @ @netdev_low_level_set_gw
	.thumb_func
netdev_low_level_set_gw:
.Lfunc_begin23:
	.loc	1 666 0                         @ rt-thread/components/net/netdev/src/netdev.c:666:0
	.fnstart
	.cfi_startproc
@ %bb.0:
	.save	{r7, lr}
	push	{r7, lr}
	.cfi_def_cfa_offset 8
	.cfi_offset lr, -4
	.cfi_offset r7, -8
	.pad	#8
	sub	sp, #8
	.cfi_def_cfa_offset 16
	str	r0, [sp, #4]
	str	r1, [sp]
.Ltmp321:
	.loc	1 667 5 prologue_end            @ rt-thread/components/net/netdev/src/netdev.c:667:5
	ldr	r0, [sp]
.Ltmp322:
	.loc	1 667 5 is_stmt 0               @ rt-thread/components/net/netdev/src/netdev.c:667:5
	cbnz	r0, .LBB23_2
	b	.LBB23_1
.LBB23_1:
.Ltmp323:
	.loc	1 667 5                         @ rt-thread/components/net/netdev/src/netdev.c:667:5
	movw	r0, :lower16:.L.str.12
	movt	r0, :upper16:.L.str.12
	movw	r1, :lower16:.L__FUNCTION__.netdev_low_level_set_gw
	movt	r1, :upper16:.L__FUNCTION__.netdev_low_level_set_gw
	movw	r2, #667
	bl	rt_assert_handler
	b	.LBB23_2
.Ltmp324:
.LBB23_2:
	.loc	1 669 9 is_stmt 1               @ rt-thread/components/net/netdev/src/netdev.c:669:9
	ldr	r0, [sp, #4]
	.loc	1 669 16 is_stmt 0              @ rt-thread/components/net/netdev/src/netdev.c:669:16
	cbz	r0, .LBB23_16
	b	.LBB23_3
.LBB23_3:
	.loc	1 669 19                        @ rt-thread/components/net/netdev/src/netdev.c:669:19
	ldr	r0, [sp, #4]
	ldr	r0, [r0, #20]
	ldr	r1, [sp]
	ldr	r1, [r1]
.Ltmp325:
	.loc	1 669 9                         @ rt-thread/components/net/netdev/src/netdev.c:669:9
	cmp	r0, r1
	beq	.LBB23_16
	b	.LBB23_4
.LBB23_4:
.Ltmp326:
	.loc	1 671 9 is_stmt 1               @ rt-thread/components/net/netdev/src/netdev.c:671:9
	ldr	r0, [sp]
	ldr	r0, [r0]
	ldr	r1, [sp, #4]
	str	r0, [r1, #20]
.Ltmp327:
	.loc	1 675 13                        @ rt-thread/components/net/netdev/src/netdev.c:675:13
	ldr	r0, [sp, #4]
	ldrh	r0, [r0, #42]
	.loc	1 675 34 is_stmt 0              @ rt-thread/components/net/netdev/src/netdev.c:675:34
	lsls	r0, r0, #31
	cbz	r0, .LBB23_6
	b	.LBB23_5
.LBB23_5:
	.loc	1 0 34                          @ rt-thread/components/net/netdev/src/netdev.c:0:34
	movs	r0, #1
	.loc	1 675 13                        @ rt-thread/components/net/netdev/src/netdev.c:675:13
	cbnz	r0, .LBB23_7
	b	.LBB23_13
.LBB23_6:
	.loc	1 0 13                          @ rt-thread/components/net/netdev/src/netdev.c:0:13
	movs	r0, #1
	.loc	1 675 34                        @ rt-thread/components/net/netdev/src/netdev.c:675:34
	cbnz	r0, .LBB23_13
	b	.LBB23_7
.LBB23_7:
	.loc	1 675 37                        @ rt-thread/components/net/netdev/src/netdev.c:675:37
	ldr	r0, [sp, #4]
	ldrh	r0, [r0, #42]
	.loc	1 675 63                        @ rt-thread/components/net/netdev/src/netdev.c:675:63
	lsls	r0, r0, #29
	cmp	r0, #0
	bpl	.LBB23_9
	b	.LBB23_8
.LBB23_8:
	.loc	1 0 63                          @ rt-thread/components/net/netdev/src/netdev.c:0:63
	movs	r0, #1
	.loc	1 675 37                        @ rt-thread/components/net/netdev/src/netdev.c:675:37
	cbnz	r0, .LBB23_10
	b	.LBB23_13
.LBB23_9:
	.loc	1 0 37                          @ rt-thread/components/net/netdev/src/netdev.c:0:37
	movs	r0, #1
	.loc	1 675 63                        @ rt-thread/components/net/netdev/src/netdev.c:675:63
	cbnz	r0, .LBB23_13
	b	.LBB23_10
.LBB23_10:
	.loc	1 676 18 is_stmt 1              @ rt-thread/components/net/netdev/src/netdev.c:676:18
	ldr	r0, [sp, #4]
	adds	r0, #12
	cbz	r0, .LBB23_13
	b	.LBB23_11
.LBB23_11:
	ldr	r0, [sp, #4]
	ldr	r0, [r0, #12]
.Ltmp328:
	.loc	1 675 13                        @ rt-thread/components/net/netdev/src/netdev.c:675:13
	cbz	r0, .LBB23_13
	b	.LBB23_12
.LBB23_12:
.Ltmp329:
	.loc	1 678 42                        @ rt-thread/components/net/netdev/src/netdev.c:678:42
	ldr	r0, [sp, #4]
	.loc	1 678 13 is_stmt 0              @ rt-thread/components/net/netdev/src/netdev.c:678:13
	bl	sal_check_netdev_internet_up
	.loc	1 679 9 is_stmt 1               @ rt-thread/components/net/netdev/src/netdev.c:679:9
	b	.LBB23_13
.Ltmp330:
.LBB23_13:
	.loc	1 683 13                        @ rt-thread/components/net/netdev/src/netdev.c:683:13
	ldr	r0, [sp, #4]
	.loc	1 683 21 is_stmt 0              @ rt-thread/components/net/netdev/src/netdev.c:683:21
	ldr	r0, [r0, #56]
.Ltmp331:
	.loc	1 683 13                        @ rt-thread/components/net/netdev/src/netdev.c:683:13
	cbz	r0, .LBB23_15
	b	.LBB23_14
.LBB23_14:
.Ltmp332:
	.loc	1 685 13 is_stmt 1              @ rt-thread/components/net/netdev/src/netdev.c:685:13
	ldr	r0, [sp, #4]
	.loc	1 685 21 is_stmt 0              @ rt-thread/components/net/netdev/src/netdev.c:685:21
	ldr	r2, [r0, #56]
	movs	r1, #2
	.loc	1 685 13                        @ rt-thread/components/net/netdev/src/netdev.c:685:13
	blx	r2
	.loc	1 686 9 is_stmt 1               @ rt-thread/components/net/netdev/src/netdev.c:686:9
	b	.LBB23_15
.Ltmp333:
.LBB23_15:
	.loc	1 687 5                         @ rt-thread/components/net/netdev/src/netdev.c:687:5
	b	.LBB23_16
.Ltmp334:
.LBB23_16:
	.loc	1 688 1                         @ rt-thread/components/net/netdev/src/netdev.c:688:1
	add	sp, #8
	pop	{r7, pc}
.Ltmp335:
.Lfunc_end23:
	.size	netdev_low_level_set_gw, .Lfunc_end23-netdev_low_level_set_gw
	.cfi_endproc
	.cantunwind
	.fnend
                                        @ -- End function
	.section	.text.netdev_low_level_set_dns_server,"ax",%progbits
	.hidden	netdev_low_level_set_dns_server @ -- Begin function netdev_low_level_set_dns_server
	.globl	netdev_low_level_set_dns_server
	.p2align	3
	.type	netdev_low_level_set_dns_server,%function
	.code	16                              @ @netdev_low_level_set_dns_server
	.thumb_func
netdev_low_level_set_dns_server:
.Lfunc_begin24:
	.loc	1 699 0                         @ rt-thread/components/net/netdev/src/netdev.c:699:0
	.fnstart
	.cfi_startproc
@ %bb.0:
	.save	{r7, lr}
	push	{r7, lr}
	.cfi_def_cfa_offset 8
	.cfi_offset lr, -4
	.cfi_offset r7, -8
	.pad	#16
	sub	sp, #16
	.cfi_def_cfa_offset 24
                                        @ kill: def $r3 killed $r1
	str	r0, [sp, #12]
	strb.w	r1, [sp, #11]
	str	r2, [sp, #4]
.Ltmp336:
	.loc	1 702 5 prologue_end            @ rt-thread/components/net/netdev/src/netdev.c:702:5
	ldr	r0, [sp, #4]
.Ltmp337:
	.loc	1 702 5 is_stmt 0               @ rt-thread/components/net/netdev/src/netdev.c:702:5
	cbnz	r0, .LBB24_2
	b	.LBB24_1
.LBB24_1:
.Ltmp338:
	.loc	1 702 5                         @ rt-thread/components/net/netdev/src/netdev.c:702:5
	movw	r0, :lower16:.L.str.15
	movt	r0, :upper16:.L.str.15
	movw	r1, :lower16:.L__FUNCTION__.netdev_low_level_set_dns_server
	movt	r1, :upper16:.L__FUNCTION__.netdev_low_level_set_dns_server
	movw	r2, #702
	bl	rt_assert_handler
	b	.LBB24_2
.Ltmp339:
.LBB24_2:
	.loc	1 704 9 is_stmt 1               @ rt-thread/components/net/netdev/src/netdev.c:704:9
	ldr	r0, [sp, #12]
.Ltmp340:
	.loc	1 704 9 is_stmt 0               @ rt-thread/components/net/netdev/src/netdev.c:704:9
	cbnz	r0, .LBB24_4
	b	.LBB24_3
.LBB24_3:
.Ltmp341:
	.loc	1 706 9 is_stmt 1               @ rt-thread/components/net/netdev/src/netdev.c:706:9
	b	.LBB24_14
.Ltmp342:
.LBB24_4:
	.loc	1 0 9 is_stmt 0                 @ rt-thread/components/net/netdev/src/netdev.c:0:9
	movs	r0, #0
.Ltmp343:
	.loc	1 709 16 is_stmt 1              @ rt-thread/components/net/netdev/src/netdev.c:709:16
	str	r0, [sp]
	.loc	1 709 10 is_stmt 0              @ rt-thread/components/net/netdev/src/netdev.c:709:10
	b	.LBB24_5
.LBB24_5:                               @ =>This Inner Loop Header: Depth=1
.Ltmp344:
	.loc	1 709 21                        @ rt-thread/components/net/netdev/src/netdev.c:709:21
	ldr	r0, [sp]
.Ltmp345:
	.loc	1 709 5                         @ rt-thread/components/net/netdev/src/netdev.c:709:5
	cmp	r0, #1
	bhi	.LBB24_10
	b	.LBB24_6
.LBB24_6:                               @   in Loop: Header=BB24_5 Depth=1
.Ltmp346:
	.loc	1 711 13 is_stmt 1              @ rt-thread/components/net/netdev/src/netdev.c:711:13
	ldr	r0, [sp, #12]
	ldr	r1, [sp]
	add.w	r0, r0, r1, lsl #2
	ldr	r0, [r0, #24]
	ldr	r1, [sp, #4]
	ldr	r1, [r1]
.Ltmp347:
	.loc	1 711 13 is_stmt 0              @ rt-thread/components/net/netdev/src/netdev.c:711:13
	cmp	r0, r1
	bne	.LBB24_8
	b	.LBB24_7
.LBB24_7:
.Ltmp348:
	.loc	1 713 13 is_stmt 1              @ rt-thread/components/net/netdev/src/netdev.c:713:13
	b	.LBB24_14
.Ltmp349:
.LBB24_8:                               @   in Loop: Header=BB24_5 Depth=1
	.loc	1 715 5                         @ rt-thread/components/net/netdev/src/netdev.c:715:5
	b	.LBB24_9
.Ltmp350:
.LBB24_9:                               @   in Loop: Header=BB24_5 Depth=1
	.loc	1 709 58                        @ rt-thread/components/net/netdev/src/netdev.c:709:58
	ldr	r0, [sp]
	adds	r0, #1
	str	r0, [sp]
	.loc	1 709 5 is_stmt 0               @ rt-thread/components/net/netdev/src/netdev.c:709:5
	b	.LBB24_5
.Ltmp351:
.LBB24_10:
	.loc	1 717 9 is_stmt 1               @ rt-thread/components/net/netdev/src/netdev.c:717:9
	ldrb.w	r0, [sp, #11]
.Ltmp352:
	.loc	1 717 9 is_stmt 0               @ rt-thread/components/net/netdev/src/netdev.c:717:9
	cmp	r0, #1
	bhi	.LBB24_14
	b	.LBB24_11
.LBB24_11:
.Ltmp353:
	.loc	1 719 9 is_stmt 1               @ rt-thread/components/net/netdev/src/netdev.c:719:9
	ldr	r0, [sp, #4]
	ldr	r0, [r0]
	ldr	r1, [sp, #12]
	ldrb.w	r2, [sp, #11]
	add.w	r1, r1, r2, lsl #2
	str	r0, [r1, #24]
.Ltmp354:
	.loc	1 722 13                        @ rt-thread/components/net/netdev/src/netdev.c:722:13
	ldr	r0, [sp, #12]
	.loc	1 722 21 is_stmt 0              @ rt-thread/components/net/netdev/src/netdev.c:722:21
	ldr	r0, [r0, #56]
.Ltmp355:
	.loc	1 722 13                        @ rt-thread/components/net/netdev/src/netdev.c:722:13
	cbz	r0, .LBB24_13
	b	.LBB24_12
.LBB24_12:
.Ltmp356:
	.loc	1 724 13 is_stmt 1              @ rt-thread/components/net/netdev/src/netdev.c:724:13
	ldr	r0, [sp, #12]
	.loc	1 724 21 is_stmt 0              @ rt-thread/components/net/netdev/src/netdev.c:724:21
	ldr	r2, [r0, #56]
	movs	r1, #3
	.loc	1 724 13                        @ rt-thread/components/net/netdev/src/netdev.c:724:13
	blx	r2
	.loc	1 725 9 is_stmt 1               @ rt-thread/components/net/netdev/src/netdev.c:725:9
	b	.LBB24_13
.Ltmp357:
.LBB24_13:
	.loc	1 726 5                         @ rt-thread/components/net/netdev/src/netdev.c:726:5
	b	.LBB24_14
.Ltmp358:
.LBB24_14:
	.loc	1 727 1                         @ rt-thread/components/net/netdev/src/netdev.c:727:1
	add	sp, #16
	pop	{r7, pc}
.Ltmp359:
.Lfunc_end24:
	.size	netdev_low_level_set_dns_server, .Lfunc_end24-netdev_low_level_set_dns_server
	.cfi_endproc
	.cantunwind
	.fnend
                                        @ -- End function
	.section	.text.netdev_low_level_set_status,"ax",%progbits
	.hidden	netdev_low_level_set_status     @ -- Begin function netdev_low_level_set_status
	.globl	netdev_low_level_set_status
	.p2align	3
	.type	netdev_low_level_set_status,%function
	.code	16                              @ @netdev_low_level_set_status
	.thumb_func
netdev_low_level_set_status:
.Lfunc_begin25:
	.loc	1 754 0                         @ rt-thread/components/net/netdev/src/netdev.c:754:0
	.fnstart
	.cfi_startproc
@ %bb.0:
	.save	{r7, lr}
	push	{r7, lr}
	.cfi_def_cfa_offset 8
	.cfi_offset lr, -4
	.cfi_offset r7, -8
	.pad	#8
	sub	sp, #8
	.cfi_def_cfa_offset 16
	str	r0, [sp, #4]
	str	r1, [sp]
.Ltmp360:
	.loc	1 755 9 prologue_end            @ rt-thread/components/net/netdev/src/netdev.c:755:9
	ldr	r0, [sp, #4]
	.loc	1 755 16 is_stmt 0              @ rt-thread/components/net/netdev/src/netdev.c:755:16
	cbz	r0, .LBB25_8
	b	.LBB25_1
.LBB25_1:
	.loc	1 755 19                        @ rt-thread/components/net/netdev/src/netdev.c:755:19
	ldr	r0, [sp, #4]
	ldrh	r0, [r0, #42]
	and	r0, r0, #1
	.loc	1 755 43                        @ rt-thread/components/net/netdev/src/netdev.c:755:43
	ldr	r1, [sp]
.Ltmp361:
	.loc	1 755 9                         @ rt-thread/components/net/netdev/src/netdev.c:755:9
	cmp	r0, r1
	beq	.LBB25_8
	b	.LBB25_2
.LBB25_2:
.Ltmp362:
	.loc	1 757 13 is_stmt 1              @ rt-thread/components/net/netdev/src/netdev.c:757:13
	ldr	r0, [sp]
.Ltmp363:
	.loc	1 757 13 is_stmt 0              @ rt-thread/components/net/netdev/src/netdev.c:757:13
	cbz	r0, .LBB25_4
	b	.LBB25_3
.LBB25_3:
.Ltmp364:
	.loc	1 759 13 is_stmt 1              @ rt-thread/components/net/netdev/src/netdev.c:759:13
	ldr	r1, [sp, #4]
	.loc	1 759 27 is_stmt 0              @ rt-thread/components/net/netdev/src/netdev.c:759:27
	ldrh	r0, [r1, #42]
	orr	r0, r0, #1
	strh	r0, [r1, #42]
	.loc	1 760 9 is_stmt 1               @ rt-thread/components/net/netdev/src/netdev.c:760:9
	b	.LBB25_5
.Ltmp365:
.LBB25_4:
	.loc	1 763 13                        @ rt-thread/components/net/netdev/src/netdev.c:763:13
	ldr	r1, [sp, #4]
	.loc	1 763 27 is_stmt 0              @ rt-thread/components/net/netdev/src/netdev.c:763:27
	ldrh	r0, [r1, #42]
	bic	r0, r0, #1
	strh	r0, [r1, #42]
	.loc	1 767 40 is_stmt 1              @ rt-thread/components/net/netdev/src/netdev.c:767:40
	ldr	r0, [sp, #4]
	.loc	1 767 13 is_stmt 0              @ rt-thread/components/net/netdev/src/netdev.c:767:13
	bl	netdev_auto_change_default
	b	.LBB25_5
.Ltmp366:
.LBB25_5:
	.loc	1 772 13 is_stmt 1              @ rt-thread/components/net/netdev/src/netdev.c:772:13
	ldr	r0, [sp, #4]
	.loc	1 772 21 is_stmt 0              @ rt-thread/components/net/netdev/src/netdev.c:772:21
	ldr	r0, [r0, #52]
.Ltmp367:
	.loc	1 772 13                        @ rt-thread/components/net/netdev/src/netdev.c:772:13
	cbz	r0, .LBB25_7
	b	.LBB25_6
.LBB25_6:
.Ltmp368:
	.loc	1 774 13 is_stmt 1              @ rt-thread/components/net/netdev/src/netdev.c:774:13
	ldr	r0, [sp, #4]
	.loc	1 774 21 is_stmt 0              @ rt-thread/components/net/netdev/src/netdev.c:774:21
	ldr	r2, [r0, #52]
	.loc	1 774 45                        @ rt-thread/components/net/netdev/src/netdev.c:774:45
	ldr	r3, [sp]
	movs	r1, #5
	cmp	r3, #0
	it	ne
	movne	r1, #4
	.loc	1 774 13                        @ rt-thread/components/net/netdev/src/netdev.c:774:13
	blx	r2
	.loc	1 775 9 is_stmt 1               @ rt-thread/components/net/netdev/src/netdev.c:775:9
	b	.LBB25_7
.Ltmp369:
.LBB25_7:
	.loc	1 776 5                         @ rt-thread/components/net/netdev/src/netdev.c:776:5
	b	.LBB25_8
.Ltmp370:
.LBB25_8:
	.loc	1 777 1                         @ rt-thread/components/net/netdev/src/netdev.c:777:1
	add	sp, #8
	pop	{r7, pc}
.Ltmp371:
.Lfunc_end25:
	.size	netdev_low_level_set_status, .Lfunc_end25-netdev_low_level_set_status
	.cfi_endproc
	.cantunwind
	.fnend
                                        @ -- End function
	.section	.text.netdev_auto_change_default,"ax",%progbits
	.p2align	3                               @ -- Begin function netdev_auto_change_default
	.type	netdev_auto_change_default,%function
	.code	16                              @ @netdev_auto_change_default
	.thumb_func
netdev_auto_change_default:
.Lfunc_begin26:
	.loc	1 732 0                         @ rt-thread/components/net/netdev/src/netdev.c:732:0
	.fnstart
	.cfi_startproc
@ %bb.0:
	.save	{r7, lr}
	push	{r7, lr}
	.cfi_def_cfa_offset 8
	.cfi_offset lr, -4
	.cfi_offset r7, -8
	.pad	#8
	sub	sp, #8
	.cfi_def_cfa_offset 16
	str	r0, [sp, #4]
	movs	r0, #0
.Ltmp372:
	.loc	1 733 20 prologue_end           @ rt-thread/components/net/netdev/src/netdev.c:733:20
	str	r0, [sp]
.Ltmp373:
	.loc	1 735 19                        @ rt-thread/components/net/netdev/src/netdev.c:735:19
	ldr	r0, [sp, #4]
	.loc	1 735 27 is_stmt 0              @ rt-thread/components/net/netdev/src/netdev.c:735:27
	movw	r1, :lower16:netdev_default
	movt	r1, :upper16:netdev_default
	ldr	r1, [r1]
	movs	r2, #68
	.loc	1 735 9                         @ rt-thread/components/net/netdev/src/netdev.c:735:9
	bl	rt_memcmp
.Ltmp374:
	.loc	1 735 9                         @ rt-thread/components/net/netdev/src/netdev.c:735:9
	cbnz	r0, .LBB26_4
	b	.LBB26_1
.LBB26_1:
	.loc	1 0 9                           @ rt-thread/components/net/netdev/src/netdev.c:0:9
	movs	r0, #4
.Ltmp375:
	.loc	1 737 22 is_stmt 1              @ rt-thread/components/net/netdev/src/netdev.c:737:22
	bl	netdev_get_first_by_flags
	.loc	1 737 20 is_stmt 0              @ rt-thread/components/net/netdev/src/netdev.c:737:20
	str	r0, [sp]
.Ltmp376:
	.loc	1 738 13 is_stmt 1              @ rt-thread/components/net/netdev/src/netdev.c:738:13
	ldr	r0, [sp]
.Ltmp377:
	.loc	1 738 13 is_stmt 0              @ rt-thread/components/net/netdev/src/netdev.c:738:13
	cbz	r0, .LBB26_3
	b	.LBB26_2
.LBB26_2:
.Ltmp378:
	.loc	1 740 32 is_stmt 1              @ rt-thread/components/net/netdev/src/netdev.c:740:32
	ldr	r0, [sp]
	.loc	1 740 13 is_stmt 0              @ rt-thread/components/net/netdev/src/netdev.c:740:13
	bl	netdev_set_default
	.loc	1 741 9 is_stmt 1               @ rt-thread/components/net/netdev/src/netdev.c:741:9
	b	.LBB26_3
.Ltmp379:
.LBB26_3:
	.loc	1 742 5                         @ rt-thread/components/net/netdev/src/netdev.c:742:5
	b	.LBB26_4
.Ltmp380:
.LBB26_4:
	.loc	1 743 1                         @ rt-thread/components/net/netdev/src/netdev.c:743:1
	add	sp, #8
	pop	{r7, pc}
.Ltmp381:
.Lfunc_end26:
	.size	netdev_auto_change_default, .Lfunc_end26-netdev_auto_change_default
	.cfi_endproc
	.cantunwind
	.fnend
                                        @ -- End function
	.section	.text.netdev_low_level_set_link_status,"ax",%progbits
	.hidden	netdev_low_level_set_link_status @ -- Begin function netdev_low_level_set_link_status
	.globl	netdev_low_level_set_link_status
	.p2align	3
	.type	netdev_low_level_set_link_status,%function
	.code	16                              @ @netdev_low_level_set_link_status
	.thumb_func
netdev_low_level_set_link_status:
.Lfunc_begin27:
	.loc	1 787 0                         @ rt-thread/components/net/netdev/src/netdev.c:787:0
	.fnstart
	.cfi_startproc
@ %bb.0:
	.save	{r7, lr}
	push	{r7, lr}
	.cfi_def_cfa_offset 8
	.cfi_offset lr, -4
	.cfi_offset r7, -8
	.pad	#8
	sub	sp, #8
	.cfi_def_cfa_offset 16
	str	r0, [sp, #4]
	str	r1, [sp]
.Ltmp382:
	.loc	1 788 9 prologue_end            @ rt-thread/components/net/netdev/src/netdev.c:788:9
	ldr	r0, [sp, #4]
	.loc	1 788 16 is_stmt 0              @ rt-thread/components/net/netdev/src/netdev.c:788:16
	cmp	r0, #0
	beq	.LBB27_14
	b	.LBB27_1
.LBB27_1:
	.loc	1 788 19                        @ rt-thread/components/net/netdev/src/netdev.c:788:19
	ldr	r0, [sp, #4]
	ldrh	r0, [r0, #42]
	and	r1, r0, #4
	.loc	1 788 48                        @ rt-thread/components/net/netdev/src/netdev.c:788:48
	ldr	r0, [sp]
.Ltmp383:
	.loc	1 788 9                         @ rt-thread/components/net/netdev/src/netdev.c:788:9
	cmp.w	r0, r1, lsr #2
	beq	.LBB27_14
	b	.LBB27_2
.LBB27_2:
.Ltmp384:
	.loc	1 790 13 is_stmt 1              @ rt-thread/components/net/netdev/src/netdev.c:790:13
	ldr	r0, [sp]
.Ltmp385:
	.loc	1 790 13 is_stmt 0              @ rt-thread/components/net/netdev/src/netdev.c:790:13
	cbz	r0, .LBB27_10
	b	.LBB27_3
.LBB27_3:
.Ltmp386:
	.loc	1 792 13 is_stmt 1              @ rt-thread/components/net/netdev/src/netdev.c:792:13
	ldr	r1, [sp, #4]
	.loc	1 792 27 is_stmt 0              @ rt-thread/components/net/netdev/src/netdev.c:792:27
	ldrh	r0, [r1, #42]
	orr	r0, r0, #4
	strh	r0, [r1, #42]
.Ltmp387:
	.loc	1 796 17 is_stmt 1              @ rt-thread/components/net/netdev/src/netdev.c:796:17
	ldr	r0, [sp, #4]
	.loc	1 796 38 is_stmt 0              @ rt-thread/components/net/netdev/src/netdev.c:796:38
	ldrb.w	r0, [r0, #42]
	lsls	r0, r0, #31
	cbz	r0, .LBB27_5
	b	.LBB27_4
.LBB27_4:
	.loc	1 0 38                          @ rt-thread/components/net/netdev/src/netdev.c:0:38
	movs	r0, #1
	.loc	1 796 17                        @ rt-thread/components/net/netdev/src/netdev.c:796:17
	cbnz	r0, .LBB27_6
	b	.LBB27_9
.LBB27_5:
	.loc	1 0 17                          @ rt-thread/components/net/netdev/src/netdev.c:0:17
	movs	r0, #1
	.loc	1 796 38                        @ rt-thread/components/net/netdev/src/netdev.c:796:38
	cbnz	r0, .LBB27_9
	b	.LBB27_6
.LBB27_6:
	.loc	1 796 42                        @ rt-thread/components/net/netdev/src/netdev.c:796:42
	ldr	r0, [sp, #4]
	adds	r0, #12
	cbz	r0, .LBB27_9
	b	.LBB27_7
.LBB27_7:
	ldr	r0, [sp, #4]
	ldr	r0, [r0, #12]
.Ltmp388:
	.loc	1 796 17                        @ rt-thread/components/net/netdev/src/netdev.c:796:17
	cbz	r0, .LBB27_9
	b	.LBB27_8
.LBB27_8:
.Ltmp389:
	.loc	1 798 46 is_stmt 1              @ rt-thread/components/net/netdev/src/netdev.c:798:46
	ldr	r0, [sp, #4]
	.loc	1 798 17 is_stmt 0              @ rt-thread/components/net/netdev/src/netdev.c:798:17
	bl	sal_check_netdev_internet_up
	.loc	1 799 13 is_stmt 1              @ rt-thread/components/net/netdev/src/netdev.c:799:13
	b	.LBB27_9
.Ltmp390:
.LBB27_9:
	.loc	1 801 9                         @ rt-thread/components/net/netdev/src/netdev.c:801:9
	b	.LBB27_11
.Ltmp391:
.LBB27_10:
	.loc	1 804 13                        @ rt-thread/components/net/netdev/src/netdev.c:804:13
	ldr	r1, [sp, #4]
	.loc	1 804 27 is_stmt 0              @ rt-thread/components/net/netdev/src/netdev.c:804:27
	ldrh	r0, [r1, #42]
	bic	r0, r0, #4
	strh	r0, [r1, #42]
	.loc	1 807 13 is_stmt 1              @ rt-thread/components/net/netdev/src/netdev.c:807:13
	ldr	r1, [sp, #4]
	.loc	1 807 27 is_stmt 0              @ rt-thread/components/net/netdev/src/netdev.c:807:27
	ldrh	r0, [r1, #42]
	bic	r0, r0, #128
	strh	r0, [r1, #42]
	.loc	1 811 40 is_stmt 1              @ rt-thread/components/net/netdev/src/netdev.c:811:40
	ldr	r0, [sp, #4]
	.loc	1 811 13 is_stmt 0              @ rt-thread/components/net/netdev/src/netdev.c:811:13
	bl	netdev_auto_change_default
	b	.LBB27_11
.Ltmp392:
.LBB27_11:
	.loc	1 816 13 is_stmt 1              @ rt-thread/components/net/netdev/src/netdev.c:816:13
	ldr	r0, [sp, #4]
	.loc	1 816 21 is_stmt 0              @ rt-thread/components/net/netdev/src/netdev.c:816:21
	ldr	r0, [r0, #52]
.Ltmp393:
	.loc	1 816 13                        @ rt-thread/components/net/netdev/src/netdev.c:816:13
	cbz	r0, .LBB27_13
	b	.LBB27_12
.LBB27_12:
.Ltmp394:
	.loc	1 818 13 is_stmt 1              @ rt-thread/components/net/netdev/src/netdev.c:818:13
	ldr	r0, [sp, #4]
	.loc	1 818 21 is_stmt 0              @ rt-thread/components/net/netdev/src/netdev.c:818:21
	ldr	r2, [r0, #52]
	.loc	1 818 45                        @ rt-thread/components/net/netdev/src/netdev.c:818:45
	ldr	r3, [sp]
	movs	r1, #7
	cmp	r3, #0
	it	ne
	movne	r1, #6
	.loc	1 818 13                        @ rt-thread/components/net/netdev/src/netdev.c:818:13
	blx	r2
	.loc	1 819 9 is_stmt 1               @ rt-thread/components/net/netdev/src/netdev.c:819:9
	b	.LBB27_13
.Ltmp395:
.LBB27_13:
	.loc	1 820 5                         @ rt-thread/components/net/netdev/src/netdev.c:820:5
	b	.LBB27_14
.Ltmp396:
.LBB27_14:
	.loc	1 821 1                         @ rt-thread/components/net/netdev/src/netdev.c:821:1
	add	sp, #8
	pop	{r7, pc}
.Ltmp397:
.Lfunc_end27:
	.size	netdev_low_level_set_link_status, .Lfunc_end27-netdev_low_level_set_link_status
	.cfi_endproc
	.cantunwind
	.fnend
                                        @ -- End function
	.section	.text.netdev_low_level_set_dhcp_status,"ax",%progbits
	.hidden	netdev_low_level_set_dhcp_status @ -- Begin function netdev_low_level_set_dhcp_status
	.globl	netdev_low_level_set_dhcp_status
	.p2align	3
	.type	netdev_low_level_set_dhcp_status,%function
	.code	16                              @ @netdev_low_level_set_dhcp_status
	.thumb_func
netdev_low_level_set_dhcp_status:
.Lfunc_begin28:
	.loc	1 831 0                         @ rt-thread/components/net/netdev/src/netdev.c:831:0
	.fnstart
	.cfi_startproc
@ %bb.0:
	.save	{r7, lr}
	push	{r7, lr}
	.cfi_def_cfa_offset 8
	.cfi_offset lr, -4
	.cfi_offset r7, -8
	.pad	#8
	sub	sp, #8
	.cfi_def_cfa_offset 16
	str	r0, [sp, #4]
	str	r1, [sp]
.Ltmp398:
	.loc	1 832 9 prologue_end            @ rt-thread/components/net/netdev/src/netdev.c:832:9
	ldr	r0, [sp, #4]
	.loc	1 832 16 is_stmt 0              @ rt-thread/components/net/netdev/src/netdev.c:832:16
	cbz	r0, .LBB28_8
	b	.LBB28_1
.LBB28_1:
	.loc	1 832 19                        @ rt-thread/components/net/netdev/src/netdev.c:832:19
	ldr	r0, [sp, #4]
	ldrh	r0, [r0, #42]
	and	r1, r0, #256
	.loc	1 832 53                        @ rt-thread/components/net/netdev/src/netdev.c:832:53
	ldr	r0, [sp]
.Ltmp399:
	.loc	1 832 9                         @ rt-thread/components/net/netdev/src/netdev.c:832:9
	cmp.w	r0, r1, lsr #8
	beq	.LBB28_8
	b	.LBB28_2
.LBB28_2:
.Ltmp400:
	.loc	1 834 13 is_stmt 1              @ rt-thread/components/net/netdev/src/netdev.c:834:13
	ldr	r0, [sp]
.Ltmp401:
	.loc	1 834 13 is_stmt 0              @ rt-thread/components/net/netdev/src/netdev.c:834:13
	cbz	r0, .LBB28_4
	b	.LBB28_3
.LBB28_3:
.Ltmp402:
	.loc	1 836 13 is_stmt 1              @ rt-thread/components/net/netdev/src/netdev.c:836:13
	ldr	r1, [sp, #4]
	.loc	1 836 27 is_stmt 0              @ rt-thread/components/net/netdev/src/netdev.c:836:27
	ldrh	r0, [r1, #42]
	orr	r0, r0, #256
	strh	r0, [r1, #42]
	.loc	1 837 9 is_stmt 1               @ rt-thread/components/net/netdev/src/netdev.c:837:9
	b	.LBB28_5
.Ltmp403:
.LBB28_4:
	.loc	1 840 13                        @ rt-thread/components/net/netdev/src/netdev.c:840:13
	ldr	r1, [sp, #4]
	.loc	1 840 27 is_stmt 0              @ rt-thread/components/net/netdev/src/netdev.c:840:27
	ldrh	r0, [r1, #42]
	bic	r0, r0, #256
	strh	r0, [r1, #42]
	b	.LBB28_5
.Ltmp404:
.LBB28_5:
	.loc	1 844 13 is_stmt 1              @ rt-thread/components/net/netdev/src/netdev.c:844:13
	ldr	r0, [sp, #4]
	.loc	1 844 21 is_stmt 0              @ rt-thread/components/net/netdev/src/netdev.c:844:21
	ldr	r0, [r0, #52]
.Ltmp405:
	.loc	1 844 13                        @ rt-thread/components/net/netdev/src/netdev.c:844:13
	cbz	r0, .LBB28_7
	b	.LBB28_6
.LBB28_6:
.Ltmp406:
	.loc	1 846 13 is_stmt 1              @ rt-thread/components/net/netdev/src/netdev.c:846:13
	ldr	r0, [sp, #4]
	.loc	1 846 21 is_stmt 0              @ rt-thread/components/net/netdev/src/netdev.c:846:21
	ldr	r2, [r0, #52]
	.loc	1 846 45                        @ rt-thread/components/net/netdev/src/netdev.c:846:45
	ldr	r3, [sp]
	movs	r1, #11
	cmp	r3, #0
	it	ne
	movne	r1, #10
	.loc	1 846 13                        @ rt-thread/components/net/netdev/src/netdev.c:846:13
	blx	r2
	.loc	1 847 9 is_stmt 1               @ rt-thread/components/net/netdev/src/netdev.c:847:9
	b	.LBB28_7
.Ltmp407:
.LBB28_7:
	.loc	1 848 5                         @ rt-thread/components/net/netdev/src/netdev.c:848:5
	b	.LBB28_8
.Ltmp408:
.LBB28_8:
	.loc	1 849 1                         @ rt-thread/components/net/netdev/src/netdev.c:849:1
	add	sp, #8
	pop	{r7, pc}
.Ltmp409:
.Lfunc_end28:
	.size	netdev_low_level_set_dhcp_status, .Lfunc_end28-netdev_low_level_set_dhcp_status
	.cfi_endproc
	.cantunwind
	.fnend
                                        @ -- End function
	.section	.text.netdev_ifconfig,"ax",%progbits
	.hidden	netdev_ifconfig                 @ -- Begin function netdev_ifconfig
	.globl	netdev_ifconfig
	.p2align	3
	.type	netdev_ifconfig,%function
	.code	16                              @ @netdev_ifconfig
	.thumb_func
netdev_ifconfig:
.Lfunc_begin29:
	.loc	1 986 0                         @ rt-thread/components/net/netdev/src/netdev.c:986:0
	.fnstart
	.cfi_startproc
@ %bb.0:
	.save	{r7, lr}
	push	{r7, lr}
	.cfi_def_cfa_offset 8
	.cfi_offset lr, -4
	.cfi_offset r7, -8
	.pad	#8
	sub	sp, #8
	.cfi_def_cfa_offset 16
	str	r0, [sp, #4]
	str	r1, [sp]
.Ltmp410:
	.loc	1 987 9 prologue_end            @ rt-thread/components/net/netdev/src/netdev.c:987:9
	ldr	r0, [sp, #4]
.Ltmp411:
	.loc	1 987 9 is_stmt 0               @ rt-thread/components/net/netdev/src/netdev.c:987:9
	cmp	r0, #1
	bne	.LBB29_2
	b	.LBB29_1
.LBB29_1:
.Ltmp412:
	.loc	1 989 9 is_stmt 1               @ rt-thread/components/net/netdev/src/netdev.c:989:9
	bl	netdev_list_if
	.loc	1 990 5                         @ rt-thread/components/net/netdev/src/netdev.c:990:5
	b	.LBB29_6
.Ltmp413:
.LBB29_2:
	.loc	1 991 14                        @ rt-thread/components/net/netdev/src/netdev.c:991:14
	ldr	r0, [sp, #4]
.Ltmp414:
	.loc	1 991 14 is_stmt 0              @ rt-thread/components/net/netdev/src/netdev.c:991:14
	cmp	r0, #5
	bne	.LBB29_4
	b	.LBB29_3
.LBB29_3:
.Ltmp415:
	.loc	1 993 37 is_stmt 1              @ rt-thread/components/net/netdev/src/netdev.c:993:37
	ldr	r0, [sp]
	ldr	r1, [r0, #4]
	.loc	1 993 9 is_stmt 0               @ rt-thread/components/net/netdev/src/netdev.c:993:9
	movw	r0, :lower16:.L.str.20
	movt	r0, :upper16:.L.str.20
	bl	rt_kprintf
	.loc	1 994 37 is_stmt 1              @ rt-thread/components/net/netdev/src/netdev.c:994:37
	ldr	r0, [sp]
	ldr	r1, [r0, #8]
	.loc	1 994 9 is_stmt 0               @ rt-thread/components/net/netdev/src/netdev.c:994:9
	movw	r0, :lower16:.L.str.21
	movt	r0, :upper16:.L.str.21
	bl	rt_kprintf
	.loc	1 995 37 is_stmt 1              @ rt-thread/components/net/netdev/src/netdev.c:995:37
	ldr	r0, [sp]
	ldr	r1, [r0, #12]
	.loc	1 995 9 is_stmt 0               @ rt-thread/components/net/netdev/src/netdev.c:995:9
	movw	r0, :lower16:.L.str.22
	movt	r0, :upper16:.L.str.22
	bl	rt_kprintf
	.loc	1 996 37 is_stmt 1              @ rt-thread/components/net/netdev/src/netdev.c:996:37
	ldr	r0, [sp]
	ldr	r1, [r0, #16]
	.loc	1 996 9 is_stmt 0               @ rt-thread/components/net/netdev/src/netdev.c:996:9
	movw	r0, :lower16:.L.str.23
	movt	r0, :upper16:.L.str.23
	bl	rt_kprintf
	.loc	1 997 23 is_stmt 1              @ rt-thread/components/net/netdev/src/netdev.c:997:23
	ldr	r3, [sp]
	ldr	r0, [r3, #4]
	.loc	1 997 32 is_stmt 0              @ rt-thread/components/net/netdev/src/netdev.c:997:32
	ldr	r1, [r3, #8]
	.loc	1 997 41                        @ rt-thread/components/net/netdev/src/netdev.c:997:41
	ldr	r2, [r3, #12]
	.loc	1 997 50                        @ rt-thread/components/net/netdev/src/netdev.c:997:50
	ldr	r3, [r3, #16]
	.loc	1 997 9                         @ rt-thread/components/net/netdev/src/netdev.c:997:9
	bl	netdev_set_if
	.loc	1 998 5 is_stmt 1               @ rt-thread/components/net/netdev/src/netdev.c:998:5
	b	.LBB29_5
.Ltmp416:
.LBB29_4:
	.loc	1 1001 9                        @ rt-thread/components/net/netdev/src/netdev.c:1001:9
	movw	r0, :lower16:.L.str.24
	movt	r0, :upper16:.L.str.24
	bl	rt_kprintf
	b	.LBB29_5
.Ltmp417:
.LBB29_5:
	.loc	1 0 9 is_stmt 0                 @ rt-thread/components/net/netdev/src/netdev.c:0:9
	b	.LBB29_6
.LBB29_6:
	movs	r0, #0
	.loc	1 1004 5 is_stmt 1              @ rt-thread/components/net/netdev/src/netdev.c:1004:5
	add	sp, #8
	pop	{r7, pc}
.Ltmp418:
.Lfunc_end29:
	.size	netdev_ifconfig, .Lfunc_end29-netdev_ifconfig
	.cfi_endproc
	.cantunwind
	.fnend
                                        @ -- End function
	.section	.text.netdev_list_if,"ax",%progbits
	.p2align	3                               @ -- Begin function netdev_list_if
	.type	netdev_list_if,%function
	.code	16                              @ @netdev_list_if
	.thumb_func
netdev_list_if:
.Lfunc_begin30:
	.loc	1 857 0                         @ rt-thread/components/net/netdev/src/netdev.c:857:0
	.fnstart
	.cfi_startproc
@ %bb.0:
	.save	{r7, lr}
	push	{r7, lr}
	.cfi_def_cfa_offset 8
	.cfi_offset lr, -4
	.cfi_offset r7, -8
	.pad	#24
	sub	sp, #24
	.cfi_def_cfa_offset 32
	movs	r0, #0
.Ltmp419:
	.loc	1 862 17 prologue_end           @ rt-thread/components/net/netdev/src/netdev.c:862:17
	str	r0, [sp, #16]
	.loc	1 863 20                        @ rt-thread/components/net/netdev/src/netdev.c:863:20
	str	r0, [sp, #12]
	.loc	1 864 38                        @ rt-thread/components/net/netdev/src/netdev.c:864:38
	movw	r0, :lower16:netdev_list
	movt	r0, :upper16:netdev_list
	ldr	r0, [r0]
	.loc	1 864 20 is_stmt 0              @ rt-thread/components/net/netdev/src/netdev.c:864:20
	str	r0, [sp, #8]
.Ltmp420:
	.loc	1 866 9 is_stmt 1               @ rt-thread/components/net/netdev/src/netdev.c:866:9
	ldr	r0, [sp, #8]
.Ltmp421:
	.loc	1 866 9 is_stmt 0               @ rt-thread/components/net/netdev/src/netdev.c:866:9
	cbnz	r0, .LBB30_2
	b	.LBB30_1
.LBB30_1:
.Ltmp422:
	.loc	1 868 9 is_stmt 1               @ rt-thread/components/net/netdev/src/netdev.c:868:9
	movw	r0, :lower16:.L.str.37
	movt	r0, :upper16:.L.str.37
	bl	rt_kprintf
	.loc	1 869 9                         @ rt-thread/components/net/netdev/src/netdev.c:869:9
	b	.LBB30_46
.Ltmp423:
.LBB30_2:
	.loc	1 872 19                        @ rt-thread/components/net/netdev/src/netdev.c:872:19
	ldr	r0, [sp, #8]
	.loc	1 872 15 is_stmt 0              @ rt-thread/components/net/netdev/src/netdev.c:872:15
	str	r0, [sp, #16]
	.loc	1 872 10                        @ rt-thread/components/net/netdev/src/netdev.c:872:10
	b	.LBB30_3
.LBB30_3:                               @ =>This Loop Header: Depth=1
                                        @     Child Loop BB30_12 Depth 2
                                        @     Child Loop BB30_6 Depth 2
                                        @     Child Loop BB30_39 Depth 2
.Ltmp424:
	.loc	1 872 43                        @ rt-thread/components/net/netdev/src/netdev.c:872:43
	ldr	r0, [sp, #16]
.Ltmp425:
	.loc	1 872 5                         @ rt-thread/components/net/netdev/src/netdev.c:872:5
	cmp	r0, #0
	beq.w	.LBB30_46
	b	.LBB30_4
.LBB30_4:                               @   in Loop: Header=BB30_3 Depth=1
.Ltmp426:
	.loc	1 874 18 is_stmt 1              @ rt-thread/components/net/netdev/src/netdev.c:874:18
	ldr	r0, [sp, #16]
	.loc	1 874 16 is_stmt 0              @ rt-thread/components/net/netdev/src/netdev.c:874:16
	str	r0, [sp, #12]
	.loc	1 877 33 is_stmt 1              @ rt-thread/components/net/netdev/src/netdev.c:877:33
	ldr	r1, [sp, #12]
	.loc	1 877 41 is_stmt 0              @ rt-thread/components/net/netdev/src/netdev.c:877:41
	adds	r2, r1, #4
	.loc	1 878 31 is_stmt 1              @ rt-thread/components/net/netdev/src/netdev.c:878:31
	movw	r0, :lower16:netdev_default
	movt	r0, :upper16:netdev_default
	ldr.w	r12, [r0]
	.loc	1 878 20 is_stmt 0              @ rt-thread/components/net/netdev/src/netdev.c:878:20
	movw	r0, :lower16:.L.str.39
	movt	r0, :upper16:.L.str.39
	movw	r3, :lower16:.L.str.40
	movt	r3, :upper16:.L.str.40
	cmp	r1, r12
	it	eq
	moveq	r3, r0
	.loc	1 876 9 is_stmt 1               @ rt-thread/components/net/netdev/src/netdev.c:876:9
	movw	r0, :lower16:.L.str.38
	movt	r0, :upper16:.L.str.38
	movs	r1, #8
	bl	rt_kprintf
	.loc	1 879 33                        @ rt-thread/components/net/netdev/src/netdev.c:879:33
	ldr	r0, [sp, #12]
	.loc	1 879 41 is_stmt 0              @ rt-thread/components/net/netdev/src/netdev.c:879:41
	ldrh	r1, [r0, #44]
	.loc	1 879 9                         @ rt-thread/components/net/netdev/src/netdev.c:879:9
	movw	r0, :lower16:.L.str.41
	movt	r0, :upper16:.L.str.41
	bl	rt_kprintf
.Ltmp427:
	.loc	1 882 13 is_stmt 1              @ rt-thread/components/net/netdev/src/netdev.c:882:13
	ldr	r0, [sp, #12]
	.loc	1 882 21 is_stmt 0              @ rt-thread/components/net/netdev/src/netdev.c:882:21
	ldrb.w	r0, [r0, #32]
.Ltmp428:
	.loc	1 882 13                        @ rt-thread/components/net/netdev/src/netdev.c:882:13
	cmp	r0, #6
	bne	.LBB30_10
	b	.LBB30_5
.LBB30_5:                               @   in Loop: Header=BB30_3 Depth=1
.Ltmp429:
	.loc	1 884 13 is_stmt 1              @ rt-thread/components/net/netdev/src/netdev.c:884:13
	movw	r0, :lower16:.L.str.42
	movt	r0, :upper16:.L.str.42
	bl	rt_kprintf
	movs	r0, #0
.Ltmp430:
	.loc	1 885 24                        @ rt-thread/components/net/netdev/src/netdev.c:885:24
	str	r0, [sp, #20]
	.loc	1 885 18 is_stmt 0              @ rt-thread/components/net/netdev/src/netdev.c:885:18
	b	.LBB30_6
.LBB30_6:                               @   Parent Loop BB30_3 Depth=1
                                        @ =>  This Inner Loop Header: Depth=2
.Ltmp431:
	.loc	1 885 29                        @ rt-thread/components/net/netdev/src/netdev.c:885:29
	ldr	r0, [sp, #20]
	.loc	1 885 37                        @ rt-thread/components/net/netdev/src/netdev.c:885:37
	ldr	r1, [sp, #12]
	.loc	1 885 45                        @ rt-thread/components/net/netdev/src/netdev.c:885:45
	ldrb.w	r1, [r1, #32]
.Ltmp432:
	.loc	1 885 13                        @ rt-thread/components/net/netdev/src/netdev.c:885:13
	cmp	r0, r1
	bhs	.LBB30_9
	b	.LBB30_7
.LBB30_7:                               @   in Loop: Header=BB30_6 Depth=2
.Ltmp433:
	.loc	1 887 37 is_stmt 1              @ rt-thread/components/net/netdev/src/netdev.c:887:37
	ldr	r0, [sp, #12]
	.loc	1 887 52 is_stmt 0              @ rt-thread/components/net/netdev/src/netdev.c:887:52
	ldr	r1, [sp, #20]
	.loc	1 887 45                        @ rt-thread/components/net/netdev/src/netdev.c:887:45
	add	r0, r1
	.loc	1 887 37                        @ rt-thread/components/net/netdev/src/netdev.c:887:37
	ldrb.w	r1, [r0, #33]
	.loc	1 887 17                        @ rt-thread/components/net/netdev/src/netdev.c:887:17
	movw	r0, :lower16:.L.str.43
	movt	r0, :upper16:.L.str.43
	bl	rt_kprintf
	.loc	1 888 13 is_stmt 1              @ rt-thread/components/net/netdev/src/netdev.c:888:13
	b	.LBB30_8
.Ltmp434:
.LBB30_8:                               @   in Loop: Header=BB30_6 Depth=2
	.loc	1 885 62                        @ rt-thread/components/net/netdev/src/netdev.c:885:62
	ldr	r0, [sp, #20]
	adds	r0, #1
	str	r0, [sp, #20]
	.loc	1 885 13 is_stmt 0              @ rt-thread/components/net/netdev/src/netdev.c:885:13
	b	.LBB30_6
.Ltmp435:
.LBB30_9:                               @   in Loop: Header=BB30_3 Depth=1
	.loc	1 889 9 is_stmt 1               @ rt-thread/components/net/netdev/src/netdev.c:889:9
	b	.LBB30_20
.Ltmp436:
.LBB30_10:                              @   in Loop: Header=BB30_3 Depth=1
	.loc	1 890 18                        @ rt-thread/components/net/netdev/src/netdev.c:890:18
	ldr	r0, [sp, #12]
	.loc	1 890 26 is_stmt 0              @ rt-thread/components/net/netdev/src/netdev.c:890:26
	ldrb.w	r0, [r0, #32]
.Ltmp437:
	.loc	1 890 18                        @ rt-thread/components/net/netdev/src/netdev.c:890:18
	cmp	r0, #8
	bne	.LBB30_19
	b	.LBB30_11
.LBB30_11:                              @   in Loop: Header=BB30_3 Depth=1
.Ltmp438:
	.loc	1 892 13 is_stmt 1              @ rt-thread/components/net/netdev/src/netdev.c:892:13
	movw	r0, :lower16:.L.str.44
	movt	r0, :upper16:.L.str.44
	bl	rt_kprintf
	movs	r0, #0
.Ltmp439:
	.loc	1 893 24                        @ rt-thread/components/net/netdev/src/netdev.c:893:24
	str	r0, [sp, #20]
	.loc	1 893 18 is_stmt 0              @ rt-thread/components/net/netdev/src/netdev.c:893:18
	b	.LBB30_12
.LBB30_12:                              @   Parent Loop BB30_3 Depth=1
                                        @ =>  This Inner Loop Header: Depth=2
.Ltmp440:
	.loc	1 893 29                        @ rt-thread/components/net/netdev/src/netdev.c:893:29
	ldr	r0, [sp, #20]
	.loc	1 893 37                        @ rt-thread/components/net/netdev/src/netdev.c:893:37
	ldr	r1, [sp, #12]
	.loc	1 893 45                        @ rt-thread/components/net/netdev/src/netdev.c:893:45
	ldrb.w	r1, [r1, #32]
.Ltmp441:
	.loc	1 893 13                        @ rt-thread/components/net/netdev/src/netdev.c:893:13
	cmp	r0, r1
	bhs	.LBB30_18
	b	.LBB30_13
.LBB30_13:                              @   in Loop: Header=BB30_12 Depth=2
.Ltmp442:
	.loc	1 896 21 is_stmt 1              @ rt-thread/components/net/netdev/src/netdev.c:896:21
	ldr	r0, [sp, #12]
	.loc	1 896 36 is_stmt 0              @ rt-thread/components/net/netdev/src/netdev.c:896:36
	ldr	r1, [sp, #20]
	.loc	1 896 29                        @ rt-thread/components/net/netdev/src/netdev.c:896:29
	add	r0, r1
	.loc	1 896 21                        @ rt-thread/components/net/netdev/src/netdev.c:896:21
	ldrb.w	r0, [r0, #33]
	.loc	1 896 48                        @ rt-thread/components/net/netdev/src/netdev.c:896:48
	cmp	r0, #9
	bgt	.LBB30_16
	b	.LBB30_14
.LBB30_14:                              @   in Loop: Header=BB30_12 Depth=2
	.loc	1 896 51                        @ rt-thread/components/net/netdev/src/netdev.c:896:51
	ldr	r0, [sp, #20]
	.loc	1 896 60                        @ rt-thread/components/net/netdev/src/netdev.c:896:60
	ldr	r1, [sp, #12]
	.loc	1 896 68                        @ rt-thread/components/net/netdev/src/netdev.c:896:68
	ldrb.w	r1, [r1, #32]
	.loc	1 896 79                        @ rt-thread/components/net/netdev/src/netdev.c:896:79
	subs	r1, #1
.Ltmp443:
	.loc	1 896 21                        @ rt-thread/components/net/netdev/src/netdev.c:896:21
	cmp	r0, r1
	beq	.LBB30_16
	b	.LBB30_15
.LBB30_15:                              @   in Loop: Header=BB30_12 Depth=2
.Ltmp444:
	.loc	1 897 21 is_stmt 1              @ rt-thread/components/net/netdev/src/netdev.c:897:21
	movw	r0, :lower16:.L.str.45
	movt	r0, :upper16:.L.str.45
	bl	rt_kprintf
	b	.LBB30_16
.Ltmp445:
.LBB30_16:                              @   in Loop: Header=BB30_12 Depth=2
	.loc	1 899 34                        @ rt-thread/components/net/netdev/src/netdev.c:899:34
	ldr	r0, [sp, #12]
	.loc	1 899 49 is_stmt 0              @ rt-thread/components/net/netdev/src/netdev.c:899:49
	ldr	r1, [sp, #20]
	.loc	1 899 42                        @ rt-thread/components/net/netdev/src/netdev.c:899:42
	add	r0, r1
	.loc	1 899 34                        @ rt-thread/components/net/netdev/src/netdev.c:899:34
	ldrb.w	r1, [r0, #33]
	.loc	1 899 17                        @ rt-thread/components/net/netdev/src/netdev.c:899:17
	movw	r0, :lower16:.L.str.46
	movt	r0, :upper16:.L.str.46
	bl	rt_kprintf
	.loc	1 900 13 is_stmt 1              @ rt-thread/components/net/netdev/src/netdev.c:900:13
	b	.LBB30_17
.Ltmp446:
.LBB30_17:                              @   in Loop: Header=BB30_12 Depth=2
	.loc	1 893 62                        @ rt-thread/components/net/netdev/src/netdev.c:893:62
	ldr	r0, [sp, #20]
	adds	r0, #1
	str	r0, [sp, #20]
	.loc	1 893 13 is_stmt 0              @ rt-thread/components/net/netdev/src/netdev.c:893:13
	b	.LBB30_12
.Ltmp447:
.LBB30_18:                              @   in Loop: Header=BB30_3 Depth=1
	.loc	1 901 9 is_stmt 1               @ rt-thread/components/net/netdev/src/netdev.c:901:9
	b	.LBB30_19
.Ltmp448:
.LBB30_19:                              @   in Loop: Header=BB30_3 Depth=1
	.loc	1 0 9 is_stmt 0                 @ rt-thread/components/net/netdev/src/netdev.c:0:9
	b	.LBB30_20
.LBB30_20:                              @   in Loop: Header=BB30_3 Depth=1
	.loc	1 903 9 is_stmt 1               @ rt-thread/components/net/netdev/src/netdev.c:903:9
	movw	r0, :lower16:.L.str.47
	movt	r0, :upper16:.L.str.47
	bl	rt_kprintf
.Ltmp449:
	.loc	1 904 13                        @ rt-thread/components/net/netdev/src/netdev.c:904:13
	ldr	r0, [sp, #12]
	ldrh	r0, [r0, #42]
.Ltmp450:
	.loc	1 904 13 is_stmt 0              @ rt-thread/components/net/netdev/src/netdev.c:904:13
	lsls	r0, r0, #31
	cbz	r0, .LBB30_22
	b	.LBB30_21
.LBB30_21:                              @   in Loop: Header=BB30_3 Depth=1
.Ltmp451:
	.loc	1 904 45                        @ rt-thread/components/net/netdev/src/netdev.c:904:45
	movw	r0, :lower16:.L.str.48
	movt	r0, :upper16:.L.str.48
	bl	rt_kprintf
	b	.LBB30_23
.LBB30_22:                              @   in Loop: Header=BB30_3 Depth=1
	.loc	1 905 14 is_stmt 1              @ rt-thread/components/net/netdev/src/netdev.c:905:14
	movw	r0, :lower16:.L.str.49
	movt	r0, :upper16:.L.str.49
	bl	rt_kprintf
	b	.LBB30_23
.Ltmp452:
.LBB30_23:                              @   in Loop: Header=BB30_3 Depth=1
	.loc	1 906 13                        @ rt-thread/components/net/netdev/src/netdev.c:906:13
	ldr	r0, [sp, #12]
	ldrh	r0, [r0, #42]
.Ltmp453:
	.loc	1 906 13 is_stmt 0              @ rt-thread/components/net/netdev/src/netdev.c:906:13
	lsls	r0, r0, #29
	cmp	r0, #0
	bpl	.LBB30_25
	b	.LBB30_24
.LBB30_24:                              @   in Loop: Header=BB30_3 Depth=1
.Ltmp454:
	.loc	1 906 50                        @ rt-thread/components/net/netdev/src/netdev.c:906:50
	movw	r0, :lower16:.L.str.50
	movt	r0, :upper16:.L.str.50
	bl	rt_kprintf
	b	.LBB30_26
.LBB30_25:                              @   in Loop: Header=BB30_3 Depth=1
	.loc	1 907 14 is_stmt 1              @ rt-thread/components/net/netdev/src/netdev.c:907:14
	movw	r0, :lower16:.L.str.51
	movt	r0, :upper16:.L.str.51
	bl	rt_kprintf
	b	.LBB30_26
.Ltmp455:
.LBB30_26:                              @   in Loop: Header=BB30_3 Depth=1
	.loc	1 908 13                        @ rt-thread/components/net/netdev/src/netdev.c:908:13
	ldr	r0, [sp, #12]
	ldrh	r0, [r0, #42]
.Ltmp456:
	.loc	1 908 13 is_stmt 0              @ rt-thread/components/net/netdev/src/netdev.c:908:13
	lsls	r0, r0, #24
	cmp	r0, #0
	bpl	.LBB30_28
	b	.LBB30_27
.LBB30_27:                              @   in Loop: Header=BB30_3 Depth=1
.Ltmp457:
	.loc	1 908 54                        @ rt-thread/components/net/netdev/src/netdev.c:908:54
	movw	r0, :lower16:.L.str.52
	movt	r0, :upper16:.L.str.52
	bl	rt_kprintf
	b	.LBB30_29
.LBB30_28:                              @   in Loop: Header=BB30_3 Depth=1
	.loc	1 909 14 is_stmt 1              @ rt-thread/components/net/netdev/src/netdev.c:909:14
	movw	r0, :lower16:.L.str.53
	movt	r0, :upper16:.L.str.53
	bl	rt_kprintf
	b	.LBB30_29
.Ltmp458:
.LBB30_29:                              @   in Loop: Header=BB30_3 Depth=1
	.loc	1 910 13                        @ rt-thread/components/net/netdev/src/netdev.c:910:13
	ldr	r0, [sp, #12]
	ldrh	r0, [r0, #42]
.Ltmp459:
	.loc	1 910 13 is_stmt 0              @ rt-thread/components/net/netdev/src/netdev.c:910:13
	lsls	r0, r0, #23
	cmp	r0, #0
	bpl	.LBB30_31
	b	.LBB30_30
.LBB30_30:                              @   in Loop: Header=BB30_3 Depth=1
.Ltmp460:
	.loc	1 910 47                        @ rt-thread/components/net/netdev/src/netdev.c:910:47
	movw	r0, :lower16:.L.str.54
	movt	r0, :upper16:.L.str.54
	bl	rt_kprintf
	b	.LBB30_32
.LBB30_31:                              @   in Loop: Header=BB30_3 Depth=1
	.loc	1 911 14 is_stmt 1              @ rt-thread/components/net/netdev/src/netdev.c:911:14
	movw	r0, :lower16:.L.str.55
	movt	r0, :upper16:.L.str.55
	bl	rt_kprintf
	b	.LBB30_32
.Ltmp461:
.LBB30_32:                              @   in Loop: Header=BB30_3 Depth=1
	.loc	1 912 13                        @ rt-thread/components/net/netdev/src/netdev.c:912:13
	ldr	r0, [sp, #12]
	ldrh	r0, [r0, #42]
.Ltmp462:
	.loc	1 912 13 is_stmt 0              @ rt-thread/components/net/netdev/src/netdev.c:912:13
	lsls	r0, r0, #28
	cmp	r0, #0
	bpl	.LBB30_34
	b	.LBB30_33
.LBB30_33:                              @   in Loop: Header=BB30_3 Depth=1
.Ltmp463:
	.loc	1 912 49                        @ rt-thread/components/net/netdev/src/netdev.c:912:49
	movw	r0, :lower16:.L.str.56
	movt	r0, :upper16:.L.str.56
	bl	rt_kprintf
	b	.LBB30_34
.Ltmp464:
.LBB30_34:                              @   in Loop: Header=BB30_3 Depth=1
	.loc	1 913 13 is_stmt 1              @ rt-thread/components/net/netdev/src/netdev.c:913:13
	ldr	r0, [sp, #12]
	ldrh	r0, [r0, #42]
.Ltmp465:
	.loc	1 913 13 is_stmt 0              @ rt-thread/components/net/netdev/src/netdev.c:913:13
	lsls	r0, r0, #30
	cmp	r0, #0
	bpl	.LBB30_36
	b	.LBB30_35
.LBB30_35:                              @   in Loop: Header=BB30_3 Depth=1
.Ltmp466:
	.loc	1 913 52                        @ rt-thread/components/net/netdev/src/netdev.c:913:52
	movw	r0, :lower16:.L.str.57
	movt	r0, :upper16:.L.str.57
	bl	rt_kprintf
	b	.LBB30_36
.Ltmp467:
.LBB30_36:                              @   in Loop: Header=BB30_3 Depth=1
	.loc	1 914 13 is_stmt 1              @ rt-thread/components/net/netdev/src/netdev.c:914:13
	ldr	r0, [sp, #12]
	ldrh	r0, [r0, #42]
.Ltmp468:
	.loc	1 914 13 is_stmt 0              @ rt-thread/components/net/netdev/src/netdev.c:914:13
	lsls	r0, r0, #26
	cmp	r0, #0
	bpl	.LBB30_38
	b	.LBB30_37
.LBB30_37:                              @   in Loop: Header=BB30_3 Depth=1
.Ltmp469:
	.loc	1 914 47                        @ rt-thread/components/net/netdev/src/netdev.c:914:47
	movw	r0, :lower16:.L.str.58
	movt	r0, :upper16:.L.str.58
	bl	rt_kprintf
	b	.LBB30_38
.Ltmp470:
.LBB30_38:                              @   in Loop: Header=BB30_3 Depth=1
	.loc	1 915 9 is_stmt 1               @ rt-thread/components/net/netdev/src/netdev.c:915:9
	movw	r0, :lower16:.L.str.4
	movt	r0, :upper16:.L.str.4
	bl	rt_kprintf
	.loc	1 916 40                        @ rt-thread/components/net/netdev/src/netdev.c:916:40
	ldr	r0, [sp, #12]
	adds	r0, #12
	bl	netdev_ip4addr_ntoa
	mov	r1, r0
	.loc	1 916 9 is_stmt 0               @ rt-thread/components/net/netdev/src/netdev.c:916:9
	movw	r0, :lower16:.L.str.59
	movt	r0, :upper16:.L.str.59
	bl	rt_kprintf
	.loc	1 917 40 is_stmt 1              @ rt-thread/components/net/netdev/src/netdev.c:917:40
	ldr	r0, [sp, #12]
	adds	r0, #20
	bl	netdev_ip4addr_ntoa
	mov	r1, r0
	.loc	1 917 9 is_stmt 0               @ rt-thread/components/net/netdev/src/netdev.c:917:9
	movw	r0, :lower16:.L.str.60
	movt	r0, :upper16:.L.str.60
	bl	rt_kprintf
	.loc	1 918 40 is_stmt 1              @ rt-thread/components/net/netdev/src/netdev.c:918:40
	ldr	r0, [sp, #12]
	adds	r0, #16
	bl	netdev_ip4addr_ntoa
	mov	r1, r0
	.loc	1 918 9 is_stmt 0               @ rt-thread/components/net/netdev/src/netdev.c:918:9
	movw	r0, :lower16:.L.str.61
	movt	r0, :upper16:.L.str.61
	bl	rt_kprintf
	movs	r0, #0
.Ltmp471:
	.loc	1 942 20 is_stmt 1              @ rt-thread/components/net/netdev/src/netdev.c:942:20
	str	r0, [sp, #20]
	.loc	1 942 14 is_stmt 0              @ rt-thread/components/net/netdev/src/netdev.c:942:14
	b	.LBB30_39
.LBB30_39:                              @   Parent Loop BB30_3 Depth=1
                                        @ =>  This Inner Loop Header: Depth=2
.Ltmp472:
	.loc	1 942 25                        @ rt-thread/components/net/netdev/src/netdev.c:942:25
	ldr	r0, [sp, #20]
.Ltmp473:
	.loc	1 942 9                         @ rt-thread/components/net/netdev/src/netdev.c:942:9
	cmp	r0, #1
	bhi	.LBB30_42
	b	.LBB30_40
.LBB30_40:                              @   in Loop: Header=BB30_39 Depth=2
.Ltmp474:
	.loc	1 944 48 is_stmt 1              @ rt-thread/components/net/netdev/src/netdev.c:944:48
	ldr	r1, [sp, #20]
	.loc	1 944 55 is_stmt 0              @ rt-thread/components/net/netdev/src/netdev.c:944:55
	str	r1, [sp, #4]                    @ 4-byte Spill
	ldr	r0, [sp, #12]
	add.w	r0, r0, r1, lsl #2
	adds	r0, #24
	bl	netdev_ip4addr_ntoa
	ldr	r1, [sp, #4]                    @ 4-byte Reload
	mov	r2, r0
	.loc	1 944 13                        @ rt-thread/components/net/netdev/src/netdev.c:944:13
	movw	r0, :lower16:.L.str.62
	movt	r0, :upper16:.L.str.62
	bl	rt_kprintf
	.loc	1 945 9 is_stmt 1               @ rt-thread/components/net/netdev/src/netdev.c:945:9
	b	.LBB30_41
.Ltmp475:
.LBB30_41:                              @   in Loop: Header=BB30_39 Depth=2
	.loc	1 942 62                        @ rt-thread/components/net/netdev/src/netdev.c:942:62
	ldr	r0, [sp, #20]
	adds	r0, #1
	str	r0, [sp, #20]
	.loc	1 942 9 is_stmt 0               @ rt-thread/components/net/netdev/src/netdev.c:942:9
	b	.LBB30_39
.Ltmp476:
.LBB30_42:                              @   in Loop: Header=BB30_3 Depth=1
	.loc	1 947 27 is_stmt 1              @ rt-thread/components/net/netdev/src/netdev.c:947:27
	ldr	r0, [sp, #16]
	.loc	1 947 13 is_stmt 0              @ rt-thread/components/net/netdev/src/netdev.c:947:13
	bl	rt_slist_next
.Ltmp477:
	.loc	1 947 13                        @ rt-thread/components/net/netdev/src/netdev.c:947:13
	cbz	r0, .LBB30_44
	b	.LBB30_43
.LBB30_43:                              @   in Loop: Header=BB30_3 Depth=1
.Ltmp478:
	.loc	1 949 13 is_stmt 1              @ rt-thread/components/net/netdev/src/netdev.c:949:13
	movw	r0, :lower16:.L.str.4
	movt	r0, :upper16:.L.str.4
	bl	rt_kprintf
	.loc	1 950 9                         @ rt-thread/components/net/netdev/src/netdev.c:950:9
	b	.LBB30_44
.Ltmp479:
.LBB30_44:                              @   in Loop: Header=BB30_3 Depth=1
	.loc	1 951 5                         @ rt-thread/components/net/netdev/src/netdev.c:951:5
	b	.LBB30_45
.Ltmp480:
.LBB30_45:                              @   in Loop: Header=BB30_3 Depth=1
	.loc	1 872 70                        @ rt-thread/components/net/netdev/src/netdev.c:872:70
	ldr	r0, [sp, #16]
	.loc	1 872 56 is_stmt 0              @ rt-thread/components/net/netdev/src/netdev.c:872:56
	bl	rt_slist_next
	.loc	1 872 54                        @ rt-thread/components/net/netdev/src/netdev.c:872:54
	str	r0, [sp, #16]
	.loc	1 872 5                         @ rt-thread/components/net/netdev/src/netdev.c:872:5
	b	.LBB30_3
.Ltmp481:
.LBB30_46:
	.loc	1 952 1 is_stmt 1               @ rt-thread/components/net/netdev/src/netdev.c:952:1
	add	sp, #24
	pop	{r7, pc}
.Ltmp482:
.Lfunc_end30:
	.size	netdev_list_if, .Lfunc_end30-netdev_list_if
	.cfi_endproc
	.cantunwind
	.fnend
                                        @ -- End function
	.section	.text.netdev_set_if,"ax",%progbits
	.p2align	3                               @ -- Begin function netdev_set_if
	.type	netdev_set_if,%function
	.code	16                              @ @netdev_set_if
	.thumb_func
netdev_set_if:
.Lfunc_begin31:
	.loc	1 955 0                         @ rt-thread/components/net/netdev/src/netdev.c:955:0
	.fnstart
	.cfi_startproc
@ %bb.0:
	.save	{r7, lr}
	push	{r7, lr}
	.cfi_def_cfa_offset 8
	.cfi_offset lr, -4
	.cfi_offset r7, -8
	.pad	#24
	sub	sp, #24
	.cfi_def_cfa_offset 32
	str	r0, [sp, #20]
	str	r1, [sp, #16]
	str	r2, [sp, #12]
	str	r3, [sp, #8]
	movs	r0, #0
.Ltmp483:
	.loc	1 956 20 prologue_end           @ rt-thread/components/net/netdev/src/netdev.c:956:20
	str	r0, [sp, #4]
	.loc	1 959 33                        @ rt-thread/components/net/netdev/src/netdev.c:959:33
	ldr	r0, [sp, #20]
	.loc	1 959 14 is_stmt 0              @ rt-thread/components/net/netdev/src/netdev.c:959:14
	bl	netdev_get_by_name
	.loc	1 959 12                        @ rt-thread/components/net/netdev/src/netdev.c:959:12
	str	r0, [sp, #4]
.Ltmp484:
	.loc	1 960 9 is_stmt 1               @ rt-thread/components/net/netdev/src/netdev.c:960:9
	ldr	r0, [sp, #4]
.Ltmp485:
	.loc	1 960 9 is_stmt 0               @ rt-thread/components/net/netdev/src/netdev.c:960:9
	cbnz	r0, .LBB31_2
	b	.LBB31_1
.LBB31_1:
.Ltmp486:
	.loc	1 962 64 is_stmt 1              @ rt-thread/components/net/netdev/src/netdev.c:962:64
	ldr	r1, [sp, #20]
	.loc	1 962 9 is_stmt 0               @ rt-thread/components/net/netdev/src/netdev.c:962:9
	movw	r0, :lower16:.L.str.63
	movt	r0, :upper16:.L.str.63
	bl	rt_kprintf
	.loc	1 963 9 is_stmt 1               @ rt-thread/components/net/netdev/src/netdev.c:963:9
	b	.LBB31_11
.Ltmp487:
.LBB31_2:
	.loc	1 967 10                        @ rt-thread/components/net/netdev/src/netdev.c:967:10
	ldr	r0, [sp, #16]
	.loc	1 967 30 is_stmt 0              @ rt-thread/components/net/netdev/src/netdev.c:967:30
	cbz	r0, .LBB31_5
	b	.LBB31_3
.LBB31_3:
	.loc	1 967 33                        @ rt-thread/components/net/netdev/src/netdev.c:967:33
	ldr	r0, [sp, #16]
	mov	r1, sp
	bl	netdev_ip4addr_aton
.Ltmp488:
	.loc	1 967 9                         @ rt-thread/components/net/netdev/src/netdev.c:967:9
	cbz	r0, .LBB31_5
	b	.LBB31_4
.LBB31_4:
.Ltmp489:
	.loc	1 969 27 is_stmt 1              @ rt-thread/components/net/netdev/src/netdev.c:969:27
	ldr	r0, [sp, #4]
	mov	r1, sp
	.loc	1 969 9 is_stmt 0               @ rt-thread/components/net/netdev/src/netdev.c:969:9
	bl	netdev_set_ipaddr
	.loc	1 970 5 is_stmt 1               @ rt-thread/components/net/netdev/src/netdev.c:970:5
	b	.LBB31_5
.Ltmp490:
.LBB31_5:
	.loc	1 973 10                        @ rt-thread/components/net/netdev/src/netdev.c:973:10
	ldr	r0, [sp, #12]
	.loc	1 973 30 is_stmt 0              @ rt-thread/components/net/netdev/src/netdev.c:973:30
	cbz	r0, .LBB31_8
	b	.LBB31_6
.LBB31_6:
	.loc	1 973 33                        @ rt-thread/components/net/netdev/src/netdev.c:973:33
	ldr	r0, [sp, #12]
	mov	r1, sp
	bl	netdev_ip4addr_aton
.Ltmp491:
	.loc	1 973 9                         @ rt-thread/components/net/netdev/src/netdev.c:973:9
	cbz	r0, .LBB31_8
	b	.LBB31_7
.LBB31_7:
.Ltmp492:
	.loc	1 975 23 is_stmt 1              @ rt-thread/components/net/netdev/src/netdev.c:975:23
	ldr	r0, [sp, #4]
	mov	r1, sp
	.loc	1 975 9 is_stmt 0               @ rt-thread/components/net/netdev/src/netdev.c:975:9
	bl	netdev_set_gw
	.loc	1 976 5 is_stmt 1               @ rt-thread/components/net/netdev/src/netdev.c:976:5
	b	.LBB31_8
.Ltmp493:
.LBB31_8:
	.loc	1 979 10                        @ rt-thread/components/net/netdev/src/netdev.c:979:10
	ldr	r0, [sp, #8]
	.loc	1 979 30 is_stmt 0              @ rt-thread/components/net/netdev/src/netdev.c:979:30
	cbz	r0, .LBB31_11
	b	.LBB31_9
.LBB31_9:
	.loc	1 979 33                        @ rt-thread/components/net/netdev/src/netdev.c:979:33
	ldr	r0, [sp, #8]
	mov	r1, sp
	bl	netdev_ip4addr_aton
.Ltmp494:
	.loc	1 979 9                         @ rt-thread/components/net/netdev/src/netdev.c:979:9
	cbz	r0, .LBB31_11
	b	.LBB31_10
.LBB31_10:
.Ltmp495:
	.loc	1 981 28 is_stmt 1              @ rt-thread/components/net/netdev/src/netdev.c:981:28
	ldr	r0, [sp, #4]
	mov	r1, sp
	.loc	1 981 9 is_stmt 0               @ rt-thread/components/net/netdev/src/netdev.c:981:9
	bl	netdev_set_netmask
	.loc	1 982 5 is_stmt 1               @ rt-thread/components/net/netdev/src/netdev.c:982:5
	b	.LBB31_11
.Ltmp496:
.LBB31_11:
	.loc	1 983 1                         @ rt-thread/components/net/netdev/src/netdev.c:983:1
	add	sp, #24
	pop	{r7, pc}
.Ltmp497:
.Lfunc_end31:
	.size	netdev_set_if, .Lfunc_end31-netdev_set_if
	.cfi_endproc
	.cantunwind
	.fnend
                                        @ -- End function
	.section	.text.netdev_cmd_ping,"ax",%progbits
	.hidden	netdev_cmd_ping                 @ -- Begin function netdev_cmd_ping
	.globl	netdev_cmd_ping
	.p2align	3
	.type	netdev_cmd_ping,%function
	.code	16                              @ @netdev_cmd_ping
	.thumb_func
netdev_cmd_ping:
.Lfunc_begin32:
	.loc	1 1011 0                        @ rt-thread/components/net/netdev/src/netdev.c:1011:0
	.fnstart
	.cfi_startproc
@ %bb.0:
	.save	{r7, lr}
	push	{r7, lr}
	.cfi_def_cfa_offset 8
	.cfi_offset lr, -4
	.cfi_offset r7, -8
	.pad	#88
	sub	sp, #88
	.cfi_def_cfa_offset 96
	str	r0, [sp, #80]
	str	r1, [sp, #76]
	str	r2, [sp, #72]
	movs	r0, #0
.Ltmp498:
	.loc	1 1022 20 prologue_end          @ rt-thread/components/net/netdev/src/netdev.c:1022:20
	str	r0, [sp, #68]
	.loc	1 1024 16                       @ rt-thread/components/net/netdev/src/netdev.c:1024:16
	str	r0, [sp, #44]
.Ltmp499:
	.loc	1 1026 9                        @ rt-thread/components/net/netdev/src/netdev.c:1026:9
	ldr	r0, [sp, #72]
.Ltmp500:
	.loc	1 1026 9 is_stmt 0              @ rt-thread/components/net/netdev/src/netdev.c:1026:9
	cbnz	r0, .LBB32_2
	b	.LBB32_1
.LBB32_1:
	.loc	1 0 9                           @ rt-thread/components/net/netdev/src/netdev.c:0:9
	movs	r0, #32
.Ltmp501:
	.loc	1 1028 14 is_stmt 1             @ rt-thread/components/net/netdev/src/netdev.c:1028:14
	str	r0, [sp, #72]
	.loc	1 1029 5                        @ rt-thread/components/net/netdev/src/netdev.c:1029:5
	b	.LBB32_2
.Ltmp502:
.LBB32_2:
	.loc	1 1031 9                        @ rt-thread/components/net/netdev/src/netdev.c:1031:9
	movw	r0, :lower16:netdev_default
	movt	r0, :upper16:netdev_default
	ldr	r0, [r0]
	cbz	r0, .LBB32_12
	b	.LBB32_3
.LBB32_3:
	movw	r0, :lower16:netdev_default
	movt	r0, :upper16:netdev_default
	ldr	r0, [r0]
	ldr	r0, [r0, #48]
	cbz	r0, .LBB32_12
	b	.LBB32_4
.LBB32_4:
	movw	r0, :lower16:netdev_default
	movt	r0, :upper16:netdev_default
	ldr	r0, [r0]
	ldr	r0, [r0, #48]
	ldr	r0, [r0, #20]
	cbz	r0, .LBB32_12
	b	.LBB32_5
.LBB32_5:
	movw	r0, :lower16:netdev_default
	movt	r0, :upper16:netdev_default
	ldr	r0, [r0]
	ldrh	r0, [r0, #42]
	lsls	r0, r0, #31
	cbz	r0, .LBB32_7
	b	.LBB32_6
.LBB32_6:
	.loc	1 0 9 is_stmt 0                 @ rt-thread/components/net/netdev/src/netdev.c:0:9
	movs	r0, #1
	.loc	1 1031 9                        @ rt-thread/components/net/netdev/src/netdev.c:1031:9
	cbnz	r0, .LBB32_8
	b	.LBB32_12
.LBB32_7:
	.loc	1 0 9                           @ rt-thread/components/net/netdev/src/netdev.c:0:9
	movs	r0, #1
	.loc	1 1031 9                        @ rt-thread/components/net/netdev/src/netdev.c:1031:9
	cbnz	r0, .LBB32_12
	b	.LBB32_8
.LBB32_8:
	movw	r0, :lower16:netdev_default
	movt	r0, :upper16:netdev_default
	ldr	r0, [r0]
	ldrh	r0, [r0, #42]
.Ltmp503:
	.loc	1 1031 9                        @ rt-thread/components/net/netdev/src/netdev.c:1031:9
	lsls	r0, r0, #29
	cmp	r0, #0
	bpl	.LBB32_10
	b	.LBB32_9
.LBB32_9:
	.loc	1 0 9                           @ rt-thread/components/net/netdev/src/netdev.c:0:9
	movs	r0, #1
.Ltmp504:
	.loc	1 1031 9                        @ rt-thread/components/net/netdev/src/netdev.c:1031:9
	cbnz	r0, .LBB32_11
	b	.LBB32_12
.Ltmp505:
.LBB32_10:
	.loc	1 0 9                           @ rt-thread/components/net/netdev/src/netdev.c:0:9
	movs	r0, #1
	.loc	1 1031 9                        @ rt-thread/components/net/netdev/src/netdev.c:1031:9
	cbnz	r0, .LBB32_12
	b	.LBB32_11
.LBB32_11:
.Ltmp506:
	.loc	1 1034 18 is_stmt 1             @ rt-thread/components/net/netdev/src/netdev.c:1034:18
	movw	r0, :lower16:netdev_default
	movt	r0, :upper16:netdev_default
	ldr	r0, [r0]
	.loc	1 1034 16 is_stmt 0             @ rt-thread/components/net/netdev/src/netdev.c:1034:16
	str	r0, [sp, #68]
	.loc	1 1035 5 is_stmt 1              @ rt-thread/components/net/netdev/src/netdev.c:1035:5
	b	.LBB32_27
.Ltmp507:
.LBB32_12:
	.loc	1 0 5 is_stmt 0                 @ rt-thread/components/net/netdev/src/netdev.c:0:5
	movs	r0, #4
.Ltmp508:
	.loc	1 1039 18 is_stmt 1             @ rt-thread/components/net/netdev/src/netdev.c:1039:18
	bl	netdev_get_first_by_flags
	.loc	1 1039 16 is_stmt 0             @ rt-thread/components/net/netdev/src/netdev.c:1039:16
	str	r0, [sp, #68]
.Ltmp509:
	.loc	1 1040 13 is_stmt 1             @ rt-thread/components/net/netdev/src/netdev.c:1040:13
	ldr	r0, [sp, #68]
.Ltmp510:
	.loc	1 1040 13 is_stmt 0             @ rt-thread/components/net/netdev/src/netdev.c:1040:13
	cbnz	r0, .LBB32_14
	b	.LBB32_13
.LBB32_13:
.Ltmp511:
	.loc	1 1042 13 is_stmt 1             @ rt-thread/components/net/netdev/src/netdev.c:1042:13
	movw	r0, :lower16:.L.str.25
	movt	r0, :upper16:.L.str.25
	bl	rt_kprintf
	mov.w	r0, #-1
	.loc	1 1043 13                       @ rt-thread/components/net/netdev/src/netdev.c:1043:13
	str	r0, [sp, #84]
	b	.LBB32_49
.Ltmp512:
.LBB32_14:
	.loc	1 1045 18                       @ rt-thread/components/net/netdev/src/netdev.c:1045:18
	ldr	r0, [sp, #68]
	.loc	1 1045 26 is_stmt 0             @ rt-thread/components/net/netdev/src/netdev.c:1045:26
	ldr	r0, [r0, #48]
	.loc	1 1045 41                       @ rt-thread/components/net/netdev/src/netdev.c:1045:41
	cbz	r0, .LBB32_16
	b	.LBB32_15
.LBB32_15:
	.loc	1 1045 44                       @ rt-thread/components/net/netdev/src/netdev.c:1045:44
	ldr	r0, [sp, #68]
	.loc	1 1045 52                       @ rt-thread/components/net/netdev/src/netdev.c:1045:52
	ldr	r0, [r0, #48]
	.loc	1 1045 57                       @ rt-thread/components/net/netdev/src/netdev.c:1045:57
	ldr	r0, [r0, #20]
.Ltmp513:
	.loc	1 1045 18                       @ rt-thread/components/net/netdev/src/netdev.c:1045:18
	cbnz	r0, .LBB32_17
	b	.LBB32_16
.LBB32_16:
.Ltmp514:
	.loc	1 1047 90 is_stmt 1             @ rt-thread/components/net/netdev/src/netdev.c:1047:90
	ldr	r0, [sp, #68]
	.loc	1 1047 98 is_stmt 0             @ rt-thread/components/net/netdev/src/netdev.c:1047:98
	adds	r1, r0, #4
	.loc	1 1047 13                       @ rt-thread/components/net/netdev/src/netdev.c:1047:13
	movw	r0, :lower16:.L.str.26
	movt	r0, :upper16:.L.str.26
	bl	rt_kprintf
	mov.w	r0, #-1
	.loc	1 1048 13 is_stmt 1             @ rt-thread/components/net/netdev/src/netdev.c:1048:13
	str	r0, [sp, #84]
	b	.LBB32_49
.Ltmp515:
.LBB32_17:
	.loc	1 1050 19                       @ rt-thread/components/net/netdev/src/netdev.c:1050:19
	ldr	r0, [sp, #68]
	ldrh	r0, [r0, #42]
	.loc	1 1050 40 is_stmt 0             @ rt-thread/components/net/netdev/src/netdev.c:1050:40
	lsls	r0, r0, #31
	cbz	r0, .LBB32_19
	b	.LBB32_18
.LBB32_18:
	.loc	1 0 40                          @ rt-thread/components/net/netdev/src/netdev.c:0:40
	movs	r0, #1
	.loc	1 1050 19                       @ rt-thread/components/net/netdev/src/netdev.c:1050:19
	cbnz	r0, .LBB32_20
	b	.LBB32_23
.LBB32_19:
	.loc	1 0 19                          @ rt-thread/components/net/netdev/src/netdev.c:0:19
	movs	r0, #1
	.loc	1 1050 40                       @ rt-thread/components/net/netdev/src/netdev.c:1050:40
	cbnz	r0, .LBB32_23
	b	.LBB32_20
.LBB32_20:
	.loc	1 1050 44                       @ rt-thread/components/net/netdev/src/netdev.c:1050:44
	ldr	r0, [sp, #68]
	ldrh	r0, [r0, #42]
.Ltmp516:
	.loc	1 1050 18                       @ rt-thread/components/net/netdev/src/netdev.c:1050:18
	lsls	r0, r0, #29
	cmp	r0, #0
	bpl	.LBB32_22
	b	.LBB32_21
.LBB32_21:
	.loc	1 0 18                          @ rt-thread/components/net/netdev/src/netdev.c:0:18
	movs	r0, #1
.Ltmp517:
	.loc	1 1050 44                       @ rt-thread/components/net/netdev/src/netdev.c:1050:44
	cbnz	r0, .LBB32_24
	b	.LBB32_23
.Ltmp518:
.LBB32_22:
	.loc	1 0 44                          @ rt-thread/components/net/netdev/src/netdev.c:0:44
	movs	r0, #0
	.loc	1 1050 18                       @ rt-thread/components/net/netdev/src/netdev.c:1050:18
	cbnz	r0, .LBB32_24
	b	.LBB32_23
.LBB32_23:
.Ltmp519:
	.loc	1 1052 78 is_stmt 1             @ rt-thread/components/net/netdev/src/netdev.c:1052:78
	ldr	r0, [sp, #68]
	.loc	1 1052 86 is_stmt 0             @ rt-thread/components/net/netdev/src/netdev.c:1052:86
	adds	r1, r0, #4
	.loc	1 1052 13                       @ rt-thread/components/net/netdev/src/netdev.c:1052:13
	movw	r0, :lower16:.L.str.27
	movt	r0, :upper16:.L.str.27
	bl	rt_kprintf
	mov.w	r0, #-1
	.loc	1 1053 13 is_stmt 1             @ rt-thread/components/net/netdev/src/netdev.c:1053:13
	str	r0, [sp, #84]
	b	.LBB32_49
.Ltmp520:
.LBB32_24:
	.loc	1 0 13 is_stmt 0                @ rt-thread/components/net/netdev/src/netdev.c:0:13
	b	.LBB32_25
.LBB32_25:
	b	.LBB32_26
.LBB32_26:
	b	.LBB32_27
.LBB32_27:
	movs	r0, #0
.Ltmp521:
	.loc	1 1057 16 is_stmt 1             @ rt-thread/components/net/netdev/src/netdev.c:1057:16
	str	r0, [sp, #48]
	.loc	1 1057 10 is_stmt 0             @ rt-thread/components/net/netdev/src/netdev.c:1057:10
	b	.LBB32_28
.LBB32_28:                              @ =>This Inner Loop Header: Depth=1
.Ltmp522:
	.loc	1 1057 21                       @ rt-thread/components/net/netdev/src/netdev.c:1057:21
	ldr	r0, [sp, #48]
	.loc	1 1057 29                       @ rt-thread/components/net/netdev/src/netdev.c:1057:29
	ldr	r1, [sp, #76]
.Ltmp523:
	.loc	1 1057 5                        @ rt-thread/components/net/netdev/src/netdev.c:1057:5
	cmp	r0, r1
	bhs.w	.LBB32_48
	b	.LBB32_29
.LBB32_29:                              @   in Loop: Header=BB32_28 Depth=1
	.loc	1 0 5                           @ rt-thread/components/net/netdev/src/netdev.c:0:5
	movs	r1, #0
.Ltmp524:
	.loc	1 1059 13 is_stmt 1             @ rt-thread/components/net/netdev/src/netdev.c:1059:13
	str	r1, [sp, #40]
	.loc	1 1060 19                       @ rt-thread/components/net/netdev/src/netdev.c:1060:19
	str	r1, [sp, #36]
	add	r0, sp, #52
	str	r0, [sp, #32]                   @ 4-byte Spill
	movs	r2, #16
	.loc	1 1062 9                        @ rt-thread/components/net/netdev/src/netdev.c:1062:9
	bl	rt_memset
	.loc	1 1063 22                       @ rt-thread/components/net/netdev/src/netdev.c:1063:22
	bl	rt_tick_get
	ldr	r3, [sp, #32]                   @ 4-byte Reload
	.loc	1 1063 20 is_stmt 0             @ rt-thread/components/net/netdev/src/netdev.c:1063:20
	str	r0, [sp, #36]
	.loc	1 1064 15 is_stmt 1             @ rt-thread/components/net/netdev/src/netdev.c:1064:15
	ldr	r0, [sp, #68]
	.loc	1 1064 23 is_stmt 0             @ rt-thread/components/net/netdev/src/netdev.c:1064:23
	ldr	r1, [r0, #48]
	.loc	1 1064 28                       @ rt-thread/components/net/netdev/src/netdev.c:1064:28
	ldr.w	r12, [r1, #20]
	.loc	1 1064 55                       @ rt-thread/components/net/netdev/src/netdev.c:1064:55
	ldr	r1, [sp, #80]
	.loc	1 1064 68                       @ rt-thread/components/net/netdev/src/netdev.c:1064:68
	ldr	r2, [sp, #72]
	.loc	1 1064 15                       @ rt-thread/components/net/netdev/src/netdev.c:1064:15
	mov	lr, sp
	str.w	r3, [lr]
	mov.w	r3, #2000
	blx	r12
	.loc	1 1064 13                       @ rt-thread/components/net/netdev/src/netdev.c:1064:13
	str	r0, [sp, #44]
.Ltmp525:
	.loc	1 1065 13 is_stmt 1             @ rt-thread/components/net/netdev/src/netdev.c:1065:13
	ldr	r0, [sp, #44]
.Ltmp526:
	.loc	1 1065 13 is_stmt 0             @ rt-thread/components/net/netdev/src/netdev.c:1065:13
	adds	r0, #2
	cbnz	r0, .LBB32_34
	b	.LBB32_30
.LBB32_30:                              @   in Loop: Header=BB32_28 Depth=1
.Ltmp527:
	.loc	1 1068 18 is_stmt 1             @ rt-thread/components/net/netdev/src/netdev.c:1068:18
	ldr	r0, [sp, #52]
	.loc	1 1068 17 is_stmt 0             @ rt-thread/components/net/netdev/src/netdev.c:1068:17
	cbnz	r0, .LBB32_32
	b	.LBB32_31
.LBB32_31:                              @   in Loop: Header=BB32_28 Depth=1
	.loc	1 1068 57                       @ rt-thread/components/net/netdev/src/netdev.c:1068:57
	ldr	r0, [sp, #80]
	.loc	1 1068 17                       @ rt-thread/components/net/netdev/src/netdev.c:1068:17
	str	r0, [sp, #28]                   @ 4-byte Spill
	b	.LBB32_33
.LBB32_32:                              @   in Loop: Header=BB32_28 Depth=1
	.loc	1 0 17                          @ rt-thread/components/net/netdev/src/netdev.c:0:17
	add	r0, sp, #52
	.loc	1 1068 71                       @ rt-thread/components/net/netdev/src/netdev.c:1068:71
	bl	netdev_ip4addr_ntoa
	.loc	1 1068 17                       @ rt-thread/components/net/netdev/src/netdev.c:1068:17
	str	r0, [sp, #28]                   @ 4-byte Spill
	b	.LBB32_33
.LBB32_33:                              @   in Loop: Header=BB32_28 Depth=1
	ldr	r1, [sp, #28]                   @ 4-byte Reload
	.loc	1 1068 101                      @ rt-thread/components/net/netdev/src/netdev.c:1068:101
	ldr	r2, [sp, #48]
	.loc	1 1067 13 is_stmt 1             @ rt-thread/components/net/netdev/src/netdev.c:1067:13
	movw	r0, :lower16:.L.str.28
	movt	r0, :upper16:.L.str.28
	bl	rt_kprintf
	.loc	1 1069 9                        @ rt-thread/components/net/netdev/src/netdev.c:1069:9
	b	.LBB32_44
.Ltmp528:
.LBB32_34:                              @   in Loop: Header=BB32_28 Depth=1
	.loc	1 1070 18                       @ rt-thread/components/net/netdev/src/netdev.c:1070:18
	ldr	r0, [sp, #44]
.Ltmp529:
	.loc	1 1070 18 is_stmt 0             @ rt-thread/components/net/netdev/src/netdev.c:1070:18
	adds	r0, #1
	cbnz	r0, .LBB32_39
	b	.LBB32_35
.LBB32_35:                              @   in Loop: Header=BB32_28 Depth=1
.Ltmp530:
	.loc	1 1073 18 is_stmt 1             @ rt-thread/components/net/netdev/src/netdev.c:1073:18
	ldr	r0, [sp, #52]
	.loc	1 1073 17 is_stmt 0             @ rt-thread/components/net/netdev/src/netdev.c:1073:17
	movw	r2, :lower16:.L.str.30
	movt	r2, :upper16:.L.str.30
	movw	r1, :lower16:.L.str.31
	movt	r1, :upper16:.L.str.31
	cmp	r0, #0
	it	eq
	moveq	r1, r2
	.loc	1 1074 21 is_stmt 1             @ rt-thread/components/net/netdev/src/netdev.c:1074:21
	str	r1, [sp, #24]                   @ 4-byte Spill
	cbnz	r0, .LBB32_37
	b	.LBB32_36
.LBB32_36:                              @   in Loop: Header=BB32_28 Depth=1
	.loc	1 1074 61 is_stmt 0             @ rt-thread/components/net/netdev/src/netdev.c:1074:61
	ldr	r0, [sp, #80]
	.loc	1 1074 21                       @ rt-thread/components/net/netdev/src/netdev.c:1074:21
	str	r0, [sp, #20]                   @ 4-byte Spill
	b	.LBB32_38
.LBB32_37:                              @   in Loop: Header=BB32_28 Depth=1
	.loc	1 0 21                          @ rt-thread/components/net/netdev/src/netdev.c:0:21
	add	r0, sp, #52
	.loc	1 1074 75                       @ rt-thread/components/net/netdev/src/netdev.c:1074:75
	bl	netdev_ip4addr_ntoa
	.loc	1 1074 21                       @ rt-thread/components/net/netdev/src/netdev.c:1074:21
	str	r0, [sp, #20]                   @ 4-byte Spill
	b	.LBB32_38
.LBB32_38:                              @   in Loop: Header=BB32_28 Depth=1
	ldr	r1, [sp, #24]                   @ 4-byte Reload
	ldr	r2, [sp, #20]                   @ 4-byte Reload
	.loc	1 1072 13 is_stmt 1             @ rt-thread/components/net/netdev/src/netdev.c:1072:13
	movw	r0, :lower16:.L.str.29
	movt	r0, :upper16:.L.str.29
	bl	rt_kprintf
	.loc	1 1075 9                        @ rt-thread/components/net/netdev/src/netdev.c:1075:9
	b	.LBB32_43
.Ltmp531:
.LBB32_39:                              @   in Loop: Header=BB32_28 Depth=1
	.loc	1 1078 27                       @ rt-thread/components/net/netdev/src/netdev.c:1078:27
	ldrh.w	r0, [sp, #58]
.Ltmp532:
	.loc	1 1078 17 is_stmt 0             @ rt-thread/components/net/netdev/src/netdev.c:1078:17
	cbnz	r0, .LBB32_41
	b	.LBB32_40
.LBB32_40:                              @   in Loop: Header=BB32_28 Depth=1
.Ltmp533:
	.loc	1 1081 39 is_stmt 1             @ rt-thread/components/net/netdev/src/netdev.c:1081:39
	ldrh.w	r0, [sp, #56]
	.loc	1 1081 49 is_stmt 0             @ rt-thread/components/net/netdev/src/netdev.c:1081:49
	str	r0, [sp, #16]                   @ 4-byte Spill
	add	r0, sp, #52
	bl	netdev_ip4addr_ntoa
	ldr	r1, [sp, #16]                   @ 4-byte Reload
	mov	r2, r0
	.loc	1 1081 79                       @ rt-thread/components/net/netdev/src/netdev.c:1081:79
	ldr	r3, [sp, #48]
	.loc	1 1081 96                       @ rt-thread/components/net/netdev/src/netdev.c:1081:96
	ldr	r0, [sp, #60]
	.loc	1 1080 17 is_stmt 1             @ rt-thread/components/net/netdev/src/netdev.c:1080:17
	mov	r12, sp
	str.w	r0, [r12]
	movw	r0, :lower16:.L.str.32
	movt	r0, :upper16:.L.str.32
	bl	rt_kprintf
	.loc	1 1082 13                       @ rt-thread/components/net/netdev/src/netdev.c:1082:13
	b	.LBB32_42
.Ltmp534:
.LBB32_41:                              @   in Loop: Header=BB32_28 Depth=1
	.loc	1 1086 39                       @ rt-thread/components/net/netdev/src/netdev.c:1086:39
	ldrh.w	r0, [sp, #56]
	.loc	1 1086 49 is_stmt 0             @ rt-thread/components/net/netdev/src/netdev.c:1086:49
	str	r0, [sp, #12]                   @ 4-byte Spill
	add	r0, sp, #52
	bl	netdev_ip4addr_ntoa
	ldr	r1, [sp, #12]                   @ 4-byte Reload
	mov	r2, r0
	.loc	1 1086 79                       @ rt-thread/components/net/netdev/src/netdev.c:1086:79
	ldr	r3, [sp, #48]
	.loc	1 1086 96                       @ rt-thread/components/net/netdev/src/netdev.c:1086:96
	ldrh.w	r0, [sp, #58]
	.loc	1 1086 111                      @ rt-thread/components/net/netdev/src/netdev.c:1086:111
	ldr.w	lr, [sp, #60]
	.loc	1 1085 17 is_stmt 1             @ rt-thread/components/net/netdev/src/netdev.c:1085:17
	mov	r12, sp
	str.w	lr, [r12, #4]
	str.w	r0, [r12]
	movw	r0, :lower16:.L.str.33
	movt	r0, :upper16:.L.str.33
	bl	rt_kprintf
	b	.LBB32_42
.Ltmp535:
.LBB32_42:                              @   in Loop: Header=BB32_28 Depth=1
	.loc	1 0 17 is_stmt 0                @ rt-thread/components/net/netdev/src/netdev.c:0:17
	b	.LBB32_43
.LBB32_43:                              @   in Loop: Header=BB32_28 Depth=1
	b	.LBB32_44
.LBB32_44:                              @   in Loop: Header=BB32_28 Depth=1
	.loc	1 1091 24 is_stmt 1             @ rt-thread/components/net/netdev/src/netdev.c:1091:24
	bl	rt_tick_get
	.loc	1 1091 40 is_stmt 0             @ rt-thread/components/net/netdev/src/netdev.c:1091:40
	ldr	r1, [sp, #36]
	.loc	1 1091 38                       @ rt-thread/components/net/netdev/src/netdev.c:1091:38
	subs	r1, r0, r1
	movs	r0, #1
	.loc	1 1091 73                       @ rt-thread/components/net/netdev/src/netdev.c:1091:73
	cmp.w	r1, #1000
	str	r0, [sp, #8]                    @ 4-byte Spill
	bhi	.LBB32_46
	b	.LBB32_45
.LBB32_45:                              @   in Loop: Header=BB32_28 Depth=1
	.loc	1 1091 77                       @ rt-thread/components/net/netdev/src/netdev.c:1091:77
	ldr	r0, [sp, #48]
	.loc	1 1091 86                       @ rt-thread/components/net/netdev/src/netdev.c:1091:86
	ldr	r1, [sp, #76]
	.loc	1 1091 83                       @ rt-thread/components/net/netdev/src/netdev.c:1091:83
	subs	r0, r0, r1
	clz	r0, r0
	lsrs	r0, r0, #5
	.loc	1 1091 73                       @ rt-thread/components/net/netdev/src/netdev.c:1091:73
	str	r0, [sp, #8]                    @ 4-byte Spill
	b	.LBB32_46
.LBB32_46:                              @   in Loop: Header=BB32_28 Depth=1
	.loc	1 0 73                          @ rt-thread/components/net/netdev/src/netdev.c:0:73
	ldr	r0, [sp, #8]                    @ 4-byte Reload
	.loc	1 1091 22                       @ rt-thread/components/net/netdev/src/netdev.c:1091:22
	lsls	r1, r0, #31
	mov.w	r0, #1000
	cmp	r1, #0
	it	ne
	movne	r0, #0
	.loc	1 1091 20                       @ rt-thread/components/net/netdev/src/netdev.c:1091:20
	str	r0, [sp, #40]
	.loc	1 1092 25 is_stmt 1             @ rt-thread/components/net/netdev/src/netdev.c:1092:25
	ldr	r0, [sp, #40]
	.loc	1 1092 9 is_stmt 0              @ rt-thread/components/net/netdev/src/netdev.c:1092:9
	bl	rt_thread_delay
	.loc	1 1093 5 is_stmt 1              @ rt-thread/components/net/netdev/src/netdev.c:1093:5
	b	.LBB32_47
.Ltmp536:
.LBB32_47:                              @   in Loop: Header=BB32_28 Depth=1
	.loc	1 1057 41                       @ rt-thread/components/net/netdev/src/netdev.c:1057:41
	ldr	r0, [sp, #48]
	adds	r0, #1
	str	r0, [sp, #48]
	.loc	1 1057 5 is_stmt 0              @ rt-thread/components/net/netdev/src/netdev.c:1057:5
	b	.LBB32_28
.Ltmp537:
.LBB32_48:
	.loc	1 0 5                           @ rt-thread/components/net/netdev/src/netdev.c:0:5
	movs	r0, #0
	.loc	1 1095 5 is_stmt 1              @ rt-thread/components/net/netdev/src/netdev.c:1095:5
	str	r0, [sp, #84]
	b	.LBB32_49
.LBB32_49:
	.loc	1 1096 1                        @ rt-thread/components/net/netdev/src/netdev.c:1096:1
	ldr	r0, [sp, #84]
	add	sp, #88
	pop	{r7, pc}
.Ltmp538:
.Lfunc_end32:
	.size	netdev_cmd_ping, .Lfunc_end32-netdev_cmd_ping
	.cfi_endproc
	.cantunwind
	.fnend
                                        @ -- End function
	.section	.text.netdev_ping,"ax",%progbits
	.hidden	netdev_ping                     @ -- Begin function netdev_ping
	.globl	netdev_ping
	.p2align	3
	.type	netdev_ping,%function
	.code	16                              @ @netdev_ping
	.thumb_func
netdev_ping:
.Lfunc_begin33:
	.loc	1 1099 0                        @ rt-thread/components/net/netdev/src/netdev.c:1099:0
	.fnstart
	.cfi_startproc
@ %bb.0:
	.save	{r7, lr}
	push	{r7, lr}
	.cfi_def_cfa_offset 8
	.cfi_offset lr, -4
	.cfi_offset r7, -8
	.pad	#8
	sub	sp, #8
	.cfi_def_cfa_offset 16
	str	r0, [sp, #4]
	str	r1, [sp]
.Ltmp539:
	.loc	1 1100 9 prologue_end           @ rt-thread/components/net/netdev/src/netdev.c:1100:9
	ldr	r0, [sp, #4]
.Ltmp540:
	.loc	1 1100 9 is_stmt 0              @ rt-thread/components/net/netdev/src/netdev.c:1100:9
	cmp	r0, #1
	bne	.LBB33_2
	b	.LBB33_1
.LBB33_1:
.Ltmp541:
	.loc	1 1102 9 is_stmt 1              @ rt-thread/components/net/netdev/src/netdev.c:1102:9
	movw	r0, :lower16:.L.str.34
	movt	r0, :upper16:.L.str.34
	bl	rt_kprintf
	.loc	1 1103 5                        @ rt-thread/components/net/netdev/src/netdev.c:1103:5
	b	.LBB33_3
.Ltmp542:
.LBB33_2:
	.loc	1 1106 25                       @ rt-thread/components/net/netdev/src/netdev.c:1106:25
	ldr	r0, [sp]
	ldr	r0, [r0, #4]
	movs	r1, #4
	movs	r2, #0
	.loc	1 1106 9 is_stmt 0              @ rt-thread/components/net/netdev/src/netdev.c:1106:9
	bl	netdev_cmd_ping
	b	.LBB33_3
.Ltmp543:
.LBB33_3:
	.loc	1 0 9                           @ rt-thread/components/net/netdev/src/netdev.c:0:9
	movs	r0, #0
	.loc	1 1109 5 is_stmt 1              @ rt-thread/components/net/netdev/src/netdev.c:1109:5
	add	sp, #8
	pop	{r7, pc}
.Ltmp544:
.Lfunc_end33:
	.size	netdev_ping, .Lfunc_end33-netdev_ping
	.cfi_endproc
	.cantunwind
	.fnend
                                        @ -- End function
	.section	.text.netdev_dns,"ax",%progbits
	.hidden	netdev_dns                      @ -- Begin function netdev_dns
	.globl	netdev_dns
	.p2align	3
	.type	netdev_dns,%function
	.code	16                              @ @netdev_dns
	.thumb_func
netdev_dns:
.Lfunc_begin34:
	.loc	1 1160 0                        @ rt-thread/components/net/netdev/src/netdev.c:1160:0
	.fnstart
	.cfi_startproc
@ %bb.0:
	.save	{r7, lr}
	push	{r7, lr}
	.cfi_def_cfa_offset 8
	.cfi_offset lr, -4
	.cfi_offset r7, -8
	.pad	#16
	sub	sp, #16
	.cfi_def_cfa_offset 24
	str	r0, [sp, #8]
	str	r1, [sp, #4]
.Ltmp545:
	.loc	1 1161 9 prologue_end           @ rt-thread/components/net/netdev/src/netdev.c:1161:9
	ldr	r0, [sp, #8]
.Ltmp546:
	.loc	1 1161 9 is_stmt 0              @ rt-thread/components/net/netdev/src/netdev.c:1161:9
	cmp	r0, #1
	bne	.LBB34_2
	b	.LBB34_1
.LBB34_1:
.Ltmp547:
	.loc	1 1163 9 is_stmt 1              @ rt-thread/components/net/netdev/src/netdev.c:1163:9
	bl	netdev_list_dns
	.loc	1 1164 5                        @ rt-thread/components/net/netdev/src/netdev.c:1164:5
	b	.LBB34_9
.Ltmp548:
.LBB34_2:
	.loc	1 1165 14                       @ rt-thread/components/net/netdev/src/netdev.c:1165:14
	ldr	r0, [sp, #8]
.Ltmp549:
	.loc	1 1165 14 is_stmt 0             @ rt-thread/components/net/netdev/src/netdev.c:1165:14
	cmp	r0, #3
	bne	.LBB34_4
	b	.LBB34_3
.LBB34_3:
.Ltmp550:
	.loc	1 1167 24 is_stmt 1             @ rt-thread/components/net/netdev/src/netdev.c:1167:24
	ldr	r1, [sp, #4]
	ldr	r0, [r1, #4]
	.loc	1 1167 36 is_stmt 0             @ rt-thread/components/net/netdev/src/netdev.c:1167:36
	ldr	r2, [r1, #8]
	movs	r1, #0
	.loc	1 1167 9                        @ rt-thread/components/net/netdev/src/netdev.c:1167:9
	bl	netdev_set_dns
	.loc	1 1168 5 is_stmt 1              @ rt-thread/components/net/netdev/src/netdev.c:1168:5
	b	.LBB34_8
.Ltmp551:
.LBB34_4:
	.loc	1 1169 14                       @ rt-thread/components/net/netdev/src/netdev.c:1169:14
	ldr	r0, [sp, #8]
.Ltmp552:
	.loc	1 1169 14 is_stmt 0             @ rt-thread/components/net/netdev/src/netdev.c:1169:14
	cmp	r0, #4
	bne	.LBB34_6
	b	.LBB34_5
.LBB34_5:
.Ltmp553:
	.loc	1 1171 24 is_stmt 1             @ rt-thread/components/net/netdev/src/netdev.c:1171:24
	ldr	r0, [sp, #4]
	ldr	r1, [r0, #4]
	.loc	1 1171 38 is_stmt 0             @ rt-thread/components/net/netdev/src/netdev.c:1171:38
	str	r1, [sp]                        @ 4-byte Spill
	ldr	r0, [r0, #8]
	.loc	1 1171 33                       @ rt-thread/components/net/netdev/src/netdev.c:1171:33
	bl	atoi
	mov	r1, r0
	.loc	1 1171 48                       @ rt-thread/components/net/netdev/src/netdev.c:1171:48
	ldr	r0, [sp]                        @ 4-byte Reload
	ldr	r2, [sp, #4]
	ldr	r2, [r2, #12]
	.loc	1 1171 9                        @ rt-thread/components/net/netdev/src/netdev.c:1171:9
	uxtb	r1, r1
	bl	netdev_set_dns
	.loc	1 1172 5 is_stmt 1              @ rt-thread/components/net/netdev/src/netdev.c:1172:5
	b	.LBB34_7
.Ltmp554:
.LBB34_6:
	.loc	1 1175 9                        @ rt-thread/components/net/netdev/src/netdev.c:1175:9
	movw	r0, :lower16:.L.str.35
	movt	r0, :upper16:.L.str.35
	bl	rt_kprintf
	mov.w	r0, #-1
	.loc	1 1176 9                        @ rt-thread/components/net/netdev/src/netdev.c:1176:9
	str	r0, [sp, #12]
	b	.LBB34_10
.Ltmp555:
.LBB34_7:
	.loc	1 0 9 is_stmt 0                 @ rt-thread/components/net/netdev/src/netdev.c:0:9
	b	.LBB34_8
.LBB34_8:
	b	.LBB34_9
.LBB34_9:
	movs	r0, #0
	.loc	1 1179 5 is_stmt 1              @ rt-thread/components/net/netdev/src/netdev.c:1179:5
	str	r0, [sp, #12]
	b	.LBB34_10
.LBB34_10:
	.loc	1 1180 1                        @ rt-thread/components/net/netdev/src/netdev.c:1180:1
	ldr	r0, [sp, #12]
	add	sp, #16
	pop	{r7, pc}
.Ltmp556:
.Lfunc_end34:
	.size	netdev_dns, .Lfunc_end34-netdev_dns
	.cfi_endproc
	.cantunwind
	.fnend
                                        @ -- End function
	.section	.text.netdev_list_dns,"ax",%progbits
	.p2align	3                               @ -- Begin function netdev_list_dns
	.type	netdev_list_dns,%function
	.code	16                              @ @netdev_list_dns
	.thumb_func
netdev_list_dns:
.Lfunc_begin35:
	.loc	1 1115 0                        @ rt-thread/components/net/netdev/src/netdev.c:1115:0
	.fnstart
	.cfi_startproc
@ %bb.0:
	.save	{r7, lr}
	push	{r7, lr}
	.cfi_def_cfa_offset 8
	.cfi_offset lr, -4
	.cfi_offset r7, -8
	.pad	#16
	sub	sp, #16
	.cfi_def_cfa_offset 24
	movs	r0, #0
.Ltmp557:
	.loc	1 1116 9 prologue_end           @ rt-thread/components/net/netdev/src/netdev.c:1116:9
	str	r0, [sp, #12]
	.loc	1 1117 20                       @ rt-thread/components/net/netdev/src/netdev.c:1117:20
	str	r0, [sp, #8]
	.loc	1 1118 17                       @ rt-thread/components/net/netdev/src/netdev.c:1118:17
	str	r0, [sp, #4]
.Ltmp558:
	.loc	1 1120 19                       @ rt-thread/components/net/netdev/src/netdev.c:1120:19
	movw	r0, :lower16:netdev_list
	movt	r0, :upper16:netdev_list
	ldr	r0, [r0]
	.loc	1 1120 15 is_stmt 0             @ rt-thread/components/net/netdev/src/netdev.c:1120:15
	str	r0, [sp, #4]
	.loc	1 1120 10                       @ rt-thread/components/net/netdev/src/netdev.c:1120:10
	b	.LBB35_1
.LBB35_1:                               @ =>This Loop Header: Depth=1
                                        @     Child Loop BB35_3 Depth 2
.Ltmp559:
	.loc	1 1120 39                       @ rt-thread/components/net/netdev/src/netdev.c:1120:39
	ldr	r0, [sp, #4]
.Ltmp560:
	.loc	1 1120 5                        @ rt-thread/components/net/netdev/src/netdev.c:1120:5
	cmp	r0, #0
	beq	.LBB35_10
	b	.LBB35_2
.LBB35_2:                               @   in Loop: Header=BB35_1 Depth=1
.Ltmp561:
	.loc	1 1122 18 is_stmt 1             @ rt-thread/components/net/netdev/src/netdev.c:1122:18
	ldr	r0, [sp, #4]
	.loc	1 1122 16 is_stmt 0             @ rt-thread/components/net/netdev/src/netdev.c:1122:16
	str	r0, [sp, #8]
	.loc	1 1125 30 is_stmt 1             @ rt-thread/components/net/netdev/src/netdev.c:1125:30
	ldr	r1, [sp, #8]
	.loc	1 1125 38 is_stmt 0             @ rt-thread/components/net/netdev/src/netdev.c:1125:38
	adds	r2, r1, #4
	.loc	1 1126 28 is_stmt 1             @ rt-thread/components/net/netdev/src/netdev.c:1126:28
	movw	r0, :lower16:netdev_default
	movt	r0, :upper16:netdev_default
	ldr.w	r12, [r0]
	.loc	1 1126 17 is_stmt 0             @ rt-thread/components/net/netdev/src/netdev.c:1126:17
	movw	r0, :lower16:.L.str.39
	movt	r0, :upper16:.L.str.39
	movw	r3, :lower16:.L.str.40
	movt	r3, :upper16:.L.str.40
	cmp	r1, r12
	it	eq
	moveq	r3, r0
	.loc	1 1124 9 is_stmt 1              @ rt-thread/components/net/netdev/src/netdev.c:1124:9
	movw	r0, :lower16:.L.str.38
	movt	r0, :upper16:.L.str.38
	movs	r1, #8
	bl	rt_kprintf
	movs	r0, #0
.Ltmp562:
	.loc	1 1128 19                       @ rt-thread/components/net/netdev/src/netdev.c:1128:19
	str	r0, [sp, #12]
	.loc	1 1128 13 is_stmt 0             @ rt-thread/components/net/netdev/src/netdev.c:1128:13
	b	.LBB35_3
.LBB35_3:                               @   Parent Loop BB35_1 Depth=1
                                        @ =>  This Inner Loop Header: Depth=2
.Ltmp563:
	.loc	1 1128 24                       @ rt-thread/components/net/netdev/src/netdev.c:1128:24
	ldr	r0, [sp, #12]
.Ltmp564:
	.loc	1 1128 9                        @ rt-thread/components/net/netdev/src/netdev.c:1128:9
	cmp	r0, #1
	bhi	.LBB35_6
	b	.LBB35_4
.LBB35_4:                               @   in Loop: Header=BB35_3 Depth=2
.Ltmp565:
	.loc	1 1130 48 is_stmt 1             @ rt-thread/components/net/netdev/src/netdev.c:1130:48
	ldr	r1, [sp, #12]
	.loc	1 1130 55 is_stmt 0             @ rt-thread/components/net/netdev/src/netdev.c:1130:55
	str	r1, [sp]                        @ 4-byte Spill
	ldr	r0, [sp, #8]
	add.w	r0, r0, r1, lsl #2
	adds	r0, #24
	bl	netdev_ip4addr_ntoa
	ldr	r1, [sp]                        @ 4-byte Reload
	mov	r2, r0
	.loc	1 1130 13                       @ rt-thread/components/net/netdev/src/netdev.c:1130:13
	movw	r0, :lower16:.L.str.62
	movt	r0, :upper16:.L.str.62
	bl	rt_kprintf
	.loc	1 1131 9 is_stmt 1              @ rt-thread/components/net/netdev/src/netdev.c:1131:9
	b	.LBB35_5
.Ltmp566:
.LBB35_5:                               @   in Loop: Header=BB35_3 Depth=2
	.loc	1 1128 61                       @ rt-thread/components/net/netdev/src/netdev.c:1128:61
	ldr	r0, [sp, #12]
	adds	r0, #1
	str	r0, [sp, #12]
	.loc	1 1128 9 is_stmt 0              @ rt-thread/components/net/netdev/src/netdev.c:1128:9
	b	.LBB35_3
.Ltmp567:
.LBB35_6:                               @   in Loop: Header=BB35_1 Depth=1
	.loc	1 1133 27 is_stmt 1             @ rt-thread/components/net/netdev/src/netdev.c:1133:27
	ldr	r0, [sp, #4]
	.loc	1 1133 13 is_stmt 0             @ rt-thread/components/net/netdev/src/netdev.c:1133:13
	bl	rt_slist_next
.Ltmp568:
	.loc	1 1133 13                       @ rt-thread/components/net/netdev/src/netdev.c:1133:13
	cbz	r0, .LBB35_8
	b	.LBB35_7
.LBB35_7:                               @   in Loop: Header=BB35_1 Depth=1
.Ltmp569:
	.loc	1 1135 13 is_stmt 1             @ rt-thread/components/net/netdev/src/netdev.c:1135:13
	movw	r0, :lower16:.L.str.4
	movt	r0, :upper16:.L.str.4
	bl	rt_kprintf
	.loc	1 1136 9                        @ rt-thread/components/net/netdev/src/netdev.c:1136:9
	b	.LBB35_8
.Ltmp570:
.LBB35_8:                               @   in Loop: Header=BB35_1 Depth=1
	.loc	1 1137 5                        @ rt-thread/components/net/netdev/src/netdev.c:1137:5
	b	.LBB35_9
.Ltmp571:
.LBB35_9:                               @   in Loop: Header=BB35_1 Depth=1
	.loc	1 1120 66                       @ rt-thread/components/net/netdev/src/netdev.c:1120:66
	ldr	r0, [sp, #4]
	.loc	1 1120 52 is_stmt 0             @ rt-thread/components/net/netdev/src/netdev.c:1120:52
	bl	rt_slist_next
	.loc	1 1120 50                       @ rt-thread/components/net/netdev/src/netdev.c:1120:50
	str	r0, [sp, #4]
	.loc	1 1120 5                        @ rt-thread/components/net/netdev/src/netdev.c:1120:5
	b	.LBB35_1
.Ltmp572:
.LBB35_10:
	.loc	1 1138 1 is_stmt 1              @ rt-thread/components/net/netdev/src/netdev.c:1138:1
	add	sp, #16
	pop	{r7, pc}
.Ltmp573:
.Lfunc_end35:
	.size	netdev_list_dns, .Lfunc_end35-netdev_list_dns
	.cfi_endproc
	.cantunwind
	.fnend
                                        @ -- End function
	.section	.text.netdev_set_dns,"ax",%progbits
	.p2align	3                               @ -- Begin function netdev_set_dns
	.type	netdev_set_dns,%function
	.code	16                              @ @netdev_set_dns
	.thumb_func
netdev_set_dns:
.Lfunc_begin36:
	.loc	1 1141 0                        @ rt-thread/components/net/netdev/src/netdev.c:1141:0
	.fnstart
	.cfi_startproc
@ %bb.0:
	.save	{r7, lr}
	push	{r7, lr}
	.cfi_def_cfa_offset 8
	.cfi_offset lr, -4
	.cfi_offset r7, -8
	.pad	#24
	sub	sp, #24
	.cfi_def_cfa_offset 32
                                        @ kill: def $r3 killed $r1
	str	r0, [sp, #20]
	strb.w	r1, [sp, #19]
	str	r2, [sp, #12]
	movs	r0, #0
.Ltmp574:
	.loc	1 1142 20 prologue_end          @ rt-thread/components/net/netdev/src/netdev.c:1142:20
	str	r0, [sp, #8]
	.loc	1 1145 33                       @ rt-thread/components/net/netdev/src/netdev.c:1145:33
	ldr	r0, [sp, #20]
	.loc	1 1145 14 is_stmt 0             @ rt-thread/components/net/netdev/src/netdev.c:1145:14
	bl	netdev_get_by_name
	.loc	1 1145 12                       @ rt-thread/components/net/netdev/src/netdev.c:1145:12
	str	r0, [sp, #8]
.Ltmp575:
	.loc	1 1146 9 is_stmt 1              @ rt-thread/components/net/netdev/src/netdev.c:1146:9
	ldr	r0, [sp, #8]
.Ltmp576:
	.loc	1 1146 9 is_stmt 0              @ rt-thread/components/net/netdev/src/netdev.c:1146:9
	cbnz	r0, .LBB36_2
	b	.LBB36_1
.LBB36_1:
.Ltmp577:
	.loc	1 1148 64 is_stmt 1             @ rt-thread/components/net/netdev/src/netdev.c:1148:64
	ldr	r1, [sp, #20]
	.loc	1 1148 9 is_stmt 0              @ rt-thread/components/net/netdev/src/netdev.c:1148:9
	movw	r0, :lower16:.L.str.63
	movt	r0, :upper16:.L.str.63
	bl	rt_kprintf
	.loc	1 1149 9 is_stmt 1              @ rt-thread/components/net/netdev/src/netdev.c:1149:9
	b	.LBB36_4
.Ltmp578:
.LBB36_2:
	.loc	1 1152 5                        @ rt-thread/components/net/netdev/src/netdev.c:1152:5
	ldr	r0, [sp, #12]
	add	r1, sp, #4
	str	r1, [sp]                        @ 4-byte Spill
	bl	netdev_ip4addr_aton
	ldr	r2, [sp]                        @ 4-byte Reload
.Ltmp579:
	.loc	1 1153 31                       @ rt-thread/components/net/netdev/src/netdev.c:1153:31
	ldr	r0, [sp, #8]
	.loc	1 1153 39 is_stmt 0             @ rt-thread/components/net/netdev/src/netdev.c:1153:39
	ldrb.w	r1, [sp, #19]
	.loc	1 1153 9                        @ rt-thread/components/net/netdev/src/netdev.c:1153:9
	bl	netdev_set_dns_server
.Ltmp580:
	.loc	1 1153 9                        @ rt-thread/components/net/netdev/src/netdev.c:1153:9
	cbnz	r0, .LBB36_4
	b	.LBB36_3
.LBB36_3:
.Ltmp581:
	.loc	1 1155 77 is_stmt 1             @ rt-thread/components/net/netdev/src/netdev.c:1155:77
	ldr	r1, [sp, #20]
	.loc	1 1155 90 is_stmt 0             @ rt-thread/components/net/netdev/src/netdev.c:1155:90
	ldrb.w	r2, [sp, #19]
	.loc	1 1155 99                       @ rt-thread/components/net/netdev/src/netdev.c:1155:99
	ldr	r3, [sp, #12]
	.loc	1 1155 9                        @ rt-thread/components/net/netdev/src/netdev.c:1155:9
	movw	r0, :lower16:.L.str.64
	movt	r0, :upper16:.L.str.64
	bl	rt_kprintf
	.loc	1 1156 5 is_stmt 1              @ rt-thread/components/net/netdev/src/netdev.c:1156:5
	b	.LBB36_4
.Ltmp582:
.LBB36_4:
	.loc	1 1157 1                        @ rt-thread/components/net/netdev/src/netdev.c:1157:1
	add	sp, #24
	pop	{r7, pc}
.Ltmp583:
.Lfunc_end36:
	.size	netdev_set_dns, .Lfunc_end36-netdev_set_dns
	.cfi_endproc
	.cantunwind
	.fnend
                                        @ -- End function
	.section	.text.netdev_netstat,"ax",%progbits
	.hidden	netdev_netstat                  @ -- Begin function netdev_netstat
	.globl	netdev_netstat
	.p2align	3
	.type	netdev_netstat,%function
	.code	16                              @ @netdev_netstat
	.thumb_func
netdev_netstat:
.Lfunc_begin37:
	.loc	1 1217 0                        @ rt-thread/components/net/netdev/src/netdev.c:1217:0
	.fnstart
	.cfi_startproc
@ %bb.0:
	.save	{r7, lr}
	push	{r7, lr}
	.cfi_def_cfa_offset 8
	.cfi_offset lr, -4
	.cfi_offset r7, -8
	.pad	#8
	sub	sp, #8
	.cfi_def_cfa_offset 16
	str	r0, [sp, #4]
	str	r1, [sp]
.Ltmp584:
	.loc	1 1218 9 prologue_end           @ rt-thread/components/net/netdev/src/netdev.c:1218:9
	ldr	r0, [sp, #4]
.Ltmp585:
	.loc	1 1218 9 is_stmt 0              @ rt-thread/components/net/netdev/src/netdev.c:1218:9
	cmp	r0, #1
	beq	.LBB37_2
	b	.LBB37_1
.LBB37_1:
.Ltmp586:
	.loc	1 1220 9 is_stmt 1              @ rt-thread/components/net/netdev/src/netdev.c:1220:9
	movw	r0, :lower16:.L.str.36
	movt	r0, :upper16:.L.str.36
	bl	rt_kprintf
	.loc	1 1221 5                        @ rt-thread/components/net/netdev/src/netdev.c:1221:5
	b	.LBB37_3
.Ltmp587:
.LBB37_2:
	.loc	1 1224 9                        @ rt-thread/components/net/netdev/src/netdev.c:1224:9
	bl	netdev_cmd_netstat
	b	.LBB37_3
.Ltmp588:
.LBB37_3:
	.loc	1 0 9 is_stmt 0                 @ rt-thread/components/net/netdev/src/netdev.c:0:9
	movs	r0, #0
	.loc	1 1227 5 is_stmt 1              @ rt-thread/components/net/netdev/src/netdev.c:1227:5
	add	sp, #8
	pop	{r7, pc}
.Ltmp589:
.Lfunc_end37:
	.size	netdev_netstat, .Lfunc_end37-netdev_netstat
	.cfi_endproc
	.cantunwind
	.fnend
                                        @ -- End function
	.section	.text.netdev_cmd_netstat,"ax",%progbits
	.p2align	3                               @ -- Begin function netdev_cmd_netstat
	.type	netdev_cmd_netstat,%function
	.code	16                              @ @netdev_cmd_netstat
	.thumb_func
netdev_cmd_netstat:
.Lfunc_begin38:
	.loc	1 1185 0                        @ rt-thread/components/net/netdev/src/netdev.c:1185:0
	.fnstart
	.cfi_startproc
@ %bb.0:
	.save	{r7, lr}
	push	{r7, lr}
	.cfi_def_cfa_offset 8
	.cfi_offset lr, -4
	.cfi_offset r7, -8
	.pad	#16
	sub	sp, #16
	.cfi_def_cfa_offset 24
	movs	r0, #0
.Ltmp590:
	.loc	1 1186 17 prologue_end          @ rt-thread/components/net/netdev/src/netdev.c:1186:17
	str	r0, [sp, #12]
	.loc	1 1187 20                       @ rt-thread/components/net/netdev/src/netdev.c:1187:20
	str	r0, [sp, #8]
	.loc	1 1188 38                       @ rt-thread/components/net/netdev/src/netdev.c:1188:38
	movw	r0, :lower16:netdev_list
	movt	r0, :upper16:netdev_list
	ldr	r0, [r0]
	.loc	1 1188 20 is_stmt 0             @ rt-thread/components/net/netdev/src/netdev.c:1188:20
	str	r0, [sp, #4]
.Ltmp591:
	.loc	1 1190 9 is_stmt 1              @ rt-thread/components/net/netdev/src/netdev.c:1190:9
	ldr	r0, [sp, #4]
.Ltmp592:
	.loc	1 1190 9 is_stmt 0              @ rt-thread/components/net/netdev/src/netdev.c:1190:9
	cbnz	r0, .LBB38_2
	b	.LBB38_1
.LBB38_1:
.Ltmp593:
	.loc	1 1192 9 is_stmt 1              @ rt-thread/components/net/netdev/src/netdev.c:1192:9
	movw	r0, :lower16:.L.str.65
	movt	r0, :upper16:.L.str.65
	bl	rt_kprintf
	.loc	1 1193 9                        @ rt-thread/components/net/netdev/src/netdev.c:1193:9
	b	.LBB38_13
.Ltmp594:
.LBB38_2:
	.loc	1 1196 19                       @ rt-thread/components/net/netdev/src/netdev.c:1196:19
	ldr	r0, [sp, #4]
	.loc	1 1196 15 is_stmt 0             @ rt-thread/components/net/netdev/src/netdev.c:1196:15
	str	r0, [sp, #12]
	.loc	1 1196 10                       @ rt-thread/components/net/netdev/src/netdev.c:1196:10
	b	.LBB38_3
.LBB38_3:                               @ =>This Inner Loop Header: Depth=1
.Ltmp595:
	.loc	1 1196 43                       @ rt-thread/components/net/netdev/src/netdev.c:1196:43
	ldr	r0, [sp, #12]
.Ltmp596:
	.loc	1 1196 5                        @ rt-thread/components/net/netdev/src/netdev.c:1196:5
	cbz	r0, .LBB38_10
	b	.LBB38_4
.LBB38_4:                               @   in Loop: Header=BB38_3 Depth=1
.Ltmp597:
	.loc	1 1198 18 is_stmt 1             @ rt-thread/components/net/netdev/src/netdev.c:1198:18
	ldr	r0, [sp, #12]
	.loc	1 1198 16 is_stmt 0             @ rt-thread/components/net/netdev/src/netdev.c:1198:16
	str	r0, [sp, #8]
.Ltmp598:
	.loc	1 1200 13 is_stmt 1             @ rt-thread/components/net/netdev/src/netdev.c:1200:13
	ldr	r0, [sp, #8]
	.loc	1 1200 20 is_stmt 0             @ rt-thread/components/net/netdev/src/netdev.c:1200:20
	cbz	r0, .LBB38_8
	b	.LBB38_5
.LBB38_5:                               @   in Loop: Header=BB38_3 Depth=1
	.loc	1 1200 23                       @ rt-thread/components/net/netdev/src/netdev.c:1200:23
	ldr	r0, [sp, #8]
	.loc	1 1200 31                       @ rt-thread/components/net/netdev/src/netdev.c:1200:31
	ldr	r0, [r0, #48]
	.loc	1 1200 35                       @ rt-thread/components/net/netdev/src/netdev.c:1200:35
	cbz	r0, .LBB38_8
	b	.LBB38_6
.LBB38_6:                               @   in Loop: Header=BB38_3 Depth=1
	.loc	1 1200 38                       @ rt-thread/components/net/netdev/src/netdev.c:1200:38
	ldr	r0, [sp, #8]
	.loc	1 1200 46                       @ rt-thread/components/net/netdev/src/netdev.c:1200:46
	ldr	r0, [r0, #48]
	.loc	1 1200 51                       @ rt-thread/components/net/netdev/src/netdev.c:1200:51
	ldr	r0, [r0, #24]
.Ltmp599:
	.loc	1 1200 13                       @ rt-thread/components/net/netdev/src/netdev.c:1200:13
	cbz	r0, .LBB38_8
	b	.LBB38_7
.LBB38_7:
.Ltmp600:
	.loc	1 1202 13 is_stmt 1             @ rt-thread/components/net/netdev/src/netdev.c:1202:13
	b	.LBB38_10
.Ltmp601:
.LBB38_8:                               @   in Loop: Header=BB38_3 Depth=1
	.loc	1 1204 5                        @ rt-thread/components/net/netdev/src/netdev.c:1204:5
	b	.LBB38_9
.Ltmp602:
.LBB38_9:                               @   in Loop: Header=BB38_3 Depth=1
	.loc	1 1196 70                       @ rt-thread/components/net/netdev/src/netdev.c:1196:70
	ldr	r0, [sp, #12]
	.loc	1 1196 56 is_stmt 0             @ rt-thread/components/net/netdev/src/netdev.c:1196:56
	bl	rt_slist_next
	.loc	1 1196 54                       @ rt-thread/components/net/netdev/src/netdev.c:1196:54
	str	r0, [sp, #12]
	.loc	1 1196 5                        @ rt-thread/components/net/netdev/src/netdev.c:1196:5
	b	.LBB38_3
.Ltmp603:
.LBB38_10:
	.loc	1 1206 9 is_stmt 1              @ rt-thread/components/net/netdev/src/netdev.c:1206:9
	ldr	r0, [sp, #8]
	.loc	1 1206 17 is_stmt 0             @ rt-thread/components/net/netdev/src/netdev.c:1206:17
	ldr	r0, [r0, #48]
	.loc	1 1206 22                       @ rt-thread/components/net/netdev/src/netdev.c:1206:22
	ldr	r0, [r0, #24]
.Ltmp604:
	.loc	1 1206 9                        @ rt-thread/components/net/netdev/src/netdev.c:1206:9
	cbz	r0, .LBB38_12
	b	.LBB38_11
.LBB38_11:
.Ltmp605:
	.loc	1 1208 9 is_stmt 1              @ rt-thread/components/net/netdev/src/netdev.c:1208:9
	ldr	r0, [sp, #8]
	.loc	1 1208 17 is_stmt 0             @ rt-thread/components/net/netdev/src/netdev.c:1208:17
	ldr	r1, [r0, #48]
	.loc	1 1208 22                       @ rt-thread/components/net/netdev/src/netdev.c:1208:22
	ldr	r1, [r1, #24]
	.loc	1 1208 9                        @ rt-thread/components/net/netdev/src/netdev.c:1208:9
	blx	r1
	.loc	1 1209 5 is_stmt 1              @ rt-thread/components/net/netdev/src/netdev.c:1209:5
	b	.LBB38_13
.Ltmp606:
.LBB38_12:
	.loc	1 1212 9                        @ rt-thread/components/net/netdev/src/netdev.c:1212:9
	movw	r0, :lower16:.L.str.66
	movt	r0, :upper16:.L.str.66
	bl	rt_kprintf
	b	.LBB38_13
.Ltmp607:
.LBB38_13:
	.loc	1 1214 1                        @ rt-thread/components/net/netdev/src/netdev.c:1214:1
	add	sp, #16
	pop	{r7, pc}
.Ltmp608:
.Lfunc_end38:
	.size	netdev_cmd_netstat, .Lfunc_end38-netdev_cmd_netstat
	.cfi_endproc
	.cantunwind
	.fnend
                                        @ -- End function
	.type	.L.str,%object                  @ @.str
	.section	.rodata.str1.1,"aMS",%progbits,1
.L.str:
	.asciz	"netdev"
	.size	.L.str, 7

	.type	.L__FUNCTION__.netdev_register,%object @ @__FUNCTION__.netdev_register
.L__FUNCTION__.netdev_register:
	.asciz	"netdev_register"
	.size	.L__FUNCTION__.netdev_register, 16

	.type	.L.str.1,%object                @ @.str.1
.L.str.1:
	.asciz	"name"
	.size	.L.str.1, 5

	.hidden	netdev_list                     @ @netdev_list
	.type	netdev_list,%object
	.section	.bss.netdev_list,"aw",%nobits
	.globl	netdev_list
	.p2align	2
netdev_list:
	.long	0
	.size	netdev_list, 4

	.hidden	netdev_default                  @ @netdev_default
	.type	netdev_default,%object
	.section	.bss.netdev_default,"aw",%nobits
	.globl	netdev_default
	.p2align	2
netdev_default:
	.long	0
	.size	netdev_default, 4

	.type	.L__FUNCTION__.netdev_unregister,%object @ @__FUNCTION__.netdev_unregister
	.section	.rodata.str1.1,"aMS",%progbits,1
.L__FUNCTION__.netdev_unregister:
	.asciz	"netdev_unregister"
	.size	.L__FUNCTION__.netdev_unregister, 18

	.type	.L__FUNCTION__.netdev_family_get,%object @ @__FUNCTION__.netdev_family_get
.L__FUNCTION__.netdev_family_get:
	.asciz	"netdev_family_get"
	.size	.L__FUNCTION__.netdev_family_get, 18

	.type	.L__FUNCTION__.netdev_set_up,%object @ @__FUNCTION__.netdev_set_up
.L__FUNCTION__.netdev_set_up:
	.asciz	"netdev_set_up"
	.size	.L__FUNCTION__.netdev_set_up, 14

	.type	.L.str.2,%object                @ @.str.2
.L.str.2:
	.asciz	"[E/netdev] "
	.size	.L.str.2, 12

	.type	.L.str.3,%object                @ @.str.3
.L.str.3:
	.asciz	"The network interface device(%s) not support to set status."
	.size	.L.str.3, 60

	.type	.L.str.4,%object                @ @.str.4
.L.str.4:
	.asciz	"\n"
	.size	.L.str.4, 2

	.type	.L__FUNCTION__.netdev_set_down,%object @ @__FUNCTION__.netdev_set_down
.L__FUNCTION__.netdev_set_down:
	.asciz	"netdev_set_down"
	.size	.L__FUNCTION__.netdev_set_down, 16

	.type	.L__FUNCTION__.netdev_dhcp_enabled,%object @ @__FUNCTION__.netdev_dhcp_enabled
.L__FUNCTION__.netdev_dhcp_enabled:
	.asciz	"netdev_dhcp_enabled"
	.size	.L__FUNCTION__.netdev_dhcp_enabled, 20

	.type	.L.str.5,%object                @ @.str.5
.L.str.5:
	.asciz	"The network interface device(%s) not support to set DHCP status."
	.size	.L.str.5, 65

	.type	.L__FUNCTION__.netdev_set_ipaddr,%object @ @__FUNCTION__.netdev_set_ipaddr
.L__FUNCTION__.netdev_set_ipaddr:
	.asciz	"netdev_set_ipaddr"
	.size	.L__FUNCTION__.netdev_set_ipaddr, 18

	.type	.L.str.6,%object                @ @.str.6
.L.str.6:
	.asciz	"ip_addr"
	.size	.L.str.6, 8

	.type	.L.str.7,%object                @ @.str.7
.L.str.7:
	.asciz	"The network interface device(%s) not support to set IP address."
	.size	.L.str.7, 64

	.type	.L.str.8,%object                @ @.str.8
.L.str.8:
	.asciz	"The network interface device(%s) DHCP capability is enable, not support set IP address."
	.size	.L.str.8, 88

	.type	.L__FUNCTION__.netdev_set_netmask,%object @ @__FUNCTION__.netdev_set_netmask
.L__FUNCTION__.netdev_set_netmask:
	.asciz	"netdev_set_netmask"
	.size	.L__FUNCTION__.netdev_set_netmask, 19

	.type	.L.str.9,%object                @ @.str.9
.L.str.9:
	.asciz	"netmask"
	.size	.L.str.9, 8

	.type	.L.str.10,%object               @ @.str.10
.L.str.10:
	.asciz	"The network interface device(%s) not support to set netmask address."
	.size	.L.str.10, 69

	.type	.L.str.11,%object               @ @.str.11
.L.str.11:
	.asciz	"The network interface device(%s) DHCP capability is enable, not support set netmask address."
	.size	.L.str.11, 93

	.type	.L__FUNCTION__.netdev_set_gw,%object @ @__FUNCTION__.netdev_set_gw
.L__FUNCTION__.netdev_set_gw:
	.asciz	"netdev_set_gw"
	.size	.L__FUNCTION__.netdev_set_gw, 14

	.type	.L.str.12,%object               @ @.str.12
.L.str.12:
	.asciz	"gw"
	.size	.L.str.12, 3

	.type	.L.str.13,%object               @ @.str.13
.L.str.13:
	.asciz	"The network interface device(%s) not support to set gateway address."
	.size	.L.str.13, 69

	.type	.L.str.14,%object               @ @.str.14
.L.str.14:
	.asciz	"The network interface device(%s) DHCP capability is enable, not support set gateway address."
	.size	.L.str.14, 93

	.type	.L__FUNCTION__.netdev_set_dns_server,%object @ @__FUNCTION__.netdev_set_dns_server
.L__FUNCTION__.netdev_set_dns_server:
	.asciz	"netdev_set_dns_server"
	.size	.L__FUNCTION__.netdev_set_dns_server, 22

	.type	.L.str.15,%object               @ @.str.15
.L.str.15:
	.asciz	"dns_server"
	.size	.L.str.15, 11

	.type	.L.str.16,%object               @ @.str.16
.L.str.16:
	.asciz	"The number of DNS servers(%d) set exceeds the maximum number(%d)."
	.size	.L.str.16, 66

	.type	.L.str.17,%object               @ @.str.17
.L.str.17:
	.asciz	"The network interface device(%s) not support to set DNS server address."
	.size	.L.str.17, 72

	.type	.L__FUNCTION__.netdev_set_status_callback,%object @ @__FUNCTION__.netdev_set_status_callback
.L__FUNCTION__.netdev_set_status_callback:
	.asciz	"netdev_set_status_callback"
	.size	.L__FUNCTION__.netdev_set_status_callback, 27

	.type	.L.str.18,%object               @ @.str.18
.L.str.18:
	.asciz	"status_callback"
	.size	.L.str.18, 16

	.type	.L__FUNCTION__.netdev_set_addr_callback,%object @ @__FUNCTION__.netdev_set_addr_callback
.L__FUNCTION__.netdev_set_addr_callback:
	.asciz	"netdev_set_addr_callback"
	.size	.L__FUNCTION__.netdev_set_addr_callback, 25

	.type	.L.str.19,%object               @ @.str.19
.L.str.19:
	.asciz	"addr_callback"
	.size	.L.str.19, 14

	.type	.L__FUNCTION__.netdev_low_level_set_ipaddr,%object @ @__FUNCTION__.netdev_low_level_set_ipaddr
.L__FUNCTION__.netdev_low_level_set_ipaddr:
	.asciz	"netdev_low_level_set_ipaddr"
	.size	.L__FUNCTION__.netdev_low_level_set_ipaddr, 28

	.type	.L__FUNCTION__.netdev_low_level_set_netmask,%object @ @__FUNCTION__.netdev_low_level_set_netmask
.L__FUNCTION__.netdev_low_level_set_netmask:
	.asciz	"netdev_low_level_set_netmask"
	.size	.L__FUNCTION__.netdev_low_level_set_netmask, 29

	.type	.L__FUNCTION__.netdev_low_level_set_gw,%object @ @__FUNCTION__.netdev_low_level_set_gw
.L__FUNCTION__.netdev_low_level_set_gw:
	.asciz	"netdev_low_level_set_gw"
	.size	.L__FUNCTION__.netdev_low_level_set_gw, 24

	.type	.L__FUNCTION__.netdev_low_level_set_dns_server,%object @ @__FUNCTION__.netdev_low_level_set_dns_server
.L__FUNCTION__.netdev_low_level_set_dns_server:
	.asciz	"netdev_low_level_set_dns_server"
	.size	.L__FUNCTION__.netdev_low_level_set_dns_server, 32

	.type	.L.str.20,%object               @ @.str.20
.L.str.20:
	.asciz	"config : %s\n"
	.size	.L.str.20, 13

	.type	.L.str.21,%object               @ @.str.21
.L.str.21:
	.asciz	"IP addr: %s\n"
	.size	.L.str.21, 13

	.type	.L.str.22,%object               @ @.str.22
.L.str.22:
	.asciz	"Gateway: %s\n"
	.size	.L.str.22, 13

	.type	.L.str.23,%object               @ @.str.23
.L.str.23:
	.asciz	"netmask: %s\n"
	.size	.L.str.23, 13

	.type	.L.str.24,%object               @ @.str.24
.L.str.24:
	.asciz	"bad parameter! e.g: ifconfig e0 192.168.1.30 192.168.1.1 255.255.255.0\n"
	.size	.L.str.24, 72

	.hidden	__fsym___cmd_ifconfig_name      @ @__fsym___cmd_ifconfig_name
	.type	__fsym___cmd_ifconfig_name,%object
	.section	.rodata.name,"a",%progbits
	.globl	__fsym___cmd_ifconfig_name
__fsym___cmd_ifconfig_name:
	.asciz	"__cmd_ifconfig"
	.size	__fsym___cmd_ifconfig_name, 15

	.hidden	__fsym___cmd_ifconfig_desc      @ @__fsym___cmd_ifconfig_desc
	.type	__fsym___cmd_ifconfig_desc,%object
	.globl	__fsym___cmd_ifconfig_desc
__fsym___cmd_ifconfig_desc:
	.asciz	"list the information of all network interfaces"
	.size	__fsym___cmd_ifconfig_desc, 47

	.hidden	__fsym___cmd_ifconfig           @ @__fsym___cmd_ifconfig
	.type	__fsym___cmd_ifconfig,%object
	.section	FSymTab,"a",%progbits
	.globl	__fsym___cmd_ifconfig
	.p2align	2
__fsym___cmd_ifconfig:
__tagsym$$used.0:
	.long	__fsym___cmd_ifconfig_name
	.long	__fsym___cmd_ifconfig_desc
	.long	netdev_ifconfig
	.size	__fsym___cmd_ifconfig, 12

	.type	.L.str.25,%object               @ @.str.25
	.section	.rodata.str1.1,"aMS",%progbits,1
.L.str.25:
	.asciz	"ping: not found available network interface device.\n"
	.size	.L.str.25, 53

	.type	.L.str.26,%object               @ @.str.26
.L.str.26:
	.asciz	"ping: network interface device(%s) not support ping feature.\n"
	.size	.L.str.26, 62

	.type	.L.str.27,%object               @ @.str.27
.L.str.27:
	.asciz	"ping: network interface device(%s) status error.\n"
	.size	.L.str.27, 50

	.type	.L.str.28,%object               @ @.str.28
.L.str.28:
	.asciz	"ping: from %s icmp_seq=%d timeout\n"
	.size	.L.str.28, 35

	.type	.L.str.29,%object               @ @.str.29
.L.str.29:
	.asciz	"ping: unknown %s %s\n"
	.size	.L.str.29, 21

	.type	.L.str.30,%object               @ @.str.30
.L.str.30:
	.asciz	"host"
	.size	.L.str.30, 5

	.type	.L.str.31,%object               @ @.str.31
.L.str.31:
	.asciz	"address"
	.size	.L.str.31, 8

	.type	.L.str.32,%object               @ @.str.32
.L.str.32:
	.asciz	"%d bytes from %s icmp_seq=%d time=%d ms\n"
	.size	.L.str.32, 41

	.type	.L.str.33,%object               @ @.str.33
.L.str.33:
	.asciz	"%d bytes from %s icmp_seq=%d ttl=%d time=%d ms\n"
	.size	.L.str.33, 48

	.type	.L.str.34,%object               @ @.str.34
.L.str.34:
	.asciz	"Please input: ping <host address>\n"
	.size	.L.str.34, 35

	.hidden	__fsym___cmd_ping_name          @ @__fsym___cmd_ping_name
	.type	__fsym___cmd_ping_name,%object
	.section	.rodata.name,"a",%progbits
	.globl	__fsym___cmd_ping_name
__fsym___cmd_ping_name:
	.asciz	"__cmd_ping"
	.size	__fsym___cmd_ping_name, 11

	.hidden	__fsym___cmd_ping_desc          @ @__fsym___cmd_ping_desc
	.type	__fsym___cmd_ping_desc,%object
	.globl	__fsym___cmd_ping_desc
__fsym___cmd_ping_desc:
	.asciz	"ping network host"
	.size	__fsym___cmd_ping_desc, 18

	.hidden	__fsym___cmd_ping               @ @__fsym___cmd_ping
	.type	__fsym___cmd_ping,%object
	.section	FSymTab,"a",%progbits
	.globl	__fsym___cmd_ping
	.p2align	2
__fsym___cmd_ping:
__tagsym$$used.1:
	.long	__fsym___cmd_ping_name
	.long	__fsym___cmd_ping_desc
	.long	netdev_ping
	.size	__fsym___cmd_ping, 12

	.type	.L.str.35,%object               @ @.str.35
	.section	.rodata.str1.1,"aMS",%progbits,1
.L.str.35:
	.asciz	"bad parameter! input: dns <netdev_name> [dns_num] <dns_server>\n"
	.size	.L.str.35, 64

	.hidden	__fsym___cmd_dns_name           @ @__fsym___cmd_dns_name
	.type	__fsym___cmd_dns_name,%object
	.section	.rodata.name,"a",%progbits
	.globl	__fsym___cmd_dns_name
__fsym___cmd_dns_name:
	.asciz	"__cmd_dns"
	.size	__fsym___cmd_dns_name, 10

	.hidden	__fsym___cmd_dns_desc           @ @__fsym___cmd_dns_desc
	.type	__fsym___cmd_dns_desc,%object
	.globl	__fsym___cmd_dns_desc
__fsym___cmd_dns_desc:
	.asciz	"list and set the information of dns"
	.size	__fsym___cmd_dns_desc, 36

	.hidden	__fsym___cmd_dns                @ @__fsym___cmd_dns
	.type	__fsym___cmd_dns,%object
	.section	FSymTab,"a",%progbits
	.globl	__fsym___cmd_dns
	.p2align	2
__fsym___cmd_dns:
__tagsym$$used.2:
	.long	__fsym___cmd_dns_name
	.long	__fsym___cmd_dns_desc
	.long	netdev_dns
	.size	__fsym___cmd_dns, 12

	.type	.L.str.36,%object               @ @.str.36
	.section	.rodata.str1.1,"aMS",%progbits,1
.L.str.36:
	.asciz	"Please input: netstat \n"
	.size	.L.str.36, 24

	.hidden	__fsym___cmd_netstat_name       @ @__fsym___cmd_netstat_name
	.type	__fsym___cmd_netstat_name,%object
	.section	.rodata.name,"a",%progbits
	.globl	__fsym___cmd_netstat_name
__fsym___cmd_netstat_name:
	.asciz	"__cmd_netstat"
	.size	__fsym___cmd_netstat_name, 14

	.hidden	__fsym___cmd_netstat_desc       @ @__fsym___cmd_netstat_desc
	.type	__fsym___cmd_netstat_desc,%object
	.globl	__fsym___cmd_netstat_desc
__fsym___cmd_netstat_desc:
	.asciz	"list the information of TCP / IP"
	.size	__fsym___cmd_netstat_desc, 33

	.hidden	__fsym___cmd_netstat            @ @__fsym___cmd_netstat
	.type	__fsym___cmd_netstat,%object
	.section	FSymTab,"a",%progbits
	.globl	__fsym___cmd_netstat
	.p2align	2
__fsym___cmd_netstat:
__tagsym$$used.3:
	.long	__fsym___cmd_netstat_name
	.long	__fsym___cmd_netstat_desc
	.long	netdev_netstat
	.size	__fsym___cmd_netstat, 12

	.type	.L.str.37,%object               @ @.str.37
	.section	.rodata.str1.1,"aMS",%progbits,1
.L.str.37:
	.asciz	"ifconfig: network interface device list error.\n"
	.size	.L.str.37, 48

	.type	.L.str.38,%object               @ @.str.38
.L.str.38:
	.asciz	"network interface device: %.*s%s\n"
	.size	.L.str.38, 34

	.type	.L.str.39,%object               @ @.str.39
.L.str.39:
	.asciz	" (Default)"
	.size	.L.str.39, 11

	.type	.L.str.40,%object               @ @.str.40
.L.str.40:
	.zero	1
	.size	.L.str.40, 1

	.type	.L.str.41,%object               @ @.str.41
.L.str.41:
	.asciz	"MTU: %d\n"
	.size	.L.str.41, 9

	.type	.L.str.42,%object               @ @.str.42
.L.str.42:
	.asciz	"MAC: "
	.size	.L.str.42, 6

	.type	.L.str.43,%object               @ @.str.43
.L.str.43:
	.asciz	"%02x "
	.size	.L.str.43, 6

	.type	.L.str.44,%object               @ @.str.44
.L.str.44:
	.asciz	"IMEI: "
	.size	.L.str.44, 7

	.type	.L.str.45,%object               @ @.str.45
.L.str.45:
	.asciz	"0"
	.size	.L.str.45, 2

	.type	.L.str.46,%object               @ @.str.46
.L.str.46:
	.asciz	"%d"
	.size	.L.str.46, 3

	.type	.L.str.47,%object               @ @.str.47
.L.str.47:
	.asciz	"\nFLAGS:"
	.size	.L.str.47, 8

	.type	.L.str.48,%object               @ @.str.48
.L.str.48:
	.asciz	" UP"
	.size	.L.str.48, 4

	.type	.L.str.49,%object               @ @.str.49
.L.str.49:
	.asciz	" DOWN"
	.size	.L.str.49, 6

	.type	.L.str.50,%object               @ @.str.50
.L.str.50:
	.asciz	" LINK_UP"
	.size	.L.str.50, 9

	.type	.L.str.51,%object               @ @.str.51
.L.str.51:
	.asciz	" LINK_DOWN"
	.size	.L.str.51, 11

	.type	.L.str.52,%object               @ @.str.52
.L.str.52:
	.asciz	" INTERNET_UP"
	.size	.L.str.52, 13

	.type	.L.str.53,%object               @ @.str.53
.L.str.53:
	.asciz	" INTERNET_DOWN"
	.size	.L.str.53, 15

	.type	.L.str.54,%object               @ @.str.54
.L.str.54:
	.asciz	" DHCP_ENABLE"
	.size	.L.str.54, 13

	.type	.L.str.55,%object               @ @.str.55
.L.str.55:
	.asciz	" DHCP_DISABLE"
	.size	.L.str.55, 14

	.type	.L.str.56,%object               @ @.str.56
.L.str.56:
	.asciz	" ETHARP"
	.size	.L.str.56, 8

	.type	.L.str.57,%object               @ @.str.57
.L.str.57:
	.asciz	" BROADCAST"
	.size	.L.str.57, 11

	.type	.L.str.58,%object               @ @.str.58
.L.str.58:
	.asciz	" IGMP"
	.size	.L.str.58, 6

	.type	.L.str.59,%object               @ @.str.59
.L.str.59:
	.asciz	"ip address: %s\n"
	.size	.L.str.59, 16

	.type	.L.str.60,%object               @ @.str.60
.L.str.60:
	.asciz	"gw address: %s\n"
	.size	.L.str.60, 16

	.type	.L.str.61,%object               @ @.str.61
.L.str.61:
	.asciz	"net mask  : %s\n"
	.size	.L.str.61, 16

	.type	.L.str.62,%object               @ @.str.62
.L.str.62:
	.asciz	"dns server #%d: %s\n"
	.size	.L.str.62, 20

	.type	.L.str.63,%object               @ @.str.63
.L.str.63:
	.asciz	"bad network interface device name(%s).\n"
	.size	.L.str.63, 40

	.type	.L.str.64,%object               @ @.str.64
.L.str.64:
	.asciz	"set network interface device(%s) dns server #%d: %s\n"
	.size	.L.str.64, 53

	.type	.L.str.65,%object               @ @.str.65
.L.str.65:
	.asciz	"netstat: network interface device list error.\n"
	.size	.L.str.65, 47

	.type	.L.str.66,%object               @ @.str.66
.L.str.66:
	.asciz	"netstat: this command is not supported!\n"
	.size	.L.str.66, 41

	.globl	__fsym___cmd_ifconfig
	.globl	__fsym___cmd_ping
	.globl	__fsym___cmd_dns
	.globl	__fsym___cmd_netstat
	.section	".note.GNU-stack","",%progbits
	.eabi_attribute	30, 6	@ Tag_ABI_optimization_goals
	.ARM_attribute	16, 1	@ Tag_AV_eba