	.text
	.syntax unified
	.eabi_attribute	67, "2.09"	@ Tag_conformance
	.cpu	cortex-m7
	.eabi_attribute	6, 13	@ Tag_CPU_arch
	.eabi_attribute	7, 77	@ Tag_CPU_arch_profile
	.eabi_attribute	8, 0	@ Tag_ARM_ISA_use
	.eabi_attribute	9, 2	@ Tag_THUMB_ISA_use
	.fpu	fpv5-d16
	.eabi_attribute	36, 1	@ Tag_FP_HP_extension
	.eabi_attribute	34, 1	@ Tag_CPU_unaligned_access
	.eabi_attribute	17, 1	@ Tag_ABI_PCS_GOT_use
	.eabi_attribute	20, 2	@ Tag_ABI_FP_denormal
	.eabi_attribute	21, 0	@ Tag_ABI_FP_exceptions
	.eabi_attribute	23, 1	@ Tag_ABI_FP_number_model
	.eabi_attribute	24, 1	@ Tag_ABI_align_needed
	.eabi_attribute	25, 1	@ Tag_ABI_align_preserved
	.eabi_attribute	28, 1	@ Tag_ABI_VFP_args
	.eabi_attribute	38, 1	@ Tag_ABI_FP_16bit_format
	.eabi_attribute	18, 2	@ Tag_ABI_PCS_wchar_t
	.eabi_attribute	26, 1	@ Tag_ABI_enum_size
	.eabi_attribute	14, 0	@ Tag_ABI_PCS_R9_use
	.file	"netif.c"
	.file	1 "E:\\Smart-access-control\\Hardware\\CODE" "./rt-thread/components/net/lwip-2.0.2/src/include\\lwip/netif.h"
	.file	2 "D:\\Keil_v5\\ARM\\ARMCLANG\\Bin\\..\\include" "stdint.h"
	.file	3 "E:\\Smart-access-control\\Hardware\\CODE" "./rt-thread/components/net/lwip-2.0.2/src/include\\lwip/arch.h"
	.file	4 "E:\\Smart-access-control\\Hardware\\CODE" "./rt-thread/components/net/lwip-2.0.2/src/include\\lwip/ip4_addr.h"
	.file	5 "E:\\Smart-access-control\\Hardware\\CODE" "./rt-thread/components/net/lwip-2.0.2/src/include\\lwip/ip_addr.h"
	.file	6 "E:\\Smart-access-control\\Hardware\\CODE" "./rt-thread/components/net/lwip-2.0.2/src/include\\lwip/err.h"
	.file	7 "E:\\Smart-access-control\\Hardware\\CODE" "./rt-thread/components/net/lwip-2.0.2/src/include\\lwip/pbuf.h"
	.file	8 "E:\\Smart-access-control\\Hardware\\CODE" "rt-thread/components/net/lwip-2.0.2/src/core/netif.c"
	.section	.text.netif_init,"ax",%progbits
	.hidden	netif_init                      @ -- Begin function netif_init
	.globl	netif_init
	.p2align	3
	.type	netif_init,%function
	.code	16                              @ @netif_init
	.thumb_func
netif_init:
.Lfunc_begin0:
	.loc	8 171 0                         @ rt-thread/components/net/lwip-2.0.2/src/core/netif.c:171:0
	.fnstart
	.cfi_sections .debug_frame
	.cfi_startproc
@ %bb.0:
	.loc	8 198 1 prologue_end            @ rt-thread/components/net/lwip-2.0.2/src/core/netif.c:198:1
	bx	lr
.Ltmp0:
.Lfunc_end0:
	.size	netif_init, .Lfunc_end0-netif_init
	.cfi_endproc
	.cantunwind
	.fnend
                                        @ -- End function
	.section	.text.netif_input,"ax",%progbits
	.hidden	netif_input                     @ -- Begin function netif_input
	.globl	netif_input
	.p2align	3
	.type	netif_input,%function
	.code	16                              @ @netif_input
	.thumb_func
netif_input:
.Lfunc_begin1:
	.loc	8 211 0                         @ rt-thread/components/net/lwip-2.0.2/src/core/netif.c:211:0
	.fnstart
	.cfi_startproc
@ %bb.0:
	.save	{r7, lr}
	push	{r7, lr}
	.cfi_def_cfa_offset 8
	.cfi_offset lr, -4
	.cfi_offset r7, -8
	.pad	#16
	sub	sp, #16
	.cfi_def_cfa_offset 24
	str	r0, [sp, #8]
	str	r1, [sp, #4]
.Ltmp1:
	.loc	8 213 7 prologue_end            @ rt-thread/components/net/lwip-2.0.2/src/core/netif.c:213:7
	ldr	r0, [sp, #4]
	ldrb.w	r0, [r0, #65]
.Ltmp2:
	.loc	8 213 7 is_stmt 0               @ rt-thread/components/net/lwip-2.0.2/src/core/netif.c:213:7
	tst.w	r0, #24
	beq	.LBB1_2
	b	.LBB1_1
.LBB1_1:
.Ltmp3:
	.loc	8 214 27 is_stmt 1              @ rt-thread/components/net/lwip-2.0.2/src/core/netif.c:214:27
	ldr	r0, [sp, #8]
	.loc	8 214 30 is_stmt 0              @ rt-thread/components/net/lwip-2.0.2/src/core/netif.c:214:30
	ldr	r1, [sp, #4]
	.loc	8 214 12                        @ rt-thread/components/net/lwip-2.0.2/src/core/netif.c:214:12
	bl	ethernet_input
	.loc	8 214 5                         @ rt-thread/components/net/lwip-2.0.2/src/core/netif.c:214:5
	strb.w	r0, [sp, #15]
	b	.LBB1_3
.Ltmp4:
.LBB1_2:
	.loc	8 217 19 is_stmt 1              @ rt-thread/components/net/lwip-2.0.2/src/core/netif.c:217:19
	ldr	r0, [sp, #8]
	.loc	8 217 22 is_stmt 0              @ rt-thread/components/net/lwip-2.0.2/src/core/netif.c:217:22
	ldr	r1, [sp, #4]
	.loc	8 217 10                        @ rt-thread/components/net/lwip-2.0.2/src/core/netif.c:217:10
	bl	ip4_input
	.loc	8 217 3                         @ rt-thread/components/net/lwip-2.0.2/src/core/netif.c:217:3
	strb.w	r0, [sp, #15]
	b	.LBB1_3
.Ltmp5:
.LBB1_3:
	.loc	8 218 1 is_stmt 1               @ rt-thread/components/net/lwip-2.0.2/src/core/netif.c:218:1
	ldrsb.w	r0, [sp, #15]
	add	sp, #16
	pop	{r7, pc}
.Ltmp6:
.Lfunc_end1:
	.size	netif_input, .Lfunc_end1-netif_input
	.cfi_endproc
	.cantunwind
	.fnend
                                        @ -- End function
	.section	.text.netif_add,"ax",%progbits
	.hidden	netif_add                       @ -- Begin function netif_add
	.globl	netif_add
	.p2align	3
	.type	netif_add,%function
	.code	16                              @ @netif_add
	.thumb_func
netif_add:
.Lfunc_begin2:
	.loc	8 253 0                         @ rt-thread/components/net/lwip-2.0.2/src/core/netif.c:253:0
	.fnstart
	.cfi_startproc
@ %bb.0:
	.save	{r7, lr}
	push	{r7, lr}
	.cfi_def_cfa_offset 8
	.cfi_offset lr, -4
	.cfi_offset r7, -8
	.pad	#24
	sub	sp, #24
	.cfi_def_cfa_offset 32
	ldr.w	r12, [sp, #40]
	ldr.w	r12, [sp, #36]
	ldr.w	r12, [sp, #32]
	str	r0, [sp, #16]
	str	r1, [sp, #12]
	str	r2, [sp, #8]
	str	r3, [sp, #4]
.Ltmp7:
	.loc	8 258 3 prologue_end            @ rt-thread/components/net/lwip-2.0.2/src/core/netif.c:258:3
	b	.LBB2_1
.LBB2_1:
.Ltmp8:
	.loc	8 258 3 is_stmt 0               @ rt-thread/components/net/lwip-2.0.2/src/core/netif.c:258:3
	ldr	r0, [sp, #36]
.Ltmp9:
	.loc	8 258 3                         @ rt-thread/components/net/lwip-2.0.2/src/core/netif.c:258:3
	cbnz	r0, .LBB2_5
	b	.LBB2_2
.LBB2_2:
.Ltmp10:
	.loc	8 258 3                         @ rt-thread/components/net/lwip-2.0.2/src/core/netif.c:258:3
	b	.LBB2_3
.LBB2_3:
.Ltmp11:
	.loc	8 258 3                         @ rt-thread/components/net/lwip-2.0.2/src/core/netif.c:258:3
	movw	r0, :lower16:.L.str
	movt	r0, :upper16:.L.str
	bl	rt_kprintf
	movw	r0, :lower16:.L.str.1
	movt	r0, :upper16:.L.str.1
	mov.w	r1, #258
	bl	sys_arch_assert
	b	.LBB2_4
.Ltmp12:
.LBB2_4:
	.loc	8 258 3                         @ rt-thread/components/net/lwip-2.0.2/src/core/netif.c:258:3
	b	.LBB2_5
.Ltmp13:
.LBB2_5:
	.loc	8 258 3                         @ rt-thread/components/net/lwip-2.0.2/src/core/netif.c:258:3
	b	.LBB2_6
.Ltmp14:
.LBB2_6:
	.loc	8 262 3 is_stmt 1               @ rt-thread/components/net/lwip-2.0.2/src/core/netif.c:262:3
	ldr	r1, [sp, #16]
	movs	r0, #0
	str	r0, [sp]                        @ 4-byte Spill
	str	r0, [r1, #4]
	.loc	8 263 3                         @ rt-thread/components/net/lwip-2.0.2/src/core/netif.c:263:3
	ldr	r1, [sp, #16]
	str	r0, [r1, #8]
	.loc	8 264 3                         @ rt-thread/components/net/lwip-2.0.2/src/core/netif.c:264:3
	ldr	r1, [sp, #16]
	str	r0, [r1, #12]
	.loc	8 274 3                         @ rt-thread/components/net/lwip-2.0.2/src/core/netif.c:274:3
	ldr	r1, [sp, #16]
	.loc	8 274 16 is_stmt 0              @ rt-thread/components/net/lwip-2.0.2/src/core/netif.c:274:16
	strb.w	r0, [r1, #65]
	.loc	8 276 10 is_stmt 1              @ rt-thread/components/net/lwip-2.0.2/src/core/netif.c:276:10
	ldr	r1, [sp, #16]
	.loc	8 276 3 is_stmt 0               @ rt-thread/components/net/lwip-2.0.2/src/core/netif.c:276:3
	str	r0, [r1, #44]
	str	r0, [r1, #40]
	.loc	8 283 3 is_stmt 1               @ rt-thread/components/net/lwip-2.0.2/src/core/netif.c:283:3
	ldr	r2, [sp, #16]
	movs	r1, #3
	.loc	8 283 19 is_stmt 0              @ rt-thread/components/net/lwip-2.0.2/src/core/netif.c:283:19
	strb.w	r1, [r2, #48]
	.loc	8 286 3 is_stmt 1               @ rt-thread/components/net/lwip-2.0.2/src/core/netif.c:286:3
	ldr	r1, [sp, #16]
	.loc	8 286 26 is_stmt 0              @ rt-thread/components/net/lwip-2.0.2/src/core/netif.c:286:26
	str	r0, [r1, #28]
	.loc	8 289 3 is_stmt 1               @ rt-thread/components/net/lwip-2.0.2/src/core/netif.c:289:3
	ldr	r1, [sp, #16]
	.loc	8 289 24 is_stmt 0              @ rt-thread/components/net/lwip-2.0.2/src/core/netif.c:289:24
	str	r0, [r1, #32]
	.loc	8 292 3 is_stmt 1               @ rt-thread/components/net/lwip-2.0.2/src/core/netif.c:292:3
	ldr	r1, [sp, #16]
	.loc	8 292 26 is_stmt 0              @ rt-thread/components/net/lwip-2.0.2/src/core/netif.c:292:26
	str	r0, [r1, #72]
	.loc	8 303 18 is_stmt 1              @ rt-thread/components/net/lwip-2.0.2/src/core/netif.c:303:18
	ldr	r0, [sp, #32]
	.loc	8 303 3 is_stmt 0               @ rt-thread/components/net/lwip-2.0.2/src/core/netif.c:303:3
	ldr	r1, [sp, #16]
	.loc	8 303 16                        @ rt-thread/components/net/lwip-2.0.2/src/core/netif.c:303:16
	str	r0, [r1, #36]
	.loc	8 304 25 is_stmt 1              @ rt-thread/components/net/lwip-2.0.2/src/core/netif.c:304:25
	movw	r2, :lower16:netif_num
	movt	r2, :upper16:netif_num
	ldrb	r0, [r2]
	adds	r1, r0, #1
	strb	r1, [r2]
	.loc	8 304 3 is_stmt 0               @ rt-thread/components/net/lwip-2.0.2/src/core/netif.c:304:3
	ldr	r1, [sp, #16]
	.loc	8 304 14                        @ rt-thread/components/net/lwip-2.0.2/src/core/netif.c:304:14
	strb.w	r0, [r1, #68]
	.loc	8 305 18 is_stmt 1              @ rt-thread/components/net/lwip-2.0.2/src/core/netif.c:305:18
	ldr	r0, [sp, #40]
	.loc	8 305 3 is_stmt 0               @ rt-thread/components/net/lwip-2.0.2/src/core/netif.c:305:3
	ldr	r1, [sp, #16]
	.loc	8 305 16                        @ rt-thread/components/net/lwip-2.0.2/src/core/netif.c:305:16
	str	r0, [r1, #16]
	.loc	8 313 18 is_stmt 1              @ rt-thread/components/net/lwip-2.0.2/src/core/netif.c:313:18
	ldr	r0, [sp, #16]
	.loc	8 313 25 is_stmt 0              @ rt-thread/components/net/lwip-2.0.2/src/core/netif.c:313:25
	ldr	r1, [sp, #12]
	.loc	8 313 33                        @ rt-thread/components/net/lwip-2.0.2/src/core/netif.c:313:33
	ldr	r2, [sp, #8]
	.loc	8 313 42                        @ rt-thread/components/net/lwip-2.0.2/src/core/netif.c:313:42
	ldr	r3, [sp, #4]
	.loc	8 313 3                         @ rt-thread/components/net/lwip-2.0.2/src/core/netif.c:313:3
	bl	netif_set_addr
.Ltmp15:
	.loc	8 317 7 is_stmt 1               @ rt-thread/components/net/lwip-2.0.2/src/core/netif.c:317:7
	ldr	r1, [sp, #36]
	.loc	8 317 12 is_stmt 0              @ rt-thread/components/net/lwip-2.0.2/src/core/netif.c:317:12
	ldr	r0, [sp, #16]
	.loc	8 317 7                         @ rt-thread/components/net/lwip-2.0.2/src/core/netif.c:317:7
	blx	r1
.Ltmp16:
	.loc	8 317 7                         @ rt-thread/components/net/lwip-2.0.2/src/core/netif.c:317:7
	cbz	r0, .LBB2_8
	b	.LBB2_7
.LBB2_7:
	.loc	8 0 7                           @ rt-thread/components/net/lwip-2.0.2/src/core/netif.c:0:7
	movs	r0, #0
.Ltmp17:
	.loc	8 318 5 is_stmt 1               @ rt-thread/components/net/lwip-2.0.2/src/core/netif.c:318:5
	str	r0, [sp, #20]
	b	.LBB2_11
.Ltmp18:
.LBB2_8:
	.loc	8 322 17                        @ rt-thread/components/net/lwip-2.0.2/src/core/netif.c:322:17
	movw	r1, :lower16:netif_list
	movt	r1, :upper16:netif_list
	ldr	r0, [r1]
	.loc	8 322 3 is_stmt 0               @ rt-thread/components/net/lwip-2.0.2/src/core/netif.c:322:3
	ldr	r2, [sp, #16]
	.loc	8 322 15                        @ rt-thread/components/net/lwip-2.0.2/src/core/netif.c:322:15
	str	r0, [r2]
	.loc	8 323 16 is_stmt 1              @ rt-thread/components/net/lwip-2.0.2/src/core/netif.c:323:16
	ldr	r0, [sp, #16]
	.loc	8 323 14 is_stmt 0              @ rt-thread/components/net/lwip-2.0.2/src/core/netif.c:323:14
	str	r0, [r1]
.Ltmp19:
	.loc	8 328 7 is_stmt 1               @ rt-thread/components/net/lwip-2.0.2/src/core/netif.c:328:7
	ldr	r0, [sp, #16]
	ldrb.w	r0, [r0, #65]
.Ltmp20:
	.loc	8 328 7 is_stmt 0               @ rt-thread/components/net/lwip-2.0.2/src/core/netif.c:328:7
	lsls	r0, r0, #26
	cmp	r0, #0
	bpl	.LBB2_10
	b	.LBB2_9
.LBB2_9:
.Ltmp21:
	.loc	8 329 16 is_stmt 1              @ rt-thread/components/net/lwip-2.0.2/src/core/netif.c:329:16
	ldr	r0, [sp, #16]
	.loc	8 329 5 is_stmt 0               @ rt-thread/components/net/lwip-2.0.2/src/core/netif.c:329:5
	bl	igmp_start
	.loc	8 330 3 is_stmt 1               @ rt-thread/components/net/lwip-2.0.2/src/core/netif.c:330:3
	b	.LBB2_10
.Ltmp22:
.LBB2_10:
	.loc	8 344 10                        @ rt-thread/components/net/lwip-2.0.2/src/core/netif.c:344:10
	ldr	r0, [sp, #16]
	.loc	8 344 3 is_stmt 0               @ rt-thread/components/net/lwip-2.0.2/src/core/netif.c:344:3
	str	r0, [sp, #20]
	b	.LBB2_11
.LBB2_11:
	.loc	8 345 1 is_stmt 1               @ rt-thread/components/net/lwip-2.0.2/src/core/netif.c:345:1
	ldr	r0, [sp, #20]
	add	sp, #24
	pop	{r7, pc}
.Ltmp23:
.Lfunc_end2:
	.size	netif_add, .Lfunc_end2-netif_add
	.cfi_endproc
	.cantunwind
	.fnend
                                        @ -- End function
	.section	.text.netif_set_addr,"ax",%progbits
	.hidden	netif_set_addr                  @ -- Begin function netif_set_addr
	.globl	netif_set_addr
	.p2align	3
	.type	netif_set_addr,%function
	.code	16                              @ @netif_set_addr
	.thumb_func
netif_set_addr:
.Lfunc_begin3:
	.loc	8 361 0                         @ rt-thread/components/net/lwip-2.0.2/src/core/netif.c:361:0
	.fnstart
	.cfi_startproc
@ %bb.0:
	.save	{r7, lr}
	push	{r7, lr}
	.cfi_def_cfa_offset 8
	.cfi_offset lr, -4
	.cfi_offset r7, -8
	.pad	#16
	sub	sp, #16
	.cfi_def_cfa_offset 24
	str	r0, [sp, #12]
	str	r1, [sp, #8]
	str	r2, [sp, #4]
	str	r3, [sp]
.Ltmp24:
	.loc	8 362 7 prologue_end            @ rt-thread/components/net/lwip-2.0.2/src/core/netif.c:362:7
	ldr	r0, [sp, #8]
	cbz	r0, .LBB3_2
	b	.LBB3_1
.LBB3_1:
	ldr	r0, [sp, #8]
	ldr	r0, [r0]
.Ltmp25:
	.loc	8 362 7 is_stmt 0               @ rt-thread/components/net/lwip-2.0.2/src/core/netif.c:362:7
	cbnz	r0, .LBB3_3
	b	.LBB3_2
.LBB3_2:
.Ltmp26:
	.loc	8 365 22 is_stmt 1              @ rt-thread/components/net/lwip-2.0.2/src/core/netif.c:365:22
	ldr	r0, [sp, #12]
	.loc	8 365 29 is_stmt 0              @ rt-thread/components/net/lwip-2.0.2/src/core/netif.c:365:29
	ldr	r1, [sp, #8]
	.loc	8 365 5                         @ rt-thread/components/net/lwip-2.0.2/src/core/netif.c:365:5
	bl	netif_set_ipaddr
	.loc	8 366 23 is_stmt 1              @ rt-thread/components/net/lwip-2.0.2/src/core/netif.c:366:23
	ldr	r0, [sp, #12]
	.loc	8 366 30 is_stmt 0              @ rt-thread/components/net/lwip-2.0.2/src/core/netif.c:366:30
	ldr	r1, [sp, #4]
	.loc	8 366 5                         @ rt-thread/components/net/lwip-2.0.2/src/core/netif.c:366:5
	bl	netif_set_netmask
	.loc	8 367 18 is_stmt 1              @ rt-thread/components/net/lwip-2.0.2/src/core/netif.c:367:18
	ldr	r0, [sp, #12]
	.loc	8 367 25 is_stmt 0              @ rt-thread/components/net/lwip-2.0.2/src/core/netif.c:367:25
	ldr	r1, [sp]
	.loc	8 367 5                         @ rt-thread/components/net/lwip-2.0.2/src/core/netif.c:367:5
	bl	netif_set_gw
	.loc	8 368 3 is_stmt 1               @ rt-thread/components/net/lwip-2.0.2/src/core/netif.c:368:3
	b	.LBB3_4
.Ltmp27:
.LBB3_3:
	.loc	8 369 23                        @ rt-thread/components/net/lwip-2.0.2/src/core/netif.c:369:23
	ldr	r0, [sp, #12]
	.loc	8 369 30 is_stmt 0              @ rt-thread/components/net/lwip-2.0.2/src/core/netif.c:369:30
	ldr	r1, [sp, #4]
	.loc	8 369 5                         @ rt-thread/components/net/lwip-2.0.2/src/core/netif.c:369:5
	bl	netif_set_netmask
	.loc	8 370 18 is_stmt 1              @ rt-thread/components/net/lwip-2.0.2/src/core/netif.c:370:18
	ldr	r0, [sp, #12]
	.loc	8 370 25 is_stmt 0              @ rt-thread/components/net/lwip-2.0.2/src/core/netif.c:370:25
	ldr	r1, [sp]
	.loc	8 370 5                         @ rt-thread/components/net/lwip-2.0.2/src/core/netif.c:370:5
	bl	netif_set_gw
	.loc	8 372 22 is_stmt 1              @ rt-thread/components/net/lwip-2.0.2/src/core/netif.c:372:22
	ldr	r0, [sp, #12]
	.loc	8 372 29 is_stmt 0              @ rt-thread/components/net/lwip-2.0.2/src/core/netif.c:372:29
	ldr	r1, [sp, #8]
	.loc	8 372 5                         @ rt-thread/components/net/lwip-2.0.2/src/core/netif.c:372:5
	bl	netif_set_ipaddr
	b	.LBB3_4
.Ltmp28:
.LBB3_4:
	.loc	8 374 1 is_stmt 1               @ rt-thread/components/net/lwip-2.0.2/src/core/netif.c:374:1
	add	sp, #16
	pop	{r7, pc}
.Ltmp29:
.Lfunc_end3:
	.size	netif_set_addr, .Lfunc_end3-netif_set_addr
	.cfi_endproc
	.cantunwind
	.fnend
                                        @ -- End function
	.section	.text.netif_set_ipaddr,"ax",%progbits
	.hidden	netif_set_ipaddr                @ -- Begin function netif_set_ipaddr
	.globl	netif_set_ipaddr
	.p2align	3
	.type	netif_set_ipaddr,%function
	.code	16                              @ @netif_set_ipaddr
	.thumb_func
netif_set_ipaddr:
.Lfunc_begin4:
	.loc	8 515 0                         @ rt-thread/components/net/lwip-2.0.2/src/core/netif.c:515:0
	.fnstart
	.cfi_startproc
@ %bb.0:
	.save	{r7, lr}
	push	{r7, lr}
	.cfi_def_cfa_offset 8
	.cfi_offset lr, -4
	.cfi_offset r7, -8
	.pad	#24
	sub	sp, #24
	.cfi_def_cfa_offset 32
	str	r0, [sp, #20]
	str	r1, [sp, #16]
.Ltmp30:
	.loc	8 517 27 prologue_end           @ rt-thread/components/net/lwip-2.0.2/src/core/netif.c:517:27
	ldr	r0, [sp, #16]
	cbz	r0, .LBB4_2
	b	.LBB4_1
.LBB4_1:
	.loc	8 517 37 is_stmt 0              @ rt-thread/components/net/lwip-2.0.2/src/core/netif.c:517:37
	ldr	r0, [sp, #16]
	.loc	8 517 36                        @ rt-thread/components/net/lwip-2.0.2/src/core/netif.c:517:36
	ldr	r0, [r0]
	str	r0, [sp, #12]
	.loc	8 517 27                        @ rt-thread/components/net/lwip-2.0.2/src/core/netif.c:517:27
	b	.LBB4_3
.LBB4_2:
	.loc	8 517 46                        @ rt-thread/components/net/lwip-2.0.2/src/core/netif.c:517:46
	movw	r0, :lower16:ip_addr_any
	movt	r0, :upper16:ip_addr_any
	ldr	r0, [r0]
	str	r0, [sp, #12]
	.loc	8 517 27                        @ rt-thread/components/net/lwip-2.0.2/src/core/netif.c:517:27
	b	.LBB4_3
.LBB4_3:
.Ltmp31:
	.loc	8 521 7 is_stmt 1               @ rt-thread/components/net/lwip-2.0.2/src/core/netif.c:521:7
	ldr	r0, [sp, #12]
	ldr	r1, [sp, #20]
	ldr	r1, [r1, #4]
.Ltmp32:
	.loc	8 521 7 is_stmt 0               @ rt-thread/components/net/lwip-2.0.2/src/core/netif.c:521:7
	cmp	r0, r1
	beq	.LBB4_12
	b	.LBB4_4
.LBB4_4:
.Ltmp33:
	.loc	8 524 31 is_stmt 1              @ rt-thread/components/net/lwip-2.0.2/src/core/netif.c:524:31
	ldr	r0, [sp, #20]
	adds	r0, #4
	add	r1, sp, #12
	.loc	8 524 5 is_stmt 0               @ rt-thread/components/net/lwip-2.0.2/src/core/netif.c:524:5
	str	r1, [sp, #8]                    @ 4-byte Spill
	bl	tcp_netif_ip_addr_changed
	ldr	r1, [sp, #8]                    @ 4-byte Reload
	.loc	8 527 31 is_stmt 1              @ rt-thread/components/net/lwip-2.0.2/src/core/netif.c:527:31
	ldr	r0, [sp, #20]
	adds	r0, #4
	.loc	8 527 5 is_stmt 0               @ rt-thread/components/net/lwip-2.0.2/src/core/netif.c:527:5
	bl	udp_netif_ip_addr_changed
	ldr	r1, [sp, #8]                    @ 4-byte Reload
	.loc	8 530 31 is_stmt 1              @ rt-thread/components/net/lwip-2.0.2/src/core/netif.c:530:31
	ldr	r0, [sp, #20]
	adds	r0, #4
	.loc	8 530 5 is_stmt 0               @ rt-thread/components/net/lwip-2.0.2/src/core/netif.c:530:5
	bl	raw_netif_ip_addr_changed
	.loc	8 536 5 is_stmt 1               @ rt-thread/components/net/lwip-2.0.2/src/core/netif.c:536:5
	ldr	r0, [sp, #16]
	cbnz	r0, .LBB4_6
	b	.LBB4_5
.LBB4_5:
	.loc	8 0 5 is_stmt 0                 @ rt-thread/components/net/lwip-2.0.2/src/core/netif.c:0:5
	movs	r0, #0
	.loc	8 536 5                         @ rt-thread/components/net/lwip-2.0.2/src/core/netif.c:536:5
	str	r0, [sp, #4]                    @ 4-byte Spill
	b	.LBB4_7
.LBB4_6:
	ldr	r0, [sp, #16]
	ldr	r0, [r0]
	str	r0, [sp, #4]                    @ 4-byte Spill
	b	.LBB4_7
.LBB4_7:
	ldr	r0, [sp, #4]                    @ 4-byte Reload
	ldr	r1, [sp, #20]
	str	r0, [r1, #4]
	.loc	8 541 25 is_stmt 1              @ rt-thread/components/net/lwip-2.0.2/src/core/netif.c:541:25
	ldr	r0, [sp, #20]
	movs	r1, #1
	.loc	8 541 5 is_stmt 0               @ rt-thread/components/net/lwip-2.0.2/src/core/netif.c:541:5
	bl	netif_issue_reports
	.loc	8 543 5 is_stmt 1               @ rt-thread/components/net/lwip-2.0.2/src/core/netif.c:543:5
	b	.LBB4_8
.LBB4_8:
.Ltmp34:
	.loc	8 543 5 is_stmt 0               @ rt-thread/components/net/lwip-2.0.2/src/core/netif.c:543:5
	ldr	r0, [sp, #20]
	ldr	r0, [r0, #28]
.Ltmp35:
	.loc	8 543 5                         @ rt-thread/components/net/lwip-2.0.2/src/core/netif.c:543:5
	cbz	r0, .LBB4_10
	b	.LBB4_9
.LBB4_9:
.Ltmp36:
	.loc	8 543 5                         @ rt-thread/components/net/lwip-2.0.2/src/core/netif.c:543:5
	ldr	r0, [sp, #20]
	ldr	r1, [r0, #28]
	blx	r1
	b	.LBB4_10
.Ltmp37:
.LBB4_10:
	.loc	8 543 5                         @ rt-thread/components/net/lwip-2.0.2/src/core/netif.c:543:5
	b	.LBB4_11
.Ltmp38:
.LBB4_11:
	.loc	8 547 52 is_stmt 1              @ rt-thread/components/net/lwip-2.0.2/src/core/netif.c:547:52
	ldr	r0, [sp, #20]
	.loc	8 547 59 is_stmt 0              @ rt-thread/components/net/lwip-2.0.2/src/core/netif.c:547:59
	adds	r0, #66
	.loc	8 547 33                        @ rt-thread/components/net/lwip-2.0.2/src/core/netif.c:547:33
	bl	netdev_get_by_name
	.loc	8 547 67                        @ rt-thread/components/net/lwip-2.0.2/src/core/netif.c:547:67
	ldr	r1, [sp, #20]
	.loc	8 547 74                        @ rt-thread/components/net/lwip-2.0.2/src/core/netif.c:547:74
	adds	r1, #4
	.loc	8 547 5                         @ rt-thread/components/net/lwip-2.0.2/src/core/netif.c:547:5
	bl	netdev_low_level_set_ipaddr
	.loc	8 549 3 is_stmt 1               @ rt-thread/components/net/lwip-2.0.2/src/core/netif.c:549:3
	b	.LBB4_12
.Ltmp39:
.LBB4_12:
	.loc	8 557 1                         @ rt-thread/components/net/lwip-2.0.2/src/core/netif.c:557:1
	add	sp, #24
	pop	{r7, pc}
.Ltmp40:
.Lfunc_end4:
	.size	netif_set_ipaddr, .Lfunc_end4-netif_set_ipaddr
	.cfi_endproc
	.cantunwind
	.fnend
                                        @ -- End function
	.section	.text.netif_set_netmask,"ax",%progbits
	.hidden	netif_set_netmask               @ -- Begin function netif_set_netmask
	.globl	netif_set_netmask
	.p2align	3
	.type	netif_set_netmask,%function
	.code	16                              @ @netif_set_netmask
	.thumb_func
netif_set_netmask:
.Lfunc_begin5:
	.loc	8 598 0                         @ rt-thread/components/net/lwip-2.0.2/src/core/netif.c:598:0
	.fnstart
	.cfi_startproc
@ %bb.0:
	.save	{r7, lr}
	push	{r7, lr}
	.cfi_def_cfa_offset 8
	.cfi_offset lr, -4
	.cfi_offset r7, -8
	.pad	#16
	sub	sp, #16
	.cfi_def_cfa_offset 24
	str	r0, [sp, #12]
	str	r1, [sp, #8]
.Ltmp41:
	.loc	8 601 3 prologue_end            @ rt-thread/components/net/lwip-2.0.2/src/core/netif.c:601:3
	ldr	r0, [sp, #8]
	cbnz	r0, .LBB5_2
	b	.LBB5_1
.LBB5_1:
	.loc	8 0 3 is_stmt 0                 @ rt-thread/components/net/lwip-2.0.2/src/core/netif.c:0:3
	movs	r0, #0
	.loc	8 601 3                         @ rt-thread/components/net/lwip-2.0.2/src/core/netif.c:601:3
	str	r0, [sp, #4]                    @ 4-byte Spill
	b	.LBB5_3
.LBB5_2:
	ldr	r0, [sp, #8]
	ldr	r0, [r0]
	str	r0, [sp, #4]                    @ 4-byte Spill
	b	.LBB5_3
.LBB5_3:
	ldr	r0, [sp, #4]                    @ 4-byte Reload
	ldr	r1, [sp, #12]
	str	r0, [r1, #8]
	.loc	8 613 51 is_stmt 1              @ rt-thread/components/net/lwip-2.0.2/src/core/netif.c:613:51
	ldr	r0, [sp, #12]
	.loc	8 613 58 is_stmt 0              @ rt-thread/components/net/lwip-2.0.2/src/core/netif.c:613:58
	adds	r0, #66
	.loc	8 613 32                        @ rt-thread/components/net/lwip-2.0.2/src/core/netif.c:613:32
	bl	netdev_get_by_name
	.loc	8 613 66                        @ rt-thread/components/net/lwip-2.0.2/src/core/netif.c:613:66
	ldr	r1, [sp, #12]
	.loc	8 613 73                        @ rt-thread/components/net/lwip-2.0.2/src/core/netif.c:613:73
	adds	r1, #8
	.loc	8 613 3                         @ rt-thread/components/net/lwip-2.0.2/src/core/netif.c:613:3
	bl	netdev_low_level_set_netmask
	.loc	8 615 1 is_stmt 1               @ rt-thread/components/net/lwip-2.0.2/src/core/netif.c:615:1
	add	sp, #16
	pop	{r7, pc}
.Ltmp42:
.Lfunc_end5:
	.size	netif_set_netmask, .Lfunc_end5-netif_set_netmask
	.cfi_endproc
	.cantunwind
	.fnend
                                        @ -- End function
	.section	.text.netif_set_gw,"ax",%progbits
	.hidden	netif_set_gw                    @ -- Begin function netif_set_gw
	.globl	netif_set_gw
	.p2align	3
	.type	netif_set_gw,%function
	.code	16                              @ @netif_set_gw
	.thumb_func
netif_set_gw:
.Lfunc_begin6:
	.loc	8 570 0                         @ rt-thread/components/net/lwip-2.0.2/src/core/netif.c:570:0
	.fnstart
	.cfi_startproc
@ %bb.0:
	.save	{r7, lr}
	push	{r7, lr}
	.cfi_def_cfa_offset 8
	.cfi_offset lr, -4
	.cfi_offset r7, -8
	.pad	#16
	sub	sp, #16
	.cfi_def_cfa_offset 24
	str	r0, [sp, #12]
	str	r1, [sp, #8]
.Ltmp43:
	.loc	8 571 3 prologue_end            @ rt-thread/components/net/lwip-2.0.2/src/core/netif.c:571:3
	ldr	r0, [sp, #8]
	cbnz	r0, .LBB6_2
	b	.LBB6_1
.LBB6_1:
	.loc	8 0 3 is_stmt 0                 @ rt-thread/components/net/lwip-2.0.2/src/core/netif.c:0:3
	movs	r0, #0
	.loc	8 571 3                         @ rt-thread/components/net/lwip-2.0.2/src/core/netif.c:571:3
	str	r0, [sp, #4]                    @ 4-byte Spill
	b	.LBB6_3
.LBB6_2:
	ldr	r0, [sp, #8]
	ldr	r0, [r0]
	str	r0, [sp, #4]                    @ 4-byte Spill
	b	.LBB6_3
.LBB6_3:
	ldr	r0, [sp, #4]                    @ 4-byte Reload
	ldr	r1, [sp, #12]
	str	r0, [r1, #12]
	.loc	8 582 46 is_stmt 1              @ rt-thread/components/net/lwip-2.0.2/src/core/netif.c:582:46
	ldr	r0, [sp, #12]
	.loc	8 582 53 is_stmt 0              @ rt-thread/components/net/lwip-2.0.2/src/core/netif.c:582:53
	adds	r0, #66
	.loc	8 582 27                        @ rt-thread/components/net/lwip-2.0.2/src/core/netif.c:582:27
	bl	netdev_get_by_name
	.loc	8 582 61                        @ rt-thread/components/net/lwip-2.0.2/src/core/netif.c:582:61
	ldr	r1, [sp, #12]
	.loc	8 582 68                        @ rt-thread/components/net/lwip-2.0.2/src/core/netif.c:582:68
	adds	r1, #12
	.loc	8 582 3                         @ rt-thread/components/net/lwip-2.0.2/src/core/netif.c:582:3
	bl	netdev_low_level_set_gw
	.loc	8 584 1 is_stmt 1               @ rt-thread/components/net/lwip-2.0.2/src/core/netif.c:584:1
	add	sp, #16
	pop	{r7, pc}
.Ltmp44:
.Lfunc_end6:
	.size	netif_set_gw, .Lfunc_end6-netif_set_gw
	.cfi_endproc
	.cantunwind
	.fnend
                                        @ -- End function
	.section	.text.netif_remove,"ax",%progbits
	.hidden	netif_remove                    @ -- Begin function netif_remove
	.globl	netif_remove
	.p2align	3
	.type	netif_remove,%function
	.code	16                              @ @netif_remove
	.thumb_func
netif_remove:
.Lfunc_begin7:
	.loc	8 385 0                         @ rt-thread/components/net/lwip-2.0.2/src/core/netif.c:385:0
	.fnstart
	.cfi_startproc
@ %bb.0:
	.save	{r7, lr}
	push	{r7, lr}
	.cfi_def_cfa_offset 8
	.cfi_offset lr, -4
	.cfi_offset r7, -8
	.pad	#16
	sub	sp, #16
	.cfi_def_cfa_offset 24
	str	r0, [sp, #12]
.Ltmp45:
	.loc	8 390 7 prologue_end            @ rt-thread/components/net/lwip-2.0.2/src/core/netif.c:390:7
	ldr	r0, [sp, #12]
.Ltmp46:
	.loc	8 390 7 is_stmt 0               @ rt-thread/components/net/lwip-2.0.2/src/core/netif.c:390:7
	cbnz	r0, .LBB7_2
	b	.LBB7_1
.LBB7_1:
.Ltmp47:
	.loc	8 391 5 is_stmt 1               @ rt-thread/components/net/lwip-2.0.2/src/core/netif.c:391:5
	b	.LBB7_23
.Ltmp48:
.LBB7_2:
	.loc	8 395 8                         @ rt-thread/components/net/lwip-2.0.2/src/core/netif.c:395:8
	ldr	r0, [sp, #12]
	ldr	r0, [r0, #4]
.Ltmp49:
	.loc	8 395 7 is_stmt 0               @ rt-thread/components/net/lwip-2.0.2/src/core/netif.c:395:7
	cbz	r0, .LBB7_4
	b	.LBB7_3
.LBB7_3:
.Ltmp50:
	.loc	8 397 31 is_stmt 1              @ rt-thread/components/net/lwip-2.0.2/src/core/netif.c:397:31
	ldr	r0, [sp, #12]
	adds	r0, #4
	movs	r1, #0
	.loc	8 397 5 is_stmt 0               @ rt-thread/components/net/lwip-2.0.2/src/core/netif.c:397:5
	str	r1, [sp, #4]                    @ 4-byte Spill
	bl	tcp_netif_ip_addr_changed
	ldr	r1, [sp, #4]                    @ 4-byte Reload
	.loc	8 400 31 is_stmt 1              @ rt-thread/components/net/lwip-2.0.2/src/core/netif.c:400:31
	ldr	r0, [sp, #12]
	adds	r0, #4
	.loc	8 400 5 is_stmt 0               @ rt-thread/components/net/lwip-2.0.2/src/core/netif.c:400:5
	bl	udp_netif_ip_addr_changed
	ldr	r1, [sp, #4]                    @ 4-byte Reload
	.loc	8 403 31 is_stmt 1              @ rt-thread/components/net/lwip-2.0.2/src/core/netif.c:403:31
	ldr	r0, [sp, #12]
	adds	r0, #4
	.loc	8 403 5 is_stmt 0               @ rt-thread/components/net/lwip-2.0.2/src/core/netif.c:403:5
	bl	raw_netif_ip_addr_changed
	.loc	8 405 3 is_stmt 1               @ rt-thread/components/net/lwip-2.0.2/src/core/netif.c:405:3
	b	.LBB7_4
.Ltmp51:
.LBB7_4:
	.loc	8 409 7                         @ rt-thread/components/net/lwip-2.0.2/src/core/netif.c:409:7
	ldr	r0, [sp, #12]
	ldrb.w	r0, [r0, #65]
.Ltmp52:
	.loc	8 409 7 is_stmt 0               @ rt-thread/components/net/lwip-2.0.2/src/core/netif.c:409:7
	lsls	r0, r0, #26
	cmp	r0, #0
	bpl	.LBB7_6
	b	.LBB7_5
.LBB7_5:
.Ltmp53:
	.loc	8 410 15 is_stmt 1              @ rt-thread/components/net/lwip-2.0.2/src/core/netif.c:410:15
	ldr	r0, [sp, #12]
	.loc	8 410 5 is_stmt 0               @ rt-thread/components/net/lwip-2.0.2/src/core/netif.c:410:5
	bl	igmp_stop
	.loc	8 411 3 is_stmt 1               @ rt-thread/components/net/lwip-2.0.2/src/core/netif.c:411:3
	b	.LBB7_6
.Ltmp54:
.LBB7_6:
	.loc	8 434 7                         @ rt-thread/components/net/lwip-2.0.2/src/core/netif.c:434:7
	ldr	r0, [sp, #12]
	ldrb.w	r0, [r0, #65]
.Ltmp55:
	.loc	8 434 7 is_stmt 0               @ rt-thread/components/net/lwip-2.0.2/src/core/netif.c:434:7
	lsls	r0, r0, #31
	cbz	r0, .LBB7_8
	b	.LBB7_7
.LBB7_7:
	.loc	8 0 7                           @ rt-thread/components/net/lwip-2.0.2/src/core/netif.c:0:7
	movs	r0, #1
.Ltmp56:
	.loc	8 434 7                         @ rt-thread/components/net/lwip-2.0.2/src/core/netif.c:434:7
	cbnz	r0, .LBB7_9
	b	.LBB7_10
.Ltmp57:
.LBB7_8:
	.loc	8 0 7                           @ rt-thread/components/net/lwip-2.0.2/src/core/netif.c:0:7
	movs	r0, #1
	.loc	8 434 7                         @ rt-thread/components/net/lwip-2.0.2/src/core/netif.c:434:7
	cbnz	r0, .LBB7_10
	b	.LBB7_9
.LBB7_9:
.Ltmp58:
	.loc	8 436 20 is_stmt 1              @ rt-thread/components/net/lwip-2.0.2/src/core/netif.c:436:20
	ldr	r0, [sp, #12]
	.loc	8 436 5 is_stmt 0               @ rt-thread/components/net/lwip-2.0.2/src/core/netif.c:436:5
	bl	netif_set_down
	.loc	8 437 3 is_stmt 1               @ rt-thread/components/net/lwip-2.0.2/src/core/netif.c:437:3
	b	.LBB7_10
.Ltmp59:
.LBB7_10:
	.loc	8 442 7                         @ rt-thread/components/net/lwip-2.0.2/src/core/netif.c:442:7
	movw	r0, :lower16:netif_default
	movt	r0, :upper16:netif_default
	ldr	r0, [r0]
	.loc	8 442 24 is_stmt 0              @ rt-thread/components/net/lwip-2.0.2/src/core/netif.c:442:24
	ldr	r1, [sp, #12]
.Ltmp60:
	.loc	8 442 7                         @ rt-thread/components/net/lwip-2.0.2/src/core/netif.c:442:7
	cmp	r0, r1
	bne	.LBB7_12
	b	.LBB7_11
.LBB7_11:
	.loc	8 0 7                           @ rt-thread/components/net/lwip-2.0.2/src/core/netif.c:0:7
	movs	r0, #0
.Ltmp61:
	.loc	8 444 5 is_stmt 1               @ rt-thread/components/net/lwip-2.0.2/src/core/netif.c:444:5
	bl	netif_set_default
	.loc	8 445 3                         @ rt-thread/components/net/lwip-2.0.2/src/core/netif.c:445:3
	b	.LBB7_12
.Ltmp62:
.LBB7_12:
	.loc	8 447 7                         @ rt-thread/components/net/lwip-2.0.2/src/core/netif.c:447:7
	movw	r0, :lower16:netif_list
	movt	r0, :upper16:netif_list
	ldr	r0, [r0]
	.loc	8 447 21 is_stmt 0              @ rt-thread/components/net/lwip-2.0.2/src/core/netif.c:447:21
	ldr	r1, [sp, #12]
.Ltmp63:
	.loc	8 447 7                         @ rt-thread/components/net/lwip-2.0.2/src/core/netif.c:447:7
	cmp	r0, r1
	bne	.LBB7_14
	b	.LBB7_13
.LBB7_13:
.Ltmp64:
	.loc	8 448 18 is_stmt 1              @ rt-thread/components/net/lwip-2.0.2/src/core/netif.c:448:18
	ldr	r0, [sp, #12]
	.loc	8 448 25 is_stmt 0              @ rt-thread/components/net/lwip-2.0.2/src/core/netif.c:448:25
	ldr	r0, [r0]
	.loc	8 448 16                        @ rt-thread/components/net/lwip-2.0.2/src/core/netif.c:448:16
	movw	r1, :lower16:netif_list
	movt	r1, :upper16:netif_list
	str	r0, [r1]
	.loc	8 449 3 is_stmt 1               @ rt-thread/components/net/lwip-2.0.2/src/core/netif.c:449:3
	b	.LBB7_23
.Ltmp65:
.LBB7_14:
	.loc	8 452 22                        @ rt-thread/components/net/lwip-2.0.2/src/core/netif.c:452:22
	movw	r0, :lower16:netif_list
	movt	r0, :upper16:netif_list
	ldr	r0, [r0]
	.loc	8 452 20 is_stmt 0              @ rt-thread/components/net/lwip-2.0.2/src/core/netif.c:452:20
	str	r0, [sp, #8]
	.loc	8 452 10                        @ rt-thread/components/net/lwip-2.0.2/src/core/netif.c:452:10
	b	.LBB7_15
.LBB7_15:                               @ =>This Inner Loop Header: Depth=1
.Ltmp66:
	.loc	8 452 34                        @ rt-thread/components/net/lwip-2.0.2/src/core/netif.c:452:34
	ldr	r0, [sp, #8]
.Ltmp67:
	.loc	8 452 5                         @ rt-thread/components/net/lwip-2.0.2/src/core/netif.c:452:5
	cbz	r0, .LBB7_20
	b	.LBB7_16
.LBB7_16:                               @   in Loop: Header=BB7_15 Depth=1
.Ltmp68:
	.loc	8 453 11 is_stmt 1              @ rt-thread/components/net/lwip-2.0.2/src/core/netif.c:453:11
	ldr	r0, [sp, #8]
	.loc	8 453 22 is_stmt 0              @ rt-thread/components/net/lwip-2.0.2/src/core/netif.c:453:22
	ldr	r0, [r0]
	.loc	8 453 30                        @ rt-thread/components/net/lwip-2.0.2/src/core/netif.c:453:30
	ldr	r1, [sp, #12]
.Ltmp69:
	.loc	8 453 11                        @ rt-thread/components/net/lwip-2.0.2/src/core/netif.c:453:11
	cmp	r0, r1
	bne	.LBB7_18
	b	.LBB7_17
.LBB7_17:
.Ltmp70:
	.loc	8 454 27 is_stmt 1              @ rt-thread/components/net/lwip-2.0.2/src/core/netif.c:454:27
	ldr	r0, [sp, #12]
	.loc	8 454 34 is_stmt 0              @ rt-thread/components/net/lwip-2.0.2/src/core/netif.c:454:34
	ldr	r0, [r0]
	.loc	8 454 9                         @ rt-thread/components/net/lwip-2.0.2/src/core/netif.c:454:9
	ldr	r1, [sp, #8]
	.loc	8 454 25                        @ rt-thread/components/net/lwip-2.0.2/src/core/netif.c:454:25
	str	r0, [r1]
	.loc	8 455 9 is_stmt 1               @ rt-thread/components/net/lwip-2.0.2/src/core/netif.c:455:9
	b	.LBB7_20
.Ltmp71:
.LBB7_18:                               @   in Loop: Header=BB7_15 Depth=1
	.loc	8 457 5                         @ rt-thread/components/net/lwip-2.0.2/src/core/netif.c:457:5
	b	.LBB7_19
.Ltmp72:
.LBB7_19:                               @   in Loop: Header=BB7_15 Depth=1
	.loc	8 452 65                        @ rt-thread/components/net/lwip-2.0.2/src/core/netif.c:452:65
	ldr	r0, [sp, #8]
	.loc	8 452 76 is_stmt 0              @ rt-thread/components/net/lwip-2.0.2/src/core/netif.c:452:76
	ldr	r0, [r0]
	.loc	8 452 63                        @ rt-thread/components/net/lwip-2.0.2/src/core/netif.c:452:63
	str	r0, [sp, #8]
	.loc	8 452 5                         @ rt-thread/components/net/lwip-2.0.2/src/core/netif.c:452:5
	b	.LBB7_15
.Ltmp73:
.LBB7_20:
	.loc	8 458 9 is_stmt 1               @ rt-thread/components/net/lwip-2.0.2/src/core/netif.c:458:9
	ldr	r0, [sp, #8]
.Ltmp74:
	.loc	8 458 9 is_stmt 0               @ rt-thread/components/net/lwip-2.0.2/src/core/netif.c:458:9
	cbnz	r0, .LBB7_22
	b	.LBB7_21
.LBB7_21:
.Ltmp75:
	.loc	8 459 7 is_stmt 1               @ rt-thread/components/net/lwip-2.0.2/src/core/netif.c:459:7
	b	.LBB7_23
.Ltmp76:
.LBB7_22:
	.loc	8 0 7 is_stmt 0                 @ rt-thread/components/net/lwip-2.0.2/src/core/netif.c:0:7
	b	.LBB7_23
.LBB7_23:
	.loc	8 469 1 is_stmt 1               @ rt-thread/components/net/lwip-2.0.2/src/core/netif.c:469:1
	add	sp, #16
	pop	{r7, pc}
.Ltmp77:
.Lfunc_end7:
	.size	netif_remove, .Lfunc_end7-netif_remove
	.cfi_endproc
	.cantunwind
	.fnend
                                        @ -- End function
	.section	.text.netif_set_down,"ax",%progbits
	.hidden	netif_set_down                  @ -- Begin function netif_set_down
	.globl	netif_set_down
	.p2align	3
	.type	netif_set_down,%function
	.code	16                              @ @netif_set_down
	.thumb_func
netif_set_down:
.Lfunc_begin8:
	.loc	8 710 0                         @ rt-thread/components/net/lwip-2.0.2/src/core/netif.c:710:0
	.fnstart
	.cfi_startproc
@ %bb.0:
	.save	{r7, lr}
	push	{r7, lr}
	.cfi_def_cfa_offset 8
	.cfi_offset lr, -4
	.cfi_offset r7, -8
	.pad	#8
	sub	sp, #8
	.cfi_def_cfa_offset 16
	str	r0, [sp, #4]
.Ltmp78:
	.loc	8 711 7 prologue_end            @ rt-thread/components/net/lwip-2.0.2/src/core/netif.c:711:7
	ldr	r0, [sp, #4]
	ldrb.w	r0, [r0, #65]
.Ltmp79:
	.loc	8 711 7 is_stmt 0               @ rt-thread/components/net/lwip-2.0.2/src/core/netif.c:711:7
	lsls	r0, r0, #31
	cbz	r0, .LBB8_8
	b	.LBB8_1
.LBB8_1:
.Ltmp80:
	.loc	8 712 5 is_stmt 1               @ rt-thread/components/net/lwip-2.0.2/src/core/netif.c:712:5
	ldr	r1, [sp, #4]
	.loc	8 712 18 is_stmt 0              @ rt-thread/components/net/lwip-2.0.2/src/core/netif.c:712:18
	ldrb.w	r0, [r1, #65]
	and	r0, r0, #254
	strb.w	r0, [r1, #65]
.Ltmp81:
	.loc	8 716 9 is_stmt 1               @ rt-thread/components/net/lwip-2.0.2/src/core/netif.c:716:9
	ldr	r0, [sp, #4]
	ldrb.w	r0, [r0, #65]
.Ltmp82:
	.loc	8 716 9 is_stmt 0               @ rt-thread/components/net/lwip-2.0.2/src/core/netif.c:716:9
	lsls	r0, r0, #28
	cmp	r0, #0
	bpl	.LBB8_3
	b	.LBB8_2
.LBB8_2:
.Ltmp83:
	.loc	8 717 28 is_stmt 1              @ rt-thread/components/net/lwip-2.0.2/src/core/netif.c:717:28
	ldr	r0, [sp, #4]
	.loc	8 717 7 is_stmt 0               @ rt-thread/components/net/lwip-2.0.2/src/core/netif.c:717:7
	bl	etharp_cleanup_netif
	.loc	8 718 5 is_stmt 1               @ rt-thread/components/net/lwip-2.0.2/src/core/netif.c:718:5
	b	.LBB8_3
.Ltmp84:
.LBB8_3:
	.loc	8 725 5                         @ rt-thread/components/net/lwip-2.0.2/src/core/netif.c:725:5
	b	.LBB8_4
.LBB8_4:
.Ltmp85:
	.loc	8 725 5 is_stmt 0               @ rt-thread/components/net/lwip-2.0.2/src/core/netif.c:725:5
	ldr	r0, [sp, #4]
	ldr	r0, [r0, #28]
.Ltmp86:
	.loc	8 725 5                         @ rt-thread/components/net/lwip-2.0.2/src/core/netif.c:725:5
	cbz	r0, .LBB8_6
	b	.LBB8_5
.LBB8_5:
.Ltmp87:
	.loc	8 725 5                         @ rt-thread/components/net/lwip-2.0.2/src/core/netif.c:725:5
	ldr	r0, [sp, #4]
	ldr	r1, [r0, #28]
	blx	r1
	b	.LBB8_6
.Ltmp88:
.LBB8_6:
	.loc	8 725 5                         @ rt-thread/components/net/lwip-2.0.2/src/core/netif.c:725:5
	b	.LBB8_7
.Ltmp89:
.LBB8_7:
	.loc	8 729 52 is_stmt 1              @ rt-thread/components/net/lwip-2.0.2/src/core/netif.c:729:52
	ldr	r0, [sp, #4]
	.loc	8 729 59 is_stmt 0              @ rt-thread/components/net/lwip-2.0.2/src/core/netif.c:729:59
	adds	r0, #66
	.loc	8 729 33                        @ rt-thread/components/net/lwip-2.0.2/src/core/netif.c:729:33
	bl	netdev_get_by_name
	movs	r1, #0
	.loc	8 729 5                         @ rt-thread/components/net/lwip-2.0.2/src/core/netif.c:729:5
	bl	netdev_low_level_set_status
	.loc	8 731 3 is_stmt 1               @ rt-thread/components/net/lwip-2.0.2/src/core/netif.c:731:3
	b	.LBB8_8
.Ltmp90:
.LBB8_8:
	.loc	8 732 1                         @ rt-thread/components/net/lwip-2.0.2/src/core/netif.c:732:1
	add	sp, #8
	pop	{r7, pc}
.Ltmp91:
.Lfunc_end8:
	.size	netif_set_down, .Lfunc_end8-netif_set_down
	.cfi_endproc
	.cantunwind
	.fnend
                                        @ -- End function
	.section	.text.netif_set_default,"ax",%progbits
	.hidden	netif_set_default               @ -- Begin function netif_set_default
	.globl	netif_set_default
	.p2align	3
	.type	netif_set_default,%function
	.code	16                              @ @netif_set_default
	.thumb_func
netif_set_default:
.Lfunc_begin9:
	.loc	8 627 0                         @ rt-thread/components/net/lwip-2.0.2/src/core/netif.c:627:0
	.fnstart
	.cfi_startproc
@ %bb.0:
	.pad	#4
	sub	sp, #4
	.cfi_def_cfa_offset 4
	str	r0, [sp]
.Ltmp92:
	.loc	8 628 7 prologue_end            @ rt-thread/components/net/lwip-2.0.2/src/core/netif.c:628:7
	ldr	r0, [sp]
.Ltmp93:
	.loc	8 628 7 is_stmt 0               @ rt-thread/components/net/lwip-2.0.2/src/core/netif.c:628:7
	cbnz	r0, .LBB9_2
	b	.LBB9_1
.LBB9_1:
.Ltmp94:
	.loc	8 631 3 is_stmt 1               @ rt-thread/components/net/lwip-2.0.2/src/core/netif.c:631:3
	b	.LBB9_3
.Ltmp95:
.LBB9_2:
	.loc	8 0 3 is_stmt 0                 @ rt-thread/components/net/lwip-2.0.2/src/core/netif.c:0:3
	b	.LBB9_3
.LBB9_3:
	.loc	8 635 19 is_stmt 1              @ rt-thread/components/net/lwip-2.0.2/src/core/netif.c:635:19
	ldr	r0, [sp]
	.loc	8 635 17 is_stmt 0              @ rt-thread/components/net/lwip-2.0.2/src/core/netif.c:635:17
	movw	r1, :lower16:netif_default
	movt	r1, :upper16:netif_default
	str	r0, [r1]
	.loc	8 638 1 is_stmt 1               @ rt-thread/components/net/lwip-2.0.2/src/core/netif.c:638:1
	add	sp, #4
	bx	lr
.Ltmp96:
.Lfunc_end9:
	.size	netif_set_default, .Lfunc_end9-netif_set_default
	.cfi_endproc
	.cantunwind
	.fnend
                                        @ -- End function
	.section	.text.netif_find,"ax",%progbits
	.hidden	netif_find                      @ -- Begin function netif_find
	.globl	netif_find
	.p2align	3
	.type	netif_find,%function
	.code	16                              @ @netif_find
	.thumb_func
netif_find:
.Lfunc_begin10:
	.loc	8 480 0                         @ rt-thread/components/net/lwip-2.0.2/src/core/netif.c:480:0
	.fnstart
	.cfi_startproc
@ %bb.0:
	.pad	#16
	sub	sp, #16
	.cfi_def_cfa_offset 16
	str	r0, [sp, #8]
.Ltmp97:
	.loc	8 484 7 prologue_end            @ rt-thread/components/net/lwip-2.0.2/src/core/netif.c:484:7
	ldr	r0, [sp, #8]
.Ltmp98:
	.loc	8 484 7 is_stmt 0               @ rt-thread/components/net/lwip-2.0.2/src/core/netif.c:484:7
	cbnz	r0, .LBB10_2
	b	.LBB10_1
.LBB10_1:
	.loc	8 0 7                           @ rt-thread/components/net/lwip-2.0.2/src/core/netif.c:0:7
	movs	r0, #0
.Ltmp99:
	.loc	8 485 5 is_stmt 1               @ rt-thread/components/net/lwip-2.0.2/src/core/netif.c:485:5
	str	r0, [sp, #12]
	b	.LBB10_11
.Ltmp100:
.LBB10_2:
	.loc	8 488 16                        @ rt-thread/components/net/lwip-2.0.2/src/core/netif.c:488:16
	ldr	r0, [sp, #8]
	ldrb	r0, [r0, #2]
	.loc	8 488 24 is_stmt 0              @ rt-thread/components/net/lwip-2.0.2/src/core/netif.c:488:24
	subs	r0, #48
	.loc	8 488 7                         @ rt-thread/components/net/lwip-2.0.2/src/core/netif.c:488:7
	strb.w	r0, [sp, #3]
.Ltmp101:
	.loc	8 490 16 is_stmt 1              @ rt-thread/components/net/lwip-2.0.2/src/core/netif.c:490:16
	movw	r0, :lower16:netif_list
	movt	r0, :upper16:netif_list
	ldr	r0, [r0]
	.loc	8 490 14 is_stmt 0              @ rt-thread/components/net/lwip-2.0.2/src/core/netif.c:490:14
	str	r0, [sp, #4]
	.loc	8 490 8                         @ rt-thread/components/net/lwip-2.0.2/src/core/netif.c:490:8
	b	.LBB10_3
.LBB10_3:                               @ =>This Inner Loop Header: Depth=1
.Ltmp102:
	.loc	8 490 28                        @ rt-thread/components/net/lwip-2.0.2/src/core/netif.c:490:28
	ldr	r0, [sp, #4]
.Ltmp103:
	.loc	8 490 3                         @ rt-thread/components/net/lwip-2.0.2/src/core/netif.c:490:3
	cbz	r0, .LBB10_10
	b	.LBB10_4
.LBB10_4:                               @   in Loop: Header=BB10_3 Depth=1
.Ltmp104:
	.loc	8 491 9 is_stmt 1               @ rt-thread/components/net/lwip-2.0.2/src/core/netif.c:491:9
	ldrb.w	r0, [sp, #3]
	.loc	8 491 16 is_stmt 0              @ rt-thread/components/net/lwip-2.0.2/src/core/netif.c:491:16
	ldr	r1, [sp, #4]
	.loc	8 491 23                        @ rt-thread/components/net/lwip-2.0.2/src/core/netif.c:491:23
	ldrb.w	r1, [r1, #68]
	.loc	8 491 27                        @ rt-thread/components/net/lwip-2.0.2/src/core/netif.c:491:27
	cmp	r0, r1
	bne	.LBB10_8
	b	.LBB10_5
.LBB10_5:                               @   in Loop: Header=BB10_3 Depth=1
	.loc	8 492 8 is_stmt 1               @ rt-thread/components/net/lwip-2.0.2/src/core/netif.c:492:8
	ldr	r0, [sp, #8]
	ldrsb.w	r0, [r0]
	.loc	8 492 19 is_stmt 0              @ rt-thread/components/net/lwip-2.0.2/src/core/netif.c:492:19
	ldr	r1, [sp, #4]
	ldrsb.w	r1, [r1, #66]
	.loc	8 492 34                        @ rt-thread/components/net/lwip-2.0.2/src/core/netif.c:492:34
	cmp	r0, r1
	bne	.LBB10_8
	b	.LBB10_6
.LBB10_6:                               @   in Loop: Header=BB10_3 Depth=1
	.loc	8 493 8 is_stmt 1               @ rt-thread/components/net/lwip-2.0.2/src/core/netif.c:493:8
	ldr	r0, [sp, #8]
	ldrsb.w	r0, [r0, #1]
	.loc	8 493 19 is_stmt 0              @ rt-thread/components/net/lwip-2.0.2/src/core/netif.c:493:19
	ldr	r1, [sp, #4]
	ldrsb.w	r1, [r1, #67]
.Ltmp105:
	.loc	8 491 9 is_stmt 1               @ rt-thread/components/net/lwip-2.0.2/src/core/netif.c:491:9
	cmp	r0, r1
	bne	.LBB10_8
	b	.LBB10_7
.LBB10_7:
.Ltmp106:
	.loc	8 495 14                        @ rt-thread/components/net/lwip-2.0.2/src/core/netif.c:495:14
	ldr	r0, [sp, #4]
	.loc	8 495 7 is_stmt 0               @ rt-thread/components/net/lwip-2.0.2/src/core/netif.c:495:7
	str	r0, [sp, #12]
	b	.LBB10_11
.Ltmp107:
.LBB10_8:                               @   in Loop: Header=BB10_3 Depth=1
	.loc	8 497 3 is_stmt 1               @ rt-thread/components/net/lwip-2.0.2/src/core/netif.c:497:3
	b	.LBB10_9
.Ltmp108:
.LBB10_9:                               @   in Loop: Header=BB10_3 Depth=1
	.loc	8 490 51                        @ rt-thread/components/net/lwip-2.0.2/src/core/netif.c:490:51
	ldr	r0, [sp, #4]
	.loc	8 490 58 is_stmt 0              @ rt-thread/components/net/lwip-2.0.2/src/core/netif.c:490:58
	ldr	r0, [r0]
	.loc	8 490 49                        @ rt-thread/components/net/lwip-2.0.2/src/core/netif.c:490:49
	str	r0, [sp, #4]
	.loc	8 490 3                         @ rt-thread/components/net/lwip-2.0.2/src/core/netif.c:490:3
	b	.LBB10_3
.Ltmp109:
.LBB10_10:
	.loc	8 0 3                           @ rt-thread/components/net/lwip-2.0.2/src/core/netif.c:0:3
	movs	r0, #0
	.loc	8 499 3 is_stmt 1               @ rt-thread/components/net/lwip-2.0.2/src/core/netif.c:499:3
	str	r0, [sp, #12]
	b	.LBB10_11
.LBB10_11:
	.loc	8 500 1                         @ rt-thread/components/net/lwip-2.0.2/src/core/netif.c:500:1
	ldr	r0, [sp, #12]
	add	sp, #16
	bx	lr
.Ltmp110:
.Lfunc_end10:
	.size	netif_find, .Lfunc_end10-netif_find
	.cfi_endproc
	.cantunwind
	.fnend
                                        @ -- End function
	.section	.text.netif_issue_reports,"ax",%progbits
	.p2align	3                               @ -- Begin function netif_issue_reports
	.type	netif_issue_reports,%function
	.code	16                              @ @netif_issue_reports
	.thumb_func
netif_issue_reports:
.Lfunc_begin11:
	.loc	8 670 0                         @ rt-thread/components/net/lwip-2.0.2/src/core/netif.c:670:0
	.fnstart
	.cfi_startproc
@ %bb.0:
	.save	{r7, lr}
	push	{r7, lr}
	.cfi_def_cfa_offset 8
	.cfi_offset lr, -4
	.cfi_offset r7, -8
	.pad	#8
	sub	sp, #8
	.cfi_def_cfa_offset 16
                                        @ kill: def $r2 killed $r1
	str	r0, [sp, #4]
	strb.w	r1, [sp, #3]
.Ltmp111:
	.loc	8 672 8 prologue_end            @ rt-thread/components/net/lwip-2.0.2/src/core/netif.c:672:8
	ldrb.w	r0, [sp, #3]
	.loc	8 672 46 is_stmt 0              @ rt-thread/components/net/lwip-2.0.2/src/core/netif.c:672:46
	lsls	r0, r0, #31
	cbz	r0, .LBB11_7
	b	.LBB11_1
.LBB11_1:
	.loc	8 673 8 is_stmt 1               @ rt-thread/components/net/lwip-2.0.2/src/core/netif.c:673:8
	ldr	r0, [sp, #4]
	ldr	r0, [r0, #4]
.Ltmp112:
	.loc	8 672 7                         @ rt-thread/components/net/lwip-2.0.2/src/core/netif.c:672:7
	cbz	r0, .LBB11_7
	b	.LBB11_2
.LBB11_2:
.Ltmp113:
	.loc	8 676 9                         @ rt-thread/components/net/lwip-2.0.2/src/core/netif.c:676:9
	ldr	r0, [sp, #4]
	ldrb.w	r0, [r0, #65]
.Ltmp114:
	.loc	8 676 9 is_stmt 0               @ rt-thread/components/net/lwip-2.0.2/src/core/netif.c:676:9
	lsls	r0, r0, #28
	cmp	r0, #0
	bpl	.LBB11_4
	b	.LBB11_3
.LBB11_3:
.Ltmp115:
	.loc	8 677 7 is_stmt 1               @ rt-thread/components/net/lwip-2.0.2/src/core/netif.c:677:7
	ldr	r0, [sp, #4]
	adds	r1, r0, #4
	bl	etharp_request
	.loc	8 678 5                         @ rt-thread/components/net/lwip-2.0.2/src/core/netif.c:678:5
	b	.LBB11_4
.Ltmp116:
.LBB11_4:
	.loc	8 683 9                         @ rt-thread/components/net/lwip-2.0.2/src/core/netif.c:683:9
	ldr	r0, [sp, #4]
	ldrb.w	r0, [r0, #65]
.Ltmp117:
	.loc	8 683 9 is_stmt 0               @ rt-thread/components/net/lwip-2.0.2/src/core/netif.c:683:9
	lsls	r0, r0, #26
	cmp	r0, #0
	bpl	.LBB11_6
	b	.LBB11_5
.LBB11_5:
.Ltmp118:
	.loc	8 684 26 is_stmt 1              @ rt-thread/components/net/lwip-2.0.2/src/core/netif.c:684:26
	ldr	r0, [sp, #4]
	.loc	8 684 7 is_stmt 0               @ rt-thread/components/net/lwip-2.0.2/src/core/netif.c:684:7
	bl	igmp_report_groups
	.loc	8 685 5 is_stmt 1               @ rt-thread/components/net/lwip-2.0.2/src/core/netif.c:685:5
	b	.LBB11_6
.Ltmp119:
.LBB11_6:
	.loc	8 687 3                         @ rt-thread/components/net/lwip-2.0.2/src/core/netif.c:687:3
	b	.LBB11_7
.Ltmp120:
.LBB11_7:
	.loc	8 702 1                         @ rt-thread/components/net/lwip-2.0.2/src/core/netif.c:702:1
	add	sp, #8
	pop	{r7, pc}
.Ltmp121:
.Lfunc_end11:
	.size	netif_issue_reports, .Lfunc_end11-netif_issue_reports
	.cfi_endproc
	.cantunwind
	.fnend
                                        @ -- End function
	.section	.text.netif_set_up,"ax",%progbits
	.hidden	netif_set_up                    @ -- Begin function netif_set_up
	.globl	netif_set_up
	.p2align	3
	.type	netif_set_up,%function
	.code	16                              @ @netif_set_up
	.thumb_func
netif_set_up:
.Lfunc_begin12:
	.loc	8 647 0                         @ rt-thread/components/net/lwip-2.0.2/src/core/netif.c:647:0
	.fnstart
	.cfi_startproc
@ %bb.0:
	.save	{r7, lr}
	push	{r7, lr}
	.cfi_def_cfa_offset 8
	.cfi_offset lr, -4
	.cfi_offset r7, -8
	.pad	#8
	sub	sp, #8
	.cfi_def_cfa_offset 16
	str	r0, [sp, #4]
.Ltmp122:
	.loc	8 648 9 prologue_end            @ rt-thread/components/net/lwip-2.0.2/src/core/netif.c:648:9
	ldr	r0, [sp, #4]
	ldrb.w	r0, [r0, #65]
.Ltmp123:
	.loc	8 648 7 is_stmt 0               @ rt-thread/components/net/lwip-2.0.2/src/core/netif.c:648:7
	lsls	r0, r0, #31
	cbnz	r0, .LBB12_8
	b	.LBB12_1
.LBB12_1:
.Ltmp124:
	.loc	8 649 5 is_stmt 1               @ rt-thread/components/net/lwip-2.0.2/src/core/netif.c:649:5
	ldr	r1, [sp, #4]
	.loc	8 649 18 is_stmt 0              @ rt-thread/components/net/lwip-2.0.2/src/core/netif.c:649:18
	ldrb.w	r0, [r1, #65]
	orr	r0, r0, #1
	strb.w	r0, [r1, #65]
	.loc	8 653 5 is_stmt 1               @ rt-thread/components/net/lwip-2.0.2/src/core/netif.c:653:5
	b	.LBB12_2
.LBB12_2:
.Ltmp125:
	.loc	8 653 5 is_stmt 0               @ rt-thread/components/net/lwip-2.0.2/src/core/netif.c:653:5
	ldr	r0, [sp, #4]
	ldr	r0, [r0, #28]
.Ltmp126:
	.loc	8 653 5                         @ rt-thread/components/net/lwip-2.0.2/src/core/netif.c:653:5
	cbz	r0, .LBB12_4
	b	.LBB12_3
.LBB12_3:
.Ltmp127:
	.loc	8 653 5                         @ rt-thread/components/net/lwip-2.0.2/src/core/netif.c:653:5
	ldr	r0, [sp, #4]
	ldr	r1, [r0, #28]
	blx	r1
	b	.LBB12_4
.Ltmp128:
.LBB12_4:
	.loc	8 653 5                         @ rt-thread/components/net/lwip-2.0.2/src/core/netif.c:653:5
	b	.LBB12_5
.Ltmp129:
.LBB12_5:
	.loc	8 655 9 is_stmt 1               @ rt-thread/components/net/lwip-2.0.2/src/core/netif.c:655:9
	ldr	r0, [sp, #4]
	ldrb.w	r0, [r0, #65]
.Ltmp130:
	.loc	8 655 9 is_stmt 0               @ rt-thread/components/net/lwip-2.0.2/src/core/netif.c:655:9
	lsls	r0, r0, #29
	cmp	r0, #0
	bpl	.LBB12_7
	b	.LBB12_6
.LBB12_6:
.Ltmp131:
	.loc	8 656 27 is_stmt 1              @ rt-thread/components/net/lwip-2.0.2/src/core/netif.c:656:27
	ldr	r0, [sp, #4]
	movs	r1, #3
	.loc	8 656 7 is_stmt 0               @ rt-thread/components/net/lwip-2.0.2/src/core/netif.c:656:7
	bl	netif_issue_reports
	.loc	8 657 5 is_stmt 1               @ rt-thread/components/net/lwip-2.0.2/src/core/netif.c:657:5
	b	.LBB12_7
.Ltmp132:
.LBB12_7:
	.loc	8 661 52                        @ rt-thread/components/net/lwip-2.0.2/src/core/netif.c:661:52
	ldr	r0, [sp, #4]
	.loc	8 661 59 is_stmt 0              @ rt-thread/components/net/lwip-2.0.2/src/core/netif.c:661:59
	adds	r0, #66
	.loc	8 661 33                        @ rt-thread/components/net/lwip-2.0.2/src/core/netif.c:661:33
	bl	netdev_get_by_name
	movs	r1, #1
	.loc	8 661 5                         @ rt-thread/components/net/lwip-2.0.2/src/core/netif.c:661:5
	bl	netdev_low_level_set_status
	.loc	8 663 3 is_stmt 1               @ rt-thread/components/net/lwip-2.0.2/src/core/netif.c:663:3
	b	.LBB12_8
.Ltmp133:
.LBB12_8:
	.loc	8 664 1                         @ rt-thread/components/net/lwip-2.0.2/src/core/netif.c:664:1
	add	sp, #8
	pop	{r7, pc}
.Ltmp134:
.Lfunc_end12:
	.size	netif_set_up, .Lfunc_end12-netif_set_up
	.cfi_endproc
	.cantunwind
	.fnend
                                        @ -- End function
	.section	.text.netif_set_status_callback,"ax",%progbits
	.hidden	netif_set_status_callback       @ -- Begin function netif_set_status_callback
	.globl	netif_set_status_callback
	.p2align	3
	.type	netif_set_status_callback,%function
	.code	16                              @ @netif_set_status_callback
	.thumb_func
netif_set_status_callback:
.Lfunc_begin13:
	.loc	8 741 0                         @ rt-thread/components/net/lwip-2.0.2/src/core/netif.c:741:0
	.fnstart
	.cfi_startproc
@ %bb.0:
	.pad	#8
	sub	sp, #8
	.cfi_def_cfa_offset 8
	str	r0, [sp, #4]
	str	r1, [sp]
.Ltmp135:
	.loc	8 742 7 prologue_end            @ rt-thread/components/net/lwip-2.0.2/src/core/netif.c:742:7
	ldr	r0, [sp, #4]
.Ltmp136:
	.loc	8 742 7 is_stmt 0               @ rt-thread/components/net/lwip-2.0.2/src/core/netif.c:742:7
	cbz	r0, .LBB13_2
	b	.LBB13_1
.LBB13_1:
.Ltmp137:
	.loc	8 743 30 is_stmt 1              @ rt-thread/components/net/lwip-2.0.2/src/core/netif.c:743:30
	ldr	r0, [sp]
	.loc	8 743 5 is_stmt 0               @ rt-thread/components/net/lwip-2.0.2/src/core/netif.c:743:5
	ldr	r1, [sp, #4]
	.loc	8 743 28                        @ rt-thread/components/net/lwip-2.0.2/src/core/netif.c:743:28
	str	r0, [r1, #28]
	.loc	8 744 3 is_stmt 1               @ rt-thread/components/net/lwip-2.0.2/src/core/netif.c:744:3
	b	.LBB13_2
.Ltmp138:
.LBB13_2:
	.loc	8 745 1                         @ rt-thread/components/net/lwip-2.0.2/src/core/netif.c:745:1
	add	sp, #8
	bx	lr
.Ltmp139:
.Lfunc_end13:
	.size	netif_set_status_callback, .Lfunc_end13-netif_set_status_callback
	.cfi_endproc
	.cantunwind
	.fnend
                                        @ -- End function
	.section	.text.netif_set_link_up,"ax",%progbits
	.hidden	netif_set_link_up               @ -- Begin function netif_set_link_up
	.globl	netif_set_link_up
	.p2align	3
	.type	netif_set_link_up,%function
	.code	16                              @ @netif_set_link_up
	.thumb_func
netif_set_link_up:
.Lfunc_begin14:
	.loc	8 768 0                         @ rt-thread/components/net/lwip-2.0.2/src/core/netif.c:768:0
	.fnstart
	.cfi_startproc
@ %bb.0:
	.save	{r7, lr}
	push	{r7, lr}
	.cfi_def_cfa_offset 8
	.cfi_offset lr, -4
	.cfi_offset r7, -8
	.pad	#8
	sub	sp, #8
	.cfi_def_cfa_offset 16
	str	r0, [sp, #4]
.Ltmp140:
	.loc	8 769 9 prologue_end            @ rt-thread/components/net/lwip-2.0.2/src/core/netif.c:769:9
	ldr	r0, [sp, #4]
	ldrb.w	r0, [r0, #65]
.Ltmp141:
	.loc	8 769 7 is_stmt 0               @ rt-thread/components/net/lwip-2.0.2/src/core/netif.c:769:7
	lsls	r0, r0, #29
	cmp	r0, #0
	bmi	.LBB14_8
	b	.LBB14_1
.LBB14_1:
.Ltmp142:
	.loc	8 770 5 is_stmt 1               @ rt-thread/components/net/lwip-2.0.2/src/core/netif.c:770:5
	ldr	r1, [sp, #4]
	.loc	8 770 18 is_stmt 0              @ rt-thread/components/net/lwip-2.0.2/src/core/netif.c:770:18
	ldrb.w	r0, [r1, #65]
	orr	r0, r0, #4
	strb.w	r0, [r1, #65]
	.loc	8 773 26 is_stmt 1              @ rt-thread/components/net/lwip-2.0.2/src/core/netif.c:773:26
	ldr	r0, [sp, #4]
	.loc	8 773 5 is_stmt 0               @ rt-thread/components/net/lwip-2.0.2/src/core/netif.c:773:5
	bl	dhcp_network_changed
.Ltmp143:
	.loc	8 780 9 is_stmt 1               @ rt-thread/components/net/lwip-2.0.2/src/core/netif.c:780:9
	ldr	r0, [sp, #4]
	ldrb.w	r0, [r0, #65]
.Ltmp144:
	.loc	8 780 9 is_stmt 0               @ rt-thread/components/net/lwip-2.0.2/src/core/netif.c:780:9
	lsls	r0, r0, #31
	cbz	r0, .LBB14_3
	b	.LBB14_2
.LBB14_2:
.Ltmp145:
	.loc	8 781 27 is_stmt 1              @ rt-thread/components/net/lwip-2.0.2/src/core/netif.c:781:27
	ldr	r0, [sp, #4]
	movs	r1, #3
	.loc	8 781 7 is_stmt 0               @ rt-thread/components/net/lwip-2.0.2/src/core/netif.c:781:7
	bl	netif_issue_reports
	.loc	8 782 5 is_stmt 1               @ rt-thread/components/net/lwip-2.0.2/src/core/netif.c:782:5
	b	.LBB14_3
.Ltmp146:
.LBB14_3:
	.loc	8 783 5                         @ rt-thread/components/net/lwip-2.0.2/src/core/netif.c:783:5
	b	.LBB14_4
.LBB14_4:
.Ltmp147:
	.loc	8 783 5 is_stmt 0               @ rt-thread/components/net/lwip-2.0.2/src/core/netif.c:783:5
	ldr	r0, [sp, #4]
	ldr	r0, [r0, #32]
.Ltmp148:
	.loc	8 783 5                         @ rt-thread/components/net/lwip-2.0.2/src/core/netif.c:783:5
	cbz	r0, .LBB14_6
	b	.LBB14_5
.LBB14_5:
.Ltmp149:
	.loc	8 783 5                         @ rt-thread/components/net/lwip-2.0.2/src/core/netif.c:783:5
	ldr	r0, [sp, #4]
	ldr	r1, [r0, #32]
	blx	r1
	b	.LBB14_6
.Ltmp150:
.LBB14_6:
	.loc	8 783 5                         @ rt-thread/components/net/lwip-2.0.2/src/core/netif.c:783:5
	b	.LBB14_7
.Ltmp151:
.LBB14_7:
	.loc	8 787 57 is_stmt 1              @ rt-thread/components/net/lwip-2.0.2/src/core/netif.c:787:57
	ldr	r0, [sp, #4]
	.loc	8 787 64 is_stmt 0              @ rt-thread/components/net/lwip-2.0.2/src/core/netif.c:787:64
	adds	r0, #66
	.loc	8 787 38                        @ rt-thread/components/net/lwip-2.0.2/src/core/netif.c:787:38
	bl	netdev_get_by_name
	movs	r1, #1
	.loc	8 787 5                         @ rt-thread/components/net/lwip-2.0.2/src/core/netif.c:787:5
	bl	netdev_low_level_set_link_status
	.loc	8 789 3 is_stmt 1               @ rt-thread/components/net/lwip-2.0.2/src/core/netif.c:789:3
	b	.LBB14_8
.Ltmp152:
.LBB14_8:
	.loc	8 790 1                         @ rt-thread/components/net/lwip-2.0.2/src/core/netif.c:790:1
	add	sp, #8
	pop	{r7, pc}
.Ltmp153:
.Lfunc_end14:
	.size	netif_set_link_up, .Lfunc_end14-netif_set_link_up
	.cfi_endproc
	.cantunwind
	.fnend
                                        @ -- End function
	.section	.text.netif_set_link_down,"ax",%progbits
	.hidden	netif_set_link_down             @ -- Begin function netif_set_link_down
	.globl	netif_set_link_down
	.p2align	3
	.type	netif_set_link_down,%function
	.code	16                              @ @netif_set_link_down
	.thumb_func
netif_set_link_down:
.Lfunc_begin15:
	.loc	8 798 0                         @ rt-thread/components/net/lwip-2.0.2/src/core/netif.c:798:0
	.fnstart
	.cfi_startproc
@ %bb.0:
	.save	{r7, lr}
	push	{r7, lr}
	.cfi_def_cfa_offset 8
	.cfi_offset lr, -4
	.cfi_offset r7, -8
	.pad	#8
	sub	sp, #8
	.cfi_def_cfa_offset 16
	str	r0, [sp, #4]
.Ltmp154:
	.loc	8 799 7 prologue_end            @ rt-thread/components/net/lwip-2.0.2/src/core/netif.c:799:7
	ldr	r0, [sp, #4]
	ldrb.w	r0, [r0, #65]
.Ltmp155:
	.loc	8 799 7 is_stmt 0               @ rt-thread/components/net/lwip-2.0.2/src/core/netif.c:799:7
	lsls	r0, r0, #29
	cmp	r0, #0
	bpl	.LBB15_6
	b	.LBB15_1
.LBB15_1:
.Ltmp156:
	.loc	8 800 5 is_stmt 1               @ rt-thread/components/net/lwip-2.0.2/src/core/netif.c:800:5
	ldr	r1, [sp, #4]
	.loc	8 800 18 is_stmt 0              @ rt-thread/components/net/lwip-2.0.2/src/core/netif.c:800:18
	ldrb.w	r0, [r1, #65]
	and	r0, r0, #251
	strb.w	r0, [r1, #65]
	.loc	8 801 5 is_stmt 1               @ rt-thread/components/net/lwip-2.0.2/src/core/netif.c:801:5
	b	.LBB15_2
.LBB15_2:
.Ltmp157:
	.loc	8 801 5 is_stmt 0               @ rt-thread/components/net/lwip-2.0.2/src/core/netif.c:801:5
	ldr	r0, [sp, #4]
	ldr	r0, [r0, #32]
.Ltmp158:
	.loc	8 801 5                         @ rt-thread/components/net/lwip-2.0.2/src/core/netif.c:801:5
	cbz	r0, .LBB15_4
	b	.LBB15_3
.LBB15_3:
.Ltmp159:
	.loc	8 801 5                         @ rt-thread/components/net/lwip-2.0.2/src/core/netif.c:801:5
	ldr	r0, [sp, #4]
	ldr	r1, [r0, #32]
	blx	r1
	b	.LBB15_4
.Ltmp160:
.LBB15_4:
	.loc	8 801 5                         @ rt-thread/components/net/lwip-2.0.2/src/core/netif.c:801:5
	b	.LBB15_5
.Ltmp161:
.LBB15_5:
	.loc	8 805 57 is_stmt 1              @ rt-thread/components/net/lwip-2.0.2/src/core/netif.c:805:57
	ldr	r0, [sp, #4]
	.loc	8 805 64 is_stmt 0              @ rt-thread/components/net/lwip-2.0.2/src/core/netif.c:805:64
	adds	r0, #66
	.loc	8 805 38                        @ rt-thread/components/net/lwip-2.0.2/src/core/netif.c:805:38
	bl	netdev_get_by_name
	movs	r1, #0
	.loc	8 805 5                         @ rt-thread/components/net/lwip-2.0.2/src/core/netif.c:805:5
	bl	netdev_low_level_set_link_status
	.loc	8 807 3 is_stmt 1               @ rt-thread/components/net/lwip-2.0.2/src/core/netif.c:807:3
	b	.LBB15_6
.Ltmp162:
.LBB15_6:
	.loc	8 808 1                         @ rt-thread/components/net/lwip-2.0.2/src/core/netif.c:808:1
	add	sp, #8
	pop	{r7, pc}
.Ltmp163:
.Lfunc_end15:
	.size	netif_set_link_down, .Lfunc_end15-netif_set_link_down
	.cfi_endproc
	.cantunwind
	.fnend
                                        @ -- End function
	.section	.text.netif_set_link_callback,"ax",%progbits
	.hidden	netif_set_link_callback         @ -- Begin function netif_set_link_callback
	.globl	netif_set_link_callback
	.p2align	3
	.type	netif_set_link_callback,%function
	.code	16                              @ @netif_set_link_callback
	.thumb_func
netif_set_link_callback:
.Lfunc_begin16:
	.loc	8 817 0                         @ rt-thread/components/net/lwip-2.0.2/src/core/netif.c:817:0
	.fnstart
	.cfi_startproc
@ %bb.0:
	.pad	#8
	sub	sp, #8
	.cfi_def_cfa_offset 8
	str	r0, [sp, #4]
	str	r1, [sp]
.Ltmp164:
	.loc	8 818 7 prologue_end            @ rt-thread/components/net/lwip-2.0.2/src/core/netif.c:818:7
	ldr	r0, [sp, #4]
.Ltmp165:
	.loc	8 818 7 is_stmt 0               @ rt-thread/components/net/lwip-2.0.2/src/core/netif.c:818:7
	cbz	r0, .LBB16_2
	b	.LBB16_1
.LBB16_1:
.Ltmp166:
	.loc	8 819 28 is_stmt 1              @ rt-thread/components/net/lwip-2.0.2/src/core/netif.c:819:28
	ldr	r0, [sp]
	.loc	8 819 5 is_stmt 0               @ rt-thread/components/net/lwip-2.0.2/src/core/netif.c:819:5
	ldr	r1, [sp, #4]
	.loc	8 819 26                        @ rt-thread/components/net/lwip-2.0.2/src/core/netif.c:819:26
	str	r0, [r1, #32]
	.loc	8 820 3 is_stmt 1               @ rt-thread/components/net/lwip-2.0.2/src/core/netif.c:820:3
	b	.LBB16_2
.Ltmp167:
.LBB16_2:
	.loc	8 821 1                         @ rt-thread/components/net/lwip-2.0.2/src/core/netif.c:821:1
	add	sp, #8
	bx	lr
.Ltmp168:
.Lfunc_end16:
	.size	netif_set_link_callback, .Lfunc_end16-netif_set_link_callback
	.cfi_endproc
	.cantunwind
	.fnend
                                        @ -- End function
	.type	.L.str,%object                  @ @.str
	.section	.rodata.str1.1,"aMS",%progbits,1
.L.str:
	.asciz	"No init function given"
	.size	.L.str, 23

	.type	.L.str.1,%object                @ @.str.1
.L.str.1:
	.asciz	"rt-thread/components/net/lwip-2.0.2/src/core/netif.c"
	.size	.L.str.1, 53

	.type	netif_num,%object               @ @netif_num
	.section	.bss.netif_num,"aw",%nobits
netif_num:
	.byte	0                               @ 0x0
	.size	netif_num, 1

	.hidden	netif_list                      @ @netif_list
	.type	netif_list,%object
	.section	.bss.netif_list,"aw",%nobits
	.globl	netif_list
	.p2align	2
netif_list:
	.long	0
	.size	netif_list, 4

	.hidden	netif_default                   @ @netif_default
	.type	netif_default,%object
	.section	.bss.netif_default,"aw",%nobits
	.globl	netif_default
	.p2align	2
netif_default:
	.long	0
	.size	netif_default, 4

	.section	".note.GNU-stack","",%progbits
	.eabi_attribute	30, 6	@ Tag_ABI_optimization_goals
	.ARM_attribute	16, 1	@ Tag_AV_eba