	.text
	.syntax unified
	.eabi_attribute	67, "2.09"	@ Tag_conformance
	.cpu	cortex-m7
	.eabi_attribute	6, 13	@ Tag_CPU_arch
	.eabi_attribute	7, 77	@ Tag_CPU_arch_profile
	.eabi_attribute	8, 0	@ Tag_ARM_ISA_use
	.eabi_attribute	9, 2	@ Tag_THUMB_ISA_use
	.fpu	fpv5-d16
	.eabi_attribute	36, 1	@ Tag_FP_HP_extension
	.eabi_attribute	34, 1	@ Tag_CPU_unaligned_access
	.eabi_attribute	17, 1	@ Tag_ABI_PCS_GOT_use
	.eabi_attribute	20, 2	@ Tag_ABI_FP_denormal
	.eabi_attribute	21, 0	@ Tag_ABI_FP_exceptions
	.eabi_attribute	23, 1	@ Tag_ABI_FP_number_model
	.eabi_attribute	24, 1	@ Tag_ABI_align_needed
	.eabi_attribute	25, 1	@ Tag_ABI_align_preserved
	.eabi_attribute	28, 1	@ Tag_ABI_VFP_args
	.eabi_attribute	38, 1	@ Tag_ABI_FP_16bit_format
	.eabi_attribute	18, 2	@ Tag_ABI_PCS_wchar_t
	.eabi_attribute	26, 1	@ Tag_ABI_enum_size
	.eabi_attribute	14, 0	@ Tag_ABI_PCS_R9_use
	.file	"netifapi.c"
	.file	1 "E:\\Smart-access-control\\Hardware\\CODE" "./rt-thread/components/net/lwip-2.0.2/src/include\\lwip/netif.h"
	.file	2 "E:\\Smart-access-control\\Hardware\\CODE" "./rt-thread/components/net/lwip-2.0.2/src/include\\lwip/err.h"
	.file	3 "D:\\Keil_v5\\ARM\\ARMCLANG\\Bin\\..\\include" "stdint.h"
	.file	4 "E:\\Smart-access-control\\Hardware\\CODE" "./rt-thread/components/net/lwip-2.0.2/src/include\\lwip/arch.h"
	.file	5 "E:\\Smart-access-control\\Hardware\\CODE" "./rt-thread/components/net/lwip-2.0.2/src/include\\lwip/priv/tcpip_priv.h"
	.file	6 "E:\\Smart-access-control\\Hardware\\CODE" "./rt-thread/components/net/lwip-2.0.2/src/include\\lwip/netifapi.h"
	.file	7 "E:\\Smart-access-control\\Hardware\\CODE" "./rt-thread/components/net/lwip-2.0.2/src/include\\lwip/ip4_addr.h"
	.file	8 "E:\\Smart-access-control\\Hardware\\CODE" "./rt-thread/components/net/lwip-2.0.2/src/include\\lwip/ip_addr.h"
	.file	9 "E:\\Smart-access-control\\Hardware\\CODE" "./rt-thread/components/net/lwip-2.0.2/src/include\\lwip/pbuf.h"
	.section	.text.netifapi_netif_add,"ax",%progbits
	.hidden	netifapi_netif_add              @ -- Begin function netifapi_netif_add
	.globl	netifapi_netif_add
	.p2align	3
	.type	netifapi_netif_add,%function
	.code	16                              @ @netifapi_netif_add
	.thumb_func
netifapi_netif_add:
.Lfunc_begin0:
	.file	10 "E:\\Smart-access-control\\Hardware\\CODE" "rt-thread/components/net/lwip-2.0.2/src/api/netifapi.c"
	.loc	10 130 0                        @ rt-thread/components/net/lwip-2.0.2/src/api/netifapi.c:130:0
	.fnstart
	.cfi_sections .debug_frame
	.cfi_startproc
@ %bb.0:
	@DEBUG_VALUE: netifapi_netif_add:netif <- $r0
	@DEBUG_VALUE: netifapi_netif_add:netif <- $r0
	@DEBUG_VALUE: netifapi_netif_add:ipaddr <- $r1
	@DEBUG_VALUE: netifapi_netif_add:ipaddr <- $r1
	@DEBUG_VALUE: netifapi_netif_add:netmask <- $r2
	@DEBUG_VALUE: netifapi_netif_add:netmask <- $r2
	@DEBUG_VALUE: netifapi_netif_add:gw <- $r3
	@DEBUG_VALUE: netifapi_netif_add:gw <- $r3
	.save	{r7, lr}
	push	{r7, lr}
	.cfi_def_cfa_offset 8
	.cfi_offset lr, -4
	.cfi_offset r7, -8
	.pad	#32
	sub	sp, #32
	.cfi_def_cfa_offset 40
.Ltmp0:
	@DEBUG_VALUE: netifapi_netif_add:state <- [DW_OP_plus_uconst 40] [$sp+0]
	@DEBUG_VALUE: netifapi_netif_add:init <- [DW_OP_plus_uconst 44] [$sp+0]
	@DEBUG_VALUE: netifapi_netif_add:input <- [DW_OP_plus_uconst 48] [$sp+0]
	.loc	10 136 7 prologue_end           @ rt-thread/components/net/lwip-2.0.2/src/api/netifapi.c:136:7
	movw	r12, :lower16:ip_addr_any
	cmp	r1, #0
	movt	r12, :upper16:ip_addr_any
	it	eq
	moveq	r1, r12
.Ltmp1:
	@DEBUG_VALUE: netifapi_netif_add:ipaddr <- [DW_OP_LLVM_entry_value 1] $r1
	@DEBUG_VALUE: netifapi_netif_add:ipaddr <- $r1
	.loc	10 139 7                        @ rt-thread/components/net/lwip-2.0.2/src/api/netifapi.c:139:7
	cmp	r2, #0
	it	eq
	moveq	r2, r12
.Ltmp2:
	@DEBUG_VALUE: netifapi_netif_add:netmask <- [DW_OP_LLVM_entry_value 1] $r2
	@DEBUG_VALUE: netifapi_netif_add:netmask <- $r2
	.loc	10 147 31                       @ rt-thread/components/net/lwip-2.0.2/src/api/netifapi.c:147:31
	str	r0, [sp, #4]
	.loc	10 142 7                        @ rt-thread/components/net/lwip-2.0.2/src/api/netifapi.c:142:7
	cmp	r3, #0
	.loc	10 149 41                       @ rt-thread/components/net/lwip-2.0.2/src/api/netifapi.c:149:41
	str	r1, [sp, #8]
	ldr	r0, [sp, #40]
.Ltmp3:
	@DEBUG_VALUE: netifapi_netif_add:netif <- [DW_OP_LLVM_entry_value 1] $r0
	.loc	10 142 7                        @ rt-thread/components/net/lwip-2.0.2/src/api/netifapi.c:142:7
	it	eq
	moveq	r3, r12
.Ltmp4:
	@DEBUG_VALUE: netifapi_netif_add:gw <- [DW_OP_LLVM_entry_value 1] $r3
	@DEBUG_VALUE: netifapi_netif_add:gw <- $r3
	.loc	10 153 41                       @ rt-thread/components/net/lwip-2.0.2/src/api/netifapi.c:153:41
	str	r0, [sp, #20]
	ldr	r0, [sp, #44]
	.loc	10 154 41                       @ rt-thread/components/net/lwip-2.0.2/src/api/netifapi.c:154:41
	str	r0, [sp, #24]
	ldr	r0, [sp, #48]
	.loc	10 155 41                       @ rt-thread/components/net/lwip-2.0.2/src/api/netifapi.c:155:41
	str	r0, [sp, #28]
	.loc	10 156 9                        @ rt-thread/components/net/lwip-2.0.2/src/api/netifapi.c:156:9
	movw	r0, :lower16:netifapi_do_netif_add
	movt	r0, :upper16:netifapi_do_netif_add
	mov	r1, sp
.Ltmp5:
	@DEBUG_VALUE: netifapi_netif_add:ipaddr <- [DW_OP_LLVM_entry_value 1] $r1
	.loc	10 150 41                       @ rt-thread/components/net/lwip-2.0.2/src/api/netifapi.c:150:41
	strd	r2, r3, [sp, #12]
	.loc	10 156 9                        @ rt-thread/components/net/lwip-2.0.2/src/api/netifapi.c:156:9
	bl	tcpip_api_call
.Ltmp6:
	@DEBUG_VALUE: netifapi_netif_add:gw <- [DW_OP_LLVM_entry_value 1] $r3
	@DEBUG_VALUE: netifapi_netif_add:netmask <- [DW_OP_LLVM_entry_value 1] $r2
	@DEBUG_VALUE: netifapi_netif_add:err <- undef
	.loc	10 158 3                        @ rt-thread/components/net/lwip-2.0.2/src/api/netifapi.c:158:3
	add	sp, #32
	pop	{r7, pc}
.Ltmp7:
.Lfunc_end0:
	.size	netifapi_netif_add, .Lfunc_end0-netifapi_netif_add
	.cfi_endproc
	.cantunwind
	.fnend
                                        @ -- End function
	.section	.text.netifapi_do_netif_add,"ax",%progbits
	.p2align	3                               @ -- Begin function netifapi_do_netif_add
	.type	netifapi_do_netif_add,%function
	.code	16                              @ @netifapi_do_netif_add
	.thumb_func
netifapi_do_netif_add:
.Lfunc_begin1:
	.loc	10 59 0                         @ rt-thread/components/net/lwip-2.0.2/src/api/netifapi.c:59:0
	.fnstart
	.cfi_startproc
@ %bb.0:
	@DEBUG_VALUE: netifapi_do_netif_add:m <- $r0
	@DEBUG_VALUE: netifapi_do_netif_add:m <- $r0
	.save	{r4, lr}
	push	{r4, lr}
	.cfi_def_cfa_offset 8
	.cfi_offset lr, -4
	.cfi_offset r4, -8
	.pad	#16
	sub	sp, #16
	.cfi_def_cfa_offset 24
.Ltmp8:
	@DEBUG_VALUE: netifapi_do_netif_add:msg <- $r0
	@DEBUG_VALUE: netifapi_do_netif_add:msg <- $r0
	.loc	10 67 19 prologue_end           @ rt-thread/components/net/lwip-2.0.2/src/api/netifapi.c:67:19
	add.w	lr, r0, #12
	.loc	10 64 24                        @ rt-thread/components/net/lwip-2.0.2/src/api/netifapi.c:64:24
	ldrd	r12, r1, [r0, #4]
	.loc	10 67 19                        @ rt-thread/components/net/lwip-2.0.2/src/api/netifapi.c:67:19
	ldm.w	lr, {r2, r3, lr}
	.loc	10 71 32                        @ rt-thread/components/net/lwip-2.0.2/src/api/netifapi.c:71:32
	ldrd	r4, r0, [r0, #24]
.Ltmp9:
	@DEBUG_VALUE: netifapi_do_netif_add:m <- [DW_OP_LLVM_entry_value 1] $r0
	.loc	10 64 8                         @ rt-thread/components/net/lwip-2.0.2/src/api/netifapi.c:64:8
	str	r0, [sp, #8]
	mov	r0, r12
	strd	lr, r4, [sp]
	bl	netif_add
	movs	r1, #0
.Ltmp10:
	.loc	10 77 1                         @ rt-thread/components/net/lwip-2.0.2/src/api/netifapi.c:77:1
	cmp	r0, #0
	it	eq
	mvneq	r1, #11
	mov	r0, r1
	add	sp, #16
	pop	{r4, pc}
.Ltmp11:
.Lfunc_end1:
	.size	netifapi_do_netif_add, .Lfunc_end1-netifapi_do_netif_add
	.cfi_endproc
	.cantunwind
	.fnend
                                        @ -- End function
	.section	.text.netifapi_netif_set_addr,"ax",%progbits
	.hidden	netifapi_netif_set_addr         @ -- Begin function netifapi_netif_set_addr
	.globl	netifapi_netif_set_addr
	.p2align	3
	.type	netifapi_netif_set_addr,%function
	.code	16                              @ @netifapi_netif_set_addr
	.thumb_func
netifapi_netif_set_addr:
.Lfunc_begin2:
	.loc	10 174 0                        @ rt-thread/components/net/lwip-2.0.2/src/api/netifapi.c:174:0
	.fnstart
	.cfi_startproc
@ %bb.0:
	@DEBUG_VALUE: netifapi_netif_set_addr:netif <- $r0
	@DEBUG_VALUE: netifapi_netif_set_addr:netif <- $r0
	@DEBUG_VALUE: netifapi_netif_set_addr:ipaddr <- $r1
	@DEBUG_VALUE: netifapi_netif_set_addr:ipaddr <- $r1
	@DEBUG_VALUE: netifapi_netif_set_addr:netmask <- $r2
	@DEBUG_VALUE: netifapi_netif_set_addr:netmask <- $r2
	@DEBUG_VALUE: netifapi_netif_set_addr:gw <- $r3
	@DEBUG_VALUE: netifapi_netif_set_addr:gw <- $r3
	.save	{r7, lr}
	push	{r7, lr}
	.cfi_def_cfa_offset 8
	.cfi_offset lr, -4
	.cfi_offset r7, -8
	.pad	#32
	sub	sp, #32
	.cfi_def_cfa_offset 40
.Ltmp12:
	.loc	10 179 7 prologue_end           @ rt-thread/components/net/lwip-2.0.2/src/api/netifapi.c:179:7
	movw	r12, :lower16:ip_addr_any
	cmp	r1, #0
	movt	r12, :upper16:ip_addr_any
	it	eq
	moveq	r1, r12
.Ltmp13:
	@DEBUG_VALUE: netifapi_netif_set_addr:ipaddr <- [DW_OP_LLVM_entry_value 1] $r1
	@DEBUG_VALUE: netifapi_netif_set_addr:ipaddr <- $r1
	.loc	10 182 7                        @ rt-thread/components/net/lwip-2.0.2/src/api/netifapi.c:182:7
	cmp	r2, #0
	it	eq
	moveq	r2, r12
.Ltmp14:
	@DEBUG_VALUE: netifapi_netif_set_addr:netmask <- [DW_OP_LLVM_entry_value 1] $r2
	@DEBUG_VALUE: netifapi_netif_set_addr:netmask <- $r2
	.loc	10 189 31                       @ rt-thread/components/net/lwip-2.0.2/src/api/netifapi.c:189:31
	str	r0, [sp, #4]
	.loc	10 185 7                        @ rt-thread/components/net/lwip-2.0.2/src/api/netifapi.c:185:7
	cmp	r3, #0
	.loc	10 190 41                       @ rt-thread/components/net/lwip-2.0.2/src/api/netifapi.c:190:41
	str	r1, [sp, #8]
	.loc	10 193 9                        @ rt-thread/components/net/lwip-2.0.2/src/api/netifapi.c:193:9
	movw	r0, :lower16:netifapi_do_netif_set_addr
.Ltmp15:
	@DEBUG_VALUE: netifapi_netif_set_addr:netif <- [DW_OP_LLVM_entry_value 1] $r0
	.loc	10 185 7                        @ rt-thread/components/net/lwip-2.0.2/src/api/netifapi.c:185:7
	it	eq
	moveq	r3, r12
.Ltmp16:
	@DEBUG_VALUE: netifapi_netif_set_addr:gw <- [DW_OP_LLVM_entry_value 1] $r3
	@DEBUG_VALUE: netifapi_netif_set_addr:gw <- $r3
	.loc	10 193 9                        @ rt-thread/components/net/lwip-2.0.2/src/api/netifapi.c:193:9
	movt	r0, :upper16:netifapi_do_netif_set_addr
	mov	r1, sp
.Ltmp17:
	@DEBUG_VALUE: netifapi_netif_set_addr:ipaddr <- [DW_OP_LLVM_entry_value 1] $r1
	.loc	10 191 41                       @ rt-thread/components/net/lwip-2.0.2/src/api/netifapi.c:191:41
	strd	r2, r3, [sp, #12]
	.loc	10 193 9                        @ rt-thread/components/net/lwip-2.0.2/src/api/netifapi.c:193:9
	bl	tcpip_api_call
.Ltmp18:
	@DEBUG_VALUE: netifapi_netif_set_addr:gw <- [DW_OP_LLVM_entry_value 1] $r3
	@DEBUG_VALUE: netifapi_netif_set_addr:netmask <- [DW_OP_LLVM_entry_value 1] $r2
	@DEBUG_VALUE: netifapi_netif_set_addr:err <- undef
	.loc	10 195 3                        @ rt-thread/components/net/lwip-2.0.2/src/api/netifapi.c:195:3
	add	sp, #32
	pop	{r7, pc}
.Ltmp19:
.Lfunc_end2:
	.size	netifapi_netif_set_addr, .Lfunc_end2-netifapi_netif_set_addr
	.cfi_endproc
	.cantunwind
	.fnend
                                        @ -- End function
	.section	.text.netifapi_do_netif_set_addr,"ax",%progbits
	.p2align	3                               @ -- Begin function netifapi_do_netif_set_addr
	.type	netifapi_do_netif_set_addr,%function
	.code	16                              @ @netifapi_do_netif_set_addr
	.thumb_func
netifapi_do_netif_set_addr:
.Lfunc_begin3:
	.loc	10 85 0                         @ rt-thread/components/net/lwip-2.0.2/src/api/netifapi.c:85:0
	.fnstart
	.cfi_startproc
@ %bb.0:
	@DEBUG_VALUE: netifapi_do_netif_set_addr:m <- $r0
	@DEBUG_VALUE: netifapi_do_netif_set_addr:m <- $r0
	.save	{r7, lr}
	push	{r7, lr}
	.cfi_def_cfa_offset 8
	.cfi_offset lr, -4
	.cfi_offset r7, -8
.Ltmp20:
	@DEBUG_VALUE: netifapi_do_netif_set_addr:msg <- $r0
	@DEBUG_VALUE: netifapi_do_netif_set_addr:msg <- $r0
	.loc	10 90 24 prologue_end           @ rt-thread/components/net/lwip-2.0.2/src/api/netifapi.c:90:24
	ldrd	r12, r1, [r0, #4]
	.loc	10 92 19                        @ rt-thread/components/net/lwip-2.0.2/src/api/netifapi.c:92:19
	ldrd	r2, r3, [r0, #12]
	.loc	10 90 3                         @ rt-thread/components/net/lwip-2.0.2/src/api/netifapi.c:90:3
	mov	r0, r12
.Ltmp21:
	@DEBUG_VALUE: netifapi_do_netif_set_addr:m <- [DW_OP_LLVM_entry_value 1] $r0
	bl	netif_set_addr
	.loc	10 94 3                         @ rt-thread/components/net/lwip-2.0.2/src/api/netifapi.c:94:3
	movs	r0, #0
	pop	{r7, pc}
.Ltmp22:
.Lfunc_end3:
	.size	netifapi_do_netif_set_addr, .Lfunc_end3-netifapi_do_netif_set_addr
	.cfi_endproc
	.cantunwind
	.fnend
                                        @ -- End function
	.section	.text.netifapi_netif_common,"ax",%progbits
	.hidden	netifapi_netif_common           @ -- Begin function netifapi_netif_common
	.globl	netifapi_netif_common
	.p2align	3
	.type	netifapi_netif_common,%function
	.code	16                              @ @netifapi_netif_common
	.thumb_func
netifapi_netif_common:
.Lfunc_begin4:
	.loc	10 208 0                        @ rt-thread/components/net/lwip-2.0.2/src/api/netifapi.c:208:0
	.fnstart
	.cfi_startproc
@ %bb.0:
	@DEBUG_VALUE: netifapi_netif_common:netif <- $r0
	@DEBUG_VALUE: netifapi_netif_common:netif <- $r0
	@DEBUG_VALUE: netifapi_netif_common:voidfunc <- $r1
	@DEBUG_VALUE: netifapi_netif_common:errtfunc <- $r2
	.save	{r7, lr}
	push	{r7, lr}
	.cfi_def_cfa_offset 8
	.cfi_offset lr, -4
	.cfi_offset r7, -8
	.pad	#32
	sub	sp, #32
	.cfi_def_cfa_offset 40
	@DEBUG_VALUE: netifapi_netif_common:voidfunc <- $r1
	@DEBUG_VALUE: netifapi_netif_common:errtfunc <- $r2
.Ltmp23:
	.loc	10 213 31 prologue_end          @ rt-thread/components/net/lwip-2.0.2/src/api/netifapi.c:213:31
	add	r3, sp, #4
	stm	r3!, {r0, r1, r2}
	.loc	10 216 9                        @ rt-thread/components/net/lwip-2.0.2/src/api/netifapi.c:216:9
	movw	r0, :lower16:netifapi_do_netif_common
.Ltmp24:
	@DEBUG_VALUE: netifapi_netif_common:netif <- [DW_OP_LLVM_entry_value 1] $r0
	.loc	10 0 9 is_stmt 0                @ rt-thread/components/net/lwip-2.0.2/src/api/netifapi.c:0:9
	mov	r1, sp
.Ltmp25:
	@DEBUG_VALUE: netifapi_netif_common:voidfunc <- [DW_OP_LLVM_entry_value 1] $r1
	.loc	10 216 9                        @ rt-thread/components/net/lwip-2.0.2/src/api/netifapi.c:216:9
	movt	r0, :upper16:netifapi_do_netif_common
	bl	tcpip_api_call
.Ltmp26:
	@DEBUG_VALUE: netifapi_netif_common:errtfunc <- [DW_OP_LLVM_entry_value 1] $r2
	@DEBUG_VALUE: netifapi_netif_common:err <- undef
	.loc	10 218 3 is_stmt 1              @ rt-thread/components/net/lwip-2.0.2/src/api/netifapi.c:218:3
	add	sp, #32
	pop	{r7, pc}
.Ltmp27:
.Lfunc_end4:
	.size	netifapi_netif_common, .Lfunc_end4-netifapi_netif_common
	.cfi_endproc
	.cantunwind
	.fnend
                                        @ -- End function
	.section	.text.netifapi_do_netif_common,"ax",%progbits
	.p2align	3                               @ -- Begin function netifapi_do_netif_common
	.type	netifapi_do_netif_common,%function
	.code	16                              @ @netifapi_do_netif_common
	.thumb_func
netifapi_do_netif_common:
.Lfunc_begin5:
	.loc	10 104 0                        @ rt-thread/components/net/lwip-2.0.2/src/api/netifapi.c:104:0
	.fnstart
	.cfi_startproc
@ %bb.0:
	@DEBUG_VALUE: netifapi_do_netif_common:m <- $r0
	@DEBUG_VALUE: netifapi_do_netif_common:m <- $r0
	.save	{r7, lr}
	push	{r7, lr}
	.cfi_def_cfa_offset 8
	.cfi_offset lr, -4
	.cfi_offset r7, -8
.Ltmp28:
	@DEBUG_VALUE: netifapi_do_netif_common:msg <- $r0
	@DEBUG_VALUE: netifapi_do_netif_common:msg <- $r0
	.loc	10 109 23 prologue_end          @ rt-thread/components/net/lwip-2.0.2/src/api/netifapi.c:109:23
	ldr	r1, [r0, #12]
.Ltmp29:
	.loc	10 109 7 is_stmt 0              @ rt-thread/components/net/lwip-2.0.2/src/api/netifapi.c:109:7
	cbz	r1, .LBB5_2
.Ltmp30:
@ %bb.1:
	@DEBUG_VALUE: netifapi_do_netif_common:msg <- $r0
	@DEBUG_VALUE: netifapi_do_netif_common:m <- $r0
	@DEBUG_VALUE: netifapi_do_netif_common:msg <- $r0
	.loc	10 110 42 is_stmt 1             @ rt-thread/components/net/lwip-2.0.2/src/api/netifapi.c:110:42
	ldr	r0, [r0, #4]
.Ltmp31:
	@DEBUG_VALUE: netifapi_do_netif_common:m <- [DW_OP_LLVM_entry_value 1] $r0
	.loc	10 110 12 is_stmt 0             @ rt-thread/components/net/lwip-2.0.2/src/api/netifapi.c:110:12
	blx	r1
.Ltmp32:
	.loc	10 115 1 is_stmt 1              @ rt-thread/components/net/lwip-2.0.2/src/api/netifapi.c:115:1
	pop	{r7, pc}
.Ltmp33:
.LBB5_2:
	@DEBUG_VALUE: netifapi_do_netif_common:msg <- $r0
	@DEBUG_VALUE: netifapi_do_netif_common:m <- $r0
	.loc	10 112 35                       @ rt-thread/components/net/lwip-2.0.2/src/api/netifapi.c:112:35
	ldrd	r1, r2, [r0, #4]
	.loc	10 112 5 is_stmt 0              @ rt-thread/components/net/lwip-2.0.2/src/api/netifapi.c:112:5
	mov	r0, r1
.Ltmp34:
	@DEBUG_VALUE: netifapi_do_netif_common:m <- [DW_OP_LLVM_entry_value 1] $r0
	blx	r2
	movs	r0, #0
.Ltmp35:
	.loc	10 115 1 is_stmt 1              @ rt-thread/components/net/lwip-2.0.2/src/api/netifapi.c:115:1
	pop	{r7, pc}
.Ltmp36:
.Lfunc_end5:
	.size	netifapi_do_netif_common, .Lfunc_end5-netifapi_do_netif_common
	.cfi_endproc
	.cantunwind
	.fnend
                                        @ -- End function
	.section	".note.GNU-stack","",%progbits
	.eabi_attribute	30, 1	@ Tag_ABI_optimization_goals
	.ARM_attribute	16, 1	@ Tag_AV_eba