	.text
	.syntax unified
	.eabi_attribute	67, "2.09"	@ Tag_conformance
	.cpu	cortex-m7
	.eabi_attribute	6, 13	@ Tag_CPU_arch
	.eabi_attribute	7, 77	@ Tag_CPU_arch_profile
	.eabi_attribute	8, 0	@ Tag_ARM_ISA_use
	.eabi_attribute	9, 2	@ Tag_THUMB_ISA_use
	.fpu	fpv5-d16
	.eabi_attribute	36, 1	@ Tag_FP_HP_extension
	.eabi_attribute	34, 1	@ Tag_CPU_unaligned_access
	.eabi_attribute	17, 1	@ Tag_ABI_PCS_GOT_use
	.eabi_attribute	20, 2	@ Tag_ABI_FP_denormal
	.eabi_attribute	21, 0	@ Tag_ABI_FP_exceptions
	.eabi_attribute	23, 1	@ Tag_ABI_FP_number_model
	.eabi_attribute	24, 1	@ Tag_ABI_align_needed
	.eabi_attribute	25, 1	@ Tag_ABI_align_preserved
	.eabi_attribute	28, 1	@ Tag_ABI_VFP_args
	.eabi_attribute	38, 1	@ Tag_ABI_FP_16bit_format
	.eabi_attribute	18, 2	@ Tag_ABI_PCS_wchar_t
	.eabi_attribute	26, 1	@ Tag_ABI_enum_size
	.eabi_attribute	14, 0	@ Tag_ABI_PCS_R9_use
	.file	"object.c"
	.file	1 "E:\\Smart-access-control\\Hardware\\CODE" "rt-thread/include\\rtdef.h"
	.file	2 "E:\\Smart-access-control\\Hardware\\CODE" "rt-thread/src/object.c"
	.section	.text.rt_object_attach_sethook,"ax",%progbits
	.hidden	rt_object_attach_sethook        @ -- Begin function rt_object_attach_sethook
	.globl	rt_object_attach_sethook
	.p2align	3
	.type	rt_object_attach_sethook,%function
	.code	16                              @ @rt_object_attach_sethook
	.thumb_func
rt_object_attach_sethook:
.Lfunc_begin0:
	.loc	2 128 0                         @ rt-thread/src/object.c:128:0
	.fnstart
	.cfi_sections .debug_frame
	.cfi_startproc
@ %bb.0:
	.pad	#4
	sub	sp, #4
	.cfi_def_cfa_offset 4
	str	r0, [sp]
.Ltmp0:
	.loc	2 129 29 prologue_end           @ rt-thread/src/object.c:129:29
	ldr	r0, [sp]
	.loc	2 129 27 is_stmt 0              @ rt-thread/src/object.c:129:27
	movw	r1, :lower16:rt_object_attach_hook
	movt	r1, :upper16:rt_object_attach_hook
	str	r0, [r1]
	.loc	2 130 1 is_stmt 1               @ rt-thread/src/object.c:130:1
	add	sp, #4
	bx	lr
.Ltmp1:
.Lfunc_end0:
	.size	rt_object_attach_sethook, .Lfunc_end0-rt_object_attach_sethook
	.cfi_endproc
	.cantunwind
	.fnend
                                        @ -- End function
	.section	.text.rt_object_detach_sethook,"ax",%progbits
	.hidden	rt_object_detach_sethook        @ -- Begin function rt_object_detach_sethook
	.globl	rt_object_detach_sethook
	.p2align	3
	.type	rt_object_detach_sethook,%function
	.code	16                              @ @rt_object_detach_sethook
	.thumb_func
rt_object_detach_sethook:
.Lfunc_begin1:
	.loc	2 139 0                         @ rt-thread/src/object.c:139:0
	.fnstart
	.cfi_startproc
@ %bb.0:
	.pad	#4
	sub	sp, #4
	.cfi_def_cfa_offset 4
	str	r0, [sp]
.Ltmp2:
	.loc	2 140 29 prologue_end           @ rt-thread/src/object.c:140:29
	ldr	r0, [sp]
	.loc	2 140 27 is_stmt 0              @ rt-thread/src/object.c:140:27
	movw	r1, :lower16:rt_object_detach_hook
	movt	r1, :upper16:rt_object_detach_hook
	str	r0, [r1]
	.loc	2 141 1 is_stmt 1               @ rt-thread/src/object.c:141:1
	add	sp, #4
	bx	lr
.Ltmp3:
.Lfunc_end1:
	.size	rt_object_detach_sethook, .Lfunc_end1-rt_object_detach_sethook
	.cfi_endproc
	.cantunwind
	.fnend
                                        @ -- End function
	.section	.text.rt_object_trytake_sethook,"ax",%progbits
	.hidden	rt_object_trytake_sethook       @ -- Begin function rt_object_trytake_sethook
	.globl	rt_object_trytake_sethook
	.p2align	3
	.type	rt_object_trytake_sethook,%function
	.code	16                              @ @rt_object_trytake_sethook
	.thumb_func
rt_object_trytake_sethook:
.Lfunc_begin2:
	.loc	2 157 0                         @ rt-thread/src/object.c:157:0
	.fnstart
	.cfi_startproc
@ %bb.0:
	.pad	#4
	sub	sp, #4
	.cfi_def_cfa_offset 4
	str	r0, [sp]
.Ltmp4:
	.loc	2 158 30 prologue_end           @ rt-thread/src/object.c:158:30
	ldr	r0, [sp]
	.loc	2 158 28 is_stmt 0              @ rt-thread/src/object.c:158:28
	movw	r1, :lower16:rt_object_trytake_hook
	movt	r1, :upper16:rt_object_trytake_hook
	str	r0, [r1]
	.loc	2 159 1 is_stmt 1               @ rt-thread/src/object.c:159:1
	add	sp, #4
	bx	lr
.Ltmp5:
.Lfunc_end2:
	.size	rt_object_trytake_sethook, .Lfunc_end2-rt_object_trytake_sethook
	.cfi_endproc
	.cantunwind
	.fnend
                                        @ -- End function
	.section	.text.rt_object_take_sethook,"ax",%progbits
	.hidden	rt_object_take_sethook          @ -- Begin function rt_object_take_sethook
	.globl	rt_object_take_sethook
	.p2align	3
	.type	rt_object_take_sethook,%function
	.code	16                              @ @rt_object_take_sethook
	.thumb_func
rt_object_take_sethook:
.Lfunc_begin3:
	.loc	2 176 0                         @ rt-thread/src/object.c:176:0
	.fnstart
	.cfi_startproc
@ %bb.0:
	.pad	#4
	sub	sp, #4
	.cfi_def_cfa_offset 4
	str	r0, [sp]
.Ltmp6:
	.loc	2 177 27 prologue_end           @ rt-thread/src/object.c:177:27
	ldr	r0, [sp]
	.loc	2 177 25 is_stmt 0              @ rt-thread/src/object.c:177:25
	movw	r1, :lower16:rt_object_take_hook
	movt	r1, :upper16:rt_object_take_hook
	str	r0, [r1]
	.loc	2 178 1 is_stmt 1               @ rt-thread/src/object.c:178:1
	add	sp, #4
	bx	lr
.Ltmp7:
.Lfunc_end3:
	.size	rt_object_take_sethook, .Lfunc_end3-rt_object_take_sethook
	.cfi_endproc
	.cantunwind
	.fnend
                                        @ -- End function
	.section	.text.rt_object_put_sethook,"ax",%progbits
	.hidden	rt_object_put_sethook           @ -- Begin function rt_object_put_sethook
	.globl	rt_object_put_sethook
	.p2align	3
	.type	rt_object_put_sethook,%function
	.code	16                              @ @rt_object_put_sethook
	.thumb_func
rt_object_put_sethook:
.Lfunc_begin4:
	.loc	2 187 0                         @ rt-thread/src/object.c:187:0
	.fnstart
	.cfi_startproc
@ %bb.0:
	.pad	#4
	sub	sp, #4
	.cfi_def_cfa_offset 4
	str	r0, [sp]
.Ltmp8:
	.loc	2 188 26 prologue_end           @ rt-thread/src/object.c:188:26
	ldr	r0, [sp]
	.loc	2 188 24 is_stmt 0              @ rt-thread/src/object.c:188:24
	movw	r1, :lower16:rt_object_put_hook
	movt	r1, :upper16:rt_object_put_hook
	str	r0, [r1]
	.loc	2 189 1 is_stmt 1               @ rt-thread/src/object.c:189:1
	add	sp, #4
	bx	lr
.Ltmp9:
.Lfunc_end4:
	.size	rt_object_put_sethook, .Lfunc_end4-rt_object_put_sethook
	.cfi_endproc
	.cantunwind
	.fnend
                                        @ -- End function
	.section	.text.rt_system_object_init,"ax",%progbits
	.hidden	rt_system_object_init           @ -- Begin function rt_system_object_init
	.globl	rt_system_object_init
	.p2align	3
	.type	rt_system_object_init,%function
	.code	16                              @ @rt_system_object_init
	.thumb_func
rt_system_object_init:
.Lfunc_begin5:
	.loc	2 203 0                         @ rt-thread/src/object.c:203:0
	.fnstart
	.cfi_startproc
@ %bb.0:
	.loc	2 204 1 prologue_end            @ rt-thread/src/object.c:204:1
	bx	lr
.Ltmp10:
.Lfunc_end5:
	.size	rt_system_object_init, .Lfunc_end5-rt_system_object_init
	.cfi_endproc
	.cantunwind
	.fnend
                                        @ -- End function
	.section	.text.rt_object_get_information,"ax",%progbits
	.hidden	rt_object_get_information       @ -- Begin function rt_object_get_information
	.globl	rt_object_get_information
	.p2align	3
	.type	rt_object_get_information,%function
	.code	16                              @ @rt_object_get_information
	.thumb_func
rt_object_get_information:
.Lfunc_begin6:
	.loc	2 222 0                         @ rt-thread/src/object.c:222:0
	.fnstart
	.cfi_startproc
@ %bb.0:
	.pad	#12
	sub	sp, #12
	.cfi_def_cfa_offset 12
                                        @ kill: def $r1 killed $r0
	strb.w	r0, [sp, #7]
	movs	r0, #0
.Ltmp11:
	.loc	2 225 16 prologue_end           @ rt-thread/src/object.c:225:16
	str	r0, [sp]
	.loc	2 225 10 is_stmt 0              @ rt-thread/src/object.c:225:10
	b	.LBB6_1
.LBB6_1:                                @ =>This Inner Loop Header: Depth=1
.Ltmp12:
	.loc	2 225 21                        @ rt-thread/src/object.c:225:21
	ldr	r0, [sp]
.Ltmp13:
	.loc	2 225 5                         @ rt-thread/src/object.c:225:5
	cmp	r0, #9
	bgt	.LBB6_6
	b	.LBB6_2
.LBB6_2:                                @   in Loop: Header=BB6_1 Depth=1
.Ltmp14:
	.loc	2 226 33 is_stmt 1              @ rt-thread/src/object.c:226:33
	ldr	r0, [sp]
	.loc	2 226 13 is_stmt 0              @ rt-thread/src/object.c:226:13
	lsls	r1, r0, #4
	movw	r0, :lower16:rt_object_container
	movt	r0, :upper16:rt_object_container
	.loc	2 226 40                        @ rt-thread/src/object.c:226:40
	ldrb	r0, [r0, r1]
	.loc	2 226 48                        @ rt-thread/src/object.c:226:48
	ldrb.w	r1, [sp, #7]
.Ltmp15:
	.loc	2 226 13                        @ rt-thread/src/object.c:226:13
	cmp	r0, r1
	bne	.LBB6_4
	b	.LBB6_3
.LBB6_3:
.Ltmp16:
	.loc	2 226 82                        @ rt-thread/src/object.c:226:82
	ldr	r1, [sp]
	.loc	2 226 62                        @ rt-thread/src/object.c:226:62
	movw	r0, :lower16:rt_object_container
	movt	r0, :upper16:rt_object_container
	add.w	r0, r0, r1, lsl #4
	.loc	2 226 54                        @ rt-thread/src/object.c:226:54
	str	r0, [sp, #8]
	b	.LBB6_7
.LBB6_4:                                @   in Loop: Header=BB6_1 Depth=1
	.loc	2 226 48                        @ rt-thread/src/object.c:226:48
	b	.LBB6_5
.Ltmp17:
.LBB6_5:                                @   in Loop: Header=BB6_1 Depth=1
	.loc	2 225 59 is_stmt 1              @ rt-thread/src/object.c:225:59
	ldr	r0, [sp]
	adds	r0, #1
	str	r0, [sp]
	.loc	2 225 5 is_stmt 0               @ rt-thread/src/object.c:225:5
	b	.LBB6_1
.Ltmp18:
.LBB6_6:
	.loc	2 0 5                           @ rt-thread/src/object.c:0:5
	movs	r0, #0
	.loc	2 228 5 is_stmt 1               @ rt-thread/src/object.c:228:5
	str	r0, [sp, #8]
	b	.LBB6_7
.LBB6_7:
	.loc	2 229 1                         @ rt-thread/src/object.c:229:1
	ldr	r0, [sp, #8]
	add	sp, #12
	bx	lr
.Ltmp19:
.Lfunc_end6:
	.size	rt_object_get_information, .Lfunc_end6-rt_object_get_information
	.cfi_endproc
	.cantunwind
	.fnend
                                        @ -- End function
	.section	.text.rt_object_get_length,"ax",%progbits
	.hidden	rt_object_get_length            @ -- Begin function rt_object_get_length
	.globl	rt_object_get_length
	.p2align	3
	.type	rt_object_get_length,%function
	.code	16                              @ @rt_object_get_length
	.thumb_func
rt_object_get_length:
.Lfunc_begin7:
	.loc	2 240 0                         @ rt-thread/src/object.c:240:0
	.fnstart
	.cfi_startproc
@ %bb.0:
	.save	{r7, lr}
	push	{r7, lr}
	.cfi_def_cfa_offset 8
	.cfi_offset lr, -4
	.cfi_offset r7, -8
	.pad	#24
	sub	sp, #24
	.cfi_def_cfa_offset 32
                                        @ kill: def $r1 killed $r0
	strb.w	r0, [sp, #19]
	movs	r0, #0
.Ltmp20:
	.loc	2 241 9 prologue_end            @ rt-thread/src/object.c:241:9
	str	r0, [sp, #12]
	.loc	2 243 26                        @ rt-thread/src/object.c:243:26
	str	r0, [sp, #4]
	.loc	2 244 35                        @ rt-thread/src/object.c:244:35
	str	r0, [sp]
	.loc	2 246 72                        @ rt-thread/src/object.c:246:72
	ldrb.w	r0, [sp, #19]
	.loc	2 246 19 is_stmt 0              @ rt-thread/src/object.c:246:19
	bl	rt_object_get_information
	.loc	2 246 17                        @ rt-thread/src/object.c:246:17
	str	r0, [sp]
.Ltmp21:
	.loc	2 247 9 is_stmt 1               @ rt-thread/src/object.c:247:9
	ldr	r0, [sp]
.Ltmp22:
	.loc	2 247 9 is_stmt 0               @ rt-thread/src/object.c:247:9
	cbnz	r0, .LBB7_2
	b	.LBB7_1
.LBB7_1:
	.loc	2 0 9                           @ rt-thread/src/object.c:0:9
	movs	r0, #0
.Ltmp23:
	.loc	2 247 33                        @ rt-thread/src/object.c:247:33
	str	r0, [sp, #20]
	b	.LBB7_7
.Ltmp24:
.LBB7_2:
	.loc	2 249 13 is_stmt 1              @ rt-thread/src/object.c:249:13
	bl	rt_hw_interrupt_disable
	.loc	2 249 11 is_stmt 0              @ rt-thread/src/object.c:249:11
	str	r0, [sp, #8]
.Ltmp25:
	.loc	2 251 5 is_stmt 1               @ rt-thread/src/object.c:251:5
	ldr	r0, [sp]
	ldr	r0, [r0, #4]
	str	r0, [sp, #4]
	b	.LBB7_3
.LBB7_3:                                @ =>This Inner Loop Header: Depth=1
.Ltmp26:
	.loc	2 251 5 is_stmt 0               @ rt-thread/src/object.c:251:5
	ldr	r0, [sp, #4]
	ldr	r1, [sp]
	adds	r1, #4
.Ltmp27:
	.loc	2 251 5                         @ rt-thread/src/object.c:251:5
	cmp	r0, r1
	beq	.LBB7_6
	b	.LBB7_4
.LBB7_4:                                @   in Loop: Header=BB7_3 Depth=1
.Ltmp28:
	.loc	2 253 15 is_stmt 1              @ rt-thread/src/object.c:253:15
	ldr	r0, [sp, #12]
	adds	r0, #1
	str	r0, [sp, #12]
	.loc	2 254 5                         @ rt-thread/src/object.c:254:5
	b	.LBB7_5
.Ltmp29:
.LBB7_5:                                @   in Loop: Header=BB7_3 Depth=1
	.loc	2 251 5                         @ rt-thread/src/object.c:251:5
	ldr	r0, [sp, #4]
	ldr	r0, [r0]
	str	r0, [sp, #4]
	b	.LBB7_3
.Ltmp30:
.LBB7_6:
	.loc	2 255 28                        @ rt-thread/src/object.c:255:28
	ldr	r0, [sp, #8]
	.loc	2 255 5 is_stmt 0               @ rt-thread/src/object.c:255:5
	bl	rt_hw_interrupt_enable
	.loc	2 257 12 is_stmt 1              @ rt-thread/src/object.c:257:12
	ldr	r0, [sp, #12]
	.loc	2 257 5 is_stmt 0               @ rt-thread/src/object.c:257:5
	str	r0, [sp, #20]
	b	.LBB7_7
.LBB7_7:
	.loc	2 258 1 is_stmt 1               @ rt-thread/src/object.c:258:1
	ldr	r0, [sp, #20]
	add	sp, #24
	pop	{r7, pc}
.Ltmp31:
.Lfunc_end7:
	.size	rt_object_get_length, .Lfunc_end7-rt_object_get_length
	.cfi_endproc
	.cantunwind
	.fnend
                                        @ -- End function
	.section	.text.rt_object_get_pointers,"ax",%progbits
	.hidden	rt_object_get_pointers          @ -- Begin function rt_object_get_pointers
	.globl	rt_object_get_pointers
	.p2align	3
	.type	rt_object_get_pointers,%function
	.code	16                              @ @rt_object_get_pointers
	.thumb_func
rt_object_get_pointers:
.Lfunc_begin8:
	.loc	2 273 0                         @ rt-thread/src/object.c:273:0
	.fnstart
	.cfi_startproc
@ %bb.0:
	.save	{r7, lr}
	push	{r7, lr}
	.cfi_def_cfa_offset 8
	.cfi_offset lr, -4
	.cfi_offset r7, -8
	.pad	#40
	sub	sp, #40
	.cfi_def_cfa_offset 48
                                        @ kill: def $r3 killed $r0
	strb.w	r0, [sp, #35]
	str	r1, [sp, #28]
	str	r2, [sp, #24]
	movs	r0, #0
.Ltmp32:
	.loc	2 274 9 prologue_end            @ rt-thread/src/object.c:274:9
	str	r0, [sp, #20]
	.loc	2 278 26                        @ rt-thread/src/object.c:278:26
	str	r0, [sp, #8]
	.loc	2 279 35                        @ rt-thread/src/object.c:279:35
	str	r0, [sp, #4]
.Ltmp33:
	.loc	2 281 9                         @ rt-thread/src/object.c:281:9
	ldr	r0, [sp, #24]
.Ltmp34:
	.loc	2 281 9 is_stmt 0               @ rt-thread/src/object.c:281:9
	cmp	r0, #0
	bgt	.LBB8_2
	b	.LBB8_1
.LBB8_1:
	.loc	2 0 9                           @ rt-thread/src/object.c:0:9
	movs	r0, #0
.Ltmp35:
	.loc	2 281 22                        @ rt-thread/src/object.c:281:22
	str	r0, [sp, #36]
	b	.LBB8_11
.Ltmp36:
.LBB8_2:
	.loc	2 283 72 is_stmt 1              @ rt-thread/src/object.c:283:72
	ldrb.w	r0, [sp, #35]
	.loc	2 283 19 is_stmt 0              @ rt-thread/src/object.c:283:19
	bl	rt_object_get_information
	.loc	2 283 17                        @ rt-thread/src/object.c:283:17
	str	r0, [sp, #4]
.Ltmp37:
	.loc	2 284 9 is_stmt 1               @ rt-thread/src/object.c:284:9
	ldr	r0, [sp, #4]
.Ltmp38:
	.loc	2 284 9 is_stmt 0               @ rt-thread/src/object.c:284:9
	cbnz	r0, .LBB8_4
	b	.LBB8_3
.LBB8_3:
	.loc	2 0 9                           @ rt-thread/src/object.c:0:9
	movs	r0, #0
.Ltmp39:
	.loc	2 284 33                        @ rt-thread/src/object.c:284:33
	str	r0, [sp, #36]
	b	.LBB8_11
.Ltmp40:
.LBB8_4:
	.loc	2 286 13 is_stmt 1              @ rt-thread/src/object.c:286:13
	bl	rt_hw_interrupt_disable
	.loc	2 286 11 is_stmt 0              @ rt-thread/src/object.c:286:11
	str	r0, [sp, #16]
.Ltmp41:
	.loc	2 288 5 is_stmt 1               @ rt-thread/src/object.c:288:5
	ldr	r0, [sp, #4]
	ldr	r0, [r0, #4]
	str	r0, [sp, #8]
	b	.LBB8_5
.LBB8_5:                                @ =>This Inner Loop Header: Depth=1
.Ltmp42:
	.loc	2 288 5 is_stmt 0               @ rt-thread/src/object.c:288:5
	ldr	r0, [sp, #8]
	ldr	r1, [sp, #4]
	adds	r1, #4
.Ltmp43:
	.loc	2 288 5                         @ rt-thread/src/object.c:288:5
	cmp	r0, r1
	beq	.LBB8_10
	b	.LBB8_6
.LBB8_6:                                @   in Loop: Header=BB8_5 Depth=1
.Ltmp44:
	.loc	2 290 18 is_stmt 1              @ rt-thread/src/object.c:290:18
	ldr	r0, [sp, #8]
	subs	r0, #12
	.loc	2 290 16 is_stmt 0              @ rt-thread/src/object.c:290:16
	str	r0, [sp, #12]
	.loc	2 292 27 is_stmt 1              @ rt-thread/src/object.c:292:27
	ldr	r0, [sp, #12]
	.loc	2 292 9 is_stmt 0               @ rt-thread/src/object.c:292:9
	ldr	r1, [sp, #28]
	.loc	2 292 18                        @ rt-thread/src/object.c:292:18
	ldr	r2, [sp, #20]
	.loc	2 292 25                        @ rt-thread/src/object.c:292:25
	str.w	r0, [r1, r2, lsl #2]
	.loc	2 293 15 is_stmt 1              @ rt-thread/src/object.c:293:15
	ldr	r0, [sp, #20]
	adds	r0, #1
	str	r0, [sp, #20]
.Ltmp45:
	.loc	2 295 13                        @ rt-thread/src/object.c:295:13
	ldr	r0, [sp, #20]
	.loc	2 295 22 is_stmt 0              @ rt-thread/src/object.c:295:22
	ldr	r1, [sp, #24]
.Ltmp46:
	.loc	2 295 13                        @ rt-thread/src/object.c:295:13
	cmp	r0, r1
	blt	.LBB8_8
	b	.LBB8_7
.LBB8_7:
.Ltmp47:
	.loc	2 295 30                        @ rt-thread/src/object.c:295:30
	b	.LBB8_10
.Ltmp48:
.LBB8_8:                                @   in Loop: Header=BB8_5 Depth=1
	.loc	2 296 5 is_stmt 1               @ rt-thread/src/object.c:296:5
	b	.LBB8_9
.Ltmp49:
.LBB8_9:                                @   in Loop: Header=BB8_5 Depth=1
	.loc	2 288 5                         @ rt-thread/src/object.c:288:5
	ldr	r0, [sp, #8]
	ldr	r0, [r0]
	str	r0, [sp, #8]
	b	.LBB8_5
.Ltmp50:
.LBB8_10:
	.loc	2 297 28                        @ rt-thread/src/object.c:297:28
	ldr	r0, [sp, #16]
	.loc	2 297 5 is_stmt 0               @ rt-thread/src/object.c:297:5
	bl	rt_hw_interrupt_enable
	.loc	2 299 12 is_stmt 1              @ rt-thread/src/object.c:299:12
	ldr	r0, [sp, #20]
	.loc	2 299 5 is_stmt 0               @ rt-thread/src/object.c:299:5
	str	r0, [sp, #36]
	b	.LBB8_11
.LBB8_11:
	.loc	2 300 1 is_stmt 1               @ rt-thread/src/object.c:300:1
	ldr	r0, [sp, #36]
	add	sp, #40
	pop	{r7, pc}
.Ltmp51:
.Lfunc_end8:
	.size	rt_object_get_pointers, .Lfunc_end8-rt_object_get_pointers
	.cfi_endproc
	.cantunwind
	.fnend
                                        @ -- End function
	.section	.text.rt_object_init,"ax",%progbits
	.hidden	rt_object_init                  @ -- Begin function rt_object_init
	.globl	rt_object_init
	.p2align	3
	.type	rt_object_init,%function
	.code	16                              @ @rt_object_init
	.thumb_func
rt_object_init:
.Lfunc_begin9:
	.loc	2 314 0                         @ rt-thread/src/object.c:314:0
	.fnstart
	.cfi_startproc
@ %bb.0:
	.save	{r7, lr}
	push	{r7, lr}
	.cfi_def_cfa_offset 8
	.cfi_offset lr, -4
	.cfi_offset r7, -8
	.pad	#32
	sub	sp, #32
	.cfi_def_cfa_offset 40
                                        @ kill: def $r3 killed $r1
	str	r0, [sp, #28]
	strb.w	r1, [sp, #27]
	str	r2, [sp, #20]
	movs	r0, #0
.Ltmp52:
	.loc	2 316 26 prologue_end           @ rt-thread/src/object.c:316:26
	str	r0, [sp, #12]
	.loc	2 323 45                        @ rt-thread/src/object.c:323:45
	ldrb.w	r0, [sp, #27]
	.loc	2 323 19 is_stmt 0              @ rt-thread/src/object.c:323:19
	bl	rt_object_get_information
	.loc	2 323 17                        @ rt-thread/src/object.c:323:17
	str	r0, [sp, #8]
.Ltmp53:
	.loc	2 324 5 is_stmt 1               @ rt-thread/src/object.c:324:5
	ldr	r0, [sp, #8]
.Ltmp54:
	.loc	2 324 5 is_stmt 0               @ rt-thread/src/object.c:324:5
	cbnz	r0, .LBB9_2
	b	.LBB9_1
.LBB9_1:
.Ltmp55:
	.loc	2 324 5                         @ rt-thread/src/object.c:324:5
	movw	r0, :lower16:.L.str
	movt	r0, :upper16:.L.str
	movw	r1, :lower16:.L__FUNCTION__.rt_object_init
	movt	r1, :upper16:.L__FUNCTION__.rt_object_init
	mov.w	r2, #324
	bl	rt_assert_handler
	b	.LBB9_2
.Ltmp56:
.LBB9_2:
	.loc	2 329 5 is_stmt 1               @ rt-thread/src/object.c:329:5
	bl	rt_enter_critical
.Ltmp57:
	.loc	2 331 18                        @ rt-thread/src/object.c:331:18
	ldr	r0, [sp, #8]
	.loc	2 331 43 is_stmt 0              @ rt-thread/src/object.c:331:43
	ldr	r0, [r0, #4]
	.loc	2 331 16                        @ rt-thread/src/object.c:331:16
	str	r0, [sp, #12]
	.loc	2 331 10                        @ rt-thread/src/object.c:331:10
	b	.LBB9_3
.LBB9_3:                                @ =>This Inner Loop Header: Depth=1
.Ltmp58:
	.loc	2 332 13 is_stmt 1              @ rt-thread/src/object.c:332:13
	ldr	r0, [sp, #12]
	.loc	2 332 23 is_stmt 0              @ rt-thread/src/object.c:332:23
	ldr	r1, [sp, #8]
	.loc	2 332 36                        @ rt-thread/src/object.c:332:36
	adds	r1, #4
.Ltmp59:
	.loc	2 331 5 is_stmt 1               @ rt-thread/src/object.c:331:5
	cmp	r0, r1
	beq	.LBB9_10
	b	.LBB9_4
.LBB9_4:                                @   in Loop: Header=BB9_3 Depth=1
.Ltmp60:
	.loc	2 337 15                        @ rt-thread/src/object.c:337:15
	ldr	r0, [sp, #12]
	subs	r0, #12
	.loc	2 337 13 is_stmt 0              @ rt-thread/src/object.c:337:13
	str	r0, [sp, #4]
.Ltmp61:
	.loc	2 338 13 is_stmt 1              @ rt-thread/src/object.c:338:13
	ldr	r0, [sp, #4]
.Ltmp62:
	.loc	2 338 13 is_stmt 0              @ rt-thread/src/object.c:338:13
	cbz	r0, .LBB9_8
	b	.LBB9_5
.LBB9_5:                                @   in Loop: Header=BB9_3 Depth=1
.Ltmp63:
	.loc	2 340 13 is_stmt 1              @ rt-thread/src/object.c:340:13
	ldr	r0, [sp, #4]
	ldr	r1, [sp, #28]
.Ltmp64:
	.loc	2 340 13 is_stmt 0              @ rt-thread/src/object.c:340:13
	cmp	r0, r1
	bne	.LBB9_7
	b	.LBB9_6
.LBB9_6:                                @   in Loop: Header=BB9_3 Depth=1
.Ltmp65:
	.loc	2 340 13                        @ rt-thread/src/object.c:340:13
	movw	r0, :lower16:.L.str.1
	movt	r0, :upper16:.L.str.1
	movw	r1, :lower16:.L__FUNCTION__.rt_object_init
	movt	r1, :upper16:.L__FUNCTION__.rt_object_init
	mov.w	r2, #340
	bl	rt_assert_handler
	b	.LBB9_7
.Ltmp66:
.LBB9_7:                                @   in Loop: Header=BB9_3 Depth=1
	.loc	2 341 9 is_stmt 1               @ rt-thread/src/object.c:341:9
	b	.LBB9_8
.Ltmp67:
.LBB9_8:                                @   in Loop: Header=BB9_3 Depth=1
	.loc	2 342 5                         @ rt-thread/src/object.c:342:5
	b	.LBB9_9
.Ltmp68:
.LBB9_9:                                @   in Loop: Header=BB9_3 Depth=1
	.loc	2 333 21                        @ rt-thread/src/object.c:333:21
	ldr	r0, [sp, #12]
	.loc	2 333 27 is_stmt 0              @ rt-thread/src/object.c:333:27
	ldr	r0, [r0]
	.loc	2 333 19                        @ rt-thread/src/object.c:333:19
	str	r0, [sp, #12]
	.loc	2 331 5 is_stmt 1               @ rt-thread/src/object.c:331:5
	b	.LBB9_3
.Ltmp69:
.LBB9_10:
	.loc	2 344 5                         @ rt-thread/src/object.c:344:5
	bl	rt_exit_critical
	.loc	2 348 20                        @ rt-thread/src/object.c:348:20
	ldrb.w	r0, [sp, #27]
	.loc	2 348 25 is_stmt 0              @ rt-thread/src/object.c:348:25
	orr	r0, r0, #128
	.loc	2 348 5                         @ rt-thread/src/object.c:348:5
	ldr	r1, [sp, #28]
	.loc	2 348 18                        @ rt-thread/src/object.c:348:18
	strb	r0, [r1, #8]
	.loc	2 350 16 is_stmt 1              @ rt-thread/src/object.c:350:16
	ldr	r0, [sp, #28]
	.loc	2 350 30 is_stmt 0              @ rt-thread/src/object.c:350:30
	ldr	r1, [sp, #20]
	movs	r2, #8
	.loc	2 350 5                         @ rt-thread/src/object.c:350:5
	bl	rt_strncpy
	.loc	2 352 5 is_stmt 1               @ rt-thread/src/object.c:352:5
	b	.LBB9_11
.LBB9_11:
.Ltmp70:
	.loc	2 352 5 is_stmt 0               @ rt-thread/src/object.c:352:5
	movw	r0, :lower16:rt_object_attach_hook
	movt	r0, :upper16:rt_object_attach_hook
	ldr	r0, [r0]
.Ltmp71:
	.loc	2 352 5                         @ rt-thread/src/object.c:352:5
	cbz	r0, .LBB9_13
	b	.LBB9_12
.LBB9_12:
.Ltmp72:
	.loc	2 352 5                         @ rt-thread/src/object.c:352:5
	movw	r0, :lower16:rt_object_attach_hook
	movt	r0, :upper16:rt_object_attach_hook
	ldr	r1, [r0]
	ldr	r0, [sp, #28]
	blx	r1
	b	.LBB9_13
.Ltmp73:
.LBB9_13:
	.loc	2 352 5                         @ rt-thread/src/object.c:352:5
	b	.LBB9_14
.Ltmp74:
.LBB9_14:
	.loc	2 355 12 is_stmt 1              @ rt-thread/src/object.c:355:12
	bl	rt_hw_interrupt_disable
	.loc	2 355 10 is_stmt 0              @ rt-thread/src/object.c:355:10
	str	r0, [sp, #16]
.Ltmp75:
	.loc	2 367 32 is_stmt 1              @ rt-thread/src/object.c:367:32
	ldr	r0, [sp, #8]
	.loc	2 367 45 is_stmt 0              @ rt-thread/src/object.c:367:45
	adds	r0, #4
	.loc	2 367 61                        @ rt-thread/src/object.c:367:61
	ldr	r1, [sp, #28]
	.loc	2 367 69                        @ rt-thread/src/object.c:367:69
	adds	r1, #12
	.loc	2 367 9                         @ rt-thread/src/object.c:367:9
	bl	rt_list_insert_after
.Ltmp76:
	.loc	2 371 28 is_stmt 1              @ rt-thread/src/object.c:371:28
	ldr	r0, [sp, #16]
	.loc	2 371 5 is_stmt 0               @ rt-thread/src/object.c:371:5
	bl	rt_hw_interrupt_enable
	.loc	2 372 1 is_stmt 1               @ rt-thread/src/object.c:372:1
	add	sp, #32
	pop	{r7, pc}
.Ltmp77:
.Lfunc_end9:
	.size	rt_object_init, .Lfunc_end9-rt_object_init
	.cfi_endproc
	.cantunwind
	.fnend
                                        @ -- End function
	.section	.text.rt_list_insert_after,"ax",%progbits
	.p2align	3                               @ -- Begin function rt_list_insert_after
	.type	rt_list_insert_after,%function
	.code	16                              @ @rt_list_insert_after
	.thumb_func
rt_list_insert_after:
.Lfunc_begin10:
	.file	3 "E:\\Smart-access-control\\Hardware\\CODE" "rt-thread/include\\rtservice.h"
	.loc	3 59 0                          @ rt-thread/include\rtservice.h:59:0
	.fnstart
	.cfi_startproc
@ %bb.0:
	.pad	#8
	sub	sp, #8
	.cfi_def_cfa_offset 8
	str	r0, [sp, #4]
	str	r1, [sp]
.Ltmp78:
	.loc	3 60 21 prologue_end            @ rt-thread/include\rtservice.h:60:21
	ldr	r0, [sp]
	.loc	3 60 5 is_stmt 0                @ rt-thread/include\rtservice.h:60:5
	ldr	r1, [sp, #4]
	.loc	3 60 8                          @ rt-thread/include\rtservice.h:60:8
	ldr	r1, [r1]
	.loc	3 60 19                         @ rt-thread/include\rtservice.h:60:19
	str	r0, [r1, #4]
	.loc	3 61 15 is_stmt 1               @ rt-thread/include\rtservice.h:61:15
	ldr	r0, [sp, #4]
	.loc	3 61 18 is_stmt 0               @ rt-thread/include\rtservice.h:61:18
	ldr	r0, [r0]
	.loc	3 61 5                          @ rt-thread/include\rtservice.h:61:5
	ldr	r1, [sp]
	.loc	3 61 13                         @ rt-thread/include\rtservice.h:61:13
	str	r0, [r1]
	.loc	3 63 15 is_stmt 1               @ rt-thread/include\rtservice.h:63:15
	ldr	r0, [sp]
	.loc	3 63 5 is_stmt 0                @ rt-thread/include\rtservice.h:63:5
	ldr	r1, [sp, #4]
	.loc	3 63 13                         @ rt-thread/include\rtservice.h:63:13
	str	r0, [r1]
	.loc	3 64 15 is_stmt 1               @ rt-thread/include\rtservice.h:64:15
	ldr	r0, [sp, #4]
	.loc	3 64 5 is_stmt 0                @ rt-thread/include\rtservice.h:64:5
	ldr	r1, [sp]
	.loc	3 64 13                         @ rt-thread/include\rtservice.h:64:13
	str	r0, [r1, #4]
	.loc	3 65 1 is_stmt 1                @ rt-thread/include\rtservice.h:65:1
	add	sp, #8
	bx	lr
.Ltmp79:
.Lfunc_end10:
	.size	rt_list_insert_after, .Lfunc_end10-rt_list_insert_after
	.cfi_endproc
	.cantunwind
	.fnend
                                        @ -- End function
	.section	.text.rt_object_detach,"ax",%progbits
	.hidden	rt_object_detach                @ -- Begin function rt_object_detach
	.globl	rt_object_detach
	.p2align	3
	.type	rt_object_detach,%function
	.code	16                              @ @rt_object_detach
	.thumb_func
rt_object_detach:
.Lfunc_begin11:
	.loc	2 381 0                         @ rt-thread/src/object.c:381:0
	.fnstart
	.cfi_startproc
@ %bb.0:
	.save	{r7, lr}
	push	{r7, lr}
	.cfi_def_cfa_offset 8
	.cfi_offset lr, -4
	.cfi_offset r7, -8
	.pad	#8
	sub	sp, #8
	.cfi_def_cfa_offset 16
	str	r0, [sp, #4]
.Ltmp80:
	.loc	2 385 5 prologue_end            @ rt-thread/src/object.c:385:5
	ldr	r0, [sp, #4]
.Ltmp81:
	.loc	2 385 5 is_stmt 0               @ rt-thread/src/object.c:385:5
	cbnz	r0, .LBB11_2
	b	.LBB11_1
.LBB11_1:
.Ltmp82:
	.loc	2 385 5                         @ rt-thread/src/object.c:385:5
	movw	r0, :lower16:.L.str.2
	movt	r0, :upper16:.L.str.2
	movw	r1, :lower16:.L__FUNCTION__.rt_object_detach
	movt	r1, :upper16:.L__FUNCTION__.rt_object_detach
	movw	r2, #385
	bl	rt_assert_handler
	b	.LBB11_2
.Ltmp83:
.LBB11_2:
	.loc	2 387 5 is_stmt 1               @ rt-thread/src/object.c:387:5
	b	.LBB11_3
.LBB11_3:
.Ltmp84:
	.loc	2 387 5 is_stmt 0               @ rt-thread/src/object.c:387:5
	movw	r0, :lower16:rt_object_detach_hook
	movt	r0, :upper16:rt_object_detach_hook
	ldr	r0, [r0]
.Ltmp85:
	.loc	2 387 5                         @ rt-thread/src/object.c:387:5
	cbz	r0, .LBB11_5
	b	.LBB11_4
.LBB11_4:
.Ltmp86:
	.loc	2 387 5                         @ rt-thread/src/object.c:387:5
	movw	r0, :lower16:rt_object_detach_hook
	movt	r0, :upper16:rt_object_detach_hook
	ldr	r1, [r0]
	ldr	r0, [sp, #4]
	blx	r1
	b	.LBB11_5
.Ltmp87:
.LBB11_5:
	.loc	2 387 5                         @ rt-thread/src/object.c:387:5
	b	.LBB11_6
.Ltmp88:
.LBB11_6:
	.loc	2 390 5 is_stmt 1               @ rt-thread/src/object.c:390:5
	ldr	r1, [sp, #4]
	movs	r0, #0
	.loc	2 390 18 is_stmt 0              @ rt-thread/src/object.c:390:18
	strb	r0, [r1, #8]
	.loc	2 393 12 is_stmt 1              @ rt-thread/src/object.c:393:12
	bl	rt_hw_interrupt_disable
	.loc	2 393 10 is_stmt 0              @ rt-thread/src/object.c:393:10
	str	r0, [sp]
	.loc	2 396 22 is_stmt 1              @ rt-thread/src/object.c:396:22
	ldr	r0, [sp, #4]
	.loc	2 396 30 is_stmt 0              @ rt-thread/src/object.c:396:30
	adds	r0, #12
	.loc	2 396 5                         @ rt-thread/src/object.c:396:5
	bl	rt_list_remove
	.loc	2 399 28 is_stmt 1              @ rt-thread/src/object.c:399:28
	ldr	r0, [sp]
	.loc	2 399 5 is_stmt 0               @ rt-thread/src/object.c:399:5
	bl	rt_hw_interrupt_enable
	.loc	2 400 1 is_stmt 1               @ rt-thread/src/object.c:400:1
	add	sp, #8
	pop	{r7, pc}
.Ltmp89:
.Lfunc_end11:
	.size	rt_object_detach, .Lfunc_end11-rt_object_detach
	.cfi_endproc
	.cantunwind
	.fnend
                                        @ -- End function
	.section	.text.rt_list_remove,"ax",%progbits
	.p2align	3                               @ -- Begin function rt_list_remove
	.type	rt_list_remove,%function
	.code	16                              @ @rt_list_remove
	.thumb_func
rt_list_remove:
.Lfunc_begin12:
	.loc	3 87 0                          @ rt-thread/include\rtservice.h:87:0
	.fnstart
	.cfi_startproc
@ %bb.0:
	.pad	#4
	sub	sp, #4
	.cfi_def_cfa_offset 4
	str	r0, [sp]
.Ltmp90:
	.loc	3 88 21 prologue_end            @ rt-thread/include\rtservice.h:88:21
	ldr	r0, [sp]
	.loc	3 88 8 is_stmt 0                @ rt-thread/include\rtservice.h:88:8
	ldr	r1, [r0]
	.loc	3 88 24                         @ rt-thread/include\rtservice.h:88:24
	ldr	r0, [r0, #4]
	.loc	3 88 19                         @ rt-thread/include\rtservice.h:88:19
	str	r0, [r1, #4]
	.loc	3 89 21 is_stmt 1               @ rt-thread/include\rtservice.h:89:21
	ldr	r1, [sp]
	.loc	3 89 24 is_stmt 0               @ rt-thread/include\rtservice.h:89:24
	ldr	r0, [r1]
	.loc	3 89 8                          @ rt-thread/include\rtservice.h:89:8
	ldr	r1, [r1, #4]
	.loc	3 89 19                         @ rt-thread/include\rtservice.h:89:19
	str	r0, [r1]
	.loc	3 91 25 is_stmt 1               @ rt-thread/include\rtservice.h:91:25
	ldr	r0, [sp]
	.loc	3 91 23 is_stmt 0               @ rt-thread/include\rtservice.h:91:23
	str	r0, [r0, #4]
	.loc	3 91 5                          @ rt-thread/include\rtservice.h:91:5
	ldr	r1, [sp]
	.loc	3 91 13                         @ rt-thread/include\rtservice.h:91:13
	str	r0, [r1]
	.loc	3 92 1 is_stmt 1                @ rt-thread/include\rtservice.h:92:1
	add	sp, #4
	bx	lr
.Ltmp91:
.Lfunc_end12:
	.size	rt_list_remove, .Lfunc_end12-rt_list_remove
	.cfi_endproc
	.cantunwind
	.fnend
                                        @ -- End function
	.section	.text.rt_object_allocate,"ax",%progbits
	.hidden	rt_object_allocate              @ -- Begin function rt_object_allocate
	.globl	rt_object_allocate
	.p2align	3
	.type	rt_object_allocate,%function
	.code	16                              @ @rt_object_allocate
	.thumb_func
rt_object_allocate:
.Lfunc_begin13:
	.loc	2 412 0                         @ rt-thread/src/object.c:412:0
	.fnstart
	.cfi_startproc
@ %bb.0:
	.save	{r7, lr}
	push	{r7, lr}
	.cfi_def_cfa_offset 8
	.cfi_offset lr, -4
	.cfi_offset r7, -8
	.pad	#32
	sub	sp, #32
	.cfi_def_cfa_offset 40
                                        @ kill: def $r2 killed $r0
	strb.w	r0, [sp, #27]
	str	r1, [sp, #20]
.Ltmp92:
	.loc	2 420 5 prologue_end            @ rt-thread/src/object.c:420:5
	b	.LBB13_1
.LBB13_1:
.Ltmp93:
	.loc	2 420 5 is_stmt 0               @ rt-thread/src/object.c:420:5
	bl	rt_hw_interrupt_disable
	str	r0, [sp, #4]
.Ltmp94:
	.loc	2 420 5                         @ rt-thread/src/object.c:420:5
	bl	rt_interrupt_get_nest
.Ltmp95:
	.loc	2 420 5                         @ rt-thread/src/object.c:420:5
	cbz	r0, .LBB13_3
	b	.LBB13_2
.LBB13_2:
.Ltmp96:
	.loc	2 420 5                         @ rt-thread/src/object.c:420:5
	movw	r0, :lower16:.L.str.3
	movt	r0, :upper16:.L.str.3
	movw	r1, :lower16:.L__FUNCTION__.rt_object_allocate
	movt	r1, :upper16:.L__FUNCTION__.rt_object_allocate
	mov.w	r2, #420
	bl	rt_assert_handler
.Ltmp97:
	.loc	2 420 5                         @ rt-thread/src/object.c:420:5
	b	.LBB13_3
.Ltmp98:
.LBB13_3:
	.loc	2 420 5                         @ rt-thread/src/object.c:420:5
	ldr	r0, [sp, #4]
	bl	rt_hw_interrupt_enable
	b	.LBB13_4
.Ltmp99:
.LBB13_4:
	.loc	2 423 45 is_stmt 1              @ rt-thread/src/object.c:423:45
	ldrb.w	r0, [sp, #27]
	.loc	2 423 19 is_stmt 0              @ rt-thread/src/object.c:423:19
	bl	rt_object_get_information
	.loc	2 423 17                        @ rt-thread/src/object.c:423:17
	str	r0, [sp, #8]
.Ltmp100:
	.loc	2 424 5 is_stmt 1               @ rt-thread/src/object.c:424:5
	ldr	r0, [sp, #8]
.Ltmp101:
	.loc	2 424 5 is_stmt 0               @ rt-thread/src/object.c:424:5
	cbnz	r0, .LBB13_6
	b	.LBB13_5
.LBB13_5:
.Ltmp102:
	.loc	2 424 5                         @ rt-thread/src/object.c:424:5
	movw	r0, :lower16:.L.str
	movt	r0, :upper16:.L.str
	movw	r1, :lower16:.L__FUNCTION__.rt_object_allocate
	movt	r1, :upper16:.L__FUNCTION__.rt_object_allocate
	mov.w	r2, #424
	bl	rt_assert_handler
	b	.LBB13_6
.Ltmp103:
.LBB13_6:
	.loc	2 426 34 is_stmt 1              @ rt-thread/src/object.c:426:34
	ldr	r0, [sp, #8]
	ldr	r0, [r0, #12]
	bl	rt_malloc
	.loc	2 426 12 is_stmt 0              @ rt-thread/src/object.c:426:12
	str	r0, [sp, #16]
.Ltmp104:
	.loc	2 427 9 is_stmt 1               @ rt-thread/src/object.c:427:9
	ldr	r0, [sp, #16]
.Ltmp105:
	.loc	2 427 9 is_stmt 0               @ rt-thread/src/object.c:427:9
	cbnz	r0, .LBB13_8
	b	.LBB13_7
.LBB13_7:
	.loc	2 0 9                           @ rt-thread/src/object.c:0:9
	movs	r0, #0
.Ltmp106:
	.loc	2 430 9 is_stmt 1               @ rt-thread/src/object.c:430:9
	str	r0, [sp, #28]
	b	.LBB13_13
.Ltmp107:
.LBB13_8:
	.loc	2 434 15                        @ rt-thread/src/object.c:434:15
	ldr	r0, [sp, #16]
	.loc	2 434 28 is_stmt 0              @ rt-thread/src/object.c:434:28
	ldr	r1, [sp, #8]
	.loc	2 434 41                        @ rt-thread/src/object.c:434:41
	ldr	r2, [r1, #12]
	movs	r1, #0
	.loc	2 434 5                         @ rt-thread/src/object.c:434:5
	str	r1, [sp]                        @ 4-byte Spill
	bl	rt_memset
                                        @ kill: def $r1 killed $r0
	.loc	2 439 20 is_stmt 1              @ rt-thread/src/object.c:439:20
	ldr	r0, [sp]                        @ 4-byte Reload
	ldrb.w	r1, [sp, #27]
	.loc	2 439 5 is_stmt 0               @ rt-thread/src/object.c:439:5
	ldr	r2, [sp, #16]
	.loc	2 439 18                        @ rt-thread/src/object.c:439:18
	strb	r1, [r2, #8]
	.loc	2 442 5 is_stmt 1               @ rt-thread/src/object.c:442:5
	ldr	r1, [sp, #16]
	.loc	2 442 18 is_stmt 0              @ rt-thread/src/object.c:442:18
	strb	r0, [r1, #9]
	.loc	2 445 16 is_stmt 1              @ rt-thread/src/object.c:445:16
	ldr	r0, [sp, #16]
	.loc	2 445 30 is_stmt 0              @ rt-thread/src/object.c:445:30
	ldr	r1, [sp, #20]
	movs	r2, #8
	.loc	2 445 5                         @ rt-thread/src/object.c:445:5
	bl	rt_strncpy
	.loc	2 447 5 is_stmt 1               @ rt-thread/src/object.c:447:5
	b	.LBB13_9
.LBB13_9:
.Ltmp108:
	.loc	2 447 5 is_stmt 0               @ rt-thread/src/object.c:447:5
	movw	r0, :lower16:rt_object_attach_hook
	movt	r0, :upper16:rt_object_attach_hook
	ldr	r0, [r0]
.Ltmp109:
	.loc	2 447 5                         @ rt-thread/src/object.c:447:5
	cbz	r0, .LBB13_11
	b	.LBB13_10
.LBB13_10:
.Ltmp110:
	.loc	2 447 5                         @ rt-thread/src/object.c:447:5
	movw	r0, :lower16:rt_object_attach_hook
	movt	r0, :upper16:rt_object_attach_hook
	ldr	r1, [r0]
	ldr	r0, [sp, #16]
	blx	r1
	b	.LBB13_11
.Ltmp111:
.LBB13_11:
	.loc	2 447 5                         @ rt-thread/src/object.c:447:5
	b	.LBB13_12
.Ltmp112:
.LBB13_12:
	.loc	2 450 12 is_stmt 1              @ rt-thread/src/object.c:450:12
	bl	rt_hw_interrupt_disable
	.loc	2 450 10 is_stmt 0              @ rt-thread/src/object.c:450:10
	str	r0, [sp, #12]
.Ltmp113:
	.loc	2 462 32 is_stmt 1              @ rt-thread/src/object.c:462:32
	ldr	r0, [sp, #8]
	.loc	2 462 45 is_stmt 0              @ rt-thread/src/object.c:462:45
	adds	r0, #4
	.loc	2 462 61                        @ rt-thread/src/object.c:462:61
	ldr	r1, [sp, #16]
	.loc	2 462 69                        @ rt-thread/src/object.c:462:69
	adds	r1, #12
	.loc	2 462 9                         @ rt-thread/src/object.c:462:9
	bl	rt_list_insert_after
.Ltmp114:
	.loc	2 466 28 is_stmt 1              @ rt-thread/src/object.c:466:28
	ldr	r0, [sp, #12]
	.loc	2 466 5 is_stmt 0               @ rt-thread/src/object.c:466:5
	bl	rt_hw_interrupt_enable
	.loc	2 469 12 is_stmt 1              @ rt-thread/src/object.c:469:12
	ldr	r0, [sp, #16]
	.loc	2 469 5 is_stmt 0               @ rt-thread/src/object.c:469:5
	str	r0, [sp, #28]
	b	.LBB13_13
.LBB13_13:
	.loc	2 470 1 is_stmt 1               @ rt-thread/src/object.c:470:1
	ldr	r0, [sp, #28]
	add	sp, #32
	pop	{r7, pc}
.Ltmp115:
.Lfunc_end13:
	.size	rt_object_allocate, .Lfunc_end13-rt_object_allocate
	.cfi_endproc
	.cantunwind
	.fnend
                                        @ -- End function
	.section	.text.rt_object_delete,"ax",%progbits
	.hidden	rt_object_delete                @ -- Begin function rt_object_delete
	.globl	rt_object_delete
	.p2align	3
	.type	rt_object_delete,%function
	.code	16                              @ @rt_object_delete
	.thumb_func
rt_object_delete:
.Lfunc_begin14:
	.loc	2 478 0                         @ rt-thread/src/object.c:478:0
	.fnstart
	.cfi_startproc
@ %bb.0:
	.save	{r7, lr}
	push	{r7, lr}
	.cfi_def_cfa_offset 8
	.cfi_offset lr, -4
	.cfi_offset r7, -8
	.pad	#8
	sub	sp, #8
	.cfi_def_cfa_offset 16
	str	r0, [sp, #4]
.Ltmp116:
	.loc	2 482 5 prologue_end            @ rt-thread/src/object.c:482:5
	ldr	r0, [sp, #4]
.Ltmp117:
	.loc	2 482 5 is_stmt 0               @ rt-thread/src/object.c:482:5
	cbnz	r0, .LBB14_2
	b	.LBB14_1
.LBB14_1:
.Ltmp118:
	.loc	2 482 5                         @ rt-thread/src/object.c:482:5
	movw	r0, :lower16:.L.str.2
	movt	r0, :upper16:.L.str.2
	movw	r1, :lower16:.L__FUNCTION__.rt_object_delete
	movt	r1, :upper16:.L__FUNCTION__.rt_object_delete
	mov.w	r2, #482
	bl	rt_assert_handler
	b	.LBB14_2
.Ltmp119:
.LBB14_2:
	.loc	2 483 5 is_stmt 1               @ rt-thread/src/object.c:483:5
	ldr	r0, [sp, #4]
	ldrb	r0, [r0, #8]
.Ltmp120:
	.loc	2 483 5 is_stmt 0               @ rt-thread/src/object.c:483:5
	lsls	r0, r0, #24
	cmp	r0, #0
	bpl	.LBB14_4
	b	.LBB14_3
.LBB14_3:
.Ltmp121:
	.loc	2 483 5                         @ rt-thread/src/object.c:483:5
	movw	r0, :lower16:.L.str.4
	movt	r0, :upper16:.L.str.4
	movw	r1, :lower16:.L__FUNCTION__.rt_object_delete
	movt	r1, :upper16:.L__FUNCTION__.rt_object_delete
	movw	r2, #483
	bl	rt_assert_handler
	b	.LBB14_4
.Ltmp122:
.LBB14_4:
	.loc	2 485 5 is_stmt 1               @ rt-thread/src/object.c:485:5
	b	.LBB14_5
.LBB14_5:
.Ltmp123:
	.loc	2 485 5 is_stmt 0               @ rt-thread/src/object.c:485:5
	movw	r0, :lower16:rt_object_detach_hook
	movt	r0, :upper16:rt_object_detach_hook
	ldr	r0, [r0]
.Ltmp124:
	.loc	2 485 5                         @ rt-thread/src/object.c:485:5
	cbz	r0, .LBB14_7
	b	.LBB14_6
.LBB14_6:
.Ltmp125:
	.loc	2 485 5                         @ rt-thread/src/object.c:485:5
	movw	r0, :lower16:rt_object_detach_hook
	movt	r0, :upper16:rt_object_detach_hook
	ldr	r1, [r0]
	ldr	r0, [sp, #4]
	blx	r1
	b	.LBB14_7
.Ltmp126:
.LBB14_7:
	.loc	2 485 5                         @ rt-thread/src/object.c:485:5
	b	.LBB14_8
.Ltmp127:
.LBB14_8:
	.loc	2 488 5 is_stmt 1               @ rt-thread/src/object.c:488:5
	ldr	r1, [sp, #4]
	movs	r0, #0
	.loc	2 488 18 is_stmt 0              @ rt-thread/src/object.c:488:18
	strb	r0, [r1, #8]
	.loc	2 491 12 is_stmt 1              @ rt-thread/src/object.c:491:12
	bl	rt_hw_interrupt_disable
	.loc	2 491 10 is_stmt 0              @ rt-thread/src/object.c:491:10
	str	r0, [sp]
	.loc	2 494 22 is_stmt 1              @ rt-thread/src/object.c:494:22
	ldr	r0, [sp, #4]
	.loc	2 494 30 is_stmt 0              @ rt-thread/src/object.c:494:30
	adds	r0, #12
	.loc	2 494 5                         @ rt-thread/src/object.c:494:5
	bl	rt_list_remove
	.loc	2 497 28 is_stmt 1              @ rt-thread/src/object.c:497:28
	ldr	r0, [sp]
	.loc	2 497 5 is_stmt 0               @ rt-thread/src/object.c:497:5
	bl	rt_hw_interrupt_enable
	.loc	2 500 5 is_stmt 1               @ rt-thread/src/object.c:500:5
	ldr	r0, [sp, #4]
	bl	rt_free
	.loc	2 501 1                         @ rt-thread/src/object.c:501:1
	add	sp, #8
	pop	{r7, pc}
.Ltmp128:
.Lfunc_end14:
	.size	rt_object_delete, .Lfunc_end14-rt_object_delete
	.cfi_endproc
	.cantunwind
	.fnend
                                        @ -- End function
	.section	.text.rt_object_is_systemobject,"ax",%progbits
	.hidden	rt_object_is_systemobject       @ -- Begin function rt_object_is_systemobject
	.globl	rt_object_is_systemobject
	.p2align	3
	.type	rt_object_is_systemobject,%function
	.code	16                              @ @rt_object_is_systemobject
	.thumb_func
rt_object_is_systemobject:
.Lfunc_begin15:
	.loc	2 514 0                         @ rt-thread/src/object.c:514:0
	.fnstart
	.cfi_startproc
@ %bb.0:
	.save	{r7, lr}
	push	{r7, lr}
	.cfi_def_cfa_offset 8
	.cfi_offset lr, -4
	.cfi_offset r7, -8
	.pad	#8
	sub	sp, #8
	.cfi_def_cfa_offset 16
	str	r0, [sp]
.Ltmp129:
	.loc	2 516 5 prologue_end            @ rt-thread/src/object.c:516:5
	ldr	r0, [sp]
.Ltmp130:
	.loc	2 516 5 is_stmt 0               @ rt-thread/src/object.c:516:5
	cbnz	r0, .LBB15_2
	b	.LBB15_1
.LBB15_1:
.Ltmp131:
	.loc	2 516 5                         @ rt-thread/src/object.c:516:5
	movw	r0, :lower16:.L.str.2
	movt	r0, :upper16:.L.str.2
	movw	r1, :lower16:.L__FUNCTION__.rt_object_is_systemobject
	movt	r1, :upper16:.L__FUNCTION__.rt_object_is_systemobject
	mov.w	r2, #516
	bl	rt_assert_handler
	b	.LBB15_2
.Ltmp132:
.LBB15_2:
	.loc	2 518 9 is_stmt 1               @ rt-thread/src/object.c:518:9
	ldr	r0, [sp]
	ldrb	r0, [r0, #8]
.Ltmp133:
	.loc	2 518 9 is_stmt 0               @ rt-thread/src/object.c:518:9
	lsls	r0, r0, #24
	cmp	r0, #0
	bpl	.LBB15_4
	b	.LBB15_3
.LBB15_3:
	.loc	2 0 9                           @ rt-thread/src/object.c:0:9
	movs	r0, #1
.Ltmp134:
	.loc	2 519 9 is_stmt 1               @ rt-thread/src/object.c:519:9
	str	r0, [sp, #4]
	b	.LBB15_5
.Ltmp135:
.LBB15_4:
	.loc	2 0 9 is_stmt 0                 @ rt-thread/src/object.c:0:9
	movs	r0, #0
	.loc	2 521 5 is_stmt 1               @ rt-thread/src/object.c:521:5
	str	r0, [sp, #4]
	b	.LBB15_5
.LBB15_5:
	.loc	2 522 1                         @ rt-thread/src/object.c:522:1
	ldr	r0, [sp, #4]
	add	sp, #8
	pop	{r7, pc}
.Ltmp136:
.Lfunc_end15:
	.size	rt_object_is_systemobject, .Lfunc_end15-rt_object_is_systemobject
	.cfi_endproc
	.cantunwind
	.fnend
                                        @ -- End function
	.section	.text.rt_object_get_type,"ax",%progbits
	.hidden	rt_object_get_type              @ -- Begin function rt_object_get_type
	.globl	rt_object_get_type
	.p2align	3
	.type	rt_object_get_type,%function
	.code	16                              @ @rt_object_get_type
	.thumb_func
rt_object_get_type:
.Lfunc_begin16:
	.loc	2 533 0                         @ rt-thread/src/object.c:533:0
	.fnstart
	.cfi_startproc
@ %bb.0:
	.save	{r7, lr}
	push	{r7, lr}
	.cfi_def_cfa_offset 8
	.cfi_offset lr, -4
	.cfi_offset r7, -8
	.pad	#8
	sub	sp, #8
	.cfi_def_cfa_offset 16
	str	r0, [sp, #4]
.Ltmp137:
	.loc	2 535 5 prologue_end            @ rt-thread/src/object.c:535:5
	ldr	r0, [sp, #4]
.Ltmp138:
	.loc	2 535 5 is_stmt 0               @ rt-thread/src/object.c:535:5
	cbnz	r0, .LBB16_2
	b	.LBB16_1
.LBB16_1:
.Ltmp139:
	.loc	2 535 5                         @ rt-thread/src/object.c:535:5
	movw	r0, :lower16:.L.str.2
	movt	r0, :upper16:.L.str.2
	movw	r1, :lower16:.L__FUNCTION__.rt_object_get_type
	movt	r1, :upper16:.L__FUNCTION__.rt_object_get_type
	movw	r2, #535
	bl	rt_assert_handler
	b	.LBB16_2
.Ltmp140:
.LBB16_2:
	.loc	2 537 12 is_stmt 1              @ rt-thread/src/object.c:537:12
	ldr	r0, [sp, #4]
	ldrb	r0, [r0, #8]
	.loc	2 537 25 is_stmt 0              @ rt-thread/src/object.c:537:25
	and	r0, r0, #127
	.loc	2 537 5                         @ rt-thread/src/object.c:537:5
	add	sp, #8
	pop	{r7, pc}
.Ltmp141:
.Lfunc_end16:
	.size	rt_object_get_type, .Lfunc_end16-rt_object_get_type
	.cfi_endproc
	.cantunwind
	.fnend
                                        @ -- End function
	.section	.text.rt_object_find,"ax",%progbits
	.hidden	rt_object_find                  @ -- Begin function rt_object_find
	.globl	rt_object_find
	.p2align	3
	.type	rt_object_find,%function
	.code	16                              @ @rt_object_find
	.thumb_func
rt_object_find:
.Lfunc_begin17:
	.loc	2 553 0 is_stmt 1               @ rt-thread/src/object.c:553:0
	.fnstart
	.cfi_startproc
@ %bb.0:
	.save	{r7, lr}
	push	{r7, lr}
	.cfi_def_cfa_offset 8
	.cfi_offset lr, -4
	.cfi_offset r7, -8
	.pad	#32
	sub	sp, #32
	.cfi_def_cfa_offset 40
                                        @ kill: def $r2 killed $r1
	str	r0, [sp, #24]
	strb.w	r1, [sp, #23]
	movs	r0, #0
.Ltmp142:
	.loc	2 554 23 prologue_end           @ rt-thread/src/object.c:554:23
	str	r0, [sp, #16]
	.loc	2 555 26                        @ rt-thread/src/object.c:555:26
	str	r0, [sp, #12]
	.loc	2 556 35                        @ rt-thread/src/object.c:556:35
	str	r0, [sp, #8]
	.loc	2 558 72                        @ rt-thread/src/object.c:558:72
	ldrb.w	r0, [sp, #23]
	.loc	2 558 19 is_stmt 0              @ rt-thread/src/object.c:558:19
	bl	rt_object_get_information
	.loc	2 558 17                        @ rt-thread/src/object.c:558:17
	str	r0, [sp, #8]
.Ltmp143:
	.loc	2 561 10 is_stmt 1              @ rt-thread/src/object.c:561:10
	ldr	r0, [sp, #24]
	.loc	2 561 27 is_stmt 0              @ rt-thread/src/object.c:561:27
	cbz	r0, .LBB17_2
	b	.LBB17_1
.LBB17_1:
	.loc	2 561 31                        @ rt-thread/src/object.c:561:31
	ldr	r0, [sp, #8]
.Ltmp144:
	.loc	2 561 9                         @ rt-thread/src/object.c:561:9
	cbnz	r0, .LBB17_3
	b	.LBB17_2
.LBB17_2:
	.loc	2 0 9                           @ rt-thread/src/object.c:0:9
	movs	r0, #0
.Ltmp145:
	.loc	2 561 56                        @ rt-thread/src/object.c:561:56
	str	r0, [sp, #28]
	b	.LBB17_14
.Ltmp146:
.LBB17_3:
	.loc	2 564 5 is_stmt 1               @ rt-thread/src/object.c:564:5
	b	.LBB17_4
.LBB17_4:
.Ltmp147:
	.loc	2 564 5 is_stmt 0               @ rt-thread/src/object.c:564:5
	bl	rt_hw_interrupt_disable
	str	r0, [sp, #4]
.Ltmp148:
	.loc	2 564 5                         @ rt-thread/src/object.c:564:5
	bl	rt_interrupt_get_nest
.Ltmp149:
	.loc	2 564 5                         @ rt-thread/src/object.c:564:5
	cbz	r0, .LBB17_6
	b	.LBB17_5
.LBB17_5:
.Ltmp150:
	.loc	2 564 5                         @ rt-thread/src/object.c:564:5
	movw	r0, :lower16:.L.str.3
	movt	r0, :upper16:.L.str.3
	movw	r1, :lower16:.L__FUNCTION__.rt_object_find
	movt	r1, :upper16:.L__FUNCTION__.rt_object_find
	mov.w	r2, #564
	bl	rt_assert_handler
.Ltmp151:
	.loc	2 564 5                         @ rt-thread/src/object.c:564:5
	b	.LBB17_6
.Ltmp152:
.LBB17_6:
	.loc	2 564 5                         @ rt-thread/src/object.c:564:5
	ldr	r0, [sp, #4]
	bl	rt_hw_interrupt_enable
	b	.LBB17_7
.Ltmp153:
.LBB17_7:
	.loc	2 567 5 is_stmt 1               @ rt-thread/src/object.c:567:5
	bl	rt_enter_critical
.Ltmp154:
	.loc	2 570 5                         @ rt-thread/src/object.c:570:5
	ldr	r0, [sp, #8]
	ldr	r0, [r0, #4]
	str	r0, [sp, #12]
	b	.LBB17_8
.LBB17_8:                               @ =>This Inner Loop Header: Depth=1
.Ltmp155:
	.loc	2 570 5 is_stmt 0               @ rt-thread/src/object.c:570:5
	ldr	r0, [sp, #12]
	ldr	r1, [sp, #8]
	adds	r1, #4
.Ltmp156:
	.loc	2 570 5                         @ rt-thread/src/object.c:570:5
	cmp	r0, r1
	beq	.LBB17_13
	b	.LBB17_9
.LBB17_9:                               @   in Loop: Header=BB17_8 Depth=1
.Ltmp157:
	.loc	2 572 18 is_stmt 1              @ rt-thread/src/object.c:572:18
	ldr	r0, [sp, #12]
	subs	r0, #12
	.loc	2 572 16 is_stmt 0              @ rt-thread/src/object.c:572:16
	str	r0, [sp, #16]
.Ltmp158:
	.loc	2 573 24 is_stmt 1              @ rt-thread/src/object.c:573:24
	ldr	r0, [sp, #16]
	.loc	2 573 38 is_stmt 0              @ rt-thread/src/object.c:573:38
	ldr	r1, [sp, #24]
	movs	r2, #8
	.loc	2 573 13                        @ rt-thread/src/object.c:573:13
	bl	rt_strncmp
.Ltmp159:
	.loc	2 573 13                        @ rt-thread/src/object.c:573:13
	cbnz	r0, .LBB17_11
	b	.LBB17_10
.LBB17_10:
.Ltmp160:
	.loc	2 576 13 is_stmt 1              @ rt-thread/src/object.c:576:13
	bl	rt_exit_critical
	.loc	2 578 20                        @ rt-thread/src/object.c:578:20
	ldr	r0, [sp, #16]
	.loc	2 578 13 is_stmt 0              @ rt-thread/src/object.c:578:13
	str	r0, [sp, #28]
	b	.LBB17_14
.Ltmp161:
.LBB17_11:                              @   in Loop: Header=BB17_8 Depth=1
	.loc	2 580 5 is_stmt 1               @ rt-thread/src/object.c:580:5
	b	.LBB17_12
.Ltmp162:
.LBB17_12:                              @   in Loop: Header=BB17_8 Depth=1
	.loc	2 570 5                         @ rt-thread/src/object.c:570:5
	ldr	r0, [sp, #12]
	ldr	r0, [r0]
	str	r0, [sp, #12]
	b	.LBB17_8
.Ltmp163:
.LBB17_13:
	.loc	2 583 5                         @ rt-thread/src/object.c:583:5
	bl	rt_exit_critical
	movs	r0, #0
	.loc	2 585 5                         @ rt-thread/src/object.c:585:5
	str	r0, [sp, #28]
	b	.LBB17_14
.LBB17_14:
	.loc	2 586 1                         @ rt-thread/src/object.c:586:1
	ldr	r0, [sp, #28]
	add	sp, #32
	pop	{r7, pc}
.Ltmp164:
.Lfunc_end17:
	.size	rt_object_find, .Lfunc_end17-rt_object_find
	.cfi_endproc
	.cantunwind
	.fnend
                                        @ -- End function
	.type	rt_object_attach_hook,%object   @ @rt_object_attach_hook
	.section	.bss.rt_object_attach_hook,"aw",%nobits
	.p2align	2
rt_object_attach_hook:
	.long	0
	.size	rt_object_attach_hook, 4

	.type	rt_object_detach_hook,%object   @ @rt_object_detach_hook
	.section	.bss.rt_object_detach_hook,"aw",%nobits
	.p2align	2
rt_object_detach_hook:
	.long	0
	.size	rt_object_detach_hook, 4

	.hidden	rt_object_trytake_hook          @ @rt_object_trytake_hook
	.type	rt_object_trytake_hook,%object
	.section	.bss.rt_object_trytake_hook,"aw",%nobits
	.globl	rt_object_trytake_hook
	.p2align	2
rt_object_trytake_hook:
	.long	0
	.size	rt_object_trytake_hook, 4

	.hidden	rt_object_take_hook             @ @rt_object_take_hook
	.type	rt_object_take_hook,%object
	.section	.bss.rt_object_take_hook,"aw",%nobits
	.globl	rt_object_take_hook
	.p2align	2
rt_object_take_hook:
	.long	0
	.size	rt_object_take_hook, 4

	.hidden	rt_object_put_hook              @ @rt_object_put_hook
	.type	rt_object_put_hook,%object
	.section	.bss.rt_object_put_hook,"aw",%nobits
	.globl	rt_object_put_hook
	.p2align	2
rt_object_put_hook:
	.long	0
	.size	rt_object_put_hook, 4

	.type	rt_object_container,%object     @ @rt_object_container
	.section	.data.rt_object_container,"aw",%progbits
	.p2align	2
rt_object_container:
	.byte	1                               @ 0x1
	.zero	3
	.long	rt_object_container+4
	.long	rt_object_container+4
	.long	128                             @ 0x80
	.byte	2                               @ 0x2
	.zero	3
	.long	rt_object_container+20
	.long	rt_object_container+20
	.long	32                              @ 0x20
	.byte	3                               @ 0x3
	.zero	3
	.long	rt_object_container+36
	.long	rt_object_container+36
	.long	36                              @ 0x24
	.byte	4                               @ 0x4
	.zero	3
	.long	rt_object_container+52
	.long	rt_object_container+52
	.long	32                              @ 0x20
	.byte	5                               @ 0x5
	.zero	3
	.long	rt_object_container+68
	.long	rt_object_container+68
	.long	48                              @ 0x30
	.byte	6                               @ 0x6
	.zero	3
	.long	rt_object_container+84
	.long	rt_object_container+84
	.long	60                              @ 0x3c
	.byte	7                               @ 0x7
	.zero	3
	.long	rt_object_container+100
	.long	rt_object_container+100
	.long	100                             @ 0x64
	.byte	8                               @ 0x8
	.zero	3
	.long	rt_object_container+116
	.long	rt_object_container+116
	.long	52                              @ 0x34
	.byte	9                               @ 0x9
	.zero	3
	.long	rt_object_container+132
	.long	rt_object_container+132
	.long	80                              @ 0x50
	.byte	10                              @ 0xa
	.zero	3
	.long	rt_object_container+148
	.long	rt_object_container+148
	.long	44                              @ 0x2c
	.size	rt_object_container, 160

	.type	.L.str,%object                  @ @.str
	.section	.rodata.str1.1,"aMS",%progbits,1
.L.str:
	.asciz	"information != RT_NULL"
	.size	.L.str, 23

	.type	.L__FUNCTION__.rt_object_init,%object @ @__FUNCTION__.rt_object_init
.L__FUNCTION__.rt_object_init:
	.asciz	"rt_object_init"
	.size	.L__FUNCTION__.rt_object_init, 15

	.type	.L.str.1,%object                @ @.str.1
.L.str.1:
	.asciz	"obj != object"
	.size	.L.str.1, 14

	.type	.L.str.2,%object                @ @.str.2
.L.str.2:
	.asciz	"object != RT_NULL"
	.size	.L.str.2, 18

	.type	.L__FUNCTION__.rt_object_detach,%object @ @__FUNCTION__.rt_object_detach
.L__FUNCTION__.rt_object_detach:
	.asciz	"rt_object_detach"
	.size	.L__FUNCTION__.rt_object_detach, 17

	.type	.L.str.3,%object                @ @.str.3
.L.str.3:
	.asciz	"0"
	.size	.L.str.3, 2

	.type	.L__FUNCTION__.rt_object_allocate,%object @ @__FUNCTION__.rt_object_allocate
.L__FUNCTION__.rt_object_allocate:
	.asciz	"rt_object_allocate"
	.size	.L__FUNCTION__.rt_object_allocate, 19

	.type	.L__FUNCTION__.rt_object_delete,%object @ @__FUNCTION__.rt_object_delete
.L__FUNCTION__.rt_object_delete:
	.asciz	"rt_object_delete"
	.size	.L__FUNCTION__.rt_object_delete, 17

	.type	.L.str.4,%object                @ @.str.4
.L.str.4:
	.asciz	"!(object->type & RT_Object_Class_Static)"
	.size	.L.str.4, 41

	.type	.L__FUNCTION__.rt_object_is_systemobject,%object @ @__FUNCTION__.rt_object_is_systemobject
.L__FUNCTION__.rt_object_is_systemobject:
	.asciz	"rt_object_is_systemobject"
	.size	.L__FUNCTION__.rt_object_is_systemobject, 26

	.type	.L__FUNCTION__.rt_object_get_type,%object @ @__FUNCTION__.rt_object_get_type
.L__FUNCTION__.rt_object_get_type:
	.asciz	"rt_object_get_type"
	.size	.L__FUNCTION__.rt_object_get_type, 19

	.type	.L__FUNCTION__.rt_object_find,%object @ @__FUNCTION__.rt_object_find
.L__FUNCTION__.rt_object_find:
	.asciz	"rt_object_find"
	.size	.L__FUNCTION__.rt_object_find, 15

	.section	".note.GNU-stack","",%progbits
	.eabi_attribute	30, 6	@ Tag_ABI_optimization_goals
	.ARM_attribute	16, 1	@ Tag_AV_eba