	.text
	.syntax unified
	.eabi_attribute	67, "2.09"	@ Tag_conformance
	.cpu	cortex-m7
	.eabi_attribute	6, 13	@ Tag_CPU_arch
	.eabi_attribute	7, 77	@ Tag_CPU_arch_profile
	.eabi_attribute	8, 0	@ Tag_ARM_ISA_use
	.eabi_attribute	9, 2	@ Tag_THUMB_ISA_use
	.fpu	fpv5-d16
	.eabi_attribute	36, 1	@ Tag_FP_HP_extension
	.eabi_attribute	34, 1	@ Tag_CPU_unaligned_access
	.eabi_attribute	17, 1	@ Tag_ABI_PCS_GOT_use
	.eabi_attribute	20, 2	@ Tag_ABI_FP_denormal
	.eabi_attribute	21, 0	@ Tag_ABI_FP_exceptions
	.eabi_attribute	23, 1	@ Tag_ABI_FP_number_model
	.eabi_attribute	24, 1	@ Tag_ABI_align_needed
	.eabi_attribute	25, 1	@ Tag_ABI_align_preserved
	.eabi_attribute	28, 1	@ Tag_ABI_VFP_args
	.eabi_attribute	38, 1	@ Tag_ABI_FP_16bit_format
	.eabi_attribute	18, 2	@ Tag_ABI_PCS_wchar_t
	.eabi_attribute	26, 1	@ Tag_ABI_enum_size
	.eabi_attribute	14, 0	@ Tag_ABI_PCS_R9_use
	.file	"ov2640_app.c"
	.file	1 "E:\\Smart-access-control\\Hardware\\CODE" "./lvgl/src/lv_hal/../lv_misc/lv_task.h"
	.file	2 "D:\\Keil_v5\\ARM\\ARMCLANG\\Bin\\..\\include" "stdint.h"
	.file	3 "E:\\Smart-access-control\\Hardware\\CODE" "libraries/STM32H7xx_HAL/CMSIS/Device/ST/STM32H7xx/Include/stm32h750xx.h"
	.file	4 "E:\\Smart-access-control\\Hardware\\CODE" "rt-thread/include\\rtdef.h"
	.section	.text.ov_restart_process,"ax",%progbits
	.hidden	ov_restart_process              @ -- Begin function ov_restart_process
	.globl	ov_restart_process
	.p2align	3
	.type	ov_restart_process,%function
	.code	16                              @ @ov_restart_process
	.thumb_func
ov_restart_process:
.Lfunc_begin0:
	.file	5 "E:\\Smart-access-control\\Hardware\\CODE" "applications/OV2640/ov2640_app.c"
	.loc	5 9 0                           @ applications/OV2640/ov2640_app.c:9:0
	.fnstart
	.cfi_sections .debug_frame
	.cfi_startproc
@ %bb.0:
	.save	{r7, lr}
	push	{r7, lr}
	.cfi_def_cfa_offset 8
	.cfi_offset lr, -4
	.cfi_offset r7, -8
.Ltmp0:
	.loc	5 10 2 prologue_end             @ applications/OV2640/ov2640_app.c:10:2
	bl	rt_enter_critical
	.loc	5 11 3                          @ applications/OV2640/ov2640_app.c:11:3
	movw	r0, :lower16:hdma_dcmi
	movt	r0, :upper16:hdma_dcmi
	ldr	r0, [r0]
	movs	r1, #16
	movt	r1, #16386
	cmp	r0, r1
	beq.w	.LBB0_16
	b	.LBB0_1
.LBB0_1:
	movw	r0, :lower16:hdma_dcmi
	movt	r0, :upper16:hdma_dcmi
	ldr	r0, [r0]
	movs	r1, #40
	movt	r1, #16386
	cmp	r0, r1
	beq.w	.LBB0_16
	b	.LBB0_2
.LBB0_2:
	movw	r0, :lower16:hdma_dcmi
	movt	r0, :upper16:hdma_dcmi
	ldr	r0, [r0]
	movs	r1, #64
	movt	r1, #16386
	cmp	r0, r1
	beq.w	.LBB0_16
	b	.LBB0_3
.LBB0_3:
	movw	r0, :lower16:hdma_dcmi
	movt	r0, :upper16:hdma_dcmi
	ldr	r0, [r0]
	movs	r1, #88
	movt	r1, #16386
	cmp	r0, r1
	beq.w	.LBB0_16
	b	.LBB0_4
.LBB0_4:
	movw	r0, :lower16:hdma_dcmi
	movt	r0, :upper16:hdma_dcmi
	ldr	r0, [r0]
	movs	r1, #112
	movt	r1, #16386
	cmp	r0, r1
	beq.w	.LBB0_16
	b	.LBB0_5
.LBB0_5:
	movw	r0, :lower16:hdma_dcmi
	movt	r0, :upper16:hdma_dcmi
	ldr	r0, [r0]
	movs	r1, #136
	movt	r1, #16386
	cmp	r0, r1
	beq	.LBB0_16
	b	.LBB0_6
.LBB0_6:
	movw	r0, :lower16:hdma_dcmi
	movt	r0, :upper16:hdma_dcmi
	ldr	r0, [r0]
	movs	r1, #160
	movt	r1, #16386
	cmp	r0, r1
	beq	.LBB0_16
	b	.LBB0_7
.LBB0_7:
	movw	r0, :lower16:hdma_dcmi
	movt	r0, :upper16:hdma_dcmi
	ldr	r0, [r0]
	movs	r1, #184
	movt	r1, #16386
	cmp	r0, r1
	beq	.LBB0_16
	b	.LBB0_8
.LBB0_8:
	movw	r0, :lower16:hdma_dcmi
	movt	r0, :upper16:hdma_dcmi
	ldr	r0, [r0]
	movw	r1, #1040
	movt	r1, #16386
	cmp	r0, r1
	beq	.LBB0_16
	b	.LBB0_9
.LBB0_9:
	movw	r0, :lower16:hdma_dcmi
	movt	r0, :upper16:hdma_dcmi
	ldr	r0, [r0]
	movw	r1, #1064
	movt	r1, #16386
	cmp	r0, r1
	beq	.LBB0_16
	b	.LBB0_10
.LBB0_10:
	movw	r0, :lower16:hdma_dcmi
	movt	r0, :upper16:hdma_dcmi
	ldr	r0, [r0]
	movw	r1, #1088
	movt	r1, #16386
	cmp	r0, r1
	beq	.LBB0_16
	b	.LBB0_11
.LBB0_11:
	movw	r0, :lower16:hdma_dcmi
	movt	r0, :upper16:hdma_dcmi
	ldr	r0, [r0]
	movw	r1, #1112
	movt	r1, #16386
	cmp	r0, r1
	beq	.LBB0_16
	b	.LBB0_12
.LBB0_12:
	movw	r0, :lower16:hdma_dcmi
	movt	r0, :upper16:hdma_dcmi
	ldr	r0, [r0]
	movw	r1, #1136
	movt	r1, #16386
	cmp	r0, r1
	beq	.LBB0_16
	b	.LBB0_13
.LBB0_13:
	movw	r0, :lower16:hdma_dcmi
	movt	r0, :upper16:hdma_dcmi
	ldr	r0, [r0]
	movw	r1, #1160
	movt	r1, #16386
	cmp	r0, r1
	beq	.LBB0_16
	b	.LBB0_14
.LBB0_14:
	movw	r0, :lower16:hdma_dcmi
	movt	r0, :upper16:hdma_dcmi
	ldr	r0, [r0]
	movw	r1, #1184
	movt	r1, #16386
	cmp	r0, r1
	beq	.LBB0_16
	b	.LBB0_15
.LBB0_15:
	movw	r0, :lower16:hdma_dcmi
	movt	r0, :upper16:hdma_dcmi
	ldr	r0, [r0]
	movw	r1, #1208
	movt	r1, #16386
	cmp	r0, r1
	bne	.LBB0_17
	b	.LBB0_16
.LBB0_16:
	movw	r0, :lower16:hdma_dcmi
	movt	r0, :upper16:hdma_dcmi
	ldr	r1, [r0]
	ldr	r0, [r1]
	orr	r0, r0, #1
                                        @ kill: def $r2 killed $r0
	str	r0, [r1]
	b	.LBB0_18
.LBB0_17:
	movw	r0, :lower16:hdma_dcmi
	movt	r0, :upper16:hdma_dcmi
	ldr	r1, [r0]
	ldr	r0, [r1]
	orr	r0, r0, #1
                                        @ kill: def $r2 killed $r0
	str	r0, [r1]
	b	.LBB0_18
.LBB0_18:
	.loc	5 0 3 is_stmt 0                 @ applications/OV2640/ov2640_app.c:0:3
	movs	r1, #0
	movt	r1, #18434
	.loc	5 12 14 is_stmt 1               @ applications/OV2640/ov2640_app.c:12:14
	ldr	r0, [r1]
	orr	r0, r0, #1
	str	r0, [r1]
	movs	r0, #15
	movs	r1, #0
	.loc	5 13 2                          @ applications/OV2640/ov2640_app.c:13:2
	bl	rt_pin_write
	.loc	5 14 19                         @ applications/OV2640/ov2640_app.c:14:19
	movw	r0, :lower16:ov_data_process_task
	movt	r0, :upper16:ov_data_process_task
	ldr	r0, [r0]
	.loc	5 14 2 is_stmt 0                @ applications/OV2640/ov2640_app.c:14:2
	bl	rt_thread_resume
	.loc	5 15 2 is_stmt 1                @ applications/OV2640/ov2640_app.c:15:2
	bl	rt_exit_critical
	.loc	5 16 1                          @ applications/OV2640/ov2640_app.c:16:1
	pop	{r7, pc}
.Ltmp1:
.Lfunc_end0:
	.size	ov_restart_process, .Lfunc_end0-ov_restart_process
	.cfi_endproc
	.cantunwind
	.fnend
                                        @ -- End function
	.section	.text.ov_stop_process,"ax",%progbits
	.hidden	ov_stop_process                 @ -- Begin function ov_stop_process
	.globl	ov_stop_process
	.p2align	3
	.type	ov_stop_process,%function
	.code	16                              @ @ov_stop_process
	.thumb_func
ov_stop_process:
.Lfunc_begin1:
	.loc	5 18 0                          @ applications/OV2640/ov2640_app.c:18:0
	.fnstart
	.cfi_startproc
@ %bb.0:
	.save	{r7, lr}
	push	{r7, lr}
	.cfi_def_cfa_offset 8
	.cfi_offset lr, -4
	.cfi_offset r7, -8
.Ltmp2:
	.loc	5 19 2 prologue_end             @ applications/OV2640/ov2640_app.c:19:2
	bl	rt_enter_critical
	.loc	5 20 14                         @ applications/OV2640/ov2640_app.c:20:14
	movw	r0, :lower16:ov_sync_sem
	movt	r0, :upper16:ov_sync_sem
	ldr	r0, [r0]
	movs	r1, #10
	.loc	5 20 2 is_stmt 0                @ applications/OV2640/ov2640_app.c:20:2
	bl	rt_sem_take
	.loc	5 21 20 is_stmt 1               @ applications/OV2640/ov2640_app.c:21:20
	movw	r0, :lower16:ov_data_process_task
	movt	r0, :upper16:ov_data_process_task
	ldr	r0, [r0]
	.loc	5 21 2 is_stmt 0                @ applications/OV2640/ov2640_app.c:21:2
	bl	rt_thread_suspend
	movs	r1, #0
	movt	r1, #18434
	.loc	5 22 11 is_stmt 1               @ applications/OV2640/ov2640_app.c:22:11
	ldr	r0, [r1]
	bic	r0, r0, #1
	str	r0, [r1]
	.loc	5 23 2                          @ applications/OV2640/ov2640_app.c:23:2
	b	.LBB1_1
.LBB1_1:                                @ =>This Inner Loop Header: Depth=1
	.loc	5 0 2 is_stmt 0                 @ applications/OV2640/ov2640_app.c:0:2
	movs	r0, #0
	movt	r0, #18434
	.loc	5 23 15                         @ applications/OV2640/ov2640_app.c:23:15
	ldr	r0, [r0]
	.loc	5 23 2                          @ applications/OV2640/ov2640_app.c:23:2
	lsls	r0, r0, #31
	cbz	r0, .LBB1_3
	b	.LBB1_2
.LBB1_2:                                @   in Loop: Header=BB1_1 Depth=1
	b	.LBB1_1
.LBB1_3:
	.loc	5 25 2 is_stmt 1                @ applications/OV2640/ov2640_app.c:25:2
	movw	r0, :lower16:hdma_dcmi
	movt	r0, :upper16:hdma_dcmi
	ldr	r0, [r0]
	movs	r1, #16
	movt	r1, #16386
	cmp	r0, r1
	beq.w	.LBB1_19
	b	.LBB1_4
.LBB1_4:
	movw	r0, :lower16:hdma_dcmi
	movt	r0, :upper16:hdma_dcmi
	ldr	r0, [r0]
	movs	r1, #40
	movt	r1, #16386
	cmp	r0, r1
	beq.w	.LBB1_19
	b	.LBB1_5
.LBB1_5:
	movw	r0, :lower16:hdma_dcmi
	movt	r0, :upper16:hdma_dcmi
	ldr	r0, [r0]
	movs	r1, #64
	movt	r1, #16386
	cmp	r0, r1
	beq.w	.LBB1_19
	b	.LBB1_6
.LBB1_6:
	movw	r0, :lower16:hdma_dcmi
	movt	r0, :upper16:hdma_dcmi
	ldr	r0, [r0]
	movs	r1, #88
	movt	r1, #16386
	cmp	r0, r1
	beq.w	.LBB1_19
	b	.LBB1_7
.LBB1_7:
	movw	r0, :lower16:hdma_dcmi
	movt	r0, :upper16:hdma_dcmi
	ldr	r0, [r0]
	movs	r1, #112
	movt	r1, #16386
	cmp	r0, r1
	beq.w	.LBB1_19
	b	.LBB1_8
.LBB1_8:
	movw	r0, :lower16:hdma_dcmi
	movt	r0, :upper16:hdma_dcmi
	ldr	r0, [r0]
	movs	r1, #136
	movt	r1, #16386
	cmp	r0, r1
	beq	.LBB1_19
	b	.LBB1_9
.LBB1_9:
	movw	r0, :lower16:hdma_dcmi
	movt	r0, :upper16:hdma_dcmi
	ldr	r0, [r0]
	movs	r1, #160
	movt	r1, #16386
	cmp	r0, r1
	beq	.LBB1_19
	b	.LBB1_10
.LBB1_10:
	movw	r0, :lower16:hdma_dcmi
	movt	r0, :upper16:hdma_dcmi
	ldr	r0, [r0]
	movs	r1, #184
	movt	r1, #16386
	cmp	r0, r1
	beq	.LBB1_19
	b	.LBB1_11
.LBB1_11:
	movw	r0, :lower16:hdma_dcmi
	movt	r0, :upper16:hdma_dcmi
	ldr	r0, [r0]
	movw	r1, #1040
	movt	r1, #16386
	cmp	r0, r1
	beq	.LBB1_19
	b	.LBB1_12
.LBB1_12:
	movw	r0, :lower16:hdma_dcmi
	movt	r0, :upper16:hdma_dcmi
	ldr	r0, [r0]
	movw	r1, #1064
	movt	r1, #16386
	cmp	r0, r1
	beq	.LBB1_19
	b	.LBB1_13
.LBB1_13:
	movw	r0, :lower16:hdma_dcmi
	movt	r0, :upper16:hdma_dcmi
	ldr	r0, [r0]
	movw	r1, #1088
	movt	r1, #16386
	cmp	r0, r1
	beq	.LBB1_19
	b	.LBB1_14
.LBB1_14:
	movw	r0, :lower16:hdma_dcmi
	movt	r0, :upper16:hdma_dcmi
	ldr	r0, [r0]
	movw	r1, #1112
	movt	r1, #16386
	cmp	r0, r1
	beq	.LBB1_19
	b	.LBB1_15
.LBB1_15:
	movw	r0, :lower16:hdma_dcmi
	movt	r0, :upper16:hdma_dcmi
	ldr	r0, [r0]
	movw	r1, #1136
	movt	r1, #16386
	cmp	r0, r1
	beq	.LBB1_19
	b	.LBB1_16
.LBB1_16:
	movw	r0, :lower16:hdma_dcmi
	movt	r0, :upper16:hdma_dcmi
	ldr	r0, [r0]
	movw	r1, #1160
	movt	r1, #16386
	cmp	r0, r1
	beq	.LBB1_19
	b	.LBB1_17
.LBB1_17:
	movw	r0, :lower16:hdma_dcmi
	movt	r0, :upper16:hdma_dcmi
	ldr	r0, [r0]
	movw	r1, #1184
	movt	r1, #16386
	cmp	r0, r1
	beq	.LBB1_19
	b	.LBB1_18
.LBB1_18:
	movw	r0, :lower16:hdma_dcmi
	movt	r0, :upper16:hdma_dcmi
	ldr	r0, [r0]
	movw	r1, #1208
	movt	r1, #16386
	cmp	r0, r1
	bne	.LBB1_20
	b	.LBB1_19
.LBB1_19:
	movw	r0, :lower16:hdma_dcmi
	movt	r0, :upper16:hdma_dcmi
	ldr	r1, [r0]
	ldr	r0, [r1]
	bic	r0, r0, #1
                                        @ kill: def $r2 killed $r0
	str	r0, [r1]
	b	.LBB1_21
.LBB1_20:
	movw	r0, :lower16:hdma_dcmi
	movt	r0, :upper16:hdma_dcmi
	ldr	r1, [r0]
	ldr	r0, [r1]
	bic	r0, r0, #1
                                        @ kill: def $r2 killed $r0
	str	r0, [r1]
	b	.LBB1_21
.LBB1_21:
	.loc	5 0 2 is_stmt 0                 @ applications/OV2640/ov2640_app.c:0:2
	movs	r0, #15
	movs	r1, #1
	.loc	5 26 2 is_stmt 1                @ applications/OV2640/ov2640_app.c:26:2
	bl	rt_pin_write
	.loc	5 27 2                          @ applications/OV2640/ov2640_app.c:27:2
	bl	rt_exit_critical
	.loc	5 28 1                          @ applications/OV2640/ov2640_app.c:28:1
	pop	{r7, pc}
.Ltmp3:
.Lfunc_end1:
	.size	ov_stop_process, .Lfunc_end1-ov_stop_process
	.cfi_endproc
	.cantunwind
	.fnend
                                        @ -- End function
	.section	.text.ov_data_process,"ax",%progbits
	.hidden	ov_data_process                 @ -- Begin function ov_data_process
	.globl	ov_data_process
	.p2align	3
	.type	ov_data_process,%function
	.code	16                              @ @ov_data_process
	.thumb_func
ov_data_process:
.Lfunc_begin2:
	.loc	5 30 0                          @ applications/OV2640/ov2640_app.c:30:0
	.fnstart
	.cfi_startproc
@ %bb.0:
	.save	{r7, lr}
	push	{r7, lr}
	.cfi_def_cfa_offset 8
	.cfi_offset lr, -4
	.cfi_offset r7, -8
	.pad	#112
	sub	sp, #112
	.cfi_def_cfa_offset 120
	str	r0, [sp, #108]
	movs	r0, #0
.Ltmp4:
	.loc	5 31 14 prologue_end            @ applications/OV2640/ov2640_app.c:31:14
	str	r0, [sp, #104]
	mov.w	r1, #-1
	.loc	5 32 9                          @ applications/OV2640/ov2640_app.c:32:9
	str	r1, [sp, #100]
	.loc	5 34 16                         @ applications/OV2640/ov2640_app.c:34:16
	strb.w	r0, [sp, #87]
	.loc	5 35 17                         @ applications/OV2640/ov2640_app.c:35:17
	str	r0, [sp, #80]
	.loc	5 38 2                          @ applications/OV2640/ov2640_app.c:38:2
	b	.LBB2_1
.LBB2_1:                                @ =>This Inner Loop Header: Depth=1
	.loc	5 38 8 is_stmt 0                @ applications/OV2640/ov2640_app.c:38:8
	movw	r0, :lower16:canvas
	movt	r0, :upper16:canvas
	ldr	r1, [r0]
	movs	r0, #1
	.loc	5 38 26                         @ applications/OV2640/ov2640_app.c:38:26
	str	r0, [sp, #36]                   @ 4-byte Spill
	cbz	r1, .LBB2_3
	b	.LBB2_2
.LBB2_2:                                @   in Loop: Header=BB2_1 Depth=1
	.loc	5 38 29                         @ applications/OV2640/ov2640_app.c:38:29
	movw	r0, :lower16:cont2
	movt	r0, :upper16:cont2
	ldr	r0, [r0]
	.loc	5 38 35                         @ applications/OV2640/ov2640_app.c:38:35
	clz	r0, r0
	lsrs	r0, r0, #5
	.loc	5 38 26                         @ applications/OV2640/ov2640_app.c:38:26
	str	r0, [sp, #36]                   @ 4-byte Spill
	b	.LBB2_3
.LBB2_3:                                @   in Loop: Header=BB2_1 Depth=1
	.loc	5 0 26                          @ applications/OV2640/ov2640_app.c:0:26
	ldr	r0, [sp, #36]                   @ 4-byte Reload
	.loc	5 38 2                          @ applications/OV2640/ov2640_app.c:38:2
	lsls	r0, r0, #31
	cbz	r0, .LBB2_5
	b	.LBB2_4
.LBB2_4:                                @   in Loop: Header=BB2_1 Depth=1
	.loc	5 0 2                           @ applications/OV2640/ov2640_app.c:0:2
	movs	r0, #20
.Ltmp5:
	.loc	5 40 3 is_stmt 1                @ applications/OV2640/ov2640_app.c:40:3
	bl	rt_thread_delay
.Ltmp6:
	.loc	5 38 2                          @ applications/OV2640/ov2640_app.c:38:2
	b	.LBB2_1
.LBB2_5:
	.loc	5 42 48                         @ applications/OV2640/ov2640_app.c:42:48
	movw	r0, :lower16:canvas
	movt	r0, :upper16:canvas
	str	r0, [sp, #32]                   @ 4-byte Spill
	ldr	r0, [r0]
	.loc	5 42 28 is_stmt 0               @ applications/OV2640/ov2640_app.c:42:28
	bl	lv_obj_get_ext_attr
	mov	r1, r0
	.loc	5 42 22                         @ applications/OV2640/ov2640_app.c:42:22
	ldr	r0, [sp, #32]                   @ 4-byte Reload
	str	r1, [sp, #72]
	.loc	5 43 39 is_stmt 1               @ applications/OV2640/ov2640_app.c:43:39
	ldr	r0, [r0]
	.loc	5 43 23 is_stmt 0               @ applications/OV2640/ov2640_app.c:43:23
	bl	lv_obj_get_disp
	mov	r1, r0
	.loc	5 43 16                         @ applications/OV2640/ov2640_app.c:43:16
	ldr	r0, [sp, #32]                   @ 4-byte Reload
	str	r1, [sp, #68]
	.loc	5 44 5 is_stmt 1                @ applications/OV2640/ov2640_app.c:44:5
	ldr	r2, [sp, #68]
	.loc	5 44 17 is_stmt 0               @ applications/OV2640/ov2640_app.c:44:17
	ldrh.w	r1, [r2, #382]
	and	r1, r1, #64512
	strh.w	r1, [r2, #382]
	.loc	5 45 20 is_stmt 1               @ applications/OV2640/ov2640_app.c:45:20
	ldr	r0, [r0]
	.loc	5 45 27 is_stmt 0               @ applications/OV2640/ov2640_app.c:45:27
	movw	r1, :lower16:area_p
	movt	r1, :upper16:area_p
	ldr	r1, [r1]
	.loc	5 45 2                          @ applications/OV2640/ov2640_app.c:45:2
	bl	lv_obj_get_coords
	.loc	5 46 5 is_stmt 1                @ applications/OV2640/ov2640_app.c:46:5
	b	.LBB2_6
.LBB2_6:
	.loc	5 0 5 is_stmt 0                 @ applications/OV2640/ov2640_app.c:0:5
	movw	r0, #17620
	movt	r0, #22530
.Ltmp7:
	.loc	5 46 5                          @ applications/OV2640/ov2640_app.c:46:5
	ldr	r1, [r0]
	orr	r1, r1, #16
	str	r1, [r0]
	ldr	r0, [r0]
	and	r0, r0, #16
	str	r0, [sp, #64]
	ldr	r0, [sp, #64]
	b	.LBB2_7
.Ltmp8:
.LBB2_7:
	.loc	5 0 5                           @ applications/OV2640/ov2640_app.c:0:5
	movw	r1, #4096
	movt	r1, #20992
	mov.w	r0, #65536
	.loc	5 47 15 is_stmt 1               @ applications/OV2640/ov2640_app.c:47:15
	str	r0, [r1]
	movw	r1, #4124
	movt	r1, #20992
	movs	r0, #1
	.loc	5 53 20                         @ applications/OV2640/ov2640_app.c:53:20
	str	r0, [r1]
	movw	r1, #4148
	movt	r1, #20992
	movs	r0, #0
	.loc	5 54 19                         @ applications/OV2640/ov2640_app.c:54:19
	str	r0, [r1]
	.loc	5 55 23                         @ applications/OV2640/ov2640_app.c:55:23
	movw	r0, :lower16:JPEG_Handle
	movt	r0, :upper16:JPEG_Handle
	movw	r1, #12288
	movt	r1, #20992
	str	r1, [r0]
	.loc	5 56 2                          @ applications/OV2640/ov2640_app.c:56:2
	bl	HAL_JPEG_Init
	.loc	5 57 5                          @ applications/OV2640/ov2640_app.c:57:5
	movw	r0, :lower16:JPEG_LINE0_BUF
	movt	r0, :upper16:JPEG_LINE0_BUF
	movw	r1, :lower16:JPEG_LINE1_BUF
	movt	r1, :upper16:JPEG_LINE1_BUF
	mov.w	r2, #1024
	bl	rt_hw_dcmi_dma_config
	.loc	5 63 5                          @ applications/OV2640/ov2640_app.c:63:5
	movw	r0, :lower16:hdma_dcmi
	movt	r0, :upper16:hdma_dcmi
	ldr	r0, [r0]
	movs	r1, #16
	movt	r1, #16386
	cmp	r0, r1
	beq.w	.LBB2_23
	b	.LBB2_8
.LBB2_8:
	movw	r0, :lower16:hdma_dcmi
	movt	r0, :upper16:hdma_dcmi
	ldr	r0, [r0]
	movs	r1, #40
	movt	r1, #16386
	cmp	r0, r1
	beq.w	.LBB2_23
	b	.LBB2_9
.LBB2_9:
	movw	r0, :lower16:hdma_dcmi
	movt	r0, :upper16:hdma_dcmi
	ldr	r0, [r0]
	movs	r1, #64
	movt	r1, #16386
	cmp	r0, r1
	beq.w	.LBB2_23
	b	.LBB2_10
.LBB2_10:
	movw	r0, :lower16:hdma_dcmi
	movt	r0, :upper16:hdma_dcmi
	ldr	r0, [r0]
	movs	r1, #88
	movt	r1, #16386
	cmp	r0, r1
	beq.w	.LBB2_23
	b	.LBB2_11
.LBB2_11:
	movw	r0, :lower16:hdma_dcmi
	movt	r0, :upper16:hdma_dcmi
	ldr	r0, [r0]
	movs	r1, #112
	movt	r1, #16386
	cmp	r0, r1
	beq.w	.LBB2_23
	b	.LBB2_12
.LBB2_12:
	movw	r0, :lower16:hdma_dcmi
	movt	r0, :upper16:hdma_dcmi
	ldr	r0, [r0]
	movs	r1, #136
	movt	r1, #16386
	cmp	r0, r1
	beq	.LBB2_23
	b	.LBB2_13
.LBB2_13:
	movw	r0, :lower16:hdma_dcmi
	movt	r0, :upper16:hdma_dcmi
	ldr	r0, [r0]
	movs	r1, #160
	movt	r1, #16386
	cmp	r0, r1
	beq	.LBB2_23
	b	.LBB2_14
.LBB2_14:
	movw	r0, :lower16:hdma_dcmi
	movt	r0, :upper16:hdma_dcmi
	ldr	r0, [r0]
	movs	r1, #184
	movt	r1, #16386
	cmp	r0, r1
	beq	.LBB2_23
	b	.LBB2_15
.LBB2_15:
	movw	r0, :lower16:hdma_dcmi
	movt	r0, :upper16:hdma_dcmi
	ldr	r0, [r0]
	movw	r1, #1040
	movt	r1, #16386
	cmp	r0, r1
	beq	.LBB2_23
	b	.LBB2_16
.LBB2_16:
	movw	r0, :lower16:hdma_dcmi
	movt	r0, :upper16:hdma_dcmi
	ldr	r0, [r0]
	movw	r1, #1064
	movt	r1, #16386
	cmp	r0, r1
	beq	.LBB2_23
	b	.LBB2_17
.LBB2_17:
	movw	r0, :lower16:hdma_dcmi
	movt	r0, :upper16:hdma_dcmi
	ldr	r0, [r0]
	movw	r1, #1088
	movt	r1, #16386
	cmp	r0, r1
	beq	.LBB2_23
	b	.LBB2_18
.LBB2_18:
	movw	r0, :lower16:hdma_dcmi
	movt	r0, :upper16:hdma_dcmi
	ldr	r0, [r0]
	movw	r1, #1112
	movt	r1, #16386
	cmp	r0, r1
	beq	.LBB2_23
	b	.LBB2_19
.LBB2_19:
	movw	r0, :lower16:hdma_dcmi
	movt	r0, :upper16:hdma_dcmi
	ldr	r0, [r0]
	movw	r1, #1136
	movt	r1, #16386
	cmp	r0, r1
	beq	.LBB2_23
	b	.LBB2_20
.LBB2_20:
	movw	r0, :lower16:hdma_dcmi
	movt	r0, :upper16:hdma_dcmi
	ldr	r0, [r0]
	movw	r1, #1160
	movt	r1, #16386
	cmp	r0, r1
	beq	.LBB2_23
	b	.LBB2_21
.LBB2_21:
	movw	r0, :lower16:hdma_dcmi
	movt	r0, :upper16:hdma_dcmi
	ldr	r0, [r0]
	movw	r1, #1184
	movt	r1, #16386
	cmp	r0, r1
	beq	.LBB2_23
	b	.LBB2_22
.LBB2_22:
	movw	r0, :lower16:hdma_dcmi
	movt	r0, :upper16:hdma_dcmi
	ldr	r0, [r0]
	movw	r1, #1208
	movt	r1, #16386
	cmp	r0, r1
	bne	.LBB2_24
	b	.LBB2_23
.LBB2_23:
	movw	r0, :lower16:hdma_dcmi
	movt	r0, :upper16:hdma_dcmi
	ldr	r1, [r0]
	ldr	r0, [r1]
	orr	r0, r0, #1
                                        @ kill: def $r2 killed $r0
	str	r0, [r1]
	b	.LBB2_25
.LBB2_24:
	movw	r0, :lower16:hdma_dcmi
	movt	r0, :upper16:hdma_dcmi
	ldr	r1, [r0]
	ldr	r0, [r1]
	orr	r0, r0, #1
                                        @ kill: def $r2 killed $r0
	str	r0, [r1]
	b	.LBB2_25
.LBB2_25:
	.loc	5 0 5 is_stmt 0                 @ applications/OV2640/ov2640_app.c:0:5
	movs	r1, #0
	movt	r1, #18434
	.loc	5 64 14 is_stmt 1               @ applications/OV2640/ov2640_app.c:64:14
	ldr	r0, [r1]
	orr	r0, r0, #1
	str	r0, [r1]
	.loc	5 65 5                          @ applications/OV2640/ov2640_app.c:65:5
	b	.LBB2_26
.LBB2_26:                               @ =>This Loop Header: Depth=1
                                        @     Child Loop BB2_45 Depth 2
                                        @     Child Loop BB2_66 Depth 2
                                        @     Child Loop BB2_78 Depth 2
.Ltmp9:
	.loc	5 69 3                          @ applications/OV2640/ov2640_app.c:69:3
	movw	r0, :lower16:hdma_dcmi
	movt	r0, :upper16:hdma_dcmi
	ldr	r0, [r0]
	movs	r1, #16
	movt	r1, #16386
	cmp	r0, r1
	beq.w	.LBB2_42
	b	.LBB2_27
.LBB2_27:                               @   in Loop: Header=BB2_26 Depth=1
	movw	r0, :lower16:hdma_dcmi
	movt	r0, :upper16:hdma_dcmi
	ldr	r0, [r0]
	movs	r1, #40
	movt	r1, #16386
	cmp	r0, r1
	beq.w	.LBB2_42
	b	.LBB2_28
.LBB2_28:                               @   in Loop: Header=BB2_26 Depth=1
	movw	r0, :lower16:hdma_dcmi
	movt	r0, :upper16:hdma_dcmi
	ldr	r0, [r0]
	movs	r1, #64
	movt	r1, #16386
	cmp	r0, r1
	beq.w	.LBB2_42
	b	.LBB2_29
.LBB2_29:                               @   in Loop: Header=BB2_26 Depth=1
	movw	r0, :lower16:hdma_dcmi
	movt	r0, :upper16:hdma_dcmi
	ldr	r0, [r0]
	movs	r1, #88
	movt	r1, #16386
	cmp	r0, r1
	beq.w	.LBB2_42
	b	.LBB2_30
.LBB2_30:                               @   in Loop: Header=BB2_26 Depth=1
	movw	r0, :lower16:hdma_dcmi
	movt	r0, :upper16:hdma_dcmi
	ldr	r0, [r0]
	movs	r1, #112
	movt	r1, #16386
	cmp	r0, r1
	beq.w	.LBB2_42
	b	.LBB2_31
.LBB2_31:                               @   in Loop: Header=BB2_26 Depth=1
	movw	r0, :lower16:hdma_dcmi
	movt	r0, :upper16:hdma_dcmi
	ldr	r0, [r0]
	movs	r1, #136
	movt	r1, #16386
	cmp	r0, r1
	beq	.LBB2_42
	b	.LBB2_32
.LBB2_32:                               @   in Loop: Header=BB2_26 Depth=1
	movw	r0, :lower16:hdma_dcmi
	movt	r0, :upper16:hdma_dcmi
	ldr	r0, [r0]
	movs	r1, #160
	movt	r1, #16386
	cmp	r0, r1
	beq	.LBB2_42
	b	.LBB2_33
.LBB2_33:                               @   in Loop: Header=BB2_26 Depth=1
	movw	r0, :lower16:hdma_dcmi
	movt	r0, :upper16:hdma_dcmi
	ldr	r0, [r0]
	movs	r1, #184
	movt	r1, #16386
	cmp	r0, r1
	beq	.LBB2_42
	b	.LBB2_34
.LBB2_34:                               @   in Loop: Header=BB2_26 Depth=1
	movw	r0, :lower16:hdma_dcmi
	movt	r0, :upper16:hdma_dcmi
	ldr	r0, [r0]
	movw	r1, #1040
	movt	r1, #16386
	cmp	r0, r1
	beq	.LBB2_42
	b	.LBB2_35
.LBB2_35:                               @   in Loop: Header=BB2_26 Depth=1
	movw	r0, :lower16:hdma_dcmi
	movt	r0, :upper16:hdma_dcmi
	ldr	r0, [r0]
	movw	r1, #1064
	movt	r1, #16386
	cmp	r0, r1
	beq	.LBB2_42
	b	.LBB2_36
.LBB2_36:                               @   in Loop: Header=BB2_26 Depth=1
	movw	r0, :lower16:hdma_dcmi
	movt	r0, :upper16:hdma_dcmi
	ldr	r0, [r0]
	movw	r1, #1088
	movt	r1, #16386
	cmp	r0, r1
	beq	.LBB2_42
	b	.LBB2_37
.LBB2_37:                               @   in Loop: Header=BB2_26 Depth=1
	movw	r0, :lower16:hdma_dcmi
	movt	r0, :upper16:hdma_dcmi
	ldr	r0, [r0]
	movw	r1, #1112
	movt	r1, #16386
	cmp	r0, r1
	beq	.LBB2_42
	b	.LBB2_38
.LBB2_38:                               @   in Loop: Header=BB2_26 Depth=1
	movw	r0, :lower16:hdma_dcmi
	movt	r0, :upper16:hdma_dcmi
	ldr	r0, [r0]
	movw	r1, #1136
	movt	r1, #16386
	cmp	r0, r1
	beq	.LBB2_42
	b	.LBB2_39
.LBB2_39:                               @   in Loop: Header=BB2_26 Depth=1
	movw	r0, :lower16:hdma_dcmi
	movt	r0, :upper16:hdma_dcmi
	ldr	r0, [r0]
	movw	r1, #1160
	movt	r1, #16386
	cmp	r0, r1
	beq	.LBB2_42
	b	.LBB2_40
.LBB2_40:                               @   in Loop: Header=BB2_26 Depth=1
	movw	r0, :lower16:hdma_dcmi
	movt	r0, :upper16:hdma_dcmi
	ldr	r0, [r0]
	movw	r1, #1184
	movt	r1, #16386
	cmp	r0, r1
	beq	.LBB2_42
	b	.LBB2_41
.LBB2_41:                               @   in Loop: Header=BB2_26 Depth=1
	movw	r0, :lower16:hdma_dcmi
	movt	r0, :upper16:hdma_dcmi
	ldr	r0, [r0]
	movw	r1, #1208
	movt	r1, #16386
	cmp	r0, r1
	bne	.LBB2_43
	b	.LBB2_42
.LBB2_42:                               @   in Loop: Header=BB2_26 Depth=1
	movw	r0, :lower16:hdma_dcmi
	movt	r0, :upper16:hdma_dcmi
	ldr	r1, [r0]
	ldr	r0, [r1]
	orr	r0, r0, #1
                                        @ kill: def $r2 killed $r0
	str	r0, [r1]
	b	.LBB2_44
.LBB2_43:                               @   in Loop: Header=BB2_26 Depth=1
	movw	r0, :lower16:hdma_dcmi
	movt	r0, :upper16:hdma_dcmi
	ldr	r1, [r0]
	ldr	r0, [r1]
	orr	r0, r0, #1
                                        @ kill: def $r2 killed $r0
	str	r0, [r1]
	b	.LBB2_44
.LBB2_44:                               @   in Loop: Header=BB2_26 Depth=1
	.loc	5 0 3 is_stmt 0                 @ applications/OV2640/ov2640_app.c:0:3
	movs	r1, #0
	movt	r1, #18434
	.loc	5 70 18 is_stmt 1               @ applications/OV2640/ov2640_app.c:70:18
	str	r1, [sp, #28]                   @ 4-byte Spill
	ldr	r0, [r1]
	orr	r0, r0, #1
	str	r0, [r1]
	.loc	5 71 21                         @ applications/OV2640/ov2640_app.c:71:21
	movw	r0, :lower16:ov_data_process_sem
	movt	r0, :upper16:ov_data_process_sem
	str	r0, [sp, #24]                   @ 4-byte Spill
	ldr	r0, [r0]
	mov.w	r1, #-1
	.loc	5 71 9 is_stmt 0                @ applications/OV2640/ov2640_app.c:71:9
	str	r1, [sp, #20]                   @ 4-byte Spill
	bl	rt_sem_take
	ldr	r1, [sp, #20]                   @ 4-byte Reload
                                        @ kill: def $r2 killed $r0
	.loc	5 72 22 is_stmt 1               @ applications/OV2640/ov2640_app.c:72:22
	ldr	r0, [sp, #24]                   @ 4-byte Reload
	movw	r3, :lower16:jpeg_data_ok
	movt	r3, :upper16:jpeg_data_ok
	movs	r2, #2
	strb	r2, [r3]
	.loc	5 75 21                         @ applications/OV2640/ov2640_app.c:75:21
	ldr	r0, [r0]
	.loc	5 75 9 is_stmt 0                @ applications/OV2640/ov2640_app.c:75:9
	bl	rt_sem_take
	ldr	r1, [sp, #28]                   @ 4-byte Reload
	.loc	5 76 18 is_stmt 1               @ applications/OV2640/ov2640_app.c:76:18
	ldr	r0, [r1]
	bic	r0, r0, #1
	str	r0, [r1]
	.loc	5 77 9                          @ applications/OV2640/ov2640_app.c:77:9
	b	.LBB2_45
.LBB2_45:                               @   Parent Loop BB2_26 Depth=1
                                        @ =>  This Inner Loop Header: Depth=2
	.loc	5 0 9 is_stmt 0                 @ applications/OV2640/ov2640_app.c:0:9
	movs	r0, #0
	movt	r0, #18434
	.loc	5 77 22                         @ applications/OV2640/ov2640_app.c:77:22
	ldr	r0, [r0]
	.loc	5 77 9                          @ applications/OV2640/ov2640_app.c:77:9
	lsls	r0, r0, #31
	cbz	r0, .LBB2_47
	b	.LBB2_46
.LBB2_46:                               @   in Loop: Header=BB2_45 Depth=2
	b	.LBB2_45
.LBB2_47:                               @   in Loop: Header=BB2_26 Depth=1
	.loc	5 79 9 is_stmt 1                @ applications/OV2640/ov2640_app.c:79:9
	movw	r0, :lower16:hdma_dcmi
	movt	r0, :upper16:hdma_dcmi
	ldr	r0, [r0]
	movs	r1, #16
	movt	r1, #16386
	cmp	r0, r1
	beq.w	.LBB2_63
	b	.LBB2_48
.LBB2_48:                               @   in Loop: Header=BB2_26 Depth=1
	movw	r0, :lower16:hdma_dcmi
	movt	r0, :upper16:hdma_dcmi
	ldr	r0, [r0]
	movs	r1, #40
	movt	r1, #16386
	cmp	r0, r1
	beq.w	.LBB2_63
	b	.LBB2_49
.LBB2_49:                               @   in Loop: Header=BB2_26 Depth=1
	movw	r0, :lower16:hdma_dcmi
	movt	r0, :upper16:hdma_dcmi
	ldr	r0, [r0]
	movs	r1, #64
	movt	r1, #16386
	cmp	r0, r1
	beq.w	.LBB2_63
	b	.LBB2_50
.LBB2_50:                               @   in Loop: Header=BB2_26 Depth=1
	movw	r0, :lower16:hdma_dcmi
	movt	r0, :upper16:hdma_dcmi
	ldr	r0, [r0]
	movs	r1, #88
	movt	r1, #16386
	cmp	r0, r1
	beq.w	.LBB2_63
	b	.LBB2_51
.LBB2_51:                               @   in Loop: Header=BB2_26 Depth=1
	movw	r0, :lower16:hdma_dcmi
	movt	r0, :upper16:hdma_dcmi
	ldr	r0, [r0]
	movs	r1, #112
	movt	r1, #16386
	cmp	r0, r1
	beq.w	.LBB2_63
	b	.LBB2_52
.LBB2_52:                               @   in Loop: Header=BB2_26 Depth=1
	movw	r0, :lower16:hdma_dcmi
	movt	r0, :upper16:hdma_dcmi
	ldr	r0, [r0]
	movs	r1, #136
	movt	r1, #16386
	cmp	r0, r1
	beq	.LBB2_63
	b	.LBB2_53
.LBB2_53:                               @   in Loop: Header=BB2_26 Depth=1
	movw	r0, :lower16:hdma_dcmi
	movt	r0, :upper16:hdma_dcmi
	ldr	r0, [r0]
	movs	r1, #160
	movt	r1, #16386
	cmp	r0, r1
	beq	.LBB2_63
	b	.LBB2_54
.LBB2_54:                               @   in Loop: Header=BB2_26 Depth=1
	movw	r0, :lower16:hdma_dcmi
	movt	r0, :upper16:hdma_dcmi
	ldr	r0, [r0]
	movs	r1, #184
	movt	r1, #16386
	cmp	r0, r1
	beq	.LBB2_63
	b	.LBB2_55
.LBB2_55:                               @   in Loop: Header=BB2_26 Depth=1
	movw	r0, :lower16:hdma_dcmi
	movt	r0, :upper16:hdma_dcmi
	ldr	r0, [r0]
	movw	r1, #1040
	movt	r1, #16386
	cmp	r0, r1
	beq	.LBB2_63
	b	.LBB2_56
.LBB2_56:                               @   in Loop: Header=BB2_26 Depth=1
	movw	r0, :lower16:hdma_dcmi
	movt	r0, :upper16:hdma_dcmi
	ldr	r0, [r0]
	movw	r1, #1064
	movt	r1, #16386
	cmp	r0, r1
	beq	.LBB2_63
	b	.LBB2_57
.LBB2_57:                               @   in Loop: Header=BB2_26 Depth=1
	movw	r0, :lower16:hdma_dcmi
	movt	r0, :upper16:hdma_dcmi
	ldr	r0, [r0]
	movw	r1, #1088
	movt	r1, #16386
	cmp	r0, r1
	beq	.LBB2_63
	b	.LBB2_58
.LBB2_58:                               @   in Loop: Header=BB2_26 Depth=1
	movw	r0, :lower16:hdma_dcmi
	movt	r0, :upper16:hdma_dcmi
	ldr	r0, [r0]
	movw	r1, #1112
	movt	r1, #16386
	cmp	r0, r1
	beq	.LBB2_63
	b	.LBB2_59
.LBB2_59:                               @   in Loop: Header=BB2_26 Depth=1
	movw	r0, :lower16:hdma_dcmi
	movt	r0, :upper16:hdma_dcmi
	ldr	r0, [r0]
	movw	r1, #1136
	movt	r1, #16386
	cmp	r0, r1
	beq	.LBB2_63
	b	.LBB2_60
.LBB2_60:                               @   in Loop: Header=BB2_26 Depth=1
	movw	r0, :lower16:hdma_dcmi
	movt	r0, :upper16:hdma_dcmi
	ldr	r0, [r0]
	movw	r1, #1160
	movt	r1, #16386
	cmp	r0, r1
	beq	.LBB2_63
	b	.LBB2_61
.LBB2_61:                               @   in Loop: Header=BB2_26 Depth=1
	movw	r0, :lower16:hdma_dcmi
	movt	r0, :upper16:hdma_dcmi
	ldr	r0, [r0]
	movw	r1, #1184
	movt	r1, #16386
	cmp	r0, r1
	beq	.LBB2_63
	b	.LBB2_62
.LBB2_62:                               @   in Loop: Header=BB2_26 Depth=1
	movw	r0, :lower16:hdma_dcmi
	movt	r0, :upper16:hdma_dcmi
	ldr	r0, [r0]
	movw	r1, #1208
	movt	r1, #16386
	cmp	r0, r1
	bne	.LBB2_64
	b	.LBB2_63
.LBB2_63:                               @   in Loop: Header=BB2_26 Depth=1
	movw	r0, :lower16:hdma_dcmi
	movt	r0, :upper16:hdma_dcmi
	ldr	r1, [r0]
	ldr	r0, [r1]
	bic	r0, r0, #1
                                        @ kill: def $r2 killed $r0
	str	r0, [r1]
	b	.LBB2_65
.LBB2_64:                               @   in Loop: Header=BB2_26 Depth=1
	movw	r0, :lower16:hdma_dcmi
	movt	r0, :upper16:hdma_dcmi
	ldr	r1, [r0]
	ldr	r0, [r1]
	bic	r0, r0, #1
                                        @ kill: def $r2 killed $r0
	str	r0, [r1]
	b	.LBB2_65
.LBB2_65:                               @   in Loop: Header=BB2_26 Depth=1
	.loc	5 81 17                         @ applications/OV2640/ov2640_app.c:81:17
	movw	r0, :lower16:send_photo_mux
	movt	r0, :upper16:send_photo_mux
	ldr	r0, [r0]
	mov.w	r1, #-1
	.loc	5 81 3 is_stmt 0                @ applications/OV2640/ov2640_app.c:81:3
	bl	rt_mutex_take
	.loc	5 83 27 is_stmt 1               @ applications/OV2640/ov2640_app.c:83:27
	movw	r0, :lower16:jpeg_data_buf
	movt	r0, :upper16:jpeg_data_buf
	ldr	r0, [r0]
	.loc	5 83 11 is_stmt 0               @ applications/OV2640/ov2640_app.c:83:11
	str	r0, [sp, #80]
	movs	r0, #0
	.loc	5 84 17 is_stmt 1               @ applications/OV2640/ov2640_app.c:84:17
	str	r0, [sp, #88]
	.loc	5 85 18                         @ applications/OV2640/ov2640_app.c:85:18
	strb.w	r0, [sp, #87]
.Ltmp10:
	.loc	5 86 16                         @ applications/OV2640/ov2640_app.c:86:16
	str	r0, [sp, #96]
	.loc	5 86 14 is_stmt 0               @ applications/OV2640/ov2640_app.c:86:14
	b	.LBB2_66
.LBB2_66:                               @   Parent Loop BB2_26 Depth=1
                                        @ =>  This Inner Loop Header: Depth=2
.Ltmp11:
	.loc	5 86 21                         @ applications/OV2640/ov2640_app.c:86:21
	ldr	r0, [sp, #96]
	.loc	5 86 25                         @ applications/OV2640/ov2640_app.c:86:25
	movw	r1, :lower16:jpeg_data_len
	movt	r1, :upper16:jpeg_data_len
	ldr	r1, [r1]
.Ltmp12:
	.loc	5 86 9                          @ applications/OV2640/ov2640_app.c:86:9
	cmp.w	r0, r1, lsl #2
	bhs	.LBB2_76
	b	.LBB2_67
.LBB2_67:                               @   in Loop: Header=BB2_66 Depth=2
.Ltmp13:
	.loc	5 89 18 is_stmt 1               @ applications/OV2640/ov2640_app.c:89:18
	ldr	r0, [sp, #80]
	.loc	5 89 20 is_stmt 0               @ applications/OV2640/ov2640_app.c:89:20
	ldr	r1, [sp, #96]
	.loc	5 89 18                         @ applications/OV2640/ov2640_app.c:89:18
	ldrb	r0, [r0, r1]
	.loc	5 89 32                         @ applications/OV2640/ov2640_app.c:89:32
	cmp	r0, #255
	bne	.LBB2_70
	b	.LBB2_68
.LBB2_68:                               @   in Loop: Header=BB2_66 Depth=2
	.loc	5 89 36                         @ applications/OV2640/ov2640_app.c:89:36
	ldr	r1, [sp, #80]
	.loc	5 89 38                         @ applications/OV2640/ov2640_app.c:89:38
	ldr	r0, [sp, #96]
	.loc	5 89 40                         @ applications/OV2640/ov2640_app.c:89:40
	add	r0, r1
	.loc	5 89 36                         @ applications/OV2640/ov2640_app.c:89:36
	ldrb	r0, [r0, #1]
.Ltmp14:
	.loc	5 89 17                         @ applications/OV2640/ov2640_app.c:89:17
	cmp	r0, #216
	bne	.LBB2_70
	b	.LBB2_69
.LBB2_69:                               @   in Loop: Header=BB2_66 Depth=2
.Ltmp15:
	.loc	5 91 29 is_stmt 1               @ applications/OV2640/ov2640_app.c:91:29
	ldr	r0, [sp, #96]
	.loc	5 91 27 is_stmt 0               @ applications/OV2640/ov2640_app.c:91:27
	str	r0, [sp, #92]
	movs	r0, #1
	.loc	5 92 26 is_stmt 1               @ applications/OV2640/ov2640_app.c:92:26
	strb.w	r0, [sp, #87]
	.loc	5 93 13                         @ applications/OV2640/ov2640_app.c:93:13
	b	.LBB2_70
.Ltmp16:
.LBB2_70:                               @   in Loop: Header=BB2_66 Depth=2
	.loc	5 95 18                         @ applications/OV2640/ov2640_app.c:95:18
	ldr	r0, [sp, #80]
	.loc	5 95 20 is_stmt 0               @ applications/OV2640/ov2640_app.c:95:20
	ldr	r1, [sp, #96]
	.loc	5 95 18                         @ applications/OV2640/ov2640_app.c:95:18
	ldrb	r0, [r0, r1]
	.loc	5 95 32                         @ applications/OV2640/ov2640_app.c:95:32
	cmp	r0, #255
	bne	.LBB2_74
	b	.LBB2_71
.LBB2_71:                               @   in Loop: Header=BB2_66 Depth=2
	.loc	5 95 36                         @ applications/OV2640/ov2640_app.c:95:36
	ldr	r1, [sp, #80]
	.loc	5 95 38                         @ applications/OV2640/ov2640_app.c:95:38
	ldr	r0, [sp, #96]
	.loc	5 95 40                         @ applications/OV2640/ov2640_app.c:95:40
	add	r0, r1
	.loc	5 95 36                         @ applications/OV2640/ov2640_app.c:95:36
	ldrb	r0, [r0, #1]
	.loc	5 95 54                         @ applications/OV2640/ov2640_app.c:95:54
	cmp	r0, #217
	bne	.LBB2_74
	b	.LBB2_72
.LBB2_72:                               @   in Loop: Header=BB2_66 Depth=2
	.loc	5 95 57                         @ applications/OV2640/ov2640_app.c:95:57
	ldrb.w	r0, [sp, #87]
.Ltmp17:
	.loc	5 95 17                         @ applications/OV2640/ov2640_app.c:95:17
	cbz	r0, .LBB2_74
	b	.LBB2_73
.LBB2_73:                               @   in Loop: Header=BB2_26 Depth=1
.Ltmp18:
	.loc	5 97 27 is_stmt 1               @ applications/OV2640/ov2640_app.c:97:27
	ldr	r0, [sp, #96]
	.loc	5 97 31 is_stmt 0               @ applications/OV2640/ov2640_app.c:97:31
	ldr	r1, [sp, #92]
	.loc	5 97 29                         @ applications/OV2640/ov2640_app.c:97:29
	subs	r0, r0, r1
	.loc	5 97 41                         @ applications/OV2640/ov2640_app.c:97:41
	adds	r0, #2
	.loc	5 97 25                         @ applications/OV2640/ov2640_app.c:97:25
	str	r0, [sp, #88]
	.loc	5 98 17 is_stmt 1               @ applications/OV2640/ov2640_app.c:98:17
	b	.LBB2_76
.Ltmp19:
.LBB2_74:                               @   in Loop: Header=BB2_66 Depth=2
	.loc	5 100 9                         @ applications/OV2640/ov2640_app.c:100:9
	b	.LBB2_75
.Ltmp20:
.LBB2_75:                               @   in Loop: Header=BB2_66 Depth=2
	.loc	5 86 45                         @ applications/OV2640/ov2640_app.c:86:45
	ldr	r0, [sp, #96]
	adds	r0, #1
	str	r0, [sp, #96]
	.loc	5 86 9 is_stmt 0                @ applications/OV2640/ov2640_app.c:86:9
	b	.LBB2_66
.Ltmp21:
.LBB2_76:                               @   in Loop: Header=BB2_26 Depth=1
	.loc	5 101 13 is_stmt 1              @ applications/OV2640/ov2640_app.c:101:13
	ldr	r0, [sp, #88]
.Ltmp22:
	.loc	5 101 13 is_stmt 0              @ applications/OV2640/ov2640_app.c:101:13
	cmp	r0, #0
	beq.w	.LBB2_83
	b	.LBB2_77
.LBB2_77:                               @   in Loop: Header=BB2_26 Depth=1
.Ltmp23:
	.loc	5 103 16 is_stmt 1              @ applications/OV2640/ov2640_app.c:103:16
	ldr	r0, [sp, #88]
	.loc	5 103 14 is_stmt 0              @ applications/OV2640/ov2640_app.c:103:14
	movw	r1, :lower16:image_len
	movt	r1, :upper16:image_len
	str	r0, [r1]
	.loc	5 104 18 is_stmt 1              @ applications/OV2640/ov2640_app.c:104:18
	ldr	r1, [sp, #92]
	.loc	5 104 15 is_stmt 0              @ applications/OV2640/ov2640_app.c:104:15
	ldr	r0, [sp, #80]
	add	r0, r1
	str	r0, [sp, #80]
	.loc	5 105 12 is_stmt 1              @ applications/OV2640/ov2640_app.c:105:12
	ldr	r0, [sp, #80]
	.loc	5 105 11 is_stmt 0              @ applications/OV2640/ov2640_app.c:105:11
	movw	r1, :lower16:image_p
	movt	r1, :upper16:image_p
	str	r0, [r1]
	.loc	5 106 44 is_stmt 1              @ applications/OV2640/ov2640_app.c:106:44
	ldr	r1, [sp, #80]
	.loc	5 106 47 is_stmt 0              @ applications/OV2640/ov2640_app.c:106:47
	ldr	r2, [sp, #88]
	.loc	5 106 66                        @ applications/OV2640/ov2640_app.c:106:66
	movw	r0, :lower16:rgb_frame_buf
	movt	r0, :upper16:rgb_frame_buf
	ldr	r3, [r0]
	.loc	5 106 4                         @ applications/OV2640/ov2640_app.c:106:4
	movw	r0, :lower16:JPEG_Handle
	movt	r0, :upper16:JPEG_Handle
	bl	JPEG_Decode_DMA
	.loc	5 107 4 is_stmt 1               @ applications/OV2640/ov2640_app.c:107:4
	b	.LBB2_78
.LBB2_78:                               @   Parent Loop BB2_26 Depth=1
                                        @ =>  This Inner Loop Header: Depth=2
	.loc	5 107 10 is_stmt 0              @ applications/OV2640/ov2640_app.c:107:10
	movw	r0, :lower16:Jpeg_HWDecodingEnd
	movt	r0, :upper16:Jpeg_HWDecodingEnd
	ldr	r0, [r0]
	.loc	5 107 4                         @ applications/OV2640/ov2640_app.c:107:4
	cbnz	r0, .LBB2_80
	b	.LBB2_79
.LBB2_79:                               @   in Loop: Header=BB2_78 Depth=2
	b	.LBB2_78
.LBB2_80:                               @   in Loop: Header=BB2_26 Depth=1
	.loc	5 109 21 is_stmt 1              @ applications/OV2640/ov2640_app.c:109:21
	movw	r0, :lower16:send_photo_mux
	movt	r0, :upper16:send_photo_mux
	ldr	r0, [r0]
	.loc	5 109 4 is_stmt 0               @ applications/OV2640/ov2640_app.c:109:4
	bl	rt_mutex_release
	.loc	5 113 17 is_stmt 1              @ applications/OV2640/ov2640_app.c:113:17
	movw	r0, :lower16:jpg_decode_mux
	movt	r0, :upper16:jpg_decode_mux
	ldr	r0, [r0]
	mov.w	r1, #-1
	.loc	5 113 3 is_stmt 0               @ applications/OV2640/ov2640_app.c:113:3
	bl	rt_mutex_take
	.loc	5 114 29 is_stmt 1              @ applications/OV2640/ov2640_app.c:114:29
	movw	r0, :lower16:canvas
	movt	r0, :upper16:canvas
	ldr	r0, [r0]
	.loc	5 114 9 is_stmt 0               @ applications/OV2640/ov2640_app.c:114:9
	bl	lv_obj_get_ext_attr
	.loc	5 114 7                         @ applications/OV2640/ov2640_app.c:114:7
	str	r0, [sp, #72]
.Ltmp24:
	.loc	5 115 7 is_stmt 1               @ applications/OV2640/ov2640_app.c:115:7
	ldr	r0, [sp, #72]
	.loc	5 115 16 is_stmt 0              @ applications/OV2640/ov2640_app.c:115:16
	ldr	r0, [r0, #32]
.Ltmp25:
	.loc	5 115 6                         @ applications/OV2640/ov2640_app.c:115:6
	cmp	r0, #0
	beq	.LBB2_82
	b	.LBB2_81
.LBB2_81:                               @   in Loop: Header=BB2_26 Depth=1
.Ltmp26:
	.loc	5 117 3 is_stmt 1               @ applications/OV2640/ov2640_app.c:117:3
	movw	r0, :lower16:JPEG_Handle
	movt	r0, :upper16:JPEG_Handle
	movw	r1, :lower16:JPEG_Info
	movt	r1, :upper16:JPEG_Info
	bl	HAL_JPEG_GetInfo
	.loc	5 119 39                        @ applications/OV2640/ov2640_app.c:119:39
	movw	r0, :lower16:rgb_frame_buf
	movt	r0, :upper16:rgb_frame_buf
	ldr	r0, [r0]
	.loc	5 120 22                        @ applications/OV2640/ov2640_app.c:120:22
	ldr	r1, [sp, #72]
	.loc	5 120 31 is_stmt 0              @ applications/OV2640/ov2640_app.c:120:31
	ldr	r1, [r1, #32]
	.loc	5 119 3 is_stmt 1               @ applications/OV2640/ov2640_app.c:119:3
	mov	r12, sp
	movs	r2, #2
	str.w	r2, [r12, #12]
	movs	r3, #0
	str.w	r3, [r12, #8]
	movs	r2, #240
	str.w	r2, [r12, #4]
	mov.w	r2, #320
	str.w	r2, [r12]
	mov	r2, r3
	bl	DMA2D_Copy_YCbCr_To_RGB
	.loc	5 132 24                        @ applications/OV2640/ov2640_app.c:132:24
	ldr	r0, [sp, #68]
	.loc	5 132 46 is_stmt 0              @ applications/OV2640/ov2640_app.c:132:46
	ldrh.w	r1, [r0, #382]
	bfc	r1, #10, #22
	.loc	5 132 30                        @ applications/OV2640/ov2640_app.c:132:30
	add.w	r0, r0, r1, lsl #3
	.loc	5 132 24                        @ applications/OV2640/ov2640_app.c:132:24
	adds	r0, #94
	.loc	5 132 54                        @ applications/OV2640/ov2640_app.c:132:54
	movw	r1, :lower16:area_p
	movt	r1, :upper16:area_p
	ldr	r1, [r1]
	movs	r2, #8
	.loc	5 132 13                        @ applications/OV2640/ov2640_app.c:132:13
	bl	rt_memcpy
	.loc	5 135 30 is_stmt 1              @ applications/OV2640/ov2640_app.c:135:30
	ldr	r0, [sp, #68]
	.loc	5 135 36 is_stmt 0              @ applications/OV2640/ov2640_app.c:135:36
	ldr	r0, [r0, #44]
	movs	r1, #3
	.loc	5 135 13                        @ applications/OV2640/ov2640_app.c:135:13
	bl	lv_task_set_prio
	.loc	5 136 31 is_stmt 1              @ applications/OV2640/ov2640_app.c:136:31
	ldr	r1, [sp, #68]
	.loc	5 136 37 is_stmt 0              @ applications/OV2640/ov2640_app.c:136:37
	ldrh.w	r0, [r1, #382]
	.loc	5 136 25                        @ applications/OV2640/ov2640_app.c:136:25
	rsb.w	r2, r0, #1
	bfc	r2, #10, #22
	and	r0, r0, #64512
	add	r0, r2
	strh.w	r0, [r1, #382]
	.loc	5 140 3 is_stmt 1               @ applications/OV2640/ov2640_app.c:140:3
	b	.LBB2_82
.Ltmp27:
.LBB2_82:                               @   in Loop: Header=BB2_26 Depth=1
	.loc	5 143 20                        @ applications/OV2640/ov2640_app.c:143:20
	movw	r0, :lower16:jpg_decode_mux
	movt	r0, :upper16:jpg_decode_mux
	ldr	r0, [r0]
	.loc	5 143 3 is_stmt 0               @ applications/OV2640/ov2640_app.c:143:3
	bl	rt_mutex_release
	.loc	5 144 18 is_stmt 1              @ applications/OV2640/ov2640_app.c:144:18
	movw	r0, :lower16:ov_sync_sem
	movt	r0, :upper16:ov_sync_sem
	ldr	r0, [r0]
	.loc	5 144 3 is_stmt 0               @ applications/OV2640/ov2640_app.c:144:3
	bl	rt_sem_release
	.loc	5 148 2 is_stmt 1               @ applications/OV2640/ov2640_app.c:148:2
	b	.LBB2_84
.Ltmp28:
.LBB2_83:                               @   in Loop: Header=BB2_26 Depth=1
	.loc	5 151 20                        @ applications/OV2640/ov2640_app.c:151:20
	movw	r0, :lower16:send_photo_mux
	movt	r0, :upper16:send_photo_mux
	ldr	r0, [r0]
	.loc	5 151 3 is_stmt 0               @ applications/OV2640/ov2640_app.c:151:3
	bl	rt_mutex_release
	b	.LBB2_84
.Ltmp29:
.LBB2_84:                               @   in Loop: Header=BB2_26 Depth=1
	.loc	5 153 15 is_stmt 1              @ applications/OV2640/ov2640_app.c:153:15
	movw	r1, :lower16:jpeg_data_ok
	movt	r1, :upper16:jpeg_data_ok
	movs	r0, #0
	strb	r0, [r1]
	.loc	5 154 10                        @ applications/OV2640/ov2640_app.c:154:10
	str	r0, [sp, #88]
	.loc	5 155 19                        @ applications/OV2640/ov2640_app.c:155:19
	movw	r1, :lower16:jpeg_data_len
	movt	r1, :upper16:jpeg_data_len
	str	r0, [r1]
.Ltmp30:
	.loc	5 65 5                          @ applications/OV2640/ov2640_app.c:65:5
	b	.LBB2_26
.Ltmp31:
.Lfunc_end2:
	.size	ov_data_process, .Lfunc_end2-ov_data_process
	.cfi_endproc
	.cantunwind
	.fnend
                                        @ -- End function
	.file	6 "E:\\Smart-access-control\\Hardware\\CODE" "./lvgl/src/lv_widgets/../lv_widgets/lv_img.h"
	.file	7 "E:\\Smart-access-control\\Hardware\\CODE" "./lvgl/src/lv_conf.h"
	.file	8 "E:\\Smart-access-control\\Hardware\\CODE" "./lvgl/src/lv_misc/lv_area.h"
	.file	9 "E:\\Smart-access-control\\Hardware\\CODE" "./lvgl/src/lv_widgets/lv_canvas.h"
	.file	10 "E:\\Smart-access-control\\Hardware\\CODE" "./lvgl/src/lv_core/../lv_draw/lv_img_buf.h"
	.file	11 "E:\\Smart-access-control\\Hardware\\CODE" "./lvgl/src/lv_hal/lv_hal_disp.h"
	.file	12 "E:\\Smart-access-control\\Hardware\\CODE" "./lvgl/src/lv_core/../lv_draw/../lv_misc/lv_color.h"
	.file	13 "E:\\Smart-access-control\\Hardware\\CODE" "./lvgl/src/lv_hal/../lv_misc/lv_ll.h"
	.file	14 "E:\\Smart-access-control\\Hardware\\CODE" "./lvgl/src/lv_widgets/../lv_core/lv_obj.h"
	.file	15 "E:\\Smart-access-control\\Hardware\\CODE" "./lvgl/src/lv_core/../lv_draw/../lv_misc/lv_types.h"
	.file	16 "E:\\Smart-access-control\\Hardware\\CODE" "./lvgl/src/lv_themes/../lv_core/lv_style.h"
	.file	17 "E:\\Smart-access-control\\Hardware\\CODE" "./lvgl/src/lv_core/../lv_hal/lv_hal_indev.h"
	.file	18 "E:\\Smart-access-control\\Hardware\\CODE" "./lvgl/src/lv_core/../lv_draw/../lv_misc/lv_bidi.h"
	.section	".note.GNU-stack","",%progbits
	.eabi_attribute	30, 6	@ Tag_ABI_optimization_goals
	.ARM_attribute	16, 1	@ Tag_AV_eba