	.text
	.syntax unified
	.eabi_attribute	67, "2.09"	@ Tag_conformance
	.cpu	cortex-m7
	.eabi_attribute	6, 13	@ Tag_CPU_arch
	.eabi_attribute	7, 77	@ Tag_CPU_arch_profile
	.eabi_attribute	8, 0	@ Tag_ARM_ISA_use
	.eabi_attribute	9, 2	@ Tag_THUMB_ISA_use
	.fpu	fpv5-d16
	.eabi_attribute	36, 1	@ Tag_FP_HP_extension
	.eabi_attribute	34, 1	@ Tag_CPU_unaligned_access
	.eabi_attribute	17, 1	@ Tag_ABI_PCS_GOT_use
	.eabi_attribute	20, 2	@ Tag_ABI_FP_denormal
	.eabi_attribute	21, 0	@ Tag_ABI_FP_exceptions
	.eabi_attribute	23, 1	@ Tag_ABI_FP_number_model
	.eabi_attribute	24, 1	@ Tag_ABI_align_needed
	.eabi_attribute	25, 1	@ Tag_ABI_align_preserved
	.eabi_attribute	28, 1	@ Tag_ABI_VFP_args
	.eabi_attribute	38, 1	@ Tag_ABI_FP_16bit_format
	.eabi_attribute	18, 2	@ Tag_ABI_PCS_wchar_t
	.eabi_attribute	26, 1	@ Tag_ABI_enum_size
	.eabi_attribute	14, 0	@ Tag_ABI_PCS_R9_use
	.file	"pin.c"
	.file	1 "E:\\STM32\\Learning\\STM32H750_ART_PI_RGBLCD" "rt-thread/components/drivers/misc/pin.c"
	.file	2 "E:\\STM32\\Learning\\STM32H750_ART_PI_RGBLCD" "rt-thread/components/finsh/finsh_api.h"
	.file	3 "E:\\STM32\\Learning\\STM32H750_ART_PI_RGBLCD" "rt-thread/include\\rtdef.h"
	.file	4 "E:\\STM32\\Learning\\STM32H750_ART_PI_RGBLCD" "rt-thread/components/drivers/include/drivers/pin.h"
	.section	.text.rt_device_pin_register,"ax",%progbits
	.hidden	rt_device_pin_register          @ -- Begin function rt_device_pin_register
	.globl	rt_device_pin_register
	.p2align	3
	.type	rt_device_pin_register,%function
	.code	16                              @ @rt_device_pin_register
	.thumb_func
rt_device_pin_register:
.Lfunc_begin0:
	.loc	1 78 0                          @ rt-thread/components/drivers/misc/pin.c:78:0
	.fnstart
	.cfi_sections .debug_frame
	.cfi_startproc
@ %bb.0:
	.save	{r7, lr}
	push	{r7, lr}
	.cfi_def_cfa_offset 8
	.cfi_offset lr, -4
	.cfi_offset r7, -8
	.pad	#16
	sub	sp, #16
	.cfi_def_cfa_offset 24
	str	r0, [sp, #12]
	str	r1, [sp, #8]
	str	r2, [sp, #4]
.Ltmp0:
	.loc	1 79 33 prologue_end            @ rt-thread/components/drivers/misc/pin.c:79:33
	movw	r0, :lower16:_hw_pin
	movt	r0, :upper16:_hw_pin
	movs	r1, #18
	strb	r1, [r0, #20]
	movs	r1, #0
	.loc	1 80 33                         @ rt-thread/components/drivers/misc/pin.c:80:33
	str	r1, [sp]                        @ 4-byte Spill
	str	r1, [r0, #28]
	.loc	1 81 33                         @ rt-thread/components/drivers/misc/pin.c:81:33
	str	r1, [r0, #32]
	.loc	1 86 33                         @ rt-thread/components/drivers/misc/pin.c:86:33
	str	r1, [r0, #36]
	.loc	1 87 33                         @ rt-thread/components/drivers/misc/pin.c:87:33
	str	r1, [r0, #40]
	.loc	1 88 33                         @ rt-thread/components/drivers/misc/pin.c:88:33
	str	r1, [r0, #44]
	.loc	1 89 33                         @ rt-thread/components/drivers/misc/pin.c:89:33
	movw	r1, :lower16:_pin_read
	movt	r1, :upper16:_pin_read
	str	r1, [r0, #48]
	.loc	1 90 33                         @ rt-thread/components/drivers/misc/pin.c:90:33
	movw	r1, :lower16:_pin_write
	movt	r1, :upper16:_pin_write
	str	r1, [r0, #52]
	.loc	1 91 33                         @ rt-thread/components/drivers/misc/pin.c:91:33
	movw	r1, :lower16:_pin_control
	movt	r1, :upper16:_pin_control
	str	r1, [r0, #56]
	.loc	1 94 35                         @ rt-thread/components/drivers/misc/pin.c:94:35
	ldr	r1, [sp, #8]
	.loc	1 94 33 is_stmt 0               @ rt-thread/components/drivers/misc/pin.c:94:33
	str	r1, [r0, #80]
	.loc	1 95 35 is_stmt 1               @ rt-thread/components/drivers/misc/pin.c:95:35
	ldr	r1, [sp, #4]
	.loc	1 95 33 is_stmt 0               @ rt-thread/components/drivers/misc/pin.c:95:33
	str	r1, [r0, #76]
	.loc	1 98 41 is_stmt 1               @ rt-thread/components/drivers/misc/pin.c:98:41
	ldr	r1, [sp, #12]
	movs	r2, #3
	.loc	1 98 5 is_stmt 0                @ rt-thread/components/drivers/misc/pin.c:98:5
	bl	rt_device_register
                                        @ kill: def $r1 killed $r0
	.loc	1 100 5 is_stmt 1               @ rt-thread/components/drivers/misc/pin.c:100:5
	ldr	r0, [sp]                        @ 4-byte Reload
	add	sp, #16
	pop	{r7, pc}
.Ltmp1:
.Lfunc_end0:
	.size	rt_device_pin_register, .Lfunc_end0-rt_device_pin_register
	.cfi_endproc
	.cantunwind
	.fnend
                                        @ -- End function
	.section	.text._pin_read,"ax",%progbits
	.p2align	3                               @ -- Begin function _pin_read
	.type	_pin_read,%function
	.code	16                              @ @_pin_read
	.thumb_func
_pin_read:
.Lfunc_begin1:
	.loc	1 19 0                          @ rt-thread/components/drivers/misc/pin.c:19:0
	.fnstart
	.cfi_startproc
@ %bb.0:
	.save	{r7, lr}
	push	{r7, lr}
	.cfi_def_cfa_offset 8
	.cfi_offset lr, -4
	.cfi_offset r7, -8
	.pad	#32
	sub	sp, #32
	.cfi_def_cfa_offset 40
	str	r0, [sp, #24]
	str	r1, [sp, #20]
	str	r2, [sp, #16]
	str	r3, [sp, #12]
.Ltmp2:
	.loc	1 21 57 prologue_end            @ rt-thread/components/drivers/misc/pin.c:21:57
	ldr	r0, [sp, #24]
	.loc	1 21 27 is_stmt 0               @ rt-thread/components/drivers/misc/pin.c:21:27
	str	r0, [sp, #4]
.Ltmp3:
	.loc	1 24 5 is_stmt 1                @ rt-thread/components/drivers/misc/pin.c:24:5
	ldr	r0, [sp, #4]
.Ltmp4:
	.loc	1 24 5 is_stmt 0                @ rt-thread/components/drivers/misc/pin.c:24:5
	cbnz	r0, .LBB1_2
	b	.LBB1_1
.LBB1_1:
.Ltmp5:
	.loc	1 24 5                          @ rt-thread/components/drivers/misc/pin.c:24:5
	movw	r0, :lower16:.L.str.2
	movt	r0, :upper16:.L.str.2
	movw	r1, :lower16:.L__FUNCTION__._pin_read
	movt	r1, :upper16:.L__FUNCTION__._pin_read
	movs	r2, #24
	bl	rt_assert_handler
	b	.LBB1_2
.Ltmp6:
.LBB1_2:
	.loc	1 26 46 is_stmt 1               @ rt-thread/components/drivers/misc/pin.c:26:46
	ldr	r0, [sp, #16]
	.loc	1 26 12 is_stmt 0               @ rt-thread/components/drivers/misc/pin.c:26:12
	str	r0, [sp, #8]
.Ltmp7:
	.loc	1 27 9 is_stmt 1                @ rt-thread/components/drivers/misc/pin.c:27:9
	ldr	r0, [sp, #8]
	.loc	1 27 27 is_stmt 0               @ rt-thread/components/drivers/misc/pin.c:27:27
	cbz	r0, .LBB1_4
	b	.LBB1_3
.LBB1_3:
	.loc	1 27 30                         @ rt-thread/components/drivers/misc/pin.c:27:30
	ldr	r0, [sp, #12]
.Ltmp8:
	.loc	1 27 9                          @ rt-thread/components/drivers/misc/pin.c:27:9
	cmp	r0, #4
	beq	.LBB1_5
	b	.LBB1_4
.LBB1_4:
	.loc	1 0 9                           @ rt-thread/components/drivers/misc/pin.c:0:9
	movs	r0, #0
.Ltmp9:
	.loc	1 27 55                         @ rt-thread/components/drivers/misc/pin.c:27:55
	str	r0, [sp, #28]
	b	.LBB1_6
.Ltmp10:
.LBB1_5:
	.loc	1 29 22 is_stmt 1               @ rt-thread/components/drivers/misc/pin.c:29:22
	ldr	r0, [sp, #4]
	.loc	1 29 27 is_stmt 0               @ rt-thread/components/drivers/misc/pin.c:29:27
	ldr	r0, [r0, #80]
	.loc	1 29 32                         @ rt-thread/components/drivers/misc/pin.c:29:32
	ldr	r2, [r0, #8]
	.loc	1 29 41                         @ rt-thread/components/drivers/misc/pin.c:29:41
	ldr	r0, [sp, #24]
	.loc	1 29 46                         @ rt-thread/components/drivers/misc/pin.c:29:46
	ldr	r1, [sp, #8]
	.loc	1 29 54                         @ rt-thread/components/drivers/misc/pin.c:29:54
	ldrh	r1, [r1]
	.loc	1 29 22                         @ rt-thread/components/drivers/misc/pin.c:29:22
	blx	r2
	.loc	1 29 5                          @ rt-thread/components/drivers/misc/pin.c:29:5
	ldr	r1, [sp, #8]
	.loc	1 29 20                         @ rt-thread/components/drivers/misc/pin.c:29:20
	strh	r0, [r1, #2]
	.loc	1 30 12 is_stmt 1               @ rt-thread/components/drivers/misc/pin.c:30:12
	ldr	r0, [sp, #12]
	.loc	1 30 5 is_stmt 0                @ rt-thread/components/drivers/misc/pin.c:30:5
	str	r0, [sp, #28]
	b	.LBB1_6
.LBB1_6:
	.loc	1 31 1 is_stmt 1                @ rt-thread/components/drivers/misc/pin.c:31:1
	ldr	r0, [sp, #28]
	add	sp, #32
	pop	{r7, pc}
.Ltmp11:
.Lfunc_end1:
	.size	_pin_read, .Lfunc_end1-_pin_read
	.cfi_endproc
	.cantunwind
	.fnend
                                        @ -- End function
	.section	.text._pin_write,"ax",%progbits
	.p2align	3                               @ -- Begin function _pin_write
	.type	_pin_write,%function
	.code	16                              @ @_pin_write
	.thumb_func
_pin_write:
.Lfunc_begin2:
	.loc	1 34 0                          @ rt-thread/components/drivers/misc/pin.c:34:0
	.fnstart
	.cfi_startproc
@ %bb.0:
	.save	{r7, lr}
	push	{r7, lr}
	.cfi_def_cfa_offset 8
	.cfi_offset lr, -4
	.cfi_offset r7, -8
	.pad	#32
	sub	sp, #32
	.cfi_def_cfa_offset 40
	str	r0, [sp, #24]
	str	r1, [sp, #20]
	str	r2, [sp, #16]
	str	r3, [sp, #12]
.Ltmp12:
	.loc	1 36 57 prologue_end            @ rt-thread/components/drivers/misc/pin.c:36:57
	ldr	r0, [sp, #24]
	.loc	1 36 27 is_stmt 0               @ rt-thread/components/drivers/misc/pin.c:36:27
	str	r0, [sp, #4]
.Ltmp13:
	.loc	1 39 5 is_stmt 1                @ rt-thread/components/drivers/misc/pin.c:39:5
	ldr	r0, [sp, #4]
.Ltmp14:
	.loc	1 39 5 is_stmt 0                @ rt-thread/components/drivers/misc/pin.c:39:5
	cbnz	r0, .LBB2_2
	b	.LBB2_1
.LBB2_1:
.Ltmp15:
	.loc	1 39 5                          @ rt-thread/components/drivers/misc/pin.c:39:5
	movw	r0, :lower16:.L.str.2
	movt	r0, :upper16:.L.str.2
	movw	r1, :lower16:.L__FUNCTION__._pin_write
	movt	r1, :upper16:.L__FUNCTION__._pin_write
	movs	r2, #39
	bl	rt_assert_handler
	b	.LBB2_2
.Ltmp16:
.LBB2_2:
	.loc	1 41 46 is_stmt 1               @ rt-thread/components/drivers/misc/pin.c:41:46
	ldr	r0, [sp, #16]
	.loc	1 41 12 is_stmt 0               @ rt-thread/components/drivers/misc/pin.c:41:12
	str	r0, [sp, #8]
.Ltmp17:
	.loc	1 42 9 is_stmt 1                @ rt-thread/components/drivers/misc/pin.c:42:9
	ldr	r0, [sp, #8]
	.loc	1 42 27 is_stmt 0               @ rt-thread/components/drivers/misc/pin.c:42:27
	cbz	r0, .LBB2_4
	b	.LBB2_3
.LBB2_3:
	.loc	1 42 30                         @ rt-thread/components/drivers/misc/pin.c:42:30
	ldr	r0, [sp, #12]
.Ltmp18:
	.loc	1 42 9                          @ rt-thread/components/drivers/misc/pin.c:42:9
	cmp	r0, #4
	beq	.LBB2_5
	b	.LBB2_4
.LBB2_4:
	.loc	1 0 9                           @ rt-thread/components/drivers/misc/pin.c:0:9
	movs	r0, #0
.Ltmp19:
	.loc	1 42 55                         @ rt-thread/components/drivers/misc/pin.c:42:55
	str	r0, [sp, #28]
	b	.LBB2_6
.Ltmp20:
.LBB2_5:
	.loc	1 44 5 is_stmt 1                @ rt-thread/components/drivers/misc/pin.c:44:5
	ldr	r0, [sp, #4]
	.loc	1 44 10 is_stmt 0               @ rt-thread/components/drivers/misc/pin.c:44:10
	ldr	r0, [r0, #80]
	.loc	1 44 15                         @ rt-thread/components/drivers/misc/pin.c:44:15
	ldr	r3, [r0, #4]
	.loc	1 44 25                         @ rt-thread/components/drivers/misc/pin.c:44:25
	ldr	r0, [sp, #24]
	.loc	1 44 41                         @ rt-thread/components/drivers/misc/pin.c:44:41
	ldr	r2, [sp, #8]
	.loc	1 44 49                         @ rt-thread/components/drivers/misc/pin.c:44:49
	ldrh	r1, [r2]
	.loc	1 44 73                         @ rt-thread/components/drivers/misc/pin.c:44:73
	ldrh	r2, [r2, #2]
	.loc	1 44 5                          @ rt-thread/components/drivers/misc/pin.c:44:5
	blx	r3
	.loc	1 46 12 is_stmt 1               @ rt-thread/components/drivers/misc/pin.c:46:12
	ldr	r0, [sp, #12]
	.loc	1 46 5 is_stmt 0                @ rt-thread/components/drivers/misc/pin.c:46:5
	str	r0, [sp, #28]
	b	.LBB2_6
.LBB2_6:
	.loc	1 47 1 is_stmt 1                @ rt-thread/components/drivers/misc/pin.c:47:1
	ldr	r0, [sp, #28]
	add	sp, #32
	pop	{r7, pc}
.Ltmp21:
.Lfunc_end2:
	.size	_pin_write, .Lfunc_end2-_pin_write
	.cfi_endproc
	.cantunwind
	.fnend
                                        @ -- End function
	.section	.text._pin_control,"ax",%progbits
	.p2align	3                               @ -- Begin function _pin_control
	.type	_pin_control,%function
	.code	16                              @ @_pin_control
	.thumb_func
_pin_control:
.Lfunc_begin3:
	.loc	1 50 0                          @ rt-thread/components/drivers/misc/pin.c:50:0
	.fnstart
	.cfi_startproc
@ %bb.0:
	.save	{r7, lr}
	push	{r7, lr}
	.cfi_def_cfa_offset 8
	.cfi_offset lr, -4
	.cfi_offset r7, -8
	.pad	#24
	sub	sp, #24
	.cfi_def_cfa_offset 32
	str	r0, [sp, #16]
	str	r1, [sp, #12]
	str	r2, [sp, #8]
.Ltmp22:
	.loc	1 52 57 prologue_end            @ rt-thread/components/drivers/misc/pin.c:52:57
	ldr	r0, [sp, #16]
	.loc	1 52 27 is_stmt 0               @ rt-thread/components/drivers/misc/pin.c:52:27
	str	r0, [sp]
.Ltmp23:
	.loc	1 55 5 is_stmt 1                @ rt-thread/components/drivers/misc/pin.c:55:5
	ldr	r0, [sp]
.Ltmp24:
	.loc	1 55 5 is_stmt 0                @ rt-thread/components/drivers/misc/pin.c:55:5
	cbnz	r0, .LBB3_2
	b	.LBB3_1
.LBB3_1:
.Ltmp25:
	.loc	1 55 5                          @ rt-thread/components/drivers/misc/pin.c:55:5
	movw	r0, :lower16:.L.str.2
	movt	r0, :upper16:.L.str.2
	movw	r1, :lower16:.L__FUNCTION__._pin_control
	movt	r1, :upper16:.L__FUNCTION__._pin_control
	movs	r2, #55
	bl	rt_assert_handler
	b	.LBB3_2
.Ltmp26:
.LBB3_2:
	.loc	1 57 42 is_stmt 1               @ rt-thread/components/drivers/misc/pin.c:57:42
	ldr	r0, [sp, #8]
	.loc	1 57 10 is_stmt 0               @ rt-thread/components/drivers/misc/pin.c:57:10
	str	r0, [sp, #4]
.Ltmp27:
	.loc	1 58 9 is_stmt 1                @ rt-thread/components/drivers/misc/pin.c:58:9
	ldr	r0, [sp, #4]
.Ltmp28:
	.loc	1 58 9 is_stmt 0                @ rt-thread/components/drivers/misc/pin.c:58:9
	cbnz	r0, .LBB3_4
	b	.LBB3_3
.LBB3_3:
	.loc	1 0 9                           @ rt-thread/components/drivers/misc/pin.c:0:9
	mov.w	r0, #-1
.Ltmp29:
	.loc	1 58 26                         @ rt-thread/components/drivers/misc/pin.c:58:26
	str	r0, [sp, #20]
	b	.LBB3_5
.Ltmp30:
.LBB3_4:
	.loc	1 60 5 is_stmt 1                @ rt-thread/components/drivers/misc/pin.c:60:5
	ldr	r0, [sp]
	.loc	1 60 10 is_stmt 0               @ rt-thread/components/drivers/misc/pin.c:60:10
	ldr	r0, [r0, #80]
	.loc	1 60 15                         @ rt-thread/components/drivers/misc/pin.c:60:15
	ldr	r3, [r0]
	.loc	1 60 24                         @ rt-thread/components/drivers/misc/pin.c:60:24
	ldr	r0, [sp, #16]
	.loc	1 60 40                         @ rt-thread/components/drivers/misc/pin.c:60:40
	ldr	r2, [sp, #4]
	.loc	1 60 46                         @ rt-thread/components/drivers/misc/pin.c:60:46
	ldrh	r1, [r2]
	.loc	1 60 68                         @ rt-thread/components/drivers/misc/pin.c:60:68
	ldrh	r2, [r2, #2]
	.loc	1 60 5                          @ rt-thread/components/drivers/misc/pin.c:60:5
	blx	r3
	movs	r0, #0
	.loc	1 62 5 is_stmt 1                @ rt-thread/components/drivers/misc/pin.c:62:5
	str	r0, [sp, #20]
	b	.LBB3_5
.LBB3_5:
	.loc	1 63 1                          @ rt-thread/components/drivers/misc/pin.c:63:1
	ldr	r0, [sp, #20]
	add	sp, #24
	pop	{r7, pc}
.Ltmp31:
.Lfunc_end3:
	.size	_pin_control, .Lfunc_end3-_pin_control
	.cfi_endproc
	.cantunwind
	.fnend
                                        @ -- End function
	.section	.text.rt_pin_attach_irq,"ax",%progbits
	.hidden	rt_pin_attach_irq               @ -- Begin function rt_pin_attach_irq
	.globl	rt_pin_attach_irq
	.p2align	3
	.type	rt_pin_attach_irq,%function
	.code	16                              @ @rt_pin_attach_irq
	.thumb_func
rt_pin_attach_irq:
.Lfunc_begin4:
	.loc	1 105 0                         @ rt-thread/components/drivers/misc/pin.c:105:0
	.fnstart
	.cfi_startproc
@ %bb.0:
	.save	{r4, lr}
	push	{r4, lr}
	.cfi_def_cfa_offset 8
	.cfi_offset lr, -4
	.cfi_offset r4, -8
	.pad	#24
	sub	sp, #24
	.cfi_def_cfa_offset 32
	str	r0, [sp, #16]
	str	r1, [sp, #12]
	str	r2, [sp, #8]
	str	r3, [sp, #4]
.Ltmp32:
	.loc	1 106 5 prologue_end            @ rt-thread/components/drivers/misc/pin.c:106:5
	movw	r0, :lower16:_hw_pin
	movt	r0, :upper16:_hw_pin
	ldr	r0, [r0, #80]
.Ltmp33:
	.loc	1 106 5 is_stmt 0               @ rt-thread/components/drivers/misc/pin.c:106:5
	cbnz	r0, .LBB4_2
	b	.LBB4_1
.LBB4_1:
.Ltmp34:
	.loc	1 106 5                         @ rt-thread/components/drivers/misc/pin.c:106:5
	movw	r0, :lower16:.L.str
	movt	r0, :upper16:.L.str
	movw	r1, :lower16:.L__FUNCTION__.rt_pin_attach_irq
	movt	r1, :upper16:.L__FUNCTION__.rt_pin_attach_irq
	movs	r2, #106
	bl	rt_assert_handler
	b	.LBB4_2
.Ltmp35:
.LBB4_2:
	.loc	1 107 16 is_stmt 1              @ rt-thread/components/drivers/misc/pin.c:107:16
	movw	r0, :lower16:_hw_pin
	movt	r0, :upper16:_hw_pin
	ldr	r0, [r0, #80]
	.loc	1 107 21 is_stmt 0              @ rt-thread/components/drivers/misc/pin.c:107:21
	ldr	r0, [r0, #12]
.Ltmp36:
	.loc	1 107 8                         @ rt-thread/components/drivers/misc/pin.c:107:8
	cbz	r0, .LBB4_4
	b	.LBB4_3
.LBB4_3:
.Ltmp37:
	.loc	1 109 24 is_stmt 1              @ rt-thread/components/drivers/misc/pin.c:109:24
	movw	r0, :lower16:_hw_pin
	movt	r0, :upper16:_hw_pin
	ldr	r1, [r0, #80]
	.loc	1 109 29 is_stmt 0              @ rt-thread/components/drivers/misc/pin.c:109:29
	ldr.w	r12, [r1, #12]
	.loc	1 109 61                        @ rt-thread/components/drivers/misc/pin.c:109:61
	ldr	r1, [sp, #16]
	.loc	1 109 66                        @ rt-thread/components/drivers/misc/pin.c:109:66
	ldr	r2, [sp, #12]
	.loc	1 109 72                        @ rt-thread/components/drivers/misc/pin.c:109:72
	ldr	r3, [sp, #8]
	.loc	1 109 77                        @ rt-thread/components/drivers/misc/pin.c:109:77
	ldr.w	lr, [sp, #4]
	.loc	1 109 16                        @ rt-thread/components/drivers/misc/pin.c:109:16
	mov	r4, sp
	str.w	lr, [r4]
	blx	r12
	.loc	1 109 9                         @ rt-thread/components/drivers/misc/pin.c:109:9
	str	r0, [sp, #20]
	b	.LBB4_5
.Ltmp38:
.LBB4_4:
	.loc	1 0 9                           @ rt-thread/components/drivers/misc/pin.c:0:9
	movs	r0, #6
	.loc	1 111 5 is_stmt 1               @ rt-thread/components/drivers/misc/pin.c:111:5
	str	r0, [sp, #20]
	b	.LBB4_5
.LBB4_5:
	.loc	1 112 1                         @ rt-thread/components/drivers/misc/pin.c:112:1
	ldr	r0, [sp, #20]
	add	sp, #24
	pop	{r4, pc}
.Ltmp39:
.Lfunc_end4:
	.size	rt_pin_attach_irq, .Lfunc_end4-rt_pin_attach_irq
	.cfi_endproc
	.cantunwind
	.fnend
                                        @ -- End function
	.section	.text.rt_pin_detach_irq,"ax",%progbits
	.hidden	rt_pin_detach_irq               @ -- Begin function rt_pin_detach_irq
	.globl	rt_pin_detach_irq
	.p2align	3
	.type	rt_pin_detach_irq,%function
	.code	16                              @ @rt_pin_detach_irq
	.thumb_func
rt_pin_detach_irq:
.Lfunc_begin5:
	.loc	1 114 0                         @ rt-thread/components/drivers/misc/pin.c:114:0
	.fnstart
	.cfi_startproc
@ %bb.0:
	.save	{r7, lr}
	push	{r7, lr}
	.cfi_def_cfa_offset 8
	.cfi_offset lr, -4
	.cfi_offset r7, -8
	.pad	#8
	sub	sp, #8
	.cfi_def_cfa_offset 16
	str	r0, [sp]
.Ltmp40:
	.loc	1 115 5 prologue_end            @ rt-thread/components/drivers/misc/pin.c:115:5
	movw	r0, :lower16:_hw_pin
	movt	r0, :upper16:_hw_pin
	ldr	r0, [r0, #80]
.Ltmp41:
	.loc	1 115 5 is_stmt 0               @ rt-thread/components/drivers/misc/pin.c:115:5
	cbnz	r0, .LBB5_2
	b	.LBB5_1
.LBB5_1:
.Ltmp42:
	.loc	1 115 5                         @ rt-thread/components/drivers/misc/pin.c:115:5
	movw	r0, :lower16:.L.str
	movt	r0, :upper16:.L.str
	movw	r1, :lower16:.L__FUNCTION__.rt_pin_detach_irq
	movt	r1, :upper16:.L__FUNCTION__.rt_pin_detach_irq
	movs	r2, #115
	bl	rt_assert_handler
	b	.LBB5_2
.Ltmp43:
.LBB5_2:
	.loc	1 116 16 is_stmt 1              @ rt-thread/components/drivers/misc/pin.c:116:16
	movw	r0, :lower16:_hw_pin
	movt	r0, :upper16:_hw_pin
	ldr	r0, [r0, #80]
	.loc	1 116 21 is_stmt 0              @ rt-thread/components/drivers/misc/pin.c:116:21
	ldr	r0, [r0, #16]
.Ltmp44:
	.loc	1 116 8                         @ rt-thread/components/drivers/misc/pin.c:116:8
	cbz	r0, .LBB5_4
	b	.LBB5_3
.LBB5_3:
.Ltmp45:
	.loc	1 118 24 is_stmt 1              @ rt-thread/components/drivers/misc/pin.c:118:24
	movw	r0, :lower16:_hw_pin
	movt	r0, :upper16:_hw_pin
	ldr	r1, [r0, #80]
	.loc	1 118 29 is_stmt 0              @ rt-thread/components/drivers/misc/pin.c:118:29
	ldr	r2, [r1, #16]
	.loc	1 118 61                        @ rt-thread/components/drivers/misc/pin.c:118:61
	ldr	r1, [sp]
	.loc	1 118 16                        @ rt-thread/components/drivers/misc/pin.c:118:16
	blx	r2
	.loc	1 118 9                         @ rt-thread/components/drivers/misc/pin.c:118:9
	str	r0, [sp, #4]
	b	.LBB5_5
.Ltmp46:
.LBB5_4:
	.loc	1 0 9                           @ rt-thread/components/drivers/misc/pin.c:0:9
	movs	r0, #6
	.loc	1 120 5 is_stmt 1               @ rt-thread/components/drivers/misc/pin.c:120:5
	str	r0, [sp, #4]
	b	.LBB5_5
.LBB5_5:
	.loc	1 121 1                         @ rt-thread/components/drivers/misc/pin.c:121:1
	ldr	r0, [sp, #4]
	add	sp, #8
	pop	{r7, pc}
.Ltmp47:
.Lfunc_end5:
	.size	rt_pin_detach_irq, .Lfunc_end5-rt_pin_detach_irq
	.cfi_endproc
	.cantunwind
	.fnend
                                        @ -- End function
	.section	.text.rt_pin_irq_enable,"ax",%progbits
	.hidden	rt_pin_irq_enable               @ -- Begin function rt_pin_irq_enable
	.globl	rt_pin_irq_enable
	.p2align	3
	.type	rt_pin_irq_enable,%function
	.code	16                              @ @rt_pin_irq_enable
	.thumb_func
rt_pin_irq_enable:
.Lfunc_begin6:
	.loc	1 124 0                         @ rt-thread/components/drivers/misc/pin.c:124:0
	.fnstart
	.cfi_startproc
@ %bb.0:
	.save	{r7, lr}
	push	{r7, lr}
	.cfi_def_cfa_offset 8
	.cfi_offset lr, -4
	.cfi_offset r7, -8
	.pad	#16
	sub	sp, #16
	.cfi_def_cfa_offset 24
	str	r0, [sp, #8]
	str	r1, [sp, #4]
.Ltmp48:
	.loc	1 125 5 prologue_end            @ rt-thread/components/drivers/misc/pin.c:125:5
	movw	r0, :lower16:_hw_pin
	movt	r0, :upper16:_hw_pin
	ldr	r0, [r0, #80]
.Ltmp49:
	.loc	1 125 5 is_stmt 0               @ rt-thread/components/drivers/misc/pin.c:125:5
	cbnz	r0, .LBB6_2
	b	.LBB6_1
.LBB6_1:
.Ltmp50:
	.loc	1 125 5                         @ rt-thread/components/drivers/misc/pin.c:125:5
	movw	r0, :lower16:.L.str
	movt	r0, :upper16:.L.str
	movw	r1, :lower16:.L__FUNCTION__.rt_pin_irq_enable
	movt	r1, :upper16:.L__FUNCTION__.rt_pin_irq_enable
	movs	r2, #125
	bl	rt_assert_handler
	b	.LBB6_2
.Ltmp51:
.LBB6_2:
	.loc	1 126 16 is_stmt 1              @ rt-thread/components/drivers/misc/pin.c:126:16
	movw	r0, :lower16:_hw_pin
	movt	r0, :upper16:_hw_pin
	ldr	r0, [r0, #80]
	.loc	1 126 21 is_stmt 0              @ rt-thread/components/drivers/misc/pin.c:126:21
	ldr	r0, [r0, #20]
.Ltmp52:
	.loc	1 126 8                         @ rt-thread/components/drivers/misc/pin.c:126:8
	cbz	r0, .LBB6_4
	b	.LBB6_3
.LBB6_3:
.Ltmp53:
	.loc	1 128 24 is_stmt 1              @ rt-thread/components/drivers/misc/pin.c:128:24
	movw	r0, :lower16:_hw_pin
	movt	r0, :upper16:_hw_pin
	ldr	r1, [r0, #80]
	.loc	1 128 29 is_stmt 0              @ rt-thread/components/drivers/misc/pin.c:128:29
	ldr	r3, [r1, #20]
	.loc	1 128 61                        @ rt-thread/components/drivers/misc/pin.c:128:61
	ldr	r1, [sp, #8]
	.loc	1 128 66                        @ rt-thread/components/drivers/misc/pin.c:128:66
	ldr	r2, [sp, #4]
	.loc	1 128 16                        @ rt-thread/components/drivers/misc/pin.c:128:16
	blx	r3
	.loc	1 128 9                         @ rt-thread/components/drivers/misc/pin.c:128:9
	str	r0, [sp, #12]
	b	.LBB6_5
.Ltmp54:
.LBB6_4:
	.loc	1 0 9                           @ rt-thread/components/drivers/misc/pin.c:0:9
	movs	r0, #6
	.loc	1 130 5 is_stmt 1               @ rt-thread/components/drivers/misc/pin.c:130:5
	str	r0, [sp, #12]
	b	.LBB6_5
.LBB6_5:
	.loc	1 131 1                         @ rt-thread/components/drivers/misc/pin.c:131:1
	ldr	r0, [sp, #12]
	add	sp, #16
	pop	{r7, pc}
.Ltmp55:
.Lfunc_end6:
	.size	rt_pin_irq_enable, .Lfunc_end6-rt_pin_irq_enable
	.cfi_endproc
	.cantunwind
	.fnend
                                        @ -- End function
	.section	.text.rt_pin_mode,"ax",%progbits
	.hidden	rt_pin_mode                     @ -- Begin function rt_pin_mode
	.globl	rt_pin_mode
	.p2align	3
	.type	rt_pin_mode,%function
	.code	16                              @ @rt_pin_mode
	.thumb_func
rt_pin_mode:
.Lfunc_begin7:
	.loc	1 135 0                         @ rt-thread/components/drivers/misc/pin.c:135:0
	.fnstart
	.cfi_startproc
@ %bb.0:
	.save	{r7, lr}
	push	{r7, lr}
	.cfi_def_cfa_offset 8
	.cfi_offset lr, -4
	.cfi_offset r7, -8
	.pad	#8
	sub	sp, #8
	.cfi_def_cfa_offset 16
	str	r0, [sp, #4]
	str	r1, [sp]
.Ltmp56:
	.loc	1 136 5 prologue_end            @ rt-thread/components/drivers/misc/pin.c:136:5
	movw	r0, :lower16:_hw_pin
	movt	r0, :upper16:_hw_pin
	ldr	r0, [r0, #80]
.Ltmp57:
	.loc	1 136 5 is_stmt 0               @ rt-thread/components/drivers/misc/pin.c:136:5
	cbnz	r0, .LBB7_2
	b	.LBB7_1
.LBB7_1:
.Ltmp58:
	.loc	1 136 5                         @ rt-thread/components/drivers/misc/pin.c:136:5
	movw	r0, :lower16:.L.str
	movt	r0, :upper16:.L.str
	movw	r1, :lower16:.L__FUNCTION__.rt_pin_mode
	movt	r1, :upper16:.L__FUNCTION__.rt_pin_mode
	movs	r2, #136
	bl	rt_assert_handler
	b	.LBB7_2
.Ltmp59:
.LBB7_2:
	.loc	1 137 13 is_stmt 1              @ rt-thread/components/drivers/misc/pin.c:137:13
	movw	r0, :lower16:_hw_pin
	movt	r0, :upper16:_hw_pin
	ldr	r1, [r0, #80]
	.loc	1 137 18 is_stmt 0              @ rt-thread/components/drivers/misc/pin.c:137:18
	ldr	r3, [r1]
	.loc	1 137 44                        @ rt-thread/components/drivers/misc/pin.c:137:44
	ldr	r1, [sp, #4]
	.loc	1 137 49                        @ rt-thread/components/drivers/misc/pin.c:137:49
	ldr	r2, [sp]
	.loc	1 137 5                         @ rt-thread/components/drivers/misc/pin.c:137:5
	blx	r3
	.loc	1 138 1 is_stmt 1               @ rt-thread/components/drivers/misc/pin.c:138:1
	add	sp, #8
	pop	{r7, pc}
.Ltmp60:
.Lfunc_end7:
	.size	rt_pin_mode, .Lfunc_end7-rt_pin_mode
	.cfi_endproc
	.cantunwind
	.fnend
                                        @ -- End function
	.section	.text.rt_pin_write,"ax",%progbits
	.hidden	rt_pin_write                    @ -- Begin function rt_pin_write
	.globl	rt_pin_write
	.p2align	3
	.type	rt_pin_write,%function
	.code	16                              @ @rt_pin_write
	.thumb_func
rt_pin_write:
.Lfunc_begin8:
	.loc	1 142 0                         @ rt-thread/components/drivers/misc/pin.c:142:0
	.fnstart
	.cfi_startproc
@ %bb.0:
	.save	{r7, lr}
	push	{r7, lr}
	.cfi_def_cfa_offset 8
	.cfi_offset lr, -4
	.cfi_offset r7, -8
	.pad	#8
	sub	sp, #8
	.cfi_def_cfa_offset 16
	str	r0, [sp, #4]
	str	r1, [sp]
.Ltmp61:
	.loc	1 143 5 prologue_end            @ rt-thread/components/drivers/misc/pin.c:143:5
	movw	r0, :lower16:_hw_pin
	movt	r0, :upper16:_hw_pin
	ldr	r0, [r0, #80]
.Ltmp62:
	.loc	1 143 5 is_stmt 0               @ rt-thread/components/drivers/misc/pin.c:143:5
	cbnz	r0, .LBB8_2
	b	.LBB8_1
.LBB8_1:
.Ltmp63:
	.loc	1 143 5                         @ rt-thread/components/drivers/misc/pin.c:143:5
	movw	r0, :lower16:.L.str
	movt	r0, :upper16:.L.str
	movw	r1, :lower16:.L__FUNCTION__.rt_pin_write
	movt	r1, :upper16:.L__FUNCTION__.rt_pin_write
	movs	r2, #143
	bl	rt_assert_handler
	b	.LBB8_2
.Ltmp64:
.LBB8_2:
	.loc	1 144 13 is_stmt 1              @ rt-thread/components/drivers/misc/pin.c:144:13
	movw	r0, :lower16:_hw_pin
	movt	r0, :upper16:_hw_pin
	ldr	r1, [r0, #80]
	.loc	1 144 18 is_stmt 0              @ rt-thread/components/drivers/misc/pin.c:144:18
	ldr	r3, [r1, #4]
	.loc	1 144 45                        @ rt-thread/components/drivers/misc/pin.c:144:45
	ldr	r1, [sp, #4]
	.loc	1 144 50                        @ rt-thread/components/drivers/misc/pin.c:144:50
	ldr	r2, [sp]
	.loc	1 144 5                         @ rt-thread/components/drivers/misc/pin.c:144:5
	blx	r3
	.loc	1 145 1 is_stmt 1               @ rt-thread/components/drivers/misc/pin.c:145:1
	add	sp, #8
	pop	{r7, pc}
.Ltmp65:
.Lfunc_end8:
	.size	rt_pin_write, .Lfunc_end8-rt_pin_write
	.cfi_endproc
	.cantunwind
	.fnend
                                        @ -- End function
	.section	.text.rt_pin_read,"ax",%progbits
	.hidden	rt_pin_read                     @ -- Begin function rt_pin_read
	.globl	rt_pin_read
	.p2align	3
	.type	rt_pin_read,%function
	.code	16                              @ @rt_pin_read
	.thumb_func
rt_pin_read:
.Lfunc_begin9:
	.loc	1 149 0                         @ rt-thread/components/drivers/misc/pin.c:149:0
	.fnstart
	.cfi_startproc
@ %bb.0:
	.save	{r7, lr}
	push	{r7, lr}
	.cfi_def_cfa_offset 8
	.cfi_offset lr, -4
	.cfi_offset r7, -8
	.pad	#8
	sub	sp, #8
	.cfi_def_cfa_offset 16
	str	r0, [sp, #4]
.Ltmp66:
	.loc	1 150 5 prologue_end            @ rt-thread/components/drivers/misc/pin.c:150:5
	movw	r0, :lower16:_hw_pin
	movt	r0, :upper16:_hw_pin
	ldr	r0, [r0, #80]
.Ltmp67:
	.loc	1 150 5 is_stmt 0               @ rt-thread/components/drivers/misc/pin.c:150:5
	cbnz	r0, .LBB9_2
	b	.LBB9_1
.LBB9_1:
.Ltmp68:
	.loc	1 150 5                         @ rt-thread/components/drivers/misc/pin.c:150:5
	movw	r0, :lower16:.L.str
	movt	r0, :upper16:.L.str
	movw	r1, :lower16:.L__FUNCTION__.rt_pin_read
	movt	r1, :upper16:.L__FUNCTION__.rt_pin_read
	movs	r2, #150
	bl	rt_assert_handler
	b	.LBB9_2
.Ltmp69:
.LBB9_2:
	.loc	1 151 20 is_stmt 1              @ rt-thread/components/drivers/misc/pin.c:151:20
	movw	r0, :lower16:_hw_pin
	movt	r0, :upper16:_hw_pin
	ldr	r1, [r0, #80]
	.loc	1 151 25 is_stmt 0              @ rt-thread/components/drivers/misc/pin.c:151:25
	ldr	r2, [r1, #8]
	.loc	1 151 51                        @ rt-thread/components/drivers/misc/pin.c:151:51
	ldr	r1, [sp, #4]
	.loc	1 151 12                        @ rt-thread/components/drivers/misc/pin.c:151:12
	blx	r2
	.loc	1 151 5                         @ rt-thread/components/drivers/misc/pin.c:151:5
	add	sp, #8
	pop	{r7, pc}
.Ltmp70:
.Lfunc_end9:
	.size	rt_pin_read, .Lfunc_end9-rt_pin_read
	.cfi_endproc
	.cantunwind
	.fnend
                                        @ -- End function
	.section	.text.rt_pin_get,"ax",%progbits
	.hidden	rt_pin_get                      @ -- Begin function rt_pin_get
	.globl	rt_pin_get
	.p2align	3
	.type	rt_pin_get,%function
	.code	16                              @ @rt_pin_get
	.thumb_func
rt_pin_get:
.Lfunc_begin10:
	.loc	1 156 0 is_stmt 1               @ rt-thread/components/drivers/misc/pin.c:156:0
	.fnstart
	.cfi_startproc
@ %bb.0:
	.save	{r7, lr}
	push	{r7, lr}
	.cfi_def_cfa_offset 8
	.cfi_offset lr, -4
	.cfi_offset r7, -8
	.pad	#8
	sub	sp, #8
	.cfi_def_cfa_offset 16
	str	r0, [sp]
.Ltmp71:
	.loc	1 157 5 prologue_end            @ rt-thread/components/drivers/misc/pin.c:157:5
	movw	r0, :lower16:_hw_pin
	movt	r0, :upper16:_hw_pin
	ldr	r0, [r0, #80]
.Ltmp72:
	.loc	1 157 5 is_stmt 0               @ rt-thread/components/drivers/misc/pin.c:157:5
	cbnz	r0, .LBB10_2
	b	.LBB10_1
.LBB10_1:
.Ltmp73:
	.loc	1 157 5                         @ rt-thread/components/drivers/misc/pin.c:157:5
	movw	r0, :lower16:.L.str
	movt	r0, :upper16:.L.str
	movw	r1, :lower16:.L__FUNCTION__.rt_pin_get
	movt	r1, :upper16:.L__FUNCTION__.rt_pin_get
	movs	r2, #157
	bl	rt_assert_handler
	b	.LBB10_2
.Ltmp74:
.LBB10_2:
	.loc	1 158 5 is_stmt 1               @ rt-thread/components/drivers/misc/pin.c:158:5
	ldr	r0, [sp]
	ldrsb.w	r0, [r0]
.Ltmp75:
	.loc	1 158 5 is_stmt 0               @ rt-thread/components/drivers/misc/pin.c:158:5
	cmp	r0, #80
	beq	.LBB10_4
	b	.LBB10_3
.LBB10_3:
.Ltmp76:
	.loc	1 158 5                         @ rt-thread/components/drivers/misc/pin.c:158:5
	movw	r0, :lower16:.L.str.1
	movt	r0, :upper16:.L.str.1
	movw	r1, :lower16:.L__FUNCTION__.rt_pin_get
	movt	r1, :upper16:.L__FUNCTION__.rt_pin_get
	movs	r2, #158
	bl	rt_assert_handler
	b	.LBB10_4
.Ltmp77:
.LBB10_4:
	.loc	1 160 16 is_stmt 1              @ rt-thread/components/drivers/misc/pin.c:160:16
	movw	r0, :lower16:_hw_pin
	movt	r0, :upper16:_hw_pin
	ldr	r0, [r0, #80]
	.loc	1 160 21 is_stmt 0              @ rt-thread/components/drivers/misc/pin.c:160:21
	ldr	r0, [r0, #24]
.Ltmp78:
	.loc	1 160 8                         @ rt-thread/components/drivers/misc/pin.c:160:8
	cbnz	r0, .LBB10_6
	b	.LBB10_5
.LBB10_5:
	.loc	1 0 8                           @ rt-thread/components/drivers/misc/pin.c:0:8
	mvn	r0, #5
.Ltmp79:
	.loc	1 162 9 is_stmt 1               @ rt-thread/components/drivers/misc/pin.c:162:9
	str	r0, [sp, #4]
	b	.LBB10_7
.Ltmp80:
.LBB10_6:
	.loc	1 165 20                        @ rt-thread/components/drivers/misc/pin.c:165:20
	movw	r0, :lower16:_hw_pin
	movt	r0, :upper16:_hw_pin
	ldr	r0, [r0, #80]
	.loc	1 165 25 is_stmt 0              @ rt-thread/components/drivers/misc/pin.c:165:25
	ldr	r1, [r0, #24]
	.loc	1 165 33                        @ rt-thread/components/drivers/misc/pin.c:165:33
	ldr	r0, [sp]
	.loc	1 165 12                        @ rt-thread/components/drivers/misc/pin.c:165:12
	blx	r1
	.loc	1 165 5                         @ rt-thread/components/drivers/misc/pin.c:165:5
	str	r0, [sp, #4]
	b	.LBB10_7
.LBB10_7:
	.loc	1 166 1 is_stmt 1               @ rt-thread/components/drivers/misc/pin.c:166:1
	ldr	r0, [sp, #4]
	add	sp, #8
	pop	{r7, pc}
.Ltmp81:
.Lfunc_end10:
	.size	rt_pin_get, .Lfunc_end10-rt_pin_get
	.cfi_endproc
	.cantunwind
	.fnend
                                        @ -- End function
	.type	_hw_pin,%object                 @ @_hw_pin
	.section	.bss._hw_pin,"aw",%nobits
	.p2align	2
_hw_pin:
	.zero	84
	.size	_hw_pin, 84

	.type	.L.str,%object                  @ @.str
	.section	.rodata.str1.1,"aMS",%progbits,1
.L.str:
	.asciz	"_hw_pin.ops != RT_NULL"
	.size	.L.str, 23

	.type	.L__FUNCTION__.rt_pin_attach_irq,%object @ @__FUNCTION__.rt_pin_attach_irq
.L__FUNCTION__.rt_pin_attach_irq:
	.asciz	"rt_pin_attach_irq"
	.size	.L__FUNCTION__.rt_pin_attach_irq, 18

	.type	.L__FUNCTION__.rt_pin_detach_irq,%object @ @__FUNCTION__.rt_pin_detach_irq
.L__FUNCTION__.rt_pin_detach_irq:
	.asciz	"rt_pin_detach_irq"
	.size	.L__FUNCTION__.rt_pin_detach_irq, 18

	.type	.L__FUNCTION__.rt_pin_irq_enable,%object @ @__FUNCTION__.rt_pin_irq_enable
.L__FUNCTION__.rt_pin_irq_enable:
	.asciz	"rt_pin_irq_enable"
	.size	.L__FUNCTION__.rt_pin_irq_enable, 18

	.type	.L__FUNCTION__.rt_pin_mode,%object @ @__FUNCTION__.rt_pin_mode
.L__FUNCTION__.rt_pin_mode:
	.asciz	"rt_pin_mode"
	.size	.L__FUNCTION__.rt_pin_mode, 12

	.hidden	__fsym_pinMode_name             @ @__fsym_pinMode_name
	.type	__fsym_pinMode_name,%object
	.section	.rodata.name,"a",%progbits
	.globl	__fsym_pinMode_name
__fsym_pinMode_name:
	.asciz	"pinMode"
	.size	__fsym_pinMode_name, 8

	.hidden	__fsym_pinMode_desc             @ @__fsym_pinMode_desc
	.type	__fsym_pinMode_desc,%object
	.globl	__fsym_pinMode_desc
__fsym_pinMode_desc:
	.asciz	"set hardware pin mode"
	.size	__fsym_pinMode_desc, 22

	.hidden	__fsym_pinMode                  @ @__fsym_pinMode
	.type	__fsym_pinMode,%object
	.section	FSymTab,"a",%progbits
	.globl	__fsym_pinMode
	.p2align	2
__fsym_pinMode:
__tagsym$$used.0:
	.long	__fsym_pinMode_name
	.long	__fsym_pinMode_desc
	.long	rt_pin_mode
	.size	__fsym_pinMode, 12

	.type	.L__FUNCTION__.rt_pin_write,%object @ @__FUNCTION__.rt_pin_write
	.section	.rodata.str1.1,"aMS",%progbits,1
.L__FUNCTION__.rt_pin_write:
	.asciz	"rt_pin_write"
	.size	.L__FUNCTION__.rt_pin_write, 13

	.hidden	__fsym_pinWrite_name            @ @__fsym_pinWrite_name
	.type	__fsym_pinWrite_name,%object
	.section	.rodata.name,"a",%progbits
	.globl	__fsym_pinWrite_name
__fsym_pinWrite_name:
	.asciz	"pinWrite"
	.size	__fsym_pinWrite_name, 9

	.hidden	__fsym_pinWrite_desc            @ @__fsym_pinWrite_desc
	.type	__fsym_pinWrite_desc,%object
	.globl	__fsym_pinWrite_desc
__fsym_pinWrite_desc:
	.asciz	"write value to hardware pin"
	.size	__fsym_pinWrite_desc, 28

	.hidden	__fsym_pinWrite                 @ @__fsym_pinWrite
	.type	__fsym_pinWrite,%object
	.section	FSymTab,"a",%progbits
	.globl	__fsym_pinWrite
	.p2align	2
__fsym_pinWrite:
__tagsym$$used.1:
	.long	__fsym_pinWrite_name
	.long	__fsym_pinWrite_desc
	.long	rt_pin_write
	.size	__fsym_pinWrite, 12

	.type	.L__FUNCTION__.rt_pin_read,%object @ @__FUNCTION__.rt_pin_read
	.section	.rodata.str1.1,"aMS",%progbits,1
.L__FUNCTION__.rt_pin_read:
	.asciz	"rt_pin_read"
	.size	.L__FUNCTION__.rt_pin_read, 12

	.hidden	__fsym_pinRead_name             @ @__fsym_pinRead_name
	.type	__fsym_pinRead_name,%object
	.section	.rodata.name,"a",%progbits
	.globl	__fsym_pinRead_name
__fsym_pinRead_name:
	.asciz	"pinRead"
	.size	__fsym_pinRead_name, 8

	.hidden	__fsym_pinRead_desc             @ @__fsym_pinRead_desc
	.type	__fsym_pinRead_desc,%object
	.globl	__fsym_pinRead_desc
__fsym_pinRead_desc:
	.asciz	"read status from hardware pin"
	.size	__fsym_pinRead_desc, 30

	.hidden	__fsym_pinRead                  @ @__fsym_pinRead
	.type	__fsym_pinRead,%object
	.section	FSymTab,"a",%progbits
	.globl	__fsym_pinRead
	.p2align	2
__fsym_pinRead:
__tagsym$$used.2:
	.long	__fsym_pinRead_name
	.long	__fsym_pinRead_desc
	.long	rt_pin_read
	.size	__fsym_pinRead, 12

	.type	.L__FUNCTION__.rt_pin_get,%object @ @__FUNCTION__.rt_pin_get
	.section	.rodata.str1.1,"aMS",%progbits,1
.L__FUNCTION__.rt_pin_get:
	.asciz	"rt_pin_get"
	.size	.L__FUNCTION__.rt_pin_get, 11

	.type	.L.str.1,%object                @ @.str.1
.L.str.1:
	.asciz	"name[0] == 'P'"
	.size	.L.str.1, 15

	.hidden	__fsym_pinGet_name              @ @__fsym_pinGet_name
	.type	__fsym_pinGet_name,%object
	.section	.rodata.name,"a",%progbits
	.globl	__fsym_pinGet_name
__fsym_pinGet_name:
	.asciz	"pinGet"
	.size	__fsym_pinGet_name, 7

	.hidden	__fsym_pinGet_desc              @ @__fsym_pinGet_desc
	.type	__fsym_pinGet_desc,%object
	.globl	__fsym_pinGet_desc
__fsym_pinGet_desc:
	.asciz	"get pin number from hardware pin"
	.size	__fsym_pinGet_desc, 33

	.hidden	__fsym_pinGet                   @ @__fsym_pinGet
	.type	__fsym_pinGet,%object
	.section	FSymTab,"a",%progbits
	.globl	__fsym_pinGet
	.p2align	2
__fsym_pinGet:
__tagsym$$used.3:
	.long	__fsym_pinGet_name
	.long	__fsym_pinGet_desc
	.long	rt_pin_get
	.size	__fsym_pinGet, 12

	.type	.L.str.2,%object                @ @.str.2
	.section	.rodata.str1.1,"aMS",%progbits,1
.L.str.2:
	.asciz	"pin != RT_NULL"
	.size	.L.str.2, 15

	.type	.L__FUNCTION__._pin_read,%object @ @__FUNCTION__._pin_read
.L__FUNCTION__._pin_read:
	.asciz	"_pin_read"
	.size	.L__FUNCTION__._pin_read, 10

	.type	.L__FUNCTION__._pin_write,%object @ @__FUNCTION__._pin_write
.L__FUNCTION__._pin_write:
	.asciz	"_pin_write"
	.size	.L__FUNCTION__._pin_write, 11

	.type	.L__FUNCTION__._pin_control,%object @ @__FUNCTION__._pin_control
.L__FUNCTION__._pin_control:
	.asciz	"_pin_control"
	.size	.L__FUNCTION__._pin_control, 13

	.globl	__fsym_pinMode
	.globl	__fsym_pinWrite
	.globl	__fsym_pinRead
	.globl	__fsym_pinGet
	.section	".note.GNU-stack","",%progbits
	.eabi_attribute	30, 6	@ Tag_ABI_optimization_goals
	.ARM_attribute	16, 1	@ Tag_AV_eba