	.text
	.syntax unified
	.eabi_attribute	67, "2.09"	@ Tag_conformance
	.cpu	cortex-m7
	.eabi_attribute	6, 13	@ Tag_CPU_arch
	.eabi_attribute	7, 77	@ Tag_CPU_arch_profile
	.eabi_attribute	8, 0	@ Tag_ARM_ISA_use
	.eabi_attribute	9, 2	@ Tag_THUMB_ISA_use
	.fpu	fpv5-d16
	.eabi_attribute	36, 1	@ Tag_FP_HP_extension
	.eabi_attribute	34, 1	@ Tag_CPU_unaligned_access
	.eabi_attribute	17, 1	@ Tag_ABI_PCS_GOT_use
	.eabi_attribute	20, 2	@ Tag_ABI_FP_denormal
	.eabi_attribute	21, 0	@ Tag_ABI_FP_exceptions
	.eabi_attribute	23, 1	@ Tag_ABI_FP_number_model
	.eabi_attribute	24, 1	@ Tag_ABI_align_needed
	.eabi_attribute	25, 1	@ Tag_ABI_align_preserved
	.eabi_attribute	28, 1	@ Tag_ABI_VFP_args
	.eabi_attribute	38, 1	@ Tag_ABI_FP_16bit_format
	.eabi_attribute	18, 2	@ Tag_ABI_PCS_wchar_t
	.eabi_attribute	26, 1	@ Tag_ABI_enum_size
	.eabi_attribute	14, 0	@ Tag_ABI_PCS_R9_use
	.file	"ping.c"
	.file	1 "D:\\Keil_v5\\ARM\\ARMCLANG\\Bin\\..\\include" "stdint.h"
	.file	2 "E:\\Smart-access-control\\Hardware\\CODE" "./rt-thread/components/net/lwip-2.0.2/src/include\\lwip/arch.h"
	.file	3 "E:\\Smart-access-control\\Hardware\\CODE" "rt-thread/components/net/lwip-2.0.2/src/apps/ping/ping.c"
	.file	4 "E:\\Smart-access-control\\Hardware\\CODE" "./rt-thread/components/net/lwip-2.0.2/src/include\\lwip/err.h"
	.file	5 "E:\\Smart-access-control\\Hardware\\CODE" "./rt-thread/components/net/lwip-2.0.2/src/include\\lwip/sockets.h"
	.file	6 "E:\\Smart-access-control\\Hardware\\CODE" "./rt-thread/components/net/lwip-2.0.2/src/include\\lwip/prot/ip4.h"
	.file	7 "E:\\Smart-access-control\\Hardware\\CODE" "./rt-thread/components/net/lwip-2.0.2/src/include\\lwip/prot/icmp.h"
	.section	.text.lwip_ping_send,"ax",%progbits
	.hidden	lwip_ping_send                  @ -- Begin function lwip_ping_send
	.globl	lwip_ping_send
	.p2align	3
	.type	lwip_ping_send,%function
	.code	16                              @ @lwip_ping_send
	.thumb_func
lwip_ping_send:
.Lfunc_begin0:
	.loc	3 77 0                          @ rt-thread/components/net/lwip-2.0.2/src/apps/ping/ping.c:77:0
	.fnstart
	.cfi_sections .debug_frame
	.cfi_startproc
@ %bb.0:
	@DEBUG_VALUE: lwip_ping_send:s <- $r0
	@DEBUG_VALUE: lwip_ping_send:addr <- $r1
	@DEBUG_VALUE: lwip_ping_send:size <- $r2
	@DEBUG_VALUE: lwip_ping_send:size <- $r2
	.save	{r4, r5, r6, r7, lr}
	push	{r4, r5, r6, r7, lr}
	.cfi_def_cfa_offset 20
	.cfi_offset lr, -4
	.cfi_offset r7, -8
	.cfi_offset r6, -12
	.cfi_offset r5, -16
	.cfi_offset r4, -20
	.pad	#28
	sub	sp, #28
	.cfi_def_cfa_offset 48
.Ltmp0:
	.loc	3 81 50 prologue_end            @ rt-thread/components/net/lwip-2.0.2/src/apps/ping/ping.c:81:50
	add.w	r4, r2, #8
.Ltmp1:
	@DEBUG_VALUE: lwip_ping_send:ping_size <- $r4
	.loc	3 0 50 is_stmt 0                @ rt-thread/components/net/lwip-2.0.2/src/apps/ping/ping.c:0:50
	mov	r6, r1
.Ltmp2:
	@DEBUG_VALUE: lwip_ping_send:addr <- $r6
	@DEBUG_VALUE: lwip_ping_send:addr <- $r6
	.loc	3 82 5 is_stmt 1                @ rt-thread/components/net/lwip-2.0.2/src/apps/ping/ping.c:82:5
	cmp.w	r4, #65536
	mov	r5, r0
.Ltmp3:
	@DEBUG_VALUE: lwip_ping_send:s <- $r5
	@DEBUG_VALUE: lwip_ping_send:s <- $r5
	blt	.LBB0_2
.Ltmp4:
@ %bb.1:
	@DEBUG_VALUE: lwip_ping_send:addr <- $r6
	@DEBUG_VALUE: lwip_ping_send:s <- $r5
	@DEBUG_VALUE: lwip_ping_send:ping_size <- $r4
	@DEBUG_VALUE: lwip_ping_send:size <- $r2
	.loc	3 82 5 is_stmt 0                @ rt-thread/components/net/lwip-2.0.2/src/apps/ping/ping.c:82:5
	adr	r0, .LCPI0_0
	bl	rt_kprintf
.Ltmp5:
	@DEBUG_VALUE: lwip_ping_send:size <- [DW_OP_LLVM_entry_value 1] $r2
	adr	r0, .LCPI0_1
	movs	r1, #82
	bl	sys_arch_assert
.Ltmp6:
.LBB0_2:
	@DEBUG_VALUE: lwip_ping_send:addr <- $r6
	@DEBUG_VALUE: lwip_ping_send:s <- $r5
	@DEBUG_VALUE: lwip_ping_send:ping_size <- $r4
	.loc	3 84 13 is_stmt 1               @ rt-thread/components/net/lwip-2.0.2/src/apps/ping/ping.c:84:13
	mov	r0, r4
	bl	rt_malloc
.Ltmp7:
	@DEBUG_VALUE: lwip_ping_send:iecho <- $r0
	.loc	3 85 9                          @ rt-thread/components/net/lwip-2.0.2/src/apps/ping/ping.c:85:9
	cbz	r0, .LBB0_4
.Ltmp8:
@ %bb.3:
	@DEBUG_VALUE: lwip_ping_send:addr <- $r6
	@DEBUG_VALUE: lwip_ping_send:s <- $r5
	@DEBUG_VALUE: lwip_ping_send:ping_size <- $r4
	@DEBUG_VALUE: lwip_ping_send:iecho <- $r0
	.loc	3 90 5                          @ rt-thread/components/net/lwip-2.0.2/src/apps/ping/ping.c:90:5
	uxth	r1, r4
	.loc	3 0 0 is_stmt 0                 @ rt-thread/components/net/lwip-2.0.2/src/apps/ping/ping.c:0:0
	mov	r7, r0
.Ltmp9:
	@DEBUG_VALUE: lwip_ping_send:iecho <- $r7
	@DEBUG_VALUE: lwip_ping_send:iecho <- $r7
	.loc	3 90 5                          @ rt-thread/components/net/lwip-2.0.2/src/apps/ping/ping.c:90:5
	bl	ping_prepare_echo
	mov.w	r0, #528
	.loc	3 92 16 is_stmt 1               @ rt-thread/components/net/lwip-2.0.2/src/apps/ping/ping.c:92:16
	strh.w	r0, [sp, #12]
	.loc	3 97 32                         @ rt-thread/components/net/lwip-2.0.2/src/apps/ping/ping.c:97:32
	ldr	r0, [r6]
	.loc	3 97 24 is_stmt 0               @ rt-thread/components/net/lwip-2.0.2/src/apps/ping/ping.c:97:24
	str	r0, [sp, #16]
	add	r0, sp, #12
	.loc	3 102 11 is_stmt 1              @ rt-thread/components/net/lwip-2.0.2/src/apps/ping/ping.c:102:11
	str	r0, [sp]
	movs	r3, #0
	movs	r0, #16
	str	r0, [sp, #4]
	mov	r0, r5
	mov	r1, r7
	mov	r2, r4
	bl	lwip_sendto
	mov	r5, r0
.Ltmp10:
	@DEBUG_VALUE: lwip_ping_send:s <- [DW_OP_LLVM_entry_value 1] $r0
	@DEBUG_VALUE: lwip_ping_send:err <- $r5
	.loc	3 103 5                         @ rt-thread/components/net/lwip-2.0.2/src/apps/ping/ping.c:103:5
	mov	r0, r7
	bl	rt_free
	.loc	3 105 12                        @ rt-thread/components/net/lwip-2.0.2/src/apps/ping/ping.c:105:12
	subs	r0, r5, r4
	it	ne
	mvnne	r0, #5
	b	.LBB0_5
.Ltmp11:
.LBB0_4:
	@DEBUG_VALUE: lwip_ping_send:addr <- $r6
	@DEBUG_VALUE: lwip_ping_send:s <- $r5
	@DEBUG_VALUE: lwip_ping_send:ping_size <- $r4
	@DEBUG_VALUE: lwip_ping_send:iecho <- $r0
	.loc	3 0 12 is_stmt 0                @ rt-thread/components/net/lwip-2.0.2/src/apps/ping/ping.c:0:12
	movs	r0, #255
.Ltmp12:
.LBB0_5:
	@DEBUG_VALUE: lwip_ping_send:addr <- $r6
	@DEBUG_VALUE: lwip_ping_send:ping_size <- $r4
	.loc	3 106 1 is_stmt 1               @ rt-thread/components/net/lwip-2.0.2/src/apps/ping/ping.c:106:1
	sxtb	r0, r0
	add	sp, #28
	pop	{r4, r5, r6, r7, pc}
.Ltmp13:
	.p2align	2
@ %bb.6:
	.loc	3 0 1 is_stmt 0                 @ rt-thread/components/net/lwip-2.0.2/src/apps/ping/ping.c:0:1
.LCPI0_0:
.L.str:
	.asciz	"ping_size is too big\000\000\000"
.LCPI0_1:
.L.str.1:
	.asciz	"rt-thread/components/net/lwip-2.0.2/src/apps/ping/ping.c\000\000\000"
.Lfunc_end0:
	.size	lwip_ping_send, .Lfunc_end0-lwip_ping_send
	.cfi_endproc
	.cantunwind
	.fnend
                                        @ -- End function
	.section	.text.ping_prepare_echo,"ax",%progbits
	.p2align	3                               @ -- Begin function ping_prepare_echo
	.type	ping_prepare_echo,%function
	.code	16                              @ @ping_prepare_echo
	.thumb_func
ping_prepare_echo:
.Lfunc_begin1:
	.loc	3 51 0 is_stmt 1                @ rt-thread/components/net/lwip-2.0.2/src/apps/ping/ping.c:51:0
	.fnstart
	.cfi_startproc
@ %bb.0:
	@DEBUG_VALUE: ping_prepare_echo:iecho <- $r0
	@DEBUG_VALUE: ping_prepare_echo:len <- $r1
	.save	{r4, r5, r6, lr}
	push	{r4, r5, r6, lr}
	.cfi_def_cfa_offset 16
	.cfi_offset lr, -4
	.cfi_offset r6, -8
	.cfi_offset r5, -12
	.cfi_offset r4, -16
	mov	r4, r0
.Ltmp14:
	@DEBUG_VALUE: ping_prepare_echo:iecho <- $r4
	movs	r0, #8
.Ltmp15:
	@DEBUG_VALUE: ping_prepare_echo:data_len <- undef
	@DEBUG_VALUE: ping_prepare_echo:iecho <- $r4
	mov	r6, r1
.Ltmp16:
	@DEBUG_VALUE: ping_prepare_echo:len <- $r6
	@DEBUG_VALUE: ping_prepare_echo:len <- $r6
	movs	r2, #0
.Ltmp17:
	.loc	3 55 5 prologue_end             @ rt-thread/components/net/lwip-2.0.2/src/apps/ping/ping.c:55:5
	strh	r0, [r4]
	.loc	3 59 21                         @ rt-thread/components/net/lwip-2.0.2/src/apps/ping/ping.c:59:21
	movw	r0, :lower16:ping_seq_num
	movt	r0, :upper16:ping_seq_num
	movt	r2, #44975
	.loc	3 57 19                         @ rt-thread/components/net/lwip-2.0.2/src/apps/ping/ping.c:57:19
	str.w	r2, [r4, #2]
	.loc	3 59 21                         @ rt-thread/components/net/lwip-2.0.2/src/apps/ping/ping.c:59:21
	ldrh	r3, [r0]
	adds	r1, r3, #1
	strh	r1, [r0]
	uxth	r0, r1
	bl	lwip_htons
.Ltmp18:
	.loc	3 62 5                          @ rt-thread/components/net/lwip-2.0.2/src/apps/ping/ping.c:62:5
	cmp	r6, #8
.Ltmp19:
	.loc	3 59 19                         @ rt-thread/components/net/lwip-2.0.2/src/apps/ping/ping.c:59:19
	strh	r0, [r4, #6]
.Ltmp20:
	@DEBUG_VALUE: ping_prepare_echo:i <- 0
	.loc	3 62 5                          @ rt-thread/components/net/lwip-2.0.2/src/apps/ping/ping.c:62:5
	beq	.LBB1_3
.Ltmp21:
@ %bb.1:
	@DEBUG_VALUE: ping_prepare_echo:len <- $r6
	@DEBUG_VALUE: ping_prepare_echo:iecho <- $r4
	@DEBUG_VALUE: ping_prepare_echo:i <- 0
	rsbs	r0, r6, #0
	movs	r1, #7
.Ltmp22:
	.p2align	2
.LBB1_2:                                @ =>This Inner Loop Header: Depth=1
	@DEBUG_VALUE: ping_prepare_echo:len <- $r6
	@DEBUG_VALUE: ping_prepare_echo:iecho <- $r4
	@DEBUG_VALUE: ping_prepare_echo:i <- [DW_OP_constu 7, DW_OP_minus, DW_OP_stack_value] $r1
	.loc	3 64 61                         @ rt-thread/components/net/lwip-2.0.2/src/apps/ping/ping.c:64:61
	subs	r2, r1, #7
	.loc	3 64 59 is_stmt 0               @ rt-thread/components/net/lwip-2.0.2/src/apps/ping/ping.c:64:59
	adds	r3, r4, r1
.Ltmp23:
	.loc	3 62 19 is_stmt 1               @ rt-thread/components/net/lwip-2.0.2/src/apps/ping/ping.c:62:19
	adds	r1, #1
.Ltmp24:
	adds	r5, r0, r1
.Ltmp25:
	.loc	3 64 59                         @ rt-thread/components/net/lwip-2.0.2/src/apps/ping/ping.c:64:59
	strb	r2, [r3, #1]
.Ltmp26:
	@DEBUG_VALUE: ping_prepare_echo:i <- [DW_OP_constu 6, DW_OP_minus, DW_OP_stack_value] $r1
	.loc	3 62 5                          @ rt-thread/components/net/lwip-2.0.2/src/apps/ping/ping.c:62:5
	adds	r5, #1
	bne	.LBB1_2
.Ltmp27:
.LBB1_3:
	@DEBUG_VALUE: ping_prepare_echo:len <- $r6
	@DEBUG_VALUE: ping_prepare_echo:iecho <- $r4
	.loc	3 70 23                         @ rt-thread/components/net/lwip-2.0.2/src/apps/ping/ping.c:70:23
	mov	r0, r4
	mov	r1, r6
	bl	inet_chksum
	.loc	3 70 21 is_stmt 0               @ rt-thread/components/net/lwip-2.0.2/src/apps/ping/ping.c:70:21
	strh	r0, [r4, #2]
	.loc	3 73 1 is_stmt 1                @ rt-thread/components/net/lwip-2.0.2/src/apps/ping/ping.c:73:1
	pop	{r4, r5, r6, pc}
.Ltmp28:
.Lfunc_end1:
	.size	ping_prepare_echo, .Lfunc_end1-ping_prepare_echo
	.cfi_endproc
	.cantunwind
	.fnend
                                        @ -- End function
	.section	.text.lwip_ping_recv,"ax",%progbits
	.hidden	lwip_ping_recv                  @ -- Begin function lwip_ping_recv
	.globl	lwip_ping_recv
	.p2align	3
	.type	lwip_ping_recv,%function
	.code	16                              @ @lwip_ping_recv
	.thumb_func
lwip_ping_recv:
.Lfunc_begin2:
	.loc	3 109 0                         @ rt-thread/components/net/lwip-2.0.2/src/apps/ping/ping.c:109:0
	.fnstart
	.cfi_startproc
@ %bb.0:
	@DEBUG_VALUE: lwip_ping_recv:s <- $r0
	@DEBUG_VALUE: lwip_ping_recv:ttl <- $r1
	.save	{r4, r5, r6, r7, r8, r9, r10, r11, lr}
	push.w	{r4, r5, r6, r7, r8, r9, r10, r11, lr}
	.cfi_def_cfa_offset 36
	.cfi_offset lr, -4
	.cfi_offset r11, -8
	.cfi_offset r10, -12
	.cfi_offset r9, -16
	.cfi_offset r8, -20
	.cfi_offset r7, -24
	.cfi_offset r6, -28
	.cfi_offset r5, -32
	.cfi_offset r4, -36
	.pad	#100
	sub	sp, #100
	.cfi_def_cfa_offset 136
	mov	r5, r0
.Ltmp29:
	@DEBUG_VALUE: lwip_ping_recv:s <- $r5
	add	r6, sp, #36
	mov	r8, r1
.Ltmp30:
	@DEBUG_VALUE: lwip_ping_recv:ttl <- $r8
	movs	r0, #16
.Ltmp31:
	@DEBUG_VALUE: lwip_ping_recv:fromlen <- 16
	@DEBUG_VALUE: lwip_ping_recv:ttl <- $r8
	@DEBUG_VALUE: lwip_ping_recv:s <- $r5
	.loc	3 111 9 prologue_end            @ rt-thread/components/net/lwip-2.0.2/src/apps/ping/ping.c:111:9
	str	r0, [sp, #32]
.Ltmp32:
	@DEBUG_VALUE: lwip_ping_recv:fromlen <- [DW_OP_plus_uconst 32, DW_OP_deref] $sp
	.loc	3 116 19                        @ rt-thread/components/net/lwip-2.0.2/src/apps/ping/ping.c:116:19
	movs	r2, #64
	movs	r3, #0
	mov	r0, r5
	mov	r1, r6
	add.w	r9, sp, #16
	str.w	r9, [sp]
	add	r4, sp, #32
	str	r4, [sp, #4]
	bl	lwip_recvfrom
	mov	r7, r0
.Ltmp33:
	@DEBUG_VALUE: lwip_ping_recv:len <- $r7
	.loc	3 116 5 is_stmt 0               @ rt-thread/components/net/lwip-2.0.2/src/apps/ping/ping.c:116:5
	cmp	r0, #1
	blt	.LBB2_7
.Ltmp34:
@ %bb.1:
	@DEBUG_VALUE: lwip_ping_recv:ttl <- $r8
	@DEBUG_VALUE: lwip_ping_recv:len <- $r7
	@DEBUG_VALUE: lwip_ping_recv:s <- $r5
	@DEBUG_VALUE: lwip_ping_recv:fromlen <- [DW_OP_plus_uconst 32, DW_OP_deref] $sp
	.loc	3 0 5                           @ rt-thread/components/net/lwip-2.0.2/src/apps/ping/ping.c:0:5
	movw	r11, :lower16:ping_seq_num
	movw	r10, #44975
	movt	r11, :upper16:ping_seq_num
	str.w	r8, [sp, #12]                   @ 4-byte Spill
.Ltmp35:
	@DEBUG_VALUE: lwip_ping_recv:ttl <- [DW_OP_plus_uconst 12] [$sp+0]
	b	.LBB2_3
.Ltmp36:
	.p2align	2
.LBB2_2:                                @   in Loop: Header=BB2_3 Depth=1
	@DEBUG_VALUE: lwip_ping_recv:ttl <- [DW_OP_plus_uconst 12] [$sp+0]
	@DEBUG_VALUE: lwip_ping_recv:len <- $r7
	@DEBUG_VALUE: lwip_ping_recv:s <- $r5
	@DEBUG_VALUE: lwip_ping_recv:fromlen <- [DW_OP_plus_uconst 32, DW_OP_deref] $sp
	@DEBUG_VALUE: lwip_ping_recv:fromlen <- [DW_OP_plus_uconst 32, DW_OP_deref] $sp
	.loc	3 116 19                        @ rt-thread/components/net/lwip-2.0.2/src/apps/ping/ping.c:116:19
	movs	r2, #64
	movs	r3, #0
	mov	r0, r5
	mov	r1, r6
	str.w	r9, [sp]
	str	r4, [sp, #4]
	bl	lwip_recvfrom
	mov	r7, r0
.Ltmp37:
	@DEBUG_VALUE: lwip_ping_recv:len <- $r7
	.loc	3 116 5                         @ rt-thread/components/net/lwip-2.0.2/src/apps/ping/ping.c:116:5
	cmp	r0, #0
	ble	.LBB2_7
.Ltmp38:
.LBB2_3:                                @ =>This Inner Loop Header: Depth=1
	@DEBUG_VALUE: lwip_ping_recv:ttl <- [DW_OP_plus_uconst 12] [$sp+0]
	@DEBUG_VALUE: lwip_ping_recv:len <- $r7
	@DEBUG_VALUE: lwip_ping_recv:s <- $r5
	@DEBUG_VALUE: lwip_ping_recv:fromlen <- [DW_OP_plus_uconst 32, DW_OP_deref] $sp
	.loc	3 118 13 is_stmt 1              @ rt-thread/components/net/lwip-2.0.2/src/apps/ping/ping.c:118:13
	cmp	r7, #28
	blt	.LBB2_2
.Ltmp39:
@ %bb.4:                                @   in Loop: Header=BB2_3 Depth=1
	@DEBUG_VALUE: lwip_ping_recv:ttl <- [DW_OP_plus_uconst 12] [$sp+0]
	@DEBUG_VALUE: lwip_ping_recv:len <- $r7
	@DEBUG_VALUE: lwip_ping_recv:s <- $r5
	@DEBUG_VALUE: lwip_ping_recv:fromlen <- [DW_OP_plus_uconst 32, DW_OP_deref] $sp
	@DEBUG_VALUE: lwip_ping_recv:iphdr <- [DW_OP_plus_uconst 36, DW_OP_stack_value] $sp
	.loc	3 121 54                        @ rt-thread/components/net/lwip-2.0.2/src/apps/ping/ping.c:121:54
	ldrb.w	r0, [sp, #36]
	.loc	3 121 68 is_stmt 0              @ rt-thread/components/net/lwip-2.0.2/src/apps/ping/ping.c:121:68
	and	r0, r0, #15
	.loc	3 121 51                        @ rt-thread/components/net/lwip-2.0.2/src/apps/ping/ping.c:121:51
	add.w	r0, r6, r0, lsl #2
.Ltmp40:
	@DEBUG_VALUE: lwip_ping_recv:iecho <- $r0
	.loc	3 122 25 is_stmt 1              @ rt-thread/components/net/lwip-2.0.2/src/apps/ping/ping.c:122:25
	ldrh	r1, [r0, #4]
	.loc	3 122 40 is_stmt 0              @ rt-thread/components/net/lwip-2.0.2/src/apps/ping/ping.c:122:40
	cmp	r1, r10
	bne	.LBB2_2
.Ltmp41:
@ %bb.5:                                @   in Loop: Header=BB2_3 Depth=1
	@DEBUG_VALUE: lwip_ping_recv:ttl <- [DW_OP_plus_uconst 12] [$sp+0]
	@DEBUG_VALUE: lwip_ping_recv:len <- $r7
	@DEBUG_VALUE: lwip_ping_recv:s <- $r5
	@DEBUG_VALUE: lwip_ping_recv:iecho <- $r0
	@DEBUG_VALUE: lwip_ping_recv:iphdr <- [DW_OP_plus_uconst 36, DW_OP_stack_value] $sp
	@DEBUG_VALUE: lwip_ping_recv:fromlen <- [DW_OP_plus_uconst 32, DW_OP_deref] $sp
	@DEBUG_VALUE: lwip_ping_recv:iecho <- $r0
	.loc	3 122 51                        @ rt-thread/components/net/lwip-2.0.2/src/apps/ping/ping.c:122:51
	ldrh.w	r8, [r0, #6]
	.loc	3 122 60                        @ rt-thread/components/net/lwip-2.0.2/src/apps/ping/ping.c:122:60
	ldrh.w	r0, [r11]
.Ltmp42:
	bl	lwip_htons
.Ltmp43:
	.loc	3 122 17                        @ rt-thread/components/net/lwip-2.0.2/src/apps/ping/ping.c:122:17
	cmp	r8, r0
	bne	.LBB2_2
.Ltmp44:
@ %bb.6:
	@DEBUG_VALUE: lwip_ping_recv:ttl <- [DW_OP_plus_uconst 12] [$sp+0]
	@DEBUG_VALUE: lwip_ping_recv:len <- $r7
	@DEBUG_VALUE: lwip_ping_recv:s <- $r5
	@DEBUG_VALUE: lwip_ping_recv:iphdr <- [DW_OP_plus_uconst 36, DW_OP_stack_value] $sp
	@DEBUG_VALUE: lwip_ping_recv:fromlen <- [DW_OP_plus_uconst 32, DW_OP_deref] $sp
	.loc	3 124 22 is_stmt 1              @ rt-thread/components/net/lwip-2.0.2/src/apps/ping/ping.c:124:22
	ldr	r1, [sp, #12]                   @ 4-byte Reload
.Ltmp45:
	@DEBUG_VALUE: lwip_ping_recv:ttl <- $r1
	.loc	3 124 31 is_stmt 0              @ rt-thread/components/net/lwip-2.0.2/src/apps/ping/ping.c:124:31
	ldrb.w	r0, [sp, #44]
	.loc	3 124 22                        @ rt-thread/components/net/lwip-2.0.2/src/apps/ping/ping.c:124:22
	str	r0, [r1]
.Ltmp46:
.LBB2_7:
	@DEBUG_VALUE: lwip_ping_recv:len <- $r7
	@DEBUG_VALUE: lwip_ping_recv:s <- $r5
	@DEBUG_VALUE: lwip_ping_recv:fromlen <- [DW_OP_plus_uconst 32, DW_OP_deref] $sp
	.loc	3 131 1 is_stmt 1               @ rt-thread/components/net/lwip-2.0.2/src/apps/ping/ping.c:131:1
	mov	r0, r7
	add	sp, #100
	pop.w	{r4, r5, r6, r7, r8, r9, r10, r11, pc}
.Ltmp47:
.Lfunc_end2:
	.size	lwip_ping_recv, .Lfunc_end2-lwip_ping_recv
	.cfi_endproc
	.cantunwind
	.fnend
                                        @ -- End function
	.type	ping_seq_num,%object            @ @ping_seq_num
	.section	.bss.ping_seq_num,"aw",%nobits
	.p2align	1
ping_seq_num:
	.short	0                               @ 0x0
	.size	ping_seq_num, 2

	.file	8 "E:\\Smart-access-control\\Hardware\\CODE" "./rt-thread/components/net/lwip-2.0.2/src/include\\lwip/inet.h"
	.file	9 "E:\\Smart-access-control\\Hardware\\CODE" "./rt-thread/components/net/lwip-2.0.2/src/include\\lwip/ip4_addr.h"
	.file	10 "E:\\Smart-access-control\\Hardware\\CODE" "./rt-thread/components/net/lwip-2.0.2/src/include\\lwip/ip_addr.h"
	.file	11 "D:\\Keil_v5\\ARM\\ARMCLANG\\Bin\\..\\include" "time.h"
	.section	".note.GNU-stack","",%progbits
	.eabi_attribute	30, 1	@ Tag_ABI_optimization_goals
	.ARM_attribute	16, 1	@ Tag_AV_eba