	.text
	.syntax unified
	.eabi_attribute	67, "2.09"	@ Tag_conformance
	.cpu	cortex-m7
	.eabi_attribute	6, 13	@ Tag_CPU_arch
	.eabi_attribute	7, 77	@ Tag_CPU_arch_profile
	.eabi_attribute	8, 0	@ Tag_ARM_ISA_use
	.eabi_attribute	9, 2	@ Tag_THUMB_ISA_use
	.fpu	fpv5-d16
	.eabi_attribute	36, 1	@ Tag_FP_HP_extension
	.eabi_attribute	34, 1	@ Tag_CPU_unaligned_access
	.eabi_attribute	17, 1	@ Tag_ABI_PCS_GOT_use
	.eabi_attribute	20, 2	@ Tag_ABI_FP_denormal
	.eabi_attribute	21, 0	@ Tag_ABI_FP_exceptions
	.eabi_attribute	23, 1	@ Tag_ABI_FP_number_model
	.eabi_attribute	24, 1	@ Tag_ABI_align_needed
	.eabi_attribute	25, 1	@ Tag_ABI_align_preserved
	.eabi_attribute	28, 1	@ Tag_ABI_VFP_args
	.eabi_attribute	38, 1	@ Tag_ABI_FP_16bit_format
	.eabi_attribute	18, 2	@ Tag_ABI_PCS_wchar_t
	.eabi_attribute	26, 1	@ Tag_ABI_enum_size
	.eabi_attribute	14, 0	@ Tag_ABI_PCS_R9_use
	.file	"pipe.c"
	.file	1 "E:\\STM32\\Learning\\STM32H750_ART_PI_RGBLCD" "rt-thread/components/drivers/src/pipe.c"
	.file	2 "D:\\Keil_v5\\ARM\\ARMCLANG\\Bin\\..\\include" "stdint.h"
	.file	3 "E:\\STM32\\Learning\\STM32H750_ART_PI_RGBLCD" "rt-thread/components/dfs/include\\dfs_file.h"
	.file	4 "E:\\STM32\\Learning\\STM32H750_ART_PI_RGBLCD" "rt-thread/include\\rtdef.h"
	.file	5 "E:\\STM32\\Learning\\STM32H750_ART_PI_RGBLCD" "rt-thread/components/dfs/include\\dfs_fs.h"
	.file	6 "D:\\Keil_v5\\ARM\\ARMCLANG\\Bin\\..\\include" "time.h"
	.file	7 "E:\\STM32\\Learning\\STM32H750_ART_PI_RGBLCD" "rt-thread/components/dfs/include\\dfs.h"
	.file	8 "E:\\STM32\\Learning\\STM32H750_ART_PI_RGBLCD" "rt-thread/include/libc/libc_stat.h"
	.file	9 "E:\\STM32\\Learning\\STM32H750_ART_PI_RGBLCD" "rt-thread/include/rtlibc.h"
	.file	10 "E:\\STM32\\Learning\\STM32H750_ART_PI_RGBLCD" "rt-thread/components/drivers/include/ipc/poll.h"
	.file	11 "E:\\STM32\\Learning\\STM32H750_ART_PI_RGBLCD" "rt-thread/components/drivers/include/ipc/pipe.h"
	.file	12 "E:\\STM32\\Learning\\STM32H750_ART_PI_RGBLCD" "rt-thread/components/drivers/include/ipc/ringbuffer.h"
	.section	.text.rt_pipe_open,"ax",%progbits
	.hidden	rt_pipe_open                    @ -- Begin function rt_pipe_open
	.globl	rt_pipe_open
	.p2align	3
	.type	rt_pipe_open,%function
	.code	16                              @ @rt_pipe_open
	.thumb_func
rt_pipe_open:
.Lfunc_begin0:
	.loc	1 324 0                         @ rt-thread/components/drivers/src/pipe.c:324:0
	.fnstart
	.cfi_sections .debug_frame
	.cfi_startproc
@ %bb.0:
	.save	{r7, lr}
	push	{r7, lr}
	.cfi_def_cfa_offset 8
	.cfi_offset lr, -4
	.cfi_offset r7, -8
	.pad	#16
	sub	sp, #16
	.cfi_def_cfa_offset 24
                                        @ kill: def $r2 killed $r1
	str	r0, [sp, #12]
	strh.w	r1, [sp, #10]
.Ltmp0:
	.loc	1 325 36 prologue_end           @ rt-thread/components/drivers/src/pipe.c:325:36
	ldr	r0, [sp, #12]
	.loc	1 325 16 is_stmt 0              @ rt-thread/components/drivers/src/pipe.c:325:16
	str	r0, [sp, #4]
	movs	r0, #0
	.loc	1 326 14 is_stmt 1              @ rt-thread/components/drivers/src/pipe.c:326:14
	str	r0, [sp]
.Ltmp1:
	.loc	1 328 9                         @ rt-thread/components/drivers/src/pipe.c:328:9
	ldr	r0, [sp, #12]
.Ltmp2:
	.loc	1 328 9 is_stmt 0               @ rt-thread/components/drivers/src/pipe.c:328:9
	cbnz	r0, .LBB0_2
	b	.LBB0_1
.LBB0_1:
	.loc	1 0 9                           @ rt-thread/components/drivers/src/pipe.c:0:9
	mvn	r0, #9
.Ltmp3:
	.loc	1 330 13 is_stmt 1              @ rt-thread/components/drivers/src/pipe.c:330:13
	str	r0, [sp]
	.loc	1 331 9                         @ rt-thread/components/drivers/src/pipe.c:331:9
	b	.LBB0_7
.Ltmp4:
.LBB0_2:
	.loc	1 334 21                        @ rt-thread/components/drivers/src/pipe.c:334:21
	ldr	r0, [sp, #4]
	.loc	1 334 27 is_stmt 0              @ rt-thread/components/drivers/src/pipe.c:334:27
	adds	r0, #116
	mov.w	r1, #-1
	.loc	1 334 5                         @ rt-thread/components/drivers/src/pipe.c:334:5
	bl	rt_mutex_take
.Ltmp5:
	.loc	1 336 9 is_stmt 1               @ rt-thread/components/drivers/src/pipe.c:336:9
	ldr	r0, [sp, #4]
	.loc	1 336 15 is_stmt 0              @ rt-thread/components/drivers/src/pipe.c:336:15
	ldr	r0, [r0, #84]
.Ltmp6:
	.loc	1 336 9                         @ rt-thread/components/drivers/src/pipe.c:336:9
	cbnz	r0, .LBB0_6
	b	.LBB0_3
.LBB0_3:
.Ltmp7:
	.loc	1 338 43 is_stmt 1              @ rt-thread/components/drivers/src/pipe.c:338:43
	ldr	r0, [sp, #4]
	.loc	1 338 49 is_stmt 0              @ rt-thread/components/drivers/src/pipe.c:338:49
	ldrh.w	r0, [r0, #88]
	.loc	1 338 22                        @ rt-thread/components/drivers/src/pipe.c:338:22
	bl	rt_ringbuffer_create
	.loc	1 338 9                         @ rt-thread/components/drivers/src/pipe.c:338:9
	ldr	r1, [sp, #4]
	.loc	1 338 20                        @ rt-thread/components/drivers/src/pipe.c:338:20
	str	r0, [r1, #84]
.Ltmp8:
	.loc	1 339 13 is_stmt 1              @ rt-thread/components/drivers/src/pipe.c:339:13
	ldr	r0, [sp, #4]
	.loc	1 339 19 is_stmt 0              @ rt-thread/components/drivers/src/pipe.c:339:19
	ldr	r0, [r0, #84]
.Ltmp9:
	.loc	1 339 13                        @ rt-thread/components/drivers/src/pipe.c:339:13
	cbnz	r0, .LBB0_5
	b	.LBB0_4
.LBB0_4:
	.loc	1 0 13                          @ rt-thread/components/drivers/src/pipe.c:0:13
	mvn	r0, #4
.Ltmp10:
	.loc	1 341 17 is_stmt 1              @ rt-thread/components/drivers/src/pipe.c:341:17
	str	r0, [sp]
	.loc	1 342 9                         @ rt-thread/components/drivers/src/pipe.c:342:9
	b	.LBB0_5
.Ltmp11:
.LBB0_5:
	.loc	1 343 5                         @ rt-thread/components/drivers/src/pipe.c:343:5
	b	.LBB0_6
.Ltmp12:
.LBB0_6:
	.loc	1 345 24                        @ rt-thread/components/drivers/src/pipe.c:345:24
	ldr	r0, [sp, #4]
	.loc	1 345 30 is_stmt 0              @ rt-thread/components/drivers/src/pipe.c:345:30
	adds	r0, #116
	.loc	1 345 5                         @ rt-thread/components/drivers/src/pipe.c:345:5
	bl	rt_mutex_release
	b	.LBB0_7
.LBB0_7:
.Ltmp13:
	@DEBUG_LABEL: rt_pipe_open:__exit
	.loc	1 348 12 is_stmt 1              @ rt-thread/components/drivers/src/pipe.c:348:12
	ldr	r0, [sp]
	.loc	1 348 5 is_stmt 0               @ rt-thread/components/drivers/src/pipe.c:348:5
	add	sp, #16
	pop	{r7, pc}
.Ltmp14:
.Lfunc_end0:
	.size	rt_pipe_open, .Lfunc_end0-rt_pipe_open
	.cfi_endproc
	.cantunwind
	.fnend
                                        @ -- End function
	.section	.text.rt_pipe_close,"ax",%progbits
	.hidden	rt_pipe_close                   @ -- Begin function rt_pipe_close
	.globl	rt_pipe_close
	.p2align	3
	.type	rt_pipe_close,%function
	.code	16                              @ @rt_pipe_close
	.thumb_func
rt_pipe_close:
.Lfunc_begin1:
	.loc	1 352 0 is_stmt 1               @ rt-thread/components/drivers/src/pipe.c:352:0
	.fnstart
	.cfi_startproc
@ %bb.0:
	.save	{r7, lr}
	push	{r7, lr}
	.cfi_def_cfa_offset 8
	.cfi_offset lr, -4
	.cfi_offset r7, -8
	.pad	#16
	sub	sp, #16
	.cfi_def_cfa_offset 24
	str	r0, [sp, #8]
.Ltmp15:
	.loc	1 353 36 prologue_end           @ rt-thread/components/drivers/src/pipe.c:353:36
	ldr	r0, [sp, #8]
	.loc	1 353 16 is_stmt 0              @ rt-thread/components/drivers/src/pipe.c:353:16
	str	r0, [sp, #4]
.Ltmp16:
	.loc	1 355 9 is_stmt 1               @ rt-thread/components/drivers/src/pipe.c:355:9
	ldr	r0, [sp, #8]
.Ltmp17:
	.loc	1 355 9 is_stmt 0               @ rt-thread/components/drivers/src/pipe.c:355:9
	cbnz	r0, .LBB1_2
	b	.LBB1_1
.LBB1_1:
	.loc	1 0 9                           @ rt-thread/components/drivers/src/pipe.c:0:9
	mvn	r0, #9
.Ltmp18:
	.loc	1 355 28                        @ rt-thread/components/drivers/src/pipe.c:355:28
	str	r0, [sp, #12]
	b	.LBB1_5
.Ltmp19:
.LBB1_2:
	.loc	1 356 21 is_stmt 1              @ rt-thread/components/drivers/src/pipe.c:356:21
	ldr	r0, [sp, #4]
	.loc	1 356 27 is_stmt 0              @ rt-thread/components/drivers/src/pipe.c:356:27
	adds	r0, #116
	mov.w	r1, #-1
	.loc	1 356 5                         @ rt-thread/components/drivers/src/pipe.c:356:5
	bl	rt_mutex_take
.Ltmp20:
	.loc	1 358 9 is_stmt 1               @ rt-thread/components/drivers/src/pipe.c:358:9
	ldr	r0, [sp, #8]
	.loc	1 358 17 is_stmt 0              @ rt-thread/components/drivers/src/pipe.c:358:17
	ldrb	r0, [r0, #26]
.Ltmp21:
	.loc	1 358 9                         @ rt-thread/components/drivers/src/pipe.c:358:9
	cmp	r0, #1
	bne	.LBB1_4
	b	.LBB1_3
.LBB1_3:
.Ltmp22:
	.loc	1 360 31 is_stmt 1              @ rt-thread/components/drivers/src/pipe.c:360:31
	ldr	r0, [sp, #4]
	.loc	1 360 37 is_stmt 0              @ rt-thread/components/drivers/src/pipe.c:360:37
	ldr	r0, [r0, #84]
	.loc	1 360 9                         @ rt-thread/components/drivers/src/pipe.c:360:9
	bl	rt_ringbuffer_destroy
	.loc	1 361 9 is_stmt 1               @ rt-thread/components/drivers/src/pipe.c:361:9
	ldr	r1, [sp, #4]
	movs	r0, #0
	.loc	1 361 20 is_stmt 0              @ rt-thread/components/drivers/src/pipe.c:361:20
	str	r0, [r1, #84]
	.loc	1 362 5 is_stmt 1               @ rt-thread/components/drivers/src/pipe.c:362:5
	b	.LBB1_4
.Ltmp23:
.LBB1_4:
	.loc	1 364 24                        @ rt-thread/components/drivers/src/pipe.c:364:24
	ldr	r0, [sp, #4]
	.loc	1 364 30 is_stmt 0              @ rt-thread/components/drivers/src/pipe.c:364:30
	adds	r0, #116
	.loc	1 364 5                         @ rt-thread/components/drivers/src/pipe.c:364:5
	bl	rt_mutex_release
	movs	r0, #0
	.loc	1 366 5 is_stmt 1               @ rt-thread/components/drivers/src/pipe.c:366:5
	str	r0, [sp, #12]
	b	.LBB1_5
.LBB1_5:
	.loc	1 367 1                         @ rt-thread/components/drivers/src/pipe.c:367:1
	ldr	r0, [sp, #12]
	add	sp, #16
	pop	{r7, pc}
.Ltmp24:
.Lfunc_end1:
	.size	rt_pipe_close, .Lfunc_end1-rt_pipe_close
	.cfi_endproc
	.cantunwind
	.fnend
                                        @ -- End function
	.section	.text.rt_pipe_read,"ax",%progbits
	.hidden	rt_pipe_read                    @ -- Begin function rt_pipe_read
	.globl	rt_pipe_read
	.p2align	3
	.type	rt_pipe_read,%function
	.code	16                              @ @rt_pipe_read
	.thumb_func
rt_pipe_read:
.Lfunc_begin2:
	.loc	1 370 0                         @ rt-thread/components/drivers/src/pipe.c:370:0
	.fnstart
	.cfi_startproc
@ %bb.0:
	.save	{r7, lr}
	push	{r7, lr}
	.cfi_def_cfa_offset 8
	.cfi_offset lr, -4
	.cfi_offset r7, -8
	.pad	#40
	sub	sp, #40
	.cfi_def_cfa_offset 48
	str	r0, [sp, #32]
	str	r1, [sp, #28]
	str	r2, [sp, #24]
	str	r3, [sp, #20]
	movs	r0, #0
.Ltmp25:
	.loc	1 372 15 prologue_end           @ rt-thread/components/drivers/src/pipe.c:372:15
	str	r0, [sp, #12]
	.loc	1 373 36                        @ rt-thread/components/drivers/src/pipe.c:373:36
	ldr	r0, [sp, #32]
	.loc	1 373 16 is_stmt 0              @ rt-thread/components/drivers/src/pipe.c:373:16
	str	r0, [sp, #8]
.Ltmp26:
	.loc	1 375 9 is_stmt 1               @ rt-thread/components/drivers/src/pipe.c:375:9
	ldr	r0, [sp, #32]
.Ltmp27:
	.loc	1 375 9 is_stmt 0               @ rt-thread/components/drivers/src/pipe.c:375:9
	cbnz	r0, .LBB2_2
	b	.LBB2_1
.LBB2_1:
	.loc	1 0 9                           @ rt-thread/components/drivers/src/pipe.c:0:9
	mvn	r0, #21
.Ltmp28:
	.loc	1 377 9 is_stmt 1               @ rt-thread/components/drivers/src/pipe.c:377:9
	bl	rt_set_errno
	movs	r0, #0
	.loc	1 378 9                         @ rt-thread/components/drivers/src/pipe.c:378:9
	str	r0, [sp, #36]
	b	.LBB2_10
.Ltmp29:
.LBB2_2:
	.loc	1 380 9                         @ rt-thread/components/drivers/src/pipe.c:380:9
	ldr	r0, [sp, #20]
.Ltmp30:
	.loc	1 380 9 is_stmt 0               @ rt-thread/components/drivers/src/pipe.c:380:9
	cbnz	r0, .LBB2_4
	b	.LBB2_3
.LBB2_3:
	.loc	1 0 9                           @ rt-thread/components/drivers/src/pipe.c:0:9
	movs	r0, #0
.Ltmp31:
	.loc	1 380 21                        @ rt-thread/components/drivers/src/pipe.c:380:21
	str	r0, [sp, #36]
	b	.LBB2_10
.Ltmp32:
.LBB2_4:
	.loc	1 382 22 is_stmt 1              @ rt-thread/components/drivers/src/pipe.c:382:22
	ldr	r0, [sp, #24]
	.loc	1 382 10 is_stmt 0              @ rt-thread/components/drivers/src/pipe.c:382:10
	str	r0, [sp, #16]
	.loc	1 383 21 is_stmt 1              @ rt-thread/components/drivers/src/pipe.c:383:21
	ldr	r0, [sp, #8]
	.loc	1 383 27 is_stmt 0              @ rt-thread/components/drivers/src/pipe.c:383:27
	adds	r0, #116
	mov.w	r1, #-1
	.loc	1 383 5                         @ rt-thread/components/drivers/src/pipe.c:383:5
	bl	rt_mutex_take
	.loc	1 385 5 is_stmt 1               @ rt-thread/components/drivers/src/pipe.c:385:5
	b	.LBB2_5
.LBB2_5:                                @ =>This Inner Loop Header: Depth=1
	.loc	1 385 12 is_stmt 0              @ rt-thread/components/drivers/src/pipe.c:385:12
	ldr	r0, [sp, #12]
	.loc	1 385 25                        @ rt-thread/components/drivers/src/pipe.c:385:25
	ldr	r1, [sp, #20]
	.loc	1 385 5                         @ rt-thread/components/drivers/src/pipe.c:385:5
	cmp	r0, r1
	bhs	.LBB2_9
	b	.LBB2_6
.LBB2_6:                                @   in Loop: Header=BB2_5 Depth=1
.Ltmp33:
	.loc	1 387 37 is_stmt 1              @ rt-thread/components/drivers/src/pipe.c:387:37
	ldr	r0, [sp, #8]
	.loc	1 387 43 is_stmt 0              @ rt-thread/components/drivers/src/pipe.c:387:43
	ldr	r0, [r0, #84]
	.loc	1 387 50                        @ rt-thread/components/drivers/src/pipe.c:387:50
	ldr	r1, [sp, #16]
	.loc	1 387 55                        @ rt-thread/components/drivers/src/pipe.c:387:55
	ldr	r3, [sp, #12]
	.loc	1 387 50                        @ rt-thread/components/drivers/src/pipe.c:387:50
	add	r1, r3
	.loc	1 387 68                        @ rt-thread/components/drivers/src/pipe.c:387:68
	ldr	r2, [sp, #20]
	.loc	1 387 74                        @ rt-thread/components/drivers/src/pipe.c:387:74
	subs	r2, r2, r3
	.loc	1 387 19                        @ rt-thread/components/drivers/src/pipe.c:387:19
	uxth	r2, r2
	bl	rt_ringbuffer_get
	.loc	1 387 13                        @ rt-thread/components/drivers/src/pipe.c:387:13
	str	r0, [sp, #4]
.Ltmp34:
	.loc	1 388 13 is_stmt 1              @ rt-thread/components/drivers/src/pipe.c:388:13
	ldr	r0, [sp, #4]
.Ltmp35:
	.loc	1 388 13 is_stmt 0              @ rt-thread/components/drivers/src/pipe.c:388:13
	cmp	r0, #0
	bgt	.LBB2_8
	b	.LBB2_7
.LBB2_7:
.Ltmp36:
	.loc	1 388 23                        @ rt-thread/components/drivers/src/pipe.c:388:23
	b	.LBB2_9
.Ltmp37:
.LBB2_8:                                @   in Loop: Header=BB2_5 Depth=1
	.loc	1 390 23 is_stmt 1              @ rt-thread/components/drivers/src/pipe.c:390:23
	ldr	r1, [sp, #4]
	.loc	1 390 20 is_stmt 0              @ rt-thread/components/drivers/src/pipe.c:390:20
	ldr	r0, [sp, #12]
	add	r0, r1
	str	r0, [sp, #12]
.Ltmp38:
	.loc	1 385 5 is_stmt 1               @ rt-thread/components/drivers/src/pipe.c:385:5
	b	.LBB2_5
.LBB2_9:
	.loc	1 392 23                        @ rt-thread/components/drivers/src/pipe.c:392:23
	ldr	r0, [sp, #8]
	.loc	1 392 29 is_stmt 0              @ rt-thread/components/drivers/src/pipe.c:392:29
	adds	r0, #116
	.loc	1 392 5                         @ rt-thread/components/drivers/src/pipe.c:392:5
	bl	rt_mutex_release
	.loc	1 394 12 is_stmt 1              @ rt-thread/components/drivers/src/pipe.c:394:12
	ldr	r0, [sp, #12]
	.loc	1 394 5 is_stmt 0               @ rt-thread/components/drivers/src/pipe.c:394:5
	str	r0, [sp, #36]
	b	.LBB2_10
.LBB2_10:
	.loc	1 395 1 is_stmt 1               @ rt-thread/components/drivers/src/pipe.c:395:1
	ldr	r0, [sp, #36]
	add	sp, #40
	pop	{r7, pc}
.Ltmp39:
.Lfunc_end2:
	.size	rt_pipe_read, .Lfunc_end2-rt_pipe_read
	.cfi_endproc
	.cantunwind
	.fnend
                                        @ -- End function
	.section	.text.rt_pipe_write,"ax",%progbits
	.hidden	rt_pipe_write                   @ -- Begin function rt_pipe_write
	.globl	rt_pipe_write
	.p2align	3
	.type	rt_pipe_write,%function
	.code	16                              @ @rt_pipe_write
	.thumb_func
rt_pipe_write:
.Lfunc_begin3:
	.loc	1 398 0                         @ rt-thread/components/drivers/src/pipe.c:398:0
	.fnstart
	.cfi_startproc
@ %bb.0:
	.save	{r7, lr}
	push	{r7, lr}
	.cfi_def_cfa_offset 8
	.cfi_offset lr, -4
	.cfi_offset r7, -8
	.pad	#40
	sub	sp, #40
	.cfi_def_cfa_offset 48
	str	r0, [sp, #32]
	str	r1, [sp, #28]
	str	r2, [sp, #24]
	str	r3, [sp, #20]
	movs	r0, #0
.Ltmp40:
	.loc	1 400 15 prologue_end           @ rt-thread/components/drivers/src/pipe.c:400:15
	str	r0, [sp, #12]
	.loc	1 401 36                        @ rt-thread/components/drivers/src/pipe.c:401:36
	ldr	r0, [sp, #32]
	.loc	1 401 16 is_stmt 0              @ rt-thread/components/drivers/src/pipe.c:401:16
	str	r0, [sp, #8]
.Ltmp41:
	.loc	1 403 9 is_stmt 1               @ rt-thread/components/drivers/src/pipe.c:403:9
	ldr	r0, [sp, #32]
.Ltmp42:
	.loc	1 403 9 is_stmt 0               @ rt-thread/components/drivers/src/pipe.c:403:9
	cbnz	r0, .LBB3_2
	b	.LBB3_1
.LBB3_1:
	.loc	1 0 9                           @ rt-thread/components/drivers/src/pipe.c:0:9
	mvn	r0, #21
.Ltmp43:
	.loc	1 405 9 is_stmt 1               @ rt-thread/components/drivers/src/pipe.c:405:9
	bl	rt_set_errno
	movs	r0, #0
	.loc	1 406 9                         @ rt-thread/components/drivers/src/pipe.c:406:9
	str	r0, [sp, #36]
	b	.LBB3_10
.Ltmp44:
.LBB3_2:
	.loc	1 408 9                         @ rt-thread/components/drivers/src/pipe.c:408:9
	ldr	r0, [sp, #20]
.Ltmp45:
	.loc	1 408 9 is_stmt 0               @ rt-thread/components/drivers/src/pipe.c:408:9
	cbnz	r0, .LBB3_4
	b	.LBB3_3
.LBB3_3:
	.loc	1 0 9                           @ rt-thread/components/drivers/src/pipe.c:0:9
	movs	r0, #0
.Ltmp46:
	.loc	1 408 21                        @ rt-thread/components/drivers/src/pipe.c:408:21
	str	r0, [sp, #36]
	b	.LBB3_10
.Ltmp47:
.LBB3_4:
	.loc	1 410 22 is_stmt 1              @ rt-thread/components/drivers/src/pipe.c:410:22
	ldr	r0, [sp, #24]
	.loc	1 410 10 is_stmt 0              @ rt-thread/components/drivers/src/pipe.c:410:10
	str	r0, [sp, #16]
	.loc	1 411 20 is_stmt 1              @ rt-thread/components/drivers/src/pipe.c:411:20
	ldr	r0, [sp, #8]
	.loc	1 411 26 is_stmt 0              @ rt-thread/components/drivers/src/pipe.c:411:26
	adds	r0, #116
	mov.w	r1, #-1
	.loc	1 411 5                         @ rt-thread/components/drivers/src/pipe.c:411:5
	bl	rt_mutex_take
	.loc	1 413 5 is_stmt 1               @ rt-thread/components/drivers/src/pipe.c:413:5
	b	.LBB3_5
.LBB3_5:                                @ =>This Inner Loop Header: Depth=1
	.loc	1 413 12 is_stmt 0              @ rt-thread/components/drivers/src/pipe.c:413:12
	ldr	r0, [sp, #12]
	.loc	1 413 26                        @ rt-thread/components/drivers/src/pipe.c:413:26
	ldr	r1, [sp, #20]
	.loc	1 413 5                         @ rt-thread/components/drivers/src/pipe.c:413:5
	cmp	r0, r1
	bhs	.LBB3_9
	b	.LBB3_6
.LBB3_6:                                @   in Loop: Header=BB3_5 Depth=1
.Ltmp48:
	.loc	1 415 37 is_stmt 1              @ rt-thread/components/drivers/src/pipe.c:415:37
	ldr	r0, [sp, #8]
	.loc	1 415 43 is_stmt 0              @ rt-thread/components/drivers/src/pipe.c:415:43
	ldr	r0, [r0, #84]
	.loc	1 415 50                        @ rt-thread/components/drivers/src/pipe.c:415:50
	ldr	r1, [sp, #16]
	.loc	1 415 55                        @ rt-thread/components/drivers/src/pipe.c:415:55
	ldr	r3, [sp, #12]
	.loc	1 415 50                        @ rt-thread/components/drivers/src/pipe.c:415:50
	add	r1, r3
	.loc	1 415 69                        @ rt-thread/components/drivers/src/pipe.c:415:69
	ldr	r2, [sp, #20]
	.loc	1 415 75                        @ rt-thread/components/drivers/src/pipe.c:415:75
	subs	r2, r2, r3
	.loc	1 415 19                        @ rt-thread/components/drivers/src/pipe.c:415:19
	uxth	r2, r2
	bl	rt_ringbuffer_put
	.loc	1 415 13                        @ rt-thread/components/drivers/src/pipe.c:415:13
	str	r0, [sp, #4]
.Ltmp49:
	.loc	1 416 13 is_stmt 1              @ rt-thread/components/drivers/src/pipe.c:416:13
	ldr	r0, [sp, #4]
.Ltmp50:
	.loc	1 416 13 is_stmt 0              @ rt-thread/components/drivers/src/pipe.c:416:13
	cmp	r0, #0
	bgt	.LBB3_8
	b	.LBB3_7
.LBB3_7:
.Ltmp51:
	.loc	1 416 23                        @ rt-thread/components/drivers/src/pipe.c:416:23
	b	.LBB3_9
.Ltmp52:
.LBB3_8:                                @   in Loop: Header=BB3_5 Depth=1
	.loc	1 418 24 is_stmt 1              @ rt-thread/components/drivers/src/pipe.c:418:24
	ldr	r1, [sp, #4]
	.loc	1 418 21 is_stmt 0              @ rt-thread/components/drivers/src/pipe.c:418:21
	ldr	r0, [sp, #12]
	add	r0, r1
	str	r0, [sp, #12]
.Ltmp53:
	.loc	1 413 5 is_stmt 1               @ rt-thread/components/drivers/src/pipe.c:413:5
	b	.LBB3_5
.LBB3_9:
	.loc	1 420 23                        @ rt-thread/components/drivers/src/pipe.c:420:23
	ldr	r0, [sp, #8]
	.loc	1 420 29 is_stmt 0              @ rt-thread/components/drivers/src/pipe.c:420:29
	adds	r0, #116
	.loc	1 420 5                         @ rt-thread/components/drivers/src/pipe.c:420:5
	bl	rt_mutex_release
	.loc	1 422 12 is_stmt 1              @ rt-thread/components/drivers/src/pipe.c:422:12
	ldr	r0, [sp, #12]
	.loc	1 422 5 is_stmt 0               @ rt-thread/components/drivers/src/pipe.c:422:5
	str	r0, [sp, #36]
	b	.LBB3_10
.LBB3_10:
	.loc	1 423 1 is_stmt 1               @ rt-thread/components/drivers/src/pipe.c:423:1
	ldr	r0, [sp, #36]
	add	sp, #40
	pop	{r7, pc}
.Ltmp54:
.Lfunc_end3:
	.size	rt_pipe_write, .Lfunc_end3-rt_pipe_write
	.cfi_endproc
	.cantunwind
	.fnend
                                        @ -- End function
	.section	.text.rt_pipe_control,"ax",%progbits
	.hidden	rt_pipe_control                 @ -- Begin function rt_pipe_control
	.globl	rt_pipe_control
	.p2align	3
	.type	rt_pipe_control,%function
	.code	16                              @ @rt_pipe_control
	.thumb_func
rt_pipe_control:
.Lfunc_begin4:
	.loc	1 426 0                         @ rt-thread/components/drivers/src/pipe.c:426:0
	.fnstart
	.cfi_startproc
@ %bb.0:
	.pad	#12
	sub	sp, #12
	.cfi_def_cfa_offset 12
	str	r0, [sp, #8]
	str	r1, [sp, #4]
	str	r2, [sp]
	movs	r0, #0
.Ltmp55:
	.loc	1 427 5 prologue_end            @ rt-thread/components/drivers/src/pipe.c:427:5
	add	sp, #12
	bx	lr
.Ltmp56:
.Lfunc_end4:
	.size	rt_pipe_control, .Lfunc_end4-rt_pipe_control
	.cfi_endproc
	.cantunwind
	.fnend
                                        @ -- End function
	.section	.text.rt_pipe_create,"ax",%progbits
	.hidden	rt_pipe_create                  @ -- Begin function rt_pipe_create
	.globl	rt_pipe_create
	.p2align	3
	.type	rt_pipe_create,%function
	.code	16                              @ @rt_pipe_create
	.thumb_func
rt_pipe_create:
.Lfunc_begin5:
	.loc	1 443 0                         @ rt-thread/components/drivers/src/pipe.c:443:0
	.fnstart
	.cfi_startproc
@ %bb.0:
	.save	{r7, lr}
	push	{r7, lr}
	.cfi_def_cfa_offset 8
	.cfi_offset lr, -4
	.cfi_offset r7, -8
	.pad	#24
	sub	sp, #24
	.cfi_def_cfa_offset 32
	str	r0, [sp, #16]
	str	r1, [sp, #12]
	movs	r0, #152
.Ltmp57:
	.loc	1 447 25 prologue_end           @ rt-thread/components/drivers/src/pipe.c:447:25
	bl	rt_malloc
	.loc	1 447 10 is_stmt 0              @ rt-thread/components/drivers/src/pipe.c:447:10
	str	r0, [sp, #8]
.Ltmp58:
	.loc	1 448 9 is_stmt 1               @ rt-thread/components/drivers/src/pipe.c:448:9
	ldr	r0, [sp, #8]
.Ltmp59:
	.loc	1 448 9 is_stmt 0               @ rt-thread/components/drivers/src/pipe.c:448:9
	cbnz	r0, .LBB5_2
	b	.LBB5_1
.LBB5_1:
	.loc	1 0 9                           @ rt-thread/components/drivers/src/pipe.c:0:9
	movs	r0, #0
.Ltmp60:
	.loc	1 448 26                        @ rt-thread/components/drivers/src/pipe.c:448:26
	str	r0, [sp, #20]
	b	.LBB5_7
.Ltmp61:
.LBB5_2:
	.loc	1 450 15 is_stmt 1              @ rt-thread/components/drivers/src/pipe.c:450:15
	ldr	r0, [sp, #8]
	movs	r1, #0
	str	r1, [sp]                        @ 4-byte Spill
	movs	r2, #152
	.loc	1 450 5 is_stmt 0               @ rt-thread/components/drivers/src/pipe.c:450:5
	bl	rt_memset
	ldr	r2, [sp]                        @ 4-byte Reload
	.loc	1 451 5 is_stmt 1               @ rt-thread/components/drivers/src/pipe.c:451:5
	ldr	r1, [sp, #8]
	movs	r0, #1
	.loc	1 451 20 is_stmt 0              @ rt-thread/components/drivers/src/pipe.c:451:20
	str	r0, [r1, #80]
	.loc	1 452 21 is_stmt 1              @ rt-thread/components/drivers/src/pipe.c:452:21
	ldr	r0, [sp, #8]
	.loc	1 452 27 is_stmt 0              @ rt-thread/components/drivers/src/pipe.c:452:27
	adds	r0, #116
	.loc	1 452 34                        @ rt-thread/components/drivers/src/pipe.c:452:34
	ldr	r1, [sp, #16]
	.loc	1 452 5                         @ rt-thread/components/drivers/src/pipe.c:452:5
	bl	rt_mutex_init
	.loc	1 453 22 is_stmt 1              @ rt-thread/components/drivers/src/pipe.c:453:22
	ldr	r0, [sp, #8]
	.loc	1 453 28 is_stmt 0              @ rt-thread/components/drivers/src/pipe.c:453:28
	adds	r0, #92
	.loc	1 453 5                         @ rt-thread/components/drivers/src/pipe.c:453:5
	bl	rt_wqueue_init
	.loc	1 454 22 is_stmt 1              @ rt-thread/components/drivers/src/pipe.c:454:22
	ldr	r0, [sp, #8]
	.loc	1 454 28 is_stmt 0              @ rt-thread/components/drivers/src/pipe.c:454:28
	adds	r0, #104
	.loc	1 454 5                         @ rt-thread/components/drivers/src/pipe.c:454:5
	bl	rt_wqueue_init
.Ltmp62:
	.loc	1 456 5 is_stmt 1               @ rt-thread/components/drivers/src/pipe.c:456:5
	ldr	r0, [sp, #12]
	movw	r1, #65535
.Ltmp63:
	.loc	1 456 5 is_stmt 0               @ rt-thread/components/drivers/src/pipe.c:456:5
	cmp	r0, r1
	blt	.LBB5_4
	b	.LBB5_3
.LBB5_3:
.Ltmp64:
	.loc	1 456 5                         @ rt-thread/components/drivers/src/pipe.c:456:5
	movw	r0, :lower16:.L.str
	movt	r0, :upper16:.L.str
	movw	r1, :lower16:.L__FUNCTION__.rt_pipe_create
	movt	r1, :upper16:.L__FUNCTION__.rt_pipe_create
	mov.w	r2, #456
	bl	rt_assert_handler
	b	.LBB5_4
.Ltmp65:
.LBB5_4:
	.loc	1 457 19 is_stmt 1              @ rt-thread/components/drivers/src/pipe.c:457:19
	ldr	r0, [sp, #12]
	.loc	1 457 5 is_stmt 0               @ rt-thread/components/drivers/src/pipe.c:457:5
	ldr	r1, [sp, #8]
	.loc	1 457 17                        @ rt-thread/components/drivers/src/pipe.c:457:17
	strh.w	r0, [r1, #88]
	.loc	1 459 13 is_stmt 1              @ rt-thread/components/drivers/src/pipe.c:459:13
	ldr	r0, [sp, #8]
	.loc	1 459 9 is_stmt 0               @ rt-thread/components/drivers/src/pipe.c:459:9
	str	r0, [sp, #4]
	.loc	1 460 5 is_stmt 1               @ rt-thread/components/drivers/src/pipe.c:460:5
	ldr	r1, [sp, #4]
	movs	r0, #15
	.loc	1 460 15 is_stmt 0              @ rt-thread/components/drivers/src/pipe.c:460:15
	strb	r0, [r1, #20]
	.loc	1 464 5 is_stmt 1               @ rt-thread/components/drivers/src/pipe.c:464:5
	ldr	r1, [sp, #4]
	movs	r0, #0
	.loc	1 464 22 is_stmt 0              @ rt-thread/components/drivers/src/pipe.c:464:22
	str	r0, [r1, #36]
	.loc	1 465 5 is_stmt 1               @ rt-thread/components/drivers/src/pipe.c:465:5
	ldr	r2, [sp, #4]
	.loc	1 465 22 is_stmt 0              @ rt-thread/components/drivers/src/pipe.c:465:22
	movw	r1, :lower16:rt_pipe_open
	movt	r1, :upper16:rt_pipe_open
	str	r1, [r2, #40]
	.loc	1 466 5 is_stmt 1               @ rt-thread/components/drivers/src/pipe.c:466:5
	ldr	r2, [sp, #4]
	.loc	1 466 22 is_stmt 0              @ rt-thread/components/drivers/src/pipe.c:466:22
	movw	r1, :lower16:rt_pipe_read
	movt	r1, :upper16:rt_pipe_read
	str	r1, [r2, #48]
	.loc	1 467 5 is_stmt 1               @ rt-thread/components/drivers/src/pipe.c:467:5
	ldr	r2, [sp, #4]
	.loc	1 467 22 is_stmt 0              @ rt-thread/components/drivers/src/pipe.c:467:22
	movw	r1, :lower16:rt_pipe_write
	movt	r1, :upper16:rt_pipe_write
	str	r1, [r2, #52]
	.loc	1 468 5 is_stmt 1               @ rt-thread/components/drivers/src/pipe.c:468:5
	ldr	r2, [sp, #4]
	.loc	1 468 22 is_stmt 0              @ rt-thread/components/drivers/src/pipe.c:468:22
	movw	r1, :lower16:rt_pipe_close
	movt	r1, :upper16:rt_pipe_close
	str	r1, [r2, #44]
	.loc	1 469 5 is_stmt 1               @ rt-thread/components/drivers/src/pipe.c:469:5
	ldr	r2, [sp, #4]
	.loc	1 469 22 is_stmt 0              @ rt-thread/components/drivers/src/pipe.c:469:22
	movw	r1, :lower16:rt_pipe_control
	movt	r1, :upper16:rt_pipe_control
	str	r1, [r2, #56]
	.loc	1 472 5 is_stmt 1               @ rt-thread/components/drivers/src/pipe.c:472:5
	ldr	r1, [sp, #4]
	.loc	1 472 22 is_stmt 0              @ rt-thread/components/drivers/src/pipe.c:472:22
	str	r0, [r1, #28]
	.loc	1 473 5 is_stmt 1               @ rt-thread/components/drivers/src/pipe.c:473:5
	ldr	r1, [sp, #4]
	.loc	1 473 22 is_stmt 0              @ rt-thread/components/drivers/src/pipe.c:473:22
	str	r0, [r1, #32]
.Ltmp66:
	.loc	1 475 30 is_stmt 1              @ rt-thread/components/drivers/src/pipe.c:475:30
	ldr	r0, [sp, #8]
	.loc	1 475 45 is_stmt 0              @ rt-thread/components/drivers/src/pipe.c:475:45
	ldr	r1, [sp, #16]
	movs	r2, #7
	.loc	1 475 9                         @ rt-thread/components/drivers/src/pipe.c:475:9
	bl	rt_device_register
.Ltmp67:
	.loc	1 475 9                         @ rt-thread/components/drivers/src/pipe.c:475:9
	cbz	r0, .LBB5_6
	b	.LBB5_5
.LBB5_5:
.Ltmp68:
	.loc	1 477 17 is_stmt 1              @ rt-thread/components/drivers/src/pipe.c:477:17
	ldr	r0, [sp, #8]
	.loc	1 477 9 is_stmt 0               @ rt-thread/components/drivers/src/pipe.c:477:9
	bl	rt_free
	movs	r0, #0
	.loc	1 478 9 is_stmt 1               @ rt-thread/components/drivers/src/pipe.c:478:9
	str	r0, [sp, #20]
	b	.LBB5_7
.Ltmp69:
.LBB5_6:
	.loc	1 481 5                         @ rt-thread/components/drivers/src/pipe.c:481:5
	ldr	r1, [sp, #4]
	.loc	1 481 15 is_stmt 0              @ rt-thread/components/drivers/src/pipe.c:481:15
	movw	r0, :lower16:pipe_fops
	movt	r0, :upper16:pipe_fops
	str	r0, [r1, #60]
	.loc	1 484 12 is_stmt 1              @ rt-thread/components/drivers/src/pipe.c:484:12
	ldr	r0, [sp, #8]
	.loc	1 484 5 is_stmt 0               @ rt-thread/components/drivers/src/pipe.c:484:5
	str	r0, [sp, #20]
	b	.LBB5_7
.LBB5_7:
	.loc	1 485 1 is_stmt 1               @ rt-thread/components/drivers/src/pipe.c:485:1
	ldr	r0, [sp, #20]
	add	sp, #24
	pop	{r7, pc}
.Ltmp70:
.Lfunc_end5:
	.size	rt_pipe_create, .Lfunc_end5-rt_pipe_create
	.cfi_endproc
	.cantunwind
	.fnend
                                        @ -- End function
	.section	.text.rt_wqueue_init,"ax",%progbits
	.p2align	3                               @ -- Begin function rt_wqueue_init
	.type	rt_wqueue_init,%function
	.code	16                              @ @rt_wqueue_init
	.thumb_func
rt_wqueue_init:
.Lfunc_begin6:
	.file	13 "E:\\STM32\\Learning\\STM32H750_ART_PI_RGBLCD" "rt-thread/components/drivers/include/ipc/waitqueue.h"
	.loc	13 36 0                         @ rt-thread/components/drivers/include/ipc/waitqueue.h:36:0
	.fnstart
	.cfi_startproc
@ %bb.0:
	.save	{r7, lr}
	push	{r7, lr}
	.cfi_def_cfa_offset 8
	.cfi_offset lr, -4
	.cfi_offset r7, -8
	.pad	#8
	sub	sp, #8
	.cfi_def_cfa_offset 16
	str	r0, [sp, #4]
.Ltmp71:
	.loc	13 37 5 prologue_end            @ rt-thread/components/drivers/include/ipc/waitqueue.h:37:5
	ldr	r0, [sp, #4]
.Ltmp72:
	.loc	13 37 5 is_stmt 0               @ rt-thread/components/drivers/include/ipc/waitqueue.h:37:5
	cbnz	r0, .LBB6_2
	b	.LBB6_1
.LBB6_1:
.Ltmp73:
	.loc	13 37 5                         @ rt-thread/components/drivers/include/ipc/waitqueue.h:37:5
	movw	r0, :lower16:.L.str.3
	movt	r0, :upper16:.L.str.3
	movw	r1, :lower16:.L__FUNCTION__.rt_wqueue_init
	movt	r1, :upper16:.L__FUNCTION__.rt_wqueue_init
	movs	r2, #37
	bl	rt_assert_handler
	b	.LBB6_2
.Ltmp74:
.LBB6_2:
	.loc	13 39 5 is_stmt 1               @ rt-thread/components/drivers/include/ipc/waitqueue.h:39:5
	ldr	r1, [sp, #4]
	movs	r0, #0
	.loc	13 39 17 is_stmt 0              @ rt-thread/components/drivers/include/ipc/waitqueue.h:39:17
	str	r0, [r1]
	.loc	13 40 20 is_stmt 1              @ rt-thread/components/drivers/include/ipc/waitqueue.h:40:20
	ldr	r0, [sp, #4]
	.loc	13 40 27 is_stmt 0              @ rt-thread/components/drivers/include/ipc/waitqueue.h:40:27
	adds	r0, #4
	.loc	13 40 5                         @ rt-thread/components/drivers/include/ipc/waitqueue.h:40:5
	bl	rt_list_init
	.loc	13 41 1 is_stmt 1               @ rt-thread/components/drivers/include/ipc/waitqueue.h:41:1
	add	sp, #8
	pop	{r7, pc}
.Ltmp75:
.Lfunc_end6:
	.size	rt_wqueue_init, .Lfunc_end6-rt_wqueue_init
	.cfi_endproc
	.cantunwind
	.fnend
                                        @ -- End function
	.section	.text.rt_pipe_delete,"ax",%progbits
	.hidden	rt_pipe_delete                  @ -- Begin function rt_pipe_delete
	.globl	rt_pipe_delete
	.p2align	3
	.type	rt_pipe_delete,%function
	.code	16                              @ @rt_pipe_delete
	.thumb_func
rt_pipe_delete:
.Lfunc_begin7:
	.loc	1 488 0                         @ rt-thread/components/drivers/src/pipe.c:488:0
	.fnstart
	.cfi_startproc
@ %bb.0:
	.save	{r7, lr}
	push	{r7, lr}
	.cfi_def_cfa_offset 8
	.cfi_offset lr, -4
	.cfi_offset r7, -8
	.pad	#24
	sub	sp, #24
	.cfi_def_cfa_offset 32
	str	r0, [sp, #16]
	movs	r0, #0
.Ltmp76:
	.loc	1 489 9 prologue_end            @ rt-thread/components/drivers/src/pipe.c:489:9
	str	r0, [sp, #12]
	.loc	1 492 29                        @ rt-thread/components/drivers/src/pipe.c:492:29
	ldr	r0, [sp, #16]
	.loc	1 492 14 is_stmt 0              @ rt-thread/components/drivers/src/pipe.c:492:14
	bl	rt_device_find
	.loc	1 492 12                        @ rt-thread/components/drivers/src/pipe.c:492:12
	str	r0, [sp, #8]
.Ltmp77:
	.loc	1 493 9 is_stmt 1               @ rt-thread/components/drivers/src/pipe.c:493:9
	ldr	r0, [sp, #8]
.Ltmp78:
	.loc	1 493 9 is_stmt 0               @ rt-thread/components/drivers/src/pipe.c:493:9
	cbz	r0, .LBB7_9
	b	.LBB7_1
.LBB7_1:
.Ltmp79:
	.loc	1 495 13 is_stmt 1              @ rt-thread/components/drivers/src/pipe.c:495:13
	ldr	r0, [sp, #8]
	.loc	1 495 21 is_stmt 0              @ rt-thread/components/drivers/src/pipe.c:495:21
	ldrb	r0, [r0, #20]
.Ltmp80:
	.loc	1 495 13                        @ rt-thread/components/drivers/src/pipe.c:495:13
	cmp	r0, #15
	bne	.LBB7_7
	b	.LBB7_2
.LBB7_2:
.Ltmp81:
	.loc	1 499 17 is_stmt 1              @ rt-thread/components/drivers/src/pipe.c:499:17
	ldr	r0, [sp, #8]
	.loc	1 499 25 is_stmt 0              @ rt-thread/components/drivers/src/pipe.c:499:25
	ldrb	r0, [r0, #26]
.Ltmp82:
	.loc	1 499 17                        @ rt-thread/components/drivers/src/pipe.c:499:17
	cbz	r0, .LBB7_4
	b	.LBB7_3
.LBB7_3:
	.loc	1 0 17                          @ rt-thread/components/drivers/src/pipe.c:0:17
	mvn	r0, #6
.Ltmp83:
	.loc	1 501 17 is_stmt 1              @ rt-thread/components/drivers/src/pipe.c:501:17
	str	r0, [sp, #20]
	b	.LBB7_11
.Ltmp84:
.LBB7_4:
	.loc	1 504 33                        @ rt-thread/components/drivers/src/pipe.c:504:33
	ldr	r0, [sp, #8]
	.loc	1 504 18 is_stmt 0              @ rt-thread/components/drivers/src/pipe.c:504:18
	str	r0, [sp, #4]
	.loc	1 506 31 is_stmt 1              @ rt-thread/components/drivers/src/pipe.c:506:31
	ldr	r0, [sp, #4]
	.loc	1 506 37 is_stmt 0              @ rt-thread/components/drivers/src/pipe.c:506:37
	adds	r0, #116
	.loc	1 506 13                        @ rt-thread/components/drivers/src/pipe.c:506:13
	bl	rt_mutex_detach
	.loc	1 507 34 is_stmt 1              @ rt-thread/components/drivers/src/pipe.c:507:34
	ldr	r0, [sp, #8]
	.loc	1 507 13 is_stmt 0              @ rt-thread/components/drivers/src/pipe.c:507:13
	bl	rt_device_unregister
.Ltmp85:
	.loc	1 510 17 is_stmt 1              @ rt-thread/components/drivers/src/pipe.c:510:17
	ldr	r0, [sp, #4]
	.loc	1 510 23 is_stmt 0              @ rt-thread/components/drivers/src/pipe.c:510:23
	ldr	r0, [r0, #84]
.Ltmp86:
	.loc	1 510 17                        @ rt-thread/components/drivers/src/pipe.c:510:17
	cbz	r0, .LBB7_6
	b	.LBB7_5
.LBB7_5:
.Ltmp87:
	.loc	1 512 39 is_stmt 1              @ rt-thread/components/drivers/src/pipe.c:512:39
	ldr	r0, [sp, #4]
	.loc	1 512 45 is_stmt 0              @ rt-thread/components/drivers/src/pipe.c:512:45
	ldr	r0, [r0, #84]
	.loc	1 512 17                        @ rt-thread/components/drivers/src/pipe.c:512:17
	bl	rt_ringbuffer_destroy
	.loc	1 513 17 is_stmt 1              @ rt-thread/components/drivers/src/pipe.c:513:17
	ldr	r1, [sp, #4]
	movs	r0, #0
	.loc	1 513 28 is_stmt 0              @ rt-thread/components/drivers/src/pipe.c:513:28
	str	r0, [r1, #84]
	.loc	1 514 13 is_stmt 1              @ rt-thread/components/drivers/src/pipe.c:514:13
	b	.LBB7_6
.Ltmp88:
.LBB7_6:
	.loc	1 515 21                        @ rt-thread/components/drivers/src/pipe.c:515:21
	ldr	r0, [sp, #4]
	.loc	1 515 13 is_stmt 0              @ rt-thread/components/drivers/src/pipe.c:515:13
	bl	rt_free
	.loc	1 516 9 is_stmt 1               @ rt-thread/components/drivers/src/pipe.c:516:9
	b	.LBB7_8
.Ltmp89:
.LBB7_7:
	.loc	1 0 9 is_stmt 0                 @ rt-thread/components/drivers/src/pipe.c:0:9
	mvn	r0, #18
.Ltmp90:
	.loc	1 519 20 is_stmt 1              @ rt-thread/components/drivers/src/pipe.c:519:20
	str	r0, [sp, #12]
	b	.LBB7_8
.Ltmp91:
.LBB7_8:
	.loc	1 521 5                         @ rt-thread/components/drivers/src/pipe.c:521:5
	b	.LBB7_10
.Ltmp92:
.LBB7_9:
	.loc	1 0 5 is_stmt 0                 @ rt-thread/components/drivers/src/pipe.c:0:5
	mvn	r0, #18
.Ltmp93:
	.loc	1 524 16 is_stmt 1              @ rt-thread/components/drivers/src/pipe.c:524:16
	str	r0, [sp, #12]
	b	.LBB7_10
.Ltmp94:
.LBB7_10:
	.loc	1 527 12                        @ rt-thread/components/drivers/src/pipe.c:527:12
	ldr	r0, [sp, #12]
	.loc	1 527 5 is_stmt 0               @ rt-thread/components/drivers/src/pipe.c:527:5
	str	r0, [sp, #20]
	b	.LBB7_11
.LBB7_11:
	.loc	1 528 1 is_stmt 1               @ rt-thread/components/drivers/src/pipe.c:528:1
	ldr	r0, [sp, #20]
	add	sp, #24
	pop	{r7, pc}
.Ltmp95:
.Lfunc_end7:
	.size	rt_pipe_delete, .Lfunc_end7-rt_pipe_delete
	.cfi_endproc
	.cantunwind
	.fnend
                                        @ -- End function
	.section	.text.pipe,"ax",%progbits
	.hidden	pipe                            @ -- Begin function pipe
	.globl	pipe
	.p2align	3
	.type	pipe,%function
	.code	16                              @ @pipe
	.thumb_func
pipe:
.Lfunc_begin8:
	.loc	1 532 0                         @ rt-thread/components/drivers/src/pipe.c:532:0
	.fnstart
	.cfi_startproc
@ %bb.0:
	.save	{r7, lr}
	push	{r7, lr}
	.cfi_def_cfa_offset 8
	.cfi_offset lr, -4
	.cfi_offset r7, -8
	.pad	#64
	sub	sp, #64
	.cfi_def_cfa_offset 72
	str	r0, [sp, #56]
.Ltmp96:
	.loc	1 538 55 prologue_end           @ rt-thread/components/drivers/src/pipe.c:538:55
	movw	r1, :lower16:pipe.pipeno
	movt	r1, :upper16:pipe.pipeno
	ldr	r3, [r1]
	adds	r0, r3, #1
	str	r0, [r1]
	.loc	1 538 5 is_stmt 0               @ rt-thread/components/drivers/src/pipe.c:538:5
	movw	r2, :lower16:.L.str.1
	movt	r2, :upper16:.L.str.1
	add	r0, sp, #44
	str	r0, [sp, #8]                    @ 4-byte Spill
	movs	r1, #8
	bl	rt_snprintf
                                        @ kill: def $r1 killed $r0
	.loc	1 540 12 is_stmt 1              @ rt-thread/components/drivers/src/pipe.c:540:12
	ldr	r0, [sp, #8]                    @ 4-byte Reload
	mov.w	r1, #512
	bl	rt_pipe_create
	.loc	1 540 10 is_stmt 0              @ rt-thread/components/drivers/src/pipe.c:540:10
	str	r0, [sp, #52]
.Ltmp97:
	.loc	1 541 9 is_stmt 1               @ rt-thread/components/drivers/src/pipe.c:541:9
	ldr	r0, [sp, #52]
.Ltmp98:
	.loc	1 541 9 is_stmt 0               @ rt-thread/components/drivers/src/pipe.c:541:9
	cbnz	r0, .LBB8_2
	b	.LBB8_1
.LBB8_1:
	.loc	1 0 9                           @ rt-thread/components/drivers/src/pipe.c:0:9
	mov.w	r0, #-1
.Ltmp99:
	.loc	1 543 9 is_stmt 1               @ rt-thread/components/drivers/src/pipe.c:543:9
	str	r0, [sp, #60]
	b	.LBB8_7
.Ltmp100:
.LBB8_2:
	.loc	1 546 5                         @ rt-thread/components/drivers/src/pipe.c:546:5
	ldr	r1, [sp, #52]
	movs	r0, #0
	.loc	1 546 20 is_stmt 0              @ rt-thread/components/drivers/src/pipe.c:546:20
	str	r0, [sp]                        @ 4-byte Spill
	str	r0, [r1, #80]
	.loc	1 547 5 is_stmt 1               @ rt-thread/components/drivers/src/pipe.c:547:5
	movw	r2, :lower16:.L.str.2
	movt	r2, :upper16:.L.str.2
	add	r0, sp, #12
	str	r0, [sp, #4]                    @ 4-byte Spill
	movs	r1, #32
	add	r3, sp, #44
	bl	rt_snprintf
	ldr	r2, [sp]                        @ 4-byte Reload
                                        @ kill: def $r1 killed $r0
	.loc	1 548 17                        @ rt-thread/components/drivers/src/pipe.c:548:17
	ldr	r0, [sp, #4]                    @ 4-byte Reload
	mov	r1, r2
	bl	open
	.loc	1 548 5 is_stmt 0               @ rt-thread/components/drivers/src/pipe.c:548:5
	ldr	r1, [sp, #56]
	.loc	1 548 15                        @ rt-thread/components/drivers/src/pipe.c:548:15
	str	r0, [r1]
.Ltmp101:
	.loc	1 549 9 is_stmt 1               @ rt-thread/components/drivers/src/pipe.c:549:9
	ldr	r0, [sp, #56]
	ldr	r0, [r0]
.Ltmp102:
	.loc	1 549 9 is_stmt 0               @ rt-thread/components/drivers/src/pipe.c:549:9
	cmp.w	r0, #-1
	bgt	.LBB8_4
	b	.LBB8_3
.LBB8_3:
	.loc	1 0 9                           @ rt-thread/components/drivers/src/pipe.c:0:9
	mov.w	r0, #-1
.Ltmp103:
	.loc	1 551 9 is_stmt 1               @ rt-thread/components/drivers/src/pipe.c:551:9
	str	r0, [sp, #60]
	b	.LBB8_7
.Ltmp104:
.LBB8_4:
	.loc	1 0 9 is_stmt 0                 @ rt-thread/components/drivers/src/pipe.c:0:9
	add	r0, sp, #12
	movs	r1, #1
	movs	r2, #0
	.loc	1 554 17 is_stmt 1              @ rt-thread/components/drivers/src/pipe.c:554:17
	bl	open
	.loc	1 554 5 is_stmt 0               @ rt-thread/components/drivers/src/pipe.c:554:5
	ldr	r1, [sp, #56]
	.loc	1 554 15                        @ rt-thread/components/drivers/src/pipe.c:554:15
	str	r0, [r1, #4]
.Ltmp105:
	.loc	1 555 9 is_stmt 1               @ rt-thread/components/drivers/src/pipe.c:555:9
	ldr	r0, [sp, #56]
	ldr	r0, [r0, #4]
.Ltmp106:
	.loc	1 555 9 is_stmt 0               @ rt-thread/components/drivers/src/pipe.c:555:9
	cmp.w	r0, #-1
	bgt	.LBB8_6
	b	.LBB8_5
.LBB8_5:
.Ltmp107:
	.loc	1 557 15 is_stmt 1              @ rt-thread/components/drivers/src/pipe.c:557:15
	ldr	r0, [sp, #56]
	ldr	r0, [r0]
	.loc	1 557 9 is_stmt 0               @ rt-thread/components/drivers/src/pipe.c:557:9
	bl	close
	mov.w	r0, #-1
	.loc	1 558 9 is_stmt 1               @ rt-thread/components/drivers/src/pipe.c:558:9
	str	r0, [sp, #60]
	b	.LBB8_7
.Ltmp108:
.LBB8_6:
	.loc	1 0 9 is_stmt 0                 @ rt-thread/components/drivers/src/pipe.c:0:9
	movs	r0, #0
	.loc	1 561 5 is_stmt 1               @ rt-thread/components/drivers/src/pipe.c:561:5
	str	r0, [sp, #60]
	b	.LBB8_7
.LBB8_7:
	.loc	1 562 1                         @ rt-thread/components/drivers/src/pipe.c:562:1
	ldr	r0, [sp, #60]
	add	sp, #64
	pop	{r7, pc}
.Ltmp109:
.Lfunc_end8:
	.size	pipe, .Lfunc_end8-pipe
	.cfi_endproc
	.cantunwind
	.fnend
                                        @ -- End function
	.section	.text.mkfifo,"ax",%progbits
	.hidden	mkfifo                          @ -- Begin function mkfifo
	.globl	mkfifo
	.p2align	3
	.type	mkfifo,%function
	.code	16                              @ @mkfifo
	.thumb_func
mkfifo:
.Lfunc_begin9:
	.loc	1 565 0                         @ rt-thread/components/drivers/src/pipe.c:565:0
	.fnstart
	.cfi_startproc
@ %bb.0:
	.save	{r7, lr}
	push	{r7, lr}
	.cfi_def_cfa_offset 8
	.cfi_offset lr, -4
	.cfi_offset r7, -8
	.pad	#16
	sub	sp, #16
	.cfi_def_cfa_offset 24
	str	r0, [sp, #8]
	str	r1, [sp, #4]
.Ltmp110:
	.loc	1 568 27 prologue_end           @ rt-thread/components/drivers/src/pipe.c:568:27
	ldr	r0, [sp, #8]
	mov.w	r1, #512
	.loc	1 568 12 is_stmt 0              @ rt-thread/components/drivers/src/pipe.c:568:12
	bl	rt_pipe_create
	.loc	1 568 10                        @ rt-thread/components/drivers/src/pipe.c:568:10
	str	r0, [sp]
.Ltmp111:
	.loc	1 569 9 is_stmt 1               @ rt-thread/components/drivers/src/pipe.c:569:9
	ldr	r0, [sp]
.Ltmp112:
	.loc	1 569 9 is_stmt 0               @ rt-thread/components/drivers/src/pipe.c:569:9
	cbnz	r0, .LBB9_2
	b	.LBB9_1
.LBB9_1:
	.loc	1 0 9                           @ rt-thread/components/drivers/src/pipe.c:0:9
	mov.w	r0, #-1
.Ltmp113:
	.loc	1 571 9 is_stmt 1               @ rt-thread/components/drivers/src/pipe.c:571:9
	str	r0, [sp, #12]
	b	.LBB9_3
.Ltmp114:
.LBB9_2:
	.loc	1 0 9 is_stmt 0                 @ rt-thread/components/drivers/src/pipe.c:0:9
	movs	r0, #0
	.loc	1 574 5 is_stmt 1               @ rt-thread/components/drivers/src/pipe.c:574:5
	str	r0, [sp, #12]
	b	.LBB9_3
.LBB9_3:
	.loc	1 575 1                         @ rt-thread/components/drivers/src/pipe.c:575:1
	ldr	r0, [sp, #12]
	add	sp, #16
	pop	{r7, pc}
.Ltmp115:
.Lfunc_end9:
	.size	mkfifo, .Lfunc_end9-mkfifo
	.cfi_endproc
	.cantunwind
	.fnend
                                        @ -- End function
	.section	.text.rt_list_init,"ax",%progbits
	.p2align	3                               @ -- Begin function rt_list_init
	.type	rt_list_init,%function
	.code	16                              @ @rt_list_init
	.thumb_func
rt_list_init:
.Lfunc_begin10:
	.file	14 "E:\\STM32\\Learning\\STM32H750_ART_PI_RGBLCD" "rt-thread/include\\rtservice.h"
	.loc	14 48 0                         @ rt-thread/include\rtservice.h:48:0
	.fnstart
	.cfi_startproc
@ %bb.0:
	.pad	#4
	sub	sp, #4
	.cfi_def_cfa_offset 4
	str	r0, [sp]
.Ltmp116:
	.loc	14 49 25 prologue_end           @ rt-thread/include\rtservice.h:49:25
	ldr	r0, [sp]
	.loc	14 49 23 is_stmt 0              @ rt-thread/include\rtservice.h:49:23
	str	r0, [r0, #4]
	.loc	14 49 5                         @ rt-thread/include\rtservice.h:49:5
	ldr	r1, [sp]
	.loc	14 49 13                        @ rt-thread/include\rtservice.h:49:13
	str	r0, [r1]
	.loc	14 50 1 is_stmt 1               @ rt-thread/include\rtservice.h:50:1
	add	sp, #4
	bx	lr
.Ltmp117:
.Lfunc_end10:
	.size	rt_list_init, .Lfunc_end10-rt_list_init
	.cfi_endproc
	.cantunwind
	.fnend
                                        @ -- End function
	.section	.text.pipe_fops_open,"ax",%progbits
	.p2align	3                               @ -- Begin function pipe_fops_open
	.type	pipe_fops_open,%function
	.code	16                              @ @pipe_fops_open
	.thumb_func
pipe_fops_open:
.Lfunc_begin11:
	.loc	1 21 0                          @ rt-thread/components/drivers/src/pipe.c:21:0
	.fnstart
	.cfi_startproc
@ %bb.0:
	.save	{r7, lr}
	push	{r7, lr}
	.cfi_def_cfa_offset 8
	.cfi_offset lr, -4
	.cfi_offset r7, -8
	.pad	#24
	sub	sp, #24
	.cfi_def_cfa_offset 32
	str	r0, [sp, #16]
	movs	r0, #0
.Ltmp118:
	.loc	1 22 9 prologue_end             @ rt-thread/components/drivers/src/pipe.c:22:9
	str	r0, [sp, #12]
	.loc	1 26 25                         @ rt-thread/components/drivers/src/pipe.c:26:25
	ldr	r0, [sp, #16]
	.loc	1 26 29 is_stmt 0               @ rt-thread/components/drivers/src/pipe.c:26:29
	ldr	r0, [r0, #32]
	.loc	1 26 10                         @ rt-thread/components/drivers/src/pipe.c:26:10
	str	r0, [sp, #4]
.Ltmp119:
	.loc	1 27 10 is_stmt 1               @ rt-thread/components/drivers/src/pipe.c:27:10
	ldr	r0, [sp, #4]
.Ltmp120:
	.loc	1 27 9 is_stmt 0                @ rt-thread/components/drivers/src/pipe.c:27:9
	cbnz	r0, .LBB11_2
	b	.LBB11_1
.LBB11_1:
	.loc	1 0 9                           @ rt-thread/components/drivers/src/pipe.c:0:9
	mov.w	r0, #-1
.Ltmp121:
	.loc	1 27 16                         @ rt-thread/components/drivers/src/pipe.c:27:16
	str	r0, [sp, #20]
	b	.LBB11_14
.Ltmp122:
.LBB11_2:
	.loc	1 29 16 is_stmt 1               @ rt-thread/components/drivers/src/pipe.c:29:16
	ldr	r0, [sp, #4]
	.loc	1 29 12 is_stmt 0               @ rt-thread/components/drivers/src/pipe.c:29:12
	str	r0, [sp, #8]
	.loc	1 30 21 is_stmt 1               @ rt-thread/components/drivers/src/pipe.c:30:21
	ldr	r0, [sp, #4]
	.loc	1 30 27 is_stmt 0               @ rt-thread/components/drivers/src/pipe.c:30:27
	adds	r0, #116
	mov.w	r1, #-1
	.loc	1 30 5                          @ rt-thread/components/drivers/src/pipe.c:30:5
	bl	rt_mutex_take
.Ltmp123:
	.loc	1 32 9 is_stmt 1                @ rt-thread/components/drivers/src/pipe.c:32:9
	ldr	r0, [sp, #8]
	.loc	1 32 17 is_stmt 0               @ rt-thread/components/drivers/src/pipe.c:32:17
	ldrb	r0, [r0, #26]
.Ltmp124:
	.loc	1 32 9                          @ rt-thread/components/drivers/src/pipe.c:32:9
	cbnz	r0, .LBB11_6
	b	.LBB11_3
.LBB11_3:
.Ltmp125:
	.loc	1 34 43 is_stmt 1               @ rt-thread/components/drivers/src/pipe.c:34:43
	ldr	r0, [sp, #4]
	.loc	1 34 49 is_stmt 0               @ rt-thread/components/drivers/src/pipe.c:34:49
	ldrh.w	r0, [r0, #88]
	.loc	1 34 22                         @ rt-thread/components/drivers/src/pipe.c:34:22
	bl	rt_ringbuffer_create
	.loc	1 34 9                          @ rt-thread/components/drivers/src/pipe.c:34:9
	ldr	r1, [sp, #4]
	.loc	1 34 20                         @ rt-thread/components/drivers/src/pipe.c:34:20
	str	r0, [r1, #84]
.Ltmp126:
	.loc	1 35 13 is_stmt 1               @ rt-thread/components/drivers/src/pipe.c:35:13
	ldr	r0, [sp, #4]
	.loc	1 35 19 is_stmt 0               @ rt-thread/components/drivers/src/pipe.c:35:19
	ldr	r0, [r0, #84]
.Ltmp127:
	.loc	1 35 13                         @ rt-thread/components/drivers/src/pipe.c:35:13
	cbnz	r0, .LBB11_5
	b	.LBB11_4
.LBB11_4:
	.loc	1 0 13                          @ rt-thread/components/drivers/src/pipe.c:0:13
	mvn	r0, #4
.Ltmp128:
	.loc	1 37 16 is_stmt 1               @ rt-thread/components/drivers/src/pipe.c:37:16
	str	r0, [sp, #12]
	.loc	1 38 13                         @ rt-thread/components/drivers/src/pipe.c:38:13
	b	.LBB11_13
.Ltmp129:
.LBB11_5:
	.loc	1 40 5                          @ rt-thread/components/drivers/src/pipe.c:40:5
	b	.LBB11_6
.Ltmp130:
.LBB11_6:
	.loc	1 42 13                         @ rt-thread/components/drivers/src/pipe.c:42:13
	ldr	r0, [sp, #16]
	.loc	1 42 17 is_stmt 0               @ rt-thread/components/drivers/src/pipe.c:42:17
	ldr	r0, [r0, #20]
	movs	r1, #3
	movt	r1, #32
	.loc	1 42 23                         @ rt-thread/components/drivers/src/pipe.c:42:23
	ands	r0, r1
	.loc	1 42 5                          @ rt-thread/components/drivers/src/pipe.c:42:5
	mov	r1, r0
	str	r1, [sp]                        @ 4-byte Spill
	cbz	r0, .LBB11_9
	b	.LBB11_7
.LBB11_7:
	ldr	r0, [sp]                        @ 4-byte Reload
	cmp	r0, #1
	beq	.LBB11_10
	b	.LBB11_8
.LBB11_8:
	ldr	r0, [sp]                        @ 4-byte Reload
	cmp	r0, #2
	beq	.LBB11_11
	b	.LBB11_12
.LBB11_9:
.Ltmp131:
	.loc	1 45 9 is_stmt 1                @ rt-thread/components/drivers/src/pipe.c:45:9
	ldr	r1, [sp, #4]
	.loc	1 45 23 is_stmt 0               @ rt-thread/components/drivers/src/pipe.c:45:23
	ldrb.w	r0, [r1, #90]
	adds	r0, #1
	strb.w	r0, [r1, #90]
	.loc	1 46 9 is_stmt 1                @ rt-thread/components/drivers/src/pipe.c:46:9
	b	.LBB11_12
.LBB11_10:
	.loc	1 48 9                          @ rt-thread/components/drivers/src/pipe.c:48:9
	ldr	r1, [sp, #4]
	.loc	1 48 23 is_stmt 0               @ rt-thread/components/drivers/src/pipe.c:48:23
	ldrb.w	r0, [r1, #91]
	adds	r0, #1
	strb.w	r0, [r1, #91]
	.loc	1 49 9 is_stmt 1                @ rt-thread/components/drivers/src/pipe.c:49:9
	b	.LBB11_12
.LBB11_11:
	.loc	1 51 9                          @ rt-thread/components/drivers/src/pipe.c:51:9
	ldr	r1, [sp, #4]
	.loc	1 51 23 is_stmt 0               @ rt-thread/components/drivers/src/pipe.c:51:23
	ldrb.w	r0, [r1, #90]
	adds	r0, #1
	strb.w	r0, [r1, #90]
	.loc	1 52 9 is_stmt 1                @ rt-thread/components/drivers/src/pipe.c:52:9
	ldr	r1, [sp, #4]
	.loc	1 52 23 is_stmt 0               @ rt-thread/components/drivers/src/pipe.c:52:23
	ldrb.w	r0, [r1, #91]
	adds	r0, #1
	strb.w	r0, [r1, #91]
	.loc	1 53 9 is_stmt 1                @ rt-thread/components/drivers/src/pipe.c:53:9
	b	.LBB11_12
.Ltmp132:
.LBB11_12:
	.loc	1 55 5                          @ rt-thread/components/drivers/src/pipe.c:55:5
	ldr	r1, [sp, #8]
	.loc	1 55 23 is_stmt 0               @ rt-thread/components/drivers/src/pipe.c:55:23
	ldrb	r0, [r1, #26]
	adds	r0, #1
	strb	r0, [r1, #26]
	.loc	1 55 5                          @ rt-thread/components/drivers/src/pipe.c:55:5
	b	.LBB11_13
.LBB11_13:
.Ltmp133:
	@DEBUG_LABEL: pipe_fops_open:__exit
	.loc	1 58 24 is_stmt 1               @ rt-thread/components/drivers/src/pipe.c:58:24
	ldr	r0, [sp, #4]
	.loc	1 58 30 is_stmt 0               @ rt-thread/components/drivers/src/pipe.c:58:30
	adds	r0, #116
	.loc	1 58 5                          @ rt-thread/components/drivers/src/pipe.c:58:5
	bl	rt_mutex_release
	.loc	1 60 12 is_stmt 1               @ rt-thread/components/drivers/src/pipe.c:60:12
	ldr	r0, [sp, #12]
	.loc	1 60 5 is_stmt 0                @ rt-thread/components/drivers/src/pipe.c:60:5
	str	r0, [sp, #20]
	b	.LBB11_14
.LBB11_14:
	.loc	1 61 1 is_stmt 1                @ rt-thread/components/drivers/src/pipe.c:61:1
	ldr	r0, [sp, #20]
	add	sp, #24
	pop	{r7, pc}
.Ltmp134:
.Lfunc_end11:
	.size	pipe_fops_open, .Lfunc_end11-pipe_fops_open
	.cfi_endproc
	.cantunwind
	.fnend
                                        @ -- End function
	.section	.text.pipe_fops_close,"ax",%progbits
	.p2align	3                               @ -- Begin function pipe_fops_close
	.type	pipe_fops_close,%function
	.code	16                              @ @pipe_fops_close
	.thumb_func
pipe_fops_close:
.Lfunc_begin12:
	.loc	1 64 0                          @ rt-thread/components/drivers/src/pipe.c:64:0
	.fnstart
	.cfi_startproc
@ %bb.0:
	.save	{r7, lr}
	push	{r7, lr}
	.cfi_def_cfa_offset 8
	.cfi_offset lr, -4
	.cfi_offset r7, -8
	.pad	#24
	sub	sp, #24
	.cfi_def_cfa_offset 32
	str	r0, [sp, #16]
.Ltmp135:
	.loc	1 68 25 prologue_end            @ rt-thread/components/drivers/src/pipe.c:68:25
	ldr	r0, [sp, #16]
	.loc	1 68 29 is_stmt 0               @ rt-thread/components/drivers/src/pipe.c:68:29
	ldr	r0, [r0, #32]
	.loc	1 68 10                         @ rt-thread/components/drivers/src/pipe.c:68:10
	str	r0, [sp, #8]
.Ltmp136:
	.loc	1 69 10 is_stmt 1               @ rt-thread/components/drivers/src/pipe.c:69:10
	ldr	r0, [sp, #8]
.Ltmp137:
	.loc	1 69 9 is_stmt 0                @ rt-thread/components/drivers/src/pipe.c:69:9
	cbnz	r0, .LBB12_2
	b	.LBB12_1
.LBB12_1:
	.loc	1 0 9                           @ rt-thread/components/drivers/src/pipe.c:0:9
	mov.w	r0, #-1
.Ltmp138:
	.loc	1 69 16                         @ rt-thread/components/drivers/src/pipe.c:69:16
	str	r0, [sp, #20]
	b	.LBB12_20
.Ltmp139:
.LBB12_2:
	.loc	1 71 16 is_stmt 1               @ rt-thread/components/drivers/src/pipe.c:71:16
	ldr	r0, [sp, #8]
	.loc	1 71 12 is_stmt 0               @ rt-thread/components/drivers/src/pipe.c:71:12
	str	r0, [sp, #12]
	.loc	1 72 21 is_stmt 1               @ rt-thread/components/drivers/src/pipe.c:72:21
	ldr	r0, [sp, #8]
	.loc	1 72 27 is_stmt 0               @ rt-thread/components/drivers/src/pipe.c:72:27
	adds	r0, #116
	mov.w	r1, #-1
	.loc	1 72 5                          @ rt-thread/components/drivers/src/pipe.c:72:5
	bl	rt_mutex_take
	.loc	1 74 13 is_stmt 1               @ rt-thread/components/drivers/src/pipe.c:74:13
	ldr	r0, [sp, #16]
	.loc	1 74 17 is_stmt 0               @ rt-thread/components/drivers/src/pipe.c:74:17
	ldr	r0, [r0, #20]
	movs	r1, #3
	movt	r1, #32
	.loc	1 74 23                         @ rt-thread/components/drivers/src/pipe.c:74:23
	ands	r0, r1
	.loc	1 74 5                          @ rt-thread/components/drivers/src/pipe.c:74:5
	mov	r1, r0
	str	r1, [sp, #4]                    @ 4-byte Spill
	cbz	r0, .LBB12_5
	b	.LBB12_3
.LBB12_3:
	ldr	r0, [sp, #4]                    @ 4-byte Reload
	cmp	r0, #1
	beq	.LBB12_6
	b	.LBB12_4
.LBB12_4:
	ldr	r0, [sp, #4]                    @ 4-byte Reload
	cmp	r0, #2
	beq	.LBB12_7
	b	.LBB12_8
.LBB12_5:
.Ltmp140:
	.loc	1 77 9 is_stmt 1                @ rt-thread/components/drivers/src/pipe.c:77:9
	ldr	r1, [sp, #8]
	.loc	1 77 23 is_stmt 0               @ rt-thread/components/drivers/src/pipe.c:77:23
	ldrb.w	r0, [r1, #90]
	subs	r0, #1
	strb.w	r0, [r1, #90]
	.loc	1 78 9 is_stmt 1                @ rt-thread/components/drivers/src/pipe.c:78:9
	b	.LBB12_8
.LBB12_6:
	.loc	1 80 9                          @ rt-thread/components/drivers/src/pipe.c:80:9
	ldr	r1, [sp, #8]
	.loc	1 80 23 is_stmt 0               @ rt-thread/components/drivers/src/pipe.c:80:23
	ldrb.w	r0, [r1, #91]
	subs	r0, #1
	strb.w	r0, [r1, #91]
	.loc	1 81 9 is_stmt 1                @ rt-thread/components/drivers/src/pipe.c:81:9
	b	.LBB12_8
.LBB12_7:
	.loc	1 83 9                          @ rt-thread/components/drivers/src/pipe.c:83:9
	ldr	r1, [sp, #8]
	.loc	1 83 23 is_stmt 0               @ rt-thread/components/drivers/src/pipe.c:83:23
	ldrb.w	r0, [r1, #90]
	subs	r0, #1
	strb.w	r0, [r1, #90]
	.loc	1 84 9 is_stmt 1                @ rt-thread/components/drivers/src/pipe.c:84:9
	ldr	r1, [sp, #8]
	.loc	1 84 23 is_stmt 0               @ rt-thread/components/drivers/src/pipe.c:84:23
	ldrb.w	r0, [r1, #91]
	subs	r0, #1
	strb.w	r0, [r1, #91]
	.loc	1 85 9 is_stmt 1                @ rt-thread/components/drivers/src/pipe.c:85:9
	b	.LBB12_8
.Ltmp141:
.LBB12_8:
	.loc	1 88 9                          @ rt-thread/components/drivers/src/pipe.c:88:9
	ldr	r0, [sp, #8]
	.loc	1 88 15 is_stmt 0               @ rt-thread/components/drivers/src/pipe.c:88:15
	ldrb.w	r0, [r0, #91]
.Ltmp142:
	.loc	1 88 9                          @ rt-thread/components/drivers/src/pipe.c:88:9
	cbnz	r0, .LBB12_10
	b	.LBB12_9
.LBB12_9:
.Ltmp143:
	.loc	1 90 28 is_stmt 1               @ rt-thread/components/drivers/src/pipe.c:90:28
	ldr	r0, [sp, #8]
	.loc	1 90 34 is_stmt 0               @ rt-thread/components/drivers/src/pipe.c:90:34
	adds	r0, #92
	movs	r1, #13
	.loc	1 90 9                          @ rt-thread/components/drivers/src/pipe.c:90:9
	bl	rt_wqueue_wakeup
	.loc	1 91 5 is_stmt 1                @ rt-thread/components/drivers/src/pipe.c:91:5
	b	.LBB12_10
.Ltmp144:
.LBB12_10:
	.loc	1 93 9                          @ rt-thread/components/drivers/src/pipe.c:93:9
	ldr	r0, [sp, #8]
	.loc	1 93 15 is_stmt 0               @ rt-thread/components/drivers/src/pipe.c:93:15
	ldrb.w	r0, [r0, #90]
.Ltmp145:
	.loc	1 93 9                          @ rt-thread/components/drivers/src/pipe.c:93:9
	cbnz	r0, .LBB12_12
	b	.LBB12_11
.LBB12_11:
.Ltmp146:
	.loc	1 95 28 is_stmt 1               @ rt-thread/components/drivers/src/pipe.c:95:28
	ldr	r0, [sp, #8]
	.loc	1 95 34 is_stmt 0               @ rt-thread/components/drivers/src/pipe.c:95:34
	adds	r0, #104
	movs	r1, #14
	.loc	1 95 9                          @ rt-thread/components/drivers/src/pipe.c:95:9
	bl	rt_wqueue_wakeup
	.loc	1 96 5 is_stmt 1                @ rt-thread/components/drivers/src/pipe.c:96:5
	b	.LBB12_12
.Ltmp147:
.LBB12_12:
	.loc	1 98 9                          @ rt-thread/components/drivers/src/pipe.c:98:9
	ldr	r0, [sp, #12]
	.loc	1 98 17 is_stmt 0               @ rt-thread/components/drivers/src/pipe.c:98:17
	ldrb	r0, [r0, #26]
.Ltmp148:
	.loc	1 98 9                          @ rt-thread/components/drivers/src/pipe.c:98:9
	cmp	r0, #1
	bne	.LBB12_16
	b	.LBB12_13
.LBB12_13:
.Ltmp149:
	.loc	1 100 13 is_stmt 1              @ rt-thread/components/drivers/src/pipe.c:100:13
	ldr	r0, [sp, #8]
	.loc	1 100 19 is_stmt 0              @ rt-thread/components/drivers/src/pipe.c:100:19
	ldr	r0, [r0, #84]
.Ltmp150:
	.loc	1 100 13                        @ rt-thread/components/drivers/src/pipe.c:100:13
	cbz	r0, .LBB12_15
	b	.LBB12_14
.LBB12_14:
.Ltmp151:
	.loc	1 101 35 is_stmt 1              @ rt-thread/components/drivers/src/pipe.c:101:35
	ldr	r0, [sp, #8]
	.loc	1 101 41 is_stmt 0              @ rt-thread/components/drivers/src/pipe.c:101:41
	ldr	r0, [r0, #84]
	.loc	1 101 13                        @ rt-thread/components/drivers/src/pipe.c:101:13
	bl	rt_ringbuffer_destroy
	b	.LBB12_15
.Ltmp152:
.LBB12_15:
	.loc	1 102 9 is_stmt 1               @ rt-thread/components/drivers/src/pipe.c:102:9
	ldr	r1, [sp, #8]
	movs	r0, #0
	.loc	1 102 20 is_stmt 0              @ rt-thread/components/drivers/src/pipe.c:102:20
	str	r0, [r1, #84]
	.loc	1 103 5 is_stmt 1               @ rt-thread/components/drivers/src/pipe.c:103:5
	b	.LBB12_16
.Ltmp153:
.LBB12_16:
	.loc	1 104 5                         @ rt-thread/components/drivers/src/pipe.c:104:5
	ldr	r1, [sp, #12]
	.loc	1 104 23 is_stmt 0              @ rt-thread/components/drivers/src/pipe.c:104:23
	ldrb	r0, [r1, #26]
	subs	r0, #1
	strb	r0, [r1, #26]
	.loc	1 106 24 is_stmt 1              @ rt-thread/components/drivers/src/pipe.c:106:24
	ldr	r0, [sp, #8]
	.loc	1 106 30 is_stmt 0              @ rt-thread/components/drivers/src/pipe.c:106:30
	adds	r0, #116
	.loc	1 106 5                         @ rt-thread/components/drivers/src/pipe.c:106:5
	bl	rt_mutex_release
.Ltmp154:
	.loc	1 108 9 is_stmt 1               @ rt-thread/components/drivers/src/pipe.c:108:9
	ldr	r0, [sp, #12]
	.loc	1 108 17 is_stmt 0              @ rt-thread/components/drivers/src/pipe.c:108:17
	ldrb	r0, [r0, #26]
	.loc	1 108 32                        @ rt-thread/components/drivers/src/pipe.c:108:32
	cbnz	r0, .LBB12_19
	b	.LBB12_17
.LBB12_17:
	.loc	1 108 35                        @ rt-thread/components/drivers/src/pipe.c:108:35
	ldr	r0, [sp, #8]
	.loc	1 108 41                        @ rt-thread/components/drivers/src/pipe.c:108:41
	ldr	r0, [r0, #80]
.Ltmp155:
	.loc	1 108 9                         @ rt-thread/components/drivers/src/pipe.c:108:9
	cbnz	r0, .LBB12_19
	b	.LBB12_18
.LBB12_18:
.Ltmp156:
	.loc	1 111 24 is_stmt 1              @ rt-thread/components/drivers/src/pipe.c:111:24
	ldr	r0, [sp, #12]
	.loc	1 111 9 is_stmt 0               @ rt-thread/components/drivers/src/pipe.c:111:9
	bl	rt_pipe_delete
	.loc	1 112 5 is_stmt 1               @ rt-thread/components/drivers/src/pipe.c:112:5
	b	.LBB12_19
.Ltmp157:
.LBB12_19:
	.loc	1 0 5 is_stmt 0                 @ rt-thread/components/drivers/src/pipe.c:0:5
	movs	r0, #0
	.loc	1 114 5 is_stmt 1               @ rt-thread/components/drivers/src/pipe.c:114:5
	str	r0, [sp, #20]
	b	.LBB12_20
.LBB12_20:
	.loc	1 115 1                         @ rt-thread/components/drivers/src/pipe.c:115:1
	ldr	r0, [sp, #20]
	add	sp, #24
	pop	{r7, pc}
.Ltmp158:
.Lfunc_end12:
	.size	pipe_fops_close, .Lfunc_end12-pipe_fops_close
	.cfi_endproc
	.cantunwind
	.fnend
                                        @ -- End function
	.section	.text.pipe_fops_ioctl,"ax",%progbits
	.p2align	3                               @ -- Begin function pipe_fops_ioctl
	.type	pipe_fops_ioctl,%function
	.code	16                              @ @pipe_fops_ioctl
	.thumb_func
pipe_fops_ioctl:
.Lfunc_begin13:
	.loc	1 118 0                         @ rt-thread/components/drivers/src/pipe.c:118:0
	.fnstart
	.cfi_startproc
@ %bb.0:
	.save	{r7, lr}
	push	{r7, lr}
	.cfi_def_cfa_offset 8
	.cfi_offset lr, -4
	.cfi_offset r7, -8
	.pad	#32
	sub	sp, #32
	.cfi_def_cfa_offset 40
	str	r0, [sp, #28]
	str	r1, [sp, #24]
	str	r2, [sp, #20]
	movs	r0, #0
.Ltmp159:
	.loc	1 120 9 prologue_end            @ rt-thread/components/drivers/src/pipe.c:120:9
	str	r0, [sp, #12]
	.loc	1 122 25                        @ rt-thread/components/drivers/src/pipe.c:122:25
	ldr	r0, [sp, #28]
	.loc	1 122 29 is_stmt 0              @ rt-thread/components/drivers/src/pipe.c:122:29
	ldr	r0, [r0, #32]
	.loc	1 122 10                        @ rt-thread/components/drivers/src/pipe.c:122:10
	str	r0, [sp, #16]
	.loc	1 124 13 is_stmt 1              @ rt-thread/components/drivers/src/pipe.c:124:13
	ldr	r0, [sp, #24]
	str	r0, [sp, #8]                    @ 4-byte Spill
	movw	r1, #26233
	movt	r1, #32772
	.loc	1 124 5 is_stmt 0               @ rt-thread/components/drivers/src/pipe.c:124:5
	cmp	r0, r1
	beq	.LBB13_3
	b	.LBB13_1
.LBB13_1:
	.loc	1 0 5                           @ rt-thread/components/drivers/src/pipe.c:0:5
	ldr	r0, [sp, #8]                    @ 4-byte Reload
	movw	r1, #26239
	movt	r1, #32772
	.loc	1 124 5                         @ rt-thread/components/drivers/src/pipe.c:124:5
	cmp	r0, r1
	bne	.LBB13_4
	b	.LBB13_2
.LBB13_2:
.Ltmp160:
	.loc	1 127 48 is_stmt 1              @ rt-thread/components/drivers/src/pipe.c:127:48
	ldr	r0, [sp, #16]
	.loc	1 127 54 is_stmt 0              @ rt-thread/components/drivers/src/pipe.c:127:54
	ldr	r0, [r0, #84]
	.loc	1 127 25                        @ rt-thread/components/drivers/src/pipe.c:127:25
	bl	rt_ringbuffer_data_len
	.loc	1 127 17                        @ rt-thread/components/drivers/src/pipe.c:127:17
	ldr	r1, [sp, #20]
	.loc	1 127 23                        @ rt-thread/components/drivers/src/pipe.c:127:23
	str	r0, [r1]
	.loc	1 128 9 is_stmt 1               @ rt-thread/components/drivers/src/pipe.c:128:9
	b	.LBB13_5
.LBB13_3:
	.loc	1 130 25                        @ rt-thread/components/drivers/src/pipe.c:130:25
	ldr	r0, [sp, #16]
	ldr	r0, [r0, #84]
	ldrsh.w	r1, [r0, #8]
	str	r1, [sp, #4]                    @ 4-byte Spill
	bl	rt_ringbuffer_data_len
	mov	r1, r0
	ldr	r0, [sp, #4]                    @ 4-byte Reload
	subs	r0, r0, r1
	.loc	1 130 17 is_stmt 0              @ rt-thread/components/drivers/src/pipe.c:130:17
	ldr	r1, [sp, #20]
	.loc	1 130 23                        @ rt-thread/components/drivers/src/pipe.c:130:23
	str	r0, [r1]
	.loc	1 131 9 is_stmt 1               @ rt-thread/components/drivers/src/pipe.c:131:9
	b	.LBB13_5
.LBB13_4:
	.loc	1 0 9 is_stmt 0                 @ rt-thread/components/drivers/src/pipe.c:0:9
	mvn	r0, #21
	.loc	1 133 13 is_stmt 1              @ rt-thread/components/drivers/src/pipe.c:133:13
	str	r0, [sp, #12]
	.loc	1 134 9                         @ rt-thread/components/drivers/src/pipe.c:134:9
	b	.LBB13_5
.Ltmp161:
.LBB13_5:
	.loc	1 137 12                        @ rt-thread/components/drivers/src/pipe.c:137:12
	ldr	r0, [sp, #12]
	.loc	1 137 5 is_stmt 0               @ rt-thread/components/drivers/src/pipe.c:137:5
	add	sp, #32
	pop	{r7, pc}
.Ltmp162:
.Lfunc_end13:
	.size	pipe_fops_ioctl, .Lfunc_end13-pipe_fops_ioctl
	.cfi_endproc
	.cantunwind
	.fnend
                                        @ -- End function
	.section	.text.pipe_fops_read,"ax",%progbits
	.p2align	3                               @ -- Begin function pipe_fops_read
	.type	pipe_fops_read,%function
	.code	16                              @ @pipe_fops_read
	.thumb_func
pipe_fops_read:
.Lfunc_begin14:
	.loc	1 141 0 is_stmt 1               @ rt-thread/components/drivers/src/pipe.c:141:0
	.fnstart
	.cfi_startproc
@ %bb.0:
	.save	{r7, lr}
	push	{r7, lr}
	.cfi_def_cfa_offset 8
	.cfi_offset lr, -4
	.cfi_offset r7, -8
	.pad	#32
	sub	sp, #32
	.cfi_def_cfa_offset 40
	str	r0, [sp, #24]
	str	r1, [sp, #20]
	str	r2, [sp, #16]
	movs	r0, #0
.Ltmp163:
	.loc	1 142 9 prologue_end            @ rt-thread/components/drivers/src/pipe.c:142:9
	str	r0, [sp, #12]
	.loc	1 145 25                        @ rt-thread/components/drivers/src/pipe.c:145:25
	ldr	r0, [sp, #24]
	.loc	1 145 29 is_stmt 0              @ rt-thread/components/drivers/src/pipe.c:145:29
	ldr	r0, [r0, #32]
	.loc	1 145 10                        @ rt-thread/components/drivers/src/pipe.c:145:10
	str	r0, [sp, #8]
.Ltmp164:
	.loc	1 148 9 is_stmt 1               @ rt-thread/components/drivers/src/pipe.c:148:9
	ldr	r0, [sp, #8]
	.loc	1 148 15 is_stmt 0              @ rt-thread/components/drivers/src/pipe.c:148:15
	ldrb.w	r0, [r0, #91]
.Ltmp165:
	.loc	1 148 9                         @ rt-thread/components/drivers/src/pipe.c:148:9
	cbnz	r0, .LBB14_2
	b	.LBB14_1
.LBB14_1:
	.loc	1 0 9                           @ rt-thread/components/drivers/src/pipe.c:0:9
	movs	r0, #0
.Ltmp166:
	.loc	1 149 9 is_stmt 1               @ rt-thread/components/drivers/src/pipe.c:149:9
	str	r0, [sp, #28]
	b	.LBB14_13
.Ltmp167:
.LBB14_2:
	.loc	1 151 21                        @ rt-thread/components/drivers/src/pipe.c:151:21
	ldr	r0, [sp, #8]
	.loc	1 151 27 is_stmt 0              @ rt-thread/components/drivers/src/pipe.c:151:27
	adds	r0, #116
	mov.w	r1, #-1
	.loc	1 151 5                         @ rt-thread/components/drivers/src/pipe.c:151:5
	bl	rt_mutex_take
	.loc	1 153 5 is_stmt 1               @ rt-thread/components/drivers/src/pipe.c:153:5
	b	.LBB14_3
.LBB14_3:                               @ =>This Inner Loop Header: Depth=1
.Ltmp168:
	.loc	1 155 13                        @ rt-thread/components/drivers/src/pipe.c:155:13
	ldr	r0, [sp, #8]
	.loc	1 155 19 is_stmt 0              @ rt-thread/components/drivers/src/pipe.c:155:19
	ldrb.w	r0, [r0, #91]
.Ltmp169:
	.loc	1 155 13                        @ rt-thread/components/drivers/src/pipe.c:155:13
	cbnz	r0, .LBB14_5
	b	.LBB14_4
.LBB14_4:
.Ltmp170:
	.loc	1 157 13 is_stmt 1              @ rt-thread/components/drivers/src/pipe.c:157:13
	b	.LBB14_12
.Ltmp171:
.LBB14_5:                               @   in Loop: Header=BB14_3 Depth=1
	.loc	1 160 33                        @ rt-thread/components/drivers/src/pipe.c:160:33
	ldr	r0, [sp, #8]
	.loc	1 160 39 is_stmt 0              @ rt-thread/components/drivers/src/pipe.c:160:39
	ldr	r0, [r0, #84]
	.loc	1 160 45                        @ rt-thread/components/drivers/src/pipe.c:160:45
	ldr	r1, [sp, #20]
	.loc	1 160 50                        @ rt-thread/components/drivers/src/pipe.c:160:50
	ldrh.w	r2, [sp, #16]
	.loc	1 160 15                        @ rt-thread/components/drivers/src/pipe.c:160:15
	bl	rt_ringbuffer_get
	.loc	1 160 13                        @ rt-thread/components/drivers/src/pipe.c:160:13
	str	r0, [sp, #12]
.Ltmp172:
	.loc	1 162 13 is_stmt 1              @ rt-thread/components/drivers/src/pipe.c:162:13
	ldr	r0, [sp, #12]
.Ltmp173:
	.loc	1 162 13 is_stmt 0              @ rt-thread/components/drivers/src/pipe.c:162:13
	cmp	r0, #1
	blt	.LBB14_7
	b	.LBB14_6
.LBB14_6:
.Ltmp174:
	.loc	1 164 13 is_stmt 1              @ rt-thread/components/drivers/src/pipe.c:164:13
	b	.LBB14_11
.Ltmp175:
.LBB14_7:                               @   in Loop: Header=BB14_3 Depth=1
	.loc	1 168 17                        @ rt-thread/components/drivers/src/pipe.c:168:17
	ldr	r0, [sp, #24]
.Ltmp176:
	.loc	1 168 17 is_stmt 0              @ rt-thread/components/drivers/src/pipe.c:168:17
	ldrb	r0, [r0, #21]
	lsls	r0, r0, #28
	cmp	r0, #0
	bpl	.LBB14_9
	b	.LBB14_8
.LBB14_8:
	.loc	1 0 17                          @ rt-thread/components/drivers/src/pipe.c:0:17
	mvn	r0, #10
.Ltmp177:
	.loc	1 170 21 is_stmt 1              @ rt-thread/components/drivers/src/pipe.c:170:21
	str	r0, [sp, #12]
	.loc	1 171 17                        @ rt-thread/components/drivers/src/pipe.c:171:17
	b	.LBB14_12
.Ltmp178:
.LBB14_9:                               @   in Loop: Header=BB14_3 Depth=1
	.loc	1 174 31                        @ rt-thread/components/drivers/src/pipe.c:174:31
	ldr	r0, [sp, #8]
	.loc	1 174 37 is_stmt 0              @ rt-thread/components/drivers/src/pipe.c:174:37
	adds	r0, #116
	.loc	1 174 13                        @ rt-thread/components/drivers/src/pipe.c:174:13
	bl	rt_mutex_release
	.loc	1 175 32 is_stmt 1              @ rt-thread/components/drivers/src/pipe.c:175:32
	ldr	r0, [sp, #8]
	.loc	1 175 38 is_stmt 0              @ rt-thread/components/drivers/src/pipe.c:175:38
	adds	r0, #104
	movs	r1, #2
	.loc	1 175 13                        @ rt-thread/components/drivers/src/pipe.c:175:13
	bl	rt_wqueue_wakeup
	.loc	1 176 30 is_stmt 1              @ rt-thread/components/drivers/src/pipe.c:176:30
	ldr	r0, [sp, #8]
	.loc	1 176 36 is_stmt 0              @ rt-thread/components/drivers/src/pipe.c:176:36
	adds	r0, #92
	movs	r1, #0
	mov.w	r2, #-1
	.loc	1 176 13                        @ rt-thread/components/drivers/src/pipe.c:176:13
	str	r2, [sp, #4]                    @ 4-byte Spill
	bl	rt_wqueue_wait
	ldr	r1, [sp, #4]                    @ 4-byte Reload
	.loc	1 177 29 is_stmt 1              @ rt-thread/components/drivers/src/pipe.c:177:29
	ldr	r0, [sp, #8]
	.loc	1 177 35 is_stmt 0              @ rt-thread/components/drivers/src/pipe.c:177:35
	adds	r0, #116
	.loc	1 177 13                        @ rt-thread/components/drivers/src/pipe.c:177:13
	bl	rt_mutex_take
	b	.LBB14_10
.Ltmp179:
.LBB14_10:                              @   in Loop: Header=BB14_3 Depth=1
	.loc	1 153 5 is_stmt 1               @ rt-thread/components/drivers/src/pipe.c:153:5
	b	.LBB14_3
.LBB14_11:
	.loc	1 182 24                        @ rt-thread/components/drivers/src/pipe.c:182:24
	ldr	r0, [sp, #8]
	.loc	1 182 30 is_stmt 0              @ rt-thread/components/drivers/src/pipe.c:182:30
	adds	r0, #104
	movs	r1, #2
	.loc	1 182 5                         @ rt-thread/components/drivers/src/pipe.c:182:5
	bl	rt_wqueue_wakeup
	b	.LBB14_12
.LBB14_12:
.Ltmp180:
	@DEBUG_LABEL: pipe_fops_read:out
	.loc	1 185 23 is_stmt 1              @ rt-thread/components/drivers/src/pipe.c:185:23
	ldr	r0, [sp, #8]
	.loc	1 185 29 is_stmt 0              @ rt-thread/components/drivers/src/pipe.c:185:29
	adds	r0, #116
	.loc	1 185 5                         @ rt-thread/components/drivers/src/pipe.c:185:5
	bl	rt_mutex_release
	.loc	1 186 12 is_stmt 1              @ rt-thread/components/drivers/src/pipe.c:186:12
	ldr	r0, [sp, #12]
	.loc	1 186 5 is_stmt 0               @ rt-thread/components/drivers/src/pipe.c:186:5
	str	r0, [sp, #28]
	b	.LBB14_13
.LBB14_13:
	.loc	1 187 1 is_stmt 1               @ rt-thread/components/drivers/src/pipe.c:187:1
	ldr	r0, [sp, #28]
	add	sp, #32
	pop	{r7, pc}
.Ltmp181:
.Lfunc_end14:
	.size	pipe_fops_read, .Lfunc_end14-pipe_fops_read
	.cfi_endproc
	.cantunwind
	.fnend
                                        @ -- End function
	.section	.text.pipe_fops_write,"ax",%progbits
	.p2align	3                               @ -- Begin function pipe_fops_write
	.type	pipe_fops_write,%function
	.code	16                              @ @pipe_fops_write
	.thumb_func
pipe_fops_write:
.Lfunc_begin15:
	.loc	1 190 0                         @ rt-thread/components/drivers/src/pipe.c:190:0
	.fnstart
	.cfi_startproc
@ %bb.0:
	.save	{r7, lr}
	push	{r7, lr}
	.cfi_def_cfa_offset 8
	.cfi_offset lr, -4
	.cfi_offset r7, -8
	.pad	#40
	sub	sp, #40
	.cfi_def_cfa_offset 48
	str	r0, [sp, #32]
	str	r1, [sp, #28]
	str	r2, [sp, #24]
	movs	r0, #0
.Ltmp182:
	.loc	1 193 9 prologue_end            @ rt-thread/components/drivers/src/pipe.c:193:9
	str	r0, [sp, #12]
	.loc	1 194 9                         @ rt-thread/components/drivers/src/pipe.c:194:9
	str	r0, [sp, #8]
	.loc	1 197 25                        @ rt-thread/components/drivers/src/pipe.c:197:25
	ldr	r0, [sp, #32]
	.loc	1 197 29 is_stmt 0              @ rt-thread/components/drivers/src/pipe.c:197:29
	ldr	r0, [r0, #32]
	.loc	1 197 10                        @ rt-thread/components/drivers/src/pipe.c:197:10
	str	r0, [sp, #16]
.Ltmp183:
	.loc	1 199 9 is_stmt 1               @ rt-thread/components/drivers/src/pipe.c:199:9
	ldr	r0, [sp, #16]
	.loc	1 199 15 is_stmt 0              @ rt-thread/components/drivers/src/pipe.c:199:15
	ldrb.w	r0, [r0, #90]
.Ltmp184:
	.loc	1 199 9                         @ rt-thread/components/drivers/src/pipe.c:199:9
	cbnz	r0, .LBB15_2
	b	.LBB15_1
.LBB15_1:
	.loc	1 0 9                           @ rt-thread/components/drivers/src/pipe.c:0:9
	mvn	r0, #31
.Ltmp185:
	.loc	1 201 13 is_stmt 1              @ rt-thread/components/drivers/src/pipe.c:201:13
	str	r0, [sp, #8]
	.loc	1 202 9                         @ rt-thread/components/drivers/src/pipe.c:202:9
	b	.LBB15_20
.Ltmp186:
.LBB15_2:
	.loc	1 205 9                         @ rt-thread/components/drivers/src/pipe.c:205:9
	ldr	r0, [sp, #24]
.Ltmp187:
	.loc	1 205 9 is_stmt 0               @ rt-thread/components/drivers/src/pipe.c:205:9
	cbnz	r0, .LBB15_4
	b	.LBB15_3
.LBB15_3:
	.loc	1 0 9                           @ rt-thread/components/drivers/src/pipe.c:0:9
	movs	r0, #0
.Ltmp188:
	.loc	1 206 9 is_stmt 1               @ rt-thread/components/drivers/src/pipe.c:206:9
	str	r0, [sp, #36]
	b	.LBB15_21
.Ltmp189:
.LBB15_4:
	.loc	1 208 22                        @ rt-thread/components/drivers/src/pipe.c:208:22
	ldr	r0, [sp, #28]
	.loc	1 208 10 is_stmt 0              @ rt-thread/components/drivers/src/pipe.c:208:10
	str	r0, [sp, #4]
	.loc	1 209 20 is_stmt 1              @ rt-thread/components/drivers/src/pipe.c:209:20
	ldr	r0, [sp, #16]
	.loc	1 209 26 is_stmt 0              @ rt-thread/components/drivers/src/pipe.c:209:26
	adds	r0, #116
	mov.w	r1, #-1
	.loc	1 209 5                         @ rt-thread/components/drivers/src/pipe.c:209:5
	bl	rt_mutex_take
	.loc	1 211 5 is_stmt 1               @ rt-thread/components/drivers/src/pipe.c:211:5
	b	.LBB15_5
.LBB15_5:                               @ =>This Inner Loop Header: Depth=1
.Ltmp190:
	.loc	1 213 13                        @ rt-thread/components/drivers/src/pipe.c:213:13
	ldr	r0, [sp, #16]
	.loc	1 213 19 is_stmt 0              @ rt-thread/components/drivers/src/pipe.c:213:19
	ldrb.w	r0, [r0, #90]
.Ltmp191:
	.loc	1 213 13                        @ rt-thread/components/drivers/src/pipe.c:213:13
	cbnz	r0, .LBB15_9
	b	.LBB15_6
.LBB15_6:
.Ltmp192:
	.loc	1 215 17 is_stmt 1              @ rt-thread/components/drivers/src/pipe.c:215:17
	ldr	r0, [sp, #8]
.Ltmp193:
	.loc	1 215 17 is_stmt 0              @ rt-thread/components/drivers/src/pipe.c:215:17
	cbnz	r0, .LBB15_8
	b	.LBB15_7
.LBB15_7:
	.loc	1 0 17                          @ rt-thread/components/drivers/src/pipe.c:0:17
	mvn	r0, #31
.Ltmp194:
	.loc	1 216 21 is_stmt 1              @ rt-thread/components/drivers/src/pipe.c:216:21
	str	r0, [sp, #8]
	.loc	1 216 17 is_stmt 0              @ rt-thread/components/drivers/src/pipe.c:216:17
	b	.LBB15_8
.Ltmp195:
.LBB15_8:
	.loc	1 217 13 is_stmt 1              @ rt-thread/components/drivers/src/pipe.c:217:13
	b	.LBB15_17
.Ltmp196:
.LBB15_9:                               @   in Loop: Header=BB15_5 Depth=1
	.loc	1 220 33                        @ rt-thread/components/drivers/src/pipe.c:220:33
	ldr	r0, [sp, #16]
	.loc	1 220 39 is_stmt 0              @ rt-thread/components/drivers/src/pipe.c:220:39
	ldr	r0, [r0, #84]
	.loc	1 220 45                        @ rt-thread/components/drivers/src/pipe.c:220:45
	ldr	r1, [sp, #4]
	.loc	1 220 51                        @ rt-thread/components/drivers/src/pipe.c:220:51
	ldr	r2, [sp, #24]
	.loc	1 220 59                        @ rt-thread/components/drivers/src/pipe.c:220:59
	ldr	r3, [sp, #8]
	.loc	1 220 57                        @ rt-thread/components/drivers/src/pipe.c:220:57
	subs	r2, r2, r3
	.loc	1 220 15                        @ rt-thread/components/drivers/src/pipe.c:220:15
	uxth	r2, r2
	bl	rt_ringbuffer_put
	.loc	1 220 13                        @ rt-thread/components/drivers/src/pipe.c:220:13
	str	r0, [sp, #20]
	.loc	1 221 17 is_stmt 1              @ rt-thread/components/drivers/src/pipe.c:221:17
	ldr	r1, [sp, #20]
	.loc	1 221 13 is_stmt 0              @ rt-thread/components/drivers/src/pipe.c:221:13
	ldr	r0, [sp, #8]
	add	r0, r1
	str	r0, [sp, #8]
	.loc	1 222 17 is_stmt 1              @ rt-thread/components/drivers/src/pipe.c:222:17
	ldr	r1, [sp, #20]
	.loc	1 222 14 is_stmt 0              @ rt-thread/components/drivers/src/pipe.c:222:14
	ldr	r0, [sp, #4]
	add	r0, r1
	str	r0, [sp, #4]
	movs	r0, #1
	.loc	1 223 16 is_stmt 1              @ rt-thread/components/drivers/src/pipe.c:223:16
	str	r0, [sp, #12]
.Ltmp197:
	.loc	1 225 13                        @ rt-thread/components/drivers/src/pipe.c:225:13
	ldr	r0, [sp, #8]
	.loc	1 225 20 is_stmt 0              @ rt-thread/components/drivers/src/pipe.c:225:20
	ldr	r1, [sp, #24]
.Ltmp198:
	.loc	1 225 13                        @ rt-thread/components/drivers/src/pipe.c:225:13
	cmp	r0, r1
	bne	.LBB15_11
	b	.LBB15_10
.LBB15_10:
.Ltmp199:
	.loc	1 227 13 is_stmt 1              @ rt-thread/components/drivers/src/pipe.c:227:13
	b	.LBB15_17
.Ltmp200:
.LBB15_11:                              @   in Loop: Header=BB15_5 Depth=1
	.loc	1 231 17                        @ rt-thread/components/drivers/src/pipe.c:231:17
	ldr	r0, [sp, #32]
.Ltmp201:
	.loc	1 231 17 is_stmt 0              @ rt-thread/components/drivers/src/pipe.c:231:17
	ldrb	r0, [r0, #21]
	lsls	r0, r0, #28
	cmp	r0, #0
	bpl	.LBB15_15
	b	.LBB15_12
.LBB15_12:
.Ltmp202:
	.loc	1 233 21 is_stmt 1              @ rt-thread/components/drivers/src/pipe.c:233:21
	ldr	r0, [sp, #8]
.Ltmp203:
	.loc	1 233 21 is_stmt 0              @ rt-thread/components/drivers/src/pipe.c:233:21
	cbnz	r0, .LBB15_14
	b	.LBB15_13
.LBB15_13:
	.loc	1 0 21                          @ rt-thread/components/drivers/src/pipe.c:0:21
	mvn	r0, #10
.Ltmp204:
	.loc	1 235 25 is_stmt 1              @ rt-thread/components/drivers/src/pipe.c:235:25
	str	r0, [sp, #8]
	.loc	1 236 17                        @ rt-thread/components/drivers/src/pipe.c:236:17
	b	.LBB15_14
.Ltmp205:
.LBB15_14:
	.loc	1 238 17                        @ rt-thread/components/drivers/src/pipe.c:238:17
	b	.LBB15_17
.Ltmp206:
.LBB15_15:                              @   in Loop: Header=BB15_5 Depth=1
	.loc	1 0 17 is_stmt 0                @ rt-thread/components/drivers/src/pipe.c:0:17
	b	.LBB15_16
.LBB15_16:                              @   in Loop: Header=BB15_5 Depth=1
	.loc	1 242 27 is_stmt 1              @ rt-thread/components/drivers/src/pipe.c:242:27
	ldr	r0, [sp, #16]
	.loc	1 242 33 is_stmt 0              @ rt-thread/components/drivers/src/pipe.c:242:33
	adds	r0, #116
	.loc	1 242 9                         @ rt-thread/components/drivers/src/pipe.c:242:9
	bl	rt_mutex_release
	.loc	1 243 28 is_stmt 1              @ rt-thread/components/drivers/src/pipe.c:243:28
	ldr	r0, [sp, #16]
	.loc	1 243 34 is_stmt 0              @ rt-thread/components/drivers/src/pipe.c:243:34
	adds	r0, #92
	movs	r1, #1
	.loc	1 243 9                         @ rt-thread/components/drivers/src/pipe.c:243:9
	bl	rt_wqueue_wakeup
	.loc	1 245 26 is_stmt 1              @ rt-thread/components/drivers/src/pipe.c:245:26
	ldr	r0, [sp, #16]
	.loc	1 245 32 is_stmt 0              @ rt-thread/components/drivers/src/pipe.c:245:32
	adds	r0, #104
	movs	r1, #0
	mov.w	r2, #-1
	.loc	1 245 9                         @ rt-thread/components/drivers/src/pipe.c:245:9
	str	r2, [sp]                        @ 4-byte Spill
	bl	rt_wqueue_wait
	ldr	r1, [sp]                        @ 4-byte Reload
	.loc	1 246 24 is_stmt 1              @ rt-thread/components/drivers/src/pipe.c:246:24
	ldr	r0, [sp, #16]
	.loc	1 246 30 is_stmt 0              @ rt-thread/components/drivers/src/pipe.c:246:30
	adds	r0, #116
	.loc	1 246 9                         @ rt-thread/components/drivers/src/pipe.c:246:9
	bl	rt_mutex_take
.Ltmp207:
	.loc	1 211 5 is_stmt 1               @ rt-thread/components/drivers/src/pipe.c:211:5
	b	.LBB15_5
.LBB15_17:
	.loc	1 248 23                        @ rt-thread/components/drivers/src/pipe.c:248:23
	ldr	r0, [sp, #16]
	.loc	1 248 29 is_stmt 0              @ rt-thread/components/drivers/src/pipe.c:248:29
	adds	r0, #116
	.loc	1 248 5                         @ rt-thread/components/drivers/src/pipe.c:248:5
	bl	rt_mutex_release
.Ltmp208:
	.loc	1 250 9 is_stmt 1               @ rt-thread/components/drivers/src/pipe.c:250:9
	ldr	r0, [sp, #12]
.Ltmp209:
	.loc	1 250 9 is_stmt 0               @ rt-thread/components/drivers/src/pipe.c:250:9
	cbz	r0, .LBB15_19
	b	.LBB15_18
.LBB15_18:
.Ltmp210:
	.loc	1 252 28 is_stmt 1              @ rt-thread/components/drivers/src/pipe.c:252:28
	ldr	r0, [sp, #16]
	.loc	1 252 34 is_stmt 0              @ rt-thread/components/drivers/src/pipe.c:252:34
	adds	r0, #92
	movs	r1, #1
	.loc	1 252 9                         @ rt-thread/components/drivers/src/pipe.c:252:9
	bl	rt_wqueue_wakeup
	.loc	1 253 5 is_stmt 1               @ rt-thread/components/drivers/src/pipe.c:253:5
	b	.LBB15_19
.Ltmp211:
.LBB15_19:
	.loc	1 250 9                         @ rt-thread/components/drivers/src/pipe.c:250:9
	b	.LBB15_20
.Ltmp212:
.LBB15_20:
	@DEBUG_LABEL: pipe_fops_write:out
	.loc	1 256 12                        @ rt-thread/components/drivers/src/pipe.c:256:12
	ldr	r0, [sp, #8]
	.loc	1 256 5 is_stmt 0               @ rt-thread/components/drivers/src/pipe.c:256:5
	str	r0, [sp, #36]
	b	.LBB15_21
.LBB15_21:
	.loc	1 257 1 is_stmt 1               @ rt-thread/components/drivers/src/pipe.c:257:1
	ldr	r0, [sp, #36]
	add	sp, #40
	pop	{r7, pc}
.Ltmp213:
.Lfunc_end15:
	.size	pipe_fops_write, .Lfunc_end15-pipe_fops_write
	.cfi_endproc
	.cantunwind
	.fnend
                                        @ -- End function
	.section	.text.pipe_fops_poll,"ax",%progbits
	.p2align	3                               @ -- Begin function pipe_fops_poll
	.type	pipe_fops_poll,%function
	.code	16                              @ @pipe_fops_poll
	.thumb_func
pipe_fops_poll:
.Lfunc_begin16:
	.loc	1 260 0                         @ rt-thread/components/drivers/src/pipe.c:260:0
	.fnstart
	.cfi_startproc
@ %bb.0:
	.save	{r7, lr}
	push	{r7, lr}
	.cfi_def_cfa_offset 8
	.cfi_offset lr, -4
	.cfi_offset r7, -8
	.pad	#32
	sub	sp, #32
	.cfi_def_cfa_offset 40
	str	r0, [sp, #28]
	str	r1, [sp, #24]
	movs	r0, #0
.Ltmp214:
	.loc	1 261 9 prologue_end            @ rt-thread/components/drivers/src/pipe.c:261:9
	str	r0, [sp, #20]
	.loc	1 263 9                         @ rt-thread/components/drivers/src/pipe.c:263:9
	str	r0, [sp, #12]
	.loc	1 264 25                        @ rt-thread/components/drivers/src/pipe.c:264:25
	ldr	r0, [sp, #28]
	.loc	1 264 29 is_stmt 0              @ rt-thread/components/drivers/src/pipe.c:264:29
	ldr	r0, [r0, #32]
	.loc	1 264 10                        @ rt-thread/components/drivers/src/pipe.c:264:10
	str	r0, [sp, #16]
	.loc	1 266 19 is_stmt 1              @ rt-thread/components/drivers/src/pipe.c:266:19
	ldr	r0, [sp, #16]
	.loc	1 266 25 is_stmt 0              @ rt-thread/components/drivers/src/pipe.c:266:25
	adds	r0, #92
	.loc	1 266 40                        @ rt-thread/components/drivers/src/pipe.c:266:40
	ldr	r1, [sp, #24]
	.loc	1 266 5                         @ rt-thread/components/drivers/src/pipe.c:266:5
	bl	rt_poll_add
	.loc	1 267 19 is_stmt 1              @ rt-thread/components/drivers/src/pipe.c:267:19
	ldr	r0, [sp, #16]
	.loc	1 267 25 is_stmt 0              @ rt-thread/components/drivers/src/pipe.c:267:25
	adds	r0, #104
	.loc	1 267 40                        @ rt-thread/components/drivers/src/pipe.c:267:40
	ldr	r1, [sp, #24]
	.loc	1 267 5                         @ rt-thread/components/drivers/src/pipe.c:267:5
	bl	rt_poll_add
	.loc	1 269 13 is_stmt 1              @ rt-thread/components/drivers/src/pipe.c:269:13
	ldr	r0, [sp, #28]
	.loc	1 269 17 is_stmt 0              @ rt-thread/components/drivers/src/pipe.c:269:17
	ldr	r0, [r0, #20]
	movs	r1, #3
	movt	r1, #32
	.loc	1 269 23                        @ rt-thread/components/drivers/src/pipe.c:269:23
	ands	r0, r1
	.loc	1 269 5                         @ rt-thread/components/drivers/src/pipe.c:269:5
	mov	r1, r0
	str	r1, [sp, #8]                    @ 4-byte Spill
	cbz	r0, .LBB16_3
	b	.LBB16_1
.LBB16_1:
	ldr	r0, [sp, #8]                    @ 4-byte Reload
	cmp	r0, #1
	beq	.LBB16_4
	b	.LBB16_2
.LBB16_2:
	ldr	r0, [sp, #8]                    @ 4-byte Reload
	cmp	r0, #2
	beq	.LBB16_5
	b	.LBB16_6
.LBB16_3:
	.loc	1 0 5                           @ rt-thread/components/drivers/src/pipe.c:0:5
	movs	r0, #1
.Ltmp215:
	.loc	1 272 14 is_stmt 1              @ rt-thread/components/drivers/src/pipe.c:272:14
	str	r0, [sp, #12]
	.loc	1 273 9                         @ rt-thread/components/drivers/src/pipe.c:273:9
	b	.LBB16_6
.LBB16_4:
	.loc	1 0 9 is_stmt 0                 @ rt-thread/components/drivers/src/pipe.c:0:9
	movs	r0, #2
	.loc	1 275 14 is_stmt 1              @ rt-thread/components/drivers/src/pipe.c:275:14
	str	r0, [sp, #12]
	.loc	1 276 9                         @ rt-thread/components/drivers/src/pipe.c:276:9
	b	.LBB16_6
.LBB16_5:
	.loc	1 0 9 is_stmt 0                 @ rt-thread/components/drivers/src/pipe.c:0:9
	movs	r0, #3
	.loc	1 278 14 is_stmt 1              @ rt-thread/components/drivers/src/pipe.c:278:14
	str	r0, [sp, #12]
	.loc	1 279 9                         @ rt-thread/components/drivers/src/pipe.c:279:9
	b	.LBB16_6
.Ltmp216:
.LBB16_6:
	.loc	1 282 9                         @ rt-thread/components/drivers/src/pipe.c:282:9
	ldrb.w	r0, [sp, #12]
	lsls	r0, r0, #31
	cbz	r0, .LBB16_12
	b	.LBB16_7
.LBB16_7:
.Ltmp217:
	.loc	1 284 36                        @ rt-thread/components/drivers/src/pipe.c:284:36
	ldr	r0, [sp, #16]
	.loc	1 284 42 is_stmt 0              @ rt-thread/components/drivers/src/pipe.c:284:42
	ldr	r0, [r0, #84]
	.loc	1 284 13                        @ rt-thread/components/drivers/src/pipe.c:284:13
	bl	rt_ringbuffer_data_len
.Ltmp218:
	.loc	1 284 13                        @ rt-thread/components/drivers/src/pipe.c:284:13
	cbz	r0, .LBB16_9
	b	.LBB16_8
.LBB16_8:
.Ltmp219:
	.loc	1 286 18 is_stmt 1              @ rt-thread/components/drivers/src/pipe.c:286:18
	ldr	r0, [sp, #20]
	orr	r0, r0, #1
	str	r0, [sp, #20]
	.loc	1 287 9                         @ rt-thread/components/drivers/src/pipe.c:287:9
	b	.LBB16_9
.Ltmp220:
.LBB16_9:
	.loc	1 288 13                        @ rt-thread/components/drivers/src/pipe.c:288:13
	ldr	r0, [sp, #16]
	.loc	1 288 19 is_stmt 0              @ rt-thread/components/drivers/src/pipe.c:288:19
	ldrb.w	r0, [r0, #91]
.Ltmp221:
	.loc	1 288 13                        @ rt-thread/components/drivers/src/pipe.c:288:13
	cbnz	r0, .LBB16_11
	b	.LBB16_10
.LBB16_10:
.Ltmp222:
	.loc	1 290 18 is_stmt 1              @ rt-thread/components/drivers/src/pipe.c:290:18
	ldr	r0, [sp, #20]
	orr	r0, r0, #8
	str	r0, [sp, #20]
	.loc	1 291 9                         @ rt-thread/components/drivers/src/pipe.c:291:9
	b	.LBB16_11
.Ltmp223:
.LBB16_11:
	.loc	1 292 5                         @ rt-thread/components/drivers/src/pipe.c:292:5
	b	.LBB16_12
.Ltmp224:
.LBB16_12:
	.loc	1 294 9                         @ rt-thread/components/drivers/src/pipe.c:294:9
	ldrb.w	r0, [sp, #12]
	lsls	r0, r0, #30
	cmp	r0, #0
	bpl	.LBB16_18
	b	.LBB16_13
.LBB16_13:
.Ltmp225:
	.loc	1 296 13                        @ rt-thread/components/drivers/src/pipe.c:296:13
	ldr	r0, [sp, #16]
	ldr	r0, [r0, #84]
	ldrsh.w	r1, [r0, #8]
	str	r1, [sp, #4]                    @ 4-byte Spill
	bl	rt_ringbuffer_data_len
	mov	r1, r0
	ldr	r0, [sp, #4]                    @ 4-byte Reload
	subs	r0, r0, r1
.Ltmp226:
	.loc	1 296 13 is_stmt 0              @ rt-thread/components/drivers/src/pipe.c:296:13
	cbz	r0, .LBB16_15
	b	.LBB16_14
.LBB16_14:
.Ltmp227:
	.loc	1 298 18 is_stmt 1              @ rt-thread/components/drivers/src/pipe.c:298:18
	ldr	r0, [sp, #20]
	orr	r0, r0, #2
	str	r0, [sp, #20]
	.loc	1 299 9                         @ rt-thread/components/drivers/src/pipe.c:299:9
	b	.LBB16_15
.Ltmp228:
.LBB16_15:
	.loc	1 300 13                        @ rt-thread/components/drivers/src/pipe.c:300:13
	ldr	r0, [sp, #16]
	.loc	1 300 19 is_stmt 0              @ rt-thread/components/drivers/src/pipe.c:300:19
	ldrb.w	r0, [r0, #90]
.Ltmp229:
	.loc	1 300 13                        @ rt-thread/components/drivers/src/pipe.c:300:13
	cbnz	r0, .LBB16_17
	b	.LBB16_16
.LBB16_16:
.Ltmp230:
	.loc	1 302 18 is_stmt 1              @ rt-thread/components/drivers/src/pipe.c:302:18
	ldr	r0, [sp, #20]
	orr	r0, r0, #4
	str	r0, [sp, #20]
	.loc	1 303 9                         @ rt-thread/components/drivers/src/pipe.c:303:9
	b	.LBB16_17
.Ltmp231:
.LBB16_17:
	.loc	1 304 5                         @ rt-thread/components/drivers/src/pipe.c:304:5
	b	.LBB16_18
.Ltmp232:
.LBB16_18:
	.loc	1 306 12                        @ rt-thread/components/drivers/src/pipe.c:306:12
	ldr	r0, [sp, #20]
	.loc	1 306 5 is_stmt 0               @ rt-thread/components/drivers/src/pipe.c:306:5
	add	sp, #32
	pop	{r7, pc}
.Ltmp233:
.Lfunc_end16:
	.size	pipe_fops_poll, .Lfunc_end16-pipe_fops_poll
	.cfi_endproc
	.cantunwind
	.fnend
                                        @ -- End function
	.section	.text.rt_poll_add,"ax",%progbits
	.p2align	3                               @ -- Begin function rt_poll_add
	.type	rt_poll_add,%function
	.code	16                              @ @rt_poll_add
	.thumb_func
rt_poll_add:
.Lfunc_begin17:
	.loc	10 28 0 is_stmt 1               @ rt-thread/components/drivers/include/ipc/poll.h:28:0
	.fnstart
	.cfi_startproc
@ %bb.0:
	.save	{r7, lr}
	push	{r7, lr}
	.cfi_def_cfa_offset 8
	.cfi_offset lr, -4
	.cfi_offset r7, -8
	.pad	#8
	sub	sp, #8
	.cfi_def_cfa_offset 16
	str	r0, [sp, #4]
	str	r1, [sp]
.Ltmp234:
	.loc	10 29 9 prologue_end            @ rt-thread/components/drivers/include/ipc/poll.h:29:9
	ldr	r0, [sp]
	.loc	10 29 13 is_stmt 0              @ rt-thread/components/drivers/include/ipc/poll.h:29:13
	cbz	r0, .LBB17_4
	b	.LBB17_1
.LBB17_1:
	.loc	10 29 16                        @ rt-thread/components/drivers/include/ipc/poll.h:29:16
	ldr	r0, [sp]
	.loc	10 29 21                        @ rt-thread/components/drivers/include/ipc/poll.h:29:21
	ldr	r0, [r0]
	.loc	10 29 27                        @ rt-thread/components/drivers/include/ipc/poll.h:29:27
	cbz	r0, .LBB17_4
	b	.LBB17_2
.LBB17_2:
	.loc	10 29 30                        @ rt-thread/components/drivers/include/ipc/poll.h:29:30
	ldr	r0, [sp, #4]
.Ltmp235:
	.loc	10 29 9                         @ rt-thread/components/drivers/include/ipc/poll.h:29:9
	cbz	r0, .LBB17_4
	b	.LBB17_3
.LBB17_3:
.Ltmp236:
	.loc	10 31 9 is_stmt 1               @ rt-thread/components/drivers/include/ipc/poll.h:31:9
	ldr	r1, [sp]
	.loc	10 31 14 is_stmt 0              @ rt-thread/components/drivers/include/ipc/poll.h:31:14
	ldr	r2, [r1]
	.loc	10 31 20                        @ rt-thread/components/drivers/include/ipc/poll.h:31:20
	ldr	r0, [sp, #4]
	.loc	10 31 9                         @ rt-thread/components/drivers/include/ipc/poll.h:31:9
	blx	r2
	.loc	10 32 5 is_stmt 1               @ rt-thread/components/drivers/include/ipc/poll.h:32:5
	b	.LBB17_4
.Ltmp237:
.LBB17_4:
	.loc	10 33 1                         @ rt-thread/components/drivers/include/ipc/poll.h:33:1
	add	sp, #8
	pop	{r7, pc}
.Ltmp238:
.Lfunc_end17:
	.size	rt_poll_add, .Lfunc_end17-rt_poll_add
	.cfi_endproc
	.cantunwind
	.fnend
                                        @ -- End function
	.type	.L.str,%object                  @ @.str
	.section	.rodata.str1.1,"aMS",%progbits,1
.L.str:
	.asciz	"bufsz < 0xFFFF"
	.size	.L.str, 15

	.type	.L__FUNCTION__.rt_pipe_create,%object @ @__FUNCTION__.rt_pipe_create
.L__FUNCTION__.rt_pipe_create:
	.asciz	"rt_pipe_create"
	.size	.L__FUNCTION__.rt_pipe_create, 15

	.type	pipe_fops,%object               @ @pipe_fops
	.section	.rodata.pipe_fops,"a",%progbits
	.p2align	2
pipe_fops:
	.long	pipe_fops_open
	.long	pipe_fops_close
	.long	pipe_fops_ioctl
	.long	pipe_fops_read
	.long	pipe_fops_write
	.long	0
	.long	0
	.long	0
	.long	pipe_fops_poll
	.size	pipe_fops, 36

	.type	pipe.pipeno,%object             @ @pipe.pipeno
	.section	.bss.pipe.pipeno,"aw",%nobits
	.p2align	2
pipe.pipeno:
	.long	0                               @ 0x0
	.size	pipe.pipeno, 4

	.type	.L.str.1,%object                @ @.str.1
	.section	.rodata.str1.1,"aMS",%progbits,1
.L.str.1:
	.asciz	"pipe%d"
	.size	.L.str.1, 7

	.type	.L.str.2,%object                @ @.str.2
.L.str.2:
	.asciz	"/dev/%s"
	.size	.L.str.2, 8

	.type	.L.str.3,%object                @ @.str.3
.L.str.3:
	.asciz	"queue != RT_NULL"
	.size	.L.str.3, 17

	.type	.L__FUNCTION__.rt_wqueue_init,%object @ @__FUNCTION__.rt_wqueue_init
.L__FUNCTION__.rt_wqueue_init:
	.asciz	"rt_wqueue_init"
	.size	.L__FUNCTION__.rt_wqueue_init, 15

	.section	".note.GNU-stack","",%progbits
	.eabi_attribute	30, 6	@ Tag_ABI_optimization_goals
	.ARM_attribute	16, 1	@ Tag_AV_eba