	.text
	.syntax unified
	.eabi_attribute	67, "2.09"	@ Tag_conformance
	.cpu	cortex-m7
	.eabi_attribute	6, 13	@ Tag_CPU_arch
	.eabi_attribute	7, 77	@ Tag_CPU_arch_profile
	.eabi_attribute	8, 0	@ Tag_ARM_ISA_use
	.eabi_attribute	9, 2	@ Tag_THUMB_ISA_use
	.fpu	fpv5-d16
	.eabi_attribute	36, 1	@ Tag_FP_HP_extension
	.eabi_attribute	34, 1	@ Tag_CPU_unaligned_access
	.eabi_attribute	17, 1	@ Tag_ABI_PCS_GOT_use
	.eabi_attribute	20, 2	@ Tag_ABI_FP_denormal
	.eabi_attribute	21, 0	@ Tag_ABI_FP_exceptions
	.eabi_attribute	23, 1	@ Tag_ABI_FP_number_model
	.eabi_attribute	24, 1	@ Tag_ABI_align_needed
	.eabi_attribute	25, 1	@ Tag_ABI_align_preserved
	.eabi_attribute	28, 1	@ Tag_ABI_VFP_args
	.eabi_attribute	38, 1	@ Tag_ABI_FP_16bit_format
	.eabi_attribute	18, 2	@ Tag_ABI_PCS_wchar_t
	.eabi_attribute	26, 1	@ Tag_ABI_enum_size
	.eabi_attribute	14, 0	@ Tag_ABI_PCS_R9_use
	.file	"poll.c"
	.file	1 "E:\\STM32\\Learning\\STM32H750_ART_PI_RGBLCD" "rt-thread/include\\rtdef.h"
	.file	2 "E:\\STM32\\Learning\\STM32H750_ART_PI_RGBLCD" "rt-thread/components/drivers/include/ipc/waitqueue.h"
	.file	3 "E:\\STM32\\Learning\\STM32H750_ART_PI_RGBLCD" "rt-thread/components/dfs/src/poll.c"
	.file	4 "E:\\STM32\\Learning\\STM32H750_ART_PI_RGBLCD" "rt-thread/components/drivers/include/ipc/poll.h"
	.section	.text.poll,"ax",%progbits
	.hidden	poll                            @ -- Begin function poll
	.globl	poll
	.p2align	3
	.type	poll,%function
	.code	16                              @ @poll
	.thumb_func
poll:
.Lfunc_begin0:
	.loc	3 222 0                         @ rt-thread/components/dfs/src/poll.c:222:0
	.fnstart
	.cfi_sections .debug_frame
	.cfi_startproc
@ %bb.0:
	.save	{r7, lr}
	push	{r7, lr}
	.cfi_def_cfa_offset 8
	.cfi_offset lr, -4
	.cfi_offset r7, -8
	.pad	#40
	sub	sp, #40
	.cfi_def_cfa_offset 48
	str	r0, [sp, #36]
	str	r1, [sp, #32]
	str	r2, [sp, #28]
	add	r0, sp, #4
.Ltmp0:
	.loc	3 226 5 prologue_end            @ rt-thread/components/dfs/src/poll.c:226:5
	str	r0, [sp]                        @ 4-byte Spill
	bl	poll_table_init
	ldr	r2, [sp]                        @ 4-byte Reload
	.loc	3 228 19                        @ rt-thread/components/dfs/src/poll.c:228:19
	ldr	r0, [sp, #36]
	.loc	3 228 24 is_stmt 0              @ rt-thread/components/dfs/src/poll.c:228:24
	ldr	r1, [sp, #32]
	.loc	3 228 38                        @ rt-thread/components/dfs/src/poll.c:228:38
	ldr	r3, [sp, #28]
	.loc	3 228 11                        @ rt-thread/components/dfs/src/poll.c:228:11
	bl	poll_do
	mov	r1, r0
	.loc	3 228 9                         @ rt-thread/components/dfs/src/poll.c:228:9
	ldr	r0, [sp]                        @ 4-byte Reload
	str	r1, [sp, #24]
	.loc	3 230 5 is_stmt 1               @ rt-thread/components/dfs/src/poll.c:230:5
	bl	poll_teardown
	.loc	3 232 12                        @ rt-thread/components/dfs/src/poll.c:232:12
	ldr	r0, [sp, #24]
	.loc	3 232 5 is_stmt 0               @ rt-thread/components/dfs/src/poll.c:232:5
	add	sp, #40
	pop	{r7, pc}
.Ltmp1:
.Lfunc_end0:
	.size	poll, .Lfunc_end0-poll
	.cfi_endproc
	.cantunwind
	.fnend
                                        @ -- End function
	.section	.text.poll_table_init,"ax",%progbits
	.p2align	3                               @ -- Begin function poll_table_init
	.type	poll_table_init,%function
	.code	16                              @ @poll_table_init
	.thumb_func
poll_table_init:
.Lfunc_begin1:
	.loc	3 76 0 is_stmt 1                @ rt-thread/components/dfs/src/poll.c:76:0
	.fnstart
	.cfi_startproc
@ %bb.0:
	.save	{r7, lr}
	push	{r7, lr}
	.cfi_def_cfa_offset 8
	.cfi_offset lr, -4
	.cfi_offset r7, -8
	.pad	#8
	sub	sp, #8
	.cfi_def_cfa_offset 16
	str	r0, [sp, #4]
.Ltmp2:
	.loc	3 77 5 prologue_end             @ rt-thread/components/dfs/src/poll.c:77:5
	ldr	r1, [sp, #4]
	.loc	3 77 19 is_stmt 0               @ rt-thread/components/dfs/src/poll.c:77:19
	movw	r0, :lower16:_poll_add
	movt	r0, :upper16:_poll_add
	str	r0, [r1]
	.loc	3 78 5 is_stmt 1                @ rt-thread/components/dfs/src/poll.c:78:5
	ldr	r1, [sp, #4]
	movs	r0, #0
	.loc	3 78 19 is_stmt 0               @ rt-thread/components/dfs/src/poll.c:78:19
	str	r0, [r1, #8]
	.loc	3 79 5 is_stmt 1                @ rt-thread/components/dfs/src/poll.c:79:5
	ldr	r1, [sp, #4]
	.loc	3 79 15 is_stmt 0               @ rt-thread/components/dfs/src/poll.c:79:15
	str	r0, [r1, #16]
	.loc	3 80 26 is_stmt 1               @ rt-thread/components/dfs/src/poll.c:80:26
	bl	rt_thread_self
	.loc	3 80 5 is_stmt 0                @ rt-thread/components/dfs/src/poll.c:80:5
	ldr	r1, [sp, #4]
	.loc	3 80 24                         @ rt-thread/components/dfs/src/poll.c:80:24
	str	r0, [r1, #12]
	.loc	3 81 1 is_stmt 1                @ rt-thread/components/dfs/src/poll.c:81:1
	add	sp, #8
	pop	{r7, pc}
.Ltmp3:
.Lfunc_end1:
	.size	poll_table_init, .Lfunc_end1-poll_table_init
	.cfi_endproc
	.cantunwind
	.fnend
                                        @ -- End function
	.section	.text.poll_do,"ax",%progbits
	.p2align	3                               @ -- Begin function poll_do
	.type	poll_do,%function
	.code	16                              @ @poll_do
	.thumb_func
poll_do:
.Lfunc_begin2:
	.loc	3 160 0                         @ rt-thread/components/dfs/src/poll.c:160:0
	.fnstart
	.cfi_startproc
@ %bb.0:
	.save	{r7, lr}
	push	{r7, lr}
	.cfi_def_cfa_offset 8
	.cfi_offset lr, -4
	.cfi_offset r7, -8
	.pad	#40
	sub	sp, #40
	.cfi_def_cfa_offset 48
	str	r0, [sp, #32]
	str	r1, [sp, #28]
	str	r2, [sp, #24]
	str	r3, [sp, #20]
	movs	r0, #0
.Ltmp4:
	.loc	3 162 9 prologue_end            @ rt-thread/components/dfs/src/poll.c:162:9
	str	r0, [sp, #12]
	.loc	3 165 10                        @ rt-thread/components/dfs/src/poll.c:165:10
	str	r0, [sp]
.Ltmp5:
	.loc	3 167 9                         @ rt-thread/components/dfs/src/poll.c:167:9
	ldr	r0, [sp, #20]
.Ltmp6:
	.loc	3 167 9 is_stmt 0               @ rt-thread/components/dfs/src/poll.c:167:9
	cbnz	r0, .LBB2_2
	b	.LBB2_1
.LBB2_1:
.Ltmp7:
	.loc	3 169 9 is_stmt 1               @ rt-thread/components/dfs/src/poll.c:169:9
	ldr	r1, [sp, #24]
	movs	r0, #0
	.loc	3 169 23 is_stmt 0              @ rt-thread/components/dfs/src/poll.c:169:23
	str	r0, [r1]
	movs	r0, #1
	.loc	3 170 19 is_stmt 1              @ rt-thread/components/dfs/src/poll.c:170:19
	str	r0, [sp, #12]
	.loc	3 171 5                         @ rt-thread/components/dfs/src/poll.c:171:5
	b	.LBB2_2
.Ltmp8:
.LBB2_2:
	.loc	3 173 5                         @ rt-thread/components/dfs/src/poll.c:173:5
	b	.LBB2_3
.LBB2_3:                                @ =>This Loop Header: Depth=1
                                        @     Child Loop BB2_4 Depth 2
.Ltmp9:
	.loc	3 175 14                        @ rt-thread/components/dfs/src/poll.c:175:14
	ldr	r0, [sp, #32]
	.loc	3 175 12 is_stmt 0              @ rt-thread/components/dfs/src/poll.c:175:12
	str	r0, [sp, #4]
	movs	r0, #0
	.loc	3 176 13 is_stmt 1              @ rt-thread/components/dfs/src/poll.c:176:13
	str	r0, [sp, #16]
.Ltmp10:
	.loc	3 178 16                        @ rt-thread/components/dfs/src/poll.c:178:16
	str	r0, [sp, #8]
	.loc	3 178 14 is_stmt 0              @ rt-thread/components/dfs/src/poll.c:178:14
	b	.LBB2_4
.LBB2_4:                                @   Parent Loop BB2_3 Depth=1
                                        @ =>  This Inner Loop Header: Depth=2
.Ltmp11:
	.loc	3 178 21                        @ rt-thread/components/dfs/src/poll.c:178:21
	ldr	r0, [sp, #8]
	.loc	3 178 25                        @ rt-thread/components/dfs/src/poll.c:178:25
	ldr	r1, [sp, #28]
.Ltmp12:
	.loc	3 178 9                         @ rt-thread/components/dfs/src/poll.c:178:9
	cmp	r0, r1
	bhs	.LBB2_12
	b	.LBB2_5
.LBB2_5:                                @   in Loop: Header=BB2_4 Depth=2
.Ltmp13:
	.loc	3 180 29 is_stmt 1              @ rt-thread/components/dfs/src/poll.c:180:29
	ldr	r0, [sp, #4]
	.loc	3 180 34 is_stmt 0              @ rt-thread/components/dfs/src/poll.c:180:34
	ldr	r1, [sp, #24]
	.loc	3 180 19                        @ rt-thread/components/dfs/src/poll.c:180:19
	bl	do_pollfd
	.loc	3 180 17                        @ rt-thread/components/dfs/src/poll.c:180:17
	str	r0, [sp]
.Ltmp14:
	.loc	3 181 16 is_stmt 1              @ rt-thread/components/dfs/src/poll.c:181:16
	ldr	r0, [sp]
.Ltmp15:
	.loc	3 181 16 is_stmt 0              @ rt-thread/components/dfs/src/poll.c:181:16
	cmp.w	r0, #-1
	bgt	.LBB2_7
	b	.LBB2_6
.LBB2_6:
.Ltmp16:
	.loc	3 184 17 is_stmt 1              @ rt-thread/components/dfs/src/poll.c:184:17
	ldr	r1, [sp, #24]
	movs	r0, #0
	.loc	3 184 31 is_stmt 0              @ rt-thread/components/dfs/src/poll.c:184:31
	str	r0, [r1]
	.loc	3 185 24 is_stmt 1              @ rt-thread/components/dfs/src/poll.c:185:24
	ldr	r0, [sp]
	.loc	3 185 17 is_stmt 0              @ rt-thread/components/dfs/src/poll.c:185:17
	str	r0, [sp, #36]
	b	.LBB2_19
.Ltmp17:
.LBB2_7:                                @   in Loop: Header=BB2_4 Depth=2
	.loc	3 187 21 is_stmt 1              @ rt-thread/components/dfs/src/poll.c:187:21
	ldr	r0, [sp]
.Ltmp18:
	.loc	3 187 21 is_stmt 0              @ rt-thread/components/dfs/src/poll.c:187:21
	cmp	r0, #1
	blt	.LBB2_9
	b	.LBB2_8
.LBB2_8:                                @   in Loop: Header=BB2_4 Depth=2
.Ltmp19:
	.loc	3 189 21 is_stmt 1              @ rt-thread/components/dfs/src/poll.c:189:21
	ldr	r0, [sp, #16]
	adds	r0, #1
	str	r0, [sp, #16]
	.loc	3 190 17                        @ rt-thread/components/dfs/src/poll.c:190:17
	ldr	r1, [sp, #24]
	movs	r0, #0
	.loc	3 190 31 is_stmt 0              @ rt-thread/components/dfs/src/poll.c:190:31
	str	r0, [r1]
	.loc	3 191 13 is_stmt 1              @ rt-thread/components/dfs/src/poll.c:191:13
	b	.LBB2_9
.Ltmp20:
.LBB2_9:                                @   in Loop: Header=BB2_4 Depth=2
	.loc	3 0 13 is_stmt 0                @ rt-thread/components/dfs/src/poll.c:0:13
	b	.LBB2_10
.LBB2_10:                               @   in Loop: Header=BB2_4 Depth=2
	.loc	3 192 16 is_stmt 1              @ rt-thread/components/dfs/src/poll.c:192:16
	ldr	r0, [sp, #4]
	adds	r0, #8
	str	r0, [sp, #4]
	.loc	3 193 9                         @ rt-thread/components/dfs/src/poll.c:193:9
	b	.LBB2_11
.Ltmp21:
.LBB2_11:                               @   in Loop: Header=BB2_4 Depth=2
	.loc	3 178 33                        @ rt-thread/components/dfs/src/poll.c:178:33
	ldr	r0, [sp, #8]
	adds	r0, #1
	str	r0, [sp, #8]
	.loc	3 178 9 is_stmt 0               @ rt-thread/components/dfs/src/poll.c:178:9
	b	.LBB2_4
.Ltmp22:
.LBB2_12:                               @   in Loop: Header=BB2_3 Depth=1
	.loc	3 195 9 is_stmt 1               @ rt-thread/components/dfs/src/poll.c:195:9
	ldr	r1, [sp, #24]
	movs	r0, #0
	.loc	3 195 23 is_stmt 0              @ rt-thread/components/dfs/src/poll.c:195:23
	str	r0, [r1]
.Ltmp23:
	.loc	3 197 13 is_stmt 1              @ rt-thread/components/dfs/src/poll.c:197:13
	ldr	r0, [sp, #16]
	.loc	3 197 17 is_stmt 0              @ rt-thread/components/dfs/src/poll.c:197:17
	cbnz	r0, .LBB2_14
	b	.LBB2_13
.LBB2_13:                               @   in Loop: Header=BB2_3 Depth=1
	.loc	3 197 20                        @ rt-thread/components/dfs/src/poll.c:197:20
	ldr	r0, [sp, #12]
.Ltmp24:
	.loc	3 197 13                        @ rt-thread/components/dfs/src/poll.c:197:13
	cbz	r0, .LBB2_15
	b	.LBB2_14
.LBB2_14:
.Ltmp25:
	.loc	3 198 13 is_stmt 1              @ rt-thread/components/dfs/src/poll.c:198:13
	b	.LBB2_18
.Ltmp26:
.LBB2_15:                               @   in Loop: Header=BB2_3 Depth=1
	.loc	3 200 31                        @ rt-thread/components/dfs/src/poll.c:200:31
	ldr	r0, [sp, #24]
	.loc	3 200 35 is_stmt 0              @ rt-thread/components/dfs/src/poll.c:200:35
	ldr	r1, [sp, #20]
	.loc	3 200 13                        @ rt-thread/components/dfs/src/poll.c:200:13
	bl	poll_wait_timeout
.Ltmp27:
	.loc	3 200 13                        @ rt-thread/components/dfs/src/poll.c:200:13
	cbz	r0, .LBB2_17
	b	.LBB2_16
.LBB2_16:                               @   in Loop: Header=BB2_3 Depth=1
	.loc	3 0 13                          @ rt-thread/components/dfs/src/poll.c:0:13
	movs	r0, #1
.Ltmp28:
	.loc	3 201 23 is_stmt 1              @ rt-thread/components/dfs/src/poll.c:201:23
	str	r0, [sp, #12]
	.loc	3 201 13 is_stmt 0              @ rt-thread/components/dfs/src/poll.c:201:13
	b	.LBB2_17
.Ltmp29:
.LBB2_17:                               @   in Loop: Header=BB2_3 Depth=1
	.loc	3 173 5 is_stmt 1               @ rt-thread/components/dfs/src/poll.c:173:5
	b	.LBB2_3
.LBB2_18:
	.loc	3 204 12                        @ rt-thread/components/dfs/src/poll.c:204:12
	ldr	r0, [sp, #16]
	.loc	3 204 5 is_stmt 0               @ rt-thread/components/dfs/src/poll.c:204:5
	str	r0, [sp, #36]
	b	.LBB2_19
.LBB2_19:
	.loc	3 205 1 is_stmt 1               @ rt-thread/components/dfs/src/poll.c:205:1
	ldr	r0, [sp, #36]
	add	sp, #40
	pop	{r7, pc}
.Ltmp30:
.Lfunc_end2:
	.size	poll_do, .Lfunc_end2-poll_do
	.cfi_endproc
	.cantunwind
	.fnend
                                        @ -- End function
	.section	.text.poll_teardown,"ax",%progbits
	.p2align	3                               @ -- Begin function poll_teardown
	.type	poll_teardown,%function
	.code	16                              @ @poll_teardown
	.thumb_func
poll_teardown:
.Lfunc_begin3:
	.loc	3 208 0                         @ rt-thread/components/dfs/src/poll.c:208:0
	.fnstart
	.cfi_startproc
@ %bb.0:
	.save	{r7, lr}
	push	{r7, lr}
	.cfi_def_cfa_offset 8
	.cfi_offset lr, -4
	.cfi_offset r7, -8
	.pad	#16
	sub	sp, #16
	.cfi_def_cfa_offset 24
	str	r0, [sp, #12]
.Ltmp31:
	.loc	3 211 12 prologue_end           @ rt-thread/components/dfs/src/poll.c:211:12
	ldr	r0, [sp, #12]
	.loc	3 211 16 is_stmt 0              @ rt-thread/components/dfs/src/poll.c:211:16
	ldr	r0, [r0, #16]
	.loc	3 211 10                        @ rt-thread/components/dfs/src/poll.c:211:10
	str	r0, [sp, #4]
	.loc	3 212 5 is_stmt 1               @ rt-thread/components/dfs/src/poll.c:212:5
	b	.LBB3_1
.LBB3_1:                                @ =>This Inner Loop Header: Depth=1
	.loc	3 212 12 is_stmt 0              @ rt-thread/components/dfs/src/poll.c:212:12
	ldr	r0, [sp, #4]
	.loc	3 212 5                         @ rt-thread/components/dfs/src/poll.c:212:5
	cbz	r0, .LBB3_3
	b	.LBB3_2
.LBB3_2:                                @   in Loop: Header=BB3_1 Depth=1
.Ltmp32:
	.loc	3 214 16 is_stmt 1              @ rt-thread/components/dfs/src/poll.c:214:16
	ldr	r0, [sp, #4]
	.loc	3 214 14 is_stmt 0              @ rt-thread/components/dfs/src/poll.c:214:14
	str	r0, [sp, #8]
	.loc	3 215 27 is_stmt 1              @ rt-thread/components/dfs/src/poll.c:215:27
	ldr	r0, [sp, #8]
	.loc	3 215 9 is_stmt 0               @ rt-thread/components/dfs/src/poll.c:215:9
	bl	rt_wqueue_remove
	.loc	3 216 16 is_stmt 1              @ rt-thread/components/dfs/src/poll.c:216:16
	ldr	r0, [sp, #8]
	.loc	3 216 22 is_stmt 0              @ rt-thread/components/dfs/src/poll.c:216:22
	ldr	r0, [r0, #24]
	.loc	3 216 14                        @ rt-thread/components/dfs/src/poll.c:216:14
	str	r0, [sp, #4]
	.loc	3 217 17 is_stmt 1              @ rt-thread/components/dfs/src/poll.c:217:17
	ldr	r0, [sp, #8]
	.loc	3 217 9 is_stmt 0               @ rt-thread/components/dfs/src/poll.c:217:9
	bl	rt_free
.Ltmp33:
	.loc	3 212 5 is_stmt 1               @ rt-thread/components/dfs/src/poll.c:212:5
	b	.LBB3_1
.LBB3_3:
	.loc	3 219 1                         @ rt-thread/components/dfs/src/poll.c:219:1
	add	sp, #16
	pop	{r7, pc}
.Ltmp34:
.Lfunc_end3:
	.size	poll_teardown, .Lfunc_end3-poll_teardown
	.cfi_endproc
	.cantunwind
	.fnend
                                        @ -- End function
	.section	.text._poll_add,"ax",%progbits
	.p2align	3                               @ -- Begin function _poll_add
	.type	_poll_add,%function
	.code	16                              @ @_poll_add
	.thumb_func
_poll_add:
.Lfunc_begin4:
	.loc	3 55 0                          @ rt-thread/components/dfs/src/poll.c:55:0
	.fnstart
	.cfi_startproc
@ %bb.0:
	.save	{r7, lr}
	push	{r7, lr}
	.cfi_def_cfa_offset 8
	.cfi_offset lr, -4
	.cfi_offset r7, -8
	.pad	#16
	sub	sp, #16
	.cfi_def_cfa_offset 24
	str	r0, [sp, #12]
	str	r1, [sp, #8]
	movs	r0, #28
.Ltmp35:
	.loc	3 59 35 prologue_end            @ rt-thread/components/dfs/src/poll.c:59:35
	bl	rt_malloc
	.loc	3 59 10 is_stmt 0               @ rt-thread/components/dfs/src/poll.c:59:10
	str	r0, [sp]
.Ltmp36:
	.loc	3 60 9 is_stmt 1                @ rt-thread/components/dfs/src/poll.c:60:9
	ldr	r0, [sp]
.Ltmp37:
	.loc	3 60 9 is_stmt 0                @ rt-thread/components/dfs/src/poll.c:60:9
	cbnz	r0, .LBB4_2
	b	.LBB4_1
.LBB4_1:
.Ltmp38:
	.loc	3 61 9 is_stmt 1                @ rt-thread/components/dfs/src/poll.c:61:9
	b	.LBB4_3
.Ltmp39:
.LBB4_2:
	.loc	3 63 10                         @ rt-thread/components/dfs/src/poll.c:63:10
	ldr	r0, [sp, #8]
	.loc	3 63 8 is_stmt 0                @ rt-thread/components/dfs/src/poll.c:63:8
	str	r0, [sp, #4]
	.loc	3 65 21 is_stmt 1               @ rt-thread/components/dfs/src/poll.c:65:21
	ldr	r0, [sp, #8]
	.loc	3 65 26 is_stmt 0               @ rt-thread/components/dfs/src/poll.c:65:26
	ldrsh.w	r0, [r0, #4]
	.loc	3 65 5                          @ rt-thread/components/dfs/src/poll.c:65:5
	ldr	r1, [sp]
	.loc	3 65 19                         @ rt-thread/components/dfs/src/poll.c:65:19
	str	r0, [r1, #16]
	.loc	3 66 20 is_stmt 1               @ rt-thread/components/dfs/src/poll.c:66:20
	ldr	r0, [sp]
	.loc	3 66 30 is_stmt 0               @ rt-thread/components/dfs/src/poll.c:66:30
	adds	r0, #4
	.loc	3 66 5                          @ rt-thread/components/dfs/src/poll.c:66:5
	bl	rt_list_init
	.loc	3 67 32 is_stmt 1               @ rt-thread/components/dfs/src/poll.c:67:32
	ldr	r0, [sp, #4]
	.loc	3 67 36 is_stmt 0               @ rt-thread/components/dfs/src/poll.c:67:36
	ldr	r0, [r0, #12]
	.loc	3 67 5                          @ rt-thread/components/dfs/src/poll.c:67:5
	ldr	r1, [sp]
	.loc	3 67 30                         @ rt-thread/components/dfs/src/poll.c:67:30
	str	r0, [r1]
	.loc	3 68 5 is_stmt 1                @ rt-thread/components/dfs/src/poll.c:68:5
	ldr	r1, [sp]
	.loc	3 68 22 is_stmt 0               @ rt-thread/components/dfs/src/poll.c:68:22
	movw	r0, :lower16:__wqueue_pollwake
	movt	r0, :upper16:__wqueue_pollwake
	str	r0, [r1, #12]
	.loc	3 69 18 is_stmt 1               @ rt-thread/components/dfs/src/poll.c:69:18
	ldr	r0, [sp, #4]
	.loc	3 69 22 is_stmt 0               @ rt-thread/components/dfs/src/poll.c:69:22
	ldr	r0, [r0, #16]
	.loc	3 69 5                          @ rt-thread/components/dfs/src/poll.c:69:5
	ldr	r1, [sp]
	.loc	3 69 16                         @ rt-thread/components/dfs/src/poll.c:69:16
	str	r0, [r1, #24]
	.loc	3 70 16 is_stmt 1               @ rt-thread/components/dfs/src/poll.c:70:16
	ldr	r0, [sp, #4]
	.loc	3 70 5 is_stmt 0                @ rt-thread/components/dfs/src/poll.c:70:5
	ldr	r1, [sp]
	.loc	3 70 14                         @ rt-thread/components/dfs/src/poll.c:70:14
	str	r0, [r1, #20]
	.loc	3 71 17 is_stmt 1               @ rt-thread/components/dfs/src/poll.c:71:17
	ldr	r0, [sp]
	.loc	3 71 5 is_stmt 0                @ rt-thread/components/dfs/src/poll.c:71:5
	ldr	r1, [sp, #4]
	.loc	3 71 15                         @ rt-thread/components/dfs/src/poll.c:71:15
	str	r0, [r1, #16]
	.loc	3 72 19 is_stmt 1               @ rt-thread/components/dfs/src/poll.c:72:19
	ldr	r0, [sp, #12]
	.loc	3 72 24 is_stmt 0               @ rt-thread/components/dfs/src/poll.c:72:24
	ldr	r1, [sp]
	.loc	3 72 5                          @ rt-thread/components/dfs/src/poll.c:72:5
	bl	rt_wqueue_add
	.loc	3 73 1 is_stmt 1                @ rt-thread/components/dfs/src/poll.c:73:1
	b	.LBB4_3
.LBB4_3:
	add	sp, #16
	pop	{r7, pc}
.Ltmp40:
.Lfunc_end4:
	.size	_poll_add, .Lfunc_end4-_poll_add
	.cfi_endproc
	.cantunwind
	.fnend
                                        @ -- End function
	.section	.text.rt_list_init,"ax",%progbits
	.p2align	3                               @ -- Begin function rt_list_init
	.type	rt_list_init,%function
	.code	16                              @ @rt_list_init
	.thumb_func
rt_list_init:
.Lfunc_begin5:
	.file	5 "E:\\STM32\\Learning\\STM32H750_ART_PI_RGBLCD" "rt-thread/include\\rtservice.h"
	.loc	5 48 0                          @ rt-thread/include\rtservice.h:48:0
	.fnstart
	.cfi_startproc
@ %bb.0:
	.pad	#4
	sub	sp, #4
	.cfi_def_cfa_offset 4
	str	r0, [sp]
.Ltmp41:
	.loc	5 49 25 prologue_end            @ rt-thread/include\rtservice.h:49:25
	ldr	r0, [sp]
	.loc	5 49 23 is_stmt 0               @ rt-thread/include\rtservice.h:49:23
	str	r0, [r0, #4]
	.loc	5 49 5                          @ rt-thread/include\rtservice.h:49:5
	ldr	r1, [sp]
	.loc	5 49 13                         @ rt-thread/include\rtservice.h:49:13
	str	r0, [r1]
	.loc	5 50 1 is_stmt 1                @ rt-thread/include\rtservice.h:50:1
	add	sp, #4
	bx	lr
.Ltmp42:
.Lfunc_end5:
	.size	rt_list_init, .Lfunc_end5-rt_list_init
	.cfi_endproc
	.cantunwind
	.fnend
                                        @ -- End function
	.section	.text.__wqueue_pollwake,"ax",%progbits
	.p2align	3                               @ -- Begin function __wqueue_pollwake
	.type	__wqueue_pollwake,%function
	.code	16                              @ @__wqueue_pollwake
	.thumb_func
__wqueue_pollwake:
.Lfunc_begin6:
	.loc	3 42 0                          @ rt-thread/components/dfs/src/poll.c:42:0
	.fnstart
	.cfi_startproc
@ %bb.0:
	.save	{r7, lr}
	push	{r7, lr}
	.cfi_def_cfa_offset 8
	.cfi_offset lr, -4
	.cfi_offset r7, -8
	.pad	#16
	sub	sp, #16
	.cfi_def_cfa_offset 24
	str	r0, [sp, #8]
	str	r1, [sp, #4]
.Ltmp43:
	.loc	3 45 9 prologue_end             @ rt-thread/components/dfs/src/poll.c:45:9
	ldr	r0, [sp, #4]
	.loc	3 45 13 is_stmt 0               @ rt-thread/components/dfs/src/poll.c:45:13
	cbz	r0, .LBB6_3
	b	.LBB6_1
.LBB6_1:
	.loc	3 45 30                         @ rt-thread/components/dfs/src/poll.c:45:30
	ldr	r0, [sp, #4]
	.loc	3 45 36                         @ rt-thread/components/dfs/src/poll.c:45:36
	ldr	r1, [sp, #8]
	.loc	3 45 42                         @ rt-thread/components/dfs/src/poll.c:45:42
	ldr	r1, [r1, #16]
.Ltmp44:
	.loc	3 45 9                          @ rt-thread/components/dfs/src/poll.c:45:9
	tst	r0, r1
	bne	.LBB6_3
	b	.LBB6_2
.LBB6_2:
	.loc	3 0 9                           @ rt-thread/components/dfs/src/poll.c:0:9
	mov.w	r0, #-1
.Ltmp45:
	.loc	3 46 9 is_stmt 1                @ rt-thread/components/dfs/src/poll.c:46:9
	str	r0, [sp, #12]
	b	.LBB6_4
.Ltmp46:
.LBB6_3:
	.loc	3 48 10                         @ rt-thread/components/dfs/src/poll.c:48:10
	ldr	r0, [sp, #8]
	.loc	3 48 8 is_stmt 0                @ rt-thread/components/dfs/src/poll.c:48:8
	str	r0, [sp]
	.loc	3 49 5 is_stmt 1                @ rt-thread/components/dfs/src/poll.c:49:5
	ldr	r0, [sp]
	.loc	3 49 9 is_stmt 0                @ rt-thread/components/dfs/src/poll.c:49:9
	ldr	r1, [r0, #20]
	movs	r0, #1
	.loc	3 49 23                         @ rt-thread/components/dfs/src/poll.c:49:23
	str	r0, [r1, #8]
	.loc	3 51 34 is_stmt 1               @ rt-thread/components/dfs/src/poll.c:51:34
	ldr	r0, [sp, #8]
	.loc	3 51 40 is_stmt 0               @ rt-thread/components/dfs/src/poll.c:51:40
	ldr	r1, [sp, #4]
	.loc	3 51 12                         @ rt-thread/components/dfs/src/poll.c:51:12
	bl	__wqueue_default_wake
	.loc	3 51 5                          @ rt-thread/components/dfs/src/poll.c:51:5
	str	r0, [sp, #12]
	b	.LBB6_4
.LBB6_4:
	.loc	3 52 1 is_stmt 1                @ rt-thread/components/dfs/src/poll.c:52:1
	ldr	r0, [sp, #12]
	add	sp, #16
	pop	{r7, pc}
.Ltmp47:
.Lfunc_end6:
	.size	__wqueue_pollwake, .Lfunc_end6-__wqueue_pollwake
	.cfi_endproc
	.cantunwind
	.fnend
                                        @ -- End function
	.section	.text.do_pollfd,"ax",%progbits
	.p2align	3                               @ -- Begin function do_pollfd
	.type	do_pollfd,%function
	.code	16                              @ @do_pollfd
	.thumb_func
do_pollfd:
.Lfunc_begin7:
	.loc	3 121 0                         @ rt-thread/components/dfs/src/poll.c:121:0
	.fnstart
	.cfi_startproc
@ %bb.0:
	.save	{r7, lr}
	push	{r7, lr}
	.cfi_def_cfa_offset 8
	.cfi_offset lr, -4
	.cfi_offset r7, -8
	.pad	#24
	sub	sp, #24
	.cfi_def_cfa_offset 32
	str	r0, [sp, #16]
	str	r1, [sp, #12]
	movs	r0, #0
.Ltmp48:
	.loc	3 122 9 prologue_end            @ rt-thread/components/dfs/src/poll.c:122:9
	str	r0, [sp, #8]
	.loc	3 125 10                        @ rt-thread/components/dfs/src/poll.c:125:10
	ldr	r0, [sp, #16]
	.loc	3 125 18 is_stmt 0              @ rt-thread/components/dfs/src/poll.c:125:18
	ldr	r0, [r0]
	.loc	3 125 8                         @ rt-thread/components/dfs/src/poll.c:125:8
	str	r0, [sp, #4]
.Ltmp49:
	.loc	3 127 9 is_stmt 1               @ rt-thread/components/dfs/src/poll.c:127:9
	ldr	r0, [sp, #4]
.Ltmp50:
	.loc	3 127 9 is_stmt 0               @ rt-thread/components/dfs/src/poll.c:127:9
	cmp	r0, #0
	bmi	.LBB7_8
	b	.LBB7_1
.LBB7_1:
.Ltmp51:
	.loc	3 129 35 is_stmt 1              @ rt-thread/components/dfs/src/poll.c:129:35
	ldr	r0, [sp, #4]
	.loc	3 129 28 is_stmt 0              @ rt-thread/components/dfs/src/poll.c:129:28
	bl	fd_get
	.loc	3 129 24                        @ rt-thread/components/dfs/src/poll.c:129:24
	str	r0, [sp]
	movs	r0, #16
	.loc	3 130 14 is_stmt 1              @ rt-thread/components/dfs/src/poll.c:130:14
	str	r0, [sp, #8]
.Ltmp52:
	.loc	3 132 13                        @ rt-thread/components/dfs/src/poll.c:132:13
	ldr	r0, [sp]
.Ltmp53:
	.loc	3 132 13 is_stmt 0              @ rt-thread/components/dfs/src/poll.c:132:13
	cbz	r0, .LBB7_7
	b	.LBB7_2
.LBB7_2:
	.loc	3 0 13                          @ rt-thread/components/dfs/src/poll.c:0:13
	movs	r0, #3
.Ltmp54:
	.loc	3 134 18 is_stmt 1              @ rt-thread/components/dfs/src/poll.c:134:18
	str	r0, [sp, #8]
.Ltmp55:
	.loc	3 135 17                        @ rt-thread/components/dfs/src/poll.c:135:17
	ldr	r0, [sp]
	.loc	3 135 20 is_stmt 0              @ rt-thread/components/dfs/src/poll.c:135:20
	ldr	r0, [r0, #16]
	.loc	3 135 26                        @ rt-thread/components/dfs/src/poll.c:135:26
	ldr	r0, [r0, #32]
.Ltmp56:
	.loc	3 135 17                        @ rt-thread/components/dfs/src/poll.c:135:17
	cbz	r0, .LBB7_6
	b	.LBB7_3
.LBB7_3:
.Ltmp57:
	.loc	3 137 29 is_stmt 1              @ rt-thread/components/dfs/src/poll.c:137:29
	ldr	r0, [sp, #16]
	ldrh	r0, [r0, #4]
	.loc	3 137 54 is_stmt 0              @ rt-thread/components/dfs/src/poll.c:137:54
	orr	r0, r0, #12
	.loc	3 137 17                        @ rt-thread/components/dfs/src/poll.c:137:17
	ldr	r1, [sp, #12]
	.loc	3 137 27                        @ rt-thread/components/dfs/src/poll.c:137:27
	strh	r0, [r1, #4]
	.loc	3 139 24 is_stmt 1              @ rt-thread/components/dfs/src/poll.c:139:24
	ldr	r0, [sp]
	.loc	3 139 27 is_stmt 0              @ rt-thread/components/dfs/src/poll.c:139:27
	ldr	r1, [r0, #16]
	.loc	3 139 33                        @ rt-thread/components/dfs/src/poll.c:139:33
	ldr	r2, [r1, #32]
	.loc	3 139 41                        @ rt-thread/components/dfs/src/poll.c:139:41
	ldr	r1, [sp, #12]
	.loc	3 139 24                        @ rt-thread/components/dfs/src/poll.c:139:24
	blx	r2
	.loc	3 139 22                        @ rt-thread/components/dfs/src/poll.c:139:22
	str	r0, [sp, #8]
.Ltmp58:
	.loc	3 142 21 is_stmt 1              @ rt-thread/components/dfs/src/poll.c:142:21
	ldr	r0, [sp, #8]
.Ltmp59:
	.loc	3 142 21 is_stmt 0              @ rt-thread/components/dfs/src/poll.c:142:21
	cmp.w	r0, #-1
	bgt	.LBB7_5
	b	.LBB7_4
.LBB7_4:
.Ltmp60:
	.loc	3 144 28 is_stmt 1              @ rt-thread/components/dfs/src/poll.c:144:28
	ldr	r0, [sp]
	.loc	3 144 21 is_stmt 0              @ rt-thread/components/dfs/src/poll.c:144:21
	bl	fd_put
	.loc	3 145 21 is_stmt 1              @ rt-thread/components/dfs/src/poll.c:145:21
	ldr	r1, [sp, #16]
	movs	r0, #0
	.loc	3 145 37 is_stmt 0              @ rt-thread/components/dfs/src/poll.c:145:37
	strh	r0, [r1, #6]
	.loc	3 146 28 is_stmt 1              @ rt-thread/components/dfs/src/poll.c:146:28
	ldr	r0, [sp, #8]
	.loc	3 146 21 is_stmt 0              @ rt-thread/components/dfs/src/poll.c:146:21
	str	r0, [sp, #20]
	b	.LBB7_9
.Ltmp61:
.LBB7_5:
	.loc	3 148 13 is_stmt 1              @ rt-thread/components/dfs/src/poll.c:148:13
	b	.LBB7_6
.Ltmp62:
.LBB7_6:
	.loc	3 150 21                        @ rt-thread/components/dfs/src/poll.c:150:21
	ldr	r0, [sp, #16]
	.loc	3 150 29 is_stmt 0              @ rt-thread/components/dfs/src/poll.c:150:29
	ldrsh.w	r0, [r0, #4]
	.loc	3 150 46                        @ rt-thread/components/dfs/src/poll.c:150:46
	orr	r1, r0, #12
	.loc	3 150 18                        @ rt-thread/components/dfs/src/poll.c:150:18
	ldr	r0, [sp, #8]
	ands	r0, r1
	str	r0, [sp, #8]
	.loc	3 151 20 is_stmt 1              @ rt-thread/components/dfs/src/poll.c:151:20
	ldr	r0, [sp]
	.loc	3 151 13 is_stmt 0              @ rt-thread/components/dfs/src/poll.c:151:13
	bl	fd_put
	.loc	3 152 9 is_stmt 1               @ rt-thread/components/dfs/src/poll.c:152:9
	b	.LBB7_7
.Ltmp63:
.LBB7_7:
	.loc	3 153 5                         @ rt-thread/components/dfs/src/poll.c:153:5
	b	.LBB7_8
.Ltmp64:
.LBB7_8:
	.loc	3 154 23                        @ rt-thread/components/dfs/src/poll.c:154:23
	ldr	r0, [sp, #8]
	.loc	3 154 5 is_stmt 0               @ rt-thread/components/dfs/src/poll.c:154:5
	ldr	r1, [sp, #16]
	.loc	3 154 21                        @ rt-thread/components/dfs/src/poll.c:154:21
	strh	r0, [r1, #6]
	.loc	3 156 12 is_stmt 1              @ rt-thread/components/dfs/src/poll.c:156:12
	ldr	r0, [sp, #8]
	.loc	3 156 5 is_stmt 0               @ rt-thread/components/dfs/src/poll.c:156:5
	str	r0, [sp, #20]
	b	.LBB7_9
.LBB7_9:
	.loc	3 157 1 is_stmt 1               @ rt-thread/components/dfs/src/poll.c:157:1
	ldr	r0, [sp, #20]
	add	sp, #24
	pop	{r7, pc}
.Ltmp65:
.Lfunc_end7:
	.size	do_pollfd, .Lfunc_end7-do_pollfd
	.cfi_endproc
	.cantunwind
	.fnend
                                        @ -- End function
	.section	.text.poll_wait_timeout,"ax",%progbits
	.p2align	3                               @ -- Begin function poll_wait_timeout
	.type	poll_wait_timeout,%function
	.code	16                              @ @poll_wait_timeout
	.thumb_func
poll_wait_timeout:
.Lfunc_begin8:
	.loc	3 84 0                          @ rt-thread/components/dfs/src/poll.c:84:0
	.fnstart
	.cfi_startproc
@ %bb.0:
	.save	{r7, lr}
	push	{r7, lr}
	.cfi_def_cfa_offset 8
	.cfi_offset lr, -4
	.cfi_offset r7, -8
	.pad	#24
	sub	sp, #24
	.cfi_def_cfa_offset 32
	str	r0, [sp, #20]
	str	r1, [sp, #16]
	movs	r0, #0
.Ltmp66:
	.loc	3 86 9 prologue_end             @ rt-thread/components/dfs/src/poll.c:86:9
	str	r0, [sp, #8]
	.loc	3 90 14                         @ rt-thread/components/dfs/src/poll.c:90:14
	ldr	r0, [sp, #20]
	.loc	3 90 18 is_stmt 0               @ rt-thread/components/dfs/src/poll.c:90:18
	ldr	r0, [r0, #12]
	.loc	3 90 12                         @ rt-thread/components/dfs/src/poll.c:90:12
	str	r0, [sp, #4]
	.loc	3 92 40 is_stmt 1               @ rt-thread/components/dfs/src/poll.c:92:40
	ldr	r0, [sp, #16]
	.loc	3 92 15 is_stmt 0               @ rt-thread/components/dfs/src/poll.c:92:15
	bl	rt_tick_from_millisecond
	.loc	3 92 13                         @ rt-thread/components/dfs/src/poll.c:92:13
	str	r0, [sp, #12]
	.loc	3 94 13 is_stmt 1               @ rt-thread/components/dfs/src/poll.c:94:13
	bl	rt_hw_interrupt_disable
	.loc	3 94 11 is_stmt 0               @ rt-thread/components/dfs/src/poll.c:94:11
	str	r0, [sp]
.Ltmp67:
	.loc	3 96 9 is_stmt 1                @ rt-thread/components/dfs/src/poll.c:96:9
	ldr	r0, [sp, #12]
	.loc	3 96 22 is_stmt 0               @ rt-thread/components/dfs/src/poll.c:96:22
	cbz	r0, .LBB8_5
	b	.LBB8_1
.LBB8_1:
	.loc	3 96 26                         @ rt-thread/components/dfs/src/poll.c:96:26
	ldr	r0, [sp, #20]
	.loc	3 96 30                         @ rt-thread/components/dfs/src/poll.c:96:30
	ldr	r0, [r0, #8]
.Ltmp68:
	.loc	3 96 9                          @ rt-thread/components/dfs/src/poll.c:96:9
	cbnz	r0, .LBB8_5
	b	.LBB8_2
.LBB8_2:
.Ltmp69:
	.loc	3 98 27 is_stmt 1               @ rt-thread/components/dfs/src/poll.c:98:27
	ldr	r0, [sp, #4]
	.loc	3 98 9 is_stmt 0                @ rt-thread/components/dfs/src/poll.c:98:9
	bl	rt_thread_suspend
.Ltmp70:
	.loc	3 99 13 is_stmt 1               @ rt-thread/components/dfs/src/poll.c:99:13
	ldr	r0, [sp, #12]
.Ltmp71:
	.loc	3 99 13 is_stmt 0               @ rt-thread/components/dfs/src/poll.c:99:13
	cmp	r0, #1
	blt	.LBB8_4
	b	.LBB8_3
.LBB8_3:
.Ltmp72:
	.loc	3 101 32 is_stmt 1              @ rt-thread/components/dfs/src/poll.c:101:32
	ldr	r0, [sp, #4]
	.loc	3 101 40 is_stmt 0              @ rt-thread/components/dfs/src/poll.c:101:40
	adds	r0, #76
	movs	r1, #0
	add	r2, sp, #12
	.loc	3 101 13                        @ rt-thread/components/dfs/src/poll.c:101:13
	bl	rt_timer_control
	.loc	3 104 30 is_stmt 1              @ rt-thread/components/dfs/src/poll.c:104:30
	ldr	r0, [sp, #4]
	.loc	3 104 38 is_stmt 0              @ rt-thread/components/dfs/src/poll.c:104:38
	adds	r0, #76
	.loc	3 104 13                        @ rt-thread/components/dfs/src/poll.c:104:13
	bl	rt_timer_start
	.loc	3 105 9 is_stmt 1               @ rt-thread/components/dfs/src/poll.c:105:9
	b	.LBB8_4
.Ltmp73:
.LBB8_4:
	.loc	3 107 32                        @ rt-thread/components/dfs/src/poll.c:107:32
	ldr	r0, [sp]
	.loc	3 107 9 is_stmt 0               @ rt-thread/components/dfs/src/poll.c:107:9
	bl	rt_hw_interrupt_enable
	.loc	3 109 9 is_stmt 1               @ rt-thread/components/dfs/src/poll.c:109:9
	bl	rt_schedule
	.loc	3 111 17                        @ rt-thread/components/dfs/src/poll.c:111:17
	bl	rt_hw_interrupt_disable
	.loc	3 111 15 is_stmt 0              @ rt-thread/components/dfs/src/poll.c:111:15
	str	r0, [sp]
	.loc	3 112 5 is_stmt 1               @ rt-thread/components/dfs/src/poll.c:112:5
	b	.LBB8_5
.Ltmp74:
.LBB8_5:
	.loc	3 114 12                        @ rt-thread/components/dfs/src/poll.c:114:12
	ldr	r0, [sp, #20]
	.loc	3 114 16 is_stmt 0              @ rt-thread/components/dfs/src/poll.c:114:16
	ldr	r0, [r0, #8]
	.loc	3 114 11                        @ rt-thread/components/dfs/src/poll.c:114:11
	clz	r0, r0
	lsrs	r0, r0, #5
	.loc	3 114 9                         @ rt-thread/components/dfs/src/poll.c:114:9
	str	r0, [sp, #8]
	.loc	3 115 28 is_stmt 1              @ rt-thread/components/dfs/src/poll.c:115:28
	ldr	r0, [sp]
	.loc	3 115 5 is_stmt 0               @ rt-thread/components/dfs/src/poll.c:115:5
	bl	rt_hw_interrupt_enable
	.loc	3 117 12 is_stmt 1              @ rt-thread/components/dfs/src/poll.c:117:12
	ldr	r0, [sp, #8]
	.loc	3 117 5 is_stmt 0               @ rt-thread/components/dfs/src/poll.c:117:5
	add	sp, #24
	pop	{r7, pc}
.Ltmp75:
.Lfunc_end8:
	.size	poll_wait_timeout, .Lfunc_end8-poll_wait_timeout
	.cfi_endproc
	.cantunwind
	.fnend
                                        @ -- End function
	.file	6 "E:\\STM32\\Learning\\STM32H750_ART_PI_RGBLCD" "rt-thread/components/dfs/include\\dfs_poll.h"
	.file	7 "D:\\Keil_v5\\ARM\\ARMCLANG\\Bin\\..\\include" "stdint.h"
	.file	8 "E:\\STM32\\Learning\\STM32H750_ART_PI_RGBLCD" "rt-thread/components/dfs/include\\dfs_file.h"
	.file	9 "D:\\Keil_v5\\ARM\\ARMCLANG\\Bin\\..\\include" "time.h"
	.file	10 "E:\\STM32\\Learning\\STM32H750_ART_PI_RGBLCD" "rt-thread/include/rtlibc.h"
	.file	11 "E:\\STM32\\Learning\\STM32H750_ART_PI_RGBLCD" "rt-thread/components/dfs/include\\dfs.h"
	.file	12 "E:\\STM32\\Learning\\STM32H750_ART_PI_RGBLCD" "rt-thread/components/dfs/include\\dfs_fs.h"
	.file	13 "E:\\STM32\\Learning\\STM32H750_ART_PI_RGBLCD" "rt-thread/include/libc/libc_stat.h"
	.section	".note.GNU-stack","",%progbits
	.eabi_attribute	30, 6	@ Tag_ABI_optimization_goals
	.ARM_attribute	16, 1	@ Tag_AV_eba