	.text
	.syntax unified
	.eabi_attribute	67, "2.09"	@ Tag_conformance
	.cpu	cortex-m7
	.eabi_attribute	6, 13	@ Tag_CPU_arch
	.eabi_attribute	7, 77	@ Tag_CPU_arch_profile
	.eabi_attribute	8, 0	@ Tag_ARM_ISA_use
	.eabi_attribute	9, 2	@ Tag_THUMB_ISA_use
	.fpu	fpv5-d16
	.eabi_attribute	36, 1	@ Tag_FP_HP_extension
	.eabi_attribute	34, 1	@ Tag_CPU_unaligned_access
	.eabi_attribute	17, 1	@ Tag_ABI_PCS_GOT_use
	.eabi_attribute	20, 2	@ Tag_ABI_FP_denormal
	.eabi_attribute	21, 0	@ Tag_ABI_FP_exceptions
	.eabi_attribute	23, 1	@ Tag_ABI_FP_number_model
	.eabi_attribute	24, 1	@ Tag_ABI_align_needed
	.eabi_attribute	25, 1	@ Tag_ABI_align_preserved
	.eabi_attribute	28, 1	@ Tag_ABI_VFP_args
	.eabi_attribute	38, 1	@ Tag_ABI_FP_16bit_format
	.eabi_attribute	18, 2	@ Tag_ABI_PCS_wchar_t
	.eabi_attribute	26, 1	@ Tag_ABI_enum_size
	.eabi_attribute	14, 0	@ Tag_ABI_PCS_R9_use
	.file	"raw.c"
	.file	1 "D:\\Keil_v5\\ARM\\ARMCLANG\\Bin\\..\\include" "stdint.h"
	.file	2 "E:\\Smart-access-control\\Hardware\\CODE" "./rt-thread/components/net/lwip-2.0.2/src/include\\lwip/arch.h"
	.file	3 "E:\\Smart-access-control\\Hardware\\CODE" "./rt-thread/components/net/lwip-2.0.2/src/include\\lwip/ip4_addr.h"
	.file	4 "E:\\Smart-access-control\\Hardware\\CODE" "./rt-thread/components/net/lwip-2.0.2/src/include\\lwip/ip_addr.h"
	.file	5 "E:\\Smart-access-control\\Hardware\\CODE" "./rt-thread/components/net/lwip-2.0.2/src/include\\lwip/raw.h"
	.file	6 "E:\\Smart-access-control\\Hardware\\CODE" "./rt-thread/components/net/lwip-2.0.2/src/include\\lwip/pbuf.h"
	.file	7 "E:\\Smart-access-control\\Hardware\\CODE" "rt-thread/components/net/lwip-2.0.2/src/core/raw.c"
	.file	8 "E:\\Smart-access-control\\Hardware\\CODE" "./rt-thread/components/net/lwip-2.0.2/src/include\\lwip/netif.h"
	.file	9 "E:\\Smart-access-control\\Hardware\\CODE" "./rt-thread/components/net/lwip-2.0.2/src/include\\lwip/err.h"
	.file	10 "E:\\Smart-access-control\\Hardware\\CODE" "./rt-thread/components/net/lwip-2.0.2/src/include\\lwip/memp.h"
	.file	11 "E:\\Smart-access-control\\Hardware\\CODE" "./rt-thread/components/net/lwip-2.0.2/src/include\\lwip/prot/ip4.h"
	.section	.text.raw_input,"ax",%progbits
	.hidden	raw_input                       @ -- Begin function raw_input
	.globl	raw_input
	.p2align	3
	.type	raw_input,%function
	.code	16                              @ @raw_input
	.thumb_func
raw_input:
.Lfunc_begin0:
	.loc	7 129 0                         @ rt-thread/components/net/lwip-2.0.2/src/core/raw.c:129:0
	.fnstart
	.cfi_sections .debug_frame
	.cfi_startproc
@ %bb.0:
	.save	{r7, lr}
	push	{r7, lr}
	.cfi_def_cfa_offset 8
	.cfi_offset lr, -4
	.cfi_offset r7, -8
	.pad	#32
	sub	sp, #32
	.cfi_def_cfa_offset 40
	str	r0, [sp, #28]
	str	r1, [sp, #24]
	movs	r0, #0
.Ltmp0:
	.loc	7 132 8 prologue_end            @ rt-thread/components/net/lwip-2.0.2/src/core/raw.c:132:8
	str	r0, [sp, #4]                    @ 4-byte Spill
	strb.w	r0, [sp, #13]
	.loc	7 133 20                        @ rt-thread/components/net/lwip-2.0.2/src/core/raw.c:133:20
	movw	r0, :lower16:ip_data
	movt	r0, :upper16:ip_data
	ldr	r1, [r0]
	ldr	r0, [r0, #20]
	bl	ip4_addr_isbroadcast_u32
	mov	r1, r0
	.loc	7 133 8 is_stmt 0               @ rt-thread/components/net/lwip-2.0.2/src/core/raw.c:133:8
	ldr	r0, [sp, #4]                    @ 4-byte Reload
	strb.w	r1, [sp, #12]
.Ltmp1:
	.loc	7 151 13 is_stmt 1              @ rt-thread/components/net/lwip-2.0.2/src/core/raw.c:151:13
	ldr	r1, [sp, #28]
	ldr	r1, [r1, #4]
	ldrb	r1, [r1, #9]
	.loc	7 151 11 is_stmt 0              @ rt-thread/components/net/lwip-2.0.2/src/core/raw.c:151:11
	strh.w	r1, [sp, #14]
.Ltmp2:
	.loc	7 155 8 is_stmt 1               @ rt-thread/components/net/lwip-2.0.2/src/core/raw.c:155:8
	str	r0, [sp, #16]
	.loc	7 156 9                         @ rt-thread/components/net/lwip-2.0.2/src/core/raw.c:156:9
	movw	r0, :lower16:raw_pcbs
	movt	r0, :upper16:raw_pcbs
	ldr	r0, [r0]
	.loc	7 156 7 is_stmt 0               @ rt-thread/components/net/lwip-2.0.2/src/core/raw.c:156:7
	str	r0, [sp, #20]
	.loc	7 159 3 is_stmt 1               @ rt-thread/components/net/lwip-2.0.2/src/core/raw.c:159:3
	b	.LBB0_1
.LBB0_1:                                @ =>This Inner Loop Header: Depth=1
	.loc	7 159 11 is_stmt 0              @ rt-thread/components/net/lwip-2.0.2/src/core/raw.c:159:11
	ldrb.w	r1, [sp, #13]
	movs	r0, #0
	.loc	7 159 23                        @ rt-thread/components/net/lwip-2.0.2/src/core/raw.c:159:23
	str	r0, [sp]                        @ 4-byte Spill
	cbnz	r1, .LBB0_3
	b	.LBB0_2
.LBB0_2:                                @   in Loop: Header=BB0_1 Depth=1
	.loc	7 159 27                        @ rt-thread/components/net/lwip-2.0.2/src/core/raw.c:159:27
	ldr	r0, [sp, #20]
	.loc	7 159 31                        @ rt-thread/components/net/lwip-2.0.2/src/core/raw.c:159:31
	cmp	r0, #0
	it	ne
	movne	r0, #1
	str	r0, [sp]                        @ 4-byte Spill
	b	.LBB0_3
.LBB0_3:                                @   in Loop: Header=BB0_1 Depth=1
	.loc	7 0 0                           @ rt-thread/components/net/lwip-2.0.2/src/core/raw.c:0:0
	ldr	r0, [sp]                        @ 4-byte Reload
	.loc	7 159 3                         @ rt-thread/components/net/lwip-2.0.2/src/core/raw.c:159:3
	lsls	r0, r0, #31
	cmp	r0, #0
	beq	.LBB0_21
	b	.LBB0_4
.LBB0_4:                                @   in Loop: Header=BB0_1 Depth=1
.Ltmp3:
	.loc	7 160 10 is_stmt 1              @ rt-thread/components/net/lwip-2.0.2/src/core/raw.c:160:10
	ldr	r0, [sp, #20]
	.loc	7 160 15 is_stmt 0              @ rt-thread/components/net/lwip-2.0.2/src/core/raw.c:160:15
	ldrb	r0, [r0, #16]
	.loc	7 160 27                        @ rt-thread/components/net/lwip-2.0.2/src/core/raw.c:160:27
	ldrsh.w	r1, [sp, #14]
	.loc	7 160 34                        @ rt-thread/components/net/lwip-2.0.2/src/core/raw.c:160:34
	cmp	r0, r1
	bne	.LBB0_20
	b	.LBB0_5
.LBB0_5:                                @   in Loop: Header=BB0_1 Depth=1
	.loc	7 160 53                        @ rt-thread/components/net/lwip-2.0.2/src/core/raw.c:160:53
	ldr	r0, [sp, #20]
	.loc	7 160 58                        @ rt-thread/components/net/lwip-2.0.2/src/core/raw.c:160:58
	ldrb.w	r1, [sp, #12]
	.loc	7 160 37                        @ rt-thread/components/net/lwip-2.0.2/src/core/raw.c:160:37
	bl	raw_input_match
.Ltmp4:
	.loc	7 160 9                         @ rt-thread/components/net/lwip-2.0.2/src/core/raw.c:160:9
	cmp	r0, #0
	beq	.LBB0_20
	b	.LBB0_6
.LBB0_6:                                @   in Loop: Header=BB0_1 Depth=1
.Ltmp5:
	.loc	7 162 11 is_stmt 1              @ rt-thread/components/net/lwip-2.0.2/src/core/raw.c:162:11
	ldr	r0, [sp, #20]
	.loc	7 162 16 is_stmt 0              @ rt-thread/components/net/lwip-2.0.2/src/core/raw.c:162:16
	ldr	r0, [r0, #20]
.Ltmp6:
	.loc	7 162 11                        @ rt-thread/components/net/lwip-2.0.2/src/core/raw.c:162:11
	cmp	r0, #0
	beq	.LBB0_19
	b	.LBB0_7
.LBB0_7:                                @   in Loop: Header=BB0_1 Depth=1
.Ltmp7:
	.loc	7 164 29 is_stmt 1              @ rt-thread/components/net/lwip-2.0.2/src/core/raw.c:164:29
	ldr	r0, [sp, #28]
	.loc	7 164 32 is_stmt 0              @ rt-thread/components/net/lwip-2.0.2/src/core/raw.c:164:32
	ldr	r0, [r0, #4]
	.loc	7 164 15                        @ rt-thread/components/net/lwip-2.0.2/src/core/raw.c:164:15
	str	r0, [sp, #8]
	.loc	7 167 17 is_stmt 1              @ rt-thread/components/net/lwip-2.0.2/src/core/raw.c:167:17
	ldr	r1, [sp, #20]
	.loc	7 167 22 is_stmt 0              @ rt-thread/components/net/lwip-2.0.2/src/core/raw.c:167:22
	ldr.w	r12, [r1, #20]
	.loc	7 167 32                        @ rt-thread/components/net/lwip-2.0.2/src/core/raw.c:167:32
	ldr	r0, [r1, #24]
	.loc	7 167 47                        @ rt-thread/components/net/lwip-2.0.2/src/core/raw.c:167:47
	ldr	r2, [sp, #28]
	.loc	7 167 17                        @ rt-thread/components/net/lwip-2.0.2/src/core/raw.c:167:17
	movw	r3, :lower16:ip_data
	movt	r3, :upper16:ip_data
	adds	r3, #16
	blx	r12
	.loc	7 167 15                        @ rt-thread/components/net/lwip-2.0.2/src/core/raw.c:167:15
	strb.w	r0, [sp, #13]
.Ltmp8:
	.loc	7 168 13 is_stmt 1              @ rt-thread/components/net/lwip-2.0.2/src/core/raw.c:168:13
	ldrb.w	r0, [sp, #13]
.Ltmp9:
	.loc	7 168 13 is_stmt 0              @ rt-thread/components/net/lwip-2.0.2/src/core/raw.c:168:13
	cbz	r0, .LBB0_11
	b	.LBB0_8
.LBB0_8:                                @   in Loop: Header=BB0_1 Depth=1
	.loc	7 0 13                          @ rt-thread/components/net/lwip-2.0.2/src/core/raw.c:0:13
	movs	r0, #0
.Ltmp10:
	.loc	7 170 13 is_stmt 1              @ rt-thread/components/net/lwip-2.0.2/src/core/raw.c:170:13
	str	r0, [sp, #28]
	movs	r0, #1
	.loc	7 171 17                        @ rt-thread/components/net/lwip-2.0.2/src/core/raw.c:171:17
	strb.w	r0, [sp, #13]
.Ltmp11:
	.loc	7 172 15                        @ rt-thread/components/net/lwip-2.0.2/src/core/raw.c:172:15
	ldr	r0, [sp, #16]
.Ltmp12:
	.loc	7 172 15 is_stmt 0              @ rt-thread/components/net/lwip-2.0.2/src/core/raw.c:172:15
	cbz	r0, .LBB0_10
	b	.LBB0_9
.LBB0_9:                                @   in Loop: Header=BB0_1 Depth=1
.Ltmp13:
	.loc	7 175 26 is_stmt 1              @ rt-thread/components/net/lwip-2.0.2/src/core/raw.c:175:26
	ldr	r0, [sp, #20]
	.loc	7 175 31 is_stmt 0              @ rt-thread/components/net/lwip-2.0.2/src/core/raw.c:175:31
	ldr	r0, [r0, #12]
	.loc	7 175 13                        @ rt-thread/components/net/lwip-2.0.2/src/core/raw.c:175:13
	ldr	r1, [sp, #16]
	.loc	7 175 24                        @ rt-thread/components/net/lwip-2.0.2/src/core/raw.c:175:24
	str	r0, [r1, #12]
	.loc	7 176 25 is_stmt 1              @ rt-thread/components/net/lwip-2.0.2/src/core/raw.c:176:25
	movw	r1, :lower16:raw_pcbs
	movt	r1, :upper16:raw_pcbs
	ldr	r0, [r1]
	.loc	7 176 13 is_stmt 0              @ rt-thread/components/net/lwip-2.0.2/src/core/raw.c:176:13
	ldr	r2, [sp, #20]
	.loc	7 176 23                        @ rt-thread/components/net/lwip-2.0.2/src/core/raw.c:176:23
	str	r0, [r2, #12]
	.loc	7 177 24 is_stmt 1              @ rt-thread/components/net/lwip-2.0.2/src/core/raw.c:177:24
	ldr	r0, [sp, #20]
	.loc	7 177 22 is_stmt 0              @ rt-thread/components/net/lwip-2.0.2/src/core/raw.c:177:22
	str	r0, [r1]
	.loc	7 178 11 is_stmt 1              @ rt-thread/components/net/lwip-2.0.2/src/core/raw.c:178:11
	b	.LBB0_10
.Ltmp14:
.LBB0_10:                               @   in Loop: Header=BB0_1 Depth=1
	.loc	7 179 9                         @ rt-thread/components/net/lwip-2.0.2/src/core/raw.c:179:9
	b	.LBB0_18
.Ltmp15:
.LBB0_11:                               @   in Loop: Header=BB0_1 Depth=1
	.loc	7 181 11                        @ rt-thread/components/net/lwip-2.0.2/src/core/raw.c:181:11
	b	.LBB0_12
.LBB0_12:                               @   in Loop: Header=BB0_1 Depth=1
.Ltmp16:
	.loc	7 181 11 is_stmt 0              @ rt-thread/components/net/lwip-2.0.2/src/core/raw.c:181:11
	ldr	r0, [sp, #28]
	ldr	r0, [r0, #4]
	ldr	r1, [sp, #8]
.Ltmp17:
	.loc	7 181 11                        @ rt-thread/components/net/lwip-2.0.2/src/core/raw.c:181:11
	cmp	r0, r1
	beq	.LBB0_16
	b	.LBB0_13
.LBB0_13:                               @   in Loop: Header=BB0_1 Depth=1
.Ltmp18:
	.loc	7 181 11                        @ rt-thread/components/net/lwip-2.0.2/src/core/raw.c:181:11
	b	.LBB0_14
.LBB0_14:                               @   in Loop: Header=BB0_1 Depth=1
.Ltmp19:
	.loc	7 181 11                        @ rt-thread/components/net/lwip-2.0.2/src/core/raw.c:181:11
	movw	r0, :lower16:.L.str
	movt	r0, :upper16:.L.str
	bl	rt_kprintf
	movw	r0, :lower16:.L.str.1
	movt	r0, :upper16:.L.str.1
	movs	r1, #182
	bl	sys_arch_assert
	b	.LBB0_15
.Ltmp20:
.LBB0_15:                               @   in Loop: Header=BB0_1 Depth=1
	.loc	7 181 11                        @ rt-thread/components/net/lwip-2.0.2/src/core/raw.c:181:11
	b	.LBB0_16
.Ltmp21:
.LBB0_16:                               @   in Loop: Header=BB0_1 Depth=1
	.loc	7 181 11                        @ rt-thread/components/net/lwip-2.0.2/src/core/raw.c:181:11
	b	.LBB0_17
.Ltmp22:
.LBB0_17:                               @   in Loop: Header=BB0_1 Depth=1
	.loc	7 0 11                          @ rt-thread/components/net/lwip-2.0.2/src/core/raw.c:0:11
	b	.LBB0_18
.LBB0_18:                               @   in Loop: Header=BB0_1 Depth=1
	.loc	7 184 7 is_stmt 1               @ rt-thread/components/net/lwip-2.0.2/src/core/raw.c:184:7
	b	.LBB0_19
.Ltmp23:
.LBB0_19:                               @   in Loop: Header=BB0_1 Depth=1
	.loc	7 186 5                         @ rt-thread/components/net/lwip-2.0.2/src/core/raw.c:186:5
	b	.LBB0_20
.Ltmp24:
.LBB0_20:                               @   in Loop: Header=BB0_1 Depth=1
	.loc	7 188 12                        @ rt-thread/components/net/lwip-2.0.2/src/core/raw.c:188:12
	ldr	r0, [sp, #20]
	.loc	7 188 10 is_stmt 0              @ rt-thread/components/net/lwip-2.0.2/src/core/raw.c:188:10
	str	r0, [sp, #16]
	.loc	7 189 11 is_stmt 1              @ rt-thread/components/net/lwip-2.0.2/src/core/raw.c:189:11
	ldr	r0, [sp, #20]
	.loc	7 189 16 is_stmt 0              @ rt-thread/components/net/lwip-2.0.2/src/core/raw.c:189:16
	ldr	r0, [r0, #12]
	.loc	7 189 9                         @ rt-thread/components/net/lwip-2.0.2/src/core/raw.c:189:9
	str	r0, [sp, #20]
.Ltmp25:
	.loc	7 159 3 is_stmt 1               @ rt-thread/components/net/lwip-2.0.2/src/core/raw.c:159:3
	b	.LBB0_1
.LBB0_21:
	.loc	7 191 10                        @ rt-thread/components/net/lwip-2.0.2/src/core/raw.c:191:10
	ldrb.w	r0, [sp, #13]
	.loc	7 191 3 is_stmt 0               @ rt-thread/components/net/lwip-2.0.2/src/core/raw.c:191:3
	add	sp, #32
	pop	{r7, pc}
.Ltmp26:
.Lfunc_end0:
	.size	raw_input, .Lfunc_end0-raw_input
	.cfi_endproc
	.cantunwind
	.fnend
                                        @ -- End function
	.section	.text.raw_input_match,"ax",%progbits
	.p2align	3                               @ -- Begin function raw_input_match
	.type	raw_input_match,%function
	.code	16                              @ @raw_input_match
	.thumb_func
raw_input_match:
.Lfunc_begin1:
	.loc	7 69 0 is_stmt 1                @ rt-thread/components/net/lwip-2.0.2/src/core/raw.c:69:0
	.fnstart
	.cfi_startproc
@ %bb.0:
	.pad	#12
	sub	sp, #12
	.cfi_def_cfa_offset 12
                                        @ kill: def $r2 killed $r1
	str	r0, [sp, #4]
	strb.w	r1, [sp, #3]
.Ltmp27:
	.loc	7 70 3 prologue_end             @ rt-thread/components/net/lwip-2.0.2/src/core/raw.c:70:3
	ldrb.w	r0, [sp, #3]
.Ltmp28:
	.loc	7 89 9                          @ rt-thread/components/net/lwip-2.0.2/src/core/raw.c:89:9
	cbz	r0, .LBB1_7
	b	.LBB1_1
.LBB1_1:
.Ltmp29:
	.loc	7 91 11                         @ rt-thread/components/net/lwip-2.0.2/src/core/raw.c:91:11
	ldr	r0, [sp, #4]
	ldrb	r0, [r0, #8]
.Ltmp30:
	.loc	7 91 11 is_stmt 0               @ rt-thread/components/net/lwip-2.0.2/src/core/raw.c:91:11
	lsls	r0, r0, #26
	cmp	r0, #0
	bpl	.LBB1_6
	b	.LBB1_2
.LBB1_2:
.Ltmp31:
	.loc	7 94 13 is_stmt 1               @ rt-thread/components/net/lwip-2.0.2/src/core/raw.c:94:13
	ldr	r0, [sp, #4]
	cbz	r0, .LBB1_4
	b	.LBB1_3
.LBB1_3:
	ldr	r0, [sp, #4]
	ldr	r0, [r0]
.Ltmp32:
	.loc	7 94 13 is_stmt 0               @ rt-thread/components/net/lwip-2.0.2/src/core/raw.c:94:13
	cbnz	r0, .LBB1_5
	b	.LBB1_4
.LBB1_4:
	.loc	7 0 13                          @ rt-thread/components/net/lwip-2.0.2/src/core/raw.c:0:13
	movs	r0, #1
.Ltmp33:
	.loc	7 95 11 is_stmt 1               @ rt-thread/components/net/lwip-2.0.2/src/core/raw.c:95:11
	strb.w	r0, [sp, #11]
	b	.LBB1_13
.Ltmp34:
.LBB1_5:
	.loc	7 97 7                          @ rt-thread/components/net/lwip-2.0.2/src/core/raw.c:97:7
	b	.LBB1_6
.Ltmp35:
.LBB1_6:
	.loc	7 98 5                          @ rt-thread/components/net/lwip-2.0.2/src/core/raw.c:98:5
	b	.LBB1_12
.Ltmp36:
.LBB1_7:
	.loc	7 101 9                         @ rt-thread/components/net/lwip-2.0.2/src/core/raw.c:101:9
	ldr	r0, [sp, #4]
	cbz	r0, .LBB1_10
	b	.LBB1_8
.LBB1_8:
	ldr	r0, [sp, #4]
	ldr	r0, [r0]
	.loc	7 101 39 is_stmt 0              @ rt-thread/components/net/lwip-2.0.2/src/core/raw.c:101:39
	cbz	r0, .LBB1_10
	b	.LBB1_9
.LBB1_9:
	.loc	7 102 8 is_stmt 1               @ rt-thread/components/net/lwip-2.0.2/src/core/raw.c:102:8
	ldr	r0, [sp, #4]
	ldr	r0, [r0]
	movw	r1, :lower16:ip_data
	movt	r1, :upper16:ip_data
	ldr	r1, [r1, #20]
.Ltmp37:
	.loc	7 101 9                         @ rt-thread/components/net/lwip-2.0.2/src/core/raw.c:101:9
	cmp	r0, r1
	bne	.LBB1_11
	b	.LBB1_10
.LBB1_10:
	.loc	7 0 9 is_stmt 0                 @ rt-thread/components/net/lwip-2.0.2/src/core/raw.c:0:9
	movs	r0, #1
.Ltmp38:
	.loc	7 103 7 is_stmt 1               @ rt-thread/components/net/lwip-2.0.2/src/core/raw.c:103:7
	strb.w	r0, [sp, #11]
	b	.LBB1_13
.Ltmp39:
.LBB1_11:
	.loc	7 0 7 is_stmt 0                 @ rt-thread/components/net/lwip-2.0.2/src/core/raw.c:0:7
	b	.LBB1_12
.LBB1_12:
	movs	r0, #0
	.loc	7 107 3 is_stmt 1               @ rt-thread/components/net/lwip-2.0.2/src/core/raw.c:107:3
	strb.w	r0, [sp, #11]
	b	.LBB1_13
.LBB1_13:
	.loc	7 108 1                         @ rt-thread/components/net/lwip-2.0.2/src/core/raw.c:108:1
	ldrb.w	r0, [sp, #11]
	add	sp, #12
	bx	lr
.Ltmp40:
.Lfunc_end1:
	.size	raw_input_match, .Lfunc_end1-raw_input_match
	.cfi_endproc
	.cantunwind
	.fnend
                                        @ -- End function
	.section	.text.raw_bind,"ax",%progbits
	.hidden	raw_bind                        @ -- Begin function raw_bind
	.globl	raw_bind
	.p2align	3
	.type	raw_bind,%function
	.code	16                              @ @raw_bind
	.thumb_func
raw_bind:
.Lfunc_begin2:
	.loc	7 211 0                         @ rt-thread/components/net/lwip-2.0.2/src/core/raw.c:211:0
	.fnstart
	.cfi_startproc
@ %bb.0:
	.pad	#16
	sub	sp, #16
	.cfi_def_cfa_offset 16
	str	r0, [sp, #8]
	str	r1, [sp, #4]
.Ltmp41:
	.loc	7 212 8 prologue_end            @ rt-thread/components/net/lwip-2.0.2/src/core/raw.c:212:8
	ldr	r0, [sp, #8]
	.loc	7 212 21 is_stmt 0              @ rt-thread/components/net/lwip-2.0.2/src/core/raw.c:212:21
	cbz	r0, .LBB2_2
	b	.LBB2_1
.LBB2_1:
	.loc	7 212 25                        @ rt-thread/components/net/lwip-2.0.2/src/core/raw.c:212:25
	ldr	r0, [sp, #4]
.Ltmp42:
	.loc	7 212 7                         @ rt-thread/components/net/lwip-2.0.2/src/core/raw.c:212:7
	cbnz	r0, .LBB2_3
	b	.LBB2_2
.LBB2_2:
	.loc	7 0 7                           @ rt-thread/components/net/lwip-2.0.2/src/core/raw.c:0:7
	movs	r0, #250
.Ltmp43:
	.loc	7 213 5 is_stmt 1               @ rt-thread/components/net/lwip-2.0.2/src/core/raw.c:213:5
	strb.w	r0, [sp, #15]
	b	.LBB2_7
.Ltmp44:
.LBB2_3:
	.loc	7 215 3                         @ rt-thread/components/net/lwip-2.0.2/src/core/raw.c:215:3
	ldr	r0, [sp, #4]
	cbnz	r0, .LBB2_5
	b	.LBB2_4
.LBB2_4:
	.loc	7 0 3 is_stmt 0                 @ rt-thread/components/net/lwip-2.0.2/src/core/raw.c:0:3
	movs	r0, #0
	.loc	7 215 3                         @ rt-thread/components/net/lwip-2.0.2/src/core/raw.c:215:3
	str	r0, [sp]                        @ 4-byte Spill
	b	.LBB2_6
.LBB2_5:
	ldr	r0, [sp, #4]
	ldr	r0, [r0]
	str	r0, [sp]                        @ 4-byte Spill
	b	.LBB2_6
.LBB2_6:
	ldr	r0, [sp]                        @ 4-byte Reload
	ldr	r1, [sp, #8]
	str	r0, [r1]
	movs	r0, #0
	.loc	7 216 3 is_stmt 1               @ rt-thread/components/net/lwip-2.0.2/src/core/raw.c:216:3
	strb.w	r0, [sp, #15]
	b	.LBB2_7
.LBB2_7:
	.loc	7 217 1                         @ rt-thread/components/net/lwip-2.0.2/src/core/raw.c:217:1
	ldrsb.w	r0, [sp, #15]
	add	sp, #16
	bx	lr
.Ltmp45:
.Lfunc_end2:
	.size	raw_bind, .Lfunc_end2-raw_bind
	.cfi_endproc
	.cantunwind
	.fnend
                                        @ -- End function
	.section	.text.raw_connect,"ax",%progbits
	.hidden	raw_connect                     @ -- Begin function raw_connect
	.globl	raw_connect
	.p2align	3
	.type	raw_connect,%function
	.code	16                              @ @raw_connect
	.thumb_func
raw_connect:
.Lfunc_begin3:
	.loc	7 235 0                         @ rt-thread/components/net/lwip-2.0.2/src/core/raw.c:235:0
	.fnstart
	.cfi_startproc
@ %bb.0:
	.pad	#16
	sub	sp, #16
	.cfi_def_cfa_offset 16
	str	r0, [sp, #8]
	str	r1, [sp, #4]
.Ltmp46:
	.loc	7 236 8 prologue_end            @ rt-thread/components/net/lwip-2.0.2/src/core/raw.c:236:8
	ldr	r0, [sp, #8]
	.loc	7 236 21 is_stmt 0              @ rt-thread/components/net/lwip-2.0.2/src/core/raw.c:236:21
	cbz	r0, .LBB3_2
	b	.LBB3_1
.LBB3_1:
	.loc	7 236 25                        @ rt-thread/components/net/lwip-2.0.2/src/core/raw.c:236:25
	ldr	r0, [sp, #4]
.Ltmp47:
	.loc	7 236 7                         @ rt-thread/components/net/lwip-2.0.2/src/core/raw.c:236:7
	cbnz	r0, .LBB3_3
	b	.LBB3_2
.LBB3_2:
	.loc	7 0 7                           @ rt-thread/components/net/lwip-2.0.2/src/core/raw.c:0:7
	movs	r0, #250
.Ltmp48:
	.loc	7 237 5 is_stmt 1               @ rt-thread/components/net/lwip-2.0.2/src/core/raw.c:237:5
	strb.w	r0, [sp, #15]
	b	.LBB3_7
.Ltmp49:
.LBB3_3:
	.loc	7 239 3                         @ rt-thread/components/net/lwip-2.0.2/src/core/raw.c:239:3
	ldr	r0, [sp, #4]
	cbnz	r0, .LBB3_5
	b	.LBB3_4
.LBB3_4:
	.loc	7 0 3 is_stmt 0                 @ rt-thread/components/net/lwip-2.0.2/src/core/raw.c:0:3
	movs	r0, #0
	.loc	7 239 3                         @ rt-thread/components/net/lwip-2.0.2/src/core/raw.c:239:3
	str	r0, [sp]                        @ 4-byte Spill
	b	.LBB3_6
.LBB3_5:
	ldr	r0, [sp, #4]
	ldr	r0, [r0]
	str	r0, [sp]                        @ 4-byte Spill
	b	.LBB3_6
.LBB3_6:
	ldr	r0, [sp]                        @ 4-byte Reload
	ldr	r1, [sp, #8]
	str	r0, [r1, #4]
	movs	r0, #0
	.loc	7 240 3 is_stmt 1               @ rt-thread/components/net/lwip-2.0.2/src/core/raw.c:240:3
	strb.w	r0, [sp, #15]
	b	.LBB3_7
.LBB3_7:
	.loc	7 241 1                         @ rt-thread/components/net/lwip-2.0.2/src/core/raw.c:241:1
	ldrsb.w	r0, [sp, #15]
	add	sp, #16
	bx	lr
.Ltmp50:
.Lfunc_end3:
	.size	raw_connect, .Lfunc_end3-raw_connect
	.cfi_endproc
	.cantunwind
	.fnend
                                        @ -- End function
	.section	.text.raw_recv,"ax",%progbits
	.hidden	raw_recv                        @ -- Begin function raw_recv
	.globl	raw_recv
	.p2align	3
	.type	raw_recv,%function
	.code	16                              @ @raw_recv
	.thumb_func
raw_recv:
.Lfunc_begin4:
	.loc	7 256 0                         @ rt-thread/components/net/lwip-2.0.2/src/core/raw.c:256:0
	.fnstart
	.cfi_startproc
@ %bb.0:
	.pad	#12
	sub	sp, #12
	.cfi_def_cfa_offset 12
	str	r0, [sp, #8]
	str	r1, [sp, #4]
	str	r2, [sp]
.Ltmp51:
	.loc	7 258 15 prologue_end           @ rt-thread/components/net/lwip-2.0.2/src/core/raw.c:258:15
	ldr	r0, [sp, #4]
	.loc	7 258 3 is_stmt 0               @ rt-thread/components/net/lwip-2.0.2/src/core/raw.c:258:3
	ldr	r1, [sp, #8]
	.loc	7 258 13                        @ rt-thread/components/net/lwip-2.0.2/src/core/raw.c:258:13
	str	r0, [r1, #20]
	.loc	7 259 19 is_stmt 1              @ rt-thread/components/net/lwip-2.0.2/src/core/raw.c:259:19
	ldr	r0, [sp]
	.loc	7 259 3 is_stmt 0               @ rt-thread/components/net/lwip-2.0.2/src/core/raw.c:259:3
	ldr	r1, [sp, #8]
	.loc	7 259 17                        @ rt-thread/components/net/lwip-2.0.2/src/core/raw.c:259:17
	str	r0, [r1, #24]
	.loc	7 260 1 is_stmt 1               @ rt-thread/components/net/lwip-2.0.2/src/core/raw.c:260:1
	add	sp, #12
	bx	lr
.Ltmp52:
.Lfunc_end4:
	.size	raw_recv, .Lfunc_end4-raw_recv
	.cfi_endproc
	.cantunwind
	.fnend
                                        @ -- End function
	.section	.text.raw_sendto,"ax",%progbits
	.hidden	raw_sendto                      @ -- Begin function raw_sendto
	.globl	raw_sendto
	.p2align	3
	.type	raw_sendto,%function
	.code	16                              @ @raw_sendto
	.thumb_func
raw_sendto:
.Lfunc_begin5:
	.loc	7 277 0                         @ rt-thread/components/net/lwip-2.0.2/src/core/raw.c:277:0
	.fnstart
	.cfi_startproc
@ %bb.0:
	.save	{r4, r5, r7, lr}
	push	{r4, r5, r7, lr}
	.cfi_def_cfa_offset 16
	.cfi_offset lr, -4
	.cfi_offset r7, -8
	.cfi_offset r5, -12
	.cfi_offset r4, -16
	.pad	#56
	sub	sp, #56
	.cfi_def_cfa_offset 72
	str	r0, [sp, #48]
	str	r1, [sp, #44]
	str	r2, [sp, #40]
.Ltmp53:
	.loc	7 284 8 prologue_end            @ rt-thread/components/net/lwip-2.0.2/src/core/raw.c:284:8
	ldr	r0, [sp, #48]
	.loc	7 284 21 is_stmt 0              @ rt-thread/components/net/lwip-2.0.2/src/core/raw.c:284:21
	cbz	r0, .LBB5_2
	b	.LBB5_1
.LBB5_1:
	.loc	7 284 25                        @ rt-thread/components/net/lwip-2.0.2/src/core/raw.c:284:25
	ldr	r0, [sp, #40]
.Ltmp54:
	.loc	7 284 7                         @ rt-thread/components/net/lwip-2.0.2/src/core/raw.c:284:7
	cbnz	r0, .LBB5_3
	b	.LBB5_2
.LBB5_2:
	.loc	7 0 7                           @ rt-thread/components/net/lwip-2.0.2/src/core/raw.c:0:7
	movs	r0, #250
.Ltmp55:
	.loc	7 285 5 is_stmt 1               @ rt-thread/components/net/lwip-2.0.2/src/core/raw.c:285:5
	strb.w	r0, [sp, #55]
	b	.LBB5_35
.Ltmp56:
.LBB5_3:
	.loc	7 0 5 is_stmt 0                 @ rt-thread/components/net/lwip-2.0.2/src/core/raw.c:0:5
	movs	r0, #20
	.loc	7 290 15 is_stmt 1              @ rt-thread/components/net/lwip-2.0.2/src/core/raw.c:290:15
	strh.w	r0, [sp, #22]
.Ltmp57:
	.loc	7 300 19                        @ rt-thread/components/net/lwip-2.0.2/src/core/raw.c:300:19
	ldr	r0, [sp, #44]
	.loc	7 300 22 is_stmt 0              @ rt-thread/components/net/lwip-2.0.2/src/core/raw.c:300:22
	ldrsh.w	r1, [sp, #22]
	.loc	7 300 7                         @ rt-thread/components/net/lwip-2.0.2/src/core/raw.c:300:7
	bl	pbuf_header
.Ltmp58:
	.loc	7 300 7                         @ rt-thread/components/net/lwip-2.0.2/src/core/raw.c:300:7
	cbz	r0, .LBB5_9
	b	.LBB5_4
.LBB5_4:
	.loc	7 0 7                           @ rt-thread/components/net/lwip-2.0.2/src/core/raw.c:0:7
	movs	r0, #1
	movs	r2, #0
.Ltmp59:
	.loc	7 302 9 is_stmt 1               @ rt-thread/components/net/lwip-2.0.2/src/core/raw.c:302:9
	mov	r1, r2
	bl	pbuf_alloc
	.loc	7 302 7 is_stmt 0               @ rt-thread/components/net/lwip-2.0.2/src/core/raw.c:302:7
	str	r0, [sp, #24]
.Ltmp60:
	.loc	7 304 9 is_stmt 1               @ rt-thread/components/net/lwip-2.0.2/src/core/raw.c:304:9
	ldr	r0, [sp, #24]
.Ltmp61:
	.loc	7 304 9 is_stmt 0               @ rt-thread/components/net/lwip-2.0.2/src/core/raw.c:304:9
	cbnz	r0, .LBB5_6
	b	.LBB5_5
.LBB5_5:
	.loc	7 0 9                           @ rt-thread/components/net/lwip-2.0.2/src/core/raw.c:0:9
	movs	r0, #255
.Ltmp62:
	.loc	7 306 7 is_stmt 1               @ rt-thread/components/net/lwip-2.0.2/src/core/raw.c:306:7
	strb.w	r0, [sp, #55]
	b	.LBB5_35
.Ltmp63:
.LBB5_6:
	.loc	7 308 9                         @ rt-thread/components/net/lwip-2.0.2/src/core/raw.c:308:9
	ldr	r0, [sp, #44]
	.loc	7 308 12 is_stmt 0              @ rt-thread/components/net/lwip-2.0.2/src/core/raw.c:308:12
	ldrh	r0, [r0, #8]
.Ltmp64:
	.loc	7 308 9                         @ rt-thread/components/net/lwip-2.0.2/src/core/raw.c:308:9
	cbz	r0, .LBB5_8
	b	.LBB5_7
.LBB5_7:
.Ltmp65:
	.loc	7 310 18 is_stmt 1              @ rt-thread/components/net/lwip-2.0.2/src/core/raw.c:310:18
	ldr	r0, [sp, #24]
	.loc	7 310 21 is_stmt 0              @ rt-thread/components/net/lwip-2.0.2/src/core/raw.c:310:21
	ldr	r1, [sp, #44]
	.loc	7 310 7                         @ rt-thread/components/net/lwip-2.0.2/src/core/raw.c:310:7
	bl	pbuf_chain
	.loc	7 311 5 is_stmt 1               @ rt-thread/components/net/lwip-2.0.2/src/core/raw.c:311:5
	b	.LBB5_8
.Ltmp66:
.LBB5_8:
	.loc	7 314 3                         @ rt-thread/components/net/lwip-2.0.2/src/core/raw.c:314:3
	b	.LBB5_16
.Ltmp67:
.LBB5_9:
	.loc	7 316 9                         @ rt-thread/components/net/lwip-2.0.2/src/core/raw.c:316:9
	ldr	r0, [sp, #44]
	.loc	7 316 7 is_stmt 0               @ rt-thread/components/net/lwip-2.0.2/src/core/raw.c:316:7
	str	r0, [sp, #24]
.Ltmp68:
	.loc	7 317 21 is_stmt 1              @ rt-thread/components/net/lwip-2.0.2/src/core/raw.c:317:21
	ldr	r0, [sp, #24]
	.loc	7 317 25 is_stmt 0              @ rt-thread/components/net/lwip-2.0.2/src/core/raw.c:317:25
	ldrh.w	r1, [sp, #22]
	.loc	7 317 24                        @ rt-thread/components/net/lwip-2.0.2/src/core/raw.c:317:24
	rsbs	r1, r1, #0
	.loc	7 317 9                         @ rt-thread/components/net/lwip-2.0.2/src/core/raw.c:317:9
	sxth	r1, r1
	bl	pbuf_header
.Ltmp69:
	.loc	7 317 9                         @ rt-thread/components/net/lwip-2.0.2/src/core/raw.c:317:9
	cbz	r0, .LBB5_15
	b	.LBB5_10
.LBB5_10:
.Ltmp70:
	.loc	7 318 7 is_stmt 1               @ rt-thread/components/net/lwip-2.0.2/src/core/raw.c:318:7
	b	.LBB5_11
.LBB5_11:
.Ltmp71:
	.loc	7 318 7 is_stmt 0               @ rt-thread/components/net/lwip-2.0.2/src/core/raw.c:318:7
	b	.LBB5_12
.LBB5_12:
.Ltmp72:
	.loc	7 318 7                         @ rt-thread/components/net/lwip-2.0.2/src/core/raw.c:318:7
	movw	r0, :lower16:.L.str.2
	movt	r0, :upper16:.L.str.2
	bl	rt_kprintf
	movw	r0, :lower16:.L.str.1
	movt	r0, :upper16:.L.str.1
	mov.w	r1, #318
	bl	sys_arch_assert
	b	.LBB5_13
.Ltmp73:
.LBB5_13:
	.loc	7 318 7                         @ rt-thread/components/net/lwip-2.0.2/src/core/raw.c:318:7
	b	.LBB5_14
.Ltmp74:
.LBB5_14:
	.loc	7 0 7                           @ rt-thread/components/net/lwip-2.0.2/src/core/raw.c:0:7
	movs	r0, #255
	.loc	7 319 7 is_stmt 1               @ rt-thread/components/net/lwip-2.0.2/src/core/raw.c:319:7
	strb.w	r0, [sp, #55]
	b	.LBB5_35
.Ltmp75:
.LBB5_15:
	.loc	7 0 7 is_stmt 0                 @ rt-thread/components/net/lwip-2.0.2/src/core/raw.c:0:7
	b	.LBB5_16
.LBB5_16:
.Ltmp76:
	.loc	7 327 13 is_stmt 1              @ rt-thread/components/net/lwip-2.0.2/src/core/raw.c:327:13
	ldr	r0, [sp, #40]
	bl	ip4_route
	.loc	7 327 11 is_stmt 0              @ rt-thread/components/net/lwip-2.0.2/src/core/raw.c:327:11
	str	r0, [sp, #32]
.Ltmp77:
	.loc	7 330 7 is_stmt 1               @ rt-thread/components/net/lwip-2.0.2/src/core/raw.c:330:7
	ldr	r0, [sp, #32]
.Ltmp78:
	.loc	7 330 7 is_stmt 0               @ rt-thread/components/net/lwip-2.0.2/src/core/raw.c:330:7
	cbnz	r0, .LBB5_20
	b	.LBB5_17
.LBB5_17:
.Ltmp79:
	.loc	7 334 9 is_stmt 1               @ rt-thread/components/net/lwip-2.0.2/src/core/raw.c:334:9
	ldr	r0, [sp, #24]
	.loc	7 334 14 is_stmt 0              @ rt-thread/components/net/lwip-2.0.2/src/core/raw.c:334:14
	ldr	r1, [sp, #44]
.Ltmp80:
	.loc	7 334 9                         @ rt-thread/components/net/lwip-2.0.2/src/core/raw.c:334:9
	cmp	r0, r1
	beq	.LBB5_19
	b	.LBB5_18
.LBB5_18:
.Ltmp81:
	.loc	7 335 17 is_stmt 1              @ rt-thread/components/net/lwip-2.0.2/src/core/raw.c:335:17
	ldr	r0, [sp, #24]
	.loc	7 335 7 is_stmt 0               @ rt-thread/components/net/lwip-2.0.2/src/core/raw.c:335:7
	bl	pbuf_free
	.loc	7 336 5 is_stmt 1               @ rt-thread/components/net/lwip-2.0.2/src/core/raw.c:336:5
	b	.LBB5_19
.Ltmp82:
.LBB5_19:
	.loc	7 0 5 is_stmt 0                 @ rt-thread/components/net/lwip-2.0.2/src/core/raw.c:0:5
	movs	r0, #252
	.loc	7 337 5 is_stmt 1               @ rt-thread/components/net/lwip-2.0.2/src/core/raw.c:337:5
	strb.w	r0, [sp, #55]
	b	.LBB5_35
.Ltmp83:
.LBB5_20:
	.loc	7 344 10                        @ rt-thread/components/net/lwip-2.0.2/src/core/raw.c:344:10
	ldr	r0, [sp, #48]
	ldrb	r0, [r0, #8]
	.loc	7 344 44 is_stmt 0              @ rt-thread/components/net/lwip-2.0.2/src/core/raw.c:344:44
	lsls	r0, r0, #26
	cmp	r0, #0
	bmi	.LBB5_25
	b	.LBB5_21
.LBB5_21:
	.loc	7 344 47                        @ rt-thread/components/net/lwip-2.0.2/src/core/raw.c:344:47
	ldr	r0, [sp, #40]
	ldr	r0, [r0]
	ldr	r1, [sp, #32]
	bl	ip4_addr_isbroadcast_u32
.Ltmp84:
	.loc	7 344 9                         @ rt-thread/components/net/lwip-2.0.2/src/core/raw.c:344:9
	cbz	r0, .LBB5_25
	b	.LBB5_22
.LBB5_22:
.Ltmp85:
	.loc	7 347 11 is_stmt 1              @ rt-thread/components/net/lwip-2.0.2/src/core/raw.c:347:11
	ldr	r0, [sp, #24]
	.loc	7 347 16 is_stmt 0              @ rt-thread/components/net/lwip-2.0.2/src/core/raw.c:347:16
	ldr	r1, [sp, #44]
.Ltmp86:
	.loc	7 347 11                        @ rt-thread/components/net/lwip-2.0.2/src/core/raw.c:347:11
	cmp	r0, r1
	beq	.LBB5_24
	b	.LBB5_23
.LBB5_23:
.Ltmp87:
	.loc	7 348 19 is_stmt 1              @ rt-thread/components/net/lwip-2.0.2/src/core/raw.c:348:19
	ldr	r0, [sp, #24]
	.loc	7 348 9 is_stmt 0               @ rt-thread/components/net/lwip-2.0.2/src/core/raw.c:348:9
	bl	pbuf_free
	.loc	7 349 7 is_stmt 1               @ rt-thread/components/net/lwip-2.0.2/src/core/raw.c:349:7
	b	.LBB5_24
.Ltmp88:
.LBB5_24:
	.loc	7 0 7 is_stmt 0                 @ rt-thread/components/net/lwip-2.0.2/src/core/raw.c:0:7
	movs	r0, #250
	.loc	7 350 7 is_stmt 1               @ rt-thread/components/net/lwip-2.0.2/src/core/raw.c:350:7
	strb.w	r0, [sp, #55]
	b	.LBB5_35
.Ltmp89:
.LBB5_25:
	.loc	7 355 7                         @ rt-thread/components/net/lwip-2.0.2/src/core/raw.c:355:7
	ldr	r0, [sp, #48]
	cbz	r0, .LBB5_27
	b	.LBB5_26
.LBB5_26:
	ldr	r0, [sp, #48]
	ldr	r0, [r0]
.Ltmp90:
	.loc	7 355 7 is_stmt 0               @ rt-thread/components/net/lwip-2.0.2/src/core/raw.c:355:7
	cbnz	r0, .LBB5_31
	b	.LBB5_27
.LBB5_27:
.Ltmp91:
	.loc	7 357 14 is_stmt 1              @ rt-thread/components/net/lwip-2.0.2/src/core/raw.c:357:14
	ldr	r0, [sp, #32]
	cbz	r0, .LBB5_29
	b	.LBB5_28
.LBB5_28:
	ldr	r0, [sp, #32]
	adds	r0, #4
	str	r0, [sp, #16]                   @ 4-byte Spill
	b	.LBB5_30
.LBB5_29:
	.loc	7 0 14 is_stmt 0                @ rt-thread/components/net/lwip-2.0.2/src/core/raw.c:0:14
	movs	r0, #0
	.loc	7 357 14                        @ rt-thread/components/net/lwip-2.0.2/src/core/raw.c:357:14
	str	r0, [sp, #16]                   @ 4-byte Spill
	b	.LBB5_30
.LBB5_30:
	ldr	r0, [sp, #16]                   @ 4-byte Reload
	.loc	7 357 12                        @ rt-thread/components/net/lwip-2.0.2/src/core/raw.c:357:12
	str	r0, [sp, #28]
	.loc	7 366 3 is_stmt 1               @ rt-thread/components/net/lwip-2.0.2/src/core/raw.c:366:3
	b	.LBB5_32
.Ltmp92:
.LBB5_31:
	.loc	7 368 15                        @ rt-thread/components/net/lwip-2.0.2/src/core/raw.c:368:15
	ldr	r0, [sp, #48]
	.loc	7 368 12 is_stmt 0              @ rt-thread/components/net/lwip-2.0.2/src/core/raw.c:368:12
	str	r0, [sp, #28]
	b	.LBB5_32
.Ltmp93:
.LBB5_32:
	.loc	7 382 9 is_stmt 1               @ rt-thread/components/net/lwip-2.0.2/src/core/raw.c:382:9
	ldr	r0, [sp, #24]
	ldr	r1, [sp, #28]
	ldr	r2, [sp, #40]
	ldr.w	lr, [sp, #48]
	ldrb.w	r12, [lr, #9]
	ldrb.w	r3, [lr, #10]
	ldrb.w	r4, [lr, #16]
	ldr	r5, [sp, #32]
	mov	lr, sp
	str.w	r5, [lr, #8]
	str.w	r4, [lr, #4]
	str.w	r12, [lr]
	bl	ip4_output_if
	.loc	7 382 7 is_stmt 0               @ rt-thread/components/net/lwip-2.0.2/src/core/raw.c:382:7
	strb.w	r0, [sp, #39]
.Ltmp94:
	.loc	7 386 7 is_stmt 1               @ rt-thread/components/net/lwip-2.0.2/src/core/raw.c:386:7
	ldr	r0, [sp, #24]
	.loc	7 386 12 is_stmt 0              @ rt-thread/components/net/lwip-2.0.2/src/core/raw.c:386:12
	ldr	r1, [sp, #44]
.Ltmp95:
	.loc	7 386 7                         @ rt-thread/components/net/lwip-2.0.2/src/core/raw.c:386:7
	cmp	r0, r1
	beq	.LBB5_34
	b	.LBB5_33
.LBB5_33:
.Ltmp96:
	.loc	7 388 15 is_stmt 1              @ rt-thread/components/net/lwip-2.0.2/src/core/raw.c:388:15
	ldr	r0, [sp, #24]
	.loc	7 388 5 is_stmt 0               @ rt-thread/components/net/lwip-2.0.2/src/core/raw.c:388:5
	bl	pbuf_free
	.loc	7 389 3 is_stmt 1               @ rt-thread/components/net/lwip-2.0.2/src/core/raw.c:389:3
	b	.LBB5_34
.Ltmp97:
.LBB5_34:
	.loc	7 390 10                        @ rt-thread/components/net/lwip-2.0.2/src/core/raw.c:390:10
	ldrb.w	r0, [sp, #39]
	.loc	7 390 3 is_stmt 0               @ rt-thread/components/net/lwip-2.0.2/src/core/raw.c:390:3
	strb.w	r0, [sp, #55]
	b	.LBB5_35
.LBB5_35:
	.loc	7 391 1 is_stmt 1               @ rt-thread/components/net/lwip-2.0.2/src/core/raw.c:391:1
	ldrsb.w	r0, [sp, #55]
	add	sp, #56
	pop	{r4, r5, r7, pc}
.Ltmp98:
.Lfunc_end5:
	.size	raw_sendto, .Lfunc_end5-raw_sendto
	.cfi_endproc
	.cantunwind
	.fnend
                                        @ -- End function
	.section	.text.raw_send,"ax",%progbits
	.hidden	raw_send                        @ -- Begin function raw_send
	.globl	raw_send
	.p2align	3
	.type	raw_send,%function
	.code	16                              @ @raw_send
	.thumb_func
raw_send:
.Lfunc_begin6:
	.loc	7 403 0                         @ rt-thread/components/net/lwip-2.0.2/src/core/raw.c:403:0
	.fnstart
	.cfi_startproc
@ %bb.0:
	.save	{r7, lr}
	push	{r7, lr}
	.cfi_def_cfa_offset 8
	.cfi_offset lr, -4
	.cfi_offset r7, -8
	.pad	#8
	sub	sp, #8
	.cfi_def_cfa_offset 16
	str	r0, [sp, #4]
	str	r1, [sp]
.Ltmp99:
	.loc	7 404 21 prologue_end           @ rt-thread/components/net/lwip-2.0.2/src/core/raw.c:404:21
	ldr	r0, [sp, #4]
	.loc	7 404 26 is_stmt 0              @ rt-thread/components/net/lwip-2.0.2/src/core/raw.c:404:26
	ldr	r1, [sp]
	.loc	7 404 35                        @ rt-thread/components/net/lwip-2.0.2/src/core/raw.c:404:35
	adds	r2, r0, #4
	.loc	7 404 10                        @ rt-thread/components/net/lwip-2.0.2/src/core/raw.c:404:10
	bl	raw_sendto
	.loc	7 404 3                         @ rt-thread/components/net/lwip-2.0.2/src/core/raw.c:404:3
	add	sp, #8
	pop	{r7, pc}
.Ltmp100:
.Lfunc_end6:
	.size	raw_send, .Lfunc_end6-raw_send
	.cfi_endproc
	.cantunwind
	.fnend
                                        @ -- End function
	.section	.text.raw_remove,"ax",%progbits
	.hidden	raw_remove                      @ -- Begin function raw_remove
	.globl	raw_remove
	.p2align	3
	.type	raw_remove,%function
	.code	16                              @ @raw_remove
	.thumb_func
raw_remove:
.Lfunc_begin7:
	.loc	7 418 0 is_stmt 1               @ rt-thread/components/net/lwip-2.0.2/src/core/raw.c:418:0
	.fnstart
	.cfi_startproc
@ %bb.0:
	.save	{r7, lr}
	push	{r7, lr}
	.cfi_def_cfa_offset 8
	.cfi_offset lr, -4
	.cfi_offset r7, -8
	.pad	#8
	sub	sp, #8
	.cfi_def_cfa_offset 16
	str	r0, [sp, #4]
.Ltmp101:
	.loc	7 421 7 prologue_end            @ rt-thread/components/net/lwip-2.0.2/src/core/raw.c:421:7
	movw	r0, :lower16:raw_pcbs
	movt	r0, :upper16:raw_pcbs
	ldr	r0, [r0]
	.loc	7 421 19 is_stmt 0              @ rt-thread/components/net/lwip-2.0.2/src/core/raw.c:421:19
	ldr	r1, [sp, #4]
.Ltmp102:
	.loc	7 421 7                         @ rt-thread/components/net/lwip-2.0.2/src/core/raw.c:421:7
	cmp	r0, r1
	bne	.LBB7_2
	b	.LBB7_1
.LBB7_1:
.Ltmp103:
	.loc	7 423 16 is_stmt 1              @ rt-thread/components/net/lwip-2.0.2/src/core/raw.c:423:16
	movw	r1, :lower16:raw_pcbs
	movt	r1, :upper16:raw_pcbs
	ldr	r0, [r1]
	.loc	7 423 26 is_stmt 0              @ rt-thread/components/net/lwip-2.0.2/src/core/raw.c:423:26
	ldr	r0, [r0, #12]
	.loc	7 423 14                        @ rt-thread/components/net/lwip-2.0.2/src/core/raw.c:423:14
	str	r0, [r1]
	.loc	7 425 3 is_stmt 1               @ rt-thread/components/net/lwip-2.0.2/src/core/raw.c:425:3
	b	.LBB7_10
.Ltmp104:
.LBB7_2:
	.loc	7 426 17                        @ rt-thread/components/net/lwip-2.0.2/src/core/raw.c:426:17
	movw	r0, :lower16:raw_pcbs
	movt	r0, :upper16:raw_pcbs
	ldr	r0, [r0]
	.loc	7 426 15 is_stmt 0              @ rt-thread/components/net/lwip-2.0.2/src/core/raw.c:426:15
	str	r0, [sp]
	.loc	7 426 10                        @ rt-thread/components/net/lwip-2.0.2/src/core/raw.c:426:10
	b	.LBB7_3
.LBB7_3:                                @ =>This Inner Loop Header: Depth=1
.Ltmp105:
	.loc	7 426 27                        @ rt-thread/components/net/lwip-2.0.2/src/core/raw.c:426:27
	ldr	r0, [sp]
.Ltmp106:
	.loc	7 426 5                         @ rt-thread/components/net/lwip-2.0.2/src/core/raw.c:426:5
	cbz	r0, .LBB7_9
	b	.LBB7_4
.LBB7_4:                                @   in Loop: Header=BB7_3 Depth=1
.Ltmp107:
	.loc	7 428 11 is_stmt 1              @ rt-thread/components/net/lwip-2.0.2/src/core/raw.c:428:11
	ldr	r0, [sp]
	.loc	7 428 17 is_stmt 0              @ rt-thread/components/net/lwip-2.0.2/src/core/raw.c:428:17
	ldr	r0, [r0, #12]
	.loc	7 428 30                        @ rt-thread/components/net/lwip-2.0.2/src/core/raw.c:428:30
	cbz	r0, .LBB7_7
	b	.LBB7_5
.LBB7_5:                                @   in Loop: Header=BB7_3 Depth=1
	.loc	7 428 33                        @ rt-thread/components/net/lwip-2.0.2/src/core/raw.c:428:33
	ldr	r0, [sp]
	.loc	7 428 39                        @ rt-thread/components/net/lwip-2.0.2/src/core/raw.c:428:39
	ldr	r0, [r0, #12]
	.loc	7 428 47                        @ rt-thread/components/net/lwip-2.0.2/src/core/raw.c:428:47
	ldr	r1, [sp, #4]
.Ltmp108:
	.loc	7 428 11                        @ rt-thread/components/net/lwip-2.0.2/src/core/raw.c:428:11
	cmp	r0, r1
	bne	.LBB7_7
	b	.LBB7_6
.LBB7_6:
.Ltmp109:
	.loc	7 430 22 is_stmt 1              @ rt-thread/components/net/lwip-2.0.2/src/core/raw.c:430:22
	ldr	r0, [sp, #4]
	.loc	7 430 27 is_stmt 0              @ rt-thread/components/net/lwip-2.0.2/src/core/raw.c:430:27
	ldr	r0, [r0, #12]
	.loc	7 430 9                         @ rt-thread/components/net/lwip-2.0.2/src/core/raw.c:430:9
	ldr	r1, [sp]
	.loc	7 430 20                        @ rt-thread/components/net/lwip-2.0.2/src/core/raw.c:430:20
	str	r0, [r1, #12]
	.loc	7 431 9 is_stmt 1               @ rt-thread/components/net/lwip-2.0.2/src/core/raw.c:431:9
	b	.LBB7_9
.Ltmp110:
.LBB7_7:                                @   in Loop: Header=BB7_3 Depth=1
	.loc	7 433 5                         @ rt-thread/components/net/lwip-2.0.2/src/core/raw.c:433:5
	b	.LBB7_8
.Ltmp111:
.LBB7_8:                                @   in Loop: Header=BB7_3 Depth=1
	.loc	7 426 48                        @ rt-thread/components/net/lwip-2.0.2/src/core/raw.c:426:48
	ldr	r0, [sp]
	.loc	7 426 54 is_stmt 0              @ rt-thread/components/net/lwip-2.0.2/src/core/raw.c:426:54
	ldr	r0, [r0, #12]
	.loc	7 426 46                        @ rt-thread/components/net/lwip-2.0.2/src/core/raw.c:426:46
	str	r0, [sp]
	.loc	7 426 5                         @ rt-thread/components/net/lwip-2.0.2/src/core/raw.c:426:5
	b	.LBB7_3
.Ltmp112:
.LBB7_9:
	.loc	7 0 5                           @ rt-thread/components/net/lwip-2.0.2/src/core/raw.c:0:5
	b	.LBB7_10
.LBB7_10:
	.loc	7 435 27 is_stmt 1              @ rt-thread/components/net/lwip-2.0.2/src/core/raw.c:435:27
	ldr	r1, [sp, #4]
	movs	r0, #0
	.loc	7 435 3 is_stmt 0               @ rt-thread/components/net/lwip-2.0.2/src/core/raw.c:435:3
	bl	memp_free
	.loc	7 436 1 is_stmt 1               @ rt-thread/components/net/lwip-2.0.2/src/core/raw.c:436:1
	add	sp, #8
	pop	{r7, pc}
.Ltmp113:
.Lfunc_end7:
	.size	raw_remove, .Lfunc_end7-raw_remove
	.cfi_endproc
	.cantunwind
	.fnend
                                        @ -- End function
	.section	.text.raw_new,"ax",%progbits
	.hidden	raw_new                         @ -- Begin function raw_new
	.globl	raw_new
	.p2align	3
	.type	raw_new,%function
	.code	16                              @ @raw_new
	.thumb_func
raw_new:
.Lfunc_begin8:
	.loc	7 451 0                         @ rt-thread/components/net/lwip-2.0.2/src/core/raw.c:451:0
	.fnstart
	.cfi_startproc
@ %bb.0:
	.save	{r7, lr}
	push	{r7, lr}
	.cfi_def_cfa_offset 8
	.cfi_offset lr, -4
	.cfi_offset r7, -8
	.pad	#8
	sub	sp, #8
	.cfi_def_cfa_offset 16
                                        @ kill: def $r1 killed $r0
	strb.w	r0, [sp, #7]
.Ltmp114:
	.loc	7 456 27 prologue_end           @ rt-thread/components/net/lwip-2.0.2/src/core/raw.c:456:27
	movw	r1, :lower16:.L.str.1
	movt	r1, :upper16:.L.str.1
	movs	r0, #0
	mov.w	r2, #456
	bl	memp_malloc_fn
	.loc	7 456 7 is_stmt 0               @ rt-thread/components/net/lwip-2.0.2/src/core/raw.c:456:7
	str	r0, [sp]
.Ltmp115:
	.loc	7 458 7 is_stmt 1               @ rt-thread/components/net/lwip-2.0.2/src/core/raw.c:458:7
	ldr	r0, [sp]
.Ltmp116:
	.loc	7 458 7 is_stmt 0               @ rt-thread/components/net/lwip-2.0.2/src/core/raw.c:458:7
	cbz	r0, .LBB8_2
	b	.LBB8_1
.LBB8_1:
.Ltmp117:
	.loc	7 460 12 is_stmt 1              @ rt-thread/components/net/lwip-2.0.2/src/core/raw.c:460:12
	ldr	r1, [sp]
	movs	r0, #0
	.loc	7 460 5 is_stmt 0               @ rt-thread/components/net/lwip-2.0.2/src/core/raw.c:460:5
	str	r0, [r1, #24]
	str	r0, [r1, #20]
	str	r0, [r1, #16]
	str	r0, [r1, #12]
	str	r0, [r1, #8]
	str	r0, [r1, #4]
	str	r0, [r1]
	.loc	7 461 21 is_stmt 1              @ rt-thread/components/net/lwip-2.0.2/src/core/raw.c:461:21
	ldrb.w	r0, [sp, #7]
	.loc	7 461 5 is_stmt 0               @ rt-thread/components/net/lwip-2.0.2/src/core/raw.c:461:5
	ldr	r1, [sp]
	.loc	7 461 19                        @ rt-thread/components/net/lwip-2.0.2/src/core/raw.c:461:19
	strb	r0, [r1, #16]
	.loc	7 462 5 is_stmt 1               @ rt-thread/components/net/lwip-2.0.2/src/core/raw.c:462:5
	ldr	r1, [sp]
	movs	r0, #255
	.loc	7 462 14 is_stmt 0              @ rt-thread/components/net/lwip-2.0.2/src/core/raw.c:462:14
	strb	r0, [r1, #10]
	.loc	7 463 17 is_stmt 1              @ rt-thread/components/net/lwip-2.0.2/src/core/raw.c:463:17
	movw	r1, :lower16:raw_pcbs
	movt	r1, :upper16:raw_pcbs
	ldr	r0, [r1]
	.loc	7 463 5 is_stmt 0               @ rt-thread/components/net/lwip-2.0.2/src/core/raw.c:463:5
	ldr	r2, [sp]
	.loc	7 463 15                        @ rt-thread/components/net/lwip-2.0.2/src/core/raw.c:463:15
	str	r0, [r2, #12]
	.loc	7 464 16 is_stmt 1              @ rt-thread/components/net/lwip-2.0.2/src/core/raw.c:464:16
	ldr	r0, [sp]
	.loc	7 464 14 is_stmt 0              @ rt-thread/components/net/lwip-2.0.2/src/core/raw.c:464:14
	str	r0, [r1]
	.loc	7 465 3 is_stmt 1               @ rt-thread/components/net/lwip-2.0.2/src/core/raw.c:465:3
	b	.LBB8_2
.Ltmp118:
.LBB8_2:
	.loc	7 466 10                        @ rt-thread/components/net/lwip-2.0.2/src/core/raw.c:466:10
	ldr	r0, [sp]
	.loc	7 466 3 is_stmt 0               @ rt-thread/components/net/lwip-2.0.2/src/core/raw.c:466:3
	add	sp, #8
	pop	{r7, pc}
.Ltmp119:
.Lfunc_end8:
	.size	raw_new, .Lfunc_end8-raw_new
	.cfi_endproc
	.cantunwind
	.fnend
                                        @ -- End function
	.section	.text.raw_new_ip_type,"ax",%progbits
	.hidden	raw_new_ip_type                 @ -- Begin function raw_new_ip_type
	.globl	raw_new_ip_type
	.p2align	3
	.type	raw_new_ip_type,%function
	.code	16                              @ @raw_new_ip_type
	.thumb_func
raw_new_ip_type:
.Lfunc_begin9:
	.loc	7 486 0 is_stmt 1               @ rt-thread/components/net/lwip-2.0.2/src/core/raw.c:486:0
	.fnstart
	.cfi_startproc
@ %bb.0:
	.save	{r7, lr}
	push	{r7, lr}
	.cfi_def_cfa_offset 8
	.cfi_offset lr, -4
	.cfi_offset r7, -8
	.pad	#8
	sub	sp, #8
	.cfi_def_cfa_offset 16
                                        @ kill: def $r2 killed $r1
                                        @ kill: def $r2 killed $r0
	strb.w	r0, [sp, #7]
	strb.w	r1, [sp, #6]
.Ltmp120:
	.loc	7 488 17 prologue_end           @ rt-thread/components/net/lwip-2.0.2/src/core/raw.c:488:17
	ldrb.w	r0, [sp, #6]
	.loc	7 488 9 is_stmt 0               @ rt-thread/components/net/lwip-2.0.2/src/core/raw.c:488:9
	bl	raw_new
	.loc	7 488 7                         @ rt-thread/components/net/lwip-2.0.2/src/core/raw.c:488:7
	str	r0, [sp]
	.loc	7 497 10 is_stmt 1              @ rt-thread/components/net/lwip-2.0.2/src/core/raw.c:497:10
	ldr	r0, [sp]
	.loc	7 497 3 is_stmt 0               @ rt-thread/components/net/lwip-2.0.2/src/core/raw.c:497:3
	add	sp, #8
	pop	{r7, pc}
.Ltmp121:
.Lfunc_end9:
	.size	raw_new_ip_type, .Lfunc_end9-raw_new_ip_type
	.cfi_endproc
	.cantunwind
	.fnend
                                        @ -- End function
	.section	.text.raw_netif_ip_addr_changed,"ax",%progbits
	.hidden	raw_netif_ip_addr_changed       @ -- Begin function raw_netif_ip_addr_changed
	.globl	raw_netif_ip_addr_changed
	.p2align	3
	.type	raw_netif_ip_addr_changed,%function
	.code	16                              @ @raw_netif_ip_addr_changed
	.thumb_func
raw_netif_ip_addr_changed:
.Lfunc_begin10:
	.loc	7 506 0 is_stmt 1               @ rt-thread/components/net/lwip-2.0.2/src/core/raw.c:506:0
	.fnstart
	.cfi_startproc
@ %bb.0:
	.pad	#12
	sub	sp, #12
	.cfi_def_cfa_offset 12
	str	r0, [sp, #8]
	str	r1, [sp, #4]
.Ltmp122:
	.loc	7 509 8 prologue_end            @ rt-thread/components/net/lwip-2.0.2/src/core/raw.c:509:8
	ldr	r0, [sp, #8]
	cbz	r0, .LBB10_11
	b	.LBB10_1
.LBB10_1:
	ldr	r0, [sp, #8]
	ldr	r0, [r0]
	.loc	7 509 32 is_stmt 0              @ rt-thread/components/net/lwip-2.0.2/src/core/raw.c:509:32
	cbz	r0, .LBB10_11
	b	.LBB10_2
.LBB10_2:
	.loc	7 509 36                        @ rt-thread/components/net/lwip-2.0.2/src/core/raw.c:509:36
	ldr	r0, [sp, #4]
	cbz	r0, .LBB10_11
	b	.LBB10_3
.LBB10_3:
	ldr	r0, [sp, #4]
	ldr	r0, [r0]
.Ltmp123:
	.loc	7 509 7                         @ rt-thread/components/net/lwip-2.0.2/src/core/raw.c:509:7
	cbz	r0, .LBB10_11
	b	.LBB10_4
.LBB10_4:
.Ltmp124:
	.loc	7 510 17 is_stmt 1              @ rt-thread/components/net/lwip-2.0.2/src/core/raw.c:510:17
	movw	r0, :lower16:raw_pcbs
	movt	r0, :upper16:raw_pcbs
	ldr	r0, [r0]
	.loc	7 510 15 is_stmt 0              @ rt-thread/components/net/lwip-2.0.2/src/core/raw.c:510:15
	str	r0, [sp]
	.loc	7 510 10                        @ rt-thread/components/net/lwip-2.0.2/src/core/raw.c:510:10
	b	.LBB10_5
.LBB10_5:                               @ =>This Inner Loop Header: Depth=1
.Ltmp125:
	.loc	7 510 27                        @ rt-thread/components/net/lwip-2.0.2/src/core/raw.c:510:27
	ldr	r0, [sp]
.Ltmp126:
	.loc	7 510 5                         @ rt-thread/components/net/lwip-2.0.2/src/core/raw.c:510:5
	cbz	r0, .LBB10_10
	b	.LBB10_6
.LBB10_6:                               @   in Loop: Header=BB10_5 Depth=1
.Ltmp127:
	.loc	7 512 11 is_stmt 1              @ rt-thread/components/net/lwip-2.0.2/src/core/raw.c:512:11
	ldr	r0, [sp]
	ldr	r0, [r0]
	ldr	r1, [sp, #8]
	ldr	r1, [r1]
.Ltmp128:
	.loc	7 512 11 is_stmt 0              @ rt-thread/components/net/lwip-2.0.2/src/core/raw.c:512:11
	cmp	r0, r1
	bne	.LBB10_8
	b	.LBB10_7
.LBB10_7:                               @   in Loop: Header=BB10_5 Depth=1
.Ltmp129:
	.loc	7 515 9 is_stmt 1               @ rt-thread/components/net/lwip-2.0.2/src/core/raw.c:515:9
	ldr	r0, [sp, #4]
	ldr	r0, [r0]
	ldr	r1, [sp]
	str	r0, [r1]
	.loc	7 516 7                         @ rt-thread/components/net/lwip-2.0.2/src/core/raw.c:516:7
	b	.LBB10_8
.Ltmp130:
.LBB10_8:                               @   in Loop: Header=BB10_5 Depth=1
	.loc	7 517 5                         @ rt-thread/components/net/lwip-2.0.2/src/core/raw.c:517:5
	b	.LBB10_9
.Ltmp131:
.LBB10_9:                               @   in Loop: Header=BB10_5 Depth=1
	.loc	7 510 48                        @ rt-thread/components/net/lwip-2.0.2/src/core/raw.c:510:48
	ldr	r0, [sp]
	.loc	7 510 54 is_stmt 0              @ rt-thread/components/net/lwip-2.0.2/src/core/raw.c:510:54
	ldr	r0, [r0, #12]
	.loc	7 510 46                        @ rt-thread/components/net/lwip-2.0.2/src/core/raw.c:510:46
	str	r0, [sp]
	.loc	7 510 5                         @ rt-thread/components/net/lwip-2.0.2/src/core/raw.c:510:5
	b	.LBB10_5
.Ltmp132:
.LBB10_10:
	.loc	7 518 3 is_stmt 1               @ rt-thread/components/net/lwip-2.0.2/src/core/raw.c:518:3
	b	.LBB10_11
.Ltmp133:
.LBB10_11:
	.loc	7 519 1                         @ rt-thread/components/net/lwip-2.0.2/src/core/raw.c:519:1
	add	sp, #12
	bx	lr
.Ltmp134:
.Lfunc_end10:
	.size	raw_netif_ip_addr_changed, .Lfunc_end10-raw_netif_ip_addr_changed
	.cfi_endproc
	.cantunwind
	.fnend
                                        @ -- End function
	.type	raw_pcbs,%object                @ @raw_pcbs
	.section	.bss.raw_pcbs,"aw",%nobits
	.p2align	2
raw_pcbs:
	.long	0
	.size	raw_pcbs, 4

	.type	.L.str,%object                  @ @.str
	.section	.rodata.str1.1,"aMS",%progbits,1
.L.str:
	.asciz	"raw pcb recv callback altered pbuf payload pointer without eating packet"
	.size	.L.str, 73

	.type	.L.str.1,%object                @ @.str.1
.L.str.1:
	.asciz	"rt-thread/components/net/lwip-2.0.2/src/core/raw.c"
	.size	.L.str.1, 51

	.type	.L.str.2,%object                @ @.str.2
.L.str.2:
	.asciz	"Can't restore header we just removed!"
	.size	.L.str.2, 38

	.section	".note.GNU-stack","",%progbits
	.eabi_attribute	30, 6	@ Tag_ABI_optimization_goals
	.ARM_attribute	16, 1	@ Tag_AV_eba