	.text
	.syntax unified
	.eabi_attribute	67, "2.09"	@ Tag_conformance
	.cpu	cortex-m7
	.eabi_attribute	6, 13	@ Tag_CPU_arch
	.eabi_attribute	7, 77	@ Tag_CPU_arch_profile
	.eabi_attribute	8, 0	@ Tag_ARM_ISA_use
	.eabi_attribute	9, 2	@ Tag_THUMB_ISA_use
	.fpu	fpv5-d16
	.eabi_attribute	36, 1	@ Tag_FP_HP_extension
	.eabi_attribute	34, 1	@ Tag_CPU_unaligned_access
	.eabi_attribute	17, 1	@ Tag_ABI_PCS_GOT_use
	.eabi_attribute	20, 2	@ Tag_ABI_FP_denormal
	.eabi_attribute	21, 0	@ Tag_ABI_FP_exceptions
	.eabi_attribute	23, 1	@ Tag_ABI_FP_number_model
	.eabi_attribute	24, 1	@ Tag_ABI_align_needed
	.eabi_attribute	25, 1	@ Tag_ABI_align_preserved
	.eabi_attribute	28, 1	@ Tag_ABI_VFP_args
	.eabi_attribute	38, 1	@ Tag_ABI_FP_16bit_format
	.eabi_attribute	18, 2	@ Tag_ABI_PCS_wchar_t
	.eabi_attribute	26, 1	@ Tag_ABI_enum_size
	.eabi_attribute	14, 0	@ Tag_ABI_PCS_R9_use
	.file	"ringblk_buf.c"
	.file	1 "E:\\Smart-access-control\\Hardware\\CODE" "rt-thread/components/drivers/include/ipc/ringblk_buf.h"
	.file	2 "E:\\Smart-access-control\\Hardware\\CODE" "rt-thread/include\\rtdef.h"
	.section	.text.rt_rbb_init,"ax",%progbits
	.hidden	rt_rbb_init                     @ -- Begin function rt_rbb_init
	.globl	rt_rbb_init
	.p2align	3
	.type	rt_rbb_init,%function
	.code	16                              @ @rt_rbb_init
	.thumb_func
rt_rbb_init:
.Lfunc_begin0:
	.file	3 "E:\\Smart-access-control\\Hardware\\CODE" "rt-thread/components/drivers/src/ringblk_buf.c"
	.loc	3 27 0                          @ rt-thread/components/drivers/src/ringblk_buf.c:27:0
	.fnstart
	.cfi_sections .debug_frame
	.cfi_startproc
@ %bb.0:
	@DEBUG_VALUE: rt_rbb_init:rbb <- $r0
	@DEBUG_VALUE: rt_rbb_init:buf <- $r1
	@DEBUG_VALUE: rt_rbb_init:buf_size <- $r2
	@DEBUG_VALUE: rt_rbb_init:block_set <- $r3
	.save	{r4, r5, r6, r7, r8, lr}
	push.w	{r4, r5, r6, r7, r8, lr}
	.cfi_def_cfa_offset 24
	.cfi_offset lr, -4
	.cfi_offset r8, -8
	.cfi_offset r7, -12
	.cfi_offset r6, -16
	.cfi_offset r5, -20
	.cfi_offset r4, -24
	mov	r5, r0
.Ltmp0:
	@DEBUG_VALUE: rt_rbb_init:blk_max_num <- [DW_OP_plus_uconst 24] [$sp+0]
	@DEBUG_VALUE: rt_rbb_init:rbb <- $r5
	mov	r4, r3
.Ltmp1:
	@DEBUG_VALUE: rt_rbb_init:block_set <- $r4
	@DEBUG_VALUE: rt_rbb_init:block_set <- $r4
	mov	r8, r2
.Ltmp2:
	@DEBUG_VALUE: rt_rbb_init:buf_size <- $r8
	@DEBUG_VALUE: rt_rbb_init:buf_size <- $r8
	mov	r7, r1
.Ltmp3:
	@DEBUG_VALUE: rt_rbb_init:buf <- $r7
	@DEBUG_VALUE: rt_rbb_init:buf <- $r7
	.loc	3 30 5 prologue_end             @ rt-thread/components/drivers/src/ringblk_buf.c:30:5
	cbz	r0, .LBB0_8
.Ltmp4:
@ %bb.1:
	@DEBUG_VALUE: rt_rbb_init:buf_size <- $r8
	@DEBUG_VALUE: rt_rbb_init:buf <- $r7
	@DEBUG_VALUE: rt_rbb_init:rbb <- $r5
	@DEBUG_VALUE: rt_rbb_init:block_set <- $r4
	@DEBUG_VALUE: rt_rbb_init:blk_max_num <- [DW_OP_plus_uconst 24] [$sp+0]
	.loc	3 31 5                          @ rt-thread/components/drivers/src/ringblk_buf.c:31:5
	cbz	r7, .LBB0_9
.Ltmp5:
.LBB0_2:
	@DEBUG_VALUE: rt_rbb_init:buf_size <- $r8
	@DEBUG_VALUE: rt_rbb_init:buf <- $r7
	@DEBUG_VALUE: rt_rbb_init:rbb <- $r5
	@DEBUG_VALUE: rt_rbb_init:block_set <- $r4
	@DEBUG_VALUE: rt_rbb_init:blk_max_num <- [DW_OP_plus_uconst 24] [$sp+0]
	.loc	3 0 5 is_stmt 0                 @ rt-thread/components/drivers/src/ringblk_buf.c:0:5
	ldr	r6, [sp, #24]
	.loc	3 32 5 is_stmt 1                @ rt-thread/components/drivers/src/ringblk_buf.c:32:5
	cbnz	r4, .LBB0_4
.Ltmp6:
@ %bb.3:
	@DEBUG_VALUE: rt_rbb_init:buf_size <- $r8
	@DEBUG_VALUE: rt_rbb_init:buf <- $r7
	@DEBUG_VALUE: rt_rbb_init:rbb <- $r5
	@DEBUG_VALUE: rt_rbb_init:block_set <- $r4
	@DEBUG_VALUE: rt_rbb_init:blk_max_num <- [DW_OP_plus_uconst 24] [$sp+0]
	.loc	3 32 5 is_stmt 0                @ rt-thread/components/drivers/src/ringblk_buf.c:32:5
	movw	r1, :lower16:.L__FUNCTION__.rt_rbb_init
	adr	r0, .LCPI0_1
	movt	r1, :upper16:.L__FUNCTION__.rt_rbb_init
	movs	r2, #32
	bl	rt_assert_handler
.Ltmp7:
.LBB0_4:
	@DEBUG_VALUE: rt_rbb_init:buf_size <- $r8
	@DEBUG_VALUE: rt_rbb_init:buf <- $r7
	@DEBUG_VALUE: rt_rbb_init:rbb <- $r5
	@DEBUG_VALUE: rt_rbb_init:block_set <- $r4
	@DEBUG_VALUE: rt_rbb_init:blk_max_num <- [DW_OP_plus_uconst 24] [$sp+0]
	.loc	3 38 25 is_stmt 1               @ rt-thread/components/drivers/src/ringblk_buf.c:38:25
	add.w	r0, r5, #16
	.loc	3 34 14                         @ rt-thread/components/drivers/src/ringblk_buf.c:34:14
	strd	r7, r8, [r5]
	.loc	3 36 18                         @ rt-thread/components/drivers/src/ringblk_buf.c:36:18
	strd	r4, r6, [r5, #8]
	.loc	3 38 5                          @ rt-thread/components/drivers/src/ringblk_buf.c:38:5
	bl	rt_slist_init
.Ltmp8:
	@DEBUG_VALUE: rt_rbb_init:i <- 0
	.loc	3 40 5                          @ rt-thread/components/drivers/src/ringblk_buf.c:40:5
	cmp	r6, #0
.Ltmp9:
	.loc	3 44 1                          @ rt-thread/components/drivers/src/ringblk_buf.c:44:1
	it	eq
	popeq.w	{r4, r5, r6, r7, r8, pc}
.Ltmp10:
.LBB0_5:
	@DEBUG_VALUE: rt_rbb_init:i <- 0
	.loc	3 40 5                          @ rt-thread/components/drivers/src/ringblk_buf.c:40:5
	sub.w	r0, r4, #12
	movs	r1, #0
.Ltmp11:
	.p2align	2
.LBB0_6:                                @ =>This Inner Loop Header: Depth=1
	@DEBUG_VALUE: rt_rbb_init:i <- undef
	.loc	3 40 19 is_stmt 0               @ rt-thread/components/drivers/src/ringblk_buf.c:40:19
	subs	r6, #1
.Ltmp12:
	.loc	3 42 29 is_stmt 1               @ rt-thread/components/drivers/src/ringblk_buf.c:42:29
	strb	r1, [r0, #12]!
.Ltmp13:
	@DEBUG_VALUE: rt_rbb_init:i <- [DW_OP_plus_uconst 1, DW_OP_stack_value] undef
	.loc	3 40 5                          @ rt-thread/components/drivers/src/ringblk_buf.c:40:5
	bne	.LBB0_6
.Ltmp14:
@ %bb.7:
	.loc	3 44 1                          @ rt-thread/components/drivers/src/ringblk_buf.c:44:1
	pop.w	{r4, r5, r6, r7, r8, pc}
.LBB0_8:
.Ltmp15:
	@DEBUG_VALUE: rt_rbb_init:buf_size <- $r8
	@DEBUG_VALUE: rt_rbb_init:buf <- $r7
	@DEBUG_VALUE: rt_rbb_init:rbb <- $r5
	@DEBUG_VALUE: rt_rbb_init:block_set <- $r4
	@DEBUG_VALUE: rt_rbb_init:blk_max_num <- [DW_OP_plus_uconst 24] [$sp+0]
	.loc	3 30 5                          @ rt-thread/components/drivers/src/ringblk_buf.c:30:5
	movw	r0, :lower16:.L.str
	movw	r1, :lower16:.L__FUNCTION__.rt_rbb_init
	movt	r0, :upper16:.L.str
	movt	r1, :upper16:.L__FUNCTION__.rt_rbb_init
	movs	r2, #30
	bl	rt_assert_handler
.Ltmp16:
	.loc	3 31 5                          @ rt-thread/components/drivers/src/ringblk_buf.c:31:5
	cmp	r7, #0
	bne	.LBB0_2
.Ltmp17:
.LBB0_9:
	@DEBUG_VALUE: rt_rbb_init:buf_size <- $r8
	@DEBUG_VALUE: rt_rbb_init:buf <- $r7
	@DEBUG_VALUE: rt_rbb_init:rbb <- $r5
	@DEBUG_VALUE: rt_rbb_init:block_set <- $r4
	@DEBUG_VALUE: rt_rbb_init:blk_max_num <- [DW_OP_plus_uconst 24] [$sp+0]
	.loc	3 31 5 is_stmt 0                @ rt-thread/components/drivers/src/ringblk_buf.c:31:5
	movw	r1, :lower16:.L__FUNCTION__.rt_rbb_init
	adr	r0, .LCPI0_0
	movt	r1, :upper16:.L__FUNCTION__.rt_rbb_init
	movs	r2, #31
	bl	rt_assert_handler
	b	.LBB0_2
.Ltmp18:
	.p2align	2
@ %bb.10:
	.loc	3 0 5                           @ rt-thread/components/drivers/src/ringblk_buf.c:0:5
.LCPI0_0:
.L.str.1:
	.asciz	"buf"
.LCPI0_1:
.L.str.2:
	.asciz	"block_set\000\000"
.Lfunc_end0:
	.size	rt_rbb_init, .Lfunc_end0-rt_rbb_init
	.cfi_endproc
	.cantunwind
	.fnend
                                        @ -- End function
	.section	.text.rt_slist_init,"ax",%progbits
	.p2align	3                               @ -- Begin function rt_slist_init
	.type	rt_slist_init,%function
	.code	16                              @ @rt_slist_init
	.thumb_func
rt_slist_init:
.Lfunc_begin1:
	.file	4 "E:\\Smart-access-control\\Hardware\\CODE" "rt-thread/include\\rtservice.h"
	.loc	4 190 0 is_stmt 1               @ rt-thread/include\rtservice.h:190:0
	.fnstart
	.cfi_startproc
@ %bb.0:
	@DEBUG_VALUE: rt_slist_init:l <- $r0
	movs	r1, #0
	@DEBUG_VALUE: rt_slist_init:l <- $r0
.Ltmp19:
	.loc	4 191 13 prologue_end           @ rt-thread/include\rtservice.h:191:13
	str	r1, [r0]
	.loc	4 192 1                         @ rt-thread/include\rtservice.h:192:1
	bx	lr
.Ltmp20:
.Lfunc_end1:
	.size	rt_slist_init, .Lfunc_end1-rt_slist_init
	.cfi_endproc
	.cantunwind
	.fnend
                                        @ -- End function
	.section	.text.rt_rbb_create,"ax",%progbits
	.hidden	rt_rbb_create                   @ -- Begin function rt_rbb_create
	.globl	rt_rbb_create
	.p2align	3
	.type	rt_rbb_create,%function
	.code	16                              @ @rt_rbb_create
	.thumb_func
rt_rbb_create:
.Lfunc_begin2:
	.loc	3 57 0                          @ rt-thread/components/drivers/src/ringblk_buf.c:57:0
	.fnstart
	.cfi_startproc
@ %bb.0:
	@DEBUG_VALUE: rt_rbb_create:buf_size <- $r0
	@DEBUG_VALUE: rt_rbb_create:blk_max_num <- $r1
	.save	{r4, r5, r6, r7, lr}
	push	{r4, r5, r6, r7, lr}
	.cfi_def_cfa_offset 20
	.cfi_offset lr, -4
	.cfi_offset r7, -8
	.cfi_offset r6, -12
	.cfi_offset r5, -16
	.cfi_offset r4, -20
	.pad	#4
	sub	sp, #4
	.cfi_def_cfa_offset 24
	mov	r5, r0
.Ltmp21:
	@DEBUG_VALUE: rt_rbb_create:buf_size <- $r5
	@DEBUG_VALUE: rt_rbb_create:rbb <- 0
	@DEBUG_VALUE: rt_rbb_create:blk_max_num <- $r6
	@DEBUG_VALUE: rt_rbb_create:buf_size <- $r5
	.loc	3 62 21 prologue_end            @ rt-thread/components/drivers/src/ringblk_buf.c:62:21
	movs	r0, #20
	mov	r6, r1
.Ltmp22:
	bl	rt_malloc
.Ltmp23:
	@DEBUG_VALUE: rt_rbb_create:rbb <- $r0
	.loc	3 63 9                          @ rt-thread/components/drivers/src/ringblk_buf.c:63:9
	cbz	r0, .LBB2_4
.Ltmp24:
@ %bb.1:
	@DEBUG_VALUE: rt_rbb_create:buf_size <- $r5
	@DEBUG_VALUE: rt_rbb_create:rbb <- $r0
	.loc	3 0 0 is_stmt 0                 @ rt-thread/components/drivers/src/ringblk_buf.c:0:0
	mov	r4, r0
.Ltmp25:
	@DEBUG_VALUE: rt_rbb_create:rbb <- $r4
	@DEBUG_VALUE: rt_rbb_create:rbb <- $r4
	.loc	3 68 25 is_stmt 1               @ rt-thread/components/drivers/src/ringblk_buf.c:68:25
	mov	r0, r5
	bl	rt_malloc
.Ltmp26:
	@DEBUG_VALUE: rt_rbb_create:buf <- $r0
	.loc	3 69 9                          @ rt-thread/components/drivers/src/ringblk_buf.c:69:9
	cbz	r0, .LBB2_5
.Ltmp27:
@ %bb.2:
	@DEBUG_VALUE: rt_rbb_create:buf_size <- $r5
	@DEBUG_VALUE: rt_rbb_create:rbb <- $r4
	@DEBUG_VALUE: rt_rbb_create:buf <- $r0
	.loc	3 0 0 is_stmt 0                 @ rt-thread/components/drivers/src/ringblk_buf.c:0:0
	mov	r7, r0
.Ltmp28:
	@DEBUG_VALUE: rt_rbb_create:buf <- $r7
	@DEBUG_VALUE: rt_rbb_create:buf <- $r7
	.loc	3 75 65 is_stmt 1               @ rt-thread/components/drivers/src/ringblk_buf.c:75:65
	add.w	r0, r6, r6, lsl #1
	lsls	r0, r0, #2
	.loc	3 75 29 is_stmt 0               @ rt-thread/components/drivers/src/ringblk_buf.c:75:29
	bl	rt_malloc
.Ltmp29:
	@DEBUG_VALUE: rt_rbb_create:blk_set <- $r0
	.loc	3 76 9 is_stmt 1                @ rt-thread/components/drivers/src/ringblk_buf.c:76:9
	cbz	r0, .LBB2_6
.Ltmp30:
@ %bb.3:
	@DEBUG_VALUE: rt_rbb_create:buf <- $r7
	@DEBUG_VALUE: rt_rbb_create:buf_size <- $r5
	@DEBUG_VALUE: rt_rbb_create:rbb <- $r4
	@DEBUG_VALUE: rt_rbb_create:blk_set <- $r0
	.loc	3 0 0 is_stmt 0                 @ rt-thread/components/drivers/src/ringblk_buf.c:0:0
	mov	r3, r0
.Ltmp31:
	@DEBUG_VALUE: rt_rbb_create:blk_set <- $r3
	@DEBUG_VALUE: rt_rbb_create:blk_set <- $r3
	.loc	3 83 5 is_stmt 1                @ rt-thread/components/drivers/src/ringblk_buf.c:83:5
	mov	r0, r4
	mov	r1, r7
	mov	r2, r5
	str	r6, [sp]
	bl	rt_rbb_init
.Ltmp32:
	.loc	3 0 5 is_stmt 0                 @ rt-thread/components/drivers/src/ringblk_buf.c:0:5
	b	.LBB2_7
.Ltmp33:
.LBB2_4:
	@DEBUG_VALUE: rt_rbb_create:buf_size <- $r5
	@DEBUG_VALUE: rt_rbb_create:rbb <- $r0
	movs	r4, #0
	b	.LBB2_7
.Ltmp34:
.LBB2_5:
	@DEBUG_VALUE: rt_rbb_create:buf_size <- $r5
	@DEBUG_VALUE: rt_rbb_create:rbb <- $r4
	@DEBUG_VALUE: rt_rbb_create:buf <- $r0
	.loc	3 71 9 is_stmt 1                @ rt-thread/components/drivers/src/ringblk_buf.c:71:9
	mov	r0, r4
.Ltmp35:
	bl	rt_free
	movs	r4, #0
.Ltmp36:
	.loc	3 72 9                          @ rt-thread/components/drivers/src/ringblk_buf.c:72:9
	b	.LBB2_7
.Ltmp37:
.LBB2_6:
	@DEBUG_VALUE: rt_rbb_create:buf <- $r7
	@DEBUG_VALUE: rt_rbb_create:buf_size <- $r5
	@DEBUG_VALUE: rt_rbb_create:rbb <- $r4
	@DEBUG_VALUE: rt_rbb_create:blk_set <- $r0
	.loc	3 78 9                          @ rt-thread/components/drivers/src/ringblk_buf.c:78:9
	mov	r0, r7
.Ltmp38:
	bl	rt_free
	.loc	3 79 9                          @ rt-thread/components/drivers/src/ringblk_buf.c:79:9
	mov	r0, r4
	bl	rt_free
	movs	r4, #0
.Ltmp39:
.LBB2_7:
	@DEBUG_VALUE: rt_rbb_create:buf_size <- $r5
	.loc	3 86 1                          @ rt-thread/components/drivers/src/ringblk_buf.c:86:1
	mov	r0, r4
	add	sp, #4
	pop	{r4, r5, r6, r7, pc}
.Ltmp40:
.Lfunc_end2:
	.size	rt_rbb_create, .Lfunc_end2-rt_rbb_create
	.cfi_endproc
	.cantunwind
	.fnend
                                        @ -- End function
	.section	.text.rt_rbb_destroy,"ax",%progbits
	.hidden	rt_rbb_destroy                  @ -- Begin function rt_rbb_destroy
	.globl	rt_rbb_destroy
	.p2align	3
	.type	rt_rbb_destroy,%function
	.code	16                              @ @rt_rbb_destroy
	.thumb_func
rt_rbb_destroy:
.Lfunc_begin3:
	.loc	3 95 0                          @ rt-thread/components/drivers/src/ringblk_buf.c:95:0
	.fnstart
	.cfi_startproc
@ %bb.0:
	@DEBUG_VALUE: rt_rbb_destroy:rbb <- $r0
	.save	{r4, lr}
	push	{r4, lr}
	.cfi_def_cfa_offset 8
	.cfi_offset lr, -4
	.cfi_offset r4, -8
	mov	r4, r0
.Ltmp41:
	@DEBUG_VALUE: rt_rbb_destroy:rbb <- $r4
	.loc	3 96 5 prologue_end             @ rt-thread/components/drivers/src/ringblk_buf.c:96:5
	cbnz	r0, .LBB3_2
.Ltmp42:
@ %bb.1:
	@DEBUG_VALUE: rt_rbb_destroy:rbb <- $r4
	.loc	3 96 5 is_stmt 0                @ rt-thread/components/drivers/src/ringblk_buf.c:96:5
	movw	r0, :lower16:.L.str
	adr	r1, .LCPI3_0
	movt	r0, :upper16:.L.str
	movs	r2, #96
	bl	rt_assert_handler
.Ltmp43:
.LBB3_2:
	@DEBUG_VALUE: rt_rbb_destroy:rbb <- $r4
	.loc	3 98 18 is_stmt 1               @ rt-thread/components/drivers/src/ringblk_buf.c:98:18
	ldr	r0, [r4]
	.loc	3 98 5 is_stmt 0                @ rt-thread/components/drivers/src/ringblk_buf.c:98:5
	bl	rt_free
	.loc	3 99 18 is_stmt 1               @ rt-thread/components/drivers/src/ringblk_buf.c:99:18
	ldr	r0, [r4, #8]
	.loc	3 99 5 is_stmt 0                @ rt-thread/components/drivers/src/ringblk_buf.c:99:5
	bl	rt_free
	.loc	3 100 5 is_stmt 1               @ rt-thread/components/drivers/src/ringblk_buf.c:100:5
	mov	r0, r4
	bl	rt_free
	.loc	3 102 1                         @ rt-thread/components/drivers/src/ringblk_buf.c:102:1
	pop	{r4, pc}
.Ltmp44:
	.p2align	2
@ %bb.3:
	.loc	3 0 1 is_stmt 0                 @ rt-thread/components/drivers/src/ringblk_buf.c:0:1
.LCPI3_0:
.L__FUNCTION__.rt_rbb_destroy:
	.asciz	"rt_rbb_destroy\000"
.Lfunc_end3:
	.size	rt_rbb_destroy, .Lfunc_end3-rt_rbb_destroy
	.cfi_endproc
	.cantunwind
	.fnend
                                        @ -- End function
	.section	.text.rt_rbb_blk_alloc,"ax",%progbits
	.hidden	rt_rbb_blk_alloc                @ -- Begin function rt_rbb_blk_alloc
	.globl	rt_rbb_blk_alloc
	.p2align	3
	.type	rt_rbb_blk_alloc,%function
	.code	16                              @ @rt_rbb_blk_alloc
	.thumb_func
rt_rbb_blk_alloc:
.Lfunc_begin4:
	.loc	3 134 0 is_stmt 1               @ rt-thread/components/drivers/src/ringblk_buf.c:134:0
	.fnstart
	.cfi_startproc
@ %bb.0:
	@DEBUG_VALUE: rt_rbb_blk_alloc:rbb <- $r0
	@DEBUG_VALUE: rt_rbb_blk_alloc:blk_size <- $r1
	.save	{r4, r5, r6, r7, r8, r9, r10, lr}
	push.w	{r4, r5, r6, r7, r8, r9, r10, lr}
	.cfi_def_cfa_offset 32
	.cfi_offset lr, -4
	.cfi_offset r10, -8
	.cfi_offset r9, -12
	.cfi_offset r8, -16
	.cfi_offset r7, -20
	.cfi_offset r6, -24
	.cfi_offset r5, -28
	.cfi_offset r4, -32
	mov	r7, r0
.Ltmp45:
	@DEBUG_VALUE: rt_rbb_blk_alloc:new_rbb <- 0
	@DEBUG_VALUE: rt_rbb_blk_alloc:empty2 <- 0
	@DEBUG_VALUE: rt_rbb_blk_alloc:empty1 <- 0
	@DEBUG_VALUE: rt_rbb_blk_alloc:rbb <- $r7
	mov	r10, r1
.Ltmp46:
	@DEBUG_VALUE: rt_rbb_blk_alloc:blk_size <- $r10
	@DEBUG_VALUE: rt_rbb_blk_alloc:blk_size <- $r10
	.loc	3 139 5 prologue_end            @ rt-thread/components/drivers/src/ringblk_buf.c:139:5
	cbz	r0, .LBB4_9
.Ltmp47:
@ %bb.1:
	@DEBUG_VALUE: rt_rbb_blk_alloc:blk_size <- $r10
	@DEBUG_VALUE: rt_rbb_blk_alloc:rbb <- $r7
	@DEBUG_VALUE: rt_rbb_blk_alloc:empty1 <- 0
	@DEBUG_VALUE: rt_rbb_blk_alloc:empty2 <- 0
	@DEBUG_VALUE: rt_rbb_blk_alloc:new_rbb <- 0
	.loc	3 140 5                         @ rt-thread/components/drivers/src/ringblk_buf.c:140:5
	cmp.w	r10, #16777216
	blo	.LBB4_3
.Ltmp48:
.LBB4_2:
	@DEBUG_VALUE: rt_rbb_blk_alloc:blk_size <- $r10
	@DEBUG_VALUE: rt_rbb_blk_alloc:rbb <- $r7
	@DEBUG_VALUE: rt_rbb_blk_alloc:empty1 <- 0
	@DEBUG_VALUE: rt_rbb_blk_alloc:empty2 <- 0
	@DEBUG_VALUE: rt_rbb_blk_alloc:new_rbb <- 0
	.loc	3 140 5 is_stmt 0               @ rt-thread/components/drivers/src/ringblk_buf.c:140:5
	movw	r1, :lower16:.L__FUNCTION__.rt_rbb_blk_alloc
	adr	r0, .LCPI4_0
	movt	r1, :upper16:.L__FUNCTION__.rt_rbb_blk_alloc
	movs	r2, #140
	bl	rt_assert_handler
.Ltmp49:
.LBB4_3:
	@DEBUG_VALUE: rt_rbb_blk_alloc:blk_size <- $r10
	@DEBUG_VALUE: rt_rbb_blk_alloc:rbb <- $r7
	@DEBUG_VALUE: rt_rbb_blk_alloc:empty1 <- 0
	@DEBUG_VALUE: rt_rbb_blk_alloc:empty2 <- 0
	@DEBUG_VALUE: rt_rbb_blk_alloc:new_rbb <- 0
	.loc	3 142 13 is_stmt 1              @ rt-thread/components/drivers/src/ringblk_buf.c:142:13
	bl	rt_hw_interrupt_disable
	mov	r8, r0
.Ltmp50:
	@DEBUG_VALUE: rt_rbb_blk_alloc:level <- $r8
	.loc	3 144 15                        @ rt-thread/components/drivers/src/ringblk_buf.c:144:15
	mov	r0, r7
	bl	find_empty_blk_in_set
.Ltmp51:
	.loc	3 146 28                        @ rt-thread/components/drivers/src/ringblk_buf.c:146:28
	add.w	r5, r7, #16
.Ltmp52:
	.loc	3 144 15                        @ rt-thread/components/drivers/src/ringblk_buf.c:144:15
	mov	r4, r0
.Ltmp53:
	@DEBUG_VALUE: rt_rbb_blk_alloc:new_rbb <- $r4
	.loc	3 146 9                         @ rt-thread/components/drivers/src/ringblk_buf.c:146:9
	mov	r0, r5
	bl	rt_slist_len
	.loc	3 146 57 is_stmt 0              @ rt-thread/components/drivers/src/ringblk_buf.c:146:57
	cmp	r4, #0
	mov.w	r6, #0
	beq.w	.LBB4_17
.Ltmp54:
@ %bb.4:
	@DEBUG_VALUE: rt_rbb_blk_alloc:blk_size <- $r10
	@DEBUG_VALUE: rt_rbb_blk_alloc:level <- $r8
	@DEBUG_VALUE: rt_rbb_blk_alloc:rbb <- $r7
	@DEBUG_VALUE: rt_rbb_blk_alloc:new_rbb <- $r4
	@DEBUG_VALUE: rt_rbb_blk_alloc:empty1 <- 0
	@DEBUG_VALUE: rt_rbb_blk_alloc:empty2 <- 0
	.loc	3 0 0                           @ rt-thread/components/drivers/src/ringblk_buf.c:0:0
	ldr	r1, [r7, #12]
	.loc	3 146 57                        @ rt-thread/components/drivers/src/ringblk_buf.c:146:57
	cmp	r0, r1
	bhs.w	.LBB4_17
.Ltmp55:
@ %bb.5:
	@DEBUG_VALUE: rt_rbb_blk_alloc:blk_size <- $r10
	@DEBUG_VALUE: rt_rbb_blk_alloc:level <- $r8
	@DEBUG_VALUE: rt_rbb_blk_alloc:rbb <- $r7
	@DEBUG_VALUE: rt_rbb_blk_alloc:new_rbb <- $r4
	@DEBUG_VALUE: rt_rbb_blk_alloc:empty1 <- 0
	@DEBUG_VALUE: rt_rbb_blk_alloc:empty2 <- 0
	.loc	3 148 13 is_stmt 1              @ rt-thread/components/drivers/src/ringblk_buf.c:148:13
	cbz	r0, .LBB4_10
.Ltmp56:
@ %bb.6:
	@DEBUG_VALUE: rt_rbb_blk_alloc:blk_size <- $r10
	@DEBUG_VALUE: rt_rbb_blk_alloc:level <- $r8
	@DEBUG_VALUE: rt_rbb_blk_alloc:rbb <- $r7
	@DEBUG_VALUE: rt_rbb_blk_alloc:new_rbb <- $r4
	@DEBUG_VALUE: rt_rbb_blk_alloc:empty1 <- 0
	@DEBUG_VALUE: rt_rbb_blk_alloc:empty2 <- 0
	.loc	3 151 20                        @ rt-thread/components/drivers/src/ringblk_buf.c:151:20
	mov	r0, r5
	.loc	3 150 20                        @ rt-thread/components/drivers/src/ringblk_buf.c:150:20
	ldr	r6, [r5]
.Ltmp57:
	@DEBUG_VALUE: rt_rbb_blk_alloc:head <- [DW_OP_constu 8, DW_OP_minus, DW_OP_stack_value] $r6
	.loc	3 151 20                        @ rt-thread/components/drivers/src/ringblk_buf.c:151:20
	bl	rt_slist_tail
	mov	r9, r0
.Ltmp58:
	.loc	3 152 23                        @ rt-thread/components/drivers/src/ringblk_buf.c:152:23
	ldr	r0, [r6, #-4]
.Ltmp59:
	.loc	3 151 20                        @ rt-thread/components/drivers/src/ringblk_buf.c:151:20
	sub.w	r6, r9, #8
.Ltmp60:
	@DEBUG_VALUE: rt_rbb_blk_alloc:tail <- $r6
	.loc	3 152 36                        @ rt-thread/components/drivers/src/ringblk_buf.c:152:36
	ldr	r1, [r9, #-4]
.Ltmp61:
	.loc	3 152 17 is_stmt 0              @ rt-thread/components/drivers/src/ringblk_buf.c:152:17
	cmp	r0, r1
	bls	.LBB4_11
.Ltmp62:
@ %bb.7:
	@DEBUG_VALUE: rt_rbb_blk_alloc:blk_size <- $r10
	@DEBUG_VALUE: rt_rbb_blk_alloc:level <- $r8
	@DEBUG_VALUE: rt_rbb_blk_alloc:rbb <- $r7
	@DEBUG_VALUE: rt_rbb_blk_alloc:tail <- $r6
	@DEBUG_VALUE: rt_rbb_blk_alloc:new_rbb <- $r4
	@DEBUG_VALUE: rt_rbb_blk_alloc:empty1 <- 0
	@DEBUG_VALUE: rt_rbb_blk_alloc:empty2 <- 0
	.loc	3 193 57 is_stmt 1              @ rt-thread/components/drivers/src/ringblk_buf.c:193:57
	ldrh	r2, [r6, #1]!
.Ltmp63:
	ldrb	r3, [r6, #2]
	orr.w	r2, r2, r3, lsl #16
	.loc	3 193 49 is_stmt 0              @ rt-thread/components/drivers/src/ringblk_buf.c:193:49
	add	r1, r2
	.loc	3 193 36                        @ rt-thread/components/drivers/src/ringblk_buf.c:193:36
	subs	r0, r0, r1
.Ltmp64:
	@DEBUG_VALUE: rt_rbb_blk_alloc:empty1 <- $r0
	.loc	3 195 21 is_stmt 1              @ rt-thread/components/drivers/src/ringblk_buf.c:195:21
	cmp	r0, r10
	bhs	.LBB4_14
.Ltmp65:
@ %bb.8:
	@DEBUG_VALUE: rt_rbb_blk_alloc:blk_size <- $r10
	@DEBUG_VALUE: rt_rbb_blk_alloc:level <- $r8
	@DEBUG_VALUE: rt_rbb_blk_alloc:rbb <- $r7
	@DEBUG_VALUE: rt_rbb_blk_alloc:new_rbb <- $r4
	@DEBUG_VALUE: rt_rbb_blk_alloc:empty1 <- $r0
	@DEBUG_VALUE: rt_rbb_blk_alloc:empty2 <- 0
	.loc	3 0 21 is_stmt 0                @ rt-thread/components/drivers/src/ringblk_buf.c:0:21
	movs	r6, #0
	b	.LBB4_17
.Ltmp66:
.LBB4_9:
	@DEBUG_VALUE: rt_rbb_blk_alloc:blk_size <- $r10
	@DEBUG_VALUE: rt_rbb_blk_alloc:rbb <- $r7
	@DEBUG_VALUE: rt_rbb_blk_alloc:empty1 <- 0
	@DEBUG_VALUE: rt_rbb_blk_alloc:empty2 <- 0
	@DEBUG_VALUE: rt_rbb_blk_alloc:new_rbb <- 0
	.loc	3 139 5 is_stmt 1               @ rt-thread/components/drivers/src/ringblk_buf.c:139:5
	movw	r0, :lower16:.L.str
	movw	r1, :lower16:.L__FUNCTION__.rt_rbb_blk_alloc
	movt	r0, :upper16:.L.str
	movt	r1, :upper16:.L__FUNCTION__.rt_rbb_blk_alloc
	movs	r2, #139
	bl	rt_assert_handler
.Ltmp67:
	.loc	3 140 5                         @ rt-thread/components/drivers/src/ringblk_buf.c:140:5
	cmp.w	r10, #16777216
	bhs	.LBB4_2
	b	.LBB4_3
.Ltmp68:
.LBB4_10:
	@DEBUG_VALUE: rt_rbb_blk_alloc:blk_size <- $r10
	@DEBUG_VALUE: rt_rbb_blk_alloc:level <- $r8
	@DEBUG_VALUE: rt_rbb_blk_alloc:rbb <- $r7
	@DEBUG_VALUE: rt_rbb_blk_alloc:new_rbb <- $r4
	@DEBUG_VALUE: rt_rbb_blk_alloc:empty1 <- 0
	@DEBUG_VALUE: rt_rbb_blk_alloc:empty2 <- 0
	.loc	3 212 55                        @ rt-thread/components/drivers/src/ringblk_buf.c:212:55
	add.w	r1, r4, #8
	.loc	3 212 13 is_stmt 0              @ rt-thread/components/drivers/src/ringblk_buf.c:212:13
	mov	r0, r5
	bl	rt_slist_append
	movs	r0, #1
	.loc	3 213 29 is_stmt 1              @ rt-thread/components/drivers/src/ringblk_buf.c:213:29
	strb	r0, [r4]
.Ltmp69:
	.loc	3 0 0 is_stmt 0                 @ rt-thread/components/drivers/src/ringblk_buf.c:0:0
	mov	r6, r4
.Ltmp70:
	.loc	3 214 33 is_stmt 1              @ rt-thread/components/drivers/src/ringblk_buf.c:214:33
	ldr	r0, [r7]
	.loc	3 214 26 is_stmt 0              @ rt-thread/components/drivers/src/ringblk_buf.c:214:26
	str	r0, [r4, #4]
	.loc	3 215 27 is_stmt 1              @ rt-thread/components/drivers/src/ringblk_buf.c:215:27
	lsr.w	r0, r10, #16
	strb	r0, [r4, #3]
	strh.w	r10, [r4, #1]
	b	.LBB4_17
.Ltmp71:
.LBB4_11:
	@DEBUG_VALUE: rt_rbb_blk_alloc:blk_size <- $r10
	@DEBUG_VALUE: rt_rbb_blk_alloc:level <- $r8
	@DEBUG_VALUE: rt_rbb_blk_alloc:rbb <- $r7
	@DEBUG_VALUE: rt_rbb_blk_alloc:tail <- $r6
	@DEBUG_VALUE: rt_rbb_blk_alloc:new_rbb <- $r4
	@DEBUG_VALUE: rt_rbb_blk_alloc:empty1 <- 0
	@DEBUG_VALUE: rt_rbb_blk_alloc:empty2 <- 0
	.loc	3 161 74                        @ rt-thread/components/drivers/src/ringblk_buf.c:161:74
	ldrh	r12, [r6, #1]!
.Ltmp72:
	ldrb	r3, [r6, #2]
	.loc	3 161 32 is_stmt 0              @ rt-thread/components/drivers/src/ringblk_buf.c:161:32
	ldrd	lr, r2, [r7]
	.loc	3 161 36                        @ rt-thread/components/drivers/src/ringblk_buf.c:161:36
	add	r2, lr
	.loc	3 161 74                        @ rt-thread/components/drivers/src/ringblk_buf.c:161:74
	orr.w	r3, r12, r3, lsl #16
	.loc	3 161 66                        @ rt-thread/components/drivers/src/ringblk_buf.c:161:66
	add	r1, r3
	.loc	3 161 53                        @ rt-thread/components/drivers/src/ringblk_buf.c:161:53
	subs	r1, r2, r1
.Ltmp73:
	@DEBUG_VALUE: rt_rbb_blk_alloc:empty2 <- undef
	@DEBUG_VALUE: rt_rbb_blk_alloc:empty1 <- $r1
	.loc	3 164 21 is_stmt 1              @ rt-thread/components/drivers/src/ringblk_buf.c:164:21
	cmp	r1, r10
	bhs	.LBB4_15
.Ltmp74:
@ %bb.12:
	@DEBUG_VALUE: rt_rbb_blk_alloc:blk_size <- $r10
	@DEBUG_VALUE: rt_rbb_blk_alloc:level <- $r8
	@DEBUG_VALUE: rt_rbb_blk_alloc:rbb <- $r7
	@DEBUG_VALUE: rt_rbb_blk_alloc:new_rbb <- $r4
	@DEBUG_VALUE: rt_rbb_blk_alloc:empty1 <- $r1
	.loc	3 162 36                        @ rt-thread/components/drivers/src/ringblk_buf.c:162:36
	sub.w	r0, r0, lr
.Ltmp75:
	@DEBUG_VALUE: rt_rbb_blk_alloc:empty2 <- $r0
	.loc	3 171 26                        @ rt-thread/components/drivers/src/ringblk_buf.c:171:26
	cmp	r0, r10
	bhs	.LBB4_16
.Ltmp76:
@ %bb.13:
	@DEBUG_VALUE: rt_rbb_blk_alloc:blk_size <- $r10
	@DEBUG_VALUE: rt_rbb_blk_alloc:level <- $r8
	@DEBUG_VALUE: rt_rbb_blk_alloc:rbb <- $r7
	@DEBUG_VALUE: rt_rbb_blk_alloc:new_rbb <- $r4
	@DEBUG_VALUE: rt_rbb_blk_alloc:empty1 <- $r1
	@DEBUG_VALUE: rt_rbb_blk_alloc:empty2 <- $r0
	.loc	3 0 26 is_stmt 0                @ rt-thread/components/drivers/src/ringblk_buf.c:0:26
	movs	r6, #0
	b	.LBB4_17
.Ltmp77:
.LBB4_14:
	@DEBUG_VALUE: rt_rbb_blk_alloc:blk_size <- $r10
	@DEBUG_VALUE: rt_rbb_blk_alloc:level <- $r8
	@DEBUG_VALUE: rt_rbb_blk_alloc:rbb <- $r7
	@DEBUG_VALUE: rt_rbb_blk_alloc:new_rbb <- $r4
	@DEBUG_VALUE: rt_rbb_blk_alloc:empty1 <- $r0
	@DEBUG_VALUE: rt_rbb_blk_alloc:empty2 <- 0
	.loc	3 197 63 is_stmt 1              @ rt-thread/components/drivers/src/ringblk_buf.c:197:63
	add.w	r1, r4, #8
	.loc	3 197 21 is_stmt 0              @ rt-thread/components/drivers/src/ringblk_buf.c:197:21
	mov	r0, r5
.Ltmp78:
	bl	rt_slist_append
	movs	r0, #1
	.loc	3 198 37 is_stmt 1              @ rt-thread/components/drivers/src/ringblk_buf.c:198:37
	strb	r0, [r4]
	.loc	3 199 54                        @ rt-thread/components/drivers/src/ringblk_buf.c:199:54
	ldrb	r0, [r6, #2]
	.loc	3 199 42 is_stmt 0              @ rt-thread/components/drivers/src/ringblk_buf.c:199:42
	ldr	r2, [r9, #-4]
	.loc	3 199 54                        @ rt-thread/components/drivers/src/ringblk_buf.c:199:54
	ldrh	r1, [r6]
	.loc	3 200 35 is_stmt 1              @ rt-thread/components/drivers/src/ringblk_buf.c:200:35
	strh.w	r10, [r4, #1]
.Ltmp79:
	.loc	3 0 0 is_stmt 0                 @ rt-thread/components/drivers/src/ringblk_buf.c:0:0
	mov	r6, r4
.Ltmp80:
	.loc	3 199 54 is_stmt 1              @ rt-thread/components/drivers/src/ringblk_buf.c:199:54
	orr.w	r0, r1, r0, lsl #16
	.loc	3 199 46 is_stmt 0              @ rt-thread/components/drivers/src/ringblk_buf.c:199:46
	add	r0, r2
	.loc	3 199 34                        @ rt-thread/components/drivers/src/ringblk_buf.c:199:34
	str	r0, [r4, #4]
	.loc	3 200 35 is_stmt 1              @ rt-thread/components/drivers/src/ringblk_buf.c:200:35
	lsr.w	r0, r10, #16
	strb	r0, [r4, #3]
	.loc	3 201 17                        @ rt-thread/components/drivers/src/ringblk_buf.c:201:17
	b	.LBB4_17
.Ltmp81:
.LBB4_15:
	@DEBUG_VALUE: rt_rbb_blk_alloc:blk_size <- $r10
	@DEBUG_VALUE: rt_rbb_blk_alloc:level <- $r8
	@DEBUG_VALUE: rt_rbb_blk_alloc:rbb <- $r7
	@DEBUG_VALUE: rt_rbb_blk_alloc:new_rbb <- $r4
	@DEBUG_VALUE: rt_rbb_blk_alloc:empty1 <- $r1
	.loc	3 166 63                        @ rt-thread/components/drivers/src/ringblk_buf.c:166:63
	add.w	r1, r4, #8
.Ltmp82:
	.loc	3 166 21 is_stmt 0              @ rt-thread/components/drivers/src/ringblk_buf.c:166:21
	mov	r0, r5
	bl	rt_slist_append
	movs	r0, #1
	.loc	3 167 37 is_stmt 1              @ rt-thread/components/drivers/src/ringblk_buf.c:167:37
	strb	r0, [r4]
	.loc	3 168 54                        @ rt-thread/components/drivers/src/ringblk_buf.c:168:54
	ldrb	r0, [r6, #2]
	.loc	3 168 42 is_stmt 0              @ rt-thread/components/drivers/src/ringblk_buf.c:168:42
	ldr	r2, [r9, #-4]
	.loc	3 168 54                        @ rt-thread/components/drivers/src/ringblk_buf.c:168:54
	ldrh	r1, [r6]
	.loc	3 169 35 is_stmt 1              @ rt-thread/components/drivers/src/ringblk_buf.c:169:35
	strh.w	r10, [r4, #1]
.Ltmp83:
	.loc	3 0 0 is_stmt 0                 @ rt-thread/components/drivers/src/ringblk_buf.c:0:0
	mov	r6, r4
.Ltmp84:
	.loc	3 168 54 is_stmt 1              @ rt-thread/components/drivers/src/ringblk_buf.c:168:54
	orr.w	r0, r1, r0, lsl #16
	.loc	3 168 46 is_stmt 0              @ rt-thread/components/drivers/src/ringblk_buf.c:168:46
	add	r0, r2
	.loc	3 168 34                        @ rt-thread/components/drivers/src/ringblk_buf.c:168:34
	str	r0, [r4, #4]
	.loc	3 169 35 is_stmt 1              @ rt-thread/components/drivers/src/ringblk_buf.c:169:35
	lsr.w	r0, r10, #16
	strb	r0, [r4, #3]
	.loc	3 170 17                        @ rt-thread/components/drivers/src/ringblk_buf.c:170:17
	b	.LBB4_17
.Ltmp85:
.LBB4_16:
	@DEBUG_VALUE: rt_rbb_blk_alloc:blk_size <- $r10
	@DEBUG_VALUE: rt_rbb_blk_alloc:level <- $r8
	@DEBUG_VALUE: rt_rbb_blk_alloc:rbb <- $r7
	@DEBUG_VALUE: rt_rbb_blk_alloc:new_rbb <- $r4
	@DEBUG_VALUE: rt_rbb_blk_alloc:empty1 <- $r1
	@DEBUG_VALUE: rt_rbb_blk_alloc:empty2 <- $r0
	.loc	3 173 63                        @ rt-thread/components/drivers/src/ringblk_buf.c:173:63
	add.w	r1, r4, #8
.Ltmp86:
	.loc	3 173 21 is_stmt 0              @ rt-thread/components/drivers/src/ringblk_buf.c:173:21
	mov	r0, r5
.Ltmp87:
	bl	rt_slist_append
	movs	r0, #1
	.loc	3 174 37 is_stmt 1              @ rt-thread/components/drivers/src/ringblk_buf.c:174:37
	strb	r0, [r4]
	.loc	3 175 41                        @ rt-thread/components/drivers/src/ringblk_buf.c:175:41
	ldr	r0, [r7]
	.loc	3 175 34 is_stmt 0              @ rt-thread/components/drivers/src/ringblk_buf.c:175:34
	str	r0, [r4, #4]
	.loc	3 176 35 is_stmt 1              @ rt-thread/components/drivers/src/ringblk_buf.c:176:35
	lsr.w	r0, r10, #16
	strb	r0, [r4, #3]
	strh.w	r10, [r4, #1]
.Ltmp88:
	.loc	3 0 0 is_stmt 0                 @ rt-thread/components/drivers/src/ringblk_buf.c:0:0
	mov	r6, r4
.Ltmp89:
	@DEBUG_VALUE: rt_rbb_blk_alloc:new_rbb <- $r6
.LBB4_17:
	@DEBUG_VALUE: rt_rbb_blk_alloc:blk_size <- $r10
	@DEBUG_VALUE: rt_rbb_blk_alloc:level <- $r8
	@DEBUG_VALUE: rt_rbb_blk_alloc:rbb <- $r7
	@DEBUG_VALUE: rt_rbb_blk_alloc:new_rbb <- $r6
	.loc	3 223 5 is_stmt 1               @ rt-thread/components/drivers/src/ringblk_buf.c:223:5
	mov	r0, r8
	bl	rt_hw_interrupt_enable
	.loc	3 225 5                         @ rt-thread/components/drivers/src/ringblk_buf.c:225:5
	mov	r0, r6
	pop.w	{r4, r5, r6, r7, r8, r9, r10, pc}
.Ltmp90:
	.p2align	2
@ %bb.18:
	.loc	3 0 5 is_stmt 0                 @ rt-thread/components/drivers/src/ringblk_buf.c:0:5
.LCPI4_0:
.L.str.3:
	.asciz	"blk_size < (1L << 24)\000\000"
.Lfunc_end4:
	.size	rt_rbb_blk_alloc, .Lfunc_end4-rt_rbb_blk_alloc
	.cfi_endproc
	.cantunwind
	.fnend
                                        @ -- End function
	.section	.text.find_empty_blk_in_set,"ax",%progbits
	.p2align	3                               @ -- Begin function find_empty_blk_in_set
	.type	find_empty_blk_in_set,%function
	.code	16                              @ @find_empty_blk_in_set
	.thumb_func
find_empty_blk_in_set:
.Lfunc_begin5:
	.loc	3 106 0 is_stmt 1               @ rt-thread/components/drivers/src/ringblk_buf.c:106:0
	.fnstart
	.cfi_startproc
@ %bb.0:
	@DEBUG_VALUE: find_empty_blk_in_set:rbb <- $r0
	.save	{r4, lr}
	push	{r4, lr}
	.cfi_def_cfa_offset 8
	.cfi_offset lr, -4
	.cfi_offset r4, -8
	mov	r4, r0
.Ltmp91:
	@DEBUG_VALUE: find_empty_blk_in_set:rbb <- $r4
	.loc	3 109 5 prologue_end            @ rt-thread/components/drivers/src/ringblk_buf.c:109:5
	cbnz	r0, .LBB5_2
.Ltmp92:
@ %bb.1:
	@DEBUG_VALUE: find_empty_blk_in_set:rbb <- $r4
	.loc	3 109 5 is_stmt 0               @ rt-thread/components/drivers/src/ringblk_buf.c:109:5
	movw	r0, :lower16:.L.str
	adr	r1, .LCPI5_0
	movt	r0, :upper16:.L.str
	movs	r2, #109
	bl	rt_assert_handler
.Ltmp93:
.LBB5_2:
	@DEBUG_VALUE: find_empty_blk_in_set:rbb <- $r4
	@DEBUG_VALUE: find_empty_blk_in_set:i <- 0
	.loc	3 111 26 is_stmt 1              @ rt-thread/components/drivers/src/ringblk_buf.c:111:26
	ldr	r0, [r4, #12]
.Ltmp94:
	.loc	3 111 5 is_stmt 0               @ rt-thread/components/drivers/src/ringblk_buf.c:111:5
	cbz	r0, .LBB5_6
.Ltmp95:
@ %bb.3:
	@DEBUG_VALUE: find_empty_blk_in_set:rbb <- $r4
	@DEBUG_VALUE: find_empty_blk_in_set:i <- 0
	.loc	3 0 5                           @ rt-thread/components/drivers/src/ringblk_buf.c:0:5
	ldr	r0, [r4, #8]
	movs	r1, #0
.Ltmp96:
	.p2align	2
.LBB5_4:                                @ =>This Inner Loop Header: Depth=1
	@DEBUG_VALUE: find_empty_blk_in_set:rbb <- $r4
	@DEBUG_VALUE: find_empty_blk_in_set:i <- $r1
	.loc	3 113 29 is_stmt 1              @ rt-thread/components/drivers/src/ringblk_buf.c:113:29
	ldrb	r2, [r0]
.Ltmp97:
	@DEBUG_VALUE: find_empty_blk_in_set:i <- undef
	.loc	3 113 13 is_stmt 0              @ rt-thread/components/drivers/src/ringblk_buf.c:113:13
	cbz	r2, .LBB5_7
.Ltmp98:
@ %bb.5:                                @   in Loop: Header=BB5_4 Depth=1
	@DEBUG_VALUE: find_empty_blk_in_set:rbb <- $r4
	.loc	3 0 0                           @ rt-thread/components/drivers/src/ringblk_buf.c:0:0
	adds	r1, #1
.Ltmp99:
	@DEBUG_VALUE: find_empty_blk_in_set:i <- $r1
	.loc	3 111 26 is_stmt 1              @ rt-thread/components/drivers/src/ringblk_buf.c:111:26
	ldr	r2, [r4, #12]
.Ltmp100:
	.loc	3 111 5 is_stmt 0               @ rt-thread/components/drivers/src/ringblk_buf.c:111:5
	cmp	r1, r2
.Ltmp101:
	.loc	3 111 19                        @ rt-thread/components/drivers/src/ringblk_buf.c:111:19
	add.w	r0, r0, #12
.Ltmp102:
	.loc	3 111 5                         @ rt-thread/components/drivers/src/ringblk_buf.c:111:5
	blo	.LBB5_4
.Ltmp103:
.LBB5_6:
	@DEBUG_VALUE: find_empty_blk_in_set:rbb <- $r4
	.loc	3 0 5                           @ rt-thread/components/drivers/src/ringblk_buf.c:0:5
	movs	r0, #0
.Ltmp104:
.LBB5_7:
	@DEBUG_VALUE: find_empty_blk_in_set:rbb <- $r4
	.loc	3 120 1 is_stmt 1               @ rt-thread/components/drivers/src/ringblk_buf.c:120:1
	pop	{r4, pc}
.Ltmp105:
	.p2align	2
@ %bb.8:
	.loc	3 0 1 is_stmt 0                 @ rt-thread/components/drivers/src/ringblk_buf.c:0:1
.LCPI5_0:
.L__FUNCTION__.find_empty_blk_in_set:
	.asciz	"find_empty_blk_in_set\000\000"
.Lfunc_end5:
	.size	find_empty_blk_in_set, .Lfunc_end5-find_empty_blk_in_set
	.cfi_endproc
	.cantunwind
	.fnend
                                        @ -- End function
	.section	.text.rt_slist_len,"ax",%progbits
	.p2align	3                               @ -- Begin function rt_slist_len
	.type	rt_slist_len,%function
	.code	16                              @ @rt_slist_len
	.thumb_func
rt_slist_len:
.Lfunc_begin6:
	.loc	4 213 0 is_stmt 1               @ rt-thread/include\rtservice.h:213:0
	.fnstart
	.cfi_startproc
@ %bb.0:
	@DEBUG_VALUE: rt_slist_len:l <- $r0
	mov	r1, r0
.Ltmp106:
	@DEBUG_VALUE: rt_slist_len:l <- $r1
	mov.w	r0, #-1
.Ltmp107:
	@DEBUG_VALUE: rt_slist_len:list <- undef
	@DEBUG_VALUE: rt_slist_len:len <- 0
	.p2align	2
.LBB6_1:                                @ =>This Inner Loop Header: Depth=1
	.loc	4 0 0 prologue_end              @ rt-thread/include\rtservice.h:0:0
	ldr	r1, [r1]
.Ltmp108:
	@DEBUG_VALUE: rt_slist_len:list <- undef
	@DEBUG_VALUE: rt_slist_len:len <- [DW_OP_plus_uconst 2, DW_OP_stack_value] $r0
	.loc	4 216 5                         @ rt-thread/include\rtservice.h:216:5
	adds	r0, #1
.Ltmp109:
	cmp	r1, #0
	bne	.LBB6_1
.Ltmp110:
@ %bb.2:
	.loc	4 222 5                         @ rt-thread/include\rtservice.h:222:5
	bx	lr
.Ltmp111:
.Lfunc_end6:
	.size	rt_slist_len, .Lfunc_end6-rt_slist_len
	.cfi_endproc
	.cantunwind
	.fnend
                                        @ -- End function
	.section	.text.rt_slist_tail,"ax",%progbits
	.p2align	3                               @ -- Begin function rt_slist_tail
	.type	rt_slist_tail,%function
	.code	16                              @ @rt_slist_tail
	.thumb_func
rt_slist_tail:
.Lfunc_begin7:
	.loc	4 243 0                         @ rt-thread/include\rtservice.h:243:0
	.fnstart
	.cfi_startproc
@ %bb.0:
	@DEBUG_VALUE: rt_slist_tail:l <- $r0
	@DEBUG_VALUE: rt_slist_tail:l <- $r0
	.p2align	2
.LBB7_1:                                @ =>This Inner Loop Header: Depth=1
	mov	r1, r0
.Ltmp112:
	@DEBUG_VALUE: rt_slist_tail:l <- $r1
	.loc	4 244 15 prologue_end           @ rt-thread/include\rtservice.h:244:15
	ldr	r0, [r0]
	.loc	4 244 5 is_stmt 0               @ rt-thread/include\rtservice.h:244:5
	cmp	r0, #0
	bne	.LBB7_1
.Ltmp113:
@ %bb.2:
	@DEBUG_VALUE: rt_slist_tail:l <- $r1
	.loc	4 246 5 is_stmt 1               @ rt-thread/include\rtservice.h:246:5
	mov	r0, r1
	bx	lr
.Ltmp114:
.Lfunc_end7:
	.size	rt_slist_tail, .Lfunc_end7-rt_slist_tail
	.cfi_endproc
	.cantunwind
	.fnend
                                        @ -- End function
	.section	.text.rt_slist_append,"ax",%progbits
	.p2align	3                               @ -- Begin function rt_slist_append
	.type	rt_slist_append,%function
	.code	16                              @ @rt_slist_append
	.thumb_func
rt_slist_append:
.Lfunc_begin8:
	.loc	4 195 0                         @ rt-thread/include\rtservice.h:195:0
	.fnstart
	.cfi_startproc
@ %bb.0:
	@DEBUG_VALUE: rt_slist_append:l <- $r0
	@DEBUG_VALUE: rt_slist_append:l <- $r0
	@DEBUG_VALUE: rt_slist_append:n <- $r1
	@DEBUG_VALUE: rt_slist_append:n <- $r1
	@DEBUG_VALUE: rt_slist_append:node <- $r0
	@DEBUG_VALUE: rt_slist_append:node <- $r0
	.p2align	2
.LBB8_1:                                @ =>This Inner Loop Header: Depth=1
	@DEBUG_VALUE: rt_slist_append:n <- $r1
	.loc	4 0 0 prologue_end              @ rt-thread/include\rtservice.h:0:0
	mov	r2, r0
.Ltmp115:
	@DEBUG_VALUE: rt_slist_append:node <- $r2
	.loc	4 199 18                        @ rt-thread/include\rtservice.h:199:18
	ldr	r0, [r0]
.Ltmp116:
	@DEBUG_VALUE: rt_slist_append:l <- [DW_OP_LLVM_entry_value 1] $r0
	.loc	4 199 5 is_stmt 0               @ rt-thread/include\rtservice.h:199:5
	cmp	r0, #0
	bne	.LBB8_1
.Ltmp117:
@ %bb.2:
	@DEBUG_VALUE: rt_slist_append:node <- $r2
	@DEBUG_VALUE: rt_slist_append:n <- $r1
	.loc	4 202 16 is_stmt 1              @ rt-thread/include\rtservice.h:202:16
	str	r1, [r2]
	movs	r0, #0
	.loc	4 203 13                        @ rt-thread/include\rtservice.h:203:13
	str	r0, [r1]
	.loc	4 204 1                         @ rt-thread/include\rtservice.h:204:1
	bx	lr
.Ltmp118:
.Lfunc_end8:
	.size	rt_slist_append, .Lfunc_end8-rt_slist_append
	.cfi_endproc
	.cantunwind
	.fnend
                                        @ -- End function
	.section	.text.rt_rbb_blk_put,"ax",%progbits
	.hidden	rt_rbb_blk_put                  @ -- Begin function rt_rbb_blk_put
	.globl	rt_rbb_blk_put
	.p2align	3
	.type	rt_rbb_blk_put,%function
	.code	16                              @ @rt_rbb_blk_put
	.thumb_func
rt_rbb_blk_put:
.Lfunc_begin9:
	.loc	3 235 0                         @ rt-thread/components/drivers/src/ringblk_buf.c:235:0
	.fnstart
	.cfi_startproc
@ %bb.0:
	@DEBUG_VALUE: rt_rbb_blk_put:block <- $r0
	.save	{r4, lr}
	push	{r4, lr}
	.cfi_def_cfa_offset 8
	.cfi_offset lr, -4
	.cfi_offset r4, -8
	mov	r4, r0
.Ltmp119:
	@DEBUG_VALUE: rt_rbb_blk_put:block <- $r4
	.loc	3 236 5 prologue_end            @ rt-thread/components/drivers/src/ringblk_buf.c:236:5
	cbnz	r0, .LBB9_2
.Ltmp120:
@ %bb.1:
	@DEBUG_VALUE: rt_rbb_blk_put:block <- $r4
	.loc	3 236 5 is_stmt 0               @ rt-thread/components/drivers/src/ringblk_buf.c:236:5
	movw	r0, :lower16:.L.str.4
	movw	r1, :lower16:.L__FUNCTION__.rt_rbb_blk_put
	movt	r0, :upper16:.L.str.4
	movt	r1, :upper16:.L__FUNCTION__.rt_rbb_blk_put
	movs	r2, #236
	bl	rt_assert_handler
.Ltmp121:
.LBB9_2:
	@DEBUG_VALUE: rt_rbb_blk_put:block <- $r4
	.loc	3 237 5 is_stmt 1               @ rt-thread/components/drivers/src/ringblk_buf.c:237:5
	ldrb	r0, [r4]
.Ltmp122:
	.loc	3 237 5 is_stmt 0               @ rt-thread/components/drivers/src/ringblk_buf.c:237:5
	cmp	r0, #1
	beq	.LBB9_4
.Ltmp123:
@ %bb.3:
	@DEBUG_VALUE: rt_rbb_blk_put:block <- $r4
	.loc	3 237 5                         @ rt-thread/components/drivers/src/ringblk_buf.c:237:5
	movw	r1, :lower16:.L__FUNCTION__.rt_rbb_blk_put
	adr	r0, .LCPI9_0
	movt	r1, :upper16:.L__FUNCTION__.rt_rbb_blk_put
	movs	r2, #237
	bl	rt_assert_handler
.Ltmp124:
.LBB9_4:
	@DEBUG_VALUE: rt_rbb_blk_put:block <- $r4
	.loc	3 0 5                           @ rt-thread/components/drivers/src/ringblk_buf.c:0:5
	movs	r0, #2
	.loc	3 239 19 is_stmt 1              @ rt-thread/components/drivers/src/ringblk_buf.c:239:19
	strb	r0, [r4]
	.loc	3 240 1                         @ rt-thread/components/drivers/src/ringblk_buf.c:240:1
	pop	{r4, pc}
.Ltmp125:
	.p2align	2
@ %bb.5:
	.loc	3 0 1 is_stmt 0                 @ rt-thread/components/drivers/src/ringblk_buf.c:0:1
.LCPI9_0:
.L.str.5:
	.asciz	"block->status == RT_RBB_BLK_INITED\000"
.Lfunc_end9:
	.size	rt_rbb_blk_put, .Lfunc_end9-rt_rbb_blk_put
	.cfi_endproc
	.cantunwind
	.fnend
                                        @ -- End function
	.section	.text.rt_rbb_blk_get,"ax",%progbits
	.hidden	rt_rbb_blk_get                  @ -- Begin function rt_rbb_blk_get
	.globl	rt_rbb_blk_get
	.p2align	3
	.type	rt_rbb_blk_get,%function
	.code	16                              @ @rt_rbb_blk_get
	.thumb_func
rt_rbb_blk_get:
.Lfunc_begin10:
	.loc	3 252 0 is_stmt 1               @ rt-thread/components/drivers/src/ringblk_buf.c:252:0
	.fnstart
	.cfi_startproc
@ %bb.0:
	@DEBUG_VALUE: rt_rbb_blk_get:rbb <- $r0
	.save	{r4, r5, r7, lr}
	push	{r4, r5, r7, lr}
	.cfi_def_cfa_offset 16
	.cfi_offset lr, -4
	.cfi_offset r7, -8
	.cfi_offset r5, -12
	.cfi_offset r4, -16
	mov	r4, r0
.Ltmp126:
	@DEBUG_VALUE: rt_rbb_blk_get:block <- 0
	@DEBUG_VALUE: rt_rbb_blk_get:rbb <- $r4
	.loc	3 257 5 prologue_end            @ rt-thread/components/drivers/src/ringblk_buf.c:257:5
	cbnz	r0, .LBB10_2
.Ltmp127:
@ %bb.1:
	@DEBUG_VALUE: rt_rbb_blk_get:rbb <- $r4
	@DEBUG_VALUE: rt_rbb_blk_get:block <- 0
	.loc	3 257 5 is_stmt 0               @ rt-thread/components/drivers/src/ringblk_buf.c:257:5
	movw	r0, :lower16:.L.str
	adr	r1, .LCPI10_0
	movt	r0, :upper16:.L.str
	movw	r2, #257
	bl	rt_assert_handler
.Ltmp128:
.LBB10_2:
	@DEBUG_VALUE: rt_rbb_blk_get:rbb <- $r4
	@DEBUG_VALUE: rt_rbb_blk_get:block <- 0
	.loc	3 259 32 is_stmt 1              @ rt-thread/components/drivers/src/ringblk_buf.c:259:32
	add.w	r5, r4, #16
	.loc	3 259 9 is_stmt 0               @ rt-thread/components/drivers/src/ringblk_buf.c:259:9
	mov	r0, r5
	bl	rt_slist_isempty
.Ltmp129:
	.loc	3 259 9                         @ rt-thread/components/drivers/src/ringblk_buf.c:259:9
	cmp	r0, #0
	itt	ne
	movne	r0, #0
	.loc	3 281 1 is_stmt 1               @ rt-thread/components/drivers/src/ringblk_buf.c:281:1
	popne	{r4, r5, r7, pc}
.Ltmp130:
.LBB10_3:
	@DEBUG_VALUE: rt_rbb_blk_get:block <- 0
	.loc	3 262 13                        @ rt-thread/components/drivers/src/ringblk_buf.c:262:13
	bl	rt_hw_interrupt_disable
	mov	r4, r0
.Ltmp131:
	@DEBUG_VALUE: rt_rbb_blk_get:level <- $r4
	.loc	3 264 17                        @ rt-thread/components/drivers/src/ringblk_buf.c:264:17
	mov	r0, r5
	bl	rt_slist_first
.Ltmp132:
	@DEBUG_VALUE: rt_rbb_blk_get:node <- $r0
	.loc	3 264 5 is_stmt 0               @ rt-thread/components/drivers/src/ringblk_buf.c:264:5
	cbz	r0, .LBB10_6
.Ltmp133:
	.p2align	2
.LBB10_4:                               @ =>This Inner Loop Header: Depth=1
	@DEBUG_VALUE: rt_rbb_blk_get:level <- $r4
	@DEBUG_VALUE: rt_rbb_blk_get:node <- $r0
	@DEBUG_VALUE: rt_rbb_blk_get:node <- $r0
	.loc	3 267 20 is_stmt 1              @ rt-thread/components/drivers/src/ringblk_buf.c:267:20
	mov	r5, r0
	ldrb	r1, [r5, #-8]!
.Ltmp134:
	@DEBUG_VALUE: rt_rbb_blk_get:block <- $r5
	.loc	3 267 13 is_stmt 0              @ rt-thread/components/drivers/src/ringblk_buf.c:267:13
	cmp	r1, #2
	beq	.LBB10_7
.Ltmp135:
@ %bb.5:                                @   in Loop: Header=BB10_4 Depth=1
	@DEBUG_VALUE: rt_rbb_blk_get:block <- $r5
	@DEBUG_VALUE: rt_rbb_blk_get:level <- $r4
	@DEBUG_VALUE: rt_rbb_blk_get:node <- $r0
	.loc	3 264 62 is_stmt 1              @ rt-thread/components/drivers/src/ringblk_buf.c:264:62
	bl	rt_slist_next
.Ltmp136:
	@DEBUG_VALUE: rt_rbb_blk_get:node <- $r0
	.loc	3 264 5 is_stmt 0               @ rt-thread/components/drivers/src/ringblk_buf.c:264:5
	cmp	r0, #0
	bne	.LBB10_4
.Ltmp137:
.LBB10_6:
	@DEBUG_VALUE: rt_rbb_blk_get:level <- $r4
	@DEBUG_VALUE: rt_rbb_blk_get:node <- $r0
	.loc	3 0 5                           @ rt-thread/components/drivers/src/ringblk_buf.c:0:5
	movs	r5, #0
	b	.LBB10_8
.Ltmp138:
.LBB10_7:
	@DEBUG_VALUE: rt_rbb_blk_get:block <- $r5
	@DEBUG_VALUE: rt_rbb_blk_get:level <- $r4
	@DEBUG_VALUE: rt_rbb_blk_get:node <- $r0
	movs	r0, #3
.Ltmp139:
	@DEBUG_VALUE: rt_rbb_blk_get:block <- $r5
	.loc	3 269 27 is_stmt 1              @ rt-thread/components/drivers/src/ringblk_buf.c:269:27
	strb	r0, [r5]
.Ltmp140:
.LBB10_8:
	@DEBUG_VALUE: rt_rbb_blk_get:level <- $r4
	@DEBUG_VALUE: rt_rbb_blk_get:block <- $r5
	@DEBUG_LABEL: rt_rbb_blk_get:__exit
	.loc	3 278 5                         @ rt-thread/components/drivers/src/ringblk_buf.c:278:5
	mov	r0, r4
	bl	rt_hw_interrupt_enable
	.loc	3 281 1                         @ rt-thread/components/drivers/src/ringblk_buf.c:281:1
	mov	r0, r5
	pop	{r4, r5, r7, pc}
.Ltmp141:
	.p2align	2
@ %bb.9:
	.loc	3 0 1 is_stmt 0                 @ rt-thread/components/drivers/src/ringblk_buf.c:0:1
.LCPI10_0:
.L__FUNCTION__.rt_rbb_blk_get:
	.asciz	"rt_rbb_blk_get\000"
.Lfunc_end10:
	.size	rt_rbb_blk_get, .Lfunc_end10-rt_rbb_blk_get
	.cfi_endproc
	.cantunwind
	.fnend
                                        @ -- End function
	.section	.text.rt_slist_isempty,"ax",%progbits
	.p2align	3                               @ -- Begin function rt_slist_isempty
	.type	rt_slist_isempty,%function
	.code	16                              @ @rt_slist_isempty
	.thumb_func
rt_slist_isempty:
.Lfunc_begin11:
	.loc	4 255 0 is_stmt 1               @ rt-thread/include\rtservice.h:255:0
	.fnstart
	.cfi_startproc
@ %bb.0:
	@DEBUG_VALUE: rt_slist_isempty:l <- $r0
	@DEBUG_VALUE: rt_slist_isempty:l <- $r0
	.loc	4 256 15 prologue_end           @ rt-thread/include\rtservice.h:256:15
	ldr	r0, [r0]
.Ltmp142:
	@DEBUG_VALUE: rt_slist_isempty:l <- [DW_OP_LLVM_entry_value 1] $r0
	.loc	4 256 20 is_stmt 0              @ rt-thread/include\rtservice.h:256:20
	clz	r0, r0
	lsrs	r0, r0, #5
	.loc	4 256 5                         @ rt-thread/include\rtservice.h:256:5
	bx	lr
.Ltmp143:
.Lfunc_end11:
	.size	rt_slist_isempty, .Lfunc_end11-rt_slist_isempty
	.cfi_endproc
	.cantunwind
	.fnend
                                        @ -- End function
	.section	.text.rt_slist_first,"ax",%progbits
	.p2align	3                               @ -- Begin function rt_slist_first
	.type	rt_slist_first,%function
	.code	16                              @ @rt_slist_first
	.thumb_func
rt_slist_first:
.Lfunc_begin12:
	.loc	4 238 0 is_stmt 1               @ rt-thread/include\rtservice.h:238:0
	.fnstart
	.cfi_startproc
@ %bb.0:
	@DEBUG_VALUE: rt_slist_first:l <- $r0
	@DEBUG_VALUE: rt_slist_first:l <- $r0
	.loc	4 239 15 prologue_end           @ rt-thread/include\rtservice.h:239:15
	ldr	r0, [r0]
.Ltmp144:
	@DEBUG_VALUE: rt_slist_first:l <- [DW_OP_LLVM_entry_value 1] $r0
	.loc	4 239 5 is_stmt 0               @ rt-thread/include\rtservice.h:239:5
	bx	lr
.Ltmp145:
.Lfunc_end12:
	.size	rt_slist_first, .Lfunc_end12-rt_slist_first
	.cfi_endproc
	.cantunwind
	.fnend
                                        @ -- End function
	.section	.text.rt_slist_next,"ax",%progbits
	.p2align	3                               @ -- Begin function rt_slist_next
	.type	rt_slist_next,%function
	.code	16                              @ @rt_slist_next
	.thumb_func
rt_slist_next:
.Lfunc_begin13:
	.loc	4 250 0 is_stmt 1               @ rt-thread/include\rtservice.h:250:0
	.fnstart
	.cfi_startproc
@ %bb.0:
	@DEBUG_VALUE: rt_slist_next:n <- $r0
	@DEBUG_VALUE: rt_slist_next:n <- $r0
	.loc	4 251 15 prologue_end           @ rt-thread/include\rtservice.h:251:15
	ldr	r0, [r0]
.Ltmp146:
	@DEBUG_VALUE: rt_slist_next:n <- [DW_OP_LLVM_entry_value 1] $r0
	.loc	4 251 5 is_stmt 0               @ rt-thread/include\rtservice.h:251:5
	bx	lr
.Ltmp147:
.Lfunc_end13:
	.size	rt_slist_next, .Lfunc_end13-rt_slist_next
	.cfi_endproc
	.cantunwind
	.fnend
                                        @ -- End function
	.section	.text.rt_rbb_blk_size,"ax",%progbits
	.hidden	rt_rbb_blk_size                 @ -- Begin function rt_rbb_blk_size
	.globl	rt_rbb_blk_size
	.p2align	3
	.type	rt_rbb_blk_size,%function
	.code	16                              @ @rt_rbb_blk_size
	.thumb_func
rt_rbb_blk_size:
.Lfunc_begin14:
	.loc	3 292 0 is_stmt 1               @ rt-thread/components/drivers/src/ringblk_buf.c:292:0
	.fnstart
	.cfi_startproc
@ %bb.0:
	@DEBUG_VALUE: rt_rbb_blk_size:block <- $r0
	.save	{r4, lr}
	push	{r4, lr}
	.cfi_def_cfa_offset 8
	.cfi_offset lr, -4
	.cfi_offset r4, -8
	mov	r4, r0
.Ltmp148:
	@DEBUG_VALUE: rt_rbb_blk_size:block <- $r4
	.loc	3 293 5 prologue_end            @ rt-thread/components/drivers/src/ringblk_buf.c:293:5
	cbnz	r0, .LBB14_2
.Ltmp149:
@ %bb.1:
	@DEBUG_VALUE: rt_rbb_blk_size:block <- $r4
	.loc	3 293 5 is_stmt 0               @ rt-thread/components/drivers/src/ringblk_buf.c:293:5
	movw	r0, :lower16:.L.str.4
	adr	r1, .LCPI14_0
	movt	r0, :upper16:.L.str.4
	movw	r2, #293
	bl	rt_assert_handler
.Ltmp150:
.LBB14_2:
	@DEBUG_VALUE: rt_rbb_blk_size:block <- $r4
	.loc	3 295 19 is_stmt 1              @ rt-thread/components/drivers/src/ringblk_buf.c:295:19
	ldrb	r0, [r4, #3]
	ldrh.w	r1, [r4, #1]
	orr.w	r0, r1, r0, lsl #16
	.loc	3 295 5 is_stmt 0               @ rt-thread/components/drivers/src/ringblk_buf.c:295:5
	pop	{r4, pc}
.Ltmp151:
	.p2align	2
@ %bb.3:
	.loc	3 0 5                           @ rt-thread/components/drivers/src/ringblk_buf.c:0:5
.LCPI14_0:
.L__FUNCTION__.rt_rbb_blk_size:
	.asciz	"rt_rbb_blk_size"
.Lfunc_end14:
	.size	rt_rbb_blk_size, .Lfunc_end14-rt_rbb_blk_size
	.cfi_endproc
	.cantunwind
	.fnend
                                        @ -- End function
	.section	.text.rt_rbb_blk_buf,"ax",%progbits
	.hidden	rt_rbb_blk_buf                  @ -- Begin function rt_rbb_blk_buf
	.globl	rt_rbb_blk_buf
	.p2align	3
	.type	rt_rbb_blk_buf,%function
	.code	16                              @ @rt_rbb_blk_buf
	.thumb_func
rt_rbb_blk_buf:
.Lfunc_begin15:
	.loc	3 307 0 is_stmt 1               @ rt-thread/components/drivers/src/ringblk_buf.c:307:0
	.fnstart
	.cfi_startproc
@ %bb.0:
	@DEBUG_VALUE: rt_rbb_blk_buf:block <- $r0
	.save	{r4, lr}
	push	{r4, lr}
	.cfi_def_cfa_offset 8
	.cfi_offset lr, -4
	.cfi_offset r4, -8
	mov	r4, r0
.Ltmp152:
	@DEBUG_VALUE: rt_rbb_blk_buf:block <- $r4
	.loc	3 308 5 prologue_end            @ rt-thread/components/drivers/src/ringblk_buf.c:308:5
	cbz	r0, .LBB15_2
.Ltmp153:
@ %bb.1:
	@DEBUG_VALUE: rt_rbb_blk_buf:block <- $r4
	.loc	3 310 19                        @ rt-thread/components/drivers/src/ringblk_buf.c:310:19
	ldr	r0, [r4, #4]
	.loc	3 310 5 is_stmt 0               @ rt-thread/components/drivers/src/ringblk_buf.c:310:5
	pop	{r4, pc}
.Ltmp154:
.LBB15_2:
	@DEBUG_VALUE: rt_rbb_blk_buf:block <- $r4
	.loc	3 308 5 is_stmt 1               @ rt-thread/components/drivers/src/ringblk_buf.c:308:5
	movw	r0, :lower16:.L.str.4
	adr	r1, .LCPI15_0
	movt	r0, :upper16:.L.str.4
	mov.w	r2, #308
	bl	rt_assert_handler
.Ltmp155:
	.loc	3 310 19                        @ rt-thread/components/drivers/src/ringblk_buf.c:310:19
	ldr	r0, [r4, #4]
	.loc	3 310 5 is_stmt 0               @ rt-thread/components/drivers/src/ringblk_buf.c:310:5
	pop	{r4, pc}
.Ltmp156:
	.p2align	2
@ %bb.3:
	.loc	3 0 5                           @ rt-thread/components/drivers/src/ringblk_buf.c:0:5
.LCPI15_0:
.L__FUNCTION__.rt_rbb_blk_buf:
	.asciz	"rt_rbb_blk_buf\000"
.Lfunc_end15:
	.size	rt_rbb_blk_buf, .Lfunc_end15-rt_rbb_blk_buf
	.cfi_endproc
	.cantunwind
	.fnend
                                        @ -- End function
	.section	.text.rt_rbb_blk_free,"ax",%progbits
	.hidden	rt_rbb_blk_free                 @ -- Begin function rt_rbb_blk_free
	.globl	rt_rbb_blk_free
	.p2align	3
	.type	rt_rbb_blk_free,%function
	.code	16                              @ @rt_rbb_blk_free
	.thumb_func
rt_rbb_blk_free:
.Lfunc_begin16:
	.loc	3 321 0 is_stmt 1               @ rt-thread/components/drivers/src/ringblk_buf.c:321:0
	.fnstart
	.cfi_startproc
@ %bb.0:
	@DEBUG_VALUE: rt_rbb_blk_free:rbb <- $r0
	@DEBUG_VALUE: rt_rbb_blk_free:block <- $r1
	.save	{r4, r5, r6, lr}
	push	{r4, r5, r6, lr}
	.cfi_def_cfa_offset 16
	.cfi_offset lr, -4
	.cfi_offset r6, -8
	.cfi_offset r5, -12
	.cfi_offset r4, -16
	mov	r5, r0
.Ltmp157:
	@DEBUG_VALUE: rt_rbb_blk_free:rbb <- $r5
	mov	r4, r1
.Ltmp158:
	@DEBUG_VALUE: rt_rbb_blk_free:block <- $r4
	@DEBUG_VALUE: rt_rbb_blk_free:block <- $r4
	.loc	3 324 5 prologue_end            @ rt-thread/components/drivers/src/ringblk_buf.c:324:5
	cbz	r0, .LBB16_5
.Ltmp159:
@ %bb.1:
	@DEBUG_VALUE: rt_rbb_blk_free:rbb <- $r5
	@DEBUG_VALUE: rt_rbb_blk_free:block <- $r4
	.loc	3 325 5                         @ rt-thread/components/drivers/src/ringblk_buf.c:325:5
	cbz	r4, .LBB16_6
.Ltmp160:
.LBB16_2:
	@DEBUG_VALUE: rt_rbb_blk_free:rbb <- $r5
	@DEBUG_VALUE: rt_rbb_blk_free:block <- $r4
	.loc	3 326 5                         @ rt-thread/components/drivers/src/ringblk_buf.c:326:5
	ldrb	r0, [r4]
.Ltmp161:
	.loc	3 326 5 is_stmt 0               @ rt-thread/components/drivers/src/ringblk_buf.c:326:5
	cbnz	r0, .LBB16_4
.Ltmp162:
@ %bb.3:
	@DEBUG_VALUE: rt_rbb_blk_free:rbb <- $r5
	@DEBUG_VALUE: rt_rbb_blk_free:block <- $r4
	.loc	3 326 5                         @ rt-thread/components/drivers/src/ringblk_buf.c:326:5
	movw	r1, :lower16:.L__FUNCTION__.rt_rbb_blk_free
	adr	r0, .LCPI16_0
	movt	r1, :upper16:.L__FUNCTION__.rt_rbb_blk_free
	mov.w	r2, #326
	bl	rt_assert_handler
.Ltmp163:
.LBB16_4:
	@DEBUG_VALUE: rt_rbb_blk_free:rbb <- $r5
	@DEBUG_VALUE: rt_rbb_blk_free:block <- $r4
	.loc	3 328 13 is_stmt 1              @ rt-thread/components/drivers/src/ringblk_buf.c:328:13
	bl	rt_hw_interrupt_disable
	mov	r6, r0
.Ltmp164:
	@DEBUG_VALUE: rt_rbb_blk_free:level <- $r6
	.loc	3 331 27                        @ rt-thread/components/drivers/src/ringblk_buf.c:331:27
	add.w	r0, r5, #16
	.loc	3 331 45 is_stmt 0              @ rt-thread/components/drivers/src/ringblk_buf.c:331:45
	add.w	r1, r4, #8
	.loc	3 331 5                         @ rt-thread/components/drivers/src/ringblk_buf.c:331:5
	bl	rt_slist_remove
	movs	r0, #0
	.loc	3 333 19 is_stmt 1              @ rt-thread/components/drivers/src/ringblk_buf.c:333:19
	strb	r0, [r4]
	.loc	3 335 5                         @ rt-thread/components/drivers/src/ringblk_buf.c:335:5
	mov	r0, r6
	bl	rt_hw_interrupt_enable
	.loc	3 336 1                         @ rt-thread/components/drivers/src/ringblk_buf.c:336:1
	pop	{r4, r5, r6, pc}
.Ltmp165:
.LBB16_5:
	@DEBUG_VALUE: rt_rbb_blk_free:rbb <- $r5
	@DEBUG_VALUE: rt_rbb_blk_free:block <- $r4
	.loc	3 324 5                         @ rt-thread/components/drivers/src/ringblk_buf.c:324:5
	movw	r0, :lower16:.L.str
	movw	r1, :lower16:.L__FUNCTION__.rt_rbb_blk_free
	movt	r0, :upper16:.L.str
	movt	r1, :upper16:.L__FUNCTION__.rt_rbb_blk_free
	mov.w	r2, #324
	bl	rt_assert_handler
.Ltmp166:
	.loc	3 325 5                         @ rt-thread/components/drivers/src/ringblk_buf.c:325:5
	cmp	r4, #0
	bne	.LBB16_2
.Ltmp167:
.LBB16_6:
	@DEBUG_VALUE: rt_rbb_blk_free:rbb <- $r5
	@DEBUG_VALUE: rt_rbb_blk_free:block <- $r4
	.loc	3 325 5 is_stmt 0               @ rt-thread/components/drivers/src/ringblk_buf.c:325:5
	movw	r0, :lower16:.L.str.4
	movw	r1, :lower16:.L__FUNCTION__.rt_rbb_blk_free
	movt	r0, :upper16:.L.str.4
	movt	r1, :upper16:.L__FUNCTION__.rt_rbb_blk_free
	movw	r2, #325
	bl	rt_assert_handler
	b	.LBB16_2
.Ltmp168:
	.p2align	2
@ %bb.7:
	.loc	3 0 5                           @ rt-thread/components/drivers/src/ringblk_buf.c:0:5
.LCPI16_0:
.L.str.6:
	.asciz	"block->status != RT_RBB_BLK_UNUSED\000"
.Lfunc_end16:
	.size	rt_rbb_blk_free, .Lfunc_end16-rt_rbb_blk_free
	.cfi_endproc
	.cantunwind
	.fnend
                                        @ -- End function
	.section	.text.rt_slist_remove,"ax",%progbits
	.p2align	3                               @ -- Begin function rt_slist_remove
	.type	rt_slist_remove,%function
	.code	16                              @ @rt_slist_remove
	.thumb_func
rt_slist_remove:
.Lfunc_begin17:
	.loc	4 226 0 is_stmt 1               @ rt-thread/include\rtservice.h:226:0
	.fnstart
	.cfi_startproc
@ %bb.0:
	@DEBUG_VALUE: rt_slist_remove:l <- $r0
	@DEBUG_VALUE: rt_slist_remove:l <- $r0
	@DEBUG_VALUE: rt_slist_remove:n <- $r1
	@DEBUG_VALUE: rt_slist_remove:n <- $r1
	@DEBUG_VALUE: rt_slist_remove:node <- $r0
	@DEBUG_VALUE: rt_slist_remove:node <- $r0
	.p2align	2
.LBB17_1:                               @ =>This Inner Loop Header: Depth=1
	@DEBUG_VALUE: rt_slist_remove:n <- $r1
	.loc	4 0 0 prologue_end              @ rt-thread/include\rtservice.h:0:0
	mov	r2, r0
.Ltmp169:
	@DEBUG_VALUE: rt_slist_remove:node <- $r2
	.loc	4 229 18                        @ rt-thread/include\rtservice.h:229:18
	ldr	r0, [r0]
.Ltmp170:
	@DEBUG_VALUE: rt_slist_remove:l <- [DW_OP_LLVM_entry_value 1] $r0
	.loc	4 229 23 is_stmt 0              @ rt-thread/include\rtservice.h:229:23
	cmp	r0, #0
	it	ne
	cmpne	r0, r1
	bne	.LBB17_1
.Ltmp171:
@ %bb.2:
	@DEBUG_VALUE: rt_slist_remove:node <- $r2
	@DEBUG_VALUE: rt_slist_remove:n <- $r1
	.loc	4 232 9 is_stmt 1               @ rt-thread/include\rtservice.h:232:9
	cmp	r0, #0
.Ltmp172:
	.loc	4 232 65 is_stmt 0              @ rt-thread/include\rtservice.h:232:65
	itt	ne
	ldrne	r0, [r0]
	.loc	4 232 51                        @ rt-thread/include\rtservice.h:232:51
	strne	r0, [r2]
.Ltmp173:
	.loc	4 234 5 is_stmt 1               @ rt-thread/include\rtservice.h:234:5
	bx	lr
.Ltmp174:
.Lfunc_end17:
	.size	rt_slist_remove, .Lfunc_end17-rt_slist_remove
	.cfi_endproc
	.cantunwind
	.fnend
                                        @ -- End function
	.section	.text.rt_rbb_blk_queue_get,"ax",%progbits
	.hidden	rt_rbb_blk_queue_get            @ -- Begin function rt_rbb_blk_queue_get
	.globl	rt_rbb_blk_queue_get
	.p2align	3
	.type	rt_rbb_blk_queue_get,%function
	.code	16                              @ @rt_rbb_blk_queue_get
	.thumb_func
rt_rbb_blk_queue_get:
.Lfunc_begin18:
	.loc	3 363 0                         @ rt-thread/components/drivers/src/ringblk_buf.c:363:0
	.fnstart
	.cfi_startproc
@ %bb.0:
	@DEBUG_VALUE: rt_rbb_blk_queue_get:rbb <- $r0
	@DEBUG_VALUE: rt_rbb_blk_queue_get:queue_data_len <- $r1
	@DEBUG_VALUE: rt_rbb_blk_queue_get:blk_queue <- $r2
	.save	{r4, r5, r6, r7, r8, r9, r10, r11, lr}
	push.w	{r4, r5, r6, r7, r8, r9, r10, r11, lr}
	.cfi_def_cfa_offset 36
	.cfi_offset lr, -4
	.cfi_offset r11, -8
	.cfi_offset r10, -12
	.cfi_offset r9, -16
	.cfi_offset r8, -20
	.cfi_offset r7, -24
	.cfi_offset r6, -28
	.cfi_offset r5, -32
	.cfi_offset r4, -36
	.pad	#4
	sub	sp, #4
	.cfi_def_cfa_offset 40
	mov	r5, r0
.Ltmp175:
	@DEBUG_VALUE: rt_rbb_blk_queue_get:last_block <- 0
	@DEBUG_VALUE: rt_rbb_blk_queue_get:data_total_size <- 0
	@DEBUG_VALUE: rt_rbb_blk_queue_get:rbb <- $r5
	mov	r4, r2
.Ltmp176:
	@DEBUG_VALUE: rt_rbb_blk_queue_get:blk_queue <- $r4
	@DEBUG_VALUE: rt_rbb_blk_queue_get:blk_queue <- $r4
	mov	r9, r1
.Ltmp177:
	@DEBUG_VALUE: rt_rbb_blk_queue_get:queue_data_len <- $r9
	@DEBUG_VALUE: rt_rbb_blk_queue_get:queue_data_len <- $r9
	.loc	3 369 5 prologue_end            @ rt-thread/components/drivers/src/ringblk_buf.c:369:5
	cbz	r0, .LBB18_5
.Ltmp178:
@ %bb.1:
	@DEBUG_VALUE: rt_rbb_blk_queue_get:queue_data_len <- $r9
	@DEBUG_VALUE: rt_rbb_blk_queue_get:rbb <- $r5
	@DEBUG_VALUE: rt_rbb_blk_queue_get:blk_queue <- $r4
	@DEBUG_VALUE: rt_rbb_blk_queue_get:data_total_size <- 0
	@DEBUG_VALUE: rt_rbb_blk_queue_get:last_block <- 0
	.loc	3 370 5                         @ rt-thread/components/drivers/src/ringblk_buf.c:370:5
	cbnz	r4, .LBB18_3
.Ltmp179:
.LBB18_2:
	@DEBUG_VALUE: rt_rbb_blk_queue_get:queue_data_len <- $r9
	@DEBUG_VALUE: rt_rbb_blk_queue_get:rbb <- $r5
	@DEBUG_VALUE: rt_rbb_blk_queue_get:blk_queue <- $r4
	@DEBUG_VALUE: rt_rbb_blk_queue_get:data_total_size <- 0
	@DEBUG_VALUE: rt_rbb_blk_queue_get:last_block <- 0
	.loc	3 370 5 is_stmt 0               @ rt-thread/components/drivers/src/ringblk_buf.c:370:5
	movw	r0, :lower16:.L.str.7
	movw	r1, :lower16:.L__FUNCTION__.rt_rbb_blk_queue_get
	movt	r0, :upper16:.L.str.7
	movt	r1, :upper16:.L__FUNCTION__.rt_rbb_blk_queue_get
	mov.w	r2, #370
	bl	rt_assert_handler
.Ltmp180:
.LBB18_3:
	@DEBUG_VALUE: rt_rbb_blk_queue_get:queue_data_len <- $r9
	@DEBUG_VALUE: rt_rbb_blk_queue_get:rbb <- $r5
	@DEBUG_VALUE: rt_rbb_blk_queue_get:blk_queue <- $r4
	@DEBUG_VALUE: rt_rbb_blk_queue_get:data_total_size <- 0
	@DEBUG_VALUE: rt_rbb_blk_queue_get:last_block <- 0
	.loc	3 372 32 is_stmt 1              @ rt-thread/components/drivers/src/ringblk_buf.c:372:32
	add.w	r7, r5, #16
	.loc	3 372 9 is_stmt 0               @ rt-thread/components/drivers/src/ringblk_buf.c:372:9
	mov	r0, r7
	bl	rt_slist_isempty
.Ltmp181:
	.loc	3 372 9                         @ rt-thread/components/drivers/src/ringblk_buf.c:372:9
	cbz	r0, .LBB18_6
.Ltmp182:
@ %bb.4:
	@DEBUG_VALUE: rt_rbb_blk_queue_get:queue_data_len <- $r9
	@DEBUG_VALUE: rt_rbb_blk_queue_get:rbb <- $r5
	@DEBUG_VALUE: rt_rbb_blk_queue_get:blk_queue <- $r4
	@DEBUG_VALUE: rt_rbb_blk_queue_get:data_total_size <- 0
	@DEBUG_VALUE: rt_rbb_blk_queue_get:last_block <- 0
	.loc	3 0 9                           @ rt-thread/components/drivers/src/ringblk_buf.c:0:9
	movs	r6, #0
	b	.LBB18_19
.Ltmp183:
.LBB18_5:
	@DEBUG_VALUE: rt_rbb_blk_queue_get:queue_data_len <- $r9
	@DEBUG_VALUE: rt_rbb_blk_queue_get:rbb <- $r5
	@DEBUG_VALUE: rt_rbb_blk_queue_get:blk_queue <- $r4
	@DEBUG_VALUE: rt_rbb_blk_queue_get:data_total_size <- 0
	@DEBUG_VALUE: rt_rbb_blk_queue_get:last_block <- 0
	.loc	3 369 5 is_stmt 1               @ rt-thread/components/drivers/src/ringblk_buf.c:369:5
	movw	r0, :lower16:.L.str
	movw	r1, :lower16:.L__FUNCTION__.rt_rbb_blk_queue_get
	movt	r0, :upper16:.L.str
	movt	r1, :upper16:.L__FUNCTION__.rt_rbb_blk_queue_get
	movw	r2, #369
	bl	rt_assert_handler
.Ltmp184:
	.loc	3 370 5                         @ rt-thread/components/drivers/src/ringblk_buf.c:370:5
	cmp	r4, #0
	bne	.LBB18_3
	b	.LBB18_2
.Ltmp185:
.LBB18_6:
	@DEBUG_VALUE: rt_rbb_blk_queue_get:queue_data_len <- $r9
	@DEBUG_VALUE: rt_rbb_blk_queue_get:rbb <- $r5
	@DEBUG_VALUE: rt_rbb_blk_queue_get:blk_queue <- $r4
	@DEBUG_VALUE: rt_rbb_blk_queue_get:data_total_size <- 0
	@DEBUG_VALUE: rt_rbb_blk_queue_get:last_block <- 0
	.loc	3 375 13                        @ rt-thread/components/drivers/src/ringblk_buf.c:375:13
	bl	rt_hw_interrupt_disable
	mov	r8, r0
.Ltmp186:
	@DEBUG_VALUE: rt_rbb_blk_queue_get:level <- $r8
	.loc	3 377 17                        @ rt-thread/components/drivers/src/ringblk_buf.c:377:17
	mov	r0, r7
	bl	rt_slist_first
.Ltmp187:
	@DEBUG_VALUE: rt_rbb_blk_queue_get:node <- $r0
	.loc	3 377 5 is_stmt 0               @ rt-thread/components/drivers/src/ringblk_buf.c:377:5
	cmp	r0, #0
	@DEBUG_VALUE: rt_rbb_blk_queue_get:last_block <- 0
	@DEBUG_VALUE: rt_rbb_blk_queue_get:data_total_size <- 0
	beq	.LBB18_17
.Ltmp188:
@ %bb.7:
	@DEBUG_VALUE: rt_rbb_blk_queue_get:queue_data_len <- $r9
	@DEBUG_VALUE: rt_rbb_blk_queue_get:level <- $r8
	@DEBUG_VALUE: rt_rbb_blk_queue_get:rbb <- $r5
	@DEBUG_VALUE: rt_rbb_blk_queue_get:blk_queue <- $r4
	@DEBUG_VALUE: rt_rbb_blk_queue_get:node <- $r0
	@DEBUG_VALUE: rt_rbb_blk_queue_get:data_total_size <- 0
	@DEBUG_VALUE: rt_rbb_blk_queue_get:last_block <- 0
	.loc	3 0 5                           @ rt-thread/components/drivers/src/ringblk_buf.c:0:5
	mov	r5, r0
.Ltmp189:
	@DEBUG_VALUE: rt_rbb_blk_queue_get:node <- $r5
	@DEBUG_VALUE: rt_rbb_blk_queue_get:node <- $r5
	mov.w	r11, #3
	movs	r0, #0
	movs	r6, #0
	b	.LBB18_11
.Ltmp190:
.LBB18_8:                               @   in Loop: Header=BB18_11 Depth=1
	@DEBUG_VALUE: rt_rbb_blk_queue_get:last_block <- $r10
	@DEBUG_VALUE: rt_rbb_blk_queue_get:queue_data_len <- $r9
	@DEBUG_VALUE: rt_rbb_blk_queue_get:level <- $r8
	@DEBUG_VALUE: rt_rbb_blk_queue_get:data_total_size <- $r6
	@DEBUG_VALUE: rt_rbb_blk_queue_get:node <- $r5
	@DEBUG_VALUE: rt_rbb_blk_queue_get:blk_queue <- $r4
	@DEBUG_VALUE: rt_rbb_blk_queue_get:last_block <- $r10
	.loc	3 385 35 is_stmt 1              @ rt-thread/components/drivers/src/ringblk_buf.c:385:35
	str.w	r10, [r4]
	.loc	3 386 36                        @ rt-thread/components/drivers/src/ringblk_buf.c:386:36
	movs	r0, #0
	str	r0, [r4, #4]
.Ltmp191:
.LBB18_9:                               @   in Loop: Header=BB18_11 Depth=1
	@DEBUG_VALUE: rt_rbb_blk_queue_get:queue_data_len <- $r9
	@DEBUG_VALUE: rt_rbb_blk_queue_get:level <- $r8
	@DEBUG_VALUE: rt_rbb_blk_queue_get:data_total_size <- $r6
	@DEBUG_VALUE: rt_rbb_blk_queue_get:node <- $r5
	@DEBUG_VALUE: rt_rbb_blk_queue_get:blk_queue <- $r4
	@DEBUG_VALUE: rt_rbb_blk_queue_get:last_block <- $r10
	.loc	3 414 54                        @ rt-thread/components/drivers/src/ringblk_buf.c:414:54
	add.w	r1, r10, #8
	.loc	3 414 9 is_stmt 0               @ rt-thread/components/drivers/src/ringblk_buf.c:414:9
	mov	r0, r7
	bl	rt_slist_remove
	.loc	3 415 40 is_stmt 1              @ rt-thread/components/drivers/src/ringblk_buf.c:415:40
	ldrb.w	r0, [r10, #3]
	.loc	3 416 28                        @ rt-thread/components/drivers/src/ringblk_buf.c:416:28
	strb.w	r11, [r10]
	.loc	3 415 40                        @ rt-thread/components/drivers/src/ringblk_buf.c:415:40
	ldrh.w	r1, [r10, #1]
	orr.w	r0, r1, r0, lsl #16
	.loc	3 415 25 is_stmt 0              @ rt-thread/components/drivers/src/ringblk_buf.c:415:25
	add	r6, r0
.Ltmp192:
	@DEBUG_VALUE: rt_rbb_blk_queue_get:data_total_size <- $r6
	.loc	3 417 27 is_stmt 1              @ rt-thread/components/drivers/src/ringblk_buf.c:417:27
	ldr	r0, [r4, #4]
	adds	r0, #1
	str	r0, [r4, #4]
.Ltmp193:
.LBB18_10:                              @   in Loop: Header=BB18_11 Depth=1
	@DEBUG_VALUE: rt_rbb_blk_queue_get:queue_data_len <- $r9
	@DEBUG_VALUE: rt_rbb_blk_queue_get:level <- $r8
	@DEBUG_VALUE: rt_rbb_blk_queue_get:data_total_size <- $r6
	@DEBUG_VALUE: rt_rbb_blk_queue_get:node <- $r5
	@DEBUG_VALUE: rt_rbb_blk_queue_get:blk_queue <- $r4
	@DEBUG_VALUE: rt_rbb_blk_queue_get:data_total_size <- $r6
	@DEBUG_VALUE: rt_rbb_blk_queue_get:last_block <- $r10
	.loc	3 377 62                        @ rt-thread/components/drivers/src/ringblk_buf.c:377:62
	mov	r0, r5
	bl	rt_slist_next
	mov	r5, r0
.Ltmp194:
	@DEBUG_VALUE: rt_rbb_blk_queue_get:node <- $r5
	.loc	3 377 5 is_stmt 0               @ rt-thread/components/drivers/src/ringblk_buf.c:377:5
	cmp	r0, #0
	mov	r0, r10
.Ltmp195:
	@DEBUG_VALUE: rt_rbb_blk_queue_get:last_block <- $r0
	beq	.LBB18_18
.Ltmp196:
.LBB18_11:                              @ =>This Inner Loop Header: Depth=1
	@DEBUG_VALUE: rt_rbb_blk_queue_get:queue_data_len <- $r9
	@DEBUG_VALUE: rt_rbb_blk_queue_get:level <- $r8
	@DEBUG_VALUE: rt_rbb_blk_queue_get:node <- $r5
	@DEBUG_VALUE: rt_rbb_blk_queue_get:blk_queue <- $r4
	@DEBUG_VALUE: rt_rbb_blk_queue_get:data_total_size <- $r6
	@DEBUG_VALUE: rt_rbb_blk_queue_get:last_block <- $r0
	@DEBUG_VALUE: rt_rbb_blk_queue_get:node <- $r5
	.loc	3 0 0                           @ rt-thread/components/drivers/src/ringblk_buf.c:0:0
	sub.w	r10, r5, #8
.Ltmp197:
	.loc	3 379 13 is_stmt 1              @ rt-thread/components/drivers/src/ringblk_buf.c:379:13
	cbz	r0, .LBB18_15
.Ltmp198:
@ %bb.12:                               @   in Loop: Header=BB18_11 Depth=1
	@DEBUG_VALUE: rt_rbb_blk_queue_get:queue_data_len <- $r9
	@DEBUG_VALUE: rt_rbb_blk_queue_get:level <- $r8
	@DEBUG_VALUE: rt_rbb_blk_queue_get:data_total_size <- $r6
	@DEBUG_VALUE: rt_rbb_blk_queue_get:node <- $r5
	@DEBUG_VALUE: rt_rbb_blk_queue_get:blk_queue <- $r4
	@DEBUG_VALUE: rt_rbb_blk_queue_get:last_block <- $r0
	@DEBUG_VALUE: rt_rbb_blk_queue_get:block <- $r10
	.loc	3 404 24                        @ rt-thread/components/drivers/src/ringblk_buf.c:404:24
	ldrb.w	r1, [r10]
	.loc	3 404 49 is_stmt 0              @ rt-thread/components/drivers/src/ringblk_buf.c:404:49
	cmp	r1, #2
	bne	.LBB18_18
.Ltmp199:
@ %bb.13:                               @   in Loop: Header=BB18_11 Depth=1
	@DEBUG_VALUE: rt_rbb_blk_queue_get:block <- $r10
	@DEBUG_VALUE: rt_rbb_blk_queue_get:queue_data_len <- $r9
	@DEBUG_VALUE: rt_rbb_blk_queue_get:level <- $r8
	@DEBUG_VALUE: rt_rbb_blk_queue_get:data_total_size <- $r6
	@DEBUG_VALUE: rt_rbb_blk_queue_get:node <- $r5
	@DEBUG_VALUE: rt_rbb_blk_queue_get:blk_queue <- $r4
	@DEBUG_VALUE: rt_rbb_blk_queue_get:last_block <- $r0
	.loc	3 405 29 is_stmt 1              @ rt-thread/components/drivers/src/ringblk_buf.c:405:29
	ldr	r0, [r0, #4]
.Ltmp200:
	.loc	3 405 42 is_stmt 0              @ rt-thread/components/drivers/src/ringblk_buf.c:405:42
	ldr	r1, [r5, #-4]
	.loc	3 405 46                        @ rt-thread/components/drivers/src/ringblk_buf.c:405:46
	cmp	r0, r1
	bhi	.LBB18_18
.Ltmp201:
@ %bb.14:                               @   in Loop: Header=BB18_11 Depth=1
	@DEBUG_VALUE: rt_rbb_blk_queue_get:block <- $r10
	@DEBUG_VALUE: rt_rbb_blk_queue_get:queue_data_len <- $r9
	@DEBUG_VALUE: rt_rbb_blk_queue_get:level <- $r8
	@DEBUG_VALUE: rt_rbb_blk_queue_get:data_total_size <- $r6
	@DEBUG_VALUE: rt_rbb_blk_queue_get:node <- $r5
	@DEBUG_VALUE: rt_rbb_blk_queue_get:blk_queue <- $r4
	.loc	3 406 42 is_stmt 1              @ rt-thread/components/drivers/src/ringblk_buf.c:406:42
	ldrb.w	r0, [r10, #3]
	ldrh.w	r1, [r10, #1]
	orr.w	r0, r1, r0, lsl #16
	.loc	3 406 33 is_stmt 0              @ rt-thread/components/drivers/src/ringblk_buf.c:406:33
	add	r0, r6
.Ltmp202:
	.loc	3 404 17 is_stmt 1              @ rt-thread/components/drivers/src/ringblk_buf.c:404:17
	cmp	r0, r9
	bls	.LBB18_9
	b	.LBB18_18
.Ltmp203:
	.p2align	2
.LBB18_15:                              @   in Loop: Header=BB18_11 Depth=1
	@DEBUG_VALUE: rt_rbb_blk_queue_get:queue_data_len <- $r9
	@DEBUG_VALUE: rt_rbb_blk_queue_get:level <- $r8
	@DEBUG_VALUE: rt_rbb_blk_queue_get:data_total_size <- $r6
	@DEBUG_VALUE: rt_rbb_blk_queue_get:node <- $r5
	@DEBUG_VALUE: rt_rbb_blk_queue_get:blk_queue <- $r4
	@DEBUG_VALUE: rt_rbb_blk_queue_get:last_block <- $r0
	@DEBUG_VALUE: rt_rbb_blk_queue_get:last_block <- $r10
	.loc	3 382 29                        @ rt-thread/components/drivers/src/ringblk_buf.c:382:29
	ldrb.w	r0, [r10]
.Ltmp204:
	.loc	3 382 17 is_stmt 0              @ rt-thread/components/drivers/src/ringblk_buf.c:382:17
	cmp	r0, #2
	beq	.LBB18_8
.Ltmp205:
@ %bb.16:                               @   in Loop: Header=BB18_11 Depth=1
	@DEBUG_VALUE: rt_rbb_blk_queue_get:last_block <- $r10
	@DEBUG_VALUE: rt_rbb_blk_queue_get:queue_data_len <- $r9
	@DEBUG_VALUE: rt_rbb_blk_queue_get:level <- $r8
	@DEBUG_VALUE: rt_rbb_blk_queue_get:data_total_size <- $r6
	@DEBUG_VALUE: rt_rbb_blk_queue_get:node <- $r5
	@DEBUG_VALUE: rt_rbb_blk_queue_get:blk_queue <- $r4
	.loc	3 0 17                          @ rt-thread/components/drivers/src/ringblk_buf.c:0:17
	mov.w	r10, #0
.Ltmp206:
	b	.LBB18_10
.Ltmp207:
.LBB18_17:
	@DEBUG_VALUE: rt_rbb_blk_queue_get:queue_data_len <- $r9
	@DEBUG_VALUE: rt_rbb_blk_queue_get:level <- $r8
	@DEBUG_VALUE: rt_rbb_blk_queue_get:rbb <- $r5
	@DEBUG_VALUE: rt_rbb_blk_queue_get:blk_queue <- $r4
	@DEBUG_VALUE: rt_rbb_blk_queue_get:node <- $r0
	@DEBUG_VALUE: rt_rbb_blk_queue_get:data_total_size <- 0
	@DEBUG_VALUE: rt_rbb_blk_queue_get:last_block <- 0
	movs	r6, #0
.Ltmp208:
.LBB18_18:
	@DEBUG_VALUE: rt_rbb_blk_queue_get:queue_data_len <- $r9
	@DEBUG_VALUE: rt_rbb_blk_queue_get:level <- $r8
	@DEBUG_VALUE: rt_rbb_blk_queue_get:blk_queue <- $r4
	.loc	3 420 5 is_stmt 1               @ rt-thread/components/drivers/src/ringblk_buf.c:420:5
	mov	r0, r8
	bl	rt_hw_interrupt_enable
.Ltmp209:
.LBB18_19:
	@DEBUG_VALUE: rt_rbb_blk_queue_get:queue_data_len <- $r9
	@DEBUG_VALUE: rt_rbb_blk_queue_get:blk_queue <- $r4
	.loc	3 423 1                         @ rt-thread/components/drivers/src/ringblk_buf.c:423:1
	mov	r0, r6
	add	sp, #4
	pop.w	{r4, r5, r6, r7, r8, r9, r10, r11, pc}
.Ltmp210:
.Lfunc_end18:
	.size	rt_rbb_blk_queue_get, .Lfunc_end18-rt_rbb_blk_queue_get
	.cfi_endproc
	.cantunwind
	.fnend
                                        @ -- End function
	.section	.text.rt_rbb_blk_queue_len,"ax",%progbits
	.hidden	rt_rbb_blk_queue_len            @ -- Begin function rt_rbb_blk_queue_len
	.globl	rt_rbb_blk_queue_len
	.p2align	3
	.type	rt_rbb_blk_queue_len,%function
	.code	16                              @ @rt_rbb_blk_queue_len
	.thumb_func
rt_rbb_blk_queue_len:
.Lfunc_begin19:
	.loc	3 434 0                         @ rt-thread/components/drivers/src/ringblk_buf.c:434:0
	.fnstart
	.cfi_startproc
@ %bb.0:
	@DEBUG_VALUE: rt_rbb_blk_queue_len:blk_queue <- $r0
	.save	{r4, lr}
	push	{r4, lr}
	.cfi_def_cfa_offset 8
	.cfi_offset lr, -4
	.cfi_offset r4, -8
	mov	r4, r0
.Ltmp211:
	@DEBUG_VALUE: rt_rbb_blk_queue_len:data_total_size <- 0
	@DEBUG_VALUE: rt_rbb_blk_queue_len:blk_queue <- $r4
	.loc	3 437 5 prologue_end            @ rt-thread/components/drivers/src/ringblk_buf.c:437:5
	cbnz	r0, .LBB19_2
.Ltmp212:
@ %bb.1:
	@DEBUG_VALUE: rt_rbb_blk_queue_len:blk_queue <- $r4
	@DEBUG_VALUE: rt_rbb_blk_queue_len:data_total_size <- 0
	.loc	3 437 5 is_stmt 0               @ rt-thread/components/drivers/src/ringblk_buf.c:437:5
	movw	r0, :lower16:.L.str.7
	adr	r1, .LCPI19_0
	movt	r0, :upper16:.L.str.7
	movw	r2, #437
	bl	rt_assert_handler
.Ltmp213:
.LBB19_2:
	@DEBUG_VALUE: rt_rbb_blk_queue_len:blk_queue <- $r4
	@DEBUG_VALUE: rt_rbb_blk_queue_len:data_total_size <- 0
	@DEBUG_VALUE: rt_rbb_blk_queue_len:data_total_size <- 0
	@DEBUG_VALUE: rt_rbb_blk_queue_len:i <- 0
	.loc	3 439 32 is_stmt 1              @ rt-thread/components/drivers/src/ringblk_buf.c:439:32
	ldr	r0, [r4, #4]
.Ltmp214:
	.loc	3 439 5 is_stmt 0               @ rt-thread/components/drivers/src/ringblk_buf.c:439:5
	cbz	r0, .LBB19_6
.Ltmp215:
@ %bb.3:
	@DEBUG_VALUE: rt_rbb_blk_queue_len:blk_queue <- $r4
	@DEBUG_VALUE: rt_rbb_blk_queue_len:i <- 0
	@DEBUG_VALUE: rt_rbb_blk_queue_len:data_total_size <- 0
	.loc	3 0 5                           @ rt-thread/components/drivers/src/ringblk_buf.c:0:5
	ldrd	r0, r12, [r4]
	.loc	3 439 5                         @ rt-thread/components/drivers/src/ringblk_buf.c:439:5
	adds	r2, r0, #1
	movs	r0, #0
	movs	r3, #0
.Ltmp216:
	.p2align	2
.LBB19_4:                               @ =>This Inner Loop Header: Depth=1
	@DEBUG_VALUE: rt_rbb_blk_queue_len:data_total_size <- $r0
	@DEBUG_VALUE: rt_rbb_blk_queue_len:i <- $r3
	.loc	3 441 49 is_stmt 1              @ rt-thread/components/drivers/src/ringblk_buf.c:441:49
	ldrb	r4, [r2, #2]
.Ltmp217:
	.loc	3 439 42                        @ rt-thread/components/drivers/src/ringblk_buf.c:439:42
	adds	r3, #1
.Ltmp218:
	@DEBUG_VALUE: rt_rbb_blk_queue_len:i <- $r3
	.loc	3 441 49                        @ rt-thread/components/drivers/src/ringblk_buf.c:441:49
	ldrh	r1, [r2], #12
.Ltmp219:
	.loc	3 439 5                         @ rt-thread/components/drivers/src/ringblk_buf.c:439:5
	cmp	r3, r12
.Ltmp220:
	.loc	3 441 49                        @ rt-thread/components/drivers/src/ringblk_buf.c:441:49
	orr.w	r1, r1, r4, lsl #16
	.loc	3 441 25 is_stmt 0              @ rt-thread/components/drivers/src/ringblk_buf.c:441:25
	add	r0, r1
.Ltmp221:
	@DEBUG_VALUE: rt_rbb_blk_queue_len:data_total_size <- $r0
	.loc	3 439 5 is_stmt 1               @ rt-thread/components/drivers/src/ringblk_buf.c:439:5
	blo	.LBB19_4
.Ltmp222:
@ %bb.5:
	@DEBUG_VALUE: rt_rbb_blk_queue_len:i <- $r3
	@DEBUG_VALUE: rt_rbb_blk_queue_len:data_total_size <- $r0
	.loc	3 444 5                         @ rt-thread/components/drivers/src/ringblk_buf.c:444:5
	pop	{r4, pc}
.Ltmp223:
.LBB19_6:
	@DEBUG_VALUE: rt_rbb_blk_queue_len:blk_queue <- $r4
	@DEBUG_VALUE: rt_rbb_blk_queue_len:i <- 0
	@DEBUG_VALUE: rt_rbb_blk_queue_len:data_total_size <- 0
	.loc	3 0 5 is_stmt 0                 @ rt-thread/components/drivers/src/ringblk_buf.c:0:5
	movs	r0, #0
	.loc	3 444 5                         @ rt-thread/components/drivers/src/ringblk_buf.c:444:5
	pop	{r4, pc}
.Ltmp224:
	.p2align	2
@ %bb.7:
	.loc	3 0 5                           @ rt-thread/components/drivers/src/ringblk_buf.c:0:5
.LCPI19_0:
.L__FUNCTION__.rt_rbb_blk_queue_len:
	.asciz	"rt_rbb_blk_queue_len\000\000\000"
.Lfunc_end19:
	.size	rt_rbb_blk_queue_len, .Lfunc_end19-rt_rbb_blk_queue_len
	.cfi_endproc
	.cantunwind
	.fnend
                                        @ -- End function
	.section	.text.rt_rbb_blk_queue_buf,"ax",%progbits
	.hidden	rt_rbb_blk_queue_buf            @ -- Begin function rt_rbb_blk_queue_buf
	.globl	rt_rbb_blk_queue_buf
	.p2align	3
	.type	rt_rbb_blk_queue_buf,%function
	.code	16                              @ @rt_rbb_blk_queue_buf
	.thumb_func
rt_rbb_blk_queue_buf:
.Lfunc_begin20:
	.loc	3 456 0 is_stmt 1               @ rt-thread/components/drivers/src/ringblk_buf.c:456:0
	.fnstart
	.cfi_startproc
@ %bb.0:
	@DEBUG_VALUE: rt_rbb_blk_queue_buf:blk_queue <- $r0
	.save	{r4, lr}
	push	{r4, lr}
	.cfi_def_cfa_offset 8
	.cfi_offset lr, -4
	.cfi_offset r4, -8
	mov	r4, r0
.Ltmp225:
	@DEBUG_VALUE: rt_rbb_blk_queue_buf:blk_queue <- $r4
	.loc	3 457 5 prologue_end            @ rt-thread/components/drivers/src/ringblk_buf.c:457:5
	cbnz	r0, .LBB20_2
.Ltmp226:
@ %bb.1:
	@DEBUG_VALUE: rt_rbb_blk_queue_buf:blk_queue <- $r4
	.loc	3 457 5 is_stmt 0               @ rt-thread/components/drivers/src/ringblk_buf.c:457:5
	movw	r0, :lower16:.L.str.7
	adr	r1, .LCPI20_0
	movt	r0, :upper16:.L.str.7
	movw	r2, #457
	bl	rt_assert_handler
.Ltmp227:
.LBB20_2:
	@DEBUG_VALUE: rt_rbb_blk_queue_buf:blk_queue <- $r4
	.loc	3 459 23 is_stmt 1              @ rt-thread/components/drivers/src/ringblk_buf.c:459:23
	ldr	r0, [r4]
	.loc	3 459 33 is_stmt 0              @ rt-thread/components/drivers/src/ringblk_buf.c:459:33
	ldr	r0, [r0, #4]
	.loc	3 459 5                         @ rt-thread/components/drivers/src/ringblk_buf.c:459:5
	pop	{r4, pc}
.Ltmp228:
	.p2align	2
@ %bb.3:
	.loc	3 0 5                           @ rt-thread/components/drivers/src/ringblk_buf.c:0:5
.LCPI20_0:
.L__FUNCTION__.rt_rbb_blk_queue_buf:
	.asciz	"rt_rbb_blk_queue_buf\000\000\000"
.Lfunc_end20:
	.size	rt_rbb_blk_queue_buf, .Lfunc_end20-rt_rbb_blk_queue_buf
	.cfi_endproc
	.cantunwind
	.fnend
                                        @ -- End function
	.section	.text.rt_rbb_blk_queue_free,"ax",%progbits
	.hidden	rt_rbb_blk_queue_free           @ -- Begin function rt_rbb_blk_queue_free
	.globl	rt_rbb_blk_queue_free
	.p2align	3
	.type	rt_rbb_blk_queue_free,%function
	.code	16                              @ @rt_rbb_blk_queue_free
	.thumb_func
rt_rbb_blk_queue_free:
.Lfunc_begin21:
	.loc	3 470 0 is_stmt 1               @ rt-thread/components/drivers/src/ringblk_buf.c:470:0
	.fnstart
	.cfi_startproc
@ %bb.0:
	@DEBUG_VALUE: rt_rbb_blk_queue_free:rbb <- $r0
	@DEBUG_VALUE: rt_rbb_blk_queue_free:blk_queue <- $r1
	.save	{r4, r5, r6, r7, lr}
	push	{r4, r5, r6, r7, lr}
	.cfi_def_cfa_offset 20
	.cfi_offset lr, -4
	.cfi_offset r7, -8
	.cfi_offset r6, -12
	.cfi_offset r5, -16
	.cfi_offset r4, -20
	.pad	#4
	sub	sp, #4
	.cfi_def_cfa_offset 24
	mov	r4, r0
.Ltmp229:
	@DEBUG_VALUE: rt_rbb_blk_queue_free:rbb <- $r4
	mov	r5, r1
.Ltmp230:
	@DEBUG_VALUE: rt_rbb_blk_queue_free:blk_queue <- $r5
	@DEBUG_VALUE: rt_rbb_blk_queue_free:blk_queue <- $r5
	.loc	3 473 5 prologue_end            @ rt-thread/components/drivers/src/ringblk_buf.c:473:5
	cbz	r0, .LBB21_6
.Ltmp231:
@ %bb.1:
	@DEBUG_VALUE: rt_rbb_blk_queue_free:blk_queue <- $r5
	@DEBUG_VALUE: rt_rbb_blk_queue_free:rbb <- $r4
	.loc	3 474 5                         @ rt-thread/components/drivers/src/ringblk_buf.c:474:5
	cbz	r5, .LBB21_7
.Ltmp232:
.LBB21_2:
	@DEBUG_VALUE: rt_rbb_blk_queue_free:blk_queue <- $r5
	@DEBUG_VALUE: rt_rbb_blk_queue_free:rbb <- $r4
	@DEBUG_VALUE: rt_rbb_blk_queue_free:i <- 0
	.loc	3 476 32                        @ rt-thread/components/drivers/src/ringblk_buf.c:476:32
	ldr	r0, [r5, #4]
.Ltmp233:
	.loc	3 476 5 is_stmt 0               @ rt-thread/components/drivers/src/ringblk_buf.c:476:5
	cbz	r0, .LBB21_5
.Ltmp234:
@ %bb.3:
	@DEBUG_VALUE: rt_rbb_blk_queue_free:blk_queue <- $r5
	@DEBUG_VALUE: rt_rbb_blk_queue_free:rbb <- $r4
	@DEBUG_VALUE: rt_rbb_blk_queue_free:i <- 0
	.loc	3 0 5                           @ rt-thread/components/drivers/src/ringblk_buf.c:0:5
	movs	r6, #0
	movs	r7, #0
.Ltmp235:
	.p2align	2
.LBB21_4:                               @ =>This Inner Loop Header: Depth=1
	@DEBUG_VALUE: rt_rbb_blk_queue_free:blk_queue <- $r5
	@DEBUG_VALUE: rt_rbb_blk_queue_free:rbb <- $r4
	@DEBUG_VALUE: rt_rbb_blk_queue_free:i <- $r7
	.loc	3 478 42 is_stmt 1              @ rt-thread/components/drivers/src/ringblk_buf.c:478:42
	ldr	r0, [r5]
	.loc	3 478 9 is_stmt 0               @ rt-thread/components/drivers/src/ringblk_buf.c:478:9
	adds	r1, r0, r6
	mov	r0, r4
	bl	rt_rbb_blk_free
.Ltmp236:
	.loc	3 476 42 is_stmt 1              @ rt-thread/components/drivers/src/ringblk_buf.c:476:42
	adds	r7, #1
.Ltmp237:
	@DEBUG_VALUE: rt_rbb_blk_queue_free:i <- $r7
	.loc	3 476 32 is_stmt 0              @ rt-thread/components/drivers/src/ringblk_buf.c:476:32
	ldr	r0, [r5, #4]
.Ltmp238:
	.loc	3 476 5                         @ rt-thread/components/drivers/src/ringblk_buf.c:476:5
	cmp	r7, r0
.Ltmp239:
	.loc	3 476 19                        @ rt-thread/components/drivers/src/ringblk_buf.c:476:19
	add.w	r6, r6, #12
.Ltmp240:
	.loc	3 476 5                         @ rt-thread/components/drivers/src/ringblk_buf.c:476:5
	blo	.LBB21_4
.Ltmp241:
.LBB21_5:
	@DEBUG_VALUE: rt_rbb_blk_queue_free:blk_queue <- $r5
	@DEBUG_VALUE: rt_rbb_blk_queue_free:rbb <- $r4
	.loc	3 480 1 is_stmt 1               @ rt-thread/components/drivers/src/ringblk_buf.c:480:1
	add	sp, #4
	pop	{r4, r5, r6, r7, pc}
.Ltmp242:
.LBB21_6:
	@DEBUG_VALUE: rt_rbb_blk_queue_free:blk_queue <- $r5
	@DEBUG_VALUE: rt_rbb_blk_queue_free:rbb <- $r4
	.loc	3 473 5                         @ rt-thread/components/drivers/src/ringblk_buf.c:473:5
	movw	r0, :lower16:.L.str
	movw	r1, :lower16:.L__FUNCTION__.rt_rbb_blk_queue_free
	movt	r0, :upper16:.L.str
	movt	r1, :upper16:.L__FUNCTION__.rt_rbb_blk_queue_free
	movw	r2, #473
	bl	rt_assert_handler
.Ltmp243:
	.loc	3 474 5                         @ rt-thread/components/drivers/src/ringblk_buf.c:474:5
	cmp	r5, #0
	bne	.LBB21_2
.Ltmp244:
.LBB21_7:
	@DEBUG_VALUE: rt_rbb_blk_queue_free:blk_queue <- $r5
	@DEBUG_VALUE: rt_rbb_blk_queue_free:rbb <- $r4
	.loc	3 474 5 is_stmt 0               @ rt-thread/components/drivers/src/ringblk_buf.c:474:5
	movw	r0, :lower16:.L.str.7
	movw	r1, :lower16:.L__FUNCTION__.rt_rbb_blk_queue_free
	movt	r0, :upper16:.L.str.7
	movt	r1, :upper16:.L__FUNCTION__.rt_rbb_blk_queue_free
	mov.w	r2, #474
	bl	rt_assert_handler
	b	.LBB21_2
.Ltmp245:
.Lfunc_end21:
	.size	rt_rbb_blk_queue_free, .Lfunc_end21-rt_rbb_blk_queue_free
	.cfi_endproc
	.cantunwind
	.fnend
                                        @ -- End function
	.section	.text.rt_rbb_next_blk_queue_len,"ax",%progbits
	.hidden	rt_rbb_next_blk_queue_len       @ -- Begin function rt_rbb_next_blk_queue_len
	.globl	rt_rbb_next_blk_queue_len
	.p2align	3
	.type	rt_rbb_next_blk_queue_len,%function
	.code	16                              @ @rt_rbb_next_blk_queue_len
	.thumb_func
rt_rbb_next_blk_queue_len:
.Lfunc_begin22:
	.loc	3 492 0 is_stmt 1               @ rt-thread/components/drivers/src/ringblk_buf.c:492:0
	.fnstart
	.cfi_startproc
@ %bb.0:
	@DEBUG_VALUE: rt_rbb_next_blk_queue_len:rbb <- $r0
	.save	{r4, r5, r6, lr}
	push	{r4, r5, r6, lr}
	.cfi_def_cfa_offset 16
	.cfi_offset lr, -4
	.cfi_offset r6, -8
	.cfi_offset r5, -12
	.cfi_offset r4, -16
	mov	r4, r0
.Ltmp246:
	@DEBUG_VALUE: rt_rbb_next_blk_queue_len:last_block <- 0
	@DEBUG_VALUE: rt_rbb_next_blk_queue_len:data_len <- 0
	@DEBUG_VALUE: rt_rbb_next_blk_queue_len:rbb <- $r4
	.loc	3 498 5 prologue_end            @ rt-thread/components/drivers/src/ringblk_buf.c:498:5
	cbnz	r0, .LBB22_2
.Ltmp247:
@ %bb.1:
	@DEBUG_VALUE: rt_rbb_next_blk_queue_len:rbb <- $r4
	@DEBUG_VALUE: rt_rbb_next_blk_queue_len:data_len <- 0
	@DEBUG_VALUE: rt_rbb_next_blk_queue_len:last_block <- 0
	.loc	3 498 5 is_stmt 0               @ rt-thread/components/drivers/src/ringblk_buf.c:498:5
	movw	r0, :lower16:.L.str
	adr	r1, .LCPI22_0
	movt	r0, :upper16:.L.str
	mov.w	r2, #498
	bl	rt_assert_handler
.Ltmp248:
.LBB22_2:
	@DEBUG_VALUE: rt_rbb_next_blk_queue_len:rbb <- $r4
	@DEBUG_VALUE: rt_rbb_next_blk_queue_len:data_len <- 0
	@DEBUG_VALUE: rt_rbb_next_blk_queue_len:last_block <- 0
	.loc	3 500 32 is_stmt 1              @ rt-thread/components/drivers/src/ringblk_buf.c:500:32
	add.w	r5, r4, #16
	.loc	3 500 9 is_stmt 0               @ rt-thread/components/drivers/src/ringblk_buf.c:500:9
	mov	r0, r5
	bl	rt_slist_isempty
.Ltmp249:
	.loc	3 500 9                         @ rt-thread/components/drivers/src/ringblk_buf.c:500:9
	cmp	r0, #0
	itt	ne
	movne	r0, #0
	.loc	3 538 1 is_stmt 1               @ rt-thread/components/drivers/src/ringblk_buf.c:538:1
	popne	{r4, r5, r6, pc}
.Ltmp250:
.LBB22_3:
	@DEBUG_VALUE: rt_rbb_next_blk_queue_len:data_len <- 0
	@DEBUG_VALUE: rt_rbb_next_blk_queue_len:last_block <- 0
	.loc	3 503 13                        @ rt-thread/components/drivers/src/ringblk_buf.c:503:13
	bl	rt_hw_interrupt_disable
	mov	r4, r0
.Ltmp251:
	@DEBUG_VALUE: rt_rbb_next_blk_queue_len:level <- $r4
	.loc	3 505 17                        @ rt-thread/components/drivers/src/ringblk_buf.c:505:17
	mov	r0, r5
	bl	rt_slist_first
.Ltmp252:
	@DEBUG_VALUE: rt_rbb_next_blk_queue_len:node <- $r0
	@DEBUG_VALUE: rt_rbb_next_blk_queue_len:last_block <- 0
	@DEBUG_VALUE: rt_rbb_next_blk_queue_len:data_len <- 0
	.loc	3 505 5 is_stmt 0               @ rt-thread/components/drivers/src/ringblk_buf.c:505:5
	cbz	r0, .LBB22_12
.Ltmp253:
@ %bb.4:
	@DEBUG_VALUE: rt_rbb_next_blk_queue_len:level <- $r4
	@DEBUG_VALUE: rt_rbb_next_blk_queue_len:node <- $r0
	@DEBUG_VALUE: rt_rbb_next_blk_queue_len:data_len <- 0
	@DEBUG_VALUE: rt_rbb_next_blk_queue_len:last_block <- 0
	.loc	3 0 5                           @ rt-thread/components/drivers/src/ringblk_buf.c:0:5
	movs	r6, #0
	movs	r5, #0
	b	.LBB22_7
.Ltmp254:
	.p2align	2
.LBB22_5:                               @   in Loop: Header=BB22_7 Depth=1
	@DEBUG_VALUE: rt_rbb_next_blk_queue_len:data_len <- $r5
	@DEBUG_VALUE: rt_rbb_next_blk_queue_len:level <- $r4
	@DEBUG_VALUE: rt_rbb_next_blk_queue_len:node <- $r0
	@DEBUG_VALUE: rt_rbb_next_blk_queue_len:last_block <- $r1
	.loc	3 532 33 is_stmt 1              @ rt-thread/components/drivers/src/ringblk_buf.c:532:33
	ldrb	r2, [r1, #3]
.Ltmp255:
	.loc	3 0 0 is_stmt 0                 @ rt-thread/components/drivers/src/ringblk_buf.c:0:0
	mov	r6, r1
.Ltmp256:
	@DEBUG_VALUE: rt_rbb_next_blk_queue_len:last_block <- $r6
	.loc	3 532 33                        @ rt-thread/components/drivers/src/ringblk_buf.c:532:33
	ldrh.w	r3, [r1, #1]
	orr.w	r2, r3, r2, lsl #16
	.loc	3 532 18                        @ rt-thread/components/drivers/src/ringblk_buf.c:532:18
	add	r5, r2
.Ltmp257:
	@DEBUG_VALUE: rt_rbb_next_blk_queue_len:data_len <- $r5
.LBB22_6:                               @   in Loop: Header=BB22_7 Depth=1
	@DEBUG_VALUE: rt_rbb_next_blk_queue_len:data_len <- $r5
	@DEBUG_VALUE: rt_rbb_next_blk_queue_len:level <- $r4
	@DEBUG_VALUE: rt_rbb_next_blk_queue_len:node <- $r0
	@DEBUG_VALUE: rt_rbb_next_blk_queue_len:data_len <- $r5
	@DEBUG_VALUE: rt_rbb_next_blk_queue_len:last_block <- $r6
	.loc	3 505 62 is_stmt 1              @ rt-thread/components/drivers/src/ringblk_buf.c:505:62
	bl	rt_slist_next
.Ltmp258:
	@DEBUG_VALUE: rt_rbb_next_blk_queue_len:node <- $r0
	.loc	3 505 5 is_stmt 0               @ rt-thread/components/drivers/src/ringblk_buf.c:505:5
	cbz	r0, .LBB22_13
.Ltmp259:
.LBB22_7:                               @ =>This Inner Loop Header: Depth=1
	@DEBUG_VALUE: rt_rbb_next_blk_queue_len:level <- $r4
	@DEBUG_VALUE: rt_rbb_next_blk_queue_len:node <- $r0
	@DEBUG_VALUE: rt_rbb_next_blk_queue_len:data_len <- $r5
	@DEBUG_VALUE: rt_rbb_next_blk_queue_len:last_block <- $r6
	@DEBUG_VALUE: rt_rbb_next_blk_queue_len:node <- $r0
	.loc	3 0 0                           @ rt-thread/components/drivers/src/ringblk_buf.c:0:0
	mov	r1, r0
	ldrb	r2, [r1, #-8]!
.Ltmp260:
	.loc	3 507 13 is_stmt 1              @ rt-thread/components/drivers/src/ringblk_buf.c:507:13
	cbz	r6, .LBB22_10
.Ltmp261:
@ %bb.8:                                @   in Loop: Header=BB22_7 Depth=1
	@DEBUG_VALUE: rt_rbb_next_blk_queue_len:last_block <- $r6
	@DEBUG_VALUE: rt_rbb_next_blk_queue_len:data_len <- $r5
	@DEBUG_VALUE: rt_rbb_next_blk_queue_len:level <- $r4
	@DEBUG_VALUE: rt_rbb_next_blk_queue_len:node <- $r0
	@DEBUG_VALUE: rt_rbb_next_blk_queue_len:block <- $r1
	.loc	3 525 49                        @ rt-thread/components/drivers/src/ringblk_buf.c:525:49
	cmp	r2, #2
	bne	.LBB22_13
.Ltmp262:
@ %bb.9:                                @   in Loop: Header=BB22_7 Depth=1
	@DEBUG_VALUE: rt_rbb_next_blk_queue_len:last_block <- $r6
	@DEBUG_VALUE: rt_rbb_next_blk_queue_len:data_len <- $r5
	@DEBUG_VALUE: rt_rbb_next_blk_queue_len:level <- $r4
	@DEBUG_VALUE: rt_rbb_next_blk_queue_len:block <- $r1
	@DEBUG_VALUE: rt_rbb_next_blk_queue_len:node <- $r0
	.loc	3 525 64 is_stmt 0              @ rt-thread/components/drivers/src/ringblk_buf.c:525:64
	ldr	r2, [r6, #4]
	.loc	3 525 77                        @ rt-thread/components/drivers/src/ringblk_buf.c:525:77
	ldr	r3, [r0, #-4]
.Ltmp263:
	.loc	3 525 17                        @ rt-thread/components/drivers/src/ringblk_buf.c:525:17
	cmp	r2, r3
	bls	.LBB22_5
	b	.LBB22_13
.Ltmp264:
	.p2align	2
.LBB22_10:                              @   in Loop: Header=BB22_7 Depth=1
	@DEBUG_VALUE: rt_rbb_next_blk_queue_len:last_block <- $r6
	@DEBUG_VALUE: rt_rbb_next_blk_queue_len:data_len <- $r5
	@DEBUG_VALUE: rt_rbb_next_blk_queue_len:level <- $r4
	@DEBUG_VALUE: rt_rbb_next_blk_queue_len:node <- $r0
	@DEBUG_VALUE: rt_rbb_next_blk_queue_len:last_block <- $r1
	.loc	3 510 17 is_stmt 1              @ rt-thread/components/drivers/src/ringblk_buf.c:510:17
	cmp	r2, #2
	beq	.LBB22_5
.Ltmp265:
@ %bb.11:                               @   in Loop: Header=BB22_7 Depth=1
	@DEBUG_VALUE: rt_rbb_next_blk_queue_len:data_len <- $r5
	@DEBUG_VALUE: rt_rbb_next_blk_queue_len:level <- $r4
	@DEBUG_VALUE: rt_rbb_next_blk_queue_len:last_block <- $r1
	@DEBUG_VALUE: rt_rbb_next_blk_queue_len:node <- $r0
	.loc	3 0 17 is_stmt 0                @ rt-thread/components/drivers/src/ringblk_buf.c:0:17
	movs	r6, #0
	b	.LBB22_6
.Ltmp266:
.LBB22_12:
	@DEBUG_VALUE: rt_rbb_next_blk_queue_len:level <- $r4
	@DEBUG_VALUE: rt_rbb_next_blk_queue_len:node <- $r0
	@DEBUG_VALUE: rt_rbb_next_blk_queue_len:data_len <- 0
	@DEBUG_VALUE: rt_rbb_next_blk_queue_len:last_block <- 0
	movs	r5, #0
.Ltmp267:
.LBB22_13:
	@DEBUG_VALUE: rt_rbb_next_blk_queue_len:level <- $r4
	@DEBUG_VALUE: rt_rbb_next_blk_queue_len:node <- $r0
	.loc	3 535 5 is_stmt 1               @ rt-thread/components/drivers/src/ringblk_buf.c:535:5
	mov	r0, r4
.Ltmp268:
	bl	rt_hw_interrupt_enable
	.loc	3 538 1                         @ rt-thread/components/drivers/src/ringblk_buf.c:538:1
	mov	r0, r5
	pop	{r4, r5, r6, pc}
.Ltmp269:
	.p2align	2
@ %bb.14:
	.loc	3 0 1 is_stmt 0                 @ rt-thread/components/drivers/src/ringblk_buf.c:0:1
.LCPI22_0:
.L__FUNCTION__.rt_rbb_next_blk_queue_len:
	.asciz	"rt_rbb_next_blk_queue_len\000\000"
.Lfunc_end22:
	.size	rt_rbb_next_blk_queue_len, .Lfunc_end22-rt_rbb_next_blk_queue_len
	.cfi_endproc
	.cantunwind
	.fnend
                                        @ -- End function
	.section	.text.rt_rbb_get_buf_size,"ax",%progbits
	.hidden	rt_rbb_get_buf_size             @ -- Begin function rt_rbb_get_buf_size
	.globl	rt_rbb_get_buf_size
	.p2align	3
	.type	rt_rbb_get_buf_size,%function
	.code	16                              @ @rt_rbb_get_buf_size
	.thumb_func
rt_rbb_get_buf_size:
.Lfunc_begin23:
	.loc	3 549 0 is_stmt 1               @ rt-thread/components/drivers/src/ringblk_buf.c:549:0
	.fnstart
	.cfi_startproc
@ %bb.0:
	@DEBUG_VALUE: rt_rbb_get_buf_size:rbb <- $r0
	.save	{r4, lr}
	push	{r4, lr}
	.cfi_def_cfa_offset 8
	.cfi_offset lr, -4
	.cfi_offset r4, -8
	mov	r4, r0
.Ltmp270:
	@DEBUG_VALUE: rt_rbb_get_buf_size:rbb <- $r4
	.loc	3 550 5 prologue_end            @ rt-thread/components/drivers/src/ringblk_buf.c:550:5
	cbz	r0, .LBB23_2
.Ltmp271:
@ %bb.1:
	@DEBUG_VALUE: rt_rbb_get_buf_size:rbb <- $r4
	.loc	3 552 17                        @ rt-thread/components/drivers/src/ringblk_buf.c:552:17
	ldr	r0, [r4, #4]
	.loc	3 552 5 is_stmt 0               @ rt-thread/components/drivers/src/ringblk_buf.c:552:5
	pop	{r4, pc}
.Ltmp272:
.LBB23_2:
	@DEBUG_VALUE: rt_rbb_get_buf_size:rbb <- $r4
	.loc	3 550 5 is_stmt 1               @ rt-thread/components/drivers/src/ringblk_buf.c:550:5
	movw	r0, :lower16:.L.str
	adr	r1, .LCPI23_0
	movt	r0, :upper16:.L.str
	movw	r2, #550
	bl	rt_assert_handler
.Ltmp273:
	.loc	3 552 17                        @ rt-thread/components/drivers/src/ringblk_buf.c:552:17
	ldr	r0, [r4, #4]
	.loc	3 552 5 is_stmt 0               @ rt-thread/components/drivers/src/ringblk_buf.c:552:5
	pop	{r4, pc}
.Ltmp274:
	.p2align	2
@ %bb.3:
	.loc	3 0 5                           @ rt-thread/components/drivers/src/ringblk_buf.c:0:5
.LCPI23_0:
.L__FUNCTION__.rt_rbb_get_buf_size:
	.asciz	"rt_rbb_get_buf_size"
.Lfunc_end23:
	.size	rt_rbb_get_buf_size, .Lfunc_end23-rt_rbb_get_buf_size
	.cfi_endproc
	.cantunwind
	.fnend
                                        @ -- End function
	.type	.L.str,%object                  @ @.str
	.section	.rodata.str1.1,"aMS",%progbits,1
.L.str:
	.asciz	"rbb"
	.size	.L.str, 4

	.type	.L__FUNCTION__.rt_rbb_init,%object @ @__FUNCTION__.rt_rbb_init
.L__FUNCTION__.rt_rbb_init:
	.asciz	"rt_rbb_init"
	.size	.L__FUNCTION__.rt_rbb_init, 12

	.type	.L__FUNCTION__.rt_rbb_blk_alloc,%object @ @__FUNCTION__.rt_rbb_blk_alloc
.L__FUNCTION__.rt_rbb_blk_alloc:
	.asciz	"rt_rbb_blk_alloc"
	.size	.L__FUNCTION__.rt_rbb_blk_alloc, 17

	.type	.L.str.4,%object                @ @.str.4
.L.str.4:
	.asciz	"block"
	.size	.L.str.4, 6

	.type	.L__FUNCTION__.rt_rbb_blk_put,%object @ @__FUNCTION__.rt_rbb_blk_put
.L__FUNCTION__.rt_rbb_blk_put:
	.asciz	"rt_rbb_blk_put"
	.size	.L__FUNCTION__.rt_rbb_blk_put, 15

	.type	.L__FUNCTION__.rt_rbb_blk_free,%object @ @__FUNCTION__.rt_rbb_blk_free
.L__FUNCTION__.rt_rbb_blk_free:
	.asciz	"rt_rbb_blk_free"
	.size	.L__FUNCTION__.rt_rbb_blk_free, 16

	.type	.L__FUNCTION__.rt_rbb_blk_queue_get,%object @ @__FUNCTION__.rt_rbb_blk_queue_get
.L__FUNCTION__.rt_rbb_blk_queue_get:
	.asciz	"rt_rbb_blk_queue_get"
	.size	.L__FUNCTION__.rt_rbb_blk_queue_get, 21

	.type	.L.str.7,%object                @ @.str.7
.L.str.7:
	.asciz	"blk_queue"
	.size	.L.str.7, 10

	.type	.L__FUNCTION__.rt_rbb_blk_queue_free,%object @ @__FUNCTION__.rt_rbb_blk_queue_free
.L__FUNCTION__.rt_rbb_blk_queue_free:
	.asciz	"rt_rbb_blk_queue_free"
	.size	.L__FUNCTION__.rt_rbb_blk_queue_free, 22

	.section	".note.GNU-stack","",%progbits
	.eabi_attribute	30, 1	@ Tag_ABI_optimization_goals
	.ARM_attribute	16, 1	@ Tag_AV_eba