	.text
	.syntax unified
	.eabi_attribute	67, "2.09"	@ Tag_conformance
	.cpu	cortex-m7
	.eabi_attribute	6, 13	@ Tag_CPU_arch
	.eabi_attribute	7, 77	@ Tag_CPU_arch_profile
	.eabi_attribute	8, 0	@ Tag_ARM_ISA_use
	.eabi_attribute	9, 2	@ Tag_THUMB_ISA_use
	.fpu	fpv5-d16
	.eabi_attribute	36, 1	@ Tag_FP_HP_extension
	.eabi_attribute	34, 1	@ Tag_CPU_unaligned_access
	.eabi_attribute	17, 1	@ Tag_ABI_PCS_GOT_use
	.eabi_attribute	20, 2	@ Tag_ABI_FP_denormal
	.eabi_attribute	21, 0	@ Tag_ABI_FP_exceptions
	.eabi_attribute	23, 1	@ Tag_ABI_FP_number_model
	.eabi_attribute	24, 1	@ Tag_ABI_align_needed
	.eabi_attribute	25, 1	@ Tag_ABI_align_preserved
	.eabi_attribute	28, 1	@ Tag_ABI_VFP_args
	.eabi_attribute	38, 1	@ Tag_ABI_FP_16bit_format
	.eabi_attribute	18, 2	@ Tag_ABI_PCS_wchar_t
	.eabi_attribute	26, 1	@ Tag_ABI_enum_size
	.eabi_attribute	14, 0	@ Tag_ABI_PCS_R9_use
	.file	"rtc.c"
	.file	1 "E:\\STM32\\Learning\\STM32H750_ART_PI_RGBLCD" "rt-thread/components/drivers/rtc/rtc.c"
	.file	2 "E:\\STM32\\Learning\\STM32H750_ART_PI_RGBLCD" "rt-thread/components/finsh/finsh_api.h"
	.file	3 "E:\\STM32\\Learning\\STM32H750_ART_PI_RGBLCD" "rt-thread/include\\rtdef.h"
	.section	.text.set_date,"ax",%progbits
	.hidden	set_date                        @ -- Begin function set_date
	.globl	set_date
	.p2align	3
	.type	set_date,%function
	.code	16                              @ @set_date
	.thumb_func
set_date:
.Lfunc_begin0:
	.loc	1 43 0                          @ rt-thread/components/drivers/rtc/rtc.c:43:0
	.fnstart
	.cfi_sections .debug_frame
	.cfi_startproc
@ %bb.0:
	.save	{r4, lr}
	push	{r4, lr}
	.cfi_def_cfa_offset 8
	.cfi_offset lr, -4
	.cfi_offset r4, -8
	.pad	#80
	sub	sp, #80
	.cfi_def_cfa_offset 88
	str	r0, [sp, #72]
	str	r1, [sp, #68]
	str	r2, [sp, #64]
	mov.w	r0, #-1
.Ltmp0:
	.loc	1 48 14 prologue_end            @ rt-thread/components/drivers/rtc/rtc.c:48:14
	str	r0, [sp, #4]
	movs	r0, #0
	.loc	1 51 11                         @ rt-thread/components/drivers/rtc/rtc.c:51:11
	bl	time
	.loc	1 51 9 is_stmt 0                @ rt-thread/components/drivers/rtc/rtc.c:51:9
	str	r0, [sp, #60]
	.loc	1 54 5 is_stmt 1                @ rt-thread/components/drivers/rtc/rtc.c:54:5
	bl	rt_enter_critical
	add	r0, sp, #60
	.loc	1 56 12                         @ rt-thread/components/drivers/rtc/rtc.c:56:12
	bl	localtime
	.loc	1 56 10 is_stmt 0               @ rt-thread/components/drivers/rtc/rtc.c:56:10
	str	r0, [sp, #56]
	.loc	1 58 21 is_stmt 1               @ rt-thread/components/drivers/rtc/rtc.c:58:21
	ldr.w	r12, [sp, #56]
	.loc	1 58 5 is_stmt 0                @ rt-thread/components/drivers/rtc/rtc.c:58:5
	str.w	r12, [sp]                       @ 4-byte Spill
	ldr.w	r0, [r12]
	ldr.w	r1, [r12, #4]
	ldr.w	r2, [r12, #8]
	ldr.w	r3, [r12, #12]
	ldr.w	lr, [r12, #16]
	ldr.w	r4, [r12, #20]
	str	r4, [sp, #32]
	str.w	lr, [sp, #28]
	str	r3, [sp, #24]
	str	r2, [sp, #20]
	str	r1, [sp, #16]
	str	r0, [sp, #12]
	ldr.w	r0, [r12, #24]
	ldr.w	r1, [r12, #28]
	ldr.w	r2, [r12, #32]
	ldr.w	r3, [r12, #36]
	ldr.w	r12, [r12, #40]
	str.w	r12, [sp, #52]
	str	r3, [sp, #48]
	str	r2, [sp, #44]
	str	r1, [sp, #40]
	str	r0, [sp, #36]
	.loc	1 60 5 is_stmt 1                @ rt-thread/components/drivers/rtc/rtc.c:60:5
	bl	rt_exit_critical
	.loc	1 63 22                         @ rt-thread/components/drivers/rtc/rtc.c:63:22
	ldr	r0, [sp, #72]
	.loc	1 63 27 is_stmt 0               @ rt-thread/components/drivers/rtc/rtc.c:63:27
	subw	r0, r0, #1900
	.loc	1 63 20                         @ rt-thread/components/drivers/rtc/rtc.c:63:20
	str	r0, [sp, #32]
	.loc	1 64 22 is_stmt 1               @ rt-thread/components/drivers/rtc/rtc.c:64:22
	ldr	r0, [sp, #68]
	.loc	1 64 28 is_stmt 0               @ rt-thread/components/drivers/rtc/rtc.c:64:28
	subs	r0, #1
	.loc	1 64 20                         @ rt-thread/components/drivers/rtc/rtc.c:64:20
	str	r0, [sp, #28]
	.loc	1 65 22 is_stmt 1               @ rt-thread/components/drivers/rtc/rtc.c:65:22
	ldr	r0, [sp, #64]
	.loc	1 65 20 is_stmt 0               @ rt-thread/components/drivers/rtc/rtc.c:65:20
	str	r0, [sp, #24]
	add	r0, sp, #12
	.loc	1 68 11 is_stmt 1               @ rt-thread/components/drivers/rtc/rtc.c:68:11
	bl	mktime
	.loc	1 68 9 is_stmt 0                @ rt-thread/components/drivers/rtc/rtc.c:68:9
	str	r0, [sp, #60]
	.loc	1 70 14 is_stmt 1               @ rt-thread/components/drivers/rtc/rtc.c:70:14
	movw	r0, :lower16:.L.str
	movt	r0, :upper16:.L.str
	bl	rt_device_find
	.loc	1 70 12 is_stmt 0               @ rt-thread/components/drivers/rtc/rtc.c:70:12
	str	r0, [sp, #8]
.Ltmp1:
	.loc	1 71 9 is_stmt 1                @ rt-thread/components/drivers/rtc/rtc.c:71:9
	ldr	r0, [sp, #8]
.Ltmp2:
	.loc	1 71 9 is_stmt 0                @ rt-thread/components/drivers/rtc/rtc.c:71:9
	cbnz	r0, .LBB0_2
	b	.LBB0_1
.LBB0_1:
	.loc	1 0 9                           @ rt-thread/components/drivers/rtc/rtc.c:0:9
	mov.w	r0, #-1
.Ltmp3:
	.loc	1 73 9 is_stmt 1                @ rt-thread/components/drivers/rtc/rtc.c:73:9
	str	r0, [sp, #76]
	b	.LBB0_3
.Ltmp4:
.LBB0_2:
	.loc	1 77 29                         @ rt-thread/components/drivers/rtc/rtc.c:77:29
	ldr	r0, [sp, #8]
	movs	r1, #17
	add	r2, sp, #60
	.loc	1 77 11 is_stmt 0               @ rt-thread/components/drivers/rtc/rtc.c:77:11
	bl	rt_device_control
	.loc	1 77 9                          @ rt-thread/components/drivers/rtc/rtc.c:77:9
	str	r0, [sp, #4]
	.loc	1 79 12 is_stmt 1               @ rt-thread/components/drivers/rtc/rtc.c:79:12
	ldr	r0, [sp, #4]
	.loc	1 79 5 is_stmt 0                @ rt-thread/components/drivers/rtc/rtc.c:79:5
	str	r0, [sp, #76]
	b	.LBB0_3
.LBB0_3:
	.loc	1 80 1 is_stmt 1                @ rt-thread/components/drivers/rtc/rtc.c:80:1
	ldr	r0, [sp, #76]
	add	sp, #80
	pop	{r4, pc}
.Ltmp5:
.Lfunc_end0:
	.size	set_date, .Lfunc_end0-set_date
	.cfi_endproc
	.cantunwind
	.fnend
                                        @ -- End function
	.section	.text.set_time,"ax",%progbits
	.hidden	set_time                        @ -- Begin function set_time
	.globl	set_time
	.p2align	3
	.type	set_time,%function
	.code	16                              @ @set_time
	.thumb_func
set_time:
.Lfunc_begin1:
	.loc	1 93 0                          @ rt-thread/components/drivers/rtc/rtc.c:93:0
	.fnstart
	.cfi_startproc
@ %bb.0:
	.save	{r4, lr}
	push	{r4, lr}
	.cfi_def_cfa_offset 8
	.cfi_offset lr, -4
	.cfi_offset r4, -8
	.pad	#80
	sub	sp, #80
	.cfi_def_cfa_offset 88
	str	r0, [sp, #72]
	str	r1, [sp, #68]
	str	r2, [sp, #64]
	mov.w	r0, #-1
.Ltmp6:
	.loc	1 98 14 prologue_end            @ rt-thread/components/drivers/rtc/rtc.c:98:14
	str	r0, [sp, #4]
	movs	r0, #0
	.loc	1 101 11                        @ rt-thread/components/drivers/rtc/rtc.c:101:11
	bl	time
	.loc	1 101 9 is_stmt 0               @ rt-thread/components/drivers/rtc/rtc.c:101:9
	str	r0, [sp, #60]
	.loc	1 104 5 is_stmt 1               @ rt-thread/components/drivers/rtc/rtc.c:104:5
	bl	rt_enter_critical
	add	r0, sp, #60
	.loc	1 106 12                        @ rt-thread/components/drivers/rtc/rtc.c:106:12
	bl	localtime
	.loc	1 106 10 is_stmt 0              @ rt-thread/components/drivers/rtc/rtc.c:106:10
	str	r0, [sp, #56]
	.loc	1 108 21 is_stmt 1              @ rt-thread/components/drivers/rtc/rtc.c:108:21
	ldr.w	r12, [sp, #56]
	.loc	1 108 5 is_stmt 0               @ rt-thread/components/drivers/rtc/rtc.c:108:5
	str.w	r12, [sp]                       @ 4-byte Spill
	ldr.w	r0, [r12]
	ldr.w	r1, [r12, #4]
	ldr.w	r2, [r12, #8]
	ldr.w	r3, [r12, #12]
	ldr.w	lr, [r12, #16]
	ldr.w	r4, [r12, #20]
	str	r4, [sp, #32]
	str.w	lr, [sp, #28]
	str	r3, [sp, #24]
	str	r2, [sp, #20]
	str	r1, [sp, #16]
	str	r0, [sp, #12]
	ldr.w	r0, [r12, #24]
	ldr.w	r1, [r12, #28]
	ldr.w	r2, [r12, #32]
	ldr.w	r3, [r12, #36]
	ldr.w	r12, [r12, #40]
	str.w	r12, [sp, #52]
	str	r3, [sp, #48]
	str	r2, [sp, #44]
	str	r1, [sp, #40]
	str	r0, [sp, #36]
	.loc	1 110 5 is_stmt 1               @ rt-thread/components/drivers/rtc/rtc.c:110:5
	bl	rt_exit_critical
	.loc	1 113 22                        @ rt-thread/components/drivers/rtc/rtc.c:113:22
	ldr	r0, [sp, #72]
	.loc	1 113 20 is_stmt 0              @ rt-thread/components/drivers/rtc/rtc.c:113:20
	str	r0, [sp, #20]
	.loc	1 114 22 is_stmt 1              @ rt-thread/components/drivers/rtc/rtc.c:114:22
	ldr	r0, [sp, #68]
	.loc	1 114 20 is_stmt 0              @ rt-thread/components/drivers/rtc/rtc.c:114:20
	str	r0, [sp, #16]
	.loc	1 115 22 is_stmt 1              @ rt-thread/components/drivers/rtc/rtc.c:115:22
	ldr	r0, [sp, #64]
	.loc	1 115 20 is_stmt 0              @ rt-thread/components/drivers/rtc/rtc.c:115:20
	str	r0, [sp, #12]
	add	r0, sp, #12
	.loc	1 118 11 is_stmt 1              @ rt-thread/components/drivers/rtc/rtc.c:118:11
	bl	mktime
	.loc	1 118 9 is_stmt 0               @ rt-thread/components/drivers/rtc/rtc.c:118:9
	str	r0, [sp, #60]
	.loc	1 120 14 is_stmt 1              @ rt-thread/components/drivers/rtc/rtc.c:120:14
	movw	r0, :lower16:.L.str
	movt	r0, :upper16:.L.str
	bl	rt_device_find
	.loc	1 120 12 is_stmt 0              @ rt-thread/components/drivers/rtc/rtc.c:120:12
	str	r0, [sp, #8]
.Ltmp7:
	.loc	1 121 9 is_stmt 1               @ rt-thread/components/drivers/rtc/rtc.c:121:9
	ldr	r0, [sp, #8]
.Ltmp8:
	.loc	1 121 9 is_stmt 0               @ rt-thread/components/drivers/rtc/rtc.c:121:9
	cbnz	r0, .LBB1_2
	b	.LBB1_1
.LBB1_1:
	.loc	1 0 9                           @ rt-thread/components/drivers/rtc/rtc.c:0:9
	mov.w	r0, #-1
.Ltmp9:
	.loc	1 123 9 is_stmt 1               @ rt-thread/components/drivers/rtc/rtc.c:123:9
	str	r0, [sp, #76]
	b	.LBB1_3
.Ltmp10:
.LBB1_2:
	.loc	1 127 29                        @ rt-thread/components/drivers/rtc/rtc.c:127:29
	ldr	r0, [sp, #8]
	movs	r1, #17
	add	r2, sp, #60
	.loc	1 127 11 is_stmt 0              @ rt-thread/components/drivers/rtc/rtc.c:127:11
	bl	rt_device_control
	.loc	1 127 9                         @ rt-thread/components/drivers/rtc/rtc.c:127:9
	str	r0, [sp, #4]
	.loc	1 129 12 is_stmt 1              @ rt-thread/components/drivers/rtc/rtc.c:129:12
	ldr	r0, [sp, #4]
	.loc	1 129 5 is_stmt 0               @ rt-thread/components/drivers/rtc/rtc.c:129:5
	str	r0, [sp, #76]
	b	.LBB1_3
.LBB1_3:
	.loc	1 130 1 is_stmt 1               @ rt-thread/components/drivers/rtc/rtc.c:130:1
	ldr	r0, [sp, #76]
	add	sp, #80
	pop	{r4, pc}
.Ltmp11:
.Lfunc_end1:
	.size	set_time, .Lfunc_end1-set_time
	.cfi_endproc
	.cantunwind
	.fnend
                                        @ -- End function
	.section	.text.sntp_set_rtc_time,"ax",%progbits
	.hidden	sntp_set_rtc_time               @ -- Begin function sntp_set_rtc_time
	.globl	sntp_set_rtc_time
	.p2align	3
	.type	sntp_set_rtc_time,%function
	.code	16                              @ @sntp_set_rtc_time
	.thumb_func
sntp_set_rtc_time:
.Lfunc_begin2:
	.loc	1 132 0                         @ rt-thread/components/drivers/rtc/rtc.c:132:0
	.fnstart
	.cfi_startproc
@ %bb.0:
	.save	{r7, lr}
	push	{r7, lr}
	.cfi_def_cfa_offset 8
	.cfi_offset lr, -4
	.cfi_offset r7, -8
	.pad	#64
	sub	sp, #64
	.cfi_def_cfa_offset 72
	str	r0, [sp, #56]
.Ltmp12:
	.loc	1 133 5 prologue_end            @ rt-thread/components/drivers/rtc/rtc.c:133:5
	ldr	r0, [sp, #56]
.Ltmp13:
	.loc	1 133 5 is_stmt 0               @ rt-thread/components/drivers/rtc/rtc.c:133:5
	cbnz	r0, .LBB2_2
	b	.LBB2_1
.LBB2_1:
	.loc	1 0 5                           @ rt-thread/components/drivers/rtc/rtc.c:0:5
	mov.w	r0, #-1
.Ltmp14:
	.loc	1 135 3 is_stmt 1               @ rt-thread/components/drivers/rtc/rtc.c:135:3
	str	r0, [sp, #60]
	b	.LBB2_3
.Ltmp15:
.LBB2_2:
	.loc	1 140 11                        @ rt-thread/components/drivers/rtc/rtc.c:140:11
	ldr	r0, [sp, #56]
	add.w	r0, r0, #28800
	str	r0, [sp, #56]
	add	r0, sp, #56
	.loc	1 141 9                         @ rt-thread/components/drivers/rtc/rtc.c:141:9
	bl	localtime
	.loc	1 141 8 is_stmt 0               @ rt-thread/components/drivers/rtc/rtc.c:141:8
	str	r0, [sp, #48]
	.loc	1 142 22 is_stmt 1              @ rt-thread/components/drivers/rtc/rtc.c:142:22
	ldr	r1, [sp, #48]
	add	r0, sp, #4
	movs	r2, #44
	.loc	1 142 2 is_stmt 0               @ rt-thread/components/drivers/rtc/rtc.c:142:2
	bl	rt_memcpy
	.loc	1 143 64 is_stmt 1              @ rt-thread/components/drivers/rtc/rtc.c:143:64
	ldr	r2, [sp, #16]
	.loc	1 143 45 is_stmt 0              @ rt-thread/components/drivers/rtc/rtc.c:143:45
	ldr	r1, [sp, #20]
	.loc	1 143 21                        @ rt-thread/components/drivers/rtc/rtc.c:143:21
	ldr	r0, [sp, #24]
	.loc	1 143 28                        @ rt-thread/components/drivers/rtc/rtc.c:143:28
	addw	r0, r0, #1900
	.loc	1 143 51                        @ rt-thread/components/drivers/rtc/rtc.c:143:51
	adds	r1, #1
	.loc	1 143 2                         @ rt-thread/components/drivers/rtc/rtc.c:143:2
	bl	set_date
	.loc	1 144 53 is_stmt 1              @ rt-thread/components/drivers/rtc/rtc.c:144:53
	ldr	r2, [sp, #4]
	.loc	1 144 37 is_stmt 0              @ rt-thread/components/drivers/rtc/rtc.c:144:37
	ldr	r1, [sp, #8]
	.loc	1 144 20                        @ rt-thread/components/drivers/rtc/rtc.c:144:20
	ldr	r0, [sp, #12]
	.loc	1 144 2                         @ rt-thread/components/drivers/rtc/rtc.c:144:2
	bl	set_time
	movs	r0, #0
	.loc	1 145 2 is_stmt 1               @ rt-thread/components/drivers/rtc/rtc.c:145:2
	str	r0, [sp, #60]
	b	.LBB2_3
.LBB2_3:
	.loc	1 146 1                         @ rt-thread/components/drivers/rtc/rtc.c:146:1
	ldr	r0, [sp, #60]
	add	sp, #64
	pop	{r7, pc}
.Ltmp16:
.Lfunc_end2:
	.size	sntp_set_rtc_time, .Lfunc_end2-sntp_set_rtc_time
	.cfi_endproc
	.cantunwind
	.fnend
                                        @ -- End function
	.section	.text.list_date,"ax",%progbits
	.hidden	list_date                       @ -- Begin function list_date
	.globl	list_date
	.p2align	3
	.type	list_date,%function
	.code	16                              @ @list_date
	.thumb_func
list_date:
.Lfunc_begin3:
	.loc	1 195 0                         @ rt-thread/components/drivers/rtc/rtc.c:195:0
	.fnstart
	.cfi_startproc
@ %bb.0:
	.save	{r7, lr}
	push	{r7, lr}
	.cfi_def_cfa_offset 8
	.cfi_offset lr, -4
	.cfi_offset r7, -8
	.pad	#8
	sub	sp, #8
	.cfi_def_cfa_offset 16
	movs	r0, #0
.Ltmp17:
	.loc	1 198 11 prologue_end           @ rt-thread/components/drivers/rtc/rtc.c:198:11
	bl	time
	.loc	1 198 9 is_stmt 0               @ rt-thread/components/drivers/rtc/rtc.c:198:9
	str	r0, [sp, #4]
	add	r0, sp, #4
	.loc	1 199 24 is_stmt 1              @ rt-thread/components/drivers/rtc/rtc.c:199:24
	bl	ctime
	mov	r1, r0
	.loc	1 199 5 is_stmt 0               @ rt-thread/components/drivers/rtc/rtc.c:199:5
	movw	r0, :lower16:.L.str.1
	movt	r0, :upper16:.L.str.1
	bl	rt_kprintf
	.loc	1 200 1 is_stmt 1               @ rt-thread/components/drivers/rtc/rtc.c:200:1
	add	sp, #8
	pop	{r7, pc}
.Ltmp18:
.Lfunc_end3:
	.size	list_date, .Lfunc_end3-list_date
	.cfi_endproc
	.cantunwind
	.fnend
                                        @ -- End function
	.section	.text.date,"ax",%progbits
	.p2align	3                               @ -- Begin function date
	.type	date,%function
	.code	16                              @ @date
	.thumb_func
date:
.Lfunc_begin4:
	.loc	1 208 0                         @ rt-thread/components/drivers/rtc/rtc.c:208:0
	.fnstart
	.cfi_startproc
@ %bb.0:
	.save	{r7, lr}
	push	{r7, lr}
	.cfi_def_cfa_offset 8
	.cfi_offset lr, -4
	.cfi_offset r7, -8
	.pad	#24
	sub	sp, #24
	.cfi_def_cfa_offset 32
                                        @ kill: def $r2 killed $r0
	strb.w	r0, [sp, #23]
	str	r1, [sp, #16]
.Ltmp19:
	.loc	1 209 9 prologue_end            @ rt-thread/components/drivers/rtc/rtc.c:209:9
	ldrb.w	r0, [sp, #23]
.Ltmp20:
	.loc	1 209 9 is_stmt 0               @ rt-thread/components/drivers/rtc/rtc.c:209:9
	cmp	r0, #1
	bne	.LBB4_2
	b	.LBB4_1
.LBB4_1:
	.loc	1 0 9                           @ rt-thread/components/drivers/rtc/rtc.c:0:9
	movs	r0, #0
.Ltmp21:
	.loc	1 213 15 is_stmt 1              @ rt-thread/components/drivers/rtc/rtc.c:213:15
	bl	time
	.loc	1 213 13 is_stmt 0              @ rt-thread/components/drivers/rtc/rtc.c:213:13
	str	r0, [sp, #12]
	add	r0, sp, #12
	.loc	1 214 26 is_stmt 1              @ rt-thread/components/drivers/rtc/rtc.c:214:26
	bl	ctime
	mov	r1, r0
	.loc	1 214 9 is_stmt 0               @ rt-thread/components/drivers/rtc/rtc.c:214:9
	movw	r0, :lower16:.L.str.2
	movt	r0, :upper16:.L.str.2
	bl	rt_kprintf
	.loc	1 215 5 is_stmt 1               @ rt-thread/components/drivers/rtc/rtc.c:215:5
	b	.LBB4_21
.Ltmp22:
.LBB4_2:
	.loc	1 216 14                        @ rt-thread/components/drivers/rtc/rtc.c:216:14
	ldrb.w	r0, [sp, #23]
.Ltmp23:
	.loc	1 216 14 is_stmt 0              @ rt-thread/components/drivers/rtc/rtc.c:216:14
	cmp	r0, #7
	blt.w	.LBB4_19
	b	.LBB4_3
.LBB4_3:
.Ltmp24:
	.loc	1 221 21 is_stmt 1              @ rt-thread/components/drivers/rtc/rtc.c:221:21
	ldr	r0, [sp, #16]
	ldr	r0, [r0, #4]
	.loc	1 221 16 is_stmt 0              @ rt-thread/components/drivers/rtc/rtc.c:221:16
	bl	atoi
	.loc	1 221 14                        @ rt-thread/components/drivers/rtc/rtc.c:221:14
	strh.w	r0, [sp, #10]
	.loc	1 222 22 is_stmt 1              @ rt-thread/components/drivers/rtc/rtc.c:222:22
	ldr	r0, [sp, #16]
	ldr	r0, [r0, #8]
	.loc	1 222 17 is_stmt 0              @ rt-thread/components/drivers/rtc/rtc.c:222:17
	bl	atoi
	.loc	1 222 15                        @ rt-thread/components/drivers/rtc/rtc.c:222:15
	strb.w	r0, [sp, #9]
	.loc	1 223 20 is_stmt 1              @ rt-thread/components/drivers/rtc/rtc.c:223:20
	ldr	r0, [sp, #16]
	ldr	r0, [r0, #12]
	.loc	1 223 15 is_stmt 0              @ rt-thread/components/drivers/rtc/rtc.c:223:15
	bl	atoi
	.loc	1 223 13                        @ rt-thread/components/drivers/rtc/rtc.c:223:13
	strb.w	r0, [sp, #8]
	.loc	1 224 21 is_stmt 1              @ rt-thread/components/drivers/rtc/rtc.c:224:21
	ldr	r0, [sp, #16]
	ldr	r0, [r0, #16]
	.loc	1 224 16 is_stmt 0              @ rt-thread/components/drivers/rtc/rtc.c:224:16
	bl	atoi
	.loc	1 224 14                        @ rt-thread/components/drivers/rtc/rtc.c:224:14
	strb.w	r0, [sp, #7]
	.loc	1 225 20 is_stmt 1              @ rt-thread/components/drivers/rtc/rtc.c:225:20
	ldr	r0, [sp, #16]
	ldr	r0, [r0, #20]
	.loc	1 225 15 is_stmt 0              @ rt-thread/components/drivers/rtc/rtc.c:225:15
	bl	atoi
	.loc	1 225 13                        @ rt-thread/components/drivers/rtc/rtc.c:225:13
	strb.w	r0, [sp, #6]
	.loc	1 226 20 is_stmt 1              @ rt-thread/components/drivers/rtc/rtc.c:226:20
	ldr	r0, [sp, #16]
	ldr	r0, [r0, #24]
	.loc	1 226 15 is_stmt 0              @ rt-thread/components/drivers/rtc/rtc.c:226:15
	bl	atoi
	.loc	1 226 13                        @ rt-thread/components/drivers/rtc/rtc.c:226:13
	strb.w	r0, [sp, #5]
.Ltmp25:
	.loc	1 227 13 is_stmt 1              @ rt-thread/components/drivers/rtc/rtc.c:227:13
	ldrh.w	r0, [sp, #10]
	movw	r1, #2099
	.loc	1 227 25 is_stmt 0              @ rt-thread/components/drivers/rtc/rtc.c:227:25
	cmp	r0, r1
	bgt	.LBB4_5
	b	.LBB4_4
.LBB4_4:
	.loc	1 227 28                        @ rt-thread/components/drivers/rtc/rtc.c:227:28
	ldrh.w	r0, [sp, #10]
.Ltmp26:
	.loc	1 227 13                        @ rt-thread/components/drivers/rtc/rtc.c:227:13
	cmp.w	r0, #2000
	bge	.LBB4_6
	b	.LBB4_5
.LBB4_5:
.Ltmp27:
	.loc	1 229 13 is_stmt 1              @ rt-thread/components/drivers/rtc/rtc.c:229:13
	movw	r0, :lower16:.L.str.3
	movt	r0, :upper16:.L.str.3
	bl	rt_kprintf
	.loc	1 230 13                        @ rt-thread/components/drivers/rtc/rtc.c:230:13
	b	.LBB4_21
.Ltmp28:
.LBB4_6:
	.loc	1 232 13                        @ rt-thread/components/drivers/rtc/rtc.c:232:13
	ldrb.w	r0, [sp, #9]
	.loc	1 232 24 is_stmt 0              @ rt-thread/components/drivers/rtc/rtc.c:232:24
	cbz	r0, .LBB4_8
	b	.LBB4_7
.LBB4_7:
	.loc	1 232 27                        @ rt-thread/components/drivers/rtc/rtc.c:232:27
	ldrb.w	r0, [sp, #9]
.Ltmp29:
	.loc	1 232 13                        @ rt-thread/components/drivers/rtc/rtc.c:232:13
	cmp	r0, #13
	blt	.LBB4_9
	b	.LBB4_8
.LBB4_8:
.Ltmp30:
	.loc	1 234 13 is_stmt 1              @ rt-thread/components/drivers/rtc/rtc.c:234:13
	movw	r0, :lower16:.L.str.4
	movt	r0, :upper16:.L.str.4
	bl	rt_kprintf
	.loc	1 235 13                        @ rt-thread/components/drivers/rtc/rtc.c:235:13
	b	.LBB4_21
.Ltmp31:
.LBB4_9:
	.loc	1 237 13                        @ rt-thread/components/drivers/rtc/rtc.c:237:13
	ldrb.w	r0, [sp, #8]
	.loc	1 237 22 is_stmt 0              @ rt-thread/components/drivers/rtc/rtc.c:237:22
	cbz	r0, .LBB4_11
	b	.LBB4_10
.LBB4_10:
	.loc	1 237 25                        @ rt-thread/components/drivers/rtc/rtc.c:237:25
	ldrb.w	r0, [sp, #8]
.Ltmp32:
	.loc	1 237 13                        @ rt-thread/components/drivers/rtc/rtc.c:237:13
	cmp	r0, #32
	blt	.LBB4_12
	b	.LBB4_11
.LBB4_11:
.Ltmp33:
	.loc	1 239 13 is_stmt 1              @ rt-thread/components/drivers/rtc/rtc.c:239:13
	movw	r0, :lower16:.L.str.5
	movt	r0, :upper16:.L.str.5
	bl	rt_kprintf
	.loc	1 240 13                        @ rt-thread/components/drivers/rtc/rtc.c:240:13
	b	.LBB4_21
.Ltmp34:
.LBB4_12:
	.loc	1 242 13                        @ rt-thread/components/drivers/rtc/rtc.c:242:13
	ldrb.w	r0, [sp, #7]
.Ltmp35:
	.loc	1 242 13 is_stmt 0              @ rt-thread/components/drivers/rtc/rtc.c:242:13
	cmp	r0, #24
	blt	.LBB4_14
	b	.LBB4_13
.LBB4_13:
.Ltmp36:
	.loc	1 244 13 is_stmt 1              @ rt-thread/components/drivers/rtc/rtc.c:244:13
	movw	r0, :lower16:.L.str.6
	movt	r0, :upper16:.L.str.6
	bl	rt_kprintf
	.loc	1 245 13                        @ rt-thread/components/drivers/rtc/rtc.c:245:13
	b	.LBB4_21
.Ltmp37:
.LBB4_14:
	.loc	1 247 13                        @ rt-thread/components/drivers/rtc/rtc.c:247:13
	ldrb.w	r0, [sp, #6]
.Ltmp38:
	.loc	1 247 13 is_stmt 0              @ rt-thread/components/drivers/rtc/rtc.c:247:13
	cmp	r0, #60
	blt	.LBB4_16
	b	.LBB4_15
.LBB4_15:
.Ltmp39:
	.loc	1 249 13 is_stmt 1              @ rt-thread/components/drivers/rtc/rtc.c:249:13
	movw	r0, :lower16:.L.str.7
	movt	r0, :upper16:.L.str.7
	bl	rt_kprintf
	.loc	1 250 13                        @ rt-thread/components/drivers/rtc/rtc.c:250:13
	b	.LBB4_21
.Ltmp40:
.LBB4_16:
	.loc	1 252 13                        @ rt-thread/components/drivers/rtc/rtc.c:252:13
	ldrb.w	r0, [sp, #5]
.Ltmp41:
	.loc	1 252 13 is_stmt 0              @ rt-thread/components/drivers/rtc/rtc.c:252:13
	cmp	r0, #60
	blt	.LBB4_18
	b	.LBB4_17
.LBB4_17:
.Ltmp42:
	.loc	1 254 13 is_stmt 1              @ rt-thread/components/drivers/rtc/rtc.c:254:13
	movw	r0, :lower16:.L.str.8
	movt	r0, :upper16:.L.str.8
	bl	rt_kprintf
	.loc	1 255 13                        @ rt-thread/components/drivers/rtc/rtc.c:255:13
	b	.LBB4_21
.Ltmp43:
.LBB4_18:
	.loc	1 257 18                        @ rt-thread/components/drivers/rtc/rtc.c:257:18
	ldrb.w	r0, [sp, #7]
	.loc	1 257 24 is_stmt 0              @ rt-thread/components/drivers/rtc/rtc.c:257:24
	ldrb.w	r1, [sp, #6]
	.loc	1 257 29                        @ rt-thread/components/drivers/rtc/rtc.c:257:29
	ldrb.w	r2, [sp, #5]
	.loc	1 257 9                         @ rt-thread/components/drivers/rtc/rtc.c:257:9
	bl	set_time
	.loc	1 258 18 is_stmt 1              @ rt-thread/components/drivers/rtc/rtc.c:258:18
	ldrh.w	r0, [sp, #10]
	.loc	1 258 24 is_stmt 0              @ rt-thread/components/drivers/rtc/rtc.c:258:24
	ldrb.w	r1, [sp, #9]
	.loc	1 258 31                        @ rt-thread/components/drivers/rtc/rtc.c:258:31
	ldrb.w	r2, [sp, #8]
	.loc	1 258 9                         @ rt-thread/components/drivers/rtc/rtc.c:258:9
	bl	set_date
	.loc	1 259 5 is_stmt 1               @ rt-thread/components/drivers/rtc/rtc.c:259:5
	b	.LBB4_20
.Ltmp44:
.LBB4_19:
	.loc	1 262 9                         @ rt-thread/components/drivers/rtc/rtc.c:262:9
	movw	r0, :lower16:.L.str.9
	movt	r0, :upper16:.L.str.9
	bl	rt_kprintf
	.loc	1 263 9                         @ rt-thread/components/drivers/rtc/rtc.c:263:9
	movw	r0, :lower16:.L.str.10
	movt	r0, :upper16:.L.str.10
	bl	rt_kprintf
	b	.LBB4_20
.Ltmp45:
.LBB4_20:
	.loc	1 0 9 is_stmt 0                 @ rt-thread/components/drivers/rtc/rtc.c:0:9
	b	.LBB4_21
.LBB4_21:
	.loc	1 265 1 is_stmt 1               @ rt-thread/components/drivers/rtc/rtc.c:265:1
	add	sp, #24
	pop	{r7, pc}
.Ltmp46:
.Lfunc_end4:
	.size	date, .Lfunc_end4-date
	.cfi_endproc
	.cantunwind
	.fnend
                                        @ -- End function
	.type	.L.str,%object                  @ @.str
	.section	.rodata.str1.1,"aMS",%progbits,1
.L.str:
	.asciz	"rtc"
	.size	.L.str, 4

	.type	.L.str.1,%object                @ @.str.1
.L.str.1:
	.asciz	"%s\n"
	.size	.L.str.1, 4

	.hidden	__fsym_list_date_name           @ @__fsym_list_date_name
	.type	__fsym_list_date_name,%object
	.section	.rodata.name,"a",%progbits
	.globl	__fsym_list_date_name
__fsym_list_date_name:
	.asciz	"list_date"
	.size	__fsym_list_date_name, 10

	.hidden	__fsym_list_date_desc           @ @__fsym_list_date_desc
	.type	__fsym_list_date_desc,%object
	.globl	__fsym_list_date_desc
__fsym_list_date_desc:
	.asciz	"show date and time."
	.size	__fsym_list_date_desc, 20

	.hidden	__fsym_list_date                @ @__fsym_list_date
	.type	__fsym_list_date,%object
	.section	FSymTab,"a",%progbits
	.globl	__fsym_list_date
	.p2align	2
__fsym_list_date:
__tagsym$$used.0:
	.long	__fsym_list_date_name
	.long	__fsym_list_date_desc
	.long	list_date
	.size	__fsym_list_date, 12

	.hidden	__fsym_set_date_name            @ @__fsym_set_date_name
	.type	__fsym_set_date_name,%object
	.section	.rodata.name,"a",%progbits
	.globl	__fsym_set_date_name
__fsym_set_date_name:
	.asciz	"set_date"
	.size	__fsym_set_date_name, 9

	.hidden	__fsym_set_date_desc            @ @__fsym_set_date_desc
	.type	__fsym_set_date_desc,%object
	.globl	__fsym_set_date_desc
__fsym_set_date_desc:
	.asciz	"set date. e.g: set_date(2010,2,28)"
	.size	__fsym_set_date_desc, 35

	.hidden	__fsym_set_date                 @ @__fsym_set_date
	.type	__fsym_set_date,%object
	.section	FSymTab,"a",%progbits
	.globl	__fsym_set_date
	.p2align	2
__fsym_set_date:
__tagsym$$used.1:
	.long	__fsym_set_date_name
	.long	__fsym_set_date_desc
	.long	set_date
	.size	__fsym_set_date, 12

	.hidden	__fsym_set_time_name            @ @__fsym_set_time_name
	.type	__fsym_set_time_name,%object
	.section	.rodata.name,"a",%progbits
	.globl	__fsym_set_time_name
__fsym_set_time_name:
	.asciz	"set_time"
	.size	__fsym_set_time_name, 9

	.hidden	__fsym_set_time_desc            @ @__fsym_set_time_desc
	.type	__fsym_set_time_desc,%object
	.globl	__fsym_set_time_desc
__fsym_set_time_desc:
	.asciz	"set time. e.g: set_time(23,59,59)"
	.size	__fsym_set_time_desc, 34

	.hidden	__fsym_set_time                 @ @__fsym_set_time
	.type	__fsym_set_time,%object
	.section	FSymTab,"a",%progbits
	.globl	__fsym_set_time
	.p2align	2
__fsym_set_time:
__tagsym$$used.2:
	.long	__fsym_set_time_name
	.long	__fsym_set_time_desc
	.long	set_time
	.size	__fsym_set_time, 12

	.hidden	__fsym___cmd_date_name          @ @__fsym___cmd_date_name
	.type	__fsym___cmd_date_name,%object
	.section	.rodata.name,"a",%progbits
	.globl	__fsym___cmd_date_name
__fsym___cmd_date_name:
	.asciz	"__cmd_date"
	.size	__fsym___cmd_date_name, 11

	.hidden	__fsym___cmd_date_desc          @ @__fsym___cmd_date_desc
	.type	__fsym___cmd_date_desc,%object
	.globl	__fsym___cmd_date_desc
__fsym___cmd_date_desc:
	.asciz	"get date and time or set [year month day hour min sec]"
	.size	__fsym___cmd_date_desc, 55

	.hidden	__fsym___cmd_date               @ @__fsym___cmd_date
	.type	__fsym___cmd_date,%object
	.section	FSymTab,"a",%progbits
	.globl	__fsym___cmd_date
	.p2align	2
__fsym___cmd_date:
__tagsym$$used.3:
	.long	__fsym___cmd_date_name
	.long	__fsym___cmd_date_desc
	.long	date
	.size	__fsym___cmd_date, 12

	.type	.L.str.2,%object                @ @.str.2
	.section	.rodata.str1.1,"aMS",%progbits,1
.L.str.2:
	.asciz	"%s"
	.size	.L.str.2, 3

	.type	.L.str.3,%object                @ @.str.3
.L.str.3:
	.asciz	"year is out of range [2000-2099]\n"
	.size	.L.str.3, 34

	.type	.L.str.4,%object                @ @.str.4
.L.str.4:
	.asciz	"month is out of range [1-12]\n"
	.size	.L.str.4, 30

	.type	.L.str.5,%object                @ @.str.5
.L.str.5:
	.asciz	"day is out of range [1-31]\n"
	.size	.L.str.5, 28

	.type	.L.str.6,%object                @ @.str.6
.L.str.6:
	.asciz	"hour is out of range [0-23]\n"
	.size	.L.str.6, 29

	.type	.L.str.7,%object                @ @.str.7
.L.str.7:
	.asciz	"minute is out of range [0-59]\n"
	.size	.L.str.7, 31

	.type	.L.str.8,%object                @ @.str.8
.L.str.8:
	.asciz	"second is out of range [0-59]\n"
	.size	.L.str.8, 31

	.type	.L.str.9,%object                @ @.str.9
.L.str.9:
	.asciz	"please input: date [year month day hour min sec] or date\n"
	.size	.L.str.9, 58

	.type	.L.str.10,%object               @ @.str.10
.L.str.10:
	.asciz	"e.g: date 2018 01 01 23 59 59 or date\n"
	.size	.L.str.10, 39

	.globl	__fsym_list_date
	.globl	__fsym_set_date
	.globl	__fsym_set_time
	.globl	__fsym___cmd_date
	.file	4 "D:\\Keil_v5\\ARM\\ARMCLANG\\Bin\\..\\include" "time.h"
	.file	5 "D:\\Keil_v5\\ARM\\ARMCLANG\\Bin\\..\\include" "stdint.h"
	.section	".note.GNU-stack","",%progbits
	.eabi_attribute	30, 6	@ Tag_ABI_optimization_goals
	.ARM_attribute	16, 1	@ Tag_AV_eba