	.text
	.syntax unified
	.eabi_attribute	67, "2.09"	@ Tag_conformance
	.cpu	cortex-m7
	.eabi_attribute	6, 13	@ Tag_CPU_arch
	.eabi_attribute	7, 77	@ Tag_CPU_arch_profile
	.eabi_attribute	8, 0	@ Tag_ARM_ISA_use
	.eabi_attribute	9, 2	@ Tag_THUMB_ISA_use
	.fpu	fpv5-d16
	.eabi_attribute	36, 1	@ Tag_FP_HP_extension
	.eabi_attribute	34, 1	@ Tag_CPU_unaligned_access
	.eabi_attribute	17, 1	@ Tag_ABI_PCS_GOT_use
	.eabi_attribute	20, 2	@ Tag_ABI_FP_denormal
	.eabi_attribute	21, 0	@ Tag_ABI_FP_exceptions
	.eabi_attribute	23, 1	@ Tag_ABI_FP_number_model
	.eabi_attribute	24, 1	@ Tag_ABI_align_needed
	.eabi_attribute	25, 1	@ Tag_ABI_align_preserved
	.eabi_attribute	28, 1	@ Tag_ABI_VFP_args
	.eabi_attribute	38, 1	@ Tag_ABI_FP_16bit_format
	.eabi_attribute	18, 2	@ Tag_ABI_PCS_wchar_t
	.eabi_attribute	26, 1	@ Tag_ABI_enum_size
	.eabi_attribute	14, 0	@ Tag_ABI_PCS_R9_use
	.file	"rtota_update.c"
	.file	1 "E:\\Smart-access-control\\Hardware\\CODE" "libraries/rt_ota_lib/src/rtota_update.c"
	.file	2 "E:\\Smart-access-control\\Hardware\\CODE" "rt-thread/components/finsh/finsh_api.h"
	.file	3 "D:\\Keil_v5\\ARM\\ARMCLANG\\Bin\\..\\include" "time.h"
	.file	4 "D:\\Keil_v5\\ARM\\ARMCLANG\\Bin\\..\\include" "stdint.h"
	.file	5 "E:\\Smart-access-control\\Hardware\\CODE" "./packages/fal-v0.5.0/inc/fal_def.h"
	.file	6 "E:\\Smart-access-control\\Hardware\\CODE" "./rt-thread/components/utilities/ymodem\\ymodem.h"
	.file	7 "E:\\Smart-access-control\\Hardware\\CODE" "rt-thread/include\\rtdef.h"
	.section	.text.update,"ax",%progbits
	.p2align	3                               @ -- Begin function update
	.type	update,%function
	.code	16                              @ @update
	.thumb_func
update:
.Lfunc_begin0:
	.loc	1 105 0                         @ libraries/rt_ota_lib/src/rtota_update.c:105:0
	.fnstart
	.cfi_sections .debug_frame
	.cfi_startproc
@ %bb.0:
	.save	{r7, lr}
	push	{r7, lr}
	.cfi_def_cfa_offset 8
	.cfi_offset lr, -4
	.cfi_offset r7, -8
	.pad	#96
	sub	sp, #96
	.cfi_def_cfa_offset 104
                                        @ kill: def $r2 killed $r0
	strb.w	r0, [sp, #95]
	str	r1, [sp, #88]
.Ltmp0:
	.loc	1 108 5 prologue_end            @ libraries/rt_ota_lib/src/rtota_update.c:108:5
	movw	r0, :lower16:.L.str
	movt	r0, :upper16:.L.str
	bl	rt_kprintf
	.loc	1 109 5                         @ libraries/rt_ota_lib/src/rtota_update.c:109:5
	movw	r0, :lower16:.L.str.1
	movt	r0, :upper16:.L.str.1
	bl	rt_kprintf
	.loc	1 111 20                        @ libraries/rt_ota_lib/src/rtota_update.c:111:20
	movw	r1, :lower16:partition_name
	movt	r1, :upper16:partition_name
	movs	r0, #0
	str	r0, [r1]
.Ltmp1:
	.loc	1 112 9                         @ libraries/rt_ota_lib/src/rtota_update.c:112:9
	ldrb.w	r0, [sp, #95]
.Ltmp2:
	.loc	1 112 9 is_stmt 0               @ libraries/rt_ota_lib/src/rtota_update.c:112:9
	cmp	r0, #2
	blt	.LBB0_4
	b	.LBB0_1
.LBB0_1:
.Ltmp3:
	.loc	1 114 46 is_stmt 1              @ libraries/rt_ota_lib/src/rtota_update.c:114:46
	ldr	r0, [sp, #88]
	ldr	r0, [r0, #4]
	.loc	1 114 36 is_stmt 0              @ libraries/rt_ota_lib/src/rtota_update.c:114:36
	bl	rt_strlen
	.loc	1 114 55                        @ libraries/rt_ota_lib/src/rtota_update.c:114:55
	adds	r0, #1
	.loc	1 114 26                        @ libraries/rt_ota_lib/src/rtota_update.c:114:26
	bl	rt_malloc
	mov	r1, r0
	.loc	1 114 24                        @ libraries/rt_ota_lib/src/rtota_update.c:114:24
	movw	r0, :lower16:partition_name
	movt	r0, :upper16:partition_name
	str	r1, [r0]
.Ltmp4:
	.loc	1 115 12 is_stmt 1              @ libraries/rt_ota_lib/src/rtota_update.c:115:12
	ldr	r0, [r0]
.Ltmp5:
	.loc	1 115 12 is_stmt 0              @ libraries/rt_ota_lib/src/rtota_update.c:115:12
	cbz	r0, .LBB0_3
	b	.LBB0_2
.LBB0_2:
.Ltmp6:
	.loc	1 117 23 is_stmt 1              @ libraries/rt_ota_lib/src/rtota_update.c:117:23
	movw	r0, :lower16:partition_name
	movt	r0, :upper16:partition_name
	str	r0, [sp, #20]                   @ 4-byte Spill
	ldr	r0, [r0]
	.loc	1 117 50 is_stmt 0              @ libraries/rt_ota_lib/src/rtota_update.c:117:50
	str	r0, [sp, #16]                   @ 4-byte Spill
	ldr	r0, [sp, #88]
	ldr	r0, [r0, #4]
	.loc	1 117 40                        @ libraries/rt_ota_lib/src/rtota_update.c:117:40
	bl	rt_strlen
	mov	r1, r0
	.loc	1 117 59                        @ libraries/rt_ota_lib/src/rtota_update.c:117:59
	ldr	r0, [sp, #16]                   @ 4-byte Reload
	adds	r2, r1, #1
	movs	r1, #0
	.loc	1 117 13                        @ libraries/rt_ota_lib/src/rtota_update.c:117:13
	bl	rt_memset
                                        @ kill: def $r1 killed $r0
	.loc	1 118 24 is_stmt 1              @ libraries/rt_ota_lib/src/rtota_update.c:118:24
	ldr	r0, [sp, #20]                   @ 4-byte Reload
	ldr	r0, [r0]
	.loc	1 118 40 is_stmt 0              @ libraries/rt_ota_lib/src/rtota_update.c:118:40
	str	r0, [sp, #28]                   @ 4-byte Spill
	ldr	r0, [sp, #88]
	ldr	r0, [r0, #4]
	.loc	1 118 49                        @ libraries/rt_ota_lib/src/rtota_update.c:118:49
	str	r0, [sp, #24]                   @ 4-byte Spill
	bl	rt_strlen
	ldr	r1, [sp, #24]                   @ 4-byte Reload
	mov	r2, r0
	.loc	1 118 13                        @ libraries/rt_ota_lib/src/rtota_update.c:118:13
	ldr	r0, [sp, #28]                   @ 4-byte Reload
	bl	rt_strncpy
	.loc	1 119 9 is_stmt 1               @ libraries/rt_ota_lib/src/rtota_update.c:119:9
	b	.LBB0_3
.Ltmp7:
.LBB0_3:
	.loc	1 120 5                         @ libraries/rt_ota_lib/src/rtota_update.c:120:5
	b	.LBB0_4
.Ltmp8:
.LBB0_4:
	.loc	1 121 36                        @ libraries/rt_ota_lib/src/rtota_update.c:121:36
	bl	rt_console_get_device
	mov	r1, r0
	.loc	1 121 10 is_stmt 0              @ libraries/rt_ota_lib/src/rtota_update.c:121:10
	mov	r2, sp
	mov.w	r0, #1000
	str	r0, [r2, #8]
	movs	r0, #0
	str	r0, [r2, #4]
	movw	r0, :lower16:ymodem_on_data
	movt	r0, :upper16:ymodem_on_data
	str	r0, [r2]
	movw	r3, :lower16:ymodem_on_begin
	movt	r3, :upper16:ymodem_on_begin
	add	r0, sp, #32
	movw	r2, #259
	bl	rym_recv_on_device
.Ltmp9:
	.loc	1 121 9                         @ libraries/rt_ota_lib/src/rtota_update.c:121:9
	cbnz	r0, .LBB0_6
	b	.LBB0_5
.LBB0_5:
.Ltmp10:
	.loc	1 124 9 is_stmt 1               @ libraries/rt_ota_lib/src/rtota_update.c:124:9
	movw	r0, :lower16:.L.str.2
	movt	r0, :upper16:.L.str.2
	bl	rt_kprintf
	.loc	1 125 9                         @ libraries/rt_ota_lib/src/rtota_update.c:125:9
	movw	r0, :lower16:.L.str.3
	movt	r0, :upper16:.L.str.3
	bl	rt_kprintf
	movs	r0, #200
	.loc	1 128 25                        @ libraries/rt_ota_lib/src/rtota_update.c:128:25
	str	r0, [sp, #12]                   @ 4-byte Spill
	bl	rt_tick_from_millisecond
	.loc	1 128 9 is_stmt 0               @ libraries/rt_ota_lib/src/rtota_update.c:128:9
	bl	rt_thread_delay
	.loc	1 132 9 is_stmt 1               @ libraries/rt_ota_lib/src/rtota_update.c:132:9
	bl	rt_hw_cpu_reset
	ldr	r0, [sp, #12]                   @ 4-byte Reload
	.loc	1 134 25                        @ libraries/rt_ota_lib/src/rtota_update.c:134:25
	bl	rt_tick_from_millisecond
	.loc	1 134 9 is_stmt 0               @ libraries/rt_ota_lib/src/rtota_update.c:134:9
	bl	rt_thread_delay
	.loc	1 135 5 is_stmt 1               @ libraries/rt_ota_lib/src/rtota_update.c:135:5
	b	.LBB0_7
.Ltmp11:
.LBB0_6:
	.loc	1 0 5 is_stmt 0                 @ libraries/rt_ota_lib/src/rtota_update.c:0:5
	mov.w	r0, #1000
.Ltmp12:
	.loc	1 139 9 is_stmt 1               @ libraries/rt_ota_lib/src/rtota_update.c:139:9
	bl	rt_thread_delay
	.loc	1 140 9                         @ libraries/rt_ota_lib/src/rtota_update.c:140:9
	movw	r0, :lower16:.L.str.4
	movt	r0, :upper16:.L.str.4
	bl	rt_kprintf
	b	.LBB0_7
.Ltmp13:
.LBB0_7:
	.loc	1 143 5                         @ libraries/rt_ota_lib/src/rtota_update.c:143:5
	add	sp, #96
	pop	{r7, pc}
.Ltmp14:
.Lfunc_end0:
	.size	update, .Lfunc_end0-update
	.cfi_endproc
	.cantunwind
	.fnend
                                        @ -- End function
	.section	.text.ymodem_on_begin,"ax",%progbits
	.p2align	3                               @ -- Begin function ymodem_on_begin
	.type	ymodem_on_begin,%function
	.code	16                              @ @ymodem_on_begin
	.thumb_func
ymodem_on_begin:
.Lfunc_begin1:
	.loc	1 42 0                          @ libraries/rt_ota_lib/src/rtota_update.c:42:0
	.fnstart
	.cfi_startproc
@ %bb.0:
	.save	{r7, lr}
	push	{r7, lr}
	.cfi_def_cfa_offset 8
	.cfi_offset lr, -4
	.cfi_offset r7, -8
	.pad	#32
	sub	sp, #32
	.cfi_def_cfa_offset 40
	str	r0, [sp, #24]
	str	r1, [sp, #20]
	str	r2, [sp, #16]
.Ltmp15:
	.loc	1 46 26 prologue_end            @ libraries/rt_ota_lib/src/rtota_update.c:46:26
	ldr	r0, [sp, #20]
	.loc	1 46 15 is_stmt 0               @ libraries/rt_ota_lib/src/rtota_update.c:46:15
	str	r0, [sp, #12]
	.loc	1 47 26 is_stmt 1               @ libraries/rt_ota_lib/src/rtota_update.c:47:26
	ldr	r0, [sp, #20]
	.loc	1 47 40 is_stmt 0               @ libraries/rt_ota_lib/src/rtota_update.c:47:40
	str	r0, [sp, #4]                    @ 4-byte Spill
	ldr	r0, [sp, #12]
	.loc	1 47 30                         @ libraries/rt_ota_lib/src/rtota_update.c:47:30
	bl	rt_strlen
	ldr	r1, [sp, #4]                    @ 4-byte Reload
	.loc	1 47 51                         @ libraries/rt_ota_lib/src/rtota_update.c:47:51
	add	r0, r1
	.loc	1 47 26                         @ libraries/rt_ota_lib/src/rtota_update.c:47:26
	adds	r0, #1
	.loc	1 47 15                         @ libraries/rt_ota_lib/src/rtota_update.c:47:15
	str	r0, [sp, #8]
	.loc	1 48 35 is_stmt 1               @ libraries/rt_ota_lib/src/rtota_update.c:48:35
	ldr	r0, [sp, #8]
	.loc	1 48 30 is_stmt 0               @ libraries/rt_ota_lib/src/rtota_update.c:48:30
	bl	atol
	.loc	1 48 28                         @ libraries/rt_ota_lib/src/rtota_update.c:48:28
	movw	r1, :lower16:update_file_total_size
	movt	r1, :upper16:update_file_total_size
	str	r0, [r1]
	.loc	1 50 26 is_stmt 1               @ libraries/rt_ota_lib/src/rtota_update.c:50:26
	movw	r1, :lower16:update_file_cur_size
	movt	r1, :upper16:update_file_cur_size
	movs	r0, #0
	str	r0, [r1]
.Ltmp16:
	.loc	1 52 8                          @ libraries/rt_ota_lib/src/rtota_update.c:52:8
	movw	r0, :lower16:partition_name
	movt	r0, :upper16:partition_name
	ldr	r0, [r0]
.Ltmp17:
	.loc	1 52 8 is_stmt 0                @ libraries/rt_ota_lib/src/rtota_update.c:52:8
	cbz	r0, .LBB1_6
	b	.LBB1_1
.LBB1_1:
.Ltmp18:
	.loc	1 54 43 is_stmt 1               @ libraries/rt_ota_lib/src/rtota_update.c:54:43
	movw	r0, :lower16:partition_name
	movt	r0, :upper16:partition_name
	ldr	r0, [r0]
	.loc	1 54 24 is_stmt 0               @ libraries/rt_ota_lib/src/rtota_update.c:54:24
	bl	fal_partition_find
	.loc	1 54 22                         @ libraries/rt_ota_lib/src/rtota_update.c:54:22
	movw	r1, :lower16:dl_part
	movt	r1, :upper16:dl_part
	str	r0, [r1]
.Ltmp19:
	.loc	1 54 13                         @ libraries/rt_ota_lib/src/rtota_update.c:54:13
	cbnz	r0, .LBB1_5
	b	.LBB1_2
.LBB1_2:
.Ltmp20:
	.loc	1 56 13 is_stmt 1               @ libraries/rt_ota_lib/src/rtota_update.c:56:13
	b	.LBB1_3
.LBB1_3:
.Ltmp21:
	.loc	1 56 13 is_stmt 0               @ libraries/rt_ota_lib/src/rtota_update.c:56:13
	movw	r0, :lower16:.L.str.5
	movt	r0, :upper16:.L.str.5
	bl	rt_kprintf
	movw	r0, :lower16:partition_name
	movt	r0, :upper16:partition_name
	ldr	r1, [r0]
	movw	r0, :lower16:.L.str.6
	movt	r0, :upper16:.L.str.6
	bl	rt_kprintf
	movw	r0, :lower16:.L.str.7
	movt	r0, :upper16:.L.str.7
	bl	rt_kprintf
	b	.LBB1_4
.Ltmp22:
.LBB1_4:
	.loc	1 0 13                          @ libraries/rt_ota_lib/src/rtota_update.c:0:13
	movs	r0, #24
	.loc	1 57 13 is_stmt 1               @ libraries/rt_ota_lib/src/rtota_update.c:57:13
	strb.w	r0, [sp, #31]
	b	.LBB1_22
.Ltmp23:
.LBB1_5:
	.loc	1 59 17                         @ libraries/rt_ota_lib/src/rtota_update.c:59:17
	movw	r0, :lower16:partition_name
	movt	r0, :upper16:partition_name
	str	r0, [sp]                        @ 4-byte Spill
	ldr	r0, [r0]
	.loc	1 59 9 is_stmt 0                @ libraries/rt_ota_lib/src/rtota_update.c:59:9
	bl	rt_free
	ldr	r1, [sp]                        @ 4-byte Reload
	movs	r0, #0
	.loc	1 60 24 is_stmt 1               @ libraries/rt_ota_lib/src/rtota_update.c:60:24
	str	r0, [r1]
	.loc	1 61 5                          @ libraries/rt_ota_lib/src/rtota_update.c:61:5
	b	.LBB1_11
.Ltmp24:
.LBB1_6:
	.loc	1 65 24                         @ libraries/rt_ota_lib/src/rtota_update.c:65:24
	movw	r0, :lower16:.L.str.8
	movt	r0, :upper16:.L.str.8
	bl	fal_partition_find
	.loc	1 65 22 is_stmt 0               @ libraries/rt_ota_lib/src/rtota_update.c:65:22
	movw	r1, :lower16:dl_part
	movt	r1, :upper16:dl_part
	str	r0, [r1]
.Ltmp25:
	.loc	1 65 13                         @ libraries/rt_ota_lib/src/rtota_update.c:65:13
	cbnz	r0, .LBB1_10
	b	.LBB1_7
.LBB1_7:
.Ltmp26:
	.loc	1 67 13 is_stmt 1               @ libraries/rt_ota_lib/src/rtota_update.c:67:13
	b	.LBB1_8
.LBB1_8:
.Ltmp27:
	.loc	1 67 13 is_stmt 0               @ libraries/rt_ota_lib/src/rtota_update.c:67:13
	movw	r0, :lower16:.L.str.5
	movt	r0, :upper16:.L.str.5
	bl	rt_kprintf
	movw	r0, :lower16:.L.str.6
	movt	r0, :upper16:.L.str.6
	movw	r1, :lower16:.L.str.8
	movt	r1, :upper16:.L.str.8
	bl	rt_kprintf
	movw	r0, :lower16:.L.str.7
	movt	r0, :upper16:.L.str.7
	bl	rt_kprintf
	b	.LBB1_9
.Ltmp28:
.LBB1_9:
	.loc	1 0 13                          @ libraries/rt_ota_lib/src/rtota_update.c:0:13
	movs	r0, #24
	.loc	1 68 13 is_stmt 1               @ libraries/rt_ota_lib/src/rtota_update.c:68:13
	strb.w	r0, [sp, #31]
	b	.LBB1_22
.Ltmp29:
.LBB1_10:
	.loc	1 0 13 is_stmt 0                @ libraries/rt_ota_lib/src/rtota_update.c:0:13
	b	.LBB1_11
.LBB1_11:
.Ltmp30:
	.loc	1 72 9 is_stmt 1                @ libraries/rt_ota_lib/src/rtota_update.c:72:9
	movw	r0, :lower16:update_file_total_size
	movt	r0, :upper16:update_file_total_size
	ldr	r0, [r0]
	.loc	1 72 34 is_stmt 0               @ libraries/rt_ota_lib/src/rtota_update.c:72:34
	movw	r1, :lower16:dl_part
	movt	r1, :upper16:dl_part
	ldr	r1, [r1]
	.loc	1 72 43                         @ libraries/rt_ota_lib/src/rtota_update.c:72:43
	ldr	r1, [r1, #56]
.Ltmp31:
	.loc	1 72 9                          @ libraries/rt_ota_lib/src/rtota_update.c:72:9
	cmp	r0, r1
	bls	.LBB1_15
	b	.LBB1_12
.LBB1_12:
.Ltmp32:
	.loc	1 74 9 is_stmt 1                @ libraries/rt_ota_lib/src/rtota_update.c:74:9
	b	.LBB1_13
.LBB1_13:
.Ltmp33:
	.loc	1 74 9 is_stmt 0                @ libraries/rt_ota_lib/src/rtota_update.c:74:9
	movw	r0, :lower16:.L.str.5
	movt	r0, :upper16:.L.str.5
	bl	rt_kprintf
	movw	r0, :lower16:update_file_total_size
	movt	r0, :upper16:update_file_total_size
	ldr	r1, [r0]
	movw	r0, :lower16:dl_part
	movt	r0, :upper16:dl_part
	ldr	r0, [r0]
	ldr	r3, [r0, #56]
	movw	r0, :lower16:.L.str.9
	movt	r0, :upper16:.L.str.9
	movw	r2, :lower16:.L.str.8
	movt	r2, :upper16:.L.str.8
	bl	rt_kprintf
	movw	r0, :lower16:.L.str.7
	movt	r0, :upper16:.L.str.7
	bl	rt_kprintf
	b	.LBB1_14
.Ltmp34:
.LBB1_14:
	.loc	1 0 9                           @ libraries/rt_ota_lib/src/rtota_update.c:0:9
	movs	r0, #24
	.loc	1 75 9 is_stmt 1                @ libraries/rt_ota_lib/src/rtota_update.c:75:9
	strb.w	r0, [sp, #31]
	b	.LBB1_22
.Ltmp35:
.LBB1_15:
	.loc	1 78 5                          @ libraries/rt_ota_lib/src/rtota_update.c:78:5
	b	.LBB1_16
.LBB1_16:
.Ltmp36:
	.loc	1 78 5 is_stmt 0                @ libraries/rt_ota_lib/src/rtota_update.c:78:5
	movw	r0, :lower16:.L.str.10
	movt	r0, :upper16:.L.str.10
	bl	rt_kprintf
	movw	r0, :lower16:update_file_total_size
	movt	r0, :upper16:update_file_total_size
	ldr	r1, [r0]
	movw	r0, :lower16:.L.str.11
	movt	r0, :upper16:.L.str.11
	bl	rt_kprintf
	movw	r0, :lower16:.L.str.7
	movt	r0, :upper16:.L.str.7
	bl	rt_kprintf
	b	.LBB1_17
.Ltmp37:
.LBB1_17:
	.loc	1 81 29 is_stmt 1               @ libraries/rt_ota_lib/src/rtota_update.c:81:29
	movw	r0, :lower16:dl_part
	movt	r0, :upper16:dl_part
	ldr	r0, [r0]
	.loc	1 81 41 is_stmt 0               @ libraries/rt_ota_lib/src/rtota_update.c:81:41
	movw	r1, :lower16:update_file_total_size
	movt	r1, :upper16:update_file_total_size
	ldr	r2, [r1]
	movs	r1, #0
	.loc	1 81 9                          @ libraries/rt_ota_lib/src/rtota_update.c:81:9
	bl	fal_partition_erase
.Ltmp38:
	.loc	1 81 9                          @ libraries/rt_ota_lib/src/rtota_update.c:81:9
	cmp.w	r0, #-1
	bgt	.LBB1_21
	b	.LBB1_18
.LBB1_18:
.Ltmp39:
	.loc	1 83 9 is_stmt 1                @ libraries/rt_ota_lib/src/rtota_update.c:83:9
	b	.LBB1_19
.LBB1_19:
.Ltmp40:
	.loc	1 83 9 is_stmt 0                @ libraries/rt_ota_lib/src/rtota_update.c:83:9
	movw	r0, :lower16:.L.str.5
	movt	r0, :upper16:.L.str.5
	bl	rt_kprintf
	movw	r0, :lower16:dl_part
	movt	r0, :upper16:dl_part
	ldr	r0, [r0]
	adds	r1, r0, #4
	movw	r0, :lower16:.L.str.12
	movt	r0, :upper16:.L.str.12
	bl	rt_kprintf
	movw	r0, :lower16:.L.str.7
	movt	r0, :upper16:.L.str.7
	bl	rt_kprintf
	b	.LBB1_20
.Ltmp41:
.LBB1_20:
	.loc	1 0 9                           @ libraries/rt_ota_lib/src/rtota_update.c:0:9
	movs	r0, #24
	.loc	1 84 9 is_stmt 1                @ libraries/rt_ota_lib/src/rtota_update.c:84:9
	strb.w	r0, [sp, #31]
	b	.LBB1_22
.Ltmp42:
.LBB1_21:
	.loc	1 0 9 is_stmt 0                 @ libraries/rt_ota_lib/src/rtota_update.c:0:9
	movs	r0, #6
	.loc	1 87 5 is_stmt 1                @ libraries/rt_ota_lib/src/rtota_update.c:87:5
	strb.w	r0, [sp, #31]
	b	.LBB1_22
.LBB1_22:
	.loc	1 88 1                          @ libraries/rt_ota_lib/src/rtota_update.c:88:1
	ldrb.w	r0, [sp, #31]
	add	sp, #32
	pop	{r7, pc}
.Ltmp43:
.Lfunc_end1:
	.size	ymodem_on_begin, .Lfunc_end1-ymodem_on_begin
	.cfi_endproc
	.cantunwind
	.fnend
                                        @ -- End function
	.section	.text.ymodem_on_data,"ax",%progbits
	.p2align	3                               @ -- Begin function ymodem_on_data
	.type	ymodem_on_data,%function
	.code	16                              @ @ymodem_on_data
	.thumb_func
ymodem_on_data:
.Lfunc_begin2:
	.loc	1 91 0                          @ libraries/rt_ota_lib/src/rtota_update.c:91:0
	.fnstart
	.cfi_startproc
@ %bb.0:
	.save	{r7, lr}
	push	{r7, lr}
	.cfi_def_cfa_offset 8
	.cfi_offset lr, -4
	.cfi_offset r7, -8
	.pad	#16
	sub	sp, #16
	.cfi_def_cfa_offset 24
	str	r0, [sp, #8]
	str	r1, [sp, #4]
	str	r2, [sp]
.Ltmp44:
	.loc	1 93 29 prologue_end            @ libraries/rt_ota_lib/src/rtota_update.c:93:29
	movw	r0, :lower16:dl_part
	movt	r0, :upper16:dl_part
	ldr	r0, [r0]
	.loc	1 93 38 is_stmt 0               @ libraries/rt_ota_lib/src/rtota_update.c:93:38
	movw	r1, :lower16:update_file_cur_size
	movt	r1, :upper16:update_file_cur_size
	ldr	r1, [r1]
	.loc	1 93 60                         @ libraries/rt_ota_lib/src/rtota_update.c:93:60
	ldr	r2, [sp, #4]
	.loc	1 93 65                         @ libraries/rt_ota_lib/src/rtota_update.c:93:65
	ldr	r3, [sp]
	.loc	1 93 9                          @ libraries/rt_ota_lib/src/rtota_update.c:93:9
	bl	fal_partition_write
.Ltmp45:
	.loc	1 93 9                          @ libraries/rt_ota_lib/src/rtota_update.c:93:9
	cmp.w	r0, #-1
	bgt	.LBB2_4
	b	.LBB2_1
.LBB2_1:
.Ltmp46:
	.loc	1 95 9 is_stmt 1                @ libraries/rt_ota_lib/src/rtota_update.c:95:9
	b	.LBB2_2
.LBB2_2:
.Ltmp47:
	.loc	1 95 9 is_stmt 0                @ libraries/rt_ota_lib/src/rtota_update.c:95:9
	movw	r0, :lower16:.L.str.5
	movt	r0, :upper16:.L.str.5
	bl	rt_kprintf
	movw	r0, :lower16:dl_part
	movt	r0, :upper16:dl_part
	ldr	r0, [r0]
	adds	r1, r0, #4
	movw	r0, :lower16:.L.str.13
	movt	r0, :upper16:.L.str.13
	bl	rt_kprintf
	movw	r0, :lower16:.L.str.7
	movt	r0, :upper16:.L.str.7
	bl	rt_kprintf
	b	.LBB2_3
.Ltmp48:
.LBB2_3:
	.loc	1 0 9                           @ libraries/rt_ota_lib/src/rtota_update.c:0:9
	movs	r0, #24
	.loc	1 96 9 is_stmt 1                @ libraries/rt_ota_lib/src/rtota_update.c:96:9
	strb.w	r0, [sp, #15]
	b	.LBB2_5
.Ltmp49:
.LBB2_4:
	.loc	1 99 29                         @ libraries/rt_ota_lib/src/rtota_update.c:99:29
	ldr	r2, [sp]
	.loc	1 99 26 is_stmt 0               @ libraries/rt_ota_lib/src/rtota_update.c:99:26
	movw	r1, :lower16:update_file_cur_size
	movt	r1, :upper16:update_file_cur_size
	ldr	r0, [r1]
	add	r0, r2
	str	r0, [r1]
	movs	r0, #6
	.loc	1 101 5 is_stmt 1               @ libraries/rt_ota_lib/src/rtota_update.c:101:5
	strb.w	r0, [sp, #15]
	b	.LBB2_5
.LBB2_5:
	.loc	1 102 1                         @ libraries/rt_ota_lib/src/rtota_update.c:102:1
	ldrb.w	r0, [sp, #15]
	add	sp, #16
	pop	{r7, pc}
.Ltmp50:
.Lfunc_end2:
	.size	ymodem_on_data, .Lfunc_end2-ymodem_on_data
	.cfi_endproc
	.cantunwind
	.fnend
                                        @ -- End function
	.hidden	__fsym___cmd_update_name        @ @__fsym___cmd_update_name
	.type	__fsym___cmd_update_name,%object
	.section	.rodata.name,"a",%progbits
	.globl	__fsym___cmd_update_name
__fsym___cmd_update_name:
	.asciz	"__cmd_update"
	.size	__fsym___cmd_update_name, 13

	.hidden	__fsym___cmd_update_desc        @ @__fsym___cmd_update_desc
	.type	__fsym___cmd_update_desc,%object
	.globl	__fsym___cmd_update_desc
__fsym___cmd_update_desc:
	.asciz	"Update user application firmware"
	.size	__fsym___cmd_update_desc, 33

	.hidden	__fsym___cmd_update             @ @__fsym___cmd_update
	.type	__fsym___cmd_update,%object
	.section	FSymTab,"a",%progbits
	.globl	__fsym___cmd_update
	.p2align	2
__fsym___cmd_update:
__tagsym$$used.0:
	.long	__fsym___cmd_update_name
	.long	__fsym___cmd_update_desc
	.long	update
	.size	__fsym___cmd_update, 12

	.hidden	partition_name                  @ @partition_name
	.type	partition_name,%object
	.section	.bss.partition_name,"aw",%nobits
	.globl	partition_name
	.p2align	2
partition_name:
	.long	0
	.size	partition_name, 4

	.type	.L.str,%object                  @ @.str
	.section	.rodata.str1.1,"aMS",%progbits,1
.L.str:
	.asciz	"Waring: Ymodem has started! This operator will not recovery.\n"
	.size	.L.str, 62

	.type	.L.str.1,%object                @ @.str.1
.L.str.1:
	.asciz	"Please select the ota firmware file and use Ymodem to send.\n"
	.size	.L.str.1, 61

	.type	.L.str.2,%object                @ @.str.2
.L.str.2:
	.asciz	"Download firmware to flash success.\n"
	.size	.L.str.2, 37

	.type	.L.str.3,%object                @ @.str.3
.L.str.3:
	.asciz	"System now will restart...\r\n"
	.size	.L.str.3, 29

	.type	.L.str.4,%object                @ @.str.4
.L.str.4:
	.asciz	"Update firmware fail.\n"
	.size	.L.str.4, 23

	.type	update_file_total_size,%object  @ @update_file_total_size
	.section	.bss.update_file_total_size,"aw",%nobits
	.p2align	2
update_file_total_size:
	.long	0                               @ 0x0
	.size	update_file_total_size, 4

	.type	update_file_cur_size,%object    @ @update_file_cur_size
	.section	.bss.update_file_cur_size,"aw",%nobits
	.p2align	2
update_file_cur_size:
	.long	0                               @ 0x0
	.size	update_file_cur_size, 4

	.type	dl_part,%object                 @ @dl_part
	.section	.bss.dl_part,"aw",%nobits
	.p2align	2
dl_part:
	.long	0
	.size	dl_part, 4

	.type	.L.str.5,%object                @ @.str.5
	.section	.rodata.str1.1,"aMS",%progbits,1
.L.str.5:
	.asciz	"\033[31m[E/ymodem] "
	.size	.L.str.5, 17

	.type	.L.str.6,%object                @ @.str.6
.L.str.6:
	.asciz	"Firmware download failed! Partition (%s) find error!"
	.size	.L.str.6, 53

	.type	.L.str.7,%object                @ @.str.7
.L.str.7:
	.asciz	"\033[0m\n"
	.size	.L.str.7, 6

	.type	.L.str.8,%object                @ @.str.8
.L.str.8:
	.asciz	"download"
	.size	.L.str.8, 9

	.type	.L.str.9,%object                @ @.str.9
.L.str.9:
	.asciz	"Firmware is too large! File size (%d), '%s' partition size (%d)"
	.size	.L.str.9, 64

	.type	.L.str.10,%object               @ @.str.10
.L.str.10:
	.asciz	"\033[32m[I/ymodem] "
	.size	.L.str.10, 17

	.type	.L.str.11,%object               @ @.str.11
.L.str.11:
	.asciz	"Start erase. Size (%d)"
	.size	.L.str.11, 23

	.type	.L.str.12,%object               @ @.str.12
.L.str.12:
	.asciz	"Firmware download failed! Partition (%s) erase error!"
	.size	.L.str.12, 54

	.type	.L.str.13,%object               @ @.str.13
.L.str.13:
	.asciz	"Firmware download failed! Partition (%s) write data error!"
	.size	.L.str.13, 59

	.globl	__fsym___cmd_update
	.section	".note.GNU-stack","",%progbits
	.eabi_attribute	30, 6	@ Tag_ABI_optimization_goals
	.ARM_attribute	16, 1	@ Tag_AV_eba