	.text
	.syntax unified
	.eabi_attribute	67, "2.09"	@ Tag_conformance
	.cpu	cortex-m7
	.eabi_attribute	6, 13	@ Tag_CPU_arch
	.eabi_attribute	7, 77	@ Tag_CPU_arch_profile
	.eabi_attribute	8, 0	@ Tag_ARM_ISA_use
	.eabi_attribute	9, 2	@ Tag_THUMB_ISA_use
	.fpu	fpv5-d16
	.eabi_attribute	36, 1	@ Tag_FP_HP_extension
	.eabi_attribute	34, 1	@ Tag_CPU_unaligned_access
	.eabi_attribute	17, 1	@ Tag_ABI_PCS_GOT_use
	.eabi_attribute	20, 2	@ Tag_ABI_FP_denormal
	.eabi_attribute	21, 0	@ Tag_ABI_FP_exceptions
	.eabi_attribute	23, 1	@ Tag_ABI_FP_number_model
	.eabi_attribute	24, 1	@ Tag_ABI_align_needed
	.eabi_attribute	25, 1	@ Tag_ABI_align_preserved
	.eabi_attribute	28, 1	@ Tag_ABI_VFP_args
	.eabi_attribute	38, 1	@ Tag_ABI_FP_16bit_format
	.eabi_attribute	18, 2	@ Tag_ABI_PCS_wchar_t
	.eabi_attribute	26, 1	@ Tag_ABI_enum_size
	.eabi_attribute	14, 0	@ Tag_ABI_PCS_R9_use
	.file	"sal_socket.c"
	.file	1 "E:\\STM32\\Learning\\STM32H750_ART_PI_RGBLCD" "rt-thread/include\\rtdef.h"
	.file	2 "E:\\STM32\\Learning\\STM32H750_ART_PI_RGBLCD" "rt-thread/components/net/sal_socket/src/sal_socket.c"
	.file	3 "D:\\Keil_v5\\ARM\\ARMCLANG\\Bin\\..\\include" "stdint.h"
	.file	4 "E:\\STM32\\Learning\\STM32H750_ART_PI_RGBLCD" "./rt-thread/components/net/sal_socket/include\\sal.h"
	.file	5 "E:\\STM32\\Learning\\STM32H750_ART_PI_RGBLCD" "./rt-thread/components/net/netdev/include\\netdev.h"
	.file	6 "E:\\STM32\\Learning\\STM32H750_ART_PI_RGBLCD" "./rt-thread/components/net/netdev/include\\netdev_ipaddr.h"
	.file	7 "D:\\Keil_v5\\ARM\\ARMCLANG\\Bin\\..\\include" "time.h"
	.file	8 "E:\\STM32\\Learning\\STM32H750_ART_PI_RGBLCD" "rt-thread/components/drivers/include\\ipc/workqueue.h"
	.file	9 "E:\\STM32\\Learning\\STM32H750_ART_PI_RGBLCD" "./rt-thread/components/net/sal_socket/include/sal_socket.h"
	.file	10 "E:\\STM32\\Learning\\STM32H750_ART_PI_RGBLCD" "./rt-thread/components/net/sal_socket/include\\sal_netdb.h"
	.section	.text.sal_init,"ax",%progbits
	.hidden	sal_init                        @ -- Begin function sal_init
	.globl	sal_init
	.p2align	3
	.type	sal_init,%function
	.code	16                              @ @sal_init
	.thumb_func
sal_init:
.Lfunc_begin0:
	.loc	2 100 0                         @ rt-thread/components/net/sal_socket/src/sal_socket.c:100:0
	.fnstart
	.cfi_sections .debug_frame
	.cfi_startproc
@ %bb.0:
	.save	{r7, lr}
	push	{r7, lr}
	.cfi_def_cfa_offset 8
	.cfi_offset lr, -4
	.cfi_offset r7, -8
	.pad	#16
	sub	sp, #16
	.cfi_def_cfa_offset 24
.Ltmp0:
	.loc	2 103 9 prologue_end            @ rt-thread/components/net/sal_socket/src/sal_socket.c:103:9
	movw	r0, :lower16:init_ok
	movt	r0, :upper16:init_ok
	ldr	r0, [r0]
.Ltmp1:
	.loc	2 103 9 is_stmt 0               @ rt-thread/components/net/sal_socket/src/sal_socket.c:103:9
	cbz	r0, .LBB0_2
	b	.LBB0_1
.LBB0_1:
	.loc	2 0 9                           @ rt-thread/components/net/sal_socket/src/sal_socket.c:0:9
	movs	r0, #0
.Ltmp2:
	.loc	2 106 9 is_stmt 1               @ rt-thread/components/net/sal_socket/src/sal_socket.c:106:9
	str	r0, [sp, #12]
	b	.LBB0_9
.Ltmp3:
.LBB0_2:
	.loc	2 0 9 is_stmt 0                 @ rt-thread/components/net/sal_socket/src/sal_socket.c:0:9
	movs	r0, #4
	.loc	2 110 8 is_stmt 1               @ rt-thread/components/net/sal_socket/src/sal_socket.c:110:8
	str	r0, [sp, #8]
	.loc	2 111 31                        @ rt-thread/components/net/sal_socket/src/sal_socket.c:111:31
	ldr	r0, [sp, #8]
	.loc	2 111 29 is_stmt 0              @ rt-thread/components/net/sal_socket/src/sal_socket.c:111:29
	movw	r1, :lower16:socket_table
	movt	r1, :upper16:socket_table
	str	r1, [sp, #4]                    @ 4-byte Spill
	str	r0, [r1]
	.loc	2 112 41 is_stmt 1              @ rt-thread/components/net/sal_socket/src/sal_socket.c:112:41
	ldr	r0, [sp, #8]
	.loc	2 112 44 is_stmt 0              @ rt-thread/components/net/sal_socket/src/sal_socket.c:112:44
	lsls	r1, r0, #2
	movs	r0, #1
	.loc	2 112 28                        @ rt-thread/components/net/sal_socket/src/sal_socket.c:112:28
	bl	rt_calloc
	mov	r1, r0
	.loc	2 112 26                        @ rt-thread/components/net/sal_socket/src/sal_socket.c:112:26
	ldr	r0, [sp, #4]                    @ 4-byte Reload
	str	r1, [r0, #4]
.Ltmp4:
	.loc	2 113 22 is_stmt 1              @ rt-thread/components/net/sal_socket/src/sal_socket.c:113:22
	ldr	r0, [r0, #4]
.Ltmp5:
	.loc	2 113 9 is_stmt 0               @ rt-thread/components/net/sal_socket/src/sal_socket.c:113:9
	cbnz	r0, .LBB0_6
	b	.LBB0_3
.LBB0_3:
.Ltmp6:
	.loc	2 115 9 is_stmt 1               @ rt-thread/components/net/sal_socket/src/sal_socket.c:115:9
	b	.LBB0_4
.LBB0_4:
.Ltmp7:
	.loc	2 115 9 is_stmt 0               @ rt-thread/components/net/sal_socket/src/sal_socket.c:115:9
	movw	r0, :lower16:.L.str
	movt	r0, :upper16:.L.str
	bl	rt_kprintf
	movw	r0, :lower16:.L.str.1
	movt	r0, :upper16:.L.str.1
	bl	rt_kprintf
	movw	r0, :lower16:.L.str.2
	movt	r0, :upper16:.L.str.2
	bl	rt_kprintf
	b	.LBB0_5
.Ltmp8:
.LBB0_5:
	.loc	2 0 9                           @ rt-thread/components/net/sal_socket/src/sal_socket.c:0:9
	mov.w	r0, #-1
	.loc	2 116 9 is_stmt 1               @ rt-thread/components/net/sal_socket/src/sal_socket.c:116:9
	str	r0, [sp, #12]
	b	.LBB0_9
.Ltmp9:
.LBB0_6:
	.loc	2 120 5                         @ rt-thread/components/net/sal_socket/src/sal_socket.c:120:5
	movw	r0, :lower16:sal_core_lock
	movt	r0, :upper16:sal_core_lock
	movw	r1, :lower16:.L.str.3
	movt	r1, :upper16:.L.str.3
	movs	r2, #0
	bl	rt_mutex_init
	.loc	2 122 5                         @ rt-thread/components/net/sal_socket/src/sal_socket.c:122:5
	b	.LBB0_7
.LBB0_7:
.Ltmp10:
	.loc	2 122 5 is_stmt 0               @ rt-thread/components/net/sal_socket/src/sal_socket.c:122:5
	movw	r0, :lower16:.L.str.4
	movt	r0, :upper16:.L.str.4
	bl	rt_kprintf
	movw	r0, :lower16:.L.str.5
	movt	r0, :upper16:.L.str.5
	bl	rt_kprintf
	movw	r0, :lower16:.L.str.2
	movt	r0, :upper16:.L.str.2
	bl	rt_kprintf
	b	.LBB0_8
.Ltmp11:
.LBB0_8:
	.loc	2 123 13 is_stmt 1              @ rt-thread/components/net/sal_socket/src/sal_socket.c:123:13
	movw	r1, :lower16:init_ok
	movt	r1, :upper16:init_ok
	movs	r0, #1
	str	r0, [r1]
	movs	r0, #0
	.loc	2 125 5                         @ rt-thread/components/net/sal_socket/src/sal_socket.c:125:5
	str	r0, [sp, #12]
	b	.LBB0_9
.LBB0_9:
	.loc	2 126 1                         @ rt-thread/components/net/sal_socket/src/sal_socket.c:126:1
	ldr	r0, [sp, #12]
	add	sp, #16
	pop	{r7, pc}
.Ltmp12:
.Lfunc_end0:
	.size	sal_init, .Lfunc_end0-sal_init
	.cfi_endproc
	.cantunwind
	.fnend
                                        @ -- End function
	.section	.text.sal_check_netdev_internet_up,"ax",%progbits
	.hidden	sal_check_netdev_internet_up    @ -- Begin function sal_check_netdev_internet_up
	.globl	sal_check_netdev_internet_up
	.p2align	3
	.type	sal_check_netdev_internet_up,%function
	.code	16                              @ @sal_check_netdev_internet_up
	.thumb_func
sal_check_netdev_internet_up:
.Lfunc_begin1:
	.loc	2 265 0                         @ rt-thread/components/net/sal_socket/src/sal_socket.c:265:0
	.fnstart
	.cfi_startproc
@ %bb.0:
	.save	{r7, lr}
	push	{r7, lr}
	.cfi_def_cfa_offset 8
	.cfi_offset lr, -4
	.cfi_offset r7, -8
	.pad	#16
	sub	sp, #16
	.cfi_def_cfa_offset 24
	str	r0, [sp, #8]
	movs	r0, #0
.Ltmp13:
	.loc	2 267 29 prologue_end           @ rt-thread/components/net/sal_socket/src/sal_socket.c:267:29
	str	r0, [sp, #4]
.Ltmp14:
	.loc	2 269 5                         @ rt-thread/components/net/sal_socket/src/sal_socket.c:269:5
	ldr	r0, [sp, #8]
.Ltmp15:
	.loc	2 269 5 is_stmt 0               @ rt-thread/components/net/sal_socket/src/sal_socket.c:269:5
	cbnz	r0, .LBB1_2
	b	.LBB1_1
.LBB1_1:
.Ltmp16:
	.loc	2 269 5                         @ rt-thread/components/net/sal_socket/src/sal_socket.c:269:5
	movw	r0, :lower16:.L.str.6
	movt	r0, :upper16:.L.str.6
	movw	r1, :lower16:.L__FUNCTION__.sal_check_netdev_internet_up
	movt	r1, :upper16:.L__FUNCTION__.sal_check_netdev_internet_up
	movw	r2, #269
	bl	rt_assert_handler
	b	.LBB1_2
.Ltmp17:
.LBB1_2:
	.loc	2 0 5                           @ rt-thread/components/net/sal_socket/src/sal_socket.c:0:5
	movs	r0, #1
	movs	r1, #68
	.loc	2 271 42 is_stmt 1              @ rt-thread/components/net/sal_socket/src/sal_socket.c:271:42
	bl	rt_calloc
	.loc	2 271 14 is_stmt 0              @ rt-thread/components/net/sal_socket/src/sal_socket.c:271:14
	str	r0, [sp, #4]
.Ltmp18:
	.loc	2 272 9 is_stmt 1               @ rt-thread/components/net/sal_socket/src/sal_socket.c:272:9
	ldr	r0, [sp, #4]
.Ltmp19:
	.loc	2 272 9 is_stmt 0               @ rt-thread/components/net/sal_socket/src/sal_socket.c:272:9
	cbnz	r0, .LBB1_6
	b	.LBB1_3
.LBB1_3:
.Ltmp20:
	.loc	2 274 9 is_stmt 1               @ rt-thread/components/net/sal_socket/src/sal_socket.c:274:9
	b	.LBB1_4
.LBB1_4:
.Ltmp21:
	.loc	2 274 9 is_stmt 0               @ rt-thread/components/net/sal_socket/src/sal_socket.c:274:9
	movw	r0, :lower16:.L.str.7
	movt	r0, :upper16:.L.str.7
	bl	rt_kprintf
	ldr	r0, [sp, #8]
	adds	r1, r0, #4
	movw	r0, :lower16:.L.str.8
	movt	r0, :upper16:.L.str.8
	bl	rt_kprintf
	movw	r0, :lower16:.L.str.2
	movt	r0, :upper16:.L.str.2
	bl	rt_kprintf
	b	.LBB1_5
.Ltmp22:
.LBB1_5:
	.loc	2 0 9                           @ rt-thread/components/net/sal_socket/src/sal_socket.c:0:9
	mov.w	r0, #-1
	.loc	2 275 9 is_stmt 1               @ rt-thread/components/net/sal_socket/src/sal_socket.c:275:9
	str	r0, [sp, #12]
	b	.LBB1_7
.Ltmp23:
.LBB1_6:
	.loc	2 278 26                        @ rt-thread/components/net/sal_socket/src/sal_socket.c:278:26
	ldr	r0, [sp, #4]
	.loc	2 278 75 is_stmt 0              @ rt-thread/components/net/sal_socket/src/sal_socket.c:278:75
	ldr	r2, [sp, #8]
	.loc	2 278 5                         @ rt-thread/components/net/sal_socket/src/sal_socket.c:278:5
	movw	r1, :lower16:check_netdev_internet_up_work
	movt	r1, :upper16:check_netdev_internet_up_work
	bl	rt_delayed_work_init
	.loc	2 279 22 is_stmt 1              @ rt-thread/components/net/sal_socket/src/sal_socket.c:279:22
	ldr	r0, [sp, #4]
	mov.w	r1, #1000
	.loc	2 279 5 is_stmt 0               @ rt-thread/components/net/sal_socket/src/sal_socket.c:279:5
	bl	rt_work_submit
	movs	r0, #0
	.loc	2 281 5 is_stmt 1               @ rt-thread/components/net/sal_socket/src/sal_socket.c:281:5
	str	r0, [sp, #12]
	b	.LBB1_7
.LBB1_7:
	.loc	2 282 1                         @ rt-thread/components/net/sal_socket/src/sal_socket.c:282:1
	ldr	r0, [sp, #12]
	add	sp, #16
	pop	{r7, pc}
.Ltmp24:
.Lfunc_end1:
	.size	sal_check_netdev_internet_up, .Lfunc_end1-sal_check_netdev_internet_up
	.cfi_endproc
	.cantunwind
	.fnend
                                        @ -- End function
	.section	.text.check_netdev_internet_up_work,"ax",%progbits
	.p2align	3                               @ -- Begin function check_netdev_internet_up_work
	.type	check_netdev_internet_up_work,%function
	.code	16                              @ @check_netdev_internet_up_work
	.thumb_func
check_netdev_internet_up_work:
.Lfunc_begin2:
	.loc	2 131 0                         @ rt-thread/components/net/sal_socket/src/sal_socket.c:131:0
	.fnstart
	.cfi_startproc
@ %bb.0:
	.save	{r7, lr}
	push	{r7, lr}
	.cfi_def_cfa_offset 8
	.cfi_offset lr, -4
	.cfi_offset r7, -8
	.pad	#208
	sub	sp, #208
	.cfi_def_cfa_offset 216
	str	r0, [sp, #204]
	str	r1, [sp, #200]
	mov.w	r0, #-1
.Ltmp25:
	.loc	2 142 16 prologue_end           @ rt-thread/components/net/sal_socket/src/sal_socket.c:142:16
	str	r0, [sp, #192]
	movs	r0, #0
	.loc	2 142 29 is_stmt 0              @ rt-thread/components/net/sal_socket/src/sal_socket.c:142:29
	str	r0, [sp, #52]                   @ 4-byte Spill
	str	r0, [sp, #188]
	.loc	2 146 46 is_stmt 1              @ rt-thread/components/net/sal_socket/src/sal_socket.c:146:46
	ldr	r1, [sp, #200]
	.loc	2 146 20 is_stmt 0              @ rt-thread/components/net/sal_socket/src/sal_socket.c:146:20
	str	r1, [sp, #156]
	movs	r1, #16
	.loc	2 147 15 is_stmt 1              @ rt-thread/components/net/sal_socket/src/sal_socket.c:147:15
	str	r1, [sp, #152]
	.loc	2 148 44                        @ rt-thread/components/net/sal_socket/src/sal_socket.c:148:44
	strb.w	r0, [sp, #139]
	.loc	2 149 68                        @ rt-thread/components/net/sal_socket/src/sal_socket.c:149:68
	ldr	r0, [sp, #204]
	.loc	2 149 29 is_stmt 0              @ rt-thread/components/net/sal_socket/src/sal_socket.c:149:29
	str	r0, [sp, #132]
	.loc	2 151 16 is_stmt 1              @ rt-thread/components/net/sal_socket/src/sal_socket.c:151:16
	movw	r1, :lower16:.L__const.check_netdev_internet_up_work.month
	movt	r1, :upper16:.L__const.check_netdev_internet_up_work.month
	add	r0, sp, #84
	movs	r2, #48
	bl	__aeabi_memcpy
                                        @ kill: def $r1 killed $r0
	.loc	2 153 9                         @ rt-thread/components/net/sal_socket/src/sal_socket.c:153:9
	ldr	r0, [sp, #52]                   @ 4-byte Reload
	str	r0, [sp, #64]
	.loc	2 155 63                        @ rt-thread/components/net/sal_socket/src/sal_socket.c:155:63
	ldr	r0, [sp, #156]
	.loc	2 155 71 is_stmt 0              @ rt-thread/components/net/sal_socket/src/sal_socket.c:155:71
	ldr	r0, [r0, #60]
	.loc	2 155 30                        @ rt-thread/components/net/sal_socket/src/sal_socket.c:155:30
	str	r0, [sp, #60]
.Ltmp26:
	.loc	2 158 9 is_stmt 1               @ rt-thread/components/net/sal_socket/src/sal_socket.c:158:9
	ldr	r0, [sp, #204]
.Ltmp27:
	.loc	2 158 9 is_stmt 0               @ rt-thread/components/net/sal_socket/src/sal_socket.c:158:9
	cbz	r0, .LBB2_2
	b	.LBB2_1
.LBB2_1:
.Ltmp28:
	.loc	2 160 17 is_stmt 1              @ rt-thread/components/net/sal_socket/src/sal_socket.c:160:17
	ldr	r0, [sp, #132]
	.loc	2 160 9 is_stmt 0               @ rt-thread/components/net/sal_socket/src/sal_socket.c:160:9
	bl	rt_free
	.loc	2 161 5 is_stmt 1               @ rt-thread/components/net/sal_socket/src/sal_socket.c:161:5
	b	.LBB2_2
.Ltmp29:
.LBB2_2:
	.loc	2 164 9                         @ rt-thread/components/net/sal_socket/src/sal_socket.c:164:9
	ldr	r0, [sp, #60]
	.loc	2 164 23 is_stmt 0              @ rt-thread/components/net/sal_socket/src/sal_socket.c:164:23
	cbz	r0, .LBB2_4
	b	.LBB2_3
.LBB2_3:
	.loc	2 164 26                        @ rt-thread/components/net/sal_socket/src/sal_socket.c:164:26
	ldr	r0, [sp, #60]
	.loc	2 164 30                        @ rt-thread/components/net/sal_socket/src/sal_socket.c:164:30
	ldr	r0, [r0, #8]
.Ltmp30:
	.loc	2 164 9                         @ rt-thread/components/net/sal_socket/src/sal_socket.c:164:9
	cbnz	r0, .LBB2_5
	b	.LBB2_4
.LBB2_4:
	.loc	2 0 9                           @ rt-thread/components/net/sal_socket/src/sal_socket.c:0:9
	mov.w	r0, #-1
.Ltmp31:
	.loc	2 166 16 is_stmt 1              @ rt-thread/components/net/sal_socket/src/sal_socket.c:166:16
	str	r0, [sp, #188]
	.loc	2 167 9                         @ rt-thread/components/net/sal_socket/src/sal_socket.c:167:9
	b	.LBB2_27
.Ltmp32:
.LBB2_5:
	.loc	2 170 31                        @ rt-thread/components/net/sal_socket/src/sal_socket.c:170:31
	ldr	r0, [sp, #60]
	.loc	2 170 35 is_stmt 0              @ rt-thread/components/net/sal_socket/src/sal_socket.c:170:35
	ldr	r0, [r0, #12]
	.loc	2 170 46                        @ rt-thread/components/net/sal_socket/src/sal_socket.c:170:46
	ldr	r1, [r0]
	.loc	2 170 31                        @ rt-thread/components/net/sal_socket/src/sal_socket.c:170:31
	movw	r0, :lower16:.L.str.13
	movt	r0, :upper16:.L.str.13
	blx	r1
	.loc	2 170 10                        @ rt-thread/components/net/sal_socket/src/sal_socket.c:170:10
	str	r0, [sp, #168]
.Ltmp33:
	.loc	2 171 9 is_stmt 1               @ rt-thread/components/net/sal_socket/src/sal_socket.c:171:9
	ldr	r0, [sp, #168]
.Ltmp34:
	.loc	2 171 9 is_stmt 0               @ rt-thread/components/net/sal_socket/src/sal_socket.c:171:9
	cbnz	r0, .LBB2_7
	b	.LBB2_6
.LBB2_6:
	.loc	2 0 9                           @ rt-thread/components/net/sal_socket/src/sal_socket.c:0:9
	mov.w	r0, #-1
.Ltmp35:
	.loc	2 173 16 is_stmt 1              @ rt-thread/components/net/sal_socket/src/sal_socket.c:173:16
	str	r0, [sp, #188]
	.loc	2 174 9                         @ rt-thread/components/net/sal_socket/src/sal_socket.c:174:9
	b	.LBB2_27
.Ltmp36:
.LBB2_7:
	.loc	2 177 15                        @ rt-thread/components/net/sal_socket/src/sal_socket.c:177:15
	ldr	r0, [sp, #60]
	.loc	2 177 19 is_stmt 0              @ rt-thread/components/net/sal_socket/src/sal_socket.c:177:19
	ldr	r0, [r0, #8]
	.loc	2 177 13                        @ rt-thread/components/net/sal_socket/src/sal_socket.c:177:13
	str	r0, [sp, #56]
.Ltmp37:
	.loc	2 178 19 is_stmt 1              @ rt-thread/components/net/sal_socket/src/sal_socket.c:178:19
	ldr	r0, [sp, #56]
	.loc	2 178 28 is_stmt 0              @ rt-thread/components/net/sal_socket/src/sal_socket.c:178:28
	ldr	r3, [r0]
	movs	r1, #2
	movs	r2, #0
	.loc	2 178 19                        @ rt-thread/components/net/sal_socket/src/sal_socket.c:178:19
	mov	r0, r1
	blx	r3
	.loc	2 178 17                        @ rt-thread/components/net/sal_socket/src/sal_socket.c:178:17
	str	r0, [sp, #192]
.Ltmp38:
	.loc	2 178 9                         @ rt-thread/components/net/sal_socket/src/sal_socket.c:178:9
	cmp.w	r0, #-1
	bgt	.LBB2_9
	b	.LBB2_8
.LBB2_8:
	.loc	2 0 9                           @ rt-thread/components/net/sal_socket/src/sal_socket.c:0:9
	mov.w	r0, #-1
.Ltmp39:
	.loc	2 180 16 is_stmt 1              @ rt-thread/components/net/sal_socket/src/sal_socket.c:180:16
	str	r0, [sp, #188]
	.loc	2 181 9                         @ rt-thread/components/net/sal_socket/src/sal_socket.c:181:9
	b	.LBB2_27
.Ltmp40:
.LBB2_9:
	.loc	2 0 9 is_stmt 0                 @ rt-thread/components/net/sal_socket/src/sal_socket.c:0:9
	movs	r0, #2
	.loc	2 184 28 is_stmt 1              @ rt-thread/components/net/sal_socket/src/sal_socket.c:184:28
	str	r0, [sp, #24]                   @ 4-byte Spill
	strb.w	r0, [sp, #173]
	movw	r0, #42271
	.loc	2 185 26                        @ rt-thread/components/net/sal_socket/src/sal_socket.c:185:26
	strh.w	r0, [sp, #174]
	.loc	2 186 48                        @ rt-thread/components/net/sal_socket/src/sal_socket.c:186:48
	ldr	r0, [sp, #168]
	.loc	2 186 54 is_stmt 0              @ rt-thread/components/net/sal_socket/src/sal_socket.c:186:54
	ldr	r0, [r0, #16]
	.loc	2 186 48                        @ rt-thread/components/net/sal_socket/src/sal_socket.c:186:48
	ldr	r0, [r0]
	.loc	2 186 28                        @ rt-thread/components/net/sal_socket/src/sal_socket.c:186:28
	ldr	r0, [r0]
	str	r0, [sp, #176]
	add	r0, sp, #172
	.loc	2 187 29 is_stmt 1              @ rt-thread/components/net/sal_socket/src/sal_socket.c:187:29
	adds	r0, #8
	movs	r1, #0
	str	r1, [sp, #48]                   @ 4-byte Spill
	movs	r2, #8
	.loc	2 187 5 is_stmt 0               @ rt-thread/components/net/sal_socket/src/sal_socket.c:187:5
	str	r2, [sp, #28]                   @ 4-byte Spill
	bl	rt_memset
	ldr	r2, [sp, #24]                   @ 4-byte Reload
	ldr	r1, [sp, #28]                   @ 4-byte Reload
                                        @ kill: def $r3 killed $r0
	.loc	2 189 20 is_stmt 1              @ rt-thread/components/net/sal_socket/src/sal_socket.c:189:20
	ldr	r0, [sp, #48]                   @ 4-byte Reload
	str	r2, [sp, #160]
	.loc	2 190 21                        @ rt-thread/components/net/sal_socket/src/sal_socket.c:190:21
	str	r0, [sp, #164]
	.loc	2 193 5                         @ rt-thread/components/net/sal_socket/src/sal_socket.c:193:5
	ldr	r0, [sp, #56]
	.loc	2 193 14 is_stmt 0              @ rt-thread/components/net/sal_socket/src/sal_socket.c:193:14
	ldr.w	r12, [r0, #36]
	.loc	2 193 25                        @ rt-thread/components/net/sal_socket/src/sal_socket.c:193:25
	ldr	r0, [sp, #192]
	.loc	2 193 5                         @ rt-thread/components/net/sal_socket/src/sal_socket.c:193:5
	mov	r2, sp
	str	r1, [r2]
	movw	r1, #4095
	str	r1, [sp, #32]                   @ 4-byte Spill
	movw	r2, #4102
	add	r3, sp, #160
	str	r3, [sp, #36]                   @ 4-byte Spill
	blx	r12
	ldr	r2, [sp, #28]                   @ 4-byte Reload
	ldr	r1, [sp, #32]                   @ 4-byte Reload
	ldr	r3, [sp, #36]                   @ 4-byte Reload
	.loc	2 194 5 is_stmt 1               @ rt-thread/components/net/sal_socket/src/sal_socket.c:194:5
	ldr	r0, [sp, #56]
	.loc	2 194 14 is_stmt 0              @ rt-thread/components/net/sal_socket/src/sal_socket.c:194:14
	ldr.w	r12, [r0, #36]
	.loc	2 194 25                        @ rt-thread/components/net/sal_socket/src/sal_socket.c:194:25
	ldr	r0, [sp, #192]
	.loc	2 194 5                         @ rt-thread/components/net/sal_socket/src/sal_socket.c:194:5
	mov	lr, sp
	str.w	r2, [lr]
	movw	r2, #4101
	blx	r12
	ldr	r1, [sp, #48]                   @ 4-byte Reload
	add	r0, sp, #68
	str	r0, [sp, #44]                   @ 4-byte Spill
	movs	r2, #16
	.loc	2 197 5 is_stmt 1               @ rt-thread/components/net/sal_socket/src/sal_socket.c:197:5
	str	r2, [sp, #40]                   @ 4-byte Spill
	bl	rt_memset
	ldr	r1, [sp, #40]                   @ 4-byte Reload
                                        @ kill: def $r2 killed $r0
	.loc	2 198 5                         @ rt-thread/components/net/sal_socket/src/sal_socket.c:198:5
	ldr	r0, [sp, #44]                   @ 4-byte Reload
	movw	r2, :lower16:.L.str.14
	movt	r2, :upper16:.L.str.14
	movw	r3, :lower16:.L.str.15
	movt	r3, :upper16:.L.str.15
	bl	rt_snprintf
                                        @ kill: def $r1 killed $r0
.Ltmp41:
	.loc	2 200 16                        @ rt-thread/components/net/sal_socket/src/sal_socket.c:200:16
	ldr	r0, [sp, #48]                   @ 4-byte Reload
	str	r0, [sp, #196]
	.loc	2 200 10 is_stmt 0              @ rt-thread/components/net/sal_socket/src/sal_socket.c:200:10
	b	.LBB2_10
.LBB2_10:                               @ =>This Inner Loop Header: Depth=1
.Ltmp42:
	.loc	2 200 21                        @ rt-thread/components/net/sal_socket/src/sal_socket.c:200:21
	ldr	r0, [sp, #196]
.Ltmp43:
	.loc	2 200 5                         @ rt-thread/components/net/sal_socket/src/sal_socket.c:200:5
	cmp	r0, #11
	bhi	.LBB2_15
	b	.LBB2_11
.LBB2_11:                               @   in Loop: Header=BB2_10 Depth=1
.Ltmp44:
	.loc	2 202 35 is_stmt 1              @ rt-thread/components/net/sal_socket/src/sal_socket.c:202:35
	ldr	r1, [sp, #196]
	add	r0, sp, #84
	.loc	2 202 29 is_stmt 0              @ rt-thread/components/net/sal_socket/src/sal_socket.c:202:29
	add.w	r1, r0, r1, lsl #2
	add	r0, sp, #68
	movs	r2, #3
	.loc	2 202 13                        @ rt-thread/components/net/sal_socket/src/sal_socket.c:202:13
	bl	rt_memcmp
.Ltmp45:
	.loc	2 202 13                        @ rt-thread/components/net/sal_socket/src/sal_socket.c:202:13
	cbnz	r0, .LBB2_13
	b	.LBB2_12
.LBB2_12:
.Ltmp46:
	.loc	2 204 24 is_stmt 1              @ rt-thread/components/net/sal_socket/src/sal_socket.c:204:24
	ldr	r0, [sp, #196]
	.loc	2 204 30 is_stmt 0              @ rt-thread/components/net/sal_socket/src/sal_socket.c:204:30
	adds	r0, #1
	.loc	2 204 22                        @ rt-thread/components/net/sal_socket/src/sal_socket.c:204:22
	str	r0, [sp, #64]
	.loc	2 205 13 is_stmt 1              @ rt-thread/components/net/sal_socket/src/sal_socket.c:205:13
	b	.LBB2_15
.Ltmp47:
.LBB2_13:                               @   in Loop: Header=BB2_10 Depth=1
	.loc	2 207 5                         @ rt-thread/components/net/sal_socket/src/sal_socket.c:207:5
	b	.LBB2_14
.Ltmp48:
.LBB2_14:                               @   in Loop: Header=BB2_10 Depth=1
	.loc	2 200 74                        @ rt-thread/components/net/sal_socket/src/sal_socket.c:200:74
	ldr	r0, [sp, #196]
	adds	r0, #1
	str	r0, [sp, #196]
	.loc	2 200 5 is_stmt 0               @ rt-thread/components/net/sal_socket/src/sal_socket.c:200:5
	b	.LBB2_10
.Ltmp49:
.LBB2_15:
	.loc	2 210 9 is_stmt 1               @ rt-thread/components/net/sal_socket/src/sal_socket.c:210:9
	ldr	r0, [sp, #64]
	.loc	2 210 23 is_stmt 0              @ rt-thread/components/net/sal_socket/src/sal_socket.c:210:23
	cbz	r0, .LBB2_17
	b	.LBB2_16
.LBB2_16:
	.loc	2 210 26                        @ rt-thread/components/net/sal_socket/src/sal_socket.c:210:26
	ldr	r0, [sp, #64]
.Ltmp50:
	.loc	2 210 9                         @ rt-thread/components/net/sal_socket/src/sal_socket.c:210:9
	cmp	r0, #13
	blo	.LBB2_18
	b	.LBB2_17
.LBB2_17:
	.loc	2 0 9                           @ rt-thread/components/net/sal_socket/src/sal_socket.c:0:9
	mov.w	r0, #-1
.Ltmp51:
	.loc	2 212 16 is_stmt 1              @ rt-thread/components/net/sal_socket/src/sal_socket.c:212:16
	str	r0, [sp, #188]
	.loc	2 213 9                         @ rt-thread/components/net/sal_socket/src/sal_socket.c:213:9
	b	.LBB2_27
.Ltmp52:
.LBB2_18:
	.loc	2 0 9 is_stmt 0                 @ rt-thread/components/net/sal_socket/src/sal_socket.c:0:9
	add	r0, sp, #140
	movs	r1, #0
	str	r1, [sp, #20]                   @ 4-byte Spill
	movs	r2, #12
	.loc	2 216 5 is_stmt 1               @ rt-thread/components/net/sal_socket/src/sal_socket.c:216:5
	bl	rt_memset
                                        @ kill: def $r1 killed $r0
	.loc	2 217 18                        @ rt-thread/components/net/sal_socket/src/sal_socket.c:217:18
	ldr	r0, [sp, #20]                   @ 4-byte Reload
	strb.w	r0, [sp, #140]
.Ltmp53:
	.loc	2 218 16                        @ rt-thread/components/net/sal_socket/src/sal_socket.c:218:16
	str	r0, [sp, #196]
	.loc	2 218 10 is_stmt 0              @ rt-thread/components/net/sal_socket/src/sal_socket.c:218:10
	b	.LBB2_19
.LBB2_19:                               @ =>This Inner Loop Header: Depth=1
.Ltmp54:
	.loc	2 218 21                        @ rt-thread/components/net/sal_socket/src/sal_socket.c:218:21
	ldr	r0, [sp, #196]
	.loc	2 218 29                        @ rt-thread/components/net/sal_socket/src/sal_socket.c:218:29
	ldr	r1, [sp, #156]
	.loc	2 218 37                        @ rt-thread/components/net/sal_socket/src/sal_socket.c:218:37
	ldrb.w	r1, [r1, #32]
.Ltmp55:
	.loc	2 218 5                         @ rt-thread/components/net/sal_socket/src/sal_socket.c:218:5
	cmp	r0, r1
	bge	.LBB2_22
	b	.LBB2_20
.LBB2_20:                               @   in Loop: Header=BB2_19 Depth=1
.Ltmp56:
	.loc	2 220 32 is_stmt 1              @ rt-thread/components/net/sal_socket/src/sal_socket.c:220:32
	ldr	r0, [sp, #156]
	.loc	2 220 47 is_stmt 0              @ rt-thread/components/net/sal_socket/src/sal_socket.c:220:47
	ldr	r1, [sp, #196]
	.loc	2 220 40                        @ rt-thread/components/net/sal_socket/src/sal_socket.c:220:40
	add	r0, r1
	.loc	2 220 32                        @ rt-thread/components/net/sal_socket/src/sal_socket.c:220:32
	ldrb.w	r0, [r0, #33]
	.loc	2 220 56                        @ rt-thread/components/net/sal_socket/src/sal_socket.c:220:56
	ldr	r2, [sp, #64]
	.loc	2 220 54                        @ rt-thread/components/net/sal_socket/src/sal_socket.c:220:54
	add	r0, r2
	add	r2, sp, #140
	.loc	2 220 25                        @ rt-thread/components/net/sal_socket/src/sal_socket.c:220:25
	add	r1, r2
	.loc	2 220 30                        @ rt-thread/components/net/sal_socket/src/sal_socket.c:220:30
	strb	r0, [r1, #1]
	.loc	2 221 5 is_stmt 1               @ rt-thread/components/net/sal_socket/src/sal_socket.c:221:5
	b	.LBB2_21
.Ltmp57:
.LBB2_21:                               @   in Loop: Header=BB2_19 Depth=1
	.loc	2 218 54                        @ rt-thread/components/net/sal_socket/src/sal_socket.c:218:54
	ldr	r0, [sp, #196]
	adds	r0, #1
	str	r0, [sp, #196]
	.loc	2 218 5 is_stmt 0               @ rt-thread/components/net/sal_socket/src/sal_socket.c:218:5
	b	.LBB2_19
.Ltmp58:
.LBB2_22:
	.loc	2 0 5                           @ rt-thread/components/net/sal_socket/src/sal_socket.c:0:5
	movs	r0, #4
	.loc	2 222 18 is_stmt 1              @ rt-thread/components/net/sal_socket/src/sal_socket.c:222:18
	strb.w	r0, [sp, #149]
	movs	r3, #0
	.loc	2 223 19                        @ rt-thread/components/net/sal_socket/src/sal_socket.c:223:19
	str	r3, [sp, #16]                   @ 4-byte Spill
	strb.w	r3, [sp, #150]
	movs	r0, #3
	.loc	2 224 19                        @ rt-thread/components/net/sal_socket/src/sal_socket.c:224:19
	strb.w	r0, [sp, #151]
	.loc	2 226 5                         @ rt-thread/components/net/sal_socket/src/sal_socket.c:226:5
	ldr	r0, [sp, #56]
	.loc	2 226 14 is_stmt 0              @ rt-thread/components/net/sal_socket/src/sal_socket.c:226:14
	ldr.w	r12, [r0, #24]
	.loc	2 226 21                        @ rt-thread/components/net/sal_socket/src/sal_socket.c:226:21
	ldr	r0, [sp, #192]
	.loc	2 226 5                         @ rt-thread/components/net/sal_socket/src/sal_socket.c:226:5
	mov	r2, sp
	movs	r1, #16
	str	r1, [r2, #4]
	add	r1, sp, #172
	str	r1, [sp, #12]                   @ 4-byte Spill
	str	r1, [r2]
	add	r1, sp, #140
	movs	r2, #12
	blx	r12
	ldr	r1, [sp, #12]                   @ 4-byte Reload
	ldr	r3, [sp, #16]                   @ 4-byte Reload
	.loc	2 229 14 is_stmt 1              @ rt-thread/components/net/sal_socket/src/sal_socket.c:229:14
	ldr	r0, [sp, #56]
	.loc	2 229 23 is_stmt 0              @ rt-thread/components/net/sal_socket/src/sal_socket.c:229:23
	ldr.w	r12, [r0, #28]
	.loc	2 229 32                        @ rt-thread/components/net/sal_socket/src/sal_socket.c:229:32
	ldr	r0, [sp, #192]
	.loc	2 229 14                        @ rt-thread/components/net/sal_socket/src/sal_socket.c:229:14
	mov	r2, sp
	add.w	lr, sp, #152
	str.w	lr, [r2, #4]
	str	r1, [r2]
	add.w	r1, sp, #139
	movs	r2, #1
	blx	r12
	.loc	2 229 12                        @ rt-thread/components/net/sal_socket/src/sal_socket.c:229:12
	str	r0, [sp, #188]
.Ltmp59:
	.loc	2 230 9 is_stmt 1               @ rt-thread/components/net/sal_socket/src/sal_socket.c:230:9
	ldr	r0, [sp, #188]
.Ltmp60:
	.loc	2 230 9 is_stmt 0               @ rt-thread/components/net/sal_socket/src/sal_socket.c:230:9
	cmp.w	r0, #-1
	bgt	.LBB2_24
	b	.LBB2_23
.LBB2_23:
.Ltmp61:
	.loc	2 232 9 is_stmt 1               @ rt-thread/components/net/sal_socket/src/sal_socket.c:232:9
	b	.LBB2_27
.Ltmp62:
.LBB2_24:
	.loc	2 235 9                         @ rt-thread/components/net/sal_socket/src/sal_socket.c:235:9
	ldrsb.w	r0, [sp, #139]
.Ltmp63:
	.loc	2 235 9 is_stmt 0               @ rt-thread/components/net/sal_socket/src/sal_socket.c:235:9
	cbnz	r0, .LBB2_26
	b	.LBB2_25
.LBB2_25:
	.loc	2 0 9                           @ rt-thread/components/net/sal_socket/src/sal_socket.c:0:9
	mov.w	r0, #-1
.Ltmp64:
	.loc	2 237 16 is_stmt 1              @ rt-thread/components/net/sal_socket/src/sal_socket.c:237:16
	str	r0, [sp, #188]
	.loc	2 238 9                         @ rt-thread/components/net/sal_socket/src/sal_socket.c:238:9
	b	.LBB2_27
.Ltmp65:
.LBB2_26:
	.loc	2 235 22                        @ rt-thread/components/net/sal_socket/src/sal_socket.c:235:22
	b	.LBB2_27
.Ltmp66:
.LBB2_27:
	@DEBUG_LABEL: check_netdev_internet_up_work:__exit
	.loc	2 242 9                         @ rt-thread/components/net/sal_socket/src/sal_socket.c:242:9
	ldr	r0, [sp, #188]
.Ltmp67:
	.loc	2 242 9 is_stmt 0               @ rt-thread/components/net/sal_socket/src/sal_socket.c:242:9
	cmp	r0, #1
	blt	.LBB2_29
	b	.LBB2_28
.LBB2_28:
.Ltmp68:
	.loc	2 245 9 is_stmt 1               @ rt-thread/components/net/sal_socket/src/sal_socket.c:245:9
	ldr	r1, [sp, #156]
	.loc	2 245 23 is_stmt 0              @ rt-thread/components/net/sal_socket/src/sal_socket.c:245:23
	ldrh	r0, [r1, #42]
	orr	r0, r0, #128
	strh	r0, [r1, #42]
	.loc	2 246 5 is_stmt 1               @ rt-thread/components/net/sal_socket/src/sal_socket.c:246:5
	b	.LBB2_30
.Ltmp69:
.LBB2_29:
	.loc	2 250 9                         @ rt-thread/components/net/sal_socket/src/sal_socket.c:250:9
	ldr	r1, [sp, #156]
	.loc	2 250 23 is_stmt 0              @ rt-thread/components/net/sal_socket/src/sal_socket.c:250:23
	ldrh	r0, [r1, #42]
	bic	r0, r0, #128
	strh	r0, [r1, #42]
	b	.LBB2_30
.Ltmp70:
.LBB2_30:
	.loc	2 253 9 is_stmt 1               @ rt-thread/components/net/sal_socket/src/sal_socket.c:253:9
	ldr	r0, [sp, #192]
.Ltmp71:
	.loc	2 253 9 is_stmt 0               @ rt-thread/components/net/sal_socket/src/sal_socket.c:253:9
	cmp	r0, #0
	bmi	.LBB2_32
	b	.LBB2_31
.LBB2_31:
.Ltmp72:
	.loc	2 255 9 is_stmt 1               @ rt-thread/components/net/sal_socket/src/sal_socket.c:255:9
	ldr	r0, [sp, #56]
	.loc	2 255 18 is_stmt 0              @ rt-thread/components/net/sal_socket/src/sal_socket.c:255:18
	ldr	r1, [r0, #4]
	.loc	2 255 30                        @ rt-thread/components/net/sal_socket/src/sal_socket.c:255:30
	ldr	r0, [sp, #192]
	.loc	2 255 9                         @ rt-thread/components/net/sal_socket/src/sal_socket.c:255:9
	blx	r1
	.loc	2 256 5 is_stmt 1               @ rt-thread/components/net/sal_socket/src/sal_socket.c:256:5
	b	.LBB2_32
.Ltmp73:
.LBB2_32:
	.loc	2 257 1                         @ rt-thread/components/net/sal_socket/src/sal_socket.c:257:1
	add	sp, #208
	pop	{r7, pc}
.Ltmp74:
.Lfunc_end2:
	.size	check_netdev_internet_up_work, .Lfunc_end2-check_netdev_internet_up_work
	.cfi_endproc
	.cantunwind
	.fnend
                                        @ -- End function
	.section	.text.sal_get_socket,"ax",%progbits
	.hidden	sal_get_socket                  @ -- Begin function sal_get_socket
	.globl	sal_get_socket
	.p2align	3
	.type	sal_get_socket,%function
	.code	16                              @ @sal_get_socket
	.thumb_func
sal_get_socket:
.Lfunc_begin3:
	.loc	2 309 0                         @ rt-thread/components/net/sal_socket/src/sal_socket.c:309:0
	.fnstart
	.cfi_startproc
@ %bb.0:
	.save	{r7, lr}
	push	{r7, lr}
	.cfi_def_cfa_offset 8
	.cfi_offset lr, -4
	.cfi_offset r7, -8
	.pad	#16
	sub	sp, #16
	.cfi_def_cfa_offset 24
	str	r0, [sp, #8]
.Ltmp75:
	.loc	2 310 30 prologue_end           @ rt-thread/components/net/sal_socket/src/sal_socket.c:310:30
	movw	r0, :lower16:socket_table
	movt	r0, :upper16:socket_table
	str	r0, [sp, #4]
	.loc	2 312 14                        @ rt-thread/components/net/sal_socket/src/sal_socket.c:312:14
	ldr	r0, [sp, #8]
.Ltmp76:
	.loc	2 314 20                        @ rt-thread/components/net/sal_socket/src/sal_socket.c:314:20
	cmp	r0, #0
	bmi	.LBB3_2
	b	.LBB3_1
.LBB3_1:
	.loc	2 314 23 is_stmt 0              @ rt-thread/components/net/sal_socket/src/sal_socket.c:314:23
	ldr	r0, [sp, #8]
	.loc	2 314 39                        @ rt-thread/components/net/sal_socket/src/sal_socket.c:314:39
	ldr	r1, [sp, #4]
	.loc	2 314 43                        @ rt-thread/components/net/sal_socket/src/sal_socket.c:314:43
	ldr	r1, [r1]
.Ltmp77:
	.loc	2 314 9                         @ rt-thread/components/net/sal_socket/src/sal_socket.c:314:9
	cmp	r0, r1
	blt	.LBB3_3
	b	.LBB3_2
.LBB3_2:
	.loc	2 0 9                           @ rt-thread/components/net/sal_socket/src/sal_socket.c:0:9
	movs	r0, #0
.Ltmp78:
	.loc	2 316 9 is_stmt 1               @ rt-thread/components/net/sal_socket/src/sal_socket.c:316:9
	str	r0, [sp, #12]
	b	.LBB3_6
.Ltmp79:
.LBB3_3:
	.loc	2 320 5                         @ rt-thread/components/net/sal_socket/src/sal_socket.c:320:5
	ldr	r0, [sp, #4]
	ldr	r0, [r0, #4]
	ldr	r1, [sp, #8]
	ldr.w	r0, [r0, r1, lsl #2]
	ldr	r0, [r0]
	movw	r1, #23056
.Ltmp80:
	.loc	2 320 5 is_stmt 0               @ rt-thread/components/net/sal_socket/src/sal_socket.c:320:5
	cmp	r0, r1
	beq	.LBB3_5
	b	.LBB3_4
.LBB3_4:
.Ltmp81:
	.loc	2 320 5                         @ rt-thread/components/net/sal_socket/src/sal_socket.c:320:5
	movw	r0, :lower16:.L.str.9
	movt	r0, :upper16:.L.str.9
	movw	r1, :lower16:.L__FUNCTION__.sal_get_socket
	movt	r1, :upper16:.L__FUNCTION__.sal_get_socket
	mov.w	r2, #320
	bl	rt_assert_handler
	b	.LBB3_5
.Ltmp82:
.LBB3_5:
	.loc	2 322 12 is_stmt 1              @ rt-thread/components/net/sal_socket/src/sal_socket.c:322:12
	ldr	r0, [sp, #4]
	.loc	2 322 16 is_stmt 0              @ rt-thread/components/net/sal_socket/src/sal_socket.c:322:16
	ldr	r0, [r0, #4]
	.loc	2 322 24                        @ rt-thread/components/net/sal_socket/src/sal_socket.c:322:24
	ldr	r1, [sp, #8]
	.loc	2 322 12                        @ rt-thread/components/net/sal_socket/src/sal_socket.c:322:12
	ldr.w	r0, [r0, r1, lsl #2]
	.loc	2 322 5                         @ rt-thread/components/net/sal_socket/src/sal_socket.c:322:5
	str	r0, [sp, #12]
	b	.LBB3_6
.LBB3_6:
	.loc	2 323 1 is_stmt 1               @ rt-thread/components/net/sal_socket/src/sal_socket.c:323:1
	ldr	r0, [sp, #12]
	add	sp, #16
	pop	{r7, pc}
.Ltmp83:
.Lfunc_end3:
	.size	sal_get_socket, .Lfunc_end3-sal_get_socket
	.cfi_endproc
	.cantunwind
	.fnend
                                        @ -- End function
	.section	.text.sal_netdev_cleanup,"ax",%progbits
	.hidden	sal_netdev_cleanup              @ -- Begin function sal_netdev_cleanup
	.globl	sal_netdev_cleanup
	.p2align	3
	.type	sal_netdev_cleanup,%function
	.code	16                              @ @sal_netdev_cleanup
	.thumb_func
sal_netdev_cleanup:
.Lfunc_begin4:
	.loc	2 357 0                         @ rt-thread/components/net/sal_socket/src/sal_socket.c:357:0
	.fnstart
	.cfi_startproc
@ %bb.0:
	.save	{r7, lr}
	push	{r7, lr}
	.cfi_def_cfa_offset 8
	.cfi_offset lr, -4
	.cfi_offset r7, -8
	.pad	#16
	sub	sp, #16
	.cfi_def_cfa_offset 24
	str	r0, [sp, #12]
	movs	r0, #0
.Ltmp84:
	.loc	2 358 9 prologue_end            @ rt-thread/components/net/sal_socket/src/sal_socket.c:358:9
	str	r0, [sp, #8]
	.loc	2 360 5                         @ rt-thread/components/net/sal_socket/src/sal_socket.c:360:5
	b	.LBB4_1
.LBB4_1:                                @ =>This Loop Header: Depth=1
                                        @     Child Loop BB4_2 Depth 2
	.loc	2 0 5 is_stmt 0                 @ rt-thread/components/net/sal_socket/src/sal_socket.c:0:5
	movs	r0, #0
.Ltmp85:
	.loc	2 362 18 is_stmt 1              @ rt-thread/components/net/sal_socket/src/sal_socket.c:362:18
	str	r0, [sp]                        @ 4-byte Spill
	str	r0, [sp, #4]
	.loc	2 363 9                         @ rt-thread/components/net/sal_socket/src/sal_socket.c:363:9
	bl	sal_lock
	ldr	r0, [sp]                        @ 4-byte Reload
.Ltmp86:
	.loc	2 364 18                        @ rt-thread/components/net/sal_socket/src/sal_socket.c:364:18
	str	r0, [sp, #8]
	.loc	2 364 14 is_stmt 0              @ rt-thread/components/net/sal_socket/src/sal_socket.c:364:14
	b	.LBB4_2
.LBB4_2:                                @   Parent Loop BB4_1 Depth=1
                                        @ =>  This Inner Loop Header: Depth=2
.Ltmp87:
	.loc	2 364 23                        @ rt-thread/components/net/sal_socket/src/sal_socket.c:364:23
	ldr	r0, [sp, #8]
	.loc	2 364 42                        @ rt-thread/components/net/sal_socket/src/sal_socket.c:364:42
	movw	r1, :lower16:socket_table
	movt	r1, :upper16:socket_table
	ldr	r1, [r1]
.Ltmp88:
	.loc	2 364 9                         @ rt-thread/components/net/sal_socket/src/sal_socket.c:364:9
	cmp	r0, r1
	bhs	.LBB4_8
	b	.LBB4_3
.LBB4_3:                                @   in Loop: Header=BB4_2 Depth=2
.Ltmp89:
	.loc	2 366 30 is_stmt 1              @ rt-thread/components/net/sal_socket/src/sal_socket.c:366:30
	movw	r0, :lower16:socket_table
	movt	r0, :upper16:socket_table
	ldr	r0, [r0, #4]
	.loc	2 366 38 is_stmt 0              @ rt-thread/components/net/sal_socket/src/sal_socket.c:366:38
	ldr	r1, [sp, #8]
	.loc	2 366 17                        @ rt-thread/components/net/sal_socket/src/sal_socket.c:366:17
	ldr.w	r0, [r0, r1, lsl #2]
	.loc	2 366 43                        @ rt-thread/components/net/sal_socket/src/sal_socket.c:366:43
	cbz	r0, .LBB4_6
	b	.LBB4_4
.LBB4_4:                                @   in Loop: Header=BB4_2 Depth=2
	.loc	2 366 59                        @ rt-thread/components/net/sal_socket/src/sal_socket.c:366:59
	movw	r0, :lower16:socket_table
	movt	r0, :upper16:socket_table
	ldr	r0, [r0, #4]
	.loc	2 366 67                        @ rt-thread/components/net/sal_socket/src/sal_socket.c:366:67
	ldr	r1, [sp, #8]
	.loc	2 366 46                        @ rt-thread/components/net/sal_socket/src/sal_socket.c:366:46
	ldr.w	r0, [r0, r1, lsl #2]
	.loc	2 366 73                        @ rt-thread/components/net/sal_socket/src/sal_socket.c:366:73
	ldr	r0, [r0, #20]
	.loc	2 366 83                        @ rt-thread/components/net/sal_socket/src/sal_socket.c:366:83
	ldr	r1, [sp, #12]
.Ltmp90:
	.loc	2 366 17                        @ rt-thread/components/net/sal_socket/src/sal_socket.c:366:17
	cmp	r0, r1
	bne	.LBB4_6
	b	.LBB4_5
.LBB4_5:                                @   in Loop: Header=BB4_1 Depth=1
	.loc	2 0 17                          @ rt-thread/components/net/sal_socket/src/sal_socket.c:0:17
	movs	r0, #1
.Ltmp91:
	.loc	2 368 26 is_stmt 1              @ rt-thread/components/net/sal_socket/src/sal_socket.c:368:26
	str	r0, [sp, #4]
	.loc	2 369 17                        @ rt-thread/components/net/sal_socket/src/sal_socket.c:369:17
	b	.LBB4_8
.Ltmp92:
.LBB4_6:                                @   in Loop: Header=BB4_2 Depth=2
	.loc	2 371 9                         @ rt-thread/components/net/sal_socket/src/sal_socket.c:371:9
	b	.LBB4_7
.Ltmp93:
.LBB4_7:                                @   in Loop: Header=BB4_2 Depth=2
	.loc	2 364 57                        @ rt-thread/components/net/sal_socket/src/sal_socket.c:364:57
	ldr	r0, [sp, #8]
	adds	r0, #1
	str	r0, [sp, #8]
	.loc	2 364 9 is_stmt 0               @ rt-thread/components/net/sal_socket/src/sal_socket.c:364:9
	b	.LBB4_2
.Ltmp94:
.LBB4_8:                                @   in Loop: Header=BB4_1 Depth=1
	.loc	2 372 9 is_stmt 1               @ rt-thread/components/net/sal_socket/src/sal_socket.c:372:9
	bl	sal_unlock
.Ltmp95:
	.loc	2 373 13                        @ rt-thread/components/net/sal_socket/src/sal_socket.c:373:13
	ldr	r0, [sp, #4]
.Ltmp96:
	.loc	2 373 13 is_stmt 0              @ rt-thread/components/net/sal_socket/src/sal_socket.c:373:13
	cbz	r0, .LBB4_10
	b	.LBB4_9
.LBB4_9:                                @   in Loop: Header=BB4_1 Depth=1
	.loc	2 0 13                          @ rt-thread/components/net/sal_socket/src/sal_socket.c:0:13
	movs	r0, #100
.Ltmp97:
	.loc	2 375 13 is_stmt 1              @ rt-thread/components/net/sal_socket/src/sal_socket.c:375:13
	bl	rt_thread_mdelay
	.loc	2 376 9                         @ rt-thread/components/net/sal_socket/src/sal_socket.c:376:9
	b	.LBB4_10
.Ltmp98:
.LBB4_10:                               @   in Loop: Header=BB4_1 Depth=1
	.loc	2 377 5                         @ rt-thread/components/net/sal_socket/src/sal_socket.c:377:5
	b	.LBB4_11
.Ltmp99:
.LBB4_11:                               @   in Loop: Header=BB4_1 Depth=1
	.loc	2 378 12                        @ rt-thread/components/net/sal_socket/src/sal_socket.c:378:12
	ldr	r0, [sp, #4]
.Ltmp100:
	.loc	2 377 5                         @ rt-thread/components/net/sal_socket/src/sal_socket.c:377:5
	cmp	r0, #0
	bne	.LBB4_1
	b	.LBB4_12
.Ltmp101:
.LBB4_12:
	.loc	2 0 5 is_stmt 0                 @ rt-thread/components/net/sal_socket/src/sal_socket.c:0:5
	movs	r0, #0
	.loc	2 380 5 is_stmt 1               @ rt-thread/components/net/sal_socket/src/sal_socket.c:380:5
	add	sp, #16
	pop	{r7, pc}
.Ltmp102:
.Lfunc_end4:
	.size	sal_netdev_cleanup, .Lfunc_end4-sal_netdev_cleanup
	.cfi_endproc
	.cantunwind
	.fnend
                                        @ -- End function
	.section	.text.sal_lock,"ax",%progbits
	.p2align	3                               @ -- Begin function sal_lock
	.type	sal_lock,%function
	.code	16                              @ @sal_lock
	.thumb_func
sal_lock:
.Lfunc_begin5:
	.loc	2 331 0                         @ rt-thread/components/net/sal_socket/src/sal_socket.c:331:0
	.fnstart
	.cfi_startproc
@ %bb.0:
	.save	{r7, lr}
	push	{r7, lr}
	.cfi_def_cfa_offset 8
	.cfi_offset lr, -4
	.cfi_offset r7, -8
	.pad	#8
	sub	sp, #8
	.cfi_def_cfa_offset 16
.Ltmp103:
	.loc	2 334 14 prologue_end           @ rt-thread/components/net/sal_socket/src/sal_socket.c:334:14
	movw	r0, :lower16:sal_core_lock
	movt	r0, :upper16:sal_core_lock
	mov.w	r1, #-1
	bl	rt_mutex_take
	.loc	2 334 12 is_stmt 0              @ rt-thread/components/net/sal_socket/src/sal_socket.c:334:12
	str	r0, [sp, #4]
.Ltmp104:
	.loc	2 335 9 is_stmt 1               @ rt-thread/components/net/sal_socket/src/sal_socket.c:335:9
	ldr	r0, [sp, #4]
.Ltmp105:
	.loc	2 335 9 is_stmt 0               @ rt-thread/components/net/sal_socket/src/sal_socket.c:335:9
	cbz	r0, .LBB5_2
	b	.LBB5_1
.LBB5_1:
.Ltmp106:
	.loc	2 337 9 is_stmt 1               @ rt-thread/components/net/sal_socket/src/sal_socket.c:337:9
	movw	r0, :lower16:.L.str.16
	movt	r0, :upper16:.L.str.16
	movw	r1, :lower16:.L.str.3
	movt	r1, :upper16:.L.str.3
	movw	r2, #337
	bl	rt_assert_handler
.Ltmp107:
	.loc	2 338 5                         @ rt-thread/components/net/sal_socket/src/sal_socket.c:338:5
	b	.LBB5_2
.Ltmp108:
.LBB5_2:
	.loc	2 339 1                         @ rt-thread/components/net/sal_socket/src/sal_socket.c:339:1
	add	sp, #8
	pop	{r7, pc}
.Ltmp109:
.Lfunc_end5:
	.size	sal_lock, .Lfunc_end5-sal_lock
	.cfi_endproc
	.cantunwind
	.fnend
                                        @ -- End function
	.section	.text.sal_unlock,"ax",%progbits
	.p2align	3                               @ -- Begin function sal_unlock
	.type	sal_unlock,%function
	.code	16                              @ @sal_unlock
	.thumb_func
sal_unlock:
.Lfunc_begin6:
	.loc	2 347 0                         @ rt-thread/components/net/sal_socket/src/sal_socket.c:347:0
	.fnstart
	.cfi_startproc
@ %bb.0:
	.save	{r7, lr}
	push	{r7, lr}
	.cfi_def_cfa_offset 8
	.cfi_offset lr, -4
	.cfi_offset r7, -8
.Ltmp110:
	.loc	2 348 5 prologue_end            @ rt-thread/components/net/sal_socket/src/sal_socket.c:348:5
	movw	r0, :lower16:sal_core_lock
	movt	r0, :upper16:sal_core_lock
	bl	rt_mutex_release
	.loc	2 349 1                         @ rt-thread/components/net/sal_socket/src/sal_socket.c:349:1
	pop	{r7, pc}
.Ltmp111:
.Lfunc_end6:
	.size	sal_unlock, .Lfunc_end6-sal_unlock
	.cfi_endproc
	.cantunwind
	.fnend
                                        @ -- End function
	.section	.text.sal_accept,"ax",%progbits
	.hidden	sal_accept                      @ -- Begin function sal_accept
	.globl	sal_accept
	.p2align	3
	.type	sal_accept,%function
	.code	16                              @ @sal_accept
	.thumb_func
sal_accept:
.Lfunc_begin7:
	.loc	2 560 0                         @ rt-thread/components/net/sal_socket/src/sal_socket.c:560:0
	.fnstart
	.cfi_startproc
@ %bb.0:
	.save	{r7, lr}
	push	{r7, lr}
	.cfi_def_cfa_offset 8
	.cfi_offset lr, -4
	.cfi_offset r7, -8
	.pad	#40
	sub	sp, #40
	.cfi_def_cfa_offset 48
	str	r0, [sp, #32]
	str	r1, [sp, #28]
	str	r2, [sp, #24]
.Ltmp112:
	.loc	2 566 5 prologue_end            @ rt-thread/components/net/sal_socket/src/sal_socket.c:566:5
	b	.LBB7_1
.LBB7_1:
.Ltmp113:
	.loc	2 566 5 is_stmt 0               @ rt-thread/components/net/sal_socket/src/sal_socket.c:566:5
	ldr	r0, [sp, #32]
	bl	sal_get_socket
	str	r0, [sp, #16]
.Ltmp114:
	.loc	2 566 5                         @ rt-thread/components/net/sal_socket/src/sal_socket.c:566:5
	ldr	r0, [sp, #16]
.Ltmp115:
	.loc	2 566 5                         @ rt-thread/components/net/sal_socket/src/sal_socket.c:566:5
	cbnz	r0, .LBB7_3
	b	.LBB7_2
.LBB7_2:
	.loc	2 0 5                           @ rt-thread/components/net/sal_socket/src/sal_socket.c:0:5
	mov.w	r0, #-1
.Ltmp116:
	.loc	2 566 5                         @ rt-thread/components/net/sal_socket/src/sal_socket.c:566:5
	str	r0, [sp, #36]
	b	.LBB7_23
.Ltmp117:
.LBB7_3:
	.loc	2 566 5                         @ rt-thread/components/net/sal_socket/src/sal_socket.c:566:5
	b	.LBB7_4
.Ltmp118:
.LBB7_4:
	.loc	2 569 5 is_stmt 1               @ rt-thread/components/net/sal_socket/src/sal_socket.c:569:5
	b	.LBB7_5
.LBB7_5:
.Ltmp119:
	.loc	2 569 5 is_stmt 0               @ rt-thread/components/net/sal_socket/src/sal_socket.c:569:5
	ldr	r0, [sp, #16]
	ldr	r0, [r0, #20]
	ldrh	r0, [r0, #42]
.Ltmp120:
	.loc	2 569 5                         @ rt-thread/components/net/sal_socket/src/sal_socket.c:569:5
	lsls	r0, r0, #31
	cbz	r0, .LBB7_7
	b	.LBB7_6
.LBB7_6:
	.loc	2 0 5                           @ rt-thread/components/net/sal_socket/src/sal_socket.c:0:5
	movs	r0, #1
.Ltmp121:
	.loc	2 569 5                         @ rt-thread/components/net/sal_socket/src/sal_socket.c:569:5
	cbnz	r0, .LBB7_9
	b	.LBB7_8
.Ltmp122:
.LBB7_7:
	.loc	2 0 5                           @ rt-thread/components/net/sal_socket/src/sal_socket.c:0:5
	movs	r0, #0
	.loc	2 569 5                         @ rt-thread/components/net/sal_socket/src/sal_socket.c:569:5
	cbnz	r0, .LBB7_9
	b	.LBB7_8
.LBB7_8:
	.loc	2 0 5                           @ rt-thread/components/net/sal_socket/src/sal_socket.c:0:5
	mov.w	r0, #-1
.Ltmp123:
	.loc	2 569 5                         @ rt-thread/components/net/sal_socket/src/sal_socket.c:569:5
	str	r0, [sp, #36]
	b	.LBB7_23
.Ltmp124:
.LBB7_9:
	.loc	2 569 5                         @ rt-thread/components/net/sal_socket/src/sal_socket.c:569:5
	b	.LBB7_10
.Ltmp125:
.LBB7_10:
	.loc	2 572 5 is_stmt 1               @ rt-thread/components/net/sal_socket/src/sal_socket.c:572:5
	b	.LBB7_11
.LBB7_11:
.Ltmp126:
	.loc	2 572 5 is_stmt 0               @ rt-thread/components/net/sal_socket/src/sal_socket.c:572:5
	ldr	r0, [sp, #16]
	ldr	r0, [r0, #20]
	ldr	r0, [r0, #60]
	str	r0, [sp, #12]
.Ltmp127:
	.loc	2 572 5                         @ rt-thread/components/net/sal_socket/src/sal_socket.c:572:5
	ldr	r0, [sp, #12]
	ldr	r0, [r0, #8]
	ldr	r0, [r0, #20]
.Ltmp128:
	.loc	2 572 5                         @ rt-thread/components/net/sal_socket/src/sal_socket.c:572:5
	cbnz	r0, .LBB7_13
	b	.LBB7_12
.LBB7_12:
	.loc	2 0 5                           @ rt-thread/components/net/sal_socket/src/sal_socket.c:0:5
	mov.w	r0, #-1
.Ltmp129:
	.loc	2 572 5                         @ rt-thread/components/net/sal_socket/src/sal_socket.c:572:5
	str	r0, [sp, #36]
	b	.LBB7_23
.Ltmp130:
.LBB7_13:
	.loc	2 572 5                         @ rt-thread/components/net/sal_socket/src/sal_socket.c:572:5
	b	.LBB7_14
.Ltmp131:
.LBB7_14:
	.loc	2 574 18 is_stmt 1              @ rt-thread/components/net/sal_socket/src/sal_socket.c:574:18
	ldr	r0, [sp, #12]
	.loc	2 574 22 is_stmt 0              @ rt-thread/components/net/sal_socket/src/sal_socket.c:574:22
	ldr	r0, [r0, #8]
	.loc	2 574 31                        @ rt-thread/components/net/sal_socket/src/sal_socket.c:574:31
	ldr	r3, [r0, #20]
	.loc	2 574 44                        @ rt-thread/components/net/sal_socket/src/sal_socket.c:574:44
	ldr	r0, [sp, #16]
	.loc	2 574 50                        @ rt-thread/components/net/sal_socket/src/sal_socket.c:574:50
	ldr	r0, [r0, #24]
	.loc	2 574 61                        @ rt-thread/components/net/sal_socket/src/sal_socket.c:574:61
	ldr	r1, [sp, #28]
	.loc	2 574 67                        @ rt-thread/components/net/sal_socket/src/sal_socket.c:574:67
	ldr	r2, [sp, #24]
	.loc	2 574 18                        @ rt-thread/components/net/sal_socket/src/sal_socket.c:574:18
	blx	r3
	.loc	2 574 16                        @ rt-thread/components/net/sal_socket/src/sal_socket.c:574:16
	str	r0, [sp, #20]
.Ltmp132:
	.loc	2 575 9 is_stmt 1               @ rt-thread/components/net/sal_socket/src/sal_socket.c:575:9
	ldr	r0, [sp, #20]
.Ltmp133:
	.loc	2 575 9 is_stmt 0               @ rt-thread/components/net/sal_socket/src/sal_socket.c:575:9
	adds	r0, #1
	cmp	r0, #0
	beq	.LBB7_22
	b	.LBB7_15
.LBB7_15:
.Ltmp134:
	.loc	2 582 26 is_stmt 1              @ rt-thread/components/net/sal_socket/src/sal_socket.c:582:26
	bl	socket_new
	.loc	2 582 24 is_stmt 0              @ rt-thread/components/net/sal_socket/src/sal_socket.c:582:24
	str	r0, [sp, #4]
	.loc	2 583 35 is_stmt 1              @ rt-thread/components/net/sal_socket/src/sal_socket.c:583:35
	ldr	r0, [sp, #4]
	.loc	2 583 20 is_stmt 0              @ rt-thread/components/net/sal_socket/src/sal_socket.c:583:20
	bl	sal_get_socket
	.loc	2 583 18                        @ rt-thread/components/net/sal_socket/src/sal_socket.c:583:18
	str	r0, [sp]
.Ltmp135:
	.loc	2 584 13 is_stmt 1              @ rt-thread/components/net/sal_socket/src/sal_socket.c:584:13
	ldr	r0, [sp]
.Ltmp136:
	.loc	2 584 13 is_stmt 0              @ rt-thread/components/net/sal_socket/src/sal_socket.c:584:13
	cbnz	r0, .LBB7_17
	b	.LBB7_16
.LBB7_16:
.Ltmp137:
	.loc	2 586 13 is_stmt 1              @ rt-thread/components/net/sal_socket/src/sal_socket.c:586:13
	ldr	r0, [sp, #12]
	.loc	2 586 17 is_stmt 0              @ rt-thread/components/net/sal_socket/src/sal_socket.c:586:17
	ldr	r0, [r0, #8]
	.loc	2 586 26                        @ rt-thread/components/net/sal_socket/src/sal_socket.c:586:26
	ldr	r1, [r0, #4]
	.loc	2 586 38                        @ rt-thread/components/net/sal_socket/src/sal_socket.c:586:38
	ldr	r0, [sp, #20]
	.loc	2 586 13                        @ rt-thread/components/net/sal_socket/src/sal_socket.c:586:13
	blx	r1
	mov.w	r0, #-1
	.loc	2 587 13 is_stmt 1              @ rt-thread/components/net/sal_socket/src/sal_socket.c:587:13
	str	r0, [sp, #36]
	b	.LBB7_23
.Ltmp138:
.LBB7_17:
	.loc	2 590 30                        @ rt-thread/components/net/sal_socket/src/sal_socket.c:590:30
	ldr	r2, [sp, #16]
	.loc	2 590 36 is_stmt 0              @ rt-thread/components/net/sal_socket/src/sal_socket.c:590:36
	ldr	r0, [r2, #8]
	.loc	2 590 50                        @ rt-thread/components/net/sal_socket/src/sal_socket.c:590:50
	ldr	r1, [r2, #12]
	.loc	2 590 62                        @ rt-thread/components/net/sal_socket/src/sal_socket.c:590:62
	ldr	r2, [r2, #16]
	mov	r3, sp
	.loc	2 590 18                        @ rt-thread/components/net/sal_socket/src/sal_socket.c:590:18
	bl	socket_init
	.loc	2 590 16                        @ rt-thread/components/net/sal_socket/src/sal_socket.c:590:16
	str	r0, [sp, #8]
.Ltmp139:
	.loc	2 591 13 is_stmt 1              @ rt-thread/components/net/sal_socket/src/sal_socket.c:591:13
	ldr	r0, [sp, #8]
.Ltmp140:
	.loc	2 591 13 is_stmt 0              @ rt-thread/components/net/sal_socket/src/sal_socket.c:591:13
	cmp.w	r0, #-1
	bgt	.LBB7_21
	b	.LBB7_18
.LBB7_18:
.Ltmp141:
	.loc	2 593 13 is_stmt 1              @ rt-thread/components/net/sal_socket/src/sal_socket.c:593:13
	ldr	r0, [sp, #12]
	.loc	2 593 17 is_stmt 0              @ rt-thread/components/net/sal_socket/src/sal_socket.c:593:17
	ldr	r0, [r0, #8]
	.loc	2 593 26                        @ rt-thread/components/net/sal_socket/src/sal_socket.c:593:26
	ldr	r1, [r0, #4]
	.loc	2 593 38                        @ rt-thread/components/net/sal_socket/src/sal_socket.c:593:38
	ldr	r0, [sp, #20]
	.loc	2 593 13                        @ rt-thread/components/net/sal_socket/src/sal_socket.c:593:13
	blx	r1
	.loc	2 594 23 is_stmt 1              @ rt-thread/components/net/sal_socket/src/sal_socket.c:594:23
	ldr	r0, [sp]
	movs	r1, #0
	movs	r2, #28
	.loc	2 594 13 is_stmt 0              @ rt-thread/components/net/sal_socket/src/sal_socket.c:594:13
	bl	rt_memset
	.loc	2 596 27 is_stmt 1              @ rt-thread/components/net/sal_socket/src/sal_socket.c:596:27
	ldr	r0, [sp, #4]
	.loc	2 596 13 is_stmt 0              @ rt-thread/components/net/sal_socket/src/sal_socket.c:596:13
	bl	socket_delete
	.loc	2 597 13 is_stmt 1              @ rt-thread/components/net/sal_socket/src/sal_socket.c:597:13
	b	.LBB7_19
.LBB7_19:
.Ltmp142:
	.loc	2 597 13 is_stmt 0              @ rt-thread/components/net/sal_socket/src/sal_socket.c:597:13
	movw	r0, :lower16:.L.str
	movt	r0, :upper16:.L.str
	bl	rt_kprintf
	ldr	r1, [sp, #8]
	movw	r0, :lower16:.L.str.10
	movt	r0, :upper16:.L.str.10
	bl	rt_kprintf
	movw	r0, :lower16:.L.str.2
	movt	r0, :upper16:.L.str.2
	bl	rt_kprintf
	b	.LBB7_20
.Ltmp143:
.LBB7_20:
	.loc	2 0 13                          @ rt-thread/components/net/sal_socket/src/sal_socket.c:0:13
	mov.w	r0, #-1
	.loc	2 598 13 is_stmt 1              @ rt-thread/components/net/sal_socket/src/sal_socket.c:598:13
	str	r0, [sp, #36]
	b	.LBB7_23
.Ltmp144:
.LBB7_21:
	.loc	2 602 40                        @ rt-thread/components/net/sal_socket/src/sal_socket.c:602:40
	ldr	r0, [sp, #20]
	.loc	2 602 9 is_stmt 0               @ rt-thread/components/net/sal_socket/src/sal_socket.c:602:9
	ldr	r1, [sp]
	.loc	2 602 29                        @ rt-thread/components/net/sal_socket/src/sal_socket.c:602:29
	str	r0, [r1, #24]
	.loc	2 604 16 is_stmt 1              @ rt-thread/components/net/sal_socket/src/sal_socket.c:604:16
	ldr	r0, [sp, #4]
	.loc	2 604 9 is_stmt 0               @ rt-thread/components/net/sal_socket/src/sal_socket.c:604:9
	str	r0, [sp, #36]
	b	.LBB7_23
.Ltmp145:
.LBB7_22:
	.loc	2 0 9                           @ rt-thread/components/net/sal_socket/src/sal_socket.c:0:9
	mov.w	r0, #-1
	.loc	2 607 5 is_stmt 1               @ rt-thread/components/net/sal_socket/src/sal_socket.c:607:5
	str	r0, [sp, #36]
	b	.LBB7_23
.LBB7_23:
	.loc	2 608 1                         @ rt-thread/components/net/sal_socket/src/sal_socket.c:608:1
	ldr	r0, [sp, #36]
	add	sp, #40
	pop	{r7, pc}
.Ltmp146:
.Lfunc_end7:
	.size	sal_accept, .Lfunc_end7-sal_accept
	.cfi_endproc
	.cantunwind
	.fnend
                                        @ -- End function
	.section	.text.socket_new,"ax",%progbits
	.p2align	3                               @ -- Begin function socket_new
	.type	socket_new,%function
	.code	16                              @ @socket_new
	.thumb_func
socket_new:
.Lfunc_begin8:
	.loc	2 508 0                         @ rt-thread/components/net/sal_socket/src/sal_socket.c:508:0
	.fnstart
	.cfi_startproc
@ %bb.0:
	.save	{r7, lr}
	push	{r7, lr}
	.cfi_def_cfa_offset 8
	.cfi_offset lr, -4
	.cfi_offset r7, -8
	.pad	#16
	sub	sp, #16
	.cfi_def_cfa_offset 24
.Ltmp147:
	.loc	2 510 30 prologue_end           @ rt-thread/components/net/sal_socket/src/sal_socket.c:510:30
	movw	r0, :lower16:socket_table
	movt	r0, :upper16:socket_table
	str	r0, [sp, #8]
	.loc	2 513 5                         @ rt-thread/components/net/sal_socket/src/sal_socket.c:513:5
	bl	sal_lock
	.loc	2 516 24                        @ rt-thread/components/net/sal_socket/src/sal_socket.c:516:24
	ldr	r0, [sp, #8]
	movs	r1, #0
	.loc	2 516 11 is_stmt 0              @ rt-thread/components/net/sal_socket/src/sal_socket.c:516:11
	bl	socket_alloc
	.loc	2 516 9                         @ rt-thread/components/net/sal_socket/src/sal_socket.c:516:9
	str	r0, [sp, #4]
.Ltmp148:
	.loc	2 519 9 is_stmt 1               @ rt-thread/components/net/sal_socket/src/sal_socket.c:519:9
	ldr	r0, [sp, #4]
	.loc	2 519 22 is_stmt 0              @ rt-thread/components/net/sal_socket/src/sal_socket.c:519:22
	ldr	r1, [sp, #8]
	.loc	2 519 26                        @ rt-thread/components/net/sal_socket/src/sal_socket.c:519:26
	ldr	r1, [r1]
.Ltmp149:
	.loc	2 519 9                         @ rt-thread/components/net/sal_socket/src/sal_socket.c:519:9
	cmp	r0, r1
	bne	.LBB8_2
	b	.LBB8_1
.LBB8_1:
	.loc	2 0 9                           @ rt-thread/components/net/sal_socket/src/sal_socket.c:0:9
	mov.w	r0, #-1
.Ltmp150:
	.loc	2 521 13 is_stmt 1              @ rt-thread/components/net/sal_socket/src/sal_socket.c:521:13
	str	r0, [sp, #4]
	.loc	2 522 9                         @ rt-thread/components/net/sal_socket/src/sal_socket.c:522:9
	b	.LBB8_3
.Ltmp151:
.LBB8_2:
	.loc	2 525 12                        @ rt-thread/components/net/sal_socket/src/sal_socket.c:525:12
	ldr	r0, [sp, #8]
	.loc	2 525 16 is_stmt 0              @ rt-thread/components/net/sal_socket/src/sal_socket.c:525:16
	ldr	r0, [r0, #4]
	.loc	2 525 24                        @ rt-thread/components/net/sal_socket/src/sal_socket.c:525:24
	ldr	r1, [sp, #4]
	.loc	2 525 12                        @ rt-thread/components/net/sal_socket/src/sal_socket.c:525:12
	ldr.w	r0, [r0, r1, lsl #2]
	.loc	2 525 10                        @ rt-thread/components/net/sal_socket/src/sal_socket.c:525:10
	str	r0, [sp, #12]
	.loc	2 526 20 is_stmt 1              @ rt-thread/components/net/sal_socket/src/sal_socket.c:526:20
	ldr	r0, [sp, #4]
	.loc	2 526 5 is_stmt 0               @ rt-thread/components/net/sal_socket/src/sal_socket.c:526:5
	ldr	r1, [sp, #12]
	.loc	2 526 18                        @ rt-thread/components/net/sal_socket/src/sal_socket.c:526:18
	str	r0, [r1, #4]
	.loc	2 527 5 is_stmt 1               @ rt-thread/components/net/sal_socket/src/sal_socket.c:527:5
	ldr	r1, [sp, #12]
	movw	r0, #23056
	.loc	2 527 17 is_stmt 0              @ rt-thread/components/net/sal_socket/src/sal_socket.c:527:17
	str	r0, [r1]
	.loc	2 528 5 is_stmt 1               @ rt-thread/components/net/sal_socket/src/sal_socket.c:528:5
	ldr	r1, [sp, #12]
	movs	r0, #0
	.loc	2 528 18 is_stmt 0              @ rt-thread/components/net/sal_socket/src/sal_socket.c:528:18
	str	r0, [r1, #20]
	.loc	2 529 5 is_stmt 1               @ rt-thread/components/net/sal_socket/src/sal_socket.c:529:5
	ldr	r1, [sp, #12]
	.loc	2 529 21 is_stmt 0              @ rt-thread/components/net/sal_socket/src/sal_socket.c:529:21
	str	r0, [r1, #24]
	.loc	2 529 5                         @ rt-thread/components/net/sal_socket/src/sal_socket.c:529:5
	b	.LBB8_3
.LBB8_3:
.Ltmp152:
	@DEBUG_LABEL: socket_new:__result
	.loc	2 535 5 is_stmt 1               @ rt-thread/components/net/sal_socket/src/sal_socket.c:535:5
	bl	sal_unlock
	.loc	2 536 12                        @ rt-thread/components/net/sal_socket/src/sal_socket.c:536:12
	ldr	r0, [sp, #4]
	.loc	2 536 5 is_stmt 0               @ rt-thread/components/net/sal_socket/src/sal_socket.c:536:5
	add	sp, #16
	pop	{r7, pc}
.Ltmp153:
.Lfunc_end8:
	.size	socket_new, .Lfunc_end8-socket_new
	.cfi_endproc
	.cantunwind
	.fnend
                                        @ -- End function
	.section	.text.socket_init,"ax",%progbits
	.p2align	3                               @ -- Begin function socket_init
	.type	socket_init,%function
	.code	16                              @ @socket_init
	.thumb_func
socket_init:
.Lfunc_begin9:
	.loc	2 397 0 is_stmt 1               @ rt-thread/components/net/sal_socket/src/sal_socket.c:397:0
	.fnstart
	.cfi_startproc
@ %bb.0:
	.save	{r7, lr}
	push	{r7, lr}
	.cfi_def_cfa_offset 8
	.cfi_offset lr, -4
	.cfi_offset r7, -8
	.pad	#40
	sub	sp, #40
	.cfi_def_cfa_offset 48
	str	r0, [sp, #32]
	str	r1, [sp, #28]
	str	r2, [sp, #24]
	str	r3, [sp, #20]
.Ltmp154:
	.loc	2 401 32 prologue_end           @ rt-thread/components/net/sal_socket/src/sal_socket.c:401:32
	movw	r0, :lower16:netdev_default
	movt	r0, :upper16:netdev_default
	ldr	r0, [r0]
	.loc	2 401 20 is_stmt 0              @ rt-thread/components/net/sal_socket/src/sal_socket.c:401:20
	str	r0, [sp, #8]
	movs	r0, #0
	.loc	2 402 20 is_stmt 1              @ rt-thread/components/net/sal_socket/src/sal_socket.c:402:20
	str	r0, [sp, #4]
	.loc	2 403 15                        @ rt-thread/components/net/sal_socket/src/sal_socket.c:403:15
	str	r0, [sp]
.Ltmp155:
	.loc	2 405 9                         @ rt-thread/components/net/sal_socket/src/sal_socket.c:405:9
	ldr	r0, [sp, #32]
	.loc	2 405 20 is_stmt 0              @ rt-thread/components/net/sal_socket/src/sal_socket.c:405:20
	cmp	r0, #0
	bmi	.LBB9_2
	b	.LBB9_1
.LBB9_1:
	.loc	2 405 23                        @ rt-thread/components/net/sal_socket/src/sal_socket.c:405:23
	ldr	r0, [sp, #32]
.Ltmp156:
	.loc	2 405 9                         @ rt-thread/components/net/sal_socket/src/sal_socket.c:405:9
	cmp	r0, #48
	blt	.LBB9_3
	b	.LBB9_2
.LBB9_2:
	.loc	2 0 9                           @ rt-thread/components/net/sal_socket/src/sal_socket.c:0:9
	mov.w	r0, #-1
.Ltmp157:
	.loc	2 407 9 is_stmt 1               @ rt-thread/components/net/sal_socket/src/sal_socket.c:407:9
	str	r0, [sp, #36]
	b	.LBB9_23
.Ltmp158:
.LBB9_3:
	.loc	2 410 9                         @ rt-thread/components/net/sal_socket/src/sal_socket.c:410:9
	ldr	r0, [sp, #28]
	.loc	2 410 18 is_stmt 0              @ rt-thread/components/net/sal_socket/src/sal_socket.c:410:18
	cmp	r0, #0
	bmi	.LBB9_5
	b	.LBB9_4
.LBB9_4:
	.loc	2 410 21                        @ rt-thread/components/net/sal_socket/src/sal_socket.c:410:21
	ldr	r0, [sp, #28]
.Ltmp159:
	.loc	2 410 9                         @ rt-thread/components/net/sal_socket/src/sal_socket.c:410:9
	cmp	r0, #5
	blt	.LBB9_6
	b	.LBB9_5
.LBB9_5:
	.loc	2 0 9                           @ rt-thread/components/net/sal_socket/src/sal_socket.c:0:9
	mvn	r0, #1
.Ltmp160:
	.loc	2 412 9 is_stmt 1               @ rt-thread/components/net/sal_socket/src/sal_socket.c:412:9
	str	r0, [sp, #36]
	b	.LBB9_23
.Ltmp161:
.LBB9_6:
	.loc	2 415 13                        @ rt-thread/components/net/sal_socket/src/sal_socket.c:415:13
	ldr	r0, [sp, #20]
	.loc	2 415 12 is_stmt 0              @ rt-thread/components/net/sal_socket/src/sal_socket.c:415:12
	ldr	r0, [r0]
	.loc	2 415 10                        @ rt-thread/components/net/sal_socket/src/sal_socket.c:415:10
	str	r0, [sp, #16]
	.loc	2 416 20 is_stmt 1              @ rt-thread/components/net/sal_socket/src/sal_socket.c:416:20
	ldr	r0, [sp, #32]
	.loc	2 416 5 is_stmt 0               @ rt-thread/components/net/sal_socket/src/sal_socket.c:416:5
	ldr	r1, [sp, #16]
	.loc	2 416 18                        @ rt-thread/components/net/sal_socket/src/sal_socket.c:416:18
	str	r0, [r1, #8]
	.loc	2 417 18 is_stmt 1              @ rt-thread/components/net/sal_socket/src/sal_socket.c:417:18
	ldr	r0, [sp, #28]
	.loc	2 417 5 is_stmt 0               @ rt-thread/components/net/sal_socket/src/sal_socket.c:417:5
	ldr	r1, [sp, #16]
	.loc	2 417 16                        @ rt-thread/components/net/sal_socket/src/sal_socket.c:417:16
	str	r0, [r1, #12]
	.loc	2 418 22 is_stmt 1              @ rt-thread/components/net/sal_socket/src/sal_socket.c:418:22
	ldr	r0, [sp, #24]
	.loc	2 418 5 is_stmt 0               @ rt-thread/components/net/sal_socket/src/sal_socket.c:418:5
	ldr	r1, [sp, #16]
	.loc	2 418 20                        @ rt-thread/components/net/sal_socket/src/sal_socket.c:418:20
	str	r0, [r1, #16]
.Ltmp162:
	.loc	2 420 9 is_stmt 1               @ rt-thread/components/net/sal_socket/src/sal_socket.c:420:9
	ldr	r0, [sp, #8]
	.loc	2 420 19 is_stmt 0              @ rt-thread/components/net/sal_socket/src/sal_socket.c:420:19
	cbz	r0, .LBB9_16
	b	.LBB9_7
.LBB9_7:
	.loc	2 420 22                        @ rt-thread/components/net/sal_socket/src/sal_socket.c:420:22
	ldr	r0, [sp, #8]
	ldrh	r0, [r0, #42]
.Ltmp163:
	.loc	2 420 9                         @ rt-thread/components/net/sal_socket/src/sal_socket.c:420:9
	lsls	r0, r0, #31
	cbz	r0, .LBB9_9
	b	.LBB9_8
.LBB9_8:
	.loc	2 0 9                           @ rt-thread/components/net/sal_socket/src/sal_socket.c:0:9
	movs	r0, #1
.Ltmp164:
	.loc	2 420 22                        @ rt-thread/components/net/sal_socket/src/sal_socket.c:420:22
	cbnz	r0, .LBB9_10
	b	.LBB9_16
.Ltmp165:
.LBB9_9:
	.loc	2 0 22                          @ rt-thread/components/net/sal_socket/src/sal_socket.c:0:22
	movs	r0, #1
	.loc	2 420 9                         @ rt-thread/components/net/sal_socket/src/sal_socket.c:420:9
	cbnz	r0, .LBB9_16
	b	.LBB9_10
.LBB9_10:
.Ltmp166:
	.loc	2 423 42 is_stmt 1              @ rt-thread/components/net/sal_socket/src/sal_socket.c:423:42
	ldr	r0, [sp, #8]
	.loc	2 423 53 is_stmt 0              @ rt-thread/components/net/sal_socket/src/sal_socket.c:423:53
	ldr	r0, [r0, #60]
	.loc	2 423 12                        @ rt-thread/components/net/sal_socket/src/sal_socket.c:423:12
	str	r0, [sp, #12]
.Ltmp167:
	.loc	2 424 13 is_stmt 1              @ rt-thread/components/net/sal_socket/src/sal_socket.c:424:13
	ldr	r0, [sp, #12]
	.loc	2 424 27 is_stmt 0              @ rt-thread/components/net/sal_socket/src/sal_socket.c:424:27
	cbz	r0, .LBB9_15
	b	.LBB9_11
.LBB9_11:
	.loc	2 424 30                        @ rt-thread/components/net/sal_socket/src/sal_socket.c:424:30
	ldr	r0, [sp, #12]
	.loc	2 424 34                        @ rt-thread/components/net/sal_socket/src/sal_socket.c:424:34
	ldr	r0, [r0, #8]
	.loc	2 424 42                        @ rt-thread/components/net/sal_socket/src/sal_socket.c:424:42
	cbz	r0, .LBB9_15
	b	.LBB9_12
.LBB9_12:
	.loc	2 424 46                        @ rt-thread/components/net/sal_socket/src/sal_socket.c:424:46
	ldr	r0, [sp, #12]
	.loc	2 424 50                        @ rt-thread/components/net/sal_socket/src/sal_socket.c:424:50
	ldr	r0, [r0]
	.loc	2 424 60                        @ rt-thread/components/net/sal_socket/src/sal_socket.c:424:60
	ldr	r1, [sp, #32]
	.loc	2 424 67                        @ rt-thread/components/net/sal_socket/src/sal_socket.c:424:67
	cmp	r0, r1
	beq	.LBB9_14
	b	.LBB9_13
.LBB9_13:
	.loc	2 424 70                        @ rt-thread/components/net/sal_socket/src/sal_socket.c:424:70
	ldr	r0, [sp, #12]
	.loc	2 424 74                        @ rt-thread/components/net/sal_socket/src/sal_socket.c:424:74
	ldr	r0, [r0, #4]
	.loc	2 424 88                        @ rt-thread/components/net/sal_socket/src/sal_socket.c:424:88
	ldr	r1, [sp, #32]
.Ltmp168:
	.loc	2 424 13                        @ rt-thread/components/net/sal_socket/src/sal_socket.c:424:13
	cmp	r0, r1
	bne	.LBB9_15
	b	.LBB9_14
.LBB9_14:
.Ltmp169:
	.loc	2 426 28 is_stmt 1              @ rt-thread/components/net/sal_socket/src/sal_socket.c:426:28
	ldr	r0, [sp, #8]
	.loc	2 426 13 is_stmt 0              @ rt-thread/components/net/sal_socket/src/sal_socket.c:426:13
	ldr	r1, [sp, #16]
	.loc	2 426 26                        @ rt-thread/components/net/sal_socket/src/sal_socket.c:426:26
	str	r0, [r1, #20]
	movs	r0, #1
	.loc	2 427 18 is_stmt 1              @ rt-thread/components/net/sal_socket/src/sal_socket.c:427:18
	str	r0, [sp]
	.loc	2 428 9                         @ rt-thread/components/net/sal_socket/src/sal_socket.c:428:9
	b	.LBB9_15
.Ltmp170:
.LBB9_15:
	.loc	2 429 5                         @ rt-thread/components/net/sal_socket/src/sal_socket.c:429:5
	b	.LBB9_16
.Ltmp171:
.LBB9_16:
	.loc	2 431 9                         @ rt-thread/components/net/sal_socket/src/sal_socket.c:431:9
	ldr	r0, [sp]
.Ltmp172:
	.loc	2 431 9 is_stmt 0               @ rt-thread/components/net/sal_socket/src/sal_socket.c:431:9
	cbnz	r0, .LBB9_22
	b	.LBB9_17
.LBB9_17:
.Ltmp173:
	.loc	2 434 39 is_stmt 1              @ rt-thread/components/net/sal_socket/src/sal_socket.c:434:39
	ldr	r0, [sp, #32]
	.loc	2 434 18 is_stmt 0              @ rt-thread/components/net/sal_socket/src/sal_socket.c:434:18
	bl	netdev_get_by_family
	.loc	2 434 16                        @ rt-thread/components/net/sal_socket/src/sal_socket.c:434:16
	str	r0, [sp, #4]
.Ltmp174:
	.loc	2 435 13 is_stmt 1              @ rt-thread/components/net/sal_socket/src/sal_socket.c:435:13
	ldr	r0, [sp, #4]
.Ltmp175:
	.loc	2 435 13 is_stmt 0              @ rt-thread/components/net/sal_socket/src/sal_socket.c:435:13
	cbnz	r0, .LBB9_21
	b	.LBB9_18
.LBB9_18:
.Ltmp176:
	.loc	2 437 13 is_stmt 1              @ rt-thread/components/net/sal_socket/src/sal_socket.c:437:13
	b	.LBB9_19
.LBB9_19:
.Ltmp177:
	.loc	2 437 13 is_stmt 0              @ rt-thread/components/net/sal_socket/src/sal_socket.c:437:13
	movw	r0, :lower16:.L.str
	movt	r0, :upper16:.L.str
	bl	rt_kprintf
	ldr	r1, [sp, #32]
	movw	r0, :lower16:.L.str.17
	movt	r0, :upper16:.L.str.17
	bl	rt_kprintf
	movw	r0, :lower16:.L.str.2
	movt	r0, :upper16:.L.str.2
	bl	rt_kprintf
	b	.LBB9_20
.Ltmp178:
.LBB9_20:
	.loc	2 0 13                          @ rt-thread/components/net/sal_socket/src/sal_socket.c:0:13
	mvn	r0, #2
	.loc	2 438 13 is_stmt 1              @ rt-thread/components/net/sal_socket/src/sal_socket.c:438:13
	str	r0, [sp, #36]
	b	.LBB9_23
.Ltmp179:
.LBB9_21:
	.loc	2 441 24                        @ rt-thread/components/net/sal_socket/src/sal_socket.c:441:24
	ldr	r0, [sp, #4]
	.loc	2 441 9 is_stmt 0               @ rt-thread/components/net/sal_socket/src/sal_socket.c:441:9
	ldr	r1, [sp, #16]
	.loc	2 441 22                        @ rt-thread/components/net/sal_socket/src/sal_socket.c:441:22
	str	r0, [r1, #20]
	.loc	2 442 5 is_stmt 1               @ rt-thread/components/net/sal_socket/src/sal_socket.c:442:5
	b	.LBB9_22
.Ltmp180:
.LBB9_22:
	.loc	2 0 5 is_stmt 0                 @ rt-thread/components/net/sal_socket/src/sal_socket.c:0:5
	movs	r0, #0
	.loc	2 444 5 is_stmt 1               @ rt-thread/components/net/sal_socket/src/sal_socket.c:444:5
	str	r0, [sp, #36]
	b	.LBB9_23
.LBB9_23:
	.loc	2 445 1                         @ rt-thread/components/net/sal_socket/src/sal_socket.c:445:1
	ldr	r0, [sp, #36]
	add	sp, #40
	pop	{r7, pc}
.Ltmp181:
.Lfunc_end9:
	.size	socket_init, .Lfunc_end9-socket_init
	.cfi_endproc
	.cantunwind
	.fnend
                                        @ -- End function
	.section	.text.socket_delete,"ax",%progbits
	.p2align	3                               @ -- Begin function socket_delete
	.type	socket_delete,%function
	.code	16                              @ @socket_delete
	.thumb_func
socket_delete:
.Lfunc_begin10:
	.loc	2 540 0                         @ rt-thread/components/net/sal_socket/src/sal_socket.c:540:0
	.fnstart
	.cfi_startproc
@ %bb.0:
	.save	{r7, lr}
	push	{r7, lr}
	.cfi_def_cfa_offset 8
	.cfi_offset lr, -4
	.cfi_offset r7, -8
	.pad	#16
	sub	sp, #16
	.cfi_def_cfa_offset 24
	str	r0, [sp, #12]
.Ltmp182:
	.loc	2 542 30 prologue_end           @ rt-thread/components/net/sal_socket/src/sal_socket.c:542:30
	movw	r0, :lower16:socket_table
	movt	r0, :upper16:socket_table
	str	r0, [sp, #4]
	.loc	2 545 11                        @ rt-thread/components/net/sal_socket/src/sal_socket.c:545:11
	ldr	r0, [sp, #12]
	.loc	2 545 9 is_stmt 0               @ rt-thread/components/net/sal_socket/src/sal_socket.c:545:9
	str	r0, [sp]
.Ltmp183:
	.loc	2 546 9 is_stmt 1               @ rt-thread/components/net/sal_socket/src/sal_socket.c:546:9
	ldr	r0, [sp]
	.loc	2 546 17 is_stmt 0              @ rt-thread/components/net/sal_socket/src/sal_socket.c:546:17
	cmp	r0, #0
	bmi	.LBB10_2
	b	.LBB10_1
.LBB10_1:
	.loc	2 546 20                        @ rt-thread/components/net/sal_socket/src/sal_socket.c:546:20
	ldr	r0, [sp]
	.loc	2 546 33                        @ rt-thread/components/net/sal_socket/src/sal_socket.c:546:33
	ldr	r1, [sp, #4]
	.loc	2 546 37                        @ rt-thread/components/net/sal_socket/src/sal_socket.c:546:37
	ldr	r1, [r1]
.Ltmp184:
	.loc	2 546 9                         @ rt-thread/components/net/sal_socket/src/sal_socket.c:546:9
	cmp	r0, r1
	blt	.LBB10_3
	b	.LBB10_2
.LBB10_2:
.Ltmp185:
	.loc	2 548 9 is_stmt 1               @ rt-thread/components/net/sal_socket/src/sal_socket.c:548:9
	b	.LBB10_6
.Ltmp186:
.LBB10_3:
	.loc	2 550 5                         @ rt-thread/components/net/sal_socket/src/sal_socket.c:550:5
	bl	sal_lock
	.loc	2 551 27                        @ rt-thread/components/net/sal_socket/src/sal_socket.c:551:27
	ldr	r0, [sp, #12]
	.loc	2 551 12 is_stmt 0              @ rt-thread/components/net/sal_socket/src/sal_socket.c:551:12
	bl	sal_get_socket
	.loc	2 551 10                        @ rt-thread/components/net/sal_socket/src/sal_socket.c:551:10
	str	r0, [sp, #8]
.Ltmp187:
	.loc	2 552 5 is_stmt 1               @ rt-thread/components/net/sal_socket/src/sal_socket.c:552:5
	ldr	r0, [sp, #8]
.Ltmp188:
	.loc	2 552 5 is_stmt 0               @ rt-thread/components/net/sal_socket/src/sal_socket.c:552:5
	cbnz	r0, .LBB10_5
	b	.LBB10_4
.LBB10_4:
.Ltmp189:
	.loc	2 552 5                         @ rt-thread/components/net/sal_socket/src/sal_socket.c:552:5
	movw	r0, :lower16:.L.str.18
	movt	r0, :upper16:.L.str.18
	movw	r1, :lower16:.L__FUNCTION__.socket_delete
	movt	r1, :upper16:.L__FUNCTION__.socket_delete
	mov.w	r2, #552
	bl	rt_assert_handler
	b	.LBB10_5
.Ltmp190:
.LBB10_5:
	.loc	2 553 5 is_stmt 1               @ rt-thread/components/net/sal_socket/src/sal_socket.c:553:5
	ldr	r1, [sp, #8]
	movs	r0, #0
	.loc	2 553 17 is_stmt 0              @ rt-thread/components/net/sal_socket/src/sal_socket.c:553:17
	str	r0, [r1]
	.loc	2 554 5 is_stmt 1               @ rt-thread/components/net/sal_socket/src/sal_socket.c:554:5
	ldr	r1, [sp, #8]
	.loc	2 554 18 is_stmt 0              @ rt-thread/components/net/sal_socket/src/sal_socket.c:554:18
	str	r0, [r1, #20]
	.loc	2 555 17 is_stmt 1              @ rt-thread/components/net/sal_socket/src/sal_socket.c:555:17
	ldr	r0, [sp, #4]
	.loc	2 555 21 is_stmt 0              @ rt-thread/components/net/sal_socket/src/sal_socket.c:555:21
	ldr	r1, [sp]
	.loc	2 555 5                         @ rt-thread/components/net/sal_socket/src/sal_socket.c:555:5
	bl	socket_free
	.loc	2 556 5 is_stmt 1               @ rt-thread/components/net/sal_socket/src/sal_socket.c:556:5
	bl	sal_unlock
	.loc	2 557 1                         @ rt-thread/components/net/sal_socket/src/sal_socket.c:557:1
	b	.LBB10_6
.LBB10_6:
	add	sp, #16
	pop	{r7, pc}
.Ltmp191:
.Lfunc_end10:
	.size	socket_delete, .Lfunc_end10-socket_delete
	.cfi_endproc
	.cantunwind
	.fnend
                                        @ -- End function
	.section	.text.sal_bind,"ax",%progbits
	.hidden	sal_bind                        @ -- Begin function sal_bind
	.globl	sal_bind
	.p2align	3
	.type	sal_bind,%function
	.code	16                              @ @sal_bind
	.thumb_func
sal_bind:
.Lfunc_begin11:
	.loc	2 625 0                         @ rt-thread/components/net/sal_socket/src/sal_socket.c:625:0
	.fnstart
	.cfi_startproc
@ %bb.0:
	.save	{r7, lr}
	push	{r7, lr}
	.cfi_def_cfa_offset 8
	.cfi_offset lr, -4
	.cfi_offset r7, -8
	.pad	#48
	sub	sp, #48
	.cfi_def_cfa_offset 56
	str	r0, [sp, #40]
	str	r1, [sp, #36]
	str	r2, [sp, #32]
.Ltmp192:
	.loc	2 630 5 prologue_end            @ rt-thread/components/net/sal_socket/src/sal_socket.c:630:5
	ldr	r0, [sp, #36]
.Ltmp193:
	.loc	2 630 5 is_stmt 0               @ rt-thread/components/net/sal_socket/src/sal_socket.c:630:5
	cbnz	r0, .LBB11_2
	b	.LBB11_1
.LBB11_1:
.Ltmp194:
	.loc	2 630 5                         @ rt-thread/components/net/sal_socket/src/sal_socket.c:630:5
	movw	r0, :lower16:.L.str.11
	movt	r0, :upper16:.L.str.11
	movw	r1, :lower16:.L__FUNCTION__.sal_bind
	movt	r1, :upper16:.L__FUNCTION__.sal_bind
	movw	r2, #630
	bl	rt_assert_handler
	b	.LBB11_2
.Ltmp195:
.LBB11_2:
	.loc	2 633 5 is_stmt 1               @ rt-thread/components/net/sal_socket/src/sal_socket.c:633:5
	b	.LBB11_3
.LBB11_3:
.Ltmp196:
	.loc	2 633 5 is_stmt 0               @ rt-thread/components/net/sal_socket/src/sal_socket.c:633:5
	ldr	r0, [sp, #40]
	bl	sal_get_socket
	str	r0, [sp, #28]
.Ltmp197:
	.loc	2 633 5                         @ rt-thread/components/net/sal_socket/src/sal_socket.c:633:5
	ldr	r0, [sp, #28]
.Ltmp198:
	.loc	2 633 5                         @ rt-thread/components/net/sal_socket/src/sal_socket.c:633:5
	cbnz	r0, .LBB11_5
	b	.LBB11_4
.LBB11_4:
	.loc	2 0 5                           @ rt-thread/components/net/sal_socket/src/sal_socket.c:0:5
	mov.w	r0, #-1
.Ltmp199:
	.loc	2 633 5                         @ rt-thread/components/net/sal_socket/src/sal_socket.c:633:5
	str	r0, [sp, #44]
	b	.LBB11_27
.Ltmp200:
.LBB11_5:
	.loc	2 633 5                         @ rt-thread/components/net/sal_socket/src/sal_socket.c:633:5
	b	.LBB11_6
.Ltmp201:
.LBB11_6:
	.loc	2 636 28 is_stmt 1              @ rt-thread/components/net/sal_socket/src/sal_socket.c:636:28
	ldr	r0, [sp, #36]
	add	r1, sp, #20
	.loc	2 636 5 is_stmt 0               @ rt-thread/components/net/sal_socket/src/sal_socket.c:636:5
	bl	sal_sockaddr_to_ipaddr
.Ltmp202:
	.loc	2 639 10 is_stmt 1              @ rt-thread/components/net/sal_socket/src/sal_socket.c:639:10
	ldr	r0, [sp, #20]
.Ltmp203:
	.loc	2 639 9 is_stmt 0               @ rt-thread/components/net/sal_socket/src/sal_socket.c:639:9
	cmp	r0, #0
	beq	.LBB11_22
	b	.LBB11_7
.LBB11_7:
	.loc	2 0 9                           @ rt-thread/components/net/sal_socket/src/sal_socket.c:0:9
	movs	r0, #0
.Ltmp204:
	.loc	2 641 34 is_stmt 1              @ rt-thread/components/net/sal_socket/src/sal_socket.c:641:34
	str	r0, [sp, #16]
	.loc	2 641 55 is_stmt 0              @ rt-thread/components/net/sal_socket/src/sal_socket.c:641:55
	str	r0, [sp, #12]
	.loc	2 642 24 is_stmt 1              @ rt-thread/components/net/sal_socket/src/sal_socket.c:642:24
	str	r0, [sp, #8]
	add	r0, sp, #20
	.loc	2 644 22                        @ rt-thread/components/net/sal_socket/src/sal_socket.c:644:22
	bl	netdev_get_by_ipaddr
	.loc	2 644 20 is_stmt 0              @ rt-thread/components/net/sal_socket/src/sal_socket.c:644:20
	str	r0, [sp, #8]
.Ltmp205:
	.loc	2 645 13 is_stmt 1              @ rt-thread/components/net/sal_socket/src/sal_socket.c:645:13
	ldr	r0, [sp, #8]
.Ltmp206:
	.loc	2 645 13 is_stmt 0              @ rt-thread/components/net/sal_socket/src/sal_socket.c:645:13
	cbnz	r0, .LBB11_9
	b	.LBB11_8
.LBB11_8:
	.loc	2 0 13                          @ rt-thread/components/net/sal_socket/src/sal_socket.c:0:13
	mov.w	r0, #-1
.Ltmp207:
	.loc	2 647 13 is_stmt 1              @ rt-thread/components/net/sal_socket/src/sal_socket.c:647:13
	str	r0, [sp, #44]
	b	.LBB11_27
.Ltmp208:
.LBB11_9:
	.loc	2 651 9                         @ rt-thread/components/net/sal_socket/src/sal_socket.c:651:9
	b	.LBB11_10
.LBB11_10:
.Ltmp209:
	.loc	2 651 9 is_stmt 0               @ rt-thread/components/net/sal_socket/src/sal_socket.c:651:9
	ldr	r0, [sp, #28]
	ldr	r0, [r0, #20]
	ldr	r0, [r0, #60]
	str	r0, [sp, #12]
.Ltmp210:
	.loc	2 651 9                         @ rt-thread/components/net/sal_socket/src/sal_socket.c:651:9
	ldr	r0, [sp, #12]
	ldr	r0, [r0, #8]
	ldr	r0, [r0, #8]
.Ltmp211:
	.loc	2 651 9                         @ rt-thread/components/net/sal_socket/src/sal_socket.c:651:9
	cbnz	r0, .LBB11_12
	b	.LBB11_11
.LBB11_11:
	.loc	2 0 9                           @ rt-thread/components/net/sal_socket/src/sal_socket.c:0:9
	mov.w	r0, #-1
.Ltmp212:
	.loc	2 651 9                         @ rt-thread/components/net/sal_socket/src/sal_socket.c:651:9
	str	r0, [sp, #44]
	b	.LBB11_27
.Ltmp213:
.LBB11_12:
	.loc	2 651 9                         @ rt-thread/components/net/sal_socket/src/sal_socket.c:651:9
	b	.LBB11_13
.Ltmp214:
.LBB11_13:
	.loc	2 652 9 is_stmt 1               @ rt-thread/components/net/sal_socket/src/sal_socket.c:652:9
	b	.LBB11_14
.LBB11_14:
.Ltmp215:
	.loc	2 652 9 is_stmt 0               @ rt-thread/components/net/sal_socket/src/sal_socket.c:652:9
	ldr	r0, [sp, #8]
	ldr	r0, [r0, #60]
	str	r0, [sp, #16]
.Ltmp216:
	.loc	2 652 9                         @ rt-thread/components/net/sal_socket/src/sal_socket.c:652:9
	ldr	r0, [sp, #16]
	ldr	r0, [r0, #8]
	ldr	r0, [r0, #8]
.Ltmp217:
	.loc	2 652 9                         @ rt-thread/components/net/sal_socket/src/sal_socket.c:652:9
	cbnz	r0, .LBB11_16
	b	.LBB11_15
.LBB11_15:
	.loc	2 0 9                           @ rt-thread/components/net/sal_socket/src/sal_socket.c:0:9
	mov.w	r0, #-1
.Ltmp218:
	.loc	2 652 9                         @ rt-thread/components/net/sal_socket/src/sal_socket.c:652:9
	str	r0, [sp, #44]
	b	.LBB11_27
.Ltmp219:
.LBB11_16:
	.loc	2 652 9                         @ rt-thread/components/net/sal_socket/src/sal_socket.c:652:9
	b	.LBB11_17
.Ltmp220:
.LBB11_17:
	.loc	2 655 13 is_stmt 1              @ rt-thread/components/net/sal_socket/src/sal_socket.c:655:13
	ldr	r0, [sp, #16]
	.loc	2 655 23 is_stmt 0              @ rt-thread/components/net/sal_socket/src/sal_socket.c:655:23
	ldr	r0, [r0]
	.loc	2 655 33                        @ rt-thread/components/net/sal_socket/src/sal_socket.c:655:33
	ldr	r1, [sp, #12]
	.loc	2 655 43                        @ rt-thread/components/net/sal_socket/src/sal_socket.c:655:43
	ldr	r1, [r1]
.Ltmp221:
	.loc	2 655 13                        @ rt-thread/components/net/sal_socket/src/sal_socket.c:655:13
	cmp	r0, r1
	beq	.LBB11_21
	b	.LBB11_18
.LBB11_18:
	.loc	2 0 13                          @ rt-thread/components/net/sal_socket/src/sal_socket.c:0:13
	mov.w	r0, #-1
.Ltmp222:
	.loc	2 657 17 is_stmt 1              @ rt-thread/components/net/sal_socket/src/sal_socket.c:657:17
	str	r0, [sp, #4]
	.loc	2 660 13                        @ rt-thread/components/net/sal_socket/src/sal_socket.c:660:13
	ldr	r0, [sp, #12]
	.loc	2 660 23 is_stmt 0              @ rt-thread/components/net/sal_socket/src/sal_socket.c:660:23
	ldr	r0, [r0, #8]
	.loc	2 660 32                        @ rt-thread/components/net/sal_socket/src/sal_socket.c:660:32
	ldr	r1, [r0, #4]
	.loc	2 660 44                        @ rt-thread/components/net/sal_socket/src/sal_socket.c:660:44
	ldr	r0, [sp, #40]
	.loc	2 660 13                        @ rt-thread/components/net/sal_socket/src/sal_socket.c:660:13
	blx	r1
	.loc	2 662 26 is_stmt 1              @ rt-thread/components/net/sal_socket/src/sal_socket.c:662:26
	ldr	r1, [sp, #16]
	.loc	2 662 62 is_stmt 0              @ rt-thread/components/net/sal_socket/src/sal_socket.c:662:62
	ldr	r0, [r1]
	.loc	2 662 36                        @ rt-thread/components/net/sal_socket/src/sal_socket.c:662:36
	ldr	r1, [r1, #8]
	.loc	2 662 45                        @ rt-thread/components/net/sal_socket/src/sal_socket.c:662:45
	ldr	r3, [r1]
	.loc	2 662 70                        @ rt-thread/components/net/sal_socket/src/sal_socket.c:662:70
	ldr	r2, [sp, #28]
	.loc	2 662 76                        @ rt-thread/components/net/sal_socket/src/sal_socket.c:662:76
	ldr	r1, [r2, #12]
	.loc	2 662 88                        @ rt-thread/components/net/sal_socket/src/sal_socket.c:662:88
	ldr	r2, [r2, #16]
	.loc	2 662 26                        @ rt-thread/components/net/sal_socket/src/sal_socket.c:662:26
	blx	r3
	.loc	2 662 24                        @ rt-thread/components/net/sal_socket/src/sal_socket.c:662:24
	str	r0, [sp, #4]
.Ltmp223:
	.loc	2 663 17 is_stmt 1              @ rt-thread/components/net/sal_socket/src/sal_socket.c:663:17
	ldr	r0, [sp, #4]
.Ltmp224:
	.loc	2 663 17 is_stmt 0              @ rt-thread/components/net/sal_socket/src/sal_socket.c:663:17
	cmp.w	r0, #-1
	bgt	.LBB11_20
	b	.LBB11_19
.LBB11_19:
	.loc	2 0 17                          @ rt-thread/components/net/sal_socket/src/sal_socket.c:0:17
	mov.w	r0, #-1
.Ltmp225:
	.loc	2 665 17 is_stmt 1              @ rt-thread/components/net/sal_socket/src/sal_socket.c:665:17
	str	r0, [sp, #44]
	b	.LBB11_27
.Ltmp226:
.LBB11_20:
	.loc	2 667 28                        @ rt-thread/components/net/sal_socket/src/sal_socket.c:667:28
	ldr	r0, [sp, #8]
	.loc	2 667 13 is_stmt 0              @ rt-thread/components/net/sal_socket/src/sal_socket.c:667:13
	ldr	r1, [sp, #28]
	.loc	2 667 26                        @ rt-thread/components/net/sal_socket/src/sal_socket.c:667:26
	str	r0, [r1, #20]
	.loc	2 668 40 is_stmt 1              @ rt-thread/components/net/sal_socket/src/sal_socket.c:668:40
	ldr	r0, [sp, #4]
	.loc	2 668 13 is_stmt 0              @ rt-thread/components/net/sal_socket/src/sal_socket.c:668:13
	ldr	r1, [sp, #28]
	.loc	2 668 29                        @ rt-thread/components/net/sal_socket/src/sal_socket.c:668:29
	str	r0, [r1, #24]
	.loc	2 669 9 is_stmt 1               @ rt-thread/components/net/sal_socket/src/sal_socket.c:669:9
	b	.LBB11_21
.Ltmp227:
.LBB11_21:
	.loc	2 670 5                         @ rt-thread/components/net/sal_socket/src/sal_socket.c:670:5
	b	.LBB11_22
.Ltmp228:
.LBB11_22:
	.loc	2 673 5                         @ rt-thread/components/net/sal_socket/src/sal_socket.c:673:5
	b	.LBB11_23
.LBB11_23:
.Ltmp229:
	.loc	2 673 5 is_stmt 0               @ rt-thread/components/net/sal_socket/src/sal_socket.c:673:5
	ldr	r0, [sp, #28]
	ldr	r0, [r0, #20]
	ldr	r0, [r0, #60]
	str	r0, [sp, #24]
.Ltmp230:
	.loc	2 673 5                         @ rt-thread/components/net/sal_socket/src/sal_socket.c:673:5
	ldr	r0, [sp, #24]
	ldr	r0, [r0, #8]
	ldr	r0, [r0, #8]
.Ltmp231:
	.loc	2 673 5                         @ rt-thread/components/net/sal_socket/src/sal_socket.c:673:5
	cbnz	r0, .LBB11_25
	b	.LBB11_24
.LBB11_24:
	.loc	2 0 5                           @ rt-thread/components/net/sal_socket/src/sal_socket.c:0:5
	mov.w	r0, #-1
.Ltmp232:
	.loc	2 673 5                         @ rt-thread/components/net/sal_socket/src/sal_socket.c:673:5
	str	r0, [sp, #44]
	b	.LBB11_27
.Ltmp233:
.LBB11_25:
	.loc	2 673 5                         @ rt-thread/components/net/sal_socket/src/sal_socket.c:673:5
	b	.LBB11_26
.Ltmp234:
.LBB11_26:
	.loc	2 674 12 is_stmt 1              @ rt-thread/components/net/sal_socket/src/sal_socket.c:674:12
	ldr	r0, [sp, #24]
	.loc	2 674 16 is_stmt 0              @ rt-thread/components/net/sal_socket/src/sal_socket.c:674:16
	ldr	r0, [r0, #8]
	.loc	2 674 25                        @ rt-thread/components/net/sal_socket/src/sal_socket.c:674:25
	ldr	r3, [r0, #8]
	.loc	2 674 36                        @ rt-thread/components/net/sal_socket/src/sal_socket.c:674:36
	ldr	r0, [sp, #28]
	.loc	2 674 42                        @ rt-thread/components/net/sal_socket/src/sal_socket.c:674:42
	ldr	r0, [r0, #24]
	.loc	2 674 53                        @ rt-thread/components/net/sal_socket/src/sal_socket.c:674:53
	ldr	r1, [sp, #36]
	.loc	2 674 59                        @ rt-thread/components/net/sal_socket/src/sal_socket.c:674:59
	ldr	r2, [sp, #32]
	.loc	2 674 12                        @ rt-thread/components/net/sal_socket/src/sal_socket.c:674:12
	blx	r3
	.loc	2 674 5                         @ rt-thread/components/net/sal_socket/src/sal_socket.c:674:5
	str	r0, [sp, #44]
	b	.LBB11_27
.LBB11_27:
	.loc	2 675 1 is_stmt 1               @ rt-thread/components/net/sal_socket/src/sal_socket.c:675:1
	ldr	r0, [sp, #44]
	add	sp, #48
	pop	{r7, pc}
.Ltmp235:
.Lfunc_end11:
	.size	sal_bind, .Lfunc_end11-sal_bind
	.cfi_endproc
	.cantunwind
	.fnend
                                        @ -- End function
	.section	.text.sal_sockaddr_to_ipaddr,"ax",%progbits
	.p2align	3                               @ -- Begin function sal_sockaddr_to_ipaddr
	.type	sal_sockaddr_to_ipaddr,%function
	.code	16                              @ @sal_sockaddr_to_ipaddr
	.thumb_func
sal_sockaddr_to_ipaddr:
.Lfunc_begin12:
	.loc	2 611 0                         @ rt-thread/components/net/sal_socket/src/sal_socket.c:611:0
	.fnstart
	.cfi_startproc
@ %bb.0:
	.pad	#12
	sub	sp, #12
	.cfi_def_cfa_offset 12
	str	r0, [sp, #8]
	str	r1, [sp, #4]
.Ltmp236:
	.loc	2 612 71 prologue_end           @ rt-thread/components/net/sal_socket/src/sal_socket.c:612:71
	ldr	r0, [sp, #8]
	.loc	2 612 31 is_stmt 0              @ rt-thread/components/net/sal_socket/src/sal_socket.c:612:31
	str	r0, [sp]
	.loc	2 618 26 is_stmt 1              @ rt-thread/components/net/sal_socket/src/sal_socket.c:618:26
	ldr	r0, [sp]
	.loc	2 618 45 is_stmt 0              @ rt-thread/components/net/sal_socket/src/sal_socket.c:618:45
	ldr	r0, [r0, #4]
	.loc	2 618 5                         @ rt-thread/components/net/sal_socket/src/sal_socket.c:618:5
	ldr	r1, [sp, #4]
	.loc	2 618 24                        @ rt-thread/components/net/sal_socket/src/sal_socket.c:618:24
	str	r0, [r1]
	.loc	2 622 1 is_stmt 1               @ rt-thread/components/net/sal_socket/src/sal_socket.c:622:1
	add	sp, #12
	bx	lr
.Ltmp237:
.Lfunc_end12:
	.size	sal_sockaddr_to_ipaddr, .Lfunc_end12-sal_sockaddr_to_ipaddr
	.cfi_endproc
	.cantunwind
	.fnend
                                        @ -- End function
	.section	.text.sal_shutdown,"ax",%progbits
	.hidden	sal_shutdown                    @ -- Begin function sal_shutdown
	.globl	sal_shutdown
	.p2align	3
	.type	sal_shutdown,%function
	.code	16                              @ @sal_shutdown
	.thumb_func
sal_shutdown:
.Lfunc_begin13:
	.loc	2 678 0                         @ rt-thread/components/net/sal_socket/src/sal_socket.c:678:0
	.fnstart
	.cfi_startproc
@ %bb.0:
	.save	{r7, lr}
	push	{r7, lr}
	.cfi_def_cfa_offset 8
	.cfi_offset lr, -4
	.cfi_offset r7, -8
	.pad	#24
	sub	sp, #24
	.cfi_def_cfa_offset 32
	str	r0, [sp, #16]
	str	r1, [sp, #12]
	movs	r0, #0
.Ltmp238:
	.loc	2 681 9 prologue_end            @ rt-thread/components/net/sal_socket/src/sal_socket.c:681:9
	str	r0, [sp]
	.loc	2 684 5                         @ rt-thread/components/net/sal_socket/src/sal_socket.c:684:5
	b	.LBB13_1
.LBB13_1:
.Ltmp239:
	.loc	2 684 5 is_stmt 0               @ rt-thread/components/net/sal_socket/src/sal_socket.c:684:5
	ldr	r0, [sp, #16]
	bl	sal_get_socket
	str	r0, [sp, #8]
.Ltmp240:
	.loc	2 684 5                         @ rt-thread/components/net/sal_socket/src/sal_socket.c:684:5
	ldr	r0, [sp, #8]
.Ltmp241:
	.loc	2 684 5                         @ rt-thread/components/net/sal_socket/src/sal_socket.c:684:5
	cbnz	r0, .LBB13_3
	b	.LBB13_2
.LBB13_2:
	.loc	2 0 5                           @ rt-thread/components/net/sal_socket/src/sal_socket.c:0:5
	mov.w	r0, #-1
.Ltmp242:
	.loc	2 684 5                         @ rt-thread/components/net/sal_socket/src/sal_socket.c:684:5
	str	r0, [sp, #20]
	b	.LBB13_12
.Ltmp243:
.LBB13_3:
	.loc	2 684 5                         @ rt-thread/components/net/sal_socket/src/sal_socket.c:684:5
	b	.LBB13_4
.Ltmp244:
.LBB13_4:
	.loc	2 688 5 is_stmt 1               @ rt-thread/components/net/sal_socket/src/sal_socket.c:688:5
	b	.LBB13_5
.LBB13_5:
.Ltmp245:
	.loc	2 688 5 is_stmt 0               @ rt-thread/components/net/sal_socket/src/sal_socket.c:688:5
	ldr	r0, [sp, #8]
	ldr	r0, [r0, #20]
	ldr	r0, [r0, #60]
	str	r0, [sp, #4]
.Ltmp246:
	.loc	2 688 5                         @ rt-thread/components/net/sal_socket/src/sal_socket.c:688:5
	ldr	r0, [sp, #4]
	ldr	r0, [r0, #8]
	ldr	r0, [r0, #40]
.Ltmp247:
	.loc	2 688 5                         @ rt-thread/components/net/sal_socket/src/sal_socket.c:688:5
	cbnz	r0, .LBB13_7
	b	.LBB13_6
.LBB13_6:
	.loc	2 0 5                           @ rt-thread/components/net/sal_socket/src/sal_socket.c:0:5
	mov.w	r0, #-1
.Ltmp248:
	.loc	2 688 5                         @ rt-thread/components/net/sal_socket/src/sal_socket.c:688:5
	str	r0, [sp, #20]
	b	.LBB13_12
.Ltmp249:
.LBB13_7:
	.loc	2 688 5                         @ rt-thread/components/net/sal_socket/src/sal_socket.c:688:5
	b	.LBB13_8
.Ltmp250:
.LBB13_8:
	.loc	2 690 9 is_stmt 1               @ rt-thread/components/net/sal_socket/src/sal_socket.c:690:9
	ldr	r0, [sp, #4]
	.loc	2 690 13 is_stmt 0              @ rt-thread/components/net/sal_socket/src/sal_socket.c:690:13
	ldr	r0, [r0, #8]
	.loc	2 690 22                        @ rt-thread/components/net/sal_socket/src/sal_socket.c:690:22
	ldr	r2, [r0, #40]
	.loc	2 690 37                        @ rt-thread/components/net/sal_socket/src/sal_socket.c:690:37
	ldr	r0, [sp, #8]
	.loc	2 690 43                        @ rt-thread/components/net/sal_socket/src/sal_socket.c:690:43
	ldr	r0, [r0, #24]
	.loc	2 690 54                        @ rt-thread/components/net/sal_socket/src/sal_socket.c:690:54
	ldr	r1, [sp, #12]
	.loc	2 690 9                         @ rt-thread/components/net/sal_socket/src/sal_socket.c:690:9
	blx	r2
.Ltmp251:
	.loc	2 690 9                         @ rt-thread/components/net/sal_socket/src/sal_socket.c:690:9
	cbnz	r0, .LBB13_10
	b	.LBB13_9
.LBB13_9:
	.loc	2 0 9                           @ rt-thread/components/net/sal_socket/src/sal_socket.c:0:9
	movs	r0, #0
.Ltmp252:
	.loc	2 701 15 is_stmt 1              @ rt-thread/components/net/sal_socket/src/sal_socket.c:701:15
	str	r0, [sp]
	.loc	2 702 5                         @ rt-thread/components/net/sal_socket/src/sal_socket.c:702:5
	b	.LBB13_11
.Ltmp253:
.LBB13_10:
	.loc	2 0 5 is_stmt 0                 @ rt-thread/components/net/sal_socket/src/sal_socket.c:0:5
	mov.w	r0, #-1
.Ltmp254:
	.loc	2 705 15 is_stmt 1              @ rt-thread/components/net/sal_socket/src/sal_socket.c:705:15
	str	r0, [sp]
	b	.LBB13_11
.Ltmp255:
.LBB13_11:
	.loc	2 709 12                        @ rt-thread/components/net/sal_socket/src/sal_socket.c:709:12
	ldr	r0, [sp]
	.loc	2 709 5 is_stmt 0               @ rt-thread/components/net/sal_socket/src/sal_socket.c:709:5
	str	r0, [sp, #20]
	b	.LBB13_12
.LBB13_12:
	.loc	2 710 1 is_stmt 1               @ rt-thread/components/net/sal_socket/src/sal_socket.c:710:1
	ldr	r0, [sp, #20]
	add	sp, #24
	pop	{r7, pc}
.Ltmp256:
.Lfunc_end13:
	.size	sal_shutdown, .Lfunc_end13-sal_shutdown
	.cfi_endproc
	.cantunwind
	.fnend
                                        @ -- End function
	.section	.text.sal_getpeername,"ax",%progbits
	.hidden	sal_getpeername                 @ -- Begin function sal_getpeername
	.globl	sal_getpeername
	.p2align	3
	.type	sal_getpeername,%function
	.code	16                              @ @sal_getpeername
	.thumb_func
sal_getpeername:
.Lfunc_begin14:
	.loc	2 713 0                         @ rt-thread/components/net/sal_socket/src/sal_socket.c:713:0
	.fnstart
	.cfi_startproc
@ %bb.0:
	.save	{r7, lr}
	push	{r7, lr}
	.cfi_def_cfa_offset 8
	.cfi_offset lr, -4
	.cfi_offset r7, -8
	.pad	#24
	sub	sp, #24
	.cfi_def_cfa_offset 32
	str	r0, [sp, #16]
	str	r1, [sp, #12]
	str	r2, [sp, #8]
.Ltmp257:
	.loc	2 718 5 prologue_end            @ rt-thread/components/net/sal_socket/src/sal_socket.c:718:5
	b	.LBB14_1
.LBB14_1:
.Ltmp258:
	.loc	2 718 5 is_stmt 0               @ rt-thread/components/net/sal_socket/src/sal_socket.c:718:5
	ldr	r0, [sp, #16]
	bl	sal_get_socket
	str	r0, [sp, #4]
.Ltmp259:
	.loc	2 718 5                         @ rt-thread/components/net/sal_socket/src/sal_socket.c:718:5
	ldr	r0, [sp, #4]
.Ltmp260:
	.loc	2 718 5                         @ rt-thread/components/net/sal_socket/src/sal_socket.c:718:5
	cbnz	r0, .LBB14_3
	b	.LBB14_2
.LBB14_2:
	.loc	2 0 5                           @ rt-thread/components/net/sal_socket/src/sal_socket.c:0:5
	mov.w	r0, #-1
.Ltmp261:
	.loc	2 718 5                         @ rt-thread/components/net/sal_socket/src/sal_socket.c:718:5
	str	r0, [sp, #20]
	b	.LBB14_9
.Ltmp262:
.LBB14_3:
	.loc	2 718 5                         @ rt-thread/components/net/sal_socket/src/sal_socket.c:718:5
	b	.LBB14_4
.Ltmp263:
.LBB14_4:
	.loc	2 721 5 is_stmt 1               @ rt-thread/components/net/sal_socket/src/sal_socket.c:721:5
	b	.LBB14_5
.LBB14_5:
.Ltmp264:
	.loc	2 721 5 is_stmt 0               @ rt-thread/components/net/sal_socket/src/sal_socket.c:721:5
	ldr	r0, [sp, #4]
	ldr	r0, [r0, #20]
	ldr	r0, [r0, #60]
	str	r0, [sp]
.Ltmp265:
	.loc	2 721 5                         @ rt-thread/components/net/sal_socket/src/sal_socket.c:721:5
	ldr	r0, [sp]
	ldr	r0, [r0, #8]
	ldr	r0, [r0, #44]
.Ltmp266:
	.loc	2 721 5                         @ rt-thread/components/net/sal_socket/src/sal_socket.c:721:5
	cbnz	r0, .LBB14_7
	b	.LBB14_6
.LBB14_6:
	.loc	2 0 5                           @ rt-thread/components/net/sal_socket/src/sal_socket.c:0:5
	mov.w	r0, #-1
.Ltmp267:
	.loc	2 721 5                         @ rt-thread/components/net/sal_socket/src/sal_socket.c:721:5
	str	r0, [sp, #20]
	b	.LBB14_9
.Ltmp268:
.LBB14_7:
	.loc	2 721 5                         @ rt-thread/components/net/sal_socket/src/sal_socket.c:721:5
	b	.LBB14_8
.Ltmp269:
.LBB14_8:
	.loc	2 723 12 is_stmt 1              @ rt-thread/components/net/sal_socket/src/sal_socket.c:723:12
	ldr	r0, [sp]
	.loc	2 723 16 is_stmt 0              @ rt-thread/components/net/sal_socket/src/sal_socket.c:723:16
	ldr	r0, [r0, #8]
	.loc	2 723 25                        @ rt-thread/components/net/sal_socket/src/sal_socket.c:723:25
	ldr	r3, [r0, #44]
	.loc	2 723 43                        @ rt-thread/components/net/sal_socket/src/sal_socket.c:723:43
	ldr	r0, [sp, #4]
	.loc	2 723 49                        @ rt-thread/components/net/sal_socket/src/sal_socket.c:723:49
	ldr	r0, [r0, #24]
	.loc	2 723 60                        @ rt-thread/components/net/sal_socket/src/sal_socket.c:723:60
	ldr	r1, [sp, #12]
	.loc	2 723 66                        @ rt-thread/components/net/sal_socket/src/sal_socket.c:723:66
	ldr	r2, [sp, #8]
	.loc	2 723 12                        @ rt-thread/components/net/sal_socket/src/sal_socket.c:723:12
	blx	r3
	.loc	2 723 5                         @ rt-thread/components/net/sal_socket/src/sal_socket.c:723:5
	str	r0, [sp, #20]
	b	.LBB14_9
.LBB14_9:
	.loc	2 724 1 is_stmt 1               @ rt-thread/components/net/sal_socket/src/sal_socket.c:724:1
	ldr	r0, [sp, #20]
	add	sp, #24
	pop	{r7, pc}
.Ltmp270:
.Lfunc_end14:
	.size	sal_getpeername, .Lfunc_end14-sal_getpeername
	.cfi_endproc
	.cantunwind
	.fnend
                                        @ -- End function
	.section	.text.sal_getsockname,"ax",%progbits
	.hidden	sal_getsockname                 @ -- Begin function sal_getsockname
	.globl	sal_getsockname
	.p2align	3
	.type	sal_getsockname,%function
	.code	16                              @ @sal_getsockname
	.thumb_func
sal_getsockname:
.Lfunc_begin15:
	.loc	2 727 0                         @ rt-thread/components/net/sal_socket/src/sal_socket.c:727:0
	.fnstart
	.cfi_startproc
@ %bb.0:
	.save	{r7, lr}
	push	{r7, lr}
	.cfi_def_cfa_offset 8
	.cfi_offset lr, -4
	.cfi_offset r7, -8
	.pad	#24
	sub	sp, #24
	.cfi_def_cfa_offset 32
	str	r0, [sp, #16]
	str	r1, [sp, #12]
	str	r2, [sp, #8]
.Ltmp271:
	.loc	2 732 5 prologue_end            @ rt-thread/components/net/sal_socket/src/sal_socket.c:732:5
	b	.LBB15_1
.LBB15_1:
.Ltmp272:
	.loc	2 732 5 is_stmt 0               @ rt-thread/components/net/sal_socket/src/sal_socket.c:732:5
	ldr	r0, [sp, #16]
	bl	sal_get_socket
	str	r0, [sp, #4]
.Ltmp273:
	.loc	2 732 5                         @ rt-thread/components/net/sal_socket/src/sal_socket.c:732:5
	ldr	r0, [sp, #4]
.Ltmp274:
	.loc	2 732 5                         @ rt-thread/components/net/sal_socket/src/sal_socket.c:732:5
	cbnz	r0, .LBB15_3
	b	.LBB15_2
.LBB15_2:
	.loc	2 0 5                           @ rt-thread/components/net/sal_socket/src/sal_socket.c:0:5
	mov.w	r0, #-1
.Ltmp275:
	.loc	2 732 5                         @ rt-thread/components/net/sal_socket/src/sal_socket.c:732:5
	str	r0, [sp, #20]
	b	.LBB15_9
.Ltmp276:
.LBB15_3:
	.loc	2 732 5                         @ rt-thread/components/net/sal_socket/src/sal_socket.c:732:5
	b	.LBB15_4
.Ltmp277:
.LBB15_4:
	.loc	2 735 5 is_stmt 1               @ rt-thread/components/net/sal_socket/src/sal_socket.c:735:5
	b	.LBB15_5
.LBB15_5:
.Ltmp278:
	.loc	2 735 5 is_stmt 0               @ rt-thread/components/net/sal_socket/src/sal_socket.c:735:5
	ldr	r0, [sp, #4]
	ldr	r0, [r0, #20]
	ldr	r0, [r0, #60]
	str	r0, [sp]
.Ltmp279:
	.loc	2 735 5                         @ rt-thread/components/net/sal_socket/src/sal_socket.c:735:5
	ldr	r0, [sp]
	ldr	r0, [r0, #8]
	ldr	r0, [r0, #48]
.Ltmp280:
	.loc	2 735 5                         @ rt-thread/components/net/sal_socket/src/sal_socket.c:735:5
	cbnz	r0, .LBB15_7
	b	.LBB15_6
.LBB15_6:
	.loc	2 0 5                           @ rt-thread/components/net/sal_socket/src/sal_socket.c:0:5
	mov.w	r0, #-1
.Ltmp281:
	.loc	2 735 5                         @ rt-thread/components/net/sal_socket/src/sal_socket.c:735:5
	str	r0, [sp, #20]
	b	.LBB15_9
.Ltmp282:
.LBB15_7:
	.loc	2 735 5                         @ rt-thread/components/net/sal_socket/src/sal_socket.c:735:5
	b	.LBB15_8
.Ltmp283:
.LBB15_8:
	.loc	2 737 12 is_stmt 1              @ rt-thread/components/net/sal_socket/src/sal_socket.c:737:12
	ldr	r0, [sp]
	.loc	2 737 16 is_stmt 0              @ rt-thread/components/net/sal_socket/src/sal_socket.c:737:16
	ldr	r0, [r0, #8]
	.loc	2 737 25                        @ rt-thread/components/net/sal_socket/src/sal_socket.c:737:25
	ldr	r3, [r0, #48]
	.loc	2 737 43                        @ rt-thread/components/net/sal_socket/src/sal_socket.c:737:43
	ldr	r0, [sp, #4]
	.loc	2 737 49                        @ rt-thread/components/net/sal_socket/src/sal_socket.c:737:49
	ldr	r0, [r0, #24]
	.loc	2 737 60                        @ rt-thread/components/net/sal_socket/src/sal_socket.c:737:60
	ldr	r1, [sp, #12]
	.loc	2 737 66                        @ rt-thread/components/net/sal_socket/src/sal_socket.c:737:66
	ldr	r2, [sp, #8]
	.loc	2 737 12                        @ rt-thread/components/net/sal_socket/src/sal_socket.c:737:12
	blx	r3
	.loc	2 737 5                         @ rt-thread/components/net/sal_socket/src/sal_socket.c:737:5
	str	r0, [sp, #20]
	b	.LBB15_9
.LBB15_9:
	.loc	2 738 1 is_stmt 1               @ rt-thread/components/net/sal_socket/src/sal_socket.c:738:1
	ldr	r0, [sp, #20]
	add	sp, #24
	pop	{r7, pc}
.Ltmp284:
.Lfunc_end15:
	.size	sal_getsockname, .Lfunc_end15-sal_getsockname
	.cfi_endproc
	.cantunwind
	.fnend
                                        @ -- End function
	.section	.text.sal_getsockopt,"ax",%progbits
	.hidden	sal_getsockopt                  @ -- Begin function sal_getsockopt
	.globl	sal_getsockopt
	.p2align	3
	.type	sal_getsockopt,%function
	.code	16                              @ @sal_getsockopt
	.thumb_func
sal_getsockopt:
.Lfunc_begin16:
	.loc	2 741 0                         @ rt-thread/components/net/sal_socket/src/sal_socket.c:741:0
	.fnstart
	.cfi_startproc
@ %bb.0:
	.save	{r4, lr}
	push	{r4, lr}
	.cfi_def_cfa_offset 8
	.cfi_offset lr, -4
	.cfi_offset r4, -8
	.pad	#32
	sub	sp, #32
	.cfi_def_cfa_offset 40
	ldr.w	r12, [sp, #40]
	str	r0, [sp, #24]
	str	r1, [sp, #20]
	str	r2, [sp, #16]
	str	r3, [sp, #12]
.Ltmp285:
	.loc	2 746 5 prologue_end            @ rt-thread/components/net/sal_socket/src/sal_socket.c:746:5
	b	.LBB16_1
.LBB16_1:
.Ltmp286:
	.loc	2 746 5 is_stmt 0               @ rt-thread/components/net/sal_socket/src/sal_socket.c:746:5
	ldr	r0, [sp, #24]
	bl	sal_get_socket
	str	r0, [sp, #8]
.Ltmp287:
	.loc	2 746 5                         @ rt-thread/components/net/sal_socket/src/sal_socket.c:746:5
	ldr	r0, [sp, #8]
.Ltmp288:
	.loc	2 746 5                         @ rt-thread/components/net/sal_socket/src/sal_socket.c:746:5
	cbnz	r0, .LBB16_3
	b	.LBB16_2
.LBB16_2:
	.loc	2 0 5                           @ rt-thread/components/net/sal_socket/src/sal_socket.c:0:5
	mov.w	r0, #-1
.Ltmp289:
	.loc	2 746 5                         @ rt-thread/components/net/sal_socket/src/sal_socket.c:746:5
	str	r0, [sp, #28]
	b	.LBB16_9
.Ltmp290:
.LBB16_3:
	.loc	2 746 5                         @ rt-thread/components/net/sal_socket/src/sal_socket.c:746:5
	b	.LBB16_4
.Ltmp291:
.LBB16_4:
	.loc	2 749 5 is_stmt 1               @ rt-thread/components/net/sal_socket/src/sal_socket.c:749:5
	b	.LBB16_5
.LBB16_5:
.Ltmp292:
	.loc	2 749 5 is_stmt 0               @ rt-thread/components/net/sal_socket/src/sal_socket.c:749:5
	ldr	r0, [sp, #8]
	ldr	r0, [r0, #20]
	ldr	r0, [r0, #60]
	str	r0, [sp, #4]
.Ltmp293:
	.loc	2 749 5                         @ rt-thread/components/net/sal_socket/src/sal_socket.c:749:5
	ldr	r0, [sp, #4]
	ldr	r0, [r0, #8]
	ldr	r0, [r0, #32]
.Ltmp294:
	.loc	2 749 5                         @ rt-thread/components/net/sal_socket/src/sal_socket.c:749:5
	cbnz	r0, .LBB16_7
	b	.LBB16_6
.LBB16_6:
	.loc	2 0 5                           @ rt-thread/components/net/sal_socket/src/sal_socket.c:0:5
	mov.w	r0, #-1
.Ltmp295:
	.loc	2 749 5                         @ rt-thread/components/net/sal_socket/src/sal_socket.c:749:5
	str	r0, [sp, #28]
	b	.LBB16_9
.Ltmp296:
.LBB16_7:
	.loc	2 749 5                         @ rt-thread/components/net/sal_socket/src/sal_socket.c:749:5
	b	.LBB16_8
.Ltmp297:
.LBB16_8:
	.loc	2 751 12 is_stmt 1              @ rt-thread/components/net/sal_socket/src/sal_socket.c:751:12
	ldr	r0, [sp, #4]
	.loc	2 751 16 is_stmt 0              @ rt-thread/components/net/sal_socket/src/sal_socket.c:751:16
	ldr	r0, [r0, #8]
	.loc	2 751 25                        @ rt-thread/components/net/sal_socket/src/sal_socket.c:751:25
	ldr.w	r12, [r0, #32]
	.loc	2 751 42                        @ rt-thread/components/net/sal_socket/src/sal_socket.c:751:42
	ldr	r0, [sp, #8]
	.loc	2 751 48                        @ rt-thread/components/net/sal_socket/src/sal_socket.c:751:48
	ldr	r0, [r0, #24]
	.loc	2 751 59                        @ rt-thread/components/net/sal_socket/src/sal_socket.c:751:59
	ldr	r1, [sp, #20]
	.loc	2 751 66                        @ rt-thread/components/net/sal_socket/src/sal_socket.c:751:66
	ldr	r2, [sp, #16]
	.loc	2 751 75                        @ rt-thread/components/net/sal_socket/src/sal_socket.c:751:75
	ldr	r3, [sp, #12]
	.loc	2 751 83                        @ rt-thread/components/net/sal_socket/src/sal_socket.c:751:83
	ldr.w	lr, [sp, #40]
	.loc	2 751 12                        @ rt-thread/components/net/sal_socket/src/sal_socket.c:751:12
	mov	r4, sp
	str.w	lr, [r4]
	blx	r12
	.loc	2 751 5                         @ rt-thread/components/net/sal_socket/src/sal_socket.c:751:5
	str	r0, [sp, #28]
	b	.LBB16_9
.LBB16_9:
	.loc	2 752 1 is_stmt 1               @ rt-thread/components/net/sal_socket/src/sal_socket.c:752:1
	ldr	r0, [sp, #28]
	add	sp, #32
	pop	{r4, pc}
.Ltmp298:
.Lfunc_end16:
	.size	sal_getsockopt, .Lfunc_end16-sal_getsockopt
	.cfi_endproc
	.cantunwind
	.fnend
                                        @ -- End function
	.section	.text.sal_setsockopt,"ax",%progbits
	.hidden	sal_setsockopt                  @ -- Begin function sal_setsockopt
	.globl	sal_setsockopt
	.p2align	3
	.type	sal_setsockopt,%function
	.code	16                              @ @sal_setsockopt
	.thumb_func
sal_setsockopt:
.Lfunc_begin17:
	.loc	2 755 0                         @ rt-thread/components/net/sal_socket/src/sal_socket.c:755:0
	.fnstart
	.cfi_startproc
@ %bb.0:
	.save	{r4, lr}
	push	{r4, lr}
	.cfi_def_cfa_offset 8
	.cfi_offset lr, -4
	.cfi_offset r4, -8
	.pad	#32
	sub	sp, #32
	.cfi_def_cfa_offset 40
	ldr.w	r12, [sp, #40]
	str	r0, [sp, #24]
	str	r1, [sp, #20]
	str	r2, [sp, #16]
	str	r3, [sp, #12]
.Ltmp299:
	.loc	2 760 5 prologue_end            @ rt-thread/components/net/sal_socket/src/sal_socket.c:760:5
	b	.LBB17_1
.LBB17_1:
.Ltmp300:
	.loc	2 760 5 is_stmt 0               @ rt-thread/components/net/sal_socket/src/sal_socket.c:760:5
	ldr	r0, [sp, #24]
	bl	sal_get_socket
	str	r0, [sp, #8]
.Ltmp301:
	.loc	2 760 5                         @ rt-thread/components/net/sal_socket/src/sal_socket.c:760:5
	ldr	r0, [sp, #8]
.Ltmp302:
	.loc	2 760 5                         @ rt-thread/components/net/sal_socket/src/sal_socket.c:760:5
	cbnz	r0, .LBB17_3
	b	.LBB17_2
.LBB17_2:
	.loc	2 0 5                           @ rt-thread/components/net/sal_socket/src/sal_socket.c:0:5
	mov.w	r0, #-1
.Ltmp303:
	.loc	2 760 5                         @ rt-thread/components/net/sal_socket/src/sal_socket.c:760:5
	str	r0, [sp, #28]
	b	.LBB17_9
.Ltmp304:
.LBB17_3:
	.loc	2 760 5                         @ rt-thread/components/net/sal_socket/src/sal_socket.c:760:5
	b	.LBB17_4
.Ltmp305:
.LBB17_4:
	.loc	2 763 5 is_stmt 1               @ rt-thread/components/net/sal_socket/src/sal_socket.c:763:5
	b	.LBB17_5
.LBB17_5:
.Ltmp306:
	.loc	2 763 5 is_stmt 0               @ rt-thread/components/net/sal_socket/src/sal_socket.c:763:5
	ldr	r0, [sp, #8]
	ldr	r0, [r0, #20]
	ldr	r0, [r0, #60]
	str	r0, [sp, #4]
.Ltmp307:
	.loc	2 763 5                         @ rt-thread/components/net/sal_socket/src/sal_socket.c:763:5
	ldr	r0, [sp, #4]
	ldr	r0, [r0, #8]
	ldr	r0, [r0, #36]
.Ltmp308:
	.loc	2 763 5                         @ rt-thread/components/net/sal_socket/src/sal_socket.c:763:5
	cbnz	r0, .LBB17_7
	b	.LBB17_6
.LBB17_6:
	.loc	2 0 5                           @ rt-thread/components/net/sal_socket/src/sal_socket.c:0:5
	mov.w	r0, #-1
.Ltmp309:
	.loc	2 763 5                         @ rt-thread/components/net/sal_socket/src/sal_socket.c:763:5
	str	r0, [sp, #28]
	b	.LBB17_9
.Ltmp310:
.LBB17_7:
	.loc	2 763 5                         @ rt-thread/components/net/sal_socket/src/sal_socket.c:763:5
	b	.LBB17_8
.Ltmp311:
.LBB17_8:
	.loc	2 797 12 is_stmt 1              @ rt-thread/components/net/sal_socket/src/sal_socket.c:797:12
	ldr	r0, [sp, #4]
	.loc	2 797 16 is_stmt 0              @ rt-thread/components/net/sal_socket/src/sal_socket.c:797:16
	ldr	r0, [r0, #8]
	.loc	2 797 25                        @ rt-thread/components/net/sal_socket/src/sal_socket.c:797:25
	ldr.w	r12, [r0, #36]
	.loc	2 797 42                        @ rt-thread/components/net/sal_socket/src/sal_socket.c:797:42
	ldr	r0, [sp, #8]
	.loc	2 797 48                        @ rt-thread/components/net/sal_socket/src/sal_socket.c:797:48
	ldr	r0, [r0, #24]
	.loc	2 797 59                        @ rt-thread/components/net/sal_socket/src/sal_socket.c:797:59
	ldr	r1, [sp, #20]
	.loc	2 797 66                        @ rt-thread/components/net/sal_socket/src/sal_socket.c:797:66
	ldr	r2, [sp, #16]
	.loc	2 797 75                        @ rt-thread/components/net/sal_socket/src/sal_socket.c:797:75
	ldr	r3, [sp, #12]
	.loc	2 797 83                        @ rt-thread/components/net/sal_socket/src/sal_socket.c:797:83
	ldr.w	lr, [sp, #40]
	.loc	2 797 12                        @ rt-thread/components/net/sal_socket/src/sal_socket.c:797:12
	mov	r4, sp
	str.w	lr, [r4]
	blx	r12
	.loc	2 797 5                         @ rt-thread/components/net/sal_socket/src/sal_socket.c:797:5
	str	r0, [sp, #28]
	b	.LBB17_9
.LBB17_9:
	.loc	2 799 1 is_stmt 1               @ rt-thread/components/net/sal_socket/src/sal_socket.c:799:1
	ldr	r0, [sp, #28]
	add	sp, #32
	pop	{r4, pc}
.Ltmp312:
.Lfunc_end17:
	.size	sal_setsockopt, .Lfunc_end17-sal_setsockopt
	.cfi_endproc
	.cantunwind
	.fnend
                                        @ -- End function
	.section	.text.sal_connect,"ax",%progbits
	.hidden	sal_connect                     @ -- Begin function sal_connect
	.globl	sal_connect
	.p2align	3
	.type	sal_connect,%function
	.code	16                              @ @sal_connect
	.thumb_func
sal_connect:
.Lfunc_begin18:
	.loc	2 802 0                         @ rt-thread/components/net/sal_socket/src/sal_socket.c:802:0
	.fnstart
	.cfi_startproc
@ %bb.0:
	.save	{r7, lr}
	push	{r7, lr}
	.cfi_def_cfa_offset 8
	.cfi_offset lr, -4
	.cfi_offset r7, -8
	.pad	#32
	sub	sp, #32
	.cfi_def_cfa_offset 40
	str	r0, [sp, #24]
	str	r1, [sp, #20]
	str	r2, [sp, #16]
.Ltmp313:
	.loc	2 808 5 prologue_end            @ rt-thread/components/net/sal_socket/src/sal_socket.c:808:5
	b	.LBB18_1
.LBB18_1:
.Ltmp314:
	.loc	2 808 5 is_stmt 0               @ rt-thread/components/net/sal_socket/src/sal_socket.c:808:5
	ldr	r0, [sp, #24]
	bl	sal_get_socket
	str	r0, [sp, #12]
.Ltmp315:
	.loc	2 808 5                         @ rt-thread/components/net/sal_socket/src/sal_socket.c:808:5
	ldr	r0, [sp, #12]
.Ltmp316:
	.loc	2 808 5                         @ rt-thread/components/net/sal_socket/src/sal_socket.c:808:5
	cbnz	r0, .LBB18_3
	b	.LBB18_2
.LBB18_2:
	.loc	2 0 5                           @ rt-thread/components/net/sal_socket/src/sal_socket.c:0:5
	mov.w	r0, #-1
.Ltmp317:
	.loc	2 808 5                         @ rt-thread/components/net/sal_socket/src/sal_socket.c:808:5
	str	r0, [sp, #28]
	b	.LBB18_15
.Ltmp318:
.LBB18_3:
	.loc	2 808 5                         @ rt-thread/components/net/sal_socket/src/sal_socket.c:808:5
	b	.LBB18_4
.Ltmp319:
.LBB18_4:
	.loc	2 811 5 is_stmt 1               @ rt-thread/components/net/sal_socket/src/sal_socket.c:811:5
	b	.LBB18_5
.LBB18_5:
.Ltmp320:
	.loc	2 811 5 is_stmt 0               @ rt-thread/components/net/sal_socket/src/sal_socket.c:811:5
	ldr	r0, [sp, #12]
	ldr	r0, [r0, #20]
	ldrh	r0, [r0, #42]
.Ltmp321:
	.loc	2 811 5                         @ rt-thread/components/net/sal_socket/src/sal_socket.c:811:5
	lsls	r0, r0, #31
	cbz	r0, .LBB18_7
	b	.LBB18_6
.LBB18_6:
	.loc	2 0 5                           @ rt-thread/components/net/sal_socket/src/sal_socket.c:0:5
	movs	r0, #1
.Ltmp322:
	.loc	2 811 5                         @ rt-thread/components/net/sal_socket/src/sal_socket.c:811:5
	cbnz	r0, .LBB18_9
	b	.LBB18_8
.Ltmp323:
.LBB18_7:
	.loc	2 0 5                           @ rt-thread/components/net/sal_socket/src/sal_socket.c:0:5
	movs	r0, #0
	.loc	2 811 5                         @ rt-thread/components/net/sal_socket/src/sal_socket.c:811:5
	cbnz	r0, .LBB18_9
	b	.LBB18_8
.LBB18_8:
	.loc	2 0 5                           @ rt-thread/components/net/sal_socket/src/sal_socket.c:0:5
	mov.w	r0, #-1
.Ltmp324:
	.loc	2 811 5                         @ rt-thread/components/net/sal_socket/src/sal_socket.c:811:5
	str	r0, [sp, #28]
	b	.LBB18_15
.Ltmp325:
.LBB18_9:
	.loc	2 811 5                         @ rt-thread/components/net/sal_socket/src/sal_socket.c:811:5
	b	.LBB18_10
.Ltmp326:
.LBB18_10:
	.loc	2 813 5 is_stmt 1               @ rt-thread/components/net/sal_socket/src/sal_socket.c:813:5
	b	.LBB18_11
.LBB18_11:
.Ltmp327:
	.loc	2 813 5 is_stmt 0               @ rt-thread/components/net/sal_socket/src/sal_socket.c:813:5
	ldr	r0, [sp, #12]
	ldr	r0, [r0, #20]
	ldr	r0, [r0, #60]
	str	r0, [sp, #8]
.Ltmp328:
	.loc	2 813 5                         @ rt-thread/components/net/sal_socket/src/sal_socket.c:813:5
	ldr	r0, [sp, #8]
	ldr	r0, [r0, #8]
	ldr	r0, [r0, #16]
.Ltmp329:
	.loc	2 813 5                         @ rt-thread/components/net/sal_socket/src/sal_socket.c:813:5
	cbnz	r0, .LBB18_13
	b	.LBB18_12
.LBB18_12:
	.loc	2 0 5                           @ rt-thread/components/net/sal_socket/src/sal_socket.c:0:5
	mov.w	r0, #-1
.Ltmp330:
	.loc	2 813 5                         @ rt-thread/components/net/sal_socket/src/sal_socket.c:813:5
	str	r0, [sp, #28]
	b	.LBB18_15
.Ltmp331:
.LBB18_13:
	.loc	2 813 5                         @ rt-thread/components/net/sal_socket/src/sal_socket.c:813:5
	b	.LBB18_14
.Ltmp332:
.LBB18_14:
	.loc	2 815 11 is_stmt 1              @ rt-thread/components/net/sal_socket/src/sal_socket.c:815:11
	ldr	r0, [sp, #8]
	.loc	2 815 15 is_stmt 0              @ rt-thread/components/net/sal_socket/src/sal_socket.c:815:15
	ldr	r0, [r0, #8]
	.loc	2 815 24                        @ rt-thread/components/net/sal_socket/src/sal_socket.c:815:24
	ldr	r3, [r0, #16]
	.loc	2 815 38                        @ rt-thread/components/net/sal_socket/src/sal_socket.c:815:38
	ldr	r0, [sp, #12]
	.loc	2 815 44                        @ rt-thread/components/net/sal_socket/src/sal_socket.c:815:44
	ldr	r0, [r0, #24]
	.loc	2 815 55                        @ rt-thread/components/net/sal_socket/src/sal_socket.c:815:55
	ldr	r1, [sp, #20]
	.loc	2 815 61                        @ rt-thread/components/net/sal_socket/src/sal_socket.c:815:61
	ldr	r2, [sp, #16]
	.loc	2 815 11                        @ rt-thread/components/net/sal_socket/src/sal_socket.c:815:11
	blx	r3
	.loc	2 815 9                         @ rt-thread/components/net/sal_socket/src/sal_socket.c:815:9
	str	r0, [sp, #4]
	.loc	2 828 12 is_stmt 1              @ rt-thread/components/net/sal_socket/src/sal_socket.c:828:12
	ldr	r0, [sp, #4]
	.loc	2 828 5 is_stmt 0               @ rt-thread/components/net/sal_socket/src/sal_socket.c:828:5
	str	r0, [sp, #28]
	b	.LBB18_15
.LBB18_15:
	.loc	2 829 1 is_stmt 1               @ rt-thread/components/net/sal_socket/src/sal_socket.c:829:1
	ldr	r0, [sp, #28]
	add	sp, #32
	pop	{r7, pc}
.Ltmp333:
.Lfunc_end18:
	.size	sal_connect, .Lfunc_end18-sal_connect
	.cfi_endproc
	.cantunwind
	.fnend
                                        @ -- End function
	.section	.text.sal_listen,"ax",%progbits
	.hidden	sal_listen                      @ -- Begin function sal_listen
	.globl	sal_listen
	.p2align	3
	.type	sal_listen,%function
	.code	16                              @ @sal_listen
	.thumb_func
sal_listen:
.Lfunc_begin19:
	.loc	2 832 0                         @ rt-thread/components/net/sal_socket/src/sal_socket.c:832:0
	.fnstart
	.cfi_startproc
@ %bb.0:
	.save	{r7, lr}
	push	{r7, lr}
	.cfi_def_cfa_offset 8
	.cfi_offset lr, -4
	.cfi_offset r7, -8
	.pad	#24
	sub	sp, #24
	.cfi_def_cfa_offset 32
	str	r0, [sp, #16]
	str	r1, [sp, #12]
.Ltmp334:
	.loc	2 837 5 prologue_end            @ rt-thread/components/net/sal_socket/src/sal_socket.c:837:5
	b	.LBB19_1
.LBB19_1:
.Ltmp335:
	.loc	2 837 5 is_stmt 0               @ rt-thread/components/net/sal_socket/src/sal_socket.c:837:5
	ldr	r0, [sp, #16]
	bl	sal_get_socket
	str	r0, [sp, #8]
.Ltmp336:
	.loc	2 837 5                         @ rt-thread/components/net/sal_socket/src/sal_socket.c:837:5
	ldr	r0, [sp, #8]
.Ltmp337:
	.loc	2 837 5                         @ rt-thread/components/net/sal_socket/src/sal_socket.c:837:5
	cbnz	r0, .LBB19_3
	b	.LBB19_2
.LBB19_2:
	.loc	2 0 5                           @ rt-thread/components/net/sal_socket/src/sal_socket.c:0:5
	mov.w	r0, #-1
.Ltmp338:
	.loc	2 837 5                         @ rt-thread/components/net/sal_socket/src/sal_socket.c:837:5
	str	r0, [sp, #20]
	b	.LBB19_9
.Ltmp339:
.LBB19_3:
	.loc	2 837 5                         @ rt-thread/components/net/sal_socket/src/sal_socket.c:837:5
	b	.LBB19_4
.Ltmp340:
.LBB19_4:
	.loc	2 840 5 is_stmt 1               @ rt-thread/components/net/sal_socket/src/sal_socket.c:840:5
	b	.LBB19_5
.LBB19_5:
.Ltmp341:
	.loc	2 840 5 is_stmt 0               @ rt-thread/components/net/sal_socket/src/sal_socket.c:840:5
	ldr	r0, [sp, #8]
	ldr	r0, [r0, #20]
	ldr	r0, [r0, #60]
	str	r0, [sp, #4]
.Ltmp342:
	.loc	2 840 5                         @ rt-thread/components/net/sal_socket/src/sal_socket.c:840:5
	ldr	r0, [sp, #4]
	ldr	r0, [r0, #8]
	ldr	r0, [r0, #12]
.Ltmp343:
	.loc	2 840 5                         @ rt-thread/components/net/sal_socket/src/sal_socket.c:840:5
	cbnz	r0, .LBB19_7
	b	.LBB19_6
.LBB19_6:
	.loc	2 0 5                           @ rt-thread/components/net/sal_socket/src/sal_socket.c:0:5
	mov.w	r0, #-1
.Ltmp344:
	.loc	2 840 5                         @ rt-thread/components/net/sal_socket/src/sal_socket.c:840:5
	str	r0, [sp, #20]
	b	.LBB19_9
.Ltmp345:
.LBB19_7:
	.loc	2 840 5                         @ rt-thread/components/net/sal_socket/src/sal_socket.c:840:5
	b	.LBB19_8
.Ltmp346:
.LBB19_8:
	.loc	2 842 12 is_stmt 1              @ rt-thread/components/net/sal_socket/src/sal_socket.c:842:12
	ldr	r0, [sp, #4]
	.loc	2 842 16 is_stmt 0              @ rt-thread/components/net/sal_socket/src/sal_socket.c:842:16
	ldr	r0, [r0, #8]
	.loc	2 842 25                        @ rt-thread/components/net/sal_socket/src/sal_socket.c:842:25
	ldr	r2, [r0, #12]
	.loc	2 842 38                        @ rt-thread/components/net/sal_socket/src/sal_socket.c:842:38
	ldr	r0, [sp, #8]
	.loc	2 842 44                        @ rt-thread/components/net/sal_socket/src/sal_socket.c:842:44
	ldr	r0, [r0, #24]
	.loc	2 842 55                        @ rt-thread/components/net/sal_socket/src/sal_socket.c:842:55
	ldr	r1, [sp, #12]
	.loc	2 842 12                        @ rt-thread/components/net/sal_socket/src/sal_socket.c:842:12
	blx	r2
	.loc	2 842 5                         @ rt-thread/components/net/sal_socket/src/sal_socket.c:842:5
	str	r0, [sp, #20]
	b	.LBB19_9
.LBB19_9:
	.loc	2 843 1 is_stmt 1               @ rt-thread/components/net/sal_socket/src/sal_socket.c:843:1
	ldr	r0, [sp, #20]
	add	sp, #24
	pop	{r7, pc}
.Ltmp347:
.Lfunc_end19:
	.size	sal_listen, .Lfunc_end19-sal_listen
	.cfi_endproc
	.cantunwind
	.fnend
                                        @ -- End function
	.section	.text.sal_recvfrom,"ax",%progbits
	.hidden	sal_recvfrom                    @ -- Begin function sal_recvfrom
	.globl	sal_recvfrom
	.p2align	3
	.type	sal_recvfrom,%function
	.code	16                              @ @sal_recvfrom
	.thumb_func
sal_recvfrom:
.Lfunc_begin20:
	.loc	2 847 0                         @ rt-thread/components/net/sal_socket/src/sal_socket.c:847:0
	.fnstart
	.cfi_startproc
@ %bb.0:
	.save	{r4, r5, r7, lr}
	push	{r4, r5, r7, lr}
	.cfi_def_cfa_offset 16
	.cfi_offset lr, -4
	.cfi_offset r7, -8
	.cfi_offset r5, -12
	.cfi_offset r4, -16
	.pad	#40
	sub	sp, #40
	.cfi_def_cfa_offset 56
	ldr.w	r12, [sp, #60]
	ldr.w	r12, [sp, #56]
	str	r0, [sp, #32]
	str	r1, [sp, #28]
	str	r2, [sp, #24]
	str	r3, [sp, #20]
.Ltmp348:
	.loc	2 852 5 prologue_end            @ rt-thread/components/net/sal_socket/src/sal_socket.c:852:5
	b	.LBB20_1
.LBB20_1:
.Ltmp349:
	.loc	2 852 5 is_stmt 0               @ rt-thread/components/net/sal_socket/src/sal_socket.c:852:5
	ldr	r0, [sp, #32]
	bl	sal_get_socket
	str	r0, [sp, #16]
.Ltmp350:
	.loc	2 852 5                         @ rt-thread/components/net/sal_socket/src/sal_socket.c:852:5
	ldr	r0, [sp, #16]
.Ltmp351:
	.loc	2 852 5                         @ rt-thread/components/net/sal_socket/src/sal_socket.c:852:5
	cbnz	r0, .LBB20_3
	b	.LBB20_2
.LBB20_2:
	.loc	2 0 5                           @ rt-thread/components/net/sal_socket/src/sal_socket.c:0:5
	mov.w	r0, #-1
.Ltmp352:
	.loc	2 852 5                         @ rt-thread/components/net/sal_socket/src/sal_socket.c:852:5
	str	r0, [sp, #36]
	b	.LBB20_15
.Ltmp353:
.LBB20_3:
	.loc	2 852 5                         @ rt-thread/components/net/sal_socket/src/sal_socket.c:852:5
	b	.LBB20_4
.Ltmp354:
.LBB20_4:
	.loc	2 855 5 is_stmt 1               @ rt-thread/components/net/sal_socket/src/sal_socket.c:855:5
	b	.LBB20_5
.LBB20_5:
.Ltmp355:
	.loc	2 855 5 is_stmt 0               @ rt-thread/components/net/sal_socket/src/sal_socket.c:855:5
	ldr	r0, [sp, #16]
	ldr	r0, [r0, #20]
	ldrh	r0, [r0, #42]
.Ltmp356:
	.loc	2 855 5                         @ rt-thread/components/net/sal_socket/src/sal_socket.c:855:5
	lsls	r0, r0, #31
	cbz	r0, .LBB20_7
	b	.LBB20_6
.LBB20_6:
	.loc	2 0 5                           @ rt-thread/components/net/sal_socket/src/sal_socket.c:0:5
	movs	r0, #1
.Ltmp357:
	.loc	2 855 5                         @ rt-thread/components/net/sal_socket/src/sal_socket.c:855:5
	cbnz	r0, .LBB20_9
	b	.LBB20_8
.Ltmp358:
.LBB20_7:
	.loc	2 0 5                           @ rt-thread/components/net/sal_socket/src/sal_socket.c:0:5
	movs	r0, #0
	.loc	2 855 5                         @ rt-thread/components/net/sal_socket/src/sal_socket.c:855:5
	cbnz	r0, .LBB20_9
	b	.LBB20_8
.LBB20_8:
	.loc	2 0 5                           @ rt-thread/components/net/sal_socket/src/sal_socket.c:0:5
	mov.w	r0, #-1
.Ltmp359:
	.loc	2 855 5                         @ rt-thread/components/net/sal_socket/src/sal_socket.c:855:5
	str	r0, [sp, #36]
	b	.LBB20_15
.Ltmp360:
.LBB20_9:
	.loc	2 855 5                         @ rt-thread/components/net/sal_socket/src/sal_socket.c:855:5
	b	.LBB20_10
.Ltmp361:
.LBB20_10:
	.loc	2 857 5 is_stmt 1               @ rt-thread/components/net/sal_socket/src/sal_socket.c:857:5
	b	.LBB20_11
.LBB20_11:
.Ltmp362:
	.loc	2 857 5 is_stmt 0               @ rt-thread/components/net/sal_socket/src/sal_socket.c:857:5
	ldr	r0, [sp, #16]
	ldr	r0, [r0, #20]
	ldr	r0, [r0, #60]
	str	r0, [sp, #12]
.Ltmp363:
	.loc	2 857 5                         @ rt-thread/components/net/sal_socket/src/sal_socket.c:857:5
	ldr	r0, [sp, #12]
	ldr	r0, [r0, #8]
	ldr	r0, [r0, #28]
.Ltmp364:
	.loc	2 857 5                         @ rt-thread/components/net/sal_socket/src/sal_socket.c:857:5
	cbnz	r0, .LBB20_13
	b	.LBB20_12
.LBB20_12:
	.loc	2 0 5                           @ rt-thread/components/net/sal_socket/src/sal_socket.c:0:5
	mov.w	r0, #-1
.Ltmp365:
	.loc	2 857 5                         @ rt-thread/components/net/sal_socket/src/sal_socket.c:857:5
	str	r0, [sp, #36]
	b	.LBB20_15
.Ltmp366:
.LBB20_13:
	.loc	2 857 5                         @ rt-thread/components/net/sal_socket/src/sal_socket.c:857:5
	b	.LBB20_14
.Ltmp367:
.LBB20_14:
	.loc	2 875 12 is_stmt 1              @ rt-thread/components/net/sal_socket/src/sal_socket.c:875:12
	ldr	r0, [sp, #12]
	.loc	2 875 16 is_stmt 0              @ rt-thread/components/net/sal_socket/src/sal_socket.c:875:16
	ldr	r0, [r0, #8]
	.loc	2 875 25                        @ rt-thread/components/net/sal_socket/src/sal_socket.c:875:25
	ldr.w	r12, [r0, #28]
	.loc	2 875 40                        @ rt-thread/components/net/sal_socket/src/sal_socket.c:875:40
	ldr	r0, [sp, #16]
	.loc	2 875 46                        @ rt-thread/components/net/sal_socket/src/sal_socket.c:875:46
	ldr	r0, [r0, #24]
	.loc	2 875 57                        @ rt-thread/components/net/sal_socket/src/sal_socket.c:875:57
	ldr	r1, [sp, #28]
	.loc	2 875 62                        @ rt-thread/components/net/sal_socket/src/sal_socket.c:875:62
	ldr	r2, [sp, #24]
	.loc	2 875 67                        @ rt-thread/components/net/sal_socket/src/sal_socket.c:875:67
	ldr	r3, [sp, #20]
	.loc	2 875 74                        @ rt-thread/components/net/sal_socket/src/sal_socket.c:875:74
	ldr.w	lr, [sp, #56]
	.loc	2 875 80                        @ rt-thread/components/net/sal_socket/src/sal_socket.c:875:80
	ldr	r5, [sp, #60]
	.loc	2 875 12                        @ rt-thread/components/net/sal_socket/src/sal_socket.c:875:12
	mov	r4, sp
	str	r5, [r4, #4]
	str.w	lr, [r4]
	blx	r12
	.loc	2 875 5                         @ rt-thread/components/net/sal_socket/src/sal_socket.c:875:5
	str	r0, [sp, #36]
	b	.LBB20_15
.LBB20_15:
	.loc	2 877 1 is_stmt 1               @ rt-thread/components/net/sal_socket/src/sal_socket.c:877:1
	ldr	r0, [sp, #36]
	add	sp, #40
	pop	{r4, r5, r7, pc}
.Ltmp368:
.Lfunc_end20:
	.size	sal_recvfrom, .Lfunc_end20-sal_recvfrom
	.cfi_endproc
	.cantunwind
	.fnend
                                        @ -- End function
	.section	.text.sal_sendto,"ax",%progbits
	.hidden	sal_sendto                      @ -- Begin function sal_sendto
	.globl	sal_sendto
	.p2align	3
	.type	sal_sendto,%function
	.code	16                              @ @sal_sendto
	.thumb_func
sal_sendto:
.Lfunc_begin21:
	.loc	2 881 0                         @ rt-thread/components/net/sal_socket/src/sal_socket.c:881:0
	.fnstart
	.cfi_startproc
@ %bb.0:
	.save	{r4, r5, r7, lr}
	push	{r4, r5, r7, lr}
	.cfi_def_cfa_offset 16
	.cfi_offset lr, -4
	.cfi_offset r7, -8
	.cfi_offset r5, -12
	.cfi_offset r4, -16
	.pad	#40
	sub	sp, #40
	.cfi_def_cfa_offset 56
	ldr.w	r12, [sp, #60]
	ldr.w	r12, [sp, #56]
	str	r0, [sp, #32]
	str	r1, [sp, #28]
	str	r2, [sp, #24]
	str	r3, [sp, #20]
.Ltmp369:
	.loc	2 886 5 prologue_end            @ rt-thread/components/net/sal_socket/src/sal_socket.c:886:5
	b	.LBB21_1
.LBB21_1:
.Ltmp370:
	.loc	2 886 5 is_stmt 0               @ rt-thread/components/net/sal_socket/src/sal_socket.c:886:5
	ldr	r0, [sp, #32]
	bl	sal_get_socket
	str	r0, [sp, #16]
.Ltmp371:
	.loc	2 886 5                         @ rt-thread/components/net/sal_socket/src/sal_socket.c:886:5
	ldr	r0, [sp, #16]
.Ltmp372:
	.loc	2 886 5                         @ rt-thread/components/net/sal_socket/src/sal_socket.c:886:5
	cbnz	r0, .LBB21_3
	b	.LBB21_2
.LBB21_2:
	.loc	2 0 5                           @ rt-thread/components/net/sal_socket/src/sal_socket.c:0:5
	mov.w	r0, #-1
.Ltmp373:
	.loc	2 886 5                         @ rt-thread/components/net/sal_socket/src/sal_socket.c:886:5
	str	r0, [sp, #36]
	b	.LBB21_15
.Ltmp374:
.LBB21_3:
	.loc	2 886 5                         @ rt-thread/components/net/sal_socket/src/sal_socket.c:886:5
	b	.LBB21_4
.Ltmp375:
.LBB21_4:
	.loc	2 889 5 is_stmt 1               @ rt-thread/components/net/sal_socket/src/sal_socket.c:889:5
	b	.LBB21_5
.LBB21_5:
.Ltmp376:
	.loc	2 889 5 is_stmt 0               @ rt-thread/components/net/sal_socket/src/sal_socket.c:889:5
	ldr	r0, [sp, #16]
	ldr	r0, [r0, #20]
	ldrh	r0, [r0, #42]
.Ltmp377:
	.loc	2 889 5                         @ rt-thread/components/net/sal_socket/src/sal_socket.c:889:5
	lsls	r0, r0, #31
	cbz	r0, .LBB21_7
	b	.LBB21_6
.LBB21_6:
	.loc	2 0 5                           @ rt-thread/components/net/sal_socket/src/sal_socket.c:0:5
	movs	r0, #1
.Ltmp378:
	.loc	2 889 5                         @ rt-thread/components/net/sal_socket/src/sal_socket.c:889:5
	cbnz	r0, .LBB21_9
	b	.LBB21_8
.Ltmp379:
.LBB21_7:
	.loc	2 0 5                           @ rt-thread/components/net/sal_socket/src/sal_socket.c:0:5
	movs	r0, #0
	.loc	2 889 5                         @ rt-thread/components/net/sal_socket/src/sal_socket.c:889:5
	cbnz	r0, .LBB21_9
	b	.LBB21_8
.LBB21_8:
	.loc	2 0 5                           @ rt-thread/components/net/sal_socket/src/sal_socket.c:0:5
	mov.w	r0, #-1
.Ltmp380:
	.loc	2 889 5                         @ rt-thread/components/net/sal_socket/src/sal_socket.c:889:5
	str	r0, [sp, #36]
	b	.LBB21_15
.Ltmp381:
.LBB21_9:
	.loc	2 889 5                         @ rt-thread/components/net/sal_socket/src/sal_socket.c:889:5
	b	.LBB21_10
.Ltmp382:
.LBB21_10:
	.loc	2 891 5 is_stmt 1               @ rt-thread/components/net/sal_socket/src/sal_socket.c:891:5
	b	.LBB21_11
.LBB21_11:
.Ltmp383:
	.loc	2 891 5 is_stmt 0               @ rt-thread/components/net/sal_socket/src/sal_socket.c:891:5
	ldr	r0, [sp, #16]
	ldr	r0, [r0, #20]
	ldr	r0, [r0, #60]
	str	r0, [sp, #12]
.Ltmp384:
	.loc	2 891 5                         @ rt-thread/components/net/sal_socket/src/sal_socket.c:891:5
	ldr	r0, [sp, #12]
	ldr	r0, [r0, #8]
	ldr	r0, [r0, #24]
.Ltmp385:
	.loc	2 891 5                         @ rt-thread/components/net/sal_socket/src/sal_socket.c:891:5
	cbnz	r0, .LBB21_13
	b	.LBB21_12
.LBB21_12:
	.loc	2 0 5                           @ rt-thread/components/net/sal_socket/src/sal_socket.c:0:5
	mov.w	r0, #-1
.Ltmp386:
	.loc	2 891 5                         @ rt-thread/components/net/sal_socket/src/sal_socket.c:891:5
	str	r0, [sp, #36]
	b	.LBB21_15
.Ltmp387:
.LBB21_13:
	.loc	2 891 5                         @ rt-thread/components/net/sal_socket/src/sal_socket.c:891:5
	b	.LBB21_14
.Ltmp388:
.LBB21_14:
	.loc	2 909 12 is_stmt 1              @ rt-thread/components/net/sal_socket/src/sal_socket.c:909:12
	ldr	r0, [sp, #12]
	.loc	2 909 16 is_stmt 0              @ rt-thread/components/net/sal_socket/src/sal_socket.c:909:16
	ldr	r0, [r0, #8]
	.loc	2 909 25                        @ rt-thread/components/net/sal_socket/src/sal_socket.c:909:25
	ldr.w	r12, [r0, #24]
	.loc	2 909 38                        @ rt-thread/components/net/sal_socket/src/sal_socket.c:909:38
	ldr	r0, [sp, #16]
	.loc	2 909 44                        @ rt-thread/components/net/sal_socket/src/sal_socket.c:909:44
	ldr	r0, [r0, #24]
	.loc	2 909 55                        @ rt-thread/components/net/sal_socket/src/sal_socket.c:909:55
	ldr	r1, [sp, #28]
	.loc	2 909 64                        @ rt-thread/components/net/sal_socket/src/sal_socket.c:909:64
	ldr	r2, [sp, #24]
	.loc	2 909 70                        @ rt-thread/components/net/sal_socket/src/sal_socket.c:909:70
	ldr	r3, [sp, #20]
	.loc	2 909 77                        @ rt-thread/components/net/sal_socket/src/sal_socket.c:909:77
	ldr.w	lr, [sp, #56]
	.loc	2 909 81                        @ rt-thread/components/net/sal_socket/src/sal_socket.c:909:81
	ldr	r5, [sp, #60]
	.loc	2 909 12                        @ rt-thread/components/net/sal_socket/src/sal_socket.c:909:12
	mov	r4, sp
	str	r5, [r4, #4]
	str.w	lr, [r4]
	blx	r12
	.loc	2 909 5                         @ rt-thread/components/net/sal_socket/src/sal_socket.c:909:5
	str	r0, [sp, #36]
	b	.LBB21_15
.LBB21_15:
	.loc	2 911 1 is_stmt 1               @ rt-thread/components/net/sal_socket/src/sal_socket.c:911:1
	ldr	r0, [sp, #36]
	add	sp, #40
	pop	{r4, r5, r7, pc}
.Ltmp389:
.Lfunc_end21:
	.size	sal_sendto, .Lfunc_end21-sal_sendto
	.cfi_endproc
	.cantunwind
	.fnend
                                        @ -- End function
	.section	.text.sal_socket,"ax",%progbits
	.hidden	sal_socket                      @ -- Begin function sal_socket
	.globl	sal_socket
	.p2align	3
	.type	sal_socket,%function
	.code	16                              @ @sal_socket
	.thumb_func
sal_socket:
.Lfunc_begin22:
	.loc	2 914 0                         @ rt-thread/components/net/sal_socket/src/sal_socket.c:914:0
	.fnstart
	.cfi_startproc
@ %bb.0:
	.save	{r7, lr}
	push	{r7, lr}
	.cfi_def_cfa_offset 8
	.cfi_offset lr, -4
	.cfi_offset r7, -8
	.pad	#40
	sub	sp, #40
	.cfi_def_cfa_offset 48
	str	r0, [sp, #32]
	str	r1, [sp, #28]
	str	r2, [sp, #24]
.Ltmp390:
	.loc	2 921 14 prologue_end           @ rt-thread/components/net/sal_socket/src/sal_socket.c:921:14
	bl	socket_new
	.loc	2 921 12 is_stmt 0              @ rt-thread/components/net/sal_socket/src/sal_socket.c:921:12
	str	r0, [sp, #16]
.Ltmp391:
	.loc	2 922 9 is_stmt 1               @ rt-thread/components/net/sal_socket/src/sal_socket.c:922:9
	ldr	r0, [sp, #16]
.Ltmp392:
	.loc	2 922 9 is_stmt 0               @ rt-thread/components/net/sal_socket/src/sal_socket.c:922:9
	cmp.w	r0, #-1
	bgt	.LBB22_2
	b	.LBB22_1
.LBB22_1:
	.loc	2 0 9                           @ rt-thread/components/net/sal_socket/src/sal_socket.c:0:9
	mov.w	r0, #-1
.Ltmp393:
	.loc	2 924 9 is_stmt 1               @ rt-thread/components/net/sal_socket/src/sal_socket.c:924:9
	str	r0, [sp, #36]
	b	.LBB22_15
.Ltmp394:
.LBB22_2:
	.loc	2 928 27                        @ rt-thread/components/net/sal_socket/src/sal_socket.c:928:27
	ldr	r0, [sp, #16]
	.loc	2 928 12 is_stmt 0              @ rt-thread/components/net/sal_socket/src/sal_socket.c:928:12
	bl	sal_get_socket
	.loc	2 928 10                        @ rt-thread/components/net/sal_socket/src/sal_socket.c:928:10
	str	r0, [sp, #8]
.Ltmp395:
	.loc	2 929 9 is_stmt 1               @ rt-thread/components/net/sal_socket/src/sal_socket.c:929:9
	ldr	r0, [sp, #8]
.Ltmp396:
	.loc	2 929 9 is_stmt 0               @ rt-thread/components/net/sal_socket/src/sal_socket.c:929:9
	cbnz	r0, .LBB22_4
	b	.LBB22_3
.LBB22_3:
.Ltmp397:
	.loc	2 931 23 is_stmt 1              @ rt-thread/components/net/sal_socket/src/sal_socket.c:931:23
	ldr	r0, [sp, #16]
	.loc	2 931 9 is_stmt 0               @ rt-thread/components/net/sal_socket/src/sal_socket.c:931:9
	bl	socket_delete
	mov.w	r0, #-1
	.loc	2 932 9 is_stmt 1               @ rt-thread/components/net/sal_socket/src/sal_socket.c:932:9
	str	r0, [sp, #36]
	b	.LBB22_15
.Ltmp398:
.LBB22_4:
	.loc	2 936 26                        @ rt-thread/components/net/sal_socket/src/sal_socket.c:936:26
	ldr	r0, [sp, #32]
	.loc	2 936 34 is_stmt 0              @ rt-thread/components/net/sal_socket/src/sal_socket.c:936:34
	ldr	r1, [sp, #28]
	.loc	2 936 40                        @ rt-thread/components/net/sal_socket/src/sal_socket.c:936:40
	ldr	r2, [sp, #24]
	add	r3, sp, #8
	.loc	2 936 14                        @ rt-thread/components/net/sal_socket/src/sal_socket.c:936:14
	bl	socket_init
	.loc	2 936 12                        @ rt-thread/components/net/sal_socket/src/sal_socket.c:936:12
	str	r0, [sp, #20]
.Ltmp399:
	.loc	2 937 9 is_stmt 1               @ rt-thread/components/net/sal_socket/src/sal_socket.c:937:9
	ldr	r0, [sp, #20]
.Ltmp400:
	.loc	2 937 9 is_stmt 0               @ rt-thread/components/net/sal_socket/src/sal_socket.c:937:9
	cmp.w	r0, #-1
	bgt	.LBB22_8
	b	.LBB22_5
.LBB22_5:
.Ltmp401:
	.loc	2 939 9 is_stmt 1               @ rt-thread/components/net/sal_socket/src/sal_socket.c:939:9
	b	.LBB22_6
.LBB22_6:
.Ltmp402:
	.loc	2 939 9 is_stmt 0               @ rt-thread/components/net/sal_socket/src/sal_socket.c:939:9
	movw	r0, :lower16:.L.str
	movt	r0, :upper16:.L.str
	bl	rt_kprintf
	ldr	r1, [sp, #20]
	movw	r0, :lower16:.L.str.12
	movt	r0, :upper16:.L.str.12
	bl	rt_kprintf
	movw	r0, :lower16:.L.str.2
	movt	r0, :upper16:.L.str.2
	bl	rt_kprintf
	b	.LBB22_7
.Ltmp403:
.LBB22_7:
	.loc	2 940 23 is_stmt 1              @ rt-thread/components/net/sal_socket/src/sal_socket.c:940:23
	ldr	r0, [sp, #16]
	.loc	2 940 9 is_stmt 0               @ rt-thread/components/net/sal_socket/src/sal_socket.c:940:9
	bl	socket_delete
	mov.w	r0, #-1
	.loc	2 941 9 is_stmt 1               @ rt-thread/components/net/sal_socket/src/sal_socket.c:941:9
	str	r0, [sp, #36]
	b	.LBB22_15
.Ltmp404:
.LBB22_8:
	.loc	2 945 5                         @ rt-thread/components/net/sal_socket/src/sal_socket.c:945:5
	b	.LBB22_9
.LBB22_9:
.Ltmp405:
	.loc	2 945 5 is_stmt 0               @ rt-thread/components/net/sal_socket/src/sal_socket.c:945:5
	ldr	r0, [sp, #8]
	ldr	r0, [r0, #20]
	ldr	r0, [r0, #60]
	str	r0, [sp, #4]
.Ltmp406:
	.loc	2 945 5                         @ rt-thread/components/net/sal_socket/src/sal_socket.c:945:5
	ldr	r0, [sp, #4]
	ldr	r0, [r0, #8]
	ldr	r0, [r0]
.Ltmp407:
	.loc	2 945 5                         @ rt-thread/components/net/sal_socket/src/sal_socket.c:945:5
	cbnz	r0, .LBB22_11
	b	.LBB22_10
.LBB22_10:
	.loc	2 0 5                           @ rt-thread/components/net/sal_socket/src/sal_socket.c:0:5
	mov.w	r0, #-1
.Ltmp408:
	.loc	2 945 5                         @ rt-thread/components/net/sal_socket/src/sal_socket.c:945:5
	str	r0, [sp, #36]
	b	.LBB22_15
.Ltmp409:
.LBB22_11:
	.loc	2 945 5                         @ rt-thread/components/net/sal_socket/src/sal_socket.c:945:5
	b	.LBB22_12
.Ltmp410:
.LBB22_12:
	.loc	2 947 20 is_stmt 1              @ rt-thread/components/net/sal_socket/src/sal_socket.c:947:20
	ldr	r0, [sp, #4]
	.loc	2 947 24 is_stmt 0              @ rt-thread/components/net/sal_socket/src/sal_socket.c:947:24
	ldr	r0, [r0, #8]
	.loc	2 947 33                        @ rt-thread/components/net/sal_socket/src/sal_socket.c:947:33
	ldr	r3, [r0]
	.loc	2 947 40                        @ rt-thread/components/net/sal_socket/src/sal_socket.c:947:40
	ldr	r0, [sp, #32]
	.loc	2 947 48                        @ rt-thread/components/net/sal_socket/src/sal_socket.c:947:48
	ldr	r1, [sp, #28]
	.loc	2 947 54                        @ rt-thread/components/net/sal_socket/src/sal_socket.c:947:54
	ldr	r2, [sp, #24]
	.loc	2 947 20                        @ rt-thread/components/net/sal_socket/src/sal_socket.c:947:20
	blx	r3
	.loc	2 947 18                        @ rt-thread/components/net/sal_socket/src/sal_socket.c:947:18
	str	r0, [sp, #12]
.Ltmp411:
	.loc	2 948 9 is_stmt 1               @ rt-thread/components/net/sal_socket/src/sal_socket.c:948:9
	ldr	r0, [sp, #12]
.Ltmp412:
	.loc	2 948 9 is_stmt 0               @ rt-thread/components/net/sal_socket/src/sal_socket.c:948:9
	cmp	r0, #0
	bmi	.LBB22_14
	b	.LBB22_13
.LBB22_13:
.Ltmp413:
	.loc	2 961 36 is_stmt 1              @ rt-thread/components/net/sal_socket/src/sal_socket.c:961:36
	ldr	r0, [sp, #12]
	.loc	2 961 9 is_stmt 0               @ rt-thread/components/net/sal_socket/src/sal_socket.c:961:9
	ldr	r1, [sp, #8]
	.loc	2 961 25                        @ rt-thread/components/net/sal_socket/src/sal_socket.c:961:25
	str	r0, [r1, #24]
	.loc	2 962 16 is_stmt 1              @ rt-thread/components/net/sal_socket/src/sal_socket.c:962:16
	ldr	r0, [sp, #8]
	.loc	2 962 22 is_stmt 0              @ rt-thread/components/net/sal_socket/src/sal_socket.c:962:22
	ldr	r0, [r0, #4]
	.loc	2 962 9                         @ rt-thread/components/net/sal_socket/src/sal_socket.c:962:9
	str	r0, [sp, #36]
	b	.LBB22_15
.Ltmp414:
.LBB22_14:
	.loc	2 964 19 is_stmt 1              @ rt-thread/components/net/sal_socket/src/sal_socket.c:964:19
	ldr	r0, [sp, #16]
	.loc	2 964 5 is_stmt 0               @ rt-thread/components/net/sal_socket/src/sal_socket.c:964:5
	bl	socket_delete
	mov.w	r0, #-1
	.loc	2 965 5 is_stmt 1               @ rt-thread/components/net/sal_socket/src/sal_socket.c:965:5
	str	r0, [sp, #36]
	b	.LBB22_15
.LBB22_15:
	.loc	2 966 1                         @ rt-thread/components/net/sal_socket/src/sal_socket.c:966:1
	ldr	r0, [sp, #36]
	add	sp, #40
	pop	{r7, pc}
.Ltmp415:
.Lfunc_end22:
	.size	sal_socket, .Lfunc_end22-sal_socket
	.cfi_endproc
	.cantunwind
	.fnend
                                        @ -- End function
	.section	.text.sal_closesocket,"ax",%progbits
	.hidden	sal_closesocket                 @ -- Begin function sal_closesocket
	.globl	sal_closesocket
	.p2align	3
	.type	sal_closesocket,%function
	.code	16                              @ @sal_closesocket
	.thumb_func
sal_closesocket:
.Lfunc_begin23:
	.loc	2 969 0                         @ rt-thread/components/net/sal_socket/src/sal_socket.c:969:0
	.fnstart
	.cfi_startproc
@ %bb.0:
	.save	{r7, lr}
	push	{r7, lr}
	.cfi_def_cfa_offset 8
	.cfi_offset lr, -4
	.cfi_offset r7, -8
	.pad	#24
	sub	sp, #24
	.cfi_def_cfa_offset 32
	str	r0, [sp, #16]
	movs	r0, #0
.Ltmp416:
	.loc	2 972 9 prologue_end            @ rt-thread/components/net/sal_socket/src/sal_socket.c:972:9
	str	r0, [sp, #4]
	.loc	2 975 5                         @ rt-thread/components/net/sal_socket/src/sal_socket.c:975:5
	b	.LBB23_1
.LBB23_1:
.Ltmp417:
	.loc	2 975 5 is_stmt 0               @ rt-thread/components/net/sal_socket/src/sal_socket.c:975:5
	ldr	r0, [sp, #16]
	bl	sal_get_socket
	str	r0, [sp, #12]
.Ltmp418:
	.loc	2 975 5                         @ rt-thread/components/net/sal_socket/src/sal_socket.c:975:5
	ldr	r0, [sp, #12]
.Ltmp419:
	.loc	2 975 5                         @ rt-thread/components/net/sal_socket/src/sal_socket.c:975:5
	cbnz	r0, .LBB23_3
	b	.LBB23_2
.LBB23_2:
	.loc	2 0 5                           @ rt-thread/components/net/sal_socket/src/sal_socket.c:0:5
	mov.w	r0, #-1
.Ltmp420:
	.loc	2 975 5                         @ rt-thread/components/net/sal_socket/src/sal_socket.c:975:5
	str	r0, [sp, #20]
	b	.LBB23_12
.Ltmp421:
.LBB23_3:
	.loc	2 975 5                         @ rt-thread/components/net/sal_socket/src/sal_socket.c:975:5
	b	.LBB23_4
.Ltmp422:
.LBB23_4:
	.loc	2 979 5 is_stmt 1               @ rt-thread/components/net/sal_socket/src/sal_socket.c:979:5
	b	.LBB23_5
.LBB23_5:
.Ltmp423:
	.loc	2 979 5 is_stmt 0               @ rt-thread/components/net/sal_socket/src/sal_socket.c:979:5
	ldr	r0, [sp, #12]
	ldr	r0, [r0, #20]
	ldr	r0, [r0, #60]
	str	r0, [sp, #8]
.Ltmp424:
	.loc	2 979 5                         @ rt-thread/components/net/sal_socket/src/sal_socket.c:979:5
	ldr	r0, [sp, #8]
	ldr	r0, [r0, #8]
	ldr	r0, [r0, #4]
.Ltmp425:
	.loc	2 979 5                         @ rt-thread/components/net/sal_socket/src/sal_socket.c:979:5
	cbnz	r0, .LBB23_7
	b	.LBB23_6
.LBB23_6:
	.loc	2 0 5                           @ rt-thread/components/net/sal_socket/src/sal_socket.c:0:5
	mov.w	r0, #-1
.Ltmp426:
	.loc	2 979 5                         @ rt-thread/components/net/sal_socket/src/sal_socket.c:979:5
	str	r0, [sp, #20]
	b	.LBB23_12
.Ltmp427:
.LBB23_7:
	.loc	2 979 5                         @ rt-thread/components/net/sal_socket/src/sal_socket.c:979:5
	b	.LBB23_8
.Ltmp428:
.LBB23_8:
	.loc	2 981 9 is_stmt 1               @ rt-thread/components/net/sal_socket/src/sal_socket.c:981:9
	ldr	r0, [sp, #8]
	.loc	2 981 13 is_stmt 0              @ rt-thread/components/net/sal_socket/src/sal_socket.c:981:13
	ldr	r0, [r0, #8]
	.loc	2 981 22                        @ rt-thread/components/net/sal_socket/src/sal_socket.c:981:22
	ldr	r1, [r0, #4]
	.loc	2 981 40                        @ rt-thread/components/net/sal_socket/src/sal_socket.c:981:40
	ldr	r0, [sp, #12]
	.loc	2 981 46                        @ rt-thread/components/net/sal_socket/src/sal_socket.c:981:46
	ldr	r0, [r0, #24]
	.loc	2 981 9                         @ rt-thread/components/net/sal_socket/src/sal_socket.c:981:9
	blx	r1
.Ltmp429:
	.loc	2 981 9                         @ rt-thread/components/net/sal_socket/src/sal_socket.c:981:9
	cbnz	r0, .LBB23_10
	b	.LBB23_9
.LBB23_9:
	.loc	2 0 9                           @ rt-thread/components/net/sal_socket/src/sal_socket.c:0:9
	movs	r0, #0
.Ltmp430:
	.loc	2 992 15 is_stmt 1              @ rt-thread/components/net/sal_socket/src/sal_socket.c:992:15
	str	r0, [sp, #4]
	.loc	2 993 5                         @ rt-thread/components/net/sal_socket/src/sal_socket.c:993:5
	b	.LBB23_11
.Ltmp431:
.LBB23_10:
	.loc	2 0 5 is_stmt 0                 @ rt-thread/components/net/sal_socket/src/sal_socket.c:0:5
	mov.w	r0, #-1
.Ltmp432:
	.loc	2 996 15 is_stmt 1              @ rt-thread/components/net/sal_socket/src/sal_socket.c:996:15
	str	r0, [sp, #4]
	b	.LBB23_11
.Ltmp433:
.LBB23_11:
	.loc	2 1000 19                       @ rt-thread/components/net/sal_socket/src/sal_socket.c:1000:19
	ldr	r0, [sp, #16]
	.loc	2 1000 5 is_stmt 0              @ rt-thread/components/net/sal_socket/src/sal_socket.c:1000:5
	bl	socket_delete
	.loc	2 1002 12 is_stmt 1             @ rt-thread/components/net/sal_socket/src/sal_socket.c:1002:12
	ldr	r0, [sp, #4]
	.loc	2 1002 5 is_stmt 0              @ rt-thread/components/net/sal_socket/src/sal_socket.c:1002:5
	str	r0, [sp, #20]
	b	.LBB23_12
.LBB23_12:
	.loc	2 1003 1 is_stmt 1              @ rt-thread/components/net/sal_socket/src/sal_socket.c:1003:1
	ldr	r0, [sp, #20]
	add	sp, #24
	pop	{r7, pc}
.Ltmp434:
.Lfunc_end23:
	.size	sal_closesocket, .Lfunc_end23-sal_closesocket
	.cfi_endproc
	.cantunwind
	.fnend
                                        @ -- End function
	.section	.text.sal_ioctlsocket,"ax",%progbits
	.hidden	sal_ioctlsocket                 @ -- Begin function sal_ioctlsocket
	.globl	sal_ioctlsocket
	.p2align	3
	.type	sal_ioctlsocket,%function
	.code	16                              @ @sal_ioctlsocket
	.thumb_func
sal_ioctlsocket:
.Lfunc_begin24:
	.loc	2 1006 0                        @ rt-thread/components/net/sal_socket/src/sal_socket.c:1006:0
	.fnstart
	.cfi_startproc
@ %bb.0:
	.save	{r7, lr}
	push	{r7, lr}
	.cfi_def_cfa_offset 8
	.cfi_offset lr, -4
	.cfi_offset r7, -8
	.pad	#24
	sub	sp, #24
	.cfi_def_cfa_offset 32
	str	r0, [sp, #16]
	str	r1, [sp, #12]
	str	r2, [sp, #8]
.Ltmp435:
	.loc	2 1011 5 prologue_end           @ rt-thread/components/net/sal_socket/src/sal_socket.c:1011:5
	b	.LBB24_1
.LBB24_1:
.Ltmp436:
	.loc	2 1011 5 is_stmt 0              @ rt-thread/components/net/sal_socket/src/sal_socket.c:1011:5
	ldr	r0, [sp, #16]
	bl	sal_get_socket
	str	r0, [sp, #4]
.Ltmp437:
	.loc	2 1011 5                        @ rt-thread/components/net/sal_socket/src/sal_socket.c:1011:5
	ldr	r0, [sp, #4]
.Ltmp438:
	.loc	2 1011 5                        @ rt-thread/components/net/sal_socket/src/sal_socket.c:1011:5
	cbnz	r0, .LBB24_3
	b	.LBB24_2
.LBB24_2:
	.loc	2 0 5                           @ rt-thread/components/net/sal_socket/src/sal_socket.c:0:5
	mov.w	r0, #-1
.Ltmp439:
	.loc	2 1011 5                        @ rt-thread/components/net/sal_socket/src/sal_socket.c:1011:5
	str	r0, [sp, #20]
	b	.LBB24_9
.Ltmp440:
.LBB24_3:
	.loc	2 1011 5                        @ rt-thread/components/net/sal_socket/src/sal_socket.c:1011:5
	b	.LBB24_4
.Ltmp441:
.LBB24_4:
	.loc	2 1014 5 is_stmt 1              @ rt-thread/components/net/sal_socket/src/sal_socket.c:1014:5
	b	.LBB24_5
.LBB24_5:
.Ltmp442:
	.loc	2 1014 5 is_stmt 0              @ rt-thread/components/net/sal_socket/src/sal_socket.c:1014:5
	ldr	r0, [sp, #4]
	ldr	r0, [r0, #20]
	ldr	r0, [r0, #60]
	str	r0, [sp]
.Ltmp443:
	.loc	2 1014 5                        @ rt-thread/components/net/sal_socket/src/sal_socket.c:1014:5
	ldr	r0, [sp]
	ldr	r0, [r0, #8]
	ldr	r0, [r0, #52]
.Ltmp444:
	.loc	2 1014 5                        @ rt-thread/components/net/sal_socket/src/sal_socket.c:1014:5
	cbnz	r0, .LBB24_7
	b	.LBB24_6
.LBB24_6:
	.loc	2 0 5                           @ rt-thread/components/net/sal_socket/src/sal_socket.c:0:5
	mov.w	r0, #-1
.Ltmp445:
	.loc	2 1014 5                        @ rt-thread/components/net/sal_socket/src/sal_socket.c:1014:5
	str	r0, [sp, #20]
	b	.LBB24_9
.Ltmp446:
.LBB24_7:
	.loc	2 1014 5                        @ rt-thread/components/net/sal_socket/src/sal_socket.c:1014:5
	b	.LBB24_8
.Ltmp447:
.LBB24_8:
	.loc	2 1016 12 is_stmt 1             @ rt-thread/components/net/sal_socket/src/sal_socket.c:1016:12
	ldr	r0, [sp]
	.loc	2 1016 16 is_stmt 0             @ rt-thread/components/net/sal_socket/src/sal_socket.c:1016:16
	ldr	r0, [r0, #8]
	.loc	2 1016 25                       @ rt-thread/components/net/sal_socket/src/sal_socket.c:1016:25
	ldr	r3, [r0, #52]
	.loc	2 1016 43                       @ rt-thread/components/net/sal_socket/src/sal_socket.c:1016:43
	ldr	r0, [sp, #4]
	.loc	2 1016 49                       @ rt-thread/components/net/sal_socket/src/sal_socket.c:1016:49
	ldr	r0, [r0, #24]
	.loc	2 1016 60                       @ rt-thread/components/net/sal_socket/src/sal_socket.c:1016:60
	ldr	r1, [sp, #12]
	.loc	2 1016 65                       @ rt-thread/components/net/sal_socket/src/sal_socket.c:1016:65
	ldr	r2, [sp, #8]
	.loc	2 1016 12                       @ rt-thread/components/net/sal_socket/src/sal_socket.c:1016:12
	blx	r3
	.loc	2 1016 5                        @ rt-thread/components/net/sal_socket/src/sal_socket.c:1016:5
	str	r0, [sp, #20]
	b	.LBB24_9
.LBB24_9:
	.loc	2 1017 1 is_stmt 1              @ rt-thread/components/net/sal_socket/src/sal_socket.c:1017:1
	ldr	r0, [sp, #20]
	add	sp, #24
	pop	{r7, pc}
.Ltmp448:
.Lfunc_end24:
	.size	sal_ioctlsocket, .Lfunc_end24-sal_ioctlsocket
	.cfi_endproc
	.cantunwind
	.fnend
                                        @ -- End function
	.section	.text.sal_gethostbyname,"ax",%progbits
	.hidden	sal_gethostbyname               @ -- Begin function sal_gethostbyname
	.globl	sal_gethostbyname
	.p2align	3
	.type	sal_gethostbyname,%function
	.code	16                              @ @sal_gethostbyname
	.thumb_func
sal_gethostbyname:
.Lfunc_begin25:
	.loc	2 1039 0                        @ rt-thread/components/net/sal_socket/src/sal_socket.c:1039:0
	.fnstart
	.cfi_startproc
@ %bb.0:
	.save	{r7, lr}
	push	{r7, lr}
	.cfi_def_cfa_offset 8
	.cfi_offset lr, -4
	.cfi_offset r7, -8
	.pad	#16
	sub	sp, #16
	.cfi_def_cfa_offset 24
	str	r0, [sp, #8]
.Ltmp449:
	.loc	2 1040 29 prologue_end          @ rt-thread/components/net/sal_socket/src/sal_socket.c:1040:29
	movw	r0, :lower16:netdev_default
	movt	r0, :upper16:netdev_default
	ldr	r0, [r0]
	.loc	2 1040 20 is_stmt 0             @ rt-thread/components/net/sal_socket/src/sal_socket.c:1040:20
	str	r0, [sp, #4]
.Ltmp450:
	.loc	2 1043 9 is_stmt 1              @ rt-thread/components/net/sal_socket/src/sal_socket.c:1043:9
	ldr	r0, [sp, #4]
	cbz	r0, .LBB25_7
	b	.LBB25_1
.LBB25_1:
	ldr	r0, [sp, #4]
	ldrh	r0, [r0, #42]
	lsls	r0, r0, #31
	cbz	r0, .LBB25_3
	b	.LBB25_2
.LBB25_2:
	.loc	2 0 9 is_stmt 0                 @ rt-thread/components/net/sal_socket/src/sal_socket.c:0:9
	movs	r0, #1
	.loc	2 1043 9                        @ rt-thread/components/net/sal_socket/src/sal_socket.c:1043:9
	cbnz	r0, .LBB25_4
	b	.LBB25_7
.LBB25_3:
	.loc	2 0 9                           @ rt-thread/components/net/sal_socket/src/sal_socket.c:0:9
	movs	r0, #1
	.loc	2 1043 9                        @ rt-thread/components/net/sal_socket/src/sal_socket.c:1043:9
	cbnz	r0, .LBB25_7
	b	.LBB25_4
.LBB25_4:
	ldr	r0, [sp, #4]
	ldr	r0, [r0, #60]
	str	r0, [sp]
	cbz	r0, .LBB25_7
	b	.LBB25_5
.LBB25_5:
	ldr	r0, [sp]
	ldr	r0, [r0, #12]
	ldr	r0, [r0]
.Ltmp451:
	.loc	2 1043 9                        @ rt-thread/components/net/sal_socket/src/sal_socket.c:1043:9
	cbz	r0, .LBB25_7
	b	.LBB25_6
.LBB25_6:
.Ltmp452:
	.loc	2 1045 16 is_stmt 1             @ rt-thread/components/net/sal_socket/src/sal_socket.c:1045:16
	ldr	r0, [sp]
	.loc	2 1045 20 is_stmt 0             @ rt-thread/components/net/sal_socket/src/sal_socket.c:1045:20
	ldr	r0, [r0, #12]
	.loc	2 1045 31                       @ rt-thread/components/net/sal_socket/src/sal_socket.c:1045:31
	ldr	r1, [r0]
	.loc	2 1045 45                       @ rt-thread/components/net/sal_socket/src/sal_socket.c:1045:45
	ldr	r0, [sp, #8]
	.loc	2 1045 16                       @ rt-thread/components/net/sal_socket/src/sal_socket.c:1045:16
	blx	r1
	.loc	2 1045 9                        @ rt-thread/components/net/sal_socket/src/sal_socket.c:1045:9
	str	r0, [sp, #12]
	b	.LBB25_16
.Ltmp453:
.LBB25_7:
	.loc	2 0 9                           @ rt-thread/components/net/sal_socket/src/sal_socket.c:0:9
	movs	r0, #1
.Ltmp454:
	.loc	2 1050 18 is_stmt 1             @ rt-thread/components/net/sal_socket/src/sal_socket.c:1050:18
	bl	netdev_get_first_by_flags
	.loc	2 1050 16 is_stmt 0             @ rt-thread/components/net/sal_socket/src/sal_socket.c:1050:16
	str	r0, [sp, #4]
.Ltmp455:
	.loc	2 1051 13 is_stmt 1             @ rt-thread/components/net/sal_socket/src/sal_socket.c:1051:13
	ldr	r0, [sp, #4]
	cbz	r0, .LBB25_14
	b	.LBB25_8
.LBB25_8:
	ldr	r0, [sp, #4]
	ldrh	r0, [r0, #42]
	lsls	r0, r0, #31
	cbz	r0, .LBB25_10
	b	.LBB25_9
.LBB25_9:
	.loc	2 0 13 is_stmt 0                @ rt-thread/components/net/sal_socket/src/sal_socket.c:0:13
	movs	r0, #1
	.loc	2 1051 13                       @ rt-thread/components/net/sal_socket/src/sal_socket.c:1051:13
	cbnz	r0, .LBB25_11
	b	.LBB25_14
.LBB25_10:
	.loc	2 0 13                          @ rt-thread/components/net/sal_socket/src/sal_socket.c:0:13
	movs	r0, #1
	.loc	2 1051 13                       @ rt-thread/components/net/sal_socket/src/sal_socket.c:1051:13
	cbnz	r0, .LBB25_14
	b	.LBB25_11
.LBB25_11:
	ldr	r0, [sp, #4]
	ldr	r0, [r0, #60]
	str	r0, [sp]
	cbz	r0, .LBB25_14
	b	.LBB25_12
.LBB25_12:
	ldr	r0, [sp]
	ldr	r0, [r0, #12]
	ldr	r0, [r0]
.Ltmp456:
	.loc	2 1051 13                       @ rt-thread/components/net/sal_socket/src/sal_socket.c:1051:13
	cbz	r0, .LBB25_14
	b	.LBB25_13
.LBB25_13:
.Ltmp457:
	.loc	2 1053 20 is_stmt 1             @ rt-thread/components/net/sal_socket/src/sal_socket.c:1053:20
	ldr	r0, [sp]
	.loc	2 1053 24 is_stmt 0             @ rt-thread/components/net/sal_socket/src/sal_socket.c:1053:24
	ldr	r0, [r0, #12]
	.loc	2 1053 35                       @ rt-thread/components/net/sal_socket/src/sal_socket.c:1053:35
	ldr	r1, [r0]
	.loc	2 1053 49                       @ rt-thread/components/net/sal_socket/src/sal_socket.c:1053:49
	ldr	r0, [sp, #8]
	.loc	2 1053 20                       @ rt-thread/components/net/sal_socket/src/sal_socket.c:1053:20
	blx	r1
	.loc	2 1053 13                       @ rt-thread/components/net/sal_socket/src/sal_socket.c:1053:13
	str	r0, [sp, #12]
	b	.LBB25_16
.Ltmp458:
.LBB25_14:
	.loc	2 0 13                          @ rt-thread/components/net/sal_socket/src/sal_socket.c:0:13
	b	.LBB25_15
.LBB25_15:
	movs	r0, #0
	.loc	2 1057 5 is_stmt 1              @ rt-thread/components/net/sal_socket/src/sal_socket.c:1057:5
	str	r0, [sp, #12]
	b	.LBB25_16
.LBB25_16:
	.loc	2 1058 1                        @ rt-thread/components/net/sal_socket/src/sal_socket.c:1058:1
	ldr	r0, [sp, #12]
	add	sp, #16
	pop	{r7, pc}
.Ltmp459:
.Lfunc_end25:
	.size	sal_gethostbyname, .Lfunc_end25-sal_gethostbyname
	.cfi_endproc
	.cantunwind
	.fnend
                                        @ -- End function
	.section	.text.sal_gethostbyname_r,"ax",%progbits
	.hidden	sal_gethostbyname_r             @ -- Begin function sal_gethostbyname_r
	.globl	sal_gethostbyname_r
	.p2align	3
	.type	sal_gethostbyname_r,%function
	.code	16                              @ @sal_gethostbyname_r
	.thumb_func
sal_gethostbyname_r:
.Lfunc_begin26:
	.loc	2 1062 0                        @ rt-thread/components/net/sal_socket/src/sal_socket.c:1062:0
	.fnstart
	.cfi_startproc
@ %bb.0:
	.save	{r4, r5, r7, lr}
	push	{r4, r5, r7, lr}
	.cfi_def_cfa_offset 16
	.cfi_offset lr, -4
	.cfi_offset r7, -8
	.cfi_offset r5, -12
	.cfi_offset r4, -16
	.pad	#40
	sub	sp, #40
	.cfi_def_cfa_offset 56
	ldr.w	r12, [sp, #60]
	ldr.w	r12, [sp, #56]
	str	r0, [sp, #32]
	str	r1, [sp, #28]
	str	r2, [sp, #24]
	str	r3, [sp, #20]
.Ltmp460:
	.loc	2 1063 29 prologue_end          @ rt-thread/components/net/sal_socket/src/sal_socket.c:1063:29
	movw	r0, :lower16:netdev_default
	movt	r0, :upper16:netdev_default
	ldr	r0, [r0]
	.loc	2 1063 20 is_stmt 0             @ rt-thread/components/net/sal_socket/src/sal_socket.c:1063:20
	str	r0, [sp, #16]
.Ltmp461:
	.loc	2 1066 9 is_stmt 1              @ rt-thread/components/net/sal_socket/src/sal_socket.c:1066:9
	ldr	r0, [sp, #16]
	cbz	r0, .LBB26_7
	b	.LBB26_1
.LBB26_1:
	ldr	r0, [sp, #16]
	ldrh	r0, [r0, #42]
	lsls	r0, r0, #31
	cbz	r0, .LBB26_3
	b	.LBB26_2
.LBB26_2:
	.loc	2 0 9 is_stmt 0                 @ rt-thread/components/net/sal_socket/src/sal_socket.c:0:9
	movs	r0, #1
	.loc	2 1066 9                        @ rt-thread/components/net/sal_socket/src/sal_socket.c:1066:9
	cbnz	r0, .LBB26_4
	b	.LBB26_7
.LBB26_3:
	.loc	2 0 9                           @ rt-thread/components/net/sal_socket/src/sal_socket.c:0:9
	movs	r0, #1
	.loc	2 1066 9                        @ rt-thread/components/net/sal_socket/src/sal_socket.c:1066:9
	cbnz	r0, .LBB26_7
	b	.LBB26_4
.LBB26_4:
	ldr	r0, [sp, #16]
	ldr	r0, [r0, #60]
	str	r0, [sp, #12]
	cbz	r0, .LBB26_7
	b	.LBB26_5
.LBB26_5:
	ldr	r0, [sp, #12]
	ldr	r0, [r0, #12]
	ldr	r0, [r0, #4]
.Ltmp462:
	.loc	2 1066 9                        @ rt-thread/components/net/sal_socket/src/sal_socket.c:1066:9
	cbz	r0, .LBB26_7
	b	.LBB26_6
.LBB26_6:
.Ltmp463:
	.loc	2 1068 16 is_stmt 1             @ rt-thread/components/net/sal_socket/src/sal_socket.c:1068:16
	ldr	r0, [sp, #12]
	.loc	2 1068 20 is_stmt 0             @ rt-thread/components/net/sal_socket/src/sal_socket.c:1068:20
	ldr	r0, [r0, #12]
	.loc	2 1068 31                       @ rt-thread/components/net/sal_socket/src/sal_socket.c:1068:31
	ldr.w	r12, [r0, #4]
	.loc	2 1068 47                       @ rt-thread/components/net/sal_socket/src/sal_socket.c:1068:47
	ldr	r0, [sp, #32]
	.loc	2 1068 53                       @ rt-thread/components/net/sal_socket/src/sal_socket.c:1068:53
	ldr	r1, [sp, #28]
	.loc	2 1068 58                       @ rt-thread/components/net/sal_socket/src/sal_socket.c:1068:58
	ldr	r2, [sp, #24]
	.loc	2 1068 63                       @ rt-thread/components/net/sal_socket/src/sal_socket.c:1068:63
	ldr	r3, [sp, #20]
	.loc	2 1068 71                       @ rt-thread/components/net/sal_socket/src/sal_socket.c:1068:71
	ldr.w	lr, [sp, #56]
	.loc	2 1068 79                       @ rt-thread/components/net/sal_socket/src/sal_socket.c:1068:79
	ldr	r5, [sp, #60]
	.loc	2 1068 16                       @ rt-thread/components/net/sal_socket/src/sal_socket.c:1068:16
	mov	r4, sp
	str	r5, [r4, #4]
	str.w	lr, [r4]
	blx	r12
	.loc	2 1068 9                        @ rt-thread/components/net/sal_socket/src/sal_socket.c:1068:9
	str	r0, [sp, #36]
	b	.LBB26_16
.Ltmp464:
.LBB26_7:
	.loc	2 0 9                           @ rt-thread/components/net/sal_socket/src/sal_socket.c:0:9
	movs	r0, #1
.Ltmp465:
	.loc	2 1073 18 is_stmt 1             @ rt-thread/components/net/sal_socket/src/sal_socket.c:1073:18
	bl	netdev_get_first_by_flags
	.loc	2 1073 16 is_stmt 0             @ rt-thread/components/net/sal_socket/src/sal_socket.c:1073:16
	str	r0, [sp, #16]
.Ltmp466:
	.loc	2 1074 13 is_stmt 1             @ rt-thread/components/net/sal_socket/src/sal_socket.c:1074:13
	ldr	r0, [sp, #16]
	cbz	r0, .LBB26_14
	b	.LBB26_8
.LBB26_8:
	ldr	r0, [sp, #16]
	ldrh	r0, [r0, #42]
	lsls	r0, r0, #31
	cbz	r0, .LBB26_10
	b	.LBB26_9
.LBB26_9:
	.loc	2 0 13 is_stmt 0                @ rt-thread/components/net/sal_socket/src/sal_socket.c:0:13
	movs	r0, #1
	.loc	2 1074 13                       @ rt-thread/components/net/sal_socket/src/sal_socket.c:1074:13
	cbnz	r0, .LBB26_11
	b	.LBB26_14
.LBB26_10:
	.loc	2 0 13                          @ rt-thread/components/net/sal_socket/src/sal_socket.c:0:13
	movs	r0, #1
	.loc	2 1074 13                       @ rt-thread/components/net/sal_socket/src/sal_socket.c:1074:13
	cbnz	r0, .LBB26_14
	b	.LBB26_11
.LBB26_11:
	ldr	r0, [sp, #16]
	ldr	r0, [r0, #60]
	str	r0, [sp, #12]
	cbz	r0, .LBB26_14
	b	.LBB26_12
.LBB26_12:
	ldr	r0, [sp, #12]
	ldr	r0, [r0, #12]
	ldr	r0, [r0, #4]
.Ltmp467:
	.loc	2 1074 13                       @ rt-thread/components/net/sal_socket/src/sal_socket.c:1074:13
	cbz	r0, .LBB26_14
	b	.LBB26_13
.LBB26_13:
.Ltmp468:
	.loc	2 1076 20 is_stmt 1             @ rt-thread/components/net/sal_socket/src/sal_socket.c:1076:20
	ldr	r0, [sp, #12]
	.loc	2 1076 24 is_stmt 0             @ rt-thread/components/net/sal_socket/src/sal_socket.c:1076:24
	ldr	r0, [r0, #12]
	.loc	2 1076 35                       @ rt-thread/components/net/sal_socket/src/sal_socket.c:1076:35
	ldr.w	r12, [r0, #4]
	.loc	2 1076 51                       @ rt-thread/components/net/sal_socket/src/sal_socket.c:1076:51
	ldr	r0, [sp, #32]
	.loc	2 1076 57                       @ rt-thread/components/net/sal_socket/src/sal_socket.c:1076:57
	ldr	r1, [sp, #28]
	.loc	2 1076 62                       @ rt-thread/components/net/sal_socket/src/sal_socket.c:1076:62
	ldr	r2, [sp, #24]
	.loc	2 1076 67                       @ rt-thread/components/net/sal_socket/src/sal_socket.c:1076:67
	ldr	r3, [sp, #20]
	.loc	2 1076 75                       @ rt-thread/components/net/sal_socket/src/sal_socket.c:1076:75
	ldr.w	lr, [sp, #56]
	.loc	2 1076 83                       @ rt-thread/components/net/sal_socket/src/sal_socket.c:1076:83
	ldr	r5, [sp, #60]
	.loc	2 1076 20                       @ rt-thread/components/net/sal_socket/src/sal_socket.c:1076:20
	mov	r4, sp
	str	r5, [r4, #4]
	str.w	lr, [r4]
	blx	r12
	.loc	2 1076 13                       @ rt-thread/components/net/sal_socket/src/sal_socket.c:1076:13
	str	r0, [sp, #36]
	b	.LBB26_16
.Ltmp469:
.LBB26_14:
	.loc	2 0 13                          @ rt-thread/components/net/sal_socket/src/sal_socket.c:0:13
	b	.LBB26_15
.LBB26_15:
	mov.w	r0, #-1
	.loc	2 1080 5 is_stmt 1              @ rt-thread/components/net/sal_socket/src/sal_socket.c:1080:5
	str	r0, [sp, #36]
	b	.LBB26_16
.LBB26_16:
	.loc	2 1081 1                        @ rt-thread/components/net/sal_socket/src/sal_socket.c:1081:1
	ldr	r0, [sp, #36]
	add	sp, #40
	pop	{r4, r5, r7, pc}
.Ltmp470:
.Lfunc_end26:
	.size	sal_gethostbyname_r, .Lfunc_end26-sal_gethostbyname_r
	.cfi_endproc
	.cantunwind
	.fnend
                                        @ -- End function
	.section	.text.sal_getaddrinfo,"ax",%progbits
	.hidden	sal_getaddrinfo                 @ -- Begin function sal_getaddrinfo
	.globl	sal_getaddrinfo
	.p2align	3
	.type	sal_getaddrinfo,%function
	.code	16                              @ @sal_getaddrinfo
	.thumb_func
sal_getaddrinfo:
.Lfunc_begin27:
	.loc	2 1087 0                        @ rt-thread/components/net/sal_socket/src/sal_socket.c:1087:0
	.fnstart
	.cfi_startproc
@ %bb.0:
	.save	{r7, lr}
	push	{r7, lr}
	.cfi_def_cfa_offset 8
	.cfi_offset lr, -4
	.cfi_offset r7, -8
	.pad	#32
	sub	sp, #32
	.cfi_def_cfa_offset 40
	str	r0, [sp, #24]
	str	r1, [sp, #20]
	str	r2, [sp, #16]
	str	r3, [sp, #12]
.Ltmp471:
	.loc	2 1088 29 prologue_end          @ rt-thread/components/net/sal_socket/src/sal_socket.c:1088:29
	movw	r0, :lower16:netdev_default
	movt	r0, :upper16:netdev_default
	ldr	r0, [r0]
	.loc	2 1088 20 is_stmt 0             @ rt-thread/components/net/sal_socket/src/sal_socket.c:1088:20
	str	r0, [sp, #8]
.Ltmp472:
	.loc	2 1091 9 is_stmt 1              @ rt-thread/components/net/sal_socket/src/sal_socket.c:1091:9
	ldr	r0, [sp, #8]
	cbz	r0, .LBB27_7
	b	.LBB27_1
.LBB27_1:
	ldr	r0, [sp, #8]
	ldrh	r0, [r0, #42]
	lsls	r0, r0, #31
	cbz	r0, .LBB27_3
	b	.LBB27_2
.LBB27_2:
	.loc	2 0 9 is_stmt 0                 @ rt-thread/components/net/sal_socket/src/sal_socket.c:0:9
	movs	r0, #1
	.loc	2 1091 9                        @ rt-thread/components/net/sal_socket/src/sal_socket.c:1091:9
	cbnz	r0, .LBB27_4
	b	.LBB27_7
.LBB27_3:
	.loc	2 0 9                           @ rt-thread/components/net/sal_socket/src/sal_socket.c:0:9
	movs	r0, #1
	.loc	2 1091 9                        @ rt-thread/components/net/sal_socket/src/sal_socket.c:1091:9
	cbnz	r0, .LBB27_7
	b	.LBB27_4
.LBB27_4:
	ldr	r0, [sp, #8]
	ldr	r0, [r0, #60]
	str	r0, [sp, #4]
	cbz	r0, .LBB27_7
	b	.LBB27_5
.LBB27_5:
	ldr	r0, [sp, #4]
	ldr	r0, [r0, #12]
	ldr	r0, [r0, #8]
.Ltmp473:
	.loc	2 1091 9                        @ rt-thread/components/net/sal_socket/src/sal_socket.c:1091:9
	cbz	r0, .LBB27_7
	b	.LBB27_6
.LBB27_6:
.Ltmp474:
	.loc	2 1093 16 is_stmt 1             @ rt-thread/components/net/sal_socket/src/sal_socket.c:1093:16
	ldr	r0, [sp, #4]
	.loc	2 1093 20 is_stmt 0             @ rt-thread/components/net/sal_socket/src/sal_socket.c:1093:20
	ldr	r0, [r0, #12]
	.loc	2 1093 31                       @ rt-thread/components/net/sal_socket/src/sal_socket.c:1093:31
	ldr.w	r12, [r0, #8]
	.loc	2 1093 43                       @ rt-thread/components/net/sal_socket/src/sal_socket.c:1093:43
	ldr	r0, [sp, #24]
	.loc	2 1093 53                       @ rt-thread/components/net/sal_socket/src/sal_socket.c:1093:53
	ldr	r1, [sp, #20]
	.loc	2 1093 63                       @ rt-thread/components/net/sal_socket/src/sal_socket.c:1093:63
	ldr	r2, [sp, #16]
	.loc	2 1093 70                       @ rt-thread/components/net/sal_socket/src/sal_socket.c:1093:70
	ldr	r3, [sp, #12]
	.loc	2 1093 16                       @ rt-thread/components/net/sal_socket/src/sal_socket.c:1093:16
	blx	r12
	.loc	2 1093 9                        @ rt-thread/components/net/sal_socket/src/sal_socket.c:1093:9
	str	r0, [sp, #28]
	b	.LBB27_16
.Ltmp475:
.LBB27_7:
	.loc	2 0 9                           @ rt-thread/components/net/sal_socket/src/sal_socket.c:0:9
	movs	r0, #1
.Ltmp476:
	.loc	2 1098 18 is_stmt 1             @ rt-thread/components/net/sal_socket/src/sal_socket.c:1098:18
	bl	netdev_get_first_by_flags
	.loc	2 1098 16 is_stmt 0             @ rt-thread/components/net/sal_socket/src/sal_socket.c:1098:16
	str	r0, [sp, #8]
.Ltmp477:
	.loc	2 1099 13 is_stmt 1             @ rt-thread/components/net/sal_socket/src/sal_socket.c:1099:13
	ldr	r0, [sp, #8]
	cbz	r0, .LBB27_14
	b	.LBB27_8
.LBB27_8:
	ldr	r0, [sp, #8]
	ldrh	r0, [r0, #42]
	lsls	r0, r0, #31
	cbz	r0, .LBB27_10
	b	.LBB27_9
.LBB27_9:
	.loc	2 0 13 is_stmt 0                @ rt-thread/components/net/sal_socket/src/sal_socket.c:0:13
	movs	r0, #1
	.loc	2 1099 13                       @ rt-thread/components/net/sal_socket/src/sal_socket.c:1099:13
	cbnz	r0, .LBB27_11
	b	.LBB27_14
.LBB27_10:
	.loc	2 0 13                          @ rt-thread/components/net/sal_socket/src/sal_socket.c:0:13
	movs	r0, #1
	.loc	2 1099 13                       @ rt-thread/components/net/sal_socket/src/sal_socket.c:1099:13
	cbnz	r0, .LBB27_14
	b	.LBB27_11
.LBB27_11:
	ldr	r0, [sp, #8]
	ldr	r0, [r0, #60]
	str	r0, [sp, #4]
	cbz	r0, .LBB27_14
	b	.LBB27_12
.LBB27_12:
	ldr	r0, [sp, #4]
	ldr	r0, [r0, #12]
	ldr	r0, [r0, #8]
.Ltmp478:
	.loc	2 1099 13                       @ rt-thread/components/net/sal_socket/src/sal_socket.c:1099:13
	cbz	r0, .LBB27_14
	b	.LBB27_13
.LBB27_13:
.Ltmp479:
	.loc	2 1101 20 is_stmt 1             @ rt-thread/components/net/sal_socket/src/sal_socket.c:1101:20
	ldr	r0, [sp, #4]
	.loc	2 1101 24 is_stmt 0             @ rt-thread/components/net/sal_socket/src/sal_socket.c:1101:24
	ldr	r0, [r0, #12]
	.loc	2 1101 35                       @ rt-thread/components/net/sal_socket/src/sal_socket.c:1101:35
	ldr.w	r12, [r0, #8]
	.loc	2 1101 47                       @ rt-thread/components/net/sal_socket/src/sal_socket.c:1101:47
	ldr	r0, [sp, #24]
	.loc	2 1101 57                       @ rt-thread/components/net/sal_socket/src/sal_socket.c:1101:57
	ldr	r1, [sp, #20]
	.loc	2 1101 67                       @ rt-thread/components/net/sal_socket/src/sal_socket.c:1101:67
	ldr	r2, [sp, #16]
	.loc	2 1101 74                       @ rt-thread/components/net/sal_socket/src/sal_socket.c:1101:74
	ldr	r3, [sp, #12]
	.loc	2 1101 20                       @ rt-thread/components/net/sal_socket/src/sal_socket.c:1101:20
	blx	r12
	.loc	2 1101 13                       @ rt-thread/components/net/sal_socket/src/sal_socket.c:1101:13
	str	r0, [sp, #28]
	b	.LBB27_16
.Ltmp480:
.LBB27_14:
	.loc	2 0 13                          @ rt-thread/components/net/sal_socket/src/sal_socket.c:0:13
	b	.LBB27_15
.LBB27_15:
	mov.w	r0, #-1
	.loc	2 1105 5 is_stmt 1              @ rt-thread/components/net/sal_socket/src/sal_socket.c:1105:5
	str	r0, [sp, #28]
	b	.LBB27_16
.LBB27_16:
	.loc	2 1106 1                        @ rt-thread/components/net/sal_socket/src/sal_socket.c:1106:1
	ldr	r0, [sp, #28]
	add	sp, #32
	pop	{r7, pc}
.Ltmp481:
.Lfunc_end27:
	.size	sal_getaddrinfo, .Lfunc_end27-sal_getaddrinfo
	.cfi_endproc
	.cantunwind
	.fnend
                                        @ -- End function
	.section	.text.sal_freeaddrinfo,"ax",%progbits
	.hidden	sal_freeaddrinfo                @ -- Begin function sal_freeaddrinfo
	.globl	sal_freeaddrinfo
	.p2align	3
	.type	sal_freeaddrinfo,%function
	.code	16                              @ @sal_freeaddrinfo
	.thumb_func
sal_freeaddrinfo:
.Lfunc_begin28:
	.loc	2 1109 0                        @ rt-thread/components/net/sal_socket/src/sal_socket.c:1109:0
	.fnstart
	.cfi_startproc
@ %bb.0:
	.save	{r7, lr}
	push	{r7, lr}
	.cfi_def_cfa_offset 8
	.cfi_offset lr, -4
	.cfi_offset r7, -8
	.pad	#16
	sub	sp, #16
	.cfi_def_cfa_offset 24
	str	r0, [sp, #12]
.Ltmp482:
	.loc	2 1110 29 prologue_end          @ rt-thread/components/net/sal_socket/src/sal_socket.c:1110:29
	movw	r0, :lower16:netdev_default
	movt	r0, :upper16:netdev_default
	ldr	r0, [r0]
	.loc	2 1110 20 is_stmt 0             @ rt-thread/components/net/sal_socket/src/sal_socket.c:1110:20
	str	r0, [sp, #8]
.Ltmp483:
	.loc	2 1113 9 is_stmt 1              @ rt-thread/components/net/sal_socket/src/sal_socket.c:1113:9
	ldr	r0, [sp, #8]
	cbz	r0, .LBB28_7
	b	.LBB28_1
.LBB28_1:
	ldr	r0, [sp, #8]
	ldrh	r0, [r0, #42]
	lsls	r0, r0, #31
	cbz	r0, .LBB28_3
	b	.LBB28_2
.LBB28_2:
	.loc	2 0 9 is_stmt 0                 @ rt-thread/components/net/sal_socket/src/sal_socket.c:0:9
	movs	r0, #1
	.loc	2 1113 9                        @ rt-thread/components/net/sal_socket/src/sal_socket.c:1113:9
	cbnz	r0, .LBB28_4
	b	.LBB28_7
.LBB28_3:
	.loc	2 0 9                           @ rt-thread/components/net/sal_socket/src/sal_socket.c:0:9
	movs	r0, #1
	.loc	2 1113 9                        @ rt-thread/components/net/sal_socket/src/sal_socket.c:1113:9
	cbnz	r0, .LBB28_7
	b	.LBB28_4
.LBB28_4:
	ldr	r0, [sp, #8]
	ldr	r0, [r0, #60]
	str	r0, [sp, #4]
	cbz	r0, .LBB28_7
	b	.LBB28_5
.LBB28_5:
	ldr	r0, [sp, #4]
	ldr	r0, [r0, #12]
	ldr	r0, [r0, #12]
.Ltmp484:
	.loc	2 1113 9                        @ rt-thread/components/net/sal_socket/src/sal_socket.c:1113:9
	cbz	r0, .LBB28_7
	b	.LBB28_6
.LBB28_6:
.Ltmp485:
	.loc	2 1115 9 is_stmt 1              @ rt-thread/components/net/sal_socket/src/sal_socket.c:1115:9
	ldr	r0, [sp, #4]
	.loc	2 1115 13 is_stmt 0             @ rt-thread/components/net/sal_socket/src/sal_socket.c:1115:13
	ldr	r0, [r0, #12]
	.loc	2 1115 24                       @ rt-thread/components/net/sal_socket/src/sal_socket.c:1115:24
	ldr	r1, [r0, #12]
	.loc	2 1115 37                       @ rt-thread/components/net/sal_socket/src/sal_socket.c:1115:37
	ldr	r0, [sp, #12]
	.loc	2 1115 9                        @ rt-thread/components/net/sal_socket/src/sal_socket.c:1115:9
	blx	r1
	.loc	2 1116 5 is_stmt 1              @ rt-thread/components/net/sal_socket/src/sal_socket.c:1116:5
	b	.LBB28_15
.Ltmp486:
.LBB28_7:
	.loc	2 0 5 is_stmt 0                 @ rt-thread/components/net/sal_socket/src/sal_socket.c:0:5
	movs	r0, #1
.Ltmp487:
	.loc	2 1120 18 is_stmt 1             @ rt-thread/components/net/sal_socket/src/sal_socket.c:1120:18
	bl	netdev_get_first_by_flags
	.loc	2 1120 16 is_stmt 0             @ rt-thread/components/net/sal_socket/src/sal_socket.c:1120:16
	str	r0, [sp, #8]
.Ltmp488:
	.loc	2 1121 13 is_stmt 1             @ rt-thread/components/net/sal_socket/src/sal_socket.c:1121:13
	ldr	r0, [sp, #8]
	cbz	r0, .LBB28_14
	b	.LBB28_8
.LBB28_8:
	ldr	r0, [sp, #8]
	ldrh	r0, [r0, #42]
	lsls	r0, r0, #31
	cbz	r0, .LBB28_10
	b	.LBB28_9
.LBB28_9:
	.loc	2 0 13 is_stmt 0                @ rt-thread/components/net/sal_socket/src/sal_socket.c:0:13
	movs	r0, #1
	.loc	2 1121 13                       @ rt-thread/components/net/sal_socket/src/sal_socket.c:1121:13
	cbnz	r0, .LBB28_11
	b	.LBB28_14
.LBB28_10:
	.loc	2 0 13                          @ rt-thread/components/net/sal_socket/src/sal_socket.c:0:13
	movs	r0, #1
	.loc	2 1121 13                       @ rt-thread/components/net/sal_socket/src/sal_socket.c:1121:13
	cbnz	r0, .LBB28_14
	b	.LBB28_11
.LBB28_11:
	ldr	r0, [sp, #8]
	ldr	r0, [r0, #60]
	str	r0, [sp, #4]
	cbz	r0, .LBB28_14
	b	.LBB28_12
.LBB28_12:
	ldr	r0, [sp, #4]
	ldr	r0, [r0, #12]
	ldr	r0, [r0, #12]
.Ltmp489:
	.loc	2 1121 13                       @ rt-thread/components/net/sal_socket/src/sal_socket.c:1121:13
	cbz	r0, .LBB28_14
	b	.LBB28_13
.LBB28_13:
.Ltmp490:
	.loc	2 1123 13 is_stmt 1             @ rt-thread/components/net/sal_socket/src/sal_socket.c:1123:13
	ldr	r0, [sp, #4]
	.loc	2 1123 17 is_stmt 0             @ rt-thread/components/net/sal_socket/src/sal_socket.c:1123:17
	ldr	r0, [r0, #12]
	.loc	2 1123 28                       @ rt-thread/components/net/sal_socket/src/sal_socket.c:1123:28
	ldr	r1, [r0, #12]
	.loc	2 1123 41                       @ rt-thread/components/net/sal_socket/src/sal_socket.c:1123:41
	ldr	r0, [sp, #12]
	.loc	2 1123 13                       @ rt-thread/components/net/sal_socket/src/sal_socket.c:1123:13
	blx	r1
	.loc	2 1124 9 is_stmt 1              @ rt-thread/components/net/sal_socket/src/sal_socket.c:1124:9
	b	.LBB28_14
.Ltmp491:
.LBB28_14:
	.loc	2 0 9 is_stmt 0                 @ rt-thread/components/net/sal_socket/src/sal_socket.c:0:9
	b	.LBB28_15
.LBB28_15:
	.loc	2 1126 1 is_stmt 1              @ rt-thread/components/net/sal_socket/src/sal_socket.c:1126:1
	add	sp, #16
	pop	{r7, pc}
.Ltmp492:
.Lfunc_end28:
	.size	sal_freeaddrinfo, .Lfunc_end28-sal_freeaddrinfo
	.cfi_endproc
	.cantunwind
	.fnend
                                        @ -- End function
	.section	.text.socket_alloc,"ax",%progbits
	.p2align	3                               @ -- Begin function socket_alloc
	.type	socket_alloc,%function
	.code	16                              @ @socket_alloc
	.thumb_func
socket_alloc:
.Lfunc_begin29:
	.loc	2 448 0                         @ rt-thread/components/net/sal_socket/src/sal_socket.c:448:0
	.fnstart
	.cfi_startproc
@ %bb.0:
	.save	{r7, lr}
	push	{r7, lr}
	.cfi_def_cfa_offset 8
	.cfi_offset lr, -4
	.cfi_offset r7, -8
	.pad	#32
	sub	sp, #32
	.cfi_def_cfa_offset 40
	str	r0, [sp, #28]
	str	r1, [sp, #24]
.Ltmp493:
	.loc	2 452 16 prologue_end           @ rt-thread/components/net/sal_socket/src/sal_socket.c:452:16
	ldr	r0, [sp, #24]
	.loc	2 452 14 is_stmt 0              @ rt-thread/components/net/sal_socket/src/sal_socket.c:452:14
	str	r0, [sp, #20]
	.loc	2 452 10                        @ rt-thread/components/net/sal_socket/src/sal_socket.c:452:10
	b	.LBB29_1
.LBB29_1:                               @ =>This Inner Loop Header: Depth=1
.Ltmp494:
	.loc	2 452 26                        @ rt-thread/components/net/sal_socket/src/sal_socket.c:452:26
	ldr	r0, [sp, #20]
	.loc	2 452 38                        @ rt-thread/components/net/sal_socket/src/sal_socket.c:452:38
	ldr	r1, [sp, #28]
	.loc	2 452 42                        @ rt-thread/components/net/sal_socket/src/sal_socket.c:452:42
	ldr	r1, [r1]
.Ltmp495:
	.loc	2 452 5                         @ rt-thread/components/net/sal_socket/src/sal_socket.c:452:5
	cmp	r0, r1
	bge	.LBB29_6
	b	.LBB29_2
.LBB29_2:                               @   in Loop: Header=BB29_1 Depth=1
.Ltmp496:
	.loc	2 454 13 is_stmt 1              @ rt-thread/components/net/sal_socket/src/sal_socket.c:454:13
	ldr	r0, [sp, #28]
	.loc	2 454 17 is_stmt 0              @ rt-thread/components/net/sal_socket/src/sal_socket.c:454:17
	ldr	r0, [r0, #4]
	.loc	2 454 25                        @ rt-thread/components/net/sal_socket/src/sal_socket.c:454:25
	ldr	r1, [sp, #20]
	.loc	2 454 13                        @ rt-thread/components/net/sal_socket/src/sal_socket.c:454:13
	ldr.w	r0, [r0, r1, lsl #2]
.Ltmp497:
	.loc	2 454 13                        @ rt-thread/components/net/sal_socket/src/sal_socket.c:454:13
	cbnz	r0, .LBB29_4
	b	.LBB29_3
.LBB29_3:
.Ltmp498:
	.loc	2 456 13 is_stmt 1              @ rt-thread/components/net/sal_socket/src/sal_socket.c:456:13
	b	.LBB29_6
.Ltmp499:
.LBB29_4:                               @   in Loop: Header=BB29_1 Depth=1
	.loc	2 458 5                         @ rt-thread/components/net/sal_socket/src/sal_socket.c:458:5
	b	.LBB29_5
.Ltmp500:
.LBB29_5:                               @   in Loop: Header=BB29_1 Depth=1
	.loc	2 452 57                        @ rt-thread/components/net/sal_socket/src/sal_socket.c:452:57
	ldr	r0, [sp, #20]
	adds	r0, #1
	str	r0, [sp, #20]
	.loc	2 452 5 is_stmt 0               @ rt-thread/components/net/sal_socket/src/sal_socket.c:452:5
	b	.LBB29_1
.Ltmp501:
.LBB29_6:
	.loc	2 461 9 is_stmt 1               @ rt-thread/components/net/sal_socket/src/sal_socket.c:461:9
	ldr	r0, [sp, #20]
	.loc	2 461 22 is_stmt 0              @ rt-thread/components/net/sal_socket/src/sal_socket.c:461:22
	ldr	r1, [sp, #28]
	.loc	2 461 26                        @ rt-thread/components/net/sal_socket/src/sal_socket.c:461:26
	ldr	r1, [r1]
	.loc	2 461 37                        @ rt-thread/components/net/sal_socket/src/sal_socket.c:461:37
	cmp	r0, r1
	bne	.LBB29_18
	b	.LBB29_7
.LBB29_7:
	.loc	2 461 41                        @ rt-thread/components/net/sal_socket/src/sal_socket.c:461:41
	ldr	r0, [sp, #28]
	.loc	2 461 45                        @ rt-thread/components/net/sal_socket/src/sal_socket.c:461:45
	ldr	r0, [r0]
.Ltmp502:
	.loc	2 461 9                         @ rt-thread/components/net/sal_socket/src/sal_socket.c:461:9
	cmp	r0, #15
	bhi	.LBB29_18
	b	.LBB29_8
.LBB29_8:
.Ltmp503:
	.loc	2 467 15 is_stmt 1              @ rt-thread/components/net/sal_socket/src/sal_socket.c:467:15
	ldr	r0, [sp, #28]
	.loc	2 467 19 is_stmt 0              @ rt-thread/components/net/sal_socket/src/sal_socket.c:467:19
	ldr	r0, [r0]
	.loc	2 467 30                        @ rt-thread/components/net/sal_socket/src/sal_socket.c:467:30
	adds	r0, #4
	.loc	2 467 13                        @ rt-thread/components/net/sal_socket/src/sal_socket.c:467:13
	str	r0, [sp, #16]
	.loc	2 468 15 is_stmt 1              @ rt-thread/components/net/sal_socket/src/sal_socket.c:468:15
	ldr	r0, [sp, #16]
	cmp	r0, #17
	blt	.LBB29_10
	b	.LBB29_9
.LBB29_9:
	.loc	2 0 15 is_stmt 0                @ rt-thread/components/net/sal_socket/src/sal_socket.c:0:15
	movs	r0, #16
	.loc	2 468 15                        @ rt-thread/components/net/sal_socket/src/sal_socket.c:468:15
	str	r0, [sp, #4]                    @ 4-byte Spill
	b	.LBB29_11
.LBB29_10:
	.loc	2 468 57                        @ rt-thread/components/net/sal_socket/src/sal_socket.c:468:57
	ldr	r0, [sp, #16]
	.loc	2 468 15                        @ rt-thread/components/net/sal_socket/src/sal_socket.c:468:15
	str	r0, [sp, #4]                    @ 4-byte Spill
	b	.LBB29_11
.LBB29_11:
	ldr	r0, [sp, #4]                    @ 4-byte Reload
	.loc	2 468 13                        @ rt-thread/components/net/sal_socket/src/sal_socket.c:468:13
	str	r0, [sp, #16]
	.loc	2 470 30 is_stmt 1              @ rt-thread/components/net/sal_socket/src/sal_socket.c:470:30
	ldr	r0, [sp, #28]
	.loc	2 470 34 is_stmt 0              @ rt-thread/components/net/sal_socket/src/sal_socket.c:470:34
	ldr	r0, [r0, #4]
	.loc	2 470 43                        @ rt-thread/components/net/sal_socket/src/sal_socket.c:470:43
	ldr	r1, [sp, #16]
	.loc	2 470 47                        @ rt-thread/components/net/sal_socket/src/sal_socket.c:470:47
	lsls	r1, r1, #2
	.loc	2 470 19                        @ rt-thread/components/net/sal_socket/src/sal_socket.c:470:19
	bl	rt_realloc
	.loc	2 470 17                        @ rt-thread/components/net/sal_socket/src/sal_socket.c:470:17
	str	r0, [sp, #8]
.Ltmp504:
	.loc	2 471 13 is_stmt 1              @ rt-thread/components/net/sal_socket/src/sal_socket.c:471:13
	ldr	r0, [sp, #8]
.Ltmp505:
	.loc	2 471 13 is_stmt 0              @ rt-thread/components/net/sal_socket/src/sal_socket.c:471:13
	cbnz	r0, .LBB29_13
	b	.LBB29_12
.LBB29_12:
.Ltmp506:
	.loc	2 472 13 is_stmt 1              @ rt-thread/components/net/sal_socket/src/sal_socket.c:472:13
	b	.LBB29_24
.Ltmp507:
.LBB29_13:
	.loc	2 475 22                        @ rt-thread/components/net/sal_socket/src/sal_socket.c:475:22
	ldr	r0, [sp, #28]
	.loc	2 475 26 is_stmt 0              @ rt-thread/components/net/sal_socket/src/sal_socket.c:475:26
	ldr	r0, [r0]
	.loc	2 475 20                        @ rt-thread/components/net/sal_socket/src/sal_socket.c:475:20
	str	r0, [sp, #12]
	.loc	2 475 14                        @ rt-thread/components/net/sal_socket/src/sal_socket.c:475:14
	b	.LBB29_14
.LBB29_14:                              @ =>This Inner Loop Header: Depth=1
.Ltmp508:
	.loc	2 475 38                        @ rt-thread/components/net/sal_socket/src/sal_socket.c:475:38
	ldr	r0, [sp, #12]
	.loc	2 475 46                        @ rt-thread/components/net/sal_socket/src/sal_socket.c:475:46
	ldr	r1, [sp, #16]
.Ltmp509:
	.loc	2 475 9                         @ rt-thread/components/net/sal_socket/src/sal_socket.c:475:9
	cmp	r0, r1
	bge	.LBB29_17
	b	.LBB29_15
.LBB29_15:                              @   in Loop: Header=BB29_14 Depth=1
.Ltmp510:
	.loc	2 477 13 is_stmt 1              @ rt-thread/components/net/sal_socket/src/sal_socket.c:477:13
	ldr	r1, [sp, #8]
	.loc	2 477 21 is_stmt 0              @ rt-thread/components/net/sal_socket/src/sal_socket.c:477:21
	ldr	r2, [sp, #12]
	movs	r0, #0
	.loc	2 477 28                        @ rt-thread/components/net/sal_socket/src/sal_socket.c:477:28
	str.w	r0, [r1, r2, lsl #2]
	.loc	2 478 9 is_stmt 1               @ rt-thread/components/net/sal_socket/src/sal_socket.c:478:9
	b	.LBB29_16
.Ltmp511:
.LBB29_16:                              @   in Loop: Header=BB29_14 Depth=1
	.loc	2 475 56                        @ rt-thread/components/net/sal_socket/src/sal_socket.c:475:56
	ldr	r0, [sp, #12]
	adds	r0, #1
	str	r0, [sp, #12]
	.loc	2 475 9 is_stmt 0               @ rt-thread/components/net/sal_socket/src/sal_socket.c:475:9
	b	.LBB29_14
.Ltmp512:
.LBB29_17:
	.loc	2 480 23 is_stmt 1              @ rt-thread/components/net/sal_socket/src/sal_socket.c:480:23
	ldr	r0, [sp, #8]
	.loc	2 480 9 is_stmt 0               @ rt-thread/components/net/sal_socket/src/sal_socket.c:480:9
	ldr	r1, [sp, #28]
	.loc	2 480 21                        @ rt-thread/components/net/sal_socket/src/sal_socket.c:480:21
	str	r0, [r1, #4]
	.loc	2 481 26 is_stmt 1              @ rt-thread/components/net/sal_socket/src/sal_socket.c:481:26
	ldr	r0, [sp, #16]
	.loc	2 481 9 is_stmt 0               @ rt-thread/components/net/sal_socket/src/sal_socket.c:481:9
	ldr	r1, [sp, #28]
	.loc	2 481 24                        @ rt-thread/components/net/sal_socket/src/sal_socket.c:481:24
	str	r0, [r1]
	.loc	2 482 5 is_stmt 1               @ rt-thread/components/net/sal_socket/src/sal_socket.c:482:5
	b	.LBB29_18
.Ltmp513:
.LBB29_18:
	.loc	2 485 9                         @ rt-thread/components/net/sal_socket/src/sal_socket.c:485:9
	ldr	r0, [sp, #20]
	.loc	2 485 21 is_stmt 0              @ rt-thread/components/net/sal_socket/src/sal_socket.c:485:21
	ldr	r1, [sp, #28]
	.loc	2 485 25                        @ rt-thread/components/net/sal_socket/src/sal_socket.c:485:25
	ldr	r1, [r1]
	.loc	2 485 36                        @ rt-thread/components/net/sal_socket/src/sal_socket.c:485:36
	cmp	r0, r1
	bge	.LBB29_23
	b	.LBB29_19
.LBB29_19:
	.loc	2 485 39                        @ rt-thread/components/net/sal_socket/src/sal_socket.c:485:39
	ldr	r0, [sp, #28]
	.loc	2 485 43                        @ rt-thread/components/net/sal_socket/src/sal_socket.c:485:43
	ldr	r0, [r0, #4]
	.loc	2 485 51                        @ rt-thread/components/net/sal_socket/src/sal_socket.c:485:51
	ldr	r1, [sp, #20]
	.loc	2 485 39                        @ rt-thread/components/net/sal_socket/src/sal_socket.c:485:39
	ldr.w	r0, [r0, r1, lsl #2]
.Ltmp514:
	.loc	2 485 9                         @ rt-thread/components/net/sal_socket/src/sal_socket.c:485:9
	cbnz	r0, .LBB29_23
	b	.LBB29_20
.LBB29_20:
	.loc	2 0 9                           @ rt-thread/components/net/sal_socket/src/sal_socket.c:0:9
	movs	r0, #1
	movs	r1, #28
.Ltmp515:
	.loc	2 487 28 is_stmt 1              @ rt-thread/components/net/sal_socket/src/sal_socket.c:487:28
	bl	rt_calloc
	.loc	2 487 9 is_stmt 0               @ rt-thread/components/net/sal_socket/src/sal_socket.c:487:9
	ldr	r1, [sp, #28]
	.loc	2 487 13                        @ rt-thread/components/net/sal_socket/src/sal_socket.c:487:13
	ldr	r1, [r1, #4]
	.loc	2 487 21                        @ rt-thread/components/net/sal_socket/src/sal_socket.c:487:21
	ldr	r2, [sp, #20]
	.loc	2 487 26                        @ rt-thread/components/net/sal_socket/src/sal_socket.c:487:26
	str.w	r0, [r1, r2, lsl #2]
.Ltmp516:
	.loc	2 488 13 is_stmt 1              @ rt-thread/components/net/sal_socket/src/sal_socket.c:488:13
	ldr	r0, [sp, #28]
	.loc	2 488 17 is_stmt 0              @ rt-thread/components/net/sal_socket/src/sal_socket.c:488:17
	ldr	r0, [r0, #4]
	.loc	2 488 25                        @ rt-thread/components/net/sal_socket/src/sal_socket.c:488:25
	ldr	r1, [sp, #20]
	.loc	2 488 13                        @ rt-thread/components/net/sal_socket/src/sal_socket.c:488:13
	ldr.w	r0, [r0, r1, lsl #2]
.Ltmp517:
	.loc	2 488 13                        @ rt-thread/components/net/sal_socket/src/sal_socket.c:488:13
	cbnz	r0, .LBB29_22
	b	.LBB29_21
.LBB29_21:
.Ltmp518:
	.loc	2 490 19 is_stmt 1              @ rt-thread/components/net/sal_socket/src/sal_socket.c:490:19
	ldr	r0, [sp, #28]
	.loc	2 490 23 is_stmt 0              @ rt-thread/components/net/sal_socket/src/sal_socket.c:490:23
	ldr	r0, [r0]
	.loc	2 490 17                        @ rt-thread/components/net/sal_socket/src/sal_socket.c:490:17
	str	r0, [sp, #20]
	.loc	2 491 9 is_stmt 1               @ rt-thread/components/net/sal_socket/src/sal_socket.c:491:9
	b	.LBB29_22
.Ltmp519:
.LBB29_22:
	.loc	2 492 5                         @ rt-thread/components/net/sal_socket/src/sal_socket.c:492:5
	b	.LBB29_23
.Ltmp520:
.LBB29_23:
	.loc	2 485 59                        @ rt-thread/components/net/sal_socket/src/sal_socket.c:485:59
	b	.LBB29_24
.Ltmp521:
.LBB29_24:
	@DEBUG_LABEL: socket_alloc:__result
	.loc	2 495 12                        @ rt-thread/components/net/sal_socket/src/sal_socket.c:495:12
	ldr	r0, [sp, #20]
	.loc	2 495 5 is_stmt 0               @ rt-thread/components/net/sal_socket/src/sal_socket.c:495:5
	add	sp, #32
	pop	{r7, pc}
.Ltmp522:
.Lfunc_end29:
	.size	socket_alloc, .Lfunc_end29-socket_alloc
	.cfi_endproc
	.cantunwind
	.fnend
                                        @ -- End function
	.section	.text.socket_free,"ax",%progbits
	.p2align	3                               @ -- Begin function socket_free
	.type	socket_free,%function
	.code	16                              @ @socket_free
	.thumb_func
socket_free:
.Lfunc_begin30:
	.loc	2 499 0 is_stmt 1               @ rt-thread/components/net/sal_socket/src/sal_socket.c:499:0
	.fnstart
	.cfi_startproc
@ %bb.0:
	.save	{r7, lr}
	push	{r7, lr}
	.cfi_def_cfa_offset 8
	.cfi_offset lr, -4
	.cfi_offset r7, -8
	.pad	#16
	sub	sp, #16
	.cfi_def_cfa_offset 24
	str	r0, [sp, #12]
	str	r1, [sp, #8]
.Ltmp523:
	.loc	2 502 12 prologue_end           @ rt-thread/components/net/sal_socket/src/sal_socket.c:502:12
	ldr	r0, [sp, #12]
	.loc	2 502 16 is_stmt 0              @ rt-thread/components/net/sal_socket/src/sal_socket.c:502:16
	ldr	r0, [r0, #4]
	.loc	2 502 24                        @ rt-thread/components/net/sal_socket/src/sal_socket.c:502:24
	ldr	r1, [sp, #8]
	.loc	2 502 12                        @ rt-thread/components/net/sal_socket/src/sal_socket.c:502:12
	ldr.w	r0, [r0, r1, lsl #2]
	.loc	2 502 10                        @ rt-thread/components/net/sal_socket/src/sal_socket.c:502:10
	str	r0, [sp, #4]
	.loc	2 503 5 is_stmt 1               @ rt-thread/components/net/sal_socket/src/sal_socket.c:503:5
	ldr	r0, [sp, #12]
	.loc	2 503 9 is_stmt 0               @ rt-thread/components/net/sal_socket/src/sal_socket.c:503:9
	ldr	r1, [r0, #4]
	.loc	2 503 17                        @ rt-thread/components/net/sal_socket/src/sal_socket.c:503:17
	ldr	r2, [sp, #8]
	movs	r0, #0
	.loc	2 503 22                        @ rt-thread/components/net/sal_socket/src/sal_socket.c:503:22
	str.w	r0, [r1, r2, lsl #2]
	.loc	2 504 13 is_stmt 1              @ rt-thread/components/net/sal_socket/src/sal_socket.c:504:13
	ldr	r0, [sp, #4]
	.loc	2 504 5 is_stmt 0               @ rt-thread/components/net/sal_socket/src/sal_socket.c:504:5
	bl	rt_free
	.loc	2 505 1 is_stmt 1               @ rt-thread/components/net/sal_socket/src/sal_socket.c:505:1
	add	sp, #16
	pop	{r7, pc}
.Ltmp524:
.Lfunc_end30:
	.size	socket_free, .Lfunc_end30-socket_free
	.cfi_endproc
	.cantunwind
	.fnend
                                        @ -- End function
	.type	init_ok,%object                 @ @init_ok
	.section	.bss.init_ok,"aw",%nobits
	.p2align	2
init_ok:
	.long	0                               @ 0x0
	.size	init_ok, 4

	.type	socket_table,%object            @ @socket_table
	.section	.bss.socket_table,"aw",%nobits
	.p2align	2
socket_table:
	.zero	8
	.size	socket_table, 8

	.type	.L.str,%object                  @ @.str
	.section	.rodata.str1.1,"aMS",%progbits,1
.L.str:
	.asciz	"[E/sal.skt] "
	.size	.L.str, 13

	.type	.L.str.1,%object                @ @.str.1
.L.str.1:
	.asciz	"No memory for socket table.\n"
	.size	.L.str.1, 29

	.type	.L.str.2,%object                @ @.str.2
.L.str.2:
	.asciz	"\n"
	.size	.L.str.2, 2

	.type	sal_core_lock,%object           @ @sal_core_lock
	.section	.bss.sal_core_lock,"aw",%nobits
	.p2align	2
sal_core_lock:
	.zero	36
	.size	sal_core_lock, 36

	.type	.L.str.3,%object                @ @.str.3
	.section	.rodata.str1.1,"aMS",%progbits,1
.L.str.3:
	.asciz	"sal_lock"
	.size	.L.str.3, 9

	.type	.L.str.4,%object                @ @.str.4
.L.str.4:
	.asciz	"[I/sal.skt] "
	.size	.L.str.4, 13

	.type	.L.str.5,%object                @ @.str.5
.L.str.5:
	.asciz	"Socket Abstraction Layer initialize success."
	.size	.L.str.5, 45

	.hidden	__rt_init_sal_init              @ @__rt_init_sal_init
	.type	__rt_init_sal_init,%object
	.section	.rti_fn.4,"a",%progbits
	.globl	__rt_init_sal_init
	.p2align	2
__rt_init_sal_init:
__tagsym$$used.0:
	.long	sal_init
	.size	__rt_init_sal_init, 4

	.type	.L.str.6,%object                @ @.str.6
	.section	.rodata.str1.1,"aMS",%progbits,1
.L.str.6:
	.asciz	"netdev"
	.size	.L.str.6, 7

	.type	.L__FUNCTION__.sal_check_netdev_internet_up,%object @ @__FUNCTION__.sal_check_netdev_internet_up
.L__FUNCTION__.sal_check_netdev_internet_up:
	.asciz	"sal_check_netdev_internet_up"
	.size	.L__FUNCTION__.sal_check_netdev_internet_up, 29

	.type	.L.str.7,%object                @ @.str.7
.L.str.7:
	.asciz	"[W/sal.skt] "
	.size	.L.str.7, 13

	.type	.L.str.8,%object                @ @.str.8
.L.str.8:
	.asciz	"No memory for network interface device(%s) delay work."
	.size	.L.str.8, 55

	.type	.L.str.9,%object                @ @.str.9
.L.str.9:
	.asciz	"st->sockets[socket]->magic == SAL_SOCKET_MAGIC"
	.size	.L.str.9, 47

	.type	.L__FUNCTION__.sal_get_socket,%object @ @__FUNCTION__.sal_get_socket
.L__FUNCTION__.sal_get_socket:
	.asciz	"sal_get_socket"
	.size	.L__FUNCTION__.sal_get_socket, 15

	.type	.L.str.10,%object               @ @.str.10
.L.str.10:
	.asciz	"New socket registered failed, return error %d."
	.size	.L.str.10, 47

	.type	.L.str.11,%object               @ @.str.11
.L.str.11:
	.asciz	"name"
	.size	.L.str.11, 5

	.type	.L__FUNCTION__.sal_bind,%object @ @__FUNCTION__.sal_bind
.L__FUNCTION__.sal_bind:
	.asciz	"sal_bind"
	.size	.L__FUNCTION__.sal_bind, 9

	.type	.L.str.12,%object               @ @.str.12
.L.str.12:
	.asciz	"SAL socket protocol family input failed, return error %d."
	.size	.L.str.12, 58

	.type	.L__const.check_netdev_internet_up_work.month,%object @ @__const.check_netdev_internet_up_work.month
	.section	.rodata..L__const.check_netdev_internet_up_work.month,"a",%progbits
.L__const.check_netdev_internet_up_work.month:
	.asciz	"Jan"
	.asciz	"Feb"
	.asciz	"Mar"
	.asciz	"Apr"
	.asciz	"May"
	.asciz	"Jun"
	.asciz	"Jul"
	.asciz	"Aug"
	.asciz	"Sep"
	.asciz	"Oct"
	.asciz	"Nov"
	.asciz	"Dec"
	.size	.L__const.check_netdev_internet_up_work.month, 48

	.type	.L.str.13,%object               @ @.str.13
	.section	.rodata.str1.1,"aMS",%progbits,1
.L.str.13:
	.asciz	"link.rt-thread.org"
	.size	.L.str.13, 19

	.type	.L.str.14,%object               @ @.str.14
.L.str.14:
	.asciz	"%s"
	.size	.L.str.14, 3

	.type	.L.str.15,%object               @ @.str.15
.L.str.15:
	.asciz	"Aug  8 2021"
	.size	.L.str.15, 12

	.type	.L.str.16,%object               @ @.str.16
.L.str.16:
	.asciz	"0"
	.size	.L.str.16, 2

	.type	.L.str.17,%object               @ @.str.17
.L.str.17:
	.asciz	"not find network interface device by protocol family(%d)."
	.size	.L.str.17, 58

	.type	.L.str.18,%object               @ @.str.18
.L.str.18:
	.asciz	"sock != RT_NULL"
	.size	.L.str.18, 16

	.type	.L__FUNCTION__.socket_delete,%object @ @__FUNCTION__.socket_delete
.L__FUNCTION__.socket_delete:
	.asciz	"socket_delete"
	.size	.L__FUNCTION__.socket_delete, 14

	.globl	__rt_init_sal_init
	.file	11 "E:\\STM32\\Learning\\STM32H750_ART_PI_RGBLCD" "rt-thread/components/libc/compilers/common\\sys/time.h"
	.section	".note.GNU-stack","",%progbits
	.eabi_attribute	30, 6	@ Tag_ABI_optimization_goals
	.ARM_attribute	16, 1	@ Tag_AV_eba