	.text
	.syntax unified
	.eabi_attribute	67, "2.09"	@ Tag_conformance
	.cpu	cortex-m7
	.eabi_attribute	6, 13	@ Tag_CPU_arch
	.eabi_attribute	7, 77	@ Tag_CPU_arch_profile
	.eabi_attribute	8, 0	@ Tag_ARM_ISA_use
	.eabi_attribute	9, 2	@ Tag_THUMB_ISA_use
	.fpu	fpv5-d16
	.eabi_attribute	36, 1	@ Tag_FP_HP_extension
	.eabi_attribute	34, 1	@ Tag_CPU_unaligned_access
	.eabi_attribute	17, 1	@ Tag_ABI_PCS_GOT_use
	.eabi_attribute	20, 2	@ Tag_ABI_FP_denormal
	.eabi_attribute	21, 0	@ Tag_ABI_FP_exceptions
	.eabi_attribute	23, 1	@ Tag_ABI_FP_number_model
	.eabi_attribute	24, 1	@ Tag_ABI_align_needed
	.eabi_attribute	25, 1	@ Tag_ABI_align_preserved
	.eabi_attribute	28, 1	@ Tag_ABI_VFP_args
	.eabi_attribute	38, 1	@ Tag_ABI_FP_16bit_format
	.eabi_attribute	18, 2	@ Tag_ABI_PCS_wchar_t
	.eabi_attribute	26, 1	@ Tag_ABI_enum_size
	.eabi_attribute	14, 0	@ Tag_ABI_PCS_R9_use
	.file	"scheduler.c"
	.file	1 "E:\\STM32\\Learning\\STM32H750_ART_PI_RGBLCD" "rt-thread/include\\rtdef.h"
	.file	2 "E:\\STM32\\Learning\\STM32H750_ART_PI_RGBLCD" "rt-thread/src/scheduler.c"
	.section	.text.rt_scheduler_sethook,"ax",%progbits
	.hidden	rt_scheduler_sethook            @ -- Begin function rt_scheduler_sethook
	.globl	rt_scheduler_sethook
	.p2align	3
	.type	rt_scheduler_sethook,%function
	.code	16                              @ @rt_scheduler_sethook
	.thumb_func
rt_scheduler_sethook:
.Lfunc_begin0:
	.loc	2 73 0                          @ rt-thread/src/scheduler.c:73:0
	.fnstart
	.cfi_sections .debug_frame
	.cfi_startproc
@ %bb.0:
	.pad	#4
	sub	sp, #4
	.cfi_def_cfa_offset 4
	str	r0, [sp]
.Ltmp0:
	.loc	2 74 25 prologue_end            @ rt-thread/src/scheduler.c:74:25
	ldr	r0, [sp]
	.loc	2 74 23 is_stmt 0               @ rt-thread/src/scheduler.c:74:23
	movw	r1, :lower16:rt_scheduler_hook
	movt	r1, :upper16:rt_scheduler_hook
	str	r0, [r1]
	.loc	2 75 1 is_stmt 1                @ rt-thread/src/scheduler.c:75:1
	add	sp, #4
	bx	lr
.Ltmp1:
.Lfunc_end0:
	.size	rt_scheduler_sethook, .Lfunc_end0-rt_scheduler_sethook
	.cfi_endproc
	.cantunwind
	.fnend
                                        @ -- End function
	.section	.text.rt_system_scheduler_init,"ax",%progbits
	.hidden	rt_system_scheduler_init        @ -- Begin function rt_system_scheduler_init
	.globl	rt_system_scheduler_init
	.p2align	3
	.type	rt_system_scheduler_init,%function
	.code	16                              @ @rt_system_scheduler_init
	.thumb_func
rt_system_scheduler_init:
.Lfunc_begin1:
	.loc	2 192 0                         @ rt-thread/src/scheduler.c:192:0
	.fnstart
	.cfi_startproc
@ %bb.0:
	.save	{r7, lr}
	push	{r7, lr}
	.cfi_def_cfa_offset 8
	.cfi_offset lr, -4
	.cfi_offset r7, -8
	.pad	#8
	sub	sp, #8
	.cfi_def_cfa_offset 16
.Ltmp2:
	.loc	2 199 28 prologue_end           @ rt-thread/src/scheduler.c:199:28
	movw	r1, :lower16:rt_scheduler_lock_nest
	movt	r1, :upper16:rt_scheduler_lock_nest
	movs	r0, #0
	strh	r0, [r1]
	.loc	2 202 5                         @ rt-thread/src/scheduler.c:202:5
	b	.LBB1_1
.LBB1_1:
.Ltmp3:
	.loc	2 202 5 is_stmt 0               @ rt-thread/src/scheduler.c:202:5
	b	.LBB1_2
.Ltmp4:
.LBB1_2:
	.loc	2 0 5                           @ rt-thread/src/scheduler.c:0:5
	movs	r0, #0
.Ltmp5:
	.loc	2 205 17 is_stmt 1              @ rt-thread/src/scheduler.c:205:17
	str	r0, [sp, #4]
	.loc	2 205 10 is_stmt 0              @ rt-thread/src/scheduler.c:205:10
	b	.LBB1_3
.LBB1_3:                                @ =>This Inner Loop Header: Depth=1
.Ltmp6:
	.loc	2 205 22                        @ rt-thread/src/scheduler.c:205:22
	ldr	r0, [sp, #4]
.Ltmp7:
	.loc	2 205 5                         @ rt-thread/src/scheduler.c:205:5
	cmp	r0, #31
	bgt	.LBB1_6
	b	.LBB1_4
.LBB1_4:                                @   in Loop: Header=BB1_3 Depth=1
.Ltmp8:
	.loc	2 207 48 is_stmt 1              @ rt-thread/src/scheduler.c:207:48
	ldr	r1, [sp, #4]
	.loc	2 207 23 is_stmt 0              @ rt-thread/src/scheduler.c:207:23
	movw	r0, :lower16:rt_thread_priority_table
	movt	r0, :upper16:rt_thread_priority_table
	add.w	r0, r0, r1, lsl #3
	.loc	2 207 9                         @ rt-thread/src/scheduler.c:207:9
	bl	rt_list_init
	.loc	2 208 5 is_stmt 1               @ rt-thread/src/scheduler.c:208:5
	b	.LBB1_5
.Ltmp9:
.LBB1_5:                                @   in Loop: Header=BB1_3 Depth=1
	.loc	2 205 62                        @ rt-thread/src/scheduler.c:205:62
	ldr	r0, [sp, #4]
	adds	r0, #1
	str	r0, [sp, #4]
	.loc	2 205 5 is_stmt 0               @ rt-thread/src/scheduler.c:205:5
	b	.LBB1_3
.Ltmp10:
.LBB1_6:
	.loc	2 230 36 is_stmt 1              @ rt-thread/src/scheduler.c:230:36
	movw	r1, :lower16:rt_thread_ready_priority_group
	movt	r1, :upper16:rt_thread_ready_priority_group
	movs	r0, #0
	str	r0, [r1]
	.loc	2 238 5                         @ rt-thread/src/scheduler.c:238:5
	movw	r0, :lower16:rt_thread_defunct
	movt	r0, :upper16:rt_thread_defunct
	bl	rt_list_init
	.loc	2 239 1                         @ rt-thread/src/scheduler.c:239:1
	add	sp, #8
	pop	{r7, pc}
.Ltmp11:
.Lfunc_end1:
	.size	rt_system_scheduler_init, .Lfunc_end1-rt_system_scheduler_init
	.cfi_endproc
	.cantunwind
	.fnend
                                        @ -- End function
	.section	.text.rt_list_init,"ax",%progbits
	.p2align	3                               @ -- Begin function rt_list_init
	.type	rt_list_init,%function
	.code	16                              @ @rt_list_init
	.thumb_func
rt_list_init:
.Lfunc_begin2:
	.file	3 "E:\\STM32\\Learning\\STM32H750_ART_PI_RGBLCD" "rt-thread/include\\rtservice.h"
	.loc	3 48 0                          @ rt-thread/include\rtservice.h:48:0
	.fnstart
	.cfi_startproc
@ %bb.0:
	.pad	#4
	sub	sp, #4
	.cfi_def_cfa_offset 4
	str	r0, [sp]
.Ltmp12:
	.loc	3 49 25 prologue_end            @ rt-thread/include\rtservice.h:49:25
	ldr	r0, [sp]
	.loc	3 49 23 is_stmt 0               @ rt-thread/include\rtservice.h:49:23
	str	r0, [r0, #4]
	.loc	3 49 5                          @ rt-thread/include\rtservice.h:49:5
	ldr	r1, [sp]
	.loc	3 49 13                         @ rt-thread/include\rtservice.h:49:13
	str	r0, [r1]
	.loc	3 50 1 is_stmt 1                @ rt-thread/include\rtservice.h:50:1
	add	sp, #4
	bx	lr
.Ltmp13:
.Lfunc_end2:
	.size	rt_list_init, .Lfunc_end2-rt_list_init
	.cfi_endproc
	.cantunwind
	.fnend
                                        @ -- End function
	.section	.text.rt_system_scheduler_start,"ax",%progbits
	.hidden	rt_system_scheduler_start       @ -- Begin function rt_system_scheduler_start
	.globl	rt_system_scheduler_start
	.p2align	3
	.type	rt_system_scheduler_start,%function
	.code	16                              @ @rt_system_scheduler_start
	.thumb_func
rt_system_scheduler_start:
.Lfunc_begin3:
	.loc	2 247 0                         @ rt-thread/src/scheduler.c:247:0
	.fnstart
	.cfi_startproc
@ %bb.0:
	.save	{r7, lr}
	push	{r7, lr}
	.cfi_def_cfa_offset 8
	.cfi_offset lr, -4
	.cfi_offset r7, -8
	.pad	#8
	sub	sp, #8
	.cfi_def_cfa_offset 16
	mov	r0, sp
.Ltmp14:
	.loc	2 251 17 prologue_end           @ rt-thread/src/scheduler.c:251:17
	bl	_get_highest_priority_thread
	.loc	2 251 15 is_stmt 0              @ rt-thread/src/scheduler.c:251:15
	str	r0, [sp, #4]
	.loc	2 256 25 is_stmt 1              @ rt-thread/src/scheduler.c:256:25
	ldr	r0, [sp, #4]
	.loc	2 256 23 is_stmt 0              @ rt-thread/src/scheduler.c:256:23
	movw	r1, :lower16:rt_current_thread
	movt	r1, :upper16:rt_current_thread
	str	r0, [r1]
	.loc	2 259 31 is_stmt 1              @ rt-thread/src/scheduler.c:259:31
	ldr	r0, [sp, #4]
	.loc	2 259 5 is_stmt 0               @ rt-thread/src/scheduler.c:259:5
	bl	rt_schedule_remove_thread
	.loc	2 260 5 is_stmt 1               @ rt-thread/src/scheduler.c:260:5
	ldr	r1, [sp, #4]
	movs	r0, #3
	.loc	2 260 21 is_stmt 0              @ rt-thread/src/scheduler.c:260:21
	strb.w	r0, [r1, #52]
	.loc	2 266 42 is_stmt 1              @ rt-thread/src/scheduler.c:266:42
	ldr	r0, [sp, #4]
	.loc	2 266 53 is_stmt 0              @ rt-thread/src/scheduler.c:266:53
	adds	r0, #28
	.loc	2 266 5                         @ rt-thread/src/scheduler.c:266:5
	bl	rt_hw_context_switch_to
	.loc	2 270 1 is_stmt 1               @ rt-thread/src/scheduler.c:270:1
	add	sp, #8
	pop	{r7, pc}
.Ltmp15:
.Lfunc_end3:
	.size	rt_system_scheduler_start, .Lfunc_end3-rt_system_scheduler_start
	.cfi_endproc
	.cantunwind
	.fnend
                                        @ -- End function
	.section	.text._get_highest_priority_thread,"ax",%progbits
	.p2align	3                               @ -- Begin function _get_highest_priority_thread
	.type	_get_highest_priority_thread,%function
	.code	16                              @ @_get_highest_priority_thread
	.thumb_func
_get_highest_priority_thread:
.Lfunc_begin4:
	.loc	2 163 0                         @ rt-thread/src/scheduler.c:163:0
	.fnstart
	.cfi_startproc
@ %bb.0:
	.save	{r7, lr}
	push	{r7, lr}
	.cfi_def_cfa_offset 8
	.cfi_offset lr, -4
	.cfi_offset r7, -8
	.pad	#16
	sub	sp, #16
	.cfi_def_cfa_offset 24
	str	r0, [sp, #12]
.Ltmp16:
	.loc	2 173 39 prologue_end           @ rt-thread/src/scheduler.c:173:39
	movw	r0, :lower16:rt_thread_ready_priority_group
	movt	r0, :upper16:rt_thread_ready_priority_group
	ldr	r0, [r0]
	.loc	2 173 30 is_stmt 0              @ rt-thread/src/scheduler.c:173:30
	bl	__rt_ffs
	.loc	2 173 71                        @ rt-thread/src/scheduler.c:173:71
	subs	r0, #1
	.loc	2 173 28                        @ rt-thread/src/scheduler.c:173:28
	str	r0, [sp, #4]
	.loc	2 177 31 is_stmt 1              @ rt-thread/src/scheduler.c:177:31
	ldr	r1, [sp, #4]
	movw	r0, :lower16:rt_thread_priority_table
	movt	r0, :upper16:rt_thread_priority_table
	ldr.w	r0, [r0, r1, lsl #3]
	subs	r0, #20
	.loc	2 177 29 is_stmt 0              @ rt-thread/src/scheduler.c:177:29
	str	r0, [sp, #8]
	.loc	2 181 21 is_stmt 1              @ rt-thread/src/scheduler.c:181:21
	ldr	r0, [sp, #4]
	.loc	2 181 6 is_stmt 0               @ rt-thread/src/scheduler.c:181:6
	ldr	r1, [sp, #12]
	.loc	2 181 19                        @ rt-thread/src/scheduler.c:181:19
	str	r0, [r1]
	.loc	2 183 12 is_stmt 1              @ rt-thread/src/scheduler.c:183:12
	ldr	r0, [sp, #8]
	.loc	2 183 5 is_stmt 0               @ rt-thread/src/scheduler.c:183:5
	add	sp, #16
	pop	{r7, pc}
.Ltmp17:
.Lfunc_end4:
	.size	_get_highest_priority_thread, .Lfunc_end4-_get_highest_priority_thread
	.cfi_endproc
	.cantunwind
	.fnend
                                        @ -- End function
	.section	.text.rt_schedule_remove_thread,"ax",%progbits
	.hidden	rt_schedule_remove_thread       @ -- Begin function rt_schedule_remove_thread
	.globl	rt_schedule_remove_thread
	.p2align	3
	.type	rt_schedule_remove_thread,%function
	.code	16                              @ @rt_schedule_remove_thread
	.thumb_func
rt_schedule_remove_thread:
.Lfunc_begin5:
	.loc	2 806 0 is_stmt 1               @ rt-thread/src/scheduler.c:806:0
	.fnstart
	.cfi_startproc
@ %bb.0:
	.save	{r7, lr}
	push	{r7, lr}
	.cfi_def_cfa_offset 8
	.cfi_offset lr, -4
	.cfi_offset r7, -8
	.pad	#8
	sub	sp, #8
	.cfi_def_cfa_offset 16
	str	r0, [sp, #4]
.Ltmp18:
	.loc	2 809 5 prologue_end            @ rt-thread/src/scheduler.c:809:5
	ldr	r0, [sp, #4]
.Ltmp19:
	.loc	2 809 5 is_stmt 0               @ rt-thread/src/scheduler.c:809:5
	cbnz	r0, .LBB5_2
	b	.LBB5_1
.LBB5_1:
.Ltmp20:
	.loc	2 809 5                         @ rt-thread/src/scheduler.c:809:5
	movw	r0, :lower16:.L.str
	movt	r0, :upper16:.L.str
	movw	r1, :lower16:.L__FUNCTION__.rt_schedule_remove_thread
	movt	r1, :upper16:.L__FUNCTION__.rt_schedule_remove_thread
	movw	r2, #809
	bl	rt_assert_handler
	b	.LBB5_2
.Ltmp21:
.LBB5_2:
	.loc	2 812 13 is_stmt 1              @ rt-thread/src/scheduler.c:812:13
	bl	rt_hw_interrupt_disable
	.loc	2 812 11 is_stmt 0              @ rt-thread/src/scheduler.c:812:11
	str	r0, [sp]
	.loc	2 814 5 is_stmt 1               @ rt-thread/src/scheduler.c:814:5
	b	.LBB5_3
.LBB5_3:
.Ltmp22:
	.loc	2 814 5 is_stmt 0               @ rt-thread/src/scheduler.c:814:5
	b	.LBB5_4
.Ltmp23:
.LBB5_4:
	.loc	2 819 22 is_stmt 1              @ rt-thread/src/scheduler.c:819:22
	ldr	r0, [sp, #4]
	.loc	2 819 30 is_stmt 0              @ rt-thread/src/scheduler.c:819:30
	adds	r0, #20
	.loc	2 819 5                         @ rt-thread/src/scheduler.c:819:5
	bl	rt_list_remove
.Ltmp24:
	.loc	2 820 52 is_stmt 1              @ rt-thread/src/scheduler.c:820:52
	ldr	r0, [sp, #4]
	.loc	2 820 60 is_stmt 0              @ rt-thread/src/scheduler.c:820:60
	ldrb.w	r1, [r0, #53]
	.loc	2 820 27                        @ rt-thread/src/scheduler.c:820:27
	movw	r0, :lower16:rt_thread_priority_table
	movt	r0, :upper16:rt_thread_priority_table
	add.w	r0, r0, r1, lsl #3
	.loc	2 820 9                         @ rt-thread/src/scheduler.c:820:9
	bl	rt_list_isempty
.Ltmp25:
	.loc	2 820 9                         @ rt-thread/src/scheduler.c:820:9
	cbz	r0, .LBB5_6
	b	.LBB5_5
.LBB5_5:
.Ltmp26:
	.loc	2 829 44 is_stmt 1              @ rt-thread/src/scheduler.c:829:44
	ldr	r0, [sp, #4]
	.loc	2 829 52 is_stmt 0              @ rt-thread/src/scheduler.c:829:52
	ldr	r2, [r0, #56]
	.loc	2 829 40                        @ rt-thread/src/scheduler.c:829:40
	movw	r1, :lower16:rt_thread_ready_priority_group
	movt	r1, :upper16:rt_thread_ready_priority_group
	ldr	r0, [r1]
	bics	r0, r2
	str	r0, [r1]
	.loc	2 831 5 is_stmt 1               @ rt-thread/src/scheduler.c:831:5
	b	.LBB5_6
.Ltmp27:
.LBB5_6:
	.loc	2 834 28                        @ rt-thread/src/scheduler.c:834:28
	ldr	r0, [sp]
	.loc	2 834 5 is_stmt 0               @ rt-thread/src/scheduler.c:834:5
	bl	rt_hw_interrupt_enable
	.loc	2 835 1 is_stmt 1               @ rt-thread/src/scheduler.c:835:1
	add	sp, #8
	pop	{r7, pc}
.Ltmp28:
.Lfunc_end5:
	.size	rt_schedule_remove_thread, .Lfunc_end5-rt_schedule_remove_thread
	.cfi_endproc
	.cantunwind
	.fnend
                                        @ -- End function
	.section	.text.rt_schedule,"ax",%progbits
	.hidden	rt_schedule                     @ -- Begin function rt_schedule
	.globl	rt_schedule
	.p2align	3
	.type	rt_schedule,%function
	.code	16                              @ @rt_schedule
	.thumb_func
rt_schedule:
.Lfunc_begin6:
	.loc	2 419 0                         @ rt-thread/src/scheduler.c:419:0
	.fnstart
	.cfi_startproc
@ %bb.0:
	.save	{r7, lr}
	push	{r7, lr}
	.cfi_def_cfa_offset 8
	.cfi_offset lr, -4
	.cfi_offset r7, -8
	.pad	#24
	sub	sp, #24
	.cfi_def_cfa_offset 32
.Ltmp29:
	.loc	2 425 13 prologue_end           @ rt-thread/src/scheduler.c:425:13
	bl	rt_hw_interrupt_disable
	.loc	2 425 11 is_stmt 0              @ rt-thread/src/scheduler.c:425:11
	str	r0, [sp, #20]
.Ltmp30:
	.loc	2 428 9 is_stmt 1               @ rt-thread/src/scheduler.c:428:9
	movw	r0, :lower16:rt_scheduler_lock_nest
	movt	r0, :upper16:rt_scheduler_lock_nest
	ldrsh.w	r0, [r0]
.Ltmp31:
	.loc	2 428 9 is_stmt 0               @ rt-thread/src/scheduler.c:428:9
	cmp	r0, #0
	bne.w	.LBB6_29
	b	.LBB6_1
.LBB6_1:
.Ltmp32:
	.loc	2 432 13 is_stmt 1              @ rt-thread/src/scheduler.c:432:13
	movw	r0, :lower16:rt_thread_ready_priority_group
	movt	r0, :upper16:rt_thread_ready_priority_group
	ldr	r0, [r0]
.Ltmp33:
	.loc	2 432 13 is_stmt 0              @ rt-thread/src/scheduler.c:432:13
	cmp	r0, #0
	beq.w	.LBB6_28
	b	.LBB6_2
.LBB6_2:
	.loc	2 0 13                          @ rt-thread/src/scheduler.c:0:13
	movs	r0, #0
.Ltmp34:
	.loc	2 435 17 is_stmt 1              @ rt-thread/src/scheduler.c:435:17
	str	r0, [sp, #4]
	add	r0, sp, #8
	.loc	2 437 25                        @ rt-thread/src/scheduler.c:437:25
	bl	_get_highest_priority_thread
	.loc	2 437 23 is_stmt 0              @ rt-thread/src/scheduler.c:437:23
	str	r0, [sp, #16]
.Ltmp35:
	.loc	2 439 18 is_stmt 1              @ rt-thread/src/scheduler.c:439:18
	movw	r0, :lower16:rt_current_thread
	movt	r0, :upper16:rt_current_thread
	ldr	r0, [r0]
	ldrb.w	r0, [r0, #52]
	.loc	2 439 42 is_stmt 0              @ rt-thread/src/scheduler.c:439:42
	and	r0, r0, #7
.Ltmp36:
	.loc	2 439 17                        @ rt-thread/src/scheduler.c:439:17
	cmp	r0, #3
	bne	.LBB6_11
	b	.LBB6_3
.LBB6_3:
.Ltmp37:
	.loc	2 441 21 is_stmt 1              @ rt-thread/src/scheduler.c:441:21
	movw	r0, :lower16:rt_current_thread
	movt	r0, :upper16:rt_current_thread
	ldr	r0, [r0]
	.loc	2 441 40 is_stmt 0              @ rt-thread/src/scheduler.c:441:40
	ldrb.w	r0, [r0, #53]
	.loc	2 441 59                        @ rt-thread/src/scheduler.c:441:59
	ldr	r1, [sp, #8]
.Ltmp38:
	.loc	2 441 21                        @ rt-thread/src/scheduler.c:441:21
	cmp	r0, r1
	bhs	.LBB6_5
	b	.LBB6_4
.LBB6_4:
.Ltmp39:
	.loc	2 443 33 is_stmt 1              @ rt-thread/src/scheduler.c:443:33
	movw	r0, :lower16:rt_current_thread
	movt	r0, :upper16:rt_current_thread
	ldr	r0, [r0]
	.loc	2 443 31 is_stmt 0              @ rt-thread/src/scheduler.c:443:31
	str	r0, [sp, #16]
	.loc	2 444 17 is_stmt 1              @ rt-thread/src/scheduler.c:444:17
	b	.LBB6_10
.Ltmp40:
.LBB6_5:
	.loc	2 445 26                        @ rt-thread/src/scheduler.c:445:26
	movw	r0, :lower16:rt_current_thread
	movt	r0, :upper16:rt_current_thread
	ldr	r0, [r0]
	.loc	2 445 45 is_stmt 0              @ rt-thread/src/scheduler.c:445:45
	ldrb.w	r0, [r0, #53]
	.loc	2 445 65                        @ rt-thread/src/scheduler.c:445:65
	ldr	r1, [sp, #8]
	.loc	2 445 88                        @ rt-thread/src/scheduler.c:445:88
	cmp	r0, r1
	bne	.LBB6_8
	b	.LBB6_6
.LBB6_6:
	.loc	2 445 92                        @ rt-thread/src/scheduler.c:445:92
	movw	r0, :lower16:rt_current_thread
	movt	r0, :upper16:rt_current_thread
	ldr	r0, [r0]
	ldrb.w	r0, [r0, #52]
.Ltmp41:
	.loc	2 445 26                        @ rt-thread/src/scheduler.c:445:26
	lsls	r0, r0, #28
	cmp	r0, #0
	bmi	.LBB6_8
	b	.LBB6_7
.LBB6_7:
.Ltmp42:
	.loc	2 447 33 is_stmt 1              @ rt-thread/src/scheduler.c:447:33
	movw	r0, :lower16:rt_current_thread
	movt	r0, :upper16:rt_current_thread
	ldr	r0, [r0]
	.loc	2 447 31 is_stmt 0              @ rt-thread/src/scheduler.c:447:31
	str	r0, [sp, #16]
	.loc	2 448 17 is_stmt 1              @ rt-thread/src/scheduler.c:448:17
	b	.LBB6_9
.Ltmp43:
.LBB6_8:
	.loc	2 451 21                        @ rt-thread/src/scheduler.c:451:21
	movw	r0, :lower16:rt_current_thread
	movt	r0, :upper16:rt_current_thread
	ldr	r1, [r0]
	.loc	2 451 45 is_stmt 0              @ rt-thread/src/scheduler.c:451:45
	ldrb.w	r0, [r1, #52]
	and	r0, r0, #247
	strb.w	r0, [r1, #52]
	movs	r0, #1
	.loc	2 452 45 is_stmt 1              @ rt-thread/src/scheduler.c:452:45
	str	r0, [sp, #4]
	b	.LBB6_9
.Ltmp44:
.LBB6_9:
	.loc	2 0 45 is_stmt 0                @ rt-thread/src/scheduler.c:0:45
	b	.LBB6_10
.LBB6_10:
	.loc	2 454 13 is_stmt 1              @ rt-thread/src/scheduler.c:454:13
	b	.LBB6_11
.Ltmp45:
.LBB6_11:
	.loc	2 456 17                        @ rt-thread/src/scheduler.c:456:17
	ldr	r0, [sp, #16]
	.loc	2 456 30 is_stmt 0              @ rt-thread/src/scheduler.c:456:30
	movw	r1, :lower16:rt_current_thread
	movt	r1, :upper16:rt_current_thread
	ldr	r1, [r1]
.Ltmp46:
	.loc	2 456 17                        @ rt-thread/src/scheduler.c:456:17
	cmp	r0, r1
	beq	.LBB6_26
	b	.LBB6_12
.LBB6_12:
.Ltmp47:
	.loc	2 459 51 is_stmt 1              @ rt-thread/src/scheduler.c:459:51
	ldr	r0, [sp, #8]
	.loc	2 459 37 is_stmt 0              @ rt-thread/src/scheduler.c:459:37
	movw	r1, :lower16:rt_current_priority
	movt	r1, :upper16:rt_current_priority
	strb	r0, [r1]
	.loc	2 460 39 is_stmt 1              @ rt-thread/src/scheduler.c:460:39
	movw	r1, :lower16:rt_current_thread
	movt	r1, :upper16:rt_current_thread
	ldr	r0, [r1]
	.loc	2 460 37 is_stmt 0              @ rt-thread/src/scheduler.c:460:37
	str	r0, [sp, #12]
	.loc	2 461 39 is_stmt 1              @ rt-thread/src/scheduler.c:461:39
	ldr	r0, [sp, #16]
	.loc	2 461 37 is_stmt 0              @ rt-thread/src/scheduler.c:461:37
	str	r0, [r1]
	.loc	2 463 17 is_stmt 1              @ rt-thread/src/scheduler.c:463:17
	b	.LBB6_13
.LBB6_13:
.Ltmp48:
	.loc	2 463 17 is_stmt 0              @ rt-thread/src/scheduler.c:463:17
	movw	r0, :lower16:rt_scheduler_hook
	movt	r0, :upper16:rt_scheduler_hook
	ldr	r0, [r0]
.Ltmp49:
	.loc	2 463 17                        @ rt-thread/src/scheduler.c:463:17
	cbz	r0, .LBB6_15
	b	.LBB6_14
.LBB6_14:
.Ltmp50:
	.loc	2 463 17                        @ rt-thread/src/scheduler.c:463:17
	movw	r0, :lower16:rt_scheduler_hook
	movt	r0, :upper16:rt_scheduler_hook
	ldr	r2, [r0]
	ldr	r0, [sp, #12]
	ldr	r1, [sp, #16]
	blx	r2
	b	.LBB6_15
.Ltmp51:
.LBB6_15:
	.loc	2 463 17                        @ rt-thread/src/scheduler.c:463:17
	b	.LBB6_16
.Ltmp52:
.LBB6_16:
	.loc	2 465 21 is_stmt 1              @ rt-thread/src/scheduler.c:465:21
	ldr	r0, [sp, #4]
.Ltmp53:
	.loc	2 465 21 is_stmt 0              @ rt-thread/src/scheduler.c:465:21
	cbz	r0, .LBB6_18
	b	.LBB6_17
.LBB6_17:
.Ltmp54:
	.loc	2 467 47 is_stmt 1              @ rt-thread/src/scheduler.c:467:47
	ldr	r0, [sp, #12]
	.loc	2 467 21 is_stmt 0              @ rt-thread/src/scheduler.c:467:21
	bl	rt_schedule_insert_thread
	.loc	2 468 17 is_stmt 1              @ rt-thread/src/scheduler.c:468:17
	b	.LBB6_18
.Ltmp55:
.LBB6_18:
	.loc	2 470 43                        @ rt-thread/src/scheduler.c:470:43
	ldr	r0, [sp, #16]
	.loc	2 470 17 is_stmt 0              @ rt-thread/src/scheduler.c:470:17
	bl	rt_schedule_remove_thread
	.loc	2 471 56 is_stmt 1              @ rt-thread/src/scheduler.c:471:56
	ldr	r1, [sp, #16]
	ldrb.w	r0, [r1, #52]
	.loc	2 471 72 is_stmt 0              @ rt-thread/src/scheduler.c:471:72
	and	r0, r0, #248
	.loc	2 471 53                        @ rt-thread/src/scheduler.c:471:53
	adds	r0, #3
	.loc	2 471 33                        @ rt-thread/src/scheduler.c:471:33
	strb.w	r0, [r1, #52]
	.loc	2 474 17 is_stmt 1              @ rt-thread/src/scheduler.c:474:17
	b	.LBB6_19
.LBB6_19:
.Ltmp56:
	.loc	2 474 17 is_stmt 0              @ rt-thread/src/scheduler.c:474:17
	b	.LBB6_20
.Ltmp57:
.LBB6_20:
	.loc	2 483 43 is_stmt 1              @ rt-thread/src/scheduler.c:483:43
	ldr	r0, [sp, #16]
	.loc	2 483 17 is_stmt 0              @ rt-thread/src/scheduler.c:483:17
	bl	_rt_scheduler_stack_check
.Ltmp58:
	.loc	2 486 21 is_stmt 1              @ rt-thread/src/scheduler.c:486:21
	movw	r0, :lower16:rt_interrupt_nest
	movt	r0, :upper16:rt_interrupt_nest
	ldrb	r0, [r0]
.Ltmp59:
	.loc	2 486 21 is_stmt 0              @ rt-thread/src/scheduler.c:486:21
	cbnz	r0, .LBB6_22
	b	.LBB6_21
.LBB6_21:
.Ltmp60:
	.loc	2 490 55 is_stmt 1              @ rt-thread/src/scheduler.c:490:55
	ldr	r0, [sp, #12]
	.loc	2 490 68 is_stmt 0              @ rt-thread/src/scheduler.c:490:68
	adds	r0, #28
	.loc	2 491 42 is_stmt 1              @ rt-thread/src/scheduler.c:491:42
	ldr	r1, [sp, #16]
	.loc	2 491 53 is_stmt 0              @ rt-thread/src/scheduler.c:491:53
	adds	r1, #28
	.loc	2 490 21 is_stmt 1              @ rt-thread/src/scheduler.c:490:21
	bl	rt_hw_context_switch
	.loc	2 494 44                        @ rt-thread/src/scheduler.c:494:44
	ldr	r0, [sp, #20]
	.loc	2 494 21 is_stmt 0              @ rt-thread/src/scheduler.c:494:21
	bl	rt_hw_interrupt_enable
	.loc	2 515 21 is_stmt 1              @ rt-thread/src/scheduler.c:515:21
	b	.LBB6_30
.Ltmp61:
.LBB6_22:
	.loc	2 519 21                        @ rt-thread/src/scheduler.c:519:21
	b	.LBB6_23
.LBB6_23:
.Ltmp62:
	.loc	2 519 21 is_stmt 0              @ rt-thread/src/scheduler.c:519:21
	b	.LBB6_24
.Ltmp63:
.LBB6_24:
	.loc	2 521 65 is_stmt 1              @ rt-thread/src/scheduler.c:521:65
	ldr	r0, [sp, #12]
	.loc	2 521 78 is_stmt 0              @ rt-thread/src/scheduler.c:521:78
	adds	r0, #28
	.loc	2 522 42 is_stmt 1              @ rt-thread/src/scheduler.c:522:42
	ldr	r1, [sp, #16]
	.loc	2 522 53 is_stmt 0              @ rt-thread/src/scheduler.c:522:53
	adds	r1, #28
	.loc	2 521 21 is_stmt 1              @ rt-thread/src/scheduler.c:521:21
	bl	rt_hw_context_switch_interrupt
	b	.LBB6_25
.Ltmp64:
.LBB6_25:
	.loc	2 524 13                        @ rt-thread/src/scheduler.c:524:13
	b	.LBB6_27
.Ltmp65:
.LBB6_26:
	.loc	2 527 43                        @ rt-thread/src/scheduler.c:527:43
	movw	r0, :lower16:rt_current_thread
	movt	r0, :upper16:rt_current_thread
	str	r0, [sp]                        @ 4-byte Spill
	ldr	r0, [r0]
	.loc	2 527 17 is_stmt 0              @ rt-thread/src/scheduler.c:527:17
	bl	rt_schedule_remove_thread
	ldr	r0, [sp]                        @ 4-byte Reload
	.loc	2 528 64 is_stmt 1              @ rt-thread/src/scheduler.c:528:64
	ldr	r1, [r0]
	ldrb.w	r0, [r1, #52]
	.loc	2 528 88 is_stmt 0              @ rt-thread/src/scheduler.c:528:88
	and	r0, r0, #248
	.loc	2 528 61                        @ rt-thread/src/scheduler.c:528:61
	adds	r0, #3
	.loc	2 528 41                        @ rt-thread/src/scheduler.c:528:41
	strb.w	r0, [r1, #52]
	b	.LBB6_27
.Ltmp66:
.LBB6_27:
	.loc	2 530 9 is_stmt 1               @ rt-thread/src/scheduler.c:530:9
	b	.LBB6_28
.Ltmp67:
.LBB6_28:
	.loc	2 531 5                         @ rt-thread/src/scheduler.c:531:5
	b	.LBB6_29
.Ltmp68:
.LBB6_29:
	.loc	2 534 28                        @ rt-thread/src/scheduler.c:534:28
	ldr	r0, [sp, #20]
	.loc	2 534 5 is_stmt 0               @ rt-thread/src/scheduler.c:534:5
	bl	rt_hw_interrupt_enable
	b	.LBB6_30
.LBB6_30:
.Ltmp69:
	@DEBUG_LABEL: rt_schedule:__exit
	.loc	2 537 5 is_stmt 1               @ rt-thread/src/scheduler.c:537:5
	add	sp, #24
	pop	{r7, pc}
.Ltmp70:
.Lfunc_end6:
	.size	rt_schedule, .Lfunc_end6-rt_schedule
	.cfi_endproc
	.cantunwind
	.fnend
                                        @ -- End function
	.section	.text.rt_schedule_insert_thread,"ax",%progbits
	.hidden	rt_schedule_insert_thread       @ -- Begin function rt_schedule_insert_thread
	.globl	rt_schedule_insert_thread
	.p2align	3
	.type	rt_schedule_insert_thread,%function
	.code	16                              @ @rt_schedule_insert_thread
	.thumb_func
rt_schedule_insert_thread:
.Lfunc_begin7:
	.loc	2 709 0                         @ rt-thread/src/scheduler.c:709:0
	.fnstart
	.cfi_startproc
@ %bb.0:
	.save	{r7, lr}
	push	{r7, lr}
	.cfi_def_cfa_offset 8
	.cfi_offset lr, -4
	.cfi_offset r7, -8
	.pad	#8
	sub	sp, #8
	.cfi_def_cfa_offset 16
	str	r0, [sp, #4]
.Ltmp71:
	.loc	2 712 5 prologue_end            @ rt-thread/src/scheduler.c:712:5
	ldr	r0, [sp, #4]
.Ltmp72:
	.loc	2 712 5 is_stmt 0               @ rt-thread/src/scheduler.c:712:5
	cbnz	r0, .LBB7_2
	b	.LBB7_1
.LBB7_1:
.Ltmp73:
	.loc	2 712 5                         @ rt-thread/src/scheduler.c:712:5
	movw	r0, :lower16:.L.str
	movt	r0, :upper16:.L.str
	movw	r1, :lower16:.L__FUNCTION__.rt_schedule_insert_thread
	movt	r1, :upper16:.L__FUNCTION__.rt_schedule_insert_thread
	mov.w	r2, #712
	bl	rt_assert_handler
	b	.LBB7_2
.Ltmp74:
.LBB7_2:
	.loc	2 715 12 is_stmt 1              @ rt-thread/src/scheduler.c:715:12
	bl	rt_hw_interrupt_disable
	.loc	2 715 10 is_stmt 0              @ rt-thread/src/scheduler.c:715:10
	str	r0, [sp]
.Ltmp75:
	.loc	2 718 9 is_stmt 1               @ rt-thread/src/scheduler.c:718:9
	ldr	r0, [sp, #4]
	.loc	2 718 19 is_stmt 0              @ rt-thread/src/scheduler.c:718:19
	movw	r1, :lower16:rt_current_thread
	movt	r1, :upper16:rt_current_thread
	ldr	r1, [r1]
.Ltmp76:
	.loc	2 718 9                         @ rt-thread/src/scheduler.c:718:9
	cmp	r0, r1
	bne	.LBB7_4
	b	.LBB7_3
.LBB7_3:
.Ltmp77:
	.loc	2 720 45 is_stmt 1              @ rt-thread/src/scheduler.c:720:45
	ldr	r1, [sp, #4]
	ldrb.w	r0, [r1, #52]
	.loc	2 720 58 is_stmt 0              @ rt-thread/src/scheduler.c:720:58
	and	r0, r0, #248
	.loc	2 720 42                        @ rt-thread/src/scheduler.c:720:42
	adds	r0, #3
	.loc	2 720 22                        @ rt-thread/src/scheduler.c:720:22
	strb.w	r0, [r1, #52]
	.loc	2 721 9 is_stmt 1               @ rt-thread/src/scheduler.c:721:9
	b	.LBB7_7
.Ltmp78:
.LBB7_4:
	.loc	2 725 39                        @ rt-thread/src/scheduler.c:725:39
	ldr	r1, [sp, #4]
	ldrb.w	r0, [r1, #52]
	.loc	2 725 52 is_stmt 0              @ rt-thread/src/scheduler.c:725:52
	and	r0, r0, #248
	.loc	2 725 36                        @ rt-thread/src/scheduler.c:725:36
	adds	r0, #1
	.loc	2 725 18                        @ rt-thread/src/scheduler.c:725:18
	strb.w	r0, [r1, #52]
	.loc	2 727 54 is_stmt 1              @ rt-thread/src/scheduler.c:727:54
	ldr	r1, [sp, #4]
	.loc	2 727 62 is_stmt 0              @ rt-thread/src/scheduler.c:727:62
	ldrb.w	r2, [r1, #53]
	.loc	2 727 29                        @ rt-thread/src/scheduler.c:727:29
	movw	r0, :lower16:rt_thread_priority_table
	movt	r0, :upper16:rt_thread_priority_table
	add.w	r0, r0, r2, lsl #3
	.loc	2 728 37 is_stmt 1              @ rt-thread/src/scheduler.c:728:37
	adds	r1, #20
	.loc	2 727 5                         @ rt-thread/src/scheduler.c:727:5
	bl	rt_list_insert_before
	.loc	2 730 5                         @ rt-thread/src/scheduler.c:730:5
	b	.LBB7_5
.LBB7_5:
.Ltmp79:
	.loc	2 730 5 is_stmt 0               @ rt-thread/src/scheduler.c:730:5
	b	.LBB7_6
.Ltmp80:
.LBB7_6:
	.loc	2 737 39 is_stmt 1              @ rt-thread/src/scheduler.c:737:39
	ldr	r0, [sp, #4]
	.loc	2 737 47 is_stmt 0              @ rt-thread/src/scheduler.c:737:47
	ldr	r2, [r0, #56]
	.loc	2 737 36                        @ rt-thread/src/scheduler.c:737:36
	movw	r1, :lower16:rt_thread_ready_priority_group
	movt	r1, :upper16:rt_thread_ready_priority_group
	ldr	r0, [r1]
	orrs	r0, r2
	str	r0, [r1]
	.loc	2 737 5                         @ rt-thread/src/scheduler.c:737:5
	b	.LBB7_7
.LBB7_7:
.Ltmp81:
	@DEBUG_LABEL: rt_schedule_insert_thread:__exit
	.loc	2 741 28 is_stmt 1              @ rt-thread/src/scheduler.c:741:28
	ldr	r0, [sp]
	.loc	2 741 5 is_stmt 0               @ rt-thread/src/scheduler.c:741:5
	bl	rt_hw_interrupt_enable
	.loc	2 742 1 is_stmt 1               @ rt-thread/src/scheduler.c:742:1
	add	sp, #8
	pop	{r7, pc}
.Ltmp82:
.Lfunc_end7:
	.size	rt_schedule_insert_thread, .Lfunc_end7-rt_schedule_insert_thread
	.cfi_endproc
	.cantunwind
	.fnend
                                        @ -- End function
	.section	.text._rt_scheduler_stack_check,"ax",%progbits
	.p2align	3                               @ -- Begin function _rt_scheduler_stack_check
	.type	_rt_scheduler_stack_check,%function
	.code	16                              @ @_rt_scheduler_stack_check
	.thumb_func
_rt_scheduler_stack_check:
.Lfunc_begin8:
	.loc	2 82 0                          @ rt-thread/src/scheduler.c:82:0
	.fnstart
	.cfi_startproc
@ %bb.0:
	.save	{r7, lr}
	push	{r7, lr}
	.cfi_def_cfa_offset 8
	.cfi_offset lr, -4
	.cfi_offset r7, -8
	.pad	#8
	sub	sp, #8
	.cfi_def_cfa_offset 16
	str	r0, [sp, #4]
.Ltmp83:
	.loc	2 83 5 prologue_end             @ rt-thread/src/scheduler.c:83:5
	ldr	r0, [sp, #4]
.Ltmp84:
	.loc	2 83 5 is_stmt 0                @ rt-thread/src/scheduler.c:83:5
	cbnz	r0, .LBB8_2
	b	.LBB8_1
.LBB8_1:
.Ltmp85:
	.loc	2 83 5                          @ rt-thread/src/scheduler.c:83:5
	movw	r0, :lower16:.L.str
	movt	r0, :upper16:.L.str
	movw	r1, :lower16:.L__FUNCTION__._rt_scheduler_stack_check
	movt	r1, :upper16:.L__FUNCTION__._rt_scheduler_stack_check
	movs	r2, #83
	bl	rt_assert_handler
	b	.LBB8_2
.Ltmp86:
.LBB8_2:
	.loc	2 88 25 is_stmt 1               @ rt-thread/src/scheduler.c:88:25
	ldr	r0, [sp, #4]
	.loc	2 88 33 is_stmt 0               @ rt-thread/src/scheduler.c:88:33
	ldr	r0, [r0, #40]
	.loc	2 88 9                          @ rt-thread/src/scheduler.c:88:9
	ldrb	r0, [r0]
	.loc	2 88 52                         @ rt-thread/src/scheduler.c:88:52
	cmp	r0, #35
	bne	.LBB8_5
	b	.LBB8_3
.LBB8_3:
	.loc	2 90 21 is_stmt 1               @ rt-thread/src/scheduler.c:90:21
	ldr	r1, [sp, #4]
	.loc	2 90 29 is_stmt 0               @ rt-thread/src/scheduler.c:90:29
	ldr	r0, [r1, #28]
	.loc	2 90 55                         @ rt-thread/src/scheduler.c:90:55
	ldr	r1, [r1, #40]
	.loc	2 90 66                         @ rt-thread/src/scheduler.c:90:66
	cmp	r0, r1
	bls	.LBB8_5
	b	.LBB8_4
.LBB8_4:
	.loc	2 91 21 is_stmt 1               @ rt-thread/src/scheduler.c:91:21
	ldr	r2, [sp, #4]
	.loc	2 91 29 is_stmt 0               @ rt-thread/src/scheduler.c:91:29
	ldr	r0, [r2, #28]
	.loc	2 92 29 is_stmt 1               @ rt-thread/src/scheduler.c:92:29
	ldr	r1, [r2, #40]
	.loc	2 92 62 is_stmt 0               @ rt-thread/src/scheduler.c:92:62
	ldr	r2, [r2, #44]
	.loc	2 92 40                         @ rt-thread/src/scheduler.c:92:40
	add	r1, r2
.Ltmp87:
	.loc	2 88 9 is_stmt 1                @ rt-thread/src/scheduler.c:88:9
	cmp	r0, r1
	bls	.LBB8_9
	b	.LBB8_5
.LBB8_5:
.Ltmp88:
	.loc	2 96 50                         @ rt-thread/src/scheduler.c:96:50
	ldr	r1, [sp, #4]
	.loc	2 96 9 is_stmt 0                @ rt-thread/src/scheduler.c:96:9
	movw	r0, :lower16:.L.str.1
	movt	r0, :upper16:.L.str.1
	bl	rt_kprintf
.Ltmp89:
	.loc	2 100 13 is_stmt 1              @ rt-thread/src/scheduler.c:100:13
	bl	list_thread
.Ltmp90:
	.loc	2 103 17                        @ rt-thread/src/scheduler.c:103:17
	bl	rt_hw_interrupt_disable
	.loc	2 103 15 is_stmt 0              @ rt-thread/src/scheduler.c:103:15
	str	r0, [sp]
	.loc	2 104 9 is_stmt 1               @ rt-thread/src/scheduler.c:104:9
	b	.LBB8_6
.LBB8_6:                                @ =>This Inner Loop Header: Depth=1
	.loc	2 104 16 is_stmt 0              @ rt-thread/src/scheduler.c:104:16
	ldr	r0, [sp]
	.loc	2 104 9                         @ rt-thread/src/scheduler.c:104:9
	cbz	r0, .LBB8_8
	b	.LBB8_7
.LBB8_7:                                @   in Loop: Header=BB8_6 Depth=1
	b	.LBB8_6
.LBB8_8:
	.loc	2 105 5 is_stmt 1               @ rt-thread/src/scheduler.c:105:5
	b	.LBB8_12
.Ltmp91:
.LBB8_9:
	.loc	2 113 26                        @ rt-thread/src/scheduler.c:113:26
	ldr	r1, [sp, #4]
	.loc	2 113 34 is_stmt 0              @ rt-thread/src/scheduler.c:113:34
	ldr	r0, [r1, #28]
	.loc	2 113 61                        @ rt-thread/src/scheduler.c:113:61
	ldr	r1, [r1, #40]
	.loc	2 113 72                        @ rt-thread/src/scheduler.c:113:72
	adds	r1, #32
.Ltmp92:
	.loc	2 113 14                        @ rt-thread/src/scheduler.c:113:14
	cmp	r0, r1
	bhi	.LBB8_11
	b	.LBB8_10
.LBB8_10:
.Ltmp93:
	.loc	2 116 20 is_stmt 1              @ rt-thread/src/scheduler.c:116:20
	ldr	r1, [sp, #4]
	.loc	2 115 9                         @ rt-thread/src/scheduler.c:115:9
	movw	r0, :lower16:.L.str.2
	movt	r0, :upper16:.L.str.2
	bl	rt_kprintf
	.loc	2 117 5                         @ rt-thread/src/scheduler.c:117:5
	b	.LBB8_11
.Ltmp94:
.LBB8_11:
	.loc	2 0 5 is_stmt 0                 @ rt-thread/src/scheduler.c:0:5
	b	.LBB8_12
.LBB8_12:
	.loc	2 119 1 is_stmt 1               @ rt-thread/src/scheduler.c:119:1
	add	sp, #8
	pop	{r7, pc}
.Ltmp95:
.Lfunc_end8:
	.size	_rt_scheduler_stack_check, .Lfunc_end8-_rt_scheduler_stack_check
	.cfi_endproc
	.cantunwind
	.fnend
                                        @ -- End function
	.section	.text.rt_list_insert_before,"ax",%progbits
	.p2align	3                               @ -- Begin function rt_list_insert_before
	.type	rt_list_insert_before,%function
	.code	16                              @ @rt_list_insert_before
	.thumb_func
rt_list_insert_before:
.Lfunc_begin9:
	.loc	3 74 0                          @ rt-thread/include\rtservice.h:74:0
	.fnstart
	.cfi_startproc
@ %bb.0:
	.pad	#8
	sub	sp, #8
	.cfi_def_cfa_offset 8
	str	r0, [sp, #4]
	str	r1, [sp]
.Ltmp96:
	.loc	3 75 21 prologue_end            @ rt-thread/include\rtservice.h:75:21
	ldr	r0, [sp]
	.loc	3 75 5 is_stmt 0                @ rt-thread/include\rtservice.h:75:5
	ldr	r1, [sp, #4]
	.loc	3 75 8                          @ rt-thread/include\rtservice.h:75:8
	ldr	r1, [r1, #4]
	.loc	3 75 19                         @ rt-thread/include\rtservice.h:75:19
	str	r0, [r1]
	.loc	3 76 15 is_stmt 1               @ rt-thread/include\rtservice.h:76:15
	ldr	r0, [sp, #4]
	.loc	3 76 18 is_stmt 0               @ rt-thread/include\rtservice.h:76:18
	ldr	r0, [r0, #4]
	.loc	3 76 5                          @ rt-thread/include\rtservice.h:76:5
	ldr	r1, [sp]
	.loc	3 76 13                         @ rt-thread/include\rtservice.h:76:13
	str	r0, [r1, #4]
	.loc	3 78 15 is_stmt 1               @ rt-thread/include\rtservice.h:78:15
	ldr	r0, [sp]
	.loc	3 78 5 is_stmt 0                @ rt-thread/include\rtservice.h:78:5
	ldr	r1, [sp, #4]
	.loc	3 78 13                         @ rt-thread/include\rtservice.h:78:13
	str	r0, [r1, #4]
	.loc	3 79 15 is_stmt 1               @ rt-thread/include\rtservice.h:79:15
	ldr	r0, [sp, #4]
	.loc	3 79 5 is_stmt 0                @ rt-thread/include\rtservice.h:79:5
	ldr	r1, [sp]
	.loc	3 79 13                         @ rt-thread/include\rtservice.h:79:13
	str	r0, [r1]
	.loc	3 80 1 is_stmt 1                @ rt-thread/include\rtservice.h:80:1
	add	sp, #8
	bx	lr
.Ltmp97:
.Lfunc_end9:
	.size	rt_list_insert_before, .Lfunc_end9-rt_list_insert_before
	.cfi_endproc
	.cantunwind
	.fnend
                                        @ -- End function
	.section	.text.rt_list_remove,"ax",%progbits
	.p2align	3                               @ -- Begin function rt_list_remove
	.type	rt_list_remove,%function
	.code	16                              @ @rt_list_remove
	.thumb_func
rt_list_remove:
.Lfunc_begin10:
	.loc	3 87 0                          @ rt-thread/include\rtservice.h:87:0
	.fnstart
	.cfi_startproc
@ %bb.0:
	.pad	#4
	sub	sp, #4
	.cfi_def_cfa_offset 4
	str	r0, [sp]
.Ltmp98:
	.loc	3 88 21 prologue_end            @ rt-thread/include\rtservice.h:88:21
	ldr	r0, [sp]
	.loc	3 88 8 is_stmt 0                @ rt-thread/include\rtservice.h:88:8
	ldr	r1, [r0]
	.loc	3 88 24                         @ rt-thread/include\rtservice.h:88:24
	ldr	r0, [r0, #4]
	.loc	3 88 19                         @ rt-thread/include\rtservice.h:88:19
	str	r0, [r1, #4]
	.loc	3 89 21 is_stmt 1               @ rt-thread/include\rtservice.h:89:21
	ldr	r1, [sp]
	.loc	3 89 24 is_stmt 0               @ rt-thread/include\rtservice.h:89:24
	ldr	r0, [r1]
	.loc	3 89 8                          @ rt-thread/include\rtservice.h:89:8
	ldr	r1, [r1, #4]
	.loc	3 89 19                         @ rt-thread/include\rtservice.h:89:19
	str	r0, [r1]
	.loc	3 91 25 is_stmt 1               @ rt-thread/include\rtservice.h:91:25
	ldr	r0, [sp]
	.loc	3 91 23 is_stmt 0               @ rt-thread/include\rtservice.h:91:23
	str	r0, [r0, #4]
	.loc	3 91 5                          @ rt-thread/include\rtservice.h:91:5
	ldr	r1, [sp]
	.loc	3 91 13                         @ rt-thread/include\rtservice.h:91:13
	str	r0, [r1]
	.loc	3 92 1 is_stmt 1                @ rt-thread/include\rtservice.h:92:1
	add	sp, #4
	bx	lr
.Ltmp99:
.Lfunc_end10:
	.size	rt_list_remove, .Lfunc_end10-rt_list_remove
	.cfi_endproc
	.cantunwind
	.fnend
                                        @ -- End function
	.section	.text.rt_list_isempty,"ax",%progbits
	.p2align	3                               @ -- Begin function rt_list_isempty
	.type	rt_list_isempty,%function
	.code	16                              @ @rt_list_isempty
	.thumb_func
rt_list_isempty:
.Lfunc_begin11:
	.loc	3 99 0                          @ rt-thread/include\rtservice.h:99:0
	.fnstart
	.cfi_startproc
@ %bb.0:
	.pad	#4
	sub	sp, #4
	.cfi_def_cfa_offset 4
	str	r0, [sp]
.Ltmp100:
	.loc	3 100 12 prologue_end           @ rt-thread/include\rtservice.h:100:12
	ldr	r1, [sp]
	.loc	3 100 15 is_stmt 0              @ rt-thread/include\rtservice.h:100:15
	ldr	r0, [r1]
	.loc	3 100 20                        @ rt-thread/include\rtservice.h:100:20
	subs	r0, r0, r1
	clz	r0, r0
	lsrs	r0, r0, #5
	.loc	3 100 5                         @ rt-thread/include\rtservice.h:100:5
	add	sp, #4
	bx	lr
.Ltmp101:
.Lfunc_end11:
	.size	rt_list_isempty, .Lfunc_end11-rt_list_isempty
	.cfi_endproc
	.cantunwind
	.fnend
                                        @ -- End function
	.section	.text.rt_enter_critical,"ax",%progbits
	.hidden	rt_enter_critical               @ -- Begin function rt_enter_critical
	.globl	rt_enter_critical
	.p2align	3
	.type	rt_enter_critical,%function
	.code	16                              @ @rt_enter_critical
	.thumb_func
rt_enter_critical:
.Lfunc_begin12:
	.loc	2 879 0 is_stmt 1               @ rt-thread/src/scheduler.c:879:0
	.fnstart
	.cfi_startproc
@ %bb.0:
	.save	{r7, lr}
	push	{r7, lr}
	.cfi_def_cfa_offset 8
	.cfi_offset lr, -4
	.cfi_offset r7, -8
	.pad	#8
	sub	sp, #8
	.cfi_def_cfa_offset 16
.Ltmp102:
	.loc	2 883 13 prologue_end           @ rt-thread/src/scheduler.c:883:13
	bl	rt_hw_interrupt_disable
	.loc	2 883 11 is_stmt 0              @ rt-thread/src/scheduler.c:883:11
	str	r0, [sp, #4]
	.loc	2 889 28 is_stmt 1              @ rt-thread/src/scheduler.c:889:28
	movw	r1, :lower16:rt_scheduler_lock_nest
	movt	r1, :upper16:rt_scheduler_lock_nest
	ldrh	r0, [r1]
	adds	r0, #1
	strh	r0, [r1]
	.loc	2 892 28                        @ rt-thread/src/scheduler.c:892:28
	ldr	r0, [sp, #4]
	.loc	2 892 5 is_stmt 0               @ rt-thread/src/scheduler.c:892:5
	bl	rt_hw_interrupt_enable
	.loc	2 893 1 is_stmt 1               @ rt-thread/src/scheduler.c:893:1
	add	sp, #8
	pop	{r7, pc}
.Ltmp103:
.Lfunc_end12:
	.size	rt_enter_critical, .Lfunc_end12-rt_enter_critical
	.cfi_endproc
	.cantunwind
	.fnend
                                        @ -- End function
	.section	.text.rt_exit_critical,"ax",%progbits
	.hidden	rt_exit_critical                @ -- Begin function rt_exit_critical
	.globl	rt_exit_critical
	.p2align	3
	.type	rt_exit_critical,%function
	.code	16                              @ @rt_exit_critical
	.thumb_func
rt_exit_critical:
.Lfunc_begin13:
	.loc	2 941 0                         @ rt-thread/src/scheduler.c:941:0
	.fnstart
	.cfi_startproc
@ %bb.0:
	.save	{r7, lr}
	push	{r7, lr}
	.cfi_def_cfa_offset 8
	.cfi_offset lr, -4
	.cfi_offset r7, -8
	.pad	#8
	sub	sp, #8
	.cfi_def_cfa_offset 16
.Ltmp104:
	.loc	2 945 13 prologue_end           @ rt-thread/src/scheduler.c:945:13
	bl	rt_hw_interrupt_disable
	.loc	2 945 11 is_stmt 0              @ rt-thread/src/scheduler.c:945:11
	str	r0, [sp, #4]
	.loc	2 947 28 is_stmt 1              @ rt-thread/src/scheduler.c:947:28
	movw	r0, :lower16:rt_scheduler_lock_nest
	movt	r0, :upper16:rt_scheduler_lock_nest
	ldrh	r1, [r0]
	subs	r1, #1
	strh	r1, [r0]
.Ltmp105:
	.loc	2 948 9                         @ rt-thread/src/scheduler.c:948:9
	ldrsh.w	r0, [r0]
.Ltmp106:
	.loc	2 948 9 is_stmt 0               @ rt-thread/src/scheduler.c:948:9
	cmp	r0, #0
	bgt	.LBB13_4
	b	.LBB13_1
.LBB13_1:
.Ltmp107:
	.loc	2 950 32 is_stmt 1              @ rt-thread/src/scheduler.c:950:32
	movw	r1, :lower16:rt_scheduler_lock_nest
	movt	r1, :upper16:rt_scheduler_lock_nest
	movs	r0, #0
	strh	r0, [r1]
	.loc	2 952 32                        @ rt-thread/src/scheduler.c:952:32
	ldr	r0, [sp, #4]
	.loc	2 952 9 is_stmt 0               @ rt-thread/src/scheduler.c:952:9
	bl	rt_hw_interrupt_enable
.Ltmp108:
	.loc	2 954 13 is_stmt 1              @ rt-thread/src/scheduler.c:954:13
	movw	r0, :lower16:rt_current_thread
	movt	r0, :upper16:rt_current_thread
	ldr	r0, [r0]
.Ltmp109:
	.loc	2 954 13 is_stmt 0              @ rt-thread/src/scheduler.c:954:13
	cbz	r0, .LBB13_3
	b	.LBB13_2
.LBB13_2:
.Ltmp110:
	.loc	2 957 13 is_stmt 1              @ rt-thread/src/scheduler.c:957:13
	bl	rt_schedule
	.loc	2 958 9                         @ rt-thread/src/scheduler.c:958:9
	b	.LBB13_3
.Ltmp111:
.LBB13_3:
	.loc	2 959 5                         @ rt-thread/src/scheduler.c:959:5
	b	.LBB13_5
.Ltmp112:
.LBB13_4:
	.loc	2 963 32                        @ rt-thread/src/scheduler.c:963:32
	ldr	r0, [sp, #4]
	.loc	2 963 9 is_stmt 0               @ rt-thread/src/scheduler.c:963:9
	bl	rt_hw_interrupt_enable
	b	.LBB13_5
.Ltmp113:
.LBB13_5:
	.loc	2 965 1 is_stmt 1               @ rt-thread/src/scheduler.c:965:1
	add	sp, #8
	pop	{r7, pc}
.Ltmp114:
.Lfunc_end13:
	.size	rt_exit_critical, .Lfunc_end13-rt_exit_critical
	.cfi_endproc
	.cantunwind
	.fnend
                                        @ -- End function
	.section	.text.rt_critical_level,"ax",%progbits
	.hidden	rt_critical_level               @ -- Begin function rt_critical_level
	.globl	rt_critical_level
	.p2align	3
	.type	rt_critical_level,%function
	.code	16                              @ @rt_critical_level
	.thumb_func
rt_critical_level:
.Lfunc_begin14:
	.loc	2 975 0                         @ rt-thread/src/scheduler.c:975:0
	.fnstart
	.cfi_startproc
@ %bb.0:
	.loc	2 981 12 prologue_end           @ rt-thread/src/scheduler.c:981:12
	movw	r0, :lower16:rt_scheduler_lock_nest
	movt	r0, :upper16:rt_scheduler_lock_nest
	ldrh	r0, [r0]
	.loc	2 981 5 is_stmt 0               @ rt-thread/src/scheduler.c:981:5
	bx	lr
.Ltmp115:
.Lfunc_end14:
	.size	rt_critical_level, .Lfunc_end14-rt_critical_level
	.cfi_endproc
	.cantunwind
	.fnend
                                        @ -- End function
	.type	rt_scheduler_hook,%object       @ @rt_scheduler_hook
	.section	.bss.rt_scheduler_hook,"aw",%nobits
	.p2align	2
rt_scheduler_hook:
	.long	0
	.size	rt_scheduler_hook, 4

	.type	rt_scheduler_lock_nest,%object  @ @rt_scheduler_lock_nest
	.section	.bss.rt_scheduler_lock_nest,"aw",%nobits
	.p2align	1
rt_scheduler_lock_nest:
	.short	0                               @ 0x0
	.size	rt_scheduler_lock_nest, 2

	.hidden	rt_thread_priority_table        @ @rt_thread_priority_table
	.type	rt_thread_priority_table,%object
	.section	.bss.rt_thread_priority_table,"aw",%nobits
	.globl	rt_thread_priority_table
	.p2align	2
rt_thread_priority_table:
	.zero	256
	.size	rt_thread_priority_table, 256

	.hidden	rt_thread_ready_priority_group  @ @rt_thread_ready_priority_group
	.type	rt_thread_ready_priority_group,%object
	.section	.bss.rt_thread_ready_priority_group,"aw",%nobits
	.globl	rt_thread_ready_priority_group
	.p2align	2
rt_thread_ready_priority_group:
	.long	0                               @ 0x0
	.size	rt_thread_ready_priority_group, 4

	.hidden	rt_thread_defunct               @ @rt_thread_defunct
	.type	rt_thread_defunct,%object
	.section	.bss.rt_thread_defunct,"aw",%nobits
	.globl	rt_thread_defunct
	.p2align	2
rt_thread_defunct:
	.zero	8
	.size	rt_thread_defunct, 8

	.hidden	rt_current_thread               @ @rt_current_thread
	.type	rt_current_thread,%object
	.section	.bss.rt_current_thread,"aw",%nobits
	.globl	rt_current_thread
	.p2align	2
rt_current_thread:
	.long	0
	.size	rt_current_thread, 4

	.hidden	rt_current_priority             @ @rt_current_priority
	.type	rt_current_priority,%object
	.section	.bss.rt_current_priority,"aw",%nobits
	.globl	rt_current_priority
rt_current_priority:
	.byte	0                               @ 0x0
	.size	rt_current_priority, 1

	.type	.L.str,%object                  @ @.str
	.section	.rodata.str1.1,"aMS",%progbits,1
.L.str:
	.asciz	"thread != RT_NULL"
	.size	.L.str, 18

	.type	.L__FUNCTION__.rt_schedule_insert_thread,%object @ @__FUNCTION__.rt_schedule_insert_thread
.L__FUNCTION__.rt_schedule_insert_thread:
	.asciz	"rt_schedule_insert_thread"
	.size	.L__FUNCTION__.rt_schedule_insert_thread, 26

	.type	.L__FUNCTION__.rt_schedule_remove_thread,%object @ @__FUNCTION__.rt_schedule_remove_thread
.L__FUNCTION__.rt_schedule_remove_thread:
	.asciz	"rt_schedule_remove_thread"
	.size	.L__FUNCTION__.rt_schedule_remove_thread, 26

	.type	.L__FUNCTION__._rt_scheduler_stack_check,%object @ @__FUNCTION__._rt_scheduler_stack_check
.L__FUNCTION__._rt_scheduler_stack_check:
	.asciz	"_rt_scheduler_stack_check"
	.size	.L__FUNCTION__._rt_scheduler_stack_check, 26

	.type	.L.str.1,%object                @ @.str.1
.L.str.1:
	.asciz	"thread:%s stack overflow\n"
	.size	.L.str.1, 26

	.type	.L.str.2,%object                @ @.str.2
.L.str.2:
	.asciz	"warning: %s stack is close to end of stack address.\n"
	.size	.L.str.2, 53

	.section	".note.GNU-stack","",%progbits
	.eabi_attribute	30, 6	@ Tag_ABI_optimization_goals
	.ARM_attribute	16, 1	@ Tag_AV_eba