	.text
	.syntax unified
	.eabi_attribute	67, "2.09"	@ Tag_conformance
	.cpu	cortex-m7
	.eabi_attribute	6, 13	@ Tag_CPU_arch
	.eabi_attribute	7, 77	@ Tag_CPU_arch_profile
	.eabi_attribute	8, 0	@ Tag_ARM_ISA_use
	.eabi_attribute	9, 2	@ Tag_THUMB_ISA_use
	.fpu	fpv5-d16
	.eabi_attribute	36, 1	@ Tag_FP_HP_extension
	.eabi_attribute	34, 1	@ Tag_CPU_unaligned_access
	.eabi_attribute	17, 1	@ Tag_ABI_PCS_GOT_use
	.eabi_attribute	20, 2	@ Tag_ABI_FP_denormal
	.eabi_attribute	21, 0	@ Tag_ABI_FP_exceptions
	.eabi_attribute	23, 1	@ Tag_ABI_FP_number_model
	.eabi_attribute	24, 1	@ Tag_ABI_align_needed
	.eabi_attribute	25, 1	@ Tag_ABI_align_preserved
	.eabi_attribute	28, 1	@ Tag_ABI_VFP_args
	.eabi_attribute	38, 1	@ Tag_ABI_FP_16bit_format
	.eabi_attribute	18, 2	@ Tag_ABI_PCS_wchar_t
	.eabi_attribute	26, 1	@ Tag_ABI_enum_size
	.eabi_attribute	14, 0	@ Tag_ABI_PCS_R9_use
	.file	"sd.c"
	.file	1 "E:\\STM32\\Learning\\STM32H750_ART_PI_RGBLCD" "rt-thread/include\\rtdef.h"
	.file	2 "E:\\STM32\\Learning\\STM32H750_ART_PI_RGBLCD" "rt-thread/components/drivers/sdio/sd.c"
	.section	.text.mmcsd_send_app_cmd,"ax",%progbits
	.hidden	mmcsd_send_app_cmd              @ -- Begin function mmcsd_send_app_cmd
	.globl	mmcsd_send_app_cmd
	.p2align	3
	.type	mmcsd_send_app_cmd,%function
	.code	16                              @ @mmcsd_send_app_cmd
	.thumb_func
mmcsd_send_app_cmd:
.Lfunc_begin0:
	.loc	2 285 0                         @ rt-thread/components/drivers/sdio/sd.c:285:0
	.fnstart
	.cfi_sections .debug_frame
	.cfi_startproc
@ %bb.0:
	.save	{r7, lr}
	push	{r7, lr}
	.cfi_def_cfa_offset 8
	.cfi_offset lr, -4
	.cfi_offset r7, -8
	.pad	#48
	sub	sp, #48
	.cfi_def_cfa_offset 56
	str	r0, [sp, #44]
	str	r1, [sp, #40]
	str	r2, [sp, #36]
	str	r3, [sp, #32]
	mov.w	r0, #-1
.Ltmp0:
	.loc	2 291 9 prologue_end            @ rt-thread/components/drivers/sdio/sd.c:291:9
	str	r0, [sp, #12]
	movs	r0, #0
.Ltmp1:
	.loc	2 297 12                        @ rt-thread/components/drivers/sdio/sd.c:297:12
	str	r0, [sp, #16]
	.loc	2 297 10 is_stmt 0              @ rt-thread/components/drivers/sdio/sd.c:297:10
	b	.LBB0_1
.LBB0_1:                                @ =>This Inner Loop Header: Depth=1
.Ltmp2:
	.loc	2 297 16                        @ rt-thread/components/drivers/sdio/sd.c:297:16
	ldr	r0, [sp, #16]
	.loc	2 297 21                        @ rt-thread/components/drivers/sdio/sd.c:297:21
	ldr	r1, [sp, #32]
.Ltmp3:
	.loc	2 297 5                         @ rt-thread/components/drivers/sdio/sd.c:297:5
	cmp	r0, r1
	bhi	.LBB0_16
	b	.LBB0_2
.LBB0_2:                                @   in Loop: Header=BB0_1 Depth=1
	.loc	2 0 5                           @ rt-thread/components/drivers/sdio/sd.c:0:5
	add	r0, sp, #20
	movs	r1, #0
	movs	r2, #12
.Ltmp4:
	.loc	2 299 9 is_stmt 1               @ rt-thread/components/drivers/sdio/sd.c:299:9
	bl	rt_memset
	.loc	2 301 29                        @ rt-thread/components/drivers/sdio/sd.c:301:29
	ldr	r0, [sp, #44]
	.loc	2 301 35 is_stmt 0              @ rt-thread/components/drivers/sdio/sd.c:301:35
	ldr	r1, [sp, #40]
	.loc	2 301 15                        @ rt-thread/components/drivers/sdio/sd.c:301:15
	bl	mmcsd_app_cmd
	.loc	2 301 13                        @ rt-thread/components/drivers/sdio/sd.c:301:13
	str	r0, [sp, #12]
.Ltmp5:
	.loc	2 302 13 is_stmt 1              @ rt-thread/components/drivers/sdio/sd.c:302:13
	ldr	r0, [sp, #12]
.Ltmp6:
	.loc	2 302 13 is_stmt 0              @ rt-thread/components/drivers/sdio/sd.c:302:13
	cbz	r0, .LBB0_8
	b	.LBB0_3
.LBB0_3:                                @   in Loop: Header=BB0_1 Depth=1
.Ltmp7:
	.loc	2 305 17 is_stmt 1              @ rt-thread/components/drivers/sdio/sd.c:305:17
	ldr	r0, [sp, #44]
.Ltmp8:
	.loc	2 305 17 is_stmt 0              @ rt-thread/components/drivers/sdio/sd.c:305:17
	ldrb.w	r0, [r0, #32]
	lsls	r0, r0, #28
	cmp	r0, #0
	bpl	.LBB0_7
	b	.LBB0_4
.LBB0_4:                                @   in Loop: Header=BB0_1 Depth=1
.Ltmp9:
	.loc	2 307 21 is_stmt 1              @ rt-thread/components/drivers/sdio/sd.c:307:21
	ldr	r0, [sp, #36]
.Ltmp10:
	.loc	2 307 21 is_stmt 0              @ rt-thread/components/drivers/sdio/sd.c:307:21
	ldrb	r0, [r0, #8]
	lsls	r0, r0, #29
	cmp	r0, #0
	bpl	.LBB0_6
	b	.LBB0_5
.LBB0_5:
.Ltmp11:
	.loc	2 308 21 is_stmt 1              @ rt-thread/components/drivers/sdio/sd.c:308:21
	b	.LBB0_16
.Ltmp12:
.LBB0_6:                                @   in Loop: Header=BB0_1 Depth=1
	.loc	2 309 13                        @ rt-thread/components/drivers/sdio/sd.c:309:13
	b	.LBB0_7
.Ltmp13:
.LBB0_7:                                @   in Loop: Header=BB0_1 Depth=1
	.loc	2 310 13                        @ rt-thread/components/drivers/sdio/sd.c:310:13
	b	.LBB0_15
.Ltmp14:
.LBB0_8:                                @   in Loop: Header=BB0_1 Depth=1
	.loc	2 0 13 is_stmt 0                @ rt-thread/components/drivers/sdio/sd.c:0:13
	add	r0, sp, #20
	str	r0, [sp, #8]                    @ 4-byte Spill
	movs	r1, #0
	str	r1, [sp, #4]                    @ 4-byte Spill
	movs	r2, #12
	.loc	2 313 9 is_stmt 1               @ rt-thread/components/drivers/sdio/sd.c:313:9
	bl	rt_memset
	ldr	r1, [sp, #4]                    @ 4-byte Reload
	.loc	2 315 19                        @ rt-thread/components/drivers/sdio/sd.c:315:19
	ldr	r0, [sp, #36]
	.loc	2 315 24 is_stmt 0              @ rt-thread/components/drivers/sdio/sd.c:315:24
	adds	r0, #8
	movs	r2, #16
	.loc	2 315 9                         @ rt-thread/components/drivers/sdio/sd.c:315:9
	bl	rt_memset
	ldr	r1, [sp, #8]                    @ 4-byte Reload
	.loc	2 317 19 is_stmt 1              @ rt-thread/components/drivers/sdio/sd.c:317:19
	ldr	r0, [sp, #36]
	.loc	2 317 17 is_stmt 0              @ rt-thread/components/drivers/sdio/sd.c:317:17
	str	r0, [sp, #24]
	.loc	2 320 28 is_stmt 1              @ rt-thread/components/drivers/sdio/sd.c:320:28
	ldr	r0, [sp, #44]
	.loc	2 320 9 is_stmt 0               @ rt-thread/components/drivers/sdio/sd.c:320:9
	bl	mmcsd_send_request
	.loc	2 322 15 is_stmt 1              @ rt-thread/components/drivers/sdio/sd.c:322:15
	ldr	r0, [sp, #36]
	.loc	2 322 20 is_stmt 0              @ rt-thread/components/drivers/sdio/sd.c:322:20
	ldr	r0, [r0, #32]
	.loc	2 322 13                        @ rt-thread/components/drivers/sdio/sd.c:322:13
	str	r0, [sp, #12]
.Ltmp15:
	.loc	2 323 14 is_stmt 1              @ rt-thread/components/drivers/sdio/sd.c:323:14
	ldr	r0, [sp, #36]
	.loc	2 323 19 is_stmt 0              @ rt-thread/components/drivers/sdio/sd.c:323:19
	ldr	r0, [r0, #32]
.Ltmp16:
	.loc	2 323 13                        @ rt-thread/components/drivers/sdio/sd.c:323:13
	cbnz	r0, .LBB0_10
	b	.LBB0_9
.LBB0_9:
.Ltmp17:
	.loc	2 324 13 is_stmt 1              @ rt-thread/components/drivers/sdio/sd.c:324:13
	b	.LBB0_16
.Ltmp18:
.LBB0_10:                               @   in Loop: Header=BB0_1 Depth=1
	.loc	2 327 13                        @ rt-thread/components/drivers/sdio/sd.c:327:13
	ldr	r0, [sp, #44]
.Ltmp19:
	.loc	2 327 13 is_stmt 0              @ rt-thread/components/drivers/sdio/sd.c:327:13
	ldrb.w	r0, [r0, #32]
	lsls	r0, r0, #28
	cmp	r0, #0
	bpl	.LBB0_14
	b	.LBB0_11
.LBB0_11:                               @   in Loop: Header=BB0_1 Depth=1
.Ltmp20:
	.loc	2 329 17 is_stmt 1              @ rt-thread/components/drivers/sdio/sd.c:329:17
	ldr	r0, [sp, #36]
.Ltmp21:
	.loc	2 329 17 is_stmt 0              @ rt-thread/components/drivers/sdio/sd.c:329:17
	ldrb	r0, [r0, #8]
	lsls	r0, r0, #29
	cmp	r0, #0
	bpl	.LBB0_13
	b	.LBB0_12
.LBB0_12:
.Ltmp22:
	.loc	2 330 17 is_stmt 1              @ rt-thread/components/drivers/sdio/sd.c:330:17
	b	.LBB0_16
.Ltmp23:
.LBB0_13:                               @   in Loop: Header=BB0_1 Depth=1
	.loc	2 331 9                         @ rt-thread/components/drivers/sdio/sd.c:331:9
	b	.LBB0_14
.Ltmp24:
.LBB0_14:                               @   in Loop: Header=BB0_1 Depth=1
	.loc	2 332 5                         @ rt-thread/components/drivers/sdio/sd.c:332:5
	b	.LBB0_15
.Ltmp25:
.LBB0_15:                               @   in Loop: Header=BB0_1 Depth=1
	.loc	2 297 28                        @ rt-thread/components/drivers/sdio/sd.c:297:28
	ldr	r0, [sp, #16]
	adds	r0, #1
	str	r0, [sp, #16]
	.loc	2 297 5 is_stmt 0               @ rt-thread/components/drivers/sdio/sd.c:297:5
	b	.LBB0_1
.Ltmp26:
.LBB0_16:
	.loc	2 334 12 is_stmt 1              @ rt-thread/components/drivers/sdio/sd.c:334:12
	ldr	r0, [sp, #12]
	.loc	2 334 5 is_stmt 0               @ rt-thread/components/drivers/sdio/sd.c:334:5
	add	sp, #48
	pop	{r7, pc}
.Ltmp27:
.Lfunc_end0:
	.size	mmcsd_send_app_cmd, .Lfunc_end0-mmcsd_send_app_cmd
	.cfi_endproc
	.cantunwind
	.fnend
                                        @ -- End function
	.section	.text.mmcsd_app_cmd,"ax",%progbits
	.p2align	3                               @ -- Begin function mmcsd_app_cmd
	.type	mmcsd_app_cmd,%function
	.code	16                              @ @mmcsd_app_cmd
	.thumb_func
mmcsd_app_cmd:
.Lfunc_begin1:
	.loc	2 252 0 is_stmt 1               @ rt-thread/components/drivers/sdio/sd.c:252:0
	.fnstart
	.cfi_startproc
@ %bb.0:
	.save	{r7, lr}
	push	{r7, lr}
	.cfi_def_cfa_offset 8
	.cfi_offset lr, -4
	.cfi_offset r7, -8
	.pad	#64
	sub	sp, #64
	.cfi_def_cfa_offset 72
	str	r0, [sp, #56]
	str	r1, [sp, #52]
	add	r0, sp, #4
	movs	r1, #44
.Ltmp28:
	.loc	2 254 25 prologue_end           @ rt-thread/components/drivers/sdio/sd.c:254:25
	bl	__aeabi_memclr4
	movs	r0, #55
	.loc	2 256 18                        @ rt-thread/components/drivers/sdio/sd.c:256:18
	str	r0, [sp, #4]
.Ltmp29:
	.loc	2 258 9                         @ rt-thread/components/drivers/sdio/sd.c:258:9
	ldr	r0, [sp, #52]
.Ltmp30:
	.loc	2 258 9 is_stmt 0               @ rt-thread/components/drivers/sdio/sd.c:258:9
	cbz	r0, .LBB1_2
	b	.LBB1_1
.LBB1_1:
.Ltmp31:
	.loc	2 260 19 is_stmt 1              @ rt-thread/components/drivers/sdio/sd.c:260:19
	ldr	r0, [sp, #52]
	.loc	2 260 25 is_stmt 0              @ rt-thread/components/drivers/sdio/sd.c:260:25
	ldr	r0, [r0, #4]
	.loc	2 260 29                        @ rt-thread/components/drivers/sdio/sd.c:260:29
	lsls	r0, r0, #16
	.loc	2 260 17                        @ rt-thread/components/drivers/sdio/sd.c:260:17
	str	r0, [sp, #8]
	movs	r0, #1
	.loc	2 261 19 is_stmt 1              @ rt-thread/components/drivers/sdio/sd.c:261:19
	str	r0, [sp, #28]
	.loc	2 262 5                         @ rt-thread/components/drivers/sdio/sd.c:262:5
	b	.LBB1_3
.Ltmp32:
.LBB1_2:
	.loc	2 0 5 is_stmt 0                 @ rt-thread/components/drivers/sdio/sd.c:0:5
	movs	r0, #0
.Ltmp33:
	.loc	2 265 17 is_stmt 1              @ rt-thread/components/drivers/sdio/sd.c:265:17
	str	r0, [sp, #8]
	movs	r0, #49
	.loc	2 266 19                        @ rt-thread/components/drivers/sdio/sd.c:266:19
	str	r0, [sp, #28]
	b	.LBB1_3
.Ltmp34:
.LBB1_3:
	.loc	2 269 26                        @ rt-thread/components/drivers/sdio/sd.c:269:26
	ldr	r0, [sp, #56]
	add	r1, sp, #4
	movs	r2, #0
	.loc	2 269 11 is_stmt 0              @ rt-thread/components/drivers/sdio/sd.c:269:11
	bl	mmcsd_send_cmd
	.loc	2 269 9                         @ rt-thread/components/drivers/sdio/sd.c:269:9
	str	r0, [sp, #48]
.Ltmp35:
	.loc	2 270 9 is_stmt 1               @ rt-thread/components/drivers/sdio/sd.c:270:9
	ldr	r0, [sp, #48]
.Ltmp36:
	.loc	2 270 9 is_stmt 0               @ rt-thread/components/drivers/sdio/sd.c:270:9
	cbz	r0, .LBB1_5
	b	.LBB1_4
.LBB1_4:
.Ltmp37:
	.loc	2 271 16 is_stmt 1              @ rt-thread/components/drivers/sdio/sd.c:271:16
	ldr	r0, [sp, #48]
	.loc	2 271 9 is_stmt 0               @ rt-thread/components/drivers/sdio/sd.c:271:9
	str	r0, [sp, #60]
	b	.LBB1_9
.Ltmp38:
.LBB1_5:
	.loc	2 274 10 is_stmt 1              @ rt-thread/components/drivers/sdio/sd.c:274:10
	ldr	r0, [sp, #56]
	.loc	2 274 34 is_stmt 0              @ rt-thread/components/drivers/sdio/sd.c:274:34
	ldrb.w	r0, [r0, #32]
	lsls	r0, r0, #28
	cmp	r0, #0
	bmi	.LBB1_8
	b	.LBB1_6
.Ltmp39:
.LBB1_6:
	.loc	2 274 9                         @ rt-thread/components/drivers/sdio/sd.c:274:9
	ldrb.w	r0, [sp, #12]
	lsls	r0, r0, #26
	cmp	r0, #0
	bmi	.LBB1_8
	b	.LBB1_7
.LBB1_7:
	.loc	2 0 9                           @ rt-thread/components/drivers/sdio/sd.c:0:9
	mov.w	r0, #-1
.Ltmp40:
	.loc	2 275 9 is_stmt 1               @ rt-thread/components/drivers/sdio/sd.c:275:9
	str	r0, [sp, #60]
	b	.LBB1_9
.Ltmp41:
.LBB1_8:
	.loc	2 0 9 is_stmt 0                 @ rt-thread/components/drivers/sdio/sd.c:0:9
	movs	r0, #0
	.loc	2 277 5 is_stmt 1               @ rt-thread/components/drivers/sdio/sd.c:277:5
	str	r0, [sp, #60]
	b	.LBB1_9
.LBB1_9:
	.loc	2 278 1                         @ rt-thread/components/drivers/sdio/sd.c:278:1
	ldr	r0, [sp, #60]
	add	sp, #64
	pop	{r7, pc}
.Ltmp42:
.Lfunc_end1:
	.size	mmcsd_app_cmd, .Lfunc_end1-mmcsd_app_cmd
	.cfi_endproc
	.cantunwind
	.fnend
                                        @ -- End function
	.section	.text.mmcsd_app_set_bus_width,"ax",%progbits
	.hidden	mmcsd_app_set_bus_width         @ -- Begin function mmcsd_app_set_bus_width
	.globl	mmcsd_app_set_bus_width
	.p2align	3
	.type	mmcsd_app_set_bus_width,%function
	.code	16                              @ @mmcsd_app_set_bus_width
	.thumb_func
mmcsd_app_set_bus_width:
.Lfunc_begin2:
	.loc	2 338 0                         @ rt-thread/components/drivers/sdio/sd.c:338:0
	.fnstart
	.cfi_startproc
@ %bb.0:
	.save	{r7, lr}
	push	{r7, lr}
	.cfi_def_cfa_offset 8
	.cfi_offset lr, -4
	.cfi_offset r7, -8
	.pad	#64
	sub	sp, #64
	.cfi_def_cfa_offset 72
	str	r0, [sp, #56]
	str	r1, [sp, #52]
	add	r0, sp, #4
	movs	r1, #0
	movs	r2, #44
.Ltmp43:
	.loc	2 342 5 prologue_end            @ rt-thread/components/drivers/sdio/sd.c:342:5
	bl	rt_memset
	movs	r0, #6
	.loc	2 344 18                        @ rt-thread/components/drivers/sdio/sd.c:344:18
	str	r0, [sp, #4]
	movs	r0, #1
	.loc	2 345 15                        @ rt-thread/components/drivers/sdio/sd.c:345:15
	str	r0, [sp, #28]
	.loc	2 347 13                        @ rt-thread/components/drivers/sdio/sd.c:347:13
	ldr	r0, [sp, #52]
	.loc	2 347 5 is_stmt 0               @ rt-thread/components/drivers/sdio/sd.c:347:5
	str	r0, [sp]                        @ 4-byte Spill
	cbz	r0, .LBB2_2
	b	.LBB2_1
.LBB2_1:
	ldr	r0, [sp]                        @ 4-byte Reload
	cmp	r0, #2
	beq	.LBB2_3
	b	.LBB2_4
.LBB2_2:
	.loc	2 0 5                           @ rt-thread/components/drivers/sdio/sd.c:0:5
	movs	r0, #0
.Ltmp44:
	.loc	2 350 17 is_stmt 1              @ rt-thread/components/drivers/sdio/sd.c:350:17
	str	r0, [sp, #8]
	.loc	2 351 9                         @ rt-thread/components/drivers/sdio/sd.c:351:9
	b	.LBB2_5
.LBB2_3:
	.loc	2 0 9 is_stmt 0                 @ rt-thread/components/drivers/sdio/sd.c:0:9
	movs	r0, #2
	.loc	2 353 17 is_stmt 1              @ rt-thread/components/drivers/sdio/sd.c:353:17
	str	r0, [sp, #8]
	.loc	2 354 9                         @ rt-thread/components/drivers/sdio/sd.c:354:9
	b	.LBB2_5
.LBB2_4:
	.loc	2 0 9 is_stmt 0                 @ rt-thread/components/drivers/sdio/sd.c:0:9
	mov.w	r0, #-1
	.loc	2 356 9 is_stmt 1               @ rt-thread/components/drivers/sdio/sd.c:356:9
	str	r0, [sp, #60]
	b	.LBB2_8
.Ltmp45:
.LBB2_5:
	.loc	2 359 30                        @ rt-thread/components/drivers/sdio/sd.c:359:30
	ldr	r1, [sp, #56]
	.loc	2 359 36 is_stmt 0              @ rt-thread/components/drivers/sdio/sd.c:359:36
	ldr	r0, [r1]
	add	r2, sp, #4
	movs	r3, #3
	.loc	2 359 11                        @ rt-thread/components/drivers/sdio/sd.c:359:11
	bl	mmcsd_send_app_cmd
	.loc	2 359 9                         @ rt-thread/components/drivers/sdio/sd.c:359:9
	str	r0, [sp, #48]
.Ltmp46:
	.loc	2 360 9 is_stmt 1               @ rt-thread/components/drivers/sdio/sd.c:360:9
	ldr	r0, [sp, #48]
.Ltmp47:
	.loc	2 360 9 is_stmt 0               @ rt-thread/components/drivers/sdio/sd.c:360:9
	cbz	r0, .LBB2_7
	b	.LBB2_6
.LBB2_6:
.Ltmp48:
	.loc	2 361 16 is_stmt 1              @ rt-thread/components/drivers/sdio/sd.c:361:16
	ldr	r0, [sp, #48]
	.loc	2 361 9 is_stmt 0               @ rt-thread/components/drivers/sdio/sd.c:361:9
	str	r0, [sp, #60]
	b	.LBB2_8
.Ltmp49:
.LBB2_7:
	.loc	2 0 9                           @ rt-thread/components/drivers/sdio/sd.c:0:9
	movs	r0, #0
	.loc	2 363 5 is_stmt 1               @ rt-thread/components/drivers/sdio/sd.c:363:5
	str	r0, [sp, #60]
	b	.LBB2_8
.LBB2_8:
	.loc	2 364 1                         @ rt-thread/components/drivers/sdio/sd.c:364:1
	ldr	r0, [sp, #60]
	add	sp, #64
	pop	{r7, pc}
.Ltmp50:
.Lfunc_end2:
	.size	mmcsd_app_set_bus_width, .Lfunc_end2-mmcsd_app_set_bus_width
	.cfi_endproc
	.cantunwind
	.fnend
                                        @ -- End function
	.section	.text.mmcsd_send_app_op_cond,"ax",%progbits
	.hidden	mmcsd_send_app_op_cond          @ -- Begin function mmcsd_send_app_op_cond
	.globl	mmcsd_send_app_op_cond
	.p2align	3
	.type	mmcsd_send_app_op_cond,%function
	.code	16                              @ @mmcsd_send_app_op_cond
	.thumb_func
mmcsd_send_app_op_cond:
.Lfunc_begin3:
	.loc	2 369 0                         @ rt-thread/components/drivers/sdio/sd.c:369:0
	.fnstart
	.cfi_startproc
@ %bb.0:
	.save	{r7, lr}
	push	{r7, lr}
	.cfi_def_cfa_offset 8
	.cfi_offset lr, -4
	.cfi_offset r7, -8
	.pad	#64
	sub	sp, #64
	.cfi_def_cfa_offset 72
	str	r0, [sp, #60]
	str	r1, [sp, #56]
	str	r2, [sp, #52]
	movs	r1, #0
.Ltmp51:
	.loc	2 372 14 prologue_end           @ rt-thread/components/drivers/sdio/sd.c:372:14
	str	r1, [sp]
	add	r0, sp, #8
	movs	r2, #44
	.loc	2 374 5                         @ rt-thread/components/drivers/sdio/sd.c:374:5
	bl	rt_memset
	movs	r0, #41
	.loc	2 376 18                        @ rt-thread/components/drivers/sdio/sd.c:376:18
	str	r0, [sp, #8]
.Ltmp52:
	.loc	2 377 9                         @ rt-thread/components/drivers/sdio/sd.c:377:9
	ldr	r0, [sp, #60]
.Ltmp53:
	.loc	2 377 9 is_stmt 0               @ rt-thread/components/drivers/sdio/sd.c:377:9
	ldrb.w	r0, [r0, #32]
	lsls	r0, r0, #28
	cmp	r0, #0
	bpl	.LBB3_2
	b	.LBB3_1
.LBB3_1:
.Ltmp54:
	.loc	2 378 19 is_stmt 1              @ rt-thread/components/drivers/sdio/sd.c:378:19
	ldr	r0, [sp, #56]
	.loc	2 378 23 is_stmt 0              @ rt-thread/components/drivers/sdio/sd.c:378:23
	and	r0, r0, #1073741824
	.loc	2 378 17                        @ rt-thread/components/drivers/sdio/sd.c:378:17
	str	r0, [sp, #12]
	.loc	2 378 9                         @ rt-thread/components/drivers/sdio/sd.c:378:9
	b	.LBB3_3
.LBB3_2:
	.loc	2 380 19 is_stmt 1              @ rt-thread/components/drivers/sdio/sd.c:380:19
	ldr	r0, [sp, #56]
	.loc	2 380 17 is_stmt 0              @ rt-thread/components/drivers/sdio/sd.c:380:17
	str	r0, [sp, #12]
	b	.LBB3_3
.Ltmp55:
.LBB3_3:
	.loc	2 0 17                          @ rt-thread/components/drivers/sdio/sd.c:0:17
	movs	r0, #116
	.loc	2 381 15 is_stmt 1              @ rt-thread/components/drivers/sdio/sd.c:381:15
	str	r0, [sp, #32]
	movs	r0, #100
.Ltmp56:
	.loc	2 383 12                        @ rt-thread/components/drivers/sdio/sd.c:383:12
	str	r0, [sp, #4]
	.loc	2 383 10 is_stmt 0              @ rt-thread/components/drivers/sdio/sd.c:383:10
	b	.LBB3_4
.LBB3_4:                                @ =>This Inner Loop Header: Depth=1
.Ltmp57:
	.loc	2 383 19                        @ rt-thread/components/drivers/sdio/sd.c:383:19
	ldr	r0, [sp, #4]
.Ltmp58:
	.loc	2 383 5                         @ rt-thread/components/drivers/sdio/sd.c:383:5
	cbz	r0, .LBB3_18
	b	.LBB3_5
.LBB3_5:                                @   in Loop: Header=BB3_4 Depth=1
.Ltmp59:
	.loc	2 385 34 is_stmt 1              @ rt-thread/components/drivers/sdio/sd.c:385:34
	ldr	r0, [sp, #60]
	movs	r1, #0
	add	r2, sp, #8
	movs	r3, #3
	.loc	2 385 15 is_stmt 0              @ rt-thread/components/drivers/sdio/sd.c:385:15
	bl	mmcsd_send_app_cmd
	.loc	2 385 13                        @ rt-thread/components/drivers/sdio/sd.c:385:13
	str	r0, [sp]
.Ltmp60:
	.loc	2 386 13 is_stmt 1              @ rt-thread/components/drivers/sdio/sd.c:386:13
	ldr	r0, [sp]
.Ltmp61:
	.loc	2 386 13 is_stmt 0              @ rt-thread/components/drivers/sdio/sd.c:386:13
	cbz	r0, .LBB3_7
	b	.LBB3_6
.LBB3_6:
.Ltmp62:
	.loc	2 387 13 is_stmt 1              @ rt-thread/components/drivers/sdio/sd.c:387:13
	b	.LBB3_18
.Ltmp63:
.LBB3_7:                                @   in Loop: Header=BB3_4 Depth=1
	.loc	2 390 13                        @ rt-thread/components/drivers/sdio/sd.c:390:13
	ldr	r0, [sp, #56]
.Ltmp64:
	.loc	2 390 13 is_stmt 0              @ rt-thread/components/drivers/sdio/sd.c:390:13
	cbnz	r0, .LBB3_9
	b	.LBB3_8
.LBB3_8:
.Ltmp65:
	.loc	2 391 13 is_stmt 1              @ rt-thread/components/drivers/sdio/sd.c:391:13
	b	.LBB3_18
.Ltmp66:
.LBB3_9:                                @   in Loop: Header=BB3_4 Depth=1
	.loc	2 394 13                        @ rt-thread/components/drivers/sdio/sd.c:394:13
	ldr	r0, [sp, #60]
.Ltmp67:
	.loc	2 394 13 is_stmt 0              @ rt-thread/components/drivers/sdio/sd.c:394:13
	ldrb.w	r0, [r0, #32]
	lsls	r0, r0, #28
	cmp	r0, #0
	bpl	.LBB3_13
	b	.LBB3_10
.LBB3_10:                               @   in Loop: Header=BB3_4 Depth=1
.Ltmp68:
	.loc	2 396 17 is_stmt 1              @ rt-thread/components/drivers/sdio/sd.c:396:17
	ldrb.w	r0, [sp, #16]
	lsls	r0, r0, #31
	cbnz	r0, .LBB3_12
	b	.LBB3_11
.LBB3_11:
.Ltmp69:
	.loc	2 397 17                        @ rt-thread/components/drivers/sdio/sd.c:397:17
	b	.LBB3_18
.Ltmp70:
.LBB3_12:                               @   in Loop: Header=BB3_4 Depth=1
	.loc	2 398 9                         @ rt-thread/components/drivers/sdio/sd.c:398:9
	b	.LBB3_16
.Ltmp71:
.LBB3_13:                               @   in Loop: Header=BB3_4 Depth=1
	.loc	2 401 17                        @ rt-thread/components/drivers/sdio/sd.c:401:17
	ldrb.w	r0, [sp, #19]
	lsls	r0, r0, #24
	cmp	r0, #0
	bpl	.LBB3_15
	b	.LBB3_14
.LBB3_14:
.Ltmp72:
	.loc	2 402 17                        @ rt-thread/components/drivers/sdio/sd.c:402:17
	b	.LBB3_18
.Ltmp73:
.LBB3_15:                               @   in Loop: Header=BB3_4 Depth=1
	.loc	2 0 17 is_stmt 0                @ rt-thread/components/drivers/sdio/sd.c:0:17
	b	.LBB3_16
.LBB3_16:                               @   in Loop: Header=BB3_4 Depth=1
	mvn	r0, #1
	.loc	2 405 13 is_stmt 1              @ rt-thread/components/drivers/sdio/sd.c:405:13
	str	r0, [sp]
	movs	r0, #10
	.loc	2 407 9                         @ rt-thread/components/drivers/sdio/sd.c:407:9
	bl	mmcsd_delay_ms
	.loc	2 408 5                         @ rt-thread/components/drivers/sdio/sd.c:408:5
	b	.LBB3_17
.Ltmp74:
.LBB3_17:                               @   in Loop: Header=BB3_4 Depth=1
	.loc	2 383 23                        @ rt-thread/components/drivers/sdio/sd.c:383:23
	ldr	r0, [sp, #4]
	subs	r0, #1
	str	r0, [sp, #4]
	.loc	2 383 5 is_stmt 0               @ rt-thread/components/drivers/sdio/sd.c:383:5
	b	.LBB3_4
.Ltmp75:
.LBB3_18:
	.loc	2 410 9 is_stmt 1               @ rt-thread/components/drivers/sdio/sd.c:410:9
	ldr	r0, [sp, #52]
	.loc	2 410 14 is_stmt 0              @ rt-thread/components/drivers/sdio/sd.c:410:14
	cbz	r0, .LBB3_21
	b	.LBB3_19
.LBB3_19:
	.loc	2 410 18                        @ rt-thread/components/drivers/sdio/sd.c:410:18
	ldr	r0, [sp, #60]
.Ltmp76:
	.loc	2 410 9                         @ rt-thread/components/drivers/sdio/sd.c:410:9
	ldrb.w	r0, [r0, #32]
	lsls	r0, r0, #28
	cmp	r0, #0
	bmi	.LBB3_21
	b	.LBB3_20
.LBB3_20:
.Ltmp77:
	.loc	2 411 17 is_stmt 1              @ rt-thread/components/drivers/sdio/sd.c:411:17
	ldr	r0, [sp, #16]
	.loc	2 411 10 is_stmt 0              @ rt-thread/components/drivers/sdio/sd.c:411:10
	ldr	r1, [sp, #52]
	.loc	2 411 15                        @ rt-thread/components/drivers/sdio/sd.c:411:15
	str	r0, [r1]
	.loc	2 411 9                         @ rt-thread/components/drivers/sdio/sd.c:411:9
	b	.LBB3_21
.Ltmp78:
.LBB3_21:
	.loc	2 413 12 is_stmt 1              @ rt-thread/components/drivers/sdio/sd.c:413:12
	ldr	r0, [sp]
	.loc	2 413 5 is_stmt 0               @ rt-thread/components/drivers/sdio/sd.c:413:5
	add	sp, #64
	pop	{r7, pc}
.Ltmp79:
.Lfunc_end3:
	.size	mmcsd_send_app_op_cond, .Lfunc_end3-mmcsd_send_app_op_cond
	.cfi_endproc
	.cantunwind
	.fnend
                                        @ -- End function
	.section	.text.mmcsd_delay_ms,"ax",%progbits
	.p2align	3                               @ -- Begin function mmcsd_delay_ms
	.type	mmcsd_delay_ms,%function
	.code	16                              @ @mmcsd_delay_ms
	.thumb_func
mmcsd_delay_ms:
.Lfunc_begin4:
	.file	3 "E:\\STM32\\Learning\\STM32H750_ART_PI_RGBLCD" "rt-thread/components/drivers/include\\drivers/mmcsd_host.h"
	.loc	3 111 0 is_stmt 1               @ rt-thread/components/drivers/include\drivers/mmcsd_host.h:111:0
	.fnstart
	.cfi_startproc
@ %bb.0:
	.save	{r7, lr}
	push	{r7, lr}
	.cfi_def_cfa_offset 8
	.cfi_offset lr, -4
	.cfi_offset r7, -8
	.pad	#8
	sub	sp, #8
	.cfi_def_cfa_offset 16
	str	r0, [sp, #4]
.Ltmp80:
	.loc	3 112 6 prologue_end            @ rt-thread/components/drivers/include\drivers/mmcsd_host.h:112:6
	ldr	r0, [sp, #4]
.Ltmp81:
	.loc	3 112 6 is_stmt 0               @ rt-thread/components/drivers/include\drivers/mmcsd_host.h:112:6
	cbnz	r0, .LBB4_2
	b	.LBB4_1
.LBB4_1:
	.loc	3 0 6                           @ rt-thread/components/drivers/include\drivers/mmcsd_host.h:0:6
	movs	r0, #1
.Ltmp82:
	.loc	3 114 3 is_stmt 1               @ rt-thread/components/drivers/include\drivers/mmcsd_host.h:114:3
	bl	rt_thread_delay
	.loc	3 115 2                         @ rt-thread/components/drivers/include\drivers/mmcsd_host.h:115:2
	b	.LBB4_3
.Ltmp83:
.LBB4_2:
	.loc	3 118 19                        @ rt-thread/components/drivers/include\drivers/mmcsd_host.h:118:19
	ldr	r0, [sp, #4]
	.loc	3 118 3 is_stmt 0               @ rt-thread/components/drivers/include\drivers/mmcsd_host.h:118:3
	bl	rt_thread_delay
	b	.LBB4_3
.Ltmp84:
.LBB4_3:
	.loc	3 120 1 is_stmt 1               @ rt-thread/components/drivers/include\drivers/mmcsd_host.h:120:1
	add	sp, #8
	pop	{r7, pc}
.Ltmp85:
.Lfunc_end4:
	.size	mmcsd_delay_ms, .Lfunc_end4-mmcsd_delay_ms
	.cfi_endproc
	.cantunwind
	.fnend
                                        @ -- End function
	.section	.text.mmcsd_send_if_cond,"ax",%progbits
	.hidden	mmcsd_send_if_cond              @ -- Begin function mmcsd_send_if_cond
	.globl	mmcsd_send_if_cond
	.p2align	3
	.type	mmcsd_send_if_cond,%function
	.code	16                              @ @mmcsd_send_if_cond
	.thumb_func
mmcsd_send_if_cond:
.Lfunc_begin5:
	.loc	2 422 0                         @ rt-thread/components/drivers/sdio/sd.c:422:0
	.fnstart
	.cfi_startproc
@ %bb.0:
	.save	{r7, lr}
	push	{r7, lr}
	.cfi_def_cfa_offset 8
	.cfi_offset lr, -4
	.cfi_offset r7, -8
	.pad	#64
	sub	sp, #64
	.cfi_def_cfa_offset 72
	str	r0, [sp, #56]
	str	r1, [sp, #52]
	movs	r0, #8
.Ltmp86:
	.loc	2 427 18 prologue_end           @ rt-thread/components/drivers/sdio/sd.c:427:18
	str	r0, [sp, #8]
	.loc	2 428 17                        @ rt-thread/components/drivers/sdio/sd.c:428:17
	ldr	r0, [sp, #52]
	movw	r1, #32768
	movt	r1, #255
	.loc	2 428 21 is_stmt 0              @ rt-thread/components/drivers/sdio/sd.c:428:21
	ands	r0, r1
	.loc	2 428 33                        @ rt-thread/components/drivers/sdio/sd.c:428:33
	cmp	r0, #0
	it	ne
	movne	r0, #1
	.loc	2 428 39                        @ rt-thread/components/drivers/sdio/sd.c:428:39
	lsls	r0, r0, #8
	.loc	2 428 44                        @ rt-thread/components/drivers/sdio/sd.c:428:44
	adds	r0, #170
	.loc	2 428 13                        @ rt-thread/components/drivers/sdio/sd.c:428:13
	str	r0, [sp, #12]
	movw	r0, #503
	.loc	2 429 15 is_stmt 1              @ rt-thread/components/drivers/sdio/sd.c:429:15
	str	r0, [sp, #32]
	.loc	2 431 26                        @ rt-thread/components/drivers/sdio/sd.c:431:26
	ldr	r0, [sp, #56]
	add	r1, sp, #8
	movs	r2, #0
	.loc	2 431 11 is_stmt 0              @ rt-thread/components/drivers/sdio/sd.c:431:11
	bl	mmcsd_send_cmd
	.loc	2 431 9                         @ rt-thread/components/drivers/sdio/sd.c:431:9
	str	r0, [sp, #4]
.Ltmp87:
	.loc	2 432 9 is_stmt 1               @ rt-thread/components/drivers/sdio/sd.c:432:9
	ldr	r0, [sp, #4]
.Ltmp88:
	.loc	2 432 9 is_stmt 0               @ rt-thread/components/drivers/sdio/sd.c:432:9
	cbz	r0, .LBB5_2
	b	.LBB5_1
.LBB5_1:
.Ltmp89:
	.loc	2 433 16 is_stmt 1              @ rt-thread/components/drivers/sdio/sd.c:433:16
	ldr	r0, [sp, #4]
	.loc	2 433 9 is_stmt 0               @ rt-thread/components/drivers/sdio/sd.c:433:9
	str	r0, [sp, #60]
	b	.LBB5_8
.Ltmp90:
.LBB5_2:
	.loc	2 435 9 is_stmt 1               @ rt-thread/components/drivers/sdio/sd.c:435:9
	ldr	r0, [sp, #56]
.Ltmp91:
	.loc	2 435 9 is_stmt 0               @ rt-thread/components/drivers/sdio/sd.c:435:9
	ldrb.w	r0, [r0, #32]
	lsls	r0, r0, #28
	cmp	r0, #0
	bpl	.LBB5_4
	b	.LBB5_3
.LBB5_3:
.Ltmp92:
	.loc	2 436 19 is_stmt 1              @ rt-thread/components/drivers/sdio/sd.c:436:19
	ldr	r0, [sp, #20]
	.loc	2 436 17 is_stmt 0              @ rt-thread/components/drivers/sdio/sd.c:436:17
	strb.w	r0, [sp, #3]
	.loc	2 436 9                         @ rt-thread/components/drivers/sdio/sd.c:436:9
	b	.LBB5_5
.LBB5_4:
	.loc	2 438 19 is_stmt 1              @ rt-thread/components/drivers/sdio/sd.c:438:19
	ldr	r0, [sp, #16]
	.loc	2 438 17 is_stmt 0              @ rt-thread/components/drivers/sdio/sd.c:438:17
	strb.w	r0, [sp, #3]
	b	.LBB5_5
.Ltmp93:
.LBB5_5:
	.loc	2 440 9 is_stmt 1               @ rt-thread/components/drivers/sdio/sd.c:440:9
	ldrb.w	r0, [sp, #3]
.Ltmp94:
	.loc	2 440 9 is_stmt 0               @ rt-thread/components/drivers/sdio/sd.c:440:9
	cmp	r0, #170
	beq	.LBB5_7
	b	.LBB5_6
.LBB5_6:
	.loc	2 0 9                           @ rt-thread/components/drivers/sdio/sd.c:0:9
	mov.w	r0, #-1
.Ltmp95:
	.loc	2 441 9 is_stmt 1               @ rt-thread/components/drivers/sdio/sd.c:441:9
	str	r0, [sp, #60]
	b	.LBB5_8
.Ltmp96:
.LBB5_7:
	.loc	2 0 9 is_stmt 0                 @ rt-thread/components/drivers/sdio/sd.c:0:9
	movs	r0, #0
	.loc	2 443 5 is_stmt 1               @ rt-thread/components/drivers/sdio/sd.c:443:5
	str	r0, [sp, #60]
	b	.LBB5_8
.LBB5_8:
	.loc	2 444 1                         @ rt-thread/components/drivers/sdio/sd.c:444:1
	ldr	r0, [sp, #60]
	add	sp, #64
	pop	{r7, pc}
.Ltmp97:
.Lfunc_end5:
	.size	mmcsd_send_if_cond, .Lfunc_end5-mmcsd_send_if_cond
	.cfi_endproc
	.cantunwind
	.fnend
                                        @ -- End function
	.section	.text.mmcsd_get_card_addr,"ax",%progbits
	.hidden	mmcsd_get_card_addr             @ -- Begin function mmcsd_get_card_addr
	.globl	mmcsd_get_card_addr
	.p2align	3
	.type	mmcsd_get_card_addr,%function
	.code	16                              @ @mmcsd_get_card_addr
	.thumb_func
mmcsd_get_card_addr:
.Lfunc_begin6:
	.loc	2 447 0                         @ rt-thread/components/drivers/sdio/sd.c:447:0
	.fnstart
	.cfi_startproc
@ %bb.0:
	.save	{r7, lr}
	push	{r7, lr}
	.cfi_def_cfa_offset 8
	.cfi_offset lr, -4
	.cfi_offset r7, -8
	.pad	#72
	sub	sp, #72
	.cfi_def_cfa_offset 80
	str	r0, [sp, #64]
	str	r1, [sp, #60]
	add	r0, sp, #12
	str	r0, [sp, #4]                    @ 4-byte Spill
	movs	r1, #0
	str	r1, [sp, #8]                    @ 4-byte Spill
	movs	r2, #44
.Ltmp98:
	.loc	2 451 5 prologue_end            @ rt-thread/components/drivers/sdio/sd.c:451:5
	bl	rt_memset
	ldr	r1, [sp, #4]                    @ 4-byte Reload
                                        @ kill: def $r2 killed $r0
	ldr	r0, [sp, #8]                    @ 4-byte Reload
	movs	r2, #3
	.loc	2 453 18                        @ rt-thread/components/drivers/sdio/sd.c:453:18
	str	r2, [sp, #12]
	.loc	2 454 13                        @ rt-thread/components/drivers/sdio/sd.c:454:13
	str	r0, [sp, #16]
	movs	r0, #54
	.loc	2 455 15                        @ rt-thread/components/drivers/sdio/sd.c:455:15
	str	r0, [sp, #36]
	.loc	2 457 26                        @ rt-thread/components/drivers/sdio/sd.c:457:26
	ldr	r0, [sp, #64]
	.loc	2 457 11 is_stmt 0              @ rt-thread/components/drivers/sdio/sd.c:457:11
	bl	mmcsd_send_cmd
	.loc	2 457 9                         @ rt-thread/components/drivers/sdio/sd.c:457:9
	str	r0, [sp, #56]
.Ltmp99:
	.loc	2 458 9 is_stmt 1               @ rt-thread/components/drivers/sdio/sd.c:458:9
	ldr	r0, [sp, #56]
.Ltmp100:
	.loc	2 458 9 is_stmt 0               @ rt-thread/components/drivers/sdio/sd.c:458:9
	cbz	r0, .LBB6_2
	b	.LBB6_1
.LBB6_1:
.Ltmp101:
	.loc	2 459 16 is_stmt 1              @ rt-thread/components/drivers/sdio/sd.c:459:16
	ldr	r0, [sp, #56]
	.loc	2 459 9 is_stmt 0               @ rt-thread/components/drivers/sdio/sd.c:459:9
	str	r0, [sp, #68]
	b	.LBB6_3
.Ltmp102:
.LBB6_2:
	.loc	2 461 12 is_stmt 1              @ rt-thread/components/drivers/sdio/sd.c:461:12
	ldrh.w	r0, [sp, #22]
	.loc	2 461 6 is_stmt 0               @ rt-thread/components/drivers/sdio/sd.c:461:6
	ldr	r1, [sp, #60]
	.loc	2 461 10                        @ rt-thread/components/drivers/sdio/sd.c:461:10
	str	r0, [r1]
	movs	r0, #0
	.loc	2 463 5 is_stmt 1               @ rt-thread/components/drivers/sdio/sd.c:463:5
	str	r0, [sp, #68]
	b	.LBB6_3
.LBB6_3:
	.loc	2 464 1                         @ rt-thread/components/drivers/sdio/sd.c:464:1
	ldr	r0, [sp, #68]
	add	sp, #72
	pop	{r7, pc}
.Ltmp103:
.Lfunc_end6:
	.size	mmcsd_get_card_addr, .Lfunc_end6-mmcsd_get_card_addr
	.cfi_endproc
	.cantunwind
	.fnend
                                        @ -- End function
	.section	.text.mmcsd_get_scr,"ax",%progbits
	.hidden	mmcsd_get_scr                   @ -- Begin function mmcsd_get_scr
	.globl	mmcsd_get_scr
	.p2align	3
	.type	mmcsd_get_scr,%function
	.code	16                              @ @mmcsd_get_scr
	.thumb_func
mmcsd_get_scr:
.Lfunc_begin7:
	.loc	2 473 0                         @ rt-thread/components/drivers/sdio/sd.c:473:0
	.fnstart
	.cfi_startproc
@ %bb.0:
	.save	{r7, lr}
	push	{r7, lr}
	.cfi_def_cfa_offset 8
	.cfi_offset lr, -4
	.cfi_offset r7, -8
	.pad	#128
	sub	sp, #128
	.cfi_def_cfa_offset 136
	str	r0, [sp, #120]
	str	r1, [sp, #116]
.Ltmp104:
	.loc	2 479 25 prologue_end           @ rt-thread/components/drivers/sdio/sd.c:479:25
	ldr	r1, [sp, #120]
	.loc	2 479 31 is_stmt 0              @ rt-thread/components/drivers/sdio/sd.c:479:31
	ldr	r0, [r1]
	.loc	2 479 11                        @ rt-thread/components/drivers/sdio/sd.c:479:11
	bl	mmcsd_app_cmd
	.loc	2 479 9                         @ rt-thread/components/drivers/sdio/sd.c:479:9
	str	r0, [sp, #112]
.Ltmp105:
	.loc	2 480 9 is_stmt 1               @ rt-thread/components/drivers/sdio/sd.c:480:9
	ldr	r0, [sp, #112]
.Ltmp106:
	.loc	2 480 9 is_stmt 0               @ rt-thread/components/drivers/sdio/sd.c:480:9
	cbz	r0, .LBB7_2
	b	.LBB7_1
.LBB7_1:
.Ltmp107:
	.loc	2 481 16 is_stmt 1              @ rt-thread/components/drivers/sdio/sd.c:481:16
	ldr	r0, [sp, #112]
	.loc	2 481 9 is_stmt 0               @ rt-thread/components/drivers/sdio/sd.c:481:9
	str	r0, [sp, #124]
	b	.LBB7_7
.Ltmp108:
.LBB7_2:
	.loc	2 0 9                           @ rt-thread/components/drivers/sdio/sd.c:0:9
	add	r0, sp, #100
	str	r0, [sp, #12]                   @ 4-byte Spill
	movs	r1, #0
	str	r1, [sp, #4]                    @ 4-byte Spill
	movs	r2, #12
	.loc	2 483 5 is_stmt 1               @ rt-thread/components/drivers/sdio/sd.c:483:5
	bl	rt_memset
	ldr	r1, [sp, #4]                    @ 4-byte Reload
	add	r0, sp, #56
	str	r0, [sp]                        @ 4-byte Spill
	movs	r2, #44
	.loc	2 484 5                         @ rt-thread/components/drivers/sdio/sd.c:484:5
	bl	rt_memset
	ldr	r1, [sp, #4]                    @ 4-byte Reload
	add	r0, sp, #16
	str	r0, [sp, #8]                    @ 4-byte Spill
	movs	r2, #40
	.loc	2 485 5                         @ rt-thread/components/drivers/sdio/sd.c:485:5
	bl	rt_memset
	ldr	r2, [sp]                        @ 4-byte Reload
	ldr	r1, [sp, #4]                    @ 4-byte Reload
                                        @ kill: def $r3 killed $r0
	.loc	2 487 13                        @ rt-thread/components/drivers/sdio/sd.c:487:13
	ldr	r0, [sp, #8]                    @ 4-byte Reload
	str	r2, [sp, #104]
	.loc	2 488 14                        @ rt-thread/components/drivers/sdio/sd.c:488:14
	str	r0, [sp, #100]
	movs	r2, #51
	.loc	2 490 18                        @ rt-thread/components/drivers/sdio/sd.c:490:18
	str	r2, [sp, #56]
	.loc	2 491 13                        @ rt-thread/components/drivers/sdio/sd.c:491:13
	str	r1, [sp, #60]
	movs	r1, #81
	.loc	2 492 15                        @ rt-thread/components/drivers/sdio/sd.c:492:15
	str	r1, [sp, #80]
	movs	r1, #8
	.loc	2 494 18                        @ rt-thread/components/drivers/sdio/sd.c:494:18
	str	r1, [sp, #16]
	movs	r1, #1
	.loc	2 495 15                        @ rt-thread/components/drivers/sdio/sd.c:495:15
	str	r1, [sp, #20]
	movs	r1, #2
	.loc	2 496 16                        @ rt-thread/components/drivers/sdio/sd.c:496:16
	str	r1, [sp, #32]
	.loc	2 497 16                        @ rt-thread/components/drivers/sdio/sd.c:497:16
	ldr	r1, [sp, #116]
	.loc	2 497 14 is_stmt 0              @ rt-thread/components/drivers/sdio/sd.c:497:14
	str	r1, [sp, #24]
	.loc	2 499 35 is_stmt 1              @ rt-thread/components/drivers/sdio/sd.c:499:35
	ldr	r1, [sp, #120]
	.loc	2 499 5 is_stmt 0               @ rt-thread/components/drivers/sdio/sd.c:499:5
	bl	mmcsd_set_data_timeout
	ldr	r1, [sp, #12]                   @ 4-byte Reload
	.loc	2 501 24 is_stmt 1              @ rt-thread/components/drivers/sdio/sd.c:501:24
	ldr	r0, [sp, #120]
	.loc	2 501 30 is_stmt 0              @ rt-thread/components/drivers/sdio/sd.c:501:30
	ldr	r0, [r0]
	.loc	2 501 5                         @ rt-thread/components/drivers/sdio/sd.c:501:5
	bl	mmcsd_send_request
.Ltmp109:
	.loc	2 503 13 is_stmt 1              @ rt-thread/components/drivers/sdio/sd.c:503:13
	ldr	r0, [sp, #88]
.Ltmp110:
	.loc	2 503 9 is_stmt 0               @ rt-thread/components/drivers/sdio/sd.c:503:9
	cbz	r0, .LBB7_4
	b	.LBB7_3
.LBB7_3:
.Ltmp111:
	.loc	2 504 20 is_stmt 1              @ rt-thread/components/drivers/sdio/sd.c:504:20
	ldr	r0, [sp, #88]
	.loc	2 504 9 is_stmt 0               @ rt-thread/components/drivers/sdio/sd.c:504:9
	str	r0, [sp, #124]
	b	.LBB7_7
.Ltmp112:
.LBB7_4:
	.loc	2 505 14 is_stmt 1              @ rt-thread/components/drivers/sdio/sd.c:505:14
	ldr	r0, [sp, #28]
.Ltmp113:
	.loc	2 505 9 is_stmt 0               @ rt-thread/components/drivers/sdio/sd.c:505:9
	cbz	r0, .LBB7_6
	b	.LBB7_5
.LBB7_5:
.Ltmp114:
	.loc	2 506 21 is_stmt 1              @ rt-thread/components/drivers/sdio/sd.c:506:21
	ldr	r0, [sp, #28]
	.loc	2 506 9 is_stmt 0               @ rt-thread/components/drivers/sdio/sd.c:506:9
	str	r0, [sp, #124]
	b	.LBB7_7
.Ltmp115:
.LBB7_6:
	.loc	2 508 14 is_stmt 1              @ rt-thread/components/drivers/sdio/sd.c:508:14
	ldr	r1, [sp, #116]
	ldr	r2, [r1]
	lsls	r0, r2, #24
	and	r3, r2, #65280
	orr.w	r0, r0, r3, lsl #8
	and	r3, r2, #16711680
	orr.w	r0, r0, r3, lsr #8
	orr.w	r0, r0, r2, lsr #24
	.loc	2 508 12 is_stmt 0              @ rt-thread/components/drivers/sdio/sd.c:508:12
	str	r0, [r1]
	.loc	2 509 14 is_stmt 1              @ rt-thread/components/drivers/sdio/sd.c:509:14
	ldr	r1, [sp, #116]
	ldr	r2, [r1, #4]
	lsls	r0, r2, #24
	and	r3, r2, #65280
	orr.w	r0, r0, r3, lsl #8
	and	r3, r2, #16711680
	orr.w	r0, r0, r3, lsr #8
	orr.w	r0, r0, r2, lsr #24
	.loc	2 509 12 is_stmt 0              @ rt-thread/components/drivers/sdio/sd.c:509:12
	str	r0, [r1, #4]
	movs	r0, #0
	.loc	2 511 5 is_stmt 1               @ rt-thread/components/drivers/sdio/sd.c:511:5
	str	r0, [sp, #124]
	b	.LBB7_7
.LBB7_7:
	.loc	2 512 1                         @ rt-thread/components/drivers/sdio/sd.c:512:1
	ldr	r0, [sp, #124]
	add	sp, #128
	pop	{r7, pc}
.Ltmp116:
.Lfunc_end7:
	.size	mmcsd_get_scr, .Lfunc_end7-mmcsd_get_scr
	.cfi_endproc
	.cantunwind
	.fnend
                                        @ -- End function
	.section	.text.init_sd,"ax",%progbits
	.hidden	init_sd                         @ -- Begin function init_sd
	.globl	init_sd
	.p2align	3
	.type	init_sd,%function
	.code	16                              @ @init_sd
	.thumb_func
init_sd:
.Lfunc_begin8:
	.loc	2 647 0                         @ rt-thread/components/drivers/sdio/sd.c:647:0
	.fnstart
	.cfi_startproc
@ %bb.0:
	.save	{r7, lr}
	push	{r7, lr}
	.cfi_def_cfa_offset 8
	.cfi_offset lr, -4
	.cfi_offset r7, -8
	.pad	#24
	sub	sp, #24
	.cfi_def_cfa_offset 32
	str	r0, [sp, #16]
	str	r1, [sp, #12]
.Ltmp117:
	.loc	2 653 9 prologue_end            @ rt-thread/components/drivers/sdio/sd.c:653:9
	ldr	r0, [sp, #16]
.Ltmp118:
	.loc	2 653 9 is_stmt 0               @ rt-thread/components/drivers/sdio/sd.c:653:9
	ldrb.w	r0, [r0, #32]
	lsls	r0, r0, #28
	cmp	r0, #0
	bpl	.LBB8_4
	b	.LBB8_1
.LBB8_1:
.Ltmp119:
	.loc	2 655 23 is_stmt 1              @ rt-thread/components/drivers/sdio/sd.c:655:23
	ldr	r0, [sp, #16]
	.loc	2 655 9 is_stmt 0               @ rt-thread/components/drivers/sdio/sd.c:655:9
	bl	mmcsd_go_idle
	.loc	2 657 34 is_stmt 1              @ rt-thread/components/drivers/sdio/sd.c:657:34
	ldr	r0, [sp, #16]
	movs	r1, #0
	add	r2, sp, #12
	.loc	2 657 15 is_stmt 0              @ rt-thread/components/drivers/sdio/sd.c:657:15
	bl	mmcsd_spi_read_ocr
	.loc	2 657 13                        @ rt-thread/components/drivers/sdio/sd.c:657:13
	str	r0, [sp, #8]
.Ltmp120:
	.loc	2 658 13 is_stmt 1              @ rt-thread/components/drivers/sdio/sd.c:658:13
	ldr	r0, [sp, #8]
.Ltmp121:
	.loc	2 658 13 is_stmt 0              @ rt-thread/components/drivers/sdio/sd.c:658:13
	cbz	r0, .LBB8_3
	b	.LBB8_2
.LBB8_2:
.Ltmp122:
	.loc	2 659 13 is_stmt 1              @ rt-thread/components/drivers/sdio/sd.c:659:13
	b	.LBB8_16
.Ltmp123:
.LBB8_3:
	.loc	2 660 5                         @ rt-thread/components/drivers/sdio/sd.c:660:5
	b	.LBB8_4
.Ltmp124:
.LBB8_4:
	.loc	2 662 9                         @ rt-thread/components/drivers/sdio/sd.c:662:9
	ldrb.w	r0, [sp, #12]
	lsls	r0, r0, #24
	cmp	r0, #0
	bpl	.LBB8_8
	b	.LBB8_5
.LBB8_5:
.Ltmp125:
	.loc	2 664 9                         @ rt-thread/components/drivers/sdio/sd.c:664:9
	b	.LBB8_6
.LBB8_6:
.Ltmp126:
	.loc	2 664 9 is_stmt 0               @ rt-thread/components/drivers/sdio/sd.c:664:9
	movw	r0, :lower16:.L.str
	movt	r0, :upper16:.L.str
	bl	rt_kprintf
	movw	r0, :lower16:.L.str.1
	movt	r0, :upper16:.L.str.1
	bl	rt_kprintf
	movw	r0, :lower16:.L.str.2
	movt	r0, :upper16:.L.str.2
	bl	rt_kprintf
	b	.LBB8_7
.Ltmp127:
.LBB8_7:
	.loc	2 667 13 is_stmt 1              @ rt-thread/components/drivers/sdio/sd.c:667:13
	ldr	r0, [sp, #12]
	bic	r0, r0, #128
	str	r0, [sp, #12]
	.loc	2 668 5                         @ rt-thread/components/drivers/sdio/sd.c:668:5
	b	.LBB8_8
.Ltmp128:
.LBB8_8:
	.loc	2 670 40                        @ rt-thread/components/drivers/sdio/sd.c:670:40
	ldr	r0, [sp, #16]
	.loc	2 670 46 is_stmt 0              @ rt-thread/components/drivers/sdio/sd.c:670:46
	ldr	r1, [sp, #12]
	.loc	2 670 19                        @ rt-thread/components/drivers/sdio/sd.c:670:19
	bl	mmcsd_select_voltage
	.loc	2 670 17                        @ rt-thread/components/drivers/sdio/sd.c:670:17
	str	r0, [sp, #4]
.Ltmp129:
	.loc	2 675 10 is_stmt 1              @ rt-thread/components/drivers/sdio/sd.c:675:10
	ldr	r0, [sp, #4]
.Ltmp130:
	.loc	2 675 9 is_stmt 0               @ rt-thread/components/drivers/sdio/sd.c:675:9
	cbnz	r0, .LBB8_10
	b	.LBB8_9
.LBB8_9:
	.loc	2 0 9                           @ rt-thread/components/drivers/sdio/sd.c:0:9
	mov.w	r0, #-1
.Ltmp131:
	.loc	2 677 13 is_stmt 1              @ rt-thread/components/drivers/sdio/sd.c:677:13
	str	r0, [sp, #8]
	.loc	2 678 9                         @ rt-thread/components/drivers/sdio/sd.c:678:9
	b	.LBB8_16
.Ltmp132:
.LBB8_10:
	.loc	2 684 30                        @ rt-thread/components/drivers/sdio/sd.c:684:30
	ldr	r0, [sp, #16]
	.loc	2 684 36 is_stmt 0              @ rt-thread/components/drivers/sdio/sd.c:684:36
	ldr	r1, [sp, #4]
	.loc	2 684 11                        @ rt-thread/components/drivers/sdio/sd.c:684:11
	bl	mmcsd_sd_init_card
	.loc	2 684 9                         @ rt-thread/components/drivers/sdio/sd.c:684:9
	str	r0, [sp, #8]
.Ltmp133:
	.loc	2 685 9 is_stmt 1               @ rt-thread/components/drivers/sdio/sd.c:685:9
	ldr	r0, [sp, #8]
.Ltmp134:
	.loc	2 685 9 is_stmt 0               @ rt-thread/components/drivers/sdio/sd.c:685:9
	cbz	r0, .LBB8_12
	b	.LBB8_11
.LBB8_11:
.Ltmp135:
	.loc	2 686 9 is_stmt 1               @ rt-thread/components/drivers/sdio/sd.c:686:9
	b	.LBB8_16
.Ltmp136:
.LBB8_12:
	.loc	2 688 23                        @ rt-thread/components/drivers/sdio/sd.c:688:23
	ldr	r0, [sp, #16]
	.loc	2 688 5 is_stmt 0               @ rt-thread/components/drivers/sdio/sd.c:688:5
	bl	mmcsd_host_unlock
	.loc	2 690 30 is_stmt 1              @ rt-thread/components/drivers/sdio/sd.c:690:30
	ldr	r0, [sp, #16]
	.loc	2 690 36 is_stmt 0              @ rt-thread/components/drivers/sdio/sd.c:690:36
	ldr	r0, [r0]
	.loc	2 690 11                        @ rt-thread/components/drivers/sdio/sd.c:690:11
	bl	rt_mmcsd_blk_probe
	.loc	2 690 9                         @ rt-thread/components/drivers/sdio/sd.c:690:9
	str	r0, [sp, #8]
.Ltmp137:
	.loc	2 691 9 is_stmt 1               @ rt-thread/components/drivers/sdio/sd.c:691:9
	ldr	r0, [sp, #8]
.Ltmp138:
	.loc	2 691 9 is_stmt 0               @ rt-thread/components/drivers/sdio/sd.c:691:9
	cbz	r0, .LBB8_14
	b	.LBB8_13
.LBB8_13:
.Ltmp139:
	.loc	2 692 9 is_stmt 1               @ rt-thread/components/drivers/sdio/sd.c:692:9
	b	.LBB8_15
.Ltmp140:
.LBB8_14:
	.loc	2 693 21                        @ rt-thread/components/drivers/sdio/sd.c:693:21
	ldr	r0, [sp, #16]
	.loc	2 693 5 is_stmt 0               @ rt-thread/components/drivers/sdio/sd.c:693:5
	bl	mmcsd_host_lock
	movs	r0, #0
	.loc	2 695 5 is_stmt 1               @ rt-thread/components/drivers/sdio/sd.c:695:5
	str	r0, [sp, #20]
	b	.LBB8_17
.LBB8_15:
.Ltmp141:
	@DEBUG_LABEL: init_sd:remove_card
	.loc	2 698 21                        @ rt-thread/components/drivers/sdio/sd.c:698:21
	ldr	r0, [sp, #16]
	.loc	2 698 5 is_stmt 0               @ rt-thread/components/drivers/sdio/sd.c:698:5
	bl	mmcsd_host_lock
	.loc	2 699 25 is_stmt 1              @ rt-thread/components/drivers/sdio/sd.c:699:25
	ldr	r0, [sp, #16]
	.loc	2 699 31 is_stmt 0              @ rt-thread/components/drivers/sdio/sd.c:699:31
	ldr	r0, [r0]
	.loc	2 699 5                         @ rt-thread/components/drivers/sdio/sd.c:699:5
	bl	rt_mmcsd_blk_remove
	.loc	2 700 13 is_stmt 1              @ rt-thread/components/drivers/sdio/sd.c:700:13
	ldr	r0, [sp, #16]
	.loc	2 700 19 is_stmt 0              @ rt-thread/components/drivers/sdio/sd.c:700:19
	ldr	r0, [r0]
	.loc	2 700 5                         @ rt-thread/components/drivers/sdio/sd.c:700:5
	bl	rt_free
	.loc	2 701 5 is_stmt 1               @ rt-thread/components/drivers/sdio/sd.c:701:5
	ldr	r1, [sp, #16]
	movs	r0, #0
	.loc	2 701 16 is_stmt 0              @ rt-thread/components/drivers/sdio/sd.c:701:16
	str	r0, [r1]
	.loc	2 701 5                         @ rt-thread/components/drivers/sdio/sd.c:701:5
	b	.LBB8_16
.LBB8_16:
.Ltmp142:
	@DEBUG_LABEL: init_sd:err
	.loc	2 706 12 is_stmt 1              @ rt-thread/components/drivers/sdio/sd.c:706:12
	ldr	r0, [sp, #8]
	.loc	2 706 5 is_stmt 0               @ rt-thread/components/drivers/sdio/sd.c:706:5
	str	r0, [sp, #20]
	b	.LBB8_17
.LBB8_17:
	.loc	2 707 1 is_stmt 1               @ rt-thread/components/drivers/sdio/sd.c:707:1
	ldr	r0, [sp, #20]
	add	sp, #24
	pop	{r7, pc}
.Ltmp143:
.Lfunc_end8:
	.size	init_sd, .Lfunc_end8-init_sd
	.cfi_endproc
	.cantunwind
	.fnend
                                        @ -- End function
	.section	.text.mmcsd_sd_init_card,"ax",%progbits
	.p2align	3                               @ -- Begin function mmcsd_sd_init_card
	.type	mmcsd_sd_init_card,%function
	.code	16                              @ @mmcsd_sd_init_card
	.thumb_func
mmcsd_sd_init_card:
.Lfunc_begin9:
	.loc	2 517 0                         @ rt-thread/components/drivers/sdio/sd.c:517:0
	.fnstart
	.cfi_startproc
@ %bb.0:
	.save	{r7, lr}
	push	{r7, lr}
	.cfi_def_cfa_offset 8
	.cfi_offset lr, -4
	.cfi_offset r7, -8
	.pad	#40
	sub	sp, #40
	.cfi_def_cfa_offset 48
	str	r0, [sp, #32]
	str	r1, [sp, #28]
.Ltmp144:
	.loc	2 523 19 prologue_end           @ rt-thread/components/drivers/sdio/sd.c:523:19
	ldr	r0, [sp, #32]
	.loc	2 523 5 is_stmt 0               @ rt-thread/components/drivers/sdio/sd.c:523:5
	bl	mmcsd_go_idle
	.loc	2 531 30 is_stmt 1              @ rt-thread/components/drivers/sdio/sd.c:531:30
	ldr	r0, [sp, #32]
	.loc	2 531 36 is_stmt 0              @ rt-thread/components/drivers/sdio/sd.c:531:36
	ldr	r1, [sp, #28]
	.loc	2 531 11                        @ rt-thread/components/drivers/sdio/sd.c:531:11
	bl	mmcsd_send_if_cond
	.loc	2 531 9                         @ rt-thread/components/drivers/sdio/sd.c:531:9
	str	r0, [sp, #20]
.Ltmp145:
	.loc	2 532 10 is_stmt 1              @ rt-thread/components/drivers/sdio/sd.c:532:10
	ldr	r0, [sp, #20]
.Ltmp146:
	.loc	2 532 9 is_stmt 0               @ rt-thread/components/drivers/sdio/sd.c:532:9
	cbnz	r0, .LBB9_2
	b	.LBB9_1
.LBB9_1:
.Ltmp147:
	.loc	2 533 13 is_stmt 1              @ rt-thread/components/drivers/sdio/sd.c:533:13
	ldr	r0, [sp, #28]
	orr	r0, r0, #1073741824
	str	r0, [sp, #28]
	.loc	2 533 9 is_stmt 0               @ rt-thread/components/drivers/sdio/sd.c:533:9
	b	.LBB9_2
.Ltmp148:
.LBB9_2:
	.loc	2 535 34 is_stmt 1              @ rt-thread/components/drivers/sdio/sd.c:535:34
	ldr	r0, [sp, #32]
	.loc	2 535 40 is_stmt 0              @ rt-thread/components/drivers/sdio/sd.c:535:40
	ldr	r1, [sp, #28]
	movs	r2, #0
	.loc	2 535 11                        @ rt-thread/components/drivers/sdio/sd.c:535:11
	bl	mmcsd_send_app_op_cond
	.loc	2 535 9                         @ rt-thread/components/drivers/sdio/sd.c:535:9
	str	r0, [sp, #20]
.Ltmp149:
	.loc	2 536 9 is_stmt 1               @ rt-thread/components/drivers/sdio/sd.c:536:9
	ldr	r0, [sp, #20]
.Ltmp150:
	.loc	2 536 9 is_stmt 0               @ rt-thread/components/drivers/sdio/sd.c:536:9
	cbz	r0, .LBB9_4
	b	.LBB9_3
.LBB9_3:
.Ltmp151:
	.loc	2 537 9 is_stmt 1               @ rt-thread/components/drivers/sdio/sd.c:537:9
	b	.LBB9_47
.Ltmp152:
.LBB9_4:
	.loc	2 539 9                         @ rt-thread/components/drivers/sdio/sd.c:539:9
	ldr	r0, [sp, #32]
.Ltmp153:
	.loc	2 539 9 is_stmt 0               @ rt-thread/components/drivers/sdio/sd.c:539:9
	ldrb.w	r0, [r0, #32]
	lsls	r0, r0, #28
	cmp	r0, #0
	bpl	.LBB9_6
	b	.LBB9_5
.LBB9_5:
.Ltmp154:
	.loc	2 540 29 is_stmt 1              @ rt-thread/components/drivers/sdio/sd.c:540:29
	ldr	r0, [sp, #32]
	add	r1, sp, #4
	.loc	2 540 15 is_stmt 0              @ rt-thread/components/drivers/sdio/sd.c:540:15
	bl	mmcsd_get_cid
	.loc	2 540 13                        @ rt-thread/components/drivers/sdio/sd.c:540:13
	str	r0, [sp, #20]
	.loc	2 540 9                         @ rt-thread/components/drivers/sdio/sd.c:540:9
	b	.LBB9_7
.LBB9_6:
	.loc	2 542 33 is_stmt 1              @ rt-thread/components/drivers/sdio/sd.c:542:33
	ldr	r0, [sp, #32]
	add	r1, sp, #4
	.loc	2 542 15 is_stmt 0              @ rt-thread/components/drivers/sdio/sd.c:542:15
	bl	mmcsd_all_get_cid
	.loc	2 542 13                        @ rt-thread/components/drivers/sdio/sd.c:542:13
	str	r0, [sp, #20]
	b	.LBB9_7
.Ltmp155:
.LBB9_7:
	.loc	2 543 9 is_stmt 1               @ rt-thread/components/drivers/sdio/sd.c:543:9
	ldr	r0, [sp, #20]
.Ltmp156:
	.loc	2 543 9 is_stmt 0               @ rt-thread/components/drivers/sdio/sd.c:543:9
	cbz	r0, .LBB9_9
	b	.LBB9_8
.LBB9_8:
.Ltmp157:
	.loc	2 544 9 is_stmt 1               @ rt-thread/components/drivers/sdio/sd.c:544:9
	b	.LBB9_47
.Ltmp158:
.LBB9_9:
	.loc	2 0 9 is_stmt 0                 @ rt-thread/components/drivers/sdio/sd.c:0:9
	movs	r0, #156
	.loc	2 546 12 is_stmt 1              @ rt-thread/components/drivers/sdio/sd.c:546:12
	bl	rt_malloc
	.loc	2 546 10 is_stmt 0              @ rt-thread/components/drivers/sdio/sd.c:546:10
	str	r0, [sp, #24]
.Ltmp159:
	.loc	2 547 10 is_stmt 1              @ rt-thread/components/drivers/sdio/sd.c:547:10
	ldr	r0, [sp, #24]
.Ltmp160:
	.loc	2 547 9 is_stmt 0               @ rt-thread/components/drivers/sdio/sd.c:547:9
	cbnz	r0, .LBB9_13
	b	.LBB9_10
.LBB9_10:
.Ltmp161:
	.loc	2 549 9 is_stmt 1               @ rt-thread/components/drivers/sdio/sd.c:549:9
	b	.LBB9_11
.LBB9_11:
.Ltmp162:
	.loc	2 549 9 is_stmt 0               @ rt-thread/components/drivers/sdio/sd.c:549:9
	movw	r0, :lower16:.L.str.3
	movt	r0, :upper16:.L.str.3
	bl	rt_kprintf
	movw	r0, :lower16:.L.str.4
	movt	r0, :upper16:.L.str.4
	bl	rt_kprintf
	movw	r0, :lower16:.L.str.2
	movt	r0, :upper16:.L.str.2
	bl	rt_kprintf
	b	.LBB9_12
.Ltmp163:
.LBB9_12:
	.loc	2 0 9                           @ rt-thread/components/drivers/sdio/sd.c:0:9
	mvn	r0, #4
	.loc	2 550 13 is_stmt 1              @ rt-thread/components/drivers/sdio/sd.c:550:13
	str	r0, [sp, #20]
	.loc	2 551 9                         @ rt-thread/components/drivers/sdio/sd.c:551:9
	b	.LBB9_47
.Ltmp164:
.LBB9_13:
	.loc	2 553 15                        @ rt-thread/components/drivers/sdio/sd.c:553:15
	ldr	r0, [sp, #24]
	movs	r1, #0
	movs	r2, #156
	.loc	2 553 5 is_stmt 0               @ rt-thread/components/drivers/sdio/sd.c:553:5
	bl	rt_memset
	.loc	2 555 5 is_stmt 1               @ rt-thread/components/drivers/sdio/sd.c:555:5
	ldr	r1, [sp, #24]
	movs	r0, #1
	.loc	2 555 21 is_stmt 0              @ rt-thread/components/drivers/sdio/sd.c:555:21
	strh.w	r0, [r1, #72]
	.loc	2 556 18 is_stmt 1              @ rt-thread/components/drivers/sdio/sd.c:556:18
	ldr	r0, [sp, #32]
	.loc	2 556 5 is_stmt 0               @ rt-thread/components/drivers/sdio/sd.c:556:5
	ldr	r1, [sp, #24]
	.loc	2 556 16                        @ rt-thread/components/drivers/sdio/sd.c:556:16
	str	r0, [r1]
	.loc	2 557 15 is_stmt 1              @ rt-thread/components/drivers/sdio/sd.c:557:15
	ldr	r0, [sp, #24]
	.loc	2 557 21 is_stmt 0              @ rt-thread/components/drivers/sdio/sd.c:557:21
	adds	r0, #8
	add	r1, sp, #4
	movs	r2, #16
	.loc	2 557 5                         @ rt-thread/components/drivers/sdio/sd.c:557:5
	bl	rt_memcpy
.Ltmp165:
	.loc	2 562 10 is_stmt 1              @ rt-thread/components/drivers/sdio/sd.c:562:10
	ldr	r0, [sp, #32]
.Ltmp166:
	.loc	2 562 9 is_stmt 0               @ rt-thread/components/drivers/sdio/sd.c:562:9
	ldrb.w	r0, [r0, #32]
	lsls	r0, r0, #28
	cmp	r0, #0
	bmi	.LBB9_17
	b	.LBB9_14
.LBB9_14:
.Ltmp167:
	.loc	2 564 35 is_stmt 1              @ rt-thread/components/drivers/sdio/sd.c:564:35
	ldr	r0, [sp, #32]
	.loc	2 564 42 is_stmt 0              @ rt-thread/components/drivers/sdio/sd.c:564:42
	ldr	r1, [sp, #24]
	.loc	2 564 48                        @ rt-thread/components/drivers/sdio/sd.c:564:48
	adds	r1, #4
	.loc	2 564 15                        @ rt-thread/components/drivers/sdio/sd.c:564:15
	bl	mmcsd_get_card_addr
	.loc	2 564 13                        @ rt-thread/components/drivers/sdio/sd.c:564:13
	str	r0, [sp, #20]
.Ltmp168:
	.loc	2 565 13 is_stmt 1              @ rt-thread/components/drivers/sdio/sd.c:565:13
	ldr	r0, [sp, #20]
.Ltmp169:
	.loc	2 565 13 is_stmt 0              @ rt-thread/components/drivers/sdio/sd.c:565:13
	cbz	r0, .LBB9_16
	b	.LBB9_15
.LBB9_15:
.Ltmp170:
	.loc	2 566 13 is_stmt 1              @ rt-thread/components/drivers/sdio/sd.c:566:13
	b	.LBB9_46
.Ltmp171:
.LBB9_16:
	.loc	2 568 28                        @ rt-thread/components/drivers/sdio/sd.c:568:28
	ldr	r0, [sp, #32]
	movs	r1, #2
	.loc	2 568 9 is_stmt 0               @ rt-thread/components/drivers/sdio/sd.c:568:9
	bl	mmcsd_set_bus_mode
	.loc	2 569 5 is_stmt 1               @ rt-thread/components/drivers/sdio/sd.c:569:5
	b	.LBB9_17
.Ltmp172:
.LBB9_17:
	.loc	2 571 25                        @ rt-thread/components/drivers/sdio/sd.c:571:25
	ldr	r0, [sp, #24]
	.loc	2 571 37 is_stmt 0              @ rt-thread/components/drivers/sdio/sd.c:571:37
	add.w	r1, r0, #24
	.loc	2 571 11                        @ rt-thread/components/drivers/sdio/sd.c:571:11
	bl	mmcsd_get_csd
	.loc	2 571 9                         @ rt-thread/components/drivers/sdio/sd.c:571:9
	str	r0, [sp, #20]
.Ltmp173:
	.loc	2 572 9 is_stmt 1               @ rt-thread/components/drivers/sdio/sd.c:572:9
	ldr	r0, [sp, #20]
.Ltmp174:
	.loc	2 572 9 is_stmt 0               @ rt-thread/components/drivers/sdio/sd.c:572:9
	cbz	r0, .LBB9_19
	b	.LBB9_18
.LBB9_18:
.Ltmp175:
	.loc	2 573 9 is_stmt 1               @ rt-thread/components/drivers/sdio/sd.c:573:9
	b	.LBB9_46
.Ltmp176:
.LBB9_19:
	.loc	2 575 27                        @ rt-thread/components/drivers/sdio/sd.c:575:27
	ldr	r0, [sp, #24]
	.loc	2 575 11 is_stmt 0              @ rt-thread/components/drivers/sdio/sd.c:575:11
	bl	mmcsd_parse_csd
	.loc	2 575 9                         @ rt-thread/components/drivers/sdio/sd.c:575:9
	str	r0, [sp, #20]
.Ltmp177:
	.loc	2 576 9 is_stmt 1               @ rt-thread/components/drivers/sdio/sd.c:576:9
	ldr	r0, [sp, #20]
.Ltmp178:
	.loc	2 576 9 is_stmt 0               @ rt-thread/components/drivers/sdio/sd.c:576:9
	cbz	r0, .LBB9_21
	b	.LBB9_20
.LBB9_20:
.Ltmp179:
	.loc	2 577 9 is_stmt 1               @ rt-thread/components/drivers/sdio/sd.c:577:9
	b	.LBB9_46
.Ltmp180:
.LBB9_21:
	.loc	2 579 10                        @ rt-thread/components/drivers/sdio/sd.c:579:10
	ldr	r0, [sp, #32]
.Ltmp181:
	.loc	2 579 9 is_stmt 0               @ rt-thread/components/drivers/sdio/sd.c:579:9
	ldrb.w	r0, [r0, #32]
	lsls	r0, r0, #28
	cmp	r0, #0
	bmi	.LBB9_25
	b	.LBB9_22
.LBB9_22:
.Ltmp182:
	.loc	2 581 33 is_stmt 1              @ rt-thread/components/drivers/sdio/sd.c:581:33
	ldr	r0, [sp, #24]
	.loc	2 581 15 is_stmt 0              @ rt-thread/components/drivers/sdio/sd.c:581:15
	bl	mmcsd_select_card
	.loc	2 581 13                        @ rt-thread/components/drivers/sdio/sd.c:581:13
	str	r0, [sp, #20]
.Ltmp183:
	.loc	2 582 13 is_stmt 1              @ rt-thread/components/drivers/sdio/sd.c:582:13
	ldr	r0, [sp, #20]
.Ltmp184:
	.loc	2 582 13 is_stmt 0              @ rt-thread/components/drivers/sdio/sd.c:582:13
	cbz	r0, .LBB9_24
	b	.LBB9_23
.LBB9_23:
.Ltmp185:
	.loc	2 583 13 is_stmt 1              @ rt-thread/components/drivers/sdio/sd.c:583:13
	b	.LBB9_46
.Ltmp186:
.LBB9_24:
	.loc	2 584 5                         @ rt-thread/components/drivers/sdio/sd.c:584:5
	b	.LBB9_25
.Ltmp187:
.LBB9_25:
	.loc	2 586 25                        @ rt-thread/components/drivers/sdio/sd.c:586:25
	ldr	r0, [sp, #24]
	.loc	2 586 37 is_stmt 0              @ rt-thread/components/drivers/sdio/sd.c:586:37
	add.w	r1, r0, #40
	.loc	2 586 11                        @ rt-thread/components/drivers/sdio/sd.c:586:11
	bl	mmcsd_get_scr
	.loc	2 586 9                         @ rt-thread/components/drivers/sdio/sd.c:586:9
	str	r0, [sp, #20]
.Ltmp188:
	.loc	2 587 9 is_stmt 1               @ rt-thread/components/drivers/sdio/sd.c:587:9
	ldr	r0, [sp, #20]
.Ltmp189:
	.loc	2 587 9 is_stmt 0               @ rt-thread/components/drivers/sdio/sd.c:587:9
	cbz	r0, .LBB9_27
	b	.LBB9_26
.LBB9_26:
.Ltmp190:
	.loc	2 588 9 is_stmt 1               @ rt-thread/components/drivers/sdio/sd.c:588:9
	b	.LBB9_46
.Ltmp191:
.LBB9_27:
	.loc	2 590 21                        @ rt-thread/components/drivers/sdio/sd.c:590:21
	ldr	r0, [sp, #24]
	.loc	2 590 5 is_stmt 0               @ rt-thread/components/drivers/sdio/sd.c:590:5
	bl	mmcsd_parse_scr
.Ltmp192:
	.loc	2 592 9 is_stmt 1               @ rt-thread/components/drivers/sdio/sd.c:592:9
	ldr	r0, [sp, #32]
.Ltmp193:
	.loc	2 592 9 is_stmt 0               @ rt-thread/components/drivers/sdio/sd.c:592:9
	ldrb.w	r0, [r0, #32]
	lsls	r0, r0, #28
	cmp	r0, #0
	bpl	.LBB9_31
	b	.LBB9_28
.LBB9_28:
.Ltmp194:
	.loc	2 594 33 is_stmt 1              @ rt-thread/components/drivers/sdio/sd.c:594:33
	ldr	r0, [sp, #32]
	movs	r1, #1
	.loc	2 594 15 is_stmt 0              @ rt-thread/components/drivers/sdio/sd.c:594:15
	bl	mmcsd_spi_use_crc
	.loc	2 594 13                        @ rt-thread/components/drivers/sdio/sd.c:594:13
	str	r0, [sp, #20]
.Ltmp195:
	.loc	2 595 13 is_stmt 1              @ rt-thread/components/drivers/sdio/sd.c:595:13
	ldr	r0, [sp, #20]
.Ltmp196:
	.loc	2 595 13 is_stmt 0              @ rt-thread/components/drivers/sdio/sd.c:595:13
	cbz	r0, .LBB9_30
	b	.LBB9_29
.LBB9_29:
.Ltmp197:
	.loc	2 596 13 is_stmt 1              @ rt-thread/components/drivers/sdio/sd.c:596:13
	b	.LBB9_46
.Ltmp198:
.LBB9_30:
	.loc	2 597 5                         @ rt-thread/components/drivers/sdio/sd.c:597:5
	b	.LBB9_31
.Ltmp199:
.LBB9_31:
	.loc	2 602 24                        @ rt-thread/components/drivers/sdio/sd.c:602:24
	ldr	r0, [sp, #24]
	.loc	2 602 11 is_stmt 0              @ rt-thread/components/drivers/sdio/sd.c:602:11
	bl	mmcsd_switch
	.loc	2 602 9                         @ rt-thread/components/drivers/sdio/sd.c:602:9
	str	r0, [sp, #20]
.Ltmp200:
	.loc	2 603 9 is_stmt 1               @ rt-thread/components/drivers/sdio/sd.c:603:9
	ldr	r0, [sp, #20]
.Ltmp201:
	.loc	2 603 9 is_stmt 0               @ rt-thread/components/drivers/sdio/sd.c:603:9
	cbz	r0, .LBB9_33
	b	.LBB9_32
.LBB9_32:
.Ltmp202:
	.loc	2 604 9 is_stmt 1               @ rt-thread/components/drivers/sdio/sd.c:604:9
	b	.LBB9_46
.Ltmp203:
.LBB9_33:
	.loc	2 0 9 is_stmt 0                 @ rt-thread/components/drivers/sdio/sd.c:0:9
	mov.w	r0, #-1
	.loc	2 607 19 is_stmt 1              @ rt-thread/components/drivers/sdio/sd.c:607:19
	str	r0, [sp]
.Ltmp204:
	.loc	2 609 9                         @ rt-thread/components/drivers/sdio/sd.c:609:9
	ldr	r0, [sp, #24]
	ldrh.w	r0, [r0, #74]
.Ltmp205:
	.loc	2 609 9 is_stmt 0               @ rt-thread/components/drivers/sdio/sd.c:609:9
	lsls	r0, r0, #31
	cbz	r0, .LBB9_37
	b	.LBB9_34
.LBB9_34:
.Ltmp206:
	.loc	2 611 13 is_stmt 1              @ rt-thread/components/drivers/sdio/sd.c:611:13
	ldr	r0, [sp]
	.loc	2 611 29 is_stmt 0              @ rt-thread/components/drivers/sdio/sd.c:611:29
	ldr	r1, [sp, #24]
	.loc	2 611 35                        @ rt-thread/components/drivers/sdio/sd.c:611:35
	ldr	r1, [r1, #100]
.Ltmp207:
	.loc	2 611 13                        @ rt-thread/components/drivers/sdio/sd.c:611:13
	cmp	r0, r1
	bls	.LBB9_36
	b	.LBB9_35
.LBB9_35:
.Ltmp208:
	.loc	2 612 29 is_stmt 1              @ rt-thread/components/drivers/sdio/sd.c:612:29
	ldr	r0, [sp, #24]
	.loc	2 612 35 is_stmt 0              @ rt-thread/components/drivers/sdio/sd.c:612:35
	ldr	r0, [r0, #100]
	.loc	2 612 27                        @ rt-thread/components/drivers/sdio/sd.c:612:27
	str	r0, [sp]
	.loc	2 612 13                        @ rt-thread/components/drivers/sdio/sd.c:612:13
	b	.LBB9_36
.Ltmp209:
.LBB9_36:
	.loc	2 613 5 is_stmt 1               @ rt-thread/components/drivers/sdio/sd.c:613:5
	b	.LBB9_40
.Ltmp210:
.LBB9_37:
	.loc	2 614 14                        @ rt-thread/components/drivers/sdio/sd.c:614:14
	ldr	r0, [sp]
	.loc	2 614 30 is_stmt 0              @ rt-thread/components/drivers/sdio/sd.c:614:30
	ldr	r1, [sp, #24]
	.loc	2 614 36                        @ rt-thread/components/drivers/sdio/sd.c:614:36
	ldr	r1, [r1, #56]
.Ltmp211:
	.loc	2 614 14                        @ rt-thread/components/drivers/sdio/sd.c:614:14
	cmp	r0, r1
	bls	.LBB9_39
	b	.LBB9_38
.LBB9_38:
.Ltmp212:
	.loc	2 616 25 is_stmt 1              @ rt-thread/components/drivers/sdio/sd.c:616:25
	ldr	r0, [sp, #24]
	.loc	2 616 31 is_stmt 0              @ rt-thread/components/drivers/sdio/sd.c:616:31
	ldr	r0, [r0, #56]
	.loc	2 616 23                        @ rt-thread/components/drivers/sdio/sd.c:616:23
	str	r0, [sp]
	.loc	2 617 5 is_stmt 1               @ rt-thread/components/drivers/sdio/sd.c:617:5
	b	.LBB9_39
.Ltmp213:
.LBB9_39:
	.loc	2 0 5 is_stmt 0                 @ rt-thread/components/drivers/sdio/sd.c:0:5
	b	.LBB9_40
.LBB9_40:
	.loc	2 619 21 is_stmt 1              @ rt-thread/components/drivers/sdio/sd.c:619:21
	ldr	r0, [sp, #32]
	.loc	2 619 27 is_stmt 0              @ rt-thread/components/drivers/sdio/sd.c:619:27
	ldr	r1, [sp]
	.loc	2 619 5                         @ rt-thread/components/drivers/sdio/sd.c:619:5
	bl	mmcsd_set_clock
.Ltmp214:
	.loc	2 622 10 is_stmt 1              @ rt-thread/components/drivers/sdio/sd.c:622:10
	ldr	r0, [sp, #32]
	.loc	2 622 42 is_stmt 0              @ rt-thread/components/drivers/sdio/sd.c:622:42
	ldrb.w	r0, [r0, #32]
	lsls	r0, r0, #31
	cbz	r0, .LBB9_45
	b	.LBB9_41
.LBB9_41:
	.loc	2 623 10 is_stmt 1              @ rt-thread/components/drivers/sdio/sd.c:623:10
	ldr	r0, [sp, #24]
	ldrb.w	r0, [r0, #77]
.Ltmp215:
	.loc	2 622 9                         @ rt-thread/components/drivers/sdio/sd.c:622:9
	lsls	r0, r0, #29
	cmp	r0, #0
	bpl	.LBB9_45
	b	.LBB9_42
.LBB9_42:
.Ltmp216:
	.loc	2 625 39                        @ rt-thread/components/drivers/sdio/sd.c:625:39
	ldr	r0, [sp, #24]
	movs	r1, #2
	.loc	2 625 15 is_stmt 0              @ rt-thread/components/drivers/sdio/sd.c:625:15
	bl	mmcsd_app_set_bus_width
	.loc	2 625 13                        @ rt-thread/components/drivers/sdio/sd.c:625:13
	str	r0, [sp, #20]
.Ltmp217:
	.loc	2 626 13 is_stmt 1              @ rt-thread/components/drivers/sdio/sd.c:626:13
	ldr	r0, [sp, #20]
.Ltmp218:
	.loc	2 626 13 is_stmt 0              @ rt-thread/components/drivers/sdio/sd.c:626:13
	cbz	r0, .LBB9_44
	b	.LBB9_43
.LBB9_43:
.Ltmp219:
	.loc	2 627 13 is_stmt 1              @ rt-thread/components/drivers/sdio/sd.c:627:13
	b	.LBB9_46
.Ltmp220:
.LBB9_44:
	.loc	2 629 29                        @ rt-thread/components/drivers/sdio/sd.c:629:29
	ldr	r0, [sp, #32]
	movs	r1, #2
	.loc	2 629 9 is_stmt 0               @ rt-thread/components/drivers/sdio/sd.c:629:9
	bl	mmcsd_set_bus_width
	.loc	2 630 5 is_stmt 1               @ rt-thread/components/drivers/sdio/sd.c:630:5
	b	.LBB9_45
.Ltmp221:
.LBB9_45:
	.loc	2 632 18                        @ rt-thread/components/drivers/sdio/sd.c:632:18
	ldr	r0, [sp, #24]
	.loc	2 632 5 is_stmt 0               @ rt-thread/components/drivers/sdio/sd.c:632:5
	ldr	r1, [sp, #32]
	.loc	2 632 16                        @ rt-thread/components/drivers/sdio/sd.c:632:16
	str	r0, [r1]
	movs	r0, #0
	.loc	2 634 5 is_stmt 1               @ rt-thread/components/drivers/sdio/sd.c:634:5
	str	r0, [sp, #36]
	b	.LBB9_48
.LBB9_46:
.Ltmp222:
	@DEBUG_LABEL: mmcsd_sd_init_card:err1
	.loc	2 637 13                        @ rt-thread/components/drivers/sdio/sd.c:637:13
	ldr	r0, [sp, #24]
	.loc	2 637 5 is_stmt 0               @ rt-thread/components/drivers/sdio/sd.c:637:5
	bl	rt_free
	b	.LBB9_47
.LBB9_47:
.Ltmp223:
	@DEBUG_LABEL: mmcsd_sd_init_card:err
	.loc	2 640 12 is_stmt 1              @ rt-thread/components/drivers/sdio/sd.c:640:12
	ldr	r0, [sp, #20]
	.loc	2 640 5 is_stmt 0               @ rt-thread/components/drivers/sdio/sd.c:640:5
	str	r0, [sp, #36]
	b	.LBB9_48
.LBB9_48:
	.loc	2 641 1 is_stmt 1               @ rt-thread/components/drivers/sdio/sd.c:641:1
	ldr	r0, [sp, #36]
	add	sp, #40
	pop	{r7, pc}
.Ltmp224:
.Lfunc_end9:
	.size	mmcsd_sd_init_card, .Lfunc_end9-mmcsd_sd_init_card
	.cfi_endproc
	.cantunwind
	.fnend
                                        @ -- End function
	.section	.text.mmcsd_parse_csd,"ax",%progbits
	.p2align	3                               @ -- Begin function mmcsd_parse_csd
	.type	mmcsd_parse_csd,%function
	.code	16                              @ @mmcsd_parse_csd
	.thumb_func
mmcsd_parse_csd:
.Lfunc_begin10:
	.loc	2 63 0                          @ rt-thread/components/drivers/sdio/sd.c:63:0
	.fnstart
	.cfi_startproc
@ %bb.0:
	.save	{r7, lr}
	push	{r7, lr}
	.cfi_def_cfa_offset 8
	.cfi_offset lr, -4
	.cfi_offset r7, -8
	.pad	#56
	sub	sp, #56
	.cfi_def_cfa_offset 64
	str	r0, [sp, #48]
.Ltmp225:
	.loc	2 64 33 prologue_end            @ rt-thread/components/drivers/sdio/sd.c:64:33
	ldr	r0, [sp, #48]
	.loc	2 64 39 is_stmt 0               @ rt-thread/components/drivers/sdio/sd.c:64:39
	adds	r0, #80
	.loc	2 64 26                         @ rt-thread/components/drivers/sdio/sd.c:64:26
	str	r0, [sp, #44]
	.loc	2 65 25 is_stmt 1               @ rt-thread/components/drivers/sdio/sd.c:65:25
	ldr	r0, [sp, #48]
	.loc	2 65 31 is_stmt 0               @ rt-thread/components/drivers/sdio/sd.c:65:31
	adds	r0, #24
	.loc	2 65 18                         @ rt-thread/components/drivers/sdio/sd.c:65:18
	str	r0, [sp, #40]
	.loc	2 67 35 is_stmt 1               @ rt-thread/components/drivers/sdio/sd.c:67:35
	ldr	r0, [sp, #40]
	movs	r1, #126
	movs	r2, #2
	.loc	2 67 26 is_stmt 0               @ rt-thread/components/drivers/sdio/sd.c:67:26
	bl	GET_BITS
	.loc	2 67 5                          @ rt-thread/components/drivers/sdio/sd.c:67:5
	ldr	r1, [sp, #44]
	.loc	2 67 24                         @ rt-thread/components/drivers/sdio/sd.c:67:24
	strb	r0, [r1]
	.loc	2 69 13 is_stmt 1               @ rt-thread/components/drivers/sdio/sd.c:69:13
	ldr	r0, [sp, #44]
	.loc	2 69 18 is_stmt 0               @ rt-thread/components/drivers/sdio/sd.c:69:18
	ldrb	r0, [r0]
	.loc	2 69 5                          @ rt-thread/components/drivers/sdio/sd.c:69:5
	mov	r1, r0
	str	r1, [sp, #36]                   @ 4-byte Spill
	cbz	r0, .LBB10_2
	b	.LBB10_1
.LBB10_1:
	ldr	r0, [sp, #36]                   @ 4-byte Reload
	cmp	r0, #1
	beq.w	.LBB10_3
	b	.LBB10_4
.LBB10_2:
.Ltmp226:
	.loc	2 72 30 is_stmt 1               @ rt-thread/components/drivers/sdio/sd.c:72:30
	ldr	r0, [sp, #40]
	movs	r1, #112
	movs	r2, #8
	.loc	2 72 21 is_stmt 0               @ rt-thread/components/drivers/sdio/sd.c:72:21
	str	r2, [sp, #16]                   @ 4-byte Spill
	bl	GET_BITS
	ldr	r2, [sp, #16]                   @ 4-byte Reload
	.loc	2 72 9                          @ rt-thread/components/drivers/sdio/sd.c:72:9
	ldr	r1, [sp, #44]
	.loc	2 72 19                         @ rt-thread/components/drivers/sdio/sd.c:72:19
	strb	r0, [r1, #1]
	.loc	2 73 30 is_stmt 1               @ rt-thread/components/drivers/sdio/sd.c:73:30
	ldr	r0, [sp, #40]
	movs	r1, #104
	.loc	2 73 21 is_stmt 0               @ rt-thread/components/drivers/sdio/sd.c:73:21
	bl	GET_BITS
	ldr	r2, [sp, #16]                   @ 4-byte Reload
	.loc	2 73 9                          @ rt-thread/components/drivers/sdio/sd.c:73:9
	ldr	r1, [sp, #44]
	.loc	2 73 19                         @ rt-thread/components/drivers/sdio/sd.c:73:19
	strb	r0, [r1, #2]
	.loc	2 74 36 is_stmt 1               @ rt-thread/components/drivers/sdio/sd.c:74:36
	ldr	r0, [sp, #40]
	movs	r1, #96
	.loc	2 74 27 is_stmt 0               @ rt-thread/components/drivers/sdio/sd.c:74:27
	bl	GET_BITS
	.loc	2 74 9                          @ rt-thread/components/drivers/sdio/sd.c:74:9
	ldr	r1, [sp, #44]
	.loc	2 74 25                         @ rt-thread/components/drivers/sdio/sd.c:74:25
	strb	r0, [r1, #3]
	.loc	2 75 40 is_stmt 1               @ rt-thread/components/drivers/sdio/sd.c:75:40
	ldr	r0, [sp, #40]
	movs	r1, #84
	movs	r2, #12
	.loc	2 75 31 is_stmt 0               @ rt-thread/components/drivers/sdio/sd.c:75:31
	str	r2, [sp, #20]                   @ 4-byte Spill
	bl	GET_BITS
	.loc	2 75 9                          @ rt-thread/components/drivers/sdio/sd.c:75:9
	ldr	r1, [sp, #44]
	.loc	2 75 29                         @ rt-thread/components/drivers/sdio/sd.c:75:29
	strh	r0, [r1, #4]
	.loc	2 76 36 is_stmt 1               @ rt-thread/components/drivers/sdio/sd.c:76:36
	ldr	r0, [sp, #40]
	movs	r1, #80
	movs	r2, #4
	.loc	2 76 27 is_stmt 0               @ rt-thread/components/drivers/sdio/sd.c:76:27
	str	r2, [sp, #28]                   @ 4-byte Spill
	bl	GET_BITS
	.loc	2 76 9                          @ rt-thread/components/drivers/sdio/sd.c:76:9
	ldr	r1, [sp, #44]
	.loc	2 76 25                         @ rt-thread/components/drivers/sdio/sd.c:76:25
	strb	r0, [r1, #6]
	.loc	2 77 37 is_stmt 1               @ rt-thread/components/drivers/sdio/sd.c:77:37
	ldr	r0, [sp, #40]
	movs	r1, #79
	movs	r2, #1
	.loc	2 77 28 is_stmt 0               @ rt-thread/components/drivers/sdio/sd.c:77:28
	str	r2, [sp, #32]                   @ 4-byte Spill
	bl	GET_BITS
	ldr	r2, [sp, #32]                   @ 4-byte Reload
	.loc	2 77 9                          @ rt-thread/components/drivers/sdio/sd.c:77:9
	ldr	r1, [sp, #44]
	.loc	2 77 26                         @ rt-thread/components/drivers/sdio/sd.c:77:26
	strb	r0, [r1, #7]
	.loc	2 78 41 is_stmt 1               @ rt-thread/components/drivers/sdio/sd.c:78:41
	ldr	r0, [sp, #40]
	movs	r1, #78
	.loc	2 78 32 is_stmt 0               @ rt-thread/components/drivers/sdio/sd.c:78:32
	bl	GET_BITS
	ldr	r2, [sp, #32]                   @ 4-byte Reload
	.loc	2 78 9                          @ rt-thread/components/drivers/sdio/sd.c:78:9
	ldr	r1, [sp, #44]
	.loc	2 78 30                         @ rt-thread/components/drivers/sdio/sd.c:78:30
	strb	r0, [r1, #8]
	.loc	2 79 41 is_stmt 1               @ rt-thread/components/drivers/sdio/sd.c:79:41
	ldr	r0, [sp, #40]
	movs	r1, #77
	.loc	2 79 32 is_stmt 0               @ rt-thread/components/drivers/sdio/sd.c:79:32
	bl	GET_BITS
	ldr	r2, [sp, #32]                   @ 4-byte Reload
	.loc	2 79 9                          @ rt-thread/components/drivers/sdio/sd.c:79:9
	ldr	r1, [sp, #44]
	.loc	2 79 30                         @ rt-thread/components/drivers/sdio/sd.c:79:30
	strb	r0, [r1, #9]
	.loc	2 80 33 is_stmt 1               @ rt-thread/components/drivers/sdio/sd.c:80:33
	ldr	r0, [sp, #40]
	movs	r1, #76
	.loc	2 80 24 is_stmt 0               @ rt-thread/components/drivers/sdio/sd.c:80:24
	bl	GET_BITS
	ldr	r2, [sp, #20]                   @ 4-byte Reload
	.loc	2 80 9                          @ rt-thread/components/drivers/sdio/sd.c:80:9
	ldr	r1, [sp, #44]
	.loc	2 80 22                         @ rt-thread/components/drivers/sdio/sd.c:80:22
	strb	r0, [r1, #10]
	.loc	2 81 32 is_stmt 1               @ rt-thread/components/drivers/sdio/sd.c:81:32
	ldr	r0, [sp, #40]
	movs	r1, #62
	.loc	2 81 23 is_stmt 0               @ rt-thread/components/drivers/sdio/sd.c:81:23
	bl	GET_BITS
	.loc	2 81 9                          @ rt-thread/components/drivers/sdio/sd.c:81:9
	ldr	r1, [sp, #44]
	.loc	2 81 21                         @ rt-thread/components/drivers/sdio/sd.c:81:21
	str	r0, [r1, #12]
	.loc	2 82 37 is_stmt 1               @ rt-thread/components/drivers/sdio/sd.c:82:37
	ldr	r0, [sp, #40]
	movs	r1, #47
	movs	r2, #3
	.loc	2 82 28 is_stmt 0               @ rt-thread/components/drivers/sdio/sd.c:82:28
	str	r2, [sp, #24]                   @ 4-byte Spill
	bl	GET_BITS
	ldr	r2, [sp, #24]                   @ 4-byte Reload
	.loc	2 82 9                          @ rt-thread/components/drivers/sdio/sd.c:82:9
	ldr	r1, [sp, #44]
	.loc	2 82 26                         @ rt-thread/components/drivers/sdio/sd.c:82:26
	strb	r0, [r1, #11]
	.loc	2 83 36 is_stmt 1               @ rt-thread/components/drivers/sdio/sd.c:83:36
	ldr	r0, [sp, #40]
	movs	r1, #26
	.loc	2 83 27 is_stmt 0               @ rt-thread/components/drivers/sdio/sd.c:83:27
	bl	GET_BITS
	ldr	r2, [sp, #28]                   @ 4-byte Reload
	.loc	2 83 9                          @ rt-thread/components/drivers/sdio/sd.c:83:9
	ldr	r1, [sp, #44]
	.loc	2 83 25                         @ rt-thread/components/drivers/sdio/sd.c:83:25
	strb	r0, [r1, #16]
	.loc	2 84 36 is_stmt 1               @ rt-thread/components/drivers/sdio/sd.c:84:36
	ldr	r0, [sp, #40]
	movs	r1, #22
	.loc	2 84 27 is_stmt 0               @ rt-thread/components/drivers/sdio/sd.c:84:27
	bl	GET_BITS
	ldr	r2, [sp, #32]                   @ 4-byte Reload
	.loc	2 84 9                          @ rt-thread/components/drivers/sdio/sd.c:84:9
	ldr	r1, [sp, #44]
	.loc	2 84 25                         @ rt-thread/components/drivers/sdio/sd.c:84:25
	strb	r0, [r1, #17]
	.loc	2 85 40 is_stmt 1               @ rt-thread/components/drivers/sdio/sd.c:85:40
	ldr	r0, [sp, #40]
	movs	r1, #21
	.loc	2 85 31 is_stmt 0               @ rt-thread/components/drivers/sdio/sd.c:85:31
	bl	GET_BITS
	ldr	r1, [sp, #32]                   @ 4-byte Reload
	.loc	2 85 9                          @ rt-thread/components/drivers/sdio/sd.c:85:9
	ldr	r2, [sp, #44]
	.loc	2 85 29                         @ rt-thread/components/drivers/sdio/sd.c:85:29
	strb	r0, [r2, #18]
	.loc	2 86 33 is_stmt 1               @ rt-thread/components/drivers/sdio/sd.c:86:33
	ldr	r0, [sp, #40]
	movs	r2, #7
	.loc	2 86 24 is_stmt 0               @ rt-thread/components/drivers/sdio/sd.c:86:24
	bl	GET_BITS
	mov	r1, r0
	.loc	2 86 9                          @ rt-thread/components/drivers/sdio/sd.c:86:9
	ldr	r0, [sp, #32]                   @ 4-byte Reload
	ldr	r2, [sp, #44]
	.loc	2 86 22                         @ rt-thread/components/drivers/sdio/sd.c:86:22
	strb	r1, [r2, #19]
	.loc	2 88 35 is_stmt 1               @ rt-thread/components/drivers/sdio/sd.c:88:35
	ldr	r1, [sp, #44]
	.loc	2 88 40 is_stmt 0               @ rt-thread/components/drivers/sdio/sd.c:88:40
	ldrb	r1, [r1, #6]
	.loc	2 88 32                         @ rt-thread/components/drivers/sdio/sd.c:88:32
	lsls	r0, r1
	.loc	2 88 9                          @ rt-thread/components/drivers/sdio/sd.c:88:9
	ldr	r1, [sp, #48]
	.loc	2 88 28                         @ rt-thread/components/drivers/sdio/sd.c:88:28
	str	r0, [r1, #64]
	.loc	2 89 32 is_stmt 1               @ rt-thread/components/drivers/sdio/sd.c:89:32
	ldr	r1, [sp, #44]
	.loc	2 89 37 is_stmt 0               @ rt-thread/components/drivers/sdio/sd.c:89:37
	ldr	r0, [r1, #12]
	.loc	2 89 44                         @ rt-thread/components/drivers/sdio/sd.c:89:44
	adds	r0, #1
	.loc	2 89 58                         @ rt-thread/components/drivers/sdio/sd.c:89:58
	ldrb	r1, [r1, #11]
	.loc	2 89 70                         @ rt-thread/components/drivers/sdio/sd.c:89:70
	adds	r1, #2
	.loc	2 89 49                         @ rt-thread/components/drivers/sdio/sd.c:89:49
	lsls	r0, r1
	.loc	2 89 9                          @ rt-thread/components/drivers/sdio/sd.c:89:9
	ldr	r1, [sp, #48]
	.loc	2 89 29                         @ rt-thread/components/drivers/sdio/sd.c:89:29
	str	r0, [r1, #60]
	.loc	2 90 32 is_stmt 1               @ rt-thread/components/drivers/sdio/sd.c:90:32
	ldr	r1, [sp, #48]
	.loc	2 90 29 is_stmt 0               @ rt-thread/components/drivers/sdio/sd.c:90:29
	ldr	r0, [r1, #60]
	.loc	2 90 38                         @ rt-thread/components/drivers/sdio/sd.c:90:38
	ldr	r2, [r1, #64]
	.loc	2 90 29                         @ rt-thread/components/drivers/sdio/sd.c:90:29
	muls	r0, r2, r0
	str	r0, [r1, #60]
	.loc	2 91 9 is_stmt 1                @ rt-thread/components/drivers/sdio/sd.c:91:9
	ldr	r1, [sp, #48]
	.loc	2 91 29 is_stmt 0               @ rt-thread/components/drivers/sdio/sd.c:91:29
	ldr	r0, [r1, #60]
	lsrs	r0, r0, #10
	str	r0, [r1, #60]
	.loc	2 92 27 is_stmt 1               @ rt-thread/components/drivers/sdio/sd.c:92:27
	ldr	r0, [sp, #44]
	.loc	2 92 32 is_stmt 0               @ rt-thread/components/drivers/sdio/sd.c:92:32
	ldrb	r0, [r0, #2]
	movs	r1, #100
	.loc	2 92 37                         @ rt-thread/components/drivers/sdio/sd.c:92:37
	muls	r0, r1, r0
	.loc	2 92 9                          @ rt-thread/components/drivers/sdio/sd.c:92:9
	ldr	r1, [sp, #48]
	.loc	2 92 25                         @ rt-thread/components/drivers/sdio/sd.c:92:25
	strh	r0, [r1, #48]
	.loc	2 93 36 is_stmt 1               @ rt-thread/components/drivers/sdio/sd.c:93:36
	ldr	r0, [sp, #44]
	.loc	2 93 41 is_stmt 0               @ rt-thread/components/drivers/sdio/sd.c:93:41
	ldrb	r1, [r0, #1]
	.loc	2 93 45                         @ rt-thread/components/drivers/sdio/sd.c:93:45
	and	r2, r1, #7
	.loc	2 93 26                         @ rt-thread/components/drivers/sdio/sd.c:93:26
	movw	r0, :lower16:tacc_uint
	movt	r0, :upper16:tacc_uint
	ldr.w	r0, [r0, r2, lsl #2]
	.loc	2 93 81                         @ rt-thread/components/drivers/sdio/sd.c:93:81
	ubfx	r2, r1, #3, #4
	.loc	2 93 54                         @ rt-thread/components/drivers/sdio/sd.c:93:54
	movw	r1, :lower16:tacc_value
	movt	r1, :upper16:tacc_value
	ldrb	r1, [r1, r2]
	.loc	2 93 52                         @ rt-thread/components/drivers/sdio/sd.c:93:52
	muls	r0, r1, r0
	.loc	2 93 86                         @ rt-thread/components/drivers/sdio/sd.c:93:86
	adds	r0, #9
	movw	r1, #52429
	movt	r1, #52428
	.loc	2 93 91                         @ rt-thread/components/drivers/sdio/sd.c:93:91
	umull	r1, r0, r0, r1
	lsrs	r0, r0, #3
	.loc	2 93 9                          @ rt-thread/components/drivers/sdio/sd.c:93:9
	ldr	r1, [sp, #48]
	.loc	2 93 23                         @ rt-thread/components/drivers/sdio/sd.c:93:23
	str	r0, [r1, #52]
	.loc	2 94 41 is_stmt 1               @ rt-thread/components/drivers/sdio/sd.c:94:41
	ldr	r0, [sp, #44]
	.loc	2 94 46 is_stmt 0               @ rt-thread/components/drivers/sdio/sd.c:94:46
	ldrb	r1, [r0, #3]
	.loc	2 94 56                         @ rt-thread/components/drivers/sdio/sd.c:94:56
	and	r2, r1, #7
	.loc	2 94 31                         @ rt-thread/components/drivers/sdio/sd.c:94:31
	movw	r0, :lower16:tran_unit
	movt	r0, :upper16:tran_unit
	ldr.w	r0, [r0, r2, lsl #2]
	.loc	2 94 98                         @ rt-thread/components/drivers/sdio/sd.c:94:98
	ubfx	r2, r1, #3, #4
	.loc	2 94 65                         @ rt-thread/components/drivers/sdio/sd.c:94:65
	movw	r1, :lower16:tran_value
	movt	r1, :upper16:tran_value
	ldrb	r1, [r1, r2]
	.loc	2 94 63                         @ rt-thread/components/drivers/sdio/sd.c:94:63
	muls	r0, r1, r0
	.loc	2 94 9                          @ rt-thread/components/drivers/sdio/sd.c:94:9
	ldr	r1, [sp, #48]
	.loc	2 94 29                         @ rt-thread/components/drivers/sdio/sd.c:94:29
	str	r0, [r1, #56]
	.loc	2 96 9 is_stmt 1                @ rt-thread/components/drivers/sdio/sd.c:96:9
	b	.LBB10_7
.LBB10_3:
	.loc	2 98 9                          @ rt-thread/components/drivers/sdio/sd.c:98:9
	ldr	r1, [sp, #48]
	.loc	2 98 21 is_stmt 0               @ rt-thread/components/drivers/sdio/sd.c:98:21
	ldrh.w	r0, [r1, #74]
	orr	r0, r0, #2
	strh.w	r0, [r1, #74]
	.loc	2 104 30 is_stmt 1              @ rt-thread/components/drivers/sdio/sd.c:104:30
	ldr	r0, [sp, #40]
	movs	r1, #112
	movs	r2, #8
	.loc	2 104 21 is_stmt 0              @ rt-thread/components/drivers/sdio/sd.c:104:21
	str	r2, [sp]                        @ 4-byte Spill
	bl	GET_BITS
	ldr	r2, [sp]                        @ 4-byte Reload
	.loc	2 104 9                         @ rt-thread/components/drivers/sdio/sd.c:104:9
	ldr	r1, [sp, #44]
	.loc	2 104 19                        @ rt-thread/components/drivers/sdio/sd.c:104:19
	strb	r0, [r1, #1]
	.loc	2 105 30 is_stmt 1              @ rt-thread/components/drivers/sdio/sd.c:105:30
	ldr	r0, [sp, #40]
	movs	r1, #104
	.loc	2 105 21 is_stmt 0              @ rt-thread/components/drivers/sdio/sd.c:105:21
	bl	GET_BITS
	ldr	r2, [sp]                        @ 4-byte Reload
	.loc	2 105 9                         @ rt-thread/components/drivers/sdio/sd.c:105:9
	ldr	r1, [sp, #44]
	.loc	2 105 19                        @ rt-thread/components/drivers/sdio/sd.c:105:19
	strb	r0, [r1, #2]
	.loc	2 106 36 is_stmt 1              @ rt-thread/components/drivers/sdio/sd.c:106:36
	ldr	r0, [sp, #40]
	movs	r1, #96
	.loc	2 106 27 is_stmt 0              @ rt-thread/components/drivers/sdio/sd.c:106:27
	bl	GET_BITS
	.loc	2 106 9                         @ rt-thread/components/drivers/sdio/sd.c:106:9
	ldr	r1, [sp, #44]
	.loc	2 106 25                        @ rt-thread/components/drivers/sdio/sd.c:106:25
	strb	r0, [r1, #3]
	.loc	2 107 40 is_stmt 1              @ rt-thread/components/drivers/sdio/sd.c:107:40
	ldr	r0, [sp, #40]
	movs	r1, #84
	movs	r2, #12
	.loc	2 107 31 is_stmt 0              @ rt-thread/components/drivers/sdio/sd.c:107:31
	bl	GET_BITS
	.loc	2 107 9                         @ rt-thread/components/drivers/sdio/sd.c:107:9
	ldr	r1, [sp, #44]
	.loc	2 107 29                        @ rt-thread/components/drivers/sdio/sd.c:107:29
	strh	r0, [r1, #4]
	.loc	2 108 36 is_stmt 1              @ rt-thread/components/drivers/sdio/sd.c:108:36
	ldr	r0, [sp, #40]
	movs	r1, #80
	movs	r2, #4
	.loc	2 108 27 is_stmt 0              @ rt-thread/components/drivers/sdio/sd.c:108:27
	str	r2, [sp, #8]                    @ 4-byte Spill
	bl	GET_BITS
	.loc	2 108 9                         @ rt-thread/components/drivers/sdio/sd.c:108:9
	ldr	r1, [sp, #44]
	.loc	2 108 25                        @ rt-thread/components/drivers/sdio/sd.c:108:25
	strb	r0, [r1, #6]
	.loc	2 109 37 is_stmt 1              @ rt-thread/components/drivers/sdio/sd.c:109:37
	ldr	r0, [sp, #40]
	movs	r1, #79
	movs	r2, #1
	.loc	2 109 28 is_stmt 0              @ rt-thread/components/drivers/sdio/sd.c:109:28
	str	r2, [sp, #12]                   @ 4-byte Spill
	bl	GET_BITS
	ldr	r2, [sp, #12]                   @ 4-byte Reload
	.loc	2 109 9                         @ rt-thread/components/drivers/sdio/sd.c:109:9
	ldr	r1, [sp, #44]
	.loc	2 109 26                        @ rt-thread/components/drivers/sdio/sd.c:109:26
	strb	r0, [r1, #7]
	.loc	2 110 41 is_stmt 1              @ rt-thread/components/drivers/sdio/sd.c:110:41
	ldr	r0, [sp, #40]
	movs	r1, #78
	.loc	2 110 32 is_stmt 0              @ rt-thread/components/drivers/sdio/sd.c:110:32
	bl	GET_BITS
	ldr	r2, [sp, #12]                   @ 4-byte Reload
	.loc	2 110 9                         @ rt-thread/components/drivers/sdio/sd.c:110:9
	ldr	r1, [sp, #44]
	.loc	2 110 30                        @ rt-thread/components/drivers/sdio/sd.c:110:30
	strb	r0, [r1, #8]
	.loc	2 111 41 is_stmt 1              @ rt-thread/components/drivers/sdio/sd.c:111:41
	ldr	r0, [sp, #40]
	movs	r1, #77
	.loc	2 111 32 is_stmt 0              @ rt-thread/components/drivers/sdio/sd.c:111:32
	bl	GET_BITS
	ldr	r2, [sp, #12]                   @ 4-byte Reload
	.loc	2 111 9                         @ rt-thread/components/drivers/sdio/sd.c:111:9
	ldr	r1, [sp, #44]
	.loc	2 111 30                        @ rt-thread/components/drivers/sdio/sd.c:111:30
	strb	r0, [r1, #9]
	.loc	2 112 33 is_stmt 1              @ rt-thread/components/drivers/sdio/sd.c:112:33
	ldr	r0, [sp, #40]
	movs	r1, #76
	.loc	2 112 24 is_stmt 0              @ rt-thread/components/drivers/sdio/sd.c:112:24
	bl	GET_BITS
	.loc	2 112 9                         @ rt-thread/components/drivers/sdio/sd.c:112:9
	ldr	r1, [sp, #44]
	.loc	2 112 22                        @ rt-thread/components/drivers/sdio/sd.c:112:22
	strb	r0, [r1, #10]
	.loc	2 113 32 is_stmt 1              @ rt-thread/components/drivers/sdio/sd.c:113:32
	ldr	r0, [sp, #40]
	movs	r1, #48
	movs	r2, #22
	.loc	2 113 23 is_stmt 0              @ rt-thread/components/drivers/sdio/sd.c:113:23
	str	r2, [sp, #4]                    @ 4-byte Spill
	bl	GET_BITS
	.loc	2 113 9                         @ rt-thread/components/drivers/sdio/sd.c:113:9
	ldr	r1, [sp, #44]
	.loc	2 113 21                        @ rt-thread/components/drivers/sdio/sd.c:113:21
	str	r0, [r1, #12]
	.loc	2 115 36 is_stmt 1              @ rt-thread/components/drivers/sdio/sd.c:115:36
	ldr	r0, [sp, #40]
	movs	r1, #26
	movs	r2, #3
	.loc	2 115 27 is_stmt 0              @ rt-thread/components/drivers/sdio/sd.c:115:27
	bl	GET_BITS
	ldr	r1, [sp, #4]                    @ 4-byte Reload
	ldr	r2, [sp, #8]                    @ 4-byte Reload
	.loc	2 115 9                         @ rt-thread/components/drivers/sdio/sd.c:115:9
	ldr	r3, [sp, #44]
	.loc	2 115 25                        @ rt-thread/components/drivers/sdio/sd.c:115:25
	strb	r0, [r3, #16]
	.loc	2 116 36 is_stmt 1              @ rt-thread/components/drivers/sdio/sd.c:116:36
	ldr	r0, [sp, #40]
	.loc	2 116 27 is_stmt 0              @ rt-thread/components/drivers/sdio/sd.c:116:27
	bl	GET_BITS
	ldr	r2, [sp, #12]                   @ 4-byte Reload
	.loc	2 116 9                         @ rt-thread/components/drivers/sdio/sd.c:116:9
	ldr	r1, [sp, #44]
	.loc	2 116 25                        @ rt-thread/components/drivers/sdio/sd.c:116:25
	strb	r0, [r1, #17]
	.loc	2 117 40 is_stmt 1              @ rt-thread/components/drivers/sdio/sd.c:117:40
	ldr	r0, [sp, #40]
	movs	r1, #21
	.loc	2 117 31 is_stmt 0              @ rt-thread/components/drivers/sdio/sd.c:117:31
	bl	GET_BITS
	ldr	r1, [sp, #12]                   @ 4-byte Reload
	.loc	2 117 9                         @ rt-thread/components/drivers/sdio/sd.c:117:9
	ldr	r2, [sp, #44]
	.loc	2 117 29                        @ rt-thread/components/drivers/sdio/sd.c:117:29
	strb	r0, [r2, #18]
	.loc	2 118 33 is_stmt 1              @ rt-thread/components/drivers/sdio/sd.c:118:33
	ldr	r0, [sp, #40]
	movs	r2, #7
	.loc	2 118 24 is_stmt 0              @ rt-thread/components/drivers/sdio/sd.c:118:24
	bl	GET_BITS
	.loc	2 118 9                         @ rt-thread/components/drivers/sdio/sd.c:118:9
	ldr	r1, [sp, #44]
	.loc	2 118 22                        @ rt-thread/components/drivers/sdio/sd.c:118:22
	strb	r0, [r1, #19]
	.loc	2 120 9 is_stmt 1               @ rt-thread/components/drivers/sdio/sd.c:120:9
	ldr	r1, [sp, #48]
	mov.w	r0, #512
	.loc	2 120 28 is_stmt 0              @ rt-thread/components/drivers/sdio/sd.c:120:28
	str	r0, [r1, #64]
	.loc	2 121 32 is_stmt 1              @ rt-thread/components/drivers/sdio/sd.c:121:32
	ldr	r1, [sp, #44]
	.loc	2 121 37 is_stmt 0              @ rt-thread/components/drivers/sdio/sd.c:121:37
	ldr	r1, [r1, #12]
	.loc	2 121 49                        @ rt-thread/components/drivers/sdio/sd.c:121:49
	add.w	r0, r0, r1, lsl #9
	.loc	2 121 9                         @ rt-thread/components/drivers/sdio/sd.c:121:9
	ldr	r1, [sp, #48]
	.loc	2 121 29                        @ rt-thread/components/drivers/sdio/sd.c:121:29
	str	r0, [r1, #60]
	.loc	2 122 9 is_stmt 1               @ rt-thread/components/drivers/sdio/sd.c:122:9
	ldr	r1, [sp, #48]
	movs	r0, #0
	.loc	2 122 25 is_stmt 0              @ rt-thread/components/drivers/sdio/sd.c:122:25
	strh	r0, [r1, #48]
	.loc	2 123 9 is_stmt 1               @ rt-thread/components/drivers/sdio/sd.c:123:9
	ldr	r1, [sp, #48]
	.loc	2 123 23 is_stmt 0              @ rt-thread/components/drivers/sdio/sd.c:123:23
	str	r0, [r1, #52]
	.loc	2 124 41 is_stmt 1              @ rt-thread/components/drivers/sdio/sd.c:124:41
	ldr	r0, [sp, #44]
	.loc	2 124 46 is_stmt 0              @ rt-thread/components/drivers/sdio/sd.c:124:46
	ldrb	r1, [r0, #3]
	.loc	2 124 56                        @ rt-thread/components/drivers/sdio/sd.c:124:56
	and	r2, r1, #7
	.loc	2 124 31                        @ rt-thread/components/drivers/sdio/sd.c:124:31
	movw	r0, :lower16:tran_unit
	movt	r0, :upper16:tran_unit
	ldr.w	r0, [r0, r2, lsl #2]
	.loc	2 124 98                        @ rt-thread/components/drivers/sdio/sd.c:124:98
	ubfx	r2, r1, #3, #4
	.loc	2 124 65                        @ rt-thread/components/drivers/sdio/sd.c:124:65
	movw	r1, :lower16:tran_value
	movt	r1, :upper16:tran_value
	ldrb	r1, [r1, r2]
	.loc	2 124 63                        @ rt-thread/components/drivers/sdio/sd.c:124:63
	muls	r0, r1, r0
	.loc	2 124 9                         @ rt-thread/components/drivers/sdio/sd.c:124:9
	ldr	r1, [sp, #48]
	.loc	2 124 29                        @ rt-thread/components/drivers/sdio/sd.c:124:29
	str	r0, [r1, #56]
	.loc	2 126 9 is_stmt 1               @ rt-thread/components/drivers/sdio/sd.c:126:9
	b	.LBB10_7
.LBB10_4:
	.loc	2 128 9                         @ rt-thread/components/drivers/sdio/sd.c:128:9
	b	.LBB10_5
.LBB10_5:
.Ltmp227:
	.loc	2 128 9 is_stmt 0               @ rt-thread/components/drivers/sdio/sd.c:128:9
	movw	r0, :lower16:.L.str.3
	movt	r0, :upper16:.L.str.3
	bl	rt_kprintf
	ldr	r0, [sp, #44]
	ldrb	r1, [r0]
	movw	r0, :lower16:.L.str.5
	movt	r0, :upper16:.L.str.5
	bl	rt_kprintf
	movw	r0, :lower16:.L.str.2
	movt	r0, :upper16:.L.str.2
	bl	rt_kprintf
	b	.LBB10_6
.Ltmp228:
.LBB10_6:
	.loc	2 0 9                           @ rt-thread/components/drivers/sdio/sd.c:0:9
	mov.w	r0, #-1
	.loc	2 130 9 is_stmt 1               @ rt-thread/components/drivers/sdio/sd.c:130:9
	str	r0, [sp, #52]
	b	.LBB10_10
.Ltmp229:
.LBB10_7:
	.loc	2 132 5                         @ rt-thread/components/drivers/sdio/sd.c:132:5
	b	.LBB10_8
.LBB10_8:
.Ltmp230:
	.loc	2 132 5 is_stmt 0               @ rt-thread/components/drivers/sdio/sd.c:132:5
	movw	r0, :lower16:.L.str
	movt	r0, :upper16:.L.str
	bl	rt_kprintf
	ldr	r0, [sp, #48]
	ldr	r1, [r0, #60]
	movw	r0, :lower16:.L.str.6
	movt	r0, :upper16:.L.str.6
	bl	rt_kprintf
	movw	r0, :lower16:.L.str.2
	movt	r0, :upper16:.L.str.2
	bl	rt_kprintf
	b	.LBB10_9
.Ltmp231:
.LBB10_9:
	.loc	2 0 5                           @ rt-thread/components/drivers/sdio/sd.c:0:5
	movs	r0, #0
	.loc	2 134 5 is_stmt 1               @ rt-thread/components/drivers/sdio/sd.c:134:5
	str	r0, [sp, #52]
	b	.LBB10_10
.LBB10_10:
	.loc	2 135 1                         @ rt-thread/components/drivers/sdio/sd.c:135:1
	ldr	r0, [sp, #52]
	add	sp, #56
	pop	{r7, pc}
.Ltmp232:
.Lfunc_end10:
	.size	mmcsd_parse_csd, .Lfunc_end10-mmcsd_parse_csd
	.cfi_endproc
	.cantunwind
	.fnend
                                        @ -- End function
	.section	.text.mmcsd_parse_scr,"ax",%progbits
	.p2align	3                               @ -- Begin function mmcsd_parse_scr
	.type	mmcsd_parse_scr,%function
	.code	16                              @ @mmcsd_parse_scr
	.thumb_func
mmcsd_parse_scr:
.Lfunc_begin11:
	.loc	2 138 0                         @ rt-thread/components/drivers/sdio/sd.c:138:0
	.fnstart
	.cfi_startproc
@ %bb.0:
	.save	{r7, lr}
	push	{r7, lr}
	.cfi_def_cfa_offset 8
	.cfi_offset lr, -4
	.cfi_offset r7, -8
	.pad	#32
	sub	sp, #32
	.cfi_def_cfa_offset 40
	str	r0, [sp, #28]
.Ltmp233:
	.loc	2 139 30 prologue_end           @ rt-thread/components/drivers/sdio/sd.c:139:30
	ldr	r0, [sp, #28]
	.loc	2 139 36 is_stmt 0              @ rt-thread/components/drivers/sdio/sd.c:139:36
	adds	r0, #76
	.loc	2 139 23                        @ rt-thread/components/drivers/sdio/sd.c:139:23
	str	r0, [sp, #24]
	.loc	2 142 15 is_stmt 1              @ rt-thread/components/drivers/sdio/sd.c:142:15
	ldr	r0, [sp, #28]
	ldr	r0, [r0, #44]
	.loc	2 142 13 is_stmt 0              @ rt-thread/components/drivers/sdio/sd.c:142:13
	str	r0, [sp, #20]
	.loc	2 143 15 is_stmt 1              @ rt-thread/components/drivers/sdio/sd.c:143:15
	ldr	r0, [sp, #28]
	ldr	r0, [r0, #40]
	.loc	2 143 13 is_stmt 0              @ rt-thread/components/drivers/sdio/sd.c:143:13
	str	r0, [sp, #16]
	add	r0, sp, #8
	str	r0, [sp, #4]                    @ 4-byte Spill
	movs	r1, #56
	movs	r2, #4
	.loc	2 144 23 is_stmt 1              @ rt-thread/components/drivers/sdio/sd.c:144:23
	str	r2, [sp]                        @ 4-byte Spill
	bl	GET_BITS
	ldr	r2, [sp]                        @ 4-byte Reload
	mov	r1, r0
	.loc	2 144 5 is_stmt 0               @ rt-thread/components/drivers/sdio/sd.c:144:5
	ldr	r0, [sp, #4]                    @ 4-byte Reload
	ldr	r3, [sp, #24]
	.loc	2 144 21                        @ rt-thread/components/drivers/sdio/sd.c:144:21
	strb	r1, [r3]
	movs	r1, #48
	.loc	2 145 26 is_stmt 1              @ rt-thread/components/drivers/sdio/sd.c:145:26
	bl	GET_BITS
	.loc	2 145 5 is_stmt 0               @ rt-thread/components/drivers/sdio/sd.c:145:5
	ldr	r1, [sp, #24]
	.loc	2 145 24                        @ rt-thread/components/drivers/sdio/sd.c:145:24
	strb	r0, [r1, #1]
	movs	r0, #0
	.loc	2 147 5 is_stmt 1               @ rt-thread/components/drivers/sdio/sd.c:147:5
	add	sp, #32
	pop	{r7, pc}
.Ltmp234:
.Lfunc_end11:
	.size	mmcsd_parse_scr, .Lfunc_end11-mmcsd_parse_scr
	.cfi_endproc
	.cantunwind
	.fnend
                                        @ -- End function
	.section	.text.mmcsd_switch,"ax",%progbits
	.p2align	3                               @ -- Begin function mmcsd_switch
	.type	mmcsd_switch,%function
	.code	16                              @ @mmcsd_switch
	.thumb_func
mmcsd_switch:
.Lfunc_begin12:
	.loc	2 151 0                         @ rt-thread/components/drivers/sdio/sd.c:151:0
	.fnstart
	.cfi_startproc
@ %bb.0:
	.save	{r7, lr}
	push	{r7, lr}
	.cfi_def_cfa_offset 8
	.cfi_offset lr, -4
	.cfi_offset r7, -8
	.pad	#152
	sub	sp, #152
	.cfi_def_cfa_offset 160
	str	r0, [sp, #144]
.Ltmp235:
	.loc	2 153 34 prologue_end           @ rt-thread/components/drivers/sdio/sd.c:153:34
	ldr	r0, [sp, #144]
	.loc	2 153 40 is_stmt 0              @ rt-thread/components/drivers/sdio/sd.c:153:40
	ldr	r0, [r0]
	.loc	2 153 27                        @ rt-thread/components/drivers/sdio/sd.c:153:27
	str	r0, [sp, #136]
	movs	r0, #64
	.loc	2 159 24 is_stmt 1              @ rt-thread/components/drivers/sdio/sd.c:159:24
	bl	rt_malloc
	.loc	2 159 9 is_stmt 0               @ rt-thread/components/drivers/sdio/sd.c:159:9
	str	r0, [sp, #36]
.Ltmp236:
	.loc	2 160 10 is_stmt 1              @ rt-thread/components/drivers/sdio/sd.c:160:10
	ldr	r0, [sp, #36]
.Ltmp237:
	.loc	2 160 9 is_stmt 0               @ rt-thread/components/drivers/sdio/sd.c:160:9
	cbnz	r0, .LBB12_4
	b	.LBB12_1
.LBB12_1:
.Ltmp238:
	.loc	2 162 9 is_stmt 1               @ rt-thread/components/drivers/sdio/sd.c:162:9
	b	.LBB12_2
.LBB12_2:
.Ltmp239:
	.loc	2 162 9 is_stmt 0               @ rt-thread/components/drivers/sdio/sd.c:162:9
	movw	r0, :lower16:.L.str.3
	movt	r0, :upper16:.L.str.3
	bl	rt_kprintf
	movw	r0, :lower16:.L.str.7
	movt	r0, :upper16:.L.str.7
	bl	rt_kprintf
	movw	r0, :lower16:.L.str.2
	movt	r0, :upper16:.L.str.2
	bl	rt_kprintf
	b	.LBB12_3
.Ltmp240:
.LBB12_3:
	.loc	2 0 9                           @ rt-thread/components/drivers/sdio/sd.c:0:9
	mvn	r0, #4
	.loc	2 164 9 is_stmt 1               @ rt-thread/components/drivers/sdio/sd.c:164:9
	str	r0, [sp, #148]
	b	.LBB12_27
.Ltmp241:
.LBB12_4:
	.loc	2 167 9                         @ rt-thread/components/drivers/sdio/sd.c:167:9
	ldr	r0, [sp, #144]
	.loc	2 167 15 is_stmt 0              @ rt-thread/components/drivers/sdio/sd.c:167:15
	ldrh.w	r0, [r0, #72]
.Ltmp242:
	.loc	2 167 9                         @ rt-thread/components/drivers/sdio/sd.c:167:9
	cmp	r0, #1
	beq	.LBB12_6
	b	.LBB12_5
.LBB12_5:
.Ltmp243:
	.loc	2 168 9 is_stmt 1               @ rt-thread/components/drivers/sdio/sd.c:168:9
	b	.LBB12_21
.Ltmp244:
.LBB12_6:
	.loc	2 169 9                         @ rt-thread/components/drivers/sdio/sd.c:169:9
	ldr	r0, [sp, #144]
	.loc	2 169 19 is_stmt 0              @ rt-thread/components/drivers/sdio/sd.c:169:19
	ldrb.w	r0, [r0, #76]
.Ltmp245:
	.loc	2 169 9                         @ rt-thread/components/drivers/sdio/sd.c:169:9
	cmp	r0, #0
	bgt	.LBB12_8
	b	.LBB12_7
.LBB12_7:
.Ltmp246:
	.loc	2 170 9 is_stmt 1               @ rt-thread/components/drivers/sdio/sd.c:170:9
	b	.LBB12_21
.Ltmp247:
.LBB12_8:
	.loc	2 0 9 is_stmt 0                 @ rt-thread/components/drivers/sdio/sd.c:0:9
	add	r0, sp, #80
	str	r0, [sp, #24]                   @ 4-byte Spill
	movs	r1, #0
	str	r1, [sp, #20]                   @ 4-byte Spill
	movs	r2, #44
	.loc	2 172 5 is_stmt 1               @ rt-thread/components/drivers/sdio/sd.c:172:5
	bl	rt_memset
	ldr	r1, [sp, #20]                   @ 4-byte Reload
	movs	r0, #6
	.loc	2 174 18                        @ rt-thread/components/drivers/sdio/sd.c:174:18
	str	r0, [sp, #80]
	movw	r0, #65521
	movt	r0, #255
	.loc	2 175 13                        @ rt-thread/components/drivers/sdio/sd.c:175:13
	str	r0, [sp, #84]
	movs	r0, #17
	.loc	2 176 15                        @ rt-thread/components/drivers/sdio/sd.c:176:15
	str	r0, [sp, #104]
	add	r0, sp, #40
	str	r0, [sp, #32]                   @ 4-byte Spill
	movs	r2, #40
	.loc	2 178 5                         @ rt-thread/components/drivers/sdio/sd.c:178:5
	bl	rt_memset
                                        @ kill: def $r1 killed $r0
	.loc	2 180 35                        @ rt-thread/components/drivers/sdio/sd.c:180:35
	ldr	r0, [sp, #32]                   @ 4-byte Reload
	ldr	r1, [sp, #144]
	.loc	2 180 5 is_stmt 0               @ rt-thread/components/drivers/sdio/sd.c:180:5
	bl	mmcsd_set_data_timeout
	ldr	r1, [sp, #20]                   @ 4-byte Reload
	movs	r0, #64
	.loc	2 182 18 is_stmt 1              @ rt-thread/components/drivers/sdio/sd.c:182:18
	str	r0, [sp, #40]
	movs	r0, #1
	.loc	2 183 15                        @ rt-thread/components/drivers/sdio/sd.c:183:15
	str	r0, [sp, #44]
	movs	r0, #2
	.loc	2 184 16                        @ rt-thread/components/drivers/sdio/sd.c:184:16
	str	r0, [sp, #56]
	.loc	2 185 31                        @ rt-thread/components/drivers/sdio/sd.c:185:31
	ldr	r0, [sp, #36]
	.loc	2 185 14 is_stmt 0              @ rt-thread/components/drivers/sdio/sd.c:185:14
	str	r0, [sp, #48]
	add	r0, sp, #124
	str	r0, [sp, #28]                   @ 4-byte Spill
	movs	r2, #12
	.loc	2 187 5 is_stmt 1               @ rt-thread/components/drivers/sdio/sd.c:187:5
	bl	rt_memset
	ldr	r2, [sp, #24]                   @ 4-byte Reload
	ldr	r1, [sp, #28]                   @ 4-byte Reload
                                        @ kill: def $r3 killed $r0
	.loc	2 189 13                        @ rt-thread/components/drivers/sdio/sd.c:189:13
	ldr	r0, [sp, #32]                   @ 4-byte Reload
	str	r2, [sp, #128]
	.loc	2 190 14                        @ rt-thread/components/drivers/sdio/sd.c:190:14
	str	r0, [sp, #124]
	.loc	2 192 24                        @ rt-thread/components/drivers/sdio/sd.c:192:24
	ldr	r0, [sp, #136]
	.loc	2 192 5 is_stmt 0               @ rt-thread/components/drivers/sdio/sd.c:192:5
	bl	mmcsd_send_request
.Ltmp248:
	.loc	2 194 13 is_stmt 1              @ rt-thread/components/drivers/sdio/sd.c:194:13
	ldr	r0, [sp, #112]
	.loc	2 194 17 is_stmt 0              @ rt-thread/components/drivers/sdio/sd.c:194:17
	cbnz	r0, .LBB12_10
	b	.LBB12_9
.LBB12_9:
	.loc	2 194 25                        @ rt-thread/components/drivers/sdio/sd.c:194:25
	ldr	r0, [sp, #52]
.Ltmp249:
	.loc	2 194 9                         @ rt-thread/components/drivers/sdio/sd.c:194:9
	cbz	r0, .LBB12_11
	b	.LBB12_10
.LBB12_10:
.Ltmp250:
	.loc	2 196 9 is_stmt 1               @ rt-thread/components/drivers/sdio/sd.c:196:9
	b	.LBB12_22
.Ltmp251:
.LBB12_11:
	.loc	2 199 9                         @ rt-thread/components/drivers/sdio/sd.c:199:9
	ldr	r0, [sp, #36]
	ldrb	r0, [r0, #13]
.Ltmp252:
	.loc	2 199 9 is_stmt 0               @ rt-thread/components/drivers/sdio/sd.c:199:9
	lsls	r0, r0, #30
	cmp	r0, #0
	bpl	.LBB12_13
	b	.LBB12_12
.LBB12_12:
.Ltmp253:
	.loc	2 200 9 is_stmt 1               @ rt-thread/components/drivers/sdio/sd.c:200:9
	ldr	r1, [sp, #144]
	movw	r0, #61568
	movt	r0, #762
	.loc	2 200 32 is_stmt 0              @ rt-thread/components/drivers/sdio/sd.c:200:32
	str	r0, [r1, #100]
	.loc	2 200 9                         @ rt-thread/components/drivers/sdio/sd.c:200:9
	b	.LBB12_13
.Ltmp254:
.LBB12_13:
	.loc	2 0 9                           @ rt-thread/components/drivers/sdio/sd.c:0:9
	add	r0, sp, #80
	str	r0, [sp, #8]                    @ 4-byte Spill
	movs	r1, #0
	str	r1, [sp, #4]                    @ 4-byte Spill
	movs	r2, #44
	.loc	2 202 5 is_stmt 1               @ rt-thread/components/drivers/sdio/sd.c:202:5
	bl	rt_memset
	ldr	r1, [sp, #4]                    @ 4-byte Reload
	movs	r0, #6
	.loc	2 204 18                        @ rt-thread/components/drivers/sdio/sd.c:204:18
	str	r0, [sp, #80]
	movw	r0, #65521
	movt	r0, #33023
	.loc	2 205 13                        @ rt-thread/components/drivers/sdio/sd.c:205:13
	str	r0, [sp, #84]
	movs	r0, #17
	.loc	2 206 15                        @ rt-thread/components/drivers/sdio/sd.c:206:15
	str	r0, [sp, #104]
	add	r0, sp, #40
	str	r0, [sp, #16]                   @ 4-byte Spill
	movs	r2, #40
	.loc	2 208 5                         @ rt-thread/components/drivers/sdio/sd.c:208:5
	bl	rt_memset
                                        @ kill: def $r1 killed $r0
	.loc	2 210 35                        @ rt-thread/components/drivers/sdio/sd.c:210:35
	ldr	r0, [sp, #16]                   @ 4-byte Reload
	ldr	r1, [sp, #144]
	.loc	2 210 5 is_stmt 0               @ rt-thread/components/drivers/sdio/sd.c:210:5
	bl	mmcsd_set_data_timeout
	ldr	r1, [sp, #4]                    @ 4-byte Reload
	movs	r0, #64
	.loc	2 212 18 is_stmt 1              @ rt-thread/components/drivers/sdio/sd.c:212:18
	str	r0, [sp, #40]
	movs	r0, #1
	.loc	2 213 15                        @ rt-thread/components/drivers/sdio/sd.c:213:15
	str	r0, [sp, #44]
	movs	r0, #2
	.loc	2 214 16                        @ rt-thread/components/drivers/sdio/sd.c:214:16
	str	r0, [sp, #56]
	.loc	2 215 31                        @ rt-thread/components/drivers/sdio/sd.c:215:31
	ldr	r0, [sp, #36]
	.loc	2 215 14 is_stmt 0              @ rt-thread/components/drivers/sdio/sd.c:215:14
	str	r0, [sp, #48]
	add	r0, sp, #124
	str	r0, [sp, #12]                   @ 4-byte Spill
	movs	r2, #12
	.loc	2 217 5 is_stmt 1               @ rt-thread/components/drivers/sdio/sd.c:217:5
	bl	rt_memset
	ldr	r2, [sp, #8]                    @ 4-byte Reload
	ldr	r1, [sp, #12]                   @ 4-byte Reload
                                        @ kill: def $r3 killed $r0
	.loc	2 219 13                        @ rt-thread/components/drivers/sdio/sd.c:219:13
	ldr	r0, [sp, #16]                   @ 4-byte Reload
	str	r2, [sp, #128]
	.loc	2 220 14                        @ rt-thread/components/drivers/sdio/sd.c:220:14
	str	r0, [sp, #124]
	.loc	2 222 24                        @ rt-thread/components/drivers/sdio/sd.c:222:24
	ldr	r0, [sp, #136]
	.loc	2 222 5 is_stmt 0               @ rt-thread/components/drivers/sdio/sd.c:222:5
	bl	mmcsd_send_request
.Ltmp255:
	.loc	2 224 13 is_stmt 1              @ rt-thread/components/drivers/sdio/sd.c:224:13
	ldr	r0, [sp, #112]
	.loc	2 224 17 is_stmt 0              @ rt-thread/components/drivers/sdio/sd.c:224:17
	cbnz	r0, .LBB12_15
	b	.LBB12_14
.LBB12_14:
	.loc	2 224 25                        @ rt-thread/components/drivers/sdio/sd.c:224:25
	ldr	r0, [sp, #52]
.Ltmp256:
	.loc	2 224 9                         @ rt-thread/components/drivers/sdio/sd.c:224:9
	cbz	r0, .LBB12_16
	b	.LBB12_15
.LBB12_15:
.Ltmp257:
	.loc	2 226 9 is_stmt 1               @ rt-thread/components/drivers/sdio/sd.c:226:9
	b	.LBB12_22
.Ltmp258:
.LBB12_16:
	.loc	2 229 10                        @ rt-thread/components/drivers/sdio/sd.c:229:10
	ldr	r0, [sp, #36]
	ldrb	r0, [r0, #16]
	.loc	2 229 18 is_stmt 0              @ rt-thread/components/drivers/sdio/sd.c:229:18
	and	r0, r0, #15
.Ltmp259:
	.loc	2 229 9                         @ rt-thread/components/drivers/sdio/sd.c:229:9
	cmp	r0, #1
	beq	.LBB12_20
	b	.LBB12_17
.LBB12_17:
.Ltmp260:
	.loc	2 231 9 is_stmt 1               @ rt-thread/components/drivers/sdio/sd.c:231:9
	b	.LBB12_18
.LBB12_18:
.Ltmp261:
	.loc	2 231 9 is_stmt 0               @ rt-thread/components/drivers/sdio/sd.c:231:9
	movw	r0, :lower16:.L.str
	movt	r0, :upper16:.L.str
	bl	rt_kprintf
	movw	r0, :lower16:.L.str.8
	movt	r0, :upper16:.L.str.8
	bl	rt_kprintf
	movw	r0, :lower16:.L.str.2
	movt	r0, :upper16:.L.str.2
	bl	rt_kprintf
	b	.LBB12_19
.Ltmp262:
.LBB12_19:
	.loc	2 232 9 is_stmt 1               @ rt-thread/components/drivers/sdio/sd.c:232:9
	b	.LBB12_21
.Ltmp263:
.LBB12_20:
	.loc	2 235 5                         @ rt-thread/components/drivers/sdio/sd.c:235:5
	ldr	r1, [sp, #144]
	.loc	2 235 17 is_stmt 0              @ rt-thread/components/drivers/sdio/sd.c:235:17
	ldrh.w	r0, [r1, #74]
	orr	r0, r0, #1
	strh.w	r0, [r1, #74]
	.loc	2 235 5                         @ rt-thread/components/drivers/sdio/sd.c:235:5
	b	.LBB12_21
.LBB12_21:
.Ltmp264:
	@DEBUG_LABEL: mmcsd_switch:err
	.loc	2 238 13 is_stmt 1              @ rt-thread/components/drivers/sdio/sd.c:238:13
	ldr	r0, [sp, #36]
	.loc	2 238 5 is_stmt 0               @ rt-thread/components/drivers/sdio/sd.c:238:5
	bl	rt_free
	movs	r0, #0
	.loc	2 239 5 is_stmt 1               @ rt-thread/components/drivers/sdio/sd.c:239:5
	str	r0, [sp, #148]
	b	.LBB12_27
.LBB12_22:
.Ltmp265:
	@DEBUG_LABEL: mmcsd_switch:err1
	.loc	2 242 13                        @ rt-thread/components/drivers/sdio/sd.c:242:13
	ldr	r0, [sp, #112]
.Ltmp266:
	.loc	2 242 9 is_stmt 0               @ rt-thread/components/drivers/sdio/sd.c:242:9
	cbz	r0, .LBB12_24
	b	.LBB12_23
.LBB12_23:
.Ltmp267:
	.loc	2 243 19 is_stmt 1              @ rt-thread/components/drivers/sdio/sd.c:243:19
	ldr	r0, [sp, #112]
	.loc	2 243 13 is_stmt 0              @ rt-thread/components/drivers/sdio/sd.c:243:13
	str	r0, [sp, #140]
	.loc	2 243 9                         @ rt-thread/components/drivers/sdio/sd.c:243:9
	b	.LBB12_24
.Ltmp268:
.LBB12_24:
	.loc	2 244 14 is_stmt 1              @ rt-thread/components/drivers/sdio/sd.c:244:14
	ldr	r0, [sp, #52]
.Ltmp269:
	.loc	2 244 9 is_stmt 0               @ rt-thread/components/drivers/sdio/sd.c:244:9
	cbz	r0, .LBB12_26
	b	.LBB12_25
.LBB12_25:
.Ltmp270:
	.loc	2 245 20 is_stmt 1              @ rt-thread/components/drivers/sdio/sd.c:245:20
	ldr	r0, [sp, #52]
	.loc	2 245 13 is_stmt 0              @ rt-thread/components/drivers/sdio/sd.c:245:13
	str	r0, [sp, #140]
	.loc	2 245 9                         @ rt-thread/components/drivers/sdio/sd.c:245:9
	b	.LBB12_26
.Ltmp271:
.LBB12_26:
	.loc	2 247 12 is_stmt 1              @ rt-thread/components/drivers/sdio/sd.c:247:12
	ldr	r0, [sp, #140]
	.loc	2 247 5 is_stmt 0               @ rt-thread/components/drivers/sdio/sd.c:247:5
	str	r0, [sp, #148]
	b	.LBB12_27
.LBB12_27:
	.loc	2 248 1 is_stmt 1               @ rt-thread/components/drivers/sdio/sd.c:248:1
	ldr	r0, [sp, #148]
	add	sp, #152
	pop	{r7, pc}
.Ltmp272:
.Lfunc_end12:
	.size	mmcsd_switch, .Lfunc_end12-mmcsd_switch
	.cfi_endproc
	.cantunwind
	.fnend
                                        @ -- End function
	.section	.text.GET_BITS,"ax",%progbits
	.p2align	3                               @ -- Begin function GET_BITS
	.type	GET_BITS,%function
	.code	16                              @ @GET_BITS
	.thumb_func
GET_BITS:
.Lfunc_begin13:
	.loc	2 48 0                          @ rt-thread/components/drivers/sdio/sd.c:48:0
	.fnstart
	.cfi_startproc
@ %bb.0:
	.pad	#36
	sub	sp, #36
	.cfi_def_cfa_offset 36
	str	r0, [sp, #32]
	str	r1, [sp, #28]
	str	r2, [sp, #24]
.Ltmp273:
	.loc	2 49 35 prologue_end            @ rt-thread/components/drivers/sdio/sd.c:49:35
	ldr	r0, [sp, #24]
	.loc	2 49 26 is_stmt 0               @ rt-thread/components/drivers/sdio/sd.c:49:26
	str	r0, [sp, #20]
	.loc	2 50 37 is_stmt 1               @ rt-thread/components/drivers/sdio/sd.c:50:37
	ldr	r0, [sp, #20]
	cmp	r0, #31
	bgt	.LBB13_2
	b	.LBB13_1
.LBB13_1:
	.loc	2 50 56 is_stmt 0               @ rt-thread/components/drivers/sdio/sd.c:50:56
	ldr	r1, [sp, #20]
	movs	r0, #1
	.loc	2 50 53                         @ rt-thread/components/drivers/sdio/sd.c:50:53
	lsls	r0, r1
	.loc	2 50 37                         @ rt-thread/components/drivers/sdio/sd.c:50:37
	str	r0, [sp]                        @ 4-byte Spill
	b	.LBB13_3
.LBB13_2:
	.loc	2 0 37                          @ rt-thread/components/drivers/sdio/sd.c:0:37
	movs	r0, #0
	.loc	2 50 37                         @ rt-thread/components/drivers/sdio/sd.c:50:37
	str	r0, [sp]                        @ 4-byte Spill
	b	.LBB13_3
.LBB13_3:
	ldr	r0, [sp]                        @ 4-byte Reload
	.loc	2 50 68                         @ rt-thread/components/drivers/sdio/sd.c:50:68
	subs	r0, #1
	.loc	2 50 27                         @ rt-thread/components/drivers/sdio/sd.c:50:27
	str	r0, [sp, #16]
	.loc	2 51 40 is_stmt 1               @ rt-thread/components/drivers/sdio/sd.c:51:40
	ldr	r1, [sp, #28]
	movs	r0, #3
	.loc	2 51 36 is_stmt 0               @ rt-thread/components/drivers/sdio/sd.c:51:36
	sub.w	r0, r0, r1, lsr #5
	.loc	2 51 26                         @ rt-thread/components/drivers/sdio/sd.c:51:26
	str	r0, [sp, #12]
	.loc	2 52 36 is_stmt 1               @ rt-thread/components/drivers/sdio/sd.c:52:36
	ldr	r0, [sp, #28]
	.loc	2 52 43 is_stmt 0               @ rt-thread/components/drivers/sdio/sd.c:52:43
	and	r0, r0, #31
	.loc	2 52 26                         @ rt-thread/components/drivers/sdio/sd.c:52:26
	str	r0, [sp, #8]
	.loc	2 55 17 is_stmt 1               @ rt-thread/components/drivers/sdio/sd.c:55:17
	ldr	r0, [sp, #32]
	.loc	2 55 22 is_stmt 0               @ rt-thread/components/drivers/sdio/sd.c:55:22
	ldr	r1, [sp, #12]
	.loc	2 55 17                         @ rt-thread/components/drivers/sdio/sd.c:55:17
	ldr.w	r0, [r0, r1, lsl #2]
	.loc	2 55 32                         @ rt-thread/components/drivers/sdio/sd.c:55:32
	ldr	r1, [sp, #8]
	.loc	2 55 29                         @ rt-thread/components/drivers/sdio/sd.c:55:29
	lsrs	r0, r1
	.loc	2 55 15                         @ rt-thread/components/drivers/sdio/sd.c:55:15
	str	r0, [sp, #4]
.Ltmp274:
	.loc	2 56 13 is_stmt 1               @ rt-thread/components/drivers/sdio/sd.c:56:13
	ldr	r0, [sp, #20]
	.loc	2 56 22 is_stmt 0               @ rt-thread/components/drivers/sdio/sd.c:56:22
	ldr	r1, [sp, #8]
	.loc	2 56 20                         @ rt-thread/components/drivers/sdio/sd.c:56:20
	add	r0, r1
.Ltmp275:
	.loc	2 56 13                         @ rt-thread/components/drivers/sdio/sd.c:56:13
	cmp	r0, #33
	blt	.LBB13_5
	b	.LBB13_4
.LBB13_4:
.Ltmp276:
	.loc	2 57 22 is_stmt 1               @ rt-thread/components/drivers/sdio/sd.c:57:22
	ldr	r0, [sp, #32]
	.loc	2 57 27 is_stmt 0               @ rt-thread/components/drivers/sdio/sd.c:57:27
	ldr	r1, [sp, #12]
	.loc	2 57 22                         @ rt-thread/components/drivers/sdio/sd.c:57:22
	add.w	r0, r0, r1, lsl #2
	ldr	r0, [r0, #-4]
	.loc	2 57 46                         @ rt-thread/components/drivers/sdio/sd.c:57:46
	ldr	r1, [sp, #8]
	.loc	2 57 44                         @ rt-thread/components/drivers/sdio/sd.c:57:44
	rsb.w	r1, r1, #32
	.loc	2 57 54                         @ rt-thread/components/drivers/sdio/sd.c:57:54
	asrs	r2, r1, #31
	add.w	r2, r1, r2, lsr #27
	bic	r2, r2, #31
	subs	r1, r1, r2
	.loc	2 57 36                         @ rt-thread/components/drivers/sdio/sd.c:57:36
	lsl.w	r1, r0, r1
	.loc	2 57 19                         @ rt-thread/components/drivers/sdio/sd.c:57:19
	ldr	r0, [sp, #4]
	orrs	r0, r1
	str	r0, [sp, #4]
	.loc	2 57 13                         @ rt-thread/components/drivers/sdio/sd.c:57:13
	b	.LBB13_5
.Ltmp277:
.LBB13_5:
	.loc	2 59 16 is_stmt 1               @ rt-thread/components/drivers/sdio/sd.c:59:16
	ldr	r0, [sp, #4]
	.loc	2 59 24 is_stmt 0               @ rt-thread/components/drivers/sdio/sd.c:59:24
	ldr	r1, [sp, #16]
	.loc	2 59 22                         @ rt-thread/components/drivers/sdio/sd.c:59:22
	ands	r0, r1
	.loc	2 59 9                          @ rt-thread/components/drivers/sdio/sd.c:59:9
	add	sp, #36
	bx	lr
.Ltmp278:
.Lfunc_end13:
	.size	GET_BITS, .Lfunc_end13-GET_BITS
	.cfi_endproc
	.cantunwind
	.fnend
                                        @ -- End function
	.type	.L.str,%object                  @ @.str
	.section	.rodata.str1.1,"aMS",%progbits,1
.L.str:
	.asciz	"[I/SDIO] "
	.size	.L.str, 10

	.type	.L.str.1,%object                @ @.str.1
.L.str.1:
	.asciz	" SD card claims to support the incompletely defined 'low voltage range'. This will be ignored."
	.size	.L.str.1, 95

	.type	.L.str.2,%object                @ @.str.2
.L.str.2:
	.asciz	"\n"
	.size	.L.str.2, 2

	.type	.L.str.3,%object                @ @.str.3
.L.str.3:
	.asciz	"[E/SDIO] "
	.size	.L.str.3, 10

	.type	.L.str.4,%object                @ @.str.4
.L.str.4:
	.asciz	"malloc card failed!"
	.size	.L.str.4, 20

	.type	tacc_uint,%object               @ @tacc_uint
	.section	.rodata.tacc_uint,"a",%progbits
	.p2align	2
tacc_uint:
	.long	1                               @ 0x1
	.long	10                              @ 0xa
	.long	100                             @ 0x64
	.long	1000                            @ 0x3e8
	.long	10000                           @ 0x2710
	.long	100000                          @ 0x186a0
	.long	1000000                         @ 0xf4240
	.long	10000000                        @ 0x989680
	.size	tacc_uint, 32

	.type	tacc_value,%object              @ @tacc_value
	.section	.rodata.tacc_value,"a",%progbits
tacc_value:
	.ascii	"\000\n\f\r\017\024\031\036#(-27<FP"
	.size	tacc_value, 16

	.type	tran_unit,%object               @ @tran_unit
	.section	.rodata.tran_unit,"a",%progbits
	.p2align	2
tran_unit:
	.long	10000                           @ 0x2710
	.long	100000                          @ 0x186a0
	.long	1000000                         @ 0xf4240
	.long	10000000                        @ 0x989680
	.long	0                               @ 0x0
	.long	0                               @ 0x0
	.long	0                               @ 0x0
	.long	0                               @ 0x0
	.size	tran_unit, 32

	.type	tran_value,%object              @ @tran_value
	.section	.rodata.tran_value,"a",%progbits
tran_value:
	.ascii	"\000\n\f\r\017\024\031\036#(-27<FP"
	.size	tran_value, 16

	.type	.L.str.5,%object                @ @.str.5
	.section	.rodata.str1.1,"aMS",%progbits,1
.L.str.5:
	.asciz	"unrecognised CSD structure version %d!"
	.size	.L.str.5, 39

	.type	.L.str.6,%object                @ @.str.6
.L.str.6:
	.asciz	"SD card capacity %d KB."
	.size	.L.str.6, 24

	.type	.L.str.7,%object                @ @.str.7
.L.str.7:
	.asciz	"alloc memory failed!"
	.size	.L.str.7, 21

	.type	.L.str.8,%object                @ @.str.8
.L.str.8:
	.asciz	"switching card to high speed failed!"
	.size	.L.str.8, 37

	.file	4 "E:\\STM32\\Learning\\STM32H750_ART_PI_RGBLCD" "rt-thread/components/drivers/include\\drivers/mmcsd_card.h"
	.file	5 "E:\\STM32\\Learning\\STM32H750_ART_PI_RGBLCD" "rt-thread/components/drivers/include\\drivers/mmcsd_core.h"
	.section	".note.GNU-stack","",%progbits
	.eabi_attribute	30, 6	@ Tag_ABI_optimization_goals
	.ARM_attribute	16, 1	@ Tag_AV_eba