	.text
	.syntax unified
	.eabi_attribute	67, "2.09"	@ Tag_conformance
	.cpu	cortex-m7
	.eabi_attribute	6, 13	@ Tag_CPU_arch
	.eabi_attribute	7, 77	@ Tag_CPU_arch_profile
	.eabi_attribute	8, 0	@ Tag_ARM_ISA_use
	.eabi_attribute	9, 2	@ Tag_THUMB_ISA_use
	.fpu	fpv5-d16
	.eabi_attribute	36, 1	@ Tag_FP_HP_extension
	.eabi_attribute	34, 1	@ Tag_CPU_unaligned_access
	.eabi_attribute	17, 1	@ Tag_ABI_PCS_GOT_use
	.eabi_attribute	20, 2	@ Tag_ABI_FP_denormal
	.eabi_attribute	21, 0	@ Tag_ABI_FP_exceptions
	.eabi_attribute	23, 1	@ Tag_ABI_FP_number_model
	.eabi_attribute	24, 1	@ Tag_ABI_align_needed
	.eabi_attribute	25, 1	@ Tag_ABI_align_preserved
	.eabi_attribute	28, 1	@ Tag_ABI_VFP_args
	.eabi_attribute	38, 1	@ Tag_ABI_FP_16bit_format
	.eabi_attribute	18, 2	@ Tag_ABI_PCS_wchar_t
	.eabi_attribute	26, 1	@ Tag_ABI_enum_size
	.eabi_attribute	14, 0	@ Tag_ABI_PCS_R9_use
	.file	"sdio.c"
	.file	1 "E:\\Smart-access-control\\Hardware\\CODE" "rt-thread/include\\rtdef.h"
	.file	2 "E:\\Smart-access-control\\Hardware\\CODE" "rt-thread/components/drivers/sdio/sdio.c"
	.file	3 "E:\\Smart-access-control\\Hardware\\CODE" "rt-thread/components/drivers/include\\drivers/sdio.h"
	.file	4 "E:\\Smart-access-control\\Hardware\\CODE" "rt-thread/components/drivers/include\\drivers/mmcsd_host.h"
	.file	5 "E:\\Smart-access-control\\Hardware\\CODE" "rt-thread/components/drivers/include\\drivers/mmcsd_core.h"
	.file	6 "E:\\Smart-access-control\\Hardware\\CODE" "rt-thread/components/drivers/include\\drivers/mmcsd_card.h"
	.section	.text.sdio_io_send_op_cond,"ax",%progbits
	.hidden	sdio_io_send_op_cond            @ -- Begin function sdio_io_send_op_cond
	.globl	sdio_io_send_op_cond
	.p2align	3
	.type	sdio_io_send_op_cond,%function
	.code	16                              @ @sdio_io_send_op_cond
	.thumb_func
sdio_io_send_op_cond:
.Lfunc_begin0:
	.loc	2 64 0                          @ rt-thread/components/drivers/sdio/sdio.c:64:0
	.fnstart
	.cfi_sections .debug_frame
	.cfi_startproc
@ %bb.0:
	.save	{r7, lr}
	push	{r7, lr}
	.cfi_def_cfa_offset 8
	.cfi_offset lr, -4
	.cfi_offset r7, -8
	.pad	#64
	sub	sp, #64
	.cfi_def_cfa_offset 72
	str	r0, [sp, #60]
	str	r1, [sp, #56]
	str	r2, [sp, #52]
	movs	r0, #0
.Ltmp0:
	.loc	2 66 19 prologue_end            @ rt-thread/components/drivers/sdio/sdio.c:66:19
	str	r0, [sp]
.Ltmp1:
	.loc	2 68 5                          @ rt-thread/components/drivers/sdio/sdio.c:68:5
	ldr	r0, [sp, #60]
.Ltmp2:
	.loc	2 68 5 is_stmt 0                @ rt-thread/components/drivers/sdio/sdio.c:68:5
	cbnz	r0, .LBB0_2
	b	.LBB0_1
.LBB0_1:
.Ltmp3:
	.loc	2 68 5                          @ rt-thread/components/drivers/sdio/sdio.c:68:5
	movw	r0, :lower16:.L.str
	movt	r0, :upper16:.L.str
	movw	r1, :lower16:.L__FUNCTION__.sdio_io_send_op_cond
	movt	r1, :upper16:.L__FUNCTION__.sdio_io_send_op_cond
	movs	r2, #68
	bl	rt_assert_handler
	b	.LBB0_2
.Ltmp4:
.LBB0_2:
	.loc	2 0 5                           @ rt-thread/components/drivers/sdio/sdio.c:0:5
	add	r0, sp, #8
	movs	r1, #0
	movs	r2, #44
	.loc	2 70 5 is_stmt 1                @ rt-thread/components/drivers/sdio/sdio.c:70:5
	bl	rt_memset
	movs	r0, #5
	.loc	2 72 18                         @ rt-thread/components/drivers/sdio/sdio.c:72:18
	str	r0, [sp, #8]
	.loc	2 73 15                         @ rt-thread/components/drivers/sdio/sdio.c:73:15
	ldr	r0, [sp, #56]
	.loc	2 73 13 is_stmt 0               @ rt-thread/components/drivers/sdio/sdio.c:73:13
	str	r0, [sp, #12]
	movw	r0, #373
	.loc	2 74 15 is_stmt 1               @ rt-thread/components/drivers/sdio/sdio.c:74:15
	str	r0, [sp, #32]
	movs	r0, #100
.Ltmp5:
	.loc	2 76 12                         @ rt-thread/components/drivers/sdio/sdio.c:76:12
	str	r0, [sp, #4]
	.loc	2 76 10 is_stmt 0               @ rt-thread/components/drivers/sdio/sdio.c:76:10
	b	.LBB0_3
.LBB0_3:                                @ =>This Inner Loop Header: Depth=1
.Ltmp6:
	.loc	2 76 19                         @ rt-thread/components/drivers/sdio/sdio.c:76:19
	ldr	r0, [sp, #4]
.Ltmp7:
	.loc	2 76 5                          @ rt-thread/components/drivers/sdio/sdio.c:76:5
	cbz	r0, .LBB0_17
	b	.LBB0_4
.LBB0_4:                                @   in Loop: Header=BB0_3 Depth=1
.Ltmp8:
	.loc	2 78 30 is_stmt 1               @ rt-thread/components/drivers/sdio/sdio.c:78:30
	ldr	r0, [sp, #60]
	add	r1, sp, #8
	movs	r2, #0
	.loc	2 78 15 is_stmt 0               @ rt-thread/components/drivers/sdio/sdio.c:78:15
	bl	mmcsd_send_cmd
	.loc	2 78 13                         @ rt-thread/components/drivers/sdio/sdio.c:78:13
	str	r0, [sp]
.Ltmp9:
	.loc	2 79 13 is_stmt 1               @ rt-thread/components/drivers/sdio/sdio.c:79:13
	ldr	r0, [sp]
.Ltmp10:
	.loc	2 79 13 is_stmt 0               @ rt-thread/components/drivers/sdio/sdio.c:79:13
	cbz	r0, .LBB0_6
	b	.LBB0_5
.LBB0_5:
.Ltmp11:
	.loc	2 80 13 is_stmt 1               @ rt-thread/components/drivers/sdio/sdio.c:80:13
	b	.LBB0_17
.Ltmp12:
.LBB0_6:                                @   in Loop: Header=BB0_3 Depth=1
	.loc	2 83 13                         @ rt-thread/components/drivers/sdio/sdio.c:83:13
	ldr	r0, [sp, #56]
.Ltmp13:
	.loc	2 83 13 is_stmt 0               @ rt-thread/components/drivers/sdio/sdio.c:83:13
	cbnz	r0, .LBB0_8
	b	.LBB0_7
.LBB0_7:
.Ltmp14:
	.loc	2 84 13 is_stmt 1               @ rt-thread/components/drivers/sdio/sdio.c:84:13
	b	.LBB0_17
.Ltmp15:
.LBB0_8:                                @   in Loop: Header=BB0_3 Depth=1
	.loc	2 87 13                         @ rt-thread/components/drivers/sdio/sdio.c:87:13
	ldr	r0, [sp, #60]
.Ltmp16:
	.loc	2 87 13 is_stmt 0               @ rt-thread/components/drivers/sdio/sdio.c:87:13
	ldrb.w	r0, [r0, #32]
	lsls	r0, r0, #28
	cmp	r0, #0
	bpl	.LBB0_12
	b	.LBB0_9
.LBB0_9:                                @   in Loop: Header=BB0_3 Depth=1
.Ltmp17:
	.loc	2 95 17 is_stmt 1               @ rt-thread/components/drivers/sdio/sdio.c:95:17
	ldrb.w	r0, [sp, #23]
	lsls	r0, r0, #24
	cmp	r0, #0
	bpl	.LBB0_11
	b	.LBB0_10
.LBB0_10:
.Ltmp18:
	.loc	2 96 17                         @ rt-thread/components/drivers/sdio/sdio.c:96:17
	b	.LBB0_17
.Ltmp19:
.LBB0_11:                               @   in Loop: Header=BB0_3 Depth=1
	.loc	2 97 9                          @ rt-thread/components/drivers/sdio/sdio.c:97:9
	b	.LBB0_15
.Ltmp20:
.LBB0_12:                               @   in Loop: Header=BB0_3 Depth=1
	.loc	2 100 17                        @ rt-thread/components/drivers/sdio/sdio.c:100:17
	ldrb.w	r0, [sp, #19]
	lsls	r0, r0, #24
	cmp	r0, #0
	bpl	.LBB0_14
	b	.LBB0_13
.LBB0_13:
.Ltmp21:
	.loc	2 101 17                        @ rt-thread/components/drivers/sdio/sdio.c:101:17
	b	.LBB0_17
.Ltmp22:
.LBB0_14:                               @   in Loop: Header=BB0_3 Depth=1
	.loc	2 0 17 is_stmt 0                @ rt-thread/components/drivers/sdio/sdio.c:0:17
	b	.LBB0_15
.LBB0_15:                               @   in Loop: Header=BB0_3 Depth=1
	mvn	r0, #1
	.loc	2 104 13 is_stmt 1              @ rt-thread/components/drivers/sdio/sdio.c:104:13
	str	r0, [sp]
	movs	r0, #10
	.loc	2 106 9                         @ rt-thread/components/drivers/sdio/sdio.c:106:9
	bl	mmcsd_delay_ms
	.loc	2 107 5                         @ rt-thread/components/drivers/sdio/sdio.c:107:5
	b	.LBB0_16
.Ltmp23:
.LBB0_16:                               @   in Loop: Header=BB0_3 Depth=1
	.loc	2 76 23                         @ rt-thread/components/drivers/sdio/sdio.c:76:23
	ldr	r0, [sp, #4]
	subs	r0, #1
	str	r0, [sp, #4]
	.loc	2 76 5 is_stmt 0                @ rt-thread/components/drivers/sdio/sdio.c:76:5
	b	.LBB0_3
.Ltmp24:
.LBB0_17:
	.loc	2 109 9 is_stmt 1               @ rt-thread/components/drivers/sdio/sdio.c:109:9
	ldr	r0, [sp, #52]
.Ltmp25:
	.loc	2 109 9 is_stmt 0               @ rt-thread/components/drivers/sdio/sdio.c:109:9
	cbz	r0, .LBB0_19
	b	.LBB0_18
.LBB0_18:
	.loc	2 0 9                           @ rt-thread/components/drivers/sdio/sdio.c:0:9
	add	r0, sp, #8
.Ltmp26:
	.loc	2 110 26 is_stmt 1              @ rt-thread/components/drivers/sdio/sdio.c:110:26
	adds	r1, r0, #4
	.loc	2 110 31 is_stmt 0              @ rt-thread/components/drivers/sdio/sdio.c:110:31
	ldr	r2, [sp, #60]
	ldr	r2, [r2, #32]
	.loc	2 110 26                        @ rt-thread/components/drivers/sdio/sdio.c:110:26
	lsls	r2, r2, #28
	cmp	r2, #0
	it	mi
	movmi	r0, r1
	.loc	2 110 22                        @ rt-thread/components/drivers/sdio/sdio.c:110:22
	ldr	r0, [r0, #8]
	.loc	2 110 10                        @ rt-thread/components/drivers/sdio/sdio.c:110:10
	ldr	r1, [sp, #52]
	.loc	2 110 20                        @ rt-thread/components/drivers/sdio/sdio.c:110:20
	str	r0, [r1]
	.loc	2 110 9                         @ rt-thread/components/drivers/sdio/sdio.c:110:9
	b	.LBB0_19
.Ltmp27:
.LBB0_19:
	.loc	2 112 12 is_stmt 1              @ rt-thread/components/drivers/sdio/sdio.c:112:12
	ldr	r0, [sp]
	.loc	2 112 5 is_stmt 0               @ rt-thread/components/drivers/sdio/sdio.c:112:5
	add	sp, #64
	pop	{r7, pc}
.Ltmp28:
.Lfunc_end0:
	.size	sdio_io_send_op_cond, .Lfunc_end0-sdio_io_send_op_cond
	.cfi_endproc
	.cantunwind
	.fnend
                                        @ -- End function
	.section	.text.mmcsd_delay_ms,"ax",%progbits
	.p2align	3                               @ -- Begin function mmcsd_delay_ms
	.type	mmcsd_delay_ms,%function
	.code	16                              @ @mmcsd_delay_ms
	.thumb_func
mmcsd_delay_ms:
.Lfunc_begin1:
	.loc	4 111 0 is_stmt 1               @ rt-thread/components/drivers/include\drivers/mmcsd_host.h:111:0
	.fnstart
	.cfi_startproc
@ %bb.0:
	.save	{r7, lr}
	push	{r7, lr}
	.cfi_def_cfa_offset 8
	.cfi_offset lr, -4
	.cfi_offset r7, -8
	.pad	#8
	sub	sp, #8
	.cfi_def_cfa_offset 16
	str	r0, [sp, #4]
.Ltmp29:
	.loc	4 112 6 prologue_end            @ rt-thread/components/drivers/include\drivers/mmcsd_host.h:112:6
	ldr	r0, [sp, #4]
.Ltmp30:
	.loc	4 112 6 is_stmt 0               @ rt-thread/components/drivers/include\drivers/mmcsd_host.h:112:6
	cbnz	r0, .LBB1_2
	b	.LBB1_1
.LBB1_1:
	.loc	4 0 6                           @ rt-thread/components/drivers/include\drivers/mmcsd_host.h:0:6
	movs	r0, #1
.Ltmp31:
	.loc	4 114 3 is_stmt 1               @ rt-thread/components/drivers/include\drivers/mmcsd_host.h:114:3
	bl	rt_thread_delay
	.loc	4 115 2                         @ rt-thread/components/drivers/include\drivers/mmcsd_host.h:115:2
	b	.LBB1_3
.Ltmp32:
.LBB1_2:
	.loc	4 118 19                        @ rt-thread/components/drivers/include\drivers/mmcsd_host.h:118:19
	ldr	r0, [sp, #4]
	.loc	4 118 3 is_stmt 0               @ rt-thread/components/drivers/include\drivers/mmcsd_host.h:118:3
	bl	rt_thread_delay
	b	.LBB1_3
.Ltmp33:
.LBB1_3:
	.loc	4 120 1 is_stmt 1               @ rt-thread/components/drivers/include\drivers/mmcsd_host.h:120:1
	add	sp, #8
	pop	{r7, pc}
.Ltmp34:
.Lfunc_end1:
	.size	mmcsd_delay_ms, .Lfunc_end1-mmcsd_delay_ms
	.cfi_endproc
	.cantunwind
	.fnend
                                        @ -- End function
	.section	.text.sdio_io_rw_direct,"ax",%progbits
	.hidden	sdio_io_rw_direct               @ -- Begin function sdio_io_rw_direct
	.globl	sdio_io_rw_direct
	.p2align	3
	.type	sdio_io_rw_direct,%function
	.code	16                              @ @sdio_io_rw_direct
	.thumb_func
sdio_io_rw_direct:
.Lfunc_begin2:
	.loc	2 121 0                         @ rt-thread/components/drivers/sdio/sdio.c:121:0
	.fnstart
	.cfi_startproc
@ %bb.0:
	.save	{r7, lr}
	push	{r7, lr}
	.cfi_def_cfa_offset 8
	.cfi_offset lr, -4
	.cfi_offset r7, -8
	.pad	#80
	sub	sp, #80
	.cfi_def_cfa_offset 88
	mov	r12, r0
	ldr	r0, [sp, #92]
	ldr.w	lr, [sp, #88]
	str.w	r12, [sp, #72]
	str	r1, [sp, #68]
	str	r2, [sp, #64]
	str	r3, [sp, #60]
	strb.w	r0, [sp, #59]
.Ltmp35:
	.loc	2 125 5 prologue_end            @ rt-thread/components/drivers/sdio/sdio.c:125:5
	ldr	r0, [sp, #72]
.Ltmp36:
	.loc	2 125 5 is_stmt 0               @ rt-thread/components/drivers/sdio/sdio.c:125:5
	cbnz	r0, .LBB2_2
	b	.LBB2_1
.LBB2_1:
.Ltmp37:
	.loc	2 125 5                         @ rt-thread/components/drivers/sdio/sdio.c:125:5
	movw	r0, :lower16:.L.str.1
	movt	r0, :upper16:.L.str.1
	movw	r1, :lower16:.L__FUNCTION__.sdio_io_rw_direct
	movt	r1, :upper16:.L__FUNCTION__.sdio_io_rw_direct
	movs	r2, #125
	bl	rt_assert_handler
	b	.LBB2_2
.Ltmp38:
.LBB2_2:
	.loc	2 126 5 is_stmt 1               @ rt-thread/components/drivers/sdio/sdio.c:126:5
	ldr	r0, [sp, #64]
.Ltmp39:
	.loc	2 126 5 is_stmt 0               @ rt-thread/components/drivers/sdio/sdio.c:126:5
	cmp	r0, #8
	blo	.LBB2_4
	b	.LBB2_3
.LBB2_3:
.Ltmp40:
	.loc	2 126 5                         @ rt-thread/components/drivers/sdio/sdio.c:126:5
	movw	r0, :lower16:.L.str.2
	movt	r0, :upper16:.L.str.2
	movw	r1, :lower16:.L__FUNCTION__.sdio_io_rw_direct
	movt	r1, :upper16:.L__FUNCTION__.sdio_io_rw_direct
	movs	r2, #126
	bl	rt_assert_handler
	b	.LBB2_4
.Ltmp41:
.LBB2_4:
	.loc	2 127 5 is_stmt 1               @ rt-thread/components/drivers/sdio/sdio.c:127:5
	ldr	r0, [sp, #88]
.Ltmp42:
	.loc	2 127 5 is_stmt 0               @ rt-thread/components/drivers/sdio/sdio.c:127:5
	cbnz	r0, .LBB2_6
	b	.LBB2_5
.LBB2_5:
.Ltmp43:
	.loc	2 127 5                         @ rt-thread/components/drivers/sdio/sdio.c:127:5
	movw	r0, :lower16:.L.str.3
	movt	r0, :upper16:.L.str.3
	movw	r1, :lower16:.L__FUNCTION__.sdio_io_rw_direct
	movt	r1, :upper16:.L__FUNCTION__.sdio_io_rw_direct
	movs	r2, #127
	bl	rt_assert_handler
	b	.LBB2_6
.Ltmp44:
.LBB2_6:
	.loc	2 129 9 is_stmt 1               @ rt-thread/components/drivers/sdio/sdio.c:129:9
	ldrh.w	r0, [sp, #62]
	lsrs	r0, r0, #1
	cbz	r0, .LBB2_8
	b	.LBB2_7
.LBB2_7:
	.loc	2 0 9 is_stmt 0                 @ rt-thread/components/drivers/sdio/sdio.c:0:9
	mov.w	r0, #-1
.Ltmp45:
	.loc	2 130 9 is_stmt 1               @ rt-thread/components/drivers/sdio/sdio.c:130:9
	str	r0, [sp, #76]
	b	.LBB2_25
.Ltmp46:
.LBB2_8:
	.loc	2 0 9 is_stmt 0                 @ rt-thread/components/drivers/sdio/sdio.c:0:9
	add	r0, sp, #12
	str	r0, [sp]                        @ 4-byte Spill
	movs	r1, #0
	str	r1, [sp, #4]                    @ 4-byte Spill
	movs	r2, #44
	.loc	2 132 5 is_stmt 1               @ rt-thread/components/drivers/sdio/sdio.c:132:5
	bl	rt_memset
	ldr	r1, [sp]                        @ 4-byte Reload
	ldr	r2, [sp, #4]                    @ 4-byte Reload
	movs	r0, #52
	.loc	2 134 18                        @ rt-thread/components/drivers/sdio/sdio.c:134:18
	str	r0, [sp, #12]
	.loc	2 135 15                        @ rt-thread/components/drivers/sdio/sdio.c:135:15
	ldr	r0, [sp, #68]
	cmp	r0, #0
	it	ne
	movne	r0, #1
	lsls	r0, r0, #31
	.loc	2 135 13 is_stmt 0              @ rt-thread/components/drivers/sdio/sdio.c:135:13
	str	r0, [sp, #16]
	.loc	2 136 16 is_stmt 1              @ rt-thread/components/drivers/sdio/sdio.c:136:16
	ldr	r3, [sp, #64]
	.loc	2 136 13 is_stmt 0              @ rt-thread/components/drivers/sdio/sdio.c:136:13
	ldr	r0, [sp, #16]
	orr.w	r0, r0, r3, lsl #28
	str	r0, [sp, #16]
	.loc	2 137 16 is_stmt 1              @ rt-thread/components/drivers/sdio/sdio.c:137:16
	ldrb.w	r12, [sp, #59]
	.loc	2 137 13 is_stmt 0              @ rt-thread/components/drivers/sdio/sdio.c:137:13
	ldr	r0, [sp, #16]
	orr	r3, r0, #134217728
	cmp.w	r12, #0
	it	ne
	movne	r0, r3
	str	r0, [sp, #16]
	.loc	2 138 16 is_stmt 1              @ rt-thread/components/drivers/sdio/sdio.c:138:16
	ldr	r3, [sp, #60]
	.loc	2 138 13 is_stmt 0              @ rt-thread/components/drivers/sdio/sdio.c:138:13
	ldr	r0, [sp, #16]
	orr.w	r0, r0, r3, lsl #9
	str	r0, [sp, #16]
	.loc	2 139 17 is_stmt 1              @ rt-thread/components/drivers/sdio/sdio.c:139:17
	ldr	r0, [sp, #88]
	.loc	2 139 16 is_stmt 0              @ rt-thread/components/drivers/sdio/sdio.c:139:16
	ldrb	r3, [r0]
	.loc	2 139 13                        @ rt-thread/components/drivers/sdio/sdio.c:139:13
	ldr	r0, [sp, #16]
	orrs	r0, r3
	str	r0, [sp, #16]
	mov.w	r0, #392
	.loc	2 140 15 is_stmt 1              @ rt-thread/components/drivers/sdio/sdio.c:140:15
	str	r0, [sp, #36]
	.loc	2 142 26                        @ rt-thread/components/drivers/sdio/sdio.c:142:26
	ldr	r0, [sp, #72]
	.loc	2 142 32 is_stmt 0              @ rt-thread/components/drivers/sdio/sdio.c:142:32
	ldr	r0, [r0]
	.loc	2 142 11                        @ rt-thread/components/drivers/sdio/sdio.c:142:11
	bl	mmcsd_send_cmd
	.loc	2 142 9                         @ rt-thread/components/drivers/sdio/sdio.c:142:9
	str	r0, [sp, #8]
.Ltmp47:
	.loc	2 143 9 is_stmt 1               @ rt-thread/components/drivers/sdio/sdio.c:143:9
	ldr	r0, [sp, #8]
.Ltmp48:
	.loc	2 143 9 is_stmt 0               @ rt-thread/components/drivers/sdio/sdio.c:143:9
	cbz	r0, .LBB2_10
	b	.LBB2_9
.LBB2_9:
.Ltmp49:
	.loc	2 144 16 is_stmt 1              @ rt-thread/components/drivers/sdio/sdio.c:144:16
	ldr	r0, [sp, #8]
	.loc	2 144 9 is_stmt 0               @ rt-thread/components/drivers/sdio/sdio.c:144:9
	str	r0, [sp, #76]
	b	.LBB2_25
.Ltmp50:
.LBB2_10:
	.loc	2 146 10 is_stmt 1              @ rt-thread/components/drivers/sdio/sdio.c:146:10
	ldr	r0, [sp, #72]
	ldr	r0, [r0]
.Ltmp51:
	.loc	2 146 9 is_stmt 0               @ rt-thread/components/drivers/sdio/sdio.c:146:9
	ldrb.w	r0, [r0, #32]
	lsls	r0, r0, #28
	cmp	r0, #0
	bmi	.LBB2_18
	b	.LBB2_11
.LBB2_11:
.Ltmp52:
	.loc	2 148 13 is_stmt 1              @ rt-thread/components/drivers/sdio/sdio.c:148:13
	ldrb.w	r0, [sp, #21]
	lsls	r0, r0, #28
	cmp	r0, #0
	bpl	.LBB2_13
	b	.LBB2_12
.LBB2_12:
	.loc	2 0 13 is_stmt 0                @ rt-thread/components/drivers/sdio/sdio.c:0:13
	mvn	r0, #7
.Ltmp53:
	.loc	2 149 13 is_stmt 1              @ rt-thread/components/drivers/sdio/sdio.c:149:13
	str	r0, [sp, #76]
	b	.LBB2_25
.Ltmp54:
.LBB2_13:
	.loc	2 150 13                        @ rt-thread/components/drivers/sdio/sdio.c:150:13
	ldrb.w	r0, [sp, #21]
	lsls	r0, r0, #30
	cmp	r0, #0
	bpl	.LBB2_15
	b	.LBB2_14
.LBB2_14:
	.loc	2 0 13 is_stmt 0                @ rt-thread/components/drivers/sdio/sdio.c:0:13
	mov.w	r0, #-1
.Ltmp55:
	.loc	2 151 13 is_stmt 1              @ rt-thread/components/drivers/sdio/sdio.c:151:13
	str	r0, [sp, #76]
	b	.LBB2_25
.Ltmp56:
.LBB2_15:
	.loc	2 152 13                        @ rt-thread/components/drivers/sdio/sdio.c:152:13
	ldrb.w	r0, [sp, #21]
	lsls	r0, r0, #31
	cbz	r0, .LBB2_17
	b	.LBB2_16
.LBB2_16:
	.loc	2 0 13 is_stmt 0                @ rt-thread/components/drivers/sdio/sdio.c:0:13
	mov.w	r0, #-1
.Ltmp57:
	.loc	2 153 13 is_stmt 1              @ rt-thread/components/drivers/sdio/sdio.c:153:13
	str	r0, [sp, #76]
	b	.LBB2_25
.Ltmp58:
.LBB2_17:
	.loc	2 154 5                         @ rt-thread/components/drivers/sdio/sdio.c:154:5
	b	.LBB2_18
.Ltmp59:
.LBB2_18:
	.loc	2 156 10                        @ rt-thread/components/drivers/sdio/sdio.c:156:10
	ldr	r0, [sp, #68]
	.loc	2 156 13 is_stmt 0              @ rt-thread/components/drivers/sdio/sdio.c:156:13
	cbz	r0, .LBB2_20
	b	.LBB2_19
.LBB2_19:
	.loc	2 156 16                        @ rt-thread/components/drivers/sdio/sdio.c:156:16
	ldrb.w	r0, [sp, #59]
.Ltmp60:
	.loc	2 156 9                         @ rt-thread/components/drivers/sdio/sdio.c:156:9
	cbz	r0, .LBB2_24
	b	.LBB2_20
.LBB2_20:
.Ltmp61:
	.loc	2 158 13 is_stmt 1              @ rt-thread/components/drivers/sdio/sdio.c:158:13
	ldr	r0, [sp, #72]
	ldr	r0, [r0]
.Ltmp62:
	.loc	2 158 13 is_stmt 0              @ rt-thread/components/drivers/sdio/sdio.c:158:13
	ldrb.w	r0, [r0, #32]
	lsls	r0, r0, #28
	cmp	r0, #0
	bpl	.LBB2_22
	b	.LBB2_21
.LBB2_21:
.Ltmp63:
	.loc	2 159 23 is_stmt 1              @ rt-thread/components/drivers/sdio/sdio.c:159:23
	ldr	r0, [sp, #20]
	.loc	2 159 35 is_stmt 0              @ rt-thread/components/drivers/sdio/sdio.c:159:35
	lsrs	r0, r0, #8
	.loc	2 159 14                        @ rt-thread/components/drivers/sdio/sdio.c:159:14
	ldr	r1, [sp, #88]
	.loc	2 159 20                        @ rt-thread/components/drivers/sdio/sdio.c:159:20
	strb	r0, [r1]
	.loc	2 159 13                        @ rt-thread/components/drivers/sdio/sdio.c:159:13
	b	.LBB2_23
.LBB2_22:
	.loc	2 161 22 is_stmt 1              @ rt-thread/components/drivers/sdio/sdio.c:161:22
	ldr	r0, [sp, #20]
	.loc	2 161 14 is_stmt 0              @ rt-thread/components/drivers/sdio/sdio.c:161:14
	ldr	r1, [sp, #88]
	.loc	2 161 20                        @ rt-thread/components/drivers/sdio/sdio.c:161:20
	strb	r0, [r1]
	b	.LBB2_23
.Ltmp64:
.LBB2_23:
	.loc	2 162 5 is_stmt 1               @ rt-thread/components/drivers/sdio/sdio.c:162:5
	b	.LBB2_24
.Ltmp65:
.LBB2_24:
	.loc	2 0 5 is_stmt 0                 @ rt-thread/components/drivers/sdio/sdio.c:0:5
	movs	r0, #0
	.loc	2 164 5 is_stmt 1               @ rt-thread/components/drivers/sdio/sdio.c:164:5
	str	r0, [sp, #76]
	b	.LBB2_25
.LBB2_25:
	.loc	2 165 1                         @ rt-thread/components/drivers/sdio/sdio.c:165:1
	ldr	r0, [sp, #76]
	add	sp, #80
	pop	{r7, pc}
.Ltmp66:
.Lfunc_end2:
	.size	sdio_io_rw_direct, .Lfunc_end2-sdio_io_rw_direct
	.cfi_endproc
	.cantunwind
	.fnend
                                        @ -- End function
	.section	.text.sdio_io_rw_extended,"ax",%progbits
	.hidden	sdio_io_rw_extended             @ -- Begin function sdio_io_rw_extended
	.globl	sdio_io_rw_extended
	.p2align	3
	.type	sdio_io_rw_extended,%function
	.code	16                              @ @sdio_io_rw_extended
	.thumb_func
sdio_io_rw_extended:
.Lfunc_begin3:
	.loc	2 175 0                         @ rt-thread/components/drivers/sdio/sdio.c:175:0
	.fnstart
	.cfi_startproc
@ %bb.0:
	.save	{r7, lr}
	push	{r7, lr}
	.cfi_def_cfa_offset 8
	.cfi_offset lr, -4
	.cfi_offset r7, -8
	.pad	#136
	sub	sp, #136
	.cfi_def_cfa_offset 144
	ldr.w	r12, [sp, #156]
	ldr.w	r12, [sp, #152]
	ldr.w	r12, [sp, #148]
	ldr.w	r12, [sp, #144]
	str	r0, [sp, #128]
	str	r1, [sp, #124]
	str	r2, [sp, #120]
	str	r3, [sp, #116]
.Ltmp67:
	.loc	2 180 5 prologue_end            @ rt-thread/components/drivers/sdio/sdio.c:180:5
	ldr	r0, [sp, #128]
.Ltmp68:
	.loc	2 180 5 is_stmt 0               @ rt-thread/components/drivers/sdio/sdio.c:180:5
	cbnz	r0, .LBB3_2
	b	.LBB3_1
.LBB3_1:
.Ltmp69:
	.loc	2 180 5                         @ rt-thread/components/drivers/sdio/sdio.c:180:5
	movw	r0, :lower16:.L.str.1
	movt	r0, :upper16:.L.str.1
	movw	r1, :lower16:.L__FUNCTION__.sdio_io_rw_extended
	movt	r1, :upper16:.L__FUNCTION__.sdio_io_rw_extended
	movs	r2, #180
	bl	rt_assert_handler
	b	.LBB3_2
.Ltmp70:
.LBB3_2:
	.loc	2 181 5 is_stmt 1               @ rt-thread/components/drivers/sdio/sdio.c:181:5
	ldr	r0, [sp, #120]
.Ltmp71:
	.loc	2 181 5 is_stmt 0               @ rt-thread/components/drivers/sdio/sdio.c:181:5
	cmp	r0, #8
	blo	.LBB3_4
	b	.LBB3_3
.LBB3_3:
.Ltmp72:
	.loc	2 181 5                         @ rt-thread/components/drivers/sdio/sdio.c:181:5
	movw	r0, :lower16:.L.str.2
	movt	r0, :upper16:.L.str.2
	movw	r1, :lower16:.L__FUNCTION__.sdio_io_rw_extended
	movt	r1, :upper16:.L__FUNCTION__.sdio_io_rw_extended
	movs	r2, #181
	bl	rt_assert_handler
	b	.LBB3_4
.Ltmp73:
.LBB3_4:
	.loc	2 182 5 is_stmt 1               @ rt-thread/components/drivers/sdio/sdio.c:182:5
	ldr	r0, [sp, #152]
	cmp	r0, #1
	bne	.LBB3_7
	b	.LBB3_5
.LBB3_5:
	ldr	r0, [sp, #156]
.Ltmp74:
	.loc	2 182 5 is_stmt 0               @ rt-thread/components/drivers/sdio/sdio.c:182:5
	cmp.w	r0, #512
	bls	.LBB3_7
	b	.LBB3_6
.LBB3_6:
.Ltmp75:
	.loc	2 182 5                         @ rt-thread/components/drivers/sdio/sdio.c:182:5
	movw	r0, :lower16:.L.str.4
	movt	r0, :upper16:.L.str.4
	movw	r1, :lower16:.L__FUNCTION__.sdio_io_rw_extended
	movt	r1, :upper16:.L__FUNCTION__.sdio_io_rw_extended
	movs	r2, #182
	bl	rt_assert_handler
	b	.LBB3_7
.Ltmp76:
.LBB3_7:
	.loc	2 183 5 is_stmt 1               @ rt-thread/components/drivers/sdio/sdio.c:183:5
	ldr	r0, [sp, #152]
.Ltmp77:
	.loc	2 183 5 is_stmt 0               @ rt-thread/components/drivers/sdio/sdio.c:183:5
	cbnz	r0, .LBB3_9
	b	.LBB3_8
.LBB3_8:
.Ltmp78:
	.loc	2 183 5                         @ rt-thread/components/drivers/sdio/sdio.c:183:5
	movw	r0, :lower16:.L.str.5
	movt	r0, :upper16:.L.str.5
	movw	r1, :lower16:.L__FUNCTION__.sdio_io_rw_extended
	movt	r1, :upper16:.L__FUNCTION__.sdio_io_rw_extended
	movs	r2, #183
	bl	rt_assert_handler
	b	.LBB3_9
.Ltmp79:
.LBB3_9:
	.loc	2 184 5 is_stmt 1               @ rt-thread/components/drivers/sdio/sdio.c:184:5
	ldr	r0, [sp, #156]
.Ltmp80:
	.loc	2 184 5 is_stmt 0               @ rt-thread/components/drivers/sdio/sdio.c:184:5
	cbnz	r0, .LBB3_11
	b	.LBB3_10
.LBB3_10:
.Ltmp81:
	.loc	2 184 5                         @ rt-thread/components/drivers/sdio/sdio.c:184:5
	movw	r0, :lower16:.L.str.6
	movt	r0, :upper16:.L.str.6
	movw	r1, :lower16:.L__FUNCTION__.sdio_io_rw_extended
	movt	r1, :upper16:.L__FUNCTION__.sdio_io_rw_extended
	movs	r2, #184
	bl	rt_assert_handler
	b	.LBB3_11
.Ltmp82:
.LBB3_11:
	.loc	2 186 9 is_stmt 1               @ rt-thread/components/drivers/sdio/sdio.c:186:9
	ldrh.w	r0, [sp, #118]
	lsrs	r0, r0, #1
	cbz	r0, .LBB3_13
	b	.LBB3_12
.LBB3_12:
	.loc	2 0 9 is_stmt 0                 @ rt-thread/components/drivers/sdio/sdio.c:0:9
	mov.w	r0, #-1
.Ltmp83:
	.loc	2 187 9 is_stmt 1               @ rt-thread/components/drivers/sdio/sdio.c:187:9
	str	r0, [sp, #132]
	b	.LBB3_33
.Ltmp84:
.LBB3_13:
	.loc	2 0 9 is_stmt 0                 @ rt-thread/components/drivers/sdio/sdio.c:0:9
	add	r0, sp, #104
	movs	r1, #0
	str	r1, [sp, #8]                    @ 4-byte Spill
	movs	r2, #12
	.loc	2 189 5 is_stmt 1               @ rt-thread/components/drivers/sdio/sdio.c:189:5
	bl	rt_memset
	ldr	r1, [sp, #8]                    @ 4-byte Reload
	add	r0, sp, #60
	str	r0, [sp, #12]                   @ 4-byte Spill
	movs	r2, #44
	.loc	2 190 5                         @ rt-thread/components/drivers/sdio/sdio.c:190:5
	bl	rt_memset
	ldr	r1, [sp, #8]                    @ 4-byte Reload
	add	r0, sp, #20
	str	r0, [sp, #16]                   @ 4-byte Spill
	movs	r2, #40
	.loc	2 191 5                         @ rt-thread/components/drivers/sdio/sdio.c:191:5
	bl	rt_memset
	ldr	r1, [sp, #12]                   @ 4-byte Reload
                                        @ kill: def $r2 killed $r0
	.loc	2 193 13                        @ rt-thread/components/drivers/sdio/sdio.c:193:13
	ldr	r0, [sp, #16]                   @ 4-byte Reload
	str	r1, [sp, #108]
	.loc	2 194 14                        @ rt-thread/components/drivers/sdio/sdio.c:194:14
	str	r0, [sp, #104]
	movs	r0, #53
	.loc	2 196 18                        @ rt-thread/components/drivers/sdio/sdio.c:196:18
	str	r0, [sp, #60]
	.loc	2 197 15                        @ rt-thread/components/drivers/sdio/sdio.c:197:15
	ldr	r0, [sp, #124]
	cmp	r0, #0
	it	ne
	movne	r0, #1
	lsls	r0, r0, #31
	.loc	2 197 13 is_stmt 0              @ rt-thread/components/drivers/sdio/sdio.c:197:13
	str	r0, [sp, #64]
	.loc	2 198 16 is_stmt 1              @ rt-thread/components/drivers/sdio/sdio.c:198:16
	ldr	r1, [sp, #120]
	.loc	2 198 13 is_stmt 0              @ rt-thread/components/drivers/sdio/sdio.c:198:13
	ldr	r0, [sp, #64]
	orr.w	r0, r0, r1, lsl #28
	str	r0, [sp, #64]
	.loc	2 199 16 is_stmt 1              @ rt-thread/components/drivers/sdio/sdio.c:199:16
	ldr	r2, [sp, #144]
	.loc	2 199 13 is_stmt 0              @ rt-thread/components/drivers/sdio/sdio.c:199:13
	ldr	r0, [sp, #64]
	orr	r1, r0, #67108864
	cmp	r2, #0
	it	ne
	movne	r0, r1
	str	r0, [sp, #64]
	.loc	2 200 16 is_stmt 1              @ rt-thread/components/drivers/sdio/sdio.c:200:16
	ldr	r1, [sp, #116]
	.loc	2 200 13 is_stmt 0              @ rt-thread/components/drivers/sdio/sdio.c:200:13
	ldr	r0, [sp, #64]
	orr.w	r0, r0, r1, lsl #9
	str	r0, [sp, #64]
.Ltmp85:
	.loc	2 201 9 is_stmt 1               @ rt-thread/components/drivers/sdio/sdio.c:201:9
	ldr	r0, [sp, #152]
	.loc	2 201 21 is_stmt 0              @ rt-thread/components/drivers/sdio/sdio.c:201:21
	cmp	r0, #1
	bne	.LBB3_19
	b	.LBB3_14
.LBB3_14:
	.loc	2 201 24                        @ rt-thread/components/drivers/sdio/sdio.c:201:24
	ldr	r0, [sp, #156]
.Ltmp86:
	.loc	2 201 9                         @ rt-thread/components/drivers/sdio/sdio.c:201:9
	cmp.w	r0, #512
	bhi	.LBB3_19
	b	.LBB3_15
.LBB3_15:
.Ltmp87:
	.loc	2 202 21 is_stmt 1              @ rt-thread/components/drivers/sdio/sdio.c:202:21
	ldr	r0, [sp, #156]
	.loc	2 202 20 is_stmt 0              @ rt-thread/components/drivers/sdio/sdio.c:202:20
	cmp.w	r0, #512
	bne	.LBB3_17
	b	.LBB3_16
.LBB3_16:
	.loc	2 0 20                          @ rt-thread/components/drivers/sdio/sdio.c:0:20
	movs	r0, #0
	.loc	2 202 20                        @ rt-thread/components/drivers/sdio/sdio.c:202:20
	str	r0, [sp, #4]                    @ 4-byte Spill
	b	.LBB3_18
.LBB3_17:
	.loc	2 202 43                        @ rt-thread/components/drivers/sdio/sdio.c:202:43
	ldr	r0, [sp, #156]
	.loc	2 202 20                        @ rt-thread/components/drivers/sdio/sdio.c:202:20
	str	r0, [sp, #4]                    @ 4-byte Spill
	b	.LBB3_18
.LBB3_18:
	ldr	r1, [sp, #4]                    @ 4-byte Reload
	.loc	2 202 17                        @ rt-thread/components/drivers/sdio/sdio.c:202:17
	ldr	r0, [sp, #64]
	orrs	r0, r1
	str	r0, [sp, #64]
	.loc	2 202 9                         @ rt-thread/components/drivers/sdio/sdio.c:202:9
	b	.LBB3_20
.LBB3_19:
	.loc	2 204 48 is_stmt 1              @ rt-thread/components/drivers/sdio/sdio.c:204:48
	ldr	r0, [sp, #152]
	.loc	2 204 17 is_stmt 0              @ rt-thread/components/drivers/sdio/sdio.c:204:17
	ldr	r1, [sp, #64]
	.loc	2 204 46                        @ rt-thread/components/drivers/sdio/sdio.c:204:46
	orrs	r0, r1
	.loc	2 204 17                        @ rt-thread/components/drivers/sdio/sdio.c:204:17
	orr	r0, r0, #134217728
	str	r0, [sp, #64]
	b	.LBB3_20
.Ltmp88:
.LBB3_20:
	.loc	2 0 17                          @ rt-thread/components/drivers/sdio/sdio.c:0:17
	mov.w	r0, #408
	.loc	2 205 15 is_stmt 1              @ rt-thread/components/drivers/sdio/sdio.c:205:15
	str	r0, [sp, #84]
	.loc	2 207 20                        @ rt-thread/components/drivers/sdio/sdio.c:207:20
	ldr	r0, [sp, #156]
	.loc	2 207 18 is_stmt 0              @ rt-thread/components/drivers/sdio/sdio.c:207:18
	str	r0, [sp, #20]
	.loc	2 208 17 is_stmt 1              @ rt-thread/components/drivers/sdio/sdio.c:208:17
	ldr	r0, [sp, #152]
	.loc	2 208 15 is_stmt 0              @ rt-thread/components/drivers/sdio/sdio.c:208:15
	str	r0, [sp, #24]
	.loc	2 209 18 is_stmt 1              @ rt-thread/components/drivers/sdio/sdio.c:209:18
	ldr	r1, [sp, #124]
	movs	r0, #2
	cmp	r1, #0
	it	ne
	movne	r0, #1
	.loc	2 209 16 is_stmt 0              @ rt-thread/components/drivers/sdio/sdio.c:209:16
	str	r0, [sp, #36]
	.loc	2 210 31 is_stmt 1              @ rt-thread/components/drivers/sdio/sdio.c:210:31
	ldr	r0, [sp, #148]
	.loc	2 210 14 is_stmt 0              @ rt-thread/components/drivers/sdio/sdio.c:210:14
	str	r0, [sp, #28]
	.loc	2 212 35 is_stmt 1              @ rt-thread/components/drivers/sdio/sdio.c:212:35
	ldr	r1, [sp, #128]
	add	r0, sp, #20
	.loc	2 212 5 is_stmt 0               @ rt-thread/components/drivers/sdio/sdio.c:212:5
	bl	mmcsd_set_data_timeout
	.loc	2 214 24 is_stmt 1              @ rt-thread/components/drivers/sdio/sdio.c:214:24
	ldr	r0, [sp, #128]
	.loc	2 214 30 is_stmt 0              @ rt-thread/components/drivers/sdio/sdio.c:214:30
	ldr	r0, [r0]
	add	r1, sp, #104
	.loc	2 214 5                         @ rt-thread/components/drivers/sdio/sdio.c:214:5
	bl	mmcsd_send_request
.Ltmp89:
	.loc	2 216 13 is_stmt 1              @ rt-thread/components/drivers/sdio/sdio.c:216:13
	ldr	r0, [sp, #92]
.Ltmp90:
	.loc	2 216 9 is_stmt 0               @ rt-thread/components/drivers/sdio/sdio.c:216:9
	cbz	r0, .LBB3_22
	b	.LBB3_21
.LBB3_21:
.Ltmp91:
	.loc	2 217 20 is_stmt 1              @ rt-thread/components/drivers/sdio/sdio.c:217:20
	ldr	r0, [sp, #92]
	.loc	2 217 9 is_stmt 0               @ rt-thread/components/drivers/sdio/sdio.c:217:9
	str	r0, [sp, #132]
	b	.LBB3_33
.Ltmp92:
.LBB3_22:
	.loc	2 218 14 is_stmt 1              @ rt-thread/components/drivers/sdio/sdio.c:218:14
	ldr	r0, [sp, #32]
.Ltmp93:
	.loc	2 218 9 is_stmt 0               @ rt-thread/components/drivers/sdio/sdio.c:218:9
	cbz	r0, .LBB3_24
	b	.LBB3_23
.LBB3_23:
.Ltmp94:
	.loc	2 219 21 is_stmt 1              @ rt-thread/components/drivers/sdio/sdio.c:219:21
	ldr	r0, [sp, #32]
	.loc	2 219 9 is_stmt 0               @ rt-thread/components/drivers/sdio/sdio.c:219:9
	str	r0, [sp, #132]
	b	.LBB3_33
.Ltmp95:
.LBB3_24:
	.loc	2 221 10 is_stmt 1              @ rt-thread/components/drivers/sdio/sdio.c:221:10
	ldr	r0, [sp, #128]
	ldr	r0, [r0]
.Ltmp96:
	.loc	2 221 9 is_stmt 0               @ rt-thread/components/drivers/sdio/sdio.c:221:9
	ldrb.w	r0, [r0, #32]
	lsls	r0, r0, #28
	cmp	r0, #0
	bmi	.LBB3_32
	b	.LBB3_25
.LBB3_25:
.Ltmp97:
	.loc	2 223 13 is_stmt 1              @ rt-thread/components/drivers/sdio/sdio.c:223:13
	ldrb.w	r0, [sp, #69]
	lsls	r0, r0, #28
	cmp	r0, #0
	bpl	.LBB3_27
	b	.LBB3_26
.LBB3_26:
	.loc	2 0 13 is_stmt 0                @ rt-thread/components/drivers/sdio/sdio.c:0:13
	mvn	r0, #7
.Ltmp98:
	.loc	2 224 13 is_stmt 1              @ rt-thread/components/drivers/sdio/sdio.c:224:13
	str	r0, [sp, #132]
	b	.LBB3_33
.Ltmp99:
.LBB3_27:
	.loc	2 225 13                        @ rt-thread/components/drivers/sdio/sdio.c:225:13
	ldrb.w	r0, [sp, #69]
	lsls	r0, r0, #30
	cmp	r0, #0
	bpl	.LBB3_29
	b	.LBB3_28
.LBB3_28:
	.loc	2 0 13 is_stmt 0                @ rt-thread/components/drivers/sdio/sdio.c:0:13
	mov.w	r0, #-1
.Ltmp100:
	.loc	2 226 13 is_stmt 1              @ rt-thread/components/drivers/sdio/sdio.c:226:13
	str	r0, [sp, #132]
	b	.LBB3_33
.Ltmp101:
.LBB3_29:
	.loc	2 227 13                        @ rt-thread/components/drivers/sdio/sdio.c:227:13
	ldrb.w	r0, [sp, #69]
	lsls	r0, r0, #31
	cbz	r0, .LBB3_31
	b	.LBB3_30
.LBB3_30:
	.loc	2 0 13 is_stmt 0                @ rt-thread/components/drivers/sdio/sdio.c:0:13
	mov.w	r0, #-1
.Ltmp102:
	.loc	2 228 13 is_stmt 1              @ rt-thread/components/drivers/sdio/sdio.c:228:13
	str	r0, [sp, #132]
	b	.LBB3_33
.Ltmp103:
.LBB3_31:
	.loc	2 229 5                         @ rt-thread/components/drivers/sdio/sdio.c:229:5
	b	.LBB3_32
.Ltmp104:
.LBB3_32:
	.loc	2 0 5 is_stmt 0                 @ rt-thread/components/drivers/sdio/sdio.c:0:5
	movs	r0, #0
	.loc	2 231 5 is_stmt 1               @ rt-thread/components/drivers/sdio/sdio.c:231:5
	str	r0, [sp, #132]
	b	.LBB3_33
.LBB3_33:
	.loc	2 232 1                         @ rt-thread/components/drivers/sdio/sdio.c:232:1
	ldr	r0, [sp, #132]
	add	sp, #136
	pop	{r7, pc}
.Ltmp105:
.Lfunc_end3:
	.size	sdio_io_rw_extended, .Lfunc_end3-sdio_io_rw_extended
	.cfi_endproc
	.cantunwind
	.fnend
                                        @ -- End function
	.section	.text.sdio_io_rw_extended_block,"ax",%progbits
	.hidden	sdio_io_rw_extended_block       @ -- Begin function sdio_io_rw_extended_block
	.globl	sdio_io_rw_extended_block
	.p2align	3
	.type	sdio_io_rw_extended_block,%function
	.code	16                              @ @sdio_io_rw_extended_block
	.thumb_func
sdio_io_rw_extended_block:
.Lfunc_begin4:
	.loc	2 249 0                         @ rt-thread/components/drivers/sdio/sdio.c:249:0
	.fnstart
	.cfi_startproc
@ %bb.0:
	.save	{r4, r5, r6, lr}
	push	{r4, r5, r6, lr}
	.cfi_def_cfa_offset 16
	.cfi_offset lr, -4
	.cfi_offset r6, -8
	.cfi_offset r5, -12
	.cfi_offset r4, -16
	.pad	#72
	sub	sp, #72
	.cfi_def_cfa_offset 88
	ldr.w	r12, [sp, #92]
	ldr.w	r12, [sp, #88]
	str	r0, [sp, #64]
	str	r1, [sp, #60]
	str	r2, [sp, #56]
	str	r3, [sp, #52]
.Ltmp106:
	.loc	2 254 17 prologue_end           @ rt-thread/components/drivers/sdio/sdio.c:254:17
	ldr	r0, [sp, #92]
	.loc	2 254 15 is_stmt 0              @ rt-thread/components/drivers/sdio/sdio.c:254:15
	str	r0, [sp, #44]
.Ltmp107:
	.loc	2 257 9 is_stmt 1               @ rt-thread/components/drivers/sdio/sdio.c:257:9
	ldr	r0, [sp, #64]
	.loc	2 257 15 is_stmt 0              @ rt-thread/components/drivers/sdio/sdio.c:257:15
	ldr	r0, [r0]
	.loc	2 257 26                        @ rt-thread/components/drivers/sdio/sdio.c:257:26
	ldrb.w	r0, [r0, #107]
	lsrs	r0, r0, #1
	.loc	2 257 38                        @ rt-thread/components/drivers/sdio/sdio.c:257:38
	lsls	r0, r0, #31
	cmp	r0, #0
	beq.w	.LBB4_18
	b	.LBB4_1
.LBB4_1:
	.loc	2 257 42                        @ rt-thread/components/drivers/sdio/sdio.c:257:42
	ldr	r0, [sp, #92]
	.loc	2 257 68                        @ rt-thread/components/drivers/sdio/sdio.c:257:68
	str	r0, [sp, #32]                   @ 4-byte Spill
	ldr	r0, [sp, #64]
	.loc	2 257 48                        @ rt-thread/components/drivers/sdio/sdio.c:257:48
	bl	sdio_max_block_size
	mov	r1, r0
.Ltmp108:
	.loc	2 257 9                         @ rt-thread/components/drivers/sdio/sdio.c:257:9
	ldr	r0, [sp, #32]                   @ 4-byte Reload
	cmp	r0, r1
	bls	.LBB4_18
	b	.LBB4_2
.LBB4_2:
.Ltmp109:
	.loc	2 259 20 is_stmt 1              @ rt-thread/components/drivers/sdio/sdio.c:259:20
	ldr	r1, [sp, #64]
	ldr	r0, [r1]
	ldr	r2, [r1, #20]
	ldr	r0, [r0]
	ldr	r1, [r0, #36]
	ldr	r0, [r0, #48]
	udiv	r1, r1, r2
	cmp	r0, r1
	bhs	.LBB4_4
	b	.LBB4_3
.LBB4_3:
	ldr	r0, [sp, #64]
	ldr	r0, [r0]
	ldr	r0, [r0]
	ldr	r0, [r0, #48]
	str	r0, [sp, #28]                   @ 4-byte Spill
	b	.LBB4_5
.LBB4_4:
	ldr	r1, [sp, #64]
	ldr	r0, [r1]
	ldr	r1, [r1, #20]
	ldr	r0, [r0]
	ldr	r0, [r0, #36]
	udiv	r0, r0, r1
	str	r0, [sp, #28]                   @ 4-byte Spill
	b	.LBB4_5
.LBB4_5:
	ldr	r0, [sp, #28]                   @ 4-byte Reload
	.loc	2 259 18 is_stmt 0              @ rt-thread/components/drivers/sdio/sdio.c:259:18
	str	r0, [sp, #40]
	.loc	2 261 20 is_stmt 1              @ rt-thread/components/drivers/sdio/sdio.c:261:20
	ldr	r0, [sp, #40]
	cmp.w	r0, #510
	bhi	.LBB4_7
	b	.LBB4_6
.LBB4_6:
	ldr	r0, [sp, #40]
	str	r0, [sp, #24]                   @ 4-byte Spill
	b	.LBB4_8
.LBB4_7:
	.loc	2 0 20 is_stmt 0                @ rt-thread/components/drivers/sdio/sdio.c:0:20
	movw	r0, #511
	.loc	2 261 20                        @ rt-thread/components/drivers/sdio/sdio.c:261:20
	str	r0, [sp, #24]                   @ 4-byte Spill
	b	.LBB4_8
.LBB4_8:
	ldr	r0, [sp, #24]                   @ 4-byte Reload
	.loc	2 261 18                        @ rt-thread/components/drivers/sdio/sdio.c:261:18
	str	r0, [sp, #40]
	.loc	2 263 9 is_stmt 1               @ rt-thread/components/drivers/sdio/sdio.c:263:9
	b	.LBB4_9
.LBB4_9:                                @ =>This Inner Loop Header: Depth=1
	.loc	2 263 16 is_stmt 0              @ rt-thread/components/drivers/sdio/sdio.c:263:16
	ldr	r0, [sp, #44]
	.loc	2 263 28                        @ rt-thread/components/drivers/sdio/sdio.c:263:28
	ldr	r1, [sp, #64]
	.loc	2 263 34                        @ rt-thread/components/drivers/sdio/sdio.c:263:34
	ldr	r1, [r1, #20]
	.loc	2 263 9                         @ rt-thread/components/drivers/sdio/sdio.c:263:9
	cmp	r0, r1
	bls	.LBB4_17
	b	.LBB4_10
.LBB4_10:                               @   in Loop: Header=BB4_9 Depth=1
.Ltmp110:
	.loc	2 265 20 is_stmt 1              @ rt-thread/components/drivers/sdio/sdio.c:265:20
	ldr	r0, [sp, #44]
	.loc	2 265 32 is_stmt 0              @ rt-thread/components/drivers/sdio/sdio.c:265:32
	ldr	r1, [sp, #64]
	.loc	2 265 38                        @ rt-thread/components/drivers/sdio/sdio.c:265:38
	ldr	r1, [r1, #20]
	.loc	2 265 30                        @ rt-thread/components/drivers/sdio/sdio.c:265:30
	udiv	r0, r0, r1
	.loc	2 265 18                        @ rt-thread/components/drivers/sdio/sdio.c:265:18
	str	r0, [sp, #36]
.Ltmp111:
	.loc	2 266 17 is_stmt 1              @ rt-thread/components/drivers/sdio/sdio.c:266:17
	ldr	r0, [sp, #36]
	.loc	2 266 24 is_stmt 0              @ rt-thread/components/drivers/sdio/sdio.c:266:24
	ldr	r1, [sp, #40]
.Ltmp112:
	.loc	2 266 17                        @ rt-thread/components/drivers/sdio/sdio.c:266:17
	cmp	r0, r1
	bls	.LBB4_12
	b	.LBB4_11
.LBB4_11:                               @   in Loop: Header=BB4_9 Depth=1
.Ltmp113:
	.loc	2 267 24 is_stmt 1              @ rt-thread/components/drivers/sdio/sdio.c:267:24
	ldr	r0, [sp, #40]
	.loc	2 267 22 is_stmt 0              @ rt-thread/components/drivers/sdio/sdio.c:267:22
	str	r0, [sp, #36]
	.loc	2 267 17                        @ rt-thread/components/drivers/sdio/sdio.c:267:17
	b	.LBB4_12
.Ltmp114:
.LBB4_12:                               @   in Loop: Header=BB4_9 Depth=1
	.loc	2 268 19 is_stmt 1              @ rt-thread/components/drivers/sdio/sdio.c:268:19
	ldr	r0, [sp, #36]
	.loc	2 268 26 is_stmt 0              @ rt-thread/components/drivers/sdio/sdio.c:268:26
	ldr	r1, [sp, #64]
	.loc	2 268 32                        @ rt-thread/components/drivers/sdio/sdio.c:268:32
	ldr	r1, [r1, #20]
	.loc	2 268 24                        @ rt-thread/components/drivers/sdio/sdio.c:268:24
	muls	r0, r1, r0
	.loc	2 268 17                        @ rt-thread/components/drivers/sdio/sdio.c:268:17
	str	r0, [sp, #92]
	.loc	2 270 39 is_stmt 1              @ rt-thread/components/drivers/sdio/sdio.c:270:39
	ldr.w	lr, [sp, #64]
	.loc	2 270 45 is_stmt 0              @ rt-thread/components/drivers/sdio/sdio.c:270:45
	ldr.w	r0, [lr]
	.loc	2 270 51                        @ rt-thread/components/drivers/sdio/sdio.c:270:51
	ldr	r1, [sp, #60]
	.loc	2 270 61                        @ rt-thread/components/drivers/sdio/sdio.c:270:61
	ldrb.w	r2, [lr, #8]
	.loc	2 271 19 is_stmt 1              @ rt-thread/components/drivers/sdio/sdio.c:271:19
	ldr	r3, [sp, #56]
	.loc	2 271 25 is_stmt 0              @ rt-thread/components/drivers/sdio/sdio.c:271:25
	ldr.w	r12, [sp, #52]
	.loc	2 271 34                        @ rt-thread/components/drivers/sdio/sdio.c:271:34
	ldr	r4, [sp, #88]
	.loc	2 271 39                        @ rt-thread/components/drivers/sdio/sdio.c:271:39
	ldr	r5, [sp, #36]
	.loc	2 271 51                        @ rt-thread/components/drivers/sdio/sdio.c:271:51
	ldr.w	r6, [lr, #20]
	.loc	2 270 19 is_stmt 1              @ rt-thread/components/drivers/sdio/sdio.c:270:19
	mov	lr, sp
	str.w	r6, [lr, #12]
	str.w	r5, [lr, #8]
	str.w	r4, [lr, #4]
	str.w	r12, [lr]
	bl	sdio_io_rw_extended
	.loc	2 270 17 is_stmt 0              @ rt-thread/components/drivers/sdio/sdio.c:270:17
	str	r0, [sp, #48]
.Ltmp115:
	.loc	2 272 17 is_stmt 1              @ rt-thread/components/drivers/sdio/sdio.c:272:17
	ldr	r0, [sp, #48]
.Ltmp116:
	.loc	2 272 17 is_stmt 0              @ rt-thread/components/drivers/sdio/sdio.c:272:17
	cbz	r0, .LBB4_14
	b	.LBB4_13
.LBB4_13:
.Ltmp117:
	.loc	2 273 24 is_stmt 1              @ rt-thread/components/drivers/sdio/sdio.c:273:24
	ldr	r0, [sp, #48]
	.loc	2 273 17 is_stmt 0              @ rt-thread/components/drivers/sdio/sdio.c:273:17
	str	r0, [sp, #68]
	b	.LBB4_29
.Ltmp118:
.LBB4_14:                               @   in Loop: Header=BB4_9 Depth=1
	.loc	2 275 26 is_stmt 1              @ rt-thread/components/drivers/sdio/sdio.c:275:26
	ldr	r1, [sp, #92]
	.loc	2 275 23 is_stmt 0              @ rt-thread/components/drivers/sdio/sdio.c:275:23
	ldr	r0, [sp, #44]
	subs	r0, r0, r1
	str	r0, [sp, #44]
	.loc	2 276 20 is_stmt 1              @ rt-thread/components/drivers/sdio/sdio.c:276:20
	ldr	r1, [sp, #92]
	.loc	2 276 17 is_stmt 0              @ rt-thread/components/drivers/sdio/sdio.c:276:17
	ldr	r0, [sp, #88]
	add	r0, r1
	str	r0, [sp, #88]
.Ltmp119:
	.loc	2 277 17 is_stmt 1              @ rt-thread/components/drivers/sdio/sdio.c:277:17
	ldr	r0, [sp, #52]
.Ltmp120:
	.loc	2 277 17 is_stmt 0              @ rt-thread/components/drivers/sdio/sdio.c:277:17
	cbz	r0, .LBB4_16
	b	.LBB4_15
.LBB4_15:                               @   in Loop: Header=BB4_9 Depth=1
.Ltmp121:
	.loc	2 278 25 is_stmt 1              @ rt-thread/components/drivers/sdio/sdio.c:278:25
	ldr	r1, [sp, #92]
	.loc	2 278 22 is_stmt 0              @ rt-thread/components/drivers/sdio/sdio.c:278:22
	ldr	r0, [sp, #56]
	add	r0, r1
	str	r0, [sp, #56]
	.loc	2 278 17                        @ rt-thread/components/drivers/sdio/sdio.c:278:17
	b	.LBB4_16
.Ltmp122:
.LBB4_16:                               @   in Loop: Header=BB4_9 Depth=1
	.loc	2 263 9 is_stmt 1               @ rt-thread/components/drivers/sdio/sdio.c:263:9
	b	.LBB4_9
.LBB4_17:
	.loc	2 280 5                         @ rt-thread/components/drivers/sdio/sdio.c:280:5
	b	.LBB4_18
.Ltmp123:
.LBB4_18:
	.loc	2 282 5                         @ rt-thread/components/drivers/sdio/sdio.c:282:5
	b	.LBB4_19
.LBB4_19:                               @ =>This Inner Loop Header: Depth=1
	.loc	2 282 12 is_stmt 0              @ rt-thread/components/drivers/sdio/sdio.c:282:12
	ldr	r0, [sp, #44]
	.loc	2 282 5                         @ rt-thread/components/drivers/sdio/sdio.c:282:5
	cmp	r0, #0
	beq	.LBB4_28
	b	.LBB4_20
.LBB4_20:                               @   in Loop: Header=BB4_19 Depth=1
.Ltmp124:
	.loc	2 284 15 is_stmt 1              @ rt-thread/components/drivers/sdio/sdio.c:284:15
	ldr	r0, [sp, #44]
	str	r0, [sp, #20]                   @ 4-byte Spill
	ldr	r0, [sp, #64]
	bl	sdio_max_block_size
	mov	r1, r0
	ldr	r0, [sp, #20]                   @ 4-byte Reload
	cmp	r0, r1
	bhs	.LBB4_22
	b	.LBB4_21
.LBB4_21:                               @   in Loop: Header=BB4_19 Depth=1
	ldr	r0, [sp, #44]
	str	r0, [sp, #16]                   @ 4-byte Spill
	b	.LBB4_23
.LBB4_22:                               @   in Loop: Header=BB4_19 Depth=1
	ldr	r0, [sp, #64]
	bl	sdio_max_block_size
	str	r0, [sp, #16]                   @ 4-byte Spill
	b	.LBB4_23
.LBB4_23:                               @   in Loop: Header=BB4_19 Depth=1
	ldr	r0, [sp, #16]                   @ 4-byte Reload
	.loc	2 284 13 is_stmt 0              @ rt-thread/components/drivers/sdio/sdio.c:284:13
	str	r0, [sp, #92]
	.loc	2 286 35 is_stmt 1              @ rt-thread/components/drivers/sdio/sdio.c:286:35
	ldr	r2, [sp, #64]
	.loc	2 286 41 is_stmt 0              @ rt-thread/components/drivers/sdio/sdio.c:286:41
	ldr	r0, [r2]
	.loc	2 286 47                        @ rt-thread/components/drivers/sdio/sdio.c:286:47
	ldr	r1, [sp, #60]
	.loc	2 286 57                        @ rt-thread/components/drivers/sdio/sdio.c:286:57
	ldrb	r2, [r2, #8]
	.loc	2 287 19 is_stmt 1              @ rt-thread/components/drivers/sdio/sdio.c:287:19
	ldr	r3, [sp, #56]
	.loc	2 287 25 is_stmt 0              @ rt-thread/components/drivers/sdio/sdio.c:287:25
	ldr.w	r12, [sp, #52]
	.loc	2 287 34                        @ rt-thread/components/drivers/sdio/sdio.c:287:34
	ldr	r4, [sp, #88]
	.loc	2 287 42                        @ rt-thread/components/drivers/sdio/sdio.c:287:42
	ldr	r5, [sp, #92]
	.loc	2 286 15 is_stmt 1              @ rt-thread/components/drivers/sdio/sdio.c:286:15
	mov	lr, sp
	str.w	r5, [lr, #12]
	movs	r5, #1
	str.w	r5, [lr, #8]
	str.w	r4, [lr, #4]
	str.w	r12, [lr]
	bl	sdio_io_rw_extended
	.loc	2 286 13 is_stmt 0              @ rt-thread/components/drivers/sdio/sdio.c:286:13
	str	r0, [sp, #48]
.Ltmp125:
	.loc	2 288 13 is_stmt 1              @ rt-thread/components/drivers/sdio/sdio.c:288:13
	ldr	r0, [sp, #48]
.Ltmp126:
	.loc	2 288 13 is_stmt 0              @ rt-thread/components/drivers/sdio/sdio.c:288:13
	cbz	r0, .LBB4_25
	b	.LBB4_24
.LBB4_24:
.Ltmp127:
	.loc	2 289 20 is_stmt 1              @ rt-thread/components/drivers/sdio/sdio.c:289:20
	ldr	r0, [sp, #48]
	.loc	2 289 13 is_stmt 0              @ rt-thread/components/drivers/sdio/sdio.c:289:13
	str	r0, [sp, #68]
	b	.LBB4_29
.Ltmp128:
.LBB4_25:                               @   in Loop: Header=BB4_19 Depth=1
	.loc	2 291 22 is_stmt 1              @ rt-thread/components/drivers/sdio/sdio.c:291:22
	ldr	r1, [sp, #92]
	.loc	2 291 19 is_stmt 0              @ rt-thread/components/drivers/sdio/sdio.c:291:19
	ldr	r0, [sp, #44]
	subs	r0, r0, r1
	str	r0, [sp, #44]
	.loc	2 292 16 is_stmt 1              @ rt-thread/components/drivers/sdio/sdio.c:292:16
	ldr	r1, [sp, #92]
	.loc	2 292 13 is_stmt 0              @ rt-thread/components/drivers/sdio/sdio.c:292:13
	ldr	r0, [sp, #88]
	add	r0, r1
	str	r0, [sp, #88]
.Ltmp129:
	.loc	2 293 13 is_stmt 1              @ rt-thread/components/drivers/sdio/sdio.c:293:13
	ldr	r0, [sp, #52]
.Ltmp130:
	.loc	2 293 13 is_stmt 0              @ rt-thread/components/drivers/sdio/sdio.c:293:13
	cbz	r0, .LBB4_27
	b	.LBB4_26
.LBB4_26:                               @   in Loop: Header=BB4_19 Depth=1
.Ltmp131:
	.loc	2 294 21 is_stmt 1              @ rt-thread/components/drivers/sdio/sdio.c:294:21
	ldr	r1, [sp, #92]
	.loc	2 294 18 is_stmt 0              @ rt-thread/components/drivers/sdio/sdio.c:294:18
	ldr	r0, [sp, #56]
	add	r0, r1
	str	r0, [sp, #56]
	.loc	2 294 13                        @ rt-thread/components/drivers/sdio/sdio.c:294:13
	b	.LBB4_27
.Ltmp132:
.LBB4_27:                               @   in Loop: Header=BB4_19 Depth=1
	.loc	2 282 5 is_stmt 1               @ rt-thread/components/drivers/sdio/sdio.c:282:5
	b	.LBB4_19
.LBB4_28:
	.loc	2 0 5 is_stmt 0                 @ rt-thread/components/drivers/sdio/sdio.c:0:5
	movs	r0, #0
	.loc	2 297 5 is_stmt 1               @ rt-thread/components/drivers/sdio/sdio.c:297:5
	str	r0, [sp, #68]
	b	.LBB4_29
.LBB4_29:
	.loc	2 298 1                         @ rt-thread/components/drivers/sdio/sdio.c:298:1
	ldr	r0, [sp, #68]
	add	sp, #72
	pop	{r4, r5, r6, pc}
.Ltmp133:
.Lfunc_end4:
	.size	sdio_io_rw_extended_block, .Lfunc_end4-sdio_io_rw_extended_block
	.cfi_endproc
	.cantunwind
	.fnend
                                        @ -- End function
	.section	.text.sdio_max_block_size,"ax",%progbits
	.p2align	3                               @ -- Begin function sdio_max_block_size
	.type	sdio_max_block_size,%function
	.code	16                              @ @sdio_max_block_size
	.thumb_func
sdio_max_block_size:
.Lfunc_begin5:
	.loc	2 235 0                         @ rt-thread/components/drivers/sdio/sdio.c:235:0
	.fnstart
	.cfi_startproc
@ %bb.0:
	.pad	#20
	sub	sp, #20
	.cfi_def_cfa_offset 20
	str	r0, [sp, #16]
.Ltmp134:
	.loc	2 236 24 prologue_end           @ rt-thread/components/drivers/sdio/sdio.c:236:24
	ldr	r0, [sp, #16]
	ldr	r0, [r0]
	ldr	r1, [r0]
	ldr	r0, [r1, #36]
	ldr	r1, [r1, #44]
	cmp	r0, r1
	bhs	.LBB5_2
	b	.LBB5_1
.LBB5_1:
	ldr	r0, [sp, #16]
	ldr	r0, [r0]
	ldr	r0, [r0]
	ldr	r0, [r0, #36]
	str	r0, [sp, #8]                    @ 4-byte Spill
	b	.LBB5_3
.LBB5_2:
	ldr	r0, [sp, #16]
	ldr	r0, [r0]
	ldr	r0, [r0]
	ldr	r0, [r0, #44]
	str	r0, [sp, #8]                    @ 4-byte Spill
	b	.LBB5_3
.LBB5_3:
	ldr	r0, [sp, #8]                    @ 4-byte Reload
	.loc	2 236 17 is_stmt 0              @ rt-thread/components/drivers/sdio/sdio.c:236:17
	str	r0, [sp, #12]
	.loc	2 238 12 is_stmt 1              @ rt-thread/components/drivers/sdio/sdio.c:238:12
	ldr	r0, [sp, #12]
	ldr	r1, [sp, #16]
	ldr	r1, [r1, #16]
	cmp	r0, r1
	bhs	.LBB5_5
	b	.LBB5_4
.LBB5_4:
	ldr	r0, [sp, #12]
	str	r0, [sp, #4]                    @ 4-byte Spill
	b	.LBB5_6
.LBB5_5:
	ldr	r0, [sp, #16]
	ldr	r0, [r0, #16]
	str	r0, [sp, #4]                    @ 4-byte Spill
	b	.LBB5_6
.LBB5_6:
	ldr	r0, [sp, #4]                    @ 4-byte Reload
	.loc	2 238 10 is_stmt 0              @ rt-thread/components/drivers/sdio/sdio.c:238:10
	str	r0, [sp, #12]
	.loc	2 240 12 is_stmt 1              @ rt-thread/components/drivers/sdio/sdio.c:240:12
	ldr	r1, [sp, #12]
	movs	r0, #0
	cmp.w	r0, r1, lsr #9
	bne	.LBB5_8
	b	.LBB5_7
.LBB5_7:
	ldr	r0, [sp, #12]
	str	r0, [sp]                        @ 4-byte Spill
	b	.LBB5_9
.LBB5_8:
	.loc	2 0 12 is_stmt 0                @ rt-thread/components/drivers/sdio/sdio.c:0:12
	mov.w	r0, #512
	.loc	2 240 12                        @ rt-thread/components/drivers/sdio/sdio.c:240:12
	str	r0, [sp]                        @ 4-byte Spill
	b	.LBB5_9
.LBB5_9:
	ldr	r0, [sp]                        @ 4-byte Reload
	.loc	2 240 5                         @ rt-thread/components/drivers/sdio/sdio.c:240:5
	add	sp, #20
	bx	lr
.Ltmp135:
.Lfunc_end5:
	.size	sdio_max_block_size, .Lfunc_end5-sdio_max_block_size
	.cfi_endproc
	.cantunwind
	.fnend
                                        @ -- End function
	.section	.text.sdio_io_readb,"ax",%progbits
	.hidden	sdio_io_readb                   @ -- Begin function sdio_io_readb
	.globl	sdio_io_readb
	.p2align	3
	.type	sdio_io_readb,%function
	.code	16                              @ @sdio_io_readb
	.thumb_func
sdio_io_readb:
.Lfunc_begin6:
	.loc	2 303 0 is_stmt 1               @ rt-thread/components/drivers/sdio/sdio.c:303:0
	.fnstart
	.cfi_startproc
@ %bb.0:
	.save	{r7, lr}
	push	{r7, lr}
	.cfi_def_cfa_offset 8
	.cfi_offset lr, -4
	.cfi_offset r7, -8
	.pad	#32
	sub	sp, #32
	.cfi_def_cfa_offset 40
	str	r0, [sp, #28]
	str	r1, [sp, #24]
	str	r2, [sp, #20]
	movs	r1, #0
.Ltmp136:
	.loc	2 304 16 prologue_end           @ rt-thread/components/drivers/sdio/sdio.c:304:16
	strb.w	r1, [sp, #19]
	.loc	2 307 29                        @ rt-thread/components/drivers/sdio/sdio.c:307:29
	ldr	r2, [sp, #28]
	.loc	2 307 35 is_stmt 0              @ rt-thread/components/drivers/sdio/sdio.c:307:35
	ldr	r0, [r2]
	.loc	2 307 50                        @ rt-thread/components/drivers/sdio/sdio.c:307:50
	ldrb	r2, [r2, #8]
	.loc	2 307 55                        @ rt-thread/components/drivers/sdio/sdio.c:307:55
	ldr	r3, [sp, #24]
	.loc	2 307 11                        @ rt-thread/components/drivers/sdio/sdio.c:307:11
	mov	lr, sp
	str.w	r1, [lr, #4]
	add.w	r12, sp, #19
	str.w	r12, [lr]
	bl	sdio_io_rw_direct
	.loc	2 307 9                         @ rt-thread/components/drivers/sdio/sdio.c:307:9
	str	r0, [sp, #12]
.Ltmp137:
	.loc	2 309 9 is_stmt 1               @ rt-thread/components/drivers/sdio/sdio.c:309:9
	ldr	r0, [sp, #20]
.Ltmp138:
	.loc	2 309 9 is_stmt 0               @ rt-thread/components/drivers/sdio/sdio.c:309:9
	cbz	r0, .LBB6_2
	b	.LBB6_1
.LBB6_1:
.Ltmp139:
	.loc	2 311 16 is_stmt 1              @ rt-thread/components/drivers/sdio/sdio.c:311:16
	ldr	r0, [sp, #12]
	.loc	2 311 10 is_stmt 0              @ rt-thread/components/drivers/sdio/sdio.c:311:10
	ldr	r1, [sp, #20]
	.loc	2 311 14                        @ rt-thread/components/drivers/sdio/sdio.c:311:14
	str	r0, [r1]
	.loc	2 312 5 is_stmt 1               @ rt-thread/components/drivers/sdio/sdio.c:312:5
	b	.LBB6_2
.Ltmp140:
.LBB6_2:
	.loc	2 314 12                        @ rt-thread/components/drivers/sdio/sdio.c:314:12
	ldrb.w	r0, [sp, #19]
	.loc	2 314 5 is_stmt 0               @ rt-thread/components/drivers/sdio/sdio.c:314:5
	add	sp, #32
	pop	{r7, pc}
.Ltmp141:
.Lfunc_end6:
	.size	sdio_io_readb, .Lfunc_end6-sdio_io_readb
	.cfi_endproc
	.cantunwind
	.fnend
                                        @ -- End function
	.section	.text.sdio_io_writeb,"ax",%progbits
	.hidden	sdio_io_writeb                  @ -- Begin function sdio_io_writeb
	.globl	sdio_io_writeb
	.p2align	3
	.type	sdio_io_writeb,%function
	.code	16                              @ @sdio_io_writeb
	.thumb_func
sdio_io_writeb:
.Lfunc_begin7:
	.loc	2 320 0 is_stmt 1               @ rt-thread/components/drivers/sdio/sdio.c:320:0
	.fnstart
	.cfi_startproc
@ %bb.0:
	.save	{r7, lr}
	push	{r7, lr}
	.cfi_def_cfa_offset 8
	.cfi_offset lr, -4
	.cfi_offset r7, -8
	.pad	#24
	sub	sp, #24
	.cfi_def_cfa_offset 32
                                        @ kill: def $r3 killed $r2
	str	r0, [sp, #20]
	str	r1, [sp, #16]
	strb.w	r2, [sp, #15]
.Ltmp142:
	.loc	2 321 30 prologue_end           @ rt-thread/components/drivers/sdio/sdio.c:321:30
	ldr	r1, [sp, #20]
	.loc	2 321 36 is_stmt 0              @ rt-thread/components/drivers/sdio/sdio.c:321:36
	ldr	r0, [r1]
	.loc	2 321 51                        @ rt-thread/components/drivers/sdio/sdio.c:321:51
	ldrb	r2, [r1, #8]
	.loc	2 321 56                        @ rt-thread/components/drivers/sdio/sdio.c:321:56
	ldr	r3, [sp, #16]
	.loc	2 321 12                        @ rt-thread/components/drivers/sdio/sdio.c:321:12
	mov	r12, sp
	movs	r1, #0
	str.w	r1, [r12, #4]
	add.w	r1, sp, #15
	str.w	r1, [r12]
	movs	r1, #1
	bl	sdio_io_rw_direct
	.loc	2 321 5                         @ rt-thread/components/drivers/sdio/sdio.c:321:5
	add	sp, #24
	pop	{r7, pc}
.Ltmp143:
.Lfunc_end7:
	.size	sdio_io_writeb, .Lfunc_end7-sdio_io_writeb
	.cfi_endproc
	.cantunwind
	.fnend
                                        @ -- End function
	.section	.text.sdio_io_readw,"ax",%progbits
	.hidden	sdio_io_readw                   @ -- Begin function sdio_io_readw
	.globl	sdio_io_readw
	.p2align	3
	.type	sdio_io_readw,%function
	.code	16                              @ @sdio_io_readw
	.thumb_func
sdio_io_readw:
.Lfunc_begin8:
	.loc	2 327 0 is_stmt 1               @ rt-thread/components/drivers/sdio/sdio.c:327:0
	.fnstart
	.cfi_startproc
@ %bb.0:
	.save	{r7, lr}
	push	{r7, lr}
	.cfi_def_cfa_offset 8
	.cfi_offset lr, -4
	.cfi_offset r7, -8
	.pad	#32
	sub	sp, #32
	.cfi_def_cfa_offset 40
	str	r0, [sp, #28]
	str	r1, [sp, #24]
	str	r2, [sp, #20]
.Ltmp144:
	.loc	2 331 9 prologue_end            @ rt-thread/components/drivers/sdio/sdio.c:331:9
	ldr	r0, [sp, #20]
.Ltmp145:
	.loc	2 331 9 is_stmt 0               @ rt-thread/components/drivers/sdio/sdio.c:331:9
	cbz	r0, .LBB8_2
	b	.LBB8_1
.LBB8_1:
.Ltmp146:
	.loc	2 332 10 is_stmt 1              @ rt-thread/components/drivers/sdio/sdio.c:332:10
	ldr	r1, [sp, #20]
	movs	r0, #0
	.loc	2 332 14 is_stmt 0              @ rt-thread/components/drivers/sdio/sdio.c:332:14
	str	r0, [r1]
	.loc	2 332 9                         @ rt-thread/components/drivers/sdio/sdio.c:332:9
	b	.LBB8_2
.Ltmp147:
.LBB8_2:
	.loc	2 334 37 is_stmt 1              @ rt-thread/components/drivers/sdio/sdio.c:334:37
	ldr	r0, [sp, #28]
	.loc	2 334 46 is_stmt 0              @ rt-thread/components/drivers/sdio/sdio.c:334:46
	ldr	r2, [sp, #24]
	.loc	2 334 11                        @ rt-thread/components/drivers/sdio/sdio.c:334:11
	mov	r3, sp
	movs	r1, #2
	str	r1, [r3, #4]
	add	r1, sp, #12
	str	r1, [r3]
	movs	r1, #0
	movs	r3, #1
	bl	sdio_io_rw_extended_block
	.loc	2 334 9                         @ rt-thread/components/drivers/sdio/sdio.c:334:9
	str	r0, [sp, #16]
.Ltmp148:
	.loc	2 335 9 is_stmt 1               @ rt-thread/components/drivers/sdio/sdio.c:335:9
	ldr	r0, [sp, #16]
.Ltmp149:
	.loc	2 335 9 is_stmt 0               @ rt-thread/components/drivers/sdio/sdio.c:335:9
	cbz	r0, .LBB8_6
	b	.LBB8_3
.LBB8_3:
.Ltmp150:
	.loc	2 337 13 is_stmt 1              @ rt-thread/components/drivers/sdio/sdio.c:337:13
	ldr	r0, [sp, #20]
.Ltmp151:
	.loc	2 337 13 is_stmt 0              @ rt-thread/components/drivers/sdio/sdio.c:337:13
	cbz	r0, .LBB8_5
	b	.LBB8_4
.LBB8_4:
.Ltmp152:
	.loc	2 338 20 is_stmt 1              @ rt-thread/components/drivers/sdio/sdio.c:338:20
	ldr	r0, [sp, #16]
	.loc	2 338 14 is_stmt 0              @ rt-thread/components/drivers/sdio/sdio.c:338:14
	ldr	r1, [sp, #20]
	.loc	2 338 18                        @ rt-thread/components/drivers/sdio/sdio.c:338:18
	str	r0, [r1]
	.loc	2 338 13                        @ rt-thread/components/drivers/sdio/sdio.c:338:13
	b	.LBB8_5
.Ltmp153:
.LBB8_5:
	.loc	2 339 5 is_stmt 1               @ rt-thread/components/drivers/sdio/sdio.c:339:5
	b	.LBB8_6
.Ltmp154:
.LBB8_6:
	.loc	2 341 25                        @ rt-thread/components/drivers/sdio/sdio.c:341:25
	ldrh.w	r0, [sp, #12]
	.loc	2 341 5 is_stmt 0               @ rt-thread/components/drivers/sdio/sdio.c:341:5
	add	sp, #32
	pop	{r7, pc}
.Ltmp155:
.Lfunc_end8:
	.size	sdio_io_readw, .Lfunc_end8-sdio_io_readw
	.cfi_endproc
	.cantunwind
	.fnend
                                        @ -- End function
	.section	.text.sdio_io_writew,"ax",%progbits
	.hidden	sdio_io_writew                  @ -- Begin function sdio_io_writew
	.globl	sdio_io_writew
	.p2align	3
	.type	sdio_io_writew,%function
	.code	16                              @ @sdio_io_writew
	.thumb_func
sdio_io_writew:
.Lfunc_begin9:
	.loc	2 347 0 is_stmt 1               @ rt-thread/components/drivers/sdio/sdio.c:347:0
	.fnstart
	.cfi_startproc
@ %bb.0:
	.save	{r7, lr}
	push	{r7, lr}
	.cfi_def_cfa_offset 8
	.cfi_offset lr, -4
	.cfi_offset r7, -8
	.pad	#24
	sub	sp, #24
	.cfi_def_cfa_offset 32
                                        @ kill: def $r3 killed $r1
	str	r0, [sp, #20]
	strh.w	r1, [sp, #18]
	str	r2, [sp, #12]
.Ltmp156:
	.loc	2 348 26 prologue_end           @ rt-thread/components/drivers/sdio/sdio.c:348:26
	ldrh.w	r0, [sp, #18]
	.loc	2 348 17 is_stmt 0              @ rt-thread/components/drivers/sdio/sdio.c:348:17
	str	r0, [sp, #8]
	.loc	2 350 38 is_stmt 1              @ rt-thread/components/drivers/sdio/sdio.c:350:38
	ldr	r0, [sp, #20]
	.loc	2 350 47 is_stmt 0              @ rt-thread/components/drivers/sdio/sdio.c:350:47
	ldr	r2, [sp, #12]
	.loc	2 350 12                        @ rt-thread/components/drivers/sdio/sdio.c:350:12
	mov	r3, sp
	movs	r1, #2
	str	r1, [r3, #4]
	add	r1, sp, #8
	str	r1, [r3]
	movs	r3, #1
	mov	r1, r3
	bl	sdio_io_rw_extended_block
	.loc	2 350 5                         @ rt-thread/components/drivers/sdio/sdio.c:350:5
	add	sp, #24
	pop	{r7, pc}
.Ltmp157:
.Lfunc_end9:
	.size	sdio_io_writew, .Lfunc_end9-sdio_io_writew
	.cfi_endproc
	.cantunwind
	.fnend
                                        @ -- End function
	.section	.text.sdio_io_readl,"ax",%progbits
	.hidden	sdio_io_readl                   @ -- Begin function sdio_io_readl
	.globl	sdio_io_readl
	.p2align	3
	.type	sdio_io_readl,%function
	.code	16                              @ @sdio_io_readl
	.thumb_func
sdio_io_readl:
.Lfunc_begin10:
	.loc	2 356 0 is_stmt 1               @ rt-thread/components/drivers/sdio/sdio.c:356:0
	.fnstart
	.cfi_startproc
@ %bb.0:
	.save	{r7, lr}
	push	{r7, lr}
	.cfi_def_cfa_offset 8
	.cfi_offset lr, -4
	.cfi_offset r7, -8
	.pad	#32
	sub	sp, #32
	.cfi_def_cfa_offset 40
	str	r0, [sp, #28]
	str	r1, [sp, #24]
	str	r2, [sp, #20]
.Ltmp158:
	.loc	2 360 9 prologue_end            @ rt-thread/components/drivers/sdio/sdio.c:360:9
	ldr	r0, [sp, #20]
.Ltmp159:
	.loc	2 360 9 is_stmt 0               @ rt-thread/components/drivers/sdio/sdio.c:360:9
	cbz	r0, .LBB10_2
	b	.LBB10_1
.LBB10_1:
.Ltmp160:
	.loc	2 361 10 is_stmt 1              @ rt-thread/components/drivers/sdio/sdio.c:361:10
	ldr	r1, [sp, #20]
	movs	r0, #0
	.loc	2 361 14 is_stmt 0              @ rt-thread/components/drivers/sdio/sdio.c:361:14
	str	r0, [r1]
	.loc	2 361 9                         @ rt-thread/components/drivers/sdio/sdio.c:361:9
	b	.LBB10_2
.Ltmp161:
.LBB10_2:
	.loc	2 363 37 is_stmt 1              @ rt-thread/components/drivers/sdio/sdio.c:363:37
	ldr	r0, [sp, #28]
	.loc	2 363 46 is_stmt 0              @ rt-thread/components/drivers/sdio/sdio.c:363:46
	ldr	r2, [sp, #24]
	.loc	2 363 11                        @ rt-thread/components/drivers/sdio/sdio.c:363:11
	mov	r3, sp
	movs	r1, #4
	str	r1, [r3, #4]
	add	r1, sp, #12
	str	r1, [r3]
	movs	r1, #0
	movs	r3, #1
	bl	sdio_io_rw_extended_block
	.loc	2 363 9                         @ rt-thread/components/drivers/sdio/sdio.c:363:9
	str	r0, [sp, #16]
.Ltmp162:
	.loc	2 364 9 is_stmt 1               @ rt-thread/components/drivers/sdio/sdio.c:364:9
	ldr	r0, [sp, #16]
.Ltmp163:
	.loc	2 364 9 is_stmt 0               @ rt-thread/components/drivers/sdio/sdio.c:364:9
	cbz	r0, .LBB10_6
	b	.LBB10_3
.LBB10_3:
.Ltmp164:
	.loc	2 366 13 is_stmt 1              @ rt-thread/components/drivers/sdio/sdio.c:366:13
	ldr	r0, [sp, #20]
.Ltmp165:
	.loc	2 366 13 is_stmt 0              @ rt-thread/components/drivers/sdio/sdio.c:366:13
	cbz	r0, .LBB10_5
	b	.LBB10_4
.LBB10_4:
.Ltmp166:
	.loc	2 367 20 is_stmt 1              @ rt-thread/components/drivers/sdio/sdio.c:367:20
	ldr	r0, [sp, #16]
	.loc	2 367 14 is_stmt 0              @ rt-thread/components/drivers/sdio/sdio.c:367:14
	ldr	r1, [sp, #20]
	.loc	2 367 18                        @ rt-thread/components/drivers/sdio/sdio.c:367:18
	str	r0, [r1]
	.loc	2 367 13                        @ rt-thread/components/drivers/sdio/sdio.c:367:13
	b	.LBB10_5
.Ltmp167:
.LBB10_5:
	.loc	2 368 5 is_stmt 1               @ rt-thread/components/drivers/sdio/sdio.c:368:5
	b	.LBB10_6
.Ltmp168:
.LBB10_6:
	.loc	2 370 12                        @ rt-thread/components/drivers/sdio/sdio.c:370:12
	ldr	r0, [sp, #12]
	.loc	2 370 5 is_stmt 0               @ rt-thread/components/drivers/sdio/sdio.c:370:5
	add	sp, #32
	pop	{r7, pc}
.Ltmp169:
.Lfunc_end10:
	.size	sdio_io_readl, .Lfunc_end10-sdio_io_readl
	.cfi_endproc
	.cantunwind
	.fnend
                                        @ -- End function
	.section	.text.sdio_io_writel,"ax",%progbits
	.hidden	sdio_io_writel                  @ -- Begin function sdio_io_writel
	.globl	sdio_io_writel
	.p2align	3
	.type	sdio_io_writel,%function
	.code	16                              @ @sdio_io_writel
	.thumb_func
sdio_io_writel:
.Lfunc_begin11:
	.loc	2 376 0 is_stmt 1               @ rt-thread/components/drivers/sdio/sdio.c:376:0
	.fnstart
	.cfi_startproc
@ %bb.0:
	.save	{r7, lr}
	push	{r7, lr}
	.cfi_def_cfa_offset 8
	.cfi_offset lr, -4
	.cfi_offset r7, -8
	.pad	#24
	sub	sp, #24
	.cfi_def_cfa_offset 32
	str	r0, [sp, #20]
	str	r1, [sp, #16]
	str	r2, [sp, #12]
.Ltmp170:
	.loc	2 377 26 prologue_end           @ rt-thread/components/drivers/sdio/sdio.c:377:26
	ldr	r0, [sp, #16]
	.loc	2 377 17 is_stmt 0              @ rt-thread/components/drivers/sdio/sdio.c:377:17
	str	r0, [sp, #8]
	.loc	2 379 38 is_stmt 1              @ rt-thread/components/drivers/sdio/sdio.c:379:38
	ldr	r0, [sp, #20]
	.loc	2 379 47 is_stmt 0              @ rt-thread/components/drivers/sdio/sdio.c:379:47
	ldr	r2, [sp, #12]
	.loc	2 379 12                        @ rt-thread/components/drivers/sdio/sdio.c:379:12
	mov	r3, sp
	movs	r1, #4
	str	r1, [r3, #4]
	add	r1, sp, #8
	str	r1, [r3]
	movs	r3, #1
	mov	r1, r3
	bl	sdio_io_rw_extended_block
	.loc	2 379 5                         @ rt-thread/components/drivers/sdio/sdio.c:379:5
	add	sp, #24
	pop	{r7, pc}
.Ltmp171:
.Lfunc_end11:
	.size	sdio_io_writel, .Lfunc_end11-sdio_io_writel
	.cfi_endproc
	.cantunwind
	.fnend
                                        @ -- End function
	.section	.text.sdio_io_read_multi_fifo_b,"ax",%progbits
	.hidden	sdio_io_read_multi_fifo_b       @ -- Begin function sdio_io_read_multi_fifo_b
	.globl	sdio_io_read_multi_fifo_b
	.p2align	3
	.type	sdio_io_read_multi_fifo_b,%function
	.code	16                              @ @sdio_io_read_multi_fifo_b
	.thumb_func
sdio_io_read_multi_fifo_b:
.Lfunc_begin12:
	.loc	2 386 0 is_stmt 1               @ rt-thread/components/drivers/sdio/sdio.c:386:0
	.fnstart
	.cfi_startproc
@ %bb.0:
	.save	{r7, lr}
	push	{r7, lr}
	.cfi_def_cfa_offset 8
	.cfi_offset lr, -4
	.cfi_offset r7, -8
	.pad	#24
	sub	sp, #24
	.cfi_def_cfa_offset 32
	str	r0, [sp, #20]
	str	r1, [sp, #16]
	str	r2, [sp, #12]
	str	r3, [sp, #8]
.Ltmp172:
	.loc	2 387 38 prologue_end           @ rt-thread/components/drivers/sdio/sdio.c:387:38
	ldr	r0, [sp, #20]
	.loc	2 387 47 is_stmt 0              @ rt-thread/components/drivers/sdio/sdio.c:387:47
	ldr	r2, [sp, #16]
	.loc	2 387 56                        @ rt-thread/components/drivers/sdio/sdio.c:387:56
	ldr	r1, [sp, #12]
	.loc	2 387 61                        @ rt-thread/components/drivers/sdio/sdio.c:387:61
	ldr.w	r12, [sp, #8]
	.loc	2 387 12                        @ rt-thread/components/drivers/sdio/sdio.c:387:12
	mov	r3, sp
	str.w	r12, [r3, #4]
	str	r1, [r3]
	movs	r3, #0
	mov	r1, r3
	bl	sdio_io_rw_extended_block
	.loc	2 387 5                         @ rt-thread/components/drivers/sdio/sdio.c:387:5
	add	sp, #24
	pop	{r7, pc}
.Ltmp173:
.Lfunc_end12:
	.size	sdio_io_read_multi_fifo_b, .Lfunc_end12-sdio_io_read_multi_fifo_b
	.cfi_endproc
	.cantunwind
	.fnend
                                        @ -- End function
	.section	.text.sdio_io_write_multi_fifo_b,"ax",%progbits
	.hidden	sdio_io_write_multi_fifo_b      @ -- Begin function sdio_io_write_multi_fifo_b
	.globl	sdio_io_write_multi_fifo_b
	.p2align	3
	.type	sdio_io_write_multi_fifo_b,%function
	.code	16                              @ @sdio_io_write_multi_fifo_b
	.thumb_func
sdio_io_write_multi_fifo_b:
.Lfunc_begin13:
	.loc	2 394 0 is_stmt 1               @ rt-thread/components/drivers/sdio/sdio.c:394:0
	.fnstart
	.cfi_startproc
@ %bb.0:
	.save	{r7, lr}
	push	{r7, lr}
	.cfi_def_cfa_offset 8
	.cfi_offset lr, -4
	.cfi_offset r7, -8
	.pad	#24
	sub	sp, #24
	.cfi_def_cfa_offset 32
	str	r0, [sp, #20]
	str	r1, [sp, #16]
	str	r2, [sp, #12]
	str	r3, [sp, #8]
.Ltmp174:
	.loc	2 395 38 prologue_end           @ rt-thread/components/drivers/sdio/sdio.c:395:38
	ldr	r0, [sp, #20]
	.loc	2 395 47 is_stmt 0              @ rt-thread/components/drivers/sdio/sdio.c:395:47
	ldr	r2, [sp, #16]
	.loc	2 395 56                        @ rt-thread/components/drivers/sdio/sdio.c:395:56
	ldr	r1, [sp, #12]
	.loc	2 395 61                        @ rt-thread/components/drivers/sdio/sdio.c:395:61
	ldr.w	r12, [sp, #8]
	.loc	2 395 12                        @ rt-thread/components/drivers/sdio/sdio.c:395:12
	mov	r3, sp
	str.w	r12, [r3, #4]
	str	r1, [r3]
	movs	r1, #1
	movs	r3, #0
	bl	sdio_io_rw_extended_block
	.loc	2 395 5                         @ rt-thread/components/drivers/sdio/sdio.c:395:5
	add	sp, #24
	pop	{r7, pc}
.Ltmp175:
.Lfunc_end13:
	.size	sdio_io_write_multi_fifo_b, .Lfunc_end13-sdio_io_write_multi_fifo_b
	.cfi_endproc
	.cantunwind
	.fnend
                                        @ -- End function
	.section	.text.sdio_io_read_multi_incr_b,"ax",%progbits
	.hidden	sdio_io_read_multi_incr_b       @ -- Begin function sdio_io_read_multi_incr_b
	.globl	sdio_io_read_multi_incr_b
	.p2align	3
	.type	sdio_io_read_multi_incr_b,%function
	.code	16                              @ @sdio_io_read_multi_incr_b
	.thumb_func
sdio_io_read_multi_incr_b:
.Lfunc_begin14:
	.loc	2 402 0 is_stmt 1               @ rt-thread/components/drivers/sdio/sdio.c:402:0
	.fnstart
	.cfi_startproc
@ %bb.0:
	.save	{r7, lr}
	push	{r7, lr}
	.cfi_def_cfa_offset 8
	.cfi_offset lr, -4
	.cfi_offset r7, -8
	.pad	#24
	sub	sp, #24
	.cfi_def_cfa_offset 32
	str	r0, [sp, #20]
	str	r1, [sp, #16]
	str	r2, [sp, #12]
	str	r3, [sp, #8]
.Ltmp176:
	.loc	2 403 38 prologue_end           @ rt-thread/components/drivers/sdio/sdio.c:403:38
	ldr	r0, [sp, #20]
	.loc	2 403 47 is_stmt 0              @ rt-thread/components/drivers/sdio/sdio.c:403:47
	ldr	r2, [sp, #16]
	.loc	2 403 56                        @ rt-thread/components/drivers/sdio/sdio.c:403:56
	ldr	r1, [sp, #12]
	.loc	2 403 61                        @ rt-thread/components/drivers/sdio/sdio.c:403:61
	ldr.w	r12, [sp, #8]
	.loc	2 403 12                        @ rt-thread/components/drivers/sdio/sdio.c:403:12
	mov	r3, sp
	str.w	r12, [r3, #4]
	str	r1, [r3]
	movs	r1, #0
	movs	r3, #1
	bl	sdio_io_rw_extended_block
	.loc	2 403 5                         @ rt-thread/components/drivers/sdio/sdio.c:403:5
	add	sp, #24
	pop	{r7, pc}
.Ltmp177:
.Lfunc_end14:
	.size	sdio_io_read_multi_incr_b, .Lfunc_end14-sdio_io_read_multi_incr_b
	.cfi_endproc
	.cantunwind
	.fnend
                                        @ -- End function
	.section	.text.sdio_io_write_multi_incr_b,"ax",%progbits
	.hidden	sdio_io_write_multi_incr_b      @ -- Begin function sdio_io_write_multi_incr_b
	.globl	sdio_io_write_multi_incr_b
	.p2align	3
	.type	sdio_io_write_multi_incr_b,%function
	.code	16                              @ @sdio_io_write_multi_incr_b
	.thumb_func
sdio_io_write_multi_incr_b:
.Lfunc_begin15:
	.loc	2 410 0 is_stmt 1               @ rt-thread/components/drivers/sdio/sdio.c:410:0
	.fnstart
	.cfi_startproc
@ %bb.0:
	.save	{r7, lr}
	push	{r7, lr}
	.cfi_def_cfa_offset 8
	.cfi_offset lr, -4
	.cfi_offset r7, -8
	.pad	#24
	sub	sp, #24
	.cfi_def_cfa_offset 32
	str	r0, [sp, #20]
	str	r1, [sp, #16]
	str	r2, [sp, #12]
	str	r3, [sp, #8]
.Ltmp178:
	.loc	2 411 38 prologue_end           @ rt-thread/components/drivers/sdio/sdio.c:411:38
	ldr	r0, [sp, #20]
	.loc	2 411 47 is_stmt 0              @ rt-thread/components/drivers/sdio/sdio.c:411:47
	ldr	r2, [sp, #16]
	.loc	2 411 56                        @ rt-thread/components/drivers/sdio/sdio.c:411:56
	ldr	r1, [sp, #12]
	.loc	2 411 61                        @ rt-thread/components/drivers/sdio/sdio.c:411:61
	ldr.w	r12, [sp, #8]
	.loc	2 411 12                        @ rt-thread/components/drivers/sdio/sdio.c:411:12
	mov	r3, sp
	str.w	r12, [r3, #4]
	str	r1, [r3]
	movs	r3, #1
	mov	r1, r3
	bl	sdio_io_rw_extended_block
	.loc	2 411 5                         @ rt-thread/components/drivers/sdio/sdio.c:411:5
	add	sp, #24
	pop	{r7, pc}
.Ltmp179:
.Lfunc_end15:
	.size	sdio_io_write_multi_incr_b, .Lfunc_end15-sdio_io_write_multi_incr_b
	.cfi_endproc
	.cantunwind
	.fnend
                                        @ -- End function
	.section	.text.sdio_free_cis,"ax",%progbits
	.hidden	sdio_free_cis                   @ -- Begin function sdio_free_cis
	.globl	sdio_free_cis
	.p2align	3
	.type	sdio_free_cis,%function
	.code	16                              @ @sdio_free_cis
	.thumb_func
sdio_free_cis:
.Lfunc_begin16:
	.loc	2 641 0 is_stmt 1               @ rt-thread/components/drivers/sdio/sdio.c:641:0
	.fnstart
	.cfi_startproc
@ %bb.0:
	.save	{r7, lr}
	push	{r7, lr}
	.cfi_def_cfa_offset 8
	.cfi_offset lr, -4
	.cfi_offset r7, -8
	.pad	#24
	sub	sp, #24
	.cfi_def_cfa_offset 32
	str	r0, [sp, #20]
.Ltmp180:
	.loc	2 643 34 prologue_end           @ rt-thread/components/drivers/sdio/sdio.c:643:34
	ldr	r0, [sp, #20]
	.loc	2 643 40 is_stmt 0              @ rt-thread/components/drivers/sdio/sdio.c:643:40
	ldr	r0, [r0]
	.loc	2 643 27                        @ rt-thread/components/drivers/sdio/sdio.c:643:27
	str	r0, [sp, #8]
	.loc	2 645 13 is_stmt 1              @ rt-thread/components/drivers/sdio/sdio.c:645:13
	ldr	r0, [sp, #20]
	.loc	2 645 19 is_stmt 0              @ rt-thread/components/drivers/sdio/sdio.c:645:19
	ldr	r0, [r0, #28]
	.loc	2 645 11                        @ rt-thread/components/drivers/sdio/sdio.c:645:11
	str	r0, [sp, #16]
	.loc	2 647 5 is_stmt 1               @ rt-thread/components/drivers/sdio/sdio.c:647:5
	b	.LBB16_1
.LBB16_1:                               @ =>This Inner Loop Header: Depth=1
	.loc	2 647 12 is_stmt 0              @ rt-thread/components/drivers/sdio/sdio.c:647:12
	ldr	r1, [sp, #16]
	movs	r0, #0
	.loc	2 647 18                        @ rt-thread/components/drivers/sdio/sdio.c:647:18
	str	r0, [sp, #4]                    @ 4-byte Spill
	cbz	r1, .LBB16_5
	b	.LBB16_2
.LBB16_2:                               @   in Loop: Header=BB16_1 Depth=1
	.loc	2 647 23                        @ rt-thread/components/drivers/sdio/sdio.c:647:23
	ldr	r1, [sp, #16]
	.loc	2 647 32                        @ rt-thread/components/drivers/sdio/sdio.c:647:32
	ldr	r0, [sp, #8]
	ldr	r0, [r0, #124]
	.loc	2 647 56                        @ rt-thread/components/drivers/sdio/sdio.c:647:56
	ldr	r2, [r0, #28]
	movs	r0, #1
	.loc	2 647 64                        @ rt-thread/components/drivers/sdio/sdio.c:647:64
	cmp	r1, r2
	str	r0, [sp]                        @ 4-byte Spill
	bne	.LBB16_4
	b	.LBB16_3
.LBB16_3:                               @   in Loop: Header=BB16_1 Depth=1
	.loc	2 647 69                        @ rt-thread/components/drivers/sdio/sdio.c:647:69
	ldr	r0, [sp, #20]
	.loc	2 647 75                        @ rt-thread/components/drivers/sdio/sdio.c:647:75
	ldrb	r0, [r0, #8]
	.loc	2 647 68                        @ rt-thread/components/drivers/sdio/sdio.c:647:68
	clz	r0, r0
	lsrs	r0, r0, #5
	.loc	2 647 64                        @ rt-thread/components/drivers/sdio/sdio.c:647:64
	str	r0, [sp]                        @ 4-byte Spill
	b	.LBB16_4
.LBB16_4:                               @   in Loop: Header=BB16_1 Depth=1
	.loc	2 0 64                          @ rt-thread/components/drivers/sdio/sdio.c:0:64
	ldr	r0, [sp]                        @ 4-byte Reload
	str	r0, [sp, #4]                    @ 4-byte Spill
	b	.LBB16_5
.LBB16_5:                               @   in Loop: Header=BB16_1 Depth=1
	ldr	r0, [sp, #4]                    @ 4-byte Reload
	.loc	2 647 5                         @ rt-thread/components/drivers/sdio/sdio.c:647:5
	lsls	r0, r0, #31
	cbz	r0, .LBB16_7
	b	.LBB16_6
.LBB16_6:                               @   in Loop: Header=BB16_1 Depth=1
.Ltmp181:
	.loc	2 649 15 is_stmt 1              @ rt-thread/components/drivers/sdio/sdio.c:649:15
	ldr	r0, [sp, #16]
	.loc	2 649 13 is_stmt 0              @ rt-thread/components/drivers/sdio/sdio.c:649:13
	str	r0, [sp, #12]
	.loc	2 650 17 is_stmt 1              @ rt-thread/components/drivers/sdio/sdio.c:650:17
	ldr	r0, [sp, #16]
	.loc	2 650 24 is_stmt 0              @ rt-thread/components/drivers/sdio/sdio.c:650:24
	ldr	r0, [r0]
	.loc	2 650 15                        @ rt-thread/components/drivers/sdio/sdio.c:650:15
	str	r0, [sp, #16]
	.loc	2 651 17 is_stmt 1              @ rt-thread/components/drivers/sdio/sdio.c:651:17
	ldr	r0, [sp, #12]
	.loc	2 651 9 is_stmt 0               @ rt-thread/components/drivers/sdio/sdio.c:651:9
	bl	rt_free
.Ltmp182:
	.loc	2 647 5 is_stmt 1               @ rt-thread/components/drivers/sdio/sdio.c:647:5
	b	.LBB16_1
.LBB16_7:
	.loc	2 654 5                         @ rt-thread/components/drivers/sdio/sdio.c:654:5
	ldr	r1, [sp, #20]
	movs	r0, #0
	.loc	2 654 18 is_stmt 0              @ rt-thread/components/drivers/sdio/sdio.c:654:18
	str	r0, [r1, #28]
	.loc	2 655 1 is_stmt 1               @ rt-thread/components/drivers/sdio/sdio.c:655:1
	add	sp, #24
	pop	{r7, pc}
.Ltmp183:
.Lfunc_end16:
	.size	sdio_free_cis, .Lfunc_end16-sdio_free_cis
	.cfi_endproc
	.cantunwind
	.fnend
                                        @ -- End function
	.section	.text.init_sdio,"ax",%progbits
	.hidden	init_sdio                       @ -- Begin function init_sdio
	.globl	init_sdio
	.p2align	3
	.type	init_sdio,%function
	.code	16                              @ @init_sdio
	.thumb_func
init_sdio:
.Lfunc_begin17:
	.loc	2 958 0                         @ rt-thread/components/drivers/sdio/sdio.c:958:0
	.fnstart
	.cfi_startproc
@ %bb.0:
	.save	{r7, lr}
	push	{r7, lr}
	.cfi_def_cfa_offset 8
	.cfi_offset lr, -4
	.cfi_offset r7, -8
	.pad	#24
	sub	sp, #24
	.cfi_def_cfa_offset 32
	str	r0, [sp, #16]
	str	r1, [sp, #12]
.Ltmp184:
	.loc	2 962 5 prologue_end            @ rt-thread/components/drivers/sdio/sdio.c:962:5
	ldr	r0, [sp, #16]
.Ltmp185:
	.loc	2 962 5 is_stmt 0               @ rt-thread/components/drivers/sdio/sdio.c:962:5
	cbnz	r0, .LBB17_2
	b	.LBB17_1
.LBB17_1:
.Ltmp186:
	.loc	2 962 5                         @ rt-thread/components/drivers/sdio/sdio.c:962:5
	movw	r0, :lower16:.L.str
	movt	r0, :upper16:.L.str
	movw	r1, :lower16:.L__FUNCTION__.init_sdio
	movt	r1, :upper16:.L__FUNCTION__.init_sdio
	movw	r2, #962
	bl	rt_assert_handler
	b	.LBB17_2
.Ltmp187:
.LBB17_2:
	.loc	2 964 9 is_stmt 1               @ rt-thread/components/drivers/sdio/sdio.c:964:9
	ldrb.w	r0, [sp, #12]
	lsls	r0, r0, #25
	cbz	r0, .LBB17_6
	b	.LBB17_3
.LBB17_3:
.Ltmp188:
	.loc	2 966 9                         @ rt-thread/components/drivers/sdio/sdio.c:966:9
	b	.LBB17_4
.LBB17_4:
.Ltmp189:
	.loc	2 966 9 is_stmt 0               @ rt-thread/components/drivers/sdio/sdio.c:966:9
	movw	r0, :lower16:.L.str.7
	movt	r0, :upper16:.L.str.7
	bl	rt_kprintf
	movw	r0, :lower16:.L.str.8
	movt	r0, :upper16:.L.str.8
	bl	rt_kprintf
	movw	r0, :lower16:.L.str.9
	movt	r0, :upper16:.L.str.9
	bl	rt_kprintf
	b	.LBB17_5
.Ltmp190:
.LBB17_5:
	.loc	2 967 13 is_stmt 1              @ rt-thread/components/drivers/sdio/sdio.c:967:13
	ldr	r0, [sp, #12]
	bic	r0, r0, #127
	str	r0, [sp, #12]
	.loc	2 968 5                         @ rt-thread/components/drivers/sdio/sdio.c:968:5
	b	.LBB17_6
.Ltmp191:
.LBB17_6:
	.loc	2 970 9                         @ rt-thread/components/drivers/sdio/sdio.c:970:9
	ldrb.w	r0, [sp, #12]
	lsls	r0, r0, #24
	cmp	r0, #0
	bpl	.LBB17_10
	b	.LBB17_7
.LBB17_7:
.Ltmp192:
	.loc	2 972 9                         @ rt-thread/components/drivers/sdio/sdio.c:972:9
	b	.LBB17_8
.LBB17_8:
.Ltmp193:
	.loc	2 972 9 is_stmt 0               @ rt-thread/components/drivers/sdio/sdio.c:972:9
	movw	r0, :lower16:.L.str.7
	movt	r0, :upper16:.L.str.7
	bl	rt_kprintf
	movw	r0, :lower16:.L.str.10
	movt	r0, :upper16:.L.str.10
	bl	rt_kprintf
	movw	r0, :lower16:.L.str.9
	movt	r0, :upper16:.L.str.9
	bl	rt_kprintf
	b	.LBB17_9
.Ltmp194:
.LBB17_9:
	.loc	2 973 13 is_stmt 1              @ rt-thread/components/drivers/sdio/sdio.c:973:13
	ldr	r0, [sp, #12]
	bic	r0, r0, #128
	str	r0, [sp, #12]
	.loc	2 974 5                         @ rt-thread/components/drivers/sdio/sdio.c:974:5
	b	.LBB17_10
.Ltmp195:
.LBB17_10:
	.loc	2 976 40                        @ rt-thread/components/drivers/sdio/sdio.c:976:40
	ldr	r0, [sp, #16]
	.loc	2 976 46 is_stmt 0              @ rt-thread/components/drivers/sdio/sdio.c:976:46
	ldr	r1, [sp, #12]
	.loc	2 976 19                        @ rt-thread/components/drivers/sdio/sdio.c:976:19
	bl	mmcsd_select_voltage
	.loc	2 976 17                        @ rt-thread/components/drivers/sdio/sdio.c:976:17
	str	r0, [sp, #4]
.Ltmp196:
	.loc	2 978 10 is_stmt 1              @ rt-thread/components/drivers/sdio/sdio.c:978:10
	ldr	r0, [sp, #4]
.Ltmp197:
	.loc	2 978 9 is_stmt 0               @ rt-thread/components/drivers/sdio/sdio.c:978:9
	cbnz	r0, .LBB17_12
	b	.LBB17_11
.LBB17_11:
	.loc	2 0 9                           @ rt-thread/components/drivers/sdio/sdio.c:0:9
	mov.w	r0, #-1
.Ltmp198:
	.loc	2 980 13 is_stmt 1              @ rt-thread/components/drivers/sdio/sdio.c:980:13
	str	r0, [sp, #8]
	.loc	2 981 9                         @ rt-thread/components/drivers/sdio/sdio.c:981:9
	b	.LBB17_16
.Ltmp199:
.LBB17_12:
	.loc	2 984 26                        @ rt-thread/components/drivers/sdio/sdio.c:984:26
	ldr	r0, [sp, #16]
	.loc	2 984 32 is_stmt 0              @ rt-thread/components/drivers/sdio/sdio.c:984:32
	ldr	r1, [sp, #4]
	.loc	2 984 11                        @ rt-thread/components/drivers/sdio/sdio.c:984:11
	bl	sdio_init_card
	.loc	2 984 9                         @ rt-thread/components/drivers/sdio/sdio.c:984:9
	str	r0, [sp, #8]
.Ltmp200:
	.loc	2 985 9 is_stmt 1               @ rt-thread/components/drivers/sdio/sdio.c:985:9
	ldr	r0, [sp, #8]
.Ltmp201:
	.loc	2 985 9 is_stmt 0               @ rt-thread/components/drivers/sdio/sdio.c:985:9
	cbz	r0, .LBB17_14
	b	.LBB17_13
.LBB17_13:
.Ltmp202:
	.loc	2 986 9 is_stmt 1               @ rt-thread/components/drivers/sdio/sdio.c:986:9
	b	.LBB17_15
.Ltmp203:
.LBB17_14:
	.loc	2 0 9 is_stmt 0                 @ rt-thread/components/drivers/sdio/sdio.c:0:9
	movs	r0, #0
	.loc	2 988 5 is_stmt 1               @ rt-thread/components/drivers/sdio/sdio.c:988:5
	str	r0, [sp, #20]
	b	.LBB17_19
.LBB17_15:
.Ltmp204:
	@DEBUG_LABEL: init_sdio:remove_card
	.loc	2 991 13                        @ rt-thread/components/drivers/sdio/sdio.c:991:13
	ldr	r0, [sp, #16]
	.loc	2 991 19 is_stmt 0              @ rt-thread/components/drivers/sdio/sdio.c:991:19
	ldr	r0, [r0]
	.loc	2 991 5                         @ rt-thread/components/drivers/sdio/sdio.c:991:5
	bl	rt_free
	.loc	2 992 5 is_stmt 1               @ rt-thread/components/drivers/sdio/sdio.c:992:5
	ldr	r1, [sp, #16]
	movs	r0, #0
	.loc	2 992 16 is_stmt 0              @ rt-thread/components/drivers/sdio/sdio.c:992:16
	str	r0, [r1]
	.loc	2 992 5                         @ rt-thread/components/drivers/sdio/sdio.c:992:5
	b	.LBB17_16
.LBB17_16:
.Ltmp205:
	@DEBUG_LABEL: init_sdio:err
	.loc	2 995 5 is_stmt 1               @ rt-thread/components/drivers/sdio/sdio.c:995:5
	b	.LBB17_17
.LBB17_17:
.Ltmp206:
	.loc	2 995 5 is_stmt 0               @ rt-thread/components/drivers/sdio/sdio.c:995:5
	movw	r0, :lower16:.L.str.11
	movt	r0, :upper16:.L.str.11
	bl	rt_kprintf
	movw	r0, :lower16:.L.str.12
	movt	r0, :upper16:.L.str.12
	bl	rt_kprintf
	movw	r0, :lower16:.L.str.9
	movt	r0, :upper16:.L.str.9
	bl	rt_kprintf
	b	.LBB17_18
.Ltmp207:
.LBB17_18:
	.loc	2 997 12 is_stmt 1              @ rt-thread/components/drivers/sdio/sdio.c:997:12
	ldr	r0, [sp, #8]
	.loc	2 997 5 is_stmt 0               @ rt-thread/components/drivers/sdio/sdio.c:997:5
	str	r0, [sp, #20]
	b	.LBB17_19
.LBB17_19:
	.loc	2 998 1 is_stmt 1               @ rt-thread/components/drivers/sdio/sdio.c:998:1
	ldr	r0, [sp, #20]
	add	sp, #24
	pop	{r7, pc}
.Ltmp208:
.Lfunc_end17:
	.size	init_sdio, .Lfunc_end17-init_sdio
	.cfi_endproc
	.cantunwind
	.fnend
                                        @ -- End function
	.section	.text.sdio_init_card,"ax",%progbits
	.p2align	3                               @ -- Begin function sdio_init_card
	.type	sdio_init_card,%function
	.code	16                              @ @sdio_init_card
	.thumb_func
sdio_init_card:
.Lfunc_begin18:
	.loc	2 821 0                         @ rt-thread/components/drivers/sdio/sdio.c:821:0
	.fnstart
	.cfi_startproc
@ %bb.0:
	.save	{r7, lr}
	push	{r7, lr}
	.cfi_def_cfa_offset 8
	.cfi_offset lr, -4
	.cfi_offset r7, -8
	.pad	#40
	sub	sp, #40
	.cfi_def_cfa_offset 48
	str	r0, [sp, #32]
	str	r1, [sp, #28]
	movs	r0, #0
.Ltmp209:
	.loc	2 822 16 prologue_end           @ rt-thread/components/drivers/sdio/sdio.c:822:16
	str	r0, [sp, #24]
	.loc	2 827 32                        @ rt-thread/components/drivers/sdio/sdio.c:827:32
	ldr	r0, [sp, #32]
	.loc	2 827 38 is_stmt 0              @ rt-thread/components/drivers/sdio/sdio.c:827:38
	ldr	r1, [sp, #28]
	add	r2, sp, #12
	.loc	2 827 11                        @ rt-thread/components/drivers/sdio/sdio.c:827:11
	bl	sdio_io_send_op_cond
	.loc	2 827 9                         @ rt-thread/components/drivers/sdio/sdio.c:827:9
	str	r0, [sp, #24]
.Ltmp210:
	.loc	2 828 9 is_stmt 1               @ rt-thread/components/drivers/sdio/sdio.c:828:9
	ldr	r0, [sp, #24]
.Ltmp211:
	.loc	2 828 9 is_stmt 0               @ rt-thread/components/drivers/sdio/sdio.c:828:9
	cbz	r0, .LBB18_2
	b	.LBB18_1
.LBB18_1:
.Ltmp212:
	.loc	2 829 9 is_stmt 1               @ rt-thread/components/drivers/sdio/sdio.c:829:9
	b	.LBB18_58
.Ltmp213:
.LBB18_2:
	.loc	2 831 9                         @ rt-thread/components/drivers/sdio/sdio.c:831:9
	ldr	r0, [sp, #32]
.Ltmp214:
	.loc	2 831 9 is_stmt 0               @ rt-thread/components/drivers/sdio/sdio.c:831:9
	ldrb.w	r0, [r0, #32]
	lsls	r0, r0, #28
	cmp	r0, #0
	bpl	.LBB18_6
	b	.LBB18_3
.LBB18_3:
.Ltmp215:
	.loc	2 833 33 is_stmt 1              @ rt-thread/components/drivers/sdio/sdio.c:833:33
	ldr	r0, [sp, #32]
	.loc	2 833 45 is_stmt 0              @ rt-thread/components/drivers/sdio/sdio.c:833:45
	ldr	r1, [r0, #52]
	.loc	2 833 15                        @ rt-thread/components/drivers/sdio/sdio.c:833:15
	bl	mmcsd_spi_use_crc
	.loc	2 833 13                        @ rt-thread/components/drivers/sdio/sdio.c:833:13
	str	r0, [sp, #24]
.Ltmp216:
	.loc	2 834 13 is_stmt 1              @ rt-thread/components/drivers/sdio/sdio.c:834:13
	ldr	r0, [sp, #24]
.Ltmp217:
	.loc	2 834 13 is_stmt 0              @ rt-thread/components/drivers/sdio/sdio.c:834:13
	cbz	r0, .LBB18_5
	b	.LBB18_4
.LBB18_4:
.Ltmp218:
	.loc	2 835 13 is_stmt 1              @ rt-thread/components/drivers/sdio/sdio.c:835:13
	b	.LBB18_58
.Ltmp219:
.LBB18_5:
	.loc	2 836 5                         @ rt-thread/components/drivers/sdio/sdio.c:836:5
	b	.LBB18_6
.Ltmp220:
.LBB18_6:
	.loc	2 838 21                        @ rt-thread/components/drivers/sdio/sdio.c:838:21
	ldr	r0, [sp, #12]
	.loc	2 838 45 is_stmt 0              @ rt-thread/components/drivers/sdio/sdio.c:838:45
	ubfx	r0, r0, #28, #3
	.loc	2 838 18                        @ rt-thread/components/drivers/sdio/sdio.c:838:18
	str	r0, [sp, #16]
	movs	r0, #156
	.loc	2 840 12 is_stmt 1              @ rt-thread/components/drivers/sdio/sdio.c:840:12
	bl	rt_malloc
	.loc	2 840 10 is_stmt 0              @ rt-thread/components/drivers/sdio/sdio.c:840:10
	str	r0, [sp, #8]
.Ltmp221:
	.loc	2 841 10 is_stmt 1              @ rt-thread/components/drivers/sdio/sdio.c:841:10
	ldr	r0, [sp, #8]
.Ltmp222:
	.loc	2 841 9 is_stmt 0               @ rt-thread/components/drivers/sdio/sdio.c:841:9
	cbnz	r0, .LBB18_10
	b	.LBB18_7
.LBB18_7:
.Ltmp223:
	.loc	2 843 9 is_stmt 1               @ rt-thread/components/drivers/sdio/sdio.c:843:9
	b	.LBB18_8
.LBB18_8:
.Ltmp224:
	.loc	2 843 9 is_stmt 0               @ rt-thread/components/drivers/sdio/sdio.c:843:9
	movw	r0, :lower16:.L.str.11
	movt	r0, :upper16:.L.str.11
	bl	rt_kprintf
	movw	r0, :lower16:.L.str.17
	movt	r0, :upper16:.L.str.17
	bl	rt_kprintf
	movw	r0, :lower16:.L.str.9
	movt	r0, :upper16:.L.str.9
	bl	rt_kprintf
	b	.LBB18_9
.Ltmp225:
.LBB18_9:
	.loc	2 0 9                           @ rt-thread/components/drivers/sdio/sdio.c:0:9
	mvn	r0, #4
	.loc	2 844 13 is_stmt 1              @ rt-thread/components/drivers/sdio/sdio.c:844:13
	str	r0, [sp, #24]
	.loc	2 845 9                         @ rt-thread/components/drivers/sdio/sdio.c:845:9
	b	.LBB18_58
.Ltmp226:
.LBB18_10:
	.loc	2 847 15                        @ rt-thread/components/drivers/sdio/sdio.c:847:15
	ldr	r0, [sp, #8]
	movs	r1, #0
	movs	r2, #156
	.loc	2 847 5 is_stmt 0               @ rt-thread/components/drivers/sdio/sdio.c:847:5
	bl	rt_memset
	.loc	2 849 5 is_stmt 1               @ rt-thread/components/drivers/sdio/sdio.c:849:5
	ldr	r1, [sp, #8]
	movs	r0, #2
	.loc	2 849 21 is_stmt 0              @ rt-thread/components/drivers/sdio/sdio.c:849:21
	strh.w	r0, [r1, #72]
	.loc	2 850 31 is_stmt 1              @ rt-thread/components/drivers/sdio/sdio.c:850:31
	ldr	r0, [sp, #16]
	.loc	2 850 5 is_stmt 0               @ rt-thread/components/drivers/sdio/sdio.c:850:5
	ldr	r1, [sp, #8]
	.loc	2 850 29                        @ rt-thread/components/drivers/sdio/sdio.c:850:29
	strb.w	r0, [r1, #104]
	.loc	2 851 18 is_stmt 1              @ rt-thread/components/drivers/sdio/sdio.c:851:18
	ldr	r0, [sp, #32]
	.loc	2 851 5 is_stmt 0               @ rt-thread/components/drivers/sdio/sdio.c:851:5
	ldr	r1, [sp, #8]
	.loc	2 851 16                        @ rt-thread/components/drivers/sdio/sdio.c:851:16
	str	r0, [r1]
	.loc	2 852 18 is_stmt 1              @ rt-thread/components/drivers/sdio/sdio.c:852:18
	ldr	r0, [sp, #8]
	.loc	2 852 5 is_stmt 0               @ rt-thread/components/drivers/sdio/sdio.c:852:5
	ldr	r1, [sp, #32]
	.loc	2 852 16                        @ rt-thread/components/drivers/sdio/sdio.c:852:16
	str	r0, [r1]
	movs	r0, #36
	.loc	2 854 30 is_stmt 1              @ rt-thread/components/drivers/sdio/sdio.c:854:30
	bl	rt_malloc
	.loc	2 854 5 is_stmt 0               @ rt-thread/components/drivers/sdio/sdio.c:854:5
	ldr	r1, [sp, #8]
	.loc	2 854 28                        @ rt-thread/components/drivers/sdio/sdio.c:854:28
	str	r0, [r1, #124]
.Ltmp227:
	.loc	2 855 10 is_stmt 1              @ rt-thread/components/drivers/sdio/sdio.c:855:10
	ldr	r0, [sp, #8]
	ldr	r0, [r0, #124]
.Ltmp228:
	.loc	2 855 9 is_stmt 0               @ rt-thread/components/drivers/sdio/sdio.c:855:9
	cbnz	r0, .LBB18_14
	b	.LBB18_11
.LBB18_11:
.Ltmp229:
	.loc	2 857 9 is_stmt 1               @ rt-thread/components/drivers/sdio/sdio.c:857:9
	b	.LBB18_12
.LBB18_12:
.Ltmp230:
	.loc	2 857 9 is_stmt 0               @ rt-thread/components/drivers/sdio/sdio.c:857:9
	movw	r0, :lower16:.L.str.11
	movt	r0, :upper16:.L.str.11
	bl	rt_kprintf
	movw	r0, :lower16:.L.str.18
	movt	r0, :upper16:.L.str.18
	bl	rt_kprintf
	movw	r0, :lower16:.L.str.9
	movt	r0, :upper16:.L.str.9
	bl	rt_kprintf
	b	.LBB18_13
.Ltmp231:
.LBB18_13:
	.loc	2 0 9                           @ rt-thread/components/drivers/sdio/sdio.c:0:9
	mvn	r0, #4
	.loc	2 858 13 is_stmt 1              @ rt-thread/components/drivers/sdio/sdio.c:858:13
	str	r0, [sp, #24]
	.loc	2 859 9                         @ rt-thread/components/drivers/sdio/sdio.c:859:9
	b	.LBB18_55
.Ltmp232:
.LBB18_14:
	.loc	2 861 15                        @ rt-thread/components/drivers/sdio/sdio.c:861:15
	ldr	r0, [sp, #8]
	ldr	r0, [r0, #124]
	movs	r1, #0
	str	r1, [sp, #4]                    @ 4-byte Spill
	movs	r2, #36
	.loc	2 861 5 is_stmt 0               @ rt-thread/components/drivers/sdio/sdio.c:861:5
	bl	rt_memset
                                        @ kill: def $r1 killed $r0
	.loc	2 862 36 is_stmt 1              @ rt-thread/components/drivers/sdio/sdio.c:862:36
	ldr	r0, [sp, #4]                    @ 4-byte Reload
	ldr	r1, [sp, #8]
	.loc	2 862 5 is_stmt 0               @ rt-thread/components/drivers/sdio/sdio.c:862:5
	ldr	r2, [r1, #124]
	.loc	2 862 34                        @ rt-thread/components/drivers/sdio/sdio.c:862:34
	str	r1, [r2]
	.loc	2 863 5 is_stmt 1               @ rt-thread/components/drivers/sdio/sdio.c:863:5
	ldr	r1, [sp, #8]
	ldr	r1, [r1, #124]
	.loc	2 863 33 is_stmt 0              @ rt-thread/components/drivers/sdio/sdio.c:863:33
	strb	r0, [r1, #8]
.Ltmp233:
	.loc	2 865 10 is_stmt 1              @ rt-thread/components/drivers/sdio/sdio.c:865:10
	ldr	r0, [sp, #32]
.Ltmp234:
	.loc	2 865 9 is_stmt 0               @ rt-thread/components/drivers/sdio/sdio.c:865:9
	ldrb.w	r0, [r0, #32]
	lsls	r0, r0, #28
	cmp	r0, #0
	bmi	.LBB18_18
	b	.LBB18_15
.LBB18_15:
.Ltmp235:
	.loc	2 867 35 is_stmt 1              @ rt-thread/components/drivers/sdio/sdio.c:867:35
	ldr	r0, [sp, #32]
	.loc	2 867 42 is_stmt 0              @ rt-thread/components/drivers/sdio/sdio.c:867:42
	ldr	r1, [sp, #8]
	.loc	2 867 48                        @ rt-thread/components/drivers/sdio/sdio.c:867:48
	adds	r1, #4
	.loc	2 867 15                        @ rt-thread/components/drivers/sdio/sdio.c:867:15
	bl	mmcsd_get_card_addr
	.loc	2 867 13                        @ rt-thread/components/drivers/sdio/sdio.c:867:13
	str	r0, [sp, #24]
.Ltmp236:
	.loc	2 868 13 is_stmt 1              @ rt-thread/components/drivers/sdio/sdio.c:868:13
	ldr	r0, [sp, #24]
.Ltmp237:
	.loc	2 868 13 is_stmt 0              @ rt-thread/components/drivers/sdio/sdio.c:868:13
	cbz	r0, .LBB18_17
	b	.LBB18_16
.LBB18_16:
.Ltmp238:
	.loc	2 869 13 is_stmt 1              @ rt-thread/components/drivers/sdio/sdio.c:869:13
	b	.LBB18_51
.Ltmp239:
.LBB18_17:
	.loc	2 871 28                        @ rt-thread/components/drivers/sdio/sdio.c:871:28
	ldr	r0, [sp, #32]
	movs	r1, #2
	.loc	2 871 9 is_stmt 0               @ rt-thread/components/drivers/sdio/sdio.c:871:9
	bl	mmcsd_set_bus_mode
	.loc	2 872 5 is_stmt 1               @ rt-thread/components/drivers/sdio/sdio.c:872:5
	b	.LBB18_18
.Ltmp240:
.LBB18_18:
	.loc	2 874 10                        @ rt-thread/components/drivers/sdio/sdio.c:874:10
	ldr	r0, [sp, #32]
.Ltmp241:
	.loc	2 874 9 is_stmt 0               @ rt-thread/components/drivers/sdio/sdio.c:874:9
	ldrb.w	r0, [r0, #32]
	lsls	r0, r0, #28
	cmp	r0, #0
	bmi	.LBB18_22
	b	.LBB18_19
.LBB18_19:
.Ltmp242:
	.loc	2 876 33 is_stmt 1              @ rt-thread/components/drivers/sdio/sdio.c:876:33
	ldr	r0, [sp, #8]
	.loc	2 876 15 is_stmt 0              @ rt-thread/components/drivers/sdio/sdio.c:876:15
	bl	mmcsd_select_card
	.loc	2 876 13                        @ rt-thread/components/drivers/sdio/sdio.c:876:13
	str	r0, [sp, #24]
.Ltmp243:
	.loc	2 877 13 is_stmt 1              @ rt-thread/components/drivers/sdio/sdio.c:877:13
	ldr	r0, [sp, #24]
.Ltmp244:
	.loc	2 877 13 is_stmt 0              @ rt-thread/components/drivers/sdio/sdio.c:877:13
	cbz	r0, .LBB18_21
	b	.LBB18_20
.LBB18_20:
.Ltmp245:
	.loc	2 878 13 is_stmt 1              @ rt-thread/components/drivers/sdio/sdio.c:878:13
	b	.LBB18_51
.Ltmp246:
.LBB18_21:
	.loc	2 879 5                         @ rt-thread/components/drivers/sdio/sdio.c:879:5
	b	.LBB18_22
.Ltmp247:
.LBB18_22:
	.loc	2 881 26                        @ rt-thread/components/drivers/sdio/sdio.c:881:26
	ldr	r0, [sp, #8]
	.loc	2 881 11 is_stmt 0              @ rt-thread/components/drivers/sdio/sdio.c:881:11
	bl	sdio_read_cccr
	.loc	2 881 9                         @ rt-thread/components/drivers/sdio/sdio.c:881:9
	str	r0, [sp, #24]
.Ltmp248:
	.loc	2 882 9 is_stmt 1               @ rt-thread/components/drivers/sdio/sdio.c:882:9
	ldr	r0, [sp, #24]
.Ltmp249:
	.loc	2 882 9 is_stmt 0               @ rt-thread/components/drivers/sdio/sdio.c:882:9
	cbz	r0, .LBB18_24
	b	.LBB18_23
.LBB18_23:
.Ltmp250:
	.loc	2 883 9 is_stmt 1               @ rt-thread/components/drivers/sdio/sdio.c:883:9
	b	.LBB18_51
.Ltmp251:
.LBB18_24:
	.loc	2 885 25                        @ rt-thread/components/drivers/sdio/sdio.c:885:25
	ldr	r0, [sp, #8]
	ldr	r0, [r0, #124]
	.loc	2 885 11 is_stmt 0              @ rt-thread/components/drivers/sdio/sdio.c:885:11
	bl	sdio_read_cis
	.loc	2 885 9                         @ rt-thread/components/drivers/sdio/sdio.c:885:9
	str	r0, [sp, #24]
.Ltmp252:
	.loc	2 886 9 is_stmt 1               @ rt-thread/components/drivers/sdio/sdio.c:886:9
	ldr	r0, [sp, #24]
.Ltmp253:
	.loc	2 886 9 is_stmt 0               @ rt-thread/components/drivers/sdio/sdio.c:886:9
	cbz	r0, .LBB18_26
	b	.LBB18_25
.LBB18_25:
.Ltmp254:
	.loc	2 887 9 is_stmt 1               @ rt-thread/components/drivers/sdio/sdio.c:887:9
	b	.LBB18_51
.Ltmp255:
.LBB18_26:
	.loc	2 889 30                        @ rt-thread/components/drivers/sdio/sdio.c:889:30
	ldr	r0, [sp, #8]
	.loc	2 889 11 is_stmt 0              @ rt-thread/components/drivers/sdio/sdio.c:889:11
	bl	sdio_set_highspeed
	.loc	2 889 9                         @ rt-thread/components/drivers/sdio/sdio.c:889:9
	str	r0, [sp, #24]
.Ltmp256:
	.loc	2 890 9 is_stmt 1               @ rt-thread/components/drivers/sdio/sdio.c:890:9
	ldr	r0, [sp, #24]
.Ltmp257:
	.loc	2 890 9 is_stmt 0               @ rt-thread/components/drivers/sdio/sdio.c:890:9
	cbz	r0, .LBB18_28
	b	.LBB18_27
.LBB18_27:
.Ltmp258:
	.loc	2 891 9 is_stmt 1               @ rt-thread/components/drivers/sdio/sdio.c:891:9
	b	.LBB18_51
.Ltmp259:
.LBB18_28:
	.loc	2 893 9                         @ rt-thread/components/drivers/sdio/sdio.c:893:9
	ldr	r0, [sp, #8]
	ldrh.w	r0, [r0, #74]
.Ltmp260:
	.loc	2 893 9 is_stmt 0               @ rt-thread/components/drivers/sdio/sdio.c:893:9
	lsls	r0, r0, #31
	cbz	r0, .LBB18_30
	b	.LBB18_29
.LBB18_29:
.Ltmp261:
	.loc	2 895 25 is_stmt 1              @ rt-thread/components/drivers/sdio/sdio.c:895:25
	ldr	r0, [sp, #32]
	movw	r1, #61568
	movt	r1, #762
	.loc	2 895 9 is_stmt 0               @ rt-thread/components/drivers/sdio/sdio.c:895:9
	bl	mmcsd_set_clock
	.loc	2 896 5 is_stmt 1               @ rt-thread/components/drivers/sdio/sdio.c:896:5
	b	.LBB18_31
.Ltmp262:
.LBB18_30:
	.loc	2 899 25                        @ rt-thread/components/drivers/sdio/sdio.c:899:25
	ldr	r0, [sp, #32]
	.loc	2 899 31 is_stmt 0              @ rt-thread/components/drivers/sdio/sdio.c:899:31
	ldr	r1, [sp, #8]
	.loc	2 899 41                        @ rt-thread/components/drivers/sdio/sdio.c:899:41
	ldr	r1, [r1, #120]
	.loc	2 899 9                         @ rt-thread/components/drivers/sdio/sdio.c:899:9
	bl	mmcsd_set_clock
	b	.LBB18_31
.Ltmp263:
.LBB18_31:
	.loc	2 902 29 is_stmt 1              @ rt-thread/components/drivers/sdio/sdio.c:902:29
	ldr	r0, [sp, #8]
	.loc	2 902 11 is_stmt 0              @ rt-thread/components/drivers/sdio/sdio.c:902:11
	bl	sdio_set_bus_wide
	.loc	2 902 9                         @ rt-thread/components/drivers/sdio/sdio.c:902:9
	str	r0, [sp, #24]
.Ltmp264:
	.loc	2 903 9 is_stmt 1               @ rt-thread/components/drivers/sdio/sdio.c:903:9
	ldr	r0, [sp, #24]
.Ltmp265:
	.loc	2 903 9 is_stmt 0               @ rt-thread/components/drivers/sdio/sdio.c:903:9
	cbz	r0, .LBB18_33
	b	.LBB18_32
.LBB18_32:
.Ltmp266:
	.loc	2 904 9 is_stmt 1               @ rt-thread/components/drivers/sdio/sdio.c:904:9
	b	.LBB18_51
.Ltmp267:
.LBB18_33:
	.loc	2 0 9 is_stmt 0                 @ rt-thread/components/drivers/sdio/sdio.c:0:9
	movs	r0, #1
.Ltmp268:
	.loc	2 906 12 is_stmt 1              @ rt-thread/components/drivers/sdio/sdio.c:906:12
	str	r0, [sp, #20]
	.loc	2 906 10 is_stmt 0              @ rt-thread/components/drivers/sdio/sdio.c:906:10
	b	.LBB18_34
.LBB18_34:                              @ =>This Inner Loop Header: Depth=1
.Ltmp269:
	.loc	2 906 17                        @ rt-thread/components/drivers/sdio/sdio.c:906:17
	ldr	r0, [sp, #20]
	.loc	2 906 21                        @ rt-thread/components/drivers/sdio/sdio.c:906:21
	ldr	r1, [sp, #16]
	.loc	2 906 34                        @ rt-thread/components/drivers/sdio/sdio.c:906:34
	adds	r1, #1
.Ltmp270:
	.loc	2 906 5                         @ rt-thread/components/drivers/sdio/sdio.c:906:5
	cmp	r0, r1
	bge	.LBB18_39
	b	.LBB18_35
.LBB18_35:                              @   in Loop: Header=BB18_34 Depth=1
.Ltmp271:
	.loc	2 908 40 is_stmt 1              @ rt-thread/components/drivers/sdio/sdio.c:908:40
	ldr	r0, [sp, #8]
	.loc	2 908 46 is_stmt 0              @ rt-thread/components/drivers/sdio/sdio.c:908:46
	ldr	r1, [sp, #20]
	.loc	2 908 15                        @ rt-thread/components/drivers/sdio/sdio.c:908:15
	bl	sdio_initialize_function
	.loc	2 908 13                        @ rt-thread/components/drivers/sdio/sdio.c:908:13
	str	r0, [sp, #24]
.Ltmp272:
	.loc	2 909 13 is_stmt 1              @ rt-thread/components/drivers/sdio/sdio.c:909:13
	ldr	r0, [sp, #24]
.Ltmp273:
	.loc	2 909 13 is_stmt 0              @ rt-thread/components/drivers/sdio/sdio.c:909:13
	cbz	r0, .LBB18_37
	b	.LBB18_36
.LBB18_36:
.Ltmp274:
	.loc	2 910 13 is_stmt 1              @ rt-thread/components/drivers/sdio/sdio.c:910:13
	b	.LBB18_42
.Ltmp275:
.LBB18_37:                              @   in Loop: Header=BB18_34 Depth=1
	.loc	2 911 5                         @ rt-thread/components/drivers/sdio/sdio.c:911:5
	b	.LBB18_38
.Ltmp276:
.LBB18_38:                              @   in Loop: Header=BB18_34 Depth=1
	.loc	2 906 40                        @ rt-thread/components/drivers/sdio/sdio.c:906:40
	ldr	r0, [sp, #20]
	adds	r0, #1
	str	r0, [sp, #20]
	.loc	2 906 5 is_stmt 0               @ rt-thread/components/drivers/sdio/sdio.c:906:5
	b	.LBB18_34
.Ltmp277:
.LBB18_39:
	.loc	2 915 30 is_stmt 1              @ rt-thread/components/drivers/sdio/sdio.c:915:30
	ldr	r0, [sp, #8]
	.loc	2 915 11 is_stmt 0              @ rt-thread/components/drivers/sdio/sdio.c:915:11
	bl	sdio_register_card
	.loc	2 915 9                         @ rt-thread/components/drivers/sdio/sdio.c:915:9
	str	r0, [sp, #24]
.Ltmp278:
	.loc	2 916 9 is_stmt 1               @ rt-thread/components/drivers/sdio/sdio.c:916:9
	ldr	r0, [sp, #24]
.Ltmp279:
	.loc	2 916 9 is_stmt 0               @ rt-thread/components/drivers/sdio/sdio.c:916:9
	cbz	r0, .LBB18_41
	b	.LBB18_40
.LBB18_40:
.Ltmp280:
	.loc	2 918 9 is_stmt 1               @ rt-thread/components/drivers/sdio/sdio.c:918:9
	b	.LBB18_42
.Ltmp281:
.LBB18_41:
	.loc	2 0 9 is_stmt 0                 @ rt-thread/components/drivers/sdio/sdio.c:0:9
	movs	r0, #0
	.loc	2 921 5 is_stmt 1               @ rt-thread/components/drivers/sdio/sdio.c:921:5
	str	r0, [sp, #36]
	b	.LBB18_61
.LBB18_42:
.Ltmp282:
	@DEBUG_LABEL: sdio_init_card:err3
	.loc	2 924 9                         @ rt-thread/components/drivers/sdio/sdio.c:924:9
	ldr	r0, [sp, #32]
	.loc	2 924 15 is_stmt 0              @ rt-thread/components/drivers/sdio/sdio.c:924:15
	ldr	r0, [r0]
.Ltmp283:
	.loc	2 924 9                         @ rt-thread/components/drivers/sdio/sdio.c:924:9
	cbz	r0, .LBB18_50
	b	.LBB18_43
.LBB18_43:
	.loc	2 0 9                           @ rt-thread/components/drivers/sdio/sdio.c:0:9
	movs	r0, #1
.Ltmp284:
	.loc	2 926 16 is_stmt 1              @ rt-thread/components/drivers/sdio/sdio.c:926:16
	str	r0, [sp, #20]
	.loc	2 926 14 is_stmt 0              @ rt-thread/components/drivers/sdio/sdio.c:926:14
	b	.LBB18_44
.LBB18_44:                              @ =>This Inner Loop Header: Depth=1
.Ltmp285:
	.loc	2 926 21                        @ rt-thread/components/drivers/sdio/sdio.c:926:21
	ldr	r0, [sp, #20]
	.loc	2 926 25                        @ rt-thread/components/drivers/sdio/sdio.c:926:25
	ldr	r1, [sp, #32]
	.loc	2 926 31                        @ rt-thread/components/drivers/sdio/sdio.c:926:31
	ldr	r1, [r1]
	.loc	2 926 37                        @ rt-thread/components/drivers/sdio/sdio.c:926:37
	ldrb.w	r1, [r1, #104]
	.loc	2 926 55                        @ rt-thread/components/drivers/sdio/sdio.c:926:55
	adds	r1, #1
.Ltmp286:
	.loc	2 926 9                         @ rt-thread/components/drivers/sdio/sdio.c:926:9
	cmp	r0, r1
	bge	.LBB18_49
	b	.LBB18_45
.LBB18_45:                              @   in Loop: Header=BB18_44 Depth=1
.Ltmp287:
	.loc	2 928 17 is_stmt 1              @ rt-thread/components/drivers/sdio/sdio.c:928:17
	ldr	r0, [sp, #32]
	.loc	2 928 23 is_stmt 0              @ rt-thread/components/drivers/sdio/sdio.c:928:23
	ldr	r0, [r0]
	.loc	2 928 43                        @ rt-thread/components/drivers/sdio/sdio.c:928:43
	ldr	r1, [sp, #20]
	.loc	2 928 29                        @ rt-thread/components/drivers/sdio/sdio.c:928:29
	add.w	r0, r0, r1, lsl #2
	.loc	2 928 17                        @ rt-thread/components/drivers/sdio/sdio.c:928:17
	ldr	r0, [r0, #124]
.Ltmp288:
	.loc	2 928 17                        @ rt-thread/components/drivers/sdio/sdio.c:928:17
	cbz	r0, .LBB18_47
	b	.LBB18_46
.LBB18_46:
.Ltmp289:
	.loc	2 930 31 is_stmt 1              @ rt-thread/components/drivers/sdio/sdio.c:930:31
	ldr	r0, [sp, #32]
	.loc	2 930 37 is_stmt 0              @ rt-thread/components/drivers/sdio/sdio.c:930:37
	ldr	r0, [r0]
	.loc	2 930 57                        @ rt-thread/components/drivers/sdio/sdio.c:930:57
	ldr	r1, [sp, #20]
	.loc	2 930 43                        @ rt-thread/components/drivers/sdio/sdio.c:930:43
	add.w	r0, r0, r1, lsl #2
	.loc	2 930 31                        @ rt-thread/components/drivers/sdio/sdio.c:930:31
	ldr	r0, [r0, #124]
	.loc	2 930 17                        @ rt-thread/components/drivers/sdio/sdio.c:930:17
	bl	sdio_free_cis
	.loc	2 931 25 is_stmt 1              @ rt-thread/components/drivers/sdio/sdio.c:931:25
	ldr	r0, [sp, #32]
	.loc	2 931 31 is_stmt 0              @ rt-thread/components/drivers/sdio/sdio.c:931:31
	ldr	r0, [r0]
	.loc	2 931 51                        @ rt-thread/components/drivers/sdio/sdio.c:931:51
	ldr	r1, [sp, #20]
	.loc	2 931 37                        @ rt-thread/components/drivers/sdio/sdio.c:931:37
	add.w	r0, r0, r1, lsl #2
	.loc	2 931 25                        @ rt-thread/components/drivers/sdio/sdio.c:931:25
	ldr	r0, [r0, #124]
	.loc	2 931 17                        @ rt-thread/components/drivers/sdio/sdio.c:931:17
	bl	rt_free
	.loc	2 932 17 is_stmt 1              @ rt-thread/components/drivers/sdio/sdio.c:932:17
	ldr	r0, [sp, #32]
	.loc	2 932 23 is_stmt 0              @ rt-thread/components/drivers/sdio/sdio.c:932:23
	ldr	r0, [r0]
	.loc	2 932 43                        @ rt-thread/components/drivers/sdio/sdio.c:932:43
	ldr	r1, [sp, #20]
	.loc	2 932 29                        @ rt-thread/components/drivers/sdio/sdio.c:932:29
	add.w	r1, r0, r1, lsl #2
	movs	r0, #0
	.loc	2 932 46                        @ rt-thread/components/drivers/sdio/sdio.c:932:46
	str	r0, [sp]                        @ 4-byte Spill
	str	r0, [r1, #124]
	.loc	2 933 25 is_stmt 1              @ rt-thread/components/drivers/sdio/sdio.c:933:25
	ldr	r0, [sp, #32]
	.loc	2 933 31 is_stmt 0              @ rt-thread/components/drivers/sdio/sdio.c:933:31
	ldr	r0, [r0]
	.loc	2 933 17                        @ rt-thread/components/drivers/sdio/sdio.c:933:17
	bl	rt_free
	ldr	r0, [sp]                        @ 4-byte Reload
	.loc	2 934 17 is_stmt 1              @ rt-thread/components/drivers/sdio/sdio.c:934:17
	ldr	r1, [sp, #32]
	.loc	2 934 28 is_stmt 0              @ rt-thread/components/drivers/sdio/sdio.c:934:28
	str	r0, [r1]
	.loc	2 935 17 is_stmt 1              @ rt-thread/components/drivers/sdio/sdio.c:935:17
	b	.LBB18_49
.Ltmp290:
.LBB18_47:                              @   in Loop: Header=BB18_44 Depth=1
	.loc	2 937 9                         @ rt-thread/components/drivers/sdio/sdio.c:937:9
	b	.LBB18_48
.Ltmp291:
.LBB18_48:                              @   in Loop: Header=BB18_44 Depth=1
	.loc	2 926 61                        @ rt-thread/components/drivers/sdio/sdio.c:926:61
	ldr	r0, [sp, #20]
	adds	r0, #1
	str	r0, [sp, #20]
	.loc	2 926 9 is_stmt 0               @ rt-thread/components/drivers/sdio/sdio.c:926:9
	b	.LBB18_44
.Ltmp292:
.LBB18_49:
	.loc	2 938 5 is_stmt 1               @ rt-thread/components/drivers/sdio/sdio.c:938:5
	b	.LBB18_50
.Ltmp293:
.LBB18_50:
	.loc	2 924 15                        @ rt-thread/components/drivers/sdio/sdio.c:924:15
	b	.LBB18_51
.Ltmp294:
.LBB18_51:
	@DEBUG_LABEL: sdio_init_card:err2
	.loc	2 940 9                         @ rt-thread/components/drivers/sdio/sdio.c:940:9
	ldr	r0, [sp, #32]
	.loc	2 940 15 is_stmt 0              @ rt-thread/components/drivers/sdio/sdio.c:940:15
	ldr	r0, [r0]
	.loc	2 940 20                        @ rt-thread/components/drivers/sdio/sdio.c:940:20
	cbz	r0, .LBB18_54
	b	.LBB18_52
.LBB18_52:
	.loc	2 940 23                        @ rt-thread/components/drivers/sdio/sdio.c:940:23
	ldr	r0, [sp, #32]
	.loc	2 940 29                        @ rt-thread/components/drivers/sdio/sdio.c:940:29
	ldr	r0, [r0]
	.loc	2 940 23                        @ rt-thread/components/drivers/sdio/sdio.c:940:23
	ldr	r0, [r0, #124]
.Ltmp295:
	.loc	2 940 9                         @ rt-thread/components/drivers/sdio/sdio.c:940:9
	cbz	r0, .LBB18_54
	b	.LBB18_53
.LBB18_53:
.Ltmp296:
	.loc	2 942 23 is_stmt 1              @ rt-thread/components/drivers/sdio/sdio.c:942:23
	ldr	r0, [sp, #32]
	.loc	2 942 29 is_stmt 0              @ rt-thread/components/drivers/sdio/sdio.c:942:29
	ldr	r0, [r0]
	.loc	2 942 23                        @ rt-thread/components/drivers/sdio/sdio.c:942:23
	ldr	r0, [r0, #124]
	.loc	2 942 9                         @ rt-thread/components/drivers/sdio/sdio.c:942:9
	bl	sdio_free_cis
	.loc	2 943 17 is_stmt 1              @ rt-thread/components/drivers/sdio/sdio.c:943:17
	ldr	r0, [sp, #32]
	.loc	2 943 23 is_stmt 0              @ rt-thread/components/drivers/sdio/sdio.c:943:23
	ldr	r0, [r0]
	.loc	2 943 17                        @ rt-thread/components/drivers/sdio/sdio.c:943:17
	ldr	r0, [r0, #124]
	.loc	2 943 9                         @ rt-thread/components/drivers/sdio/sdio.c:943:9
	bl	rt_free
	.loc	2 944 9 is_stmt 1               @ rt-thread/components/drivers/sdio/sdio.c:944:9
	ldr	r0, [sp, #32]
	.loc	2 944 15 is_stmt 0              @ rt-thread/components/drivers/sdio/sdio.c:944:15
	ldr	r1, [r0]
	movs	r0, #0
	.loc	2 944 38                        @ rt-thread/components/drivers/sdio/sdio.c:944:38
	str	r0, [r1, #124]
	.loc	2 945 5 is_stmt 1               @ rt-thread/components/drivers/sdio/sdio.c:945:5
	b	.LBB18_54
.Ltmp297:
.LBB18_54:
	.loc	2 940 50                        @ rt-thread/components/drivers/sdio/sdio.c:940:50
	b	.LBB18_55
.Ltmp298:
.LBB18_55:
	@DEBUG_LABEL: sdio_init_card:err1
	.loc	2 947 9                         @ rt-thread/components/drivers/sdio/sdio.c:947:9
	ldr	r0, [sp, #32]
	.loc	2 947 15 is_stmt 0              @ rt-thread/components/drivers/sdio/sdio.c:947:15
	ldr	r0, [r0]
.Ltmp299:
	.loc	2 947 9                         @ rt-thread/components/drivers/sdio/sdio.c:947:9
	cbz	r0, .LBB18_57
	b	.LBB18_56
.LBB18_56:
.Ltmp300:
	.loc	2 949 17 is_stmt 1              @ rt-thread/components/drivers/sdio/sdio.c:949:17
	ldr	r0, [sp, #32]
	.loc	2 949 23 is_stmt 0              @ rt-thread/components/drivers/sdio/sdio.c:949:23
	ldr	r0, [r0]
	.loc	2 949 9                         @ rt-thread/components/drivers/sdio/sdio.c:949:9
	bl	rt_free
	.loc	2 950 5 is_stmt 1               @ rt-thread/components/drivers/sdio/sdio.c:950:5
	b	.LBB18_57
.Ltmp301:
.LBB18_57:
	.loc	2 947 15                        @ rt-thread/components/drivers/sdio/sdio.c:947:15
	b	.LBB18_58
.Ltmp302:
.LBB18_58:
	@DEBUG_LABEL: sdio_init_card:err
	.loc	2 952 5                         @ rt-thread/components/drivers/sdio/sdio.c:952:5
	b	.LBB18_59
.LBB18_59:
.Ltmp303:
	.loc	2 952 5 is_stmt 0               @ rt-thread/components/drivers/sdio/sdio.c:952:5
	movw	r0, :lower16:.L.str.11
	movt	r0, :upper16:.L.str.11
	bl	rt_kprintf
	ldr	r1, [sp, #24]
	movw	r0, :lower16:.L.str.19
	movt	r0, :upper16:.L.str.19
	bl	rt_kprintf
	movw	r0, :lower16:.L.str.9
	movt	r0, :upper16:.L.str.9
	bl	rt_kprintf
	b	.LBB18_60
.Ltmp304:
.LBB18_60:
	.loc	2 954 12 is_stmt 1              @ rt-thread/components/drivers/sdio/sdio.c:954:12
	ldr	r0, [sp, #24]
	.loc	2 954 5 is_stmt 0               @ rt-thread/components/drivers/sdio/sdio.c:954:5
	str	r0, [sp, #36]
	b	.LBB18_61
.LBB18_61:
	.loc	2 955 1 is_stmt 1               @ rt-thread/components/drivers/sdio/sdio.c:955:1
	ldr	r0, [sp, #36]
	add	sp, #40
	pop	{r7, pc}
.Ltmp305:
.Lfunc_end18:
	.size	sdio_init_card, .Lfunc_end18-sdio_init_card
	.cfi_endproc
	.cantunwind
	.fnend
                                        @ -- End function
	.section	.text.sdio_attach_irq,"ax",%progbits
	.hidden	sdio_attach_irq                 @ -- Begin function sdio_attach_irq
	.globl	sdio_attach_irq
	.p2align	3
	.type	sdio_attach_irq,%function
	.code	16                              @ @sdio_attach_irq
	.thumb_func
sdio_attach_irq:
.Lfunc_begin19:
	.loc	2 1099 0                        @ rt-thread/components/drivers/sdio/sdio.c:1099:0
	.fnstart
	.cfi_startproc
@ %bb.0:
	.save	{r7, lr}
	push	{r7, lr}
	.cfi_def_cfa_offset 8
	.cfi_offset lr, -4
	.cfi_offset r7, -8
	.pad	#24
	sub	sp, #24
	.cfi_def_cfa_offset 32
	str	r0, [sp, #16]
	str	r1, [sp, #12]
.Ltmp306:
	.loc	2 1104 5 prologue_end           @ rt-thread/components/drivers/sdio/sdio.c:1104:5
	ldr	r0, [sp, #16]
.Ltmp307:
	.loc	2 1104 5 is_stmt 0              @ rt-thread/components/drivers/sdio/sdio.c:1104:5
	cbnz	r0, .LBB19_2
	b	.LBB19_1
.LBB19_1:
.Ltmp308:
	.loc	2 1104 5                        @ rt-thread/components/drivers/sdio/sdio.c:1104:5
	movw	r0, :lower16:.L.str.13
	movt	r0, :upper16:.L.str.13
	movw	r1, :lower16:.L__FUNCTION__.sdio_attach_irq
	movt	r1, :upper16:.L__FUNCTION__.sdio_attach_irq
	mov.w	r2, #1104
	bl	rt_assert_handler
	b	.LBB19_2
.Ltmp309:
.LBB19_2:
	.loc	2 1105 5 is_stmt 1              @ rt-thread/components/drivers/sdio/sdio.c:1105:5
	ldr	r0, [sp, #16]
	ldr	r0, [r0]
.Ltmp310:
	.loc	2 1105 5 is_stmt 0              @ rt-thread/components/drivers/sdio/sdio.c:1105:5
	cbnz	r0, .LBB19_4
	b	.LBB19_3
.LBB19_3:
.Ltmp311:
	.loc	2 1105 5                        @ rt-thread/components/drivers/sdio/sdio.c:1105:5
	movw	r0, :lower16:.L.str.14
	movt	r0, :upper16:.L.str.14
	movw	r1, :lower16:.L__FUNCTION__.sdio_attach_irq
	movt	r1, :upper16:.L__FUNCTION__.sdio_attach_irq
	movw	r2, #1105
	bl	rt_assert_handler
	b	.LBB19_4
.Ltmp312:
.LBB19_4:
	.loc	2 1107 13 is_stmt 1             @ rt-thread/components/drivers/sdio/sdio.c:1107:13
	ldr	r0, [sp, #16]
	.loc	2 1107 19 is_stmt 0             @ rt-thread/components/drivers/sdio/sdio.c:1107:19
	ldr	r0, [r0]
	.loc	2 1107 13                       @ rt-thread/components/drivers/sdio/sdio.c:1107:13
	ldr	r0, [r0, #124]
	.loc	2 1107 11                       @ rt-thread/components/drivers/sdio/sdio.c:1107:11
	str	r0, [sp]
.Ltmp313:
	.loc	2 1111 9 is_stmt 1              @ rt-thread/components/drivers/sdio/sdio.c:1111:9
	ldr	r0, [sp, #16]
	.loc	2 1111 15 is_stmt 0             @ rt-thread/components/drivers/sdio/sdio.c:1111:15
	ldr	r0, [r0, #4]
.Ltmp314:
	.loc	2 1111 9                        @ rt-thread/components/drivers/sdio/sdio.c:1111:9
	cbz	r0, .LBB19_6
	b	.LBB19_5
.LBB19_5:
	.loc	2 0 9                           @ rt-thread/components/drivers/sdio/sdio.c:0:9
	mvn	r0, #6
.Ltmp315:
	.loc	2 1115 9 is_stmt 1              @ rt-thread/components/drivers/sdio/sdio.c:1115:9
	str	r0, [sp, #20]
	b	.LBB19_13
.Ltmp316:
.LBB19_6:
	.loc	2 1118 25                       @ rt-thread/components/drivers/sdio/sdio.c:1118:25
	ldr	r0, [sp]
	movs	r1, #4
	add	r2, sp, #8
	.loc	2 1118 11 is_stmt 0             @ rt-thread/components/drivers/sdio/sdio.c:1118:11
	bl	sdio_io_readb
	.loc	2 1118 9                        @ rt-thread/components/drivers/sdio/sdio.c:1118:9
	strb.w	r0, [sp, #7]
.Ltmp317:
	.loc	2 1119 9 is_stmt 1              @ rt-thread/components/drivers/sdio/sdio.c:1119:9
	ldr	r0, [sp, #8]
.Ltmp318:
	.loc	2 1119 9 is_stmt 0              @ rt-thread/components/drivers/sdio/sdio.c:1119:9
	cbz	r0, .LBB19_8
	b	.LBB19_7
.LBB19_7:
.Ltmp319:
	.loc	2 1120 16 is_stmt 1             @ rt-thread/components/drivers/sdio/sdio.c:1120:16
	ldr	r0, [sp, #8]
	.loc	2 1120 9 is_stmt 0              @ rt-thread/components/drivers/sdio/sdio.c:1120:9
	str	r0, [sp, #20]
	b	.LBB19_13
.Ltmp320:
.LBB19_8:
	.loc	2 1122 17 is_stmt 1             @ rt-thread/components/drivers/sdio/sdio.c:1122:17
	ldr	r0, [sp, #16]
	.loc	2 1122 23 is_stmt 0             @ rt-thread/components/drivers/sdio/sdio.c:1122:23
	ldrb	r1, [r0, #8]
	movs	r0, #1
	.loc	2 1122 14                       @ rt-thread/components/drivers/sdio/sdio.c:1122:14
	lsl.w	r1, r0, r1
	.loc	2 1122 9                        @ rt-thread/components/drivers/sdio/sdio.c:1122:9
	ldrb.w	r0, [sp, #7]
	orrs	r0, r1
	strb.w	r0, [sp, #7]
	.loc	2 1124 9 is_stmt 1              @ rt-thread/components/drivers/sdio/sdio.c:1124:9
	ldrb.w	r0, [sp, #7]
	orr	r0, r0, #1
	strb.w	r0, [sp, #7]
	.loc	2 1126 26                       @ rt-thread/components/drivers/sdio/sdio.c:1126:26
	ldr	r0, [sp]
	.loc	2 1126 55 is_stmt 0             @ rt-thread/components/drivers/sdio/sdio.c:1126:55
	ldrb.w	r2, [sp, #7]
	movs	r1, #4
	.loc	2 1126 11                       @ rt-thread/components/drivers/sdio/sdio.c:1126:11
	bl	sdio_io_writeb
	.loc	2 1126 9                        @ rt-thread/components/drivers/sdio/sdio.c:1126:9
	str	r0, [sp, #8]
.Ltmp321:
	.loc	2 1127 9 is_stmt 1              @ rt-thread/components/drivers/sdio/sdio.c:1127:9
	ldr	r0, [sp, #8]
.Ltmp322:
	.loc	2 1127 9 is_stmt 0              @ rt-thread/components/drivers/sdio/sdio.c:1127:9
	cbz	r0, .LBB19_10
	b	.LBB19_9
.LBB19_9:
.Ltmp323:
	.loc	2 1128 16 is_stmt 1             @ rt-thread/components/drivers/sdio/sdio.c:1128:16
	ldr	r0, [sp, #8]
	.loc	2 1128 9 is_stmt 0              @ rt-thread/components/drivers/sdio/sdio.c:1128:9
	str	r0, [sp, #20]
	b	.LBB19_13
.Ltmp324:
.LBB19_10:
	.loc	2 1130 25 is_stmt 1             @ rt-thread/components/drivers/sdio/sdio.c:1130:25
	ldr	r0, [sp, #12]
	.loc	2 1130 5 is_stmt 0              @ rt-thread/components/drivers/sdio/sdio.c:1130:5
	ldr	r1, [sp, #16]
	.loc	2 1130 23                       @ rt-thread/components/drivers/sdio/sdio.c:1130:23
	str	r0, [r1, #4]
	.loc	2 1132 34 is_stmt 1             @ rt-thread/components/drivers/sdio/sdio.c:1132:34
	ldr	r0, [sp, #16]
	.loc	2 1132 40 is_stmt 0             @ rt-thread/components/drivers/sdio/sdio.c:1132:40
	ldr	r0, [r0]
	.loc	2 1132 11                       @ rt-thread/components/drivers/sdio/sdio.c:1132:11
	bl	sdio_irq_thread_create
	.loc	2 1132 9                        @ rt-thread/components/drivers/sdio/sdio.c:1132:9
	str	r0, [sp, #8]
.Ltmp325:
	.loc	2 1133 9 is_stmt 1              @ rt-thread/components/drivers/sdio/sdio.c:1133:9
	ldr	r0, [sp, #8]
.Ltmp326:
	.loc	2 1133 9 is_stmt 0              @ rt-thread/components/drivers/sdio/sdio.c:1133:9
	cbz	r0, .LBB19_12
	b	.LBB19_11
.LBB19_11:
.Ltmp327:
	.loc	2 1134 9 is_stmt 1              @ rt-thread/components/drivers/sdio/sdio.c:1134:9
	ldr	r1, [sp, #16]
	movs	r0, #0
	.loc	2 1134 27 is_stmt 0             @ rt-thread/components/drivers/sdio/sdio.c:1134:27
	str	r0, [r1, #4]
	.loc	2 1134 9                        @ rt-thread/components/drivers/sdio/sdio.c:1134:9
	b	.LBB19_12
.Ltmp328:
.LBB19_12:
	.loc	2 1136 12 is_stmt 1             @ rt-thread/components/drivers/sdio/sdio.c:1136:12
	ldr	r0, [sp, #8]
	.loc	2 1136 5 is_stmt 0              @ rt-thread/components/drivers/sdio/sdio.c:1136:5
	str	r0, [sp, #20]
	b	.LBB19_13
.LBB19_13:
	.loc	2 1137 1 is_stmt 1              @ rt-thread/components/drivers/sdio/sdio.c:1137:1
	ldr	r0, [sp, #20]
	add	sp, #24
	pop	{r7, pc}
.Ltmp329:
.Lfunc_end19:
	.size	sdio_attach_irq, .Lfunc_end19-sdio_attach_irq
	.cfi_endproc
	.cantunwind
	.fnend
                                        @ -- End function
	.section	.text.sdio_irq_thread_create,"ax",%progbits
	.p2align	3                               @ -- Begin function sdio_irq_thread_create
	.type	sdio_irq_thread_create,%function
	.code	16                              @ @sdio_irq_thread_create
	.thumb_func
sdio_irq_thread_create:
.Lfunc_begin20:
	.loc	2 1056 0                        @ rt-thread/components/drivers/sdio/sdio.c:1056:0
	.fnstart
	.cfi_startproc
@ %bb.0:
	.save	{r7, lr}
	push	{r7, lr}
	.cfi_def_cfa_offset 8
	.cfi_offset lr, -4
	.cfi_offset r7, -8
	.pad	#16
	sub	sp, #16
	.cfi_def_cfa_offset 24
	str	r0, [sp, #12]
.Ltmp330:
	.loc	2 1057 34 prologue_end          @ rt-thread/components/drivers/sdio/sdio.c:1057:34
	ldr	r0, [sp, #12]
	.loc	2 1057 40 is_stmt 0             @ rt-thread/components/drivers/sdio/sdio.c:1057:40
	ldr	r0, [r0]
	.loc	2 1057 27                       @ rt-thread/components/drivers/sdio/sdio.c:1057:27
	str	r0, [sp, #8]
.Ltmp331:
	.loc	2 1060 10 is_stmt 1             @ rt-thread/components/drivers/sdio/sdio.c:1060:10
	ldr	r0, [sp, #8]
	.loc	2 1060 16 is_stmt 0             @ rt-thread/components/drivers/sdio/sdio.c:1060:16
	ldr	r0, [r0, #124]
.Ltmp332:
	.loc	2 1060 9                        @ rt-thread/components/drivers/sdio/sdio.c:1060:9
	cmp	r0, #0
	bne	.LBB20_6
	b	.LBB20_1
.LBB20_1:
.Ltmp333:
	.loc	2 1062 9 is_stmt 1              @ rt-thread/components/drivers/sdio/sdio.c:1062:9
	ldr	r1, [sp, #8]
	.loc	2 1062 27 is_stmt 0             @ rt-thread/components/drivers/sdio/sdio.c:1062:27
	ldr	r0, [r1, #124]
	adds	r0, #1
	str	r0, [r1, #124]
	.loc	2 1063 30 is_stmt 1             @ rt-thread/components/drivers/sdio/sdio.c:1063:30
	movw	r0, :lower16:.L.str.25
	movt	r0, :upper16:.L.str.25
	movs	r2, #0
	mov	r1, r2
	bl	rt_sem_create
	.loc	2 1063 9 is_stmt 0              @ rt-thread/components/drivers/sdio/sdio.c:1063:9
	ldr	r1, [sp, #8]
	.loc	2 1063 28                       @ rt-thread/components/drivers/sdio/sdio.c:1063:28
	str.w	r0, [r1, #128]
.Ltmp334:
	.loc	2 1064 9 is_stmt 1              @ rt-thread/components/drivers/sdio/sdio.c:1064:9
	ldr	r0, [sp, #8]
	ldr.w	r0, [r0, #128]
.Ltmp335:
	.loc	2 1064 9 is_stmt 0              @ rt-thread/components/drivers/sdio/sdio.c:1064:9
	cbnz	r0, .LBB20_3
	b	.LBB20_2
.LBB20_2:
.Ltmp336:
	.loc	2 1064 9                        @ rt-thread/components/drivers/sdio/sdio.c:1064:9
	movw	r0, :lower16:.L.str.26
	movt	r0, :upper16:.L.str.26
	movw	r1, :lower16:.L__FUNCTION__.sdio_irq_thread_create
	movt	r1, :upper16:.L__FUNCTION__.sdio_irq_thread_create
	mov.w	r2, #1064
	bl	rt_assert_handler
	b	.LBB20_3
.Ltmp337:
.LBB20_3:
	.loc	2 1066 79 is_stmt 1             @ rt-thread/components/drivers/sdio/sdio.c:1066:79
	ldr	r2, [sp, #8]
	.loc	2 1066 33 is_stmt 0             @ rt-thread/components/drivers/sdio/sdio.c:1066:33
	mov	r1, sp
	movs	r0, #20
	str	r0, [r1, #4]
	movs	r0, #15
	str	r0, [r1]
	movw	r0, :lower16:.L.str.25
	movt	r0, :upper16:.L.str.25
	movw	r1, :lower16:sdio_irq_thread
	movt	r1, :upper16:sdio_irq_thread
	mov.w	r3, #512
	bl	rt_thread_create
	.loc	2 1066 9                        @ rt-thread/components/drivers/sdio/sdio.c:1066:9
	ldr	r1, [sp, #8]
	.loc	2 1066 31                       @ rt-thread/components/drivers/sdio/sdio.c:1066:31
	str.w	r0, [r1, #132]
.Ltmp338:
	.loc	2 1068 13 is_stmt 1             @ rt-thread/components/drivers/sdio/sdio.c:1068:13
	ldr	r0, [sp, #8]
	.loc	2 1068 19 is_stmt 0             @ rt-thread/components/drivers/sdio/sdio.c:1068:19
	ldr.w	r0, [r0, #132]
.Ltmp339:
	.loc	2 1068 13                       @ rt-thread/components/drivers/sdio/sdio.c:1068:13
	cbz	r0, .LBB20_5
	b	.LBB20_4
.LBB20_4:
.Ltmp340:
	.loc	2 1070 31 is_stmt 1             @ rt-thread/components/drivers/sdio/sdio.c:1070:31
	ldr	r0, [sp, #8]
	.loc	2 1070 37 is_stmt 0             @ rt-thread/components/drivers/sdio/sdio.c:1070:37
	ldr.w	r0, [r0, #132]
	.loc	2 1070 13                       @ rt-thread/components/drivers/sdio/sdio.c:1070:13
	bl	rt_thread_startup
	.loc	2 1071 9 is_stmt 1              @ rt-thread/components/drivers/sdio/sdio.c:1071:9
	b	.LBB20_5
.Ltmp341:
.LBB20_5:
	.loc	2 1072 5                        @ rt-thread/components/drivers/sdio/sdio.c:1072:5
	b	.LBB20_6
.Ltmp342:
.LBB20_6:
	.loc	2 0 5 is_stmt 0                 @ rt-thread/components/drivers/sdio/sdio.c:0:5
	movs	r0, #0
	.loc	2 1074 5 is_stmt 1              @ rt-thread/components/drivers/sdio/sdio.c:1074:5
	add	sp, #16
	pop	{r7, pc}
.Ltmp343:
.Lfunc_end20:
	.size	sdio_irq_thread_create, .Lfunc_end20-sdio_irq_thread_create
	.cfi_endproc
	.cantunwind
	.fnend
                                        @ -- End function
	.section	.text.sdio_detach_irq,"ax",%progbits
	.hidden	sdio_detach_irq                 @ -- Begin function sdio_detach_irq
	.globl	sdio_detach_irq
	.p2align	3
	.type	sdio_detach_irq,%function
	.code	16                              @ @sdio_detach_irq
	.thumb_func
sdio_detach_irq:
.Lfunc_begin21:
	.loc	2 1140 0                        @ rt-thread/components/drivers/sdio/sdio.c:1140:0
	.fnstart
	.cfi_startproc
@ %bb.0:
	.save	{r7, lr}
	push	{r7, lr}
	.cfi_def_cfa_offset 8
	.cfi_offset lr, -4
	.cfi_offset r7, -8
	.pad	#24
	sub	sp, #24
	.cfi_def_cfa_offset 32
	str	r0, [sp, #16]
.Ltmp344:
	.loc	2 1145 5 prologue_end           @ rt-thread/components/drivers/sdio/sdio.c:1145:5
	ldr	r0, [sp, #16]
.Ltmp345:
	.loc	2 1145 5 is_stmt 0              @ rt-thread/components/drivers/sdio/sdio.c:1145:5
	cbnz	r0, .LBB21_2
	b	.LBB21_1
.LBB21_1:
.Ltmp346:
	.loc	2 1145 5                        @ rt-thread/components/drivers/sdio/sdio.c:1145:5
	movw	r0, :lower16:.L.str.13
	movt	r0, :upper16:.L.str.13
	movw	r1, :lower16:.L__FUNCTION__.sdio_detach_irq
	movt	r1, :upper16:.L__FUNCTION__.sdio_detach_irq
	movw	r2, #1145
	bl	rt_assert_handler
	b	.LBB21_2
.Ltmp347:
.LBB21_2:
	.loc	2 1146 5 is_stmt 1              @ rt-thread/components/drivers/sdio/sdio.c:1146:5
	ldr	r0, [sp, #16]
	ldr	r0, [r0]
.Ltmp348:
	.loc	2 1146 5 is_stmt 0              @ rt-thread/components/drivers/sdio/sdio.c:1146:5
	cbnz	r0, .LBB21_4
	b	.LBB21_3
.LBB21_3:
.Ltmp349:
	.loc	2 1146 5                        @ rt-thread/components/drivers/sdio/sdio.c:1146:5
	movw	r0, :lower16:.L.str.14
	movt	r0, :upper16:.L.str.14
	movw	r1, :lower16:.L__FUNCTION__.sdio_detach_irq
	movt	r1, :upper16:.L__FUNCTION__.sdio_detach_irq
	movw	r2, #1146
	bl	rt_assert_handler
	b	.LBB21_4
.Ltmp350:
.LBB21_4:
	.loc	2 1148 13 is_stmt 1             @ rt-thread/components/drivers/sdio/sdio.c:1148:13
	ldr	r0, [sp, #16]
	.loc	2 1148 19 is_stmt 0             @ rt-thread/components/drivers/sdio/sdio.c:1148:19
	ldr	r0, [r0]
	.loc	2 1148 13                       @ rt-thread/components/drivers/sdio/sdio.c:1148:13
	ldr	r0, [r0, #124]
	.loc	2 1148 11                       @ rt-thread/components/drivers/sdio/sdio.c:1148:11
	str	r0, [sp, #4]
.Ltmp351:
	.loc	2 1152 9 is_stmt 1              @ rt-thread/components/drivers/sdio/sdio.c:1152:9
	ldr	r0, [sp, #16]
	.loc	2 1152 15 is_stmt 0             @ rt-thread/components/drivers/sdio/sdio.c:1152:15
	ldr	r0, [r0, #4]
.Ltmp352:
	.loc	2 1152 9                        @ rt-thread/components/drivers/sdio/sdio.c:1152:9
	cbz	r0, .LBB21_6
	b	.LBB21_5
.LBB21_5:
.Ltmp353:
	.loc	2 1154 9 is_stmt 1              @ rt-thread/components/drivers/sdio/sdio.c:1154:9
	ldr	r1, [sp, #16]
	movs	r0, #0
	.loc	2 1154 27 is_stmt 0             @ rt-thread/components/drivers/sdio/sdio.c:1154:27
	str	r0, [r1, #4]
	.loc	2 1155 32 is_stmt 1             @ rt-thread/components/drivers/sdio/sdio.c:1155:32
	ldr	r0, [sp, #16]
	.loc	2 1155 38 is_stmt 0             @ rt-thread/components/drivers/sdio/sdio.c:1155:38
	ldr	r0, [r0]
	.loc	2 1155 9                        @ rt-thread/components/drivers/sdio/sdio.c:1155:9
	bl	sdio_irq_thread_delete
	.loc	2 1156 5 is_stmt 1              @ rt-thread/components/drivers/sdio/sdio.c:1156:5
	b	.LBB21_6
.Ltmp354:
.LBB21_6:
	.loc	2 1158 25                       @ rt-thread/components/drivers/sdio/sdio.c:1158:25
	ldr	r0, [sp, #4]
	movs	r1, #4
	add	r2, sp, #12
	.loc	2 1158 11 is_stmt 0             @ rt-thread/components/drivers/sdio/sdio.c:1158:11
	bl	sdio_io_readb
	.loc	2 1158 9                        @ rt-thread/components/drivers/sdio/sdio.c:1158:9
	strb.w	r0, [sp, #11]
.Ltmp355:
	.loc	2 1159 9 is_stmt 1              @ rt-thread/components/drivers/sdio/sdio.c:1159:9
	ldr	r0, [sp, #12]
.Ltmp356:
	.loc	2 1159 9 is_stmt 0              @ rt-thread/components/drivers/sdio/sdio.c:1159:9
	cbz	r0, .LBB21_8
	b	.LBB21_7
.LBB21_7:
.Ltmp357:
	.loc	2 1160 16 is_stmt 1             @ rt-thread/components/drivers/sdio/sdio.c:1160:16
	ldr	r0, [sp, #12]
	.loc	2 1160 9 is_stmt 0              @ rt-thread/components/drivers/sdio/sdio.c:1160:9
	str	r0, [sp, #20]
	b	.LBB21_13
.Ltmp358:
.LBB21_8:
	.loc	2 1162 19 is_stmt 1             @ rt-thread/components/drivers/sdio/sdio.c:1162:19
	ldr	r0, [sp, #16]
	.loc	2 1162 25 is_stmt 0             @ rt-thread/components/drivers/sdio/sdio.c:1162:25
	ldrb	r1, [r0, #8]
	movs	r0, #1
	.loc	2 1162 16                       @ rt-thread/components/drivers/sdio/sdio.c:1162:16
	lsl.w	r1, r0, r1
	.loc	2 1162 9                        @ rt-thread/components/drivers/sdio/sdio.c:1162:9
	ldrb.w	r0, [sp, #11]
	bics	r0, r1
	strb.w	r0, [sp, #11]
.Ltmp359:
	.loc	2 1165 11 is_stmt 1             @ rt-thread/components/drivers/sdio/sdio.c:1165:11
	ldrb.w	r0, [sp, #11]
.Ltmp360:
	.loc	2 1165 9 is_stmt 0              @ rt-thread/components/drivers/sdio/sdio.c:1165:9
	tst.w	r0, #254
	bne	.LBB21_10
	b	.LBB21_9
.LBB21_9:
	.loc	2 0 9                           @ rt-thread/components/drivers/sdio/sdio.c:0:9
	movs	r0, #0
.Ltmp361:
	.loc	2 1166 13 is_stmt 1             @ rt-thread/components/drivers/sdio/sdio.c:1166:13
	strb.w	r0, [sp, #11]
	.loc	2 1166 9 is_stmt 0              @ rt-thread/components/drivers/sdio/sdio.c:1166:9
	b	.LBB21_10
.Ltmp362:
.LBB21_10:
	.loc	2 1168 26 is_stmt 1             @ rt-thread/components/drivers/sdio/sdio.c:1168:26
	ldr	r0, [sp, #4]
	.loc	2 1168 55 is_stmt 0             @ rt-thread/components/drivers/sdio/sdio.c:1168:55
	ldrb.w	r2, [sp, #11]
	movs	r1, #4
	.loc	2 1168 11                       @ rt-thread/components/drivers/sdio/sdio.c:1168:11
	bl	sdio_io_writeb
	.loc	2 1168 9                        @ rt-thread/components/drivers/sdio/sdio.c:1168:9
	str	r0, [sp, #12]
.Ltmp363:
	.loc	2 1169 9 is_stmt 1              @ rt-thread/components/drivers/sdio/sdio.c:1169:9
	ldr	r0, [sp, #12]
.Ltmp364:
	.loc	2 1169 9 is_stmt 0              @ rt-thread/components/drivers/sdio/sdio.c:1169:9
	cbz	r0, .LBB21_12
	b	.LBB21_11
.LBB21_11:
.Ltmp365:
	.loc	2 1170 16 is_stmt 1             @ rt-thread/components/drivers/sdio/sdio.c:1170:16
	ldr	r0, [sp, #12]
	.loc	2 1170 9 is_stmt 0              @ rt-thread/components/drivers/sdio/sdio.c:1170:9
	str	r0, [sp, #20]
	b	.LBB21_13
.Ltmp366:
.LBB21_12:
	.loc	2 0 9                           @ rt-thread/components/drivers/sdio/sdio.c:0:9
	movs	r0, #0
	.loc	2 1172 5 is_stmt 1              @ rt-thread/components/drivers/sdio/sdio.c:1172:5
	str	r0, [sp, #20]
	b	.LBB21_13
.LBB21_13:
	.loc	2 1173 1                        @ rt-thread/components/drivers/sdio/sdio.c:1173:1
	ldr	r0, [sp, #20]
	add	sp, #24
	pop	{r7, pc}
.Ltmp367:
.Lfunc_end21:
	.size	sdio_detach_irq, .Lfunc_end21-sdio_detach_irq
	.cfi_endproc
	.cantunwind
	.fnend
                                        @ -- End function
	.section	.text.sdio_irq_thread_delete,"ax",%progbits
	.p2align	3                               @ -- Begin function sdio_irq_thread_delete
	.type	sdio_irq_thread_delete,%function
	.code	16                              @ @sdio_irq_thread_delete
	.thumb_func
sdio_irq_thread_delete:
.Lfunc_begin22:
	.loc	2 1078 0                        @ rt-thread/components/drivers/sdio/sdio.c:1078:0
	.fnstart
	.cfi_startproc
@ %bb.0:
	.save	{r7, lr}
	push	{r7, lr}
	.cfi_def_cfa_offset 8
	.cfi_offset lr, -4
	.cfi_offset r7, -8
	.pad	#16
	sub	sp, #16
	.cfi_def_cfa_offset 24
	str	r0, [sp, #12]
.Ltmp368:
	.loc	2 1079 34 prologue_end          @ rt-thread/components/drivers/sdio/sdio.c:1079:34
	ldr	r0, [sp, #12]
	.loc	2 1079 40 is_stmt 0             @ rt-thread/components/drivers/sdio/sdio.c:1079:40
	ldr	r0, [r0]
	.loc	2 1079 27                       @ rt-thread/components/drivers/sdio/sdio.c:1079:27
	str	r0, [sp, #8]
.Ltmp369:
	.loc	2 1081 5 is_stmt 1              @ rt-thread/components/drivers/sdio/sdio.c:1081:5
	ldr	r0, [sp, #8]
	ldr	r0, [r0, #124]
.Ltmp370:
	.loc	2 1081 5 is_stmt 0              @ rt-thread/components/drivers/sdio/sdio.c:1081:5
	cbnz	r0, .LBB22_2
	b	.LBB22_1
.LBB22_1:
.Ltmp371:
	.loc	2 1081 5                        @ rt-thread/components/drivers/sdio/sdio.c:1081:5
	movw	r0, :lower16:.L.str.27
	movt	r0, :upper16:.L.str.27
	movw	r1, :lower16:.L__FUNCTION__.sdio_irq_thread_delete
	movt	r1, :upper16:.L__FUNCTION__.sdio_irq_thread_delete
	movw	r2, #1081
	bl	rt_assert_handler
	b	.LBB22_2
.Ltmp372:
.LBB22_2:
	.loc	2 1083 5 is_stmt 1              @ rt-thread/components/drivers/sdio/sdio.c:1083:5
	ldr	r1, [sp, #8]
	.loc	2 1083 23 is_stmt 0             @ rt-thread/components/drivers/sdio/sdio.c:1083:23
	ldr	r0, [r1, #124]
	subs	r0, #1
	str	r0, [r1, #124]
.Ltmp373:
	.loc	2 1084 10 is_stmt 1             @ rt-thread/components/drivers/sdio/sdio.c:1084:10
	ldr	r0, [sp, #8]
	.loc	2 1084 16 is_stmt 0             @ rt-thread/components/drivers/sdio/sdio.c:1084:16
	ldr	r0, [r0, #124]
.Ltmp374:
	.loc	2 1084 9                        @ rt-thread/components/drivers/sdio/sdio.c:1084:9
	cbnz	r0, .LBB22_6
	b	.LBB22_3
.LBB22_3:
.Ltmp375:
	.loc	2 1086 13 is_stmt 1             @ rt-thread/components/drivers/sdio/sdio.c:1086:13
	ldr	r0, [sp, #8]
.Ltmp376:
	.loc	2 1086 13 is_stmt 0             @ rt-thread/components/drivers/sdio/sdio.c:1086:13
	ldrb.w	r0, [r0, #32]
	lsls	r0, r0, #27
	cmp	r0, #0
	bpl	.LBB22_5
	b	.LBB22_4
.LBB22_4:
.Ltmp377:
	.loc	2 1087 13 is_stmt 1             @ rt-thread/components/drivers/sdio/sdio.c:1087:13
	ldr	r0, [sp, #8]
	.loc	2 1087 19 is_stmt 0             @ rt-thread/components/drivers/sdio/sdio.c:1087:19
	ldr	r1, [r0, #4]
	.loc	2 1087 24                       @ rt-thread/components/drivers/sdio/sdio.c:1087:24
	ldr	r2, [r1, #12]
	movs	r1, #0
	.loc	2 1087 13                       @ rt-thread/components/drivers/sdio/sdio.c:1087:13
	blx	r2
	b	.LBB22_5
.Ltmp378:
.LBB22_5:
	.loc	2 1088 23 is_stmt 1             @ rt-thread/components/drivers/sdio/sdio.c:1088:23
	ldr	r0, [sp, #8]
	.loc	2 1088 29 is_stmt 0             @ rt-thread/components/drivers/sdio/sdio.c:1088:29
	ldr.w	r0, [r0, #128]
	.loc	2 1088 9                        @ rt-thread/components/drivers/sdio/sdio.c:1088:9
	bl	rt_sem_delete
	.loc	2 1089 9 is_stmt 1              @ rt-thread/components/drivers/sdio/sdio.c:1089:9
	ldr	r1, [sp, #8]
	movs	r0, #0
	.loc	2 1089 28 is_stmt 0             @ rt-thread/components/drivers/sdio/sdio.c:1089:28
	str	r0, [sp, #4]                    @ 4-byte Spill
	str.w	r0, [r1, #128]
	.loc	2 1090 26 is_stmt 1             @ rt-thread/components/drivers/sdio/sdio.c:1090:26
	ldr	r0, [sp, #8]
	.loc	2 1090 32 is_stmt 0             @ rt-thread/components/drivers/sdio/sdio.c:1090:32
	ldr.w	r0, [r0, #132]
	.loc	2 1090 9                        @ rt-thread/components/drivers/sdio/sdio.c:1090:9
	bl	rt_thread_delete
                                        @ kill: def $r1 killed $r0
	.loc	2 1091 9 is_stmt 1              @ rt-thread/components/drivers/sdio/sdio.c:1091:9
	ldr	r0, [sp, #4]                    @ 4-byte Reload
	ldr	r1, [sp, #8]
	.loc	2 1091 31 is_stmt 0             @ rt-thread/components/drivers/sdio/sdio.c:1091:31
	str.w	r0, [r1, #132]
	.loc	2 1092 5 is_stmt 1              @ rt-thread/components/drivers/sdio/sdio.c:1092:5
	b	.LBB22_6
.Ltmp379:
.LBB22_6:
	.loc	2 0 5 is_stmt 0                 @ rt-thread/components/drivers/sdio/sdio.c:0:5
	movs	r0, #0
	.loc	2 1094 5 is_stmt 1              @ rt-thread/components/drivers/sdio/sdio.c:1094:5
	add	sp, #16
	pop	{r7, pc}
.Ltmp380:
.Lfunc_end22:
	.size	sdio_irq_thread_delete, .Lfunc_end22-sdio_irq_thread_delete
	.cfi_endproc
	.cantunwind
	.fnend
                                        @ -- End function
	.section	.text.sdio_irq_wakeup,"ax",%progbits
	.hidden	sdio_irq_wakeup                 @ -- Begin function sdio_irq_wakeup
	.globl	sdio_irq_wakeup
	.p2align	3
	.type	sdio_irq_wakeup,%function
	.code	16                              @ @sdio_irq_wakeup
	.thumb_func
sdio_irq_wakeup:
.Lfunc_begin23:
	.loc	2 1176 0                        @ rt-thread/components/drivers/sdio/sdio.c:1176:0
	.fnstart
	.cfi_startproc
@ %bb.0:
	.save	{r7, lr}
	push	{r7, lr}
	.cfi_def_cfa_offset 8
	.cfi_offset lr, -4
	.cfi_offset r7, -8
	.pad	#8
	sub	sp, #8
	.cfi_def_cfa_offset 16
	str	r0, [sp, #4]
.Ltmp381:
	.loc	2 1177 9 prologue_end           @ rt-thread/components/drivers/sdio/sdio.c:1177:9
	ldr	r0, [sp, #4]
.Ltmp382:
	.loc	2 1177 9 is_stmt 0              @ rt-thread/components/drivers/sdio/sdio.c:1177:9
	ldrb.w	r0, [r0, #32]
	lsls	r0, r0, #27
	cmp	r0, #0
	bpl	.LBB23_2
	b	.LBB23_1
.LBB23_1:
.Ltmp383:
	.loc	2 1178 9 is_stmt 1              @ rt-thread/components/drivers/sdio/sdio.c:1178:9
	ldr	r0, [sp, #4]
	.loc	2 1178 15 is_stmt 0             @ rt-thread/components/drivers/sdio/sdio.c:1178:15
	ldr	r1, [r0, #4]
	.loc	2 1178 20                       @ rt-thread/components/drivers/sdio/sdio.c:1178:20
	ldr	r2, [r1, #12]
	movs	r1, #0
	.loc	2 1178 9                        @ rt-thread/components/drivers/sdio/sdio.c:1178:9
	blx	r2
	b	.LBB23_2
.Ltmp384:
.LBB23_2:
	.loc	2 1179 9 is_stmt 1              @ rt-thread/components/drivers/sdio/sdio.c:1179:9
	ldr	r0, [sp, #4]
	.loc	2 1179 15 is_stmt 0             @ rt-thread/components/drivers/sdio/sdio.c:1179:15
	ldr.w	r0, [r0, #128]
.Ltmp385:
	.loc	2 1179 9                        @ rt-thread/components/drivers/sdio/sdio.c:1179:9
	cbz	r0, .LBB23_4
	b	.LBB23_3
.LBB23_3:
.Ltmp386:
	.loc	2 1180 24 is_stmt 1             @ rt-thread/components/drivers/sdio/sdio.c:1180:24
	ldr	r0, [sp, #4]
	.loc	2 1180 30 is_stmt 0             @ rt-thread/components/drivers/sdio/sdio.c:1180:30
	ldr.w	r0, [r0, #128]
	.loc	2 1180 9                        @ rt-thread/components/drivers/sdio/sdio.c:1180:9
	bl	rt_sem_release
	b	.LBB23_4
.Ltmp387:
.LBB23_4:
	.loc	2 1181 1 is_stmt 1              @ rt-thread/components/drivers/sdio/sdio.c:1181:1
	add	sp, #8
	pop	{r7, pc}
.Ltmp388:
.Lfunc_end23:
	.size	sdio_irq_wakeup, .Lfunc_end23-sdio_irq_wakeup
	.cfi_endproc
	.cantunwind
	.fnend
                                        @ -- End function
	.section	.text.sdio_enable_func,"ax",%progbits
	.hidden	sdio_enable_func                @ -- Begin function sdio_enable_func
	.globl	sdio_enable_func
	.p2align	3
	.type	sdio_enable_func,%function
	.code	16                              @ @sdio_enable_func
	.thumb_func
sdio_enable_func:
.Lfunc_begin24:
	.loc	2 1184 0                        @ rt-thread/components/drivers/sdio/sdio.c:1184:0
	.fnstart
	.cfi_startproc
@ %bb.0:
	.save	{r7, lr}
	push	{r7, lr}
	.cfi_def_cfa_offset 8
	.cfi_offset lr, -4
	.cfi_offset r7, -8
	.pad	#24
	sub	sp, #24
	.cfi_def_cfa_offset 32
	str	r0, [sp, #16]
.Ltmp389:
	.loc	2 1190 5 prologue_end           @ rt-thread/components/drivers/sdio/sdio.c:1190:5
	ldr	r0, [sp, #16]
.Ltmp390:
	.loc	2 1190 5 is_stmt 0              @ rt-thread/components/drivers/sdio/sdio.c:1190:5
	cbnz	r0, .LBB24_2
	b	.LBB24_1
.LBB24_1:
.Ltmp391:
	.loc	2 1190 5                        @ rt-thread/components/drivers/sdio/sdio.c:1190:5
	movw	r0, :lower16:.L.str.13
	movt	r0, :upper16:.L.str.13
	movw	r1, :lower16:.L__FUNCTION__.sdio_enable_func
	movt	r1, :upper16:.L__FUNCTION__.sdio_enable_func
	movw	r2, #1190
	bl	rt_assert_handler
	b	.LBB24_2
.Ltmp392:
.LBB24_2:
	.loc	2 1191 5 is_stmt 1              @ rt-thread/components/drivers/sdio/sdio.c:1191:5
	ldr	r0, [sp, #16]
	ldr	r0, [r0]
.Ltmp393:
	.loc	2 1191 5 is_stmt 0              @ rt-thread/components/drivers/sdio/sdio.c:1191:5
	cbnz	r0, .LBB24_4
	b	.LBB24_3
.LBB24_3:
.Ltmp394:
	.loc	2 1191 5                        @ rt-thread/components/drivers/sdio/sdio.c:1191:5
	movw	r0, :lower16:.L.str.14
	movt	r0, :upper16:.L.str.14
	movw	r1, :lower16:.L__FUNCTION__.sdio_enable_func
	movt	r1, :upper16:.L__FUNCTION__.sdio_enable_func
	movw	r2, #1191
	bl	rt_assert_handler
	b	.LBB24_4
.Ltmp395:
.LBB24_4:
	.loc	2 1193 13 is_stmt 1             @ rt-thread/components/drivers/sdio/sdio.c:1193:13
	ldr	r0, [sp, #16]
	.loc	2 1193 19 is_stmt 0             @ rt-thread/components/drivers/sdio/sdio.c:1193:19
	ldr	r0, [r0]
	.loc	2 1193 13                       @ rt-thread/components/drivers/sdio/sdio.c:1193:13
	ldr	r0, [r0, #124]
	.loc	2 1193 11                       @ rt-thread/components/drivers/sdio/sdio.c:1193:11
	str	r0, [sp]
	.loc	2 1197 25 is_stmt 1             @ rt-thread/components/drivers/sdio/sdio.c:1197:25
	ldr	r0, [sp]
	movs	r1, #2
	add	r2, sp, #12
	.loc	2 1197 11 is_stmt 0             @ rt-thread/components/drivers/sdio/sdio.c:1197:11
	bl	sdio_io_readb
	.loc	2 1197 9                        @ rt-thread/components/drivers/sdio/sdio.c:1197:9
	strb.w	r0, [sp, #11]
.Ltmp396:
	.loc	2 1198 9 is_stmt 1              @ rt-thread/components/drivers/sdio/sdio.c:1198:9
	ldr	r0, [sp, #12]
.Ltmp397:
	.loc	2 1198 9 is_stmt 0              @ rt-thread/components/drivers/sdio/sdio.c:1198:9
	cbz	r0, .LBB24_6
	b	.LBB24_5
.LBB24_5:
.Ltmp398:
	.loc	2 1199 9 is_stmt 1              @ rt-thread/components/drivers/sdio/sdio.c:1199:9
	b	.LBB24_17
.Ltmp399:
.LBB24_6:
	.loc	2 1201 17                       @ rt-thread/components/drivers/sdio/sdio.c:1201:17
	ldr	r0, [sp, #16]
	.loc	2 1201 23 is_stmt 0             @ rt-thread/components/drivers/sdio/sdio.c:1201:23
	ldrb	r1, [r0, #8]
	movs	r0, #1
	.loc	2 1201 14                       @ rt-thread/components/drivers/sdio/sdio.c:1201:14
	lsl.w	r1, r0, r1
	.loc	2 1201 9                        @ rt-thread/components/drivers/sdio/sdio.c:1201:9
	ldrb.w	r0, [sp, #11]
	orrs	r0, r1
	strb.w	r0, [sp, #11]
	.loc	2 1203 26 is_stmt 1             @ rt-thread/components/drivers/sdio/sdio.c:1203:26
	ldr	r0, [sp]
	.loc	2 1203 54 is_stmt 0             @ rt-thread/components/drivers/sdio/sdio.c:1203:54
	ldrb.w	r2, [sp, #11]
	movs	r1, #2
	.loc	2 1203 11                       @ rt-thread/components/drivers/sdio/sdio.c:1203:11
	bl	sdio_io_writeb
	.loc	2 1203 9                        @ rt-thread/components/drivers/sdio/sdio.c:1203:9
	str	r0, [sp, #12]
.Ltmp400:
	.loc	2 1204 9 is_stmt 1              @ rt-thread/components/drivers/sdio/sdio.c:1204:9
	ldr	r0, [sp, #12]
.Ltmp401:
	.loc	2 1204 9 is_stmt 0              @ rt-thread/components/drivers/sdio/sdio.c:1204:9
	cbz	r0, .LBB24_8
	b	.LBB24_7
.LBB24_7:
.Ltmp402:
	.loc	2 1205 9 is_stmt 1              @ rt-thread/components/drivers/sdio/sdio.c:1205:9
	b	.LBB24_17
.Ltmp403:
.LBB24_8:
	.loc	2 1207 15                       @ rt-thread/components/drivers/sdio/sdio.c:1207:15
	bl	rt_tick_get
	.loc	2 1207 31 is_stmt 0             @ rt-thread/components/drivers/sdio/sdio.c:1207:31
	ldr	r1, [sp, #16]
	.loc	2 1207 37                       @ rt-thread/components/drivers/sdio/sdio.c:1207:37
	ldr	r1, [r1, #24]
	mov.w	r2, #1000
	.loc	2 1207 56                       @ rt-thread/components/drivers/sdio/sdio.c:1207:56
	muls	r1, r2, r1
	movw	r2, #19923
	movt	r2, #4194
	.loc	2 1207 77                       @ rt-thread/components/drivers/sdio/sdio.c:1207:77
	umull	r2, r1, r1, r2
	.loc	2 1207 29                       @ rt-thread/components/drivers/sdio/sdio.c:1207:29
	add.w	r0, r0, r1, lsr #6
	.loc	2 1207 13                       @ rt-thread/components/drivers/sdio/sdio.c:1207:13
	str	r0, [sp, #4]
	.loc	2 1209 5 is_stmt 1              @ rt-thread/components/drivers/sdio/sdio.c:1209:5
	b	.LBB24_9
.LBB24_9:                               @ =>This Inner Loop Header: Depth=1
.Ltmp404:
	.loc	2 1211 29                       @ rt-thread/components/drivers/sdio/sdio.c:1211:29
	ldr	r0, [sp]
	movs	r1, #3
	add	r2, sp, #12
	.loc	2 1211 15 is_stmt 0             @ rt-thread/components/drivers/sdio/sdio.c:1211:15
	bl	sdio_io_readb
	.loc	2 1211 13                       @ rt-thread/components/drivers/sdio/sdio.c:1211:13
	strb.w	r0, [sp, #11]
.Ltmp405:
	.loc	2 1212 13 is_stmt 1             @ rt-thread/components/drivers/sdio/sdio.c:1212:13
	ldr	r0, [sp, #12]
.Ltmp406:
	.loc	2 1212 13 is_stmt 0             @ rt-thread/components/drivers/sdio/sdio.c:1212:13
	cbz	r0, .LBB24_11
	b	.LBB24_10
.LBB24_10:
.Ltmp407:
	.loc	2 1213 13 is_stmt 1             @ rt-thread/components/drivers/sdio/sdio.c:1213:13
	b	.LBB24_17
.Ltmp408:
.LBB24_11:                              @   in Loop: Header=BB24_9 Depth=1
	.loc	2 1214 13                       @ rt-thread/components/drivers/sdio/sdio.c:1214:13
	ldrb.w	r0, [sp, #11]
	.loc	2 1214 25 is_stmt 0             @ rt-thread/components/drivers/sdio/sdio.c:1214:25
	ldr	r1, [sp, #16]
	.loc	2 1214 31                       @ rt-thread/components/drivers/sdio/sdio.c:1214:31
	ldrb	r1, [r1, #8]
.Ltmp409:
	.loc	2 1214 13                       @ rt-thread/components/drivers/sdio/sdio.c:1214:13
	lsrs	r0, r1
	lsls	r0, r0, #31
	cbz	r0, .LBB24_13
	b	.LBB24_12
.LBB24_12:
.Ltmp410:
	.loc	2 1215 13 is_stmt 1             @ rt-thread/components/drivers/sdio/sdio.c:1215:13
	b	.LBB24_16
.Ltmp411:
.LBB24_13:                              @   in Loop: Header=BB24_9 Depth=1
	.loc	2 0 13 is_stmt 0                @ rt-thread/components/drivers/sdio/sdio.c:0:13
	mvn	r0, #1
	.loc	2 1216 13 is_stmt 1             @ rt-thread/components/drivers/sdio/sdio.c:1216:13
	str	r0, [sp, #12]
.Ltmp412:
	.loc	2 1217 13                       @ rt-thread/components/drivers/sdio/sdio.c:1217:13
	bl	rt_tick_get
	.loc	2 1217 29 is_stmt 0             @ rt-thread/components/drivers/sdio/sdio.c:1217:29
	ldr	r1, [sp, #4]
.Ltmp413:
	.loc	2 1217 13                       @ rt-thread/components/drivers/sdio/sdio.c:1217:13
	cmp	r0, r1
	bls	.LBB24_15
	b	.LBB24_14
.LBB24_14:
.Ltmp414:
	.loc	2 1218 13 is_stmt 1             @ rt-thread/components/drivers/sdio/sdio.c:1218:13
	b	.LBB24_17
.Ltmp415:
.LBB24_15:                              @   in Loop: Header=BB24_9 Depth=1
	.loc	2 1209 5                        @ rt-thread/components/drivers/sdio/sdio.c:1209:5
	b	.LBB24_9
.LBB24_16:
	.loc	2 0 5 is_stmt 0                 @ rt-thread/components/drivers/sdio/sdio.c:0:5
	movs	r0, #0
	.loc	2 1223 5 is_stmt 1              @ rt-thread/components/drivers/sdio/sdio.c:1223:5
	str	r0, [sp, #20]
	b	.LBB24_18
.LBB24_17:
.Ltmp416:
	@DEBUG_LABEL: sdio_enable_func:err
	.loc	2 1227 12                       @ rt-thread/components/drivers/sdio/sdio.c:1227:12
	ldr	r0, [sp, #12]
	.loc	2 1227 5 is_stmt 0              @ rt-thread/components/drivers/sdio/sdio.c:1227:5
	str	r0, [sp, #20]
	b	.LBB24_18
.LBB24_18:
	.loc	2 1228 1 is_stmt 1              @ rt-thread/components/drivers/sdio/sdio.c:1228:1
	ldr	r0, [sp, #20]
	add	sp, #24
	pop	{r7, pc}
.Ltmp417:
.Lfunc_end24:
	.size	sdio_enable_func, .Lfunc_end24-sdio_enable_func
	.cfi_endproc
	.cantunwind
	.fnend
                                        @ -- End function
	.section	.text.sdio_disable_func,"ax",%progbits
	.hidden	sdio_disable_func               @ -- Begin function sdio_disable_func
	.globl	sdio_disable_func
	.p2align	3
	.type	sdio_disable_func,%function
	.code	16                              @ @sdio_disable_func
	.thumb_func
sdio_disable_func:
.Lfunc_begin25:
	.loc	2 1231 0                        @ rt-thread/components/drivers/sdio/sdio.c:1231:0
	.fnstart
	.cfi_startproc
@ %bb.0:
	.save	{r7, lr}
	push	{r7, lr}
	.cfi_def_cfa_offset 8
	.cfi_offset lr, -4
	.cfi_offset r7, -8
	.pad	#24
	sub	sp, #24
	.cfi_def_cfa_offset 32
	str	r0, [sp, #16]
.Ltmp418:
	.loc	2 1236 5 prologue_end           @ rt-thread/components/drivers/sdio/sdio.c:1236:5
	ldr	r0, [sp, #16]
.Ltmp419:
	.loc	2 1236 5 is_stmt 0              @ rt-thread/components/drivers/sdio/sdio.c:1236:5
	cbnz	r0, .LBB25_2
	b	.LBB25_1
.LBB25_1:
.Ltmp420:
	.loc	2 1236 5                        @ rt-thread/components/drivers/sdio/sdio.c:1236:5
	movw	r0, :lower16:.L.str.13
	movt	r0, :upper16:.L.str.13
	movw	r1, :lower16:.L__FUNCTION__.sdio_disable_func
	movt	r1, :upper16:.L__FUNCTION__.sdio_disable_func
	movw	r2, #1236
	bl	rt_assert_handler
	b	.LBB25_2
.Ltmp421:
.LBB25_2:
	.loc	2 1237 5 is_stmt 1              @ rt-thread/components/drivers/sdio/sdio.c:1237:5
	ldr	r0, [sp, #16]
	ldr	r0, [r0]
.Ltmp422:
	.loc	2 1237 5 is_stmt 0              @ rt-thread/components/drivers/sdio/sdio.c:1237:5
	cbnz	r0, .LBB25_4
	b	.LBB25_3
.LBB25_3:
.Ltmp423:
	.loc	2 1237 5                        @ rt-thread/components/drivers/sdio/sdio.c:1237:5
	movw	r0, :lower16:.L.str.14
	movt	r0, :upper16:.L.str.14
	movw	r1, :lower16:.L__FUNCTION__.sdio_disable_func
	movt	r1, :upper16:.L__FUNCTION__.sdio_disable_func
	movw	r2, #1237
	bl	rt_assert_handler
	b	.LBB25_4
.Ltmp424:
.LBB25_4:
	.loc	2 1239 13 is_stmt 1             @ rt-thread/components/drivers/sdio/sdio.c:1239:13
	ldr	r0, [sp, #16]
	.loc	2 1239 19 is_stmt 0             @ rt-thread/components/drivers/sdio/sdio.c:1239:19
	ldr	r0, [r0]
	.loc	2 1239 13                       @ rt-thread/components/drivers/sdio/sdio.c:1239:13
	ldr	r0, [r0, #124]
	.loc	2 1239 11                       @ rt-thread/components/drivers/sdio/sdio.c:1239:11
	str	r0, [sp, #4]
	.loc	2 1243 26 is_stmt 1             @ rt-thread/components/drivers/sdio/sdio.c:1243:26
	ldr	r0, [sp, #4]
	movs	r1, #2
	add	r2, sp, #12
	.loc	2 1243 12 is_stmt 0             @ rt-thread/components/drivers/sdio/sdio.c:1243:12
	bl	sdio_io_readb
	.loc	2 1243 9                        @ rt-thread/components/drivers/sdio/sdio.c:1243:9
	strb.w	r0, [sp, #11]
.Ltmp425:
	.loc	2 1244 9 is_stmt 1              @ rt-thread/components/drivers/sdio/sdio.c:1244:9
	ldr	r0, [sp, #12]
.Ltmp426:
	.loc	2 1244 9 is_stmt 0              @ rt-thread/components/drivers/sdio/sdio.c:1244:9
	cbz	r0, .LBB25_6
	b	.LBB25_5
.LBB25_5:
.Ltmp427:
	.loc	2 1245 9 is_stmt 1              @ rt-thread/components/drivers/sdio/sdio.c:1245:9
	b	.LBB25_9
.Ltmp428:
.LBB25_6:
	.loc	2 1247 19                       @ rt-thread/components/drivers/sdio/sdio.c:1247:19
	ldr	r0, [sp, #16]
	.loc	2 1247 25 is_stmt 0             @ rt-thread/components/drivers/sdio/sdio.c:1247:25
	ldrb	r1, [r0, #8]
	movs	r0, #1
	.loc	2 1247 16                       @ rt-thread/components/drivers/sdio/sdio.c:1247:16
	lsl.w	r1, r0, r1
	.loc	2 1247 9                        @ rt-thread/components/drivers/sdio/sdio.c:1247:9
	ldrb.w	r0, [sp, #11]
	bics	r0, r1
	strb.w	r0, [sp, #11]
	.loc	2 1249 26 is_stmt 1             @ rt-thread/components/drivers/sdio/sdio.c:1249:26
	ldr	r0, [sp, #4]
	.loc	2 1249 54 is_stmt 0             @ rt-thread/components/drivers/sdio/sdio.c:1249:54
	ldrb.w	r2, [sp, #11]
	movs	r1, #2
	.loc	2 1249 11                       @ rt-thread/components/drivers/sdio/sdio.c:1249:11
	bl	sdio_io_writeb
	.loc	2 1249 9                        @ rt-thread/components/drivers/sdio/sdio.c:1249:9
	str	r0, [sp, #12]
.Ltmp429:
	.loc	2 1250 9 is_stmt 1              @ rt-thread/components/drivers/sdio/sdio.c:1250:9
	ldr	r0, [sp, #12]
.Ltmp430:
	.loc	2 1250 9 is_stmt 0              @ rt-thread/components/drivers/sdio/sdio.c:1250:9
	cbz	r0, .LBB25_8
	b	.LBB25_7
.LBB25_7:
.Ltmp431:
	.loc	2 1251 9 is_stmt 1              @ rt-thread/components/drivers/sdio/sdio.c:1251:9
	b	.LBB25_9
.Ltmp432:
.LBB25_8:
	.loc	2 0 9 is_stmt 0                 @ rt-thread/components/drivers/sdio/sdio.c:0:9
	movs	r0, #0
	.loc	2 1255 5 is_stmt 1              @ rt-thread/components/drivers/sdio/sdio.c:1255:5
	str	r0, [sp, #20]
	b	.LBB25_10
.LBB25_9:
.Ltmp433:
	@DEBUG_LABEL: sdio_disable_func:err
	.loc	2 0 5 is_stmt 0                 @ rt-thread/components/drivers/sdio/sdio.c:0:5
	mvn	r0, #7
	.loc	2 1259 5 is_stmt 1              @ rt-thread/components/drivers/sdio/sdio.c:1259:5
	str	r0, [sp, #20]
	b	.LBB25_10
.LBB25_10:
	.loc	2 1260 1                        @ rt-thread/components/drivers/sdio/sdio.c:1260:1
	ldr	r0, [sp, #20]
	add	sp, #24
	pop	{r7, pc}
.Ltmp434:
.Lfunc_end25:
	.size	sdio_disable_func, .Lfunc_end25-sdio_disable_func
	.cfi_endproc
	.cantunwind
	.fnend
                                        @ -- End function
	.section	.text.sdio_set_drvdata,"ax",%progbits
	.hidden	sdio_set_drvdata                @ -- Begin function sdio_set_drvdata
	.globl	sdio_set_drvdata
	.p2align	3
	.type	sdio_set_drvdata,%function
	.code	16                              @ @sdio_set_drvdata
	.thumb_func
sdio_set_drvdata:
.Lfunc_begin26:
	.loc	2 1263 0                        @ rt-thread/components/drivers/sdio/sdio.c:1263:0
	.fnstart
	.cfi_startproc
@ %bb.0:
	.pad	#8
	sub	sp, #8
	.cfi_def_cfa_offset 8
	str	r0, [sp, #4]
	str	r1, [sp]
.Ltmp435:
	.loc	2 1264 18 prologue_end          @ rt-thread/components/drivers/sdio/sdio.c:1264:18
	ldr	r0, [sp]
	.loc	2 1264 5 is_stmt 0              @ rt-thread/components/drivers/sdio/sdio.c:1264:5
	ldr	r1, [sp, #4]
	.loc	2 1264 16                       @ rt-thread/components/drivers/sdio/sdio.c:1264:16
	str	r0, [r1, #32]
	.loc	2 1265 1 is_stmt 1              @ rt-thread/components/drivers/sdio/sdio.c:1265:1
	add	sp, #8
	bx	lr
.Ltmp436:
.Lfunc_end26:
	.size	sdio_set_drvdata, .Lfunc_end26-sdio_set_drvdata
	.cfi_endproc
	.cantunwind
	.fnend
                                        @ -- End function
	.section	.text.sdio_get_drvdata,"ax",%progbits
	.hidden	sdio_get_drvdata                @ -- Begin function sdio_get_drvdata
	.globl	sdio_get_drvdata
	.p2align	3
	.type	sdio_get_drvdata,%function
	.code	16                              @ @sdio_get_drvdata
	.thumb_func
sdio_get_drvdata:
.Lfunc_begin27:
	.loc	2 1268 0                        @ rt-thread/components/drivers/sdio/sdio.c:1268:0
	.fnstart
	.cfi_startproc
@ %bb.0:
	.pad	#4
	sub	sp, #4
	.cfi_def_cfa_offset 4
	str	r0, [sp]
.Ltmp437:
	.loc	2 1269 12 prologue_end          @ rt-thread/components/drivers/sdio/sdio.c:1269:12
	ldr	r0, [sp]
	.loc	2 1269 18 is_stmt 0             @ rt-thread/components/drivers/sdio/sdio.c:1269:18
	ldr	r0, [r0, #32]
	.loc	2 1269 5                        @ rt-thread/components/drivers/sdio/sdio.c:1269:5
	add	sp, #4
	bx	lr
.Ltmp438:
.Lfunc_end27:
	.size	sdio_get_drvdata, .Lfunc_end27-sdio_get_drvdata
	.cfi_endproc
	.cantunwind
	.fnend
                                        @ -- End function
	.section	.text.sdio_set_block_size,"ax",%progbits
	.hidden	sdio_set_block_size             @ -- Begin function sdio_set_block_size
	.globl	sdio_set_block_size
	.p2align	3
	.type	sdio_set_block_size,%function
	.code	16                              @ @sdio_set_block_size
	.thumb_func
sdio_set_block_size:
.Lfunc_begin28:
	.loc	2 1274 0 is_stmt 1              @ rt-thread/components/drivers/sdio/sdio.c:1274:0
	.fnstart
	.cfi_startproc
@ %bb.0:
	.save	{r7, lr}
	push	{r7, lr}
	.cfi_def_cfa_offset 8
	.cfi_offset lr, -4
	.cfi_offset r7, -8
	.pad	#32
	sub	sp, #32
	.cfi_def_cfa_offset 40
	str	r0, [sp, #24]
	str	r1, [sp, #20]
.Ltmp439:
	.loc	2 1276 38 prologue_end          @ rt-thread/components/drivers/sdio/sdio.c:1276:38
	ldr	r0, [sp, #24]
	.loc	2 1276 44 is_stmt 0             @ rt-thread/components/drivers/sdio/sdio.c:1276:44
	ldr	r0, [r0]
	.loc	2 1276 38                       @ rt-thread/components/drivers/sdio/sdio.c:1276:38
	ldr	r0, [r0, #124]
	.loc	2 1276 30                       @ rt-thread/components/drivers/sdio/sdio.c:1276:30
	str	r0, [sp, #12]
.Ltmp440:
	.loc	2 1278 9 is_stmt 1              @ rt-thread/components/drivers/sdio/sdio.c:1278:9
	ldr	r0, [sp, #20]
	.loc	2 1278 19 is_stmt 0             @ rt-thread/components/drivers/sdio/sdio.c:1278:19
	ldr	r1, [sp, #24]
	.loc	2 1278 25                       @ rt-thread/components/drivers/sdio/sdio.c:1278:25
	ldr	r1, [r1]
	.loc	2 1278 31                       @ rt-thread/components/drivers/sdio/sdio.c:1278:31
	ldr	r1, [r1]
	.loc	2 1278 37                       @ rt-thread/components/drivers/sdio/sdio.c:1278:37
	ldr	r1, [r1, #44]
.Ltmp441:
	.loc	2 1278 9                        @ rt-thread/components/drivers/sdio/sdio.c:1278:9
	cmp	r0, r1
	bls	.LBB28_2
	b	.LBB28_1
.LBB28_1:
	.loc	2 0 9                           @ rt-thread/components/drivers/sdio/sdio.c:0:9
	mov.w	r0, #-1
.Ltmp442:
	.loc	2 1279 9 is_stmt 1              @ rt-thread/components/drivers/sdio/sdio.c:1279:9
	str	r0, [sp, #28]
	b	.LBB28_15
.Ltmp443:
.LBB28_2:
	.loc	2 1281 9                        @ rt-thread/components/drivers/sdio/sdio.c:1281:9
	ldr	r0, [sp, #20]
.Ltmp444:
	.loc	2 1281 9 is_stmt 0              @ rt-thread/components/drivers/sdio/sdio.c:1281:9
	cbnz	r0, .LBB28_10
	b	.LBB28_3
.LBB28_3:
.Ltmp445:
	.loc	2 1283 19 is_stmt 1             @ rt-thread/components/drivers/sdio/sdio.c:1283:19
	ldr	r0, [sp, #24]
	ldr	r1, [r0]
	ldr	r0, [r0, #16]
	ldr	r1, [r1]
	ldr	r1, [r1, #44]
	cmp	r0, r1
	bhs	.LBB28_5
	b	.LBB28_4
.LBB28_4:
	ldr	r0, [sp, #24]
	ldr	r0, [r0, #16]
	str	r0, [sp, #8]                    @ 4-byte Spill
	b	.LBB28_6
.LBB28_5:
	ldr	r0, [sp, #24]
	ldr	r0, [r0]
	ldr	r0, [r0]
	ldr	r0, [r0, #44]
	str	r0, [sp, #8]                    @ 4-byte Spill
	b	.LBB28_6
.LBB28_6:
	ldr	r0, [sp, #8]                    @ 4-byte Reload
	.loc	2 1283 17 is_stmt 0             @ rt-thread/components/drivers/sdio/sdio.c:1283:17
	str	r0, [sp, #20]
	.loc	2 1284 19 is_stmt 1             @ rt-thread/components/drivers/sdio/sdio.c:1284:19
	ldr	r1, [sp, #20]
	movs	r0, #0
	cmp.w	r0, r1, lsr #9
	bne	.LBB28_8
	b	.LBB28_7
.LBB28_7:
	ldr	r0, [sp, #20]
	str	r0, [sp, #4]                    @ 4-byte Spill
	b	.LBB28_9
.LBB28_8:
	.loc	2 0 19 is_stmt 0                @ rt-thread/components/drivers/sdio/sdio.c:0:19
	mov.w	r0, #512
	.loc	2 1284 19                       @ rt-thread/components/drivers/sdio/sdio.c:1284:19
	str	r0, [sp, #4]                    @ 4-byte Spill
	b	.LBB28_9
.LBB28_9:
	ldr	r0, [sp, #4]                    @ 4-byte Reload
	.loc	2 1284 17                       @ rt-thread/components/drivers/sdio/sdio.c:1284:17
	str	r0, [sp, #20]
	.loc	2 1285 5 is_stmt 1              @ rt-thread/components/drivers/sdio/sdio.c:1285:5
	b	.LBB28_10
.Ltmp446:
.LBB28_10:
	.loc	2 1287 26                       @ rt-thread/components/drivers/sdio/sdio.c:1287:26
	ldr	r0, [sp, #12]
	.loc	2 1287 33 is_stmt 0             @ rt-thread/components/drivers/sdio/sdio.c:1287:33
	ldr	r1, [sp, #24]
	ldrb	r1, [r1, #8]
	lsls	r1, r1, #8
	.loc	2 1287 62                       @ rt-thread/components/drivers/sdio/sdio.c:1287:62
	adds	r1, #16
	.loc	2 1288 18 is_stmt 1             @ rt-thread/components/drivers/sdio/sdio.c:1288:18
	ldrb.w	r2, [sp, #20]
	.loc	2 1287 11                       @ rt-thread/components/drivers/sdio/sdio.c:1287:11
	bl	sdio_io_writeb
	.loc	2 1287 9 is_stmt 0              @ rt-thread/components/drivers/sdio/sdio.c:1287:9
	str	r0, [sp, #16]
.Ltmp447:
	.loc	2 1289 9 is_stmt 1              @ rt-thread/components/drivers/sdio/sdio.c:1289:9
	ldr	r0, [sp, #16]
.Ltmp448:
	.loc	2 1289 9 is_stmt 0              @ rt-thread/components/drivers/sdio/sdio.c:1289:9
	cbz	r0, .LBB28_12
	b	.LBB28_11
.LBB28_11:
.Ltmp449:
	.loc	2 1290 16 is_stmt 1             @ rt-thread/components/drivers/sdio/sdio.c:1290:16
	ldr	r0, [sp, #16]
	.loc	2 1290 9 is_stmt 0              @ rt-thread/components/drivers/sdio/sdio.c:1290:9
	str	r0, [sp, #28]
	b	.LBB28_15
.Ltmp450:
.LBB28_12:
	.loc	2 1291 26 is_stmt 1             @ rt-thread/components/drivers/sdio/sdio.c:1291:26
	ldr	r0, [sp, #12]
	.loc	2 1291 33 is_stmt 0             @ rt-thread/components/drivers/sdio/sdio.c:1291:33
	ldr	r1, [sp, #24]
	ldrb	r1, [r1, #8]
	lsls	r1, r1, #8
	.loc	2 1291 85                       @ rt-thread/components/drivers/sdio/sdio.c:1291:85
	adds	r1, #17
	.loc	2 1292 19 is_stmt 1             @ rt-thread/components/drivers/sdio/sdio.c:1292:19
	ldrb.w	r2, [sp, #21]
	.loc	2 1291 11                       @ rt-thread/components/drivers/sdio/sdio.c:1291:11
	bl	sdio_io_writeb
	.loc	2 1291 9 is_stmt 0              @ rt-thread/components/drivers/sdio/sdio.c:1291:9
	str	r0, [sp, #16]
.Ltmp451:
	.loc	2 1293 9 is_stmt 1              @ rt-thread/components/drivers/sdio/sdio.c:1293:9
	ldr	r0, [sp, #16]
.Ltmp452:
	.loc	2 1293 9 is_stmt 0              @ rt-thread/components/drivers/sdio/sdio.c:1293:9
	cbz	r0, .LBB28_14
	b	.LBB28_13
.LBB28_13:
.Ltmp453:
	.loc	2 1294 16 is_stmt 1             @ rt-thread/components/drivers/sdio/sdio.c:1294:16
	ldr	r0, [sp, #16]
	.loc	2 1294 9 is_stmt 0              @ rt-thread/components/drivers/sdio/sdio.c:1294:9
	str	r0, [sp, #28]
	b	.LBB28_15
.Ltmp454:
.LBB28_14:
	.loc	2 1295 26 is_stmt 1             @ rt-thread/components/drivers/sdio/sdio.c:1295:26
	ldr	r0, [sp, #20]
	.loc	2 1295 5 is_stmt 0              @ rt-thread/components/drivers/sdio/sdio.c:1295:5
	ldr	r1, [sp, #24]
	.loc	2 1295 24                       @ rt-thread/components/drivers/sdio/sdio.c:1295:24
	str	r0, [r1, #20]
	movs	r0, #0
	.loc	2 1297 5 is_stmt 1              @ rt-thread/components/drivers/sdio/sdio.c:1297:5
	str	r0, [sp, #28]
	b	.LBB28_15
.LBB28_15:
	.loc	2 1298 1                        @ rt-thread/components/drivers/sdio/sdio.c:1298:1
	ldr	r0, [sp, #28]
	add	sp, #32
	pop	{r7, pc}
.Ltmp455:
.Lfunc_end28:
	.size	sdio_set_block_size, .Lfunc_end28-sdio_set_block_size
	.cfi_endproc
	.cantunwind
	.fnend
                                        @ -- End function
	.section	.text.sdio_register_driver,"ax",%progbits
	.hidden	sdio_register_driver            @ -- Begin function sdio_register_driver
	.globl	sdio_register_driver
	.p2align	3
	.type	sdio_register_driver,%function
	.code	16                              @ @sdio_register_driver
	.thumb_func
sdio_register_driver:
.Lfunc_begin29:
	.loc	2 1342 0                        @ rt-thread/components/drivers/sdio/sdio.c:1342:0
	.fnstart
	.cfi_startproc
@ %bb.0:
	.save	{r7, lr}
	push	{r7, lr}
	.cfi_def_cfa_offset 8
	.cfi_offset lr, -4
	.cfi_offset r7, -8
	.pad	#16
	sub	sp, #16
	.cfi_def_cfa_offset 24
	str	r0, [sp, #8]
	movs	r0, #12
.Ltmp456:
	.loc	2 1346 10 prologue_end          @ rt-thread/components/drivers/sdio/sdio.c:1346:10
	bl	rt_malloc
	.loc	2 1346 8 is_stmt 0              @ rt-thread/components/drivers/sdio/sdio.c:1346:8
	str	r0, [sp, #4]
.Ltmp457:
	.loc	2 1347 9 is_stmt 1              @ rt-thread/components/drivers/sdio/sdio.c:1347:9
	ldr	r0, [sp, #4]
.Ltmp458:
	.loc	2 1347 9 is_stmt 0              @ rt-thread/components/drivers/sdio/sdio.c:1347:9
	cbnz	r0, .LBB29_4
	b	.LBB29_1
.LBB29_1:
.Ltmp459:
	.loc	2 1349 9 is_stmt 1              @ rt-thread/components/drivers/sdio/sdio.c:1349:9
	b	.LBB29_2
.LBB29_2:
.Ltmp460:
	.loc	2 1349 9 is_stmt 0              @ rt-thread/components/drivers/sdio/sdio.c:1349:9
	movw	r0, :lower16:.L.str.11
	movt	r0, :upper16:.L.str.11
	bl	rt_kprintf
	movw	r0, :lower16:.L.str.15
	movt	r0, :upper16:.L.str.15
	bl	rt_kprintf
	movw	r0, :lower16:.L.str.9
	movt	r0, :upper16:.L.str.9
	bl	rt_kprintf
	b	.LBB29_3
.Ltmp461:
.LBB29_3:
	.loc	2 0 9                           @ rt-thread/components/drivers/sdio/sdio.c:0:9
	mvn	r0, #4
	.loc	2 1351 9 is_stmt 1              @ rt-thread/components/drivers/sdio/sdio.c:1351:9
	str	r0, [sp, #12]
	b	.LBB29_9
.Ltmp462:
.LBB29_4:
	.loc	2 1354 15                       @ rt-thread/components/drivers/sdio/sdio.c:1354:15
	ldr	r0, [sp, #8]
	.loc	2 1354 5 is_stmt 0              @ rt-thread/components/drivers/sdio/sdio.c:1354:5
	ldr	r1, [sp, #4]
	.loc	2 1354 13                       @ rt-thread/components/drivers/sdio/sdio.c:1354:13
	str	r0, [r1]
	.loc	2 1355 42 is_stmt 1             @ rt-thread/components/drivers/sdio/sdio.c:1355:42
	ldr	r0, [sp, #4]
	.loc	2 1355 46 is_stmt 0             @ rt-thread/components/drivers/sdio/sdio.c:1355:46
	adds	r1, r0, #4
	.loc	2 1355 5                        @ rt-thread/components/drivers/sdio/sdio.c:1355:5
	movw	r0, :lower16:sdio_drivers
	movt	r0, :upper16:sdio_drivers
	bl	rt_list_insert_after
.Ltmp463:
	.loc	2 1357 10 is_stmt 1             @ rt-thread/components/drivers/sdio/sdio.c:1357:10
	movw	r0, :lower16:sdio_cards
	movt	r0, :upper16:sdio_cards
	bl	rt_list_isempty
.Ltmp464:
	.loc	2 1357 9 is_stmt 0              @ rt-thread/components/drivers/sdio/sdio.c:1357:9
	cbnz	r0, .LBB29_8
	b	.LBB29_5
.LBB29_5:
.Ltmp465:
	.loc	2 1359 34 is_stmt 1             @ rt-thread/components/drivers/sdio/sdio.c:1359:34
	ldr	r0, [sp, #8]
	.loc	2 1359 42 is_stmt 0             @ rt-thread/components/drivers/sdio/sdio.c:1359:42
	ldr	r0, [r0, #12]
	.loc	2 1359 16                       @ rt-thread/components/drivers/sdio/sdio.c:1359:16
	bl	sdio_match_driver
	.loc	2 1359 14                       @ rt-thread/components/drivers/sdio/sdio.c:1359:14
	str	r0, [sp]
.Ltmp466:
	.loc	2 1360 13 is_stmt 1             @ rt-thread/components/drivers/sdio/sdio.c:1360:13
	ldr	r0, [sp]
.Ltmp467:
	.loc	2 1360 13 is_stmt 0             @ rt-thread/components/drivers/sdio/sdio.c:1360:13
	cbz	r0, .LBB29_7
	b	.LBB29_6
.LBB29_6:
.Ltmp468:
	.loc	2 1362 20 is_stmt 1             @ rt-thread/components/drivers/sdio/sdio.c:1362:20
	ldr	r0, [sp, #8]
	.loc	2 1362 28 is_stmt 0             @ rt-thread/components/drivers/sdio/sdio.c:1362:28
	ldr	r1, [r0, #4]
	.loc	2 1362 34                       @ rt-thread/components/drivers/sdio/sdio.c:1362:34
	ldr	r0, [sp]
	.loc	2 1362 20                       @ rt-thread/components/drivers/sdio/sdio.c:1362:20
	blx	r1
	.loc	2 1362 13                       @ rt-thread/components/drivers/sdio/sdio.c:1362:13
	str	r0, [sp, #12]
	b	.LBB29_9
.Ltmp469:
.LBB29_7:
	.loc	2 1364 5 is_stmt 1              @ rt-thread/components/drivers/sdio/sdio.c:1364:5
	b	.LBB29_8
.Ltmp470:
.LBB29_8:
	.loc	2 0 5 is_stmt 0                 @ rt-thread/components/drivers/sdio/sdio.c:0:5
	mvn	r0, #3
	.loc	2 1366 5 is_stmt 1              @ rt-thread/components/drivers/sdio/sdio.c:1366:5
	str	r0, [sp, #12]
	b	.LBB29_9
.LBB29_9:
	.loc	2 1367 1                        @ rt-thread/components/drivers/sdio/sdio.c:1367:1
	ldr	r0, [sp, #12]
	add	sp, #16
	pop	{r7, pc}
.Ltmp471:
.Lfunc_end29:
	.size	sdio_register_driver, .Lfunc_end29-sdio_register_driver
	.cfi_endproc
	.cantunwind
	.fnend
                                        @ -- End function
	.section	.text.rt_list_insert_after,"ax",%progbits
	.p2align	3                               @ -- Begin function rt_list_insert_after
	.type	rt_list_insert_after,%function
	.code	16                              @ @rt_list_insert_after
	.thumb_func
rt_list_insert_after:
.Lfunc_begin30:
	.file	7 "E:\\Smart-access-control\\Hardware\\CODE" "rt-thread/include\\rtservice.h"
	.loc	7 59 0                          @ rt-thread/include\rtservice.h:59:0
	.fnstart
	.cfi_startproc
@ %bb.0:
	.pad	#8
	sub	sp, #8
	.cfi_def_cfa_offset 8
	str	r0, [sp, #4]
	str	r1, [sp]
.Ltmp472:
	.loc	7 60 21 prologue_end            @ rt-thread/include\rtservice.h:60:21
	ldr	r0, [sp]
	.loc	7 60 5 is_stmt 0                @ rt-thread/include\rtservice.h:60:5
	ldr	r1, [sp, #4]
	.loc	7 60 8                          @ rt-thread/include\rtservice.h:60:8
	ldr	r1, [r1]
	.loc	7 60 19                         @ rt-thread/include\rtservice.h:60:19
	str	r0, [r1, #4]
	.loc	7 61 15 is_stmt 1               @ rt-thread/include\rtservice.h:61:15
	ldr	r0, [sp, #4]
	.loc	7 61 18 is_stmt 0               @ rt-thread/include\rtservice.h:61:18
	ldr	r0, [r0]
	.loc	7 61 5                          @ rt-thread/include\rtservice.h:61:5
	ldr	r1, [sp]
	.loc	7 61 13                         @ rt-thread/include\rtservice.h:61:13
	str	r0, [r1]
	.loc	7 63 15 is_stmt 1               @ rt-thread/include\rtservice.h:63:15
	ldr	r0, [sp]
	.loc	7 63 5 is_stmt 0                @ rt-thread/include\rtservice.h:63:5
	ldr	r1, [sp, #4]
	.loc	7 63 13                         @ rt-thread/include\rtservice.h:63:13
	str	r0, [r1]
	.loc	7 64 15 is_stmt 1               @ rt-thread/include\rtservice.h:64:15
	ldr	r0, [sp, #4]
	.loc	7 64 5 is_stmt 0                @ rt-thread/include\rtservice.h:64:5
	ldr	r1, [sp]
	.loc	7 64 13                         @ rt-thread/include\rtservice.h:64:13
	str	r0, [r1, #4]
	.loc	7 65 1 is_stmt 1                @ rt-thread/include\rtservice.h:65:1
	add	sp, #8
	bx	lr
.Ltmp473:
.Lfunc_end30:
	.size	rt_list_insert_after, .Lfunc_end30-rt_list_insert_after
	.cfi_endproc
	.cantunwind
	.fnend
                                        @ -- End function
	.section	.text.rt_list_isempty,"ax",%progbits
	.p2align	3                               @ -- Begin function rt_list_isempty
	.type	rt_list_isempty,%function
	.code	16                              @ @rt_list_isempty
	.thumb_func
rt_list_isempty:
.Lfunc_begin31:
	.loc	7 99 0                          @ rt-thread/include\rtservice.h:99:0
	.fnstart
	.cfi_startproc
@ %bb.0:
	.pad	#4
	sub	sp, #4
	.cfi_def_cfa_offset 4
	str	r0, [sp]
.Ltmp474:
	.loc	7 100 12 prologue_end           @ rt-thread/include\rtservice.h:100:12
	ldr	r1, [sp]
	.loc	7 100 15 is_stmt 0              @ rt-thread/include\rtservice.h:100:15
	ldr	r0, [r1]
	.loc	7 100 20                        @ rt-thread/include\rtservice.h:100:20
	subs	r0, r0, r1
	clz	r0, r0
	lsrs	r0, r0, #5
	.loc	7 100 5                         @ rt-thread/include\rtservice.h:100:5
	add	sp, #4
	bx	lr
.Ltmp475:
.Lfunc_end31:
	.size	rt_list_isempty, .Lfunc_end31-rt_list_isempty
	.cfi_endproc
	.cantunwind
	.fnend
                                        @ -- End function
	.section	.text.sdio_match_driver,"ax",%progbits
	.p2align	3                               @ -- Begin function sdio_match_driver
	.type	sdio_match_driver,%function
	.code	16                              @ @sdio_match_driver
	.thumb_func
sdio_match_driver:
.Lfunc_begin32:
	.loc	2 1322 0 is_stmt 1              @ rt-thread/components/drivers/sdio/sdio.c:1322:0
	.fnstart
	.cfi_startproc
@ %bb.0:
	.save	{r7, lr}
	push	{r7, lr}
	.cfi_def_cfa_offset 8
	.cfi_offset lr, -4
	.cfi_offset r7, -8
	.pad	#24
	sub	sp, #24
	.cfi_def_cfa_offset 32
	str	r0, [sp, #16]
.Ltmp476:
	.loc	2 1327 29 prologue_end          @ rt-thread/components/drivers/sdio/sdio.c:1327:29
	movw	r0, :lower16:sdio_cards
	movt	r0, :upper16:sdio_cards
	ldr	r0, [r0]
	.loc	2 1327 12 is_stmt 0             @ rt-thread/components/drivers/sdio/sdio.c:1327:12
	str	r0, [sp, #12]
	.loc	2 1327 10                       @ rt-thread/components/drivers/sdio/sdio.c:1327:10
	b	.LBB32_1
.LBB32_1:                               @ =>This Inner Loop Header: Depth=1
.Ltmp477:
	.loc	2 1327 35                       @ rt-thread/components/drivers/sdio/sdio.c:1327:35
	ldr	r0, [sp, #12]
	.loc	2 1327 37                       @ rt-thread/components/drivers/sdio/sdio.c:1327:37
	movw	r1, :lower16:sdio_cards
	movt	r1, :upper16:sdio_cards
.Ltmp478:
	.loc	2 1327 5                        @ rt-thread/components/drivers/sdio/sdio.c:1327:5
	cmp	r0, r1
	beq	.LBB32_6
	b	.LBB32_2
.LBB32_2:                               @   in Loop: Header=BB32_1 Depth=1
.Ltmp479:
	.loc	2 1329 34 is_stmt 1             @ rt-thread/components/drivers/sdio/sdio.c:1329:34
	ldr	r0, [sp, #12]
	subs	r0, #4
	.loc	2 1329 12 is_stmt 0             @ rt-thread/components/drivers/sdio/sdio.c:1329:12
	str	r0, [sp, #8]
	.loc	2 1330 16 is_stmt 1             @ rt-thread/components/drivers/sdio/sdio.c:1330:16
	ldr	r0, [sp, #8]
	.loc	2 1330 20 is_stmt 0             @ rt-thread/components/drivers/sdio/sdio.c:1330:20
	ldr	r0, [r0]
	.loc	2 1330 14                       @ rt-thread/components/drivers/sdio/sdio.c:1330:14
	str	r0, [sp, #4]
.Ltmp480:
	.loc	2 1332 29 is_stmt 1             @ rt-thread/components/drivers/sdio/sdio.c:1332:29
	ldr	r0, [sp, #4]
	.loc	2 1332 35 is_stmt 0             @ rt-thread/components/drivers/sdio/sdio.c:1332:35
	ldr	r1, [sp, #16]
	.loc	2 1332 13                       @ rt-thread/components/drivers/sdio/sdio.c:1332:13
	bl	sdio_match_card
.Ltmp481:
	.loc	2 1332 13                       @ rt-thread/components/drivers/sdio/sdio.c:1332:13
	cbz	r0, .LBB32_4
	b	.LBB32_3
.LBB32_3:
.Ltmp482:
	.loc	2 1334 20 is_stmt 1             @ rt-thread/components/drivers/sdio/sdio.c:1334:20
	ldr	r0, [sp, #4]
	.loc	2 1334 13 is_stmt 0             @ rt-thread/components/drivers/sdio/sdio.c:1334:13
	str	r0, [sp, #20]
	b	.LBB32_7
.Ltmp483:
.LBB32_4:                               @   in Loop: Header=BB32_1 Depth=1
	.loc	2 1336 5 is_stmt 1              @ rt-thread/components/drivers/sdio/sdio.c:1336:5
	b	.LBB32_5
.Ltmp484:
.LBB32_5:                               @   in Loop: Header=BB32_1 Depth=1
	.loc	2 1327 57                       @ rt-thread/components/drivers/sdio/sdio.c:1327:57
	ldr	r0, [sp, #12]
	.loc	2 1327 60 is_stmt 0             @ rt-thread/components/drivers/sdio/sdio.c:1327:60
	ldr	r0, [r0]
	.loc	2 1327 55                       @ rt-thread/components/drivers/sdio/sdio.c:1327:55
	str	r0, [sp, #12]
	.loc	2 1327 5                        @ rt-thread/components/drivers/sdio/sdio.c:1327:5
	b	.LBB32_1
.Ltmp485:
.LBB32_6:
	.loc	2 0 5                           @ rt-thread/components/drivers/sdio/sdio.c:0:5
	movs	r0, #0
	.loc	2 1338 5 is_stmt 1              @ rt-thread/components/drivers/sdio/sdio.c:1338:5
	str	r0, [sp, #20]
	b	.LBB32_7
.LBB32_7:
	.loc	2 1339 1                        @ rt-thread/components/drivers/sdio/sdio.c:1339:1
	ldr	r0, [sp, #20]
	add	sp, #24
	pop	{r7, pc}
.Ltmp486:
.Lfunc_end32:
	.size	sdio_match_driver, .Lfunc_end32-sdio_match_driver
	.cfi_endproc
	.cantunwind
	.fnend
                                        @ -- End function
	.section	.text.sdio_unregister_driver,"ax",%progbits
	.hidden	sdio_unregister_driver          @ -- Begin function sdio_unregister_driver
	.globl	sdio_unregister_driver
	.p2align	3
	.type	sdio_unregister_driver,%function
	.code	16                              @ @sdio_unregister_driver
	.thumb_func
sdio_unregister_driver:
.Lfunc_begin33:
	.loc	2 1370 0                        @ rt-thread/components/drivers/sdio/sdio.c:1370:0
	.fnstart
	.cfi_startproc
@ %bb.0:
	.save	{r7, lr}
	push	{r7, lr}
	.cfi_def_cfa_offset 8
	.cfi_offset lr, -4
	.cfi_offset r7, -8
	.pad	#24
	sub	sp, #24
	.cfi_def_cfa_offset 32
	str	r0, [sp, #16]
	movs	r0, #0
.Ltmp487:
	.loc	2 1372 25 prologue_end          @ rt-thread/components/drivers/sdio/sdio.c:1372:25
	str	r0, [sp, #8]
.Ltmp488:
	.loc	2 1375 31                       @ rt-thread/components/drivers/sdio/sdio.c:1375:31
	movw	r0, :lower16:sdio_drivers
	movt	r0, :upper16:sdio_drivers
	ldr	r0, [r0]
	.loc	2 1375 12 is_stmt 0             @ rt-thread/components/drivers/sdio/sdio.c:1375:12
	str	r0, [sp, #12]
	.loc	2 1375 10                       @ rt-thread/components/drivers/sdio/sdio.c:1375:10
	b	.LBB33_1
.LBB33_1:                               @ =>This Inner Loop Header: Depth=1
.Ltmp489:
	.loc	2 1375 37                       @ rt-thread/components/drivers/sdio/sdio.c:1375:37
	ldr	r0, [sp, #12]
	.loc	2 1375 39                       @ rt-thread/components/drivers/sdio/sdio.c:1375:39
	movw	r1, :lower16:sdio_drivers
	movt	r1, :upper16:sdio_drivers
.Ltmp490:
	.loc	2 1375 5                        @ rt-thread/components/drivers/sdio/sdio.c:1375:5
	cmp	r0, r1
	beq	.LBB33_6
	b	.LBB33_2
.LBB33_2:                               @   in Loop: Header=BB33_1 Depth=1
.Ltmp491:
	.loc	2 1377 36 is_stmt 1             @ rt-thread/components/drivers/sdio/sdio.c:1377:36
	ldr	r0, [sp, #12]
	subs	r0, #4
	.loc	2 1377 12 is_stmt 0             @ rt-thread/components/drivers/sdio/sdio.c:1377:12
	str	r0, [sp, #8]
.Ltmp492:
	.loc	2 1378 13 is_stmt 1             @ rt-thread/components/drivers/sdio/sdio.c:1378:13
	ldr	r0, [sp, #8]
	.loc	2 1378 17 is_stmt 0             @ rt-thread/components/drivers/sdio/sdio.c:1378:17
	ldr	r0, [r0]
	.loc	2 1378 24                       @ rt-thread/components/drivers/sdio/sdio.c:1378:24
	ldr	r1, [sp, #16]
.Ltmp493:
	.loc	2 1378 13                       @ rt-thread/components/drivers/sdio/sdio.c:1378:13
	cmp	r0, r1
	beq	.LBB33_4
	b	.LBB33_3
.LBB33_3:                               @   in Loop: Header=BB33_1 Depth=1
	.loc	2 0 13                          @ rt-thread/components/drivers/sdio/sdio.c:0:13
	movs	r0, #0
.Ltmp494:
	.loc	2 1380 16 is_stmt 1             @ rt-thread/components/drivers/sdio/sdio.c:1380:16
	str	r0, [sp, #8]
	.loc	2 1381 9                        @ rt-thread/components/drivers/sdio/sdio.c:1381:9
	b	.LBB33_4
.Ltmp495:
.LBB33_4:                               @   in Loop: Header=BB33_1 Depth=1
	.loc	2 1382 5                        @ rt-thread/components/drivers/sdio/sdio.c:1382:5
	b	.LBB33_5
.Ltmp496:
.LBB33_5:                               @   in Loop: Header=BB33_1 Depth=1
	.loc	2 1375 61                       @ rt-thread/components/drivers/sdio/sdio.c:1375:61
	ldr	r0, [sp, #12]
	.loc	2 1375 64 is_stmt 0             @ rt-thread/components/drivers/sdio/sdio.c:1375:64
	ldr	r0, [r0]
	.loc	2 1375 59                       @ rt-thread/components/drivers/sdio/sdio.c:1375:59
	str	r0, [sp, #12]
	.loc	2 1375 5                        @ rt-thread/components/drivers/sdio/sdio.c:1375:5
	b	.LBB33_1
.Ltmp497:
.LBB33_6:
	.loc	2 1384 9 is_stmt 1              @ rt-thread/components/drivers/sdio/sdio.c:1384:9
	ldr	r0, [sp, #8]
.Ltmp498:
	.loc	2 1384 9 is_stmt 0              @ rt-thread/components/drivers/sdio/sdio.c:1384:9
	cbnz	r0, .LBB33_10
	b	.LBB33_7
.LBB33_7:
.Ltmp499:
	.loc	2 1386 9 is_stmt 1              @ rt-thread/components/drivers/sdio/sdio.c:1386:9
	b	.LBB33_8
.LBB33_8:
.Ltmp500:
	.loc	2 1386 9 is_stmt 0              @ rt-thread/components/drivers/sdio/sdio.c:1386:9
	movw	r0, :lower16:.L.str.11
	movt	r0, :upper16:.L.str.11
	bl	rt_kprintf
	ldr	r0, [sp, #16]
	ldr	r1, [r0]
	movw	r0, :lower16:.L.str.16
	movt	r0, :upper16:.L.str.16
	bl	rt_kprintf
	movw	r0, :lower16:.L.str.9
	movt	r0, :upper16:.L.str.9
	bl	rt_kprintf
	b	.LBB33_9
.Ltmp501:
.LBB33_9:
	.loc	2 0 9                           @ rt-thread/components/drivers/sdio/sdio.c:0:9
	mov.w	r0, #-1
	.loc	2 1387 9 is_stmt 1              @ rt-thread/components/drivers/sdio/sdio.c:1387:9
	str	r0, [sp, #20]
	b	.LBB33_15
.Ltmp502:
.LBB33_10:
	.loc	2 1390 10                       @ rt-thread/components/drivers/sdio/sdio.c:1390:10
	movw	r0, :lower16:sdio_cards
	movt	r0, :upper16:sdio_cards
	bl	rt_list_isempty
.Ltmp503:
	.loc	2 1390 9 is_stmt 0              @ rt-thread/components/drivers/sdio/sdio.c:1390:9
	cbnz	r0, .LBB33_14
	b	.LBB33_11
.LBB33_11:
.Ltmp504:
	.loc	2 1392 34 is_stmt 1             @ rt-thread/components/drivers/sdio/sdio.c:1392:34
	ldr	r0, [sp, #16]
	.loc	2 1392 42 is_stmt 0             @ rt-thread/components/drivers/sdio/sdio.c:1392:42
	ldr	r0, [r0, #12]
	.loc	2 1392 16                       @ rt-thread/components/drivers/sdio/sdio.c:1392:16
	bl	sdio_match_driver
	.loc	2 1392 14                       @ rt-thread/components/drivers/sdio/sdio.c:1392:14
	str	r0, [sp, #4]
.Ltmp505:
	.loc	2 1393 13 is_stmt 1             @ rt-thread/components/drivers/sdio/sdio.c:1393:13
	ldr	r0, [sp, #4]
.Ltmp506:
	.loc	2 1393 13 is_stmt 0             @ rt-thread/components/drivers/sdio/sdio.c:1393:13
	cbz	r0, .LBB33_13
	b	.LBB33_12
.LBB33_12:
.Ltmp507:
	.loc	2 1395 13 is_stmt 1             @ rt-thread/components/drivers/sdio/sdio.c:1395:13
	ldr	r0, [sp, #16]
	.loc	2 1395 21 is_stmt 0             @ rt-thread/components/drivers/sdio/sdio.c:1395:21
	ldr	r1, [r0, #8]
	.loc	2 1395 28                       @ rt-thread/components/drivers/sdio/sdio.c:1395:28
	ldr	r0, [sp, #4]
	.loc	2 1395 13                       @ rt-thread/components/drivers/sdio/sdio.c:1395:13
	blx	r1
	.loc	2 1396 29 is_stmt 1             @ rt-thread/components/drivers/sdio/sdio.c:1396:29
	ldr	r0, [sp, #8]
	.loc	2 1396 33 is_stmt 0             @ rt-thread/components/drivers/sdio/sdio.c:1396:33
	adds	r0, #4
	.loc	2 1396 13                       @ rt-thread/components/drivers/sdio/sdio.c:1396:13
	bl	rt_list_remove
	.loc	2 1397 21 is_stmt 1             @ rt-thread/components/drivers/sdio/sdio.c:1397:21
	ldr	r0, [sp, #8]
	.loc	2 1397 13 is_stmt 0             @ rt-thread/components/drivers/sdio/sdio.c:1397:13
	bl	rt_free
	.loc	2 1398 9 is_stmt 1              @ rt-thread/components/drivers/sdio/sdio.c:1398:9
	b	.LBB33_13
.Ltmp508:
.LBB33_13:
	.loc	2 1399 5                        @ rt-thread/components/drivers/sdio/sdio.c:1399:5
	b	.LBB33_14
.Ltmp509:
.LBB33_14:
	.loc	2 0 5 is_stmt 0                 @ rt-thread/components/drivers/sdio/sdio.c:0:5
	movs	r0, #0
	.loc	2 1401 5 is_stmt 1              @ rt-thread/components/drivers/sdio/sdio.c:1401:5
	str	r0, [sp, #20]
	b	.LBB33_15
.LBB33_15:
	.loc	2 1402 1                        @ rt-thread/components/drivers/sdio/sdio.c:1402:1
	ldr	r0, [sp, #20]
	add	sp, #24
	pop	{r7, pc}
.Ltmp510:
.Lfunc_end33:
	.size	sdio_unregister_driver, .Lfunc_end33-sdio_unregister_driver
	.cfi_endproc
	.cantunwind
	.fnend
                                        @ -- End function
	.section	.text.rt_list_remove,"ax",%progbits
	.p2align	3                               @ -- Begin function rt_list_remove
	.type	rt_list_remove,%function
	.code	16                              @ @rt_list_remove
	.thumb_func
rt_list_remove:
.Lfunc_begin34:
	.loc	7 87 0                          @ rt-thread/include\rtservice.h:87:0
	.fnstart
	.cfi_startproc
@ %bb.0:
	.pad	#4
	sub	sp, #4
	.cfi_def_cfa_offset 4
	str	r0, [sp]
.Ltmp511:
	.loc	7 88 21 prologue_end            @ rt-thread/include\rtservice.h:88:21
	ldr	r0, [sp]
	.loc	7 88 8 is_stmt 0                @ rt-thread/include\rtservice.h:88:8
	ldr	r1, [r0]
	.loc	7 88 24                         @ rt-thread/include\rtservice.h:88:24
	ldr	r0, [r0, #4]
	.loc	7 88 19                         @ rt-thread/include\rtservice.h:88:19
	str	r0, [r1, #4]
	.loc	7 89 21 is_stmt 1               @ rt-thread/include\rtservice.h:89:21
	ldr	r1, [sp]
	.loc	7 89 24 is_stmt 0               @ rt-thread/include\rtservice.h:89:24
	ldr	r0, [r1]
	.loc	7 89 8                          @ rt-thread/include\rtservice.h:89:8
	ldr	r1, [r1, #4]
	.loc	7 89 19                         @ rt-thread/include\rtservice.h:89:19
	str	r0, [r1]
	.loc	7 91 25 is_stmt 1               @ rt-thread/include\rtservice.h:91:25
	ldr	r0, [sp]
	.loc	7 91 23 is_stmt 0               @ rt-thread/include\rtservice.h:91:23
	str	r0, [r0, #4]
	.loc	7 91 5                          @ rt-thread/include\rtservice.h:91:5
	ldr	r1, [sp]
	.loc	7 91 13                         @ rt-thread/include\rtservice.h:91:13
	str	r0, [r1]
	.loc	7 92 1 is_stmt 1                @ rt-thread/include\rtservice.h:92:1
	add	sp, #4
	bx	lr
.Ltmp512:
.Lfunc_end34:
	.size	rt_list_remove, .Lfunc_end34-rt_list_remove
	.cfi_endproc
	.cantunwind
	.fnend
                                        @ -- End function
	.section	.text.rt_sdio_init,"ax",%progbits
	.hidden	rt_sdio_init                    @ -- Begin function rt_sdio_init
	.globl	rt_sdio_init
	.p2align	3
	.type	rt_sdio_init,%function
	.code	16                              @ @rt_sdio_init
	.thumb_func
rt_sdio_init:
.Lfunc_begin35:
	.loc	2 1405 0                        @ rt-thread/components/drivers/sdio/sdio.c:1405:0
	.fnstart
	.cfi_startproc
@ %bb.0:
	.loc	2 1407 1 prologue_end           @ rt-thread/components/drivers/sdio/sdio.c:1407:1
	bx	lr
.Ltmp513:
.Lfunc_end35:
	.size	rt_sdio_init, .Lfunc_end35-rt_sdio_init
	.cfi_endproc
	.cantunwind
	.fnend
                                        @ -- End function
	.section	.text.sdio_read_cccr,"ax",%progbits
	.p2align	3                               @ -- Begin function sdio_read_cccr
	.type	sdio_read_cccr,%function
	.code	16                              @ @sdio_read_cccr
	.thumb_func
sdio_read_cccr:
.Lfunc_begin36:
	.loc	2 415 0                         @ rt-thread/components/drivers/sdio/sdio.c:415:0
	.fnstart
	.cfi_startproc
@ %bb.0:
	.save	{r7, lr}
	push	{r7, lr}
	.cfi_def_cfa_offset 8
	.cfi_offset lr, -4
	.cfi_offset r7, -8
	.pad	#24
	sub	sp, #24
	.cfi_def_cfa_offset 32
	str	r0, [sp, #16]
.Ltmp514:
	.loc	2 420 16 prologue_end           @ rt-thread/components/drivers/sdio/sdio.c:420:16
	ldr	r0, [sp, #16]
	.loc	2 420 22 is_stmt 0              @ rt-thread/components/drivers/sdio/sdio.c:420:22
	adds	r0, #105
	movs	r1, #0
	str	r1, [sp]                        @ 4-byte Spill
	movs	r2, #4
	.loc	2 420 5                         @ rt-thread/components/drivers/sdio/sdio.c:420:5
	bl	rt_memset
	ldr	r1, [sp]                        @ 4-byte Reload
	.loc	2 422 26 is_stmt 1              @ rt-thread/components/drivers/sdio/sdio.c:422:26
	ldr	r0, [sp, #16]
	ldr	r0, [r0, #124]
	add	r2, sp, #12
	.loc	2 422 12 is_stmt 0              @ rt-thread/components/drivers/sdio/sdio.c:422:12
	bl	sdio_io_readb
	.loc	2 422 10                        @ rt-thread/components/drivers/sdio/sdio.c:422:10
	strb.w	r0, [sp, #7]
.Ltmp515:
	.loc	2 423 9 is_stmt 1               @ rt-thread/components/drivers/sdio/sdio.c:423:9
	ldr	r0, [sp, #12]
.Ltmp516:
	.loc	2 423 9 is_stmt 0               @ rt-thread/components/drivers/sdio/sdio.c:423:9
	cbz	r0, .LBB36_2
	b	.LBB36_1
.LBB36_1:
.Ltmp517:
	.loc	2 424 9 is_stmt 1               @ rt-thread/components/drivers/sdio/sdio.c:424:9
	b	.LBB36_29
.Ltmp518:
.LBB36_2:
	.loc	2 426 20                        @ rt-thread/components/drivers/sdio/sdio.c:426:20
	ldrb.w	r0, [sp, #7]
	.loc	2 426 25 is_stmt 0              @ rt-thread/components/drivers/sdio/sdio.c:426:25
	and	r0, r0, #15
	.loc	2 426 18                        @ rt-thread/components/drivers/sdio/sdio.c:426:18
	str	r0, [sp, #8]
.Ltmp519:
	.loc	2 428 9 is_stmt 1               @ rt-thread/components/drivers/sdio/sdio.c:428:9
	ldr	r0, [sp, #8]
.Ltmp520:
	.loc	2 428 9 is_stmt 0               @ rt-thread/components/drivers/sdio/sdio.c:428:9
	cmp	r0, #4
	blt	.LBB36_6
	b	.LBB36_3
.LBB36_3:
.Ltmp521:
	.loc	2 430 9 is_stmt 1               @ rt-thread/components/drivers/sdio/sdio.c:430:9
	b	.LBB36_4
.LBB36_4:
.Ltmp522:
	.loc	2 430 9 is_stmt 0               @ rt-thread/components/drivers/sdio/sdio.c:430:9
	movw	r0, :lower16:.L.str.11
	movt	r0, :upper16:.L.str.11
	bl	rt_kprintf
	ldr	r1, [sp, #8]
	movw	r0, :lower16:.L.str.20
	movt	r0, :upper16:.L.str.20
	bl	rt_kprintf
	movw	r0, :lower16:.L.str.9
	movt	r0, :upper16:.L.str.9
	bl	rt_kprintf
	b	.LBB36_5
.Ltmp523:
.LBB36_5:
	.loc	2 0 9                           @ rt-thread/components/drivers/sdio/sdio.c:0:9
	mov.w	r0, #-1
	.loc	2 432 9 is_stmt 1               @ rt-thread/components/drivers/sdio/sdio.c:432:9
	str	r0, [sp, #20]
	b	.LBB36_30
.Ltmp524:
.LBB36_6:
	.loc	2 435 32                        @ rt-thread/components/drivers/sdio/sdio.c:435:32
	ldrb.w	r0, [sp, #7]
	.loc	2 435 45 is_stmt 0              @ rt-thread/components/drivers/sdio/sdio.c:435:45
	lsrs	r0, r0, #4
	.loc	2 435 5                         @ rt-thread/components/drivers/sdio/sdio.c:435:5
	ldr	r1, [sp, #16]
	.loc	2 435 29                        @ rt-thread/components/drivers/sdio/sdio.c:435:29
	strb.w	r0, [r1, #105]
	.loc	2 437 26 is_stmt 1              @ rt-thread/components/drivers/sdio/sdio.c:437:26
	ldr	r0, [sp, #16]
	ldr	r0, [r0, #124]
	movs	r1, #8
	add	r2, sp, #12
	.loc	2 437 12 is_stmt 0              @ rt-thread/components/drivers/sdio/sdio.c:437:12
	bl	sdio_io_readb
	.loc	2 437 10                        @ rt-thread/components/drivers/sdio/sdio.c:437:10
	strb.w	r0, [sp, #7]
.Ltmp525:
	.loc	2 438 9 is_stmt 1               @ rt-thread/components/drivers/sdio/sdio.c:438:9
	ldr	r0, [sp, #12]
.Ltmp526:
	.loc	2 438 9 is_stmt 0               @ rt-thread/components/drivers/sdio/sdio.c:438:9
	cbz	r0, .LBB36_8
	b	.LBB36_7
.LBB36_7:
.Ltmp527:
	.loc	2 439 9 is_stmt 1               @ rt-thread/components/drivers/sdio/sdio.c:439:9
	b	.LBB36_29
.Ltmp528:
.LBB36_8:
	.loc	2 441 9                         @ rt-thread/components/drivers/sdio/sdio.c:441:9
	ldrb.w	r0, [sp, #7]
.Ltmp529:
	.loc	2 441 9 is_stmt 0               @ rt-thread/components/drivers/sdio/sdio.c:441:9
	lsls	r0, r0, #30
	cmp	r0, #0
	bpl	.LBB36_10
	b	.LBB36_9
.LBB36_9:
.Ltmp530:
	.loc	2 442 9 is_stmt 1               @ rt-thread/components/drivers/sdio/sdio.c:442:9
	ldr	r1, [sp, #16]
	.loc	2 442 32 is_stmt 0              @ rt-thread/components/drivers/sdio/sdio.c:442:32
	ldrb.w	r0, [r1, #107]
	orr	r0, r0, #2
	strb.w	r0, [r1, #107]
	.loc	2 442 9                         @ rt-thread/components/drivers/sdio/sdio.c:442:9
	b	.LBB36_10
.Ltmp531:
.LBB36_10:
	.loc	2 443 9 is_stmt 1               @ rt-thread/components/drivers/sdio/sdio.c:443:9
	ldrb.w	r0, [sp, #7]
.Ltmp532:
	.loc	2 443 9 is_stmt 0               @ rt-thread/components/drivers/sdio/sdio.c:443:9
	lsls	r0, r0, #25
	cmp	r0, #0
	bpl	.LBB36_12
	b	.LBB36_11
.LBB36_11:
.Ltmp533:
	.loc	2 444 9 is_stmt 1               @ rt-thread/components/drivers/sdio/sdio.c:444:9
	ldr	r1, [sp, #16]
	.loc	2 444 30 is_stmt 0              @ rt-thread/components/drivers/sdio/sdio.c:444:30
	ldrb.w	r0, [r1, #107]
	orr	r0, r0, #64
	strb.w	r0, [r1, #107]
	.loc	2 444 9                         @ rt-thread/components/drivers/sdio/sdio.c:444:9
	b	.LBB36_12
.Ltmp534:
.LBB36_12:
	.loc	2 445 9 is_stmt 1               @ rt-thread/components/drivers/sdio/sdio.c:445:9
	ldrb.w	r0, [sp, #7]
.Ltmp535:
	.loc	2 445 9 is_stmt 0               @ rt-thread/components/drivers/sdio/sdio.c:445:9
	lsls	r0, r0, #24
	cmp	r0, #0
	bpl	.LBB36_14
	b	.LBB36_13
.LBB36_13:
.Ltmp536:
	.loc	2 446 9 is_stmt 1               @ rt-thread/components/drivers/sdio/sdio.c:446:9
	ldr	r1, [sp, #16]
	.loc	2 446 32 is_stmt 0              @ rt-thread/components/drivers/sdio/sdio.c:446:32
	ldrb.w	r0, [r1, #107]
	orr	r0, r0, #128
	strb.w	r0, [r1, #107]
	.loc	2 446 9                         @ rt-thread/components/drivers/sdio/sdio.c:446:9
	b	.LBB36_14
.Ltmp537:
.LBB36_14:
	.loc	2 447 9 is_stmt 1               @ rt-thread/components/drivers/sdio/sdio.c:447:9
	ldrb.w	r0, [sp, #7]
.Ltmp538:
	.loc	2 447 9 is_stmt 0               @ rt-thread/components/drivers/sdio/sdio.c:447:9
	lsls	r0, r0, #24
	cmp	r0, #0
	bpl	.LBB36_16
	b	.LBB36_15
.LBB36_15:
.Ltmp539:
	.loc	2 448 9 is_stmt 1               @ rt-thread/components/drivers/sdio/sdio.c:448:9
	ldr	r1, [sp, #16]
	.loc	2 448 30 is_stmt 0              @ rt-thread/components/drivers/sdio/sdio.c:448:30
	ldrb.w	r0, [r1, #108]
	orr	r0, r0, #1
	strb.w	r0, [r1, #108]
	.loc	2 448 9                         @ rt-thread/components/drivers/sdio/sdio.c:448:9
	b	.LBB36_16
.Ltmp540:
.LBB36_16:
	.loc	2 450 9 is_stmt 1               @ rt-thread/components/drivers/sdio/sdio.c:450:9
	ldr	r0, [sp, #8]
.Ltmp541:
	.loc	2 450 9 is_stmt 0               @ rt-thread/components/drivers/sdio/sdio.c:450:9
	cmp	r0, #1
	blt	.LBB36_22
	b	.LBB36_17
.LBB36_17:
.Ltmp542:
	.loc	2 452 30 is_stmt 1              @ rt-thread/components/drivers/sdio/sdio.c:452:30
	ldr	r0, [sp, #16]
	ldr	r0, [r0, #124]
	movs	r1, #18
	add	r2, sp, #12
	.loc	2 452 16 is_stmt 0              @ rt-thread/components/drivers/sdio/sdio.c:452:16
	bl	sdio_io_readb
	.loc	2 452 14                        @ rt-thread/components/drivers/sdio/sdio.c:452:14
	strb.w	r0, [sp, #7]
.Ltmp543:
	.loc	2 453 13 is_stmt 1              @ rt-thread/components/drivers/sdio/sdio.c:453:13
	ldr	r0, [sp, #12]
.Ltmp544:
	.loc	2 453 13 is_stmt 0              @ rt-thread/components/drivers/sdio/sdio.c:453:13
	cbz	r0, .LBB36_19
	b	.LBB36_18
.LBB36_18:
.Ltmp545:
	.loc	2 454 13 is_stmt 1              @ rt-thread/components/drivers/sdio/sdio.c:454:13
	b	.LBB36_29
.Ltmp546:
.LBB36_19:
	.loc	2 456 13                        @ rt-thread/components/drivers/sdio/sdio.c:456:13
	ldrb.w	r0, [sp, #7]
.Ltmp547:
	.loc	2 456 13 is_stmt 0              @ rt-thread/components/drivers/sdio/sdio.c:456:13
	lsls	r0, r0, #31
	cbz	r0, .LBB36_21
	b	.LBB36_20
.LBB36_20:
.Ltmp548:
	.loc	2 457 13 is_stmt 1              @ rt-thread/components/drivers/sdio/sdio.c:457:13
	ldr	r1, [sp, #16]
	.loc	2 457 35 is_stmt 0              @ rt-thread/components/drivers/sdio/sdio.c:457:35
	ldrb.w	r0, [r1, #108]
	orr	r0, r0, #4
	strb.w	r0, [r1, #108]
	.loc	2 457 13                        @ rt-thread/components/drivers/sdio/sdio.c:457:13
	b	.LBB36_21
.Ltmp549:
.LBB36_21:
	.loc	2 458 5 is_stmt 1               @ rt-thread/components/drivers/sdio/sdio.c:458:5
	b	.LBB36_22
.Ltmp550:
.LBB36_22:
	.loc	2 460 9                         @ rt-thread/components/drivers/sdio/sdio.c:460:9
	ldr	r0, [sp, #8]
.Ltmp551:
	.loc	2 460 9 is_stmt 0               @ rt-thread/components/drivers/sdio/sdio.c:460:9
	cmp	r0, #2
	blt	.LBB36_28
	b	.LBB36_23
.LBB36_23:
.Ltmp552:
	.loc	2 462 30 is_stmt 1              @ rt-thread/components/drivers/sdio/sdio.c:462:30
	ldr	r0, [sp, #16]
	ldr	r0, [r0, #124]
	movs	r1, #19
	add	r2, sp, #12
	.loc	2 462 16 is_stmt 0              @ rt-thread/components/drivers/sdio/sdio.c:462:16
	bl	sdio_io_readb
	.loc	2 462 14                        @ rt-thread/components/drivers/sdio/sdio.c:462:14
	strb.w	r0, [sp, #7]
.Ltmp553:
	.loc	2 463 13 is_stmt 1              @ rt-thread/components/drivers/sdio/sdio.c:463:13
	ldr	r0, [sp, #12]
.Ltmp554:
	.loc	2 463 13 is_stmt 0              @ rt-thread/components/drivers/sdio/sdio.c:463:13
	cbz	r0, .LBB36_25
	b	.LBB36_24
.LBB36_24:
.Ltmp555:
	.loc	2 464 13 is_stmt 1              @ rt-thread/components/drivers/sdio/sdio.c:464:13
	b	.LBB36_29
.Ltmp556:
.LBB36_25:
	.loc	2 466 13                        @ rt-thread/components/drivers/sdio/sdio.c:466:13
	ldrb.w	r0, [sp, #7]
.Ltmp557:
	.loc	2 466 13 is_stmt 0              @ rt-thread/components/drivers/sdio/sdio.c:466:13
	lsls	r0, r0, #31
	cbz	r0, .LBB36_27
	b	.LBB36_26
.LBB36_26:
.Ltmp558:
	.loc	2 467 13 is_stmt 1              @ rt-thread/components/drivers/sdio/sdio.c:467:13
	ldr	r1, [sp, #16]
	.loc	2 467 35 is_stmt 0              @ rt-thread/components/drivers/sdio/sdio.c:467:35
	ldrb.w	r0, [r1, #108]
	orr	r0, r0, #8
	strb.w	r0, [r1, #108]
	.loc	2 467 13                        @ rt-thread/components/drivers/sdio/sdio.c:467:13
	b	.LBB36_27
.Ltmp559:
.LBB36_27:
	.loc	2 468 5 is_stmt 1               @ rt-thread/components/drivers/sdio/sdio.c:468:5
	b	.LBB36_28
.Ltmp560:
.LBB36_28:
	.loc	2 460 25                        @ rt-thread/components/drivers/sdio/sdio.c:460:25
	b	.LBB36_29
.Ltmp561:
.LBB36_29:
	@DEBUG_LABEL: sdio_read_cccr:out
	.loc	2 471 12                        @ rt-thread/components/drivers/sdio/sdio.c:471:12
	ldr	r0, [sp, #12]
	.loc	2 471 5 is_stmt 0               @ rt-thread/components/drivers/sdio/sdio.c:471:5
	str	r0, [sp, #20]
	b	.LBB36_30
.LBB36_30:
	.loc	2 472 1 is_stmt 1               @ rt-thread/components/drivers/sdio/sdio.c:472:1
	ldr	r0, [sp, #20]
	add	sp, #24
	pop	{r7, pc}
.Ltmp562:
.Lfunc_end36:
	.size	sdio_read_cccr, .Lfunc_end36-sdio_read_cccr
	.cfi_endproc
	.cantunwind
	.fnend
                                        @ -- End function
	.section	.text.sdio_read_cis,"ax",%progbits
	.p2align	3                               @ -- Begin function sdio_read_cis
	.type	sdio_read_cis,%function
	.code	16                              @ @sdio_read_cis
	.thumb_func
sdio_read_cis:
.Lfunc_begin37:
	.loc	2 517 0                         @ rt-thread/components/drivers/sdio/sdio.c:517:0
	.fnstart
	.cfi_startproc
@ %bb.0:
	.save	{r7, lr}
	push	{r7, lr}
	.cfi_def_cfa_offset 8
	.cfi_offset lr, -4
	.cfi_offset r7, -8
	.pad	#48
	sub	sp, #48
	.cfi_def_cfa_offset 56
	str	r0, [sp, #40]
	movs	r0, #0
.Ltmp563:
	.loc	2 520 20 prologue_end           @ rt-thread/components/drivers/sdio/sdio.c:520:20
	str	r0, [sp, #20]
	.loc	2 524 34                        @ rt-thread/components/drivers/sdio/sdio.c:524:34
	ldr	r0, [sp, #40]
	.loc	2 524 40 is_stmt 0              @ rt-thread/components/drivers/sdio/sdio.c:524:40
	ldr	r0, [r0]
	.loc	2 524 27                        @ rt-thread/components/drivers/sdio/sdio.c:524:27
	str	r0, [sp, #12]
	.loc	2 525 38 is_stmt 1              @ rt-thread/components/drivers/sdio/sdio.c:525:38
	ldr	r0, [sp, #12]
	ldr	r0, [r0, #124]
	.loc	2 525 30 is_stmt 0              @ rt-thread/components/drivers/sdio/sdio.c:525:30
	str	r0, [sp, #8]
.Ltmp564:
	.loc	2 527 5 is_stmt 1               @ rt-thread/components/drivers/sdio/sdio.c:527:5
	ldr	r0, [sp, #8]
.Ltmp565:
	.loc	2 527 5 is_stmt 0               @ rt-thread/components/drivers/sdio/sdio.c:527:5
	cbnz	r0, .LBB37_2
	b	.LBB37_1
.LBB37_1:
.Ltmp566:
	.loc	2 527 5                         @ rt-thread/components/drivers/sdio/sdio.c:527:5
	movw	r0, :lower16:.L.str.21
	movt	r0, :upper16:.L.str.21
	movw	r1, :lower16:.L__FUNCTION__.sdio_read_cis
	movt	r1, :upper16:.L__FUNCTION__.sdio_read_cis
	movw	r2, #527
	bl	rt_assert_handler
	b	.LBB37_2
.Ltmp567:
.LBB37_2:
	.loc	2 0 5                           @ rt-thread/components/drivers/sdio/sdio.c:0:5
	movs	r0, #0
.Ltmp568:
	.loc	2 529 12 is_stmt 1              @ rt-thread/components/drivers/sdio/sdio.c:529:12
	str	r0, [sp, #24]
	.loc	2 529 10 is_stmt 0              @ rt-thread/components/drivers/sdio/sdio.c:529:10
	b	.LBB37_3
.LBB37_3:                               @ =>This Inner Loop Header: Depth=1
.Ltmp569:
	.loc	2 529 17                        @ rt-thread/components/drivers/sdio/sdio.c:529:17
	ldr	r0, [sp, #24]
.Ltmp570:
	.loc	2 529 5                         @ rt-thread/components/drivers/sdio/sdio.c:529:5
	cmp	r0, #2
	bhi	.LBB37_8
	b	.LBB37_4
.LBB37_4:                               @   in Loop: Header=BB37_3 Depth=1
.Ltmp571:
	.loc	2 531 30 is_stmt 1              @ rt-thread/components/drivers/sdio/sdio.c:531:30
	ldr	r0, [sp, #8]
	.loc	2 532 13                        @ rt-thread/components/drivers/sdio/sdio.c:532:13
	ldr	r1, [sp, #40]
	ldrb	r2, [r1, #8]
	.loc	2 532 63 is_stmt 0              @ rt-thread/components/drivers/sdio/sdio.c:532:63
	ldr	r1, [sp, #24]
	.loc	2 532 42                        @ rt-thread/components/drivers/sdio/sdio.c:532:42
	add.w	r1, r1, r2, lsl #8
	.loc	2 532 61                        @ rt-thread/components/drivers/sdio/sdio.c:532:61
	adds	r1, #9
	add	r2, sp, #36
	.loc	2 531 16 is_stmt 1              @ rt-thread/components/drivers/sdio/sdio.c:531:16
	bl	sdio_io_readb
	.loc	2 531 14 is_stmt 0              @ rt-thread/components/drivers/sdio/sdio.c:531:14
	strb.w	r0, [sp, #19]
.Ltmp572:
	.loc	2 533 13 is_stmt 1              @ rt-thread/components/drivers/sdio/sdio.c:533:13
	ldr	r0, [sp, #36]
.Ltmp573:
	.loc	2 533 13 is_stmt 0              @ rt-thread/components/drivers/sdio/sdio.c:533:13
	cbz	r0, .LBB37_6
	b	.LBB37_5
.LBB37_5:
.Ltmp574:
	.loc	2 534 20 is_stmt 1              @ rt-thread/components/drivers/sdio/sdio.c:534:20
	ldr	r0, [sp, #36]
	.loc	2 534 13 is_stmt 0              @ rt-thread/components/drivers/sdio/sdio.c:534:13
	str	r0, [sp, #44]
	b	.LBB37_52
.Ltmp575:
.LBB37_6:                               @   in Loop: Header=BB37_3 Depth=1
	.loc	2 535 19 is_stmt 1              @ rt-thread/components/drivers/sdio/sdio.c:535:19
	ldrb.w	r0, [sp, #19]
	.loc	2 535 28 is_stmt 0              @ rt-thread/components/drivers/sdio/sdio.c:535:28
	ldr	r1, [sp, #24]
	.loc	2 535 30                        @ rt-thread/components/drivers/sdio/sdio.c:535:30
	lsls	r1, r1, #3
	.loc	2 535 24                        @ rt-thread/components/drivers/sdio/sdio.c:535:24
	lsl.w	r1, r0, r1
	.loc	2 535 16                        @ rt-thread/components/drivers/sdio/sdio.c:535:16
	ldr	r0, [sp, #20]
	orrs	r0, r1
	str	r0, [sp, #20]
	.loc	2 536 5 is_stmt 1               @ rt-thread/components/drivers/sdio/sdio.c:536:5
	b	.LBB37_7
.Ltmp576:
.LBB37_7:                               @   in Loop: Header=BB37_3 Depth=1
	.loc	2 529 25                        @ rt-thread/components/drivers/sdio/sdio.c:529:25
	ldr	r0, [sp, #24]
	adds	r0, #1
	str	r0, [sp, #24]
	.loc	2 529 5 is_stmt 0               @ rt-thread/components/drivers/sdio/sdio.c:529:5
	b	.LBB37_3
.Ltmp577:
.LBB37_8:
	.loc	2 538 13 is_stmt 1              @ rt-thread/components/drivers/sdio/sdio.c:538:13
	ldr	r0, [sp, #40]
	.loc	2 538 19 is_stmt 0              @ rt-thread/components/drivers/sdio/sdio.c:538:19
	adds	r0, #28
	.loc	2 538 10                        @ rt-thread/components/drivers/sdio/sdio.c:538:10
	str	r0, [sp, #28]
	.loc	2 540 5 is_stmt 1               @ rt-thread/components/drivers/sdio/sdio.c:540:5
	b	.LBB37_9
.LBB37_9:                               @ =>This Loop Header: Depth=1
                                        @     Child Loop BB37_21 Depth 2
.Ltmp578:
	.loc	2 541 34                        @ rt-thread/components/drivers/sdio/sdio.c:541:34
	ldr	r0, [sp, #8]
	.loc	2 541 47 is_stmt 0              @ rt-thread/components/drivers/sdio/sdio.c:541:47
	ldr	r1, [sp, #20]
	adds	r2, r1, #1
	str	r2, [sp, #20]
	add	r2, sp, #36
	.loc	2 541 20                        @ rt-thread/components/drivers/sdio/sdio.c:541:20
	bl	sdio_io_readb
	.loc	2 541 18                        @ rt-thread/components/drivers/sdio/sdio.c:541:18
	strb.w	r0, [sp, #18]
.Ltmp579:
	.loc	2 542 13 is_stmt 1              @ rt-thread/components/drivers/sdio/sdio.c:542:13
	ldr	r0, [sp, #36]
.Ltmp580:
	.loc	2 542 13 is_stmt 0              @ rt-thread/components/drivers/sdio/sdio.c:542:13
	cbz	r0, .LBB37_11
	b	.LBB37_10
.LBB37_10:
.Ltmp581:
	.loc	2 543 13 is_stmt 1              @ rt-thread/components/drivers/sdio/sdio.c:543:13
	b	.LBB37_49
.Ltmp582:
.LBB37_11:                              @   in Loop: Header=BB37_9 Depth=1
	.loc	2 544 34                        @ rt-thread/components/drivers/sdio/sdio.c:544:34
	ldr	r0, [sp, #8]
	.loc	2 544 47 is_stmt 0              @ rt-thread/components/drivers/sdio/sdio.c:544:47
	ldr	r1, [sp, #20]
	adds	r2, r1, #1
	str	r2, [sp, #20]
	add	r2, sp, #36
	.loc	2 544 20                        @ rt-thread/components/drivers/sdio/sdio.c:544:20
	bl	sdio_io_readb
	.loc	2 544 18                        @ rt-thread/components/drivers/sdio/sdio.c:544:18
	strb.w	r0, [sp, #17]
.Ltmp583:
	.loc	2 545 13 is_stmt 1              @ rt-thread/components/drivers/sdio/sdio.c:545:13
	ldr	r0, [sp, #36]
.Ltmp584:
	.loc	2 545 13 is_stmt 0              @ rt-thread/components/drivers/sdio/sdio.c:545:13
	cbz	r0, .LBB37_13
	b	.LBB37_12
.LBB37_12:
.Ltmp585:
	.loc	2 546 13 is_stmt 1              @ rt-thread/components/drivers/sdio/sdio.c:546:13
	b	.LBB37_49
.Ltmp586:
.LBB37_13:                              @   in Loop: Header=BB37_9 Depth=1
	.loc	2 548 14                        @ rt-thread/components/drivers/sdio/sdio.c:548:14
	ldrb.w	r0, [sp, #18]
	.loc	2 548 38 is_stmt 0              @ rt-thread/components/drivers/sdio/sdio.c:548:38
	cmp	r0, #255
	beq	.LBB37_15
	b	.LBB37_14
.LBB37_14:                              @   in Loop: Header=BB37_9 Depth=1
	.loc	2 548 42                        @ rt-thread/components/drivers/sdio/sdio.c:548:42
	ldrb.w	r0, [sp, #17]
.Ltmp587:
	.loc	2 548 13                        @ rt-thread/components/drivers/sdio/sdio.c:548:13
	cmp	r0, #255
	bne	.LBB37_16
	b	.LBB37_15
.LBB37_15:
.Ltmp588:
	.loc	2 549 13 is_stmt 1              @ rt-thread/components/drivers/sdio/sdio.c:549:13
	b	.LBB37_49
.Ltmp589:
.LBB37_16:                              @   in Loop: Header=BB37_9 Depth=1
	.loc	2 551 13                        @ rt-thread/components/drivers/sdio/sdio.c:551:13
	ldrb.w	r0, [sp, #18]
.Ltmp590:
	.loc	2 551 13 is_stmt 0              @ rt-thread/components/drivers/sdio/sdio.c:551:13
	cbnz	r0, .LBB37_18
	b	.LBB37_17
.LBB37_17:                              @   in Loop: Header=BB37_9 Depth=1
.Ltmp591:
	.loc	2 552 13 is_stmt 1              @ rt-thread/components/drivers/sdio/sdio.c:552:13
	b	.LBB37_48
.Ltmp592:
.LBB37_18:                              @   in Loop: Header=BB37_9 Depth=1
	.loc	2 555 66                        @ rt-thread/components/drivers/sdio/sdio.c:555:66
	ldrb.w	r0, [sp, #17]
	.loc	2 555 64 is_stmt 0              @ rt-thread/components/drivers/sdio/sdio.c:555:64
	adds	r0, #12
	.loc	2 555 16                        @ rt-thread/components/drivers/sdio/sdio.c:555:16
	bl	rt_malloc
	.loc	2 555 14                        @ rt-thread/components/drivers/sdio/sdio.c:555:14
	str	r0, [sp, #32]
.Ltmp593:
	.loc	2 556 14 is_stmt 1              @ rt-thread/components/drivers/sdio/sdio.c:556:14
	ldr	r0, [sp, #32]
.Ltmp594:
	.loc	2 556 13 is_stmt 0              @ rt-thread/components/drivers/sdio/sdio.c:556:13
	cbnz	r0, .LBB37_20
	b	.LBB37_19
.LBB37_19:
	.loc	2 0 13                          @ rt-thread/components/drivers/sdio/sdio.c:0:13
	mvn	r0, #4
.Ltmp595:
	.loc	2 557 13 is_stmt 1              @ rt-thread/components/drivers/sdio/sdio.c:557:13
	str	r0, [sp, #44]
	b	.LBB37_52
.Ltmp596:
.LBB37_20:                              @   in Loop: Header=BB37_9 Depth=1
	.loc	2 558 36                        @ rt-thread/components/drivers/sdio/sdio.c:558:36
	ldr	r1, [sp, #32]
	.loc	2 558 41 is_stmt 0              @ rt-thread/components/drivers/sdio/sdio.c:558:41
	add.w	r0, r1, #12
	.loc	2 558 20                        @ rt-thread/components/drivers/sdio/sdio.c:558:20
	str	r0, [r1, #8]
	movs	r0, #0
.Ltmp597:
	.loc	2 560 16 is_stmt 1              @ rt-thread/components/drivers/sdio/sdio.c:560:16
	str	r0, [sp, #24]
	.loc	2 560 14 is_stmt 0              @ rt-thread/components/drivers/sdio/sdio.c:560:14
	b	.LBB37_21
.LBB37_21:                              @   Parent Loop BB37_9 Depth=1
                                        @ =>  This Inner Loop Header: Depth=2
.Ltmp598:
	.loc	2 560 21                        @ rt-thread/components/drivers/sdio/sdio.c:560:21
	ldr	r0, [sp, #24]
	.loc	2 560 25                        @ rt-thread/components/drivers/sdio/sdio.c:560:25
	ldrb.w	r1, [sp, #17]
.Ltmp599:
	.loc	2 560 9                         @ rt-thread/components/drivers/sdio/sdio.c:560:9
	cmp	r0, r1
	bhs	.LBB37_26
	b	.LBB37_22
.LBB37_22:                              @   in Loop: Header=BB37_21 Depth=2
.Ltmp600:
	.loc	2 562 43 is_stmt 1              @ rt-thread/components/drivers/sdio/sdio.c:562:43
	ldr	r0, [sp, #8]
	.loc	2 562 50 is_stmt 0              @ rt-thread/components/drivers/sdio/sdio.c:562:50
	ldr	r1, [sp, #20]
	.loc	2 562 59                        @ rt-thread/components/drivers/sdio/sdio.c:562:59
	ldr	r2, [sp, #24]
	.loc	2 562 57                        @ rt-thread/components/drivers/sdio/sdio.c:562:57
	add	r1, r2
	add	r2, sp, #36
	.loc	2 562 29                        @ rt-thread/components/drivers/sdio/sdio.c:562:29
	bl	sdio_io_readb
	.loc	2 562 13                        @ rt-thread/components/drivers/sdio/sdio.c:562:13
	ldr	r1, [sp, #32]
	.loc	2 562 19                        @ rt-thread/components/drivers/sdio/sdio.c:562:19
	ldr	r1, [r1, #8]
	.loc	2 562 24                        @ rt-thread/components/drivers/sdio/sdio.c:562:24
	ldr	r2, [sp, #24]
	.loc	2 562 27                        @ rt-thread/components/drivers/sdio/sdio.c:562:27
	strb	r0, [r1, r2]
.Ltmp601:
	.loc	2 563 17 is_stmt 1              @ rt-thread/components/drivers/sdio/sdio.c:563:17
	ldr	r0, [sp, #36]
.Ltmp602:
	.loc	2 563 17 is_stmt 0              @ rt-thread/components/drivers/sdio/sdio.c:563:17
	cbz	r0, .LBB37_24
	b	.LBB37_23
.LBB37_23:                              @   in Loop: Header=BB37_9 Depth=1
.Ltmp603:
	.loc	2 564 17 is_stmt 1              @ rt-thread/components/drivers/sdio/sdio.c:564:17
	b	.LBB37_26
.Ltmp604:
.LBB37_24:                              @   in Loop: Header=BB37_21 Depth=2
	.loc	2 565 9                         @ rt-thread/components/drivers/sdio/sdio.c:565:9
	b	.LBB37_25
.Ltmp605:
.LBB37_25:                              @   in Loop: Header=BB37_21 Depth=2
	.loc	2 560 36                        @ rt-thread/components/drivers/sdio/sdio.c:560:36
	ldr	r0, [sp, #24]
	adds	r0, #1
	str	r0, [sp, #24]
	.loc	2 560 9 is_stmt 0               @ rt-thread/components/drivers/sdio/sdio.c:560:9
	b	.LBB37_21
.Ltmp606:
.LBB37_26:                              @   in Loop: Header=BB37_9 Depth=1
	.loc	2 566 13 is_stmt 1              @ rt-thread/components/drivers/sdio/sdio.c:566:13
	ldr	r0, [sp, #36]
.Ltmp607:
	.loc	2 566 13 is_stmt 0              @ rt-thread/components/drivers/sdio/sdio.c:566:13
	cbz	r0, .LBB37_28
	b	.LBB37_27
.LBB37_27:
.Ltmp608:
	.loc	2 568 21 is_stmt 1              @ rt-thread/components/drivers/sdio/sdio.c:568:21
	ldr	r0, [sp, #32]
	.loc	2 568 13 is_stmt 0              @ rt-thread/components/drivers/sdio/sdio.c:568:13
	bl	rt_free
	.loc	2 569 13 is_stmt 1              @ rt-thread/components/drivers/sdio/sdio.c:569:13
	b	.LBB37_49
.Ltmp609:
.LBB37_28:                              @   in Loop: Header=BB37_9 Depth=1
	.loc	2 572 17                        @ rt-thread/components/drivers/sdio/sdio.c:572:17
	ldrb.w	r0, [sp, #18]
	.loc	2 572 9 is_stmt 0               @ rt-thread/components/drivers/sdio/sdio.c:572:9
	mov	r1, r0
	str	r1, [sp, #4]                    @ 4-byte Spill
	cmp	r0, #21
	beq	.LBB37_43
	b	.LBB37_29
.LBB37_29:                              @   in Loop: Header=BB37_9 Depth=1
	ldr	r0, [sp, #4]                    @ 4-byte Reload
	cmp	r0, #32
	beq	.LBB37_31
	b	.LBB37_30
.LBB37_30:                              @   in Loop: Header=BB37_9 Depth=1
	ldr	r0, [sp, #4]                    @ 4-byte Reload
	cmp	r0, #34
	beq	.LBB37_37
	b	.LBB37_46
.LBB37_31:                              @   in Loop: Header=BB37_9 Depth=1
.Ltmp610:
	.loc	2 575 17 is_stmt 1              @ rt-thread/components/drivers/sdio/sdio.c:575:17
	ldrb.w	r0, [sp, #17]
.Ltmp611:
	.loc	2 575 17 is_stmt 0              @ rt-thread/components/drivers/sdio/sdio.c:575:17
	cmp	r0, #3
	bgt	.LBB37_33
	b	.LBB37_32
.LBB37_32:                              @   in Loop: Header=BB37_9 Depth=1
.Ltmp612:
	.loc	2 578 17 is_stmt 1              @ rt-thread/components/drivers/sdio/sdio.c:578:17
	b	.LBB37_47
.Ltmp613:
.LBB37_33:                              @   in Loop: Header=BB37_9 Depth=1
	.loc	2 580 17                        @ rt-thread/components/drivers/sdio/sdio.c:580:17
	ldr	r0, [sp, #40]
	.loc	2 580 23 is_stmt 0              @ rt-thread/components/drivers/sdio/sdio.c:580:23
	ldrb	r0, [r0, #8]
.Ltmp614:
	.loc	2 580 17                        @ rt-thread/components/drivers/sdio/sdio.c:580:17
	cbz	r0, .LBB37_35
	b	.LBB37_34
.LBB37_34:                              @   in Loop: Header=BB37_9 Depth=1
.Ltmp615:
	.loc	2 582 38 is_stmt 1              @ rt-thread/components/drivers/sdio/sdio.c:582:38
	ldr	r0, [sp, #32]
	.loc	2 582 44 is_stmt 0              @ rt-thread/components/drivers/sdio/sdio.c:582:44
	ldr	r0, [r0, #8]
	.loc	2 582 38                        @ rt-thread/components/drivers/sdio/sdio.c:582:38
	ldrb	r0, [r0]
	.loc	2 582 17                        @ rt-thread/components/drivers/sdio/sdio.c:582:17
	ldr	r1, [sp, #40]
	.loc	2 582 36                        @ rt-thread/components/drivers/sdio/sdio.c:582:36
	strh	r0, [r1, #10]
	.loc	2 583 39 is_stmt 1              @ rt-thread/components/drivers/sdio/sdio.c:583:39
	ldr	r0, [sp, #32]
	.loc	2 583 45 is_stmt 0              @ rt-thread/components/drivers/sdio/sdio.c:583:45
	ldr	r0, [r0, #8]
	.loc	2 583 39                        @ rt-thread/components/drivers/sdio/sdio.c:583:39
	ldrb	r2, [r0, #1]
	.loc	2 583 17                        @ rt-thread/components/drivers/sdio/sdio.c:583:17
	ldr	r1, [sp, #40]
	.loc	2 583 36                        @ rt-thread/components/drivers/sdio/sdio.c:583:36
	ldrh	r0, [r1, #10]
	orr.w	r0, r0, r2, lsl #8
	strh	r0, [r1, #10]
	.loc	2 584 33 is_stmt 1              @ rt-thread/components/drivers/sdio/sdio.c:584:33
	ldr	r0, [sp, #32]
	.loc	2 584 39 is_stmt 0              @ rt-thread/components/drivers/sdio/sdio.c:584:39
	ldr	r0, [r0, #8]
	.loc	2 584 33                        @ rt-thread/components/drivers/sdio/sdio.c:584:33
	ldrb	r0, [r0, #2]
	.loc	2 584 17                        @ rt-thread/components/drivers/sdio/sdio.c:584:17
	ldr	r1, [sp, #40]
	.loc	2 584 31                        @ rt-thread/components/drivers/sdio/sdio.c:584:31
	strh	r0, [r1, #12]
	.loc	2 585 34 is_stmt 1              @ rt-thread/components/drivers/sdio/sdio.c:585:34
	ldr	r0, [sp, #32]
	.loc	2 585 40 is_stmt 0              @ rt-thread/components/drivers/sdio/sdio.c:585:40
	ldr	r0, [r0, #8]
	.loc	2 585 34                        @ rt-thread/components/drivers/sdio/sdio.c:585:34
	ldrb	r2, [r0, #3]
	.loc	2 585 17                        @ rt-thread/components/drivers/sdio/sdio.c:585:17
	ldr	r1, [sp, #40]
	.loc	2 585 31                        @ rt-thread/components/drivers/sdio/sdio.c:585:31
	ldrh	r0, [r1, #12]
	orr.w	r0, r0, r2, lsl #8
	strh	r0, [r1, #12]
	.loc	2 586 13 is_stmt 1              @ rt-thread/components/drivers/sdio/sdio.c:586:13
	b	.LBB37_36
.Ltmp616:
.LBB37_35:                              @   in Loop: Header=BB37_9 Depth=1
	.loc	2 589 42                        @ rt-thread/components/drivers/sdio/sdio.c:589:42
	ldr	r0, [sp, #32]
	.loc	2 589 48 is_stmt 0              @ rt-thread/components/drivers/sdio/sdio.c:589:48
	ldr	r0, [r0, #8]
	.loc	2 589 42                        @ rt-thread/components/drivers/sdio/sdio.c:589:42
	ldrb	r0, [r0]
	.loc	2 589 17                        @ rt-thread/components/drivers/sdio/sdio.c:589:17
	ldr	r1, [sp, #12]
	.loc	2 589 40                        @ rt-thread/components/drivers/sdio/sdio.c:589:40
	strh.w	r0, [r1, #112]
	.loc	2 590 43 is_stmt 1              @ rt-thread/components/drivers/sdio/sdio.c:590:43
	ldr	r0, [sp, #32]
	.loc	2 590 49 is_stmt 0              @ rt-thread/components/drivers/sdio/sdio.c:590:49
	ldr	r0, [r0, #8]
	.loc	2 590 43                        @ rt-thread/components/drivers/sdio/sdio.c:590:43
	ldrb	r2, [r0, #1]
	.loc	2 590 17                        @ rt-thread/components/drivers/sdio/sdio.c:590:17
	ldr	r1, [sp, #12]
	.loc	2 590 40                        @ rt-thread/components/drivers/sdio/sdio.c:590:40
	ldrh.w	r0, [r1, #112]
	orr.w	r0, r0, r2, lsl #8
	strh.w	r0, [r1, #112]
	.loc	2 591 37 is_stmt 1              @ rt-thread/components/drivers/sdio/sdio.c:591:37
	ldr	r0, [sp, #32]
	.loc	2 591 43 is_stmt 0              @ rt-thread/components/drivers/sdio/sdio.c:591:43
	ldr	r0, [r0, #8]
	.loc	2 591 37                        @ rt-thread/components/drivers/sdio/sdio.c:591:37
	ldrb	r0, [r0, #2]
	.loc	2 591 17                        @ rt-thread/components/drivers/sdio/sdio.c:591:17
	ldr	r1, [sp, #12]
	.loc	2 591 35                        @ rt-thread/components/drivers/sdio/sdio.c:591:35
	strh.w	r0, [r1, #114]
	.loc	2 592 38 is_stmt 1              @ rt-thread/components/drivers/sdio/sdio.c:592:38
	ldr	r0, [sp, #32]
	.loc	2 592 44 is_stmt 0              @ rt-thread/components/drivers/sdio/sdio.c:592:44
	ldr	r0, [r0, #8]
	.loc	2 592 38                        @ rt-thread/components/drivers/sdio/sdio.c:592:38
	ldrb	r2, [r0, #3]
	.loc	2 592 17                        @ rt-thread/components/drivers/sdio/sdio.c:592:17
	ldr	r1, [sp, #12]
	.loc	2 592 35                        @ rt-thread/components/drivers/sdio/sdio.c:592:35
	ldrh.w	r0, [r1, #114]
	orr.w	r0, r0, r2, lsl #8
	strh.w	r0, [r1, #114]
	b	.LBB37_36
.Ltmp617:
.LBB37_36:                              @   in Loop: Header=BB37_9 Depth=1
	.loc	2 594 13 is_stmt 1              @ rt-thread/components/drivers/sdio/sdio.c:594:13
	b	.LBB37_47
.LBB37_37:                              @   in Loop: Header=BB37_9 Depth=1
.Ltmp618:
	.loc	2 596 17                        @ rt-thread/components/drivers/sdio/sdio.c:596:17
	ldr	r0, [sp, #40]
	.loc	2 596 23 is_stmt 0              @ rt-thread/components/drivers/sdio/sdio.c:596:23
	ldrb	r0, [r0, #8]
.Ltmp619:
	.loc	2 596 17                        @ rt-thread/components/drivers/sdio/sdio.c:596:17
	cbz	r0, .LBB37_39
	b	.LBB37_38
.LBB37_38:                              @   in Loop: Header=BB37_9 Depth=1
.Ltmp620:
	.loc	2 597 41 is_stmt 1              @ rt-thread/components/drivers/sdio/sdio.c:597:41
	ldr	r0, [sp, #40]
	.loc	2 597 47 is_stmt 0              @ rt-thread/components/drivers/sdio/sdio.c:597:47
	ldr	r1, [sp, #32]
	.loc	2 597 53                        @ rt-thread/components/drivers/sdio/sdio.c:597:53
	ldr	r1, [r1, #8]
	.loc	2 597 59                        @ rt-thread/components/drivers/sdio/sdio.c:597:59
	ldrb.w	r2, [sp, #17]
	.loc	2 597 23                        @ rt-thread/components/drivers/sdio/sdio.c:597:23
	bl	cistpl_funce_func
	.loc	2 597 21                        @ rt-thread/components/drivers/sdio/sdio.c:597:21
	str	r0, [sp, #36]
	.loc	2 597 17                        @ rt-thread/components/drivers/sdio/sdio.c:597:17
	b	.LBB37_40
.LBB37_39:                              @   in Loop: Header=BB37_9 Depth=1
	.loc	2 599 42 is_stmt 1              @ rt-thread/components/drivers/sdio/sdio.c:599:42
	ldr	r0, [sp, #12]
	.loc	2 599 48 is_stmt 0              @ rt-thread/components/drivers/sdio/sdio.c:599:48
	ldr	r1, [sp, #32]
	.loc	2 599 54                        @ rt-thread/components/drivers/sdio/sdio.c:599:54
	ldr	r1, [r1, #8]
	.loc	2 599 60                        @ rt-thread/components/drivers/sdio/sdio.c:599:60
	ldrb.w	r2, [sp, #17]
	.loc	2 599 23                        @ rt-thread/components/drivers/sdio/sdio.c:599:23
	bl	cistpl_funce_func0
	.loc	2 599 21                        @ rt-thread/components/drivers/sdio/sdio.c:599:21
	str	r0, [sp, #36]
	b	.LBB37_40
.Ltmp621:
.LBB37_40:                              @   in Loop: Header=BB37_9 Depth=1
	.loc	2 601 17 is_stmt 1              @ rt-thread/components/drivers/sdio/sdio.c:601:17
	ldr	r0, [sp, #36]
.Ltmp622:
	.loc	2 601 17 is_stmt 0              @ rt-thread/components/drivers/sdio/sdio.c:601:17
	cbz	r0, .LBB37_42
	b	.LBB37_41
.LBB37_41:                              @   in Loop: Header=BB37_9 Depth=1
.Ltmp623:
	.loc	2 605 13 is_stmt 1              @ rt-thread/components/drivers/sdio/sdio.c:605:13
	b	.LBB37_42
.Ltmp624:
.LBB37_42:                              @   in Loop: Header=BB37_9 Depth=1
	.loc	2 607 13                        @ rt-thread/components/drivers/sdio/sdio.c:607:13
	b	.LBB37_47
.LBB37_43:                              @   in Loop: Header=BB37_9 Depth=1
.Ltmp625:
	.loc	2 609 17                        @ rt-thread/components/drivers/sdio/sdio.c:609:17
	ldrb.w	r0, [sp, #17]
.Ltmp626:
	.loc	2 609 17 is_stmt 0              @ rt-thread/components/drivers/sdio/sdio.c:609:17
	cmp	r0, #1
	bgt	.LBB37_45
	b	.LBB37_44
.LBB37_44:                              @   in Loop: Header=BB37_9 Depth=1
.Ltmp627:
	.loc	2 612 13 is_stmt 1              @ rt-thread/components/drivers/sdio/sdio.c:612:13
	b	.LBB37_45
.Ltmp628:
.LBB37_45:                              @   in Loop: Header=BB37_9 Depth=1
	.loc	2 613 13                        @ rt-thread/components/drivers/sdio/sdio.c:613:13
	b	.LBB37_47
.LBB37_46:                              @   in Loop: Header=BB37_9 Depth=1
	.loc	2 616 13                        @ rt-thread/components/drivers/sdio/sdio.c:616:13
	ldr	r1, [sp, #32]
	movs	r0, #0
	.loc	2 616 24 is_stmt 0              @ rt-thread/components/drivers/sdio/sdio.c:616:24
	str	r0, [r1]
	.loc	2 617 26 is_stmt 1              @ rt-thread/components/drivers/sdio/sdio.c:617:26
	ldrb.w	r0, [sp, #18]
	.loc	2 617 13 is_stmt 0              @ rt-thread/components/drivers/sdio/sdio.c:617:13
	ldr	r1, [sp, #32]
	.loc	2 617 24                        @ rt-thread/components/drivers/sdio/sdio.c:617:24
	strb	r0, [r1, #4]
	.loc	2 618 26 is_stmt 1              @ rt-thread/components/drivers/sdio/sdio.c:618:26
	ldrb.w	r0, [sp, #17]
	.loc	2 618 13 is_stmt 0              @ rt-thread/components/drivers/sdio/sdio.c:618:13
	ldr	r1, [sp, #32]
	.loc	2 618 24                        @ rt-thread/components/drivers/sdio/sdio.c:618:24
	strb	r0, [r1, #5]
	.loc	2 619 21 is_stmt 1              @ rt-thread/components/drivers/sdio/sdio.c:619:21
	ldr	r0, [sp, #32]
	.loc	2 619 14 is_stmt 0              @ rt-thread/components/drivers/sdio/sdio.c:619:14
	ldr	r1, [sp, #28]
	.loc	2 619 19                        @ rt-thread/components/drivers/sdio/sdio.c:619:19
	str	r0, [r1]
	.loc	2 620 21 is_stmt 1              @ rt-thread/components/drivers/sdio/sdio.c:620:21
	ldr	r0, [sp, #32]
	.loc	2 620 18 is_stmt 0              @ rt-thread/components/drivers/sdio/sdio.c:620:18
	str	r0, [sp, #28]
	.loc	2 623 13 is_stmt 1              @ rt-thread/components/drivers/sdio/sdio.c:623:13
	b	.LBB37_47
.Ltmp629:
.LBB37_47:                              @   in Loop: Header=BB37_9 Depth=1
	.loc	2 626 19                        @ rt-thread/components/drivers/sdio/sdio.c:626:19
	ldrb.w	r1, [sp, #17]
	.loc	2 626 16 is_stmt 0              @ rt-thread/components/drivers/sdio/sdio.c:626:16
	ldr	r0, [sp, #20]
	add	r0, r1
	str	r0, [sp, #20]
	.loc	2 627 5 is_stmt 1               @ rt-thread/components/drivers/sdio/sdio.c:627:5
	b	.LBB37_48
.LBB37_48:                              @   in Loop: Header=BB37_9 Depth=1
	.loc	2 0 5 is_stmt 0                 @ rt-thread/components/drivers/sdio/sdio.c:0:5
	movs	r0, #1
	.loc	2 627 5                         @ rt-thread/components/drivers/sdio/sdio.c:627:5
	cmp	r0, #0
	bne.w	.LBB37_9
	b	.LBB37_49
.Ltmp630:
.LBB37_49:
	.loc	2 633 9 is_stmt 1               @ rt-thread/components/drivers/sdio/sdio.c:633:9
	ldr	r0, [sp, #40]
	.loc	2 633 15 is_stmt 0              @ rt-thread/components/drivers/sdio/sdio.c:633:15
	ldrb	r0, [r0, #8]
.Ltmp631:
	.loc	2 633 9                         @ rt-thread/components/drivers/sdio/sdio.c:633:9
	cbz	r0, .LBB37_51
	b	.LBB37_50
.LBB37_50:
.Ltmp632:
	.loc	2 634 17 is_stmt 1              @ rt-thread/components/drivers/sdio/sdio.c:634:17
	ldr	r0, [sp, #8]
	.loc	2 634 24 is_stmt 0              @ rt-thread/components/drivers/sdio/sdio.c:634:24
	ldr	r0, [r0, #28]
	.loc	2 634 10                        @ rt-thread/components/drivers/sdio/sdio.c:634:10
	ldr	r1, [sp, #28]
	.loc	2 634 15                        @ rt-thread/components/drivers/sdio/sdio.c:634:15
	str	r0, [r1]
	.loc	2 634 9                         @ rt-thread/components/drivers/sdio/sdio.c:634:9
	b	.LBB37_51
.Ltmp633:
.LBB37_51:
	.loc	2 636 12 is_stmt 1              @ rt-thread/components/drivers/sdio/sdio.c:636:12
	ldr	r0, [sp, #36]
	.loc	2 636 5 is_stmt 0               @ rt-thread/components/drivers/sdio/sdio.c:636:5
	str	r0, [sp, #44]
	b	.LBB37_52
.LBB37_52:
	.loc	2 637 1 is_stmt 1               @ rt-thread/components/drivers/sdio/sdio.c:637:1
	ldr	r0, [sp, #44]
	add	sp, #48
	pop	{r7, pc}
.Ltmp634:
.Lfunc_end37:
	.size	sdio_read_cis, .Lfunc_end37-sdio_read_cis
	.cfi_endproc
	.cantunwind
	.fnend
                                        @ -- End function
	.section	.text.sdio_set_highspeed,"ax",%progbits
	.p2align	3                               @ -- Begin function sdio_set_highspeed
	.type	sdio_set_highspeed,%function
	.code	16                              @ @sdio_set_highspeed
	.thumb_func
sdio_set_highspeed:
.Lfunc_begin38:
	.loc	2 735 0                         @ rt-thread/components/drivers/sdio/sdio.c:735:0
	.fnstart
	.cfi_startproc
@ %bb.0:
	.save	{r7, lr}
	push	{r7, lr}
	.cfi_def_cfa_offset 8
	.cfi_offset lr, -4
	.cfi_offset r7, -8
	.pad	#16
	sub	sp, #16
	.cfi_def_cfa_offset 24
	str	r0, [sp, #8]
.Ltmp635:
	.loc	2 739 11 prologue_end           @ rt-thread/components/drivers/sdio/sdio.c:739:11
	ldr	r0, [sp, #8]
	.loc	2 739 17 is_stmt 0              @ rt-thread/components/drivers/sdio/sdio.c:739:17
	ldr	r0, [r0]
.Ltmp636:
	.loc	2 739 9                         @ rt-thread/components/drivers/sdio/sdio.c:739:9
	ldrb.w	r0, [r0, #32]
	lsls	r0, r0, #26
	cmp	r0, #0
	bmi	.LBB38_2
	b	.LBB38_1
.LBB38_1:
	.loc	2 0 9                           @ rt-thread/components/drivers/sdio/sdio.c:0:9
	movs	r0, #0
.Ltmp637:
	.loc	2 740 9 is_stmt 1               @ rt-thread/components/drivers/sdio/sdio.c:740:9
	str	r0, [sp, #12]
	b	.LBB38_9
.Ltmp638:
.LBB38_2:
	.loc	2 742 10                        @ rt-thread/components/drivers/sdio/sdio.c:742:10
	ldr	r0, [sp, #8]
	.loc	2 742 21 is_stmt 0              @ rt-thread/components/drivers/sdio/sdio.c:742:21
	ldrb.w	r0, [r0, #108]
	lsrs	r0, r0, #3
.Ltmp639:
	.loc	2 742 9                         @ rt-thread/components/drivers/sdio/sdio.c:742:9
	lsls	r0, r0, #31
	cbnz	r0, .LBB38_4
	b	.LBB38_3
.LBB38_3:
	.loc	2 0 9                           @ rt-thread/components/drivers/sdio/sdio.c:0:9
	movs	r0, #0
.Ltmp640:
	.loc	2 743 9 is_stmt 1               @ rt-thread/components/drivers/sdio/sdio.c:743:9
	str	r0, [sp, #12]
	b	.LBB38_9
.Ltmp641:
.LBB38_4:
	.loc	2 745 27                        @ rt-thread/components/drivers/sdio/sdio.c:745:27
	ldr	r0, [sp, #8]
	ldr	r0, [r0, #124]
	movs	r1, #19
	add	r2, sp, #4
	.loc	2 745 13 is_stmt 0              @ rt-thread/components/drivers/sdio/sdio.c:745:13
	bl	sdio_io_readb
	.loc	2 745 11                        @ rt-thread/components/drivers/sdio/sdio.c:745:11
	strb.w	r0, [sp, #3]
.Ltmp642:
	.loc	2 746 9 is_stmt 1               @ rt-thread/components/drivers/sdio/sdio.c:746:9
	ldr	r0, [sp, #4]
.Ltmp643:
	.loc	2 746 9 is_stmt 0               @ rt-thread/components/drivers/sdio/sdio.c:746:9
	cbz	r0, .LBB38_6
	b	.LBB38_5
.LBB38_5:
.Ltmp644:
	.loc	2 747 16 is_stmt 1              @ rt-thread/components/drivers/sdio/sdio.c:747:16
	ldr	r0, [sp, #4]
	.loc	2 747 9 is_stmt 0               @ rt-thread/components/drivers/sdio/sdio.c:747:9
	str	r0, [sp, #12]
	b	.LBB38_9
.Ltmp645:
.LBB38_6:
	.loc	2 749 11 is_stmt 1              @ rt-thread/components/drivers/sdio/sdio.c:749:11
	ldrb.w	r0, [sp, #3]
	orr	r0, r0, #2
	strb.w	r0, [sp, #3]
	.loc	2 751 26                        @ rt-thread/components/drivers/sdio/sdio.c:751:26
	ldr	r0, [sp, #8]
	ldr	r0, [r0, #124]
	.loc	2 751 71 is_stmt 0              @ rt-thread/components/drivers/sdio/sdio.c:751:71
	ldrb.w	r2, [sp, #3]
	movs	r1, #19
	.loc	2 751 11                        @ rt-thread/components/drivers/sdio/sdio.c:751:11
	bl	sdio_io_writeb
	.loc	2 751 9                         @ rt-thread/components/drivers/sdio/sdio.c:751:9
	str	r0, [sp, #4]
.Ltmp646:
	.loc	2 752 9 is_stmt 1               @ rt-thread/components/drivers/sdio/sdio.c:752:9
	ldr	r0, [sp, #4]
.Ltmp647:
	.loc	2 752 9 is_stmt 0               @ rt-thread/components/drivers/sdio/sdio.c:752:9
	cbz	r0, .LBB38_8
	b	.LBB38_7
.LBB38_7:
.Ltmp648:
	.loc	2 753 16 is_stmt 1              @ rt-thread/components/drivers/sdio/sdio.c:753:16
	ldr	r0, [sp, #4]
	.loc	2 753 9 is_stmt 0               @ rt-thread/components/drivers/sdio/sdio.c:753:9
	str	r0, [sp, #12]
	b	.LBB38_9
.Ltmp649:
.LBB38_8:
	.loc	2 755 5 is_stmt 1               @ rt-thread/components/drivers/sdio/sdio.c:755:5
	ldr	r1, [sp, #8]
	.loc	2 755 17 is_stmt 0              @ rt-thread/components/drivers/sdio/sdio.c:755:17
	ldrh.w	r0, [r1, #74]
	orr	r0, r0, #1
	strh.w	r0, [r1, #74]
	movs	r0, #0
	.loc	2 757 5 is_stmt 1               @ rt-thread/components/drivers/sdio/sdio.c:757:5
	str	r0, [sp, #12]
	b	.LBB38_9
.LBB38_9:
	.loc	2 758 1                         @ rt-thread/components/drivers/sdio/sdio.c:758:1
	ldr	r0, [sp, #12]
	add	sp, #16
	pop	{r7, pc}
.Ltmp650:
.Lfunc_end38:
	.size	sdio_set_highspeed, .Lfunc_end38-sdio_set_highspeed
	.cfi_endproc
	.cantunwind
	.fnend
                                        @ -- End function
	.section	.text.sdio_set_bus_wide,"ax",%progbits
	.p2align	3                               @ -- Begin function sdio_set_bus_wide
	.type	sdio_set_bus_wide,%function
	.code	16                              @ @sdio_set_bus_wide
	.thumb_func
sdio_set_bus_wide:
.Lfunc_begin39:
	.loc	2 761 0                         @ rt-thread/components/drivers/sdio/sdio.c:761:0
	.fnstart
	.cfi_startproc
@ %bb.0:
	.save	{r7, lr}
	push	{r7, lr}
	.cfi_def_cfa_offset 8
	.cfi_offset lr, -4
	.cfi_offset r7, -8
	.pad	#16
	sub	sp, #16
	.cfi_def_cfa_offset 24
	str	r0, [sp, #8]
.Ltmp651:
	.loc	2 765 11 prologue_end           @ rt-thread/components/drivers/sdio/sdio.c:765:11
	ldr	r0, [sp, #8]
	.loc	2 765 17 is_stmt 0              @ rt-thread/components/drivers/sdio/sdio.c:765:17
	ldr	r0, [r0]
.Ltmp652:
	.loc	2 765 9                         @ rt-thread/components/drivers/sdio/sdio.c:765:9
	ldrb.w	r0, [r0, #32]
	lsls	r0, r0, #31
	cbnz	r0, .LBB39_2
	b	.LBB39_1
.LBB39_1:
	.loc	2 0 9                           @ rt-thread/components/drivers/sdio/sdio.c:0:9
	movs	r0, #0
.Ltmp653:
	.loc	2 766 9 is_stmt 1               @ rt-thread/components/drivers/sdio/sdio.c:766:9
	str	r0, [sp, #12]
	b	.LBB39_10
.Ltmp654:
.LBB39_2:
	.loc	2 768 9                         @ rt-thread/components/drivers/sdio/sdio.c:768:9
	ldr	r0, [sp, #8]
	.loc	2 768 20 is_stmt 0              @ rt-thread/components/drivers/sdio/sdio.c:768:20
	ldrb.w	r0, [r0, #107]
	lsrs	r0, r0, #6
	.loc	2 768 30                        @ rt-thread/components/drivers/sdio/sdio.c:768:30
	lsls	r0, r0, #31
	cbz	r0, .LBB39_5
	b	.LBB39_3
.LBB39_3:
	.loc	2 768 34                        @ rt-thread/components/drivers/sdio/sdio.c:768:34
	ldr	r0, [sp, #8]
	.loc	2 768 45                        @ rt-thread/components/drivers/sdio/sdio.c:768:45
	ldrb.w	r0, [r0, #108]
.Ltmp655:
	.loc	2 768 9                         @ rt-thread/components/drivers/sdio/sdio.c:768:9
	lsls	r0, r0, #31
	cbnz	r0, .LBB39_5
	b	.LBB39_4
.LBB39_4:
	.loc	2 0 9                           @ rt-thread/components/drivers/sdio/sdio.c:0:9
	movs	r0, #0
.Ltmp656:
	.loc	2 769 9 is_stmt 1               @ rt-thread/components/drivers/sdio/sdio.c:769:9
	str	r0, [sp, #12]
	b	.LBB39_10
.Ltmp657:
.LBB39_5:
	.loc	2 771 27                        @ rt-thread/components/drivers/sdio/sdio.c:771:27
	ldr	r0, [sp, #8]
	ldr	r0, [r0, #124]
	movs	r1, #7
	add	r2, sp, #4
	.loc	2 771 13 is_stmt 0              @ rt-thread/components/drivers/sdio/sdio.c:771:13
	bl	sdio_io_readb
	.loc	2 771 11                        @ rt-thread/components/drivers/sdio/sdio.c:771:11
	strb.w	r0, [sp, #3]
.Ltmp658:
	.loc	2 772 9 is_stmt 1               @ rt-thread/components/drivers/sdio/sdio.c:772:9
	ldr	r0, [sp, #4]
.Ltmp659:
	.loc	2 772 9 is_stmt 0               @ rt-thread/components/drivers/sdio/sdio.c:772:9
	cbz	r0, .LBB39_7
	b	.LBB39_6
.LBB39_6:
.Ltmp660:
	.loc	2 773 16 is_stmt 1              @ rt-thread/components/drivers/sdio/sdio.c:773:16
	ldr	r0, [sp, #4]
	.loc	2 773 9 is_stmt 0               @ rt-thread/components/drivers/sdio/sdio.c:773:9
	str	r0, [sp, #12]
	b	.LBB39_10
.Ltmp661:
.LBB39_7:
	.loc	2 775 11 is_stmt 1              @ rt-thread/components/drivers/sdio/sdio.c:775:11
	ldrb.w	r0, [sp, #3]
	orr	r0, r0, #2
	strb.w	r0, [sp, #3]
	.loc	2 777 26                        @ rt-thread/components/drivers/sdio/sdio.c:777:26
	ldr	r0, [sp, #8]
	ldr	r0, [r0, #124]
	.loc	2 777 72 is_stmt 0              @ rt-thread/components/drivers/sdio/sdio.c:777:72
	ldrb.w	r2, [sp, #3]
	movs	r1, #7
	.loc	2 777 11                        @ rt-thread/components/drivers/sdio/sdio.c:777:11
	bl	sdio_io_writeb
	.loc	2 777 9                         @ rt-thread/components/drivers/sdio/sdio.c:777:9
	str	r0, [sp, #4]
.Ltmp662:
	.loc	2 778 9 is_stmt 1               @ rt-thread/components/drivers/sdio/sdio.c:778:9
	ldr	r0, [sp, #4]
.Ltmp663:
	.loc	2 778 9 is_stmt 0               @ rt-thread/components/drivers/sdio/sdio.c:778:9
	cbz	r0, .LBB39_9
	b	.LBB39_8
.LBB39_8:
.Ltmp664:
	.loc	2 779 16 is_stmt 1              @ rt-thread/components/drivers/sdio/sdio.c:779:16
	ldr	r0, [sp, #4]
	.loc	2 779 9 is_stmt 0               @ rt-thread/components/drivers/sdio/sdio.c:779:9
	str	r0, [sp, #12]
	b	.LBB39_10
.Ltmp665:
.LBB39_9:
	.loc	2 781 25 is_stmt 1              @ rt-thread/components/drivers/sdio/sdio.c:781:25
	ldr	r0, [sp, #8]
	.loc	2 781 31 is_stmt 0              @ rt-thread/components/drivers/sdio/sdio.c:781:31
	ldr	r0, [r0]
	movs	r1, #2
	.loc	2 781 5                         @ rt-thread/components/drivers/sdio/sdio.c:781:5
	bl	mmcsd_set_bus_width
	movs	r0, #0
	.loc	2 783 5 is_stmt 1               @ rt-thread/components/drivers/sdio/sdio.c:783:5
	str	r0, [sp, #12]
	b	.LBB39_10
.LBB39_10:
	.loc	2 784 1                         @ rt-thread/components/drivers/sdio/sdio.c:784:1
	ldr	r0, [sp, #12]
	add	sp, #16
	pop	{r7, pc}
.Ltmp666:
.Lfunc_end39:
	.size	sdio_set_bus_wide, .Lfunc_end39-sdio_set_bus_wide
	.cfi_endproc
	.cantunwind
	.fnend
                                        @ -- End function
	.section	.text.sdio_initialize_function,"ax",%progbits
	.p2align	3                               @ -- Begin function sdio_initialize_function
	.type	sdio_initialize_function,%function
	.code	16                              @ @sdio_initialize_function
	.thumb_func
sdio_initialize_function:
.Lfunc_begin40:
	.loc	2 686 0                         @ rt-thread/components/drivers/sdio/sdio.c:686:0
	.fnstart
	.cfi_startproc
@ %bb.0:
	.save	{r7, lr}
	push	{r7, lr}
	.cfi_def_cfa_offset 8
	.cfi_offset lr, -4
	.cfi_offset r7, -8
	.pad	#24
	sub	sp, #24
	.cfi_def_cfa_offset 32
	str	r0, [sp, #16]
	str	r1, [sp, #12]
.Ltmp667:
	.loc	2 690 5 prologue_end            @ rt-thread/components/drivers/sdio/sdio.c:690:5
	ldr	r0, [sp, #12]
.Ltmp668:
	.loc	2 690 5 is_stmt 0               @ rt-thread/components/drivers/sdio/sdio.c:690:5
	cmp	r0, #8
	blo	.LBB40_2
	b	.LBB40_1
.LBB40_1:
.Ltmp669:
	.loc	2 690 5                         @ rt-thread/components/drivers/sdio/sdio.c:690:5
	movw	r0, :lower16:.L.str.22
	movt	r0, :upper16:.L.str.22
	movw	r1, :lower16:.L__FUNCTION__.sdio_initialize_function
	movt	r1, :upper16:.L__FUNCTION__.sdio_initialize_function
	movw	r2, #690
	bl	rt_assert_handler
	b	.LBB40_2
.Ltmp670:
.LBB40_2:
	.loc	2 0 5                           @ rt-thread/components/drivers/sdio/sdio.c:0:5
	movs	r0, #36
	.loc	2 692 12 is_stmt 1              @ rt-thread/components/drivers/sdio/sdio.c:692:12
	bl	rt_malloc
	.loc	2 692 10 is_stmt 0              @ rt-thread/components/drivers/sdio/sdio.c:692:10
	str	r0, [sp, #4]
.Ltmp671:
	.loc	2 693 10 is_stmt 1              @ rt-thread/components/drivers/sdio/sdio.c:693:10
	ldr	r0, [sp, #4]
.Ltmp672:
	.loc	2 693 9 is_stmt 0               @ rt-thread/components/drivers/sdio/sdio.c:693:9
	cbnz	r0, .LBB40_6
	b	.LBB40_3
.LBB40_3:
.Ltmp673:
	.loc	2 695 9 is_stmt 1               @ rt-thread/components/drivers/sdio/sdio.c:695:9
	b	.LBB40_4
.LBB40_4:
.Ltmp674:
	.loc	2 695 9 is_stmt 0               @ rt-thread/components/drivers/sdio/sdio.c:695:9
	movw	r0, :lower16:.L.str.11
	movt	r0, :upper16:.L.str.11
	bl	rt_kprintf
	movw	r0, :lower16:.L.str.23
	movt	r0, :upper16:.L.str.23
	bl	rt_kprintf
	movw	r0, :lower16:.L.str.9
	movt	r0, :upper16:.L.str.9
	bl	rt_kprintf
	b	.LBB40_5
.Ltmp675:
.LBB40_5:
	.loc	2 0 9                           @ rt-thread/components/drivers/sdio/sdio.c:0:9
	mvn	r0, #4
	.loc	2 696 13 is_stmt 1              @ rt-thread/components/drivers/sdio/sdio.c:696:13
	str	r0, [sp, #8]
	.loc	2 697 9                         @ rt-thread/components/drivers/sdio/sdio.c:697:9
	b	.LBB40_14
.Ltmp676:
.LBB40_6:
	.loc	2 699 15                        @ rt-thread/components/drivers/sdio/sdio.c:699:15
	ldr	r0, [sp, #4]
	movs	r1, #0
	movs	r2, #36
	.loc	2 699 5 is_stmt 0               @ rt-thread/components/drivers/sdio/sdio.c:699:5
	bl	rt_memset
	.loc	2 701 18 is_stmt 1              @ rt-thread/components/drivers/sdio/sdio.c:701:18
	ldr	r0, [sp, #16]
	.loc	2 701 5 is_stmt 0               @ rt-thread/components/drivers/sdio/sdio.c:701:5
	ldr	r1, [sp, #4]
	.loc	2 701 16                        @ rt-thread/components/drivers/sdio/sdio.c:701:16
	str	r0, [r1]
	.loc	2 702 17 is_stmt 1              @ rt-thread/components/drivers/sdio/sdio.c:702:17
	ldr	r0, [sp, #12]
	.loc	2 702 5 is_stmt 0               @ rt-thread/components/drivers/sdio/sdio.c:702:5
	ldr	r1, [sp, #4]
	.loc	2 702 15                        @ rt-thread/components/drivers/sdio/sdio.c:702:15
	strb	r0, [r1, #8]
	.loc	2 704 25 is_stmt 1              @ rt-thread/components/drivers/sdio/sdio.c:704:25
	ldr	r0, [sp, #4]
	.loc	2 704 11 is_stmt 0              @ rt-thread/components/drivers/sdio/sdio.c:704:11
	bl	sdio_read_fbr
	.loc	2 704 9                         @ rt-thread/components/drivers/sdio/sdio.c:704:9
	str	r0, [sp, #8]
.Ltmp677:
	.loc	2 705 9 is_stmt 1               @ rt-thread/components/drivers/sdio/sdio.c:705:9
	ldr	r0, [sp, #8]
.Ltmp678:
	.loc	2 705 9 is_stmt 0               @ rt-thread/components/drivers/sdio/sdio.c:705:9
	cbz	r0, .LBB40_8
	b	.LBB40_7
.LBB40_7:
.Ltmp679:
	.loc	2 706 9 is_stmt 1               @ rt-thread/components/drivers/sdio/sdio.c:706:9
	b	.LBB40_13
.Ltmp680:
.LBB40_8:
	.loc	2 708 25                        @ rt-thread/components/drivers/sdio/sdio.c:708:25
	ldr	r0, [sp, #4]
	.loc	2 708 11 is_stmt 0              @ rt-thread/components/drivers/sdio/sdio.c:708:11
	bl	sdio_read_cis
	.loc	2 708 9                         @ rt-thread/components/drivers/sdio/sdio.c:708:9
	str	r0, [sp, #8]
.Ltmp681:
	.loc	2 709 9 is_stmt 1               @ rt-thread/components/drivers/sdio/sdio.c:709:9
	ldr	r0, [sp, #8]
.Ltmp682:
	.loc	2 709 9 is_stmt 0               @ rt-thread/components/drivers/sdio/sdio.c:709:9
	cbz	r0, .LBB40_10
	b	.LBB40_9
.LBB40_9:
.Ltmp683:
	.loc	2 710 9 is_stmt 1               @ rt-thread/components/drivers/sdio/sdio.c:710:9
	b	.LBB40_13
.Ltmp684:
.LBB40_10:
	.loc	2 716 9                         @ rt-thread/components/drivers/sdio/sdio.c:716:9
	ldr	r0, [sp, #4]
	.loc	2 716 15 is_stmt 0              @ rt-thread/components/drivers/sdio/sdio.c:716:15
	ldrh	r0, [r0, #12]
.Ltmp685:
	.loc	2 716 9                         @ rt-thread/components/drivers/sdio/sdio.c:716:9
	cbnz	r0, .LBB40_12
	b	.LBB40_11
.LBB40_11:
.Ltmp686:
	.loc	2 718 30 is_stmt 1              @ rt-thread/components/drivers/sdio/sdio.c:718:30
	ldr	r0, [sp, #16]
	.loc	2 718 40 is_stmt 0              @ rt-thread/components/drivers/sdio/sdio.c:718:40
	ldrh.w	r0, [r0, #112]
	.loc	2 718 9                         @ rt-thread/components/drivers/sdio/sdio.c:718:9
	ldr	r1, [sp, #4]
	.loc	2 718 28                        @ rt-thread/components/drivers/sdio/sdio.c:718:28
	strh	r0, [r1, #10]
	.loc	2 719 25 is_stmt 1              @ rt-thread/components/drivers/sdio/sdio.c:719:25
	ldr	r0, [sp, #16]
	.loc	2 719 35 is_stmt 0              @ rt-thread/components/drivers/sdio/sdio.c:719:35
	ldrh.w	r0, [r0, #114]
	.loc	2 719 9                         @ rt-thread/components/drivers/sdio/sdio.c:719:9
	ldr	r1, [sp, #4]
	.loc	2 719 23                        @ rt-thread/components/drivers/sdio/sdio.c:719:23
	strh	r0, [r1, #12]
	.loc	2 720 5 is_stmt 1               @ rt-thread/components/drivers/sdio/sdio.c:720:5
	b	.LBB40_12
.Ltmp687:
.LBB40_12:
	.loc	2 722 37                        @ rt-thread/components/drivers/sdio/sdio.c:722:37
	ldr	r0, [sp, #4]
	.loc	2 722 5 is_stmt 0               @ rt-thread/components/drivers/sdio/sdio.c:722:5
	ldr	r1, [sp, #16]
	.loc	2 722 25                        @ rt-thread/components/drivers/sdio/sdio.c:722:25
	ldr	r2, [sp, #12]
	.loc	2 722 11                        @ rt-thread/components/drivers/sdio/sdio.c:722:11
	add.w	r1, r1, r2, lsl #2
	.loc	2 722 35                        @ rt-thread/components/drivers/sdio/sdio.c:722:35
	str	r0, [r1, #124]
	movs	r0, #0
	.loc	2 724 5 is_stmt 1               @ rt-thread/components/drivers/sdio/sdio.c:724:5
	str	r0, [sp, #20]
	b	.LBB40_15
.LBB40_13:
.Ltmp688:
	@DEBUG_LABEL: sdio_initialize_function:err1
	.loc	2 727 19                        @ rt-thread/components/drivers/sdio/sdio.c:727:19
	ldr	r0, [sp, #4]
	.loc	2 727 5 is_stmt 0               @ rt-thread/components/drivers/sdio/sdio.c:727:5
	bl	sdio_free_cis
	.loc	2 728 13 is_stmt 1              @ rt-thread/components/drivers/sdio/sdio.c:728:13
	ldr	r0, [sp, #4]
	.loc	2 728 5 is_stmt 0               @ rt-thread/components/drivers/sdio/sdio.c:728:5
	bl	rt_free
	.loc	2 729 5 is_stmt 1               @ rt-thread/components/drivers/sdio/sdio.c:729:5
	ldr	r0, [sp, #16]
	.loc	2 729 25 is_stmt 0              @ rt-thread/components/drivers/sdio/sdio.c:729:25
	ldr	r1, [sp, #12]
	.loc	2 729 11                        @ rt-thread/components/drivers/sdio/sdio.c:729:11
	add.w	r1, r0, r1, lsl #2
	movs	r0, #0
	.loc	2 729 35                        @ rt-thread/components/drivers/sdio/sdio.c:729:35
	str	r0, [r1, #124]
	.loc	2 729 5                         @ rt-thread/components/drivers/sdio/sdio.c:729:5
	b	.LBB40_14
.LBB40_14:
.Ltmp689:
	@DEBUG_LABEL: sdio_initialize_function:err
	.loc	2 731 12 is_stmt 1              @ rt-thread/components/drivers/sdio/sdio.c:731:12
	ldr	r0, [sp, #8]
	.loc	2 731 5 is_stmt 0               @ rt-thread/components/drivers/sdio/sdio.c:731:5
	str	r0, [sp, #20]
	b	.LBB40_15
.LBB40_15:
	.loc	2 732 1 is_stmt 1               @ rt-thread/components/drivers/sdio/sdio.c:732:1
	ldr	r0, [sp, #20]
	add	sp, #24
	pop	{r7, pc}
.Ltmp690:
.Lfunc_end40:
	.size	sdio_initialize_function, .Lfunc_end40-sdio_initialize_function
	.cfi_endproc
	.cantunwind
	.fnend
                                        @ -- End function
	.section	.text.sdio_register_card,"ax",%progbits
	.p2align	3                               @ -- Begin function sdio_register_card
	.type	sdio_register_card,%function
	.code	16                              @ @sdio_register_card
	.thumb_func
sdio_register_card:
.Lfunc_begin41:
	.loc	2 787 0                         @ rt-thread/components/drivers/sdio/sdio.c:787:0
	.fnstart
	.cfi_startproc
@ %bb.0:
	.save	{r7, lr}
	push	{r7, lr}
	.cfi_def_cfa_offset 8
	.cfi_offset lr, -4
	.cfi_offset r7, -8
	.pad	#24
	sub	sp, #24
	.cfi_def_cfa_offset 32
	str	r0, [sp, #16]
	movs	r0, #12
.Ltmp691:
	.loc	2 792 10 prologue_end           @ rt-thread/components/drivers/sdio/sdio.c:792:10
	bl	rt_malloc
	.loc	2 792 8 is_stmt 0               @ rt-thread/components/drivers/sdio/sdio.c:792:8
	str	r0, [sp, #12]
.Ltmp692:
	.loc	2 793 9 is_stmt 1               @ rt-thread/components/drivers/sdio/sdio.c:793:9
	ldr	r0, [sp, #12]
.Ltmp693:
	.loc	2 793 9 is_stmt 0               @ rt-thread/components/drivers/sdio/sdio.c:793:9
	cbnz	r0, .LBB41_4
	b	.LBB41_1
.LBB41_1:
.Ltmp694:
	.loc	2 795 9 is_stmt 1               @ rt-thread/components/drivers/sdio/sdio.c:795:9
	b	.LBB41_2
.LBB41_2:
.Ltmp695:
	.loc	2 795 9 is_stmt 0               @ rt-thread/components/drivers/sdio/sdio.c:795:9
	movw	r0, :lower16:.L.str.11
	movt	r0, :upper16:.L.str.11
	bl	rt_kprintf
	movw	r0, :lower16:.L.str.24
	movt	r0, :upper16:.L.str.24
	bl	rt_kprintf
	movw	r0, :lower16:.L.str.9
	movt	r0, :upper16:.L.str.9
	bl	rt_kprintf
	b	.LBB41_3
.Ltmp696:
.LBB41_3:
	.loc	2 0 9                           @ rt-thread/components/drivers/sdio/sdio.c:0:9
	mvn	r0, #4
	.loc	2 796 9 is_stmt 1               @ rt-thread/components/drivers/sdio/sdio.c:796:9
	str	r0, [sp, #20]
	b	.LBB41_14
.Ltmp697:
.LBB41_4:
	.loc	2 799 16                        @ rt-thread/components/drivers/sdio/sdio.c:799:16
	ldr	r0, [sp, #16]
	.loc	2 799 5 is_stmt 0               @ rt-thread/components/drivers/sdio/sdio.c:799:5
	ldr	r1, [sp, #12]
	.loc	2 799 14                        @ rt-thread/components/drivers/sdio/sdio.c:799:14
	str	r0, [r1]
	.loc	2 800 40 is_stmt 1              @ rt-thread/components/drivers/sdio/sdio.c:800:40
	ldr	r0, [sp, #12]
	.loc	2 800 44 is_stmt 0              @ rt-thread/components/drivers/sdio/sdio.c:800:44
	adds	r1, r0, #4
	.loc	2 800 5                         @ rt-thread/components/drivers/sdio/sdio.c:800:5
	movw	r0, :lower16:sdio_cards
	movt	r0, :upper16:sdio_cards
	bl	rt_list_insert_after
.Ltmp698:
	.loc	2 802 9 is_stmt 1               @ rt-thread/components/drivers/sdio/sdio.c:802:9
	movw	r0, :lower16:sdio_drivers
	movt	r0, :upper16:sdio_drivers
	bl	rt_list_isempty
.Ltmp699:
	.loc	2 802 9 is_stmt 0               @ rt-thread/components/drivers/sdio/sdio.c:802:9
	cbz	r0, .LBB41_6
	b	.LBB41_5
.LBB41_5:
.Ltmp700:
	.loc	2 804 9 is_stmt 1               @ rt-thread/components/drivers/sdio/sdio.c:804:9
	b	.LBB41_13
.Ltmp701:
.LBB41_6:
	.loc	2 807 31                        @ rt-thread/components/drivers/sdio/sdio.c:807:31
	movw	r0, :lower16:sdio_drivers
	movt	r0, :upper16:sdio_drivers
	ldr	r0, [r0]
	.loc	2 807 12 is_stmt 0              @ rt-thread/components/drivers/sdio/sdio.c:807:12
	str	r0, [sp, #4]
	.loc	2 807 10                        @ rt-thread/components/drivers/sdio/sdio.c:807:10
	b	.LBB41_7
.LBB41_7:                               @ =>This Inner Loop Header: Depth=1
.Ltmp702:
	.loc	2 807 37                        @ rt-thread/components/drivers/sdio/sdio.c:807:37
	ldr	r0, [sp, #4]
	.loc	2 807 39                        @ rt-thread/components/drivers/sdio/sdio.c:807:39
	movw	r1, :lower16:sdio_drivers
	movt	r1, :upper16:sdio_drivers
.Ltmp703:
	.loc	2 807 5                         @ rt-thread/components/drivers/sdio/sdio.c:807:5
	cmp	r0, r1
	beq	.LBB41_12
	b	.LBB41_8
.LBB41_8:                               @   in Loop: Header=BB41_7 Depth=1
.Ltmp704:
	.loc	2 809 36 is_stmt 1              @ rt-thread/components/drivers/sdio/sdio.c:809:36
	ldr	r0, [sp, #4]
	subs	r0, #4
	.loc	2 809 12 is_stmt 0              @ rt-thread/components/drivers/sdio/sdio.c:809:12
	str	r0, [sp, #8]
.Ltmp705:
	.loc	2 810 29 is_stmt 1              @ rt-thread/components/drivers/sdio/sdio.c:810:29
	ldr	r0, [sp, #16]
	.loc	2 810 35 is_stmt 0              @ rt-thread/components/drivers/sdio/sdio.c:810:35
	ldr	r1, [sp, #8]
	.loc	2 810 39                        @ rt-thread/components/drivers/sdio/sdio.c:810:39
	ldr	r1, [r1]
	.loc	2 810 44                        @ rt-thread/components/drivers/sdio/sdio.c:810:44
	ldr	r1, [r1, #12]
	.loc	2 810 13                        @ rt-thread/components/drivers/sdio/sdio.c:810:13
	bl	sdio_match_card
.Ltmp706:
	.loc	2 810 13                        @ rt-thread/components/drivers/sdio/sdio.c:810:13
	cbz	r0, .LBB41_10
	b	.LBB41_9
.LBB41_9:                               @   in Loop: Header=BB41_7 Depth=1
.Ltmp707:
	.loc	2 812 13 is_stmt 1              @ rt-thread/components/drivers/sdio/sdio.c:812:13
	ldr	r0, [sp, #8]
	.loc	2 812 17 is_stmt 0              @ rt-thread/components/drivers/sdio/sdio.c:812:17
	ldr	r0, [r0]
	.loc	2 812 22                        @ rt-thread/components/drivers/sdio/sdio.c:812:22
	ldr	r1, [r0, #4]
	.loc	2 812 28                        @ rt-thread/components/drivers/sdio/sdio.c:812:28
	ldr	r0, [sp, #16]
	.loc	2 812 13                        @ rt-thread/components/drivers/sdio/sdio.c:812:13
	blx	r1
	.loc	2 813 9 is_stmt 1               @ rt-thread/components/drivers/sdio/sdio.c:813:9
	b	.LBB41_10
.Ltmp708:
.LBB41_10:                              @   in Loop: Header=BB41_7 Depth=1
	.loc	2 814 5                         @ rt-thread/components/drivers/sdio/sdio.c:814:5
	b	.LBB41_11
.Ltmp709:
.LBB41_11:                              @   in Loop: Header=BB41_7 Depth=1
	.loc	2 807 61                        @ rt-thread/components/drivers/sdio/sdio.c:807:61
	ldr	r0, [sp, #4]
	.loc	2 807 64 is_stmt 0              @ rt-thread/components/drivers/sdio/sdio.c:807:64
	ldr	r0, [r0]
	.loc	2 807 59                        @ rt-thread/components/drivers/sdio/sdio.c:807:59
	str	r0, [sp, #4]
	.loc	2 807 5                         @ rt-thread/components/drivers/sdio/sdio.c:807:5
	b	.LBB41_7
.Ltmp710:
.LBB41_12:
	.loc	2 814 5 is_stmt 1               @ rt-thread/components/drivers/sdio/sdio.c:814:5
	b	.LBB41_13
.Ltmp711:
.LBB41_13:
	@DEBUG_LABEL: sdio_register_card:out
	.loc	2 0 5 is_stmt 0                 @ rt-thread/components/drivers/sdio/sdio.c:0:5
	movs	r0, #0
	.loc	2 817 5 is_stmt 1               @ rt-thread/components/drivers/sdio/sdio.c:817:5
	str	r0, [sp, #20]
	b	.LBB41_14
.LBB41_14:
	.loc	2 818 1                         @ rt-thread/components/drivers/sdio/sdio.c:818:1
	ldr	r0, [sp, #20]
	add	sp, #24
	pop	{r7, pc}
.Ltmp712:
.Lfunc_end41:
	.size	sdio_register_card, .Lfunc_end41-sdio_register_card
	.cfi_endproc
	.cantunwind
	.fnend
                                        @ -- End function
	.section	.text.cistpl_funce_func,"ax",%progbits
	.p2align	3                               @ -- Begin function cistpl_funce_func
	.type	cistpl_funce_func,%function
	.code	16                              @ @cistpl_funce_func
	.thumb_func
cistpl_funce_func:
.Lfunc_begin42:
	.loc	2 494 0                         @ rt-thread/components/drivers/sdio/sdio.c:494:0
	.fnstart
	.cfi_startproc
@ %bb.0:
	.pad	#24
	sub	sp, #24
	.cfi_def_cfa_offset 24
	str	r0, [sp, #16]
	str	r1, [sp, #12]
	str	r2, [sp, #8]
.Ltmp713:
	.loc	2 498 15 prologue_end           @ rt-thread/components/drivers/sdio/sdio.c:498:15
	ldr	r0, [sp, #16]
	.loc	2 498 21 is_stmt 0              @ rt-thread/components/drivers/sdio/sdio.c:498:21
	ldr	r0, [r0]
	.loc	2 498 32                        @ rt-thread/components/drivers/sdio/sdio.c:498:32
	ldrb.w	r0, [r0, #105]
	.loc	2 498 13                        @ rt-thread/components/drivers/sdio/sdio.c:498:13
	str	r0, [sp, #4]
	.loc	2 499 17 is_stmt 1              @ rt-thread/components/drivers/sdio/sdio.c:499:17
	ldr	r1, [sp, #4]
	movs	r0, #42
	.loc	2 499 16 is_stmt 0              @ rt-thread/components/drivers/sdio/sdio.c:499:16
	cmp	r1, #0
	it	eq
	moveq	r0, #28
	.loc	2 499 14                        @ rt-thread/components/drivers/sdio/sdio.c:499:14
	str	r0, [sp]
.Ltmp714:
	.loc	2 501 9 is_stmt 1               @ rt-thread/components/drivers/sdio/sdio.c:501:9
	ldr	r0, [sp, #8]
	.loc	2 501 16 is_stmt 0              @ rt-thread/components/drivers/sdio/sdio.c:501:16
	ldr	r1, [sp]
	.loc	2 501 25                        @ rt-thread/components/drivers/sdio/sdio.c:501:25
	cmp	r0, r1
	blo	.LBB42_2
	b	.LBB42_1
.LBB42_1:
	.loc	2 501 28                        @ rt-thread/components/drivers/sdio/sdio.c:501:28
	ldr	r0, [sp, #12]
	ldrb	r0, [r0]
.Ltmp715:
	.loc	2 501 9                         @ rt-thread/components/drivers/sdio/sdio.c:501:9
	cmp	r0, #1
	beq	.LBB42_3
	b	.LBB42_2
.LBB42_2:
	.loc	2 0 9                           @ rt-thread/components/drivers/sdio/sdio.c:0:9
	mov.w	r0, #-1
.Ltmp716:
	.loc	2 502 9 is_stmt 1               @ rt-thread/components/drivers/sdio/sdio.c:502:9
	str	r0, [sp, #20]
	b	.LBB42_7
.Ltmp717:
.LBB42_3:
	.loc	2 505 26                        @ rt-thread/components/drivers/sdio/sdio.c:505:26
	ldr	r0, [sp, #12]
	.loc	2 505 34 is_stmt 0              @ rt-thread/components/drivers/sdio/sdio.c:505:34
	ldrh	r0, [r0, #12]
	.loc	2 505 5                         @ rt-thread/components/drivers/sdio/sdio.c:505:5
	ldr	r1, [sp, #16]
	.loc	2 505 24                        @ rt-thread/components/drivers/sdio/sdio.c:505:24
	str	r0, [r1, #16]
.Ltmp718:
	.loc	2 508 9 is_stmt 1               @ rt-thread/components/drivers/sdio/sdio.c:508:9
	ldr	r0, [sp, #4]
.Ltmp719:
	.loc	2 508 9 is_stmt 0               @ rt-thread/components/drivers/sdio/sdio.c:508:9
	cbz	r0, .LBB42_5
	b	.LBB42_4
.LBB42_4:
.Ltmp720:
	.loc	2 509 37 is_stmt 1              @ rt-thread/components/drivers/sdio/sdio.c:509:37
	ldr	r0, [sp, #12]
	.loc	2 509 45 is_stmt 0              @ rt-thread/components/drivers/sdio/sdio.c:509:45
	ldrh	r0, [r0, #28]
	.loc	2 509 63                        @ rt-thread/components/drivers/sdio/sdio.c:509:63
	add.w	r0, r0, r0, lsl #2
	lsls	r0, r0, #1
	.loc	2 509 9                         @ rt-thread/components/drivers/sdio/sdio.c:509:9
	ldr	r1, [sp, #16]
	.loc	2 509 34                        @ rt-thread/components/drivers/sdio/sdio.c:509:34
	str	r0, [r1, #24]
	.loc	2 509 9                         @ rt-thread/components/drivers/sdio/sdio.c:509:9
	b	.LBB42_6
.LBB42_5:
	.loc	2 511 9 is_stmt 1               @ rt-thread/components/drivers/sdio/sdio.c:511:9
	ldr	r1, [sp, #16]
	mov.w	r0, #1000
	.loc	2 511 34 is_stmt 0              @ rt-thread/components/drivers/sdio/sdio.c:511:34
	str	r0, [r1, #24]
	b	.LBB42_6
.Ltmp721:
.LBB42_6:
	.loc	2 0 34                          @ rt-thread/components/drivers/sdio/sdio.c:0:34
	movs	r0, #0
	.loc	2 513 5 is_stmt 1               @ rt-thread/components/drivers/sdio/sdio.c:513:5
	str	r0, [sp, #20]
	b	.LBB42_7
.LBB42_7:
	.loc	2 514 1                         @ rt-thread/components/drivers/sdio/sdio.c:514:1
	ldr	r0, [sp, #20]
	add	sp, #24
	bx	lr
.Ltmp722:
.Lfunc_end42:
	.size	cistpl_funce_func, .Lfunc_end42-cistpl_funce_func
	.cfi_endproc
	.cantunwind
	.fnend
                                        @ -- End function
	.section	.text.cistpl_funce_func0,"ax",%progbits
	.p2align	3                               @ -- Begin function cistpl_funce_func0
	.type	cistpl_funce_func0,%function
	.code	16                              @ @cistpl_funce_func0
	.thumb_func
cistpl_funce_func0:
.Lfunc_begin43:
	.loc	2 477 0                         @ rt-thread/components/drivers/sdio/sdio.c:477:0
	.fnstart
	.cfi_startproc
@ %bb.0:
	.pad	#16
	sub	sp, #16
	.cfi_def_cfa_offset 16
	str	r0, [sp, #8]
	str	r1, [sp, #4]
	str	r2, [sp]
.Ltmp723:
	.loc	2 478 9 prologue_end            @ rt-thread/components/drivers/sdio/sdio.c:478:9
	ldr	r0, [sp]
	.loc	2 478 21 is_stmt 0              @ rt-thread/components/drivers/sdio/sdio.c:478:21
	cmp	r0, #4
	blo	.LBB43_2
	b	.LBB43_1
.LBB43_1:
	.loc	2 478 24                        @ rt-thread/components/drivers/sdio/sdio.c:478:24
	ldr	r0, [sp, #4]
	ldrb	r0, [r0]
.Ltmp724:
	.loc	2 478 9                         @ rt-thread/components/drivers/sdio/sdio.c:478:9
	cbz	r0, .LBB43_3
	b	.LBB43_2
.LBB43_2:
	.loc	2 0 9                           @ rt-thread/components/drivers/sdio/sdio.c:0:9
	mov.w	r0, #-1
.Ltmp725:
	.loc	2 479 9 is_stmt 1               @ rt-thread/components/drivers/sdio/sdio.c:479:9
	str	r0, [sp, #12]
	b	.LBB43_4
.Ltmp726:
.LBB43_3:
	.loc	2 482 32                        @ rt-thread/components/drivers/sdio/sdio.c:482:32
	ldr	r1, [sp, #4]
	ldrb	r0, [r1, #1]
	.loc	2 482 42 is_stmt 0              @ rt-thread/components/drivers/sdio/sdio.c:482:42
	ldrb	r1, [r1, #2]
	.loc	2 482 39                        @ rt-thread/components/drivers/sdio/sdio.c:482:39
	orr.w	r0, r0, r1, lsl #8
	.loc	2 482 5                         @ rt-thread/components/drivers/sdio/sdio.c:482:5
	ldr	r1, [sp, #8]
	.loc	2 482 30                        @ rt-thread/components/drivers/sdio/sdio.c:482:30
	strh.w	r0, [r1, #116]
	.loc	2 485 45 is_stmt 1              @ rt-thread/components/drivers/sdio/sdio.c:485:45
	ldr	r0, [sp, #4]
	ldrb	r1, [r0, #3]
	.loc	2 485 58 is_stmt 0              @ rt-thread/components/drivers/sdio/sdio.c:485:58
	ubfx	r2, r1, #3, #4
	.loc	2 485 32                        @ rt-thread/components/drivers/sdio/sdio.c:485:32
	movw	r0, :lower16:speed_value
	movt	r0, :upper16:speed_value
	ldrb	r0, [r0, r2]
