	.text
	.syntax unified
	.eabi_attribute	67, "2.09"	@ Tag_conformance
	.cpu	cortex-m7
	.eabi_attribute	6, 13	@ Tag_CPU_arch
	.eabi_attribute	7, 77	@ Tag_CPU_arch_profile
	.eabi_attribute	8, 0	@ Tag_ARM_ISA_use
	.eabi_attribute	9, 2	@ Tag_THUMB_ISA_use
	.fpu	fpv5-d16
	.eabi_attribute	36, 1	@ Tag_FP_HP_extension
	.eabi_attribute	34, 1	@ Tag_CPU_unaligned_access
	.eabi_attribute	17, 1	@ Tag_ABI_PCS_GOT_use
	.eabi_attribute	20, 2	@ Tag_ABI_FP_denormal
	.eabi_attribute	21, 0	@ Tag_ABI_FP_exceptions
	.eabi_attribute	23, 1	@ Tag_ABI_FP_number_model
	.eabi_attribute	24, 1	@ Tag_ABI_align_needed
	.eabi_attribute	25, 1	@ Tag_ABI_align_preserved
	.eabi_attribute	28, 1	@ Tag_ABI_VFP_args
	.eabi_attribute	38, 1	@ Tag_ABI_FP_16bit_format
	.eabi_attribute	18, 2	@ Tag_ABI_PCS_wchar_t
	.eabi_attribute	26, 1	@ Tag_ABI_enum_size
	.eabi_attribute	14, 0	@ Tag_ABI_PCS_R9_use
	.file	"serial.c"
	.file	1 "D:\\Keil_v5\\ARM\\ARMCLANG\\Bin\\..\\include" "stdint.h"
	.file	2 "E:\\STM32\\Learning\\STM32H750_ART_PI_RGBLCD" "rt-thread/components/dfs/include\\dfs_file.h"
	.file	3 "E:\\STM32\\Learning\\STM32H750_ART_PI_RGBLCD" "rt-thread/include\\rtdef.h"
	.file	4 "E:\\STM32\\Learning\\STM32H750_ART_PI_RGBLCD" "rt-thread/components/dfs/include\\dfs_fs.h"
	.file	5 "D:\\Keil_v5\\ARM\\ARMCLANG\\Bin\\..\\include" "time.h"
	.file	6 "E:\\STM32\\Learning\\STM32H750_ART_PI_RGBLCD" "rt-thread/components/dfs/include\\dfs.h"
	.file	7 "E:\\STM32\\Learning\\STM32H750_ART_PI_RGBLCD" "rt-thread/include/libc/libc_stat.h"
	.file	8 "E:\\STM32\\Learning\\STM32H750_ART_PI_RGBLCD" "rt-thread/include/rtlibc.h"
	.file	9 "E:\\STM32\\Learning\\STM32H750_ART_PI_RGBLCD" "rt-thread/components/drivers/include/ipc/poll.h"
	.file	10 "E:\\STM32\\Learning\\STM32H750_ART_PI_RGBLCD" "rt-thread/components/drivers/serial/serial.c"
	.file	11 "E:\\STM32\\Learning\\STM32H750_ART_PI_RGBLCD" "rt-thread/components/drivers/include/drivers/serial.h"
	.file	12 "E:\\STM32\\Learning\\STM32H750_ART_PI_RGBLCD" "rt-thread/components/drivers/include/ipc/completion.h"
	.section	.text.rt_hw_serial_register,"ax",%progbits
	.hidden	rt_hw_serial_register           @ -- Begin function rt_hw_serial_register
	.globl	rt_hw_serial_register
	.p2align	3
	.type	rt_hw_serial_register,%function
	.code	16                              @ @rt_hw_serial_register
	.thumb_func
rt_hw_serial_register:
.Lfunc_begin0:
	.loc	10 1132 0                       @ rt-thread/components/drivers/serial/serial.c:1132:0
	.fnstart
	.cfi_sections .debug_frame
	.cfi_startproc
@ %bb.0:
	.save	{r7, lr}
	push	{r7, lr}
	.cfi_def_cfa_offset 8
	.cfi_offset lr, -4
	.cfi_offset r7, -8
	.pad	#24
	sub	sp, #24
	.cfi_def_cfa_offset 32
	str	r0, [sp, #20]
	str	r1, [sp, #16]
	str	r2, [sp, #12]
	str	r3, [sp, #8]
.Ltmp0:
	.loc	10 1135 5 prologue_end          @ rt-thread/components/drivers/serial/serial.c:1135:5
	ldr	r0, [sp, #20]
.Ltmp1:
	.loc	10 1135 5 is_stmt 0             @ rt-thread/components/drivers/serial/serial.c:1135:5
	cbnz	r0, .LBB0_2
	b	.LBB0_1
.LBB0_1:
.Ltmp2:
	.loc	10 1135 5                       @ rt-thread/components/drivers/serial/serial.c:1135:5
	movw	r0, :lower16:.L.str
	movt	r0, :upper16:.L.str
	movw	r1, :lower16:.L__FUNCTION__.rt_hw_serial_register
	movt	r1, :upper16:.L__FUNCTION__.rt_hw_serial_register
	movw	r2, #1135
	bl	rt_assert_handler
	b	.LBB0_2
.Ltmp3:
.LBB0_2:
	.loc	10 1137 16 is_stmt 1            @ rt-thread/components/drivers/serial/serial.c:1137:16
	ldr	r0, [sp, #20]
	.loc	10 1137 12 is_stmt 0            @ rt-thread/components/drivers/serial/serial.c:1137:12
	str	r0, [sp]
	.loc	10 1139 5 is_stmt 1             @ rt-thread/components/drivers/serial/serial.c:1139:5
	ldr	r1, [sp]
	movs	r0, #0
	.loc	10 1139 25 is_stmt 0            @ rt-thread/components/drivers/serial/serial.c:1139:25
	strb	r0, [r1, #20]
	.loc	10 1140 5 is_stmt 1             @ rt-thread/components/drivers/serial/serial.c:1140:5
	ldr	r1, [sp]
	.loc	10 1140 25 is_stmt 0            @ rt-thread/components/drivers/serial/serial.c:1140:25
	str	r0, [r1, #28]
	.loc	10 1141 5 is_stmt 1             @ rt-thread/components/drivers/serial/serial.c:1141:5
	ldr	r1, [sp]
	.loc	10 1141 25 is_stmt 0            @ rt-thread/components/drivers/serial/serial.c:1141:25
	str	r0, [r1, #32]
	.loc	10 1146 5 is_stmt 1             @ rt-thread/components/drivers/serial/serial.c:1146:5
	ldr	r1, [sp]
	.loc	10 1146 25 is_stmt 0            @ rt-thread/components/drivers/serial/serial.c:1146:25
	movw	r0, :lower16:rt_serial_init
	movt	r0, :upper16:rt_serial_init
	str	r0, [r1, #36]
	.loc	10 1147 5 is_stmt 1             @ rt-thread/components/drivers/serial/serial.c:1147:5
	ldr	r1, [sp]
	.loc	10 1147 25 is_stmt 0            @ rt-thread/components/drivers/serial/serial.c:1147:25
	movw	r0, :lower16:rt_serial_open
	movt	r0, :upper16:rt_serial_open
	str	r0, [r1, #40]
	.loc	10 1148 5 is_stmt 1             @ rt-thread/components/drivers/serial/serial.c:1148:5
	ldr	r1, [sp]
	.loc	10 1148 25 is_stmt 0            @ rt-thread/components/drivers/serial/serial.c:1148:25
	movw	r0, :lower16:rt_serial_close
	movt	r0, :upper16:rt_serial_close
	str	r0, [r1, #44]
	.loc	10 1149 5 is_stmt 1             @ rt-thread/components/drivers/serial/serial.c:1149:5
	ldr	r1, [sp]
	.loc	10 1149 25 is_stmt 0            @ rt-thread/components/drivers/serial/serial.c:1149:25
	movw	r0, :lower16:rt_serial_read
	movt	r0, :upper16:rt_serial_read
	str	r0, [r1, #48]
	.loc	10 1150 5 is_stmt 1             @ rt-thread/components/drivers/serial/serial.c:1150:5
	ldr	r1, [sp]
	.loc	10 1150 25 is_stmt 0            @ rt-thread/components/drivers/serial/serial.c:1150:25
	movw	r0, :lower16:rt_serial_write
	movt	r0, :upper16:rt_serial_write
	str	r0, [r1, #52]
	.loc	10 1151 5 is_stmt 1             @ rt-thread/components/drivers/serial/serial.c:1151:5
	ldr	r1, [sp]
	.loc	10 1151 25 is_stmt 0            @ rt-thread/components/drivers/serial/serial.c:1151:25
	movw	r0, :lower16:rt_serial_control
	movt	r0, :upper16:rt_serial_control
	str	r0, [r1, #56]
	.loc	10 1153 27 is_stmt 1            @ rt-thread/components/drivers/serial/serial.c:1153:27
	ldr	r0, [sp, #8]
	.loc	10 1153 5 is_stmt 0             @ rt-thread/components/drivers/serial/serial.c:1153:5
	ldr	r1, [sp]
	.loc	10 1153 25                      @ rt-thread/components/drivers/serial/serial.c:1153:25
	str	r0, [r1, #76]
	.loc	10 1156 30 is_stmt 1            @ rt-thread/components/drivers/serial/serial.c:1156:30
	ldr	r0, [sp]
	.loc	10 1156 38 is_stmt 0            @ rt-thread/components/drivers/serial/serial.c:1156:38
	ldr	r1, [sp, #16]
	.loc	10 1156 44                      @ rt-thread/components/drivers/serial/serial.c:1156:44
	ldrh.w	r2, [sp, #12]
	.loc	10 1156 11                      @ rt-thread/components/drivers/serial/serial.c:1156:11
	bl	rt_device_register
	.loc	10 1156 9                       @ rt-thread/components/drivers/serial/serial.c:1156:9
	str	r0, [sp, #4]
	.loc	10 1160 5 is_stmt 1             @ rt-thread/components/drivers/serial/serial.c:1160:5
	ldr	r1, [sp]
	.loc	10 1160 25 is_stmt 0            @ rt-thread/components/drivers/serial/serial.c:1160:25
	movw	r0, :lower16:_serial_fops
	movt	r0, :upper16:_serial_fops
	str	r0, [r1, #60]
	.loc	10 1163 12 is_stmt 1            @ rt-thread/components/drivers/serial/serial.c:1163:12
	ldr	r0, [sp, #4]
	.loc	10 1163 5 is_stmt 0             @ rt-thread/components/drivers/serial/serial.c:1163:5
	add	sp, #24
	pop	{r7, pc}
.Ltmp4:
.Lfunc_end0:
	.size	rt_hw_serial_register, .Lfunc_end0-rt_hw_serial_register
	.cfi_endproc
	.cantunwind
	.fnend
                                        @ -- End function
	.section	.text.rt_serial_init,"ax",%progbits
	.p2align	3                               @ -- Begin function rt_serial_init
	.type	rt_serial_init,%function
	.code	16                              @ @rt_serial_init
	.thumb_func
rt_serial_init:
.Lfunc_begin1:
	.loc	10 552 0 is_stmt 1              @ rt-thread/components/drivers/serial/serial.c:552:0
	.fnstart
	.cfi_startproc
@ %bb.0:
	.save	{r7, lr}
	push	{r7, lr}
	.cfi_def_cfa_offset 8
	.cfi_offset lr, -4
	.cfi_offset r7, -8
	.pad	#16
	sub	sp, #16
	.cfi_def_cfa_offset 24
	str	r0, [sp, #12]
	movs	r0, #0
.Ltmp5:
	.loc	10 553 14 prologue_end          @ rt-thread/components/drivers/serial/serial.c:553:14
	str	r0, [sp, #8]
.Ltmp6:
	.loc	10 556 5                        @ rt-thread/components/drivers/serial/serial.c:556:5
	ldr	r0, [sp, #12]
.Ltmp7:
	.loc	10 556 5 is_stmt 0              @ rt-thread/components/drivers/serial/serial.c:556:5
	cbnz	r0, .LBB1_2
	b	.LBB1_1
.LBB1_1:
.Ltmp8:
	.loc	10 556 5                        @ rt-thread/components/drivers/serial/serial.c:556:5
	movw	r0, :lower16:.L.str.2
	movt	r0, :upper16:.L.str.2
	movw	r1, :lower16:.L__FUNCTION__.rt_serial_init
	movt	r1, :upper16:.L__FUNCTION__.rt_serial_init
	mov.w	r2, #556
	bl	rt_assert_handler
	b	.LBB1_2
.Ltmp9:
.LBB1_2:
	.loc	10 557 41 is_stmt 1             @ rt-thread/components/drivers/serial/serial.c:557:41
	ldr	r0, [sp, #12]
	.loc	10 557 12 is_stmt 0             @ rt-thread/components/drivers/serial/serial.c:557:12
	str	r0, [sp, #4]
	.loc	10 560 5 is_stmt 1              @ rt-thread/components/drivers/serial/serial.c:560:5
	ldr	r1, [sp, #4]
	movs	r0, #0
	.loc	10 560 23 is_stmt 0             @ rt-thread/components/drivers/serial/serial.c:560:23
	str	r0, [r1, #92]
	.loc	10 561 5 is_stmt 1              @ rt-thread/components/drivers/serial/serial.c:561:5
	ldr	r1, [sp, #4]
	.loc	10 561 23 is_stmt 0             @ rt-thread/components/drivers/serial/serial.c:561:23
	str	r0, [r1, #96]
.Ltmp10:
	.loc	10 564 9 is_stmt 1              @ rt-thread/components/drivers/serial/serial.c:564:9
	ldr	r0, [sp, #4]
	.loc	10 564 17 is_stmt 0             @ rt-thread/components/drivers/serial/serial.c:564:17
	ldr	r0, [r0, #80]
	.loc	10 564 22                       @ rt-thread/components/drivers/serial/serial.c:564:22
	ldr	r0, [r0]
.Ltmp11:
	.loc	10 564 9                        @ rt-thread/components/drivers/serial/serial.c:564:9
	cbz	r0, .LBB1_4
	b	.LBB1_3
.LBB1_3:
.Ltmp12:
	.loc	10 565 18 is_stmt 1             @ rt-thread/components/drivers/serial/serial.c:565:18
	ldr	r0, [sp, #4]
	.loc	10 565 26 is_stmt 0             @ rt-thread/components/drivers/serial/serial.c:565:26
	ldr	r1, [r0, #80]
	.loc	10 565 31                       @ rt-thread/components/drivers/serial/serial.c:565:31
	ldr	r2, [r1]
	.loc	10 565 58                       @ rt-thread/components/drivers/serial/serial.c:565:58
	add.w	r1, r0, #84
	.loc	10 565 18                       @ rt-thread/components/drivers/serial/serial.c:565:18
	blx	r2
	.loc	10 565 16                       @ rt-thread/components/drivers/serial/serial.c:565:16
	str	r0, [sp, #8]
	.loc	10 565 9                        @ rt-thread/components/drivers/serial/serial.c:565:9
	b	.LBB1_4
.Ltmp13:
.LBB1_4:
	.loc	10 567 12 is_stmt 1             @ rt-thread/components/drivers/serial/serial.c:567:12
	ldr	r0, [sp, #8]
	.loc	10 567 5 is_stmt 0              @ rt-thread/components/drivers/serial/serial.c:567:5
	add	sp, #16
	pop	{r7, pc}
.Ltmp14:
.Lfunc_end1:
	.size	rt_serial_init, .Lfunc_end1-rt_serial_init
	.cfi_endproc
	.cantunwind
	.fnend
                                        @ -- End function
	.section	.text.rt_serial_open,"ax",%progbits
	.p2align	3                               @ -- Begin function rt_serial_open
	.type	rt_serial_open,%function
	.code	16                              @ @rt_serial_open
	.thumb_func
rt_serial_open:
.Lfunc_begin2:
	.loc	10 571 0 is_stmt 1              @ rt-thread/components/drivers/serial/serial.c:571:0
	.fnstart
	.cfi_startproc
@ %bb.0:
	.save	{r7, lr}
	push	{r7, lr}
	.cfi_def_cfa_offset 8
	.cfi_offset lr, -4
	.cfi_offset r7, -8
	.pad	#32
	sub	sp, #32
	.cfi_def_cfa_offset 40
                                        @ kill: def $r2 killed $r1
	str	r0, [sp, #24]
	strh.w	r1, [sp, #22]
	movs	r0, #0
.Ltmp15:
	.loc	10 572 17 prologue_end          @ rt-thread/components/drivers/serial/serial.c:572:17
	strh.w	r0, [sp, #20]
.Ltmp16:
	.loc	10 575 5                        @ rt-thread/components/drivers/serial/serial.c:575:5
	ldr	r0, [sp, #24]
.Ltmp17:
	.loc	10 575 5 is_stmt 0              @ rt-thread/components/drivers/serial/serial.c:575:5
	cbnz	r0, .LBB2_2
	b	.LBB2_1
.LBB2_1:
.Ltmp18:
	.loc	10 575 5                        @ rt-thread/components/drivers/serial/serial.c:575:5
	movw	r0, :lower16:.L.str.2
	movt	r0, :upper16:.L.str.2
	movw	r1, :lower16:.L__FUNCTION__.rt_serial_open
	movt	r1, :upper16:.L__FUNCTION__.rt_serial_open
	movw	r2, #575
	bl	rt_assert_handler
	b	.LBB2_2
.Ltmp19:
.LBB2_2:
	.loc	10 576 41 is_stmt 1             @ rt-thread/components/drivers/serial/serial.c:576:41
	ldr	r0, [sp, #24]
	.loc	10 576 12 is_stmt 0             @ rt-thread/components/drivers/serial/serial.c:576:12
	str	r0, [sp, #16]
.Ltmp20:
	.loc	10 581 10 is_stmt 1             @ rt-thread/components/drivers/serial/serial.c:581:10
	ldrh.w	r0, [sp, #22]
	.loc	10 581 41 is_stmt 0             @ rt-thread/components/drivers/serial/serial.c:581:41
	lsls	r0, r0, #22
	cmp	r0, #0
	bpl	.LBB2_5
	b	.LBB2_3
.LBB2_3:
	.loc	10 581 46                       @ rt-thread/components/drivers/serial/serial.c:581:46
	ldr	r0, [sp, #24]
	ldrh	r0, [r0, #22]
.Ltmp21:
	.loc	10 581 9                        @ rt-thread/components/drivers/serial/serial.c:581:9
	lsls	r0, r0, #22
	cmp	r0, #0
	bmi	.LBB2_5
	b	.LBB2_4
.LBB2_4:
	.loc	10 0 9                          @ rt-thread/components/drivers/serial/serial.c:0:9
	mvn	r0, #7
.Ltmp22:
	.loc	10 582 9 is_stmt 1              @ rt-thread/components/drivers/serial/serial.c:582:9
	str	r0, [sp, #28]
	b	.LBB2_38
.Ltmp23:
.LBB2_5:
	.loc	10 583 10                       @ rt-thread/components/drivers/serial/serial.c:583:10
	ldrh.w	r0, [sp, #22]
	.loc	10 583 41 is_stmt 0             @ rt-thread/components/drivers/serial/serial.c:583:41
	lsls	r0, r0, #20
	cmp	r0, #0
	bpl	.LBB2_8
	b	.LBB2_6
.LBB2_6:
	.loc	10 583 46                       @ rt-thread/components/drivers/serial/serial.c:583:46
	ldr	r0, [sp, #24]
	ldrh	r0, [r0, #22]
.Ltmp24:
	.loc	10 583 9                        @ rt-thread/components/drivers/serial/serial.c:583:9
	lsls	r0, r0, #20
	cmp	r0, #0
	bmi	.LBB2_8
	b	.LBB2_7
.LBB2_7:
	.loc	10 0 9                          @ rt-thread/components/drivers/serial/serial.c:0:9
	mvn	r0, #7
.Ltmp25:
	.loc	10 584 9 is_stmt 1              @ rt-thread/components/drivers/serial/serial.c:584:9
	str	r0, [sp, #28]
	b	.LBB2_38
.Ltmp26:
.LBB2_8:
	.loc	10 585 10                       @ rt-thread/components/drivers/serial/serial.c:585:10
	ldrh.w	r0, [sp, #22]
	.loc	10 585 41 is_stmt 0             @ rt-thread/components/drivers/serial/serial.c:585:41
	lsls	r0, r0, #23
	cmp	r0, #0
	bpl	.LBB2_11
	b	.LBB2_9
.LBB2_9:
	.loc	10 585 46                       @ rt-thread/components/drivers/serial/serial.c:585:46
	ldr	r0, [sp, #24]
	ldrh	r0, [r0, #22]
.Ltmp27:
	.loc	10 585 9                        @ rt-thread/components/drivers/serial/serial.c:585:9
	lsls	r0, r0, #23
	cmp	r0, #0
	bmi	.LBB2_11
	b	.LBB2_10
.LBB2_10:
	.loc	10 0 9                          @ rt-thread/components/drivers/serial/serial.c:0:9
	mvn	r0, #7
.Ltmp28:
	.loc	10 586 9 is_stmt 1              @ rt-thread/components/drivers/serial/serial.c:586:9
	str	r0, [sp, #28]
	b	.LBB2_38
.Ltmp29:
.LBB2_11:
	.loc	10 587 10                       @ rt-thread/components/drivers/serial/serial.c:587:10
	ldrh.w	r0, [sp, #22]
	.loc	10 587 41 is_stmt 0             @ rt-thread/components/drivers/serial/serial.c:587:41
	lsls	r0, r0, #21
	cmp	r0, #0
	bpl	.LBB2_14
	b	.LBB2_12
.LBB2_12:
	.loc	10 587 46                       @ rt-thread/components/drivers/serial/serial.c:587:46
	ldr	r0, [sp, #24]
	ldrh	r0, [r0, #22]
.Ltmp30:
	.loc	10 587 9                        @ rt-thread/components/drivers/serial/serial.c:587:9
	lsls	r0, r0, #21
	cmp	r0, #0
	bmi	.LBB2_14
	b	.LBB2_13
.LBB2_13:
	.loc	10 0 9                          @ rt-thread/components/drivers/serial/serial.c:0:9
	mvn	r0, #7
.Ltmp31:
	.loc	10 588 9 is_stmt 1              @ rt-thread/components/drivers/serial/serial.c:588:9
	str	r0, [sp, #28]
	b	.LBB2_38
.Ltmp32:
.LBB2_14:
	.loc	10 591 10                       @ rt-thread/components/drivers/serial/serial.c:591:10
	ldrh.w	r0, [sp, #22]
	.loc	10 591 41 is_stmt 0             @ rt-thread/components/drivers/serial/serial.c:591:41
	lsls	r0, r0, #25
	cmp	r0, #0
	bmi	.LBB2_16
	b	.LBB2_15
.LBB2_15:
	.loc	10 591 45                       @ rt-thread/components/drivers/serial/serial.c:591:45
	ldr	r0, [sp, #24]
	ldrh	r0, [r0, #24]
.Ltmp33:
	.loc	10 591 9                        @ rt-thread/components/drivers/serial/serial.c:591:9
	lsls	r0, r0, #25
	cmp	r0, #0
	bpl	.LBB2_17
	b	.LBB2_16
.LBB2_16:
	.loc	10 0 9                          @ rt-thread/components/drivers/serial/serial.c:0:9
	movs	r0, #64
.Ltmp34:
	.loc	10 592 21 is_stmt 1             @ rt-thread/components/drivers/serial/serial.c:592:21
	strh.w	r0, [sp, #20]
	.loc	10 592 9 is_stmt 0              @ rt-thread/components/drivers/serial/serial.c:592:9
	b	.LBB2_17
.Ltmp35:
.LBB2_17:
	.loc	10 595 22 is_stmt 1             @ rt-thread/components/drivers/serial/serial.c:595:22
	ldrb.w	r0, [sp, #22]
	.loc	10 595 5 is_stmt 0              @ rt-thread/components/drivers/serial/serial.c:595:5
	ldr	r1, [sp, #24]
	.loc	10 595 20                       @ rt-thread/components/drivers/serial/serial.c:595:20
	strh	r0, [r1, #24]
.Ltmp36:
	.loc	10 598 9 is_stmt 1              @ rt-thread/components/drivers/serial/serial.c:598:9
	ldr	r0, [sp, #16]
	.loc	10 598 17 is_stmt 0             @ rt-thread/components/drivers/serial/serial.c:598:17
	ldr	r0, [r0, #92]
.Ltmp37:
	.loc	10 598 9                        @ rt-thread/components/drivers/serial/serial.c:598:9
	cmp	r0, #0
	bne	.LBB2_24
	b	.LBB2_18
.LBB2_18:
.Ltmp38:
	.loc	10 600 13 is_stmt 1             @ rt-thread/components/drivers/serial/serial.c:600:13
	ldrh.w	r0, [sp, #22]
.Ltmp39:
	.loc	10 600 13 is_stmt 0             @ rt-thread/components/drivers/serial/serial.c:600:13
	lsls	r0, r0, #23
	cmp	r0, #0
	bpl	.LBB2_22
	b	.LBB2_19
.LBB2_19:
.Ltmp40:
	.loc	10 605 17 is_stmt 1             @ rt-thread/components/drivers/serial/serial.c:605:17
	ldr	r0, [sp, #16]
	.loc	10 605 32 is_stmt 0             @ rt-thread/components/drivers/serial/serial.c:605:32
	ldrb.w	r1, [r0, #91]
	ldrh.w	r0, [r0, #89]
	orr.w	r0, r0, r1, lsl #16
	lsrs	r1, r0, #2
	movs	r0, #12
	.loc	10 604 95 is_stmt 1             @ rt-thread/components/drivers/serial/serial.c:604:95
	uxtah	r0, r0, r1
	.loc	10 604 51 is_stmt 0             @ rt-thread/components/drivers/serial/serial.c:604:51
	bl	rt_malloc
	.loc	10 604 21                       @ rt-thread/components/drivers/serial/serial.c:604:21
	str	r0, [sp, #12]
.Ltmp41:
	.loc	10 606 13 is_stmt 1             @ rt-thread/components/drivers/serial/serial.c:606:13
	ldr	r0, [sp, #12]
.Ltmp42:
	.loc	10 606 13 is_stmt 0             @ rt-thread/components/drivers/serial/serial.c:606:13
	cbnz	r0, .LBB2_21
	b	.LBB2_20
.LBB2_20:
.Ltmp43:
	.loc	10 606 13                       @ rt-thread/components/drivers/serial/serial.c:606:13
	movw	r0, :lower16:.L.str.1
	movt	r0, :upper16:.L.str.1
	movw	r1, :lower16:.L__FUNCTION__.rt_serial_open
	movt	r1, :upper16:.L__FUNCTION__.rt_serial_open
	movw	r2, #606
	bl	rt_assert_handler
	b	.LBB2_21
.Ltmp44:
.LBB2_21:
	.loc	10 607 46 is_stmt 1             @ rt-thread/components/drivers/serial/serial.c:607:46
	ldr	r1, [sp, #12]
	.loc	10 607 54 is_stmt 0             @ rt-thread/components/drivers/serial/serial.c:607:54
	add.w	r0, r1, #12
	.loc	10 607 29                       @ rt-thread/components/drivers/serial/serial.c:607:29
	str	r0, [r1]
	.loc	10 608 23 is_stmt 1             @ rt-thread/components/drivers/serial/serial.c:608:23
	ldr	r0, [sp, #12]
	.loc	10 608 32 is_stmt 0             @ rt-thread/components/drivers/serial/serial.c:608:32
	ldr	r0, [r0]
	.loc	10 608 43                       @ rt-thread/components/drivers/serial/serial.c:608:43
	ldr	r1, [sp, #16]
	.loc	10 608 58                       @ rt-thread/components/drivers/serial/serial.c:608:58
	ldrb.w	r2, [r1, #91]
	ldrh.w	r1, [r1, #89]
	orr.w	r1, r1, r2, lsl #16
	ubfx	r2, r1, #2, #16
	movs	r1, #0
	.loc	10 608 13                       @ rt-thread/components/drivers/serial/serial.c:608:13
	str	r1, [sp, #4]                    @ 4-byte Spill
	bl	rt_memset
                                        @ kill: def $r1 killed $r0
	.loc	10 609 13 is_stmt 1             @ rt-thread/components/drivers/serial/serial.c:609:13
	ldr	r0, [sp, #4]                    @ 4-byte Reload
	ldr	r1, [sp, #12]
	.loc	10 609 32 is_stmt 0             @ rt-thread/components/drivers/serial/serial.c:609:32
	strh	r0, [r1, #4]
	.loc	10 610 13 is_stmt 1             @ rt-thread/components/drivers/serial/serial.c:610:13
	ldr	r1, [sp, #12]
	.loc	10 610 32 is_stmt 0             @ rt-thread/components/drivers/serial/serial.c:610:32
	strh	r0, [r1, #6]
	.loc	10 611 13 is_stmt 1             @ rt-thread/components/drivers/serial/serial.c:611:13
	ldr	r1, [sp, #12]
	.loc	10 611 30 is_stmt 0             @ rt-thread/components/drivers/serial/serial.c:611:30
	str	r0, [r1, #8]
	.loc	10 613 33 is_stmt 1             @ rt-thread/components/drivers/serial/serial.c:613:33
	ldr	r0, [sp, #12]
	.loc	10 613 13 is_stmt 0             @ rt-thread/components/drivers/serial/serial.c:613:13
	ldr	r1, [sp, #16]
	.loc	10 613 31                       @ rt-thread/components/drivers/serial/serial.c:613:31
	str	r0, [r1, #92]
	.loc	10 614 13 is_stmt 1             @ rt-thread/components/drivers/serial/serial.c:614:13
	ldr	r1, [sp, #24]
	.loc	10 614 28 is_stmt 0             @ rt-thread/components/drivers/serial/serial.c:614:28
	ldrh	r0, [r1, #24]
	orr	r0, r0, #256
	strh	r0, [r1, #24]
	.loc	10 616 13 is_stmt 1             @ rt-thread/components/drivers/serial/serial.c:616:13
	ldr	r0, [sp, #16]
	.loc	10 616 21 is_stmt 0             @ rt-thread/components/drivers/serial/serial.c:616:21
	ldr	r1, [r0, #80]
	.loc	10 616 26                       @ rt-thread/components/drivers/serial/serial.c:616:26
	ldr	r3, [r1, #4]
	movs	r1, #16
	mov.w	r2, #256
	.loc	10 616 13                       @ rt-thread/components/drivers/serial/serial.c:616:13
	blx	r3
	.loc	10 617 9 is_stmt 1              @ rt-thread/components/drivers/serial/serial.c:617:9
	b	.LBB2_23
.Ltmp45:
.LBB2_22:
	.loc	10 649 13                       @ rt-thread/components/drivers/serial/serial.c:649:13
	ldr	r1, [sp, #16]
	movs	r0, #0
	.loc	10 649 31 is_stmt 0             @ rt-thread/components/drivers/serial/serial.c:649:31
	str	r0, [r1, #92]
	b	.LBB2_23
.Ltmp46:
.LBB2_23:
	.loc	10 651 5 is_stmt 1              @ rt-thread/components/drivers/serial/serial.c:651:5
	b	.LBB2_27
.Ltmp47:
.LBB2_24:
	.loc	10 654 13                       @ rt-thread/components/drivers/serial/serial.c:654:13
	ldrh.w	r0, [sp, #22]
.Ltmp48:
	.loc	10 654 13 is_stmt 0             @ rt-thread/components/drivers/serial/serial.c:654:13
	lsls	r0, r0, #23
	cmp	r0, #0
	bpl	.LBB2_26
	b	.LBB2_25
.LBB2_25:
.Ltmp49:
	.loc	10 655 13 is_stmt 1             @ rt-thread/components/drivers/serial/serial.c:655:13
	ldr	r1, [sp, #24]
	.loc	10 655 28 is_stmt 0             @ rt-thread/components/drivers/serial/serial.c:655:28
	ldrh	r0, [r1, #24]
	orr	r0, r0, #256
	strh	r0, [r1, #24]
	.loc	10 655 13                       @ rt-thread/components/drivers/serial/serial.c:655:13
	b	.LBB2_26
.Ltmp50:
.LBB2_26:
	.loc	10 0 13                         @ rt-thread/components/drivers/serial/serial.c:0:13
	b	.LBB2_27
.LBB2_27:
.Ltmp51:
	.loc	10 662 9 is_stmt 1              @ rt-thread/components/drivers/serial/serial.c:662:9
	ldr	r0, [sp, #16]
	.loc	10 662 17 is_stmt 0             @ rt-thread/components/drivers/serial/serial.c:662:17
	ldr	r0, [r0, #96]
.Ltmp52:
	.loc	10 662 9                        @ rt-thread/components/drivers/serial/serial.c:662:9
	cbnz	r0, .LBB2_34
	b	.LBB2_28
.LBB2_28:
.Ltmp53:
	.loc	10 664 13 is_stmt 1             @ rt-thread/components/drivers/serial/serial.c:664:13
	ldrh.w	r0, [sp, #22]
.Ltmp54:
	.loc	10 664 13 is_stmt 0             @ rt-thread/components/drivers/serial/serial.c:664:13
	lsls	r0, r0, #21
	cmp	r0, #0
	bpl	.LBB2_32
	b	.LBB2_29
.LBB2_29:
	.loc	10 0 13                         @ rt-thread/components/drivers/serial/serial.c:0:13
	movs	r0, #12
.Ltmp55:
	.loc	10 668 51 is_stmt 1             @ rt-thread/components/drivers/serial/serial.c:668:51
	bl	rt_malloc
	.loc	10 668 21 is_stmt 0             @ rt-thread/components/drivers/serial/serial.c:668:21
	str	r0, [sp, #8]
.Ltmp56:
	.loc	10 669 13 is_stmt 1             @ rt-thread/components/drivers/serial/serial.c:669:13
	ldr	r0, [sp, #8]
.Ltmp57:
	.loc	10 669 13 is_stmt 0             @ rt-thread/components/drivers/serial/serial.c:669:13
	cbnz	r0, .LBB2_31
	b	.LBB2_30
.LBB2_30:
.Ltmp58:
	.loc	10 669 13                       @ rt-thread/components/drivers/serial/serial.c:669:13
	movw	r0, :lower16:.L.str.3
	movt	r0, :upper16:.L.str.3
	movw	r1, :lower16:.L__FUNCTION__.rt_serial_open
	movt	r1, :upper16:.L__FUNCTION__.rt_serial_open
	movw	r2, #669
	bl	rt_assert_handler
	b	.LBB2_31
.Ltmp59:
.LBB2_31:
	.loc	10 671 34 is_stmt 1             @ rt-thread/components/drivers/serial/serial.c:671:34
	ldr	r0, [sp, #8]
	.loc	10 671 13 is_stmt 0             @ rt-thread/components/drivers/serial/serial.c:671:13
	bl	rt_completion_init
	.loc	10 672 33 is_stmt 1             @ rt-thread/components/drivers/serial/serial.c:672:33
	ldr	r0, [sp, #8]
	.loc	10 672 13 is_stmt 0             @ rt-thread/components/drivers/serial/serial.c:672:13
	ldr	r1, [sp, #16]
	.loc	10 672 31                       @ rt-thread/components/drivers/serial/serial.c:672:31
	str	r0, [r1, #96]
	.loc	10 674 13 is_stmt 1             @ rt-thread/components/drivers/serial/serial.c:674:13
	ldr	r1, [sp, #24]
	.loc	10 674 28 is_stmt 0             @ rt-thread/components/drivers/serial/serial.c:674:28
	ldrh	r0, [r1, #24]
	orr	r0, r0, #1024
	strh	r0, [r1, #24]
	.loc	10 676 13 is_stmt 1             @ rt-thread/components/drivers/serial/serial.c:676:13
	ldr	r0, [sp, #16]
	.loc	10 676 21 is_stmt 0             @ rt-thread/components/drivers/serial/serial.c:676:21
	ldr	r1, [r0, #80]
	.loc	10 676 26                       @ rt-thread/components/drivers/serial/serial.c:676:26
	ldr	r3, [r1, #4]
	movs	r1, #16
	mov.w	r2, #1024
	.loc	10 676 13                       @ rt-thread/components/drivers/serial/serial.c:676:13
	blx	r3
	.loc	10 677 9 is_stmt 1              @ rt-thread/components/drivers/serial/serial.c:677:9
	b	.LBB2_33
.Ltmp60:
.LBB2_32:
	.loc	10 697 13                       @ rt-thread/components/drivers/serial/serial.c:697:13
	ldr	r1, [sp, #16]
	movs	r0, #0
	.loc	10 697 31 is_stmt 0             @ rt-thread/components/drivers/serial/serial.c:697:31
	str	r0, [r1, #96]
	b	.LBB2_33
.Ltmp61:
.LBB2_33:
	.loc	10 699 5 is_stmt 1              @ rt-thread/components/drivers/serial/serial.c:699:5
	b	.LBB2_37
.Ltmp62:
.LBB2_34:
	.loc	10 702 13                       @ rt-thread/components/drivers/serial/serial.c:702:13
	ldrh.w	r0, [sp, #22]
.Ltmp63:
	.loc	10 702 13 is_stmt 0             @ rt-thread/components/drivers/serial/serial.c:702:13
	lsls	r0, r0, #21
	cmp	r0, #0
	bpl	.LBB2_36
	b	.LBB2_35
.LBB2_35:
.Ltmp64:
	.loc	10 703 13 is_stmt 1             @ rt-thread/components/drivers/serial/serial.c:703:13
	ldr	r1, [sp, #24]
	.loc	10 703 28 is_stmt 0             @ rt-thread/components/drivers/serial/serial.c:703:28
	ldrh	r0, [r1, #24]
	orr	r0, r0, #1024
	strh	r0, [r1, #24]
	.loc	10 703 13                       @ rt-thread/components/drivers/serial/serial.c:703:13
	b	.LBB2_36
.Ltmp65:
.LBB2_36:
	.loc	10 0 13                         @ rt-thread/components/drivers/serial/serial.c:0:13
	b	.LBB2_37
.LBB2_37:
	.loc	10 711 23 is_stmt 1             @ rt-thread/components/drivers/serial/serial.c:711:23
	ldrh.w	r2, [sp, #20]
	.loc	10 711 5 is_stmt 0              @ rt-thread/components/drivers/serial/serial.c:711:5
	ldr	r1, [sp, #24]
	.loc	10 711 20                       @ rt-thread/components/drivers/serial/serial.c:711:20
	ldrh	r0, [r1, #24]
	orrs	r0, r2
	strh	r0, [r1, #24]
	movs	r0, #0
	.loc	10 713 5 is_stmt 1              @ rt-thread/components/drivers/serial/serial.c:713:5
	str	r0, [sp, #28]
	b	.LBB2_38
.LBB2_38:
	.loc	10 714 1                        @ rt-thread/components/drivers/serial/serial.c:714:1
	ldr	r0, [sp, #28]
	add	sp, #32
	pop	{r7, pc}
.Ltmp66:
.Lfunc_end2:
	.size	rt_serial_open, .Lfunc_end2-rt_serial_open
	.cfi_endproc
	.cantunwind
	.fnend
                                        @ -- End function
	.section	.text.rt_serial_close,"ax",%progbits
	.p2align	3                               @ -- Begin function rt_serial_close
	.type	rt_serial_close,%function
	.code	16                              @ @rt_serial_close
	.thumb_func
rt_serial_close:
.Lfunc_begin3:
	.loc	10 717 0                        @ rt-thread/components/drivers/serial/serial.c:717:0
	.fnstart
	.cfi_startproc
@ %bb.0:
	.save	{r7, lr}
	push	{r7, lr}
	.cfi_def_cfa_offset 8
	.cfi_offset lr, -4
	.cfi_offset r7, -8
	.pad	#24
	sub	sp, #24
	.cfi_def_cfa_offset 32
	str	r0, [sp, #16]
.Ltmp67:
	.loc	10 720 5 prologue_end           @ rt-thread/components/drivers/serial/serial.c:720:5
	ldr	r0, [sp, #16]
.Ltmp68:
	.loc	10 720 5 is_stmt 0              @ rt-thread/components/drivers/serial/serial.c:720:5
	cbnz	r0, .LBB3_2
	b	.LBB3_1
.LBB3_1:
.Ltmp69:
	.loc	10 720 5                        @ rt-thread/components/drivers/serial/serial.c:720:5
	movw	r0, :lower16:.L.str.2
	movt	r0, :upper16:.L.str.2
	movw	r1, :lower16:.L__FUNCTION__.rt_serial_close
	movt	r1, :upper16:.L__FUNCTION__.rt_serial_close
	mov.w	r2, #720
	bl	rt_assert_handler
	b	.LBB3_2
.Ltmp70:
.LBB3_2:
	.loc	10 721 41 is_stmt 1             @ rt-thread/components/drivers/serial/serial.c:721:41
	ldr	r0, [sp, #16]
	.loc	10 721 12 is_stmt 0             @ rt-thread/components/drivers/serial/serial.c:721:12
	str	r0, [sp, #12]
.Ltmp71:
	.loc	10 724 9 is_stmt 1              @ rt-thread/components/drivers/serial/serial.c:724:9
	ldr	r0, [sp, #16]
	.loc	10 724 14 is_stmt 0             @ rt-thread/components/drivers/serial/serial.c:724:14
	ldrb	r0, [r0, #26]
.Ltmp72:
	.loc	10 724 9                        @ rt-thread/components/drivers/serial/serial.c:724:9
	cmp	r0, #2
	blt	.LBB3_4
	b	.LBB3_3
.LBB3_3:
	.loc	10 0 9                          @ rt-thread/components/drivers/serial/serial.c:0:9
	movs	r0, #0
.Ltmp73:
	.loc	10 724 29                       @ rt-thread/components/drivers/serial/serial.c:724:29
	str	r0, [sp, #20]
	b	.LBB3_13
.Ltmp74:
.LBB3_4:
	.loc	10 726 9 is_stmt 1              @ rt-thread/components/drivers/serial/serial.c:726:9
	ldr	r0, [sp, #16]
	ldrh	r0, [r0, #24]
.Ltmp75:
	.loc	10 726 9 is_stmt 0              @ rt-thread/components/drivers/serial/serial.c:726:9
	lsls	r0, r0, #23
	cmp	r0, #0
	bpl	.LBB3_8
	b	.LBB3_5
.LBB3_5:
.Ltmp76:
	.loc	10 730 46 is_stmt 1             @ rt-thread/components/drivers/serial/serial.c:730:46
	ldr	r0, [sp, #12]
	.loc	10 730 54 is_stmt 0             @ rt-thread/components/drivers/serial/serial.c:730:54
	ldr	r0, [r0, #92]
	.loc	10 730 17                       @ rt-thread/components/drivers/serial/serial.c:730:17
	str	r0, [sp, #8]
.Ltmp77:
	.loc	10 731 9 is_stmt 1              @ rt-thread/components/drivers/serial/serial.c:731:9
	ldr	r0, [sp, #8]
.Ltmp78:
	.loc	10 731 9 is_stmt 0              @ rt-thread/components/drivers/serial/serial.c:731:9
	cbnz	r0, .LBB3_7
	b	.LBB3_6
.LBB3_6:
.Ltmp79:
	.loc	10 731 9                        @ rt-thread/components/drivers/serial/serial.c:731:9
	movw	r0, :lower16:.L.str.1
	movt	r0, :upper16:.L.str.1
	movw	r1, :lower16:.L__FUNCTION__.rt_serial_close
	movt	r1, :upper16:.L__FUNCTION__.rt_serial_close
	movw	r2, #731
	bl	rt_assert_handler
	b	.LBB3_7
.Ltmp80:
.LBB3_7:
	.loc	10 733 17 is_stmt 1             @ rt-thread/components/drivers/serial/serial.c:733:17
	ldr	r0, [sp, #8]
	.loc	10 733 9 is_stmt 0              @ rt-thread/components/drivers/serial/serial.c:733:9
	bl	rt_free
	.loc	10 734 9 is_stmt 1              @ rt-thread/components/drivers/serial/serial.c:734:9
	ldr	r1, [sp, #12]
	movs	r0, #0
	.loc	10 734 27 is_stmt 0             @ rt-thread/components/drivers/serial/serial.c:734:27
	str	r0, [r1, #92]
	.loc	10 735 9 is_stmt 1              @ rt-thread/components/drivers/serial/serial.c:735:9
	ldr	r1, [sp, #16]
	.loc	10 735 24 is_stmt 0             @ rt-thread/components/drivers/serial/serial.c:735:24
	ldrh	r0, [r1, #24]
	bic	r0, r0, #256
	strh	r0, [r1, #24]
	.loc	10 738 9 is_stmt 1              @ rt-thread/components/drivers/serial/serial.c:738:9
	ldr	r0, [sp, #12]
	.loc	10 738 17 is_stmt 0             @ rt-thread/components/drivers/serial/serial.c:738:17
	ldr	r1, [r0, #80]
	.loc	10 738 22                       @ rt-thread/components/drivers/serial/serial.c:738:22
	ldr	r3, [r1, #4]
	movs	r1, #17
	mov.w	r2, #256
	.loc	10 738 9                        @ rt-thread/components/drivers/serial/serial.c:738:9
	blx	r3
	.loc	10 739 5 is_stmt 1              @ rt-thread/components/drivers/serial/serial.c:739:5
	b	.LBB3_8
.Ltmp81:
.LBB3_8:
	.loc	10 766 9                        @ rt-thread/components/drivers/serial/serial.c:766:9
	ldr	r0, [sp, #16]
	ldrh	r0, [r0, #24]
.Ltmp82:
	.loc	10 766 9 is_stmt 0              @ rt-thread/components/drivers/serial/serial.c:766:9
	lsls	r0, r0, #21
	cmp	r0, #0
	bpl	.LBB3_12
	b	.LBB3_9
.LBB3_9:
.Ltmp83:
	.loc	10 770 46 is_stmt 1             @ rt-thread/components/drivers/serial/serial.c:770:46
	ldr	r0, [sp, #12]
	.loc	10 770 54 is_stmt 0             @ rt-thread/components/drivers/serial/serial.c:770:54
	ldr	r0, [r0, #96]
	.loc	10 770 17                       @ rt-thread/components/drivers/serial/serial.c:770:17
	str	r0, [sp, #4]
.Ltmp84:
	.loc	10 771 9 is_stmt 1              @ rt-thread/components/drivers/serial/serial.c:771:9
	ldr	r0, [sp, #4]
.Ltmp85:
	.loc	10 771 9 is_stmt 0              @ rt-thread/components/drivers/serial/serial.c:771:9
	cbnz	r0, .LBB3_11
	b	.LBB3_10
.LBB3_10:
.Ltmp86:
	.loc	10 771 9                        @ rt-thread/components/drivers/serial/serial.c:771:9
	movw	r0, :lower16:.L.str.3
	movt	r0, :upper16:.L.str.3
	movw	r1, :lower16:.L__FUNCTION__.rt_serial_close
	movt	r1, :upper16:.L__FUNCTION__.rt_serial_close
	movw	r2, #771
	bl	rt_assert_handler
	b	.LBB3_11
.Ltmp87:
.LBB3_11:
	.loc	10 773 17 is_stmt 1             @ rt-thread/components/drivers/serial/serial.c:773:17
	ldr	r0, [sp, #4]
	.loc	10 773 9 is_stmt 0              @ rt-thread/components/drivers/serial/serial.c:773:9
	bl	rt_free
	.loc	10 774 9 is_stmt 1              @ rt-thread/components/drivers/serial/serial.c:774:9
	ldr	r1, [sp, #12]
	movs	r0, #0
	.loc	10 774 27 is_stmt 0             @ rt-thread/components/drivers/serial/serial.c:774:27
	str	r0, [r1, #96]
	.loc	10 775 9 is_stmt 1              @ rt-thread/components/drivers/serial/serial.c:775:9
	ldr	r1, [sp, #16]
	.loc	10 775 24 is_stmt 0             @ rt-thread/components/drivers/serial/serial.c:775:24
	ldrh	r0, [r1, #24]
	bic	r0, r0, #1024
	strh	r0, [r1, #24]
	.loc	10 778 9 is_stmt 1              @ rt-thread/components/drivers/serial/serial.c:778:9
	ldr	r0, [sp, #12]
	.loc	10 778 17 is_stmt 0             @ rt-thread/components/drivers/serial/serial.c:778:17
	ldr	r1, [r0, #80]
	.loc	10 778 22                       @ rt-thread/components/drivers/serial/serial.c:778:22
	ldr	r3, [r1, #4]
	movs	r1, #17
	mov.w	r2, #1024
	.loc	10 778 9                        @ rt-thread/components/drivers/serial/serial.c:778:9
	blx	r3
	.loc	10 779 5 is_stmt 1              @ rt-thread/components/drivers/serial/serial.c:779:5
	b	.LBB3_12
.Ltmp88:
.LBB3_12:
	.loc	10 0 5 is_stmt 0                @ rt-thread/components/drivers/serial/serial.c:0:5
	movs	r0, #0
	.loc	10 802 5 is_stmt 1              @ rt-thread/components/drivers/serial/serial.c:802:5
	str	r0, [sp, #20]
	b	.LBB3_13
.LBB3_13:
	.loc	10 803 1                        @ rt-thread/components/drivers/serial/serial.c:803:1
	ldr	r0, [sp, #20]
	add	sp, #24
	pop	{r7, pc}
.Ltmp89:
.Lfunc_end3:
	.size	rt_serial_close, .Lfunc_end3-rt_serial_close
	.cfi_endproc
	.cantunwind
	.fnend
                                        @ -- End function
	.section	.text.rt_serial_read,"ax",%progbits
	.p2align	3                               @ -- Begin function rt_serial_read
	.type	rt_serial_read,%function
	.code	16                              @ @rt_serial_read
	.thumb_func
rt_serial_read:
.Lfunc_begin4:
	.loc	10 809 0                        @ rt-thread/components/drivers/serial/serial.c:809:0
	.fnstart
	.cfi_startproc
@ %bb.0:
	.save	{r7, lr}
	push	{r7, lr}
	.cfi_def_cfa_offset 8
	.cfi_offset lr, -4
	.cfi_offset r7, -8
	.pad	#24
	sub	sp, #24
	.cfi_def_cfa_offset 32
	str	r0, [sp, #16]
	str	r1, [sp, #12]
	str	r2, [sp, #8]
	str	r3, [sp, #4]
.Ltmp90:
	.loc	10 812 5 prologue_end           @ rt-thread/components/drivers/serial/serial.c:812:5
	ldr	r0, [sp, #16]
.Ltmp91:
	.loc	10 812 5 is_stmt 0              @ rt-thread/components/drivers/serial/serial.c:812:5
	cbnz	r0, .LBB4_2
	b	.LBB4_1
.LBB4_1:
.Ltmp92:
	.loc	10 812 5                        @ rt-thread/components/drivers/serial/serial.c:812:5
	movw	r0, :lower16:.L.str.2
	movt	r0, :upper16:.L.str.2
	movw	r1, :lower16:.L__FUNCTION__.rt_serial_read
	movt	r1, :upper16:.L__FUNCTION__.rt_serial_read
	mov.w	r2, #812
	bl	rt_assert_handler
	b	.LBB4_2
.Ltmp93:
.LBB4_2:
	.loc	10 813 9 is_stmt 1              @ rt-thread/components/drivers/serial/serial.c:813:9
	ldr	r0, [sp, #4]
.Ltmp94:
	.loc	10 813 9 is_stmt 0              @ rt-thread/components/drivers/serial/serial.c:813:9
	cbnz	r0, .LBB4_4
	b	.LBB4_3
.LBB4_3:
	.loc	10 0 9                          @ rt-thread/components/drivers/serial/serial.c:0:9
	movs	r0, #0
.Ltmp95:
	.loc	10 813 20                       @ rt-thread/components/drivers/serial/serial.c:813:20
	str	r0, [sp, #20]
	b	.LBB4_7
.Ltmp96:
.LBB4_4:
	.loc	10 815 41 is_stmt 1             @ rt-thread/components/drivers/serial/serial.c:815:41
	ldr	r0, [sp, #16]
	.loc	10 815 12 is_stmt 0             @ rt-thread/components/drivers/serial/serial.c:815:12
	str	r0, [sp]
.Ltmp97:
	.loc	10 817 9 is_stmt 1              @ rt-thread/components/drivers/serial/serial.c:817:9
	ldr	r0, [sp, #16]
	ldrh	r0, [r0, #24]
.Ltmp98:
	.loc	10 817 9 is_stmt 0              @ rt-thread/components/drivers/serial/serial.c:817:9
	lsls	r0, r0, #23
	cmp	r0, #0
	bpl	.LBB4_6
	b	.LBB4_5
.LBB4_5:
.Ltmp99:
	.loc	10 819 31 is_stmt 1             @ rt-thread/components/drivers/serial/serial.c:819:31
	ldr	r0, [sp]
	.loc	10 819 53 is_stmt 0             @ rt-thread/components/drivers/serial/serial.c:819:53
	ldr	r1, [sp, #8]
	.loc	10 819 61                       @ rt-thread/components/drivers/serial/serial.c:819:61
	ldr	r2, [sp, #4]
	.loc	10 819 16                       @ rt-thread/components/drivers/serial/serial.c:819:16
	bl	_serial_int_rx
	.loc	10 819 9                        @ rt-thread/components/drivers/serial/serial.c:819:9
	str	r0, [sp, #20]
	b	.LBB4_7
.Ltmp100:
.LBB4_6:
	.loc	10 828 28 is_stmt 1             @ rt-thread/components/drivers/serial/serial.c:828:28
	ldr	r0, [sp]
	.loc	10 828 50 is_stmt 0             @ rt-thread/components/drivers/serial/serial.c:828:50
	ldr	r1, [sp, #8]
	.loc	10 828 58                       @ rt-thread/components/drivers/serial/serial.c:828:58
	ldr	r2, [sp, #4]
	.loc	10 828 12                       @ rt-thread/components/drivers/serial/serial.c:828:12
	bl	_serial_poll_rx
	.loc	10 828 5                        @ rt-thread/components/drivers/serial/serial.c:828:5
	str	r0, [sp, #20]
	b	.LBB4_7
.LBB4_7:
	.loc	10 829 1 is_stmt 1              @ rt-thread/components/drivers/serial/serial.c:829:1
	ldr	r0, [sp, #20]
	add	sp, #24
	pop	{r7, pc}
.Ltmp101:
.Lfunc_end4:
	.size	rt_serial_read, .Lfunc_end4-rt_serial_read
	.cfi_endproc
	.cantunwind
	.fnend
                                        @ -- End function
	.section	.text.rt_serial_write,"ax",%progbits
	.p2align	3                               @ -- Begin function rt_serial_write
	.type	rt_serial_write,%function
	.code	16                              @ @rt_serial_write
	.thumb_func
rt_serial_write:
.Lfunc_begin5:
	.loc	10 835 0                        @ rt-thread/components/drivers/serial/serial.c:835:0
	.fnstart
	.cfi_startproc
@ %bb.0:
	.save	{r7, lr}
	push	{r7, lr}
	.cfi_def_cfa_offset 8
	.cfi_offset lr, -4
	.cfi_offset r7, -8
	.pad	#24
	sub	sp, #24
	.cfi_def_cfa_offset 32
	str	r0, [sp, #16]
	str	r1, [sp, #12]
	str	r2, [sp, #8]
	str	r3, [sp, #4]
.Ltmp102:
	.loc	10 838 5 prologue_end           @ rt-thread/components/drivers/serial/serial.c:838:5
	ldr	r0, [sp, #16]
.Ltmp103:
	.loc	10 838 5 is_stmt 0              @ rt-thread/components/drivers/serial/serial.c:838:5
	cbnz	r0, .LBB5_2
	b	.LBB5_1
.LBB5_1:
.Ltmp104:
	.loc	10 838 5                        @ rt-thread/components/drivers/serial/serial.c:838:5
	movw	r0, :lower16:.L.str.2
	movt	r0, :upper16:.L.str.2
	movw	r1, :lower16:.L__FUNCTION__.rt_serial_write
	movt	r1, :upper16:.L__FUNCTION__.rt_serial_write
	movw	r2, #838
	bl	rt_assert_handler
	b	.LBB5_2
.Ltmp105:
.LBB5_2:
	.loc	10 839 9 is_stmt 1              @ rt-thread/components/drivers/serial/serial.c:839:9
	ldr	r0, [sp, #4]
.Ltmp106:
	.loc	10 839 9 is_stmt 0              @ rt-thread/components/drivers/serial/serial.c:839:9
	cbnz	r0, .LBB5_4
	b	.LBB5_3
.LBB5_3:
	.loc	10 0 9                          @ rt-thread/components/drivers/serial/serial.c:0:9
	movs	r0, #0
.Ltmp107:
	.loc	10 839 20                       @ rt-thread/components/drivers/serial/serial.c:839:20
	str	r0, [sp, #20]
	b	.LBB5_7
.Ltmp108:
.LBB5_4:
	.loc	10 841 41 is_stmt 1             @ rt-thread/components/drivers/serial/serial.c:841:41
	ldr	r0, [sp, #16]
	.loc	10 841 12 is_stmt 0             @ rt-thread/components/drivers/serial/serial.c:841:12
	str	r0, [sp]
.Ltmp109:
	.loc	10 843 9 is_stmt 1              @ rt-thread/components/drivers/serial/serial.c:843:9
	ldr	r0, [sp, #16]
	ldrh	r0, [r0, #24]
.Ltmp110:
	.loc	10 843 9 is_stmt 0              @ rt-thread/components/drivers/serial/serial.c:843:9
	lsls	r0, r0, #21
	cmp	r0, #0
	bpl	.LBB5_6
	b	.LBB5_5
.LBB5_5:
.Ltmp111:
	.loc	10 845 31 is_stmt 1             @ rt-thread/components/drivers/serial/serial.c:845:31
	ldr	r0, [sp]
	.loc	10 845 59 is_stmt 0             @ rt-thread/components/drivers/serial/serial.c:845:59
	ldr	r1, [sp, #8]
	.loc	10 845 67                       @ rt-thread/components/drivers/serial/serial.c:845:67
	ldr	r2, [sp, #4]
	.loc	10 845 16                       @ rt-thread/components/drivers/serial/serial.c:845:16
	bl	_serial_int_tx
	.loc	10 845 9                        @ rt-thread/components/drivers/serial/serial.c:845:9
	str	r0, [sp, #20]
	b	.LBB5_7
.Ltmp112:
.LBB5_6:
	.loc	10 855 32 is_stmt 1             @ rt-thread/components/drivers/serial/serial.c:855:32
	ldr	r0, [sp]
	.loc	10 855 60 is_stmt 0             @ rt-thread/components/drivers/serial/serial.c:855:60
	ldr	r1, [sp, #8]
	.loc	10 855 68                       @ rt-thread/components/drivers/serial/serial.c:855:68
	ldr	r2, [sp, #4]
	.loc	10 855 16                       @ rt-thread/components/drivers/serial/serial.c:855:16
	bl	_serial_poll_tx
	.loc	10 855 9                        @ rt-thread/components/drivers/serial/serial.c:855:9
	str	r0, [sp, #20]
	b	.LBB5_7
.Ltmp113:
.LBB5_7:
	.loc	10 857 1 is_stmt 1              @ rt-thread/components/drivers/serial/serial.c:857:1
	ldr	r0, [sp, #20]
	add	sp, #24
	pop	{r7, pc}
.Ltmp114:
.Lfunc_end5:
	.size	rt_serial_write, .Lfunc_end5-rt_serial_write
	.cfi_endproc
	.cantunwind
	.fnend
                                        @ -- End function
	.section	.text.rt_serial_control,"ax",%progbits
	.p2align	3                               @ -- Begin function rt_serial_control
	.type	rt_serial_control,%function
	.code	16                              @ @rt_serial_control
	.thumb_func
rt_serial_control:
.Lfunc_begin6:
	.loc	10 959 0                        @ rt-thread/components/drivers/serial/serial.c:959:0
	.fnstart
	.cfi_startproc
@ %bb.0:
	.save	{r7, lr}
	push	{r7, lr}
	.cfi_def_cfa_offset 8
	.cfi_offset lr, -4
	.cfi_offset r7, -8
	.pad	#40
	sub	sp, #40
	.cfi_def_cfa_offset 48
	str	r0, [sp, #32]
	str	r1, [sp, #28]
	str	r2, [sp, #24]
	movs	r0, #0
.Ltmp115:
	.loc	10 960 14 prologue_end          @ rt-thread/components/drivers/serial/serial.c:960:14
	str	r0, [sp, #20]
.Ltmp116:
	.loc	10 963 5                        @ rt-thread/components/drivers/serial/serial.c:963:5
	ldr	r0, [sp, #32]
.Ltmp117:
	.loc	10 963 5 is_stmt 0              @ rt-thread/components/drivers/serial/serial.c:963:5
	cbnz	r0, .LBB6_2
	b	.LBB6_1
.LBB6_1:
.Ltmp118:
	.loc	10 963 5                        @ rt-thread/components/drivers/serial/serial.c:963:5
	movw	r0, :lower16:.L.str.2
	movt	r0, :upper16:.L.str.2
	movw	r1, :lower16:.L__FUNCTION__.rt_serial_control
	movt	r1, :upper16:.L__FUNCTION__.rt_serial_control
	movw	r2, #963
	bl	rt_assert_handler
	b	.LBB6_2
.Ltmp119:
.LBB6_2:
	.loc	10 964 41 is_stmt 1             @ rt-thread/components/drivers/serial/serial.c:964:41
	ldr	r0, [sp, #32]
	.loc	10 964 12 is_stmt 0             @ rt-thread/components/drivers/serial/serial.c:964:12
	str	r0, [sp, #16]
	.loc	10 966 13 is_stmt 1             @ rt-thread/components/drivers/serial/serial.c:966:13
	ldr	r0, [sp, #28]
	str	r0, [sp]                        @ 4-byte Spill
	movw	r1, #26239
	movt	r1, #32772
	.loc	10 966 5 is_stmt 0              @ rt-thread/components/drivers/serial/serial.c:966:5
	cmp	r0, r1
	beq	.LBB6_16
	b	.LBB6_3
.LBB6_3:
	ldr	r0, [sp]                        @ 4-byte Reload
	cmp	r0, #1
	beq	.LBB6_7
	b	.LBB6_4
.LBB6_4:
	ldr	r0, [sp]                        @ 4-byte Reload
	cmp	r0, #2
	beq	.LBB6_6
	b	.LBB6_5
.LBB6_5:
	ldr	r0, [sp]                        @ 4-byte Reload
	cmp	r0, #3
	beq	.LBB6_8
	b	.LBB6_17
.LBB6_6:
.Ltmp120:
	.loc	10 970 13 is_stmt 1             @ rt-thread/components/drivers/serial/serial.c:970:13
	ldr	r1, [sp, #32]
	.loc	10 970 23 is_stmt 0             @ rt-thread/components/drivers/serial/serial.c:970:23
	ldrh	r0, [r1, #22]
	orr	r0, r0, #32
	strh	r0, [r1, #22]
	.loc	10 971 13 is_stmt 1             @ rt-thread/components/drivers/serial/serial.c:971:13
	b	.LBB6_18
.LBB6_7:
	.loc	10 975 13                       @ rt-thread/components/drivers/serial/serial.c:975:13
	ldr	r1, [sp, #32]
	.loc	10 975 23 is_stmt 0             @ rt-thread/components/drivers/serial/serial.c:975:23
	ldrh	r0, [r1, #22]
	bic	r0, r0, #32
	strh	r0, [r1, #22]
	.loc	10 976 13 is_stmt 1             @ rt-thread/components/drivers/serial/serial.c:976:13
	b	.LBB6_18
.LBB6_8:
.Ltmp121:
	.loc	10 979 17                       @ rt-thread/components/drivers/serial/serial.c:979:17
	ldr	r0, [sp, #24]
.Ltmp122:
	.loc	10 979 17 is_stmt 0             @ rt-thread/components/drivers/serial/serial.c:979:17
	cbz	r0, .LBB6_15
	b	.LBB6_9
.LBB6_9:
.Ltmp123:
	.loc	10 981 80 is_stmt 1             @ rt-thread/components/drivers/serial/serial.c:981:80
	ldr	r0, [sp, #24]
	.loc	10 981 42 is_stmt 0             @ rt-thread/components/drivers/serial/serial.c:981:42
	str	r0, [sp, #12]
.Ltmp124:
	.loc	10 982 21 is_stmt 1             @ rt-thread/components/drivers/serial/serial.c:982:21
	ldr	r0, [sp, #12]
	.loc	10 982 30 is_stmt 0             @ rt-thread/components/drivers/serial/serial.c:982:30
	ldrb	r1, [r0, #7]
	ldrh.w	r0, [r0, #5]
	orr.w	r0, r0, r1, lsl #16
	ubfx	r0, r0, #2, #16
	.loc	10 982 39                       @ rt-thread/components/drivers/serial/serial.c:982:39
	ldr	r1, [sp, #16]
	.loc	10 982 54                       @ rt-thread/components/drivers/serial/serial.c:982:54
	ldrb.w	r2, [r1, #91]
	ldrh.w	r1, [r1, #89]
	orr.w	r1, r1, r2, lsl #16
	ubfx	r1, r1, #2, #16
	.loc	10 982 60                       @ rt-thread/components/drivers/serial/serial.c:982:60
	cmp	r0, r1
	beq	.LBB6_12
	b	.LBB6_10
.LBB6_10:
	.loc	10 982 63                       @ rt-thread/components/drivers/serial/serial.c:982:63
	ldr	r0, [sp, #16]
	.loc	10 982 78                       @ rt-thread/components/drivers/serial/serial.c:982:78
	ldrb	r0, [r0, #26]
.Ltmp125:
	.loc	10 982 21                       @ rt-thread/components/drivers/serial/serial.c:982:21
	cbz	r0, .LBB6_12
	b	.LBB6_11
.LBB6_11:
	.loc	10 0 21                         @ rt-thread/components/drivers/serial/serial.c:0:21
	movs	r0, #7
.Ltmp126:
	.loc	10 985 21 is_stmt 1             @ rt-thread/components/drivers/serial/serial.c:985:21
	str	r0, [sp, #36]
	b	.LBB6_19
.Ltmp127:
.LBB6_12:
	.loc	10 988 17                       @ rt-thread/components/drivers/serial/serial.c:988:17
	ldr	r1, [sp, #16]
	.loc	10 988 35 is_stmt 0             @ rt-thread/components/drivers/serial/serial.c:988:35
	ldr	r2, [sp, #12]
	.loc	10 988 34                       @ rt-thread/components/drivers/serial/serial.c:988:34
	ldr	r0, [r2]
	ldr	r2, [r2, #4]
	str	r2, [r1, #88]
	str	r0, [r1, #84]
.Ltmp128:
	.loc	10 989 21 is_stmt 1             @ rt-thread/components/drivers/serial/serial.c:989:21
	ldr	r0, [sp, #16]
	.loc	10 989 36 is_stmt 0             @ rt-thread/components/drivers/serial/serial.c:989:36
	ldrb	r0, [r0, #26]
.Ltmp129:
	.loc	10 989 21                       @ rt-thread/components/drivers/serial/serial.c:989:21
	cbz	r0, .LBB6_14
	b	.LBB6_13
.LBB6_13:
.Ltmp130:
	.loc	10 992 21 is_stmt 1             @ rt-thread/components/drivers/serial/serial.c:992:21
	ldr	r0, [sp, #16]
	.loc	10 992 29 is_stmt 0             @ rt-thread/components/drivers/serial/serial.c:992:29
	ldr	r1, [r0, #80]
	.loc	10 992 34                       @ rt-thread/components/drivers/serial/serial.c:992:34
	ldr	r2, [r1]
	.loc	10 992 80                       @ rt-thread/components/drivers/serial/serial.c:992:80
	ldr	r1, [sp, #24]
	.loc	10 992 21                       @ rt-thread/components/drivers/serial/serial.c:992:21
	blx	r2
	.loc	10 993 17 is_stmt 1             @ rt-thread/components/drivers/serial/serial.c:993:17
	b	.LBB6_14
.Ltmp131:
.LBB6_14:
	.loc	10 994 13                       @ rt-thread/components/drivers/serial/serial.c:994:13
	b	.LBB6_15
.Ltmp132:
.LBB6_15:
	.loc	10 996 13                       @ rt-thread/components/drivers/serial/serial.c:996:13
	b	.LBB6_18
.LBB6_16:
	.loc	10 0 13 is_stmt 0               @ rt-thread/components/drivers/serial/serial.c:0:13
	movs	r0, #0
.Ltmp133:
	.loc	10 1093 27 is_stmt 1            @ rt-thread/components/drivers/serial/serial.c:1093:27
	str	r0, [sp, #8]
	.loc	10 1096 25                      @ rt-thread/components/drivers/serial/serial.c:1096:25
	bl	rt_hw_interrupt_disable
	.loc	10 1096 23 is_stmt 0            @ rt-thread/components/drivers/serial/serial.c:1096:23
	str	r0, [sp, #4]
	.loc	10 1097 55 is_stmt 1            @ rt-thread/components/drivers/serial/serial.c:1097:55
	ldr	r0, [sp, #16]
	.loc	10 1097 26 is_stmt 0            @ rt-thread/components/drivers/serial/serial.c:1097:26
	bl	_serial_fifo_calc_recved_len
	.loc	10 1097 24                      @ rt-thread/components/drivers/serial/serial.c:1097:24
	str	r0, [sp, #8]
	.loc	10 1098 40 is_stmt 1            @ rt-thread/components/drivers/serial/serial.c:1098:40
	ldr	r0, [sp, #4]
	.loc	10 1098 17 is_stmt 0            @ rt-thread/components/drivers/serial/serial.c:1098:17
	bl	rt_hw_interrupt_enable
	.loc	10 1100 38 is_stmt 1            @ rt-thread/components/drivers/serial/serial.c:1100:38
	ldr	r0, [sp, #8]
	.loc	10 1100 31 is_stmt 0            @ rt-thread/components/drivers/serial/serial.c:1100:31
	ldr	r1, [sp, #24]
	.loc	10 1100 36                      @ rt-thread/components/drivers/serial/serial.c:1100:36
	str	r0, [r1]
.Ltmp134:
	.loc	10 1102 13 is_stmt 1            @ rt-thread/components/drivers/serial/serial.c:1102:13
	b	.LBB6_18
.LBB6_17:
	.loc	10 1106 19                      @ rt-thread/components/drivers/serial/serial.c:1106:19
	ldr	r0, [sp, #16]
	.loc	10 1106 27 is_stmt 0            @ rt-thread/components/drivers/serial/serial.c:1106:27
	ldr	r1, [r0, #80]
	.loc	10 1106 32                      @ rt-thread/components/drivers/serial/serial.c:1106:32
	ldr	r3, [r1, #4]
	.loc	10 1106 48                      @ rt-thread/components/drivers/serial/serial.c:1106:48
	ldr	r1, [sp, #28]
	.loc	10 1106 53                      @ rt-thread/components/drivers/serial/serial.c:1106:53
	ldr	r2, [sp, #24]
	.loc	10 1106 19                      @ rt-thread/components/drivers/serial/serial.c:1106:19
	blx	r3
	.loc	10 1106 17                      @ rt-thread/components/drivers/serial/serial.c:1106:17
	str	r0, [sp, #20]
	.loc	10 1107 13 is_stmt 1            @ rt-thread/components/drivers/serial/serial.c:1107:13
	b	.LBB6_18
.Ltmp135:
.LBB6_18:
	.loc	10 1110 12                      @ rt-thread/components/drivers/serial/serial.c:1110:12
	ldr	r0, [sp, #20]
	.loc	10 1110 5 is_stmt 0             @ rt-thread/components/drivers/serial/serial.c:1110:5
	str	r0, [sp, #36]
	b	.LBB6_19
.LBB6_19:
	.loc	10 1111 1 is_stmt 1             @ rt-thread/components/drivers/serial/serial.c:1111:1
	ldr	r0, [sp, #36]
	add	sp, #40
	pop	{r7, pc}
.Ltmp136:
.Lfunc_end6:
	.size	rt_serial_control, .Lfunc_end6-rt_serial_control
	.cfi_endproc
	.cantunwind
	.fnend
                                        @ -- End function
	.section	.text.rt_hw_serial_isr,"ax",%progbits
	.hidden	rt_hw_serial_isr                @ -- Begin function rt_hw_serial_isr
	.globl	rt_hw_serial_isr
	.p2align	3
	.type	rt_hw_serial_isr,%function
	.code	16                              @ @rt_hw_serial_isr
	.thumb_func
rt_hw_serial_isr:
.Lfunc_begin7:
	.loc	10 1168 0                       @ rt-thread/components/drivers/serial/serial.c:1168:0
	.fnstart
	.cfi_startproc
@ %bb.0:
	.save	{r7, lr}
	push	{r7, lr}
	.cfi_def_cfa_offset 8
	.cfi_offset lr, -4
	.cfi_offset r7, -8
	.pad	#40
	sub	sp, #40
	.cfi_def_cfa_offset 48
	str	r0, [sp, #36]
	str	r1, [sp, #32]
.Ltmp137:
	.loc	10 1169 13 prologue_end         @ rt-thread/components/drivers/serial/serial.c:1169:13
	ldrb.w	r0, [sp, #32]
	.loc	10 1169 5 is_stmt 0             @ rt-thread/components/drivers/serial/serial.c:1169:5
	mov	r1, r0
	str	r1, [sp, #8]                    @ 4-byte Spill
	cmp	r0, #1
	beq	.LBB7_2
	b	.LBB7_1
.LBB7_1:
	ldr	r0, [sp, #8]                    @ 4-byte Reload
	cmp	r0, #2
	beq.w	.LBB7_22
	b	.LBB7_23
.LBB7_2:
	.loc	10 0 5                          @ rt-thread/components/drivers/serial/serial.c:0:5
	mov.w	r0, #-1
.Ltmp138:
	.loc	10 1173 17 is_stmt 1            @ rt-thread/components/drivers/serial/serial.c:1173:17
	str	r0, [sp, #28]
	.loc	10 1178 50                      @ rt-thread/components/drivers/serial/serial.c:1178:50
	ldr	r0, [sp, #36]
	.loc	10 1178 58 is_stmt 0            @ rt-thread/components/drivers/serial/serial.c:1178:58
	ldr	r0, [r0, #92]
	.loc	10 1178 21                      @ rt-thread/components/drivers/serial/serial.c:1178:21
	str	r0, [sp, #20]
.Ltmp139:
	.loc	10 1179 13 is_stmt 1            @ rt-thread/components/drivers/serial/serial.c:1179:13
	ldr	r0, [sp, #20]
.Ltmp140:
	.loc	10 1179 13 is_stmt 0            @ rt-thread/components/drivers/serial/serial.c:1179:13
	cbnz	r0, .LBB7_4
	b	.LBB7_3
.LBB7_3:
.Ltmp141:
	.loc	10 1179 13                      @ rt-thread/components/drivers/serial/serial.c:1179:13
	movw	r0, :lower16:.L.str.1
	movt	r0, :upper16:.L.str.1
	movw	r1, :lower16:.L__FUNCTION__.rt_hw_serial_isr
	movt	r1, :upper16:.L__FUNCTION__.rt_hw_serial_isr
	movw	r2, #1179
	bl	rt_assert_handler
	b	.LBB7_4
.Ltmp142:
.LBB7_4:
	.loc	10 1181 13 is_stmt 1            @ rt-thread/components/drivers/serial/serial.c:1181:13
	b	.LBB7_5
.LBB7_5:                                @ =>This Inner Loop Header: Depth=1
.Ltmp143:
	.loc	10 1183 22                      @ rt-thread/components/drivers/serial/serial.c:1183:22
	ldr	r0, [sp, #36]
	.loc	10 1183 30 is_stmt 0            @ rt-thread/components/drivers/serial/serial.c:1183:30
	ldr	r1, [r0, #80]
	.loc	10 1183 35                      @ rt-thread/components/drivers/serial/serial.c:1183:35
	ldr	r1, [r1, #12]
	.loc	10 1183 22                      @ rt-thread/components/drivers/serial/serial.c:1183:22
	blx	r1
	.loc	10 1183 20                      @ rt-thread/components/drivers/serial/serial.c:1183:20
	str	r0, [sp, #28]
.Ltmp144:
	.loc	10 1184 21 is_stmt 1            @ rt-thread/components/drivers/serial/serial.c:1184:21
	ldr	r0, [sp, #28]
.Ltmp145:
	.loc	10 1184 21 is_stmt 0            @ rt-thread/components/drivers/serial/serial.c:1184:21
	adds	r0, #1
	cbnz	r0, .LBB7_7
	b	.LBB7_6
.LBB7_6:
.Ltmp146:
	.loc	10 1184 31                      @ rt-thread/components/drivers/serial/serial.c:1184:31
	b	.LBB7_14
.Ltmp147:
.LBB7_7:                                @   in Loop: Header=BB7_5 Depth=1
	.loc	10 1188 25 is_stmt 1            @ rt-thread/components/drivers/serial/serial.c:1188:25
	bl	rt_hw_interrupt_disable
	.loc	10 1188 23 is_stmt 0            @ rt-thread/components/drivers/serial/serial.c:1188:23
	str	r0, [sp, #24]
	.loc	10 1190 55 is_stmt 1            @ rt-thread/components/drivers/serial/serial.c:1190:55
	ldr	r0, [sp, #28]
	.loc	10 1190 17 is_stmt 0            @ rt-thread/components/drivers/serial/serial.c:1190:17
	ldr	r2, [sp, #20]
	.loc	10 1190 26                      @ rt-thread/components/drivers/serial/serial.c:1190:26
	ldr	r1, [r2]
	.loc	10 1190 42                      @ rt-thread/components/drivers/serial/serial.c:1190:42
	ldrh	r2, [r2, #4]
	.loc	10 1190 53                      @ rt-thread/components/drivers/serial/serial.c:1190:53
	strb	r0, [r1, r2]
	.loc	10 1191 17 is_stmt 1            @ rt-thread/components/drivers/serial/serial.c:1191:17
	ldr	r1, [sp, #20]
	.loc	10 1191 36 is_stmt 0            @ rt-thread/components/drivers/serial/serial.c:1191:36
	ldrh	r0, [r1, #4]
	adds	r0, #1
	strh	r0, [r1, #4]
.Ltmp148:
	.loc	10 1192 21 is_stmt 1            @ rt-thread/components/drivers/serial/serial.c:1192:21
	ldr	r0, [sp, #20]
	.loc	10 1192 30 is_stmt 0            @ rt-thread/components/drivers/serial/serial.c:1192:30
	ldrh	r0, [r0, #4]
	.loc	10 1192 43                      @ rt-thread/components/drivers/serial/serial.c:1192:43
	ldr	r1, [sp, #36]
	.loc	10 1192 58                      @ rt-thread/components/drivers/serial/serial.c:1192:58
	ldrb.w	r2, [r1, #91]
	ldrh.w	r1, [r1, #89]
	orr.w	r1, r1, r2, lsl #16
	ubfx	r1, r1, #2, #16
.Ltmp149:
	.loc	10 1192 21                      @ rt-thread/components/drivers/serial/serial.c:1192:21
	cmp	r0, r1
	blt	.LBB7_9
	b	.LBB7_8
.LBB7_8:                                @   in Loop: Header=BB7_5 Depth=1
.Ltmp150:
	.loc	10 1192 65                      @ rt-thread/components/drivers/serial/serial.c:1192:65
	ldr	r1, [sp, #20]
	movs	r0, #0
	.loc	10 1192 84                      @ rt-thread/components/drivers/serial/serial.c:1192:84
	strh	r0, [r1, #4]
	.loc	10 1192 65                      @ rt-thread/components/drivers/serial/serial.c:1192:65
	b	.LBB7_9
.Ltmp151:
.LBB7_9:                                @   in Loop: Header=BB7_5 Depth=1
	.loc	10 1195 21 is_stmt 1            @ rt-thread/components/drivers/serial/serial.c:1195:21
	ldr	r1, [sp, #20]
	.loc	10 1195 30 is_stmt 0            @ rt-thread/components/drivers/serial/serial.c:1195:30
	ldrh	r0, [r1, #4]
	.loc	10 1195 52                      @ rt-thread/components/drivers/serial/serial.c:1195:52
	ldrh	r1, [r1, #6]
.Ltmp152:
	.loc	10 1195 21                      @ rt-thread/components/drivers/serial/serial.c:1195:21
	cmp	r0, r1
	bne	.LBB7_13
	b	.LBB7_10
.LBB7_10:                               @   in Loop: Header=BB7_5 Depth=1
.Ltmp153:
	.loc	10 1197 21 is_stmt 1            @ rt-thread/components/drivers/serial/serial.c:1197:21
	ldr	r1, [sp, #20]
	.loc	10 1197 40 is_stmt 0            @ rt-thread/components/drivers/serial/serial.c:1197:40
	ldrh	r0, [r1, #6]
	adds	r0, #1
	strh	r0, [r1, #6]
	.loc	10 1198 21 is_stmt 1            @ rt-thread/components/drivers/serial/serial.c:1198:21
	ldr	r1, [sp, #20]
	movs	r0, #1
	.loc	10 1198 38 is_stmt 0            @ rt-thread/components/drivers/serial/serial.c:1198:38
	str	r0, [r1, #8]
.Ltmp154:
	.loc	10 1199 25 is_stmt 1            @ rt-thread/components/drivers/serial/serial.c:1199:25
	ldr	r0, [sp, #20]
	.loc	10 1199 34 is_stmt 0            @ rt-thread/components/drivers/serial/serial.c:1199:34
	ldrh	r0, [r0, #6]
	.loc	10 1199 47                      @ rt-thread/components/drivers/serial/serial.c:1199:47
	ldr	r1, [sp, #36]
	.loc	10 1199 62                      @ rt-thread/components/drivers/serial/serial.c:1199:62
	ldrb.w	r2, [r1, #91]
	ldrh.w	r1, [r1, #89]
	orr.w	r1, r1, r2, lsl #16
	ubfx	r1, r1, #2, #16
.Ltmp155:
	.loc	10 1199 25                      @ rt-thread/components/drivers/serial/serial.c:1199:25
	cmp	r0, r1
	blt	.LBB7_12
	b	.LBB7_11
.LBB7_11:                               @   in Loop: Header=BB7_5 Depth=1
.Ltmp156:
	.loc	10 1199 69                      @ rt-thread/components/drivers/serial/serial.c:1199:69
	ldr	r1, [sp, #20]
	movs	r0, #0
	.loc	10 1199 88                      @ rt-thread/components/drivers/serial/serial.c:1199:88
	strh	r0, [r1, #6]
	.loc	10 1199 69                      @ rt-thread/components/drivers/serial/serial.c:1199:69
	b	.LBB7_12
.Ltmp157:
.LBB7_12:                               @   in Loop: Header=BB7_5 Depth=1
	.loc	10 1201 21 is_stmt 1            @ rt-thread/components/drivers/serial/serial.c:1201:21
	bl	_serial_check_buffer_size
	.loc	10 1202 17                      @ rt-thread/components/drivers/serial/serial.c:1202:17
	b	.LBB7_13
.Ltmp158:
.LBB7_13:                               @   in Loop: Header=BB7_5 Depth=1
	.loc	10 1205 40                      @ rt-thread/components/drivers/serial/serial.c:1205:40
	ldr	r0, [sp, #24]
	.loc	10 1205 17 is_stmt 0            @ rt-thread/components/drivers/serial/serial.c:1205:17
	bl	rt_hw_interrupt_enable
.Ltmp159:
	.loc	10 1181 13 is_stmt 1            @ rt-thread/components/drivers/serial/serial.c:1181:13
	b	.LBB7_5
.LBB7_14:
.Ltmp160:
	.loc	10 1209 17                      @ rt-thread/components/drivers/serial/serial.c:1209:17
	ldr	r0, [sp, #36]
	.loc	10 1209 32 is_stmt 0            @ rt-thread/components/drivers/serial/serial.c:1209:32
	ldr	r0, [r0, #28]
.Ltmp161:
	.loc	10 1209 17                      @ rt-thread/components/drivers/serial/serial.c:1209:17
	cbz	r0, .LBB7_21
	b	.LBB7_15
.LBB7_15:
.Ltmp162:
	.loc	10 1214 25 is_stmt 1            @ rt-thread/components/drivers/serial/serial.c:1214:25
	bl	rt_hw_interrupt_disable
	.loc	10 1214 23 is_stmt 0            @ rt-thread/components/drivers/serial/serial.c:1214:23
	str	r0, [sp, #24]
	.loc	10 1215 30 is_stmt 1            @ rt-thread/components/drivers/serial/serial.c:1215:30
	ldr	r1, [sp, #20]
	.loc	10 1215 39 is_stmt 0            @ rt-thread/components/drivers/serial/serial.c:1215:39
	ldrh	r0, [r1, #4]
	.loc	10 1215 61                      @ rt-thread/components/drivers/serial/serial.c:1215:61
	ldrh	r1, [r1, #6]
	.loc	10 1215 29                      @ rt-thread/components/drivers/serial/serial.c:1215:29
	cmp	r0, r1
	blt	.LBB7_17
	b	.LBB7_16
.LBB7_16:
	.loc	10 1215 74                      @ rt-thread/components/drivers/serial/serial.c:1215:74
	ldr	r1, [sp, #20]
	.loc	10 1215 83                      @ rt-thread/components/drivers/serial/serial.c:1215:83
	ldrh	r0, [r1, #4]
	.loc	10 1215 104                     @ rt-thread/components/drivers/serial/serial.c:1215:104
	ldrh	r1, [r1, #6]
	.loc	10 1215 93                      @ rt-thread/components/drivers/serial/serial.c:1215:93
	subs	r0, r0, r1
	.loc	10 1215 29                      @ rt-thread/components/drivers/serial/serial.c:1215:29
	str	r0, [sp, #4]                    @ 4-byte Spill
	b	.LBB7_18
.LBB7_17:
	.loc	10 1216 22 is_stmt 1            @ rt-thread/components/drivers/serial/serial.c:1216:22
	ldr	r0, [sp, #36]
	.loc	10 1216 37 is_stmt 0            @ rt-thread/components/drivers/serial/serial.c:1216:37
	ldrb.w	r1, [r0, #91]
	ldrh.w	r0, [r0, #89]
	orr.w	r0, r0, r1, lsl #16
	lsrs	r1, r0, #2
	.loc	10 1216 46                      @ rt-thread/components/drivers/serial/serial.c:1216:46
	ldr	r0, [sp, #20]
	.loc	10 1216 55                      @ rt-thread/components/drivers/serial/serial.c:1216:55
	ldrh	r2, [r0, #6]
	.loc	10 1216 76                      @ rt-thread/components/drivers/serial/serial.c:1216:76
	ldrh	r0, [r0, #4]
	.loc	10 1216 43                      @ rt-thread/components/drivers/serial/serial.c:1216:43
	subs	r0, r0, r2
	uxtah	r0, r0, r1
	.loc	10 1215 29 is_stmt 1            @ rt-thread/components/drivers/serial/serial.c:1215:29
	str	r0, [sp, #4]                    @ 4-byte Spill
	b	.LBB7_18
.LBB7_18:
	ldr	r0, [sp, #4]                    @ 4-byte Reload
	.loc	10 1215 27 is_stmt 0            @ rt-thread/components/drivers/serial/serial.c:1215:27
	str	r0, [sp, #16]
	.loc	10 1217 40 is_stmt 1            @ rt-thread/components/drivers/serial/serial.c:1217:40
	ldr	r0, [sp, #24]
	.loc	10 1217 17 is_stmt 0            @ rt-thread/components/drivers/serial/serial.c:1217:17
	bl	rt_hw_interrupt_enable
.Ltmp163:
	.loc	10 1219 21 is_stmt 1            @ rt-thread/components/drivers/serial/serial.c:1219:21
	ldr	r0, [sp, #16]
.Ltmp164:
	.loc	10 1219 21 is_stmt 0            @ rt-thread/components/drivers/serial/serial.c:1219:21
	cbz	r0, .LBB7_20
	b	.LBB7_19
.LBB7_19:
.Ltmp165:
	.loc	10 1221 21 is_stmt 1            @ rt-thread/components/drivers/serial/serial.c:1221:21
	ldr	r0, [sp, #36]
	.loc	10 1221 36 is_stmt 0            @ rt-thread/components/drivers/serial/serial.c:1221:36
	ldr	r2, [r0, #28]
	.loc	10 1221 65                      @ rt-thread/components/drivers/serial/serial.c:1221:65
	ldr	r1, [sp, #16]
	.loc	10 1221 21                      @ rt-thread/components/drivers/serial/serial.c:1221:21
	blx	r2
	.loc	10 1222 17 is_stmt 1            @ rt-thread/components/drivers/serial/serial.c:1222:17
	b	.LBB7_20
.Ltmp166:
.LBB7_20:
	.loc	10 1223 13                      @ rt-thread/components/drivers/serial/serial.c:1223:13
	b	.LBB7_21
.Ltmp167:
.LBB7_21:
	.loc	10 1224 13                      @ rt-thread/components/drivers/serial/serial.c:1224:13
	b	.LBB7_23
.Ltmp168:
.LBB7_22:
	.loc	10 1230 50                      @ rt-thread/components/drivers/serial/serial.c:1230:50
	ldr	r0, [sp, #36]
	.loc	10 1230 58 is_stmt 0            @ rt-thread/components/drivers/serial/serial.c:1230:58
	ldr	r0, [r0, #96]
	.loc	10 1230 21                      @ rt-thread/components/drivers/serial/serial.c:1230:21
	str	r0, [sp, #12]
	.loc	10 1231 34 is_stmt 1            @ rt-thread/components/drivers/serial/serial.c:1231:34
	ldr	r0, [sp, #12]
	.loc	10 1231 13 is_stmt 0            @ rt-thread/components/drivers/serial/serial.c:1231:13
	bl	rt_completion_done
	.loc	10 1232 13 is_stmt 1            @ rt-thread/components/drivers/serial/serial.c:1232:13
	b	.LBB7_23
.Ltmp169:
.LBB7_23:
	.loc	10 1302 1                       @ rt-thread/components/drivers/serial/serial.c:1302:1
	add	sp, #40
	pop	{r7, pc}
.Ltmp170:
.Lfunc_end7:
	.size	rt_hw_serial_isr, .Lfunc_end7-rt_hw_serial_isr
	.cfi_endproc
	.cantunwind
	.fnend
                                        @ -- End function
	.section	.text._serial_check_buffer_size,"ax",%progbits
	.p2align	3                               @ -- Begin function _serial_check_buffer_size
	.type	_serial_check_buffer_size,%function
	.code	16                              @ @_serial_check_buffer_size
	.thumb_func
_serial_check_buffer_size:
.Lfunc_begin8:
	.loc	10 331 0                        @ rt-thread/components/drivers/serial/serial.c:331:0
	.fnstart
	.cfi_startproc
@ %bb.0:
	.save	{r7, lr}
	push	{r7, lr}
	.cfi_def_cfa_offset 8
	.cfi_offset lr, -4
	.cfi_offset r7, -8
.Ltmp171:
	.loc	10 334 9 prologue_end           @ rt-thread/components/drivers/serial/serial.c:334:9
	movw	r0, :lower16:_serial_check_buffer_size.already_output
	movt	r0, :upper16:_serial_check_buffer_size.already_output
	ldr	r0, [r0]
.Ltmp172:
	.loc	10 334 9 is_stmt 0              @ rt-thread/components/drivers/serial/serial.c:334:9
	cbnz	r0, .LBB8_4
	b	.LBB8_1
.LBB8_1:
.Ltmp173:
	.loc	10 337 9 is_stmt 1              @ rt-thread/components/drivers/serial/serial.c:337:9
	b	.LBB8_2
.LBB8_2:
.Ltmp174:
	.loc	10 337 9 is_stmt 0              @ rt-thread/components/drivers/serial/serial.c:337:9
	movw	r0, :lower16:.L.str.9
	movt	r0, :upper16:.L.str.9
	bl	rt_kprintf
	movw	r0, :lower16:.L.str.10
	movt	r0, :upper16:.L.str.10
	bl	rt_kprintf
	movw	r0, :lower16:.L.str.8
	movt	r0, :upper16:.L.str.8
	bl	rt_kprintf
	b	.LBB8_3
.Ltmp175:
.LBB8_3:
	.loc	10 340 24 is_stmt 1             @ rt-thread/components/drivers/serial/serial.c:340:24
	movw	r1, :lower16:_serial_check_buffer_size.already_output
	movt	r1, :upper16:_serial_check_buffer_size.already_output
	movs	r0, #1
	str	r0, [r1]
	.loc	10 341 5                        @ rt-thread/components/drivers/serial/serial.c:341:5
	b	.LBB8_4
.Ltmp176:
.LBB8_4:
	.loc	10 342 1                        @ rt-thread/components/drivers/serial/serial.c:342:1
	pop	{r7, pc}
.Ltmp177:
.Lfunc_end8:
	.size	_serial_check_buffer_size, .Lfunc_end8-_serial_check_buffer_size
	.cfi_endproc
	.cantunwind
	.fnend
                                        @ -- End function
	.section	.text._serial_int_rx,"ax",%progbits
	.p2align	3                               @ -- Begin function _serial_int_rx
	.type	_serial_int_rx,%function
	.code	16                              @ @_serial_int_rx
	.thumb_func
_serial_int_rx:
.Lfunc_begin9:
	.loc	10 258 0                        @ rt-thread/components/drivers/serial/serial.c:258:0
	.fnstart
	.cfi_startproc
@ %bb.0:
	.save	{r7, lr}
	push	{r7, lr}
	.cfi_def_cfa_offset 8
	.cfi_offset lr, -4
	.cfi_offset r7, -8
	.pad	#32
	sub	sp, #32
	.cfi_def_cfa_offset 40
	str	r0, [sp, #28]
	str	r1, [sp, #24]
	str	r2, [sp, #20]
.Ltmp178:
	.loc	10 262 5 prologue_end           @ rt-thread/components/drivers/serial/serial.c:262:5
	ldr	r0, [sp, #28]
.Ltmp179:
	.loc	10 262 5 is_stmt 0              @ rt-thread/components/drivers/serial/serial.c:262:5
	cbnz	r0, .LBB9_2
	b	.LBB9_1
.LBB9_1:
.Ltmp180:
	.loc	10 262 5                        @ rt-thread/components/drivers/serial/serial.c:262:5
	movw	r0, :lower16:.L.str
	movt	r0, :upper16:.L.str
	movw	r1, :lower16:.L__FUNCTION__._serial_int_rx
	movt	r1, :upper16:.L__FUNCTION__._serial_int_rx
	mov.w	r2, #262
	bl	rt_assert_handler
	b	.LBB9_2
.Ltmp181:
.LBB9_2:
	.loc	10 263 12 is_stmt 1             @ rt-thread/components/drivers/serial/serial.c:263:12
	ldr	r0, [sp, #20]
	.loc	10 263 10 is_stmt 0             @ rt-thread/components/drivers/serial/serial.c:263:10
	str	r0, [sp, #16]
	.loc	10 265 43 is_stmt 1             @ rt-thread/components/drivers/serial/serial.c:265:43
	ldr	r0, [sp, #28]
	.loc	10 265 51 is_stmt 0             @ rt-thread/components/drivers/serial/serial.c:265:51
	ldr	r0, [r0, #92]
	.loc	10 265 13                       @ rt-thread/components/drivers/serial/serial.c:265:13
	str	r0, [sp, #12]
.Ltmp182:
	.loc	10 266 5 is_stmt 1              @ rt-thread/components/drivers/serial/serial.c:266:5
	ldr	r0, [sp, #12]
.Ltmp183:
	.loc	10 266 5 is_stmt 0              @ rt-thread/components/drivers/serial/serial.c:266:5
	cbnz	r0, .LBB9_4
	b	.LBB9_3
.LBB9_3:
.Ltmp184:
	.loc	10 266 5                        @ rt-thread/components/drivers/serial/serial.c:266:5
	movw	r0, :lower16:.L.str.1
	movt	r0, :upper16:.L.str.1
	movw	r1, :lower16:.L__FUNCTION__._serial_int_rx
	movt	r1, :upper16:.L__FUNCTION__._serial_int_rx
	mov.w	r2, #266
	bl	rt_assert_handler
	b	.LBB9_4
.Ltmp185:
.LBB9_4:
	.loc	10 269 5 is_stmt 1              @ rt-thread/components/drivers/serial/serial.c:269:5
	b	.LBB9_5
.LBB9_5:                                @ =>This Inner Loop Header: Depth=1
	.loc	10 269 12 is_stmt 0             @ rt-thread/components/drivers/serial/serial.c:269:12
	ldr	r0, [sp, #20]
	.loc	10 269 5                        @ rt-thread/components/drivers/serial/serial.c:269:5
	cmp	r0, #0
	beq	.LBB9_14
	b	.LBB9_6
.LBB9_6:                                @   in Loop: Header=BB9_5 Depth=1
.Ltmp186:
	.loc	10 275 17 is_stmt 1             @ rt-thread/components/drivers/serial/serial.c:275:17
	bl	rt_hw_interrupt_disable
	.loc	10 275 15 is_stmt 0             @ rt-thread/components/drivers/serial/serial.c:275:15
	str	r0, [sp, #4]
.Ltmp187:
	.loc	10 278 14 is_stmt 1             @ rt-thread/components/drivers/serial/serial.c:278:14
	ldr	r1, [sp, #12]
	.loc	10 278 23 is_stmt 0             @ rt-thread/components/drivers/serial/serial.c:278:23
	ldrh	r0, [r1, #6]
	.loc	10 278 45                       @ rt-thread/components/drivers/serial/serial.c:278:45
	ldrh	r1, [r1, #4]
	.loc	10 278 56                       @ rt-thread/components/drivers/serial/serial.c:278:56
	cmp	r0, r1
	bne	.LBB9_9
	b	.LBB9_7
.LBB9_7:                                @   in Loop: Header=BB9_5 Depth=1
	.loc	10 278 60                       @ rt-thread/components/drivers/serial/serial.c:278:60
	ldr	r0, [sp, #12]
	.loc	10 278 69                       @ rt-thread/components/drivers/serial/serial.c:278:69
	ldr	r0, [r0, #8]
.Ltmp188:
	.loc	10 278 13                       @ rt-thread/components/drivers/serial/serial.c:278:13
	cbnz	r0, .LBB9_9
	b	.LBB9_8
.LBB9_8:
.Ltmp189:
	.loc	10 281 36 is_stmt 1             @ rt-thread/components/drivers/serial/serial.c:281:36
	ldr	r0, [sp, #4]
	.loc	10 281 13 is_stmt 0             @ rt-thread/components/drivers/serial/serial.c:281:13
	bl	rt_hw_interrupt_enable
	.loc	10 282 13 is_stmt 1             @ rt-thread/components/drivers/serial/serial.c:282:13
	b	.LBB9_14
.Ltmp190:
.LBB9_9:                                @   in Loop: Header=BB9_5 Depth=1
	.loc	10 286 14                       @ rt-thread/components/drivers/serial/serial.c:286:14
	ldr	r1, [sp, #12]
	.loc	10 286 23 is_stmt 0             @ rt-thread/components/drivers/serial/serial.c:286:23
	ldr	r0, [r1]
	.loc	10 286 39                       @ rt-thread/components/drivers/serial/serial.c:286:39
	ldrh	r1, [r1, #6]
	.loc	10 286 14                       @ rt-thread/components/drivers/serial/serial.c:286:14
	ldrb	r0, [r0, r1]
	.loc	10 286 12                       @ rt-thread/components/drivers/serial/serial.c:286:12
	str	r0, [sp, #8]
	.loc	10 287 9 is_stmt 1              @ rt-thread/components/drivers/serial/serial.c:287:9
	ldr	r1, [sp, #12]
	.loc	10 287 28 is_stmt 0             @ rt-thread/components/drivers/serial/serial.c:287:28
	ldrh	r0, [r1, #6]
	adds	r0, #1
	strh	r0, [r1, #6]
.Ltmp191:
	.loc	10 288 13 is_stmt 1             @ rt-thread/components/drivers/serial/serial.c:288:13
	ldr	r0, [sp, #12]
	.loc	10 288 22 is_stmt 0             @ rt-thread/components/drivers/serial/serial.c:288:22
	ldrh	r0, [r0, #6]
	.loc	10 288 35                       @ rt-thread/components/drivers/serial/serial.c:288:35
	ldr	r1, [sp, #28]
	.loc	10 288 50                       @ rt-thread/components/drivers/serial/serial.c:288:50
	ldrb.w	r2, [r1, #91]
	ldrh.w	r1, [r1, #89]
	orr.w	r1, r1, r2, lsl #16
	ubfx	r1, r1, #2, #16
.Ltmp192:
	.loc	10 288 13                       @ rt-thread/components/drivers/serial/serial.c:288:13
	cmp	r0, r1
	blt	.LBB9_11
	b	.LBB9_10
.LBB9_10:                               @   in Loop: Header=BB9_5 Depth=1
.Ltmp193:
	.loc	10 288 57                       @ rt-thread/components/drivers/serial/serial.c:288:57
	ldr	r1, [sp, #12]
	movs	r0, #0
	.loc	10 288 76                       @ rt-thread/components/drivers/serial/serial.c:288:76
	strh	r0, [r1, #6]
	.loc	10 288 57                       @ rt-thread/components/drivers/serial/serial.c:288:57
	b	.LBB9_11
.Ltmp194:
.LBB9_11:                               @   in Loop: Header=BB9_5 Depth=1
	.loc	10 290 13 is_stmt 1             @ rt-thread/components/drivers/serial/serial.c:290:13
	ldr	r0, [sp, #12]
	.loc	10 290 22 is_stmt 0             @ rt-thread/components/drivers/serial/serial.c:290:22
	ldr	r0, [r0, #8]
.Ltmp195:
	.loc	10 290 13                       @ rt-thread/components/drivers/serial/serial.c:290:13
	cmp	r0, #1
	bne	.LBB9_13
	b	.LBB9_12
.LBB9_12:                               @   in Loop: Header=BB9_5 Depth=1
.Ltmp196:
	.loc	10 292 13 is_stmt 1             @ rt-thread/components/drivers/serial/serial.c:292:13
	ldr	r1, [sp, #12]
	movs	r0, #0
	.loc	10 292 30 is_stmt 0             @ rt-thread/components/drivers/serial/serial.c:292:30
	str	r0, [r1, #8]
	.loc	10 293 9 is_stmt 1              @ rt-thread/components/drivers/serial/serial.c:293:9
	b	.LBB9_13
.Ltmp197:
.LBB9_13:                               @   in Loop: Header=BB9_5 Depth=1
	.loc	10 296 32                       @ rt-thread/components/drivers/serial/serial.c:296:32
	ldr	r0, [sp, #4]
	.loc	10 296 9 is_stmt 0              @ rt-thread/components/drivers/serial/serial.c:296:9
	bl	rt_hw_interrupt_enable
	.loc	10 298 17 is_stmt 1             @ rt-thread/components/drivers/serial/serial.c:298:17
	ldr	r0, [sp, #8]
	.loc	10 298 10 is_stmt 0             @ rt-thread/components/drivers/serial/serial.c:298:10
	ldr	r1, [sp, #24]
	.loc	10 298 15                       @ rt-thread/components/drivers/serial/serial.c:298:15
	strb	r0, [r1]
	.loc	10 299 14 is_stmt 1             @ rt-thread/components/drivers/serial/serial.c:299:14
	ldr	r0, [sp, #24]
	adds	r0, #1
	str	r0, [sp, #24]
	.loc	10 299 25 is_stmt 0             @ rt-thread/components/drivers/serial/serial.c:299:25
	ldr	r0, [sp, #20]
	subs	r0, #1
	str	r0, [sp, #20]
.Ltmp198:
	.loc	10 269 5 is_stmt 1              @ rt-thread/components/drivers/serial/serial.c:269:5
	b	.LBB9_5
.LBB9_14:
	.loc	10 302 12                       @ rt-thread/components/drivers/serial/serial.c:302:12
	ldr	r0, [sp, #16]
	.loc	10 302 19 is_stmt 0             @ rt-thread/components/drivers/serial/serial.c:302:19
	ldr	r1, [sp, #20]
	.loc	10 302 17                       @ rt-thread/components/drivers/serial/serial.c:302:17
	subs	r0, r0, r1
	.loc	10 302 5                        @ rt-thread/components/drivers/serial/serial.c:302:5
	add	sp, #32
	pop	{r7, pc}
.Ltmp199:
.Lfunc_end9:
	.size	_serial_int_rx, .Lfunc_end9-_serial_int_rx
	.cfi_endproc
	.cantunwind
	.fnend
                                        @ -- End function
	.section	.text._serial_poll_rx,"ax",%progbits
	.p2align	3                               @ -- Begin function _serial_poll_rx
	.type	_serial_poll_rx,%function
	.code	16                              @ @_serial_poll_rx
	.thumb_func
_serial_poll_rx:
.Lfunc_begin10:
	.loc	10 207 0 is_stmt 1              @ rt-thread/components/drivers/serial/serial.c:207:0
	.fnstart
	.cfi_startproc
@ %bb.0:
	.save	{r7, lr}
	push	{r7, lr}
	.cfi_def_cfa_offset 8
	.cfi_offset lr, -4
	.cfi_offset r7, -8
	.pad	#24
	sub	sp, #24
	.cfi_def_cfa_offset 32
	str	r0, [sp, #20]
	str	r1, [sp, #16]
	str	r2, [sp, #12]
.Ltmp200:
	.loc	10 211 5 prologue_end           @ rt-thread/components/drivers/serial/serial.c:211:5
	ldr	r0, [sp, #20]
.Ltmp201:
	.loc	10 211 5 is_stmt 0              @ rt-thread/components/drivers/serial/serial.c:211:5
	cbnz	r0, .LBB10_2
	b	.LBB10_1
.LBB10_1:
.Ltmp202:
	.loc	10 211 5                        @ rt-thread/components/drivers/serial/serial.c:211:5
	movw	r0, :lower16:.L.str
	movt	r0, :upper16:.L.str
	movw	r1, :lower16:.L__FUNCTION__._serial_poll_rx
	movt	r1, :upper16:.L__FUNCTION__._serial_poll_rx
	movs	r2, #211
	bl	rt_assert_handler
	b	.LBB10_2
.Ltmp203:
.LBB10_2:
	.loc	10 212 12 is_stmt 1             @ rt-thread/components/drivers/serial/serial.c:212:12
	ldr	r0, [sp, #12]
	.loc	10 212 10 is_stmt 0             @ rt-thread/components/drivers/serial/serial.c:212:10
	str	r0, [sp, #4]
	.loc	10 214 5 is_stmt 1              @ rt-thread/components/drivers/serial/serial.c:214:5
	b	.LBB10_3
.LBB10_3:                               @ =>This Inner Loop Header: Depth=1
	.loc	10 214 12 is_stmt 0             @ rt-thread/components/drivers/serial/serial.c:214:12
	ldr	r0, [sp, #12]
	.loc	10 214 5                        @ rt-thread/components/drivers/serial/serial.c:214:5
	cbz	r0, .LBB10_9
	b	.LBB10_4
.LBB10_4:                               @   in Loop: Header=BB10_3 Depth=1
.Ltmp204:
	.loc	10 216 14 is_stmt 1             @ rt-thread/components/drivers/serial/serial.c:216:14
	ldr	r0, [sp, #20]
	.loc	10 216 22 is_stmt 0             @ rt-thread/components/drivers/serial/serial.c:216:22
	ldr	r1, [r0, #80]
	.loc	10 216 27                       @ rt-thread/components/drivers/serial/serial.c:216:27
	ldr	r1, [r1, #12]
	.loc	10 216 14                       @ rt-thread/components/drivers/serial/serial.c:216:14
	blx	r1
	.loc	10 216 12                       @ rt-thread/components/drivers/serial/serial.c:216:12
	str	r0, [sp, #8]
.Ltmp205:
	.loc	10 217 13 is_stmt 1             @ rt-thread/components/drivers/serial/serial.c:217:13
	ldr	r0, [sp, #8]
.Ltmp206:
	.loc	10 217 13 is_stmt 0             @ rt-thread/components/drivers/serial/serial.c:217:13
	adds	r0, #1
	cbnz	r0, .LBB10_6
	b	.LBB10_5
.LBB10_5:
.Ltmp207:
	.loc	10 217 23                       @ rt-thread/components/drivers/serial/serial.c:217:23
	b	.LBB10_9
.Ltmp208:
.LBB10_6:                               @   in Loop: Header=BB10_3 Depth=1
	.loc	10 219 17 is_stmt 1             @ rt-thread/components/drivers/serial/serial.c:219:17
	ldr	r0, [sp, #8]
	.loc	10 219 10 is_stmt 0             @ rt-thread/components/drivers/serial/serial.c:219:10
	ldr	r1, [sp, #16]
	.loc	10 219 15                       @ rt-thread/components/drivers/serial/serial.c:219:15
	strb	r0, [r1]
	.loc	10 220 14 is_stmt 1             @ rt-thread/components/drivers/serial/serial.c:220:14
	ldr	r0, [sp, #16]
	adds	r0, #1
	str	r0, [sp, #16]
	.loc	10 220 25 is_stmt 0             @ rt-thread/components/drivers/serial/serial.c:220:25
	ldr	r0, [sp, #12]
	subs	r0, #1
	str	r0, [sp, #12]
.Ltmp209:
	.loc	10 222 13 is_stmt 1             @ rt-thread/components/drivers/serial/serial.c:222:13
	ldr	r0, [sp, #8]
.Ltmp210:
	.loc	10 222 13 is_stmt 0             @ rt-thread/components/drivers/serial/serial.c:222:13
	cmp	r0, #10
	bne	.LBB10_8
	b	.LBB10_7
.LBB10_7:
.Ltmp211:
	.loc	10 222 25                       @ rt-thread/components/drivers/serial/serial.c:222:25
	b	.LBB10_9
.Ltmp212:
.LBB10_8:                               @   in Loop: Header=BB10_3 Depth=1
	.loc	10 214 5 is_stmt 1              @ rt-thread/components/drivers/serial/serial.c:214:5
	b	.LBB10_3
.LBB10_9:
	.loc	10 225 12                       @ rt-thread/components/drivers/serial/serial.c:225:12
	ldr	r0, [sp, #4]
	.loc	10 225 19 is_stmt 0             @ rt-thread/components/drivers/serial/serial.c:225:19
	ldr	r1, [sp, #12]
	.loc	10 225 17                       @ rt-thread/components/drivers/serial/serial.c:225:17
	subs	r0, r0, r1
	.loc	10 225 5                        @ rt-thread/components/drivers/serial/serial.c:225:5
	add	sp, #24
	pop	{r7, pc}
.Ltmp213:
.Lfunc_end10:
	.size	_serial_poll_rx, .Lfunc_end10-_serial_poll_rx
	.cfi_endproc
	.cantunwind
	.fnend
                                        @ -- End function
	.section	.text._serial_int_tx,"ax",%progbits
	.p2align	3                               @ -- Begin function _serial_int_tx
	.type	_serial_int_tx,%function
	.code	16                              @ @_serial_int_tx
	.thumb_func
_serial_int_tx:
.Lfunc_begin11:
	.loc	10 306 0 is_stmt 1              @ rt-thread/components/drivers/serial/serial.c:306:0
	.fnstart
	.cfi_startproc
@ %bb.0:
	.save	{r7, lr}
	push	{r7, lr}
	.cfi_def_cfa_offset 8
	.cfi_offset lr, -4
	.cfi_offset r7, -8
	.pad	#24
	sub	sp, #24
	.cfi_def_cfa_offset 32
	str	r0, [sp, #20]
	str	r1, [sp, #16]
	str	r2, [sp, #12]
.Ltmp214:
	.loc	10 310 5 prologue_end           @ rt-thread/components/drivers/serial/serial.c:310:5
	ldr	r0, [sp, #20]
.Ltmp215:
	.loc	10 310 5 is_stmt 0              @ rt-thread/components/drivers/serial/serial.c:310:5
	cbnz	r0, .LBB11_2
	b	.LBB11_1
.LBB11_1:
.Ltmp216:
	.loc	10 310 5                        @ rt-thread/components/drivers/serial/serial.c:310:5
	movw	r0, :lower16:.L.str
	movt	r0, :upper16:.L.str
	movw	r1, :lower16:.L__FUNCTION__._serial_int_tx
	movt	r1, :upper16:.L__FUNCTION__._serial_int_tx
	mov.w	r2, #310
	bl	rt_assert_handler
	b	.LBB11_2
.Ltmp217:
.LBB11_2:
	.loc	10 312 12 is_stmt 1             @ rt-thread/components/drivers/serial/serial.c:312:12
	ldr	r0, [sp, #12]
	.loc	10 312 10 is_stmt 0             @ rt-thread/components/drivers/serial/serial.c:312:10
	str	r0, [sp, #8]
	.loc	10 313 38 is_stmt 1             @ rt-thread/components/drivers/serial/serial.c:313:38
	ldr	r0, [sp, #20]
	.loc	10 313 46 is_stmt 0             @ rt-thread/components/drivers/serial/serial.c:313:46
	ldr	r0, [r0, #96]
	.loc	10 313 8                        @ rt-thread/components/drivers/serial/serial.c:313:8
	str	r0, [sp, #4]
.Ltmp218:
	.loc	10 314 5 is_stmt 1              @ rt-thread/components/drivers/serial/serial.c:314:5
	ldr	r0, [sp, #4]
.Ltmp219:
	.loc	10 314 5 is_stmt 0              @ rt-thread/components/drivers/serial/serial.c:314:5
	cbnz	r0, .LBB11_4
	b	.LBB11_3
.LBB11_3:
.Ltmp220:
	.loc	10 314 5                        @ rt-thread/components/drivers/serial/serial.c:314:5
	movw	r0, :lower16:.L.str.4
	movt	r0, :upper16:.L.str.4
	movw	r1, :lower16:.L__FUNCTION__._serial_int_tx
	movt	r1, :upper16:.L__FUNCTION__._serial_int_tx
	mov.w	r2, #314
	bl	rt_assert_handler
	b	.LBB11_4
.Ltmp221:
.LBB11_4:
	.loc	10 316 5 is_stmt 1              @ rt-thread/components/drivers/serial/serial.c:316:5
	b	.LBB11_5
.LBB11_5:                               @ =>This Inner Loop Header: Depth=1
	.loc	10 316 12 is_stmt 0             @ rt-thread/components/drivers/serial/serial.c:316:12
	ldr	r0, [sp, #12]
	.loc	10 316 5                        @ rt-thread/components/drivers/serial/serial.c:316:5
	cbz	r0, .LBB11_9
	b	.LBB11_6
.LBB11_6:                               @   in Loop: Header=BB11_5 Depth=1
.Ltmp222:
	.loc	10 318 13 is_stmt 1             @ rt-thread/components/drivers/serial/serial.c:318:13
	ldr	r0, [sp, #20]
	.loc	10 318 21 is_stmt 0             @ rt-thread/components/drivers/serial/serial.c:318:21
	ldr	r1, [r0, #80]
	.loc	10 318 26                       @ rt-thread/components/drivers/serial/serial.c:318:26
	ldr	r2, [r1, #8]
	.loc	10 318 47                       @ rt-thread/components/drivers/serial/serial.c:318:47
	ldr	r1, [sp, #16]
	.loc	10 318 39                       @ rt-thread/components/drivers/serial/serial.c:318:39
	ldrsb.w	r1, [r1]
	.loc	10 318 13                       @ rt-thread/components/drivers/serial/serial.c:318:13
	blx	r2
.Ltmp223:
	.loc	10 318 13                       @ rt-thread/components/drivers/serial/serial.c:318:13
	adds	r0, #1
	cbnz	r0, .LBB11_8
	b	.LBB11_7
.LBB11_7:                               @   in Loop: Header=BB11_5 Depth=1
.Ltmp224:
	.loc	10 320 34 is_stmt 1             @ rt-thread/components/drivers/serial/serial.c:320:34
	ldr	r0, [sp, #4]
	mov.w	r1, #-1
	.loc	10 320 13 is_stmt 0             @ rt-thread/components/drivers/serial/serial.c:320:13
	bl	rt_completion_wait
	.loc	10 321 13 is_stmt 1             @ rt-thread/components/drivers/serial/serial.c:321:13
	b	.LBB11_5
.Ltmp225:
.LBB11_8:                               @   in Loop: Header=BB11_5 Depth=1
	.loc	10 324 14                       @ rt-thread/components/drivers/serial/serial.c:324:14
	ldr	r0, [sp, #16]
	adds	r0, #1
	str	r0, [sp, #16]
	.loc	10 324 25 is_stmt 0             @ rt-thread/components/drivers/serial/serial.c:324:25
	ldr	r0, [sp, #12]
	subs	r0, #1
	str	r0, [sp, #12]
.Ltmp226:
	.loc	10 316 5 is_stmt 1              @ rt-thread/components/drivers/serial/serial.c:316:5
	b	.LBB11_5
.LBB11_9:
	.loc	10 327 12                       @ rt-thread/components/drivers/serial/serial.c:327:12
	ldr	r0, [sp, #8]
	.loc	10 327 19 is_stmt 0             @ rt-thread/components/drivers/serial/serial.c:327:19
	ldr	r1, [sp, #12]
	.loc	10 327 17                       @ rt-thread/components/drivers/serial/serial.c:327:17
	subs	r0, r0, r1
	.loc	10 327 5                        @ rt-thread/components/drivers/serial/serial.c:327:5
	add	sp, #24
	pop	{r7, pc}
.Ltmp227:
.Lfunc_end11:
	.size	_serial_int_tx, .Lfunc_end11-_serial_int_tx
	.cfi_endproc
	.cantunwind
	.fnend
                                        @ -- End function
	.section	.text._serial_poll_tx,"ax",%progbits
	.p2align	3                               @ -- Begin function _serial_poll_tx
	.type	_serial_poll_tx,%function
	.code	16                              @ @_serial_poll_tx
	.thumb_func
_serial_poll_tx:
.Lfunc_begin12:
	.loc	10 229 0 is_stmt 1              @ rt-thread/components/drivers/serial/serial.c:229:0
	.fnstart
	.cfi_startproc
@ %bb.0:
	.save	{r7, lr}
	push	{r7, lr}
	.cfi_def_cfa_offset 8
	.cfi_offset lr, -4
	.cfi_offset r7, -8
	.pad	#16
	sub	sp, #16
	.cfi_def_cfa_offset 24
	str	r0, [sp, #12]
	str	r1, [sp, #8]
	str	r2, [sp, #4]
.Ltmp228:
	.loc	10 231 5 prologue_end           @ rt-thread/components/drivers/serial/serial.c:231:5
	ldr	r0, [sp, #12]
.Ltmp229:
	.loc	10 231 5 is_stmt 0              @ rt-thread/components/drivers/serial/serial.c:231:5
	cbnz	r0, .LBB12_2
	b	.LBB12_1
.LBB12_1:
.Ltmp230:
	.loc	10 231 5                        @ rt-thread/components/drivers/serial/serial.c:231:5
	movw	r0, :lower16:.L.str
	movt	r0, :upper16:.L.str
	movw	r1, :lower16:.L__FUNCTION__._serial_poll_tx
	movt	r1, :upper16:.L__FUNCTION__._serial_poll_tx
	movs	r2, #231
	bl	rt_assert_handler
	b	.LBB12_2
.Ltmp231:
.LBB12_2:
	.loc	10 233 12 is_stmt 1             @ rt-thread/components/drivers/serial/serial.c:233:12
	ldr	r0, [sp, #4]
	.loc	10 233 10 is_stmt 0             @ rt-thread/components/drivers/serial/serial.c:233:10
	str	r0, [sp]
	.loc	10 234 5 is_stmt 1              @ rt-thread/components/drivers/serial/serial.c:234:5
	b	.LBB12_3
.LBB12_3:                               @ =>This Inner Loop Header: Depth=1
	.loc	10 234 12 is_stmt 0             @ rt-thread/components/drivers/serial/serial.c:234:12
	ldr	r0, [sp, #4]
	.loc	10 234 5                        @ rt-thread/components/drivers/serial/serial.c:234:5
	cbz	r0, .LBB12_8
	b	.LBB12_4
.LBB12_4:                               @   in Loop: Header=BB12_3 Depth=1
.Ltmp232:
	.loc	10 240 14 is_stmt 1             @ rt-thread/components/drivers/serial/serial.c:240:14
	ldr	r0, [sp, #8]
	.loc	10 240 13 is_stmt 0             @ rt-thread/components/drivers/serial/serial.c:240:13
	ldrb	r0, [r0]
	.loc	10 240 27                       @ rt-thread/components/drivers/serial/serial.c:240:27
	cmp	r0, #10
	bne	.LBB12_7
	b	.LBB12_5
.LBB12_5:                               @   in Loop: Header=BB12_3 Depth=1
	.loc	10 240 31                       @ rt-thread/components/drivers/serial/serial.c:240:31
	ldr	r0, [sp, #12]
	ldrh	r0, [r0, #24]
.Ltmp233:
	.loc	10 240 13                       @ rt-thread/components/drivers/serial/serial.c:240:13
	lsls	r0, r0, #25
	cmp	r0, #0
	bpl	.LBB12_7
	b	.LBB12_6
.LBB12_6:                               @   in Loop: Header=BB12_3 Depth=1
.Ltmp234:
	.loc	10 242 13 is_stmt 1             @ rt-thread/components/drivers/serial/serial.c:242:13
	ldr	r0, [sp, #12]
	.loc	10 242 21 is_stmt 0             @ rt-thread/components/drivers/serial/serial.c:242:21
	ldr	r1, [r0, #80]
	.loc	10 242 26                       @ rt-thread/components/drivers/serial/serial.c:242:26
	ldr	r2, [r1, #8]
	movs	r1, #13
	.loc	10 242 13                       @ rt-thread/components/drivers/serial/serial.c:242:13
	blx	r2
	.loc	10 243 9 is_stmt 1              @ rt-thread/components/drivers/serial/serial.c:243:9
	b	.LBB12_7
.Ltmp235:
.LBB12_7:                               @   in Loop: Header=BB12_3 Depth=1
	.loc	10 245 9                        @ rt-thread/components/drivers/serial/serial.c:245:9
	ldr	r0, [sp, #12]
	.loc	10 245 17 is_stmt 0             @ rt-thread/components/drivers/serial/serial.c:245:17
	ldr	r1, [r0, #80]
	.loc	10 245 22                       @ rt-thread/components/drivers/serial/serial.c:245:22
	ldr	r2, [r1, #8]
	.loc	10 245 36                       @ rt-thread/components/drivers/serial/serial.c:245:36
	ldr	r1, [sp, #8]
	.loc	10 245 35                       @ rt-thread/components/drivers/serial/serial.c:245:35
	ldrsb.w	r1, [r1]
	.loc	10 245 9                        @ rt-thread/components/drivers/serial/serial.c:245:9
	blx	r2
	.loc	10 247 9 is_stmt 1              @ rt-thread/components/drivers/serial/serial.c:247:9
	ldr	r0, [sp, #8]
	adds	r0, #1
	str	r0, [sp, #8]
	.loc	10 248 9                        @ rt-thread/components/drivers/serial/serial.c:248:9
	ldr	r0, [sp, #4]
	subs	r0, #1
	str	r0, [sp, #4]
.Ltmp236:
	.loc	10 234 5                        @ rt-thread/components/drivers/serial/serial.c:234:5
	b	.LBB12_3
.LBB12_8:
	.loc	10 251 12                       @ rt-thread/components/drivers/serial/serial.c:251:12
	ldr	r0, [sp]
	.loc	10 251 19 is_stmt 0             @ rt-thread/components/drivers/serial/serial.c:251:19
	ldr	r1, [sp, #4]
	.loc	10 251 17                       @ rt-thread/components/drivers/serial/serial.c:251:17
	subs	r0, r0, r1
	.loc	10 251 5                        @ rt-thread/components/drivers/serial/serial.c:251:5
	add	sp, #16
	pop	{r7, pc}
.Ltmp237:
.Lfunc_end12:
	.size	_serial_poll_tx, .Lfunc_end12-_serial_poll_tx
	.cfi_endproc
	.cantunwind
	.fnend
                                        @ -- End function
	.section	.text._serial_fifo_calc_recved_len,"ax",%progbits
	.p2align	3                               @ -- Begin function _serial_fifo_calc_recved_len
	.type	_serial_fifo_calc_recved_len,%function
	.code	16                              @ @_serial_fifo_calc_recved_len
	.thumb_func
_serial_fifo_calc_recved_len:
.Lfunc_begin13:
	.loc	10 346 0 is_stmt 1              @ rt-thread/components/drivers/serial/serial.c:346:0
	.fnstart
	.cfi_startproc
@ %bb.0:
	.save	{r7, lr}
	push	{r7, lr}
	.cfi_def_cfa_offset 8
	.cfi_offset lr, -4
	.cfi_offset r7, -8
	.pad	#16
	sub	sp, #16
	.cfi_def_cfa_offset 24
	str	r0, [sp, #8]
.Ltmp238:
	.loc	10 347 70 prologue_end          @ rt-thread/components/drivers/serial/serial.c:347:70
	ldr	r0, [sp, #8]
	.loc	10 347 78 is_stmt 0             @ rt-thread/components/drivers/serial/serial.c:347:78
	ldr	r0, [r0, #92]
	.loc	10 347 31                       @ rt-thread/components/drivers/serial/serial.c:347:31
	str	r0, [sp, #4]
.Ltmp239:
	.loc	10 349 5 is_stmt 1              @ rt-thread/components/drivers/serial/serial.c:349:5
	ldr	r0, [sp, #4]
.Ltmp240:
	.loc	10 349 5 is_stmt 0              @ rt-thread/components/drivers/serial/serial.c:349:5
	cbnz	r0, .LBB13_2
	b	.LBB13_1
.LBB13_1:
.Ltmp241:
	.loc	10 349 5                        @ rt-thread/components/drivers/serial/serial.c:349:5
	movw	r0, :lower16:.L.str.1
	movt	r0, :upper16:.L.str.1
	movw	r1, :lower16:.L__FUNCTION__._serial_fifo_calc_recved_len
	movt	r1, :upper16:.L__FUNCTION__._serial_fifo_calc_recved_len
	movw	r2, #349
	bl	rt_assert_handler
	b	.LBB13_2
.Ltmp242:
.LBB13_2:
	.loc	10 351 9 is_stmt 1              @ rt-thread/components/drivers/serial/serial.c:351:9
	ldr	r1, [sp, #4]
	.loc	10 351 18 is_stmt 0             @ rt-thread/components/drivers/serial/serial.c:351:18
	ldrh	r0, [r1, #4]
	.loc	10 351 40                       @ rt-thread/components/drivers/serial/serial.c:351:40
	ldrh	r1, [r1, #6]
.Ltmp243:
	.loc	10 351 9                        @ rt-thread/components/drivers/serial/serial.c:351:9
	cmp	r0, r1
	bne	.LBB13_7
	b	.LBB13_3
.LBB13_3:
.Ltmp244:
	.loc	10 353 17 is_stmt 1             @ rt-thread/components/drivers/serial/serial.c:353:17
	ldr	r0, [sp, #4]
	.loc	10 353 26 is_stmt 0             @ rt-thread/components/drivers/serial/serial.c:353:26
	ldr	r0, [r0, #8]
	.loc	10 353 17                       @ rt-thread/components/drivers/serial/serial.c:353:17
	cbnz	r0, .LBB13_5
	b	.LBB13_4
.LBB13_4:
	.loc	10 0 17                         @ rt-thread/components/drivers/serial/serial.c:0:17
	movs	r0, #0
	.loc	10 353 17                       @ rt-thread/components/drivers/serial/serial.c:353:17
	str	r0, [sp]                        @ 4-byte Spill
	b	.LBB13_6
.LBB13_5:
	.loc	10 353 52                       @ rt-thread/components/drivers/serial/serial.c:353:52
	ldr	r0, [sp, #8]
	.loc	10 353 67                       @ rt-thread/components/drivers/serial/serial.c:353:67
	ldrb.w	r1, [r0, #91]
	ldrh.w	r0, [r0, #89]
	orr.w	r0, r0, r1, lsl #16
	ubfx	r0, r0, #2, #16
	.loc	10 353 17                       @ rt-thread/components/drivers/serial/serial.c:353:17
	str	r0, [sp]                        @ 4-byte Spill
	b	.LBB13_6
.LBB13_6:
	ldr	r0, [sp]                        @ 4-byte Reload
	.loc	10 353 9                        @ rt-thread/components/drivers/serial/serial.c:353:9
	str	r0, [sp, #12]
	b	.LBB13_10
.Ltmp245:
.LBB13_7:
	.loc	10 357 13 is_stmt 1             @ rt-thread/components/drivers/serial/serial.c:357:13
	ldr	r1, [sp, #4]
	.loc	10 357 22 is_stmt 0             @ rt-thread/components/drivers/serial/serial.c:357:22
	ldrh	r0, [r1, #4]
	.loc	10 357 43                       @ rt-thread/components/drivers/serial/serial.c:357:43
	ldrh	r1, [r1, #6]
.Ltmp246:
	.loc	10 357 13                       @ rt-thread/components/drivers/serial/serial.c:357:13
	cmp	r0, r1
	ble	.LBB13_9
	b	.LBB13_8
.LBB13_8:
.Ltmp247:
	.loc	10 359 20 is_stmt 1             @ rt-thread/components/drivers/serial/serial.c:359:20
	ldr	r1, [sp, #4]
	.loc	10 359 29 is_stmt 0             @ rt-thread/components/drivers/serial/serial.c:359:29
	ldrh	r0, [r1, #4]
	.loc	10 359 50                       @ rt-thread/components/drivers/serial/serial.c:359:50
	ldrh	r1, [r1, #6]
	.loc	10 359 39                       @ rt-thread/components/drivers/serial/serial.c:359:39
	subs	r0, r0, r1
	.loc	10 359 13                       @ rt-thread/components/drivers/serial/serial.c:359:13
	str	r0, [sp, #12]
	b	.LBB13_10
.Ltmp248:
.LBB13_9:
	.loc	10 363 20 is_stmt 1             @ rt-thread/components/drivers/serial/serial.c:363:20
	ldr	r0, [sp, #8]
	.loc	10 363 35 is_stmt 0             @ rt-thread/components/drivers/serial/serial.c:363:35
	ldrb.w	r1, [r0, #91]
	ldrh.w	r0, [r0, #89]
	orr.w	r0, r0, r1, lsl #16
	lsrs	r1, r0, #2
	.loc	10 363 44                       @ rt-thread/components/drivers/serial/serial.c:363:44
	ldr	r0, [sp, #4]
	.loc	10 363 53                       @ rt-thread/components/drivers/serial/serial.c:363:53
	ldrh	r2, [r0, #6]
	.loc	10 363 74                       @ rt-thread/components/drivers/serial/serial.c:363:74
	ldrh	r0, [r0, #4]
	.loc	10 363 41                       @ rt-thread/components/drivers/serial/serial.c:363:41
	subs	r0, r0, r2
	uxtah	r0, r0, r1
	.loc	10 363 13                       @ rt-thread/components/drivers/serial/serial.c:363:13
	str	r0, [sp, #12]
	b	.LBB13_10
.Ltmp249:
.LBB13_10:
	.loc	10 366 1 is_stmt 1              @ rt-thread/components/drivers/serial/serial.c:366:1
	ldr	r0, [sp, #12]
	add	sp, #16
	pop	{r7, pc}
.Ltmp250:
.Lfunc_end13:
	.size	_serial_fifo_calc_recved_len, .Lfunc_end13-_serial_fifo_calc_recved_len
	.cfi_endproc
	.cantunwind
	.fnend
                                        @ -- End function
	.section	.text.serial_fops_open,"ax",%progbits
	.p2align	3                               @ -- Begin function serial_fops_open
	.type	serial_fops_open,%function
	.code	16                              @ @serial_fops_open
	.thumb_func
serial_fops_open:
.Lfunc_begin14:
	.loc	10 61 0                         @ rt-thread/components/drivers/serial/serial.c:61:0
	.fnstart
	.cfi_startproc
@ %bb.0:
	.save	{r7, lr}
	push	{r7, lr}
	.cfi_def_cfa_offset 8
	.cfi_offset lr, -4
	.cfi_offset r7, -8
	.pad	#24
	sub	sp, #24
	.cfi_def_cfa_offset 32
	str	r0, [sp, #16]
	movs	r0, #0
.Ltmp251:
	.loc	10 62 14 prologue_end           @ rt-thread/components/drivers/serial/serial.c:62:14
	str	r0, [sp, #12]
	.loc	10 63 17                        @ rt-thread/components/drivers/serial/serial.c:63:17
	strh.w	r0, [sp, #10]
	.loc	10 66 27                        @ rt-thread/components/drivers/serial/serial.c:66:27
	ldr	r0, [sp, #16]
	.loc	10 66 31 is_stmt 0              @ rt-thread/components/drivers/serial/serial.c:66:31
	ldr	r0, [r0, #32]
	.loc	10 66 12                        @ rt-thread/components/drivers/serial/serial.c:66:12
	str	r0, [sp, #4]
.Ltmp252:
	.loc	10 67 5 is_stmt 1               @ rt-thread/components/drivers/serial/serial.c:67:5
	ldr	r0, [sp, #4]
.Ltmp253:
	.loc	10 67 5 is_stmt 0               @ rt-thread/components/drivers/serial/serial.c:67:5
	cbnz	r0, .LBB14_2
	b	.LBB14_1
.LBB14_1:
.Ltmp254:
	.loc	10 67 5                         @ rt-thread/components/drivers/serial/serial.c:67:5
	movw	r0, :lower16:.L.str.5
	movt	r0, :upper16:.L.str.5
	movw	r1, :lower16:.L__FUNCTION__.serial_fops_open
	movt	r1, :upper16:.L__FUNCTION__.serial_fops_open
	movs	r2, #67
	bl	rt_assert_handler
	b	.LBB14_2
.Ltmp255:
.LBB14_2:
	.loc	10 69 13 is_stmt 1              @ rt-thread/components/drivers/serial/serial.c:69:13
	ldr	r0, [sp, #16]
	.loc	10 69 17 is_stmt 0              @ rt-thread/components/drivers/serial/serial.c:69:17
	ldr	r0, [r0, #20]
	movs	r1, #3
	movt	r1, #32
	.loc	10 69 23                        @ rt-thread/components/drivers/serial/serial.c:69:23
	ands	r0, r1
	.loc	10 69 5                         @ rt-thread/components/drivers/serial/serial.c:69:5
	mov	r1, r0
	str	r1, [sp]                        @ 4-byte Spill
	cbz	r0, .LBB14_5
	b	.LBB14_3
.LBB14_3:
	ldr	r0, [sp]                        @ 4-byte Reload
	cmp	r0, #1
	beq	.LBB14_6
	b	.LBB14_4
.LBB14_4:
	ldr	r0, [sp]                        @ 4-byte Reload
	cmp	r0, #2
	beq	.LBB14_7
	b	.LBB14_8
.LBB14_5:
	.loc	10 0 5                          @ rt-thread/components/drivers/serial/serial.c:0:5
	movw	r0, #257
.Ltmp256:
	.loc	10 73 15 is_stmt 1              @ rt-thread/components/drivers/serial/serial.c:73:15
	strh.w	r0, [sp, #10]
	.loc	10 74 9                         @ rt-thread/components/drivers/serial/serial.c:74:9
	b	.LBB14_11
.LBB14_6:
	.loc	10 0 9 is_stmt 0                @ rt-thread/components/drivers/serial/serial.c:0:9
	movs	r0, #2
	.loc	10 77 15 is_stmt 1              @ rt-thread/components/drivers/serial/serial.c:77:15
	strh.w	r0, [sp, #10]
	.loc	10 78 9                         @ rt-thread/components/drivers/serial/serial.c:78:9
	b	.LBB14_11
.LBB14_7:
	.loc	10 0 9 is_stmt 0                @ rt-thread/components/drivers/serial/serial.c:0:9
	movw	r0, #259
	.loc	10 81 15 is_stmt 1              @ rt-thread/components/drivers/serial/serial.c:81:15
	strh.w	r0, [sp, #10]
	.loc	10 82 9                         @ rt-thread/components/drivers/serial/serial.c:82:9
	b	.LBB14_11
.LBB14_8:
	.loc	10 84 9                         @ rt-thread/components/drivers/serial/serial.c:84:9
	b	.LBB14_9
.LBB14_9:
.Ltmp257:
	.loc	10 84 9 is_stmt 0               @ rt-thread/components/drivers/serial/serial.c:84:9
	movw	r0, :lower16:.L.str.6
	movt	r0, :upper16:.L.str.6
	bl	rt_kprintf
	ldr	r0, [sp, #16]
	ldr	r0, [r0, #20]
	movs	r1, #3
	movt	r1, #32
	ands	r1, r0
	movw	r0, :lower16:.L.str.7
	movt	r0, :upper16:.L.str.7
	bl	rt_kprintf
	movw	r0, :lower16:.L.str.8
	movt	r0, :upper16:.L.str.8
	bl	rt_kprintf
	b	.LBB14_10
.Ltmp258:
.LBB14_10:
	.loc	10 85 9 is_stmt 1               @ rt-thread/components/drivers/serial/serial.c:85:9
	b	.LBB14_11
.Ltmp259:
.LBB14_11:
	.loc	10 88 10                        @ rt-thread/components/drivers/serial/serial.c:88:10
	ldr	r0, [sp, #16]
	.loc	10 88 14 is_stmt 0              @ rt-thread/components/drivers/serial/serial.c:88:14
	ldr	r0, [r0, #20]
	movs	r1, #3
	movt	r1, #32
	.loc	10 88 20                        @ rt-thread/components/drivers/serial/serial.c:88:20
	ands	r0, r1
.Ltmp260:
	.loc	10 88 9                         @ rt-thread/components/drivers/serial/serial.c:88:9
	cmp	r0, #1
	beq	.LBB14_13
	b	.LBB14_12
.LBB14_12:
.Ltmp261:
	.loc	10 89 35 is_stmt 1              @ rt-thread/components/drivers/serial/serial.c:89:35
	ldr	r0, [sp, #4]
	.loc	10 89 9 is_stmt 0               @ rt-thread/components/drivers/serial/serial.c:89:9
	movw	r1, :lower16:serial_fops_rx_ind
	movt	r1, :upper16:serial_fops_rx_ind
	bl	rt_device_set_rx_indicate
	b	.LBB14_13
.Ltmp262:
.LBB14_13:
	.loc	10 90 26 is_stmt 1              @ rt-thread/components/drivers/serial/serial.c:90:26
	ldr	r0, [sp, #4]
	.loc	10 90 34 is_stmt 0              @ rt-thread/components/drivers/serial/serial.c:90:34
	ldrh.w	r1, [sp, #10]
	.loc	10 90 11                        @ rt-thread/components/drivers/serial/serial.c:90:11
	bl	rt_device_open
	.loc	10 90 9                         @ rt-thread/components/drivers/serial/serial.c:90:9
	str	r0, [sp, #12]
.Ltmp263:
	.loc	10 91 9 is_stmt 1               @ rt-thread/components/drivers/serial/serial.c:91:9
	ldr	r0, [sp, #12]
.Ltmp264:
	.loc	10 91 9 is_stmt 0               @ rt-thread/components/drivers/serial/serial.c:91:9
	cbnz	r0, .LBB14_15
	b	.LBB14_14
.LBB14_14:
	.loc	10 0 9                          @ rt-thread/components/drivers/serial/serial.c:0:9
	movs	r0, #0
.Ltmp265:
	.loc	10 91 24                        @ rt-thread/components/drivers/serial/serial.c:91:24
	str	r0, [sp, #20]
	b	.LBB14_16
.Ltmp266:
.LBB14_15:
	.loc	10 93 12 is_stmt 1              @ rt-thread/components/drivers/serial/serial.c:93:12
	ldr	r0, [sp, #12]
	.loc	10 93 5 is_stmt 0               @ rt-thread/components/drivers/serial/serial.c:93:5
	str	r0, [sp, #20]
	b	.LBB14_16
.LBB14_16:
	.loc	10 94 1 is_stmt 1               @ rt-thread/components/drivers/serial/serial.c:94:1
	ldr	r0, [sp, #20]
	add	sp, #24
	pop	{r7, pc}
.Ltmp267:
.Lfunc_end14:
	.size	serial_fops_open, .Lfunc_end14-serial_fops_open
	.cfi_endproc
	.cantunwind
	.fnend
                                        @ -- End function
	.section	.text.serial_fops_close,"ax",%progbits
	.p2align	3                               @ -- Begin function serial_fops_close
	.type	serial_fops_close,%function
	.code	16                              @ @serial_fops_close
	.thumb_func
serial_fops_close:
.Lfunc_begin15:
	.loc	10 97 0                         @ rt-thread/components/drivers/serial/serial.c:97:0
	.fnstart
	.cfi_startproc
@ %bb.0:
	.save	{r7, lr}
	push	{r7, lr}
	.cfi_def_cfa_offset 8
	.cfi_offset lr, -4
	.cfi_offset r7, -8
	.pad	#16
	sub	sp, #16
	.cfi_def_cfa_offset 24
	str	r0, [sp, #12]
.Ltmp268:
	.loc	10 100 27 prologue_end          @ rt-thread/components/drivers/serial/serial.c:100:27
	ldr	r0, [sp, #12]
	.loc	10 100 31 is_stmt 0             @ rt-thread/components/drivers/serial/serial.c:100:31
	ldr	r0, [r0, #32]
	.loc	10 100 12                       @ rt-thread/components/drivers/serial/serial.c:100:12
	str	r0, [sp, #8]
	.loc	10 102 31 is_stmt 1             @ rt-thread/components/drivers/serial/serial.c:102:31
	ldr	r0, [sp, #8]
	movs	r1, #0
	.loc	10 102 5 is_stmt 0              @ rt-thread/components/drivers/serial/serial.c:102:5
	str	r1, [sp, #4]                    @ 4-byte Spill
	bl	rt_device_set_rx_indicate
	.loc	10 103 21 is_stmt 1             @ rt-thread/components/drivers/serial/serial.c:103:21
	ldr	r0, [sp, #8]
	.loc	10 103 5 is_stmt 0              @ rt-thread/components/drivers/serial/serial.c:103:5
	bl	rt_device_close
                                        @ kill: def $r1 killed $r0
	.loc	10 105 5 is_stmt 1              @ rt-thread/components/drivers/serial/serial.c:105:5
	ldr	r0, [sp, #4]                    @ 4-byte Reload
	add	sp, #16
	pop	{r7, pc}
.Ltmp269:
.Lfunc_end15:
	.size	serial_fops_close, .Lfunc_end15-serial_fops_close
	.cfi_endproc
	.cantunwind
	.fnend
                                        @ -- End function
	.section	.text.serial_fops_ioctl,"ax",%progbits
	.p2align	3                               @ -- Begin function serial_fops_ioctl
	.type	serial_fops_ioctl,%function
	.code	16                              @ @serial_fops_ioctl
	.thumb_func
serial_fops_ioctl:
.Lfunc_begin16:
	.loc	10 109 0                        @ rt-thread/components/drivers/serial/serial.c:109:0
	.fnstart
	.cfi_startproc
@ %bb.0:
	.save	{r7, lr}
	push	{r7, lr}
	.cfi_def_cfa_offset 8
	.cfi_offset lr, -4
	.cfi_offset r7, -8
	.pad	#24
	sub	sp, #24
	.cfi_def_cfa_offset 32
	str	r0, [sp, #20]
	str	r1, [sp, #16]
	str	r2, [sp, #12]
.Ltmp270:
	.loc	10 112 27 prologue_end          @ rt-thread/components/drivers/serial/serial.c:112:27
	ldr	r0, [sp, #20]
	.loc	10 112 31 is_stmt 0             @ rt-thread/components/drivers/serial/serial.c:112:31
	ldr	r0, [r0, #32]
	.loc	10 112 12                       @ rt-thread/components/drivers/serial/serial.c:112:12
	str	r0, [sp, #8]
	.loc	10 113 13 is_stmt 1             @ rt-thread/components/drivers/serial/serial.c:113:13
	ldr	r0, [sp, #16]
	str	r0, [sp, #4]                    @ 4-byte Spill
	movw	r1, #26233
	movt	r1, #32772
	.loc	10 113 5 is_stmt 0              @ rt-thread/components/drivers/serial/serial.c:113:5
	cmp	r0, r1
	beq	.LBB16_3
	b	.LBB16_1
.LBB16_1:
	.loc	10 0 5                          @ rt-thread/components/drivers/serial/serial.c:0:5
	ldr	r0, [sp, #4]                    @ 4-byte Reload
	movw	r1, #26239
	movt	r1, #32772
	.loc	10 113 5                        @ rt-thread/components/drivers/serial/serial.c:113:5
	cmp	r0, r1
	bne	.LBB16_4
	b	.LBB16_2
.LBB16_2:
.Ltmp271:
	.loc	10 116 9 is_stmt 1              @ rt-thread/components/drivers/serial/serial.c:116:9
	b	.LBB16_4
.LBB16_3:
	.loc	10 118 9                        @ rt-thread/components/drivers/serial/serial.c:118:9
	b	.LBB16_4
.Ltmp272:
.LBB16_4:
	.loc	10 121 30                       @ rt-thread/components/drivers/serial/serial.c:121:30
	ldr	r0, [sp, #8]
	.loc	10 121 38 is_stmt 0             @ rt-thread/components/drivers/serial/serial.c:121:38
	ldr	r1, [sp, #16]
	.loc	10 121 43                       @ rt-thread/components/drivers/serial/serial.c:121:43
	ldr	r2, [sp, #12]
	.loc	10 121 12                       @ rt-thread/components/drivers/serial/serial.c:121:12
	bl	rt_device_control
	.loc	10 121 5                        @ rt-thread/components/drivers/serial/serial.c:121:5
	add	sp, #24
	pop	{r7, pc}
.Ltmp273:
.Lfunc_end16:
	.size	serial_fops_ioctl, .Lfunc_end16-serial_fops_ioctl
	.cfi_endproc
	.cantunwind
	.fnend
                                        @ -- End function
	.section	.text.serial_fops_read,"ax",%progbits
	.p2align	3                               @ -- Begin function serial_fops_read
	.type	serial_fops_read,%function
	.code	16                              @ @serial_fops_read
	.thumb_func
serial_fops_read:
.Lfunc_begin17:
	.loc	10 125 0 is_stmt 1              @ rt-thread/components/drivers/serial/serial.c:125:0
	.fnstart
	.cfi_startproc
@ %bb.0:
	.save	{r7, lr}
	push	{r7, lr}
	.cfi_def_cfa_offset 8
	.cfi_offset lr, -4
	.cfi_offset r7, -8
	.pad	#24
	sub	sp, #24
	.cfi_def_cfa_offset 32
	str	r0, [sp, #20]
	str	r1, [sp, #16]
	str	r2, [sp, #12]
	movs	r0, #0
.Ltmp274:
	.loc	10 126 9 prologue_end           @ rt-thread/components/drivers/serial/serial.c:126:9
	str	r0, [sp, #8]
	.loc	10 129 27                       @ rt-thread/components/drivers/serial/serial.c:129:27
	ldr	r0, [sp, #20]
	.loc	10 129 31 is_stmt 0             @ rt-thread/components/drivers/serial/serial.c:129:31
	ldr	r0, [r0, #32]
	.loc	10 129 12                       @ rt-thread/components/drivers/serial/serial.c:129:12
	str	r0, [sp, #4]
	.loc	10 131 5 is_stmt 1              @ rt-thread/components/drivers/serial/serial.c:131:5
	b	.LBB17_1
.LBB17_1:                               @ =>This Inner Loop Header: Depth=1
.Ltmp275:
	.loc	10 133 31                       @ rt-thread/components/drivers/serial/serial.c:133:31
	ldr	r0, [sp, #4]
	.loc	10 133 44 is_stmt 0             @ rt-thread/components/drivers/serial/serial.c:133:44
	ldr	r2, [sp, #16]
	.loc	10 133 49                       @ rt-thread/components/drivers/serial/serial.c:133:49
	ldr	r3, [sp, #12]
	mov.w	r1, #-1
	.loc	10 133 16                       @ rt-thread/components/drivers/serial/serial.c:133:16
	bl	rt_device_read
	.loc	10 133 14                       @ rt-thread/components/drivers/serial/serial.c:133:14
	str	r0, [sp, #8]
.Ltmp276:
	.loc	10 134 13 is_stmt 1             @ rt-thread/components/drivers/serial/serial.c:134:13
	ldr	r0, [sp, #8]
.Ltmp277:
	.loc	10 134 13 is_stmt 0             @ rt-thread/components/drivers/serial/serial.c:134:13
	cmp	r0, #0
	bgt	.LBB17_5
	b	.LBB17_2
.LBB17_2:                               @   in Loop: Header=BB17_1 Depth=1
.Ltmp278:
	.loc	10 136 17 is_stmt 1             @ rt-thread/components/drivers/serial/serial.c:136:17
	ldr	r0, [sp, #20]
.Ltmp279:
	.loc	10 136 17 is_stmt 0             @ rt-thread/components/drivers/serial/serial.c:136:17
	ldrb	r0, [r0, #21]
	lsls	r0, r0, #28
	cmp	r0, #0
	bpl	.LBB17_4
	b	.LBB17_3
.LBB17_3:
	.loc	10 0 17                         @ rt-thread/components/drivers/serial/serial.c:0:17
	mvn	r0, #10
.Ltmp280:
	.loc	10 138 22 is_stmt 1             @ rt-thread/components/drivers/serial/serial.c:138:22
	str	r0, [sp, #8]
	.loc	10 139 17                       @ rt-thread/components/drivers/serial/serial.c:139:17
	b	.LBB17_7
.Ltmp281:
.LBB17_4:                               @   in Loop: Header=BB17_1 Depth=1
	.loc	10 142 30                       @ rt-thread/components/drivers/serial/serial.c:142:30
	ldr	r0, [sp, #4]
	.loc	10 142 38 is_stmt 0             @ rt-thread/components/drivers/serial/serial.c:142:38
	adds	r0, #64
	movs	r1, #0
	mov.w	r2, #-1
	.loc	10 142 13                       @ rt-thread/components/drivers/serial/serial.c:142:13
	bl	rt_wqueue_wait
	.loc	10 143 9 is_stmt 1              @ rt-thread/components/drivers/serial/serial.c:143:9
	b	.LBB17_5
.Ltmp282:
.LBB17_5:                               @   in Loop: Header=BB17_1 Depth=1
	.loc	10 144 5                        @ rt-thread/components/drivers/serial/serial.c:144:5
	b	.LBB17_6
.Ltmp283:
.LBB17_6:                               @   in Loop: Header=BB17_1 Depth=1
	.loc	10 144 13 is_stmt 0             @ rt-thread/components/drivers/serial/serial.c:144:13
	ldr	r0, [sp, #8]
.Ltmp284:
	.loc	10 144 5                        @ rt-thread/components/drivers/serial/serial.c:144:5
	cmp	r0, #1
	blt	.LBB17_1
	b	.LBB17_7
.Ltmp285:
.LBB17_7:
	.loc	10 146 12 is_stmt 1             @ rt-thread/components/drivers/serial/serial.c:146:12
	ldr	r0, [sp, #8]
	.loc	10 146 5 is_stmt 0              @ rt-thread/components/drivers/serial/serial.c:146:5
	add	sp, #24
	pop	{r7, pc}
.Ltmp286:
.Lfunc_end17:
	.size	serial_fops_read, .Lfunc_end17-serial_fops_read
	.cfi_endproc
	.cantunwind
	.fnend
                                        @ -- End function
	.section	.text.serial_fops_write,"ax",%progbits
	.p2align	3                               @ -- Begin function serial_fops_write
	.type	serial_fops_write,%function
	.code	16                              @ @serial_fops_write
	.thumb_func
serial_fops_write:
.Lfunc_begin18:
	.loc	10 150 0 is_stmt 1              @ rt-thread/components/drivers/serial/serial.c:150:0
	.fnstart
	.cfi_startproc
@ %bb.0:
	.save	{r7, lr}
	push	{r7, lr}
	.cfi_def_cfa_offset 8
	.cfi_offset lr, -4
	.cfi_offset r7, -8
	.pad	#16
	sub	sp, #16
	.cfi_def_cfa_offset 24
	str	r0, [sp, #12]
	str	r1, [sp, #8]
	str	r2, [sp, #4]
.Ltmp287:
	.loc	10 153 27 prologue_end          @ rt-thread/components/drivers/serial/serial.c:153:27
	ldr	r0, [sp, #12]
	.loc	10 153 31 is_stmt 0             @ rt-thread/components/drivers/serial/serial.c:153:31
	ldr	r0, [r0, #32]
	.loc	10 153 12                       @ rt-thread/components/drivers/serial/serial.c:153:12
	str	r0, [sp]
	.loc	10 154 28 is_stmt 1             @ rt-thread/components/drivers/serial/serial.c:154:28
	ldr	r0, [sp]
	.loc	10 154 40 is_stmt 0             @ rt-thread/components/drivers/serial/serial.c:154:40
	ldr	r2, [sp, #8]
	.loc	10 154 45                       @ rt-thread/components/drivers/serial/serial.c:154:45
	ldr	r3, [sp, #4]
	mov.w	r1, #-1
	.loc	10 154 12                       @ rt-thread/components/drivers/serial/serial.c:154:12
	bl	rt_device_write
	.loc	10 154 5                        @ rt-thread/components/drivers/serial/serial.c:154:5
	add	sp, #16
	pop	{r7, pc}
.Ltmp288:
.Lfunc_end18:
	.size	serial_fops_write, .Lfunc_end18-serial_fops_write
	.cfi_endproc
	.cantunwind
	.fnend
                                        @ -- End function
	.section	.text.serial_fops_poll,"ax",%progbits
	.p2align	3                               @ -- Begin function serial_fops_poll
	.type	serial_fops_poll,%function
	.code	16                              @ @serial_fops_poll
	.thumb_func
serial_fops_poll:
.Lfunc_begin19:
	.loc	10 158 0 is_stmt 1              @ rt-thread/components/drivers/serial/serial.c:158:0
	.fnstart
	.cfi_startproc
@ %bb.0:
	.save	{r7, lr}
	push	{r7, lr}
	.cfi_def_cfa_offset 8
	.cfi_offset lr, -4
	.cfi_offset r7, -8
	.pad	#32
	sub	sp, #32
	.cfi_def_cfa_offset 40
	str	r0, [sp, #28]
	str	r1, [sp, #24]
	movs	r0, #0
.Ltmp289:
	.loc	10 159 9 prologue_end           @ rt-thread/components/drivers/serial/serial.c:159:9
	str	r0, [sp, #20]
	.loc	10 160 9                        @ rt-thread/components/drivers/serial/serial.c:160:9
	str	r0, [sp, #16]
	.loc	10 164 27                       @ rt-thread/components/drivers/serial/serial.c:164:27
	ldr	r0, [sp, #28]
	.loc	10 164 31 is_stmt 0             @ rt-thread/components/drivers/serial/serial.c:164:31
	ldr	r0, [r0, #32]
	.loc	10 164 12                       @ rt-thread/components/drivers/serial/serial.c:164:12
	str	r0, [sp, #12]
.Ltmp290:
	.loc	10 165 5 is_stmt 1              @ rt-thread/components/drivers/serial/serial.c:165:5
	ldr	r0, [sp, #12]
.Ltmp291:
	.loc	10 165 5 is_stmt 0              @ rt-thread/components/drivers/serial/serial.c:165:5
	cbnz	r0, .LBB19_2
	b	.LBB19_1
.LBB19_1:
.Ltmp292:
	.loc	10 165 5                        @ rt-thread/components/drivers/serial/serial.c:165:5
	movw	r0, :lower16:.L.str.5
	movt	r0, :upper16:.L.str.5
	movw	r1, :lower16:.L__FUNCTION__.serial_fops_poll
	movt	r1, :upper16:.L__FUNCTION__.serial_fops_poll
	movs	r2, #165
	bl	rt_assert_handler
	b	.LBB19_2
.Ltmp293:
.LBB19_2:
	.loc	10 167 41 is_stmt 1             @ rt-thread/components/drivers/serial/serial.c:167:41
	ldr	r0, [sp, #12]
	.loc	10 167 12 is_stmt 0             @ rt-thread/components/drivers/serial/serial.c:167:12
	str	r0, [sp, #8]
	.loc	10 170 13 is_stmt 1             @ rt-thread/components/drivers/serial/serial.c:170:13
	ldr	r0, [sp, #28]
	.loc	10 170 17 is_stmt 0             @ rt-thread/components/drivers/serial/serial.c:170:17
	ldr	r0, [r0, #20]
	movs	r1, #3
	movt	r1, #32
	.loc	10 170 23                       @ rt-thread/components/drivers/serial/serial.c:170:23
	ands	r0, r1
	.loc	10 170 11                       @ rt-thread/components/drivers/serial/serial.c:170:11
	str	r0, [sp, #16]
.Ltmp294:
	.loc	10 171 9 is_stmt 1              @ rt-thread/components/drivers/serial/serial.c:171:9
	ldr	r0, [sp, #16]
	.loc	10 171 27 is_stmt 0             @ rt-thread/components/drivers/serial/serial.c:171:27
	cbz	r0, .LBB19_4
	b	.LBB19_3
.LBB19_3:
	.loc	10 171 30                       @ rt-thread/components/drivers/serial/serial.c:171:30
	ldr	r0, [sp, #16]
.Ltmp295:
	.loc	10 171 9                        @ rt-thread/components/drivers/serial/serial.c:171:9
	cmp	r0, #2
	bne	.LBB19_9
	b	.LBB19_4
.LBB19_4:
.Ltmp296:
	.loc	10 176 23 is_stmt 1             @ rt-thread/components/drivers/serial/serial.c:176:23
	ldr	r0, [sp, #12]
	.loc	10 176 31 is_stmt 0             @ rt-thread/components/drivers/serial/serial.c:176:31
	adds	r0, #64
	.loc	10 176 44                       @ rt-thread/components/drivers/serial/serial.c:176:44
	ldr	r1, [sp, #24]
	.loc	10 176 9                        @ rt-thread/components/drivers/serial/serial.c:176:9
	bl	rt_poll_add
	.loc	10 178 47 is_stmt 1             @ rt-thread/components/drivers/serial/serial.c:178:47
	ldr	r0, [sp, #8]
	.loc	10 178 55 is_stmt 0             @ rt-thread/components/drivers/serial/serial.c:178:55
	ldr	r0, [r0, #92]
	.loc	10 178 17                       @ rt-thread/components/drivers/serial/serial.c:178:17
	str	r0, [sp]
	.loc	10 180 17 is_stmt 1             @ rt-thread/components/drivers/serial/serial.c:180:17
	bl	rt_hw_interrupt_disable
	.loc	10 180 15 is_stmt 0             @ rt-thread/components/drivers/serial/serial.c:180:15
	str	r0, [sp, #4]
.Ltmp297:
	.loc	10 181 14 is_stmt 1             @ rt-thread/components/drivers/serial/serial.c:181:14
	ldr	r1, [sp]
	.loc	10 181 23 is_stmt 0             @ rt-thread/components/drivers/serial/serial.c:181:23
	ldrh	r0, [r1, #6]
	.loc	10 181 45                       @ rt-thread/components/drivers/serial/serial.c:181:45
	ldrh	r1, [r1, #4]
	.loc	10 181 56                       @ rt-thread/components/drivers/serial/serial.c:181:56
	cmp	r0, r1
	bne	.LBB19_7
	b	.LBB19_5
.LBB19_5:
	.loc	10 181 60                       @ rt-thread/components/drivers/serial/serial.c:181:60
	ldr	r1, [sp]
	.loc	10 181 69                       @ rt-thread/components/drivers/serial/serial.c:181:69
	ldrh	r0, [r1, #6]
	.loc	10 181 91                       @ rt-thread/components/drivers/serial/serial.c:181:91
	ldrh	r1, [r1, #4]
	.loc	10 181 101                      @ rt-thread/components/drivers/serial/serial.c:181:101
	cmp	r0, r1
	bne	.LBB19_8
	b	.LBB19_6
.LBB19_6:
	.loc	10 181 104                      @ rt-thread/components/drivers/serial/serial.c:181:104
	ldr	r0, [sp]
	.loc	10 181 113                      @ rt-thread/components/drivers/serial/serial.c:181:113
	ldr	r0, [r0, #8]
.Ltmp298:
	.loc	10 181 13                       @ rt-thread/components/drivers/serial/serial.c:181:13
	cmp	r0, #1
	bne	.LBB19_8
	b	.LBB19_7
.LBB19_7:
.Ltmp299:
	.loc	10 182 18 is_stmt 1             @ rt-thread/components/drivers/serial/serial.c:182:18
	ldr	r0, [sp, #20]
	orr	r0, r0, #1
	str	r0, [sp, #20]
	.loc	10 182 13 is_stmt 0             @ rt-thread/components/drivers/serial/serial.c:182:13
	b	.LBB19_8
.Ltmp300:
.LBB19_8:
	.loc	10 183 32 is_stmt 1             @ rt-thread/components/drivers/serial/serial.c:183:32
	ldr	r0, [sp, #4]
	.loc	10 183 9 is_stmt 0              @ rt-thread/components/drivers/serial/serial.c:183:9
	bl	rt_hw_interrupt_enable
	.loc	10 184 5 is_stmt 1              @ rt-thread/components/drivers/serial/serial.c:184:5
	b	.LBB19_9
.Ltmp301:
.LBB19_9:
	.loc	10 185 9                        @ rt-thread/components/drivers/serial/serial.c:185:9
	ldr	r0, [sp, #20]
	orr	r0, r0, #2
	str	r0, [sp, #20]
	.loc	10 186 12                       @ rt-thread/components/drivers/serial/serial.c:186:12
	ldr	r0, [sp, #20]
	.loc	10 186 5 is_stmt 0              @ rt-thread/components/drivers/serial/serial.c:186:5
	add	sp, #32
	pop	{r7, pc}
.Ltmp302:
.Lfunc_end19:
	.size	serial_fops_poll, .Lfunc_end19-serial_fops_poll
	.cfi_endproc
	.cantunwind
	.fnend
                                        @ -- End function
	.section	.text.serial_fops_rx_ind,"ax",%progbits
	.p2align	3                               @ -- Begin function serial_fops_rx_ind
	.type	serial_fops_rx_ind,%function
	.code	16                              @ @serial_fops_rx_ind
	.thumb_func
serial_fops_rx_ind:
.Lfunc_begin20:
	.loc	10 53 0 is_stmt 1               @ rt-thread/components/drivers/serial/serial.c:53:0
	.fnstart
	.cfi_startproc
@ %bb.0:
	.save	{r7, lr}
	push	{r7, lr}
	.cfi_def_cfa_offset 8
	.cfi_offset lr, -4
	.cfi_offset r7, -8
	.pad	#8
	sub	sp, #8
	.cfi_def_cfa_offset 16
	str	r0, [sp, #4]
	str	r1, [sp]
.Ltmp303:
	.loc	10 54 24 prologue_end           @ rt-thread/components/drivers/serial/serial.c:54:24
	ldr	r0, [sp, #4]
	.loc	10 54 29 is_stmt 0              @ rt-thread/components/drivers/serial/serial.c:54:29
	adds	r0, #64
	movs	r1, #1
	.loc	10 54 5                         @ rt-thread/components/drivers/serial/serial.c:54:5
	bl	rt_wqueue_wakeup
	movs	r0, #0
	.loc	10 56 5 is_stmt 1               @ rt-thread/components/drivers/serial/serial.c:56:5
	add	sp, #8
	pop	{r7, pc}
.Ltmp304:
.Lfunc_end20:
	.size	serial_fops_rx_ind, .Lfunc_end20-serial_fops_rx_ind
	.cfi_endproc
	.cantunwind
	.fnend
                                        @ -- End function
	.section	.text.rt_poll_add,"ax",%progbits
	.p2align	3                               @ -- Begin function rt_poll_add
	.type	rt_poll_add,%function
	.code	16                              @ @rt_poll_add
	.thumb_func
rt_poll_add:
.Lfunc_begin21:
	.loc	9 28 0                          @ rt-thread/components/drivers/include/ipc/poll.h:28:0
	.fnstart
	.cfi_startproc
@ %bb.0:
	.save	{r7, lr}
	push	{r7, lr}
	.cfi_def_cfa_offset 8
	.cfi_offset lr, -4
	.cfi_offset r7, -8
	.pad	#8
	sub	sp, #8
	.cfi_def_cfa_offset 16
	str	r0, [sp, #4]
	str	r1, [sp]
.Ltmp305:
	.loc	9 29 9 prologue_end             @ rt-thread/components/drivers/include/ipc/poll.h:29:9
	ldr	r0, [sp]
	.loc	9 29 13 is_stmt 0               @ rt-thread/components/drivers/include/ipc/poll.h:29:13
	cbz	r0, .LBB21_4
	b	.LBB21_1
.LBB21_1:
	.loc	9 29 16                         @ rt-thread/components/drivers/include/ipc/poll.h:29:16
	ldr	r0, [sp]
	.loc	9 29 21                         @ rt-thread/components/drivers/include/ipc/poll.h:29:21
	ldr	r0, [r0]
	.loc	9 29 27                         @ rt-thread/components/drivers/include/ipc/poll.h:29:27
	cbz	r0, .LBB21_4
	b	.LBB21_2
.LBB21_2:
	.loc	9 29 30                         @ rt-thread/components/drivers/include/ipc/poll.h:29:30
	ldr	r0, [sp, #4]
.Ltmp306:
	.loc	9 29 9                          @ rt-thread/components/drivers/include/ipc/poll.h:29:9
	cbz	r0, .LBB21_4
	b	.LBB21_3
.LBB21_3:
.Ltmp307:
	.loc	9 31 9 is_stmt 1                @ rt-thread/components/drivers/include/ipc/poll.h:31:9
	ldr	r1, [sp]
	.loc	9 31 14 is_stmt 0               @ rt-thread/components/drivers/include/ipc/poll.h:31:14
	ldr	r2, [r1]
	.loc	9 31 20                         @ rt-thread/components/drivers/include/ipc/poll.h:31:20
	ldr	r0, [sp, #4]
	.loc	9 31 9                          @ rt-thread/components/drivers/include/ipc/poll.h:31:9
	blx	r2
	.loc	9 32 5 is_stmt 1                @ rt-thread/components/drivers/include/ipc/poll.h:32:5
	b	.LBB21_4
.Ltmp308:
.LBB21_4:
	.loc	9 33 1                          @ rt-thread/components/drivers/include/ipc/poll.h:33:1
	add	sp, #8
	pop	{r7, pc}
.Ltmp309:
.Lfunc_end21:
	.size	rt_poll_add, .Lfunc_end21-rt_poll_add
	.cfi_endproc
	.cantunwind
	.fnend
                                        @ -- End function
	.type	.L.str,%object                  @ @.str
	.section	.rodata.str1.1,"aMS",%progbits,1
.L.str:
	.asciz	"serial != RT_NULL"
	.size	.L.str, 18

	.type	.L__FUNCTION__.rt_hw_serial_register,%object @ @__FUNCTION__.rt_hw_serial_register
.L__FUNCTION__.rt_hw_serial_register:
	.asciz	"rt_hw_serial_register"
	.size	.L__FUNCTION__.rt_hw_serial_register, 22

	.type	_serial_fops,%object            @ @_serial_fops
	.section	.rodata._serial_fops,"a",%progbits
	.p2align	2
_serial_fops:
	.long	serial_fops_open
	.long	serial_fops_close
	.long	serial_fops_ioctl
	.long	serial_fops_read
	.long	serial_fops_write
	.long	0
	.long	0
	.long	0
	.long	serial_fops_poll
	.size	_serial_fops, 36

	.type	.L.str.1,%object                @ @.str.1
	.section	.rodata.str1.1,"aMS",%progbits,1
.L.str.1:
	.asciz	"rx_fifo != RT_NULL"
	.size	.L.str.1, 19

	.type	.L__FUNCTION__.rt_hw_serial_isr,%object @ @__FUNCTION__.rt_hw_serial_isr
.L__FUNCTION__.rt_hw_serial_isr:
	.asciz	"rt_hw_serial_isr"
	.size	.L__FUNCTION__.rt_hw_serial_isr, 17

	.type	.L.str.2,%object                @ @.str.2
.L.str.2:
	.asciz	"dev != RT_NULL"
	.size	.L.str.2, 15

	.type	.L__FUNCTION__.rt_serial_init,%object @ @__FUNCTION__.rt_serial_init
.L__FUNCTION__.rt_serial_init:
	.asciz	"rt_serial_init"
	.size	.L__FUNCTION__.rt_serial_init, 15

	.type	.L__FUNCTION__.rt_serial_open,%object @ @__FUNCTION__.rt_serial_open
.L__FUNCTION__.rt_serial_open:
	.asciz	"rt_serial_open"
	.size	.L__FUNCTION__.rt_serial_open, 15

	.type	.L.str.3,%object                @ @.str.3
.L.str.3:
	.asciz	"tx_fifo != RT_NULL"
	.size	.L.str.3, 19

	.type	.L__FUNCTION__.rt_serial_close,%object @ @__FUNCTION__.rt_serial_close
.L__FUNCTION__.rt_serial_close:
	.asciz	"rt_serial_close"
	.size	.L__FUNCTION__.rt_serial_close, 16

	.type	.L__FUNCTION__.rt_serial_read,%object @ @__FUNCTION__.rt_serial_read
.L__FUNCTION__.rt_serial_read:
	.asciz	"rt_serial_read"
	.size	.L__FUNCTION__.rt_serial_read, 15

	.type	.L__FUNCTION__._serial_int_rx,%object @ @__FUNCTION__._serial_int_rx
.L__FUNCTION__._serial_int_rx:
	.asciz	"_serial_int_rx"
	.size	.L__FUNCTION__._serial_int_rx, 15

	.type	.L__FUNCTION__._serial_poll_rx,%object @ @__FUNCTION__._serial_poll_rx
.L__FUNCTION__._serial_poll_rx:
	.asciz	"_serial_poll_rx"
	.size	.L__FUNCTION__._serial_poll_rx, 16

	.type	.L__FUNCTION__.rt_serial_write,%object @ @__FUNCTION__.rt_serial_write
.L__FUNCTION__.rt_serial_write:
	.asciz	"rt_serial_write"
	.size	.L__FUNCTION__.rt_serial_write, 16

	.type	.L__FUNCTION__._serial_int_tx,%object @ @__FUNCTION__._serial_int_tx
.L__FUNCTION__._serial_int_tx:
	.asciz	"_serial_int_tx"
	.size	.L__FUNCTION__._serial_int_tx, 15

	.type	.L.str.4,%object                @ @.str.4
.L.str.4:
	.asciz	"tx != RT_NULL"
	.size	.L.str.4, 14

	.type	.L__FUNCTION__._serial_poll_tx,%object @ @__FUNCTION__._serial_poll_tx
.L__FUNCTION__._serial_poll_tx:
	.asciz	"_serial_poll_tx"
	.size	.L__FUNCTION__._serial_poll_tx, 16

	.type	.L__FUNCTION__.rt_serial_control,%object @ @__FUNCTION__.rt_serial_control
.L__FUNCTION__.rt_serial_control:
	.asciz	"rt_serial_control"
	.size	.L__FUNCTION__.rt_serial_control, 18

	.type	.L__FUNCTION__._serial_fifo_calc_recved_len,%object @ @__FUNCTION__._serial_fifo_calc_recved_len
.L__FUNCTION__._serial_fifo_calc_recved_len:
	.asciz	"_serial_fifo_calc_recved_len"
	.size	.L__FUNCTION__._serial_fifo_calc_recved_len, 29

	.type	.L.str.5,%object                @ @.str.5
.L.str.5:
	.asciz	"device != RT_NULL"
	.size	.L.str.5, 18

	.type	.L__FUNCTION__.serial_fops_open,%object @ @__FUNCTION__.serial_fops_open
.L__FUNCTION__.serial_fops_open:
	.asciz	"serial_fops_open"
	.size	.L__FUNCTION__.serial_fops_open, 17

	.type	.L.str.6,%object                @ @.str.6
.L.str.6:
	.asciz	"[E/UART] "
	.size	.L.str.6, 10

	.type	.L.str.7,%object                @ @.str.7
.L.str.7:
	.asciz	"fops open: unknown mode - %d!"
	.size	.L.str.7, 30

	.type	.L.str.8,%object                @ @.str.8
.L.str.8:
	.asciz	"\n"
	.size	.L.str.8, 2

	.type	.L__FUNCTION__.serial_fops_poll,%object @ @__FUNCTION__.serial_fops_poll
.L__FUNCTION__.serial_fops_poll:
	.asciz	"serial_fops_poll"
	.size	.L__FUNCTION__.serial_fops_poll, 17

	.type	_serial_check_buffer_size.already_output,%object @ @_serial_check_buffer_size.already_output
	.section	.bss._serial_check_buffer_size.already_output,"aw",%nobits
	.p2align	2
_serial_check_buffer_size.already_output:
	.long	0                               @ 0x0
	.size	_serial_check_buffer_size.already_output, 4

	.type	.L.str.9,%object                @ @.str.9
	.section	.rodata.str1.1,"aMS",%progbits,1
.L.str.9:
	.asciz	"[W/UART] "
	.size	.L.str.9, 10

	.type	.L.str.10,%object               @ @.str.10
.L.str.10:
	.asciz	"Warning: There is no enough buffer for saving data, please increase the RT_SERIAL_RB_BUFSZ option."
	.size	.L.str.10, 99

	.section	".note.GNU-stack","",%progbits
	.eabi_attribute	30, 6	@ Tag_ABI_optimization_goals
	.ARM_attribute	16, 1	@ Tag_AV_eba