	.text
	.syntax unified
	.eabi_attribute	67, "2.09"	@ Tag_conformance
	.cpu	cortex-m7
	.eabi_attribute	6, 13	@ Tag_CPU_arch
	.eabi_attribute	7, 77	@ Tag_CPU_arch_profile
	.eabi_attribute	8, 0	@ Tag_ARM_ISA_use
	.eabi_attribute	9, 2	@ Tag_THUMB_ISA_use
	.fpu	fpv5-d16
	.eabi_attribute	36, 1	@ Tag_FP_HP_extension
	.eabi_attribute	34, 1	@ Tag_CPU_unaligned_access
	.eabi_attribute	17, 1	@ Tag_ABI_PCS_GOT_use
	.eabi_attribute	20, 2	@ Tag_ABI_FP_denormal
	.eabi_attribute	21, 0	@ Tag_ABI_FP_exceptions
	.eabi_attribute	23, 1	@ Tag_ABI_FP_number_model
	.eabi_attribute	24, 1	@ Tag_ABI_align_needed
	.eabi_attribute	25, 1	@ Tag_ABI_align_preserved
	.eabi_attribute	28, 1	@ Tag_ABI_VFP_args
	.eabi_attribute	38, 1	@ Tag_ABI_FP_16bit_format
	.eabi_attribute	18, 2	@ Tag_ABI_PCS_wchar_t
	.eabi_attribute	26, 1	@ Tag_ABI_enum_size
	.eabi_attribute	14, 0	@ Tag_ABI_PCS_R9_use
	.file	"sfud.c"
	.file	1 "E:\\STM32\\Learning\\STM32H750_ART_PI_RGBLCD" "./rt-thread/components/drivers/spi/sfud/inc/sfud_def.h"
	.file	2 "D:\\Keil_v5\\ARM\\ARMCLANG\\Bin\\..\\include" "stdio.h"
	.file	3 "E:\\STM32\\Learning\\STM32H750_ART_PI_RGBLCD" "./rt-thread/components/drivers/spi/sfud/inc/sfud_flash_def.h"
	.file	4 "D:\\Keil_v5\\ARM\\ARMCLANG\\Bin\\..\\include" "stdint.h"
	.file	5 "E:\\STM32\\Learning\\STM32H750_ART_PI_RGBLCD" "rt-thread/components/drivers/spi/sfud/src/sfud.c"
	.section	.text.sfud_device_init,"ax",%progbits
	.hidden	sfud_device_init                @ -- Begin function sfud_device_init
	.globl	sfud_device_init
	.p2align	3
	.type	sfud_device_init,%function
	.code	16                              @ @sfud_device_init
	.thumb_func
sfud_device_init:
.Lfunc_begin0:
	.loc	5 88 0                          @ rt-thread/components/drivers/spi/sfud/src/sfud.c:88:0
	.fnstart
	.cfi_sections .debug_frame
	.cfi_startproc
@ %bb.0:
	.save	{r7, lr}
	push	{r7, lr}
	.cfi_def_cfa_offset 8
	.cfi_offset lr, -4
	.cfi_offset r7, -8
	.pad	#8
	sub	sp, #8
	.cfi_def_cfa_offset 16
	str	r0, [sp, #4]
	movs	r0, #0
.Ltmp0:
	.loc	5 89 14 prologue_end            @ rt-thread/components/drivers/spi/sfud/src/sfud.c:89:14
	strb.w	r0, [sp, #3]
	.loc	5 92 28                         @ rt-thread/components/drivers/spi/sfud/src/sfud.c:92:28
	ldr	r0, [sp, #4]
	.loc	5 92 14 is_stmt 0               @ rt-thread/components/drivers/spi/sfud/src/sfud.c:92:14
	bl	hardware_init
	.loc	5 92 12                         @ rt-thread/components/drivers/spi/sfud/src/sfud.c:92:12
	strb.w	r0, [sp, #3]
.Ltmp1:
	.loc	5 93 9 is_stmt 1                @ rt-thread/components/drivers/spi/sfud/src/sfud.c:93:9
	ldrb.w	r0, [sp, #3]
.Ltmp2:
	.loc	5 93 9 is_stmt 0                @ rt-thread/components/drivers/spi/sfud/src/sfud.c:93:9
	cbnz	r0, .LBB0_2
	b	.LBB0_1
.LBB0_1:
.Ltmp3:
	.loc	5 94 32 is_stmt 1               @ rt-thread/components/drivers/spi/sfud/src/sfud.c:94:32
	ldr	r0, [sp, #4]
	.loc	5 94 18 is_stmt 0               @ rt-thread/components/drivers/spi/sfud/src/sfud.c:94:18
	bl	software_init
	.loc	5 94 16                         @ rt-thread/components/drivers/spi/sfud/src/sfud.c:94:16
	strb.w	r0, [sp, #3]
	.loc	5 95 5 is_stmt 1                @ rt-thread/components/drivers/spi/sfud/src/sfud.c:95:5
	b	.LBB0_2
.Ltmp4:
.LBB0_2:
	.loc	5 96 9                          @ rt-thread/components/drivers/spi/sfud/src/sfud.c:96:9
	ldrb.w	r0, [sp, #3]
.Ltmp5:
	.loc	5 96 9 is_stmt 0                @ rt-thread/components/drivers/spi/sfud/src/sfud.c:96:9
	cbnz	r0, .LBB0_6
	b	.LBB0_3
.LBB0_3:
.Ltmp6:
	.loc	5 97 9 is_stmt 1                @ rt-thread/components/drivers/spi/sfud/src/sfud.c:97:9
	ldr	r1, [sp, #4]
	movs	r0, #1
	.loc	5 97 24 is_stmt 0               @ rt-thread/components/drivers/spi/sfud/src/sfud.c:97:24
	strb.w	r0, [r1, #52]
	.loc	5 98 9 is_stmt 1                @ rt-thread/components/drivers/spi/sfud/src/sfud.c:98:9
	b	.LBB0_4
.LBB0_4:
.Ltmp7:
	.loc	5 98 9 is_stmt 0                @ rt-thread/components/drivers/spi/sfud/src/sfud.c:98:9
	movw	r0, :lower16:.L.str
	movt	r0, :upper16:.L.str
	bl	rt_kprintf
	ldr	r0, [sp, #4]
	ldr	r1, [r0]
	movw	r0, :lower16:.L.str.1
	movt	r0, :upper16:.L.str.1
	bl	rt_kprintf
	movw	r0, :lower16:.L.str.2
	movt	r0, :upper16:.L.str.2
	bl	rt_kprintf
	b	.LBB0_5
.Ltmp8:
.LBB0_5:
	.loc	5 99 5 is_stmt 1                @ rt-thread/components/drivers/spi/sfud/src/sfud.c:99:5
	b	.LBB0_9
.Ltmp9:
.LBB0_6:
	.loc	5 100 9                         @ rt-thread/components/drivers/spi/sfud/src/sfud.c:100:9
	ldr	r1, [sp, #4]
	movs	r0, #0
	.loc	5 100 24 is_stmt 0              @ rt-thread/components/drivers/spi/sfud/src/sfud.c:100:24
	strb.w	r0, [r1, #52]
	.loc	5 101 9 is_stmt 1               @ rt-thread/components/drivers/spi/sfud/src/sfud.c:101:9
	b	.LBB0_7
.LBB0_7:
.Ltmp10:
	.loc	5 101 9 is_stmt 0               @ rt-thread/components/drivers/spi/sfud/src/sfud.c:101:9
	movw	r0, :lower16:.L.str
	movt	r0, :upper16:.L.str
	bl	rt_kprintf
	ldr	r0, [sp, #4]
	ldr	r1, [r0]
	movw	r0, :lower16:.L.str.3
	movt	r0, :upper16:.L.str.3
	bl	rt_kprintf
	movw	r0, :lower16:.L.str.2
	movt	r0, :upper16:.L.str.2
	bl	rt_kprintf
	b	.LBB0_8
.Ltmp11:
.LBB0_8:
	.loc	5 0 9                           @ rt-thread/components/drivers/spi/sfud/src/sfud.c:0:9
	b	.LBB0_9
.LBB0_9:
	.loc	5 104 12 is_stmt 1              @ rt-thread/components/drivers/spi/sfud/src/sfud.c:104:12
	ldrb.w	r0, [sp, #3]
	.loc	5 104 5 is_stmt 0               @ rt-thread/components/drivers/spi/sfud/src/sfud.c:104:5
	add	sp, #8
	pop	{r7, pc}
.Ltmp12:
.Lfunc_end0:
	.size	sfud_device_init, .Lfunc_end0-sfud_device_init
	.cfi_endproc
	.cantunwind
	.fnend
                                        @ -- End function
	.section	.text.hardware_init,"ax",%progbits
	.p2align	3                               @ -- Begin function hardware_init
	.type	hardware_init,%function
	.code	16                              @ @hardware_init
	.thumb_func
hardware_init:
.Lfunc_begin1:
	.loc	5 246 0 is_stmt 1               @ rt-thread/components/drivers/spi/sfud/src/sfud.c:246:0
	.fnstart
	.cfi_startproc
@ %bb.0:
	.save	{r7, lr}
	push	{r7, lr}
	.cfi_def_cfa_offset 8
	.cfi_offset lr, -4
	.cfi_offset r7, -8
	.pad	#24
	sub	sp, #24
	.cfi_def_cfa_offset 32
	str	r0, [sp, #16]
	movs	r0, #0
.Ltmp13:
	.loc	5 249 14 prologue_end           @ rt-thread/components/drivers/spi/sfud/src/sfud.c:249:14
	strb.w	r0, [sp, #15]
	.loc	5 254 33                        @ rt-thread/components/drivers/spi/sfud/src/sfud.c:254:33
	ldr	r0, [sp, #16]
	.loc	5 254 14 is_stmt 0              @ rt-thread/components/drivers/spi/sfud/src/sfud.c:254:14
	bl	sfud_spi_port_init
	.loc	5 254 12                        @ rt-thread/components/drivers/spi/sfud/src/sfud.c:254:12
	strb.w	r0, [sp, #15]
.Ltmp14:
	.loc	5 255 9 is_stmt 1               @ rt-thread/components/drivers/spi/sfud/src/sfud.c:255:9
	ldrb.w	r0, [sp, #15]
.Ltmp15:
	.loc	5 255 9 is_stmt 0               @ rt-thread/components/drivers/spi/sfud/src/sfud.c:255:9
	cbz	r0, .LBB1_2
	b	.LBB1_1
.LBB1_1:
.Ltmp16:
	.loc	5 256 16 is_stmt 1              @ rt-thread/components/drivers/spi/sfud/src/sfud.c:256:16
	ldrb.w	r0, [sp, #15]
	.loc	5 256 9 is_stmt 0               @ rt-thread/components/drivers/spi/sfud/src/sfud.c:256:9
	strb.w	r0, [sp, #23]
	b	.LBB1_67
.Ltmp17:
.LBB1_2:
	.loc	5 267 9 is_stmt 1               @ rt-thread/components/drivers/spi/sfud/src/sfud.c:267:9
	ldr	r0, [sp, #16]
	.loc	5 267 21 is_stmt 0              @ rt-thread/components/drivers/spi/sfud/src/sfud.c:267:21
	ldr	r0, [r0, #16]
	.loc	5 267 35                        @ rt-thread/components/drivers/spi/sfud/src/sfud.c:267:35
	cbz	r0, .LBB1_6
	b	.LBB1_3
.LBB1_3:
	.loc	5 267 38                        @ rt-thread/components/drivers/spi/sfud/src/sfud.c:267:38
	ldr	r0, [sp, #16]
	.loc	5 267 50                        @ rt-thread/components/drivers/spi/sfud/src/sfud.c:267:50
	ldrh	r0, [r0, #20]
	.loc	5 267 66                        @ rt-thread/components/drivers/spi/sfud/src/sfud.c:267:66
	cbz	r0, .LBB1_6
	b	.LBB1_4
.LBB1_4:
	.loc	5 267 69                        @ rt-thread/components/drivers/spi/sfud/src/sfud.c:267:69
	ldr	r0, [sp, #16]
	.loc	5 267 81                        @ rt-thread/components/drivers/spi/sfud/src/sfud.c:267:81
	ldr	r0, [r0, #24]
	.loc	5 268 13 is_stmt 1              @ rt-thread/components/drivers/spi/sfud/src/sfud.c:268:13
	cbz	r0, .LBB1_6
	b	.LBB1_5
.LBB1_5:
	.loc	5 268 16 is_stmt 0              @ rt-thread/components/drivers/spi/sfud/src/sfud.c:268:16
	ldr	r0, [sp, #16]
	.loc	5 268 28                        @ rt-thread/components/drivers/spi/sfud/src/sfud.c:268:28
	ldrb	r0, [r0, #28]
.Ltmp18:
	.loc	5 267 9 is_stmt 1               @ rt-thread/components/drivers/spi/sfud/src/sfud.c:267:9
	cmp	r0, #0
	bne.w	.LBB1_30
	b	.LBB1_6
.LBB1_6:
.Ltmp19:
	.loc	5 270 32                        @ rt-thread/components/drivers/spi/sfud/src/sfud.c:270:32
	ldr	r0, [sp, #16]
	.loc	5 270 18 is_stmt 0              @ rt-thread/components/drivers/spi/sfud/src/sfud.c:270:18
	bl	read_jedec_id
	.loc	5 270 16                        @ rt-thread/components/drivers/spi/sfud/src/sfud.c:270:16
	strb.w	r0, [sp, #15]
.Ltmp20:
	.loc	5 271 13 is_stmt 1              @ rt-thread/components/drivers/spi/sfud/src/sfud.c:271:13
	ldrb.w	r0, [sp, #15]
.Ltmp21:
	.loc	5 271 13 is_stmt 0              @ rt-thread/components/drivers/spi/sfud/src/sfud.c:271:13
	cbz	r0, .LBB1_8
	b	.LBB1_7
.LBB1_7:
.Ltmp22:
	.loc	5 272 20 is_stmt 1              @ rt-thread/components/drivers/spi/sfud/src/sfud.c:272:20
	ldrb.w	r0, [sp, #15]
	.loc	5 272 13 is_stmt 0              @ rt-thread/components/drivers/spi/sfud/src/sfud.c:272:13
	strb.w	r0, [sp, #23]
	b	.LBB1_67
.Ltmp23:
.LBB1_8:
	.loc	5 278 28 is_stmt 1              @ rt-thread/components/drivers/spi/sfud/src/sfud.c:278:28
	ldr	r0, [sp, #16]
	.loc	5 278 13 is_stmt 0              @ rt-thread/components/drivers/spi/sfud/src/sfud.c:278:13
	bl	sfud_read_sfdp
.Ltmp24:
	.loc	5 278 13                        @ rt-thread/components/drivers/spi/sfud/src/sfud.c:278:13
	cmp	r0, #0
	beq	.LBB1_20
	b	.LBB1_9
.LBB1_9:
.Ltmp25:
	.loc	5 279 13 is_stmt 1              @ rt-thread/components/drivers/spi/sfud/src/sfud.c:279:13
	ldr	r1, [sp, #16]
	movs	r0, #0
	.loc	5 279 30 is_stmt 0              @ rt-thread/components/drivers/spi/sfud/src/sfud.c:279:30
	str	r0, [r1, #8]
	.loc	5 280 36 is_stmt 1              @ rt-thread/components/drivers/spi/sfud/src/sfud.c:280:36
	ldr	r1, [sp, #16]
	.loc	5 280 48 is_stmt 0              @ rt-thread/components/drivers/spi/sfud/src/sfud.c:280:48
	ldr	r0, [r1, #80]
	.loc	5 280 34                        @ rt-thread/components/drivers/spi/sfud/src/sfud.c:280:34
	str	r0, [r1, #16]
.Ltmp26:
	.loc	5 282 17 is_stmt 1              @ rt-thread/components/drivers/spi/sfud/src/sfud.c:282:17
	ldr	r0, [sp, #16]
	.loc	5 282 29 is_stmt 0              @ rt-thread/components/drivers/spi/sfud/src/sfud.c:282:29
	ldrh.w	r0, [r0, #72]
.Ltmp27:
	.loc	5 282 17                        @ rt-thread/components/drivers/spi/sfud/src/sfud.c:282:17
	cmp	r0, #1
	bne	.LBB1_11
	b	.LBB1_10
.LBB1_10:
.Ltmp28:
	.loc	5 283 17 is_stmt 1              @ rt-thread/components/drivers/spi/sfud/src/sfud.c:283:17
	ldr	r1, [sp, #16]
	movs	r0, #2
	.loc	5 283 40 is_stmt 0              @ rt-thread/components/drivers/spi/sfud/src/sfud.c:283:40
	strh	r0, [r1, #20]
	.loc	5 284 13 is_stmt 1              @ rt-thread/components/drivers/spi/sfud/src/sfud.c:284:13
	b	.LBB1_12
.Ltmp29:
.LBB1_11:
	.loc	5 285 17                        @ rt-thread/components/drivers/spi/sfud/src/sfud.c:285:17
	ldr	r1, [sp, #16]
	movs	r0, #1
	.loc	5 285 40 is_stmt 0              @ rt-thread/components/drivers/spi/sfud/src/sfud.c:285:40
	strh	r0, [r1, #20]
	b	.LBB1_12
.Ltmp30:
.LBB1_12:
	.loc	5 288 38 is_stmt 1              @ rt-thread/components/drivers/spi/sfud/src/sfud.c:288:38
	ldr	r1, [sp, #16]
	.loc	5 288 60 is_stmt 0              @ rt-thread/components/drivers/spi/sfud/src/sfud.c:288:60
	ldr	r0, [r1, #84]
	.loc	5 288 36                        @ rt-thread/components/drivers/spi/sfud/src/sfud.c:288:36
	str	r0, [r1, #24]
	.loc	5 289 42 is_stmt 1              @ rt-thread/components/drivers/spi/sfud/src/sfud.c:289:42
	ldr	r1, [sp, #16]
	.loc	5 289 64 is_stmt 0              @ rt-thread/components/drivers/spi/sfud/src/sfud.c:289:64
	ldrb.w	r0, [r1, #88]
	.loc	5 289 40                        @ rt-thread/components/drivers/spi/sfud/src/sfud.c:289:40
	strb	r0, [r1, #28]
	movs	r0, #1
.Ltmp31:
	.loc	5 290 20 is_stmt 1              @ rt-thread/components/drivers/spi/sfud/src/sfud.c:290:20
	str	r0, [sp, #8]
	.loc	5 290 18 is_stmt 0              @ rt-thread/components/drivers/spi/sfud/src/sfud.c:290:18
	b	.LBB1_13
.LBB1_13:                               @ =>This Inner Loop Header: Depth=1
.Ltmp32:
	.loc	5 290 25                        @ rt-thread/components/drivers/spi/sfud/src/sfud.c:290:25
	ldr	r0, [sp, #8]
.Ltmp33:
	.loc	5 290 13                        @ rt-thread/components/drivers/spi/sfud/src/sfud.c:290:13
	cmp	r0, #3
	bhi	.LBB1_19
	b	.LBB1_14
.LBB1_14:                               @   in Loop: Header=BB1_13 Depth=1
.Ltmp34:
	.loc	5 291 21 is_stmt 1              @ rt-thread/components/drivers/spi/sfud/src/sfud.c:291:21
	ldr	r0, [sp, #16]
	.loc	5 291 40 is_stmt 0              @ rt-thread/components/drivers/spi/sfud/src/sfud.c:291:40
	ldr	r1, [sp, #8]
	.loc	5 291 28                        @ rt-thread/components/drivers/spi/sfud/src/sfud.c:291:28
	add.w	r0, r0, r1, lsl #3
	.loc	5 291 43                        @ rt-thread/components/drivers/spi/sfud/src/sfud.c:291:43
	ldr	r0, [r0, #84]
	.loc	5 291 53                        @ rt-thread/components/drivers/spi/sfud/src/sfud.c:291:53
	cbz	r0, .LBB1_17
	b	.LBB1_15
.LBB1_15:                               @   in Loop: Header=BB1_13 Depth=1
	.loc	5 291 56                        @ rt-thread/components/drivers/spi/sfud/src/sfud.c:291:56
	ldr	r1, [sp, #16]
	.loc	5 291 68                        @ rt-thread/components/drivers/spi/sfud/src/sfud.c:291:68
	ldr	r0, [r1, #24]
	.loc	5 291 100                       @ rt-thread/components/drivers/spi/sfud/src/sfud.c:291:100
	ldr	r2, [sp, #8]
	.loc	5 291 88                        @ rt-thread/components/drivers/spi/sfud/src/sfud.c:291:88
	add.w	r1, r1, r2, lsl #3
	.loc	5 291 103                       @ rt-thread/components/drivers/spi/sfud/src/sfud.c:291:103
	ldr	r1, [r1, #84]
.Ltmp35:
	.loc	5 291 21                        @ rt-thread/components/drivers/spi/sfud/src/sfud.c:291:21
	cmp	r0, r1
	bls	.LBB1_17
	b	.LBB1_16
.LBB1_16:                               @   in Loop: Header=BB1_13 Depth=1
.Ltmp36:
	.loc	5 292 46 is_stmt 1              @ rt-thread/components/drivers/spi/sfud/src/sfud.c:292:46
	ldr	r1, [sp, #16]
	.loc	5 292 65 is_stmt 0              @ rt-thread/components/drivers/spi/sfud/src/sfud.c:292:65
	ldr	r0, [sp, #8]
	.loc	5 292 53                        @ rt-thread/components/drivers/spi/sfud/src/sfud.c:292:53
	add.w	r0, r1, r0, lsl #3
	.loc	5 292 68                        @ rt-thread/components/drivers/spi/sfud/src/sfud.c:292:68
	ldr	r0, [r0, #84]
	.loc	5 292 44                        @ rt-thread/components/drivers/spi/sfud/src/sfud.c:292:44
	str	r0, [r1, #24]
	.loc	5 293 50 is_stmt 1              @ rt-thread/components/drivers/spi/sfud/src/sfud.c:293:50
	ldr	r1, [sp, #16]
	.loc	5 293 69 is_stmt 0              @ rt-thread/components/drivers/spi/sfud/src/sfud.c:293:69
	ldr	r0, [sp, #8]
	.loc	5 293 57                        @ rt-thread/components/drivers/spi/sfud/src/sfud.c:293:57
	add.w	r0, r1, r0, lsl #3
	.loc	5 293 72                        @ rt-thread/components/drivers/spi/sfud/src/sfud.c:293:72
	ldrb.w	r0, [r0, #88]
	.loc	5 293 48                        @ rt-thread/components/drivers/spi/sfud/src/sfud.c:293:48
	strb	r0, [r1, #28]
	.loc	5 294 17 is_stmt 1              @ rt-thread/components/drivers/spi/sfud/src/sfud.c:294:17
	b	.LBB1_17
.Ltmp37:
.LBB1_17:                               @   in Loop: Header=BB1_13 Depth=1
	.loc	5 295 13                        @ rt-thread/components/drivers/spi/sfud/src/sfud.c:295:13
	b	.LBB1_18
.Ltmp38:
.LBB1_18:                               @   in Loop: Header=BB1_13 Depth=1
	.loc	5 290 60                        @ rt-thread/components/drivers/spi/sfud/src/sfud.c:290:60
	ldr	r0, [sp, #8]
	adds	r0, #1
	str	r0, [sp, #8]
	.loc	5 290 13 is_stmt 0              @ rt-thread/components/drivers/spi/sfud/src/sfud.c:290:13
	b	.LBB1_13
.Ltmp39:
.LBB1_19:
	.loc	5 296 9 is_stmt 1               @ rt-thread/components/drivers/spi/sfud/src/sfud.c:296:9
	b	.LBB1_29
.Ltmp40:
.LBB1_20:
	.loc	5 0 9 is_stmt 0                 @ rt-thread/components/drivers/spi/sfud/src/sfud.c:0:9
	movs	r0, #0
.Ltmp41:
	.loc	5 301 20 is_stmt 1              @ rt-thread/components/drivers/spi/sfud/src/sfud.c:301:20
	str	r0, [sp, #8]
	.loc	5 301 18 is_stmt 0              @ rt-thread/components/drivers/spi/sfud/src/sfud.c:301:18
	b	.LBB1_21
.LBB1_21:                               @ =>This Inner Loop Header: Depth=1
.Ltmp42:
	.loc	5 301 25                        @ rt-thread/components/drivers/spi/sfud/src/sfud.c:301:25
	ldr	r0, [sp, #8]
.Ltmp43:
	.loc	5 301 13                        @ rt-thread/components/drivers/spi/sfud/src/sfud.c:301:13
	cmp	r0, #18
	bhi	.LBB1_28
	b	.LBB1_22
.LBB1_22:                               @   in Loop: Header=BB1_21 Depth=1
.Ltmp44:
	.loc	5 302 39 is_stmt 1              @ rt-thread/components/drivers/spi/sfud/src/sfud.c:302:39
	ldr	r0, [sp, #8]
	.loc	5 302 22 is_stmt 0              @ rt-thread/components/drivers/spi/sfud/src/sfud.c:302:22
	add.w	r1, r0, r0, lsl #1
	movw	r0, :lower16:flash_chip_table
	movt	r0, :upper16:flash_chip_table
	add.w	r0, r0, r1, lsl #3
	.loc	5 302 42                        @ rt-thread/components/drivers/spi/sfud/src/sfud.c:302:42
	ldrb	r0, [r0, #4]
	.loc	5 302 51                        @ rt-thread/components/drivers/spi/sfud/src/sfud.c:302:51
	ldr	r1, [sp, #16]
	.loc	5 302 63                        @ rt-thread/components/drivers/spi/sfud/src/sfud.c:302:63
	ldrb	r1, [r1, #12]
	.loc	5 303 25 is_stmt 1              @ rt-thread/components/drivers/spi/sfud/src/sfud.c:303:25
	cmp	r0, r1
	bne	.LBB1_26
	b	.LBB1_23
.LBB1_23:                               @   in Loop: Header=BB1_21 Depth=1
	.loc	5 303 46 is_stmt 0              @ rt-thread/components/drivers/spi/sfud/src/sfud.c:303:46
	ldr	r0, [sp, #8]
	.loc	5 303 29                        @ rt-thread/components/drivers/spi/sfud/src/sfud.c:303:29
	add.w	r1, r0, r0, lsl #1
	movw	r0, :lower16:flash_chip_table
	movt	r0, :upper16:flash_chip_table
	add.w	r0, r0, r1, lsl #3
	.loc	5 303 49                        @ rt-thread/components/drivers/spi/sfud/src/sfud.c:303:49
	ldrb	r0, [r0, #5]
	.loc	5 303 60                        @ rt-thread/components/drivers/spi/sfud/src/sfud.c:303:60
	ldr	r1, [sp, #16]
	.loc	5 303 72                        @ rt-thread/components/drivers/spi/sfud/src/sfud.c:303:72
	ldrb	r1, [r1, #13]
	.loc	5 304 25 is_stmt 1              @ rt-thread/components/drivers/spi/sfud/src/sfud.c:304:25
	cmp	r0, r1
	bne	.LBB1_26
	b	.LBB1_24
.LBB1_24:                               @   in Loop: Header=BB1_21 Depth=1
	.loc	5 304 46 is_stmt 0              @ rt-thread/components/drivers/spi/sfud/src/sfud.c:304:46
	ldr	r0, [sp, #8]
	.loc	5 304 29                        @ rt-thread/components/drivers/spi/sfud/src/sfud.c:304:29
	add.w	r1, r0, r0, lsl #1
	movw	r0, :lower16:flash_chip_table
	movt	r0, :upper16:flash_chip_table
	add.w	r0, r0, r1, lsl #3
	.loc	5 304 49                        @ rt-thread/components/drivers/spi/sfud/src/sfud.c:304:49
	ldrb	r0, [r0, #6]
	.loc	5 304 64                        @ rt-thread/components/drivers/spi/sfud/src/sfud.c:304:64
	ldr	r1, [sp, #16]
	.loc	5 304 76                        @ rt-thread/components/drivers/spi/sfud/src/sfud.c:304:76
	ldrb	r1, [r1, #14]
.Ltmp45:
	.loc	5 302 21 is_stmt 1              @ rt-thread/components/drivers/spi/sfud/src/sfud.c:302:21
	cmp	r0, r1
	bne	.LBB1_26
	b	.LBB1_25
.LBB1_25:
.Ltmp46:
	.loc	5 305 57                        @ rt-thread/components/drivers/spi/sfud/src/sfud.c:305:57
	ldr	r0, [sp, #8]
	.loc	5 305 40 is_stmt 0              @ rt-thread/components/drivers/spi/sfud/src/sfud.c:305:40
	add.w	r1, r0, r0, lsl #1
	movw	r0, :lower16:flash_chip_table
	movt	r0, :upper16:flash_chip_table
	.loc	5 305 60                        @ rt-thread/components/drivers/spi/sfud/src/sfud.c:305:60
	ldr.w	r1, [r0, r1, lsl #3]
	.loc	5 305 21                        @ rt-thread/components/drivers/spi/sfud/src/sfud.c:305:21
	ldr	r2, [sp, #16]
	.loc	5 305 38                        @ rt-thread/components/drivers/spi/sfud/src/sfud.c:305:38
	str	r1, [r2, #8]
	.loc	5 306 61 is_stmt 1              @ rt-thread/components/drivers/spi/sfud/src/sfud.c:306:61
	ldr	r1, [sp, #8]
	.loc	5 306 44 is_stmt 0              @ rt-thread/components/drivers/spi/sfud/src/sfud.c:306:44
	add.w	r1, r1, r1, lsl #1
	add.w	r1, r0, r1, lsl #3
	.loc	5 306 64                        @ rt-thread/components/drivers/spi/sfud/src/sfud.c:306:64
	ldr	r1, [r1, #8]
	.loc	5 306 21                        @ rt-thread/components/drivers/spi/sfud/src/sfud.c:306:21
	ldr	r2, [sp, #16]
	.loc	5 306 42                        @ rt-thread/components/drivers/spi/sfud/src/sfud.c:306:42
	str	r1, [r2, #16]
	.loc	5 307 63 is_stmt 1              @ rt-thread/components/drivers/spi/sfud/src/sfud.c:307:63
	ldr	r1, [sp, #8]
	.loc	5 307 46 is_stmt 0              @ rt-thread/components/drivers/spi/sfud/src/sfud.c:307:46
	add.w	r1, r1, r1, lsl #1
	add.w	r1, r0, r1, lsl #3
	.loc	5 307 66                        @ rt-thread/components/drivers/spi/sfud/src/sfud.c:307:66
	ldrh	r1, [r1, #12]
	.loc	5 307 21                        @ rt-thread/components/drivers/spi/sfud/src/sfud.c:307:21
	ldr	r2, [sp, #16]
	.loc	5 307 44                        @ rt-thread/components/drivers/spi/sfud/src/sfud.c:307:44
	strh	r1, [r2, #20]
	.loc	5 308 63 is_stmt 1              @ rt-thread/components/drivers/spi/sfud/src/sfud.c:308:63
	ldr	r1, [sp, #8]
	.loc	5 308 46 is_stmt 0              @ rt-thread/components/drivers/spi/sfud/src/sfud.c:308:46
	add.w	r1, r1, r1, lsl #1
	add.w	r1, r0, r1, lsl #3
	.loc	5 308 66                        @ rt-thread/components/drivers/spi/sfud/src/sfud.c:308:66
	ldr	r1, [r1, #16]
	.loc	5 308 21                        @ rt-thread/components/drivers/spi/sfud/src/sfud.c:308:21
	ldr	r2, [sp, #16]
	.loc	5 308 44                        @ rt-thread/components/drivers/spi/sfud/src/sfud.c:308:44
	str	r1, [r2, #24]
	.loc	5 309 67 is_stmt 1              @ rt-thread/components/drivers/spi/sfud/src/sfud.c:309:67
	ldr	r1, [sp, #8]
	.loc	5 309 50 is_stmt 0              @ rt-thread/components/drivers/spi/sfud/src/sfud.c:309:50
	add.w	r1, r1, r1, lsl #1
	add.w	r0, r0, r1, lsl #3
	.loc	5 309 70                        @ rt-thread/components/drivers/spi/sfud/src/sfud.c:309:70
	ldrb	r0, [r0, #20]
	.loc	5 309 21                        @ rt-thread/components/drivers/spi/sfud/src/sfud.c:309:21
	ldr	r1, [sp, #16]
	.loc	5 309 48                        @ rt-thread/components/drivers/spi/sfud/src/sfud.c:309:48
	strb	r0, [r1, #28]
	.loc	5 310 21 is_stmt 1              @ rt-thread/components/drivers/spi/sfud/src/sfud.c:310:21
	b	.LBB1_28
.Ltmp47:
.LBB1_26:                               @   in Loop: Header=BB1_21 Depth=1
	.loc	5 312 13                        @ rt-thread/components/drivers/spi/sfud/src/sfud.c:312:13
	b	.LBB1_27
.Ltmp48:
.LBB1_27:                               @   in Loop: Header=BB1_21 Depth=1
	.loc	5 301 82                        @ rt-thread/components/drivers/spi/sfud/src/sfud.c:301:82
	ldr	r0, [sp, #8]
	adds	r0, #1
	str	r0, [sp, #8]
	.loc	5 301 13 is_stmt 0              @ rt-thread/components/drivers/spi/sfud/src/sfud.c:301:13
	b	.LBB1_21
.Ltmp49:
.LBB1_28:
	.loc	5 0 13                          @ rt-thread/components/drivers/spi/sfud/src/sfud.c:0:13
	b	.LBB1_29
.LBB1_29:
	.loc	5 319 5 is_stmt 1               @ rt-thread/components/drivers/spi/sfud/src/sfud.c:319:5
	b	.LBB1_30
.Ltmp50:
.LBB1_30:
	.loc	5 321 9                         @ rt-thread/components/drivers/spi/sfud/src/sfud.c:321:9
	ldr	r0, [sp, #16]
	.loc	5 321 21 is_stmt 0              @ rt-thread/components/drivers/spi/sfud/src/sfud.c:321:21
	ldr	r0, [r0, #16]
	.loc	5 321 35                        @ rt-thread/components/drivers/spi/sfud/src/sfud.c:321:35
	cbz	r0, .LBB1_34
	b	.LBB1_31
.LBB1_31:
	.loc	5 321 38                        @ rt-thread/components/drivers/spi/sfud/src/sfud.c:321:38
	ldr	r0, [sp, #16]
	.loc	5 321 50                        @ rt-thread/components/drivers/spi/sfud/src/sfud.c:321:50
	ldrh	r0, [r0, #20]
	.loc	5 321 66                        @ rt-thread/components/drivers/spi/sfud/src/sfud.c:321:66
	cbz	r0, .LBB1_34
	b	.LBB1_32
.LBB1_32:
	.loc	5 321 69                        @ rt-thread/components/drivers/spi/sfud/src/sfud.c:321:69
	ldr	r0, [sp, #16]
	.loc	5 321 81                        @ rt-thread/components/drivers/spi/sfud/src/sfud.c:321:81
	ldr	r0, [r0, #24]
	.loc	5 322 13 is_stmt 1              @ rt-thread/components/drivers/spi/sfud/src/sfud.c:322:13
	cbz	r0, .LBB1_34
	b	.LBB1_33
.LBB1_33:
	.loc	5 322 16 is_stmt 0              @ rt-thread/components/drivers/spi/sfud/src/sfud.c:322:16
	ldr	r0, [sp, #16]
	.loc	5 322 28                        @ rt-thread/components/drivers/spi/sfud/src/sfud.c:322:28
	ldrb	r0, [r0, #28]
.Ltmp51:
	.loc	5 321 9 is_stmt 1               @ rt-thread/components/drivers/spi/sfud/src/sfud.c:321:9
	cbnz	r0, .LBB1_37
	b	.LBB1_34
.LBB1_34:
.Ltmp52:
	.loc	5 323 9                         @ rt-thread/components/drivers/spi/sfud/src/sfud.c:323:9
	b	.LBB1_35
.LBB1_35:
.Ltmp53:
	.loc	5 323 9 is_stmt 0               @ rt-thread/components/drivers/spi/sfud/src/sfud.c:323:9
	movw	r0, :lower16:.L.str
	movt	r0, :upper16:.L.str
	bl	rt_kprintf
	movw	r0, :lower16:.L.str.8
	movt	r0, :upper16:.L.str.8
	bl	rt_kprintf
	movw	r0, :lower16:.L.str.2
	movt	r0, :upper16:.L.str.2
	bl	rt_kprintf
	b	.LBB1_36
.Ltmp54:
.LBB1_36:
	.loc	5 0 9                           @ rt-thread/components/drivers/spi/sfud/src/sfud.c:0:9
	movs	r0, #1
	.loc	5 324 9 is_stmt 1               @ rt-thread/components/drivers/spi/sfud/src/sfud.c:324:9
	strb.w	r0, [sp, #23]
	b	.LBB1_67
.Ltmp55:
.LBB1_37:
	.loc	5 0 9 is_stmt 0                 @ rt-thread/components/drivers/spi/sfud/src/sfud.c:0:9
	movs	r0, #0
.Ltmp56:
	.loc	5 326 21 is_stmt 1              @ rt-thread/components/drivers/spi/sfud/src/sfud.c:326:21
	str	r0, [sp, #4]
.Ltmp57:
	.loc	5 328 16                        @ rt-thread/components/drivers/spi/sfud/src/sfud.c:328:16
	str	r0, [sp, #8]
	.loc	5 328 14 is_stmt 0              @ rt-thread/components/drivers/spi/sfud/src/sfud.c:328:14
	b	.LBB1_38
.LBB1_38:                               @ =>This Inner Loop Header: Depth=1
.Ltmp58:
	.loc	5 328 21                        @ rt-thread/components/drivers/spi/sfud/src/sfud.c:328:21
	ldr	r0, [sp, #8]
.Ltmp59:
	.loc	5 328 9                         @ rt-thread/components/drivers/spi/sfud/src/sfud.c:328:9
	cmp	r0, #15
	bhi	.LBB1_43
	b	.LBB1_39
.LBB1_39:                               @   in Loop: Header=BB1_38 Depth=1
.Ltmp60:
	.loc	5 329 26 is_stmt 1              @ rt-thread/components/drivers/spi/sfud/src/sfud.c:329:26
	ldr	r1, [sp, #8]
	.loc	5 329 17 is_stmt 0              @ rt-thread/components/drivers/spi/sfud/src/sfud.c:329:17
	movw	r0, :lower16:mf_table
	movt	r0, :upper16:mf_table
	add.w	r0, r0, r1, lsl #3
	.loc	5 329 29                        @ rt-thread/components/drivers/spi/sfud/src/sfud.c:329:29
	ldrb	r0, [r0, #4]
	.loc	5 329 35                        @ rt-thread/components/drivers/spi/sfud/src/sfud.c:329:35
	ldr	r1, [sp, #16]
	.loc	5 329 47                        @ rt-thread/components/drivers/spi/sfud/src/sfud.c:329:47
	ldrb	r1, [r1, #12]
.Ltmp61:
	.loc	5 329 17                        @ rt-thread/components/drivers/spi/sfud/src/sfud.c:329:17
	cmp	r0, r1
	bne	.LBB1_41
	b	.LBB1_40
.LBB1_40:
.Ltmp62:
	.loc	5 330 42 is_stmt 1              @ rt-thread/components/drivers/spi/sfud/src/sfud.c:330:42
	ldr	r1, [sp, #8]
	.loc	5 330 33 is_stmt 0              @ rt-thread/components/drivers/spi/sfud/src/sfud.c:330:33
	movw	r0, :lower16:mf_table
	movt	r0, :upper16:mf_table
	.loc	5 330 45                        @ rt-thread/components/drivers/spi/sfud/src/sfud.c:330:45
	ldr.w	r0, [r0, r1, lsl #3]
	.loc	5 330 31                        @ rt-thread/components/drivers/spi/sfud/src/sfud.c:330:31
	str	r0, [sp, #4]
	.loc	5 331 17 is_stmt 1              @ rt-thread/components/drivers/spi/sfud/src/sfud.c:331:17
	b	.LBB1_43
.Ltmp63:
.LBB1_41:                               @   in Loop: Header=BB1_38 Depth=1
	.loc	5 333 9                         @ rt-thread/components/drivers/spi/sfud/src/sfud.c:333:9
	b	.LBB1_42
.Ltmp64:
.LBB1_42:                               @   in Loop: Header=BB1_38 Depth=1
	.loc	5 328 62                        @ rt-thread/components/drivers/spi/sfud/src/sfud.c:328:62
	ldr	r0, [sp, #8]
	adds	r0, #1
	str	r0, [sp, #8]
	.loc	5 328 9 is_stmt 0               @ rt-thread/components/drivers/spi/sfud/src/sfud.c:328:9
	b	.LBB1_38
.Ltmp65:
.LBB1_43:
	.loc	5 335 13 is_stmt 1              @ rt-thread/components/drivers/spi/sfud/src/sfud.c:335:13
	ldr	r0, [sp, #4]
	.loc	5 335 27 is_stmt 0              @ rt-thread/components/drivers/spi/sfud/src/sfud.c:335:27
	cbz	r0, .LBB1_48
	b	.LBB1_44
.LBB1_44:
	.loc	5 335 30                        @ rt-thread/components/drivers/spi/sfud/src/sfud.c:335:30
	ldr	r0, [sp, #16]
	.loc	5 335 42                        @ rt-thread/components/drivers/spi/sfud/src/sfud.c:335:42
	ldr	r0, [r0, #8]
.Ltmp66:
	.loc	5 335 13                        @ rt-thread/components/drivers/spi/sfud/src/sfud.c:335:13
	cbz	r0, .LBB1_48
	b	.LBB1_45
.LBB1_45:
.Ltmp67:
	.loc	5 336 13 is_stmt 1              @ rt-thread/components/drivers/spi/sfud/src/sfud.c:336:13
	b	.LBB1_46
.LBB1_46:
.Ltmp68:
	.loc	5 336 13 is_stmt 0              @ rt-thread/components/drivers/spi/sfud/src/sfud.c:336:13
	movw	r0, :lower16:.L.str
	movt	r0, :upper16:.L.str
	bl	rt_kprintf
	ldr	r1, [sp, #4]
	ldr	r0, [sp, #16]
	ldr	r2, [r0, #8]
	ldr	r3, [r0, #16]
	movw	r0, :lower16:.L.str.9
	movt	r0, :upper16:.L.str.9
	bl	rt_kprintf
	movw	r0, :lower16:.L.str.2
	movt	r0, :upper16:.L.str.2
	bl	rt_kprintf
	b	.LBB1_47
.Ltmp69:
.LBB1_47:
	.loc	5 338 9 is_stmt 1               @ rt-thread/components/drivers/spi/sfud/src/sfud.c:338:9
	b	.LBB1_56
.Ltmp70:
.LBB1_48:
	.loc	5 338 20 is_stmt 0              @ rt-thread/components/drivers/spi/sfud/src/sfud.c:338:20
	ldr	r0, [sp, #4]
.Ltmp71:
	.loc	5 338 20                        @ rt-thread/components/drivers/spi/sfud/src/sfud.c:338:20
	cbz	r0, .LBB1_52
	b	.LBB1_49
.LBB1_49:
.Ltmp72:
	.loc	5 339 13 is_stmt 1              @ rt-thread/components/drivers/spi/sfud/src/sfud.c:339:13
	b	.LBB1_50
.LBB1_50:
.Ltmp73:
	.loc	5 339 13 is_stmt 0              @ rt-thread/components/drivers/spi/sfud/src/sfud.c:339:13
	movw	r0, :lower16:.L.str
	movt	r0, :upper16:.L.str
	bl	rt_kprintf
	ldr	r1, [sp, #4]
	ldr	r0, [sp, #16]
	ldr	r2, [r0, #16]
	movw	r0, :lower16:.L.str.10
	movt	r0, :upper16:.L.str.10
	bl	rt_kprintf
	movw	r0, :lower16:.L.str.2
	movt	r0, :upper16:.L.str.2
	bl	rt_kprintf
	b	.LBB1_51
.Ltmp74:
.LBB1_51:
	.loc	5 340 9 is_stmt 1               @ rt-thread/components/drivers/spi/sfud/src/sfud.c:340:9
	b	.LBB1_55
.Ltmp75:
.LBB1_52:
	.loc	5 341 13                        @ rt-thread/components/drivers/spi/sfud/src/sfud.c:341:13
	b	.LBB1_53
.LBB1_53:
.Ltmp76:
	.loc	5 341 13 is_stmt 0              @ rt-thread/components/drivers/spi/sfud/src/sfud.c:341:13
	movw	r0, :lower16:.L.str
	movt	r0, :upper16:.L.str
	bl	rt_kprintf
	ldr	r0, [sp, #16]
	ldr	r1, [r0, #16]
	movw	r0, :lower16:.L.str.11
	movt	r0, :upper16:.L.str.11
	bl	rt_kprintf
	movw	r0, :lower16:.L.str.2
	movt	r0, :upper16:.L.str.2
	bl	rt_kprintf
	b	.LBB1_54
.Ltmp77:
.LBB1_54:
	.loc	5 0 13                          @ rt-thread/components/drivers/spi/sfud/src/sfud.c:0:13
	b	.LBB1_55
.LBB1_55:
	b	.LBB1_56
.LBB1_56:
	b	.LBB1_57
.LBB1_57:
	.loc	5 346 20 is_stmt 1              @ rt-thread/components/drivers/spi/sfud/src/sfud.c:346:20
	ldr	r0, [sp, #16]
	.loc	5 346 14 is_stmt 0              @ rt-thread/components/drivers/spi/sfud/src/sfud.c:346:14
	bl	reset
	.loc	5 346 12                        @ rt-thread/components/drivers/spi/sfud/src/sfud.c:346:12
	strb.w	r0, [sp, #15]
.Ltmp78:
	.loc	5 347 9 is_stmt 1               @ rt-thread/components/drivers/spi/sfud/src/sfud.c:347:9
	ldrb.w	r0, [sp, #15]
.Ltmp79:
	.loc	5 347 9 is_stmt 0               @ rt-thread/components/drivers/spi/sfud/src/sfud.c:347:9
	cbz	r0, .LBB1_59
	b	.LBB1_58
.LBB1_58:
.Ltmp80:
	.loc	5 348 16 is_stmt 1              @ rt-thread/components/drivers/spi/sfud/src/sfud.c:348:16
	ldrb.w	r0, [sp, #15]
	.loc	5 348 9 is_stmt 0               @ rt-thread/components/drivers/spi/sfud/src/sfud.c:348:9
	strb.w	r0, [sp, #23]
	b	.LBB1_67
.Ltmp81:
.LBB1_59:
	.loc	5 353 9 is_stmt 1               @ rt-thread/components/drivers/spi/sfud/src/sfud.c:353:9
	ldr	r0, [sp, #16]
	ldrh	r0, [r0, #20]
.Ltmp82:
	.loc	5 353 9 is_stmt 0               @ rt-thread/components/drivers/spi/sfud/src/sfud.c:353:9
	lsls	r0, r0, #29
	cmp	r0, #0
	bpl	.LBB1_63
	b	.LBB1_60
.LBB1_60:
.Ltmp83:
	.loc	5 354 36 is_stmt 1              @ rt-thread/components/drivers/spi/sfud/src/sfud.c:354:36
	ldr	r0, [sp, #16]
	movs	r1, #1
	movs	r2, #0
	.loc	5 354 18 is_stmt 0              @ rt-thread/components/drivers/spi/sfud/src/sfud.c:354:18
	bl	sfud_write_status
	.loc	5 354 16                        @ rt-thread/components/drivers/spi/sfud/src/sfud.c:354:16
	strb.w	r0, [sp, #15]
.Ltmp84:
	.loc	5 355 13 is_stmt 1              @ rt-thread/components/drivers/spi/sfud/src/sfud.c:355:13
	ldrb.w	r0, [sp, #15]
.Ltmp85:
	.loc	5 355 13 is_stmt 0              @ rt-thread/components/drivers/spi/sfud/src/sfud.c:355:13
	cbz	r0, .LBB1_62
	b	.LBB1_61
.LBB1_61:
.Ltmp86:
	.loc	5 356 20 is_stmt 1              @ rt-thread/components/drivers/spi/sfud/src/sfud.c:356:20
	ldrb.w	r0, [sp, #15]
	.loc	5 356 13 is_stmt 0              @ rt-thread/components/drivers/spi/sfud/src/sfud.c:356:13
	strb.w	r0, [sp, #23]
	b	.LBB1_67
.Ltmp87:
.LBB1_62:
	.loc	5 358 5 is_stmt 1               @ rt-thread/components/drivers/spi/sfud/src/sfud.c:358:5
	b	.LBB1_63
.Ltmp88:
.LBB1_63:
	.loc	5 361 9                         @ rt-thread/components/drivers/spi/sfud/src/sfud.c:361:9
	ldr	r0, [sp, #16]
	.loc	5 361 21 is_stmt 0              @ rt-thread/components/drivers/spi/sfud/src/sfud.c:361:21
	ldr	r0, [r0, #16]
.Ltmp89:
	.loc	5 361 9                         @ rt-thread/components/drivers/spi/sfud/src/sfud.c:361:9
	cmp.w	r0, #16777216
	bls	.LBB1_65
	b	.LBB1_64
.LBB1_64:
.Ltmp90:
	.loc	5 362 42 is_stmt 1              @ rt-thread/components/drivers/spi/sfud/src/sfud.c:362:42
	ldr	r0, [sp, #16]
	movs	r1, #1
	.loc	5 362 18 is_stmt 0              @ rt-thread/components/drivers/spi/sfud/src/sfud.c:362:18
	bl	set_4_byte_address_mode
	.loc	5 362 16                        @ rt-thread/components/drivers/spi/sfud/src/sfud.c:362:16
	strb.w	r0, [sp, #15]
	.loc	5 363 5 is_stmt 1               @ rt-thread/components/drivers/spi/sfud/src/sfud.c:363:5
	b	.LBB1_66
.Ltmp91:
.LBB1_65:
	.loc	5 364 9                         @ rt-thread/components/drivers/spi/sfud/src/sfud.c:364:9
	ldr	r1, [sp, #16]
	movs	r0, #0
	.loc	5 364 31 is_stmt 0              @ rt-thread/components/drivers/spi/sfud/src/sfud.c:364:31
	strb.w	r0, [r1, #53]
	b	.LBB1_66
.Ltmp92:
.LBB1_66:
	.loc	5 367 12 is_stmt 1              @ rt-thread/components/drivers/spi/sfud/src/sfud.c:367:12
	ldrb.w	r0, [sp, #15]
	.loc	5 367 5 is_stmt 0               @ rt-thread/components/drivers/spi/sfud/src/sfud.c:367:5
	strb.w	r0, [sp, #23]
	b	.LBB1_67
.LBB1_67:
	.loc	5 368 1 is_stmt 1               @ rt-thread/components/drivers/spi/sfud/src/sfud.c:368:1
	ldrb.w	r0, [sp, #23]
	add	sp, #24
	pop	{r7, pc}
.Ltmp93:
.Lfunc_end1:
	.size	hardware_init, .Lfunc_end1-hardware_init
	.cfi_endproc
	.cantunwind
	.fnend
                                        @ -- End function
	.section	.text.software_init,"ax",%progbits
	.p2align	3                               @ -- Begin function software_init
	.type	software_init,%function
	.code	16                              @ @software_init
	.thumb_func
software_init:
.Lfunc_begin2:
	.loc	5 377 0                         @ rt-thread/components/drivers/spi/sfud/src/sfud.c:377:0
	.fnstart
	.cfi_startproc
@ %bb.0:
	.pad	#8
	sub	sp, #8
	.cfi_def_cfa_offset 8
	str	r0, [sp, #4]
	movs	r0, #0
.Ltmp94:
	.loc	5 378 14 prologue_end           @ rt-thread/components/drivers/spi/sfud/src/sfud.c:378:14
	strb.w	r0, [sp, #3]
	.loc	5 382 12                        @ rt-thread/components/drivers/spi/sfud/src/sfud.c:382:12
	ldrb.w	r0, [sp, #3]
	.loc	5 382 5 is_stmt 0               @ rt-thread/components/drivers/spi/sfud/src/sfud.c:382:5
	add	sp, #8
	bx	lr
.Ltmp95:
.Lfunc_end2:
	.size	software_init, .Lfunc_end2-software_init
	.cfi_endproc
	.cantunwind
	.fnend
                                        @ -- End function
	.section	.text.sfud_init,"ax",%progbits
	.hidden	sfud_init                       @ -- Begin function sfud_init
	.globl	sfud_init
	.p2align	3
	.type	sfud_init,%function
	.code	16                              @ @sfud_init
	.thumb_func
sfud_init:
.Lfunc_begin3:
	.loc	5 112 0 is_stmt 1               @ rt-thread/components/drivers/spi/sfud/src/sfud.c:112:0
	.fnstart
	.cfi_startproc
@ %bb.0:
	.save	{r7, lr}
	push	{r7, lr}
	.cfi_def_cfa_offset 8
	.cfi_offset lr, -4
	.cfi_offset r7, -8
	.pad	#8
	sub	sp, #8
	.cfi_def_cfa_offset 16
	movs	r0, #0
.Ltmp96:
	.loc	5 113 14 prologue_end           @ rt-thread/components/drivers/spi/sfud/src/sfud.c:113:14
	strb.w	r0, [sp, #7]
	.loc	5 113 47 is_stmt 0              @ rt-thread/components/drivers/spi/sfud/src/sfud.c:113:47
	strb.w	r0, [sp, #6]
.Ltmp97:
	.loc	5 119 12 is_stmt 1              @ rt-thread/components/drivers/spi/sfud/src/sfud.c:119:12
	str	r0, [sp]
	.loc	5 119 10 is_stmt 0              @ rt-thread/components/drivers/spi/sfud/src/sfud.c:119:10
	b	.LBB3_1
.LBB3_1:                                @ =>This Inner Loop Header: Depth=1
.Ltmp98:
	.loc	5 119 17                        @ rt-thread/components/drivers/spi/sfud/src/sfud.c:119:17
	ldr	r0, [sp]
.Ltmp99:
	.loc	5 119 5                         @ rt-thread/components/drivers/spi/sfud/src/sfud.c:119:5
	cbnz	r0, .LBB3_6
	b	.LBB3_2
.LBB3_2:                                @   in Loop: Header=BB3_1 Depth=1
.Ltmp100:
	.loc	5 121 32 is_stmt 1              @ rt-thread/components/drivers/spi/sfud/src/sfud.c:121:32
	ldr	r0, [sp]
	.loc	5 121 9 is_stmt 0               @ rt-thread/components/drivers/spi/sfud/src/sfud.c:121:9
	movw	r2, :lower16:flash_table
	movt	r2, :upper16:flash_table
	movs	r1, #116
	mla	r3, r0, r1, r2
	.loc	5 121 30                        @ rt-thread/components/drivers/spi/sfud/src/sfud.c:121:30
	str	r0, [r3, #4]
	.loc	5 122 58 is_stmt 1              @ rt-thread/components/drivers/spi/sfud/src/sfud.c:122:58
	ldr	r0, [sp]
	.loc	5 122 46 is_stmt 0              @ rt-thread/components/drivers/spi/sfud/src/sfud.c:122:46
	mla	r0, r0, r1, r2
	.loc	5 122 28                        @ rt-thread/components/drivers/spi/sfud/src/sfud.c:122:28
	bl	sfud_device_init
	.loc	5 122 26                        @ rt-thread/components/drivers/spi/sfud/src/sfud.c:122:26
	strb.w	r0, [sp, #7]
.Ltmp101:
	.loc	5 124 13 is_stmt 1              @ rt-thread/components/drivers/spi/sfud/src/sfud.c:124:13
	ldrb.w	r0, [sp, #7]
.Ltmp102:
	.loc	5 124 13 is_stmt 0              @ rt-thread/components/drivers/spi/sfud/src/sfud.c:124:13
	cbz	r0, .LBB3_4
	b	.LBB3_3
.LBB3_3:                                @   in Loop: Header=BB3_1 Depth=1
.Ltmp103:
	.loc	5 125 32 is_stmt 1              @ rt-thread/components/drivers/spi/sfud/src/sfud.c:125:32
	ldrb.w	r0, [sp, #7]
	.loc	5 125 30 is_stmt 0              @ rt-thread/components/drivers/spi/sfud/src/sfud.c:125:30
	strb.w	r0, [sp, #6]
	.loc	5 126 9 is_stmt 1               @ rt-thread/components/drivers/spi/sfud/src/sfud.c:126:9
	b	.LBB3_4
.Ltmp104:
.LBB3_4:                                @   in Loop: Header=BB3_1 Depth=1
	.loc	5 127 5                         @ rt-thread/components/drivers/spi/sfud/src/sfud.c:127:5
	b	.LBB3_5
.Ltmp105:
.LBB3_5:                                @   in Loop: Header=BB3_1 Depth=1
	.loc	5 119 64                        @ rt-thread/components/drivers/spi/sfud/src/sfud.c:119:64
	ldr	r0, [sp]
	adds	r0, #1
	str	r0, [sp]
	.loc	5 119 5 is_stmt 0               @ rt-thread/components/drivers/spi/sfud/src/sfud.c:119:5
	b	.LBB3_1
.Ltmp106:
.LBB3_6:
	.loc	5 129 12 is_stmt 1              @ rt-thread/components/drivers/spi/sfud/src/sfud.c:129:12
	ldrb.w	r0, [sp, #6]
	.loc	5 129 5 is_stmt 0               @ rt-thread/components/drivers/spi/sfud/src/sfud.c:129:5
	add	sp, #8
	pop	{r7, pc}
.Ltmp107:
.Lfunc_end3:
	.size	sfud_init, .Lfunc_end3-sfud_init
	.cfi_endproc
	.cantunwind
	.fnend
                                        @ -- End function
	.section	.text.sfud_get_device,"ax",%progbits
	.hidden	sfud_get_device                 @ -- Begin function sfud_get_device
	.globl	sfud_get_device
	.p2align	3
	.type	sfud_get_device,%function
	.code	16                              @ @sfud_get_device
	.thumb_func
sfud_get_device:
.Lfunc_begin4:
	.loc	5 139 0 is_stmt 1               @ rt-thread/components/drivers/spi/sfud/src/sfud.c:139:0
	.fnstart
	.cfi_startproc
@ %bb.0:
	.save	{r7, lr}
	push	{r7, lr}
	.cfi_def_cfa_offset 8
	.cfi_offset lr, -4
	.cfi_offset r7, -8
	.pad	#16
	sub	sp, #16
	.cfi_def_cfa_offset 24
	str	r0, [sp, #8]
.Ltmp108:
	.loc	5 140 9 prologue_end            @ rt-thread/components/drivers/spi/sfud/src/sfud.c:140:9
	ldr	r0, [sp, #8]
	.loc	5 140 17 is_stmt 0              @ rt-thread/components/drivers/spi/sfud/src/sfud.c:140:17
	str	r0, [sp, #4]                    @ 4-byte Spill
	bl	sfud_get_device_num
	mov	r1, r0
.Ltmp109:
	.loc	5 140 9                         @ rt-thread/components/drivers/spi/sfud/src/sfud.c:140:9
	ldr	r0, [sp, #4]                    @ 4-byte Reload
	cmp	r0, r1
	bhs	.LBB4_2
	b	.LBB4_1
.LBB4_1:
.Ltmp110:
	.loc	5 141 29 is_stmt 1              @ rt-thread/components/drivers/spi/sfud/src/sfud.c:141:29
	ldr	r0, [sp, #8]
	.loc	5 141 17 is_stmt 0              @ rt-thread/components/drivers/spi/sfud/src/sfud.c:141:17
	movw	r2, :lower16:flash_table
	movt	r2, :upper16:flash_table
	movs	r1, #116
	mla	r0, r0, r1, r2
	.loc	5 141 9                         @ rt-thread/components/drivers/spi/sfud/src/sfud.c:141:9
	str	r0, [sp, #12]
	b	.LBB4_3
.Ltmp111:
.LBB4_2:
	.loc	5 0 9                           @ rt-thread/components/drivers/spi/sfud/src/sfud.c:0:9
	movs	r0, #0
.Ltmp112:
	.loc	5 143 9 is_stmt 1               @ rt-thread/components/drivers/spi/sfud/src/sfud.c:143:9
	str	r0, [sp, #12]
	b	.LBB4_3
.Ltmp113:
.LBB4_3:
	.loc	5 145 1                         @ rt-thread/components/drivers/spi/sfud/src/sfud.c:145:1
	ldr	r0, [sp, #12]
	add	sp, #16
	pop	{r7, pc}
.Ltmp114:
.Lfunc_end4:
	.size	sfud_get_device, .Lfunc_end4-sfud_get_device
	.cfi_endproc
	.cantunwind
	.fnend
                                        @ -- End function
	.section	.text.sfud_get_device_num,"ax",%progbits
	.hidden	sfud_get_device_num             @ -- Begin function sfud_get_device_num
	.globl	sfud_get_device_num
	.p2align	3
	.type	sfud_get_device_num,%function
	.code	16                              @ @sfud_get_device_num
	.thumb_func
sfud_get_device_num:
.Lfunc_begin5:
	.loc	5 152 0                         @ rt-thread/components/drivers/spi/sfud/src/sfud.c:152:0
	.fnstart
	.cfi_startproc
@ %bb.0:
	movs	r0, #1
.Ltmp115:
	.loc	5 153 5 prologue_end            @ rt-thread/components/drivers/spi/sfud/src/sfud.c:153:5
	bx	lr
.Ltmp116:
.Lfunc_end5:
	.size	sfud_get_device_num, .Lfunc_end5-sfud_get_device_num
	.cfi_endproc
	.cantunwind
	.fnend
                                        @ -- End function
	.section	.text.sfud_get_device_table,"ax",%progbits
	.hidden	sfud_get_device_table           @ -- Begin function sfud_get_device_table
	.globl	sfud_get_device_table
	.p2align	3
	.type	sfud_get_device_table,%function
	.code	16                              @ @sfud_get_device_table
	.thumb_func
sfud_get_device_table:
.Lfunc_begin6:
	.loc	5 161 0                         @ rt-thread/components/drivers/spi/sfud/src/sfud.c:161:0
	.fnstart
	.cfi_startproc
@ %bb.0:
	.loc	5 162 5 prologue_end            @ rt-thread/components/drivers/spi/sfud/src/sfud.c:162:5
	movw	r0, :lower16:flash_table
	movt	r0, :upper16:flash_table
	bx	lr
.Ltmp117:
.Lfunc_end6:
	.size	sfud_get_device_table, .Lfunc_end6-sfud_get_device_table
	.cfi_endproc
	.cantunwind
	.fnend
                                        @ -- End function
	.section	.text.sfud_read,"ax",%progbits
	.hidden	sfud_read                       @ -- Begin function sfud_read
	.globl	sfud_read
	.p2align	3
	.type	sfud_read,%function
	.code	16                              @ @sfud_read
	.thumb_func
sfud_read:
.Lfunc_begin7:
	.loc	5 395 0                         @ rt-thread/components/drivers/spi/sfud/src/sfud.c:395:0
	.fnstart
	.cfi_startproc
@ %bb.0:
	.save	{r4, lr}
	push	{r4, lr}
	.cfi_def_cfa_offset 8
	.cfi_offset lr, -4
	.cfi_offset r4, -8
	.pad	#48
	sub	sp, #48
	.cfi_def_cfa_offset 56
	str	r0, [sp, #40]
	str	r1, [sp, #36]
	str	r2, [sp, #32]
	str	r3, [sp, #28]
	movs	r0, #0
.Ltmp118:
	.loc	5 396 14 prologue_end           @ rt-thread/components/drivers/spi/sfud/src/sfud.c:396:14
	strb.w	r0, [sp, #27]
	.loc	5 397 28                        @ rt-thread/components/drivers/spi/sfud/src/sfud.c:397:28
	ldr	r0, [sp, #40]
	.loc	5 397 35 is_stmt 0              @ rt-thread/components/drivers/spi/sfud/src/sfud.c:397:35
	adds	r0, #32
	.loc	5 397 21                        @ rt-thread/components/drivers/spi/sfud/src/sfud.c:397:21
	str	r0, [sp, #20]
.Ltmp119:
	.loc	5 405 9 is_stmt 1               @ rt-thread/components/drivers/spi/sfud/src/sfud.c:405:9
	ldr	r0, [sp, #36]
	.loc	5 405 16 is_stmt 0              @ rt-thread/components/drivers/spi/sfud/src/sfud.c:405:16
	ldr	r1, [sp, #32]
	.loc	5 405 14                        @ rt-thread/components/drivers/spi/sfud/src/sfud.c:405:14
	add	r0, r1
	.loc	5 405 23                        @ rt-thread/components/drivers/spi/sfud/src/sfud.c:405:23
	ldr	r1, [sp, #40]
	.loc	5 405 35                        @ rt-thread/components/drivers/spi/sfud/src/sfud.c:405:35
	ldr	r1, [r1, #16]
.Ltmp120:
	.loc	5 405 9                         @ rt-thread/components/drivers/spi/sfud/src/sfud.c:405:9
	cmp	r0, r1
	bls	.LBB7_4
	b	.LBB7_1
.LBB7_1:
.Ltmp121:
	.loc	5 406 9 is_stmt 1               @ rt-thread/components/drivers/spi/sfud/src/sfud.c:406:9
	b	.LBB7_2
.LBB7_2:
.Ltmp122:
	.loc	5 406 9 is_stmt 0               @ rt-thread/components/drivers/spi/sfud/src/sfud.c:406:9
	movw	r0, :lower16:.L.str
	movt	r0, :upper16:.L.str
	bl	rt_kprintf
	movw	r0, :lower16:.L.str.4
	movt	r0, :upper16:.L.str.4
	bl	rt_kprintf
	movw	r0, :lower16:.L.str.2
	movt	r0, :upper16:.L.str.2
	bl	rt_kprintf
	b	.LBB7_3
.Ltmp123:
.LBB7_3:
	.loc	5 0 9                           @ rt-thread/components/drivers/spi/sfud/src/sfud.c:0:9
	movs	r0, #5
	.loc	5 407 9 is_stmt 1               @ rt-thread/components/drivers/spi/sfud/src/sfud.c:407:9
	strb.w	r0, [sp, #47]
	b	.LBB7_11
.Ltmp124:
.LBB7_4:
	.loc	5 410 9                         @ rt-thread/components/drivers/spi/sfud/src/sfud.c:410:9
	ldr	r0, [sp, #20]
	.loc	5 410 14 is_stmt 0              @ rt-thread/components/drivers/spi/sfud/src/sfud.c:410:14
	ldr	r0, [r0, #8]
.Ltmp125:
	.loc	5 410 9                         @ rt-thread/components/drivers/spi/sfud/src/sfud.c:410:9
	cbz	r0, .LBB7_6
	b	.LBB7_5
.LBB7_5:
.Ltmp126:
	.loc	5 411 9 is_stmt 1               @ rt-thread/components/drivers/spi/sfud/src/sfud.c:411:9
	ldr	r0, [sp, #20]
	.loc	5 411 14 is_stmt 0              @ rt-thread/components/drivers/spi/sfud/src/sfud.c:411:14
	ldr	r1, [r0, #8]
	.loc	5 411 9                         @ rt-thread/components/drivers/spi/sfud/src/sfud.c:411:9
	blx	r1
	.loc	5 412 5 is_stmt 1               @ rt-thread/components/drivers/spi/sfud/src/sfud.c:412:5
	b	.LBB7_6
.Ltmp127:
.LBB7_6:
	.loc	5 414 24                        @ rt-thread/components/drivers/spi/sfud/src/sfud.c:414:24
	ldr	r0, [sp, #40]
	.loc	5 414 14 is_stmt 0              @ rt-thread/components/drivers/spi/sfud/src/sfud.c:414:14
	bl	wait_busy
	.loc	5 414 12                        @ rt-thread/components/drivers/spi/sfud/src/sfud.c:414:12
	strb.w	r0, [sp, #27]
.Ltmp128:
	.loc	5 416 9 is_stmt 1               @ rt-thread/components/drivers/spi/sfud/src/sfud.c:416:9
	ldrb.w	r0, [sp, #27]
.Ltmp129:
	.loc	5 416 9 is_stmt 0               @ rt-thread/components/drivers/spi/sfud/src/sfud.c:416:9
	cbnz	r0, .LBB7_8
	b	.LBB7_7
.LBB7_7:
	.loc	5 0 9                           @ rt-thread/components/drivers/spi/sfud/src/sfud.c:0:9
	movs	r0, #3
.Ltmp130:
	.loc	5 423 25 is_stmt 1              @ rt-thread/components/drivers/spi/sfud/src/sfud.c:423:25
	strb.w	r0, [sp, #15]
	.loc	5 424 36                        @ rt-thread/components/drivers/spi/sfud/src/sfud.c:424:36
	ldr	r0, [sp, #40]
	.loc	5 424 43 is_stmt 0              @ rt-thread/components/drivers/spi/sfud/src/sfud.c:424:43
	ldr	r1, [sp, #36]
	add.w	r2, sp, #15
	.loc	5 424 50                        @ rt-thread/components/drivers/spi/sfud/src/sfud.c:424:50
	str	r2, [sp, #8]                    @ 4-byte Spill
	adds	r2, #1
	.loc	5 424 13                        @ rt-thread/components/drivers/spi/sfud/src/sfud.c:424:13
	bl	make_adress_byte_array
	ldr	r1, [sp, #8]                    @ 4-byte Reload
	.loc	5 425 24 is_stmt 1              @ rt-thread/components/drivers/spi/sfud/src/sfud.c:425:24
	ldr	r0, [sp, #40]
	.loc	5 425 31 is_stmt 0              @ rt-thread/components/drivers/spi/sfud/src/sfud.c:425:31
	ldrb.w	r0, [r0, #53]
	.loc	5 425 24                        @ rt-thread/components/drivers/spi/sfud/src/sfud.c:425:24
	lsls	r2, r0, #31
	movs	r0, #4
	cmp	r2, #0
	it	ne
	movne	r0, #5
	.loc	5 425 22                        @ rt-thread/components/drivers/spi/sfud/src/sfud.c:425:22
	strb.w	r0, [sp, #14]
	.loc	5 426 22 is_stmt 1              @ rt-thread/components/drivers/spi/sfud/src/sfud.c:426:22
	ldr	r0, [sp, #20]
	.loc	5 426 27 is_stmt 0              @ rt-thread/components/drivers/spi/sfud/src/sfud.c:426:27
	ldr.w	r12, [r0, #4]
	.loc	5 426 45                        @ rt-thread/components/drivers/spi/sfud/src/sfud.c:426:45
	ldrb.w	r2, [sp, #14]
	.loc	5 426 55                        @ rt-thread/components/drivers/spi/sfud/src/sfud.c:426:55
	ldr	r3, [sp, #28]
	.loc	5 426 61                        @ rt-thread/components/drivers/spi/sfud/src/sfud.c:426:61
	ldr.w	lr, [sp, #32]
	.loc	5 426 22                        @ rt-thread/components/drivers/spi/sfud/src/sfud.c:426:22
	mov	r4, sp
	str.w	lr, [r4]
	blx	r12
	.loc	5 426 20                        @ rt-thread/components/drivers/spi/sfud/src/sfud.c:426:20
	strb.w	r0, [sp, #27]
.Ltmp131:
	.loc	5 428 5 is_stmt 1               @ rt-thread/components/drivers/spi/sfud/src/sfud.c:428:5
	b	.LBB7_8
.Ltmp132:
.LBB7_8:
	.loc	5 430 9                         @ rt-thread/components/drivers/spi/sfud/src/sfud.c:430:9
	ldr	r0, [sp, #20]
	.loc	5 430 14 is_stmt 0              @ rt-thread/components/drivers/spi/sfud/src/sfud.c:430:14
	ldr	r0, [r0, #12]
.Ltmp133:
	.loc	5 430 9                         @ rt-thread/components/drivers/spi/sfud/src/sfud.c:430:9
	cbz	r0, .LBB7_10
	b	.LBB7_9
.LBB7_9:
.Ltmp134:
	.loc	5 431 9 is_stmt 1               @ rt-thread/components/drivers/spi/sfud/src/sfud.c:431:9
	ldr	r0, [sp, #20]
	.loc	5 431 14 is_stmt 0              @ rt-thread/components/drivers/spi/sfud/src/sfud.c:431:14
	ldr	r1, [r0, #12]
	.loc	5 431 9                         @ rt-thread/components/drivers/spi/sfud/src/sfud.c:431:9
	blx	r1
	.loc	5 432 5 is_stmt 1               @ rt-thread/components/drivers/spi/sfud/src/sfud.c:432:5
	b	.LBB7_10
.Ltmp135:
.LBB7_10:
	.loc	5 434 12                        @ rt-thread/components/drivers/spi/sfud/src/sfud.c:434:12
	ldrb.w	r0, [sp, #27]
	.loc	5 434 5 is_stmt 0               @ rt-thread/components/drivers/spi/sfud/src/sfud.c:434:5
	strb.w	r0, [sp, #47]
	b	.LBB7_11
.LBB7_11:
	.loc	5 435 1 is_stmt 1               @ rt-thread/components/drivers/spi/sfud/src/sfud.c:435:1
	ldrb.w	r0, [sp, #47]
	add	sp, #48
	pop	{r4, pc}
.Ltmp136:
.Lfunc_end7:
	.size	sfud_read, .Lfunc_end7-sfud_read
	.cfi_endproc
	.cantunwind
	.fnend
                                        @ -- End function
	.section	.text.wait_busy,"ax",%progbits
	.p2align	3                               @ -- Begin function wait_busy
	.type	wait_busy,%function
	.code	16                              @ @wait_busy
	.thumb_func
wait_busy:
.Lfunc_begin8:
	.loc	5 966 0                         @ rt-thread/components/drivers/spi/sfud/src/sfud.c:966:0
	.fnstart
	.cfi_startproc
@ %bb.0:
	.save	{r7, lr}
	push	{r7, lr}
	.cfi_def_cfa_offset 8
	.cfi_offset lr, -4
	.cfi_offset r7, -8
	.pad	#16
	sub	sp, #16
	.cfi_def_cfa_offset 24
	str	r0, [sp, #12]
	movs	r0, #0
.Ltmp137:
	.loc	5 967 14 prologue_end           @ rt-thread/components/drivers/spi/sfud/src/sfud.c:967:14
	strb.w	r0, [sp, #11]
	.loc	5 969 26                        @ rt-thread/components/drivers/spi/sfud/src/sfud.c:969:26
	ldr	r0, [sp, #12]
	.loc	5 969 39 is_stmt 0              @ rt-thread/components/drivers/spi/sfud/src/sfud.c:969:39
	ldr	r0, [r0, #60]
	.loc	5 969 12                        @ rt-thread/components/drivers/spi/sfud/src/sfud.c:969:12
	str	r0, [sp, #4]
	.loc	5 973 5 is_stmt 1               @ rt-thread/components/drivers/spi/sfud/src/sfud.c:973:5
	b	.LBB8_1
.LBB8_1:                                @ =>This Inner Loop Header: Depth=1
.Ltmp138:
	.loc	5 974 35                        @ rt-thread/components/drivers/spi/sfud/src/sfud.c:974:35
	ldr	r0, [sp, #12]
	add.w	r1, sp, #10
	.loc	5 974 18 is_stmt 0              @ rt-thread/components/drivers/spi/sfud/src/sfud.c:974:18
	bl	sfud_read_status
	.loc	5 974 16                        @ rt-thread/components/drivers/spi/sfud/src/sfud.c:974:16
	strb.w	r0, [sp, #11]
.Ltmp139:
	.loc	5 975 13 is_stmt 1              @ rt-thread/components/drivers/spi/sfud/src/sfud.c:975:13
	ldrb.w	r0, [sp, #11]
	.loc	5 975 36 is_stmt 0              @ rt-thread/components/drivers/spi/sfud/src/sfud.c:975:36
	cbnz	r0, .LBB8_4
	b	.LBB8_2
.LBB8_2:                                @   in Loop: Header=BB8_1 Depth=1
	.loc	5 975 41                        @ rt-thread/components/drivers/spi/sfud/src/sfud.c:975:41
	ldrb.w	r0, [sp, #10]
.Ltmp140:
	.loc	5 975 13                        @ rt-thread/components/drivers/spi/sfud/src/sfud.c:975:13
	lsls	r0, r0, #31
	cbnz	r0, .LBB8_4
	b	.LBB8_3
.LBB8_3:
.Ltmp141:
	.loc	5 976 13 is_stmt 1              @ rt-thread/components/drivers/spi/sfud/src/sfud.c:976:13
	b	.LBB8_10
.Ltmp142:
.LBB8_4:                                @   in Loop: Header=BB8_1 Depth=1
	.loc	5 979 9                         @ rt-thread/components/drivers/spi/sfud/src/sfud.c:979:9
	ldr	r0, [sp, #12]
	ldr	r0, [r0, #56]
	str	r0, [sp]
.Ltmp143:
	.loc	5 979 9 is_stmt 0               @ rt-thread/components/drivers/spi/sfud/src/sfud.c:979:9
	ldr	r0, [sp, #4]
.Ltmp144:
	.loc	5 979 9                         @ rt-thread/components/drivers/spi/sfud/src/sfud.c:979:9
	cbnz	r0, .LBB8_6
	b	.LBB8_5
.LBB8_5:
	.loc	5 0 9                           @ rt-thread/components/drivers/spi/sfud/src/sfud.c:0:9
	movs	r0, #4
.Ltmp145:
	.loc	5 979 9                         @ rt-thread/components/drivers/spi/sfud/src/sfud.c:979:9
	strb.w	r0, [sp, #11]
	b	.LBB8_10
.Ltmp146:
.LBB8_6:                                @   in Loop: Header=BB8_1 Depth=1
	.loc	5 979 9                         @ rt-thread/components/drivers/spi/sfud/src/sfud.c:979:9
	ldr	r0, [sp]
.Ltmp147:
	.loc	5 979 9                         @ rt-thread/components/drivers/spi/sfud/src/sfud.c:979:9
	cbz	r0, .LBB8_8
	b	.LBB8_7
.LBB8_7:                                @   in Loop: Header=BB8_1 Depth=1
.Ltmp148:
	.loc	5 979 9                         @ rt-thread/components/drivers/spi/sfud/src/sfud.c:979:9
	ldr	r0, [sp]
	blx	r0
	b	.LBB8_8
.Ltmp149:
.LBB8_8:                                @   in Loop: Header=BB8_1 Depth=1
	.loc	5 979 9                         @ rt-thread/components/drivers/spi/sfud/src/sfud.c:979:9
	ldr	r0, [sp, #4]
	subs	r0, #1
	str	r0, [sp, #4]
	b	.LBB8_9
.Ltmp150:
.LBB8_9:                                @   in Loop: Header=BB8_1 Depth=1
	.loc	5 973 5 is_stmt 1               @ rt-thread/components/drivers/spi/sfud/src/sfud.c:973:5
	b	.LBB8_1
.LBB8_10:
.Ltmp151:
	.loc	5 982 9                         @ rt-thread/components/drivers/spi/sfud/src/sfud.c:982:9
	ldrb.w	r0, [sp, #11]
	.loc	5 982 32 is_stmt 0              @ rt-thread/components/drivers/spi/sfud/src/sfud.c:982:32
	cbnz	r0, .LBB8_12
	b	.LBB8_11
.LBB8_11:
	.loc	5 982 37                        @ rt-thread/components/drivers/spi/sfud/src/sfud.c:982:37
	ldrb.w	r0, [sp, #10]
.Ltmp152:
	.loc	5 982 9                         @ rt-thread/components/drivers/spi/sfud/src/sfud.c:982:9
	lsls	r0, r0, #31
	cbz	r0, .LBB8_15
	b	.LBB8_12
.LBB8_12:
.Ltmp153:
	.loc	5 983 9 is_stmt 1               @ rt-thread/components/drivers/spi/sfud/src/sfud.c:983:9
	b	.LBB8_13
.LBB8_13:
.Ltmp154:
	.loc	5 983 9 is_stmt 0               @ rt-thread/components/drivers/spi/sfud/src/sfud.c:983:9
	movw	r0, :lower16:.L.str
	movt	r0, :upper16:.L.str
	bl	rt_kprintf
	movw	r0, :lower16:.L.str.55
	movt	r0, :upper16:.L.str.55
	bl	rt_kprintf
	movw	r0, :lower16:.L.str.2
	movt	r0, :upper16:.L.str.2
	bl	rt_kprintf
	b	.LBB8_14
.Ltmp155:
.LBB8_14:
	.loc	5 984 5 is_stmt 1               @ rt-thread/components/drivers/spi/sfud/src/sfud.c:984:5
	b	.LBB8_15
.Ltmp156:
.LBB8_15:
	.loc	5 986 12                        @ rt-thread/components/drivers/spi/sfud/src/sfud.c:986:12
	ldrb.w	r0, [sp, #11]
	.loc	5 986 5 is_stmt 0               @ rt-thread/components/drivers/spi/sfud/src/sfud.c:986:5
	add	sp, #16
	pop	{r7, pc}
.Ltmp157:
.Lfunc_end8:
	.size	wait_busy, .Lfunc_end8-wait_busy
	.cfi_endproc
	.cantunwind
	.fnend
                                        @ -- End function
	.section	.text.make_adress_byte_array,"ax",%progbits
	.p2align	3                               @ -- Begin function make_adress_byte_array
	.type	make_adress_byte_array,%function
	.code	16                              @ @make_adress_byte_array
	.thumb_func
make_adress_byte_array:
.Lfunc_begin9:
	.loc	5 989 0 is_stmt 1               @ rt-thread/components/drivers/spi/sfud/src/sfud.c:989:0
	.fnstart
	.cfi_startproc
@ %bb.0:
	.pad	#16
	sub	sp, #16
	.cfi_def_cfa_offset 16
	str	r0, [sp, #12]
	str	r1, [sp, #8]
	str	r2, [sp, #4]
.Ltmp158:
	.loc	5 995 11 prologue_end           @ rt-thread/components/drivers/spi/sfud/src/sfud.c:995:11
	ldr	r0, [sp, #12]
	.loc	5 995 18 is_stmt 0              @ rt-thread/components/drivers/spi/sfud/src/sfud.c:995:18
	ldrb.w	r0, [r0, #53]
	.loc	5 995 11                        @ rt-thread/components/drivers/spi/sfud/src/sfud.c:995:11
	lsls	r1, r0, #31
	movs	r0, #3
	cmp	r1, #0
	it	ne
	movne	r0, #4
	.loc	5 995 9                         @ rt-thread/components/drivers/spi/sfud/src/sfud.c:995:9
	strb.w	r0, [sp, #3]
	movs	r0, #0
.Ltmp159:
	.loc	5 997 12 is_stmt 1              @ rt-thread/components/drivers/spi/sfud/src/sfud.c:997:12
	strb.w	r0, [sp, #2]
	.loc	5 997 10 is_stmt 0              @ rt-thread/components/drivers/spi/sfud/src/sfud.c:997:10
	b	.LBB9_1
.LBB9_1:                                @ =>This Inner Loop Header: Depth=1
.Ltmp160:
	.loc	5 997 17                        @ rt-thread/components/drivers/spi/sfud/src/sfud.c:997:17
	ldrb.w	r0, [sp, #2]
	.loc	5 997 21                        @ rt-thread/components/drivers/spi/sfud/src/sfud.c:997:21
	ldrb.w	r1, [sp, #3]
.Ltmp161:
	.loc	5 997 5                         @ rt-thread/components/drivers/spi/sfud/src/sfud.c:997:5
	cmp	r0, r1
	bge	.LBB9_4
	b	.LBB9_2
.LBB9_2:                                @   in Loop: Header=BB9_1 Depth=1
.Ltmp162:
	.loc	5 998 21 is_stmt 1              @ rt-thread/components/drivers/spi/sfud/src/sfud.c:998:21
	ldr	r0, [sp, #8]
	.loc	5 998 31 is_stmt 0              @ rt-thread/components/drivers/spi/sfud/src/sfud.c:998:31
	ldrb.w	r1, [sp, #3]
	.loc	5 998 38                        @ rt-thread/components/drivers/spi/sfud/src/sfud.c:998:38
	ldrb.w	r2, [sp, #2]
	.loc	5 998 35                        @ rt-thread/components/drivers/spi/sfud/src/sfud.c:998:35
	subs	r3, r1, r2
	mvn	r1, #7
	.loc	5 998 46                        @ rt-thread/components/drivers/spi/sfud/src/sfud.c:998:46
	add.w	r1, r1, r3, lsl #3
	.loc	5 998 26                        @ rt-thread/components/drivers/spi/sfud/src/sfud.c:998:26
	lsrs	r0, r1
	.loc	5 998 9                         @ rt-thread/components/drivers/spi/sfud/src/sfud.c:998:9
	ldr	r1, [sp, #4]
	.loc	5 998 18                        @ rt-thread/components/drivers/spi/sfud/src/sfud.c:998:18
	strb	r0, [r1, r2]
	.loc	5 999 5 is_stmt 1               @ rt-thread/components/drivers/spi/sfud/src/sfud.c:999:5
	b	.LBB9_3
.Ltmp163:
.LBB9_3:                                @   in Loop: Header=BB9_1 Depth=1
	.loc	5 997 27                        @ rt-thread/components/drivers/spi/sfud/src/sfud.c:997:27
	ldrb.w	r0, [sp, #2]
	adds	r0, #1
	strb.w	r0, [sp, #2]
	.loc	5 997 5 is_stmt 0               @ rt-thread/components/drivers/spi/sfud/src/sfud.c:997:5
	b	.LBB9_1
.Ltmp164:
.LBB9_4:
	.loc	5 1000 1 is_stmt 1              @ rt-thread/components/drivers/spi/sfud/src/sfud.c:1000:1
	add	sp, #16
	bx	lr
.Ltmp165:
.Lfunc_end9:
	.size	make_adress_byte_array, .Lfunc_end9-make_adress_byte_array
	.cfi_endproc
	.cantunwind
	.fnend
                                        @ -- End function
	.section	.text.sfud_chip_erase,"ax",%progbits
	.hidden	sfud_chip_erase                 @ -- Begin function sfud_chip_erase
	.globl	sfud_chip_erase
	.p2align	3
	.type	sfud_chip_erase,%function
	.code	16                              @ @sfud_chip_erase
	.thumb_func
sfud_chip_erase:
.Lfunc_begin10:
	.loc	5 444 0                         @ rt-thread/components/drivers/spi/sfud/src/sfud.c:444:0
	.fnstart
	.cfi_startproc
@ %bb.0:
	.save	{r7, lr}
	push	{r7, lr}
	.cfi_def_cfa_offset 8
	.cfi_offset lr, -4
	.cfi_offset r7, -8
	.pad	#24
	sub	sp, #24
	.cfi_def_cfa_offset 32
	str	r0, [sp, #20]
	movs	r0, #0
.Ltmp166:
	.loc	5 445 14 prologue_end           @ rt-thread/components/drivers/spi/sfud/src/sfud.c:445:14
	strb.w	r0, [sp, #19]
	.loc	5 446 28                        @ rt-thread/components/drivers/spi/sfud/src/sfud.c:446:28
	ldr	r0, [sp, #20]
	.loc	5 446 35 is_stmt 0              @ rt-thread/components/drivers/spi/sfud/src/sfud.c:446:35
	adds	r0, #32
	.loc	5 446 21                        @ rt-thread/components/drivers/spi/sfud/src/sfud.c:446:21
	str	r0, [sp, #12]
.Ltmp167:
	.loc	5 453 9 is_stmt 1               @ rt-thread/components/drivers/spi/sfud/src/sfud.c:453:9
	ldr	r0, [sp, #12]
	.loc	5 453 14 is_stmt 0              @ rt-thread/components/drivers/spi/sfud/src/sfud.c:453:14
	ldr	r0, [r0, #8]
.Ltmp168:
	.loc	5 453 9                         @ rt-thread/components/drivers/spi/sfud/src/sfud.c:453:9
	cbz	r0, .LBB10_2
	b	.LBB10_1
.LBB10_1:
.Ltmp169:
	.loc	5 454 9 is_stmt 1               @ rt-thread/components/drivers/spi/sfud/src/sfud.c:454:9
	ldr	r0, [sp, #12]
	.loc	5 454 14 is_stmt 0              @ rt-thread/components/drivers/spi/sfud/src/sfud.c:454:14
	ldr	r1, [r0, #8]
	.loc	5 454 9                         @ rt-thread/components/drivers/spi/sfud/src/sfud.c:454:9
	blx	r1
	.loc	5 455 5 is_stmt 1               @ rt-thread/components/drivers/spi/sfud/src/sfud.c:455:5
	b	.LBB10_2
.Ltmp170:
.LBB10_2:
	.loc	5 458 32                        @ rt-thread/components/drivers/spi/sfud/src/sfud.c:458:32
	ldr	r0, [sp, #20]
	movs	r1, #1
	.loc	5 458 14 is_stmt 0              @ rt-thread/components/drivers/spi/sfud/src/sfud.c:458:14
	bl	set_write_enabled
	.loc	5 458 12                        @ rt-thread/components/drivers/spi/sfud/src/sfud.c:458:12
	strb.w	r0, [sp, #19]
.Ltmp171:
	.loc	5 459 9 is_stmt 1               @ rt-thread/components/drivers/spi/sfud/src/sfud.c:459:9
	ldrb.w	r0, [sp, #19]
.Ltmp172:
	.loc	5 459 9 is_stmt 0               @ rt-thread/components/drivers/spi/sfud/src/sfud.c:459:9
	cbz	r0, .LBB10_4
	b	.LBB10_3
.LBB10_3:
.Ltmp173:
	.loc	5 460 9 is_stmt 1               @ rt-thread/components/drivers/spi/sfud/src/sfud.c:460:9
	b	.LBB10_12
.Ltmp174:
.LBB10_4:
	.loc	5 0 9 is_stmt 0                 @ rt-thread/components/drivers/spi/sfud/src/sfud.c:0:9
	movs	r0, #199
	.loc	5 463 17 is_stmt 1              @ rt-thread/components/drivers/spi/sfud/src/sfud.c:463:17
	strb.w	r0, [sp, #8]
.Ltmp175:
	.loc	5 465 9                         @ rt-thread/components/drivers/spi/sfud/src/sfud.c:465:9
	ldr	r0, [sp, #20]
	ldrh	r0, [r0, #20]
.Ltmp176:
	.loc	5 465 9 is_stmt 0               @ rt-thread/components/drivers/spi/sfud/src/sfud.c:465:9
	lsls	r0, r0, #28
	cmp	r0, #0
	bpl	.LBB10_6
	b	.LBB10_5
.LBB10_5:
	.loc	5 0 9                           @ rt-thread/components/drivers/spi/sfud/src/sfud.c:0:9
	movs	r0, #148
.Ltmp177:
	.loc	5 466 21 is_stmt 1              @ rt-thread/components/drivers/spi/sfud/src/sfud.c:466:21
	strb.w	r0, [sp, #9]
	movs	r0, #128
	.loc	5 467 21                        @ rt-thread/components/drivers/spi/sfud/src/sfud.c:467:21
	strb.w	r0, [sp, #10]
	movs	r0, #154
	.loc	5 468 21                        @ rt-thread/components/drivers/spi/sfud/src/sfud.c:468:21
	strb.w	r0, [sp, #11]
	.loc	5 469 18                        @ rt-thread/components/drivers/spi/sfud/src/sfud.c:469:18
	ldr	r0, [sp, #12]
	.loc	5 469 23 is_stmt 0              @ rt-thread/components/drivers/spi/sfud/src/sfud.c:469:23
	ldr.w	r12, [r0, #4]
	.loc	5 469 18                        @ rt-thread/components/drivers/spi/sfud/src/sfud.c:469:18
	mov	r1, sp
	movs	r3, #0
	str	r3, [r1]
	add	r1, sp, #8
	movs	r2, #4
	blx	r12
	.loc	5 469 16                        @ rt-thread/components/drivers/spi/sfud/src/sfud.c:469:16
	strb.w	r0, [sp, #19]
	.loc	5 470 5 is_stmt 1               @ rt-thread/components/drivers/spi/sfud/src/sfud.c:470:5
	b	.LBB10_7
.Ltmp178:
.LBB10_6:
	.loc	5 471 18                        @ rt-thread/components/drivers/spi/sfud/src/sfud.c:471:18
	ldr	r0, [sp, #12]
	.loc	5 471 23 is_stmt 0              @ rt-thread/components/drivers/spi/sfud/src/sfud.c:471:23
	ldr.w	r12, [r0, #4]
	.loc	5 471 18                        @ rt-thread/components/drivers/spi/sfud/src/sfud.c:471:18
	mov	r1, sp
	movs	r3, #0
	str	r3, [r1]
	add	r1, sp, #8
	movs	r2, #1
	blx	r12
	.loc	5 471 16                        @ rt-thread/components/drivers/spi/sfud/src/sfud.c:471:16
	strb.w	r0, [sp, #19]
	b	.LBB10_7
.Ltmp179:
.LBB10_7:
	.loc	5 473 9 is_stmt 1               @ rt-thread/components/drivers/spi/sfud/src/sfud.c:473:9
	ldrb.w	r0, [sp, #19]
.Ltmp180:
	.loc	5 473 9 is_stmt 0               @ rt-thread/components/drivers/spi/sfud/src/sfud.c:473:9
	cbz	r0, .LBB10_11
	b	.LBB10_8
.LBB10_8:
.Ltmp181:
	.loc	5 474 9 is_stmt 1               @ rt-thread/components/drivers/spi/sfud/src/sfud.c:474:9
	b	.LBB10_9
.LBB10_9:
.Ltmp182:
	.loc	5 474 9 is_stmt 0               @ rt-thread/components/drivers/spi/sfud/src/sfud.c:474:9
	movw	r0, :lower16:.L.str
	movt	r0, :upper16:.L.str
	bl	rt_kprintf
	movw	r0, :lower16:.L.str.5
	movt	r0, :upper16:.L.str.5
	bl	rt_kprintf
	movw	r0, :lower16:.L.str.2
	movt	r0, :upper16:.L.str.2
	bl	rt_kprintf
	b	.LBB10_10
.Ltmp183:
.LBB10_10:
	.loc	5 475 9 is_stmt 1               @ rt-thread/components/drivers/spi/sfud/src/sfud.c:475:9
	b	.LBB10_12
.Ltmp184:
.LBB10_11:
	.loc	5 477 24                        @ rt-thread/components/drivers/spi/sfud/src/sfud.c:477:24
	ldr	r0, [sp, #20]
	.loc	5 477 14 is_stmt 0              @ rt-thread/components/drivers/spi/sfud/src/sfud.c:477:14
	bl	wait_busy
	.loc	5 477 12                        @ rt-thread/components/drivers/spi/sfud/src/sfud.c:477:12
	strb.w	r0, [sp, #19]
	.loc	5 477 5                         @ rt-thread/components/drivers/spi/sfud/src/sfud.c:477:5
	b	.LBB10_12
.LBB10_12:
.Ltmp185:
	@DEBUG_LABEL: sfud_chip_erase:__exit
	.loc	5 481 23 is_stmt 1              @ rt-thread/components/drivers/spi/sfud/src/sfud.c:481:23
	ldr	r0, [sp, #20]
	movs	r1, #0
	.loc	5 481 5 is_stmt 0               @ rt-thread/components/drivers/spi/sfud/src/sfud.c:481:5
	bl	set_write_enabled
.Ltmp186:
	.loc	5 483 9 is_stmt 1               @ rt-thread/components/drivers/spi/sfud/src/sfud.c:483:9
	ldr	r0, [sp, #12]
	.loc	5 483 14 is_stmt 0              @ rt-thread/components/drivers/spi/sfud/src/sfud.c:483:14
	ldr	r0, [r0, #12]
.Ltmp187:
	.loc	5 483 9                         @ rt-thread/components/drivers/spi/sfud/src/sfud.c:483:9
	cbz	r0, .LBB10_14
	b	.LBB10_13
.LBB10_13:
.Ltmp188:
	.loc	5 484 9 is_stmt 1               @ rt-thread/components/drivers/spi/sfud/src/sfud.c:484:9
	ldr	r0, [sp, #12]
	.loc	5 484 14 is_stmt 0              @ rt-thread/components/drivers/spi/sfud/src/sfud.c:484:14
	ldr	r1, [r0, #12]
	.loc	5 484 9                         @ rt-thread/components/drivers/spi/sfud/src/sfud.c:484:9
	blx	r1
	.loc	5 485 5 is_stmt 1               @ rt-thread/components/drivers/spi/sfud/src/sfud.c:485:5
	b	.LBB10_14
.Ltmp189:
.LBB10_14:
	.loc	5 487 12                        @ rt-thread/components/drivers/spi/sfud/src/sfud.c:487:12
	ldrb.w	r0, [sp, #19]
	.loc	5 487 5 is_stmt 0               @ rt-thread/components/drivers/spi/sfud/src/sfud.c:487:5
	add	sp, #24
	pop	{r7, pc}
.Ltmp190:
.Lfunc_end10:
	.size	sfud_chip_erase, .Lfunc_end10-sfud_chip_erase
	.cfi_endproc
	.cantunwind
	.fnend
                                        @ -- End function
	.section	.text.set_write_enabled,"ax",%progbits
	.p2align	3                               @ -- Begin function set_write_enabled
	.type	set_write_enabled,%function
	.code	16                              @ @set_write_enabled
	.thumb_func
set_write_enabled:
.Lfunc_begin11:
	.loc	5 878 0 is_stmt 1               @ rt-thread/components/drivers/spi/sfud/src/sfud.c:878:0
	.fnstart
	.cfi_startproc
@ %bb.0:
	.save	{r7, lr}
	push	{r7, lr}
	.cfi_def_cfa_offset 8
	.cfi_offset lr, -4
	.cfi_offset r7, -8
	.pad	#16
	sub	sp, #16
	.cfi_def_cfa_offset 24
                                        @ kill: def $r2 killed $r1
	str	r0, [sp, #8]
	strb.w	r1, [sp, #7]
	movs	r0, #0
.Ltmp191:
	.loc	5 879 14 prologue_end           @ rt-thread/components/drivers/spi/sfud/src/sfud.c:879:14
	strb.w	r0, [sp, #6]
.Ltmp192:
	.loc	5 884 9                         @ rt-thread/components/drivers/spi/sfud/src/sfud.c:884:9
	ldrb.w	r0, [sp, #7]
.Ltmp193:
	.loc	5 884 9 is_stmt 0               @ rt-thread/components/drivers/spi/sfud/src/sfud.c:884:9
	lsls	r0, r0, #31
	cbz	r0, .LBB11_2
	b	.LBB11_1
.LBB11_1:
	.loc	5 0 9                           @ rt-thread/components/drivers/spi/sfud/src/sfud.c:0:9
	movs	r0, #6
.Ltmp194:
	.loc	5 885 13 is_stmt 1              @ rt-thread/components/drivers/spi/sfud/src/sfud.c:885:13
	strb.w	r0, [sp, #5]
	.loc	5 886 5                         @ rt-thread/components/drivers/spi/sfud/src/sfud.c:886:5
	b	.LBB11_3
.Ltmp195:
.LBB11_2:
	.loc	5 0 5 is_stmt 0                 @ rt-thread/components/drivers/spi/sfud/src/sfud.c:0:5
	movs	r0, #4
.Ltmp196:
	.loc	5 887 13 is_stmt 1              @ rt-thread/components/drivers/spi/sfud/src/sfud.c:887:13
	strb.w	r0, [sp, #5]
	b	.LBB11_3
.Ltmp197:
.LBB11_3:
	.loc	5 890 14                        @ rt-thread/components/drivers/spi/sfud/src/sfud.c:890:14
	ldr	r1, [sp, #8]
	.loc	5 890 21 is_stmt 0              @ rt-thread/components/drivers/spi/sfud/src/sfud.c:890:21
	add.w	r0, r1, #32
	.loc	5 890 25                        @ rt-thread/components/drivers/spi/sfud/src/sfud.c:890:25
	ldr.w	r12, [r1, #36]
	.loc	5 890 14                        @ rt-thread/components/drivers/spi/sfud/src/sfud.c:890:14
	mov	r1, sp
	movs	r3, #0
	str	r3, [r1]
	add.w	r1, sp, #5
	movs	r2, #1
	blx	r12
	.loc	5 890 12                        @ rt-thread/components/drivers/spi/sfud/src/sfud.c:890:12
	strb.w	r0, [sp, #6]
.Ltmp198:
	.loc	5 892 9 is_stmt 1               @ rt-thread/components/drivers/spi/sfud/src/sfud.c:892:9
	ldrb.w	r0, [sp, #6]
.Ltmp199:
	.loc	5 892 9 is_stmt 0               @ rt-thread/components/drivers/spi/sfud/src/sfud.c:892:9
	cbnz	r0, .LBB11_5
	b	.LBB11_4
.LBB11_4:
.Ltmp200:
	.loc	5 893 35 is_stmt 1              @ rt-thread/components/drivers/spi/sfud/src/sfud.c:893:35
	ldr	r0, [sp, #8]
	add	r1, sp, #4
	.loc	5 893 18 is_stmt 0              @ rt-thread/components/drivers/spi/sfud/src/sfud.c:893:18
	bl	sfud_read_status
	.loc	5 893 16                        @ rt-thread/components/drivers/spi/sfud/src/sfud.c:893:16
	strb.w	r0, [sp, #6]
	.loc	5 894 5 is_stmt 1               @ rt-thread/components/drivers/spi/sfud/src/sfud.c:894:5
	b	.LBB11_5
.Ltmp201:
.LBB11_5:
	.loc	5 896 9                         @ rt-thread/components/drivers/spi/sfud/src/sfud.c:896:9
	ldrb.w	r0, [sp, #6]
.Ltmp202:
	.loc	5 896 9 is_stmt 0               @ rt-thread/components/drivers/spi/sfud/src/sfud.c:896:9
	cmp	r0, #0
	bne	.LBB11_18
	b	.LBB11_6
.LBB11_6:
.Ltmp203:
	.loc	5 897 13 is_stmt 1              @ rt-thread/components/drivers/spi/sfud/src/sfud.c:897:13
	ldrb.w	r0, [sp, #7]
	.loc	5 897 21 is_stmt 0              @ rt-thread/components/drivers/spi/sfud/src/sfud.c:897:21
	lsls	r0, r0, #31
	cbz	r0, .LBB11_11
	b	.LBB11_7
.LBB11_7:
	.loc	5 897 25                        @ rt-thread/components/drivers/spi/sfud/src/sfud.c:897:25
	ldrb.w	r0, [sp, #4]
.Ltmp204:
	.loc	5 897 13                        @ rt-thread/components/drivers/spi/sfud/src/sfud.c:897:13
	lsls	r0, r0, #30
	cmp	r0, #0
	bmi	.LBB11_11
	b	.LBB11_8
.LBB11_8:
.Ltmp205:
	.loc	5 898 13 is_stmt 1              @ rt-thread/components/drivers/spi/sfud/src/sfud.c:898:13
	b	.LBB11_9
.LBB11_9:
.Ltmp206:
	.loc	5 898 13 is_stmt 0              @ rt-thread/components/drivers/spi/sfud/src/sfud.c:898:13
	movw	r0, :lower16:.L.str
	movt	r0, :upper16:.L.str
	bl	rt_kprintf
	movw	r0, :lower16:.L.str.53
	movt	r0, :upper16:.L.str.53
	bl	rt_kprintf
	movw	r0, :lower16:.L.str.2
	movt	r0, :upper16:.L.str.2
	bl	rt_kprintf
	b	.LBB11_10
.Ltmp207:
.LBB11_10:
	.loc	5 0 13                          @ rt-thread/components/drivers/spi/sfud/src/sfud.c:0:13
	movs	r0, #2
	.loc	5 899 13 is_stmt 1              @ rt-thread/components/drivers/spi/sfud/src/sfud.c:899:13
	strb.w	r0, [sp, #15]
	b	.LBB11_19
.Ltmp208:
.LBB11_11:
	.loc	5 900 21                        @ rt-thread/components/drivers/spi/sfud/src/sfud.c:900:21
	ldrb.w	r0, [sp, #7]
	.loc	5 900 29 is_stmt 0              @ rt-thread/components/drivers/spi/sfud/src/sfud.c:900:29
	lsls	r0, r0, #31
	cbnz	r0, .LBB11_16
	b	.LBB11_12
.LBB11_12:
	.loc	5 900 33                        @ rt-thread/components/drivers/spi/sfud/src/sfud.c:900:33
	ldrb.w	r0, [sp, #4]
.Ltmp209:
	.loc	5 900 20                        @ rt-thread/components/drivers/spi/sfud/src/sfud.c:900:20
	lsls	r0, r0, #30
	cmp	r0, #0
	bpl	.LBB11_16
	b	.LBB11_13
.LBB11_13:
.Ltmp210:
	.loc	5 901 13 is_stmt 1              @ rt-thread/components/drivers/spi/sfud/src/sfud.c:901:13
	b	.LBB11_14
.LBB11_14:
.Ltmp211:
	.loc	5 901 13 is_stmt 0              @ rt-thread/components/drivers/spi/sfud/src/sfud.c:901:13
	movw	r0, :lower16:.L.str
	movt	r0, :upper16:.L.str
	bl	rt_kprintf
	movw	r0, :lower16:.L.str.54
	movt	r0, :upper16:.L.str.54
	bl	rt_kprintf
	movw	r0, :lower16:.L.str.2
	movt	r0, :upper16:.L.str.2
	bl	rt_kprintf
	b	.LBB11_15
.Ltmp212:
.LBB11_15:
	.loc	5 0 13                          @ rt-thread/components/drivers/spi/sfud/src/sfud.c:0:13
	movs	r0, #2
	.loc	5 902 13 is_stmt 1              @ rt-thread/components/drivers/spi/sfud/src/sfud.c:902:13
	strb.w	r0, [sp, #15]
	b	.LBB11_19
.Ltmp213:
.LBB11_16:
	.loc	5 0 13 is_stmt 0                @ rt-thread/components/drivers/spi/sfud/src/sfud.c:0:13
	b	.LBB11_17
.LBB11_17:
	.loc	5 904 5 is_stmt 1               @ rt-thread/components/drivers/spi/sfud/src/sfud.c:904:5
	b	.LBB11_18
.Ltmp214:
.LBB11_18:
	.loc	5 906 12                        @ rt-thread/components/drivers/spi/sfud/src/sfud.c:906:12
	ldrb.w	r0, [sp, #6]
	.loc	5 906 5 is_stmt 0               @ rt-thread/components/drivers/spi/sfud/src/sfud.c:906:5
	strb.w	r0, [sp, #15]
	b	.LBB11_19
.LBB11_19:
	.loc	5 907 1 is_stmt 1               @ rt-thread/components/drivers/spi/sfud/src/sfud.c:907:1
	ldrb.w	r0, [sp, #15]
	add	sp, #16
	pop	{r7, pc}
.Ltmp215:
.Lfunc_end11:
	.size	set_write_enabled, .Lfunc_end11-set_write_enabled
	.cfi_endproc
	.cantunwind
	.fnend
                                        @ -- End function
	.section	.text.sfud_erase,"ax",%progbits
	.hidden	sfud_erase                      @ -- Begin function sfud_erase
	.globl	sfud_erase
	.p2align	3
	.type	sfud_erase,%function
	.code	16                              @ @sfud_erase
	.thumb_func
sfud_erase:
.Lfunc_begin12:
	.loc	5 501 0                         @ rt-thread/components/drivers/spi/sfud/src/sfud.c:501:0
	.fnstart
	.cfi_startproc
@ %bb.0:
	.save	{r7, lr}
	push	{r7, lr}
	.cfi_def_cfa_offset 8
	.cfi_offset lr, -4
	.cfi_offset r7, -8
	.pad	#48
	sub	sp, #48
	.cfi_def_cfa_offset 56
	str	r0, [sp, #40]
	str	r1, [sp, #36]
	str	r2, [sp, #32]
	movs	r0, #0
.Ltmp216:
	.loc	5 504 14 prologue_end           @ rt-thread/components/drivers/spi/sfud/src/sfud.c:504:14
	strb.w	r0, [sp, #31]
	.loc	5 505 28                        @ rt-thread/components/drivers/spi/sfud/src/sfud.c:505:28
	ldr	r0, [sp, #40]
	.loc	5 505 35 is_stmt 0              @ rt-thread/components/drivers/spi/sfud/src/sfud.c:505:35
	adds	r0, #32
	.loc	5 505 21                        @ rt-thread/components/drivers/spi/sfud/src/sfud.c:505:21
	str	r0, [sp, #24]
.Ltmp217:
	.loc	5 513 9 is_stmt 1               @ rt-thread/components/drivers/spi/sfud/src/sfud.c:513:9
	ldr	r0, [sp, #36]
	.loc	5 513 16 is_stmt 0              @ rt-thread/components/drivers/spi/sfud/src/sfud.c:513:16
	ldr	r1, [sp, #32]
	.loc	5 513 14                        @ rt-thread/components/drivers/spi/sfud/src/sfud.c:513:14
	add	r0, r1
	.loc	5 513 23                        @ rt-thread/components/drivers/spi/sfud/src/sfud.c:513:23
	ldr	r1, [sp, #40]
	.loc	5 513 35                        @ rt-thread/components/drivers/spi/sfud/src/sfud.c:513:35
	ldr	r1, [r1, #16]
.Ltmp218:
	.loc	5 513 9                         @ rt-thread/components/drivers/spi/sfud/src/sfud.c:513:9
	cmp	r0, r1
	bls	.LBB12_4
	b	.LBB12_1
.LBB12_1:
.Ltmp219:
	.loc	5 514 9 is_stmt 1               @ rt-thread/components/drivers/spi/sfud/src/sfud.c:514:9
	b	.LBB12_2
.LBB12_2:
.Ltmp220:
	.loc	5 514 9 is_stmt 0               @ rt-thread/components/drivers/spi/sfud/src/sfud.c:514:9
	movw	r0, :lower16:.L.str
	movt	r0, :upper16:.L.str
	bl	rt_kprintf
	movw	r0, :lower16:.L.str.4
	movt	r0, :upper16:.L.str.4
	bl	rt_kprintf
	movw	r0, :lower16:.L.str.2
	movt	r0, :upper16:.L.str.2
	bl	rt_kprintf
	b	.LBB12_3
.Ltmp221:
.LBB12_3:
	.loc	5 0 9                           @ rt-thread/components/drivers/spi/sfud/src/sfud.c:0:9
	movs	r0, #5
	.loc	5 515 9 is_stmt 1               @ rt-thread/components/drivers/spi/sfud/src/sfud.c:515:9
	strb.w	r0, [sp, #47]
	b	.LBB12_36
.Ltmp222:
.LBB12_4:
	.loc	5 518 9                         @ rt-thread/components/drivers/spi/sfud/src/sfud.c:518:9
	ldr	r0, [sp, #36]
	.loc	5 518 19 is_stmt 0              @ rt-thread/components/drivers/spi/sfud/src/sfud.c:518:19
	cbnz	r0, .LBB12_7
	b	.LBB12_5
.LBB12_5:
	.loc	5 518 22                        @ rt-thread/components/drivers/spi/sfud/src/sfud.c:518:22
	ldr	r0, [sp, #32]
	.loc	5 518 30                        @ rt-thread/components/drivers/spi/sfud/src/sfud.c:518:30
	ldr	r1, [sp, #40]
	.loc	5 518 42                        @ rt-thread/components/drivers/spi/sfud/src/sfud.c:518:42
	ldr	r1, [r1, #16]
.Ltmp223:
	.loc	5 518 9                         @ rt-thread/components/drivers/spi/sfud/src/sfud.c:518:9
	cmp	r0, r1
	bne	.LBB12_7
	b	.LBB12_6
.LBB12_6:
.Ltmp224:
	.loc	5 519 32 is_stmt 1              @ rt-thread/components/drivers/spi/sfud/src/sfud.c:519:32
	ldr	r0, [sp, #40]
	.loc	5 519 16 is_stmt 0              @ rt-thread/components/drivers/spi/sfud/src/sfud.c:519:16
	bl	sfud_chip_erase
	.loc	5 519 9                         @ rt-thread/components/drivers/spi/sfud/src/sfud.c:519:9
	strb.w	r0, [sp, #47]
	b	.LBB12_36
.Ltmp225:
.LBB12_7:
	.loc	5 523 9 is_stmt 1               @ rt-thread/components/drivers/spi/sfud/src/sfud.c:523:9
	ldr	r0, [sp, #24]
	.loc	5 523 14 is_stmt 0              @ rt-thread/components/drivers/spi/sfud/src/sfud.c:523:14
	ldr	r0, [r0, #8]
.Ltmp226:
	.loc	5 523 9                         @ rt-thread/components/drivers/spi/sfud/src/sfud.c:523:9
	cbz	r0, .LBB12_9
	b	.LBB12_8
.LBB12_8:
.Ltmp227:
	.loc	5 524 9 is_stmt 1               @ rt-thread/components/drivers/spi/sfud/src/sfud.c:524:9
	ldr	r0, [sp, #24]
	.loc	5 524 14 is_stmt 0              @ rt-thread/components/drivers/spi/sfud/src/sfud.c:524:14
	ldr	r1, [r0, #8]
	.loc	5 524 9                         @ rt-thread/components/drivers/spi/sfud/src/sfud.c:524:9
	blx	r1
	.loc	5 525 5 is_stmt 1               @ rt-thread/components/drivers/spi/sfud/src/sfud.c:525:5
	b	.LBB12_9
.Ltmp228:
.LBB12_9:
	.loc	5 528 5                         @ rt-thread/components/drivers/spi/sfud/src/sfud.c:528:5
	b	.LBB12_10
.LBB12_10:                              @ =>This Inner Loop Header: Depth=1
	.loc	5 528 12 is_stmt 0              @ rt-thread/components/drivers/spi/sfud/src/sfud.c:528:12
	ldr	r0, [sp, #32]
	.loc	5 528 5                         @ rt-thread/components/drivers/spi/sfud/src/sfud.c:528:5
	cmp	r0, #0
	beq.w	.LBB12_32
	b	.LBB12_11
.LBB12_11:                              @   in Loop: Header=BB12_10 Depth=1
.Ltmp229:
	.loc	5 532 13 is_stmt 1              @ rt-thread/components/drivers/spi/sfud/src/sfud.c:532:13
	ldr	r0, [sp, #40]
	.loc	5 532 25 is_stmt 0              @ rt-thread/components/drivers/spi/sfud/src/sfud.c:532:25
	ldrb.w	r0, [r0, #68]
.Ltmp230:
	.loc	5 532 13                        @ rt-thread/components/drivers/spi/sfud/src/sfud.c:532:13
	lsls	r0, r0, #31
	cbz	r0, .LBB12_13
	b	.LBB12_12
.LBB12_12:                              @   in Loop: Header=BB12_10 Depth=1
.Ltmp231:
	.loc	5 534 58 is_stmt 1              @ rt-thread/components/drivers/spi/sfud/src/sfud.c:534:58
	ldr	r0, [sp, #40]
	.loc	5 534 65 is_stmt 0              @ rt-thread/components/drivers/spi/sfud/src/sfud.c:534:65
	ldr	r1, [sp, #36]
	.loc	5 534 71                        @ rt-thread/components/drivers/spi/sfud/src/sfud.c:534:71
	ldr	r2, [sp, #32]
	.loc	5 534 28                        @ rt-thread/components/drivers/spi/sfud/src/sfud.c:534:28
	bl	sfud_sfdp_get_suitable_eraser
	.loc	5 534 26                        @ rt-thread/components/drivers/spi/sfud/src/sfud.c:534:26
	str	r0, [sp, #8]
	.loc	5 535 29 is_stmt 1              @ rt-thread/components/drivers/spi/sfud/src/sfud.c:535:29
	ldr	r0, [sp, #40]
	.loc	5 535 48 is_stmt 0              @ rt-thread/components/drivers/spi/sfud/src/sfud.c:535:48
	ldr	r1, [sp, #8]
	.loc	5 535 36                        @ rt-thread/components/drivers/spi/sfud/src/sfud.c:535:36
	add.w	r0, r0, r1, lsl #3
	.loc	5 535 62                        @ rt-thread/components/drivers/spi/sfud/src/sfud.c:535:62
	ldrb.w	r0, [r0, #88]
	.loc	5 535 27                        @ rt-thread/components/drivers/spi/sfud/src/sfud.c:535:27
	strb.w	r0, [sp, #17]
	.loc	5 536 30 is_stmt 1              @ rt-thread/components/drivers/spi/sfud/src/sfud.c:536:30
	ldr	r0, [sp, #40]
	.loc	5 536 49 is_stmt 0              @ rt-thread/components/drivers/spi/sfud/src/sfud.c:536:49
	ldr	r1, [sp, #8]
	.loc	5 536 37                        @ rt-thread/components/drivers/spi/sfud/src/sfud.c:536:37
	add.w	r0, r0, r1, lsl #3
	.loc	5 536 63                        @ rt-thread/components/drivers/spi/sfud/src/sfud.c:536:63
	ldr	r0, [r0, #84]
	.loc	5 536 28                        @ rt-thread/components/drivers/spi/sfud/src/sfud.c:536:28
	str	r0, [sp, #12]
	.loc	5 537 9 is_stmt 1               @ rt-thread/components/drivers/spi/sfud/src/sfud.c:537:9
	b	.LBB12_14
.Ltmp232:
.LBB12_13:                              @   in Loop: Header=BB12_10 Depth=1
	.loc	5 541 29                        @ rt-thread/components/drivers/spi/sfud/src/sfud.c:541:29
	ldr	r0, [sp, #40]
	.loc	5 541 41 is_stmt 0              @ rt-thread/components/drivers/spi/sfud/src/sfud.c:541:41
	ldrb	r0, [r0, #28]
	.loc	5 541 27                        @ rt-thread/components/drivers/spi/sfud/src/sfud.c:541:27
	strb.w	r0, [sp, #17]
	.loc	5 542 30 is_stmt 1              @ rt-thread/components/drivers/spi/sfud/src/sfud.c:542:30
	ldr	r0, [sp, #40]
	.loc	5 542 42 is_stmt 0              @ rt-thread/components/drivers/spi/sfud/src/sfud.c:542:42
	ldr	r0, [r0, #24]
	.loc	5 542 28                        @ rt-thread/components/drivers/spi/sfud/src/sfud.c:542:28
	str	r0, [sp, #12]
	b	.LBB12_14
.Ltmp233:
.LBB12_14:                              @   in Loop: Header=BB12_10 Depth=1
	.loc	5 545 36 is_stmt 1              @ rt-thread/components/drivers/spi/sfud/src/sfud.c:545:36
	ldr	r0, [sp, #40]
	movs	r1, #1
	.loc	5 545 18 is_stmt 0              @ rt-thread/components/drivers/spi/sfud/src/sfud.c:545:18
	bl	set_write_enabled
	.loc	5 545 16                        @ rt-thread/components/drivers/spi/sfud/src/sfud.c:545:16
	strb.w	r0, [sp, #31]
.Ltmp234:
	.loc	5 546 13 is_stmt 1              @ rt-thread/components/drivers/spi/sfud/src/sfud.c:546:13
	ldrb.w	r0, [sp, #31]
.Ltmp235:
	.loc	5 546 13 is_stmt 0              @ rt-thread/components/drivers/spi/sfud/src/sfud.c:546:13
	cbz	r0, .LBB12_16
	b	.LBB12_15
.LBB12_15:
.Ltmp236:
	.loc	5 547 13 is_stmt 1              @ rt-thread/components/drivers/spi/sfud/src/sfud.c:547:13
	b	.LBB12_33
.Ltmp237:
.LBB12_16:                              @   in Loop: Header=BB12_10 Depth=1
	.loc	5 550 23                        @ rt-thread/components/drivers/spi/sfud/src/sfud.c:550:23
	ldrb.w	r0, [sp, #17]
	.loc	5 550 21 is_stmt 0              @ rt-thread/components/drivers/spi/sfud/src/sfud.c:550:21
	strb.w	r0, [sp, #19]
	.loc	5 551 32 is_stmt 1              @ rt-thread/components/drivers/spi/sfud/src/sfud.c:551:32
	ldr	r0, [sp, #40]
	.loc	5 551 39 is_stmt 0              @ rt-thread/components/drivers/spi/sfud/src/sfud.c:551:39
	ldr	r1, [sp, #36]
	add.w	r2, sp, #19
	.loc	5 551 46                        @ rt-thread/components/drivers/spi/sfud/src/sfud.c:551:46
	str	r2, [sp, #4]                    @ 4-byte Spill
	adds	r2, #1
	.loc	5 551 9                         @ rt-thread/components/drivers/spi/sfud/src/sfud.c:551:9
	bl	make_adress_byte_array
	ldr	r1, [sp, #4]                    @ 4-byte Reload
	.loc	5 552 20 is_stmt 1              @ rt-thread/components/drivers/spi/sfud/src/sfud.c:552:20
	ldr	r0, [sp, #40]
	.loc	5 552 27 is_stmt 0              @ rt-thread/components/drivers/spi/sfud/src/sfud.c:552:27
	ldrb.w	r0, [r0, #53]
	.loc	5 552 20                        @ rt-thread/components/drivers/spi/sfud/src/sfud.c:552:20
	lsls	r2, r0, #31
	movs	r0, #4
	cmp	r2, #0
	it	ne
	movne	r0, #5
	.loc	5 552 18                        @ rt-thread/components/drivers/spi/sfud/src/sfud.c:552:18
	strb.w	r0, [sp, #18]
	.loc	5 553 18 is_stmt 1              @ rt-thread/components/drivers/spi/sfud/src/sfud.c:553:18
	ldr	r0, [sp, #24]
	.loc	5 553 23 is_stmt 0              @ rt-thread/components/drivers/spi/sfud/src/sfud.c:553:23
	ldr.w	r12, [r0, #4]
	.loc	5 553 41                        @ rt-thread/components/drivers/spi/sfud/src/sfud.c:553:41
	ldrb.w	r2, [sp, #18]
	.loc	5 553 18                        @ rt-thread/components/drivers/spi/sfud/src/sfud.c:553:18
	mov	lr, sp
	movs	r3, #0
	str.w	r3, [lr]
	blx	r12
	.loc	5 553 16                        @ rt-thread/components/drivers/spi/sfud/src/sfud.c:553:16
	strb.w	r0, [sp, #31]
.Ltmp238:
	.loc	5 554 13 is_stmt 1              @ rt-thread/components/drivers/spi/sfud/src/sfud.c:554:13
	ldrb.w	r0, [sp, #31]
.Ltmp239:
	.loc	5 554 13 is_stmt 0              @ rt-thread/components/drivers/spi/sfud/src/sfud.c:554:13
	cbz	r0, .LBB12_20
	b	.LBB12_17
.LBB12_17:
.Ltmp240:
	.loc	5 555 13 is_stmt 1              @ rt-thread/components/drivers/spi/sfud/src/sfud.c:555:13
	b	.LBB12_18
.LBB12_18:
.Ltmp241:
	.loc	5 555 13 is_stmt 0              @ rt-thread/components/drivers/spi/sfud/src/sfud.c:555:13
	movw	r0, :lower16:.L.str
	movt	r0, :upper16:.L.str
	bl	rt_kprintf
	movw	r0, :lower16:.L.str.6
	movt	r0, :upper16:.L.str.6
	bl	rt_kprintf
	movw	r0, :lower16:.L.str.2
	movt	r0, :upper16:.L.str.2
	bl	rt_kprintf
	b	.LBB12_19
.Ltmp242:
.LBB12_19:
	.loc	5 556 13 is_stmt 1              @ rt-thread/components/drivers/spi/sfud/src/sfud.c:556:13
	b	.LBB12_33
.Ltmp243:
.LBB12_20:                              @   in Loop: Header=BB12_10 Depth=1
	.loc	5 558 28                        @ rt-thread/components/drivers/spi/sfud/src/sfud.c:558:28
	ldr	r0, [sp, #40]
	.loc	5 558 18 is_stmt 0              @ rt-thread/components/drivers/spi/sfud/src/sfud.c:558:18
	bl	wait_busy
	.loc	5 558 16                        @ rt-thread/components/drivers/spi/sfud/src/sfud.c:558:16
	strb.w	r0, [sp, #31]
.Ltmp244:
	.loc	5 559 13 is_stmt 1              @ rt-thread/components/drivers/spi/sfud/src/sfud.c:559:13
	ldrb.w	r0, [sp, #31]
.Ltmp245:
	.loc	5 559 13 is_stmt 0              @ rt-thread/components/drivers/spi/sfud/src/sfud.c:559:13
	cbz	r0, .LBB12_22
	b	.LBB12_21
.LBB12_21:
.Ltmp246:
	.loc	5 560 13 is_stmt 1              @ rt-thread/components/drivers/spi/sfud/src/sfud.c:560:13
	b	.LBB12_33
.Ltmp247:
.LBB12_22:                              @   in Loop: Header=BB12_10 Depth=1
	.loc	5 563 13                        @ rt-thread/components/drivers/spi/sfud/src/sfud.c:563:13
	ldr	r2, [sp, #36]
	.loc	5 563 20 is_stmt 0              @ rt-thread/components/drivers/spi/sfud/src/sfud.c:563:20
	ldr	r1, [sp, #12]
	.loc	5 563 18                        @ rt-thread/components/drivers/spi/sfud/src/sfud.c:563:18
	udiv	r0, r2, r1
	mls	r0, r0, r1, r2
.Ltmp248:
	.loc	5 563 13                        @ rt-thread/components/drivers/spi/sfud/src/sfud.c:563:13
	cbz	r0, .LBB12_27
	b	.LBB12_23
.LBB12_23:                              @   in Loop: Header=BB12_10 Depth=1
.Ltmp249:
	.loc	5 564 17 is_stmt 1              @ rt-thread/components/drivers/spi/sfud/src/sfud.c:564:17
	ldr	r0, [sp, #32]
	.loc	5 564 24 is_stmt 0              @ rt-thread/components/drivers/spi/sfud/src/sfud.c:564:24
	ldr	r1, [sp, #12]
	.loc	5 564 42                        @ rt-thread/components/drivers/spi/sfud/src/sfud.c:564:42
	ldr	r3, [sp, #36]
	.loc	5 564 47                        @ rt-thread/components/drivers/spi/sfud/src/sfud.c:564:47
	udiv	r2, r3, r1
	muls	r2, r1, r2
	.loc	5 564 39                        @ rt-thread/components/drivers/spi/sfud/src/sfud.c:564:39
	subs	r2, r2, r3
	add	r1, r2
.Ltmp250:
	.loc	5 564 17                        @ rt-thread/components/drivers/spi/sfud/src/sfud.c:564:17
	cmp	r0, r1
	bls	.LBB12_25
	b	.LBB12_24
.LBB12_24:                              @   in Loop: Header=BB12_10 Depth=1
.Ltmp251:
	.loc	5 565 25 is_stmt 1              @ rt-thread/components/drivers/spi/sfud/src/sfud.c:565:25
	ldr	r2, [sp, #12]
	.loc	5 565 43 is_stmt 0              @ rt-thread/components/drivers/spi/sfud/src/sfud.c:565:43
	ldr	r1, [sp, #36]
	.loc	5 565 48                        @ rt-thread/components/drivers/spi/sfud/src/sfud.c:565:48
	udiv	r0, r1, r2
	mls	r1, r0, r2, r1
	.loc	5 565 22                        @ rt-thread/components/drivers/spi/sfud/src/sfud.c:565:22
	ldr	r0, [sp, #32]
	subs	r1, r1, r2
	add	r0, r1
	str	r0, [sp, #32]
	.loc	5 566 25 is_stmt 1              @ rt-thread/components/drivers/spi/sfud/src/sfud.c:566:25
	ldr	r1, [sp, #12]
	.loc	5 566 43 is_stmt 0              @ rt-thread/components/drivers/spi/sfud/src/sfud.c:566:43
	ldr	r0, [sp, #36]
	.loc	5 566 48                        @ rt-thread/components/drivers/spi/sfud/src/sfud.c:566:48
	udiv	r2, r0, r1
	muls	r2, r1, r2
	.loc	5 566 40                        @ rt-thread/components/drivers/spi/sfud/src/sfud.c:566:40
	subs	r2, r2, r0
	add	r1, r2
	.loc	5 566 22                        @ rt-thread/components/drivers/spi/sfud/src/sfud.c:566:22
	add	r0, r1
	str	r0, [sp, #36]
	.loc	5 567 13 is_stmt 1              @ rt-thread/components/drivers/spi/sfud/src/sfud.c:567:13
	b	.LBB12_26
.Ltmp252:
.LBB12_25:
	.loc	5 568 17                        @ rt-thread/components/drivers/spi/sfud/src/sfud.c:568:17
	b	.LBB12_33
.Ltmp253:
.LBB12_26:                              @   in Loop: Header=BB12_10 Depth=1
	.loc	5 570 9                         @ rt-thread/components/drivers/spi/sfud/src/sfud.c:570:9
	b	.LBB12_31
.Ltmp254:
.LBB12_27:                              @   in Loop: Header=BB12_10 Depth=1
	.loc	5 571 17                        @ rt-thread/components/drivers/spi/sfud/src/sfud.c:571:17
	ldr	r0, [sp, #32]
	.loc	5 571 24 is_stmt 0              @ rt-thread/components/drivers/spi/sfud/src/sfud.c:571:24
	ldr	r1, [sp, #12]
.Ltmp255:
	.loc	5 571 17                        @ rt-thread/components/drivers/spi/sfud/src/sfud.c:571:17
	cmp	r0, r1
	bls	.LBB12_29
	b	.LBB12_28
.LBB12_28:                              @   in Loop: Header=BB12_10 Depth=1
.Ltmp256:
	.loc	5 572 25 is_stmt 1              @ rt-thread/components/drivers/spi/sfud/src/sfud.c:572:25
	ldr	r1, [sp, #12]
	.loc	5 572 22 is_stmt 0              @ rt-thread/components/drivers/spi/sfud/src/sfud.c:572:22
	ldr	r0, [sp, #32]
	subs	r0, r0, r1
	str	r0, [sp, #32]
	.loc	5 573 25 is_stmt 1              @ rt-thread/components/drivers/spi/sfud/src/sfud.c:573:25
	ldr	r1, [sp, #12]
	.loc	5 573 22 is_stmt 0              @ rt-thread/components/drivers/spi/sfud/src/sfud.c:573:22
	ldr	r0, [sp, #36]
	add	r0, r1
	str	r0, [sp, #36]
	.loc	5 574 13 is_stmt 1              @ rt-thread/components/drivers/spi/sfud/src/sfud.c:574:13
	b	.LBB12_30
.Ltmp257:
.LBB12_29:
	.loc	5 575 17                        @ rt-thread/components/drivers/spi/sfud/src/sfud.c:575:17
	b	.LBB12_33
.Ltmp258:
.LBB12_30:                              @   in Loop: Header=BB12_10 Depth=1
	.loc	5 0 17 is_stmt 0                @ rt-thread/components/drivers/spi/sfud/src/sfud.c:0:17
	b	.LBB12_31
.LBB12_31:                              @   in Loop: Header=BB12_10 Depth=1
	.loc	5 528 5 is_stmt 1               @ rt-thread/components/drivers/spi/sfud/src/sfud.c:528:5
	b	.LBB12_10
.LBB12_32:
	b	.LBB12_33
.LBB12_33:
.Ltmp259:
	@DEBUG_LABEL: sfud_erase:__exit
	.loc	5 582 23                        @ rt-thread/components/drivers/spi/sfud/src/sfud.c:582:23
	ldr	r0, [sp, #40]
	movs	r1, #0
	.loc	5 582 5 is_stmt 0               @ rt-thread/components/drivers/spi/sfud/src/sfud.c:582:5
	bl	set_write_enabled
.Ltmp260:
	.loc	5 584 9 is_stmt 1               @ rt-thread/components/drivers/spi/sfud/src/sfud.c:584:9
	ldr	r0, [sp, #24]
	.loc	5 584 14 is_stmt 0              @ rt-thread/components/drivers/spi/sfud/src/sfud.c:584:14
	ldr	r0, [r0, #12]
.Ltmp261:
	.loc	5 584 9                         @ rt-thread/components/drivers/spi/sfud/src/sfud.c:584:9
	cbz	r0, .LBB12_35
	b	.LBB12_34
.LBB12_34:
.Ltmp262:
	.loc	5 585 9 is_stmt 1               @ rt-thread/components/drivers/spi/sfud/src/sfud.c:585:9
	ldr	r0, [sp, #24]
	.loc	5 585 14 is_stmt 0              @ rt-thread/components/drivers/spi/sfud/src/sfud.c:585:14
	ldr	r1, [r0, #12]
	.loc	5 585 9                         @ rt-thread/components/drivers/spi/sfud/src/sfud.c:585:9
	blx	r1
	.loc	5 586 5 is_stmt 1               @ rt-thread/components/drivers/spi/sfud/src/sfud.c:586:5
	b	.LBB12_35
.Ltmp263:
.LBB12_35:
	.loc	5 588 12                        @ rt-thread/components/drivers/spi/sfud/src/sfud.c:588:12
	ldrb.w	r0, [sp, #31]
	.loc	5 588 5 is_stmt 0               @ rt-thread/components/drivers/spi/sfud/src/sfud.c:588:5
	strb.w	r0, [sp, #47]
	b	.LBB12_36
.LBB12_36:
	.loc	5 589 1 is_stmt 1               @ rt-thread/components/drivers/spi/sfud/src/sfud.c:589:1
	ldrb.w	r0, [sp, #47]
	add	sp, #48
	pop	{r7, pc}
.Ltmp264:
.Lfunc_end12:
	.size	sfud_erase, .Lfunc_end12-sfud_erase
	.cfi_endproc
	.cantunwind
	.fnend
                                        @ -- End function
	.section	.text.sfud_write,"ax",%progbits
	.hidden	sfud_write                      @ -- Begin function sfud_write
	.globl	sfud_write
	.p2align	3
	.type	sfud_write,%function
	.code	16                              @ @sfud_write
	.thumb_func
sfud_write:
.Lfunc_begin13:
	.loc	5 780 0                         @ rt-thread/components/drivers/spi/sfud/src/sfud.c:780:0
	.fnstart
	.cfi_startproc
@ %bb.0:
	.save	{r7, lr}
	push	{r7, lr}
	.cfi_def_cfa_offset 8
	.cfi_offset lr, -4
	.cfi_offset r7, -8
	.pad	#24
	sub	sp, #24
	.cfi_def_cfa_offset 32
	str	r0, [sp, #20]
	str	r1, [sp, #16]
	str	r2, [sp, #12]
	str	r3, [sp, #8]
	movs	r0, #0
.Ltmp265:
	.loc	5 781 14 prologue_end           @ rt-thread/components/drivers/spi/sfud/src/sfud.c:781:14
	strb.w	r0, [sp, #7]
.Ltmp266:
	.loc	5 783 9                         @ rt-thread/components/drivers/spi/sfud/src/sfud.c:783:9
	ldr	r0, [sp, #20]
	ldrh	r0, [r0, #20]
.Ltmp267:
	.loc	5 783 9 is_stmt 0               @ rt-thread/components/drivers/spi/sfud/src/sfud.c:783:9
	lsls	r0, r0, #31
	cbz	r0, .LBB13_2
	b	.LBB13_1
.LBB13_1:
.Ltmp268:
	.loc	5 784 42 is_stmt 1              @ rt-thread/components/drivers/spi/sfud/src/sfud.c:784:42
	ldr	r0, [sp, #20]
	.loc	5 784 49 is_stmt 0              @ rt-thread/components/drivers/spi/sfud/src/sfud.c:784:49
	ldr	r1, [sp, #16]
	.loc	5 784 55                        @ rt-thread/components/drivers/spi/sfud/src/sfud.c:784:55
	ldr	r2, [sp, #12]
	.loc	5 784 66                        @ rt-thread/components/drivers/spi/sfud/src/sfud.c:784:66
	ldr	r3, [sp, #8]
	.loc	5 784 18                        @ rt-thread/components/drivers/spi/sfud/src/sfud.c:784:18
	mov	r12, sp
	str.w	r3, [r12]
	mov.w	r3, #256
	bl	page256_or_1_byte_write
	.loc	5 784 16                        @ rt-thread/components/drivers/spi/sfud/src/sfud.c:784:16
	strb.w	r0, [sp, #7]
	.loc	5 785 5 is_stmt 1               @ rt-thread/components/drivers/spi/sfud/src/sfud.c:785:5
	b	.LBB13_8
.Ltmp269:
.LBB13_2:
	.loc	5 785 16 is_stmt 0              @ rt-thread/components/drivers/spi/sfud/src/sfud.c:785:16
	ldr	r0, [sp, #20]
	ldrh	r0, [r0, #20]
.Ltmp270:
	.loc	5 785 16                        @ rt-thread/components/drivers/spi/sfud/src/sfud.c:785:16
	lsls	r0, r0, #29
	cmp	r0, #0
	bpl	.LBB13_4
	b	.LBB13_3
.LBB13_3:
.Ltmp271:
	.loc	5 786 28 is_stmt 1              @ rt-thread/components/drivers/spi/sfud/src/sfud.c:786:28
	ldr	r0, [sp, #20]
	.loc	5 786 35 is_stmt 0              @ rt-thread/components/drivers/spi/sfud/src/sfud.c:786:35
	ldr	r1, [sp, #16]
	.loc	5 786 41                        @ rt-thread/components/drivers/spi/sfud/src/sfud.c:786:41
	ldr	r2, [sp, #12]
	.loc	5 786 47                        @ rt-thread/components/drivers/spi/sfud/src/sfud.c:786:47
	ldr	r3, [sp, #8]
	.loc	5 786 18                        @ rt-thread/components/drivers/spi/sfud/src/sfud.c:786:18
	bl	aai_write
	.loc	5 786 16                        @ rt-thread/components/drivers/spi/sfud/src/sfud.c:786:16
	strb.w	r0, [sp, #7]
	.loc	5 787 5 is_stmt 1               @ rt-thread/components/drivers/spi/sfud/src/sfud.c:787:5
	b	.LBB13_7
.Ltmp272:
.LBB13_4:
	.loc	5 787 16 is_stmt 0              @ rt-thread/components/drivers/spi/sfud/src/sfud.c:787:16
	ldr	r0, [sp, #20]
	ldrh	r0, [r0, #20]
.Ltmp273:
	.loc	5 787 16                        @ rt-thread/components/drivers/spi/sfud/src/sfud.c:787:16
	lsls	r0, r0, #28
	cmp	r0, #0
	bpl	.LBB13_6
	b	.LBB13_5
.LBB13_5:
.Ltmp274:
	.loc	5 789 5 is_stmt 1               @ rt-thread/components/drivers/spi/sfud/src/sfud.c:789:5
	b	.LBB13_6
.Ltmp275:
.LBB13_6:
	.loc	5 0 5 is_stmt 0                 @ rt-thread/components/drivers/spi/sfud/src/sfud.c:0:5
	b	.LBB13_7
.LBB13_7:
	b	.LBB13_8
.LBB13_8:
	.loc	5 791 12 is_stmt 1              @ rt-thread/components/drivers/spi/sfud/src/sfud.c:791:12
	ldrb.w	r0, [sp, #7]
	.loc	5 791 5 is_stmt 0               @ rt-thread/components/drivers/spi/sfud/src/sfud.c:791:5
	add	sp, #24
	pop	{r7, pc}
.Ltmp276:
.Lfunc_end13:
	.size	sfud_write, .Lfunc_end13-sfud_write
	.cfi_endproc
	.cantunwind
	.fnend
                                        @ -- End function
	.section	.text.page256_or_1_byte_write,"ax",%progbits
	.p2align	3                               @ -- Begin function page256_or_1_byte_write
	.type	page256_or_1_byte_write,%function
	.code	16                              @ @page256_or_1_byte_write
	.thumb_func
page256_or_1_byte_write:
.Lfunc_begin14:
	.loc	5 603 0 is_stmt 1               @ rt-thread/components/drivers/spi/sfud/src/sfud.c:603:0
	.fnstart
	.cfi_startproc
@ %bb.0:
	.save	{r7, lr}
	push	{r7, lr}
	.cfi_def_cfa_offset 8
	.cfi_offset lr, -4
	.cfi_offset r7, -8
	.pad	#40
	sub	sp, #40
	.cfi_def_cfa_offset 48
	ldr.w	r12, [sp, #48]
                                        @ kill: def $r12 killed $r3
	str	r0, [sp, #32]
	str	r1, [sp, #28]
	str	r2, [sp, #24]
	strh.w	r3, [sp, #22]
	movs	r0, #0
.Ltmp277:
	.loc	5 604 14 prologue_end           @ rt-thread/components/drivers/spi/sfud/src/sfud.c:604:14
	strb.w	r0, [sp, #21]
	.loc	5 605 28                        @ rt-thread/components/drivers/spi/sfud/src/sfud.c:605:28
	ldr	r0, [sp, #32]
	.loc	5 605 35 is_stmt 0              @ rt-thread/components/drivers/spi/sfud/src/sfud.c:605:35
	adds	r0, #32
	.loc	5 605 21                        @ rt-thread/components/drivers/spi/sfud/src/sfud.c:605:21
	str	r0, [sp, #16]
.Ltmp278:
	.loc	5 616 9 is_stmt 1               @ rt-thread/components/drivers/spi/sfud/src/sfud.c:616:9
	ldr	r0, [sp, #28]
	.loc	5 616 16 is_stmt 0              @ rt-thread/components/drivers/spi/sfud/src/sfud.c:616:16
	ldr	r1, [sp, #24]
	.loc	5 616 14                        @ rt-thread/components/drivers/spi/sfud/src/sfud.c:616:14
	add	r0, r1
	.loc	5 616 23                        @ rt-thread/components/drivers/spi/sfud/src/sfud.c:616:23
	ldr	r1, [sp, #32]
	.loc	5 616 35                        @ rt-thread/components/drivers/spi/sfud/src/sfud.c:616:35
	ldr	r1, [r1, #16]
.Ltmp279:
	.loc	5 616 9                         @ rt-thread/components/drivers/spi/sfud/src/sfud.c:616:9
	cmp	r0, r1
	bls	.LBB14_4
	b	.LBB14_1
.LBB14_1:
.Ltmp280:
	.loc	5 617 9 is_stmt 1               @ rt-thread/components/drivers/spi/sfud/src/sfud.c:617:9
	b	.LBB14_2
.LBB14_2:
.Ltmp281:
	.loc	5 617 9 is_stmt 0               @ rt-thread/components/drivers/spi/sfud/src/sfud.c:617:9
	movw	r0, :lower16:.L.str
	movt	r0, :upper16:.L.str
	bl	rt_kprintf
	movw	r0, :lower16:.L.str.4
	movt	r0, :upper16:.L.str.4
	bl	rt_kprintf
	movw	r0, :lower16:.L.str.2
	movt	r0, :upper16:.L.str.2
	bl	rt_kprintf
	b	.LBB14_3
.Ltmp282:
.LBB14_3:
	.loc	5 0 9                           @ rt-thread/components/drivers/spi/sfud/src/sfud.c:0:9
	movs	r0, #5
	.loc	5 618 9 is_stmt 1               @ rt-thread/components/drivers/spi/sfud/src/sfud.c:618:9
	strb.w	r0, [sp, #39]
	b	.LBB14_30
.Ltmp283:
.LBB14_4:
	.loc	5 621 9                         @ rt-thread/components/drivers/spi/sfud/src/sfud.c:621:9
	ldr	r0, [sp, #16]
	.loc	5 621 14 is_stmt 0              @ rt-thread/components/drivers/spi/sfud/src/sfud.c:621:14
	ldr	r0, [r0, #8]
.Ltmp284:
	.loc	5 621 9                         @ rt-thread/components/drivers/spi/sfud/src/sfud.c:621:9
	cbz	r0, .LBB14_6
	b	.LBB14_5
.LBB14_5:
.Ltmp285:
	.loc	5 622 9 is_stmt 1               @ rt-thread/components/drivers/spi/sfud/src/sfud.c:622:9
	ldr	r0, [sp, #16]
	.loc	5 622 14 is_stmt 0              @ rt-thread/components/drivers/spi/sfud/src/sfud.c:622:14
	ldr	r1, [r0, #8]
	.loc	5 622 9                         @ rt-thread/components/drivers/spi/sfud/src/sfud.c:622:9
	blx	r1
	.loc	5 623 5 is_stmt 1               @ rt-thread/components/drivers/spi/sfud/src/sfud.c:623:5
	b	.LBB14_6
.Ltmp286:
.LBB14_6:
	.loc	5 626 5                         @ rt-thread/components/drivers/spi/sfud/src/sfud.c:626:5
	b	.LBB14_7
.LBB14_7:                               @ =>This Inner Loop Header: Depth=1
	.loc	5 626 12 is_stmt 0              @ rt-thread/components/drivers/spi/sfud/src/sfud.c:626:12
	ldr	r0, [sp, #24]
	.loc	5 626 5                         @ rt-thread/components/drivers/spi/sfud/src/sfud.c:626:5
	cmp	r0, #0
	beq.w	.LBB14_26
	b	.LBB14_8
.LBB14_8:                               @   in Loop: Header=BB14_7 Depth=1
.Ltmp287:
	.loc	5 628 36 is_stmt 1              @ rt-thread/components/drivers/spi/sfud/src/sfud.c:628:36
	ldr	r0, [sp, #32]
	movs	r1, #1
	.loc	5 628 18 is_stmt 0              @ rt-thread/components/drivers/spi/sfud/src/sfud.c:628:18
	bl	set_write_enabled
	.loc	5 628 16                        @ rt-thread/components/drivers/spi/sfud/src/sfud.c:628:16
	strb.w	r0, [sp, #21]
.Ltmp288:
	.loc	5 629 13 is_stmt 1              @ rt-thread/components/drivers/spi/sfud/src/sfud.c:629:13
	ldrb.w	r0, [sp, #21]
.Ltmp289:
	.loc	5 629 13 is_stmt 0              @ rt-thread/components/drivers/spi/sfud/src/sfud.c:629:13
	cbz	r0, .LBB14_10
	b	.LBB14_9
.LBB14_9:
.Ltmp290:
	.loc	5 630 13 is_stmt 1              @ rt-thread/components/drivers/spi/sfud/src/sfud.c:630:13
	b	.LBB14_27
.Ltmp291:
.LBB14_10:                              @   in Loop: Header=BB14_7 Depth=1
	.loc	5 632 21                        @ rt-thread/components/drivers/spi/sfud/src/sfud.c:632:21
	movw	r2, :lower16:page256_or_1_byte_write.cmd_data
	movt	r2, :upper16:page256_or_1_byte_write.cmd_data
	movs	r0, #2
	strb	r0, [r2], #1
	.loc	5 633 32                        @ rt-thread/components/drivers/spi/sfud/src/sfud.c:633:32
	ldr	r0, [sp, #32]
	.loc	5 633 39 is_stmt 0              @ rt-thread/components/drivers/spi/sfud/src/sfud.c:633:39
	ldr	r1, [sp, #28]
	.loc	5 633 9                         @ rt-thread/components/drivers/spi/sfud/src/sfud.c:633:9
	bl	make_adress_byte_array
	.loc	5 634 20 is_stmt 1              @ rt-thread/components/drivers/spi/sfud/src/sfud.c:634:20
	ldr	r0, [sp, #32]
	.loc	5 634 27 is_stmt 0              @ rt-thread/components/drivers/spi/sfud/src/sfud.c:634:27
	ldrb.w	r0, [r0, #53]
	.loc	5 634 20                        @ rt-thread/components/drivers/spi/sfud/src/sfud.c:634:20
	lsls	r1, r0, #31
	movs	r0, #4
	cmp	r1, #0
	it	ne
	movne	r0, #5
	.loc	5 634 18                        @ rt-thread/components/drivers/spi/sfud/src/sfud.c:634:18
	strb.w	r0, [sp, #15]
.Ltmp292:
	.loc	5 637 13 is_stmt 1              @ rt-thread/components/drivers/spi/sfud/src/sfud.c:637:13
	ldr	r2, [sp, #28]
	.loc	5 637 20 is_stmt 0              @ rt-thread/components/drivers/spi/sfud/src/sfud.c:637:20
	ldrh.w	r1, [sp, #22]
	.loc	5 637 18                        @ rt-thread/components/drivers/spi/sfud/src/sfud.c:637:18
	udiv	r0, r2, r1
	mls	r0, r0, r1, r2
.Ltmp293:
	.loc	5 637 13                        @ rt-thread/components/drivers/spi/sfud/src/sfud.c:637:13
	cbz	r0, .LBB14_15
	b	.LBB14_11
.LBB14_11:                              @   in Loop: Header=BB14_7 Depth=1
.Ltmp294:
	.loc	5 638 17 is_stmt 1              @ rt-thread/components/drivers/spi/sfud/src/sfud.c:638:17
	ldr	r0, [sp, #24]
	.loc	5 638 24 is_stmt 0              @ rt-thread/components/drivers/spi/sfud/src/sfud.c:638:24
	ldrh.w	r1, [sp, #22]
	.loc	5 638 38                        @ rt-thread/components/drivers/spi/sfud/src/sfud.c:638:38
	ldr	r3, [sp, #28]
	.loc	5 638 43                        @ rt-thread/components/drivers/spi/sfud/src/sfud.c:638:43
	udiv	r2, r3, r1
	muls	r2, r1, r2
	.loc	5 638 35                        @ rt-thread/components/drivers/spi/sfud/src/sfud.c:638:35
	subs	r2, r2, r3
	add	r1, r2
.Ltmp295:
	.loc	5 638 17                        @ rt-thread/components/drivers/spi/sfud/src/sfud.c:638:17
	cmp	r0, r1
	bls	.LBB14_13
	b	.LBB14_12
.LBB14_12:                              @   in Loop: Header=BB14_7 Depth=1
.Ltmp296:
	.loc	5 639 29 is_stmt 1              @ rt-thread/components/drivers/spi/sfud/src/sfud.c:639:29
	ldrh.w	r0, [sp, #22]
	.loc	5 639 43 is_stmt 0              @ rt-thread/components/drivers/spi/sfud/src/sfud.c:639:43
	ldr	r2, [sp, #28]
	.loc	5 639 48                        @ rt-thread/components/drivers/spi/sfud/src/sfud.c:639:48
	udiv	r1, r2, r0
	muls	r1, r0, r1
	.loc	5 639 40                        @ rt-thread/components/drivers/spi/sfud/src/sfud.c:639:40
	subs	r1, r1, r2
	add	r0, r1
	.loc	5 639 27                        @ rt-thread/components/drivers/spi/sfud/src/sfud.c:639:27
	str	r0, [sp, #8]
	.loc	5 640 13 is_stmt 1              @ rt-thread/components/drivers/spi/sfud/src/sfud.c:640:13
	b	.LBB14_14
.Ltmp297:
.LBB14_13:                              @   in Loop: Header=BB14_7 Depth=1
	.loc	5 641 29                        @ rt-thread/components/drivers/spi/sfud/src/sfud.c:641:29
	ldr	r0, [sp, #24]
	.loc	5 641 27 is_stmt 0              @ rt-thread/components/drivers/spi/sfud/src/sfud.c:641:27
	str	r0, [sp, #8]
	b	.LBB14_14
.Ltmp298:
.LBB14_14:                              @   in Loop: Header=BB14_7 Depth=1
	.loc	5 643 9 is_stmt 1               @ rt-thread/components/drivers/spi/sfud/src/sfud.c:643:9
	b	.LBB14_19
.Ltmp299:
.LBB14_15:                              @   in Loop: Header=BB14_7 Depth=1
	.loc	5 644 17                        @ rt-thread/components/drivers/spi/sfud/src/sfud.c:644:17
	ldr	r0, [sp, #24]
	.loc	5 644 24 is_stmt 0              @ rt-thread/components/drivers/spi/sfud/src/sfud.c:644:24
	ldrh.w	r1, [sp, #22]
.Ltmp300:
	.loc	5 644 17                        @ rt-thread/components/drivers/spi/sfud/src/sfud.c:644:17
	cmp	r0, r1
	bls	.LBB14_17
	b	.LBB14_16
.LBB14_16:                              @   in Loop: Header=BB14_7 Depth=1
.Ltmp301:
	.loc	5 645 29 is_stmt 1              @ rt-thread/components/drivers/spi/sfud/src/sfud.c:645:29
	ldrh.w	r0, [sp, #22]
	.loc	5 645 27 is_stmt 0              @ rt-thread/components/drivers/spi/sfud/src/sfud.c:645:27
	str	r0, [sp, #8]
	.loc	5 646 13 is_stmt 1              @ rt-thread/components/drivers/spi/sfud/src/sfud.c:646:13
	b	.LBB14_18
.Ltmp302:
.LBB14_17:                              @   in Loop: Header=BB14_7 Depth=1
	.loc	5 647 29                        @ rt-thread/components/drivers/spi/sfud/src/sfud.c:647:29
	ldr	r0, [sp, #24]
	.loc	5 647 27 is_stmt 0              @ rt-thread/components/drivers/spi/sfud/src/sfud.c:647:27
	str	r0, [sp, #8]
	b	.LBB14_18
.Ltmp303:
.LBB14_18:                              @   in Loop: Header=BB14_7 Depth=1
	.loc	5 0 27                          @ rt-thread/components/drivers/spi/sfud/src/sfud.c:0:27
	b	.LBB14_19
.LBB14_19:                              @   in Loop: Header=BB14_7 Depth=1
	.loc	5 650 17 is_stmt 1              @ rt-thread/components/drivers/spi/sfud/src/sfud.c:650:17
	ldr	r1, [sp, #8]
	.loc	5 650 14 is_stmt 0              @ rt-thread/components/drivers/spi/sfud/src/sfud.c:650:14
	ldr	r0, [sp, #24]
	subs	r0, r0, r1
	str	r0, [sp, #24]
	.loc	5 651 17 is_stmt 1              @ rt-thread/components/drivers/spi/sfud/src/sfud.c:651:17
	ldr	r1, [sp, #8]
	.loc	5 651 14 is_stmt 0              @ rt-thread/components/drivers/spi/sfud/src/sfud.c:651:14
	ldr	r0, [sp, #28]
	add	r0, r1
	str	r0, [sp, #28]
	.loc	5 653 26 is_stmt 1              @ rt-thread/components/drivers/spi/sfud/src/sfud.c:653:26
	ldrb.w	r1, [sp, #15]
	.loc	5 653 17 is_stmt 0              @ rt-thread/components/drivers/spi/sfud/src/sfud.c:653:17
	movw	r0, :lower16:page256_or_1_byte_write.cmd_data
	movt	r0, :upper16:page256_or_1_byte_write.cmd_data
	str	r0, [sp, #4]                    @ 4-byte Spill
	add	r0, r1
	.loc	5 653 37                        @ rt-thread/components/drivers/spi/sfud/src/sfud.c:653:37
	ldr	r1, [sp, #48]
	.loc	5 653 43                        @ rt-thread/components/drivers/spi/sfud/src/sfud.c:653:43
	ldr	r2, [sp, #8]
	.loc	5 653 9                         @ rt-thread/components/drivers/spi/sfud/src/sfud.c:653:9
	bl	__aeabi_memcpy
	ldr	r1, [sp, #4]                    @ 4-byte Reload
	.loc	5 655 18 is_stmt 1              @ rt-thread/components/drivers/spi/sfud/src/sfud.c:655:18
	ldr	r0, [sp, #16]
	.loc	5 655 23 is_stmt 0              @ rt-thread/components/drivers/spi/sfud/src/sfud.c:655:23
	ldr.w	r12, [r0, #4]
	.loc	5 655 41                        @ rt-thread/components/drivers/spi/sfud/src/sfud.c:655:41
	ldrb.w	r2, [sp, #15]
	.loc	5 655 52                        @ rt-thread/components/drivers/spi/sfud/src/sfud.c:655:52
	ldr	r3, [sp, #8]
	.loc	5 655 50                        @ rt-thread/components/drivers/spi/sfud/src/sfud.c:655:50
	add	r2, r3
	.loc	5 655 18                        @ rt-thread/components/drivers/spi/sfud/src/sfud.c:655:18
	mov	lr, sp
	movs	r3, #0
	str.w	r3, [lr]
	blx	r12
	.loc	5 655 16                        @ rt-thread/components/drivers/spi/sfud/src/sfud.c:655:16
	strb.w	r0, [sp, #21]
.Ltmp304:
	.loc	5 656 13 is_stmt 1              @ rt-thread/components/drivers/spi/sfud/src/sfud.c:656:13
	ldrb.w	r0, [sp, #21]
.Ltmp305:
	.loc	5 656 13 is_stmt 0              @ rt-thread/components/drivers/spi/sfud/src/sfud.c:656:13
	cbz	r0, .LBB14_23
	b	.LBB14_20
.LBB14_20:
.Ltmp306:
	.loc	5 657 13 is_stmt 1              @ rt-thread/components/drivers/spi/sfud/src/sfud.c:657:13
	b	.LBB14_21
.LBB14_21:
.Ltmp307:
	.loc	5 657 13 is_stmt 0              @ rt-thread/components/drivers/spi/sfud/src/sfud.c:657:13
	movw	r0, :lower16:.L.str
	movt	r0, :upper16:.L.str
	bl	rt_kprintf
	movw	r0, :lower16:.L.str.52
	movt	r0, :upper16:.L.str.52
	bl	rt_kprintf
	movw	r0, :lower16:.L.str.2
	movt	r0, :upper16:.L.str.2
	bl	rt_kprintf
	b	.LBB14_22
.Ltmp308:
.LBB14_22:
	.loc	5 658 13 is_stmt 1              @ rt-thread/components/drivers/spi/sfud/src/sfud.c:658:13
	b	.LBB14_27
.Ltmp309:
.LBB14_23:                              @   in Loop: Header=BB14_7 Depth=1
	.loc	5 660 28                        @ rt-thread/components/drivers/spi/sfud/src/sfud.c:660:28
	ldr	r0, [sp, #32]
	.loc	5 660 18 is_stmt 0              @ rt-thread/components/drivers/spi/sfud/src/sfud.c:660:18
	bl	wait_busy
	.loc	5 660 16                        @ rt-thread/components/drivers/spi/sfud/src/sfud.c:660:16
	strb.w	r0, [sp, #21]
.Ltmp310:
	.loc	5 661 13 is_stmt 1              @ rt-thread/components/drivers/spi/sfud/src/sfud.c:661:13
	ldrb.w	r0, [sp, #21]
.Ltmp311:
	.loc	5 661 13 is_stmt 0              @ rt-thread/components/drivers/spi/sfud/src/sfud.c:661:13
	cbz	r0, .LBB14_25
	b	.LBB14_24
.LBB14_24:
.Ltmp312:
	.loc	5 662 13 is_stmt 1              @ rt-thread/components/drivers/spi/sfud/src/sfud.c:662:13
	b	.LBB14_27
.Ltmp313:
.LBB14_25:                              @   in Loop: Header=BB14_7 Depth=1
	.loc	5 664 17                        @ rt-thread/components/drivers/spi/sfud/src/sfud.c:664:17
	ldr	r1, [sp, #8]
	.loc	5 664 14 is_stmt 0              @ rt-thread/components/drivers/spi/sfud/src/sfud.c:664:14
	ldr	r0, [sp, #48]
	add	r0, r1
	str	r0, [sp, #48]
.Ltmp314:
	.loc	5 626 5 is_stmt 1               @ rt-thread/components/drivers/spi/sfud/src/sfud.c:626:5
	b	.LBB14_7
.LBB14_26:
	b	.LBB14_27
.LBB14_27:
.Ltmp315:
	@DEBUG_LABEL: page256_or_1_byte_write:__exit
	.loc	5 669 23                        @ rt-thread/components/drivers/spi/sfud/src/sfud.c:669:23
	ldr	r0, [sp, #32]
	movs	r1, #0
	.loc	5 669 5 is_stmt 0               @ rt-thread/components/drivers/spi/sfud/src/sfud.c:669:5
	bl	set_write_enabled
.Ltmp316:
	.loc	5 671 9 is_stmt 1               @ rt-thread/components/drivers/spi/sfud/src/sfud.c:671:9
	ldr	r0, [sp, #16]
	.loc	5 671 14 is_stmt 0              @ rt-thread/components/drivers/spi/sfud/src/sfud.c:671:14
	ldr	r0, [r0, #12]
.Ltmp317:
	.loc	5 671 9                         @ rt-thread/components/drivers/spi/sfud/src/sfud.c:671:9
	cbz	r0, .LBB14_29
	b	.LBB14_28
.LBB14_28:
.Ltmp318:
	.loc	5 672 9 is_stmt 1               @ rt-thread/components/drivers/spi/sfud/src/sfud.c:672:9
	ldr	r0, [sp, #16]
	.loc	5 672 14 is_stmt 0              @ rt-thread/components/drivers/spi/sfud/src/sfud.c:672:14
	ldr	r1, [r0, #12]
	.loc	5 672 9                         @ rt-thread/components/drivers/spi/sfud/src/sfud.c:672:9
	blx	r1
	.loc	5 673 5 is_stmt 1               @ rt-thread/components/drivers/spi/sfud/src/sfud.c:673:5
	b	.LBB14_29
.Ltmp319:
.LBB14_29:
	.loc	5 675 12                        @ rt-thread/components/drivers/spi/sfud/src/sfud.c:675:12
	ldrb.w	r0, [sp, #21]
	.loc	5 675 5 is_stmt 0               @ rt-thread/components/drivers/spi/sfud/src/sfud.c:675:5
	strb.w	r0, [sp, #39]
	b	.LBB14_30
.LBB14_30:
	.loc	5 676 1 is_stmt 1               @ rt-thread/components/drivers/spi/sfud/src/sfud.c:676:1
	ldrb.w	r0, [sp, #39]
	add	sp, #40
	pop	{r7, pc}
.Ltmp320:
.Lfunc_end14:
	.size	page256_or_1_byte_write, .Lfunc_end14-page256_or_1_byte_write
	.cfi_endproc
	.cantunwind
	.fnend
                                        @ -- End function
	.section	.text.aai_write,"ax",%progbits
	.p2align	3                               @ -- Begin function aai_write
	.type	aai_write,%function
	.code	16                              @ @aai_write
	.thumb_func
aai_write:
.Lfunc_begin15:
	.loc	5 691 0                         @ rt-thread/components/drivers/spi/sfud/src/sfud.c:691:0
	.fnstart
	.cfi_startproc
@ %bb.0:
	.save	{r7, lr}
	push	{r7, lr}
	.cfi_def_cfa_offset 8
	.cfi_offset lr, -4
	.cfi_offset r7, -8
	.pad	#48
	sub	sp, #48
	.cfi_def_cfa_offset 56
	str	r0, [sp, #40]
	str	r1, [sp, #36]
	str	r2, [sp, #32]
	str	r3, [sp, #28]
	movs	r0, #0
.Ltmp321:
	.loc	5 692 14 prologue_end           @ rt-thread/components/drivers/spi/sfud/src/sfud.c:692:14
	strb.w	r0, [sp, #27]
	.loc	5 693 28                        @ rt-thread/components/drivers/spi/sfud/src/sfud.c:693:28
	ldr	r0, [sp, #40]
	.loc	5 693 35 is_stmt 0              @ rt-thread/components/drivers/spi/sfud/src/sfud.c:693:35
	adds	r0, #32
	.loc	5 693 21                        @ rt-thread/components/drivers/spi/sfud/src/sfud.c:693:21
	str	r0, [sp, #20]
	movs	r0, #1
	.loc	5 695 10 is_stmt 1              @ rt-thread/components/drivers/spi/sfud/src/sfud.c:695:10
	strb.w	r0, [sp, #10]
.Ltmp322:
	.loc	5 700 9                         @ rt-thread/components/drivers/spi/sfud/src/sfud.c:700:9
	ldr	r0, [sp, #36]
	.loc	5 700 16 is_stmt 0              @ rt-thread/components/drivers/spi/sfud/src/sfud.c:700:16
	ldr	r1, [sp, #32]
	.loc	5 700 14                        @ rt-thread/components/drivers/spi/sfud/src/sfud.c:700:14
	add	r0, r1
	.loc	5 700 23                        @ rt-thread/components/drivers/spi/sfud/src/sfud.c:700:23
	ldr	r1, [sp, #40]
	.loc	5 700 35                        @ rt-thread/components/drivers/spi/sfud/src/sfud.c:700:35
	ldr	r1, [r1, #16]
.Ltmp323:
	.loc	5 700 9                         @ rt-thread/components/drivers/spi/sfud/src/sfud.c:700:9
	cmp	r0, r1
	bls	.LBB15_4
	b	.LBB15_1
.LBB15_1:
.Ltmp324:
	.loc	5 701 9 is_stmt 1               @ rt-thread/components/drivers/spi/sfud/src/sfud.c:701:9
	b	.LBB15_2
.LBB15_2:
.Ltmp325:
	.loc	5 701 9 is_stmt 0               @ rt-thread/components/drivers/spi/sfud/src/sfud.c:701:9
	movw	r0, :lower16:.L.str
	movt	r0, :upper16:.L.str
	bl	rt_kprintf
	movw	r0, :lower16:.L.str.4
	movt	r0, :upper16:.L.str.4
	bl	rt_kprintf
	movw	r0, :lower16:.L.str.2
	movt	r0, :upper16:.L.str.2
	bl	rt_kprintf
	b	.LBB15_3
.Ltmp326:
.LBB15_3:
	.loc	5 0 9                           @ rt-thread/components/drivers/spi/sfud/src/sfud.c:0:9
	movs	r0, #5
	.loc	5 702 9 is_stmt 1               @ rt-thread/components/drivers/spi/sfud/src/sfud.c:702:9
	strb.w	r0, [sp, #47]
	b	.LBB15_33
.Ltmp327:
.LBB15_4:
	.loc	5 705 9                         @ rt-thread/components/drivers/spi/sfud/src/sfud.c:705:9
	ldr	r0, [sp, #20]
	.loc	5 705 14 is_stmt 0              @ rt-thread/components/drivers/spi/sfud/src/sfud.c:705:14
	ldr	r0, [r0, #8]
.Ltmp328:
	.loc	5 705 9                         @ rt-thread/components/drivers/spi/sfud/src/sfud.c:705:9
	cbz	r0, .LBB15_6
	b	.LBB15_5
.LBB15_5:
.Ltmp329:
	.loc	5 706 9 is_stmt 1               @ rt-thread/components/drivers/spi/sfud/src/sfud.c:706:9
	ldr	r0, [sp, #20]
	.loc	5 706 14 is_stmt 0              @ rt-thread/components/drivers/spi/sfud/src/sfud.c:706:14
	ldr	r1, [r0, #8]
	.loc	5 706 9                         @ rt-thread/components/drivers/spi/sfud/src/sfud.c:706:9
	blx	r1
	.loc	5 707 5 is_stmt 1               @ rt-thread/components/drivers/spi/sfud/src/sfud.c:707:5
	b	.LBB15_6
.Ltmp330:
.LBB15_6:
	.loc	5 709 9                         @ rt-thread/components/drivers/spi/sfud/src/sfud.c:709:9
	ldrb.w	r0, [sp, #36]
	lsls	r0, r0, #31
	cbz	r0, .LBB15_10
	b	.LBB15_7
.LBB15_7:
.Ltmp331:
	.loc	5 710 42                        @ rt-thread/components/drivers/spi/sfud/src/sfud.c:710:42
	ldr	r0, [sp, #40]
	.loc	5 710 53 is_stmt 0              @ rt-thread/components/drivers/spi/sfud/src/sfud.c:710:53
	ldr	r1, [sp, #36]
	adds	r2, r1, #1
	str	r2, [sp, #36]
	.loc	5 710 67                        @ rt-thread/components/drivers/spi/sfud/src/sfud.c:710:67
	ldr	r2, [sp, #28]
	adds	r3, r2, #1
	str	r3, [sp, #28]
	.loc	5 710 18                        @ rt-thread/components/drivers/spi/sfud/src/sfud.c:710:18
	mov	r3, sp
	str	r2, [r3]
	movs	r3, #1
	mov	r2, r3
	bl	page256_or_1_byte_write
	.loc	5 710 16                        @ rt-thread/components/drivers/spi/sfud/src/sfud.c:710:16
	strb.w	r0, [sp, #27]
.Ltmp332:
	.loc	5 711 13 is_stmt 1              @ rt-thread/components/drivers/spi/sfud/src/sfud.c:711:13
	ldrb.w	r0, [sp, #27]
.Ltmp333:
	.loc	5 711 13 is_stmt 0              @ rt-thread/components/drivers/spi/sfud/src/sfud.c:711:13
	cbz	r0, .LBB15_9
	b	.LBB15_8
.LBB15_8:
.Ltmp334:
	.loc	5 712 13 is_stmt 1              @ rt-thread/components/drivers/spi/sfud/src/sfud.c:712:13
	b	.LBB15_28
.Ltmp335:
.LBB15_9:
	.loc	5 714 13                        @ rt-thread/components/drivers/spi/sfud/src/sfud.c:714:13
	ldr	r0, [sp, #32]
	subs	r0, #1
	str	r0, [sp, #32]
	.loc	5 715 5                         @ rt-thread/components/drivers/spi/sfud/src/sfud.c:715:5
	b	.LBB15_10
.Ltmp336:
.LBB15_10:
	.loc	5 717 32                        @ rt-thread/components/drivers/spi/sfud/src/sfud.c:717:32
	ldr	r0, [sp, #40]
	movs	r1, #1
	.loc	5 717 14 is_stmt 0              @ rt-thread/components/drivers/spi/sfud/src/sfud.c:717:14
	bl	set_write_enabled
	.loc	5 717 12                        @ rt-thread/components/drivers/spi/sfud/src/sfud.c:717:12
	strb.w	r0, [sp, #27]
.Ltmp337:
	.loc	5 718 9 is_stmt 1               @ rt-thread/components/drivers/spi/sfud/src/sfud.c:718:9
	ldrb.w	r0, [sp, #27]
.Ltmp338:
	.loc	5 718 9 is_stmt 0               @ rt-thread/components/drivers/spi/sfud/src/sfud.c:718:9
	cbz	r0, .LBB15_12
	b	.LBB15_11
.LBB15_11:
.Ltmp339:
	.loc	5 719 9 is_stmt 1               @ rt-thread/components/drivers/spi/sfud/src/sfud.c:719:9
	b	.LBB15_28
.Ltmp340:
.LBB15_12:
	.loc	5 0 9 is_stmt 0                 @ rt-thread/components/drivers/spi/sfud/src/sfud.c:0:9
	movs	r0, #173
	.loc	5 722 17 is_stmt 1              @ rt-thread/components/drivers/spi/sfud/src/sfud.c:722:17
	strb.w	r0, [sp, #12]
	.loc	5 723 5                         @ rt-thread/components/drivers/spi/sfud/src/sfud.c:723:5
	b	.LBB15_13
.LBB15_13:                              @ =>This Inner Loop Header: Depth=1
	.loc	5 723 12 is_stmt 0              @ rt-thread/components/drivers/spi/sfud/src/sfud.c:723:12
	ldr	r0, [sp, #32]
	.loc	5 723 5                         @ rt-thread/components/drivers/spi/sfud/src/sfud.c:723:5
	cmp	r0, #2
	blo	.LBB15_24
	b	.LBB15_14
.LBB15_14:                              @   in Loop: Header=BB15_13 Depth=1
.Ltmp341:
	.loc	5 724 13 is_stmt 1              @ rt-thread/components/drivers/spi/sfud/src/sfud.c:724:13
	ldrb.w	r0, [sp, #10]
.Ltmp342:
	.loc	5 724 13 is_stmt 0              @ rt-thread/components/drivers/spi/sfud/src/sfud.c:724:13
	lsls	r0, r0, #31
	cbz	r0, .LBB15_16
	b	.LBB15_15
.LBB15_15:                              @   in Loop: Header=BB15_13 Depth=1
.Ltmp343:
	.loc	5 725 36 is_stmt 1              @ rt-thread/components/drivers/spi/sfud/src/sfud.c:725:36
	ldr	r0, [sp, #40]
	.loc	5 725 43 is_stmt 0              @ rt-thread/components/drivers/spi/sfud/src/sfud.c:725:43
	ldr	r1, [sp, #36]
	add	r2, sp, #12
	.loc	5 725 50                        @ rt-thread/components/drivers/spi/sfud/src/sfud.c:725:50
	str	r2, [sp, #4]                    @ 4-byte Spill
	adds	r2, #1
	.loc	5 725 13                        @ rt-thread/components/drivers/spi/sfud/src/sfud.c:725:13
	bl	make_adress_byte_array
	ldr	r2, [sp, #4]                    @ 4-byte Reload
	.loc	5 726 24 is_stmt 1              @ rt-thread/components/drivers/spi/sfud/src/sfud.c:726:24
	ldr	r0, [sp, #40]
	.loc	5 726 31 is_stmt 0              @ rt-thread/components/drivers/spi/sfud/src/sfud.c:726:31
	ldrb.w	r0, [r0, #53]
	.loc	5 726 24                        @ rt-thread/components/drivers/spi/sfud/src/sfud.c:726:24
	lsls	r1, r0, #31
	movs	r0, #4
	cmp	r1, #0
	it	ne
	movne	r0, #5
	.loc	5 726 22                        @ rt-thread/components/drivers/spi/sfud/src/sfud.c:726:22
	strb.w	r0, [sp, #11]
	.loc	5 727 35 is_stmt 1              @ rt-thread/components/drivers/spi/sfud/src/sfud.c:727:35
	ldr	r0, [sp, #28]
	.loc	5 727 34 is_stmt 0              @ rt-thread/components/drivers/spi/sfud/src/sfud.c:727:34
	ldrb	r0, [r0]
	.loc	5 727 22                        @ rt-thread/components/drivers/spi/sfud/src/sfud.c:727:22
	ldrb.w	r1, [sp, #11]
	.loc	5 727 32                        @ rt-thread/components/drivers/spi/sfud/src/sfud.c:727:32
	strb	r0, [r2, r1]
	.loc	5 728 40 is_stmt 1              @ rt-thread/components/drivers/spi/sfud/src/sfud.c:728:40
	ldr	r0, [sp, #28]
	.loc	5 728 38 is_stmt 0              @ rt-thread/components/drivers/spi/sfud/src/sfud.c:728:38
	ldrb	r0, [r0, #1]
	.loc	5 728 22                        @ rt-thread/components/drivers/spi/sfud/src/sfud.c:728:22
	ldrb.w	r1, [sp, #11]
	.loc	5 728 31                        @ rt-thread/components/drivers/spi/sfud/src/sfud.c:728:31
	add	r1, r2
	.loc	5 728 36                        @ rt-thread/components/drivers/spi/sfud/src/sfud.c:728:36
	strb	r0, [r1, #1]
	movs	r0, #0
	.loc	5 729 25 is_stmt 1              @ rt-thread/components/drivers/spi/sfud/src/sfud.c:729:25
	strb.w	r0, [sp, #10]
	.loc	5 730 9                         @ rt-thread/components/drivers/spi/sfud/src/sfud.c:730:9
	b	.LBB15_17
.Ltmp344:
.LBB15_16:                              @   in Loop: Header=BB15_13 Depth=1
	.loc	5 0 9 is_stmt 0                 @ rt-thread/components/drivers/spi/sfud/src/sfud.c:0:9
	movs	r0, #1
.Ltmp345:
	.loc	5 731 22 is_stmt 1              @ rt-thread/components/drivers/spi/sfud/src/sfud.c:731:22
	strb.w	r0, [sp, #11]
	.loc	5 732 28                        @ rt-thread/components/drivers/spi/sfud/src/sfud.c:732:28
	ldr	r0, [sp, #28]
	.loc	5 732 27 is_stmt 0              @ rt-thread/components/drivers/spi/sfud/src/sfud.c:732:27
	ldrb	r0, [r0]
	.loc	5 732 25                        @ rt-thread/components/drivers/spi/sfud/src/sfud.c:732:25
	strb.w	r0, [sp, #13]
	.loc	5 733 29 is_stmt 1              @ rt-thread/components/drivers/spi/sfud/src/sfud.c:733:29
	ldr	r0, [sp, #28]
	.loc	5 733 27 is_stmt 0              @ rt-thread/components/drivers/spi/sfud/src/sfud.c:733:27
	ldrb	r0, [r0, #1]
	.loc	5 733 25                        @ rt-thread/components/drivers/spi/sfud/src/sfud.c:733:25
	strb.w	r0, [sp, #14]
	b	.LBB15_17
.Ltmp346:
.LBB15_17:                              @   in Loop: Header=BB15_13 Depth=1
	.loc	5 736 18 is_stmt 1              @ rt-thread/components/drivers/spi/sfud/src/sfud.c:736:18
	ldr	r0, [sp, #20]
	.loc	5 736 23 is_stmt 0              @ rt-thread/components/drivers/spi/sfud/src/sfud.c:736:23
	ldr.w	r12, [r0, #4]
	.loc	5 736 41                        @ rt-thread/components/drivers/spi/sfud/src/sfud.c:736:41
	ldrb.w	r1, [sp, #11]
	.loc	5 736 50                        @ rt-thread/components/drivers/spi/sfud/src/sfud.c:736:50
	adds	r2, r1, #2
	.loc	5 736 18                        @ rt-thread/components/drivers/spi/sfud/src/sfud.c:736:18
	mov	r1, sp
	movs	r3, #0
	str	r3, [r1]
	add	r1, sp, #12
	blx	r12
	.loc	5 736 16                        @ rt-thread/components/drivers/spi/sfud/src/sfud.c:736:16
	strb.w	r0, [sp, #27]
.Ltmp347:
	.loc	5 737 13 is_stmt 1              @ rt-thread/components/drivers/spi/sfud/src/sfud.c:737:13
	ldrb.w	r0, [sp, #27]
.Ltmp348:
	.loc	5 737 13 is_stmt 0              @ rt-thread/components/drivers/spi/sfud/src/sfud.c:737:13
	cbz	r0, .LBB15_21
	b	.LBB15_18
.LBB15_18:
.Ltmp349:
	.loc	5 738 13 is_stmt 1              @ rt-thread/components/drivers/spi/sfud/src/sfud.c:738:13
	b	.LBB15_19
.LBB15_19:
.Ltmp350:
	.loc	5 738 13 is_stmt 0              @ rt-thread/components/drivers/spi/sfud/src/sfud.c:738:13
	movw	r0, :lower16:.L.str
	movt	r0, :upper16:.L.str
	bl	rt_kprintf
	movw	r0, :lower16:.L.str.52
	movt	r0, :upper16:.L.str.52
	bl	rt_kprintf
	movw	r0, :lower16:.L.str.2
	movt	r0, :upper16:.L.str.2
	bl	rt_kprintf
	b	.LBB15_20
.Ltmp351:
.LBB15_20:
	.loc	5 739 13 is_stmt 1              @ rt-thread/components/drivers/spi/sfud/src/sfud.c:739:13
	b	.LBB15_28
.Ltmp352:
.LBB15_21:                              @   in Loop: Header=BB15_13 Depth=1
	.loc	5 742 28                        @ rt-thread/components/drivers/spi/sfud/src/sfud.c:742:28
	ldr	r0, [sp, #40]
	.loc	5 742 18 is_stmt 0              @ rt-thread/components/drivers/spi/sfud/src/sfud.c:742:18
	bl	wait_busy
	.loc	5 742 16                        @ rt-thread/components/drivers/spi/sfud/src/sfud.c:742:16
	strb.w	r0, [sp, #27]
.Ltmp353:
	.loc	5 743 13 is_stmt 1              @ rt-thread/components/drivers/spi/sfud/src/sfud.c:743:13
	ldrb.w	r0, [sp, #27]
.Ltmp354:
	.loc	5 743 13 is_stmt 0              @ rt-thread/components/drivers/spi/sfud/src/sfud.c:743:13
	cbz	r0, .LBB15_23
	b	.LBB15_22
.LBB15_22:
.Ltmp355:
	.loc	5 744 13 is_stmt 1              @ rt-thread/components/drivers/spi/sfud/src/sfud.c:744:13
	b	.LBB15_28
.Ltmp356:
.LBB15_23:                              @   in Loop: Header=BB15_13 Depth=1
	.loc	5 747 14                        @ rt-thread/components/drivers/spi/sfud/src/sfud.c:747:14
	ldr	r0, [sp, #32]
	subs	r0, #2
	str	r0, [sp, #32]
	.loc	5 748 14                        @ rt-thread/components/drivers/spi/sfud/src/sfud.c:748:14
	ldr	r0, [sp, #36]
	adds	r0, #2
	str	r0, [sp, #36]
	.loc	5 749 14                        @ rt-thread/components/drivers/spi/sfud/src/sfud.c:749:14
	ldr	r0, [sp, #28]
	adds	r0, #2
	str	r0, [sp, #28]
.Ltmp357:
	.loc	5 723 5                         @ rt-thread/components/drivers/spi/sfud/src/sfud.c:723:5
	b	.LBB15_13
.LBB15_24:
	.loc	5 752 32                        @ rt-thread/components/drivers/spi/sfud/src/sfud.c:752:32
	ldr	r0, [sp, #40]
	movs	r1, #0
	.loc	5 752 14 is_stmt 0              @ rt-thread/components/drivers/spi/sfud/src/sfud.c:752:14
	bl	set_write_enabled
	.loc	5 752 12                        @ rt-thread/components/drivers/spi/sfud/src/sfud.c:752:12
	strb.w	r0, [sp, #27]
.Ltmp358:
	.loc	5 754 9 is_stmt 1               @ rt-thread/components/drivers/spi/sfud/src/sfud.c:754:9
	ldrb.w	r0, [sp, #27]
	.loc	5 754 32 is_stmt 0              @ rt-thread/components/drivers/spi/sfud/src/sfud.c:754:32
	cbnz	r0, .LBB15_27
	b	.LBB15_25
.LBB15_25:
	.loc	5 754 35                        @ rt-thread/components/drivers/spi/sfud/src/sfud.c:754:35
	ldr	r0, [sp, #32]
.Ltmp359:
	.loc	5 754 9                         @ rt-thread/components/drivers/spi/sfud/src/sfud.c:754:9
	cmp	r0, #1
	bne	.LBB15_27
	b	.LBB15_26
.LBB15_26:
.Ltmp360:
	.loc	5 755 42 is_stmt 1              @ rt-thread/components/drivers/spi/sfud/src/sfud.c:755:42
	ldr	r0, [sp, #40]
	.loc	5 755 49 is_stmt 0              @ rt-thread/components/drivers/spi/sfud/src/sfud.c:755:49
	ldr	r1, [sp, #36]
	.loc	5 755 61                        @ rt-thread/components/drivers/spi/sfud/src/sfud.c:755:61
	ldr	r2, [sp, #28]
	.loc	5 755 18                        @ rt-thread/components/drivers/spi/sfud/src/sfud.c:755:18
	mov	r3, sp
	str	r2, [r3]
	movs	r3, #1
	mov	r2, r3
	bl	page256_or_1_byte_write
	.loc	5 755 16                        @ rt-thread/components/drivers/spi/sfud/src/sfud.c:755:16
	strb.w	r0, [sp, #27]
	.loc	5 756 5 is_stmt 1               @ rt-thread/components/drivers/spi/sfud/src/sfud.c:756:5
	b	.LBB15_27
.Ltmp361:
.LBB15_27:
	.loc	5 754 43                        @ rt-thread/components/drivers/spi/sfud/src/sfud.c:754:43
	b	.LBB15_28
.Ltmp362:
.LBB15_28:
	@DEBUG_LABEL: aai_write:__exit
	.loc	5 759 9                         @ rt-thread/components/drivers/spi/sfud/src/sfud.c:759:9
	ldrb.w	r0, [sp, #27]
.Ltmp363:
	.loc	5 759 9 is_stmt 0               @ rt-thread/components/drivers/spi/sfud/src/sfud.c:759:9
	cbz	r0, .LBB15_30
	b	.LBB15_29
.LBB15_29:
.Ltmp364:
	.loc	5 760 27 is_stmt 1              @ rt-thread/components/drivers/spi/sfud/src/sfud.c:760:27
	ldr	r0, [sp, #40]
	movs	r1, #0
	.loc	5 760 9 is_stmt 0               @ rt-thread/components/drivers/spi/sfud/src/sfud.c:760:9
	bl	set_write_enabled
	.loc	5 761 5 is_stmt 1               @ rt-thread/components/drivers/spi/sfud/src/sfud.c:761:5
	b	.LBB15_30
.Ltmp365:
.LBB15_30:
	.loc	5 763 9                         @ rt-thread/components/drivers/spi/sfud/src/sfud.c:763:9
	ldr	r0, [sp, #20]
	.loc	5 763 14 is_stmt 0              @ rt-thread/components/drivers/spi/sfud/src/sfud.c:763:14
	ldr	r0, [r0, #12]
.Ltmp366:
	.loc	5 763 9                         @ rt-thread/components/drivers/spi/sfud/src/sfud.c:763:9
	cbz	r0, .LBB15_32
	b	.LBB15_31
.LBB15_31:
.Ltmp367:
	.loc	5 764 9 is_stmt 1               @ rt-thread/components/drivers/spi/sfud/src/sfud.c:764:9
	ldr	r0, [sp, #20]
	.loc	5 764 14 is_stmt 0              @ rt-thread/components/drivers/spi/sfud/src/sfud.c:764:14
	ldr	r1, [r0, #12]
	.loc	5 764 9                         @ rt-thread/components/drivers/spi/sfud/src/sfud.c:764:9
	blx	r1
	.loc	5 765 5 is_stmt 1               @ rt-thread/components/drivers/spi/sfud/src/sfud.c:765:5
	b	.LBB15_32
.Ltmp368:
.LBB15_32:
	.loc	5 767 12                        @ rt-thread/components/drivers/spi/sfud/src/sfud.c:767:12
	ldrb.w	r0, [sp, #27]
	.loc	5 767 5 is_stmt 0               @ rt-thread/components/drivers/spi/sfud/src/sfud.c:767:5
	strb.w	r0, [sp, #47]
	b	.LBB15_33
.LBB15_33:
	.loc	5 768 1 is_stmt 1               @ rt-thread/components/drivers/spi/sfud/src/sfud.c:768:1
	ldrb.w	r0, [sp, #47]
	add	sp, #48
	pop	{r7, pc}
.Ltmp369:
.Lfunc_end15:
	.size	aai_write, .Lfunc_end15-aai_write
	.cfi_endproc
	.cantunwind
	.fnend
                                        @ -- End function
	.section	.text.sfud_erase_write,"ax",%progbits
	.hidden	sfud_erase_write                @ -- Begin function sfud_erase_write
	.globl	sfud_erase_write
	.p2align	3
	.type	sfud_erase_write,%function
	.code	16                              @ @sfud_erase_write
	.thumb_func
sfud_erase_write:
.Lfunc_begin16:
	.loc	5 804 0                         @ rt-thread/components/drivers/spi/sfud/src/sfud.c:804:0
	.fnstart
	.cfi_startproc
@ %bb.0:
	.save	{r7, lr}
	push	{r7, lr}
	.cfi_def_cfa_offset 8
	.cfi_offset lr, -4
	.cfi_offset r7, -8
	.pad	#24
	sub	sp, #24
	.cfi_def_cfa_offset 32
	str	r0, [sp, #20]
	str	r1, [sp, #16]
	str	r2, [sp, #12]
	str	r3, [sp, #8]
	movs	r0, #0
.Ltmp370:
	.loc	5 805 14 prologue_end           @ rt-thread/components/drivers/spi/sfud/src/sfud.c:805:14
	strb.w	r0, [sp, #7]
	.loc	5 807 25                        @ rt-thread/components/drivers/spi/sfud/src/sfud.c:807:25
	ldr	r0, [sp, #20]
	.loc	5 807 32 is_stmt 0              @ rt-thread/components/drivers/spi/sfud/src/sfud.c:807:32
	ldr	r1, [sp, #16]
	.loc	5 807 38                        @ rt-thread/components/drivers/spi/sfud/src/sfud.c:807:38
	ldr	r2, [sp, #12]
	.loc	5 807 14                        @ rt-thread/components/drivers/spi/sfud/src/sfud.c:807:14
	bl	sfud_erase
	.loc	5 807 12                        @ rt-thread/components/drivers/spi/sfud/src/sfud.c:807:12
	strb.w	r0, [sp, #7]
.Ltmp371:
	.loc	5 809 9 is_stmt 1               @ rt-thread/components/drivers/spi/sfud/src/sfud.c:809:9
	ldrb.w	r0, [sp, #7]
.Ltmp372:
	.loc	5 809 9 is_stmt 0               @ rt-thread/components/drivers/spi/sfud/src/sfud.c:809:9
	cbnz	r0, .LBB16_2
	b	.LBB16_1
.LBB16_1:
.Ltmp373:
	.loc	5 810 29 is_stmt 1              @ rt-thread/components/drivers/spi/sfud/src/sfud.c:810:29
	ldr	r0, [sp, #20]
	.loc	5 810 36 is_stmt 0              @ rt-thread/components/drivers/spi/sfud/src/sfud.c:810:36
	ldr	r1, [sp, #16]
	.loc	5 810 42                        @ rt-thread/components/drivers/spi/sfud/src/sfud.c:810:42
	ldr	r2, [sp, #12]
	.loc	5 810 48                        @ rt-thread/components/drivers/spi/sfud/src/sfud.c:810:48
	ldr	r3, [sp, #8]
	.loc	5 810 18                        @ rt-thread/components/drivers/spi/sfud/src/sfud.c:810:18
	bl	sfud_write
	.loc	5 810 16                        @ rt-thread/components/drivers/spi/sfud/src/sfud.c:810:16
	strb.w	r0, [sp, #7]
	.loc	5 811 5 is_stmt 1               @ rt-thread/components/drivers/spi/sfud/src/sfud.c:811:5
	b	.LBB16_2
.Ltmp374:
.LBB16_2:
	.loc	5 813 12                        @ rt-thread/components/drivers/spi/sfud/src/sfud.c:813:12
	ldrb.w	r0, [sp, #7]
	.loc	5 813 5 is_stmt 0               @ rt-thread/components/drivers/spi/sfud/src/sfud.c:813:5
	add	sp, #24
	pop	{r7, pc}
.Ltmp375:
.Lfunc_end16:
	.size	sfud_erase_write, .Lfunc_end16-sfud_erase_write
	.cfi_endproc
	.cantunwind
	.fnend
                                        @ -- End function
	.section	.text.sfud_read_status,"ax",%progbits
	.hidden	sfud_read_status                @ -- Begin function sfud_read_status
	.globl	sfud_read_status
	.p2align	3
	.type	sfud_read_status,%function
	.code	16                              @ @sfud_read_status
	.thumb_func
sfud_read_status:
.Lfunc_begin17:
	.loc	5 957 0 is_stmt 1               @ rt-thread/components/drivers/spi/sfud/src/sfud.c:957:0
	.fnstart
	.cfi_startproc
@ %bb.0:
	.save	{r7, lr}
	push	{r7, lr}
	.cfi_def_cfa_offset 8
	.cfi_offset lr, -4
	.cfi_offset r7, -8
	.pad	#16
	sub	sp, #16
	.cfi_def_cfa_offset 24
	str	r0, [sp, #12]
	str	r1, [sp, #8]
	movs	r0, #5
.Ltmp376:
	.loc	5 958 13 prologue_end           @ rt-thread/components/drivers/spi/sfud/src/sfud.c:958:13
	strb.w	r0, [sp, #7]
	.loc	5 963 12                        @ rt-thread/components/drivers/spi/sfud/src/sfud.c:963:12
	ldr	r1, [sp, #12]
	.loc	5 963 19 is_stmt 0              @ rt-thread/components/drivers/spi/sfud/src/sfud.c:963:19
	add.w	r0, r1, #32
	.loc	5 963 23                        @ rt-thread/components/drivers/spi/sfud/src/sfud.c:963:23
	ldr.w	r12, [r1, #36]
	.loc	5 963 48                        @ rt-thread/components/drivers/spi/sfud/src/sfud.c:963:48
	ldr	r3, [sp, #8]
	.loc	5 963 12                        @ rt-thread/components/drivers/spi/sfud/src/sfud.c:963:12
	mov	r1, sp
	movs	r2, #1
	str	r2, [r1]
	add.w	r1, sp, #7
	blx	r12
	.loc	5 963 5                         @ rt-thread/components/drivers/spi/sfud/src/sfud.c:963:5
	add	sp, #16
	pop	{r7, pc}
.Ltmp377:
.Lfunc_end17:
	.size	sfud_read_status, .Lfunc_end17-sfud_read_status
	.cfi_endproc
	.cantunwind
	.fnend
                                        @ -- End function
	.section	.text.sfud_write_status,"ax",%progbits
	.hidden	sfud_write_status               @ -- Begin function sfud_write_status
	.globl	sfud_write_status
	.p2align	3
	.type	sfud_write_status,%function
	.code	16                              @ @sfud_write_status
	.thumb_func
sfud_write_status:
.Lfunc_begin18:
	.loc	5 1011 0 is_stmt 1              @ rt-thread/components/drivers/spi/sfud/src/sfud.c:1011:0
	.fnstart
	.cfi_startproc
@ %bb.0:
	.save	{r7, lr}
	push	{r7, lr}
	.cfi_def_cfa_offset 8
	.cfi_offset lr, -4
	.cfi_offset r7, -8
	.pad	#24
	sub	sp, #24
	.cfi_def_cfa_offset 32
                                        @ kill: def $r3 killed $r2
                                        @ kill: def $r3 killed $r1
	str	r0, [sp, #20]
	strb.w	r1, [sp, #19]
	strb.w	r2, [sp, #18]
	movs	r0, #0
.Ltmp378:
	.loc	5 1012 14 prologue_end          @ rt-thread/components/drivers/spi/sfud/src/sfud.c:1012:14
	strb.w	r0, [sp, #17]
	.loc	5 1013 28                       @ rt-thread/components/drivers/spi/sfud/src/sfud.c:1013:28
	ldr	r0, [sp, #20]
	.loc	5 1013 35 is_stmt 0             @ rt-thread/components/drivers/spi/sfud/src/sfud.c:1013:35
	adds	r0, #32
	.loc	5 1013 21                       @ rt-thread/components/drivers/spi/sfud/src/sfud.c:1013:21
	str	r0, [sp, #12]
.Ltmp379:
	.loc	5 1018 9 is_stmt 1              @ rt-thread/components/drivers/spi/sfud/src/sfud.c:1018:9
	ldrb.w	r0, [sp, #19]
.Ltmp380:
	.loc	5 1018 9 is_stmt 0              @ rt-thread/components/drivers/spi/sfud/src/sfud.c:1018:9
	lsls	r0, r0, #31
	cbz	r0, .LBB18_2
	b	.LBB18_1
.LBB18_1:
	.loc	5 0 9                           @ rt-thread/components/drivers/spi/sfud/src/sfud.c:0:9
	movs	r0, #80
.Ltmp381:
	.loc	5 1019 21 is_stmt 1             @ rt-thread/components/drivers/spi/sfud/src/sfud.c:1019:21
	strb.w	r0, [sp, #10]
	.loc	5 1020 18                       @ rt-thread/components/drivers/spi/sfud/src/sfud.c:1020:18
	ldr	r0, [sp, #12]
	.loc	5 1020 23 is_stmt 0             @ rt-thread/components/drivers/spi/sfud/src/sfud.c:1020:23
	ldr.w	r12, [r0, #4]
	.loc	5 1020 18                       @ rt-thread/components/drivers/spi/sfud/src/sfud.c:1020:18
	mov	r1, sp
	movs	r3, #0
	str	r3, [r1]
	add.w	r1, sp, #10
	movs	r2, #1
	blx	r12
	.loc	5 1020 16                       @ rt-thread/components/drivers/spi/sfud/src/sfud.c:1020:16
	strb.w	r0, [sp, #17]
	.loc	5 1021 5 is_stmt 1              @ rt-thread/components/drivers/spi/sfud/src/sfud.c:1021:5
	b	.LBB18_3
.Ltmp382:
.LBB18_2:
	.loc	5 1022 36                       @ rt-thread/components/drivers/spi/sfud/src/sfud.c:1022:36
	ldr	r0, [sp, #20]
	movs	r1, #1
	.loc	5 1022 18 is_stmt 0             @ rt-thread/components/drivers/spi/sfud/src/sfud.c:1022:18
	bl	set_write_enabled
	.loc	5 1022 16                       @ rt-thread/components/drivers/spi/sfud/src/sfud.c:1022:16
	strb.w	r0, [sp, #17]
	b	.LBB18_3
.Ltmp383:
.LBB18_3:
	.loc	5 1025 9 is_stmt 1              @ rt-thread/components/drivers/spi/sfud/src/sfud.c:1025:9
	ldrb.w	r0, [sp, #17]
.Ltmp384:
	.loc	5 1025 9 is_stmt 0              @ rt-thread/components/drivers/spi/sfud/src/sfud.c:1025:9
	cbnz	r0, .LBB18_5
	b	.LBB18_4
.LBB18_4:
	.loc	5 0 9                           @ rt-thread/components/drivers/spi/sfud/src/sfud.c:0:9
	movs	r0, #1
.Ltmp385:
	.loc	5 1026 21 is_stmt 1             @ rt-thread/components/drivers/spi/sfud/src/sfud.c:1026:21
	strb.w	r0, [sp, #10]
	.loc	5 1027 23                       @ rt-thread/components/drivers/spi/sfud/src/sfud.c:1027:23
	ldrb.w	r0, [sp, #18]
	.loc	5 1027 21 is_stmt 0             @ rt-thread/components/drivers/spi/sfud/src/sfud.c:1027:21
	strb.w	r0, [sp, #11]
	.loc	5 1028 18 is_stmt 1             @ rt-thread/components/drivers/spi/sfud/src/sfud.c:1028:18
	ldr	r0, [sp, #12]
	.loc	5 1028 23 is_stmt 0             @ rt-thread/components/drivers/spi/sfud/src/sfud.c:1028:23
	ldr.w	r12, [r0, #4]
	.loc	5 1028 18                       @ rt-thread/components/drivers/spi/sfud/src/sfud.c:1028:18
	mov	r1, sp
	movs	r3, #0
	str	r3, [r1]
	add.w	r1, sp, #10
	movs	r2, #2
	blx	r12
	.loc	5 1028 16                       @ rt-thread/components/drivers/spi/sfud/src/sfud.c:1028:16
	strb.w	r0, [sp, #17]
	.loc	5 1029 5 is_stmt 1              @ rt-thread/components/drivers/spi/sfud/src/sfud.c:1029:5
	b	.LBB18_5
.Ltmp386:
.LBB18_5:
	.loc	5 1031 9                        @ rt-thread/components/drivers/spi/sfud/src/sfud.c:1031:9
	ldrb.w	r0, [sp, #17]
.Ltmp387:
	.loc	5 1031 9 is_stmt 0              @ rt-thread/components/drivers/spi/sfud/src/sfud.c:1031:9
	cbz	r0, .LBB18_9
	b	.LBB18_6
.LBB18_6:
.Ltmp388:
	.loc	5 1032 9 is_stmt 1              @ rt-thread/components/drivers/spi/sfud/src/sfud.c:1032:9
	b	.LBB18_7
.LBB18_7:
.Ltmp389:
	.loc	5 1032 9 is_stmt 0              @ rt-thread/components/drivers/spi/sfud/src/sfud.c:1032:9
	movw	r0, :lower16:.L.str
	movt	r0, :upper16:.L.str
	bl	rt_kprintf
	movw	r0, :lower16:.L.str.7
	movt	r0, :upper16:.L.str.7
	bl	rt_kprintf
	movw	r0, :lower16:.L.str.2
	movt	r0, :upper16:.L.str.2
	bl	rt_kprintf
	b	.LBB18_8
.Ltmp390:
.LBB18_8:
	.loc	5 1033 5 is_stmt 1              @ rt-thread/components/drivers/spi/sfud/src/sfud.c:1033:5
	b	.LBB18_9
.Ltmp391:
.LBB18_9:
	.loc	5 1035 12                       @ rt-thread/components/drivers/spi/sfud/src/sfud.c:1035:12
	ldrb.w	r0, [sp, #17]
	.loc	5 1035 5 is_stmt 0              @ rt-thread/components/drivers/spi/sfud/src/sfud.c:1035:5
	add	sp, #24
	pop	{r7, pc}
.Ltmp392:
.Lfunc_end18:
	.size	sfud_write_status, .Lfunc_end18-sfud_write_status
	.cfi_endproc
	.cantunwind
	.fnend
                                        @ -- End function
	.section	.text.read_jedec_id,"ax",%progbits
	.p2align	3                               @ -- Begin function read_jedec_id
	.type	read_jedec_id,%function
	.code	16                              @ @read_jedec_id
	.thumb_func
read_jedec_id:
.Lfunc_begin19:
	.loc	5 848 0 is_stmt 1               @ rt-thread/components/drivers/spi/sfud/src/sfud.c:848:0
	.fnstart
	.cfi_startproc
@ %bb.0:
	.save	{r7, lr}
	push	{r7, lr}
	.cfi_def_cfa_offset 8
	.cfi_offset lr, -4
	.cfi_offset r7, -8
	.pad	#24
	sub	sp, #24
	.cfi_def_cfa_offset 32
	str	r0, [sp, #20]
	movs	r0, #0
.Ltmp393:
	.loc	5 849 14 prologue_end           @ rt-thread/components/drivers/spi/sfud/src/sfud.c:849:14
	strb.w	r0, [sp, #19]
	.loc	5 850 28                        @ rt-thread/components/drivers/spi/sfud/src/sfud.c:850:28
	ldr	r0, [sp, #20]
	.loc	5 850 35 is_stmt 0              @ rt-thread/components/drivers/spi/sfud/src/sfud.c:850:35
	adds	r0, #32
	.loc	5 850 21                        @ rt-thread/components/drivers/spi/sfud/src/sfud.c:850:21
	str	r0, [sp, #12]
	movs	r0, #159
	.loc	5 855 17 is_stmt 1              @ rt-thread/components/drivers/spi/sfud/src/sfud.c:855:17
	strb.w	r0, [sp, #11]
	.loc	5 856 14                        @ rt-thread/components/drivers/spi/sfud/src/sfud.c:856:14
	ldr	r0, [sp, #12]
	.loc	5 856 19 is_stmt 0              @ rt-thread/components/drivers/spi/sfud/src/sfud.c:856:19
	ldr.w	r12, [r0, #4]
	.loc	5 856 14                        @ rt-thread/components/drivers/spi/sfud/src/sfud.c:856:14
	mov	r2, sp
	movs	r1, #3
	str	r1, [r2]
	add.w	r1, sp, #11
	movs	r2, #1
	add	r3, sp, #8
	blx	r12
	.loc	5 856 12                        @ rt-thread/components/drivers/spi/sfud/src/sfud.c:856:12
	strb.w	r0, [sp, #19]
.Ltmp394:
	.loc	5 857 9 is_stmt 1               @ rt-thread/components/drivers/spi/sfud/src/sfud.c:857:9
	ldrb.w	r0, [sp, #19]
.Ltmp395:
	.loc	5 857 9 is_stmt 0               @ rt-thread/components/drivers/spi/sfud/src/sfud.c:857:9
	cbnz	r0, .LBB19_2
	b	.LBB19_1
.LBB19_1:
.Ltmp396:
	.loc	5 858 29 is_stmt 1              @ rt-thread/components/drivers/spi/sfud/src/sfud.c:858:29
	ldrb.w	r0, [sp, #8]
	.loc	5 858 9 is_stmt 0               @ rt-thread/components/drivers/spi/sfud/src/sfud.c:858:9
	ldr	r1, [sp, #20]
	.loc	5 858 27                        @ rt-thread/components/drivers/spi/sfud/src/sfud.c:858:27
	strb	r0, [r1, #12]
	.loc	5 859 31 is_stmt 1              @ rt-thread/components/drivers/spi/sfud/src/sfud.c:859:31
	ldrb.w	r0, [sp, #9]
	.loc	5 859 9 is_stmt 0               @ rt-thread/components/drivers/spi/sfud/src/sfud.c:859:9
	ldr	r1, [sp, #20]
	.loc	5 859 29                        @ rt-thread/components/drivers/spi/sfud/src/sfud.c:859:29
	strb	r0, [r1, #13]
	.loc	5 860 35 is_stmt 1              @ rt-thread/components/drivers/spi/sfud/src/sfud.c:860:35
	ldrb.w	r0, [sp, #10]
	.loc	5 860 9 is_stmt 0               @ rt-thread/components/drivers/spi/sfud/src/sfud.c:860:9
	ldr	r1, [sp, #20]
	.loc	5 860 33                        @ rt-thread/components/drivers/spi/sfud/src/sfud.c:860:33
	strb	r0, [r1, #14]
	.loc	5 863 5 is_stmt 1               @ rt-thread/components/drivers/spi/sfud/src/sfud.c:863:5
	b	.LBB19_5
.Ltmp397:
.LBB19_2:
	.loc	5 864 9                         @ rt-thread/components/drivers/spi/sfud/src/sfud.c:864:9
	b	.LBB19_3
.LBB19_3:
.Ltmp398:
	.loc	5 864 9 is_stmt 0               @ rt-thread/components/drivers/spi/sfud/src/sfud.c:864:9
	movw	r0, :lower16:.L.str
	movt	r0, :upper16:.L.str
	bl	rt_kprintf
	movw	r0, :lower16:.L.str.12
	movt	r0, :upper16:.L.str.12
	bl	rt_kprintf
	movw	r0, :lower16:.L.str.2
	movt	r0, :upper16:.L.str.2
	bl	rt_kprintf
	b	.LBB19_4
.Ltmp399:
.LBB19_4:
	.loc	5 0 9                           @ rt-thread/components/drivers/spi/sfud/src/sfud.c:0:9
	b	.LBB19_5
.LBB19_5:
	.loc	5 867 12 is_stmt 1              @ rt-thread/components/drivers/spi/sfud/src/sfud.c:867:12
	ldrb.w	r0, [sp, #19]
	.loc	5 867 5 is_stmt 0               @ rt-thread/components/drivers/spi/sfud/src/sfud.c:867:5
	add	sp, #24
	pop	{r7, pc}
.Ltmp400:
.Lfunc_end19:
	.size	read_jedec_id, .Lfunc_end19-read_jedec_id
	.cfi_endproc
	.cantunwind
	.fnend
                                        @ -- End function
	.section	.text.reset,"ax",%progbits
	.p2align	3                               @ -- Begin function reset
	.type	reset,%function
	.code	16                              @ @reset
	.thumb_func
reset:
.Lfunc_begin20:
	.loc	5 816 0 is_stmt 1               @ rt-thread/components/drivers/spi/sfud/src/sfud.c:816:0
	.fnstart
	.cfi_startproc
@ %bb.0:
	.save	{r7, lr}
	push	{r7, lr}
	.cfi_def_cfa_offset 8
	.cfi_offset lr, -4
	.cfi_offset r7, -8
	.pad	#24
	sub	sp, #24
	.cfi_def_cfa_offset 32
	str	r0, [sp, #16]
	movs	r3, #0
.Ltmp401:
	.loc	5 817 14 prologue_end           @ rt-thread/components/drivers/spi/sfud/src/sfud.c:817:14
	strb.w	r3, [sp, #15]
	.loc	5 818 28                        @ rt-thread/components/drivers/spi/sfud/src/sfud.c:818:28
	ldr	r0, [sp, #16]
	.loc	5 818 35 is_stmt 0              @ rt-thread/components/drivers/spi/sfud/src/sfud.c:818:35
	adds	r0, #32
	.loc	5 818 21                        @ rt-thread/components/drivers/spi/sfud/src/sfud.c:818:21
	str	r0, [sp, #8]
	movs	r0, #102
	.loc	5 823 17 is_stmt 1              @ rt-thread/components/drivers/spi/sfud/src/sfud.c:823:17
	strb.w	r0, [sp, #6]
	.loc	5 824 14                        @ rt-thread/components/drivers/spi/sfud/src/sfud.c:824:14
	ldr	r0, [sp, #8]
	.loc	5 824 19 is_stmt 0              @ rt-thread/components/drivers/spi/sfud/src/sfud.c:824:19
	ldr.w	r12, [r0, #4]
	.loc	5 824 14                        @ rt-thread/components/drivers/spi/sfud/src/sfud.c:824:14
	mov	r1, sp
	str	r3, [r1]
	add.w	r1, sp, #6
	movs	r2, #1
	blx	r12
	.loc	5 824 12                        @ rt-thread/components/drivers/spi/sfud/src/sfud.c:824:12
	strb.w	r0, [sp, #15]
.Ltmp402:
	.loc	5 825 9 is_stmt 1               @ rt-thread/components/drivers/spi/sfud/src/sfud.c:825:9
	ldrb.w	r0, [sp, #15]
.Ltmp403:
	.loc	5 825 9 is_stmt 0               @ rt-thread/components/drivers/spi/sfud/src/sfud.c:825:9
	cbnz	r0, .LBB20_2
	b	.LBB20_1
.LBB20_1:
.Ltmp404:
	.loc	5 826 28 is_stmt 1              @ rt-thread/components/drivers/spi/sfud/src/sfud.c:826:28
	ldr	r0, [sp, #16]
	.loc	5 826 18 is_stmt 0              @ rt-thread/components/drivers/spi/sfud/src/sfud.c:826:18
	bl	wait_busy
	.loc	5 826 16                        @ rt-thread/components/drivers/spi/sfud/src/sfud.c:826:16
	strb.w	r0, [sp, #15]
	.loc	5 827 5 is_stmt 1               @ rt-thread/components/drivers/spi/sfud/src/sfud.c:827:5
	b	.LBB20_5
.Ltmp405:
.LBB20_2:
	.loc	5 828 9                         @ rt-thread/components/drivers/spi/sfud/src/sfud.c:828:9
	b	.LBB20_3
.LBB20_3:
.Ltmp406:
	.loc	5 828 9 is_stmt 0               @ rt-thread/components/drivers/spi/sfud/src/sfud.c:828:9
	movw	r0, :lower16:.L.str
	movt	r0, :upper16:.L.str
	bl	rt_kprintf
	movw	r0, :lower16:.L.str.48
	movt	r0, :upper16:.L.str.48
	bl	rt_kprintf
	movw	r0, :lower16:.L.str.2
	movt	r0, :upper16:.L.str.2
	bl	rt_kprintf
	b	.LBB20_4
.Ltmp407:
.LBB20_4:
	.loc	5 829 16 is_stmt 1              @ rt-thread/components/drivers/spi/sfud/src/sfud.c:829:16
	ldrb.w	r0, [sp, #15]
	.loc	5 829 9 is_stmt 0               @ rt-thread/components/drivers/spi/sfud/src/sfud.c:829:9
	strb.w	r0, [sp, #23]
	b	.LBB20_13
.Ltmp408:
.LBB20_5:
	.loc	5 0 9                           @ rt-thread/components/drivers/spi/sfud/src/sfud.c:0:9
	add.w	r0, sp, #6
	.loc	5 832 5 is_stmt 1               @ rt-thread/components/drivers/spi/sfud/src/sfud.c:832:5
	adds	r1, r0, #1
	movs	r0, #153
	.loc	5 832 17 is_stmt 0              @ rt-thread/components/drivers/spi/sfud/src/sfud.c:832:17
	strb.w	r0, [sp, #7]
	.loc	5 833 14 is_stmt 1              @ rt-thread/components/drivers/spi/sfud/src/sfud.c:833:14
	ldr	r0, [sp, #8]
	.loc	5 833 19 is_stmt 0              @ rt-thread/components/drivers/spi/sfud/src/sfud.c:833:19
	ldr.w	r12, [r0, #4]
	.loc	5 833 14                        @ rt-thread/components/drivers/spi/sfud/src/sfud.c:833:14
	mov	r2, sp
	movs	r3, #0
	str	r3, [r2]
	movs	r2, #1
	blx	r12
	.loc	5 833 12                        @ rt-thread/components/drivers/spi/sfud/src/sfud.c:833:12
	strb.w	r0, [sp, #15]
.Ltmp409:
	.loc	5 835 9 is_stmt 1               @ rt-thread/components/drivers/spi/sfud/src/sfud.c:835:9
	ldrb.w	r0, [sp, #15]
.Ltmp410:
	.loc	5 835 9 is_stmt 0               @ rt-thread/components/drivers/spi/sfud/src/sfud.c:835:9
	cbnz	r0, .LBB20_7
	b	.LBB20_6
.LBB20_6:
.Ltmp411:
	.loc	5 836 28 is_stmt 1              @ rt-thread/components/drivers/spi/sfud/src/sfud.c:836:28
	ldr	r0, [sp, #16]
	.loc	5 836 18 is_stmt 0              @ rt-thread/components/drivers/spi/sfud/src/sfud.c:836:18
	bl	wait_busy
	.loc	5 836 16                        @ rt-thread/components/drivers/spi/sfud/src/sfud.c:836:16
	strb.w	r0, [sp, #15]
	.loc	5 837 5 is_stmt 1               @ rt-thread/components/drivers/spi/sfud/src/sfud.c:837:5
	b	.LBB20_7
.Ltmp412:
.LBB20_7:
	.loc	5 839 9                         @ rt-thread/components/drivers/spi/sfud/src/sfud.c:839:9
	ldrb.w	r0, [sp, #15]
.Ltmp413:
	.loc	5 839 9 is_stmt 0               @ rt-thread/components/drivers/spi/sfud/src/sfud.c:839:9
	cbnz	r0, .LBB20_9
	b	.LBB20_8
.LBB20_8:
.Ltmp414:
	.loc	5 841 5 is_stmt 1               @ rt-thread/components/drivers/spi/sfud/src/sfud.c:841:5
	b	.LBB20_12
.Ltmp415:
.LBB20_9:
	.loc	5 842 9                         @ rt-thread/components/drivers/spi/sfud/src/sfud.c:842:9
	b	.LBB20_10
.LBB20_10:
.Ltmp416:
	.loc	5 842 9 is_stmt 0               @ rt-thread/components/drivers/spi/sfud/src/sfud.c:842:9
	movw	r0, :lower16:.L.str
	movt	r0, :upper16:.L.str
	bl	rt_kprintf
	movw	r0, :lower16:.L.str.48
	movt	r0, :upper16:.L.str.48
	bl	rt_kprintf
	movw	r0, :lower16:.L.str.2
	movt	r0, :upper16:.L.str.2
	bl	rt_kprintf
	b	.LBB20_11
.Ltmp417:
.LBB20_11:
	.loc	5 0 9                           @ rt-thread/components/drivers/spi/sfud/src/sfud.c:0:9
	b	.LBB20_12
.LBB20_12:
	.loc	5 845 12 is_stmt 1              @ rt-thread/components/drivers/spi/sfud/src/sfud.c:845:12
	ldrb.w	r0, [sp, #15]
	.loc	5 845 5 is_stmt 0               @ rt-thread/components/drivers/spi/sfud/src/sfud.c:845:5
	strb.w	r0, [sp, #23]
	b	.LBB20_13
.LBB20_13:
	.loc	5 846 1 is_stmt 1               @ rt-thread/components/drivers/spi/sfud/src/sfud.c:846:1
	ldrb.w	r0, [sp, #23]
	add	sp, #24
	pop	{r7, pc}
.Ltmp418:
.Lfunc_end20:
	.size	reset, .Lfunc_end20-reset
	.cfi_endproc
	.cantunwind
	.fnend
                                        @ -- End function
	.section	.text.set_4_byte_address_mode,"ax",%progbits
	.p2align	3                               @ -- Begin function set_4_byte_address_mode
	.type	set_4_byte_address_mode,%function
	.code	16                              @ @set_4_byte_address_mode
	.thumb_func
set_4_byte_address_mode:
.Lfunc_begin21:
	.loc	5 919 0                         @ rt-thread/components/drivers/spi/sfud/src/sfud.c:919:0
	.fnstart
	.cfi_startproc
@ %bb.0:
	.save	{r7, lr}
	push	{r7, lr}
	.cfi_def_cfa_offset 8
	.cfi_offset lr, -4
	.cfi_offset r7, -8
	.pad	#16
	sub	sp, #16
	.cfi_def_cfa_offset 24
                                        @ kill: def $r2 killed $r1
	str	r0, [sp, #8]
	strb.w	r1, [sp, #7]
	movs	r0, #0
.Ltmp419:
	.loc	5 920 14 prologue_end           @ rt-thread/components/drivers/spi/sfud/src/sfud.c:920:14
	strb.w	r0, [sp, #6]
	.loc	5 926 32                        @ rt-thread/components/drivers/spi/sfud/src/sfud.c:926:32
	ldr	r0, [sp, #8]
	movs	r1, #1
	.loc	5 926 14 is_stmt 0              @ rt-thread/components/drivers/spi/sfud/src/sfud.c:926:14
	bl	set_write_enabled
	.loc	5 926 12                        @ rt-thread/components/drivers/spi/sfud/src/sfud.c:926:12
	strb.w	r0, [sp, #6]
.Ltmp420:
	.loc	5 927 9 is_stmt 1               @ rt-thread/components/drivers/spi/sfud/src/sfud.c:927:9
	ldrb.w	r0, [sp, #6]
.Ltmp421:
	.loc	5 927 9 is_stmt 0               @ rt-thread/components/drivers/spi/sfud/src/sfud.c:927:9
	cbz	r0, .LBB21_2
	b	.LBB21_1
.LBB21_1:
.Ltmp422:
	.loc	5 928 16 is_stmt 1              @ rt-thread/components/drivers/spi/sfud/src/sfud.c:928:16
	ldrb.w	r0, [sp, #6]
	.loc	5 928 9 is_stmt 0               @ rt-thread/components/drivers/spi/sfud/src/sfud.c:928:9
	strb.w	r0, [sp, #15]
	b	.LBB21_11
.Ltmp423:
.LBB21_2:
	.loc	5 931 9 is_stmt 1               @ rt-thread/components/drivers/spi/sfud/src/sfud.c:931:9
	ldrb.w	r0, [sp, #7]
.Ltmp424:
	.loc	5 931 9 is_stmt 0               @ rt-thread/components/drivers/spi/sfud/src/sfud.c:931:9
	lsls	r0, r0, #31
	cbz	r0, .LBB21_4
	b	.LBB21_3
.LBB21_3:
	.loc	5 0 9                           @ rt-thread/components/drivers/spi/sfud/src/sfud.c:0:9
	movs	r0, #183
.Ltmp425:
	.loc	5 932 13 is_stmt 1              @ rt-thread/components/drivers/spi/sfud/src/sfud.c:932:13
	strb.w	r0, [sp, #5]
	.loc	5 933 5                         @ rt-thread/components/drivers/spi/sfud/src/sfud.c:933:5
	b	.LBB21_5
.Ltmp426:
.LBB21_4:
	.loc	5 0 5 is_stmt 0                 @ rt-thread/components/drivers/spi/sfud/src/sfud.c:0:5
	movs	r0, #233
.Ltmp427:
	.loc	5 934 13 is_stmt 1              @ rt-thread/components/drivers/spi/sfud/src/sfud.c:934:13
	strb.w	r0, [sp, #5]
	b	.LBB21_5
.Ltmp428:
.LBB21_5:
	.loc	5 937 14                        @ rt-thread/components/drivers/spi/sfud/src/sfud.c:937:14
	ldr	r1, [sp, #8]
	.loc	5 937 21 is_stmt 0              @ rt-thread/components/drivers/spi/sfud/src/sfud.c:937:21
	add.w	r0, r1, #32
	.loc	5 937 25                        @ rt-thread/components/drivers/spi/sfud/src/sfud.c:937:25
	ldr.w	r12, [r1, #36]
	.loc	5 937 14                        @ rt-thread/components/drivers/spi/sfud/src/sfud.c:937:14
	mov	r1, sp
	movs	r3, #0
	str	r3, [r1]
	add.w	r1, sp, #5
	movs	r2, #1
	blx	r12
	.loc	5 937 12                        @ rt-thread/components/drivers/spi/sfud/src/sfud.c:937:12
	strb.w	r0, [sp, #6]
.Ltmp429:
	.loc	5 939 9 is_stmt 1               @ rt-thread/components/drivers/spi/sfud/src/sfud.c:939:9
	ldrb.w	r0, [sp, #6]
.Ltmp430:
	.loc	5 939 9 is_stmt 0               @ rt-thread/components/drivers/spi/sfud/src/sfud.c:939:9
	cbnz	r0, .LBB21_7
	b	.LBB21_6
.LBB21_6:
.Ltmp431:
	.loc	5 940 33 is_stmt 1              @ rt-thread/components/drivers/spi/sfud/src/sfud.c:940:33
	ldrb.w	r0, [sp, #7]
	and	r0, r0, #1
	.loc	5 940 9 is_stmt 0               @ rt-thread/components/drivers/spi/sfud/src/sfud.c:940:9
	ldr	r1, [sp, #8]
	.loc	5 940 31                        @ rt-thread/components/drivers/spi/sfud/src/sfud.c:940:31
	strb.w	r0, [r1, #53]
	.loc	5 942 5 is_stmt 1               @ rt-thread/components/drivers/spi/sfud/src/sfud.c:942:5
	b	.LBB21_10
.Ltmp432:
.LBB21_7:
	.loc	5 943 9                         @ rt-thread/components/drivers/spi/sfud/src/sfud.c:943:9
	b	.LBB21_8
.LBB21_8:
.Ltmp433:
	.loc	5 943 9 is_stmt 0               @ rt-thread/components/drivers/spi/sfud/src/sfud.c:943:9
	movw	r0, :lower16:.L.str
	movt	r0, :upper16:.L.str
	bl	rt_kprintf
	ldrb.w	r0, [sp, #7]
	lsls	r2, r0, #31
	movw	r0, :lower16:.L.str.50
	movt	r0, :upper16:.L.str.50
	movw	r1, :lower16:.L.str.51
	movt	r1, :upper16:.L.str.51
	cmp	r2, #0
	it	ne
	movne	r1, r0
	movw	r0, :lower16:.L.str.49
	movt	r0, :upper16:.L.str.49
	bl	rt_kprintf
	movw	r0, :lower16:.L.str.2
	movt	r0, :upper16:.L.str.2
	bl	rt_kprintf
	b	.LBB21_9
.Ltmp434:
.LBB21_9:
	.loc	5 0 9                           @ rt-thread/components/drivers/spi/sfud/src/sfud.c:0:9
	b	.LBB21_10
.LBB21_10:
	.loc	5 946 12 is_stmt 1              @ rt-thread/components/drivers/spi/sfud/src/sfud.c:946:12
	ldrb.w	r0, [sp, #6]
	.loc	5 946 5 is_stmt 0               @ rt-thread/components/drivers/spi/sfud/src/sfud.c:946:5
	strb.w	r0, [sp, #15]
	b	.LBB21_11
.LBB21_11:
	.loc	5 947 1 is_stmt 1               @ rt-thread/components/drivers/spi/sfud/src/sfud.c:947:1
	ldrb.w	r0, [sp, #15]
	add	sp, #16
	pop	{r7, pc}
.Ltmp435:
.Lfunc_end21:
	.size	set_4_byte_address_mode, .Lfunc_end21-set_4_byte_address_mode
	.cfi_endproc
	.cantunwind
	.fnend
                                        @ -- End function
	.type	.L.str,%object                  @ @.str
	.section	.rodata.str1.1,"aMS",%progbits,1
.L.str:
	.asciz	"[I/SFUD] "
	.size	.L.str, 10

	.type	.L.str.1,%object                @ @.str.1
.L.str.1:
	.asciz	"%s flash device is initialize success."
	.size	.L.str.1, 39

	.type	.L.str.2,%object                @ @.str.2
.L.str.2:
	.asciz	"\n"
	.size	.L.str.2, 2

	.type	.L.str.3,%object                @ @.str.3
.L.str.3:
	.asciz	"Error: %s flash device is initialize fail."
	.size	.L.str.3, 43

	.type	flash_table,%object             @ @flash_table
	.section	.bss.flash_table,"aw",%nobits
	.p2align	2
flash_table:
	.zero	116
	.size	flash_table, 116

	.type	.L.str.4,%object                @ @.str.4
	.section	.rodata.str1.1,"aMS",%progbits,1
.L.str.4:
	.asciz	"Error: Flash address is out of bound."
	.size	.L.str.4, 38

	.type	.L.str.5,%object                @ @.str.5
.L.str.5:
	.asciz	"Error: Flash chip erase SPI communicate error."
	.size	.L.str.5, 47

	.type	.L.str.6,%object                @ @.str.6
.L.str.6:
	.asciz	"Error: Flash erase SPI communicate error."
	.size	.L.str.6, 42

	.type	.L.str.7,%object                @ @.str.7
.L.str.7:
	.asciz	"Error: Write_status register failed."
	.size	.L.str.7, 37

	.type	flash_chip_table,%object        @ @flash_chip_table
	.section	.rodata.flash_chip_table,"a",%progbits
	.p2align	2
flash_chip_table:
	.long	.L.str.13
	.byte	31                              @ 0x1f
	.byte	38                              @ 0x26
	.byte	0                               @ 0x0
	.zero	1
	.long	2097152                         @ 0x200000
	.short	10                              @ 0xa
	.zero	2
	.long	512                             @ 0x200
	.byte	129                             @ 0x81
	.zero	3
	.long	.L.str.14
	.byte	239                             @ 0xef
	.byte	64                              @ 0x40
	.byte	19                              @ 0x13
	.zero	1
	.long	524288                          @ 0x80000
	.short	1                               @ 0x1
	.zero	2
	.long	4096                            @ 0x1000
	.byte	32                              @ 0x20
	.zero	3
	.long	.L.str.15
	.byte	239                             @ 0xef
	.byte	64                              @ 0x40
	.byte	21                              @ 0x15
	.zero	1
	.long	2097152                         @ 0x200000
	.short	1                               @ 0x1
	.zero	2
	.long	4096                            @ 0x1000
	.byte	32                              @ 0x20
	.zero	3
	.long	.L.str.16
	.byte	239                             @ 0xef
	.byte	64                              @ 0x40
	.byte	23                              @ 0x17
	.zero	1
	.long	8388608                         @ 0x800000
	.short	1                               @ 0x1
	.zero	2
	.long	4096                            @ 0x1000
	.byte	32                              @ 0x20
	.zero	3
	.long	.L.str.17
	.byte	239                             @ 0xef
	.byte	96                              @ 0x60
	.byte	23                              @ 0x17
	.zero	1
	.long	8388608                         @ 0x800000
	.short	1                               @ 0x1
	.zero	2
	.long	4096                            @ 0x1000
	.byte	32                              @ 0x20
	.zero	3
	.long	.L.str.18
	.byte	239                             @ 0xef
	.byte	64                              @ 0x40
	.byte	24                              @ 0x18
	.zero	1
	.long	16777216                        @ 0x1000000
	.short	1                               @ 0x1
	.zero	2
	.long	4096                            @ 0x1000
	.byte	32                              @ 0x20
	.zero	3
	.long	.L.str.19
	.byte	239                             @ 0xef
	.byte	64                              @ 0x40
	.byte	25                              @ 0x19
	.zero	1
	.long	33554432                        @ 0x2000000
	.short	1                               @ 0x1
	.zero	2
	.long	4096                            @ 0x1000
	.byte	32                              @ 0x20
	.zero	3
	.long	.L.str.20
	.byte	191                             @ 0xbf
	.byte	37                              @ 0x25
	.byte	65                              @ 0x41
	.zero	1
	.long	2097152                         @ 0x200000
	.short	6                               @ 0x6
	.zero	2
	.long	4096                            @ 0x1000
	.byte	32                              @ 0x20
	.zero	3
	.long	.L.str.21
	.byte	32                              @ 0x20
	.byte	32                              @ 0x20
	.byte	22                              @ 0x16
	.zero	1
	.long	4194304                         @ 0x400000
	.short	1                               @ 0x1
	.zero	2
	.long	65536                           @ 0x10000
	.byte	216                             @ 0xd8
	.zero	3
	.long	.L.str.22
	.byte	32                              @ 0x20
	.byte	32                              @ 0x20
	.byte	20                              @ 0x14
	.zero	1
	.long	1048576                         @ 0x100000
	.short	1                               @ 0x1
	.zero	2
	.long	65536                           @ 0x10000
	.byte	216                             @ 0xd8
	.zero	3
	.long	.L.str.23
	.byte	32                              @ 0x20
	.byte	32                              @ 0x20
	.byte	19                              @ 0x13
	.zero	1
	.long	524288                          @ 0x80000
	.short	1                               @ 0x1
	.zero	2
	.long	65536                           @ 0x10000
	.byte	216                             @ 0xd8
	.zero	3
	.long	.L.str.24
	.byte	28                              @ 0x1c
	.byte	48                              @ 0x30
	.byte	22                              @ 0x16
	.zero	1
	.long	4194304                         @ 0x400000
	.short	1                               @ 0x1
	.zero	2
	.long	4096                            @ 0x1000
	.byte	32                              @ 0x20
	.zero	3
	.long	.L.str.25
	.byte	200                             @ 0xc8
	.byte	64                              @ 0x40
	.byte	23                              @ 0x17
	.zero	1
	.long	8388608                         @ 0x800000
	.short	1                               @ 0x1
	.zero	2
	.long	4096                            @ 0x1000
	.byte	32                              @ 0x20
	.zero	3
	.long	.L.str.26
	.byte	200                             @ 0xc8
	.byte	64                              @ 0x40
	.byte	21                              @ 0x15
	.zero	1
	.long	2097152                         @ 0x200000
	.short	1                               @ 0x1
	.zero	2
	.long	4096                            @ 0x1000
	.byte	32                              @ 0x20
	.zero	3
	.long	.L.str.27
	.byte	1                               @ 0x1
	.byte	64                              @ 0x40
	.byte	21                              @ 0x15
	.zero	1
	.long	2097152                         @ 0x200000
	.short	1                               @ 0x1
	.zero	2
	.long	4096                            @ 0x1000
	.byte	32                              @ 0x20
	.zero	3
	.long	.L.str.28
	.byte	1                               @ 0x1
	.byte	2                               @ 0x2
	.byte	21                              @ 0x15
	.zero	1
	.long	4194304                         @ 0x400000
	.short	1                               @ 0x1
	.zero	2
	.long	4096                            @ 0x1000
	.byte	32                              @ 0x20
	.zero	3
	.long	.L.str.29
	.byte	55                              @ 0x37
	.byte	48                              @ 0x30
	.byte	20                              @ 0x14
	.zero	1
	.long	1048576                         @ 0x100000
	.short	1                               @ 0x1
	.zero	2
	.long	4096                            @ 0x1000
	.byte	32                              @ 0x20
	.zero	3
	.long	.L.str.30
	.byte	140                             @ 0x8c
	.byte	32                              @ 0x20
	.byte	19                              @ 0x13
	.zero	1
	.long	524288                          @ 0x80000
	.short	6                               @ 0x6
	.zero	2
	.long	4096                            @ 0x1000
	.byte	32                              @ 0x20
	.zero	3
	.long	.L.str.31
	.byte	191                             @ 0xbf
	.byte	37                              @ 0x25
	.byte	65                              @ 0x41
	.zero	1
	.long	2097152                         @ 0x200000
	.short	6                               @ 0x6
	.zero	2
	.long	4096                            @ 0x1000
	.byte	32                              @ 0x20
	.zero	3
	.size	flash_chip_table, 456

	.type	.L.str.8,%object                @ @.str.8
	.section	.rodata.str1.1,"aMS",%progbits,1
.L.str.8:
	.asciz	"Warning: This flash device is not found or not support."
	.size	.L.str.8, 56

	.type	mf_table,%object                @ @mf_table
	.section	.rodata.mf_table,"a",%progbits
	.p2align	2
mf_table:
	.long	.L.str.32
	.byte	1                               @ 0x1
	.zero	3
	.long	.L.str.33
	.byte	4                               @ 0x4
	.zero	3
	.long	.L.str.34
	.byte	28                              @ 0x1c
	.zero	3
	.long	.L.str.35
	.byte	31                              @ 0x1f
	.zero	3
	.long	.L.str.36
	.byte	32                              @ 0x20
	.zero	3
	.long	.L.str.37
	.byte	55                              @ 0x37
	.zero	3
	.long	.L.str.38
	.byte	98                              @ 0x62
	.zero	3
	.long	.L.str.39
	.byte	137                             @ 0x89
	.zero	3
	.long	.L.str.40
	.byte	140                             @ 0x8c
	.zero	3
	.long	.L.str.41
	.byte	161                             @ 0xa1
	.zero	3
	.long	.L.str.42
	.byte	173                             @ 0xad
	.zero	3
	.long	.L.str.43
	.byte	191                             @ 0xbf
	.zero	3
	.long	.L.str.44
	.byte	200                             @ 0xc8
	.zero	3
	.long	.L.str.45
	.byte	213                             @ 0xd5
	.zero	3
	.long	.L.str.46
	.byte	239                             @ 0xef
	.zero	3
	.long	.L.str.47
	.byte	194                             @ 0xc2
	.zero	3
	.size	mf_table, 128

	.type	.L.str.9,%object                @ @.str.9
	.section	.rodata.str1.1,"aMS",%progbits,1
.L.str.9:
	.asciz	"Find a %s %s flash chip. Size is %ld bytes."
	.size	.L.str.9, 44

	.type	.L.str.10,%object               @ @.str.10
.L.str.10:
	.asciz	"Find a %s flash chip. Size is %ld bytes."
	.size	.L.str.10, 41

	.type	.L.str.11,%object               @ @.str.11
.L.str.11:
	.asciz	"Find a flash chip. Size is %ld bytes."
	.size	.L.str.11, 38

	.type	.L.str.12,%object               @ @.str.12
.L.str.12:
	.asciz	"Error: Read flash device JEDEC ID error."
	.size	.L.str.12, 41

	.type	.L.str.13,%object               @ @.str.13
.L.str.13:
	.asciz	"AT45DB161E"
	.size	.L.str.13, 11

	.type	.L.str.14,%object               @ @.str.14
.L.str.14:
	.asciz	"W25Q40BV"
	.size	.L.str.14, 9

	.type	.L.str.15,%object               @ @.str.15
.L.str.15:
	.asciz	"W25Q16BV"
	.size	.L.str.15, 9

	.type	.L.str.16,%object               @ @.str.16
.L.str.16:
	.asciz	"W25Q64CV"
	.size	.L.str.16, 9

	.type	.L.str.17,%object               @ @.str.17
.L.str.17:
	.asciz	"W25Q64DW"
	.size	.L.str.17, 9

	.type	.L.str.18,%object               @ @.str.18
.L.str.18:
	.asciz	"W25Q128BV"
	.size	.L.str.18, 10

	.type	.L.str.19,%object               @ @.str.19
.L.str.19:
	.asciz	"W25Q256FV"
	.size	.L.str.19, 10

	.type	.L.str.20,%object               @ @.str.20
.L.str.20:
	.asciz	"SST25VF016B"
	.size	.L.str.20, 12

	.type	.L.str.21,%object               @ @.str.21
.L.str.21:
	.asciz	"M25P32"
	.size	.L.str.21, 7

	.type	.L.str.22,%object               @ @.str.22
.L.str.22:
	.asciz	"M25P80"
	.size	.L.str.22, 7

	.type	.L.str.23,%object               @ @.str.23
.L.str.23:
	.asciz	"M25P40"
	.size	.L.str.23, 7

	.type	.L.str.24,%object               @ @.str.24
.L.str.24:
	.asciz	"EN25Q32B"
	.size	.L.str.24, 9

	.type	.L.str.25,%object               @ @.str.25
.L.str.25:
	.asciz	"GD25Q64B"
	.size	.L.str.25, 9

	.type	.L.str.26,%object               @ @.str.26
.L.str.26:
	.asciz	"GD25Q16B"
	.size	.L.str.26, 9

	.type	.L.str.27,%object               @ @.str.27
.L.str.27:
	.asciz	"S25FL216K"
	.size	.L.str.27, 10

	.type	.L.str.28,%object               @ @.str.28
.L.str.28:
	.asciz	"S25FL032P"
	.size	.L.str.28, 10

	.type	.L.str.29,%object               @ @.str.29
.L.str.29:
	.asciz	"A25L080"
	.size	.L.str.29, 8

	.type	.L.str.30,%object               @ @.str.30
.L.str.30:
	.asciz	"F25L004"
	.size	.L.str.30, 8

	.type	.L.str.31,%object               @ @.str.31
.L.str.31:
	.asciz	"PCT25VF016B"
	.size	.L.str.31, 12

	.type	.L.str.32,%object               @ @.str.32
.L.str.32:
	.asciz	"Cypress"
	.size	.L.str.32, 8

	.type	.L.str.33,%object               @ @.str.33
.L.str.33:
	.asciz	"Fujitsu"
	.size	.L.str.33, 8

	.type	.L.str.34,%object               @ @.str.34
.L.str.34:
	.asciz	"EON"
	.size	.L.str.34, 4

	.type	.L.str.35,%object               @ @.str.35
.L.str.35:
	.asciz	"Atmel"
	.size	.L.str.35, 6

	.type	.L.str.36,%object               @ @.str.36
.L.str.36:
	.asciz	"Micron"
	.size	.L.str.36, 7

	.type	.L.str.37,%object               @ @.str.37
.L.str.37:
	.asciz	"AMIC"
	.size	.L.str.37, 5

	.type	.L.str.38,%object               @ @.str.38
.L.str.38:
	.asciz	"Sanyo"
	.size	.L.str.38, 6

	.type	.L.str.39,%object               @ @.str.39
.L.str.39:
	.asciz	"Intel"
	.size	.L.str.39, 6

	.type	.L.str.40,%object               @ @.str.40
.L.str.40:
	.asciz	"ESMT"
	.size	.L.str.40, 5

	.type	.L.str.41,%object               @ @.str.41
.L.str.41:
	.asciz	"Fudan"
	.size	.L.str.41, 6

	.type	.L.str.42,%object               @ @.str.42
.L.str.42:
	.asciz	"Hyundai"
	.size	.L.str.42, 8

	.type	.L.str.43,%object               @ @.str.43
.L.str.43:
	.asciz	"SST"
	.size	.L.str.43, 4

	.type	.L.str.44,%object               @ @.str.44
.L.str.44:
	.asciz	"GigaDevice"
	.size	.L.str.44, 11

	.type	.L.str.45,%object               @ @.str.45
.L.str.45:
	.asciz	"ISSI"
	.size	.L.str.45, 5

	.type	.L.str.46,%object               @ @.str.46
.L.str.46:
	.asciz	"Winbond"
	.size	.L.str.46, 8

	.type	.L.str.47,%object               @ @.str.47
.L.str.47:
	.asciz	"Micronix"
	.size	.L.str.47, 9

	.type	.L.str.48,%object               @ @.str.48
.L.str.48:
	.asciz	"Error: Flash device reset failed."
	.size	.L.str.48, 34

	.type	.L.str.49,%object               @ @.str.49
.L.str.49:
	.asciz	"Error: %s 4-Byte addressing mode failed."
	.size	.L.str.49, 41

	.type	.L.str.50,%object               @ @.str.50
.L.str.50:
	.asciz	"Enter"
	.size	.L.str.50, 6

	.type	.L.str.51,%object               @ @.str.51
.L.str.51:
	.asciz	"Exit"
	.size	.L.str.51, 5

	.type	page256_or_1_byte_write.cmd_data,%object @ @page256_or_1_byte_write.cmd_data
	.section	.bss.page256_or_1_byte_write.cmd_data,"aw",%nobits
page256_or_1_byte_write.cmd_data:
	.zero	261
	.size	page256_or_1_byte_write.cmd_data, 261

	.type	.L.str.52,%object               @ @.str.52
	.section	.rodata.str1.1,"aMS",%progbits,1
.L.str.52:
	.asciz	"Error: Flash write SPI communicate error."
	.size	.L.str.52, 42

	.type	.L.str.53,%object               @ @.str.53
.L.str.53:
	.asciz	"Error: Can't enable write status."
	.size	.L.str.53, 34

	.type	.L.str.54,%object               @ @.str.54
.L.str.54:
	.asciz	"Error: Can't disable write status."
	.size	.L.str.54, 35

	.type	.L.str.55,%object               @ @.str.55
.L.str.55:
	.asciz	"Error: Flash wait busy has an error."
	.size	.L.str.55, 37

	.section	".note.GNU-stack","",%progbits
	.eabi_attribute	30, 6	@ Tag_ABI_optimization_goals
	.ARM_attribute	16, 1	@ Tag_AV_eba