	.text
	.syntax unified
	.eabi_attribute	67, "2.09"	@ Tag_conformance
	.cpu	cortex-m7
	.eabi_attribute	6, 13	@ Tag_CPU_arch
	.eabi_attribute	7, 77	@ Tag_CPU_arch_profile
	.eabi_attribute	8, 0	@ Tag_ARM_ISA_use
	.eabi_attribute	9, 2	@ Tag_THUMB_ISA_use
	.fpu	fpv5-d16
	.eabi_attribute	36, 1	@ Tag_FP_HP_extension
	.eabi_attribute	34, 1	@ Tag_CPU_unaligned_access
	.eabi_attribute	17, 1	@ Tag_ABI_PCS_GOT_use
	.eabi_attribute	20, 2	@ Tag_ABI_FP_denormal
	.eabi_attribute	21, 0	@ Tag_ABI_FP_exceptions
	.eabi_attribute	23, 1	@ Tag_ABI_FP_number_model
	.eabi_attribute	24, 1	@ Tag_ABI_align_needed
	.eabi_attribute	25, 1	@ Tag_ABI_align_preserved
	.eabi_attribute	28, 1	@ Tag_ABI_VFP_args
	.eabi_attribute	38, 1	@ Tag_ABI_FP_16bit_format
	.eabi_attribute	18, 2	@ Tag_ABI_PCS_wchar_t
	.eabi_attribute	26, 1	@ Tag_ABI_enum_size
	.eabi_attribute	14, 0	@ Tag_ABI_PCS_R9_use
	.file	"shell.c"
	.file	1 "E:\\Smart-access-control\\Hardware\\CODE" "rt-thread/components/finsh/finsh_api.h"
	.file	2 "E:\\Smart-access-control\\Hardware\\CODE" "rt-thread/components/finsh/shell.c"
	.file	3 "E:\\Smart-access-control\\Hardware\\CODE" "rt-thread/components/finsh/finsh.h"
	.file	4 "D:\\Keil_v5\\ARM\\ARMCLANG\\Bin\\..\\include" "stdint.h"
	.file	5 "E:\\Smart-access-control\\Hardware\\CODE" "rt-thread/include\\rtdef.h"
	.file	6 "E:\\Smart-access-control\\Hardware\\CODE" "rt-thread/components/finsh/shell.h"
	.section	.text.finsh_set_prompt,"ax",%progbits
	.hidden	finsh_set_prompt                @ -- Begin function finsh_set_prompt
	.globl	finsh_set_prompt
	.p2align	3
	.type	finsh_set_prompt,%function
	.code	16                              @ @finsh_set_prompt
	.thumb_func
finsh_set_prompt:
.Lfunc_begin0:
	.loc	2 79 0                          @ rt-thread/components/finsh/shell.c:79:0
	.fnstart
	.cfi_sections .debug_frame
	.cfi_startproc
@ %bb.0:
	.save	{r7, lr}
	push	{r7, lr}
	.cfi_def_cfa_offset 8
	.cfi_offset lr, -4
	.cfi_offset r7, -8
	.pad	#8
	sub	sp, #8
	.cfi_def_cfa_offset 16
	str	r0, [sp, #4]
.Ltmp0:
	.loc	2 80 8 prologue_end             @ rt-thread/components/finsh/shell.c:80:8
	movw	r0, :lower16:finsh_prompt_custom
	movt	r0, :upper16:finsh_prompt_custom
	ldr	r0, [r0]
.Ltmp1:
	.loc	2 80 8 is_stmt 0                @ rt-thread/components/finsh/shell.c:80:8
	cbz	r0, .LBB0_2
	b	.LBB0_1
.LBB0_1:
.Ltmp2:
	.loc	2 82 17 is_stmt 1               @ rt-thread/components/finsh/shell.c:82:17
	movw	r0, :lower16:finsh_prompt_custom
	movt	r0, :upper16:finsh_prompt_custom
	str	r0, [sp]                        @ 4-byte Spill
	ldr	r0, [r0]
	.loc	2 82 9 is_stmt 0                @ rt-thread/components/finsh/shell.c:82:9
	bl	rt_free
	ldr	r1, [sp]                        @ 4-byte Reload
	movs	r0, #0
	.loc	2 83 29 is_stmt 1               @ rt-thread/components/finsh/shell.c:83:29
	str	r0, [r1]
	.loc	2 84 5                          @ rt-thread/components/finsh/shell.c:84:5
	b	.LBB0_2
.Ltmp3:
.LBB0_2:
	.loc	2 87 8                          @ rt-thread/components/finsh/shell.c:87:8
	ldr	r0, [sp, #4]
.Ltmp4:
	.loc	2 87 8 is_stmt 0                @ rt-thread/components/finsh/shell.c:87:8
	cbz	r0, .LBB0_6
	b	.LBB0_3
.LBB0_3:
.Ltmp5:
	.loc	2 89 56 is_stmt 1               @ rt-thread/components/finsh/shell.c:89:56
	ldr	r0, [sp, #4]
	.loc	2 89 49 is_stmt 0               @ rt-thread/components/finsh/shell.c:89:49
	bl	strlen
	.loc	2 89 63                         @ rt-thread/components/finsh/shell.c:89:63
	adds	r0, #1
	.loc	2 89 39                         @ rt-thread/components/finsh/shell.c:89:39
	bl	rt_malloc
	mov	r1, r0
	.loc	2 89 29                         @ rt-thread/components/finsh/shell.c:89:29
	movw	r0, :lower16:finsh_prompt_custom
	movt	r0, :upper16:finsh_prompt_custom
	str	r1, [r0]
.Ltmp6:
	.loc	2 90 12 is_stmt 1               @ rt-thread/components/finsh/shell.c:90:12
	ldr	r0, [r0]
.Ltmp7:
	.loc	2 90 12 is_stmt 0               @ rt-thread/components/finsh/shell.c:90:12
	cbz	r0, .LBB0_5
	b	.LBB0_4
.LBB0_4:
.Ltmp8:
	.loc	2 92 20 is_stmt 1               @ rt-thread/components/finsh/shell.c:92:20
	movw	r0, :lower16:finsh_prompt_custom
	movt	r0, :upper16:finsh_prompt_custom
	ldr	r0, [r0]
	.loc	2 92 41 is_stmt 0               @ rt-thread/components/finsh/shell.c:92:41
	ldr	r1, [sp, #4]
	.loc	2 92 13                         @ rt-thread/components/finsh/shell.c:92:13
	bl	strcpy
	.loc	2 93 9 is_stmt 1                @ rt-thread/components/finsh/shell.c:93:9
	b	.LBB0_5
.Ltmp9:
.LBB0_5:
	.loc	2 94 5                          @ rt-thread/components/finsh/shell.c:94:5
	b	.LBB0_6
.Ltmp10:
.LBB0_6:
	.loc	2 0 5 is_stmt 0                 @ rt-thread/components/finsh/shell.c:0:5
	movs	r0, #0
	.loc	2 96 5 is_stmt 1                @ rt-thread/components/finsh/shell.c:96:5
	add	sp, #8
	pop	{r7, pc}
.Ltmp11:
.Lfunc_end0:
	.size	finsh_set_prompt, .Lfunc_end0-finsh_set_prompt
	.cfi_endproc
	.cantunwind
	.fnend
                                        @ -- End function
	.section	.text.finsh_get_prompt,"ax",%progbits
	.hidden	finsh_get_prompt                @ -- Begin function finsh_get_prompt
	.globl	finsh_get_prompt
	.p2align	3
	.type	finsh_get_prompt,%function
	.code	16                              @ @finsh_get_prompt
	.thumb_func
finsh_get_prompt:
.Lfunc_begin1:
	.loc	2 105 0                         @ rt-thread/components/finsh/shell.c:105:0
	.fnstart
	.cfi_startproc
@ %bb.0:
	.save	{r7, lr}
	push	{r7, lr}
	.cfi_def_cfa_offset 8
	.cfi_offset lr, -4
	.cfi_offset r7, -8
	.pad	#16
	sub	sp, #16
	.cfi_def_cfa_offset 24
.Ltmp12:
	.loc	2 111 10 prologue_end           @ rt-thread/components/finsh/shell.c:111:10
	movw	r0, :lower16:shell
	movt	r0, :upper16:shell
	ldr	r0, [r0]
	.loc	2 111 17 is_stmt 0              @ rt-thread/components/finsh/shell.c:111:17
	ldrb.w	r0, [r0, #33]
	lsrs	r0, r0, #1
.Ltmp13:
	.loc	2 111 9                         @ rt-thread/components/finsh/shell.c:111:9
	lsls	r0, r0, #31
	cbnz	r0, .LBB1_2
	b	.LBB1_1
.LBB1_1:
.Ltmp14:
	.loc	2 113 25 is_stmt 1              @ rt-thread/components/finsh/shell.c:113:25
	movw	r0, :lower16:finsh_get_prompt.finsh_prompt
	movt	r0, :upper16:finsh_get_prompt.finsh_prompt
	movs	r1, #0
	strb	r1, [r0]
	.loc	2 114 9                         @ rt-thread/components/finsh/shell.c:114:9
	str	r0, [sp, #12]
	b	.LBB1_8
.Ltmp15:
.LBB1_2:
	.loc	2 117 8                         @ rt-thread/components/finsh/shell.c:117:8
	movw	r0, :lower16:finsh_prompt_custom
	movt	r0, :upper16:finsh_prompt_custom
	ldr	r0, [r0]
.Ltmp16:
	.loc	2 117 8 is_stmt 0               @ rt-thread/components/finsh/shell.c:117:8
	cbz	r0, .LBB1_4
	b	.LBB1_3
.LBB1_3:
.Ltmp17:
	.loc	2 119 31 is_stmt 1              @ rt-thread/components/finsh/shell.c:119:31
	movw	r0, :lower16:finsh_prompt_custom
	movt	r0, :upper16:finsh_prompt_custom
	ldr	r1, [r0]
	.loc	2 119 9 is_stmt 0               @ rt-thread/components/finsh/shell.c:119:9
	movw	r0, :lower16:finsh_get_prompt.finsh_prompt
	movt	r0, :upper16:finsh_get_prompt.finsh_prompt
	str	r0, [sp, #8]                    @ 4-byte Spill
	movs	r2, #128
	bl	strncpy
                                        @ kill: def $r1 killed $r0
	.loc	2 120 9 is_stmt 1               @ rt-thread/components/finsh/shell.c:120:9
	ldr	r0, [sp, #8]                    @ 4-byte Reload
	str	r0, [sp, #12]
	b	.LBB1_8
.Ltmp18:
.LBB1_4:
	.loc	2 124 9                         @ rt-thread/components/finsh/shell.c:124:9
	bl	msh_is_used
.Ltmp19:
	.loc	2 124 9 is_stmt 0               @ rt-thread/components/finsh/shell.c:124:9
	cbz	r0, .LBB1_6
	b	.LBB1_5
.LBB1_5:
.Ltmp20:
	.loc	2 124 24                        @ rt-thread/components/finsh/shell.c:124:24
	movw	r0, :lower16:finsh_get_prompt.finsh_prompt
	movt	r0, :upper16:finsh_get_prompt.finsh_prompt
	movw	r1, :lower16:.L.str
	movt	r1, :upper16:.L.str
	bl	strcpy
	b	.LBB1_7
.LBB1_6:
	.loc	2 127 9 is_stmt 1               @ rt-thread/components/finsh/shell.c:127:9
	movw	r0, :lower16:finsh_get_prompt.finsh_prompt
	movt	r0, :upper16:finsh_get_prompt.finsh_prompt
	movw	r1, :lower16:.L.str.1
	movt	r1, :upper16:.L.str.1
	bl	strcpy
	b	.LBB1_7
.Ltmp21:
.LBB1_7:
	.loc	2 131 26                        @ rt-thread/components/finsh/shell.c:131:26
	movw	r0, :lower16:finsh_get_prompt.finsh_prompt
	movt	r0, :upper16:finsh_get_prompt.finsh_prompt
	str	r0, [sp, #4]                    @ 4-byte Spill
	bl	rt_strlen
	mov	r1, r0
	.loc	2 131 13 is_stmt 0              @ rt-thread/components/finsh/shell.c:131:13
	ldr	r0, [sp, #4]                    @ 4-byte Reload
	add	r1, r0
	.loc	2 131 73                        @ rt-thread/components/finsh/shell.c:131:73
	str	r1, [sp]                        @ 4-byte Spill
	bl	rt_strlen
	mov	r1, r0
	.loc	2 131 71                        @ rt-thread/components/finsh/shell.c:131:71
	ldr	r0, [sp]                        @ 4-byte Reload
	rsb.w	r1, r1, #128
	.loc	2 131 5                         @ rt-thread/components/finsh/shell.c:131:5
	bl	getcwd
                                        @ kill: def $r1 killed $r0
	.loc	2 134 5 is_stmt 1               @ rt-thread/components/finsh/shell.c:134:5
	ldr	r0, [sp, #4]                    @ 4-byte Reload
	movw	r1, :lower16:.L.str.2
	movt	r1, :upper16:.L.str.2
	bl	strcat
                                        @ kill: def $r1 killed $r0
	.loc	2 136 5                         @ rt-thread/components/finsh/shell.c:136:5
	ldr	r0, [sp, #4]                    @ 4-byte Reload
	str	r0, [sp, #12]
	b	.LBB1_8
.LBB1_8:
	.loc	2 137 1                         @ rt-thread/components/finsh/shell.c:137:1
	ldr	r0, [sp, #12]
	add	sp, #16
	pop	{r7, pc}
.Ltmp22:
.Lfunc_end1:
	.size	finsh_get_prompt, .Lfunc_end1-finsh_get_prompt
	.cfi_endproc
	.cantunwind
	.fnend
                                        @ -- End function
	.section	.text.finsh_get_prompt_mode,"ax",%progbits
	.hidden	finsh_get_prompt_mode           @ -- Begin function finsh_get_prompt_mode
	.globl	finsh_get_prompt_mode
	.p2align	3
	.type	finsh_get_prompt_mode,%function
	.code	16                              @ @finsh_get_prompt_mode
	.thumb_func
finsh_get_prompt_mode:
.Lfunc_begin2:
	.loc	2 147 0                         @ rt-thread/components/finsh/shell.c:147:0
	.fnstart
	.cfi_startproc
@ %bb.0:
	.save	{r7, lr}
	push	{r7, lr}
	.cfi_def_cfa_offset 8
	.cfi_offset lr, -4
	.cfi_offset r7, -8
.Ltmp23:
	.loc	2 148 5 prologue_end            @ rt-thread/components/finsh/shell.c:148:5
	movw	r0, :lower16:shell
	movt	r0, :upper16:shell
	ldr	r0, [r0]
.Ltmp24:
	.loc	2 148 5 is_stmt 0               @ rt-thread/components/finsh/shell.c:148:5
	cbnz	r0, .LBB2_2
	b	.LBB2_1
.LBB2_1:
.Ltmp25:
	.loc	2 148 5                         @ rt-thread/components/finsh/shell.c:148:5
	movw	r0, :lower16:.L.str.3
	movt	r0, :upper16:.L.str.3
	movw	r1, :lower16:.L__FUNCTION__.finsh_get_prompt_mode
	movt	r1, :upper16:.L__FUNCTION__.finsh_get_prompt_mode
	movs	r2, #148
	bl	rt_assert_handler
	b	.LBB2_2
.Ltmp26:
.LBB2_2:
	.loc	2 149 12 is_stmt 1              @ rt-thread/components/finsh/shell.c:149:12
	movw	r0, :lower16:shell
	movt	r0, :upper16:shell
	ldr	r0, [r0]
	.loc	2 149 19 is_stmt 0              @ rt-thread/components/finsh/shell.c:149:19
	ldrb.w	r0, [r0, #33]
	ubfx	r0, r0, #1, #1
	.loc	2 149 5                         @ rt-thread/components/finsh/shell.c:149:5
	pop	{r7, pc}
.Ltmp27:
.Lfunc_end2:
	.size	finsh_get_prompt_mode, .Lfunc_end2-finsh_get_prompt_mode
	.cfi_endproc
	.cantunwind
	.fnend
                                        @ -- End function
	.section	.text.finsh_set_prompt_mode,"ax",%progbits
	.hidden	finsh_set_prompt_mode           @ -- Begin function finsh_set_prompt_mode
	.globl	finsh_set_prompt_mode
	.p2align	3
	.type	finsh_set_prompt_mode,%function
	.code	16                              @ @finsh_set_prompt_mode
	.thumb_func
finsh_set_prompt_mode:
.Lfunc_begin3:
	.loc	2 162 0 is_stmt 1               @ rt-thread/components/finsh/shell.c:162:0
	.fnstart
	.cfi_startproc
@ %bb.0:
	.save	{r7, lr}
	push	{r7, lr}
	.cfi_def_cfa_offset 8
	.cfi_offset lr, -4
	.cfi_offset r7, -8
	.pad	#8
	sub	sp, #8
	.cfi_def_cfa_offset 16
	str	r0, [sp, #4]
.Ltmp28:
	.loc	2 163 5 prologue_end            @ rt-thread/components/finsh/shell.c:163:5
	movw	r0, :lower16:shell
	movt	r0, :upper16:shell
	ldr	r0, [r0]
.Ltmp29:
	.loc	2 163 5 is_stmt 0               @ rt-thread/components/finsh/shell.c:163:5
	cbnz	r0, .LBB3_2
	b	.LBB3_1
.LBB3_1:
.Ltmp30:
	.loc	2 163 5                         @ rt-thread/components/finsh/shell.c:163:5
	movw	r0, :lower16:.L.str.3
	movt	r0, :upper16:.L.str.3
	movw	r1, :lower16:.L__FUNCTION__.finsh_set_prompt_mode
	movt	r1, :upper16:.L__FUNCTION__.finsh_set_prompt_mode
	movs	r2, #163
	bl	rt_assert_handler
	b	.LBB3_2
.Ltmp31:
.LBB3_2:
	.loc	2 164 26 is_stmt 1              @ rt-thread/components/finsh/shell.c:164:26
	ldrb.w	r2, [sp, #4]
	.loc	2 164 5 is_stmt 0               @ rt-thread/components/finsh/shell.c:164:5
	movw	r0, :lower16:shell
	movt	r0, :upper16:shell
	ldr	r1, [r0]
	.loc	2 164 24                        @ rt-thread/components/finsh/shell.c:164:24
	ldrb.w	r0, [r1, #33]
	and	r2, r2, #1
	and	r0, r0, #253
	orr.w	r0, r0, r2, lsl #1
	strb.w	r0, [r1, #33]
	.loc	2 165 1 is_stmt 1               @ rt-thread/components/finsh/shell.c:165:1
	add	sp, #8
	pop	{r7, pc}
.Ltmp32:
.Lfunc_end3:
	.size	finsh_set_prompt_mode, .Lfunc_end3-finsh_set_prompt_mode
	.cfi_endproc
	.cantunwind
	.fnend
                                        @ -- End function
	.section	.text.finsh_set_echo,"ax",%progbits
	.hidden	finsh_set_echo                  @ -- Begin function finsh_set_echo
	.globl	finsh_set_echo
	.p2align	3
	.type	finsh_set_echo,%function
	.code	16                              @ @finsh_set_echo
	.thumb_func
finsh_set_echo:
.Lfunc_begin4:
	.loc	2 263 0                         @ rt-thread/components/finsh/shell.c:263:0
	.fnstart
	.cfi_startproc
@ %bb.0:
	.save	{r7, lr}
	push	{r7, lr}
	.cfi_def_cfa_offset 8
	.cfi_offset lr, -4
	.cfi_offset r7, -8
	.pad	#8
	sub	sp, #8
	.cfi_def_cfa_offset 16
	str	r0, [sp, #4]
.Ltmp33:
	.loc	2 264 5 prologue_end            @ rt-thread/components/finsh/shell.c:264:5
	movw	r0, :lower16:shell
	movt	r0, :upper16:shell
	ldr	r0, [r0]
.Ltmp34:
	.loc	2 264 5 is_stmt 0               @ rt-thread/components/finsh/shell.c:264:5
	cbnz	r0, .LBB4_2
	b	.LBB4_1
.LBB4_1:
.Ltmp35:
	.loc	2 264 5                         @ rt-thread/components/finsh/shell.c:264:5
	movw	r0, :lower16:.L.str.3
	movt	r0, :upper16:.L.str.3
	movw	r1, :lower16:.L__FUNCTION__.finsh_set_echo
	movt	r1, :upper16:.L__FUNCTION__.finsh_set_echo
	mov.w	r2, #264
	bl	rt_assert_handler
	b	.LBB4_2
.Ltmp36:
.LBB4_2:
	.loc	2 265 36 is_stmt 1              @ rt-thread/components/finsh/shell.c:265:36
	ldrb.w	r2, [sp, #4]
	.loc	2 265 5 is_stmt 0               @ rt-thread/components/finsh/shell.c:265:5
	movw	r0, :lower16:shell
	movt	r0, :upper16:shell
	ldr	r1, [r0]
	.loc	2 265 22                        @ rt-thread/components/finsh/shell.c:265:22
	ldrb.w	r0, [r1, #33]
	and	r2, r2, #1
	and	r0, r0, #254
	add	r0, r2
	strb.w	r0, [r1, #33]
	.loc	2 266 1 is_stmt 1               @ rt-thread/components/finsh/shell.c:266:1
	add	sp, #8
	pop	{r7, pc}
.Ltmp37:
.Lfunc_end4:
	.size	finsh_set_echo, .Lfunc_end4-finsh_set_echo
	.cfi_endproc
	.cantunwind
	.fnend
                                        @ -- End function
	.section	.text.finsh_get_echo,"ax",%progbits
	.hidden	finsh_get_echo                  @ -- Begin function finsh_get_echo
	.globl	finsh_get_echo
	.p2align	3
	.type	finsh_get_echo,%function
	.code	16                              @ @finsh_get_echo
	.thumb_func
finsh_get_echo:
.Lfunc_begin5:
	.loc	2 276 0                         @ rt-thread/components/finsh/shell.c:276:0
	.fnstart
	.cfi_startproc
@ %bb.0:
	.save	{r7, lr}
	push	{r7, lr}
	.cfi_def_cfa_offset 8
	.cfi_offset lr, -4
	.cfi_offset r7, -8
.Ltmp38:
	.loc	2 277 5 prologue_end            @ rt-thread/components/finsh/shell.c:277:5
	movw	r0, :lower16:shell
	movt	r0, :upper16:shell
	ldr	r0, [r0]
.Ltmp39:
	.loc	2 277 5 is_stmt 0               @ rt-thread/components/finsh/shell.c:277:5
	cbnz	r0, .LBB5_2
	b	.LBB5_1
.LBB5_1:
.Ltmp40:
	.loc	2 277 5                         @ rt-thread/components/finsh/shell.c:277:5
	movw	r0, :lower16:.L.str.3
	movt	r0, :upper16:.L.str.3
	movw	r1, :lower16:.L__FUNCTION__.finsh_get_echo
	movt	r1, :upper16:.L__FUNCTION__.finsh_get_echo
	movw	r2, #277
	bl	rt_assert_handler
	b	.LBB5_2
.Ltmp41:
.LBB5_2:
	.loc	2 279 12 is_stmt 1              @ rt-thread/components/finsh/shell.c:279:12
	movw	r0, :lower16:shell
	movt	r0, :upper16:shell
	ldr	r0, [r0]
	.loc	2 279 19 is_stmt 0              @ rt-thread/components/finsh/shell.c:279:19
	ldrb.w	r0, [r0, #33]
	.loc	2 279 12                        @ rt-thread/components/finsh/shell.c:279:12
	and	r0, r0, #1
	.loc	2 279 5                         @ rt-thread/components/finsh/shell.c:279:5
	pop	{r7, pc}
.Ltmp42:
.Lfunc_end5:
	.size	finsh_get_echo, .Lfunc_end5-finsh_get_echo
	.cfi_endproc
	.cantunwind
	.fnend
                                        @ -- End function
	.section	.text.finsh_run_line,"ax",%progbits
	.hidden	finsh_run_line                  @ -- Begin function finsh_run_line
	.globl	finsh_run_line
	.p2align	3
	.type	finsh_run_line,%function
	.code	16                              @ @finsh_run_line
	.thumb_func
finsh_run_line:
.Lfunc_begin6:
	.loc	2 396 0 is_stmt 1               @ rt-thread/components/finsh/shell.c:396:0
	.fnstart
	.cfi_startproc
@ %bb.0:
	.save	{r7, lr}
	push	{r7, lr}
	.cfi_def_cfa_offset 8
	.cfi_offset lr, -4
	.cfi_offset r7, -8
	.pad	#32
	sub	sp, #32
	.cfi_def_cfa_offset 40
	str	r0, [sp, #28]
	str	r1, [sp, #24]
.Ltmp43:
	.loc	2 399 8 prologue_end            @ rt-thread/components/finsh/shell.c:399:8
	movw	r0, :lower16:shell
	movt	r0, :upper16:shell
	ldr	r0, [r0]
	.loc	2 399 15 is_stmt 0              @ rt-thread/components/finsh/shell.c:399:15
	ldrb.w	r0, [r0, #33]
.Ltmp44:
	.loc	2 399 8                         @ rt-thread/components/finsh/shell.c:399:8
	lsls	r0, r0, #31
	cbz	r0, .LBB6_2
	b	.LBB6_1
.LBB6_1:
.Ltmp45:
	.loc	2 400 9 is_stmt 1               @ rt-thread/components/finsh/shell.c:400:9
	movw	r0, :lower16:.L.str.4
	movt	r0, :upper16:.L.str.4
	bl	rt_kprintf
	b	.LBB6_2
.Ltmp46:
.LBB6_2:
	.loc	2 401 22                        @ rt-thread/components/finsh/shell.c:401:22
	ldr	r0, [sp, #28]
	.loc	2 401 47 is_stmt 0              @ rt-thread/components/finsh/shell.c:401:47
	ldr	r1, [sp, #24]
	.loc	2 401 5                         @ rt-thread/components/finsh/shell.c:401:5
	bl	finsh_parser_run
.Ltmp47:
	.loc	2 404 9 is_stmt 1               @ rt-thread/components/finsh/shell.c:404:9
	bl	finsh_errno
.Ltmp48:
	.loc	2 404 9 is_stmt 0               @ rt-thread/components/finsh/shell.c:404:9
	cbnz	r0, .LBB6_4
	b	.LBB6_3
.LBB6_3:
.Ltmp49:
	.loc	2 406 28 is_stmt 1              @ rt-thread/components/finsh/shell.c:406:28
	ldr	r0, [sp, #28]
	.loc	2 406 36 is_stmt 0              @ rt-thread/components/finsh/shell.c:406:36
	ldr.w	r0, [r0, #152]
	.loc	2 406 9                         @ rt-thread/components/finsh/shell.c:406:9
	bl	finsh_compiler_run
	.loc	2 407 5 is_stmt 1               @ rt-thread/components/finsh/shell.c:407:5
	b	.LBB6_5
.Ltmp50:
.LBB6_4:
	.loc	2 410 38                        @ rt-thread/components/finsh/shell.c:410:38
	bl	finsh_errno
	.loc	2 410 19 is_stmt 0              @ rt-thread/components/finsh/shell.c:410:19
	bl	finsh_error_string
	.loc	2 410 17                        @ rt-thread/components/finsh/shell.c:410:17
	str	r0, [sp, #20]
	.loc	2 411 28 is_stmt 1              @ rt-thread/components/finsh/shell.c:411:28
	ldr	r1, [sp, #20]
	.loc	2 411 9 is_stmt 0               @ rt-thread/components/finsh/shell.c:411:9
	movw	r0, :lower16:.L.str.5
	movt	r0, :upper16:.L.str.5
	bl	rt_kprintf
	b	.LBB6_5
.Ltmp51:
.LBB6_5:
	.loc	2 415 9 is_stmt 1               @ rt-thread/components/finsh/shell.c:415:9
	bl	finsh_errno
.Ltmp52:
	.loc	2 415 9 is_stmt 0               @ rt-thread/components/finsh/shell.c:415:9
	cbnz	r0, .LBB6_11
	b	.LBB6_6
.LBB6_6:
.Ltmp53:
	.loc	2 418 9 is_stmt 1               @ rt-thread/components/finsh/shell.c:418:9
	bl	finsh_vm_run
	.loc	2 420 29                        @ rt-thread/components/finsh/shell.c:420:29
	bl	finsh_stack_bottom
	.loc	2 420 12 is_stmt 0              @ rt-thread/components/finsh/shell.c:420:12
	strb.w	r0, [sp, #19]
.Ltmp54:
	.loc	2 421 13 is_stmt 1              @ rt-thread/components/finsh/shell.c:421:13
	ldrsb.w	r0, [sp, #19]
	.loc	2 421 23 is_stmt 0              @ rt-thread/components/finsh/shell.c:421:23
	cmp	r0, #33
	blt	.LBB6_9
	b	.LBB6_7
.LBB6_7:
	.loc	2 421 26                        @ rt-thread/components/finsh/shell.c:421:26
	ldrsb.w	r0, [sp, #19]
.Ltmp55:
	.loc	2 421 13                        @ rt-thread/components/finsh/shell.c:421:13
	cmp	r0, #125
	bgt	.LBB6_9
	b	.LBB6_8
.LBB6_8:
.Ltmp56:
	.loc	2 424 39 is_stmt 1              @ rt-thread/components/finsh/shell.c:424:39
	bl	finsh_stack_bottom
	.loc	2 424 24 is_stmt 0              @ rt-thread/components/finsh/shell.c:424:24
	uxtb	r0, r0
	.loc	2 425 38 is_stmt 1              @ rt-thread/components/finsh/shell.c:425:38
	str	r0, [sp, #8]                    @ 4-byte Spill
	bl	finsh_stack_bottom
	.loc	2 426 38                        @ rt-thread/components/finsh/shell.c:426:38
	str	r0, [sp, #12]                   @ 4-byte Spill
	bl	finsh_stack_bottom
	ldr	r1, [sp, #8]                    @ 4-byte Reload
	ldr	r2, [sp, #12]                   @ 4-byte Reload
	mov	r3, r0
	.loc	2 423 13                        @ rt-thread/components/finsh/shell.c:423:13
	movw	r0, :lower16:.L.str.6
	movt	r0, :upper16:.L.str.6
	bl	rt_kprintf
	.loc	2 427 9                         @ rt-thread/components/finsh/shell.c:427:9
	b	.LBB6_10
.Ltmp57:
.LBB6_9:
	.loc	2 431 38                        @ rt-thread/components/finsh/shell.c:431:38
	bl	finsh_stack_bottom
	.loc	2 432 38                        @ rt-thread/components/finsh/shell.c:432:38
	str	r0, [sp, #4]                    @ 4-byte Spill
	bl	finsh_stack_bottom
	ldr	r1, [sp, #4]                    @ 4-byte Reload
	mov	r2, r0
	.loc	2 430 13                        @ rt-thread/components/finsh/shell.c:430:13
	movw	r0, :lower16:.L.str.7
	movt	r0, :upper16:.L.str.7
	bl	rt_kprintf
	b	.LBB6_10
.Ltmp58:
.LBB6_10:
	.loc	2 434 5                         @ rt-thread/components/finsh/shell.c:434:5
	b	.LBB6_11
.Ltmp59:
.LBB6_11:
	.loc	2 436 17                        @ rt-thread/components/finsh/shell.c:436:17
	ldr	r0, [sp, #28]
	.loc	2 436 5 is_stmt 0               @ rt-thread/components/finsh/shell.c:436:5
	bl	finsh_flush
	.loc	2 437 1 is_stmt 1               @ rt-thread/components/finsh/shell.c:437:1
	add	sp, #32
	pop	{r7, pc}
.Ltmp60:
.Lfunc_end6:
	.size	finsh_run_line, .Lfunc_end6-finsh_run_line
	.cfi_endproc
	.cantunwind
	.fnend
                                        @ -- End function
	.section	.text.finsh_thread_entry,"ax",%progbits
	.hidden	finsh_thread_entry              @ -- Begin function finsh_thread_entry
	.globl	finsh_thread_entry
	.p2align	3
	.type	finsh_thread_entry,%function
	.code	16                              @ @finsh_thread_entry
	.thumb_func
finsh_thread_entry:
.Lfunc_begin7:
	.loc	2 501 0                         @ rt-thread/components/finsh/shell.c:501:0
	.fnstart
	.cfi_startproc
@ %bb.0:
	.save	{r7, lr}
	push	{r7, lr}
	.cfi_def_cfa_offset 8
	.cfi_offset lr, -4
	.cfi_offset r7, -8
	.pad	#48
	sub	sp, #48
	.cfi_def_cfa_offset 56
	str	r0, [sp, #44]
.Ltmp61:
	.loc	2 506 5 prologue_end            @ rt-thread/components/finsh/shell.c:506:5
	movw	r0, :lower16:shell
	movt	r0, :upper16:shell
	ldr	r2, [r0]
	.loc	2 506 22 is_stmt 0              @ rt-thread/components/finsh/shell.c:506:22
	ldrb.w	r1, [r2, #33]
	orr	r1, r1, #1
	strb.w	r1, [r2, #33]
	.loc	2 512 17 is_stmt 1              @ rt-thread/components/finsh/shell.c:512:17
	ldr	r0, [r0]
	.loc	2 512 24 is_stmt 0              @ rt-thread/components/finsh/shell.c:512:24
	add.w	r0, r0, #440
	.loc	2 512 5                         @ rt-thread/components/finsh/shell.c:512:5
	bl	finsh_init
	.loc	2 540 16 is_stmt 1              @ rt-thread/components/finsh/shell.c:540:16
	bl	finsh_get_prompt
	.loc	2 540 5 is_stmt 0               @ rt-thread/components/finsh/shell.c:540:5
	bl	rt_kprintf
	.loc	2 542 5 is_stmt 1               @ rt-thread/components/finsh/shell.c:542:5
	b	.LBB7_1
.LBB7_1:                                @ =>This Loop Header: Depth=1
                                        @     Child Loop BB7_79 Depth 2
                                        @     Child Loop BB7_52 Depth 2
                                        @     Child Loop BB7_42 Depth 2
.Ltmp62:
	.loc	2 544 14                        @ rt-thread/components/finsh/shell.c:544:14
	bl	finsh_getchar
	.loc	2 544 12 is_stmt 0              @ rt-thread/components/finsh/shell.c:544:12
	str	r0, [sp, #40]
.Ltmp63:
	.loc	2 545 13 is_stmt 1              @ rt-thread/components/finsh/shell.c:545:13
	ldr	r0, [sp, #40]
.Ltmp64:
	.loc	2 545 13 is_stmt 0              @ rt-thread/components/finsh/shell.c:545:13
	cmp.w	r0, #-1
	bgt	.LBB7_3
	b	.LBB7_2
.LBB7_2:                                @   in Loop: Header=BB7_1 Depth=1
.Ltmp65:
	.loc	2 547 13 is_stmt 1              @ rt-thread/components/finsh/shell.c:547:13
	b	.LBB7_1
.Ltmp66:
.LBB7_3:                                @   in Loop: Header=BB7_1 Depth=1
	.loc	2 557 13                        @ rt-thread/components/finsh/shell.c:557:13
	ldr	r0, [sp, #40]
.Ltmp67:
	.loc	2 557 13 is_stmt 0              @ rt-thread/components/finsh/shell.c:557:13
	cmp	r0, #27
	bne	.LBB7_5
	b	.LBB7_4
.LBB7_4:                                @   in Loop: Header=BB7_1 Depth=1
.Ltmp68:
	.loc	2 559 13 is_stmt 1              @ rt-thread/components/finsh/shell.c:559:13
	movw	r0, :lower16:shell
	movt	r0, :upper16:shell
	ldr	r1, [r0]
	movs	r0, #1
	.loc	2 559 25 is_stmt 0              @ rt-thread/components/finsh/shell.c:559:25
	strb.w	r0, [r1, #32]
	.loc	2 560 13 is_stmt 1              @ rt-thread/components/finsh/shell.c:560:13
	b	.LBB7_1
.Ltmp69:
.LBB7_5:                                @   in Loop: Header=BB7_1 Depth=1
	.loc	2 562 18                        @ rt-thread/components/finsh/shell.c:562:18
	movw	r0, :lower16:shell
	movt	r0, :upper16:shell
	ldr	r0, [r0]
	.loc	2 562 25 is_stmt 0              @ rt-thread/components/finsh/shell.c:562:25
	ldrb.w	r0, [r0, #32]
.Ltmp70:
	.loc	2 562 18                        @ rt-thread/components/finsh/shell.c:562:18
	cmp	r0, #1
	bne	.LBB7_9
	b	.LBB7_6
.LBB7_6:                                @   in Loop: Header=BB7_1 Depth=1
.Ltmp71:
	.loc	2 564 17 is_stmt 1              @ rt-thread/components/finsh/shell.c:564:17
	ldr	r0, [sp, #40]
.Ltmp72:
	.loc	2 564 17 is_stmt 0              @ rt-thread/components/finsh/shell.c:564:17
	cmp	r0, #91
	bne	.LBB7_8
	b	.LBB7_7
.LBB7_7:                                @   in Loop: Header=BB7_1 Depth=1
.Ltmp73:
	.loc	2 566 17 is_stmt 1              @ rt-thread/components/finsh/shell.c:566:17
	movw	r0, :lower16:shell
	movt	r0, :upper16:shell
	ldr	r1, [r0]
	movs	r0, #2
	.loc	2 566 29 is_stmt 0              @ rt-thread/components/finsh/shell.c:566:29
	strb.w	r0, [r1, #32]
	.loc	2 567 17 is_stmt 1              @ rt-thread/components/finsh/shell.c:567:17
	b	.LBB7_1
.Ltmp74:
.LBB7_8:                                @   in Loop: Header=BB7_1 Depth=1
	.loc	2 570 13                        @ rt-thread/components/finsh/shell.c:570:13
	movw	r0, :lower16:shell
	movt	r0, :upper16:shell
	ldr	r1, [r0]
	movs	r0, #0
	.loc	2 570 25 is_stmt 0              @ rt-thread/components/finsh/shell.c:570:25
	strb.w	r0, [r1, #32]
	.loc	2 571 9 is_stmt 1               @ rt-thread/components/finsh/shell.c:571:9
	b	.LBB7_36
.Ltmp75:
.LBB7_9:                                @   in Loop: Header=BB7_1 Depth=1
	.loc	2 572 18                        @ rt-thread/components/finsh/shell.c:572:18
	movw	r0, :lower16:shell
	movt	r0, :upper16:shell
	ldr	r0, [r0]
	.loc	2 572 25 is_stmt 0              @ rt-thread/components/finsh/shell.c:572:25
	ldrb.w	r0, [r0, #32]
.Ltmp76:
	.loc	2 572 18                        @ rt-thread/components/finsh/shell.c:572:18
	cmp	r0, #2
	bne.w	.LBB7_35
	b	.LBB7_10
.LBB7_10:                               @   in Loop: Header=BB7_1 Depth=1
.Ltmp77:
	.loc	2 574 13 is_stmt 1              @ rt-thread/components/finsh/shell.c:574:13
	movw	r0, :lower16:shell
	movt	r0, :upper16:shell
	ldr	r1, [r0]
	movs	r0, #0
	.loc	2 574 25 is_stmt 0              @ rt-thread/components/finsh/shell.c:574:25
	strb.w	r0, [r1, #32]
.Ltmp78:
	.loc	2 576 17 is_stmt 1              @ rt-thread/components/finsh/shell.c:576:17
	ldr	r0, [sp, #40]
.Ltmp79:
	.loc	2 576 17 is_stmt 0              @ rt-thread/components/finsh/shell.c:576:17
	cmp	r0, #65
	bne	.LBB7_15
	b	.LBB7_11
.LBB7_11:                               @   in Loop: Header=BB7_1 Depth=1
.Ltmp80:
	.loc	2 580 21 is_stmt 1              @ rt-thread/components/finsh/shell.c:580:21
	movw	r0, :lower16:shell
	movt	r0, :upper16:shell
	ldr	r0, [r0]
	.loc	2 580 28 is_stmt 0              @ rt-thread/components/finsh/shell.c:580:28
	ldrh	r0, [r0, #34]
.Ltmp81:
	.loc	2 580 21                        @ rt-thread/components/finsh/shell.c:580:21
	cmp	r0, #1
	blt	.LBB7_13
	b	.LBB7_12
.LBB7_12:                               @   in Loop: Header=BB7_1 Depth=1
.Ltmp82:
	.loc	2 581 21 is_stmt 1              @ rt-thread/components/finsh/shell.c:581:21
	movw	r0, :lower16:shell
	movt	r0, :upper16:shell
	ldr	r1, [r0]
	.loc	2 581 44 is_stmt 0              @ rt-thread/components/finsh/shell.c:581:44
	ldrh	r0, [r1, #34]
	subs	r0, #1
	strh	r0, [r1, #34]
	.loc	2 581 21                        @ rt-thread/components/finsh/shell.c:581:21
	b	.LBB7_14
.LBB7_13:                               @   in Loop: Header=BB7_1 Depth=1
.Ltmp83:
	.loc	2 584 21 is_stmt 1              @ rt-thread/components/finsh/shell.c:584:21
	movw	r0, :lower16:shell
	movt	r0, :upper16:shell
	ldr	r1, [r0]
	movs	r0, #0
	.loc	2 584 44 is_stmt 0              @ rt-thread/components/finsh/shell.c:584:44
	strh	r0, [r1, #34]
	.loc	2 585 21 is_stmt 1              @ rt-thread/components/finsh/shell.c:585:21
	b	.LBB7_1
.Ltmp84:
.LBB7_14:                               @   in Loop: Header=BB7_1 Depth=1
	.loc	2 589 24                        @ rt-thread/components/finsh/shell.c:589:24
	movw	r0, :lower16:shell
	movt	r0, :upper16:shell
	str	r0, [sp, #24]                   @ 4-byte Spill
	ldr	r1, [r0]
	.loc	2 589 31 is_stmt 0              @ rt-thread/components/finsh/shell.c:589:31
	add.w	r0, r1, #596
	.loc	2 589 64                        @ rt-thread/components/finsh/shell.c:589:64
	ldrh	r2, [r1, #34]
	.loc	2 589 38                        @ rt-thread/components/finsh/shell.c:589:38
	add.w	r2, r2, r2, lsl #2
	.loc	2 589 45                        @ rt-thread/components/finsh/shell.c:589:45
	add.w	r1, r1, r2, lsl #4
	.loc	2 589 38                        @ rt-thread/components/finsh/shell.c:589:38
	adds	r1, #38
	movs	r2, #80
	.loc	2 589 17                        @ rt-thread/components/finsh/shell.c:589:17
	bl	__aeabi_memcpy
                                        @ kill: def $r1 killed $r0
	.loc	2 591 68 is_stmt 1              @ rt-thread/components/finsh/shell.c:591:68
	ldr	r0, [sp, #24]                   @ 4-byte Reload
	ldr	r0, [r0]
	.loc	2 591 75 is_stmt 0              @ rt-thread/components/finsh/shell.c:591:75
	add.w	r0, r0, #596
	.loc	2 591 61                        @ rt-thread/components/finsh/shell.c:591:61
	bl	strlen
	mov	r1, r0
	.loc	2 591 38                        @ rt-thread/components/finsh/shell.c:591:38
	ldr	r0, [sp, #24]                   @ 4-byte Reload
	ldr	r2, [r0]
	.loc	2 591 59                        @ rt-thread/components/finsh/shell.c:591:59
	strh.w	r1, [r2, #676]
	.loc	2 591 17                        @ rt-thread/components/finsh/shell.c:591:17
	ldr	r2, [r0]
	.loc	2 591 36                        @ rt-thread/components/finsh/shell.c:591:36
	strh.w	r1, [r2, #678]
	.loc	2 592 38 is_stmt 1              @ rt-thread/components/finsh/shell.c:592:38
	ldr	r0, [r0]
	.loc	2 592 17 is_stmt 0              @ rt-thread/components/finsh/shell.c:592:17
	bl	shell_handle_history
	.loc	2 594 17 is_stmt 1              @ rt-thread/components/finsh/shell.c:594:17
	b	.LBB7_1
.Ltmp85:
.LBB7_15:                               @   in Loop: Header=BB7_1 Depth=1
	.loc	2 596 22                        @ rt-thread/components/finsh/shell.c:596:22
	ldr	r0, [sp, #40]
.Ltmp86:
	.loc	2 596 22 is_stmt 0              @ rt-thread/components/finsh/shell.c:596:22
	cmp	r0, #66
	bne	.LBB7_23
	b	.LBB7_16
.LBB7_16:                               @   in Loop: Header=BB7_1 Depth=1
.Ltmp87:
	.loc	2 600 21 is_stmt 1              @ rt-thread/components/finsh/shell.c:600:21
	movw	r0, :lower16:shell
	movt	r0, :upper16:shell
	ldr	r1, [r0]
	.loc	2 600 28 is_stmt 0              @ rt-thread/components/finsh/shell.c:600:28
	ldrh	r0, [r1, #34]
	.loc	2 600 53                        @ rt-thread/components/finsh/shell.c:600:53
	ldrh	r1, [r1, #36]
	.loc	2 600 67                        @ rt-thread/components/finsh/shell.c:600:67
	subs	r1, #1
.Ltmp88:
	.loc	2 600 21                        @ rt-thread/components/finsh/shell.c:600:21
	cmp	r0, r1
	bge	.LBB7_18
	b	.LBB7_17
.LBB7_17:                               @   in Loop: Header=BB7_1 Depth=1
.Ltmp89:
	.loc	2 601 21 is_stmt 1              @ rt-thread/components/finsh/shell.c:601:21
	movw	r0, :lower16:shell
	movt	r0, :upper16:shell
	ldr	r1, [r0]
	.loc	2 601 44 is_stmt 0              @ rt-thread/components/finsh/shell.c:601:44
	ldrh	r0, [r1, #34]
	adds	r0, #1
	strh	r0, [r1, #34]
	.loc	2 601 21                        @ rt-thread/components/finsh/shell.c:601:21
	b	.LBB7_22
.LBB7_18:                               @   in Loop: Header=BB7_1 Depth=1
.Ltmp90:
	.loc	2 605 25 is_stmt 1              @ rt-thread/components/finsh/shell.c:605:25
	movw	r0, :lower16:shell
	movt	r0, :upper16:shell
	ldr	r0, [r0]
	.loc	2 605 32 is_stmt 0              @ rt-thread/components/finsh/shell.c:605:32
	ldrh	r0, [r0, #36]
.Ltmp91:
	.loc	2 605 25                        @ rt-thread/components/finsh/shell.c:605:25
	cbz	r0, .LBB7_20
	b	.LBB7_19
.LBB7_19:                               @   in Loop: Header=BB7_1 Depth=1
.Ltmp92:
	.loc	2 606 50 is_stmt 1              @ rt-thread/components/finsh/shell.c:606:50
	movw	r0, :lower16:shell
	movt	r0, :upper16:shell
	ldr	r1, [r0]
	ldrh	r0, [r1, #36]
	.loc	2 606 71 is_stmt 0              @ rt-thread/components/finsh/shell.c:606:71
	subs	r0, #1
	.loc	2 606 48                        @ rt-thread/components/finsh/shell.c:606:48
	strh	r0, [r1, #34]
	.loc	2 606 25                        @ rt-thread/components/finsh/shell.c:606:25
	b	.LBB7_21
.LBB7_20:                               @   in Loop: Header=BB7_1 Depth=1
	.loc	2 608 25 is_stmt 1              @ rt-thread/components/finsh/shell.c:608:25
	b	.LBB7_1
.Ltmp93:
.LBB7_21:                               @   in Loop: Header=BB7_1 Depth=1
	.loc	2 0 25 is_stmt 0                @ rt-thread/components/finsh/shell.c:0:25
	b	.LBB7_22
.LBB7_22:                               @   in Loop: Header=BB7_1 Depth=1
	.loc	2 611 24 is_stmt 1              @ rt-thread/components/finsh/shell.c:611:24
	movw	r0, :lower16:shell
	movt	r0, :upper16:shell
	str	r0, [sp, #20]                   @ 4-byte Spill
	ldr	r1, [r0]
	.loc	2 611 31 is_stmt 0              @ rt-thread/components/finsh/shell.c:611:31
	add.w	r0, r1, #596
	.loc	2 611 64                        @ rt-thread/components/finsh/shell.c:611:64
	ldrh	r2, [r1, #34]
	.loc	2 611 38                        @ rt-thread/components/finsh/shell.c:611:38
	add.w	r2, r2, r2, lsl #2
	.loc	2 611 45                        @ rt-thread/components/finsh/shell.c:611:45
	add.w	r1, r1, r2, lsl #4
	.loc	2 611 38                        @ rt-thread/components/finsh/shell.c:611:38
	adds	r1, #38
	movs	r2, #80
	.loc	2 611 17                        @ rt-thread/components/finsh/shell.c:611:17
	bl	__aeabi_memcpy
                                        @ kill: def $r1 killed $r0
	.loc	2 613 68 is_stmt 1              @ rt-thread/components/finsh/shell.c:613:68
	ldr	r0, [sp, #20]                   @ 4-byte Reload
	ldr	r0, [r0]
	.loc	2 613 75 is_stmt 0              @ rt-thread/components/finsh/shell.c:613:75
	add.w	r0, r0, #596
	.loc	2 613 61                        @ rt-thread/components/finsh/shell.c:613:61
	bl	strlen
	mov	r1, r0
	.loc	2 613 38                        @ rt-thread/components/finsh/shell.c:613:38
	ldr	r0, [sp, #20]                   @ 4-byte Reload
	ldr	r2, [r0]
	.loc	2 613 59                        @ rt-thread/components/finsh/shell.c:613:59
	strh.w	r1, [r2, #676]
	.loc	2 613 17                        @ rt-thread/components/finsh/shell.c:613:17
	ldr	r2, [r0]
	.loc	2 613 36                        @ rt-thread/components/finsh/shell.c:613:36
	strh.w	r1, [r2, #678]
	.loc	2 614 38 is_stmt 1              @ rt-thread/components/finsh/shell.c:614:38
	ldr	r0, [r0]
	.loc	2 614 17 is_stmt 0              @ rt-thread/components/finsh/shell.c:614:17
	bl	shell_handle_history
	.loc	2 616 17 is_stmt 1              @ rt-thread/components/finsh/shell.c:616:17
	b	.LBB7_1
.Ltmp94:
.LBB7_23:                               @   in Loop: Header=BB7_1 Depth=1
	.loc	2 618 22                        @ rt-thread/components/finsh/shell.c:618:22
	ldr	r0, [sp, #40]
.Ltmp95:
	.loc	2 618 22 is_stmt 0              @ rt-thread/components/finsh/shell.c:618:22
	cmp	r0, #68
	bne	.LBB7_27
	b	.LBB7_24
.LBB7_24:                               @   in Loop: Header=BB7_1 Depth=1
.Ltmp96:
	.loc	2 620 21 is_stmt 1              @ rt-thread/components/finsh/shell.c:620:21
	movw	r0, :lower16:shell
	movt	r0, :upper16:shell
	ldr	r0, [r0]
	.loc	2 620 28 is_stmt 0              @ rt-thread/components/finsh/shell.c:620:28
	ldrh.w	r0, [r0, #678]
.Ltmp97:
	.loc	2 620 21                        @ rt-thread/components/finsh/shell.c:620:21
	cbz	r0, .LBB7_26
	b	.LBB7_25
.LBB7_25:                               @   in Loop: Header=BB7_1 Depth=1
.Ltmp98:
	.loc	2 622 21 is_stmt 1              @ rt-thread/components/finsh/shell.c:622:21
	movw	r0, :lower16:.L.str.8
	movt	r0, :upper16:.L.str.8
	bl	rt_kprintf
	.loc	2 623 21                        @ rt-thread/components/finsh/shell.c:623:21
	movw	r0, :lower16:shell
	movt	r0, :upper16:shell
	ldr	r1, [r0]
	.loc	2 623 40 is_stmt 0              @ rt-thread/components/finsh/shell.c:623:40
	ldrh.w	r0, [r1, #678]
	subs	r0, #1
	strh.w	r0, [r1, #678]
	.loc	2 624 17 is_stmt 1              @ rt-thread/components/finsh/shell.c:624:17
	b	.LBB7_26
.Ltmp99:
.LBB7_26:                               @   in Loop: Header=BB7_1 Depth=1
	.loc	2 626 17                        @ rt-thread/components/finsh/shell.c:626:17
	b	.LBB7_1
.Ltmp100:
.LBB7_27:                               @   in Loop: Header=BB7_1 Depth=1
	.loc	2 628 22                        @ rt-thread/components/finsh/shell.c:628:22
	ldr	r0, [sp, #40]
.Ltmp101:
	.loc	2 628 22 is_stmt 0              @ rt-thread/components/finsh/shell.c:628:22
	cmp	r0, #67
	bne	.LBB7_31
	b	.LBB7_28
.LBB7_28:                               @   in Loop: Header=BB7_1 Depth=1
.Ltmp102:
	.loc	2 630 21 is_stmt 1              @ rt-thread/components/finsh/shell.c:630:21
	movw	r0, :lower16:shell
	movt	r0, :upper16:shell
	ldr	r1, [r0]
	.loc	2 630 28 is_stmt 0              @ rt-thread/components/finsh/shell.c:630:28
	ldrh.w	r0, [r1, #678]
	.loc	2 630 49                        @ rt-thread/components/finsh/shell.c:630:49
	ldrh.w	r1, [r1, #676]
.Ltmp103:
	.loc	2 630 21                        @ rt-thread/components/finsh/shell.c:630:21
	cmp	r0, r1
	bge	.LBB7_30
	b	.LBB7_29
.LBB7_29:                               @   in Loop: Header=BB7_1 Depth=1
.Ltmp104:
	.loc	2 632 38 is_stmt 1              @ rt-thread/components/finsh/shell.c:632:38
	movw	r0, :lower16:shell
	movt	r0, :upper16:shell
	str	r0, [sp, #16]                   @ 4-byte Spill
	ldr	r0, [r0]
	.loc	2 632 57 is_stmt 0              @ rt-thread/components/finsh/shell.c:632:57
	ldrh.w	r1, [r0, #678]
	.loc	2 632 45                        @ rt-thread/components/finsh/shell.c:632:45
	add	r0, r1
	.loc	2 632 38                        @ rt-thread/components/finsh/shell.c:632:38
	ldrsb.w	r1, [r0, #596]
	.loc	2 632 21                        @ rt-thread/components/finsh/shell.c:632:21
	movw	r0, :lower16:.L.str.9
	movt	r0, :upper16:.L.str.9
	bl	rt_kprintf
	ldr	r0, [sp, #16]                   @ 4-byte Reload
	.loc	2 633 21 is_stmt 1              @ rt-thread/components/finsh/shell.c:633:21
	ldr	r1, [r0]
	.loc	2 633 40 is_stmt 0              @ rt-thread/components/finsh/shell.c:633:40
	ldrh.w	r0, [r1, #678]
	adds	r0, #1
	strh.w	r0, [r1, #678]
	.loc	2 634 17 is_stmt 1              @ rt-thread/components/finsh/shell.c:634:17
	b	.LBB7_30
.Ltmp105:
.LBB7_30:                               @   in Loop: Header=BB7_1 Depth=1
	.loc	2 636 17                        @ rt-thread/components/finsh/shell.c:636:17
	b	.LBB7_1
.Ltmp106:
.LBB7_31:                               @   in Loop: Header=BB7_1 Depth=1
	.loc	2 0 17 is_stmt 0                @ rt-thread/components/finsh/shell.c:0:17
	b	.LBB7_32
.LBB7_32:                               @   in Loop: Header=BB7_1 Depth=1
	b	.LBB7_33
.LBB7_33:                               @   in Loop: Header=BB7_1 Depth=1
	b	.LBB7_34
.LBB7_34:                               @   in Loop: Header=BB7_1 Depth=1
	.loc	2 638 9 is_stmt 1               @ rt-thread/components/finsh/shell.c:638:9
	b	.LBB7_35
.Ltmp107:
.LBB7_35:                               @   in Loop: Header=BB7_1 Depth=1
	.loc	2 0 9 is_stmt 0                 @ rt-thread/components/finsh/shell.c:0:9
	b	.LBB7_36
.LBB7_36:                               @   in Loop: Header=BB7_1 Depth=1
	b	.LBB7_37
.LBB7_37:                               @   in Loop: Header=BB7_1 Depth=1
.Ltmp108:
	.loc	2 641 13 is_stmt 1              @ rt-thread/components/finsh/shell.c:641:13
	ldr	r0, [sp, #40]
	.loc	2 641 24 is_stmt 0              @ rt-thread/components/finsh/shell.c:641:24
	cbz	r0, .LBB7_39
	b	.LBB7_38
.LBB7_38:                               @   in Loop: Header=BB7_1 Depth=1
	.loc	2 641 27                        @ rt-thread/components/finsh/shell.c:641:27
	ldr	r0, [sp, #40]
.Ltmp109:
	.loc	2 641 13                        @ rt-thread/components/finsh/shell.c:641:13
	cmp	r0, #255
	bne	.LBB7_40
	b	.LBB7_39
.LBB7_39:                               @   in Loop: Header=BB7_1 Depth=1
.Ltmp110:
	.loc	2 641 39                        @ rt-thread/components/finsh/shell.c:641:39
	b	.LBB7_1
.LBB7_40:                               @   in Loop: Header=BB7_1 Depth=1
.Ltmp111:
	.loc	2 643 18 is_stmt 1              @ rt-thread/components/finsh/shell.c:643:18
	ldr	r0, [sp, #40]
.Ltmp112:
	.loc	2 643 18 is_stmt 0              @ rt-thread/components/finsh/shell.c:643:18
	cmp	r0, #9
	bne	.LBB7_46
	b	.LBB7_41
.LBB7_41:                               @   in Loop: Header=BB7_1 Depth=1
	.loc	2 0 18                          @ rt-thread/components/finsh/shell.c:0:18
	movs	r0, #0
.Ltmp113:
	.loc	2 647 20 is_stmt 1              @ rt-thread/components/finsh/shell.c:647:20
	str	r0, [sp, #36]
	.loc	2 647 18 is_stmt 0              @ rt-thread/components/finsh/shell.c:647:18
	b	.LBB7_42
.LBB7_42:                               @   Parent Loop BB7_1 Depth=1
                                        @ =>  This Inner Loop Header: Depth=2
.Ltmp114:
	.loc	2 647 25                        @ rt-thread/components/finsh/shell.c:647:25
	ldr	r0, [sp, #36]
	.loc	2 647 29                        @ rt-thread/components/finsh/shell.c:647:29
	movw	r1, :lower16:shell
	movt	r1, :upper16:shell
	ldr	r1, [r1]
	.loc	2 647 36                        @ rt-thread/components/finsh/shell.c:647:36
	ldrh.w	r1, [r1, #678]
.Ltmp115:
	.loc	2 647 13                        @ rt-thread/components/finsh/shell.c:647:13
	cmp	r0, r1
	bge	.LBB7_45
	b	.LBB7_43
.LBB7_43:                               @   in Loop: Header=BB7_42 Depth=2
.Ltmp116:
	.loc	2 648 17 is_stmt 1              @ rt-thread/components/finsh/shell.c:648:17
	movw	r0, :lower16:.L.str.8
	movt	r0, :upper16:.L.str.8
	bl	rt_kprintf
	b	.LBB7_44
.LBB7_44:                               @   in Loop: Header=BB7_42 Depth=2
	.loc	2 647 50                        @ rt-thread/components/finsh/shell.c:647:50
	ldr	r0, [sp, #36]
	adds	r0, #1
	str	r0, [sp, #36]
	.loc	2 647 13 is_stmt 0              @ rt-thread/components/finsh/shell.c:647:13
	b	.LBB7_42
.Ltmp117:
.LBB7_45:                               @   in Loop: Header=BB7_1 Depth=1
	.loc	2 651 34 is_stmt 1              @ rt-thread/components/finsh/shell.c:651:34
	movw	r0, :lower16:shell
	movt	r0, :upper16:shell
	str	r0, [sp, #12]                   @ 4-byte Spill
	ldr	r0, [r0]
	.loc	2 651 41 is_stmt 0              @ rt-thread/components/finsh/shell.c:651:41
	add.w	r0, r0, #596
	.loc	2 651 13                        @ rt-thread/components/finsh/shell.c:651:13
	bl	shell_auto_complete
	ldr	r0, [sp, #12]                   @ 4-byte Reload
	.loc	2 653 64 is_stmt 1              @ rt-thread/components/finsh/shell.c:653:64
	ldr	r0, [r0]
	.loc	2 653 71 is_stmt 0              @ rt-thread/components/finsh/shell.c:653:71
	add.w	r0, r0, #596
	.loc	2 653 57                        @ rt-thread/components/finsh/shell.c:653:57
	bl	strlen
	ldr	r1, [sp, #12]                   @ 4-byte Reload
	.loc	2 653 34                        @ rt-thread/components/finsh/shell.c:653:34
	ldr	r2, [r1]
	.loc	2 653 55                        @ rt-thread/components/finsh/shell.c:653:55
	strh.w	r0, [r2, #676]
	.loc	2 653 13                        @ rt-thread/components/finsh/shell.c:653:13
	ldr	r1, [r1]
	.loc	2 653 32                        @ rt-thread/components/finsh/shell.c:653:32
	strh.w	r0, [r1, #678]
	.loc	2 655 13 is_stmt 1              @ rt-thread/components/finsh/shell.c:655:13
	b	.LBB7_1
.Ltmp118:
.LBB7_46:                               @   in Loop: Header=BB7_1 Depth=1
	.loc	2 658 18                        @ rt-thread/components/finsh/shell.c:658:18
	ldr	r0, [sp, #40]
	.loc	2 658 29 is_stmt 0              @ rt-thread/components/finsh/shell.c:658:29
	cmp	r0, #127
	beq	.LBB7_48
	b	.LBB7_47
.LBB7_47:                               @   in Loop: Header=BB7_1 Depth=1
	.loc	2 658 32                        @ rt-thread/components/finsh/shell.c:658:32
	ldr	r0, [sp, #40]
.Ltmp119:
	.loc	2 658 18                        @ rt-thread/components/finsh/shell.c:658:18
	cmp	r0, #8
	bne	.LBB7_58
	b	.LBB7_48
.LBB7_48:                               @   in Loop: Header=BB7_1 Depth=1
.Ltmp120:
	.loc	2 661 17 is_stmt 1              @ rt-thread/components/finsh/shell.c:661:17
	movw	r0, :lower16:shell
	movt	r0, :upper16:shell
	ldr	r0, [r0]
	.loc	2 661 24 is_stmt 0              @ rt-thread/components/finsh/shell.c:661:24
	ldrh.w	r0, [r0, #678]
.Ltmp121:
	.loc	2 661 17                        @ rt-thread/components/finsh/shell.c:661:17
	cbnz	r0, .LBB7_50
	b	.LBB7_49
.LBB7_49:                               @   in Loop: Header=BB7_1 Depth=1
.Ltmp122:
	.loc	2 662 17 is_stmt 1              @ rt-thread/components/finsh/shell.c:662:17
	b	.LBB7_1
.Ltmp123:
.LBB7_50:                               @   in Loop: Header=BB7_1 Depth=1
	.loc	2 664 13                        @ rt-thread/components/finsh/shell.c:664:13
	movw	r0, :lower16:shell
	movt	r0, :upper16:shell
	ldr	r2, [r0]
	.loc	2 664 33 is_stmt 0              @ rt-thread/components/finsh/shell.c:664:33
	ldrh.w	r1, [r2, #676]
	subs	r1, #1
	strh.w	r1, [r2, #676]
	.loc	2 665 13 is_stmt 1              @ rt-thread/components/finsh/shell.c:665:13
	ldr	r2, [r0]
	.loc	2 665 31 is_stmt 0              @ rt-thread/components/finsh/shell.c:665:31
	ldrh.w	r1, [r2, #678]
	subs	r1, #1
	strh.w	r1, [r2, #678]
.Ltmp124:
	.loc	2 667 17 is_stmt 1              @ rt-thread/components/finsh/shell.c:667:17
	ldr	r1, [r0]
	.loc	2 667 24 is_stmt 0              @ rt-thread/components/finsh/shell.c:667:24
	ldrh.w	r0, [r1, #676]
	.loc	2 667 47                        @ rt-thread/components/finsh/shell.c:667:47
	ldrh.w	r1, [r1, #678]
.Ltmp125:
	.loc	2 667 17                        @ rt-thread/components/finsh/shell.c:667:17
	cmp	r0, r1
	ble	.LBB7_56
	b	.LBB7_51
.LBB7_51:                               @   in Loop: Header=BB7_1 Depth=1
.Ltmp126:
	.loc	2 671 29 is_stmt 1              @ rt-thread/components/finsh/shell.c:671:29
	movw	r0, :lower16:shell
	movt	r0, :upper16:shell
	str	r0, [sp, #8]                    @ 4-byte Spill
	ldr	r2, [r0]
	.loc	2 671 48 is_stmt 0              @ rt-thread/components/finsh/shell.c:671:48
	ldrh.w	r3, [r2, #678]
	.loc	2 671 36                        @ rt-thread/components/finsh/shell.c:671:36
	adds	r1, r2, r3
	.loc	2 671 29                        @ rt-thread/components/finsh/shell.c:671:29
	add.w	r0, r1, #596
	.loc	2 672 29 is_stmt 1              @ rt-thread/components/finsh/shell.c:672:29
	addw	r1, r1, #597
	.loc	2 673 35                        @ rt-thread/components/finsh/shell.c:673:35
	ldrh.w	r2, [r2, #676]
	.loc	2 673 49 is_stmt 0              @ rt-thread/components/finsh/shell.c:673:49
	subs	r2, r2, r3
	.loc	2 671 17 is_stmt 1              @ rt-thread/components/finsh/shell.c:671:17
	bl	rt_memmove
                                        @ kill: def $r1 killed $r0
	.loc	2 674 17                        @ rt-thread/components/finsh/shell.c:674:17
	ldr	r0, [sp, #8]                    @ 4-byte Reload
	ldr	r1, [r0]
	.loc	2 674 36 is_stmt 0              @ rt-thread/components/finsh/shell.c:674:36
	ldrh.w	r2, [r1, #676]
	.loc	2 674 24                        @ rt-thread/components/finsh/shell.c:674:24
	add	r2, r1
	movs	r1, #0
	.loc	2 674 51                        @ rt-thread/components/finsh/shell.c:674:51
	strb.w	r1, [r2, #596]
	.loc	2 676 41 is_stmt 1              @ rt-thread/components/finsh/shell.c:676:41
	ldr	r0, [r0]
	.loc	2 676 60 is_stmt 0              @ rt-thread/components/finsh/shell.c:676:60
	ldrh.w	r1, [r0, #678]
	.loc	2 676 48                        @ rt-thread/components/finsh/shell.c:676:48
	add	r0, r1
	.loc	2 676 41                        @ rt-thread/components/finsh/shell.c:676:41
	add.w	r1, r0, #596
	.loc	2 676 17                        @ rt-thread/components/finsh/shell.c:676:17
	movw	r0, :lower16:.L.str.10
	movt	r0, :upper16:.L.str.10
	bl	rt_kprintf
	ldr	r0, [sp, #8]                    @ 4-byte Reload
.Ltmp127:
	.loc	2 679 26 is_stmt 1              @ rt-thread/components/finsh/shell.c:679:26
	ldr	r0, [r0]
	.loc	2 679 33 is_stmt 0              @ rt-thread/components/finsh/shell.c:679:33
	ldrh.w	r0, [r0, #678]
	.loc	2 679 24                        @ rt-thread/components/finsh/shell.c:679:24
	str	r0, [sp, #32]
	.loc	2 679 22                        @ rt-thread/components/finsh/shell.c:679:22
	b	.LBB7_52
.LBB7_52:                               @   Parent Loop BB7_1 Depth=1
                                        @ =>  This Inner Loop Header: Depth=2
.Ltmp128:
	.loc	2 679 46                        @ rt-thread/components/finsh/shell.c:679:46
	ldr	r0, [sp, #32]
	.loc	2 679 51                        @ rt-thread/components/finsh/shell.c:679:51
	movw	r1, :lower16:shell
	movt	r1, :upper16:shell
	ldr	r1, [r1]
	.loc	2 679 58                        @ rt-thread/components/finsh/shell.c:679:58
	ldrh.w	r1, [r1, #676]
.Ltmp129:
	.loc	2 679 17                        @ rt-thread/components/finsh/shell.c:679:17
	cmp	r0, r1
	bgt	.LBB7_55
	b	.LBB7_53
.LBB7_53:                               @   in Loop: Header=BB7_52 Depth=2
.Ltmp130:
	.loc	2 680 21 is_stmt 1              @ rt-thread/components/finsh/shell.c:680:21
	movw	r0, :lower16:.L.str.8
	movt	r0, :upper16:.L.str.8
	bl	rt_kprintf
	b	.LBB7_54
.LBB7_54:                               @   in Loop: Header=BB7_52 Depth=2
	.loc	2 679 74                        @ rt-thread/components/finsh/shell.c:679:74
	ldr	r0, [sp, #32]
	adds	r0, #1
	str	r0, [sp, #32]
	.loc	2 679 17 is_stmt 0              @ rt-thread/components/finsh/shell.c:679:17
	b	.LBB7_52
.Ltmp131:
.LBB7_55:                               @   in Loop: Header=BB7_1 Depth=1
	.loc	2 681 13 is_stmt 1              @ rt-thread/components/finsh/shell.c:681:13
	b	.LBB7_57
.Ltmp132:
.LBB7_56:                               @   in Loop: Header=BB7_1 Depth=1
	.loc	2 684 17                        @ rt-thread/components/finsh/shell.c:684:17
	movw	r0, :lower16:.L.str.11
	movt	r0, :upper16:.L.str.11
	bl	rt_kprintf
	.loc	2 685 17                        @ rt-thread/components/finsh/shell.c:685:17
	movw	r0, :lower16:shell
	movt	r0, :upper16:shell
	ldr	r0, [r0]
	.loc	2 685 36 is_stmt 0              @ rt-thread/components/finsh/shell.c:685:36
	ldrh.w	r1, [r0, #676]
	.loc	2 685 24                        @ rt-thread/components/finsh/shell.c:685:24
	add	r1, r0
	movs	r0, #0
	.loc	2 685 51                        @ rt-thread/components/finsh/shell.c:685:51
	strb.w	r0, [r1, #596]
	b	.LBB7_57
.Ltmp133:
.LBB7_57:                               @   in Loop: Header=BB7_1 Depth=1
	.loc	2 688 13 is_stmt 1              @ rt-thread/components/finsh/shell.c:688:13
	b	.LBB7_1
.Ltmp134:
.LBB7_58:                               @   in Loop: Header=BB7_1 Depth=1
	.loc	2 0 13 is_stmt 0                @ rt-thread/components/finsh/shell.c:0:13
	b	.LBB7_59
.LBB7_59:                               @   in Loop: Header=BB7_1 Depth=1
	b	.LBB7_60
.LBB7_60:                               @   in Loop: Header=BB7_1 Depth=1
.Ltmp135:
	.loc	2 692 13 is_stmt 1              @ rt-thread/components/finsh/shell.c:692:13
	ldr	r0, [sp, #40]
	.loc	2 692 24 is_stmt 0              @ rt-thread/components/finsh/shell.c:692:24
	cmp	r0, #13
	beq	.LBB7_62
	b	.LBB7_61
.LBB7_61:                               @   in Loop: Header=BB7_1 Depth=1
	.loc	2 692 27                        @ rt-thread/components/finsh/shell.c:692:27
	ldr	r0, [sp, #40]
.Ltmp136:
	.loc	2 692 13                        @ rt-thread/components/finsh/shell.c:692:13
	cmp	r0, #10
	bne	.LBB7_73
	b	.LBB7_62
.LBB7_62:                               @   in Loop: Header=BB7_1 Depth=1
.Ltmp137:
	.loc	2 695 32 is_stmt 1              @ rt-thread/components/finsh/shell.c:695:32
	movw	r0, :lower16:shell
	movt	r0, :upper16:shell
	ldr	r0, [r0]
	.loc	2 695 13 is_stmt 0              @ rt-thread/components/finsh/shell.c:695:13
	bl	shell_push_history
.Ltmp138:
	.loc	2 699 17 is_stmt 1              @ rt-thread/components/finsh/shell.c:699:17
	bl	msh_is_used
.Ltmp139:
	.loc	2 699 17 is_stmt 0              @ rt-thread/components/finsh/shell.c:699:17
	cmp	r0, #1
	bne	.LBB7_66
	b	.LBB7_63
.LBB7_63:                               @   in Loop: Header=BB7_1 Depth=1
.Ltmp140:
	.loc	2 701 21 is_stmt 1              @ rt-thread/components/finsh/shell.c:701:21
	movw	r0, :lower16:shell
	movt	r0, :upper16:shell
	ldr	r0, [r0]
	.loc	2 701 28 is_stmt 0              @ rt-thread/components/finsh/shell.c:701:28
	ldrb.w	r0, [r0, #33]
.Ltmp141:
	.loc	2 701 21                        @ rt-thread/components/finsh/shell.c:701:21
	lsls	r0, r0, #31
	cbz	r0, .LBB7_65
	b	.LBB7_64
.LBB7_64:                               @   in Loop: Header=BB7_1 Depth=1
.Ltmp142:
	.loc	2 702 21 is_stmt 1              @ rt-thread/components/finsh/shell.c:702:21
	movw	r0, :lower16:.L.str.4
	movt	r0, :upper16:.L.str.4
	bl	rt_kprintf
	b	.LBB7_65
.Ltmp143:
.LBB7_65:                               @   in Loop: Header=BB7_1 Depth=1
	.loc	2 703 26                        @ rt-thread/components/finsh/shell.c:703:26
	movw	r0, :lower16:shell
	movt	r0, :upper16:shell
	ldr	r1, [r0]
	.loc	2 703 33 is_stmt 0              @ rt-thread/components/finsh/shell.c:703:33
	add.w	r0, r1, #596
	.loc	2 703 46                        @ rt-thread/components/finsh/shell.c:703:46
	ldrh.w	r1, [r1, #676]
	.loc	2 703 17                        @ rt-thread/components/finsh/shell.c:703:17
	bl	msh_exec
	.loc	2 704 13 is_stmt 1              @ rt-thread/components/finsh/shell.c:704:13
	b	.LBB7_72
.Ltmp144:
.LBB7_66:                               @   in Loop: Header=BB7_1 Depth=1
	.loc	2 710 17                        @ rt-thread/components/finsh/shell.c:710:17
	movw	r0, :lower16:shell
	movt	r0, :upper16:shell
	ldr	r1, [r0]
	.loc	2 710 36 is_stmt 0              @ rt-thread/components/finsh/shell.c:710:36
	ldrh.w	r2, [r1, #676]
	.loc	2 710 24                        @ rt-thread/components/finsh/shell.c:710:24
	add	r2, r1
	movs	r1, #59
	.loc	2 710 51                        @ rt-thread/components/finsh/shell.c:710:51
	strb.w	r1, [r2, #596]
.Ltmp145:
	.loc	2 712 21 is_stmt 1              @ rt-thread/components/finsh/shell.c:712:21
	ldr	r0, [r0]
	.loc	2 712 28 is_stmt 0              @ rt-thread/components/finsh/shell.c:712:28
	ldrh.w	r0, [r0, #676]
.Ltmp146:
	.loc	2 712 21                        @ rt-thread/components/finsh/shell.c:712:21
	cbz	r0, .LBB7_68
	b	.LBB7_67
.LBB7_67:                               @   in Loop: Header=BB7_1 Depth=1
.Ltmp147:
	.loc	2 712 64                        @ rt-thread/components/finsh/shell.c:712:64
	movw	r0, :lower16:shell
	movt	r0, :upper16:shell
	ldr	r1, [r0]
	.loc	2 712 71                        @ rt-thread/components/finsh/shell.c:712:71
	add.w	r0, r1, #440
	.loc	2 712 86                        @ rt-thread/components/finsh/shell.c:712:86
	add.w	r1, r1, #596
	.loc	2 712 48                        @ rt-thread/components/finsh/shell.c:712:48
	bl	finsh_run_line
	b	.LBB7_71
.LBB7_68:                               @   in Loop: Header=BB7_1 Depth=1
.Ltmp148:
	.loc	2 714 25 is_stmt 1              @ rt-thread/components/finsh/shell.c:714:25
	movw	r0, :lower16:shell
	movt	r0, :upper16:shell
	ldr	r0, [r0]
	.loc	2 714 32 is_stmt 0              @ rt-thread/components/finsh/shell.c:714:32
	ldrb.w	r0, [r0, #33]
.Ltmp149:
	.loc	2 714 25                        @ rt-thread/components/finsh/shell.c:714:25
	lsls	r0, r0, #31
	cbz	r0, .LBB7_70
	b	.LBB7_69
.LBB7_69:                               @   in Loop: Header=BB7_1 Depth=1
.Ltmp150:
	.loc	2 714 43                        @ rt-thread/components/finsh/shell.c:714:43
	movw	r0, :lower16:.L.str.4
	movt	r0, :upper16:.L.str.4
	bl	rt_kprintf
	b	.LBB7_70
.Ltmp151:
.LBB7_70:                               @   in Loop: Header=BB7_1 Depth=1
	.loc	2 0 43                          @ rt-thread/components/finsh/shell.c:0:43
	b	.LBB7_71
.LBB7_71:                               @   in Loop: Header=BB7_1 Depth=1
	b	.LBB7_72
.LBB7_72:                               @   in Loop: Header=BB7_1 Depth=1
	.loc	2 718 24 is_stmt 1              @ rt-thread/components/finsh/shell.c:718:24
	bl	finsh_get_prompt
	.loc	2 718 13 is_stmt 0              @ rt-thread/components/finsh/shell.c:718:13
	bl	rt_kprintf
	.loc	2 719 20 is_stmt 1              @ rt-thread/components/finsh/shell.c:719:20
	movw	r0, :lower16:shell
	movt	r0, :upper16:shell
	str	r0, [sp, #4]                    @ 4-byte Spill
	ldr	r0, [r0]
	.loc	2 719 27 is_stmt 0              @ rt-thread/components/finsh/shell.c:719:27
	add.w	r0, r0, #596
	movs	r1, #80
	.loc	2 719 13                        @ rt-thread/components/finsh/shell.c:719:13
	bl	__aeabi_memclr4
	ldr	r1, [sp, #4]                    @ 4-byte Reload
	.loc	2 720 34 is_stmt 1              @ rt-thread/components/finsh/shell.c:720:34
	ldr	r2, [r1]
	movs	r0, #0
	.loc	2 720 55 is_stmt 0              @ rt-thread/components/finsh/shell.c:720:55
	strh.w	r0, [r2, #676]
	.loc	2 720 13                        @ rt-thread/components/finsh/shell.c:720:13
	ldr	r1, [r1]
	.loc	2 720 32                        @ rt-thread/components/finsh/shell.c:720:32
	strh.w	r0, [r1, #678]
	.loc	2 721 13 is_stmt 1              @ rt-thread/components/finsh/shell.c:721:13
	b	.LBB7_1
.Ltmp152:
.LBB7_73:                               @   in Loop: Header=BB7_1 Depth=1
	.loc	2 725 13                        @ rt-thread/components/finsh/shell.c:725:13
	movw	r0, :lower16:shell
	movt	r0, :upper16:shell
	ldr	r0, [r0]
	.loc	2 725 20 is_stmt 0              @ rt-thread/components/finsh/shell.c:725:20
	ldrh.w	r0, [r0, #676]
.Ltmp153:
	.loc	2 725 13                        @ rt-thread/components/finsh/shell.c:725:13
	cmp	r0, #80
	blt	.LBB7_75
	b	.LBB7_74
.LBB7_74:                               @   in Loop: Header=BB7_1 Depth=1
.Ltmp154:
	.loc	2 726 13 is_stmt 1              @ rt-thread/components/finsh/shell.c:726:13
	movw	r0, :lower16:shell
	movt	r0, :upper16:shell
	ldr	r1, [r0]
	movs	r0, #0
	.loc	2 726 34 is_stmt 0              @ rt-thread/components/finsh/shell.c:726:34
	strh.w	r0, [r1, #676]
	.loc	2 726 13                        @ rt-thread/components/finsh/shell.c:726:13
	b	.LBB7_75
.Ltmp155:
.LBB7_75:                               @   in Loop: Header=BB7_1 Depth=1
	.loc	2 729 13 is_stmt 1              @ rt-thread/components/finsh/shell.c:729:13
	movw	r0, :lower16:shell
	movt	r0, :upper16:shell
	ldr	r1, [r0]
	.loc	2 729 20 is_stmt 0              @ rt-thread/components/finsh/shell.c:729:20
	ldrh.w	r0, [r1, #678]
	.loc	2 729 41                        @ rt-thread/components/finsh/shell.c:729:41
	ldrh.w	r1, [r1, #676]
.Ltmp156:
	.loc	2 729 13                        @ rt-thread/components/finsh/shell.c:729:13
	cmp	r0, r1
	bge	.LBB7_83
	b	.LBB7_76
.LBB7_76:                               @   in Loop: Header=BB7_1 Depth=1
.Ltmp157:
	.loc	2 733 25 is_stmt 1              @ rt-thread/components/finsh/shell.c:733:25
	movw	r0, :lower16:shell
	movt	r0, :upper16:shell
	str	r0, [sp]                        @ 4-byte Spill
	ldr	r2, [r0]
	.loc	2 733 44 is_stmt 0              @ rt-thread/components/finsh/shell.c:733:44
	ldrh.w	r3, [r2, #678]
	.loc	2 733 32                        @ rt-thread/components/finsh/shell.c:733:32
	adds	r1, r2, r3
	.loc	2 733 25                        @ rt-thread/components/finsh/shell.c:733:25
	addw	r0, r1, #597
	.loc	2 734 25 is_stmt 1              @ rt-thread/components/finsh/shell.c:734:25
	add.w	r1, r1, #596
	.loc	2 735 31                        @ rt-thread/components/finsh/shell.c:735:31
	ldrh.w	r2, [r2, #676]
	.loc	2 735 45 is_stmt 0              @ rt-thread/components/finsh/shell.c:735:45
	subs	r2, r2, r3
	.loc	2 733 13 is_stmt 1              @ rt-thread/components/finsh/shell.c:733:13
	bl	rt_memmove
                                        @ kill: def $r1 killed $r0
	.loc	2 736 47                        @ rt-thread/components/finsh/shell.c:736:47
	ldr	r0, [sp]                        @ 4-byte Reload
	ldr	r1, [sp, #40]
	.loc	2 736 13 is_stmt 0              @ rt-thread/components/finsh/shell.c:736:13
	ldr	r2, [r0]
	.loc	2 736 32                        @ rt-thread/components/finsh/shell.c:736:32
	ldrh.w	r3, [r2, #678]
	.loc	2 736 20                        @ rt-thread/components/finsh/shell.c:736:20
	add	r2, r3
	.loc	2 736 45                        @ rt-thread/components/finsh/shell.c:736:45
	strb.w	r1, [r2, #596]
.Ltmp158:
	.loc	2 737 17 is_stmt 1              @ rt-thread/components/finsh/shell.c:737:17
	ldr	r0, [r0]
	.loc	2 737 24 is_stmt 0              @ rt-thread/components/finsh/shell.c:737:24
	ldrb.w	r0, [r0, #33]
.Ltmp159:
	.loc	2 737 17                        @ rt-thread/components/finsh/shell.c:737:17
	lsls	r0, r0, #31
	cbz	r0, .LBB7_78
	b	.LBB7_77
.LBB7_77:                               @   in Loop: Header=BB7_1 Depth=1
.Ltmp160:
	.loc	2 738 35 is_stmt 1              @ rt-thread/components/finsh/shell.c:738:35
	movw	r0, :lower16:shell
	movt	r0, :upper16:shell
	ldr	r0, [r0]
	.loc	2 738 54 is_stmt 0              @ rt-thread/components/finsh/shell.c:738:54
	ldrh.w	r1, [r0, #678]
	.loc	2 738 42                        @ rt-thread/components/finsh/shell.c:738:42
	add	r0, r1
	.loc	2 738 35                        @ rt-thread/components/finsh/shell.c:738:35
	add.w	r1, r0, #596
	.loc	2 738 17                        @ rt-thread/components/finsh/shell.c:738:17
	movw	r0, :lower16:.L.str.12
	movt	r0, :upper16:.L.str.12
	bl	rt_kprintf
	b	.LBB7_78
.Ltmp161:
.LBB7_78:                               @   in Loop: Header=BB7_1 Depth=1
	.loc	2 741 22 is_stmt 1              @ rt-thread/components/finsh/shell.c:741:22
	movw	r0, :lower16:shell
	movt	r0, :upper16:shell
	ldr	r0, [r0]
	.loc	2 741 29 is_stmt 0              @ rt-thread/components/finsh/shell.c:741:29
	ldrh.w	r0, [r0, #678]
	.loc	2 741 20                        @ rt-thread/components/finsh/shell.c:741:20
	str	r0, [sp, #28]
	.loc	2 741 18                        @ rt-thread/components/finsh/shell.c:741:18
	b	.LBB7_79
.LBB7_79:                               @   Parent Loop BB7_1 Depth=1
                                        @ =>  This Inner Loop Header: Depth=2
.Ltmp162:
	.loc	2 741 42                        @ rt-thread/components/finsh/shell.c:741:42
	ldr	r0, [sp, #28]
	.loc	2 741 46                        @ rt-thread/components/finsh/shell.c:741:46
	movw	r1, :lower16:shell
	movt	r1, :upper16:shell
	ldr	r1, [r1]
	.loc	2 741 53                        @ rt-thread/components/finsh/shell.c:741:53
	ldrh.w	r1, [r1, #676]
.Ltmp163:
	.loc	2 741 13                        @ rt-thread/components/finsh/shell.c:741:13
	cmp	r0, r1
	bge	.LBB7_82
	b	.LBB7_80
.LBB7_80:                               @   in Loop: Header=BB7_79 Depth=2
.Ltmp164:
	.loc	2 742 17 is_stmt 1              @ rt-thread/components/finsh/shell.c:742:17
	movw	r0, :lower16:.L.str.8
	movt	r0, :upper16:.L.str.8
	bl	rt_kprintf
	b	.LBB7_81
.LBB7_81:                               @   in Loop: Header=BB7_79 Depth=2
	.loc	2 741 69                        @ rt-thread/components/finsh/shell.c:741:69
	ldr	r0, [sp, #28]
	adds	r0, #1
	str	r0, [sp, #28]
	.loc	2 741 13 is_stmt 0              @ rt-thread/components/finsh/shell.c:741:13
	b	.LBB7_79
.Ltmp165:
.LBB7_82:                               @   in Loop: Header=BB7_1 Depth=1
	.loc	2 743 9 is_stmt 1               @ rt-thread/components/finsh/shell.c:743:9
	b	.LBB7_86
.Ltmp166:
.LBB7_83:                               @   in Loop: Header=BB7_1 Depth=1
	.loc	2 746 49                        @ rt-thread/components/finsh/shell.c:746:49
	ldr	r1, [sp, #40]
	.loc	2 746 13 is_stmt 0              @ rt-thread/components/finsh/shell.c:746:13
	movw	r0, :lower16:shell
	movt	r0, :upper16:shell
	ldr	r2, [r0]
	.loc	2 746 32                        @ rt-thread/components/finsh/shell.c:746:32
	ldrh.w	r3, [r2, #676]
	.loc	2 746 20                        @ rt-thread/components/finsh/shell.c:746:20
	add	r2, r3
	.loc	2 746 47                        @ rt-thread/components/finsh/shell.c:746:47
	strb.w	r1, [r2, #596]
.Ltmp167:
	.loc	2 747 17 is_stmt 1              @ rt-thread/components/finsh/shell.c:747:17
	ldr	r0, [r0]
	.loc	2 747 24 is_stmt 0              @ rt-thread/components/finsh/shell.c:747:24
	ldrb.w	r0, [r0, #33]
.Ltmp168:
	.loc	2 747 17                        @ rt-thread/components/finsh/shell.c:747:17
	lsls	r0, r0, #31
	cbz	r0, .LBB7_85
	b	.LBB7_84
.LBB7_84:                               @   in Loop: Header=BB7_1 Depth=1
.Ltmp169:
	.loc	2 748 34 is_stmt 1              @ rt-thread/components/finsh/shell.c:748:34
	ldr	r1, [sp, #40]
	.loc	2 748 17 is_stmt 0              @ rt-thread/components/finsh/shell.c:748:17
	movw	r0, :lower16:.L.str.9
	movt	r0, :upper16:.L.str.9
	bl	rt_kprintf
	b	.LBB7_85
.Ltmp170:
.LBB7_85:                               @   in Loop: Header=BB7_1 Depth=1
	.loc	2 0 17                          @ rt-thread/components/finsh/shell.c:0:17
	b	.LBB7_86
.LBB7_86:                               @   in Loop: Header=BB7_1 Depth=1
	movs	r0, #0
	.loc	2 751 12 is_stmt 1              @ rt-thread/components/finsh/shell.c:751:12
	str	r0, [sp, #40]
	.loc	2 752 9                         @ rt-thread/components/finsh/shell.c:752:9
	movw	r0, :lower16:shell
	movt	r0, :upper16:shell
	ldr	r2, [r0]
	.loc	2 752 30 is_stmt 0              @ rt-thread/components/finsh/shell.c:752:30
	ldrh.w	r1, [r2, #676]
	adds	r1, #1
	strh.w	r1, [r2, #676]
	.loc	2 753 9 is_stmt 1               @ rt-thread/components/finsh/shell.c:753:9
	ldr	r2, [r0]
	.loc	2 753 27 is_stmt 0              @ rt-thread/components/finsh/shell.c:753:27
	ldrh.w	r1, [r2, #678]
	adds	r1, #1
	strh.w	r1, [r2, #678]
.Ltmp171:
	.loc	2 754 13 is_stmt 1              @ rt-thread/components/finsh/shell.c:754:13
	ldr	r0, [r0]
	.loc	2 754 20 is_stmt 0              @ rt-thread/components/finsh/shell.c:754:20
	ldrh.w	r0, [r0, #676]
.Ltmp172:
	.loc	2 754 13                        @ rt-thread/components/finsh/shell.c:754:13
	cmp	r0, #80
	blt	.LBB7_88
	b	.LBB7_87
.LBB7_87:                               @   in Loop: Header=BB7_1 Depth=1
.Ltmp173:
	.loc	2 757 13 is_stmt 1              @ rt-thread/components/finsh/shell.c:757:13
	movw	r1, :lower16:shell
	movt	r1, :upper16:shell
	ldr	r2, [r1]
	movs	r0, #0
	.loc	2 757 34 is_stmt 0              @ rt-thread/components/finsh/shell.c:757:34
	strh.w	r0, [r2, #676]
	.loc	2 758 13 is_stmt 1              @ rt-thread/components/finsh/shell.c:758:13
	ldr	r1, [r1]
	.loc	2 758 32 is_stmt 0              @ rt-thread/components/finsh/shell.c:758:32
	strh.w	r0, [r1, #678]
	.loc	2 759 9 is_stmt 1               @ rt-thread/components/finsh/shell.c:759:9
	b	.LBB7_88
.Ltmp174:
.LBB7_88:                               @   in Loop: Header=BB7_1 Depth=1
	.loc	2 542 5                         @ rt-thread/components/finsh/shell.c:542:5
	b	.LBB7_1
.Ltmp175:
.Lfunc_end7:
	.size	finsh_thread_entry, .Lfunc_end7-finsh_thread_entry
	.cfi_endproc
	.cantunwind
	.fnend
                                        @ -- End function
	.section	.text.finsh_getchar,"ax",%progbits
	.p2align	3                               @ -- Begin function finsh_getchar
	.type	finsh_getchar,%function
	.code	16                              @ @finsh_getchar
	.thumb_func
finsh_getchar:
.Lfunc_begin8:
	.loc	2 168 0                         @ rt-thread/components/finsh/shell.c:168:0
	.fnstart
	.cfi_startproc
@ %bb.0:
	.save	{r7, lr}
	push	{r7, lr}
	.cfi_def_cfa_offset 8
	.cfi_offset lr, -4
	.cfi_offset r7, -8
.Ltmp176:
	.loc	2 171 12 prologue_end           @ rt-thread/components/finsh/shell.c:171:12
	movw	r0, :lower16:__stdin
	movt	r0, :upper16:__stdin
	bl	getc
	.loc	2 171 5 is_stmt 0               @ rt-thread/components/finsh/shell.c:171:5
	pop	{r7, pc}
.Ltmp177:
.Lfunc_end8:
	.size	finsh_getchar, .Lfunc_end8-finsh_getchar
	.cfi_endproc
	.cantunwind
	.fnend
                                        @ -- End function
	.section	.text.shell_handle_history,"ax",%progbits
	.p2align	3                               @ -- Begin function shell_handle_history
	.type	shell_handle_history,%function
	.code	16                              @ @shell_handle_history
	.thumb_func
shell_handle_history:
.Lfunc_begin9:
	.loc	2 442 0 is_stmt 1               @ rt-thread/components/finsh/shell.c:442:0
	.fnstart
	.cfi_startproc
@ %bb.0:
	.save	{r7, lr}
	push	{r7, lr}
	.cfi_def_cfa_offset 8
	.cfi_offset lr, -4
	.cfi_offset r7, -8
	.pad	#8
	sub	sp, #8
	.cfi_def_cfa_offset 16
	str	r0, [sp, #4]
.Ltmp178:
	.loc	2 452 5 prologue_end            @ rt-thread/components/finsh/shell.c:452:5
	movw	r0, :lower16:.L.str.16
	movt	r0, :upper16:.L.str.16
	bl	rt_kprintf
	.loc	2 454 24                        @ rt-thread/components/finsh/shell.c:454:24
	bl	finsh_get_prompt
	mov	r1, r0
	.loc	2 454 38 is_stmt 0              @ rt-thread/components/finsh/shell.c:454:38
	ldr	r0, [sp, #4]
	.loc	2 454 45                        @ rt-thread/components/finsh/shell.c:454:45
	add.w	r2, r0, #596
	.loc	2 454 5                         @ rt-thread/components/finsh/shell.c:454:5
	movw	r0, :lower16:.L.str.17
	movt	r0, :upper16:.L.str.17
	bl	rt_kprintf
	movs	r0, #0
	.loc	2 455 5 is_stmt 1               @ rt-thread/components/finsh/shell.c:455:5
	add	sp, #8
	pop	{r7, pc}
.Ltmp179:
.Lfunc_end9:
	.size	shell_handle_history, .Lfunc_end9-shell_handle_history
	.cfi_endproc
	.cantunwind
	.fnend
                                        @ -- End function
	.section	.text.shell_auto_complete,"ax",%progbits
	.p2align	3                               @ -- Begin function shell_auto_complete
	.type	shell_auto_complete,%function
	.code	16                              @ @shell_auto_complete
	.thumb_func
shell_auto_complete:
.Lfunc_begin10:
	.loc	2 374 0                         @ rt-thread/components/finsh/shell.c:374:0
	.fnstart
	.cfi_startproc
@ %bb.0:
	.save	{r7, lr}
	push	{r7, lr}
	.cfi_def_cfa_offset 8
	.cfi_offset lr, -4
	.cfi_offset r7, -8
	.pad	#8
	sub	sp, #8
	.cfi_def_cfa_offset 16
	str	r0, [sp, #4]
.Ltmp180:
	.loc	2 376 5 prologue_end            @ rt-thread/components/finsh/shell.c:376:5
	movw	r0, :lower16:.L.str.4
	movt	r0, :upper16:.L.str.4
	bl	rt_kprintf
.Ltmp181:
	.loc	2 378 9                         @ rt-thread/components/finsh/shell.c:378:9
	bl	msh_is_used
.Ltmp182:
	.loc	2 378 9 is_stmt 0               @ rt-thread/components/finsh/shell.c:378:9
	cmp	r0, #1
	bne	.LBB10_2
	b	.LBB10_1
.LBB10_1:
.Ltmp183:
	.loc	2 380 27 is_stmt 1              @ rt-thread/components/finsh/shell.c:380:27
	ldr	r0, [sp, #4]
	.loc	2 380 9 is_stmt 0               @ rt-thread/components/finsh/shell.c:380:9
	bl	msh_auto_complete
	.loc	2 381 5 is_stmt 1               @ rt-thread/components/finsh/shell.c:381:5
	b	.LBB10_3
.Ltmp184:
.LBB10_2:
	.loc	2 387 21                        @ rt-thread/components/finsh/shell.c:387:21
	ldr	r0, [sp, #4]
	.loc	2 387 9 is_stmt 0               @ rt-thread/components/finsh/shell.c:387:9
	bl	list_prefix
	b	.LBB10_3
.Ltmp185:
.LBB10_3:
	.loc	2 391 24 is_stmt 1              @ rt-thread/components/finsh/shell.c:391:24
	bl	finsh_get_prompt
	mov	r1, r0
	.loc	2 391 38 is_stmt 0              @ rt-thread/components/finsh/shell.c:391:38
	ldr	r2, [sp, #4]
	.loc	2 391 5                         @ rt-thread/components/finsh/shell.c:391:5
	movw	r0, :lower16:.L.str.17
	movt	r0, :upper16:.L.str.17
	bl	rt_kprintf
	.loc	2 392 1 is_stmt 1               @ rt-thread/components/finsh/shell.c:392:1
	add	sp, #8
	pop	{r7, pc}
.Ltmp186:
.Lfunc_end10:
	.size	shell_auto_complete, .Lfunc_end10-shell_auto_complete
	.cfi_endproc
	.cantunwind
	.fnend
                                        @ -- End function
	.section	.text.shell_push_history,"ax",%progbits
	.p2align	3                               @ -- Begin function shell_push_history
	.type	shell_push_history,%function
	.code	16                              @ @shell_push_history
	.thumb_func
shell_push_history:
.Lfunc_begin11:
	.loc	2 459 0                         @ rt-thread/components/finsh/shell.c:459:0
	.fnstart
	.cfi_startproc
@ %bb.0:
	.save	{r7, lr}
	push	{r7, lr}
	.cfi_def_cfa_offset 8
	.cfi_offset lr, -4
	.cfi_offset r7, -8
	.pad	#8
	sub	sp, #8
	.cfi_def_cfa_offset 16
	str	r0, [sp, #4]
.Ltmp187:
	.loc	2 460 9 prologue_end            @ rt-thread/components/finsh/shell.c:460:9
	ldr	r0, [sp, #4]
	.loc	2 460 16 is_stmt 0              @ rt-thread/components/finsh/shell.c:460:16
	ldrh.w	r0, [r0, #676]
.Ltmp188:
	.loc	2 460 9                         @ rt-thread/components/finsh/shell.c:460:9
	cmp	r0, #0
	beq	.LBB11_14
	b	.LBB11_1
.LBB11_1:
.Ltmp189:
	.loc	2 463 13 is_stmt 1              @ rt-thread/components/finsh/shell.c:463:13
	ldr	r0, [sp, #4]
	.loc	2 463 20 is_stmt 0              @ rt-thread/components/finsh/shell.c:463:20
	ldrh	r0, [r0, #36]
.Ltmp190:
	.loc	2 463 13                        @ rt-thread/components/finsh/shell.c:463:13
	cmp	r0, #5
	blt	.LBB11_9
	b	.LBB11_2
.LBB11_2:
.Ltmp191:
	.loc	2 466 25 is_stmt 1              @ rt-thread/components/finsh/shell.c:466:25
	ldr	r1, [sp, #4]
	add.w	r0, r1, #358
	.loc	2 466 77 is_stmt 0              @ rt-thread/components/finsh/shell.c:466:77
	add.w	r1, r1, #596
	movs	r2, #80
	.loc	2 466 17                        @ rt-thread/components/finsh/shell.c:466:17
	bl	memcmp
.Ltmp192:
	.loc	2 466 17                        @ rt-thread/components/finsh/shell.c:466:17
	cbz	r0, .LBB11_8
	b	.LBB11_3
.LBB11_3:
	.loc	2 0 17                          @ rt-thread/components/finsh/shell.c:0:17
	movs	r0, #0
.Ltmp193:
	.loc	2 470 28 is_stmt 1              @ rt-thread/components/finsh/shell.c:470:28
	str	r0, [sp]
	.loc	2 470 22 is_stmt 0              @ rt-thread/components/finsh/shell.c:470:22
	b	.LBB11_4
.LBB11_4:                               @ =>This Inner Loop Header: Depth=1
.Ltmp194:
	.loc	2 470 33                        @ rt-thread/components/finsh/shell.c:470:33
	ldr	r0, [sp]
.Ltmp195:
	.loc	2 470 17                        @ rt-thread/components/finsh/shell.c:470:17
	cmp	r0, #3
	bgt	.LBB11_7
	b	.LBB11_5
.LBB11_5:                               @   in Loop: Header=BB11_4 Depth=1
.Ltmp196:
	.loc	2 472 29 is_stmt 1              @ rt-thread/components/finsh/shell.c:472:29
	ldr	r0, [sp, #4]
	.loc	2 472 48 is_stmt 0              @ rt-thread/components/finsh/shell.c:472:48
	ldr	r1, [sp]
	.loc	2 472 29                        @ rt-thread/components/finsh/shell.c:472:29
	add.w	r1, r1, r1, lsl #2
	.loc	2 472 36                        @ rt-thread/components/finsh/shell.c:472:36
	add.w	r1, r0, r1, lsl #4
	.loc	2 472 29                        @ rt-thread/components/finsh/shell.c:472:29
	add.w	r0, r1, #38
	.loc	2 473 29 is_stmt 1              @ rt-thread/components/finsh/shell.c:473:29
	adds	r1, #118
	movs	r2, #80
	.loc	2 472 21                        @ rt-thread/components/finsh/shell.c:472:21
	bl	__aeabi_memcpy
	.loc	2 474 17                        @ rt-thread/components/finsh/shell.c:474:17
	b	.LBB11_6
.Ltmp197:
.LBB11_6:                               @   in Loop: Header=BB11_4 Depth=1
	.loc	2 470 72                        @ rt-thread/components/finsh/shell.c:470:72
	ldr	r0, [sp]
	adds	r0, #1
	str	r0, [sp]
	.loc	2 470 17 is_stmt 0              @ rt-thread/components/finsh/shell.c:470:17
	b	.LBB11_4
.Ltmp198:
.LBB11_7:
	.loc	2 475 25 is_stmt 1              @ rt-thread/components/finsh/shell.c:475:25
	ldr	r0, [sp, #4]
	.loc	2 475 44 is_stmt 0              @ rt-thread/components/finsh/shell.c:475:44
	ldr	r1, [sp]
	.loc	2 475 25                        @ rt-thread/components/finsh/shell.c:475:25
	add.w	r1, r1, r1, lsl #2
	.loc	2 475 32                        @ rt-thread/components/finsh/shell.c:475:32
	add.w	r0, r0, r1, lsl #4
	.loc	2 475 25                        @ rt-thread/components/finsh/shell.c:475:25
	adds	r0, #38
	movs	r1, #80
	.loc	2 475 17                        @ rt-thread/components/finsh/shell.c:475:17
	bl	__aeabi_memclr
	.loc	2 476 25 is_stmt 1              @ rt-thread/components/finsh/shell.c:476:25
	ldr	r2, [sp, #4]
	.loc	2 476 44 is_stmt 0              @ rt-thread/components/finsh/shell.c:476:44
	ldr	r0, [sp]
	.loc	2 476 25                        @ rt-thread/components/finsh/shell.c:476:25
	add.w	r0, r0, r0, lsl #2
	.loc	2 476 32                        @ rt-thread/components/finsh/shell.c:476:32
	add.w	r0, r2, r0, lsl #4
	.loc	2 476 25                        @ rt-thread/components/finsh/shell.c:476:25
	adds	r0, #38
	.loc	2 476 62                        @ rt-thread/components/finsh/shell.c:476:62
	add.w	r1, r2, #596
	.loc	2 476 75                        @ rt-thread/components/finsh/shell.c:476:75
	ldrh.w	r2, [r2, #676]
	.loc	2 476 17                        @ rt-thread/components/finsh/shell.c:476:17
	bl	__aeabi_memcpy
	.loc	2 479 17 is_stmt 1              @ rt-thread/components/finsh/shell.c:479:17
	ldr	r1, [sp, #4]
	movs	r0, #5
	.loc	2 479 38 is_stmt 0              @ rt-thread/components/finsh/shell.c:479:38
	strh	r0, [r1, #36]
	.loc	2 480 13 is_stmt 1              @ rt-thread/components/finsh/shell.c:480:13
	b	.LBB11_8
.Ltmp199:
.LBB11_8:
	.loc	2 481 9                         @ rt-thread/components/finsh/shell.c:481:9
	b	.LBB11_13
.Ltmp200:
.LBB11_9:
	.loc	2 485 17                        @ rt-thread/components/finsh/shell.c:485:17
	ldr	r0, [sp, #4]
	.loc	2 485 24 is_stmt 0              @ rt-thread/components/finsh/shell.c:485:24
	ldrh	r0, [r0, #36]
	.loc	2 485 43                        @ rt-thread/components/finsh/shell.c:485:43
	cbz	r0, .LBB11_11
	b	.LBB11_10
.LBB11_10:
	.loc	2 485 54                        @ rt-thread/components/finsh/shell.c:485:54
	ldr	r1, [sp, #4]
	.loc	2 485 80                        @ rt-thread/components/finsh/shell.c:485:80
	ldrh	r0, [r1, #36]
	.loc	2 485 94                        @ rt-thread/components/finsh/shell.c:485:94
	add.w	r0, r0, r0, lsl #2
	.loc	2 485 54                        @ rt-thread/components/finsh/shell.c:485:54
	add.w	r0, r1, r0, lsl #4
	subs	r0, #42
	.loc	2 485 107                       @ rt-thread/components/finsh/shell.c:485:107
	add.w	r1, r1, #596
	movs	r2, #80
	.loc	2 485 46                        @ rt-thread/components/finsh/shell.c:485:46
	bl	memcmp
.Ltmp201:
	.loc	2 485 17                        @ rt-thread/components/finsh/shell.c:485:17
	cbz	r0, .LBB11_12
	b	.LBB11_11
.LBB11_11:
.Ltmp202:
	.loc	2 487 42 is_stmt 1              @ rt-thread/components/finsh/shell.c:487:42
	ldr	r1, [sp, #4]
	.loc	2 487 49 is_stmt 0              @ rt-thread/components/finsh/shell.c:487:49
	ldrh	r0, [r1, #36]
	.loc	2 487 40                        @ rt-thread/components/finsh/shell.c:487:40
	strh	r0, [r1, #34]
	.loc	2 488 25 is_stmt 1              @ rt-thread/components/finsh/shell.c:488:25
	ldr	r0, [sp, #4]
	.loc	2 488 51 is_stmt 0              @ rt-thread/components/finsh/shell.c:488:51
	ldrh	r1, [r0, #36]
	.loc	2 488 25                        @ rt-thread/components/finsh/shell.c:488:25
	add.w	r1, r1, r1, lsl #2
	.loc	2 488 32                        @ rt-thread/components/finsh/shell.c:488:32
	add.w	r0, r0, r1, lsl #4
	.loc	2 488 25                        @ rt-thread/components/finsh/shell.c:488:25
	adds	r0, #38
	movs	r1, #80
	.loc	2 488 17                        @ rt-thread/components/finsh/shell.c:488:17
	bl	__aeabi_memclr
	.loc	2 489 25 is_stmt 1              @ rt-thread/components/finsh/shell.c:489:25
	ldr	r2, [sp, #4]
	.loc	2 489 51 is_stmt 0              @ rt-thread/components/finsh/shell.c:489:51
	ldrh	r0, [r2, #36]
	.loc	2 489 25                        @ rt-thread/components/finsh/shell.c:489:25
	add.w	r0, r0, r0, lsl #2
	.loc	2 489 32                        @ rt-thread/components/finsh/shell.c:489:32
	add.w	r0, r2, r0, lsl #4
	.loc	2 489 25                        @ rt-thread/components/finsh/shell.c:489:25
	adds	r0, #38
	.loc	2 489 77                        @ rt-thread/components/finsh/shell.c:489:77
	add.w	r1, r2, #596
	.loc	2 489 90                        @ rt-thread/components/finsh/shell.c:489:90
	ldrh.w	r2, [r2, #676]
	.loc	2 489 17                        @ rt-thread/components/finsh/shell.c:489:17
	bl	__aeabi_memcpy
	.loc	2 492 17 is_stmt 1              @ rt-thread/components/finsh/shell.c:492:17
	ldr	r1, [sp, #4]
	.loc	2 492 38 is_stmt 0              @ rt-thread/components/finsh/shell.c:492:38
	ldrh	r0, [r1, #36]
	adds	r0, #1
	strh	r0, [r1, #36]
	.loc	2 493 13 is_stmt 1              @ rt-thread/components/finsh/shell.c:493:13
	b	.LBB11_12
.Ltmp203:
.LBB11_12:
	.loc	2 0 13 is_stmt 0                @ rt-thread/components/finsh/shell.c:0:13
	b	.LBB11_13
.LBB11_13:
	.loc	2 495 5 is_stmt 1               @ rt-thread/components/finsh/shell.c:495:5
	b	.LBB11_14
.Ltmp204:
.LBB11_14:
	.loc	2 496 30                        @ rt-thread/components/finsh/shell.c:496:30
	ldr	r1, [sp, #4]
	.loc	2 496 37 is_stmt 0              @ rt-thread/components/finsh/shell.c:496:37
	ldrh	r0, [r1, #36]
	.loc	2 496 28                        @ rt-thread/components/finsh/shell.c:496:28
	strh	r0, [r1, #34]
	.loc	2 497 1 is_stmt 1               @ rt-thread/components/finsh/shell.c:497:1
	add	sp, #8
	pop	{r7, pc}
.Ltmp205:
.Lfunc_end11:
	.size	shell_push_history, .Lfunc_end11-shell_push_history
	.cfi_endproc
	.cantunwind
	.fnend
                                        @ -- End function
	.section	.text.finsh_system_function_init,"ax",%progbits
	.hidden	finsh_system_function_init      @ -- Begin function finsh_system_function_init
	.globl	finsh_system_function_init
	.p2align	3
	.type	finsh_system_function_init,%function
	.code	16                              @ @finsh_system_function_init
	.thumb_func
finsh_system_function_init:
.Lfunc_begin12:
	.loc	2 764 0                         @ rt-thread/components/finsh/shell.c:764:0
	.fnstart
	.cfi_startproc
@ %bb.0:
	.pad	#8
	sub	sp, #8
	.cfi_def_cfa_offset 8
	str	r0, [sp, #4]
	str	r1, [sp]
.Ltmp206:
	.loc	2 765 53 prologue_end           @ rt-thread/components/finsh/shell.c:765:53
	ldr	r0, [sp, #4]
	.loc	2 765 26 is_stmt 0              @ rt-thread/components/finsh/shell.c:765:26
	movw	r1, :lower16:_syscall_table_begin
	movt	r1, :upper16:_syscall_table_begin
	str	r0, [r1]
	.loc	2 766 51 is_stmt 1              @ rt-thread/components/finsh/shell.c:766:51
	ldr	r0, [sp]
	.loc	2 766 24 is_stmt 0              @ rt-thread/components/finsh/shell.c:766:24
	movw	r1, :lower16:_syscall_table_end
	movt	r1, :upper16:_syscall_table_end
	str	r0, [r1]
	.loc	2 767 1 is_stmt 1               @ rt-thread/components/finsh/shell.c:767:1
	add	sp, #8
	bx	lr
.Ltmp207:
.Lfunc_end12:
	.size	finsh_system_function_init, .Lfunc_end12-finsh_system_function_init
	.cfi_endproc
	.cantunwind
	.fnend
                                        @ -- End function
	.section	.text.finsh_system_var_init,"ax",%progbits
	.hidden	finsh_system_var_init           @ -- Begin function finsh_system_var_init
	.globl	finsh_system_var_init
	.p2align	3
	.type	finsh_system_var_init,%function
	.code	16                              @ @finsh_system_var_init
	.thumb_func
finsh_system_var_init:
.Lfunc_begin13:
	.loc	2 770 0                         @ rt-thread/components/finsh/shell.c:770:0
	.fnstart
	.cfi_startproc
@ %bb.0:
	.pad	#8
	sub	sp, #8
	.cfi_def_cfa_offset 8
	str	r0, [sp, #4]
	str	r1, [sp]
.Ltmp208:
	.loc	2 771 51 prologue_end           @ rt-thread/components/finsh/shell.c:771:51
	ldr	r0, [sp, #4]
	.loc	2 771 25 is_stmt 0              @ rt-thread/components/finsh/shell.c:771:25
	movw	r1, :lower16:_sysvar_table_begin
	movt	r1, :upper16:_sysvar_table_begin
	str	r0, [r1]
	.loc	2 772 49 is_stmt 1              @ rt-thread/components/finsh/shell.c:772:49
	ldr	r0, [sp]
	.loc	2 772 23 is_stmt 0              @ rt-thread/components/finsh/shell.c:772:23
	movw	r1, :lower16:_sysvar_table_end
	movt	r1, :upper16:_sysvar_table_end
	str	r0, [r1]
	.loc	2 773 1 is_stmt 1               @ rt-thread/components/finsh/shell.c:773:1
	add	sp, #8
	bx	lr
.Ltmp209:
.Lfunc_end13:
	.size	finsh_system_var_init, .Lfunc_end13-finsh_system_var_init
	.cfi_endproc
	.cantunwind
	.fnend
                                        @ -- End function
	.section	.text.finsh_system_init,"ax",%progbits
	.hidden	finsh_system_init               @ -- Begin function finsh_system_init
	.globl	finsh_system_init
	.p2align	3
	.type	finsh_system_init,%function
	.code	16                              @ @finsh_system_init
	.thumb_func
finsh_system_init:
.Lfunc_begin14:
	.loc	2 815 0                         @ rt-thread/components/finsh/shell.c:815:0
	.fnstart
	.cfi_startproc
@ %bb.0:
	.save	{r7, lr}
	push	{r7, lr}
	.cfi_def_cfa_offset 8
	.cfi_offset lr, -4
	.cfi_offset r7, -8
	.pad	#24
	sub	sp, #24
	.cfi_def_cfa_offset 32
	movs	r0, #0
.Ltmp210:
	.loc	2 816 14 prologue_end           @ rt-thread/components/finsh/shell.c:816:14
	str	r0, [sp, #16]
	.loc	2 825 5                         @ rt-thread/components/finsh/shell.c:825:5
	movw	r0, :lower16:FSymTab$$Base
	movt	r0, :upper16:FSymTab$$Base
	movw	r1, :lower16:FSymTab$$Limit
	movt	r1, :upper16:FSymTab$$Limit
	bl	finsh_system_function_init
	.loc	2 827 5                         @ rt-thread/components/finsh/shell.c:827:5
	movw	r0, :lower16:VSymTab$$Base
	movt	r0, :upper16:VSymTab$$Base
	movw	r1, :lower16:VSymTab$$Limit
	movt	r1, :upper16:VSymTab$$Limit
	bl	finsh_system_var_init
	movs	r0, #1
	mov.w	r1, #680
	.loc	2 868 35                        @ rt-thread/components/finsh/shell.c:868:35
	bl	rt_calloc
	mov	r1, r0
	.loc	2 868 11 is_stmt 0              @ rt-thread/components/finsh/shell.c:868:11
	movw	r0, :lower16:shell
	movt	r0, :upper16:shell
	str	r1, [r0]
.Ltmp211:
	.loc	2 869 9 is_stmt 1               @ rt-thread/components/finsh/shell.c:869:9
	ldr	r0, [r0]
.Ltmp212:
	.loc	2 869 9 is_stmt 0               @ rt-thread/components/finsh/shell.c:869:9
	cbnz	r0, .LBB14_2
	b	.LBB14_1
.LBB14_1:
.Ltmp213:
	.loc	2 871 9 is_stmt 1               @ rt-thread/components/finsh/shell.c:871:9
	movw	r0, :lower16:.L.str.13
	movt	r0, :upper16:.L.str.13
	bl	rt_kprintf
	mov.w	r0, #-1
	.loc	2 872 9                         @ rt-thread/components/finsh/shell.c:872:9
	str	r0, [sp, #20]
	b	.LBB14_6
.Ltmp214:
.LBB14_2:
	.loc	2 874 11                        @ rt-thread/components/finsh/shell.c:874:11
	mov	r1, sp
	movs	r0, #10
	str	r0, [r1, #4]
	movs	r0, #20
	str	r0, [r1]
	movw	r0, :lower16:.L.str.14
	movt	r0, :upper16:.L.str.14
	movw	r1, :lower16:finsh_thread_entry
	movt	r1, :upper16:finsh_thread_entry
	movs	r2, #0
	str	r2, [sp, #8]                    @ 4-byte Spill
	mov.w	r3, #4096
	bl	rt_thread_create
	ldr	r3, [sp, #8]                    @ 4-byte Reload
	.loc	2 874 9 is_stmt 0               @ rt-thread/components/finsh/shell.c:874:9
	str	r0, [sp, #12]
	.loc	2 887 19 is_stmt 1              @ rt-thread/components/finsh/shell.c:887:19
	movw	r0, :lower16:shell
	movt	r0, :upper16:shell
	ldr	r0, [r0]
	.loc	2 887 5 is_stmt 0               @ rt-thread/components/finsh/shell.c:887:5
	movw	r1, :lower16:.L.str.15
	movt	r1, :upper16:.L.str.15
	mov	r2, r3
	bl	rt_sem_init
	movs	r0, #1
	.loc	2 888 5 is_stmt 1               @ rt-thread/components/finsh/shell.c:888:5
	bl	finsh_set_prompt_mode
.Ltmp215:
	.loc	2 890 9                         @ rt-thread/components/finsh/shell.c:890:9
	ldr	r0, [sp, #12]
	.loc	2 890 21 is_stmt 0              @ rt-thread/components/finsh/shell.c:890:21
	cbz	r0, .LBB14_5
	b	.LBB14_3
.LBB14_3:
	.loc	2 890 24                        @ rt-thread/components/finsh/shell.c:890:24
	ldr	r0, [sp, #16]
.Ltmp216:
	.loc	2 890 9                         @ rt-thread/components/finsh/shell.c:890:9
	cbnz	r0, .LBB14_5
	b	.LBB14_4
.LBB14_4:
.Ltmp217:
	.loc	2 891 27 is_stmt 1              @ rt-thread/components/finsh/shell.c:891:27
	ldr	r0, [sp, #12]
	.loc	2 891 9 is_stmt 0               @ rt-thread/components/finsh/shell.c:891:9
	bl	rt_thread_startup
	b	.LBB14_5
.Ltmp218:
.LBB14_5:
	.loc	2 0 9                           @ rt-thread/components/finsh/shell.c:0:9
	movs	r0, #0
	.loc	2 892 5 is_stmt 1               @ rt-thread/components/finsh/shell.c:892:5
	str	r0, [sp, #20]
	b	.LBB14_6
.LBB14_6:
	.loc	2 893 1                         @ rt-thread/components/finsh/shell.c:893:1
	ldr	r0, [sp, #20]
	add	sp, #24
	pop	{r7, pc}
.Ltmp219:
.Lfunc_end14:
	.size	finsh_system_init, .Lfunc_end14-finsh_system_init
	.cfi_endproc
	.cantunwind
	.fnend
                                        @ -- End function
	.hidden	_syscall_table_begin            @ @_syscall_table_begin
	.type	_syscall_table_begin,%object
	.section	.bss._syscall_table_begin,"aw",%nobits
	.globl	_syscall_table_begin
	.p2align	2
_syscall_table_begin:
	.long	0
	.size	_syscall_table_begin, 4

	.hidden	_syscall_table_end              @ @_syscall_table_end
	.type	_syscall_table_end,%object
	.section	.bss._syscall_table_end,"aw",%nobits
	.globl	_syscall_table_end
	.p2align	2
_syscall_table_end:
	.long	0
	.size	_syscall_table_end, 4

	.hidden	_sysvar_table_begin             @ @_sysvar_table_begin
	.type	_sysvar_table_begin,%object
	.section	.bss._sysvar_table_begin,"aw",%nobits
	.globl	_sysvar_table_begin
	.p2align	2
_sysvar_table_begin:
	.long	0
	.size	_sysvar_table_begin, 4

	.hidden	_sysvar_table_end               @ @_sysvar_table_end
	.type	_sysvar_table_end,%object
	.section	.bss._sysvar_table_end,"aw",%nobits
	.globl	_sysvar_table_end
	.p2align	2
_sysvar_table_end:
	.long	0
	.size	_sysvar_table_end, 4

	.type	finsh_prompt_custom,%object     @ @finsh_prompt_custom
	.section	.bss.finsh_prompt_custom,"aw",%nobits
	.p2align	2
finsh_prompt_custom:
	.long	0
	.size	finsh_prompt_custom, 4

	.type	finsh_get_prompt.finsh_prompt,%object @ @finsh_get_prompt.finsh_prompt
	.section	.bss.finsh_get_prompt.finsh_prompt,"aw",%nobits
finsh_get_prompt.finsh_prompt:
	.zero	129
	.size	finsh_get_prompt.finsh_prompt, 129

	.hidden	shell                           @ @shell
	.type	shell,%object
	.section	.bss.shell,"aw",%nobits
	.globl	shell
	.p2align	2
shell:
	.long	0
	.size	shell, 4

	.type	.L.str,%object                  @ @.str
	.section	.rodata.str1.1,"aMS",%progbits,1
.L.str:
	.asciz	"msh "
	.size	.L.str, 5

	.type	.L.str.1,%object                @ @.str.1
.L.str.1:
	.asciz	"finsh "
	.size	.L.str.1, 7

	.type	.L.str.2,%object                @ @.str.2
.L.str.2:
	.asciz	">"
	.size	.L.str.2, 2

	.type	.L.str.3,%object                @ @.str.3
.L.str.3:
	.asciz	"shell != RT_NULL"
	.size	.L.str.3, 17

	.type	.L__FUNCTION__.finsh_get_prompt_mode,%object @ @__FUNCTION__.finsh_get_prompt_mode
.L__FUNCTION__.finsh_get_prompt_mode:
	.asciz	"finsh_get_prompt_mode"
	.size	.L__FUNCTION__.finsh_get_prompt_mode, 22

	.type	.L__FUNCTION__.finsh_set_prompt_mode,%object @ @__FUNCTION__.finsh_set_prompt_mode
.L__FUNCTION__.finsh_set_prompt_mode:
	.asciz	"finsh_set_prompt_mode"
	.size	.L__FUNCTION__.finsh_set_prompt_mode, 22

	.type	.L__FUNCTION__.finsh_set_echo,%object @ @__FUNCTION__.finsh_set_echo
.L__FUNCTION__.finsh_set_echo:
	.asciz	"finsh_set_echo"
	.size	.L__FUNCTION__.finsh_set_echo, 15

	.type	.L__FUNCTION__.finsh_get_echo,%object @ @__FUNCTION__.finsh_get_echo
.L__FUNCTION__.finsh_get_echo:
	.asciz	"finsh_get_echo"
	.size	.L__FUNCTION__.finsh_get_echo, 15

	.type	.L.str.4,%object                @ @.str.4
.L.str.4:
	.asciz	"\n"
	.size	.L.str.4, 2

	.type	.L.str.5,%object                @ @.str.5
.L.str.5:
	.asciz	"%s\n"
	.size	.L.str.5, 4

	.type	.L.str.6,%object                @ @.str.6
.L.str.6:
	.asciz	"\t'%c', %d, 0x%08x\n"
	.size	.L.str.6, 19

	.type	.L.str.7,%object                @ @.str.7
.L.str.7:
	.asciz	"\t%d, 0x%08x\n"
	.size	.L.str.7, 13

	.type	.L.str.8,%object                @ @.str.8
.L.str.8:
	.asciz	"\b"
	.size	.L.str.8, 2

	.type	.L.str.9,%object                @ @.str.9
.L.str.9:
	.asciz	"%c"
	.size	.L.str.9, 3

	.type	.L.str.10,%object               @ @.str.10
.L.str.10:
	.asciz	"\b%s  \b"
	.size	.L.str.10, 7

	.type	.L.str.11,%object               @ @.str.11
.L.str.11:
	.asciz	"\b \b"
	.size	.L.str.11, 4

	.type	.L.str.12,%object               @ @.str.12
.L.str.12:
	.asciz	"%s"
	.size	.L.str.12, 3

	.type	.L.str.13,%object               @ @.str.13
.L.str.13:
	.asciz	"no memory for shell\n"
	.size	.L.str.13, 21

	.type	.L.str.14,%object               @ @.str.14
.L.str.14:
	.asciz	"tshell"
	.size	.L.str.14, 7

	.type	.L.str.15,%object               @ @.str.15
.L.str.15:
	.asciz	"shrx"
	.size	.L.str.15, 5

	.hidden	__rt_init_finsh_system_init     @ @__rt_init_finsh_system_init
	.type	__rt_init_finsh_system_init,%object
	.section	.rti_fn.6,"a",%progbits
	.globl	__rt_init_finsh_system_init
	.p2align	2
__rt_init_finsh_system_init:
__tagsym$$used.0:
	.long	finsh_system_init
	.size	__rt_init_finsh_system_init, 4

	.type	.L.str.16,%object               @ @.str.16
	.section	.rodata.str1.1,"aMS",%progbits,1
.L.str.16:
	.asciz	"\033[2K\r"
	.size	.L.str.16, 6

	.type	.L.str.17,%object               @ @.str.17
.L.str.17:
	.asciz	"%s%s"
	.size	.L.str.17, 5

	.globl	__rt_init_finsh_system_init
	.section	".note.GNU-stack","",%progbits
	.eabi_attribute	30, 6	@ Tag_ABI_optimization_goals
	.ARM_attribute	16, 1	@ Tag_AV_eba