	.text
	.syntax unified
	.eabi_attribute	67, "2.09"	@ Tag_conformance
	.cpu	cortex-m7
	.eabi_attribute	6, 13	@ Tag_CPU_arch
	.eabi_attribute	7, 77	@ Tag_CPU_arch_profile
	.eabi_attribute	8, 0	@ Tag_ARM_ISA_use
	.eabi_attribute	9, 2	@ Tag_THUMB_ISA_use
	.fpu	fpv5-d16
	.eabi_attribute	36, 1	@ Tag_FP_HP_extension
	.eabi_attribute	34, 1	@ Tag_CPU_unaligned_access
	.eabi_attribute	17, 1	@ Tag_ABI_PCS_GOT_use
	.eabi_attribute	20, 2	@ Tag_ABI_FP_denormal
	.eabi_attribute	21, 0	@ Tag_ABI_FP_exceptions
	.eabi_attribute	23, 1	@ Tag_ABI_FP_number_model
	.eabi_attribute	24, 1	@ Tag_ABI_align_needed
	.eabi_attribute	25, 1	@ Tag_ABI_align_preserved
	.eabi_attribute	28, 1	@ Tag_ABI_VFP_args
	.eabi_attribute	38, 1	@ Tag_ABI_FP_16bit_format
	.eabi_attribute	18, 2	@ Tag_ABI_PCS_wchar_t
	.eabi_attribute	26, 1	@ Tag_ABI_enum_size
	.eabi_attribute	14, 0	@ Tag_ABI_PCS_R9_use
	.file	"showmem.c"
	.file	1 "E:\\Smart-access-control\\Hardware\\CODE" "rt-thread/include\\rtdef.h"
	.section	.text.rt_hw_show_memory,"ax",%progbits
	.hidden	rt_hw_show_memory               @ -- Begin function rt_hw_show_memory
	.globl	rt_hw_show_memory
	.p2align	3
	.type	rt_hw_show_memory,%function
	.code	16                              @ @rt_hw_show_memory
	.thumb_func
rt_hw_show_memory:
.Lfunc_begin0:
	.file	2 "E:\\Smart-access-control\\Hardware\\CODE" "rt-thread/libcpu/arm/common/showmem.c"
	.loc	2 14 0                          @ rt-thread/libcpu/arm/common/showmem.c:14:0
	.fnstart
	.cfi_sections .debug_frame
	.cfi_startproc
@ %bb.0:
	@DEBUG_VALUE: rt_hw_show_memory:addr <- $r0
	@DEBUG_VALUE: rt_hw_show_memory:size <- $r1
	.save	{r4, r5, r6, r7, r8, r9, r10, lr}
	push.w	{r4, r5, r6, r7, r8, r9, r10, lr}
	.cfi_def_cfa_offset 32
	.cfi_offset lr, -4
	.cfi_offset r10, -8
	.cfi_offset r9, -12
	.cfi_offset r8, -16
	.cfi_offset r7, -20
	.cfi_offset r6, -24
	.cfi_offset r5, -28
	.cfi_offset r4, -32
	mov	r4, r0
.Ltmp0:
	@DEBUG_VALUE: rt_hw_show_memory:j <- 0
	@DEBUG_VALUE: rt_hw_show_memory:i <- 0
	@DEBUG_VALUE: rt_hw_show_memory:addr <- $r4
	mov	r5, r1
.Ltmp1:
	@DEBUG_VALUE: rt_hw_show_memory:size <- $r5
	@DEBUG_VALUE: rt_hw_show_memory:size <- $r5
	.loc	2 17 2 prologue_end             @ rt-thread/libcpu/arm/common/showmem.c:17:2
	cbnz	r0, .LBB0_2
.Ltmp2:
@ %bb.1:
	@DEBUG_VALUE: rt_hw_show_memory:size <- $r5
	@DEBUG_VALUE: rt_hw_show_memory:addr <- $r4
	@DEBUG_VALUE: rt_hw_show_memory:i <- 0
	@DEBUG_VALUE: rt_hw_show_memory:j <- 0
	.loc	2 17 2 is_stmt 0                @ rt-thread/libcpu/arm/common/showmem.c:17:2
	adr	r0, .LCPI0_0
	adr	r1, .LCPI0_1
	movs	r2, #17
	bl	rt_assert_handler
.Ltmp3:
.LBB0_2:
	@DEBUG_VALUE: rt_hw_show_memory:size <- $r5
	@DEBUG_VALUE: rt_hw_show_memory:addr <- $r4
	@DEBUG_VALUE: rt_hw_show_memory:i <- 0
	@DEBUG_VALUE: rt_hw_show_memory:j <- 0
	.loc	2 20 18 is_stmt 1               @ rt-thread/libcpu/arm/common/showmem.c:20:18
	adds	r0, r5, #3
	.loc	2 20 10 is_stmt 0               @ rt-thread/libcpu/arm/common/showmem.c:20:10
	bic	r10, r0, #3
	@DEBUG_VALUE: rt_hw_show_memory:i <- 0
.Ltmp4:
	@DEBUG_VALUE: rt_hw_show_memory:size <- $r10
	@DEBUG_VALUE: rt_hw_show_memory:addr <- [DW_OP_constu 18446744073709551600, DW_OP_and, DW_OP_stack_value] undef
	.loc	2 22 2 is_stmt 1                @ rt-thread/libcpu/arm/common/showmem.c:22:2
	cmp.w	r10, #0
	@DEBUG_VALUE: rt_hw_show_memory:addr <- [DW_OP_constu 18446744073709551600, DW_OP_and, DW_OP_stack_value] undef
	.loc	2 38 1                          @ rt-thread/libcpu/arm/common/showmem.c:38:1
	it	eq
	popeq.w	{r4, r5, r6, r7, r8, r9, r10, pc}
.Ltmp5:
.LBB0_3:
	@DEBUG_VALUE: rt_hw_show_memory:i <- 0
	@DEBUG_VALUE: rt_hw_show_memory:j <- 0
	.loc	2 19 14                         @ rt-thread/libcpu/arm/common/showmem.c:19:14
	bic	r4, r4, #15
.Ltmp6:
	@DEBUG_VALUE: rt_hw_show_memory:addr <- $r4
	.loc	2 0 14 is_stmt 0                @ rt-thread/libcpu/arm/common/showmem.c:0:14
	movs	r7, #0
	adr.w	r8, .LCPI0_2
	adr	r6, .LCPI0_3
	adr.w	r9, .LCPI0_4
.Ltmp7:
	.p2align	2
.LBB0_4:                                @ =>This Loop Header: Depth=1
                                        @     Child Loop BB0_5 Depth 2
	@DEBUG_VALUE: rt_hw_show_memory:addr <- $r4
	@DEBUG_VALUE: rt_hw_show_memory:i <- $r7
	.loc	2 24 3 is_stmt 1                @ rt-thread/libcpu/arm/common/showmem.c:24:3
	mov	r0, r8
	mov	r1, r4
	bl	rt_kprintf
	movs	r5, #0
.Ltmp8:
	@DEBUG_VALUE: rt_hw_show_memory:j <- 0
	.p2align	2
.LBB0_5:                                @   Parent Loop BB0_4 Depth=1
                                        @ =>  This Inner Loop Header: Depth=2
	@DEBUG_VALUE: rt_hw_show_memory:addr <- undef
	@DEBUG_VALUE: rt_hw_show_memory:i <- undef
	@DEBUG_VALUE: rt_hw_show_memory:j <- undef
	.loc	2 28 27                         @ rt-thread/libcpu/arm/common/showmem.c:28:27
	ldr	r1, [r4, r5]
	.loc	2 28 4 is_stmt 0                @ rt-thread/libcpu/arm/common/showmem.c:28:4
	mov	r0, r6
	bl	rt_kprintf
.Ltmp9:
	@DEBUG_VALUE: rt_hw_show_memory:j <- [DW_OP_plus_uconst 1, DW_OP_stack_value] undef
	@DEBUG_VALUE: rt_hw_show_memory:i <- [DW_OP_plus_uconst 1, DW_OP_stack_value] undef
	@DEBUG_VALUE: rt_hw_show_memory:addr <- [DW_OP_plus_uconst 4, DW_OP_stack_value] undef
	.loc	2 26 13 is_stmt 1               @ rt-thread/libcpu/arm/common/showmem.c:26:13
	adds	r5, #4
.Ltmp10:
	.loc	2 26 3 is_stmt 0                @ rt-thread/libcpu/arm/common/showmem.c:26:3
	cmp	r5, #16
	bne	.LBB0_5
.Ltmp11:
@ %bb.6:                                @   in Loop: Header=BB0_4 Depth=1
	.loc	2 34 3 is_stmt 1                @ rt-thread/libcpu/arm/common/showmem.c:34:3
	mov	r0, r9
.Ltmp12:
	.loc	2 26 3                          @ rt-thread/libcpu/arm/common/showmem.c:26:3
	adds	r7, #4
.Ltmp13:
	.loc	2 34 3                          @ rt-thread/libcpu/arm/common/showmem.c:34:3
	bl	rt_kprintf
.Ltmp14:
	@DEBUG_VALUE: rt_hw_show_memory:i <- $r7
	@DEBUG_VALUE: rt_hw_show_memory:addr <- [DW_OP_plus_uconst 4, DW_OP_stack_value] undef
	.loc	2 22 2                          @ rt-thread/libcpu/arm/common/showmem.c:22:2
	cmp	r7, r10
	add	r4, r5
	blo	.LBB0_4
.Ltmp15:
@ %bb.7:
	@DEBUG_VALUE: rt_hw_show_memory:i <- $r7
	.loc	2 38 1                          @ rt-thread/libcpu/arm/common/showmem.c:38:1
	pop.w	{r4, r5, r6, r7, r8, r9, r10, pc}
.Ltmp16:
	.p2align	2
@ %bb.8:
	.loc	2 0 1 is_stmt 0                 @ rt-thread/libcpu/arm/common/showmem.c:0:1
.LCPI0_0:
.L.str:
	.asciz	"addr\000\000\000"
.LCPI0_1:
.L__FUNCTION__.rt_hw_show_memory:
	.asciz	"rt_hw_show_memory\000\000"
.LCPI0_2:
.L.str.1:
	.asciz	"0x%08x: \000\000\000"
.LCPI0_3:
.L.str.2:
	.asciz	"0x%08x  \000\000\000"
.LCPI0_4:
.L.str.3:
	.asciz	"\n\000\000"
.Lfunc_end0:
	.size	rt_hw_show_memory, .Lfunc_end0-rt_hw_show_memory
	.cfi_endproc
	.cantunwind
	.fnend
                                        @ -- End function
	.section	".note.GNU-stack","",%progbits
	.eabi_attribute	30, 1	@ Tag_ABI_optimization_goals
	.ARM_attribute	16, 1	@ Tag_AV_eba