	.text
	.syntax unified
	.eabi_attribute	67, "2.09"	@ Tag_conformance
	.cpu	cortex-m7
	.eabi_attribute	6, 13	@ Tag_CPU_arch
	.eabi_attribute	7, 77	@ Tag_CPU_arch_profile
	.eabi_attribute	8, 0	@ Tag_ARM_ISA_use
	.eabi_attribute	9, 2	@ Tag_THUMB_ISA_use
	.fpu	fpv5-d16
	.eabi_attribute	36, 1	@ Tag_FP_HP_extension
	.eabi_attribute	34, 1	@ Tag_CPU_unaligned_access
	.eabi_attribute	17, 1	@ Tag_ABI_PCS_GOT_use
	.eabi_attribute	20, 2	@ Tag_ABI_FP_denormal
	.eabi_attribute	21, 0	@ Tag_ABI_FP_exceptions
	.eabi_attribute	23, 1	@ Tag_ABI_FP_number_model
	.eabi_attribute	24, 1	@ Tag_ABI_align_needed
	.eabi_attribute	25, 1	@ Tag_ABI_align_preserved
	.eabi_attribute	28, 1	@ Tag_ABI_VFP_args
	.eabi_attribute	38, 1	@ Tag_ABI_FP_16bit_format
	.eabi_attribute	18, 2	@ Tag_ABI_PCS_wchar_t
	.eabi_attribute	26, 1	@ Tag_ABI_enum_size
	.eabi_attribute	14, 0	@ Tag_ABI_PCS_R9_use
	.file	"spi_core.c"
	.file	1 "E:\\STM32\\Learning\\STM32H750_ART_PI_RGBLCD" "rt-thread/include\\rtdef.h"
	.file	2 "E:\\STM32\\Learning\\STM32H750_ART_PI_RGBLCD" "rt-thread/components/drivers/include\\drivers/spi.h"
	.section	.text.rt_spi_bus_register,"ax",%progbits
	.hidden	rt_spi_bus_register             @ -- Begin function rt_spi_bus_register
	.globl	rt_spi_bus_register
	.p2align	3
	.type	rt_spi_bus_register,%function
	.code	16                              @ @rt_spi_bus_register
	.thumb_func
rt_spi_bus_register:
.Lfunc_begin0:
	.file	3 "E:\\STM32\\Learning\\STM32H750_ART_PI_RGBLCD" "rt-thread/components/drivers/spi/spi_core.c"
	.loc	3 24 0                          @ rt-thread/components/drivers/spi/spi_core.c:24:0
	.fnstart
	.cfi_sections .debug_frame
	.cfi_startproc
@ %bb.0:
	.save	{r7, lr}
	push	{r7, lr}
	.cfi_def_cfa_offset 8
	.cfi_offset lr, -4
	.cfi_offset r7, -8
	.pad	#24
	sub	sp, #24
	.cfi_def_cfa_offset 32
	str	r0, [sp, #16]
	str	r1, [sp, #12]
	str	r2, [sp, #8]
.Ltmp0:
	.loc	3 27 37 prologue_end            @ rt-thread/components/drivers/spi/spi_core.c:27:37
	ldr	r0, [sp, #16]
	.loc	3 27 42 is_stmt 0               @ rt-thread/components/drivers/spi/spi_core.c:27:42
	ldr	r1, [sp, #12]
	.loc	3 27 14                         @ rt-thread/components/drivers/spi/spi_core.c:27:14
	bl	rt_spi_bus_device_init
	.loc	3 27 12                         @ rt-thread/components/drivers/spi/spi_core.c:27:12
	str	r0, [sp, #4]
.Ltmp1:
	.loc	3 28 9 is_stmt 1                @ rt-thread/components/drivers/spi/spi_core.c:28:9
	ldr	r0, [sp, #4]
.Ltmp2:
	.loc	3 28 9 is_stmt 0                @ rt-thread/components/drivers/spi/spi_core.c:28:9
	cbz	r0, .LBB0_2
	b	.LBB0_1
.LBB0_1:
.Ltmp3:
	.loc	3 29 16 is_stmt 1               @ rt-thread/components/drivers/spi/spi_core.c:29:16
	ldr	r0, [sp, #4]
	.loc	3 29 9 is_stmt 0                @ rt-thread/components/drivers/spi/spi_core.c:29:9
	str	r0, [sp, #20]
	b	.LBB0_3
.Ltmp4:
.LBB0_2:
	.loc	3 32 21 is_stmt 1               @ rt-thread/components/drivers/spi/spi_core.c:32:21
	ldr	r0, [sp, #16]
	.loc	3 32 26 is_stmt 0               @ rt-thread/components/drivers/spi/spi_core.c:32:26
	adds	r0, #88
	.loc	3 32 33                         @ rt-thread/components/drivers/spi/spi_core.c:32:33
	ldr	r1, [sp, #12]
	movs	r2, #0
	.loc	3 32 5                          @ rt-thread/components/drivers/spi/spi_core.c:32:5
	str	r2, [sp]                        @ 4-byte Spill
	bl	rt_mutex_init
                                        @ kill: def $r1 killed $r0
	.loc	3 34 16 is_stmt 1               @ rt-thread/components/drivers/spi/spi_core.c:34:16
	ldr	r0, [sp]                        @ 4-byte Reload
	ldr	r1, [sp, #8]
	.loc	3 34 5 is_stmt 0                @ rt-thread/components/drivers/spi/spi_core.c:34:5
	ldr	r2, [sp, #16]
	.loc	3 34 14                         @ rt-thread/components/drivers/spi/spi_core.c:34:14
	str	r1, [r2, #84]
	.loc	3 36 5 is_stmt 1                @ rt-thread/components/drivers/spi/spi_core.c:36:5
	ldr	r1, [sp, #16]
	.loc	3 36 16 is_stmt 0               @ rt-thread/components/drivers/spi/spi_core.c:36:16
	str	r0, [r1, #124]
	.loc	3 38 5 is_stmt 1                @ rt-thread/components/drivers/spi/spi_core.c:38:5
	ldr	r2, [sp, #16]
	movs	r1, #1
	.loc	3 38 15 is_stmt 0               @ rt-thread/components/drivers/spi/spi_core.c:38:15
	strb.w	r1, [r2, #80]
	.loc	3 40 5 is_stmt 1                @ rt-thread/components/drivers/spi/spi_core.c:40:5
	str	r0, [sp, #20]
	b	.LBB0_3
.LBB0_3:
	.loc	3 41 1                          @ rt-thread/components/drivers/spi/spi_core.c:41:1
	ldr	r0, [sp, #20]
	add	sp, #24
	pop	{r7, pc}
.Ltmp5:
.Lfunc_end0:
	.size	rt_spi_bus_register, .Lfunc_end0-rt_spi_bus_register
	.cfi_endproc
	.cantunwind
	.fnend
                                        @ -- End function
	.section	.text.rt_spi_bus_attach_device,"ax",%progbits
	.hidden	rt_spi_bus_attach_device        @ -- Begin function rt_spi_bus_attach_device
	.globl	rt_spi_bus_attach_device
	.p2align	3
	.type	rt_spi_bus_attach_device,%function
	.code	16                              @ @rt_spi_bus_attach_device
	.thumb_func
rt_spi_bus_attach_device:
.Lfunc_begin1:
	.loc	3 47 0                          @ rt-thread/components/drivers/spi/spi_core.c:47:0
	.fnstart
	.cfi_startproc
@ %bb.0:
	.save	{r7, lr}
	push	{r7, lr}
	.cfi_def_cfa_offset 8
	.cfi_offset lr, -4
	.cfi_offset r7, -8
	.pad	#32
	sub	sp, #32
	.cfi_def_cfa_offset 40
	str	r0, [sp, #24]
	str	r1, [sp, #20]
	str	r2, [sp, #16]
	str	r3, [sp, #12]
.Ltmp6:
	.loc	3 52 26 prologue_end            @ rt-thread/components/drivers/spi/spi_core.c:52:26
	ldr	r0, [sp, #16]
	.loc	3 52 11 is_stmt 0               @ rt-thread/components/drivers/spi/spi_core.c:52:11
	bl	rt_device_find
	.loc	3 52 9                          @ rt-thread/components/drivers/spi/spi_core.c:52:9
	str	r0, [sp, #4]
.Ltmp7:
	.loc	3 53 9 is_stmt 1                @ rt-thread/components/drivers/spi/spi_core.c:53:9
	ldr	r0, [sp, #4]
	.loc	3 53 24 is_stmt 0               @ rt-thread/components/drivers/spi/spi_core.c:53:24
	cbz	r0, .LBB1_5
	b	.LBB1_1
.LBB1_1:
	.loc	3 53 27                         @ rt-thread/components/drivers/spi/spi_core.c:53:27
	ldr	r0, [sp, #4]
	.loc	3 53 32                         @ rt-thread/components/drivers/spi/spi_core.c:53:32
	ldrb	r0, [r0, #20]
.Ltmp8:
	.loc	3 53 9                          @ rt-thread/components/drivers/spi/spi_core.c:53:9
	cmp	r0, #11
	bne	.LBB1_5
	b	.LBB1_2
.LBB1_2:
.Ltmp9:
	.loc	3 55 44 is_stmt 1               @ rt-thread/components/drivers/spi/spi_core.c:55:44
	ldr	r0, [sp, #4]
	.loc	3 55 9 is_stmt 0                @ rt-thread/components/drivers/spi/spi_core.c:55:9
	ldr	r1, [sp, #24]
	.loc	3 55 21                         @ rt-thread/components/drivers/spi/spi_core.c:55:21
	str	r0, [r1, #80]
	.loc	3 58 40 is_stmt 1               @ rt-thread/components/drivers/spi/spi_core.c:58:40
	ldr	r0, [sp, #24]
	.loc	3 58 48 is_stmt 0               @ rt-thread/components/drivers/spi/spi_core.c:58:48
	ldr	r1, [sp, #20]
	.loc	3 58 18                         @ rt-thread/components/drivers/spi/spi_core.c:58:18
	bl	rt_spidev_device_init
	.loc	3 58 16                         @ rt-thread/components/drivers/spi/spi_core.c:58:16
	str	r0, [sp, #8]
.Ltmp10:
	.loc	3 59 13 is_stmt 1               @ rt-thread/components/drivers/spi/spi_core.c:59:13
	ldr	r0, [sp, #8]
.Ltmp11:
	.loc	3 59 13 is_stmt 0               @ rt-thread/components/drivers/spi/spi_core.c:59:13
	cbz	r0, .LBB1_4
	b	.LBB1_3
.LBB1_3:
.Ltmp12:
	.loc	3 60 20 is_stmt 1               @ rt-thread/components/drivers/spi/spi_core.c:60:20
	ldr	r0, [sp, #8]
	.loc	3 60 13 is_stmt 0               @ rt-thread/components/drivers/spi/spi_core.c:60:13
	str	r0, [sp, #28]
	b	.LBB1_6
.Ltmp13:
.LBB1_4:
	.loc	3 62 20 is_stmt 1               @ rt-thread/components/drivers/spi/spi_core.c:62:20
	ldr	r0, [sp, #24]
	.loc	3 62 28 is_stmt 0               @ rt-thread/components/drivers/spi/spi_core.c:62:28
	adds	r0, #84
	movs	r1, #0
	str	r1, [sp]                        @ 4-byte Spill
	movs	r2, #8
	.loc	3 62 9                          @ rt-thread/components/drivers/spi/spi_core.c:62:9
	bl	rt_memset
                                        @ kill: def $r1 killed $r0
	.loc	3 63 36 is_stmt 1               @ rt-thread/components/drivers/spi/spi_core.c:63:36
	ldr	r0, [sp]                        @ 4-byte Reload
	ldr	r1, [sp, #12]
	.loc	3 63 9 is_stmt 0                @ rt-thread/components/drivers/spi/spi_core.c:63:9
	ldr	r2, [sp, #24]
	.loc	3 63 34                         @ rt-thread/components/drivers/spi/spi_core.c:63:34
	str	r1, [r2, #76]
	.loc	3 65 9 is_stmt 1                @ rt-thread/components/drivers/spi/spi_core.c:65:9
	str	r0, [sp, #28]
	b	.LBB1_6
.Ltmp14:
.LBB1_5:
	.loc	3 0 9 is_stmt 0                 @ rt-thread/components/drivers/spi/spi_core.c:0:9
	mov.w	r0, #-1
	.loc	3 69 5 is_stmt 1                @ rt-thread/components/drivers/spi/spi_core.c:69:5
	str	r0, [sp, #28]
	b	.LBB1_6
.LBB1_6:
	.loc	3 70 1                          @ rt-thread/components/drivers/spi/spi_core.c:70:1
	ldr	r0, [sp, #28]
	add	sp, #32
	pop	{r7, pc}
.Ltmp15:
.Lfunc_end1:
	.size	rt_spi_bus_attach_device, .Lfunc_end1-rt_spi_bus_attach_device
	.cfi_endproc
	.cantunwind
	.fnend
                                        @ -- End function
	.section	.text.rt_spi_configure,"ax",%progbits
	.hidden	rt_spi_configure                @ -- Begin function rt_spi_configure
	.globl	rt_spi_configure
	.p2align	3
	.type	rt_spi_configure,%function
	.code	16                              @ @rt_spi_configure
	.thumb_func
rt_spi_configure:
.Lfunc_begin2:
	.loc	3 74 0                          @ rt-thread/components/drivers/spi/spi_core.c:74:0
	.fnstart
	.cfi_startproc
@ %bb.0:
	.save	{r7, lr}
	push	{r7, lr}
	.cfi_def_cfa_offset 8
	.cfi_offset lr, -4
	.cfi_offset r7, -8
	.pad	#16
	sub	sp, #16
	.cfi_def_cfa_offset 24
	str	r0, [sp, #12]
	str	r1, [sp, #8]
.Ltmp16:
	.loc	3 77 5 prologue_end             @ rt-thread/components/drivers/spi/spi_core.c:77:5
	ldr	r0, [sp, #12]
.Ltmp17:
	.loc	3 77 5 is_stmt 0                @ rt-thread/components/drivers/spi/spi_core.c:77:5
	cbnz	r0, .LBB2_2
	b	.LBB2_1
.LBB2_1:
.Ltmp18:
	.loc	3 77 5                          @ rt-thread/components/drivers/spi/spi_core.c:77:5
	movw	r0, :lower16:.L.str
	movt	r0, :upper16:.L.str
	movw	r1, :lower16:.L__FUNCTION__.rt_spi_configure
	movt	r1, :upper16:.L__FUNCTION__.rt_spi_configure
	movs	r2, #77
	bl	rt_assert_handler
	b	.LBB2_2
.Ltmp19:
.LBB2_2:
	.loc	3 80 33 is_stmt 1               @ rt-thread/components/drivers/spi/spi_core.c:80:33
	ldr	r0, [sp, #8]
	.loc	3 80 38 is_stmt 0               @ rt-thread/components/drivers/spi/spi_core.c:80:38
	ldrb	r0, [r0, #1]
	.loc	3 80 5                          @ rt-thread/components/drivers/spi/spi_core.c:80:5
	ldr	r1, [sp, #12]
	.loc	3 80 31                         @ rt-thread/components/drivers/spi/spi_core.c:80:31
	strb.w	r0, [r1, #85]
	.loc	3 81 33 is_stmt 1               @ rt-thread/components/drivers/spi/spi_core.c:81:33
	ldr	r0, [sp, #8]
	ldrb	r0, [r0]
	.loc	3 81 5 is_stmt 0                @ rt-thread/components/drivers/spi/spi_core.c:81:5
	ldr	r1, [sp, #12]
	.loc	3 81 31                         @ rt-thread/components/drivers/spi/spi_core.c:81:31
	strb.w	r0, [r1, #84]
	.loc	3 82 33 is_stmt 1               @ rt-thread/components/drivers/spi/spi_core.c:82:33
	ldr	r0, [sp, #8]
	.loc	3 82 38 is_stmt 0               @ rt-thread/components/drivers/spi/spi_core.c:82:38
	ldr	r0, [r0, #4]
	.loc	3 82 5                          @ rt-thread/components/drivers/spi/spi_core.c:82:5
	ldr	r1, [sp, #12]
	.loc	3 82 31                         @ rt-thread/components/drivers/spi/spi_core.c:82:31
	str	r0, [r1, #88]
.Ltmp20:
	.loc	3 84 9 is_stmt 1                @ rt-thread/components/drivers/spi/spi_core.c:84:9
	ldr	r0, [sp, #12]
	.loc	3 84 17 is_stmt 0               @ rt-thread/components/drivers/spi/spi_core.c:84:17
	ldr	r0, [r0, #80]
.Ltmp21:
	.loc	3 84 9                          @ rt-thread/components/drivers/spi/spi_core.c:84:9
	cbz	r0, .LBB2_8
	b	.LBB2_3
.LBB2_3:
.Ltmp22:
	.loc	3 86 34 is_stmt 1               @ rt-thread/components/drivers/spi/spi_core.c:86:34
	ldr	r0, [sp, #12]
	.loc	3 86 42 is_stmt 0               @ rt-thread/components/drivers/spi/spi_core.c:86:42
	ldr	r0, [r0, #80]
	.loc	3 86 47                         @ rt-thread/components/drivers/spi/spi_core.c:86:47
	adds	r0, #88
	mov.w	r1, #-1
	.loc	3 86 18                         @ rt-thread/components/drivers/spi/spi_core.c:86:18
	bl	rt_mutex_take
	.loc	3 86 16                         @ rt-thread/components/drivers/spi/spi_core.c:86:16
	str	r0, [sp, #4]
.Ltmp23:
	.loc	3 87 13 is_stmt 1               @ rt-thread/components/drivers/spi/spi_core.c:87:13
	ldr	r0, [sp, #4]
.Ltmp24:
	.loc	3 87 13 is_stmt 0               @ rt-thread/components/drivers/spi/spi_core.c:87:13
	cbnz	r0, .LBB2_7
	b	.LBB2_4
.LBB2_4:
.Ltmp25:
	.loc	3 89 17 is_stmt 1               @ rt-thread/components/drivers/spi/spi_core.c:89:17
	ldr	r1, [sp, #12]
	.loc	3 89 25 is_stmt 0               @ rt-thread/components/drivers/spi/spi_core.c:89:25
	ldr	r0, [r1, #80]
	.loc	3 89 30                         @ rt-thread/components/drivers/spi/spi_core.c:89:30
	ldr	r0, [r0, #124]
.Ltmp26:
	.loc	3 89 17                         @ rt-thread/components/drivers/spi/spi_core.c:89:17
	cmp	r0, r1
	bne	.LBB2_6
	b	.LBB2_5
.LBB2_5:
.Ltmp27:
	.loc	3 91 17 is_stmt 1               @ rt-thread/components/drivers/spi/spi_core.c:91:17
	ldr	r0, [sp, #12]
	.loc	3 91 25 is_stmt 0               @ rt-thread/components/drivers/spi/spi_core.c:91:25
	ldr	r1, [r0, #80]
	.loc	3 91 30                         @ rt-thread/components/drivers/spi/spi_core.c:91:30
	ldr	r1, [r1, #84]
	.loc	3 91 35                         @ rt-thread/components/drivers/spi/spi_core.c:91:35
	ldr	r2, [r1]
	.loc	3 91 62                         @ rt-thread/components/drivers/spi/spi_core.c:91:62
	add.w	r1, r0, #84
	.loc	3 91 17                         @ rt-thread/components/drivers/spi/spi_core.c:91:17
	blx	r2
	.loc	3 92 13 is_stmt 1               @ rt-thread/components/drivers/spi/spi_core.c:92:13
	b	.LBB2_6
.Ltmp28:
.LBB2_6:
	.loc	3 95 32                         @ rt-thread/components/drivers/spi/spi_core.c:95:32
	ldr	r0, [sp, #12]
	.loc	3 95 40 is_stmt 0               @ rt-thread/components/drivers/spi/spi_core.c:95:40
	ldr	r0, [r0, #80]
	.loc	3 95 45                         @ rt-thread/components/drivers/spi/spi_core.c:95:45
	adds	r0, #88
	.loc	3 95 13                         @ rt-thread/components/drivers/spi/spi_core.c:95:13
	bl	rt_mutex_release
	.loc	3 96 9 is_stmt 1                @ rt-thread/components/drivers/spi/spi_core.c:96:9
	b	.LBB2_7
.Ltmp29:
.LBB2_7:
	.loc	3 97 5                          @ rt-thread/components/drivers/spi/spi_core.c:97:5
	b	.LBB2_8
.Ltmp30:
.LBB2_8:
	.loc	3 0 5 is_stmt 0                 @ rt-thread/components/drivers/spi/spi_core.c:0:5
	movs	r0, #0
	.loc	3 99 5 is_stmt 1                @ rt-thread/components/drivers/spi/spi_core.c:99:5
	add	sp, #16
	pop	{r7, pc}
.Ltmp31:
.Lfunc_end2:
	.size	rt_spi_configure, .Lfunc_end2-rt_spi_configure
	.cfi_endproc
	.cantunwind
	.fnend
                                        @ -- End function
	.section	.text.rt_spi_send_then_send,"ax",%progbits
	.hidden	rt_spi_send_then_send           @ -- Begin function rt_spi_send_then_send
	.globl	rt_spi_send_then_send
	.p2align	3
	.type	rt_spi_send_then_send,%function
	.code	16                              @ @rt_spi_send_then_send
	.thumb_func
rt_spi_send_then_send:
.Lfunc_begin3:
	.loc	3 107 0                         @ rt-thread/components/drivers/spi/spi_core.c:107:0
	.fnstart
	.cfi_startproc
@ %bb.0:
	.save	{r7, lr}
	push	{r7, lr}
	.cfi_def_cfa_offset 8
	.cfi_offset lr, -4
	.cfi_offset r7, -8
	.pad	#48
	sub	sp, #48
	.cfi_def_cfa_offset 56
	ldr.w	r12, [sp, #56]
	str	r0, [sp, #40]
	str	r1, [sp, #36]
	str	r2, [sp, #32]
	str	r3, [sp, #28]
.Ltmp32:
	.loc	3 111 5 prologue_end            @ rt-thread/components/drivers/spi/spi_core.c:111:5
	ldr	r0, [sp, #40]
.Ltmp33:
	.loc	3 111 5 is_stmt 0               @ rt-thread/components/drivers/spi/spi_core.c:111:5
	cbnz	r0, .LBB3_2
	b	.LBB3_1
.LBB3_1:
.Ltmp34:
	.loc	3 111 5                         @ rt-thread/components/drivers/spi/spi_core.c:111:5
	movw	r0, :lower16:.L.str
	movt	r0, :upper16:.L.str
	movw	r1, :lower16:.L__FUNCTION__.rt_spi_send_then_send
	movt	r1, :upper16:.L__FUNCTION__.rt_spi_send_then_send
	movs	r2, #111
	bl	rt_assert_handler
	b	.LBB3_2
.Ltmp35:
.LBB3_2:
	.loc	3 112 5 is_stmt 1               @ rt-thread/components/drivers/spi/spi_core.c:112:5
	ldr	r0, [sp, #40]
	ldr	r0, [r0, #80]
.Ltmp36:
	.loc	3 112 5 is_stmt 0               @ rt-thread/components/drivers/spi/spi_core.c:112:5
	cbnz	r0, .LBB3_4
	b	.LBB3_3
.LBB3_3:
.Ltmp37:
	.loc	3 112 5                         @ rt-thread/components/drivers/spi/spi_core.c:112:5
	movw	r0, :lower16:.L.str.1
	movt	r0, :upper16:.L.str.1
	movw	r1, :lower16:.L__FUNCTION__.rt_spi_send_then_send
	movt	r1, :upper16:.L__FUNCTION__.rt_spi_send_then_send
	movs	r2, #112
	bl	rt_assert_handler
	b	.LBB3_4
.Ltmp38:
.LBB3_4:
	.loc	3 114 30 is_stmt 1              @ rt-thread/components/drivers/spi/spi_core.c:114:30
	ldr	r0, [sp, #40]
	.loc	3 114 38 is_stmt 0              @ rt-thread/components/drivers/spi/spi_core.c:114:38
	ldr	r0, [r0, #80]
	.loc	3 114 43                        @ rt-thread/components/drivers/spi/spi_core.c:114:43
	adds	r0, #88
	mov.w	r1, #-1
	.loc	3 114 14                        @ rt-thread/components/drivers/spi/spi_core.c:114:14
	bl	rt_mutex_take
	.loc	3 114 12                        @ rt-thread/components/drivers/spi/spi_core.c:114:12
	str	r0, [sp, #24]
.Ltmp39:
	.loc	3 115 9 is_stmt 1               @ rt-thread/components/drivers/spi/spi_core.c:115:9
	ldr	r0, [sp, #24]
.Ltmp40:
	.loc	3 115 9 is_stmt 0               @ rt-thread/components/drivers/spi/spi_core.c:115:9
	cmp	r0, #0
	bne	.LBB3_15
	b	.LBB3_5
.LBB3_5:
.Ltmp41:
	.loc	3 117 13 is_stmt 1              @ rt-thread/components/drivers/spi/spi_core.c:117:13
	ldr	r1, [sp, #40]
	.loc	3 117 21 is_stmt 0              @ rt-thread/components/drivers/spi/spi_core.c:117:21
	ldr	r0, [r1, #80]
	.loc	3 117 26                        @ rt-thread/components/drivers/spi/spi_core.c:117:26
	ldr	r0, [r0, #124]
.Ltmp42:
	.loc	3 117 13                        @ rt-thread/components/drivers/spi/spi_core.c:117:13
	cmp	r0, r1
	beq	.LBB3_10
	b	.LBB3_6
.LBB3_6:
.Ltmp43:
	.loc	3 120 22 is_stmt 1              @ rt-thread/components/drivers/spi/spi_core.c:120:22
	ldr	r0, [sp, #40]
	.loc	3 120 30 is_stmt 0              @ rt-thread/components/drivers/spi/spi_core.c:120:30
	ldr	r1, [r0, #80]
	.loc	3 120 35                        @ rt-thread/components/drivers/spi/spi_core.c:120:35
	ldr	r1, [r1, #84]
	.loc	3 120 40                        @ rt-thread/components/drivers/spi/spi_core.c:120:40
	ldr	r2, [r1]
	.loc	3 120 67                        @ rt-thread/components/drivers/spi/spi_core.c:120:67
	add.w	r1, r0, #84
	.loc	3 120 22                        @ rt-thread/components/drivers/spi/spi_core.c:120:22
	blx	r2
	.loc	3 120 20                        @ rt-thread/components/drivers/spi/spi_core.c:120:20
	str	r0, [sp, #24]
.Ltmp44:
	.loc	3 121 17 is_stmt 1              @ rt-thread/components/drivers/spi/spi_core.c:121:17
	ldr	r0, [sp, #24]
.Ltmp45:
	.loc	3 121 17 is_stmt 0              @ rt-thread/components/drivers/spi/spi_core.c:121:17
	cbnz	r0, .LBB3_8
	b	.LBB3_7
.LBB3_7:
.Ltmp46:
	.loc	3 124 38 is_stmt 1              @ rt-thread/components/drivers/spi/spi_core.c:124:38
	ldr	r0, [sp, #40]
	.loc	3 124 25 is_stmt 0              @ rt-thread/components/drivers/spi/spi_core.c:124:25
	ldr	r1, [r0, #80]
	.loc	3 124 36                        @ rt-thread/components/drivers/spi/spi_core.c:124:36
	str	r0, [r1, #124]
	.loc	3 125 13 is_stmt 1              @ rt-thread/components/drivers/spi/spi_core.c:125:13
	b	.LBB3_9
.Ltmp47:
.LBB3_8:
	.loc	3 0 13 is_stmt 0                @ rt-thread/components/drivers/spi/spi_core.c:0:13
	mvn	r0, #7
.Ltmp48:
	.loc	3 129 24 is_stmt 1              @ rt-thread/components/drivers/spi/spi_core.c:129:24
	str	r0, [sp, #24]
	.loc	3 130 17                        @ rt-thread/components/drivers/spi/spi_core.c:130:17
	b	.LBB3_17
.Ltmp49:
.LBB3_9:
	.loc	3 132 9                         @ rt-thread/components/drivers/spi/spi_core.c:132:9
	b	.LBB3_10
.Ltmp50:
.LBB3_10:
	.loc	3 135 30                        @ rt-thread/components/drivers/spi/spi_core.c:135:30
	ldr	r0, [sp, #36]
	.loc	3 135 28 is_stmt 0              @ rt-thread/components/drivers/spi/spi_core.c:135:28
	str	r0, [sp, #4]
	movs	r0, #0
	.loc	3 136 28 is_stmt 1              @ rt-thread/components/drivers/spi/spi_core.c:136:28
	str	r0, [sp, #8]
	.loc	3 137 30                        @ rt-thread/components/drivers/spi/spi_core.c:137:30
	ldr	r1, [sp, #32]
	.loc	3 137 28 is_stmt 0              @ rt-thread/components/drivers/spi/spi_core.c:137:28
	str	r1, [sp, #12]
	.loc	3 138 28 is_stmt 1              @ rt-thread/components/drivers/spi/spi_core.c:138:28
	ldrb.w	r1, [sp, #20]
	orr	r1, r1, #1
	strb.w	r1, [sp, #20]
	.loc	3 139 28                        @ rt-thread/components/drivers/spi/spi_core.c:139:28
	ldrb.w	r1, [sp, #20]
	and	r1, r1, #253
	strb.w	r1, [sp, #20]
	.loc	3 140 28                        @ rt-thread/components/drivers/spi/spi_core.c:140:28
	str	r0, [sp, #16]
	.loc	3 142 18                        @ rt-thread/components/drivers/spi/spi_core.c:142:18
	ldr	r0, [sp, #40]
	.loc	3 142 26 is_stmt 0              @ rt-thread/components/drivers/spi/spi_core.c:142:26
	ldr	r1, [r0, #80]
	.loc	3 142 31                        @ rt-thread/components/drivers/spi/spi_core.c:142:31
	ldr	r1, [r1, #84]
	.loc	3 142 36                        @ rt-thread/components/drivers/spi/spi_core.c:142:36
	ldr	r2, [r1, #4]
	add	r1, sp, #4
	.loc	3 142 18                        @ rt-thread/components/drivers/spi/spi_core.c:142:18
	blx	r2
	.loc	3 142 16                        @ rt-thread/components/drivers/spi/spi_core.c:142:16
	str	r0, [sp, #24]
.Ltmp51:
	.loc	3 143 13 is_stmt 1              @ rt-thread/components/drivers/spi/spi_core.c:143:13
	ldr	r0, [sp, #24]
.Ltmp52:
	.loc	3 143 13 is_stmt 0              @ rt-thread/components/drivers/spi/spi_core.c:143:13
	cbnz	r0, .LBB3_12
	b	.LBB3_11
.LBB3_11:
	.loc	3 0 13                          @ rt-thread/components/drivers/spi/spi_core.c:0:13
	mvn	r0, #7
.Ltmp53:
	.loc	3 145 20 is_stmt 1              @ rt-thread/components/drivers/spi/spi_core.c:145:20
	str	r0, [sp, #24]
	.loc	3 146 13                        @ rt-thread/components/drivers/spi/spi_core.c:146:13
	b	.LBB3_17
.Ltmp54:
.LBB3_12:
	.loc	3 150 30                        @ rt-thread/components/drivers/spi/spi_core.c:150:30
	ldr	r0, [sp, #28]
	.loc	3 150 28 is_stmt 0              @ rt-thread/components/drivers/spi/spi_core.c:150:28
	str	r0, [sp, #4]
	movs	r0, #0
	.loc	3 151 28 is_stmt 1              @ rt-thread/components/drivers/spi/spi_core.c:151:28
	str	r0, [sp, #8]
	.loc	3 152 30                        @ rt-thread/components/drivers/spi/spi_core.c:152:30
	ldr	r1, [sp, #56]
	.loc	3 152 28 is_stmt 0              @ rt-thread/components/drivers/spi/spi_core.c:152:28
	str	r1, [sp, #12]
	.loc	3 153 28 is_stmt 1              @ rt-thread/components/drivers/spi/spi_core.c:153:28
	ldrb.w	r1, [sp, #20]
	and	r1, r1, #254
	strb.w	r1, [sp, #20]
	.loc	3 154 28                        @ rt-thread/components/drivers/spi/spi_core.c:154:28
	ldrb.w	r1, [sp, #20]
	orr	r1, r1, #2
	strb.w	r1, [sp, #20]
	.loc	3 155 28                        @ rt-thread/components/drivers/spi/spi_core.c:155:28
	str	r0, [sp, #16]
	.loc	3 157 18                        @ rt-thread/components/drivers/spi/spi_core.c:157:18
	ldr	r0, [sp, #40]
	.loc	3 157 26 is_stmt 0              @ rt-thread/components/drivers/spi/spi_core.c:157:26
	ldr	r1, [r0, #80]
	.loc	3 157 31                        @ rt-thread/components/drivers/spi/spi_core.c:157:31
	ldr	r1, [r1, #84]
	.loc	3 157 36                        @ rt-thread/components/drivers/spi/spi_core.c:157:36
	ldr	r2, [r1, #4]
	add	r1, sp, #4
	.loc	3 157 18                        @ rt-thread/components/drivers/spi/spi_core.c:157:18
	blx	r2
	.loc	3 157 16                        @ rt-thread/components/drivers/spi/spi_core.c:157:16
	str	r0, [sp, #24]
.Ltmp55:
	.loc	3 158 13 is_stmt 1              @ rt-thread/components/drivers/spi/spi_core.c:158:13
	ldr	r0, [sp, #24]
.Ltmp56:
	.loc	3 158 13 is_stmt 0              @ rt-thread/components/drivers/spi/spi_core.c:158:13
	cbnz	r0, .LBB3_14
	b	.LBB3_13
.LBB3_13:
	.loc	3 0 13                          @ rt-thread/components/drivers/spi/spi_core.c:0:13
	mvn	r0, #7
.Ltmp57:
	.loc	3 160 20 is_stmt 1              @ rt-thread/components/drivers/spi/spi_core.c:160:20
	str	r0, [sp, #24]
	.loc	3 161 13                        @ rt-thread/components/drivers/spi/spi_core.c:161:13
	b	.LBB3_17
.Ltmp58:
.LBB3_14:
	.loc	3 0 13 is_stmt 0                @ rt-thread/components/drivers/spi/spi_core.c:0:13
	movs	r0, #0
	.loc	3 164 16 is_stmt 1              @ rt-thread/components/drivers/spi/spi_core.c:164:16
	str	r0, [sp, #24]
	.loc	3 165 5                         @ rt-thread/components/drivers/spi/spi_core.c:165:5
	b	.LBB3_16
.Ltmp59:
.LBB3_15:
	.loc	3 0 5 is_stmt 0                 @ rt-thread/components/drivers/spi/spi_core.c:0:5
	mvn	r0, #7
.Ltmp60:
	.loc	3 168 9 is_stmt 1               @ rt-thread/components/drivers/spi/spi_core.c:168:9
	str	r0, [sp, #44]
	b	.LBB3_18
.Ltmp61:
.LBB3_16:
	.loc	3 115 19                        @ rt-thread/components/drivers/spi/spi_core.c:115:19
	b	.LBB3_17
.Ltmp62:
.LBB3_17:
	@DEBUG_LABEL: rt_spi_send_then_send:__exit
	.loc	3 172 24                        @ rt-thread/components/drivers/spi/spi_core.c:172:24
	ldr	r0, [sp, #40]
	.loc	3 172 32 is_stmt 0              @ rt-thread/components/drivers/spi/spi_core.c:172:32
	ldr	r0, [r0, #80]
	.loc	3 172 37                        @ rt-thread/components/drivers/spi/spi_core.c:172:37
	adds	r0, #88
	.loc	3 172 5                         @ rt-thread/components/drivers/spi/spi_core.c:172:5
	bl	rt_mutex_release
	.loc	3 174 12 is_stmt 1              @ rt-thread/components/drivers/spi/spi_core.c:174:12
	ldr	r0, [sp, #24]
	.loc	3 174 5 is_stmt 0               @ rt-thread/components/drivers/spi/spi_core.c:174:5
	str	r0, [sp, #44]
	b	.LBB3_18
.LBB3_18:
	.loc	3 175 1 is_stmt 1               @ rt-thread/components/drivers/spi/spi_core.c:175:1
	ldr	r0, [sp, #44]
	add	sp, #48
	pop	{r7, pc}
.Ltmp63:
.Lfunc_end3:
	.size	rt_spi_send_then_send, .Lfunc_end3-rt_spi_send_then_send
	.cfi_endproc
	.cantunwind
	.fnend
                                        @ -- End function
	.section	.text.rt_spi_send_then_recv,"ax",%progbits
	.hidden	rt_spi_send_then_recv           @ -- Begin function rt_spi_send_then_recv
	.globl	rt_spi_send_then_recv
	.p2align	3
	.type	rt_spi_send_then_recv,%function
	.code	16                              @ @rt_spi_send_then_recv
	.thumb_func
rt_spi_send_then_recv:
.Lfunc_begin4:
	.loc	3 182 0                         @ rt-thread/components/drivers/spi/spi_core.c:182:0
	.fnstart
	.cfi_startproc
@ %bb.0:
	.save	{r7, lr}
	push	{r7, lr}
	.cfi_def_cfa_offset 8
	.cfi_offset lr, -4
	.cfi_offset r7, -8
	.pad	#48
	sub	sp, #48
	.cfi_def_cfa_offset 56
	ldr.w	r12, [sp, #56]
	str	r0, [sp, #40]
	str	r1, [sp, #36]
	str	r2, [sp, #32]
	str	r3, [sp, #28]
.Ltmp64:
	.loc	3 186 5 prologue_end            @ rt-thread/components/drivers/spi/spi_core.c:186:5
	ldr	r0, [sp, #40]
.Ltmp65:
	.loc	3 186 5 is_stmt 0               @ rt-thread/components/drivers/spi/spi_core.c:186:5
	cbnz	r0, .LBB4_2
	b	.LBB4_1
.LBB4_1:
.Ltmp66:
	.loc	3 186 5                         @ rt-thread/components/drivers/spi/spi_core.c:186:5
	movw	r0, :lower16:.L.str
	movt	r0, :upper16:.L.str
	movw	r1, :lower16:.L__FUNCTION__.rt_spi_send_then_recv
	movt	r1, :upper16:.L__FUNCTION__.rt_spi_send_then_recv
	movs	r2, #186
	bl	rt_assert_handler
	b	.LBB4_2
.Ltmp67:
.LBB4_2:
	.loc	3 187 5 is_stmt 1               @ rt-thread/components/drivers/spi/spi_core.c:187:5
	ldr	r0, [sp, #40]
	ldr	r0, [r0, #80]
.Ltmp68:
	.loc	3 187 5 is_stmt 0               @ rt-thread/components/drivers/spi/spi_core.c:187:5
	cbnz	r0, .LBB4_4
	b	.LBB4_3
.LBB4_3:
.Ltmp69:
	.loc	3 187 5                         @ rt-thread/components/drivers/spi/spi_core.c:187:5
	movw	r0, :lower16:.L.str.1
	movt	r0, :upper16:.L.str.1
	movw	r1, :lower16:.L__FUNCTION__.rt_spi_send_then_recv
	movt	r1, :upper16:.L__FUNCTION__.rt_spi_send_then_recv
	movs	r2, #187
	bl	rt_assert_handler
	b	.LBB4_4
.Ltmp70:
.LBB4_4:
	.loc	3 189 30 is_stmt 1              @ rt-thread/components/drivers/spi/spi_core.c:189:30
	ldr	r0, [sp, #40]
	.loc	3 189 38 is_stmt 0              @ rt-thread/components/drivers/spi/spi_core.c:189:38
	ldr	r0, [r0, #80]
	.loc	3 189 43                        @ rt-thread/components/drivers/spi/spi_core.c:189:43
	adds	r0, #88
	mov.w	r1, #-1
	.loc	3 189 14                        @ rt-thread/components/drivers/spi/spi_core.c:189:14
	bl	rt_mutex_take
	.loc	3 189 12                        @ rt-thread/components/drivers/spi/spi_core.c:189:12
	str	r0, [sp, #24]
.Ltmp71:
	.loc	3 190 9 is_stmt 1               @ rt-thread/components/drivers/spi/spi_core.c:190:9
	ldr	r0, [sp, #24]
.Ltmp72:
	.loc	3 190 9 is_stmt 0               @ rt-thread/components/drivers/spi/spi_core.c:190:9
	cmp	r0, #0
	bne	.LBB4_15
	b	.LBB4_5
.LBB4_5:
.Ltmp73:
	.loc	3 192 13 is_stmt 1              @ rt-thread/components/drivers/spi/spi_core.c:192:13
	ldr	r1, [sp, #40]
	.loc	3 192 21 is_stmt 0              @ rt-thread/components/drivers/spi/spi_core.c:192:21
	ldr	r0, [r1, #80]
	.loc	3 192 26                        @ rt-thread/components/drivers/spi/spi_core.c:192:26
	ldr	r0, [r0, #124]
.Ltmp74:
	.loc	3 192 13                        @ rt-thread/components/drivers/spi/spi_core.c:192:13
	cmp	r0, r1
	beq	.LBB4_10
	b	.LBB4_6
.LBB4_6:
.Ltmp75:
	.loc	3 195 22 is_stmt 1              @ rt-thread/components/drivers/spi/spi_core.c:195:22
	ldr	r0, [sp, #40]
	.loc	3 195 30 is_stmt 0              @ rt-thread/components/drivers/spi/spi_core.c:195:30
	ldr	r1, [r0, #80]
	.loc	3 195 35                        @ rt-thread/components/drivers/spi/spi_core.c:195:35
	ldr	r1, [r1, #84]
	.loc	3 195 40                        @ rt-thread/components/drivers/spi/spi_core.c:195:40
	ldr	r2, [r1]
	.loc	3 195 67                        @ rt-thread/components/drivers/spi/spi_core.c:195:67
	add.w	r1, r0, #84
	.loc	3 195 22                        @ rt-thread/components/drivers/spi/spi_core.c:195:22
	blx	r2
	.loc	3 195 20                        @ rt-thread/components/drivers/spi/spi_core.c:195:20
	str	r0, [sp, #24]
.Ltmp76:
	.loc	3 196 17 is_stmt 1              @ rt-thread/components/drivers/spi/spi_core.c:196:17
	ldr	r0, [sp, #24]
.Ltmp77:
	.loc	3 196 17 is_stmt 0              @ rt-thread/components/drivers/spi/spi_core.c:196:17
	cbnz	r0, .LBB4_8
	b	.LBB4_7
.LBB4_7:
.Ltmp78:
	.loc	3 199 38 is_stmt 1              @ rt-thread/components/drivers/spi/spi_core.c:199:38
	ldr	r0, [sp, #40]
	.loc	3 199 25 is_stmt 0              @ rt-thread/components/drivers/spi/spi_core.c:199:25
	ldr	r1, [r0, #80]
	.loc	3 199 36                        @ rt-thread/components/drivers/spi/spi_core.c:199:36
	str	r0, [r1, #124]
	.loc	3 200 13 is_stmt 1              @ rt-thread/components/drivers/spi/spi_core.c:200:13
	b	.LBB4_9
.Ltmp79:
.LBB4_8:
	.loc	3 0 13 is_stmt 0                @ rt-thread/components/drivers/spi/spi_core.c:0:13
	mvn	r0, #7
.Ltmp80:
	.loc	3 204 24 is_stmt 1              @ rt-thread/components/drivers/spi/spi_core.c:204:24
	str	r0, [sp, #24]
	.loc	3 205 17                        @ rt-thread/components/drivers/spi/spi_core.c:205:17
	b	.LBB4_17
.Ltmp81:
.LBB4_9:
	.loc	3 207 9                         @ rt-thread/components/drivers/spi/spi_core.c:207:9
	b	.LBB4_10
.Ltmp82:
.LBB4_10:
	.loc	3 210 30                        @ rt-thread/components/drivers/spi/spi_core.c:210:30
	ldr	r0, [sp, #36]
	.loc	3 210 28 is_stmt 0              @ rt-thread/components/drivers/spi/spi_core.c:210:28
	str	r0, [sp, #4]
	movs	r0, #0
	.loc	3 211 28 is_stmt 1              @ rt-thread/components/drivers/spi/spi_core.c:211:28
	str	r0, [sp, #8]
	.loc	3 212 30                        @ rt-thread/components/drivers/spi/spi_core.c:212:30
	ldr	r1, [sp, #32]
	.loc	3 212 28 is_stmt 0              @ rt-thread/components/drivers/spi/spi_core.c:212:28
	str	r1, [sp, #12]
	.loc	3 213 28 is_stmt 1              @ rt-thread/components/drivers/spi/spi_core.c:213:28
	ldrb.w	r1, [sp, #20]
	orr	r1, r1, #1
	strb.w	r1, [sp, #20]
	.loc	3 214 28                        @ rt-thread/components/drivers/spi/spi_core.c:214:28
	ldrb.w	r1, [sp, #20]
	and	r1, r1, #253
	strb.w	r1, [sp, #20]
	.loc	3 215 28                        @ rt-thread/components/drivers/spi/spi_core.c:215:28
	str	r0, [sp, #16]
	.loc	3 217 18                        @ rt-thread/components/drivers/spi/spi_core.c:217:18
	ldr	r0, [sp, #40]
	.loc	3 217 26 is_stmt 0              @ rt-thread/components/drivers/spi/spi_core.c:217:26
	ldr	r1, [r0, #80]
	.loc	3 217 31                        @ rt-thread/components/drivers/spi/spi_core.c:217:31
	ldr	r1, [r1, #84]
	.loc	3 217 36                        @ rt-thread/components/drivers/spi/spi_core.c:217:36
	ldr	r2, [r1, #4]
	add	r1, sp, #4
	.loc	3 217 18                        @ rt-thread/components/drivers/spi/spi_core.c:217:18
	blx	r2
	.loc	3 217 16                        @ rt-thread/components/drivers/spi/spi_core.c:217:16
	str	r0, [sp, #24]
.Ltmp83:
	.loc	3 218 13 is_stmt 1              @ rt-thread/components/drivers/spi/spi_core.c:218:13
	ldr	r0, [sp, #24]
.Ltmp84:
	.loc	3 218 13 is_stmt 0              @ rt-thread/components/drivers/spi/spi_core.c:218:13
	cbnz	r0, .LBB4_12
	b	.LBB4_11
.LBB4_11:
	.loc	3 0 13                          @ rt-thread/components/drivers/spi/spi_core.c:0:13
	mvn	r0, #7
.Ltmp85:
	.loc	3 220 20 is_stmt 1              @ rt-thread/components/drivers/spi/spi_core.c:220:20
	str	r0, [sp, #24]
	.loc	3 221 13                        @ rt-thread/components/drivers/spi/spi_core.c:221:13
	b	.LBB4_17
.Ltmp86:
.LBB4_12:
	.loc	3 0 13 is_stmt 0                @ rt-thread/components/drivers/spi/spi_core.c:0:13
	movs	r0, #0
	.loc	3 225 28 is_stmt 1              @ rt-thread/components/drivers/spi/spi_core.c:225:28
	str	r0, [sp, #4]
	.loc	3 226 30                        @ rt-thread/components/drivers/spi/spi_core.c:226:30
	ldr	r1, [sp, #28]
	.loc	3 226 28 is_stmt 0              @ rt-thread/components/drivers/spi/spi_core.c:226:28
	str	r1, [sp, #8]
	.loc	3 227 30 is_stmt 1              @ rt-thread/components/drivers/spi/spi_core.c:227:30
	ldr	r1, [sp, #56]
	.loc	3 227 28 is_stmt 0              @ rt-thread/components/drivers/spi/spi_core.c:227:28
	str	r1, [sp, #12]
	.loc	3 228 28 is_stmt 1              @ rt-thread/components/drivers/spi/spi_core.c:228:28
	ldrb.w	r1, [sp, #20]
	and	r1, r1, #254
	strb.w	r1, [sp, #20]
	.loc	3 229 28                        @ rt-thread/components/drivers/spi/spi_core.c:229:28
	ldrb.w	r1, [sp, #20]
	orr	r1, r1, #2
	strb.w	r1, [sp, #20]
	.loc	3 230 28                        @ rt-thread/components/drivers/spi/spi_core.c:230:28
	str	r0, [sp, #16]
	.loc	3 232 18                        @ rt-thread/components/drivers/spi/spi_core.c:232:18
	ldr	r0, [sp, #40]
	.loc	3 232 26 is_stmt 0              @ rt-thread/components/drivers/spi/spi_core.c:232:26
	ldr	r1, [r0, #80]
	.loc	3 232 31                        @ rt-thread/components/drivers/spi/spi_core.c:232:31
	ldr	r1, [r1, #84]
	.loc	3 232 36                        @ rt-thread/components/drivers/spi/spi_core.c:232:36
	ldr	r2, [r1, #4]
	add	r1, sp, #4
	.loc	3 232 18                        @ rt-thread/components/drivers/spi/spi_core.c:232:18
	blx	r2
	.loc	3 232 16                        @ rt-thread/components/drivers/spi/spi_core.c:232:16
	str	r0, [sp, #24]
.Ltmp87:
	.loc	3 233 13 is_stmt 1              @ rt-thread/components/drivers/spi/spi_core.c:233:13
	ldr	r0, [sp, #24]
.Ltmp88:
	.loc	3 233 13 is_stmt 0              @ rt-thread/components/drivers/spi/spi_core.c:233:13
	cbnz	r0, .LBB4_14
	b	.LBB4_13
.LBB4_13:
	.loc	3 0 13                          @ rt-thread/components/drivers/spi/spi_core.c:0:13
	mvn	r0, #7
.Ltmp89:
	.loc	3 235 20 is_stmt 1              @ rt-thread/components/drivers/spi/spi_core.c:235:20
	str	r0, [sp, #24]
	.loc	3 236 13                        @ rt-thread/components/drivers/spi/spi_core.c:236:13
	b	.LBB4_17
.Ltmp90:
.LBB4_14:
	.loc	3 0 13 is_stmt 0                @ rt-thread/components/drivers/spi/spi_core.c:0:13
	movs	r0, #0
	.loc	3 239 16 is_stmt 1              @ rt-thread/components/drivers/spi/spi_core.c:239:16
	str	r0, [sp, #24]
	.loc	3 240 5                         @ rt-thread/components/drivers/spi/spi_core.c:240:5
	b	.LBB4_16
.Ltmp91:
.LBB4_15:
	.loc	3 0 5 is_stmt 0                 @ rt-thread/components/drivers/spi/spi_core.c:0:5
	mvn	r0, #7
.Ltmp92:
	.loc	3 243 9 is_stmt 1               @ rt-thread/components/drivers/spi/spi_core.c:243:9
	str	r0, [sp, #44]
	b	.LBB4_18
.Ltmp93:
.LBB4_16:
	.loc	3 190 19                        @ rt-thread/components/drivers/spi/spi_core.c:190:19
	b	.LBB4_17
.Ltmp94:
.LBB4_17:
	@DEBUG_LABEL: rt_spi_send_then_recv:__exit
	.loc	3 247 24                        @ rt-thread/components/drivers/spi/spi_core.c:247:24
	ldr	r0, [sp, #40]
	.loc	3 247 32 is_stmt 0              @ rt-thread/components/drivers/spi/spi_core.c:247:32
	ldr	r0, [r0, #80]
	.loc	3 247 37                        @ rt-thread/components/drivers/spi/spi_core.c:247:37
	adds	r0, #88
	.loc	3 247 5                         @ rt-thread/components/drivers/spi/spi_core.c:247:5
	bl	rt_mutex_release
	.loc	3 249 12 is_stmt 1              @ rt-thread/components/drivers/spi/spi_core.c:249:12
	ldr	r0, [sp, #24]
	.loc	3 249 5 is_stmt 0               @ rt-thread/components/drivers/spi/spi_core.c:249:5
	str	r0, [sp, #44]
	b	.LBB4_18
.LBB4_18:
	.loc	3 250 1 is_stmt 1               @ rt-thread/components/drivers/spi/spi_core.c:250:1
	ldr	r0, [sp, #44]
	add	sp, #48
	pop	{r7, pc}
.Ltmp95:
.Lfunc_end4:
	.size	rt_spi_send_then_recv, .Lfunc_end4-rt_spi_send_then_recv
	.cfi_endproc
	.cantunwind
	.fnend
                                        @ -- End function
	.section	.text.rt_spi_transfer,"ax",%progbits
	.hidden	rt_spi_transfer                 @ -- Begin function rt_spi_transfer
	.globl	rt_spi_transfer
	.p2align	3
	.type	rt_spi_transfer,%function
	.code	16                              @ @rt_spi_transfer
	.thumb_func
rt_spi_transfer:
.Lfunc_begin5:
	.loc	3 256 0                         @ rt-thread/components/drivers/spi/spi_core.c:256:0
	.fnstart
	.cfi_startproc
@ %bb.0:
	.save	{r7, lr}
	push	{r7, lr}
	.cfi_def_cfa_offset 8
	.cfi_offset lr, -4
	.cfi_offset r7, -8
	.pad	#48
	sub	sp, #48
	.cfi_def_cfa_offset 56
	str	r0, [sp, #40]
	str	r1, [sp, #36]
	str	r2, [sp, #32]
	str	r3, [sp, #28]
.Ltmp96:
	.loc	3 260 5 prologue_end            @ rt-thread/components/drivers/spi/spi_core.c:260:5
	ldr	r0, [sp, #40]
.Ltmp97:
	.loc	3 260 5 is_stmt 0               @ rt-thread/components/drivers/spi/spi_core.c:260:5
	cbnz	r0, .LBB5_2
	b	.LBB5_1
.LBB5_1:
.Ltmp98:
	.loc	3 260 5                         @ rt-thread/components/drivers/spi/spi_core.c:260:5
	movw	r0, :lower16:.L.str
	movt	r0, :upper16:.L.str
	movw	r1, :lower16:.L__FUNCTION__.rt_spi_transfer
	movt	r1, :upper16:.L__FUNCTION__.rt_spi_transfer
	mov.w	r2, #260
	bl	rt_assert_handler
	b	.LBB5_2
.Ltmp99:
.LBB5_2:
	.loc	3 261 5 is_stmt 1               @ rt-thread/components/drivers/spi/spi_core.c:261:5
	ldr	r0, [sp, #40]
	ldr	r0, [r0, #80]
.Ltmp100:
	.loc	3 261 5 is_stmt 0               @ rt-thread/components/drivers/spi/spi_core.c:261:5
	cbnz	r0, .LBB5_4
	b	.LBB5_3
.LBB5_3:
.Ltmp101:
	.loc	3 261 5                         @ rt-thread/components/drivers/spi/spi_core.c:261:5
	movw	r0, :lower16:.L.str.1
	movt	r0, :upper16:.L.str.1
	movw	r1, :lower16:.L__FUNCTION__.rt_spi_transfer
	movt	r1, :upper16:.L__FUNCTION__.rt_spi_transfer
	movw	r2, #261
	bl	rt_assert_handler
	b	.LBB5_4
.Ltmp102:
.LBB5_4:
	.loc	3 263 30 is_stmt 1              @ rt-thread/components/drivers/spi/spi_core.c:263:30
	ldr	r0, [sp, #40]
	.loc	3 263 38 is_stmt 0              @ rt-thread/components/drivers/spi/spi_core.c:263:38
	ldr	r0, [r0, #80]
	.loc	3 263 43                        @ rt-thread/components/drivers/spi/spi_core.c:263:43
	adds	r0, #88
	mov.w	r1, #-1
	.loc	3 263 14                        @ rt-thread/components/drivers/spi/spi_core.c:263:14
	bl	rt_mutex_take
	.loc	3 263 12                        @ rt-thread/components/drivers/spi/spi_core.c:263:12
	str	r0, [sp, #24]
.Ltmp103:
	.loc	3 264 9 is_stmt 1               @ rt-thread/components/drivers/spi/spi_core.c:264:9
	ldr	r0, [sp, #24]
.Ltmp104:
	.loc	3 264 9 is_stmt 0               @ rt-thread/components/drivers/spi/spi_core.c:264:9
	cmp	r0, #0
	bne	.LBB5_13
	b	.LBB5_5
.LBB5_5:
.Ltmp105:
	.loc	3 266 13 is_stmt 1              @ rt-thread/components/drivers/spi/spi_core.c:266:13
	ldr	r1, [sp, #40]
	.loc	3 266 21 is_stmt 0              @ rt-thread/components/drivers/spi/spi_core.c:266:21
	ldr	r0, [r1, #80]
	.loc	3 266 26                        @ rt-thread/components/drivers/spi/spi_core.c:266:26
	ldr	r0, [r0, #124]
.Ltmp106:
	.loc	3 266 13                        @ rt-thread/components/drivers/spi/spi_core.c:266:13
	cmp	r0, r1
	beq	.LBB5_10
	b	.LBB5_6
.LBB5_6:
.Ltmp107:
	.loc	3 269 22 is_stmt 1              @ rt-thread/components/drivers/spi/spi_core.c:269:22
	ldr	r0, [sp, #40]
	.loc	3 269 30 is_stmt 0              @ rt-thread/components/drivers/spi/spi_core.c:269:30
	ldr	r1, [r0, #80]
	.loc	3 269 35                        @ rt-thread/components/drivers/spi/spi_core.c:269:35
	ldr	r1, [r1, #84]
	.loc	3 269 40                        @ rt-thread/components/drivers/spi/spi_core.c:269:40
	ldr	r2, [r1]
	.loc	3 269 67                        @ rt-thread/components/drivers/spi/spi_core.c:269:67
	add.w	r1, r0, #84
	.loc	3 269 22                        @ rt-thread/components/drivers/spi/spi_core.c:269:22
	blx	r2
	.loc	3 269 20                        @ rt-thread/components/drivers/spi/spi_core.c:269:20
	str	r0, [sp, #24]
.Ltmp108:
	.loc	3 270 17 is_stmt 1              @ rt-thread/components/drivers/spi/spi_core.c:270:17
	ldr	r0, [sp, #24]
.Ltmp109:
	.loc	3 270 17 is_stmt 0              @ rt-thread/components/drivers/spi/spi_core.c:270:17
	cbnz	r0, .LBB5_8
	b	.LBB5_7
.LBB5_7:
.Ltmp110:
	.loc	3 273 38 is_stmt 1              @ rt-thread/components/drivers/spi/spi_core.c:273:38
	ldr	r0, [sp, #40]
	.loc	3 273 25 is_stmt 0              @ rt-thread/components/drivers/spi/spi_core.c:273:25
	ldr	r1, [r0, #80]
	.loc	3 273 36                        @ rt-thread/components/drivers/spi/spi_core.c:273:36
	str	r0, [r1, #124]
	.loc	3 274 13 is_stmt 1              @ rt-thread/components/drivers/spi/spi_core.c:274:13
	b	.LBB5_9
.Ltmp111:
.LBB5_8:
	.loc	3 0 13 is_stmt 0                @ rt-thread/components/drivers/spi/spi_core.c:0:13
	mvn	r0, #7
.Ltmp112:
	.loc	3 278 17 is_stmt 1              @ rt-thread/components/drivers/spi/spi_core.c:278:17
	bl	rt_set_errno
	movs	r0, #0
	.loc	3 279 24                        @ rt-thread/components/drivers/spi/spi_core.c:279:24
	str	r0, [sp, #24]
	.loc	3 280 17                        @ rt-thread/components/drivers/spi/spi_core.c:280:17
	b	.LBB5_15
.Ltmp113:
.LBB5_9:
	.loc	3 282 9                         @ rt-thread/components/drivers/spi/spi_core.c:282:9
	b	.LBB5_10
.Ltmp114:
.LBB5_10:
	.loc	3 285 30                        @ rt-thread/components/drivers/spi/spi_core.c:285:30
	ldr	r0, [sp, #36]
	.loc	3 285 28 is_stmt 0              @ rt-thread/components/drivers/spi/spi_core.c:285:28
	str	r0, [sp, #4]
	.loc	3 286 30 is_stmt 1              @ rt-thread/components/drivers/spi/spi_core.c:286:30
	ldr	r0, [sp, #32]
	.loc	3 286 28 is_stmt 0              @ rt-thread/components/drivers/spi/spi_core.c:286:28
	str	r0, [sp, #8]
	.loc	3 287 30 is_stmt 1              @ rt-thread/components/drivers/spi/spi_core.c:287:30
	ldr	r0, [sp, #28]
	.loc	3 287 28 is_stmt 0              @ rt-thread/components/drivers/spi/spi_core.c:287:28
	str	r0, [sp, #12]
	.loc	3 288 28 is_stmt 1              @ rt-thread/components/drivers/spi/spi_core.c:288:28
	ldrb.w	r0, [sp, #20]
	orr	r0, r0, #1
	strb.w	r0, [sp, #20]
	.loc	3 289 28                        @ rt-thread/components/drivers/spi/spi_core.c:289:28
	ldrb.w	r0, [sp, #20]
	orr	r0, r0, #2
	strb.w	r0, [sp, #20]
	movs	r0, #0
	.loc	3 290 28                        @ rt-thread/components/drivers/spi/spi_core.c:290:28
	str	r0, [sp, #16]
	.loc	3 293 18                        @ rt-thread/components/drivers/spi/spi_core.c:293:18
	ldr	r0, [sp, #40]
	.loc	3 293 26 is_stmt 0              @ rt-thread/components/drivers/spi/spi_core.c:293:26
	ldr	r1, [r0, #80]
	.loc	3 293 31                        @ rt-thread/components/drivers/spi/spi_core.c:293:31
	ldr	r1, [r1, #84]
	.loc	3 293 36                        @ rt-thread/components/drivers/spi/spi_core.c:293:36
	ldr	r2, [r1, #4]
	add	r1, sp, #4
	.loc	3 293 18                        @ rt-thread/components/drivers/spi/spi_core.c:293:18
	blx	r2
	.loc	3 293 16                        @ rt-thread/components/drivers/spi/spi_core.c:293:16
	str	r0, [sp, #24]
.Ltmp115:
	.loc	3 294 13 is_stmt 1              @ rt-thread/components/drivers/spi/spi_core.c:294:13
	ldr	r0, [sp, #24]
.Ltmp116:
	.loc	3 294 13 is_stmt 0              @ rt-thread/components/drivers/spi/spi_core.c:294:13
	cbnz	r0, .LBB5_12
	b	.LBB5_11
.LBB5_11:
	.loc	3 0 13                          @ rt-thread/components/drivers/spi/spi_core.c:0:13
	mvn	r0, #7
.Ltmp117:
	.loc	3 296 13 is_stmt 1              @ rt-thread/components/drivers/spi/spi_core.c:296:13
	bl	rt_set_errno
	.loc	3 297 13                        @ rt-thread/components/drivers/spi/spi_core.c:297:13
	b	.LBB5_15
.Ltmp118:
.LBB5_12:
	.loc	3 299 5                         @ rt-thread/components/drivers/spi/spi_core.c:299:5
	b	.LBB5_14
.Ltmp119:
.LBB5_13:
	.loc	3 0 5 is_stmt 0                 @ rt-thread/components/drivers/spi/spi_core.c:0:5
	mvn	r0, #7
.Ltmp120:
	.loc	3 302 9 is_stmt 1               @ rt-thread/components/drivers/spi/spi_core.c:302:9
	bl	rt_set_errno
	movs	r0, #0
	.loc	3 304 9                         @ rt-thread/components/drivers/spi/spi_core.c:304:9
	str	r0, [sp, #44]
	b	.LBB5_16
.Ltmp121:
.LBB5_14:
	.loc	3 264 19                        @ rt-thread/components/drivers/spi/spi_core.c:264:19
	b	.LBB5_15
.Ltmp122:
.LBB5_15:
	@DEBUG_LABEL: rt_spi_transfer:__exit
	.loc	3 308 24                        @ rt-thread/components/drivers/spi/spi_core.c:308:24
	ldr	r0, [sp, #40]
	.loc	3 308 32 is_stmt 0              @ rt-thread/components/drivers/spi/spi_core.c:308:32
	ldr	r0, [r0, #80]
	.loc	3 308 37                        @ rt-thread/components/drivers/spi/spi_core.c:308:37
	adds	r0, #88
	.loc	3 308 5                         @ rt-thread/components/drivers/spi/spi_core.c:308:5
	bl	rt_mutex_release
	.loc	3 310 12 is_stmt 1              @ rt-thread/components/drivers/spi/spi_core.c:310:12
	ldr	r0, [sp, #24]
	.loc	3 310 5 is_stmt 0               @ rt-thread/components/drivers/spi/spi_core.c:310:5
	str	r0, [sp, #44]
	b	.LBB5_16
.LBB5_16:
	.loc	3 311 1 is_stmt 1               @ rt-thread/components/drivers/spi/spi_core.c:311:1
	ldr	r0, [sp, #44]
	add	sp, #48
	pop	{r7, pc}
.Ltmp123:
.Lfunc_end5:
	.size	rt_spi_transfer, .Lfunc_end5-rt_spi_transfer
	.cfi_endproc
	.cantunwind
	.fnend
                                        @ -- End function
	.section	.text.rt_spi_transfer_message,"ax",%progbits
	.hidden	rt_spi_transfer_message         @ -- Begin function rt_spi_transfer_message
	.globl	rt_spi_transfer_message
	.p2align	3
	.type	rt_spi_transfer_message,%function
	.code	16                              @ @rt_spi_transfer_message
	.thumb_func
rt_spi_transfer_message:
.Lfunc_begin6:
	.loc	3 315 0                         @ rt-thread/components/drivers/spi/spi_core.c:315:0
	.fnstart
	.cfi_startproc
@ %bb.0:
	.save	{r7, lr}
	push	{r7, lr}
	.cfi_def_cfa_offset 8
	.cfi_offset lr, -4
	.cfi_offset r7, -8
	.pad	#24
	sub	sp, #24
	.cfi_def_cfa_offset 32
	str	r0, [sp, #16]
	str	r1, [sp, #12]
.Ltmp124:
	.loc	3 319 5 prologue_end            @ rt-thread/components/drivers/spi/spi_core.c:319:5
	ldr	r0, [sp, #16]
.Ltmp125:
	.loc	3 319 5 is_stmt 0               @ rt-thread/components/drivers/spi/spi_core.c:319:5
	cbnz	r0, .LBB6_2
	b	.LBB6_1
.LBB6_1:
.Ltmp126:
	.loc	3 319 5                         @ rt-thread/components/drivers/spi/spi_core.c:319:5
	movw	r0, :lower16:.L.str
	movt	r0, :upper16:.L.str
	movw	r1, :lower16:.L__FUNCTION__.rt_spi_transfer_message
	movt	r1, :upper16:.L__FUNCTION__.rt_spi_transfer_message
	movw	r2, #319
	bl	rt_assert_handler
	b	.LBB6_2
.Ltmp127:
.LBB6_2:
	.loc	3 322 13 is_stmt 1              @ rt-thread/components/drivers/spi/spi_core.c:322:13
	ldr	r0, [sp, #12]
	.loc	3 322 11 is_stmt 0              @ rt-thread/components/drivers/spi/spi_core.c:322:11
	str	r0, [sp, #4]
.Ltmp128:
	.loc	3 323 9 is_stmt 1               @ rt-thread/components/drivers/spi/spi_core.c:323:9
	ldr	r0, [sp, #4]
.Ltmp129:
	.loc	3 323 9 is_stmt 0               @ rt-thread/components/drivers/spi/spi_core.c:323:9
	cbnz	r0, .LBB6_4
	b	.LBB6_3
.LBB6_3:
.Ltmp130:
	.loc	3 324 16 is_stmt 1              @ rt-thread/components/drivers/spi/spi_core.c:324:16
	ldr	r0, [sp, #4]
	.loc	3 324 9 is_stmt 0               @ rt-thread/components/drivers/spi/spi_core.c:324:9
	str	r0, [sp, #20]
	b	.LBB6_18
.Ltmp131:
.LBB6_4:
	.loc	3 326 30 is_stmt 1              @ rt-thread/components/drivers/spi/spi_core.c:326:30
	ldr	r0, [sp, #16]
	.loc	3 326 38 is_stmt 0              @ rt-thread/components/drivers/spi/spi_core.c:326:38
	ldr	r0, [r0, #80]
	.loc	3 326 43                        @ rt-thread/components/drivers/spi/spi_core.c:326:43
	adds	r0, #88
	mov.w	r1, #-1
	.loc	3 326 14                        @ rt-thread/components/drivers/spi/spi_core.c:326:14
	bl	rt_mutex_take
	.loc	3 326 12                        @ rt-thread/components/drivers/spi/spi_core.c:326:12
	str	r0, [sp, #8]
.Ltmp132:
	.loc	3 327 9 is_stmt 1               @ rt-thread/components/drivers/spi/spi_core.c:327:9
	ldr	r0, [sp, #8]
.Ltmp133:
	.loc	3 327 9 is_stmt 0               @ rt-thread/components/drivers/spi/spi_core.c:327:9
	cbz	r0, .LBB6_6
	b	.LBB6_5
.LBB6_5:
	.loc	3 0 9                           @ rt-thread/components/drivers/spi/spi_core.c:0:9
	mvn	r0, #6
.Ltmp134:
	.loc	3 329 9 is_stmt 1               @ rt-thread/components/drivers/spi/spi_core.c:329:9
	bl	rt_set_errno
	.loc	3 331 16                        @ rt-thread/components/drivers/spi/spi_core.c:331:16
	ldr	r0, [sp, #4]
	.loc	3 331 9 is_stmt 0               @ rt-thread/components/drivers/spi/spi_core.c:331:9
	str	r0, [sp, #20]
	b	.LBB6_18
.Ltmp135:
.LBB6_6:
	.loc	3 0 9                           @ rt-thread/components/drivers/spi/spi_core.c:0:9
	movs	r0, #0
	.loc	3 335 5 is_stmt 1               @ rt-thread/components/drivers/spi/spi_core.c:335:5
	bl	rt_set_errno
.Ltmp136:
	.loc	3 338 9                         @ rt-thread/components/drivers/spi/spi_core.c:338:9
	ldr	r1, [sp, #16]
	.loc	3 338 17 is_stmt 0              @ rt-thread/components/drivers/spi/spi_core.c:338:17
	ldr	r0, [r1, #80]
	.loc	3 338 22                        @ rt-thread/components/drivers/spi/spi_core.c:338:22
	ldr	r0, [r0, #124]
.Ltmp137:
	.loc	3 338 9                         @ rt-thread/components/drivers/spi/spi_core.c:338:9
	cmp	r0, r1
	beq	.LBB6_11
	b	.LBB6_7
.LBB6_7:
.Ltmp138:
	.loc	3 341 18 is_stmt 1              @ rt-thread/components/drivers/spi/spi_core.c:341:18
	ldr	r0, [sp, #16]
	.loc	3 341 26 is_stmt 0              @ rt-thread/components/drivers/spi/spi_core.c:341:26
	ldr	r1, [r0, #80]
	.loc	3 341 31                        @ rt-thread/components/drivers/spi/spi_core.c:341:31
	ldr	r1, [r1, #84]
	.loc	3 341 36                        @ rt-thread/components/drivers/spi/spi_core.c:341:36
	ldr	r2, [r1]
	.loc	3 341 63                        @ rt-thread/components/drivers/spi/spi_core.c:341:63
	add.w	r1, r0, #84
	.loc	3 341 18                        @ rt-thread/components/drivers/spi/spi_core.c:341:18
	blx	r2
	.loc	3 341 16                        @ rt-thread/components/drivers/spi/spi_core.c:341:16
	str	r0, [sp, #8]
.Ltmp139:
	.loc	3 342 13 is_stmt 1              @ rt-thread/components/drivers/spi/spi_core.c:342:13
	ldr	r0, [sp, #8]
.Ltmp140:
	.loc	3 342 13 is_stmt 0              @ rt-thread/components/drivers/spi/spi_core.c:342:13
	cbnz	r0, .LBB6_9
	b	.LBB6_8
.LBB6_8:
.Ltmp141:
	.loc	3 345 34 is_stmt 1              @ rt-thread/components/drivers/spi/spi_core.c:345:34
	ldr	r0, [sp, #16]
	.loc	3 345 21 is_stmt 0              @ rt-thread/components/drivers/spi/spi_core.c:345:21
	ldr	r1, [r0, #80]
	.loc	3 345 32                        @ rt-thread/components/drivers/spi/spi_core.c:345:32
	str	r0, [r1, #124]
	.loc	3 346 9 is_stmt 1               @ rt-thread/components/drivers/spi/spi_core.c:346:9
	b	.LBB6_10
.Ltmp142:
.LBB6_9:
	.loc	3 0 9 is_stmt 0                 @ rt-thread/components/drivers/spi/spi_core.c:0:9
	mvn	r0, #7
.Ltmp143:
	.loc	3 350 13 is_stmt 1              @ rt-thread/components/drivers/spi/spi_core.c:350:13
	bl	rt_set_errno
	.loc	3 351 13                        @ rt-thread/components/drivers/spi/spi_core.c:351:13
	b	.LBB6_17
.Ltmp144:
.LBB6_10:
	.loc	3 353 5                         @ rt-thread/components/drivers/spi/spi_core.c:353:5
	b	.LBB6_11
.Ltmp145:
.LBB6_11:
	.loc	3 356 5                         @ rt-thread/components/drivers/spi/spi_core.c:356:5
	b	.LBB6_12
.LBB6_12:                               @ =>This Inner Loop Header: Depth=1
	.loc	3 356 12 is_stmt 0              @ rt-thread/components/drivers/spi/spi_core.c:356:12
	ldr	r0, [sp, #4]
	.loc	3 356 5                         @ rt-thread/components/drivers/spi/spi_core.c:356:5
	cbz	r0, .LBB6_16
	b	.LBB6_13
.LBB6_13:                               @   in Loop: Header=BB6_12 Depth=1
.Ltmp146:
	.loc	3 359 18 is_stmt 1              @ rt-thread/components/drivers/spi/spi_core.c:359:18
	ldr	r0, [sp, #16]
	.loc	3 359 26 is_stmt 0              @ rt-thread/components/drivers/spi/spi_core.c:359:26
	ldr	r1, [r0, #80]
	.loc	3 359 31                        @ rt-thread/components/drivers/spi/spi_core.c:359:31
	ldr	r1, [r1, #84]
	.loc	3 359 36                        @ rt-thread/components/drivers/spi/spi_core.c:359:36
	ldr	r2, [r1, #4]
	.loc	3 359 49                        @ rt-thread/components/drivers/spi/spi_core.c:359:49
	ldr	r1, [sp, #4]
	.loc	3 359 18                        @ rt-thread/components/drivers/spi/spi_core.c:359:18
	blx	r2
	.loc	3 359 16                        @ rt-thread/components/drivers/spi/spi_core.c:359:16
	str	r0, [sp, #8]
.Ltmp147:
	.loc	3 360 13 is_stmt 1              @ rt-thread/components/drivers/spi/spi_core.c:360:13
	ldr	r0, [sp, #8]
.Ltmp148:
	.loc	3 360 13 is_stmt 0              @ rt-thread/components/drivers/spi/spi_core.c:360:13
	cbnz	r0, .LBB6_15
	b	.LBB6_14
.LBB6_14:
	.loc	3 0 13                          @ rt-thread/components/drivers/spi/spi_core.c:0:13
	mvn	r0, #7
.Ltmp149:
	.loc	3 362 13 is_stmt 1              @ rt-thread/components/drivers/spi/spi_core.c:362:13
	bl	rt_set_errno
	.loc	3 363 13                        @ rt-thread/components/drivers/spi/spi_core.c:363:13
	b	.LBB6_16
.Ltmp150:
.LBB6_15:                               @   in Loop: Header=BB6_12 Depth=1
	.loc	3 366 17                        @ rt-thread/components/drivers/spi/spi_core.c:366:17
	ldr	r0, [sp, #4]
	.loc	3 366 24 is_stmt 0              @ rt-thread/components/drivers/spi/spi_core.c:366:24
	ldr	r0, [r0, #12]
	.loc	3 366 15                        @ rt-thread/components/drivers/spi/spi_core.c:366:15
	str	r0, [sp, #4]
.Ltmp151:
	.loc	3 356 5 is_stmt 1               @ rt-thread/components/drivers/spi/spi_core.c:356:5
	b	.LBB6_12
.LBB6_16:
	b	.LBB6_17
.LBB6_17:
.Ltmp152:
	@DEBUG_LABEL: rt_spi_transfer_message:__exit
	.loc	3 371 24                        @ rt-thread/components/drivers/spi/spi_core.c:371:24
	ldr	r0, [sp, #16]
	.loc	3 371 32 is_stmt 0              @ rt-thread/components/drivers/spi/spi_core.c:371:32
	ldr	r0, [r0, #80]
	.loc	3 371 37                        @ rt-thread/components/drivers/spi/spi_core.c:371:37
	adds	r0, #88
	.loc	3 371 5                         @ rt-thread/components/drivers/spi/spi_core.c:371:5
	bl	rt_mutex_release
	.loc	3 373 12 is_stmt 1              @ rt-thread/components/drivers/spi/spi_core.c:373:12
	ldr	r0, [sp, #4]
	.loc	3 373 5 is_stmt 0               @ rt-thread/components/drivers/spi/spi_core.c:373:5
	str	r0, [sp, #20]
	b	.LBB6_18
.LBB6_18:
	.loc	3 374 1 is_stmt 1               @ rt-thread/components/drivers/spi/spi_core.c:374:1
	ldr	r0, [sp, #20]
	add	sp, #24
	pop	{r7, pc}
.Ltmp153:
.Lfunc_end6:
	.size	rt_spi_transfer_message, .Lfunc_end6-rt_spi_transfer_message
	.cfi_endproc
	.cantunwind
	.fnend
                                        @ -- End function
	.section	.text.rt_spi_take_bus,"ax",%progbits
	.hidden	rt_spi_take_bus                 @ -- Begin function rt_spi_take_bus
	.globl	rt_spi_take_bus
	.p2align	3
	.type	rt_spi_take_bus,%function
	.code	16                              @ @rt_spi_take_bus
	.thumb_func
rt_spi_take_bus:
.Lfunc_begin7:
	.loc	3 377 0                         @ rt-thread/components/drivers/spi/spi_core.c:377:0
	.fnstart
	.cfi_startproc
@ %bb.0:
	.save	{r7, lr}
	push	{r7, lr}
	.cfi_def_cfa_offset 8
	.cfi_offset lr, -4
	.cfi_offset r7, -8
	.pad	#24
	sub	sp, #24
	.cfi_def_cfa_offset 32
	str	r0, [sp, #16]
	movs	r0, #0
.Ltmp154:
	.loc	3 378 14 prologue_end           @ rt-thread/components/drivers/spi/spi_core.c:378:14
	str	r0, [sp, #12]
.Ltmp155:
	.loc	3 380 5                         @ rt-thread/components/drivers/spi/spi_core.c:380:5
	ldr	r0, [sp, #16]
.Ltmp156:
	.loc	3 380 5 is_stmt 0               @ rt-thread/components/drivers/spi/spi_core.c:380:5
	cbnz	r0, .LBB7_2
	b	.LBB7_1
.LBB7_1:
.Ltmp157:
	.loc	3 380 5                         @ rt-thread/components/drivers/spi/spi_core.c:380:5
	movw	r0, :lower16:.L.str
	movt	r0, :upper16:.L.str
	movw	r1, :lower16:.L__FUNCTION__.rt_spi_take_bus
	movt	r1, :upper16:.L__FUNCTION__.rt_spi_take_bus
	mov.w	r2, #380
	bl	rt_assert_handler
	b	.LBB7_2
.Ltmp158:
.LBB7_2:
	.loc	3 381 5 is_stmt 1               @ rt-thread/components/drivers/spi/spi_core.c:381:5
	ldr	r0, [sp, #16]
	ldr	r0, [r0, #80]
.Ltmp159:
	.loc	3 381 5 is_stmt 0               @ rt-thread/components/drivers/spi/spi_core.c:381:5
	cbnz	r0, .LBB7_4
	b	.LBB7_3
.LBB7_3:
.Ltmp160:
	.loc	3 381 5                         @ rt-thread/components/drivers/spi/spi_core.c:381:5
	movw	r0, :lower16:.L.str.1
	movt	r0, :upper16:.L.str.1
	movw	r1, :lower16:.L__FUNCTION__.rt_spi_take_bus
	movt	r1, :upper16:.L__FUNCTION__.rt_spi_take_bus
	movw	r2, #381
	bl	rt_assert_handler
	b	.LBB7_4
.Ltmp161:
.LBB7_4:
	.loc	3 383 30 is_stmt 1              @ rt-thread/components/drivers/spi/spi_core.c:383:30
	ldr	r0, [sp, #16]
	.loc	3 383 38 is_stmt 0              @ rt-thread/components/drivers/spi/spi_core.c:383:38
	ldr	r0, [r0, #80]
	.loc	3 383 43                        @ rt-thread/components/drivers/spi/spi_core.c:383:43
	adds	r0, #88
	mov.w	r1, #-1
	.loc	3 383 14                        @ rt-thread/components/drivers/spi/spi_core.c:383:14
	bl	rt_mutex_take
	.loc	3 383 12                        @ rt-thread/components/drivers/spi/spi_core.c:383:12
	str	r0, [sp, #12]
.Ltmp162:
	.loc	3 384 9 is_stmt 1               @ rt-thread/components/drivers/spi/spi_core.c:384:9
	ldr	r0, [sp, #12]
.Ltmp163:
	.loc	3 384 9 is_stmt 0               @ rt-thread/components/drivers/spi/spi_core.c:384:9
	cbz	r0, .LBB7_6
	b	.LBB7_5
.LBB7_5:
	.loc	3 0 9                           @ rt-thread/components/drivers/spi/spi_core.c:0:9
	mvn	r0, #6
.Ltmp164:
	.loc	3 386 9 is_stmt 1               @ rt-thread/components/drivers/spi/spi_core.c:386:9
	str	r0, [sp, #8]                    @ 4-byte Spill
	bl	rt_set_errno
	ldr	r0, [sp, #8]                    @ 4-byte Reload
	.loc	3 388 9                         @ rt-thread/components/drivers/spi/spi_core.c:388:9
	str	r0, [sp, #20]
	b	.LBB7_12
.Ltmp165:
.LBB7_6:
	.loc	3 0 9 is_stmt 0                 @ rt-thread/components/drivers/spi/spi_core.c:0:9
	movs	r0, #0
	.loc	3 392 5 is_stmt 1               @ rt-thread/components/drivers/spi/spi_core.c:392:5
	bl	rt_set_errno
.Ltmp166:
	.loc	3 395 9                         @ rt-thread/components/drivers/spi/spi_core.c:395:9
	ldr	r1, [sp, #16]
	.loc	3 395 17 is_stmt 0              @ rt-thread/components/drivers/spi/spi_core.c:395:17
	ldr	r0, [r1, #80]
	.loc	3 395 22                        @ rt-thread/components/drivers/spi/spi_core.c:395:22
	ldr	r0, [r0, #124]
.Ltmp167:
	.loc	3 395 9                         @ rt-thread/components/drivers/spi/spi_core.c:395:9
	cmp	r0, r1
	beq	.LBB7_11
	b	.LBB7_7
.LBB7_7:
.Ltmp168:
	.loc	3 398 18 is_stmt 1              @ rt-thread/components/drivers/spi/spi_core.c:398:18
	ldr	r0, [sp, #16]
	.loc	3 398 26 is_stmt 0              @ rt-thread/components/drivers/spi/spi_core.c:398:26
	ldr	r1, [r0, #80]
	.loc	3 398 31                        @ rt-thread/components/drivers/spi/spi_core.c:398:31
	ldr	r1, [r1, #84]
	.loc	3 398 36                        @ rt-thread/components/drivers/spi/spi_core.c:398:36
	ldr	r2, [r1]
	.loc	3 398 63                        @ rt-thread/components/drivers/spi/spi_core.c:398:63
	add.w	r1, r0, #84
	.loc	3 398 18                        @ rt-thread/components/drivers/spi/spi_core.c:398:18
	blx	r2
	.loc	3 398 16                        @ rt-thread/components/drivers/spi/spi_core.c:398:16
	str	r0, [sp, #12]
.Ltmp169:
	.loc	3 399 13 is_stmt 1              @ rt-thread/components/drivers/spi/spi_core.c:399:13
	ldr	r0, [sp, #12]
.Ltmp170:
	.loc	3 399 13 is_stmt 0              @ rt-thread/components/drivers/spi/spi_core.c:399:13
	cbnz	r0, .LBB7_9
	b	.LBB7_8
.LBB7_8:
.Ltmp171:
	.loc	3 402 34 is_stmt 1              @ rt-thread/components/drivers/spi/spi_core.c:402:34
	ldr	r0, [sp, #16]
	.loc	3 402 21 is_stmt 0              @ rt-thread/components/drivers/spi/spi_core.c:402:21
	ldr	r1, [r0, #80]
	.loc	3 402 32                        @ rt-thread/components/drivers/spi/spi_core.c:402:32
	str	r0, [r1, #124]
	.loc	3 403 9 is_stmt 1               @ rt-thread/components/drivers/spi/spi_core.c:403:9
	b	.LBB7_10
.Ltmp172:
.LBB7_9:
	.loc	3 0 9 is_stmt 0                 @ rt-thread/components/drivers/spi/spi_core.c:0:9
	mvn	r0, #7
.Ltmp173:
	.loc	3 407 13 is_stmt 1              @ rt-thread/components/drivers/spi/spi_core.c:407:13
	str	r0, [sp, #4]                    @ 4-byte Spill
	bl	rt_set_errno
	.loc	3 409 32                        @ rt-thread/components/drivers/spi/spi_core.c:409:32
	ldr	r0, [sp, #16]
	.loc	3 409 40 is_stmt 0              @ rt-thread/components/drivers/spi/spi_core.c:409:40
	ldr	r0, [r0, #80]
	.loc	3 409 45                        @ rt-thread/components/drivers/spi/spi_core.c:409:45
	adds	r0, #88
	.loc	3 409 13                        @ rt-thread/components/drivers/spi/spi_core.c:409:13
	bl	rt_mutex_release
                                        @ kill: def $r1 killed $r0
	.loc	3 411 13 is_stmt 1              @ rt-thread/components/drivers/spi/spi_core.c:411:13
	ldr	r0, [sp, #4]                    @ 4-byte Reload
	str	r0, [sp, #20]
	b	.LBB7_12
.Ltmp174:
.LBB7_10:
	.loc	3 413 5                         @ rt-thread/components/drivers/spi/spi_core.c:413:5
	b	.LBB7_11
.Ltmp175:
.LBB7_11:
	.loc	3 415 12                        @ rt-thread/components/drivers/spi/spi_core.c:415:12
	ldr	r0, [sp, #12]
	.loc	3 415 5 is_stmt 0               @ rt-thread/components/drivers/spi/spi_core.c:415:5
	str	r0, [sp, #20]
	b	.LBB7_12
.LBB7_12:
	.loc	3 416 1 is_stmt 1               @ rt-thread/components/drivers/spi/spi_core.c:416:1
	ldr	r0, [sp, #20]
	add	sp, #24
	pop	{r7, pc}
.Ltmp176:
.Lfunc_end7:
	.size	rt_spi_take_bus, .Lfunc_end7-rt_spi_take_bus
	.cfi_endproc
	.cantunwind
	.fnend
                                        @ -- End function
	.section	.text.rt_spi_release_bus,"ax",%progbits
	.hidden	rt_spi_release_bus              @ -- Begin function rt_spi_release_bus
	.globl	rt_spi_release_bus
	.p2align	3
	.type	rt_spi_release_bus,%function
	.code	16                              @ @rt_spi_release_bus
	.thumb_func
rt_spi_release_bus:
.Lfunc_begin8:
	.loc	3 419 0                         @ rt-thread/components/drivers/spi/spi_core.c:419:0
	.fnstart
	.cfi_startproc
@ %bb.0:
	.save	{r7, lr}
	push	{r7, lr}
	.cfi_def_cfa_offset 8
	.cfi_offset lr, -4
	.cfi_offset r7, -8
	.pad	#8
	sub	sp, #8
	.cfi_def_cfa_offset 16
	str	r0, [sp, #4]
.Ltmp177:
	.loc	3 420 5 prologue_end            @ rt-thread/components/drivers/spi/spi_core.c:420:5
	ldr	r0, [sp, #4]
.Ltmp178:
	.loc	3 420 5 is_stmt 0               @ rt-thread/components/drivers/spi/spi_core.c:420:5
	cbnz	r0, .LBB8_2
	b	.LBB8_1
.LBB8_1:
.Ltmp179:
	.loc	3 420 5                         @ rt-thread/components/drivers/spi/spi_core.c:420:5
	movw	r0, :lower16:.L.str
	movt	r0, :upper16:.L.str
	movw	r1, :lower16:.L__FUNCTION__.rt_spi_release_bus
	movt	r1, :upper16:.L__FUNCTION__.rt_spi_release_bus
	mov.w	r2, #420
	bl	rt_assert_handler
	b	.LBB8_2
.Ltmp180:
.LBB8_2:
	.loc	3 421 5 is_stmt 1               @ rt-thread/components/drivers/spi/spi_core.c:421:5
	ldr	r0, [sp, #4]
	ldr	r0, [r0, #80]
.Ltmp181:
	.loc	3 421 5 is_stmt 0               @ rt-thread/components/drivers/spi/spi_core.c:421:5
	cbnz	r0, .LBB8_4
	b	.LBB8_3
.LBB8_3:
.Ltmp182:
	.loc	3 421 5                         @ rt-thread/components/drivers/spi/spi_core.c:421:5
	movw	r0, :lower16:.L.str.1
	movt	r0, :upper16:.L.str.1
	movw	r1, :lower16:.L__FUNCTION__.rt_spi_release_bus
	movt	r1, :upper16:.L__FUNCTION__.rt_spi_release_bus
	movw	r2, #421
	bl	rt_assert_handler
	b	.LBB8_4
.Ltmp183:
.LBB8_4:
	.loc	3 422 5 is_stmt 1               @ rt-thread/components/drivers/spi/spi_core.c:422:5
	ldr	r1, [sp, #4]
	ldr	r0, [r1, #80]
	ldr	r0, [r0, #124]
.Ltmp184:
	.loc	3 422 5 is_stmt 0               @ rt-thread/components/drivers/spi/spi_core.c:422:5
	cmp	r0, r1
	beq	.LBB8_6
	b	.LBB8_5
.LBB8_5:
.Ltmp185:
	.loc	3 422 5                         @ rt-thread/components/drivers/spi/spi_core.c:422:5
	movw	r0, :lower16:.L.str.2
	movt	r0, :upper16:.L.str.2
	movw	r1, :lower16:.L__FUNCTION__.rt_spi_release_bus
	movt	r1, :upper16:.L__FUNCTION__.rt_spi_release_bus
	mov.w	r2, #422
	bl	rt_assert_handler
	b	.LBB8_6
.Ltmp186:
.LBB8_6:
	.loc	3 425 24 is_stmt 1              @ rt-thread/components/drivers/spi/spi_core.c:425:24
	ldr	r0, [sp, #4]
	.loc	3 425 32 is_stmt 0              @ rt-thread/components/drivers/spi/spi_core.c:425:32
	ldr	r0, [r0, #80]
	.loc	3 425 37                        @ rt-thread/components/drivers/spi/spi_core.c:425:37
	adds	r0, #88
	.loc	3 425 5                         @ rt-thread/components/drivers/spi/spi_core.c:425:5
	bl	rt_mutex_release
	movs	r0, #0
	.loc	3 427 5 is_stmt 1               @ rt-thread/components/drivers/spi/spi_core.c:427:5
	add	sp, #8
	pop	{r7, pc}
.Ltmp187:
.Lfunc_end8:
	.size	rt_spi_release_bus, .Lfunc_end8-rt_spi_release_bus
	.cfi_endproc
	.cantunwind
	.fnend
                                        @ -- End function
	.section	.text.rt_spi_take,"ax",%progbits
	.hidden	rt_spi_take                     @ -- Begin function rt_spi_take
	.globl	rt_spi_take
	.p2align	3
	.type	rt_spi_take,%function
	.code	16                              @ @rt_spi_take
	.thumb_func
rt_spi_take:
.Lfunc_begin9:
	.loc	3 431 0                         @ rt-thread/components/drivers/spi/spi_core.c:431:0
	.fnstart
	.cfi_startproc
@ %bb.0:
	.save	{r7, lr}
	push	{r7, lr}
	.cfi_def_cfa_offset 8
	.cfi_offset lr, -4
	.cfi_offset r7, -8
	.pad	#32
	sub	sp, #32
	.cfi_def_cfa_offset 40
	str	r0, [sp, #28]
.Ltmp188:
	.loc	3 435 5 prologue_end            @ rt-thread/components/drivers/spi/spi_core.c:435:5
	ldr	r0, [sp, #28]
.Ltmp189:
	.loc	3 435 5 is_stmt 0               @ rt-thread/components/drivers/spi/spi_core.c:435:5
	cbnz	r0, .LBB9_2
	b	.LBB9_1
.LBB9_1:
.Ltmp190:
	.loc	3 435 5                         @ rt-thread/components/drivers/spi/spi_core.c:435:5
	movw	r0, :lower16:.L.str
	movt	r0, :upper16:.L.str
	movw	r1, :lower16:.L__FUNCTION__.rt_spi_take
	movt	r1, :upper16:.L__FUNCTION__.rt_spi_take
	movw	r2, #435
	bl	rt_assert_handler
	b	.LBB9_2
.Ltmp191:
.LBB9_2:
	.loc	3 436 5 is_stmt 1               @ rt-thread/components/drivers/spi/spi_core.c:436:5
	ldr	r0, [sp, #28]
	ldr	r0, [r0, #80]
.Ltmp192:
	.loc	3 436 5 is_stmt 0               @ rt-thread/components/drivers/spi/spi_core.c:436:5
	cbnz	r0, .LBB9_4
	b	.LBB9_3
.LBB9_3:
.Ltmp193:
	.loc	3 436 5                         @ rt-thread/components/drivers/spi/spi_core.c:436:5
	movw	r0, :lower16:.L.str.1
	movt	r0, :upper16:.L.str.1
	movw	r1, :lower16:.L__FUNCTION__.rt_spi_take
	movt	r1, :upper16:.L__FUNCTION__.rt_spi_take
	mov.w	r2, #436
	bl	rt_assert_handler
	b	.LBB9_4
.Ltmp194:
.LBB9_4:
	.loc	3 0 5                           @ rt-thread/components/drivers/spi/spi_core.c:0:5
	add	r0, sp, #4
	str	r0, [sp]                        @ 4-byte Spill
	movs	r1, #0
	movs	r2, #20
	.loc	3 438 5 is_stmt 1               @ rt-thread/components/drivers/spi/spi_core.c:438:5
	bl	rt_memset
	ldr	r1, [sp]                        @ 4-byte Reload
	.loc	3 439 21                        @ rt-thread/components/drivers/spi/spi_core.c:439:21
	ldrb.w	r0, [sp, #20]
	orr	r0, r0, #1
	strb.w	r0, [sp, #20]
	.loc	3 441 14                        @ rt-thread/components/drivers/spi/spi_core.c:441:14
	ldr	r0, [sp, #28]
	.loc	3 441 22 is_stmt 0              @ rt-thread/components/drivers/spi/spi_core.c:441:22
	ldr	r2, [r0, #80]
	.loc	3 441 27                        @ rt-thread/components/drivers/spi/spi_core.c:441:27
	ldr	r2, [r2, #84]
	.loc	3 441 32                        @ rt-thread/components/drivers/spi/spi_core.c:441:32
	ldr	r2, [r2, #4]
	.loc	3 441 14                        @ rt-thread/components/drivers/spi/spi_core.c:441:14
	blx	r2
	.loc	3 441 12                        @ rt-thread/components/drivers/spi/spi_core.c:441:12
	str	r0, [sp, #24]
	.loc	3 443 12 is_stmt 1              @ rt-thread/components/drivers/spi/spi_core.c:443:12
	ldr	r0, [sp, #24]
	.loc	3 443 5 is_stmt 0               @ rt-thread/components/drivers/spi/spi_core.c:443:5
	add	sp, #32
	pop	{r7, pc}
.Ltmp195:
.Lfunc_end9:
	.size	rt_spi_take, .Lfunc_end9-rt_spi_take
	.cfi_endproc
	.cantunwind
	.fnend
                                        @ -- End function
	.section	.text.rt_spi_release,"ax",%progbits
	.hidden	rt_spi_release                  @ -- Begin function rt_spi_release
	.globl	rt_spi_release
	.p2align	3
	.type	rt_spi_release,%function
	.code	16                              @ @rt_spi_release
	.thumb_func
rt_spi_release:
.Lfunc_begin10:
	.loc	3 447 0 is_stmt 1               @ rt-thread/components/drivers/spi/spi_core.c:447:0
	.fnstart
	.cfi_startproc
@ %bb.0:
	.save	{r7, lr}
	push	{r7, lr}
	.cfi_def_cfa_offset 8
	.cfi_offset lr, -4
	.cfi_offset r7, -8
	.pad	#32
	sub	sp, #32
	.cfi_def_cfa_offset 40
	str	r0, [sp, #28]
.Ltmp196:
	.loc	3 451 5 prologue_end            @ rt-thread/components/drivers/spi/spi_core.c:451:5
	ldr	r0, [sp, #28]
.Ltmp197:
	.loc	3 451 5 is_stmt 0               @ rt-thread/components/drivers/spi/spi_core.c:451:5
	cbnz	r0, .LBB10_2
	b	.LBB10_1
.LBB10_1:
.Ltmp198:
	.loc	3 451 5                         @ rt-thread/components/drivers/spi/spi_core.c:451:5
	movw	r0, :lower16:.L.str
	movt	r0, :upper16:.L.str
	movw	r1, :lower16:.L__FUNCTION__.rt_spi_release
	movt	r1, :upper16:.L__FUNCTION__.rt_spi_release
	movw	r2, #451
	bl	rt_assert_handler
	b	.LBB10_2
.Ltmp199:
.LBB10_2:
	.loc	3 452 5 is_stmt 1               @ rt-thread/components/drivers/spi/spi_core.c:452:5
	ldr	r0, [sp, #28]
	ldr	r0, [r0, #80]
.Ltmp200:
	.loc	3 452 5 is_stmt 0               @ rt-thread/components/drivers/spi/spi_core.c:452:5
	cbnz	r0, .LBB10_4
	b	.LBB10_3
.LBB10_3:
.Ltmp201:
	.loc	3 452 5                         @ rt-thread/components/drivers/spi/spi_core.c:452:5
	movw	r0, :lower16:.L.str.1
	movt	r0, :upper16:.L.str.1
	movw	r1, :lower16:.L__FUNCTION__.rt_spi_release
	movt	r1, :upper16:.L__FUNCTION__.rt_spi_release
	mov.w	r2, #452
	bl	rt_assert_handler
	b	.LBB10_4
.Ltmp202:
.LBB10_4:
	.loc	3 0 5                           @ rt-thread/components/drivers/spi/spi_core.c:0:5
	add	r0, sp, #4
	str	r0, [sp]                        @ 4-byte Spill
	movs	r1, #0
	movs	r2, #20
	.loc	3 454 5 is_stmt 1               @ rt-thread/components/drivers/spi/spi_core.c:454:5
	bl	rt_memset
	ldr	r1, [sp]                        @ 4-byte Reload
	.loc	3 455 24                        @ rt-thread/components/drivers/spi/spi_core.c:455:24
	ldrb.w	r0, [sp, #20]
	orr	r0, r0, #2
	strb.w	r0, [sp, #20]
	.loc	3 457 14                        @ rt-thread/components/drivers/spi/spi_core.c:457:14
	ldr	r0, [sp, #28]
	.loc	3 457 22 is_stmt 0              @ rt-thread/components/drivers/spi/spi_core.c:457:22
	ldr	r2, [r0, #80]
	.loc	3 457 27                        @ rt-thread/components/drivers/spi/spi_core.c:457:27
	ldr	r2, [r2, #84]
	.loc	3 457 32                        @ rt-thread/components/drivers/spi/spi_core.c:457:32
	ldr	r2, [r2, #4]
	.loc	3 457 14                        @ rt-thread/components/drivers/spi/spi_core.c:457:14
	blx	r2
	.loc	3 457 12                        @ rt-thread/components/drivers/spi/spi_core.c:457:12
	str	r0, [sp, #24]
	.loc	3 459 12 is_stmt 1              @ rt-thread/components/drivers/spi/spi_core.c:459:12
	ldr	r0, [sp, #24]
	.loc	3 459 5 is_stmt 0               @ rt-thread/components/drivers/spi/spi_core.c:459:5
	add	sp, #32
	pop	{r7, pc}
.Ltmp203:
.Lfunc_end10:
	.size	rt_spi_release, .Lfunc_end10-rt_spi_release
	.cfi_endproc
	.cantunwind
	.fnend
                                        @ -- End function
	.type	.L.str,%object                  @ @.str
	.section	.rodata.str1.1,"aMS",%progbits,1
.L.str:
	.asciz	"device != RT_NULL"
	.size	.L.str, 18

	.type	.L__FUNCTION__.rt_spi_configure,%object @ @__FUNCTION__.rt_spi_configure
.L__FUNCTION__.rt_spi_configure:
	.asciz	"rt_spi_configure"
	.size	.L__FUNCTION__.rt_spi_configure, 17

	.type	.L__FUNCTION__.rt_spi_send_then_send,%object @ @__FUNCTION__.rt_spi_send_then_send
.L__FUNCTION__.rt_spi_send_then_send:
	.asciz	"rt_spi_send_then_send"
	.size	.L__FUNCTION__.rt_spi_send_then_send, 22

	.type	.L.str.1,%object                @ @.str.1
.L.str.1:
	.asciz	"device->bus != RT_NULL"
	.size	.L.str.1, 23

	.type	.L__FUNCTION__.rt_spi_send_then_recv,%object @ @__FUNCTION__.rt_spi_send_then_recv
.L__FUNCTION__.rt_spi_send_then_recv:
	.asciz	"rt_spi_send_then_recv"
	.size	.L__FUNCTION__.rt_spi_send_then_recv, 22

	.type	.L__FUNCTION__.rt_spi_transfer,%object @ @__FUNCTION__.rt_spi_transfer
.L__FUNCTION__.rt_spi_transfer:
	.asciz	"rt_spi_transfer"
	.size	.L__FUNCTION__.rt_spi_transfer, 16

	.type	.L__FUNCTION__.rt_spi_transfer_message,%object @ @__FUNCTION__.rt_spi_transfer_message
.L__FUNCTION__.rt_spi_transfer_message:
	.asciz	"rt_spi_transfer_message"
	.size	.L__FUNCTION__.rt_spi_transfer_message, 24

	.type	.L__FUNCTION__.rt_spi_take_bus,%object @ @__FUNCTION__.rt_spi_take_bus
.L__FUNCTION__.rt_spi_take_bus:
	.asciz	"rt_spi_take_bus"
	.size	.L__FUNCTION__.rt_spi_take_bus, 16

	.type	.L__FUNCTION__.rt_spi_release_bus,%object @ @__FUNCTION__.rt_spi_release_bus
.L__FUNCTION__.rt_spi_release_bus:
	.asciz	"rt_spi_release_bus"
	.size	.L__FUNCTION__.rt_spi_release_bus, 19

	.type	.L.str.2,%object                @ @.str.2
.L.str.2:
	.asciz	"device->bus->owner == device"
	.size	.L.str.2, 29

	.type	.L__FUNCTION__.rt_spi_take,%object @ @__FUNCTION__.rt_spi_take
.L__FUNCTION__.rt_spi_take:
	.asciz	"rt_spi_take"
	.size	.L__FUNCTION__.rt_spi_take, 12

	.type	.L__FUNCTION__.rt_spi_release,%object @ @__FUNCTION__.rt_spi_release
.L__FUNCTION__.rt_spi_release:
	.asciz	"rt_spi_release"
	.size	.L__FUNCTION__.rt_spi_release, 15

	.section	".note.GNU-stack","",%progbits
	.eabi_attribute	30, 6	@ Tag_ABI_optimization_goals
	.ARM_attribute	16, 1	@ Tag_AV_eba