	.text
	.syntax unified
	.eabi_attribute	67, "2.09"	@ Tag_conformance
	.cpu	cortex-m7
	.eabi_attribute	6, 13	@ Tag_CPU_arch
	.eabi_attribute	7, 77	@ Tag_CPU_arch_profile
	.eabi_attribute	8, 0	@ Tag_ARM_ISA_use
	.eabi_attribute	9, 2	@ Tag_THUMB_ISA_use
	.fpu	fpv5-d16
	.eabi_attribute	36, 1	@ Tag_FP_HP_extension
	.eabi_attribute	34, 1	@ Tag_CPU_unaligned_access
	.eabi_attribute	17, 1	@ Tag_ABI_PCS_GOT_use
	.eabi_attribute	20, 2	@ Tag_ABI_FP_denormal
	.eabi_attribute	21, 0	@ Tag_ABI_FP_exceptions
	.eabi_attribute	23, 1	@ Tag_ABI_FP_number_model
	.eabi_attribute	24, 1	@ Tag_ABI_align_needed
	.eabi_attribute	25, 1	@ Tag_ABI_align_preserved
	.eabi_attribute	28, 1	@ Tag_ABI_VFP_args
	.eabi_attribute	38, 1	@ Tag_ABI_FP_16bit_format
	.eabi_attribute	18, 2	@ Tag_ABI_PCS_wchar_t
	.eabi_attribute	26, 1	@ Tag_ABI_enum_size
	.eabi_attribute	14, 0	@ Tag_ABI_PCS_R9_use
	.file	"spi_flash_sfud.c"
	.file	1 "E:\\Smart-access-control\\Hardware\\CODE" "rt-thread/components/drivers/spi/spi_flash_sfud.c"
	.file	2 "E:\\Smart-access-control\\Hardware\\CODE" "rt-thread/components/finsh/finsh_api.h"
	.file	3 "E:\\Smart-access-control\\Hardware\\CODE" "./rt-thread/components/drivers/spi/sfud/inc/sfud_def.h"
	.file	4 "D:\\Keil_v5\\ARM\\ARMCLANG\\Bin\\..\\include" "time.h"
	.file	5 "E:\\Smart-access-control\\Hardware\\CODE" "./rt-thread/components/drivers/spi/sfud/inc/sfud_flash_def.h"
	.file	6 "D:\\Keil_v5\\ARM\\ARMCLANG\\Bin\\..\\include" "stdint.h"
	.file	7 "E:\\Smart-access-control\\Hardware\\CODE" "rt-thread/include\\rtdef.h"
	.file	8 "E:\\Smart-access-control\\Hardware\\CODE" "rt-thread/components/drivers/spi/spi_flash.h"
	.file	9 "E:\\Smart-access-control\\Hardware\\CODE" "rt-thread/components/drivers/include/drivers/spi.h"
	.section	.text.sfud_spi_port_init,"ax",%progbits
	.hidden	sfud_spi_port_init              @ -- Begin function sfud_spi_port_init
	.globl	sfud_spi_port_init
	.p2align	3
	.type	sfud_spi_port_init,%function
	.code	16                              @ @sfud_spi_port_init
	.thumb_func
sfud_spi_port_init:
.Lfunc_begin0:
	.loc	1 252 0                         @ rt-thread/components/drivers/spi/spi_flash_sfud.c:252:0
	.fnstart
	.cfi_sections .debug_frame
	.cfi_startproc
@ %bb.0:
	.save	{r7, lr}
	push	{r7, lr}
	.cfi_def_cfa_offset 8
	.cfi_offset lr, -4
	.cfi_offset r7, -8
	.pad	#8
	sub	sp, #8
	.cfi_def_cfa_offset 16
	str	r0, [sp, #4]
	movs	r0, #0
.Ltmp0:
	.loc	1 253 14 prologue_end           @ rt-thread/components/drivers/spi/spi_flash_sfud.c:253:14
	strb.w	r0, [sp, #3]
.Ltmp1:
	.loc	1 255 5                         @ rt-thread/components/drivers/spi/spi_flash_sfud.c:255:5
	ldr	r0, [sp, #4]
.Ltmp2:
	.loc	1 255 5 is_stmt 0               @ rt-thread/components/drivers/spi/spi_flash_sfud.c:255:5
	cbnz	r0, .LBB0_2
	b	.LBB0_1
.LBB0_1:
.Ltmp3:
	.loc	1 255 5                         @ rt-thread/components/drivers/spi/spi_flash_sfud.c:255:5
	movw	r0, :lower16:.L.str
	movt	r0, :upper16:.L.str
	movw	r1, :lower16:.L__FUNCTION__.sfud_spi_port_init
	movt	r1, :upper16:.L__FUNCTION__.sfud_spi_port_init
	movs	r2, #255
	bl	rt_assert_handler
	b	.LBB0_2
.Ltmp4:
.LBB0_2:
	.loc	1 258 5 is_stmt 1               @ rt-thread/components/drivers/spi/spi_flash_sfud.c:258:5
	ldr	r1, [sp, #4]
	.loc	1 258 19 is_stmt 0              @ rt-thread/components/drivers/spi/spi_flash_sfud.c:258:19
	movw	r0, :lower16:spi_write_read
	movt	r0, :upper16:spi_write_read
	str	r0, [r1, #36]
	.loc	1 262 5 is_stmt 1               @ rt-thread/components/drivers/spi/spi_flash_sfud.c:262:5
	ldr	r1, [sp, #4]
	.loc	1 262 21 is_stmt 0              @ rt-thread/components/drivers/spi/spi_flash_sfud.c:262:21
	movw	r0, :lower16:spi_lock
	movt	r0, :upper16:spi_lock
	str	r0, [r1, #40]
	.loc	1 263 5 is_stmt 1               @ rt-thread/components/drivers/spi/spi_flash_sfud.c:263:5
	ldr	r1, [sp, #4]
	.loc	1 263 23 is_stmt 0              @ rt-thread/components/drivers/spi/spi_flash_sfud.c:263:23
	movw	r0, :lower16:spi_unlock
	movt	r0, :upper16:spi_unlock
	str	r0, [r1, #44]
	.loc	1 264 28 is_stmt 1              @ rt-thread/components/drivers/spi/spi_flash_sfud.c:264:28
	ldr	r0, [sp, #4]
	.loc	1 264 26 is_stmt 0              @ rt-thread/components/drivers/spi/spi_flash_sfud.c:264:26
	str	r0, [r0, #48]
	.loc	1 269 5 is_stmt 1               @ rt-thread/components/drivers/spi/spi_flash_sfud.c:269:5
	ldr	r1, [sp, #4]
	.loc	1 269 24 is_stmt 0              @ rt-thread/components/drivers/spi/spi_flash_sfud.c:269:24
	movw	r0, :lower16:retry_delay_100us
	movt	r0, :upper16:retry_delay_100us
	str	r0, [r1, #56]
	.loc	1 271 5 is_stmt 1               @ rt-thread/components/drivers/spi/spi_flash_sfud.c:271:5
	ldr	r1, [sp, #4]
	movw	r0, #10176
	movt	r0, #9
	.loc	1 271 24 is_stmt 0              @ rt-thread/components/drivers/spi/spi_flash_sfud.c:271:24
	str	r0, [r1, #60]
	.loc	1 273 12 is_stmt 1              @ rt-thread/components/drivers/spi/spi_flash_sfud.c:273:12
	ldrb.w	r0, [sp, #3]
	.loc	1 273 5 is_stmt 0               @ rt-thread/components/drivers/spi/spi_flash_sfud.c:273:5
	add	sp, #8
	pop	{r7, pc}
.Ltmp5:
.Lfunc_end0:
	.size	sfud_spi_port_init, .Lfunc_end0-sfud_spi_port_init
	.cfi_endproc
	.cantunwind
	.fnend
                                        @ -- End function
	.section	.text.spi_write_read,"ax",%progbits
	.p2align	3                               @ -- Begin function spi_write_read
	.type	spi_write_read,%function
	.code	16                              @ @spi_write_read
	.thumb_func
spi_write_read:
.Lfunc_begin1:
	.loc	1 128 0 is_stmt 1               @ rt-thread/components/drivers/spi/spi_flash_sfud.c:128:0
	.fnstart
	.cfi_startproc
@ %bb.0:
	.save	{r7, lr}
	push	{r7, lr}
	.cfi_def_cfa_offset 8
	.cfi_offset lr, -4
	.cfi_offset r7, -8
	.pad	#32
	sub	sp, #32
	.cfi_def_cfa_offset 40
	ldr.w	r12, [sp, #40]
	str	r0, [sp, #28]
	str	r1, [sp, #24]
	str	r2, [sp, #20]
	str	r3, [sp, #16]
	movs	r0, #0
.Ltmp6:
	.loc	1 129 14 prologue_end           @ rt-thread/components/drivers/spi/spi_flash_sfud.c:129:14
	strb.w	r0, [sp, #15]
	.loc	1 130 44                        @ rt-thread/components/drivers/spi/spi_flash_sfud.c:130:44
	ldr	r0, [sp, #28]
	.loc	1 130 49 is_stmt 0              @ rt-thread/components/drivers/spi/spi_flash_sfud.c:130:49
	ldr	r0, [r0, #16]
	.loc	1 130 17                        @ rt-thread/components/drivers/spi/spi_flash_sfud.c:130:17
	str	r0, [sp, #8]
	.loc	1 131 69 is_stmt 1              @ rt-thread/components/drivers/spi/spi_flash_sfud.c:131:69
	ldr	r0, [sp, #8]
	.loc	1 131 79 is_stmt 0              @ rt-thread/components/drivers/spi/spi_flash_sfud.c:131:79
	ldr	r0, [r0, #64]
	.loc	1 131 30                        @ rt-thread/components/drivers/spi/spi_flash_sfud.c:131:30
	str	r0, [sp, #4]
.Ltmp7:
	.loc	1 133 5 is_stmt 1               @ rt-thread/components/drivers/spi/spi_flash_sfud.c:133:5
	ldr	r0, [sp, #28]
.Ltmp8:
	.loc	1 133 5 is_stmt 0               @ rt-thread/components/drivers/spi/spi_flash_sfud.c:133:5
	cbnz	r0, .LBB1_2
	b	.LBB1_1
.LBB1_1:
.Ltmp9:
	.loc	1 133 5                         @ rt-thread/components/drivers/spi/spi_flash_sfud.c:133:5
	movw	r0, :lower16:.L.str.14
	movt	r0, :upper16:.L.str.14
	movw	r1, :lower16:.L__FUNCTION__.spi_write_read
	movt	r1, :upper16:.L__FUNCTION__.spi_write_read
	movs	r2, #133
	bl	rt_assert_handler
	b	.LBB1_2
.Ltmp10:
.LBB1_2:
	.loc	1 134 5 is_stmt 1               @ rt-thread/components/drivers/spi/spi_flash_sfud.c:134:5
	ldr	r0, [sp, #8]
.Ltmp11:
	.loc	1 134 5 is_stmt 0               @ rt-thread/components/drivers/spi/spi_flash_sfud.c:134:5
	cbnz	r0, .LBB1_4
	b	.LBB1_3
.LBB1_3:
.Ltmp12:
	.loc	1 134 5                         @ rt-thread/components/drivers/spi/spi_flash_sfud.c:134:5
	movw	r0, :lower16:.L.str.15
	movt	r0, :upper16:.L.str.15
	movw	r1, :lower16:.L__FUNCTION__.spi_write_read
	movt	r1, :upper16:.L__FUNCTION__.spi_write_read
	movs	r2, #134
	bl	rt_assert_handler
	b	.LBB1_4
.Ltmp13:
.LBB1_4:
	.loc	1 135 5 is_stmt 1               @ rt-thread/components/drivers/spi/spi_flash_sfud.c:135:5
	ldr	r0, [sp, #4]
.Ltmp14:
	.loc	1 135 5 is_stmt 0               @ rt-thread/components/drivers/spi/spi_flash_sfud.c:135:5
	cbnz	r0, .LBB1_6
	b	.LBB1_5
.LBB1_5:
.Ltmp15:
	.loc	1 135 5                         @ rt-thread/components/drivers/spi/spi_flash_sfud.c:135:5
	movw	r0, :lower16:.L.str.16
	movt	r0, :upper16:.L.str.16
	movw	r1, :lower16:.L__FUNCTION__.spi_write_read
	movt	r1, :upper16:.L__FUNCTION__.spi_write_read
	movs	r2, #135
	bl	rt_assert_handler
	b	.LBB1_6
.Ltmp16:
.LBB1_6:
	.loc	1 139 9 is_stmt 1               @ rt-thread/components/drivers/spi/spi_flash_sfud.c:139:9
	ldr	r0, [sp, #20]
.Ltmp17:
	.loc	1 139 9 is_stmt 0               @ rt-thread/components/drivers/spi/spi_flash_sfud.c:139:9
	cbz	r0, .LBB1_10
	b	.LBB1_7
.LBB1_7:
.Ltmp18:
	.loc	1 140 9 is_stmt 1               @ rt-thread/components/drivers/spi/spi_flash_sfud.c:140:9
	ldr	r0, [sp, #24]
.Ltmp19:
	.loc	1 140 9 is_stmt 0               @ rt-thread/components/drivers/spi/spi_flash_sfud.c:140:9
	cbnz	r0, .LBB1_9
	b	.LBB1_8
.LBB1_8:
.Ltmp20:
	.loc	1 140 9                         @ rt-thread/components/drivers/spi/spi_flash_sfud.c:140:9
	movw	r0, :lower16:.L.str.17
	movt	r0, :upper16:.L.str.17
	movw	r1, :lower16:.L__FUNCTION__.spi_write_read
	movt	r1, :upper16:.L__FUNCTION__.spi_write_read
	movs	r2, #140
	bl	rt_assert_handler
	b	.LBB1_9
.Ltmp21:
.LBB1_9:
	.loc	1 141 5 is_stmt 1               @ rt-thread/components/drivers/spi/spi_flash_sfud.c:141:5
	b	.LBB1_10
.Ltmp22:
.LBB1_10:
	.loc	1 142 9                         @ rt-thread/components/drivers/spi/spi_flash_sfud.c:142:9
	ldr	r0, [sp, #40]
.Ltmp23:
	.loc	1 142 9 is_stmt 0               @ rt-thread/components/drivers/spi/spi_flash_sfud.c:142:9
	cbz	r0, .LBB1_14
	b	.LBB1_11
.LBB1_11:
.Ltmp24:
	.loc	1 143 9 is_stmt 1               @ rt-thread/components/drivers/spi/spi_flash_sfud.c:143:9
	ldr	r0, [sp, #16]
.Ltmp25:
	.loc	1 143 9 is_stmt 0               @ rt-thread/components/drivers/spi/spi_flash_sfud.c:143:9
	cbnz	r0, .LBB1_13
	b	.LBB1_12
.LBB1_12:
.Ltmp26:
	.loc	1 143 9                         @ rt-thread/components/drivers/spi/spi_flash_sfud.c:143:9
	movw	r0, :lower16:.L.str.18
	movt	r0, :upper16:.L.str.18
	movw	r1, :lower16:.L__FUNCTION__.spi_write_read
	movt	r1, :upper16:.L__FUNCTION__.spi_write_read
	movs	r2, #143
	bl	rt_assert_handler
	b	.LBB1_13
.Ltmp27:
.LBB1_13:
	.loc	1 144 5 is_stmt 1               @ rt-thread/components/drivers/spi/spi_flash_sfud.c:144:5
	b	.LBB1_14
.Ltmp28:
.LBB1_14:
	.loc	1 161 13                        @ rt-thread/components/drivers/spi/spi_flash_sfud.c:161:13
	ldr	r0, [sp, #20]
	.loc	1 161 24 is_stmt 0              @ rt-thread/components/drivers/spi/spi_flash_sfud.c:161:24
	cbz	r0, .LBB1_19
	b	.LBB1_15
.LBB1_15:
	.loc	1 161 27                        @ rt-thread/components/drivers/spi/spi_flash_sfud.c:161:27
	ldr	r0, [sp, #40]
.Ltmp29:
	.loc	1 161 13                        @ rt-thread/components/drivers/spi/spi_flash_sfud.c:161:13
	cbz	r0, .LBB1_19
	b	.LBB1_16
.LBB1_16:
.Ltmp30:
	.loc	1 162 39 is_stmt 1              @ rt-thread/components/drivers/spi/spi_flash_sfud.c:162:39
	ldr	r0, [sp, #4]
	.loc	1 162 48 is_stmt 0              @ rt-thread/components/drivers/spi/spi_flash_sfud.c:162:48
	ldr	r0, [r0, #92]
	.loc	1 162 63                        @ rt-thread/components/drivers/spi/spi_flash_sfud.c:162:63
	ldr	r1, [sp, #24]
	.loc	1 162 74                        @ rt-thread/components/drivers/spi/spi_flash_sfud.c:162:74
	ldr	r2, [sp, #20]
	.loc	1 162 86                        @ rt-thread/components/drivers/spi/spi_flash_sfud.c:162:86
	ldr	r3, [sp, #16]
	.loc	1 162 96                        @ rt-thread/components/drivers/spi/spi_flash_sfud.c:162:96
	ldr.w	r12, [sp, #40]
	.loc	1 162 17                        @ rt-thread/components/drivers/spi/spi_flash_sfud.c:162:17
	mov	lr, sp
	str.w	r12, [lr]
	bl	rt_spi_send_then_recv
.Ltmp31:
	.loc	1 162 17                        @ rt-thread/components/drivers/spi/spi_flash_sfud.c:162:17
	cbz	r0, .LBB1_18
	b	.LBB1_17
.LBB1_17:
	.loc	1 0 17                          @ rt-thread/components/drivers/spi/spi_flash_sfud.c:0:17
	movs	r0, #4
.Ltmp32:
	.loc	1 163 24 is_stmt 1              @ rt-thread/components/drivers/spi/spi_flash_sfud.c:163:24
	strb.w	r0, [sp, #15]
	.loc	1 164 13                        @ rt-thread/components/drivers/spi/spi_flash_sfud.c:164:13
	b	.LBB1_18
.Ltmp33:
.LBB1_18:
	.loc	1 165 9                         @ rt-thread/components/drivers/spi/spi_flash_sfud.c:165:9
	b	.LBB1_27
.Ltmp34:
.LBB1_19:
	.loc	1 165 20 is_stmt 0              @ rt-thread/components/drivers/spi/spi_flash_sfud.c:165:20
	ldr	r0, [sp, #20]
.Ltmp35:
	.loc	1 165 20                        @ rt-thread/components/drivers/spi/spi_flash_sfud.c:165:20
	cbz	r0, .LBB1_23
	b	.LBB1_20
.LBB1_20:
.Ltmp36:
	.loc	1 166 29 is_stmt 1              @ rt-thread/components/drivers/spi/spi_flash_sfud.c:166:29
	ldr	r0, [sp, #4]
	.loc	1 166 38 is_stmt 0              @ rt-thread/components/drivers/spi/spi_flash_sfud.c:166:38
	ldr	r0, [r0, #92]
	.loc	1 166 53                        @ rt-thread/components/drivers/spi/spi_flash_sfud.c:166:53
	ldr	r1, [sp, #24]
	.loc	1 166 64                        @ rt-thread/components/drivers/spi/spi_flash_sfud.c:166:64
	ldr	r2, [sp, #20]
	.loc	1 166 17                        @ rt-thread/components/drivers/spi/spi_flash_sfud.c:166:17
	bl	rt_spi_send
.Ltmp37:
	.loc	1 166 17                        @ rt-thread/components/drivers/spi/spi_flash_sfud.c:166:17
	cbnz	r0, .LBB1_22
	b	.LBB1_21
.LBB1_21:
	.loc	1 0 17                          @ rt-thread/components/drivers/spi/spi_flash_sfud.c:0:17
	movs	r0, #4
.Ltmp38:
	.loc	1 167 24 is_stmt 1              @ rt-thread/components/drivers/spi/spi_flash_sfud.c:167:24
	strb.w	r0, [sp, #15]
	.loc	1 168 13                        @ rt-thread/components/drivers/spi/spi_flash_sfud.c:168:13
	b	.LBB1_22
.Ltmp39:
.LBB1_22:
	.loc	1 169 9                         @ rt-thread/components/drivers/spi/spi_flash_sfud.c:169:9
	b	.LBB1_26
.Ltmp40:
.LBB1_23:
	.loc	1 170 29                        @ rt-thread/components/drivers/spi/spi_flash_sfud.c:170:29
	ldr	r0, [sp, #4]
	.loc	1 170 38 is_stmt 0              @ rt-thread/components/drivers/spi/spi_flash_sfud.c:170:38
	ldr	r0, [r0, #92]
	.loc	1 170 53                        @ rt-thread/components/drivers/spi/spi_flash_sfud.c:170:53
	ldr	r1, [sp, #16]
	.loc	1 170 63                        @ rt-thread/components/drivers/spi/spi_flash_sfud.c:170:63
	ldr	r2, [sp, #40]
	.loc	1 170 17                        @ rt-thread/components/drivers/spi/spi_flash_sfud.c:170:17
	bl	rt_spi_recv
.Ltmp41:
	.loc	1 170 17                        @ rt-thread/components/drivers/spi/spi_flash_sfud.c:170:17
	cbnz	r0, .LBB1_25
	b	.LBB1_24
.LBB1_24:
	.loc	1 0 17                          @ rt-thread/components/drivers/spi/spi_flash_sfud.c:0:17
	movs	r0, #4
.Ltmp42:
	.loc	1 171 24 is_stmt 1              @ rt-thread/components/drivers/spi/spi_flash_sfud.c:171:24
	strb.w	r0, [sp, #15]
	.loc	1 172 13                        @ rt-thread/components/drivers/spi/spi_flash_sfud.c:172:13
	b	.LBB1_25
.Ltmp43:
.LBB1_25:
	.loc	1 0 13 is_stmt 0                @ rt-thread/components/drivers/spi/spi_flash_sfud.c:0:13
	b	.LBB1_26
.LBB1_26:
	b	.LBB1_27
.LBB1_27:
	.loc	1 176 12 is_stmt 1              @ rt-thread/components/drivers/spi/spi_flash_sfud.c:176:12
	ldrb.w	r0, [sp, #15]
	.loc	1 176 5 is_stmt 0               @ rt-thread/components/drivers/spi/spi_flash_sfud.c:176:5
	add	sp, #32
	pop	{r7, pc}
.Ltmp44:
.Lfunc_end1:
	.size	spi_write_read, .Lfunc_end1-spi_write_read
	.cfi_endproc
	.cantunwind
	.fnend
                                        @ -- End function
	.section	.text.spi_lock,"ax",%progbits
	.p2align	3                               @ -- Begin function spi_lock
	.type	spi_lock,%function
	.code	16                              @ @spi_lock
	.thumb_func
spi_lock:
.Lfunc_begin2:
	.loc	1 225 0 is_stmt 1               @ rt-thread/components/drivers/spi/spi_flash_sfud.c:225:0
	.fnstart
	.cfi_startproc
@ %bb.0:
	.save	{r7, lr}
	push	{r7, lr}
	.cfi_def_cfa_offset 8
	.cfi_offset lr, -4
	.cfi_offset r7, -8
	.pad	#16
	sub	sp, #16
	.cfi_def_cfa_offset 24
	str	r0, [sp, #12]
.Ltmp45:
	.loc	1 226 44 prologue_end           @ rt-thread/components/drivers/spi/spi_flash_sfud.c:226:44
	ldr	r0, [sp, #12]
	.loc	1 226 49 is_stmt 0              @ rt-thread/components/drivers/spi/spi_flash_sfud.c:226:49
	ldr	r0, [r0, #16]
	.loc	1 226 17                        @ rt-thread/components/drivers/spi/spi_flash_sfud.c:226:17
	str	r0, [sp, #8]
	.loc	1 227 69 is_stmt 1              @ rt-thread/components/drivers/spi/spi_flash_sfud.c:227:69
	ldr	r0, [sp, #8]
	.loc	1 227 79 is_stmt 0              @ rt-thread/components/drivers/spi/spi_flash_sfud.c:227:79
	ldr	r0, [r0, #64]
	.loc	1 227 30                        @ rt-thread/components/drivers/spi/spi_flash_sfud.c:227:30
	str	r0, [sp, #4]
.Ltmp46:
	.loc	1 229 5 is_stmt 1               @ rt-thread/components/drivers/spi/spi_flash_sfud.c:229:5
	ldr	r0, [sp, #12]
.Ltmp47:
	.loc	1 229 5 is_stmt 0               @ rt-thread/components/drivers/spi/spi_flash_sfud.c:229:5
	cbnz	r0, .LBB2_2
	b	.LBB2_1
.LBB2_1:
.Ltmp48:
	.loc	1 229 5                         @ rt-thread/components/drivers/spi/spi_flash_sfud.c:229:5
	movw	r0, :lower16:.L.str.14
	movt	r0, :upper16:.L.str.14
	movw	r1, :lower16:.L__FUNCTION__.spi_lock
	movt	r1, :upper16:.L__FUNCTION__.spi_lock
	movs	r2, #229
	bl	rt_assert_handler
	b	.LBB2_2
.Ltmp49:
.LBB2_2:
	.loc	1 230 5 is_stmt 1               @ rt-thread/components/drivers/spi/spi_flash_sfud.c:230:5
	ldr	r0, [sp, #8]
.Ltmp50:
	.loc	1 230 5 is_stmt 0               @ rt-thread/components/drivers/spi/spi_flash_sfud.c:230:5
	cbnz	r0, .LBB2_4
	b	.LBB2_3
.LBB2_3:
.Ltmp51:
	.loc	1 230 5                         @ rt-thread/components/drivers/spi/spi_flash_sfud.c:230:5
	movw	r0, :lower16:.L.str.15
	movt	r0, :upper16:.L.str.15
	movw	r1, :lower16:.L__FUNCTION__.spi_lock
	movt	r1, :upper16:.L__FUNCTION__.spi_lock
	movs	r2, #230
	bl	rt_assert_handler
	b	.LBB2_4
.Ltmp52:
.LBB2_4:
	.loc	1 231 5 is_stmt 1               @ rt-thread/components/drivers/spi/spi_flash_sfud.c:231:5
	ldr	r0, [sp, #4]
.Ltmp53:
	.loc	1 231 5 is_stmt 0               @ rt-thread/components/drivers/spi/spi_flash_sfud.c:231:5
	cbnz	r0, .LBB2_6
	b	.LBB2_5
.LBB2_5:
.Ltmp54:
	.loc	1 231 5                         @ rt-thread/components/drivers/spi/spi_flash_sfud.c:231:5
	movw	r0, :lower16:.L.str.16
	movt	r0, :upper16:.L.str.16
	movw	r1, :lower16:.L__FUNCTION__.spi_lock
	movt	r1, :upper16:.L__FUNCTION__.spi_lock
	movs	r2, #231
	bl	rt_assert_handler
	b	.LBB2_6
.Ltmp55:
.LBB2_6:
	.loc	1 233 21 is_stmt 1              @ rt-thread/components/drivers/spi/spi_flash_sfud.c:233:21
	ldr	r0, [sp, #4]
	.loc	1 233 30 is_stmt 0              @ rt-thread/components/drivers/spi/spi_flash_sfud.c:233:30
	adds	r0, #96
	mov.w	r1, #-1
	.loc	1 233 5                         @ rt-thread/components/drivers/spi/spi_flash_sfud.c:233:5
	bl	rt_mutex_take
	.loc	1 234 1 is_stmt 1               @ rt-thread/components/drivers/spi/spi_flash_sfud.c:234:1
	add	sp, #16
	pop	{r7, pc}
.Ltmp56:
.Lfunc_end2:
	.size	spi_lock, .Lfunc_end2-spi_lock
	.cfi_endproc
	.cantunwind
	.fnend
                                        @ -- End function
	.section	.text.spi_unlock,"ax",%progbits
	.p2align	3                               @ -- Begin function spi_unlock
	.type	spi_unlock,%function
	.code	16                              @ @spi_unlock
	.thumb_func
spi_unlock:
.Lfunc_begin3:
	.loc	1 236 0                         @ rt-thread/components/drivers/spi/spi_flash_sfud.c:236:0
	.fnstart
	.cfi_startproc
@ %bb.0:
	.save	{r7, lr}
	push	{r7, lr}
	.cfi_def_cfa_offset 8
	.cfi_offset lr, -4
	.cfi_offset r7, -8
	.pad	#16
	sub	sp, #16
	.cfi_def_cfa_offset 24
	str	r0, [sp, #12]
.Ltmp57:
	.loc	1 237 44 prologue_end           @ rt-thread/components/drivers/spi/spi_flash_sfud.c:237:44
	ldr	r0, [sp, #12]
	.loc	1 237 49 is_stmt 0              @ rt-thread/components/drivers/spi/spi_flash_sfud.c:237:49
	ldr	r0, [r0, #16]
	.loc	1 237 17                        @ rt-thread/components/drivers/spi/spi_flash_sfud.c:237:17
	str	r0, [sp, #8]
	.loc	1 238 69 is_stmt 1              @ rt-thread/components/drivers/spi/spi_flash_sfud.c:238:69
	ldr	r0, [sp, #8]
	.loc	1 238 79 is_stmt 0              @ rt-thread/components/drivers/spi/spi_flash_sfud.c:238:79
	ldr	r0, [r0, #64]
	.loc	1 238 30                        @ rt-thread/components/drivers/spi/spi_flash_sfud.c:238:30
	str	r0, [sp, #4]
.Ltmp58:
	.loc	1 240 5 is_stmt 1               @ rt-thread/components/drivers/spi/spi_flash_sfud.c:240:5
	ldr	r0, [sp, #12]
.Ltmp59:
	.loc	1 240 5 is_stmt 0               @ rt-thread/components/drivers/spi/spi_flash_sfud.c:240:5
	cbnz	r0, .LBB3_2
	b	.LBB3_1
.LBB3_1:
.Ltmp60:
	.loc	1 240 5                         @ rt-thread/components/drivers/spi/spi_flash_sfud.c:240:5
	movw	r0, :lower16:.L.str.14
	movt	r0, :upper16:.L.str.14
	movw	r1, :lower16:.L__FUNCTION__.spi_unlock
	movt	r1, :upper16:.L__FUNCTION__.spi_unlock
	movs	r2, #240
	bl	rt_assert_handler
	b	.LBB3_2
.Ltmp61:
.LBB3_2:
	.loc	1 241 5 is_stmt 1               @ rt-thread/components/drivers/spi/spi_flash_sfud.c:241:5
	ldr	r0, [sp, #8]
.Ltmp62:
	.loc	1 241 5 is_stmt 0               @ rt-thread/components/drivers/spi/spi_flash_sfud.c:241:5
	cbnz	r0, .LBB3_4
	b	.LBB3_3
.LBB3_3:
.Ltmp63:
	.loc	1 241 5                         @ rt-thread/components/drivers/spi/spi_flash_sfud.c:241:5
	movw	r0, :lower16:.L.str.15
	movt	r0, :upper16:.L.str.15
	movw	r1, :lower16:.L__FUNCTION__.spi_unlock
	movt	r1, :upper16:.L__FUNCTION__.spi_unlock
	movs	r2, #241
	bl	rt_assert_handler
	b	.LBB3_4
.Ltmp64:
.LBB3_4:
	.loc	1 242 5 is_stmt 1               @ rt-thread/components/drivers/spi/spi_flash_sfud.c:242:5
	ldr	r0, [sp, #4]
.Ltmp65:
	.loc	1 242 5 is_stmt 0               @ rt-thread/components/drivers/spi/spi_flash_sfud.c:242:5
	cbnz	r0, .LBB3_6
	b	.LBB3_5
.LBB3_5:
.Ltmp66:
	.loc	1 242 5                         @ rt-thread/components/drivers/spi/spi_flash_sfud.c:242:5
	movw	r0, :lower16:.L.str.16
	movt	r0, :upper16:.L.str.16
	movw	r1, :lower16:.L__FUNCTION__.spi_unlock
	movt	r1, :upper16:.L__FUNCTION__.spi_unlock
	movs	r2, #242
	bl	rt_assert_handler
	b	.LBB3_6
.Ltmp67:
.LBB3_6:
	.loc	1 244 24 is_stmt 1              @ rt-thread/components/drivers/spi/spi_flash_sfud.c:244:24
	ldr	r0, [sp, #4]
	.loc	1 244 33 is_stmt 0              @ rt-thread/components/drivers/spi/spi_flash_sfud.c:244:33
	adds	r0, #96
	.loc	1 244 5                         @ rt-thread/components/drivers/spi/spi_flash_sfud.c:244:5
	bl	rt_mutex_release
	.loc	1 245 1 is_stmt 1               @ rt-thread/components/drivers/spi/spi_flash_sfud.c:245:1
	add	sp, #16
	pop	{r7, pc}
.Ltmp68:
.Lfunc_end3:
	.size	spi_unlock, .Lfunc_end3-spi_unlock
	.cfi_endproc
	.cantunwind
	.fnend
                                        @ -- End function
	.section	.text.retry_delay_100us,"ax",%progbits
	.p2align	3                               @ -- Begin function retry_delay_100us
	.type	retry_delay_100us,%function
	.code	16                              @ @retry_delay_100us
	.thumb_func
retry_delay_100us:
.Lfunc_begin4:
	.loc	1 247 0                         @ rt-thread/components/drivers/spi/spi_flash_sfud.c:247:0
	.fnstart
	.cfi_startproc
@ %bb.0:
	.save	{r7, lr}
	push	{r7, lr}
	.cfi_def_cfa_offset 8
	.cfi_offset lr, -4
	.cfi_offset r7, -8
	movs	r0, #1
.Ltmp69:
	.loc	1 249 5 prologue_end            @ rt-thread/components/drivers/spi/spi_flash_sfud.c:249:5
	bl	rt_thread_delay
	.loc	1 250 1                         @ rt-thread/components/drivers/spi/spi_flash_sfud.c:250:1
	pop	{r7, pc}
.Ltmp70:
.Lfunc_end4:
	.size	retry_delay_100us, .Lfunc_end4-retry_delay_100us
	.cfi_endproc
	.cantunwind
	.fnend
                                        @ -- End function
	.section	.text.rt_sfud_flash_probe_ex,"ax",%progbits
	.hidden	rt_sfud_flash_probe_ex          @ -- Begin function rt_sfud_flash_probe_ex
	.globl	rt_sfud_flash_probe_ex
	.p2align	3
	.type	rt_sfud_flash_probe_ex,%function
	.code	16                              @ @rt_sfud_flash_probe_ex
	.thumb_func
rt_sfud_flash_probe_ex:
.Lfunc_begin5:
	.loc	1 300 0                         @ rt-thread/components/drivers/spi/spi_flash_sfud.c:300:0
	.fnstart
	.cfi_startproc
@ %bb.0:
	.save	{r7, lr}
	push	{r7, lr}
	.cfi_def_cfa_offset 8
	.cfi_offset lr, -4
	.cfi_offset r7, -8
	.pad	#72
	sub	sp, #72
	.cfi_def_cfa_offset 80
	str	r0, [sp, #64]
	str	r1, [sp, #60]
	str	r2, [sp, #56]
	str	r3, [sp, #52]
	movs	r0, #0
.Ltmp71:
	.loc	1 301 27 prologue_end           @ rt-thread/components/drivers/spi/spi_flash_sfud.c:301:27
	str	r0, [sp, #48]
	.loc	1 302 17                        @ rt-thread/components/drivers/spi/spi_flash_sfud.c:302:17
	str	r0, [sp, #44]
	.loc	1 303 11                        @ rt-thread/components/drivers/spi/spi_flash_sfud.c:303:11
	str	r0, [sp, #40]
	.loc	1 303 46 is_stmt 0              @ rt-thread/components/drivers/spi/spi_flash_sfud.c:303:46
	str	r0, [sp, #36]
.Ltmp72:
	.loc	1 309 5 is_stmt 1               @ rt-thread/components/drivers/spi/spi_flash_sfud.c:309:5
	ldr	r0, [sp, #64]
.Ltmp73:
	.loc	1 309 5 is_stmt 0               @ rt-thread/components/drivers/spi/spi_flash_sfud.c:309:5
	cbnz	r0, .LBB5_2
	b	.LBB5_1
.LBB5_1:
.Ltmp74:
	.loc	1 309 5                         @ rt-thread/components/drivers/spi/spi_flash_sfud.c:309:5
	movw	r0, :lower16:.L.str.1
	movt	r0, :upper16:.L.str.1
	movw	r1, :lower16:.L__FUNCTION__.rt_sfud_flash_probe_ex
	movt	r1, :upper16:.L__FUNCTION__.rt_sfud_flash_probe_ex
	movw	r2, #309
	bl	rt_assert_handler
	b	.LBB5_2
.Ltmp75:
.LBB5_2:
	.loc	1 310 5 is_stmt 1               @ rt-thread/components/drivers/spi/spi_flash_sfud.c:310:5
	ldr	r0, [sp, #60]
.Ltmp76:
	.loc	1 310 5 is_stmt 0               @ rt-thread/components/drivers/spi/spi_flash_sfud.c:310:5
	cbnz	r0, .LBB5_4
	b	.LBB5_3
.LBB5_3:
.Ltmp77:
	.loc	1 310 5                         @ rt-thread/components/drivers/spi/spi_flash_sfud.c:310:5
	movw	r0, :lower16:.L.str.2
	movt	r0, :upper16:.L.str.2
	movw	r1, :lower16:.L__FUNCTION__.rt_sfud_flash_probe_ex
	movt	r1, :upper16:.L__FUNCTION__.rt_sfud_flash_probe_ex
	mov.w	r2, #310
	bl	rt_assert_handler
	b	.LBB5_4
.Ltmp78:
.LBB5_4:
	.loc	1 0 5                           @ rt-thread/components/drivers/spi/spi_flash_sfud.c:0:5
	movs	r0, #136
	.loc	1 312 39 is_stmt 1              @ rt-thread/components/drivers/spi/spi_flash_sfud.c:312:39
	bl	rt_malloc
	.loc	1 312 13 is_stmt 0              @ rt-thread/components/drivers/spi/spi_flash_sfud.c:312:13
	str	r0, [sp, #48]
	movs	r0, #116
	.loc	1 313 31 is_stmt 1              @ rt-thread/components/drivers/spi/spi_flash_sfud.c:313:31
	bl	rt_malloc
	.loc	1 313 14 is_stmt 0              @ rt-thread/components/drivers/spi/spi_flash_sfud.c:313:14
	str	r0, [sp, #44]
	.loc	1 314 59 is_stmt 1              @ rt-thread/components/drivers/spi/spi_flash_sfud.c:314:59
	ldr	r0, [sp, #64]
	.loc	1 314 49 is_stmt 0              @ rt-thread/components/drivers/spi/spi_flash_sfud.c:314:49
	bl	rt_strlen
	.loc	1 314 79                        @ rt-thread/components/drivers/spi/spi_flash_sfud.c:314:79
	adds	r0, #1
	.loc	1 314 39                        @ rt-thread/components/drivers/spi/spi_flash_sfud.c:314:39
	bl	rt_malloc
	.loc	1 314 28                        @ rt-thread/components/drivers/spi/spi_flash_sfud.c:314:28
	str	r0, [sp, #40]
	.loc	1 315 53 is_stmt 1              @ rt-thread/components/drivers/spi/spi_flash_sfud.c:315:53
	ldr	r0, [sp, #60]
	.loc	1 315 43 is_stmt 0              @ rt-thread/components/drivers/spi/spi_flash_sfud.c:315:43
	bl	rt_strlen
	.loc	1 315 67                        @ rt-thread/components/drivers/spi/spi_flash_sfud.c:315:67
	adds	r0, #1
	.loc	1 315 33                        @ rt-thread/components/drivers/spi/spi_flash_sfud.c:315:33
	bl	rt_malloc
	.loc	1 315 22                        @ rt-thread/components/drivers/spi/spi_flash_sfud.c:315:22
	str	r0, [sp, #36]
.Ltmp79:
	.loc	1 317 9 is_stmt 1               @ rt-thread/components/drivers/spi/spi_flash_sfud.c:317:9
	ldr	r0, [sp, #48]
.Ltmp80:
	.loc	1 317 9 is_stmt 0               @ rt-thread/components/drivers/spi/spi_flash_sfud.c:317:9
	cbz	r0, .LBB5_6
	b	.LBB5_5
.LBB5_5:
.Ltmp81:
	.loc	1 318 19 is_stmt 1              @ rt-thread/components/drivers/spi/spi_flash_sfud.c:318:19
	ldr	r0, [sp, #48]
	movs	r1, #0
	str	r1, [sp, #32]                   @ 4-byte Spill
	movs	r2, #136
	.loc	1 318 9 is_stmt 0               @ rt-thread/components/drivers/spi/spi_flash_sfud.c:318:9
	bl	rt_memset
	ldr	r2, [sp, #32]                   @ 4-byte Reload
	.loc	1 320 25 is_stmt 1              @ rt-thread/components/drivers/spi/spi_flash_sfud.c:320:25
	ldr	r0, [sp, #48]
	.loc	1 320 34 is_stmt 0              @ rt-thread/components/drivers/spi/spi_flash_sfud.c:320:34
	adds	r0, #96
	.loc	1 320 41                        @ rt-thread/components/drivers/spi/spi_flash_sfud.c:320:41
	ldr	r1, [sp, #64]
	.loc	1 320 9                         @ rt-thread/components/drivers/spi/spi_flash_sfud.c:320:9
	bl	rt_mutex_init
	.loc	1 321 5 is_stmt 1               @ rt-thread/components/drivers/spi/spi_flash_sfud.c:321:5
	b	.LBB5_6
.Ltmp82:
.LBB5_6:
	.loc	1 323 9                         @ rt-thread/components/drivers/spi/spi_flash_sfud.c:323:9
	ldr	r0, [sp, #48]
	.loc	1 323 17 is_stmt 0              @ rt-thread/components/drivers/spi/spi_flash_sfud.c:323:17
	cmp	r0, #0
	beq.w	.LBB5_22
	b	.LBB5_7
.LBB5_7:
	.loc	1 323 20                        @ rt-thread/components/drivers/spi/spi_flash_sfud.c:323:20
	ldr	r0, [sp, #44]
	.loc	1 323 29                        @ rt-thread/components/drivers/spi/spi_flash_sfud.c:323:29
	cmp	r0, #0
	beq.w	.LBB5_22
	b	.LBB5_8
.LBB5_8:
	.loc	1 323 32                        @ rt-thread/components/drivers/spi/spi_flash_sfud.c:323:32
	ldr	r0, [sp, #40]
	.loc	1 323 55                        @ rt-thread/components/drivers/spi/spi_flash_sfud.c:323:55
	cmp	r0, #0
	beq.w	.LBB5_22
	b	.LBB5_9
.LBB5_9:
	.loc	1 323 58                        @ rt-thread/components/drivers/spi/spi_flash_sfud.c:323:58
	ldr	r0, [sp, #36]
.Ltmp83:
	.loc	1 323 9                         @ rt-thread/components/drivers/spi/spi_flash_sfud.c:323:9
	cmp	r0, #0
	beq.w	.LBB5_22
	b	.LBB5_10
.LBB5_10:
.Ltmp84:
	.loc	1 324 19 is_stmt 1              @ rt-thread/components/drivers/spi/spi_flash_sfud.c:324:19
	ldr	r0, [sp, #44]
	movs	r1, #0
	str	r1, [sp, #28]                   @ 4-byte Spill
	movs	r2, #116
	.loc	1 324 9 is_stmt 0               @ rt-thread/components/drivers/spi/spi_flash_sfud.c:324:9
	bl	rt_memset
	.loc	1 325 20 is_stmt 1              @ rt-thread/components/drivers/spi/spi_flash_sfud.c:325:20
	ldr	r0, [sp, #40]
	.loc	1 325 44 is_stmt 0              @ rt-thread/components/drivers/spi/spi_flash_sfud.c:325:44
	str	r0, [sp, #8]                    @ 4-byte Spill
	ldr	r0, [sp, #64]
	.loc	1 325 64                        @ rt-thread/components/drivers/spi/spi_flash_sfud.c:325:64
	str	r0, [sp, #4]                    @ 4-byte Spill
	bl	rt_strlen
	ldr	r1, [sp, #4]                    @ 4-byte Reload
	mov	r2, r0
	.loc	1 325 9                         @ rt-thread/components/drivers/spi/spi_flash_sfud.c:325:9
	ldr	r0, [sp, #8]                    @ 4-byte Reload
	bl	rt_strncpy
	.loc	1 326 20 is_stmt 1              @ rt-thread/components/drivers/spi/spi_flash_sfud.c:326:20
	ldr	r0, [sp, #36]
	.loc	1 326 38 is_stmt 0              @ rt-thread/components/drivers/spi/spi_flash_sfud.c:326:38
	str	r0, [sp, #16]                   @ 4-byte Spill
	ldr	r0, [sp, #60]
	.loc	1 326 52                        @ rt-thread/components/drivers/spi/spi_flash_sfud.c:326:52
	str	r0, [sp, #12]                   @ 4-byte Spill
	bl	rt_strlen
	ldr	r1, [sp, #12]                   @ 4-byte Reload
	mov	r2, r0
	.loc	1 326 9                         @ rt-thread/components/drivers/spi/spi_flash_sfud.c:326:9
	ldr	r0, [sp, #16]                   @ 4-byte Reload
	bl	rt_strncpy
	.loc	1 328 9 is_stmt 1               @ rt-thread/components/drivers/spi/spi_flash_sfud.c:328:9
	ldr	r0, [sp, #40]
	.loc	1 328 42 is_stmt 0              @ rt-thread/components/drivers/spi/spi_flash_sfud.c:328:42
	str	r0, [sp, #20]                   @ 4-byte Spill
	ldr	r0, [sp, #64]
	.loc	1 328 32                        @ rt-thread/components/drivers/spi/spi_flash_sfud.c:328:32
	bl	rt_strlen
	ldr	r1, [sp, #20]                   @ 4-byte Reload
	mov	r2, r0
	.loc	1 328 63                        @ rt-thread/components/drivers/spi/spi_flash_sfud.c:328:63
	ldr	r0, [sp, #28]                   @ 4-byte Reload
	strb	r0, [r1, r2]
	.loc	1 329 9 is_stmt 1               @ rt-thread/components/drivers/spi/spi_flash_sfud.c:329:9
	ldr	r0, [sp, #36]
	.loc	1 329 36 is_stmt 0              @ rt-thread/components/drivers/spi/spi_flash_sfud.c:329:36
	str	r0, [sp, #24]                   @ 4-byte Spill
	ldr	r0, [sp, #60]
	.loc	1 329 26                        @ rt-thread/components/drivers/spi/spi_flash_sfud.c:329:26
	bl	rt_strlen
	ldr	r1, [sp, #24]                   @ 4-byte Reload
	mov	r2, r0
	.loc	1 329 51                        @ rt-thread/components/drivers/spi/spi_flash_sfud.c:329:51
	ldr	r0, [sp, #28]                   @ 4-byte Reload
	strb	r0, [r1, r2]
.Ltmp85:
	.loc	1 333 78 is_stmt 1              @ rt-thread/components/drivers/spi/spi_flash_sfud.c:333:78
	ldr	r0, [sp, #60]
	.loc	1 333 63 is_stmt 0              @ rt-thread/components/drivers/spi/spi_flash_sfud.c:333:63
	bl	rt_device_find
	.loc	1 333 13                        @ rt-thread/components/drivers/spi/spi_flash_sfud.c:333:13
	ldr	r1, [sp, #48]
	.loc	1 333 36                        @ rt-thread/components/drivers/spi/spi_flash_sfud.c:333:36
	str	r0, [r1, #92]
.Ltmp86:
	.loc	1 334 17 is_stmt 1              @ rt-thread/components/drivers/spi/spi_flash_sfud.c:334:17
	ldr	r0, [sp, #48]
	.loc	1 334 26 is_stmt 0              @ rt-thread/components/drivers/spi/spi_flash_sfud.c:334:26
	ldr	r0, [r0, #92]
	.loc	1 334 51                        @ rt-thread/components/drivers/spi/spi_flash_sfud.c:334:51
	cbz	r0, .LBB5_12
	b	.LBB5_11
.LBB5_11:
	.loc	1 334 54                        @ rt-thread/components/drivers/spi/spi_flash_sfud.c:334:54
	ldr	r0, [sp, #48]
	.loc	1 334 63                        @ rt-thread/components/drivers/spi/spi_flash_sfud.c:334:63
	ldr	r0, [r0, #92]
	.loc	1 334 85                        @ rt-thread/components/drivers/spi/spi_flash_sfud.c:334:85
	ldrb	r0, [r0, #20]
.Ltmp87:
	.loc	1 334 17                        @ rt-thread/components/drivers/spi/spi_flash_sfud.c:334:17
	cmp	r0, #12
	beq	.LBB5_15
	b	.LBB5_12
.LBB5_12:
.Ltmp88:
	.loc	1 335 17 is_stmt 1              @ rt-thread/components/drivers/spi/spi_flash_sfud.c:335:17
	b	.LBB5_13
.LBB5_13:
.Ltmp89:
	.loc	1 335 17 is_stmt 0              @ rt-thread/components/drivers/spi/spi_flash_sfud.c:335:17
	movw	r0, :lower16:.L.str.3
	movt	r0, :upper16:.L.str.3
	bl	rt_kprintf
	ldr	r1, [sp, #60]
	movw	r0, :lower16:.L.str.4
	movt	r0, :upper16:.L.str.4
	bl	rt_kprintf
	movw	r0, :lower16:.L.str.5
	movt	r0, :upper16:.L.str.5
	bl	rt_kprintf
	b	.LBB5_14
.Ltmp90:
.LBB5_14:
	.loc	1 336 17 is_stmt 1              @ rt-thread/components/drivers/spi/spi_flash_sfud.c:336:17
	b	.LBB5_25
.Ltmp91:
.LBB5_15:
	.loc	1 338 34                        @ rt-thread/components/drivers/spi/spi_flash_sfud.c:338:34
	ldr	r0, [sp, #36]
	.loc	1 338 13 is_stmt 0              @ rt-thread/components/drivers/spi/spi_flash_sfud.c:338:13
	ldr	r1, [sp, #44]
	.loc	1 338 32                        @ rt-thread/components/drivers/spi/spi_flash_sfud.c:338:32
	str	r0, [r1, #32]
	.loc	1 349 34 is_stmt 1              @ rt-thread/components/drivers/spi/spi_flash_sfud.c:349:34
	ldr	r0, [sp, #48]
	.loc	1 349 43 is_stmt 0              @ rt-thread/components/drivers/spi/spi_flash_sfud.c:349:43
	ldr	r0, [r0, #92]
	.loc	1 349 58                        @ rt-thread/components/drivers/spi/spi_flash_sfud.c:349:58
	ldr	r1, [sp, #56]
	.loc	1 349 17                        @ rt-thread/components/drivers/spi/spi_flash_sfud.c:349:17
	bl	rt_spi_configure
.Ltmp92:
	.loc	1 353 30 is_stmt 1              @ rt-thread/components/drivers/spi/spi_flash_sfud.c:353:30
	ldr	r0, [sp, #40]
	.loc	1 353 13 is_stmt 0              @ rt-thread/components/drivers/spi/spi_flash_sfud.c:353:13
	ldr	r1, [sp, #44]
	.loc	1 353 28                        @ rt-thread/components/drivers/spi/spi_flash_sfud.c:353:28
	str	r0, [r1]
	.loc	1 355 34 is_stmt 1              @ rt-thread/components/drivers/spi/spi_flash_sfud.c:355:34
	ldr	r0, [sp, #44]
	.loc	1 355 13 is_stmt 0              @ rt-thread/components/drivers/spi/spi_flash_sfud.c:355:13
	ldr	r1, [sp, #48]
	.loc	1 355 32                        @ rt-thread/components/drivers/spi/spi_flash_sfud.c:355:32
	str.w	r0, [r1, #132]
	.loc	1 356 49 is_stmt 1              @ rt-thread/components/drivers/spi/spi_flash_sfud.c:356:49
	ldr	r0, [sp, #48]
	.loc	1 356 22 is_stmt 0              @ rt-thread/components/drivers/spi/spi_flash_sfud.c:356:22
	ldr	r1, [r0, #92]
	.loc	1 356 47                        @ rt-thread/components/drivers/spi/spi_flash_sfud.c:356:47
	str	r0, [r1, #92]
	.loc	1 357 47 is_stmt 1              @ rt-thread/components/drivers/spi/spi_flash_sfud.c:357:47
	ldr	r0, [sp, #48]
	.loc	1 357 45 is_stmt 0              @ rt-thread/components/drivers/spi/spi_flash_sfud.c:357:45
	str	r0, [r0, #76]
	.loc	1 358 35 is_stmt 1              @ rt-thread/components/drivers/spi/spi_flash_sfud.c:358:35
	ldr	r0, [sp, #48]
	.loc	1 358 13 is_stmt 0              @ rt-thread/components/drivers/spi/spi_flash_sfud.c:358:13
	ldr	r1, [sp, #44]
	.loc	1 358 33                        @ rt-thread/components/drivers/spi/spi_flash_sfud.c:358:33
	str	r0, [r1, #64]
.Ltmp93:
	.loc	1 360 34 is_stmt 1              @ rt-thread/components/drivers/spi/spi_flash_sfud.c:360:34
	ldr	r0, [sp, #44]
	.loc	1 360 17 is_stmt 0              @ rt-thread/components/drivers/spi/spi_flash_sfud.c:360:17
	bl	sfud_device_init
.Ltmp94:
	.loc	1 360 17                        @ rt-thread/components/drivers/spi/spi_flash_sfud.c:360:17
	cbz	r0, .LBB5_19
	b	.LBB5_16
.LBB5_16:
.Ltmp95:
	.loc	1 361 17 is_stmt 1              @ rt-thread/components/drivers/spi/spi_flash_sfud.c:361:17
	b	.LBB5_17
.LBB5_17:
.Ltmp96:
	.loc	1 361 17 is_stmt 0              @ rt-thread/components/drivers/spi/spi_flash_sfud.c:361:17
	movw	r0, :lower16:.L.str.3
	movt	r0, :upper16:.L.str.3
	bl	rt_kprintf
	ldr	r1, [sp, #60]
	movw	r0, :lower16:.L.str.6
	movt	r0, :upper16:.L.str.6
	bl	rt_kprintf
	movw	r0, :lower16:.L.str.5
	movt	r0, :upper16:.L.str.5
	bl	rt_kprintf
	b	.LBB5_18
.Ltmp97:
.LBB5_18:
	.loc	1 362 17 is_stmt 1              @ rt-thread/components/drivers/spi/spi_flash_sfud.c:362:17
	b	.LBB5_25
.Ltmp98:
.LBB5_19:
	.loc	1 365 46                        @ rt-thread/components/drivers/spi/spi_flash_sfud.c:365:46
	ldr	r1, [sp, #44]
	.loc	1 365 61 is_stmt 0              @ rt-thread/components/drivers/spi/spi_flash_sfud.c:365:61
	ldr	r0, [r1, #16]
	.loc	1 365 87                        @ rt-thread/components/drivers/spi/spi_flash_sfud.c:365:87
	ldr	r1, [r1, #24]
	.loc	1 365 70                        @ rt-thread/components/drivers/spi/spi_flash_sfud.c:365:70
	udiv	r0, r0, r1
	.loc	1 365 13                        @ rt-thread/components/drivers/spi/spi_flash_sfud.c:365:13
	ldr	r1, [sp, #48]
	.loc	1 365 44                        @ rt-thread/components/drivers/spi/spi_flash_sfud.c:365:44
	str	r0, [r1, #80]
	.loc	1 366 50 is_stmt 1              @ rt-thread/components/drivers/spi/spi_flash_sfud.c:366:50
	ldr	r0, [sp, #44]
	.loc	1 366 65 is_stmt 0              @ rt-thread/components/drivers/spi/spi_flash_sfud.c:366:65
	ldr	r0, [r0, #24]
	.loc	1 366 13                        @ rt-thread/components/drivers/spi/spi_flash_sfud.c:366:13
	ldr	r1, [sp, #48]
	.loc	1 366 48                        @ rt-thread/components/drivers/spi/spi_flash_sfud.c:366:48
	str	r0, [r1, #84]
	.loc	1 367 44 is_stmt 1              @ rt-thread/components/drivers/spi/spi_flash_sfud.c:367:44
	ldr	r0, [sp, #44]
	.loc	1 367 59 is_stmt 0              @ rt-thread/components/drivers/spi/spi_flash_sfud.c:367:59
	ldr	r0, [r0, #24]
	.loc	1 367 13                        @ rt-thread/components/drivers/spi/spi_flash_sfud.c:367:13
	ldr	r1, [sp, #48]
	.loc	1 367 42                        @ rt-thread/components/drivers/spi/spi_flash_sfud.c:367:42
	str	r0, [r1, #88]
.Ltmp99:
	.loc	1 383 9 is_stmt 1               @ rt-thread/components/drivers/spi/spi_flash_sfud.c:383:9
	ldr	r1, [sp, #48]
	movs	r0, #1
	.loc	1 383 36 is_stmt 0              @ rt-thread/components/drivers/spi/spi_flash_sfud.c:383:36
	strb	r0, [r1, #20]
	.loc	1 387 9 is_stmt 1               @ rt-thread/components/drivers/spi/spi_flash_sfud.c:387:9
	ldr	r1, [sp, #48]
	movs	r0, #0
	.loc	1 387 36 is_stmt 0              @ rt-thread/components/drivers/spi/spi_flash_sfud.c:387:36
	str	r0, [r1, #36]
	.loc	1 388 9 is_stmt 1               @ rt-thread/components/drivers/spi/spi_flash_sfud.c:388:9
	ldr	r1, [sp, #48]
	.loc	1 388 36 is_stmt 0              @ rt-thread/components/drivers/spi/spi_flash_sfud.c:388:36
	str	r0, [r1, #40]
	.loc	1 389 9 is_stmt 1               @ rt-thread/components/drivers/spi/spi_flash_sfud.c:389:9
	ldr	r1, [sp, #48]
	.loc	1 389 37 is_stmt 0              @ rt-thread/components/drivers/spi/spi_flash_sfud.c:389:37
	str	r0, [r1, #44]
	.loc	1 390 9 is_stmt 1               @ rt-thread/components/drivers/spi/spi_flash_sfud.c:390:9
	ldr	r1, [sp, #48]
	.loc	1 390 36 is_stmt 0              @ rt-thread/components/drivers/spi/spi_flash_sfud.c:390:36
	movw	r0, :lower16:rt_sfud_read
	movt	r0, :upper16:rt_sfud_read
	str	r0, [r1, #48]
	.loc	1 391 9 is_stmt 1               @ rt-thread/components/drivers/spi/spi_flash_sfud.c:391:9
	ldr	r1, [sp, #48]
	.loc	1 391 37 is_stmt 0              @ rt-thread/components/drivers/spi/spi_flash_sfud.c:391:37
	movw	r0, :lower16:rt_sfud_write
	movt	r0, :upper16:rt_sfud_write
	str	r0, [r1, #52]
	.loc	1 392 9 is_stmt 1               @ rt-thread/components/drivers/spi/spi_flash_sfud.c:392:9
	ldr	r1, [sp, #48]
	.loc	1 392 39 is_stmt 0              @ rt-thread/components/drivers/spi/spi_flash_sfud.c:392:39
	movw	r0, :lower16:rt_sfud_control
	movt	r0, :upper16:rt_sfud_control
	str	r0, [r1, #56]
	.loc	1 395 30 is_stmt 1              @ rt-thread/components/drivers/spi/spi_flash_sfud.c:395:30
	ldr	r0, [sp, #48]
	.loc	1 395 54 is_stmt 0              @ rt-thread/components/drivers/spi/spi_flash_sfud.c:395:54
	ldr	r1, [sp, #64]
	movs	r2, #11
	.loc	1 395 9                         @ rt-thread/components/drivers/spi/spi_flash_sfud.c:395:9
	bl	rt_device_register
	.loc	1 397 9 is_stmt 1               @ rt-thread/components/drivers/spi/spi_flash_sfud.c:397:9
	b	.LBB5_20
.LBB5_20:
.Ltmp100:
	.loc	1 397 9 is_stmt 0               @ rt-thread/components/drivers/spi/spi_flash_sfud.c:397:9
	movw	r0, :lower16:.L.str.7
	movt	r0, :upper16:.L.str.7
	bl	rt_kprintf
	ldr	r1, [sp, #64]
	ldr	r2, [sp, #60]
	movw	r0, :lower16:.L.str.8
	movt	r0, :upper16:.L.str.8
	bl	rt_kprintf
	movw	r0, :lower16:.L.str.5
	movt	r0, :upper16:.L.str.5
	bl	rt_kprintf
	b	.LBB5_21
.Ltmp101:
.LBB5_21:
	.loc	1 398 16 is_stmt 1              @ rt-thread/components/drivers/spi/spi_flash_sfud.c:398:16
	ldr	r0, [sp, #48]
	.loc	1 398 9 is_stmt 0               @ rt-thread/components/drivers/spi/spi_flash_sfud.c:398:9
	str	r0, [sp, #68]
	b	.LBB5_28
.Ltmp102:
.LBB5_22:
	.loc	1 400 9 is_stmt 1               @ rt-thread/components/drivers/spi/spi_flash_sfud.c:400:9
	b	.LBB5_23
.LBB5_23:
.Ltmp103:
	.loc	1 400 9 is_stmt 0               @ rt-thread/components/drivers/spi/spi_flash_sfud.c:400:9
	movw	r0, :lower16:.L.str.3
	movt	r0, :upper16:.L.str.3
	bl	rt_kprintf
	movw	r0, :lower16:.L.str.9
	movt	r0, :upper16:.L.str.9
	bl	rt_kprintf
	movw	r0, :lower16:.L.str.5
	movt	r0, :upper16:.L.str.5
	bl	rt_kprintf
	b	.LBB5_24
.Ltmp104:
.LBB5_24:
	.loc	1 401 9 is_stmt 1               @ rt-thread/components/drivers/spi/spi_flash_sfud.c:401:9
	b	.LBB5_25
.Ltmp105:
.LBB5_25:
	@DEBUG_LABEL: rt_sfud_flash_probe_ex:error
	.loc	1 406 9                         @ rt-thread/components/drivers/spi/spi_flash_sfud.c:406:9
	ldr	r0, [sp, #48]
.Ltmp106:
	.loc	1 406 9 is_stmt 0               @ rt-thread/components/drivers/spi/spi_flash_sfud.c:406:9
	cbz	r0, .LBB5_27
	b	.LBB5_26
.LBB5_26:
.Ltmp107:
	.loc	1 407 27 is_stmt 1              @ rt-thread/components/drivers/spi/spi_flash_sfud.c:407:27
	ldr	r0, [sp, #48]
	.loc	1 407 36 is_stmt 0              @ rt-thread/components/drivers/spi/spi_flash_sfud.c:407:36
	adds	r0, #96
	.loc	1 407 9                         @ rt-thread/components/drivers/spi/spi_flash_sfud.c:407:9
	bl	rt_mutex_detach
	.loc	1 408 5 is_stmt 1               @ rt-thread/components/drivers/spi/spi_flash_sfud.c:408:5
	b	.LBB5_27
.Ltmp108:
.LBB5_27:
	.loc	1 410 13                        @ rt-thread/components/drivers/spi/spi_flash_sfud.c:410:13
	ldr	r0, [sp, #48]
	.loc	1 410 5 is_stmt 0               @ rt-thread/components/drivers/spi/spi_flash_sfud.c:410:5
	bl	rt_free
	.loc	1 411 13 is_stmt 1              @ rt-thread/components/drivers/spi/spi_flash_sfud.c:411:13
	ldr	r0, [sp, #44]
	.loc	1 411 5 is_stmt 0               @ rt-thread/components/drivers/spi/spi_flash_sfud.c:411:5
	bl	rt_free
	.loc	1 412 13 is_stmt 1              @ rt-thread/components/drivers/spi/spi_flash_sfud.c:412:13
	ldr	r0, [sp, #40]
	.loc	1 412 5 is_stmt 0               @ rt-thread/components/drivers/spi/spi_flash_sfud.c:412:5
	bl	rt_free
	.loc	1 413 13 is_stmt 1              @ rt-thread/components/drivers/spi/spi_flash_sfud.c:413:13
	ldr	r0, [sp, #36]
	.loc	1 413 5 is_stmt 0               @ rt-thread/components/drivers/spi/spi_flash_sfud.c:413:5
	bl	rt_free
	movs	r0, #0
	.loc	1 415 5 is_stmt 1               @ rt-thread/components/drivers/spi/spi_flash_sfud.c:415:5
	str	r0, [sp, #68]
	b	.LBB5_28
.LBB5_28:
	.loc	1 416 1                         @ rt-thread/components/drivers/spi/spi_flash_sfud.c:416:1
	ldr	r0, [sp, #68]
	add	sp, #72
	pop	{r7, pc}
.Ltmp109:
.Lfunc_end5:
	.size	rt_sfud_flash_probe_ex, .Lfunc_end5-rt_sfud_flash_probe_ex
	.cfi_endproc
	.cantunwind
	.fnend
                                        @ -- End function
	.section	.text.rt_sfud_read,"ax",%progbits
	.p2align	3                               @ -- Begin function rt_sfud_read
	.type	rt_sfud_read,%function
	.code	16                              @ @rt_sfud_read
	.thumb_func
rt_sfud_read:
.Lfunc_begin6:
	.loc	1 88 0                          @ rt-thread/components/drivers/spi/spi_flash_sfud.c:88:0
	.fnstart
	.cfi_startproc
@ %bb.0:
	.save	{r7, lr}
	push	{r7, lr}
	.cfi_def_cfa_offset 8
	.cfi_offset lr, -4
	.cfi_offset r7, -8
	.pad	#40
	sub	sp, #40
	.cfi_def_cfa_offset 48
	str	r0, [sp, #32]
	str	r1, [sp, #28]
	str	r2, [sp, #24]
	str	r3, [sp, #20]
.Ltmp110:
	.loc	1 89 69 prologue_end            @ rt-thread/components/drivers/spi/spi_flash_sfud.c:89:69
	ldr	r0, [sp, #32]
	.loc	1 89 74 is_stmt 0               @ rt-thread/components/drivers/spi/spi_flash_sfud.c:89:74
	ldr	r0, [r0, #76]
	.loc	1 89 30                         @ rt-thread/components/drivers/spi/spi_flash_sfud.c:89:30
	str	r0, [sp, #16]
	.loc	1 90 44 is_stmt 1               @ rt-thread/components/drivers/spi/spi_flash_sfud.c:90:44
	ldr	r0, [sp, #16]
	.loc	1 90 53 is_stmt 0               @ rt-thread/components/drivers/spi/spi_flash_sfud.c:90:53
	ldr.w	r0, [r0, #132]
	.loc	1 90 17                         @ rt-thread/components/drivers/spi/spi_flash_sfud.c:90:17
	str	r0, [sp, #12]
.Ltmp111:
	.loc	1 92 5 is_stmt 1                @ rt-thread/components/drivers/spi/spi_flash_sfud.c:92:5
	ldr	r0, [sp, #32]
.Ltmp112:
	.loc	1 92 5 is_stmt 0                @ rt-thread/components/drivers/spi/spi_flash_sfud.c:92:5
	cbnz	r0, .LBB6_2
	b	.LBB6_1
.LBB6_1:
.Ltmp113:
	.loc	1 92 5                          @ rt-thread/components/drivers/spi/spi_flash_sfud.c:92:5
	movw	r0, :lower16:.L.str.19
	movt	r0, :upper16:.L.str.19
	movw	r1, :lower16:.L__FUNCTION__.rt_sfud_read
	movt	r1, :upper16:.L__FUNCTION__.rt_sfud_read
	movs	r2, #92
	bl	rt_assert_handler
	b	.LBB6_2
.Ltmp114:
.LBB6_2:
	.loc	1 93 5 is_stmt 1                @ rt-thread/components/drivers/spi/spi_flash_sfud.c:93:5
	ldr	r0, [sp, #16]
.Ltmp115:
	.loc	1 93 5 is_stmt 0                @ rt-thread/components/drivers/spi/spi_flash_sfud.c:93:5
	cbnz	r0, .LBB6_4
	b	.LBB6_3
.LBB6_3:
.Ltmp116:
	.loc	1 93 5                          @ rt-thread/components/drivers/spi/spi_flash_sfud.c:93:5
	movw	r0, :lower16:.L.str.16
	movt	r0, :upper16:.L.str.16
	movw	r1, :lower16:.L__FUNCTION__.rt_sfud_read
	movt	r1, :upper16:.L__FUNCTION__.rt_sfud_read
	movs	r2, #93
	bl	rt_assert_handler
	b	.LBB6_4
.Ltmp117:
.LBB6_4:
	.loc	1 94 5 is_stmt 1                @ rt-thread/components/drivers/spi/spi_flash_sfud.c:94:5
	ldr	r0, [sp, #12]
.Ltmp118:
	.loc	1 94 5 is_stmt 0                @ rt-thread/components/drivers/spi/spi_flash_sfud.c:94:5
	cbnz	r0, .LBB6_6
	b	.LBB6_5
.LBB6_5:
.Ltmp119:
	.loc	1 94 5                          @ rt-thread/components/drivers/spi/spi_flash_sfud.c:94:5
	movw	r0, :lower16:.L.str.15
	movt	r0, :upper16:.L.str.15
	movw	r1, :lower16:.L__FUNCTION__.rt_sfud_read
	movt	r1, :upper16:.L__FUNCTION__.rt_sfud_read
	movs	r2, #94
	bl	rt_assert_handler
	b	.LBB6_6
.Ltmp120:
.LBB6_6:
	.loc	1 96 24 is_stmt 1               @ rt-thread/components/drivers/spi/spi_flash_sfud.c:96:24
	ldr	r0, [sp, #28]
	.loc	1 96 30 is_stmt 0               @ rt-thread/components/drivers/spi/spi_flash_sfud.c:96:30
	ldr	r1, [sp, #16]
	.loc	1 96 48                         @ rt-thread/components/drivers/spi/spi_flash_sfud.c:96:48
	ldr	r1, [r1, #84]
	.loc	1 96 28                         @ rt-thread/components/drivers/spi/spi_flash_sfud.c:96:28
	muls	r0, r1, r0
	.loc	1 96 14                         @ rt-thread/components/drivers/spi/spi_flash_sfud.c:96:14
	str	r0, [sp, #8]
	.loc	1 97 26 is_stmt 1               @ rt-thread/components/drivers/spi/spi_flash_sfud.c:97:26
	ldr	r0, [sp, #20]
	.loc	1 97 33 is_stmt 0               @ rt-thread/components/drivers/spi/spi_flash_sfud.c:97:33
	ldr	r1, [sp, #16]
	.loc	1 97 51                         @ rt-thread/components/drivers/spi/spi_flash_sfud.c:97:51
	ldr	r1, [r1, #84]
	.loc	1 97 31                         @ rt-thread/components/drivers/spi/spi_flash_sfud.c:97:31
	muls	r0, r1, r0
	.loc	1 97 15                         @ rt-thread/components/drivers/spi/spi_flash_sfud.c:97:15
	str	r0, [sp, #4]
.Ltmp121:
	.loc	1 99 19 is_stmt 1               @ rt-thread/components/drivers/spi/spi_flash_sfud.c:99:19
	ldr	r0, [sp, #12]
	.loc	1 99 29 is_stmt 0               @ rt-thread/components/drivers/spi/spi_flash_sfud.c:99:29
	ldr	r1, [sp, #8]
	.loc	1 99 38                         @ rt-thread/components/drivers/spi/spi_flash_sfud.c:99:38
	ldr	r2, [sp, #4]
	.loc	1 99 48                         @ rt-thread/components/drivers/spi/spi_flash_sfud.c:99:48
	ldr	r3, [sp, #24]
	.loc	1 99 9                          @ rt-thread/components/drivers/spi/spi_flash_sfud.c:99:9
	bl	sfud_read
.Ltmp122:
	.loc	1 99 9                          @ rt-thread/components/drivers/spi/spi_flash_sfud.c:99:9
	cbz	r0, .LBB6_8
	b	.LBB6_7
.LBB6_7:
	.loc	1 0 9                           @ rt-thread/components/drivers/spi/spi_flash_sfud.c:0:9
	movs	r0, #0
.Ltmp123:
	.loc	1 100 9 is_stmt 1               @ rt-thread/components/drivers/spi/spi_flash_sfud.c:100:9
	str	r0, [sp, #36]
	b	.LBB6_9
.Ltmp124:
.LBB6_8:
	.loc	1 102 16                        @ rt-thread/components/drivers/spi/spi_flash_sfud.c:102:16
	ldr	r0, [sp, #20]
	.loc	1 102 9 is_stmt 0               @ rt-thread/components/drivers/spi/spi_flash_sfud.c:102:9
	str	r0, [sp, #36]
	b	.LBB6_9
.Ltmp125:
.LBB6_9:
	.loc	1 104 1 is_stmt 1               @ rt-thread/components/drivers/spi/spi_flash_sfud.c:104:1
	ldr	r0, [sp, #36]
	add	sp, #40
	pop	{r7, pc}
.Ltmp126:
.Lfunc_end6:
	.size	rt_sfud_read, .Lfunc_end6-rt_sfud_read
	.cfi_endproc
	.cantunwind
	.fnend
                                        @ -- End function
	.section	.text.rt_sfud_write,"ax",%progbits
	.p2align	3                               @ -- Begin function rt_sfud_write
	.type	rt_sfud_write,%function
	.code	16                              @ @rt_sfud_write
	.thumb_func
rt_sfud_write:
.Lfunc_begin7:
	.loc	1 106 0                         @ rt-thread/components/drivers/spi/spi_flash_sfud.c:106:0
	.fnstart
	.cfi_startproc
@ %bb.0:
	.save	{r7, lr}
	push	{r7, lr}
	.cfi_def_cfa_offset 8
	.cfi_offset lr, -4
	.cfi_offset r7, -8
	.pad	#40
	sub	sp, #40
	.cfi_def_cfa_offset 48
	str	r0, [sp, #32]
	str	r1, [sp, #28]
	str	r2, [sp, #24]
	str	r3, [sp, #20]
.Ltmp127:
	.loc	1 107 69 prologue_end           @ rt-thread/components/drivers/spi/spi_flash_sfud.c:107:69
	ldr	r0, [sp, #32]
	.loc	1 107 74 is_stmt 0              @ rt-thread/components/drivers/spi/spi_flash_sfud.c:107:74
	ldr	r0, [r0, #76]
	.loc	1 107 30                        @ rt-thread/components/drivers/spi/spi_flash_sfud.c:107:30
	str	r0, [sp, #16]
	.loc	1 108 44 is_stmt 1              @ rt-thread/components/drivers/spi/spi_flash_sfud.c:108:44
	ldr	r0, [sp, #16]
	.loc	1 108 53 is_stmt 0              @ rt-thread/components/drivers/spi/spi_flash_sfud.c:108:53
	ldr.w	r0, [r0, #132]
	.loc	1 108 17                        @ rt-thread/components/drivers/spi/spi_flash_sfud.c:108:17
	str	r0, [sp, #12]
.Ltmp128:
	.loc	1 110 5 is_stmt 1               @ rt-thread/components/drivers/spi/spi_flash_sfud.c:110:5
	ldr	r0, [sp, #32]
.Ltmp129:
	.loc	1 110 5 is_stmt 0               @ rt-thread/components/drivers/spi/spi_flash_sfud.c:110:5
	cbnz	r0, .LBB7_2
	b	.LBB7_1
.LBB7_1:
.Ltmp130:
	.loc	1 110 5                         @ rt-thread/components/drivers/spi/spi_flash_sfud.c:110:5
	movw	r0, :lower16:.L.str.19
	movt	r0, :upper16:.L.str.19
	movw	r1, :lower16:.L__FUNCTION__.rt_sfud_write
	movt	r1, :upper16:.L__FUNCTION__.rt_sfud_write
	movs	r2, #110
	bl	rt_assert_handler
	b	.LBB7_2
.Ltmp131:
.LBB7_2:
	.loc	1 111 5 is_stmt 1               @ rt-thread/components/drivers/spi/spi_flash_sfud.c:111:5
	ldr	r0, [sp, #16]
.Ltmp132:
	.loc	1 111 5 is_stmt 0               @ rt-thread/components/drivers/spi/spi_flash_sfud.c:111:5
	cbnz	r0, .LBB7_4
	b	.LBB7_3
.LBB7_3:
.Ltmp133:
	.loc	1 111 5                         @ rt-thread/components/drivers/spi/spi_flash_sfud.c:111:5
	movw	r0, :lower16:.L.str.16
	movt	r0, :upper16:.L.str.16
	movw	r1, :lower16:.L__FUNCTION__.rt_sfud_write
	movt	r1, :upper16:.L__FUNCTION__.rt_sfud_write
	movs	r2, #111
	bl	rt_assert_handler
	b	.LBB7_4
.Ltmp134:
.LBB7_4:
	.loc	1 112 5 is_stmt 1               @ rt-thread/components/drivers/spi/spi_flash_sfud.c:112:5
	ldr	r0, [sp, #12]
.Ltmp135:
	.loc	1 112 5 is_stmt 0               @ rt-thread/components/drivers/spi/spi_flash_sfud.c:112:5
	cbnz	r0, .LBB7_6
	b	.LBB7_5
.LBB7_5:
.Ltmp136:
	.loc	1 112 5                         @ rt-thread/components/drivers/spi/spi_flash_sfud.c:112:5
	movw	r0, :lower16:.L.str.15
	movt	r0, :upper16:.L.str.15
	movw	r1, :lower16:.L__FUNCTION__.rt_sfud_write
	movt	r1, :upper16:.L__FUNCTION__.rt_sfud_write
	movs	r2, #112
	bl	rt_assert_handler
	b	.LBB7_6
.Ltmp137:
.LBB7_6:
	.loc	1 114 24 is_stmt 1              @ rt-thread/components/drivers/spi/spi_flash_sfud.c:114:24
	ldr	r0, [sp, #28]
	.loc	1 114 30 is_stmt 0              @ rt-thread/components/drivers/spi/spi_flash_sfud.c:114:30
	ldr	r1, [sp, #16]
	.loc	1 114 48                        @ rt-thread/components/drivers/spi/spi_flash_sfud.c:114:48
	ldr	r1, [r1, #84]
	.loc	1 114 28                        @ rt-thread/components/drivers/spi/spi_flash_sfud.c:114:28
	muls	r0, r1, r0
	.loc	1 114 14                        @ rt-thread/components/drivers/spi/spi_flash_sfud.c:114:14
	str	r0, [sp, #8]
	.loc	1 115 26 is_stmt 1              @ rt-thread/components/drivers/spi/spi_flash_sfud.c:115:26
	ldr	r0, [sp, #20]
	.loc	1 115 33 is_stmt 0              @ rt-thread/components/drivers/spi/spi_flash_sfud.c:115:33
	ldr	r1, [sp, #16]
	.loc	1 115 51                        @ rt-thread/components/drivers/spi/spi_flash_sfud.c:115:51
	ldr	r1, [r1, #84]
	.loc	1 115 31                        @ rt-thread/components/drivers/spi/spi_flash_sfud.c:115:31
	muls	r0, r1, r0
	.loc	1 115 15                        @ rt-thread/components/drivers/spi/spi_flash_sfud.c:115:15
	str	r0, [sp, #4]
.Ltmp138:
	.loc	1 117 26 is_stmt 1              @ rt-thread/components/drivers/spi/spi_flash_sfud.c:117:26
	ldr	r0, [sp, #12]
	.loc	1 117 36 is_stmt 0              @ rt-thread/components/drivers/spi/spi_flash_sfud.c:117:36
	ldr	r1, [sp, #8]
	.loc	1 117 45                        @ rt-thread/components/drivers/spi/spi_flash_sfud.c:117:45
	ldr	r2, [sp, #4]
	.loc	1 117 55                        @ rt-thread/components/drivers/spi/spi_flash_sfud.c:117:55
	ldr	r3, [sp, #24]
	.loc	1 117 9                         @ rt-thread/components/drivers/spi/spi_flash_sfud.c:117:9
	bl	sfud_erase_write
.Ltmp139:
	.loc	1 117 9                         @ rt-thread/components/drivers/spi/spi_flash_sfud.c:117:9
	cbz	r0, .LBB7_8
	b	.LBB7_7
.LBB7_7:
	.loc	1 0 9                           @ rt-thread/components/drivers/spi/spi_flash_sfud.c:0:9
	movs	r0, #0
.Ltmp140:
	.loc	1 118 9 is_stmt 1               @ rt-thread/components/drivers/spi/spi_flash_sfud.c:118:9
	str	r0, [sp, #36]
	b	.LBB7_9
.Ltmp141:
.LBB7_8:
	.loc	1 120 16                        @ rt-thread/components/drivers/spi/spi_flash_sfud.c:120:16
	ldr	r0, [sp, #20]
	.loc	1 120 9 is_stmt 0               @ rt-thread/components/drivers/spi/spi_flash_sfud.c:120:9
	str	r0, [sp, #36]
	b	.LBB7_9
.Ltmp142:
.LBB7_9:
	.loc	1 122 1 is_stmt 1               @ rt-thread/components/drivers/spi/spi_flash_sfud.c:122:1
	ldr	r0, [sp, #36]
	add	sp, #40
	pop	{r7, pc}
.Ltmp143:
.Lfunc_end7:
	.size	rt_sfud_write, .Lfunc_end7-rt_sfud_write
	.cfi_endproc
	.cantunwind
	.fnend
                                        @ -- End function
	.section	.text.rt_sfud_control,"ax",%progbits
	.p2align	3                               @ -- Begin function rt_sfud_control
	.type	rt_sfud_control,%function
	.code	16                              @ @rt_sfud_control
	.thumb_func
rt_sfud_control:
.Lfunc_begin8:
	.loc	1 43 0                          @ rt-thread/components/drivers/spi/spi_flash_sfud.c:43:0
	.fnstart
	.cfi_startproc
@ %bb.0:
	.save	{r7, lr}
	push	{r7, lr}
	.cfi_def_cfa_offset 8
	.cfi_offset lr, -4
	.cfi_offset r7, -8
	.pad	#56
	sub	sp, #56
	.cfi_def_cfa_offset 64
	str	r0, [sp, #48]
	str	r1, [sp, #44]
	str	r2, [sp, #40]
.Ltmp144:
	.loc	1 44 5 prologue_end             @ rt-thread/components/drivers/spi/spi_flash_sfud.c:44:5
	ldr	r0, [sp, #48]
.Ltmp145:
	.loc	1 44 5 is_stmt 0                @ rt-thread/components/drivers/spi/spi_flash_sfud.c:44:5
	cbnz	r0, .LBB8_2
	b	.LBB8_1
.LBB8_1:
.Ltmp146:
	.loc	1 44 5                          @ rt-thread/components/drivers/spi/spi_flash_sfud.c:44:5
	movw	r0, :lower16:.L.str.19
	movt	r0, :upper16:.L.str.19
	movw	r1, :lower16:.L__FUNCTION__.rt_sfud_control
	movt	r1, :upper16:.L__FUNCTION__.rt_sfud_control
	movs	r2, #44
	bl	rt_assert_handler
	b	.LBB8_2
.Ltmp147:
.LBB8_2:
	.loc	1 46 13 is_stmt 1               @ rt-thread/components/drivers/spi/spi_flash_sfud.c:46:13
	ldr	r0, [sp, #44]
	.loc	1 46 5 is_stmt 0                @ rt-thread/components/drivers/spi/spi_flash_sfud.c:46:5
	str	r0, [sp]                        @ 4-byte Spill
	cmp	r0, #16
	beq	.LBB8_4
	b	.LBB8_3
.LBB8_3:
	ldr	r0, [sp]                        @ 4-byte Reload
	cmp	r0, #18
	beq	.LBB8_8
	b	.LBB8_18
.LBB8_4:
.Ltmp148:
	.loc	1 48 85 is_stmt 1               @ rt-thread/components/drivers/spi/spi_flash_sfud.c:48:85
	ldr	r0, [sp, #40]
	.loc	1 48 40 is_stmt 0               @ rt-thread/components/drivers/spi/spi_flash_sfud.c:48:40
	str	r0, [sp, #36]
	.loc	1 49 73 is_stmt 1               @ rt-thread/components/drivers/spi/spi_flash_sfud.c:49:73
	ldr	r0, [sp, #48]
	.loc	1 49 78 is_stmt 0               @ rt-thread/components/drivers/spi/spi_flash_sfud.c:49:78
	ldr	r0, [r0, #76]
	.loc	1 49 34                         @ rt-thread/components/drivers/spi/spi_flash_sfud.c:49:34
	str	r0, [sp, #32]
.Ltmp149:
	.loc	1 51 13 is_stmt 1               @ rt-thread/components/drivers/spi/spi_flash_sfud.c:51:13
	ldr	r0, [sp, #32]
	.loc	1 51 32 is_stmt 0               @ rt-thread/components/drivers/spi/spi_flash_sfud.c:51:32
	cbz	r0, .LBB8_6
	b	.LBB8_5
.LBB8_5:
	.loc	1 51 35                         @ rt-thread/components/drivers/spi/spi_flash_sfud.c:51:35
	ldr	r0, [sp, #36]
.Ltmp150:
	.loc	1 51 13                         @ rt-thread/components/drivers/spi/spi_flash_sfud.c:51:13
	cbnz	r0, .LBB8_7
	b	.LBB8_6
.LBB8_6:
	.loc	1 0 13                          @ rt-thread/components/drivers/spi/spi_flash_sfud.c:0:13
	mov.w	r0, #-1
.Ltmp151:
	.loc	1 52 13 is_stmt 1               @ rt-thread/components/drivers/spi/spi_flash_sfud.c:52:13
	str	r0, [sp, #52]
	b	.LBB8_19
.Ltmp152:
.LBB8_7:
	.loc	1 55 38                         @ rt-thread/components/drivers/spi/spi_flash_sfud.c:55:38
	ldr	r0, [sp, #32]
	.loc	1 55 56 is_stmt 0               @ rt-thread/components/drivers/spi/spi_flash_sfud.c:55:56
	ldr	r0, [r0, #84]
	.loc	1 55 9                          @ rt-thread/components/drivers/spi/spi_flash_sfud.c:55:9
	ldr	r1, [sp, #36]
	.loc	1 55 36                         @ rt-thread/components/drivers/spi/spi_flash_sfud.c:55:36
	str	r0, [r1, #4]
	.loc	1 56 34 is_stmt 1               @ rt-thread/components/drivers/spi/spi_flash_sfud.c:56:34
	ldr	r0, [sp, #32]
	.loc	1 56 52 is_stmt 0               @ rt-thread/components/drivers/spi/spi_flash_sfud.c:56:52
	ldr	r0, [r0, #80]
	.loc	1 56 9                          @ rt-thread/components/drivers/spi/spi_flash_sfud.c:56:9
	ldr	r1, [sp, #36]
	.loc	1 56 32                         @ rt-thread/components/drivers/spi/spi_flash_sfud.c:56:32
	str	r0, [r1]
	.loc	1 57 32 is_stmt 1               @ rt-thread/components/drivers/spi/spi_flash_sfud.c:57:32
	ldr	r0, [sp, #32]
	.loc	1 57 50 is_stmt 0               @ rt-thread/components/drivers/spi/spi_flash_sfud.c:57:50
	ldr	r0, [r0, #88]
	.loc	1 57 9                          @ rt-thread/components/drivers/spi/spi_flash_sfud.c:57:9
	ldr	r1, [sp, #36]
	.loc	1 57 30                         @ rt-thread/components/drivers/spi/spi_flash_sfud.c:57:30
	str	r0, [r1, #8]
	.loc	1 58 9 is_stmt 1                @ rt-thread/components/drivers/spi/spi_flash_sfud.c:58:9
	b	.LBB8_18
.Ltmp153:
.LBB8_8:
	.loc	1 61 46                         @ rt-thread/components/drivers/spi/spi_flash_sfud.c:61:46
	ldr	r0, [sp, #40]
	.loc	1 61 22 is_stmt 0               @ rt-thread/components/drivers/spi/spi_flash_sfud.c:61:22
	str	r0, [sp, #28]
	.loc	1 61 65                         @ rt-thread/components/drivers/spi/spi_flash_sfud.c:61:65
	ldr	r0, [sp, #28]
	ldr	r0, [r0]
	.loc	1 61 52                         @ rt-thread/components/drivers/spi/spi_flash_sfud.c:61:52
	str	r0, [sp, #24]
	.loc	1 61 86                         @ rt-thread/components/drivers/spi/spi_flash_sfud.c:61:86
	ldr	r0, [sp, #28]
	ldr	r0, [r0, #4]
	.loc	1 61 75                         @ rt-thread/components/drivers/spi/spi_flash_sfud.c:61:75
	str	r0, [sp, #20]
	.loc	1 62 73 is_stmt 1               @ rt-thread/components/drivers/spi/spi_flash_sfud.c:62:73
	ldr	r0, [sp, #48]
	.loc	1 62 78 is_stmt 0               @ rt-thread/components/drivers/spi/spi_flash_sfud.c:62:78
	ldr	r0, [r0, #76]
	.loc	1 62 34                         @ rt-thread/components/drivers/spi/spi_flash_sfud.c:62:34
	str	r0, [sp, #12]
	.loc	1 63 48 is_stmt 1               @ rt-thread/components/drivers/spi/spi_flash_sfud.c:63:48
	ldr	r0, [sp, #12]
	.loc	1 63 57 is_stmt 0               @ rt-thread/components/drivers/spi/spi_flash_sfud.c:63:57
	ldr.w	r0, [r0, #132]
	.loc	1 63 21                         @ rt-thread/components/drivers/spi/spi_flash_sfud.c:63:21
	str	r0, [sp, #8]
.Ltmp154:
	.loc	1 66 13 is_stmt 1               @ rt-thread/components/drivers/spi/spi_flash_sfud.c:66:13
	ldr	r0, [sp, #28]
	.loc	1 66 30 is_stmt 0               @ rt-thread/components/drivers/spi/spi_flash_sfud.c:66:30
	cbz	r0, .LBB8_12
	b	.LBB8_9
.LBB8_9:
	.loc	1 66 33                         @ rt-thread/components/drivers/spi/spi_flash_sfud.c:66:33
	ldr	r0, [sp, #24]
	.loc	1 66 46                         @ rt-thread/components/drivers/spi/spi_flash_sfud.c:66:46
	ldr	r1, [sp, #20]
	.loc	1 66 55                         @ rt-thread/components/drivers/spi/spi_flash_sfud.c:66:55
	cmp	r0, r1
	bhi	.LBB8_12
	b	.LBB8_10
.LBB8_10:
	.loc	1 66 58                         @ rt-thread/components/drivers/spi/spi_flash_sfud.c:66:58
	ldr	r0, [sp, #12]
	.loc	1 66 77                         @ rt-thread/components/drivers/spi/spi_flash_sfud.c:66:77
	cbz	r0, .LBB8_12
	b	.LBB8_11
.LBB8_11:
	.loc	1 66 80                         @ rt-thread/components/drivers/spi/spi_flash_sfud.c:66:80
	ldr	r0, [sp, #8]
.Ltmp155:
	.loc	1 66 13                         @ rt-thread/components/drivers/spi/spi_flash_sfud.c:66:13
	cbnz	r0, .LBB8_13
	b	.LBB8_12
.LBB8_12:
	.loc	1 0 13                          @ rt-thread/components/drivers/spi/spi_flash_sfud.c:0:13
	mov.w	r0, #-1
.Ltmp156:
	.loc	1 67 13 is_stmt 1               @ rt-thread/components/drivers/spi/spi_flash_sfud.c:67:13
	str	r0, [sp, #52]
	b	.LBB8_19
.Ltmp157:
.LBB8_13:
	.loc	1 70 13                         @ rt-thread/components/drivers/spi/spi_flash_sfud.c:70:13
	ldr	r0, [sp, #20]
	.loc	1 70 25 is_stmt 0               @ rt-thread/components/drivers/spi/spi_flash_sfud.c:70:25
	ldr	r1, [sp, #24]
.Ltmp158:
	.loc	1 70 13                         @ rt-thread/components/drivers/spi/spi_flash_sfud.c:70:13
	cmp	r0, r1
	bne	.LBB8_15
	b	.LBB8_14
.LBB8_14:
.Ltmp159:
	.loc	1 71 22 is_stmt 1               @ rt-thread/components/drivers/spi/spi_flash_sfud.c:71:22
	ldr	r0, [sp, #20]
	adds	r0, #1
	str	r0, [sp, #20]
	.loc	1 72 9                          @ rt-thread/components/drivers/spi/spi_flash_sfud.c:72:9
	b	.LBB8_15
.Ltmp160:
.LBB8_15:
	.loc	1 74 26                         @ rt-thread/components/drivers/spi/spi_flash_sfud.c:74:26
	ldr	r0, [sp, #24]
	.loc	1 74 39 is_stmt 0               @ rt-thread/components/drivers/spi/spi_flash_sfud.c:74:39
	ldr	r1, [sp, #12]
	.loc	1 74 57                         @ rt-thread/components/drivers/spi/spi_flash_sfud.c:74:57
	ldr	r1, [r1, #84]
	.loc	1 74 37                         @ rt-thread/components/drivers/spi/spi_flash_sfud.c:74:37
	muls	r0, r1, r0
	.loc	1 74 24                         @ rt-thread/components/drivers/spi/spi_flash_sfud.c:74:24
	str	r0, [sp, #16]
	.loc	1 75 21 is_stmt 1               @ rt-thread/components/drivers/spi/spi_flash_sfud.c:75:21
	ldr	r0, [sp, #20]
	.loc	1 75 32 is_stmt 0               @ rt-thread/components/drivers/spi/spi_flash_sfud.c:75:32
	ldr	r1, [sp, #24]
	.loc	1 75 30                         @ rt-thread/components/drivers/spi/spi_flash_sfud.c:75:30
	subs	r0, r0, r1
	.loc	1 75 46                         @ rt-thread/components/drivers/spi/spi_flash_sfud.c:75:46
	ldr	r1, [sp, #12]
	.loc	1 75 64                         @ rt-thread/components/drivers/spi/spi_flash_sfud.c:75:64
	ldr	r1, [r1, #84]
	.loc	1 75 44                         @ rt-thread/components/drivers/spi/spi_flash_sfud.c:75:44
	muls	r0, r1, r0
	.loc	1 75 18                         @ rt-thread/components/drivers/spi/spi_flash_sfud.c:75:18
	str	r0, [sp, #4]
.Ltmp161:
	.loc	1 77 24 is_stmt 1               @ rt-thread/components/drivers/spi/spi_flash_sfud.c:77:24
	ldr	r0, [sp, #8]
	.loc	1 77 34 is_stmt 0               @ rt-thread/components/drivers/spi/spi_flash_sfud.c:77:34
	ldr	r1, [sp, #16]
	.loc	1 77 50                         @ rt-thread/components/drivers/spi/spi_flash_sfud.c:77:50
	ldr	r2, [sp, #4]
	.loc	1 77 13                         @ rt-thread/components/drivers/spi/spi_flash_sfud.c:77:13
	bl	sfud_erase
.Ltmp162:
	.loc	1 77 13                         @ rt-thread/components/drivers/spi/spi_flash_sfud.c:77:13
	cbz	r0, .LBB8_17
	b	.LBB8_16
.LBB8_16:
	.loc	1 0 13                          @ rt-thread/components/drivers/spi/spi_flash_sfud.c:0:13
	mov.w	r0, #-1
.Ltmp163:
	.loc	1 78 13 is_stmt 1               @ rt-thread/components/drivers/spi/spi_flash_sfud.c:78:13
	str	r0, [sp, #52]
	b	.LBB8_19
.Ltmp164:
.LBB8_17:
	.loc	1 80 9                          @ rt-thread/components/drivers/spi/spi_flash_sfud.c:80:9
	b	.LBB8_18
.Ltmp165:
.LBB8_18:
	.loc	1 0 9 is_stmt 0                 @ rt-thread/components/drivers/spi/spi_flash_sfud.c:0:9
	movs	r0, #0
	.loc	1 84 5 is_stmt 1                @ rt-thread/components/drivers/spi/spi_flash_sfud.c:84:5
	str	r0, [sp, #52]
	b	.LBB8_19
.LBB8_19:
	.loc	1 85 1                          @ rt-thread/components/drivers/spi/spi_flash_sfud.c:85:1
	ldr	r0, [sp, #52]
	add	sp, #56
	pop	{r7, pc}
.Ltmp166:
.Lfunc_end8:
	.size	rt_sfud_control, .Lfunc_end8-rt_sfud_control
	.cfi_endproc
	.cantunwind
	.fnend
                                        @ -- End function
	.section	.text.rt_sfud_flash_probe,"ax",%progbits
	.hidden	rt_sfud_flash_probe             @ -- Begin function rt_sfud_flash_probe
	.globl	rt_sfud_flash_probe
	.p2align	3
	.type	rt_sfud_flash_probe,%function
	.code	16                              @ @rt_sfud_flash_probe
	.thumb_func
rt_sfud_flash_probe:
.Lfunc_begin9:
	.loc	1 427 0                         @ rt-thread/components/drivers/spi/spi_flash_sfud.c:427:0
	.fnstart
	.cfi_startproc
@ %bb.0:
	.save	{r7, lr}
	push	{r7, lr}
	.cfi_def_cfa_offset 8
	.cfi_offset lr, -4
	.cfi_offset r7, -8
	.pad	#16
	sub	sp, #16
	.cfi_def_cfa_offset 24
	str	r0, [sp, #12]
	str	r1, [sp, #8]
.Ltmp167:
	.loc	1 428 33 prologue_end           @ rt-thread/components/drivers/spi/spi_flash_sfud.c:428:33
	movw	r1, :lower16:.L__const.rt_sfud_flash_probe.cfg
	movt	r1, :upper16:.L__const.rt_sfud_flash_probe.cfg
	ldr	r0, [r1]
	ldr	r1, [r1, #4]
	str	r1, [sp, #4]
	str	r0, [sp]
	.loc	1 430 35                        @ rt-thread/components/drivers/spi/spi_flash_sfud.c:430:35
	ldr	r0, [sp, #12]
	.loc	1 430 55 is_stmt 0              @ rt-thread/components/drivers/spi/spi_flash_sfud.c:430:55
	ldr	r1, [sp, #8]
	mov	r2, sp
	movs	r3, #0
	.loc	1 430 12                        @ rt-thread/components/drivers/spi/spi_flash_sfud.c:430:12
	bl	rt_sfud_flash_probe_ex
	.loc	1 430 5                         @ rt-thread/components/drivers/spi/spi_flash_sfud.c:430:5
	add	sp, #16
	pop	{r7, pc}
.Ltmp168:
.Lfunc_end9:
	.size	rt_sfud_flash_probe, .Lfunc_end9-rt_sfud_flash_probe
	.cfi_endproc
	.cantunwind
	.fnend
                                        @ -- End function
	.section	.text.rt_sfud_flash_delete,"ax",%progbits
	.hidden	rt_sfud_flash_delete            @ -- Begin function rt_sfud_flash_delete
	.globl	rt_sfud_flash_delete
	.p2align	3
	.type	rt_sfud_flash_delete,%function
	.code	16                              @ @rt_sfud_flash_delete
	.thumb_func
rt_sfud_flash_delete:
.Lfunc_begin10:
	.loc	1 445 0 is_stmt 1               @ rt-thread/components/drivers/spi/spi_flash_sfud.c:445:0
	.fnstart
	.cfi_startproc
@ %bb.0:
	.save	{r7, lr}
	push	{r7, lr}
	.cfi_def_cfa_offset 8
	.cfi_offset lr, -4
	.cfi_offset r7, -8
	.pad	#8
	sub	sp, #8
	.cfi_def_cfa_offset 16
	str	r0, [sp, #4]
.Ltmp169:
	.loc	1 446 50 prologue_end           @ rt-thread/components/drivers/spi/spi_flash_sfud.c:446:50
	ldr	r0, [sp, #4]
	.loc	1 446 65 is_stmt 0              @ rt-thread/components/drivers/spi/spi_flash_sfud.c:446:65
	ldr.w	r0, [r0, #132]
	.loc	1 446 17                        @ rt-thread/components/drivers/spi/spi_flash_sfud.c:446:17
	str	r0, [sp]
.Ltmp170:
	.loc	1 448 5 is_stmt 1               @ rt-thread/components/drivers/spi/spi_flash_sfud.c:448:5
	ldr	r0, [sp, #4]
.Ltmp171:
	.loc	1 448 5 is_stmt 0               @ rt-thread/components/drivers/spi/spi_flash_sfud.c:448:5
	cbnz	r0, .LBB10_2
	b	.LBB10_1
.LBB10_1:
.Ltmp172:
	.loc	1 448 5                         @ rt-thread/components/drivers/spi/spi_flash_sfud.c:448:5
	movw	r0, :lower16:.L.str.10
	movt	r0, :upper16:.L.str.10
	movw	r1, :lower16:.L__FUNCTION__.rt_sfud_flash_delete
	movt	r1, :upper16:.L__FUNCTION__.rt_sfud_flash_delete
	mov.w	r2, #448
	bl	rt_assert_handler
	b	.LBB10_2
.Ltmp173:
.LBB10_2:
	.loc	1 449 5 is_stmt 1               @ rt-thread/components/drivers/spi/spi_flash_sfud.c:449:5
	ldr	r0, [sp]
.Ltmp174:
	.loc	1 449 5 is_stmt 0               @ rt-thread/components/drivers/spi/spi_flash_sfud.c:449:5
	cbnz	r0, .LBB10_4
	b	.LBB10_3
.LBB10_3:
.Ltmp175:
	.loc	1 449 5                         @ rt-thread/components/drivers/spi/spi_flash_sfud.c:449:5
	movw	r0, :lower16:.L.str.11
	movt	r0, :upper16:.L.str.11
	movw	r1, :lower16:.L__FUNCTION__.rt_sfud_flash_delete
	movt	r1, :upper16:.L__FUNCTION__.rt_sfud_flash_delete
	movw	r2, #449
	bl	rt_assert_handler
	b	.LBB10_4
.Ltmp176:
.LBB10_4:
	.loc	1 451 28 is_stmt 1              @ rt-thread/components/drivers/spi/spi_flash_sfud.c:451:28
	ldr	r0, [sp, #4]
	.loc	1 451 5 is_stmt 0               @ rt-thread/components/drivers/spi/spi_flash_sfud.c:451:5
	bl	rt_device_unregister
	.loc	1 453 23 is_stmt 1              @ rt-thread/components/drivers/spi/spi_flash_sfud.c:453:23
	ldr	r0, [sp, #4]
	.loc	1 453 38 is_stmt 0              @ rt-thread/components/drivers/spi/spi_flash_sfud.c:453:38
	adds	r0, #96
	.loc	1 453 5                         @ rt-thread/components/drivers/spi/spi_flash_sfud.c:453:5
	bl	rt_mutex_detach
	.loc	1 455 13 is_stmt 1              @ rt-thread/components/drivers/spi/spi_flash_sfud.c:455:13
	ldr	r0, [sp]
	.loc	1 455 33 is_stmt 0              @ rt-thread/components/drivers/spi/spi_flash_sfud.c:455:33
	ldr	r0, [r0, #32]
	.loc	1 455 5                         @ rt-thread/components/drivers/spi/spi_flash_sfud.c:455:5
	bl	rt_free
	.loc	1 456 13 is_stmt 1              @ rt-thread/components/drivers/spi/spi_flash_sfud.c:456:13
	ldr	r0, [sp]
	.loc	1 456 29 is_stmt 0              @ rt-thread/components/drivers/spi/spi_flash_sfud.c:456:29
	ldr	r0, [r0]
	.loc	1 456 5                         @ rt-thread/components/drivers/spi/spi_flash_sfud.c:456:5
	bl	rt_free
	.loc	1 457 13 is_stmt 1              @ rt-thread/components/drivers/spi/spi_flash_sfud.c:457:13
	ldr	r0, [sp]
	.loc	1 457 5 is_stmt 0               @ rt-thread/components/drivers/spi/spi_flash_sfud.c:457:5
	bl	rt_free
	.loc	1 458 13 is_stmt 1              @ rt-thread/components/drivers/spi/spi_flash_sfud.c:458:13
	ldr	r0, [sp, #4]
	.loc	1 458 5 is_stmt 0               @ rt-thread/components/drivers/spi/spi_flash_sfud.c:458:5
	bl	rt_free
	movs	r0, #0
	.loc	1 460 5 is_stmt 1               @ rt-thread/components/drivers/spi/spi_flash_sfud.c:460:5
	add	sp, #8
	pop	{r7, pc}
.Ltmp177:
.Lfunc_end10:
	.size	rt_sfud_flash_delete, .Lfunc_end10-rt_sfud_flash_delete
	.cfi_endproc
	.cantunwind
	.fnend
                                        @ -- End function
	.section	.text.rt_sfud_flash_find,"ax",%progbits
	.hidden	rt_sfud_flash_find              @ -- Begin function rt_sfud_flash_find
	.globl	rt_sfud_flash_find
	.p2align	3
	.type	rt_sfud_flash_find,%function
	.code	16                              @ @rt_sfud_flash_find
	.thumb_func
rt_sfud_flash_find:
.Lfunc_begin11:
	.loc	1 464 0                         @ rt-thread/components/drivers/spi/spi_flash_sfud.c:464:0
	.fnstart
	.cfi_startproc
@ %bb.0:
	.save	{r7, lr}
	push	{r7, lr}
	.cfi_def_cfa_offset 8
	.cfi_offset lr, -4
	.cfi_offset r7, -8
	.pad	#24
	sub	sp, #24
	.cfi_def_cfa_offset 32
	str	r0, [sp, #16]
	movs	r0, #0
.Ltmp178:
	.loc	1 465 28 prologue_end           @ rt-thread/components/drivers/spi/spi_flash_sfud.c:465:28
	str	r0, [sp, #12]
	.loc	1 466 28                        @ rt-thread/components/drivers/spi/spi_flash_sfud.c:466:28
	str	r0, [sp, #8]
	.loc	1 467 28                        @ rt-thread/components/drivers/spi/spi_flash_sfud.c:467:28
	str	r0, [sp, #4]
	.loc	1 469 61                        @ rt-thread/components/drivers/spi/spi_flash_sfud.c:469:61
	ldr	r0, [sp, #16]
	.loc	1 469 46 is_stmt 0              @ rt-thread/components/drivers/spi/spi_flash_sfud.c:469:46
	bl	rt_device_find
	.loc	1 469 19                        @ rt-thread/components/drivers/spi/spi_flash_sfud.c:469:19
	str	r0, [sp, #8]
.Ltmp179:
	.loc	1 470 9 is_stmt 1               @ rt-thread/components/drivers/spi/spi_flash_sfud.c:470:9
	ldr	r0, [sp, #8]
	.loc	1 470 34 is_stmt 0              @ rt-thread/components/drivers/spi/spi_flash_sfud.c:470:34
	cbz	r0, .LBB11_2
	b	.LBB11_1
.LBB11_1:
	.loc	1 470 37                        @ rt-thread/components/drivers/spi/spi_flash_sfud.c:470:37
	ldr	r0, [sp, #8]
	.loc	1 470 59                        @ rt-thread/components/drivers/spi/spi_flash_sfud.c:470:59
	ldrb	r0, [r0, #20]
.Ltmp180:
	.loc	1 470 9                         @ rt-thread/components/drivers/spi/spi_flash_sfud.c:470:9
	cmp	r0, #12
	beq	.LBB11_5
	b	.LBB11_2
.LBB11_2:
.Ltmp181:
	.loc	1 471 9 is_stmt 1               @ rt-thread/components/drivers/spi/spi_flash_sfud.c:471:9
	b	.LBB11_3
.LBB11_3:
.Ltmp182:
	.loc	1 471 9 is_stmt 0               @ rt-thread/components/drivers/spi/spi_flash_sfud.c:471:9
	movw	r0, :lower16:.L.str.3
	movt	r0, :upper16:.L.str.3
	bl	rt_kprintf
	ldr	r1, [sp, #16]
	movw	r0, :lower16:.L.str.4
	movt	r0, :upper16:.L.str.4
	bl	rt_kprintf
	movw	r0, :lower16:.L.str.5
	movt	r0, :upper16:.L.str.5
	bl	rt_kprintf
	b	.LBB11_4
.Ltmp183:
.LBB11_4:
	.loc	1 472 9 is_stmt 1               @ rt-thread/components/drivers/spi/spi_flash_sfud.c:472:9
	b	.LBB11_11
.Ltmp184:
.LBB11_5:
	.loc	1 475 40                        @ rt-thread/components/drivers/spi/spi_flash_sfud.c:475:40
	ldr	r0, [sp, #8]
	.loc	1 475 55 is_stmt 0              @ rt-thread/components/drivers/spi/spi_flash_sfud.c:475:55
	ldr	r0, [r0, #92]
	.loc	1 475 13                        @ rt-thread/components/drivers/spi/spi_flash_sfud.c:475:13
	str	r0, [sp, #12]
.Ltmp185:
	.loc	1 476 9 is_stmt 1               @ rt-thread/components/drivers/spi/spi_flash_sfud.c:476:9
	ldr	r0, [sp, #12]
	.loc	1 476 17 is_stmt 0              @ rt-thread/components/drivers/spi/spi_flash_sfud.c:476:17
	cbz	r0, .LBB11_8
	b	.LBB11_6
.LBB11_6:
	.loc	1 476 20                        @ rt-thread/components/drivers/spi/spi_flash_sfud.c:476:20
	ldr	r0, [sp, #12]
	.loc	1 476 29                        @ rt-thread/components/drivers/spi/spi_flash_sfud.c:476:29
	ldr.w	r0, [r0, #132]
.Ltmp186:
	.loc	1 476 9                         @ rt-thread/components/drivers/spi/spi_flash_sfud.c:476:9
	cbz	r0, .LBB11_8
	b	.LBB11_7
.LBB11_7:
.Ltmp187:
	.loc	1 477 36 is_stmt 1              @ rt-thread/components/drivers/spi/spi_flash_sfud.c:477:36
	ldr	r0, [sp, #12]
	.loc	1 477 45 is_stmt 0              @ rt-thread/components/drivers/spi/spi_flash_sfud.c:477:45
	ldr.w	r0, [r0, #132]
	.loc	1 477 18                        @ rt-thread/components/drivers/spi/spi_flash_sfud.c:477:18
	str	r0, [sp, #4]
	.loc	1 478 16 is_stmt 1              @ rt-thread/components/drivers/spi/spi_flash_sfud.c:478:16
	ldr	r0, [sp, #4]
	.loc	1 478 9 is_stmt 0               @ rt-thread/components/drivers/spi/spi_flash_sfud.c:478:9
	str	r0, [sp, #20]
	b	.LBB11_12
.Ltmp188:
.LBB11_8:
	.loc	1 480 9 is_stmt 1               @ rt-thread/components/drivers/spi/spi_flash_sfud.c:480:9
	b	.LBB11_9
.LBB11_9:
.Ltmp189:
	.loc	1 480 9 is_stmt 0               @ rt-thread/components/drivers/spi/spi_flash_sfud.c:480:9
	movw	r0, :lower16:.L.str.3
	movt	r0, :upper16:.L.str.3
	bl	rt_kprintf
	movw	r0, :lower16:.L.str.12
	movt	r0, :upper16:.L.str.12
	bl	rt_kprintf
	movw	r0, :lower16:.L.str.5
	movt	r0, :upper16:.L.str.5
	bl	rt_kprintf
	b	.LBB11_10
.Ltmp190:
.LBB11_10:
	.loc	1 481 9 is_stmt 1               @ rt-thread/components/drivers/spi/spi_flash_sfud.c:481:9
	b	.LBB11_11
.Ltmp191:
.LBB11_11:
	@DEBUG_LABEL: rt_sfud_flash_find:__error
	.loc	1 0 9 is_stmt 0                 @ rt-thread/components/drivers/spi/spi_flash_sfud.c:0:9
	movs	r0, #0
	.loc	1 485 5 is_stmt 1               @ rt-thread/components/drivers/spi/spi_flash_sfud.c:485:5
	str	r0, [sp, #20]
	b	.LBB11_12
.LBB11_12:
	.loc	1 486 1                         @ rt-thread/components/drivers/spi/spi_flash_sfud.c:486:1
	ldr	r0, [sp, #20]
	add	sp, #24
	pop	{r7, pc}
.Ltmp192:
.Lfunc_end11:
	.size	rt_sfud_flash_find, .Lfunc_end11-rt_sfud_flash_find
	.cfi_endproc
	.cantunwind
	.fnend
                                        @ -- End function
	.section	.text.rt_sfud_flash_find_by_dev_name,"ax",%progbits
	.hidden	rt_sfud_flash_find_by_dev_name  @ -- Begin function rt_sfud_flash_find_by_dev_name
	.globl	rt_sfud_flash_find_by_dev_name
	.p2align	3
	.type	rt_sfud_flash_find_by_dev_name,%function
	.code	16                              @ @rt_sfud_flash_find_by_dev_name
	.thumb_func
rt_sfud_flash_find_by_dev_name:
.Lfunc_begin12:
	.loc	1 489 0                         @ rt-thread/components/drivers/spi/spi_flash_sfud.c:489:0
	.fnstart
	.cfi_startproc
@ %bb.0:
	.save	{r7, lr}
	push	{r7, lr}
	.cfi_def_cfa_offset 8
	.cfi_offset lr, -4
	.cfi_offset r7, -8
	.pad	#16
	sub	sp, #16
	.cfi_def_cfa_offset 24
	str	r0, [sp, #8]
	movs	r0, #0
.Ltmp193:
	.loc	1 490 28 prologue_end           @ rt-thread/components/drivers/spi/spi_flash_sfud.c:490:28
	str	r0, [sp, #4]
	.loc	1 491 28                        @ rt-thread/components/drivers/spi/spi_flash_sfud.c:491:28
	str	r0, [sp]
	.loc	1 493 54                        @ rt-thread/components/drivers/spi/spi_flash_sfud.c:493:54
	ldr	r0, [sp, #8]
	.loc	1 493 39 is_stmt 0              @ rt-thread/components/drivers/spi/spi_flash_sfud.c:493:39
	bl	rt_device_find
	.loc	1 493 13                        @ rt-thread/components/drivers/spi/spi_flash_sfud.c:493:13
	str	r0, [sp, #4]
.Ltmp194:
	.loc	1 494 9 is_stmt 1               @ rt-thread/components/drivers/spi/spi_flash_sfud.c:494:9
	ldr	r0, [sp, #4]
	.loc	1 494 28 is_stmt 0              @ rt-thread/components/drivers/spi/spi_flash_sfud.c:494:28
	cbz	r0, .LBB12_2
	b	.LBB12_1
.LBB12_1:
	.loc	1 494 31                        @ rt-thread/components/drivers/spi/spi_flash_sfud.c:494:31
	ldr	r0, [sp, #4]
	.loc	1 494 53                        @ rt-thread/components/drivers/spi/spi_flash_sfud.c:494:53
	ldrb	r0, [r0, #20]
.Ltmp195:
	.loc	1 494 9                         @ rt-thread/components/drivers/spi/spi_flash_sfud.c:494:9
	cmp	r0, #1
	beq	.LBB12_5
	b	.LBB12_2
.LBB12_2:
.Ltmp196:
	.loc	1 495 9 is_stmt 1               @ rt-thread/components/drivers/spi/spi_flash_sfud.c:495:9
	b	.LBB12_3
.LBB12_3:
.Ltmp197:
	.loc	1 495 9 is_stmt 0               @ rt-thread/components/drivers/spi/spi_flash_sfud.c:495:9
	movw	r0, :lower16:.L.str.3
	movt	r0, :upper16:.L.str.3
	bl	rt_kprintf
	ldr	r1, [sp, #8]
	movw	r0, :lower16:.L.str.13
	movt	r0, :upper16:.L.str.13
	bl	rt_kprintf
	movw	r0, :lower16:.L.str.5
	movt	r0, :upper16:.L.str.5
	bl	rt_kprintf
	b	.LBB12_4
.Ltmp198:
.LBB12_4:
	.loc	1 496 9 is_stmt 1               @ rt-thread/components/drivers/spi/spi_flash_sfud.c:496:9
	b	.LBB12_10
.Ltmp199:
.LBB12_5:
	.loc	1 499 9                         @ rt-thread/components/drivers/spi/spi_flash_sfud.c:499:9
	ldr	r0, [sp, #4]
	.loc	1 499 18 is_stmt 0              @ rt-thread/components/drivers/spi/spi_flash_sfud.c:499:18
	ldr.w	r0, [r0, #132]
.Ltmp200:
	.loc	1 499 9                         @ rt-thread/components/drivers/spi/spi_flash_sfud.c:499:9
	cbz	r0, .LBB12_7
	b	.LBB12_6
.LBB12_6:
.Ltmp201:
	.loc	1 500 36 is_stmt 1              @ rt-thread/components/drivers/spi/spi_flash_sfud.c:500:36
	ldr	r0, [sp, #4]
	.loc	1 500 45 is_stmt 0              @ rt-thread/components/drivers/spi/spi_flash_sfud.c:500:45
	ldr.w	r0, [r0, #132]
	.loc	1 500 18                        @ rt-thread/components/drivers/spi/spi_flash_sfud.c:500:18
	str	r0, [sp]
	.loc	1 501 16 is_stmt 1              @ rt-thread/components/drivers/spi/spi_flash_sfud.c:501:16
	ldr	r0, [sp]
	.loc	1 501 9 is_stmt 0               @ rt-thread/components/drivers/spi/spi_flash_sfud.c:501:9
	str	r0, [sp, #12]
	b	.LBB12_11
.Ltmp202:
.LBB12_7:
	.loc	1 503 9 is_stmt 1               @ rt-thread/components/drivers/spi/spi_flash_sfud.c:503:9
	b	.LBB12_8
.LBB12_8:
.Ltmp203:
	.loc	1 503 9 is_stmt 0               @ rt-thread/components/drivers/spi/spi_flash_sfud.c:503:9
	movw	r0, :lower16:.L.str.3
	movt	r0, :upper16:.L.str.3
	bl	rt_kprintf
	movw	r0, :lower16:.L.str.12
	movt	r0, :upper16:.L.str.12
	bl	rt_kprintf
	movw	r0, :lower16:.L.str.5
	movt	r0, :upper16:.L.str.5
	bl	rt_kprintf
	b	.LBB12_9
.Ltmp204:
.LBB12_9:
	.loc	1 504 9 is_stmt 1               @ rt-thread/components/drivers/spi/spi_flash_sfud.c:504:9
	b	.LBB12_10
.Ltmp205:
.LBB12_10:
	@DEBUG_LABEL: rt_sfud_flash_find_by_dev_name:__error
	.loc	1 0 9 is_stmt 0                 @ rt-thread/components/drivers/spi/spi_flash_sfud.c:0:9
	movs	r0, #0
	.loc	1 508 5 is_stmt 1               @ rt-thread/components/drivers/spi/spi_flash_sfud.c:508:5
	str	r0, [sp, #12]
	b	.LBB12_11
.LBB12_11:
	.loc	1 509 1                         @ rt-thread/components/drivers/spi/spi_flash_sfud.c:509:1
	ldr	r0, [sp, #12]
	add	sp, #16
	pop	{r7, pc}
.Ltmp206:
.Lfunc_end12:
	.size	rt_sfud_flash_find_by_dev_name, .Lfunc_end12-rt_sfud_flash_find_by_dev_name
	.cfi_endproc
	.cantunwind
	.fnend
                                        @ -- End function
	.section	.text.sf,"ax",%progbits
	.p2align	3                               @ -- Begin function sf
	.type	sf,%function
	.code	16                              @ @sf
	.thumb_func
sf:
.Lfunc_begin13:
	.loc	1 515 0                         @ rt-thread/components/drivers/spi/spi_flash_sfud.c:515:0
	.fnstart
	.cfi_startproc
@ %bb.0:
	.save	{r7, lr}
	push	{r7, lr}
	.cfi_def_cfa_offset 8
	.cfi_offset lr, -4
	.cfi_offset r7, -8
	.pad	#120
	sub	sp, #120
	.cfi_def_cfa_offset 128
                                        @ kill: def $r2 killed $r0
	strb.w	r0, [sp, #119]
	str	r1, [sp, #112]
	movs	r0, #0
.Ltmp207:
	.loc	1 526 14 prologue_end           @ rt-thread/components/drivers/spi/spi_flash_sfud.c:526:14
	strb.w	r0, [sp, #111]
	.loc	1 529 12                        @ rt-thread/components/drivers/spi/spi_flash_sfud.c:529:12
	str	r0, [sp, #104]
	.loc	1 529 19 is_stmt 0              @ rt-thread/components/drivers/spi/spi_flash_sfud.c:529:19
	str	r0, [sp, #100]
	.loc	1 531 17 is_stmt 1              @ rt-thread/components/drivers/spi/spi_flash_sfud.c:531:17
	movw	lr, :lower16:.L__const.sf.sf_help_info
	movt	lr, :upper16:.L__const.sf.sf_help_info
	ldr.w	r0, [lr]
	ldr.w	r1, [lr, #4]
	ldr.w	r2, [lr, #8]
	ldr.w	r3, [lr, #12]
	ldr.w	r12, [lr, #16]
	ldr.w	lr, [lr, #20]
	str.w	lr, [sp, #96]
	str.w	r12, [sp, #92]
	str	r3, [sp, #88]
	str	r2, [sp, #84]
	str	r1, [sp, #80]
	str	r0, [sp, #76]
.Ltmp208:
	.loc	1 540 9                         @ rt-thread/components/drivers/spi/spi_flash_sfud.c:540:9
	ldrb.w	r0, [sp, #119]
.Ltmp209:
	.loc	1 540 9 is_stmt 0               @ rt-thread/components/drivers/spi/spi_flash_sfud.c:540:9
	cmp	r0, #1
	bgt	.LBB13_6
	b	.LBB13_1
.LBB13_1:
.Ltmp210:
	.loc	1 541 9 is_stmt 1               @ rt-thread/components/drivers/spi/spi_flash_sfud.c:541:9
	movw	r0, :lower16:.L.str.26
	movt	r0, :upper16:.L.str.26
	bl	rt_kprintf
	movs	r0, #0
.Ltmp211:
	.loc	1 542 16                        @ rt-thread/components/drivers/spi/spi_flash_sfud.c:542:16
	str	r0, [sp, #104]
	.loc	1 542 14 is_stmt 0              @ rt-thread/components/drivers/spi/spi_flash_sfud.c:542:14
	b	.LBB13_2
.LBB13_2:                               @ =>This Inner Loop Header: Depth=1
.Ltmp212:
	.loc	1 542 21                        @ rt-thread/components/drivers/spi/spi_flash_sfud.c:542:21
	ldr	r0, [sp, #104]
.Ltmp213:
	.loc	1 542 9                         @ rt-thread/components/drivers/spi/spi_flash_sfud.c:542:9
	cmp	r0, #5
	bhi	.LBB13_5
	b	.LBB13_3
.LBB13_3:                               @   in Loop: Header=BB13_2 Depth=1
.Ltmp214:
	.loc	1 543 45 is_stmt 1              @ rt-thread/components/drivers/spi/spi_flash_sfud.c:543:45
	ldr	r1, [sp, #104]
	add	r0, sp, #76
	.loc	1 543 32 is_stmt 0              @ rt-thread/components/drivers/spi/spi_flash_sfud.c:543:32
	ldr.w	r1, [r0, r1, lsl #2]
	.loc	1 543 13                        @ rt-thread/components/drivers/spi/spi_flash_sfud.c:543:13
	movw	r0, :lower16:.L.str.27
	movt	r0, :upper16:.L.str.27
	bl	rt_kprintf
	.loc	1 544 9 is_stmt 1               @ rt-thread/components/drivers/spi/spi_flash_sfud.c:544:9
	b	.LBB13_4
.Ltmp215:
.LBB13_4:                               @   in Loop: Header=BB13_2 Depth=1
	.loc	1 542 64                        @ rt-thread/components/drivers/spi/spi_flash_sfud.c:542:64
	ldr	r0, [sp, #104]
	adds	r0, #1
	str	r0, [sp, #104]
	.loc	1 542 9 is_stmt 0               @ rt-thread/components/drivers/spi/spi_flash_sfud.c:542:9
	b	.LBB13_2
.Ltmp216:
.LBB13_5:
	.loc	1 545 9 is_stmt 1               @ rt-thread/components/drivers/spi/spi_flash_sfud.c:545:9
	movw	r0, :lower16:.L.str.5
	movt	r0, :upper16:.L.str.5
	bl	rt_kprintf
	.loc	1 546 5                         @ rt-thread/components/drivers/spi/spi_flash_sfud.c:546:5
	b.w	.LBB13_143
.Ltmp217:
.LBB13_6:
	.loc	1 547 32                        @ rt-thread/components/drivers/spi/spi_flash_sfud.c:547:32
	ldr	r0, [sp, #112]
	ldr	r0, [r0, #4]
	.loc	1 547 21 is_stmt 0              @ rt-thread/components/drivers/spi/spi_flash_sfud.c:547:21
	str	r0, [sp, #72]
.Ltmp218:
	.loc	1 550 21 is_stmt 1              @ rt-thread/components/drivers/spi/spi_flash_sfud.c:550:21
	ldr	r0, [sp, #72]
	.loc	1 550 14 is_stmt 0              @ rt-thread/components/drivers/spi/spi_flash_sfud.c:550:14
	movw	r1, :lower16:.L.str.28
	movt	r1, :upper16:.L.str.28
	bl	strcmp
.Ltmp219:
	.loc	1 550 13                        @ rt-thread/components/drivers/spi/spi_flash_sfud.c:550:13
	cmp	r0, #0
	bne	.LBB13_18
	b	.LBB13_7
.LBB13_7:
.Ltmp220:
	.loc	1 551 17 is_stmt 1              @ rt-thread/components/drivers/spi/spi_flash_sfud.c:551:17
	ldrb.w	r0, [sp, #119]
.Ltmp221:
	.loc	1 551 17 is_stmt 0              @ rt-thread/components/drivers/spi/spi_flash_sfud.c:551:17
	cmp	r0, #2
	bgt	.LBB13_9
	b	.LBB13_8
.LBB13_8:
.Ltmp222:
	.loc	1 552 44 is_stmt 1              @ rt-thread/components/drivers/spi/spi_flash_sfud.c:552:44
	ldr	r1, [sp, #76]
	.loc	1 552 17 is_stmt 0              @ rt-thread/components/drivers/spi/spi_flash_sfud.c:552:17
	movw	r0, :lower16:.L.str.29
	movt	r0, :upper16:.L.str.29
	bl	rt_kprintf
	.loc	1 553 13 is_stmt 1              @ rt-thread/components/drivers/spi/spi_flash_sfud.c:553:13
	b	.LBB13_17
.Ltmp223:
.LBB13_9:
	.loc	1 554 38                        @ rt-thread/components/drivers/spi/spi_flash_sfud.c:554:38
	ldr	r0, [sp, #112]
	ldr	r0, [r0, #8]
	.loc	1 554 23 is_stmt 0              @ rt-thread/components/drivers/spi/spi_flash_sfud.c:554:23
	str	r0, [sp, #60]
	.loc	1 555 31 is_stmt 1              @ rt-thread/components/drivers/spi/spi_flash_sfud.c:555:31
	movw	r0, :lower16:sf.rtt_dev
	movt	r0, :upper16:sf.rtt_dev
	ldr	r1, [r0]
	.loc	1 555 29 is_stmt 0              @ rt-thread/components/drivers/spi/spi_flash_sfud.c:555:29
	movw	r0, :lower16:sf.rtt_dev_bak
	movt	r0, :upper16:sf.rtt_dev_bak
	str	r1, [r0]
.Ltmp224:
	.loc	1 558 20 is_stmt 1              @ rt-thread/components/drivers/spi/spi_flash_sfud.c:558:20
	ldr	r0, [r0]
.Ltmp225:
	.loc	1 558 20 is_stmt 0              @ rt-thread/components/drivers/spi/spi_flash_sfud.c:558:20
	cbz	r0, .LBB13_11
	b	.LBB13_10
.LBB13_10:
.Ltmp226:
	.loc	1 559 42 is_stmt 1              @ rt-thread/components/drivers/spi/spi_flash_sfud.c:559:42
	movw	r0, :lower16:sf.rtt_dev_bak
	movt	r0, :upper16:sf.rtt_dev_bak
	ldr	r0, [r0]
	.loc	1 559 21 is_stmt 0              @ rt-thread/components/drivers/spi/spi_flash_sfud.c:559:21
	bl	rt_sfud_flash_delete
	.loc	1 560 17 is_stmt 1              @ rt-thread/components/drivers/spi/spi_flash_sfud.c:560:17
	b	.LBB13_11
.Ltmp227:
.LBB13_11:
	.loc	1 562 57                        @ rt-thread/components/drivers/spi/spi_flash_sfud.c:562:57
	ldr	r1, [sp, #60]
	.loc	1 562 27 is_stmt 0              @ rt-thread/components/drivers/spi/spi_flash_sfud.c:562:27
	movw	r0, :lower16:.L.str.30
	movt	r0, :upper16:.L.str.30
	bl	rt_sfud_flash_probe
	mov	r1, r0
	.loc	1 562 25                        @ rt-thread/components/drivers/spi/spi_flash_sfud.c:562:25
	movw	r0, :lower16:sf.rtt_dev
	movt	r0, :upper16:sf.rtt_dev
	str	r1, [r0]
.Ltmp228:
	.loc	1 563 22 is_stmt 1              @ rt-thread/components/drivers/spi/spi_flash_sfud.c:563:22
	ldr	r0, [r0]
.Ltmp229:
	.loc	1 563 21 is_stmt 0              @ rt-thread/components/drivers/spi/spi_flash_sfud.c:563:21
	cbnz	r0, .LBB13_13
	b	.LBB13_12
.LBB13_12:
.Ltmp230:
	.loc	1 564 21 is_stmt 1              @ rt-thread/components/drivers/spi/spi_flash_sfud.c:564:21
	b.w	.LBB13_143
.Ltmp231:
.LBB13_13:
	.loc	1 567 42                        @ rt-thread/components/drivers/spi/spi_flash_sfud.c:567:42
	movw	r0, :lower16:sf.rtt_dev
	movt	r0, :upper16:sf.rtt_dev
	ldr	r0, [r0]
	.loc	1 567 51 is_stmt 0              @ rt-thread/components/drivers/spi/spi_flash_sfud.c:567:51
	ldr.w	r1, [r0, #132]
	.loc	1 567 26                        @ rt-thread/components/drivers/spi/spi_flash_sfud.c:567:26
	movw	r0, :lower16:sf.sfud_dev
	movt	r0, :upper16:sf.sfud_dev
	str	r1, [r0]
.Ltmp232:
	.loc	1 568 21 is_stmt 1              @ rt-thread/components/drivers/spi/spi_flash_sfud.c:568:21
	ldr	r0, [r0]
	.loc	1 568 36 is_stmt 0              @ rt-thread/components/drivers/spi/spi_flash_sfud.c:568:36
	ldr	r1, [r0, #16]
	movs	r0, #0
.Ltmp233:
	.loc	1 568 21                        @ rt-thread/components/drivers/spi/spi_flash_sfud.c:568:21
	cmp.w	r0, r1, lsr #20
	bne	.LBB13_15
	b	.LBB13_14
.LBB13_14:
.Ltmp234:
	.loc	1 569 74 is_stmt 1              @ rt-thread/components/drivers/spi/spi_flash_sfud.c:569:74
	movw	r0, :lower16:sf.sfud_dev
	movt	r0, :upper16:sf.sfud_dev
	ldr	r0, [r0]
	.loc	1 569 116 is_stmt 0             @ rt-thread/components/drivers/spi/spi_flash_sfud.c:569:116
	ldr	r2, [r0]
	.loc	1 569 89                        @ rt-thread/components/drivers/spi/spi_flash_sfud.c:569:89
	ldr	r0, [r0, #16]
	.loc	1 569 98                        @ rt-thread/components/drivers/spi/spi_flash_sfud.c:569:98
	lsrs	r1, r0, #10
	.loc	1 569 21                        @ rt-thread/components/drivers/spi/spi_flash_sfud.c:569:21
	movw	r0, :lower16:.L.str.31
	movt	r0, :upper16:.L.str.31
	bl	rt_kprintf
	.loc	1 570 17 is_stmt 1              @ rt-thread/components/drivers/spi/spi_flash_sfud.c:570:17
	b	.LBB13_16
.Ltmp235:
.LBB13_15:
	.loc	1 571 74                        @ rt-thread/components/drivers/spi/spi_flash_sfud.c:571:74
	movw	r0, :lower16:sf.sfud_dev
	movt	r0, :upper16:sf.sfud_dev
	ldr	r0, [r0]
	.loc	1 572 39                        @ rt-thread/components/drivers/spi/spi_flash_sfud.c:572:39
	ldr	r2, [r0]
	.loc	1 571 89                        @ rt-thread/components/drivers/spi/spi_flash_sfud.c:571:89
	ldr	r0, [r0, #16]
	.loc	1 571 105 is_stmt 0             @ rt-thread/components/drivers/spi/spi_flash_sfud.c:571:105
	lsrs	r1, r0, #20
	.loc	1 571 21                        @ rt-thread/components/drivers/spi/spi_flash_sfud.c:571:21
	movw	r0, :lower16:.L.str.32
	movt	r0, :upper16:.L.str.32
	bl	rt_kprintf
	b	.LBB13_16
.Ltmp236:
.LBB13_16:
	.loc	1 0 21                          @ rt-thread/components/drivers/spi/spi_flash_sfud.c:0:21
	b	.LBB13_17
.LBB13_17:
	.loc	1 575 9 is_stmt 1               @ rt-thread/components/drivers/spi/spi_flash_sfud.c:575:9
	b.w	.LBB13_142
.Ltmp237:
.LBB13_18:
	.loc	1 576 18                        @ rt-thread/components/drivers/spi/spi_flash_sfud.c:576:18
	movw	r0, :lower16:sf.sfud_dev
	movt	r0, :upper16:sf.sfud_dev
	ldr	r0, [r0]
.Ltmp238:
	.loc	1 576 17 is_stmt 0              @ rt-thread/components/drivers/spi/spi_flash_sfud.c:576:17
	cbnz	r0, .LBB13_20
	b	.LBB13_19
.LBB13_19:
.Ltmp239:
	.loc	1 577 17 is_stmt 1              @ rt-thread/components/drivers/spi/spi_flash_sfud.c:577:17
	movw	r0, :lower16:.L.str.33
	movt	r0, :upper16:.L.str.33
	bl	rt_kprintf
	.loc	1 578 17                        @ rt-thread/components/drivers/spi/spi_flash_sfud.c:578:17
	b	.LBB13_143
.Ltmp240:
.LBB13_20:
	.loc	1 580 28                        @ rt-thread/components/drivers/spi/spi_flash_sfud.c:580:28
	ldr	r0, [sp, #72]
	.loc	1 580 18 is_stmt 0              @ rt-thread/components/drivers/spi/spi_flash_sfud.c:580:18
	movw	r1, :lower16:.L.str.34
	movt	r1, :upper16:.L.str.34
	bl	rt_strcmp
.Ltmp241:
	.loc	1 580 17                        @ rt-thread/components/drivers/spi/spi_flash_sfud.c:580:17
	cmp	r0, #0
	bne.w	.LBB13_50
	b	.LBB13_21
.LBB13_21:
.Ltmp242:
	.loc	1 581 21 is_stmt 1              @ rt-thread/components/drivers/spi/spi_flash_sfud.c:581:21
	ldrb.w	r0, [sp, #119]
.Ltmp243:
	.loc	1 581 21 is_stmt 0              @ rt-thread/components/drivers/spi/spi_flash_sfud.c:581:21
	cmp	r0, #3
	bgt	.LBB13_23
	b	.LBB13_22
.LBB13_22:
.Ltmp244:
	.loc	1 582 48 is_stmt 1              @ rt-thread/components/drivers/spi/spi_flash_sfud.c:582:48
	ldr	r1, [sp, #80]
	.loc	1 582 21 is_stmt 0              @ rt-thread/components/drivers/spi/spi_flash_sfud.c:582:21
	movw	r0, :lower16:.L.str.29
	movt	r0, :upper16:.L.str.29
	bl	rt_kprintf
	.loc	1 583 21 is_stmt 1              @ rt-thread/components/drivers/spi/spi_flash_sfud.c:583:21
	b	.LBB13_143
.Ltmp245:
.LBB13_23:
	.loc	1 585 35                        @ rt-thread/components/drivers/spi/spi_flash_sfud.c:585:35
	ldr	r0, [sp, #112]
	ldr	r0, [r0, #8]
	movs	r2, #0
	.loc	1 585 28 is_stmt 0              @ rt-thread/components/drivers/spi/spi_flash_sfud.c:585:28
	str	r2, [sp, #16]                   @ 4-byte Spill
	mov	r1, r2
	bl	strtol
	ldr	r2, [sp, #16]                   @ 4-byte Reload
	.loc	1 585 26                        @ rt-thread/components/drivers/spi/spi_flash_sfud.c:585:26
	str	r0, [sp, #68]
	.loc	1 586 35 is_stmt 1              @ rt-thread/components/drivers/spi/spi_flash_sfud.c:586:35
	ldr	r0, [sp, #112]
	ldr	r0, [r0, #12]
	.loc	1 586 28 is_stmt 0              @ rt-thread/components/drivers/spi/spi_flash_sfud.c:586:28
	mov	r1, r2
	bl	strtol
	.loc	1 586 26                        @ rt-thread/components/drivers/spi/spi_flash_sfud.c:586:26
	str	r0, [sp, #64]
	.loc	1 587 47 is_stmt 1              @ rt-thread/components/drivers/spi/spi_flash_sfud.c:587:47
	ldr	r0, [sp, #64]
	.loc	1 587 37 is_stmt 0              @ rt-thread/components/drivers/spi/spi_flash_sfud.c:587:37
	bl	rt_malloc
	.loc	1 587 30                        @ rt-thread/components/drivers/spi/spi_flash_sfud.c:587:30
	str	r0, [sp, #56]
.Ltmp246:
	.loc	1 588 25 is_stmt 1              @ rt-thread/components/drivers/spi/spi_flash_sfud.c:588:25
	ldr	r0, [sp, #56]
.Ltmp247:
	.loc	1 588 25 is_stmt 0              @ rt-thread/components/drivers/spi/spi_flash_sfud.c:588:25
	cmp	r0, #0
	beq.w	.LBB13_47
	b	.LBB13_24
.LBB13_24:
.Ltmp248:
	.loc	1 589 44 is_stmt 1              @ rt-thread/components/drivers/spi/spi_flash_sfud.c:589:44
	movw	r0, :lower16:sf.sfud_dev
	movt	r0, :upper16:sf.sfud_dev
	ldr	r0, [r0]
	.loc	1 589 54 is_stmt 0              @ rt-thread/components/drivers/spi/spi_flash_sfud.c:589:54
	ldr	r1, [sp, #68]
	.loc	1 589 60                        @ rt-thread/components/drivers/spi/spi_flash_sfud.c:589:60
	ldr	r2, [sp, #64]
	.loc	1 589 66                        @ rt-thread/components/drivers/spi/spi_flash_sfud.c:589:66
	ldr	r3, [sp, #56]
	.loc	1 589 34                        @ rt-thread/components/drivers/spi/spi_flash_sfud.c:589:34
	bl	sfud_read
	.loc	1 589 32                        @ rt-thread/components/drivers/spi/spi_flash_sfud.c:589:32
	strb.w	r0, [sp, #111]
.Ltmp249:
	.loc	1 590 29 is_stmt 1              @ rt-thread/components/drivers/spi/spi_flash_sfud.c:590:29
	ldrb.w	r0, [sp, #111]
.Ltmp250:
	.loc	1 590 29 is_stmt 0              @ rt-thread/components/drivers/spi/spi_flash_sfud.c:590:29
	cmp	r0, #0
	bne.w	.LBB13_46
	b	.LBB13_25
.LBB13_25:
.Ltmp251:
	.loc	1 592 37 is_stmt 1              @ rt-thread/components/drivers/spi/spi_flash_sfud.c:592:37
	movw	r0, :lower16:sf.sfud_dev
	movt	r0, :upper16:sf.sfud_dev
	ldr	r0, [r0]
	.loc	1 592 47 is_stmt 0              @ rt-thread/components/drivers/spi/spi_flash_sfud.c:592:47
	ldr	r1, [r0]
	.loc	1 592 53                        @ rt-thread/components/drivers/spi/spi_flash_sfud.c:592:53
	ldr	r2, [sp, #68]
	.loc	1 592 59                        @ rt-thread/components/drivers/spi/spi_flash_sfud.c:592:59
	ldr	r3, [sp, #64]
	.loc	1 591 29 is_stmt 1              @ rt-thread/components/drivers/spi/spi_flash_sfud.c:591:29
	movw	r0, :lower16:.L.str.35
	movt	r0, :upper16:.L.str.35
	bl	rt_kprintf
	.loc	1 593 29                        @ rt-thread/components/drivers/spi/spi_flash_sfud.c:593:29
	movw	r0, :lower16:.L.str.36
	movt	r0, :upper16:.L.str.36
	bl	rt_kprintf
	movs	r0, #0
.Ltmp252:
	.loc	1 594 36                        @ rt-thread/components/drivers/spi/spi_flash_sfud.c:594:36
	str	r0, [sp, #104]
	.loc	1 594 34 is_stmt 0              @ rt-thread/components/drivers/spi/spi_flash_sfud.c:594:34
	b	.LBB13_26
.LBB13_26:                              @ =>This Loop Header: Depth=1
                                        @     Child Loop BB13_28 Depth 2
                                        @     Child Loop BB13_35 Depth 2
.Ltmp253:
	.loc	1 594 41                        @ rt-thread/components/drivers/spi/spi_flash_sfud.c:594:41
	ldr	r0, [sp, #104]
	.loc	1 594 45                        @ rt-thread/components/drivers/spi/spi_flash_sfud.c:594:45
	ldr	r1, [sp, #64]
.Ltmp254:
	.loc	1 594 29                        @ rt-thread/components/drivers/spi/spi_flash_sfud.c:594:29
	cmp	r0, r1
	bhs	.LBB13_45
	b	.LBB13_27
.LBB13_27:                              @   in Loop: Header=BB13_26 Depth=1
.Ltmp255:
	.loc	1 596 55 is_stmt 1              @ rt-thread/components/drivers/spi/spi_flash_sfud.c:596:55
	ldr	r0, [sp, #68]
	.loc	1 596 62 is_stmt 0              @ rt-thread/components/drivers/spi/spi_flash_sfud.c:596:62
	ldr	r1, [sp, #104]
	.loc	1 596 60                        @ rt-thread/components/drivers/spi/spi_flash_sfud.c:596:60
	add	r1, r0
	.loc	1 596 33                        @ rt-thread/components/drivers/spi/spi_flash_sfud.c:596:33
	movw	r0, :lower16:.L.str.37
	movt	r0, :upper16:.L.str.37
	bl	rt_kprintf
	movs	r0, #0
.Ltmp256:
	.loc	1 598 40 is_stmt 1              @ rt-thread/components/drivers/spi/spi_flash_sfud.c:598:40
	str	r0, [sp, #100]
	.loc	1 598 38 is_stmt 0              @ rt-thread/components/drivers/spi/spi_flash_sfud.c:598:38
	b	.LBB13_28
.LBB13_28:                              @   Parent Loop BB13_26 Depth=1
                                        @ =>  This Inner Loop Header: Depth=2
.Ltmp257:
	.loc	1 598 45                        @ rt-thread/components/drivers/spi/spi_flash_sfud.c:598:45
	ldr	r0, [sp, #100]
.Ltmp258:
	.loc	1 598 33                        @ rt-thread/components/drivers/spi/spi_flash_sfud.c:598:33
	cmp	r0, #15
	bhi	.LBB13_34
	b	.LBB13_29
.LBB13_29:                              @   in Loop: Header=BB13_28 Depth=2
.Ltmp259:
	.loc	1 599 41 is_stmt 1              @ rt-thread/components/drivers/spi/spi_flash_sfud.c:599:41
	ldr	r0, [sp, #104]
	.loc	1 599 45 is_stmt 0              @ rt-thread/components/drivers/spi/spi_flash_sfud.c:599:45
	ldr	r1, [sp, #100]
	.loc	1 599 43                        @ rt-thread/components/drivers/spi/spi_flash_sfud.c:599:43
	add	r0, r1
	.loc	1 599 49                        @ rt-thread/components/drivers/spi/spi_flash_sfud.c:599:49
	ldr	r1, [sp, #64]
.Ltmp260:
	.loc	1 599 41                        @ rt-thread/components/drivers/spi/spi_flash_sfud.c:599:41
	cmp	r0, r1
	bhs	.LBB13_31
	b	.LBB13_30
.LBB13_30:                              @   in Loop: Header=BB13_28 Depth=2
.Ltmp261:
	.loc	1 600 61 is_stmt 1              @ rt-thread/components/drivers/spi/spi_flash_sfud.c:600:61
	ldr	r0, [sp, #56]
	.loc	1 600 66 is_stmt 0              @ rt-thread/components/drivers/spi/spi_flash_sfud.c:600:66
	ldr	r1, [sp, #104]
	.loc	1 600 70                        @ rt-thread/components/drivers/spi/spi_flash_sfud.c:600:70
	ldr	r2, [sp, #100]
	.loc	1 600 68                        @ rt-thread/components/drivers/spi/spi_flash_sfud.c:600:68
	add	r1, r2
	.loc	1 600 61                        @ rt-thread/components/drivers/spi/spi_flash_sfud.c:600:61
	ldrb	r1, [r0, r1]
	.loc	1 600 41                        @ rt-thread/components/drivers/spi/spi_flash_sfud.c:600:41
	movw	r0, :lower16:.L.str.38
	movt	r0, :upper16:.L.str.38
	bl	rt_kprintf
	.loc	1 601 37 is_stmt 1              @ rt-thread/components/drivers/spi/spi_flash_sfud.c:601:37
	b	.LBB13_32
.Ltmp262:
.LBB13_31:                              @   in Loop: Header=BB13_28 Depth=2
	.loc	1 602 41                        @ rt-thread/components/drivers/spi/spi_flash_sfud.c:602:41
	movw	r0, :lower16:.L.str.39
	movt	r0, :upper16:.L.str.39
	bl	rt_kprintf
	b	.LBB13_32
.Ltmp263:
.LBB13_32:                              @   in Loop: Header=BB13_28 Depth=2
	.loc	1 604 33                        @ rt-thread/components/drivers/spi/spi_flash_sfud.c:604:33
	b	.LBB13_33
.Ltmp264:
.LBB13_33:                              @   in Loop: Header=BB13_28 Depth=2
	.loc	1 598 65                        @ rt-thread/components/drivers/spi/spi_flash_sfud.c:598:65
	ldr	r0, [sp, #100]
	adds	r0, #1
	str	r0, [sp, #100]
	.loc	1 598 33 is_stmt 0              @ rt-thread/components/drivers/spi/spi_flash_sfud.c:598:33
	b	.LBB13_28
.Ltmp265:
.LBB13_34:                              @   in Loop: Header=BB13_26 Depth=1
	.loc	1 0 33                          @ rt-thread/components/drivers/spi/spi_flash_sfud.c:0:33
	movs	r0, #0
.Ltmp266:
	.loc	1 606 40 is_stmt 1              @ rt-thread/components/drivers/spi/spi_flash_sfud.c:606:40
	str	r0, [sp, #100]
	.loc	1 606 38 is_stmt 0              @ rt-thread/components/drivers/spi/spi_flash_sfud.c:606:38
	b	.LBB13_35
.LBB13_35:                              @   Parent Loop BB13_26 Depth=1
                                        @ =>  This Inner Loop Header: Depth=2
.Ltmp267:
	.loc	1 606 45                        @ rt-thread/components/drivers/spi/spi_flash_sfud.c:606:45
	ldr	r0, [sp, #100]
.Ltmp268:
	.loc	1 606 33                        @ rt-thread/components/drivers/spi/spi_flash_sfud.c:606:33
	cmp	r0, #15
	bhi	.LBB13_43
	b	.LBB13_36
.LBB13_36:                              @   in Loop: Header=BB13_35 Depth=2
.Ltmp269:
	.loc	1 607 41 is_stmt 1              @ rt-thread/components/drivers/spi/spi_flash_sfud.c:607:41
	ldr	r0, [sp, #104]
	.loc	1 607 45 is_stmt 0              @ rt-thread/components/drivers/spi/spi_flash_sfud.c:607:45
	ldr	r1, [sp, #100]
	.loc	1 607 43                        @ rt-thread/components/drivers/spi/spi_flash_sfud.c:607:43
	add	r0, r1
	.loc	1 607 49                        @ rt-thread/components/drivers/spi/spi_flash_sfud.c:607:49
	ldr	r1, [sp, #64]
.Ltmp270:
	.loc	1 607 41                        @ rt-thread/components/drivers/spi/spi_flash_sfud.c:607:41
	cmp	r0, r1
	bhs	.LBB13_41
	b	.LBB13_37
.LBB13_37:                              @   in Loop: Header=BB13_35 Depth=2
.Ltmp271:
	.loc	1 608 58 is_stmt 1              @ rt-thread/components/drivers/spi/spi_flash_sfud.c:608:58
	ldr	r0, [sp, #56]
	ldr	r1, [sp, #104]
	ldr	r2, [sp, #100]
	add	r1, r2
	ldrb	r0, [r0, r1]
	subs	r0, #32
	cmp	r0, #94
	bhi	.LBB13_39
	b	.LBB13_38
.LBB13_38:                              @   in Loop: Header=BB13_35 Depth=2
	.loc	1 608 84 is_stmt 0              @ rt-thread/components/drivers/spi/spi_flash_sfud.c:608:84
	ldr	r0, [sp, #56]
	.loc	1 608 89                        @ rt-thread/components/drivers/spi/spi_flash_sfud.c:608:89
	ldr	r1, [sp, #104]
	.loc	1 608 93                        @ rt-thread/components/drivers/spi/spi_flash_sfud.c:608:93
	ldr	r2, [sp, #100]
	.loc	1 608 91                        @ rt-thread/components/drivers/spi/spi_flash_sfud.c:608:91
	add	r1, r2
	.loc	1 608 84                        @ rt-thread/components/drivers/spi/spi_flash_sfud.c:608:84
	ldrb	r0, [r0, r1]
	.loc	1 608 58                        @ rt-thread/components/drivers/spi/spi_flash_sfud.c:608:58
	str	r0, [sp, #12]                   @ 4-byte Spill
	b	.LBB13_40
.LBB13_39:                              @   in Loop: Header=BB13_35 Depth=2
	.loc	1 0 58                          @ rt-thread/components/drivers/spi/spi_flash_sfud.c:0:58
	movs	r0, #46
	.loc	1 608 58                        @ rt-thread/components/drivers/spi/spi_flash_sfud.c:608:58
	str	r0, [sp, #12]                   @ 4-byte Spill
	b	.LBB13_40
.LBB13_40:                              @   in Loop: Header=BB13_35 Depth=2
	ldr	r1, [sp, #12]                   @ 4-byte Reload
	.loc	1 608 41                        @ rt-thread/components/drivers/spi/spi_flash_sfud.c:608:41
	movw	r0, :lower16:.L.str.40
	movt	r0, :upper16:.L.str.40
	bl	rt_kprintf
	.loc	1 609 37 is_stmt 1              @ rt-thread/components/drivers/spi/spi_flash_sfud.c:609:37
	b	.LBB13_41
.Ltmp272:
.LBB13_41:                              @   in Loop: Header=BB13_35 Depth=2
	.loc	1 610 33                        @ rt-thread/components/drivers/spi/spi_flash_sfud.c:610:33
	b	.LBB13_42
.Ltmp273:
.LBB13_42:                              @   in Loop: Header=BB13_35 Depth=2
	.loc	1 606 65                        @ rt-thread/components/drivers/spi/spi_flash_sfud.c:606:65
	ldr	r0, [sp, #100]
	adds	r0, #1
	str	r0, [sp, #100]
	.loc	1 606 33 is_stmt 0              @ rt-thread/components/drivers/spi/spi_flash_sfud.c:606:33
	b	.LBB13_35
.Ltmp274:
.LBB13_43:                              @   in Loop: Header=BB13_26 Depth=1
	.loc	1 611 33 is_stmt 1              @ rt-thread/components/drivers/spi/spi_flash_sfud.c:611:33
	movw	r0, :lower16:.L.str.5
	movt	r0, :upper16:.L.str.5
	bl	rt_kprintf
	.loc	1 612 29                        @ rt-thread/components/drivers/spi/spi_flash_sfud.c:612:29
	b	.LBB13_44
.Ltmp275:
.LBB13_44:                              @   in Loop: Header=BB13_26 Depth=1
	.loc	1 594 53                        @ rt-thread/components/drivers/spi/spi_flash_sfud.c:594:53
	ldr	r0, [sp, #104]
	adds	r0, #16
	str	r0, [sp, #104]
	.loc	1 594 29 is_stmt 0              @ rt-thread/components/drivers/spi/spi_flash_sfud.c:594:29
	b	.LBB13_26
.Ltmp276:
.LBB13_45:
	.loc	1 613 29 is_stmt 1              @ rt-thread/components/drivers/spi/spi_flash_sfud.c:613:29
	movw	r0, :lower16:.L.str.5
	movt	r0, :upper16:.L.str.5
	bl	rt_kprintf
	.loc	1 614 25                        @ rt-thread/components/drivers/spi/spi_flash_sfud.c:614:25
	b	.LBB13_46
.Ltmp277:
.LBB13_46:
	.loc	1 615 33                        @ rt-thread/components/drivers/spi/spi_flash_sfud.c:615:33
	ldr	r0, [sp, #56]
	.loc	1 615 25 is_stmt 0              @ rt-thread/components/drivers/spi/spi_flash_sfud.c:615:25
	bl	rt_free
	.loc	1 616 21 is_stmt 1              @ rt-thread/components/drivers/spi/spi_flash_sfud.c:616:21
	b	.LBB13_48
.Ltmp278:
.LBB13_47:
	.loc	1 617 25                        @ rt-thread/components/drivers/spi/spi_flash_sfud.c:617:25
	movw	r0, :lower16:.L.str.41
	movt	r0, :upper16:.L.str.41
	bl	rt_kprintf
	b	.LBB13_48
.Ltmp279:
.LBB13_48:
	.loc	1 0 25 is_stmt 0                @ rt-thread/components/drivers/spi/spi_flash_sfud.c:0:25
	b	.LBB13_49
.LBB13_49:
	.loc	1 620 13 is_stmt 1              @ rt-thread/components/drivers/spi/spi_flash_sfud.c:620:13
	b	.LBB13_139
.Ltmp280:
.LBB13_50:
	.loc	1 620 35 is_stmt 0              @ rt-thread/components/drivers/spi/spi_flash_sfud.c:620:35
	ldr	r0, [sp, #72]
	.loc	1 620 25                        @ rt-thread/components/drivers/spi/spi_flash_sfud.c:620:25
	movw	r1, :lower16:.L.str.42
	movt	r1, :upper16:.L.str.42
	bl	rt_strcmp
.Ltmp281:
	.loc	1 620 24                        @ rt-thread/components/drivers/spi/spi_flash_sfud.c:620:24
	cmp	r0, #0
	bne.w	.LBB13_68
	b	.LBB13_51
.LBB13_51:
.Ltmp282:
	.loc	1 621 21 is_stmt 1              @ rt-thread/components/drivers/spi/spi_flash_sfud.c:621:21
	ldrb.w	r0, [sp, #119]
.Ltmp283:
	.loc	1 621 21 is_stmt 0              @ rt-thread/components/drivers/spi/spi_flash_sfud.c:621:21
	cmp	r0, #3
	bgt	.LBB13_53
	b	.LBB13_52
.LBB13_52:
.Ltmp284:
	.loc	1 622 48 is_stmt 1              @ rt-thread/components/drivers/spi/spi_flash_sfud.c:622:48
	ldr	r1, [sp, #84]
	.loc	1 622 21 is_stmt 0              @ rt-thread/components/drivers/spi/spi_flash_sfud.c:622:21
	movw	r0, :lower16:.L.str.29
	movt	r0, :upper16:.L.str.29
	bl	rt_kprintf
	.loc	1 623 21 is_stmt 1              @ rt-thread/components/drivers/spi/spi_flash_sfud.c:623:21
	b	.LBB13_143
.Ltmp285:
.LBB13_53:
	.loc	1 625 35                        @ rt-thread/components/drivers/spi/spi_flash_sfud.c:625:35
	ldr	r0, [sp, #112]
	ldr	r0, [r0, #8]
	movs	r2, #0
	.loc	1 625 28 is_stmt 0              @ rt-thread/components/drivers/spi/spi_flash_sfud.c:625:28
	mov	r1, r2
	bl	strtol
	.loc	1 625 26                        @ rt-thread/components/drivers/spi/spi_flash_sfud.c:625:26
	str	r0, [sp, #68]
	.loc	1 626 28 is_stmt 1              @ rt-thread/components/drivers/spi/spi_flash_sfud.c:626:28
	ldrb.w	r0, [sp, #119]
	.loc	1 626 33 is_stmt 0              @ rt-thread/components/drivers/spi/spi_flash_sfud.c:626:33
	subs	r0, #3
	.loc	1 626 26                        @ rt-thread/components/drivers/spi/spi_flash_sfud.c:626:26
	str	r0, [sp, #64]
	.loc	1 627 47 is_stmt 1              @ rt-thread/components/drivers/spi/spi_flash_sfud.c:627:47
	ldr	r0, [sp, #64]
	.loc	1 627 37 is_stmt 0              @ rt-thread/components/drivers/spi/spi_flash_sfud.c:627:37
	bl	rt_malloc
	.loc	1 627 30                        @ rt-thread/components/drivers/spi/spi_flash_sfud.c:627:30
	str	r0, [sp, #52]
.Ltmp286:
	.loc	1 628 25 is_stmt 1              @ rt-thread/components/drivers/spi/spi_flash_sfud.c:628:25
	ldr	r0, [sp, #52]
.Ltmp287:
	.loc	1 628 25 is_stmt 0              @ rt-thread/components/drivers/spi/spi_flash_sfud.c:628:25
	cmp	r0, #0
	beq	.LBB13_65
	b	.LBB13_54
.LBB13_54:
	.loc	1 0 25                          @ rt-thread/components/drivers/spi/spi_flash_sfud.c:0:25
	movs	r0, #0
.Ltmp288:
	.loc	1 629 32 is_stmt 1              @ rt-thread/components/drivers/spi/spi_flash_sfud.c:629:32
	str	r0, [sp, #104]
	.loc	1 629 30 is_stmt 0              @ rt-thread/components/drivers/spi/spi_flash_sfud.c:629:30
	b	.LBB13_55
.LBB13_55:                              @ =>This Inner Loop Header: Depth=1
.Ltmp289:
	.loc	1 629 37                        @ rt-thread/components/drivers/spi/spi_flash_sfud.c:629:37
	ldr	r0, [sp, #104]
	.loc	1 629 41                        @ rt-thread/components/drivers/spi/spi_flash_sfud.c:629:41
	ldr	r1, [sp, #64]
.Ltmp290:
	.loc	1 629 25                        @ rt-thread/components/drivers/spi/spi_flash_sfud.c:629:25
	cmp	r0, r1
	bhs	.LBB13_58
	b	.LBB13_56
.LBB13_56:                              @   in Loop: Header=BB13_55 Depth=1
.Ltmp291:
	.loc	1 630 46 is_stmt 1              @ rt-thread/components/drivers/spi/spi_flash_sfud.c:630:46
	ldr	r0, [sp, #112]
	.loc	1 630 55 is_stmt 0              @ rt-thread/components/drivers/spi/spi_flash_sfud.c:630:55
	ldr	r1, [sp, #104]
	.loc	1 630 46                        @ rt-thread/components/drivers/spi/spi_flash_sfud.c:630:46
	add.w	r0, r0, r1, lsl #2
	ldr	r0, [r0, #12]
	movs	r2, #0
	.loc	1 630 39                        @ rt-thread/components/drivers/spi/spi_flash_sfud.c:630:39
	mov	r1, r2
	bl	strtol
	.loc	1 630 29                        @ rt-thread/components/drivers/spi/spi_flash_sfud.c:630:29
	ldr	r1, [sp, #52]
	.loc	1 630 34                        @ rt-thread/components/drivers/spi/spi_flash_sfud.c:630:34
	ldr	r2, [sp, #104]
	.loc	1 630 37                        @ rt-thread/components/drivers/spi/spi_flash_sfud.c:630:37
	strb	r0, [r1, r2]
	.loc	1 631 25 is_stmt 1              @ rt-thread/components/drivers/spi/spi_flash_sfud.c:631:25
	b	.LBB13_57
.Ltmp292:
.LBB13_57:                              @   in Loop: Header=BB13_55 Depth=1
	.loc	1 629 48                        @ rt-thread/components/drivers/spi/spi_flash_sfud.c:629:48
	ldr	r0, [sp, #104]
	adds	r0, #1
	str	r0, [sp, #104]
	.loc	1 629 25 is_stmt 0              @ rt-thread/components/drivers/spi/spi_flash_sfud.c:629:25
	b	.LBB13_55
.Ltmp293:
.LBB13_58:
	.loc	1 632 45 is_stmt 1              @ rt-thread/components/drivers/spi/spi_flash_sfud.c:632:45
	movw	r0, :lower16:sf.sfud_dev
	movt	r0, :upper16:sf.sfud_dev
	ldr	r0, [r0]
	.loc	1 632 55 is_stmt 0              @ rt-thread/components/drivers/spi/spi_flash_sfud.c:632:55
	ldr	r1, [sp, #68]
	.loc	1 632 61                        @ rt-thread/components/drivers/spi/spi_flash_sfud.c:632:61
	ldr	r2, [sp, #64]
	.loc	1 632 67                        @ rt-thread/components/drivers/spi/spi_flash_sfud.c:632:67
	ldr	r3, [sp, #52]
	.loc	1 632 34                        @ rt-thread/components/drivers/spi/spi_flash_sfud.c:632:34
	bl	sfud_write
	.loc	1 632 32                        @ rt-thread/components/drivers/spi/spi_flash_sfud.c:632:32
	strb.w	r0, [sp, #111]
.Ltmp294:
	.loc	1 633 29 is_stmt 1              @ rt-thread/components/drivers/spi/spi_flash_sfud.c:633:29
	ldrb.w	r0, [sp, #111]
.Ltmp295:
	.loc	1 633 29 is_stmt 0              @ rt-thread/components/drivers/spi/spi_flash_sfud.c:633:29
	cbnz	r0, .LBB13_64
	b	.LBB13_59
.LBB13_59:
.Ltmp296:
	.loc	1 635 37 is_stmt 1              @ rt-thread/components/drivers/spi/spi_flash_sfud.c:635:37
	movw	r0, :lower16:sf.sfud_dev
	movt	r0, :upper16:sf.sfud_dev
	ldr	r0, [r0]
	.loc	1 635 47 is_stmt 0              @ rt-thread/components/drivers/spi/spi_flash_sfud.c:635:47
	ldr	r1, [r0]
	.loc	1 635 53                        @ rt-thread/components/drivers/spi/spi_flash_sfud.c:635:53
	ldr	r2, [sp, #68]
	.loc	1 635 59                        @ rt-thread/components/drivers/spi/spi_flash_sfud.c:635:59
	ldr	r3, [sp, #64]
	.loc	1 634 29 is_stmt 1              @ rt-thread/components/drivers/spi/spi_flash_sfud.c:634:29
	movw	r0, :lower16:.L.str.43
	movt	r0, :upper16:.L.str.43
	bl	rt_kprintf
	.loc	1 636 29                        @ rt-thread/components/drivers/spi/spi_flash_sfud.c:636:29
	movw	r0, :lower16:.L.str.44
	movt	r0, :upper16:.L.str.44
	bl	rt_kprintf
	movs	r0, #0
.Ltmp297:
	.loc	1 637 36                        @ rt-thread/components/drivers/spi/spi_flash_sfud.c:637:36
	str	r0, [sp, #104]
	.loc	1 637 34 is_stmt 0              @ rt-thread/components/drivers/spi/spi_flash_sfud.c:637:34
	b	.LBB13_60
.LBB13_60:                              @ =>This Inner Loop Header: Depth=1
.Ltmp298:
	.loc	1 637 41                        @ rt-thread/components/drivers/spi/spi_flash_sfud.c:637:41
	ldr	r0, [sp, #104]
	.loc	1 637 45                        @ rt-thread/components/drivers/spi/spi_flash_sfud.c:637:45
	ldr	r1, [sp, #64]
.Ltmp299:
	.loc	1 637 29                        @ rt-thread/components/drivers/spi/spi_flash_sfud.c:637:29
	cmp	r0, r1
	bhs	.LBB13_63
	b	.LBB13_61
.LBB13_61:                              @   in Loop: Header=BB13_60 Depth=1
.Ltmp300:
	.loc	1 638 51 is_stmt 1              @ rt-thread/components/drivers/spi/spi_flash_sfud.c:638:51
	ldr	r0, [sp, #52]
	.loc	1 638 56 is_stmt 0              @ rt-thread/components/drivers/spi/spi_flash_sfud.c:638:56
	ldr	r1, [sp, #104]
	.loc	1 638 51                        @ rt-thread/components/drivers/spi/spi_flash_sfud.c:638:51
	ldrb	r1, [r0, r1]
	.loc	1 638 33                        @ rt-thread/components/drivers/spi/spi_flash_sfud.c:638:33
	movw	r0, :lower16:.L.str.45
	movt	r0, :upper16:.L.str.45
	bl	rt_kprintf
	.loc	1 639 29 is_stmt 1              @ rt-thread/components/drivers/spi/spi_flash_sfud.c:639:29
	b	.LBB13_62
.Ltmp301:
.LBB13_62:                              @   in Loop: Header=BB13_60 Depth=1
	.loc	1 637 52                        @ rt-thread/components/drivers/spi/spi_flash_sfud.c:637:52
	ldr	r0, [sp, #104]
	adds	r0, #1
	str	r0, [sp, #104]
	.loc	1 637 29 is_stmt 0              @ rt-thread/components/drivers/spi/spi_flash_sfud.c:637:29
	b	.LBB13_60
.Ltmp302:
.LBB13_63:
	.loc	1 640 29 is_stmt 1              @ rt-thread/components/drivers/spi/spi_flash_sfud.c:640:29
	movw	r0, :lower16:.L.str.46
	movt	r0, :upper16:.L.str.46
	bl	rt_kprintf
	.loc	1 641 25                        @ rt-thread/components/drivers/spi/spi_flash_sfud.c:641:25
	b	.LBB13_64
.Ltmp303:
.LBB13_64:
	.loc	1 642 33                        @ rt-thread/components/drivers/spi/spi_flash_sfud.c:642:33
	ldr	r0, [sp, #52]
	.loc	1 642 25 is_stmt 0              @ rt-thread/components/drivers/spi/spi_flash_sfud.c:642:25
	bl	rt_free
	.loc	1 643 21 is_stmt 1              @ rt-thread/components/drivers/spi/spi_flash_sfud.c:643:21
	b	.LBB13_66
.Ltmp304:
.LBB13_65:
	.loc	1 644 25                        @ rt-thread/components/drivers/spi/spi_flash_sfud.c:644:25
	movw	r0, :lower16:.L.str.41
	movt	r0, :upper16:.L.str.41
	bl	rt_kprintf
	b	.LBB13_66
.Ltmp305:
.LBB13_66:
	.loc	1 0 25 is_stmt 0                @ rt-thread/components/drivers/spi/spi_flash_sfud.c:0:25
	b	.LBB13_67
.LBB13_67:
	.loc	1 647 13 is_stmt 1              @ rt-thread/components/drivers/spi/spi_flash_sfud.c:647:13
	b	.LBB13_138
.Ltmp306:
.LBB13_68:
	.loc	1 647 35 is_stmt 0              @ rt-thread/components/drivers/spi/spi_flash_sfud.c:647:35
	ldr	r0, [sp, #72]
	.loc	1 647 25                        @ rt-thread/components/drivers/spi/spi_flash_sfud.c:647:25
	movw	r1, :lower16:.L.str.47
	movt	r1, :upper16:.L.str.47
	bl	rt_strcmp
.Ltmp307:
	.loc	1 647 24                        @ rt-thread/components/drivers/spi/spi_flash_sfud.c:647:24
	cbnz	r0, .LBB13_75
	b	.LBB13_69
.LBB13_69:
.Ltmp308:
	.loc	1 648 21 is_stmt 1              @ rt-thread/components/drivers/spi/spi_flash_sfud.c:648:21
	ldrb.w	r0, [sp, #119]
.Ltmp309:
	.loc	1 648 21 is_stmt 0              @ rt-thread/components/drivers/spi/spi_flash_sfud.c:648:21
	cmp	r0, #3
	bgt	.LBB13_71
	b	.LBB13_70
.LBB13_70:
.Ltmp310:
	.loc	1 649 48 is_stmt 1              @ rt-thread/components/drivers/spi/spi_flash_sfud.c:649:48
	ldr	r1, [sp, #88]
	.loc	1 649 21 is_stmt 0              @ rt-thread/components/drivers/spi/spi_flash_sfud.c:649:21
	movw	r0, :lower16:.L.str.29
	movt	r0, :upper16:.L.str.29
	bl	rt_kprintf
	.loc	1 650 21 is_stmt 1              @ rt-thread/components/drivers/spi/spi_flash_sfud.c:650:21
	b	.LBB13_143
.Ltmp311:
.LBB13_71:
	.loc	1 652 35                        @ rt-thread/components/drivers/spi/spi_flash_sfud.c:652:35
	ldr	r0, [sp, #112]
	ldr	r0, [r0, #8]
	movs	r2, #0
	.loc	1 652 28 is_stmt 0              @ rt-thread/components/drivers/spi/spi_flash_sfud.c:652:28
	str	r2, [sp, #8]                    @ 4-byte Spill
	mov	r1, r2
	bl	strtol
	ldr	r2, [sp, #8]                    @ 4-byte Reload
	.loc	1 652 26                        @ rt-thread/components/drivers/spi/spi_flash_sfud.c:652:26
	str	r0, [sp, #68]
	.loc	1 653 35 is_stmt 1              @ rt-thread/components/drivers/spi/spi_flash_sfud.c:653:35
	ldr	r0, [sp, #112]
	ldr	r0, [r0, #12]
	.loc	1 653 28 is_stmt 0              @ rt-thread/components/drivers/spi/spi_flash_sfud.c:653:28
	mov	r1, r2
	bl	strtol
	.loc	1 653 26                        @ rt-thread/components/drivers/spi/spi_flash_sfud.c:653:26
	str	r0, [sp, #64]
	.loc	1 654 41 is_stmt 1              @ rt-thread/components/drivers/spi/spi_flash_sfud.c:654:41
	movw	r0, :lower16:sf.sfud_dev
	movt	r0, :upper16:sf.sfud_dev
	ldr	r0, [r0]
	.loc	1 654 51 is_stmt 0              @ rt-thread/components/drivers/spi/spi_flash_sfud.c:654:51
	ldr	r1, [sp, #68]
	.loc	1 654 57                        @ rt-thread/components/drivers/spi/spi_flash_sfud.c:654:57
	ldr	r2, [sp, #64]
	.loc	1 654 30                        @ rt-thread/components/drivers/spi/spi_flash_sfud.c:654:30
	bl	sfud_erase
	.loc	1 654 28                        @ rt-thread/components/drivers/spi/spi_flash_sfud.c:654:28
	strb.w	r0, [sp, #111]
.Ltmp312:
	.loc	1 655 25 is_stmt 1              @ rt-thread/components/drivers/spi/spi_flash_sfud.c:655:25
	ldrb.w	r0, [sp, #111]
.Ltmp313:
	.loc	1 655 25 is_stmt 0              @ rt-thread/components/drivers/spi/spi_flash_sfud.c:655:25
	cbnz	r0, .LBB13_73
	b	.LBB13_72
.LBB13_72:
.Ltmp314:
	.loc	1 656 106 is_stmt 1             @ rt-thread/components/drivers/spi/spi_flash_sfud.c:656:106
	movw	r0, :lower16:sf.sfud_dev
	movt	r0, :upper16:sf.sfud_dev
	ldr	r0, [r0]
	.loc	1 656 116 is_stmt 0             @ rt-thread/components/drivers/spi/spi_flash_sfud.c:656:116
	ldr	r1, [r0]
	.loc	1 657 33 is_stmt 1              @ rt-thread/components/drivers/spi/spi_flash_sfud.c:657:33
	ldr	r2, [sp, #68]
	.loc	1 657 39 is_stmt 0              @ rt-thread/components/drivers/spi/spi_flash_sfud.c:657:39
	ldr	r3, [sp, #64]
	.loc	1 656 25 is_stmt 1              @ rt-thread/components/drivers/spi/spi_flash_sfud.c:656:25
	movw	r0, :lower16:.L.str.48
	movt	r0, :upper16:.L.str.48
	bl	rt_kprintf
	.loc	1 658 21                        @ rt-thread/components/drivers/spi/spi_flash_sfud.c:658:21
	b	.LBB13_73
.Ltmp315:
.LBB13_73:
	.loc	1 0 21 is_stmt 0                @ rt-thread/components/drivers/spi/spi_flash_sfud.c:0:21
	b	.LBB13_74
.LBB13_74:
	.loc	1 660 13 is_stmt 1              @ rt-thread/components/drivers/spi/spi_flash_sfud.c:660:13
	b	.LBB13_137
.Ltmp316:
.LBB13_75:
	.loc	1 660 35 is_stmt 0              @ rt-thread/components/drivers/spi/spi_flash_sfud.c:660:35
	ldr	r0, [sp, #72]
	.loc	1 660 25                        @ rt-thread/components/drivers/spi/spi_flash_sfud.c:660:25
	movw	r1, :lower16:.L.str.49
	movt	r1, :upper16:.L.str.49
	bl	rt_strcmp
.Ltmp317:
	.loc	1 660 24                        @ rt-thread/components/drivers/spi/spi_flash_sfud.c:660:24
	cmp	r0, #0
	bne	.LBB13_87
	b	.LBB13_76
.LBB13_76:
.Ltmp318:
	.loc	1 661 21 is_stmt 1              @ rt-thread/components/drivers/spi/spi_flash_sfud.c:661:21
	ldrb.w	r0, [sp, #119]
.Ltmp319:
	.loc	1 661 21 is_stmt 0              @ rt-thread/components/drivers/spi/spi_flash_sfud.c:661:21
	cmp	r0, #2
	bgt	.LBB13_80
	b	.LBB13_77
.LBB13_77:
.Ltmp320:
	.loc	1 663 47 is_stmt 1              @ rt-thread/components/drivers/spi/spi_flash_sfud.c:663:47
	movw	r0, :lower16:sf.sfud_dev
	movt	r0, :upper16:sf.sfud_dev
	ldr	r0, [r0]
	add.w	r1, sp, #51
	.loc	1 663 30 is_stmt 0              @ rt-thread/components/drivers/spi/spi_flash_sfud.c:663:30
	bl	sfud_read_status
	.loc	1 663 28                        @ rt-thread/components/drivers/spi/spi_flash_sfud.c:663:28
	strb.w	r0, [sp, #111]
.Ltmp321:
	.loc	1 664 25 is_stmt 1              @ rt-thread/components/drivers/spi/spi_flash_sfud.c:664:25
	ldrb.w	r0, [sp, #111]
.Ltmp322:
	.loc	1 664 25 is_stmt 0              @ rt-thread/components/drivers/spi/spi_flash_sfud.c:664:25
	cbnz	r0, .LBB13_79
	b	.LBB13_78
.LBB13_78:
.Ltmp323:
	.loc	1 665 95 is_stmt 1              @ rt-thread/components/drivers/spi/spi_flash_sfud.c:665:95
	movw	r0, :lower16:sf.sfud_dev
	movt	r0, :upper16:sf.sfud_dev
	ldr	r0, [r0]
	.loc	1 665 105 is_stmt 0             @ rt-thread/components/drivers/spi/spi_flash_sfud.c:665:105
	ldr	r1, [r0]
	.loc	1 665 111                       @ rt-thread/components/drivers/spi/spi_flash_sfud.c:665:111
	ldrb.w	r2, [sp, #51]
	.loc	1 665 25                        @ rt-thread/components/drivers/spi/spi_flash_sfud.c:665:25
	movw	r0, :lower16:.L.str.50
	movt	r0, :upper16:.L.str.50
	bl	rt_kprintf
	.loc	1 666 21 is_stmt 1              @ rt-thread/components/drivers/spi/spi_flash_sfud.c:666:21
	b	.LBB13_79
.Ltmp324:
.LBB13_79:
	.loc	1 667 17                        @ rt-thread/components/drivers/spi/spi_flash_sfud.c:667:17
	b	.LBB13_86
.Ltmp325:
.LBB13_80:
	.loc	1 667 28 is_stmt 0              @ rt-thread/components/drivers/spi/spi_flash_sfud.c:667:28
	ldrb.w	r0, [sp, #119]
.Ltmp326:
	.loc	1 667 28                        @ rt-thread/components/drivers/spi/spi_flash_sfud.c:667:28
	cmp	r0, #4
	bne	.LBB13_84
	b	.LBB13_81
.LBB13_81:
.Ltmp327:
	.loc	1 668 47 is_stmt 1              @ rt-thread/components/drivers/spi/spi_flash_sfud.c:668:47
	ldr	r0, [sp, #112]
	ldr	r0, [r0, #8]
	movs	r2, #0
	.loc	1 668 40 is_stmt 0              @ rt-thread/components/drivers/spi/spi_flash_sfud.c:668:40
	str	r2, [sp, #4]                    @ 4-byte Spill
	mov	r1, r2
	bl	strtol
	ldr	r2, [sp, #4]                    @ 4-byte Reload
	cmp	r0, #0
	it	ne
	movne	r0, #1
	.loc	1 668 26                        @ rt-thread/components/drivers/spi/spi_flash_sfud.c:668:26
	strb.w	r0, [sp, #50]
	.loc	1 669 45 is_stmt 1              @ rt-thread/components/drivers/spi/spi_flash_sfud.c:669:45
	ldr	r0, [sp, #112]
	ldr	r0, [r0, #12]
	.loc	1 669 38 is_stmt 0              @ rt-thread/components/drivers/spi/spi_flash_sfud.c:669:38
	mov	r1, r2
	bl	strtol
	.loc	1 669 29                        @ rt-thread/components/drivers/spi/spi_flash_sfud.c:669:29
	strb.w	r0, [sp, #49]
	.loc	1 670 48 is_stmt 1              @ rt-thread/components/drivers/spi/spi_flash_sfud.c:670:48
	movw	r0, :lower16:sf.sfud_dev
	movt	r0, :upper16:sf.sfud_dev
	ldr	r0, [r0]
	.loc	1 670 71 is_stmt 0              @ rt-thread/components/drivers/spi/spi_flash_sfud.c:670:71
	ldrb.w	r2, [sp, #49]
	.loc	1 670 30                        @ rt-thread/components/drivers/spi/spi_flash_sfud.c:670:30
	ldrb.w	r1, [sp, #50]
	and	r1, r1, #1
	bl	sfud_write_status
	.loc	1 670 28                        @ rt-thread/components/drivers/spi/spi_flash_sfud.c:670:28
	strb.w	r0, [sp, #111]
.Ltmp328:
	.loc	1 671 25 is_stmt 1              @ rt-thread/components/drivers/spi/spi_flash_sfud.c:671:25
	ldrb.w	r0, [sp, #111]
.Ltmp329:
	.loc	1 671 25 is_stmt 0              @ rt-thread/components/drivers/spi/spi_flash_sfud.c:671:25
	cbnz	r0, .LBB13_83
	b	.LBB13_82
.LBB13_82:
.Ltmp330:
	.loc	1 672 95 is_stmt 1              @ rt-thread/components/drivers/spi/spi_flash_sfud.c:672:95
	movw	r0, :lower16:sf.sfud_dev
	movt	r0, :upper16:sf.sfud_dev
	ldr	r0, [r0]
	.loc	1 672 105 is_stmt 0             @ rt-thread/components/drivers/spi/spi_flash_sfud.c:672:105
	ldr	r1, [r0]
	.loc	1 672 111                       @ rt-thread/components/drivers/spi/spi_flash_sfud.c:672:111
	ldrb.w	r2, [sp, #49]
	.loc	1 672 25                        @ rt-thread/components/drivers/spi/spi_flash_sfud.c:672:25
	movw	r0, :lower16:.L.str.51
	movt	r0, :upper16:.L.str.51
	bl	rt_kprintf
	.loc	1 673 21 is_stmt 1              @ rt-thread/components/drivers/spi/spi_flash_sfud.c:673:21
	b	.LBB13_83
.Ltmp331:
.LBB13_83:
	.loc	1 674 17                        @ rt-thread/components/drivers/spi/spi_flash_sfud.c:674:17
	b	.LBB13_85
.Ltmp332:
.LBB13_84:
	.loc	1 675 48                        @ rt-thread/components/drivers/spi/spi_flash_sfud.c:675:48
	ldr	r1, [sp, #92]
	.loc	1 675 21 is_stmt 0              @ rt-thread/components/drivers/spi/spi_flash_sfud.c:675:21
	movw	r0, :lower16:.L.str.29
	movt	r0, :upper16:.L.str.29
	bl	rt_kprintf
	.loc	1 676 21 is_stmt 1              @ rt-thread/components/drivers/spi/spi_flash_sfud.c:676:21
	b	.LBB13_143
.Ltmp333:
.LBB13_85:
	.loc	1 0 21 is_stmt 0                @ rt-thread/components/drivers/spi/spi_flash_sfud.c:0:21
	b	.LBB13_86
.LBB13_86:
	.loc	1 678 13 is_stmt 1              @ rt-thread/components/drivers/spi/spi_flash_sfud.c:678:13
	b	.LBB13_136
.Ltmp334:
.LBB13_87:
	.loc	1 678 35 is_stmt 0              @ rt-thread/components/drivers/spi/spi_flash_sfud.c:678:35
	ldr	r0, [sp, #72]
	.loc	1 678 25                        @ rt-thread/components/drivers/spi/spi_flash_sfud.c:678:25
	movw	r1, :lower16:.L.str.52
	movt	r1, :upper16:.L.str.52
	bl	rt_strcmp
.Ltmp335:
	.loc	1 678 24                        @ rt-thread/components/drivers/spi/spi_flash_sfud.c:678:24
	cmp	r0, #0
	bne.w	.LBB13_130
	b	.LBB13_88
.LBB13_88:
.Ltmp336:
	.loc	1 679 22 is_stmt 1              @ rt-thread/components/drivers/spi/spi_flash_sfud.c:679:22
	ldrb.w	r0, [sp, #119]
	.loc	1 679 31 is_stmt 0              @ rt-thread/components/drivers/spi/spi_flash_sfud.c:679:31
	cmp	r0, #3
	blt	.LBB13_90
	b	.LBB13_89
.LBB13_89:
	.loc	1 679 44                        @ rt-thread/components/drivers/spi/spi_flash_sfud.c:679:44
	ldr	r0, [sp, #112]
	ldr	r0, [r0, #8]
	.loc	1 679 34                        @ rt-thread/components/drivers/spi/spi_flash_sfud.c:679:34
	movw	r1, :lower16:.L.str.53
	movt	r1, :upper16:.L.str.53
	bl	rt_strcmp
	.loc	1 679 61                        @ rt-thread/components/drivers/spi/spi_flash_sfud.c:679:61
	cbnz	r0, .LBB13_91
	b	.LBB13_90
.LBB13_90:
	.loc	1 679 64                        @ rt-thread/components/drivers/spi/spi_flash_sfud.c:679:64
	ldrb.w	r0, [sp, #119]
.Ltmp337:
	.loc	1 679 21                        @ rt-thread/components/drivers/spi/spi_flash_sfud.c:679:21
	cmp	r0, #2
	bgt	.LBB13_92
	b	.LBB13_91
.LBB13_91:
.Ltmp338:
	.loc	1 680 21 is_stmt 1              @ rt-thread/components/drivers/spi/spi_flash_sfud.c:680:21
	movw	r0, :lower16:.L.str.54
	movt	r0, :upper16:.L.str.54
	bl	rt_kprintf
	.loc	1 681 21                        @ rt-thread/components/drivers/spi/spi_flash_sfud.c:681:21
	b	.LBB13_143
.Ltmp339:
.LBB13_92:
	.loc	1 0 21 is_stmt 0                @ rt-thread/components/drivers/spi/spi_flash_sfud.c:0:21
	movs	r0, #0
	.loc	1 684 22 is_stmt 1              @ rt-thread/components/drivers/spi/spi_flash_sfud.c:684:22
	str	r0, [sp, #68]
	.loc	1 685 24                        @ rt-thread/components/drivers/spi/spi_flash_sfud.c:685:24
	movw	r0, :lower16:sf.sfud_dev
	movt	r0, :upper16:sf.sfud_dev
	ldr	r0, [r0]
	.loc	1 685 39 is_stmt 0              @ rt-thread/components/drivers/spi/spi_flash_sfud.c:685:39
	ldr	r0, [r0, #16]
	.loc	1 685 22                        @ rt-thread/components/drivers/spi/spi_flash_sfud.c:685:22
	str	r0, [sp, #64]
	mov.w	r0, #256
	.loc	1 687 24 is_stmt 1              @ rt-thread/components/drivers/spi/spi_flash_sfud.c:687:24
	str	r0, [sp, #36]
	.loc	1 687 63 is_stmt 0              @ rt-thread/components/drivers/spi/spi_flash_sfud.c:687:63
	str	r0, [sp, #32]
	.loc	1 688 49 is_stmt 1              @ rt-thread/components/drivers/spi/spi_flash_sfud.c:688:49
	ldr	r0, [sp, #36]
	.loc	1 688 39 is_stmt 0              @ rt-thread/components/drivers/spi/spi_flash_sfud.c:688:39
	bl	rt_malloc
	.loc	1 688 26                        @ rt-thread/components/drivers/spi/spi_flash_sfud.c:688:26
	str	r0, [sp, #24]
	.loc	1 688 85                        @ rt-thread/components/drivers/spi/spi_flash_sfud.c:688:85
	ldr	r0, [sp, #32]
	.loc	1 688 75                        @ rt-thread/components/drivers/spi/spi_flash_sfud.c:688:75
	bl	rt_malloc
	.loc	1 688 63                        @ rt-thread/components/drivers/spi/spi_flash_sfud.c:688:63
	str	r0, [sp, #20]
.Ltmp340:
	.loc	1 690 21 is_stmt 1              @ rt-thread/components/drivers/spi/spi_flash_sfud.c:690:21
	ldr	r0, [sp, #24]
	.loc	1 690 32 is_stmt 0              @ rt-thread/components/drivers/spi/spi_flash_sfud.c:690:32
	cmp	r0, #0
	beq.w	.LBB13_128
	b	.LBB13_93
.LBB13_93:
	.loc	1 690 35                        @ rt-thread/components/drivers/spi/spi_flash_sfud.c:690:35
	ldr	r0, [sp, #20]
.Ltmp341:
	.loc	1 690 21                        @ rt-thread/components/drivers/spi/spi_flash_sfud.c:690:21
	cmp	r0, #0
	beq.w	.LBB13_128
	b	.LBB13_94
.LBB13_94:
	.loc	1 0 21                          @ rt-thread/components/drivers/spi/spi_flash_sfud.c:0:21
	movs	r0, #0
.Ltmp342:
	.loc	1 691 28 is_stmt 1              @ rt-thread/components/drivers/spi/spi_flash_sfud.c:691:28
	str	r0, [sp, #104]
	.loc	1 691 26 is_stmt 0              @ rt-thread/components/drivers/spi/spi_flash_sfud.c:691:26
	b	.LBB13_95
.LBB13_95:                              @ =>This Inner Loop Header: Depth=1
.Ltmp343:
	.loc	1 691 33                        @ rt-thread/components/drivers/spi/spi_flash_sfud.c:691:33
	ldr	r0, [sp, #104]
	.loc	1 691 37                        @ rt-thread/components/drivers/spi/spi_flash_sfud.c:691:37
	ldr	r1, [sp, #36]
.Ltmp344:
	.loc	1 691 21                        @ rt-thread/components/drivers/spi/spi_flash_sfud.c:691:21
	cmp	r0, r1
	bhs	.LBB13_98
	b	.LBB13_96
.LBB13_96:                              @   in Loop: Header=BB13_95 Depth=1
.Ltmp345:
	.loc	1 692 41 is_stmt 1              @ rt-thread/components/drivers/spi/spi_flash_sfud.c:692:41
	ldr	r0, [sp, #104]
	.loc	1 692 25 is_stmt 0              @ rt-thread/components/drivers/spi/spi_flash_sfud.c:692:25
	ldr	r1, [sp, #24]
	.loc	1 692 39                        @ rt-thread/components/drivers/spi/spi_flash_sfud.c:692:39
	strb	r0, [r1, r0]
	.loc	1 693 21 is_stmt 1              @ rt-thread/components/drivers/spi/spi_flash_sfud.c:693:21
	b	.LBB13_97
.Ltmp346:
.LBB13_97:                              @   in Loop: Header=BB13_95 Depth=1
	.loc	1 691 51                        @ rt-thread/components/drivers/spi/spi_flash_sfud.c:691:51
	ldr	r0, [sp, #104]
	adds	r0, #1
	str	r0, [sp, #104]
	.loc	1 691 21 is_stmt 0              @ rt-thread/components/drivers/spi/spi_flash_sfud.c:691:21
	b	.LBB13_95
.Ltmp347:
.LBB13_98:
	.loc	1 695 79 is_stmt 1              @ rt-thread/components/drivers/spi/spi_flash_sfud.c:695:79
	movw	r0, :lower16:sf.sfud_dev
	movt	r0, :upper16:sf.sfud_dev
	str	r0, [sp]                        @ 4-byte Spill
	ldr	r0, [r0]
	.loc	1 695 89 is_stmt 0              @ rt-thread/components/drivers/spi/spi_flash_sfud.c:695:89
	ldr	r1, [r0]
	.loc	1 695 95                        @ rt-thread/components/drivers/spi/spi_flash_sfud.c:695:95
	ldr	r2, [sp, #64]
	.loc	1 695 21                        @ rt-thread/components/drivers/spi/spi_flash_sfud.c:695:21
	movw	r0, :lower16:.L.str.55
	movt	r0, :upper16:.L.str.55
	bl	rt_kprintf
	.loc	1 696 34 is_stmt 1              @ rt-thread/components/drivers/spi/spi_flash_sfud.c:696:34
	bl	rt_tick_get
	mov	r1, r0
	.loc	1 696 32 is_stmt 0              @ rt-thread/components/drivers/spi/spi_flash_sfud.c:696:32
	ldr	r0, [sp]                        @ 4-byte Reload
	str	r1, [sp, #44]
	.loc	1 697 41 is_stmt 1              @ rt-thread/components/drivers/spi/spi_flash_sfud.c:697:41
	ldr	r0, [r0]
	.loc	1 697 51 is_stmt 0              @ rt-thread/components/drivers/spi/spi_flash_sfud.c:697:51
	ldr	r1, [sp, #68]
	.loc	1 697 57                        @ rt-thread/components/drivers/spi/spi_flash_sfud.c:697:57
	ldr	r2, [sp, #64]
	.loc	1 697 30                        @ rt-thread/components/drivers/spi/spi_flash_sfud.c:697:30
	bl	sfud_erase
	.loc	1 697 28                        @ rt-thread/components/drivers/spi/spi_flash_sfud.c:697:28
	strb.w	r0, [sp, #111]
.Ltmp348:
	.loc	1 698 25 is_stmt 1              @ rt-thread/components/drivers/spi/spi_flash_sfud.c:698:25
	ldrb.w	r0, [sp, #111]
.Ltmp349:
	.loc	1 698 25 is_stmt 0              @ rt-thread/components/drivers/spi/spi_flash_sfud.c:698:25
	cbnz	r0, .LBB13_100
	b	.LBB13_99
.LBB13_99:
.Ltmp350:
	.loc	1 699 37 is_stmt 1              @ rt-thread/components/drivers/spi/spi_flash_sfud.c:699:37
	bl	rt_tick_get
	.loc	1 699 53 is_stmt 0              @ rt-thread/components/drivers/spi/spi_flash_sfud.c:699:53
	ldr	r1, [sp, #44]
	.loc	1 699 51                        @ rt-thread/components/drivers/spi/spi_flash_sfud.c:699:51
	subs	r0, r0, r1
	.loc	1 699 35                        @ rt-thread/components/drivers/spi/spi_flash_sfud.c:699:35
	str	r0, [sp, #40]
	.loc	1 700 88 is_stmt 1              @ rt-thread/components/drivers/spi/spi_flash_sfud.c:700:88
	ldr	r2, [sp, #40]
	movw	r0, #19923
	movt	r0, #4194
	.loc	1 701 43                        @ rt-thread/components/drivers/spi/spi_flash_sfud.c:701:43
	umull	r1, r0, r2, r0
	lsrs	r1, r0, #6
	mov.w	r0, #1000
	mls	r2, r1, r0, r2
	.loc	1 700 25                        @ rt-thread/components/drivers/spi/spi_flash_sfud.c:700:25
	movw	r0, :lower16:.L.str.56
	movt	r0, :upper16:.L.str.56
	bl	rt_kprintf
	.loc	1 702 21                        @ rt-thread/components/drivers/spi/spi_flash_sfud.c:702:21
	b	.LBB13_101
.Ltmp351:
.LBB13_100:
	.loc	1 703 87                        @ rt-thread/components/drivers/spi/spi_flash_sfud.c:703:87
	ldrb.w	r1, [sp, #111]
	.loc	1 703 25 is_stmt 0              @ rt-thread/components/drivers/spi/spi_flash_sfud.c:703:25
	movw	r0, :lower16:.L.str.57
	movt	r0, :upper16:.L.str.57
	bl	rt_kprintf
	b	.LBB13_101
.Ltmp352:
.LBB13_101:
	.loc	1 706 79 is_stmt 1              @ rt-thread/components/drivers/spi/spi_flash_sfud.c:706:79
	movw	r0, :lower16:sf.sfud_dev
	movt	r0, :upper16:sf.sfud_dev
	ldr	r0, [r0]
	.loc	1 706 89 is_stmt 0              @ rt-thread/components/drivers/spi/spi_flash_sfud.c:706:89
	ldr	r1, [r0]
	.loc	1 706 95                        @ rt-thread/components/drivers/spi/spi_flash_sfud.c:706:95
	ldr	r2, [sp, #64]
	.loc	1 706 21                        @ rt-thread/components/drivers/spi/spi_flash_sfud.c:706:21
	movw	r0, :lower16:.L.str.58
	movt	r0, :upper16:.L.str.58
	bl	rt_kprintf
	.loc	1 707 34 is_stmt 1              @ rt-thread/components/drivers/spi/spi_flash_sfud.c:707:34
	bl	rt_tick_get
	.loc	1 707 32 is_stmt 0              @ rt-thread/components/drivers/spi/spi_flash_sfud.c:707:32
	str	r0, [sp, #44]
	movs	r0, #0
.Ltmp353:
	.loc	1 708 28 is_stmt 1              @ rt-thread/components/drivers/spi/spi_flash_sfud.c:708:28
	str	r0, [sp, #104]
	.loc	1 708 26 is_stmt 0              @ rt-thread/components/drivers/spi/spi_flash_sfud.c:708:26
	b	.LBB13_102
.LBB13_102:                             @ =>This Inner Loop Header: Depth=1
.Ltmp354:
	.loc	1 708 33                        @ rt-thread/components/drivers/spi/spi_flash_sfud.c:708:33
	ldr	r0, [sp, #104]
	.loc	1 708 37                        @ rt-thread/components/drivers/spi/spi_flash_sfud.c:708:37
	ldr	r1, [sp, #64]
.Ltmp355:
	.loc	1 708 21                        @ rt-thread/components/drivers/spi/spi_flash_sfud.c:708:21
	cmp	r0, r1
	bhs	.LBB13_110
	b	.LBB13_103
.LBB13_103:                             @   in Loop: Header=BB13_102 Depth=1
.Ltmp356:
	.loc	1 709 29 is_stmt 1              @ rt-thread/components/drivers/spi/spi_flash_sfud.c:709:29
	ldr	r0, [sp, #104]
	.loc	1 709 33 is_stmt 0              @ rt-thread/components/drivers/spi/spi_flash_sfud.c:709:33
	ldr	r1, [sp, #36]
	.loc	1 709 31                        @ rt-thread/components/drivers/spi/spi_flash_sfud.c:709:31
	add	r0, r1
	.loc	1 709 47                        @ rt-thread/components/drivers/spi/spi_flash_sfud.c:709:47
	ldr	r1, [sp, #64]
.Ltmp357:
	.loc	1 709 29                        @ rt-thread/components/drivers/spi/spi_flash_sfud.c:709:29
	cmp	r0, r1
	bhi	.LBB13_105
	b	.LBB13_104
.LBB13_104:                             @   in Loop: Header=BB13_102 Depth=1
.Ltmp358:
	.loc	1 710 43 is_stmt 1              @ rt-thread/components/drivers/spi/spi_flash_sfud.c:710:43
	ldr	r0, [sp, #36]
	.loc	1 710 41 is_stmt 0              @ rt-thread/components/drivers/spi/spi_flash_sfud.c:710:41
	str	r0, [sp, #28]
	.loc	1 711 25 is_stmt 1              @ rt-thread/components/drivers/spi/spi_flash_sfud.c:711:25
	b	.LBB13_106
.Ltmp359:
.LBB13_105:                             @   in Loop: Header=BB13_102 Depth=1
	.loc	1 712 43                        @ rt-thread/components/drivers/spi/spi_flash_sfud.c:712:43
	ldr	r0, [sp, #64]
	.loc	1 712 50 is_stmt 0              @ rt-thread/components/drivers/spi/spi_flash_sfud.c:712:50
	ldr	r1, [sp, #104]
	.loc	1 712 48                        @ rt-thread/components/drivers/spi/spi_flash_sfud.c:712:48
	subs	r0, r0, r1
	.loc	1 712 41                        @ rt-thread/components/drivers/spi/spi_flash_sfud.c:712:41
	str	r0, [sp, #28]
	b	.LBB13_106
.Ltmp360:
.LBB13_106:                             @   in Loop: Header=BB13_102 Depth=1
	.loc	1 714 45 is_stmt 1              @ rt-thread/components/drivers/spi/spi_flash_sfud.c:714:45
	movw	r0, :lower16:sf.sfud_dev
	movt	r0, :upper16:sf.sfud_dev
	ldr	r0, [r0]
	.loc	1 714 55 is_stmt 0              @ rt-thread/components/drivers/spi/spi_flash_sfud.c:714:55
	ldr	r1, [sp, #68]
	.loc	1 714 62                        @ rt-thread/components/drivers/spi/spi_flash_sfud.c:714:62
	ldr	r2, [sp, #104]
	.loc	1 714 60                        @ rt-thread/components/drivers/spi/spi_flash_sfud.c:714:60
	add	r1, r2
	.loc	1 714 65                        @ rt-thread/components/drivers/spi/spi_flash_sfud.c:714:65
	ldr	r2, [sp, #28]
	.loc	1 714 78                        @ rt-thread/components/drivers/spi/spi_flash_sfud.c:714:78
	ldr	r3, [sp, #24]
	.loc	1 714 34                        @ rt-thread/components/drivers/spi/spi_flash_sfud.c:714:34
	bl	sfud_write
	.loc	1 714 32                        @ rt-thread/components/drivers/spi/spi_flash_sfud.c:714:32
	strb.w	r0, [sp, #111]
.Ltmp361:
	.loc	1 715 29 is_stmt 1              @ rt-thread/components/drivers/spi/spi_flash_sfud.c:715:29
	ldrb.w	r0, [sp, #111]
.Ltmp362:
	.loc	1 715 29 is_stmt 0              @ rt-thread/components/drivers/spi/spi_flash_sfud.c:715:29
	cbz	r0, .LBB13_108
	b	.LBB13_107
.LBB13_107:
.Ltmp363:
	.loc	1 716 109 is_stmt 1             @ rt-thread/components/drivers/spi/spi_flash_sfud.c:716:109
	movw	r0, :lower16:sf.sfud_dev
	movt	r0, :upper16:sf.sfud_dev
	ldr	r0, [r0]
	.loc	1 716 119 is_stmt 0             @ rt-thread/components/drivers/spi/spi_flash_sfud.c:716:119
	ldr	r1, [r0]
	.loc	1 716 125                       @ rt-thread/components/drivers/spi/spi_flash_sfud.c:716:125
	ldr	r2, [sp, #104]
	.loc	1 716 128                       @ rt-thread/components/drivers/spi/spi_flash_sfud.c:716:128
	ldr	r3, [sp, #36]
	.loc	1 716 29                        @ rt-thread/components/drivers/spi/spi_flash_sfud.c:716:29
	movw	r0, :lower16:.L.str.59
	movt	r0, :upper16:.L.str.59
	bl	rt_kprintf
	.loc	1 717 29 is_stmt 1              @ rt-thread/components/drivers/spi/spi_flash_sfud.c:717:29
	b	.LBB13_110
.Ltmp364:
.LBB13_108:                             @   in Loop: Header=BB13_102 Depth=1
	.loc	1 719 21                        @ rt-thread/components/drivers/spi/spi_flash_sfud.c:719:21
	b	.LBB13_109
.Ltmp365:
.LBB13_109:                             @   in Loop: Header=BB13_102 Depth=1
	.loc	1 708 48                        @ rt-thread/components/drivers/spi/spi_flash_sfud.c:708:48
	ldr	r1, [sp, #36]
	.loc	1 708 45 is_stmt 0              @ rt-thread/components/drivers/spi/spi_flash_sfud.c:708:45
	ldr	r0, [sp, #104]
	add	r0, r1
	str	r0, [sp, #104]
	.loc	1 708 21                        @ rt-thread/components/drivers/spi/spi_flash_sfud.c:708:21
	b	.LBB13_102
.Ltmp366:
.LBB13_110:
	.loc	1 720 25 is_stmt 1              @ rt-thread/components/drivers/spi/spi_flash_sfud.c:720:25
	ldrb.w	r0, [sp, #111]
.Ltmp367:
	.loc	1 720 25 is_stmt 0              @ rt-thread/components/drivers/spi/spi_flash_sfud.c:720:25
	cbnz	r0, .LBB13_112
	b	.LBB13_111
.LBB13_111:
.Ltmp368:
	.loc	1 721 37 is_stmt 1              @ rt-thread/components/drivers/spi/spi_flash_sfud.c:721:37
	bl	rt_tick_get
	.loc	1 721 53 is_stmt 0              @ rt-thread/components/drivers/spi/spi_flash_sfud.c:721:53
	ldr	r1, [sp, #44]
	.loc	1 721 51                        @ rt-thread/components/drivers/spi/spi_flash_sfud.c:721:51
	subs	r0, r0, r1
	.loc	1 721 35                        @ rt-thread/components/drivers/spi/spi_flash_sfud.c:721:35
	str	r0, [sp, #40]
	.loc	1 722 88 is_stmt 1              @ rt-thread/components/drivers/spi/spi_flash_sfud.c:722:88
	ldr	r2, [sp, #40]
	movw	r0, #19923
	movt	r0, #4194
	.loc	1 723 43                        @ rt-thread/components/drivers/spi/spi_flash_sfud.c:723:43
	umull	r1, r0, r2, r0
	lsrs	r1, r0, #6
	mov.w	r0, #1000
	mls	r2, r1, r0, r2
	.loc	1 722 25                        @ rt-thread/components/drivers/spi/spi_flash_sfud.c:722:25
	movw	r0, :lower16:.L.str.60
	movt	r0, :upper16:.L.str.60
	bl	rt_kprintf
	.loc	1 724 21                        @ rt-thread/components/drivers/spi/spi_flash_sfud.c:724:21
	b	.LBB13_113
.Ltmp369:
.LBB13_112:
	.loc	1 725 87                        @ rt-thread/components/drivers/spi/spi_flash_sfud.c:725:87
	ldrb.w	r1, [sp, #111]
	.loc	1 725 25 is_stmt 0              @ rt-thread/components/drivers/spi/spi_flash_sfud.c:725:25
	movw	r0, :lower16:.L.str.61
	movt	r0, :upper16:.L.str.61
	bl	rt_kprintf
	b	.LBB13_113
.Ltmp370:
.LBB13_113:
	.loc	1 728 79 is_stmt 1              @ rt-thread/components/drivers/spi/spi_flash_sfud.c:728:79
	movw	r0, :lower16:sf.sfud_dev
	movt	r0, :upper16:sf.sfud_dev
	ldr	r0, [r0]
	.loc	1 728 89 is_stmt 0              @ rt-thread/components/drivers/spi/spi_flash_sfud.c:728:89
	ldr	r1, [r0]
	.loc	1 728 95                        @ rt-thread/components/drivers/spi/spi_flash_sfud.c:728:95
	ldr	r2, [sp, #64]
	.loc	1 728 21                        @ rt-thread/components/drivers/spi/spi_flash_sfud.c:728:21
	movw	r0, :lower16:.L.str.62
	movt	r0, :upper16:.L.str.62
	bl	rt_kprintf
	.loc	1 729 34 is_stmt 1              @ rt-thread/components/drivers/spi/spi_flash_sfud.c:729:34
	bl	rt_tick_get
	.loc	1 729 32 is_stmt 0              @ rt-thread/components/drivers/spi/spi_flash_sfud.c:729:32
	str	r0, [sp, #44]
	movs	r0, #0
.Ltmp371:
	.loc	1 730 28 is_stmt 1              @ rt-thread/components/drivers/spi/spi_flash_sfud.c:730:28
	str	r0, [sp, #104]
	.loc	1 730 26 is_stmt 0              @ rt-thread/components/drivers/spi/spi_flash_sfud.c:730:26
	b	.LBB13_114
.LBB13_114:                             @ =>This Inner Loop Header: Depth=1
.Ltmp372:
	.loc	1 730 33                        @ rt-thread/components/drivers/spi/spi_flash_sfud.c:730:33
	ldr	r0, [sp, #104]
	.loc	1 730 37                        @ rt-thread/components/drivers/spi/spi_flash_sfud.c:730:37
	ldr	r1, [sp, #64]
.Ltmp373:
	.loc	1 730 21                        @ rt-thread/components/drivers/spi/spi_flash_sfud.c:730:21
	cmp	r0, r1
	bhs	.LBB13_124
	b	.LBB13_115
.LBB13_115:                             @   in Loop: Header=BB13_114 Depth=1
.Ltmp374:
	.loc	1 731 29 is_stmt 1              @ rt-thread/components/drivers/spi/spi_flash_sfud.c:731:29
	ldr	r0, [sp, #104]
	.loc	1 731 33 is_stmt 0              @ rt-thread/components/drivers/spi/spi_flash_sfud.c:731:33
	ldr	r1, [sp, #32]
	.loc	1 731 31                        @ rt-thread/components/drivers/spi/spi_flash_sfud.c:731:31
	add	r0, r1
	.loc	1 731 46                        @ rt-thread/components/drivers/spi/spi_flash_sfud.c:731:46
	ldr	r1, [sp, #64]
.Ltmp375:
	.loc	1 731 29                        @ rt-thread/components/drivers/spi/spi_flash_sfud.c:731:29
	cmp	r0, r1
	bhi	.LBB13_117
	b	.LBB13_116
.LBB13_116:                             @   in Loop: Header=BB13_114 Depth=1
.Ltmp376:
	.loc	1 732 43 is_stmt 1              @ rt-thread/components/drivers/spi/spi_flash_sfud.c:732:43
	ldr	r0, [sp, #32]
	.loc	1 732 41 is_stmt 0              @ rt-thread/components/drivers/spi/spi_flash_sfud.c:732:41
	str	r0, [sp, #28]
	.loc	1 733 25 is_stmt 1              @ rt-thread/components/drivers/spi/spi_flash_sfud.c:733:25
	b	.LBB13_118
.Ltmp377:
.LBB13_117:                             @   in Loop: Header=BB13_114 Depth=1
	.loc	1 734 43                        @ rt-thread/components/drivers/spi/spi_flash_sfud.c:734:43
	ldr	r0, [sp, #64]
	.loc	1 734 50 is_stmt 0              @ rt-thread/components/drivers/spi/spi_flash_sfud.c:734:50
	ldr	r1, [sp, #104]
	.loc	1 734 48                        @ rt-thread/components/drivers/spi/spi_flash_sfud.c:734:48
	subs	r0, r0, r1
	.loc	1 734 41                        @ rt-thread/components/drivers/spi/spi_flash_sfud.c:734:41
	str	r0, [sp, #28]
	b	.LBB13_118
.Ltmp378:
.LBB13_118:                             @   in Loop: Header=BB13_114 Depth=1
	.loc	1 736 44 is_stmt 1              @ rt-thread/components/drivers/spi/spi_flash_sfud.c:736:44
	movw	r0, :lower16:sf.sfud_dev
	movt	r0, :upper16:sf.sfud_dev
	ldr	r0, [r0]
	.loc	1 736 54 is_stmt 0              @ rt-thread/components/drivers/spi/spi_flash_sfud.c:736:54
	ldr	r1, [sp, #68]
	.loc	1 736 61                        @ rt-thread/components/drivers/spi/spi_flash_sfud.c:736:61
	ldr	r2, [sp, #104]
	.loc	1 736 59                        @ rt-thread/components/drivers/spi/spi_flash_sfud.c:736:59
	add	r1, r2
	.loc	1 736 64                        @ rt-thread/components/drivers/spi/spi_flash_sfud.c:736:64
	ldr	r2, [sp, #28]
	.loc	1 736 77                        @ rt-thread/components/drivers/spi/spi_flash_sfud.c:736:77
	ldr	r3, [sp, #20]
	.loc	1 736 34                        @ rt-thread/components/drivers/spi/spi_flash_sfud.c:736:34
	bl	sfud_read
	.loc	1 736 32                        @ rt-thread/components/drivers/spi/spi_flash_sfud.c:736:32
	strb.w	r0, [sp, #111]
.Ltmp379:
	.loc	1 738 36 is_stmt 1              @ rt-thread/components/drivers/spi/spi_flash_sfud.c:738:36
	ldr	r0, [sp, #24]
	.loc	1 738 48 is_stmt 0              @ rt-thread/components/drivers/spi/spi_flash_sfud.c:738:48
	ldr	r1, [sp, #20]
	.loc	1 738 59                        @ rt-thread/components/drivers/spi/spi_flash_sfud.c:738:59
	ldr	r2, [sp, #28]
	.loc	1 738 29                        @ rt-thread/components/drivers/spi/spi_flash_sfud.c:738:29
	bl	memcmp
.Ltmp380:
	.loc	1 738 29                        @ rt-thread/components/drivers/spi/spi_flash_sfud.c:738:29
	cbz	r0, .LBB13_120
	b	.LBB13_119
.LBB13_119:                             @   in Loop: Header=BB13_114 Depth=1
.Ltmp381:
	.loc	1 740 29 is_stmt 1              @ rt-thread/components/drivers/spi/spi_flash_sfud.c:740:29
	movw	r0, :lower16:.L.str.63
	movt	r0, :upper16:.L.str.63
	bl	rt_kprintf
	movs	r0, #3
	.loc	1 741 36                        @ rt-thread/components/drivers/spi/spi_flash_sfud.c:741:36
	strb.w	r0, [sp, #111]
	.loc	1 742 25                        @ rt-thread/components/drivers/spi/spi_flash_sfud.c:742:25
	b	.LBB13_120
.Ltmp382:
.LBB13_120:                             @   in Loop: Header=BB13_114 Depth=1
	.loc	1 744 29                        @ rt-thread/components/drivers/spi/spi_flash_sfud.c:744:29
	ldrb.w	r0, [sp, #111]
.Ltmp383:
	.loc	1 744 29 is_stmt 0              @ rt-thread/components/drivers/spi/spi_flash_sfud.c:744:29
	cbz	r0, .LBB13_122
	b	.LBB13_121
.LBB13_121:
.Ltmp384:
	.loc	1 745 105 is_stmt 1             @ rt-thread/components/drivers/spi/spi_flash_sfud.c:745:105
	movw	r0, :lower16:sf.sfud_dev
	movt	r0, :upper16:sf.sfud_dev
	ldr	r0, [r0]
	.loc	1 745 115 is_stmt 0             @ rt-thread/components/drivers/spi/spi_flash_sfud.c:745:115
	ldr	r1, [r0]
	.loc	1 745 121                       @ rt-thread/components/drivers/spi/spi_flash_sfud.c:745:121
	ldr	r2, [sp, #104]
	.loc	1 745 124                       @ rt-thread/components/drivers/spi/spi_flash_sfud.c:745:124
	ldr	r3, [sp, #32]
	.loc	1 745 29                        @ rt-thread/components/drivers/spi/spi_flash_sfud.c:745:29
	movw	r0, :lower16:.L.str.64
	movt	r0, :upper16:.L.str.64
	bl	rt_kprintf
	.loc	1 746 29 is_stmt 1              @ rt-thread/components/drivers/spi/spi_flash_sfud.c:746:29
	b	.LBB13_124
.Ltmp385:
.LBB13_122:                             @   in Loop: Header=BB13_114 Depth=1
	.loc	1 748 21                        @ rt-thread/components/drivers/spi/spi_flash_sfud.c:748:21
	b	.LBB13_123
.Ltmp386:
.LBB13_123:                             @   in Loop: Header=BB13_114 Depth=1
	.loc	1 730 48                        @ rt-thread/components/drivers/spi/spi_flash_sfud.c:730:48
	ldr	r1, [sp, #32]
	.loc	1 730 45 is_stmt 0              @ rt-thread/components/drivers/spi/spi_flash_sfud.c:730:45
	ldr	r0, [sp, #104]
	add	r0, r1
	str	r0, [sp, #104]
	.loc	1 730 21                        @ rt-thread/components/drivers/spi/spi_flash_sfud.c:730:21
	b	.LBB13_114
.Ltmp387:
.LBB13_124:
	.loc	1 749 25 is_stmt 1              @ rt-thread/components/drivers/spi/spi_flash_sfud.c:749:25
	ldrb.w	r0, [sp, #111]
.Ltmp388:
	.loc	1 749 25 is_stmt 0              @ rt-thread/components/drivers/spi/spi_flash_sfud.c:749:25
	cbnz	r0, .LBB13_126
	b	.LBB13_125
.LBB13_125:
.Ltmp389:
	.loc	1 750 37 is_stmt 1              @ rt-thread/components/drivers/spi/spi_flash_sfud.c:750:37
	bl	rt_tick_get
	.loc	1 750 53 is_stmt 0              @ rt-thread/components/drivers/spi/spi_flash_sfud.c:750:53
	ldr	r1, [sp, #44]
	.loc	1 750 51                        @ rt-thread/components/drivers/spi/spi_flash_sfud.c:750:51
	subs	r0, r0, r1
	.loc	1 750 35                        @ rt-thread/components/drivers/spi/spi_flash_sfud.c:750:35
	str	r0, [sp, #40]
	.loc	1 751 87 is_stmt 1              @ rt-thread/components/drivers/spi/spi_flash_sfud.c:751:87
	ldr	r2, [sp, #40]
	movw	r0, #19923
	movt	r0, #4194
	.loc	1 752 43                        @ rt-thread/components/drivers/spi/spi_flash_sfud.c:752:43
	umull	r1, r0, r2, r0
	lsrs	r1, r0, #6
	mov.w	r0, #1000
	mls	r2, r1, r0, r2
	.loc	1 751 25                        @ rt-thread/components/drivers/spi/spi_flash_sfud.c:751:25
	movw	r0, :lower16:.L.str.65
	movt	r0, :upper16:.L.str.65
	bl	rt_kprintf
	.loc	1 753 21                        @ rt-thread/components/drivers/spi/spi_flash_sfud.c:753:21
	b	.LBB13_127
.Ltmp390:
.LBB13_126:
	.loc	1 754 86                        @ rt-thread/components/drivers/spi/spi_flash_sfud.c:754:86
	ldrb.w	r1, [sp, #111]
	.loc	1 754 25 is_stmt 0              @ rt-thread/components/drivers/spi/spi_flash_sfud.c:754:25
	movw	r0, :lower16:.L.str.66
	movt	r0, :upper16:.L.str.66
	bl	rt_kprintf
	b	.LBB13_127
.Ltmp391:
.LBB13_127:
	.loc	1 756 17 is_stmt 1              @ rt-thread/components/drivers/spi/spi_flash_sfud.c:756:17
	b	.LBB13_129
.Ltmp392:
.LBB13_128:
	.loc	1 757 21                        @ rt-thread/components/drivers/spi/spi_flash_sfud.c:757:21
	movw	r0, :lower16:.L.str.41
	movt	r0, :upper16:.L.str.41
	bl	rt_kprintf
	b	.LBB13_129
.Ltmp393:
.LBB13_129:
	.loc	1 759 25                        @ rt-thread/components/drivers/spi/spi_flash_sfud.c:759:25
	ldr	r0, [sp, #24]
	.loc	1 759 17 is_stmt 0              @ rt-thread/components/drivers/spi/spi_flash_sfud.c:759:17
	bl	rt_free
	.loc	1 760 25 is_stmt 1              @ rt-thread/components/drivers/spi/spi_flash_sfud.c:760:25
	ldr	r0, [sp, #20]
	.loc	1 760 17 is_stmt 0              @ rt-thread/components/drivers/spi/spi_flash_sfud.c:760:17
	bl	rt_free
	.loc	1 761 13 is_stmt 1              @ rt-thread/components/drivers/spi/spi_flash_sfud.c:761:13
	b	.LBB13_135
.Ltmp394:
.LBB13_130:
	.loc	1 762 17                        @ rt-thread/components/drivers/spi/spi_flash_sfud.c:762:17
	movw	r0, :lower16:.L.str.26
	movt	r0, :upper16:.L.str.26
	bl	rt_kprintf
	movs	r0, #0
.Ltmp395:
	.loc	1 763 24                        @ rt-thread/components/drivers/spi/spi_flash_sfud.c:763:24
	str	r0, [sp, #104]
	.loc	1 763 22 is_stmt 0              @ rt-thread/components/drivers/spi/spi_flash_sfud.c:763:22
	b	.LBB13_131
.LBB13_131:                             @ =>This Inner Loop Header: Depth=1
.Ltmp396:
	.loc	1 763 29                        @ rt-thread/components/drivers/spi/spi_flash_sfud.c:763:29
	ldr	r0, [sp, #104]
.Ltmp397:
	.loc	1 763 17                        @ rt-thread/components/drivers/spi/spi_flash_sfud.c:763:17
	cmp	r0, #5
	bhi	.LBB13_134
	b	.LBB13_132
.LBB13_132:                             @   in Loop: Header=BB13_131 Depth=1
.Ltmp398:
	.loc	1 764 53 is_stmt 1              @ rt-thread/components/drivers/spi/spi_flash_sfud.c:764:53
	ldr	r1, [sp, #104]
	add	r0, sp, #76
	.loc	1 764 40 is_stmt 0              @ rt-thread/components/drivers/spi/spi_flash_sfud.c:764:40
	ldr.w	r1, [r0, r1, lsl #2]
	.loc	1 764 21                        @ rt-thread/components/drivers/spi/spi_flash_sfud.c:764:21
	movw	r0, :lower16:.L.str.27
	movt	r0, :upper16:.L.str.27
	bl	rt_kprintf
	.loc	1 765 17 is_stmt 1              @ rt-thread/components/drivers/spi/spi_flash_sfud.c:765:17
	b	.LBB13_133
.Ltmp399:
.LBB13_133:                             @   in Loop: Header=BB13_131 Depth=1
	.loc	1 763 72                        @ rt-thread/components/drivers/spi/spi_flash_sfud.c:763:72
	ldr	r0, [sp, #104]
	adds	r0, #1
	str	r0, [sp, #104]
	.loc	1 763 17 is_stmt 0              @ rt-thread/components/drivers/spi/spi_flash_sfud.c:763:17
	b	.LBB13_131
.Ltmp400:
.LBB13_134:
	.loc	1 766 17 is_stmt 1              @ rt-thread/components/drivers/spi/spi_flash_sfud.c:766:17
	movw	r0, :lower16:.L.str.5
	movt	r0, :upper16:.L.str.5
	bl	rt_kprintf
	.loc	1 767 17                        @ rt-thread/components/drivers/spi/spi_flash_sfud.c:767:17
	b	.LBB13_143
.Ltmp401:
.LBB13_135:
	.loc	1 0 17 is_stmt 0                @ rt-thread/components/drivers/spi/spi_flash_sfud.c:0:17
	b	.LBB13_136
.LBB13_136:
	b	.LBB13_137
.LBB13_137:
	b	.LBB13_138
.LBB13_138:
	b	.LBB13_139
.LBB13_139:
.Ltmp402:
	.loc	1 769 17 is_stmt 1              @ rt-thread/components/drivers/spi/spi_flash_sfud.c:769:17
	ldrb.w	r0, [sp, #111]
.Ltmp403:
	.loc	1 769 17 is_stmt 0              @ rt-thread/components/drivers/spi/spi_flash_sfud.c:769:17
	cbz	r0, .LBB13_141
	b	.LBB13_140
.LBB13_140:
.Ltmp404:
	.loc	1 770 82 is_stmt 1              @ rt-thread/components/drivers/spi/spi_flash_sfud.c:770:82
	ldrb.w	r1, [sp, #111]
	.loc	1 770 17 is_stmt 0              @ rt-thread/components/drivers/spi/spi_flash_sfud.c:770:17
	movw	r0, :lower16:.L.str.67
	movt	r0, :upper16:.L.str.67
	bl	rt_kprintf
	.loc	1 771 13 is_stmt 1              @ rt-thread/components/drivers/spi/spi_flash_sfud.c:771:13
	b	.LBB13_141
.Ltmp405:
.LBB13_141:
	.loc	1 0 13 is_stmt 0                @ rt-thread/components/drivers/spi/spi_flash_sfud.c:0:13
	b	.LBB13_142
.LBB13_142:
	b	.LBB13_143
.LBB13_143:
	.loc	1 774 1 is_stmt 1               @ rt-thread/components/drivers/spi/spi_flash_sfud.c:774:1
	add	sp, #120
	pop	{r7, pc}
.Ltmp406:
.Lfunc_end13:
	.size	sf, .Lfunc_end13-sf
	.cfi_endproc
	.cantunwind
	.fnend
                                        @ -- End function
	.section	.text.rt_spi_send,"ax",%progbits
	.p2align	3                               @ -- Begin function rt_spi_send
	.type	rt_spi_send,%function
	.code	16                              @ @rt_spi_send
	.thumb_func
rt_spi_send:
.Lfunc_begin14:
	.loc	9 267 0                         @ rt-thread/components/drivers/include/drivers/spi.h:267:0
	.fnstart
	.cfi_startproc
@ %bb.0:
	.save	{r7, lr}
	push	{r7, lr}
	.cfi_def_cfa_offset 8
	.cfi_offset lr, -4
	.cfi_offset r7, -8
	.pad	#16
	sub	sp, #16
	.cfi_def_cfa_offset 24
	str	r0, [sp, #12]
	str	r1, [sp, #8]
	str	r2, [sp, #4]
.Ltmp407:
	.loc	9 268 28 prologue_end           @ rt-thread/components/drivers/include/drivers/spi.h:268:28
	ldr	r0, [sp, #12]
	.loc	9 268 36 is_stmt 0              @ rt-thread/components/drivers/include/drivers/spi.h:268:36
	ldr	r1, [sp, #8]
	.loc	9 268 55                        @ rt-thread/components/drivers/include/drivers/spi.h:268:55
	ldr	r3, [sp, #4]
	movs	r2, #0
	.loc	9 268 12                        @ rt-thread/components/drivers/include/drivers/spi.h:268:12
	bl	rt_spi_transfer
	.loc	9 268 5                         @ rt-thread/components/drivers/include/drivers/spi.h:268:5
	add	sp, #16
	pop	{r7, pc}
.Ltmp408:
.Lfunc_end14:
	.size	rt_spi_send, .Lfunc_end14-rt_spi_send
	.cfi_endproc
	.cantunwind
	.fnend
                                        @ -- End function
	.section	.text.rt_spi_recv,"ax",%progbits
	.p2align	3                               @ -- Begin function rt_spi_recv
	.type	rt_spi_recv,%function
	.code	16                              @ @rt_spi_recv
	.thumb_func
rt_spi_recv:
.Lfunc_begin15:
	.loc	9 260 0 is_stmt 1               @ rt-thread/components/drivers/include/drivers/spi.h:260:0
	.fnstart
	.cfi_startproc
@ %bb.0:
	.save	{r7, lr}
	push	{r7, lr}
	.cfi_def_cfa_offset 8
	.cfi_offset lr, -4
	.cfi_offset r7, -8
	.pad	#16
	sub	sp, #16
	.cfi_def_cfa_offset 24
	str	r0, [sp, #12]
	str	r1, [sp, #8]
	str	r2, [sp, #4]
.Ltmp409:
	.loc	9 261 28 prologue_end           @ rt-thread/components/drivers/include/drivers/spi.h:261:28
	ldr	r0, [sp, #12]
	.loc	9 261 45 is_stmt 0              @ rt-thread/components/drivers/include/drivers/spi.h:261:45
	ldr	r2, [sp, #8]
	.loc	9 261 55                        @ rt-thread/components/drivers/include/drivers/spi.h:261:55
	ldr	r3, [sp, #4]
	movs	r1, #0
	.loc	9 261 12                        @ rt-thread/components/drivers/include/drivers/spi.h:261:12
	bl	rt_spi_transfer
	.loc	9 261 5                         @ rt-thread/components/drivers/include/drivers/spi.h:261:5
	add	sp, #16
	pop	{r7, pc}
.Ltmp410:
.Lfunc_end15:
	.size	rt_spi_recv, .Lfunc_end15-rt_spi_recv
	.cfi_endproc
	.cantunwind
	.fnend
                                        @ -- End function
	.type	.L.str,%object                  @ @.str
	.section	.rodata.str1.1,"aMS",%progbits,1
.L.str:
	.asciz	"flash"
	.size	.L.str, 6

	.type	.L__FUNCTION__.sfud_spi_port_init,%object @ @__FUNCTION__.sfud_spi_port_init
.L__FUNCTION__.sfud_spi_port_init:
	.asciz	"sfud_spi_port_init"
	.size	.L__FUNCTION__.sfud_spi_port_init, 19

	.type	.L.str.1,%object                @ @.str.1
.L.str.1:
	.asciz	"spi_flash_dev_name"
	.size	.L.str.1, 19

	.type	.L__FUNCTION__.rt_sfud_flash_probe_ex,%object @ @__FUNCTION__.rt_sfud_flash_probe_ex
.L__FUNCTION__.rt_sfud_flash_probe_ex:
	.asciz	"rt_sfud_flash_probe_ex"
	.size	.L__FUNCTION__.rt_sfud_flash_probe_ex, 23

	.type	.L.str.2,%object                @ @.str.2
.L.str.2:
	.asciz	"spi_dev_name"
	.size	.L.str.2, 13

	.type	.L.str.3,%object                @ @.str.3
.L.str.3:
	.asciz	"[E/SFUD] "
	.size	.L.str.3, 10

	.type	.L.str.4,%object                @ @.str.4
.L.str.4:
	.asciz	"ERROR: SPI device %s not found!"
	.size	.L.str.4, 32

	.type	.L.str.5,%object                @ @.str.5
.L.str.5:
	.asciz	"\n"
	.size	.L.str.5, 2

	.type	.L.str.6,%object                @ @.str.6
.L.str.6:
	.asciz	"ERROR: SPI flash probe failed by SPI device %s."
	.size	.L.str.6, 48

	.type	.L.str.7,%object                @ @.str.7
.L.str.7:
	.asciz	"[I/SFUD] "
	.size	.L.str.7, 10

	.type	.L.str.8,%object                @ @.str.8
.L.str.8:
	.asciz	"Probe SPI flash %s by SPI device %s success."
	.size	.L.str.8, 45

	.type	.L.str.9,%object                @ @.str.9
.L.str.9:
	.asciz	"ERROR: Low memory."
	.size	.L.str.9, 19

	.type	.L__const.rt_sfud_flash_probe.cfg,%object @ @__const.rt_sfud_flash_probe.cfg
	.section	.rodata.cst8,"aM",%progbits,8
	.p2align	2
.L__const.rt_sfud_flash_probe.cfg:
	.byte	4                               @ 0x4
	.byte	8                               @ 0x8
	.short	0                               @ 0x0
	.long	50000000                        @ 0x2faf080
	.size	.L__const.rt_sfud_flash_probe.cfg, 8

	.type	.L.str.10,%object               @ @.str.10
	.section	.rodata.str1.1,"aMS",%progbits,1
.L.str.10:
	.asciz	"spi_flash_dev"
	.size	.L.str.10, 14

	.type	.L__FUNCTION__.rt_sfud_flash_delete,%object @ @__FUNCTION__.rt_sfud_flash_delete
.L__FUNCTION__.rt_sfud_flash_delete:
	.asciz	"rt_sfud_flash_delete"
	.size	.L__FUNCTION__.rt_sfud_flash_delete, 21

	.type	.L.str.11,%object               @ @.str.11
.L.str.11:
	.asciz	"sfud_flash_dev"
	.size	.L.str.11, 15

	.type	.L.str.12,%object               @ @.str.12
.L.str.12:
	.asciz	"ERROR: SFUD flash device not found!"
	.size	.L.str.12, 36

	.type	.L.str.13,%object               @ @.str.13
.L.str.13:
	.asciz	"ERROR: Flash device %s not found!"
	.size	.L.str.13, 34

	.hidden	__fsym___cmd_sf_name            @ @__fsym___cmd_sf_name
	.type	__fsym___cmd_sf_name,%object
	.section	.rodata.name,"a",%progbits
	.globl	__fsym___cmd_sf_name
__fsym___cmd_sf_name:
	.asciz	"__cmd_sf"
	.size	__fsym___cmd_sf_name, 9

	.hidden	__fsym___cmd_sf_desc            @ @__fsym___cmd_sf_desc
	.type	__fsym___cmd_sf_desc,%object
	.globl	__fsym___cmd_sf_desc
__fsym___cmd_sf_desc:
	.asciz	"SPI Flash operate."
	.size	__fsym___cmd_sf_desc, 19

	.hidden	__fsym___cmd_sf                 @ @__fsym___cmd_sf
	.type	__fsym___cmd_sf,%object
	.section	FSymTab,"a",%progbits
	.globl	__fsym___cmd_sf
	.p2align	2
__fsym___cmd_sf:
__tagsym$$used.0:
	.long	__fsym___cmd_sf_name
	.long	__fsym___cmd_sf_desc
	.long	sf
	.size	__fsym___cmd_sf, 12

	.type	.L.str.14,%object               @ @.str.14
	.section	.rodata.str1.1,"aMS",%progbits,1
.L.str.14:
	.asciz	"spi"
	.size	.L.str.14, 4

	.type	.L__FUNCTION__.spi_write_read,%object @ @__FUNCTION__.spi_write_read
.L__FUNCTION__.spi_write_read:
	.asciz	"spi_write_read"
	.size	.L__FUNCTION__.spi_write_read, 15

	.type	.L.str.15,%object               @ @.str.15
.L.str.15:
	.asciz	"sfud_dev"
	.size	.L.str.15, 9

	.type	.L.str.16,%object               @ @.str.16
.L.str.16:
	.asciz	"rtt_dev"
	.size	.L.str.16, 8

	.type	.L.str.17,%object               @ @.str.17
.L.str.17:
	.asciz	"write_buf"
	.size	.L.str.17, 10

	.type	.L.str.18,%object               @ @.str.18
.L.str.18:
	.asciz	"read_buf"
	.size	.L.str.18, 9

	.type	.L__FUNCTION__.spi_lock,%object @ @__FUNCTION__.spi_lock
.L__FUNCTION__.spi_lock:
	.asciz	"spi_lock"
	.size	.L__FUNCTION__.spi_lock, 9

	.type	.L__FUNCTION__.spi_unlock,%object @ @__FUNCTION__.spi_unlock
.L__FUNCTION__.spi_unlock:
	.asciz	"spi_unlock"
	.size	.L__FUNCTION__.spi_unlock, 11

	.type	.L.str.19,%object               @ @.str.19
.L.str.19:
	.asciz	"dev"
	.size	.L.str.19, 4

	.type	.L__FUNCTION__.rt_sfud_read,%object @ @__FUNCTION__.rt_sfud_read
.L__FUNCTION__.rt_sfud_read:
	.asciz	"rt_sfud_read"
	.size	.L__FUNCTION__.rt_sfud_read, 13

	.type	.L__FUNCTION__.rt_sfud_write,%object @ @__FUNCTION__.rt_sfud_write
.L__FUNCTION__.rt_sfud_write:
	.asciz	"rt_sfud_write"
	.size	.L__FUNCTION__.rt_sfud_write, 14

	.type	.L__FUNCTION__.rt_sfud_control,%object @ @__FUNCTION__.rt_sfud_control
.L__FUNCTION__.rt_sfud_control:
	.asciz	"rt_sfud_control"
	.size	.L__FUNCTION__.rt_sfud_control, 16

	.type	sf.sfud_dev,%object             @ @sf.sfud_dev
	.section	.bss.sf.sfud_dev,"aw",%nobits
	.p2align	2
sf.sfud_dev:
	.long	0
	.size	sf.sfud_dev, 4

	.type	sf.rtt_dev,%object              @ @sf.rtt_dev
	.section	.bss.sf.rtt_dev,"aw",%nobits
	.p2align	2
sf.rtt_dev:
	.long	0
	.size	sf.rtt_dev, 4

	.type	sf.rtt_dev_bak,%object          @ @sf.rtt_dev_bak
	.section	.bss.sf.rtt_dev_bak,"aw",%nobits
	.p2align	2
sf.rtt_dev_bak:
	.long	0
	.size	sf.rtt_dev_bak, 4

	.type	.L.str.20,%object               @ @.str.20
	.section	.rodata.str1.1,"aMS",%progbits,1
.L.str.20:
	.asciz	"sf probe [spi_device]           - probe and init SPI flash by given 'spi_device'"
	.size	.L.str.20, 81

	.type	.L.str.21,%object               @ @.str.21
.L.str.21:
	.asciz	"sf read addr size               - read 'size' bytes starting at 'addr'"
	.size	.L.str.21, 71

	.type	.L.str.22,%object               @ @.str.22
.L.str.22:
	.asciz	"sf write addr data1 ... dataN   - write some bytes 'data' to flash starting at 'addr'"
	.size	.L.str.22, 86

	.type	.L.str.23,%object               @ @.str.23
.L.str.23:
	.asciz	"sf erase addr size              - erase 'size' bytes starting at 'addr'"
	.size	.L.str.23, 72

	.type	.L.str.24,%object               @ @.str.24
.L.str.24:
	.asciz	"sf status [<volatile> <status>] - read or write '1:volatile|0:non-volatile' 'status'"
	.size	.L.str.24, 85

	.type	.L.str.25,%object               @ @.str.25
.L.str.25:
	.asciz	"sf bench                        - full chip benchmark. DANGER: It will erase full chip!"
	.size	.L.str.25, 88

	.type	.L__const.sf.sf_help_info,%object @ @__const.sf.sf_help_info
	.section	.rodata..L__const.sf.sf_help_info,"a",%progbits
	.p2align	2
.L__const.sf.sf_help_info:
	.long	.L.str.20
	.long	.L.str.21
	.long	.L.str.22
	.long	.L.str.23
	.long	.L.str.24
	.long	.L.str.25
	.size	.L__const.sf.sf_help_info, 24

	.type	.L.str.26,%object               @ @.str.26
	.section	.rodata.str1.1,"aMS",%progbits,1
.L.str.26:
	.asciz	"Usage:\n"
	.size	.L.str.26, 8

	.type	.L.str.27,%object               @ @.str.27
.L.str.27:
	.asciz	"%s\n"
	.size	.L.str.27, 4

	.type	.L.str.28,%object               @ @.str.28
.L.str.28:
	.asciz	"probe"
	.size	.L.str.28, 6

	.type	.L.str.29,%object               @ @.str.29
.L.str.29:
	.asciz	"Usage: %s.\n"
	.size	.L.str.29, 12

	.type	.L.str.30,%object               @ @.str.30
.L.str.30:
	.asciz	"sf_cmd"
	.size	.L.str.30, 7

	.type	.L.str.31,%object               @ @.str.31
.L.str.31:
	.asciz	"%d KB %s is current selected device.\n"
	.size	.L.str.31, 38

	.type	.L.str.32,%object               @ @.str.32
.L.str.32:
	.asciz	"%d MB %s is current selected device.\n"
	.size	.L.str.32, 38

	.type	.L.str.33,%object               @ @.str.33
.L.str.33:
	.asciz	"No flash device selected. Please run 'sf probe'.\n"
	.size	.L.str.33, 50

	.type	.L.str.34,%object               @ @.str.34
.L.str.34:
	.asciz	"read"
	.size	.L.str.34, 5

	.type	.L.str.35,%object               @ @.str.35
.L.str.35:
	.asciz	"Read the %s flash data success. Start from 0x%08X, size is %ld. The data is:\n"
	.size	.L.str.35, 78

	.type	.L.str.36,%object               @ @.str.36
.L.str.36:
	.asciz	"Offset (h) 00 01 02 03 04 05 06 07 08 09 0A 0B 0C 0D 0E 0F\n"
	.size	.L.str.36, 60

	.type	.L.str.37,%object               @ @.str.37
.L.str.37:
	.asciz	"[%08X] "
	.size	.L.str.37, 8

	.type	.L.str.38,%object               @ @.str.38
.L.str.38:
	.asciz	"%02X "
	.size	.L.str.38, 6

	.type	.L.str.39,%object               @ @.str.39
.L.str.39:
	.asciz	"   "
	.size	.L.str.39, 4

	.type	.L.str.40,%object               @ @.str.40
.L.str.40:
	.asciz	"%c"
	.size	.L.str.40, 3

	.type	.L.str.41,%object               @ @.str.41
.L.str.41:
	.asciz	"Low memory!\n"
	.size	.L.str.41, 13

	.type	.L.str.42,%object               @ @.str.42
.L.str.42:
	.asciz	"write"
	.size	.L.str.42, 6

	.type	.L.str.43,%object               @ @.str.43
.L.str.43:
	.asciz	"Write the %s flash data success. Start from 0x%08X, size is %ld.\n"
	.size	.L.str.43, 66

	.type	.L.str.44,%object               @ @.str.44
.L.str.44:
	.asciz	"Write data: "
	.size	.L.str.44, 13

	.type	.L.str.45,%object               @ @.str.45
.L.str.45:
	.asciz	"%d "
	.size	.L.str.45, 4

	.type	.L.str.46,%object               @ @.str.46
.L.str.46:
	.asciz	".\n"
	.size	.L.str.46, 3

	.type	.L.str.47,%object               @ @.str.47
.L.str.47:
	.asciz	"erase"
	.size	.L.str.47, 6

	.type	.L.str.48,%object               @ @.str.48
.L.str.48:
	.asciz	"Erase the %s flash data success. Start from 0x%08X, size is %ld.\n"
	.size	.L.str.48, 66

	.type	.L.str.49,%object               @ @.str.49
.L.str.49:
	.asciz	"status"
	.size	.L.str.49, 7

	.type	.L.str.50,%object               @ @.str.50
.L.str.50:
	.asciz	"The %s flash status register current value is 0x%02X.\n"
	.size	.L.str.50, 55

	.type	.L.str.51,%object               @ @.str.51
.L.str.51:
	.asciz	"Write the %s flash status register to 0x%02X success.\n"
	.size	.L.str.51, 55

	.type	.L.str.52,%object               @ @.str.52
.L.str.52:
	.asciz	"bench"
	.size	.L.str.52, 6

	.type	.L.str.53,%object               @ @.str.53
.L.str.53:
	.asciz	"yes"
	.size	.L.str.53, 4

	.type	.L.str.54,%object               @ @.str.54
.L.str.54:
	.asciz	"DANGER: It will erase full chip! Please run 'sf bench yes'.\n"
	.size	.L.str.54, 61

	.type	.L.str.55,%object               @ @.str.55
.L.str.55:
	.asciz	"Erasing the %s %ld bytes data, waiting...\n"
	.size	.L.str.55, 43

	.type	.L.str.56,%object               @ @.str.56
.L.str.56:
	.asciz	"Erase benchmark success, total time: %d.%03dS.\n"
	.size	.L.str.56, 48

	.type	.L.str.57,%object               @ @.str.57
.L.str.57:
	.asciz	"Erase benchmark has an error. Error code: %d.\n"
	.size	.L.str.57, 47

	.type	.L.str.58,%object               @ @.str.58
.L.str.58:
	.asciz	"Writing the %s %ld bytes data, waiting...\n"
	.size	.L.str.58, 43

	.type	.L.str.59,%object               @ @.str.59
.L.str.59:
	.asciz	"Writing %s failed, already wr for %lu bytes, write %d each time\n"
	.size	.L.str.59, 65

	.type	.L.str.60,%object               @ @.str.60
.L.str.60:
	.asciz	"Write benchmark success, total time: %d.%03dS.\n"
	.size	.L.str.60, 48

	.type	.L.str.61,%object               @ @.str.61
.L.str.61:
	.asciz	"Write benchmark has an error. Error code: %d.\n"
	.size	.L.str.61, 47

	.type	.L.str.62,%object               @ @.str.62
.L.str.62:
	.asciz	"Reading the %s %ld bytes data, waiting...\n"
	.size	.L.str.62, 43

	.type	.L.str.63,%object               @ @.str.63
.L.str.63:
	.asciz	"Data check ERROR! Please check you flash by other command.\n"
	.size	.L.str.63, 60

	.type	.L.str.64,%object               @ @.str.64
.L.str.64:
	.asciz	"Read %s failed, already rd for %lu bytes, read %d each time\n"
	.size	.L.str.64, 61

	.type	.L.str.65,%object               @ @.str.65
.L.str.65:
	.asciz	"Read benchmark success, total time: %d.%03dS.\n"
	.size	.L.str.65, 47

	.type	.L.str.66,%object               @ @.str.66
.L.str.66:
	.asciz	"Read benchmark has an error. Error code: %d.\n"
	.size	.L.str.66, 46

	.type	.L.str.67,%object               @ @.str.67
.L.str.67:
	.asciz	"This flash operate has an error. Error code: %d.\n"
	.size	.L.str.67, 50

	.globl	__fsym___cmd_sf
	.section	".note.GNU-stack","",%progbits
	.eabi_attribute	30, 6	@ Tag_ABI_optimization_goals
	.ARM_attribute	16, 1	@ Tag_AV_eba