	.text
	.syntax unified
	.eabi_attribute	67, "2.09"	@ Tag_conformance
	.cpu	cortex-m7
	.eabi_attribute	6, 13	@ Tag_CPU_arch
	.eabi_attribute	7, 77	@ Tag_CPU_arch_profile
	.eabi_attribute	8, 0	@ Tag_ARM_ISA_use
	.eabi_attribute	9, 2	@ Tag_THUMB_ISA_use
	.fpu	fpv5-d16
	.eabi_attribute	36, 1	@ Tag_FP_HP_extension
	.eabi_attribute	34, 1	@ Tag_CPU_unaligned_access
	.eabi_attribute	17, 1	@ Tag_ABI_PCS_GOT_use
	.eabi_attribute	20, 2	@ Tag_ABI_FP_denormal
	.eabi_attribute	21, 0	@ Tag_ABI_FP_exceptions
	.eabi_attribute	23, 1	@ Tag_ABI_FP_number_model
	.eabi_attribute	24, 1	@ Tag_ABI_align_needed
	.eabi_attribute	25, 1	@ Tag_ABI_align_preserved
	.eabi_attribute	28, 1	@ Tag_ABI_VFP_args
	.eabi_attribute	38, 1	@ Tag_ABI_FP_16bit_format
	.eabi_attribute	18, 2	@ Tag_ABI_PCS_wchar_t
	.eabi_attribute	26, 1	@ Tag_ABI_enum_size
	.eabi_attribute	14, 0	@ Tag_ABI_PCS_R9_use
	.file	"stdio.c"
	.file	1 "E:\\Smart-access-control\\Hardware\\CODE" "rt-thread/components/libc/compilers/armlibc/stdio.c"
	.section	.text.libc_stdio_set_console,"ax",%progbits
	.hidden	libc_stdio_set_console          @ -- Begin function libc_stdio_set_console
	.globl	libc_stdio_set_console
	.p2align	3
	.type	libc_stdio_set_console,%function
	.code	16                              @ @libc_stdio_set_console
	.thumb_func
libc_stdio_set_console:
.Lfunc_begin0:
	.loc	1 25 0                          @ rt-thread/components/libc/compilers/armlibc/stdio.c:25:0
	.fnstart
	.cfi_sections .debug_frame
	.cfi_startproc
@ %bb.0:
	.save	{r7, lr}
	push	{r7, lr}
	.cfi_def_cfa_offset 8
	.cfi_offset lr, -4
	.cfi_offset r7, -8
	.pad	#48
	sub	sp, #48
	.cfi_def_cfa_offset 56
	str	r0, [sp, #44]
	str	r1, [sp, #40]
.Ltmp0:
	.loc	1 29 49 prologue_end            @ rt-thread/components/libc/compilers/armlibc/stdio.c:29:49
	ldr	r3, [sp, #44]
	.loc	1 29 5 is_stmt 0                @ rt-thread/components/libc/compilers/armlibc/stdio.c:29:5
	movw	r2, :lower16:.L.str
	movt	r2, :upper16:.L.str
	add	r0, sp, #4
	str	r0, [sp]                        @ 4-byte Spill
	movs	r1, #31
	bl	snprintf
                                        @ kill: def $r1 killed $r0
	ldr	r0, [sp]                        @ 4-byte Reload
	movs	r2, #0
	.loc	1 30 37 is_stmt 1               @ rt-thread/components/libc/compilers/armlibc/stdio.c:30:37
	strb.w	r2, [sp, #35]
	.loc	1 32 21                         @ rt-thread/components/libc/compilers/armlibc/stdio.c:32:21
	ldr	r1, [sp, #40]
	.loc	1 32 10 is_stmt 0               @ rt-thread/components/libc/compilers/armlibc/stdio.c:32:10
	bl	open
	.loc	1 32 8                          @ rt-thread/components/libc/compilers/armlibc/stdio.c:32:8
	str	r0, [sp, #36]
.Ltmp1:
	.loc	1 33 9 is_stmt 1                @ rt-thread/components/libc/compilers/armlibc/stdio.c:33:9
	ldr	r0, [sp, #36]
.Ltmp2:
	.loc	1 33 9 is_stmt 0                @ rt-thread/components/libc/compilers/armlibc/stdio.c:33:9
	cmp	r0, #0
	bmi	.LBB0_4
	b	.LBB0_1
.LBB0_1:
.Ltmp3:
	.loc	1 35 13 is_stmt 1               @ rt-thread/components/libc/compilers/armlibc/stdio.c:35:13
	movw	r0, :lower16:std_fd
	movt	r0, :upper16:std_fd
	ldr	r0, [r0]
.Ltmp4:
	.loc	1 35 13 is_stmt 0               @ rt-thread/components/libc/compilers/armlibc/stdio.c:35:13
	cmp	r0, #0
	bmi	.LBB0_3
	b	.LBB0_2
.LBB0_2:
.Ltmp5:
	.loc	1 37 19 is_stmt 1               @ rt-thread/components/libc/compilers/armlibc/stdio.c:37:19
	movw	r0, :lower16:std_fd
	movt	r0, :upper16:std_fd
	ldr	r0, [r0]
	.loc	1 37 13 is_stmt 0               @ rt-thread/components/libc/compilers/armlibc/stdio.c:37:13
	bl	close
	.loc	1 38 9 is_stmt 1                @ rt-thread/components/libc/compilers/armlibc/stdio.c:38:9
	b	.LBB0_3
.Ltmp6:
.LBB0_3:
	.loc	1 39 18                         @ rt-thread/components/libc/compilers/armlibc/stdio.c:39:18
	ldr	r0, [sp, #36]
	.loc	1 39 16 is_stmt 0               @ rt-thread/components/libc/compilers/armlibc/stdio.c:39:16
	movw	r1, :lower16:std_fd
	movt	r1, :upper16:std_fd
	str	r0, [r1]
	.loc	1 40 5 is_stmt 1                @ rt-thread/components/libc/compilers/armlibc/stdio.c:40:5
	b	.LBB0_4
.Ltmp7:
.LBB0_4:
	.loc	1 42 12                         @ rt-thread/components/libc/compilers/armlibc/stdio.c:42:12
	movw	r0, :lower16:std_fd
	movt	r0, :upper16:std_fd
	ldr	r0, [r0]
	.loc	1 42 5 is_stmt 0                @ rt-thread/components/libc/compilers/armlibc/stdio.c:42:5
	add	sp, #48
	pop	{r7, pc}
.Ltmp8:
.Lfunc_end0:
	.size	libc_stdio_set_console, .Lfunc_end0-libc_stdio_set_console
	.cfi_endproc
	.cantunwind
	.fnend
                                        @ -- End function
	.section	.text.libc_stdio_get_console,"ax",%progbits
	.hidden	libc_stdio_get_console          @ -- Begin function libc_stdio_get_console
	.globl	libc_stdio_get_console
	.p2align	3
	.type	libc_stdio_get_console,%function
	.code	16                              @ @libc_stdio_get_console
	.thumb_func
libc_stdio_get_console:
.Lfunc_begin1:
	.loc	1 46 0 is_stmt 1                @ rt-thread/components/libc/compilers/armlibc/stdio.c:46:0
	.fnstart
	.cfi_startproc
@ %bb.0:
	.loc	1 47 12 prologue_end            @ rt-thread/components/libc/compilers/armlibc/stdio.c:47:12
	movw	r0, :lower16:std_fd
	movt	r0, :upper16:std_fd
	ldr	r0, [r0]
	.loc	1 47 5 is_stmt 0                @ rt-thread/components/libc/compilers/armlibc/stdio.c:47:5
	bx	lr
.Ltmp9:
.Lfunc_end1:
	.size	libc_stdio_get_console, .Lfunc_end1-libc_stdio_get_console
	.cfi_endproc
	.cantunwind
	.fnend
                                        @ -- End function
	.section	.text.libc_stdio_read,"ax",%progbits
	.hidden	libc_stdio_read                 @ -- Begin function libc_stdio_read
	.globl	libc_stdio_read
	.p2align	3
	.type	libc_stdio_read,%function
	.code	16                              @ @libc_stdio_read
	.thumb_func
libc_stdio_read:
.Lfunc_begin2:
	.loc	1 51 0 is_stmt 1                @ rt-thread/components/libc/compilers/armlibc/stdio.c:51:0
	.fnstart
	.cfi_startproc
@ %bb.0:
	.save	{r7, lr}
	push	{r7, lr}
	.cfi_def_cfa_offset 8
	.cfi_offset lr, -4
	.cfi_offset r7, -8
	.pad	#16
	sub	sp, #16
	.cfi_def_cfa_offset 24
	str	r0, [sp, #8]
	str	r1, [sp, #4]
.Ltmp10:
	.loc	1 52 9 prologue_end             @ rt-thread/components/libc/compilers/armlibc/stdio.c:52:9
	movw	r0, :lower16:std_fd
	movt	r0, :upper16:std_fd
	ldr	r0, [r0]
.Ltmp11:
	.loc	1 52 9 is_stmt 0                @ rt-thread/components/libc/compilers/armlibc/stdio.c:52:9
	cmp	r0, #0
	bmi	.LBB2_2
	b	.LBB2_1
.LBB2_1:
.Ltmp12:
	.loc	1 54 21 is_stmt 1               @ rt-thread/components/libc/compilers/armlibc/stdio.c:54:21
	movw	r0, :lower16:std_fd
	movt	r0, :upper16:std_fd
	ldr	r0, [r0]
	.loc	1 54 29 is_stmt 0               @ rt-thread/components/libc/compilers/armlibc/stdio.c:54:29
	ldr	r1, [sp, #8]
	.loc	1 54 37                         @ rt-thread/components/libc/compilers/armlibc/stdio.c:54:37
	ldr	r2, [sp, #4]
	.loc	1 54 16                         @ rt-thread/components/libc/compilers/armlibc/stdio.c:54:16
	bl	read
	.loc	1 54 9                          @ rt-thread/components/libc/compilers/armlibc/stdio.c:54:9
	str	r0, [sp, #12]
	b	.LBB2_3
.Ltmp13:
.LBB2_2:
	.loc	1 58 9 is_stmt 1                @ rt-thread/components/libc/compilers/armlibc/stdio.c:58:9
	movw	r0, :lower16:.L.str.1
	movt	r0, :upper16:.L.str.1
	bl	rt_kprintf
	movs	r0, #0
	.loc	1 59 9                          @ rt-thread/components/libc/compilers/armlibc/stdio.c:59:9
	str	r0, [sp, #12]
	b	.LBB2_3
.Ltmp14:
.LBB2_3:
	.loc	1 61 1                          @ rt-thread/components/libc/compilers/armlibc/stdio.c:61:1
	ldr	r0, [sp, #12]
	add	sp, #16
	pop	{r7, pc}
.Ltmp15:
.Lfunc_end2:
	.size	libc_stdio_read, .Lfunc_end2-libc_stdio_read
	.cfi_endproc
	.cantunwind
	.fnend
                                        @ -- End function
	.section	.text.libc_stdio_write,"ax",%progbits
	.hidden	libc_stdio_write                @ -- Begin function libc_stdio_write
	.globl	libc_stdio_write
	.p2align	3
	.type	libc_stdio_write,%function
	.code	16                              @ @libc_stdio_write
	.thumb_func
libc_stdio_write:
.Lfunc_begin3:
	.loc	1 64 0                          @ rt-thread/components/libc/compilers/armlibc/stdio.c:64:0
	.fnstart
	.cfi_startproc
@ %bb.0:
	.save	{r7, lr}
	push	{r7, lr}
	.cfi_def_cfa_offset 8
	.cfi_offset lr, -4
	.cfi_offset r7, -8
	.pad	#16
	sub	sp, #16
	.cfi_def_cfa_offset 24
	str	r0, [sp, #8]
	str	r1, [sp, #4]
.Ltmp16:
	.loc	1 65 9 prologue_end             @ rt-thread/components/libc/compilers/armlibc/stdio.c:65:9
	movw	r0, :lower16:std_fd
	movt	r0, :upper16:std_fd
	ldr	r0, [r0]
.Ltmp17:
	.loc	1 65 9 is_stmt 0                @ rt-thread/components/libc/compilers/armlibc/stdio.c:65:9
	cmp	r0, #0
	bmi	.LBB3_2
	b	.LBB3_1
.LBB3_1:
.Ltmp18:
	.loc	1 67 22 is_stmt 1               @ rt-thread/components/libc/compilers/armlibc/stdio.c:67:22
	movw	r0, :lower16:std_fd
	movt	r0, :upper16:std_fd
	ldr	r0, [r0]
	.loc	1 67 30 is_stmt 0               @ rt-thread/components/libc/compilers/armlibc/stdio.c:67:30
	ldr	r1, [sp, #8]
	.loc	1 67 38                         @ rt-thread/components/libc/compilers/armlibc/stdio.c:67:38
	ldr	r2, [sp, #4]
	.loc	1 67 16                         @ rt-thread/components/libc/compilers/armlibc/stdio.c:67:16
	bl	write
	.loc	1 67 9                          @ rt-thread/components/libc/compilers/armlibc/stdio.c:67:9
	str	r0, [sp, #12]
	b	.LBB3_3
.Ltmp19:
.LBB3_2:
	.loc	1 71 9 is_stmt 1                @ rt-thread/components/libc/compilers/armlibc/stdio.c:71:9
	movw	r0, :lower16:.L.str.2
	movt	r0, :upper16:.L.str.2
	bl	rt_kprintf
	.loc	1 72 16                         @ rt-thread/components/libc/compilers/armlibc/stdio.c:72:16
	ldr	r0, [sp, #4]
	.loc	1 72 9 is_stmt 0                @ rt-thread/components/libc/compilers/armlibc/stdio.c:72:9
	str	r0, [sp, #12]
	b	.LBB3_3
.Ltmp20:
.LBB3_3:
	.loc	1 74 1 is_stmt 1                @ rt-thread/components/libc/compilers/armlibc/stdio.c:74:1
	ldr	r0, [sp, #12]
	add	sp, #16
	pop	{r7, pc}
.Ltmp21:
.Lfunc_end3:
	.size	libc_stdio_write, .Lfunc_end3-libc_stdio_write
	.cfi_endproc
	.cantunwind
	.fnend
                                        @ -- End function
	.type	.L.str,%object                  @ @.str
	.section	.rodata.str1.1,"aMS",%progbits,1
.L.str:
	.asciz	"/dev/%s"
	.size	.L.str, 8

	.type	std_fd,%object                  @ @std_fd
	.section	.data.std_fd,"aw",%progbits
	.p2align	2
std_fd:
	.long	4294967295                      @ 0xffffffff
	.size	std_fd, 4

	.type	.L.str.1,%object                @ @.str.1
	.section	.rodata.str1.1,"aMS",%progbits,1
.L.str.1:
	.asciz	"Illegal stdio input!\n"
	.size	.L.str.1, 22

	.type	.L.str.2,%object                @ @.str.2
.L.str.2:
	.asciz	"Illegal stdio output!\n"
	.size	.L.str.2, 23

	.file	2 "D:\\Keil_v5\\ARM\\ARMCLANG\\Bin\\..\\include" "stdio.h"
	.section	".note.GNU-stack","",%progbits
	.eabi_attribute	30, 6	@ Tag_ABI_optimization_goals
	.ARM_attribute	16, 1	@ Tag_AV_eba