	.text
	.syntax unified
	.eabi_attribute	67, "2.09"	@ Tag_conformance
	.cpu	cortex-m7
	.eabi_attribute	6, 13	@ Tag_CPU_arch
	.eabi_attribute	7, 77	@ Tag_CPU_arch_profile
	.eabi_attribute	8, 0	@ Tag_ARM_ISA_use
	.eabi_attribute	9, 2	@ Tag_THUMB_ISA_use
	.fpu	fpv5-d16
	.eabi_attribute	36, 1	@ Tag_FP_HP_extension
	.eabi_attribute	34, 1	@ Tag_CPU_unaligned_access
	.eabi_attribute	17, 1	@ Tag_ABI_PCS_GOT_use
	.eabi_attribute	20, 2	@ Tag_ABI_FP_denormal
	.eabi_attribute	21, 0	@ Tag_ABI_FP_exceptions
	.eabi_attribute	23, 1	@ Tag_ABI_FP_number_model
	.eabi_attribute	24, 1	@ Tag_ABI_align_needed
	.eabi_attribute	25, 1	@ Tag_ABI_align_preserved
	.eabi_attribute	28, 1	@ Tag_ABI_VFP_args
	.eabi_attribute	38, 1	@ Tag_ABI_FP_16bit_format
	.eabi_attribute	18, 2	@ Tag_ABI_PCS_wchar_t
	.eabi_attribute	26, 1	@ Tag_ABI_enum_size
	.eabi_attribute	14, 0	@ Tag_ABI_PCS_R9_use
	.file	"stm32h7xx_hal_rcc_ex.c"
	.file	1 "E:\\Smart-access-control\\Hardware\\CODE" "libraries/STM32H7xx_HAL/STM32H7xx_HAL_Driver/Inc/stm32h7xx_hal_def.h"
	.file	2 "D:\\Keil_v5\\ARM\\ARMCLANG\\Bin\\..\\include" "stdint.h"
	.file	3 "E:\\Smart-access-control\\Hardware\\CODE" "libraries/STM32H7xx_HAL/CMSIS/Device/ST/STM32H7xx/Include/stm32h750xx.h"
	.file	4 "D:\\Keil_v5\\ARM\\ARMCLANG\\Bin\\..\\include" "math.h"
	.section	.text.HAL_RCCEx_PeriphCLKConfig,"ax",%progbits
	.hidden	HAL_RCCEx_PeriphCLKConfig       @ -- Begin function HAL_RCCEx_PeriphCLKConfig
	.globl	HAL_RCCEx_PeriphCLKConfig
	.p2align	3
	.type	HAL_RCCEx_PeriphCLKConfig,%function
	.code	16                              @ @HAL_RCCEx_PeriphCLKConfig
	.thumb_func
HAL_RCCEx_PeriphCLKConfig:
.Lfunc_begin0:
	.file	5 "E:\\Smart-access-control\\Hardware\\CODE" "libraries/STM32H7xx_HAL/STM32H7xx_HAL_Driver/Src/stm32h7xx_hal_rcc_ex.c"
	.loc	5 108 0                         @ libraries/STM32H7xx_HAL/STM32H7xx_HAL_Driver/Src/stm32h7xx_hal_rcc_ex.c:108:0
	.fnstart
	.cfi_sections .debug_frame
	.cfi_startproc
@ %bb.0:
	.save	{r7, lr}
	push	{r7, lr}
	.cfi_def_cfa_offset 8
	.cfi_offset lr, -4
	.cfi_offset r7, -8
	.pad	#104
	sub	sp, #104
	.cfi_def_cfa_offset 112
	str	r0, [sp, #96]
	movs	r0, #0
.Ltmp0:
	.loc	5 111 21 prologue_end           @ libraries/STM32H7xx_HAL/STM32H7xx_HAL_Driver/Src/stm32h7xx_hal_rcc_ex.c:111:21
	strb.w	r0, [sp, #87]
	.loc	5 112 21                        @ libraries/STM32H7xx_HAL/STM32H7xx_HAL_Driver/Src/stm32h7xx_hal_rcc_ex.c:112:21
	strb.w	r0, [sp, #86]
.Ltmp1:
	.loc	5 116 8                         @ libraries/STM32H7xx_HAL/STM32H7xx_HAL_Driver/Src/stm32h7xx_hal_rcc_ex.c:116:8
	ldr	r0, [sp, #96]
.Ltmp2:
	.loc	5 116 6 is_stmt 0               @ libraries/STM32H7xx_HAL/STM32H7xx_HAL_Driver/Src/stm32h7xx_hal_rcc_ex.c:116:6
	ldrb	r0, [r0, #3]
	lsls	r0, r0, #28
	cmp	r0, #0
	bpl	.LBB0_14
	b	.LBB0_1
.LBB0_1:
.Ltmp3:
	.loc	5 119 12 is_stmt 1              @ libraries/STM32H7xx_HAL/STM32H7xx_HAL_Driver/Src/stm32h7xx_hal_rcc_ex.c:119:12
	ldr	r0, [sp, #96]
	.loc	5 119 27 is_stmt 0              @ libraries/STM32H7xx_HAL/STM32H7xx_HAL_Driver/Src/stm32h7xx_hal_rcc_ex.c:119:27
	ldr	r0, [r0, #100]
	.loc	5 119 5                         @ libraries/STM32H7xx_HAL/STM32H7xx_HAL_Driver/Src/stm32h7xx_hal_rcc_ex.c:119:5
	str	r0, [sp, #80]                   @ 4-byte Spill
	cbz	r0, .LBB0_5
	b	.LBB0_2
.LBB0_2:
	ldr	r0, [sp, #80]                   @ 4-byte Reload
	cmp.w	r0, #1048576
	beq	.LBB0_6
	b	.LBB0_3
.LBB0_3:
	ldr	r0, [sp, #80]                   @ 4-byte Reload
	cmp.w	r0, #2097152
	beq	.LBB0_7
	b	.LBB0_4
.LBB0_4:
	ldr	r0, [sp, #80]                   @ 4-byte Reload
	cmp.w	r0, #3145728
	beq	.LBB0_8
	b	.LBB0_9
.LBB0_5:
	.loc	5 0 5                           @ libraries/STM32H7xx_HAL/STM32H7xx_HAL_Driver/Src/stm32h7xx_hal_rcc_ex.c:0:5
	movw	r1, #17452
	movt	r1, #22530
.Ltmp4:
	.loc	5 123 7 is_stmt 1               @ libraries/STM32H7xx_HAL/STM32H7xx_HAL_Driver/Src/stm32h7xx_hal_rcc_ex.c:123:7
	ldr	r0, [r1]
	orr	r0, r0, #131072
	str	r0, [r1]
	.loc	5 126 7                         @ libraries/STM32H7xx_HAL/STM32H7xx_HAL_Driver/Src/stm32h7xx_hal_rcc_ex.c:126:7
	b	.LBB0_10
.LBB0_6:
	.loc	5 130 33                        @ libraries/STM32H7xx_HAL/STM32H7xx_HAL_Driver/Src/stm32h7xx_hal_rcc_ex.c:130:33
	ldr	r0, [sp, #96]
	.loc	5 130 48 is_stmt 0              @ libraries/STM32H7xx_HAL/STM32H7xx_HAL_Driver/Src/stm32h7xx_hal_rcc_ex.c:130:48
	adds	r0, #4
	movs	r1, #2
	.loc	5 130 13                        @ libraries/STM32H7xx_HAL/STM32H7xx_HAL_Driver/Src/stm32h7xx_hal_rcc_ex.c:130:13
	bl	RCCEx_PLL2_Config
	.loc	5 130 11                        @ libraries/STM32H7xx_HAL/STM32H7xx_HAL_Driver/Src/stm32h7xx_hal_rcc_ex.c:130:11
	strb.w	r0, [sp, #87]
	.loc	5 133 7 is_stmt 1               @ libraries/STM32H7xx_HAL/STM32H7xx_HAL_Driver/Src/stm32h7xx_hal_rcc_ex.c:133:7
	b	.LBB0_10
.LBB0_7:
	.loc	5 136 33                        @ libraries/STM32H7xx_HAL/STM32H7xx_HAL_Driver/Src/stm32h7xx_hal_rcc_ex.c:136:33
	ldr	r0, [sp, #96]
	.loc	5 136 48 is_stmt 0              @ libraries/STM32H7xx_HAL/STM32H7xx_HAL_Driver/Src/stm32h7xx_hal_rcc_ex.c:136:48
	adds	r0, #36
	movs	r1, #2
	.loc	5 136 13                        @ libraries/STM32H7xx_HAL/STM32H7xx_HAL_Driver/Src/stm32h7xx_hal_rcc_ex.c:136:13
	bl	RCCEx_PLL3_Config
	.loc	5 136 11                        @ libraries/STM32H7xx_HAL/STM32H7xx_HAL_Driver/Src/stm32h7xx_hal_rcc_ex.c:136:11
	strb.w	r0, [sp, #87]
	.loc	5 139 7 is_stmt 1               @ libraries/STM32H7xx_HAL/STM32H7xx_HAL_Driver/Src/stm32h7xx_hal_rcc_ex.c:139:7
	b	.LBB0_10
.LBB0_8:
	.loc	5 144 7                         @ libraries/STM32H7xx_HAL/STM32H7xx_HAL_Driver/Src/stm32h7xx_hal_rcc_ex.c:144:7
	b	.LBB0_10
.LBB0_9:
	.loc	5 0 7 is_stmt 0                 @ libraries/STM32H7xx_HAL/STM32H7xx_HAL_Driver/Src/stm32h7xx_hal_rcc_ex.c:0:7
	movs	r0, #1
	.loc	5 147 11 is_stmt 1              @ libraries/STM32H7xx_HAL/STM32H7xx_HAL_Driver/Src/stm32h7xx_hal_rcc_ex.c:147:11
	strb.w	r0, [sp, #87]
	.loc	5 148 7                         @ libraries/STM32H7xx_HAL/STM32H7xx_HAL_Driver/Src/stm32h7xx_hal_rcc_ex.c:148:7
	b	.LBB0_10
.Ltmp5:
.LBB0_10:
	.loc	5 151 8                         @ libraries/STM32H7xx_HAL/STM32H7xx_HAL_Driver/Src/stm32h7xx_hal_rcc_ex.c:151:8
	ldrb.w	r0, [sp, #87]
.Ltmp6:
	.loc	5 151 8 is_stmt 0               @ libraries/STM32H7xx_HAL/STM32H7xx_HAL_Driver/Src/stm32h7xx_hal_rcc_ex.c:151:8
	cbnz	r0, .LBB0_12
	b	.LBB0_11
.LBB0_11:
	.loc	5 0 8                           @ libraries/STM32H7xx_HAL/STM32H7xx_HAL_Driver/Src/stm32h7xx_hal_rcc_ex.c:0:8
	movw	r1, #17488
	movt	r1, #22530
.Ltmp7:
	.loc	5 154 7 is_stmt 1               @ libraries/STM32H7xx_HAL/STM32H7xx_HAL_Driver/Src/stm32h7xx_hal_rcc_ex.c:154:7
	ldr	r0, [r1]
	bic	r0, r0, #3145728
	ldr	r2, [sp, #96]
	ldr	r2, [r2, #100]
	orrs	r0, r2
	str	r0, [r1]
	.loc	5 155 5                         @ libraries/STM32H7xx_HAL/STM32H7xx_HAL_Driver/Src/stm32h7xx_hal_rcc_ex.c:155:5
	b	.LBB0_13
.Ltmp8:
.LBB0_12:
	.loc	5 159 16                        @ libraries/STM32H7xx_HAL/STM32H7xx_HAL_Driver/Src/stm32h7xx_hal_rcc_ex.c:159:16
	ldrb.w	r0, [sp, #87]
	.loc	5 159 14 is_stmt 0              @ libraries/STM32H7xx_HAL/STM32H7xx_HAL_Driver/Src/stm32h7xx_hal_rcc_ex.c:159:14
	strb.w	r0, [sp, #86]
	b	.LBB0_13
.Ltmp9:
.LBB0_13:
	.loc	5 161 3 is_stmt 1               @ libraries/STM32H7xx_HAL/STM32H7xx_HAL_Driver/Src/stm32h7xx_hal_rcc_ex.c:161:3
	b	.LBB0_14
.Ltmp10:
.LBB0_14:
	.loc	5 164 8                         @ libraries/STM32H7xx_HAL/STM32H7xx_HAL_Driver/Src/stm32h7xx_hal_rcc_ex.c:164:8
	ldr	r0, [sp, #96]
.Ltmp11:
	.loc	5 164 6 is_stmt 0               @ libraries/STM32H7xx_HAL/STM32H7xx_HAL_Driver/Src/stm32h7xx_hal_rcc_ex.c:164:6
	ldrb	r0, [r0, #1]
	lsls	r0, r0, #31
	cmp	r0, #0
	beq	.LBB0_28
	b	.LBB0_15
.LBB0_15:
.Ltmp12:
	.loc	5 166 12 is_stmt 1              @ libraries/STM32H7xx_HAL/STM32H7xx_HAL_Driver/Src/stm32h7xx_hal_rcc_ex.c:166:12
	ldr	r0, [sp, #96]
	.loc	5 166 27 is_stmt 0              @ libraries/STM32H7xx_HAL/STM32H7xx_HAL_Driver/Src/stm32h7xx_hal_rcc_ex.c:166:27
	ldr	r0, [r0, #84]
	.loc	5 166 5                         @ libraries/STM32H7xx_HAL/STM32H7xx_HAL_Driver/Src/stm32h7xx_hal_rcc_ex.c:166:5
	str	r0, [sp, #76]                   @ 4-byte Spill
	cmp	r0, #4
	bhi	.LBB0_23
@ %bb.16:
	.loc	5 0 5                           @ libraries/STM32H7xx_HAL/STM32H7xx_HAL_Driver/Src/stm32h7xx_hal_rcc_ex.c:0:5
	ldr	r1, [sp, #76]                   @ 4-byte Reload
.LCPI0_0:
	tbb	[pc, r1]
@ %bb.17:
.LJTI0_0:
	.byte	(.LBB0_18-(.LCPI0_0+4))/2
	.byte	(.LBB0_19-(.LCPI0_0+4))/2
	.byte	(.LBB0_20-(.LCPI0_0+4))/2
	.byte	(.LBB0_21-(.LCPI0_0+4))/2
	.byte	(.LBB0_22-(.LCPI0_0+4))/2
	.p2align	1
.LBB0_18:
	movw	r1, #17452
	movt	r1, #22530
.Ltmp13:
	.loc	5 170 7 is_stmt 1               @ libraries/STM32H7xx_HAL/STM32H7xx_HAL_Driver/Src/stm32h7xx_hal_rcc_ex.c:170:7
	ldr	r0, [r1]
	orr	r0, r0, #131072
	str	r0, [r1]
	.loc	5 173 7                         @ libraries/STM32H7xx_HAL/STM32H7xx_HAL_Driver/Src/stm32h7xx_hal_rcc_ex.c:173:7
	b	.LBB0_24
.LBB0_19:
	.loc	5 177 33                        @ libraries/STM32H7xx_HAL/STM32H7xx_HAL_Driver/Src/stm32h7xx_hal_rcc_ex.c:177:33
	ldr	r0, [sp, #96]
	.loc	5 177 48 is_stmt 0              @ libraries/STM32H7xx_HAL/STM32H7xx_HAL_Driver/Src/stm32h7xx_hal_rcc_ex.c:177:48
	adds	r0, #4
	movs	r1, #0
	.loc	5 177 13                        @ libraries/STM32H7xx_HAL/STM32H7xx_HAL_Driver/Src/stm32h7xx_hal_rcc_ex.c:177:13
	bl	RCCEx_PLL2_Config
	.loc	5 177 11                        @ libraries/STM32H7xx_HAL/STM32H7xx_HAL_Driver/Src/stm32h7xx_hal_rcc_ex.c:177:11
	strb.w	r0, [sp, #87]
	.loc	5 180 7 is_stmt 1               @ libraries/STM32H7xx_HAL/STM32H7xx_HAL_Driver/Src/stm32h7xx_hal_rcc_ex.c:180:7
	b	.LBB0_24
.LBB0_20:
	.loc	5 183 33                        @ libraries/STM32H7xx_HAL/STM32H7xx_HAL_Driver/Src/stm32h7xx_hal_rcc_ex.c:183:33
	ldr	r0, [sp, #96]
	.loc	5 183 48 is_stmt 0              @ libraries/STM32H7xx_HAL/STM32H7xx_HAL_Driver/Src/stm32h7xx_hal_rcc_ex.c:183:48
	adds	r0, #36
	movs	r1, #0
	.loc	5 183 13                        @ libraries/STM32H7xx_HAL/STM32H7xx_HAL_Driver/Src/stm32h7xx_hal_rcc_ex.c:183:13
	bl	RCCEx_PLL3_Config
	.loc	5 183 11                        @ libraries/STM32H7xx_HAL/STM32H7xx_HAL_Driver/Src/stm32h7xx_hal_rcc_ex.c:183:11
	strb.w	r0, [sp, #87]
	.loc	5 186 7 is_stmt 1               @ libraries/STM32H7xx_HAL/STM32H7xx_HAL_Driver/Src/stm32h7xx_hal_rcc_ex.c:186:7
	b	.LBB0_24
.LBB0_21:
	.loc	5 191 7                         @ libraries/STM32H7xx_HAL/STM32H7xx_HAL_Driver/Src/stm32h7xx_hal_rcc_ex.c:191:7
	b	.LBB0_24
.LBB0_22:
	.loc	5 196 7                         @ libraries/STM32H7xx_HAL/STM32H7xx_HAL_Driver/Src/stm32h7xx_hal_rcc_ex.c:196:7
	b	.LBB0_24
.LBB0_23:
	.loc	5 0 7 is_stmt 0                 @ libraries/STM32H7xx_HAL/STM32H7xx_HAL_Driver/Src/stm32h7xx_hal_rcc_ex.c:0:7
	movs	r0, #1
	.loc	5 199 11 is_stmt 1              @ libraries/STM32H7xx_HAL/STM32H7xx_HAL_Driver/Src/stm32h7xx_hal_rcc_ex.c:199:11
	strb.w	r0, [sp, #87]
	.loc	5 200 7                         @ libraries/STM32H7xx_HAL/STM32H7xx_HAL_Driver/Src/stm32h7xx_hal_rcc_ex.c:200:7
	b	.LBB0_24
.Ltmp14:
.LBB0_24:
	.loc	5 203 8                         @ libraries/STM32H7xx_HAL/STM32H7xx_HAL_Driver/Src/stm32h7xx_hal_rcc_ex.c:203:8
	ldrb.w	r0, [sp, #87]
.Ltmp15:
	.loc	5 203 8 is_stmt 0               @ libraries/STM32H7xx_HAL/STM32H7xx_HAL_Driver/Src/stm32h7xx_hal_rcc_ex.c:203:8
	cbnz	r0, .LBB0_26
	b	.LBB0_25
.LBB0_25:
	.loc	5 0 8                           @ libraries/STM32H7xx_HAL/STM32H7xx_HAL_Driver/Src/stm32h7xx_hal_rcc_ex.c:0:8
	movw	r1, #17488
	movt	r1, #22530
.Ltmp16:
	.loc	5 206 7 is_stmt 1               @ libraries/STM32H7xx_HAL/STM32H7xx_HAL_Driver/Src/stm32h7xx_hal_rcc_ex.c:206:7
	ldr	r0, [r1]
	bic	r0, r0, #7
	ldr	r2, [sp, #96]
	ldr	r2, [r2, #84]
	orrs	r0, r2
	str	r0, [r1]
	.loc	5 207 5                         @ libraries/STM32H7xx_HAL/STM32H7xx_HAL_Driver/Src/stm32h7xx_hal_rcc_ex.c:207:5
	b	.LBB0_27
.Ltmp17:
.LBB0_26:
	.loc	5 211 16                        @ libraries/STM32H7xx_HAL/STM32H7xx_HAL_Driver/Src/stm32h7xx_hal_rcc_ex.c:211:16
	ldrb.w	r0, [sp, #87]
	.loc	5 211 14 is_stmt 0              @ libraries/STM32H7xx_HAL/STM32H7xx_HAL_Driver/Src/stm32h7xx_hal_rcc_ex.c:211:14
	strb.w	r0, [sp, #86]
	b	.LBB0_27
.Ltmp18:
.LBB0_27:
	.loc	5 213 3 is_stmt 1               @ libraries/STM32H7xx_HAL/STM32H7xx_HAL_Driver/Src/stm32h7xx_hal_rcc_ex.c:213:3
	b	.LBB0_28
.Ltmp19:
.LBB0_28:
	.loc	5 216 8                         @ libraries/STM32H7xx_HAL/STM32H7xx_HAL_Driver/Src/stm32h7xx_hal_rcc_ex.c:216:8
	ldr	r0, [sp, #96]
.Ltmp20:
	.loc	5 216 6 is_stmt 0               @ libraries/STM32H7xx_HAL/STM32H7xx_HAL_Driver/Src/stm32h7xx_hal_rcc_ex.c:216:6
	ldrb	r0, [r0, #1]
	lsls	r0, r0, #30
	cmp	r0, #0
	bpl	.LBB0_44
	b	.LBB0_29
.LBB0_29:
.Ltmp21:
	.loc	5 218 12 is_stmt 1              @ libraries/STM32H7xx_HAL/STM32H7xx_HAL_Driver/Src/stm32h7xx_hal_rcc_ex.c:218:12
	ldr	r0, [sp, #96]
	.loc	5 218 27 is_stmt 0              @ libraries/STM32H7xx_HAL/STM32H7xx_HAL_Driver/Src/stm32h7xx_hal_rcc_ex.c:218:27
	ldr	r0, [r0, #88]
	.loc	5 218 5                         @ libraries/STM32H7xx_HAL/STM32H7xx_HAL_Driver/Src/stm32h7xx_hal_rcc_ex.c:218:5
	str	r0, [sp, #72]                   @ 4-byte Spill
	cbz	r0, .LBB0_34
	b	.LBB0_30
.LBB0_30:
	ldr	r0, [sp, #72]                   @ 4-byte Reload
	cmp	r0, #64
	beq	.LBB0_35
	b	.LBB0_31
.LBB0_31:
	ldr	r0, [sp, #72]                   @ 4-byte Reload
	cmp	r0, #128
	beq	.LBB0_36
	b	.LBB0_32
.LBB0_32:
	ldr	r0, [sp, #72]                   @ 4-byte Reload
	cmp	r0, #192
	beq	.LBB0_37
	b	.LBB0_33
.LBB0_33:
	ldr	r0, [sp, #72]                   @ 4-byte Reload
	cmp.w	r0, #256
	beq	.LBB0_38
	b	.LBB0_39
.LBB0_34:
	.loc	5 0 5                           @ libraries/STM32H7xx_HAL/STM32H7xx_HAL_Driver/Src/stm32h7xx_hal_rcc_ex.c:0:5
	movw	r1, #17452
	movt	r1, #22530
.Ltmp22:
	.loc	5 222 7 is_stmt 1               @ libraries/STM32H7xx_HAL/STM32H7xx_HAL_Driver/Src/stm32h7xx_hal_rcc_ex.c:222:7
	ldr	r0, [r1]
	orr	r0, r0, #131072
	str	r0, [r1]
	.loc	5 225 7                         @ libraries/STM32H7xx_HAL/STM32H7xx_HAL_Driver/Src/stm32h7xx_hal_rcc_ex.c:225:7
	b	.LBB0_40
.LBB0_35:
	.loc	5 229 33                        @ libraries/STM32H7xx_HAL/STM32H7xx_HAL_Driver/Src/stm32h7xx_hal_rcc_ex.c:229:33
	ldr	r0, [sp, #96]
	.loc	5 229 48 is_stmt 0              @ libraries/STM32H7xx_HAL/STM32H7xx_HAL_Driver/Src/stm32h7xx_hal_rcc_ex.c:229:48
	adds	r0, #4
	movs	r1, #0
	.loc	5 229 13                        @ libraries/STM32H7xx_HAL/STM32H7xx_HAL_Driver/Src/stm32h7xx_hal_rcc_ex.c:229:13
	bl	RCCEx_PLL2_Config
	.loc	5 229 11                        @ libraries/STM32H7xx_HAL/STM32H7xx_HAL_Driver/Src/stm32h7xx_hal_rcc_ex.c:229:11
	strb.w	r0, [sp, #87]
	.loc	5 232 7 is_stmt 1               @ libraries/STM32H7xx_HAL/STM32H7xx_HAL_Driver/Src/stm32h7xx_hal_rcc_ex.c:232:7
	b	.LBB0_40
.LBB0_36:
	.loc	5 235 33                        @ libraries/STM32H7xx_HAL/STM32H7xx_HAL_Driver/Src/stm32h7xx_hal_rcc_ex.c:235:33
	ldr	r0, [sp, #96]
	.loc	5 235 48 is_stmt 0              @ libraries/STM32H7xx_HAL/STM32H7xx_HAL_Driver/Src/stm32h7xx_hal_rcc_ex.c:235:48
	adds	r0, #36
	movs	r1, #0
	.loc	5 235 13                        @ libraries/STM32H7xx_HAL/STM32H7xx_HAL_Driver/Src/stm32h7xx_hal_rcc_ex.c:235:13
	bl	RCCEx_PLL3_Config
	.loc	5 235 11                        @ libraries/STM32H7xx_HAL/STM32H7xx_HAL_Driver/Src/stm32h7xx_hal_rcc_ex.c:235:11
	strb.w	r0, [sp, #87]
	.loc	5 238 7 is_stmt 1               @ libraries/STM32H7xx_HAL/STM32H7xx_HAL_Driver/Src/stm32h7xx_hal_rcc_ex.c:238:7
	b	.LBB0_40
.LBB0_37:
	.loc	5 243 7                         @ libraries/STM32H7xx_HAL/STM32H7xx_HAL_Driver/Src/stm32h7xx_hal_rcc_ex.c:243:7
	b	.LBB0_40
.LBB0_38:
	.loc	5 248 7                         @ libraries/STM32H7xx_HAL/STM32H7xx_HAL_Driver/Src/stm32h7xx_hal_rcc_ex.c:248:7
	b	.LBB0_40
.LBB0_39:
	.loc	5 0 7 is_stmt 0                 @ libraries/STM32H7xx_HAL/STM32H7xx_HAL_Driver/Src/stm32h7xx_hal_rcc_ex.c:0:7
	movs	r0, #1
	.loc	5 251 11 is_stmt 1              @ libraries/STM32H7xx_HAL/STM32H7xx_HAL_Driver/Src/stm32h7xx_hal_rcc_ex.c:251:11
	strb.w	r0, [sp, #87]
	.loc	5 252 7                         @ libraries/STM32H7xx_HAL/STM32H7xx_HAL_Driver/Src/stm32h7xx_hal_rcc_ex.c:252:7
	b	.LBB0_40
.Ltmp23:
.LBB0_40:
	.loc	5 255 8                         @ libraries/STM32H7xx_HAL/STM32H7xx_HAL_Driver/Src/stm32h7xx_hal_rcc_ex.c:255:8
	ldrb.w	r0, [sp, #87]
.Ltmp24:
	.loc	5 255 8 is_stmt 0               @ libraries/STM32H7xx_HAL/STM32H7xx_HAL_Driver/Src/stm32h7xx_hal_rcc_ex.c:255:8
	cbnz	r0, .LBB0_42
	b	.LBB0_41
.LBB0_41:
	.loc	5 0 8                           @ libraries/STM32H7xx_HAL/STM32H7xx_HAL_Driver/Src/stm32h7xx_hal_rcc_ex.c:0:8
	movw	r1, #17488
	movt	r1, #22530
.Ltmp25:
	.loc	5 258 7 is_stmt 1               @ libraries/STM32H7xx_HAL/STM32H7xx_HAL_Driver/Src/stm32h7xx_hal_rcc_ex.c:258:7
	ldr	r0, [r1]
	bic	r0, r0, #448
	ldr	r2, [sp, #96]
	ldr	r2, [r2, #88]
	orrs	r0, r2
	str	r0, [r1]
	.loc	5 259 5                         @ libraries/STM32H7xx_HAL/STM32H7xx_HAL_Driver/Src/stm32h7xx_hal_rcc_ex.c:259:5
	b	.LBB0_43
.Ltmp26:
.LBB0_42:
	.loc	5 263 16                        @ libraries/STM32H7xx_HAL/STM32H7xx_HAL_Driver/Src/stm32h7xx_hal_rcc_ex.c:263:16
	ldrb.w	r0, [sp, #87]
	.loc	5 263 14 is_stmt 0              @ libraries/STM32H7xx_HAL/STM32H7xx_HAL_Driver/Src/stm32h7xx_hal_rcc_ex.c:263:14
	strb.w	r0, [sp, #86]
	b	.LBB0_43
.Ltmp27:
.LBB0_43:
	.loc	5 265 3 is_stmt 1               @ libraries/STM32H7xx_HAL/STM32H7xx_HAL_Driver/Src/stm32h7xx_hal_rcc_ex.c:265:3
	b	.LBB0_44
.Ltmp28:
.LBB0_44:
	.loc	5 268 8                         @ libraries/STM32H7xx_HAL/STM32H7xx_HAL_Driver/Src/stm32h7xx_hal_rcc_ex.c:268:8
	ldr	r0, [sp, #96]
.Ltmp29:
	.loc	5 268 6 is_stmt 0               @ libraries/STM32H7xx_HAL/STM32H7xx_HAL_Driver/Src/stm32h7xx_hal_rcc_ex.c:268:6
	ldrb	r0, [r0, #1]
	lsls	r0, r0, #29
	cmp	r0, #0
	bpl	.LBB0_60
	b	.LBB0_45
.LBB0_45:
.Ltmp30:
	.loc	5 270 12 is_stmt 1              @ libraries/STM32H7xx_HAL/STM32H7xx_HAL_Driver/Src/stm32h7xx_hal_rcc_ex.c:270:12
	ldr	r0, [sp, #96]
	.loc	5 270 27 is_stmt 0              @ libraries/STM32H7xx_HAL/STM32H7xx_HAL_Driver/Src/stm32h7xx_hal_rcc_ex.c:270:27
	ldr.w	r0, [r0, #164]
	.loc	5 270 5                         @ libraries/STM32H7xx_HAL/STM32H7xx_HAL_Driver/Src/stm32h7xx_hal_rcc_ex.c:270:5
	str	r0, [sp, #68]                   @ 4-byte Spill
	cbz	r0, .LBB0_50
	b	.LBB0_46
.LBB0_46:
	ldr	r0, [sp, #68]                   @ 4-byte Reload
	cmp.w	r0, #2097152
	beq	.LBB0_51
	b	.LBB0_47
.LBB0_47:
	ldr	r0, [sp, #68]                   @ 4-byte Reload
	cmp.w	r0, #4194304
	beq	.LBB0_52
	b	.LBB0_48
.LBB0_48:
	ldr	r0, [sp, #68]                   @ 4-byte Reload
	cmp.w	r0, #6291456
	beq	.LBB0_53
	b	.LBB0_49
.LBB0_49:
	ldr	r0, [sp, #68]                   @ 4-byte Reload
	cmp.w	r0, #8388608
	beq	.LBB0_54
	b	.LBB0_55
.LBB0_50:
	.loc	5 0 5                           @ libraries/STM32H7xx_HAL/STM32H7xx_HAL_Driver/Src/stm32h7xx_hal_rcc_ex.c:0:5
	movw	r1, #17452
	movt	r1, #22530
.Ltmp31:
	.loc	5 274 7 is_stmt 1               @ libraries/STM32H7xx_HAL/STM32H7xx_HAL_Driver/Src/stm32h7xx_hal_rcc_ex.c:274:7
	ldr	r0, [r1]
	orr	r0, r0, #131072
	str	r0, [r1]
	.loc	5 277 7                         @ libraries/STM32H7xx_HAL/STM32H7xx_HAL_Driver/Src/stm32h7xx_hal_rcc_ex.c:277:7
	b	.LBB0_56
.LBB0_51:
	.loc	5 281 33                        @ libraries/STM32H7xx_HAL/STM32H7xx_HAL_Driver/Src/stm32h7xx_hal_rcc_ex.c:281:33
	ldr	r0, [sp, #96]
	.loc	5 281 48 is_stmt 0              @ libraries/STM32H7xx_HAL/STM32H7xx_HAL_Driver/Src/stm32h7xx_hal_rcc_ex.c:281:48
	adds	r0, #4
	movs	r1, #0
	.loc	5 281 13                        @ libraries/STM32H7xx_HAL/STM32H7xx_HAL_Driver/Src/stm32h7xx_hal_rcc_ex.c:281:13
	bl	RCCEx_PLL2_Config
	.loc	5 281 11                        @ libraries/STM32H7xx_HAL/STM32H7xx_HAL_Driver/Src/stm32h7xx_hal_rcc_ex.c:281:11
	strb.w	r0, [sp, #87]
	.loc	5 284 7 is_stmt 1               @ libraries/STM32H7xx_HAL/STM32H7xx_HAL_Driver/Src/stm32h7xx_hal_rcc_ex.c:284:7
	b	.LBB0_56
.LBB0_52:
	.loc	5 287 33                        @ libraries/STM32H7xx_HAL/STM32H7xx_HAL_Driver/Src/stm32h7xx_hal_rcc_ex.c:287:33
	ldr	r0, [sp, #96]
	.loc	5 287 48 is_stmt 0              @ libraries/STM32H7xx_HAL/STM32H7xx_HAL_Driver/Src/stm32h7xx_hal_rcc_ex.c:287:48
	adds	r0, #36
	movs	r1, #0
	.loc	5 287 13                        @ libraries/STM32H7xx_HAL/STM32H7xx_HAL_Driver/Src/stm32h7xx_hal_rcc_ex.c:287:13
	bl	RCCEx_PLL3_Config
	.loc	5 287 11                        @ libraries/STM32H7xx_HAL/STM32H7xx_HAL_Driver/Src/stm32h7xx_hal_rcc_ex.c:287:11
	strb.w	r0, [sp, #87]
	.loc	5 290 7 is_stmt 1               @ libraries/STM32H7xx_HAL/STM32H7xx_HAL_Driver/Src/stm32h7xx_hal_rcc_ex.c:290:7
	b	.LBB0_56
.LBB0_53:
	.loc	5 295 7                         @ libraries/STM32H7xx_HAL/STM32H7xx_HAL_Driver/Src/stm32h7xx_hal_rcc_ex.c:295:7
	b	.LBB0_56
.LBB0_54:
	.loc	5 300 7                         @ libraries/STM32H7xx_HAL/STM32H7xx_HAL_Driver/Src/stm32h7xx_hal_rcc_ex.c:300:7
	b	.LBB0_56
.LBB0_55:
	.loc	5 0 7 is_stmt 0                 @ libraries/STM32H7xx_HAL/STM32H7xx_HAL_Driver/Src/stm32h7xx_hal_rcc_ex.c:0:7
	movs	r0, #1
	.loc	5 303 11 is_stmt 1              @ libraries/STM32H7xx_HAL/STM32H7xx_HAL_Driver/Src/stm32h7xx_hal_rcc_ex.c:303:11
	strb.w	r0, [sp, #87]
	.loc	5 304 7                         @ libraries/STM32H7xx_HAL/STM32H7xx_HAL_Driver/Src/stm32h7xx_hal_rcc_ex.c:304:7
	b	.LBB0_56
.Ltmp32:
.LBB0_56:
	.loc	5 307 8                         @ libraries/STM32H7xx_HAL/STM32H7xx_HAL_Driver/Src/stm32h7xx_hal_rcc_ex.c:307:8
	ldrb.w	r0, [sp, #87]
.Ltmp33:
	.loc	5 307 8 is_stmt 0               @ libraries/STM32H7xx_HAL/STM32H7xx_HAL_Driver/Src/stm32h7xx_hal_rcc_ex.c:307:8
	cbnz	r0, .LBB0_58
	b	.LBB0_57
.LBB0_57:
	.loc	5 0 8                           @ libraries/STM32H7xx_HAL/STM32H7xx_HAL_Driver/Src/stm32h7xx_hal_rcc_ex.c:0:8
	movw	r1, #17496
	movt	r1, #22530
.Ltmp34:
	.loc	5 310 7 is_stmt 1               @ libraries/STM32H7xx_HAL/STM32H7xx_HAL_Driver/Src/stm32h7xx_hal_rcc_ex.c:310:7
	ldr	r0, [r1]
	bic	r0, r0, #14680064
	ldr	r2, [sp, #96]
	ldr.w	r2, [r2, #164]
	orrs	r0, r2
	str	r0, [r1]
	.loc	5 311 5                         @ libraries/STM32H7xx_HAL/STM32H7xx_HAL_Driver/Src/stm32h7xx_hal_rcc_ex.c:311:5
	b	.LBB0_59
.Ltmp35:
.LBB0_58:
	.loc	5 315 16                        @ libraries/STM32H7xx_HAL/STM32H7xx_HAL_Driver/Src/stm32h7xx_hal_rcc_ex.c:315:16
	ldrb.w	r0, [sp, #87]
	.loc	5 315 14 is_stmt 0              @ libraries/STM32H7xx_HAL/STM32H7xx_HAL_Driver/Src/stm32h7xx_hal_rcc_ex.c:315:14
	strb.w	r0, [sp, #86]
	b	.LBB0_59
.Ltmp36:
.LBB0_59:
	.loc	5 317 3 is_stmt 1               @ libraries/STM32H7xx_HAL/STM32H7xx_HAL_Driver/Src/stm32h7xx_hal_rcc_ex.c:317:3
	b	.LBB0_60
.Ltmp37:
.LBB0_60:
	.loc	5 319 8                         @ libraries/STM32H7xx_HAL/STM32H7xx_HAL_Driver/Src/stm32h7xx_hal_rcc_ex.c:319:8
	ldr	r0, [sp, #96]
.Ltmp38:
	.loc	5 319 6 is_stmt 0               @ libraries/STM32H7xx_HAL/STM32H7xx_HAL_Driver/Src/stm32h7xx_hal_rcc_ex.c:319:6
	ldrb	r0, [r0, #1]
	lsls	r0, r0, #28
	cmp	r0, #0
	bpl	.LBB0_76
	b	.LBB0_61
.LBB0_61:
.Ltmp39:
	.loc	5 321 12 is_stmt 1              @ libraries/STM32H7xx_HAL/STM32H7xx_HAL_Driver/Src/stm32h7xx_hal_rcc_ex.c:321:12
	ldr	r0, [sp, #96]
	.loc	5 321 27 is_stmt 0              @ libraries/STM32H7xx_HAL/STM32H7xx_HAL_Driver/Src/stm32h7xx_hal_rcc_ex.c:321:27
	ldr.w	r0, [r0, #168]
	.loc	5 321 5                         @ libraries/STM32H7xx_HAL/STM32H7xx_HAL_Driver/Src/stm32h7xx_hal_rcc_ex.c:321:5
	str	r0, [sp, #64]                   @ 4-byte Spill
	cbz	r0, .LBB0_66
	b	.LBB0_62
.LBB0_62:
	ldr	r0, [sp, #64]                   @ 4-byte Reload
	cmp.w	r0, #16777216
	beq	.LBB0_67
	b	.LBB0_63
.LBB0_63:
	ldr	r0, [sp, #64]                   @ 4-byte Reload
	cmp.w	r0, #33554432
	beq	.LBB0_68
	b	.LBB0_64
.LBB0_64:
	ldr	r0, [sp, #64]                   @ 4-byte Reload
	cmp.w	r0, #50331648
	beq	.LBB0_69
	b	.LBB0_65
.LBB0_65:
	ldr	r0, [sp, #64]                   @ 4-byte Reload
	cmp.w	r0, #67108864
	beq	.LBB0_70
	b	.LBB0_71
.LBB0_66:
	.loc	5 0 5                           @ libraries/STM32H7xx_HAL/STM32H7xx_HAL_Driver/Src/stm32h7xx_hal_rcc_ex.c:0:5
	movw	r1, #17452
	movt	r1, #22530
.Ltmp40:
	.loc	5 325 7 is_stmt 1               @ libraries/STM32H7xx_HAL/STM32H7xx_HAL_Driver/Src/stm32h7xx_hal_rcc_ex.c:325:7
	ldr	r0, [r1]
	orr	r0, r0, #131072
	str	r0, [r1]
	.loc	5 328 7                         @ libraries/STM32H7xx_HAL/STM32H7xx_HAL_Driver/Src/stm32h7xx_hal_rcc_ex.c:328:7
	b	.LBB0_72
.LBB0_67:
	.loc	5 332 33                        @ libraries/STM32H7xx_HAL/STM32H7xx_HAL_Driver/Src/stm32h7xx_hal_rcc_ex.c:332:33
	ldr	r0, [sp, #96]
	.loc	5 332 48 is_stmt 0              @ libraries/STM32H7xx_HAL/STM32H7xx_HAL_Driver/Src/stm32h7xx_hal_rcc_ex.c:332:48
	adds	r0, #4
	movs	r1, #0
	.loc	5 332 13                        @ libraries/STM32H7xx_HAL/STM32H7xx_HAL_Driver/Src/stm32h7xx_hal_rcc_ex.c:332:13
	bl	RCCEx_PLL2_Config
	.loc	5 332 11                        @ libraries/STM32H7xx_HAL/STM32H7xx_HAL_Driver/Src/stm32h7xx_hal_rcc_ex.c:332:11
	strb.w	r0, [sp, #87]
	.loc	5 335 7 is_stmt 1               @ libraries/STM32H7xx_HAL/STM32H7xx_HAL_Driver/Src/stm32h7xx_hal_rcc_ex.c:335:7
	b	.LBB0_72
.LBB0_68:
	.loc	5 338 33                        @ libraries/STM32H7xx_HAL/STM32H7xx_HAL_Driver/Src/stm32h7xx_hal_rcc_ex.c:338:33
	ldr	r0, [sp, #96]
	.loc	5 338 48 is_stmt 0              @ libraries/STM32H7xx_HAL/STM32H7xx_HAL_Driver/Src/stm32h7xx_hal_rcc_ex.c:338:48
	adds	r0, #36
	movs	r1, #0
	.loc	5 338 13                        @ libraries/STM32H7xx_HAL/STM32H7xx_HAL_Driver/Src/stm32h7xx_hal_rcc_ex.c:338:13
	bl	RCCEx_PLL3_Config
	.loc	5 338 11                        @ libraries/STM32H7xx_HAL/STM32H7xx_HAL_Driver/Src/stm32h7xx_hal_rcc_ex.c:338:11
	strb.w	r0, [sp, #87]
	.loc	5 341 7 is_stmt 1               @ libraries/STM32H7xx_HAL/STM32H7xx_HAL_Driver/Src/stm32h7xx_hal_rcc_ex.c:341:7
	b	.LBB0_72
.LBB0_69:
	.loc	5 346 7                         @ libraries/STM32H7xx_HAL/STM32H7xx_HAL_Driver/Src/stm32h7xx_hal_rcc_ex.c:346:7
	b	.LBB0_72
.LBB0_70:
	.loc	5 351 7                         @ libraries/STM32H7xx_HAL/STM32H7xx_HAL_Driver/Src/stm32h7xx_hal_rcc_ex.c:351:7
	b	.LBB0_72
.LBB0_71:
	.loc	5 0 7 is_stmt 0                 @ libraries/STM32H7xx_HAL/STM32H7xx_HAL_Driver/Src/stm32h7xx_hal_rcc_ex.c:0:7
	movs	r0, #1
	.loc	5 354 11 is_stmt 1              @ libraries/STM32H7xx_HAL/STM32H7xx_HAL_Driver/Src/stm32h7xx_hal_rcc_ex.c:354:11
	strb.w	r0, [sp, #87]
	.loc	5 355 7                         @ libraries/STM32H7xx_HAL/STM32H7xx_HAL_Driver/Src/stm32h7xx_hal_rcc_ex.c:355:7
	b	.LBB0_72
.Ltmp41:
.LBB0_72:
	.loc	5 358 8                         @ libraries/STM32H7xx_HAL/STM32H7xx_HAL_Driver/Src/stm32h7xx_hal_rcc_ex.c:358:8
	ldrb.w	r0, [sp, #87]
.Ltmp42:
	.loc	5 358 8 is_stmt 0               @ libraries/STM32H7xx_HAL/STM32H7xx_HAL_Driver/Src/stm32h7xx_hal_rcc_ex.c:358:8
	cbnz	r0, .LBB0_74
	b	.LBB0_73
.LBB0_73:
	.loc	5 0 8                           @ libraries/STM32H7xx_HAL/STM32H7xx_HAL_Driver/Src/stm32h7xx_hal_rcc_ex.c:0:8
	movw	r1, #17496
	movt	r1, #22530
.Ltmp43:
	.loc	5 361 7 is_stmt 1               @ libraries/STM32H7xx_HAL/STM32H7xx_HAL_Driver/Src/stm32h7xx_hal_rcc_ex.c:361:7
	ldr	r0, [r1]
	bic	r0, r0, #117440512
	ldr	r2, [sp, #96]
	ldr.w	r2, [r2, #168]
	orrs	r0, r2
	str	r0, [r1]
	.loc	5 362 5                         @ libraries/STM32H7xx_HAL/STM32H7xx_HAL_Driver/Src/stm32h7xx_hal_rcc_ex.c:362:5
	b	.LBB0_75
.Ltmp44:
.LBB0_74:
	.loc	5 366 16                        @ libraries/STM32H7xx_HAL/STM32H7xx_HAL_Driver/Src/stm32h7xx_hal_rcc_ex.c:366:16
	ldrb.w	r0, [sp, #87]
	.loc	5 366 14 is_stmt 0              @ libraries/STM32H7xx_HAL/STM32H7xx_HAL_Driver/Src/stm32h7xx_hal_rcc_ex.c:366:14
	strb.w	r0, [sp, #86]
	b	.LBB0_75
.Ltmp45:
.LBB0_75:
	.loc	5 368 3 is_stmt 1               @ libraries/STM32H7xx_HAL/STM32H7xx_HAL_Driver/Src/stm32h7xx_hal_rcc_ex.c:368:3
	b	.LBB0_76
.Ltmp46:
.LBB0_76:
	.loc	5 370 8                         @ libraries/STM32H7xx_HAL/STM32H7xx_HAL_Driver/Src/stm32h7xx_hal_rcc_ex.c:370:8
	ldr	r0, [sp, #96]
.Ltmp47:
	.loc	5 370 6 is_stmt 0               @ libraries/STM32H7xx_HAL/STM32H7xx_HAL_Driver/Src/stm32h7xx_hal_rcc_ex.c:370:6
	ldrb	r0, [r0, #3]
	lsls	r0, r0, #30
	cmp	r0, #0
	bpl	.LBB0_90
	b	.LBB0_77
.LBB0_77:
.Ltmp48:
	.loc	5 372 12 is_stmt 1              @ libraries/STM32H7xx_HAL/STM32H7xx_HAL_Driver/Src/stm32h7xx_hal_rcc_ex.c:372:12
	ldr	r0, [sp, #96]
	.loc	5 372 27 is_stmt 0              @ libraries/STM32H7xx_HAL/STM32H7xx_HAL_Driver/Src/stm32h7xx_hal_rcc_ex.c:372:27
	ldr	r0, [r0, #72]
	.loc	5 372 5                         @ libraries/STM32H7xx_HAL/STM32H7xx_HAL_Driver/Src/stm32h7xx_hal_rcc_ex.c:372:5
	str	r0, [sp, #60]                   @ 4-byte Spill
	cbz	r0, .LBB0_84
	b	.LBB0_78
.LBB0_78:
	ldr	r0, [sp, #60]                   @ 4-byte Reload
	cmp	r0, #16
	beq	.LBB0_81
	b	.LBB0_79
.LBB0_79:
	ldr	r0, [sp, #60]                   @ 4-byte Reload
	cmp	r0, #32
	beq	.LBB0_82
	b	.LBB0_80
.LBB0_80:
	ldr	r0, [sp, #60]                   @ 4-byte Reload
	cmp	r0, #48
	beq	.LBB0_83
	b	.LBB0_85
.LBB0_81:
	.loc	5 0 5                           @ libraries/STM32H7xx_HAL/STM32H7xx_HAL_Driver/Src/stm32h7xx_hal_rcc_ex.c:0:5
	movw	r1, #17452
	movt	r1, #22530
.Ltmp49:
	.loc	5 376 7 is_stmt 1               @ libraries/STM32H7xx_HAL/STM32H7xx_HAL_Driver/Src/stm32h7xx_hal_rcc_ex.c:376:7
	ldr	r0, [r1]
	orr	r0, r0, #131072
	str	r0, [r1]
	.loc	5 379 7                         @ libraries/STM32H7xx_HAL/STM32H7xx_HAL_Driver/Src/stm32h7xx_hal_rcc_ex.c:379:7
	b	.LBB0_86
.LBB0_82:
	.loc	5 383 33                        @ libraries/STM32H7xx_HAL/STM32H7xx_HAL_Driver/Src/stm32h7xx_hal_rcc_ex.c:383:33
	ldr	r0, [sp, #96]
	.loc	5 383 48 is_stmt 0              @ libraries/STM32H7xx_HAL/STM32H7xx_HAL_Driver/Src/stm32h7xx_hal_rcc_ex.c:383:48
	adds	r0, #4
	movs	r1, #2
	.loc	5 383 13                        @ libraries/STM32H7xx_HAL/STM32H7xx_HAL_Driver/Src/stm32h7xx_hal_rcc_ex.c:383:13
	bl	RCCEx_PLL2_Config
	.loc	5 383 11                        @ libraries/STM32H7xx_HAL/STM32H7xx_HAL_Driver/Src/stm32h7xx_hal_rcc_ex.c:383:11
	strb.w	r0, [sp, #87]
	.loc	5 386 7 is_stmt 1               @ libraries/STM32H7xx_HAL/STM32H7xx_HAL_Driver/Src/stm32h7xx_hal_rcc_ex.c:386:7
	b	.LBB0_86
.LBB0_83:
	.loc	5 392 7                         @ libraries/STM32H7xx_HAL/STM32H7xx_HAL_Driver/Src/stm32h7xx_hal_rcc_ex.c:392:7
	b	.LBB0_86
.LBB0_84:
	.loc	5 396 7                         @ libraries/STM32H7xx_HAL/STM32H7xx_HAL_Driver/Src/stm32h7xx_hal_rcc_ex.c:396:7
	b	.LBB0_86
.LBB0_85:
	.loc	5 0 7 is_stmt 0                 @ libraries/STM32H7xx_HAL/STM32H7xx_HAL_Driver/Src/stm32h7xx_hal_rcc_ex.c:0:7
	movs	r0, #1
	.loc	5 399 11 is_stmt 1              @ libraries/STM32H7xx_HAL/STM32H7xx_HAL_Driver/Src/stm32h7xx_hal_rcc_ex.c:399:11
	strb.w	r0, [sp, #87]
	.loc	5 400 7                         @ libraries/STM32H7xx_HAL/STM32H7xx_HAL_Driver/Src/stm32h7xx_hal_rcc_ex.c:400:7
	b	.LBB0_86
.Ltmp50:
.LBB0_86:
	.loc	5 403 8                         @ libraries/STM32H7xx_HAL/STM32H7xx_HAL_Driver/Src/stm32h7xx_hal_rcc_ex.c:403:8
	ldrb.w	r0, [sp, #87]
.Ltmp51:
	.loc	5 403 8 is_stmt 0               @ libraries/STM32H7xx_HAL/STM32H7xx_HAL_Driver/Src/stm32h7xx_hal_rcc_ex.c:403:8
	cbnz	r0, .LBB0_88
	b	.LBB0_87
.LBB0_87:
	.loc	5 0 8                           @ libraries/STM32H7xx_HAL/STM32H7xx_HAL_Driver/Src/stm32h7xx_hal_rcc_ex.c:0:8
	movw	r1, #17484
	movt	r1, #22530
.Ltmp52:
	.loc	5 406 7 is_stmt 1               @ libraries/STM32H7xx_HAL/STM32H7xx_HAL_Driver/Src/stm32h7xx_hal_rcc_ex.c:406:7
	ldr	r0, [r1]
	bic	r0, r0, #48
	ldr	r2, [sp, #96]
	ldr	r2, [r2, #72]
	orrs	r0, r2
	str	r0, [r1]
	.loc	5 407 5                         @ libraries/STM32H7xx_HAL/STM32H7xx_HAL_Driver/Src/stm32h7xx_hal_rcc_ex.c:407:5
	b	.LBB0_89
.Ltmp53:
.LBB0_88:
	.loc	5 411 16                        @ libraries/STM32H7xx_HAL/STM32H7xx_HAL_Driver/Src/stm32h7xx_hal_rcc_ex.c:411:16
	ldrb.w	r0, [sp, #87]
	.loc	5 411 14 is_stmt 0              @ libraries/STM32H7xx_HAL/STM32H7xx_HAL_Driver/Src/stm32h7xx_hal_rcc_ex.c:411:14
	strb.w	r0, [sp, #86]
	b	.LBB0_89
.Ltmp54:
.LBB0_89:
	.loc	5 413 3 is_stmt 1               @ libraries/STM32H7xx_HAL/STM32H7xx_HAL_Driver/Src/stm32h7xx_hal_rcc_ex.c:413:3
	b	.LBB0_90
.Ltmp55:
.LBB0_90:
	.loc	5 416 8                         @ libraries/STM32H7xx_HAL/STM32H7xx_HAL_Driver/Src/stm32h7xx_hal_rcc_ex.c:416:8
	ldr	r0, [sp, #96]
.Ltmp56:
	.loc	5 416 6 is_stmt 0               @ libraries/STM32H7xx_HAL/STM32H7xx_HAL_Driver/Src/stm32h7xx_hal_rcc_ex.c:416:6
	ldrb	r0, [r0, #1]
	lsls	r0, r0, #27
	cmp	r0, #0
	bpl	.LBB0_106
	b	.LBB0_91
.LBB0_91:
.Ltmp57:
	.loc	5 418 12 is_stmt 1              @ libraries/STM32H7xx_HAL/STM32H7xx_HAL_Driver/Src/stm32h7xx_hal_rcc_ex.c:418:12
	ldr	r0, [sp, #96]
	.loc	5 418 27 is_stmt 0              @ libraries/STM32H7xx_HAL/STM32H7xx_HAL_Driver/Src/stm32h7xx_hal_rcc_ex.c:418:27
	ldr	r0, [r0, #92]
	.loc	5 418 5                         @ libraries/STM32H7xx_HAL/STM32H7xx_HAL_Driver/Src/stm32h7xx_hal_rcc_ex.c:418:5
	str	r0, [sp, #56]                   @ 4-byte Spill
	cbz	r0, .LBB0_96
	b	.LBB0_92
.LBB0_92:
	ldr	r0, [sp, #56]                   @ 4-byte Reload
	cmp.w	r0, #4096
	beq	.LBB0_97
	b	.LBB0_93
.LBB0_93:
	ldr	r0, [sp, #56]                   @ 4-byte Reload
	cmp.w	r0, #8192
	beq	.LBB0_98
	b	.LBB0_94
.LBB0_94:
	ldr	r0, [sp, #56]                   @ 4-byte Reload
	cmp.w	r0, #12288
	beq	.LBB0_99
	b	.LBB0_95
.LBB0_95:
	ldr	r0, [sp, #56]                   @ 4-byte Reload
	cmp.w	r0, #16384
	beq	.LBB0_100
	b	.LBB0_101
.LBB0_96:
	.loc	5 0 5                           @ libraries/STM32H7xx_HAL/STM32H7xx_HAL_Driver/Src/stm32h7xx_hal_rcc_ex.c:0:5
	movw	r1, #17452
	movt	r1, #22530
.Ltmp58:
	.loc	5 422 7 is_stmt 1               @ libraries/STM32H7xx_HAL/STM32H7xx_HAL_Driver/Src/stm32h7xx_hal_rcc_ex.c:422:7
	ldr	r0, [r1]
	orr	r0, r0, #131072
	str	r0, [r1]
	.loc	5 425 7                         @ libraries/STM32H7xx_HAL/STM32H7xx_HAL_Driver/Src/stm32h7xx_hal_rcc_ex.c:425:7
	b	.LBB0_102
.LBB0_97:
	.loc	5 428 33                        @ libraries/STM32H7xx_HAL/STM32H7xx_HAL_Driver/Src/stm32h7xx_hal_rcc_ex.c:428:33
	ldr	r0, [sp, #96]
	.loc	5 428 48 is_stmt 0              @ libraries/STM32H7xx_HAL/STM32H7xx_HAL_Driver/Src/stm32h7xx_hal_rcc_ex.c:428:48
	adds	r0, #4
	movs	r1, #0
	.loc	5 428 13                        @ libraries/STM32H7xx_HAL/STM32H7xx_HAL_Driver/Src/stm32h7xx_hal_rcc_ex.c:428:13
	bl	RCCEx_PLL2_Config
	.loc	5 428 11                        @ libraries/STM32H7xx_HAL/STM32H7xx_HAL_Driver/Src/stm32h7xx_hal_rcc_ex.c:428:11
	strb.w	r0, [sp, #87]
	.loc	5 431 7 is_stmt 1               @ libraries/STM32H7xx_HAL/STM32H7xx_HAL_Driver/Src/stm32h7xx_hal_rcc_ex.c:431:7
	b	.LBB0_102
.LBB0_98:
	.loc	5 434 33                        @ libraries/STM32H7xx_HAL/STM32H7xx_HAL_Driver/Src/stm32h7xx_hal_rcc_ex.c:434:33
	ldr	r0, [sp, #96]
	.loc	5 434 48 is_stmt 0              @ libraries/STM32H7xx_HAL/STM32H7xx_HAL_Driver/Src/stm32h7xx_hal_rcc_ex.c:434:48
	adds	r0, #36
	movs	r1, #0
	.loc	5 434 13                        @ libraries/STM32H7xx_HAL/STM32H7xx_HAL_Driver/Src/stm32h7xx_hal_rcc_ex.c:434:13
	bl	RCCEx_PLL3_Config
	.loc	5 434 11                        @ libraries/STM32H7xx_HAL/STM32H7xx_HAL_Driver/Src/stm32h7xx_hal_rcc_ex.c:434:11
	strb.w	r0, [sp, #87]
	.loc	5 437 7 is_stmt 1               @ libraries/STM32H7xx_HAL/STM32H7xx_HAL_Driver/Src/stm32h7xx_hal_rcc_ex.c:437:7
	b	.LBB0_102
.LBB0_99:
	.loc	5 442 7                         @ libraries/STM32H7xx_HAL/STM32H7xx_HAL_Driver/Src/stm32h7xx_hal_rcc_ex.c:442:7
	b	.LBB0_102
.LBB0_100:
	.loc	5 447 7                         @ libraries/STM32H7xx_HAL/STM32H7xx_HAL_Driver/Src/stm32h7xx_hal_rcc_ex.c:447:7
	b	.LBB0_102
.LBB0_101:
	.loc	5 0 7 is_stmt 0                 @ libraries/STM32H7xx_HAL/STM32H7xx_HAL_Driver/Src/stm32h7xx_hal_rcc_ex.c:0:7
	movs	r0, #1
	.loc	5 450 11 is_stmt 1              @ libraries/STM32H7xx_HAL/STM32H7xx_HAL_Driver/Src/stm32h7xx_hal_rcc_ex.c:450:11
	strb.w	r0, [sp, #87]
	.loc	5 451 7                         @ libraries/STM32H7xx_HAL/STM32H7xx_HAL_Driver/Src/stm32h7xx_hal_rcc_ex.c:451:7
	b	.LBB0_102
.Ltmp59:
.LBB0_102:
	.loc	5 454 8                         @ libraries/STM32H7xx_HAL/STM32H7xx_HAL_Driver/Src/stm32h7xx_hal_rcc_ex.c:454:8
	ldrb.w	r0, [sp, #87]
.Ltmp60:
	.loc	5 454 8 is_stmt 0               @ libraries/STM32H7xx_HAL/STM32H7xx_HAL_Driver/Src/stm32h7xx_hal_rcc_ex.c:454:8
	cbnz	r0, .LBB0_104
	b	.LBB0_103
.LBB0_103:
	.loc	5 0 8                           @ libraries/STM32H7xx_HAL/STM32H7xx_HAL_Driver/Src/stm32h7xx_hal_rcc_ex.c:0:8
	movw	r1, #17488
	movt	r1, #22530
.Ltmp61:
	.loc	5 457 7 is_stmt 1               @ libraries/STM32H7xx_HAL/STM32H7xx_HAL_Driver/Src/stm32h7xx_hal_rcc_ex.c:457:7
	ldr	r0, [r1]
	bic	r0, r0, #28672
	ldr	r2, [sp, #96]
	ldr	r2, [r2, #92]
	orrs	r0, r2
	str	r0, [r1]
	.loc	5 458 5                         @ libraries/STM32H7xx_HAL/STM32H7xx_HAL_Driver/Src/stm32h7xx_hal_rcc_ex.c:458:5
	b	.LBB0_105
.Ltmp62:
.LBB0_104:
	.loc	5 462 16                        @ libraries/STM32H7xx_HAL/STM32H7xx_HAL_Driver/Src/stm32h7xx_hal_rcc_ex.c:462:16
	ldrb.w	r0, [sp, #87]
	.loc	5 462 14 is_stmt 0              @ libraries/STM32H7xx_HAL/STM32H7xx_HAL_Driver/Src/stm32h7xx_hal_rcc_ex.c:462:14
	strb.w	r0, [sp, #86]
	b	.LBB0_105
.Ltmp63:
.LBB0_105:
	.loc	5 464 3 is_stmt 1               @ libraries/STM32H7xx_HAL/STM32H7xx_HAL_Driver/Src/stm32h7xx_hal_rcc_ex.c:464:3
	b	.LBB0_106
.Ltmp64:
.LBB0_106:
	.loc	5 467 8                         @ libraries/STM32H7xx_HAL/STM32H7xx_HAL_Driver/Src/stm32h7xx_hal_rcc_ex.c:467:8
	ldr	r0, [sp, #96]
.Ltmp65:
	.loc	5 467 6 is_stmt 0               @ libraries/STM32H7xx_HAL/STM32H7xx_HAL_Driver/Src/stm32h7xx_hal_rcc_ex.c:467:6
	ldrb	r0, [r0, #1]
	lsls	r0, r0, #26
	cmp	r0, #0
	bpl	.LBB0_124
	b	.LBB0_107
.LBB0_107:
.Ltmp66:
	.loc	5 469 12 is_stmt 1              @ libraries/STM32H7xx_HAL/STM32H7xx_HAL_Driver/Src/stm32h7xx_hal_rcc_ex.c:469:12
	ldr	r0, [sp, #96]
	.loc	5 469 27 is_stmt 0              @ libraries/STM32H7xx_HAL/STM32H7xx_HAL_Driver/Src/stm32h7xx_hal_rcc_ex.c:469:27
	ldr	r0, [r0, #96]
	.loc	5 469 5                         @ libraries/STM32H7xx_HAL/STM32H7xx_HAL_Driver/Src/stm32h7xx_hal_rcc_ex.c:469:5
	str	r0, [sp, #52]                   @ 4-byte Spill
	cbz	r0, .LBB0_113
	b	.LBB0_108
.LBB0_108:
	ldr	r0, [sp, #52]                   @ 4-byte Reload
	cmp.w	r0, #65536
	beq	.LBB0_114
	b	.LBB0_109
.LBB0_109:
	ldr	r0, [sp, #52]                   @ 4-byte Reload
	cmp.w	r0, #131072
	beq	.LBB0_115
	b	.LBB0_110
.LBB0_110:
	ldr	r0, [sp, #52]                   @ 4-byte Reload
	cmp.w	r0, #196608
	beq	.LBB0_116
	b	.LBB0_111
.LBB0_111:
	ldr	r0, [sp, #52]                   @ 4-byte Reload
	cmp.w	r0, #262144
	beq	.LBB0_117
	b	.LBB0_112
.LBB0_112:
	ldr	r0, [sp, #52]                   @ 4-byte Reload
	cmp.w	r0, #327680
	beq	.LBB0_118
	b	.LBB0_119
.LBB0_113:
.Ltmp67:
	.loc	5 473 7 is_stmt 1               @ libraries/STM32H7xx_HAL/STM32H7xx_HAL_Driver/Src/stm32h7xx_hal_rcc_ex.c:473:7
	b	.LBB0_120
.LBB0_114:
	.loc	5 477 33                        @ libraries/STM32H7xx_HAL/STM32H7xx_HAL_Driver/Src/stm32h7xx_hal_rcc_ex.c:477:33
	ldr	r0, [sp, #96]
	.loc	5 477 48 is_stmt 0              @ libraries/STM32H7xx_HAL/STM32H7xx_HAL_Driver/Src/stm32h7xx_hal_rcc_ex.c:477:48
	adds	r0, #4
	movs	r1, #1
	.loc	5 477 13                        @ libraries/STM32H7xx_HAL/STM32H7xx_HAL_Driver/Src/stm32h7xx_hal_rcc_ex.c:477:13
	bl	RCCEx_PLL2_Config
	.loc	5 477 11                        @ libraries/STM32H7xx_HAL/STM32H7xx_HAL_Driver/Src/stm32h7xx_hal_rcc_ex.c:477:11
	strb.w	r0, [sp, #87]
	.loc	5 480 7 is_stmt 1               @ libraries/STM32H7xx_HAL/STM32H7xx_HAL_Driver/Src/stm32h7xx_hal_rcc_ex.c:480:7
	b	.LBB0_120
.LBB0_115:
	.loc	5 482 33                        @ libraries/STM32H7xx_HAL/STM32H7xx_HAL_Driver/Src/stm32h7xx_hal_rcc_ex.c:482:33
	ldr	r0, [sp, #96]
	.loc	5 482 48 is_stmt 0              @ libraries/STM32H7xx_HAL/STM32H7xx_HAL_Driver/Src/stm32h7xx_hal_rcc_ex.c:482:48
	adds	r0, #36
	movs	r1, #1
	.loc	5 482 13                        @ libraries/STM32H7xx_HAL/STM32H7xx_HAL_Driver/Src/stm32h7xx_hal_rcc_ex.c:482:13
	bl	RCCEx_PLL3_Config
	.loc	5 482 11                        @ libraries/STM32H7xx_HAL/STM32H7xx_HAL_Driver/Src/stm32h7xx_hal_rcc_ex.c:482:11
	strb.w	r0, [sp, #87]
	.loc	5 484 7 is_stmt 1               @ libraries/STM32H7xx_HAL/STM32H7xx_HAL_Driver/Src/stm32h7xx_hal_rcc_ex.c:484:7
	b	.LBB0_120
.LBB0_116:
	.loc	5 489 7                         @ libraries/STM32H7xx_HAL/STM32H7xx_HAL_Driver/Src/stm32h7xx_hal_rcc_ex.c:489:7
	b	.LBB0_120
.LBB0_117:
	.loc	5 494 7                         @ libraries/STM32H7xx_HAL/STM32H7xx_HAL_Driver/Src/stm32h7xx_hal_rcc_ex.c:494:7
	b	.LBB0_120
.LBB0_118:
	.loc	5 499 7                         @ libraries/STM32H7xx_HAL/STM32H7xx_HAL_Driver/Src/stm32h7xx_hal_rcc_ex.c:499:7
	b	.LBB0_120
.LBB0_119:
	.loc	5 0 7 is_stmt 0                 @ libraries/STM32H7xx_HAL/STM32H7xx_HAL_Driver/Src/stm32h7xx_hal_rcc_ex.c:0:7
	movs	r0, #1
	.loc	5 502 11 is_stmt 1              @ libraries/STM32H7xx_HAL/STM32H7xx_HAL_Driver/Src/stm32h7xx_hal_rcc_ex.c:502:11
	strb.w	r0, [sp, #87]
	.loc	5 503 7                         @ libraries/STM32H7xx_HAL/STM32H7xx_HAL_Driver/Src/stm32h7xx_hal_rcc_ex.c:503:7
	b	.LBB0_120
.Ltmp68:
.LBB0_120:
	.loc	5 506 8                         @ libraries/STM32H7xx_HAL/STM32H7xx_HAL_Driver/Src/stm32h7xx_hal_rcc_ex.c:506:8
	ldrb.w	r0, [sp, #87]
.Ltmp69:
	.loc	5 506 8 is_stmt 0               @ libraries/STM32H7xx_HAL/STM32H7xx_HAL_Driver/Src/stm32h7xx_hal_rcc_ex.c:506:8
	cbnz	r0, .LBB0_122
	b	.LBB0_121
.LBB0_121:
	.loc	5 0 8                           @ libraries/STM32H7xx_HAL/STM32H7xx_HAL_Driver/Src/stm32h7xx_hal_rcc_ex.c:0:8
	movw	r1, #17488
	movt	r1, #22530
.Ltmp70:
	.loc	5 509 7 is_stmt 1               @ libraries/STM32H7xx_HAL/STM32H7xx_HAL_Driver/Src/stm32h7xx_hal_rcc_ex.c:509:7
	ldr	r0, [r1]
	bic	r0, r0, #458752
	ldr	r2, [sp, #96]
	ldr	r2, [r2, #96]
	orrs	r0, r2
	str	r0, [r1]
	.loc	5 510 5                         @ libraries/STM32H7xx_HAL/STM32H7xx_HAL_Driver/Src/stm32h7xx_hal_rcc_ex.c:510:5
	b	.LBB0_123
.Ltmp71:
.LBB0_122:
	.loc	5 514 16                        @ libraries/STM32H7xx_HAL/STM32H7xx_HAL_Driver/Src/stm32h7xx_hal_rcc_ex.c:514:16
	ldrb.w	r0, [sp, #87]
	.loc	5 514 14 is_stmt 0              @ libraries/STM32H7xx_HAL/STM32H7xx_HAL_Driver/Src/stm32h7xx_hal_rcc_ex.c:514:14
	strb.w	r0, [sp, #86]
	b	.LBB0_123
.Ltmp72:
.LBB0_123:
	.loc	5 516 3 is_stmt 1               @ libraries/STM32H7xx_HAL/STM32H7xx_HAL_Driver/Src/stm32h7xx_hal_rcc_ex.c:516:3
	b	.LBB0_124
.Ltmp73:
.LBB0_124:
	.loc	5 519 8                         @ libraries/STM32H7xx_HAL/STM32H7xx_HAL_Driver/Src/stm32h7xx_hal_rcc_ex.c:519:8
	ldr	r0, [sp, #96]
.Ltmp74:
	.loc	5 519 6 is_stmt 0               @ libraries/STM32H7xx_HAL/STM32H7xx_HAL_Driver/Src/stm32h7xx_hal_rcc_ex.c:519:6
	ldrb	r0, [r0, #1]
	lsls	r0, r0, #25
	cmp	r0, #0
	bpl	.LBB0_142
	b	.LBB0_125
.LBB0_125:
.Ltmp75:
	.loc	5 521 12 is_stmt 1              @ libraries/STM32H7xx_HAL/STM32H7xx_HAL_Driver/Src/stm32h7xx_hal_rcc_ex.c:521:12
	ldr	r0, [sp, #96]
	.loc	5 521 27 is_stmt 0              @ libraries/STM32H7xx_HAL/STM32H7xx_HAL_Driver/Src/stm32h7xx_hal_rcc_ex.c:521:27
	ldr.w	r0, [r0, #172]
	.loc	5 521 5                         @ libraries/STM32H7xx_HAL/STM32H7xx_HAL_Driver/Src/stm32h7xx_hal_rcc_ex.c:521:5
	str	r0, [sp, #48]                   @ 4-byte Spill
	cbz	r0, .LBB0_131
	b	.LBB0_126
.LBB0_126:
	ldr	r0, [sp, #48]                   @ 4-byte Reload
	cmp.w	r0, #268435456
	beq	.LBB0_132
	b	.LBB0_127
.LBB0_127:
	ldr	r0, [sp, #48]                   @ 4-byte Reload
	cmp.w	r0, #536870912
	beq	.LBB0_133
	b	.LBB0_128
.LBB0_128:
	ldr	r0, [sp, #48]                   @ 4-byte Reload
	cmp.w	r0, #805306368
	beq	.LBB0_134
	b	.LBB0_129
.LBB0_129:
	ldr	r0, [sp, #48]                   @ 4-byte Reload
	cmp.w	r0, #1073741824
	beq	.LBB0_135
	b	.LBB0_130
.LBB0_130:
	ldr	r0, [sp, #48]                   @ 4-byte Reload
	cmp.w	r0, #1342177280
	beq	.LBB0_136
	b	.LBB0_137
.LBB0_131:
.Ltmp76:
	.loc	5 525 7 is_stmt 1               @ libraries/STM32H7xx_HAL/STM32H7xx_HAL_Driver/Src/stm32h7xx_hal_rcc_ex.c:525:7
	b	.LBB0_138
.LBB0_132:
	.loc	5 529 33                        @ libraries/STM32H7xx_HAL/STM32H7xx_HAL_Driver/Src/stm32h7xx_hal_rcc_ex.c:529:33
	ldr	r0, [sp, #96]
	.loc	5 529 48 is_stmt 0              @ libraries/STM32H7xx_HAL/STM32H7xx_HAL_Driver/Src/stm32h7xx_hal_rcc_ex.c:529:48
	adds	r0, #4
	movs	r1, #1
	.loc	5 529 13                        @ libraries/STM32H7xx_HAL/STM32H7xx_HAL_Driver/Src/stm32h7xx_hal_rcc_ex.c:529:13
	bl	RCCEx_PLL2_Config
	.loc	5 529 11                        @ libraries/STM32H7xx_HAL/STM32H7xx_HAL_Driver/Src/stm32h7xx_hal_rcc_ex.c:529:11
	strb.w	r0, [sp, #87]
	.loc	5 532 7 is_stmt 1               @ libraries/STM32H7xx_HAL/STM32H7xx_HAL_Driver/Src/stm32h7xx_hal_rcc_ex.c:532:7
	b	.LBB0_138
.LBB0_133:
	.loc	5 534 33                        @ libraries/STM32H7xx_HAL/STM32H7xx_HAL_Driver/Src/stm32h7xx_hal_rcc_ex.c:534:33
	ldr	r0, [sp, #96]
	.loc	5 534 48 is_stmt 0              @ libraries/STM32H7xx_HAL/STM32H7xx_HAL_Driver/Src/stm32h7xx_hal_rcc_ex.c:534:48
	adds	r0, #36
	movs	r1, #1
	.loc	5 534 13                        @ libraries/STM32H7xx_HAL/STM32H7xx_HAL_Driver/Src/stm32h7xx_hal_rcc_ex.c:534:13
	bl	RCCEx_PLL3_Config
	.loc	5 534 11                        @ libraries/STM32H7xx_HAL/STM32H7xx_HAL_Driver/Src/stm32h7xx_hal_rcc_ex.c:534:11
	strb.w	r0, [sp, #87]
	.loc	5 536 7 is_stmt 1               @ libraries/STM32H7xx_HAL/STM32H7xx_HAL_Driver/Src/stm32h7xx_hal_rcc_ex.c:536:7
	b	.LBB0_138
.LBB0_134:
	.loc	5 541 7                         @ libraries/STM32H7xx_HAL/STM32H7xx_HAL_Driver/Src/stm32h7xx_hal_rcc_ex.c:541:7
	b	.LBB0_138
.LBB0_135:
	.loc	5 546 7                         @ libraries/STM32H7xx_HAL/STM32H7xx_HAL_Driver/Src/stm32h7xx_hal_rcc_ex.c:546:7
	b	.LBB0_138
.LBB0_136:
	.loc	5 551 7                         @ libraries/STM32H7xx_HAL/STM32H7xx_HAL_Driver/Src/stm32h7xx_hal_rcc_ex.c:551:7
	b	.LBB0_138
.LBB0_137:
	.loc	5 0 7 is_stmt 0                 @ libraries/STM32H7xx_HAL/STM32H7xx_HAL_Driver/Src/stm32h7xx_hal_rcc_ex.c:0:7
	movs	r0, #1
	.loc	5 554 11 is_stmt 1              @ libraries/STM32H7xx_HAL/STM32H7xx_HAL_Driver/Src/stm32h7xx_hal_rcc_ex.c:554:11
	strb.w	r0, [sp, #87]
	.loc	5 555 7                         @ libraries/STM32H7xx_HAL/STM32H7xx_HAL_Driver/Src/stm32h7xx_hal_rcc_ex.c:555:7
	b	.LBB0_138
.Ltmp77:
.LBB0_138:
	.loc	5 558 8                         @ libraries/STM32H7xx_HAL/STM32H7xx_HAL_Driver/Src/stm32h7xx_hal_rcc_ex.c:558:8
	ldrb.w	r0, [sp, #87]
.Ltmp78:
	.loc	5 558 8 is_stmt 0               @ libraries/STM32H7xx_HAL/STM32H7xx_HAL_Driver/Src/stm32h7xx_hal_rcc_ex.c:558:8
	cbnz	r0, .LBB0_140
	b	.LBB0_139
.LBB0_139:
	.loc	5 0 8                           @ libraries/STM32H7xx_HAL/STM32H7xx_HAL_Driver/Src/stm32h7xx_hal_rcc_ex.c:0:8
	movw	r1, #17496
	movt	r1, #22530
.Ltmp79:
	.loc	5 561 7 is_stmt 1               @ libraries/STM32H7xx_HAL/STM32H7xx_HAL_Driver/Src/stm32h7xx_hal_rcc_ex.c:561:7
	ldr	r0, [r1]
	bic	r0, r0, #1879048192
	ldr	r2, [sp, #96]
	ldr.w	r2, [r2, #172]
	orrs	r0, r2
	str	r0, [r1]
	.loc	5 562 5                         @ libraries/STM32H7xx_HAL/STM32H7xx_HAL_Driver/Src/stm32h7xx_hal_rcc_ex.c:562:5
	b	.LBB0_141
.Ltmp80:
.LBB0_140:
	.loc	5 566 16                        @ libraries/STM32H7xx_HAL/STM32H7xx_HAL_Driver/Src/stm32h7xx_hal_rcc_ex.c:566:16
	ldrb.w	r0, [sp, #87]
	.loc	5 566 14 is_stmt 0              @ libraries/STM32H7xx_HAL/STM32H7xx_HAL_Driver/Src/stm32h7xx_hal_rcc_ex.c:566:14
	strb.w	r0, [sp, #86]
	b	.LBB0_141
.Ltmp81:
.LBB0_141:
	.loc	5 568 3 is_stmt 1               @ libraries/STM32H7xx_HAL/STM32H7xx_HAL_Driver/Src/stm32h7xx_hal_rcc_ex.c:568:3
	b	.LBB0_142
.Ltmp82:
.LBB0_142:
	.loc	5 609 8                         @ libraries/STM32H7xx_HAL/STM32H7xx_HAL_Driver/Src/stm32h7xx_hal_rcc_ex.c:609:8
	ldr	r0, [sp, #96]
.Ltmp83:
	.loc	5 609 6 is_stmt 0               @ libraries/STM32H7xx_HAL/STM32H7xx_HAL_Driver/Src/stm32h7xx_hal_rcc_ex.c:609:6
	ldrb	r0, [r0, #1]
	lsls	r0, r0, #24
	cmp	r0, #0
	bpl	.LBB0_154
	b	.LBB0_143
.LBB0_143:
.Ltmp84:
	.loc	5 611 12 is_stmt 1              @ libraries/STM32H7xx_HAL/STM32H7xx_HAL_Driver/Src/stm32h7xx_hal_rcc_ex.c:611:12
	ldr	r0, [sp, #96]
	.loc	5 611 27 is_stmt 0              @ libraries/STM32H7xx_HAL/STM32H7xx_HAL_Driver/Src/stm32h7xx_hal_rcc_ex.c:611:27
	ldr	r0, [r0, #108]
	.loc	5 611 5                         @ libraries/STM32H7xx_HAL/STM32H7xx_HAL_Driver/Src/stm32h7xx_hal_rcc_ex.c:611:5
	str	r0, [sp, #44]                   @ 4-byte Spill
	cbz	r0, .LBB0_148
	b	.LBB0_144
.LBB0_144:
	ldr	r0, [sp, #44]                   @ 4-byte Reload
	cmp.w	r0, #268435456
	beq	.LBB0_146
	b	.LBB0_145
.LBB0_145:
	ldr	r0, [sp, #44]                   @ 4-byte Reload
	cmp.w	r0, #536870912
	beq	.LBB0_147
	b	.LBB0_149
.LBB0_146:
	.loc	5 0 5                           @ libraries/STM32H7xx_HAL/STM32H7xx_HAL_Driver/Src/stm32h7xx_hal_rcc_ex.c:0:5
	movw	r1, #17452
	movt	r1, #22530
.Ltmp85:
	.loc	5 615 7 is_stmt 1               @ libraries/STM32H7xx_HAL/STM32H7xx_HAL_Driver/Src/stm32h7xx_hal_rcc_ex.c:615:7
	ldr	r0, [r1]
	orr	r0, r0, #131072
	str	r0, [r1]
	.loc	5 618 7                         @ libraries/STM32H7xx_HAL/STM32H7xx_HAL_Driver/Src/stm32h7xx_hal_rcc_ex.c:618:7
	b	.LBB0_150
.LBB0_147:
	.loc	5 622 33                        @ libraries/STM32H7xx_HAL/STM32H7xx_HAL_Driver/Src/stm32h7xx_hal_rcc_ex.c:622:33
	ldr	r0, [sp, #96]
	.loc	5 622 48 is_stmt 0              @ libraries/STM32H7xx_HAL/STM32H7xx_HAL_Driver/Src/stm32h7xx_hal_rcc_ex.c:622:48
	adds	r0, #4
	movs	r1, #1
	.loc	5 622 13                        @ libraries/STM32H7xx_HAL/STM32H7xx_HAL_Driver/Src/stm32h7xx_hal_rcc_ex.c:622:13
	bl	RCCEx_PLL2_Config
	.loc	5 622 11                        @ libraries/STM32H7xx_HAL/STM32H7xx_HAL_Driver/Src/stm32h7xx_hal_rcc_ex.c:622:11
	strb.w	r0, [sp, #87]
	.loc	5 625 7 is_stmt 1               @ libraries/STM32H7xx_HAL/STM32H7xx_HAL_Driver/Src/stm32h7xx_hal_rcc_ex.c:625:7
	b	.LBB0_150
.LBB0_148:
	.loc	5 630 7                         @ libraries/STM32H7xx_HAL/STM32H7xx_HAL_Driver/Src/stm32h7xx_hal_rcc_ex.c:630:7
	b	.LBB0_150
.LBB0_149:
	.loc	5 0 7 is_stmt 0                 @ libraries/STM32H7xx_HAL/STM32H7xx_HAL_Driver/Src/stm32h7xx_hal_rcc_ex.c:0:7
	movs	r0, #1
	.loc	5 633 11 is_stmt 1              @ libraries/STM32H7xx_HAL/STM32H7xx_HAL_Driver/Src/stm32h7xx_hal_rcc_ex.c:633:11
	strb.w	r0, [sp, #87]
	.loc	5 634 7                         @ libraries/STM32H7xx_HAL/STM32H7xx_HAL_Driver/Src/stm32h7xx_hal_rcc_ex.c:634:7
	b	.LBB0_150
.Ltmp86:
.LBB0_150:
	.loc	5 637 8                         @ libraries/STM32H7xx_HAL/STM32H7xx_HAL_Driver/Src/stm32h7xx_hal_rcc_ex.c:637:8
	ldrb.w	r0, [sp, #87]
.Ltmp87:
	.loc	5 637 8 is_stmt 0               @ libraries/STM32H7xx_HAL/STM32H7xx_HAL_Driver/Src/stm32h7xx_hal_rcc_ex.c:637:8
	cbnz	r0, .LBB0_152
	b	.LBB0_151
.LBB0_151:
	.loc	5 0 8                           @ libraries/STM32H7xx_HAL/STM32H7xx_HAL_Driver/Src/stm32h7xx_hal_rcc_ex.c:0:8
	movw	r1, #17488
	movt	r1, #22530
.Ltmp88:
	.loc	5 640 7 is_stmt 1               @ libraries/STM32H7xx_HAL/STM32H7xx_HAL_Driver/Src/stm32h7xx_hal_rcc_ex.c:640:7
	ldr	r0, [r1]
	bic	r0, r0, #805306368
	ldr	r2, [sp, #96]
	ldr	r2, [r2, #108]
	orrs	r0, r2
	str	r0, [r1]
	.loc	5 641 5                         @ libraries/STM32H7xx_HAL/STM32H7xx_HAL_Driver/Src/stm32h7xx_hal_rcc_ex.c:641:5
	b	.LBB0_153
.Ltmp89:
.LBB0_152:
	.loc	5 645 16                        @ libraries/STM32H7xx_HAL/STM32H7xx_HAL_Driver/Src/stm32h7xx_hal_rcc_ex.c:645:16
	ldrb.w	r0, [sp, #87]
	.loc	5 645 14 is_stmt 0              @ libraries/STM32H7xx_HAL/STM32H7xx_HAL_Driver/Src/stm32h7xx_hal_rcc_ex.c:645:14
	strb.w	r0, [sp, #86]
	b	.LBB0_153
.Ltmp90:
.LBB0_153:
	.loc	5 647 3 is_stmt 1               @ libraries/STM32H7xx_HAL/STM32H7xx_HAL_Driver/Src/stm32h7xx_hal_rcc_ex.c:647:3
	b	.LBB0_154
.Ltmp91:
.LBB0_154:
	.loc	5 651 8                         @ libraries/STM32H7xx_HAL/STM32H7xx_HAL_Driver/Src/stm32h7xx_hal_rcc_ex.c:651:8
	ldr	r0, [sp, #96]
.Ltmp92:
	.loc	5 651 6 is_stmt 0               @ libraries/STM32H7xx_HAL/STM32H7xx_HAL_Driver/Src/stm32h7xx_hal_rcc_ex.c:651:6
	ldrb	r0, [r0, #3]
	lsls	r0, r0, #31
	cmp	r0, #0
	beq	.LBB0_167
	b	.LBB0_155
.LBB0_155:
.Ltmp93:
	.loc	5 653 12 is_stmt 1              @ libraries/STM32H7xx_HAL/STM32H7xx_HAL_Driver/Src/stm32h7xx_hal_rcc_ex.c:653:12
	ldr	r0, [sp, #96]
	.loc	5 653 27 is_stmt 0              @ libraries/STM32H7xx_HAL/STM32H7xx_HAL_Driver/Src/stm32h7xx_hal_rcc_ex.c:653:27
	ldr	r0, [r0, #68]
	.loc	5 653 5                         @ libraries/STM32H7xx_HAL/STM32H7xx_HAL_Driver/Src/stm32h7xx_hal_rcc_ex.c:653:5
	str	r0, [sp, #40]                   @ 4-byte Spill
	cmp	r0, #3
	bhi	.LBB0_162
@ %bb.156:
	.loc	5 0 5                           @ libraries/STM32H7xx_HAL/STM32H7xx_HAL_Driver/Src/stm32h7xx_hal_rcc_ex.c:0:5
	ldr	r1, [sp, #40]                   @ 4-byte Reload
.LCPI0_1:
	tbb	[pc, r1]
@ %bb.157:
.LJTI0_1:
	.byte	(.LBB0_161-(.LCPI0_1+4))/2
	.byte	(.LBB0_158-(.LCPI0_1+4))/2
	.byte	(.LBB0_159-(.LCPI0_1+4))/2
	.byte	(.LBB0_160-(.LCPI0_1+4))/2
	.p2align	1
.LBB0_158:
	movw	r1, #17452
	movt	r1, #22530
.Ltmp94:
	.loc	5 657 7 is_stmt 1               @ libraries/STM32H7xx_HAL/STM32H7xx_HAL_Driver/Src/stm32h7xx_hal_rcc_ex.c:657:7
	ldr	r0, [r1]
	orr	r0, r0, #131072
	str	r0, [r1]
	.loc	5 660 7                         @ libraries/STM32H7xx_HAL/STM32H7xx_HAL_Driver/Src/stm32h7xx_hal_rcc_ex.c:660:7
	b	.LBB0_163
.LBB0_159:
	.loc	5 664 33                        @ libraries/STM32H7xx_HAL/STM32H7xx_HAL_Driver/Src/stm32h7xx_hal_rcc_ex.c:664:33
	ldr	r0, [sp, #96]
	.loc	5 664 48 is_stmt 0              @ libraries/STM32H7xx_HAL/STM32H7xx_HAL_Driver/Src/stm32h7xx_hal_rcc_ex.c:664:48
	adds	r0, #4
	movs	r1, #2
	.loc	5 664 13                        @ libraries/STM32H7xx_HAL/STM32H7xx_HAL_Driver/Src/stm32h7xx_hal_rcc_ex.c:664:13
	bl	RCCEx_PLL2_Config
	.loc	5 664 11                        @ libraries/STM32H7xx_HAL/STM32H7xx_HAL_Driver/Src/stm32h7xx_hal_rcc_ex.c:664:11
	strb.w	r0, [sp, #87]
	.loc	5 667 7 is_stmt 1               @ libraries/STM32H7xx_HAL/STM32H7xx_HAL_Driver/Src/stm32h7xx_hal_rcc_ex.c:667:7
	b	.LBB0_163
.LBB0_160:
	.loc	5 673 7                         @ libraries/STM32H7xx_HAL/STM32H7xx_HAL_Driver/Src/stm32h7xx_hal_rcc_ex.c:673:7
	b	.LBB0_163
.LBB0_161:
	.loc	5 677 7                         @ libraries/STM32H7xx_HAL/STM32H7xx_HAL_Driver/Src/stm32h7xx_hal_rcc_ex.c:677:7
	b	.LBB0_163
.LBB0_162:
	.loc	5 0 7 is_stmt 0                 @ libraries/STM32H7xx_HAL/STM32H7xx_HAL_Driver/Src/stm32h7xx_hal_rcc_ex.c:0:7
	movs	r0, #1
	.loc	5 680 11 is_stmt 1              @ libraries/STM32H7xx_HAL/STM32H7xx_HAL_Driver/Src/stm32h7xx_hal_rcc_ex.c:680:11
	strb.w	r0, [sp, #87]
	.loc	5 681 7                         @ libraries/STM32H7xx_HAL/STM32H7xx_HAL_Driver/Src/stm32h7xx_hal_rcc_ex.c:681:7
	b	.LBB0_163
.Ltmp95:
.LBB0_163:
	.loc	5 684 8                         @ libraries/STM32H7xx_HAL/STM32H7xx_HAL_Driver/Src/stm32h7xx_hal_rcc_ex.c:684:8
	ldrb.w	r0, [sp, #87]
.Ltmp96:
	.loc	5 684 8 is_stmt 0               @ libraries/STM32H7xx_HAL/STM32H7xx_HAL_Driver/Src/stm32h7xx_hal_rcc_ex.c:684:8
	cbnz	r0, .LBB0_165
	b	.LBB0_164
.LBB0_164:
	.loc	5 0 8                           @ libraries/STM32H7xx_HAL/STM32H7xx_HAL_Driver/Src/stm32h7xx_hal_rcc_ex.c:0:8
	movw	r1, #17484
	movt	r1, #22530
.Ltmp97:
	.loc	5 687 7 is_stmt 1               @ libraries/STM32H7xx_HAL/STM32H7xx_HAL_Driver/Src/stm32h7xx_hal_rcc_ex.c:687:7
	ldr	r0, [r1]
	bic	r0, r0, #3
	ldr	r2, [sp, #96]
	ldr	r2, [r2, #68]
	orrs	r0, r2
	str	r0, [r1]
	.loc	5 688 5                         @ libraries/STM32H7xx_HAL/STM32H7xx_HAL_Driver/Src/stm32h7xx_hal_rcc_ex.c:688:5
	b	.LBB0_166
.Ltmp98:
.LBB0_165:
	.loc	5 692 16                        @ libraries/STM32H7xx_HAL/STM32H7xx_HAL_Driver/Src/stm32h7xx_hal_rcc_ex.c:692:16
	ldrb.w	r0, [sp, #87]
	.loc	5 692 14 is_stmt 0              @ libraries/STM32H7xx_HAL/STM32H7xx_HAL_Driver/Src/stm32h7xx_hal_rcc_ex.c:692:14
	strb.w	r0, [sp, #86]
	b	.LBB0_166
.Ltmp99:
.LBB0_166:
	.loc	5 694 3 is_stmt 1               @ libraries/STM32H7xx_HAL/STM32H7xx_HAL_Driver/Src/stm32h7xx_hal_rcc_ex.c:694:3
	b	.LBB0_167
.Ltmp100:
.LBB0_167:
	.loc	5 697 8                         @ libraries/STM32H7xx_HAL/STM32H7xx_HAL_Driver/Src/stm32h7xx_hal_rcc_ex.c:697:8
	ldr	r0, [sp, #96]
.Ltmp101:
	.loc	5 697 6 is_stmt 0               @ libraries/STM32H7xx_HAL/STM32H7xx_HAL_Driver/Src/stm32h7xx_hal_rcc_ex.c:697:6
	ldrb	r0, [r0, #2]
	lsls	r0, r0, #25
	cmp	r0, #0
	bpl.w	.LBB0_194
	b	.LBB0_168
.LBB0_168:
	.loc	5 0 6                           @ libraries/STM32H7xx_HAL/STM32H7xx_HAL_Driver/Src/stm32h7xx_hal_rcc_ex.c:0:6
	movw	r1, #18432
	movt	r1, #22530
.Ltmp102:
	.loc	5 703 5 is_stmt 1               @ libraries/STM32H7xx_HAL/STM32H7xx_HAL_Driver/Src/stm32h7xx_hal_rcc_ex.c:703:5
	ldr	r0, [r1]
	orr	r0, r0, #256
	str	r0, [r1]
	.loc	5 706 17                        @ libraries/STM32H7xx_HAL/STM32H7xx_HAL_Driver/Src/stm32h7xx_hal_rcc_ex.c:706:17
	bl	HAL_GetTick
	.loc	5 706 15 is_stmt 0              @ libraries/STM32H7xx_HAL/STM32H7xx_HAL_Driver/Src/stm32h7xx_hal_rcc_ex.c:706:15
	str	r0, [sp, #88]
	.loc	5 708 5 is_stmt 1               @ libraries/STM32H7xx_HAL/STM32H7xx_HAL_Driver/Src/stm32h7xx_hal_rcc_ex.c:708:5
	b	.LBB0_169
.LBB0_169:                              @ =>This Inner Loop Header: Depth=1
	.loc	5 0 5 is_stmt 0                 @ libraries/STM32H7xx_HAL/STM32H7xx_HAL_Driver/Src/stm32h7xx_hal_rcc_ex.c:0:5
	movw	r0, #18432
	movt	r0, #22530
	.loc	5 708 17                        @ libraries/STM32H7xx_HAL/STM32H7xx_HAL_Driver/Src/stm32h7xx_hal_rcc_ex.c:708:17
	ldr	r0, [r0]
	.loc	5 708 5                         @ libraries/STM32H7xx_HAL/STM32H7xx_HAL_Driver/Src/stm32h7xx_hal_rcc_ex.c:708:5
	lsls	r0, r0, #23
	cmp	r0, #0
	bmi	.LBB0_173
	b	.LBB0_170
.LBB0_170:                              @   in Loop: Header=BB0_169 Depth=1
.Ltmp103:
	.loc	5 710 11 is_stmt 1              @ libraries/STM32H7xx_HAL/STM32H7xx_HAL_Driver/Src/stm32h7xx_hal_rcc_ex.c:710:11
	bl	HAL_GetTick
	.loc	5 710 27 is_stmt 0              @ libraries/STM32H7xx_HAL/STM32H7xx_HAL_Driver/Src/stm32h7xx_hal_rcc_ex.c:710:27
	ldr	r1, [sp, #88]
	.loc	5 710 25                        @ libraries/STM32H7xx_HAL/STM32H7xx_HAL_Driver/Src/stm32h7xx_hal_rcc_ex.c:710:25
	subs	r0, r0, r1
.Ltmp104:
	.loc	5 710 10                        @ libraries/STM32H7xx_HAL/STM32H7xx_HAL_Driver/Src/stm32h7xx_hal_rcc_ex.c:710:10
	cmp	r0, #101
	blo	.LBB0_172
	b	.LBB0_171
.LBB0_171:
	.loc	5 0 10                          @ libraries/STM32H7xx_HAL/STM32H7xx_HAL_Driver/Src/stm32h7xx_hal_rcc_ex.c:0:10
	movs	r0, #3
.Ltmp105:
	.loc	5 712 13 is_stmt 1              @ libraries/STM32H7xx_HAL/STM32H7xx_HAL_Driver/Src/stm32h7xx_hal_rcc_ex.c:712:13
	strb.w	r0, [sp, #87]
	.loc	5 713 9                         @ libraries/STM32H7xx_HAL/STM32H7xx_HAL_Driver/Src/stm32h7xx_hal_rcc_ex.c:713:9
	b	.LBB0_173
.Ltmp106:
.LBB0_172:                              @   in Loop: Header=BB0_169 Depth=1
	.loc	5 708 5                         @ libraries/STM32H7xx_HAL/STM32H7xx_HAL_Driver/Src/stm32h7xx_hal_rcc_ex.c:708:5
	b	.LBB0_169
.LBB0_173:
.Ltmp107:
	.loc	5 717 8                         @ libraries/STM32H7xx_HAL/STM32H7xx_HAL_Driver/Src/stm32h7xx_hal_rcc_ex.c:717:8
	ldrb.w	r0, [sp, #87]
.Ltmp108:
	.loc	5 717 8 is_stmt 0               @ libraries/STM32H7xx_HAL/STM32H7xx_HAL_Driver/Src/stm32h7xx_hal_rcc_ex.c:717:8
	cmp	r0, #0
	bne.w	.LBB0_192
	b	.LBB0_174
.LBB0_174:
	.loc	5 0 8                           @ libraries/STM32H7xx_HAL/STM32H7xx_HAL_Driver/Src/stm32h7xx_hal_rcc_ex.c:0:8
	movw	r0, #17520
	movt	r0, #22530
.Ltmp109:
	.loc	5 720 16 is_stmt 1              @ libraries/STM32H7xx_HAL/STM32H7xx_HAL_Driver/Src/stm32h7xx_hal_rcc_ex.c:720:16
	ldr	r0, [r0]
	.loc	5 720 21 is_stmt 0              @ libraries/STM32H7xx_HAL/STM32H7xx_HAL_Driver/Src/stm32h7xx_hal_rcc_ex.c:720:21
	and	r0, r0, #768
	.loc	5 720 44                        @ libraries/STM32H7xx_HAL/STM32H7xx_HAL_Driver/Src/stm32h7xx_hal_rcc_ex.c:720:44
	ldr	r1, [sp, #96]
	.loc	5 720 59                        @ libraries/STM32H7xx_HAL/STM32H7xx_HAL_Driver/Src/stm32h7xx_hal_rcc_ex.c:720:59
	ldr.w	r1, [r1, #176]
	.loc	5 720 77                        @ libraries/STM32H7xx_HAL/STM32H7xx_HAL_Driver/Src/stm32h7xx_hal_rcc_ex.c:720:77
	and	r1, r1, #768
.Ltmp110:
	.loc	5 720 10                        @ libraries/STM32H7xx_HAL/STM32H7xx_HAL_Driver/Src/stm32h7xx_hal_rcc_ex.c:720:10
	cmp	r0, r1
	beq	.LBB0_176
	b	.LBB0_175
.LBB0_175:
	.loc	5 0 10                          @ libraries/STM32H7xx_HAL/STM32H7xx_HAL_Driver/Src/stm32h7xx_hal_rcc_ex.c:0:10
	movw	r1, #17520
	movt	r1, #22530
.Ltmp111:
	.loc	5 723 24 is_stmt 1              @ libraries/STM32H7xx_HAL/STM32H7xx_HAL_Driver/Src/stm32h7xx_hal_rcc_ex.c:723:24
	ldr	r0, [r1]
	.loc	5 723 29 is_stmt 0              @ libraries/STM32H7xx_HAL/STM32H7xx_HAL_Driver/Src/stm32h7xx_hal_rcc_ex.c:723:29
	bic	r0, r0, #768
	.loc	5 723 16                        @ libraries/STM32H7xx_HAL/STM32H7xx_HAL_Driver/Src/stm32h7xx_hal_rcc_ex.c:723:16
	str	r0, [sp, #92]
	.loc	5 725 9 is_stmt 1               @ libraries/STM32H7xx_HAL/STM32H7xx_HAL_Driver/Src/stm32h7xx_hal_rcc_ex.c:725:9
	ldr	r0, [r1]
	orr	r0, r0, #65536
	str	r0, [r1]
	.loc	5 726 9                         @ libraries/STM32H7xx_HAL/STM32H7xx_HAL_Driver/Src/stm32h7xx_hal_rcc_ex.c:726:9
	ldr	r0, [r1]
	bic	r0, r0, #65536
	str	r0, [r1]
	.loc	5 728 21                        @ libraries/STM32H7xx_HAL/STM32H7xx_HAL_Driver/Src/stm32h7xx_hal_rcc_ex.c:728:21
	ldr	r0, [sp, #92]
	.loc	5 728 19 is_stmt 0              @ libraries/STM32H7xx_HAL/STM32H7xx_HAL_Driver/Src/stm32h7xx_hal_rcc_ex.c:728:19
	str	r0, [r1]
	.loc	5 729 7 is_stmt 1               @ libraries/STM32H7xx_HAL/STM32H7xx_HAL_Driver/Src/stm32h7xx_hal_rcc_ex.c:729:7
	b	.LBB0_176
.Ltmp112:
.LBB0_176:
	.loc	5 732 10                        @ libraries/STM32H7xx_HAL/STM32H7xx_HAL_Driver/Src/stm32h7xx_hal_rcc_ex.c:732:10
	ldr	r0, [sp, #96]
	.loc	5 732 25 is_stmt 0              @ libraries/STM32H7xx_HAL/STM32H7xx_HAL_Driver/Src/stm32h7xx_hal_rcc_ex.c:732:25
	ldr.w	r0, [r0, #176]
.Ltmp113:
	.loc	5 732 10                        @ libraries/STM32H7xx_HAL/STM32H7xx_HAL_Driver/Src/stm32h7xx_hal_rcc_ex.c:732:10
	cmp.w	r0, #256
	bne	.LBB0_183
	b	.LBB0_177
.LBB0_177:
.Ltmp114:
	.loc	5 735 21 is_stmt 1              @ libraries/STM32H7xx_HAL/STM32H7xx_HAL_Driver/Src/stm32h7xx_hal_rcc_ex.c:735:21
	bl	HAL_GetTick
	.loc	5 735 19 is_stmt 0              @ libraries/STM32H7xx_HAL/STM32H7xx_HAL_Driver/Src/stm32h7xx_hal_rcc_ex.c:735:19
	str	r0, [sp, #88]
	.loc	5 738 9 is_stmt 1               @ libraries/STM32H7xx_HAL/STM32H7xx_HAL_Driver/Src/stm32h7xx_hal_rcc_ex.c:738:9
	b	.LBB0_178
.LBB0_178:                              @ =>This Inner Loop Header: Depth=1
	.loc	5 0 9 is_stmt 0                 @ libraries/STM32H7xx_HAL/STM32H7xx_HAL_Driver/Src/stm32h7xx_hal_rcc_ex.c:0:9
	movw	r0, #17520
	movt	r0, #22530
	.loc	5 738 15                        @ libraries/STM32H7xx_HAL/STM32H7xx_HAL_Driver/Src/stm32h7xx_hal_rcc_ex.c:738:15
	ldr	r0, [r0]
	and	r1, r0, #2
	movs	r0, #0
	.loc	5 738 9                         @ libraries/STM32H7xx_HAL/STM32H7xx_HAL_Driver/Src/stm32h7xx_hal_rcc_ex.c:738:9
	cmp.w	r0, r1, lsr #1
	bne	.LBB0_182
	b	.LBB0_179
.LBB0_179:                              @   in Loop: Header=BB0_178 Depth=1
.Ltmp115:
	.loc	5 740 15 is_stmt 1              @ libraries/STM32H7xx_HAL/STM32H7xx_HAL_Driver/Src/stm32h7xx_hal_rcc_ex.c:740:15
	bl	HAL_GetTick
	.loc	5 740 31 is_stmt 0              @ libraries/STM32H7xx_HAL/STM32H7xx_HAL_Driver/Src/stm32h7xx_hal_rcc_ex.c:740:31
	ldr	r1, [sp, #88]
	.loc	5 740 29                        @ libraries/STM32H7xx_HAL/STM32H7xx_HAL_Driver/Src/stm32h7xx_hal_rcc_ex.c:740:29
	subs	r0, r0, r1
	movw	r1, #5001
.Ltmp116:
	.loc	5 740 14                        @ libraries/STM32H7xx_HAL/STM32H7xx_HAL_Driver/Src/stm32h7xx_hal_rcc_ex.c:740:14
	cmp	r0, r1
	blo	.LBB0_181
	b	.LBB0_180
.LBB0_180:
	.loc	5 0 14                          @ libraries/STM32H7xx_HAL/STM32H7xx_HAL_Driver/Src/stm32h7xx_hal_rcc_ex.c:0:14
	movs	r0, #3
.Ltmp117:
	.loc	5 742 17 is_stmt 1              @ libraries/STM32H7xx_HAL/STM32H7xx_HAL_Driver/Src/stm32h7xx_hal_rcc_ex.c:742:17
	strb.w	r0, [sp, #87]
	.loc	5 743 13                        @ libraries/STM32H7xx_HAL/STM32H7xx_HAL_Driver/Src/stm32h7xx_hal_rcc_ex.c:743:13
	b	.LBB0_182
.Ltmp118:
.LBB0_181:                              @   in Loop: Header=BB0_178 Depth=1
	.loc	5 738 9                         @ libraries/STM32H7xx_HAL/STM32H7xx_HAL_Driver/Src/stm32h7xx_hal_rcc_ex.c:738:9
	b	.LBB0_178
.LBB0_182:
	.loc	5 746 7                         @ libraries/STM32H7xx_HAL/STM32H7xx_HAL_Driver/Src/stm32h7xx_hal_rcc_ex.c:746:7
	b	.LBB0_183
.Ltmp119:
.LBB0_183:
	.loc	5 748 10                        @ libraries/STM32H7xx_HAL/STM32H7xx_HAL_Driver/Src/stm32h7xx_hal_rcc_ex.c:748:10
	ldrb.w	r0, [sp, #87]
.Ltmp120:
	.loc	5 748 10 is_stmt 0              @ libraries/STM32H7xx_HAL/STM32H7xx_HAL_Driver/Src/stm32h7xx_hal_rcc_ex.c:748:10
	cbnz	r0, .LBB0_190
	b	.LBB0_184
.LBB0_184:
.Ltmp121:
	.loc	5 750 9 is_stmt 1               @ libraries/STM32H7xx_HAL/STM32H7xx_HAL_Driver/Src/stm32h7xx_hal_rcc_ex.c:750:9
	b	.LBB0_185
.LBB0_185:
.Ltmp122:
	.loc	5 750 9 is_stmt 0               @ libraries/STM32H7xx_HAL/STM32H7xx_HAL_Driver/Src/stm32h7xx_hal_rcc_ex.c:750:9
	ldr	r0, [sp, #96]
	ldr.w	r0, [r0, #176]
	and	r0, r0, #768
	cmp.w	r0, #768
	bne	.LBB0_187
	b	.LBB0_186
.LBB0_186:
	.loc	5 0 9                           @ libraries/STM32H7xx_HAL/STM32H7xx_HAL_Driver/Src/stm32h7xx_hal_rcc_ex.c:0:9
	movw	r1, #17424
	movt	r1, #22530
	.loc	5 750 9                         @ libraries/STM32H7xx_HAL/STM32H7xx_HAL_Driver/Src/stm32h7xx_hal_rcc_ex.c:750:9
	ldr	r0, [r1]
	bic	r0, r0, #16128
	ldr	r2, [sp, #96]
	ldr.w	r2, [r2, #176]
	movw	r3, #64752
	movt	r3, #4095
	ands	r2, r3
	orr.w	r0, r0, r2, lsr #4
                                        @ kill: def $r2 killed $r0
	str	r0, [r1]
	b	.LBB0_188
.LBB0_187:
	.loc	5 0 9                           @ libraries/STM32H7xx_HAL/STM32H7xx_HAL_Driver/Src/stm32h7xx_hal_rcc_ex.c:0:9
	movw	r1, #17424
	movt	r1, #22530
	.loc	5 750 9                         @ libraries/STM32H7xx_HAL/STM32H7xx_HAL_Driver/Src/stm32h7xx_hal_rcc_ex.c:750:9
	ldr	r0, [r1]
	bic	r0, r0, #16128
                                        @ kill: def $r2 killed $r0
	str	r0, [r1]
	b	.LBB0_188
.LBB0_188:
	ldr	r0, [sp, #96]
	ldr.w	r2, [r0, #176]
	bfc	r2, #12, #20
	movw	r1, #17520
	movt	r1, #22530
	ldr	r0, [r1]
	orrs	r0, r2
	str	r0, [r1]
	b	.LBB0_189
.Ltmp123:
.LBB0_189:
	.loc	5 751 7 is_stmt 1               @ libraries/STM32H7xx_HAL/STM32H7xx_HAL_Driver/Src/stm32h7xx_hal_rcc_ex.c:751:7
	b	.LBB0_191
.Ltmp124:
.LBB0_190:
	.loc	5 755 18                        @ libraries/STM32H7xx_HAL/STM32H7xx_HAL_Driver/Src/stm32h7xx_hal_rcc_ex.c:755:18
	ldrb.w	r0, [sp, #87]
	.loc	5 755 16 is_stmt 0              @ libraries/STM32H7xx_HAL/STM32H7xx_HAL_Driver/Src/stm32h7xx_hal_rcc_ex.c:755:16
	strb.w	r0, [sp, #86]
	b	.LBB0_191
.Ltmp125:
.LBB0_191:
	.loc	5 757 5 is_stmt 1               @ libraries/STM32H7xx_HAL/STM32H7xx_HAL_Driver/Src/stm32h7xx_hal_rcc_ex.c:757:5
	b	.LBB0_193
.Ltmp126:
.LBB0_192:
	.loc	5 761 16                        @ libraries/STM32H7xx_HAL/STM32H7xx_HAL_Driver/Src/stm32h7xx_hal_rcc_ex.c:761:16
	ldrb.w	r0, [sp, #87]
	.loc	5 761 14 is_stmt 0              @ libraries/STM32H7xx_HAL/STM32H7xx_HAL_Driver/Src/stm32h7xx_hal_rcc_ex.c:761:14
	strb.w	r0, [sp, #86]
	b	.LBB0_193
.Ltmp127:
.LBB0_193:
	.loc	5 763 3 is_stmt 1               @ libraries/STM32H7xx_HAL/STM32H7xx_HAL_Driver/Src/stm32h7xx_hal_rcc_ex.c:763:3
	b	.LBB0_194
.Ltmp128:
.LBB0_194:
	.loc	5 767 8                         @ libraries/STM32H7xx_HAL/STM32H7xx_HAL_Driver/Src/stm32h7xx_hal_rcc_ex.c:767:8
	ldr	r0, [sp, #96]
.Ltmp129:
	.loc	5 767 6 is_stmt 0               @ libraries/STM32H7xx_HAL/STM32H7xx_HAL_Driver/Src/stm32h7xx_hal_rcc_ex.c:767:6
	ldrb	r0, [r0]
	lsls	r0, r0, #31
	cmp	r0, #0
	beq.w	.LBB0_209
	b	.LBB0_195
.LBB0_195:
.Ltmp130:
	.loc	5 769 12 is_stmt 1              @ libraries/STM32H7xx_HAL/STM32H7xx_HAL_Driver/Src/stm32h7xx_hal_rcc_ex.c:769:12
	ldr	r0, [sp, #96]
	.loc	5 769 27 is_stmt 0              @ libraries/STM32H7xx_HAL/STM32H7xx_HAL_Driver/Src/stm32h7xx_hal_rcc_ex.c:769:27
	ldr	r0, [r0, #120]
	.loc	5 769 5                         @ libraries/STM32H7xx_HAL/STM32H7xx_HAL_Driver/Src/stm32h7xx_hal_rcc_ex.c:769:5
	str	r0, [sp, #36]                   @ 4-byte Spill
	cmp	r0, #40
	bhi	.LBB0_204
@ %bb.196:
	.loc	5 0 5                           @ libraries/STM32H7xx_HAL/STM32H7xx_HAL_Driver/Src/stm32h7xx_hal_rcc_ex.c:0:5
	ldr	r1, [sp, #36]                   @ 4-byte Reload
.LCPI0_2:
	tbb	[pc, r1]
@ %bb.197:
.LJTI0_2:
	.byte	(.LBB0_198-(.LCPI0_2+4))/2
	.byte	(.LBB0_204-(.LCPI0_2+4))/2
	.byte	(.LBB0_204-(.LCPI0_2+4))/2
	.byte	(.LBB0_204-(.LCPI0_2+4))/2
	.byte	(.LBB0_204-(.LCPI0_2+4))/2
	.byte	(.LBB0_204-(.LCPI0_2+4))/2
	.byte	(.LBB0_204-(.LCPI0_2+4))/2
	.byte	(.LBB0_204-(.LCPI0_2+4))/2
	.byte	(.LBB0_199-(.LCPI0_2+4))/2
	.byte	(.LBB0_204-(.LCPI0_2+4))/2
	.byte	(.LBB0_204-(.LCPI0_2+4))/2
	.byte	(.LBB0_204-(.LCPI0_2+4))/2
	.byte	(.LBB0_204-(.LCPI0_2+4))/2
	.byte	(.LBB0_204-(.LCPI0_2+4))/2
	.byte	(.LBB0_204-(.LCPI0_2+4))/2
	.byte	(.LBB0_204-(.LCPI0_2+4))/2
	.byte	(.LBB0_200-(.LCPI0_2+4))/2
	.byte	(.LBB0_204-(.LCPI0_2+4))/2
	.byte	(.LBB0_204-(.LCPI0_2+4))/2
	.byte	(.LBB0_204-(.LCPI0_2+4))/2
	.byte	(.LBB0_204-(.LCPI0_2+4))/2
	.byte	(.LBB0_204-(.LCPI0_2+4))/2
	.byte	(.LBB0_204-(.LCPI0_2+4))/2
	.byte	(.LBB0_204-(.LCPI0_2+4))/2
	.byte	(.LBB0_201-(.LCPI0_2+4))/2
	.byte	(.LBB0_204-(.LCPI0_2+4))/2
	.byte	(.LBB0_204-(.LCPI0_2+4))/2
	.byte	(.LBB0_204-(.LCPI0_2+4))/2
	.byte	(.LBB0_204-(.LCPI0_2+4))/2
	.byte	(.LBB0_204-(.LCPI0_2+4))/2
	.byte	(.LBB0_204-(.LCPI0_2+4))/2
	.byte	(.LBB0_204-(.LCPI0_2+4))/2
	.byte	(.LBB0_202-(.LCPI0_2+4))/2
	.byte	(.LBB0_204-(.LCPI0_2+4))/2
	.byte	(.LBB0_204-(.LCPI0_2+4))/2
	.byte	(.LBB0_204-(.LCPI0_2+4))/2
	.byte	(.LBB0_204-(.LCPI0_2+4))/2
	.byte	(.LBB0_204-(.LCPI0_2+4))/2
	.byte	(.LBB0_204-(.LCPI0_2+4))/2
	.byte	(.LBB0_204-(.LCPI0_2+4))/2
	.byte	(.LBB0_203-(.LCPI0_2+4))/2
	.p2align	1
.LBB0_198:
.Ltmp131:
	.loc	5 773 7 is_stmt 1               @ libraries/STM32H7xx_HAL/STM32H7xx_HAL_Driver/Src/stm32h7xx_hal_rcc_ex.c:773:7
	b	.LBB0_205
.LBB0_199:
	.loc	5 776 33                        @ libraries/STM32H7xx_HAL/STM32H7xx_HAL_Driver/Src/stm32h7xx_hal_rcc_ex.c:776:33
	ldr	r0, [sp, #96]
	.loc	5 776 48 is_stmt 0              @ libraries/STM32H7xx_HAL/STM32H7xx_HAL_Driver/Src/stm32h7xx_hal_rcc_ex.c:776:48
	adds	r0, #4
	movs	r1, #1
	.loc	5 776 13                        @ libraries/STM32H7xx_HAL/STM32H7xx_HAL_Driver/Src/stm32h7xx_hal_rcc_ex.c:776:13
	bl	RCCEx_PLL2_Config
	.loc	5 776 11                        @ libraries/STM32H7xx_HAL/STM32H7xx_HAL_Driver/Src/stm32h7xx_hal_rcc_ex.c:776:11
	strb.w	r0, [sp, #87]
	.loc	5 778 7 is_stmt 1               @ libraries/STM32H7xx_HAL/STM32H7xx_HAL_Driver/Src/stm32h7xx_hal_rcc_ex.c:778:7
	b	.LBB0_205
.LBB0_200:
	.loc	5 781 33                        @ libraries/STM32H7xx_HAL/STM32H7xx_HAL_Driver/Src/stm32h7xx_hal_rcc_ex.c:781:33
	ldr	r0, [sp, #96]
	.loc	5 781 48 is_stmt 0              @ libraries/STM32H7xx_HAL/STM32H7xx_HAL_Driver/Src/stm32h7xx_hal_rcc_ex.c:781:48
	adds	r0, #36
	movs	r1, #1
	.loc	5 781 13                        @ libraries/STM32H7xx_HAL/STM32H7xx_HAL_Driver/Src/stm32h7xx_hal_rcc_ex.c:781:13
	bl	RCCEx_PLL3_Config
	.loc	5 781 11                        @ libraries/STM32H7xx_HAL/STM32H7xx_HAL_Driver/Src/stm32h7xx_hal_rcc_ex.c:781:11
	strb.w	r0, [sp, #87]
	.loc	5 783 7 is_stmt 1               @ libraries/STM32H7xx_HAL/STM32H7xx_HAL_Driver/Src/stm32h7xx_hal_rcc_ex.c:783:7
	b	.LBB0_205
.LBB0_201:
	.loc	5 788 7                         @ libraries/STM32H7xx_HAL/STM32H7xx_HAL_Driver/Src/stm32h7xx_hal_rcc_ex.c:788:7
	b	.LBB0_205
.LBB0_202:
	.loc	5 793 7                         @ libraries/STM32H7xx_HAL/STM32H7xx_HAL_Driver/Src/stm32h7xx_hal_rcc_ex.c:793:7
	b	.LBB0_205
.LBB0_203:
	.loc	5 798 7                         @ libraries/STM32H7xx_HAL/STM32H7xx_HAL_Driver/Src/stm32h7xx_hal_rcc_ex.c:798:7
	b	.LBB0_205
.LBB0_204:
	.loc	5 0 7 is_stmt 0                 @ libraries/STM32H7xx_HAL/STM32H7xx_HAL_Driver/Src/stm32h7xx_hal_rcc_ex.c:0:7
	movs	r0, #1
	.loc	5 801 11 is_stmt 1              @ libraries/STM32H7xx_HAL/STM32H7xx_HAL_Driver/Src/stm32h7xx_hal_rcc_ex.c:801:11
	strb.w	r0, [sp, #87]
	.loc	5 802 7                         @ libraries/STM32H7xx_HAL/STM32H7xx_HAL_Driver/Src/stm32h7xx_hal_rcc_ex.c:802:7
	b	.LBB0_205
.Ltmp132:
.LBB0_205:
	.loc	5 805 8                         @ libraries/STM32H7xx_HAL/STM32H7xx_HAL_Driver/Src/stm32h7xx_hal_rcc_ex.c:805:8
	ldrb.w	r0, [sp, #87]
.Ltmp133:
	.loc	5 805 8 is_stmt 0               @ libraries/STM32H7xx_HAL/STM32H7xx_HAL_Driver/Src/stm32h7xx_hal_rcc_ex.c:805:8
	cbnz	r0, .LBB0_207
	b	.LBB0_206
.LBB0_206:
	.loc	5 0 8                           @ libraries/STM32H7xx_HAL/STM32H7xx_HAL_Driver/Src/stm32h7xx_hal_rcc_ex.c:0:8
	movw	r1, #17492
	movt	r1, #22530
.Ltmp134:
	.loc	5 808 7 is_stmt 1               @ libraries/STM32H7xx_HAL/STM32H7xx_HAL_Driver/Src/stm32h7xx_hal_rcc_ex.c:808:7
	ldr	r0, [r1]
	bic	r0, r0, #56
	ldr	r2, [sp, #96]
	ldr	r2, [r2, #120]
	orrs	r0, r2
	str	r0, [r1]
	.loc	5 809 5                         @ libraries/STM32H7xx_HAL/STM32H7xx_HAL_Driver/Src/stm32h7xx_hal_rcc_ex.c:809:5
	b	.LBB0_208
.Ltmp135:
.LBB0_207:
	.loc	5 813 16                        @ libraries/STM32H7xx_HAL/STM32H7xx_HAL_Driver/Src/stm32h7xx_hal_rcc_ex.c:813:16
	ldrb.w	r0, [sp, #87]
	.loc	5 813 14 is_stmt 0              @ libraries/STM32H7xx_HAL/STM32H7xx_HAL_Driver/Src/stm32h7xx_hal_rcc_ex.c:813:14
	strb.w	r0, [sp, #86]
	b	.LBB0_208
.Ltmp136:
.LBB0_208:
	.loc	5 815 3 is_stmt 1               @ libraries/STM32H7xx_HAL/STM32H7xx_HAL_Driver/Src/stm32h7xx_hal_rcc_ex.c:815:3
	b	.LBB0_209
.Ltmp137:
.LBB0_209:
	.loc	5 818 8                         @ libraries/STM32H7xx_HAL/STM32H7xx_HAL_Driver/Src/stm32h7xx_hal_rcc_ex.c:818:8
	ldr	r0, [sp, #96]
.Ltmp138:
	.loc	5 818 6 is_stmt 0               @ libraries/STM32H7xx_HAL/STM32H7xx_HAL_Driver/Src/stm32h7xx_hal_rcc_ex.c:818:6
	ldrb	r0, [r0]
	lsls	r0, r0, #30
	cmp	r0, #0
	bpl	.LBB0_224
	b	.LBB0_210
.LBB0_210:
.Ltmp139:
	.loc	5 820 12 is_stmt 1              @ libraries/STM32H7xx_HAL/STM32H7xx_HAL_Driver/Src/stm32h7xx_hal_rcc_ex.c:820:12
	ldr	r0, [sp, #96]
	.loc	5 820 27 is_stmt 0              @ libraries/STM32H7xx_HAL/STM32H7xx_HAL_Driver/Src/stm32h7xx_hal_rcc_ex.c:820:27
	ldr	r0, [r0, #116]
	.loc	5 820 5                         @ libraries/STM32H7xx_HAL/STM32H7xx_HAL_Driver/Src/stm32h7xx_hal_rcc_ex.c:820:5
	str	r0, [sp, #32]                   @ 4-byte Spill
	cmp	r0, #5
	bhi	.LBB0_219
@ %bb.211:
	.loc	5 0 5                           @ libraries/STM32H7xx_HAL/STM32H7xx_HAL_Driver/Src/stm32h7xx_hal_rcc_ex.c:0:5
	ldr	r1, [sp, #32]                   @ 4-byte Reload
.LCPI0_3:
	tbb	[pc, r1]
@ %bb.212:
.LJTI0_3:
	.byte	(.LBB0_213-(.LCPI0_3+4))/2
	.byte	(.LBB0_214-(.LCPI0_3+4))/2
	.byte	(.LBB0_215-(.LCPI0_3+4))/2
	.byte	(.LBB0_216-(.LCPI0_3+4))/2
	.byte	(.LBB0_217-(.LCPI0_3+4))/2
	.byte	(.LBB0_218-(.LCPI0_3+4))/2
	.p2align	1
.LBB0_213:
.Ltmp140:
	.loc	5 824 7 is_stmt 1               @ libraries/STM32H7xx_HAL/STM32H7xx_HAL_Driver/Src/stm32h7xx_hal_rcc_ex.c:824:7
	b	.LBB0_220
.LBB0_214:
	.loc	5 827 33                        @ libraries/STM32H7xx_HAL/STM32H7xx_HAL_Driver/Src/stm32h7xx_hal_rcc_ex.c:827:33
	ldr	r0, [sp, #96]
	.loc	5 827 48 is_stmt 0              @ libraries/STM32H7xx_HAL/STM32H7xx_HAL_Driver/Src/stm32h7xx_hal_rcc_ex.c:827:48
	adds	r0, #4
	movs	r1, #1
	.loc	5 827 13                        @ libraries/STM32H7xx_HAL/STM32H7xx_HAL_Driver/Src/stm32h7xx_hal_rcc_ex.c:827:13
	bl	RCCEx_PLL2_Config
	.loc	5 827 11                        @ libraries/STM32H7xx_HAL/STM32H7xx_HAL_Driver/Src/stm32h7xx_hal_rcc_ex.c:827:11
	strb.w	r0, [sp, #87]
	.loc	5 829 7 is_stmt 1               @ libraries/STM32H7xx_HAL/STM32H7xx_HAL_Driver/Src/stm32h7xx_hal_rcc_ex.c:829:7
	b	.LBB0_220
.LBB0_215:
	.loc	5 832 33                        @ libraries/STM32H7xx_HAL/STM32H7xx_HAL_Driver/Src/stm32h7xx_hal_rcc_ex.c:832:33
	ldr	r0, [sp, #96]
	.loc	5 832 48 is_stmt 0              @ libraries/STM32H7xx_HAL/STM32H7xx_HAL_Driver/Src/stm32h7xx_hal_rcc_ex.c:832:48
	adds	r0, #36
	movs	r1, #1
	.loc	5 832 13                        @ libraries/STM32H7xx_HAL/STM32H7xx_HAL_Driver/Src/stm32h7xx_hal_rcc_ex.c:832:13
	bl	RCCEx_PLL3_Config
	.loc	5 832 11                        @ libraries/STM32H7xx_HAL/STM32H7xx_HAL_Driver/Src/stm32h7xx_hal_rcc_ex.c:832:11
	strb.w	r0, [sp, #87]
	.loc	5 834 7 is_stmt 1               @ libraries/STM32H7xx_HAL/STM32H7xx_HAL_Driver/Src/stm32h7xx_hal_rcc_ex.c:834:7
	b	.LBB0_220
.LBB0_216:
	.loc	5 839 7                         @ libraries/STM32H7xx_HAL/STM32H7xx_HAL_Driver/Src/stm32h7xx_hal_rcc_ex.c:839:7
	b	.LBB0_220
.LBB0_217:
	.loc	5 844 7                         @ libraries/STM32H7xx_HAL/STM32H7xx_HAL_Driver/Src/stm32h7xx_hal_rcc_ex.c:844:7
	b	.LBB0_220
.LBB0_218:
	.loc	5 849 7                         @ libraries/STM32H7xx_HAL/STM32H7xx_HAL_Driver/Src/stm32h7xx_hal_rcc_ex.c:849:7
	b	.LBB0_220
.LBB0_219:
	.loc	5 0 7 is_stmt 0                 @ libraries/STM32H7xx_HAL/STM32H7xx_HAL_Driver/Src/stm32h7xx_hal_rcc_ex.c:0:7
	movs	r0, #1
	.loc	5 852 11 is_stmt 1              @ libraries/STM32H7xx_HAL/STM32H7xx_HAL_Driver/Src/stm32h7xx_hal_rcc_ex.c:852:11
	strb.w	r0, [sp, #87]
	.loc	5 853 7                         @ libraries/STM32H7xx_HAL/STM32H7xx_HAL_Driver/Src/stm32h7xx_hal_rcc_ex.c:853:7
	b	.LBB0_220
.Ltmp141:
.LBB0_220:
	.loc	5 856 8                         @ libraries/STM32H7xx_HAL/STM32H7xx_HAL_Driver/Src/stm32h7xx_hal_rcc_ex.c:856:8
	ldrb.w	r0, [sp, #87]
.Ltmp142:
	.loc	5 856 8 is_stmt 0               @ libraries/STM32H7xx_HAL/STM32H7xx_HAL_Driver/Src/stm32h7xx_hal_rcc_ex.c:856:8
	cbnz	r0, .LBB0_222
	b	.LBB0_221
.LBB0_221:
	.loc	5 0 8                           @ libraries/STM32H7xx_HAL/STM32H7xx_HAL_Driver/Src/stm32h7xx_hal_rcc_ex.c:0:8
	movw	r1, #17492
	movt	r1, #22530
.Ltmp143:
	.loc	5 859 7 is_stmt 1               @ libraries/STM32H7xx_HAL/STM32H7xx_HAL_Driver/Src/stm32h7xx_hal_rcc_ex.c:859:7
	ldr	r0, [r1]
	bic	r0, r0, #7
	ldr	r2, [sp, #96]
	ldr	r2, [r2, #116]
	orrs	r0, r2
	str	r0, [r1]
	.loc	5 860 5                         @ libraries/STM32H7xx_HAL/STM32H7xx_HAL_Driver/Src/stm32h7xx_hal_rcc_ex.c:860:5
	b	.LBB0_223
.Ltmp144:
.LBB0_222:
	.loc	5 864 16                        @ libraries/STM32H7xx_HAL/STM32H7xx_HAL_Driver/Src/stm32h7xx_hal_rcc_ex.c:864:16
	ldrb.w	r0, [sp, #87]
	.loc	5 864 14 is_stmt 0              @ libraries/STM32H7xx_HAL/STM32H7xx_HAL_Driver/Src/stm32h7xx_hal_rcc_ex.c:864:14
	strb.w	r0, [sp, #86]
	b	.LBB0_223
.Ltmp145:
.LBB0_223:
	.loc	5 866 3 is_stmt 1               @ libraries/STM32H7xx_HAL/STM32H7xx_HAL_Driver/Src/stm32h7xx_hal_rcc_ex.c:866:3
	b	.LBB0_224
.Ltmp146:
.LBB0_224:
	.loc	5 869 8                         @ libraries/STM32H7xx_HAL/STM32H7xx_HAL_Driver/Src/stm32h7xx_hal_rcc_ex.c:869:8
	ldr	r0, [sp, #96]
.Ltmp147:
	.loc	5 869 6 is_stmt 0               @ libraries/STM32H7xx_HAL/STM32H7xx_HAL_Driver/Src/stm32h7xx_hal_rcc_ex.c:869:6
	ldrb	r0, [r0]
	lsls	r0, r0, #29
	cmp	r0, #0
	bpl	.LBB0_239
	b	.LBB0_225
.LBB0_225:
.Ltmp148:
	.loc	5 871 12 is_stmt 1              @ libraries/STM32H7xx_HAL/STM32H7xx_HAL_Driver/Src/stm32h7xx_hal_rcc_ex.c:871:12
	ldr	r0, [sp, #96]
	.loc	5 871 27 is_stmt 0              @ libraries/STM32H7xx_HAL/STM32H7xx_HAL_Driver/Src/stm32h7xx_hal_rcc_ex.c:871:27
	ldr.w	r0, [r0, #144]
	.loc	5 871 5                         @ libraries/STM32H7xx_HAL/STM32H7xx_HAL_Driver/Src/stm32h7xx_hal_rcc_ex.c:871:5
	str	r0, [sp, #28]                   @ 4-byte Spill
	cmp	r0, #5
	bhi	.LBB0_234
@ %bb.226:
	.loc	5 0 5                           @ libraries/STM32H7xx_HAL/STM32H7xx_HAL_Driver/Src/stm32h7xx_hal_rcc_ex.c:0:5
	ldr	r1, [sp, #28]                   @ 4-byte Reload
.LCPI0_4:
	tbb	[pc, r1]
@ %bb.227:
.LJTI0_4:
	.byte	(.LBB0_228-(.LCPI0_4+4))/2
	.byte	(.LBB0_229-(.LCPI0_4+4))/2
	.byte	(.LBB0_230-(.LCPI0_4+4))/2
	.byte	(.LBB0_231-(.LCPI0_4+4))/2
	.byte	(.LBB0_232-(.LCPI0_4+4))/2
	.byte	(.LBB0_233-(.LCPI0_4+4))/2
	.p2align	1
.LBB0_228:
.Ltmp149:
	.loc	5 875 7 is_stmt 1               @ libraries/STM32H7xx_HAL/STM32H7xx_HAL_Driver/Src/stm32h7xx_hal_rcc_ex.c:875:7
	b	.LBB0_235
.LBB0_229:
	.loc	5 878 33                        @ libraries/STM32H7xx_HAL/STM32H7xx_HAL_Driver/Src/stm32h7xx_hal_rcc_ex.c:878:33
	ldr	r0, [sp, #96]
	.loc	5 878 48 is_stmt 0              @ libraries/STM32H7xx_HAL/STM32H7xx_HAL_Driver/Src/stm32h7xx_hal_rcc_ex.c:878:48
	adds	r0, #4
	movs	r1, #1
	.loc	5 878 13                        @ libraries/STM32H7xx_HAL/STM32H7xx_HAL_Driver/Src/stm32h7xx_hal_rcc_ex.c:878:13
	bl	RCCEx_PLL2_Config
	.loc	5 878 11                        @ libraries/STM32H7xx_HAL/STM32H7xx_HAL_Driver/Src/stm32h7xx_hal_rcc_ex.c:878:11
	strb.w	r0, [sp, #87]
	.loc	5 880 7 is_stmt 1               @ libraries/STM32H7xx_HAL/STM32H7xx_HAL_Driver/Src/stm32h7xx_hal_rcc_ex.c:880:7
	b	.LBB0_235
.LBB0_230:
	.loc	5 883 33                        @ libraries/STM32H7xx_HAL/STM32H7xx_HAL_Driver/Src/stm32h7xx_hal_rcc_ex.c:883:33
	ldr	r0, [sp, #96]
	.loc	5 883 48 is_stmt 0              @ libraries/STM32H7xx_HAL/STM32H7xx_HAL_Driver/Src/stm32h7xx_hal_rcc_ex.c:883:48
	adds	r0, #36
	movs	r1, #1
	.loc	5 883 13                        @ libraries/STM32H7xx_HAL/STM32H7xx_HAL_Driver/Src/stm32h7xx_hal_rcc_ex.c:883:13
	bl	RCCEx_PLL3_Config
	.loc	5 883 11                        @ libraries/STM32H7xx_HAL/STM32H7xx_HAL_Driver/Src/stm32h7xx_hal_rcc_ex.c:883:11
	strb.w	r0, [sp, #87]
	.loc	5 885 7 is_stmt 1               @ libraries/STM32H7xx_HAL/STM32H7xx_HAL_Driver/Src/stm32h7xx_hal_rcc_ex.c:885:7
	b	.LBB0_235
.LBB0_231:
	.loc	5 890 7                         @ libraries/STM32H7xx_HAL/STM32H7xx_HAL_Driver/Src/stm32h7xx_hal_rcc_ex.c:890:7
	b	.LBB0_235
.LBB0_232:
	.loc	5 895 7                         @ libraries/STM32H7xx_HAL/STM32H7xx_HAL_Driver/Src/stm32h7xx_hal_rcc_ex.c:895:7
	b	.LBB0_235
.LBB0_233:
	.loc	5 900 7                         @ libraries/STM32H7xx_HAL/STM32H7xx_HAL_Driver/Src/stm32h7xx_hal_rcc_ex.c:900:7
	b	.LBB0_235
.LBB0_234:
	.loc	5 0 7 is_stmt 0                 @ libraries/STM32H7xx_HAL/STM32H7xx_HAL_Driver/Src/stm32h7xx_hal_rcc_ex.c:0:7
	movs	r0, #1
	.loc	5 903 11 is_stmt 1              @ libraries/STM32H7xx_HAL/STM32H7xx_HAL_Driver/Src/stm32h7xx_hal_rcc_ex.c:903:11
	strb.w	r0, [sp, #87]
	.loc	5 904 7                         @ libraries/STM32H7xx_HAL/STM32H7xx_HAL_Driver/Src/stm32h7xx_hal_rcc_ex.c:904:7
	b	.LBB0_235
.Ltmp150:
.LBB0_235:
	.loc	5 907 8                         @ libraries/STM32H7xx_HAL/STM32H7xx_HAL_Driver/Src/stm32h7xx_hal_rcc_ex.c:907:8
	ldrb.w	r0, [sp, #87]
.Ltmp151:
	.loc	5 907 8 is_stmt 0               @ libraries/STM32H7xx_HAL/STM32H7xx_HAL_Driver/Src/stm32h7xx_hal_rcc_ex.c:907:8
	cbnz	r0, .LBB0_237
	b	.LBB0_236
.LBB0_236:
	.loc	5 0 8                           @ libraries/STM32H7xx_HAL/STM32H7xx_HAL_Driver/Src/stm32h7xx_hal_rcc_ex.c:0:8
	movw	r1, #17496
	movt	r1, #22530
.Ltmp152:
	.loc	5 910 7 is_stmt 1               @ libraries/STM32H7xx_HAL/STM32H7xx_HAL_Driver/Src/stm32h7xx_hal_rcc_ex.c:910:7
	ldr	r0, [r1]
	bic	r0, r0, #7
	ldr	r2, [sp, #96]
	ldr.w	r2, [r2, #144]
	orrs	r0, r2
	str	r0, [r1]
	.loc	5 911 5                         @ libraries/STM32H7xx_HAL/STM32H7xx_HAL_Driver/Src/stm32h7xx_hal_rcc_ex.c:911:5
	b	.LBB0_238
.Ltmp153:
.LBB0_237:
	.loc	5 915 16                        @ libraries/STM32H7xx_HAL/STM32H7xx_HAL_Driver/Src/stm32h7xx_hal_rcc_ex.c:915:16
	ldrb.w	r0, [sp, #87]
	.loc	5 915 14 is_stmt 0              @ libraries/STM32H7xx_HAL/STM32H7xx_HAL_Driver/Src/stm32h7xx_hal_rcc_ex.c:915:14
	strb.w	r0, [sp, #86]
	b	.LBB0_238
.Ltmp154:
.LBB0_238:
	.loc	5 917 3 is_stmt 1               @ libraries/STM32H7xx_HAL/STM32H7xx_HAL_Driver/Src/stm32h7xx_hal_rcc_ex.c:917:3
	b	.LBB0_239
.Ltmp155:
.LBB0_239:
	.loc	5 920 8                         @ libraries/STM32H7xx_HAL/STM32H7xx_HAL_Driver/Src/stm32h7xx_hal_rcc_ex.c:920:8
	ldr	r0, [sp, #96]
.Ltmp156:
	.loc	5 920 6 is_stmt 0               @ libraries/STM32H7xx_HAL/STM32H7xx_HAL_Driver/Src/stm32h7xx_hal_rcc_ex.c:920:6
	ldrb	r0, [r0]
	lsls	r0, r0, #26
	cmp	r0, #0
	bpl	.LBB0_257
	b	.LBB0_240
.LBB0_240:
.Ltmp157:
	.loc	5 922 12 is_stmt 1              @ libraries/STM32H7xx_HAL/STM32H7xx_HAL_Driver/Src/stm32h7xx_hal_rcc_ex.c:922:12
	ldr	r0, [sp, #96]
	.loc	5 922 27 is_stmt 0              @ libraries/STM32H7xx_HAL/STM32H7xx_HAL_Driver/Src/stm32h7xx_hal_rcc_ex.c:922:27
	ldr.w	r0, [r0, #140]
	.loc	5 922 5                         @ libraries/STM32H7xx_HAL/STM32H7xx_HAL_Driver/Src/stm32h7xx_hal_rcc_ex.c:922:5
	str	r0, [sp, #24]                   @ 4-byte Spill
	cbz	r0, .LBB0_246
	b	.LBB0_241
.LBB0_241:
	ldr	r0, [sp, #24]                   @ 4-byte Reload
	cmp.w	r0, #268435456
	beq	.LBB0_247
	b	.LBB0_242
.LBB0_242:
	ldr	r0, [sp, #24]                   @ 4-byte Reload
	cmp.w	r0, #536870912
	beq	.LBB0_248
	b	.LBB0_243
.LBB0_243:
	ldr	r0, [sp, #24]                   @ 4-byte Reload
	cmp.w	r0, #805306368
	beq	.LBB0_249
	b	.LBB0_244
.LBB0_244:
	ldr	r0, [sp, #24]                   @ 4-byte Reload
	cmp.w	r0, #1073741824
	beq	.LBB0_250
	b	.LBB0_245
.LBB0_245:
	ldr	r0, [sp, #24]                   @ 4-byte Reload
	cmp.w	r0, #1342177280
	beq	.LBB0_251
	b	.LBB0_252
.LBB0_246:
.Ltmp158:
	.loc	5 926 7 is_stmt 1               @ libraries/STM32H7xx_HAL/STM32H7xx_HAL_Driver/Src/stm32h7xx_hal_rcc_ex.c:926:7
	b	.LBB0_253
.LBB0_247:
	.loc	5 930 33                        @ libraries/STM32H7xx_HAL/STM32H7xx_HAL_Driver/Src/stm32h7xx_hal_rcc_ex.c:930:33
	ldr	r0, [sp, #96]
	.loc	5 930 48 is_stmt 0              @ libraries/STM32H7xx_HAL/STM32H7xx_HAL_Driver/Src/stm32h7xx_hal_rcc_ex.c:930:48
	adds	r0, #4
	movs	r1, #0
	.loc	5 930 13                        @ libraries/STM32H7xx_HAL/STM32H7xx_HAL_Driver/Src/stm32h7xx_hal_rcc_ex.c:930:13
	bl	RCCEx_PLL2_Config
	.loc	5 930 11                        @ libraries/STM32H7xx_HAL/STM32H7xx_HAL_Driver/Src/stm32h7xx_hal_rcc_ex.c:930:11
	strb.w	r0, [sp, #87]
	.loc	5 933 7 is_stmt 1               @ libraries/STM32H7xx_HAL/STM32H7xx_HAL_Driver/Src/stm32h7xx_hal_rcc_ex.c:933:7
	b	.LBB0_253
.LBB0_248:
	.loc	5 936 33                        @ libraries/STM32H7xx_HAL/STM32H7xx_HAL_Driver/Src/stm32h7xx_hal_rcc_ex.c:936:33
	ldr	r0, [sp, #96]
	.loc	5 936 48 is_stmt 0              @ libraries/STM32H7xx_HAL/STM32H7xx_HAL_Driver/Src/stm32h7xx_hal_rcc_ex.c:936:48
	adds	r0, #36
	movs	r1, #2
	.loc	5 936 13                        @ libraries/STM32H7xx_HAL/STM32H7xx_HAL_Driver/Src/stm32h7xx_hal_rcc_ex.c:936:13
	bl	RCCEx_PLL3_Config
	.loc	5 936 11                        @ libraries/STM32H7xx_HAL/STM32H7xx_HAL_Driver/Src/stm32h7xx_hal_rcc_ex.c:936:11
	strb.w	r0, [sp, #87]
	.loc	5 939 7 is_stmt 1               @ libraries/STM32H7xx_HAL/STM32H7xx_HAL_Driver/Src/stm32h7xx_hal_rcc_ex.c:939:7
	b	.LBB0_253
.LBB0_249:
	.loc	5 944 7                         @ libraries/STM32H7xx_HAL/STM32H7xx_HAL_Driver/Src/stm32h7xx_hal_rcc_ex.c:944:7
	b	.LBB0_253
.LBB0_250:
	.loc	5 949 7                         @ libraries/STM32H7xx_HAL/STM32H7xx_HAL_Driver/Src/stm32h7xx_hal_rcc_ex.c:949:7
	b	.LBB0_253
.LBB0_251:
	.loc	5 953 7                         @ libraries/STM32H7xx_HAL/STM32H7xx_HAL_Driver/Src/stm32h7xx_hal_rcc_ex.c:953:7
	b	.LBB0_253
.LBB0_252:
	.loc	5 0 7 is_stmt 0                 @ libraries/STM32H7xx_HAL/STM32H7xx_HAL_Driver/Src/stm32h7xx_hal_rcc_ex.c:0:7
	movs	r0, #1
	.loc	5 956 11 is_stmt 1              @ libraries/STM32H7xx_HAL/STM32H7xx_HAL_Driver/Src/stm32h7xx_hal_rcc_ex.c:956:11
	strb.w	r0, [sp, #87]
	.loc	5 957 7                         @ libraries/STM32H7xx_HAL/STM32H7xx_HAL_Driver/Src/stm32h7xx_hal_rcc_ex.c:957:7
	b	.LBB0_253
.Ltmp159:
.LBB0_253:
	.loc	5 960 8                         @ libraries/STM32H7xx_HAL/STM32H7xx_HAL_Driver/Src/stm32h7xx_hal_rcc_ex.c:960:8
	ldrb.w	r0, [sp, #87]
.Ltmp160:
	.loc	5 960 8 is_stmt 0               @ libraries/STM32H7xx_HAL/STM32H7xx_HAL_Driver/Src/stm32h7xx_hal_rcc_ex.c:960:8
	cbnz	r0, .LBB0_255
	b	.LBB0_254
.LBB0_254:
	.loc	5 0 8                           @ libraries/STM32H7xx_HAL/STM32H7xx_HAL_Driver/Src/stm32h7xx_hal_rcc_ex.c:0:8
	movw	r1, #17492
	movt	r1, #22530
.Ltmp161:
	.loc	5 963 7 is_stmt 1               @ libraries/STM32H7xx_HAL/STM32H7xx_HAL_Driver/Src/stm32h7xx_hal_rcc_ex.c:963:7
	ldr	r0, [r1]
	bic	r0, r0, #1879048192
	ldr	r2, [sp, #96]
	ldr.w	r2, [r2, #140]
	orrs	r0, r2
	str	r0, [r1]
	.loc	5 964 5                         @ libraries/STM32H7xx_HAL/STM32H7xx_HAL_Driver/Src/stm32h7xx_hal_rcc_ex.c:964:5
	b	.LBB0_256
.Ltmp162:
.LBB0_255:
	.loc	5 968 16                        @ libraries/STM32H7xx_HAL/STM32H7xx_HAL_Driver/Src/stm32h7xx_hal_rcc_ex.c:968:16
	ldrb.w	r0, [sp, #87]
	.loc	5 968 14 is_stmt 0              @ libraries/STM32H7xx_HAL/STM32H7xx_HAL_Driver/Src/stm32h7xx_hal_rcc_ex.c:968:14
	strb.w	r0, [sp, #86]
	b	.LBB0_256
.Ltmp163:
.LBB0_256:
	.loc	5 970 3 is_stmt 1               @ libraries/STM32H7xx_HAL/STM32H7xx_HAL_Driver/Src/stm32h7xx_hal_rcc_ex.c:970:3
	b	.LBB0_257
.Ltmp164:
.LBB0_257:
	.loc	5 973 8                         @ libraries/STM32H7xx_HAL/STM32H7xx_HAL_Driver/Src/stm32h7xx_hal_rcc_ex.c:973:8
	ldr	r0, [sp, #96]
.Ltmp165:
	.loc	5 973 6 is_stmt 0               @ libraries/STM32H7xx_HAL/STM32H7xx_HAL_Driver/Src/stm32h7xx_hal_rcc_ex.c:973:6
	ldrb	r0, [r0]
	lsls	r0, r0, #25
	cmp	r0, #0
	bpl	.LBB0_275
	b	.LBB0_258
.LBB0_258:
.Ltmp166:
	.loc	5 975 12 is_stmt 1              @ libraries/STM32H7xx_HAL/STM32H7xx_HAL_Driver/Src/stm32h7xx_hal_rcc_ex.c:975:12
	ldr	r0, [sp, #96]
	.loc	5 975 27 is_stmt 0              @ libraries/STM32H7xx_HAL/STM32H7xx_HAL_Driver/Src/stm32h7xx_hal_rcc_ex.c:975:27
	ldr.w	r0, [r0, #152]
	.loc	5 975 5                         @ libraries/STM32H7xx_HAL/STM32H7xx_HAL_Driver/Src/stm32h7xx_hal_rcc_ex.c:975:5
	str	r0, [sp, #20]                   @ 4-byte Spill
	cbz	r0, .LBB0_264
	b	.LBB0_259
.LBB0_259:
	ldr	r0, [sp, #20]                   @ 4-byte Reload
	cmp.w	r0, #1024
	beq	.LBB0_265
	b	.LBB0_260
.LBB0_260:
	ldr	r0, [sp, #20]                   @ 4-byte Reload
	cmp.w	r0, #2048
	beq	.LBB0_266
	b	.LBB0_261
.LBB0_261:
	ldr	r0, [sp, #20]                   @ 4-byte Reload
	cmp.w	r0, #3072
	beq	.LBB0_267
	b	.LBB0_262
.LBB0_262:
	ldr	r0, [sp, #20]                   @ 4-byte Reload
	cmp.w	r0, #4096
	beq	.LBB0_268
	b	.LBB0_263
.LBB0_263:
	ldr	r0, [sp, #20]                   @ 4-byte Reload
	cmp.w	r0, #5120
	beq	.LBB0_269
	b	.LBB0_270
.LBB0_264:
.Ltmp167:
	.loc	5 979 7 is_stmt 1               @ libraries/STM32H7xx_HAL/STM32H7xx_HAL_Driver/Src/stm32h7xx_hal_rcc_ex.c:979:7
	b	.LBB0_271
.LBB0_265:
	.loc	5 983 33                        @ libraries/STM32H7xx_HAL/STM32H7xx_HAL_Driver/Src/stm32h7xx_hal_rcc_ex.c:983:33
	ldr	r0, [sp, #96]
	.loc	5 983 48 is_stmt 0              @ libraries/STM32H7xx_HAL/STM32H7xx_HAL_Driver/Src/stm32h7xx_hal_rcc_ex.c:983:48
	adds	r0, #4
	movs	r1, #0
	.loc	5 983 13                        @ libraries/STM32H7xx_HAL/STM32H7xx_HAL_Driver/Src/stm32h7xx_hal_rcc_ex.c:983:13
	bl	RCCEx_PLL2_Config
	.loc	5 983 11                        @ libraries/STM32H7xx_HAL/STM32H7xx_HAL_Driver/Src/stm32h7xx_hal_rcc_ex.c:983:11
	strb.w	r0, [sp, #87]
	.loc	5 986 7 is_stmt 1               @ libraries/STM32H7xx_HAL/STM32H7xx_HAL_Driver/Src/stm32h7xx_hal_rcc_ex.c:986:7
	b	.LBB0_271
.LBB0_266:
	.loc	5 989 33                        @ libraries/STM32H7xx_HAL/STM32H7xx_HAL_Driver/Src/stm32h7xx_hal_rcc_ex.c:989:33
	ldr	r0, [sp, #96]
	.loc	5 989 48 is_stmt 0              @ libraries/STM32H7xx_HAL/STM32H7xx_HAL_Driver/Src/stm32h7xx_hal_rcc_ex.c:989:48
	adds	r0, #36
	movs	r1, #2
	.loc	5 989 13                        @ libraries/STM32H7xx_HAL/STM32H7xx_HAL_Driver/Src/stm32h7xx_hal_rcc_ex.c:989:13
	bl	RCCEx_PLL3_Config
	.loc	5 989 11                        @ libraries/STM32H7xx_HAL/STM32H7xx_HAL_Driver/Src/stm32h7xx_hal_rcc_ex.c:989:11
	strb.w	r0, [sp, #87]
	.loc	5 992 7 is_stmt 1               @ libraries/STM32H7xx_HAL/STM32H7xx_HAL_Driver/Src/stm32h7xx_hal_rcc_ex.c:992:7
	b	.LBB0_271
.LBB0_267:
	.loc	5 997 7                         @ libraries/STM32H7xx_HAL/STM32H7xx_HAL_Driver/Src/stm32h7xx_hal_rcc_ex.c:997:7
	b	.LBB0_271
.LBB0_268:
	.loc	5 1002 7                        @ libraries/STM32H7xx_HAL/STM32H7xx_HAL_Driver/Src/stm32h7xx_hal_rcc_ex.c:1002:7
	b	.LBB0_271
.LBB0_269:
	.loc	5 1006 7                        @ libraries/STM32H7xx_HAL/STM32H7xx_HAL_Driver/Src/stm32h7xx_hal_rcc_ex.c:1006:7
	b	.LBB0_271
.LBB0_270:
	.loc	5 0 7 is_stmt 0                 @ libraries/STM32H7xx_HAL/STM32H7xx_HAL_Driver/Src/stm32h7xx_hal_rcc_ex.c:0:7
	movs	r0, #1
	.loc	5 1009 11 is_stmt 1             @ libraries/STM32H7xx_HAL/STM32H7xx_HAL_Driver/Src/stm32h7xx_hal_rcc_ex.c:1009:11
	strb.w	r0, [sp, #87]
	.loc	5 1010 7                        @ libraries/STM32H7xx_HAL/STM32H7xx_HAL_Driver/Src/stm32h7xx_hal_rcc_ex.c:1010:7
	b	.LBB0_271
.Ltmp168:
.LBB0_271:
	.loc	5 1013 8                        @ libraries/STM32H7xx_HAL/STM32H7xx_HAL_Driver/Src/stm32h7xx_hal_rcc_ex.c:1013:8
	ldrb.w	r0, [sp, #87]
.Ltmp169:
	.loc	5 1013 8 is_stmt 0              @ libraries/STM32H7xx_HAL/STM32H7xx_HAL_Driver/Src/stm32h7xx_hal_rcc_ex.c:1013:8
	cbnz	r0, .LBB0_273
	b	.LBB0_272
.LBB0_272:
	.loc	5 0 8                           @ libraries/STM32H7xx_HAL/STM32H7xx_HAL_Driver/Src/stm32h7xx_hal_rcc_ex.c:0:8
	movw	r1, #17496
	movt	r1, #22530
.Ltmp170:
	.loc	5 1016 7 is_stmt 1              @ libraries/STM32H7xx_HAL/STM32H7xx_HAL_Driver/Src/stm32h7xx_hal_rcc_ex.c:1016:7
	ldr	r0, [r1]
	bic	r0, r0, #7168
	ldr	r2, [sp, #96]
	ldr.w	r2, [r2, #152]
	orrs	r0, r2
	str	r0, [r1]
	.loc	5 1017 5                        @ libraries/STM32H7xx_HAL/STM32H7xx_HAL_Driver/Src/stm32h7xx_hal_rcc_ex.c:1017:5
	b	.LBB0_274
.Ltmp171:
.LBB0_273:
	.loc	5 1021 16                       @ libraries/STM32H7xx_HAL/STM32H7xx_HAL_Driver/Src/stm32h7xx_hal_rcc_ex.c:1021:16
	ldrb.w	r0, [sp, #87]
	.loc	5 1021 14 is_stmt 0             @ libraries/STM32H7xx_HAL/STM32H7xx_HAL_Driver/Src/stm32h7xx_hal_rcc_ex.c:1021:14
	strb.w	r0, [sp, #86]
	b	.LBB0_274
.Ltmp172:
.LBB0_274:
	.loc	5 1023 3 is_stmt 1              @ libraries/STM32H7xx_HAL/STM32H7xx_HAL_Driver/Src/stm32h7xx_hal_rcc_ex.c:1023:3
	b	.LBB0_275
.Ltmp173:
.LBB0_275:
	.loc	5 1026 8                        @ libraries/STM32H7xx_HAL/STM32H7xx_HAL_Driver/Src/stm32h7xx_hal_rcc_ex.c:1026:8
	ldr	r0, [sp, #96]
.Ltmp174:
	.loc	5 1026 6 is_stmt 0              @ libraries/STM32H7xx_HAL/STM32H7xx_HAL_Driver/Src/stm32h7xx_hal_rcc_ex.c:1026:6
	ldrb	r0, [r0]
	lsls	r0, r0, #24
	cmp	r0, #0
	bpl	.LBB0_293
	b	.LBB0_276
.LBB0_276:
.Ltmp175:
	.loc	5 1028 12 is_stmt 1             @ libraries/STM32H7xx_HAL/STM32H7xx_HAL_Driver/Src/stm32h7xx_hal_rcc_ex.c:1028:12
	ldr	r0, [sp, #96]
	.loc	5 1028 27 is_stmt 0             @ libraries/STM32H7xx_HAL/STM32H7xx_HAL_Driver/Src/stm32h7xx_hal_rcc_ex.c:1028:27
	ldr.w	r0, [r0, #156]
	.loc	5 1028 5                        @ libraries/STM32H7xx_HAL/STM32H7xx_HAL_Driver/Src/stm32h7xx_hal_rcc_ex.c:1028:5
	str	r0, [sp, #16]                   @ 4-byte Spill
	cbz	r0, .LBB0_282
	b	.LBB0_277
.LBB0_277:
	ldr	r0, [sp, #16]                   @ 4-byte Reload
	cmp.w	r0, #8192
	beq	.LBB0_283
	b	.LBB0_278
.LBB0_278:
	ldr	r0, [sp, #16]                   @ 4-byte Reload
	cmp.w	r0, #16384
	beq	.LBB0_284
	b	.LBB0_279
.LBB0_279:
	ldr	r0, [sp, #16]                   @ 4-byte Reload
	cmp.w	r0, #24576
	beq	.LBB0_285
	b	.LBB0_280
.LBB0_280:
	ldr	r0, [sp, #16]                   @ 4-byte Reload
	cmp.w	r0, #32768
	beq	.LBB0_286
	b	.LBB0_281
.LBB0_281:
	ldr	r0, [sp, #16]                   @ 4-byte Reload
	cmp.w	r0, #40960
	beq	.LBB0_287
	b	.LBB0_288
.LBB0_282:
.Ltmp176:
	.loc	5 1033 7 is_stmt 1              @ libraries/STM32H7xx_HAL/STM32H7xx_HAL_Driver/Src/stm32h7xx_hal_rcc_ex.c:1033:7
	b	.LBB0_289
.LBB0_283:
	.loc	5 1036 33                       @ libraries/STM32H7xx_HAL/STM32H7xx_HAL_Driver/Src/stm32h7xx_hal_rcc_ex.c:1036:33
	ldr	r0, [sp, #96]
	.loc	5 1036 48 is_stmt 0             @ libraries/STM32H7xx_HAL/STM32H7xx_HAL_Driver/Src/stm32h7xx_hal_rcc_ex.c:1036:48
	adds	r0, #4
	movs	r1, #0
	.loc	5 1036 13                       @ libraries/STM32H7xx_HAL/STM32H7xx_HAL_Driver/Src/stm32h7xx_hal_rcc_ex.c:1036:13
	bl	RCCEx_PLL2_Config
	.loc	5 1036 11                       @ libraries/STM32H7xx_HAL/STM32H7xx_HAL_Driver/Src/stm32h7xx_hal_rcc_ex.c:1036:11
	strb.w	r0, [sp, #87]
	.loc	5 1039 7 is_stmt 1              @ libraries/STM32H7xx_HAL/STM32H7xx_HAL_Driver/Src/stm32h7xx_hal_rcc_ex.c:1039:7
	b	.LBB0_289
.LBB0_284:
	.loc	5 1042 33                       @ libraries/STM32H7xx_HAL/STM32H7xx_HAL_Driver/Src/stm32h7xx_hal_rcc_ex.c:1042:33
	ldr	r0, [sp, #96]
	.loc	5 1042 48 is_stmt 0             @ libraries/STM32H7xx_HAL/STM32H7xx_HAL_Driver/Src/stm32h7xx_hal_rcc_ex.c:1042:48
	adds	r0, #36
	movs	r1, #2
	.loc	5 1042 13                       @ libraries/STM32H7xx_HAL/STM32H7xx_HAL_Driver/Src/stm32h7xx_hal_rcc_ex.c:1042:13
	bl	RCCEx_PLL3_Config
	.loc	5 1042 11                       @ libraries/STM32H7xx_HAL/STM32H7xx_HAL_Driver/Src/stm32h7xx_hal_rcc_ex.c:1042:11
	strb.w	r0, [sp, #87]
	.loc	5 1045 7 is_stmt 1              @ libraries/STM32H7xx_HAL/STM32H7xx_HAL_Driver/Src/stm32h7xx_hal_rcc_ex.c:1045:7
	b	.LBB0_289
.LBB0_285:
	.loc	5 1050 7                        @ libraries/STM32H7xx_HAL/STM32H7xx_HAL_Driver/Src/stm32h7xx_hal_rcc_ex.c:1050:7
	b	.LBB0_289
.LBB0_286:
	.loc	5 1055 7                        @ libraries/STM32H7xx_HAL/STM32H7xx_HAL_Driver/Src/stm32h7xx_hal_rcc_ex.c:1055:7
	b	.LBB0_289
.LBB0_287:
	.loc	5 1059 7                        @ libraries/STM32H7xx_HAL/STM32H7xx_HAL_Driver/Src/stm32h7xx_hal_rcc_ex.c:1059:7
	b	.LBB0_289
.LBB0_288:
	.loc	5 0 7 is_stmt 0                 @ libraries/STM32H7xx_HAL/STM32H7xx_HAL_Driver/Src/stm32h7xx_hal_rcc_ex.c:0:7
	movs	r0, #1
	.loc	5 1062 11 is_stmt 1             @ libraries/STM32H7xx_HAL/STM32H7xx_HAL_Driver/Src/stm32h7xx_hal_rcc_ex.c:1062:11
	strb.w	r0, [sp, #87]
	.loc	5 1063 7                        @ libraries/STM32H7xx_HAL/STM32H7xx_HAL_Driver/Src/stm32h7xx_hal_rcc_ex.c:1063:7
	b	.LBB0_289
.Ltmp177:
.LBB0_289:
	.loc	5 1066 8                        @ libraries/STM32H7xx_HAL/STM32H7xx_HAL_Driver/Src/stm32h7xx_hal_rcc_ex.c:1066:8
	ldrb.w	r0, [sp, #87]
.Ltmp178:
	.loc	5 1066 8 is_stmt 0              @ libraries/STM32H7xx_HAL/STM32H7xx_HAL_Driver/Src/stm32h7xx_hal_rcc_ex.c:1066:8
	cbnz	r0, .LBB0_291
	b	.LBB0_290
.LBB0_290:
	.loc	5 0 8                           @ libraries/STM32H7xx_HAL/STM32H7xx_HAL_Driver/Src/stm32h7xx_hal_rcc_ex.c:0:8
	movw	r1, #17496
	movt	r1, #22530
.Ltmp179:
	.loc	5 1069 7 is_stmt 1              @ libraries/STM32H7xx_HAL/STM32H7xx_HAL_Driver/Src/stm32h7xx_hal_rcc_ex.c:1069:7
	ldr	r0, [r1]
	bic	r0, r0, #57344
	ldr	r2, [sp, #96]
	ldr.w	r2, [r2, #156]
	orrs	r0, r2
	str	r0, [r1]
	.loc	5 1070 5                        @ libraries/STM32H7xx_HAL/STM32H7xx_HAL_Driver/Src/stm32h7xx_hal_rcc_ex.c:1070:5
	b	.LBB0_292
.Ltmp180:
.LBB0_291:
	.loc	5 1074 16                       @ libraries/STM32H7xx_HAL/STM32H7xx_HAL_Driver/Src/stm32h7xx_hal_rcc_ex.c:1074:16
	ldrb.w	r0, [sp, #87]
	.loc	5 1074 14 is_stmt 0             @ libraries/STM32H7xx_HAL/STM32H7xx_HAL_Driver/Src/stm32h7xx_hal_rcc_ex.c:1074:14
	strb.w	r0, [sp, #86]
	b	.LBB0_292
.Ltmp181:
.LBB0_292:
	.loc	5 1076 3 is_stmt 1              @ libraries/STM32H7xx_HAL/STM32H7xx_HAL_Driver/Src/stm32h7xx_hal_rcc_ex.c:1076:3
	b	.LBB0_293
.Ltmp182:
.LBB0_293:
	.loc	5 1079 8                        @ libraries/STM32H7xx_HAL/STM32H7xx_HAL_Driver/Src/stm32h7xx_hal_rcc_ex.c:1079:8
	ldr	r0, [sp, #96]
.Ltmp183:
	.loc	5 1079 6 is_stmt 0              @ libraries/STM32H7xx_HAL/STM32H7xx_HAL_Driver/Src/stm32h7xx_hal_rcc_ex.c:1079:6
	ldrb	r0, [r0]
	lsls	r0, r0, #28
	cmp	r0, #0
	bpl	.LBB0_300
	b	.LBB0_294
.LBB0_294:
.Ltmp184:
	.loc	5 1084 10 is_stmt 1             @ libraries/STM32H7xx_HAL/STM32H7xx_HAL_Driver/Src/stm32h7xx_hal_rcc_ex.c:1084:10
	ldr	r0, [sp, #96]
	.loc	5 1084 25 is_stmt 0             @ libraries/STM32H7xx_HAL/STM32H7xx_HAL_Driver/Src/stm32h7xx_hal_rcc_ex.c:1084:25
	ldr.w	r0, [r0, #128]
.Ltmp185:
	.loc	5 1084 9                        @ libraries/STM32H7xx_HAL/STM32H7xx_HAL_Driver/Src/stm32h7xx_hal_rcc_ex.c:1084:9
	cmp.w	r0, #4096
	bne	.LBB0_298
	b	.LBB0_295
.LBB0_295:
.Ltmp186:
	.loc	5 1086 32 is_stmt 1             @ libraries/STM32H7xx_HAL/STM32H7xx_HAL_Driver/Src/stm32h7xx_hal_rcc_ex.c:1086:32
	ldr	r0, [sp, #96]
	.loc	5 1086 47 is_stmt 0             @ libraries/STM32H7xx_HAL/STM32H7xx_HAL_Driver/Src/stm32h7xx_hal_rcc_ex.c:1086:47
	adds	r0, #36
	movs	r1, #2
	.loc	5 1086 12                       @ libraries/STM32H7xx_HAL/STM32H7xx_HAL_Driver/Src/stm32h7xx_hal_rcc_ex.c:1086:12
	bl	RCCEx_PLL3_Config
.Ltmp187:
	.loc	5 1086 12                       @ libraries/STM32H7xx_HAL/STM32H7xx_HAL_Driver/Src/stm32h7xx_hal_rcc_ex.c:1086:12
	cbz	r0, .LBB0_297
	b	.LBB0_296
.LBB0_296:
	.loc	5 0 12                          @ libraries/STM32H7xx_HAL/STM32H7xx_HAL_Driver/Src/stm32h7xx_hal_rcc_ex.c:0:12
	movs	r0, #1
.Ltmp188:
	.loc	5 1088 18 is_stmt 1             @ libraries/STM32H7xx_HAL/STM32H7xx_HAL_Driver/Src/stm32h7xx_hal_rcc_ex.c:1088:18
	strb.w	r0, [sp, #86]
	.loc	5 1089 9                        @ libraries/STM32H7xx_HAL/STM32H7xx_HAL_Driver/Src/stm32h7xx_hal_rcc_ex.c:1089:9
	b	.LBB0_297
.Ltmp189:
.LBB0_297:
	.loc	5 1090 5                        @ libraries/STM32H7xx_HAL/STM32H7xx_HAL_Driver/Src/stm32h7xx_hal_rcc_ex.c:1090:5
	b	.LBB0_299
.Ltmp190:
.LBB0_298:
	.loc	5 0 5 is_stmt 0                 @ libraries/STM32H7xx_HAL/STM32H7xx_HAL_Driver/Src/stm32h7xx_hal_rcc_ex.c:0:5
	movw	r1, #17492
	movt	r1, #22530
.Ltmp191:
	.loc	5 1094 7 is_stmt 1              @ libraries/STM32H7xx_HAL/STM32H7xx_HAL_Driver/Src/stm32h7xx_hal_rcc_ex.c:1094:7
	ldr	r0, [r1]
	bic	r0, r0, #12288
	ldr	r2, [sp, #96]
	ldr.w	r2, [r2, #128]
	orrs	r0, r2
	str	r0, [r1]
	b	.LBB0_299
.Ltmp192:
.LBB0_299:
	.loc	5 1097 3                        @ libraries/STM32H7xx_HAL/STM32H7xx_HAL_Driver/Src/stm32h7xx_hal_rcc_ex.c:1097:3
	b	.LBB0_300
.Ltmp193:
.LBB0_300:
	.loc	5 1100 8                        @ libraries/STM32H7xx_HAL/STM32H7xx_HAL_Driver/Src/stm32h7xx_hal_rcc_ex.c:1100:8
	ldr	r0, [sp, #96]
.Ltmp194:
	.loc	5 1100 6 is_stmt 0              @ libraries/STM32H7xx_HAL/STM32H7xx_HAL_Driver/Src/stm32h7xx_hal_rcc_ex.c:1100:6
	ldrb	r0, [r0]
	lsls	r0, r0, #27
	cmp	r0, #0
	bpl	.LBB0_307
	b	.LBB0_301
.LBB0_301:
.Ltmp195:
	.loc	5 1105 10 is_stmt 1             @ libraries/STM32H7xx_HAL/STM32H7xx_HAL_Driver/Src/stm32h7xx_hal_rcc_ex.c:1105:10
	ldr	r0, [sp, #96]
	.loc	5 1105 25 is_stmt 0             @ libraries/STM32H7xx_HAL/STM32H7xx_HAL_Driver/Src/stm32h7xx_hal_rcc_ex.c:1105:25
	ldr.w	r0, [r0, #148]
.Ltmp196:
	.loc	5 1105 9                        @ libraries/STM32H7xx_HAL/STM32H7xx_HAL_Driver/Src/stm32h7xx_hal_rcc_ex.c:1105:9
	cmp.w	r0, #256
	bne	.LBB0_305
	b	.LBB0_302
.LBB0_302:
.Ltmp197:
	.loc	5 1107 30 is_stmt 1             @ libraries/STM32H7xx_HAL/STM32H7xx_HAL_Driver/Src/stm32h7xx_hal_rcc_ex.c:1107:30
	ldr	r0, [sp, #96]
	.loc	5 1107 45 is_stmt 0             @ libraries/STM32H7xx_HAL/STM32H7xx_HAL_Driver/Src/stm32h7xx_hal_rcc_ex.c:1107:45
	adds	r0, #36
	movs	r1, #2
	.loc	5 1107 10                       @ libraries/STM32H7xx_HAL/STM32H7xx_HAL_Driver/Src/stm32h7xx_hal_rcc_ex.c:1107:10
	bl	RCCEx_PLL3_Config
.Ltmp198:
	.loc	5 1107 10                       @ libraries/STM32H7xx_HAL/STM32H7xx_HAL_Driver/Src/stm32h7xx_hal_rcc_ex.c:1107:10
	cbz	r0, .LBB0_304
	b	.LBB0_303
.LBB0_303:
	.loc	5 0 10                          @ libraries/STM32H7xx_HAL/STM32H7xx_HAL_Driver/Src/stm32h7xx_hal_rcc_ex.c:0:10
	movs	r0, #1
.Ltmp199:
	.loc	5 1109 16 is_stmt 1             @ libraries/STM32H7xx_HAL/STM32H7xx_HAL_Driver/Src/stm32h7xx_hal_rcc_ex.c:1109:16
	strb.w	r0, [sp, #86]
	.loc	5 1110 7                        @ libraries/STM32H7xx_HAL/STM32H7xx_HAL_Driver/Src/stm32h7xx_hal_rcc_ex.c:1110:7
	b	.LBB0_304
.Ltmp200:
.LBB0_304:
	.loc	5 1111 5                        @ libraries/STM32H7xx_HAL/STM32H7xx_HAL_Driver/Src/stm32h7xx_hal_rcc_ex.c:1111:5
	b	.LBB0_306
.Ltmp201:
.LBB0_305:
	.loc	5 0 5 is_stmt 0                 @ libraries/STM32H7xx_HAL/STM32H7xx_HAL_Driver/Src/stm32h7xx_hal_rcc_ex.c:0:5
	movw	r1, #17496
	movt	r1, #22530
.Ltmp202:
	.loc	5 1115 7 is_stmt 1              @ libraries/STM32H7xx_HAL/STM32H7xx_HAL_Driver/Src/stm32h7xx_hal_rcc_ex.c:1115:7
	ldr	r0, [r1]
	bic	r0, r0, #768
	ldr	r2, [sp, #96]
	ldr.w	r2, [r2, #148]
	orrs	r0, r2
	str	r0, [r1]
	b	.LBB0_306
.Ltmp203:
.LBB0_306:
	.loc	5 1117 3                        @ libraries/STM32H7xx_HAL/STM32H7xx_HAL_Driver/Src/stm32h7xx_hal_rcc_ex.c:1117:3
	b	.LBB0_307
.Ltmp204:
.LBB0_307:
	.loc	5 1120 8                        @ libraries/STM32H7xx_HAL/STM32H7xx_HAL_Driver/Src/stm32h7xx_hal_rcc_ex.c:1120:8
	ldr	r0, [sp, #96]
.Ltmp205:
	.loc	5 1120 6 is_stmt 0              @ libraries/STM32H7xx_HAL/STM32H7xx_HAL_Driver/Src/stm32h7xx_hal_rcc_ex.c:1120:6
	ldrb	r0, [r0, #2]
	lsls	r0, r0, #28
	cmp	r0, #0
	bpl	.LBB0_319
	b	.LBB0_308
.LBB0_308:
.Ltmp206:
	.loc	5 1122 12 is_stmt 1             @ libraries/STM32H7xx_HAL/STM32H7xx_HAL_Driver/Src/stm32h7xx_hal_rcc_ex.c:1122:12
	ldr	r0, [sp, #96]
	.loc	5 1122 27 is_stmt 0             @ libraries/STM32H7xx_HAL/STM32H7xx_HAL_Driver/Src/stm32h7xx_hal_rcc_ex.c:1122:27
	ldr.w	r0, [r0, #160]
	.loc	5 1122 5                        @ libraries/STM32H7xx_HAL/STM32H7xx_HAL_Driver/Src/stm32h7xx_hal_rcc_ex.c:1122:5
	str	r0, [sp, #12]                   @ 4-byte Spill
	cbz	r0, .LBB0_311
	b	.LBB0_309
.LBB0_309:
	ldr	r0, [sp, #12]                   @ 4-byte Reload
	cmp.w	r0, #65536
	beq	.LBB0_312
	b	.LBB0_310
.LBB0_310:
	ldr	r0, [sp, #12]                   @ 4-byte Reload
	cmp.w	r0, #131072
	beq	.LBB0_313
	b	.LBB0_314
.LBB0_311:
.Ltmp207:
	.loc	5 1127 33 is_stmt 1             @ libraries/STM32H7xx_HAL/STM32H7xx_HAL_Driver/Src/stm32h7xx_hal_rcc_ex.c:1127:33
	ldr	r0, [sp, #96]
	.loc	5 1127 48 is_stmt 0             @ libraries/STM32H7xx_HAL/STM32H7xx_HAL_Driver/Src/stm32h7xx_hal_rcc_ex.c:1127:48
	adds	r0, #4
	movs	r1, #0
	.loc	5 1127 13                       @ libraries/STM32H7xx_HAL/STM32H7xx_HAL_Driver/Src/stm32h7xx_hal_rcc_ex.c:1127:13
	bl	RCCEx_PLL2_Config
	.loc	5 1127 11                       @ libraries/STM32H7xx_HAL/STM32H7xx_HAL_Driver/Src/stm32h7xx_hal_rcc_ex.c:1127:11
	strb.w	r0, [sp, #87]
	.loc	5 1130 7 is_stmt 1              @ libraries/STM32H7xx_HAL/STM32H7xx_HAL_Driver/Src/stm32h7xx_hal_rcc_ex.c:1130:7
	b	.LBB0_315
.LBB0_312:
	.loc	5 1133 33                       @ libraries/STM32H7xx_HAL/STM32H7xx_HAL_Driver/Src/stm32h7xx_hal_rcc_ex.c:1133:33
	ldr	r0, [sp, #96]
	.loc	5 1133 48 is_stmt 0             @ libraries/STM32H7xx_HAL/STM32H7xx_HAL_Driver/Src/stm32h7xx_hal_rcc_ex.c:1133:48
	adds	r0, #36
	movs	r1, #2
	.loc	5 1133 13                       @ libraries/STM32H7xx_HAL/STM32H7xx_HAL_Driver/Src/stm32h7xx_hal_rcc_ex.c:1133:13
	bl	RCCEx_PLL3_Config
	.loc	5 1133 11                       @ libraries/STM32H7xx_HAL/STM32H7xx_HAL_Driver/Src/stm32h7xx_hal_rcc_ex.c:1133:11
	strb.w	r0, [sp, #87]
	.loc	5 1136 7 is_stmt 1              @ libraries/STM32H7xx_HAL/STM32H7xx_HAL_Driver/Src/stm32h7xx_hal_rcc_ex.c:1136:7
	b	.LBB0_315
.LBB0_313:
	.loc	5 1141 7                        @ libraries/STM32H7xx_HAL/STM32H7xx_HAL_Driver/Src/stm32h7xx_hal_rcc_ex.c:1141:7
	b	.LBB0_315
.LBB0_314:
	.loc	5 0 7 is_stmt 0                 @ libraries/STM32H7xx_HAL/STM32H7xx_HAL_Driver/Src/stm32h7xx_hal_rcc_ex.c:0:7
	movs	r0, #1
	.loc	5 1144 11 is_stmt 1             @ libraries/STM32H7xx_HAL/STM32H7xx_HAL_Driver/Src/stm32h7xx_hal_rcc_ex.c:1144:11
	strb.w	r0, [sp, #87]
	.loc	5 1145 7                        @ libraries/STM32H7xx_HAL/STM32H7xx_HAL_Driver/Src/stm32h7xx_hal_rcc_ex.c:1145:7
	b	.LBB0_315
.Ltmp208:
.LBB0_315:
	.loc	5 1148 8                        @ libraries/STM32H7xx_HAL/STM32H7xx_HAL_Driver/Src/stm32h7xx_hal_rcc_ex.c:1148:8
	ldrb.w	r0, [sp, #87]
.Ltmp209:
	.loc	5 1148 8 is_stmt 0              @ libraries/STM32H7xx_HAL/STM32H7xx_HAL_Driver/Src/stm32h7xx_hal_rcc_ex.c:1148:8
	cbnz	r0, .LBB0_317
	b	.LBB0_316
.LBB0_316:
	.loc	5 0 8                           @ libraries/STM32H7xx_HAL/STM32H7xx_HAL_Driver/Src/stm32h7xx_hal_rcc_ex.c:0:8
	movw	r1, #17496
	movt	r1, #22530
.Ltmp210:
	.loc	5 1151 7 is_stmt 1              @ libraries/STM32H7xx_HAL/STM32H7xx_HAL_Driver/Src/stm32h7xx_hal_rcc_ex.c:1151:7
	ldr	r0, [r1]
	bic	r0, r0, #196608
	ldr	r2, [sp, #96]
	ldr.w	r2, [r2, #160]
	orrs	r0, r2
	str	r0, [r1]
	.loc	5 1152 5                        @ libraries/STM32H7xx_HAL/STM32H7xx_HAL_Driver/Src/stm32h7xx_hal_rcc_ex.c:1152:5
	b	.LBB0_318
.Ltmp211:
.LBB0_317:
	.loc	5 1156 16                       @ libraries/STM32H7xx_HAL/STM32H7xx_HAL_Driver/Src/stm32h7xx_hal_rcc_ex.c:1156:16
	ldrb.w	r0, [sp, #87]
	.loc	5 1156 14 is_stmt 0             @ libraries/STM32H7xx_HAL/STM32H7xx_HAL_Driver/Src/stm32h7xx_hal_rcc_ex.c:1156:14
	strb.w	r0, [sp, #86]
	b	.LBB0_318
.Ltmp212:
.LBB0_318:
	.loc	5 1158 3 is_stmt 1              @ libraries/STM32H7xx_HAL/STM32H7xx_HAL_Driver/Src/stm32h7xx_hal_rcc_ex.c:1158:3
	b	.LBB0_319
.Ltmp213:
.LBB0_319:
	.loc	5 1161 8                        @ libraries/STM32H7xx_HAL/STM32H7xx_HAL_Driver/Src/stm32h7xx_hal_rcc_ex.c:1161:8
	ldr	r0, [sp, #96]
.Ltmp214:
	.loc	5 1161 6 is_stmt 0              @ libraries/STM32H7xx_HAL/STM32H7xx_HAL_Driver/Src/stm32h7xx_hal_rcc_ex.c:1161:6
	ldrb	r0, [r0, #2]
	lsls	r0, r0, #29
	cmp	r0, #0
	bpl	.LBB0_331
	b	.LBB0_320
.LBB0_320:
.Ltmp215:
	.loc	5 1164 12 is_stmt 1             @ libraries/STM32H7xx_HAL/STM32H7xx_HAL_Driver/Src/stm32h7xx_hal_rcc_ex.c:1164:12
	ldr	r0, [sp, #96]
	.loc	5 1164 27 is_stmt 0             @ libraries/STM32H7xx_HAL/STM32H7xx_HAL_Driver/Src/stm32h7xx_hal_rcc_ex.c:1164:27
	ldr.w	r0, [r0, #132]
	.loc	5 1164 5                        @ libraries/STM32H7xx_HAL/STM32H7xx_HAL_Driver/Src/stm32h7xx_hal_rcc_ex.c:1164:5
	str	r0, [sp, #8]                    @ 4-byte Spill
	cmp.w	r0, #1048576
	beq	.LBB0_323
	b	.LBB0_321
.LBB0_321:
	ldr	r0, [sp, #8]                    @ 4-byte Reload
	cmp.w	r0, #2097152
	beq	.LBB0_324
	b	.LBB0_322
.LBB0_322:
	ldr	r0, [sp, #8]                    @ 4-byte Reload
	cmp.w	r0, #3145728
	beq	.LBB0_325
	b	.LBB0_326
.LBB0_323:
	.loc	5 0 5                           @ libraries/STM32H7xx_HAL/STM32H7xx_HAL_Driver/Src/stm32h7xx_hal_rcc_ex.c:0:5
	movw	r1, #17452
	movt	r1, #22530
.Ltmp216:
	.loc	5 1168 7 is_stmt 1              @ libraries/STM32H7xx_HAL/STM32H7xx_HAL_Driver/Src/stm32h7xx_hal_rcc_ex.c:1168:7
	ldr	r0, [r1]
	orr	r0, r0, #131072
	str	r0, [r1]
	.loc	5 1171 7                        @ libraries/STM32H7xx_HAL/STM32H7xx_HAL_Driver/Src/stm32h7xx_hal_rcc_ex.c:1171:7
	b	.LBB0_327
.LBB0_324:
	.loc	5 1175 33                       @ libraries/STM32H7xx_HAL/STM32H7xx_HAL_Driver/Src/stm32h7xx_hal_rcc_ex.c:1175:33
	ldr	r0, [sp, #96]
	.loc	5 1175 48 is_stmt 0             @ libraries/STM32H7xx_HAL/STM32H7xx_HAL_Driver/Src/stm32h7xx_hal_rcc_ex.c:1175:48
	adds	r0, #36
	movs	r1, #1
	.loc	5 1175 13                       @ libraries/STM32H7xx_HAL/STM32H7xx_HAL_Driver/Src/stm32h7xx_hal_rcc_ex.c:1175:13
	bl	RCCEx_PLL3_Config
	.loc	5 1175 11                       @ libraries/STM32H7xx_HAL/STM32H7xx_HAL_Driver/Src/stm32h7xx_hal_rcc_ex.c:1175:11
	strb.w	r0, [sp, #87]
	.loc	5 1178 7 is_stmt 1              @ libraries/STM32H7xx_HAL/STM32H7xx_HAL_Driver/Src/stm32h7xx_hal_rcc_ex.c:1178:7
	b	.LBB0_327
.LBB0_325:
	.loc	5 1183 7                        @ libraries/STM32H7xx_HAL/STM32H7xx_HAL_Driver/Src/stm32h7xx_hal_rcc_ex.c:1183:7
	b	.LBB0_327
.LBB0_326:
	.loc	5 0 7 is_stmt 0                 @ libraries/STM32H7xx_HAL/STM32H7xx_HAL_Driver/Src/stm32h7xx_hal_rcc_ex.c:0:7
	movs	r0, #1
	.loc	5 1186 11 is_stmt 1             @ libraries/STM32H7xx_HAL/STM32H7xx_HAL_Driver/Src/stm32h7xx_hal_rcc_ex.c:1186:11
	strb.w	r0, [sp, #87]
	.loc	5 1187 7                        @ libraries/STM32H7xx_HAL/STM32H7xx_HAL_Driver/Src/stm32h7xx_hal_rcc_ex.c:1187:7
	b	.LBB0_327
.Ltmp217:
.LBB0_327:
	.loc	5 1190 8                        @ libraries/STM32H7xx_HAL/STM32H7xx_HAL_Driver/Src/stm32h7xx_hal_rcc_ex.c:1190:8
	ldrb.w	r0, [sp, #87]
.Ltmp218:
	.loc	5 1190 8 is_stmt 0              @ libraries/STM32H7xx_HAL/STM32H7xx_HAL_Driver/Src/stm32h7xx_hal_rcc_ex.c:1190:8
	cbnz	r0, .LBB0_329
	b	.LBB0_328
.LBB0_328:
	.loc	5 0 8                           @ libraries/STM32H7xx_HAL/STM32H7xx_HAL_Driver/Src/stm32h7xx_hal_rcc_ex.c:0:8
	movw	r1, #17492
	movt	r1, #22530
.Ltmp219:
	.loc	5 1193 7 is_stmt 1              @ libraries/STM32H7xx_HAL/STM32H7xx_HAL_Driver/Src/stm32h7xx_hal_rcc_ex.c:1193:7
	ldr	r0, [r1]
	bic	r0, r0, #3145728
	ldr	r2, [sp, #96]
	ldr.w	r2, [r2, #132]
	orrs	r0, r2
	str	r0, [r1]
	.loc	5 1194 5                        @ libraries/STM32H7xx_HAL/STM32H7xx_HAL_Driver/Src/stm32h7xx_hal_rcc_ex.c:1194:5
	b	.LBB0_330
.Ltmp220:
.LBB0_329:
	.loc	5 1198 16                       @ libraries/STM32H7xx_HAL/STM32H7xx_HAL_Driver/Src/stm32h7xx_hal_rcc_ex.c:1198:16
	ldrb.w	r0, [sp, #87]
	.loc	5 1198 14 is_stmt 0             @ libraries/STM32H7xx_HAL/STM32H7xx_HAL_Driver/Src/stm32h7xx_hal_rcc_ex.c:1198:14
	strb.w	r0, [sp, #86]
	b	.LBB0_330
.Ltmp221:
.LBB0_330:
	.loc	5 1201 3 is_stmt 1              @ libraries/STM32H7xx_HAL/STM32H7xx_HAL_Driver/Src/stm32h7xx_hal_rcc_ex.c:1201:3
	b	.LBB0_331
.Ltmp222:
.LBB0_331:
	.loc	5 1204 8                        @ libraries/STM32H7xx_HAL/STM32H7xx_HAL_Driver/Src/stm32h7xx_hal_rcc_ex.c:1204:8
	ldr	r0, [sp, #96]
.Ltmp223:
	.loc	5 1204 6 is_stmt 0              @ libraries/STM32H7xx_HAL/STM32H7xx_HAL_Driver/Src/stm32h7xx_hal_rcc_ex.c:1204:6
	ldrb	r0, [r0, #2]
	lsls	r0, r0, #31
	cbz	r0, .LBB0_341
	b	.LBB0_332
.LBB0_332:
.Ltmp224:
	.loc	5 1209 12 is_stmt 1             @ libraries/STM32H7xx_HAL/STM32H7xx_HAL_Driver/Src/stm32h7xx_hal_rcc_ex.c:1209:12
	ldr	r0, [sp, #96]
	.loc	5 1209 27 is_stmt 0             @ libraries/STM32H7xx_HAL/STM32H7xx_HAL_Driver/Src/stm32h7xx_hal_rcc_ex.c:1209:27
	ldr	r0, [r0, #76]
	.loc	5 1209 5                        @ libraries/STM32H7xx_HAL/STM32H7xx_HAL_Driver/Src/stm32h7xx_hal_rcc_ex.c:1209:5
	str	r0, [sp, #4]                    @ 4-byte Spill
	cbz	r0, .LBB0_334
	b	.LBB0_333
.LBB0_333:
	ldr	r0, [sp, #4]                    @ 4-byte Reload
	cmp.w	r0, #65536
	beq	.LBB0_335
	b	.LBB0_336
.LBB0_334:
	.loc	5 0 5                           @ libraries/STM32H7xx_HAL/STM32H7xx_HAL_Driver/Src/stm32h7xx_hal_rcc_ex.c:0:5
	movw	r1, #17452
	movt	r1, #22530
.Ltmp225:
	.loc	5 1213 7 is_stmt 1              @ libraries/STM32H7xx_HAL/STM32H7xx_HAL_Driver/Src/stm32h7xx_hal_rcc_ex.c:1213:7
	ldr	r0, [r1]
	orr	r0, r0, #131072
	str	r0, [r1]
	.loc	5 1216 7                        @ libraries/STM32H7xx_HAL/STM32H7xx_HAL_Driver/Src/stm32h7xx_hal_rcc_ex.c:1216:7
	b	.LBB0_337
.LBB0_335:
	.loc	5 1220 33                       @ libraries/STM32H7xx_HAL/STM32H7xx_HAL_Driver/Src/stm32h7xx_hal_rcc_ex.c:1220:33
	ldr	r0, [sp, #96]
	.loc	5 1220 48 is_stmt 0             @ libraries/STM32H7xx_HAL/STM32H7xx_HAL_Driver/Src/stm32h7xx_hal_rcc_ex.c:1220:48
	adds	r0, #4
	movs	r1, #2
	.loc	5 1220 13                       @ libraries/STM32H7xx_HAL/STM32H7xx_HAL_Driver/Src/stm32h7xx_hal_rcc_ex.c:1220:13
	bl	RCCEx_PLL2_Config
	.loc	5 1220 11                       @ libraries/STM32H7xx_HAL/STM32H7xx_HAL_Driver/Src/stm32h7xx_hal_rcc_ex.c:1220:11
	strb.w	r0, [sp, #87]
	.loc	5 1223 7 is_stmt 1              @ libraries/STM32H7xx_HAL/STM32H7xx_HAL_Driver/Src/stm32h7xx_hal_rcc_ex.c:1223:7
	b	.LBB0_337
.LBB0_336:
	.loc	5 0 7 is_stmt 0                 @ libraries/STM32H7xx_HAL/STM32H7xx_HAL_Driver/Src/stm32h7xx_hal_rcc_ex.c:0:7
	movs	r0, #1
	.loc	5 1226 11 is_stmt 1             @ libraries/STM32H7xx_HAL/STM32H7xx_HAL_Driver/Src/stm32h7xx_hal_rcc_ex.c:1226:11
	strb.w	r0, [sp, #87]
	.loc	5 1227 7                        @ libraries/STM32H7xx_HAL/STM32H7xx_HAL_Driver/Src/stm32h7xx_hal_rcc_ex.c:1227:7
	b	.LBB0_337
.Ltmp226:
.LBB0_337:
	.loc	5 1230 8                        @ libraries/STM32H7xx_HAL/STM32H7xx_HAL_Driver/Src/stm32h7xx_hal_rcc_ex.c:1230:8
	ldrb.w	r0, [sp, #87]
.Ltmp227:
	.loc	5 1230 8 is_stmt 0              @ libraries/STM32H7xx_HAL/STM32H7xx_HAL_Driver/Src/stm32h7xx_hal_rcc_ex.c:1230:8
	cbnz	r0, .LBB0_339
	b	.LBB0_338
.LBB0_338:
	.loc	5 0 8                           @ libraries/STM32H7xx_HAL/STM32H7xx_HAL_Driver/Src/stm32h7xx_hal_rcc_ex.c:0:8
	movw	r1, #17484
	movt	r1, #22530
.Ltmp228:
	.loc	5 1233 7 is_stmt 1              @ libraries/STM32H7xx_HAL/STM32H7xx_HAL_Driver/Src/stm32h7xx_hal_rcc_ex.c:1233:7
	ldr	r0, [r1]
	bic	r0, r0, #65536
	ldr	r2, [sp, #96]
	ldr	r2, [r2, #76]
	orrs	r0, r2
	str	r0, [r1]
	.loc	5 1234 5                        @ libraries/STM32H7xx_HAL/STM32H7xx_HAL_Driver/Src/stm32h7xx_hal_rcc_ex.c:1234:5
	b	.LBB0_340
.Ltmp229:
.LBB0_339:
	.loc	5 1238 16                       @ libraries/STM32H7xx_HAL/STM32H7xx_HAL_Driver/Src/stm32h7xx_hal_rcc_ex.c:1238:16
	ldrb.w	r0, [sp, #87]
	.loc	5 1238 14 is_stmt 0             @ libraries/STM32H7xx_HAL/STM32H7xx_HAL_Driver/Src/stm32h7xx_hal_rcc_ex.c:1238:14
	strb.w	r0, [sp, #86]
	b	.LBB0_340
.Ltmp230:
.LBB0_340:
	.loc	5 1240 3 is_stmt 1              @ libraries/STM32H7xx_HAL/STM32H7xx_HAL_Driver/Src/stm32h7xx_hal_rcc_ex.c:1240:3
	b	.LBB0_341
.Ltmp231:
.LBB0_341:
	.loc	5 1244 8                        @ libraries/STM32H7xx_HAL/STM32H7xx_HAL_Driver/Src/stm32h7xx_hal_rcc_ex.c:1244:8
	ldr	r0, [sp, #96]
.Ltmp232:
	.loc	5 1244 6 is_stmt 0              @ libraries/STM32H7xx_HAL/STM32H7xx_HAL_Driver/Src/stm32h7xx_hal_rcc_ex.c:1244:6
	ldrb	r0, [r0, #3]
	lsls	r0, r0, #26
	cmp	r0, #0
	bpl	.LBB0_345
	b	.LBB0_342
.LBB0_342:
.Ltmp233:
	.loc	5 1246 28 is_stmt 1             @ libraries/STM32H7xx_HAL/STM32H7xx_HAL_Driver/Src/stm32h7xx_hal_rcc_ex.c:1246:28
	ldr	r0, [sp, #96]
	.loc	5 1246 43 is_stmt 0             @ libraries/STM32H7xx_HAL/STM32H7xx_HAL_Driver/Src/stm32h7xx_hal_rcc_ex.c:1246:43
	adds	r0, #36
	movs	r1, #2
	.loc	5 1246 8                        @ libraries/STM32H7xx_HAL/STM32H7xx_HAL_Driver/Src/stm32h7xx_hal_rcc_ex.c:1246:8
	bl	RCCEx_PLL3_Config
.Ltmp234:
	.loc	5 1246 8                        @ libraries/STM32H7xx_HAL/STM32H7xx_HAL_Driver/Src/stm32h7xx_hal_rcc_ex.c:1246:8
	cbz	r0, .LBB0_344
	b	.LBB0_343
.LBB0_343:
	.loc	5 0 8                           @ libraries/STM32H7xx_HAL/STM32H7xx_HAL_Driver/Src/stm32h7xx_hal_rcc_ex.c:0:8
	movs	r0, #1
.Ltmp235:
	.loc	5 1248 13 is_stmt 1             @ libraries/STM32H7xx_HAL/STM32H7xx_HAL_Driver/Src/stm32h7xx_hal_rcc_ex.c:1248:13
	strb.w	r0, [sp, #86]
	.loc	5 1249 5                        @ libraries/STM32H7xx_HAL/STM32H7xx_HAL_Driver/Src/stm32h7xx_hal_rcc_ex.c:1249:5
	b	.LBB0_344
.Ltmp236:
.LBB0_344:
	.loc	5 1250 3                        @ libraries/STM32H7xx_HAL/STM32H7xx_HAL_Driver/Src/stm32h7xx_hal_rcc_ex.c:1250:3
	b	.LBB0_345
.Ltmp237:
.LBB0_345:
	.loc	5 1254 8                        @ libraries/STM32H7xx_HAL/STM32H7xx_HAL_Driver/Src/stm32h7xx_hal_rcc_ex.c:1254:8
	ldr	r0, [sp, #96]
.Ltmp238:
	.loc	5 1254 6 is_stmt 0              @ libraries/STM32H7xx_HAL/STM32H7xx_HAL_Driver/Src/stm32h7xx_hal_rcc_ex.c:1254:6
	ldrb	r0, [r0, #2]
	lsls	r0, r0, #30
	cmp	r0, #0
	bpl	.LBB0_359
	b	.LBB0_346
.LBB0_346:
.Ltmp239:
	.loc	5 1257 12 is_stmt 1             @ libraries/STM32H7xx_HAL/STM32H7xx_HAL_Driver/Src/stm32h7xx_hal_rcc_ex.c:1257:12
	ldr	r0, [sp, #96]
	.loc	5 1257 27 is_stmt 0             @ libraries/STM32H7xx_HAL/STM32H7xx_HAL_Driver/Src/stm32h7xx_hal_rcc_ex.c:1257:27
	ldr	r0, [r0, #124]
	.loc	5 1257 5                        @ libraries/STM32H7xx_HAL/STM32H7xx_HAL_Driver/Src/stm32h7xx_hal_rcc_ex.c:1257:5
	str	r0, [sp]                        @ 4-byte Spill
	cbz	r0, .LBB0_353
	b	.LBB0_347
.LBB0_347:
	ldr	r0, [sp]                        @ 4-byte Reload
	cmp.w	r0, #256
	beq	.LBB0_350
	b	.LBB0_348
.LBB0_348:
	ldr	r0, [sp]                        @ 4-byte Reload
	cmp.w	r0, #512
	beq	.LBB0_351
	b	.LBB0_349
.LBB0_349:
	ldr	r0, [sp]                        @ 4-byte Reload
	cmp.w	r0, #768
	beq	.LBB0_352
	b	.LBB0_354
.LBB0_350:
	.loc	5 0 5                           @ libraries/STM32H7xx_HAL/STM32H7xx_HAL_Driver/Src/stm32h7xx_hal_rcc_ex.c:0:5
	movw	r1, #17452
	movt	r1, #22530
.Ltmp240:
	.loc	5 1261 7 is_stmt 1              @ libraries/STM32H7xx_HAL/STM32H7xx_HAL_Driver/Src/stm32h7xx_hal_rcc_ex.c:1261:7
	ldr	r0, [r1]
	orr	r0, r0, #131072
	str	r0, [r1]
	.loc	5 1264 7                        @ libraries/STM32H7xx_HAL/STM32H7xx_HAL_Driver/Src/stm32h7xx_hal_rcc_ex.c:1264:7
	b	.LBB0_355
.LBB0_351:
	.loc	5 1269 7                        @ libraries/STM32H7xx_HAL/STM32H7xx_HAL_Driver/Src/stm32h7xx_hal_rcc_ex.c:1269:7
	b	.LBB0_355
.LBB0_352:
	.loc	5 1274 7                        @ libraries/STM32H7xx_HAL/STM32H7xx_HAL_Driver/Src/stm32h7xx_hal_rcc_ex.c:1274:7
	b	.LBB0_355
.LBB0_353:
	.loc	5 1278 7                        @ libraries/STM32H7xx_HAL/STM32H7xx_HAL_Driver/Src/stm32h7xx_hal_rcc_ex.c:1278:7
	b	.LBB0_355
.LBB0_354:
	.loc	5 0 7 is_stmt 0                 @ libraries/STM32H7xx_HAL/STM32H7xx_HAL_Driver/Src/stm32h7xx_hal_rcc_ex.c:0:7
	movs	r0, #1
	.loc	5 1281 11 is_stmt 1             @ libraries/STM32H7xx_HAL/STM32H7xx_HAL_Driver/Src/stm32h7xx_hal_rcc_ex.c:1281:11
	strb.w	r0, [sp, #87]
	.loc	5 1282 7                        @ libraries/STM32H7xx_HAL/STM32H7xx_HAL_Driver/Src/stm32h7xx_hal_rcc_ex.c:1282:7
	b	.LBB0_355
.Ltmp241:
.LBB0_355:
	.loc	5 1285 8                        @ libraries/STM32H7xx_HAL/STM32H7xx_HAL_Driver/Src/stm32h7xx_hal_rcc_ex.c:1285:8
	ldrb.w	r0, [sp, #87]
.Ltmp242:
	.loc	5 1285 8 is_stmt 0              @ libraries/STM32H7xx_HAL/STM32H7xx_HAL_Driver/Src/stm32h7xx_hal_rcc_ex.c:1285:8
	cbnz	r0, .LBB0_357
	b	.LBB0_356
.LBB0_356:
	.loc	5 0 8                           @ libraries/STM32H7xx_HAL/STM32H7xx_HAL_Driver/Src/stm32h7xx_hal_rcc_ex.c:0:8
	movw	r1, #17492
	movt	r1, #22530
.Ltmp243:
	.loc	5 1288 7 is_stmt 1              @ libraries/STM32H7xx_HAL/STM32H7xx_HAL_Driver/Src/stm32h7xx_hal_rcc_ex.c:1288:7
	ldr	r0, [r1]
	bic	r0, r0, #768
	ldr	r2, [sp, #96]
	ldr	r2, [r2, #124]
	orrs	r0, r2
	str	r0, [r1]
	.loc	5 1289 5                        @ libraries/STM32H7xx_HAL/STM32H7xx_HAL_Driver/Src/stm32h7xx_hal_rcc_ex.c:1289:5
	b	.LBB0_358
.Ltmp244:
.LBB0_357:
	.loc	5 1293 16                       @ libraries/STM32H7xx_HAL/STM32H7xx_HAL_Driver/Src/stm32h7xx_hal_rcc_ex.c:1293:16
	ldrb.w	r0, [sp, #87]
	.loc	5 1293 14 is_stmt 0             @ libraries/STM32H7xx_HAL/STM32H7xx_HAL_Driver/Src/stm32h7xx_hal_rcc_ex.c:1293:14
	strb.w	r0, [sp, #86]
	b	.LBB0_358
.Ltmp245:
.LBB0_358:
	.loc	5 1296 3 is_stmt 1              @ libraries/STM32H7xx_HAL/STM32H7xx_HAL_Driver/Src/stm32h7xx_hal_rcc_ex.c:1296:3
	b	.LBB0_359
.Ltmp246:
.LBB0_359:
	.loc	5 1299 8                        @ libraries/STM32H7xx_HAL/STM32H7xx_HAL_Driver/Src/stm32h7xx_hal_rcc_ex.c:1299:8
	ldr	r0, [sp, #96]
.Ltmp247:
	.loc	5 1299 6 is_stmt 0              @ libraries/STM32H7xx_HAL/STM32H7xx_HAL_Driver/Src/stm32h7xx_hal_rcc_ex.c:1299:6
	ldrb	r0, [r0, #2]
	lsls	r0, r0, #27
	cmp	r0, #0
	bpl	.LBB0_361
	b	.LBB0_360
.LBB0_360:
	.loc	5 0 6                           @ libraries/STM32H7xx_HAL/STM32H7xx_HAL_Driver/Src/stm32h7xx_hal_rcc_ex.c:0:6
	movw	r1, #17488
	movt	r1, #22530
.Ltmp248:
	.loc	5 1305 5 is_stmt 1              @ libraries/STM32H7xx_HAL/STM32H7xx_HAL_Driver/Src/stm32h7xx_hal_rcc_ex.c:1305:5
	ldr	r0, [r1]
	bic	r0, r0, #-2147483648
	ldr	r2, [sp, #96]
	ldr	r2, [r2, #112]
	orrs	r0, r2
	str	r0, [r1]
	.loc	5 1306 3                        @ libraries/STM32H7xx_HAL/STM32H7xx_HAL_Driver/Src/stm32h7xx_hal_rcc_ex.c:1306:3
	b	.LBB0_361
.Ltmp249:
.LBB0_361:
	.loc	5 1309 8                        @ libraries/STM32H7xx_HAL/STM32H7xx_HAL_Driver/Src/stm32h7xx_hal_rcc_ex.c:1309:8
	ldr	r0, [sp, #96]
.Ltmp250:
	.loc	5 1309 6 is_stmt 0              @ libraries/STM32H7xx_HAL/STM32H7xx_HAL_Driver/Src/stm32h7xx_hal_rcc_ex.c:1309:6
	ldrb	r0, [r0, #3]
	lsls	r0, r0, #27
	cmp	r0, #0
	bpl	.LBB0_363
	b	.LBB0_362
.LBB0_362:
	.loc	5 0 6                           @ libraries/STM32H7xx_HAL/STM32H7xx_HAL_Driver/Src/stm32h7xx_hal_rcc_ex.c:0:6
	movw	r1, #17424
	movt	r1, #22530
.Ltmp251:
	.loc	5 1315 5 is_stmt 1              @ libraries/STM32H7xx_HAL/STM32H7xx_HAL_Driver/Src/stm32h7xx_hal_rcc_ex.c:1315:5
	ldr	r0, [r1]
	bic	r0, r0, #16384
	ldr	r2, [sp, #96]
	ldr.w	r2, [r2, #180]
	orrs	r0, r2
	str	r0, [r1]
	.loc	5 1316 3                        @ libraries/STM32H7xx_HAL/STM32H7xx_HAL_Driver/Src/stm32h7xx_hal_rcc_ex.c:1316:3
	b	.LBB0_363
.Ltmp252:
.LBB0_363:
	.loc	5 1319 8                        @ libraries/STM32H7xx_HAL/STM32H7xx_HAL_Driver/Src/stm32h7xx_hal_rcc_ex.c:1319:8
	ldr	r0, [sp, #96]
.Ltmp253:
	.loc	5 1319 6 is_stmt 0              @ libraries/STM32H7xx_HAL/STM32H7xx_HAL_Driver/Src/stm32h7xx_hal_rcc_ex.c:1319:6
	ldrb	r0, [r0, #2]
	lsls	r0, r0, #26
	cmp	r0, #0
	bpl	.LBB0_365
	b	.LBB0_364
.LBB0_364:
	.loc	5 0 6                           @ libraries/STM32H7xx_HAL/STM32H7xx_HAL_Driver/Src/stm32h7xx_hal_rcc_ex.c:0:6
	movw	r1, #17488
	movt	r1, #22530
.Ltmp254:
	.loc	5 1325 5 is_stmt 1              @ libraries/STM32H7xx_HAL/STM32H7xx_HAL_Driver/Src/stm32h7xx_hal_rcc_ex.c:1325:5
	ldr	r0, [r1]
	bic	r0, r0, #16777216
	ldr	r2, [sp, #96]
	ldr	r2, [r2, #104]
	orrs	r0, r2
	str	r0, [r1]
	.loc	5 1326 3                        @ libraries/STM32H7xx_HAL/STM32H7xx_HAL_Driver/Src/stm32h7xx_hal_rcc_ex.c:1326:3
	b	.LBB0_365
.Ltmp255:
.LBB0_365:
	.loc	5 1329 8                        @ libraries/STM32H7xx_HAL/STM32H7xx_HAL_Driver/Src/stm32h7xx_hal_rcc_ex.c:1329:8
	ldr	r0, [sp, #96]
.Ltmp256:
	.loc	5 1329 6 is_stmt 0              @ libraries/STM32H7xx_HAL/STM32H7xx_HAL_Driver/Src/stm32h7xx_hal_rcc_ex.c:1329:6
	ldrb	r0, [r0, #3]
	lsls	r0, r0, #25
	cmp	r0, #0
	bpl	.LBB0_369
	b	.LBB0_366
.LBB0_366:
.Ltmp257:
	.loc	5 1335 5 is_stmt 1              @ libraries/STM32H7xx_HAL/STM32H7xx_HAL_Driver/Src/stm32h7xx_hal_rcc_ex.c:1335:5
	b	.LBB0_367
.LBB0_367:
	.loc	5 0 5 is_stmt 0                 @ libraries/STM32H7xx_HAL/STM32H7xx_HAL_Driver/Src/stm32h7xx_hal_rcc_ex.c:0:5
	movw	r1, #17424
	movt	r1, #22530
.Ltmp258:
	.loc	5 1335 5                        @ libraries/STM32H7xx_HAL/STM32H7xx_HAL_Driver/Src/stm32h7xx_hal_rcc_ex.c:1335:5
	ldr	r0, [r1]
	bic	r0, r0, #32768
	str	r0, [r1]
	ldr	r0, [sp, #96]
	ldr.w	r2, [r0, #184]
	ldr	r0, [r1]
	orrs	r0, r2
	str	r0, [r1]
	b	.LBB0_368
.Ltmp259:
.LBB0_368:
	.loc	5 1336 3 is_stmt 1              @ libraries/STM32H7xx_HAL/STM32H7xx_HAL_Driver/Src/stm32h7xx_hal_rcc_ex.c:1336:3
	b	.LBB0_369
.Ltmp260:
.LBB0_369:
	.loc	5 1339 8                        @ libraries/STM32H7xx_HAL/STM32H7xx_HAL_Driver/Src/stm32h7xx_hal_rcc_ex.c:1339:8
	ldr	r0, [sp, #96]
.Ltmp261:
	.loc	5 1339 6 is_stmt 0              @ libraries/STM32H7xx_HAL/STM32H7xx_HAL_Driver/Src/stm32h7xx_hal_rcc_ex.c:1339:6
	ldrb	r0, [r0, #3]
	lsls	r0, r0, #24
	cmp	r0, #0
	bpl	.LBB0_371
	b	.LBB0_370
.LBB0_370:
	.loc	5 0 6                           @ libraries/STM32H7xx_HAL/STM32H7xx_HAL_Driver/Src/stm32h7xx_hal_rcc_ex.c:0:6
	movw	r1, #17484
	movt	r1, #22530
.Ltmp262:
	.loc	5 1345 5 is_stmt 1              @ libraries/STM32H7xx_HAL/STM32H7xx_HAL_Driver/Src/stm32h7xx_hal_rcc_ex.c:1345:5
	ldr	r0, [r1]
	bic	r0, r0, #805306368
	ldr	r2, [sp, #96]
	ldr	r2, [r2, #80]
	orrs	r0, r2
	str	r0, [r1]
	.loc	5 1346 3                        @ libraries/STM32H7xx_HAL/STM32H7xx_HAL_Driver/Src/stm32h7xx_hal_rcc_ex.c:1346:3
	b	.LBB0_371
.Ltmp263:
.LBB0_371:
	.loc	5 1348 7                        @ libraries/STM32H7xx_HAL/STM32H7xx_HAL_Driver/Src/stm32h7xx_hal_rcc_ex.c:1348:7
	ldrb.w	r0, [sp, #86]
.Ltmp264:
	.loc	5 1348 7 is_stmt 0              @ libraries/STM32H7xx_HAL/STM32H7xx_HAL_Driver/Src/stm32h7xx_hal_rcc_ex.c:1348:7
	cbnz	r0, .LBB0_373
	b	.LBB0_372
.LBB0_372:
	.loc	5 0 7                           @ libraries/STM32H7xx_HAL/STM32H7xx_HAL_Driver/Src/stm32h7xx_hal_rcc_ex.c:0:7
	movs	r0, #0
.Ltmp265:
	.loc	5 1350 5 is_stmt 1              @ libraries/STM32H7xx_HAL/STM32H7xx_HAL_Driver/Src/stm32h7xx_hal_rcc_ex.c:1350:5
	strb.w	r0, [sp, #103]
	b	.LBB0_374
.Ltmp266:
.LBB0_373:
	.loc	5 0 5 is_stmt 0                 @ libraries/STM32H7xx_HAL/STM32H7xx_HAL_Driver/Src/stm32h7xx_hal_rcc_ex.c:0:5
	movs	r0, #1
	.loc	5 1352 3 is_stmt 1              @ libraries/STM32H7xx_HAL/STM32H7xx_HAL_Driver/Src/stm32h7xx_hal_rcc_ex.c:1352:3
	strb.w	r0, [sp, #103]
	b	.LBB0_374
.LBB0_374:
	.loc	5 1353 1                        @ libraries/STM32H7xx_HAL/STM32H7xx_HAL_Driver/Src/stm32h7xx_hal_rcc_ex.c:1353:1
	ldrb.w	r0, [sp, #103]
	add	sp, #104
	pop	{r7, pc}
.Ltmp267:
.Lfunc_end0:
	.size	HAL_RCCEx_PeriphCLKConfig, .Lfunc_end0-HAL_RCCEx_PeriphCLKConfig
	.cfi_endproc
	.cantunwind
	.fnend
                                        @ -- End function
	.section	.text.RCCEx_PLL2_Config,"ax",%progbits
	.p2align	3                               @ -- Begin function RCCEx_PLL2_Config
	.type	RCCEx_PLL2_Config,%function
	.code	16                              @ @RCCEx_PLL2_Config
	.thumb_func
RCCEx_PLL2_Config:
.Lfunc_begin1:
	.loc	5 2690 0                        @ libraries/STM32H7xx_HAL/STM32H7xx_HAL_Driver/Src/stm32h7xx_hal_rcc_ex.c:2690:0
	.fnstart
	.cfi_startproc
@ %bb.0:
	.save	{r7, lr}
	push	{r7, lr}
	.cfi_def_cfa_offset 8
	.cfi_offset lr, -4
	.cfi_offset r7, -8
	.pad	#24
	sub	sp, #24
	.cfi_def_cfa_offset 32
	str	r0, [sp, #16]
	str	r1, [sp, #12]
	movs	r0, #0
.Ltmp268:
	.loc	5 2693 21 prologue_end          @ libraries/STM32H7xx_HAL/STM32H7xx_HAL_Driver/Src/stm32h7xx_hal_rcc_ex.c:2693:21
	strb.w	r0, [sp, #7]
	movw	r0, #17448
	movt	r0, #22530
.Ltmp269:
	.loc	5 2704 6                        @ libraries/STM32H7xx_HAL/STM32H7xx_HAL_Driver/Src/stm32h7xx_hal_rcc_ex.c:2704:6
	ldr	r0, [r0]
	and	r0, r0, #3
.Ltmp270:
	.loc	5 2704 6 is_stmt 0              @ libraries/STM32H7xx_HAL/STM32H7xx_HAL_Driver/Src/stm32h7xx_hal_rcc_ex.c:2704:6
	cmp	r0, #3
	bne	.LBB1_2
	b	.LBB1_1
.LBB1_1:
	.loc	5 0 6                           @ libraries/STM32H7xx_HAL/STM32H7xx_HAL_Driver/Src/stm32h7xx_hal_rcc_ex.c:0:6
	movs	r0, #1
.Ltmp271:
	.loc	5 2706 5 is_stmt 1              @ libraries/STM32H7xx_HAL/STM32H7xx_HAL_Driver/Src/stm32h7xx_hal_rcc_ex.c:2706:5
	strb.w	r0, [sp, #23]
	b	.LBB1_22
.Ltmp272:
.LBB1_2:
	.loc	5 0 5 is_stmt 0                 @ libraries/STM32H7xx_HAL/STM32H7xx_HAL_Driver/Src/stm32h7xx_hal_rcc_ex.c:0:5
	movw	r1, #17408
	movt	r1, #22530
.Ltmp273:
	.loc	5 2713 5 is_stmt 1              @ libraries/STM32H7xx_HAL/STM32H7xx_HAL_Driver/Src/stm32h7xx_hal_rcc_ex.c:2713:5
	ldr	r0, [r1]
	bic	r0, r0, #67108864
	str	r0, [r1]
	.loc	5 2716 17                       @ libraries/STM32H7xx_HAL/STM32H7xx_HAL_Driver/Src/stm32h7xx_hal_rcc_ex.c:2716:17
	bl	HAL_GetTick
	.loc	5 2716 15 is_stmt 0             @ libraries/STM32H7xx_HAL/STM32H7xx_HAL_Driver/Src/stm32h7xx_hal_rcc_ex.c:2716:15
	str	r0, [sp, #8]
	.loc	5 2719 5 is_stmt 1              @ libraries/STM32H7xx_HAL/STM32H7xx_HAL_Driver/Src/stm32h7xx_hal_rcc_ex.c:2719:5
	b	.LBB1_3
.LBB1_3:                                @ =>This Inner Loop Header: Depth=1
	.loc	5 0 5 is_stmt 0                 @ libraries/STM32H7xx_HAL/STM32H7xx_HAL_Driver/Src/stm32h7xx_hal_rcc_ex.c:0:5
	movw	r0, #17408
	movt	r0, #22530
	.loc	5 2719 11                       @ libraries/STM32H7xx_HAL/STM32H7xx_HAL_Driver/Src/stm32h7xx_hal_rcc_ex.c:2719:11
	ldr	r0, [r0]
	and	r1, r0, #134217728
	movs	r0, #0
	.loc	5 2719 5                        @ libraries/STM32H7xx_HAL/STM32H7xx_HAL_Driver/Src/stm32h7xx_hal_rcc_ex.c:2719:5
	cmp.w	r0, r1, lsr #27
	beq	.LBB1_7
	b	.LBB1_4
.LBB1_4:                                @   in Loop: Header=BB1_3 Depth=1
.Ltmp274:
	.loc	5 2721 12 is_stmt 1             @ libraries/STM32H7xx_HAL/STM32H7xx_HAL_Driver/Src/stm32h7xx_hal_rcc_ex.c:2721:12
	bl	HAL_GetTick
	.loc	5 2721 28 is_stmt 0             @ libraries/STM32H7xx_HAL/STM32H7xx_HAL_Driver/Src/stm32h7xx_hal_rcc_ex.c:2721:28
	ldr	r1, [sp, #8]
	.loc	5 2721 26                       @ libraries/STM32H7xx_HAL/STM32H7xx_HAL_Driver/Src/stm32h7xx_hal_rcc_ex.c:2721:26
	subs	r0, r0, r1
.Ltmp275:
	.loc	5 2721 11                       @ libraries/STM32H7xx_HAL/STM32H7xx_HAL_Driver/Src/stm32h7xx_hal_rcc_ex.c:2721:11
	cmp	r0, #3
	blo	.LBB1_6
	b	.LBB1_5
.LBB1_5:
	.loc	5 0 11                          @ libraries/STM32H7xx_HAL/STM32H7xx_HAL_Driver/Src/stm32h7xx_hal_rcc_ex.c:0:11
	movs	r0, #3
.Ltmp276:
	.loc	5 2723 9 is_stmt 1              @ libraries/STM32H7xx_HAL/STM32H7xx_HAL_Driver/Src/stm32h7xx_hal_rcc_ex.c:2723:9
	strb.w	r0, [sp, #23]
	b	.LBB1_22
.Ltmp277:
.LBB1_6:                                @   in Loop: Header=BB1_3 Depth=1
	.loc	5 2719 5                        @ libraries/STM32H7xx_HAL/STM32H7xx_HAL_Driver/Src/stm32h7xx_hal_rcc_ex.c:2719:5
	b	.LBB1_3
.LBB1_7:
	.loc	5 2728 5                        @ libraries/STM32H7xx_HAL/STM32H7xx_HAL_Driver/Src/stm32h7xx_hal_rcc_ex.c:2728:5
	b	.LBB1_8
.LBB1_8:
	.loc	5 0 5 is_stmt 0                 @ libraries/STM32H7xx_HAL/STM32H7xx_HAL_Driver/Src/stm32h7xx_hal_rcc_ex.c:0:5
	movw	r1, #17448
	movt	r1, #22530
.Ltmp278:
	.loc	5 2728 5                        @ libraries/STM32H7xx_HAL/STM32H7xx_HAL_Driver/Src/stm32h7xx_hal_rcc_ex.c:2728:5
	ldr	r0, [r1]
	bic	r0, r0, #258048
	ldr	r2, [sp, #16]
	ldr	r2, [r2]
	orr.w	r0, r0, r2, lsl #12
	str	r0, [r1]
	ldr	r1, [sp, #16]
	ldr	r0, [r1, #4]
	ldr.w	r12, [r1, #8]
	ldr	r3, [r1, #12]
	ldr	r2, [r1, #16]
	subs	r0, #1
	bfc	r0, #9, #23
	movw	r1, #65024
	movt	r1, #65535
	add.w	r1, r1, r12, lsl #9
	uxth	r1, r1
	add	r0, r1
	movs	r1, #0
	movt	r1, #65535
	add.w	r1, r1, r3, lsl #16
	and	r1, r1, #8323072
	add	r0, r1
	mov.w	r1, #-16777216
	add.w	r1, r1, r2, lsl #24
	and	r1, r1, #2130706432
	add	r0, r1
	movw	r1, #17464
	movt	r1, #22530
	str	r0, [r1]
	b	.LBB1_9
.Ltmp279:
.LBB1_9:
	.loc	5 0 5                           @ libraries/STM32H7xx_HAL/STM32H7xx_HAL_Driver/Src/stm32h7xx_hal_rcc_ex.c:0:5
	movw	r1, #17452
	movt	r1, #22530
	.loc	5 2735 5 is_stmt 1              @ libraries/STM32H7xx_HAL/STM32H7xx_HAL_Driver/Src/stm32h7xx_hal_rcc_ex.c:2735:5
	str	r1, [sp]                        @ 4-byte Spill
	ldr	r0, [r1]
	bic	r0, r0, #192
	ldr	r2, [sp, #16]
	ldr	r2, [r2, #20]
	orrs	r0, r2
	str	r0, [r1]
	.loc	5 2738 5                        @ libraries/STM32H7xx_HAL/STM32H7xx_HAL_Driver/Src/stm32h7xx_hal_rcc_ex.c:2738:5
	ldr	r0, [r1]
	bic	r0, r0, #32
	ldr	r2, [sp, #16]
	ldr	r2, [r2, #24]
	orrs	r0, r2
	str	r0, [r1]
	.loc	5 2741 5                        @ libraries/STM32H7xx_HAL/STM32H7xx_HAL_Driver/Src/stm32h7xx_hal_rcc_ex.c:2741:5
	ldr	r0, [r1]
	bic	r0, r0, #16
	str	r0, [r1]
	movw	r2, #17468
	movt	r2, #22530
	.loc	5 2744 5                        @ libraries/STM32H7xx_HAL/STM32H7xx_HAL_Driver/Src/stm32h7xx_hal_rcc_ex.c:2744:5
	ldr	r0, [r2]
	movw	r3, #65528
	bics	r0, r3
	ldr	r3, [sp, #16]
	ldr	r3, [r3, #28]
	orr.w	r0, r0, r3, lsl #3
	str	r0, [r2]
	.loc	5 2747 5                        @ libraries/STM32H7xx_HAL/STM32H7xx_HAL_Driver/Src/stm32h7xx_hal_rcc_ex.c:2747:5
	ldr	r0, [r1]
	orr	r0, r0, #16
	str	r0, [r1]
.Ltmp280:
	.loc	5 2750 8                        @ libraries/STM32H7xx_HAL/STM32H7xx_HAL_Driver/Src/stm32h7xx_hal_rcc_ex.c:2750:8
	ldr	r0, [sp, #12]
.Ltmp281:
	.loc	5 2750 8 is_stmt 0              @ libraries/STM32H7xx_HAL/STM32H7xx_HAL_Driver/Src/stm32h7xx_hal_rcc_ex.c:2750:8
	cbnz	r0, .LBB1_11
	b	.LBB1_10
.LBB1_10:
	.loc	5 0 8                           @ libraries/STM32H7xx_HAL/STM32H7xx_HAL_Driver/Src/stm32h7xx_hal_rcc_ex.c:0:8
	movw	r1, #17452
	movt	r1, #22530
.Ltmp282:
	.loc	5 2752 7 is_stmt 1              @ libraries/STM32H7xx_HAL/STM32H7xx_HAL_Driver/Src/stm32h7xx_hal_rcc_ex.c:2752:7
	ldr	r0, [r1]
	orr	r0, r0, #524288
	str	r0, [r1]
	.loc	5 2753 5                        @ libraries/STM32H7xx_HAL/STM32H7xx_HAL_Driver/Src/stm32h7xx_hal_rcc_ex.c:2753:5
	b	.LBB1_15
.Ltmp283:
.LBB1_11:
	.loc	5 2754 13                       @ libraries/STM32H7xx_HAL/STM32H7xx_HAL_Driver/Src/stm32h7xx_hal_rcc_ex.c:2754:13
	ldr	r0, [sp, #12]
.Ltmp284:
	.loc	5 2754 13 is_stmt 0             @ libraries/STM32H7xx_HAL/STM32H7xx_HAL_Driver/Src/stm32h7xx_hal_rcc_ex.c:2754:13
	cmp	r0, #1
	bne	.LBB1_13
	b	.LBB1_12
.LBB1_12:
	.loc	5 0 13                          @ libraries/STM32H7xx_HAL/STM32H7xx_HAL_Driver/Src/stm32h7xx_hal_rcc_ex.c:0:13
	movw	r1, #17452
	movt	r1, #22530
.Ltmp285:
	.loc	5 2756 7 is_stmt 1              @ libraries/STM32H7xx_HAL/STM32H7xx_HAL_Driver/Src/stm32h7xx_hal_rcc_ex.c:2756:7
	ldr	r0, [r1]
	orr	r0, r0, #1048576
	str	r0, [r1]
	.loc	5 2757 5                        @ libraries/STM32H7xx_HAL/STM32H7xx_HAL_Driver/Src/stm32h7xx_hal_rcc_ex.c:2757:5
	b	.LBB1_14
.Ltmp286:
.LBB1_13:
	.loc	5 0 5 is_stmt 0                 @ libraries/STM32H7xx_HAL/STM32H7xx_HAL_Driver/Src/stm32h7xx_hal_rcc_ex.c:0:5
	movw	r1, #17452
	movt	r1, #22530
.Ltmp287:
	.loc	5 2760 7 is_stmt 1              @ libraries/STM32H7xx_HAL/STM32H7xx_HAL_Driver/Src/stm32h7xx_hal_rcc_ex.c:2760:7
	ldr	r0, [r1]
	orr	r0, r0, #2097152
	str	r0, [r1]
	b	.LBB1_14
.Ltmp288:
.LBB1_14:
	.loc	5 0 7 is_stmt 0                 @ libraries/STM32H7xx_HAL/STM32H7xx_HAL_Driver/Src/stm32h7xx_hal_rcc_ex.c:0:7
	b	.LBB1_15
.LBB1_15:
	movw	r1, #17408
	movt	r1, #22530
	.loc	5 2764 5 is_stmt 1              @ libraries/STM32H7xx_HAL/STM32H7xx_HAL_Driver/Src/stm32h7xx_hal_rcc_ex.c:2764:5
	ldr	r0, [r1]
	orr	r0, r0, #67108864
	str	r0, [r1]
	.loc	5 2767 17                       @ libraries/STM32H7xx_HAL/STM32H7xx_HAL_Driver/Src/stm32h7xx_hal_rcc_ex.c:2767:17
	bl	HAL_GetTick
	.loc	5 2767 15 is_stmt 0             @ libraries/STM32H7xx_HAL/STM32H7xx_HAL_Driver/Src/stm32h7xx_hal_rcc_ex.c:2767:15
	str	r0, [sp, #8]
	.loc	5 2770 5 is_stmt 1              @ libraries/STM32H7xx_HAL/STM32H7xx_HAL_Driver/Src/stm32h7xx_hal_rcc_ex.c:2770:5
	b	.LBB1_16
.LBB1_16:                               @ =>This Inner Loop Header: Depth=1
	.loc	5 0 5 is_stmt 0                 @ libraries/STM32H7xx_HAL/STM32H7xx_HAL_Driver/Src/stm32h7xx_hal_rcc_ex.c:0:5
	movw	r0, #17408
	movt	r0, #22530
	.loc	5 2770 11                       @ libraries/STM32H7xx_HAL/STM32H7xx_HAL_Driver/Src/stm32h7xx_hal_rcc_ex.c:2770:11
	ldr	r0, [r0]
	and	r1, r0, #134217728
	movs	r0, #0
	.loc	5 2770 5                        @ libraries/STM32H7xx_HAL/STM32H7xx_HAL_Driver/Src/stm32h7xx_hal_rcc_ex.c:2770:5
	cmp.w	r0, r1, lsr #27
	bne	.LBB1_20
	b	.LBB1_17
.LBB1_17:                               @   in Loop: Header=BB1_16 Depth=1
.Ltmp289:
	.loc	5 2772 12 is_stmt 1             @ libraries/STM32H7xx_HAL/STM32H7xx_HAL_Driver/Src/stm32h7xx_hal_rcc_ex.c:2772:12
	bl	HAL_GetTick
	.loc	5 2772 28 is_stmt 0             @ libraries/STM32H7xx_HAL/STM32H7xx_HAL_Driver/Src/stm32h7xx_hal_rcc_ex.c:2772:28
	ldr	r1, [sp, #8]
	.loc	5 2772 26                       @ libraries/STM32H7xx_HAL/STM32H7xx_HAL_Driver/Src/stm32h7xx_hal_rcc_ex.c:2772:26
	subs	r0, r0, r1
.Ltmp290:
	.loc	5 2772 11                       @ libraries/STM32H7xx_HAL/STM32H7xx_HAL_Driver/Src/stm32h7xx_hal_rcc_ex.c:2772:11
	cmp	r0, #3
	blo	.LBB1_19
	b	.LBB1_18
.LBB1_18:
	.loc	5 0 11                          @ libraries/STM32H7xx_HAL/STM32H7xx_HAL_Driver/Src/stm32h7xx_hal_rcc_ex.c:0:11
	movs	r0, #3
.Ltmp291:
	.loc	5 2774 9 is_stmt 1              @ libraries/STM32H7xx_HAL/STM32H7xx_HAL_Driver/Src/stm32h7xx_hal_rcc_ex.c:2774:9
	strb.w	r0, [sp, #23]
	b	.LBB1_22
.Ltmp292:
.LBB1_19:                               @   in Loop: Header=BB1_16 Depth=1
	.loc	5 2770 5                        @ libraries/STM32H7xx_HAL/STM32H7xx_HAL_Driver/Src/stm32h7xx_hal_rcc_ex.c:2770:5
	b	.LBB1_16
.Ltmp293:
.LBB1_20:
	.loc	5 0 5 is_stmt 0                 @ libraries/STM32H7xx_HAL/STM32H7xx_HAL_Driver/Src/stm32h7xx_hal_rcc_ex.c:0:5
	b	.LBB1_21
.LBB1_21:
	.loc	5 2781 10 is_stmt 1             @ libraries/STM32H7xx_HAL/STM32H7xx_HAL_Driver/Src/stm32h7xx_hal_rcc_ex.c:2781:10
	ldrb.w	r0, [sp, #7]
	.loc	5 2781 3 is_stmt 0              @ libraries/STM32H7xx_HAL/STM32H7xx_HAL_Driver/Src/stm32h7xx_hal_rcc_ex.c:2781:3
	strb.w	r0, [sp, #23]
	b	.LBB1_22
.LBB1_22:
	.loc	5 2782 1 is_stmt 1              @ libraries/STM32H7xx_HAL/STM32H7xx_HAL_Driver/Src/stm32h7xx_hal_rcc_ex.c:2782:1
	ldrb.w	r0, [sp, #23]
	add	sp, #24
	pop	{r7, pc}
.Ltmp294:
.Lfunc_end1:
	.size	RCCEx_PLL2_Config, .Lfunc_end1-RCCEx_PLL2_Config
	.cfi_endproc
	.cantunwind
	.fnend
                                        @ -- End function
	.section	.text.RCCEx_PLL3_Config,"ax",%progbits
	.p2align	3                               @ -- Begin function RCCEx_PLL3_Config
	.type	RCCEx_PLL3_Config,%function
	.code	16                              @ @RCCEx_PLL3_Config
	.thumb_func
RCCEx_PLL3_Config:
.Lfunc_begin2:
	.loc	5 2795 0                        @ libraries/STM32H7xx_HAL/STM32H7xx_HAL_Driver/Src/stm32h7xx_hal_rcc_ex.c:2795:0
	.fnstart
	.cfi_startproc
@ %bb.0:
	.save	{r7, lr}
	push	{r7, lr}
	.cfi_def_cfa_offset 8
	.cfi_offset lr, -4
	.cfi_offset r7, -8
	.pad	#24
	sub	sp, #24
	.cfi_def_cfa_offset 32
	str	r0, [sp, #16]
	str	r1, [sp, #12]
	movs	r0, #0
.Ltmp295:
	.loc	5 2797 21 prologue_end          @ libraries/STM32H7xx_HAL/STM32H7xx_HAL_Driver/Src/stm32h7xx_hal_rcc_ex.c:2797:21
	strb.w	r0, [sp, #7]
	movw	r0, #17448
	movt	r0, #22530
.Ltmp296:
	.loc	5 2808 6                        @ libraries/STM32H7xx_HAL/STM32H7xx_HAL_Driver/Src/stm32h7xx_hal_rcc_ex.c:2808:6
	ldr	r0, [r0]
	and	r0, r0, #3
.Ltmp297:
	.loc	5 2808 6 is_stmt 0              @ libraries/STM32H7xx_HAL/STM32H7xx_HAL_Driver/Src/stm32h7xx_hal_rcc_ex.c:2808:6
	cmp	r0, #3
	bne	.LBB2_2
	b	.LBB2_1
.LBB2_1:
	.loc	5 0 6                           @ libraries/STM32H7xx_HAL/STM32H7xx_HAL_Driver/Src/stm32h7xx_hal_rcc_ex.c:0:6
	movs	r0, #1
.Ltmp298:
	.loc	5 2810 5 is_stmt 1              @ libraries/STM32H7xx_HAL/STM32H7xx_HAL_Driver/Src/stm32h7xx_hal_rcc_ex.c:2810:5
	strb.w	r0, [sp, #23]
	b	.LBB2_22
.Ltmp299:
.LBB2_2:
	.loc	5 0 5 is_stmt 0                 @ libraries/STM32H7xx_HAL/STM32H7xx_HAL_Driver/Src/stm32h7xx_hal_rcc_ex.c:0:5
	movw	r1, #17408
	movt	r1, #22530
.Ltmp300:
	.loc	5 2817 5 is_stmt 1              @ libraries/STM32H7xx_HAL/STM32H7xx_HAL_Driver/Src/stm32h7xx_hal_rcc_ex.c:2817:5
	ldr	r0, [r1]
	bic	r0, r0, #268435456
	str	r0, [r1]
	.loc	5 2820 17                       @ libraries/STM32H7xx_HAL/STM32H7xx_HAL_Driver/Src/stm32h7xx_hal_rcc_ex.c:2820:17
	bl	HAL_GetTick
	.loc	5 2820 15 is_stmt 0             @ libraries/STM32H7xx_HAL/STM32H7xx_HAL_Driver/Src/stm32h7xx_hal_rcc_ex.c:2820:15
	str	r0, [sp, #8]
	.loc	5 2822 5 is_stmt 1              @ libraries/STM32H7xx_HAL/STM32H7xx_HAL_Driver/Src/stm32h7xx_hal_rcc_ex.c:2822:5
	b	.LBB2_3
.LBB2_3:                                @ =>This Inner Loop Header: Depth=1
	.loc	5 0 5 is_stmt 0                 @ libraries/STM32H7xx_HAL/STM32H7xx_HAL_Driver/Src/stm32h7xx_hal_rcc_ex.c:0:5
	movw	r0, #17408
	movt	r0, #22530
	.loc	5 2822 11                       @ libraries/STM32H7xx_HAL/STM32H7xx_HAL_Driver/Src/stm32h7xx_hal_rcc_ex.c:2822:11
	ldr	r0, [r0]
	and	r1, r0, #536870912
	movs	r0, #0
	.loc	5 2822 5                        @ libraries/STM32H7xx_HAL/STM32H7xx_HAL_Driver/Src/stm32h7xx_hal_rcc_ex.c:2822:5
	cmp.w	r0, r1, lsr #29
	beq	.LBB2_7
	b	.LBB2_4
.LBB2_4:                                @   in Loop: Header=BB2_3 Depth=1
.Ltmp301:
	.loc	5 2824 12 is_stmt 1             @ libraries/STM32H7xx_HAL/STM32H7xx_HAL_Driver/Src/stm32h7xx_hal_rcc_ex.c:2824:12
	bl	HAL_GetTick
	.loc	5 2824 28 is_stmt 0             @ libraries/STM32H7xx_HAL/STM32H7xx_HAL_Driver/Src/stm32h7xx_hal_rcc_ex.c:2824:28
	ldr	r1, [sp, #8]
	.loc	5 2824 26                       @ libraries/STM32H7xx_HAL/STM32H7xx_HAL_Driver/Src/stm32h7xx_hal_rcc_ex.c:2824:26
	subs	r0, r0, r1
.Ltmp302:
	.loc	5 2824 11                       @ libraries/STM32H7xx_HAL/STM32H7xx_HAL_Driver/Src/stm32h7xx_hal_rcc_ex.c:2824:11
	cmp	r0, #3
	blo	.LBB2_6
	b	.LBB2_5
.LBB2_5:
	.loc	5 0 11                          @ libraries/STM32H7xx_HAL/STM32H7xx_HAL_Driver/Src/stm32h7xx_hal_rcc_ex.c:0:11
	movs	r0, #3
.Ltmp303:
	.loc	5 2826 9 is_stmt 1              @ libraries/STM32H7xx_HAL/STM32H7xx_HAL_Driver/Src/stm32h7xx_hal_rcc_ex.c:2826:9
	strb.w	r0, [sp, #23]
	b	.LBB2_22
.Ltmp304:
.LBB2_6:                                @   in Loop: Header=BB2_3 Depth=1
	.loc	5 2822 5                        @ libraries/STM32H7xx_HAL/STM32H7xx_HAL_Driver/Src/stm32h7xx_hal_rcc_ex.c:2822:5
	b	.LBB2_3
.LBB2_7:
	.loc	5 2831 5                        @ libraries/STM32H7xx_HAL/STM32H7xx_HAL_Driver/Src/stm32h7xx_hal_rcc_ex.c:2831:5
	b	.LBB2_8
.LBB2_8:
	.loc	5 0 5 is_stmt 0                 @ libraries/STM32H7xx_HAL/STM32H7xx_HAL_Driver/Src/stm32h7xx_hal_rcc_ex.c:0:5
	movw	r1, #17448
	movt	r1, #22530
.Ltmp305:
	.loc	5 2831 5                        @ libraries/STM32H7xx_HAL/STM32H7xx_HAL_Driver/Src/stm32h7xx_hal_rcc_ex.c:2831:5
	ldr	r0, [r1]
	bic	r0, r0, #66060288
	ldr	r2, [sp, #16]
	ldr	r2, [r2]
	orr.w	r0, r0, r2, lsl #20
	str	r0, [r1]
	ldr	r1, [sp, #16]
	ldr	r0, [r1, #4]
	ldr.w	r12, [r1, #8]
	ldr	r3, [r1, #12]
	ldr	r2, [r1, #16]
	subs	r0, #1
	bfc	r0, #9, #23
	movw	r1, #65024
	movt	r1, #65535
	add.w	r1, r1, r12, lsl #9
	uxth	r1, r1
	add	r0, r1
	movs	r1, #0
	movt	r1, #65535
	add.w	r1, r1, r3, lsl #16
	and	r1, r1, #8323072
	add	r0, r1
	mov.w	r1, #-16777216
	add.w	r1, r1, r2, lsl #24
	and	r1, r1, #2130706432
	add	r0, r1
	movw	r1, #17472
	movt	r1, #22530
	str	r0, [r1]
	b	.LBB2_9
.Ltmp306:
.LBB2_9:
	.loc	5 0 5                           @ libraries/STM32H7xx_HAL/STM32H7xx_HAL_Driver/Src/stm32h7xx_hal_rcc_ex.c:0:5
	movw	r1, #17452
	movt	r1, #22530
	.loc	5 2838 5 is_stmt 1              @ libraries/STM32H7xx_HAL/STM32H7xx_HAL_Driver/Src/stm32h7xx_hal_rcc_ex.c:2838:5
	str	r1, [sp]                        @ 4-byte Spill
	ldr	r0, [r1]
	bic	r0, r0, #3072
	ldr	r2, [sp, #16]
	ldr	r2, [r2, #20]
	orrs	r0, r2
	str	r0, [r1]
	.loc	5 2841 5                        @ libraries/STM32H7xx_HAL/STM32H7xx_HAL_Driver/Src/stm32h7xx_hal_rcc_ex.c:2841:5
	ldr	r0, [r1]
	bic	r0, r0, #512
	ldr	r2, [sp, #16]
	ldr	r2, [r2, #24]
	orrs	r0, r2
	str	r0, [r1]
	.loc	5 2844 5                        @ libraries/STM32H7xx_HAL/STM32H7xx_HAL_Driver/Src/stm32h7xx_hal_rcc_ex.c:2844:5
	ldr	r0, [r1]
	bic	r0, r0, #256
	str	r0, [r1]
	movw	r2, #17476
	movt	r2, #22530
	.loc	5 2847 5                        @ libraries/STM32H7xx_HAL/STM32H7xx_HAL_Driver/Src/stm32h7xx_hal_rcc_ex.c:2847:5
	ldr	r0, [r2]
	movw	r3, #65528
	bics	r0, r3
	ldr	r3, [sp, #16]
	ldr	r3, [r3, #28]
	orr.w	r0, r0, r3, lsl #3
	str	r0, [r2]
	.loc	5 2850 5                        @ libraries/STM32H7xx_HAL/STM32H7xx_HAL_Driver/Src/stm32h7xx_hal_rcc_ex.c:2850:5
	ldr	r0, [r1]
	orr	r0, r0, #256
	str	r0, [r1]
.Ltmp307:
	.loc	5 2853 8                        @ libraries/STM32H7xx_HAL/STM32H7xx_HAL_Driver/Src/stm32h7xx_hal_rcc_ex.c:2853:8
	ldr	r0, [sp, #12]
.Ltmp308:
	.loc	5 2853 8 is_stmt 0              @ libraries/STM32H7xx_HAL/STM32H7xx_HAL_Driver/Src/stm32h7xx_hal_rcc_ex.c:2853:8
	cbnz	r0, .LBB2_11
	b	.LBB2_10
.LBB2_10:
	.loc	5 0 8                           @ libraries/STM32H7xx_HAL/STM32H7xx_HAL_Driver/Src/stm32h7xx_hal_rcc_ex.c:0:8
	movw	r1, #17452
	movt	r1, #22530
.Ltmp309:
	.loc	5 2855 7 is_stmt 1              @ libraries/STM32H7xx_HAL/STM32H7xx_HAL_Driver/Src/stm32h7xx_hal_rcc_ex.c:2855:7
	ldr	r0, [r1]
	orr	r0, r0, #4194304
	str	r0, [r1]
	.loc	5 2856 5                        @ libraries/STM32H7xx_HAL/STM32H7xx_HAL_Driver/Src/stm32h7xx_hal_rcc_ex.c:2856:5
	b	.LBB2_15
.Ltmp310:
.LBB2_11:
	.loc	5 2857 13                       @ libraries/STM32H7xx_HAL/STM32H7xx_HAL_Driver/Src/stm32h7xx_hal_rcc_ex.c:2857:13
	ldr	r0, [sp, #12]
.Ltmp311:
	.loc	5 2857 13 is_stmt 0             @ libraries/STM32H7xx_HAL/STM32H7xx_HAL_Driver/Src/stm32h7xx_hal_rcc_ex.c:2857:13
	cmp	r0, #1
	bne	.LBB2_13
	b	.LBB2_12
.LBB2_12:
	.loc	5 0 13                          @ libraries/STM32H7xx_HAL/STM32H7xx_HAL_Driver/Src/stm32h7xx_hal_rcc_ex.c:0:13
	movw	r1, #17452
	movt	r1, #22530
.Ltmp312:
	.loc	5 2859 7 is_stmt 1              @ libraries/STM32H7xx_HAL/STM32H7xx_HAL_Driver/Src/stm32h7xx_hal_rcc_ex.c:2859:7
	ldr	r0, [r1]
	orr	r0, r0, #8388608
	str	r0, [r1]
	.loc	5 2860 5                        @ libraries/STM32H7xx_HAL/STM32H7xx_HAL_Driver/Src/stm32h7xx_hal_rcc_ex.c:2860:5
	b	.LBB2_14
.Ltmp313:
.LBB2_13:
	.loc	5 0 5 is_stmt 0                 @ libraries/STM32H7xx_HAL/STM32H7xx_HAL_Driver/Src/stm32h7xx_hal_rcc_ex.c:0:5
	movw	r1, #17452
	movt	r1, #22530
.Ltmp314:
	.loc	5 2863 7 is_stmt 1              @ libraries/STM32H7xx_HAL/STM32H7xx_HAL_Driver/Src/stm32h7xx_hal_rcc_ex.c:2863:7
	ldr	r0, [r1]
	orr	r0, r0, #16777216
	str	r0, [r1]
	b	.LBB2_14
.Ltmp315:
.LBB2_14:
	.loc	5 0 7 is_stmt 0                 @ libraries/STM32H7xx_HAL/STM32H7xx_HAL_Driver/Src/stm32h7xx_hal_rcc_ex.c:0:7
	b	.LBB2_15
.LBB2_15:
	movw	r1, #17408
	movt	r1, #22530
	.loc	5 2867 5 is_stmt 1              @ libraries/STM32H7xx_HAL/STM32H7xx_HAL_Driver/Src/stm32h7xx_hal_rcc_ex.c:2867:5
	ldr	r0, [r1]
	orr	r0, r0, #268435456
	str	r0, [r1]
	.loc	5 2870 17                       @ libraries/STM32H7xx_HAL/STM32H7xx_HAL_Driver/Src/stm32h7xx_hal_rcc_ex.c:2870:17
	bl	HAL_GetTick
	.loc	5 2870 15 is_stmt 0             @ libraries/STM32H7xx_HAL/STM32H7xx_HAL_Driver/Src/stm32h7xx_hal_rcc_ex.c:2870:15
	str	r0, [sp, #8]
	.loc	5 2873 5 is_stmt 1              @ libraries/STM32H7xx_HAL/STM32H7xx_HAL_Driver/Src/stm32h7xx_hal_rcc_ex.c:2873:5
	b	.LBB2_16
.LBB2_16:                               @ =>This Inner Loop Header: Depth=1
	.loc	5 0 5 is_stmt 0                 @ libraries/STM32H7xx_HAL/STM32H7xx_HAL_Driver/Src/stm32h7xx_hal_rcc_ex.c:0:5
	movw	r0, #17408
	movt	r0, #22530
	.loc	5 2873 11                       @ libraries/STM32H7xx_HAL/STM32H7xx_HAL_Driver/Src/stm32h7xx_hal_rcc_ex.c:2873:11
	ldr	r0, [r0]
	and	r1, r0, #536870912
	movs	r0, #0
	.loc	5 2873 5                        @ libraries/STM32H7xx_HAL/STM32H7xx_HAL_Driver/Src/stm32h7xx_hal_rcc_ex.c:2873:5
	cmp.w	r0, r1, lsr #29
	bne	.LBB2_20
	b	.LBB2_17
.LBB2_17:                               @   in Loop: Header=BB2_16 Depth=1
.Ltmp316:
	.loc	5 2875 12 is_stmt 1             @ libraries/STM32H7xx_HAL/STM32H7xx_HAL_Driver/Src/stm32h7xx_hal_rcc_ex.c:2875:12
	bl	HAL_GetTick
	.loc	5 2875 28 is_stmt 0             @ libraries/STM32H7xx_HAL/STM32H7xx_HAL_Driver/Src/stm32h7xx_hal_rcc_ex.c:2875:28
	ldr	r1, [sp, #8]
	.loc	5 2875 26                       @ libraries/STM32H7xx_HAL/STM32H7xx_HAL_Driver/Src/stm32h7xx_hal_rcc_ex.c:2875:26
	subs	r0, r0, r1
.Ltmp317:
	.loc	5 2875 11                       @ libraries/STM32H7xx_HAL/STM32H7xx_HAL_Driver/Src/stm32h7xx_hal_rcc_ex.c:2875:11
	cmp	r0, #3
	blo	.LBB2_19
	b	.LBB2_18
.LBB2_18:
	.loc	5 0 11                          @ libraries/STM32H7xx_HAL/STM32H7xx_HAL_Driver/Src/stm32h7xx_hal_rcc_ex.c:0:11
	movs	r0, #3
.Ltmp318:
	.loc	5 2877 9 is_stmt 1              @ libraries/STM32H7xx_HAL/STM32H7xx_HAL_Driver/Src/stm32h7xx_hal_rcc_ex.c:2877:9
	strb.w	r0, [sp, #23]
	b	.LBB2_22
.Ltmp319:
.LBB2_19:                               @   in Loop: Header=BB2_16 Depth=1
	.loc	5 2873 5                        @ libraries/STM32H7xx_HAL/STM32H7xx_HAL_Driver/Src/stm32h7xx_hal_rcc_ex.c:2873:5
	b	.LBB2_16
.Ltmp320:
.LBB2_20:
	.loc	5 0 5 is_stmt 0                 @ libraries/STM32H7xx_HAL/STM32H7xx_HAL_Driver/Src/stm32h7xx_hal_rcc_ex.c:0:5
	b	.LBB2_21
.LBB2_21:
	.loc	5 2884 10 is_stmt 1             @ libraries/STM32H7xx_HAL/STM32H7xx_HAL_Driver/Src/stm32h7xx_hal_rcc_ex.c:2884:10
	ldrb.w	r0, [sp, #7]
	.loc	5 2884 3 is_stmt 0              @ libraries/STM32H7xx_HAL/STM32H7xx_HAL_Driver/Src/stm32h7xx_hal_rcc_ex.c:2884:3
	strb.w	r0, [sp, #23]
	b	.LBB2_22
.LBB2_22:
	.loc	5 2885 1 is_stmt 1              @ libraries/STM32H7xx_HAL/STM32H7xx_HAL_Driver/Src/stm32h7xx_hal_rcc_ex.c:2885:1
	ldrb.w	r0, [sp, #23]
	add	sp, #24
	pop	{r7, pc}
.Ltmp321:
.Lfunc_end2:
	.size	RCCEx_PLL3_Config, .Lfunc_end2-RCCEx_PLL3_Config
	.cfi_endproc
	.cantunwind
	.fnend
                                        @ -- End function
	.section	.text.HAL_RCCEx_GetPeriphCLKConfig,"ax",%progbits
	.hidden	HAL_RCCEx_GetPeriphCLKConfig    @ -- Begin function HAL_RCCEx_GetPeriphCLKConfig
	.globl	HAL_RCCEx_GetPeriphCLKConfig
	.p2align	3
	.type	HAL_RCCEx_GetPeriphCLKConfig,%function
	.code	16                              @ @HAL_RCCEx_GetPeriphCLKConfig
	.thumb_func
HAL_RCCEx_GetPeriphCLKConfig:
.Lfunc_begin3:
	.loc	5 1365 0                        @ libraries/STM32H7xx_HAL/STM32H7xx_HAL_Driver/Src/stm32h7xx_hal_rcc_ex.c:1365:0
	.fnstart
	.cfi_startproc
@ %bb.0:
	.save	{r4, lr}
	push	{r4, lr}
	.cfi_def_cfa_offset 8
	.cfi_offset lr, -4
	.cfi_offset r4, -8
	.pad	#8
	sub	sp, #8
	.cfi_def_cfa_offset 16
	str	r0, [sp, #4]
.Ltmp322:
	.loc	5 1367 3 prologue_end           @ libraries/STM32H7xx_HAL/STM32H7xx_HAL_Driver/Src/stm32h7xx_hal_rcc_ex.c:1367:3
	ldr	r1, [sp, #4]
	mvn	r0, #536870912
	.loc	5 1367 39 is_stmt 0             @ libraries/STM32H7xx_HAL/STM32H7xx_HAL_Driver/Src/stm32h7xx_hal_rcc_ex.c:1367:39
	str	r0, [r1]
	.loc	5 1378 3 is_stmt 1              @ libraries/STM32H7xx_HAL/STM32H7xx_HAL_Driver/Src/stm32h7xx_hal_rcc_ex.c:1378:3
	ldr	r1, [sp, #4]
	.loc	5 1378 39 is_stmt 0             @ libraries/STM32H7xx_HAL/STM32H7xx_HAL_Driver/Src/stm32h7xx_hal_rcc_ex.c:1378:39
	ldr	r0, [r1]
	orr	r0, r0, #536870912
	str	r0, [r1]
	movw	r2, #17448
	movt	r2, #22530
	.loc	5 1382 48 is_stmt 1             @ libraries/STM32H7xx_HAL/STM32H7xx_HAL_Driver/Src/stm32h7xx_hal_rcc_ex.c:1382:48
	ldr	r0, [r2]
	.loc	5 1382 80 is_stmt 0             @ libraries/STM32H7xx_HAL/STM32H7xx_HAL_Driver/Src/stm32h7xx_hal_rcc_ex.c:1382:80
	ubfx	r0, r0, #20, #6
	.loc	5 1382 3                        @ libraries/STM32H7xx_HAL/STM32H7xx_HAL_Driver/Src/stm32h7xx_hal_rcc_ex.c:1382:3
	ldr	r1, [sp, #4]
	.loc	5 1382 29                       @ libraries/STM32H7xx_HAL/STM32H7xx_HAL_Driver/Src/stm32h7xx_hal_rcc_ex.c:1382:29
	str	r0, [r1, #36]
	movw	r0, #17472
	movt	r0, #22530
	.loc	5 1383 48 is_stmt 1             @ libraries/STM32H7xx_HAL/STM32H7xx_HAL_Driver/Src/stm32h7xx_hal_rcc_ex.c:1383:48
	ldr	r1, [r0]
	.loc	5 1383 57 is_stmt 0             @ libraries/STM32H7xx_HAL/STM32H7xx_HAL_Driver/Src/stm32h7xx_hal_rcc_ex.c:1383:57
	bfc	r1, #9, #23
	.loc	5 1383 99                       @ libraries/STM32H7xx_HAL/STM32H7xx_HAL_Driver/Src/stm32h7xx_hal_rcc_ex.c:1383:99
	adds	r1, #1
	.loc	5 1383 3                        @ libraries/STM32H7xx_HAL/STM32H7xx_HAL_Driver/Src/stm32h7xx_hal_rcc_ex.c:1383:3
	ldr	r3, [sp, #4]
	.loc	5 1383 29                       @ libraries/STM32H7xx_HAL/STM32H7xx_HAL_Driver/Src/stm32h7xx_hal_rcc_ex.c:1383:29
	str	r1, [r3, #40]
	.loc	5 1384 48 is_stmt 1             @ libraries/STM32H7xx_HAL/STM32H7xx_HAL_Driver/Src/stm32h7xx_hal_rcc_ex.c:1384:48
	ldr	r1, [r0]
	.loc	5 1384 57 is_stmt 0             @ libraries/STM32H7xx_HAL/STM32H7xx_HAL_Driver/Src/stm32h7xx_hal_rcc_ex.c:1384:57
	and	r3, r1, #2130706432
	movs	r1, #1
	.loc	5 1384 99                       @ libraries/STM32H7xx_HAL/STM32H7xx_HAL_Driver/Src/stm32h7xx_hal_rcc_ex.c:1384:99
	add.w	r3, r1, r3, lsr #24
	.loc	5 1384 3                        @ libraries/STM32H7xx_HAL/STM32H7xx_HAL_Driver/Src/stm32h7xx_hal_rcc_ex.c:1384:3
	ldr.w	r12, [sp, #4]
	.loc	5 1384 29                       @ libraries/STM32H7xx_HAL/STM32H7xx_HAL_Driver/Src/stm32h7xx_hal_rcc_ex.c:1384:29
	str.w	r3, [r12, #52]
	.loc	5 1385 48 is_stmt 1             @ libraries/STM32H7xx_HAL/STM32H7xx_HAL_Driver/Src/stm32h7xx_hal_rcc_ex.c:1385:48
	ldr	r3, [r0]
	.loc	5 1385 57 is_stmt 0             @ libraries/STM32H7xx_HAL/STM32H7xx_HAL_Driver/Src/stm32h7xx_hal_rcc_ex.c:1385:57
	uxth	r3, r3
	.loc	5 1385 99                       @ libraries/STM32H7xx_HAL/STM32H7xx_HAL_Driver/Src/stm32h7xx_hal_rcc_ex.c:1385:99
	add.w	r3, r1, r3, lsr #9
	.loc	5 1385 3                        @ libraries/STM32H7xx_HAL/STM32H7xx_HAL_Driver/Src/stm32h7xx_hal_rcc_ex.c:1385:3
	ldr.w	r12, [sp, #4]
	.loc	5 1385 29                       @ libraries/STM32H7xx_HAL/STM32H7xx_HAL_Driver/Src/stm32h7xx_hal_rcc_ex.c:1385:29
	str.w	r3, [r12, #44]
	.loc	5 1386 48 is_stmt 1             @ libraries/STM32H7xx_HAL/STM32H7xx_HAL_Driver/Src/stm32h7xx_hal_rcc_ex.c:1386:48
	ldr	r0, [r0]
	.loc	5 1386 57 is_stmt 0             @ libraries/STM32H7xx_HAL/STM32H7xx_HAL_Driver/Src/stm32h7xx_hal_rcc_ex.c:1386:57
	and	r0, r0, #8323072
	.loc	5 1386 99                       @ libraries/STM32H7xx_HAL/STM32H7xx_HAL_Driver/Src/stm32h7xx_hal_rcc_ex.c:1386:99
	add.w	r0, r1, r0, lsr #16
	.loc	5 1386 3                        @ libraries/STM32H7xx_HAL/STM32H7xx_HAL_Driver/Src/stm32h7xx_hal_rcc_ex.c:1386:3
	ldr	r3, [sp, #4]
	.loc	5 1386 29                       @ libraries/STM32H7xx_HAL/STM32H7xx_HAL_Driver/Src/stm32h7xx_hal_rcc_ex.c:1386:29
	str	r0, [r3, #48]
	movw	r0, #17452
	movt	r0, #22530
	.loc	5 1387 50 is_stmt 1             @ libraries/STM32H7xx_HAL/STM32H7xx_HAL_Driver/Src/stm32h7xx_hal_rcc_ex.c:1387:50
	ldr	r3, [r0]
	.loc	5 1387 81 is_stmt 0             @ libraries/STM32H7xx_HAL/STM32H7xx_HAL_Driver/Src/stm32h7xx_hal_rcc_ex.c:1387:81
	ubfx	r3, r3, #10, #2
	.loc	5 1387 3                        @ libraries/STM32H7xx_HAL/STM32H7xx_HAL_Driver/Src/stm32h7xx_hal_rcc_ex.c:1387:3
	ldr.w	r12, [sp, #4]
	.loc	5 1387 31                       @ libraries/STM32H7xx_HAL/STM32H7xx_HAL_Driver/Src/stm32h7xx_hal_rcc_ex.c:1387:31
	str.w	r3, [r12, #56]
	.loc	5 1388 53 is_stmt 1             @ libraries/STM32H7xx_HAL/STM32H7xx_HAL_Driver/Src/stm32h7xx_hal_rcc_ex.c:1388:53
	ldr	r3, [r0]
	.loc	5 1388 87 is_stmt 0             @ libraries/STM32H7xx_HAL/STM32H7xx_HAL_Driver/Src/stm32h7xx_hal_rcc_ex.c:1388:87
	ubfx	r3, r3, #9, #1
	.loc	5 1388 3                        @ libraries/STM32H7xx_HAL/STM32H7xx_HAL_Driver/Src/stm32h7xx_hal_rcc_ex.c:1388:3
	ldr.w	r12, [sp, #4]
	.loc	5 1388 34                       @ libraries/STM32H7xx_HAL/STM32H7xx_HAL_Driver/Src/stm32h7xx_hal_rcc_ex.c:1388:34
	str.w	r3, [r12, #60]
	.loc	5 1391 48 is_stmt 1             @ libraries/STM32H7xx_HAL/STM32H7xx_HAL_Driver/Src/stm32h7xx_hal_rcc_ex.c:1391:48
	ldr	r2, [r2]
	.loc	5 1391 80 is_stmt 0             @ libraries/STM32H7xx_HAL/STM32H7xx_HAL_Driver/Src/stm32h7xx_hal_rcc_ex.c:1391:80
	ubfx	r2, r2, #12, #6
	.loc	5 1391 3                        @ libraries/STM32H7xx_HAL/STM32H7xx_HAL_Driver/Src/stm32h7xx_hal_rcc_ex.c:1391:3
	ldr	r3, [sp, #4]
	.loc	5 1391 29                       @ libraries/STM32H7xx_HAL/STM32H7xx_HAL_Driver/Src/stm32h7xx_hal_rcc_ex.c:1391:29
	str	r2, [r3, #4]
	movw	r2, #17464
	movt	r2, #22530
	.loc	5 1392 48 is_stmt 1             @ libraries/STM32H7xx_HAL/STM32H7xx_HAL_Driver/Src/stm32h7xx_hal_rcc_ex.c:1392:48
	ldr	r3, [r2]
	.loc	5 1392 57 is_stmt 0             @ libraries/STM32H7xx_HAL/STM32H7xx_HAL_Driver/Src/stm32h7xx_hal_rcc_ex.c:1392:57
	bfc	r3, #9, #23
	.loc	5 1392 99                       @ libraries/STM32H7xx_HAL/STM32H7xx_HAL_Driver/Src/stm32h7xx_hal_rcc_ex.c:1392:99
	adds	r3, #1
	.loc	5 1392 3                        @ libraries/STM32H7xx_HAL/STM32H7xx_HAL_Driver/Src/stm32h7xx_hal_rcc_ex.c:1392:3
	ldr.w	r12, [sp, #4]
	.loc	5 1392 29                       @ libraries/STM32H7xx_HAL/STM32H7xx_HAL_Driver/Src/stm32h7xx_hal_rcc_ex.c:1392:29
	str.w	r3, [r12, #8]
	.loc	5 1393 48 is_stmt 1             @ libraries/STM32H7xx_HAL/STM32H7xx_HAL_Driver/Src/stm32h7xx_hal_rcc_ex.c:1393:48
	ldr	r3, [r2]
	.loc	5 1393 57 is_stmt 0             @ libraries/STM32H7xx_HAL/STM32H7xx_HAL_Driver/Src/stm32h7xx_hal_rcc_ex.c:1393:57
	and	r3, r3, #2130706432
	.loc	5 1393 99                       @ libraries/STM32H7xx_HAL/STM32H7xx_HAL_Driver/Src/stm32h7xx_hal_rcc_ex.c:1393:99
	add.w	r3, r1, r3, lsr #24
	.loc	5 1393 3                        @ libraries/STM32H7xx_HAL/STM32H7xx_HAL_Driver/Src/stm32h7xx_hal_rcc_ex.c:1393:3
	ldr.w	r12, [sp, #4]
	.loc	5 1393 29                       @ libraries/STM32H7xx_HAL/STM32H7xx_HAL_Driver/Src/stm32h7xx_hal_rcc_ex.c:1393:29
	str.w	r3, [r12, #20]
	.loc	5 1394 48 is_stmt 1             @ libraries/STM32H7xx_HAL/STM32H7xx_HAL_Driver/Src/stm32h7xx_hal_rcc_ex.c:1394:48
	ldr	r3, [r2]
	.loc	5 1394 57 is_stmt 0             @ libraries/STM32H7xx_HAL/STM32H7xx_HAL_Driver/Src/stm32h7xx_hal_rcc_ex.c:1394:57
	uxth	r3, r3
	.loc	5 1394 99                       @ libraries/STM32H7xx_HAL/STM32H7xx_HAL_Driver/Src/stm32h7xx_hal_rcc_ex.c:1394:99
	add.w	r3, r1, r3, lsr #9
	.loc	5 1394 3                        @ libraries/STM32H7xx_HAL/STM32H7xx_HAL_Driver/Src/stm32h7xx_hal_rcc_ex.c:1394:3
	ldr.w	r12, [sp, #4]
	.loc	5 1394 29                       @ libraries/STM32H7xx_HAL/STM32H7xx_HAL_Driver/Src/stm32h7xx_hal_rcc_ex.c:1394:29
	str.w	r3, [r12, #12]
	.loc	5 1395 48 is_stmt 1             @ libraries/STM32H7xx_HAL/STM32H7xx_HAL_Driver/Src/stm32h7xx_hal_rcc_ex.c:1395:48
	ldr	r2, [r2]
	.loc	5 1395 57 is_stmt 0             @ libraries/STM32H7xx_HAL/STM32H7xx_HAL_Driver/Src/stm32h7xx_hal_rcc_ex.c:1395:57
	and	r2, r2, #8323072
	.loc	5 1395 99                       @ libraries/STM32H7xx_HAL/STM32H7xx_HAL_Driver/Src/stm32h7xx_hal_rcc_ex.c:1395:99
	add.w	r1, r1, r2, lsr #16
	.loc	5 1395 3                        @ libraries/STM32H7xx_HAL/STM32H7xx_HAL_Driver/Src/stm32h7xx_hal_rcc_ex.c:1395:3
	ldr	r2, [sp, #4]
	.loc	5 1395 29                       @ libraries/STM32H7xx_HAL/STM32H7xx_HAL_Driver/Src/stm32h7xx_hal_rcc_ex.c:1395:29
	str	r1, [r2, #16]
	.loc	5 1396 50 is_stmt 1             @ libraries/STM32H7xx_HAL/STM32H7xx_HAL_Driver/Src/stm32h7xx_hal_rcc_ex.c:1396:50
	ldr	r1, [r0]
	.loc	5 1396 58 is_stmt 0             @ libraries/STM32H7xx_HAL/STM32H7xx_HAL_Driver/Src/stm32h7xx_hal_rcc_ex.c:1396:58
	uxtb	r1, r1
	.loc	5 1396 81                       @ libraries/STM32H7xx_HAL/STM32H7xx_HAL_Driver/Src/stm32h7xx_hal_rcc_ex.c:1396:81
	lsrs	r1, r1, #6
	.loc	5 1396 3                        @ libraries/STM32H7xx_HAL/STM32H7xx_HAL_Driver/Src/stm32h7xx_hal_rcc_ex.c:1396:3
	ldr	r2, [sp, #4]
	.loc	5 1396 31                       @ libraries/STM32H7xx_HAL/STM32H7xx_HAL_Driver/Src/stm32h7xx_hal_rcc_ex.c:1396:31
	str	r1, [r2, #24]
	.loc	5 1397 53 is_stmt 1             @ libraries/STM32H7xx_HAL/STM32H7xx_HAL_Driver/Src/stm32h7xx_hal_rcc_ex.c:1397:53
	ldr	r0, [r0]
	.loc	5 1397 87 is_stmt 0             @ libraries/STM32H7xx_HAL/STM32H7xx_HAL_Driver/Src/stm32h7xx_hal_rcc_ex.c:1397:87
	ubfx	r0, r0, #5, #1
	.loc	5 1397 3                        @ libraries/STM32H7xx_HAL/STM32H7xx_HAL_Driver/Src/stm32h7xx_hal_rcc_ex.c:1397:3
	ldr	r1, [sp, #4]
	.loc	5 1397 34                       @ libraries/STM32H7xx_HAL/STM32H7xx_HAL_Driver/Src/stm32h7xx_hal_rcc_ex.c:1397:34
	str	r0, [r1, #28]
	movw	r2, #17492
	movt	r2, #22530
	.loc	5 1400 47 is_stmt 1             @ libraries/STM32H7xx_HAL/STM32H7xx_HAL_Driver/Src/stm32h7xx_hal_rcc_ex.c:1400:47
	ldr	r0, [r2]
	and	r0, r0, #56
	.loc	5 1400 3 is_stmt 0              @ libraries/STM32H7xx_HAL/STM32H7xx_HAL_Driver/Src/stm32h7xx_hal_rcc_ex.c:1400:3
	ldr	r1, [sp, #4]
	.loc	5 1400 45                       @ libraries/STM32H7xx_HAL/STM32H7xx_HAL_Driver/Src/stm32h7xx_hal_rcc_ex.c:1400:45
	str	r0, [r1, #120]
	.loc	5 1402 47 is_stmt 1             @ libraries/STM32H7xx_HAL/STM32H7xx_HAL_Driver/Src/stm32h7xx_hal_rcc_ex.c:1402:47
	ldr	r0, [r2]
	and	r0, r0, #7
	.loc	5 1402 3 is_stmt 0              @ libraries/STM32H7xx_HAL/STM32H7xx_HAL_Driver/Src/stm32h7xx_hal_rcc_ex.c:1402:3
	ldr	r1, [sp, #4]
	.loc	5 1402 45                       @ libraries/STM32H7xx_HAL/STM32H7xx_HAL_Driver/Src/stm32h7xx_hal_rcc_ex.c:1402:45
	str	r0, [r1, #116]
	movw	r12, #17496
	movt	r12, #22530
	.loc	5 1404 47 is_stmt 1             @ libraries/STM32H7xx_HAL/STM32H7xx_HAL_Driver/Src/stm32h7xx_hal_rcc_ex.c:1404:47
	ldr.w	r0, [r12]
	and	r0, r0, #7
	.loc	5 1404 3 is_stmt 0              @ libraries/STM32H7xx_HAL/STM32H7xx_HAL_Driver/Src/stm32h7xx_hal_rcc_ex.c:1404:3
	ldr	r1, [sp, #4]
	.loc	5 1404 45                       @ libraries/STM32H7xx_HAL/STM32H7xx_HAL_Driver/Src/stm32h7xx_hal_rcc_ex.c:1404:45
	str.w	r0, [r1, #144]
	.loc	5 1406 47 is_stmt 1             @ libraries/STM32H7xx_HAL/STM32H7xx_HAL_Driver/Src/stm32h7xx_hal_rcc_ex.c:1406:47
	ldr	r0, [r2]
	and	r0, r0, #12288
	.loc	5 1406 3 is_stmt 0              @ libraries/STM32H7xx_HAL/STM32H7xx_HAL_Driver/Src/stm32h7xx_hal_rcc_ex.c:1406:3
	ldr	r1, [sp, #4]
	.loc	5 1406 45                       @ libraries/STM32H7xx_HAL/STM32H7xx_HAL_Driver/Src/stm32h7xx_hal_rcc_ex.c:1406:45
	str.w	r0, [r1, #128]
	.loc	5 1408 47 is_stmt 1             @ libraries/STM32H7xx_HAL/STM32H7xx_HAL_Driver/Src/stm32h7xx_hal_rcc_ex.c:1408:47
	ldr	r0, [r2]
	and	r0, r0, #1879048192
	.loc	5 1408 3 is_stmt 0              @ libraries/STM32H7xx_HAL/STM32H7xx_HAL_Driver/Src/stm32h7xx_hal_rcc_ex.c:1408:3
	ldr	r1, [sp, #4]
	.loc	5 1408 45                       @ libraries/STM32H7xx_HAL/STM32H7xx_HAL_Driver/Src/stm32h7xx_hal_rcc_ex.c:1408:45
	str.w	r0, [r1, #140]
	.loc	5 1410 47 is_stmt 1             @ libraries/STM32H7xx_HAL/STM32H7xx_HAL_Driver/Src/stm32h7xx_hal_rcc_ex.c:1410:47
	ldr.w	r0, [r12]
	and	r0, r0, #7168
	.loc	5 1410 3 is_stmt 0              @ libraries/STM32H7xx_HAL/STM32H7xx_HAL_Driver/Src/stm32h7xx_hal_rcc_ex.c:1410:3
	ldr	r1, [sp, #4]
	.loc	5 1410 45                       @ libraries/STM32H7xx_HAL/STM32H7xx_HAL_Driver/Src/stm32h7xx_hal_rcc_ex.c:1410:45
	str.w	r0, [r1, #152]
	.loc	5 1412 47 is_stmt 1             @ libraries/STM32H7xx_HAL/STM32H7xx_HAL_Driver/Src/stm32h7xx_hal_rcc_ex.c:1412:47
	ldr.w	r0, [r12]
	and	r0, r0, #57344
	.loc	5 1412 3 is_stmt 0              @ libraries/STM32H7xx_HAL/STM32H7xx_HAL_Driver/Src/stm32h7xx_hal_rcc_ex.c:1412:3
	ldr	r1, [sp, #4]
	.loc	5 1412 45                       @ libraries/STM32H7xx_HAL/STM32H7xx_HAL_Driver/Src/stm32h7xx_hal_rcc_ex.c:1412:45
	str.w	r0, [r1, #156]
	movw	r3, #17488
	movt	r3, #22530
	.loc	5 1414 47 is_stmt 1             @ libraries/STM32H7xx_HAL/STM32H7xx_HAL_Driver/Src/stm32h7xx_hal_rcc_ex.c:1414:47
	str	r3, [sp]                        @ 4-byte Spill
	ldr	r0, [r3]
	and	r0, r0, #7
	.loc	5 1414 3 is_stmt 0              @ libraries/STM32H7xx_HAL/STM32H7xx_HAL_Driver/Src/stm32h7xx_hal_rcc_ex.c:1414:3
	ldr	r1, [sp, #4]
	.loc	5 1414 45                       @ libraries/STM32H7xx_HAL/STM32H7xx_HAL_Driver/Src/stm32h7xx_hal_rcc_ex.c:1414:45
	str	r0, [r1, #84]
	.loc	5 1416 47 is_stmt 1             @ libraries/STM32H7xx_HAL/STM32H7xx_HAL_Driver/Src/stm32h7xx_hal_rcc_ex.c:1416:47
	ldr	r0, [r3]
	and	r0, r0, #448
	.loc	5 1416 3 is_stmt 0              @ libraries/STM32H7xx_HAL/STM32H7xx_HAL_Driver/Src/stm32h7xx_hal_rcc_ex.c:1416:3
	ldr	r1, [sp, #4]
	.loc	5 1416 45                       @ libraries/STM32H7xx_HAL/STM32H7xx_HAL_Driver/Src/stm32h7xx_hal_rcc_ex.c:1416:45
	str	r0, [r1, #88]
	.loc	5 1418 47 is_stmt 1             @ libraries/STM32H7xx_HAL/STM32H7xx_HAL_Driver/Src/stm32h7xx_hal_rcc_ex.c:1418:47
	ldr.w	r0, [r12]
	and	r0, r0, #14680064
	.loc	5 1418 3 is_stmt 0              @ libraries/STM32H7xx_HAL/STM32H7xx_HAL_Driver/Src/stm32h7xx_hal_rcc_ex.c:1418:3
	ldr	r1, [sp, #4]
	.loc	5 1418 45                       @ libraries/STM32H7xx_HAL/STM32H7xx_HAL_Driver/Src/stm32h7xx_hal_rcc_ex.c:1418:45
	str.w	r0, [r1, #164]
	.loc	5 1420 47 is_stmt 1             @ libraries/STM32H7xx_HAL/STM32H7xx_HAL_Driver/Src/stm32h7xx_hal_rcc_ex.c:1420:47
	ldr.w	r0, [r12]
	and	r0, r0, #117440512
	.loc	5 1420 3 is_stmt 0              @ libraries/STM32H7xx_HAL/STM32H7xx_HAL_Driver/Src/stm32h7xx_hal_rcc_ex.c:1420:3
	ldr	r1, [sp, #4]
	.loc	5 1420 45                       @ libraries/STM32H7xx_HAL/STM32H7xx_HAL_Driver/Src/stm32h7xx_hal_rcc_ex.c:1420:45
	str.w	r0, [r1, #168]
	movw	r0, #17520
	movt	r0, #22530
	.loc	5 1422 47 is_stmt 1             @ libraries/STM32H7xx_HAL/STM32H7xx_HAL_Driver/Src/stm32h7xx_hal_rcc_ex.c:1422:47
	ldr	r0, [r0]
	and	r0, r0, #768
	.loc	5 1422 3 is_stmt 0              @ libraries/STM32H7xx_HAL/STM32H7xx_HAL_Driver/Src/stm32h7xx_hal_rcc_ex.c:1422:3
	ldr	r1, [sp, #4]
	.loc	5 1422 45                       @ libraries/STM32H7xx_HAL/STM32H7xx_HAL_Driver/Src/stm32h7xx_hal_rcc_ex.c:1422:45
	str.w	r0, [r1, #176]
	.loc	5 1424 47 is_stmt 1             @ libraries/STM32H7xx_HAL/STM32H7xx_HAL_Driver/Src/stm32h7xx_hal_rcc_ex.c:1424:47
	ldr	r0, [r2]
	and	r0, r0, #3145728
	.loc	5 1424 3 is_stmt 0              @ libraries/STM32H7xx_HAL/STM32H7xx_HAL_Driver/Src/stm32h7xx_hal_rcc_ex.c:1424:3
	ldr	r1, [sp, #4]
	.loc	5 1424 45                       @ libraries/STM32H7xx_HAL/STM32H7xx_HAL_Driver/Src/stm32h7xx_hal_rcc_ex.c:1424:45
	str.w	r0, [r1, #132]
	movw	r1, #17484
	movt	r1, #22530
	.loc	5 1426 47 is_stmt 1             @ libraries/STM32H7xx_HAL/STM32H7xx_HAL_Driver/Src/stm32h7xx_hal_rcc_ex.c:1426:47
	ldr	r0, [r1]
	and	r0, r0, #65536
	.loc	5 1426 3 is_stmt 0              @ libraries/STM32H7xx_HAL/STM32H7xx_HAL_Driver/Src/stm32h7xx_hal_rcc_ex.c:1426:3
	ldr.w	lr, [sp, #4]
	.loc	5 1426 45                       @ libraries/STM32H7xx_HAL/STM32H7xx_HAL_Driver/Src/stm32h7xx_hal_rcc_ex.c:1426:45
	str.w	r0, [lr, #76]
	.loc	5 1428 47 is_stmt 1             @ libraries/STM32H7xx_HAL/STM32H7xx_HAL_Driver/Src/stm32h7xx_hal_rcc_ex.c:1428:47
	ldr	r0, [r2]
	and	r0, r0, #768
	.loc	5 1428 3 is_stmt 0              @ libraries/STM32H7xx_HAL/STM32H7xx_HAL_Driver/Src/stm32h7xx_hal_rcc_ex.c:1428:3
	ldr.w	lr, [sp, #4]
	.loc	5 1428 45                       @ libraries/STM32H7xx_HAL/STM32H7xx_HAL_Driver/Src/stm32h7xx_hal_rcc_ex.c:1428:45
	str.w	r0, [lr, #124]
	movw	r0, #17424
	movt	r0, #22530
	.loc	5 1430 47 is_stmt 1             @ libraries/STM32H7xx_HAL/STM32H7xx_HAL_Driver/Src/stm32h7xx_hal_rcc_ex.c:1430:47
	ldr.w	lr, [r0]
	and	lr, lr, #16384
	.loc	5 1430 3 is_stmt 0              @ libraries/STM32H7xx_HAL/STM32H7xx_HAL_Driver/Src/stm32h7xx_hal_rcc_ex.c:1430:3
	ldr	r4, [sp, #4]
	.loc	5 1430 45                       @ libraries/STM32H7xx_HAL/STM32H7xx_HAL_Driver/Src/stm32h7xx_hal_rcc_ex.c:1430:45
	str.w	lr, [r4, #180]
	.loc	5 1432 47 is_stmt 1             @ libraries/STM32H7xx_HAL/STM32H7xx_HAL_Driver/Src/stm32h7xx_hal_rcc_ex.c:1432:47
	ldr.w	lr, [r12]
	and	lr, lr, #196608
	.loc	5 1432 3 is_stmt 0              @ libraries/STM32H7xx_HAL/STM32H7xx_HAL_Driver/Src/stm32h7xx_hal_rcc_ex.c:1432:3
	ldr	r4, [sp, #4]
	.loc	5 1432 45                       @ libraries/STM32H7xx_HAL/STM32H7xx_HAL_Driver/Src/stm32h7xx_hal_rcc_ex.c:1432:45
	str.w	lr, [r4, #160]
	.loc	5 1434 47 is_stmt 1             @ libraries/STM32H7xx_HAL/STM32H7xx_HAL_Driver/Src/stm32h7xx_hal_rcc_ex.c:1434:47
	ldr.w	lr, [r3]
	and	lr, lr, #-2147483648
	.loc	5 1434 3 is_stmt 0              @ libraries/STM32H7xx_HAL/STM32H7xx_HAL_Driver/Src/stm32h7xx_hal_rcc_ex.c:1434:3
	ldr	r4, [sp, #4]
	.loc	5 1434 45                       @ libraries/STM32H7xx_HAL/STM32H7xx_HAL_Driver/Src/stm32h7xx_hal_rcc_ex.c:1434:45
	str.w	lr, [r4, #112]
	.loc	5 1436 47 is_stmt 1             @ libraries/STM32H7xx_HAL/STM32H7xx_HAL_Driver/Src/stm32h7xx_hal_rcc_ex.c:1436:47
	ldr.w	lr, [r3]
	and	lr, lr, #16777216
	.loc	5 1436 3 is_stmt 0              @ libraries/STM32H7xx_HAL/STM32H7xx_HAL_Driver/Src/stm32h7xx_hal_rcc_ex.c:1436:3
	ldr	r4, [sp, #4]
	.loc	5 1436 45                       @ libraries/STM32H7xx_HAL/STM32H7xx_HAL_Driver/Src/stm32h7xx_hal_rcc_ex.c:1436:45
	str.w	lr, [r4, #104]
	.loc	5 1438 47 is_stmt 1             @ libraries/STM32H7xx_HAL/STM32H7xx_HAL_Driver/Src/stm32h7xx_hal_rcc_ex.c:1438:47
	ldr.w	lr, [r3]
	and	lr, lr, #3145728
	.loc	5 1438 3 is_stmt 0              @ libraries/STM32H7xx_HAL/STM32H7xx_HAL_Driver/Src/stm32h7xx_hal_rcc_ex.c:1438:3
	ldr	r4, [sp, #4]
	.loc	5 1438 45                       @ libraries/STM32H7xx_HAL/STM32H7xx_HAL_Driver/Src/stm32h7xx_hal_rcc_ex.c:1438:45
	str.w	lr, [r4, #100]
	.loc	5 1440 47 is_stmt 1             @ libraries/STM32H7xx_HAL/STM32H7xx_HAL_Driver/Src/stm32h7xx_hal_rcc_ex.c:1440:47
	ldr.w	lr, [r3]
	and	lr, lr, #28672
	.loc	5 1440 3 is_stmt 0              @ libraries/STM32H7xx_HAL/STM32H7xx_HAL_Driver/Src/stm32h7xx_hal_rcc_ex.c:1440:3
	ldr	r4, [sp, #4]
	.loc	5 1440 45                       @ libraries/STM32H7xx_HAL/STM32H7xx_HAL_Driver/Src/stm32h7xx_hal_rcc_ex.c:1440:45
	str.w	lr, [r4, #92]
	.loc	5 1442 47 is_stmt 1             @ libraries/STM32H7xx_HAL/STM32H7xx_HAL_Driver/Src/stm32h7xx_hal_rcc_ex.c:1442:47
	ldr.w	lr, [r3]
	and	lr, lr, #458752
	.loc	5 1442 3 is_stmt 0              @ libraries/STM32H7xx_HAL/STM32H7xx_HAL_Driver/Src/stm32h7xx_hal_rcc_ex.c:1442:3
	ldr	r4, [sp, #4]
	.loc	5 1442 45                       @ libraries/STM32H7xx_HAL/STM32H7xx_HAL_Driver/Src/stm32h7xx_hal_rcc_ex.c:1442:45
	str.w	lr, [r4, #96]
	.loc	5 1444 47 is_stmt 1             @ libraries/STM32H7xx_HAL/STM32H7xx_HAL_Driver/Src/stm32h7xx_hal_rcc_ex.c:1444:47
	ldr.w	r12, [r12]
	and	r12, r12, #1879048192
	.loc	5 1444 3 is_stmt 0              @ libraries/STM32H7xx_HAL/STM32H7xx_HAL_Driver/Src/stm32h7xx_hal_rcc_ex.c:1444:3
	ldr.w	lr, [sp, #4]
	.loc	5 1444 45                       @ libraries/STM32H7xx_HAL/STM32H7xx_HAL_Driver/Src/stm32h7xx_hal_rcc_ex.c:1444:45
	str.w	r12, [lr, #172]
	.loc	5 1446 47 is_stmt 1             @ libraries/STM32H7xx_HAL/STM32H7xx_HAL_Driver/Src/stm32h7xx_hal_rcc_ex.c:1446:47
	ldr	r3, [r3]
	and	r3, r3, #805306368
	.loc	5 1446 3 is_stmt 0              @ libraries/STM32H7xx_HAL/STM32H7xx_HAL_Driver/Src/stm32h7xx_hal_rcc_ex.c:1446:3
	ldr.w	r12, [sp, #4]
	.loc	5 1446 45                       @ libraries/STM32H7xx_HAL/STM32H7xx_HAL_Driver/Src/stm32h7xx_hal_rcc_ex.c:1446:45
	str.w	r3, [r12, #108]
	.loc	5 1448 47 is_stmt 1             @ libraries/STM32H7xx_HAL/STM32H7xx_HAL_Driver/Src/stm32h7xx_hal_rcc_ex.c:1448:47
	ldr	r2, [r2]
	and	r2, r2, #12582912
	.loc	5 1448 3 is_stmt 0              @ libraries/STM32H7xx_HAL/STM32H7xx_HAL_Driver/Src/stm32h7xx_hal_rcc_ex.c:1448:3
	ldr	r3, [sp, #4]
	.loc	5 1448 45                       @ libraries/STM32H7xx_HAL/STM32H7xx_HAL_Driver/Src/stm32h7xx_hal_rcc_ex.c:1448:45
	str.w	r2, [r3, #136]
	.loc	5 1450 47 is_stmt 1             @ libraries/STM32H7xx_HAL/STM32H7xx_HAL_Driver/Src/stm32h7xx_hal_rcc_ex.c:1450:47
	ldr	r2, [r1]
	and	r2, r2, #3
	.loc	5 1450 3 is_stmt 0              @ libraries/STM32H7xx_HAL/STM32H7xx_HAL_Driver/Src/stm32h7xx_hal_rcc_ex.c:1450:3
	ldr	r3, [sp, #4]
	.loc	5 1450 45                       @ libraries/STM32H7xx_HAL/STM32H7xx_HAL_Driver/Src/stm32h7xx_hal_rcc_ex.c:1450:45
	str	r2, [r3, #68]
	.loc	5 1452 47 is_stmt 1             @ libraries/STM32H7xx_HAL/STM32H7xx_HAL_Driver/Src/stm32h7xx_hal_rcc_ex.c:1452:47
	ldr	r2, [r1]
	and	r2, r2, #48
	.loc	5 1452 3 is_stmt 0              @ libraries/STM32H7xx_HAL/STM32H7xx_HAL_Driver/Src/stm32h7xx_hal_rcc_ex.c:1452:3
	ldr	r3, [sp, #4]
	.loc	5 1452 45                       @ libraries/STM32H7xx_HAL/STM32H7xx_HAL_Driver/Src/stm32h7xx_hal_rcc_ex.c:1452:45
	str	r2, [r3, #72]
	.loc	5 1460 47 is_stmt 1             @ libraries/STM32H7xx_HAL/STM32H7xx_HAL_Driver/Src/stm32h7xx_hal_rcc_ex.c:1460:47
	ldr	r1, [r1]
	and	r1, r1, #805306368
	.loc	5 1460 3 is_stmt 0              @ libraries/STM32H7xx_HAL/STM32H7xx_HAL_Driver/Src/stm32h7xx_hal_rcc_ex.c:1460:3
	ldr	r2, [sp, #4]
	.loc	5 1460 45                       @ libraries/STM32H7xx_HAL/STM32H7xx_HAL_Driver/Src/stm32h7xx_hal_rcc_ex.c:1460:45
	str	r1, [r2, #80]
.Ltmp323:
	.loc	5 1463 13 is_stmt 1             @ libraries/STM32H7xx_HAL/STM32H7xx_HAL_Driver/Src/stm32h7xx_hal_rcc_ex.c:1463:13
	ldr	r0, [r0]
.Ltmp324:
	.loc	5 1463 7 is_stmt 0              @ libraries/STM32H7xx_HAL/STM32H7xx_HAL_Driver/Src/stm32h7xx_hal_rcc_ex.c:1463:7
	lsls	r0, r0, #16
	cmp	r0, #0
	bmi	.LBB3_2
	b	.LBB3_1
.LBB3_1:
.Ltmp325:
	.loc	5 1465 5 is_stmt 1              @ libraries/STM32H7xx_HAL/STM32H7xx_HAL_Driver/Src/stm32h7xx_hal_rcc_ex.c:1465:5
	ldr	r1, [sp, #4]
	movs	r0, #0
	.loc	5 1465 37 is_stmt 0             @ libraries/STM32H7xx_HAL/STM32H7xx_HAL_Driver/Src/stm32h7xx_hal_rcc_ex.c:1465:37
	str.w	r0, [r1, #184]
	.loc	5 1466 3 is_stmt 1              @ libraries/STM32H7xx_HAL/STM32H7xx_HAL_Driver/Src/stm32h7xx_hal_rcc_ex.c:1466:3
	b	.LBB3_3
.Ltmp326:
.LBB3_2:
	.loc	5 1469 5                        @ libraries/STM32H7xx_HAL/STM32H7xx_HAL_Driver/Src/stm32h7xx_hal_rcc_ex.c:1469:5
	ldr	r1, [sp, #4]
	mov.w	r0, #32768
	.loc	5 1469 37 is_stmt 0             @ libraries/STM32H7xx_HAL/STM32H7xx_HAL_Driver/Src/stm32h7xx_hal_rcc_ex.c:1469:37
	str.w	r0, [r1, #184]
	b	.LBB3_3
.Ltmp327:
.LBB3_3:
	.loc	5 1471 1 is_stmt 1              @ libraries/STM32H7xx_HAL/STM32H7xx_HAL_Driver/Src/stm32h7xx_hal_rcc_ex.c:1471:1
	add	sp, #8
	pop	{r4, pc}
.Ltmp328:
.Lfunc_end3:
	.size	HAL_RCCEx_GetPeriphCLKConfig, .Lfunc_end3-HAL_RCCEx_GetPeriphCLKConfig
	.cfi_endproc
	.cantunwind
	.fnend
                                        @ -- End function
	.section	.text.HAL_RCCEx_GetPeriphCLKFreq,"ax",%progbits
	.hidden	HAL_RCCEx_GetPeriphCLKFreq      @ -- Begin function HAL_RCCEx_GetPeriphCLKFreq
	.globl	HAL_RCCEx_GetPeriphCLKFreq
	.p2align	3
	.type	HAL_RCCEx_GetPeriphCLKFreq,%function
	.code	16                              @ @HAL_RCCEx_GetPeriphCLKFreq
	.thumb_func
HAL_RCCEx_GetPeriphCLKFreq:
.Lfunc_begin4:
	.loc	5 1486 0                        @ libraries/STM32H7xx_HAL/STM32H7xx_HAL_Driver/Src/stm32h7xx_hal_rcc_ex.c:1486:0
	.fnstart
	.cfi_startproc
@ %bb.0:
	.save	{r7, lr}
	push	{r7, lr}
	.cfi_def_cfa_offset 8
	.cfi_offset lr, -4
	.cfi_offset r7, -8
	.pad	#88
	sub	sp, #88
	.cfi_def_cfa_offset 96
	str	r0, [sp, #84]
.Ltmp329:
	.loc	5 1498 7 prologue_end           @ libraries/STM32H7xx_HAL/STM32H7xx_HAL_Driver/Src/stm32h7xx_hal_rcc_ex.c:1498:7
	ldr	r0, [sp, #84]
.Ltmp330:
	.loc	5 1498 7 is_stmt 0              @ libraries/STM32H7xx_HAL/STM32H7xx_HAL_Driver/Src/stm32h7xx_hal_rcc_ex.c:1498:7
	cmp.w	r0, #256
	bne	.LBB4_20
	b	.LBB4_1
.LBB4_1:
	.loc	5 0 7                           @ libraries/STM32H7xx_HAL/STM32H7xx_HAL_Driver/Src/stm32h7xx_hal_rcc_ex.c:0:7
	movw	r0, #17488
	movt	r0, #22530
.Ltmp331:
	.loc	5 1501 23 is_stmt 1             @ libraries/STM32H7xx_HAL/STM32H7xx_HAL_Driver/Src/stm32h7xx_hal_rcc_ex.c:1501:23
	ldr	r0, [r0]
	and	r0, r0, #7
	.loc	5 1501 21 is_stmt 0             @ libraries/STM32H7xx_HAL/STM32H7xx_HAL_Driver/Src/stm32h7xx_hal_rcc_ex.c:1501:21
	str	r0, [sp, #40]
	.loc	5 1503 15 is_stmt 1             @ libraries/STM32H7xx_HAL/STM32H7xx_HAL_Driver/Src/stm32h7xx_hal_rcc_ex.c:1503:15
	ldr	r0, [sp, #40]
	.loc	5 1503 7 is_stmt 0              @ libraries/STM32H7xx_HAL/STM32H7xx_HAL_Driver/Src/stm32h7xx_hal_rcc_ex.c:1503:7
	str	r0, [sp, #28]                   @ 4-byte Spill
	cmp	r0, #4
	bhi	.LBB4_18
@ %bb.2:
	.loc	5 0 7                           @ libraries/STM32H7xx_HAL/STM32H7xx_HAL_Driver/Src/stm32h7xx_hal_rcc_ex.c:0:7
	ldr	r1, [sp, #28]                   @ 4-byte Reload
.LCPI4_0:
	tbb	[pc, r1]
@ %bb.3:
.LJTI4_0:
	.byte	(.LBB4_4-(.LCPI4_0+4))/2
	.byte	(.LBB4_5-(.LCPI4_0+4))/2
	.byte	(.LBB4_6-(.LCPI4_0+4))/2
	.byte	(.LBB4_17-(.LCPI4_0+4))/2
	.byte	(.LBB4_7-(.LCPI4_0+4))/2
	.p2align	1
.LBB4_4:
	add	r0, sp, #72
.Ltmp332:
	.loc	5 1507 11 is_stmt 1             @ libraries/STM32H7xx_HAL/STM32H7xx_HAL_Driver/Src/stm32h7xx_hal_rcc_ex.c:1507:11
	bl	HAL_RCCEx_GetPLL1ClockFreq
	.loc	5 1508 35                       @ libraries/STM32H7xx_HAL/STM32H7xx_HAL_Driver/Src/stm32h7xx_hal_rcc_ex.c:1508:35
	ldr	r0, [sp, #76]
	.loc	5 1508 21 is_stmt 0             @ libraries/STM32H7xx_HAL/STM32H7xx_HAL_Driver/Src/stm32h7xx_hal_rcc_ex.c:1508:21
	str	r0, [sp, #44]
	.loc	5 1509 11 is_stmt 1             @ libraries/STM32H7xx_HAL/STM32H7xx_HAL_Driver/Src/stm32h7xx_hal_rcc_ex.c:1509:11
	b	.LBB4_19
.Ltmp333:
.LBB4_5:
	.loc	5 0 11 is_stmt 0                @ libraries/STM32H7xx_HAL/STM32H7xx_HAL_Driver/Src/stm32h7xx_hal_rcc_ex.c:0:11
	add	r0, sp, #60
.Ltmp334:
	.loc	5 1513 11 is_stmt 1             @ libraries/STM32H7xx_HAL/STM32H7xx_HAL_Driver/Src/stm32h7xx_hal_rcc_ex.c:1513:11
	bl	HAL_RCCEx_GetPLL2ClockFreq
	.loc	5 1514 35                       @ libraries/STM32H7xx_HAL/STM32H7xx_HAL_Driver/Src/stm32h7xx_hal_rcc_ex.c:1514:35
	ldr	r0, [sp, #60]
	.loc	5 1514 21 is_stmt 0             @ libraries/STM32H7xx_HAL/STM32H7xx_HAL_Driver/Src/stm32h7xx_hal_rcc_ex.c:1514:21
	str	r0, [sp, #44]
	.loc	5 1515 11 is_stmt 1             @ libraries/STM32H7xx_HAL/STM32H7xx_HAL_Driver/Src/stm32h7xx_hal_rcc_ex.c:1515:11
	b	.LBB4_19
.Ltmp335:
.LBB4_6:
	.loc	5 0 11 is_stmt 0                @ libraries/STM32H7xx_HAL/STM32H7xx_HAL_Driver/Src/stm32h7xx_hal_rcc_ex.c:0:11
	add	r0, sp, #48
.Ltmp336:
	.loc	5 1520 11 is_stmt 1             @ libraries/STM32H7xx_HAL/STM32H7xx_HAL_Driver/Src/stm32h7xx_hal_rcc_ex.c:1520:11
	bl	HAL_RCCEx_GetPLL3ClockFreq
	.loc	5 1521 35                       @ libraries/STM32H7xx_HAL/STM32H7xx_HAL_Driver/Src/stm32h7xx_hal_rcc_ex.c:1521:35
	ldr	r0, [sp, #48]
	.loc	5 1521 21 is_stmt 0             @ libraries/STM32H7xx_HAL/STM32H7xx_HAL_Driver/Src/stm32h7xx_hal_rcc_ex.c:1521:21
	str	r0, [sp, #44]
	.loc	5 1522 11 is_stmt 1             @ libraries/STM32H7xx_HAL/STM32H7xx_HAL_Driver/Src/stm32h7xx_hal_rcc_ex.c:1522:11
	b	.LBB4_19
.Ltmp337:
.LBB4_7:
	.loc	5 0 11 is_stmt 0                @ libraries/STM32H7xx_HAL/STM32H7xx_HAL_Driver/Src/stm32h7xx_hal_rcc_ex.c:0:11
	movw	r0, #17484
	movt	r0, #22530
.Ltmp338:
	.loc	5 1528 27 is_stmt 1             @ libraries/STM32H7xx_HAL/STM32H7xx_HAL_Driver/Src/stm32h7xx_hal_rcc_ex.c:1528:27
	ldr	r0, [r0]
	and	r0, r0, #805306368
	.loc	5 1528 25 is_stmt 0             @ libraries/STM32H7xx_HAL/STM32H7xx_HAL_Driver/Src/stm32h7xx_hal_rcc_ex.c:1528:25
	str	r0, [sp, #36]
.Ltmp339:
	.loc	5 1530 14 is_stmt 1             @ libraries/STM32H7xx_HAL/STM32H7xx_HAL_Driver/Src/stm32h7xx_hal_rcc_ex.c:1530:14
	ldr	r0, [sp, #36]
.Ltmp340:
	.loc	5 1530 14 is_stmt 0             @ libraries/STM32H7xx_HAL/STM32H7xx_HAL_Driver/Src/stm32h7xx_hal_rcc_ex.c:1530:14
	cbnz	r0, .LBB4_9
	b	.LBB4_8
.LBB4_8:
	.loc	5 0 14                          @ libraries/STM32H7xx_HAL/STM32H7xx_HAL_Driver/Src/stm32h7xx_hal_rcc_ex.c:0:14
	movw	r0, #36864
	movt	r0, #976
.Ltmp341:
	.loc	5 1533 23 is_stmt 1             @ libraries/STM32H7xx_HAL/STM32H7xx_HAL_Driver/Src/stm32h7xx_hal_rcc_ex.c:1533:23
	str	r0, [sp, #44]
	.loc	5 1534 11                       @ libraries/STM32H7xx_HAL/STM32H7xx_HAL_Driver/Src/stm32h7xx_hal_rcc_ex.c:1534:11
	b	.LBB4_16
.Ltmp342:
.LBB4_9:
	.loc	5 1536 19                       @ libraries/STM32H7xx_HAL/STM32H7xx_HAL_Driver/Src/stm32h7xx_hal_rcc_ex.c:1536:19
	ldr	r0, [sp, #36]
.Ltmp343:
	.loc	5 1536 19 is_stmt 0             @ libraries/STM32H7xx_HAL/STM32H7xx_HAL_Driver/Src/stm32h7xx_hal_rcc_ex.c:1536:19
	cmp.w	r0, #268435456
	bne	.LBB4_11
	b	.LBB4_10
.LBB4_10:
	.loc	5 0 19                          @ libraries/STM32H7xx_HAL/STM32H7xx_HAL_Driver/Src/stm32h7xx_hal_rcc_ex.c:0:19
	movw	r0, #2304
	movt	r0, #61
.Ltmp344:
	.loc	5 1539 23 is_stmt 1             @ libraries/STM32H7xx_HAL/STM32H7xx_HAL_Driver/Src/stm32h7xx_hal_rcc_ex.c:1539:23
	str	r0, [sp, #44]
	.loc	5 1540 11                       @ libraries/STM32H7xx_HAL/STM32H7xx_HAL_Driver/Src/stm32h7xx_hal_rcc_ex.c:1540:11
	b	.LBB4_15
.Ltmp345:
.LBB4_11:
	.loc	5 1542 20                       @ libraries/STM32H7xx_HAL/STM32H7xx_HAL_Driver/Src/stm32h7xx_hal_rcc_ex.c:1542:20
	ldr	r0, [sp, #36]
.Ltmp346:
	.loc	5 1542 20 is_stmt 0             @ libraries/STM32H7xx_HAL/STM32H7xx_HAL_Driver/Src/stm32h7xx_hal_rcc_ex.c:1542:20
	cmp.w	r0, #536870912
	bne	.LBB4_13
	b	.LBB4_12
.LBB4_12:
	.loc	5 0 20                          @ libraries/STM32H7xx_HAL/STM32H7xx_HAL_Driver/Src/stm32h7xx_hal_rcc_ex.c:0:20
	movw	r0, #30784
	movt	r0, #381
.Ltmp347:
	.loc	5 1545 23 is_stmt 1             @ libraries/STM32H7xx_HAL/STM32H7xx_HAL_Driver/Src/stm32h7xx_hal_rcc_ex.c:1545:23
	str	r0, [sp, #44]
	.loc	5 1546 11                       @ libraries/STM32H7xx_HAL/STM32H7xx_HAL_Driver/Src/stm32h7xx_hal_rcc_ex.c:1546:11
	b	.LBB4_14
.Ltmp348:
.LBB4_13:
	.loc	5 0 11 is_stmt 0                @ libraries/STM32H7xx_HAL/STM32H7xx_HAL_Driver/Src/stm32h7xx_hal_rcc_ex.c:0:11
	movs	r0, #0
.Ltmp349:
	.loc	5 1551 23 is_stmt 1             @ libraries/STM32H7xx_HAL/STM32H7xx_HAL_Driver/Src/stm32h7xx_hal_rcc_ex.c:1551:23
	str	r0, [sp, #44]
	b	.LBB4_14
.Ltmp350:
.LBB4_14:
	.loc	5 0 23 is_stmt 0                @ libraries/STM32H7xx_HAL/STM32H7xx_HAL_Driver/Src/stm32h7xx_hal_rcc_ex.c:0:23
	b	.LBB4_15
.LBB4_15:
	b	.LBB4_16
.LBB4_16:
	.loc	5 1554 11 is_stmt 1             @ libraries/STM32H7xx_HAL/STM32H7xx_HAL_Driver/Src/stm32h7xx_hal_rcc_ex.c:1554:11
	b	.LBB4_19
.Ltmp351:
.LBB4_17:
	.loc	5 0 11 is_stmt 0                @ libraries/STM32H7xx_HAL/STM32H7xx_HAL_Driver/Src/stm32h7xx_hal_rcc_ex.c:0:11
	movw	r0, #32768
	movt	r0, #187
.Ltmp352:
	.loc	5 1559 21 is_stmt 1             @ libraries/STM32H7xx_HAL/STM32H7xx_HAL_Driver/Src/stm32h7xx_hal_rcc_ex.c:1559:21
	str	r0, [sp, #44]
	.loc	5 1560 11                       @ libraries/STM32H7xx_HAL/STM32H7xx_HAL_Driver/Src/stm32h7xx_hal_rcc_ex.c:1560:11
	b	.LBB4_19
.Ltmp353:
.LBB4_18:
	.loc	5 0 11 is_stmt 0                @ libraries/STM32H7xx_HAL/STM32H7xx_HAL_Driver/Src/stm32h7xx_hal_rcc_ex.c:0:11
	movs	r0, #0
.Ltmp354:
	.loc	5 1564 21 is_stmt 1             @ libraries/STM32H7xx_HAL/STM32H7xx_HAL_Driver/Src/stm32h7xx_hal_rcc_ex.c:1564:21
	str	r0, [sp, #44]
	.loc	5 1565 11                       @ libraries/STM32H7xx_HAL/STM32H7xx_HAL_Driver/Src/stm32h7xx_hal_rcc_ex.c:1565:11
	b	.LBB4_19
.Ltmp355:
.LBB4_19:
	.loc	5 1568 5                        @ libraries/STM32H7xx_HAL/STM32H7xx_HAL_Driver/Src/stm32h7xx_hal_rcc_ex.c:1568:5
	b	.LBB4_140
.Ltmp356:
.LBB4_20:
	.loc	5 1570 12                       @ libraries/STM32H7xx_HAL/STM32H7xx_HAL_Driver/Src/stm32h7xx_hal_rcc_ex.c:1570:12
	ldr	r0, [sp, #84]
.Ltmp357:
	.loc	5 1570 12 is_stmt 0             @ libraries/STM32H7xx_HAL/STM32H7xx_HAL_Driver/Src/stm32h7xx_hal_rcc_ex.c:1570:12
	cmp.w	r0, #512
	bne	.LBB4_42
	b	.LBB4_21
.LBB4_21:
	.loc	5 0 12                          @ libraries/STM32H7xx_HAL/STM32H7xx_HAL_Driver/Src/stm32h7xx_hal_rcc_ex.c:0:12
	movw	r0, #17488
	movt	r0, #22530
.Ltmp358:
	.loc	5 1573 23 is_stmt 1             @ libraries/STM32H7xx_HAL/STM32H7xx_HAL_Driver/Src/stm32h7xx_hal_rcc_ex.c:1573:23
	ldr	r0, [r0]
	and	r0, r0, #448
	.loc	5 1573 21 is_stmt 0             @ libraries/STM32H7xx_HAL/STM32H7xx_HAL_Driver/Src/stm32h7xx_hal_rcc_ex.c:1573:21
	str	r0, [sp, #40]
	.loc	5 1575 15 is_stmt 1             @ libraries/STM32H7xx_HAL/STM32H7xx_HAL_Driver/Src/stm32h7xx_hal_rcc_ex.c:1575:15
	ldr	r0, [sp, #40]
	.loc	5 1575 7 is_stmt 0              @ libraries/STM32H7xx_HAL/STM32H7xx_HAL_Driver/Src/stm32h7xx_hal_rcc_ex.c:1575:7
	str	r0, [sp, #24]                   @ 4-byte Spill
	cbz	r0, .LBB4_26
	b	.LBB4_22
.LBB4_22:
	ldr	r0, [sp, #24]                   @ 4-byte Reload
	cmp	r0, #64
	beq	.LBB4_27
	b	.LBB4_23
.LBB4_23:
	ldr	r0, [sp, #24]                   @ 4-byte Reload
	cmp	r0, #128
	beq	.LBB4_28
	b	.LBB4_24
.LBB4_24:
	ldr	r0, [sp, #24]                   @ 4-byte Reload
	cmp	r0, #192
	beq	.LBB4_39
	b	.LBB4_25
.LBB4_25:
	ldr	r0, [sp, #24]                   @ 4-byte Reload
	cmp.w	r0, #256
	beq	.LBB4_29
	b	.LBB4_40
.LBB4_26:
	.loc	5 0 7                           @ libraries/STM32H7xx_HAL/STM32H7xx_HAL_Driver/Src/stm32h7xx_hal_rcc_ex.c:0:7
	add	r0, sp, #72
.Ltmp359:
	.loc	5 1579 11 is_stmt 1             @ libraries/STM32H7xx_HAL/STM32H7xx_HAL_Driver/Src/stm32h7xx_hal_rcc_ex.c:1579:11
	bl	HAL_RCCEx_GetPLL1ClockFreq
	.loc	5 1580 35                       @ libraries/STM32H7xx_HAL/STM32H7xx_HAL_Driver/Src/stm32h7xx_hal_rcc_ex.c:1580:35
	ldr	r0, [sp, #76]
	.loc	5 1580 21 is_stmt 0             @ libraries/STM32H7xx_HAL/STM32H7xx_HAL_Driver/Src/stm32h7xx_hal_rcc_ex.c:1580:21
	str	r0, [sp, #44]
	.loc	5 1581 11 is_stmt 1             @ libraries/STM32H7xx_HAL/STM32H7xx_HAL_Driver/Src/stm32h7xx_hal_rcc_ex.c:1581:11
	b	.LBB4_41
.Ltmp360:
.LBB4_27:
	.loc	5 0 11 is_stmt 0                @ libraries/STM32H7xx_HAL/STM32H7xx_HAL_Driver/Src/stm32h7xx_hal_rcc_ex.c:0:11
	add	r0, sp, #60
.Ltmp361:
	.loc	5 1585 11 is_stmt 1             @ libraries/STM32H7xx_HAL/STM32H7xx_HAL_Driver/Src/stm32h7xx_hal_rcc_ex.c:1585:11
	bl	HAL_RCCEx_GetPLL2ClockFreq
	.loc	5 1586 35                       @ libraries/STM32H7xx_HAL/STM32H7xx_HAL_Driver/Src/stm32h7xx_hal_rcc_ex.c:1586:35
	ldr	r0, [sp, #60]
	.loc	5 1586 21 is_stmt 0             @ libraries/STM32H7xx_HAL/STM32H7xx_HAL_Driver/Src/stm32h7xx_hal_rcc_ex.c:1586:21
	str	r0, [sp, #44]
	.loc	5 1587 11 is_stmt 1             @ libraries/STM32H7xx_HAL/STM32H7xx_HAL_Driver/Src/stm32h7xx_hal_rcc_ex.c:1587:11
	b	.LBB4_41
.Ltmp362:
.LBB4_28:
	.loc	5 0 11 is_stmt 0                @ libraries/STM32H7xx_HAL/STM32H7xx_HAL_Driver/Src/stm32h7xx_hal_rcc_ex.c:0:11
	add	r0, sp, #48
.Ltmp363:
	.loc	5 1592 11 is_stmt 1             @ libraries/STM32H7xx_HAL/STM32H7xx_HAL_Driver/Src/stm32h7xx_hal_rcc_ex.c:1592:11
	bl	HAL_RCCEx_GetPLL3ClockFreq
	.loc	5 1593 35                       @ libraries/STM32H7xx_HAL/STM32H7xx_HAL_Driver/Src/stm32h7xx_hal_rcc_ex.c:1593:35
	ldr	r0, [sp, #48]
	.loc	5 1593 21 is_stmt 0             @ libraries/STM32H7xx_HAL/STM32H7xx_HAL_Driver/Src/stm32h7xx_hal_rcc_ex.c:1593:21
	str	r0, [sp, #44]
	.loc	5 1594 11 is_stmt 1             @ libraries/STM32H7xx_HAL/STM32H7xx_HAL_Driver/Src/stm32h7xx_hal_rcc_ex.c:1594:11
	b	.LBB4_41
.Ltmp364:
.LBB4_29:
	.loc	5 0 11 is_stmt 0                @ libraries/STM32H7xx_HAL/STM32H7xx_HAL_Driver/Src/stm32h7xx_hal_rcc_ex.c:0:11
	movw	r0, #17484
	movt	r0, #22530
.Ltmp365:
	.loc	5 1600 27 is_stmt 1             @ libraries/STM32H7xx_HAL/STM32H7xx_HAL_Driver/Src/stm32h7xx_hal_rcc_ex.c:1600:27
	ldr	r0, [r0]
	and	r0, r0, #805306368
	.loc	5 1600 25 is_stmt 0             @ libraries/STM32H7xx_HAL/STM32H7xx_HAL_Driver/Src/stm32h7xx_hal_rcc_ex.c:1600:25
	str	r0, [sp, #36]
.Ltmp366:
	.loc	5 1602 14 is_stmt 1             @ libraries/STM32H7xx_HAL/STM32H7xx_HAL_Driver/Src/stm32h7xx_hal_rcc_ex.c:1602:14
	ldr	r0, [sp, #36]
.Ltmp367:
	.loc	5 1602 14 is_stmt 0             @ libraries/STM32H7xx_HAL/STM32H7xx_HAL_Driver/Src/stm32h7xx_hal_rcc_ex.c:1602:14
	cbnz	r0, .LBB4_31
	b	.LBB4_30
.LBB4_30:
	.loc	5 0 14                          @ libraries/STM32H7xx_HAL/STM32H7xx_HAL_Driver/Src/stm32h7xx_hal_rcc_ex.c:0:14
	movw	r0, #36864
	movt	r0, #976
.Ltmp368:
	.loc	5 1605 23 is_stmt 1             @ libraries/STM32H7xx_HAL/STM32H7xx_HAL_Driver/Src/stm32h7xx_hal_rcc_ex.c:1605:23
	str	r0, [sp, #44]
	.loc	5 1606 11                       @ libraries/STM32H7xx_HAL/STM32H7xx_HAL_Driver/Src/stm32h7xx_hal_rcc_ex.c:1606:11
	b	.LBB4_38
.Ltmp369:
.LBB4_31:
	.loc	5 1608 19                       @ libraries/STM32H7xx_HAL/STM32H7xx_HAL_Driver/Src/stm32h7xx_hal_rcc_ex.c:1608:19
	ldr	r0, [sp, #36]
.Ltmp370:
	.loc	5 1608 19 is_stmt 0             @ libraries/STM32H7xx_HAL/STM32H7xx_HAL_Driver/Src/stm32h7xx_hal_rcc_ex.c:1608:19
	cmp.w	r0, #268435456
	bne	.LBB4_33
	b	.LBB4_32
.LBB4_32:
	.loc	5 0 19                          @ libraries/STM32H7xx_HAL/STM32H7xx_HAL_Driver/Src/stm32h7xx_hal_rcc_ex.c:0:19
	movw	r0, #2304
	movt	r0, #61
.Ltmp371:
	.loc	5 1611 23 is_stmt 1             @ libraries/STM32H7xx_HAL/STM32H7xx_HAL_Driver/Src/stm32h7xx_hal_rcc_ex.c:1611:23
	str	r0, [sp, #44]
	.loc	5 1612 11                       @ libraries/STM32H7xx_HAL/STM32H7xx_HAL_Driver/Src/stm32h7xx_hal_rcc_ex.c:1612:11
	b	.LBB4_37
.Ltmp372:
.LBB4_33:
	.loc	5 1614 20                       @ libraries/STM32H7xx_HAL/STM32H7xx_HAL_Driver/Src/stm32h7xx_hal_rcc_ex.c:1614:20
	ldr	r0, [sp, #36]
.Ltmp373:
	.loc	5 1614 20 is_stmt 0             @ libraries/STM32H7xx_HAL/STM32H7xx_HAL_Driver/Src/stm32h7xx_hal_rcc_ex.c:1614:20
	cmp.w	r0, #536870912
	bne	.LBB4_35
	b	.LBB4_34
.LBB4_34:
	.loc	5 0 20                          @ libraries/STM32H7xx_HAL/STM32H7xx_HAL_Driver/Src/stm32h7xx_hal_rcc_ex.c:0:20
	movw	r0, #30784
	movt	r0, #381
.Ltmp374:
	.loc	5 1617 23 is_stmt 1             @ libraries/STM32H7xx_HAL/STM32H7xx_HAL_Driver/Src/stm32h7xx_hal_rcc_ex.c:1617:23
	str	r0, [sp, #44]
	.loc	5 1618 11                       @ libraries/STM32H7xx_HAL/STM32H7xx_HAL_Driver/Src/stm32h7xx_hal_rcc_ex.c:1618:11
	b	.LBB4_36
.Ltmp375:
.LBB4_35:
	.loc	5 0 11 is_stmt 0                @ libraries/STM32H7xx_HAL/STM32H7xx_HAL_Driver/Src/stm32h7xx_hal_rcc_ex.c:0:11
	movs	r0, #0
.Ltmp376:
	.loc	5 1623 23 is_stmt 1             @ libraries/STM32H7xx_HAL/STM32H7xx_HAL_Driver/Src/stm32h7xx_hal_rcc_ex.c:1623:23
	str	r0, [sp, #44]
	b	.LBB4_36
.Ltmp377:
.LBB4_36:
	.loc	5 0 23 is_stmt 0                @ libraries/STM32H7xx_HAL/STM32H7xx_HAL_Driver/Src/stm32h7xx_hal_rcc_ex.c:0:23
	b	.LBB4_37
.LBB4_37:
	b	.LBB4_38
.LBB4_38:
	.loc	5 1626 11 is_stmt 1             @ libraries/STM32H7xx_HAL/STM32H7xx_HAL_Driver/Src/stm32h7xx_hal_rcc_ex.c:1626:11
	b	.LBB4_41
.Ltmp378:
.LBB4_39:
	.loc	5 0 11 is_stmt 0                @ libraries/STM32H7xx_HAL/STM32H7xx_HAL_Driver/Src/stm32h7xx_hal_rcc_ex.c:0:11
	movw	r0, #32768
	movt	r0, #187
.Ltmp379:
	.loc	5 1631 21 is_stmt 1             @ libraries/STM32H7xx_HAL/STM32H7xx_HAL_Driver/Src/stm32h7xx_hal_rcc_ex.c:1631:21
	str	r0, [sp, #44]
	.loc	5 1632 11                       @ libraries/STM32H7xx_HAL/STM32H7xx_HAL_Driver/Src/stm32h7xx_hal_rcc_ex.c:1632:11
	b	.LBB4_41
.Ltmp380:
.LBB4_40:
	.loc	5 0 11 is_stmt 0                @ libraries/STM32H7xx_HAL/STM32H7xx_HAL_Driver/Src/stm32h7xx_hal_rcc_ex.c:0:11
	movs	r0, #0
.Ltmp381:
	.loc	5 1636 21 is_stmt 1             @ libraries/STM32H7xx_HAL/STM32H7xx_HAL_Driver/Src/stm32h7xx_hal_rcc_ex.c:1636:21
	str	r0, [sp, #44]
	.loc	5 1637 11                       @ libraries/STM32H7xx_HAL/STM32H7xx_HAL_Driver/Src/stm32h7xx_hal_rcc_ex.c:1637:11
	b	.LBB4_41
.Ltmp382:
.LBB4_41:
	.loc	5 1640 5                        @ libraries/STM32H7xx_HAL/STM32H7xx_HAL_Driver/Src/stm32h7xx_hal_rcc_ex.c:1640:5
	b	.LBB4_139
.Ltmp383:
.LBB4_42:
	.loc	5 1642 12                       @ libraries/STM32H7xx_HAL/STM32H7xx_HAL_Driver/Src/stm32h7xx_hal_rcc_ex.c:1642:12
	ldr	r0, [sp, #84]
.Ltmp384:
	.loc	5 1642 12 is_stmt 0             @ libraries/STM32H7xx_HAL/STM32H7xx_HAL_Driver/Src/stm32h7xx_hal_rcc_ex.c:1642:12
	cmp.w	r0, #1024
	bne	.LBB4_64
	b	.LBB4_43
.LBB4_43:
	.loc	5 0 12                          @ libraries/STM32H7xx_HAL/STM32H7xx_HAL_Driver/Src/stm32h7xx_hal_rcc_ex.c:0:12
	movw	r0, #17496
	movt	r0, #22530
.Ltmp385:
	.loc	5 1645 23 is_stmt 1             @ libraries/STM32H7xx_HAL/STM32H7xx_HAL_Driver/Src/stm32h7xx_hal_rcc_ex.c:1645:23
	ldr	r0, [r0]
	and	r0, r0, #14680064
	.loc	5 1645 21 is_stmt 0             @ libraries/STM32H7xx_HAL/STM32H7xx_HAL_Driver/Src/stm32h7xx_hal_rcc_ex.c:1645:21
	str	r0, [sp, #40]
	.loc	5 1647 15 is_stmt 1             @ libraries/STM32H7xx_HAL/STM32H7xx_HAL_Driver/Src/stm32h7xx_hal_rcc_ex.c:1647:15
	ldr	r0, [sp, #40]
	.loc	5 1647 7 is_stmt 0              @ libraries/STM32H7xx_HAL/STM32H7xx_HAL_Driver/Src/stm32h7xx_hal_rcc_ex.c:1647:7
	str	r0, [sp, #20]                   @ 4-byte Spill
	cbz	r0, .LBB4_48
	b	.LBB4_44
.LBB4_44:
	ldr	r0, [sp, #20]                   @ 4-byte Reload
	cmp.w	r0, #2097152
	beq	.LBB4_49
	b	.LBB4_45
.LBB4_45:
	ldr	r0, [sp, #20]                   @ 4-byte Reload
	cmp.w	r0, #4194304
	beq	.LBB4_50
	b	.LBB4_46
.LBB4_46:
	ldr	r0, [sp, #20]                   @ 4-byte Reload
	cmp.w	r0, #6291456
	beq	.LBB4_61
	b	.LBB4_47
.LBB4_47:
	ldr	r0, [sp, #20]                   @ 4-byte Reload
	cmp.w	r0, #8388608
	beq	.LBB4_51
	b	.LBB4_62
.LBB4_48:
	.loc	5 0 7                           @ libraries/STM32H7xx_HAL/STM32H7xx_HAL_Driver/Src/stm32h7xx_hal_rcc_ex.c:0:7
	add	r0, sp, #72
.Ltmp386:
	.loc	5 1651 11 is_stmt 1             @ libraries/STM32H7xx_HAL/STM32H7xx_HAL_Driver/Src/stm32h7xx_hal_rcc_ex.c:1651:11
	bl	HAL_RCCEx_GetPLL1ClockFreq
	.loc	5 1652 35                       @ libraries/STM32H7xx_HAL/STM32H7xx_HAL_Driver/Src/stm32h7xx_hal_rcc_ex.c:1652:35
	ldr	r0, [sp, #76]
	.loc	5 1652 21 is_stmt 0             @ libraries/STM32H7xx_HAL/STM32H7xx_HAL_Driver/Src/stm32h7xx_hal_rcc_ex.c:1652:21
	str	r0, [sp, #44]
	.loc	5 1653 11 is_stmt 1             @ libraries/STM32H7xx_HAL/STM32H7xx_HAL_Driver/Src/stm32h7xx_hal_rcc_ex.c:1653:11
	b	.LBB4_63
.Ltmp387:
.LBB4_49:
	.loc	5 0 11 is_stmt 0                @ libraries/STM32H7xx_HAL/STM32H7xx_HAL_Driver/Src/stm32h7xx_hal_rcc_ex.c:0:11
	add	r0, sp, #60
.Ltmp388:
	.loc	5 1657 11 is_stmt 1             @ libraries/STM32H7xx_HAL/STM32H7xx_HAL_Driver/Src/stm32h7xx_hal_rcc_ex.c:1657:11
	bl	HAL_RCCEx_GetPLL2ClockFreq
	.loc	5 1658 35                       @ libraries/STM32H7xx_HAL/STM32H7xx_HAL_Driver/Src/stm32h7xx_hal_rcc_ex.c:1658:35
	ldr	r0, [sp, #60]
	.loc	5 1658 21 is_stmt 0             @ libraries/STM32H7xx_HAL/STM32H7xx_HAL_Driver/Src/stm32h7xx_hal_rcc_ex.c:1658:21
	str	r0, [sp, #44]
	.loc	5 1659 11 is_stmt 1             @ libraries/STM32H7xx_HAL/STM32H7xx_HAL_Driver/Src/stm32h7xx_hal_rcc_ex.c:1659:11
	b	.LBB4_63
.Ltmp389:
.LBB4_50:
	.loc	5 0 11 is_stmt 0                @ libraries/STM32H7xx_HAL/STM32H7xx_HAL_Driver/Src/stm32h7xx_hal_rcc_ex.c:0:11
	add	r0, sp, #48
.Ltmp390:
	.loc	5 1664 11 is_stmt 1             @ libraries/STM32H7xx_HAL/STM32H7xx_HAL_Driver/Src/stm32h7xx_hal_rcc_ex.c:1664:11
	bl	HAL_RCCEx_GetPLL3ClockFreq
	.loc	5 1665 35                       @ libraries/STM32H7xx_HAL/STM32H7xx_HAL_Driver/Src/stm32h7xx_hal_rcc_ex.c:1665:35
	ldr	r0, [sp, #48]
	.loc	5 1665 21 is_stmt 0             @ libraries/STM32H7xx_HAL/STM32H7xx_HAL_Driver/Src/stm32h7xx_hal_rcc_ex.c:1665:21
	str	r0, [sp, #44]
	.loc	5 1666 11 is_stmt 1             @ libraries/STM32H7xx_HAL/STM32H7xx_HAL_Driver/Src/stm32h7xx_hal_rcc_ex.c:1666:11
	b	.LBB4_63
.Ltmp391:
.LBB4_51:
	.loc	5 0 11 is_stmt 0                @ libraries/STM32H7xx_HAL/STM32H7xx_HAL_Driver/Src/stm32h7xx_hal_rcc_ex.c:0:11
	movw	r0, #17484
	movt	r0, #22530
.Ltmp392:
	.loc	5 1672 27 is_stmt 1             @ libraries/STM32H7xx_HAL/STM32H7xx_HAL_Driver/Src/stm32h7xx_hal_rcc_ex.c:1672:27
	ldr	r0, [r0]
	and	r0, r0, #805306368
	.loc	5 1672 25 is_stmt 0             @ libraries/STM32H7xx_HAL/STM32H7xx_HAL_Driver/Src/stm32h7xx_hal_rcc_ex.c:1672:25
	str	r0, [sp, #36]
.Ltmp393:
	.loc	5 1674 14 is_stmt 1             @ libraries/STM32H7xx_HAL/STM32H7xx_HAL_Driver/Src/stm32h7xx_hal_rcc_ex.c:1674:14
	ldr	r0, [sp, #36]
.Ltmp394:
	.loc	5 1674 14 is_stmt 0             @ libraries/STM32H7xx_HAL/STM32H7xx_HAL_Driver/Src/stm32h7xx_hal_rcc_ex.c:1674:14
	cbnz	r0, .LBB4_53
	b	.LBB4_52
.LBB4_52:
	.loc	5 0 14                          @ libraries/STM32H7xx_HAL/STM32H7xx_HAL_Driver/Src/stm32h7xx_hal_rcc_ex.c:0:14
	movw	r0, #36864
	movt	r0, #976
.Ltmp395:
	.loc	5 1677 23 is_stmt 1             @ libraries/STM32H7xx_HAL/STM32H7xx_HAL_Driver/Src/stm32h7xx_hal_rcc_ex.c:1677:23
	str	r0, [sp, #44]
	.loc	5 1678 11                       @ libraries/STM32H7xx_HAL/STM32H7xx_HAL_Driver/Src/stm32h7xx_hal_rcc_ex.c:1678:11
	b	.LBB4_60
.Ltmp396:
.LBB4_53:
	.loc	5 1680 19                       @ libraries/STM32H7xx_HAL/STM32H7xx_HAL_Driver/Src/stm32h7xx_hal_rcc_ex.c:1680:19
	ldr	r0, [sp, #36]
.Ltmp397:
	.loc	5 1680 19 is_stmt 0             @ libraries/STM32H7xx_HAL/STM32H7xx_HAL_Driver/Src/stm32h7xx_hal_rcc_ex.c:1680:19
	cmp.w	r0, #268435456
	bne	.LBB4_55
	b	.LBB4_54
.LBB4_54:
	.loc	5 0 19                          @ libraries/STM32H7xx_HAL/STM32H7xx_HAL_Driver/Src/stm32h7xx_hal_rcc_ex.c:0:19
	movw	r0, #2304
	movt	r0, #61
.Ltmp398:
	.loc	5 1683 23 is_stmt 1             @ libraries/STM32H7xx_HAL/STM32H7xx_HAL_Driver/Src/stm32h7xx_hal_rcc_ex.c:1683:23
	str	r0, [sp, #44]
	.loc	5 1684 11                       @ libraries/STM32H7xx_HAL/STM32H7xx_HAL_Driver/Src/stm32h7xx_hal_rcc_ex.c:1684:11
	b	.LBB4_59
.Ltmp399:
.LBB4_55:
	.loc	5 1686 20                       @ libraries/STM32H7xx_HAL/STM32H7xx_HAL_Driver/Src/stm32h7xx_hal_rcc_ex.c:1686:20
	ldr	r0, [sp, #36]
.Ltmp400:
	.loc	5 1686 20 is_stmt 0             @ libraries/STM32H7xx_HAL/STM32H7xx_HAL_Driver/Src/stm32h7xx_hal_rcc_ex.c:1686:20
	cmp.w	r0, #536870912
	bne	.LBB4_57
	b	.LBB4_56
.LBB4_56:
	.loc	5 0 20                          @ libraries/STM32H7xx_HAL/STM32H7xx_HAL_Driver/Src/stm32h7xx_hal_rcc_ex.c:0:20
	movw	r0, #30784
	movt	r0, #381
.Ltmp401:
	.loc	5 1689 23 is_stmt 1             @ libraries/STM32H7xx_HAL/STM32H7xx_HAL_Driver/Src/stm32h7xx_hal_rcc_ex.c:1689:23
	str	r0, [sp, #44]
	.loc	5 1690 11                       @ libraries/STM32H7xx_HAL/STM32H7xx_HAL_Driver/Src/stm32h7xx_hal_rcc_ex.c:1690:11
	b	.LBB4_58
.Ltmp402:
.LBB4_57:
	.loc	5 0 11 is_stmt 0                @ libraries/STM32H7xx_HAL/STM32H7xx_HAL_Driver/Src/stm32h7xx_hal_rcc_ex.c:0:11
	movs	r0, #0
.Ltmp403:
	.loc	5 1695 23 is_stmt 1             @ libraries/STM32H7xx_HAL/STM32H7xx_HAL_Driver/Src/stm32h7xx_hal_rcc_ex.c:1695:23
	str	r0, [sp, #44]
	b	.LBB4_58
.Ltmp404:
.LBB4_58:
	.loc	5 0 23 is_stmt 0                @ libraries/STM32H7xx_HAL/STM32H7xx_HAL_Driver/Src/stm32h7xx_hal_rcc_ex.c:0:23
	b	.LBB4_59
.LBB4_59:
	b	.LBB4_60
.LBB4_60:
	.loc	5 1698 11 is_stmt 1             @ libraries/STM32H7xx_HAL/STM32H7xx_HAL_Driver/Src/stm32h7xx_hal_rcc_ex.c:1698:11
	b	.LBB4_63
.Ltmp405:
.LBB4_61:
	.loc	5 0 11 is_stmt 0                @ libraries/STM32H7xx_HAL/STM32H7xx_HAL_Driver/Src/stm32h7xx_hal_rcc_ex.c:0:11
	movw	r0, #32768
	movt	r0, #187
.Ltmp406:
	.loc	5 1703 21 is_stmt 1             @ libraries/STM32H7xx_HAL/STM32H7xx_HAL_Driver/Src/stm32h7xx_hal_rcc_ex.c:1703:21
	str	r0, [sp, #44]
	.loc	5 1704 11                       @ libraries/STM32H7xx_HAL/STM32H7xx_HAL_Driver/Src/stm32h7xx_hal_rcc_ex.c:1704:11
	b	.LBB4_63
.Ltmp407:
.LBB4_62:
	.loc	5 0 11 is_stmt 0                @ libraries/STM32H7xx_HAL/STM32H7xx_HAL_Driver/Src/stm32h7xx_hal_rcc_ex.c:0:11
	movs	r0, #0
.Ltmp408:
	.loc	5 1709 21 is_stmt 1             @ libraries/STM32H7xx_HAL/STM32H7xx_HAL_Driver/Src/stm32h7xx_hal_rcc_ex.c:1709:21
	str	r0, [sp, #44]
	.loc	5 1710 11                       @ libraries/STM32H7xx_HAL/STM32H7xx_HAL_Driver/Src/stm32h7xx_hal_rcc_ex.c:1710:11
	b	.LBB4_63
.Ltmp409:
.LBB4_63:
	.loc	5 1713 5                        @ libraries/STM32H7xx_HAL/STM32H7xx_HAL_Driver/Src/stm32h7xx_hal_rcc_ex.c:1713:5
	b	.LBB4_138
.Ltmp410:
.LBB4_64:
	.loc	5 1715 12                       @ libraries/STM32H7xx_HAL/STM32H7xx_HAL_Driver/Src/stm32h7xx_hal_rcc_ex.c:1715:12
	ldr	r0, [sp, #84]
.Ltmp411:
	.loc	5 1715 12 is_stmt 0             @ libraries/STM32H7xx_HAL/STM32H7xx_HAL_Driver/Src/stm32h7xx_hal_rcc_ex.c:1715:12
	cmp.w	r0, #2048
	bne	.LBB4_86
	b	.LBB4_65
.LBB4_65:
	.loc	5 0 12                          @ libraries/STM32H7xx_HAL/STM32H7xx_HAL_Driver/Src/stm32h7xx_hal_rcc_ex.c:0:12
	movw	r0, #17496
	movt	r0, #22530
.Ltmp412:
	.loc	5 1718 23 is_stmt 1             @ libraries/STM32H7xx_HAL/STM32H7xx_HAL_Driver/Src/stm32h7xx_hal_rcc_ex.c:1718:23
	ldr	r0, [r0]
	and	r0, r0, #117440512
	.loc	5 1718 21 is_stmt 0             @ libraries/STM32H7xx_HAL/STM32H7xx_HAL_Driver/Src/stm32h7xx_hal_rcc_ex.c:1718:21
	str	r0, [sp, #40]
	.loc	5 1720 15 is_stmt 1             @ libraries/STM32H7xx_HAL/STM32H7xx_HAL_Driver/Src/stm32h7xx_hal_rcc_ex.c:1720:15
	ldr	r0, [sp, #40]
	.loc	5 1720 7 is_stmt 0              @ libraries/STM32H7xx_HAL/STM32H7xx_HAL_Driver/Src/stm32h7xx_hal_rcc_ex.c:1720:7
	str	r0, [sp, #16]                   @ 4-byte Spill
	cbz	r0, .LBB4_70
	b	.LBB4_66
.LBB4_66:
	ldr	r0, [sp, #16]                   @ 4-byte Reload
	cmp.w	r0, #16777216
	beq	.LBB4_71
	b	.LBB4_67
.LBB4_67:
	ldr	r0, [sp, #16]                   @ 4-byte Reload
	cmp.w	r0, #33554432
	beq	.LBB4_72
	b	.LBB4_68
.LBB4_68:
	ldr	r0, [sp, #16]                   @ 4-byte Reload
	cmp.w	r0, #50331648
	beq	.LBB4_83
	b	.LBB4_69
.LBB4_69:
	ldr	r0, [sp, #16]                   @ 4-byte Reload
	cmp.w	r0, #67108864
	beq	.LBB4_73
	b	.LBB4_84
.LBB4_70:
	.loc	5 0 7                           @ libraries/STM32H7xx_HAL/STM32H7xx_HAL_Driver/Src/stm32h7xx_hal_rcc_ex.c:0:7
	add	r0, sp, #72
.Ltmp413:
	.loc	5 1724 11 is_stmt 1             @ libraries/STM32H7xx_HAL/STM32H7xx_HAL_Driver/Src/stm32h7xx_hal_rcc_ex.c:1724:11
	bl	HAL_RCCEx_GetPLL1ClockFreq
	.loc	5 1725 35                       @ libraries/STM32H7xx_HAL/STM32H7xx_HAL_Driver/Src/stm32h7xx_hal_rcc_ex.c:1725:35
	ldr	r0, [sp, #76]
	.loc	5 1725 21 is_stmt 0             @ libraries/STM32H7xx_HAL/STM32H7xx_HAL_Driver/Src/stm32h7xx_hal_rcc_ex.c:1725:21
	str	r0, [sp, #44]
	.loc	5 1726 11 is_stmt 1             @ libraries/STM32H7xx_HAL/STM32H7xx_HAL_Driver/Src/stm32h7xx_hal_rcc_ex.c:1726:11
	b	.LBB4_85
.Ltmp414:
.LBB4_71:
	.loc	5 0 11 is_stmt 0                @ libraries/STM32H7xx_HAL/STM32H7xx_HAL_Driver/Src/stm32h7xx_hal_rcc_ex.c:0:11
	add	r0, sp, #60
.Ltmp415:
	.loc	5 1730 11 is_stmt 1             @ libraries/STM32H7xx_HAL/STM32H7xx_HAL_Driver/Src/stm32h7xx_hal_rcc_ex.c:1730:11
	bl	HAL_RCCEx_GetPLL2ClockFreq
	.loc	5 1731 35                       @ libraries/STM32H7xx_HAL/STM32H7xx_HAL_Driver/Src/stm32h7xx_hal_rcc_ex.c:1731:35
	ldr	r0, [sp, #60]
	.loc	5 1731 21 is_stmt 0             @ libraries/STM32H7xx_HAL/STM32H7xx_HAL_Driver/Src/stm32h7xx_hal_rcc_ex.c:1731:21
	str	r0, [sp, #44]
	.loc	5 1732 11 is_stmt 1             @ libraries/STM32H7xx_HAL/STM32H7xx_HAL_Driver/Src/stm32h7xx_hal_rcc_ex.c:1732:11
	b	.LBB4_85
.Ltmp416:
.LBB4_72:
	.loc	5 0 11 is_stmt 0                @ libraries/STM32H7xx_HAL/STM32H7xx_HAL_Driver/Src/stm32h7xx_hal_rcc_ex.c:0:11
	add	r0, sp, #48
.Ltmp417:
	.loc	5 1737 11 is_stmt 1             @ libraries/STM32H7xx_HAL/STM32H7xx_HAL_Driver/Src/stm32h7xx_hal_rcc_ex.c:1737:11
	bl	HAL_RCCEx_GetPLL3ClockFreq
	.loc	5 1738 35                       @ libraries/STM32H7xx_HAL/STM32H7xx_HAL_Driver/Src/stm32h7xx_hal_rcc_ex.c:1738:35
	ldr	r0, [sp, #48]
	.loc	5 1738 21 is_stmt 0             @ libraries/STM32H7xx_HAL/STM32H7xx_HAL_Driver/Src/stm32h7xx_hal_rcc_ex.c:1738:21
	str	r0, [sp, #44]
	.loc	5 1739 11 is_stmt 1             @ libraries/STM32H7xx_HAL/STM32H7xx_HAL_Driver/Src/stm32h7xx_hal_rcc_ex.c:1739:11
	b	.LBB4_85
.Ltmp418:
.LBB4_73:
	.loc	5 0 11 is_stmt 0                @ libraries/STM32H7xx_HAL/STM32H7xx_HAL_Driver/Src/stm32h7xx_hal_rcc_ex.c:0:11
	movw	r0, #17484
	movt	r0, #22530
.Ltmp419:
	.loc	5 1745 27 is_stmt 1             @ libraries/STM32H7xx_HAL/STM32H7xx_HAL_Driver/Src/stm32h7xx_hal_rcc_ex.c:1745:27
	ldr	r0, [r0]
	and	r0, r0, #805306368
	.loc	5 1745 25 is_stmt 0             @ libraries/STM32H7xx_HAL/STM32H7xx_HAL_Driver/Src/stm32h7xx_hal_rcc_ex.c:1745:25
	str	r0, [sp, #36]
.Ltmp420:
	.loc	5 1747 14 is_stmt 1             @ libraries/STM32H7xx_HAL/STM32H7xx_HAL_Driver/Src/stm32h7xx_hal_rcc_ex.c:1747:14
	ldr	r0, [sp, #36]
.Ltmp421:
	.loc	5 1747 14 is_stmt 0             @ libraries/STM32H7xx_HAL/STM32H7xx_HAL_Driver/Src/stm32h7xx_hal_rcc_ex.c:1747:14
	cbnz	r0, .LBB4_75
	b	.LBB4_74
.LBB4_74:
	.loc	5 0 14                          @ libraries/STM32H7xx_HAL/STM32H7xx_HAL_Driver/Src/stm32h7xx_hal_rcc_ex.c:0:14
	movw	r0, #36864
	movt	r0, #976
.Ltmp422:
	.loc	5 1750 23 is_stmt 1             @ libraries/STM32H7xx_HAL/STM32H7xx_HAL_Driver/Src/stm32h7xx_hal_rcc_ex.c:1750:23
	str	r0, [sp, #44]
	.loc	5 1751 11                       @ libraries/STM32H7xx_HAL/STM32H7xx_HAL_Driver/Src/stm32h7xx_hal_rcc_ex.c:1751:11
	b	.LBB4_82
.Ltmp423:
.LBB4_75:
	.loc	5 1753 19                       @ libraries/STM32H7xx_HAL/STM32H7xx_HAL_Driver/Src/stm32h7xx_hal_rcc_ex.c:1753:19
	ldr	r0, [sp, #36]
.Ltmp424:
	.loc	5 1753 19 is_stmt 0             @ libraries/STM32H7xx_HAL/STM32H7xx_HAL_Driver/Src/stm32h7xx_hal_rcc_ex.c:1753:19
	cmp.w	r0, #268435456
	bne	.LBB4_77
	b	.LBB4_76
.LBB4_76:
	.loc	5 0 19                          @ libraries/STM32H7xx_HAL/STM32H7xx_HAL_Driver/Src/stm32h7xx_hal_rcc_ex.c:0:19
	movw	r0, #2304
	movt	r0, #61
.Ltmp425:
	.loc	5 1756 23 is_stmt 1             @ libraries/STM32H7xx_HAL/STM32H7xx_HAL_Driver/Src/stm32h7xx_hal_rcc_ex.c:1756:23
	str	r0, [sp, #44]
	.loc	5 1757 11                       @ libraries/STM32H7xx_HAL/STM32H7xx_HAL_Driver/Src/stm32h7xx_hal_rcc_ex.c:1757:11
	b	.LBB4_81
.Ltmp426:
.LBB4_77:
	.loc	5 1759 20                       @ libraries/STM32H7xx_HAL/STM32H7xx_HAL_Driver/Src/stm32h7xx_hal_rcc_ex.c:1759:20
	ldr	r0, [sp, #36]
.Ltmp427:
	.loc	5 1759 20 is_stmt 0             @ libraries/STM32H7xx_HAL/STM32H7xx_HAL_Driver/Src/stm32h7xx_hal_rcc_ex.c:1759:20
	cmp.w	r0, #536870912
	bne	.LBB4_79
	b	.LBB4_78
.LBB4_78:
	.loc	5 0 20                          @ libraries/STM32H7xx_HAL/STM32H7xx_HAL_Driver/Src/stm32h7xx_hal_rcc_ex.c:0:20
	movw	r0, #30784
	movt	r0, #381
.Ltmp428:
	.loc	5 1762 23 is_stmt 1             @ libraries/STM32H7xx_HAL/STM32H7xx_HAL_Driver/Src/stm32h7xx_hal_rcc_ex.c:1762:23
	str	r0, [sp, #44]
	.loc	5 1763 11                       @ libraries/STM32H7xx_HAL/STM32H7xx_HAL_Driver/Src/stm32h7xx_hal_rcc_ex.c:1763:11
	b	.LBB4_80
.Ltmp429:
.LBB4_79:
	.loc	5 0 11 is_stmt 0                @ libraries/STM32H7xx_HAL/STM32H7xx_HAL_Driver/Src/stm32h7xx_hal_rcc_ex.c:0:11
	movs	r0, #0
.Ltmp430:
	.loc	5 1768 23 is_stmt 1             @ libraries/STM32H7xx_HAL/STM32H7xx_HAL_Driver/Src/stm32h7xx_hal_rcc_ex.c:1768:23
	str	r0, [sp, #44]
	b	.LBB4_80
.Ltmp431:
.LBB4_80:
	.loc	5 0 23 is_stmt 0                @ libraries/STM32H7xx_HAL/STM32H7xx_HAL_Driver/Src/stm32h7xx_hal_rcc_ex.c:0:23
	b	.LBB4_81
.LBB4_81:
	b	.LBB4_82
.LBB4_82:
	.loc	5 1771 11 is_stmt 1             @ libraries/STM32H7xx_HAL/STM32H7xx_HAL_Driver/Src/stm32h7xx_hal_rcc_ex.c:1771:11
	b	.LBB4_85
.Ltmp432:
.LBB4_83:
	.loc	5 0 11 is_stmt 0                @ libraries/STM32H7xx_HAL/STM32H7xx_HAL_Driver/Src/stm32h7xx_hal_rcc_ex.c:0:11
	movw	r0, #32768
	movt	r0, #187
.Ltmp433:
	.loc	5 1776 21 is_stmt 1             @ libraries/STM32H7xx_HAL/STM32H7xx_HAL_Driver/Src/stm32h7xx_hal_rcc_ex.c:1776:21
	str	r0, [sp, #44]
	.loc	5 1777 11                       @ libraries/STM32H7xx_HAL/STM32H7xx_HAL_Driver/Src/stm32h7xx_hal_rcc_ex.c:1777:11
	b	.LBB4_85
.Ltmp434:
.LBB4_84:
	.loc	5 0 11 is_stmt 0                @ libraries/STM32H7xx_HAL/STM32H7xx_HAL_Driver/Src/stm32h7xx_hal_rcc_ex.c:0:11
	movs	r0, #0
.Ltmp435:
	.loc	5 1782 21 is_stmt 1             @ libraries/STM32H7xx_HAL/STM32H7xx_HAL_Driver/Src/stm32h7xx_hal_rcc_ex.c:1782:21
	str	r0, [sp, #44]
	.loc	5 1783 11                       @ libraries/STM32H7xx_HAL/STM32H7xx_HAL_Driver/Src/stm32h7xx_hal_rcc_ex.c:1783:11
	b	.LBB4_85
.Ltmp436:
.LBB4_85:
	.loc	5 1786 5                        @ libraries/STM32H7xx_HAL/STM32H7xx_HAL_Driver/Src/stm32h7xx_hal_rcc_ex.c:1786:5
	b	.LBB4_137
.Ltmp437:
.LBB4_86:
	.loc	5 1788 12                       @ libraries/STM32H7xx_HAL/STM32H7xx_HAL_Driver/Src/stm32h7xx_hal_rcc_ex.c:1788:12
	ldr	r0, [sp, #84]
.Ltmp438:
	.loc	5 1788 12 is_stmt 0             @ libraries/STM32H7xx_HAL/STM32H7xx_HAL_Driver/Src/stm32h7xx_hal_rcc_ex.c:1788:12
	cmp.w	r0, #4096
	bne	.LBB4_108
	b	.LBB4_87
.LBB4_87:
	.loc	5 0 12                          @ libraries/STM32H7xx_HAL/STM32H7xx_HAL_Driver/Src/stm32h7xx_hal_rcc_ex.c:0:12
	movw	r0, #17488
	movt	r0, #22530
.Ltmp439:
	.loc	5 1791 15 is_stmt 1             @ libraries/STM32H7xx_HAL/STM32H7xx_HAL_Driver/Src/stm32h7xx_hal_rcc_ex.c:1791:15
	ldr	r0, [r0]
	and	r0, r0, #28672
	.loc	5 1791 13 is_stmt 0             @ libraries/STM32H7xx_HAL/STM32H7xx_HAL_Driver/Src/stm32h7xx_hal_rcc_ex.c:1791:13
	str	r0, [sp, #32]
	.loc	5 1793 15 is_stmt 1             @ libraries/STM32H7xx_HAL/STM32H7xx_HAL_Driver/Src/stm32h7xx_hal_rcc_ex.c:1793:15
	ldr	r0, [sp, #32]
	.loc	5 1793 7 is_stmt 0              @ libraries/STM32H7xx_HAL/STM32H7xx_HAL_Driver/Src/stm32h7xx_hal_rcc_ex.c:1793:7
	str	r0, [sp, #12]                   @ 4-byte Spill
	cbz	r0, .LBB4_92
	b	.LBB4_88
.LBB4_88:
	ldr	r0, [sp, #12]                   @ 4-byte Reload
	cmp.w	r0, #4096
	beq	.LBB4_93
	b	.LBB4_89
.LBB4_89:
	ldr	r0, [sp, #12]                   @ 4-byte Reload
	cmp.w	r0, #8192
	beq	.LBB4_94
	b	.LBB4_90
.LBB4_90:
	ldr	r0, [sp, #12]                   @ 4-byte Reload
	cmp.w	r0, #12288
	beq	.LBB4_105
	b	.LBB4_91
.LBB4_91:
	ldr	r0, [sp, #12]                   @ 4-byte Reload
	cmp.w	r0, #16384
	beq	.LBB4_95
	b	.LBB4_106
.LBB4_92:
	.loc	5 0 7                           @ libraries/STM32H7xx_HAL/STM32H7xx_HAL_Driver/Src/stm32h7xx_hal_rcc_ex.c:0:7
	add	r0, sp, #72
.Ltmp440:
	.loc	5 1797 11 is_stmt 1             @ libraries/STM32H7xx_HAL/STM32H7xx_HAL_Driver/Src/stm32h7xx_hal_rcc_ex.c:1797:11
	bl	HAL_RCCEx_GetPLL1ClockFreq
	.loc	5 1798 35                       @ libraries/STM32H7xx_HAL/STM32H7xx_HAL_Driver/Src/stm32h7xx_hal_rcc_ex.c:1798:35
	ldr	r0, [sp, #76]
	.loc	5 1798 21 is_stmt 0             @ libraries/STM32H7xx_HAL/STM32H7xx_HAL_Driver/Src/stm32h7xx_hal_rcc_ex.c:1798:21
	str	r0, [sp, #44]
	.loc	5 1799 11 is_stmt 1             @ libraries/STM32H7xx_HAL/STM32H7xx_HAL_Driver/Src/stm32h7xx_hal_rcc_ex.c:1799:11
	b	.LBB4_107
.Ltmp441:
.LBB4_93:
	.loc	5 0 11 is_stmt 0                @ libraries/STM32H7xx_HAL/STM32H7xx_HAL_Driver/Src/stm32h7xx_hal_rcc_ex.c:0:11
	add	r0, sp, #60
.Ltmp442:
	.loc	5 1803 11 is_stmt 1             @ libraries/STM32H7xx_HAL/STM32H7xx_HAL_Driver/Src/stm32h7xx_hal_rcc_ex.c:1803:11
	bl	HAL_RCCEx_GetPLL2ClockFreq
	.loc	5 1804 35                       @ libraries/STM32H7xx_HAL/STM32H7xx_HAL_Driver/Src/stm32h7xx_hal_rcc_ex.c:1804:35
	ldr	r0, [sp, #60]
	.loc	5 1804 21 is_stmt 0             @ libraries/STM32H7xx_HAL/STM32H7xx_HAL_Driver/Src/stm32h7xx_hal_rcc_ex.c:1804:21
	str	r0, [sp, #44]
	.loc	5 1805 11 is_stmt 1             @ libraries/STM32H7xx_HAL/STM32H7xx_HAL_Driver/Src/stm32h7xx_hal_rcc_ex.c:1805:11
	b	.LBB4_107
.Ltmp443:
.LBB4_94:
	.loc	5 0 11 is_stmt 0                @ libraries/STM32H7xx_HAL/STM32H7xx_HAL_Driver/Src/stm32h7xx_hal_rcc_ex.c:0:11
	add	r0, sp, #48
.Ltmp444:
	.loc	5 1810 11 is_stmt 1             @ libraries/STM32H7xx_HAL/STM32H7xx_HAL_Driver/Src/stm32h7xx_hal_rcc_ex.c:1810:11
	bl	HAL_RCCEx_GetPLL3ClockFreq
	.loc	5 1811 35                       @ libraries/STM32H7xx_HAL/STM32H7xx_HAL_Driver/Src/stm32h7xx_hal_rcc_ex.c:1811:35
	ldr	r0, [sp, #48]
	.loc	5 1811 21 is_stmt 0             @ libraries/STM32H7xx_HAL/STM32H7xx_HAL_Driver/Src/stm32h7xx_hal_rcc_ex.c:1811:21
	str	r0, [sp, #44]
	.loc	5 1812 11 is_stmt 1             @ libraries/STM32H7xx_HAL/STM32H7xx_HAL_Driver/Src/stm32h7xx_hal_rcc_ex.c:1812:11
	b	.LBB4_107
.Ltmp445:
.LBB4_95:
	.loc	5 0 11 is_stmt 0                @ libraries/STM32H7xx_HAL/STM32H7xx_HAL_Driver/Src/stm32h7xx_hal_rcc_ex.c:0:11
	movw	r0, #17484
	movt	r0, #22530
.Ltmp446:
	.loc	5 1818 27 is_stmt 1             @ libraries/STM32H7xx_HAL/STM32H7xx_HAL_Driver/Src/stm32h7xx_hal_rcc_ex.c:1818:27
	ldr	r0, [r0]
	and	r0, r0, #805306368
	.loc	5 1818 25 is_stmt 0             @ libraries/STM32H7xx_HAL/STM32H7xx_HAL_Driver/Src/stm32h7xx_hal_rcc_ex.c:1818:25
	str	r0, [sp, #36]
.Ltmp447:
	.loc	5 1820 14 is_stmt 1             @ libraries/STM32H7xx_HAL/STM32H7xx_HAL_Driver/Src/stm32h7xx_hal_rcc_ex.c:1820:14
	ldr	r0, [sp, #36]
.Ltmp448:
	.loc	5 1820 14 is_stmt 0             @ libraries/STM32H7xx_HAL/STM32H7xx_HAL_Driver/Src/stm32h7xx_hal_rcc_ex.c:1820:14
	cbnz	r0, .LBB4_97
	b	.LBB4_96
.LBB4_96:
	.loc	5 0 14                          @ libraries/STM32H7xx_HAL/STM32H7xx_HAL_Driver/Src/stm32h7xx_hal_rcc_ex.c:0:14
	movw	r0, #36864
	movt	r0, #976
.Ltmp449:
	.loc	5 1823 23 is_stmt 1             @ libraries/STM32H7xx_HAL/STM32H7xx_HAL_Driver/Src/stm32h7xx_hal_rcc_ex.c:1823:23
	str	r0, [sp, #44]
	.loc	5 1824 11                       @ libraries/STM32H7xx_HAL/STM32H7xx_HAL_Driver/Src/stm32h7xx_hal_rcc_ex.c:1824:11
	b	.LBB4_104
.Ltmp450:
.LBB4_97:
	.loc	5 1826 19                       @ libraries/STM32H7xx_HAL/STM32H7xx_HAL_Driver/Src/stm32h7xx_hal_rcc_ex.c:1826:19
	ldr	r0, [sp, #36]
.Ltmp451:
	.loc	5 1826 19 is_stmt 0             @ libraries/STM32H7xx_HAL/STM32H7xx_HAL_Driver/Src/stm32h7xx_hal_rcc_ex.c:1826:19
	cmp.w	r0, #268435456
	bne	.LBB4_99
	b	.LBB4_98
.LBB4_98:
	.loc	5 0 19                          @ libraries/STM32H7xx_HAL/STM32H7xx_HAL_Driver/Src/stm32h7xx_hal_rcc_ex.c:0:19
	movw	r0, #2304
	movt	r0, #61
.Ltmp452:
	.loc	5 1829 23 is_stmt 1             @ libraries/STM32H7xx_HAL/STM32H7xx_HAL_Driver/Src/stm32h7xx_hal_rcc_ex.c:1829:23
	str	r0, [sp, #44]
	.loc	5 1830 11                       @ libraries/STM32H7xx_HAL/STM32H7xx_HAL_Driver/Src/stm32h7xx_hal_rcc_ex.c:1830:11
	b	.LBB4_103
.Ltmp453:
.LBB4_99:
	.loc	5 1832 20                       @ libraries/STM32H7xx_HAL/STM32H7xx_HAL_Driver/Src/stm32h7xx_hal_rcc_ex.c:1832:20
	ldr	r0, [sp, #36]
.Ltmp454:
	.loc	5 1832 20 is_stmt 0             @ libraries/STM32H7xx_HAL/STM32H7xx_HAL_Driver/Src/stm32h7xx_hal_rcc_ex.c:1832:20
	cmp.w	r0, #536870912
	bne	.LBB4_101
	b	.LBB4_100
.LBB4_100:
	.loc	5 0 20                          @ libraries/STM32H7xx_HAL/STM32H7xx_HAL_Driver/Src/stm32h7xx_hal_rcc_ex.c:0:20
	movw	r0, #30784
	movt	r0, #381
.Ltmp455:
	.loc	5 1835 23 is_stmt 1             @ libraries/STM32H7xx_HAL/STM32H7xx_HAL_Driver/Src/stm32h7xx_hal_rcc_ex.c:1835:23
	str	r0, [sp, #44]
	.loc	5 1836 11                       @ libraries/STM32H7xx_HAL/STM32H7xx_HAL_Driver/Src/stm32h7xx_hal_rcc_ex.c:1836:11
	b	.LBB4_102
.Ltmp456:
.LBB4_101:
	.loc	5 0 11 is_stmt 0                @ libraries/STM32H7xx_HAL/STM32H7xx_HAL_Driver/Src/stm32h7xx_hal_rcc_ex.c:0:11
	movs	r0, #0
.Ltmp457:
	.loc	5 1841 23 is_stmt 1             @ libraries/STM32H7xx_HAL/STM32H7xx_HAL_Driver/Src/stm32h7xx_hal_rcc_ex.c:1841:23
	str	r0, [sp, #44]
	b	.LBB4_102
.Ltmp458:
.LBB4_102:
	.loc	5 0 23 is_stmt 0                @ libraries/STM32H7xx_HAL/STM32H7xx_HAL_Driver/Src/stm32h7xx_hal_rcc_ex.c:0:23
	b	.LBB4_103
.LBB4_103:
	b	.LBB4_104
.LBB4_104:
	.loc	5 1844 11 is_stmt 1             @ libraries/STM32H7xx_HAL/STM32H7xx_HAL_Driver/Src/stm32h7xx_hal_rcc_ex.c:1844:11
	b	.LBB4_107
.Ltmp459:
.LBB4_105:
	.loc	5 0 11 is_stmt 0                @ libraries/STM32H7xx_HAL/STM32H7xx_HAL_Driver/Src/stm32h7xx_hal_rcc_ex.c:0:11
	movw	r0, #32768
	movt	r0, #187
.Ltmp460:
	.loc	5 1849 21 is_stmt 1             @ libraries/STM32H7xx_HAL/STM32H7xx_HAL_Driver/Src/stm32h7xx_hal_rcc_ex.c:1849:21
	str	r0, [sp, #44]
	.loc	5 1850 11                       @ libraries/STM32H7xx_HAL/STM32H7xx_HAL_Driver/Src/stm32h7xx_hal_rcc_ex.c:1850:11
	b	.LBB4_107
.Ltmp461:
.LBB4_106:
	.loc	5 0 11 is_stmt 0                @ libraries/STM32H7xx_HAL/STM32H7xx_HAL_Driver/Src/stm32h7xx_hal_rcc_ex.c:0:11
	movs	r0, #0
.Ltmp462:
	.loc	5 1854 21 is_stmt 1             @ libraries/STM32H7xx_HAL/STM32H7xx_HAL_Driver/Src/stm32h7xx_hal_rcc_ex.c:1854:21
	str	r0, [sp, #44]
	.loc	5 1855 11                       @ libraries/STM32H7xx_HAL/STM32H7xx_HAL_Driver/Src/stm32h7xx_hal_rcc_ex.c:1855:11
	b	.LBB4_107
.Ltmp463:
.LBB4_107:
	.loc	5 1858 5                        @ libraries/STM32H7xx_HAL/STM32H7xx_HAL_Driver/Src/stm32h7xx_hal_rcc_ex.c:1858:5
	b	.LBB4_136
.Ltmp464:
.LBB4_108:
	.loc	5 1859 12                       @ libraries/STM32H7xx_HAL/STM32H7xx_HAL_Driver/Src/stm32h7xx_hal_rcc_ex.c:1859:12
	ldr	r0, [sp, #84]
.Ltmp465:
	.loc	5 1859 12 is_stmt 0             @ libraries/STM32H7xx_HAL/STM32H7xx_HAL_Driver/Src/stm32h7xx_hal_rcc_ex.c:1859:12
	cmp.w	r0, #524288
	bne	.LBB4_126
	b	.LBB4_109
.LBB4_109:
	.loc	5 0 12                          @ libraries/STM32H7xx_HAL/STM32H7xx_HAL_Driver/Src/stm32h7xx_hal_rcc_ex.c:0:12
	movw	r0, #17496
	movt	r0, #22530
.Ltmp466:
	.loc	5 1862 15 is_stmt 1             @ libraries/STM32H7xx_HAL/STM32H7xx_HAL_Driver/Src/stm32h7xx_hal_rcc_ex.c:1862:15
	ldr	r0, [r0]
	and	r0, r0, #196608
	.loc	5 1862 13 is_stmt 0             @ libraries/STM32H7xx_HAL/STM32H7xx_HAL_Driver/Src/stm32h7xx_hal_rcc_ex.c:1862:13
	str	r0, [sp, #32]
	.loc	5 1864 15 is_stmt 1             @ libraries/STM32H7xx_HAL/STM32H7xx_HAL_Driver/Src/stm32h7xx_hal_rcc_ex.c:1864:15
	ldr	r0, [sp, #32]
	.loc	5 1864 7 is_stmt 0              @ libraries/STM32H7xx_HAL/STM32H7xx_HAL_Driver/Src/stm32h7xx_hal_rcc_ex.c:1864:7
	str	r0, [sp, #8]                    @ 4-byte Spill
	cbz	r0, .LBB4_112
	b	.LBB4_110
.LBB4_110:
	ldr	r0, [sp, #8]                    @ 4-byte Reload
	cmp.w	r0, #65536
	beq	.LBB4_113
	b	.LBB4_111
.LBB4_111:
	ldr	r0, [sp, #8]                    @ 4-byte Reload
	cmp.w	r0, #131072
	beq	.LBB4_114
	b	.LBB4_124
.LBB4_112:
	.loc	5 0 7                           @ libraries/STM32H7xx_HAL/STM32H7xx_HAL_Driver/Src/stm32h7xx_hal_rcc_ex.c:0:7
	add	r0, sp, #60
.Ltmp467:
	.loc	5 1868 11 is_stmt 1             @ libraries/STM32H7xx_HAL/STM32H7xx_HAL_Driver/Src/stm32h7xx_hal_rcc_ex.c:1868:11
	bl	HAL_RCCEx_GetPLL2ClockFreq
	.loc	5 1869 35                       @ libraries/STM32H7xx_HAL/STM32H7xx_HAL_Driver/Src/stm32h7xx_hal_rcc_ex.c:1869:35
	ldr	r0, [sp, #60]
	.loc	5 1869 21 is_stmt 0             @ libraries/STM32H7xx_HAL/STM32H7xx_HAL_Driver/Src/stm32h7xx_hal_rcc_ex.c:1869:21
	str	r0, [sp, #44]
	.loc	5 1870 11 is_stmt 1             @ libraries/STM32H7xx_HAL/STM32H7xx_HAL_Driver/Src/stm32h7xx_hal_rcc_ex.c:1870:11
	b	.LBB4_125
.Ltmp468:
.LBB4_113:
	.loc	5 0 11 is_stmt 0                @ libraries/STM32H7xx_HAL/STM32H7xx_HAL_Driver/Src/stm32h7xx_hal_rcc_ex.c:0:11
	add	r0, sp, #48
.Ltmp469:
	.loc	5 1874 11 is_stmt 1             @ libraries/STM32H7xx_HAL/STM32H7xx_HAL_Driver/Src/stm32h7xx_hal_rcc_ex.c:1874:11
	bl	HAL_RCCEx_GetPLL3ClockFreq
	.loc	5 1875 35                       @ libraries/STM32H7xx_HAL/STM32H7xx_HAL_Driver/Src/stm32h7xx_hal_rcc_ex.c:1875:35
	ldr	r0, [sp, #56]
	.loc	5 1875 21 is_stmt 0             @ libraries/STM32H7xx_HAL/STM32H7xx_HAL_Driver/Src/stm32h7xx_hal_rcc_ex.c:1875:21
	str	r0, [sp, #44]
	.loc	5 1876 11 is_stmt 1             @ libraries/STM32H7xx_HAL/STM32H7xx_HAL_Driver/Src/stm32h7xx_hal_rcc_ex.c:1876:11
	b	.LBB4_125
.Ltmp470:
.LBB4_114:
	.loc	5 0 11 is_stmt 0                @ libraries/STM32H7xx_HAL/STM32H7xx_HAL_Driver/Src/stm32h7xx_hal_rcc_ex.c:0:11
	movw	r0, #17484
	movt	r0, #22530
.Ltmp471:
	.loc	5 1882 27 is_stmt 1             @ libraries/STM32H7xx_HAL/STM32H7xx_HAL_Driver/Src/stm32h7xx_hal_rcc_ex.c:1882:27
	ldr	r0, [r0]
	and	r0, r0, #805306368
	.loc	5 1882 25 is_stmt 0             @ libraries/STM32H7xx_HAL/STM32H7xx_HAL_Driver/Src/stm32h7xx_hal_rcc_ex.c:1882:25
	str	r0, [sp, #36]
.Ltmp472:
	.loc	5 1884 14 is_stmt 1             @ libraries/STM32H7xx_HAL/STM32H7xx_HAL_Driver/Src/stm32h7xx_hal_rcc_ex.c:1884:14
	ldr	r0, [sp, #36]
.Ltmp473:
	.loc	5 1884 14 is_stmt 0             @ libraries/STM32H7xx_HAL/STM32H7xx_HAL_Driver/Src/stm32h7xx_hal_rcc_ex.c:1884:14
	cbnz	r0, .LBB4_116
	b	.LBB4_115
.LBB4_115:
	.loc	5 0 14                          @ libraries/STM32H7xx_HAL/STM32H7xx_HAL_Driver/Src/stm32h7xx_hal_rcc_ex.c:0:14
	movw	r0, #36864
	movt	r0, #976
.Ltmp474:
	.loc	5 1887 23 is_stmt 1             @ libraries/STM32H7xx_HAL/STM32H7xx_HAL_Driver/Src/stm32h7xx_hal_rcc_ex.c:1887:23
	str	r0, [sp, #44]
	.loc	5 1888 11                       @ libraries/STM32H7xx_HAL/STM32H7xx_HAL_Driver/Src/stm32h7xx_hal_rcc_ex.c:1888:11
	b	.LBB4_123
.Ltmp475:
.LBB4_116:
	.loc	5 1890 19                       @ libraries/STM32H7xx_HAL/STM32H7xx_HAL_Driver/Src/stm32h7xx_hal_rcc_ex.c:1890:19
	ldr	r0, [sp, #36]
.Ltmp476:
	.loc	5 1890 19 is_stmt 0             @ libraries/STM32H7xx_HAL/STM32H7xx_HAL_Driver/Src/stm32h7xx_hal_rcc_ex.c:1890:19
	cmp.w	r0, #268435456
	bne	.LBB4_118
	b	.LBB4_117
.LBB4_117:
	.loc	5 0 19                          @ libraries/STM32H7xx_HAL/STM32H7xx_HAL_Driver/Src/stm32h7xx_hal_rcc_ex.c:0:19
	movw	r0, #2304
	movt	r0, #61
.Ltmp477:
	.loc	5 1893 23 is_stmt 1             @ libraries/STM32H7xx_HAL/STM32H7xx_HAL_Driver/Src/stm32h7xx_hal_rcc_ex.c:1893:23
	str	r0, [sp, #44]
	.loc	5 1894 11                       @ libraries/STM32H7xx_HAL/STM32H7xx_HAL_Driver/Src/stm32h7xx_hal_rcc_ex.c:1894:11
	b	.LBB4_122
.Ltmp478:
.LBB4_118:
	.loc	5 1896 20                       @ libraries/STM32H7xx_HAL/STM32H7xx_HAL_Driver/Src/stm32h7xx_hal_rcc_ex.c:1896:20
	ldr	r0, [sp, #36]
.Ltmp479:
	.loc	5 1896 20 is_stmt 0             @ libraries/STM32H7xx_HAL/STM32H7xx_HAL_Driver/Src/stm32h7xx_hal_rcc_ex.c:1896:20
	cmp.w	r0, #536870912
	bne	.LBB4_120
	b	.LBB4_119
.LBB4_119:
	.loc	5 0 20                          @ libraries/STM32H7xx_HAL/STM32H7xx_HAL_Driver/Src/stm32h7xx_hal_rcc_ex.c:0:20
	movw	r0, #30784
	movt	r0, #381
.Ltmp480:
	.loc	5 1899 23 is_stmt 1             @ libraries/STM32H7xx_HAL/STM32H7xx_HAL_Driver/Src/stm32h7xx_hal_rcc_ex.c:1899:23
	str	r0, [sp, #44]
	.loc	5 1900 11                       @ libraries/STM32H7xx_HAL/STM32H7xx_HAL_Driver/Src/stm32h7xx_hal_rcc_ex.c:1900:11
	b	.LBB4_121
.Ltmp481:
.LBB4_120:
	.loc	5 0 11 is_stmt 0                @ libraries/STM32H7xx_HAL/STM32H7xx_HAL_Driver/Src/stm32h7xx_hal_rcc_ex.c:0:11
	movs	r0, #0
.Ltmp482:
	.loc	5 1905 23 is_stmt 1             @ libraries/STM32H7xx_HAL/STM32H7xx_HAL_Driver/Src/stm32h7xx_hal_rcc_ex.c:1905:23
	str	r0, [sp, #44]
	b	.LBB4_121
.Ltmp483:
.LBB4_121:
	.loc	5 0 23 is_stmt 0                @ libraries/STM32H7xx_HAL/STM32H7xx_HAL_Driver/Src/stm32h7xx_hal_rcc_ex.c:0:23
	b	.LBB4_122
.LBB4_122:
	b	.LBB4_123
.LBB4_123:
	.loc	5 1908 11 is_stmt 1             @ libraries/STM32H7xx_HAL/STM32H7xx_HAL_Driver/Src/stm32h7xx_hal_rcc_ex.c:1908:11
	b	.LBB4_125
.Ltmp484:
.LBB4_124:
	.loc	5 0 11 is_stmt 0                @ libraries/STM32H7xx_HAL/STM32H7xx_HAL_Driver/Src/stm32h7xx_hal_rcc_ex.c:0:11
	movs	r0, #0
.Ltmp485:
	.loc	5 1913 21 is_stmt 1             @ libraries/STM32H7xx_HAL/STM32H7xx_HAL_Driver/Src/stm32h7xx_hal_rcc_ex.c:1913:21
	str	r0, [sp, #44]
	.loc	5 1914 11                       @ libraries/STM32H7xx_HAL/STM32H7xx_HAL_Driver/Src/stm32h7xx_hal_rcc_ex.c:1914:11
	b	.LBB4_125
.Ltmp486:
.LBB4_125:
	.loc	5 1917 5                        @ libraries/STM32H7xx_HAL/STM32H7xx_HAL_Driver/Src/stm32h7xx_hal_rcc_ex.c:1917:5
	b	.LBB4_135
.Ltmp487:
.LBB4_126:
	.loc	5 1918 12                       @ libraries/STM32H7xx_HAL/STM32H7xx_HAL_Driver/Src/stm32h7xx_hal_rcc_ex.c:1918:12
	ldr	r0, [sp, #84]
.Ltmp488:
	.loc	5 1918 12 is_stmt 0             @ libraries/STM32H7xx_HAL/STM32H7xx_HAL_Driver/Src/stm32h7xx_hal_rcc_ex.c:1918:12
	cmp.w	r0, #65536
	bne	.LBB4_133
	b	.LBB4_127
.LBB4_127:
	.loc	5 0 12                          @ libraries/STM32H7xx_HAL/STM32H7xx_HAL_Driver/Src/stm32h7xx_hal_rcc_ex.c:0:12
	movw	r0, #17484
	movt	r0, #22530
.Ltmp489:
	.loc	5 1921 15 is_stmt 1             @ libraries/STM32H7xx_HAL/STM32H7xx_HAL_Driver/Src/stm32h7xx_hal_rcc_ex.c:1921:15
	ldr	r0, [r0]
	and	r0, r0, #65536
	.loc	5 1921 13 is_stmt 0             @ libraries/STM32H7xx_HAL/STM32H7xx_HAL_Driver/Src/stm32h7xx_hal_rcc_ex.c:1921:13
	str	r0, [sp, #32]
	.loc	5 1923 15 is_stmt 1             @ libraries/STM32H7xx_HAL/STM32H7xx_HAL_Driver/Src/stm32h7xx_hal_rcc_ex.c:1923:15
	ldr	r0, [sp, #32]
	.loc	5 1923 7 is_stmt 0              @ libraries/STM32H7xx_HAL/STM32H7xx_HAL_Driver/Src/stm32h7xx_hal_rcc_ex.c:1923:7
	str	r0, [sp, #4]                    @ 4-byte Spill
	cbz	r0, .LBB4_129
	b	.LBB4_128
.LBB4_128:
	ldr	r0, [sp, #4]                    @ 4-byte Reload
	cmp.w	r0, #65536
	beq	.LBB4_130
	b	.LBB4_131
.LBB4_129:
	.loc	5 0 7                           @ libraries/STM32H7xx_HAL/STM32H7xx_HAL_Driver/Src/stm32h7xx_hal_rcc_ex.c:0:7
	add	r0, sp, #72
.Ltmp490:
	.loc	5 1927 11 is_stmt 1             @ libraries/STM32H7xx_HAL/STM32H7xx_HAL_Driver/Src/stm32h7xx_hal_rcc_ex.c:1927:11
	bl	HAL_RCCEx_GetPLL1ClockFreq
	.loc	5 1928 35                       @ libraries/STM32H7xx_HAL/STM32H7xx_HAL_Driver/Src/stm32h7xx_hal_rcc_ex.c:1928:35
	ldr	r0, [sp, #76]
	.loc	5 1928 21 is_stmt 0             @ libraries/STM32H7xx_HAL/STM32H7xx_HAL_Driver/Src/stm32h7xx_hal_rcc_ex.c:1928:21
	str	r0, [sp, #44]
	.loc	5 1929 11 is_stmt 1             @ libraries/STM32H7xx_HAL/STM32H7xx_HAL_Driver/Src/stm32h7xx_hal_rcc_ex.c:1929:11
	b	.LBB4_132
.Ltmp491:
.LBB4_130:
	.loc	5 0 11 is_stmt 0                @ libraries/STM32H7xx_HAL/STM32H7xx_HAL_Driver/Src/stm32h7xx_hal_rcc_ex.c:0:11
	add	r0, sp, #60
.Ltmp492:
	.loc	5 1933 11 is_stmt 1             @ libraries/STM32H7xx_HAL/STM32H7xx_HAL_Driver/Src/stm32h7xx_hal_rcc_ex.c:1933:11
	bl	HAL_RCCEx_GetPLL2ClockFreq
	.loc	5 1934 35                       @ libraries/STM32H7xx_HAL/STM32H7xx_HAL_Driver/Src/stm32h7xx_hal_rcc_ex.c:1934:35
	ldr	r0, [sp, #68]
	.loc	5 1934 21 is_stmt 0             @ libraries/STM32H7xx_HAL/STM32H7xx_HAL_Driver/Src/stm32h7xx_hal_rcc_ex.c:1934:21
	str	r0, [sp, #44]
	.loc	5 1935 11 is_stmt 1             @ libraries/STM32H7xx_HAL/STM32H7xx_HAL_Driver/Src/stm32h7xx_hal_rcc_ex.c:1935:11
	b	.LBB4_132
.Ltmp493:
.LBB4_131:
	.loc	5 0 11 is_stmt 0                @ libraries/STM32H7xx_HAL/STM32H7xx_HAL_Driver/Src/stm32h7xx_hal_rcc_ex.c:0:11
	movs	r0, #0
.Ltmp494:
	.loc	5 1940 21 is_stmt 1             @ libraries/STM32H7xx_HAL/STM32H7xx_HAL_Driver/Src/stm32h7xx_hal_rcc_ex.c:1940:21
	str	r0, [sp, #44]
	.loc	5 1941 11                       @ libraries/STM32H7xx_HAL/STM32H7xx_HAL_Driver/Src/stm32h7xx_hal_rcc_ex.c:1941:11
	b	.LBB4_132
.Ltmp495:
.LBB4_132:
	.loc	5 1944 5                        @ libraries/STM32H7xx_HAL/STM32H7xx_HAL_Driver/Src/stm32h7xx_hal_rcc_ex.c:1944:5
	b	.LBB4_134
.Ltmp496:
.LBB4_133:
	.loc	5 0 5 is_stmt 0                 @ libraries/STM32H7xx_HAL/STM32H7xx_HAL_Driver/Src/stm32h7xx_hal_rcc_ex.c:0:5
	movs	r0, #0
.Ltmp497:
	.loc	5 1947 17 is_stmt 1             @ libraries/STM32H7xx_HAL/STM32H7xx_HAL_Driver/Src/stm32h7xx_hal_rcc_ex.c:1947:17
	str	r0, [sp, #44]
	b	.LBB4_134
.Ltmp498:
.LBB4_134:
	.loc	5 0 17 is_stmt 0                @ libraries/STM32H7xx_HAL/STM32H7xx_HAL_Driver/Src/stm32h7xx_hal_rcc_ex.c:0:17
	b	.LBB4_135
.LBB4_135:
	b	.LBB4_136
.LBB4_136:
	b	.LBB4_137
.LBB4_137:
	b	.LBB4_138
.LBB4_138:
	b	.LBB4_139
.LBB4_139:
	b	.LBB4_140
.LBB4_140:
	.loc	5 1950 10 is_stmt 1             @ libraries/STM32H7xx_HAL/STM32H7xx_HAL_Driver/Src/stm32h7xx_hal_rcc_ex.c:1950:10
	ldr	r0, [sp, #44]
	.loc	5 1950 3 is_stmt 0              @ libraries/STM32H7xx_HAL/STM32H7xx_HAL_Driver/Src/stm32h7xx_hal_rcc_ex.c:1950:3
	add	sp, #88
	pop	{r7, pc}
.Ltmp499:
.Lfunc_end4:
	.size	HAL_RCCEx_GetPeriphCLKFreq, .Lfunc_end4-HAL_RCCEx_GetPeriphCLKFreq
	.cfi_endproc
	.cantunwind
	.fnend
                                        @ -- End function
	.section	.text.HAL_RCCEx_GetPLL1ClockFreq,"ax",%progbits
	.hidden	HAL_RCCEx_GetPLL1ClockFreq      @ -- Begin function HAL_RCCEx_GetPLL1ClockFreq
	.globl	HAL_RCCEx_GetPLL1ClockFreq
	.p2align	3
	.type	HAL_RCCEx_GetPLL1ClockFreq,%function
	.code	16                              @ @HAL_RCCEx_GetPLL1ClockFreq
	.thumb_func
HAL_RCCEx_GetPLL1ClockFreq:
.Lfunc_begin5:
	.loc	5 2129 0 is_stmt 1              @ libraries/STM32H7xx_HAL/STM32H7xx_HAL_Driver/Src/stm32h7xx_hal_rcc_ex.c:2129:0
	.fnstart
	.cfi_startproc
@ %bb.0:
	.pad	#32
	sub	sp, #32
	.cfi_def_cfa_offset 32
	str	r0, [sp, #28]
	movw	r0, #17448
	movt	r0, #22530
.Ltmp500:
	.loc	5 2133 21 prologue_end          @ libraries/STM32H7xx_HAL/STM32H7xx_HAL_Driver/Src/stm32h7xx_hal_rcc_ex.c:2133:21
	ldr	r1, [r0]
	.loc	5 2133 31 is_stmt 0             @ libraries/STM32H7xx_HAL/STM32H7xx_HAL_Driver/Src/stm32h7xx_hal_rcc_ex.c:2133:31
	and	r1, r1, #3
	.loc	5 2133 13                       @ libraries/STM32H7xx_HAL/STM32H7xx_HAL_Driver/Src/stm32h7xx_hal_rcc_ex.c:2133:13
	str	r1, [sp, #24]
	.loc	5 2134 18 is_stmt 1             @ libraries/STM32H7xx_HAL/STM32H7xx_HAL_Driver/Src/stm32h7xx_hal_rcc_ex.c:2134:18
	ldr	r0, [r0]
	.loc	5 2134 50 is_stmt 0             @ libraries/STM32H7xx_HAL/STM32H7xx_HAL_Driver/Src/stm32h7xx_hal_rcc_ex.c:2134:50
	ubfx	r0, r0, #4, #6
	.loc	5 2134 9                        @ libraries/STM32H7xx_HAL/STM32H7xx_HAL_Driver/Src/stm32h7xx_hal_rcc_ex.c:2134:9
	str	r0, [sp, #20]
	movw	r0, #17452
	movt	r0, #22530
	.loc	5 2135 21 is_stmt 1             @ libraries/STM32H7xx_HAL/STM32H7xx_HAL_Driver/Src/stm32h7xx_hal_rcc_ex.c:2135:21
	ldr	r0, [r0]
	.loc	5 2135 29 is_stmt 0             @ libraries/STM32H7xx_HAL/STM32H7xx_HAL_Driver/Src/stm32h7xx_hal_rcc_ex.c:2135:29
	and	r0, r0, #1
	.loc	5 2135 14                       @ libraries/STM32H7xx_HAL/STM32H7xx_HAL_Driver/Src/stm32h7xx_hal_rcc_ex.c:2135:14
	str	r0, [sp, #16]
	.loc	5 2136 32 is_stmt 1             @ libraries/STM32H7xx_HAL/STM32H7xx_HAL_Driver/Src/stm32h7xx_hal_rcc_ex.c:2136:32
	ldr	r0, [sp, #16]
	movw	r1, #17460
	movt	r1, #22530
	.loc	5 2136 52 is_stmt 0             @ libraries/STM32H7xx_HAL/STM32H7xx_HAL_Driver/Src/stm32h7xx_hal_rcc_ex.c:2136:52
	ldr	r1, [r1]
	.loc	5 2136 62                       @ libraries/STM32H7xx_HAL/STM32H7xx_HAL_Driver/Src/stm32h7xx_hal_rcc_ex.c:2136:62
	uxth	r1, r1
	.loc	5 2136 85                       @ libraries/STM32H7xx_HAL/STM32H7xx_HAL_Driver/Src/stm32h7xx_hal_rcc_ex.c:2136:85
	lsrs	r1, r1, #3
	.loc	5 2136 43                       @ libraries/STM32H7xx_HAL/STM32H7xx_HAL_Driver/Src/stm32h7xx_hal_rcc_ex.c:2136:43
	muls	r0, r1, r0
	.loc	5 2136 12                       @ libraries/STM32H7xx_HAL/STM32H7xx_HAL_Driver/Src/stm32h7xx_hal_rcc_ex.c:2136:12
	vmov	s0, r0
	vcvt.f32.u32	s0, s0
	.loc	5 2136 10                       @ libraries/STM32H7xx_HAL/STM32H7xx_HAL_Driver/Src/stm32h7xx_hal_rcc_ex.c:2136:10
	vstr	s0, [sp, #8]
.Ltmp501:
	.loc	5 2138 7 is_stmt 1              @ libraries/STM32H7xx_HAL/STM32H7xx_HAL_Driver/Src/stm32h7xx_hal_rcc_ex.c:2138:7
	ldr	r0, [sp, #20]
.Ltmp502:
	.loc	5 2138 7 is_stmt 0              @ libraries/STM32H7xx_HAL/STM32H7xx_HAL_Driver/Src/stm32h7xx_hal_rcc_ex.c:2138:7
	cmp	r0, #0
	beq.w	.LBB5_12
	b	.LBB5_1
.LBB5_1:
.Ltmp503:
	.loc	5 2140 13 is_stmt 1             @ libraries/STM32H7xx_HAL/STM32H7xx_HAL_Driver/Src/stm32h7xx_hal_rcc_ex.c:2140:13
	ldr	r0, [sp, #24]
	.loc	5 2140 5 is_stmt 0              @ libraries/STM32H7xx_HAL/STM32H7xx_HAL_Driver/Src/stm32h7xx_hal_rcc_ex.c:2140:5
	str	r0, [sp]                        @ 4-byte Spill
	cbz	r0, .LBB5_4
	b	.LBB5_2
.LBB5_2:
	ldr	r0, [sp]                        @ 4-byte Reload
	cmp	r0, #1
	beq	.LBB5_8
	b	.LBB5_3
.LBB5_3:
	ldr	r0, [sp]                        @ 4-byte Reload
	cmp	r0, #2
	beq.w	.LBB5_9
	b	.LBB5_10
.LBB5_4:
	.loc	5 0 5                           @ libraries/STM32H7xx_HAL/STM32H7xx_HAL_Driver/Src/stm32h7xx_hal_rcc_ex.c:0:5
	movw	r0, #17408
	movt	r0, #22530
.Ltmp504:
	.loc	5 2145 11 is_stmt 1             @ libraries/STM32H7xx_HAL/STM32H7xx_HAL_Driver/Src/stm32h7xx_hal_rcc_ex.c:2145:11
	ldr	r0, [r0]
	and	r1, r0, #32
	movs	r0, #0
.Ltmp505:
	.loc	5 2145 11 is_stmt 0             @ libraries/STM32H7xx_HAL/STM32H7xx_HAL_Driver/Src/stm32h7xx_hal_rcc_ex.c:2145:11
	cmp.w	r0, r1, lsr #5
	beq	.LBB5_6
	b	.LBB5_5
.LBB5_5:
	.loc	5 0 11                          @ libraries/STM32H7xx_HAL/STM32H7xx_HAL_Driver/Src/stm32h7xx_hal_rcc_ex.c:0:11
	movw	r0, #17408
	movt	r0, #22530
.Ltmp506:
	.loc	5 2147 35 is_stmt 1             @ libraries/STM32H7xx_HAL/STM32H7xx_HAL_Driver/Src/stm32h7xx_hal_rcc_ex.c:2147:35
	ldr	r0, [r0]
	.loc	5 2147 62 is_stmt 0             @ libraries/STM32H7xx_HAL/STM32H7xx_HAL_Driver/Src/stm32h7xx_hal_rcc_ex.c:2147:62
	ubfx	r1, r0, #3, #2
	movw	r0, #36864
	movt	r0, #976
	.loc	5 2147 31                       @ libraries/STM32H7xx_HAL/STM32H7xx_HAL_Driver/Src/stm32h7xx_hal_rcc_ex.c:2147:31
	lsrs	r0, r1
	.loc	5 2147 18                       @ libraries/STM32H7xx_HAL/STM32H7xx_HAL_Driver/Src/stm32h7xx_hal_rcc_ex.c:2147:18
	str	r0, [sp, #12]
	.loc	5 2148 20 is_stmt 1             @ libraries/STM32H7xx_HAL/STM32H7xx_HAL_Driver/Src/stm32h7xx_hal_rcc_ex.c:2148:20
	vldr	s0, [sp, #12]
	vcvt.f32.u32	s0, s0
	.loc	5 2148 40 is_stmt 0             @ libraries/STM32H7xx_HAL/STM32H7xx_HAL_Driver/Src/stm32h7xx_hal_rcc_ex.c:2148:40
	vldr	s2, [sp, #20]
	vcvt.f32.u32	s2, s2
	.loc	5 2148 38                       @ libraries/STM32H7xx_HAL/STM32H7xx_HAL_Driver/Src/stm32h7xx_hal_rcc_ex.c:2148:38
	vdiv.f32	s0, s0, s2
	movw	r0, #17456
	movt	r0, #22530
	.loc	5 2148 84                       @ libraries/STM32H7xx_HAL/STM32H7xx_HAL_Driver/Src/stm32h7xx_hal_rcc_ex.c:2148:84
	ldr	r0, [r0]
	.loc	5 2148 93                       @ libraries/STM32H7xx_HAL/STM32H7xx_HAL_Driver/Src/stm32h7xx_hal_rcc_ex.c:2148:93
	bfc	r0, #9, #23
	.loc	5 2148 59                       @ libraries/STM32H7xx_HAL/STM32H7xx_HAL_Driver/Src/stm32h7xx_hal_rcc_ex.c:2148:59
	vmov	s2, r0
	vcvt.f32.u32	s2, s2
	.loc	5 2148 115                      @ libraries/STM32H7xx_HAL/STM32H7xx_HAL_Driver/Src/stm32h7xx_hal_rcc_ex.c:2148:115
	vldr	s4, [sp, #8]
	vldr	s6, .LCPI5_1
	.loc	5 2148 121                      @ libraries/STM32H7xx_HAL/STM32H7xx_HAL_Driver/Src/stm32h7xx_hal_rcc_ex.c:2148:121
	vdiv.f32	s4, s4, s6
	.loc	5 2148 112                      @ libraries/STM32H7xx_HAL/STM32H7xx_HAL_Driver/Src/stm32h7xx_hal_rcc_ex.c:2148:112
	vadd.f32	s2, s2, s4
	vmov.f32	s4, #1.000000e+00
	.loc	5 2148 139                      @ libraries/STM32H7xx_HAL/STM32H7xx_HAL_Driver/Src/stm32h7xx_hal_rcc_ex.c:2148:139
	vadd.f32	s2, s2, s4
	.loc	5 2148 56                       @ libraries/STM32H7xx_HAL/STM32H7xx_HAL_Driver/Src/stm32h7xx_hal_rcc_ex.c:2148:56
	vmul.f32	s0, s0, s2
	.loc	5 2148 17                       @ libraries/STM32H7xx_HAL/STM32H7xx_HAL_Driver/Src/stm32h7xx_hal_rcc_ex.c:2148:17
	vstr	s0, [sp, #4]
	.loc	5 2149 7 is_stmt 1              @ libraries/STM32H7xx_HAL/STM32H7xx_HAL_Driver/Src/stm32h7xx_hal_rcc_ex.c:2149:7
	b	.LBB5_7
.Ltmp507:
.LBB5_6:
	.loc	5 2152 41                       @ libraries/STM32H7xx_HAL/STM32H7xx_HAL_Driver/Src/stm32h7xx_hal_rcc_ex.c:2152:41
	vldr	s0, [sp, #20]
	vcvt.f32.u32	s2, s0
	vldr	s0, .LCPI5_3
	.loc	5 2152 39 is_stmt 0             @ libraries/STM32H7xx_HAL/STM32H7xx_HAL_Driver/Src/stm32h7xx_hal_rcc_ex.c:2152:39
	vdiv.f32	s0, s0, s2
	movw	r0, #17456
	movt	r0, #22530
	.loc	5 2152 85                       @ libraries/STM32H7xx_HAL/STM32H7xx_HAL_Driver/Src/stm32h7xx_hal_rcc_ex.c:2152:85
	ldr	r0, [r0]
	.loc	5 2152 94                       @ libraries/STM32H7xx_HAL/STM32H7xx_HAL_Driver/Src/stm32h7xx_hal_rcc_ex.c:2152:94
	bfc	r0, #9, #23
	.loc	5 2152 60                       @ libraries/STM32H7xx_HAL/STM32H7xx_HAL_Driver/Src/stm32h7xx_hal_rcc_ex.c:2152:60
	vmov	s2, r0
	vcvt.f32.u32	s2, s2
	.loc	5 2152 116                      @ libraries/STM32H7xx_HAL/STM32H7xx_HAL_Driver/Src/stm32h7xx_hal_rcc_ex.c:2152:116
	vldr	s4, [sp, #8]
	vldr	s6, .LCPI5_1
	.loc	5 2152 122                      @ libraries/STM32H7xx_HAL/STM32H7xx_HAL_Driver/Src/stm32h7xx_hal_rcc_ex.c:2152:122
	vdiv.f32	s4, s4, s6
	.loc	5 2152 113                      @ libraries/STM32H7xx_HAL/STM32H7xx_HAL_Driver/Src/stm32h7xx_hal_rcc_ex.c:2152:113
	vadd.f32	s2, s2, s4
	vmov.f32	s4, #1.000000e+00
	.loc	5 2152 140                      @ libraries/STM32H7xx_HAL/STM32H7xx_HAL_Driver/Src/stm32h7xx_hal_rcc_ex.c:2152:140
	vadd.f32	s2, s2, s4
	.loc	5 2152 57                       @ libraries/STM32H7xx_HAL/STM32H7xx_HAL_Driver/Src/stm32h7xx_hal_rcc_ex.c:2152:57
	vmul.f32	s0, s0, s2
	.loc	5 2152 17                       @ libraries/STM32H7xx_HAL/STM32H7xx_HAL_Driver/Src/stm32h7xx_hal_rcc_ex.c:2152:17
	vstr	s0, [sp, #4]
	b	.LBB5_7
.Ltmp508:
.LBB5_7:
	.loc	5 2154 7 is_stmt 1              @ libraries/STM32H7xx_HAL/STM32H7xx_HAL_Driver/Src/stm32h7xx_hal_rcc_ex.c:2154:7
	b	.LBB5_11
.LBB5_8:
	.loc	5 2156 39                       @ libraries/STM32H7xx_HAL/STM32H7xx_HAL_Driver/Src/stm32h7xx_hal_rcc_ex.c:2156:39
	vldr	s0, [sp, #20]
	vcvt.f32.u32	s2, s0
	vldr	s0, .LCPI5_2
	.loc	5 2156 37 is_stmt 0             @ libraries/STM32H7xx_HAL/STM32H7xx_HAL_Driver/Src/stm32h7xx_hal_rcc_ex.c:2156:37
	vdiv.f32	s0, s0, s2
	movw	r0, #17456
	movt	r0, #22530
	.loc	5 2156 83                       @ libraries/STM32H7xx_HAL/STM32H7xx_HAL_Driver/Src/stm32h7xx_hal_rcc_ex.c:2156:83
	ldr	r0, [r0]
	.loc	5 2156 92                       @ libraries/STM32H7xx_HAL/STM32H7xx_HAL_Driver/Src/stm32h7xx_hal_rcc_ex.c:2156:92
	bfc	r0, #9, #23
	.loc	5 2156 58                       @ libraries/STM32H7xx_HAL/STM32H7xx_HAL_Driver/Src/stm32h7xx_hal_rcc_ex.c:2156:58
	vmov	s2, r0
	vcvt.f32.u32	s2, s2
	.loc	5 2156 114                      @ libraries/STM32H7xx_HAL/STM32H7xx_HAL_Driver/Src/stm32h7xx_hal_rcc_ex.c:2156:114
	vldr	s4, [sp, #8]
	vldr	s6, .LCPI5_1
	.loc	5 2156 120                      @ libraries/STM32H7xx_HAL/STM32H7xx_HAL_Driver/Src/stm32h7xx_hal_rcc_ex.c:2156:120
	vdiv.f32	s4, s4, s6
	.loc	5 2156 111                      @ libraries/STM32H7xx_HAL/STM32H7xx_HAL_Driver/Src/stm32h7xx_hal_rcc_ex.c:2156:111
	vadd.f32	s2, s2, s4
	vmov.f32	s4, #1.000000e+00
	.loc	5 2156 138                      @ libraries/STM32H7xx_HAL/STM32H7xx_HAL_Driver/Src/stm32h7xx_hal_rcc_ex.c:2156:138
	vadd.f32	s2, s2, s4
	.loc	5 2156 55                       @ libraries/STM32H7xx_HAL/STM32H7xx_HAL_Driver/Src/stm32h7xx_hal_rcc_ex.c:2156:55
	vmul.f32	s0, s0, s2
	.loc	5 2156 15                       @ libraries/STM32H7xx_HAL/STM32H7xx_HAL_Driver/Src/stm32h7xx_hal_rcc_ex.c:2156:15
	vstr	s0, [sp, #4]
	.loc	5 2157 7 is_stmt 1              @ libraries/STM32H7xx_HAL/STM32H7xx_HAL_Driver/Src/stm32h7xx_hal_rcc_ex.c:2157:7
	b	.LBB5_11
.LBB5_9:
	.loc	5 2160 39                       @ libraries/STM32H7xx_HAL/STM32H7xx_HAL_Driver/Src/stm32h7xx_hal_rcc_ex.c:2160:39
	vldr	s0, [sp, #20]
	vcvt.f32.u32	s2, s0
	vldr	s0, .LCPI5_0
	.loc	5 2160 37 is_stmt 0             @ libraries/STM32H7xx_HAL/STM32H7xx_HAL_Driver/Src/stm32h7xx_hal_rcc_ex.c:2160:37
	vdiv.f32	s0, s0, s2
	movw	r0, #17456
	movt	r0, #22530
	.loc	5 2160 83                       @ libraries/STM32H7xx_HAL/STM32H7xx_HAL_Driver/Src/stm32h7xx_hal_rcc_ex.c:2160:83
	ldr	r0, [r0]
	.loc	5 2160 92                       @ libraries/STM32H7xx_HAL/STM32H7xx_HAL_Driver/Src/stm32h7xx_hal_rcc_ex.c:2160:92
	bfc	r0, #9, #23
	.loc	5 2160 58                       @ libraries/STM32H7xx_HAL/STM32H7xx_HAL_Driver/Src/stm32h7xx_hal_rcc_ex.c:2160:58
	vmov	s2, r0
	vcvt.f32.u32	s2, s2
	.loc	5 2160 114                      @ libraries/STM32H7xx_HAL/STM32H7xx_HAL_Driver/Src/stm32h7xx_hal_rcc_ex.c:2160:114
	vldr	s4, [sp, #8]
	vldr	s6, .LCPI5_1
	.loc	5 2160 120                      @ libraries/STM32H7xx_HAL/STM32H7xx_HAL_Driver/Src/stm32h7xx_hal_rcc_ex.c:2160:120
	vdiv.f32	s4, s4, s6
	.loc	5 2160 111                      @ libraries/STM32H7xx_HAL/STM32H7xx_HAL_Driver/Src/stm32h7xx_hal_rcc_ex.c:2160:111
	vadd.f32	s2, s2, s4
	vmov.f32	s4, #1.000000e+00
	.loc	5 2160 138                      @ libraries/STM32H7xx_HAL/STM32H7xx_HAL_Driver/Src/stm32h7xx_hal_rcc_ex.c:2160:138
	vadd.f32	s2, s2, s4
	.loc	5 2160 55                       @ libraries/STM32H7xx_HAL/STM32H7xx_HAL_Driver/Src/stm32h7xx_hal_rcc_ex.c:2160:55
	vmul.f32	s0, s0, s2
	.loc	5 2160 15                       @ libraries/STM32H7xx_HAL/STM32H7xx_HAL_Driver/Src/stm32h7xx_hal_rcc_ex.c:2160:15
	vstr	s0, [sp, #4]
	.loc	5 2161 7 is_stmt 1              @ libraries/STM32H7xx_HAL/STM32H7xx_HAL_Driver/Src/stm32h7xx_hal_rcc_ex.c:2161:7
	b	.LBB5_11
.LBB5_10:
	.loc	5 2164 39                       @ libraries/STM32H7xx_HAL/STM32H7xx_HAL_Driver/Src/stm32h7xx_hal_rcc_ex.c:2164:39
	vldr	s0, [sp, #20]
	vcvt.f32.u32	s2, s0
	vldr	s0, .LCPI5_2
	.loc	5 2164 37 is_stmt 0             @ libraries/STM32H7xx_HAL/STM32H7xx_HAL_Driver/Src/stm32h7xx_hal_rcc_ex.c:2164:37
	vdiv.f32	s0, s0, s2
	movw	r0, #17456
	movt	r0, #22530
	.loc	5 2164 83                       @ libraries/STM32H7xx_HAL/STM32H7xx_HAL_Driver/Src/stm32h7xx_hal_rcc_ex.c:2164:83
	ldr	r0, [r0]
	.loc	5 2164 92                       @ libraries/STM32H7xx_HAL/STM32H7xx_HAL_Driver/Src/stm32h7xx_hal_rcc_ex.c:2164:92
	bfc	r0, #9, #23
	.loc	5 2164 58                       @ libraries/STM32H7xx_HAL/STM32H7xx_HAL_Driver/Src/stm32h7xx_hal_rcc_ex.c:2164:58
	vmov	s2, r0
	vcvt.f32.u32	s2, s2
	.loc	5 2164 114                      @ libraries/STM32H7xx_HAL/STM32H7xx_HAL_Driver/Src/stm32h7xx_hal_rcc_ex.c:2164:114
	vldr	s4, [sp, #8]
	vldr	s6, .LCPI5_1
	.loc	5 2164 120                      @ libraries/STM32H7xx_HAL/STM32H7xx_HAL_Driver/Src/stm32h7xx_hal_rcc_ex.c:2164:120
	vdiv.f32	s4, s4, s6
	.loc	5 2164 111                      @ libraries/STM32H7xx_HAL/STM32H7xx_HAL_Driver/Src/stm32h7xx_hal_rcc_ex.c:2164:111
	vadd.f32	s2, s2, s4
	vmov.f32	s4, #1.000000e+00
	.loc	5 2164 138                      @ libraries/STM32H7xx_HAL/STM32H7xx_HAL_Driver/Src/stm32h7xx_hal_rcc_ex.c:2164:138
	vadd.f32	s2, s2, s4
	.loc	5 2164 55                       @ libraries/STM32H7xx_HAL/STM32H7xx_HAL_Driver/Src/stm32h7xx_hal_rcc_ex.c:2164:55
	vmul.f32	s0, s0, s2
	.loc	5 2164 15                       @ libraries/STM32H7xx_HAL/STM32H7xx_HAL_Driver/Src/stm32h7xx_hal_rcc_ex.c:2164:15
	vstr	s0, [sp, #4]
	.loc	5 2165 7 is_stmt 1              @ libraries/STM32H7xx_HAL/STM32H7xx_HAL_Driver/Src/stm32h7xx_hal_rcc_ex.c:2165:7
	b	.LBB5_11
.Ltmp509:
.LBB5_11:
	.loc	5 2168 57                       @ libraries/STM32H7xx_HAL/STM32H7xx_HAL_Driver/Src/stm32h7xx_hal_rcc_ex.c:2168:57
	vldr	s0, [sp, #4]
	movw	r0, #17456
	movt	r0, #22530
	.loc	5 2168 92 is_stmt 0             @ libraries/STM32H7xx_HAL/STM32H7xx_HAL_Driver/Src/stm32h7xx_hal_rcc_ex.c:2168:92
	ldr	r1, [r0]
	.loc	5 2168 101                      @ libraries/STM32H7xx_HAL/STM32H7xx_HAL_Driver/Src/stm32h7xx_hal_rcc_ex.c:2168:101
	uxth	r1, r1
	.loc	5 2168 120                      @ libraries/STM32H7xx_HAL/STM32H7xx_HAL_Driver/Src/stm32h7xx_hal_rcc_ex.c:2168:120
	lsrs	r1, r1, #9
	.loc	5 2168 66                       @ libraries/STM32H7xx_HAL/STM32H7xx_HAL_Driver/Src/stm32h7xx_hal_rcc_ex.c:2168:66
	vmov	s2, r1
	vcvt.f32.u32	s2, s2
	vmov.f32	s4, #1.000000e+00
	.loc	5 2168 126                      @ libraries/STM32H7xx_HAL/STM32H7xx_HAL_Driver/Src/stm32h7xx_hal_rcc_ex.c:2168:126
	vadd.f32	s2, s2, s4
	.loc	5 2168 64                       @ libraries/STM32H7xx_HAL/STM32H7xx_HAL_Driver/Src/stm32h7xx_hal_rcc_ex.c:2168:64
	vdiv.f32	s0, s0, s2
	.loc	5 2168 5                        @ libraries/STM32H7xx_HAL/STM32H7xx_HAL_Driver/Src/stm32h7xx_hal_rcc_ex.c:2168:5
	ldr	r1, [sp, #28]
	.loc	5 2168 35                       @ libraries/STM32H7xx_HAL/STM32H7xx_HAL_Driver/Src/stm32h7xx_hal_rcc_ex.c:2168:35
	vcvt.u32.f32	s0, s0
	vstr	s0, [r1]
	.loc	5 2169 57 is_stmt 1             @ libraries/STM32H7xx_HAL/STM32H7xx_HAL_Driver/Src/stm32h7xx_hal_rcc_ex.c:2169:57
	vldr	s0, [sp, #4]
	.loc	5 2169 92 is_stmt 0             @ libraries/STM32H7xx_HAL/STM32H7xx_HAL_Driver/Src/stm32h7xx_hal_rcc_ex.c:2169:92
	ldr	r1, [r0]
	.loc	5 2169 120                      @ libraries/STM32H7xx_HAL/STM32H7xx_HAL_Driver/Src/stm32h7xx_hal_rcc_ex.c:2169:120
	ubfx	r1, r1, #16, #7
	.loc	5 2169 66                       @ libraries/STM32H7xx_HAL/STM32H7xx_HAL_Driver/Src/stm32h7xx_hal_rcc_ex.c:2169:66
	vmov	s2, r1
	vcvt.f32.u32	s2, s2
	.loc	5 2169 126                      @ libraries/STM32H7xx_HAL/STM32H7xx_HAL_Driver/Src/stm32h7xx_hal_rcc_ex.c:2169:126
	vadd.f32	s2, s2, s4
	.loc	5 2169 64                       @ libraries/STM32H7xx_HAL/STM32H7xx_HAL_Driver/Src/stm32h7xx_hal_rcc_ex.c:2169:64
	vdiv.f32	s0, s0, s2
	.loc	5 2169 5                        @ libraries/STM32H7xx_HAL/STM32H7xx_HAL_Driver/Src/stm32h7xx_hal_rcc_ex.c:2169:5
	ldr	r1, [sp, #28]
	.loc	5 2169 35                       @ libraries/STM32H7xx_HAL/STM32H7xx_HAL_Driver/Src/stm32h7xx_hal_rcc_ex.c:2169:35
	vcvt.u32.f32	s0, s0
	vstr	s0, [r1, #4]
	.loc	5 2170 57 is_stmt 1             @ libraries/STM32H7xx_HAL/STM32H7xx_HAL_Driver/Src/stm32h7xx_hal_rcc_ex.c:2170:57
	vldr	s0, [sp, #4]
	.loc	5 2170 92 is_stmt 0             @ libraries/STM32H7xx_HAL/STM32H7xx_HAL_Driver/Src/stm32h7xx_hal_rcc_ex.c:2170:92
	ldr	r0, [r0]
	.loc	5 2170 120                      @ libraries/STM32H7xx_HAL/STM32H7xx_HAL_Driver/Src/stm32h7xx_hal_rcc_ex.c:2170:120
	ubfx	r0, r0, #24, #7
	.loc	5 2170 66                       @ libraries/STM32H7xx_HAL/STM32H7xx_HAL_Driver/Src/stm32h7xx_hal_rcc_ex.c:2170:66
	vmov	s2, r0
	vcvt.f32.u32	s2, s2
	.loc	5 2170 126                      @ libraries/STM32H7xx_HAL/STM32H7xx_HAL_Driver/Src/stm32h7xx_hal_rcc_ex.c:2170:126
	vadd.f32	s2, s2, s4
	.loc	5 2170 64                       @ libraries/STM32H7xx_HAL/STM32H7xx_HAL_Driver/Src/stm32h7xx_hal_rcc_ex.c:2170:64
	vdiv.f32	s0, s0, s2
	.loc	5 2170 5                        @ libraries/STM32H7xx_HAL/STM32H7xx_HAL_Driver/Src/stm32h7xx_hal_rcc_ex.c:2170:5
	ldr	r0, [sp, #28]
	.loc	5 2170 35                       @ libraries/STM32H7xx_HAL/STM32H7xx_HAL_Driver/Src/stm32h7xx_hal_rcc_ex.c:2170:35
	vcvt.u32.f32	s0, s0
	vstr	s0, [r0, #8]
	.loc	5 2171 3 is_stmt 1              @ libraries/STM32H7xx_HAL/STM32H7xx_HAL_Driver/Src/stm32h7xx_hal_rcc_ex.c:2171:3
	b	.LBB5_13
.Ltmp510:
.LBB5_12:
	.loc	5 2174 5                        @ libraries/STM32H7xx_HAL/STM32H7xx_HAL_Driver/Src/stm32h7xx_hal_rcc_ex.c:2174:5
	ldr	r1, [sp, #28]
	movs	r0, #0
	.loc	5 2174 35 is_stmt 0             @ libraries/STM32H7xx_HAL/STM32H7xx_HAL_Driver/Src/stm32h7xx_hal_rcc_ex.c:2174:35
	str	r0, [r1]
	.loc	5 2175 5 is_stmt 1              @ libraries/STM32H7xx_HAL/STM32H7xx_HAL_Driver/Src/stm32h7xx_hal_rcc_ex.c:2175:5
	ldr	r1, [sp, #28]
	.loc	5 2175 35 is_stmt 0             @ libraries/STM32H7xx_HAL/STM32H7xx_HAL_Driver/Src/stm32h7xx_hal_rcc_ex.c:2175:35
	str	r0, [r1, #4]
	.loc	5 2176 5 is_stmt 1              @ libraries/STM32H7xx_HAL/STM32H7xx_HAL_Driver/Src/stm32h7xx_hal_rcc_ex.c:2176:5
	ldr	r1, [sp, #28]
	.loc	5 2176 35 is_stmt 0             @ libraries/STM32H7xx_HAL/STM32H7xx_HAL_Driver/Src/stm32h7xx_hal_rcc_ex.c:2176:35
	str	r0, [r1, #8]
	b	.LBB5_13
.Ltmp511:
.LBB5_13:
	.loc	5 2179 1 is_stmt 1              @ libraries/STM32H7xx_HAL/STM32H7xx_HAL_Driver/Src/stm32h7xx_hal_rcc_ex.c:2179:1
	add	sp, #32
	bx	lr
.Ltmp512:
	.p2align	2
@ %bb.14:
	.loc	5 0 1 is_stmt 0                 @ libraries/STM32H7xx_HAL/STM32H7xx_HAL_Driver/Src/stm32h7xx_hal_rcc_ex.c:0:1
.LCPI5_0:
	.long	0x4bbebc20                      @ float 2.5E+7
.LCPI5_1:
	.long	0x46000000                      @ float 8192
.LCPI5_2:
	.long	0x4a742400                      @ float 4.0E+6
.LCPI5_3:
	.long	0x4c742400                      @ float 6.4E+7
.Lfunc_end5:
	.size	HAL_RCCEx_GetPLL1ClockFreq, .Lfunc_end5-HAL_RCCEx_GetPLL1ClockFreq
	.cfi_endproc
	.cantunwind
	.fnend
                                        @ -- End function
	.section	.text.HAL_RCCEx_GetPLL2ClockFreq,"ax",%progbits
	.hidden	HAL_RCCEx_GetPLL2ClockFreq      @ -- Begin function HAL_RCCEx_GetPLL2ClockFreq
	.globl	HAL_RCCEx_GetPLL2ClockFreq
	.p2align	3
	.type	HAL_RCCEx_GetPLL2ClockFreq,%function
	.code	16                              @ @HAL_RCCEx_GetPLL2ClockFreq
	.thumb_func
HAL_RCCEx_GetPLL2ClockFreq:
.Lfunc_begin6:
	.loc	5 1992 0 is_stmt 1              @ libraries/STM32H7xx_HAL/STM32H7xx_HAL_Driver/Src/stm32h7xx_hal_rcc_ex.c:1992:0
	.fnstart
	.cfi_startproc
@ %bb.0:
	.pad	#32
	sub	sp, #32
	.cfi_def_cfa_offset 32
	str	r0, [sp, #28]
	movw	r0, #17448
	movt	r0, #22530
.Ltmp513:
	.loc	5 1999 21 prologue_end          @ libraries/STM32H7xx_HAL/STM32H7xx_HAL_Driver/Src/stm32h7xx_hal_rcc_ex.c:1999:21
	ldr	r1, [r0]
	.loc	5 1999 31 is_stmt 0             @ libraries/STM32H7xx_HAL/STM32H7xx_HAL_Driver/Src/stm32h7xx_hal_rcc_ex.c:1999:31
	and	r1, r1, #3
	.loc	5 1999 13                       @ libraries/STM32H7xx_HAL/STM32H7xx_HAL_Driver/Src/stm32h7xx_hal_rcc_ex.c:1999:13
	str	r1, [sp, #24]
	.loc	5 2000 18 is_stmt 1             @ libraries/STM32H7xx_HAL/STM32H7xx_HAL_Driver/Src/stm32h7xx_hal_rcc_ex.c:2000:18
	ldr	r0, [r0]
	.loc	5 2000 50 is_stmt 0             @ libraries/STM32H7xx_HAL/STM32H7xx_HAL_Driver/Src/stm32h7xx_hal_rcc_ex.c:2000:50
	ubfx	r0, r0, #12, #6
	.loc	5 2000 9                        @ libraries/STM32H7xx_HAL/STM32H7xx_HAL_Driver/Src/stm32h7xx_hal_rcc_ex.c:2000:9
	str	r0, [sp, #20]
	movw	r0, #17452
	movt	r0, #22530
	.loc	5 2001 21 is_stmt 1             @ libraries/STM32H7xx_HAL/STM32H7xx_HAL_Driver/Src/stm32h7xx_hal_rcc_ex.c:2001:21
	ldr	r0, [r0]
	.loc	5 2001 29 is_stmt 0             @ libraries/STM32H7xx_HAL/STM32H7xx_HAL_Driver/Src/stm32h7xx_hal_rcc_ex.c:2001:29
	and	r0, r0, #16
	.loc	5 2001 14                       @ libraries/STM32H7xx_HAL/STM32H7xx_HAL_Driver/Src/stm32h7xx_hal_rcc_ex.c:2001:14
	str	r0, [sp, #16]
	.loc	5 2002 31 is_stmt 1             @ libraries/STM32H7xx_HAL/STM32H7xx_HAL_Driver/Src/stm32h7xx_hal_rcc_ex.c:2002:31
	ldr	r0, [sp, #16]
	movw	r1, #17468
	movt	r1, #22530
	.loc	5 2002 50 is_stmt 0             @ libraries/STM32H7xx_HAL/STM32H7xx_HAL_Driver/Src/stm32h7xx_hal_rcc_ex.c:2002:50
	ldr	r1, [r1]
	.loc	5 2002 60                       @ libraries/STM32H7xx_HAL/STM32H7xx_HAL_Driver/Src/stm32h7xx_hal_rcc_ex.c:2002:60
	uxth	r1, r1
	.loc	5 2002 83                       @ libraries/STM32H7xx_HAL/STM32H7xx_HAL_Driver/Src/stm32h7xx_hal_rcc_ex.c:2002:83
	lsrs	r1, r1, #3
	.loc	5 2002 41                       @ libraries/STM32H7xx_HAL/STM32H7xx_HAL_Driver/Src/stm32h7xx_hal_rcc_ex.c:2002:41
	muls	r0, r1, r0
