	.text
	.syntax unified
	.eabi_attribute	67, "2.09"	@ Tag_conformance
	.cpu	cortex-m7
	.eabi_attribute	6, 13	@ Tag_CPU_arch
	.eabi_attribute	7, 77	@ Tag_CPU_arch_profile
	.eabi_attribute	8, 0	@ Tag_ARM_ISA_use
	.eabi_attribute	9, 2	@ Tag_THUMB_ISA_use
	.fpu	fpv5-d16
	.eabi_attribute	36, 1	@ Tag_FP_HP_extension
	.eabi_attribute	34, 1	@ Tag_CPU_unaligned_access
	.eabi_attribute	17, 1	@ Tag_ABI_PCS_GOT_use
	.eabi_attribute	20, 2	@ Tag_ABI_FP_denormal
	.eabi_attribute	21, 0	@ Tag_ABI_FP_exceptions
	.eabi_attribute	23, 1	@ Tag_ABI_FP_number_model
	.eabi_attribute	24, 1	@ Tag_ABI_align_needed
	.eabi_attribute	25, 1	@ Tag_ABI_align_preserved
	.eabi_attribute	28, 1	@ Tag_ABI_VFP_args
	.eabi_attribute	38, 1	@ Tag_ABI_FP_16bit_format
	.eabi_attribute	18, 2	@ Tag_ABI_PCS_wchar_t
	.eabi_attribute	26, 1	@ Tag_ABI_enum_size
	.eabi_attribute	14, 0	@ Tag_ABI_PCS_R9_use
	.file	"stm32h7xx_hal_dcmi.c"
	.file	1 "E:\\STM32\\Learning\\STM32H750_ART_PI_RGBLCD" "libraries/STM32H7xx_HAL/STM32H7xx_HAL_Driver/Inc/stm32h7xx_hal_def.h"
	.file	2 "E:\\STM32\\Learning\\STM32H750_ART_PI_RGBLCD" "libraries/STM32H7xx_HAL/STM32H7xx_HAL_Driver/Inc\\stm32h7xx_hal_dcmi.h"
	.file	3 "E:\\STM32\\Learning\\STM32H750_ART_PI_RGBLCD" "libraries/STM32H7xx_HAL/STM32H7xx_HAL_Driver/Inc\\stm32h7xx_hal_dma.h"
	.file	4 "E:\\STM32\\Learning\\STM32H750_ART_PI_RGBLCD" "libraries/STM32H7xx_HAL/STM32H7xx_HAL_Driver/Inc/stm32h7xx_hal_dma_ex.h"
	.file	5 "D:\\Keil_v5\\ARM\\ARMCLANG\\Bin\\..\\include" "stdint.h"
	.file	6 "E:\\STM32\\Learning\\STM32H750_ART_PI_RGBLCD" "libraries/STM32H7xx_HAL/CMSIS/Device/ST/STM32H7xx/Include/stm32h750xx.h"
	.section	.text.HAL_DCMI_Init,"ax",%progbits
	.hidden	HAL_DCMI_Init                   @ -- Begin function HAL_DCMI_Init
	.globl	HAL_DCMI_Init
	.p2align	3
	.type	HAL_DCMI_Init,%function
	.code	16                              @ @HAL_DCMI_Init
	.thumb_func
HAL_DCMI_Init:
.Lfunc_begin0:
	.file	7 "E:\\STM32\\Learning\\STM32H750_ART_PI_RGBLCD" "libraries/STM32H7xx_HAL/STM32H7xx_HAL_Driver/Src/stm32h7xx_hal_dcmi.c"
	.loc	7 174 0                         @ libraries/STM32H7xx_HAL/STM32H7xx_HAL_Driver/Src/stm32h7xx_hal_dcmi.c:174:0
	.fnstart
	.cfi_sections .debug_frame
	.cfi_startproc
@ %bb.0:
	.save	{r7, lr}
	push	{r7, lr}
	.cfi_def_cfa_offset 8
	.cfi_offset lr, -4
	.cfi_offset r7, -8
	.pad	#16
	sub	sp, #16
	.cfi_def_cfa_offset 24
	str	r0, [sp, #8]
.Ltmp0:
	.loc	7 176 6 prologue_end            @ libraries/STM32H7xx_HAL/STM32H7xx_HAL_Driver/Src/stm32h7xx_hal_dcmi.c:176:6
	ldr	r0, [sp, #8]
.Ltmp1:
	.loc	7 176 6 is_stmt 0               @ libraries/STM32H7xx_HAL/STM32H7xx_HAL_Driver/Src/stm32h7xx_hal_dcmi.c:176:6
	cbnz	r0, .LBB0_2
	b	.LBB0_1
.LBB0_1:
	.loc	7 0 6                           @ libraries/STM32H7xx_HAL/STM32H7xx_HAL_Driver/Src/stm32h7xx_hal_dcmi.c:0:6
	movs	r0, #1
.Ltmp2:
	.loc	7 178 6 is_stmt 1               @ libraries/STM32H7xx_HAL/STM32H7xx_HAL_Driver/Src/stm32h7xx_hal_dcmi.c:178:6
	strb.w	r0, [sp, #15]
	b	.LBB0_7
.Ltmp3:
.LBB0_2:
	.loc	7 214 6                         @ libraries/STM32H7xx_HAL/STM32H7xx_HAL_Driver/Src/stm32h7xx_hal_dcmi.c:214:6
	ldr	r0, [sp, #8]
	.loc	7 214 13 is_stmt 0              @ libraries/STM32H7xx_HAL/STM32H7xx_HAL_Driver/Src/stm32h7xx_hal_dcmi.c:214:13
	ldrb.w	r0, [r0, #53]
.Ltmp4:
	.loc	7 214 6                         @ libraries/STM32H7xx_HAL/STM32H7xx_HAL_Driver/Src/stm32h7xx_hal_dcmi.c:214:6
	cbnz	r0, .LBB0_4
	b	.LBB0_3
.LBB0_3:
.Ltmp5:
	.loc	7 217 22 is_stmt 1              @ libraries/STM32H7xx_HAL/STM32H7xx_HAL_Driver/Src/stm32h7xx_hal_dcmi.c:217:22
	ldr	r0, [sp, #8]
	.loc	7 217 5 is_stmt 0               @ libraries/STM32H7xx_HAL/STM32H7xx_HAL_Driver/Src/stm32h7xx_hal_dcmi.c:217:5
	bl	HAL_DCMI_MspInit
	.loc	7 218 3 is_stmt 1               @ libraries/STM32H7xx_HAL/STM32H7xx_HAL_Driver/Src/stm32h7xx_hal_dcmi.c:218:3
	b	.LBB0_4
.Ltmp6:
.LBB0_4:
	.loc	7 222 3                         @ libraries/STM32H7xx_HAL/STM32H7xx_HAL_Driver/Src/stm32h7xx_hal_dcmi.c:222:3
	ldr	r1, [sp, #8]
	movs	r0, #2
	.loc	7 222 16 is_stmt 0              @ libraries/STM32H7xx_HAL/STM32H7xx_HAL_Driver/Src/stm32h7xx_hal_dcmi.c:222:16
	strb.w	r0, [r1, #53]
	.loc	7 224 3 is_stmt 1               @ libraries/STM32H7xx_HAL/STM32H7xx_HAL_Driver/Src/stm32h7xx_hal_dcmi.c:224:3
	ldr	r0, [sp, #8]
	.loc	7 224 10 is_stmt 0              @ libraries/STM32H7xx_HAL/STM32H7xx_HAL_Driver/Src/stm32h7xx_hal_dcmi.c:224:10
	ldr	r1, [r0]
	.loc	7 224 23                        @ libraries/STM32H7xx_HAL/STM32H7xx_HAL_Driver/Src/stm32h7xx_hal_dcmi.c:224:23
	ldr	r0, [r1]
	movw	r2, #61447
	movt	r2, #65504
	ands	r0, r2
	str	r0, [r1]
	.loc	7 229 38 is_stmt 1              @ libraries/STM32H7xx_HAL/STM32H7xx_HAL_Driver/Src/stm32h7xx_hal_dcmi.c:229:38
	ldr	r2, [sp, #8]
	.loc	7 229 76 is_stmt 0              @ libraries/STM32H7xx_HAL/STM32H7xx_HAL_Driver/Src/stm32h7xx_hal_dcmi.c:229:76
	str	r2, [sp, #4]                    @ 4-byte Spill
	ldr.w	lr, [r2, #20]
	.loc	7 229 10                        @ libraries/STM32H7xx_HAL/STM32H7xx_HAL_Driver/Src/stm32h7xx_hal_dcmi.c:229:10
	ldr	r1, [r2]
	.loc	7 229 50                        @ libraries/STM32H7xx_HAL/STM32H7xx_HAL_Driver/Src/stm32h7xx_hal_dcmi.c:229:50
	ldr	r0, [r2, #4]
	.loc	7 231 50 is_stmt 1              @ libraries/STM32H7xx_HAL/STM32H7xx_HAL_Driver/Src/stm32h7xx_hal_dcmi.c:231:50
	ldr	r3, [r2, #8]
	.loc	7 230 50                        @ libraries/STM32H7xx_HAL/STM32H7xx_HAL_Driver/Src/stm32h7xx_hal_dcmi.c:230:50
	ldr.w	r12, [r2, #12]
	.loc	7 229 62                        @ libraries/STM32H7xx_HAL/STM32H7xx_HAL_Driver/Src/stm32h7xx_hal_dcmi.c:229:62
	orr.w	r0, r0, lr
	.loc	7 229 88 is_stmt 0              @ libraries/STM32H7xx_HAL/STM32H7xx_HAL_Driver/Src/stm32h7xx_hal_dcmi.c:229:88
	orr.w	r0, r0, r12
	.loc	7 230 76 is_stmt 1              @ libraries/STM32H7xx_HAL/STM32H7xx_HAL_Driver/Src/stm32h7xx_hal_dcmi.c:230:76
	ldr.w	r12, [r2, #16]
	.loc	7 230 62 is_stmt 0              @ libraries/STM32H7xx_HAL/STM32H7xx_HAL_Driver/Src/stm32h7xx_hal_dcmi.c:230:62
	orr.w	r0, r0, r12
	.loc	7 230 88                        @ libraries/STM32H7xx_HAL/STM32H7xx_HAL_Driver/Src/stm32h7xx_hal_dcmi.c:230:88
	orrs	r0, r3
	.loc	7 231 76 is_stmt 1              @ libraries/STM32H7xx_HAL/STM32H7xx_HAL_Driver/Src/stm32h7xx_hal_dcmi.c:231:76
	ldr	r3, [r2, #24]
	.loc	7 231 62 is_stmt 0              @ libraries/STM32H7xx_HAL/STM32H7xx_HAL_Driver/Src/stm32h7xx_hal_dcmi.c:231:62
	orrs	r0, r3
	.loc	7 232 50 is_stmt 1              @ libraries/STM32H7xx_HAL/STM32H7xx_HAL_Driver/Src/stm32h7xx_hal_dcmi.c:232:50
	ldr	r3, [r2, #32]
	.loc	7 231 93                        @ libraries/STM32H7xx_HAL/STM32H7xx_HAL_Driver/Src/stm32h7xx_hal_dcmi.c:231:93
	orrs	r0, r3
	.loc	7 232 73                        @ libraries/STM32H7xx_HAL/STM32H7xx_HAL_Driver/Src/stm32h7xx_hal_dcmi.c:232:73
	ldr	r3, [r2, #36]
	.loc	7 232 59 is_stmt 0              @ libraries/STM32H7xx_HAL/STM32H7xx_HAL_Driver/Src/stm32h7xx_hal_dcmi.c:232:59
	orrs	r0, r3
	.loc	7 233 50 is_stmt 1              @ libraries/STM32H7xx_HAL/STM32H7xx_HAL_Driver/Src/stm32h7xx_hal_dcmi.c:233:50
	ldr	r3, [r2, #40]
	.loc	7 232 88                        @ libraries/STM32H7xx_HAL/STM32H7xx_HAL_Driver/Src/stm32h7xx_hal_dcmi.c:232:88
	orrs	r0, r3
	.loc	7 233 80                        @ libraries/STM32H7xx_HAL/STM32H7xx_HAL_Driver/Src/stm32h7xx_hal_dcmi.c:233:80
	ldr	r3, [r2, #44]
	.loc	7 233 66 is_stmt 0              @ libraries/STM32H7xx_HAL/STM32H7xx_HAL_Driver/Src/stm32h7xx_hal_dcmi.c:233:66
	orrs	r0, r3
	.loc	7 234 50 is_stmt 1              @ libraries/STM32H7xx_HAL/STM32H7xx_HAL_Driver/Src/stm32h7xx_hal_dcmi.c:234:50
	ldr	r2, [r2, #48]
	.loc	7 233 95                        @ libraries/STM32H7xx_HAL/STM32H7xx_HAL_Driver/Src/stm32h7xx_hal_dcmi.c:233:95
	orrs	r2, r0
	.loc	7 229 23                        @ libraries/STM32H7xx_HAL/STM32H7xx_HAL_Driver/Src/stm32h7xx_hal_dcmi.c:229:23
	ldr	r0, [r1]
	orrs	r0, r2
	str	r0, [r1]
.Ltmp7:
	.loc	7 236 6                         @ libraries/STM32H7xx_HAL/STM32H7xx_HAL_Driver/Src/stm32h7xx_hal_dcmi.c:236:6
	ldr	r0, [sp, #8]
	.loc	7 236 18 is_stmt 0              @ libraries/STM32H7xx_HAL/STM32H7xx_HAL_Driver/Src/stm32h7xx_hal_dcmi.c:236:18
	ldr	r0, [r0, #4]
.Ltmp8:
	.loc	7 236 6                         @ libraries/STM32H7xx_HAL/STM32H7xx_HAL_Driver/Src/stm32h7xx_hal_dcmi.c:236:6
	cmp	r0, #16
	bne	.LBB0_6
	b	.LBB0_5
.LBB0_5:
.Ltmp9:
	.loc	7 238 41 is_stmt 1              @ libraries/STM32H7xx_HAL/STM32H7xx_HAL_Driver/Src/stm32h7xx_hal_dcmi.c:238:41
	ldr	r0, [sp, #8]
	.loc	7 238 12 is_stmt 0              @ libraries/STM32H7xx_HAL/STM32H7xx_HAL_Driver/Src/stm32h7xx_hal_dcmi.c:238:12
	ldr	r1, [r0]
	.loc	7 240 98 is_stmt 1              @ libraries/STM32H7xx_HAL/STM32H7xx_HAL_Driver/Src/stm32h7xx_hal_dcmi.c:240:98
	ldr	r0, [r0, #28]
	.loc	7 238 27                        @ libraries/STM32H7xx_HAL/STM32H7xx_HAL_Driver/Src/stm32h7xx_hal_dcmi.c:238:27
	str	r0, [r1, #24]
	.loc	7 243 3                         @ libraries/STM32H7xx_HAL/STM32H7xx_HAL_Driver/Src/stm32h7xx_hal_dcmi.c:243:3
	b	.LBB0_6
.Ltmp10:
.LBB0_6:
	.loc	7 246 3                         @ libraries/STM32H7xx_HAL/STM32H7xx_HAL_Driver/Src/stm32h7xx_hal_dcmi.c:246:3
	ldr	r0, [sp, #8]
	ldr	r1, [r0]
	ldr	r0, [r1, #12]
	orr	r0, r0, #30
	str	r0, [r1, #12]
	.loc	7 249 3                         @ libraries/STM32H7xx_HAL/STM32H7xx_HAL_Driver/Src/stm32h7xx_hal_dcmi.c:249:3
	ldr	r1, [sp, #8]
	movs	r0, #0
	.loc	7 249 20 is_stmt 0              @ libraries/STM32H7xx_HAL/STM32H7xx_HAL_Driver/Src/stm32h7xx_hal_dcmi.c:249:20
	str	r0, [r1, #76]
	.loc	7 252 3 is_stmt 1               @ libraries/STM32H7xx_HAL/STM32H7xx_HAL_Driver/Src/stm32h7xx_hal_dcmi.c:252:3
	ldr	r2, [sp, #8]
	movs	r1, #1
	.loc	7 252 17 is_stmt 0              @ libraries/STM32H7xx_HAL/STM32H7xx_HAL_Driver/Src/stm32h7xx_hal_dcmi.c:252:17
	strb.w	r1, [r2, #53]
	.loc	7 254 3 is_stmt 1               @ libraries/STM32H7xx_HAL/STM32H7xx_HAL_Driver/Src/stm32h7xx_hal_dcmi.c:254:3
	strb.w	r0, [sp, #15]
	b	.LBB0_7
.LBB0_7:
	.loc	7 255 1                         @ libraries/STM32H7xx_HAL/STM32H7xx_HAL_Driver/Src/stm32h7xx_hal_dcmi.c:255:1
	ldrb.w	r0, [sp, #15]
	add	sp, #16
	pop	{r7, pc}
.Ltmp11:
.Lfunc_end0:
	.size	HAL_DCMI_Init, .Lfunc_end0-HAL_DCMI_Init
	.cfi_endproc
	.cantunwind
	.fnend
                                        @ -- End function
	.section	.text.HAL_DCMI_MspInit,"ax",%progbits
	.hidden	HAL_DCMI_MspInit                @ -- Begin function HAL_DCMI_MspInit
	.weak	HAL_DCMI_MspInit
	.p2align	3
	.type	HAL_DCMI_MspInit,%function
	.code	16                              @ @HAL_DCMI_MspInit
	.thumb_func
HAL_DCMI_MspInit:
.Lfunc_begin1:
	.loc	7 487 0                         @ libraries/STM32H7xx_HAL/STM32H7xx_HAL_Driver/Src/stm32h7xx_hal_dcmi.c:487:0
	.fnstart
	.cfi_startproc
@ %bb.0:
	.pad	#4
	sub	sp, #4
	.cfi_def_cfa_offset 4
	str	r0, [sp]
.Ltmp12:
	.loc	7 494 1 prologue_end            @ libraries/STM32H7xx_HAL/STM32H7xx_HAL_Driver/Src/stm32h7xx_hal_dcmi.c:494:1
	add	sp, #4
	bx	lr
.Ltmp13:
.Lfunc_end1:
	.size	HAL_DCMI_MspInit, .Lfunc_end1-HAL_DCMI_MspInit
	.cfi_endproc
	.cantunwind
	.fnend
                                        @ -- End function
	.section	.text.HAL_DCMI_DeInit,"ax",%progbits
	.hidden	HAL_DCMI_DeInit                 @ -- Begin function HAL_DCMI_DeInit
	.globl	HAL_DCMI_DeInit
	.p2align	3
	.type	HAL_DCMI_DeInit,%function
	.code	16                              @ @HAL_DCMI_DeInit
	.thumb_func
HAL_DCMI_DeInit:
.Lfunc_begin2:
	.loc	7 266 0                         @ libraries/STM32H7xx_HAL/STM32H7xx_HAL_Driver/Src/stm32h7xx_hal_dcmi.c:266:0
	.fnstart
	.cfi_startproc
@ %bb.0:
	.save	{r7, lr}
	push	{r7, lr}
	.cfi_def_cfa_offset 8
	.cfi_offset lr, -4
	.cfi_offset r7, -8
	.pad	#8
	sub	sp, #8
	.cfi_def_cfa_offset 16
	str	r0, [sp, #4]
.Ltmp14:
	.loc	7 277 22 prologue_end           @ libraries/STM32H7xx_HAL/STM32H7xx_HAL_Driver/Src/stm32h7xx_hal_dcmi.c:277:22
	ldr	r0, [sp, #4]
	.loc	7 277 3 is_stmt 0               @ libraries/STM32H7xx_HAL/STM32H7xx_HAL_Driver/Src/stm32h7xx_hal_dcmi.c:277:3
	bl	HAL_DCMI_MspDeInit
	.loc	7 281 3 is_stmt 1               @ libraries/STM32H7xx_HAL/STM32H7xx_HAL_Driver/Src/stm32h7xx_hal_dcmi.c:281:3
	ldr	r1, [sp, #4]
	movs	r0, #0
	.loc	7 281 20 is_stmt 0              @ libraries/STM32H7xx_HAL/STM32H7xx_HAL_Driver/Src/stm32h7xx_hal_dcmi.c:281:20
	str	r0, [r1, #76]
	.loc	7 284 3 is_stmt 1               @ libraries/STM32H7xx_HAL/STM32H7xx_HAL_Driver/Src/stm32h7xx_hal_dcmi.c:284:3
	ldr	r1, [sp, #4]
	.loc	7 284 16 is_stmt 0              @ libraries/STM32H7xx_HAL/STM32H7xx_HAL_Driver/Src/stm32h7xx_hal_dcmi.c:284:16
	strb.w	r0, [r1, #53]
	.loc	7 287 3 is_stmt 1               @ libraries/STM32H7xx_HAL/STM32H7xx_HAL_Driver/Src/stm32h7xx_hal_dcmi.c:287:3
	b	.LBB2_1
.LBB2_1:
.Ltmp15:
	.loc	7 287 3 is_stmt 0               @ libraries/STM32H7xx_HAL/STM32H7xx_HAL_Driver/Src/stm32h7xx_hal_dcmi.c:287:3
	ldr	r1, [sp, #4]
	movs	r0, #0
	strb.w	r0, [r1, #52]
	b	.LBB2_2
.Ltmp16:
.LBB2_2:
	.loc	7 0 3                           @ libraries/STM32H7xx_HAL/STM32H7xx_HAL_Driver/Src/stm32h7xx_hal_dcmi.c:0:3
	movs	r0, #0
	.loc	7 289 3 is_stmt 1               @ libraries/STM32H7xx_HAL/STM32H7xx_HAL_Driver/Src/stm32h7xx_hal_dcmi.c:289:3
	add	sp, #8
	pop	{r7, pc}
.Ltmp17:
.Lfunc_end2:
	.size	HAL_DCMI_DeInit, .Lfunc_end2-HAL_DCMI_DeInit
	.cfi_endproc
	.cantunwind
	.fnend
                                        @ -- End function
	.section	.text.HAL_DCMI_MspDeInit,"ax",%progbits
	.hidden	HAL_DCMI_MspDeInit              @ -- Begin function HAL_DCMI_MspDeInit
	.weak	HAL_DCMI_MspDeInit
	.p2align	3
	.type	HAL_DCMI_MspDeInit,%function
	.code	16                              @ @HAL_DCMI_MspDeInit
	.thumb_func
HAL_DCMI_MspDeInit:
.Lfunc_begin3:
	.loc	7 503 0                         @ libraries/STM32H7xx_HAL/STM32H7xx_HAL_Driver/Src/stm32h7xx_hal_dcmi.c:503:0
	.fnstart
	.cfi_startproc
@ %bb.0:
	.pad	#4
	sub	sp, #4
	.cfi_def_cfa_offset 4
	str	r0, [sp]
.Ltmp18:
	.loc	7 510 1 prologue_end            @ libraries/STM32H7xx_HAL/STM32H7xx_HAL_Driver/Src/stm32h7xx_hal_dcmi.c:510:1
	add	sp, #4
	bx	lr
.Ltmp19:
.Lfunc_end3:
	.size	HAL_DCMI_MspDeInit, .Lfunc_end3-HAL_DCMI_MspDeInit
	.cfi_endproc
	.cantunwind
	.fnend
                                        @ -- End function
	.section	.text.HAL_DCMI_Start_DMA,"ax",%progbits
	.hidden	HAL_DCMI_Start_DMA              @ -- Begin function HAL_DCMI_Start_DMA
	.globl	HAL_DCMI_Start_DMA
	.p2align	3
	.type	HAL_DCMI_Start_DMA,%function
	.code	16                              @ @HAL_DCMI_Start_DMA
	.thumb_func
HAL_DCMI_Start_DMA:
.Lfunc_begin4:
	.loc	7 542 0                         @ libraries/STM32H7xx_HAL/STM32H7xx_HAL_Driver/Src/stm32h7xx_hal_dcmi.c:542:0
	.fnstart
	.cfi_startproc
@ %bb.0:
	.save	{r7, lr}
	push	{r7, lr}
	.cfi_def_cfa_offset 8
	.cfi_offset lr, -4
	.cfi_offset r7, -8
	.pad	#32
	sub	sp, #32
	.cfi_def_cfa_offset 40
	str	r0, [sp, #24]
	str	r1, [sp, #20]
	str	r2, [sp, #16]
	str	r3, [sp, #12]
.Ltmp20:
	.loc	7 550 3 prologue_end            @ libraries/STM32H7xx_HAL/STM32H7xx_HAL_Driver/Src/stm32h7xx_hal_dcmi.c:550:3
	b	.LBB4_1
.LBB4_1:
.Ltmp21:
	.loc	7 550 3 is_stmt 0               @ libraries/STM32H7xx_HAL/STM32H7xx_HAL_Driver/Src/stm32h7xx_hal_dcmi.c:550:3
	ldr	r0, [sp, #24]
	ldrb.w	r0, [r0, #52]
.Ltmp22:
	.loc	7 550 3                         @ libraries/STM32H7xx_HAL/STM32H7xx_HAL_Driver/Src/stm32h7xx_hal_dcmi.c:550:3
	cmp	r0, #1
	bne	.LBB4_3
	b	.LBB4_2
.LBB4_2:
	.loc	7 0 3                           @ libraries/STM32H7xx_HAL/STM32H7xx_HAL_Driver/Src/stm32h7xx_hal_dcmi.c:0:3
	movs	r0, #2
.Ltmp23:
	.loc	7 550 3                         @ libraries/STM32H7xx_HAL/STM32H7xx_HAL_Driver/Src/stm32h7xx_hal_dcmi.c:550:3
	strb.w	r0, [sp, #31]
	b	.LBB4_22
.Ltmp24:
.LBB4_3:
	.loc	7 550 3                         @ libraries/STM32H7xx_HAL/STM32H7xx_HAL_Driver/Src/stm32h7xx_hal_dcmi.c:550:3
	ldr	r1, [sp, #24]
	movs	r0, #1
	strb.w	r0, [r1, #52]
	b	.LBB4_4
.Ltmp25:
.LBB4_4:
	.loc	7 550 3                         @ libraries/STM32H7xx_HAL/STM32H7xx_HAL_Driver/Src/stm32h7xx_hal_dcmi.c:550:3
	b	.LBB4_5
.Ltmp26:
.LBB4_5:
	.loc	7 553 3 is_stmt 1               @ libraries/STM32H7xx_HAL/STM32H7xx_HAL_Driver/Src/stm32h7xx_hal_dcmi.c:553:3
	ldr	r1, [sp, #24]
	movs	r0, #2
	.loc	7 553 16 is_stmt 0              @ libraries/STM32H7xx_HAL/STM32H7xx_HAL_Driver/Src/stm32h7xx_hal_dcmi.c:553:16
	strb.w	r0, [r1, #53]
	.loc	7 556 3 is_stmt 1               @ libraries/STM32H7xx_HAL/STM32H7xx_HAL_Driver/Src/stm32h7xx_hal_dcmi.c:556:3
	ldr	r0, [sp, #24]
	ldr	r1, [r0]
	ldr	r0, [r1]
	orr	r0, r0, #16384
	str	r0, [r1]
	.loc	7 559 3                         @ libraries/STM32H7xx_HAL/STM32H7xx_HAL_Driver/Src/stm32h7xx_hal_dcmi.c:559:3
	ldr	r0, [sp, #24]
	.loc	7 559 10 is_stmt 0              @ libraries/STM32H7xx_HAL/STM32H7xx_HAL_Driver/Src/stm32h7xx_hal_dcmi.c:559:10
	ldr	r1, [r0]
	.loc	7 559 23                        @ libraries/STM32H7xx_HAL/STM32H7xx_HAL_Driver/Src/stm32h7xx_hal_dcmi.c:559:23
	ldr	r0, [r1]
	bic	r0, r0, #2
	str	r0, [r1]
	.loc	7 560 38 is_stmt 1              @ libraries/STM32H7xx_HAL/STM32H7xx_HAL_Driver/Src/stm32h7xx_hal_dcmi.c:560:38
	ldr	r2, [sp, #20]
	.loc	7 560 3 is_stmt 0               @ libraries/STM32H7xx_HAL/STM32H7xx_HAL_Driver/Src/stm32h7xx_hal_dcmi.c:560:3
	ldr	r0, [sp, #24]
	.loc	7 560 10                        @ libraries/STM32H7xx_HAL/STM32H7xx_HAL_Driver/Src/stm32h7xx_hal_dcmi.c:560:10
	ldr	r1, [r0]
	.loc	7 560 23                        @ libraries/STM32H7xx_HAL/STM32H7xx_HAL_Driver/Src/stm32h7xx_hal_dcmi.c:560:23
	ldr	r0, [r1]
	orrs	r0, r2
	str	r0, [r1]
	.loc	7 563 3 is_stmt 1               @ libraries/STM32H7xx_HAL/STM32H7xx_HAL_Driver/Src/stm32h7xx_hal_dcmi.c:563:3
	ldr	r0, [sp, #24]
	.loc	7 563 10 is_stmt 0              @ libraries/STM32H7xx_HAL/STM32H7xx_HAL_Driver/Src/stm32h7xx_hal_dcmi.c:563:10
	ldr	r1, [r0, #72]
	.loc	7 563 39                        @ libraries/STM32H7xx_HAL/STM32H7xx_HAL_Driver/Src/stm32h7xx_hal_dcmi.c:563:39
	movw	r0, :lower16:DCMI_DMAXferCplt
	movt	r0, :upper16:DCMI_DMAXferCplt
	str	r0, [r1, #60]
	.loc	7 566 3 is_stmt 1               @ libraries/STM32H7xx_HAL/STM32H7xx_HAL_Driver/Src/stm32h7xx_hal_dcmi.c:566:3
	ldr	r0, [sp, #24]
	.loc	7 566 10 is_stmt 0              @ libraries/STM32H7xx_HAL/STM32H7xx_HAL_Driver/Src/stm32h7xx_hal_dcmi.c:566:10
	ldr	r1, [r0, #72]
	.loc	7 566 40                        @ libraries/STM32H7xx_HAL/STM32H7xx_HAL_Driver/Src/stm32h7xx_hal_dcmi.c:566:40
	movw	r0, :lower16:DCMI_DMAError
	movt	r0, :upper16:DCMI_DMAError
	str	r0, [r1, #76]
	.loc	7 569 3 is_stmt 1               @ libraries/STM32H7xx_HAL/STM32H7xx_HAL_Driver/Src/stm32h7xx_hal_dcmi.c:569:3
	ldr	r0, [sp, #24]
	.loc	7 569 10 is_stmt 0              @ libraries/STM32H7xx_HAL/STM32H7xx_HAL_Driver/Src/stm32h7xx_hal_dcmi.c:569:10
	ldr	r1, [r0, #72]
	movs	r0, #0
	.loc	7 569 40                        @ libraries/STM32H7xx_HAL/STM32H7xx_HAL_Driver/Src/stm32h7xx_hal_dcmi.c:569:40
	str	r0, [r1, #80]
	.loc	7 572 3 is_stmt 1               @ libraries/STM32H7xx_HAL/STM32H7xx_HAL_Driver/Src/stm32h7xx_hal_dcmi.c:572:3
	ldr	r1, [sp, #24]
	.loc	7 572 20 is_stmt 0              @ libraries/STM32H7xx_HAL/STM32H7xx_HAL_Driver/Src/stm32h7xx_hal_dcmi.c:572:20
	str	r0, [r1, #56]
	.loc	7 573 3 is_stmt 1               @ libraries/STM32H7xx_HAL/STM32H7xx_HAL_Driver/Src/stm32h7xx_hal_dcmi.c:573:3
	ldr	r1, [sp, #24]
	.loc	7 573 29 is_stmt 0              @ libraries/STM32H7xx_HAL/STM32H7xx_HAL_Driver/Src/stm32h7xx_hal_dcmi.c:573:29
	str	r0, [r1, #64]
.Ltmp27:
	.loc	7 575 6 is_stmt 1               @ libraries/STM32H7xx_HAL/STM32H7xx_HAL_Driver/Src/stm32h7xx_hal_dcmi.c:575:6
	ldrh.w	r0, [sp, #14]
.Ltmp28:
	.loc	7 575 6 is_stmt 0               @ libraries/STM32H7xx_HAL/STM32H7xx_HAL_Driver/Src/stm32h7xx_hal_dcmi.c:575:6
	cbnz	r0, .LBB4_11
	b	.LBB4_6
.LBB4_6:
.Ltmp29:
	.loc	7 578 26 is_stmt 1              @ libraries/STM32H7xx_HAL/STM32H7xx_HAL_Driver/Src/stm32h7xx_hal_dcmi.c:578:26
	ldr	r0, [sp, #24]
	.loc	7 578 63 is_stmt 0              @ libraries/STM32H7xx_HAL/STM32H7xx_HAL_Driver/Src/stm32h7xx_hal_dcmi.c:578:63
	ldr	r1, [r0]
	.loc	7 578 33                        @ libraries/STM32H7xx_HAL/STM32H7xx_HAL_Driver/Src/stm32h7xx_hal_dcmi.c:578:33
	ldr	r0, [r0, #72]
	.loc	7 578 73                        @ libraries/STM32H7xx_HAL/STM32H7xx_HAL_Driver/Src/stm32h7xx_hal_dcmi.c:578:73
	adds	r1, #40
	.loc	7 578 87                        @ libraries/STM32H7xx_HAL/STM32H7xx_HAL_Driver/Src/stm32h7xx_hal_dcmi.c:578:87
	ldr	r2, [sp, #16]
	.loc	7 578 94                        @ libraries/STM32H7xx_HAL/STM32H7xx_HAL_Driver/Src/stm32h7xx_hal_dcmi.c:578:94
	ldr	r3, [sp, #12]
	.loc	7 578 9                         @ libraries/STM32H7xx_HAL/STM32H7xx_HAL_Driver/Src/stm32h7xx_hal_dcmi.c:578:9
	bl	HAL_DMA_Start_IT
.Ltmp30:
	.loc	7 578 9                         @ libraries/STM32H7xx_HAL/STM32H7xx_HAL_Driver/Src/stm32h7xx_hal_dcmi.c:578:9
	cbz	r0, .LBB4_10
	b	.LBB4_7
.LBB4_7:
.Ltmp31:
	.loc	7 581 7 is_stmt 1               @ libraries/STM32H7xx_HAL/STM32H7xx_HAL_Driver/Src/stm32h7xx_hal_dcmi.c:581:7
	ldr	r1, [sp, #24]
	movs	r0, #64
	.loc	7 581 24 is_stmt 0              @ libraries/STM32H7xx_HAL/STM32H7xx_HAL_Driver/Src/stm32h7xx_hal_dcmi.c:581:24
	str	r0, [r1, #76]
	.loc	7 583 7 is_stmt 1               @ libraries/STM32H7xx_HAL/STM32H7xx_HAL_Driver/Src/stm32h7xx_hal_dcmi.c:583:7
	ldr	r1, [sp, #24]
	movs	r0, #1
	.loc	7 583 20 is_stmt 0              @ libraries/STM32H7xx_HAL/STM32H7xx_HAL_Driver/Src/stm32h7xx_hal_dcmi.c:583:20
	strb.w	r0, [r1, #53]
	.loc	7 585 7 is_stmt 1               @ libraries/STM32H7xx_HAL/STM32H7xx_HAL_Driver/Src/stm32h7xx_hal_dcmi.c:585:7
	b	.LBB4_8
.LBB4_8:
.Ltmp32:
	.loc	7 585 7 is_stmt 0               @ libraries/STM32H7xx_HAL/STM32H7xx_HAL_Driver/Src/stm32h7xx_hal_dcmi.c:585:7
	ldr	r1, [sp, #24]
	movs	r0, #0
	strb.w	r0, [r1, #52]
	b	.LBB4_9
.Ltmp33:
.LBB4_9:
	.loc	7 0 7                           @ libraries/STM32H7xx_HAL/STM32H7xx_HAL_Driver/Src/stm32h7xx_hal_dcmi.c:0:7
	movs	r0, #1
	.loc	7 587 7 is_stmt 1               @ libraries/STM32H7xx_HAL/STM32H7xx_HAL_Driver/Src/stm32h7xx_hal_dcmi.c:587:7
	strb.w	r0, [sp, #31]
	b	.LBB4_22
.Ltmp34:
.LBB4_10:
	.loc	7 589 3                         @ libraries/STM32H7xx_HAL/STM32H7xx_HAL_Driver/Src/stm32h7xx_hal_dcmi.c:589:3
	b	.LBB4_19
.Ltmp35:
.LBB4_11:
	.loc	7 593 5                         @ libraries/STM32H7xx_HAL/STM32H7xx_HAL_Driver/Src/stm32h7xx_hal_dcmi.c:593:5
	ldr	r0, [sp, #24]
	.loc	7 593 12 is_stmt 0              @ libraries/STM32H7xx_HAL/STM32H7xx_HAL_Driver/Src/stm32h7xx_hal_dcmi.c:593:12
	ldr	r1, [r0, #72]
	.loc	7 593 43                        @ libraries/STM32H7xx_HAL/STM32H7xx_HAL_Driver/Src/stm32h7xx_hal_dcmi.c:593:43
	movw	r0, :lower16:DCMI_DMAXferCplt
	movt	r0, :upper16:DCMI_DMAXferCplt
	str	r0, [r1, #68]
	.loc	7 596 5 is_stmt 1               @ libraries/STM32H7xx_HAL/STM32H7xx_HAL_Driver/Src/stm32h7xx_hal_dcmi.c:596:5
	ldr	r1, [sp, #24]
	movs	r0, #1
	.loc	7 596 22 is_stmt 0              @ libraries/STM32H7xx_HAL/STM32H7xx_HAL_Driver/Src/stm32h7xx_hal_dcmi.c:596:22
	str	r0, [r1, #56]
	.loc	7 597 23 is_stmt 1              @ libraries/STM32H7xx_HAL/STM32H7xx_HAL_Driver/Src/stm32h7xx_hal_dcmi.c:597:23
	ldr	r0, [sp, #12]
	.loc	7 597 5 is_stmt 0               @ libraries/STM32H7xx_HAL/STM32H7xx_HAL_Driver/Src/stm32h7xx_hal_dcmi.c:597:5
	ldr	r1, [sp, #24]
	.loc	7 597 21                        @ libraries/STM32H7xx_HAL/STM32H7xx_HAL_Driver/Src/stm32h7xx_hal_dcmi.c:597:21
	str	r0, [r1, #60]
	.loc	7 598 23 is_stmt 1              @ libraries/STM32H7xx_HAL/STM32H7xx_HAL_Driver/Src/stm32h7xx_hal_dcmi.c:598:23
	ldr	r0, [sp, #16]
	.loc	7 598 5 is_stmt 0               @ libraries/STM32H7xx_HAL/STM32H7xx_HAL_Driver/Src/stm32h7xx_hal_dcmi.c:598:5
	ldr	r1, [sp, #24]
	.loc	7 598 21                        @ libraries/STM32H7xx_HAL/STM32H7xx_HAL_Driver/Src/stm32h7xx_hal_dcmi.c:598:21
	str	r0, [r1, #68]
	.loc	7 601 5 is_stmt 1               @ libraries/STM32H7xx_HAL/STM32H7xx_HAL_Driver/Src/stm32h7xx_hal_dcmi.c:601:5
	b	.LBB4_12
.LBB4_12:                               @ =>This Inner Loop Header: Depth=1
	.loc	7 601 11 is_stmt 0              @ libraries/STM32H7xx_HAL/STM32H7xx_HAL_Driver/Src/stm32h7xx_hal_dcmi.c:601:11
	ldr	r0, [sp, #24]
	.loc	7 601 18                        @ libraries/STM32H7xx_HAL/STM32H7xx_HAL_Driver/Src/stm32h7xx_hal_dcmi.c:601:18
	ldr	r0, [r0, #60]
	.loc	7 601 5                         @ libraries/STM32H7xx_HAL/STM32H7xx_HAL_Driver/Src/stm32h7xx_hal_dcmi.c:601:5
	cmp.w	r0, #65536
	blo	.LBB4_14
	b	.LBB4_13
.LBB4_13:                               @   in Loop: Header=BB4_12 Depth=1
.Ltmp36:
	.loc	7 603 26 is_stmt 1              @ libraries/STM32H7xx_HAL/STM32H7xx_HAL_Driver/Src/stm32h7xx_hal_dcmi.c:603:26
	ldr	r0, [sp, #24]
	.loc	7 603 33 is_stmt 0              @ libraries/STM32H7xx_HAL/STM32H7xx_HAL_Driver/Src/stm32h7xx_hal_dcmi.c:603:33
	ldr	r0, [r0, #60]
	.loc	7 603 41                        @ libraries/STM32H7xx_HAL/STM32H7xx_HAL_Driver/Src/stm32h7xx_hal_dcmi.c:603:41
	lsrs	r0, r0, #1
	.loc	7 603 7                         @ libraries/STM32H7xx_HAL/STM32H7xx_HAL_Driver/Src/stm32h7xx_hal_dcmi.c:603:7
	ldr	r1, [sp, #24]
	.loc	7 603 23                        @ libraries/STM32H7xx_HAL/STM32H7xx_HAL_Driver/Src/stm32h7xx_hal_dcmi.c:603:23
	str	r0, [r1, #60]
	.loc	7 604 26 is_stmt 1              @ libraries/STM32H7xx_HAL/STM32H7xx_HAL_Driver/Src/stm32h7xx_hal_dcmi.c:604:26
	ldr	r0, [sp, #24]
	.loc	7 604 33 is_stmt 0              @ libraries/STM32H7xx_HAL/STM32H7xx_HAL_Driver/Src/stm32h7xx_hal_dcmi.c:604:33
	ldr	r0, [r0, #56]
	.loc	7 604 42                        @ libraries/STM32H7xx_HAL/STM32H7xx_HAL_Driver/Src/stm32h7xx_hal_dcmi.c:604:42
	lsls	r0, r0, #1
	.loc	7 604 7                         @ libraries/STM32H7xx_HAL/STM32H7xx_HAL_Driver/Src/stm32h7xx_hal_dcmi.c:604:7
	ldr	r1, [sp, #24]
	.loc	7 604 24                        @ libraries/STM32H7xx_HAL/STM32H7xx_HAL_Driver/Src/stm32h7xx_hal_dcmi.c:604:24
	str	r0, [r1, #56]
.Ltmp37:
	.loc	7 601 5 is_stmt 1               @ libraries/STM32H7xx_HAL/STM32H7xx_HAL_Driver/Src/stm32h7xx_hal_dcmi.c:601:5
	b	.LBB4_12
.LBB4_14:
	.loc	7 608 25                        @ libraries/STM32H7xx_HAL/STM32H7xx_HAL_Driver/Src/stm32h7xx_hal_dcmi.c:608:25
	ldr	r0, [sp, #24]
	.loc	7 608 32 is_stmt 0              @ libraries/STM32H7xx_HAL/STM32H7xx_HAL_Driver/Src/stm32h7xx_hal_dcmi.c:608:32
	ldr	r0, [r0, #56]
	.loc	7 608 42                        @ libraries/STM32H7xx_HAL/STM32H7xx_HAL_Driver/Src/stm32h7xx_hal_dcmi.c:608:42
	subs	r0, #2
	.loc	7 608 5                         @ libraries/STM32H7xx_HAL/STM32H7xx_HAL_Driver/Src/stm32h7xx_hal_dcmi.c:608:5
	ldr	r1, [sp, #24]
	.loc	7 608 22                        @ libraries/STM32H7xx_HAL/STM32H7xx_HAL_Driver/Src/stm32h7xx_hal_dcmi.c:608:22
	str	r0, [r1, #56]
	.loc	7 609 33 is_stmt 1              @ libraries/STM32H7xx_HAL/STM32H7xx_HAL_Driver/Src/stm32h7xx_hal_dcmi.c:609:33
	ldr	r0, [sp, #24]
	.loc	7 609 40 is_stmt 0              @ libraries/STM32H7xx_HAL/STM32H7xx_HAL_Driver/Src/stm32h7xx_hal_dcmi.c:609:40
	ldr	r0, [r0, #56]
	.loc	7 609 5                         @ libraries/STM32H7xx_HAL/STM32H7xx_HAL_Driver/Src/stm32h7xx_hal_dcmi.c:609:5
	ldr	r1, [sp, #24]
	.loc	7 609 31                        @ libraries/STM32H7xx_HAL/STM32H7xx_HAL_Driver/Src/stm32h7xx_hal_dcmi.c:609:31
	str	r0, [r1, #64]
	.loc	7 612 35 is_stmt 1              @ libraries/STM32H7xx_HAL/STM32H7xx_HAL_Driver/Src/stm32h7xx_hal_dcmi.c:612:35
	ldr	r0, [sp, #16]
	.loc	7 612 47 is_stmt 0              @ libraries/STM32H7xx_HAL/STM32H7xx_HAL_Driver/Src/stm32h7xx_hal_dcmi.c:612:47
	ldr	r1, [sp, #24]
	.loc	7 612 54                        @ libraries/STM32H7xx_HAL/STM32H7xx_HAL_Driver/Src/stm32h7xx_hal_dcmi.c:612:54
	ldr	r1, [r1, #60]
	.loc	7 612 41                        @ libraries/STM32H7xx_HAL/STM32H7xx_HAL_Driver/Src/stm32h7xx_hal_dcmi.c:612:41
	add.w	r0, r0, r1, lsl #2
	.loc	7 612 22                        @ libraries/STM32H7xx_HAL/STM32H7xx_HAL_Driver/Src/stm32h7xx_hal_dcmi.c:612:22
	str	r0, [sp, #8]
.Ltmp38:
	.loc	7 615 39 is_stmt 1              @ libraries/STM32H7xx_HAL/STM32H7xx_HAL_Driver/Src/stm32h7xx_hal_dcmi.c:615:39
	ldr.w	r12, [sp, #24]
	.loc	7 615 76 is_stmt 0              @ libraries/STM32H7xx_HAL/STM32H7xx_HAL_Driver/Src/stm32h7xx_hal_dcmi.c:615:76
	ldr.w	r1, [r12]
	.loc	7 615 46                        @ libraries/STM32H7xx_HAL/STM32H7xx_HAL_Driver/Src/stm32h7xx_hal_dcmi.c:615:46
	ldr.w	r0, [r12, #72]
	.loc	7 615 86                        @ libraries/STM32H7xx_HAL/STM32H7xx_HAL_Driver/Src/stm32h7xx_hal_dcmi.c:615:86
	adds	r1, #40
	.loc	7 615 100                       @ libraries/STM32H7xx_HAL/STM32H7xx_HAL_Driver/Src/stm32h7xx_hal_dcmi.c:615:100
	ldr	r2, [sp, #16]
	.loc	7 615 107                       @ libraries/STM32H7xx_HAL/STM32H7xx_HAL_Driver/Src/stm32h7xx_hal_dcmi.c:615:107
	ldr	r3, [sp, #8]
	.loc	7 615 132                       @ libraries/STM32H7xx_HAL/STM32H7xx_HAL_Driver/Src/stm32h7xx_hal_dcmi.c:615:132
	ldr.w	r12, [r12, #60]
	.loc	7 615 9                         @ libraries/STM32H7xx_HAL/STM32H7xx_HAL_Driver/Src/stm32h7xx_hal_dcmi.c:615:9
	mov	lr, sp
	str.w	r12, [lr]
	bl	HAL_DMAEx_MultiBufferStart_IT
.Ltmp39:
	.loc	7 615 9                         @ libraries/STM32H7xx_HAL/STM32H7xx_HAL_Driver/Src/stm32h7xx_hal_dcmi.c:615:9
	cbz	r0, .LBB4_18
	b	.LBB4_15
.LBB4_15:
.Ltmp40:
	.loc	7 618 7 is_stmt 1               @ libraries/STM32H7xx_HAL/STM32H7xx_HAL_Driver/Src/stm32h7xx_hal_dcmi.c:618:7
	ldr	r1, [sp, #24]
	movs	r0, #64
	.loc	7 618 24 is_stmt 0              @ libraries/STM32H7xx_HAL/STM32H7xx_HAL_Driver/Src/stm32h7xx_hal_dcmi.c:618:24
	str	r0, [r1, #76]
	.loc	7 620 7 is_stmt 1               @ libraries/STM32H7xx_HAL/STM32H7xx_HAL_Driver/Src/stm32h7xx_hal_dcmi.c:620:7
	ldr	r1, [sp, #24]
	movs	r0, #1
	.loc	7 620 20 is_stmt 0              @ libraries/STM32H7xx_HAL/STM32H7xx_HAL_Driver/Src/stm32h7xx_hal_dcmi.c:620:20
	strb.w	r0, [r1, #53]
	.loc	7 622 7 is_stmt 1               @ libraries/STM32H7xx_HAL/STM32H7xx_HAL_Driver/Src/stm32h7xx_hal_dcmi.c:622:7
	b	.LBB4_16
.LBB4_16:
.Ltmp41:
	.loc	7 622 7 is_stmt 0               @ libraries/STM32H7xx_HAL/STM32H7xx_HAL_Driver/Src/stm32h7xx_hal_dcmi.c:622:7
	ldr	r1, [sp, #24]
	movs	r0, #0
	strb.w	r0, [r1, #52]
	b	.LBB4_17
.Ltmp42:
.LBB4_17:
	.loc	7 0 7                           @ libraries/STM32H7xx_HAL/STM32H7xx_HAL_Driver/Src/stm32h7xx_hal_dcmi.c:0:7
	movs	r0, #1
	.loc	7 624 7 is_stmt 1               @ libraries/STM32H7xx_HAL/STM32H7xx_HAL_Driver/Src/stm32h7xx_hal_dcmi.c:624:7
	strb.w	r0, [sp, #31]
	b	.LBB4_22
.Ltmp43:
.LBB4_18:
	.loc	7 0 7 is_stmt 0                 @ libraries/STM32H7xx_HAL/STM32H7xx_HAL_Driver/Src/stm32h7xx_hal_dcmi.c:0:7
	b	.LBB4_19
.LBB4_19:
	.loc	7 629 3 is_stmt 1               @ libraries/STM32H7xx_HAL/STM32H7xx_HAL_Driver/Src/stm32h7xx_hal_dcmi.c:629:3
	ldr	r0, [sp, #24]
	.loc	7 629 10 is_stmt 0              @ libraries/STM32H7xx_HAL/STM32H7xx_HAL_Driver/Src/stm32h7xx_hal_dcmi.c:629:10
	ldr	r1, [r0]
	.loc	7 629 23                        @ libraries/STM32H7xx_HAL/STM32H7xx_HAL_Driver/Src/stm32h7xx_hal_dcmi.c:629:23
	ldr	r0, [r1]
	orr	r0, r0, #1
	str	r0, [r1]
	.loc	7 632 3 is_stmt 1               @ libraries/STM32H7xx_HAL/STM32H7xx_HAL_Driver/Src/stm32h7xx_hal_dcmi.c:632:3
	b	.LBB4_20
.LBB4_20:
.Ltmp44:
	.loc	7 632 3 is_stmt 0               @ libraries/STM32H7xx_HAL/STM32H7xx_HAL_Driver/Src/stm32h7xx_hal_dcmi.c:632:3
	ldr	r1, [sp, #24]
	movs	r0, #0
	strb.w	r0, [r1, #52]
	b	.LBB4_21
.Ltmp45:
.LBB4_21:
	.loc	7 0 3                           @ libraries/STM32H7xx_HAL/STM32H7xx_HAL_Driver/Src/stm32h7xx_hal_dcmi.c:0:3
	movs	r0, #0
	.loc	7 635 3 is_stmt 1               @ libraries/STM32H7xx_HAL/STM32H7xx_HAL_Driver/Src/stm32h7xx_hal_dcmi.c:635:3
	strb.w	r0, [sp, #31]
	b	.LBB4_22
.LBB4_22:
	.loc	7 636 1                         @ libraries/STM32H7xx_HAL/STM32H7xx_HAL_Driver/Src/stm32h7xx_hal_dcmi.c:636:1
	ldrb.w	r0, [sp, #31]
	add	sp, #32
	pop	{r7, pc}
.Ltmp46:
.Lfunc_end4:
	.size	HAL_DCMI_Start_DMA, .Lfunc_end4-HAL_DCMI_Start_DMA
	.cfi_endproc
	.cantunwind
	.fnend
                                        @ -- End function
	.section	.text.DCMI_DMAXferCplt,"ax",%progbits
	.p2align	3                               @ -- Begin function DCMI_DMAXferCplt
	.type	DCMI_DMAXferCplt,%function
	.code	16                              @ @DCMI_DMAXferCplt
	.thumb_func
DCMI_DMAXferCplt:
.Lfunc_begin5:
	.loc	7 1091 0                        @ libraries/STM32H7xx_HAL/STM32H7xx_HAL_Driver/Src/stm32h7xx_hal_dcmi.c:1091:0
	.fnstart
	.cfi_startproc
@ %bb.0:
	.save	{r7, lr}
	push	{r7, lr}
	.cfi_def_cfa_offset 8
	.cfi_offset lr, -4
	.cfi_offset r7, -8
	.pad	#16
	sub	sp, #16
	.cfi_def_cfa_offset 24
	str	r0, [sp, #12]
.Ltmp47:
	.loc	7 1094 76 prologue_end          @ libraries/STM32H7xx_HAL/STM32H7xx_HAL_Driver/Src/stm32h7xx_hal_dcmi.c:1094:76
	ldr	r0, [sp, #12]
	.loc	7 1094 83 is_stmt 0             @ libraries/STM32H7xx_HAL/STM32H7xx_HAL_Driver/Src/stm32h7xx_hal_dcmi.c:1094:83
	ldr	r0, [r0, #56]
	.loc	7 1094 23                       @ libraries/STM32H7xx_HAL/STM32H7xx_HAL_Driver/Src/stm32h7xx_hal_dcmi.c:1094:23
	str	r0, [sp, #4]
.Ltmp48:
	.loc	7 1096 6 is_stmt 1              @ libraries/STM32H7xx_HAL/STM32H7xx_HAL_Driver/Src/stm32h7xx_hal_dcmi.c:1096:6
	ldr	r0, [sp, #4]
	.loc	7 1096 13 is_stmt 0             @ libraries/STM32H7xx_HAL/STM32H7xx_HAL_Driver/Src/stm32h7xx_hal_dcmi.c:1096:13
	ldr	r0, [r0, #56]
.Ltmp49:
	.loc	7 1096 6                        @ libraries/STM32H7xx_HAL/STM32H7xx_HAL_Driver/Src/stm32h7xx_hal_dcmi.c:1096:6
	cmp	r0, #0
	beq	.LBB5_9
	b	.LBB5_1
.LBB5_1:
.Ltmp50:
	.loc	7 1099 37 is_stmt 1             @ libraries/STM32H7xx_HAL/STM32H7xx_HAL_Driver/Src/stm32h7xx_hal_dcmi.c:1099:37
	ldr	r0, [sp, #4]
	.loc	7 1099 44 is_stmt 0             @ libraries/STM32H7xx_HAL/STM32H7xx_HAL_Driver/Src/stm32h7xx_hal_dcmi.c:1099:44
	ldr	r0, [r0, #72]
	.loc	7 1099 56                       @ libraries/STM32H7xx_HAL/STM32H7xx_HAL_Driver/Src/stm32h7xx_hal_dcmi.c:1099:56
	ldr	r0, [r0]
	.loc	7 1099 68                       @ libraries/STM32H7xx_HAL/STM32H7xx_HAL_Driver/Src/stm32h7xx_hal_dcmi.c:1099:68
	ldr	r0, [r0]
	.loc	7 1099 72                       @ libraries/STM32H7xx_HAL/STM32H7xx_HAL_Driver/Src/stm32h7xx_hal_dcmi.c:1099:72
	and	r0, r0, #524288
	.loc	7 1099 9                        @ libraries/STM32H7xx_HAL/STM32H7xx_HAL_Driver/Src/stm32h7xx_hal_dcmi.c:1099:9
	str	r0, [sp, #8]
.Ltmp51:
	.loc	7 1100 10 is_stmt 1             @ libraries/STM32H7xx_HAL/STM32H7xx_HAL_Driver/Src/stm32h7xx_hal_dcmi.c:1100:10
	ldr	r0, [sp, #4]
	.loc	7 1100 17 is_stmt 0             @ libraries/STM32H7xx_HAL/STM32H7xx_HAL_Driver/Src/stm32h7xx_hal_dcmi.c:1100:17
	ldr	r0, [r0, #56]
	.loc	7 1100 40                       @ libraries/STM32H7xx_HAL/STM32H7xx_HAL_Driver/Src/stm32h7xx_hal_dcmi.c:1100:40
	lsls	r0, r0, #31
	cbnz	r0, .LBB5_4
	b	.LBB5_2
.LBB5_2:
	.loc	7 1100 44                       @ libraries/STM32H7xx_HAL/STM32H7xx_HAL_Driver/Src/stm32h7xx_hal_dcmi.c:1100:44
	ldr	r0, [sp, #8]
.Ltmp52:
	.loc	7 1100 8                        @ libraries/STM32H7xx_HAL/STM32H7xx_HAL_Driver/Src/stm32h7xx_hal_dcmi.c:1100:8
	cbz	r0, .LBB5_4
	b	.LBB5_3
.LBB5_3:
.Ltmp53:
	.loc	7 1102 37 is_stmt 1             @ libraries/STM32H7xx_HAL/STM32H7xx_HAL_Driver/Src/stm32h7xx_hal_dcmi.c:1102:37
	ldr	r0, [sp, #4]
	.loc	7 1102 44 is_stmt 0             @ libraries/STM32H7xx_HAL/STM32H7xx_HAL_Driver/Src/stm32h7xx_hal_dcmi.c:1102:44
	ldr	r0, [r0, #72]
	.loc	7 1102 56                       @ libraries/STM32H7xx_HAL/STM32H7xx_HAL_Driver/Src/stm32h7xx_hal_dcmi.c:1102:56
	ldr	r0, [r0]
	.loc	7 1102 68                       @ libraries/STM32H7xx_HAL/STM32H7xx_HAL_Driver/Src/stm32h7xx_hal_dcmi.c:1102:68
	ldr	r0, [r0, #12]
	.loc	7 1102 11                       @ libraries/STM32H7xx_HAL/STM32H7xx_HAL_Driver/Src/stm32h7xx_hal_dcmi.c:1102:11
	str	r0, [sp, #8]
	.loc	7 1103 37 is_stmt 1             @ libraries/STM32H7xx_HAL/STM32H7xx_HAL_Driver/Src/stm32h7xx_hal_dcmi.c:1103:37
	ldr	r2, [sp, #4]
	.loc	7 1103 44 is_stmt 0             @ libraries/STM32H7xx_HAL/STM32H7xx_HAL_Driver/Src/stm32h7xx_hal_dcmi.c:1103:44
	ldr	r0, [r2, #72]
	.loc	7 1103 57                       @ libraries/STM32H7xx_HAL/STM32H7xx_HAL_Driver/Src/stm32h7xx_hal_dcmi.c:1103:57
	ldr	r1, [sp, #8]
	.loc	7 1103 74                       @ libraries/STM32H7xx_HAL/STM32H7xx_HAL_Driver/Src/stm32h7xx_hal_dcmi.c:1103:74
	ldr	r2, [r2, #60]
	.loc	7 1103 61                       @ libraries/STM32H7xx_HAL/STM32H7xx_HAL_Driver/Src/stm32h7xx_hal_dcmi.c:1103:61
	add.w	r1, r1, r2, lsl #3
	movs	r2, #0
	.loc	7 1103 14                       @ libraries/STM32H7xx_HAL/STM32H7xx_HAL_Driver/Src/stm32h7xx_hal_dcmi.c:1103:14
	bl	HAL_DMAEx_ChangeMemory
	.loc	7 1104 7 is_stmt 1              @ libraries/STM32H7xx_HAL/STM32H7xx_HAL_Driver/Src/stm32h7xx_hal_dcmi.c:1104:7
	ldr	r1, [sp, #4]
	.loc	7 1104 23 is_stmt 0             @ libraries/STM32H7xx_HAL/STM32H7xx_HAL_Driver/Src/stm32h7xx_hal_dcmi.c:1104:23
	ldr	r0, [r1, #56]
	subs	r0, #1
	str	r0, [r1, #56]
	.loc	7 1105 5 is_stmt 1              @ libraries/STM32H7xx_HAL/STM32H7xx_HAL_Driver/Src/stm32h7xx_hal_dcmi.c:1105:5
	b	.LBB5_8
.Ltmp54:
.LBB5_4:
	.loc	7 1107 38                       @ libraries/STM32H7xx_HAL/STM32H7xx_HAL_Driver/Src/stm32h7xx_hal_dcmi.c:1107:38
	ldr	r0, [sp, #4]
	.loc	7 1107 45 is_stmt 0             @ libraries/STM32H7xx_HAL/STM32H7xx_HAL_Driver/Src/stm32h7xx_hal_dcmi.c:1107:45
	ldr	r0, [r0, #72]
	.loc	7 1107 57                       @ libraries/STM32H7xx_HAL/STM32H7xx_HAL_Driver/Src/stm32h7xx_hal_dcmi.c:1107:57
	ldr	r0, [r0]
	.loc	7 1107 69                       @ libraries/STM32H7xx_HAL/STM32H7xx_HAL_Driver/Src/stm32h7xx_hal_dcmi.c:1107:69
	ldr	r0, [r0]
.Ltmp55:
	.loc	7 1107 13                       @ libraries/STM32H7xx_HAL/STM32H7xx_HAL_Driver/Src/stm32h7xx_hal_dcmi.c:1107:13
	lsls	r0, r0, #12
	cmp	r0, #0
	bmi	.LBB5_6
	b	.LBB5_5
.LBB5_5:
.Ltmp56:
	.loc	7 1109 37 is_stmt 1             @ libraries/STM32H7xx_HAL/STM32H7xx_HAL_Driver/Src/stm32h7xx_hal_dcmi.c:1109:37
	ldr	r0, [sp, #4]
	.loc	7 1109 44 is_stmt 0             @ libraries/STM32H7xx_HAL/STM32H7xx_HAL_Driver/Src/stm32h7xx_hal_dcmi.c:1109:44
	ldr	r0, [r0, #72]
	.loc	7 1109 56                       @ libraries/STM32H7xx_HAL/STM32H7xx_HAL_Driver/Src/stm32h7xx_hal_dcmi.c:1109:56
	ldr	r0, [r0]
	.loc	7 1109 68                       @ libraries/STM32H7xx_HAL/STM32H7xx_HAL_Driver/Src/stm32h7xx_hal_dcmi.c:1109:68
	ldr	r0, [r0, #16]
	.loc	7 1109 11                       @ libraries/STM32H7xx_HAL/STM32H7xx_HAL_Driver/Src/stm32h7xx_hal_dcmi.c:1109:11
	str	r0, [sp, #8]
	.loc	7 1110 37 is_stmt 1             @ libraries/STM32H7xx_HAL/STM32H7xx_HAL_Driver/Src/stm32h7xx_hal_dcmi.c:1110:37
	ldr	r2, [sp, #4]
	.loc	7 1110 44 is_stmt 0             @ libraries/STM32H7xx_HAL/STM32H7xx_HAL_Driver/Src/stm32h7xx_hal_dcmi.c:1110:44
	ldr	r0, [r2, #72]
	.loc	7 1110 57                       @ libraries/STM32H7xx_HAL/STM32H7xx_HAL_Driver/Src/stm32h7xx_hal_dcmi.c:1110:57
	ldr	r1, [sp, #8]
	.loc	7 1110 74                       @ libraries/STM32H7xx_HAL/STM32H7xx_HAL_Driver/Src/stm32h7xx_hal_dcmi.c:1110:74
	ldr	r2, [r2, #60]
	.loc	7 1110 61                       @ libraries/STM32H7xx_HAL/STM32H7xx_HAL_Driver/Src/stm32h7xx_hal_dcmi.c:1110:61
	add.w	r1, r1, r2, lsl #3
	movs	r2, #1
	.loc	7 1110 14                       @ libraries/STM32H7xx_HAL/STM32H7xx_HAL_Driver/Src/stm32h7xx_hal_dcmi.c:1110:14
	bl	HAL_DMAEx_ChangeMemory
	.loc	7 1111 7 is_stmt 1              @ libraries/STM32H7xx_HAL/STM32H7xx_HAL_Driver/Src/stm32h7xx_hal_dcmi.c:1111:7
	ldr	r1, [sp, #4]
	.loc	7 1111 23 is_stmt 0             @ libraries/STM32H7xx_HAL/STM32H7xx_HAL_Driver/Src/stm32h7xx_hal_dcmi.c:1111:23
	ldr	r0, [r1, #56]
	subs	r0, #1
	str	r0, [r1, #56]
	.loc	7 1112 5 is_stmt 1              @ libraries/STM32H7xx_HAL/STM32H7xx_HAL_Driver/Src/stm32h7xx_hal_dcmi.c:1112:5
	b	.LBB5_7
.Ltmp57:
.LBB5_6:
	.loc	7 0 5 is_stmt 0                 @ libraries/STM32H7xx_HAL/STM32H7xx_HAL_Driver/Src/stm32h7xx_hal_dcmi.c:0:5
	b	.LBB5_7
.LBB5_7:
	b	.LBB5_8
.LBB5_8:
	.loc	7 1117 3 is_stmt 1              @ libraries/STM32H7xx_HAL/STM32H7xx_HAL_Driver/Src/stm32h7xx_hal_dcmi.c:1117:3
	b	.LBB5_16
.Ltmp58:
.LBB5_9:
	.loc	7 1119 36                       @ libraries/STM32H7xx_HAL/STM32H7xx_HAL_Driver/Src/stm32h7xx_hal_dcmi.c:1119:36
	ldr	r0, [sp, #4]
	.loc	7 1119 43 is_stmt 0             @ libraries/STM32H7xx_HAL/STM32H7xx_HAL_Driver/Src/stm32h7xx_hal_dcmi.c:1119:43
	ldr	r0, [r0, #72]
	.loc	7 1119 55                       @ libraries/STM32H7xx_HAL/STM32H7xx_HAL_Driver/Src/stm32h7xx_hal_dcmi.c:1119:55
	ldr	r0, [r0]
	.loc	7 1119 67                       @ libraries/STM32H7xx_HAL/STM32H7xx_HAL_Driver/Src/stm32h7xx_hal_dcmi.c:1119:67
	ldr	r0, [r0]
.Ltmp59:
	.loc	7 1119 11                       @ libraries/STM32H7xx_HAL/STM32H7xx_HAL_Driver/Src/stm32h7xx_hal_dcmi.c:1119:11
	lsls	r0, r0, #12
	cmp	r0, #0
	bpl	.LBB5_11
	b	.LBB5_10
.LBB5_10:
.Ltmp60:
	.loc	7 1121 67 is_stmt 1             @ libraries/STM32H7xx_HAL/STM32H7xx_HAL_Driver/Src/stm32h7xx_hal_dcmi.c:1121:67
	ldr	r1, [sp, #4]
	.loc	7 1121 74 is_stmt 0             @ libraries/STM32H7xx_HAL/STM32H7xx_HAL_Driver/Src/stm32h7xx_hal_dcmi.c:1121:74
	ldr	r0, [r1, #68]
	.loc	7 1121 36                       @ libraries/STM32H7xx_HAL/STM32H7xx_HAL_Driver/Src/stm32h7xx_hal_dcmi.c:1121:36
	ldr	r1, [r1, #72]
	.loc	7 1121 48                       @ libraries/STM32H7xx_HAL/STM32H7xx_HAL_Driver/Src/stm32h7xx_hal_dcmi.c:1121:48
	ldr	r1, [r1]
	.loc	7 1121 65                       @ libraries/STM32H7xx_HAL/STM32H7xx_HAL_Driver/Src/stm32h7xx_hal_dcmi.c:1121:65
	str	r0, [r1, #12]
	.loc	7 1122 3 is_stmt 1              @ libraries/STM32H7xx_HAL/STM32H7xx_HAL_Driver/Src/stm32h7xx_hal_dcmi.c:1122:3
	b	.LBB5_15
.Ltmp61:
.LBB5_11:
	.loc	7 1124 36                       @ libraries/STM32H7xx_HAL/STM32H7xx_HAL_Driver/Src/stm32h7xx_hal_dcmi.c:1124:36
	ldr	r0, [sp, #4]
	.loc	7 1124 43 is_stmt 0             @ libraries/STM32H7xx_HAL/STM32H7xx_HAL_Driver/Src/stm32h7xx_hal_dcmi.c:1124:43
	ldr	r0, [r0, #72]
	.loc	7 1124 55                       @ libraries/STM32H7xx_HAL/STM32H7xx_HAL_Driver/Src/stm32h7xx_hal_dcmi.c:1124:55
	ldr	r0, [r0]
	.loc	7 1124 67                       @ libraries/STM32H7xx_HAL/STM32H7xx_HAL_Driver/Src/stm32h7xx_hal_dcmi.c:1124:67
	ldr	r0, [r0]
.Ltmp62:
	.loc	7 1124 11                       @ libraries/STM32H7xx_HAL/STM32H7xx_HAL_Driver/Src/stm32h7xx_hal_dcmi.c:1124:11
	lsls	r0, r0, #12
	cmp	r0, #0
	bmi	.LBB5_13
	b	.LBB5_12
.LBB5_12:
.Ltmp63:
	.loc	7 1126 11 is_stmt 1             @ libraries/STM32H7xx_HAL/STM32H7xx_HAL_Driver/Src/stm32h7xx_hal_dcmi.c:1126:11
	ldr	r0, [sp, #4]
	.loc	7 1126 18 is_stmt 0             @ libraries/STM32H7xx_HAL/STM32H7xx_HAL_Driver/Src/stm32h7xx_hal_dcmi.c:1126:18
	ldr	r0, [r0, #68]
	.loc	7 1126 9                        @ libraries/STM32H7xx_HAL/STM32H7xx_HAL_Driver/Src/stm32h7xx_hal_dcmi.c:1126:9
	str	r0, [sp, #8]
	.loc	7 1127 68 is_stmt 1             @ libraries/STM32H7xx_HAL/STM32H7xx_HAL_Driver/Src/stm32h7xx_hal_dcmi.c:1127:68
	ldr	r0, [sp, #8]
	.loc	7 1127 78 is_stmt 0             @ libraries/STM32H7xx_HAL/STM32H7xx_HAL_Driver/Src/stm32h7xx_hal_dcmi.c:1127:78
	ldr	r1, [sp, #4]
	.loc	7 1127 85                       @ libraries/STM32H7xx_HAL/STM32H7xx_HAL_Driver/Src/stm32h7xx_hal_dcmi.c:1127:85
	ldr	r1, [r1, #60]
	.loc	7 1127 72                       @ libraries/STM32H7xx_HAL/STM32H7xx_HAL_Driver/Src/stm32h7xx_hal_dcmi.c:1127:72
	add.w	r0, r0, r1, lsl #2
	.loc	7 1127 29                       @ libraries/STM32H7xx_HAL/STM32H7xx_HAL_Driver/Src/stm32h7xx_hal_dcmi.c:1127:29
	ldr	r1, [sp, #4]
	.loc	7 1127 36                       @ libraries/STM32H7xx_HAL/STM32H7xx_HAL_Driver/Src/stm32h7xx_hal_dcmi.c:1127:36
	ldr	r1, [r1, #72]
	.loc	7 1127 48                       @ libraries/STM32H7xx_HAL/STM32H7xx_HAL_Driver/Src/stm32h7xx_hal_dcmi.c:1127:48
	ldr	r1, [r1]
	.loc	7 1127 65                       @ libraries/STM32H7xx_HAL/STM32H7xx_HAL_Driver/Src/stm32h7xx_hal_dcmi.c:1127:65
	str	r0, [r1, #16]
	.loc	7 1128 24 is_stmt 1             @ libraries/STM32H7xx_HAL/STM32H7xx_HAL_Driver/Src/stm32h7xx_hal_dcmi.c:1128:24
	ldr	r1, [sp, #4]
	.loc	7 1128 31 is_stmt 0             @ libraries/STM32H7xx_HAL/STM32H7xx_HAL_Driver/Src/stm32h7xx_hal_dcmi.c:1128:31
	ldr	r0, [r1, #64]
	.loc	7 1128 22                       @ libraries/STM32H7xx_HAL/STM32H7xx_HAL_Driver/Src/stm32h7xx_hal_dcmi.c:1128:22
	str	r0, [r1, #56]
	.loc	7 1129 3 is_stmt 1              @ libraries/STM32H7xx_HAL/STM32H7xx_HAL_Driver/Src/stm32h7xx_hal_dcmi.c:1129:3
	b	.LBB5_14
.Ltmp64:
.LBB5_13:
	.loc	7 0 3 is_stmt 0                 @ libraries/STM32H7xx_HAL/STM32H7xx_HAL_Driver/Src/stm32h7xx_hal_dcmi.c:0:3
	b	.LBB5_14
.LBB5_14:
	b	.LBB5_15
.LBB5_15:
	b	.LBB5_16
.LBB5_16:
.Ltmp65:
	.loc	7 1136 6 is_stmt 1              @ libraries/STM32H7xx_HAL/STM32H7xx_HAL_Driver/Src/stm32h7xx_hal_dcmi.c:1136:6
	ldr	r0, [sp, #4]
	.loc	7 1136 13 is_stmt 0             @ libraries/STM32H7xx_HAL/STM32H7xx_HAL_Driver/Src/stm32h7xx_hal_dcmi.c:1136:13
	ldr	r0, [r0, #56]
	.loc	7 1136 26                       @ libraries/STM32H7xx_HAL/STM32H7xx_HAL_Driver/Src/stm32h7xx_hal_dcmi.c:1136:26
	ldr	r1, [sp, #4]
	.loc	7 1136 33                       @ libraries/STM32H7xx_HAL/STM32H7xx_HAL_Driver/Src/stm32h7xx_hal_dcmi.c:1136:33
	ldr	r1, [r1, #64]
.Ltmp66:
	.loc	7 1136 6                        @ libraries/STM32H7xx_HAL/STM32H7xx_HAL_Driver/Src/stm32h7xx_hal_dcmi.c:1136:6
	cmp	r0, r1
	bne	.LBB5_20
	b	.LBB5_17
.LBB5_17:
.Ltmp67:
	.loc	7 1139 5 is_stmt 1              @ libraries/STM32H7xx_HAL/STM32H7xx_HAL_Driver/Src/stm32h7xx_hal_dcmi.c:1139:5
	ldr	r0, [sp, #4]
	ldr	r1, [r0]
	ldr	r0, [r1, #12]
	orr	r0, r0, #1
	str	r0, [r1, #12]
.Ltmp68:
	.loc	7 1142 9                        @ libraries/STM32H7xx_HAL/STM32H7xx_HAL_Driver/Src/stm32h7xx_hal_dcmi.c:1142:9
	ldr	r0, [sp, #4]
	.loc	7 1142 16 is_stmt 0             @ libraries/STM32H7xx_HAL/STM32H7xx_HAL_Driver/Src/stm32h7xx_hal_dcmi.c:1142:16
	ldr	r0, [r0]
	.loc	7 1142 26                       @ libraries/STM32H7xx_HAL/STM32H7xx_HAL_Driver/Src/stm32h7xx_hal_dcmi.c:1142:26
	ldr	r0, [r0]
.Ltmp69:
	.loc	7 1142 8                        @ libraries/STM32H7xx_HAL/STM32H7xx_HAL_Driver/Src/stm32h7xx_hal_dcmi.c:1142:8
	lsls	r0, r0, #30
	cmp	r0, #0
	bpl	.LBB5_19
	b	.LBB5_18
.LBB5_18:
.Ltmp70:
	.loc	7 1144 7 is_stmt 1              @ libraries/STM32H7xx_HAL/STM32H7xx_HAL_Driver/Src/stm32h7xx_hal_dcmi.c:1144:7
	ldr	r1, [sp, #4]
	movs	r0, #1
	.loc	7 1144 19 is_stmt 0             @ libraries/STM32H7xx_HAL/STM32H7xx_HAL_Driver/Src/stm32h7xx_hal_dcmi.c:1144:19
	strb.w	r0, [r1, #53]
	.loc	7 1145 5 is_stmt 1              @ libraries/STM32H7xx_HAL/STM32H7xx_HAL_Driver/Src/stm32h7xx_hal_dcmi.c:1145:5
	b	.LBB5_19
.Ltmp71:
.LBB5_19:
	.loc	7 1146 3                        @ libraries/STM32H7xx_HAL/STM32H7xx_HAL_Driver/Src/stm32h7xx_hal_dcmi.c:1146:3
	b	.LBB5_20
.Ltmp72:
.LBB5_20:
	.loc	7 1147 1                        @ libraries/STM32H7xx_HAL/STM32H7xx_HAL_Driver/Src/stm32h7xx_hal_dcmi.c:1147:1
	add	sp, #16
	pop	{r7, pc}
.Ltmp73:
.Lfunc_end5:
	.size	DCMI_DMAXferCplt, .Lfunc_end5-DCMI_DMAXferCplt
	.cfi_endproc
	.cantunwind
	.fnend
                                        @ -- End function
	.section	.text.DCMI_DMAError,"ax",%progbits
	.p2align	3                               @ -- Begin function DCMI_DMAError
	.type	DCMI_DMAError,%function
	.code	16                              @ @DCMI_DMAError
	.thumb_func
DCMI_DMAError:
.Lfunc_begin6:
	.loc	7 1156 0                        @ libraries/STM32H7xx_HAL/STM32H7xx_HAL_Driver/Src/stm32h7xx_hal_dcmi.c:1156:0
	.fnstart
	.cfi_startproc
@ %bb.0:
	.save	{r7, lr}
	push	{r7, lr}
	.cfi_def_cfa_offset 8
	.cfi_offset lr, -4
	.cfi_offset r7, -8
	.pad	#8
	sub	sp, #8
	.cfi_def_cfa_offset 16
	str	r0, [sp, #4]
.Ltmp74:
	.loc	7 1157 76 prologue_end          @ libraries/STM32H7xx_HAL/STM32H7xx_HAL_Driver/Src/stm32h7xx_hal_dcmi.c:1157:76
	ldr	r0, [sp, #4]
	.loc	7 1157 83 is_stmt 0             @ libraries/STM32H7xx_HAL/STM32H7xx_HAL_Driver/Src/stm32h7xx_hal_dcmi.c:1157:83
	ldr	r0, [r0, #56]
	.loc	7 1157 23                       @ libraries/STM32H7xx_HAL/STM32H7xx_HAL_Driver/Src/stm32h7xx_hal_dcmi.c:1157:23
	str	r0, [sp]
.Ltmp75:
	.loc	7 1159 6 is_stmt 1              @ libraries/STM32H7xx_HAL/STM32H7xx_HAL_Driver/Src/stm32h7xx_hal_dcmi.c:1159:6
	ldr	r0, [sp]
	.loc	7 1159 13 is_stmt 0             @ libraries/STM32H7xx_HAL/STM32H7xx_HAL_Driver/Src/stm32h7xx_hal_dcmi.c:1159:13
	ldr	r0, [r0, #72]
	.loc	7 1159 25                       @ libraries/STM32H7xx_HAL/STM32H7xx_HAL_Driver/Src/stm32h7xx_hal_dcmi.c:1159:25
	ldr	r0, [r0, #84]
.Ltmp76:
	.loc	7 1159 6                        @ libraries/STM32H7xx_HAL/STM32H7xx_HAL_Driver/Src/stm32h7xx_hal_dcmi.c:1159:6
	cmp	r0, #2
	beq	.LBB6_2
	b	.LBB6_1
.LBB6_1:
.Ltmp77:
	.loc	7 1162 5 is_stmt 1              @ libraries/STM32H7xx_HAL/STM32H7xx_HAL_Driver/Src/stm32h7xx_hal_dcmi.c:1162:5
	ldr	r1, [sp]
	movs	r0, #1
	.loc	7 1162 18 is_stmt 0             @ libraries/STM32H7xx_HAL/STM32H7xx_HAL_Driver/Src/stm32h7xx_hal_dcmi.c:1162:18
	strb.w	r0, [r1, #53]
	.loc	7 1165 5 is_stmt 1              @ libraries/STM32H7xx_HAL/STM32H7xx_HAL_Driver/Src/stm32h7xx_hal_dcmi.c:1165:5
	ldr	r1, [sp]
	.loc	7 1165 22 is_stmt 0             @ libraries/STM32H7xx_HAL/STM32H7xx_HAL_Driver/Src/stm32h7xx_hal_dcmi.c:1165:22
	ldr	r0, [r1, #76]
	orr	r0, r0, #64
	str	r0, [r1, #76]
	.loc	7 1166 3 is_stmt 1              @ libraries/STM32H7xx_HAL/STM32H7xx_HAL_Driver/Src/stm32h7xx_hal_dcmi.c:1166:3
	b	.LBB6_2
.Ltmp78:
.LBB6_2:
	.loc	7 1172 26                       @ libraries/STM32H7xx_HAL/STM32H7xx_HAL_Driver/Src/stm32h7xx_hal_dcmi.c:1172:26
	ldr	r0, [sp]
	.loc	7 1172 3 is_stmt 0              @ libraries/STM32H7xx_HAL/STM32H7xx_HAL_Driver/Src/stm32h7xx_hal_dcmi.c:1172:3
	bl	HAL_DCMI_ErrorCallback
	.loc	7 1174 1 is_stmt 1              @ libraries/STM32H7xx_HAL/STM32H7xx_HAL_Driver/Src/stm32h7xx_hal_dcmi.c:1174:1
	add	sp, #8
	pop	{r7, pc}
.Ltmp79:
.Lfunc_end6:
	.size	DCMI_DMAError, .Lfunc_end6-DCMI_DMAError
	.cfi_endproc
	.cantunwind
	.fnend
                                        @ -- End function
	.section	.text.HAL_DCMI_Stop,"ax",%progbits
	.hidden	HAL_DCMI_Stop                   @ -- Begin function HAL_DCMI_Stop
	.globl	HAL_DCMI_Stop
	.p2align	3
	.type	HAL_DCMI_Stop,%function
	.code	16                              @ @HAL_DCMI_Stop
	.thumb_func
HAL_DCMI_Stop:
.Lfunc_begin7:
	.loc	7 645 0                         @ libraries/STM32H7xx_HAL/STM32H7xx_HAL_Driver/Src/stm32h7xx_hal_dcmi.c:645:0
	.fnstart
	.cfi_startproc
@ %bb.0:
	.save	{r7, lr}
	push	{r7, lr}
	.cfi_def_cfa_offset 8
	.cfi_offset lr, -4
	.cfi_offset r7, -8
	.pad	#16
	sub	sp, #16
	.cfi_def_cfa_offset 24
	str	r0, [sp, #8]
.Ltmp80:
	.loc	7 646 54 prologue_end           @ libraries/STM32H7xx_HAL/STM32H7xx_HAL_Driver/Src/stm32h7xx_hal_dcmi.c:646:54
	movw	r0, :lower16:SystemCoreClock
	movt	r0, :upper16:SystemCoreClock
	ldr	r0, [r0]
	.loc	7 646 70 is_stmt 0              @ libraries/STM32H7xx_HAL/STM32H7xx_HAL_Driver/Src/stm32h7xx_hal_dcmi.c:646:70
	lsrs	r0, r0, #3
	movw	r1, #19923
	movt	r1, #4194
	.loc	7 646 73                        @ libraries/STM32H7xx_HAL/STM32H7xx_HAL_Driver/Src/stm32h7xx_hal_dcmi.c:646:73
	umull	r1, r0, r0, r1
	lsrs	r0, r0, #6
	mov.w	r1, #1000
	.loc	7 646 51                        @ libraries/STM32H7xx_HAL/STM32H7xx_HAL_Driver/Src/stm32h7xx_hal_dcmi.c:646:51
	muls	r0, r1, r0
	.loc	7 646 21                        @ libraries/STM32H7xx_HAL/STM32H7xx_HAL_Driver/Src/stm32h7xx_hal_dcmi.c:646:21
	str	r0, [sp, #4]
	movs	r0, #0
	.loc	7 647 21 is_stmt 1              @ libraries/STM32H7xx_HAL/STM32H7xx_HAL_Driver/Src/stm32h7xx_hal_dcmi.c:647:21
	strb.w	r0, [sp, #3]
	.loc	7 650 3                         @ libraries/STM32H7xx_HAL/STM32H7xx_HAL_Driver/Src/stm32h7xx_hal_dcmi.c:650:3
	b	.LBB7_1
.LBB7_1:
.Ltmp81:
	.loc	7 650 3 is_stmt 0               @ libraries/STM32H7xx_HAL/STM32H7xx_HAL_Driver/Src/stm32h7xx_hal_dcmi.c:650:3
	ldr	r0, [sp, #8]
	ldrb.w	r0, [r0, #52]
.Ltmp82:
	.loc	7 650 3                         @ libraries/STM32H7xx_HAL/STM32H7xx_HAL_Driver/Src/stm32h7xx_hal_dcmi.c:650:3
	cmp	r0, #1
	bne	.LBB7_3
	b	.LBB7_2
.LBB7_2:
	.loc	7 0 3                           @ libraries/STM32H7xx_HAL/STM32H7xx_HAL_Driver/Src/stm32h7xx_hal_dcmi.c:0:3
	movs	r0, #2
.Ltmp83:
	.loc	7 650 3                         @ libraries/STM32H7xx_HAL/STM32H7xx_HAL_Driver/Src/stm32h7xx_hal_dcmi.c:650:3
	strb.w	r0, [sp, #15]
	b	.LBB7_13
.Ltmp84:
.LBB7_3:
	.loc	7 650 3                         @ libraries/STM32H7xx_HAL/STM32H7xx_HAL_Driver/Src/stm32h7xx_hal_dcmi.c:650:3
	ldr	r1, [sp, #8]
	movs	r0, #1
	strb.w	r0, [r1, #52]
	b	.LBB7_4
.Ltmp85:
.LBB7_4:
	.loc	7 650 3                         @ libraries/STM32H7xx_HAL/STM32H7xx_HAL_Driver/Src/stm32h7xx_hal_dcmi.c:650:3
	b	.LBB7_5
.Ltmp86:
.LBB7_5:
	.loc	7 653 3 is_stmt 1               @ libraries/STM32H7xx_HAL/STM32H7xx_HAL_Driver/Src/stm32h7xx_hal_dcmi.c:653:3
	ldr	r1, [sp, #8]
	movs	r0, #2
	.loc	7 653 16 is_stmt 0              @ libraries/STM32H7xx_HAL/STM32H7xx_HAL_Driver/Src/stm32h7xx_hal_dcmi.c:653:16
	strb.w	r0, [r1, #53]
	.loc	7 656 3 is_stmt 1               @ libraries/STM32H7xx_HAL/STM32H7xx_HAL_Driver/Src/stm32h7xx_hal_dcmi.c:656:3
	ldr	r0, [sp, #8]
	.loc	7 656 10 is_stmt 0              @ libraries/STM32H7xx_HAL/STM32H7xx_HAL_Driver/Src/stm32h7xx_hal_dcmi.c:656:10
	ldr	r1, [r0]
	.loc	7 656 23                        @ libraries/STM32H7xx_HAL/STM32H7xx_HAL_Driver/Src/stm32h7xx_hal_dcmi.c:656:23
	ldr	r0, [r1]
	bic	r0, r0, #1
	str	r0, [r1]
	.loc	7 659 3 is_stmt 1               @ libraries/STM32H7xx_HAL/STM32H7xx_HAL_Driver/Src/stm32h7xx_hal_dcmi.c:659:3
	b	.LBB7_6
.LBB7_6:                                @ =>This Inner Loop Header: Depth=1
.Ltmp87:
	.loc	7 661 10                        @ libraries/STM32H7xx_HAL/STM32H7xx_HAL_Driver/Src/stm32h7xx_hal_dcmi.c:661:10
	ldr	r0, [sp, #4]
	subs	r0, #1
	str	r0, [sp, #4]
.Ltmp88:
	.loc	7 662 9                         @ libraries/STM32H7xx_HAL/STM32H7xx_HAL_Driver/Src/stm32h7xx_hal_dcmi.c:662:9
	ldr	r0, [sp, #4]
.Ltmp89:
	.loc	7 662 9 is_stmt 0               @ libraries/STM32H7xx_HAL/STM32H7xx_HAL_Driver/Src/stm32h7xx_hal_dcmi.c:662:9
	cbnz	r0, .LBB7_8
	b	.LBB7_7
.LBB7_7:
.Ltmp90:
	.loc	7 665 7 is_stmt 1               @ libraries/STM32H7xx_HAL/STM32H7xx_HAL_Driver/Src/stm32h7xx_hal_dcmi.c:665:7
	ldr	r1, [sp, #8]
	.loc	7 665 24 is_stmt 0              @ libraries/STM32H7xx_HAL/STM32H7xx_HAL_Driver/Src/stm32h7xx_hal_dcmi.c:665:24
	ldr	r0, [r1, #76]
	orr	r0, r0, #32
	str	r0, [r1, #76]
	movs	r0, #3
	.loc	7 667 14 is_stmt 1              @ libraries/STM32H7xx_HAL/STM32H7xx_HAL_Driver/Src/stm32h7xx_hal_dcmi.c:667:14
	strb.w	r0, [sp, #3]
	.loc	7 668 7                         @ libraries/STM32H7xx_HAL/STM32H7xx_HAL_Driver/Src/stm32h7xx_hal_dcmi.c:668:7
	b	.LBB7_10
.Ltmp91:
.LBB7_8:                                @   in Loop: Header=BB7_6 Depth=1
	.loc	7 670 3                         @ libraries/STM32H7xx_HAL/STM32H7xx_HAL_Driver/Src/stm32h7xx_hal_dcmi.c:670:3
	b	.LBB7_9
.Ltmp92:
.LBB7_9:                                @   in Loop: Header=BB7_6 Depth=1
	.loc	7 671 10                        @ libraries/STM32H7xx_HAL/STM32H7xx_HAL_Driver/Src/stm32h7xx_hal_dcmi.c:671:10
	ldr	r0, [sp, #8]
	.loc	7 671 17 is_stmt 0              @ libraries/STM32H7xx_HAL/STM32H7xx_HAL_Driver/Src/stm32h7xx_hal_dcmi.c:671:17
	ldr	r0, [r0]
	.loc	7 671 27                        @ libraries/STM32H7xx_HAL/STM32H7xx_HAL_Driver/Src/stm32h7xx_hal_dcmi.c:671:27
	ldr	r0, [r0]
.Ltmp93:
	.loc	7 670 3 is_stmt 1               @ libraries/STM32H7xx_HAL/STM32H7xx_HAL_Driver/Src/stm32h7xx_hal_dcmi.c:670:3
	lsls	r0, r0, #31
	cmp	r0, #0
	bne	.LBB7_6
	b	.LBB7_10
.Ltmp94:
.LBB7_10:
	.loc	7 674 3                         @ libraries/STM32H7xx_HAL/STM32H7xx_HAL_Driver/Src/stm32h7xx_hal_dcmi.c:674:3
	ldr	r0, [sp, #8]
	ldr	r1, [r0]
	ldr	r0, [r1]
	bic	r0, r0, #16384
	str	r0, [r1]
	.loc	7 677 23                        @ libraries/STM32H7xx_HAL/STM32H7xx_HAL_Driver/Src/stm32h7xx_hal_dcmi.c:677:23
	ldr	r0, [sp, #8]
	.loc	7 677 30 is_stmt 0              @ libraries/STM32H7xx_HAL/STM32H7xx_HAL_Driver/Src/stm32h7xx_hal_dcmi.c:677:30
	ldr	r0, [r0, #72]
	.loc	7 677 9                         @ libraries/STM32H7xx_HAL/STM32H7xx_HAL_Driver/Src/stm32h7xx_hal_dcmi.c:677:9
	bl	HAL_DMA_Abort
	.loc	7 680 3 is_stmt 1               @ libraries/STM32H7xx_HAL/STM32H7xx_HAL_Driver/Src/stm32h7xx_hal_dcmi.c:680:3
	ldr	r1, [sp, #8]
	.loc	7 680 20 is_stmt 0              @ libraries/STM32H7xx_HAL/STM32H7xx_HAL_Driver/Src/stm32h7xx_hal_dcmi.c:680:20
	ldr	r0, [r1, #76]
	str	r0, [r1, #76]
	.loc	7 683 3 is_stmt 1               @ libraries/STM32H7xx_HAL/STM32H7xx_HAL_Driver/Src/stm32h7xx_hal_dcmi.c:683:3
	ldr	r1, [sp, #8]
	movs	r0, #1
	.loc	7 683 16 is_stmt 0              @ libraries/STM32H7xx_HAL/STM32H7xx_HAL_Driver/Src/stm32h7xx_hal_dcmi.c:683:16
	strb.w	r0, [r1, #53]
	.loc	7 686 3 is_stmt 1               @ libraries/STM32H7xx_HAL/STM32H7xx_HAL_Driver/Src/stm32h7xx_hal_dcmi.c:686:3
	b	.LBB7_11
.LBB7_11:
.Ltmp95:
	.loc	7 686 3 is_stmt 0               @ libraries/STM32H7xx_HAL/STM32H7xx_HAL_Driver/Src/stm32h7xx_hal_dcmi.c:686:3
	ldr	r1, [sp, #8]
	movs	r0, #0
	strb.w	r0, [r1, #52]
	b	.LBB7_12
.Ltmp96:
.LBB7_12:
	.loc	7 689 10 is_stmt 1              @ libraries/STM32H7xx_HAL/STM32H7xx_HAL_Driver/Src/stm32h7xx_hal_dcmi.c:689:10
	ldrb.w	r0, [sp, #3]
	.loc	7 689 3 is_stmt 0               @ libraries/STM32H7xx_HAL/STM32H7xx_HAL_Driver/Src/stm32h7xx_hal_dcmi.c:689:3
	strb.w	r0, [sp, #15]
	b	.LBB7_13
.LBB7_13:
	.loc	7 690 1 is_stmt 1               @ libraries/STM32H7xx_HAL/STM32H7xx_HAL_Driver/Src/stm32h7xx_hal_dcmi.c:690:1
	ldrb.w	r0, [sp, #15]
	add	sp, #16
	pop	{r7, pc}
.Ltmp97:
.Lfunc_end7:
	.size	HAL_DCMI_Stop, .Lfunc_end7-HAL_DCMI_Stop
	.cfi_endproc
	.cantunwind
	.fnend
                                        @ -- End function
	.section	.text.HAL_DCMI_Suspend,"ax",%progbits
	.hidden	HAL_DCMI_Suspend                @ -- Begin function HAL_DCMI_Suspend
	.globl	HAL_DCMI_Suspend
	.p2align	3
	.type	HAL_DCMI_Suspend,%function
	.code	16                              @ @HAL_DCMI_Suspend
	.thumb_func
HAL_DCMI_Suspend:
.Lfunc_begin8:
	.loc	7 699 0                         @ libraries/STM32H7xx_HAL/STM32H7xx_HAL_Driver/Src/stm32h7xx_hal_dcmi.c:699:0
	.fnstart
	.cfi_startproc
@ %bb.0:
	.pad	#16
	sub	sp, #16
	.cfi_def_cfa_offset 16
	str	r0, [sp, #8]
.Ltmp98:
	.loc	7 700 54 prologue_end           @ libraries/STM32H7xx_HAL/STM32H7xx_HAL_Driver/Src/stm32h7xx_hal_dcmi.c:700:54
	movw	r0, :lower16:SystemCoreClock
	movt	r0, :upper16:SystemCoreClock
	ldr	r0, [r0]
	.loc	7 700 70 is_stmt 0              @ libraries/STM32H7xx_HAL/STM32H7xx_HAL_Driver/Src/stm32h7xx_hal_dcmi.c:700:70
	lsrs	r0, r0, #3
	movw	r1, #19923
	movt	r1, #4194
	.loc	7 700 73                        @ libraries/STM32H7xx_HAL/STM32H7xx_HAL_Driver/Src/stm32h7xx_hal_dcmi.c:700:73
	umull	r1, r0, r0, r1
	lsrs	r0, r0, #6
	mov.w	r1, #1000
	.loc	7 700 51                        @ libraries/STM32H7xx_HAL/STM32H7xx_HAL_Driver/Src/stm32h7xx_hal_dcmi.c:700:51
	muls	r0, r1, r0
	.loc	7 700 21                        @ libraries/STM32H7xx_HAL/STM32H7xx_HAL_Driver/Src/stm32h7xx_hal_dcmi.c:700:21
	str	r0, [sp, #4]
	movs	r0, #0
	.loc	7 701 21 is_stmt 1              @ libraries/STM32H7xx_HAL/STM32H7xx_HAL_Driver/Src/stm32h7xx_hal_dcmi.c:701:21
	strb.w	r0, [sp, #3]
	.loc	7 704 3                         @ libraries/STM32H7xx_HAL/STM32H7xx_HAL_Driver/Src/stm32h7xx_hal_dcmi.c:704:3
	b	.LBB8_1
.LBB8_1:
.Ltmp99:
	.loc	7 704 3 is_stmt 0               @ libraries/STM32H7xx_HAL/STM32H7xx_HAL_Driver/Src/stm32h7xx_hal_dcmi.c:704:3
	ldr	r0, [sp, #8]
	ldrb.w	r0, [r0, #52]
.Ltmp100:
	.loc	7 704 3                         @ libraries/STM32H7xx_HAL/STM32H7xx_HAL_Driver/Src/stm32h7xx_hal_dcmi.c:704:3
	cmp	r0, #1
	bne	.LBB8_3
	b	.LBB8_2
.LBB8_2:
	.loc	7 0 3                           @ libraries/STM32H7xx_HAL/STM32H7xx_HAL_Driver/Src/stm32h7xx_hal_dcmi.c:0:3
	movs	r0, #2
.Ltmp101:
	.loc	7 704 3                         @ libraries/STM32H7xx_HAL/STM32H7xx_HAL_Driver/Src/stm32h7xx_hal_dcmi.c:704:3
	strb.w	r0, [sp, #15]
	b	.LBB8_15
.Ltmp102:
.LBB8_3:
	.loc	7 704 3                         @ libraries/STM32H7xx_HAL/STM32H7xx_HAL_Driver/Src/stm32h7xx_hal_dcmi.c:704:3
	ldr	r1, [sp, #8]
	movs	r0, #1
	strb.w	r0, [r1, #52]
	b	.LBB8_4
.Ltmp103:
.LBB8_4:
	.loc	7 704 3                         @ libraries/STM32H7xx_HAL/STM32H7xx_HAL_Driver/Src/stm32h7xx_hal_dcmi.c:704:3
	b	.LBB8_5
.Ltmp104:
.LBB8_5:
	.loc	7 706 6 is_stmt 1               @ libraries/STM32H7xx_HAL/STM32H7xx_HAL_Driver/Src/stm32h7xx_hal_dcmi.c:706:6
	ldr	r0, [sp, #8]
	.loc	7 706 13 is_stmt 0              @ libraries/STM32H7xx_HAL/STM32H7xx_HAL_Driver/Src/stm32h7xx_hal_dcmi.c:706:13
	ldrb.w	r0, [r0, #53]
.Ltmp105:
	.loc	7 706 6                         @ libraries/STM32H7xx_HAL/STM32H7xx_HAL_Driver/Src/stm32h7xx_hal_dcmi.c:706:6
	cmp	r0, #2
	bne	.LBB8_12
	b	.LBB8_6
.LBB8_6:
.Ltmp106:
	.loc	7 709 5 is_stmt 1               @ libraries/STM32H7xx_HAL/STM32H7xx_HAL_Driver/Src/stm32h7xx_hal_dcmi.c:709:5
	ldr	r1, [sp, #8]
	movs	r0, #5
	.loc	7 709 18 is_stmt 0              @ libraries/STM32H7xx_HAL/STM32H7xx_HAL_Driver/Src/stm32h7xx_hal_dcmi.c:709:18
	strb.w	r0, [r1, #53]
	.loc	7 712 5 is_stmt 1               @ libraries/STM32H7xx_HAL/STM32H7xx_HAL_Driver/Src/stm32h7xx_hal_dcmi.c:712:5
	ldr	r0, [sp, #8]
	.loc	7 712 12 is_stmt 0              @ libraries/STM32H7xx_HAL/STM32H7xx_HAL_Driver/Src/stm32h7xx_hal_dcmi.c:712:12
	ldr	r1, [r0]
	.loc	7 712 25                        @ libraries/STM32H7xx_HAL/STM32H7xx_HAL_Driver/Src/stm32h7xx_hal_dcmi.c:712:25
	ldr	r0, [r1]
	bic	r0, r0, #1
	str	r0, [r1]
	.loc	7 715 5 is_stmt 1               @ libraries/STM32H7xx_HAL/STM32H7xx_HAL_Driver/Src/stm32h7xx_hal_dcmi.c:715:5
	b	.LBB8_7
.LBB8_7:                                @ =>This Inner Loop Header: Depth=1
.Ltmp107:
	.loc	7 717 12                        @ libraries/STM32H7xx_HAL/STM32H7xx_HAL_Driver/Src/stm32h7xx_hal_dcmi.c:717:12
	ldr	r0, [sp, #4]
	subs	r0, #1
	str	r0, [sp, #4]
.Ltmp108:
	.loc	7 718 11                        @ libraries/STM32H7xx_HAL/STM32H7xx_HAL_Driver/Src/stm32h7xx_hal_dcmi.c:718:11
	ldr	r0, [sp, #4]
.Ltmp109:
	.loc	7 718 11 is_stmt 0              @ libraries/STM32H7xx_HAL/STM32H7xx_HAL_Driver/Src/stm32h7xx_hal_dcmi.c:718:11
	cbnz	r0, .LBB8_9
	b	.LBB8_8
.LBB8_8:
.Ltmp110:
	.loc	7 721 9 is_stmt 1               @ libraries/STM32H7xx_HAL/STM32H7xx_HAL_Driver/Src/stm32h7xx_hal_dcmi.c:721:9
	ldr	r1, [sp, #8]
	.loc	7 721 26 is_stmt 0              @ libraries/STM32H7xx_HAL/STM32H7xx_HAL_Driver/Src/stm32h7xx_hal_dcmi.c:721:26
	ldr	r0, [r1, #76]
	orr	r0, r0, #32
	str	r0, [r1, #76]
	.loc	7 724 9 is_stmt 1               @ libraries/STM32H7xx_HAL/STM32H7xx_HAL_Driver/Src/stm32h7xx_hal_dcmi.c:724:9
	ldr	r1, [sp, #8]
	movs	r0, #1
	.loc	7 724 22 is_stmt 0              @ libraries/STM32H7xx_HAL/STM32H7xx_HAL_Driver/Src/stm32h7xx_hal_dcmi.c:724:22
	strb.w	r0, [r1, #53]
	movs	r0, #3
	.loc	7 726 16 is_stmt 1              @ libraries/STM32H7xx_HAL/STM32H7xx_HAL_Driver/Src/stm32h7xx_hal_dcmi.c:726:16
	strb.w	r0, [sp, #3]
	.loc	7 727 9                         @ libraries/STM32H7xx_HAL/STM32H7xx_HAL_Driver/Src/stm32h7xx_hal_dcmi.c:727:9
	b	.LBB8_11
.Ltmp111:
.LBB8_9:                                @   in Loop: Header=BB8_7 Depth=1
	.loc	7 729 5                         @ libraries/STM32H7xx_HAL/STM32H7xx_HAL_Driver/Src/stm32h7xx_hal_dcmi.c:729:5
	b	.LBB8_10
.Ltmp112:
.LBB8_10:                               @   in Loop: Header=BB8_7 Depth=1
	.loc	7 730 12                        @ libraries/STM32H7xx_HAL/STM32H7xx_HAL_Driver/Src/stm32h7xx_hal_dcmi.c:730:12
	ldr	r0, [sp, #8]
	.loc	7 730 19 is_stmt 0              @ libraries/STM32H7xx_HAL/STM32H7xx_HAL_Driver/Src/stm32h7xx_hal_dcmi.c:730:19
	ldr	r0, [r0]
	.loc	7 730 29                        @ libraries/STM32H7xx_HAL/STM32H7xx_HAL_Driver/Src/stm32h7xx_hal_dcmi.c:730:29
	ldr	r0, [r0]
.Ltmp113:
	.loc	7 729 5 is_stmt 1               @ libraries/STM32H7xx_HAL/STM32H7xx_HAL_Driver/Src/stm32h7xx_hal_dcmi.c:729:5
	lsls	r0, r0, #31
	cmp	r0, #0
	bne	.LBB8_7
	b	.LBB8_11
.Ltmp114:
.LBB8_11:
	.loc	7 731 3                         @ libraries/STM32H7xx_HAL/STM32H7xx_HAL_Driver/Src/stm32h7xx_hal_dcmi.c:731:3
	b	.LBB8_12
.Ltmp115:
.LBB8_12:
	.loc	7 733 3                         @ libraries/STM32H7xx_HAL/STM32H7xx_HAL_Driver/Src/stm32h7xx_hal_dcmi.c:733:3
	b	.LBB8_13
.LBB8_13:
.Ltmp116:
	.loc	7 733 3 is_stmt 0               @ libraries/STM32H7xx_HAL/STM32H7xx_HAL_Driver/Src/stm32h7xx_hal_dcmi.c:733:3
	ldr	r1, [sp, #8]
	movs	r0, #0
	strb.w	r0, [r1, #52]
	b	.LBB8_14
.Ltmp117:
.LBB8_14:
	.loc	7 736 10 is_stmt 1              @ libraries/STM32H7xx_HAL/STM32H7xx_HAL_Driver/Src/stm32h7xx_hal_dcmi.c:736:10
	ldrb.w	r0, [sp, #3]
	.loc	7 736 3 is_stmt 0               @ libraries/STM32H7xx_HAL/STM32H7xx_HAL_Driver/Src/stm32h7xx_hal_dcmi.c:736:3
	strb.w	r0, [sp, #15]
	b	.LBB8_15
.LBB8_15:
	.loc	7 737 1 is_stmt 1               @ libraries/STM32H7xx_HAL/STM32H7xx_HAL_Driver/Src/stm32h7xx_hal_dcmi.c:737:1
	ldrb.w	r0, [sp, #15]
	add	sp, #16
	bx	lr
.Ltmp118:
.Lfunc_end8:
	.size	HAL_DCMI_Suspend, .Lfunc_end8-HAL_DCMI_Suspend
	.cfi_endproc
	.cantunwind
	.fnend
                                        @ -- End function
	.section	.text.HAL_DCMI_Resume,"ax",%progbits
	.hidden	HAL_DCMI_Resume                 @ -- Begin function HAL_DCMI_Resume
	.globl	HAL_DCMI_Resume
	.p2align	3
	.type	HAL_DCMI_Resume,%function
	.code	16                              @ @HAL_DCMI_Resume
	.thumb_func
HAL_DCMI_Resume:
.Lfunc_begin9:
	.loc	7 746 0                         @ libraries/STM32H7xx_HAL/STM32H7xx_HAL_Driver/Src/stm32h7xx_hal_dcmi.c:746:0
	.fnstart
	.cfi_startproc
@ %bb.0:
	.pad	#8
	sub	sp, #8
	.cfi_def_cfa_offset 8
	str	r0, [sp]
.Ltmp119:
	.loc	7 748 3 prologue_end            @ libraries/STM32H7xx_HAL/STM32H7xx_HAL_Driver/Src/stm32h7xx_hal_dcmi.c:748:3
	b	.LBB9_1
.LBB9_1:
.Ltmp120:
	.loc	7 748 3 is_stmt 0               @ libraries/STM32H7xx_HAL/STM32H7xx_HAL_Driver/Src/stm32h7xx_hal_dcmi.c:748:3
	ldr	r0, [sp]
	ldrb.w	r0, [r0, #52]
.Ltmp121:
	.loc	7 748 3                         @ libraries/STM32H7xx_HAL/STM32H7xx_HAL_Driver/Src/stm32h7xx_hal_dcmi.c:748:3
	cmp	r0, #1
	bne	.LBB9_3
	b	.LBB9_2
.LBB9_2:
	.loc	7 0 3                           @ libraries/STM32H7xx_HAL/STM32H7xx_HAL_Driver/Src/stm32h7xx_hal_dcmi.c:0:3
	movs	r0, #2
.Ltmp122:
	.loc	7 748 3                         @ libraries/STM32H7xx_HAL/STM32H7xx_HAL_Driver/Src/stm32h7xx_hal_dcmi.c:748:3
	strb.w	r0, [sp, #7]
	b	.LBB9_10
.Ltmp123:
.LBB9_3:
	.loc	7 748 3                         @ libraries/STM32H7xx_HAL/STM32H7xx_HAL_Driver/Src/stm32h7xx_hal_dcmi.c:748:3
	ldr	r1, [sp]
	movs	r0, #1
	strb.w	r0, [r1, #52]
	b	.LBB9_4
.Ltmp124:
.LBB9_4:
	.loc	7 748 3                         @ libraries/STM32H7xx_HAL/STM32H7xx_HAL_Driver/Src/stm32h7xx_hal_dcmi.c:748:3
	b	.LBB9_5
.Ltmp125:
.LBB9_5:
	.loc	7 750 6 is_stmt 1               @ libraries/STM32H7xx_HAL/STM32H7xx_HAL_Driver/Src/stm32h7xx_hal_dcmi.c:750:6
	ldr	r0, [sp]
	.loc	7 750 13 is_stmt 0              @ libraries/STM32H7xx_HAL/STM32H7xx_HAL_Driver/Src/stm32h7xx_hal_dcmi.c:750:13
	ldrb.w	r0, [r0, #53]
.Ltmp126:
	.loc	7 750 6                         @ libraries/STM32H7xx_HAL/STM32H7xx_HAL_Driver/Src/stm32h7xx_hal_dcmi.c:750:6
	cmp	r0, #5
	bne	.LBB9_7
	b	.LBB9_6
.LBB9_6:
.Ltmp127:
	.loc	7 753 5 is_stmt 1               @ libraries/STM32H7xx_HAL/STM32H7xx_HAL_Driver/Src/stm32h7xx_hal_dcmi.c:753:5
	ldr	r1, [sp]
	movs	r0, #2
	.loc	7 753 18 is_stmt 0              @ libraries/STM32H7xx_HAL/STM32H7xx_HAL_Driver/Src/stm32h7xx_hal_dcmi.c:753:18
	strb.w	r0, [r1, #53]
	.loc	7 756 5 is_stmt 1               @ libraries/STM32H7xx_HAL/STM32H7xx_HAL_Driver/Src/stm32h7xx_hal_dcmi.c:756:5
	ldr	r0, [sp]
	.loc	7 756 12 is_stmt 0              @ libraries/STM32H7xx_HAL/STM32H7xx_HAL_Driver/Src/stm32h7xx_hal_dcmi.c:756:12
	ldr	r1, [r0]
	.loc	7 756 25                        @ libraries/STM32H7xx_HAL/STM32H7xx_HAL_Driver/Src/stm32h7xx_hal_dcmi.c:756:25
	ldr	r0, [r1]
	orr	r0, r0, #1
	str	r0, [r1]
	.loc	7 757 3 is_stmt 1               @ libraries/STM32H7xx_HAL/STM32H7xx_HAL_Driver/Src/stm32h7xx_hal_dcmi.c:757:3
	b	.LBB9_7
.Ltmp128:
.LBB9_7:
	.loc	7 759 3                         @ libraries/STM32H7xx_HAL/STM32H7xx_HAL_Driver/Src/stm32h7xx_hal_dcmi.c:759:3
	b	.LBB9_8
.LBB9_8:
.Ltmp129:
	.loc	7 759 3 is_stmt 0               @ libraries/STM32H7xx_HAL/STM32H7xx_HAL_Driver/Src/stm32h7xx_hal_dcmi.c:759:3
	ldr	r1, [sp]
	movs	r0, #0
	strb.w	r0, [r1, #52]
	b	.LBB9_9
.Ltmp130:
.LBB9_9:
	.loc	7 0 3                           @ libraries/STM32H7xx_HAL/STM32H7xx_HAL_Driver/Src/stm32h7xx_hal_dcmi.c:0:3
	movs	r0, #0
	.loc	7 762 3 is_stmt 1               @ libraries/STM32H7xx_HAL/STM32H7xx_HAL_Driver/Src/stm32h7xx_hal_dcmi.c:762:3
	strb.w	r0, [sp, #7]
	b	.LBB9_10
.LBB9_10:
	.loc	7 763 1                         @ libraries/STM32H7xx_HAL/STM32H7xx_HAL_Driver/Src/stm32h7xx_hal_dcmi.c:763:1
	ldrb.w	r0, [sp, #7]
	add	sp, #8
	bx	lr
.Ltmp131:
.Lfunc_end9:
	.size	HAL_DCMI_Resume, .Lfunc_end9-HAL_DCMI_Resume
	.cfi_endproc
	.cantunwind
	.fnend
                                        @ -- End function
	.section	.text.HAL_DCMI_IRQHandler,"ax",%progbits
	.hidden	HAL_DCMI_IRQHandler             @ -- Begin function HAL_DCMI_IRQHandler
	.globl	HAL_DCMI_IRQHandler
	.p2align	3
	.type	HAL_DCMI_IRQHandler,%function
	.code	16                              @ @HAL_DCMI_IRQHandler
	.thumb_func
HAL_DCMI_IRQHandler:
.Lfunc_begin10:
	.loc	7 772 0                         @ libraries/STM32H7xx_HAL/STM32H7xx_HAL_Driver/Src/stm32h7xx_hal_dcmi.c:772:0
	.fnstart
	.cfi_startproc
@ %bb.0:
	.save	{r7, lr}
	push	{r7, lr}
	.cfi_def_cfa_offset 8
	.cfi_offset lr, -4
	.cfi_offset r7, -8
	.pad	#8
	sub	sp, #8
	.cfi_def_cfa_offset 16
	str	r0, [sp, #4]
.Ltmp132:
	.loc	7 773 24 prologue_end           @ libraries/STM32H7xx_HAL/STM32H7xx_HAL_Driver/Src/stm32h7xx_hal_dcmi.c:773:24
	ldr	r0, [sp, #4]
	ldr	r0, [r0]
	ldr	r0, [r0, #16]
	.loc	7 773 12 is_stmt 0              @ libraries/STM32H7xx_HAL/STM32H7xx_HAL_Driver/Src/stm32h7xx_hal_dcmi.c:773:12
	str	r0, [sp]
	.loc	7 776 6 is_stmt 1               @ libraries/STM32H7xx_HAL/STM32H7xx_HAL_Driver/Src/stm32h7xx_hal_dcmi.c:776:6
	ldrb.w	r0, [sp]
	lsls	r0, r0, #29
	cmp	r0, #0
	bpl	.LBB10_2
	b	.LBB10_1
.LBB10_1:
.Ltmp133:
	.loc	7 779 5                         @ libraries/STM32H7xx_HAL/STM32H7xx_HAL_Driver/Src/stm32h7xx_hal_dcmi.c:779:5
	ldr	r0, [sp, #4]
	ldr	r1, [r0]
	movs	r0, #4
	str	r0, [r1, #20]
	.loc	7 782 5                         @ libraries/STM32H7xx_HAL/STM32H7xx_HAL_Driver/Src/stm32h7xx_hal_dcmi.c:782:5
	ldr	r2, [sp, #4]
	.loc	7 782 22 is_stmt 0              @ libraries/STM32H7xx_HAL/STM32H7xx_HAL_Driver/Src/stm32h7xx_hal_dcmi.c:782:22
	ldr	r1, [r2, #76]
	orr	r1, r1, #2
	str	r1, [r2, #76]
	.loc	7 785 5 is_stmt 1               @ libraries/STM32H7xx_HAL/STM32H7xx_HAL_Driver/Src/stm32h7xx_hal_dcmi.c:785:5
	ldr	r1, [sp, #4]
	.loc	7 785 18 is_stmt 0              @ libraries/STM32H7xx_HAL/STM32H7xx_HAL_Driver/Src/stm32h7xx_hal_dcmi.c:785:18
	strb.w	r0, [r1, #53]
	.loc	7 788 5 is_stmt 1               @ libraries/STM32H7xx_HAL/STM32H7xx_HAL_Driver/Src/stm32h7xx_hal_dcmi.c:788:5
	ldr	r0, [sp, #4]
	.loc	7 788 12 is_stmt 0              @ libraries/STM32H7xx_HAL/STM32H7xx_HAL_Driver/Src/stm32h7xx_hal_dcmi.c:788:12
	ldr	r1, [r0, #72]
	.loc	7 788 42                        @ libraries/STM32H7xx_HAL/STM32H7xx_HAL_Driver/Src/stm32h7xx_hal_dcmi.c:788:42
	movw	r0, :lower16:DCMI_DMAError
	movt	r0, :upper16:DCMI_DMAError
	str	r0, [r1, #80]
	.loc	7 791 28 is_stmt 1              @ libraries/STM32H7xx_HAL/STM32H7xx_HAL_Driver/Src/stm32h7xx_hal_dcmi.c:791:28
	ldr	r0, [sp, #4]
	.loc	7 791 35 is_stmt 0              @ libraries/STM32H7xx_HAL/STM32H7xx_HAL_Driver/Src/stm32h7xx_hal_dcmi.c:791:35
	ldr	r0, [r0, #72]
	.loc	7 791 11                        @ libraries/STM32H7xx_HAL/STM32H7xx_HAL_Driver/Src/stm32h7xx_hal_dcmi.c:791:11
	bl	HAL_DMA_Abort_IT
	.loc	7 792 3 is_stmt 1               @ libraries/STM32H7xx_HAL/STM32H7xx_HAL_Driver/Src/stm32h7xx_hal_dcmi.c:792:3
	b	.LBB10_2
.Ltmp134:
.LBB10_2:
	.loc	7 794 6                         @ libraries/STM32H7xx_HAL/STM32H7xx_HAL_Driver/Src/stm32h7xx_hal_dcmi.c:794:6
	ldrb.w	r0, [sp]
	lsls	r0, r0, #30
	cmp	r0, #0
	bpl	.LBB10_4
	b	.LBB10_3
.LBB10_3:
.Ltmp135:
	.loc	7 797 5                         @ libraries/STM32H7xx_HAL/STM32H7xx_HAL_Driver/Src/stm32h7xx_hal_dcmi.c:797:5
	ldr	r0, [sp, #4]
	ldr	r1, [r0]
	movs	r0, #2
	str	r0, [r1, #20]
	.loc	7 800 5                         @ libraries/STM32H7xx_HAL/STM32H7xx_HAL_Driver/Src/stm32h7xx_hal_dcmi.c:800:5
	ldr	r1, [sp, #4]
	.loc	7 800 22 is_stmt 0              @ libraries/STM32H7xx_HAL/STM32H7xx_HAL_Driver/Src/stm32h7xx_hal_dcmi.c:800:22
	ldr	r0, [r1, #76]
	orr	r0, r0, #1
	str	r0, [r1, #76]
	.loc	7 803 5 is_stmt 1               @ libraries/STM32H7xx_HAL/STM32H7xx_HAL_Driver/Src/stm32h7xx_hal_dcmi.c:803:5
	ldr	r1, [sp, #4]
	movs	r0, #4
	.loc	7 803 18 is_stmt 0              @ libraries/STM32H7xx_HAL/STM32H7xx_HAL_Driver/Src/stm32h7xx_hal_dcmi.c:803:18
	strb.w	r0, [r1, #53]
	.loc	7 806 5 is_stmt 1               @ libraries/STM32H7xx_HAL/STM32H7xx_HAL_Driver/Src/stm32h7xx_hal_dcmi.c:806:5
	ldr	r0, [sp, #4]
	.loc	7 806 12 is_stmt 0              @ libraries/STM32H7xx_HAL/STM32H7xx_HAL_Driver/Src/stm32h7xx_hal_dcmi.c:806:12
	ldr	r1, [r0, #72]
	.loc	7 806 42                        @ libraries/STM32H7xx_HAL/STM32H7xx_HAL_Driver/Src/stm32h7xx_hal_dcmi.c:806:42
	movw	r0, :lower16:DCMI_DMAError
	movt	r0, :upper16:DCMI_DMAError
	str	r0, [r1, #80]
	.loc	7 809 28 is_stmt 1              @ libraries/STM32H7xx_HAL/STM32H7xx_HAL_Driver/Src/stm32h7xx_hal_dcmi.c:809:28
	ldr	r0, [sp, #4]
	.loc	7 809 35 is_stmt 0              @ libraries/STM32H7xx_HAL/STM32H7xx_HAL_Driver/Src/stm32h7xx_hal_dcmi.c:809:35
	ldr	r0, [r0, #72]
	.loc	7 809 11                        @ libraries/STM32H7xx_HAL/STM32H7xx_HAL_Driver/Src/stm32h7xx_hal_dcmi.c:809:11
	bl	HAL_DMA_Abort_IT
	.loc	7 810 3 is_stmt 1               @ libraries/STM32H7xx_HAL/STM32H7xx_HAL_Driver/Src/stm32h7xx_hal_dcmi.c:810:3
	b	.LBB10_4
.Ltmp136:
.LBB10_4:
	.loc	7 812 6                         @ libraries/STM32H7xx_HAL/STM32H7xx_HAL_Driver/Src/stm32h7xx_hal_dcmi.c:812:6
	ldrb.w	r0, [sp]
	lsls	r0, r0, #27
	cmp	r0, #0
	bpl	.LBB10_6
	b	.LBB10_5
.LBB10_5:
.Ltmp137:
	.loc	7 815 5                         @ libraries/STM32H7xx_HAL/STM32H7xx_HAL_Driver/Src/stm32h7xx_hal_dcmi.c:815:5
	ldr	r0, [sp, #4]
	ldr	r1, [r0]
	movs	r0, #16
	str	r0, [r1, #20]
	.loc	7 821 32                        @ libraries/STM32H7xx_HAL/STM32H7xx_HAL_Driver/Src/stm32h7xx_hal_dcmi.c:821:32
	ldr	r0, [sp, #4]
	.loc	7 821 5 is_stmt 0               @ libraries/STM32H7xx_HAL/STM32H7xx_HAL_Driver/Src/stm32h7xx_hal_dcmi.c:821:5
	bl	HAL_DCMI_LineEventCallback
	.loc	7 824 3 is_stmt 1               @ libraries/STM32H7xx_HAL/STM32H7xx_HAL_Driver/Src/stm32h7xx_hal_dcmi.c:824:3
	b	.LBB10_6
.Ltmp138:
.LBB10_6:
	.loc	7 826 6                         @ libraries/STM32H7xx_HAL/STM32H7xx_HAL_Driver/Src/stm32h7xx_hal_dcmi.c:826:6
	ldrb.w	r0, [sp]
	lsls	r0, r0, #28
	cmp	r0, #0
	bpl	.LBB10_8
	b	.LBB10_7
.LBB10_7:
.Ltmp139:
	.loc	7 829 5                         @ libraries/STM32H7xx_HAL/STM32H7xx_HAL_Driver/Src/stm32h7xx_hal_dcmi.c:829:5
	ldr	r0, [sp, #4]
	ldr	r1, [r0]
	movs	r0, #8
	str	r0, [r1, #20]
	.loc	7 835 33                        @ libraries/STM32H7xx_HAL/STM32H7xx_HAL_Driver/Src/stm32h7xx_hal_dcmi.c:835:33
	ldr	r0, [sp, #4]
	.loc	7 835 5 is_stmt 0               @ libraries/STM32H7xx_HAL/STM32H7xx_HAL_Driver/Src/stm32h7xx_hal_dcmi.c:835:5
	bl	HAL_DCMI_VsyncEventCallback
	.loc	7 837 3 is_stmt 1               @ libraries/STM32H7xx_HAL/STM32H7xx_HAL_Driver/Src/stm32h7xx_hal_dcmi.c:837:3
	b	.LBB10_8
.Ltmp140:
.LBB10_8:
	.loc	7 839 6                         @ libraries/STM32H7xx_HAL/STM32H7xx_HAL_Driver/Src/stm32h7xx_hal_dcmi.c:839:6
	ldrb.w	r0, [sp]
	lsls	r0, r0, #31
	cbz	r0, .LBB10_12
	b	.LBB10_9
.LBB10_9:
.Ltmp141:
	.loc	7 842 9                         @ libraries/STM32H7xx_HAL/STM32H7xx_HAL_Driver/Src/stm32h7xx_hal_dcmi.c:842:9
	ldr	r0, [sp, #4]
	.loc	7 842 16 is_stmt 0              @ libraries/STM32H7xx_HAL/STM32H7xx_HAL_Driver/Src/stm32h7xx_hal_dcmi.c:842:16
	ldr	r0, [r0]
	.loc	7 842 26                        @ libraries/STM32H7xx_HAL/STM32H7xx_HAL_Driver/Src/stm32h7xx_hal_dcmi.c:842:26
	ldr	r0, [r0]
.Ltmp142:
	.loc	7 842 8                         @ libraries/STM32H7xx_HAL/STM32H7xx_HAL_Driver/Src/stm32h7xx_hal_dcmi.c:842:8
	lsls	r0, r0, #30
	cmp	r0, #0
	bpl	.LBB10_11
	b	.LBB10_10
.LBB10_10:
.Ltmp143:
	.loc	7 845 7 is_stmt 1               @ libraries/STM32H7xx_HAL/STM32H7xx_HAL_Driver/Src/stm32h7xx_hal_dcmi.c:845:7
	ldr	r0, [sp, #4]
	ldr	r1, [r0]
	ldr	r0, [r1, #12]
	bic	r0, r0, #30
	str	r0, [r1, #12]
	.loc	7 846 5                         @ libraries/STM32H7xx_HAL/STM32H7xx_HAL_Driver/Src/stm32h7xx_hal_dcmi.c:846:5
	b	.LBB10_11
.Ltmp144:
.LBB10_11:
	.loc	7 849 5                         @ libraries/STM32H7xx_HAL/STM32H7xx_HAL_Driver/Src/stm32h7xx_hal_dcmi.c:849:5
	ldr	r0, [sp, #4]
	ldr	r1, [r0]
	ldr	r0, [r1, #12]
	bic	r0, r0, #1
	str	r0, [r1, #12]
	.loc	7 852 5                         @ libraries/STM32H7xx_HAL/STM32H7xx_HAL_Driver/Src/stm32h7xx_hal_dcmi.c:852:5
	ldr	r0, [sp, #4]
	ldr	r1, [r0]
	movs	r0, #1
	str	r0, [r1, #20]
	.loc	7 858 33                        @ libraries/STM32H7xx_HAL/STM32H7xx_HAL_Driver/Src/stm32h7xx_hal_dcmi.c:858:33
	ldr	r0, [sp, #4]
	.loc	7 858 5 is_stmt 0               @ libraries/STM32H7xx_HAL/STM32H7xx_HAL_Driver/Src/stm32h7xx_hal_dcmi.c:858:5
	bl	HAL_DCMI_FrameEventCallback
	.loc	7 861 3 is_stmt 1               @ libraries/STM32H7xx_HAL/STM32H7xx_HAL_Driver/Src/stm32h7xx_hal_dcmi.c:861:3
	b	.LBB10_12
.Ltmp145:
.LBB10_12:
	.loc	7 862 1                         @ libraries/STM32H7xx_HAL/STM32H7xx_HAL_Driver/Src/stm32h7xx_hal_dcmi.c:862:1
	add	sp, #8
	pop	{r7, pc}
.Ltmp146:
.Lfunc_end10:
	.size	HAL_DCMI_IRQHandler, .Lfunc_end10-HAL_DCMI_IRQHandler
	.cfi_endproc
	.cantunwind
	.fnend
                                        @ -- End function
	.section	.text.HAL_DCMI_LineEventCallback,"ax",%progbits
	.hidden	HAL_DCMI_LineEventCallback      @ -- Begin function HAL_DCMI_LineEventCallback
	.weak	HAL_DCMI_LineEventCallback
	.p2align	3
	.type	HAL_DCMI_LineEventCallback,%function
	.code	16                              @ @HAL_DCMI_LineEventCallback
	.thumb_func
HAL_DCMI_LineEventCallback:
.Lfunc_begin11:
	.loc	7 887 0                         @ libraries/STM32H7xx_HAL/STM32H7xx_HAL_Driver/Src/stm32h7xx_hal_dcmi.c:887:0
	.fnstart
	.cfi_startproc
@ %bb.0:
	.pad	#4
	sub	sp, #4
	.cfi_def_cfa_offset 4
	str	r0, [sp]
.Ltmp147:
	.loc	7 893 1 prologue_end            @ libraries/STM32H7xx_HAL/STM32H7xx_HAL_Driver/Src/stm32h7xx_hal_dcmi.c:893:1
	add	sp, #4
	bx	lr
.Ltmp148:
.Lfunc_end11:
	.size	HAL_DCMI_LineEventCallback, .Lfunc_end11-HAL_DCMI_LineEventCallback
	.cfi_endproc
	.cantunwind
	.fnend
                                        @ -- End function
	.section	.text.HAL_DCMI_VsyncEventCallback,"ax",%progbits
	.hidden	HAL_DCMI_VsyncEventCallback     @ -- Begin function HAL_DCMI_VsyncEventCallback
	.weak	HAL_DCMI_VsyncEventCallback
	.p2align	3
	.type	HAL_DCMI_VsyncEventCallback,%function
	.code	16                              @ @HAL_DCMI_VsyncEventCallback
	.thumb_func
HAL_DCMI_VsyncEventCallback:
.Lfunc_begin12:
	.loc	7 902 0                         @ libraries/STM32H7xx_HAL/STM32H7xx_HAL_Driver/Src/stm32h7xx_hal_dcmi.c:902:0
	.fnstart
	.cfi_startproc
@ %bb.0:
	.pad	#4
	sub	sp, #4
	.cfi_def_cfa_offset 4
	str	r0, [sp]
.Ltmp149:
	.loc	7 909 1 prologue_end            @ libraries/STM32H7xx_HAL/STM32H7xx_HAL_Driver/Src/stm32h7xx_hal_dcmi.c:909:1
	add	sp, #4
	bx	lr
.Ltmp150:
.Lfunc_end12:
	.size	HAL_DCMI_VsyncEventCallback, .Lfunc_end12-HAL_DCMI_VsyncEventCallback
	.cfi_endproc
	.cantunwind
	.fnend
                                        @ -- End function
	.section	.text.HAL_DCMI_FrameEventCallback,"ax",%progbits
	.hidden	HAL_DCMI_FrameEventCallback     @ -- Begin function HAL_DCMI_FrameEventCallback
	.weak	HAL_DCMI_FrameEventCallback
	.p2align	3
	.type	HAL_DCMI_FrameEventCallback,%function
	.code	16                              @ @HAL_DCMI_FrameEventCallback
	.thumb_func
HAL_DCMI_FrameEventCallback:
.Lfunc_begin13:
	.loc	7 918 0                         @ libraries/STM32H7xx_HAL/STM32H7xx_HAL_Driver/Src/stm32h7xx_hal_dcmi.c:918:0
	.fnstart
	.cfi_startproc
@ %bb.0:
	.pad	#4
	sub	sp, #4
	.cfi_def_cfa_offset 4
	str	r0, [sp]
.Ltmp151:
	.loc	7 925 1 prologue_end            @ libraries/STM32H7xx_HAL/STM32H7xx_HAL_Driver/Src/stm32h7xx_hal_dcmi.c:925:1
	add	sp, #4
	bx	lr
.Ltmp152:
.Lfunc_end13:
	.size	HAL_DCMI_FrameEventCallback, .Lfunc_end13-HAL_DCMI_FrameEventCallback
	.cfi_endproc
	.cantunwind
	.fnend
                                        @ -- End function
	.section	.text.HAL_DCMI_ErrorCallback,"ax",%progbits
	.hidden	HAL_DCMI_ErrorCallback          @ -- Begin function HAL_DCMI_ErrorCallback
	.weak	HAL_DCMI_ErrorCallback
	.p2align	3
	.type	HAL_DCMI_ErrorCallback,%function
	.code	16                              @ @HAL_DCMI_ErrorCallback
	.thumb_func
HAL_DCMI_ErrorCallback:
.Lfunc_begin14:
	.loc	7 871 0                         @ libraries/STM32H7xx_HAL/STM32H7xx_HAL_Driver/Src/stm32h7xx_hal_dcmi.c:871:0
	.fnstart
	.cfi_startproc
@ %bb.0:
	.pad	#4
	sub	sp, #4
	.cfi_def_cfa_offset 4
	str	r0, [sp]
.Ltmp153:
	.loc	7 878 1 prologue_end            @ libraries/STM32H7xx_HAL/STM32H7xx_HAL_Driver/Src/stm32h7xx_hal_dcmi.c:878:1
	add	sp, #4
	bx	lr
.Ltmp154:
.Lfunc_end14:
	.size	HAL_DCMI_ErrorCallback, .Lfunc_end14-HAL_DCMI_ErrorCallback
	.cfi_endproc
	.cantunwind
	.fnend
                                        @ -- End function
	.section	.text.HAL_DCMI_ConfigCrop,"ax",%progbits
	.hidden	HAL_DCMI_ConfigCrop             @ -- Begin function HAL_DCMI_ConfigCrop
	.globl	HAL_DCMI_ConfigCrop
	.p2align	3
	.type	HAL_DCMI_ConfigCrop,%function
	.code	16                              @ @HAL_DCMI_ConfigCrop
	.thumb_func
HAL_DCMI_ConfigCrop:
.Lfunc_begin15:
	.loc	7 957 0                         @ libraries/STM32H7xx_HAL/STM32H7xx_HAL_Driver/Src/stm32h7xx_hal_dcmi.c:957:0
	.fnstart
	.cfi_startproc
@ %bb.0:
	.pad	#20
	sub	sp, #20
	.cfi_def_cfa_offset 20
	ldr.w	r12, [sp, #20]
	str	r0, [sp, #12]
	str	r1, [sp, #8]
	str	r2, [sp, #4]
	str	r3, [sp]
.Ltmp155:
	.loc	7 959 3 prologue_end            @ libraries/STM32H7xx_HAL/STM32H7xx_HAL_Driver/Src/stm32h7xx_hal_dcmi.c:959:3
	b	.LBB15_1
.LBB15_1:
.Ltmp156:
	.loc	7 959 3 is_stmt 0               @ libraries/STM32H7xx_HAL/STM32H7xx_HAL_Driver/Src/stm32h7xx_hal_dcmi.c:959:3
	ldr	r0, [sp, #12]
	ldrb.w	r0, [r0, #52]
.Ltmp157:
	.loc	7 959 3                         @ libraries/STM32H7xx_HAL/STM32H7xx_HAL_Driver/Src/stm32h7xx_hal_dcmi.c:959:3
	cmp	r0, #1
	bne	.LBB15_3
	b	.LBB15_2
.LBB15_2:
	.loc	7 0 3                           @ libraries/STM32H7xx_HAL/STM32H7xx_HAL_Driver/Src/stm32h7xx_hal_dcmi.c:0:3
	movs	r0, #2
.Ltmp158:
	.loc	7 959 3                         @ libraries/STM32H7xx_HAL/STM32H7xx_HAL_Driver/Src/stm32h7xx_hal_dcmi.c:959:3
	strb.w	r0, [sp, #19]
	b	.LBB15_8
.Ltmp159:
.LBB15_3:
	.loc	7 959 3                         @ libraries/STM32H7xx_HAL/STM32H7xx_HAL_Driver/Src/stm32h7xx_hal_dcmi.c:959:3
	ldr	r1, [sp, #12]
	movs	r0, #1
	strb.w	r0, [r1, #52]
	b	.LBB15_4
.Ltmp160:
.LBB15_4:
	.loc	7 959 3                         @ libraries/STM32H7xx_HAL/STM32H7xx_HAL_Driver/Src/stm32h7xx_hal_dcmi.c:959:3
	b	.LBB15_5
.Ltmp161:
.LBB15_5:
	.loc	7 962 3 is_stmt 1               @ libraries/STM32H7xx_HAL/STM32H7xx_HAL_Driver/Src/stm32h7xx_hal_dcmi.c:962:3
	ldr	r1, [sp, #12]
	movs	r0, #2
	.loc	7 962 16 is_stmt 0              @ libraries/STM32H7xx_HAL/STM32H7xx_HAL_Driver/Src/stm32h7xx_hal_dcmi.c:962:16
	strb.w	r0, [r1, #53]
	.loc	7 971 31 is_stmt 1              @ libraries/STM32H7xx_HAL/STM32H7xx_HAL_Driver/Src/stm32h7xx_hal_dcmi.c:971:31
	ldr	r0, [sp]
	.loc	7 971 40 is_stmt 0              @ libraries/STM32H7xx_HAL/STM32H7xx_HAL_Driver/Src/stm32h7xx_hal_dcmi.c:971:40
	ldr	r1, [sp, #20]
	.loc	7 971 37                        @ libraries/STM32H7xx_HAL/STM32H7xx_HAL_Driver/Src/stm32h7xx_hal_dcmi.c:971:37
	orr.w	r0, r0, r1, lsl #16
	.loc	7 971 3                         @ libraries/STM32H7xx_HAL/STM32H7xx_HAL_Driver/Src/stm32h7xx_hal_dcmi.c:971:3
	ldr	r1, [sp, #12]
	.loc	7 971 10                        @ libraries/STM32H7xx_HAL/STM32H7xx_HAL_Driver/Src/stm32h7xx_hal_dcmi.c:971:10
	ldr	r1, [r1]
	.loc	7 971 28                        @ libraries/STM32H7xx_HAL/STM32H7xx_HAL_Driver/Src/stm32h7xx_hal_dcmi.c:971:28
	str	r0, [r1, #36]
	.loc	7 972 31 is_stmt 1              @ libraries/STM32H7xx_HAL/STM32H7xx_HAL_Driver/Src/stm32h7xx_hal_dcmi.c:972:31
	ldr	r0, [sp, #8]
	.loc	7 972 37 is_stmt 0              @ libraries/STM32H7xx_HAL/STM32H7xx_HAL_Driver/Src/stm32h7xx_hal_dcmi.c:972:37
	ldr	r1, [sp, #4]
	.loc	7 972 34                        @ libraries/STM32H7xx_HAL/STM32H7xx_HAL_Driver/Src/stm32h7xx_hal_dcmi.c:972:34
	orr.w	r0, r0, r1, lsl #16
	.loc	7 972 3                         @ libraries/STM32H7xx_HAL/STM32H7xx_HAL_Driver/Src/stm32h7xx_hal_dcmi.c:972:3
	ldr	r1, [sp, #12]
	.loc	7 972 10                        @ libraries/STM32H7xx_HAL/STM32H7xx_HAL_Driver/Src/stm32h7xx_hal_dcmi.c:972:10
	ldr	r1, [r1]
	.loc	7 972 28                        @ libraries/STM32H7xx_HAL/STM32H7xx_HAL_Driver/Src/stm32h7xx_hal_dcmi.c:972:28
	str	r0, [r1, #32]
	.loc	7 975 3 is_stmt 1               @ libraries/STM32H7xx_HAL/STM32H7xx_HAL_Driver/Src/stm32h7xx_hal_dcmi.c:975:3
	ldr	r1, [sp, #12]
	movs	r0, #1
	.loc	7 975 17 is_stmt 0              @ libraries/STM32H7xx_HAL/STM32H7xx_HAL_Driver/Src/stm32h7xx_hal_dcmi.c:975:17
	strb.w	r0, [r1, #53]
	.loc	7 978 3 is_stmt 1               @ libraries/STM32H7xx_HAL/STM32H7xx_HAL_Driver/Src/stm32h7xx_hal_dcmi.c:978:3
	b	.LBB15_6
.LBB15_6:
.Ltmp162:
	.loc	7 978 3 is_stmt 0               @ libraries/STM32H7xx_HAL/STM32H7xx_HAL_Driver/Src/stm32h7xx_hal_dcmi.c:978:3
	ldr	r1, [sp, #12]
	movs	r0, #0
	strb.w	r0, [r1, #52]
	b	.LBB15_7
.Ltmp163:
.LBB15_7:
	.loc	7 0 3                           @ libraries/STM32H7xx_HAL/STM32H7xx_HAL_Driver/Src/stm32h7xx_hal_dcmi.c:0:3
	movs	r0, #0
	.loc	7 980 3 is_stmt 1               @ libraries/STM32H7xx_HAL/STM32H7xx_HAL_Driver/Src/stm32h7xx_hal_dcmi.c:980:3
	strb.w	r0, [sp, #19]
	b	.LBB15_8
.LBB15_8:
	.loc	7 981 1                         @ libraries/STM32H7xx_HAL/STM32H7xx_HAL_Driver/Src/stm32h7xx_hal_dcmi.c:981:1
	ldrb.w	r0, [sp, #19]
	add	sp, #20
	bx	lr
.Ltmp164:
.Lfunc_end15:
	.size	HAL_DCMI_ConfigCrop, .Lfunc_end15-HAL_DCMI_ConfigCrop
	.cfi_endproc
	.cantunwind
	.fnend
                                        @ -- End function
	.section	.text.HAL_DCMI_DisableCrop,"ax",%progbits
	.hidden	HAL_DCMI_DisableCrop            @ -- Begin function HAL_DCMI_DisableCrop
	.globl	HAL_DCMI_DisableCrop
	.p2align	3
	.type	HAL_DCMI_DisableCrop,%function
	.code	16                              @ @HAL_DCMI_DisableCrop
	.thumb_func
HAL_DCMI_DisableCrop:
.Lfunc_begin16:
	.loc	7 990 0                         @ libraries/STM32H7xx_HAL/STM32H7xx_HAL_Driver/Src/stm32h7xx_hal_dcmi.c:990:0
	.fnstart
	.cfi_startproc
@ %bb.0:
	.pad	#8
	sub	sp, #8
	.cfi_def_cfa_offset 8
	str	r0, [sp]
.Ltmp165:
	.loc	7 992 3 prologue_end            @ libraries/STM32H7xx_HAL/STM32H7xx_HAL_Driver/Src/stm32h7xx_hal_dcmi.c:992:3
	b	.LBB16_1
.LBB16_1:
.Ltmp166:
	.loc	7 992 3 is_stmt 0               @ libraries/STM32H7xx_HAL/STM32H7xx_HAL_Driver/Src/stm32h7xx_hal_dcmi.c:992:3
	ldr	r0, [sp]
	ldrb.w	r0, [r0, #52]
.Ltmp167:
	.loc	7 992 3                         @ libraries/STM32H7xx_HAL/STM32H7xx_HAL_Driver/Src/stm32h7xx_hal_dcmi.c:992:3
	cmp	r0, #1
	bne	.LBB16_3
	b	.LBB16_2
.LBB16_2:
	.loc	7 0 3                           @ libraries/STM32H7xx_HAL/STM32H7xx_HAL_Driver/Src/stm32h7xx_hal_dcmi.c:0:3
	movs	r0, #2
.Ltmp168:
	.loc	7 992 3                         @ libraries/STM32H7xx_HAL/STM32H7xx_HAL_Driver/Src/stm32h7xx_hal_dcmi.c:992:3
	strb.w	r0, [sp, #7]
	b	.LBB16_8
.Ltmp169:
.LBB16_3:
	.loc	7 992 3                         @ libraries/STM32H7xx_HAL/STM32H7xx_HAL_Driver/Src/stm32h7xx_hal_dcmi.c:992:3
	ldr	r1, [sp]
	movs	r0, #1
	strb.w	r0, [r1, #52]
	b	.LBB16_4
.Ltmp170:
.LBB16_4:
	.loc	7 992 3                         @ libraries/STM32H7xx_HAL/STM32H7xx_HAL_Driver/Src/stm32h7xx_hal_dcmi.c:992:3
	b	.LBB16_5
.Ltmp171:
.LBB16_5:
	.loc	7 995 3 is_stmt 1               @ libraries/STM32H7xx_HAL/STM32H7xx_HAL_Driver/Src/stm32h7xx_hal_dcmi.c:995:3
	ldr	r1, [sp]
	movs	r0, #2
	.loc	7 995 16 is_stmt 0              @ libraries/STM32H7xx_HAL/STM32H7xx_HAL_Driver/Src/stm32h7xx_hal_dcmi.c:995:16
	strb.w	r0, [r1, #53]
	.loc	7 998 3 is_stmt 1               @ libraries/STM32H7xx_HAL/STM32H7xx_HAL_Driver/Src/stm32h7xx_hal_dcmi.c:998:3
	ldr	r0, [sp]
	.loc	7 998 10 is_stmt 0              @ libraries/STM32H7xx_HAL/STM32H7xx_HAL_Driver/Src/stm32h7xx_hal_dcmi.c:998:10
	ldr	r1, [r0]
	.loc	7 998 23                        @ libraries/STM32H7xx_HAL/STM32H7xx_HAL_Driver/Src/stm32h7xx_hal_dcmi.c:998:23
	ldr	r0, [r1]
	bic	r0, r0, #4
	str	r0, [r1]
	.loc	7 1001 3 is_stmt 1              @ libraries/STM32H7xx_HAL/STM32H7xx_HAL_Driver/Src/stm32h7xx_hal_dcmi.c:1001:3
	ldr	r1, [sp]
	movs	r0, #1
	.loc	7 1001 16 is_stmt 0             @ libraries/STM32H7xx_HAL/STM32H7xx_HAL_Driver/Src/stm32h7xx_hal_dcmi.c:1001:16
	strb.w	r0, [r1, #53]
	.loc	7 1004 3 is_stmt 1              @ libraries/STM32H7xx_HAL/STM32H7xx_HAL_Driver/Src/stm32h7xx_hal_dcmi.c:1004:3
	b	.LBB16_6
.LBB16_6:
.Ltmp172:
	.loc	7 1004 3 is_stmt 0              @ libraries/STM32H7xx_HAL/STM32H7xx_HAL_Driver/Src/stm32h7xx_hal_dcmi.c:1004:3
	ldr	r1, [sp]
	movs	r0, #0
	strb.w	r0, [r1, #52]
	b	.LBB16_7
.Ltmp173:
.LBB16_7:
	.loc	7 0 3                           @ libraries/STM32H7xx_HAL/STM32H7xx_HAL_Driver/Src/stm32h7xx_hal_dcmi.c:0:3
	movs	r0, #0
	.loc	7 1006 3 is_stmt 1              @ libraries/STM32H7xx_HAL/STM32H7xx_HAL_Driver/Src/stm32h7xx_hal_dcmi.c:1006:3
	strb.w	r0, [sp, #7]
	b	.LBB16_8
.LBB16_8:
	.loc	7 1007 1                        @ libraries/STM32H7xx_HAL/STM32H7xx_HAL_Driver/Src/stm32h7xx_hal_dcmi.c:1007:1
	ldrb.w	r0, [sp, #7]
	add	sp, #8
	bx	lr
.Ltmp174:
.Lfunc_end16:
	.size	HAL_DCMI_DisableCrop, .Lfunc_end16-HAL_DCMI_DisableCrop
	.cfi_endproc
	.cantunwind
	.fnend
                                        @ -- End function
	.section	.text.HAL_DCMI_EnableCrop,"ax",%progbits
	.hidden	HAL_DCMI_EnableCrop             @ -- Begin function HAL_DCMI_EnableCrop
	.globl	HAL_DCMI_EnableCrop
	.p2align	3
	.type	HAL_DCMI_EnableCrop,%function
	.code	16                              @ @HAL_DCMI_EnableCrop
	.thumb_func
HAL_DCMI_EnableCrop:
.Lfunc_begin17:
	.loc	7 1016 0                        @ libraries/STM32H7xx_HAL/STM32H7xx_HAL_Driver/Src/stm32h7xx_hal_dcmi.c:1016:0
	.fnstart
	.cfi_startproc
@ %bb.0:
	.pad	#8
	sub	sp, #8
	.cfi_def_cfa_offset 8
	str	r0, [sp]
.Ltmp175:
	.loc	7 1018 3 prologue_end           @ libraries/STM32H7xx_HAL/STM32H7xx_HAL_Driver/Src/stm32h7xx_hal_dcmi.c:1018:3
	b	.LBB17_1
.LBB17_1:
.Ltmp176:
	.loc	7 1018 3 is_stmt 0              @ libraries/STM32H7xx_HAL/STM32H7xx_HAL_Driver/Src/stm32h7xx_hal_dcmi.c:1018:3
	ldr	r0, [sp]
	ldrb.w	r0, [r0, #52]
.Ltmp177:
	.loc	7 1018 3                        @ libraries/STM32H7xx_HAL/STM32H7xx_HAL_Driver/Src/stm32h7xx_hal_dcmi.c:1018:3
	cmp	r0, #1
	bne	.LBB17_3
	b	.LBB17_2
.LBB17_2:
	.loc	7 0 3                           @ libraries/STM32H7xx_HAL/STM32H7xx_HAL_Driver/Src/stm32h7xx_hal_dcmi.c:0:3
	movs	r0, #2
.Ltmp178:
	.loc	7 1018 3                        @ libraries/STM32H7xx_HAL/STM32H7xx_HAL_Driver/Src/stm32h7xx_hal_dcmi.c:1018:3
	strb.w	r0, [sp, #7]
	b	.LBB17_8
.Ltmp179:
.LBB17_3:
	.loc	7 1018 3                        @ libraries/STM32H7xx_HAL/STM32H7xx_HAL_Driver/Src/stm32h7xx_hal_dcmi.c:1018:3
	ldr	r1, [sp]
	movs	r0, #1
	strb.w	r0, [r1, #52]
	b	.LBB17_4
.Ltmp180:
.LBB17_4:
	.loc	7 1018 3                        @ libraries/STM32H7xx_HAL/STM32H7xx_HAL_Driver/Src/stm32h7xx_hal_dcmi.c:1018:3
	b	.LBB17_5
.Ltmp181:
.LBB17_5:
	.loc	7 1021 3 is_stmt 1              @ libraries/STM32H7xx_HAL/STM32H7xx_HAL_Driver/Src/stm32h7xx_hal_dcmi.c:1021:3
	ldr	r1, [sp]
	movs	r0, #2
	.loc	7 1021 16 is_stmt 0             @ libraries/STM32H7xx_HAL/STM32H7xx_HAL_Driver/Src/stm32h7xx_hal_dcmi.c:1021:16
	strb.w	r0, [r1, #53]
	.loc	7 1024 3 is_stmt 1              @ libraries/STM32H7xx_HAL/STM32H7xx_HAL_Driver/Src/stm32h7xx_hal_dcmi.c:1024:3
	ldr	r0, [sp]
	.loc	7 1024 10 is_stmt 0             @ libraries/STM32H7xx_HAL/STM32H7xx_HAL_Driver/Src/stm32h7xx_hal_dcmi.c:1024:10
	ldr	r1, [r0]
	.loc	7 1024 23                       @ libraries/STM32H7xx_HAL/STM32H7xx_HAL_Driver/Src/stm32h7xx_hal_dcmi.c:1024:23
	ldr	r0, [r1]
	orr	r0, r0, #4
	str	r0, [r1]
	.loc	7 1027 3 is_stmt 1              @ libraries/STM32H7xx_HAL/STM32H7xx_HAL_Driver/Src/stm32h7xx_hal_dcmi.c:1027:3
	ldr	r1, [sp]
	movs	r0, #1
	.loc	7 1027 16 is_stmt 0             @ libraries/STM32H7xx_HAL/STM32H7xx_HAL_Driver/Src/stm32h7xx_hal_dcmi.c:1027:16
	strb.w	r0, [r1, #53]
	.loc	7 1030 3 is_stmt 1              @ libraries/STM32H7xx_HAL/STM32H7xx_HAL_Driver/Src/stm32h7xx_hal_dcmi.c:1030:3
	b	.LBB17_6
.LBB17_6:
.Ltmp182:
	.loc	7 1030 3 is_stmt 0              @ libraries/STM32H7xx_HAL/STM32H7xx_HAL_Driver/Src/stm32h7xx_hal_dcmi.c:1030:3
	ldr	r1, [sp]
	movs	r0, #0
	strb.w	r0, [r1, #52]
	b	.LBB17_7
.Ltmp183:
.LBB17_7:
	.loc	7 0 3                           @ libraries/STM32H7xx_HAL/STM32H7xx_HAL_Driver/Src/stm32h7xx_hal_dcmi.c:0:3
	movs	r0, #0
	.loc	7 1032 3 is_stmt 1              @ libraries/STM32H7xx_HAL/STM32H7xx_HAL_Driver/Src/stm32h7xx_hal_dcmi.c:1032:3
	strb.w	r0, [sp, #7]
	b	.LBB17_8
.LBB17_8:
	.loc	7 1033 1                        @ libraries/STM32H7xx_HAL/STM32H7xx_HAL_Driver/Src/stm32h7xx_hal_dcmi.c:1033:1
	ldrb.w	r0, [sp, #7]
	add	sp, #8
	bx	lr
.Ltmp184:
.Lfunc_end17:
	.size	HAL_DCMI_EnableCrop, .Lfunc_end17-HAL_DCMI_EnableCrop
	.cfi_endproc
	.cantunwind
	.fnend
                                        @ -- End function
	.section	.text.HAL_DCMI_GetState,"ax",%progbits
	.hidden	HAL_DCMI_GetState               @ -- Begin function HAL_DCMI_GetState
	.globl	HAL_DCMI_GetState
	.p2align	3
	.type	HAL_DCMI_GetState,%function
	.code	16                              @ @HAL_DCMI_GetState
	.thumb_func
HAL_DCMI_GetState:
.Lfunc_begin18:
	.loc	7 1062 0                        @ libraries/STM32H7xx_HAL/STM32H7xx_HAL_Driver/Src/stm32h7xx_hal_dcmi.c:1062:0
	.fnstart
	.cfi_startproc
@ %bb.0:
	.pad	#4
	sub	sp, #4
	.cfi_def_cfa_offset 4
	str	r0, [sp]
.Ltmp185:
	.loc	7 1063 10 prologue_end          @ libraries/STM32H7xx_HAL/STM32H7xx_HAL_Driver/Src/stm32h7xx_hal_dcmi.c:1063:10
	ldr	r0, [sp]
	.loc	7 1063 17 is_stmt 0             @ libraries/STM32H7xx_HAL/STM32H7xx_HAL_Driver/Src/stm32h7xx_hal_dcmi.c:1063:17
	ldrb.w	r0, [r0, #53]
	.loc	7 1063 3                        @ libraries/STM32H7xx_HAL/STM32H7xx_HAL_Driver/Src/stm32h7xx_hal_dcmi.c:1063:3
	add	sp, #4
	bx	lr
.Ltmp186:
.Lfunc_end18:
	.size	HAL_DCMI_GetState, .Lfunc_end18-HAL_DCMI_GetState
	.cfi_endproc
	.cantunwind
	.fnend
                                        @ -- End function
	.section	.text.HAL_DCMI_GetError,"ax",%progbits
	.hidden	HAL_DCMI_GetError               @ -- Begin function HAL_DCMI_GetError
	.globl	HAL_DCMI_GetError
	.p2align	3
	.type	HAL_DCMI_GetError,%function
	.code	16                              @ @HAL_DCMI_GetError
	.thumb_func
HAL_DCMI_GetError:
.Lfunc_begin19:
	.loc	7 1073 0 is_stmt 1              @ libraries/STM32H7xx_HAL/STM32H7xx_HAL_Driver/Src/stm32h7xx_hal_dcmi.c:1073:0
	.fnstart
	.cfi_startproc
@ %bb.0:
	.pad	#4
	sub	sp, #4
	.cfi_def_cfa_offset 4
	str	r0, [sp]
.Ltmp187:
	.loc	7 1074 10 prologue_end          @ libraries/STM32H7xx_HAL/STM32H7xx_HAL_Driver/Src/stm32h7xx_hal_dcmi.c:1074:10
	ldr	r0, [sp]
	.loc	7 1074 17 is_stmt 0             @ libraries/STM32H7xx_HAL/STM32H7xx_HAL_Driver/Src/stm32h7xx_hal_dcmi.c:1074:17
	ldr	r0, [r0, #76]
	.loc	7 1074 3                        @ libraries/STM32H7xx_HAL/STM32H7xx_HAL_Driver/Src/stm32h7xx_hal_dcmi.c:1074:3
	add	sp, #4
	bx	lr
.Ltmp188:
.Lfunc_end19:
	.size	HAL_DCMI_GetError, .Lfunc_end19-HAL_DCMI_GetError
	.cfi_endproc
	.cantunwind
	.fnend
                                        @ -- End function
	.section	".note.GNU-stack","",%progbits
	.eabi_attribute	30, 6	@ Tag_ABI_optimization_goals
	.ARM_attribute	16, 1	@ Tag_AV_eba