	.text
	.syntax unified
	.eabi_attribute	67, "2.09"	@ Tag_conformance
	.cpu	cortex-m7
	.eabi_attribute	6, 13	@ Tag_CPU_arch
	.eabi_attribute	7, 77	@ Tag_CPU_arch_profile
	.eabi_attribute	8, 0	@ Tag_ARM_ISA_use
	.eabi_attribute	9, 2	@ Tag_THUMB_ISA_use
	.fpu	fpv5-d16
	.eabi_attribute	36, 1	@ Tag_FP_HP_extension
	.eabi_attribute	34, 1	@ Tag_CPU_unaligned_access
	.eabi_attribute	17, 1	@ Tag_ABI_PCS_GOT_use
	.eabi_attribute	20, 2	@ Tag_ABI_FP_denormal
	.eabi_attribute	21, 0	@ Tag_ABI_FP_exceptions
	.eabi_attribute	23, 1	@ Tag_ABI_FP_number_model
	.eabi_attribute	24, 1	@ Tag_ABI_align_needed
	.eabi_attribute	25, 1	@ Tag_ABI_align_preserved
	.eabi_attribute	28, 1	@ Tag_ABI_VFP_args
	.eabi_attribute	38, 1	@ Tag_ABI_FP_16bit_format
	.eabi_attribute	18, 2	@ Tag_ABI_PCS_wchar_t
	.eabi_attribute	26, 1	@ Tag_ABI_enum_size
	.eabi_attribute	14, 0	@ Tag_ABI_PCS_R9_use
	.file	"stm32h7xx_hal_mdma.c"
	.file	1 "E:\\Smart-access-control\\Hardware\\CODE" "libraries/STM32H7xx_HAL/STM32H7xx_HAL_Driver/Inc/stm32h7xx_hal_def.h"
	.file	2 "E:\\Smart-access-control\\Hardware\\CODE" "libraries/STM32H7xx_HAL/STM32H7xx_HAL_Driver/Inc\\stm32h7xx_hal_mdma.h"
	.file	3 "D:\\Keil_v5\\ARM\\ARMCLANG\\Bin\\..\\include" "stdint.h"
	.file	4 "E:\\Smart-access-control\\Hardware\\CODE" "libraries/STM32H7xx_HAL/CMSIS/Device/ST/STM32H7xx/Include/stm32h750xx.h"
	.section	.text.HAL_MDMA_Init,"ax",%progbits
	.hidden	HAL_MDMA_Init                   @ -- Begin function HAL_MDMA_Init
	.globl	HAL_MDMA_Init
	.p2align	3
	.type	HAL_MDMA_Init,%function
	.code	16                              @ @HAL_MDMA_Init
	.thumb_func
HAL_MDMA_Init:
.Lfunc_begin0:
	.file	5 "E:\\Smart-access-control\\Hardware\\CODE" "libraries/STM32H7xx_HAL/STM32H7xx_HAL_Driver/Src/stm32h7xx_hal_mdma.c"
	.loc	5 220 0                         @ libraries/STM32H7xx_HAL/STM32H7xx_HAL_Driver/Src/stm32h7xx_hal_mdma.c:220:0
	.fnstart
	.cfi_sections .debug_frame
	.cfi_startproc
@ %bb.0:
	.save	{r7, lr}
	push	{r7, lr}
	.cfi_def_cfa_offset 8
	.cfi_offset lr, -4
	.cfi_offset r7, -8
	.pad	#16
	sub	sp, #16
	.cfi_def_cfa_offset 24
	str	r0, [sp, #8]
.Ltmp0:
	.loc	5 221 24 prologue_end           @ libraries/STM32H7xx_HAL/STM32H7xx_HAL_Driver/Src/stm32h7xx_hal_mdma.c:221:24
	bl	HAL_GetTick
	.loc	5 221 12 is_stmt 0              @ libraries/STM32H7xx_HAL/STM32H7xx_HAL_Driver/Src/stm32h7xx_hal_mdma.c:221:12
	str	r0, [sp, #4]
.Ltmp1:
	.loc	5 224 6 is_stmt 1               @ libraries/STM32H7xx_HAL/STM32H7xx_HAL_Driver/Src/stm32h7xx_hal_mdma.c:224:6
	ldr	r0, [sp, #8]
.Ltmp2:
	.loc	5 224 6 is_stmt 0               @ libraries/STM32H7xx_HAL/STM32H7xx_HAL_Driver/Src/stm32h7xx_hal_mdma.c:224:6
	cbnz	r0, .LBB0_2
	b	.LBB0_1
.LBB0_1:
	.loc	5 0 6                           @ libraries/STM32H7xx_HAL/STM32H7xx_HAL_Driver/Src/stm32h7xx_hal_mdma.c:0:6
	movs	r0, #1
.Ltmp3:
	.loc	5 226 5 is_stmt 1               @ libraries/STM32H7xx_HAL/STM32H7xx_HAL_Driver/Src/stm32h7xx_hal_mdma.c:226:5
	strb.w	r0, [sp, #15]
	b	.LBB0_10
.Ltmp4:
.LBB0_2:
	.loc	5 248 3                         @ libraries/STM32H7xx_HAL/STM32H7xx_HAL_Driver/Src/stm32h7xx_hal_mdma.c:248:3
	b	.LBB0_3
.LBB0_3:
.Ltmp5:
	.loc	5 248 3 is_stmt 0               @ libraries/STM32H7xx_HAL/STM32H7xx_HAL_Driver/Src/stm32h7xx_hal_mdma.c:248:3
	ldr	r1, [sp, #8]
	movs	r0, #0
	strb.w	r0, [r1, #60]
	b	.LBB0_4
.Ltmp6:
.LBB0_4:
	.loc	5 251 3 is_stmt 1               @ libraries/STM32H7xx_HAL/STM32H7xx_HAL_Driver/Src/stm32h7xx_hal_mdma.c:251:3
	ldr	r1, [sp, #8]
	movs	r0, #2
	.loc	5 251 16 is_stmt 0              @ libraries/STM32H7xx_HAL/STM32H7xx_HAL_Driver/Src/stm32h7xx_hal_mdma.c:251:16
	strb.w	r0, [r1, #61]
	.loc	5 254 3 is_stmt 1               @ libraries/STM32H7xx_HAL/STM32H7xx_HAL_Driver/Src/stm32h7xx_hal_mdma.c:254:3
	ldr	r0, [sp, #8]
	ldr	r1, [r0]
	ldr	r0, [r1, #12]
	bic	r0, r0, #1
	str	r0, [r1, #12]
	.loc	5 257 3                         @ libraries/STM32H7xx_HAL/STM32H7xx_HAL_Driver/Src/stm32h7xx_hal_mdma.c:257:3
	b	.LBB0_5
.LBB0_5:                                @ =>This Inner Loop Header: Depth=1
	.loc	5 257 10 is_stmt 0              @ libraries/STM32H7xx_HAL/STM32H7xx_HAL_Driver/Src/stm32h7xx_hal_mdma.c:257:10
	ldr	r0, [sp, #8]
	.loc	5 257 17                        @ libraries/STM32H7xx_HAL/STM32H7xx_HAL_Driver/Src/stm32h7xx_hal_mdma.c:257:17
	ldr	r0, [r0]
	.loc	5 257 27                        @ libraries/STM32H7xx_HAL/STM32H7xx_HAL_Driver/Src/stm32h7xx_hal_mdma.c:257:27
	ldr	r0, [r0, #12]
	.loc	5 257 3                         @ libraries/STM32H7xx_HAL/STM32H7xx_HAL_Driver/Src/stm32h7xx_hal_mdma.c:257:3
	lsls	r0, r0, #31
	cbz	r0, .LBB0_9
	b	.LBB0_6
.LBB0_6:                                @   in Loop: Header=BB0_5 Depth=1
.Ltmp7:
	.loc	5 260 9 is_stmt 1               @ libraries/STM32H7xx_HAL/STM32H7xx_HAL_Driver/Src/stm32h7xx_hal_mdma.c:260:9
	bl	HAL_GetTick
	.loc	5 260 25 is_stmt 0              @ libraries/STM32H7xx_HAL/STM32H7xx_HAL_Driver/Src/stm32h7xx_hal_mdma.c:260:25
	ldr	r1, [sp, #4]
	.loc	5 260 23                        @ libraries/STM32H7xx_HAL/STM32H7xx_HAL_Driver/Src/stm32h7xx_hal_mdma.c:260:23
	subs	r0, r0, r1
.Ltmp8:
	.loc	5 260 8                         @ libraries/STM32H7xx_HAL/STM32H7xx_HAL_Driver/Src/stm32h7xx_hal_mdma.c:260:8
	cmp	r0, #6
	blo	.LBB0_8
	b	.LBB0_7
.LBB0_7:
.Ltmp9:
	.loc	5 263 7 is_stmt 1               @ libraries/STM32H7xx_HAL/STM32H7xx_HAL_Driver/Src/stm32h7xx_hal_mdma.c:263:7
	ldr	r1, [sp, #8]
	movs	r0, #64
	.loc	5 263 24 is_stmt 0              @ libraries/STM32H7xx_HAL/STM32H7xx_HAL_Driver/Src/stm32h7xx_hal_mdma.c:263:24
	str	r0, [r1, #104]
	.loc	5 266 7 is_stmt 1               @ libraries/STM32H7xx_HAL/STM32H7xx_HAL_Driver/Src/stm32h7xx_hal_mdma.c:266:7
	ldr	r1, [sp, #8]
	movs	r0, #3
	.loc	5 266 20 is_stmt 0              @ libraries/STM32H7xx_HAL/STM32H7xx_HAL_Driver/Src/stm32h7xx_hal_mdma.c:266:20
	strb.w	r0, [r1, #61]
	movs	r0, #1
	.loc	5 268 7 is_stmt 1               @ libraries/STM32H7xx_HAL/STM32H7xx_HAL_Driver/Src/stm32h7xx_hal_mdma.c:268:7
	strb.w	r0, [sp, #15]
	b	.LBB0_10
.Ltmp10:
.LBB0_8:                                @   in Loop: Header=BB0_5 Depth=1
	.loc	5 257 3                         @ libraries/STM32H7xx_HAL/STM32H7xx_HAL_Driver/Src/stm32h7xx_hal_mdma.c:257:3
	b	.LBB0_5
.LBB0_9:
	.loc	5 273 13                        @ libraries/STM32H7xx_HAL/STM32H7xx_HAL_Driver/Src/stm32h7xx_hal_mdma.c:273:13
	ldr	r0, [sp, #8]
	.loc	5 273 3 is_stmt 0               @ libraries/STM32H7xx_HAL/STM32H7xx_HAL_Driver/Src/stm32h7xx_hal_mdma.c:273:3
	bl	MDMA_Init
	.loc	5 276 3 is_stmt 1               @ libraries/STM32H7xx_HAL/STM32H7xx_HAL_Driver/Src/stm32h7xx_hal_mdma.c:276:3
	ldr	r1, [sp, #8]
	movs	r0, #0
	.loc	5 276 38 is_stmt 0              @ libraries/STM32H7xx_HAL/STM32H7xx_HAL_Driver/Src/stm32h7xx_hal_mdma.c:276:38
	str	r0, [r1, #92]
	.loc	5 277 3 is_stmt 1               @ libraries/STM32H7xx_HAL/STM32H7xx_HAL_Driver/Src/stm32h7xx_hal_mdma.c:277:3
	ldr	r1, [sp, #8]
	.loc	5 277 38 is_stmt 0              @ libraries/STM32H7xx_HAL/STM32H7xx_HAL_Driver/Src/stm32h7xx_hal_mdma.c:277:38
	str	r0, [r1, #96]
	.loc	5 278 3 is_stmt 1               @ libraries/STM32H7xx_HAL/STM32H7xx_HAL_Driver/Src/stm32h7xx_hal_mdma.c:278:3
	ldr	r1, [sp, #8]
	.loc	5 278 33 is_stmt 0              @ libraries/STM32H7xx_HAL/STM32H7xx_HAL_Driver/Src/stm32h7xx_hal_mdma.c:278:33
	str	r0, [r1, #100]
	.loc	5 281 3 is_stmt 1               @ libraries/STM32H7xx_HAL/STM32H7xx_HAL_Driver/Src/stm32h7xx_hal_mdma.c:281:3
	ldr	r1, [sp, #8]
	.loc	5 281 20 is_stmt 0              @ libraries/STM32H7xx_HAL/STM32H7xx_HAL_Driver/Src/stm32h7xx_hal_mdma.c:281:20
	str	r0, [r1, #104]
	.loc	5 284 3 is_stmt 1               @ libraries/STM32H7xx_HAL/STM32H7xx_HAL_Driver/Src/stm32h7xx_hal_mdma.c:284:3
	ldr	r2, [sp, #8]
	movs	r1, #1
	.loc	5 284 16 is_stmt 0              @ libraries/STM32H7xx_HAL/STM32H7xx_HAL_Driver/Src/stm32h7xx_hal_mdma.c:284:16
	strb.w	r1, [r2, #61]
	.loc	5 286 3 is_stmt 1               @ libraries/STM32H7xx_HAL/STM32H7xx_HAL_Driver/Src/stm32h7xx_hal_mdma.c:286:3
	strb.w	r0, [sp, #15]
	b	.LBB0_10
.LBB0_10:
	.loc	5 287 1                         @ libraries/STM32H7xx_HAL/STM32H7xx_HAL_Driver/Src/stm32h7xx_hal_mdma.c:287:1
	ldrb.w	r0, [sp, #15]
	add	sp, #16
	pop	{r7, pc}
.Ltmp11:
.Lfunc_end0:
	.size	HAL_MDMA_Init, .Lfunc_end0-HAL_MDMA_Init
	.cfi_endproc
	.cantunwind
	.fnend
                                        @ -- End function
	.section	.text.MDMA_Init,"ax",%progbits
	.p2align	3                               @ -- Begin function MDMA_Init
	.type	MDMA_Init,%function
	.code	16                              @ @MDMA_Init
	.thumb_func
MDMA_Init:
.Lfunc_begin1:
	.loc	5 1823 0                        @ libraries/STM32H7xx_HAL/STM32H7xx_HAL_Driver/Src/stm32h7xx_hal_mdma.c:1823:0
	.fnstart
	.cfi_startproc
@ %bb.0:
	.pad	#12
	sub	sp, #12
	.cfi_def_cfa_offset 12
	str	r0, [sp, #8]
.Ltmp12:
	.loc	5 1827 26 prologue_end          @ libraries/STM32H7xx_HAL/STM32H7xx_HAL_Driver/Src/stm32h7xx_hal_mdma.c:1827:26
	ldr	r2, [sp, #8]
	.loc	5 1827 10 is_stmt 0             @ libraries/STM32H7xx_HAL/STM32H7xx_HAL_Driver/Src/stm32h7xx_hal_mdma.c:1827:10
	ldr	r1, [r2]
	.loc	5 1827 38                       @ libraries/STM32H7xx_HAL/STM32H7xx_HAL_Driver/Src/stm32h7xx_hal_mdma.c:1827:38
	ldr	r0, [r2, #12]
	.loc	5 1827 62                       @ libraries/STM32H7xx_HAL/STM32H7xx_HAL_Driver/Src/stm32h7xx_hal_mdma.c:1827:62
	ldr	r2, [r2, #16]
	.loc	5 1827 48                       @ libraries/STM32H7xx_HAL/STM32H7xx_HAL_Driver/Src/stm32h7xx_hal_mdma.c:1827:48
	orrs	r0, r2
	.loc	5 1827 24                       @ libraries/STM32H7xx_HAL/STM32H7xx_HAL_Driver/Src/stm32h7xx_hal_mdma.c:1827:24
	str	r0, [r1, #12]
	.loc	5 1830 28 is_stmt 1             @ libraries/STM32H7xx_HAL/STM32H7xx_HAL_Driver/Src/stm32h7xx_hal_mdma.c:1830:28
	ldr	r3, [sp, #8]
	.loc	5 1830 10 is_stmt 0             @ libraries/STM32H7xx_HAL/STM32H7xx_HAL_Driver/Src/stm32h7xx_hal_mdma.c:1830:10
	str	r3, [sp]                        @ 4-byte Spill
	ldr	r1, [r3]
	.loc	5 1835 40 is_stmt 1             @ libraries/STM32H7xx_HAL/STM32H7xx_HAL_Driver/Src/stm32h7xx_hal_mdma.c:1835:40
	ldr	r2, [r3, #8]
	.loc	5 1830 40                       @ libraries/STM32H7xx_HAL/STM32H7xx_HAL_Driver/Src/stm32h7xx_hal_mdma.c:1830:40
	ldr	r0, [r3, #20]
	.loc	5 1830 69 is_stmt 0             @ libraries/STM32H7xx_HAL/STM32H7xx_HAL_Driver/Src/stm32h7xx_hal_mdma.c:1830:69
	ldr.w	r12, [r3, #24]
	.loc	5 1830 55                       @ libraries/STM32H7xx_HAL/STM32H7xx_HAL_Driver/Src/stm32h7xx_hal_mdma.c:1830:55
	orr.w	r0, r0, r12
	.loc	5 1831 40 is_stmt 1             @ libraries/STM32H7xx_HAL/STM32H7xx_HAL_Driver/Src/stm32h7xx_hal_mdma.c:1831:40
	ldr.w	r12, [r3, #28]
	.loc	5 1830 84                       @ libraries/STM32H7xx_HAL/STM32H7xx_HAL_Driver/Src/stm32h7xx_hal_mdma.c:1830:84
	orr.w	r0, r0, r12
	.loc	5 1831 69                       @ libraries/STM32H7xx_HAL/STM32H7xx_HAL_Driver/Src/stm32h7xx_hal_mdma.c:1831:69
	ldr.w	r12, [r3, #32]
	.loc	5 1831 55 is_stmt 0             @ libraries/STM32H7xx_HAL/STM32H7xx_HAL_Driver/Src/stm32h7xx_hal_mdma.c:1831:55
	orr.w	r0, r0, r12
	.loc	5 1832 40 is_stmt 1             @ libraries/STM32H7xx_HAL/STM32H7xx_HAL_Driver/Src/stm32h7xx_hal_mdma.c:1832:40
	ldr.w	r12, [r3, #36]
	.loc	5 1831 84                       @ libraries/STM32H7xx_HAL/STM32H7xx_HAL_Driver/Src/stm32h7xx_hal_mdma.c:1831:84
	orr.w	r0, r0, r12
	.loc	5 1832 69                       @ libraries/STM32H7xx_HAL/STM32H7xx_HAL_Driver/Src/stm32h7xx_hal_mdma.c:1832:69
	ldr.w	r12, [r3, #44]
	.loc	5 1832 55 is_stmt 0             @ libraries/STM32H7xx_HAL/STM32H7xx_HAL_Driver/Src/stm32h7xx_hal_mdma.c:1832:55
	orr.w	r0, r0, r12
	.loc	5 1833 40 is_stmt 1             @ libraries/STM32H7xx_HAL/STM32H7xx_HAL_Driver/Src/stm32h7xx_hal_mdma.c:1833:40
	ldr.w	r12, [r3, #48]
	.loc	5 1832 84                       @ libraries/STM32H7xx_HAL/STM32H7xx_HAL_Driver/Src/stm32h7xx_hal_mdma.c:1832:84
	orr.w	r0, r0, r12
	.loc	5 1834 42                       @ libraries/STM32H7xx_HAL/STM32H7xx_HAL_Driver/Src/stm32h7xx_hal_mdma.c:1834:42
	ldr.w	r12, [r3, #40]
	movs	r3, #0
	movt	r3, #65532
	.loc	5 1834 69 is_stmt 0             @ libraries/STM32H7xx_HAL/STM32H7xx_HAL_Driver/Src/stm32h7xx_hal_mdma.c:1834:69
	add.w	r3, r3, r12, lsl #18
	.loc	5 1833 84 is_stmt 1             @ libraries/STM32H7xx_HAL/STM32H7xx_HAL_Driver/Src/stm32h7xx_hal_mdma.c:1833:84
	orrs	r0, r3
	.loc	5 1834 92                       @ libraries/STM32H7xx_HAL/STM32H7xx_HAL_Driver/Src/stm32h7xx_hal_mdma.c:1834:92
	orrs	r0, r2
	.loc	5 1830 25                       @ libraries/STM32H7xx_HAL/STM32H7xx_HAL_Driver/Src/stm32h7xx_hal_mdma.c:1830:25
	str	r0, [r1, #16]
.Ltmp13:
	.loc	5 1838 6                        @ libraries/STM32H7xx_HAL/STM32H7xx_HAL_Driver/Src/stm32h7xx_hal_mdma.c:1838:6
	ldr	r0, [sp, #8]
	.loc	5 1838 18 is_stmt 0             @ libraries/STM32H7xx_HAL/STM32H7xx_HAL_Driver/Src/stm32h7xx_hal_mdma.c:1838:18
	ldr	r0, [r0, #4]
.Ltmp14:
	.loc	5 1838 6                        @ libraries/STM32H7xx_HAL/STM32H7xx_HAL_Driver/Src/stm32h7xx_hal_mdma.c:1838:6
	cmp.w	r0, #1073741824
	bne	.LBB1_2
	b	.LBB1_1
.LBB1_1:
.Ltmp15:
	.loc	5 1846 5 is_stmt 1              @ libraries/STM32H7xx_HAL/STM32H7xx_HAL_Driver/Src/stm32h7xx_hal_mdma.c:1846:5
	ldr	r0, [sp, #8]
	.loc	5 1846 12 is_stmt 0             @ libraries/STM32H7xx_HAL/STM32H7xx_HAL_Driver/Src/stm32h7xx_hal_mdma.c:1846:12
	ldr	r1, [r0]
	.loc	5 1846 27                       @ libraries/STM32H7xx_HAL/STM32H7xx_HAL_Driver/Src/stm32h7xx_hal_mdma.c:1846:27
	ldr	r0, [r1, #16]
	orr	r0, r0, #-1073741824
	str	r0, [r1, #16]
	.loc	5 1847 3 is_stmt 1              @ libraries/STM32H7xx_HAL/STM32H7xx_HAL_Driver/Src/stm32h7xx_hal_mdma.c:1847:3
	b	.LBB1_2
.Ltmp16:
.LBB1_2:
	.loc	5 1850 3                        @ libraries/STM32H7xx_HAL/STM32H7xx_HAL_Driver/Src/stm32h7xx_hal_mdma.c:1850:3
	ldr	r0, [sp, #8]
	.loc	5 1850 10 is_stmt 0             @ libraries/STM32H7xx_HAL/STM32H7xx_HAL_Driver/Src/stm32h7xx_hal_mdma.c:1850:10
	ldr	r1, [r0]
	movs	r0, #0
	.loc	5 1850 27                       @ libraries/STM32H7xx_HAL/STM32H7xx_HAL_Driver/Src/stm32h7xx_hal_mdma.c:1850:27
	str	r0, [r1, #20]
.Ltmp17:
	.loc	5 1853 6 is_stmt 1              @ libraries/STM32H7xx_HAL/STM32H7xx_HAL_Driver/Src/stm32h7xx_hal_mdma.c:1853:6
	ldr	r0, [sp, #8]
	.loc	5 1853 18 is_stmt 0             @ libraries/STM32H7xx_HAL/STM32H7xx_HAL_Driver/Src/stm32h7xx_hal_mdma.c:1853:18
	ldr	r0, [r0, #52]
.Ltmp18:
	.loc	5 1853 6                        @ libraries/STM32H7xx_HAL/STM32H7xx_HAL_Driver/Src/stm32h7xx_hal_mdma.c:1853:6
	cmp.w	r0, #-1
	bgt	.LBB1_4
	b	.LBB1_3
.LBB1_3:
.Ltmp19:
	.loc	5 1855 5 is_stmt 1              @ libraries/STM32H7xx_HAL/STM32H7xx_HAL_Driver/Src/stm32h7xx_hal_mdma.c:1855:5
	ldr	r0, [sp, #8]
	.loc	5 1855 12 is_stmt 0             @ libraries/STM32H7xx_HAL/STM32H7xx_HAL_Driver/Src/stm32h7xx_hal_mdma.c:1855:12
	ldr	r1, [r0]
	.loc	5 1855 29                       @ libraries/STM32H7xx_HAL/STM32H7xx_HAL_Driver/Src/stm32h7xx_hal_mdma.c:1855:29
	ldr	r0, [r1, #20]
	orr	r0, r0, #262144
	str	r0, [r1, #20]
	.loc	5 1857 32 is_stmt 1             @ libraries/STM32H7xx_HAL/STM32H7xx_HAL_Driver/Src/stm32h7xx_hal_mdma.c:1857:32
	ldr	r0, [sp, #8]
	.loc	5 1857 44 is_stmt 0             @ libraries/STM32H7xx_HAL/STM32H7xx_HAL_Driver/Src/stm32h7xx_hal_mdma.c:1857:44
	ldr	r0, [r0, #52]
	.loc	5 1857 30                       @ libraries/STM32H7xx_HAL/STM32H7xx_HAL_Driver/Src/stm32h7xx_hal_mdma.c:1857:30
	rsbs	r0, r0, #0
	.loc	5 1857 17                       @ libraries/STM32H7xx_HAL/STM32H7xx_HAL_Driver/Src/stm32h7xx_hal_mdma.c:1857:17
	str	r0, [sp, #4]
	.loc	5 1858 31 is_stmt 1             @ libraries/STM32H7xx_HAL/STM32H7xx_HAL_Driver/Src/stm32h7xx_hal_mdma.c:1858:31
	ldrh.w	r0, [sp, #4]
	.loc	5 1858 5 is_stmt 0              @ libraries/STM32H7xx_HAL/STM32H7xx_HAL_Driver/Src/stm32h7xx_hal_mdma.c:1858:5
	ldr	r1, [sp, #8]
	.loc	5 1858 12                       @ libraries/STM32H7xx_HAL/STM32H7xx_HAL_Driver/Src/stm32h7xx_hal_mdma.c:1858:12
	ldr	r1, [r1]
	.loc	5 1858 28                       @ libraries/STM32H7xx_HAL/STM32H7xx_HAL_Driver/Src/stm32h7xx_hal_mdma.c:1858:28
	str	r0, [r1, #32]
	.loc	5 1859 3 is_stmt 1              @ libraries/STM32H7xx_HAL/STM32H7xx_HAL_Driver/Src/stm32h7xx_hal_mdma.c:1859:3
	b	.LBB1_5
.Ltmp20:
.LBB1_4:
	.loc	5 1863 42                       @ libraries/STM32H7xx_HAL/STM32H7xx_HAL_Driver/Src/stm32h7xx_hal_mdma.c:1863:42
	ldr	r1, [sp, #8]
	.loc	5 1863 54 is_stmt 0             @ libraries/STM32H7xx_HAL/STM32H7xx_HAL_Driver/Src/stm32h7xx_hal_mdma.c:1863:54
	ldrh	r0, [r1, #52]
	.loc	5 1863 12                       @ libraries/STM32H7xx_HAL/STM32H7xx_HAL_Driver/Src/stm32h7xx_hal_mdma.c:1863:12
	ldr	r1, [r1]
	.loc	5 1863 28                       @ libraries/STM32H7xx_HAL/STM32H7xx_HAL_Driver/Src/stm32h7xx_hal_mdma.c:1863:28
	str	r0, [r1, #32]
	b	.LBB1_5
.Ltmp21:
.LBB1_5:
	.loc	5 1867 6 is_stmt 1              @ libraries/STM32H7xx_HAL/STM32H7xx_HAL_Driver/Src/stm32h7xx_hal_mdma.c:1867:6
	ldr	r0, [sp, #8]
	.loc	5 1867 18 is_stmt 0             @ libraries/STM32H7xx_HAL/STM32H7xx_HAL_Driver/Src/stm32h7xx_hal_mdma.c:1867:18
	ldr	r0, [r0, #56]
.Ltmp22:
	.loc	5 1867 6                        @ libraries/STM32H7xx_HAL/STM32H7xx_HAL_Driver/Src/stm32h7xx_hal_mdma.c:1867:6
	cmp.w	r0, #-1
	bgt	.LBB1_7
	b	.LBB1_6
.LBB1_6:
.Ltmp23:
	.loc	5 1869 5 is_stmt 1              @ libraries/STM32H7xx_HAL/STM32H7xx_HAL_Driver/Src/stm32h7xx_hal_mdma.c:1869:5
	ldr	r0, [sp, #8]
	.loc	5 1869 12 is_stmt 0             @ libraries/STM32H7xx_HAL/STM32H7xx_HAL_Driver/Src/stm32h7xx_hal_mdma.c:1869:12
	ldr	r1, [r0]
	.loc	5 1869 29                       @ libraries/STM32H7xx_HAL/STM32H7xx_HAL_Driver/Src/stm32h7xx_hal_mdma.c:1869:29
	ldr	r0, [r1, #20]
	orr	r0, r0, #524288
	str	r0, [r1, #20]
	.loc	5 1871 32 is_stmt 1             @ libraries/STM32H7xx_HAL/STM32H7xx_HAL_Driver/Src/stm32h7xx_hal_mdma.c:1871:32
	ldr	r0, [sp, #8]
	.loc	5 1871 44 is_stmt 0             @ libraries/STM32H7xx_HAL/STM32H7xx_HAL_Driver/Src/stm32h7xx_hal_mdma.c:1871:44
	ldr	r0, [r0, #56]
	.loc	5 1871 30                       @ libraries/STM32H7xx_HAL/STM32H7xx_HAL_Driver/Src/stm32h7xx_hal_mdma.c:1871:30
	rsbs	r0, r0, #0
	.loc	5 1871 17                       @ libraries/STM32H7xx_HAL/STM32H7xx_HAL_Driver/Src/stm32h7xx_hal_mdma.c:1871:17
	str	r0, [sp, #4]
	.loc	5 1872 33 is_stmt 1             @ libraries/STM32H7xx_HAL/STM32H7xx_HAL_Driver/Src/stm32h7xx_hal_mdma.c:1872:33
	ldr	r2, [sp, #4]
	.loc	5 1872 5 is_stmt 0              @ libraries/STM32H7xx_HAL/STM32H7xx_HAL_Driver/Src/stm32h7xx_hal_mdma.c:1872:5
	ldr	r0, [sp, #8]
	.loc	5 1872 12                       @ libraries/STM32H7xx_HAL/STM32H7xx_HAL_Driver/Src/stm32h7xx_hal_mdma.c:1872:12
	ldr	r1, [r0]
	.loc	5 1872 28                       @ libraries/STM32H7xx_HAL/STM32H7xx_HAL_Driver/Src/stm32h7xx_hal_mdma.c:1872:28
	ldr	r0, [r1, #32]
	orr.w	r0, r0, r2, lsl #16
	str	r0, [r1, #32]
	.loc	5 1873 3 is_stmt 1              @ libraries/STM32H7xx_HAL/STM32H7xx_HAL_Driver/Src/stm32h7xx_hal_mdma.c:1873:3
	b	.LBB1_8
.Ltmp24:
.LBB1_7:
	.loc	5 1877 44                       @ libraries/STM32H7xx_HAL/STM32H7xx_HAL_Driver/Src/stm32h7xx_hal_mdma.c:1877:44
	ldr	r0, [sp, #8]
	.loc	5 1877 12 is_stmt 0             @ libraries/STM32H7xx_HAL/STM32H7xx_HAL_Driver/Src/stm32h7xx_hal_mdma.c:1877:12
	ldr	r1, [r0]
	.loc	5 1877 56                       @ libraries/STM32H7xx_HAL/STM32H7xx_HAL_Driver/Src/stm32h7xx_hal_mdma.c:1877:56
	ldr	r2, [r0, #56]
	.loc	5 1877 28                       @ libraries/STM32H7xx_HAL/STM32H7xx_HAL_Driver/Src/stm32h7xx_hal_mdma.c:1877:28
	ldr	r0, [r1, #32]
	orr.w	r0, r0, r2, lsl #16
	str	r0, [r1, #32]
	b	.LBB1_8
.Ltmp25:
.LBB1_8:
	.loc	5 1881 6 is_stmt 1              @ libraries/STM32H7xx_HAL/STM32H7xx_HAL_Driver/Src/stm32h7xx_hal_mdma.c:1881:6
	ldr	r0, [sp, #8]
	.loc	5 1881 18 is_stmt 0             @ libraries/STM32H7xx_HAL/STM32H7xx_HAL_Driver/Src/stm32h7xx_hal_mdma.c:1881:18
	ldr	r0, [r0, #4]
.Ltmp26:
	.loc	5 1881 6                        @ libraries/STM32H7xx_HAL/STM32H7xx_HAL_Driver/Src/stm32h7xx_hal_mdma.c:1881:6
	cmp.w	r0, #1073741824
	beq	.LBB1_10
	b	.LBB1_9
.LBB1_9:
.Ltmp27:
	.loc	5 1884 29 is_stmt 1             @ libraries/STM32H7xx_HAL/STM32H7xx_HAL_Driver/Src/stm32h7xx_hal_mdma.c:1884:29
	ldr	r1, [sp, #8]
	.loc	5 1884 41 is_stmt 0             @ libraries/STM32H7xx_HAL/STM32H7xx_HAL_Driver/Src/stm32h7xx_hal_mdma.c:1884:41
	ldrb	r0, [r1, #4]
	.loc	5 1884 12                       @ libraries/STM32H7xx_HAL/STM32H7xx_HAL_Driver/Src/stm32h7xx_hal_mdma.c:1884:12
	ldr	r1, [r1]
	.loc	5 1884 27                       @ libraries/STM32H7xx_HAL/STM32H7xx_HAL_Driver/Src/stm32h7xx_hal_mdma.c:1884:27
	str	r0, [r1, #40]
	.loc	5 1885 3 is_stmt 1              @ libraries/STM32H7xx_HAL/STM32H7xx_HAL_Driver/Src/stm32h7xx_hal_mdma.c:1885:3
	b	.LBB1_11
.Ltmp28:
.LBB1_10:
	.loc	5 1888 5                        @ libraries/STM32H7xx_HAL/STM32H7xx_HAL_Driver/Src/stm32h7xx_hal_mdma.c:1888:5
	ldr	r0, [sp, #8]
	.loc	5 1888 12 is_stmt 0             @ libraries/STM32H7xx_HAL/STM32H7xx_HAL_Driver/Src/stm32h7xx_hal_mdma.c:1888:12
	ldr	r1, [r0]
	movs	r0, #0
	.loc	5 1888 27                       @ libraries/STM32H7xx_HAL/STM32H7xx_HAL_Driver/Src/stm32h7xx_hal_mdma.c:1888:27
	str	r0, [r1, #40]
	b	.LBB1_11
.Ltmp29:
.LBB1_11:
	.loc	5 1892 3 is_stmt 1              @ libraries/STM32H7xx_HAL/STM32H7xx_HAL_Driver/Src/stm32h7xx_hal_mdma.c:1892:3
	ldr	r0, [sp, #8]
	.loc	5 1892 10 is_stmt 0             @ libraries/STM32H7xx_HAL/STM32H7xx_HAL_Driver/Src/stm32h7xx_hal_mdma.c:1892:10
	ldr	r1, [r0]
	movs	r0, #0
	.loc	5 1892 25                       @ libraries/STM32H7xx_HAL/STM32H7xx_HAL_Driver/Src/stm32h7xx_hal_mdma.c:1892:25
	str	r0, [r1, #36]
	.loc	5 1893 1 is_stmt 1              @ libraries/STM32H7xx_HAL/STM32H7xx_HAL_Driver/Src/stm32h7xx_hal_mdma.c:1893:1
	add	sp, #12
	bx	lr
.Ltmp30:
.Lfunc_end1:
	.size	MDMA_Init, .Lfunc_end1-MDMA_Init
	.cfi_endproc
	.cantunwind
	.fnend
                                        @ -- End function
	.section	.text.HAL_MDMA_DeInit,"ax",%progbits
	.hidden	HAL_MDMA_DeInit                 @ -- Begin function HAL_MDMA_DeInit
	.globl	HAL_MDMA_DeInit
	.p2align	3
	.type	HAL_MDMA_DeInit,%function
	.code	16                              @ @HAL_MDMA_DeInit
	.thumb_func
HAL_MDMA_DeInit:
.Lfunc_begin2:
	.loc	5 296 0                         @ libraries/STM32H7xx_HAL/STM32H7xx_HAL_Driver/Src/stm32h7xx_hal_mdma.c:296:0
	.fnstart
	.cfi_startproc
@ %bb.0:
	.pad	#12
	sub	sp, #12
	.cfi_def_cfa_offset 12
	str	r0, [sp, #4]
.Ltmp31:
	.loc	5 299 6 prologue_end            @ libraries/STM32H7xx_HAL/STM32H7xx_HAL_Driver/Src/stm32h7xx_hal_mdma.c:299:6
	ldr	r0, [sp, #4]
.Ltmp32:
	.loc	5 299 6 is_stmt 0               @ libraries/STM32H7xx_HAL/STM32H7xx_HAL_Driver/Src/stm32h7xx_hal_mdma.c:299:6
	cbnz	r0, .LBB2_2
	b	.LBB2_1
.LBB2_1:
	.loc	5 0 6                           @ libraries/STM32H7xx_HAL/STM32H7xx_HAL_Driver/Src/stm32h7xx_hal_mdma.c:0:6
	movs	r0, #1
.Ltmp33:
	.loc	5 301 5 is_stmt 1               @ libraries/STM32H7xx_HAL/STM32H7xx_HAL_Driver/Src/stm32h7xx_hal_mdma.c:301:5
	strb.w	r0, [sp, #11]
	b	.LBB2_7
.Ltmp34:
.LBB2_2:
	.loc	5 305 6                         @ libraries/STM32H7xx_HAL/STM32H7xx_HAL_Driver/Src/stm32h7xx_hal_mdma.c:305:6
	ldr	r0, [sp, #4]
	.loc	5 305 13 is_stmt 0              @ libraries/STM32H7xx_HAL/STM32H7xx_HAL_Driver/Src/stm32h7xx_hal_mdma.c:305:13
	ldrb.w	r0, [r0, #61]
.Ltmp35:
	.loc	5 305 6                         @ libraries/STM32H7xx_HAL/STM32H7xx_HAL_Driver/Src/stm32h7xx_hal_mdma.c:305:6
	cmp	r0, #2
	bne	.LBB2_4
	b	.LBB2_3
.LBB2_3:
.Ltmp36:
	.loc	5 307 5 is_stmt 1               @ libraries/STM32H7xx_HAL/STM32H7xx_HAL_Driver/Src/stm32h7xx_hal_mdma.c:307:5
	ldr	r1, [sp, #4]
	mov.w	r0, #256
	.loc	5 307 22 is_stmt 0              @ libraries/STM32H7xx_HAL/STM32H7xx_HAL_Driver/Src/stm32h7xx_hal_mdma.c:307:22
	str	r0, [r1, #104]
	movs	r0, #1
	.loc	5 308 5 is_stmt 1               @ libraries/STM32H7xx_HAL/STM32H7xx_HAL_Driver/Src/stm32h7xx_hal_mdma.c:308:5
	strb.w	r0, [sp, #11]
	b	.LBB2_7
.Ltmp37:
.LBB2_4:
	.loc	5 312 3                         @ libraries/STM32H7xx_HAL/STM32H7xx_HAL_Driver/Src/stm32h7xx_hal_mdma.c:312:3
	ldr	r0, [sp, #4]
	ldr	r1, [r0]
	ldr	r0, [r1, #12]
	bic	r0, r0, #1
	str	r0, [r1, #12]
	.loc	5 315 3                         @ libraries/STM32H7xx_HAL/STM32H7xx_HAL_Driver/Src/stm32h7xx_hal_mdma.c:315:3
	ldr	r0, [sp, #4]
	.loc	5 315 10 is_stmt 0              @ libraries/STM32H7xx_HAL/STM32H7xx_HAL_Driver/Src/stm32h7xx_hal_mdma.c:315:10
	ldr	r1, [r0]
	movs	r0, #0
	.loc	5 315 25                        @ libraries/STM32H7xx_HAL/STM32H7xx_HAL_Driver/Src/stm32h7xx_hal_mdma.c:315:25
	str	r0, [sp]                        @ 4-byte Spill
	str	r0, [r1, #12]
	.loc	5 316 3 is_stmt 1               @ libraries/STM32H7xx_HAL/STM32H7xx_HAL_Driver/Src/stm32h7xx_hal_mdma.c:316:3
	ldr	r1, [sp, #4]
	.loc	5 316 10 is_stmt 0              @ libraries/STM32H7xx_HAL/STM32H7xx_HAL_Driver/Src/stm32h7xx_hal_mdma.c:316:10
	ldr	r1, [r1]
	.loc	5 316 25                        @ libraries/STM32H7xx_HAL/STM32H7xx_HAL_Driver/Src/stm32h7xx_hal_mdma.c:316:25
	str	r0, [r1, #16]
	.loc	5 317 3 is_stmt 1               @ libraries/STM32H7xx_HAL/STM32H7xx_HAL_Driver/Src/stm32h7xx_hal_mdma.c:317:3
	ldr	r1, [sp, #4]
	.loc	5 317 10 is_stmt 0              @ libraries/STM32H7xx_HAL/STM32H7xx_HAL_Driver/Src/stm32h7xx_hal_mdma.c:317:10
	ldr	r1, [r1]
	.loc	5 317 27                        @ libraries/STM32H7xx_HAL/STM32H7xx_HAL_Driver/Src/stm32h7xx_hal_mdma.c:317:27
	str	r0, [r1, #20]
	.loc	5 318 3 is_stmt 1               @ libraries/STM32H7xx_HAL/STM32H7xx_HAL_Driver/Src/stm32h7xx_hal_mdma.c:318:3
	ldr	r1, [sp, #4]
	.loc	5 318 10 is_stmt 0              @ libraries/STM32H7xx_HAL/STM32H7xx_HAL_Driver/Src/stm32h7xx_hal_mdma.c:318:10
	ldr	r1, [r1]
	.loc	5 318 25                        @ libraries/STM32H7xx_HAL/STM32H7xx_HAL_Driver/Src/stm32h7xx_hal_mdma.c:318:25
	str	r0, [r1, #24]
	.loc	5 319 3 is_stmt 1               @ libraries/STM32H7xx_HAL/STM32H7xx_HAL_Driver/Src/stm32h7xx_hal_mdma.c:319:3
	ldr	r1, [sp, #4]
	.loc	5 319 10 is_stmt 0              @ libraries/STM32H7xx_HAL/STM32H7xx_HAL_Driver/Src/stm32h7xx_hal_mdma.c:319:10
	ldr	r1, [r1]
	.loc	5 319 25                        @ libraries/STM32H7xx_HAL/STM32H7xx_HAL_Driver/Src/stm32h7xx_hal_mdma.c:319:25
	str	r0, [r1, #28]
	.loc	5 320 3 is_stmt 1               @ libraries/STM32H7xx_HAL/STM32H7xx_HAL_Driver/Src/stm32h7xx_hal_mdma.c:320:3
	ldr	r1, [sp, #4]
	.loc	5 320 10 is_stmt 0              @ libraries/STM32H7xx_HAL/STM32H7xx_HAL_Driver/Src/stm32h7xx_hal_mdma.c:320:10
	ldr	r1, [r1]
	.loc	5 320 26                        @ libraries/STM32H7xx_HAL/STM32H7xx_HAL_Driver/Src/stm32h7xx_hal_mdma.c:320:26
	str	r0, [r1, #32]
	.loc	5 321 3 is_stmt 1               @ libraries/STM32H7xx_HAL/STM32H7xx_HAL_Driver/Src/stm32h7xx_hal_mdma.c:321:3
	ldr	r1, [sp, #4]
	.loc	5 321 10 is_stmt 0              @ libraries/STM32H7xx_HAL/STM32H7xx_HAL_Driver/Src/stm32h7xx_hal_mdma.c:321:10
	ldr	r1, [r1]
	.loc	5 321 25                        @ libraries/STM32H7xx_HAL/STM32H7xx_HAL_Driver/Src/stm32h7xx_hal_mdma.c:321:25
	str	r0, [r1, #36]
	.loc	5 322 3 is_stmt 1               @ libraries/STM32H7xx_HAL/STM32H7xx_HAL_Driver/Src/stm32h7xx_hal_mdma.c:322:3
	ldr	r1, [sp, #4]
	.loc	5 322 10 is_stmt 0              @ libraries/STM32H7xx_HAL/STM32H7xx_HAL_Driver/Src/stm32h7xx_hal_mdma.c:322:10
	ldr	r1, [r1]
	.loc	5 322 25                        @ libraries/STM32H7xx_HAL/STM32H7xx_HAL_Driver/Src/stm32h7xx_hal_mdma.c:322:25
	str	r0, [r1, #40]
	.loc	5 323 3 is_stmt 1               @ libraries/STM32H7xx_HAL/STM32H7xx_HAL_Driver/Src/stm32h7xx_hal_mdma.c:323:3
	ldr	r1, [sp, #4]
	.loc	5 323 10 is_stmt 0              @ libraries/STM32H7xx_HAL/STM32H7xx_HAL_Driver/Src/stm32h7xx_hal_mdma.c:323:10
	ldr	r1, [r1]
	.loc	5 323 25                        @ libraries/STM32H7xx_HAL/STM32H7xx_HAL_Driver/Src/stm32h7xx_hal_mdma.c:323:25
	str	r0, [r1, #48]
	.loc	5 324 3 is_stmt 1               @ libraries/STM32H7xx_HAL/STM32H7xx_HAL_Driver/Src/stm32h7xx_hal_mdma.c:324:3
	ldr	r1, [sp, #4]
	.loc	5 324 10 is_stmt 0              @ libraries/STM32H7xx_HAL/STM32H7xx_HAL_Driver/Src/stm32h7xx_hal_mdma.c:324:10
	ldr	r1, [r1]
	.loc	5 324 25                        @ libraries/STM32H7xx_HAL/STM32H7xx_HAL_Driver/Src/stm32h7xx_hal_mdma.c:324:25
	str	r0, [r1, #52]
	.loc	5 327 3 is_stmt 1               @ libraries/STM32H7xx_HAL/STM32H7xx_HAL_Driver/Src/stm32h7xx_hal_mdma.c:327:3
	ldr	r1, [sp, #4]
	ldr	r2, [r1]
	movs	r1, #31
	str	r1, [r2, #4]
	.loc	5 330 3                         @ libraries/STM32H7xx_HAL/STM32H7xx_HAL_Driver/Src/stm32h7xx_hal_mdma.c:330:3
	ldr	r1, [sp, #4]
	.loc	5 330 38 is_stmt 0              @ libraries/STM32H7xx_HAL/STM32H7xx_HAL_Driver/Src/stm32h7xx_hal_mdma.c:330:38
	str	r0, [r1, #92]
	.loc	5 331 3 is_stmt 1               @ libraries/STM32H7xx_HAL/STM32H7xx_HAL_Driver/Src/stm32h7xx_hal_mdma.c:331:3
	ldr	r1, [sp, #4]
	.loc	5 331 38 is_stmt 0              @ libraries/STM32H7xx_HAL/STM32H7xx_HAL_Driver/Src/stm32h7xx_hal_mdma.c:331:38
	str	r0, [r1, #96]
	.loc	5 332 3 is_stmt 1               @ libraries/STM32H7xx_HAL/STM32H7xx_HAL_Driver/Src/stm32h7xx_hal_mdma.c:332:3
	ldr	r1, [sp, #4]
	.loc	5 332 33 is_stmt 0              @ libraries/STM32H7xx_HAL/STM32H7xx_HAL_Driver/Src/stm32h7xx_hal_mdma.c:332:33
	str	r0, [r1, #100]
	.loc	5 335 3 is_stmt 1               @ libraries/STM32H7xx_HAL/STM32H7xx_HAL_Driver/Src/stm32h7xx_hal_mdma.c:335:3
	ldr	r1, [sp, #4]
	.loc	5 335 20 is_stmt 0              @ libraries/STM32H7xx_HAL/STM32H7xx_HAL_Driver/Src/stm32h7xx_hal_mdma.c:335:20
	str	r0, [r1, #104]
	.loc	5 338 3 is_stmt 1               @ libraries/STM32H7xx_HAL/STM32H7xx_HAL_Driver/Src/stm32h7xx_hal_mdma.c:338:3
	ldr	r1, [sp, #4]
	.loc	5 338 16 is_stmt 0              @ libraries/STM32H7xx_HAL/STM32H7xx_HAL_Driver/Src/stm32h7xx_hal_mdma.c:338:16
	strb.w	r0, [r1, #61]
	.loc	5 341 3 is_stmt 1               @ libraries/STM32H7xx_HAL/STM32H7xx_HAL_Driver/Src/stm32h7xx_hal_mdma.c:341:3
	b	.LBB2_5
.LBB2_5:
.Ltmp38:
	.loc	5 341 3 is_stmt 0               @ libraries/STM32H7xx_HAL/STM32H7xx_HAL_Driver/Src/stm32h7xx_hal_mdma.c:341:3
	ldr	r1, [sp, #4]
	movs	r0, #0
	strb.w	r0, [r1, #60]
	b	.LBB2_6
.Ltmp39:
.LBB2_6:
	.loc	5 0 3                           @ libraries/STM32H7xx_HAL/STM32H7xx_HAL_Driver/Src/stm32h7xx_hal_mdma.c:0:3
	movs	r0, #0
	.loc	5 343 3 is_stmt 1               @ libraries/STM32H7xx_HAL/STM32H7xx_HAL_Driver/Src/stm32h7xx_hal_mdma.c:343:3
	strb.w	r0, [sp, #11]
	b	.LBB2_7
.LBB2_7:
	.loc	5 344 1                         @ libraries/STM32H7xx_HAL/STM32H7xx_HAL_Driver/Src/stm32h7xx_hal_mdma.c:344:1
	ldrb.w	r0, [sp, #11]
	add	sp, #12
	bx	lr
.Ltmp40:
.Lfunc_end2:
	.size	HAL_MDMA_DeInit, .Lfunc_end2-HAL_MDMA_DeInit
	.cfi_endproc
	.cantunwind
	.fnend
                                        @ -- End function
	.section	.text.HAL_MDMA_ConfigPostRequestMask,"ax",%progbits
	.hidden	HAL_MDMA_ConfigPostRequestMask  @ -- Begin function HAL_MDMA_ConfigPostRequestMask
	.globl	HAL_MDMA_ConfigPostRequestMask
	.p2align	3
	.type	HAL_MDMA_ConfigPostRequestMask,%function
	.code	16                              @ @HAL_MDMA_ConfigPostRequestMask
	.thumb_func
HAL_MDMA_ConfigPostRequestMask:
.Lfunc_begin3:
	.loc	5 356 0                         @ libraries/STM32H7xx_HAL/STM32H7xx_HAL_Driver/Src/stm32h7xx_hal_mdma.c:356:0
	.fnstart
	.cfi_startproc
@ %bb.0:
	.pad	#20
	sub	sp, #20
	.cfi_def_cfa_offset 20
	str	r0, [sp, #12]
	str	r1, [sp, #8]
	str	r2, [sp, #4]
	movs	r0, #0
.Ltmp41:
	.loc	5 357 22 prologue_end           @ libraries/STM32H7xx_HAL/STM32H7xx_HAL_Driver/Src/stm32h7xx_hal_mdma.c:357:22
	strb.w	r0, [sp, #3]
.Ltmp42:
	.loc	5 360 6                         @ libraries/STM32H7xx_HAL/STM32H7xx_HAL_Driver/Src/stm32h7xx_hal_mdma.c:360:6
	ldr	r0, [sp, #12]
.Ltmp43:
	.loc	5 360 6 is_stmt 0               @ libraries/STM32H7xx_HAL/STM32H7xx_HAL_Driver/Src/stm32h7xx_hal_mdma.c:360:6
	cbnz	r0, .LBB3_2
	b	.LBB3_1
.LBB3_1:
	.loc	5 0 6                           @ libraries/STM32H7xx_HAL/STM32H7xx_HAL_Driver/Src/stm32h7xx_hal_mdma.c:0:6
	movs	r0, #1
.Ltmp44:
	.loc	5 362 5 is_stmt 1               @ libraries/STM32H7xx_HAL/STM32H7xx_HAL_Driver/Src/stm32h7xx_hal_mdma.c:362:5
	strb.w	r0, [sp, #19]
	b	.LBB3_19
.Ltmp45:
.LBB3_2:
	.loc	5 366 3                         @ libraries/STM32H7xx_HAL/STM32H7xx_HAL_Driver/Src/stm32h7xx_hal_mdma.c:366:3
	b	.LBB3_3
.LBB3_3:
.Ltmp46:
	.loc	5 366 3 is_stmt 0               @ libraries/STM32H7xx_HAL/STM32H7xx_HAL_Driver/Src/stm32h7xx_hal_mdma.c:366:3
	ldr	r0, [sp, #12]
	ldrb.w	r0, [r0, #60]
.Ltmp47:
	.loc	5 366 3                         @ libraries/STM32H7xx_HAL/STM32H7xx_HAL_Driver/Src/stm32h7xx_hal_mdma.c:366:3
	cmp	r0, #1
	bne	.LBB3_5
	b	.LBB3_4
.LBB3_4:
	.loc	5 0 3                           @ libraries/STM32H7xx_HAL/STM32H7xx_HAL_Driver/Src/stm32h7xx_hal_mdma.c:0:3
	movs	r0, #2
.Ltmp48:
	.loc	5 366 3                         @ libraries/STM32H7xx_HAL/STM32H7xx_HAL_Driver/Src/stm32h7xx_hal_mdma.c:366:3
	strb.w	r0, [sp, #19]
	b	.LBB3_19
.Ltmp49:
.LBB3_5:
	.loc	5 366 3                         @ libraries/STM32H7xx_HAL/STM32H7xx_HAL_Driver/Src/stm32h7xx_hal_mdma.c:366:3
	ldr	r1, [sp, #12]
	movs	r0, #1
	strb.w	r0, [r1, #60]
	b	.LBB3_6
.Ltmp50:
.LBB3_6:
	.loc	5 366 3                         @ libraries/STM32H7xx_HAL/STM32H7xx_HAL_Driver/Src/stm32h7xx_hal_mdma.c:366:3
	b	.LBB3_7
.Ltmp51:
.LBB3_7:
	.loc	5 368 30 is_stmt 1              @ libraries/STM32H7xx_HAL/STM32H7xx_HAL_Driver/Src/stm32h7xx_hal_mdma.c:368:30
	ldr	r0, [sp, #12]
	.loc	5 368 37 is_stmt 0              @ libraries/STM32H7xx_HAL/STM32H7xx_HAL_Driver/Src/stm32h7xx_hal_mdma.c:368:37
	ldrb.w	r0, [r0, #61]
.Ltmp52:
	.loc	5 368 6                         @ libraries/STM32H7xx_HAL/STM32H7xx_HAL_Driver/Src/stm32h7xx_hal_mdma.c:368:6
	cmp	r0, #1
	bne	.LBB3_15
	b	.LBB3_8
.LBB3_8:
.Ltmp53:
	.loc	5 371 9 is_stmt 1               @ libraries/STM32H7xx_HAL/STM32H7xx_HAL_Driver/Src/stm32h7xx_hal_mdma.c:371:9
	ldr	r0, [sp, #12]
	.loc	5 371 16 is_stmt 0              @ libraries/STM32H7xx_HAL/STM32H7xx_HAL_Driver/Src/stm32h7xx_hal_mdma.c:371:16
	ldr	r0, [r0]
	.loc	5 371 26                        @ libraries/STM32H7xx_HAL/STM32H7xx_HAL_Driver/Src/stm32h7xx_hal_mdma.c:371:26
	ldr	r0, [r0, #16]
.Ltmp54:
	.loc	5 371 8                         @ libraries/STM32H7xx_HAL/STM32H7xx_HAL_Driver/Src/stm32h7xx_hal_mdma.c:371:8
	lsls	r0, r0, #1
	cmp	r0, #0
	bmi	.LBB3_13
	b	.LBB3_9
.LBB3_9:
.Ltmp55:
	.loc	5 374 31 is_stmt 1              @ libraries/STM32H7xx_HAL/STM32H7xx_HAL_Driver/Src/stm32h7xx_hal_mdma.c:374:31
	ldr	r0, [sp, #8]
	.loc	5 374 7 is_stmt 0               @ libraries/STM32H7xx_HAL/STM32H7xx_HAL_Driver/Src/stm32h7xx_hal_mdma.c:374:7
	ldr	r1, [sp, #12]
	.loc	5 374 14                        @ libraries/STM32H7xx_HAL/STM32H7xx_HAL_Driver/Src/stm32h7xx_hal_mdma.c:374:14
	ldr	r1, [r1]
	.loc	5 374 29                        @ libraries/STM32H7xx_HAL/STM32H7xx_HAL_Driver/Src/stm32h7xx_hal_mdma.c:374:29
	str	r0, [r1, #48]
	.loc	5 375 31 is_stmt 1              @ libraries/STM32H7xx_HAL/STM32H7xx_HAL_Driver/Src/stm32h7xx_hal_mdma.c:375:31
	ldr	r0, [sp, #4]
	.loc	5 375 7 is_stmt 0               @ libraries/STM32H7xx_HAL/STM32H7xx_HAL_Driver/Src/stm32h7xx_hal_mdma.c:375:7
	ldr	r1, [sp, #12]
	.loc	5 375 14                        @ libraries/STM32H7xx_HAL/STM32H7xx_HAL_Driver/Src/stm32h7xx_hal_mdma.c:375:14
	ldr	r1, [r1]
	.loc	5 375 29                        @ libraries/STM32H7xx_HAL/STM32H7xx_HAL_Driver/Src/stm32h7xx_hal_mdma.c:375:29
	str	r0, [r1, #52]
.Ltmp56:
	.loc	5 383 10 is_stmt 1              @ libraries/STM32H7xx_HAL/STM32H7xx_HAL_Driver/Src/stm32h7xx_hal_mdma.c:383:10
	ldr	r0, [sp, #8]
.Ltmp57:
	.loc	5 383 10 is_stmt 0              @ libraries/STM32H7xx_HAL/STM32H7xx_HAL_Driver/Src/stm32h7xx_hal_mdma.c:383:10
	cbnz	r0, .LBB3_11
	b	.LBB3_10
.LBB3_10:
.Ltmp58:
	.loc	5 385 9 is_stmt 1               @ libraries/STM32H7xx_HAL/STM32H7xx_HAL_Driver/Src/stm32h7xx_hal_mdma.c:385:9
	ldr	r0, [sp, #12]
	.loc	5 385 16 is_stmt 0              @ libraries/STM32H7xx_HAL/STM32H7xx_HAL_Driver/Src/stm32h7xx_hal_mdma.c:385:16
	ldr	r1, [r0]
	.loc	5 385 31                        @ libraries/STM32H7xx_HAL/STM32H7xx_HAL_Driver/Src/stm32h7xx_hal_mdma.c:385:31
	ldr	r0, [r1, #16]
	bic	r0, r0, #-2147483648
	str	r0, [r1, #16]
	.loc	5 386 7 is_stmt 1               @ libraries/STM32H7xx_HAL/STM32H7xx_HAL_Driver/Src/stm32h7xx_hal_mdma.c:386:7
	b	.LBB3_12
.Ltmp59:
.LBB3_11:
	.loc	5 389 9                         @ libraries/STM32H7xx_HAL/STM32H7xx_HAL_Driver/Src/stm32h7xx_hal_mdma.c:389:9
	ldr	r0, [sp, #12]
	.loc	5 389 16 is_stmt 0              @ libraries/STM32H7xx_HAL/STM32H7xx_HAL_Driver/Src/stm32h7xx_hal_mdma.c:389:16
	ldr	r1, [r0]
	.loc	5 389 31                        @ libraries/STM32H7xx_HAL/STM32H7xx_HAL_Driver/Src/stm32h7xx_hal_mdma.c:389:31
	ldr	r0, [r1, #16]
	orr	r0, r0, #-2147483648
	str	r0, [r1, #16]
	b	.LBB3_12
.Ltmp60:
.LBB3_12:
	.loc	5 391 5 is_stmt 1               @ libraries/STM32H7xx_HAL/STM32H7xx_HAL_Driver/Src/stm32h7xx_hal_mdma.c:391:5
	b	.LBB3_14
.Ltmp61:
.LBB3_13:
	.loc	5 0 5 is_stmt 0                 @ libraries/STM32H7xx_HAL/STM32H7xx_HAL_Driver/Src/stm32h7xx_hal_mdma.c:0:5
	movs	r0, #1
.Ltmp62:
	.loc	5 395 14 is_stmt 1              @ libraries/STM32H7xx_HAL/STM32H7xx_HAL_Driver/Src/stm32h7xx_hal_mdma.c:395:14
	strb.w	r0, [sp, #3]
	b	.LBB3_14
.Ltmp63:
.LBB3_14:
	.loc	5 397 3                         @ libraries/STM32H7xx_HAL/STM32H7xx_HAL_Driver/Src/stm32h7xx_hal_mdma.c:397:3
	b	.LBB3_16
.Ltmp64:
.LBB3_15:
	.loc	5 0 3 is_stmt 0                 @ libraries/STM32H7xx_HAL/STM32H7xx_HAL_Driver/Src/stm32h7xx_hal_mdma.c:0:3
	movs	r0, #1
.Ltmp65:
	.loc	5 401 12 is_stmt 1              @ libraries/STM32H7xx_HAL/STM32H7xx_HAL_Driver/Src/stm32h7xx_hal_mdma.c:401:12
	strb.w	r0, [sp, #3]
	b	.LBB3_16
.Ltmp66:
.LBB3_16:
	.loc	5 404 3                         @ libraries/STM32H7xx_HAL/STM32H7xx_HAL_Driver/Src/stm32h7xx_hal_mdma.c:404:3
	b	.LBB3_17
.LBB3_17:
.Ltmp67:
	.loc	5 404 3 is_stmt 0               @ libraries/STM32H7xx_HAL/STM32H7xx_HAL_Driver/Src/stm32h7xx_hal_mdma.c:404:3
	ldr	r1, [sp, #12]
	movs	r0, #0
	strb.w	r0, [r1, #60]
	b	.LBB3_18
.Ltmp68:
.LBB3_18:
	.loc	5 406 10 is_stmt 1              @ libraries/STM32H7xx_HAL/STM32H7xx_HAL_Driver/Src/stm32h7xx_hal_mdma.c:406:10
	ldrb.w	r0, [sp, #3]
	.loc	5 406 3 is_stmt 0               @ libraries/STM32H7xx_HAL/STM32H7xx_HAL_Driver/Src/stm32h7xx_hal_mdma.c:406:3
	strb.w	r0, [sp, #19]
	b	.LBB3_19
.LBB3_19:
	.loc	5 407 1 is_stmt 1               @ libraries/STM32H7xx_HAL/STM32H7xx_HAL_Driver/Src/stm32h7xx_hal_mdma.c:407:1
	ldrb.w	r0, [sp, #19]
	add	sp, #20
	bx	lr
.Ltmp69:
.Lfunc_end3:
	.size	HAL_MDMA_ConfigPostRequestMask, .Lfunc_end3-HAL_MDMA_ConfigPostRequestMask
	.cfi_endproc
	.cantunwind
	.fnend
                                        @ -- End function
	.section	.text.HAL_MDMA_RegisterCallback,"ax",%progbits
	.hidden	HAL_MDMA_RegisterCallback       @ -- Begin function HAL_MDMA_RegisterCallback
	.globl	HAL_MDMA_RegisterCallback
	.p2align	3
	.type	HAL_MDMA_RegisterCallback,%function
	.code	16                              @ @HAL_MDMA_RegisterCallback
	.thumb_func
HAL_MDMA_RegisterCallback:
.Lfunc_begin4:
	.loc	5 418 0                         @ libraries/STM32H7xx_HAL/STM32H7xx_HAL_Driver/Src/stm32h7xx_hal_mdma.c:418:0
	.fnstart
	.cfi_startproc
@ %bb.0:
	.pad	#24
	sub	sp, #24
	.cfi_def_cfa_offset 24
                                        @ kill: def $r3 killed $r1
	str	r0, [sp, #16]
	strb.w	r1, [sp, #15]
	str	r2, [sp, #8]
	movs	r0, #0
.Ltmp70:
	.loc	5 419 21 prologue_end           @ libraries/STM32H7xx_HAL/STM32H7xx_HAL_Driver/Src/stm32h7xx_hal_mdma.c:419:21
	strb.w	r0, [sp, #7]
.Ltmp71:
	.loc	5 422 6                         @ libraries/STM32H7xx_HAL/STM32H7xx_HAL_Driver/Src/stm32h7xx_hal_mdma.c:422:6
	ldr	r0, [sp, #16]
.Ltmp72:
	.loc	5 422 6 is_stmt 0               @ libraries/STM32H7xx_HAL/STM32H7xx_HAL_Driver/Src/stm32h7xx_hal_mdma.c:422:6
	cbnz	r0, .LBB4_2
	b	.LBB4_1
.LBB4_1:
	.loc	5 0 6                           @ libraries/STM32H7xx_HAL/STM32H7xx_HAL_Driver/Src/stm32h7xx_hal_mdma.c:0:6
	movs	r0, #1
.Ltmp73:
	.loc	5 424 5 is_stmt 1               @ libraries/STM32H7xx_HAL/STM32H7xx_HAL_Driver/Src/stm32h7xx_hal_mdma.c:424:5
	strb.w	r0, [sp, #23]
	b	.LBB4_23
.Ltmp74:
.LBB4_2:
	.loc	5 428 3                         @ libraries/STM32H7xx_HAL/STM32H7xx_HAL_Driver/Src/stm32h7xx_hal_mdma.c:428:3
	b	.LBB4_3
.LBB4_3:
.Ltmp75:
	.loc	5 428 3 is_stmt 0               @ libraries/STM32H7xx_HAL/STM32H7xx_HAL_Driver/Src/stm32h7xx_hal_mdma.c:428:3
	ldr	r0, [sp, #16]
	ldrb.w	r0, [r0, #60]
.Ltmp76:
	.loc	5 428 3                         @ libraries/STM32H7xx_HAL/STM32H7xx_HAL_Driver/Src/stm32h7xx_hal_mdma.c:428:3
	cmp	r0, #1
	bne	.LBB4_5
	b	.LBB4_4
.LBB4_4:
	.loc	5 0 3                           @ libraries/STM32H7xx_HAL/STM32H7xx_HAL_Driver/Src/stm32h7xx_hal_mdma.c:0:3
	movs	r0, #2
.Ltmp77:
	.loc	5 428 3                         @ libraries/STM32H7xx_HAL/STM32H7xx_HAL_Driver/Src/stm32h7xx_hal_mdma.c:428:3
	strb.w	r0, [sp, #23]
	b	.LBB4_23
.Ltmp78:
.LBB4_5:
	.loc	5 428 3                         @ libraries/STM32H7xx_HAL/STM32H7xx_HAL_Driver/Src/stm32h7xx_hal_mdma.c:428:3
	ldr	r1, [sp, #16]
	movs	r0, #1
	strb.w	r0, [r1, #60]
	b	.LBB4_6
.Ltmp79:
.LBB4_6:
	.loc	5 428 3                         @ libraries/STM32H7xx_HAL/STM32H7xx_HAL_Driver/Src/stm32h7xx_hal_mdma.c:428:3
	b	.LBB4_7
.Ltmp80:
.LBB4_7:
	.loc	5 430 30 is_stmt 1              @ libraries/STM32H7xx_HAL/STM32H7xx_HAL_Driver/Src/stm32h7xx_hal_mdma.c:430:30
	ldr	r0, [sp, #16]
	.loc	5 430 37 is_stmt 0              @ libraries/STM32H7xx_HAL/STM32H7xx_HAL_Driver/Src/stm32h7xx_hal_mdma.c:430:37
	ldrb.w	r0, [r0, #61]
.Ltmp81:
	.loc	5 430 6                         @ libraries/STM32H7xx_HAL/STM32H7xx_HAL_Driver/Src/stm32h7xx_hal_mdma.c:430:6
	cmp	r0, #1
	bne	.LBB4_19
	b	.LBB4_8
.LBB4_8:
.Ltmp82:
	.loc	5 432 13 is_stmt 1              @ libraries/STM32H7xx_HAL/STM32H7xx_HAL_Driver/Src/stm32h7xx_hal_mdma.c:432:13
	ldrb.w	r0, [sp, #15]
	.loc	5 432 5 is_stmt 0               @ libraries/STM32H7xx_HAL/STM32H7xx_HAL_Driver/Src/stm32h7xx_hal_mdma.c:432:5
	mov	r1, r0
	str	r1, [sp]                        @ 4-byte Spill
	cmp	r0, #5
	bhi	.LBB4_17
@ %bb.9:
	.loc	5 0 5                           @ libraries/STM32H7xx_HAL/STM32H7xx_HAL_Driver/Src/stm32h7xx_hal_mdma.c:0:5
	ldr	r1, [sp]                        @ 4-byte Reload
.LCPI4_0:
	tbb	[pc, r1]
@ %bb.10:
.LJTI4_0:
	.byte	(.LBB4_11-(.LCPI4_0+4))/2
	.byte	(.LBB4_12-(.LCPI4_0+4))/2
	.byte	(.LBB4_13-(.LCPI4_0+4))/2
	.byte	(.LBB4_14-(.LCPI4_0+4))/2
	.byte	(.LBB4_15-(.LCPI4_0+4))/2
	.byte	(.LBB4_16-(.LCPI4_0+4))/2
	.p2align	1
.LBB4_11:
.Ltmp83:
	.loc	5 435 33 is_stmt 1              @ libraries/STM32H7xx_HAL/STM32H7xx_HAL_Driver/Src/stm32h7xx_hal_mdma.c:435:33
	ldr	r0, [sp, #8]
	.loc	5 435 7 is_stmt 0               @ libraries/STM32H7xx_HAL/STM32H7xx_HAL_Driver/Src/stm32h7xx_hal_mdma.c:435:7
	ldr	r1, [sp, #16]
	.loc	5 435 31                        @ libraries/STM32H7xx_HAL/STM32H7xx_HAL_Driver/Src/stm32h7xx_hal_mdma.c:435:31
	str	r0, [r1, #68]
	.loc	5 436 7 is_stmt 1               @ libraries/STM32H7xx_HAL/STM32H7xx_HAL_Driver/Src/stm32h7xx_hal_mdma.c:436:7
	b	.LBB4_18
.LBB4_12:
	.loc	5 439 39                        @ libraries/STM32H7xx_HAL/STM32H7xx_HAL_Driver/Src/stm32h7xx_hal_mdma.c:439:39
	ldr	r0, [sp, #8]
	.loc	5 439 7 is_stmt 0               @ libraries/STM32H7xx_HAL/STM32H7xx_HAL_Driver/Src/stm32h7xx_hal_mdma.c:439:7
	ldr	r1, [sp, #16]
	.loc	5 439 37                        @ libraries/STM32H7xx_HAL/STM32H7xx_HAL_Driver/Src/stm32h7xx_hal_mdma.c:439:37
	str	r0, [r1, #72]
	.loc	5 440 7 is_stmt 1               @ libraries/STM32H7xx_HAL/STM32H7xx_HAL_Driver/Src/stm32h7xx_hal_mdma.c:440:7
	b	.LBB4_18
.LBB4_13:
	.loc	5 443 38                        @ libraries/STM32H7xx_HAL/STM32H7xx_HAL_Driver/Src/stm32h7xx_hal_mdma.c:443:38
	ldr	r0, [sp, #8]
	.loc	5 443 7 is_stmt 0               @ libraries/STM32H7xx_HAL/STM32H7xx_HAL_Driver/Src/stm32h7xx_hal_mdma.c:443:7
	ldr	r1, [sp, #16]
	.loc	5 443 36                        @ libraries/STM32H7xx_HAL/STM32H7xx_HAL_Driver/Src/stm32h7xx_hal_mdma.c:443:36
	str	r0, [r1, #76]
	.loc	5 444 7 is_stmt 1               @ libraries/STM32H7xx_HAL/STM32H7xx_HAL_Driver/Src/stm32h7xx_hal_mdma.c:444:7
	b	.LBB4_18
.LBB4_14:
	.loc	5 447 44                        @ libraries/STM32H7xx_HAL/STM32H7xx_HAL_Driver/Src/stm32h7xx_hal_mdma.c:447:44
	ldr	r0, [sp, #8]
	.loc	5 447 7 is_stmt 0               @ libraries/STM32H7xx_HAL/STM32H7xx_HAL_Driver/Src/stm32h7xx_hal_mdma.c:447:7
	ldr	r1, [sp, #16]
	.loc	5 447 42                        @ libraries/STM32H7xx_HAL/STM32H7xx_HAL_Driver/Src/stm32h7xx_hal_mdma.c:447:42
	str	r0, [r1, #80]
	.loc	5 448 7 is_stmt 1               @ libraries/STM32H7xx_HAL/STM32H7xx_HAL_Driver/Src/stm32h7xx_hal_mdma.c:448:7
	b	.LBB4_18
.LBB4_15:
	.loc	5 451 34                        @ libraries/STM32H7xx_HAL/STM32H7xx_HAL_Driver/Src/stm32h7xx_hal_mdma.c:451:34
	ldr	r0, [sp, #8]
	.loc	5 451 7 is_stmt 0               @ libraries/STM32H7xx_HAL/STM32H7xx_HAL_Driver/Src/stm32h7xx_hal_mdma.c:451:7
	ldr	r1, [sp, #16]
	.loc	5 451 32                        @ libraries/STM32H7xx_HAL/STM32H7xx_HAL_Driver/Src/stm32h7xx_hal_mdma.c:451:32
	str	r0, [r1, #84]
	.loc	5 452 7 is_stmt 1               @ libraries/STM32H7xx_HAL/STM32H7xx_HAL_Driver/Src/stm32h7xx_hal_mdma.c:452:7
	b	.LBB4_18
.LBB4_16:
	.loc	5 455 34                        @ libraries/STM32H7xx_HAL/STM32H7xx_HAL_Driver/Src/stm32h7xx_hal_mdma.c:455:34
	ldr	r0, [sp, #8]
	.loc	5 455 7 is_stmt 0               @ libraries/STM32H7xx_HAL/STM32H7xx_HAL_Driver/Src/stm32h7xx_hal_mdma.c:455:7
	ldr	r1, [sp, #16]
	.loc	5 455 32                        @ libraries/STM32H7xx_HAL/STM32H7xx_HAL_Driver/Src/stm32h7xx_hal_mdma.c:455:32
	str	r0, [r1, #88]
	.loc	5 456 7 is_stmt 1               @ libraries/STM32H7xx_HAL/STM32H7xx_HAL_Driver/Src/stm32h7xx_hal_mdma.c:456:7
	b	.LBB4_18
.LBB4_17:
	.loc	5 459 7                         @ libraries/STM32H7xx_HAL/STM32H7xx_HAL_Driver/Src/stm32h7xx_hal_mdma.c:459:7
	b	.LBB4_18
.Ltmp84:
.LBB4_18:
	.loc	5 461 3                         @ libraries/STM32H7xx_HAL/STM32H7xx_HAL_Driver/Src/stm32h7xx_hal_mdma.c:461:3
	b	.LBB4_20
.Ltmp85:
.LBB4_19:
	.loc	5 0 3 is_stmt 0                 @ libraries/STM32H7xx_HAL/STM32H7xx_HAL_Driver/Src/stm32h7xx_hal_mdma.c:0:3
	movs	r0, #1
.Ltmp86:
	.loc	5 465 12 is_stmt 1              @ libraries/STM32H7xx_HAL/STM32H7xx_HAL_Driver/Src/stm32h7xx_hal_mdma.c:465:12
	strb.w	r0, [sp, #7]
	b	.LBB4_20
.Ltmp87:
.LBB4_20:
	.loc	5 469 3                         @ libraries/STM32H7xx_HAL/STM32H7xx_HAL_Driver/Src/stm32h7xx_hal_mdma.c:469:3
	b	.LBB4_21
.LBB4_21:
.Ltmp88:
	.loc	5 469 3 is_stmt 0               @ libraries/STM32H7xx_HAL/STM32H7xx_HAL_Driver/Src/stm32h7xx_hal_mdma.c:469:3
	ldr	r1, [sp, #16]
	movs	r0, #0
	strb.w	r0, [r1, #60]
	b	.LBB4_22
.Ltmp89:
.LBB4_22:
	.loc	5 471 10 is_stmt 1              @ libraries/STM32H7xx_HAL/STM32H7xx_HAL_Driver/Src/stm32h7xx_hal_mdma.c:471:10
	ldrb.w	r0, [sp, #7]
	.loc	5 471 3 is_stmt 0               @ libraries/STM32H7xx_HAL/STM32H7xx_HAL_Driver/Src/stm32h7xx_hal_mdma.c:471:3
	strb.w	r0, [sp, #23]
	b	.LBB4_23
.LBB4_23:
	.loc	5 472 1 is_stmt 1               @ libraries/STM32H7xx_HAL/STM32H7xx_HAL_Driver/Src/stm32h7xx_hal_mdma.c:472:1
	ldrb.w	r0, [sp, #23]
	add	sp, #24
	bx	lr
.Ltmp90:
.Lfunc_end4:
	.size	HAL_MDMA_RegisterCallback, .Lfunc_end4-HAL_MDMA_RegisterCallback
	.cfi_endproc
	.cantunwind
	.fnend
                                        @ -- End function
	.section	.text.HAL_MDMA_UnRegisterCallback,"ax",%progbits
	.hidden	HAL_MDMA_UnRegisterCallback     @ -- Begin function HAL_MDMA_UnRegisterCallback
	.globl	HAL_MDMA_UnRegisterCallback
	.p2align	3
	.type	HAL_MDMA_UnRegisterCallback,%function
	.code	16                              @ @HAL_MDMA_UnRegisterCallback
	.thumb_func
HAL_MDMA_UnRegisterCallback:
.Lfunc_begin5:
	.loc	5 483 0                         @ libraries/STM32H7xx_HAL/STM32H7xx_HAL_Driver/Src/stm32h7xx_hal_mdma.c:483:0
	.fnstart
	.cfi_startproc
@ %bb.0:
	.pad	#16
	sub	sp, #16
	.cfi_def_cfa_offset 16
                                        @ kill: def $r2 killed $r1
	str	r0, [sp, #8]
	strb.w	r1, [sp, #7]
	movs	r0, #0
.Ltmp91:
	.loc	5 484 21 prologue_end           @ libraries/STM32H7xx_HAL/STM32H7xx_HAL_Driver/Src/stm32h7xx_hal_mdma.c:484:21
	strb.w	r0, [sp, #6]
.Ltmp92:
	.loc	5 487 6                         @ libraries/STM32H7xx_HAL/STM32H7xx_HAL_Driver/Src/stm32h7xx_hal_mdma.c:487:6
	ldr	r0, [sp, #8]
.Ltmp93:
	.loc	5 487 6 is_stmt 0               @ libraries/STM32H7xx_HAL/STM32H7xx_HAL_Driver/Src/stm32h7xx_hal_mdma.c:487:6
	cbnz	r0, .LBB5_2
	b	.LBB5_1
.LBB5_1:
	.loc	5 0 6                           @ libraries/STM32H7xx_HAL/STM32H7xx_HAL_Driver/Src/stm32h7xx_hal_mdma.c:0:6
	movs	r0, #1
.Ltmp94:
	.loc	5 489 5 is_stmt 1               @ libraries/STM32H7xx_HAL/STM32H7xx_HAL_Driver/Src/stm32h7xx_hal_mdma.c:489:5
	strb.w	r0, [sp, #15]
	b	.LBB5_24
.Ltmp95:
.LBB5_2:
	.loc	5 493 3                         @ libraries/STM32H7xx_HAL/STM32H7xx_HAL_Driver/Src/stm32h7xx_hal_mdma.c:493:3
	b	.LBB5_3
.LBB5_3:
.Ltmp96:
	.loc	5 493 3 is_stmt 0               @ libraries/STM32H7xx_HAL/STM32H7xx_HAL_Driver/Src/stm32h7xx_hal_mdma.c:493:3
	ldr	r0, [sp, #8]
	ldrb.w	r0, [r0, #60]
.Ltmp97:
	.loc	5 493 3                         @ libraries/STM32H7xx_HAL/STM32H7xx_HAL_Driver/Src/stm32h7xx_hal_mdma.c:493:3
	cmp	r0, #1
	bne	.LBB5_5
	b	.LBB5_4
.LBB5_4:
	.loc	5 0 3                           @ libraries/STM32H7xx_HAL/STM32H7xx_HAL_Driver/Src/stm32h7xx_hal_mdma.c:0:3
	movs	r0, #2
.Ltmp98:
	.loc	5 493 3                         @ libraries/STM32H7xx_HAL/STM32H7xx_HAL_Driver/Src/stm32h7xx_hal_mdma.c:493:3
	strb.w	r0, [sp, #15]
	b	.LBB5_24
.Ltmp99:
.LBB5_5:
	.loc	5 493 3                         @ libraries/STM32H7xx_HAL/STM32H7xx_HAL_Driver/Src/stm32h7xx_hal_mdma.c:493:3
	ldr	r1, [sp, #8]
	movs	r0, #1
	strb.w	r0, [r1, #60]
	b	.LBB5_6
.Ltmp100:
.LBB5_6:
	.loc	5 493 3                         @ libraries/STM32H7xx_HAL/STM32H7xx_HAL_Driver/Src/stm32h7xx_hal_mdma.c:493:3
	b	.LBB5_7
.Ltmp101:
.LBB5_7:
	.loc	5 495 30 is_stmt 1              @ libraries/STM32H7xx_HAL/STM32H7xx_HAL_Driver/Src/stm32h7xx_hal_mdma.c:495:30
	ldr	r0, [sp, #8]
	.loc	5 495 37 is_stmt 0              @ libraries/STM32H7xx_HAL/STM32H7xx_HAL_Driver/Src/stm32h7xx_hal_mdma.c:495:37
	ldrb.w	r0, [r0, #61]
.Ltmp102:
	.loc	5 495 6                         @ libraries/STM32H7xx_HAL/STM32H7xx_HAL_Driver/Src/stm32h7xx_hal_mdma.c:495:6
	cmp	r0, #1
	bne	.LBB5_20
	b	.LBB5_8
.LBB5_8:
.Ltmp103:
	.loc	5 497 13 is_stmt 1              @ libraries/STM32H7xx_HAL/STM32H7xx_HAL_Driver/Src/stm32h7xx_hal_mdma.c:497:13
	ldrb.w	r0, [sp, #7]
	.loc	5 497 5 is_stmt 0               @ libraries/STM32H7xx_HAL/STM32H7xx_HAL_Driver/Src/stm32h7xx_hal_mdma.c:497:5
	mov	r1, r0
	str	r1, [sp]                        @ 4-byte Spill
	cmp	r0, #6
	bhi	.LBB5_18
@ %bb.9:
	.loc	5 0 5                           @ libraries/STM32H7xx_HAL/STM32H7xx_HAL_Driver/Src/stm32h7xx_hal_mdma.c:0:5
	ldr	r1, [sp]                        @ 4-byte Reload
.LCPI5_0:
	tbb	[pc, r1]
@ %bb.10:
.LJTI5_0:
	.byte	(.LBB5_11-(.LCPI5_0+4))/2
	.byte	(.LBB5_12-(.LCPI5_0+4))/2
	.byte	(.LBB5_13-(.LCPI5_0+4))/2
	.byte	(.LBB5_14-(.LCPI5_0+4))/2
	.byte	(.LBB5_15-(.LCPI5_0+4))/2
	.byte	(.LBB5_16-(.LCPI5_0+4))/2
	.byte	(.LBB5_17-(.LCPI5_0+4))/2
	.p2align	1
.LBB5_11:
.Ltmp104:
	.loc	5 500 7 is_stmt 1               @ libraries/STM32H7xx_HAL/STM32H7xx_HAL_Driver/Src/stm32h7xx_hal_mdma.c:500:7
	ldr	r1, [sp, #8]
	movs	r0, #0
	.loc	5 500 31 is_stmt 0              @ libraries/STM32H7xx_HAL/STM32H7xx_HAL_Driver/Src/stm32h7xx_hal_mdma.c:500:31
	str	r0, [r1, #68]
	.loc	5 501 7 is_stmt 1               @ libraries/STM32H7xx_HAL/STM32H7xx_HAL_Driver/Src/stm32h7xx_hal_mdma.c:501:7
	b	.LBB5_19
.LBB5_12:
	.loc	5 504 7                         @ libraries/STM32H7xx_HAL/STM32H7xx_HAL_Driver/Src/stm32h7xx_hal_mdma.c:504:7
	ldr	r1, [sp, #8]
	movs	r0, #0
	.loc	5 504 37 is_stmt 0              @ libraries/STM32H7xx_HAL/STM32H7xx_HAL_Driver/Src/stm32h7xx_hal_mdma.c:504:37
	str	r0, [r1, #72]
	.loc	5 505 7 is_stmt 1               @ libraries/STM32H7xx_HAL/STM32H7xx_HAL_Driver/Src/stm32h7xx_hal_mdma.c:505:7
	b	.LBB5_19
.LBB5_13:
	.loc	5 508 7                         @ libraries/STM32H7xx_HAL/STM32H7xx_HAL_Driver/Src/stm32h7xx_hal_mdma.c:508:7
	ldr	r1, [sp, #8]
	movs	r0, #0
	.loc	5 508 36 is_stmt 0              @ libraries/STM32H7xx_HAL/STM32H7xx_HAL_Driver/Src/stm32h7xx_hal_mdma.c:508:36
	str	r0, [r1, #76]
	.loc	5 509 7 is_stmt 1               @ libraries/STM32H7xx_HAL/STM32H7xx_HAL_Driver/Src/stm32h7xx_hal_mdma.c:509:7
	b	.LBB5_19
.LBB5_14:
	.loc	5 512 7                         @ libraries/STM32H7xx_HAL/STM32H7xx_HAL_Driver/Src/stm32h7xx_hal_mdma.c:512:7
	ldr	r1, [sp, #8]
	movs	r0, #0
	.loc	5 512 42 is_stmt 0              @ libraries/STM32H7xx_HAL/STM32H7xx_HAL_Driver/Src/stm32h7xx_hal_mdma.c:512:42
	str	r0, [r1, #80]
	.loc	5 513 7 is_stmt 1               @ libraries/STM32H7xx_HAL/STM32H7xx_HAL_Driver/Src/stm32h7xx_hal_mdma.c:513:7
	b	.LBB5_19
.LBB5_15:
	.loc	5 516 7                         @ libraries/STM32H7xx_HAL/STM32H7xx_HAL_Driver/Src/stm32h7xx_hal_mdma.c:516:7
	ldr	r1, [sp, #8]
	movs	r0, #0
	.loc	5 516 32 is_stmt 0              @ libraries/STM32H7xx_HAL/STM32H7xx_HAL_Driver/Src/stm32h7xx_hal_mdma.c:516:32
	str	r0, [r1, #84]
	.loc	5 517 7 is_stmt 1               @ libraries/STM32H7xx_HAL/STM32H7xx_HAL_Driver/Src/stm32h7xx_hal_mdma.c:517:7
	b	.LBB5_19
.LBB5_16:
	.loc	5 520 7                         @ libraries/STM32H7xx_HAL/STM32H7xx_HAL_Driver/Src/stm32h7xx_hal_mdma.c:520:7
	ldr	r1, [sp, #8]
	movs	r0, #0
	.loc	5 520 32 is_stmt 0              @ libraries/STM32H7xx_HAL/STM32H7xx_HAL_Driver/Src/stm32h7xx_hal_mdma.c:520:32
	str	r0, [r1, #88]
	.loc	5 521 7 is_stmt 1               @ libraries/STM32H7xx_HAL/STM32H7xx_HAL_Driver/Src/stm32h7xx_hal_mdma.c:521:7
	b	.LBB5_19
.LBB5_17:
	.loc	5 524 7                         @ libraries/STM32H7xx_HAL/STM32H7xx_HAL_Driver/Src/stm32h7xx_hal_mdma.c:524:7
	ldr	r1, [sp, #8]
	movs	r0, #0
	.loc	5 524 31 is_stmt 0              @ libraries/STM32H7xx_HAL/STM32H7xx_HAL_Driver/Src/stm32h7xx_hal_mdma.c:524:31
	str	r0, [r1, #68]
	.loc	5 525 7 is_stmt 1               @ libraries/STM32H7xx_HAL/STM32H7xx_HAL_Driver/Src/stm32h7xx_hal_mdma.c:525:7
	ldr	r1, [sp, #8]
	.loc	5 525 37 is_stmt 0              @ libraries/STM32H7xx_HAL/STM32H7xx_HAL_Driver/Src/stm32h7xx_hal_mdma.c:525:37
	str	r0, [r1, #72]
	.loc	5 526 7 is_stmt 1               @ libraries/STM32H7xx_HAL/STM32H7xx_HAL_Driver/Src/stm32h7xx_hal_mdma.c:526:7
	ldr	r1, [sp, #8]
	.loc	5 526 36 is_stmt 0              @ libraries/STM32H7xx_HAL/STM32H7xx_HAL_Driver/Src/stm32h7xx_hal_mdma.c:526:36
	str	r0, [r1, #76]
	.loc	5 527 7 is_stmt 1               @ libraries/STM32H7xx_HAL/STM32H7xx_HAL_Driver/Src/stm32h7xx_hal_mdma.c:527:7
	ldr	r1, [sp, #8]
	.loc	5 527 42 is_stmt 0              @ libraries/STM32H7xx_HAL/STM32H7xx_HAL_Driver/Src/stm32h7xx_hal_mdma.c:527:42
	str	r0, [r1, #80]
	.loc	5 528 7 is_stmt 1               @ libraries/STM32H7xx_HAL/STM32H7xx_HAL_Driver/Src/stm32h7xx_hal_mdma.c:528:7
	ldr	r1, [sp, #8]
	.loc	5 528 32 is_stmt 0              @ libraries/STM32H7xx_HAL/STM32H7xx_HAL_Driver/Src/stm32h7xx_hal_mdma.c:528:32
	str	r0, [r1, #84]
	.loc	5 529 7 is_stmt 1               @ libraries/STM32H7xx_HAL/STM32H7xx_HAL_Driver/Src/stm32h7xx_hal_mdma.c:529:7
	ldr	r1, [sp, #8]
	.loc	5 529 32 is_stmt 0              @ libraries/STM32H7xx_HAL/STM32H7xx_HAL_Driver/Src/stm32h7xx_hal_mdma.c:529:32
	str	r0, [r1, #88]
	.loc	5 530 7 is_stmt 1               @ libraries/STM32H7xx_HAL/STM32H7xx_HAL_Driver/Src/stm32h7xx_hal_mdma.c:530:7
	b	.LBB5_19
.LBB5_18:
	.loc	5 0 7 is_stmt 0                 @ libraries/STM32H7xx_HAL/STM32H7xx_HAL_Driver/Src/stm32h7xx_hal_mdma.c:0:7
	movs	r0, #1
	.loc	5 533 14 is_stmt 1              @ libraries/STM32H7xx_HAL/STM32H7xx_HAL_Driver/Src/stm32h7xx_hal_mdma.c:533:14
	strb.w	r0, [sp, #6]
	.loc	5 534 7                         @ libraries/STM32H7xx_HAL/STM32H7xx_HAL_Driver/Src/stm32h7xx_hal_mdma.c:534:7
	b	.LBB5_19
.Ltmp105:
.LBB5_19:
	.loc	5 536 3                         @ libraries/STM32H7xx_HAL/STM32H7xx_HAL_Driver/Src/stm32h7xx_hal_mdma.c:536:3
	b	.LBB5_21
.Ltmp106:
.LBB5_20:
	.loc	5 0 3 is_stmt 0                 @ libraries/STM32H7xx_HAL/STM32H7xx_HAL_Driver/Src/stm32h7xx_hal_mdma.c:0:3
	movs	r0, #1
.Ltmp107:
	.loc	5 539 12 is_stmt 1              @ libraries/STM32H7xx_HAL/STM32H7xx_HAL_Driver/Src/stm32h7xx_hal_mdma.c:539:12
	strb.w	r0, [sp, #6]
	b	.LBB5_21
.Ltmp108:
.LBB5_21:
	.loc	5 543 3                         @ libraries/STM32H7xx_HAL/STM32H7xx_HAL_Driver/Src/stm32h7xx_hal_mdma.c:543:3
	b	.LBB5_22
.LBB5_22:
.Ltmp109:
	.loc	5 543 3 is_stmt 0               @ libraries/STM32H7xx_HAL/STM32H7xx_HAL_Driver/Src/stm32h7xx_hal_mdma.c:543:3
	ldr	r1, [sp, #8]
	movs	r0, #0
	strb.w	r0, [r1, #60]
	b	.LBB5_23
.Ltmp110:
.LBB5_23:
	.loc	5 545 10 is_stmt 1              @ libraries/STM32H7xx_HAL/STM32H7xx_HAL_Driver/Src/stm32h7xx_hal_mdma.c:545:10
	ldrb.w	r0, [sp, #6]
	.loc	5 545 3 is_stmt 0               @ libraries/STM32H7xx_HAL/STM32H7xx_HAL_Driver/Src/stm32h7xx_hal_mdma.c:545:3
	strb.w	r0, [sp, #15]
	b	.LBB5_24
.LBB5_24:
	.loc	5 546 1 is_stmt 1               @ libraries/STM32H7xx_HAL/STM32H7xx_HAL_Driver/Src/stm32h7xx_hal_mdma.c:546:1
	ldrb.w	r0, [sp, #15]
	add	sp, #16
	bx	lr
.Ltmp111:
.Lfunc_end5:
	.size	HAL_MDMA_UnRegisterCallback, .Lfunc_end5-HAL_MDMA_UnRegisterCallback
	.cfi_endproc
	.cantunwind
	.fnend
                                        @ -- End function
	.section	.text.HAL_MDMA_LinkedList_CreateNode,"ax",%progbits
	.hidden	HAL_MDMA_LinkedList_CreateNode  @ -- Begin function HAL_MDMA_LinkedList_CreateNode
	.globl	HAL_MDMA_LinkedList_CreateNode
	.p2align	3
	.type	HAL_MDMA_LinkedList_CreateNode,%function
	.code	16                              @ @HAL_MDMA_LinkedList_CreateNode
	.thumb_func
HAL_MDMA_LinkedList_CreateNode:
.Lfunc_begin6:
	.loc	5 577 0                         @ libraries/STM32H7xx_HAL/STM32H7xx_HAL_Driver/Src/stm32h7xx_hal_mdma.c:577:0
	.fnstart
	.cfi_startproc
@ %bb.0:
	.pad	#24
	sub	sp, #24
	.cfi_def_cfa_offset 24
	str	r0, [sp, #16]
	str	r1, [sp, #12]
.Ltmp112:
	.loc	5 582 7 prologue_end            @ libraries/STM32H7xx_HAL/STM32H7xx_HAL_Driver/Src/stm32h7xx_hal_mdma.c:582:7
	ldr	r0, [sp, #16]
	.loc	5 582 22 is_stmt 0              @ libraries/STM32H7xx_HAL/STM32H7xx_HAL_Driver/Src/stm32h7xx_hal_mdma.c:582:22
	cbz	r0, .LBB6_2
	b	.LBB6_1
.LBB6_1:
	.loc	5 582 26                        @ libraries/STM32H7xx_HAL/STM32H7xx_HAL_Driver/Src/stm32h7xx_hal_mdma.c:582:26
	ldr	r0, [sp, #12]
.Ltmp113:
	.loc	5 582 6                         @ libraries/STM32H7xx_HAL/STM32H7xx_HAL_Driver/Src/stm32h7xx_hal_mdma.c:582:6
	cbnz	r0, .LBB6_3
	b	.LBB6_2
.LBB6_2:
	.loc	5 0 6                           @ libraries/STM32H7xx_HAL/STM32H7xx_HAL_Driver/Src/stm32h7xx_hal_mdma.c:0:6
	movs	r0, #1
.Ltmp114:
	.loc	5 584 5 is_stmt 1               @ libraries/STM32H7xx_HAL/STM32H7xx_HAL_Driver/Src/stm32h7xx_hal_mdma.c:584:5
	strb.w	r0, [sp, #23]
	b	.LBB6_23
.Ltmp115:
.LBB6_3:
	.loc	5 608 3                         @ libraries/STM32H7xx_HAL/STM32H7xx_HAL_Driver/Src/stm32h7xx_hal_mdma.c:608:3
	ldr	r1, [sp, #16]
	movs	r0, #0
	.loc	5 608 15 is_stmt 0              @ libraries/STM32H7xx_HAL/STM32H7xx_HAL_Driver/Src/stm32h7xx_hal_mdma.c:608:15
	str	r0, [r1, #20]
	.loc	5 611 3 is_stmt 1               @ libraries/STM32H7xx_HAL/STM32H7xx_HAL_Driver/Src/stm32h7xx_hal_mdma.c:611:3
	ldr	r1, [sp, #16]
	.loc	5 611 17 is_stmt 0              @ libraries/STM32H7xx_HAL/STM32H7xx_HAL_Driver/Src/stm32h7xx_hal_mdma.c:611:17
	str	r0, [r1, #24]
	.loc	5 612 3 is_stmt 1               @ libraries/STM32H7xx_HAL/STM32H7xx_HAL_Driver/Src/stm32h7xx_hal_mdma.c:612:3
	ldr	r1, [sp, #16]
	.loc	5 612 17 is_stmt 0              @ libraries/STM32H7xx_HAL/STM32H7xx_HAL_Driver/Src/stm32h7xx_hal_mdma.c:612:17
	str	r0, [r1, #32]
	.loc	5 613 3 is_stmt 1               @ libraries/STM32H7xx_HAL/STM32H7xx_HAL_Driver/Src/stm32h7xx_hal_mdma.c:613:3
	ldr	r1, [sp, #16]
	.loc	5 613 17 is_stmt 0              @ libraries/STM32H7xx_HAL/STM32H7xx_HAL_Driver/Src/stm32h7xx_hal_mdma.c:613:17
	str	r0, [r1, #36]
	.loc	5 614 3 is_stmt 1               @ libraries/STM32H7xx_HAL/STM32H7xx_HAL_Driver/Src/stm32h7xx_hal_mdma.c:614:3
	ldr	r1, [sp, #16]
	.loc	5 614 19 is_stmt 0              @ libraries/STM32H7xx_HAL/STM32H7xx_HAL_Driver/Src/stm32h7xx_hal_mdma.c:614:19
	str	r0, [r1, #28]
	.loc	5 617 18 is_stmt 1              @ libraries/STM32H7xx_HAL/STM32H7xx_HAL_Driver/Src/stm32h7xx_hal_mdma.c:617:18
	ldr	r2, [sp, #12]
	.loc	5 622 31                        @ libraries/STM32H7xx_HAL/STM32H7xx_HAL_Driver/Src/stm32h7xx_hal_mdma.c:622:31
	str	r2, [sp]                        @ 4-byte Spill
	ldr	r1, [r2, #4]
	.loc	5 617 36                        @ libraries/STM32H7xx_HAL/STM32H7xx_HAL_Driver/Src/stm32h7xx_hal_mdma.c:617:36
	ldr	r0, [r2, #16]
	.loc	5 617 66 is_stmt 0              @ libraries/STM32H7xx_HAL/STM32H7xx_HAL_Driver/Src/stm32h7xx_hal_mdma.c:617:66
	ldr.w	r12, [r2, #20]
	.loc	5 618 23 is_stmt 1              @ libraries/STM32H7xx_HAL/STM32H7xx_HAL_Driver/Src/stm32h7xx_hal_mdma.c:618:23
	ldr	r3, [r2, #24]
	.loc	5 617 46                        @ libraries/STM32H7xx_HAL/STM32H7xx_HAL_Driver/Src/stm32h7xx_hal_mdma.c:617:46
	orr.w	r0, r0, r12
	.loc	5 617 81 is_stmt 0              @ libraries/STM32H7xx_HAL/STM32H7xx_HAL_Driver/Src/stm32h7xx_hal_mdma.c:617:81
	orrs	r0, r3
	.loc	5 618 58 is_stmt 1              @ libraries/STM32H7xx_HAL/STM32H7xx_HAL_Driver/Src/stm32h7xx_hal_mdma.c:618:58
	ldr	r3, [r2, #28]
	.loc	5 618 38 is_stmt 0              @ libraries/STM32H7xx_HAL/STM32H7xx_HAL_Driver/Src/stm32h7xx_hal_mdma.c:618:38
	orrs	r0, r3
	.loc	5 619 25 is_stmt 1              @ libraries/STM32H7xx_HAL/STM32H7xx_HAL_Driver/Src/stm32h7xx_hal_mdma.c:619:25
	ldr	r3, [r2, #32]
	.loc	5 618 81                        @ libraries/STM32H7xx_HAL/STM32H7xx_HAL_Driver/Src/stm32h7xx_hal_mdma.c:618:81
	orrs	r0, r3
	.loc	5 619 58                        @ libraries/STM32H7xx_HAL/STM32H7xx_HAL_Driver/Src/stm32h7xx_hal_mdma.c:619:58
	ldr	r3, [r2, #40]
	.loc	5 619 38 is_stmt 0              @ libraries/STM32H7xx_HAL/STM32H7xx_HAL_Driver/Src/stm32h7xx_hal_mdma.c:619:38
	orrs	r0, r3
	.loc	5 620 27 is_stmt 1              @ libraries/STM32H7xx_HAL/STM32H7xx_HAL_Driver/Src/stm32h7xx_hal_mdma.c:620:27
	ldr	r3, [r2, #44]
	.loc	5 619 81                        @ libraries/STM32H7xx_HAL/STM32H7xx_HAL_Driver/Src/stm32h7xx_hal_mdma.c:619:81
	orrs	r0, r3
	.loc	5 621 31                        @ libraries/STM32H7xx_HAL/STM32H7xx_HAL_Driver/Src/stm32h7xx_hal_mdma.c:621:31
	ldr	r3, [r2, #36]
	movs	r2, #0
	movt	r2, #65532
	.loc	5 621 58 is_stmt 0              @ libraries/STM32H7xx_HAL/STM32H7xx_HAL_Driver/Src/stm32h7xx_hal_mdma.c:621:58
	add.w	r2, r2, r3, lsl #18
	.loc	5 620 81 is_stmt 1              @ libraries/STM32H7xx_HAL/STM32H7xx_HAL_Driver/Src/stm32h7xx_hal_mdma.c:620:81
	orrs	r0, r2
	.loc	5 621 81                        @ libraries/STM32H7xx_HAL/STM32H7xx_HAL_Driver/Src/stm32h7xx_hal_mdma.c:621:81
	orrs	r0, r1
	.loc	5 617 3                         @ libraries/STM32H7xx_HAL/STM32H7xx_HAL_Driver/Src/stm32h7xx_hal_mdma.c:617:3
	ldr	r1, [sp, #16]
	.loc	5 617 15 is_stmt 0              @ libraries/STM32H7xx_HAL/STM32H7xx_HAL_Driver/Src/stm32h7xx_hal_mdma.c:617:15
	str	r0, [r1]
.Ltmp116:
	.loc	5 625 6 is_stmt 1               @ libraries/STM32H7xx_HAL/STM32H7xx_HAL_Driver/Src/stm32h7xx_hal_mdma.c:625:6
	ldr	r0, [sp, #12]
	.loc	5 625 24 is_stmt 0              @ libraries/STM32H7xx_HAL/STM32H7xx_HAL_Driver/Src/stm32h7xx_hal_mdma.c:625:24
	ldr	r0, [r0]
.Ltmp117:
	.loc	5 625 6                         @ libraries/STM32H7xx_HAL/STM32H7xx_HAL_Driver/Src/stm32h7xx_hal_mdma.c:625:6
	cmp.w	r0, #1073741824
	bne	.LBB6_5
	b	.LBB6_4
.LBB6_4:
.Ltmp118:
	.loc	5 627 5 is_stmt 1               @ libraries/STM32H7xx_HAL/STM32H7xx_HAL_Driver/Src/stm32h7xx_hal_mdma.c:627:5
	ldr	r1, [sp, #16]
	.loc	5 627 17 is_stmt 0              @ libraries/STM32H7xx_HAL/STM32H7xx_HAL_Driver/Src/stm32h7xx_hal_mdma.c:627:17
	ldr	r0, [r1]
	orr	r0, r0, #1073741824
	str	r0, [r1]
	.loc	5 628 3 is_stmt 1               @ libraries/STM32H7xx_HAL/STM32H7xx_HAL_Driver/Src/stm32h7xx_hal_mdma.c:628:3
	b	.LBB6_5
.Ltmp119:
.LBB6_5:
	.loc	5 636 7                         @ libraries/STM32H7xx_HAL/STM32H7xx_HAL_Driver/Src/stm32h7xx_hal_mdma.c:636:7
	ldr	r0, [sp, #12]
	.loc	5 636 25 is_stmt 0              @ libraries/STM32H7xx_HAL/STM32H7xx_HAL_Driver/Src/stm32h7xx_hal_mdma.c:636:25
	ldr	r0, [r0]
	.loc	5 636 53                        @ libraries/STM32H7xx_HAL/STM32H7xx_HAL_Driver/Src/stm32h7xx_hal_mdma.c:636:53
	cmp.w	r0, #1073741824
	beq	.LBB6_7
	b	.LBB6_6
.LBB6_6:
	.loc	5 636 57                        @ libraries/STM32H7xx_HAL/STM32H7xx_HAL_Driver/Src/stm32h7xx_hal_mdma.c:636:57
	ldr	r0, [sp, #12]
	.loc	5 636 70                        @ libraries/STM32H7xx_HAL/STM32H7xx_HAL_Driver/Src/stm32h7xx_hal_mdma.c:636:70
	ldr	r0, [r0, #72]
.Ltmp120:
	.loc	5 636 6                         @ libraries/STM32H7xx_HAL/STM32H7xx_HAL_Driver/Src/stm32h7xx_hal_mdma.c:636:6
	cbz	r0, .LBB6_8
	b	.LBB6_7
.LBB6_7:
.Ltmp121:
	.loc	5 638 5 is_stmt 1               @ libraries/STM32H7xx_HAL/STM32H7xx_HAL_Driver/Src/stm32h7xx_hal_mdma.c:638:5
	ldr	r1, [sp, #16]
	.loc	5 638 17 is_stmt 0              @ libraries/STM32H7xx_HAL/STM32H7xx_HAL_Driver/Src/stm32h7xx_hal_mdma.c:638:17
	ldr	r0, [r1]
	orr	r0, r0, #-2147483648
	str	r0, [r1]
	.loc	5 639 3 is_stmt 1               @ libraries/STM32H7xx_HAL/STM32H7xx_HAL_Driver/Src/stm32h7xx_hal_mdma.c:639:3
	b	.LBB6_8
.Ltmp122:
.LBB6_8:
	.loc	5 642 21                        @ libraries/STM32H7xx_HAL/STM32H7xx_HAL_Driver/Src/stm32h7xx_hal_mdma.c:642:21
	ldr	r0, [sp, #12]
	.loc	5 642 34 is_stmt 0              @ libraries/STM32H7xx_HAL/STM32H7xx_HAL_Driver/Src/stm32h7xx_hal_mdma.c:642:34
	ldr	r1, [r0, #68]
	movs	r0, #0
	movt	r0, #65520
	.loc	5 642 51                        @ libraries/STM32H7xx_HAL/STM32H7xx_HAL_Driver/Src/stm32h7xx_hal_mdma.c:642:51
	add.w	r0, r0, r1, lsl #20
	.loc	5 642 3                         @ libraries/STM32H7xx_HAL/STM32H7xx_HAL_Driver/Src/stm32h7xx_hal_mdma.c:642:3
	ldr	r1, [sp, #16]
	.loc	5 642 17                        @ libraries/STM32H7xx_HAL/STM32H7xx_HAL_Driver/Src/stm32h7xx_hal_mdma.c:642:17
	str	r0, [r1, #4]
.Ltmp123:
	.loc	5 645 6 is_stmt 1               @ libraries/STM32H7xx_HAL/STM32H7xx_HAL_Driver/Src/stm32h7xx_hal_mdma.c:645:6
	ldr	r0, [sp, #12]
	.loc	5 645 24 is_stmt 0              @ libraries/STM32H7xx_HAL/STM32H7xx_HAL_Driver/Src/stm32h7xx_hal_mdma.c:645:24
	ldr	r0, [r0, #48]
.Ltmp124:
	.loc	5 645 6                         @ libraries/STM32H7xx_HAL/STM32H7xx_HAL_Driver/Src/stm32h7xx_hal_mdma.c:645:6
	cmp.w	r0, #-1
	bgt	.LBB6_10
	b	.LBB6_9
.LBB6_9:
.Ltmp125:
	.loc	5 647 5 is_stmt 1               @ libraries/STM32H7xx_HAL/STM32H7xx_HAL_Driver/Src/stm32h7xx_hal_mdma.c:647:5
	ldr	r1, [sp, #16]
	.loc	5 647 19 is_stmt 0              @ libraries/STM32H7xx_HAL/STM32H7xx_HAL_Driver/Src/stm32h7xx_hal_mdma.c:647:19
	ldr	r0, [r1, #4]
	orr	r0, r0, #262144
	str	r0, [r1, #4]
	.loc	5 649 32 is_stmt 1              @ libraries/STM32H7xx_HAL/STM32H7xx_HAL_Driver/Src/stm32h7xx_hal_mdma.c:649:32
	ldr	r0, [sp, #12]
	.loc	5 649 50 is_stmt 0              @ libraries/STM32H7xx_HAL/STM32H7xx_HAL_Driver/Src/stm32h7xx_hal_mdma.c:649:50
	ldr	r0, [r0, #48]
	.loc	5 649 30                        @ libraries/STM32H7xx_HAL/STM32H7xx_HAL_Driver/Src/stm32h7xx_hal_mdma.c:649:30
	rsbs	r0, r0, #0
	.loc	5 649 17                        @ libraries/STM32H7xx_HAL/STM32H7xx_HAL_Driver/Src/stm32h7xx_hal_mdma.c:649:17
	str	r0, [sp, #4]
	.loc	5 650 20 is_stmt 1              @ libraries/STM32H7xx_HAL/STM32H7xx_HAL_Driver/Src/stm32h7xx_hal_mdma.c:650:20
	ldrh.w	r0, [sp, #4]
	.loc	5 650 5 is_stmt 0               @ libraries/STM32H7xx_HAL/STM32H7xx_HAL_Driver/Src/stm32h7xx_hal_mdma.c:650:5
	ldr	r1, [sp, #16]
	.loc	5 650 18                        @ libraries/STM32H7xx_HAL/STM32H7xx_HAL_Driver/Src/stm32h7xx_hal_mdma.c:650:18
	str	r0, [r1, #16]
	.loc	5 651 3 is_stmt 1               @ libraries/STM32H7xx_HAL/STM32H7xx_HAL_Driver/Src/stm32h7xx_hal_mdma.c:651:3
	b	.LBB6_11
.Ltmp126:
.LBB6_10:
	.loc	5 655 33                        @ libraries/STM32H7xx_HAL/STM32H7xx_HAL_Driver/Src/stm32h7xx_hal_mdma.c:655:33
	ldr	r0, [sp, #12]
	.loc	5 655 51 is_stmt 0              @ libraries/STM32H7xx_HAL/STM32H7xx_HAL_Driver/Src/stm32h7xx_hal_mdma.c:655:51
	ldrh	r0, [r0, #48]
	.loc	5 655 5                         @ libraries/STM32H7xx_HAL/STM32H7xx_HAL_Driver/Src/stm32h7xx_hal_mdma.c:655:5
	ldr	r1, [sp, #16]
	.loc	5 655 18                        @ libraries/STM32H7xx_HAL/STM32H7xx_HAL_Driver/Src/stm32h7xx_hal_mdma.c:655:18
	str	r0, [r1, #16]
	b	.LBB6_11
.Ltmp127:
.LBB6_11:
	.loc	5 659 6 is_stmt 1               @ libraries/STM32H7xx_HAL/STM32H7xx_HAL_Driver/Src/stm32h7xx_hal_mdma.c:659:6
	ldr	r0, [sp, #12]
	.loc	5 659 24 is_stmt 0              @ libraries/STM32H7xx_HAL/STM32H7xx_HAL_Driver/Src/stm32h7xx_hal_mdma.c:659:24
	ldr	r0, [r0, #52]
.Ltmp128:
	.loc	5 659 6                         @ libraries/STM32H7xx_HAL/STM32H7xx_HAL_Driver/Src/stm32h7xx_hal_mdma.c:659:6
	cmp.w	r0, #-1
	bgt	.LBB6_13
	b	.LBB6_12
.LBB6_12:
.Ltmp129:
	.loc	5 661 5 is_stmt 1               @ libraries/STM32H7xx_HAL/STM32H7xx_HAL_Driver/Src/stm32h7xx_hal_mdma.c:661:5
	ldr	r1, [sp, #16]
	.loc	5 661 19 is_stmt 0              @ libraries/STM32H7xx_HAL/STM32H7xx_HAL_Driver/Src/stm32h7xx_hal_mdma.c:661:19
	ldr	r0, [r1, #4]
	orr	r0, r0, #524288
	str	r0, [r1, #4]
	.loc	5 663 32 is_stmt 1              @ libraries/STM32H7xx_HAL/STM32H7xx_HAL_Driver/Src/stm32h7xx_hal_mdma.c:663:32
	ldr	r0, [sp, #12]
	.loc	5 663 50 is_stmt 0              @ libraries/STM32H7xx_HAL/STM32H7xx_HAL_Driver/Src/stm32h7xx_hal_mdma.c:663:50
	ldr	r0, [r0, #52]
	.loc	5 663 30                        @ libraries/STM32H7xx_HAL/STM32H7xx_HAL_Driver/Src/stm32h7xx_hal_mdma.c:663:30
	rsbs	r0, r0, #0
	.loc	5 663 17                        @ libraries/STM32H7xx_HAL/STM32H7xx_HAL_Driver/Src/stm32h7xx_hal_mdma.c:663:17
	str	r0, [sp, #4]
	.loc	5 664 23 is_stmt 1              @ libraries/STM32H7xx_HAL/STM32H7xx_HAL_Driver/Src/stm32h7xx_hal_mdma.c:664:23
	ldr	r2, [sp, #4]
	.loc	5 664 5 is_stmt 0               @ libraries/STM32H7xx_HAL/STM32H7xx_HAL_Driver/Src/stm32h7xx_hal_mdma.c:664:5
	ldr	r1, [sp, #16]
	.loc	5 664 18                        @ libraries/STM32H7xx_HAL/STM32H7xx_HAL_Driver/Src/stm32h7xx_hal_mdma.c:664:18
	ldr	r0, [r1, #16]
	orr.w	r0, r0, r2, lsl #16
	str	r0, [r1, #16]
	.loc	5 665 3 is_stmt 1               @ libraries/STM32H7xx_HAL/STM32H7xx_HAL_Driver/Src/stm32h7xx_hal_mdma.c:665:3
	b	.LBB6_14
.Ltmp130:
.LBB6_13:
	.loc	5 669 34                        @ libraries/STM32H7xx_HAL/STM32H7xx_HAL_Driver/Src/stm32h7xx_hal_mdma.c:669:34
	ldr	r0, [sp, #12]
	.loc	5 669 52 is_stmt 0              @ libraries/STM32H7xx_HAL/STM32H7xx_HAL_Driver/Src/stm32h7xx_hal_mdma.c:669:52
	ldr	r2, [r0, #52]
	.loc	5 669 5                         @ libraries/STM32H7xx_HAL/STM32H7xx_HAL_Driver/Src/stm32h7xx_hal_mdma.c:669:5
	ldr	r1, [sp, #16]
	.loc	5 669 18                        @ libraries/STM32H7xx_HAL/STM32H7xx_HAL_Driver/Src/stm32h7xx_hal_mdma.c:669:18
	ldr	r0, [r1, #16]
	orr.w	r0, r0, r2, lsl #16
	str	r0, [r1, #16]
	b	.LBB6_14
.Ltmp131:
.LBB6_14:
	.loc	5 673 21 is_stmt 1              @ libraries/STM32H7xx_HAL/STM32H7xx_HAL_Driver/Src/stm32h7xx_hal_mdma.c:673:21
	ldr	r0, [sp, #12]
	.loc	5 673 34 is_stmt 0              @ libraries/STM32H7xx_HAL/STM32H7xx_HAL_Driver/Src/stm32h7xx_hal_mdma.c:673:34
	ldr	r2, [r0, #64]
	.loc	5 673 3                         @ libraries/STM32H7xx_HAL/STM32H7xx_HAL_Driver/Src/stm32h7xx_hal_mdma.c:673:3
	ldr	r1, [sp, #16]
	.loc	5 673 17                        @ libraries/STM32H7xx_HAL/STM32H7xx_HAL_Driver/Src/stm32h7xx_hal_mdma.c:673:17
	ldr	r0, [r1, #4]
	orrs	r0, r2
	str	r0, [r1, #4]
	.loc	5 676 17 is_stmt 1              @ libraries/STM32H7xx_HAL/STM32H7xx_HAL_Driver/Src/stm32h7xx_hal_mdma.c:676:17
	ldr	r0, [sp, #12]
	.loc	5 676 30 is_stmt 0              @ libraries/STM32H7xx_HAL/STM32H7xx_HAL_Driver/Src/stm32h7xx_hal_mdma.c:676:30
	ldr	r0, [r0, #60]
	.loc	5 676 3                         @ libraries/STM32H7xx_HAL/STM32H7xx_HAL_Driver/Src/stm32h7xx_hal_mdma.c:676:3
	ldr	r1, [sp, #16]
	.loc	5 676 15                        @ libraries/STM32H7xx_HAL/STM32H7xx_HAL_Driver/Src/stm32h7xx_hal_mdma.c:676:15
	str	r0, [r1, #12]
	.loc	5 679 17 is_stmt 1              @ libraries/STM32H7xx_HAL/STM32H7xx_HAL_Driver/Src/stm32h7xx_hal_mdma.c:679:17
	ldr	r0, [sp, #12]
	.loc	5 679 30 is_stmt 0              @ libraries/STM32H7xx_HAL/STM32H7xx_HAL_Driver/Src/stm32h7xx_hal_mdma.c:679:30
	ldr	r0, [r0, #56]
	.loc	5 679 3                         @ libraries/STM32H7xx_HAL/STM32H7xx_HAL_Driver/Src/stm32h7xx_hal_mdma.c:679:3
	ldr	r1, [sp, #16]
	.loc	5 679 15                        @ libraries/STM32H7xx_HAL/STM32H7xx_HAL_Driver/Src/stm32h7xx_hal_mdma.c:679:15
	str	r0, [r1, #8]
.Ltmp132:
	.loc	5 682 6 is_stmt 1               @ libraries/STM32H7xx_HAL/STM32H7xx_HAL_Driver/Src/stm32h7xx_hal_mdma.c:682:6
	ldr	r0, [sp, #12]
	.loc	5 682 24 is_stmt 0              @ libraries/STM32H7xx_HAL/STM32H7xx_HAL_Driver/Src/stm32h7xx_hal_mdma.c:682:24
	ldr	r0, [r0]
.Ltmp133:
	.loc	5 682 6                         @ libraries/STM32H7xx_HAL/STM32H7xx_HAL_Driver/Src/stm32h7xx_hal_mdma.c:682:6
	cmp.w	r0, #1073741824
	beq	.LBB6_16
	b	.LBB6_15
.LBB6_15:
.Ltmp134:
	.loc	5 685 19 is_stmt 1              @ libraries/STM32H7xx_HAL/STM32H7xx_HAL_Driver/Src/stm32h7xx_hal_mdma.c:685:19
	ldr	r0, [sp, #12]
	.loc	5 685 37 is_stmt 0              @ libraries/STM32H7xx_HAL/STM32H7xx_HAL_Driver/Src/stm32h7xx_hal_mdma.c:685:37
	ldrb	r0, [r0]
	.loc	5 685 5                         @ libraries/STM32H7xx_HAL/STM32H7xx_HAL_Driver/Src/stm32h7xx_hal_mdma.c:685:5
	ldr	r1, [sp, #16]
	.loc	5 685 17                        @ libraries/STM32H7xx_HAL/STM32H7xx_HAL_Driver/Src/stm32h7xx_hal_mdma.c:685:17
	str	r0, [r1, #24]
	.loc	5 687 19 is_stmt 1              @ libraries/STM32H7xx_HAL/STM32H7xx_HAL_Driver/Src/stm32h7xx_hal_mdma.c:687:19
	ldr	r0, [sp, #12]
	.loc	5 687 32 is_stmt 0              @ libraries/STM32H7xx_HAL/STM32H7xx_HAL_Driver/Src/stm32h7xx_hal_mdma.c:687:32
	ldr	r0, [r0, #72]
	.loc	5 687 5                         @ libraries/STM32H7xx_HAL/STM32H7xx_HAL_Driver/Src/stm32h7xx_hal_mdma.c:687:5
	ldr	r1, [sp, #16]
	.loc	5 687 17                        @ libraries/STM32H7xx_HAL/STM32H7xx_HAL_Driver/Src/stm32h7xx_hal_mdma.c:687:17
	str	r0, [r1, #32]
	.loc	5 688 19 is_stmt 1              @ libraries/STM32H7xx_HAL/STM32H7xx_HAL_Driver/Src/stm32h7xx_hal_mdma.c:688:19
	ldr	r0, [sp, #12]
	.loc	5 688 32 is_stmt 0              @ libraries/STM32H7xx_HAL/STM32H7xx_HAL_Driver/Src/stm32h7xx_hal_mdma.c:688:32
	ldr	r0, [r0, #76]
	.loc	5 688 5                         @ libraries/STM32H7xx_HAL/STM32H7xx_HAL_Driver/Src/stm32h7xx_hal_mdma.c:688:5
	ldr	r1, [sp, #16]
	.loc	5 688 17                        @ libraries/STM32H7xx_HAL/STM32H7xx_HAL_Driver/Src/stm32h7xx_hal_mdma.c:688:17
	str	r0, [r1, #36]
	.loc	5 689 3 is_stmt 1               @ libraries/STM32H7xx_HAL/STM32H7xx_HAL_Driver/Src/stm32h7xx_hal_mdma.c:689:3
	b	.LBB6_16
.Ltmp135:
.LBB6_16:
	.loc	5 691 17                        @ libraries/STM32H7xx_HAL/STM32H7xx_HAL_Driver/Src/stm32h7xx_hal_mdma.c:691:17
	ldr	r0, [sp, #12]
	.loc	5 691 30 is_stmt 0              @ libraries/STM32H7xx_HAL/STM32H7xx_HAL_Driver/Src/stm32h7xx_hal_mdma.c:691:30
	ldrb.w	r0, [r0, #59]
	lsls	r0, r0, #24
	.loc	5 691 15                        @ libraries/STM32H7xx_HAL/STM32H7xx_HAL_Driver/Src/stm32h7xx_hal_mdma.c:691:15
	str	r0, [sp, #8]
.Ltmp136:
	.loc	5 692 7 is_stmt 1               @ libraries/STM32H7xx_HAL/STM32H7xx_HAL_Driver/Src/stm32h7xx_hal_mdma.c:692:7
	ldr	r0, [sp, #8]
	.loc	5 692 35 is_stmt 0              @ libraries/STM32H7xx_HAL/STM32H7xx_HAL_Driver/Src/stm32h7xx_hal_mdma.c:692:35
	cmp.w	r0, #536870912
	beq	.LBB6_18
	b	.LBB6_17
.LBB6_17:
	.loc	5 692 39                        @ libraries/STM32H7xx_HAL/STM32H7xx_HAL_Driver/Src/stm32h7xx_hal_mdma.c:692:39
	ldr	r0, [sp, #8]
.Ltmp137:
	.loc	5 692 6                         @ libraries/STM32H7xx_HAL/STM32H7xx_HAL_Driver/Src/stm32h7xx_hal_mdma.c:692:6
	cbnz	r0, .LBB6_19
	b	.LBB6_18
.LBB6_18:
.Ltmp138:
	.loc	5 695 5 is_stmt 1               @ libraries/STM32H7xx_HAL/STM32H7xx_HAL_Driver/Src/stm32h7xx_hal_mdma.c:695:5
	ldr	r1, [sp, #16]
	.loc	5 695 17 is_stmt 0              @ libraries/STM32H7xx_HAL/STM32H7xx_HAL_Driver/Src/stm32h7xx_hal_mdma.c:695:17
	ldr	r0, [r1, #24]
	orr	r0, r0, #65536
	str	r0, [r1, #24]
	.loc	5 696 3 is_stmt 1               @ libraries/STM32H7xx_HAL/STM32H7xx_HAL_Driver/Src/stm32h7xx_hal_mdma.c:696:3
	b	.LBB6_19
.Ltmp139:
.LBB6_19:
	.loc	5 698 17                        @ libraries/STM32H7xx_HAL/STM32H7xx_HAL_Driver/Src/stm32h7xx_hal_mdma.c:698:17
	ldr	r0, [sp, #12]
	.loc	5 698 30 is_stmt 0              @ libraries/STM32H7xx_HAL/STM32H7xx_HAL_Driver/Src/stm32h7xx_hal_mdma.c:698:30
	ldrb.w	r0, [r0, #63]
	lsls	r0, r0, #24
	.loc	5 698 15                        @ libraries/STM32H7xx_HAL/STM32H7xx_HAL_Driver/Src/stm32h7xx_hal_mdma.c:698:15
	str	r0, [sp, #8]
.Ltmp140:
	.loc	5 699 7 is_stmt 1               @ libraries/STM32H7xx_HAL/STM32H7xx_HAL_Driver/Src/stm32h7xx_hal_mdma.c:699:7
	ldr	r0, [sp, #8]
	.loc	5 699 35 is_stmt 0              @ libraries/STM32H7xx_HAL/STM32H7xx_HAL_Driver/Src/stm32h7xx_hal_mdma.c:699:35
	cmp.w	r0, #536870912
	beq	.LBB6_21
	b	.LBB6_20
.LBB6_20:
	.loc	5 699 39                        @ libraries/STM32H7xx_HAL/STM32H7xx_HAL_Driver/Src/stm32h7xx_hal_mdma.c:699:39
	ldr	r0, [sp, #8]
.Ltmp141:
	.loc	5 699 6                         @ libraries/STM32H7xx_HAL/STM32H7xx_HAL_Driver/Src/stm32h7xx_hal_mdma.c:699:6
	cbnz	r0, .LBB6_22
	b	.LBB6_21
.LBB6_21:
.Ltmp142:
	.loc	5 702 5 is_stmt 1               @ libraries/STM32H7xx_HAL/STM32H7xx_HAL_Driver/Src/stm32h7xx_hal_mdma.c:702:5
	ldr	r1, [sp, #16]
	.loc	5 702 17 is_stmt 0              @ libraries/STM32H7xx_HAL/STM32H7xx_HAL_Driver/Src/stm32h7xx_hal_mdma.c:702:17
	ldr	r0, [r1, #24]
	orr	r0, r0, #131072
	str	r0, [r1, #24]
	.loc	5 703 3 is_stmt 1               @ libraries/STM32H7xx_HAL/STM32H7xx_HAL_Driver/Src/stm32h7xx_hal_mdma.c:703:3
	b	.LBB6_22
.Ltmp143:
.LBB6_22:
	.loc	5 0 3 is_stmt 0                 @ libraries/STM32H7xx_HAL/STM32H7xx_HAL_Driver/Src/stm32h7xx_hal_mdma.c:0:3
	movs	r0, #0
	.loc	5 705 3 is_stmt 1               @ libraries/STM32H7xx_HAL/STM32H7xx_HAL_Driver/Src/stm32h7xx_hal_mdma.c:705:3
	strb.w	r0, [sp, #23]
	b	.LBB6_23
.LBB6_23:
	.loc	5 706 1                         @ libraries/STM32H7xx_HAL/STM32H7xx_HAL_Driver/Src/stm32h7xx_hal_mdma.c:706:1
	ldrb.w	r0, [sp, #23]
	add	sp, #24
	bx	lr
.Ltmp144:
.Lfunc_end6:
	.size	HAL_MDMA_LinkedList_CreateNode, .Lfunc_end6-HAL_MDMA_LinkedList_CreateNode
	.cfi_endproc
	.cantunwind
	.fnend
                                        @ -- End function
	.section	.text.HAL_MDMA_LinkedList_AddNode,"ax",%progbits
	.hidden	HAL_MDMA_LinkedList_AddNode     @ -- Begin function HAL_MDMA_LinkedList_AddNode
	.globl	HAL_MDMA_LinkedList_AddNode
	.p2align	3
	.type	HAL_MDMA_LinkedList_AddNode,%function
	.code	16                              @ @HAL_MDMA_LinkedList_AddNode
	.thumb_func
HAL_MDMA_LinkedList_AddNode:
.Lfunc_begin7:
	.loc	5 720 0                         @ libraries/STM32H7xx_HAL/STM32H7xx_HAL_Driver/Src/stm32h7xx_hal_mdma.c:720:0
	.fnstart
	.cfi_startproc
@ %bb.0:
	.pad	#40
	sub	sp, #40
	.cfi_def_cfa_offset 40
	str	r0, [sp, #32]
	str	r1, [sp, #28]
	str	r2, [sp, #24]
	movs	r0, #0
.Ltmp145:
	.loc	5 722 12 prologue_end           @ libraries/STM32H7xx_HAL/STM32H7xx_HAL_Driver/Src/stm32h7xx_hal_mdma.c:722:12
	str	r0, [sp, #16]
	.loc	5 722 25 is_stmt 0              @ libraries/STM32H7xx_HAL/STM32H7xx_HAL_Driver/Src/stm32h7xx_hal_mdma.c:722:25
	str	r0, [sp, #12]
	.loc	5 723 21 is_stmt 1              @ libraries/STM32H7xx_HAL/STM32H7xx_HAL_Driver/Src/stm32h7xx_hal_mdma.c:723:21
	strb.w	r0, [sp, #11]
.Ltmp146:
	.loc	5 726 7                         @ libraries/STM32H7xx_HAL/STM32H7xx_HAL_Driver/Src/stm32h7xx_hal_mdma.c:726:7
	ldr	r0, [sp, #32]
	.loc	5 726 22 is_stmt 0              @ libraries/STM32H7xx_HAL/STM32H7xx_HAL_Driver/Src/stm32h7xx_hal_mdma.c:726:22
	cbz	r0, .LBB7_2
	b	.LBB7_1
.LBB7_1:
	.loc	5 726 26                        @ libraries/STM32H7xx_HAL/STM32H7xx_HAL_Driver/Src/stm32h7xx_hal_mdma.c:726:26
	ldr	r0, [sp, #28]
.Ltmp147:
	.loc	5 726 6                         @ libraries/STM32H7xx_HAL/STM32H7xx_HAL_Driver/Src/stm32h7xx_hal_mdma.c:726:6
	cbnz	r0, .LBB7_3
	b	.LBB7_2
.LBB7_2:
	.loc	5 0 6                           @ libraries/STM32H7xx_HAL/STM32H7xx_HAL_Driver/Src/stm32h7xx_hal_mdma.c:0:6
	movs	r0, #1
.Ltmp148:
	.loc	5 728 5 is_stmt 1               @ libraries/STM32H7xx_HAL/STM32H7xx_HAL_Driver/Src/stm32h7xx_hal_mdma.c:728:5
	strb.w	r0, [sp, #39]
	b	.LBB7_47
.Ltmp149:
.LBB7_3:
	.loc	5 732 3                         @ libraries/STM32H7xx_HAL/STM32H7xx_HAL_Driver/Src/stm32h7xx_hal_mdma.c:732:3
	b	.LBB7_4
.LBB7_4:
.Ltmp150:
	.loc	5 732 3 is_stmt 0               @ libraries/STM32H7xx_HAL/STM32H7xx_HAL_Driver/Src/stm32h7xx_hal_mdma.c:732:3
	ldr	r0, [sp, #32]
	ldrb.w	r0, [r0, #60]
.Ltmp151:
	.loc	5 732 3                         @ libraries/STM32H7xx_HAL/STM32H7xx_HAL_Driver/Src/stm32h7xx_hal_mdma.c:732:3
	cmp	r0, #1
	bne	.LBB7_6
	b	.LBB7_5
.LBB7_5:
	.loc	5 0 3                           @ libraries/STM32H7xx_HAL/STM32H7xx_HAL_Driver/Src/stm32h7xx_hal_mdma.c:0:3
	movs	r0, #2
.Ltmp152:
	.loc	5 732 3                         @ libraries/STM32H7xx_HAL/STM32H7xx_HAL_Driver/Src/stm32h7xx_hal_mdma.c:732:3
	strb.w	r0, [sp, #39]
	b	.LBB7_47
.Ltmp153:
.LBB7_6:
	.loc	5 732 3                         @ libraries/STM32H7xx_HAL/STM32H7xx_HAL_Driver/Src/stm32h7xx_hal_mdma.c:732:3
	ldr	r1, [sp, #32]
	movs	r0, #1
	strb.w	r0, [r1, #60]
	b	.LBB7_7
.Ltmp154:
.LBB7_7:
	.loc	5 732 3                         @ libraries/STM32H7xx_HAL/STM32H7xx_HAL_Driver/Src/stm32h7xx_hal_mdma.c:732:3
	b	.LBB7_8
.Ltmp155:
.LBB7_8:
	.loc	5 734 30 is_stmt 1              @ libraries/STM32H7xx_HAL/STM32H7xx_HAL_Driver/Src/stm32h7xx_hal_mdma.c:734:30
	ldr	r0, [sp, #32]
	.loc	5 734 37 is_stmt 0              @ libraries/STM32H7xx_HAL/STM32H7xx_HAL_Driver/Src/stm32h7xx_hal_mdma.c:734:37
	ldrb.w	r0, [r0, #61]
.Ltmp156:
	.loc	5 734 6                         @ libraries/STM32H7xx_HAL/STM32H7xx_HAL_Driver/Src/stm32h7xx_hal_mdma.c:734:6
	cmp	r0, #1
	bne.w	.LBB7_44
	b	.LBB7_9
.LBB7_9:
.Ltmp157:
	.loc	5 737 5 is_stmt 1               @ libraries/STM32H7xx_HAL/STM32H7xx_HAL_Driver/Src/stm32h7xx_hal_mdma.c:737:5
	ldr	r1, [sp, #32]
	movs	r0, #2
	.loc	5 737 18 is_stmt 0              @ libraries/STM32H7xx_HAL/STM32H7xx_HAL_Driver/Src/stm32h7xx_hal_mdma.c:737:18
	strb.w	r0, [r1, #61]
.Ltmp158:
	.loc	5 740 18 is_stmt 1              @ libraries/STM32H7xx_HAL/STM32H7xx_HAL_Driver/Src/stm32h7xx_hal_mdma.c:740:18
	ldr	r0, [sp, #32]
	.loc	5 740 25 is_stmt 0              @ libraries/STM32H7xx_HAL/STM32H7xx_HAL_Driver/Src/stm32h7xx_hal_mdma.c:740:25
	ldr	r0, [r0, #92]
.Ltmp159:
	.loc	5 740 8                         @ libraries/STM32H7xx_HAL/STM32H7xx_HAL_Driver/Src/stm32h7xx_hal_mdma.c:740:8
	cbnz	r0, .LBB7_14
	b	.LBB7_10
.LBB7_10:
.Ltmp160:
	.loc	5 742 10 is_stmt 1              @ libraries/STM32H7xx_HAL/STM32H7xx_HAL_Driver/Src/stm32h7xx_hal_mdma.c:742:10
	ldr	r0, [sp, #24]
.Ltmp161:
	.loc	5 742 10 is_stmt 0              @ libraries/STM32H7xx_HAL/STM32H7xx_HAL_Driver/Src/stm32h7xx_hal_mdma.c:742:10
	cbnz	r0, .LBB7_12
	b	.LBB7_11
.LBB7_11:
.Ltmp162:
	.loc	5 747 43 is_stmt 1              @ libraries/STM32H7xx_HAL/STM32H7xx_HAL_Driver/Src/stm32h7xx_hal_mdma.c:747:43
	ldr	r0, [sp, #28]
	.loc	5 747 9 is_stmt 0               @ libraries/STM32H7xx_HAL/STM32H7xx_HAL_Driver/Src/stm32h7xx_hal_mdma.c:747:9
	ldr	r1, [sp, #32]
	.loc	5 747 16                        @ libraries/STM32H7xx_HAL/STM32H7xx_HAL_Driver/Src/stm32h7xx_hal_mdma.c:747:16
	ldr	r1, [r1]
	.loc	5 747 31                        @ libraries/STM32H7xx_HAL/STM32H7xx_HAL_Driver/Src/stm32h7xx_hal_mdma.c:747:31
	str	r0, [r1, #36]
	.loc	5 749 45 is_stmt 1              @ libraries/STM32H7xx_HAL/STM32H7xx_HAL_Driver/Src/stm32h7xx_hal_mdma.c:749:45
	ldr	r0, [sp, #28]
	.loc	5 749 9 is_stmt 0               @ libraries/STM32H7xx_HAL/STM32H7xx_HAL_Driver/Src/stm32h7xx_hal_mdma.c:749:9
	ldr	r1, [sp, #32]
	.loc	5 749 43                        @ libraries/STM32H7xx_HAL/STM32H7xx_HAL_Driver/Src/stm32h7xx_hal_mdma.c:749:43
	str	r0, [r1, #92]
	.loc	5 752 9 is_stmt 1               @ libraries/STM32H7xx_HAL/STM32H7xx_HAL_Driver/Src/stm32h7xx_hal_mdma.c:752:9
	ldr	r1, [sp, #28]
	movs	r0, #0
	.loc	5 752 24 is_stmt 0              @ libraries/STM32H7xx_HAL/STM32H7xx_HAL_Driver/Src/stm32h7xx_hal_mdma.c:752:24
	str	r0, [r1, #20]
	.loc	5 755 44 is_stmt 1              @ libraries/STM32H7xx_HAL/STM32H7xx_HAL_Driver/Src/stm32h7xx_hal_mdma.c:755:44
	ldr	r0, [sp, #28]
	.loc	5 755 9 is_stmt 0               @ libraries/STM32H7xx_HAL/STM32H7xx_HAL_Driver/Src/stm32h7xx_hal_mdma.c:755:9
	ldr	r1, [sp, #32]
	.loc	5 755 42                        @ libraries/STM32H7xx_HAL/STM32H7xx_HAL_Driver/Src/stm32h7xx_hal_mdma.c:755:42
	str	r0, [r1, #96]
	.loc	5 757 9 is_stmt 1               @ libraries/STM32H7xx_HAL/STM32H7xx_HAL_Driver/Src/stm32h7xx_hal_mdma.c:757:9
	ldr	r1, [sp, #32]
	movs	r0, #1
	.loc	5 757 38 is_stmt 0              @ libraries/STM32H7xx_HAL/STM32H7xx_HAL_Driver/Src/stm32h7xx_hal_mdma.c:757:38
	str	r0, [r1, #100]
	.loc	5 758 7 is_stmt 1               @ libraries/STM32H7xx_HAL/STM32H7xx_HAL_Driver/Src/stm32h7xx_hal_mdma.c:758:7
	b	.LBB7_13
.Ltmp163:
.LBB7_12:
	.loc	5 0 7 is_stmt 0                 @ libraries/STM32H7xx_HAL/STM32H7xx_HAL_Driver/Src/stm32h7xx_hal_mdma.c:0:7
	movs	r0, #1
.Ltmp164:
	.loc	5 761 20 is_stmt 1              @ libraries/STM32H7xx_HAL/STM32H7xx_HAL_Driver/Src/stm32h7xx_hal_mdma.c:761:20
	strb.w	r0, [sp, #11]
	b	.LBB7_13
.Ltmp165:
.LBB7_13:
	.loc	5 763 5                         @ libraries/STM32H7xx_HAL/STM32H7xx_HAL_Driver/Src/stm32h7xx_hal_mdma.c:763:5
	b	.LBB7_41
.Ltmp166:
.LBB7_14:
	.loc	5 764 13                        @ libraries/STM32H7xx_HAL/STM32H7xx_HAL_Driver/Src/stm32h7xx_hal_mdma.c:764:13
	ldr	r0, [sp, #32]
	.loc	5 764 20 is_stmt 0              @ libraries/STM32H7xx_HAL/STM32H7xx_HAL_Driver/Src/stm32h7xx_hal_mdma.c:764:20
	ldr	r0, [r0, #92]
	.loc	5 764 50                        @ libraries/STM32H7xx_HAL/STM32H7xx_HAL_Driver/Src/stm32h7xx_hal_mdma.c:764:50
	ldr	r1, [sp, #28]
.Ltmp167:
	.loc	5 764 13                        @ libraries/STM32H7xx_HAL/STM32H7xx_HAL_Driver/Src/stm32h7xx_hal_mdma.c:764:13
	cmp	r0, r1
	beq.w	.LBB7_39
	b	.LBB7_15
.LBB7_15:
.Ltmp168:
	.loc	5 767 15 is_stmt 1              @ libraries/STM32H7xx_HAL/STM32H7xx_HAL_Driver/Src/stm32h7xx_hal_mdma.c:767:15
	ldr	r0, [sp, #32]
	.loc	5 767 22 is_stmt 0              @ libraries/STM32H7xx_HAL/STM32H7xx_HAL_Driver/Src/stm32h7xx_hal_mdma.c:767:22
	ldr	r0, [r0, #92]
	.loc	5 767 13                        @ libraries/STM32H7xx_HAL/STM32H7xx_HAL_Driver/Src/stm32h7xx_hal_mdma.c:767:13
	str	r0, [sp, #20]
	.loc	5 768 7 is_stmt 1               @ libraries/STM32H7xx_HAL/STM32H7xx_HAL_Driver/Src/stm32h7xx_hal_mdma.c:768:7
	b	.LBB7_16
.LBB7_16:                               @ =>This Inner Loop Header: Depth=1
	.loc	5 768 14 is_stmt 0              @ libraries/STM32H7xx_HAL/STM32H7xx_HAL_Driver/Src/stm32h7xx_hal_mdma.c:768:14
	ldr	r1, [sp, #16]
	.loc	5 768 24                        @ libraries/STM32H7xx_HAL/STM32H7xx_HAL_Driver/Src/stm32h7xx_hal_mdma.c:768:24
	ldr	r0, [sp, #32]
	.loc	5 768 31                        @ libraries/STM32H7xx_HAL/STM32H7xx_HAL_Driver/Src/stm32h7xx_hal_mdma.c:768:31
	ldr	r2, [r0, #100]
	movs	r0, #0
	.loc	5 768 54                        @ libraries/STM32H7xx_HAL/STM32H7xx_HAL_Driver/Src/stm32h7xx_hal_mdma.c:768:54
	cmp	r1, r2
	str	r0, [sp, #4]                    @ 4-byte Spill
	bhs	.LBB7_18
	b	.LBB7_17
.LBB7_17:                               @   in Loop: Header=BB7_16 Depth=1
	.loc	5 768 58                        @ libraries/STM32H7xx_HAL/STM32H7xx_HAL_Driver/Src/stm32h7xx_hal_mdma.c:768:58
	ldrb.w	r0, [sp, #11]
	.loc	5 768 69                        @ libraries/STM32H7xx_HAL/STM32H7xx_HAL_Driver/Src/stm32h7xx_hal_mdma.c:768:69
	clz	r0, r0
	lsrs	r0, r0, #5
	str	r0, [sp, #4]                    @ 4-byte Spill
	b	.LBB7_18
.LBB7_18:                               @   in Loop: Header=BB7_16 Depth=1
	.loc	5 0 0                           @ libraries/STM32H7xx_HAL/STM32H7xx_HAL_Driver/Src/stm32h7xx_hal_mdma.c:0:0
	ldr	r0, [sp, #4]                    @ 4-byte Reload
	.loc	5 768 7                         @ libraries/STM32H7xx_HAL/STM32H7xx_HAL_Driver/Src/stm32h7xx_hal_mdma.c:768:7
	lsls	r0, r0, #31
	cbz	r0, .LBB7_22
	b	.LBB7_19
.LBB7_19:                               @   in Loop: Header=BB7_16 Depth=1
.Ltmp169:
	.loc	5 770 12 is_stmt 1              @ libraries/STM32H7xx_HAL/STM32H7xx_HAL_Driver/Src/stm32h7xx_hal_mdma.c:770:12
	ldr	r0, [sp, #20]
	.loc	5 770 19 is_stmt 0              @ libraries/STM32H7xx_HAL/STM32H7xx_HAL_Driver/Src/stm32h7xx_hal_mdma.c:770:19
	ldr	r0, [r0, #20]
	.loc	5 770 37                        @ libraries/STM32H7xx_HAL/STM32H7xx_HAL_Driver/Src/stm32h7xx_hal_mdma.c:770:37
	ldr	r1, [sp, #28]
.Ltmp170:
	.loc	5 770 12                        @ libraries/STM32H7xx_HAL/STM32H7xx_HAL_Driver/Src/stm32h7xx_hal_mdma.c:770:12
	cmp	r0, r1
	bne	.LBB7_21
	b	.LBB7_20
.LBB7_20:                               @   in Loop: Header=BB7_16 Depth=1
	.loc	5 0 12                          @ libraries/STM32H7xx_HAL/STM32H7xx_HAL_Driver/Src/stm32h7xx_hal_mdma.c:0:12
	movs	r0, #1
.Ltmp171:
	.loc	5 772 22 is_stmt 1              @ libraries/STM32H7xx_HAL/STM32H7xx_HAL_Driver/Src/stm32h7xx_hal_mdma.c:772:22
	strb.w	r0, [sp, #11]
	.loc	5 773 9                         @ libraries/STM32H7xx_HAL/STM32H7xx_HAL_Driver/Src/stm32h7xx_hal_mdma.c:773:9
	b	.LBB7_21
.Ltmp172:
.LBB7_21:                               @   in Loop: Header=BB7_16 Depth=1
	.loc	5 774 41                        @ libraries/STM32H7xx_HAL/STM32H7xx_HAL_Driver/Src/stm32h7xx_hal_mdma.c:774:41
	ldr	r0, [sp, #20]
	.loc	5 774 48 is_stmt 0              @ libraries/STM32H7xx_HAL/STM32H7xx_HAL_Driver/Src/stm32h7xx_hal_mdma.c:774:48
	ldr	r0, [r0, #20]
	.loc	5 774 15                        @ libraries/STM32H7xx_HAL/STM32H7xx_HAL_Driver/Src/stm32h7xx_hal_mdma.c:774:15
	str	r0, [sp, #20]
	.loc	5 775 16 is_stmt 1              @ libraries/STM32H7xx_HAL/STM32H7xx_HAL_Driver/Src/stm32h7xx_hal_mdma.c:775:16
	ldr	r0, [sp, #16]
	adds	r0, #1
	str	r0, [sp, #16]
.Ltmp173:
	.loc	5 768 7                         @ libraries/STM32H7xx_HAL/STM32H7xx_HAL_Driver/Src/stm32h7xx_hal_mdma.c:768:7
	b	.LBB7_16
.LBB7_22:
.Ltmp174:
	.loc	5 778 10                        @ libraries/STM32H7xx_HAL/STM32H7xx_HAL_Driver/Src/stm32h7xx_hal_mdma.c:778:10
	ldrb.w	r0, [sp, #11]
.Ltmp175:
	.loc	5 778 10 is_stmt 0              @ libraries/STM32H7xx_HAL/STM32H7xx_HAL_Driver/Src/stm32h7xx_hal_mdma.c:778:10
	cmp	r0, #0
	bne	.LBB7_38
	b	.LBB7_23
.LBB7_23:
.Ltmp176:
	.loc	5 781 13 is_stmt 1              @ libraries/STM32H7xx_HAL/STM32H7xx_HAL_Driver/Src/stm32h7xx_hal_mdma.c:781:13
	ldr	r0, [sp, #24]
	.loc	5 781 26 is_stmt 0              @ libraries/STM32H7xx_HAL/STM32H7xx_HAL_Driver/Src/stm32h7xx_hal_mdma.c:781:26
	ldr	r1, [sp, #32]
	.loc	5 781 33                        @ libraries/STM32H7xx_HAL/STM32H7xx_HAL_Driver/Src/stm32h7xx_hal_mdma.c:781:33
	ldr	r1, [r1, #96]
	.loc	5 781 60                        @ libraries/STM32H7xx_HAL/STM32H7xx_HAL_Driver/Src/stm32h7xx_hal_mdma.c:781:60
	cmp	r0, r1
	beq	.LBB7_25
	b	.LBB7_24
.LBB7_24:
	.loc	5 781 64                        @ libraries/STM32H7xx_HAL/STM32H7xx_HAL_Driver/Src/stm32h7xx_hal_mdma.c:781:64
	ldr	r0, [sp, #24]
.Ltmp177:
	.loc	5 781 12                        @ libraries/STM32H7xx_HAL/STM32H7xx_HAL_Driver/Src/stm32h7xx_hal_mdma.c:781:12
	cbnz	r0, .LBB7_26
	b	.LBB7_25
.LBB7_25:
.Ltmp178:
	.loc	5 784 28 is_stmt 1              @ libraries/STM32H7xx_HAL/STM32H7xx_HAL_Driver/Src/stm32h7xx_hal_mdma.c:784:28
	ldr	r0, [sp, #32]
	.loc	5 784 35 is_stmt 0              @ libraries/STM32H7xx_HAL/STM32H7xx_HAL_Driver/Src/stm32h7xx_hal_mdma.c:784:35
	ldr	r0, [r0, #96]
	.loc	5 784 62                        @ libraries/STM32H7xx_HAL/STM32H7xx_HAL_Driver/Src/stm32h7xx_hal_mdma.c:784:62
	ldr	r0, [r0, #20]
	.loc	5 784 11                        @ libraries/STM32H7xx_HAL/STM32H7xx_HAL_Driver/Src/stm32h7xx_hal_mdma.c:784:11
	ldr	r1, [sp, #28]
	.loc	5 784 26                        @ libraries/STM32H7xx_HAL/STM32H7xx_HAL_Driver/Src/stm32h7xx_hal_mdma.c:784:26
	str	r0, [r1, #20]
	.loc	5 785 62 is_stmt 1              @ libraries/STM32H7xx_HAL/STM32H7xx_HAL_Driver/Src/stm32h7xx_hal_mdma.c:785:62
	ldr	r0, [sp, #28]
	.loc	5 785 11 is_stmt 0              @ libraries/STM32H7xx_HAL/STM32H7xx_HAL_Driver/Src/stm32h7xx_hal_mdma.c:785:11
	ldr	r1, [sp, #32]
	.loc	5 785 18                        @ libraries/STM32H7xx_HAL/STM32H7xx_HAL_Driver/Src/stm32h7xx_hal_mdma.c:785:18
	ldr	r1, [r1, #96]
	.loc	5 785 50                        @ libraries/STM32H7xx_HAL/STM32H7xx_HAL_Driver/Src/stm32h7xx_hal_mdma.c:785:50
	str	r0, [r1, #20]
	.loc	5 787 46 is_stmt 1              @ libraries/STM32H7xx_HAL/STM32H7xx_HAL_Driver/Src/stm32h7xx_hal_mdma.c:787:46
	ldr	r0, [sp, #28]
	.loc	5 787 11 is_stmt 0              @ libraries/STM32H7xx_HAL/STM32H7xx_HAL_Driver/Src/stm32h7xx_hal_mdma.c:787:11
	ldr	r1, [sp, #32]
	.loc	5 787 44                        @ libraries/STM32H7xx_HAL/STM32H7xx_HAL_Driver/Src/stm32h7xx_hal_mdma.c:787:44
	str	r0, [r1, #96]
	.loc	5 789 11 is_stmt 1              @ libraries/STM32H7xx_HAL/STM32H7xx_HAL_Driver/Src/stm32h7xx_hal_mdma.c:789:11
	ldr	r1, [sp, #32]
	.loc	5 789 39 is_stmt 0              @ libraries/STM32H7xx_HAL/STM32H7xx_HAL_Driver/Src/stm32h7xx_hal_mdma.c:789:39
	ldr	r0, [r1, #100]
	adds	r0, #1
	str	r0, [r1, #100]
	.loc	5 790 9 is_stmt 1               @ libraries/STM32H7xx_HAL/STM32H7xx_HAL_Driver/Src/stm32h7xx_hal_mdma.c:790:9
	b	.LBB7_37
.Ltmp179:
.LBB7_26:
	.loc	5 794 19                        @ libraries/STM32H7xx_HAL/STM32H7xx_HAL_Driver/Src/stm32h7xx_hal_mdma.c:794:19
	ldr	r0, [sp, #32]
	.loc	5 794 26 is_stmt 0              @ libraries/STM32H7xx_HAL/STM32H7xx_HAL_Driver/Src/stm32h7xx_hal_mdma.c:794:26
	ldr	r0, [r0, #92]
	.loc	5 794 17                        @ libraries/STM32H7xx_HAL/STM32H7xx_HAL_Driver/Src/stm32h7xx_hal_mdma.c:794:17
	str	r0, [sp, #20]
	movs	r0, #0
	.loc	5 795 19 is_stmt 1              @ libraries/STM32H7xx_HAL/STM32H7xx_HAL_Driver/Src/stm32h7xx_hal_mdma.c:795:19
	str	r0, [sp, #16]
	.loc	5 796 11                        @ libraries/STM32H7xx_HAL/STM32H7xx_HAL_Driver/Src/stm32h7xx_hal_mdma.c:796:11
	b	.LBB7_27
.LBB7_27:                               @ =>This Inner Loop Header: Depth=1
	.loc	5 796 18 is_stmt 0              @ libraries/STM32H7xx_HAL/STM32H7xx_HAL_Driver/Src/stm32h7xx_hal_mdma.c:796:18
	ldr	r1, [sp, #16]
	.loc	5 796 28                        @ libraries/STM32H7xx_HAL/STM32H7xx_HAL_Driver/Src/stm32h7xx_hal_mdma.c:796:28
	ldr	r0, [sp, #32]
	.loc	5 796 35                        @ libraries/STM32H7xx_HAL/STM32H7xx_HAL_Driver/Src/stm32h7xx_hal_mdma.c:796:35
	ldr	r2, [r0, #100]
	movs	r0, #0
	.loc	5 796 58                        @ libraries/STM32H7xx_HAL/STM32H7xx_HAL_Driver/Src/stm32h7xx_hal_mdma.c:796:58
	cmp	r1, r2
	str	r0, [sp]                        @ 4-byte Spill
	bhs	.LBB7_29
	b	.LBB7_28
.LBB7_28:                               @   in Loop: Header=BB7_27 Depth=1
	.loc	5 796 62                        @ libraries/STM32H7xx_HAL/STM32H7xx_HAL_Driver/Src/stm32h7xx_hal_mdma.c:796:62
	ldr	r0, [sp, #12]
	.loc	5 796 75                        @ libraries/STM32H7xx_HAL/STM32H7xx_HAL_Driver/Src/stm32h7xx_hal_mdma.c:796:75
	clz	r0, r0
	lsrs	r0, r0, #5
	str	r0, [sp]                        @ 4-byte Spill
	b	.LBB7_29
.LBB7_29:                               @   in Loop: Header=BB7_27 Depth=1
	.loc	5 0 0                           @ libraries/STM32H7xx_HAL/STM32H7xx_HAL_Driver/Src/stm32h7xx_hal_mdma.c:0:0
	ldr	r0, [sp]                        @ 4-byte Reload
	.loc	5 796 11                        @ libraries/STM32H7xx_HAL/STM32H7xx_HAL_Driver/Src/stm32h7xx_hal_mdma.c:796:11
	lsls	r0, r0, #31
	cbz	r0, .LBB7_34
	b	.LBB7_30
.LBB7_30:                               @   in Loop: Header=BB7_27 Depth=1
.Ltmp180:
	.loc	5 798 20 is_stmt 1              @ libraries/STM32H7xx_HAL/STM32H7xx_HAL_Driver/Src/stm32h7xx_hal_mdma.c:798:20
	ldr	r0, [sp, #16]
	adds	r0, #1
	str	r0, [sp, #16]
.Ltmp181:
	.loc	5 799 16                        @ libraries/STM32H7xx_HAL/STM32H7xx_HAL_Driver/Src/stm32h7xx_hal_mdma.c:799:16
	ldr	r0, [sp, #20]
	.loc	5 799 25 is_stmt 0              @ libraries/STM32H7xx_HAL/STM32H7xx_HAL_Driver/Src/stm32h7xx_hal_mdma.c:799:25
	ldr	r1, [sp, #24]
.Ltmp182:
	.loc	5 799 16                        @ libraries/STM32H7xx_HAL/STM32H7xx_HAL_Driver/Src/stm32h7xx_hal_mdma.c:799:16
	cmp	r0, r1
	bne	.LBB7_32
	b	.LBB7_31
.LBB7_31:                               @   in Loop: Header=BB7_27 Depth=1
.Ltmp183:
	.loc	5 802 32 is_stmt 1              @ libraries/STM32H7xx_HAL/STM32H7xx_HAL_Driver/Src/stm32h7xx_hal_mdma.c:802:32
	ldr	r0, [sp, #20]
	.loc	5 802 39 is_stmt 0              @ libraries/STM32H7xx_HAL/STM32H7xx_HAL_Driver/Src/stm32h7xx_hal_mdma.c:802:39
	ldr	r0, [r0, #20]
	.loc	5 802 15                        @ libraries/STM32H7xx_HAL/STM32H7xx_HAL_Driver/Src/stm32h7xx_hal_mdma.c:802:15
	ldr	r1, [sp, #28]
	.loc	5 802 30                        @ libraries/STM32H7xx_HAL/STM32H7xx_HAL_Driver/Src/stm32h7xx_hal_mdma.c:802:30
	str	r0, [r1, #20]
	.loc	5 803 39 is_stmt 1              @ libraries/STM32H7xx_HAL/STM32H7xx_HAL_Driver/Src/stm32h7xx_hal_mdma.c:803:39
	ldr	r0, [sp, #28]
	.loc	5 803 15 is_stmt 0              @ libraries/STM32H7xx_HAL/STM32H7xx_HAL_Driver/Src/stm32h7xx_hal_mdma.c:803:15
	ldr	r1, [sp, #20]
	.loc	5 803 27                        @ libraries/STM32H7xx_HAL/STM32H7xx_HAL_Driver/Src/stm32h7xx_hal_mdma.c:803:27
	str	r0, [r1, #20]
	.loc	5 805 15 is_stmt 1              @ libraries/STM32H7xx_HAL/STM32H7xx_HAL_Driver/Src/stm32h7xx_hal_mdma.c:805:15
	ldr	r1, [sp, #32]
	.loc	5 805 43 is_stmt 0              @ libraries/STM32H7xx_HAL/STM32H7xx_HAL_Driver/Src/stm32h7xx_hal_mdma.c:805:43
	ldr	r0, [r1, #100]
	adds	r0, #1
	str	r0, [r1, #100]
	movs	r0, #1
	.loc	5 806 28 is_stmt 1              @ libraries/STM32H7xx_HAL/STM32H7xx_HAL_Driver/Src/stm32h7xx_hal_mdma.c:806:28
	str	r0, [sp, #12]
	.loc	5 807 13                        @ libraries/STM32H7xx_HAL/STM32H7xx_HAL_Driver/Src/stm32h7xx_hal_mdma.c:807:13
	b	.LBB7_33
.Ltmp184:
.LBB7_32:                               @   in Loop: Header=BB7_27 Depth=1
	.loc	5 810 47                        @ libraries/STM32H7xx_HAL/STM32H7xx_HAL_Driver/Src/stm32h7xx_hal_mdma.c:810:47
	ldr	r0, [sp, #20]
	.loc	5 810 54 is_stmt 0              @ libraries/STM32H7xx_HAL/STM32H7xx_HAL_Driver/Src/stm32h7xx_hal_mdma.c:810:54
	ldr	r0, [r0, #20]
	.loc	5 810 21                        @ libraries/STM32H7xx_HAL/STM32H7xx_HAL_Driver/Src/stm32h7xx_hal_mdma.c:810:21
	str	r0, [sp, #20]
	b	.LBB7_33
.Ltmp185:
.LBB7_33:                               @   in Loop: Header=BB7_27 Depth=1
	.loc	5 796 11 is_stmt 1              @ libraries/STM32H7xx_HAL/STM32H7xx_HAL_Driver/Src/stm32h7xx_hal_mdma.c:796:11
	b	.LBB7_27
.LBB7_34:
.Ltmp186:
	.loc	5 814 14                        @ libraries/STM32H7xx_HAL/STM32H7xx_HAL_Driver/Src/stm32h7xx_hal_mdma.c:814:14
	ldr	r0, [sp, #12]
.Ltmp187:
	.loc	5 814 14 is_stmt 0              @ libraries/STM32H7xx_HAL/STM32H7xx_HAL_Driver/Src/stm32h7xx_hal_mdma.c:814:14
	cbnz	r0, .LBB7_36
	b	.LBB7_35
.LBB7_35:
	.loc	5 0 14                          @ libraries/STM32H7xx_HAL/STM32H7xx_HAL_Driver/Src/stm32h7xx_hal_mdma.c:0:14
	movs	r0, #1
.Ltmp188:
	.loc	5 816 24 is_stmt 1              @ libraries/STM32H7xx_HAL/STM32H7xx_HAL_Driver/Src/stm32h7xx_hal_mdma.c:816:24
	strb.w	r0, [sp, #11]
	.loc	5 817 11                        @ libraries/STM32H7xx_HAL/STM32H7xx_HAL_Driver/Src/stm32h7xx_hal_mdma.c:817:11
	b	.LBB7_36
.Ltmp189:
.LBB7_36:
	.loc	5 0 11 is_stmt 0                @ libraries/STM32H7xx_HAL/STM32H7xx_HAL_Driver/Src/stm32h7xx_hal_mdma.c:0:11
	b	.LBB7_37
.LBB7_37:
	.loc	5 819 7 is_stmt 1               @ libraries/STM32H7xx_HAL/STM32H7xx_HAL_Driver/Src/stm32h7xx_hal_mdma.c:819:7
	b	.LBB7_38
.Ltmp190:
.LBB7_38:
	.loc	5 820 5                         @ libraries/STM32H7xx_HAL/STM32H7xx_HAL_Driver/Src/stm32h7xx_hal_mdma.c:820:5
	b	.LBB7_40
.Ltmp191:
.LBB7_39:
	.loc	5 0 5 is_stmt 0                 @ libraries/STM32H7xx_HAL/STM32H7xx_HAL_Driver/Src/stm32h7xx_hal_mdma.c:0:5
	movs	r0, #1
.Ltmp192:
	.loc	5 823 18 is_stmt 1              @ libraries/STM32H7xx_HAL/STM32H7xx_HAL_Driver/Src/stm32h7xx_hal_mdma.c:823:18
	strb.w	r0, [sp, #11]
	b	.LBB7_40
.Ltmp193:
.LBB7_40:
	.loc	5 0 18 is_stmt 0                @ libraries/STM32H7xx_HAL/STM32H7xx_HAL_Driver/Src/stm32h7xx_hal_mdma.c:0:18
	b	.LBB7_41
.LBB7_41:
	.loc	5 827 5 is_stmt 1               @ libraries/STM32H7xx_HAL/STM32H7xx_HAL_Driver/Src/stm32h7xx_hal_mdma.c:827:5
	b	.LBB7_42
.LBB7_42:
.Ltmp194:
	.loc	5 827 5 is_stmt 0               @ libraries/STM32H7xx_HAL/STM32H7xx_HAL_Driver/Src/stm32h7xx_hal_mdma.c:827:5
	ldr	r1, [sp, #32]
	movs	r0, #0
	strb.w	r0, [r1, #60]
	b	.LBB7_43
.Ltmp195:
.LBB7_43:
	.loc	5 829 5 is_stmt 1               @ libraries/STM32H7xx_HAL/STM32H7xx_HAL_Driver/Src/stm32h7xx_hal_mdma.c:829:5
	ldr	r1, [sp, #32]
	movs	r0, #1
	.loc	5 829 18 is_stmt 0              @ libraries/STM32H7xx_HAL/STM32H7xx_HAL_Driver/Src/stm32h7xx_hal_mdma.c:829:18
	strb.w	r0, [r1, #61]
	.loc	5 831 12 is_stmt 1              @ libraries/STM32H7xx_HAL/STM32H7xx_HAL_Driver/Src/stm32h7xx_hal_mdma.c:831:12
	ldrb.w	r0, [sp, #11]
	.loc	5 831 5 is_stmt 0               @ libraries/STM32H7xx_HAL/STM32H7xx_HAL_Driver/Src/stm32h7xx_hal_mdma.c:831:5
	strb.w	r0, [sp, #39]
	b	.LBB7_47
.Ltmp196:
.LBB7_44:
	.loc	5 836 5 is_stmt 1               @ libraries/STM32H7xx_HAL/STM32H7xx_HAL_Driver/Src/stm32h7xx_hal_mdma.c:836:5
	b	.LBB7_45
.LBB7_45:
.Ltmp197:
	.loc	5 836 5 is_stmt 0               @ libraries/STM32H7xx_HAL/STM32H7xx_HAL_Driver/Src/stm32h7xx_hal_mdma.c:836:5
	ldr	r1, [sp, #32]
	movs	r0, #0
	strb.w	r0, [r1, #60]
	b	.LBB7_46
.Ltmp198:
.LBB7_46:
	.loc	5 0 5                           @ libraries/STM32H7xx_HAL/STM32H7xx_HAL_Driver/Src/stm32h7xx_hal_mdma.c:0:5
	movs	r0, #2
	.loc	5 839 5 is_stmt 1               @ libraries/STM32H7xx_HAL/STM32H7xx_HAL_Driver/Src/stm32h7xx_hal_mdma.c:839:5
	strb.w	r0, [sp, #39]
	b	.LBB7_47
.Ltmp199:
.LBB7_47:
	.loc	5 841 1                         @ libraries/STM32H7xx_HAL/STM32H7xx_HAL_Driver/Src/stm32h7xx_hal_mdma.c:841:1
	ldrb.w	r0, [sp, #39]
	add	sp, #40
	bx	lr
.Ltmp200:
.Lfunc_end7:
	.size	HAL_MDMA_LinkedList_AddNode, .Lfunc_end7-HAL_MDMA_LinkedList_AddNode
	.cfi_endproc
	.cantunwind
	.fnend
                                        @ -- End function
	.section	.text.HAL_MDMA_LinkedList_RemoveNode,"ax",%progbits
	.hidden	HAL_MDMA_LinkedList_RemoveNode  @ -- Begin function HAL_MDMA_LinkedList_RemoveNode
	.globl	HAL_MDMA_LinkedList_RemoveNode
	.p2align	3
	.type	HAL_MDMA_LinkedList_RemoveNode,%function
	.code	16                              @ @HAL_MDMA_LinkedList_RemoveNode
	.thumb_func
HAL_MDMA_LinkedList_RemoveNode:
.Lfunc_begin8:
	.loc	5 853 0                         @ libraries/STM32H7xx_HAL/STM32H7xx_HAL_Driver/Src/stm32h7xx_hal_mdma.c:853:0
	.fnstart
	.cfi_startproc
@ %bb.0:
	.pad	#32
	sub	sp, #32
	.cfi_def_cfa_offset 32
	str	r0, [sp, #24]
	str	r1, [sp, #20]
	movs	r0, #0
.Ltmp201:
	.loc	5 855 12 prologue_end           @ libraries/STM32H7xx_HAL/STM32H7xx_HAL_Driver/Src/stm32h7xx_hal_mdma.c:855:12
	str	r0, [sp, #12]
	.loc	5 855 25 is_stmt 0              @ libraries/STM32H7xx_HAL/STM32H7xx_HAL_Driver/Src/stm32h7xx_hal_mdma.c:855:25
	str	r0, [sp, #8]
	.loc	5 856 21 is_stmt 1              @ libraries/STM32H7xx_HAL/STM32H7xx_HAL_Driver/Src/stm32h7xx_hal_mdma.c:856:21
	strb.w	r0, [sp, #7]
.Ltmp202:
	.loc	5 859 7                         @ libraries/STM32H7xx_HAL/STM32H7xx_HAL_Driver/Src/stm32h7xx_hal_mdma.c:859:7
	ldr	r0, [sp, #24]
	.loc	5 859 22 is_stmt 0              @ libraries/STM32H7xx_HAL/STM32H7xx_HAL_Driver/Src/stm32h7xx_hal_mdma.c:859:22
	cbz	r0, .LBB8_2
	b	.LBB8_1
.LBB8_1:
	.loc	5 859 26                        @ libraries/STM32H7xx_HAL/STM32H7xx_HAL_Driver/Src/stm32h7xx_hal_mdma.c:859:26
	ldr	r0, [sp, #20]
.Ltmp203:
	.loc	5 859 6                         @ libraries/STM32H7xx_HAL/STM32H7xx_HAL_Driver/Src/stm32h7xx_hal_mdma.c:859:6
	cbnz	r0, .LBB8_3
	b	.LBB8_2
.LBB8_2:
	.loc	5 0 6                           @ libraries/STM32H7xx_HAL/STM32H7xx_HAL_Driver/Src/stm32h7xx_hal_mdma.c:0:6
	movs	r0, #1
.Ltmp204:
	.loc	5 861 5 is_stmt 1               @ libraries/STM32H7xx_HAL/STM32H7xx_HAL_Driver/Src/stm32h7xx_hal_mdma.c:861:5
	strb.w	r0, [sp, #31]
	b	.LBB8_40
.Ltmp205:
.LBB8_3:
	.loc	5 865 3                         @ libraries/STM32H7xx_HAL/STM32H7xx_HAL_Driver/Src/stm32h7xx_hal_mdma.c:865:3
	b	.LBB8_4
.LBB8_4:
.Ltmp206:
	.loc	5 865 3 is_stmt 0               @ libraries/STM32H7xx_HAL/STM32H7xx_HAL_Driver/Src/stm32h7xx_hal_mdma.c:865:3
	ldr	r0, [sp, #24]
	ldrb.w	r0, [r0, #60]
.Ltmp207:
	.loc	5 865 3                         @ libraries/STM32H7xx_HAL/STM32H7xx_HAL_Driver/Src/stm32h7xx_hal_mdma.c:865:3
	cmp	r0, #1
	bne	.LBB8_6
	b	.LBB8_5
.LBB8_5:
	.loc	5 0 3                           @ libraries/STM32H7xx_HAL/STM32H7xx_HAL_Driver/Src/stm32h7xx_hal_mdma.c:0:3
	movs	r0, #2
.Ltmp208:
	.loc	5 865 3                         @ libraries/STM32H7xx_HAL/STM32H7xx_HAL_Driver/Src/stm32h7xx_hal_mdma.c:865:3
	strb.w	r0, [sp, #31]
	b	.LBB8_40
.Ltmp209:
.LBB8_6:
	.loc	5 865 3                         @ libraries/STM32H7xx_HAL/STM32H7xx_HAL_Driver/Src/stm32h7xx_hal_mdma.c:865:3
	ldr	r1, [sp, #24]
	movs	r0, #1
	strb.w	r0, [r1, #60]
	b	.LBB8_7
.Ltmp210:
.LBB8_7:
	.loc	5 865 3                         @ libraries/STM32H7xx_HAL/STM32H7xx_HAL_Driver/Src/stm32h7xx_hal_mdma.c:865:3
	b	.LBB8_8
.Ltmp211:
.LBB8_8:
	.loc	5 867 30 is_stmt 1              @ libraries/STM32H7xx_HAL/STM32H7xx_HAL_Driver/Src/stm32h7xx_hal_mdma.c:867:30
	ldr	r0, [sp, #24]
	.loc	5 867 37 is_stmt 0              @ libraries/STM32H7xx_HAL/STM32H7xx_HAL_Driver/Src/stm32h7xx_hal_mdma.c:867:37
	ldrb.w	r0, [r0, #61]
.Ltmp212:
	.loc	5 867 6                         @ libraries/STM32H7xx_HAL/STM32H7xx_HAL_Driver/Src/stm32h7xx_hal_mdma.c:867:6
	cmp	r0, #1
	bne.w	.LBB8_37
	b	.LBB8_9
.LBB8_9:
.Ltmp213:
	.loc	5 870 5 is_stmt 1               @ libraries/STM32H7xx_HAL/STM32H7xx_HAL_Driver/Src/stm32h7xx_hal_mdma.c:870:5
	ldr	r1, [sp, #24]
	movs	r0, #2
	.loc	5 870 18 is_stmt 0              @ libraries/STM32H7xx_HAL/STM32H7xx_HAL_Driver/Src/stm32h7xx_hal_mdma.c:870:18
	strb.w	r0, [r1, #61]
.Ltmp214:
	.loc	5 873 19 is_stmt 1              @ libraries/STM32H7xx_HAL/STM32H7xx_HAL_Driver/Src/stm32h7xx_hal_mdma.c:873:19
	ldr	r0, [sp, #24]
	.loc	5 873 26 is_stmt 0              @ libraries/STM32H7xx_HAL/STM32H7xx_HAL_Driver/Src/stm32h7xx_hal_mdma.c:873:26
	ldr	r0, [r0, #92]
	.loc	5 873 60                        @ libraries/STM32H7xx_HAL/STM32H7xx_HAL_Driver/Src/stm32h7xx_hal_mdma.c:873:60
	cbz	r0, .LBB8_12
	b	.LBB8_10
.LBB8_10:
	.loc	5 873 74                        @ libraries/STM32H7xx_HAL/STM32H7xx_HAL_Driver/Src/stm32h7xx_hal_mdma.c:873:74
	ldr	r0, [sp, #24]
	.loc	5 873 81                        @ libraries/STM32H7xx_HAL/STM32H7xx_HAL_Driver/Src/stm32h7xx_hal_mdma.c:873:81
	ldr	r0, [r0, #96]
	.loc	5 873 114                       @ libraries/STM32H7xx_HAL/STM32H7xx_HAL_Driver/Src/stm32h7xx_hal_mdma.c:873:114
	cbz	r0, .LBB8_12
	b	.LBB8_11
.LBB8_11:
	.loc	5 873 118                       @ libraries/STM32H7xx_HAL/STM32H7xx_HAL_Driver/Src/stm32h7xx_hal_mdma.c:873:118
	ldr	r0, [sp, #24]
	.loc	5 873 125                       @ libraries/STM32H7xx_HAL/STM32H7xx_HAL_Driver/Src/stm32h7xx_hal_mdma.c:873:125
	ldr	r0, [r0, #100]
.Ltmp215:
	.loc	5 873 8                         @ libraries/STM32H7xx_HAL/STM32H7xx_HAL_Driver/Src/stm32h7xx_hal_mdma.c:873:8
	cbnz	r0, .LBB8_13
	b	.LBB8_12
.LBB8_12:
	.loc	5 0 8                           @ libraries/STM32H7xx_HAL/STM32H7xx_HAL_Driver/Src/stm32h7xx_hal_mdma.c:0:8
	movs	r0, #1
.Ltmp216:
	.loc	5 875 18 is_stmt 1              @ libraries/STM32H7xx_HAL/STM32H7xx_HAL_Driver/Src/stm32h7xx_hal_mdma.c:875:18
	strb.w	r0, [sp, #7]
	.loc	5 876 5                         @ libraries/STM32H7xx_HAL/STM32H7xx_HAL_Driver/Src/stm32h7xx_hal_mdma.c:876:5
	b	.LBB8_34
.Ltmp217:
.LBB8_13:
	.loc	5 877 13                        @ libraries/STM32H7xx_HAL/STM32H7xx_HAL_Driver/Src/stm32h7xx_hal_mdma.c:877:13
	ldr	r0, [sp, #24]
	.loc	5 877 20 is_stmt 0              @ libraries/STM32H7xx_HAL/STM32H7xx_HAL_Driver/Src/stm32h7xx_hal_mdma.c:877:20
	ldr	r0, [r0, #92]
	.loc	5 877 50                        @ libraries/STM32H7xx_HAL/STM32H7xx_HAL_Driver/Src/stm32h7xx_hal_mdma.c:877:50
	ldr	r1, [sp, #20]
.Ltmp218:
	.loc	5 877 13                        @ libraries/STM32H7xx_HAL/STM32H7xx_HAL_Driver/Src/stm32h7xx_hal_mdma.c:877:13
	cmp	r0, r1
	bne	.LBB8_20
	b	.LBB8_14
.LBB8_14:
.Ltmp219:
	.loc	5 880 10 is_stmt 1              @ libraries/STM32H7xx_HAL/STM32H7xx_HAL_Driver/Src/stm32h7xx_hal_mdma.c:880:10
	ldr	r0, [sp, #24]
	.loc	5 880 17 is_stmt 0              @ libraries/STM32H7xx_HAL/STM32H7xx_HAL_Driver/Src/stm32h7xx_hal_mdma.c:880:17
	ldr	r0, [r0, #96]
	.loc	5 880 46                        @ libraries/STM32H7xx_HAL/STM32H7xx_HAL_Driver/Src/stm32h7xx_hal_mdma.c:880:46
	ldr	r1, [sp, #20]
.Ltmp220:
	.loc	5 880 10                        @ libraries/STM32H7xx_HAL/STM32H7xx_HAL_Driver/Src/stm32h7xx_hal_mdma.c:880:10
	cmp	r0, r1
	bne	.LBB8_16
	b	.LBB8_15
.LBB8_15:
.Ltmp221:
	.loc	5 885 9 is_stmt 1               @ libraries/STM32H7xx_HAL/STM32H7xx_HAL_Driver/Src/stm32h7xx_hal_mdma.c:885:9
	ldr	r1, [sp, #24]
	movs	r0, #0
	.loc	5 885 43 is_stmt 0              @ libraries/STM32H7xx_HAL/STM32H7xx_HAL_Driver/Src/stm32h7xx_hal_mdma.c:885:43
	str	r0, [r1, #92]
	.loc	5 886 9 is_stmt 1               @ libraries/STM32H7xx_HAL/STM32H7xx_HAL_Driver/Src/stm32h7xx_hal_mdma.c:886:9
	ldr	r1, [sp, #24]
	.loc	5 886 43 is_stmt 0              @ libraries/STM32H7xx_HAL/STM32H7xx_HAL_Driver/Src/stm32h7xx_hal_mdma.c:886:43
	str	r0, [r1, #96]
	.loc	5 887 9 is_stmt 1               @ libraries/STM32H7xx_HAL/STM32H7xx_HAL_Driver/Src/stm32h7xx_hal_mdma.c:887:9
	ldr	r1, [sp, #24]
	.loc	5 887 38 is_stmt 0              @ libraries/STM32H7xx_HAL/STM32H7xx_HAL_Driver/Src/stm32h7xx_hal_mdma.c:887:38
	str	r0, [r1, #100]
	.loc	5 889 9 is_stmt 1               @ libraries/STM32H7xx_HAL/STM32H7xx_HAL_Driver/Src/stm32h7xx_hal_mdma.c:889:9
	ldr	r1, [sp, #24]
	.loc	5 889 16 is_stmt 0              @ libraries/STM32H7xx_HAL/STM32H7xx_HAL_Driver/Src/stm32h7xx_hal_mdma.c:889:16
	ldr	r1, [r1]
	.loc	5 889 31                        @ libraries/STM32H7xx_HAL/STM32H7xx_HAL_Driver/Src/stm32h7xx_hal_mdma.c:889:31
	str	r0, [r1, #36]
	.loc	5 890 7 is_stmt 1               @ libraries/STM32H7xx_HAL/STM32H7xx_HAL_Driver/Src/stm32h7xx_hal_mdma.c:890:7
	b	.LBB8_19
.Ltmp222:
.LBB8_16:
	.loc	5 893 22                        @ libraries/STM32H7xx_HAL/STM32H7xx_HAL_Driver/Src/stm32h7xx_hal_mdma.c:893:22
	ldr	r1, [sp, #24]
	.loc	5 893 29 is_stmt 0              @ libraries/STM32H7xx_HAL/STM32H7xx_HAL_Driver/Src/stm32h7xx_hal_mdma.c:893:29
	ldr	r0, [r1, #92]
	.loc	5 893 66                        @ libraries/STM32H7xx_HAL/STM32H7xx_HAL_Driver/Src/stm32h7xx_hal_mdma.c:893:66
	ldr	r1, [r1, #96]
	.loc	5 893 93                        @ libraries/STM32H7xx_HAL/STM32H7xx_HAL_Driver/Src/stm32h7xx_hal_mdma.c:893:93
	ldr	r1, [r1, #20]
.Ltmp223:
	.loc	5 893 12                        @ libraries/STM32H7xx_HAL/STM32H7xx_HAL_Driver/Src/stm32h7xx_hal_mdma.c:893:12
	cmp	r0, r1
	bne	.LBB8_18
	b	.LBB8_17
.LBB8_17:
.Ltmp224:
	.loc	5 896 52 is_stmt 1              @ libraries/STM32H7xx_HAL/STM32H7xx_HAL_Driver/Src/stm32h7xx_hal_mdma.c:896:52
	ldr	r0, [sp, #20]
	.loc	5 896 59 is_stmt 0              @ libraries/STM32H7xx_HAL/STM32H7xx_HAL_Driver/Src/stm32h7xx_hal_mdma.c:896:59
	ldr	r0, [r0, #20]
	.loc	5 896 11                        @ libraries/STM32H7xx_HAL/STM32H7xx_HAL_Driver/Src/stm32h7xx_hal_mdma.c:896:11
	ldr	r1, [sp, #24]
	.loc	5 896 18                        @ libraries/STM32H7xx_HAL/STM32H7xx_HAL_Driver/Src/stm32h7xx_hal_mdma.c:896:18
	ldr	r1, [r1, #96]
	.loc	5 896 50                        @ libraries/STM32H7xx_HAL/STM32H7xx_HAL_Driver/Src/stm32h7xx_hal_mdma.c:896:50
	str	r0, [r1, #20]
	.loc	5 897 9 is_stmt 1               @ libraries/STM32H7xx_HAL/STM32H7xx_HAL_Driver/Src/stm32h7xx_hal_mdma.c:897:9
	b	.LBB8_18
.Ltmp225:
.LBB8_18:
	.loc	5 902 33                        @ libraries/STM32H7xx_HAL/STM32H7xx_HAL_Driver/Src/stm32h7xx_hal_mdma.c:902:33
	ldr	r0, [sp, #20]
	.loc	5 902 40 is_stmt 0              @ libraries/STM32H7xx_HAL/STM32H7xx_HAL_Driver/Src/stm32h7xx_hal_mdma.c:902:40
	ldr	r0, [r0, #20]
	.loc	5 902 9                         @ libraries/STM32H7xx_HAL/STM32H7xx_HAL_Driver/Src/stm32h7xx_hal_mdma.c:902:9
	ldr	r1, [sp, #24]
	.loc	5 902 16                        @ libraries/STM32H7xx_HAL/STM32H7xx_HAL_Driver/Src/stm32h7xx_hal_mdma.c:902:16
	ldr	r1, [r1]
	.loc	5 902 31                        @ libraries/STM32H7xx_HAL/STM32H7xx_HAL_Driver/Src/stm32h7xx_hal_mdma.c:902:31
	str	r0, [r1, #36]
	.loc	5 903 69 is_stmt 1              @ libraries/STM32H7xx_HAL/STM32H7xx_HAL_Driver/Src/stm32h7xx_hal_mdma.c:903:69
	ldr	r0, [sp, #24]
	.loc	5 903 76 is_stmt 0              @ libraries/STM32H7xx_HAL/STM32H7xx_HAL_Driver/Src/stm32h7xx_hal_mdma.c:903:76
	ldr	r0, [r0]
	.loc	5 903 86                        @ libraries/STM32H7xx_HAL/STM32H7xx_HAL_Driver/Src/stm32h7xx_hal_mdma.c:903:86
	ldr	r0, [r0, #36]
	.loc	5 903 9                         @ libraries/STM32H7xx_HAL/STM32H7xx_HAL_Driver/Src/stm32h7xx_hal_mdma.c:903:9
	ldr	r1, [sp, #24]
	.loc	5 903 43                        @ libraries/STM32H7xx_HAL/STM32H7xx_HAL_Driver/Src/stm32h7xx_hal_mdma.c:903:43
	str	r0, [r1, #92]
	.loc	5 905 9 is_stmt 1               @ libraries/STM32H7xx_HAL/STM32H7xx_HAL_Driver/Src/stm32h7xx_hal_mdma.c:905:9
	ldr	r1, [sp, #24]
	.loc	5 905 37 is_stmt 0              @ libraries/STM32H7xx_HAL/STM32H7xx_HAL_Driver/Src/stm32h7xx_hal_mdma.c:905:37
	ldr	r0, [r1, #100]
	subs	r0, #1
	str	r0, [r1, #100]
	b	.LBB8_19
.Ltmp226:
.LBB8_19:
	.loc	5 907 5 is_stmt 1               @ libraries/STM32H7xx_HAL/STM32H7xx_HAL_Driver/Src/stm32h7xx_hal_mdma.c:907:5
	b	.LBB8_33
.Ltmp227:
.LBB8_20:
	.loc	5 911 18                        @ libraries/STM32H7xx_HAL/STM32H7xx_HAL_Driver/Src/stm32h7xx_hal_mdma.c:911:18
	ldr	r0, [sp, #24]
	.loc	5 911 25 is_stmt 0              @ libraries/STM32H7xx_HAL/STM32H7xx_HAL_Driver/Src/stm32h7xx_hal_mdma.c:911:25
	ldr	r0, [r0, #92]
	.loc	5 911 16                        @ libraries/STM32H7xx_HAL/STM32H7xx_HAL_Driver/Src/stm32h7xx_hal_mdma.c:911:16
	str	r0, [sp, #16]
	.loc	5 912 7 is_stmt 1               @ libraries/STM32H7xx_HAL/STM32H7xx_HAL_Driver/Src/stm32h7xx_hal_mdma.c:912:7
	b	.LBB8_21
.LBB8_21:                               @ =>This Inner Loop Header: Depth=1
	.loc	5 912 14 is_stmt 0              @ libraries/STM32H7xx_HAL/STM32H7xx_HAL_Driver/Src/stm32h7xx_hal_mdma.c:912:14
	ldr	r1, [sp, #12]
	.loc	5 912 24                        @ libraries/STM32H7xx_HAL/STM32H7xx_HAL_Driver/Src/stm32h7xx_hal_mdma.c:912:24
	ldr	r0, [sp, #24]
	.loc	5 912 31                        @ libraries/STM32H7xx_HAL/STM32H7xx_HAL_Driver/Src/stm32h7xx_hal_mdma.c:912:31
	ldr	r2, [r0, #100]
	movs	r0, #0
	.loc	5 912 54                        @ libraries/STM32H7xx_HAL/STM32H7xx_HAL_Driver/Src/stm32h7xx_hal_mdma.c:912:54
	cmp	r1, r2
	str	r0, [sp]                        @ 4-byte Spill
	bhs	.LBB8_23
	b	.LBB8_22
.LBB8_22:                               @   in Loop: Header=BB8_21 Depth=1
	.loc	5 912 58                        @ libraries/STM32H7xx_HAL/STM32H7xx_HAL_Driver/Src/stm32h7xx_hal_mdma.c:912:58
	ldr	r0, [sp, #8]
	.loc	5 912 70                        @ libraries/STM32H7xx_HAL/STM32H7xx_HAL_Driver/Src/stm32h7xx_hal_mdma.c:912:70
	clz	r0, r0
	lsrs	r0, r0, #5
	str	r0, [sp]                        @ 4-byte Spill
	b	.LBB8_23
.LBB8_23:                               @   in Loop: Header=BB8_21 Depth=1
	.loc	5 0 0                           @ libraries/STM32H7xx_HAL/STM32H7xx_HAL_Driver/Src/stm32h7xx_hal_mdma.c:0:0
	ldr	r0, [sp]                        @ 4-byte Reload
	.loc	5 912 7                         @ libraries/STM32H7xx_HAL/STM32H7xx_HAL_Driver/Src/stm32h7xx_hal_mdma.c:912:7
	lsls	r0, r0, #31
	cbz	r0, .LBB8_30
	b	.LBB8_24
.LBB8_24:                               @   in Loop: Header=BB8_21 Depth=1
.Ltmp228:
	.loc	5 914 16 is_stmt 1              @ libraries/STM32H7xx_HAL/STM32H7xx_HAL_Driver/Src/stm32h7xx_hal_mdma.c:914:16
	ldr	r0, [sp, #12]
	adds	r0, #1
	str	r0, [sp, #12]
.Ltmp229:
	.loc	5 915 12                        @ libraries/STM32H7xx_HAL/STM32H7xx_HAL_Driver/Src/stm32h7xx_hal_mdma.c:915:12
	ldr	r0, [sp, #16]
	.loc	5 915 22 is_stmt 0              @ libraries/STM32H7xx_HAL/STM32H7xx_HAL_Driver/Src/stm32h7xx_hal_mdma.c:915:22
	ldr	r0, [r0, #20]
	.loc	5 915 41                        @ libraries/STM32H7xx_HAL/STM32H7xx_HAL_Driver/Src/stm32h7xx_hal_mdma.c:915:41
	ldr	r1, [sp, #20]
.Ltmp230:
	.loc	5 915 12                        @ libraries/STM32H7xx_HAL/STM32H7xx_HAL_Driver/Src/stm32h7xx_hal_mdma.c:915:12
	cmp	r0, r1
	bne	.LBB8_28
	b	.LBB8_25
.LBB8_25:                               @   in Loop: Header=BB8_21 Depth=1
.Ltmp231:
	.loc	5 918 14 is_stmt 1              @ libraries/STM32H7xx_HAL/STM32H7xx_HAL_Driver/Src/stm32h7xx_hal_mdma.c:918:14
	ldr	r0, [sp, #20]
	.loc	5 918 23 is_stmt 0              @ libraries/STM32H7xx_HAL/STM32H7xx_HAL_Driver/Src/stm32h7xx_hal_mdma.c:918:23
	ldr	r1, [sp, #24]
	.loc	5 918 30                        @ libraries/STM32H7xx_HAL/STM32H7xx_HAL_Driver/Src/stm32h7xx_hal_mdma.c:918:30
	ldr	r1, [r1, #96]
.Ltmp232:
	.loc	5 918 14                        @ libraries/STM32H7xx_HAL/STM32H7xx_HAL_Driver/Src/stm32h7xx_hal_mdma.c:918:14
	cmp	r0, r1
	bne	.LBB8_27
	b	.LBB8_26
.LBB8_26:                               @   in Loop: Header=BB8_21 Depth=1
.Ltmp233:
	.loc	5 921 48 is_stmt 1              @ libraries/STM32H7xx_HAL/STM32H7xx_HAL_Driver/Src/stm32h7xx_hal_mdma.c:921:48
	ldr	r0, [sp, #16]
	.loc	5 921 13 is_stmt 0              @ libraries/STM32H7xx_HAL/STM32H7xx_HAL_Driver/Src/stm32h7xx_hal_mdma.c:921:13
	ldr	r1, [sp, #24]
	.loc	5 921 46                        @ libraries/STM32H7xx_HAL/STM32H7xx_HAL_Driver/Src/stm32h7xx_hal_mdma.c:921:46
	str	r0, [r1, #96]
	.loc	5 922 11 is_stmt 1              @ libraries/STM32H7xx_HAL/STM32H7xx_HAL_Driver/Src/stm32h7xx_hal_mdma.c:922:11
	b	.LBB8_27
.Ltmp234:
.LBB8_27:                               @   in Loop: Header=BB8_21 Depth=1
	.loc	5 924 28                        @ libraries/STM32H7xx_HAL/STM32H7xx_HAL_Driver/Src/stm32h7xx_hal_mdma.c:924:28
	ldr	r0, [sp, #20]
	.loc	5 924 35 is_stmt 0              @ libraries/STM32H7xx_HAL/STM32H7xx_HAL_Driver/Src/stm32h7xx_hal_mdma.c:924:35
	ldr	r0, [r0, #20]
	.loc	5 924 11                        @ libraries/STM32H7xx_HAL/STM32H7xx_HAL_Driver/Src/stm32h7xx_hal_mdma.c:924:11
	ldr	r1, [sp, #16]
	.loc	5 924 26                        @ libraries/STM32H7xx_HAL/STM32H7xx_HAL_Driver/Src/stm32h7xx_hal_mdma.c:924:26
	str	r0, [r1, #20]
	movs	r0, #1
	.loc	5 925 23 is_stmt 1              @ libraries/STM32H7xx_HAL/STM32H7xx_HAL_Driver/Src/stm32h7xx_hal_mdma.c:925:23
	str	r0, [sp, #8]
	.loc	5 927 11                        @ libraries/STM32H7xx_HAL/STM32H7xx_HAL_Driver/Src/stm32h7xx_hal_mdma.c:927:11
	ldr	r1, [sp, #24]
	.loc	5 927 39 is_stmt 0              @ libraries/STM32H7xx_HAL/STM32H7xx_HAL_Driver/Src/stm32h7xx_hal_mdma.c:927:39
	ldr	r0, [r1, #100]
	subs	r0, #1
	str	r0, [r1, #100]
	.loc	5 928 9 is_stmt 1               @ libraries/STM32H7xx_HAL/STM32H7xx_HAL_Driver/Src/stm32h7xx_hal_mdma.c:928:9
	b	.LBB8_29
.Ltmp235:
.LBB8_28:                               @   in Loop: Header=BB8_21 Depth=1
	.loc	5 931 46                        @ libraries/STM32H7xx_HAL/STM32H7xx_HAL_Driver/Src/stm32h7xx_hal_mdma.c:931:46
	ldr	r0, [sp, #16]
	.loc	5 931 56 is_stmt 0              @ libraries/STM32H7xx_HAL/STM32H7xx_HAL_Driver/Src/stm32h7xx_hal_mdma.c:931:56
	ldr	r0, [r0, #20]
	.loc	5 931 20                        @ libraries/STM32H7xx_HAL/STM32H7xx_HAL_Driver/Src/stm32h7xx_hal_mdma.c:931:20
	str	r0, [sp, #16]
	b	.LBB8_29
.Ltmp236:
.LBB8_29:                               @   in Loop: Header=BB8_21 Depth=1
	.loc	5 912 7 is_stmt 1               @ libraries/STM32H7xx_HAL/STM32H7xx_HAL_Driver/Src/stm32h7xx_hal_mdma.c:912:7
	b	.LBB8_21
.LBB8_30:
.Ltmp237:
	.loc	5 935 10                        @ libraries/STM32H7xx_HAL/STM32H7xx_HAL_Driver/Src/stm32h7xx_hal_mdma.c:935:10
	ldr	r0, [sp, #8]
.Ltmp238:
	.loc	5 935 10 is_stmt 0              @ libraries/STM32H7xx_HAL/STM32H7xx_HAL_Driver/Src/stm32h7xx_hal_mdma.c:935:10
	cbnz	r0, .LBB8_32
	b	.LBB8_31
.LBB8_31:
	.loc	5 0 10                          @ libraries/STM32H7xx_HAL/STM32H7xx_HAL_Driver/Src/stm32h7xx_hal_mdma.c:0:10
	movs	r0, #1
.Ltmp239:
	.loc	5 938 20 is_stmt 1              @ libraries/STM32H7xx_HAL/STM32H7xx_HAL_Driver/Src/stm32h7xx_hal_mdma.c:938:20
	strb.w	r0, [sp, #7]
	.loc	5 939 7                         @ libraries/STM32H7xx_HAL/STM32H7xx_HAL_Driver/Src/stm32h7xx_hal_mdma.c:939:7
	b	.LBB8_32
.Ltmp240:
.LBB8_32:
	.loc	5 0 7 is_stmt 0                 @ libraries/STM32H7xx_HAL/STM32H7xx_HAL_Driver/Src/stm32h7xx_hal_mdma.c:0:7
	b	.LBB8_33
.LBB8_33:
	b	.LBB8_34
.LBB8_34:
	.loc	5 943 5 is_stmt 1               @ libraries/STM32H7xx_HAL/STM32H7xx_HAL_Driver/Src/stm32h7xx_hal_mdma.c:943:5
	b	.LBB8_35
.LBB8_35:
.Ltmp241:
	.loc	5 943 5 is_stmt 0               @ libraries/STM32H7xx_HAL/STM32H7xx_HAL_Driver/Src/stm32h7xx_hal_mdma.c:943:5
	ldr	r1, [sp, #24]
	movs	r0, #0
	strb.w	r0, [r1, #60]
	b	.LBB8_36
.Ltmp242:
.LBB8_36:
	.loc	5 945 5 is_stmt 1               @ libraries/STM32H7xx_HAL/STM32H7xx_HAL_Driver/Src/stm32h7xx_hal_mdma.c:945:5
	ldr	r1, [sp, #24]
	movs	r0, #1
	.loc	5 945 18 is_stmt 0              @ libraries/STM32H7xx_HAL/STM32H7xx_HAL_Driver/Src/stm32h7xx_hal_mdma.c:945:18
	strb.w	r0, [r1, #61]
	.loc	5 947 12 is_stmt 1              @ libraries/STM32H7xx_HAL/STM32H7xx_HAL_Driver/Src/stm32h7xx_hal_mdma.c:947:12
	ldrb.w	r0, [sp, #7]
	.loc	5 947 5 is_stmt 0               @ libraries/STM32H7xx_HAL/STM32H7xx_HAL_Driver/Src/stm32h7xx_hal_mdma.c:947:5
	strb.w	r0, [sp, #31]
	b	.LBB8_40
.Ltmp243:
.LBB8_37:
	.loc	5 952 5 is_stmt 1               @ libraries/STM32H7xx_HAL/STM32H7xx_HAL_Driver/Src/stm32h7xx_hal_mdma.c:952:5
	b	.LBB8_38
.LBB8_38:
.Ltmp244:
	.loc	5 952 5 is_stmt 0               @ libraries/STM32H7xx_HAL/STM32H7xx_HAL_Driver/Src/stm32h7xx_hal_mdma.c:952:5
	ldr	r1, [sp, #24]
	movs	r0, #0
	strb.w	r0, [r1, #60]
	b	.LBB8_39
.Ltmp245:
.LBB8_39:
	.loc	5 0 5                           @ libraries/STM32H7xx_HAL/STM32H7xx_HAL_Driver/Src/stm32h7xx_hal_mdma.c:0:5
	movs	r0, #2
	.loc	5 955 5 is_stmt 1               @ libraries/STM32H7xx_HAL/STM32H7xx_HAL_Driver/Src/stm32h7xx_hal_mdma.c:955:5
	strb.w	r0, [sp, #31]
	b	.LBB8_40
.Ltmp246:
.LBB8_40:
	.loc	5 957 1                         @ libraries/STM32H7xx_HAL/STM32H7xx_HAL_Driver/Src/stm32h7xx_hal_mdma.c:957:1
	ldrb.w	r0, [sp, #31]
	add	sp, #32
	bx	lr
.Ltmp247:
.Lfunc_end8:
	.size	HAL_MDMA_LinkedList_RemoveNode, .Lfunc_end8-HAL_MDMA_LinkedList_RemoveNode
	.cfi_endproc
	.cantunwind
	.fnend
                                        @ -- End function
	.section	.text.HAL_MDMA_LinkedList_EnableCircularMode,"ax",%progbits
	.hidden	HAL_MDMA_LinkedList_EnableCircularMode @ -- Begin function HAL_MDMA_LinkedList_EnableCircularMode
	.globl	HAL_MDMA_LinkedList_EnableCircularMode
	.p2align	3
	.type	HAL_MDMA_LinkedList_EnableCircularMode,%function
	.code	16                              @ @HAL_MDMA_LinkedList_EnableCircularMode
	.thumb_func
HAL_MDMA_LinkedList_EnableCircularMode:
.Lfunc_begin9:
	.loc	5 966 0                         @ libraries/STM32H7xx_HAL/STM32H7xx_HAL_Driver/Src/stm32h7xx_hal_mdma.c:966:0
	.fnstart
	.cfi_startproc
@ %bb.0:
	.pad	#12
	sub	sp, #12
	.cfi_def_cfa_offset 12
	str	r0, [sp, #4]
	movs	r0, #0
.Ltmp248:
	.loc	5 967 21 prologue_end           @ libraries/STM32H7xx_HAL/STM32H7xx_HAL_Driver/Src/stm32h7xx_hal_mdma.c:967:21
	strb.w	r0, [sp, #3]
.Ltmp249:
	.loc	5 970 6                         @ libraries/STM32H7xx_HAL/STM32H7xx_HAL_Driver/Src/stm32h7xx_hal_mdma.c:970:6
	ldr	r0, [sp, #4]
.Ltmp250:
	.loc	5 970 6 is_stmt 0               @ libraries/STM32H7xx_HAL/STM32H7xx_HAL_Driver/Src/stm32h7xx_hal_mdma.c:970:6
	cbnz	r0, .LBB9_2
	b	.LBB9_1
.LBB9_1:
	.loc	5 0 6                           @ libraries/STM32H7xx_HAL/STM32H7xx_HAL_Driver/Src/stm32h7xx_hal_mdma.c:0:6
	movs	r0, #1
.Ltmp251:
	.loc	5 972 5 is_stmt 1               @ libraries/STM32H7xx_HAL/STM32H7xx_HAL_Driver/Src/stm32h7xx_hal_mdma.c:972:5
	strb.w	r0, [sp, #11]
	b	.LBB9_17
.Ltmp252:
.LBB9_2:
	.loc	5 976 3                         @ libraries/STM32H7xx_HAL/STM32H7xx_HAL_Driver/Src/stm32h7xx_hal_mdma.c:976:3
	b	.LBB9_3
.LBB9_3:
.Ltmp253:
	.loc	5 976 3 is_stmt 0               @ libraries/STM32H7xx_HAL/STM32H7xx_HAL_Driver/Src/stm32h7xx_hal_mdma.c:976:3
	ldr	r0, [sp, #4]
	ldrb.w	r0, [r0, #60]
.Ltmp254:
	.loc	5 976 3                         @ libraries/STM32H7xx_HAL/STM32H7xx_HAL_Driver/Src/stm32h7xx_hal_mdma.c:976:3
	cmp	r0, #1
	bne	.LBB9_5
	b	.LBB9_4
.LBB9_4:
	.loc	5 0 3                           @ libraries/STM32H7xx_HAL/STM32H7xx_HAL_Driver/Src/stm32h7xx_hal_mdma.c:0:3
	movs	r0, #2
.Ltmp255:
	.loc	5 976 3                         @ libraries/STM32H7xx_HAL/STM32H7xx_HAL_Driver/Src/stm32h7xx_hal_mdma.c:976:3
	strb.w	r0, [sp, #11]
	b	.LBB9_17
.Ltmp256:
.LBB9_5:
	.loc	5 976 3                         @ libraries/STM32H7xx_HAL/STM32H7xx_HAL_Driver/Src/stm32h7xx_hal_mdma.c:976:3
	ldr	r1, [sp, #4]
	movs	r0, #1
	strb.w	r0, [r1, #60]
	b	.LBB9_6
.Ltmp257:
.LBB9_6:
	.loc	5 976 3                         @ libraries/STM32H7xx_HAL/STM32H7xx_HAL_Driver/Src/stm32h7xx_hal_mdma.c:976:3
	b	.LBB9_7
.Ltmp258:
.LBB9_7:
	.loc	5 978 30 is_stmt 1              @ libraries/STM32H7xx_HAL/STM32H7xx_HAL_Driver/Src/stm32h7xx_hal_mdma.c:978:30
	ldr	r0, [sp, #4]
	.loc	5 978 37 is_stmt 0              @ libraries/STM32H7xx_HAL/STM32H7xx_HAL_Driver/Src/stm32h7xx_hal_mdma.c:978:37
	ldrb.w	r0, [r0, #61]
.Ltmp259:
	.loc	5 978 6                         @ libraries/STM32H7xx_HAL/STM32H7xx_HAL_Driver/Src/stm32h7xx_hal_mdma.c:978:6
	cmp	r0, #1
	bne	.LBB9_14
	b	.LBB9_8
.LBB9_8:
.Ltmp260:
	.loc	5 981 5 is_stmt 1               @ libraries/STM32H7xx_HAL/STM32H7xx_HAL_Driver/Src/stm32h7xx_hal_mdma.c:981:5
	ldr	r1, [sp, #4]
	movs	r0, #2
	.loc	5 981 18 is_stmt 0              @ libraries/STM32H7xx_HAL/STM32H7xx_HAL_Driver/Src/stm32h7xx_hal_mdma.c:981:18
	strb.w	r0, [r1, #61]
.Ltmp261:
	.loc	5 984 19 is_stmt 1              @ libraries/STM32H7xx_HAL/STM32H7xx_HAL_Driver/Src/stm32h7xx_hal_mdma.c:984:19
	ldr	r0, [sp, #4]
	.loc	5 984 26 is_stmt 0              @ libraries/STM32H7xx_HAL/STM32H7xx_HAL_Driver/Src/stm32h7xx_hal_mdma.c:984:26
	ldr	r0, [r0, #92]
	.loc	5 984 60                        @ libraries/STM32H7xx_HAL/STM32H7xx_HAL_Driver/Src/stm32h7xx_hal_mdma.c:984:60
	cbz	r0, .LBB9_11
	b	.LBB9_9
.LBB9_9:
	.loc	5 984 74                        @ libraries/STM32H7xx_HAL/STM32H7xx_HAL_Driver/Src/stm32h7xx_hal_mdma.c:984:74
	ldr	r0, [sp, #4]
	.loc	5 984 81                        @ libraries/STM32H7xx_HAL/STM32H7xx_HAL_Driver/Src/stm32h7xx_hal_mdma.c:984:81
	ldr	r0, [r0, #96]
	.loc	5 984 114                       @ libraries/STM32H7xx_HAL/STM32H7xx_HAL_Driver/Src/stm32h7xx_hal_mdma.c:984:114
	cbz	r0, .LBB9_11
	b	.LBB9_10
.LBB9_10:
	.loc	5 984 118                       @ libraries/STM32H7xx_HAL/STM32H7xx_HAL_Driver/Src/stm32h7xx_hal_mdma.c:984:118
	ldr	r0, [sp, #4]
	.loc	5 984 125                       @ libraries/STM32H7xx_HAL/STM32H7xx_HAL_Driver/Src/stm32h7xx_hal_mdma.c:984:125
	ldr	r0, [r0, #100]
.Ltmp262:
	.loc	5 984 8                         @ libraries/STM32H7xx_HAL/STM32H7xx_HAL_Driver/Src/stm32h7xx_hal_mdma.c:984:8
	cbnz	r0, .LBB9_12
	b	.LBB9_11
.LBB9_11:
	.loc	5 0 8                           @ libraries/STM32H7xx_HAL/STM32H7xx_HAL_Driver/Src/stm32h7xx_hal_mdma.c:0:8
	movs	r0, #1
.Ltmp263:
	.loc	5 986 18 is_stmt 1              @ libraries/STM32H7xx_HAL/STM32H7xx_HAL_Driver/Src/stm32h7xx_hal_mdma.c:986:18
	strb.w	r0, [sp, #3]
	.loc	5 987 5                         @ libraries/STM32H7xx_HAL/STM32H7xx_HAL_Driver/Src/stm32h7xx_hal_mdma.c:987:5
	b	.LBB9_13
.Ltmp264:
.LBB9_12:
	.loc	5 991 58                        @ libraries/STM32H7xx_HAL/STM32H7xx_HAL_Driver/Src/stm32h7xx_hal_mdma.c:991:58
	ldr	r1, [sp, #4]
	.loc	5 991 65 is_stmt 0              @ libraries/STM32H7xx_HAL/STM32H7xx_HAL_Driver/Src/stm32h7xx_hal_mdma.c:991:65
	ldr	r0, [r1, #92]
	.loc	5 991 14                        @ libraries/STM32H7xx_HAL/STM32H7xx_HAL_Driver/Src/stm32h7xx_hal_mdma.c:991:14
	ldr	r1, [r1, #96]
	.loc	5 991 46                        @ libraries/STM32H7xx_HAL/STM32H7xx_HAL_Driver/Src/stm32h7xx_hal_mdma.c:991:46
	str	r0, [r1, #20]
	b	.LBB9_13
.Ltmp265:
.LBB9_13:
	.loc	5 994 3 is_stmt 1               @ libraries/STM32H7xx_HAL/STM32H7xx_HAL_Driver/Src/stm32h7xx_hal_mdma.c:994:3
	b	.LBB9_14
.Ltmp266:
.LBB9_14:
	.loc	5 996 3                         @ libraries/STM32H7xx_HAL/STM32H7xx_HAL_Driver/Src/stm32h7xx_hal_mdma.c:996:3
	b	.LBB9_15
.LBB9_15:
.Ltmp267:
	.loc	5 996 3 is_stmt 0               @ libraries/STM32H7xx_HAL/STM32H7xx_HAL_Driver/Src/stm32h7xx_hal_mdma.c:996:3
	ldr	r1, [sp, #4]
	movs	r0, #0
	strb.w	r0, [r1, #60]
	b	.LBB9_16
.Ltmp268:
.LBB9_16:
	.loc	5 998 3 is_stmt 1               @ libraries/STM32H7xx_HAL/STM32H7xx_HAL_Driver/Src/stm32h7xx_hal_mdma.c:998:3
	ldr	r1, [sp, #4]
	movs	r0, #1
	.loc	5 998 16 is_stmt 0              @ libraries/STM32H7xx_HAL/STM32H7xx_HAL_Driver/Src/stm32h7xx_hal_mdma.c:998:16
	strb.w	r0, [r1, #61]
	.loc	5 1000 10 is_stmt 1             @ libraries/STM32H7xx_HAL/STM32H7xx_HAL_Driver/Src/stm32h7xx_hal_mdma.c:1000:10
	ldrb.w	r0, [sp, #3]
	.loc	5 1000 3 is_stmt 0              @ libraries/STM32H7xx_HAL/STM32H7xx_HAL_Driver/Src/stm32h7xx_hal_mdma.c:1000:3
	strb.w	r0, [sp, #11]
	b	.LBB9_17
.LBB9_17:
	.loc	5 1001 1 is_stmt 1              @ libraries/STM32H7xx_HAL/STM32H7xx_HAL_Driver/Src/stm32h7xx_hal_mdma.c:1001:1
	ldrb.w	r0, [sp, #11]
	add	sp, #12
	bx	lr
.Ltmp269:
.Lfunc_end9:
	.size	HAL_MDMA_LinkedList_EnableCircularMode, .Lfunc_end9-HAL_MDMA_LinkedList_EnableCircularMode
	.cfi_endproc
	.cantunwind
	.fnend
                                        @ -- End function
	.section	.text.HAL_MDMA_LinkedList_DisableCircularMode,"ax",%progbits
	.hidden	HAL_MDMA_LinkedList_DisableCircularMode @ -- Begin function HAL_MDMA_LinkedList_DisableCircularMode
	.globl	HAL_MDMA_LinkedList_DisableCircularMode
	.p2align	3
	.type	HAL_MDMA_LinkedList_DisableCircularMode,%function
	.code	16                              @ @HAL_MDMA_LinkedList_DisableCircularMode
	.thumb_func
HAL_MDMA_LinkedList_DisableCircularMode:
.Lfunc_begin10:
	.loc	5 1010 0                        @ libraries/STM32H7xx_HAL/STM32H7xx_HAL_Driver/Src/stm32h7xx_hal_mdma.c:1010:0
	.fnstart
	.cfi_startproc
@ %bb.0:
	.pad	#12
	sub	sp, #12
	.cfi_def_cfa_offset 12
	str	r0, [sp, #4]
	movs	r0, #0
.Ltmp270:
	.loc	5 1011 21 prologue_end          @ libraries/STM32H7xx_HAL/STM32H7xx_HAL_Driver/Src/stm32h7xx_hal_mdma.c:1011:21
	strb.w	r0, [sp, #3]
.Ltmp271:
	.loc	5 1014 6                        @ libraries/STM32H7xx_HAL/STM32H7xx_HAL_Driver/Src/stm32h7xx_hal_mdma.c:1014:6
	ldr	r0, [sp, #4]
.Ltmp272:
	.loc	5 1014 6 is_stmt 0              @ libraries/STM32H7xx_HAL/STM32H7xx_HAL_Driver/Src/stm32h7xx_hal_mdma.c:1014:6
	cbnz	r0, .LBB10_2
	b	.LBB10_1
.LBB10_1:
	.loc	5 0 6                           @ libraries/STM32H7xx_HAL/STM32H7xx_HAL_Driver/Src/stm32h7xx_hal_mdma.c:0:6
	movs	r0, #1
.Ltmp273:
	.loc	5 1016 5 is_stmt 1              @ libraries/STM32H7xx_HAL/STM32H7xx_HAL_Driver/Src/stm32h7xx_hal_mdma.c:1016:5
	strb.w	r0, [sp, #11]
	b	.LBB10_17
.Ltmp274:
.LBB10_2:
	.loc	5 1020 3                        @ libraries/STM32H7xx_HAL/STM32H7xx_HAL_Driver/Src/stm32h7xx_hal_mdma.c:1020:3
	b	.LBB10_3
.LBB10_3:
.Ltmp275:
	.loc	5 1020 3 is_stmt 0              @ libraries/STM32H7xx_HAL/STM32H7xx_HAL_Driver/Src/stm32h7xx_hal_mdma.c:1020:3
	ldr	r0, [sp, #4]
	ldrb.w	r0, [r0, #60]
.Ltmp276:
	.loc	5 1020 3                        @ libraries/STM32H7xx_HAL/STM32H7xx_HAL_Driver/Src/stm32h7xx_hal_mdma.c:1020:3
	cmp	r0, #1
	bne	.LBB10_5
	b	.LBB10_4
.LBB10_4:
	.loc	5 0 3                           @ libraries/STM32H7xx_HAL/STM32H7xx_HAL_Driver/Src/stm32h7xx_hal_mdma.c:0:3
	movs	r0, #2
.Ltmp277:
	.loc	5 1020 3                        @ libraries/STM32H7xx_HAL/STM32H7xx_HAL_Driver/Src/stm32h7xx_hal_mdma.c:1020:3
	strb.w	r0, [sp, #11]
	b	.LBB10_17
.Ltmp278:
.LBB10_5:
	.loc	5 1020 3                        @ libraries/STM32H7xx_HAL/STM32H7xx_HAL_Driver/Src/stm32h7xx_hal_mdma.c:1020:3
	ldr	r1, [sp, #4]
	movs	r0, #1
	strb.w	r0, [r1, #60]
	b	.LBB10_6
.Ltmp279:
.LBB10_6:
	.loc	5 1020 3                        @ libraries/STM32H7xx_HAL/STM32H7xx_HAL_Driver/Src/stm32h7xx_hal_mdma.c:1020:3
	b	.LBB10_7
.Ltmp280:
.LBB10_7:
	.loc	5 1022 30 is_stmt 1             @ libraries/STM32H7xx_HAL/STM32H7xx_HAL_Driver/Src/stm32h7xx_hal_mdma.c:1022:30
	ldr	r0, [sp, #4]
	.loc	5 1022 37 is_stmt 0             @ libraries/STM32H7xx_HAL/STM32H7xx_HAL_Driver/Src/stm32h7xx_hal_mdma.c:1022:37
	ldrb.w	r0, [r0, #61]
.Ltmp281:
	.loc	5 1022 6                        @ libraries/STM32H7xx_HAL/STM32H7xx_HAL_Driver/Src/stm32h7xx_hal_mdma.c:1022:6
	cmp	r0, #1
	bne	.LBB10_14
	b	.LBB10_8
.LBB10_8:
.Ltmp282:
	.loc	5 1025 5 is_stmt 1              @ libraries/STM32H7xx_HAL/STM32H7xx_HAL_Driver/Src/stm32h7xx_hal_mdma.c:1025:5
	ldr	r1, [sp, #4]
	movs	r0, #2
	.loc	5 1025 18 is_stmt 0             @ libraries/STM32H7xx_HAL/STM32H7xx_HAL_Driver/Src/stm32h7xx_hal_mdma.c:1025:18
	strb.w	r0, [r1, #61]
.Ltmp283:
	.loc	5 1028 19 is_stmt 1             @ libraries/STM32H7xx_HAL/STM32H7xx_HAL_Driver/Src/stm32h7xx_hal_mdma.c:1028:19
	ldr	r0, [sp, #4]
	.loc	5 1028 26 is_stmt 0             @ libraries/STM32H7xx_HAL/STM32H7xx_HAL_Driver/Src/stm32h7xx_hal_mdma.c:1028:26
	ldr	r0, [r0, #92]
	.loc	5 1028 60                       @ libraries/STM32H7xx_HAL/STM32H7xx_HAL_Driver/Src/stm32h7xx_hal_mdma.c:1028:60
	cbz	r0, .LBB10_11
	b	.LBB10_9
.LBB10_9:
	.loc	5 1028 74                       @ libraries/STM32H7xx_HAL/STM32H7xx_HAL_Driver/Src/stm32h7xx_hal_mdma.c:1028:74
	ldr	r0, [sp, #4]
	.loc	5 1028 81                       @ libraries/STM32H7xx_HAL/STM32H7xx_HAL_Driver/Src/stm32h7xx_hal_mdma.c:1028:81
	ldr	r0, [r0, #96]
	.loc	5 1028 114                      @ libraries/STM32H7xx_HAL/STM32H7xx_HAL_Driver/Src/stm32h7xx_hal_mdma.c:1028:114
	cbz	r0, .LBB10_11
	b	.LBB10_10
.LBB10_10:
	.loc	5 1028 118                      @ libraries/STM32H7xx_HAL/STM32H7xx_HAL_Driver/Src/stm32h7xx_hal_mdma.c:1028:118
	ldr	r0, [sp, #4]
	.loc	5 1028 125                      @ libraries/STM32H7xx_HAL/STM32H7xx_HAL_Driver/Src/stm32h7xx_hal_mdma.c:1028:125
	ldr	r0, [r0, #100]
.Ltmp284:
	.loc	5 1028 8                        @ libraries/STM32H7xx_HAL/STM32H7xx_HAL_Driver/Src/stm32h7xx_hal_mdma.c:1028:8
	cbnz	r0, .LBB10_12
	b	.LBB10_11
.LBB10_11:
	.loc	5 0 8                           @ libraries/STM32H7xx_HAL/STM32H7xx_HAL_Driver/Src/stm32h7xx_hal_mdma.c:0:8
	movs	r0, #1
.Ltmp285:
	.loc	5 1030 18 is_stmt 1             @ libraries/STM32H7xx_HAL/STM32H7xx_HAL_Driver/Src/stm32h7xx_hal_mdma.c:1030:18
	strb.w	r0, [sp, #3]
	.loc	5 1031 5                        @ libraries/STM32H7xx_HAL/STM32H7xx_HAL_Driver/Src/stm32h7xx_hal_mdma.c:1031:5
	b	.LBB10_13
.Ltmp286:
.LBB10_12:
	.loc	5 1035 7                        @ libraries/STM32H7xx_HAL/STM32H7xx_HAL_Driver/Src/stm32h7xx_hal_mdma.c:1035:7
	ldr	r0, [sp, #4]
	.loc	5 1035 14 is_stmt 0             @ libraries/STM32H7xx_HAL/STM32H7xx_HAL_Driver/Src/stm32h7xx_hal_mdma.c:1035:14
	ldr	r1, [r0, #96]
	movs	r0, #0
	.loc	5 1035 46                       @ libraries/STM32H7xx_HAL/STM32H7xx_HAL_Driver/Src/stm32h7xx_hal_mdma.c:1035:46
	str	r0, [r1, #20]
	b	.LBB10_13
.Ltmp287:
.LBB10_13:
	.loc	5 1038 3 is_stmt 1              @ libraries/STM32H7xx_HAL/STM32H7xx_HAL_Driver/Src/stm32h7xx_hal_mdma.c:1038:3
	b	.LBB10_14
.Ltmp288:
.LBB10_14:
	.loc	5 1040 3                        @ libraries/STM32H7xx_HAL/STM32H7xx_HAL_Driver/Src/stm32h7xx_hal_mdma.c:1040:3
	b	.LBB10_15
.LBB10_15:
.Ltmp289:
	.loc	5 1040 3 is_stmt 0              @ libraries/STM32H7xx_HAL/STM32H7xx_HAL_Driver/Src/stm32h7xx_hal_mdma.c:1040:3
	ldr	r1, [sp, #4]
	movs	r0, #0
	strb.w	r0, [r1, #60]
	b	.LBB10_16
.Ltmp290:
.LBB10_16:
	.loc	5 1042 3 is_stmt 1              @ libraries/STM32H7xx_HAL/STM32H7xx_HAL_Driver/Src/stm32h7xx_hal_mdma.c:1042:3
	ldr	r1, [sp, #4]
	movs	r0, #1
	.loc	5 1042 16 is_stmt 0             @ libraries/STM32H7xx_HAL/STM32H7xx_HAL_Driver/Src/stm32h7xx_hal_mdma.c:1042:16
	strb.w	r0, [r1, #61]
	.loc	5 1044 10 is_stmt 1             @ libraries/STM32H7xx_HAL/STM32H7xx_HAL_Driver/Src/stm32h7xx_hal_mdma.c:1044:10
	ldrb.w	r0, [sp, #3]
	.loc	5 1044 3 is_stmt 0              @ libraries/STM32H7xx_HAL/STM32H7xx_HAL_Driver/Src/stm32h7xx_hal_mdma.c:1044:3
	strb.w	r0, [sp, #11]
	b	.LBB10_17
.LBB10_17:
	.loc	5 1045 1 is_stmt 1              @ libraries/STM32H7xx_HAL/STM32H7xx_HAL_Driver/Src/stm32h7xx_hal_mdma.c:1045:1
	ldrb.w	r0, [sp, #11]
	add	sp, #12
	bx	lr
.Ltmp291:
.Lfunc_end10:
	.size	HAL_MDMA_LinkedList_DisableCircularMode, .Lfunc_end10-HAL_MDMA_LinkedList_DisableCircularMode
	.cfi_endproc
	.cantunwind
	.fnend
                                        @ -- End function
	.section	.text.HAL_MDMA_Start,"ax",%progbits
	.hidden	HAL_MDMA_Start                  @ -- Begin function HAL_MDMA_Start
	.globl	HAL_MDMA_Start
	.p2align	3
	.type	HAL_MDMA_Start,%function
	.code	16                              @ @HAL_MDMA_Start
	.thumb_func
HAL_MDMA_Start:
.Lfunc_begin11:
	.loc	5 1081 0                        @ libraries/STM32H7xx_HAL/STM32H7xx_HAL_Driver/Src/stm32h7xx_hal_mdma.c:1081:0
	.fnstart
	.cfi_startproc
@ %bb.0:
	.save	{r7, lr}
	push	{r7, lr}
	.cfi_def_cfa_offset 8
	.cfi_offset lr, -4
	.cfi_offset r7, -8
	.pad	#24
	sub	sp, #24
	.cfi_def_cfa_offset 32
	ldr.w	r12, [sp, #32]
	str	r0, [sp, #16]
	str	r1, [sp, #12]
	str	r2, [sp, #8]
	str	r3, [sp, #4]
.Ltmp292:
	.loc	5 1087 6 prologue_end           @ libraries/STM32H7xx_HAL/STM32H7xx_HAL_Driver/Src/stm32h7xx_hal_mdma.c:1087:6
	ldr	r0, [sp, #16]
.Ltmp293:
	.loc	5 1087 6 is_stmt 0              @ libraries/STM32H7xx_HAL/STM32H7xx_HAL_Driver/Src/stm32h7xx_hal_mdma.c:1087:6
	cbnz	r0, .LBB11_2
	b	.LBB11_1
.LBB11_1:
	.loc	5 0 6                           @ libraries/STM32H7xx_HAL/STM32H7xx_HAL_Driver/Src/stm32h7xx_hal_mdma.c:0:6
	movs	r0, #1
.Ltmp294:
	.loc	5 1089 5 is_stmt 1              @ libraries/STM32H7xx_HAL/STM32H7xx_HAL_Driver/Src/stm32h7xx_hal_mdma.c:1089:5
	strb.w	r0, [sp, #23]
	b	.LBB11_15
.Ltmp295:
.LBB11_2:
	.loc	5 1093 3                        @ libraries/STM32H7xx_HAL/STM32H7xx_HAL_Driver/Src/stm32h7xx_hal_mdma.c:1093:3
	b	.LBB11_3
.LBB11_3:
.Ltmp296:
	.loc	5 1093 3 is_stmt 0              @ libraries/STM32H7xx_HAL/STM32H7xx_HAL_Driver/Src/stm32h7xx_hal_mdma.c:1093:3
	ldr	r0, [sp, #16]
	ldrb.w	r0, [r0, #60]
.Ltmp297:
	.loc	5 1093 3                        @ libraries/STM32H7xx_HAL/STM32H7xx_HAL_Driver/Src/stm32h7xx_hal_mdma.c:1093:3
	cmp	r0, #1
	bne	.LBB11_5
	b	.LBB11_4
.LBB11_4:
	.loc	5 0 3                           @ libraries/STM32H7xx_HAL/STM32H7xx_HAL_Driver/Src/stm32h7xx_hal_mdma.c:0:3
	movs	r0, #2
.Ltmp298:
	.loc	5 1093 3                        @ libraries/STM32H7xx_HAL/STM32H7xx_HAL_Driver/Src/stm32h7xx_hal_mdma.c:1093:3
	strb.w	r0, [sp, #23]
	b	.LBB11_15
.Ltmp299:
.LBB11_5:
	.loc	5 1093 3                        @ libraries/STM32H7xx_HAL/STM32H7xx_HAL_Driver/Src/stm32h7xx_hal_mdma.c:1093:3
	ldr	r1, [sp, #16]
	movs	r0, #1
	strb.w	r0, [r1, #60]
	b	.LBB11_6
.Ltmp300:
.LBB11_6:
	.loc	5 1093 3                        @ libraries/STM32H7xx_HAL/STM32H7xx_HAL_Driver/Src/stm32h7xx_hal_mdma.c:1093:3
	b	.LBB11_7
.Ltmp301:
.LBB11_7:
	.loc	5 1095 30 is_stmt 1             @ libraries/STM32H7xx_HAL/STM32H7xx_HAL_Driver/Src/stm32h7xx_hal_mdma.c:1095:30
	ldr	r0, [sp, #16]
	.loc	5 1095 37 is_stmt 0             @ libraries/STM32H7xx_HAL/STM32H7xx_HAL_Driver/Src/stm32h7xx_hal_mdma.c:1095:37
	ldrb.w	r0, [r0, #61]
.Ltmp302:
	.loc	5 1095 6                        @ libraries/STM32H7xx_HAL/STM32H7xx_HAL_Driver/Src/stm32h7xx_hal_mdma.c:1095:6
	cmp	r0, #1
	bne	.LBB11_11
	b	.LBB11_8
.LBB11_8:
.Ltmp303:
	.loc	5 1098 5 is_stmt 1              @ libraries/STM32H7xx_HAL/STM32H7xx_HAL_Driver/Src/stm32h7xx_hal_mdma.c:1098:5
	ldr	r1, [sp, #16]
	movs	r0, #2
	.loc	5 1098 18 is_stmt 0             @ libraries/STM32H7xx_HAL/STM32H7xx_HAL_Driver/Src/stm32h7xx_hal_mdma.c:1098:18
	strb.w	r0, [r1, #61]
	.loc	5 1101 5 is_stmt 1              @ libraries/STM32H7xx_HAL/STM32H7xx_HAL_Driver/Src/stm32h7xx_hal_mdma.c:1101:5
	ldr	r1, [sp, #16]
	movs	r0, #0
	.loc	5 1101 22 is_stmt 0             @ libraries/STM32H7xx_HAL/STM32H7xx_HAL_Driver/Src/stm32h7xx_hal_mdma.c:1101:22
	str	r0, [r1, #104]
	.loc	5 1104 5 is_stmt 1              @ libraries/STM32H7xx_HAL/STM32H7xx_HAL_Driver/Src/stm32h7xx_hal_mdma.c:1104:5
	ldr	r0, [sp, #16]
	ldr	r1, [r0]
	ldr	r0, [r1, #12]
	bic	r0, r0, #1
	str	r0, [r1, #12]
	.loc	5 1107 20                       @ libraries/STM32H7xx_HAL/STM32H7xx_HAL_Driver/Src/stm32h7xx_hal_mdma.c:1107:20
	ldr	r0, [sp, #16]
	.loc	5 1107 27 is_stmt 0             @ libraries/STM32H7xx_HAL/STM32H7xx_HAL_Driver/Src/stm32h7xx_hal_mdma.c:1107:27
	ldr	r1, [sp, #12]
	.loc	5 1107 39                       @ libraries/STM32H7xx_HAL/STM32H7xx_HAL_Driver/Src/stm32h7xx_hal_mdma.c:1107:39
	ldr	r2, [sp, #8]
	.loc	5 1107 51                       @ libraries/STM32H7xx_HAL/STM32H7xx_HAL_Driver/Src/stm32h7xx_hal_mdma.c:1107:51
	ldr	r3, [sp, #4]
	.loc	5 1107 68                       @ libraries/STM32H7xx_HAL/STM32H7xx_HAL_Driver/Src/stm32h7xx_hal_mdma.c:1107:68
	ldr.w	r12, [sp, #32]
	.loc	5 1107 5                        @ libraries/STM32H7xx_HAL/STM32H7xx_HAL_Driver/Src/stm32h7xx_hal_mdma.c:1107:5
	mov	lr, sp
	str.w	r12, [lr]
	bl	MDMA_SetConfig
	.loc	5 1110 5 is_stmt 1              @ libraries/STM32H7xx_HAL/STM32H7xx_HAL_Driver/Src/stm32h7xx_hal_mdma.c:1110:5
	ldr	r0, [sp, #16]
	ldr	r1, [r0]
	ldr	r0, [r1, #12]
	orr	r0, r0, #1
	str	r0, [r1, #12]
.Ltmp304:
	.loc	5 1112 8                        @ libraries/STM32H7xx_HAL/STM32H7xx_HAL_Driver/Src/stm32h7xx_hal_mdma.c:1112:8
	ldr	r0, [sp, #16]
	.loc	5 1112 20 is_stmt 0             @ libraries/STM32H7xx_HAL/STM32H7xx_HAL_Driver/Src/stm32h7xx_hal_mdma.c:1112:20
	ldr	r0, [r0, #4]
.Ltmp305:
	.loc	5 1112 8                        @ libraries/STM32H7xx_HAL/STM32H7xx_HAL_Driver/Src/stm32h7xx_hal_mdma.c:1112:8
	cmp.w	r0, #1073741824
	bne	.LBB11_10
	b	.LBB11_9
.LBB11_9:
.Ltmp306:
	.loc	5 1115 7 is_stmt 1              @ libraries/STM32H7xx_HAL/STM32H7xx_HAL_Driver/Src/stm32h7xx_hal_mdma.c:1115:7
	ldr	r0, [sp, #16]
	.loc	5 1115 14 is_stmt 0             @ libraries/STM32H7xx_HAL/STM32H7xx_HAL_Driver/Src/stm32h7xx_hal_mdma.c:1115:14
	ldr	r1, [r0]
	.loc	5 1115 28                       @ libraries/STM32H7xx_HAL/STM32H7xx_HAL_Driver/Src/stm32h7xx_hal_mdma.c:1115:28
	ldr	r0, [r1, #12]
	orr	r0, r0, #65536
	str	r0, [r1, #12]
	.loc	5 1116 5 is_stmt 1              @ libraries/STM32H7xx_HAL/STM32H7xx_HAL_Driver/Src/stm32h7xx_hal_mdma.c:1116:5
	b	.LBB11_10
.Ltmp307:
.LBB11_10:
	.loc	5 1117 3                        @ libraries/STM32H7xx_HAL/STM32H7xx_HAL_Driver/Src/stm32h7xx_hal_mdma.c:1117:3
	b	.LBB11_14
.Ltmp308:
.LBB11_11:
	.loc	5 1121 5                        @ libraries/STM32H7xx_HAL/STM32H7xx_HAL_Driver/Src/stm32h7xx_hal_mdma.c:1121:5
	b	.LBB11_12
.LBB11_12:
.Ltmp309:
	.loc	5 1121 5 is_stmt 0              @ libraries/STM32H7xx_HAL/STM32H7xx_HAL_Driver/Src/stm32h7xx_hal_mdma.c:1121:5
	ldr	r1, [sp, #16]
	movs	r0, #0
	strb.w	r0, [r1, #60]
	b	.LBB11_13
.Ltmp310:
.LBB11_13:
	.loc	5 0 5                           @ libraries/STM32H7xx_HAL/STM32H7xx_HAL_Driver/Src/stm32h7xx_hal_mdma.c:0:5
	movs	r0, #2
	.loc	5 1124 5 is_stmt 1              @ libraries/STM32H7xx_HAL/STM32H7xx_HAL_Driver/Src/stm32h7xx_hal_mdma.c:1124:5
	strb.w	r0, [sp, #23]
	b	.LBB11_15
.Ltmp311:
.LBB11_14:
	.loc	5 0 5 is_stmt 0                 @ libraries/STM32H7xx_HAL/STM32H7xx_HAL_Driver/Src/stm32h7xx_hal_mdma.c:0:5
	movs	r0, #0
	.loc	5 1127 3 is_stmt 1              @ libraries/STM32H7xx_HAL/STM32H7xx_HAL_Driver/Src/stm32h7xx_hal_mdma.c:1127:3
	strb.w	r0, [sp, #23]
	b	.LBB11_15
.LBB11_15:
	.loc	5 1128 1                        @ libraries/STM32H7xx_HAL/STM32H7xx_HAL_Driver/Src/stm32h7xx_hal_mdma.c:1128:1
	ldrb.w	r0, [sp, #23]
	add	sp, #24
	pop	{r7, pc}
.Ltmp312:
.Lfunc_end11:
	.size	HAL_MDMA_Start, .Lfunc_end11-HAL_MDMA_Start
	.cfi_endproc
	.cantunwind
	.fnend
                                        @ -- End function
	.section	.text.MDMA_SetConfig,"ax",%progbits
	.p2align	3                               @ -- Begin function MDMA_SetConfig
	.type	MDMA_SetConfig,%function
	.code	16                              @ @MDMA_SetConfig
	.thumb_func
MDMA_SetConfig:
.Lfunc_begin12:
	.loc	5 1769 0                        @ libraries/STM32H7xx_HAL/STM32H7xx_HAL_Driver/Src/stm32h7xx_hal_mdma.c:1769:0
	.fnstart
	.cfi_startproc
@ %bb.0:
	.pad	#20
	sub	sp, #20
	.cfi_def_cfa_offset 20
	ldr.w	r12, [sp, #20]
	str	r0, [sp, #16]
	str	r1, [sp, #12]
	str	r2, [sp, #8]
	str	r3, [sp, #4]
.Ltmp313:
	.loc	5 1773 3 prologue_end           @ libraries/STM32H7xx_HAL/STM32H7xx_HAL_Driver/Src/stm32h7xx_hal_mdma.c:1773:3
	ldr	r0, [sp, #16]
	ldr	r0, [r0]
	ldr	r0, [r0, #20]
	ldr	r1, [sp, #4]
	bfi	r0, r1, #0, #17
	ldr	r1, [sp, #16]
	ldr	r1, [r1]
	str	r0, [r1, #20]
	.loc	5 1776 3                        @ libraries/STM32H7xx_HAL/STM32H7xx_HAL_Driver/Src/stm32h7xx_hal_mdma.c:1776:3
	ldr	r0, [sp, #16]
	ldr	r0, [r0]
	ldr	r0, [r0, #20]
	bfc	r0, #20, #12
	ldr	r1, [sp, #20]
	orr.w	r0, r0, r1, lsl #20
	sub.w	r0, r0, #1048576
	ldr	r1, [sp, #16]
	ldr	r1, [r1]
	str	r0, [r1, #20]
	.loc	5 1779 3                        @ libraries/STM32H7xx_HAL/STM32H7xx_HAL_Driver/Src/stm32h7xx_hal_mdma.c:1779:3
	ldr	r0, [sp, #16]
	ldr	r1, [r0]
	movs	r0, #31
	str	r0, [r1, #4]
	.loc	5 1782 27                       @ libraries/STM32H7xx_HAL/STM32H7xx_HAL_Driver/Src/stm32h7xx_hal_mdma.c:1782:27
	ldr	r0, [sp, #8]
	.loc	5 1782 3 is_stmt 0              @ libraries/STM32H7xx_HAL/STM32H7xx_HAL_Driver/Src/stm32h7xx_hal_mdma.c:1782:3
	ldr	r1, [sp, #16]
	.loc	5 1782 10                       @ libraries/STM32H7xx_HAL/STM32H7xx_HAL_Driver/Src/stm32h7xx_hal_mdma.c:1782:10
	ldr	r1, [r1]
	.loc	5 1782 25                       @ libraries/STM32H7xx_HAL/STM32H7xx_HAL_Driver/Src/stm32h7xx_hal_mdma.c:1782:25
	str	r0, [r1, #28]
	.loc	5 1785 27 is_stmt 1             @ libraries/STM32H7xx_HAL/STM32H7xx_HAL_Driver/Src/stm32h7xx_hal_mdma.c:1785:27
	ldr	r0, [sp, #12]
	.loc	5 1785 3 is_stmt 0              @ libraries/STM32H7xx_HAL/STM32H7xx_HAL_Driver/Src/stm32h7xx_hal_mdma.c:1785:3
	ldr	r1, [sp, #16]
	.loc	5 1785 10                       @ libraries/STM32H7xx_HAL/STM32H7xx_HAL_Driver/Src/stm32h7xx_hal_mdma.c:1785:10
	ldr	r1, [r1]
	.loc	5 1785 25                       @ libraries/STM32H7xx_HAL/STM32H7xx_HAL_Driver/Src/stm32h7xx_hal_mdma.c:1785:25
	str	r0, [r1, #24]
	.loc	5 1787 17 is_stmt 1             @ libraries/STM32H7xx_HAL/STM32H7xx_HAL_Driver/Src/stm32h7xx_hal_mdma.c:1787:17
	ldrb.w	r0, [sp, #15]
	lsls	r0, r0, #24
	.loc	5 1787 15 is_stmt 0             @ libraries/STM32H7xx_HAL/STM32H7xx_HAL_Driver/Src/stm32h7xx_hal_mdma.c:1787:15
	str	r0, [sp]
.Ltmp314:
	.loc	5 1788 7 is_stmt 1              @ libraries/STM32H7xx_HAL/STM32H7xx_HAL_Driver/Src/stm32h7xx_hal_mdma.c:1788:7
	ldr	r0, [sp]
	.loc	5 1788 35 is_stmt 0             @ libraries/STM32H7xx_HAL/STM32H7xx_HAL_Driver/Src/stm32h7xx_hal_mdma.c:1788:35
	cmp.w	r0, #536870912
	beq	.LBB12_2
	b	.LBB12_1
.LBB12_1:
	.loc	5 1788 39                       @ libraries/STM32H7xx_HAL/STM32H7xx_HAL_Driver/Src/stm32h7xx_hal_mdma.c:1788:39
	ldr	r0, [sp]
.Ltmp315:
	.loc	5 1788 6                        @ libraries/STM32H7xx_HAL/STM32H7xx_HAL_Driver/Src/stm32h7xx_hal_mdma.c:1788:6
	cbnz	r0, .LBB12_3
	b	.LBB12_2
.LBB12_2:
.Ltmp316:
	.loc	5 1791 5 is_stmt 1              @ libraries/STM32H7xx_HAL/STM32H7xx_HAL_Driver/Src/stm32h7xx_hal_mdma.c:1791:5
	ldr	r0, [sp, #16]
	.loc	5 1791 12 is_stmt 0             @ libraries/STM32H7xx_HAL/STM32H7xx_HAL_Driver/Src/stm32h7xx_hal_mdma.c:1791:12
	ldr	r1, [r0]
	.loc	5 1791 27                       @ libraries/STM32H7xx_HAL/STM32H7xx_HAL_Driver/Src/stm32h7xx_hal_mdma.c:1791:27
	ldr	r0, [r1, #40]
	orr	r0, r0, #65536
	str	r0, [r1, #40]
	.loc	5 1792 3 is_stmt 1              @ libraries/STM32H7xx_HAL/STM32H7xx_HAL_Driver/Src/stm32h7xx_hal_mdma.c:1792:3
	b	.LBB12_4
.Ltmp317:
.LBB12_3:
	.loc	5 1796 5                        @ libraries/STM32H7xx_HAL/STM32H7xx_HAL_Driver/Src/stm32h7xx_hal_mdma.c:1796:5
	ldr	r0, [sp, #16]
	.loc	5 1796 12 is_stmt 0             @ libraries/STM32H7xx_HAL/STM32H7xx_HAL_Driver/Src/stm32h7xx_hal_mdma.c:1796:12
	ldr	r1, [r0]
	.loc	5 1796 27                       @ libraries/STM32H7xx_HAL/STM32H7xx_HAL_Driver/Src/stm32h7xx_hal_mdma.c:1796:27
	ldr	r0, [r1, #40]
	bic	r0, r0, #65536
	str	r0, [r1, #40]
	b	.LBB12_4
.Ltmp318:
.LBB12_4:
	.loc	5 1799 17 is_stmt 1             @ libraries/STM32H7xx_HAL/STM32H7xx_HAL_Driver/Src/stm32h7xx_hal_mdma.c:1799:17
	ldrb.w	r0, [sp, #11]
	lsls	r0, r0, #24
	.loc	5 1799 15 is_stmt 0             @ libraries/STM32H7xx_HAL/STM32H7xx_HAL_Driver/Src/stm32h7xx_hal_mdma.c:1799:15
	str	r0, [sp]
.Ltmp319:
	.loc	5 1800 7 is_stmt 1              @ libraries/STM32H7xx_HAL/STM32H7xx_HAL_Driver/Src/stm32h7xx_hal_mdma.c:1800:7
	ldr	r0, [sp]
	.loc	5 1800 35 is_stmt 0             @ libraries/STM32H7xx_HAL/STM32H7xx_HAL_Driver/Src/stm32h7xx_hal_mdma.c:1800:35
	cmp.w	r0, #536870912
	beq	.LBB12_6
	b	.LBB12_5
.LBB12_5:
	.loc	5 1800 39                       @ libraries/STM32H7xx_HAL/STM32H7xx_HAL_Driver/Src/stm32h7xx_hal_mdma.c:1800:39
	ldr	r0, [sp]
.Ltmp320:
	.loc	5 1800 6                        @ libraries/STM32H7xx_HAL/STM32H7xx_HAL_Driver/Src/stm32h7xx_hal_mdma.c:1800:6
	cbnz	r0, .LBB12_7
	b	.LBB12_6
.LBB12_6:
.Ltmp321:
	.loc	5 1803 5 is_stmt 1              @ libraries/STM32H7xx_HAL/STM32H7xx_HAL_Driver/Src/stm32h7xx_hal_mdma.c:1803:5
	ldr	r0, [sp, #16]
	.loc	5 1803 12 is_stmt 0             @ libraries/STM32H7xx_HAL/STM32H7xx_HAL_Driver/Src/stm32h7xx_hal_mdma.c:1803:12
	ldr	r1, [r0]
	.loc	5 1803 27                       @ libraries/STM32H7xx_HAL/STM32H7xx_HAL_Driver/Src/stm32h7xx_hal_mdma.c:1803:27
	ldr	r0, [r1, #40]
	orr	r0, r0, #131072
	str	r0, [r1, #40]
	.loc	5 1804 3 is_stmt 1              @ libraries/STM32H7xx_HAL/STM32H7xx_HAL_Driver/Src/stm32h7xx_hal_mdma.c:1804:3
	b	.LBB12_8
.Ltmp322:
.LBB12_7:
	.loc	5 1808 5                        @ libraries/STM32H7xx_HAL/STM32H7xx_HAL_Driver/Src/stm32h7xx_hal_mdma.c:1808:5
	ldr	r0, [sp, #16]
	.loc	5 1808 12 is_stmt 0             @ libraries/STM32H7xx_HAL/STM32H7xx_HAL_Driver/Src/stm32h7xx_hal_mdma.c:1808:12
	ldr	r1, [r0]
	.loc	5 1808 27                       @ libraries/STM32H7xx_HAL/STM32H7xx_HAL_Driver/Src/stm32h7xx_hal_mdma.c:1808:27
	ldr	r0, [r1, #40]
	bic	r0, r0, #131072
	str	r0, [r1, #40]
	b	.LBB12_8
.Ltmp323:
.LBB12_8:
	.loc	5 1812 37 is_stmt 1             @ libraries/STM32H7xx_HAL/STM32H7xx_HAL_Driver/Src/stm32h7xx_hal_mdma.c:1812:37
	ldr	r0, [sp, #16]
	.loc	5 1812 10 is_stmt 0             @ libraries/STM32H7xx_HAL/STM32H7xx_HAL_Driver/Src/stm32h7xx_hal_mdma.c:1812:10
	ldr	r1, [r0]
	.loc	5 1812 44                       @ libraries/STM32H7xx_HAL/STM32H7xx_HAL_Driver/Src/stm32h7xx_hal_mdma.c:1812:44
	ldr	r0, [r0, #92]
	.loc	5 1812 25                       @ libraries/STM32H7xx_HAL/STM32H7xx_HAL_Driver/Src/stm32h7xx_hal_mdma.c:1812:25
	str	r0, [r1, #36]
	.loc	5 1813 1 is_stmt 1              @ libraries/STM32H7xx_HAL/STM32H7xx_HAL_Driver/Src/stm32h7xx_hal_mdma.c:1813:1
	add	sp, #20
	bx	lr
.Ltmp324:
.Lfunc_end12:
	.size	MDMA_SetConfig, .Lfunc_end12-MDMA_SetConfig
	.cfi_endproc
	.cantunwind
	.fnend
                                        @ -- End function
	.section	.text.HAL_MDMA_Start_IT,"ax",%progbits
	.hidden	HAL_MDMA_Start_IT               @ -- Begin function HAL_MDMA_Start_IT
	.globl	HAL_MDMA_Start_IT
	.p2align	3
	.type	HAL_MDMA_Start_IT,%function
	.code	16                              @ @HAL_MDMA_Start_IT
	.thumb_func
HAL_MDMA_Start_IT:
.Lfunc_begin13:
	.loc	5 1141 0                        @ libraries/STM32H7xx_HAL/STM32H7xx_HAL_Driver/Src/stm32h7xx_hal_mdma.c:1141:0
	.fnstart
	.cfi_startproc
@ %bb.0:
	.save	{r7, lr}
	push	{r7, lr}
	.cfi_def_cfa_offset 8
	.cfi_offset lr, -4
	.cfi_offset r7, -8
	.pad	#24
	sub	sp, #24
	.cfi_def_cfa_offset 32
	ldr.w	r12, [sp, #32]
	str	r0, [sp, #16]
	str	r1, [sp, #12]
	str	r2, [sp, #8]
	str	r3, [sp, #4]
.Ltmp325:
	.loc	5 1147 6 prologue_end           @ libraries/STM32H7xx_HAL/STM32H7xx_HAL_Driver/Src/stm32h7xx_hal_mdma.c:1147:6
	ldr	r0, [sp, #16]
.Ltmp326:
	.loc	5 1147 6 is_stmt 0              @ libraries/STM32H7xx_HAL/STM32H7xx_HAL_Driver/Src/stm32h7xx_hal_mdma.c:1147:6
	cbnz	r0, .LBB13_2
	b	.LBB13_1
.LBB13_1:
	.loc	5 0 6                           @ libraries/STM32H7xx_HAL/STM32H7xx_HAL_Driver/Src/stm32h7xx_hal_mdma.c:0:6
	movs	r0, #1
.Ltmp327:
	.loc	5 1149 5 is_stmt 1              @ libraries/STM32H7xx_HAL/STM32H7xx_HAL_Driver/Src/stm32h7xx_hal_mdma.c:1149:5
	strb.w	r0, [sp, #23]
	b	.LBB13_21
.Ltmp328:
.LBB13_2:
	.loc	5 1153 3                        @ libraries/STM32H7xx_HAL/STM32H7xx_HAL_Driver/Src/stm32h7xx_hal_mdma.c:1153:3
	b	.LBB13_3
.LBB13_3:
.Ltmp329:
	.loc	5 1153 3 is_stmt 0              @ libraries/STM32H7xx_HAL/STM32H7xx_HAL_Driver/Src/stm32h7xx_hal_mdma.c:1153:3
	ldr	r0, [sp, #16]
	ldrb.w	r0, [r0, #60]
.Ltmp330:
	.loc	5 1153 3                        @ libraries/STM32H7xx_HAL/STM32H7xx_HAL_Driver/Src/stm32h7xx_hal_mdma.c:1153:3
	cmp	r0, #1
	bne	.LBB13_5
	b	.LBB13_4
.LBB13_4:
	.loc	5 0 3                           @ libraries/STM32H7xx_HAL/STM32H7xx_HAL_Driver/Src/stm32h7xx_hal_mdma.c:0:3
	movs	r0, #2
.Ltmp331:
	.loc	5 1153 3                        @ libraries/STM32H7xx_HAL/STM32H7xx_HAL_Driver/Src/stm32h7xx_hal_mdma.c:1153:3
	strb.w	r0, [sp, #23]
	b	.LBB13_21
.Ltmp332:
.LBB13_5:
	.loc	5 1153 3                        @ libraries/STM32H7xx_HAL/STM32H7xx_HAL_Driver/Src/stm32h7xx_hal_mdma.c:1153:3
	ldr	r1, [sp, #16]
	movs	r0, #1
	strb.w	r0, [r1, #60]
	b	.LBB13_6
.Ltmp333:
.LBB13_6:
	.loc	5 1153 3                        @ libraries/STM32H7xx_HAL/STM32H7xx_HAL_Driver/Src/stm32h7xx_hal_mdma.c:1153:3
	b	.LBB13_7
.Ltmp334:
.LBB13_7:
	.loc	5 1155 30 is_stmt 1             @ libraries/STM32H7xx_HAL/STM32H7xx_HAL_Driver/Src/stm32h7xx_hal_mdma.c:1155:30
	ldr	r0, [sp, #16]
	.loc	5 1155 37 is_stmt 0             @ libraries/STM32H7xx_HAL/STM32H7xx_HAL_Driver/Src/stm32h7xx_hal_mdma.c:1155:37
	ldrb.w	r0, [r0, #61]
.Ltmp335:
	.loc	5 1155 6                        @ libraries/STM32H7xx_HAL/STM32H7xx_HAL_Driver/Src/stm32h7xx_hal_mdma.c:1155:6
	cmp	r0, #1
	bne	.LBB13_17
	b	.LBB13_8
.LBB13_8:
.Ltmp336:
	.loc	5 1158 5 is_stmt 1              @ libraries/STM32H7xx_HAL/STM32H7xx_HAL_Driver/Src/stm32h7xx_hal_mdma.c:1158:5
	ldr	r1, [sp, #16]
	movs	r0, #2
	.loc	5 1158 18 is_stmt 0             @ libraries/STM32H7xx_HAL/STM32H7xx_HAL_Driver/Src/stm32h7xx_hal_mdma.c:1158:18
	strb.w	r0, [r1, #61]
	.loc	5 1161 5 is_stmt 1              @ libraries/STM32H7xx_HAL/STM32H7xx_HAL_Driver/Src/stm32h7xx_hal_mdma.c:1161:5
	ldr	r1, [sp, #16]
	movs	r0, #0
	.loc	5 1161 22 is_stmt 0             @ libraries/STM32H7xx_HAL/STM32H7xx_HAL_Driver/Src/stm32h7xx_hal_mdma.c:1161:22
	str	r0, [r1, #104]
	.loc	5 1164 5 is_stmt 1              @ libraries/STM32H7xx_HAL/STM32H7xx_HAL_Driver/Src/stm32h7xx_hal_mdma.c:1164:5
	ldr	r0, [sp, #16]
	ldr	r1, [r0]
	ldr	r0, [r1, #12]
	bic	r0, r0, #1
	str	r0, [r1, #12]
	.loc	5 1167 20                       @ libraries/STM32H7xx_HAL/STM32H7xx_HAL_Driver/Src/stm32h7xx_hal_mdma.c:1167:20
	ldr	r0, [sp, #16]
	.loc	5 1167 27 is_stmt 0             @ libraries/STM32H7xx_HAL/STM32H7xx_HAL_Driver/Src/stm32h7xx_hal_mdma.c:1167:27
	ldr	r1, [sp, #12]
	.loc	5 1167 39                       @ libraries/STM32H7xx_HAL/STM32H7xx_HAL_Driver/Src/stm32h7xx_hal_mdma.c:1167:39
	ldr	r2, [sp, #8]
	.loc	5 1167 51                       @ libraries/STM32H7xx_HAL/STM32H7xx_HAL_Driver/Src/stm32h7xx_hal_mdma.c:1167:51
	ldr	r3, [sp, #4]
	.loc	5 1167 68                       @ libraries/STM32H7xx_HAL/STM32H7xx_HAL_Driver/Src/stm32h7xx_hal_mdma.c:1167:68
	ldr.w	r12, [sp, #32]
	.loc	5 1167 5                        @ libraries/STM32H7xx_HAL/STM32H7xx_HAL_Driver/Src/stm32h7xx_hal_mdma.c:1167:5
	mov	lr, sp
	str.w	r12, [lr]
	bl	MDMA_SetConfig
	.loc	5 1170 5 is_stmt 1              @ libraries/STM32H7xx_HAL/STM32H7xx_HAL_Driver/Src/stm32h7xx_hal_mdma.c:1170:5
	ldr	r0, [sp, #16]
	ldr	r1, [r0]
	ldr	r0, [r1, #12]
	orr	r0, r0, #6
	str	r0, [r1, #12]
.Ltmp337:
	.loc	5 1172 8                        @ libraries/STM32H7xx_HAL/STM32H7xx_HAL_Driver/Src/stm32h7xx_hal_mdma.c:1172:8
	ldr	r0, [sp, #16]
	.loc	5 1172 15 is_stmt 0             @ libraries/STM32H7xx_HAL/STM32H7xx_HAL_Driver/Src/stm32h7xx_hal_mdma.c:1172:15
	ldr	r0, [r0, #76]
.Ltmp338:
	.loc	5 1172 8                        @ libraries/STM32H7xx_HAL/STM32H7xx_HAL_Driver/Src/stm32h7xx_hal_mdma.c:1172:8
	cbz	r0, .LBB13_10
	b	.LBB13_9
.LBB13_9:
.Ltmp339:
	.loc	5 1175 7 is_stmt 1              @ libraries/STM32H7xx_HAL/STM32H7xx_HAL_Driver/Src/stm32h7xx_hal_mdma.c:1175:7
	ldr	r0, [sp, #16]
	ldr	r1, [r0]
	ldr	r0, [r1, #12]
	orr	r0, r0, #16
	str	r0, [r1, #12]
	.loc	5 1176 5                        @ libraries/STM32H7xx_HAL/STM32H7xx_HAL_Driver/Src/stm32h7xx_hal_mdma.c:1176:5
	b	.LBB13_10
.Ltmp340:
.LBB13_10:
	.loc	5 1178 8                        @ libraries/STM32H7xx_HAL/STM32H7xx_HAL_Driver/Src/stm32h7xx_hal_mdma.c:1178:8
	ldr	r0, [sp, #16]
	.loc	5 1178 15 is_stmt 0             @ libraries/STM32H7xx_HAL/STM32H7xx_HAL_Driver/Src/stm32h7xx_hal_mdma.c:1178:15
	ldr	r0, [r0, #80]
.Ltmp341:
	.loc	5 1178 8                        @ libraries/STM32H7xx_HAL/STM32H7xx_HAL_Driver/Src/stm32h7xx_hal_mdma.c:1178:8
	cbz	r0, .LBB13_12
	b	.LBB13_11
.LBB13_11:
.Ltmp342:
	.loc	5 1181 7 is_stmt 1              @ libraries/STM32H7xx_HAL/STM32H7xx_HAL_Driver/Src/stm32h7xx_hal_mdma.c:1181:7
	ldr	r0, [sp, #16]
	ldr	r1, [r0]
	ldr	r0, [r1, #12]
	orr	r0, r0, #8
	str	r0, [r1, #12]
	.loc	5 1182 5                        @ libraries/STM32H7xx_HAL/STM32H7xx_HAL_Driver/Src/stm32h7xx_hal_mdma.c:1182:5
	b	.LBB13_12
.Ltmp343:
.LBB13_12:
	.loc	5 1184 8                        @ libraries/STM32H7xx_HAL/STM32H7xx_HAL_Driver/Src/stm32h7xx_hal_mdma.c:1184:8
	ldr	r0, [sp, #16]
	.loc	5 1184 15 is_stmt 0             @ libraries/STM32H7xx_HAL/STM32H7xx_HAL_Driver/Src/stm32h7xx_hal_mdma.c:1184:15
	ldr	r0, [r0, #72]
.Ltmp344:
	.loc	5 1184 8                        @ libraries/STM32H7xx_HAL/STM32H7xx_HAL_Driver/Src/stm32h7xx_hal_mdma.c:1184:8
	cbz	r0, .LBB13_14
	b	.LBB13_13
.LBB13_13:
.Ltmp345:
	.loc	5 1187 7 is_stmt 1              @ libraries/STM32H7xx_HAL/STM32H7xx_HAL_Driver/Src/stm32h7xx_hal_mdma.c:1187:7
	ldr	r0, [sp, #16]
	ldr	r1, [r0]
	ldr	r0, [r1, #12]
	orr	r0, r0, #32
	str	r0, [r1, #12]
	.loc	5 1188 5                        @ libraries/STM32H7xx_HAL/STM32H7xx_HAL_Driver/Src/stm32h7xx_hal_mdma.c:1188:5
	b	.LBB13_14
.Ltmp346:
.LBB13_14:
	.loc	5 1191 5                        @ libraries/STM32H7xx_HAL/STM32H7xx_HAL_Driver/Src/stm32h7xx_hal_mdma.c:1191:5
	ldr	r0, [sp, #16]
	ldr	r1, [r0]
	ldr	r0, [r1, #12]
	orr	r0, r0, #1
	str	r0, [r1, #12]
.Ltmp347:
	.loc	5 1193 8                        @ libraries/STM32H7xx_HAL/STM32H7xx_HAL_Driver/Src/stm32h7xx_hal_mdma.c:1193:8
	ldr	r0, [sp, #16]
	.loc	5 1193 20 is_stmt 0             @ libraries/STM32H7xx_HAL/STM32H7xx_HAL_Driver/Src/stm32h7xx_hal_mdma.c:1193:20
	ldr	r0, [r0, #4]
.Ltmp348:
	.loc	5 1193 8                        @ libraries/STM32H7xx_HAL/STM32H7xx_HAL_Driver/Src/stm32h7xx_hal_mdma.c:1193:8
	cmp.w	r0, #1073741824
	bne	.LBB13_16
	b	.LBB13_15
.LBB13_15:
.Ltmp349:
	.loc	5 1196 7 is_stmt 1              @ libraries/STM32H7xx_HAL/STM32H7xx_HAL_Driver/Src/stm32h7xx_hal_mdma.c:1196:7
	ldr	r0, [sp, #16]
	.loc	5 1196 14 is_stmt 0             @ libraries/STM32H7xx_HAL/STM32H7xx_HAL_Driver/Src/stm32h7xx_hal_mdma.c:1196:14
	ldr	r1, [r0]
	.loc	5 1196 28                       @ libraries/STM32H7xx_HAL/STM32H7xx_HAL_Driver/Src/stm32h7xx_hal_mdma.c:1196:28
	ldr	r0, [r1, #12]
	orr	r0, r0, #65536
	str	r0, [r1, #12]
	.loc	5 1197 5 is_stmt 1              @ libraries/STM32H7xx_HAL/STM32H7xx_HAL_Driver/Src/stm32h7xx_hal_mdma.c:1197:5
	b	.LBB13_16
.Ltmp350:
.LBB13_16:
	.loc	5 1198 3                        @ libraries/STM32H7xx_HAL/STM32H7xx_HAL_Driver/Src/stm32h7xx_hal_mdma.c:1198:3
	b	.LBB13_20
.Ltmp351:
.LBB13_17:
	.loc	5 1202 5                        @ libraries/STM32H7xx_HAL/STM32H7xx_HAL_Driver/Src/stm32h7xx_hal_mdma.c:1202:5
	b	.LBB13_18
.LBB13_18:
.Ltmp352:
	.loc	5 1202 5 is_stmt 0              @ libraries/STM32H7xx_HAL/STM32H7xx_HAL_Driver/Src/stm32h7xx_hal_mdma.c:1202:5
	ldr	r1, [sp, #16]
	movs	r0, #0
	strb.w	r0, [r1, #60]
	b	.LBB13_19
.Ltmp353:
.LBB13_19:
	.loc	5 0 5                           @ libraries/STM32H7xx_HAL/STM32H7xx_HAL_Driver/Src/stm32h7xx_hal_mdma.c:0:5
	movs	r0, #2
	.loc	5 1205 5 is_stmt 1              @ libraries/STM32H7xx_HAL/STM32H7xx_HAL_Driver/Src/stm32h7xx_hal_mdma.c:1205:5
	strb.w	r0, [sp, #23]
	b	.LBB13_21
.Ltmp354:
.LBB13_20:
	.loc	5 0 5 is_stmt 0                 @ libraries/STM32H7xx_HAL/STM32H7xx_HAL_Driver/Src/stm32h7xx_hal_mdma.c:0:5
	movs	r0, #0
	.loc	5 1208 3 is_stmt 1              @ libraries/STM32H7xx_HAL/STM32H7xx_HAL_Driver/Src/stm32h7xx_hal_mdma.c:1208:3
	strb.w	r0, [sp, #23]
	b	.LBB13_21
.LBB13_21:
	.loc	5 1209 1                        @ libraries/STM32H7xx_HAL/STM32H7xx_HAL_Driver/Src/stm32h7xx_hal_mdma.c:1209:1
	ldrb.w	r0, [sp, #23]
	add	sp, #24
	pop	{r7, pc}
.Ltmp355:
.Lfunc_end13:
	.size	HAL_MDMA_Start_IT, .Lfunc_end13-HAL_MDMA_Start_IT
	.cfi_endproc
	.cantunwind
	.fnend
                                        @ -- End function
	.section	.text.HAL_MDMA_Abort,"ax",%progbits
	.hidden	HAL_MDMA_Abort                  @ -- Begin function HAL_MDMA_Abort
	.globl	HAL_MDMA_Abort
	.p2align	3
	.type	HAL_MDMA_Abort,%function
	.code	16                              @ @HAL_MDMA_Abort
	.thumb_func
HAL_MDMA_Abort:
.Lfunc_begin14:
	.loc	5 1224 0                        @ libraries/STM32H7xx_HAL/STM32H7xx_HAL_Driver/Src/stm32h7xx_hal_mdma.c:1224:0
	.fnstart
	.cfi_startproc
@ %bb.0:
	.save	{r7, lr}
	push	{r7, lr}
	.cfi_def_cfa_offset 8
	.cfi_offset lr, -4
	.cfi_offset r7, -8
	.pad	#16
	sub	sp, #16
	.cfi_def_cfa_offset 24
	str	r0, [sp, #8]
.Ltmp356:
	.loc	5 1225 25 prologue_end          @ libraries/STM32H7xx_HAL/STM32H7xx_HAL_Driver/Src/stm32h7xx_hal_mdma.c:1225:25
	bl	HAL_GetTick
	.loc	5 1225 12 is_stmt 0             @ libraries/STM32H7xx_HAL/STM32H7xx_HAL_Driver/Src/stm32h7xx_hal_mdma.c:1225:12
	str	r0, [sp, #4]
.Ltmp357:
	.loc	5 1228 6 is_stmt 1              @ libraries/STM32H7xx_HAL/STM32H7xx_HAL_Driver/Src/stm32h7xx_hal_mdma.c:1228:6
	ldr	r0, [sp, #8]
.Ltmp358:
	.loc	5 1228 6 is_stmt 0              @ libraries/STM32H7xx_HAL/STM32H7xx_HAL_Driver/Src/stm32h7xx_hal_mdma.c:1228:6
	cbnz	r0, .LBB14_2
	b	.LBB14_1
.LBB14_1:
	.loc	5 0 6                           @ libraries/STM32H7xx_HAL/STM32H7xx_HAL_Driver/Src/stm32h7xx_hal_mdma.c:0:6
	movs	r0, #1
.Ltmp359:
	.loc	5 1230 5 is_stmt 1              @ libraries/STM32H7xx_HAL/STM32H7xx_HAL_Driver/Src/stm32h7xx_hal_mdma.c:1230:5
	strb.w	r0, [sp, #15]
	b	.LBB14_17
.Ltmp360:
.LBB14_2:
	.loc	5 1233 29                       @ libraries/STM32H7xx_HAL/STM32H7xx_HAL_Driver/Src/stm32h7xx_hal_mdma.c:1233:29
	ldr	r0, [sp, #8]
	.loc	5 1233 36 is_stmt 0             @ libraries/STM32H7xx_HAL/STM32H7xx_HAL_Driver/Src/stm32h7xx_hal_mdma.c:1233:36
	ldrb.w	r0, [r0, #61]
.Ltmp361:
	.loc	5 1233 6                        @ libraries/STM32H7xx_HAL/STM32H7xx_HAL_Driver/Src/stm32h7xx_hal_mdma.c:1233:6
	cmp	r0, #2
	beq	.LBB14_6
	b	.LBB14_3
.LBB14_3:
.Ltmp362:
	.loc	5 1235 5 is_stmt 1              @ libraries/STM32H7xx_HAL/STM32H7xx_HAL_Driver/Src/stm32h7xx_hal_mdma.c:1235:5
	ldr	r1, [sp, #8]
	movs	r0, #128
	.loc	5 1235 22 is_stmt 0             @ libraries/STM32H7xx_HAL/STM32H7xx_HAL_Driver/Src/stm32h7xx_hal_mdma.c:1235:22
	str	r0, [r1, #104]
	.loc	5 1238 5 is_stmt 1              @ libraries/STM32H7xx_HAL/STM32H7xx_HAL_Driver/Src/stm32h7xx_hal_mdma.c:1238:5
	b	.LBB14_4
.LBB14_4:
.Ltmp363:
	.loc	5 1238 5 is_stmt 0              @ libraries/STM32H7xx_HAL/STM32H7xx_HAL_Driver/Src/stm32h7xx_hal_mdma.c:1238:5
	ldr	r1, [sp, #8]
	movs	r0, #0
	strb.w	r0, [r1, #60]
	b	.LBB14_5
.Ltmp364:
.LBB14_5:
	.loc	5 0 5                           @ libraries/STM32H7xx_HAL/STM32H7xx_HAL_Driver/Src/stm32h7xx_hal_mdma.c:0:5
	movs	r0, #1
	.loc	5 1240 5 is_stmt 1              @ libraries/STM32H7xx_HAL/STM32H7xx_HAL_Driver/Src/stm32h7xx_hal_mdma.c:1240:5
	strb.w	r0, [sp, #15]
	b	.LBB14_17
.Ltmp365:
.LBB14_6:
	.loc	5 1245 5                        @ libraries/STM32H7xx_HAL/STM32H7xx_HAL_Driver/Src/stm32h7xx_hal_mdma.c:1245:5
	ldr	r0, [sp, #8]
	ldr	r1, [r0]
	ldr	r0, [r1, #12]
	bic	r0, r0, #62
	str	r0, [r1, #12]
	.loc	5 1248 5                        @ libraries/STM32H7xx_HAL/STM32H7xx_HAL_Driver/Src/stm32h7xx_hal_mdma.c:1248:5
	ldr	r0, [sp, #8]
	ldr	r1, [r0]
	ldr	r0, [r1, #12]
	bic	r0, r0, #1
	str	r0, [r1, #12]
	.loc	5 1251 5                        @ libraries/STM32H7xx_HAL/STM32H7xx_HAL_Driver/Src/stm32h7xx_hal_mdma.c:1251:5
	b	.LBB14_7
.LBB14_7:                               @ =>This Inner Loop Header: Depth=1
	.loc	5 1251 12 is_stmt 0             @ libraries/STM32H7xx_HAL/STM32H7xx_HAL_Driver/Src/stm32h7xx_hal_mdma.c:1251:12
	ldr	r0, [sp, #8]
	.loc	5 1251 19                       @ libraries/STM32H7xx_HAL/STM32H7xx_HAL_Driver/Src/stm32h7xx_hal_mdma.c:1251:19
	ldr	r0, [r0]
	.loc	5 1251 29                       @ libraries/STM32H7xx_HAL/STM32H7xx_HAL_Driver/Src/stm32h7xx_hal_mdma.c:1251:29
	ldr	r0, [r0, #12]
	.loc	5 1251 5                        @ libraries/STM32H7xx_HAL/STM32H7xx_HAL_Driver/Src/stm32h7xx_hal_mdma.c:1251:5
	lsls	r0, r0, #31
	cbz	r0, .LBB14_13
	b	.LBB14_8
.LBB14_8:                               @   in Loop: Header=BB14_7 Depth=1
.Ltmp366:
	.loc	5 1254 12 is_stmt 1             @ libraries/STM32H7xx_HAL/STM32H7xx_HAL_Driver/Src/stm32h7xx_hal_mdma.c:1254:12
	bl	HAL_GetTick
	.loc	5 1254 29 is_stmt 0             @ libraries/STM32H7xx_HAL/STM32H7xx_HAL_Driver/Src/stm32h7xx_hal_mdma.c:1254:29
	ldr	r1, [sp, #4]
	.loc	5 1254 27                       @ libraries/STM32H7xx_HAL/STM32H7xx_HAL_Driver/Src/stm32h7xx_hal_mdma.c:1254:27
	subs	r0, r0, r1
.Ltmp367:
	.loc	5 1254 11                       @ libraries/STM32H7xx_HAL/STM32H7xx_HAL_Driver/Src/stm32h7xx_hal_mdma.c:1254:11
	cmp	r0, #6
	blo	.LBB14_12
	b	.LBB14_9
.LBB14_9:
.Ltmp368:
	.loc	5 1257 9 is_stmt 1              @ libraries/STM32H7xx_HAL/STM32H7xx_HAL_Driver/Src/stm32h7xx_hal_mdma.c:1257:9
	ldr	r1, [sp, #8]
	.loc	5 1257 26 is_stmt 0             @ libraries/STM32H7xx_HAL/STM32H7xx_HAL_Driver/Src/stm32h7xx_hal_mdma.c:1257:26
	ldr	r0, [r1, #104]
	orr	r0, r0, #64
	str	r0, [r1, #104]
	.loc	5 1260 9 is_stmt 1              @ libraries/STM32H7xx_HAL/STM32H7xx_HAL_Driver/Src/stm32h7xx_hal_mdma.c:1260:9
	b	.LBB14_10
.LBB14_10:
.Ltmp369:
	.loc	5 1260 9 is_stmt 0              @ libraries/STM32H7xx_HAL/STM32H7xx_HAL_Driver/Src/stm32h7xx_hal_mdma.c:1260:9
	ldr	r1, [sp, #8]
	movs	r0, #0
	strb.w	r0, [r1, #60]
	b	.LBB14_11
.Ltmp370:
.LBB14_11:
	.loc	5 1263 9 is_stmt 1              @ libraries/STM32H7xx_HAL/STM32H7xx_HAL_Driver/Src/stm32h7xx_hal_mdma.c:1263:9
	ldr	r1, [sp, #8]
	movs	r0, #3
	.loc	5 1263 22 is_stmt 0             @ libraries/STM32H7xx_HAL/STM32H7xx_HAL_Driver/Src/stm32h7xx_hal_mdma.c:1263:22
	strb.w	r0, [r1, #61]
	movs	r0, #1
	.loc	5 1265 9 is_stmt 1              @ libraries/STM32H7xx_HAL/STM32H7xx_HAL_Driver/Src/stm32h7xx_hal_mdma.c:1265:9
	strb.w	r0, [sp, #15]
	b	.LBB14_17
.Ltmp371:
.LBB14_12:                              @   in Loop: Header=BB14_7 Depth=1
	.loc	5 1251 5                        @ libraries/STM32H7xx_HAL/STM32H7xx_HAL_Driver/Src/stm32h7xx_hal_mdma.c:1251:5
	b	.LBB14_7
.LBB14_13:
	.loc	5 1270 5                        @ libraries/STM32H7xx_HAL/STM32H7xx_HAL_Driver/Src/stm32h7xx_hal_mdma.c:1270:5
	ldr	r0, [sp, #8]
	ldr	r1, [r0]
	movs	r0, #31
	str	r0, [r1, #4]
	.loc	5 1273 5                        @ libraries/STM32H7xx_HAL/STM32H7xx_HAL_Driver/Src/stm32h7xx_hal_mdma.c:1273:5
	b	.LBB14_14
.LBB14_14:
.Ltmp372:
	.loc	5 1273 5 is_stmt 0              @ libraries/STM32H7xx_HAL/STM32H7xx_HAL_Driver/Src/stm32h7xx_hal_mdma.c:1273:5
	ldr	r1, [sp, #8]
	movs	r0, #0
	strb.w	r0, [r1, #60]
	b	.LBB14_15
.Ltmp373:
.LBB14_15:
	.loc	5 1276 5 is_stmt 1              @ libraries/STM32H7xx_HAL/STM32H7xx_HAL_Driver/Src/stm32h7xx_hal_mdma.c:1276:5
	ldr	r1, [sp, #8]
	movs	r0, #1
	.loc	5 1276 18 is_stmt 0             @ libraries/STM32H7xx_HAL/STM32H7xx_HAL_Driver/Src/stm32h7xx_hal_mdma.c:1276:18
	strb.w	r0, [r1, #61]
	b	.LBB14_16
.Ltmp374:
.LBB14_16:
	.loc	5 0 18                          @ libraries/STM32H7xx_HAL/STM32H7xx_HAL_Driver/Src/stm32h7xx_hal_mdma.c:0:18
	movs	r0, #0
	.loc	5 1279 3 is_stmt 1              @ libraries/STM32H7xx_HAL/STM32H7xx_HAL_Driver/Src/stm32h7xx_hal_mdma.c:1279:3
	strb.w	r0, [sp, #15]
	b	.LBB14_17
.LBB14_17:
	.loc	5 1280 1                        @ libraries/STM32H7xx_HAL/STM32H7xx_HAL_Driver/Src/stm32h7xx_hal_mdma.c:1280:1
	ldrb.w	r0, [sp, #15]
	add	sp, #16
	pop	{r7, pc}
.Ltmp375:
.Lfunc_end14:
	.size	HAL_MDMA_Abort, .Lfunc_end14-HAL_MDMA_Abort
	.cfi_endproc
	.cantunwind
	.fnend
                                        @ -- End function
	.section	.text.HAL_MDMA_Abort_IT,"ax",%progbits
	.hidden	HAL_MDMA_Abort_IT               @ -- Begin function HAL_MDMA_Abort_IT
	.globl	HAL_MDMA_Abort_IT
	.p2align	3
	.type	HAL_MDMA_Abort_IT,%function
	.code	16                              @ @HAL_MDMA_Abort_IT
	.thumb_func
HAL_MDMA_Abort_IT:
.Lfunc_begin15:
	.loc	5 1289 0                        @ libraries/STM32H7xx_HAL/STM32H7xx_HAL_Driver/Src/stm32h7xx_hal_mdma.c:1289:0
	.fnstart
	.cfi_startproc
@ %bb.0:
	.pad	#8
	sub	sp, #8
	.cfi_def_cfa_offset 8
	str	r0, [sp]
.Ltmp376:
	.loc	5 1291 6 prologue_end           @ libraries/STM32H7xx_HAL/STM32H7xx_HAL_Driver/Src/stm32h7xx_hal_mdma.c:1291:6
	ldr	r0, [sp]
.Ltmp377:
	.loc	5 1291 6 is_stmt 0              @ libraries/STM32H7xx_HAL/STM32H7xx_HAL_Driver/Src/stm32h7xx_hal_mdma.c:1291:6
	cbnz	r0, .LBB15_2
	b	.LBB15_1
.LBB15_1:
	.loc	5 0 6                           @ libraries/STM32H7xx_HAL/STM32H7xx_HAL_Driver/Src/stm32h7xx_hal_mdma.c:0:6
	movs	r0, #1
.Ltmp378:
	.loc	5 1293 5 is_stmt 1              @ libraries/STM32H7xx_HAL/STM32H7xx_HAL_Driver/Src/stm32h7xx_hal_mdma.c:1293:5
	strb.w	r0, [sp, #7]
	b	.LBB15_6
.Ltmp379:
.LBB15_2:
	.loc	5 1296 29                       @ libraries/STM32H7xx_HAL/STM32H7xx_HAL_Driver/Src/stm32h7xx_hal_mdma.c:1296:29
	ldr	r0, [sp]
	.loc	5 1296 36 is_stmt 0             @ libraries/STM32H7xx_HAL/STM32H7xx_HAL_Driver/Src/stm32h7xx_hal_mdma.c:1296:36
	ldrb.w	r0, [r0, #61]
.Ltmp380:
	.loc	5 1296 6                        @ libraries/STM32H7xx_HAL/STM32H7xx_HAL_Driver/Src/stm32h7xx_hal_mdma.c:1296:6
	cmp	r0, #2
	beq	.LBB15_4
	b	.LBB15_3
.LBB15_3:
.Ltmp381:
	.loc	5 1299 5 is_stmt 1              @ libraries/STM32H7xx_HAL/STM32H7xx_HAL_Driver/Src/stm32h7xx_hal_mdma.c:1299:5
	ldr	r1, [sp]
	movs	r0, #128
	.loc	5 1299 22 is_stmt 0             @ libraries/STM32H7xx_HAL/STM32H7xx_HAL_Driver/Src/stm32h7xx_hal_mdma.c:1299:22
	str	r0, [r1, #104]
	movs	r0, #1
	.loc	5 1301 5 is_stmt 1              @ libraries/STM32H7xx_HAL/STM32H7xx_HAL_Driver/Src/stm32h7xx_hal_mdma.c:1301:5
	strb.w	r0, [sp, #7]
	b	.LBB15_6
.Ltmp382:
.LBB15_4:
	.loc	5 1306 5                        @ libraries/STM32H7xx_HAL/STM32H7xx_HAL_Driver/Src/stm32h7xx_hal_mdma.c:1306:5
	ldr	r1, [sp]
	movs	r0, #4
	.loc	5 1306 18 is_stmt 0             @ libraries/STM32H7xx_HAL/STM32H7xx_HAL_Driver/Src/stm32h7xx_hal_mdma.c:1306:18
	strb.w	r0, [r1, #61]
	.loc	5 1309 5 is_stmt 1              @ libraries/STM32H7xx_HAL/STM32H7xx_HAL_Driver/Src/stm32h7xx_hal_mdma.c:1309:5
	ldr	r0, [sp]
	ldr	r1, [r0]
	ldr	r0, [r1, #12]
	bic	r0, r0, #1
	str	r0, [r1, #12]
	b	.LBB15_5
.Ltmp383:
.LBB15_5:
	.loc	5 0 5 is_stmt 0                 @ libraries/STM32H7xx_HAL/STM32H7xx_HAL_Driver/Src/stm32h7xx_hal_mdma.c:0:5
	movs	r0, #0
	.loc	5 1312 3 is_stmt 1              @ libraries/STM32H7xx_HAL/STM32H7xx_HAL_Driver/Src/stm32h7xx_hal_mdma.c:1312:3
	strb.w	r0, [sp, #7]
	b	.LBB15_6
.LBB15_6:
	.loc	5 1313 1                        @ libraries/STM32H7xx_HAL/STM32H7xx_HAL_Driver/Src/stm32h7xx_hal_mdma.c:1313:1
	ldrb.w	r0, [sp, #7]
	add	sp, #8
	bx	lr
.Ltmp384:
.Lfunc_end15:
	.size	HAL_MDMA_Abort_IT, .Lfunc_end15-HAL_MDMA_Abort_IT
	.cfi_endproc
	.cantunwind
	.fnend
                                        @ -- End function
	.section	.text.HAL_MDMA_PollForTransfer,"ax",%progbits
	.hidden	HAL_MDMA_PollForTransfer        @ -- Begin function HAL_MDMA_PollForTransfer
	.globl	HAL_MDMA_PollForTransfer
	.p2align	3
	.type	HAL_MDMA_PollForTransfer,%function
	.code	16                              @ @HAL_MDMA_PollForTransfer
	.thumb_func
HAL_MDMA_PollForTransfer:
.Lfunc_begin16:
	.loc	5 1324 0                        @ libraries/STM32H7xx_HAL/STM32H7xx_HAL_Driver/Src/stm32h7xx_hal_mdma.c:1324:0
	.fnstart
	.cfi_startproc
@ %bb.0:
	.save	{r7, lr}
	push	{r7, lr}
	.cfi_def_cfa_offset 8
	.cfi_offset lr, -4
	.cfi_offset r7, -8
	.pad	#40
	sub	sp, #40
	.cfi_def_cfa_offset 48
                                        @ kill: def $r3 killed $r1
	str	r0, [sp, #32]
	strb.w	r1, [sp, #31]
	str	r2, [sp, #24]
.Ltmp385:
	.loc	5 1332 6 prologue_end           @ libraries/STM32H7xx_HAL/STM32H7xx_HAL_Driver/Src/stm32h7xx_hal_mdma.c:1332:6
	ldr	r0, [sp, #32]
.Ltmp386:
	.loc	5 1332 6 is_stmt 0              @ libraries/STM32H7xx_HAL/STM32H7xx_HAL_Driver/Src/stm32h7xx_hal_mdma.c:1332:6
	cbnz	r0, .LBB16_2
	b	.LBB16_1
.LBB16_1:
	.loc	5 0 6                           @ libraries/STM32H7xx_HAL/STM32H7xx_HAL_Driver/Src/stm32h7xx_hal_mdma.c:0:6
	movs	r0, #1
.Ltmp387:
	.loc	5 1334 5 is_stmt 1              @ libraries/STM32H7xx_HAL/STM32H7xx_HAL_Driver/Src/stm32h7xx_hal_mdma.c:1334:5
	strb.w	r0, [sp, #39]
	b	.LBB16_46
.Ltmp388:
.LBB16_2:
	.loc	5 1337 29                       @ libraries/STM32H7xx_HAL/STM32H7xx_HAL_Driver/Src/stm32h7xx_hal_mdma.c:1337:29
	ldr	r0, [sp, #32]
	.loc	5 1337 36 is_stmt 0             @ libraries/STM32H7xx_HAL/STM32H7xx_HAL_Driver/Src/stm32h7xx_hal_mdma.c:1337:36
	ldrb.w	r0, [r0, #61]
.Ltmp389:
	.loc	5 1337 6                        @ libraries/STM32H7xx_HAL/STM32H7xx_HAL_Driver/Src/stm32h7xx_hal_mdma.c:1337:6
	cmp	r0, #2
	beq	.LBB16_4
	b	.LBB16_3
.LBB16_3:
.Ltmp390:
	.loc	5 1340 5 is_stmt 1              @ libraries/STM32H7xx_HAL/STM32H7xx_HAL_Driver/Src/stm32h7xx_hal_mdma.c:1340:5
	ldr	r1, [sp, #32]
	movs	r0, #128
	.loc	5 1340 22 is_stmt 0             @ libraries/STM32H7xx_HAL/STM32H7xx_HAL_Driver/Src/stm32h7xx_hal_mdma.c:1340:22
	str	r0, [r1, #104]
	movs	r0, #1
	.loc	5 1342 5 is_stmt 1              @ libraries/STM32H7xx_HAL/STM32H7xx_HAL_Driver/Src/stm32h7xx_hal_mdma.c:1342:5
	strb.w	r0, [sp, #39]
	b	.LBB16_46
.Ltmp391:
.LBB16_4:
	.loc	5 1346 17                       @ libraries/STM32H7xx_HAL/STM32H7xx_HAL_Driver/Src/stm32h7xx_hal_mdma.c:1346:17
	ldrb.w	r0, [sp, #31]
	.loc	5 1346 16 is_stmt 0             @ libraries/STM32H7xx_HAL/STM32H7xx_HAL_Driver/Src/stm32h7xx_hal_mdma.c:1346:16
	cbnz	r0, .LBB16_6
	b	.LBB16_5
.LBB16_5:
	.loc	5 0 16                          @ libraries/STM32H7xx_HAL/STM32H7xx_HAL_Driver/Src/stm32h7xx_hal_mdma.c:0:16
	movs	r0, #2
	.loc	5 1346 16                       @ libraries/STM32H7xx_HAL/STM32H7xx_HAL_Driver/Src/stm32h7xx_hal_mdma.c:1346:16
	str	r0, [sp, #8]                    @ 4-byte Spill
	b	.LBB16_10
.LBB16_6:
	.loc	5 1347 17 is_stmt 1             @ libraries/STM32H7xx_HAL/STM32H7xx_HAL_Driver/Src/stm32h7xx_hal_mdma.c:1347:17
	ldrb.w	r0, [sp, #31]
	.loc	5 1347 16 is_stmt 0             @ libraries/STM32H7xx_HAL/STM32H7xx_HAL_Driver/Src/stm32h7xx_hal_mdma.c:1347:16
	cmp	r0, #1
	bne	.LBB16_8
	b	.LBB16_7
.LBB16_7:
	.loc	5 0 16                          @ libraries/STM32H7xx_HAL/STM32H7xx_HAL_Driver/Src/stm32h7xx_hal_mdma.c:0:16
	movs	r0, #16
	.loc	5 1347 16                       @ libraries/STM32H7xx_HAL/STM32H7xx_HAL_Driver/Src/stm32h7xx_hal_mdma.c:1347:16
	str	r0, [sp, #4]                    @ 4-byte Spill
	b	.LBB16_9
.LBB16_8:
	.loc	5 1348 17 is_stmt 1             @ libraries/STM32H7xx_HAL/STM32H7xx_HAL_Driver/Src/stm32h7xx_hal_mdma.c:1348:17
	ldrb.w	r1, [sp, #31]
	movs	r0, #4
	.loc	5 1348 16 is_stmt 0             @ libraries/STM32H7xx_HAL/STM32H7xx_HAL_Driver/Src/stm32h7xx_hal_mdma.c:1348:16
	cmp	r1, #2
	it	eq
	moveq	r0, #8
	.loc	5 1347 16 is_stmt 1             @ libraries/STM32H7xx_HAL/STM32H7xx_HAL_Driver/Src/stm32h7xx_hal_mdma.c:1347:16
	str	r0, [sp, #4]                    @ 4-byte Spill
	b	.LBB16_9
.LBB16_9:
	ldr	r0, [sp, #4]                    @ 4-byte Reload
	.loc	5 1346 16                       @ libraries/STM32H7xx_HAL/STM32H7xx_HAL_Driver/Src/stm32h7xx_hal_mdma.c:1346:16
	str	r0, [sp, #8]                    @ 4-byte Spill
	b	.LBB16_10
.LBB16_10:
	ldr	r0, [sp, #8]                    @ 4-byte Reload
	.loc	5 1346 13 is_stmt 0             @ libraries/STM32H7xx_HAL/STM32H7xx_HAL_Driver/Src/stm32h7xx_hal_mdma.c:1346:13
	str	r0, [sp, #20]
	.loc	5 1353 15 is_stmt 1             @ libraries/STM32H7xx_HAL/STM32H7xx_HAL_Driver/Src/stm32h7xx_hal_mdma.c:1353:15
	bl	HAL_GetTick
	.loc	5 1353 13 is_stmt 0             @ libraries/STM32H7xx_HAL/STM32H7xx_HAL_Driver/Src/stm32h7xx_hal_mdma.c:1353:13
	str	r0, [sp, #12]
	.loc	5 1355 3 is_stmt 1              @ libraries/STM32H7xx_HAL/STM32H7xx_HAL_Driver/Src/stm32h7xx_hal_mdma.c:1355:3
	b	.LBB16_11
.LBB16_11:                              @ =>This Inner Loop Header: Depth=1
	.loc	5 1355 9 is_stmt 0              @ libraries/STM32H7xx_HAL/STM32H7xx_HAL_Driver/Src/stm32h7xx_hal_mdma.c:1355:9
	ldr	r0, [sp, #32]
	ldr	r0, [r0]
	ldr	r0, [r0]
	ldr	r1, [sp, #20]
	.loc	5 1355 3                        @ libraries/STM32H7xx_HAL/STM32H7xx_HAL_Driver/Src/stm32h7xx_hal_mdma.c:1355:3
	tst	r0, r1
	bne	.LBB16_31
	b	.LBB16_12
.LBB16_12:                              @   in Loop: Header=BB16_11 Depth=1
.Ltmp392:
	.loc	5 1357 9 is_stmt 1              @ libraries/STM32H7xx_HAL/STM32H7xx_HAL_Driver/Src/stm32h7xx_hal_mdma.c:1357:9
	ldr	r0, [sp, #32]
	ldr	r0, [r0]
	ldr	r0, [r0]
.Ltmp393:
	.loc	5 1357 8 is_stmt 0              @ libraries/STM32H7xx_HAL/STM32H7xx_HAL_Driver/Src/stm32h7xx_hal_mdma.c:1357:8
	lsls	r0, r0, #31
	cmp	r0, #0
	beq	.LBB16_25
	b	.LBB16_13
.LBB16_13:
.Ltmp394:
	.loc	5 1360 19 is_stmt 1             @ libraries/STM32H7xx_HAL/STM32H7xx_HAL_Driver/Src/stm32h7xx_hal_mdma.c:1360:19
	ldr	r0, [sp, #32]
	.loc	5 1360 26 is_stmt 0             @ libraries/STM32H7xx_HAL/STM32H7xx_HAL_Driver/Src/stm32h7xx_hal_mdma.c:1360:26
	ldr	r0, [r0]
	.loc	5 1360 36                       @ libraries/STM32H7xx_HAL/STM32H7xx_HAL_Driver/Src/stm32h7xx_hal_mdma.c:1360:36
	ldr	r0, [r0, #8]
	.loc	5 1360 17                       @ libraries/STM32H7xx_HAL/STM32H7xx_HAL_Driver/Src/stm32h7xx_hal_mdma.c:1360:17
	str	r0, [sp, #16]
	.loc	5 1362 10 is_stmt 1             @ libraries/STM32H7xx_HAL/STM32H7xx_HAL_Driver/Src/stm32h7xx_hal_mdma.c:1362:10
	ldrb.w	r0, [sp, #16]
	lsls	r0, r0, #24
	cmp	r0, #0
	bmi	.LBB16_15
	b	.LBB16_14
.LBB16_14:
.Ltmp395:
	.loc	5 1365 9                        @ libraries/STM32H7xx_HAL/STM32H7xx_HAL_Driver/Src/stm32h7xx_hal_mdma.c:1365:9
	ldr	r1, [sp, #32]
	.loc	5 1365 26 is_stmt 0             @ libraries/STM32H7xx_HAL/STM32H7xx_HAL_Driver/Src/stm32h7xx_hal_mdma.c:1365:26
	ldr	r0, [r1, #104]
	orr	r0, r0, #1
	str	r0, [r1, #104]
	.loc	5 1366 7 is_stmt 1              @ libraries/STM32H7xx_HAL/STM32H7xx_HAL_Driver/Src/stm32h7xx_hal_mdma.c:1366:7
	b	.LBB16_16
.Ltmp396:
.LBB16_15:
	.loc	5 1370 9                        @ libraries/STM32H7xx_HAL/STM32H7xx_HAL_Driver/Src/stm32h7xx_hal_mdma.c:1370:9
	ldr	r1, [sp, #32]
	.loc	5 1370 26 is_stmt 0             @ libraries/STM32H7xx_HAL/STM32H7xx_HAL_Driver/Src/stm32h7xx_hal_mdma.c:1370:26
	ldr	r0, [r1, #104]
	orr	r0, r0, #2
	str	r0, [r1, #104]
	b	.LBB16_16
.Ltmp397:
.LBB16_16:
	.loc	5 1373 10 is_stmt 1             @ libraries/STM32H7xx_HAL/STM32H7xx_HAL_Driver/Src/stm32h7xx_hal_mdma.c:1373:10
	ldrb.w	r0, [sp, #17]
	lsls	r0, r0, #30
	cmp	r0, #0
	bpl	.LBB16_18
	b	.LBB16_17
.LBB16_17:
.Ltmp398:
	.loc	5 1376 9                        @ libraries/STM32H7xx_HAL/STM32H7xx_HAL_Driver/Src/stm32h7xx_hal_mdma.c:1376:9
	ldr	r1, [sp, #32]
	.loc	5 1376 26 is_stmt 0             @ libraries/STM32H7xx_HAL/STM32H7xx_HAL_Driver/Src/stm32h7xx_hal_mdma.c:1376:26
	ldr	r0, [r1, #104]
	orr	r0, r0, #4
	str	r0, [r1, #104]
	.loc	5 1377 7 is_stmt 1              @ libraries/STM32H7xx_HAL/STM32H7xx_HAL_Driver/Src/stm32h7xx_hal_mdma.c:1377:7
	b	.LBB16_18
.Ltmp399:
.LBB16_18:
	.loc	5 1379 10                       @ libraries/STM32H7xx_HAL/STM32H7xx_HAL_Driver/Src/stm32h7xx_hal_mdma.c:1379:10
	ldrb.w	r0, [sp, #17]
	lsls	r0, r0, #31
	cbz	r0, .LBB16_20
	b	.LBB16_19
.LBB16_19:
.Ltmp400:
	.loc	5 1382 9                        @ libraries/STM32H7xx_HAL/STM32H7xx_HAL_Driver/Src/stm32h7xx_hal_mdma.c:1382:9
	ldr	r1, [sp, #32]
	.loc	5 1382 26 is_stmt 0             @ libraries/STM32H7xx_HAL/STM32H7xx_HAL_Driver/Src/stm32h7xx_hal_mdma.c:1382:26
	ldr	r0, [r1, #104]
	orr	r0, r0, #8
	str	r0, [r1, #104]
	.loc	5 1383 7 is_stmt 1              @ libraries/STM32H7xx_HAL/STM32H7xx_HAL_Driver/Src/stm32h7xx_hal_mdma.c:1383:7
	b	.LBB16_20
.Ltmp401:
.LBB16_20:
	.loc	5 1385 10                       @ libraries/STM32H7xx_HAL/STM32H7xx_HAL_Driver/Src/stm32h7xx_hal_mdma.c:1385:10
	ldrb.w	r0, [sp, #17]
	lsls	r0, r0, #29
	cmp	r0, #0
	bpl	.LBB16_22
	b	.LBB16_21
.LBB16_21:
.Ltmp402:
	.loc	5 1388 9                        @ libraries/STM32H7xx_HAL/STM32H7xx_HAL_Driver/Src/stm32h7xx_hal_mdma.c:1388:9
	ldr	r1, [sp, #32]
	.loc	5 1388 26 is_stmt 0             @ libraries/STM32H7xx_HAL/STM32H7xx_HAL_Driver/Src/stm32h7xx_hal_mdma.c:1388:26
	ldr	r0, [r1, #104]
	orr	r0, r0, #16
	str	r0, [r1, #104]
	.loc	5 1389 7 is_stmt 1              @ libraries/STM32H7xx_HAL/STM32H7xx_HAL_Driver/Src/stm32h7xx_hal_mdma.c:1389:7
	b	.LBB16_22
.Ltmp403:
.LBB16_22:
	.loc	5 1391 10                       @ libraries/STM32H7xx_HAL/STM32H7xx_HAL_Driver/Src/stm32h7xx_hal_mdma.c:1391:10
	ldrb.w	r0, [sp, #17]
	lsls	r0, r0, #28
	cmp	r0, #0
	bpl	.LBB16_24
	b	.LBB16_23
.LBB16_23:
.Ltmp404:
	.loc	5 1394 9                        @ libraries/STM32H7xx_HAL/STM32H7xx_HAL_Driver/Src/stm32h7xx_hal_mdma.c:1394:9
	ldr	r1, [sp, #32]
	.loc	5 1394 26 is_stmt 0             @ libraries/STM32H7xx_HAL/STM32H7xx_HAL_Driver/Src/stm32h7xx_hal_mdma.c:1394:26
	ldr	r0, [r1, #104]
	orr	r0, r0, #32
	str	r0, [r1, #104]
	.loc	5 1395 7 is_stmt 1              @ libraries/STM32H7xx_HAL/STM32H7xx_HAL_Driver/Src/stm32h7xx_hal_mdma.c:1395:7
	b	.LBB16_24
.Ltmp405:
.LBB16_24:
	.loc	5 1397 29                       @ libraries/STM32H7xx_HAL/STM32H7xx_HAL_Driver/Src/stm32h7xx_hal_mdma.c:1397:29
	ldr	r0, [sp, #32]
	.loc	5 1397 14 is_stmt 0             @ libraries/STM32H7xx_HAL/STM32H7xx_HAL_Driver/Src/stm32h7xx_hal_mdma.c:1397:14
	bl	HAL_MDMA_Abort
	movs	r0, #1
	.loc	5 1406 7 is_stmt 1              @ libraries/STM32H7xx_HAL/STM32H7xx_HAL_Driver/Src/stm32h7xx_hal_mdma.c:1406:7
	strb.w	r0, [sp, #39]
	b	.LBB16_46
.Ltmp406:
.LBB16_25:                              @   in Loop: Header=BB16_11 Depth=1
	.loc	5 1411 8                        @ libraries/STM32H7xx_HAL/STM32H7xx_HAL_Driver/Src/stm32h7xx_hal_mdma.c:1411:8
	ldr	r0, [sp, #24]
.Ltmp407:
	.loc	5 1411 8 is_stmt 0              @ libraries/STM32H7xx_HAL/STM32H7xx_HAL_Driver/Src/stm32h7xx_hal_mdma.c:1411:8
	adds	r0, #1
	cbz	r0, .LBB16_30
	b	.LBB16_26
.LBB16_26:                              @   in Loop: Header=BB16_11 Depth=1
.Ltmp408:
	.loc	5 1413 12 is_stmt 1             @ libraries/STM32H7xx_HAL/STM32H7xx_HAL_Driver/Src/stm32h7xx_hal_mdma.c:1413:12
	bl	HAL_GetTick
	.loc	5 1413 28 is_stmt 0             @ libraries/STM32H7xx_HAL/STM32H7xx_HAL_Driver/Src/stm32h7xx_hal_mdma.c:1413:28
	ldr	r1, [sp, #12]
	.loc	5 1413 26                       @ libraries/STM32H7xx_HAL/STM32H7xx_HAL_Driver/Src/stm32h7xx_hal_mdma.c:1413:26
	subs	r0, r0, r1
	.loc	5 1413 42                       @ libraries/STM32H7xx_HAL/STM32H7xx_HAL_Driver/Src/stm32h7xx_hal_mdma.c:1413:42
	ldr	r1, [sp, #24]
	.loc	5 1413 51                       @ libraries/STM32H7xx_HAL/STM32H7xx_HAL_Driver/Src/stm32h7xx_hal_mdma.c:1413:51
	cmp	r0, r1
	bhi	.LBB16_28
	b	.LBB16_27
.LBB16_27:                              @   in Loop: Header=BB16_11 Depth=1
	.loc	5 1413 55                       @ libraries/STM32H7xx_HAL/STM32H7xx_HAL_Driver/Src/stm32h7xx_hal_mdma.c:1413:55
	ldr	r0, [sp, #24]
.Ltmp409:
	.loc	5 1413 10                       @ libraries/STM32H7xx_HAL/STM32H7xx_HAL_Driver/Src/stm32h7xx_hal_mdma.c:1413:10
	cbnz	r0, .LBB16_29
	b	.LBB16_28
.LBB16_28:
.Ltmp410:
	.loc	5 1416 9 is_stmt 1              @ libraries/STM32H7xx_HAL/STM32H7xx_HAL_Driver/Src/stm32h7xx_hal_mdma.c:1416:9
	ldr	r1, [sp, #32]
	.loc	5 1416 26 is_stmt 0             @ libraries/STM32H7xx_HAL/STM32H7xx_HAL_Driver/Src/stm32h7xx_hal_mdma.c:1416:26
	ldr	r0, [r1, #104]
	orr	r0, r0, #64
	str	r0, [r1, #104]
	.loc	5 1418 31 is_stmt 1             @ libraries/STM32H7xx_HAL/STM32H7xx_HAL_Driver/Src/stm32h7xx_hal_mdma.c:1418:31
	ldr	r0, [sp, #32]
	.loc	5 1418 16 is_stmt 0             @ libraries/STM32H7xx_HAL/STM32H7xx_HAL_Driver/Src/stm32h7xx_hal_mdma.c:1418:16
	bl	HAL_MDMA_Abort
	movs	r0, #1
	.loc	5 1427 9 is_stmt 1              @ libraries/STM32H7xx_HAL/STM32H7xx_HAL_Driver/Src/stm32h7xx_hal_mdma.c:1427:9
	strb.w	r0, [sp, #39]
	b	.LBB16_46
.Ltmp411:
.LBB16_29:                              @   in Loop: Header=BB16_11 Depth=1
	.loc	5 1429 5                        @ libraries/STM32H7xx_HAL/STM32H7xx_HAL_Driver/Src/stm32h7xx_hal_mdma.c:1429:5
	b	.LBB16_30
.Ltmp412:
.LBB16_30:                              @   in Loop: Header=BB16_11 Depth=1
	.loc	5 1355 3                        @ libraries/STM32H7xx_HAL/STM32H7xx_HAL_Driver/Src/stm32h7xx_hal_mdma.c:1355:3
	b	.LBB16_11
.LBB16_31:
.Ltmp413:
	.loc	5 1433 6                        @ libraries/STM32H7xx_HAL/STM32H7xx_HAL_Driver/Src/stm32h7xx_hal_mdma.c:1433:6
	ldrb.w	r0, [sp, #31]
.Ltmp414:
	.loc	5 1433 6 is_stmt 0              @ libraries/STM32H7xx_HAL/STM32H7xx_HAL_Driver/Src/stm32h7xx_hal_mdma.c:1433:6
	cmp	r0, #1
	bne	.LBB16_33
	b	.LBB16_32
.LBB16_32:
.Ltmp415:
	.loc	5 1435 5 is_stmt 1              @ libraries/STM32H7xx_HAL/STM32H7xx_HAL_Driver/Src/stm32h7xx_hal_mdma.c:1435:5
	ldr	r0, [sp, #32]
	ldr	r1, [r0]
	movs	r0, #16
	str	r0, [r1, #4]
	.loc	5 1437 3                        @ libraries/STM32H7xx_HAL/STM32H7xx_HAL_Driver/Src/stm32h7xx_hal_mdma.c:1437:3
	b	.LBB16_45
.Ltmp416:
.LBB16_33:
	.loc	5 1438 11                       @ libraries/STM32H7xx_HAL/STM32H7xx_HAL_Driver/Src/stm32h7xx_hal_mdma.c:1438:11
	ldrb.w	r0, [sp, #31]
.Ltmp417:
	.loc	5 1438 11 is_stmt 0             @ libraries/STM32H7xx_HAL/STM32H7xx_HAL_Driver/Src/stm32h7xx_hal_mdma.c:1438:11
	cmp	r0, #2
	bne	.LBB16_35
	b	.LBB16_34
.LBB16_34:
.Ltmp418:
	.loc	5 1440 5 is_stmt 1              @ libraries/STM32H7xx_HAL/STM32H7xx_HAL_Driver/Src/stm32h7xx_hal_mdma.c:1440:5
	ldr	r0, [sp, #32]
	ldr	r1, [r0]
	movs	r0, #24
	str	r0, [r1, #4]
	.loc	5 1442 3                        @ libraries/STM32H7xx_HAL/STM32H7xx_HAL_Driver/Src/stm32h7xx_hal_mdma.c:1442:3
	b	.LBB16_44
.Ltmp419:
.LBB16_35:
	.loc	5 1443 11                       @ libraries/STM32H7xx_HAL/STM32H7xx_HAL_Driver/Src/stm32h7xx_hal_mdma.c:1443:11
	ldrb.w	r0, [sp, #31]
.Ltmp420:
	.loc	5 1443 11 is_stmt 0             @ libraries/STM32H7xx_HAL/STM32H7xx_HAL_Driver/Src/stm32h7xx_hal_mdma.c:1443:11
	cmp	r0, #3
	bne	.LBB16_37
	b	.LBB16_36
.LBB16_36:
.Ltmp421:
	.loc	5 1445 5 is_stmt 1              @ libraries/STM32H7xx_HAL/STM32H7xx_HAL_Driver/Src/stm32h7xx_hal_mdma.c:1445:5
	ldr	r0, [sp, #32]
	ldr	r1, [r0]
	movs	r0, #28
	str	r0, [r1, #4]
	.loc	5 1446 3                        @ libraries/STM32H7xx_HAL/STM32H7xx_HAL_Driver/Src/stm32h7xx_hal_mdma.c:1446:3
	b	.LBB16_43
.Ltmp422:
.LBB16_37:
	.loc	5 1447 11                       @ libraries/STM32H7xx_HAL/STM32H7xx_HAL_Driver/Src/stm32h7xx_hal_mdma.c:1447:11
	ldrb.w	r0, [sp, #31]
.Ltmp423:
	.loc	5 1447 11 is_stmt 0             @ libraries/STM32H7xx_HAL/STM32H7xx_HAL_Driver/Src/stm32h7xx_hal_mdma.c:1447:11
	cbnz	r0, .LBB16_41
	b	.LBB16_38
.LBB16_38:
.Ltmp424:
	.loc	5 1449 5 is_stmt 1              @ libraries/STM32H7xx_HAL/STM32H7xx_HAL_Driver/Src/stm32h7xx_hal_mdma.c:1449:5
	ldr	r0, [sp, #32]
	ldr	r1, [r0]
	movs	r0, #30
	str	r0, [r1, #4]
	.loc	5 1452 5                        @ libraries/STM32H7xx_HAL/STM32H7xx_HAL_Driver/Src/stm32h7xx_hal_mdma.c:1452:5
	b	.LBB16_39
.LBB16_39:
.Ltmp425:
	.loc	5 1452 5 is_stmt 0              @ libraries/STM32H7xx_HAL/STM32H7xx_HAL_Driver/Src/stm32h7xx_hal_mdma.c:1452:5
	ldr	r1, [sp, #32]
	movs	r0, #0
	strb.w	r0, [r1, #60]
	b	.LBB16_40
.Ltmp426:
.LBB16_40:
	.loc	5 1454 5 is_stmt 1              @ libraries/STM32H7xx_HAL/STM32H7xx_HAL_Driver/Src/stm32h7xx_hal_mdma.c:1454:5
	ldr	r1, [sp, #32]
	movs	r0, #1
	.loc	5 1454 18 is_stmt 0             @ libraries/STM32H7xx_HAL/STM32H7xx_HAL_Driver/Src/stm32h7xx_hal_mdma.c:1454:18
	strb.w	r0, [r1, #61]
	.loc	5 1455 3 is_stmt 1              @ libraries/STM32H7xx_HAL/STM32H7xx_HAL_Driver/Src/stm32h7xx_hal_mdma.c:1455:3
	b	.LBB16_42
.Ltmp427:
.LBB16_41:
	.loc	5 0 3 is_stmt 0                 @ libraries/STM32H7xx_HAL/STM32H7xx_HAL_Driver/Src/stm32h7xx_hal_mdma.c:0:3
	movs	r0, #1
.Ltmp428:
	.loc	5 1458 5 is_stmt 1              @ libraries/STM32H7xx_HAL/STM32H7xx_HAL_Driver/Src/stm32h7xx_hal_mdma.c:1458:5
	strb.w	r0, [sp, #39]
	b	.LBB16_46
.Ltmp429:
.LBB16_42:
	.loc	5 0 5 is_stmt 0                 @ libraries/STM32H7xx_HAL/STM32H7xx_HAL_Driver/Src/stm32h7xx_hal_mdma.c:0:5
	b	.LBB16_43
.LBB16_43:
	b	.LBB16_44
.LBB16_44:
	b	.LBB16_45
.LBB16_45:
	movs	r0, #0
	.loc	5 1461 3 is_stmt 1              @ libraries/STM32H7xx_HAL/STM32H7xx_HAL_Driver/Src/stm32h7xx_hal_mdma.c:1461:3
	strb.w	r0, [sp, #39]
	b	.LBB16_46
.LBB16_46:
	.loc	5 1462 1                        @ libraries/STM32H7xx_HAL/STM32H7xx_HAL_Driver/Src/stm32h7xx_hal_mdma.c:1462:1
	ldrb.w	r0, [sp, #39]
	add	sp, #40
	pop	{r7, pc}
.Ltmp430:
.Lfunc_end16:
	.size	HAL_MDMA_PollForTransfer, .Lfunc_end16-HAL_MDMA_PollForTransfer
	.cfi_endproc
	.cantunwind
	.fnend
                                        @ -- End function
	.section	.text.HAL_MDMA_GenerateSWRequest,"ax",%progbits
	.hidden	HAL_MDMA_GenerateSWRequest      @ -- Begin function HAL_MDMA_GenerateSWRequest
	.globl	HAL_MDMA_GenerateSWRequest
	.p2align	3
	.type	HAL_MDMA_GenerateSWRequest,%function
	.code	16                              @ @HAL_MDMA_GenerateSWRequest
	.thumb_func
HAL_MDMA_GenerateSWRequest:
.Lfunc_begin17:
	.loc	5 1471 0                        @ libraries/STM32H7xx_HAL/STM32H7xx_HAL_Driver/Src/stm32h7xx_hal_mdma.c:1471:0
	.fnstart
	.cfi_startproc
@ %bb.0:
	.pad	#12
	sub	sp, #12
	.cfi_def_cfa_offset 12
	str	r0, [sp, #4]
.Ltmp431:
	.loc	5 1475 6 prologue_end           @ libraries/STM32H7xx_HAL/STM32H7xx_HAL_Driver/Src/stm32h7xx_hal_mdma.c:1475:6
	ldr	r0, [sp, #4]
.Ltmp432:
	.loc	5 1475 6 is_stmt 0              @ libraries/STM32H7xx_HAL/STM32H7xx_HAL_Driver/Src/stm32h7xx_hal_mdma.c:1475:6
	cbnz	r0, .LBB17_2
	b	.LBB17_1
.LBB17_1:
	.loc	5 0 6                           @ libraries/STM32H7xx_HAL/STM32H7xx_HAL_Driver/Src/stm32h7xx_hal_mdma.c:0:6
	movs	r0, #1
.Ltmp433:
	.loc	5 1477 5 is_stmt 1              @ libraries/STM32H7xx_HAL/STM32H7xx_HAL_Driver/Src/stm32h7xx_hal_mdma.c:1477:5
	strb.w	r0, [sp, #11]
	b	.LBB17_8
.Ltmp434:
.LBB17_2:
	.loc	5 1481 18                       @ libraries/STM32H7xx_HAL/STM32H7xx_HAL_Driver/Src/stm32h7xx_hal_mdma.c:1481:18
	ldr	r0, [sp, #4]
	.loc	5 1481 25 is_stmt 0             @ libraries/STM32H7xx_HAL/STM32H7xx_HAL_Driver/Src/stm32h7xx_hal_mdma.c:1481:25
	ldr	r0, [r0]
	.loc	5 1481 35                       @ libraries/STM32H7xx_HAL/STM32H7xx_HAL_Driver/Src/stm32h7xx_hal_mdma.c:1481:35
	ldr	r0, [r0, #16]
	.loc	5 1481 40                       @ libraries/STM32H7xx_HAL/STM32H7xx_HAL_Driver/Src/stm32h7xx_hal_mdma.c:1481:40
	and	r0, r0, #1073741824
	.loc	5 1481 16                       @ libraries/STM32H7xx_HAL/STM32H7xx_HAL_Driver/Src/stm32h7xx_hal_mdma.c:1481:16
	str	r0, [sp]
.Ltmp435:
	.loc	5 1483 7 is_stmt 1              @ libraries/STM32H7xx_HAL/STM32H7xx_HAL_Driver/Src/stm32h7xx_hal_mdma.c:1483:7
	ldr	r0, [sp, #4]
	.loc	5 1483 14 is_stmt 0             @ libraries/STM32H7xx_HAL/STM32H7xx_HAL_Driver/Src/stm32h7xx_hal_mdma.c:1483:14
	ldr	r0, [r0]
	.loc	5 1483 24                       @ libraries/STM32H7xx_HAL/STM32H7xx_HAL_Driver/Src/stm32h7xx_hal_mdma.c:1483:24
	ldr	r0, [r0, #12]
.Ltmp436:
	.loc	5 1483 6                        @ libraries/STM32H7xx_HAL/STM32H7xx_HAL_Driver/Src/stm32h7xx_hal_mdma.c:1483:6
	lsls	r0, r0, #31
	cbnz	r0, .LBB17_4
	b	.LBB17_3
.LBB17_3:
.Ltmp437:
	.loc	5 1486 5 is_stmt 1              @ libraries/STM32H7xx_HAL/STM32H7xx_HAL_Driver/Src/stm32h7xx_hal_mdma.c:1486:5
	ldr	r1, [sp, #4]
	movs	r0, #128
	.loc	5 1486 22 is_stmt 0             @ libraries/STM32H7xx_HAL/STM32H7xx_HAL_Driver/Src/stm32h7xx_hal_mdma.c:1486:22
	str	r0, [r1, #104]
	movs	r0, #1
	.loc	5 1488 5 is_stmt 1              @ libraries/STM32H7xx_HAL/STM32H7xx_HAL_Driver/Src/stm32h7xx_hal_mdma.c:1488:5
	strb.w	r0, [sp, #11]
	b	.LBB17_8
.Ltmp438:
.LBB17_4:
	.loc	5 1490 13                       @ libraries/STM32H7xx_HAL/STM32H7xx_HAL_Driver/Src/stm32h7xx_hal_mdma.c:1490:13
	ldr	r0, [sp, #4]
	.loc	5 1490 20 is_stmt 0             @ libraries/STM32H7xx_HAL/STM32H7xx_HAL_Driver/Src/stm32h7xx_hal_mdma.c:1490:20
	ldr	r0, [r0]
	.loc	5 1490 30                       @ libraries/STM32H7xx_HAL/STM32H7xx_HAL_Driver/Src/stm32h7xx_hal_mdma.c:1490:30
	ldr	r0, [r0]
	.loc	5 1490 61                       @ libraries/STM32H7xx_HAL/STM32H7xx_HAL_Driver/Src/stm32h7xx_hal_mdma.c:1490:61
	lsls	r0, r0, #15
	cmp	r0, #0
	bmi	.LBB17_6
	b	.LBB17_5
.LBB17_5:
	.loc	5 1490 65                       @ libraries/STM32H7xx_HAL/STM32H7xx_HAL_Driver/Src/stm32h7xx_hal_mdma.c:1490:65
	ldr	r0, [sp]
.Ltmp439:
	.loc	5 1490 11                       @ libraries/STM32H7xx_HAL/STM32H7xx_HAL_Driver/Src/stm32h7xx_hal_mdma.c:1490:11
	cbnz	r0, .LBB17_7
	b	.LBB17_6
.LBB17_6:
.Ltmp440:
	.loc	5 1493 5 is_stmt 1              @ libraries/STM32H7xx_HAL/STM32H7xx_HAL_Driver/Src/stm32h7xx_hal_mdma.c:1493:5
	ldr	r1, [sp, #4]
	mov.w	r0, #256
	.loc	5 1493 22 is_stmt 0             @ libraries/STM32H7xx_HAL/STM32H7xx_HAL_Driver/Src/stm32h7xx_hal_mdma.c:1493:22
	str	r0, [r1, #104]
	movs	r0, #1
	.loc	5 1495 5 is_stmt 1              @ libraries/STM32H7xx_HAL/STM32H7xx_HAL_Driver/Src/stm32h7xx_hal_mdma.c:1495:5
	strb.w	r0, [sp, #11]
	b	.LBB17_8
.Ltmp441:
.LBB17_7:
	.loc	5 1500 5                        @ libraries/STM32H7xx_HAL/STM32H7xx_HAL_Driver/Src/stm32h7xx_hal_mdma.c:1500:5
	ldr	r0, [sp, #4]
	.loc	5 1500 12 is_stmt 0             @ libraries/STM32H7xx_HAL/STM32H7xx_HAL_Driver/Src/stm32h7xx_hal_mdma.c:1500:12
	ldr	r1, [r0]
	.loc	5 1500 26                       @ libraries/STM32H7xx_HAL/STM32H7xx_HAL_Driver/Src/stm32h7xx_hal_mdma.c:1500:26
	ldr	r0, [r1, #12]
	orr	r0, r0, #65536
	str	r0, [r1, #12]
	movs	r0, #0
	.loc	5 1502 5 is_stmt 1              @ libraries/STM32H7xx_HAL/STM32H7xx_HAL_Driver/Src/stm32h7xx_hal_mdma.c:1502:5
	strb.w	r0, [sp, #11]
	b	.LBB17_8
.Ltmp442:
.LBB17_8:
	.loc	5 1504 1                        @ libraries/STM32H7xx_HAL/STM32H7xx_HAL_Driver/Src/stm32h7xx_hal_mdma.c:1504:1
	ldrb.w	r0, [sp, #11]
	add	sp, #12
	bx	lr
.Ltmp443:
.Lfunc_end17:
	.size	HAL_MDMA_GenerateSWRequest, .Lfunc_end17-HAL_MDMA_GenerateSWRequest
	.cfi_endproc
	.cantunwind
	.fnend
                                        @ -- End function
	.section	.text.HAL_MDMA_IRQHandler,"ax",%progbits
	.hidden	HAL_MDMA_IRQHandler             @ -- Begin function HAL_MDMA_IRQHandler
	.globl	HAL_MDMA_IRQHandler
	.p2align	3
	.type	HAL_MDMA_IRQHandler,%function
	.code	16                              @ @HAL_MDMA_IRQHandler
	.thumb_func
HAL_MDMA_IRQHandler:
.Lfunc_begin18:
	.loc	5 1513 0                        @ libraries/STM32H7xx_HAL/STM32H7xx_HAL_Driver/Src/stm32h7xx_hal_mdma.c:1513:0
	.fnstart
	.cfi_startproc
@ %bb.0:
	.save	{r7, lr}
	push	{r7, lr}
	.cfi_def_cfa_offset 8
	.cfi_offset lr, -4
	.cfi_offset r7, -8
	.pad	#24
	sub	sp, #24
	.cfi_def_cfa_offset 32
	str	r0, [sp, #20]
	movs	r0, #0
.Ltmp444:
	.loc	5 1514 17 prologue_end          @ libraries/STM32H7xx_HAL/STM32H7xx_HAL_Driver/Src/stm32h7xx_hal_mdma.c:1514:17
	str	r0, [sp, #16]
	.loc	5 1515 22                       @ libraries/STM32H7xx_HAL/STM32H7xx_HAL_Driver/Src/stm32h7xx_hal_mdma.c:1515:22
	movw	r0, :lower16:SystemCoreClock
	movt	r0, :upper16:SystemCoreClock
	ldr	r0, [r0]
	movw	r1, #33205
	movt	r1, #6990
	.loc	5 1515 38 is_stmt 0             @ libraries/STM32H7xx_HAL/STM32H7xx_HAL_Driver/Src/stm32h7xx_hal_mdma.c:1515:38
	umull	r1, r0, r0, r1
	lsrs	r0, r0, #10
	.loc	5 1515 12                       @ libraries/STM32H7xx_HAL/STM32H7xx_HAL_Driver/Src/stm32h7xx_hal_mdma.c:1515:12
	str	r0, [sp, #12]
	.loc	5 1520 41 is_stmt 1             @ libraries/STM32H7xx_HAL/STM32H7xx_HAL_Driver/Src/stm32h7xx_hal_mdma.c:1520:41
	ldr	r0, [sp, #20]
	.loc	5 1520 48 is_stmt 0             @ libraries/STM32H7xx_HAL/STM32H7xx_HAL_Driver/Src/stm32h7xx_hal_mdma.c:1520:48
	ldr	r0, [r0]
	movw	r1, #65472
	movt	r1, #44543
	.loc	5 1520 57                       @ libraries/STM32H7xx_HAL/STM32H7xx_HAL_Driver/Src/stm32h7xx_hal_mdma.c:1520:57
	add	r0, r1
	.loc	5 1520 109                      @ libraries/STM32H7xx_HAL/STM32H7xx_HAL_Driver/Src/stm32h7xx_hal_mdma.c:1520:109
	ubfx	r1, r0, #6, #5
	movs	r0, #1
	.loc	5 1520 25                       @ libraries/STM32H7xx_HAL/STM32H7xx_HAL_Driver/Src/stm32h7xx_hal_mdma.c:1520:25
	lsls	r0, r1
	.loc	5 1520 18                       @ libraries/STM32H7xx_HAL/STM32H7xx_HAL_Driver/Src/stm32h7xx_hal_mdma.c:1520:18
	str	r0, [sp, #8]
	mov.w	r0, #1375731712
.Ltmp445:
	.loc	5 1521 13 is_stmt 1             @ libraries/STM32H7xx_HAL/STM32H7xx_HAL_Driver/Src/stm32h7xx_hal_mdma.c:1521:13
	ldr	r0, [r0]
	.loc	5 1521 21 is_stmt 0             @ libraries/STM32H7xx_HAL/STM32H7xx_HAL_Driver/Src/stm32h7xx_hal_mdma.c:1521:21
	ldr	r1, [sp, #8]
.Ltmp446:
	.loc	5 1521 6                        @ libraries/STM32H7xx_HAL/STM32H7xx_HAL_Driver/Src/stm32h7xx_hal_mdma.c:1521:6
	tst	r0, r1
	bne	.LBB18_2
	b	.LBB18_1
.LBB18_1:
.Ltmp447:
	.loc	5 1523 5 is_stmt 1              @ libraries/STM32H7xx_HAL/STM32H7xx_HAL_Driver/Src/stm32h7xx_hal_mdma.c:1523:5
	b	.LBB18_63
.Ltmp448:
.LBB18_2:
	.loc	5 1527 7                        @ libraries/STM32H7xx_HAL/STM32H7xx_HAL_Driver/Src/stm32h7xx_hal_mdma.c:1527:7
	ldr	r0, [sp, #20]
	ldr	r0, [r0]
	ldr	r0, [r0]
.Ltmp449:
	.loc	5 1527 6 is_stmt 0              @ libraries/STM32H7xx_HAL/STM32H7xx_HAL_Driver/Src/stm32h7xx_hal_mdma.c:1527:6
	lsls	r0, r0, #31
	cmp	r0, #0
	beq	.LBB18_17
	b	.LBB18_3
.LBB18_3:
.Ltmp450:
	.loc	5 1529 8 is_stmt 1              @ libraries/STM32H7xx_HAL/STM32H7xx_HAL_Driver/Src/stm32h7xx_hal_mdma.c:1529:8
	ldr	r0, [sp, #20]
	ldr	r0, [r0]
	ldr	r0, [r0, #12]
.Ltmp451:
	.loc	5 1529 8 is_stmt 0              @ libraries/STM32H7xx_HAL/STM32H7xx_HAL_Driver/Src/stm32h7xx_hal_mdma.c:1529:8
	lsls	r0, r0, #30
	cmp	r0, #0
	bpl	.LBB18_16
	b	.LBB18_4
.LBB18_4:
.Ltmp452:
	.loc	5 1532 7 is_stmt 1              @ libraries/STM32H7xx_HAL/STM32H7xx_HAL_Driver/Src/stm32h7xx_hal_mdma.c:1532:7
	ldr	r0, [sp, #20]
	ldr	r1, [r0]
	ldr	r0, [r1, #12]
	bic	r0, r0, #2
	str	r0, [r1, #12]
	.loc	5 1535 19                       @ libraries/STM32H7xx_HAL/STM32H7xx_HAL_Driver/Src/stm32h7xx_hal_mdma.c:1535:19
	ldr	r0, [sp, #20]
	.loc	5 1535 26 is_stmt 0             @ libraries/STM32H7xx_HAL/STM32H7xx_HAL_Driver/Src/stm32h7xx_hal_mdma.c:1535:26
	ldr	r0, [r0]
	.loc	5 1535 36                       @ libraries/STM32H7xx_HAL/STM32H7xx_HAL_Driver/Src/stm32h7xx_hal_mdma.c:1535:36
	ldr	r0, [r0, #8]
	.loc	5 1535 17                       @ libraries/STM32H7xx_HAL/STM32H7xx_HAL_Driver/Src/stm32h7xx_hal_mdma.c:1535:17
	str	r0, [sp, #4]
	.loc	5 1537 10 is_stmt 1             @ libraries/STM32H7xx_HAL/STM32H7xx_HAL_Driver/Src/stm32h7xx_hal_mdma.c:1537:10
	ldrb.w	r0, [sp, #4]
	lsls	r0, r0, #24
	cmp	r0, #0
	bmi	.LBB18_6
	b	.LBB18_5
.LBB18_5:
.Ltmp453:
	.loc	5 1540 9                        @ libraries/STM32H7xx_HAL/STM32H7xx_HAL_Driver/Src/stm32h7xx_hal_mdma.c:1540:9
	ldr	r1, [sp, #20]
	.loc	5 1540 26 is_stmt 0             @ libraries/STM32H7xx_HAL/STM32H7xx_HAL_Driver/Src/stm32h7xx_hal_mdma.c:1540:26
	ldr	r0, [r1, #104]
	orr	r0, r0, #1
	str	r0, [r1, #104]
	.loc	5 1541 7 is_stmt 1              @ libraries/STM32H7xx_HAL/STM32H7xx_HAL_Driver/Src/stm32h7xx_hal_mdma.c:1541:7
	b	.LBB18_7
.Ltmp454:
.LBB18_6:
	.loc	5 1545 9                        @ libraries/STM32H7xx_HAL/STM32H7xx_HAL_Driver/Src/stm32h7xx_hal_mdma.c:1545:9
	ldr	r1, [sp, #20]
	.loc	5 1545 26 is_stmt 0             @ libraries/STM32H7xx_HAL/STM32H7xx_HAL_Driver/Src/stm32h7xx_hal_mdma.c:1545:26
	ldr	r0, [r1, #104]
	orr	r0, r0, #2
	str	r0, [r1, #104]
	b	.LBB18_7
.Ltmp455:
.LBB18_7:
	.loc	5 1548 10 is_stmt 1             @ libraries/STM32H7xx_HAL/STM32H7xx_HAL_Driver/Src/stm32h7xx_hal_mdma.c:1548:10
	ldrb.w	r0, [sp, #5]
	lsls	r0, r0, #30
	cmp	r0, #0
	bpl	.LBB18_9
	b	.LBB18_8
.LBB18_8:
.Ltmp456:
	.loc	5 1551 9                        @ libraries/STM32H7xx_HAL/STM32H7xx_HAL_Driver/Src/stm32h7xx_hal_mdma.c:1551:9
	ldr	r1, [sp, #20]
	.loc	5 1551 26 is_stmt 0             @ libraries/STM32H7xx_HAL/STM32H7xx_HAL_Driver/Src/stm32h7xx_hal_mdma.c:1551:26
	ldr	r0, [r1, #104]
	orr	r0, r0, #4
	str	r0, [r1, #104]
	.loc	5 1552 7 is_stmt 1              @ libraries/STM32H7xx_HAL/STM32H7xx_HAL_Driver/Src/stm32h7xx_hal_mdma.c:1552:7
	b	.LBB18_9
.Ltmp457:
.LBB18_9:
	.loc	5 1554 10                       @ libraries/STM32H7xx_HAL/STM32H7xx_HAL_Driver/Src/stm32h7xx_hal_mdma.c:1554:10
	ldrb.w	r0, [sp, #5]
	lsls	r0, r0, #31
	cbz	r0, .LBB18_11
	b	.LBB18_10
.LBB18_10:
.Ltmp458:
	.loc	5 1557 9                        @ libraries/STM32H7xx_HAL/STM32H7xx_HAL_Driver/Src/stm32h7xx_hal_mdma.c:1557:9
	ldr	r1, [sp, #20]
	.loc	5 1557 26 is_stmt 0             @ libraries/STM32H7xx_HAL/STM32H7xx_HAL_Driver/Src/stm32h7xx_hal_mdma.c:1557:26
	ldr	r0, [r1, #104]
	orr	r0, r0, #8
	str	r0, [r1, #104]
	.loc	5 1558 7 is_stmt 1              @ libraries/STM32H7xx_HAL/STM32H7xx_HAL_Driver/Src/stm32h7xx_hal_mdma.c:1558:7
	b	.LBB18_11
.Ltmp459:
.LBB18_11:
	.loc	5 1560 10                       @ libraries/STM32H7xx_HAL/STM32H7xx_HAL_Driver/Src/stm32h7xx_hal_mdma.c:1560:10
	ldrb.w	r0, [sp, #5]
	lsls	r0, r0, #29
	cmp	r0, #0
	bpl	.LBB18_13
	b	.LBB18_12
.LBB18_12:
.Ltmp460:
	.loc	5 1563 9                        @ libraries/STM32H7xx_HAL/STM32H7xx_HAL_Driver/Src/stm32h7xx_hal_mdma.c:1563:9
	ldr	r1, [sp, #20]
	.loc	5 1563 26 is_stmt 0             @ libraries/STM32H7xx_HAL/STM32H7xx_HAL_Driver/Src/stm32h7xx_hal_mdma.c:1563:26
	ldr	r0, [r1, #104]
	orr	r0, r0, #16
	str	r0, [r1, #104]
	.loc	5 1564 7 is_stmt 1              @ libraries/STM32H7xx_HAL/STM32H7xx_HAL_Driver/Src/stm32h7xx_hal_mdma.c:1564:7
	b	.LBB18_13
.Ltmp461:
.LBB18_13:
	.loc	5 1566 10                       @ libraries/STM32H7xx_HAL/STM32H7xx_HAL_Driver/Src/stm32h7xx_hal_mdma.c:1566:10
	ldrb.w	r0, [sp, #5]
	lsls	r0, r0, #28
	cmp	r0, #0
	bpl	.LBB18_15
	b	.LBB18_14
.LBB18_14:
.Ltmp462:
	.loc	5 1569 9                        @ libraries/STM32H7xx_HAL/STM32H7xx_HAL_Driver/Src/stm32h7xx_hal_mdma.c:1569:9
	ldr	r1, [sp, #20]
	.loc	5 1569 26 is_stmt 0             @ libraries/STM32H7xx_HAL/STM32H7xx_HAL_Driver/Src/stm32h7xx_hal_mdma.c:1569:26
	ldr	r0, [r1, #104]
	orr	r0, r0, #32
	str	r0, [r1, #104]
	.loc	5 1570 7 is_stmt 1              @ libraries/STM32H7xx_HAL/STM32H7xx_HAL_Driver/Src/stm32h7xx_hal_mdma.c:1570:7
	b	.LBB18_15
.Ltmp463:
.LBB18_15:
	.loc	5 1573 7                        @ libraries/STM32H7xx_HAL/STM32H7xx_HAL_Driver/Src/stm32h7xx_hal_mdma.c:1573:7
	ldr	r0, [sp, #20]
	ldr	r1, [r0]
	movs	r0, #1
	str	r0, [r1, #4]
	.loc	5 1574 5                        @ libraries/STM32H7xx_HAL/STM32H7xx_HAL_Driver/Src/stm32h7xx_hal_mdma.c:1574:5
	b	.LBB18_16
.Ltmp464:
.LBB18_16:
	.loc	5 1575 3                        @ libraries/STM32H7xx_HAL/STM32H7xx_HAL_Driver/Src/stm32h7xx_hal_mdma.c:1575:3
	b	.LBB18_17
.Ltmp465:
.LBB18_17:
	.loc	5 1578 7                        @ libraries/STM32H7xx_HAL/STM32H7xx_HAL_Driver/Src/stm32h7xx_hal_mdma.c:1578:7
	ldr	r0, [sp, #20]
	ldr	r0, [r0]
	ldr	r0, [r0]
.Ltmp466:
	.loc	5 1578 6 is_stmt 0              @ libraries/STM32H7xx_HAL/STM32H7xx_HAL_Driver/Src/stm32h7xx_hal_mdma.c:1578:6
	lsls	r0, r0, #27
	cmp	r0, #0
	bpl	.LBB18_23
	b	.LBB18_18
.LBB18_18:
.Ltmp467:
	.loc	5 1580 8 is_stmt 1              @ libraries/STM32H7xx_HAL/STM32H7xx_HAL_Driver/Src/stm32h7xx_hal_mdma.c:1580:8
	ldr	r0, [sp, #20]
	ldr	r0, [r0]
	ldr	r0, [r0, #12]
.Ltmp468:
	.loc	5 1580 8 is_stmt 0              @ libraries/STM32H7xx_HAL/STM32H7xx_HAL_Driver/Src/stm32h7xx_hal_mdma.c:1580:8
	lsls	r0, r0, #26
	cmp	r0, #0
	bpl	.LBB18_22
	b	.LBB18_19
.LBB18_19:
.Ltmp469:
	.loc	5 1583 7 is_stmt 1              @ libraries/STM32H7xx_HAL/STM32H7xx_HAL_Driver/Src/stm32h7xx_hal_mdma.c:1583:7
	ldr	r0, [sp, #20]
	ldr	r1, [r0]
	movs	r0, #16
	str	r0, [r1, #4]
.Ltmp470:
	.loc	5 1585 10                       @ libraries/STM32H7xx_HAL/STM32H7xx_HAL_Driver/Src/stm32h7xx_hal_mdma.c:1585:10
	ldr	r0, [sp, #20]
	.loc	5 1585 17 is_stmt 0             @ libraries/STM32H7xx_HAL/STM32H7xx_HAL_Driver/Src/stm32h7xx_hal_mdma.c:1585:17
	ldr	r0, [r0, #72]
.Ltmp471:
	.loc	5 1585 10                       @ libraries/STM32H7xx_HAL/STM32H7xx_HAL_Driver/Src/stm32h7xx_hal_mdma.c:1585:10
	cbz	r0, .LBB18_21
	b	.LBB18_20
.LBB18_20:
.Ltmp472:
	.loc	5 1588 9 is_stmt 1              @ libraries/STM32H7xx_HAL/STM32H7xx_HAL_Driver/Src/stm32h7xx_hal_mdma.c:1588:9
	ldr	r0, [sp, #20]
	.loc	5 1588 16 is_stmt 0             @ libraries/STM32H7xx_HAL/STM32H7xx_HAL_Driver/Src/stm32h7xx_hal_mdma.c:1588:16
	ldr	r1, [r0, #72]
	.loc	5 1588 9                        @ libraries/STM32H7xx_HAL/STM32H7xx_HAL_Driver/Src/stm32h7xx_hal_mdma.c:1588:9
	blx	r1
	.loc	5 1589 7 is_stmt 1              @ libraries/STM32H7xx_HAL/STM32H7xx_HAL_Driver/Src/stm32h7xx_hal_mdma.c:1589:7
	b	.LBB18_21
.Ltmp473:
.LBB18_21:
	.loc	5 1590 5                        @ libraries/STM32H7xx_HAL/STM32H7xx_HAL_Driver/Src/stm32h7xx_hal_mdma.c:1590:5
	b	.LBB18_22
.Ltmp474:
.LBB18_22:
	.loc	5 1591 3                        @ libraries/STM32H7xx_HAL/STM32H7xx_HAL_Driver/Src/stm32h7xx_hal_mdma.c:1591:3
	b	.LBB18_23
.Ltmp475:
.LBB18_23:
	.loc	5 1594 7                        @ libraries/STM32H7xx_HAL/STM32H7xx_HAL_Driver/Src/stm32h7xx_hal_mdma.c:1594:7
	ldr	r0, [sp, #20]
	ldr	r0, [r0]
	ldr	r0, [r0]
.Ltmp476:
	.loc	5 1594 6 is_stmt 0              @ libraries/STM32H7xx_HAL/STM32H7xx_HAL_Driver/Src/stm32h7xx_hal_mdma.c:1594:6
	lsls	r0, r0, #28
	cmp	r0, #0
	bpl	.LBB18_29
	b	.LBB18_24
.LBB18_24:
.Ltmp477:
	.loc	5 1596 8 is_stmt 1              @ libraries/STM32H7xx_HAL/STM32H7xx_HAL_Driver/Src/stm32h7xx_hal_mdma.c:1596:8
	ldr	r0, [sp, #20]
	ldr	r0, [r0]
	ldr	r0, [r0, #12]
.Ltmp478:
	.loc	5 1596 8 is_stmt 0              @ libraries/STM32H7xx_HAL/STM32H7xx_HAL_Driver/Src/stm32h7xx_hal_mdma.c:1596:8
	lsls	r0, r0, #27
	cmp	r0, #0
	bpl	.LBB18_28
	b	.LBB18_25
.LBB18_25:
.Ltmp479:
	.loc	5 1599 7 is_stmt 1              @ libraries/STM32H7xx_HAL/STM32H7xx_HAL_Driver/Src/stm32h7xx_hal_mdma.c:1599:7
	ldr	r0, [sp, #20]
	ldr	r1, [r0]
	movs	r0, #8
	str	r0, [r1, #4]
.Ltmp480:
	.loc	5 1601 10                       @ libraries/STM32H7xx_HAL/STM32H7xx_HAL_Driver/Src/stm32h7xx_hal_mdma.c:1601:10
	ldr	r0, [sp, #20]
	.loc	5 1601 17 is_stmt 0             @ libraries/STM32H7xx_HAL/STM32H7xx_HAL_Driver/Src/stm32h7xx_hal_mdma.c:1601:17
	ldr	r0, [r0, #76]
.Ltmp481:
	.loc	5 1601 10                       @ libraries/STM32H7xx_HAL/STM32H7xx_HAL_Driver/Src/stm32h7xx_hal_mdma.c:1601:10
	cbz	r0, .LBB18_27
	b	.LBB18_26
.LBB18_26:
.Ltmp482:
	.loc	5 1604 9 is_stmt 1              @ libraries/STM32H7xx_HAL/STM32H7xx_HAL_Driver/Src/stm32h7xx_hal_mdma.c:1604:9
	ldr	r0, [sp, #20]
	.loc	5 1604 16 is_stmt 0             @ libraries/STM32H7xx_HAL/STM32H7xx_HAL_Driver/Src/stm32h7xx_hal_mdma.c:1604:16
	ldr	r1, [r0, #76]
	.loc	5 1604 9                        @ libraries/STM32H7xx_HAL/STM32H7xx_HAL_Driver/Src/stm32h7xx_hal_mdma.c:1604:9
	blx	r1
	.loc	5 1605 7 is_stmt 1              @ libraries/STM32H7xx_HAL/STM32H7xx_HAL_Driver/Src/stm32h7xx_hal_mdma.c:1605:7
	b	.LBB18_27
.Ltmp483:
.LBB18_27:
	.loc	5 1606 5                        @ libraries/STM32H7xx_HAL/STM32H7xx_HAL_Driver/Src/stm32h7xx_hal_mdma.c:1606:5
	b	.LBB18_28
.Ltmp484:
.LBB18_28:
	.loc	5 1607 3                        @ libraries/STM32H7xx_HAL/STM32H7xx_HAL_Driver/Src/stm32h7xx_hal_mdma.c:1607:3
	b	.LBB18_29
.Ltmp485:
.LBB18_29:
	.loc	5 1610 7                        @ libraries/STM32H7xx_HAL/STM32H7xx_HAL_Driver/Src/stm32h7xx_hal_mdma.c:1610:7
	ldr	r0, [sp, #20]
	ldr	r0, [r0]
	ldr	r0, [r0]
.Ltmp486:
	.loc	5 1610 6 is_stmt 0              @ libraries/STM32H7xx_HAL/STM32H7xx_HAL_Driver/Src/stm32h7xx_hal_mdma.c:1610:6
	lsls	r0, r0, #29
	cmp	r0, #0
	bpl	.LBB18_35
	b	.LBB18_30
.LBB18_30:
.Ltmp487:
	.loc	5 1612 8 is_stmt 1              @ libraries/STM32H7xx_HAL/STM32H7xx_HAL_Driver/Src/stm32h7xx_hal_mdma.c:1612:8
	ldr	r0, [sp, #20]
	ldr	r0, [r0]
	ldr	r0, [r0, #12]
.Ltmp488:
	.loc	5 1612 8 is_stmt 0              @ libraries/STM32H7xx_HAL/STM32H7xx_HAL_Driver/Src/stm32h7xx_hal_mdma.c:1612:8
	lsls	r0, r0, #28
	cmp	r0, #0
	bpl	.LBB18_34
	b	.LBB18_31
.LBB18_31:
.Ltmp489:
	.loc	5 1615 7 is_stmt 1              @ libraries/STM32H7xx_HAL/STM32H7xx_HAL_Driver/Src/stm32h7xx_hal_mdma.c:1615:7
	ldr	r0, [sp, #20]
	ldr	r1, [r0]
	movs	r0, #4
	str	r0, [r1, #4]
.Ltmp490:
	.loc	5 1617 10                       @ libraries/STM32H7xx_HAL/STM32H7xx_HAL_Driver/Src/stm32h7xx_hal_mdma.c:1617:10
	ldr	r0, [sp, #20]
	.loc	5 1617 17 is_stmt 0             @ libraries/STM32H7xx_HAL/STM32H7xx_HAL_Driver/Src/stm32h7xx_hal_mdma.c:1617:17
	ldr	r0, [r0, #80]
.Ltmp491:
	.loc	5 1617 10                       @ libraries/STM32H7xx_HAL/STM32H7xx_HAL_Driver/Src/stm32h7xx_hal_mdma.c:1617:10
	cbz	r0, .LBB18_33
	b	.LBB18_32
.LBB18_32:
.Ltmp492:
	.loc	5 1620 9 is_stmt 1              @ libraries/STM32H7xx_HAL/STM32H7xx_HAL_Driver/Src/stm32h7xx_hal_mdma.c:1620:9
	ldr	r0, [sp, #20]
	.loc	5 1620 16 is_stmt 0             @ libraries/STM32H7xx_HAL/STM32H7xx_HAL_Driver/Src/stm32h7xx_hal_mdma.c:1620:16
	ldr	r1, [r0, #80]
	.loc	5 1620 9                        @ libraries/STM32H7xx_HAL/STM32H7xx_HAL_Driver/Src/stm32h7xx_hal_mdma.c:1620:9
	blx	r1
	.loc	5 1621 7 is_stmt 1              @ libraries/STM32H7xx_HAL/STM32H7xx_HAL_Driver/Src/stm32h7xx_hal_mdma.c:1621:7
	b	.LBB18_33
.Ltmp493:
.LBB18_33:
	.loc	5 1622 5                        @ libraries/STM32H7xx_HAL/STM32H7xx_HAL_Driver/Src/stm32h7xx_hal_mdma.c:1622:5
	b	.LBB18_34
.Ltmp494:
.LBB18_34:
	.loc	5 1623 3                        @ libraries/STM32H7xx_HAL/STM32H7xx_HAL_Driver/Src/stm32h7xx_hal_mdma.c:1623:3
	b	.LBB18_35
.Ltmp495:
.LBB18_35:
	.loc	5 1626 7                        @ libraries/STM32H7xx_HAL/STM32H7xx_HAL_Driver/Src/stm32h7xx_hal_mdma.c:1626:7
	ldr	r0, [sp, #20]
	ldr	r0, [r0]
	ldr	r0, [r0]
.Ltmp496:
	.loc	5 1626 6 is_stmt 0              @ libraries/STM32H7xx_HAL/STM32H7xx_HAL_Driver/Src/stm32h7xx_hal_mdma.c:1626:6
	lsls	r0, r0, #30
	cmp	r0, #0
	bpl	.LBB18_49
	b	.LBB18_36
.LBB18_36:
.Ltmp497:
	.loc	5 1628 8 is_stmt 1              @ libraries/STM32H7xx_HAL/STM32H7xx_HAL_Driver/Src/stm32h7xx_hal_mdma.c:1628:8
	ldr	r0, [sp, #20]
	ldr	r0, [r0]
	ldr	r0, [r0, #12]
.Ltmp498:
	.loc	5 1628 8 is_stmt 0              @ libraries/STM32H7xx_HAL/STM32H7xx_HAL_Driver/Src/stm32h7xx_hal_mdma.c:1628:8
	lsls	r0, r0, #29
	cmp	r0, #0
	bpl	.LBB18_48
	b	.LBB18_37
.LBB18_37:
.Ltmp499:
	.loc	5 1631 7 is_stmt 1              @ libraries/STM32H7xx_HAL/STM32H7xx_HAL_Driver/Src/stm32h7xx_hal_mdma.c:1631:7
	ldr	r0, [sp, #20]
	ldr	r1, [r0]
	ldr	r0, [r1, #12]
	bic	r0, r0, #62
	str	r0, [r1, #12]
.Ltmp500:
	.loc	5 1633 34                       @ libraries/STM32H7xx_HAL/STM32H7xx_HAL_Driver/Src/stm32h7xx_hal_mdma.c:1633:34
	ldr	r0, [sp, #20]
	.loc	5 1633 41 is_stmt 0             @ libraries/STM32H7xx_HAL/STM32H7xx_HAL_Driver/Src/stm32h7xx_hal_mdma.c:1633:41
	ldrb.w	r0, [r0, #61]
.Ltmp501:
	.loc	5 1633 10                       @ libraries/STM32H7xx_HAL/STM32H7xx_HAL_Driver/Src/stm32h7xx_hal_mdma.c:1633:10
	cmp	r0, #4
	bne	.LBB18_43
	b	.LBB18_38
.LBB18_38:
.Ltmp502:
	.loc	5 1636 9 is_stmt 1              @ libraries/STM32H7xx_HAL/STM32H7xx_HAL_Driver/Src/stm32h7xx_hal_mdma.c:1636:9
	b	.LBB18_39
.LBB18_39:
.Ltmp503:
	.loc	5 1636 9 is_stmt 0              @ libraries/STM32H7xx_HAL/STM32H7xx_HAL_Driver/Src/stm32h7xx_hal_mdma.c:1636:9
	ldr	r1, [sp, #20]
	movs	r0, #0
	strb.w	r0, [r1, #60]
	b	.LBB18_40
.Ltmp504:
.LBB18_40:
	.loc	5 1639 9 is_stmt 1              @ libraries/STM32H7xx_HAL/STM32H7xx_HAL_Driver/Src/stm32h7xx_hal_mdma.c:1639:9
	ldr	r1, [sp, #20]
	movs	r0, #1
	.loc	5 1639 22 is_stmt 0             @ libraries/STM32H7xx_HAL/STM32H7xx_HAL_Driver/Src/stm32h7xx_hal_mdma.c:1639:22
	strb.w	r0, [r1, #61]
.Ltmp505:
	.loc	5 1641 12 is_stmt 1             @ libraries/STM32H7xx_HAL/STM32H7xx_HAL_Driver/Src/stm32h7xx_hal_mdma.c:1641:12
	ldr	r0, [sp, #20]
	.loc	5 1641 19 is_stmt 0             @ libraries/STM32H7xx_HAL/STM32H7xx_HAL_Driver/Src/stm32h7xx_hal_mdma.c:1641:19
	ldr	r0, [r0, #88]
.Ltmp506:
	.loc	5 1641 12                       @ libraries/STM32H7xx_HAL/STM32H7xx_HAL_Driver/Src/stm32h7xx_hal_mdma.c:1641:12
	cbz	r0, .LBB18_42
	b	.LBB18_41
.LBB18_41:
.Ltmp507:
	.loc	5 1643 11 is_stmt 1             @ libraries/STM32H7xx_HAL/STM32H7xx_HAL_Driver/Src/stm32h7xx_hal_mdma.c:1643:11
	ldr	r0, [sp, #20]
	.loc	5 1643 18 is_stmt 0             @ libraries/STM32H7xx_HAL/STM32H7xx_HAL_Driver/Src/stm32h7xx_hal_mdma.c:1643:18
	ldr	r1, [r0, #88]
	.loc	5 1643 11                       @ libraries/STM32H7xx_HAL/STM32H7xx_HAL_Driver/Src/stm32h7xx_hal_mdma.c:1643:11
	blx	r1
	.loc	5 1644 9 is_stmt 1              @ libraries/STM32H7xx_HAL/STM32H7xx_HAL_Driver/Src/stm32h7xx_hal_mdma.c:1644:9
	b	.LBB18_42
.Ltmp508:
.LBB18_42:
	.loc	5 1645 9                        @ libraries/STM32H7xx_HAL/STM32H7xx_HAL_Driver/Src/stm32h7xx_hal_mdma.c:1645:9
	b	.LBB18_63
.Ltmp509:
.LBB18_43:
	.loc	5 1649 7                        @ libraries/STM32H7xx_HAL/STM32H7xx_HAL_Driver/Src/stm32h7xx_hal_mdma.c:1649:7
	ldr	r0, [sp, #20]
	ldr	r1, [r0]
	movs	r0, #2
	str	r0, [r1, #4]
	.loc	5 1652 7                        @ libraries/STM32H7xx_HAL/STM32H7xx_HAL_Driver/Src/stm32h7xx_hal_mdma.c:1652:7
	b	.LBB18_44
.LBB18_44:
.Ltmp510:
	.loc	5 1652 7 is_stmt 0              @ libraries/STM32H7xx_HAL/STM32H7xx_HAL_Driver/Src/stm32h7xx_hal_mdma.c:1652:7
	ldr	r1, [sp, #20]
	movs	r0, #0
	strb.w	r0, [r1, #60]
	b	.LBB18_45
.Ltmp511:
.LBB18_45:
	.loc	5 1655 7 is_stmt 1              @ libraries/STM32H7xx_HAL/STM32H7xx_HAL_Driver/Src/stm32h7xx_hal_mdma.c:1655:7
	ldr	r1, [sp, #20]
	movs	r0, #1
	.loc	5 1655 20 is_stmt 0             @ libraries/STM32H7xx_HAL/STM32H7xx_HAL_Driver/Src/stm32h7xx_hal_mdma.c:1655:20
	strb.w	r0, [r1, #61]
.Ltmp512:
	.loc	5 1657 10 is_stmt 1             @ libraries/STM32H7xx_HAL/STM32H7xx_HAL_Driver/Src/stm32h7xx_hal_mdma.c:1657:10
	ldr	r0, [sp, #20]
	.loc	5 1657 17 is_stmt 0             @ libraries/STM32H7xx_HAL/STM32H7xx_HAL_Driver/Src/stm32h7xx_hal_mdma.c:1657:17
	ldr	r0, [r0, #68]
.Ltmp513:
	.loc	5 1657 10                       @ libraries/STM32H7xx_HAL/STM32H7xx_HAL_Driver/Src/stm32h7xx_hal_mdma.c:1657:10
	cbz	r0, .LBB18_47
	b	.LBB18_46
.LBB18_46:
.Ltmp514:
	.loc	5 1660 9 is_stmt 1              @ libraries/STM32H7xx_HAL/STM32H7xx_HAL_Driver/Src/stm32h7xx_hal_mdma.c:1660:9
	ldr	r0, [sp, #20]
	.loc	5 1660 16 is_stmt 0             @ libraries/STM32H7xx_HAL/STM32H7xx_HAL_Driver/Src/stm32h7xx_hal_mdma.c:1660:16
	ldr	r1, [r0, #68]
	.loc	5 1660 9                        @ libraries/STM32H7xx_HAL/STM32H7xx_HAL_Driver/Src/stm32h7xx_hal_mdma.c:1660:9
	blx	r1
	.loc	5 1661 7 is_stmt 1              @ libraries/STM32H7xx_HAL/STM32H7xx_HAL_Driver/Src/stm32h7xx_hal_mdma.c:1661:7
	b	.LBB18_47
.Ltmp515:
.LBB18_47:
	.loc	5 1662 5                        @ libraries/STM32H7xx_HAL/STM32H7xx_HAL_Driver/Src/stm32h7xx_hal_mdma.c:1662:5
	b	.LBB18_48
.Ltmp516:
.LBB18_48:
	.loc	5 1663 3                        @ libraries/STM32H7xx_HAL/STM32H7xx_HAL_Driver/Src/stm32h7xx_hal_mdma.c:1663:3
	b	.LBB18_49
.Ltmp517:
.LBB18_49:
	.loc	5 1666 6                        @ libraries/STM32H7xx_HAL/STM32H7xx_HAL_Driver/Src/stm32h7xx_hal_mdma.c:1666:6
	ldr	r0, [sp, #20]
	.loc	5 1666 13 is_stmt 0             @ libraries/STM32H7xx_HAL/STM32H7xx_HAL_Driver/Src/stm32h7xx_hal_mdma.c:1666:13
	ldr	r0, [r0, #104]
.Ltmp518:
	.loc	5 1666 6                        @ libraries/STM32H7xx_HAL/STM32H7xx_HAL_Driver/Src/stm32h7xx_hal_mdma.c:1666:6
	cbz	r0, .LBB18_63
	b	.LBB18_50
.LBB18_50:
.Ltmp519:
	.loc	5 1668 5 is_stmt 1              @ libraries/STM32H7xx_HAL/STM32H7xx_HAL_Driver/Src/stm32h7xx_hal_mdma.c:1668:5
	ldr	r1, [sp, #20]
	movs	r0, #4
	.loc	5 1668 18 is_stmt 0             @ libraries/STM32H7xx_HAL/STM32H7xx_HAL_Driver/Src/stm32h7xx_hal_mdma.c:1668:18
	strb.w	r0, [r1, #61]
	.loc	5 1671 5 is_stmt 1              @ libraries/STM32H7xx_HAL/STM32H7xx_HAL_Driver/Src/stm32h7xx_hal_mdma.c:1671:5
	ldr	r0, [sp, #20]
	ldr	r1, [r0]
	ldr	r0, [r1, #12]
	bic	r0, r0, #1
	str	r0, [r1, #12]
	.loc	5 1673 5                        @ libraries/STM32H7xx_HAL/STM32H7xx_HAL_Driver/Src/stm32h7xx_hal_mdma.c:1673:5
	b	.LBB18_51
.LBB18_51:                              @ =>This Inner Loop Header: Depth=1
.Ltmp520:
	.loc	5 1675 11                       @ libraries/STM32H7xx_HAL/STM32H7xx_HAL_Driver/Src/stm32h7xx_hal_mdma.c:1675:11
	ldr	r0, [sp, #16]
	adds	r0, #1
	str	r0, [sp, #16]
	.loc	5 1675 21 is_stmt 0             @ libraries/STM32H7xx_HAL/STM32H7xx_HAL_Driver/Src/stm32h7xx_hal_mdma.c:1675:21
	ldr	r1, [sp, #12]
.Ltmp521:
	.loc	5 1675 11                       @ libraries/STM32H7xx_HAL/STM32H7xx_HAL_Driver/Src/stm32h7xx_hal_mdma.c:1675:11
	cmp	r0, r1
	bls	.LBB18_53
	b	.LBB18_52
.LBB18_52:
.Ltmp522:
	.loc	5 1677 9 is_stmt 1              @ libraries/STM32H7xx_HAL/STM32H7xx_HAL_Driver/Src/stm32h7xx_hal_mdma.c:1677:9
	b	.LBB18_55
.Ltmp523:
.LBB18_53:                              @   in Loop: Header=BB18_51 Depth=1
	.loc	5 1679 5                        @ libraries/STM32H7xx_HAL/STM32H7xx_HAL_Driver/Src/stm32h7xx_hal_mdma.c:1679:5
	b	.LBB18_54
.Ltmp524:
.LBB18_54:                              @   in Loop: Header=BB18_51 Depth=1
	.loc	5 1680 12                       @ libraries/STM32H7xx_HAL/STM32H7xx_HAL_Driver/Src/stm32h7xx_hal_mdma.c:1680:12
	ldr	r0, [sp, #20]
	.loc	5 1680 19 is_stmt 0             @ libraries/STM32H7xx_HAL/STM32H7xx_HAL_Driver/Src/stm32h7xx_hal_mdma.c:1680:19
	ldr	r0, [r0]
	.loc	5 1680 29                       @ libraries/STM32H7xx_HAL/STM32H7xx_HAL_Driver/Src/stm32h7xx_hal_mdma.c:1680:29
	ldr	r0, [r0, #12]
.Ltmp525:
	.loc	5 1679 5 is_stmt 1              @ libraries/STM32H7xx_HAL/STM32H7xx_HAL_Driver/Src/stm32h7xx_hal_mdma.c:1679:5
	lsls	r0, r0, #31
	cmp	r0, #0
	bne	.LBB18_51
	b	.LBB18_55
.Ltmp526:
.LBB18_55:
	.loc	5 1683 5                        @ libraries/STM32H7xx_HAL/STM32H7xx_HAL_Driver/Src/stm32h7xx_hal_mdma.c:1683:5
	b	.LBB18_56
.LBB18_56:
.Ltmp527:
	.loc	5 1683 5 is_stmt 0              @ libraries/STM32H7xx_HAL/STM32H7xx_HAL_Driver/Src/stm32h7xx_hal_mdma.c:1683:5
	ldr	r1, [sp, #20]
	movs	r0, #0
	strb.w	r0, [r1, #60]
	b	.LBB18_57
.Ltmp528:
.LBB18_57:
	.loc	5 1685 9 is_stmt 1              @ libraries/STM32H7xx_HAL/STM32H7xx_HAL_Driver/Src/stm32h7xx_hal_mdma.c:1685:9
	ldr	r0, [sp, #20]
	.loc	5 1685 16 is_stmt 0             @ libraries/STM32H7xx_HAL/STM32H7xx_HAL_Driver/Src/stm32h7xx_hal_mdma.c:1685:16
	ldr	r0, [r0]
	.loc	5 1685 26                       @ libraries/STM32H7xx_HAL/STM32H7xx_HAL_Driver/Src/stm32h7xx_hal_mdma.c:1685:26
	ldr	r0, [r0, #12]
.Ltmp529:
	.loc	5 1685 8                        @ libraries/STM32H7xx_HAL/STM32H7xx_HAL_Driver/Src/stm32h7xx_hal_mdma.c:1685:8
	lsls	r0, r0, #31
	cbz	r0, .LBB18_59
	b	.LBB18_58
.LBB18_58:
.Ltmp530:
	.loc	5 1688 7 is_stmt 1              @ libraries/STM32H7xx_HAL/STM32H7xx_HAL_Driver/Src/stm32h7xx_hal_mdma.c:1688:7
	ldr	r1, [sp, #20]
	movs	r0, #3
	.loc	5 1688 20 is_stmt 0             @ libraries/STM32H7xx_HAL/STM32H7xx_HAL_Driver/Src/stm32h7xx_hal_mdma.c:1688:20
	strb.w	r0, [r1, #61]
	.loc	5 1689 5 is_stmt 1              @ libraries/STM32H7xx_HAL/STM32H7xx_HAL_Driver/Src/stm32h7xx_hal_mdma.c:1689:5
	b	.LBB18_60
.Ltmp531:
.LBB18_59:
	.loc	5 1693 7                        @ libraries/STM32H7xx_HAL/STM32H7xx_HAL_Driver/Src/stm32h7xx_hal_mdma.c:1693:7
	ldr	r1, [sp, #20]
	movs	r0, #1
	.loc	5 1693 20 is_stmt 0             @ libraries/STM32H7xx_HAL/STM32H7xx_HAL_Driver/Src/stm32h7xx_hal_mdma.c:1693:20
	strb.w	r0, [r1, #61]
	b	.LBB18_60
.Ltmp532:
.LBB18_60:
	.loc	5 1697 9 is_stmt 1              @ libraries/STM32H7xx_HAL/STM32H7xx_HAL_Driver/Src/stm32h7xx_hal_mdma.c:1697:9
	ldr	r0, [sp, #20]
	.loc	5 1697 16 is_stmt 0             @ libraries/STM32H7xx_HAL/STM32H7xx_HAL_Driver/Src/stm32h7xx_hal_mdma.c:1697:16
	ldr	r0, [r0, #84]
.Ltmp533:
	.loc	5 1697 9                        @ libraries/STM32H7xx_HAL/STM32H7xx_HAL_Driver/Src/stm32h7xx_hal_mdma.c:1697:9
	cbz	r0, .LBB18_62
	b	.LBB18_61
.LBB18_61:
.Ltmp534:
	.loc	5 1700 7 is_stmt 1              @ libraries/STM32H7xx_HAL/STM32H7xx_HAL_Driver/Src/stm32h7xx_hal_mdma.c:1700:7
	ldr	r0, [sp, #20]
	.loc	5 1700 14 is_stmt 0             @ libraries/STM32H7xx_HAL/STM32H7xx_HAL_Driver/Src/stm32h7xx_hal_mdma.c:1700:14
	ldr	r1, [r0, #84]
	.loc	5 1700 7                        @ libraries/STM32H7xx_HAL/STM32H7xx_HAL_Driver/Src/stm32h7xx_hal_mdma.c:1700:7
	blx	r1
	.loc	5 1701 5 is_stmt 1              @ libraries/STM32H7xx_HAL/STM32H7xx_HAL_Driver/Src/stm32h7xx_hal_mdma.c:1701:5
	b	.LBB18_62
.Ltmp535:
.LBB18_62:
	.loc	5 1702 3                        @ libraries/STM32H7xx_HAL/STM32H7xx_HAL_Driver/Src/stm32h7xx_hal_mdma.c:1702:3
	b	.LBB18_63
.Ltmp536:
.LBB18_63:
	.loc	5 1703 1                        @ libraries/STM32H7xx_HAL/STM32H7xx_HAL_Driver/Src/stm32h7xx_hal_mdma.c:1703:1
	add	sp, #24
	pop	{r7, pc}
.Ltmp537:
.Lfunc_end18:
	.size	HAL_MDMA_IRQHandler, .Lfunc_end18-HAL_MDMA_IRQHandler
	.cfi_endproc
	.cantunwind
	.fnend
                                        @ -- End function
	.section	.text.HAL_MDMA_GetState,"ax",%progbits
	.hidden	HAL_MDMA_GetState               @ -- Begin function HAL_MDMA_GetState
	.globl	HAL_MDMA_GetState
	.p2align	3
	.type	HAL_MDMA_GetState,%function
	.code	16                              @ @HAL_MDMA_GetState
	.thumb_func
HAL_MDMA_GetState:
.Lfunc_begin19:
	.loc	5 1731 0                        @ libraries/STM32H7xx_HAL/STM32H7xx_HAL_Driver/Src/stm32h7xx_hal_mdma.c:1731:0
	.fnstart
	.cfi_startproc
@ %bb.0:
	.pad	#4
	sub	sp, #4
	.cfi_def_cfa_offset 4
	str	r0, [sp]
.Ltmp538:
	.loc	5 1732 10 prologue_end          @ libraries/STM32H7xx_HAL/STM32H7xx_HAL_Driver/Src/stm32h7xx_hal_mdma.c:1732:10
	ldr	r0, [sp]
	.loc	5 1732 17 is_stmt 0             @ libraries/STM32H7xx_HAL/STM32H7xx_HAL_Driver/Src/stm32h7xx_hal_mdma.c:1732:17
	ldrb.w	r0, [r0, #61]
	.loc	5 1732 3                        @ libraries/STM32H7xx_HAL/STM32H7xx_HAL_Driver/Src/stm32h7xx_hal_mdma.c:1732:3
	add	sp, #4
	bx	lr
.Ltmp539:
.Lfunc_end19:
	.size	HAL_MDMA_GetState, .Lfunc_end19-HAL_MDMA_GetState
	.cfi_endproc
	.cantunwind
	.fnend
                                        @ -- End function
	.section	.text.HAL_MDMA_GetError,"ax",%progbits
	.hidden	HAL_MDMA_GetError               @ -- Begin function HAL_MDMA_GetError
	.globl	HAL_MDMA_GetError
	.p2align	3
	.type	HAL_MDMA_GetError,%function
	.code	16                              @ @HAL_MDMA_GetError
	.thumb_func
HAL_MDMA_GetError:
.Lfunc_begin20:
	.loc	5 1742 0 is_stmt 1              @ libraries/STM32H7xx_HAL/STM32H7xx_HAL_Driver/Src/stm32h7xx_hal_mdma.c:1742:0
	.fnstart
	.cfi_startproc
@ %bb.0:
	.pad	#4
	sub	sp, #4
	.cfi_def_cfa_offset 4
	str	r0, [sp]
.Ltmp540:
	.loc	5 1743 10 prologue_end          @ libraries/STM32H7xx_HAL/STM32H7xx_HAL_Driver/Src/stm32h7xx_hal_mdma.c:1743:10
	ldr	r0, [sp]
	.loc	5 1743 17 is_stmt 0             @ libraries/STM32H7xx_HAL/STM32H7xx_HAL_Driver/Src/stm32h7xx_hal_mdma.c:1743:17
	ldr	r0, [r0, #104]
	.loc	5 1743 3                        @ libraries/STM32H7xx_HAL/STM32H7xx_HAL_Driver/Src/stm32h7xx_hal_mdma.c:1743:3
	add	sp, #4
	bx	lr
.Ltmp541:
.Lfunc_end20:
	.size	HAL_MDMA_GetError, .Lfunc_end20-HAL_MDMA_GetError
	.cfi_endproc
	.cantunwind
	.fnend
                                        @ -- End function
	.section	".note.GNU-stack","",%progbits
	.eabi_attribute	30, 6	@ Tag_ABI_optimization_goals
	.ARM_attribute	16, 1	@ Tag_AV_eba