	.text
	.syntax unified
	.eabi_attribute	67, "2.09"	@ Tag_conformance
	.cpu	cortex-m7
	.eabi_attribute	6, 13	@ Tag_CPU_arch
	.eabi_attribute	7, 77	@ Tag_CPU_arch_profile
	.eabi_attribute	8, 0	@ Tag_ARM_ISA_use
	.eabi_attribute	9, 2	@ Tag_THUMB_ISA_use
	.fpu	fpv5-d16
	.eabi_attribute	36, 1	@ Tag_FP_HP_extension
	.eabi_attribute	34, 1	@ Tag_CPU_unaligned_access
	.eabi_attribute	17, 1	@ Tag_ABI_PCS_GOT_use
	.eabi_attribute	20, 2	@ Tag_ABI_FP_denormal
	.eabi_attribute	21, 0	@ Tag_ABI_FP_exceptions
	.eabi_attribute	23, 1	@ Tag_ABI_FP_number_model
	.eabi_attribute	24, 1	@ Tag_ABI_align_needed
	.eabi_attribute	25, 1	@ Tag_ABI_align_preserved
	.eabi_attribute	28, 1	@ Tag_ABI_VFP_args
	.eabi_attribute	38, 1	@ Tag_ABI_FP_16bit_format
	.eabi_attribute	18, 2	@ Tag_ABI_PCS_wchar_t
	.eabi_attribute	26, 1	@ Tag_ABI_enum_size
	.eabi_attribute	14, 0	@ Tag_ABI_PCS_R9_use
	.file	"stm32h7xx_hal_dma.c"
	.file	1 "D:\\Keil_v5\\ARM\\ARMCLANG\\Bin\\..\\include" "stdint.h"
	.file	2 "E:\\Smart-access-control\\Hardware\\CODE" "libraries/STM32H7xx_HAL/STM32H7xx_HAL_Driver/Src/stm32h7xx_hal_dma.c"
	.file	3 "E:\\Smart-access-control\\Hardware\\CODE" "libraries/STM32H7xx_HAL/STM32H7xx_HAL_Driver/Inc/stm32h7xx_hal_def.h"
	.file	4 "E:\\Smart-access-control\\Hardware\\CODE" "libraries/STM32H7xx_HAL/STM32H7xx_HAL_Driver/Inc\\stm32h7xx_hal_dma.h"
	.file	5 "E:\\Smart-access-control\\Hardware\\CODE" "libraries/STM32H7xx_HAL/CMSIS/Device/ST/STM32H7xx/Include/stm32h750xx.h"
	.section	.text.HAL_DMA_Init,"ax",%progbits
	.hidden	HAL_DMA_Init                    @ -- Begin function HAL_DMA_Init
	.globl	HAL_DMA_Init
	.p2align	3
	.type	HAL_DMA_Init,%function
	.code	16                              @ @HAL_DMA_Init
	.thumb_func
HAL_DMA_Init:
.Lfunc_begin0:
	.loc	2 199 0                         @ libraries/STM32H7xx_HAL/STM32H7xx_HAL_Driver/Src/stm32h7xx_hal_dma.c:199:0
	.fnstart
	.cfi_sections .debug_frame
	.cfi_startproc
@ %bb.0:
	@DEBUG_VALUE: HAL_DMA_Init:hdma <- $r0
	.save	{r4, r5, r6, r7, r8, lr}
	push.w	{r4, r5, r6, r7, r8, lr}
	.cfi_def_cfa_offset 24
	.cfi_offset lr, -4
	.cfi_offset r8, -8
	.cfi_offset r7, -12
	.cfi_offset r6, -16
	.cfi_offset r5, -20
	.cfi_offset r4, -24
	mov	r4, r0
.Ltmp0:
	@DEBUG_VALUE: HAL_DMA_Init:hdma <- $r4
	@DEBUG_VALUE: HAL_DMA_Init:hdma <- $r4
	.loc	2 201 24 prologue_end           @ libraries/STM32H7xx_HAL/STM32H7xx_HAL_Driver/Src/stm32h7xx_hal_dma.c:201:24
	bl	HAL_GetTick
.Ltmp1:
	@DEBUG_VALUE: HAL_DMA_Init:tickstart <- $r0
	.loc	2 206 6                         @ libraries/STM32H7xx_HAL/STM32H7xx_HAL_Driver/Src/stm32h7xx_hal_dma.c:206:6
	cbz	r4, .LBB0_7
.Ltmp2:
@ %bb.1:
	@DEBUG_VALUE: HAL_DMA_Init:hdma <- $r4
	@DEBUG_VALUE: HAL_DMA_Init:tickstart <- $r0
	.loc	2 0 6 is_stmt 0                 @ libraries/STM32H7xx_HAL/STM32H7xx_HAL_Driver/Src/stm32h7xx_hal_dma.c:0:6
	movw	r1, #1135
	mov	r5, r0
.Ltmp3:
	@DEBUG_VALUE: HAL_DMA_Init:tickstart <- $r5
	@DEBUG_VALUE: HAL_DMA_Init:tickstart <- $r5
	.loc	2 221 6 is_stmt 1               @ libraries/STM32H7xx_HAL/STM32H7xx_HAL_Driver/Src/stm32h7xx_hal_dma.c:221:6
	ldr	r0, [r4]
	movt	r1, #16386
	cmp	r0, r1
	bgt	.LBB0_8
.Ltmp4:
@ %bb.2:
	@DEBUG_VALUE: HAL_DMA_Init:tickstart <- $r5
	@DEBUG_VALUE: HAL_DMA_Init:hdma <- $r4
	.loc	2 0 6 is_stmt 0                 @ libraries/STM32H7xx_HAL/STM32H7xx_HAL_Driver/Src/stm32h7xx_hal_dma.c:0:6
	movs	r2, #159
	movt	r2, #16386
	.loc	2 221 6                         @ libraries/STM32H7xx_HAL/STM32H7xx_HAL_Driver/Src/stm32h7xx_hal_dma.c:221:6
	cmp	r0, r2
	bgt	.LBB0_13
.Ltmp5:
@ %bb.3:
	@DEBUG_VALUE: HAL_DMA_Init:tickstart <- $r5
	@DEBUG_VALUE: HAL_DMA_Init:hdma <- $r4
	.loc	2 0 6                           @ libraries/STM32H7xx_HAL/STM32H7xx_HAL_Driver/Src/stm32h7xx_hal_dma.c:0:6
	movs	r2, #87
	movt	r2, #16386
	.loc	2 221 6                         @ libraries/STM32H7xx_HAL/STM32H7xx_HAL_Driver/Src/stm32h7xx_hal_dma.c:221:6
	cmp	r0, r2
	bgt	.LBB0_21
.Ltmp6:
@ %bb.4:
	@DEBUG_VALUE: HAL_DMA_Init:tickstart <- $r5
	@DEBUG_VALUE: HAL_DMA_Init:hdma <- $r4
	.loc	2 0 6                           @ libraries/STM32H7xx_HAL/STM32H7xx_HAL_Driver/Src/stm32h7xx_hal_dma.c:0:6
	movs	r2, #16
	movt	r2, #16386
	.loc	2 221 6                         @ libraries/STM32H7xx_HAL/STM32H7xx_HAL_Driver/Src/stm32h7xx_hal_dma.c:221:6
	cmp	r0, r2
	beq	.LBB0_31
.Ltmp7:
@ %bb.5:
	@DEBUG_VALUE: HAL_DMA_Init:tickstart <- $r5
	@DEBUG_VALUE: HAL_DMA_Init:hdma <- $r4
	.loc	2 0 6                           @ libraries/STM32H7xx_HAL/STM32H7xx_HAL_Driver/Src/stm32h7xx_hal_dma.c:0:6
	movs	r2, #40
	movt	r2, #16386
	.loc	2 221 6                         @ libraries/STM32H7xx_HAL/STM32H7xx_HAL_Driver/Src/stm32h7xx_hal_dma.c:221:6
	cmp	r0, r2
	beq	.LBB0_31
.Ltmp8:
@ %bb.6:
	@DEBUG_VALUE: HAL_DMA_Init:tickstart <- $r5
	@DEBUG_VALUE: HAL_DMA_Init:hdma <- $r4
	.loc	2 0 6                           @ libraries/STM32H7xx_HAL/STM32H7xx_HAL_Driver/Src/stm32h7xx_hal_dma.c:0:6
	movs	r2, #64
	b	.LBB0_30
.Ltmp9:
.LBB0_7:
	@DEBUG_VALUE: HAL_DMA_Init:hdma <- $r4
	@DEBUG_VALUE: HAL_DMA_Init:tickstart <- $r0
	movs	r0, #1
.Ltmp10:
	.loc	2 422 1 is_stmt 1               @ libraries/STM32H7xx_HAL/STM32H7xx_HAL_Driver/Src/stm32h7xx_hal_dma.c:422:1
	pop.w	{r4, r5, r6, r7, r8, pc}
.Ltmp11:
.LBB0_8:
	@DEBUG_VALUE: HAL_DMA_Init:tickstart <- $r5
	@DEBUG_VALUE: HAL_DMA_Init:hdma <- $r4
	.loc	2 0 1 is_stmt 0                 @ libraries/STM32H7xx_HAL/STM32H7xx_HAL_Driver/Src/stm32h7xx_hal_dma.c:0:1
	movw	r2, #21551
	movt	r2, #22530
.Ltmp12:
	.loc	2 221 6 is_stmt 1               @ libraries/STM32H7xx_HAL/STM32H7xx_HAL_Driver/Src/stm32h7xx_hal_dma.c:221:6
	cmp	r0, r2
	bgt	.LBB0_17
.Ltmp13:
@ %bb.9:
	@DEBUG_VALUE: HAL_DMA_Init:tickstart <- $r5
	@DEBUG_VALUE: HAL_DMA_Init:hdma <- $r4
	.loc	2 0 6 is_stmt 0                 @ libraries/STM32H7xx_HAL/STM32H7xx_HAL_Driver/Src/stm32h7xx_hal_dma.c:0:6
	movw	r2, #1207
	movt	r2, #16386
	.loc	2 221 6                         @ libraries/STM32H7xx_HAL/STM32H7xx_HAL_Driver/Src/stm32h7xx_hal_dma.c:221:6
	cmp	r0, r2
	bgt	.LBB0_24
.Ltmp14:
@ %bb.10:
	@DEBUG_VALUE: HAL_DMA_Init:tickstart <- $r5
	@DEBUG_VALUE: HAL_DMA_Init:hdma <- $r4
	.loc	2 0 6                           @ libraries/STM32H7xx_HAL/STM32H7xx_HAL_Driver/Src/stm32h7xx_hal_dma.c:0:6
	movw	r2, #1136
	movt	r2, #16386
	.loc	2 221 6                         @ libraries/STM32H7xx_HAL/STM32H7xx_HAL_Driver/Src/stm32h7xx_hal_dma.c:221:6
	cmp	r0, r2
	beq	.LBB0_31
.Ltmp15:
@ %bb.11:
	@DEBUG_VALUE: HAL_DMA_Init:tickstart <- $r5
	@DEBUG_VALUE: HAL_DMA_Init:hdma <- $r4
	.loc	2 0 6                           @ libraries/STM32H7xx_HAL/STM32H7xx_HAL_Driver/Src/stm32h7xx_hal_dma.c:0:6
	movw	r2, #1160
	movt	r2, #16386
	.loc	2 221 6                         @ libraries/STM32H7xx_HAL/STM32H7xx_HAL_Driver/Src/stm32h7xx_hal_dma.c:221:6
	cmp	r0, r2
	beq	.LBB0_31
.Ltmp16:
@ %bb.12:
	@DEBUG_VALUE: HAL_DMA_Init:tickstart <- $r5
	@DEBUG_VALUE: HAL_DMA_Init:hdma <- $r4
	.loc	2 0 6                           @ libraries/STM32H7xx_HAL/STM32H7xx_HAL_Driver/Src/stm32h7xx_hal_dma.c:0:6
	movw	r2, #1184
	b	.LBB0_30
.Ltmp17:
.LBB0_13:
	@DEBUG_VALUE: HAL_DMA_Init:tickstart <- $r5
	@DEBUG_VALUE: HAL_DMA_Init:hdma <- $r4
	movw	r2, #1063
	movt	r2, #16386
	.loc	2 221 6                         @ libraries/STM32H7xx_HAL/STM32H7xx_HAL_Driver/Src/stm32h7xx_hal_dma.c:221:6
	cmp	r0, r2
	bgt	.LBB0_27
.Ltmp18:
@ %bb.14:
	@DEBUG_VALUE: HAL_DMA_Init:tickstart <- $r5
	@DEBUG_VALUE: HAL_DMA_Init:hdma <- $r4
	.loc	2 0 6                           @ libraries/STM32H7xx_HAL/STM32H7xx_HAL_Driver/Src/stm32h7xx_hal_dma.c:0:6
	movs	r2, #160
	movt	r2, #16386
	.loc	2 221 6                         @ libraries/STM32H7xx_HAL/STM32H7xx_HAL_Driver/Src/stm32h7xx_hal_dma.c:221:6
	cmp	r0, r2
	beq	.LBB0_31
.Ltmp19:
@ %bb.15:
	@DEBUG_VALUE: HAL_DMA_Init:tickstart <- $r5
	@DEBUG_VALUE: HAL_DMA_Init:hdma <- $r4
	.loc	2 0 6                           @ libraries/STM32H7xx_HAL/STM32H7xx_HAL_Driver/Src/stm32h7xx_hal_dma.c:0:6
	movs	r2, #184
	movt	r2, #16386
	.loc	2 221 6                         @ libraries/STM32H7xx_HAL/STM32H7xx_HAL_Driver/Src/stm32h7xx_hal_dma.c:221:6
	cmp	r0, r2
	beq	.LBB0_31
.Ltmp20:
@ %bb.16:
	@DEBUG_VALUE: HAL_DMA_Init:tickstart <- $r5
	@DEBUG_VALUE: HAL_DMA_Init:hdma <- $r4
	.loc	2 0 6                           @ libraries/STM32H7xx_HAL/STM32H7xx_HAL_Driver/Src/stm32h7xx_hal_dma.c:0:6
	movw	r2, #1040
	b	.LBB0_30
.Ltmp21:
.LBB0_17:
	@DEBUG_VALUE: HAL_DMA_Init:tickstart <- $r5
	@DEBUG_VALUE: HAL_DMA_Init:hdma <- $r4
	movw	r1, #21611
	movt	r1, #22530
	.loc	2 221 6                         @ libraries/STM32H7xx_HAL/STM32H7xx_HAL_Driver/Src/stm32h7xx_hal_dma.c:221:6
	cmp	r0, r1
	bgt.w	.LBB0_46
.Ltmp22:
@ %bb.18:
	@DEBUG_VALUE: HAL_DMA_Init:tickstart <- $r5
	@DEBUG_VALUE: HAL_DMA_Init:hdma <- $r4
	.loc	2 0 6                           @ libraries/STM32H7xx_HAL/STM32H7xx_HAL_Driver/Src/stm32h7xx_hal_dma.c:0:6
	movw	r1, #21552
	movt	r1, #22530
	.loc	2 221 6                         @ libraries/STM32H7xx_HAL/STM32H7xx_HAL_Driver/Src/stm32h7xx_hal_dma.c:221:6
	cmp	r0, r1
	beq.w	.LBB0_50
.Ltmp23:
@ %bb.19:
	@DEBUG_VALUE: HAL_DMA_Init:tickstart <- $r5
	@DEBUG_VALUE: HAL_DMA_Init:hdma <- $r4
	.loc	2 0 6                           @ libraries/STM32H7xx_HAL/STM32H7xx_HAL_Driver/Src/stm32h7xx_hal_dma.c:0:6
	movw	r1, #21572
	movt	r1, #22530
	.loc	2 221 6                         @ libraries/STM32H7xx_HAL/STM32H7xx_HAL_Driver/Src/stm32h7xx_hal_dma.c:221:6
	cmp	r0, r1
	beq.w	.LBB0_50
.Ltmp24:
@ %bb.20:
	@DEBUG_VALUE: HAL_DMA_Init:tickstart <- $r5
	@DEBUG_VALUE: HAL_DMA_Init:hdma <- $r4
	.loc	2 0 6                           @ libraries/STM32H7xx_HAL/STM32H7xx_HAL_Driver/Src/stm32h7xx_hal_dma.c:0:6
	movw	r1, #21592
	b	.LBB0_49
.Ltmp25:
.LBB0_21:
	@DEBUG_VALUE: HAL_DMA_Init:tickstart <- $r5
	@DEBUG_VALUE: HAL_DMA_Init:hdma <- $r4
	movs	r2, #88
	movt	r2, #16386
	.loc	2 221 6                         @ libraries/STM32H7xx_HAL/STM32H7xx_HAL_Driver/Src/stm32h7xx_hal_dma.c:221:6
	cmp	r0, r2
	beq	.LBB0_31
.Ltmp26:
@ %bb.22:
	@DEBUG_VALUE: HAL_DMA_Init:tickstart <- $r5
	@DEBUG_VALUE: HAL_DMA_Init:hdma <- $r4
	.loc	2 0 6                           @ libraries/STM32H7xx_HAL/STM32H7xx_HAL_Driver/Src/stm32h7xx_hal_dma.c:0:6
	movs	r2, #112
	movt	r2, #16386
	.loc	2 221 6                         @ libraries/STM32H7xx_HAL/STM32H7xx_HAL_Driver/Src/stm32h7xx_hal_dma.c:221:6
	cmp	r0, r2
	beq	.LBB0_31
.Ltmp27:
@ %bb.23:
	@DEBUG_VALUE: HAL_DMA_Init:tickstart <- $r5
	@DEBUG_VALUE: HAL_DMA_Init:hdma <- $r4
	.loc	2 0 6                           @ libraries/STM32H7xx_HAL/STM32H7xx_HAL_Driver/Src/stm32h7xx_hal_dma.c:0:6
	movs	r2, #136
	b	.LBB0_30
.Ltmp28:
.LBB0_24:
	@DEBUG_VALUE: HAL_DMA_Init:tickstart <- $r5
	@DEBUG_VALUE: HAL_DMA_Init:hdma <- $r4
	movw	r2, #1208
	movt	r2, #16386
	.loc	2 221 6                         @ libraries/STM32H7xx_HAL/STM32H7xx_HAL_Driver/Src/stm32h7xx_hal_dma.c:221:6
	cmp	r0, r2
	beq	.LBB0_31
.Ltmp29:
@ %bb.25:
	@DEBUG_VALUE: HAL_DMA_Init:tickstart <- $r5
	@DEBUG_VALUE: HAL_DMA_Init:hdma <- $r4
	.loc	2 0 6                           @ libraries/STM32H7xx_HAL/STM32H7xx_HAL_Driver/Src/stm32h7xx_hal_dma.c:0:6
	movw	r1, #21512
	movt	r1, #22530
	.loc	2 221 6                         @ libraries/STM32H7xx_HAL/STM32H7xx_HAL_Driver/Src/stm32h7xx_hal_dma.c:221:6
	cmp	r0, r1
	beq	.LBB0_50
.Ltmp30:
@ %bb.26:
	@DEBUG_VALUE: HAL_DMA_Init:tickstart <- $r5
	@DEBUG_VALUE: HAL_DMA_Init:hdma <- $r4
	.loc	2 0 6                           @ libraries/STM32H7xx_HAL/STM32H7xx_HAL_Driver/Src/stm32h7xx_hal_dma.c:0:6
	movw	r1, #21532
	b	.LBB0_49
.Ltmp31:
.LBB0_27:
	@DEBUG_VALUE: HAL_DMA_Init:tickstart <- $r5
	@DEBUG_VALUE: HAL_DMA_Init:hdma <- $r4
	movw	r2, #1064
	movt	r2, #16386
	.loc	2 221 6                         @ libraries/STM32H7xx_HAL/STM32H7xx_HAL_Driver/Src/stm32h7xx_hal_dma.c:221:6
	cmp	r0, r2
	beq	.LBB0_31
.Ltmp32:
@ %bb.28:
	@DEBUG_VALUE: HAL_DMA_Init:tickstart <- $r5
	@DEBUG_VALUE: HAL_DMA_Init:hdma <- $r4
	.loc	2 0 6                           @ libraries/STM32H7xx_HAL/STM32H7xx_HAL_Driver/Src/stm32h7xx_hal_dma.c:0:6
	movw	r2, #1088
	movt	r2, #16386
	.loc	2 221 6                         @ libraries/STM32H7xx_HAL/STM32H7xx_HAL_Driver/Src/stm32h7xx_hal_dma.c:221:6
	cmp	r0, r2
	beq	.LBB0_31
.Ltmp33:
@ %bb.29:
	@DEBUG_VALUE: HAL_DMA_Init:tickstart <- $r5
	@DEBUG_VALUE: HAL_DMA_Init:hdma <- $r4
	.loc	2 0 6                           @ libraries/STM32H7xx_HAL/STM32H7xx_HAL_Driver/Src/stm32h7xx_hal_dma.c:0:6
	movw	r2, #1112
.Ltmp34:
.LBB0_30:
	@DEBUG_VALUE: HAL_DMA_Init:tickstart <- $r5
	@DEBUG_VALUE: HAL_DMA_Init:hdma <- $r4
	movt	r2, #16386
	.loc	2 221 6                         @ libraries/STM32H7xx_HAL/STM32H7xx_HAL_Driver/Src/stm32h7xx_hal_dma.c:221:6
	cmp	r0, r2
	bne.w	.LBB0_79
.Ltmp35:
.LBB0_31:
	@DEBUG_VALUE: HAL_DMA_Init:tickstart <- $r5
	@DEBUG_VALUE: HAL_DMA_Init:hdma <- $r4
	.loc	2 0 6                           @ libraries/STM32H7xx_HAL/STM32H7xx_HAL_Driver/Src/stm32h7xx_hal_dma.c:0:6
	movw	r3, #1039
	movs	r2, #0
	movt	r3, #16386
.Ltmp36:
	.loc	2 235 5 is_stmt 1               @ libraries/STM32H7xx_HAL/STM32H7xx_HAL_Driver/Src/stm32h7xx_hal_dma.c:235:5
	strb.w	r2, [r4, #52]
.Ltmp37:
	.loc	2 241 5                         @ libraries/STM32H7xx_HAL/STM32H7xx_HAL_Driver/Src/stm32h7xx_hal_dma.c:241:5
	cmp	r0, r3
	mov.w	r2, #2
	.loc	2 238 17                        @ libraries/STM32H7xx_HAL/STM32H7xx_HAL_Driver/Src/stm32h7xx_hal_dma.c:238:17
	strb.w	r2, [r4, #53]
	.loc	2 241 5                         @ libraries/STM32H7xx_HAL/STM32H7xx_HAL_Driver/Src/stm32h7xx_hal_dma.c:241:5
	bgt	.LBB0_36
.Ltmp38:
@ %bb.32:
	@DEBUG_VALUE: HAL_DMA_Init:tickstart <- $r5
	@DEBUG_VALUE: HAL_DMA_Init:hdma <- $r4
	.loc	2 0 5 is_stmt 0                 @ libraries/STM32H7xx_HAL/STM32H7xx_HAL_Driver/Src/stm32h7xx_hal_dma.c:0:5
	movs	r1, #111
	movt	r1, #16386
	.loc	2 241 5                         @ libraries/STM32H7xx_HAL/STM32H7xx_HAL_Driver/Src/stm32h7xx_hal_dma.c:241:5
	cmp	r0, r1
	bgt	.LBB0_40
.Ltmp39:
@ %bb.33:
	@DEBUG_VALUE: HAL_DMA_Init:tickstart <- $r5
	@DEBUG_VALUE: HAL_DMA_Init:hdma <- $r4
	.loc	2 0 5                           @ libraries/STM32H7xx_HAL/STM32H7xx_HAL_Driver/Src/stm32h7xx_hal_dma.c:0:5
	movs	r1, #63
	movt	r1, #16386
	.loc	2 241 5                         @ libraries/STM32H7xx_HAL/STM32H7xx_HAL_Driver/Src/stm32h7xx_hal_dma.c:241:5
	cmp	r0, r1
	bgt.w	.LBB0_51
.Ltmp40:
@ %bb.34:
	@DEBUG_VALUE: HAL_DMA_Init:tickstart <- $r5
	@DEBUG_VALUE: HAL_DMA_Init:hdma <- $r4
	.loc	2 0 5                           @ libraries/STM32H7xx_HAL/STM32H7xx_HAL_Driver/Src/stm32h7xx_hal_dma.c:0:5
	movs	r1, #16
	movt	r1, #16386
	.loc	2 241 5                         @ libraries/STM32H7xx_HAL/STM32H7xx_HAL_Driver/Src/stm32h7xx_hal_dma.c:241:5
	cmp	r0, r1
	beq.w	.LBB0_60
.Ltmp41:
@ %bb.35:
	@DEBUG_VALUE: HAL_DMA_Init:tickstart <- $r5
	@DEBUG_VALUE: HAL_DMA_Init:hdma <- $r4
	.loc	2 0 5                           @ libraries/STM32H7xx_HAL/STM32H7xx_HAL_Driver/Src/stm32h7xx_hal_dma.c:0:5
	movs	r1, #40
	b	.LBB0_59
.Ltmp42:
.LBB0_36:
	@DEBUG_VALUE: HAL_DMA_Init:tickstart <- $r5
	@DEBUG_VALUE: HAL_DMA_Init:hdma <- $r4
	.loc	2 241 5                         @ libraries/STM32H7xx_HAL/STM32H7xx_HAL_Driver/Src/stm32h7xx_hal_dma.c:241:5
	cmp	r0, r1
	bgt	.LBB0_43
.Ltmp43:
@ %bb.37:
	@DEBUG_VALUE: HAL_DMA_Init:tickstart <- $r5
	@DEBUG_VALUE: HAL_DMA_Init:hdma <- $r4
	.loc	2 0 5                           @ libraries/STM32H7xx_HAL/STM32H7xx_HAL_Driver/Src/stm32h7xx_hal_dma.c:0:5
	movw	r1, #1087
	movt	r1, #16386
	.loc	2 241 5                         @ libraries/STM32H7xx_HAL/STM32H7xx_HAL_Driver/Src/stm32h7xx_hal_dma.c:241:5
	cmp	r0, r1
	bgt.w	.LBB0_53
.Ltmp44:
@ %bb.38:
	@DEBUG_VALUE: HAL_DMA_Init:tickstart <- $r5
	@DEBUG_VALUE: HAL_DMA_Init:hdma <- $r4
	.loc	2 0 5                           @ libraries/STM32H7xx_HAL/STM32H7xx_HAL_Driver/Src/stm32h7xx_hal_dma.c:0:5
	movw	r1, #1040
	movt	r1, #16386
	.loc	2 241 5                         @ libraries/STM32H7xx_HAL/STM32H7xx_HAL_Driver/Src/stm32h7xx_hal_dma.c:241:5
	cmp	r0, r1
	beq.w	.LBB0_60
.Ltmp45:
@ %bb.39:
	@DEBUG_VALUE: HAL_DMA_Init:tickstart <- $r5
	@DEBUG_VALUE: HAL_DMA_Init:hdma <- $r4
	.loc	2 0 5                           @ libraries/STM32H7xx_HAL/STM32H7xx_HAL_Driver/Src/stm32h7xx_hal_dma.c:0:5
	movw	r1, #1064
	b	.LBB0_59
.Ltmp46:
.LBB0_40:
	@DEBUG_VALUE: HAL_DMA_Init:tickstart <- $r5
	@DEBUG_VALUE: HAL_DMA_Init:hdma <- $r4
	movs	r1, #159
	movt	r1, #16386
	.loc	2 241 5                         @ libraries/STM32H7xx_HAL/STM32H7xx_HAL_Driver/Src/stm32h7xx_hal_dma.c:241:5
	cmp	r0, r1
	bgt.w	.LBB0_55
.Ltmp47:
@ %bb.41:
	@DEBUG_VALUE: HAL_DMA_Init:tickstart <- $r5
	@DEBUG_VALUE: HAL_DMA_Init:hdma <- $r4
	.loc	2 0 5                           @ libraries/STM32H7xx_HAL/STM32H7xx_HAL_Driver/Src/stm32h7xx_hal_dma.c:0:5
	movs	r1, #112
	movt	r1, #16386
	.loc	2 241 5                         @ libraries/STM32H7xx_HAL/STM32H7xx_HAL_Driver/Src/stm32h7xx_hal_dma.c:241:5
	cmp	r0, r1
	beq.w	.LBB0_60
.Ltmp48:
@ %bb.42:
	@DEBUG_VALUE: HAL_DMA_Init:tickstart <- $r5
	@DEBUG_VALUE: HAL_DMA_Init:hdma <- $r4
	.loc	2 0 5                           @ libraries/STM32H7xx_HAL/STM32H7xx_HAL_Driver/Src/stm32h7xx_hal_dma.c:0:5
	movs	r1, #136
	b	.LBB0_59
.Ltmp49:
.LBB0_43:
	@DEBUG_VALUE: HAL_DMA_Init:tickstart <- $r5
	@DEBUG_VALUE: HAL_DMA_Init:hdma <- $r4
	movw	r1, #1183
	movt	r1, #16386
	.loc	2 241 5                         @ libraries/STM32H7xx_HAL/STM32H7xx_HAL_Driver/Src/stm32h7xx_hal_dma.c:241:5
	cmp	r0, r1
	bgt	.LBB0_57
.Ltmp50:
@ %bb.44:
	@DEBUG_VALUE: HAL_DMA_Init:tickstart <- $r5
	@DEBUG_VALUE: HAL_DMA_Init:hdma <- $r4
	.loc	2 0 5                           @ libraries/STM32H7xx_HAL/STM32H7xx_HAL_Driver/Src/stm32h7xx_hal_dma.c:0:5
	movw	r1, #1136
	movt	r1, #16386
	.loc	2 241 5                         @ libraries/STM32H7xx_HAL/STM32H7xx_HAL_Driver/Src/stm32h7xx_hal_dma.c:241:5
	cmp	r0, r1
	beq.w	.LBB0_60
.Ltmp51:
@ %bb.45:
	@DEBUG_VALUE: HAL_DMA_Init:tickstart <- $r5
	@DEBUG_VALUE: HAL_DMA_Init:hdma <- $r4
	.loc	2 0 5                           @ libraries/STM32H7xx_HAL/STM32H7xx_HAL_Driver/Src/stm32h7xx_hal_dma.c:0:5
	movw	r1, #1160
	b	.LBB0_59
.Ltmp52:
.LBB0_46:
	@DEBUG_VALUE: HAL_DMA_Init:tickstart <- $r5
	@DEBUG_VALUE: HAL_DMA_Init:hdma <- $r4
	movw	r1, #21612
	movt	r1, #22530
	.loc	2 221 6 is_stmt 1               @ libraries/STM32H7xx_HAL/STM32H7xx_HAL_Driver/Src/stm32h7xx_hal_dma.c:221:6
	cmp	r0, r1
	beq	.LBB0_50
.Ltmp53:
@ %bb.47:
	@DEBUG_VALUE: HAL_DMA_Init:tickstart <- $r5
	@DEBUG_VALUE: HAL_DMA_Init:hdma <- $r4
	.loc	2 0 6 is_stmt 0                 @ libraries/STM32H7xx_HAL/STM32H7xx_HAL_Driver/Src/stm32h7xx_hal_dma.c:0:6
	movw	r1, #21632
	movt	r1, #22530
	.loc	2 221 6                         @ libraries/STM32H7xx_HAL/STM32H7xx_HAL_Driver/Src/stm32h7xx_hal_dma.c:221:6
	cmp	r0, r1
	beq	.LBB0_50
.Ltmp54:
@ %bb.48:
	@DEBUG_VALUE: HAL_DMA_Init:tickstart <- $r5
	@DEBUG_VALUE: HAL_DMA_Init:hdma <- $r4
	.loc	2 0 6                           @ libraries/STM32H7xx_HAL/STM32H7xx_HAL_Driver/Src/stm32h7xx_hal_dma.c:0:6
	movw	r1, #21652
.Ltmp55:
.LBB0_49:
	@DEBUG_VALUE: HAL_DMA_Init:tickstart <- $r5
	@DEBUG_VALUE: HAL_DMA_Init:hdma <- $r4
	movt	r1, #22530
	.loc	2 221 6                         @ libraries/STM32H7xx_HAL/STM32H7xx_HAL_Driver/Src/stm32h7xx_hal_dma.c:221:6
	cmp	r0, r1
	bne.w	.LBB0_79
.Ltmp56:
.LBB0_50:
	@DEBUG_VALUE: HAL_DMA_Init:tickstart <- $r5
	@DEBUG_VALUE: HAL_DMA_Init:hdma <- $r4
	.loc	2 347 23 is_stmt 1              @ libraries/STM32H7xx_HAL/STM32H7xx_HAL_Driver/Src/stm32h7xx_hal_dma.c:347:23
	add.w	r8, r4, #8
	movs	r0, #0
.Ltmp57:
	.loc	2 332 5                         @ libraries/STM32H7xx_HAL/STM32H7xx_HAL_Driver/Src/stm32h7xx_hal_dma.c:332:5
	strb.w	r0, [r4, #52]
	movs	r0, #2
.Ltmp58:
	.loc	2 335 17                        @ libraries/STM32H7xx_HAL/STM32H7xx_HAL_Driver/Src/stm32h7xx_hal_dma.c:335:17
	strb.w	r0, [r4, #53]
	.loc	2 347 23                        @ libraries/STM32H7xx_HAL/STM32H7xx_HAL_Driver/Src/stm32h7xx_hal_dma.c:347:23
	ldm.w	r8, {r1, r2, r8}
	sub.w	r7, r1, #128
	.loc	2 338 52                        @ libraries/STM32H7xx_HAL/STM32H7xx_HAL_Driver/Src/stm32h7xx_hal_dma.c:338:52
	ldr	r0, [r4]
	.loc	2 347 23                        @ libraries/STM32H7xx_HAL/STM32H7xx_HAL_Driver/Src/stm32h7xx_hal_dma.c:347:23
	clz	r7, r7
	cmp	r1, #64
	lsr.w	r7, r7, #5
	.loc	2 350 23                        @ libraries/STM32H7xx_HAL/STM32H7xx_HAL_Driver/Src/stm32h7xx_hal_dma.c:350:23
	ldrd	r6, r5, [r4, #20]
.Ltmp59:
	.loc	2 352 23                        @ libraries/STM32H7xx_HAL/STM32H7xx_HAL_Driver/Src/stm32h7xx_hal_dma.c:352:23
	ldrd	r12, lr, [r4, #28]
	.loc	2 338 63                        @ libraries/STM32H7xx_HAL/STM32H7xx_HAL_Driver/Src/stm32h7xx_hal_dma.c:338:63
	ldr	r3, [r0]
.Ltmp60:
	@DEBUG_VALUE: HAL_DMA_Init:registerValue <- $r3
	.loc	2 347 23                        @ libraries/STM32H7xx_HAL/STM32H7xx_HAL_Driver/Src/stm32h7xx_hal_dma.c:347:23
	lsl.w	r7, r7, #14
	.loc	2 341 19                        @ libraries/STM32H7xx_HAL/STM32H7xx_HAL_Driver/Src/stm32h7xx_hal_dma.c:341:19
	bfc	r3, #4, #13
.Ltmp61:
	@DEBUG_VALUE: HAL_DMA_Init:registerValue <- $r3
	.loc	2 347 23                        @ libraries/STM32H7xx_HAL/STM32H7xx_HAL_Driver/Src/stm32h7xx_hal_dma.c:347:23
	it	eq
	moveq	r7, #16
	.loc	2 347 78 is_stmt 0              @ libraries/STM32H7xx_HAL/STM32H7xx_HAL_Driver/Src/stm32h7xx_hal_dma.c:347:78
	orr.w	r1, r3, r2, lsr #3
	movw	r2, #44024
	.loc	2 348 78 is_stmt 1              @ libraries/STM32H7xx_HAL/STM32H7xx_HAL_Driver/Src/stm32h7xx_hal_dma.c:348:78
	orrs	r1, r7
	movt	r2, #43005
	.loc	2 349 78                        @ libraries/STM32H7xx_HAL/STM32H7xx_HAL_Driver/Src/stm32h7xx_hal_dma.c:349:78
	orr.w	r1, r1, r8, lsr #3
	movw	r3, #52429
.Ltmp62:
	.loc	2 350 78                        @ libraries/STM32H7xx_HAL/STM32H7xx_HAL_Driver/Src/stm32h7xx_hal_dma.c:350:78
	orr.w	r1, r1, r6, lsr #3
	.loc	2 359 65                        @ libraries/STM32H7xx_HAL/STM32H7xx_HAL_Driver/Src/stm32h7xx_hal_dma.c:359:65
	add	r2, r0
	.loc	2 351 78                        @ libraries/STM32H7xx_HAL/STM32H7xx_HAL_Driver/Src/stm32h7xx_hal_dma.c:351:78
	orr.w	r1, r1, r5, lsr #3
	movt	r3, #52428
	.loc	2 352 78                        @ libraries/STM32H7xx_HAL/STM32H7xx_HAL_Driver/Src/stm32h7xx_hal_dma.c:352:78
	orr.w	r1, r1, r12, lsr #3
	.loc	2 359 92                        @ libraries/STM32H7xx_HAL/STM32H7xx_HAL_Driver/Src/stm32h7xx_hal_dma.c:359:92
	umull	r2, r3, r2, r3
	.loc	2 347 19                        @ libraries/STM32H7xx_HAL/STM32H7xx_HAL_Driver/Src/stm32h7xx_hal_dma.c:347:19
	orr.w	r1, r1, lr, lsr #4
.Ltmp63:
	@DEBUG_VALUE: HAL_DMA_Init:registerValue <- $r1
	.loc	2 356 51                        @ libraries/STM32H7xx_HAL/STM32H7xx_HAL_Driver/Src/stm32h7xx_hal_dma.c:356:51
	str	r1, [r0]
	mvn	r0, #3
	.loc	2 359 92                        @ libraries/STM32H7xx_HAL/STM32H7xx_HAL_Driver/Src/stm32h7xx_hal_dma.c:359:92
	and.w	r0, r0, r3, lsr #2
	.loc	2 359 23 is_stmt 0              @ libraries/STM32H7xx_HAL/STM32H7xx_HAL_Driver/Src/stm32h7xx_hal_dma.c:359:23
	str	r0, [r4, #92]
	.loc	2 363 40 is_stmt 1              @ libraries/STM32H7xx_HAL/STM32H7xx_HAL_Driver/Src/stm32h7xx_hal_dma.c:363:40
	mov	r0, r4
	bl	DMA_CalcBaseAndBitshift
.Ltmp64:
	@DEBUG_VALUE: HAL_DMA_Init:regs_bdma <- $r0
	.loc	2 366 52                        @ libraries/STM32H7xx_HAL/STM32H7xx_HAL_Driver/Src/stm32h7xx_hal_dma.c:366:52
	ldr	r1, [r4, #92]
	movs	r2, #1
	.loc	2 366 64 is_stmt 0              @ libraries/STM32H7xx_HAL/STM32H7xx_HAL_Driver/Src/stm32h7xx_hal_dma.c:366:64
	and	r1, r1, #31
	.loc	2 366 42                        @ libraries/STM32H7xx_HAL/STM32H7xx_HAL_Driver/Src/stm32h7xx_hal_dma.c:366:42
	lsl.w	r1, r2, r1
	.loc	2 366 21                        @ libraries/STM32H7xx_HAL/STM32H7xx_HAL_Driver/Src/stm32h7xx_hal_dma.c:366:21
	str	r1, [r0, #4]
	b	.LBB0_73
.Ltmp65:
.LBB0_51:
	@DEBUG_VALUE: HAL_DMA_Init:tickstart <- $r5
	@DEBUG_VALUE: HAL_DMA_Init:hdma <- $r4
	.loc	2 0 21                          @ libraries/STM32H7xx_HAL/STM32H7xx_HAL_Driver/Src/stm32h7xx_hal_dma.c:0:21
	movs	r1, #64
	movt	r1, #16386
.Ltmp66:
	.loc	2 241 5 is_stmt 1               @ libraries/STM32H7xx_HAL/STM32H7xx_HAL_Driver/Src/stm32h7xx_hal_dma.c:241:5
	cmp	r0, r1
	beq	.LBB0_60
.Ltmp67:
@ %bb.52:
	@DEBUG_VALUE: HAL_DMA_Init:tickstart <- $r5
	@DEBUG_VALUE: HAL_DMA_Init:hdma <- $r4
	.loc	2 0 5 is_stmt 0                 @ libraries/STM32H7xx_HAL/STM32H7xx_HAL_Driver/Src/stm32h7xx_hal_dma.c:0:5
	movs	r1, #88
	b	.LBB0_59
.Ltmp68:
.LBB0_53:
	@DEBUG_VALUE: HAL_DMA_Init:tickstart <- $r5
	@DEBUG_VALUE: HAL_DMA_Init:hdma <- $r4
	movw	r1, #1088
	movt	r1, #16386
	.loc	2 241 5                         @ libraries/STM32H7xx_HAL/STM32H7xx_HAL_Driver/Src/stm32h7xx_hal_dma.c:241:5
	cmp	r0, r1
	beq	.LBB0_60
.Ltmp69:
@ %bb.54:
	@DEBUG_VALUE: HAL_DMA_Init:tickstart <- $r5
	@DEBUG_VALUE: HAL_DMA_Init:hdma <- $r4
	.loc	2 0 5                           @ libraries/STM32H7xx_HAL/STM32H7xx_HAL_Driver/Src/stm32h7xx_hal_dma.c:0:5
	movw	r1, #1112
	b	.LBB0_59
.Ltmp70:
.LBB0_55:
	@DEBUG_VALUE: HAL_DMA_Init:tickstart <- $r5
	@DEBUG_VALUE: HAL_DMA_Init:hdma <- $r4
	movs	r1, #160
	movt	r1, #16386
	.loc	2 241 5                         @ libraries/STM32H7xx_HAL/STM32H7xx_HAL_Driver/Src/stm32h7xx_hal_dma.c:241:5
	cmp	r0, r1
	beq	.LBB0_60
.Ltmp71:
@ %bb.56:
	@DEBUG_VALUE: HAL_DMA_Init:tickstart <- $r5
	@DEBUG_VALUE: HAL_DMA_Init:hdma <- $r4
	.loc	2 0 5                           @ libraries/STM32H7xx_HAL/STM32H7xx_HAL_Driver/Src/stm32h7xx_hal_dma.c:0:5
	movs	r1, #184
	b	.LBB0_59
.Ltmp72:
.LBB0_57:
	@DEBUG_VALUE: HAL_DMA_Init:tickstart <- $r5
	@DEBUG_VALUE: HAL_DMA_Init:hdma <- $r4
	movw	r1, #1208
	movt	r1, #16386
	.loc	2 241 5                         @ libraries/STM32H7xx_HAL/STM32H7xx_HAL_Driver/Src/stm32h7xx_hal_dma.c:241:5
	cmp	r0, r1
	beq	.LBB0_60
.Ltmp73:
@ %bb.58:
	@DEBUG_VALUE: HAL_DMA_Init:tickstart <- $r5
	@DEBUG_VALUE: HAL_DMA_Init:hdma <- $r4
	.loc	2 0 5                           @ libraries/STM32H7xx_HAL/STM32H7xx_HAL_Driver/Src/stm32h7xx_hal_dma.c:0:5
	movw	r1, #1184
.Ltmp74:
.LBB0_59:
	@DEBUG_VALUE: HAL_DMA_Init:tickstart <- $r5
	@DEBUG_VALUE: HAL_DMA_Init:hdma <- $r4
	movt	r1, #16386
	.loc	2 241 5                         @ libraries/STM32H7xx_HAL/STM32H7xx_HAL_Driver/Src/stm32h7xx_hal_dma.c:241:5
	cmp	r0, r1
	it	eq
	ldreq	r0, [r4]
	b	.LBB0_61
.Ltmp75:
.LBB0_60:
	@DEBUG_VALUE: HAL_DMA_Init:tickstart <- $r5
	@DEBUG_VALUE: HAL_DMA_Init:hdma <- $r4
	ldr	r0, [r4]
.Ltmp76:
.LBB0_61:
	@DEBUG_VALUE: HAL_DMA_Init:tickstart <- $r5
	@DEBUG_VALUE: HAL_DMA_Init:hdma <- $r4
	ldr	r1, [r0]
	bic	r1, r1, #1
	str	r1, [r0]
.Ltmp77:
	.p2align	2
.LBB0_62:                               @ =>This Inner Loop Header: Depth=1
	@DEBUG_VALUE: HAL_DMA_Init:tickstart <- $r5
	@DEBUG_VALUE: HAL_DMA_Init:hdma <- $r4
	.loc	2 244 43 is_stmt 1              @ libraries/STM32H7xx_HAL/STM32H7xx_HAL_Driver/Src/stm32h7xx_hal_dma.c:244:43
	ldr	r6, [r4]
	.loc	2 244 54 is_stmt 0              @ libraries/STM32H7xx_HAL/STM32H7xx_HAL_Driver/Src/stm32h7xx_hal_dma.c:244:54
	ldr	r0, [r6]
	.loc	2 244 5                         @ libraries/STM32H7xx_HAL/STM32H7xx_HAL_Driver/Src/stm32h7xx_hal_dma.c:244:5
	lsls	r0, r0, #31
	beq	.LBB0_66
.Ltmp78:
@ %bb.63:                               @   in Loop: Header=BB0_62 Depth=1
	@DEBUG_VALUE: HAL_DMA_Init:tickstart <- $r5
	@DEBUG_VALUE: HAL_DMA_Init:hdma <- $r4
	.loc	2 247 11 is_stmt 1              @ libraries/STM32H7xx_HAL/STM32H7xx_HAL_Driver/Src/stm32h7xx_hal_dma.c:247:11
	bl	HAL_GetTick
	.loc	2 247 25 is_stmt 0              @ libraries/STM32H7xx_HAL/STM32H7xx_HAL_Driver/Src/stm32h7xx_hal_dma.c:247:25
	subs	r0, r0, r5
.Ltmp79:
	.loc	2 247 10                        @ libraries/STM32H7xx_HAL/STM32H7xx_HAL_Driver/Src/stm32h7xx_hal_dma.c:247:10
	cmp	r0, #6
	blo	.LBB0_62
.Ltmp80:
@ %bb.64:
	@DEBUG_VALUE: HAL_DMA_Init:tickstart <- $r5
	@DEBUG_VALUE: HAL_DMA_Init:hdma <- $r4
	.loc	2 0 10                          @ libraries/STM32H7xx_HAL/STM32H7xx_HAL_Driver/Src/stm32h7xx_hal_dma.c:0:10
	movs	r0, #32
.Ltmp81:
.LBB0_65:
	@DEBUG_VALUE: HAL_DMA_Init:tickstart <- $r5
	@DEBUG_VALUE: HAL_DMA_Init:hdma <- $r4
	str	r0, [r4, #84]
	movs	r0, #3
	strb.w	r0, [r4, #53]
	movs	r0, #1
.Ltmp82:
	.loc	2 422 1 is_stmt 1               @ libraries/STM32H7xx_HAL/STM32H7xx_HAL_Driver/Src/stm32h7xx_hal_dma.c:422:1
	pop.w	{r4, r5, r6, r7, r8, pc}
.Ltmp83:
.LBB0_66:
	@DEBUG_VALUE: HAL_DMA_Init:tickstart <- $r5
	@DEBUG_VALUE: HAL_DMA_Init:hdma <- $r4
	.loc	2 0 1 is_stmt 0                 @ libraries/STM32H7xx_HAL/STM32H7xx_HAL_Driver/Src/stm32h7xx_hal_dma.c:0:1
	movw	r1, #32831
.Ltmp84:
	.loc	2 269 34 is_stmt 1              @ libraries/STM32H7xx_HAL/STM32H7xx_HAL_Driver/Src/stm32h7xx_hal_dma.c:269:34
	add.w	r5, r4, #8
.Ltmp85:
	.loc	2 260 63                        @ libraries/STM32H7xx_HAL/STM32H7xx_HAL_Driver/Src/stm32h7xx_hal_dma.c:260:63
	ldr	r0, [r6]
.Ltmp86:
	@DEBUG_VALUE: HAL_DMA_Init:registerValue <- $r0
	.loc	2 0 63 is_stmt 0                @ libraries/STM32H7xx_HAL/STM32H7xx_HAL_Driver/Src/stm32h7xx_hal_dma.c:0:63
	movt	r1, #65040
	.loc	2 263 19 is_stmt 1              @ libraries/STM32H7xx_HAL/STM32H7xx_HAL_Driver/Src/stm32h7xx_hal_dma.c:263:19
	ands	r0, r1
.Ltmp87:
	@DEBUG_VALUE: HAL_DMA_Init:registerValue <- $r0
	.loc	2 269 34                        @ libraries/STM32H7xx_HAL/STM32H7xx_HAL_Driver/Src/stm32h7xx_hal_dma.c:269:34
	ldm	r5, {r1, r2, r3, r5}
	.loc	2 269 54 is_stmt 0              @ libraries/STM32H7xx_HAL/STM32H7xx_HAL_Driver/Src/stm32h7xx_hal_dma.c:269:54
	orrs	r0, r1
.Ltmp88:
	.loc	2 271 57 is_stmt 1              @ libraries/STM32H7xx_HAL/STM32H7xx_HAL_Driver/Src/stm32h7xx_hal_dma.c:271:57
	ldr	r1, [r4, #24]
	.loc	2 270 44                        @ libraries/STM32H7xx_HAL/STM32H7xx_HAL_Driver/Src/stm32h7xx_hal_dma.c:270:44
	orrs	r0, r2
	.loc	2 272 24                        @ libraries/STM32H7xx_HAL/STM32H7xx_HAL_Driver/Src/stm32h7xx_hal_dma.c:272:24
	ldr	r2, [r4, #28]
	.loc	2 270 74                        @ libraries/STM32H7xx_HAL/STM32H7xx_HAL_Driver/Src/stm32h7xx_hal_dma.c:270:74
	orrs	r0, r3
	.loc	2 272 57                        @ libraries/STM32H7xx_HAL/STM32H7xx_HAL_Driver/Src/stm32h7xx_hal_dma.c:272:57
	ldr	r3, [r4, #32]
	.loc	2 271 44                        @ libraries/STM32H7xx_HAL/STM32H7xx_HAL_Driver/Src/stm32h7xx_hal_dma.c:271:44
	orrs	r5, r0
.Ltmp89:
	.loc	2 275 19                        @ libraries/STM32H7xx_HAL/STM32H7xx_HAL_Driver/Src/stm32h7xx_hal_dma.c:275:19
	ldr	r0, [r4, #36]
.Ltmp90:
	.loc	2 271 74                        @ libraries/STM32H7xx_HAL/STM32H7xx_HAL_Driver/Src/stm32h7xx_hal_dma.c:271:74
	orrs	r1, r5
	.loc	2 275 8                         @ libraries/STM32H7xx_HAL/STM32H7xx_HAL_Driver/Src/stm32h7xx_hal_dma.c:275:8
	cmp	r0, #4
	.loc	2 272 44                        @ libraries/STM32H7xx_HAL/STM32H7xx_HAL_Driver/Src/stm32h7xx_hal_dma.c:272:44
	orr.w	r1, r1, r2
	.loc	2 269 19                        @ libraries/STM32H7xx_HAL/STM32H7xx_HAL_Driver/Src/stm32h7xx_hal_dma.c:269:19
	orr.w	r1, r1, r3
.Ltmp91:
	@DEBUG_VALUE: HAL_DMA_Init:registerValue <- $r1
	.loc	2 275 8                         @ libraries/STM32H7xx_HAL/STM32H7xx_HAL_Driver/Src/stm32h7xx_hal_dma.c:275:8
	bne	.LBB0_68
.Ltmp92:
@ %bb.67:
	@DEBUG_VALUE: HAL_DMA_Init:hdma <- $r4
	@DEBUG_VALUE: HAL_DMA_Init:registerValue <- $r1
	.loc	2 278 36                        @ libraries/STM32H7xx_HAL/STM32H7xx_HAL_Driver/Src/stm32h7xx_hal_dma.c:278:36
	ldrd	r2, r3, [r4, #44]
	.loc	2 278 45 is_stmt 0              @ libraries/STM32H7xx_HAL/STM32H7xx_HAL_Driver/Src/stm32h7xx_hal_dma.c:278:45
	orrs	r1, r2
.Ltmp93:
	.loc	2 278 21                        @ libraries/STM32H7xx_HAL/STM32H7xx_HAL_Driver/Src/stm32h7xx_hal_dma.c:278:21
	orrs	r1, r3
.Ltmp94:
	@DEBUG_VALUE: HAL_DMA_Init:registerValue <- $r1
.LBB0_68:
	@DEBUG_VALUE: HAL_DMA_Init:hdma <- $r4
	@DEBUG_VALUE: HAL_DMA_Init:registerValue <- $r1
	@DEBUG_VALUE: HAL_DMA_Init:registerValue <- $r1
	.loc	2 282 50 is_stmt 1              @ libraries/STM32H7xx_HAL/STM32H7xx_HAL_Driver/Src/stm32h7xx_hal_dma.c:282:50
	str	r1, [r6]
	.loc	2 294 8                         @ libraries/STM32H7xx_HAL/STM32H7xx_HAL_Driver/Src/stm32h7xx_hal_dma.c:294:8
	cmp	r0, #4
	.loc	2 285 63                        @ libraries/STM32H7xx_HAL/STM32H7xx_HAL_Driver/Src/stm32h7xx_hal_dma.c:285:63
	ldr	r1, [r6, #20]
.Ltmp95:
	@DEBUG_VALUE: HAL_DMA_Init:registerValue <- $r1
	.loc	2 288 19                        @ libraries/STM32H7xx_HAL/STM32H7xx_HAL_Driver/Src/stm32h7xx_hal_dma.c:288:19
	bic	r1, r1, #7
.Ltmp96:
	@DEBUG_VALUE: HAL_DMA_Init:registerValue <- $r1
	.loc	2 291 19                        @ libraries/STM32H7xx_HAL/STM32H7xx_HAL_Driver/Src/stm32h7xx_hal_dma.c:291:19
	orr.w	r5, r1, r0
.Ltmp97:
	@DEBUG_VALUE: HAL_DMA_Init:registerValue <- $r5
	.loc	2 294 8                         @ libraries/STM32H7xx_HAL/STM32H7xx_HAL_Driver/Src/stm32h7xx_hal_dma.c:294:8
	bne	.LBB0_72
.Ltmp98:
@ %bb.69:
	@DEBUG_VALUE: HAL_DMA_Init:registerValue <- $r5
	@DEBUG_VALUE: HAL_DMA_Init:hdma <- $r4
	.loc	2 297 35                        @ libraries/STM32H7xx_HAL/STM32H7xx_HAL_Driver/Src/stm32h7xx_hal_dma.c:297:35
	ldrd	r1, r0, [r4, #40]
	.loc	2 297 21 is_stmt 0              @ libraries/STM32H7xx_HAL/STM32H7xx_HAL_Driver/Src/stm32h7xx_hal_dma.c:297:21
	orr.w	r5, r5, r1
.Ltmp99:
	@DEBUG_VALUE: HAL_DMA_Init:registerValue <- $r5
	.loc	2 301 10 is_stmt 1              @ libraries/STM32H7xx_HAL/STM32H7xx_HAL_Driver/Src/stm32h7xx_hal_dma.c:301:10
	cbz	r0, .LBB0_72
.Ltmp100:
@ %bb.70:
	@DEBUG_VALUE: HAL_DMA_Init:registerValue <- $r5
	@DEBUG_VALUE: HAL_DMA_Init:hdma <- $r4
	.loc	2 303 13                        @ libraries/STM32H7xx_HAL/STM32H7xx_HAL_Driver/Src/stm32h7xx_hal_dma.c:303:13
	mov	r0, r4
	bl	DMA_CheckFifoParam
.Ltmp101:
	.loc	2 303 13 is_stmt 0              @ libraries/STM32H7xx_HAL/STM32H7xx_HAL_Driver/Src/stm32h7xx_hal_dma.c:303:13
	cbz	r0, .LBB0_72
.Ltmp102:
@ %bb.71:
	@DEBUG_VALUE: HAL_DMA_Init:registerValue <- $r5
	@DEBUG_VALUE: HAL_DMA_Init:hdma <- $r4
	.loc	2 0 13                          @ libraries/STM32H7xx_HAL/STM32H7xx_HAL_Driver/Src/stm32h7xx_hal_dma.c:0:13
	movs	r0, #64
.Ltmp103:
	.loc	2 306 27 is_stmt 1              @ libraries/STM32H7xx_HAL/STM32H7xx_HAL_Driver/Src/stm32h7xx_hal_dma.c:306:27
	str	r0, [r4, #84]
	movs	r0, #1
	.loc	2 309 23                        @ libraries/STM32H7xx_HAL/STM32H7xx_HAL_Driver/Src/stm32h7xx_hal_dma.c:309:23
	strb.w	r0, [r4, #53]
.Ltmp104:
	.loc	2 422 1                         @ libraries/STM32H7xx_HAL/STM32H7xx_HAL_Driver/Src/stm32h7xx_hal_dma.c:422:1
	pop.w	{r4, r5, r6, r7, r8, pc}
.Ltmp105:
.LBB0_72:
	@DEBUG_VALUE: HAL_DMA_Init:registerValue <- $r5
	@DEBUG_VALUE: HAL_DMA_Init:hdma <- $r4
	@DEBUG_VALUE: HAL_DMA_Init:registerValue <- $r5
	.loc	2 321 38                        @ libraries/STM32H7xx_HAL/STM32H7xx_HAL_Driver/Src/stm32h7xx_hal_dma.c:321:38
	mov	r0, r4
	.loc	2 317 51                        @ libraries/STM32H7xx_HAL/STM32H7xx_HAL_Driver/Src/stm32h7xx_hal_dma.c:317:51
	str	r5, [r6, #20]
	.loc	2 321 38                        @ libraries/STM32H7xx_HAL/STM32H7xx_HAL_Driver/Src/stm32h7xx_hal_dma.c:321:38
	bl	DMA_CalcBaseAndBitshift
.Ltmp106:
	@DEBUG_VALUE: HAL_DMA_Init:regs_dma <- $r0
	.loc	2 324 39                        @ libraries/STM32H7xx_HAL/STM32H7xx_HAL_Driver/Src/stm32h7xx_hal_dma.c:324:39
	ldr	r1, [r4, #92]
	movs	r2, #63
	.loc	2 324 51 is_stmt 0              @ libraries/STM32H7xx_HAL/STM32H7xx_HAL_Driver/Src/stm32h7xx_hal_dma.c:324:51
	and	r1, r1, #31
	.loc	2 324 29                        @ libraries/STM32H7xx_HAL/STM32H7xx_HAL_Driver/Src/stm32h7xx_hal_dma.c:324:29
	lsl.w	r1, r2, r1
	.loc	2 324 20                        @ libraries/STM32H7xx_HAL/STM32H7xx_HAL_Driver/Src/stm32h7xx_hal_dma.c:324:20
	str	r1, [r0, #8]
.Ltmp107:
.LBB0_73:
	@DEBUG_VALUE: HAL_DMA_Init:hdma <- $r4
	.loc	2 379 3 is_stmt 1               @ libraries/STM32H7xx_HAL/STM32H7xx_HAL_Driver/Src/stm32h7xx_hal_dma.c:379:3
	mov	r0, r4
	bl	DMA_CalcDMAMUXChannelBaseAndMask
.Ltmp108:
	.loc	2 381 17                        @ libraries/STM32H7xx_HAL/STM32H7xx_HAL_Driver/Src/stm32h7xx_hal_dma.c:381:17
	ldr	r0, [r4, #8]
.Ltmp109:
	.loc	2 381 6 is_stmt 0               @ libraries/STM32H7xx_HAL/STM32H7xx_HAL_Driver/Src/stm32h7xx_hal_dma.c:381:6
	cmp	r0, #128
	bne	.LBB0_75
.Ltmp110:
@ %bb.74:
	@DEBUG_VALUE: HAL_DMA_Init:hdma <- $r4
	.loc	2 0 6                           @ libraries/STM32H7xx_HAL/STM32H7xx_HAL_Driver/Src/stm32h7xx_hal_dma.c:0:6
	movs	r0, #0
.Ltmp111:
	.loc	2 384 24 is_stmt 1              @ libraries/STM32H7xx_HAL/STM32H7xx_HAL_Driver/Src/stm32h7xx_hal_dma.c:384:24
	str	r0, [r4, #4]
.Ltmp112:
.LBB0_75:
	@DEBUG_VALUE: HAL_DMA_Init:hdma <- $r4
	.loc	2 388 9                         @ libraries/STM32H7xx_HAL/STM32H7xx_HAL_Driver/Src/stm32h7xx_hal_dma.c:388:9
	add.w	r3, r4, #96
	.loc	2 388 42 is_stmt 0              @ libraries/STM32H7xx_HAL/STM32H7xx_HAL_Driver/Src/stm32h7xx_hal_dma.c:388:42
	ldr	r0, [r4, #4]
	.loc	2 388 50                        @ libraries/STM32H7xx_HAL/STM32H7xx_HAL_Driver/Src/stm32h7xx_hal_dma.c:388:50
	uxtb	r7, r0
.Ltmp113:
	.loc	2 396 53 is_stmt 1              @ libraries/STM32H7xx_HAL/STM32H7xx_HAL_Driver/Src/stm32h7xx_hal_dma.c:396:53
	subs	r0, #1
.Ltmp114:
	.loc	2 388 9                         @ libraries/STM32H7xx_HAL/STM32H7xx_HAL_Driver/Src/stm32h7xx_hal_dma.c:388:9
	ldm	r3, {r1, r2, r3}
.Ltmp115:
	.loc	2 396 53                        @ libraries/STM32H7xx_HAL/STM32H7xx_HAL_Driver/Src/stm32h7xx_hal_dma.c:396:53
	cmp	r0, #7
.Ltmp116:
	.loc	2 388 28                        @ libraries/STM32H7xx_HAL/STM32H7xx_HAL_Driver/Src/stm32h7xx_hal_dma.c:388:28
	str	r7, [r1]
	.loc	2 391 34                        @ libraries/STM32H7xx_HAL/STM32H7xx_HAL_Driver/Src/stm32h7xx_hal_dma.c:391:34
	str	r3, [r2, #4]
.Ltmp117:
	.loc	2 396 53                        @ libraries/STM32H7xx_HAL/STM32H7xx_HAL_Driver/Src/stm32h7xx_hal_dma.c:396:53
	bhi	.LBB0_77
.Ltmp118:
@ %bb.76:
	@DEBUG_VALUE: HAL_DMA_Init:hdma <- $r4
	.loc	2 400 5                         @ libraries/STM32H7xx_HAL/STM32H7xx_HAL_Driver/Src/stm32h7xx_hal_dma.c:400:5
	mov	r0, r4
	bl	DMA_CalcDMAMUXRequestGenBaseAndMask
	.loc	2 403 11                        @ libraries/STM32H7xx_HAL/STM32H7xx_HAL_Driver/Src/stm32h7xx_hal_dma.c:403:11
	add.w	r2, r4, #108
	movs	r3, #0
	ldm	r2, {r0, r1, r2}
	.loc	2 403 34 is_stmt 0              @ libraries/STM32H7xx_HAL/STM32H7xx_HAL_Driver/Src/stm32h7xx_hal_dma.c:403:34
	str	r3, [r0]
	.loc	2 406 41 is_stmt 1              @ libraries/STM32H7xx_HAL/STM32H7xx_HAL_Driver/Src/stm32h7xx_hal_dma.c:406:41
	str	r2, [r1, #4]
	b	.LBB0_78
.Ltmp119:
.LBB0_77:
	@DEBUG_VALUE: HAL_DMA_Init:hdma <- $r4
	.loc	2 0 41 is_stmt 0                @ libraries/STM32H7xx_HAL/STM32H7xx_HAL_Driver/Src/stm32h7xx_hal_dma.c:0:41
	movs	r0, #0
.Ltmp120:
	.loc	2 412 38 is_stmt 1              @ libraries/STM32H7xx_HAL/STM32H7xx_HAL_Driver/Src/stm32h7xx_hal_dma.c:412:38
	str	r0, [r4, #116]
	.loc	2 410 28                        @ libraries/STM32H7xx_HAL/STM32H7xx_HAL_Driver/Src/stm32h7xx_hal_dma.c:410:28
	strd	r0, r0, [r4, #108]
.Ltmp121:
.LBB0_78:
	@DEBUG_VALUE: HAL_DMA_Init:hdma <- $r4
	.loc	2 0 28 is_stmt 0                @ libraries/STM32H7xx_HAL/STM32H7xx_HAL_Driver/Src/stm32h7xx_hal_dma.c:0:28
	movs	r0, #0
	.loc	2 416 19 is_stmt 1              @ libraries/STM32H7xx_HAL/STM32H7xx_HAL_Driver/Src/stm32h7xx_hal_dma.c:416:19
	str	r0, [r4, #84]
	movs	r1, #1
	.loc	2 419 15                        @ libraries/STM32H7xx_HAL/STM32H7xx_HAL_Driver/Src/stm32h7xx_hal_dma.c:419:15
	strb.w	r1, [r4, #53]
	.loc	2 422 1                         @ libraries/STM32H7xx_HAL/STM32H7xx_HAL_Driver/Src/stm32h7xx_hal_dma.c:422:1
	pop.w	{r4, r5, r6, r7, r8, pc}
.Ltmp122:
.LBB0_79:
	@DEBUG_VALUE: HAL_DMA_Init:tickstart <- $r5
	@DEBUG_VALUE: HAL_DMA_Init:hdma <- $r4
	.loc	2 0 1 is_stmt 0                 @ libraries/STM32H7xx_HAL/STM32H7xx_HAL_Driver/Src/stm32h7xx_hal_dma.c:0:1
	movs	r0, #64
	b	.LBB0_65
.Lfunc_end0:
	.size	HAL_DMA_Init, .Lfunc_end0-HAL_DMA_Init
	.cfi_endproc
	.cantunwind
	.fnend
                                        @ -- End function
	.section	.text.DMA_CheckFifoParam,"ax",%progbits
	.p2align	3                               @ -- Begin function DMA_CheckFifoParam
	.type	DMA_CheckFifoParam,%function
	.code	16                              @ @DMA_CheckFifoParam
	.thumb_func
DMA_CheckFifoParam:
.Lfunc_begin1:
	.loc	2 1833 0 is_stmt 1              @ libraries/STM32H7xx_HAL/STM32H7xx_HAL_Driver/Src/stm32h7xx_hal_dma.c:1833:0
	.fnstart
	.cfi_startproc
@ %bb.0:
	@DEBUG_VALUE: DMA_CheckFifoParam:hdma <- $r0
	@DEBUG_VALUE: DMA_CheckFifoParam:hdma <- $r0
	@DEBUG_VALUE: DMA_CheckFifoParam:status <- 0
	.loc	2 1837 18 prologue_end          @ libraries/STM32H7xx_HAL/STM32H7xx_HAL_Driver/Src/stm32h7xx_hal_dma.c:1837:18
	ldr	r1, [r0, #24]
.Ltmp123:
	.loc	2 1837 7 is_stmt 0              @ libraries/STM32H7xx_HAL/STM32H7xx_HAL_Driver/Src/stm32h7xx_hal_dma.c:1837:7
	cmp.w	r1, #8192
	beq	.LBB1_5
.Ltmp124:
@ %bb.1:
	@DEBUG_VALUE: DMA_CheckFifoParam:hdma <- $r0
	@DEBUG_VALUE: DMA_CheckFifoParam:status <- 0
	cbnz	r1, .LBB1_9
.Ltmp125:
@ %bb.2:
	@DEBUG_VALUE: DMA_CheckFifoParam:hdma <- $r0
	@DEBUG_VALUE: DMA_CheckFifoParam:status <- 0
	.loc	2 1839 24 is_stmt 1             @ libraries/STM32H7xx_HAL/STM32H7xx_HAL_Driver/Src/stm32h7xx_hal_dma.c:1839:24
	ldr	r1, [r0, #40]
	.loc	2 1839 5 is_stmt 0              @ libraries/STM32H7xx_HAL/STM32H7xx_HAL_Driver/Src/stm32h7xx_hal_dma.c:1839:5
	cmp	r1, #2
	beq	.LBB1_11
.Ltmp126:
@ %bb.3:
	@DEBUG_VALUE: DMA_CheckFifoParam:hdma <- $r0
	@DEBUG_VALUE: DMA_CheckFifoParam:status <- 0
	cmp	r1, #1
	beq	.LBB1_13
.Ltmp127:
@ %bb.4:
	@DEBUG_VALUE: DMA_CheckFifoParam:hdma <- $r0
	@DEBUG_VALUE: DMA_CheckFifoParam:status <- 0
	cbz	r1, .LBB1_11
	b	.LBB1_12
.Ltmp128:
.LBB1_5:
	@DEBUG_VALUE: DMA_CheckFifoParam:hdma <- $r0
	@DEBUG_VALUE: DMA_CheckFifoParam:status <- 0
	.loc	2 1868 24 is_stmt 1             @ libraries/STM32H7xx_HAL/STM32H7xx_HAL_Driver/Src/stm32h7xx_hal_dma.c:1868:24
	ldr	r1, [r0, #40]
	.loc	2 1868 5 is_stmt 0              @ libraries/STM32H7xx_HAL/STM32H7xx_HAL_Driver/Src/stm32h7xx_hal_dma.c:1868:5
	cmp	r1, #3
	bhi	.LBB1_12
.Ltmp129:
@ %bb.6:
	@DEBUG_VALUE: DMA_CheckFifoParam:hdma <- $r0
	@DEBUG_VALUE: DMA_CheckFifoParam:status <- 0
	.loc	2 0 5                           @ libraries/STM32H7xx_HAL/STM32H7xx_HAL_Driver/Src/stm32h7xx_hal_dma.c:0:5
.LCPI1_0:
	tbb	[pc, r1]
.Ltmp130:
@ %bb.7:
.LJTI1_0:
	.byte	(.LBB1_8-(.LCPI1_0+4))/2
	.byte	(.LBB1_11-(.LCPI1_0+4))/2
	.byte	(.LBB1_8-(.LCPI1_0+4))/2
	.byte	(.LBB1_13-(.LCPI1_0+4))/2
	.p2align	1
.LBB1_8:
.Ltmp131:
	@DEBUG_VALUE: DMA_CheckFifoParam:hdma <- $r0
	@DEBUG_VALUE: DMA_CheckFifoParam:status <- 0
	movs	r0, #1
.Ltmp132:
	@DEBUG_VALUE: DMA_CheckFifoParam:hdma <- [DW_OP_LLVM_entry_value 1] $r0
	@DEBUG_VALUE: DMA_CheckFifoParam:status <- 1
	@DEBUG_VALUE: DMA_CheckFifoParam:status <- $r0
	.loc	2 1917 3 is_stmt 1              @ libraries/STM32H7xx_HAL/STM32H7xx_HAL_Driver/Src/stm32h7xx_hal_dma.c:1917:3
	bx	lr
.Ltmp133:
.LBB1_9:
	@DEBUG_VALUE: DMA_CheckFifoParam:hdma <- $r0
	@DEBUG_VALUE: DMA_CheckFifoParam:status <- 0
	.loc	2 1897 24                       @ libraries/STM32H7xx_HAL/STM32H7xx_HAL_Driver/Src/stm32h7xx_hal_dma.c:1897:24
	ldr	r1, [r0, #40]
	.loc	2 1897 5 is_stmt 0              @ libraries/STM32H7xx_HAL/STM32H7xx_HAL_Driver/Src/stm32h7xx_hal_dma.c:1897:5
	cmp	r1, #3
	itt	lo
	movlo	r0, #1
.Ltmp134:
	@DEBUG_VALUE: DMA_CheckFifoParam:hdma <- [DW_OP_LLVM_entry_value 1] $r0
	@DEBUG_VALUE: DMA_CheckFifoParam:status <- 1
	@DEBUG_VALUE: DMA_CheckFifoParam:status <- $r0
	.loc	2 1917 3 is_stmt 1              @ libraries/STM32H7xx_HAL/STM32H7xx_HAL_Driver/Src/stm32h7xx_hal_dma.c:1917:3
	bxlo	lr
.Ltmp135:
.LBB1_10:
	@DEBUG_VALUE: DMA_CheckFifoParam:status <- $r0
	@DEBUG_VALUE: DMA_CheckFifoParam:hdma <- [DW_OP_LLVM_entry_value 1] $r0
	.loc	2 1897 5                        @ libraries/STM32H7xx_HAL/STM32H7xx_HAL_Driver/Src/stm32h7xx_hal_dma.c:1897:5
	bne	.LBB1_12
.Ltmp136:
.LBB1_11:
	.loc	2 0 0 is_stmt 0                 @ libraries/STM32H7xx_HAL/STM32H7xx_HAL_Driver/Src/stm32h7xx_hal_dma.c:0:0
	ldr	r0, [r0, #44]
	ubfx	r0, r0, #24, #1
.Ltmp137:
	@DEBUG_VALUE: DMA_CheckFifoParam:status <- $r0
	.loc	2 1917 3 is_stmt 1              @ libraries/STM32H7xx_HAL/STM32H7xx_HAL_Driver/Src/stm32h7xx_hal_dma.c:1917:3
	bx	lr
.Ltmp138:
.LBB1_12:
	.loc	2 0 3 is_stmt 0                 @ libraries/STM32H7xx_HAL/STM32H7xx_HAL_Driver/Src/stm32h7xx_hal_dma.c:0:3
	movs	r0, #0
.Ltmp139:
	@DEBUG_VALUE: DMA_CheckFifoParam:status <- $r0
	.loc	2 1917 3                        @ libraries/STM32H7xx_HAL/STM32H7xx_HAL_Driver/Src/stm32h7xx_hal_dma.c:1917:3
	bx	lr
.Ltmp140:
.LBB1_13:
	@DEBUG_VALUE: DMA_CheckFifoParam:hdma <- $r0
	@DEBUG_VALUE: DMA_CheckFifoParam:status <- 0
	.loc	2 0 0                           @ libraries/STM32H7xx_HAL/STM32H7xx_HAL_Driver/Src/stm32h7xx_hal_dma.c:0:0
	ldr	r0, [r0, #44]
.Ltmp141:
	@DEBUG_VALUE: DMA_CheckFifoParam:hdma <- [DW_OP_LLVM_entry_value 1] $r0
	sub.w	r0, r0, #25165824
	clz	r0, r0
	lsrs	r0, r0, #5
.Ltmp142:
	bx	lr
.Ltmp143:
.Lfunc_end1:
	.size	DMA_CheckFifoParam, .Lfunc_end1-DMA_CheckFifoParam
	.cfi_endproc
	.cantunwind
	.fnend
                                        @ -- End function
	.section	.text.DMA_CalcBaseAndBitshift,"ax",%progbits
	.p2align	3                               @ -- Begin function DMA_CalcBaseAndBitshift
	.type	DMA_CalcBaseAndBitshift,%function
	.code	16                              @ @DMA_CalcBaseAndBitshift
	.thumb_func
DMA_CalcBaseAndBitshift:
.Lfunc_begin2:
	.loc	2 1797 0 is_stmt 1              @ libraries/STM32H7xx_HAL/STM32H7xx_HAL_Driver/Src/stm32h7xx_hal_dma.c:1797:0
	.fnstart
	.cfi_startproc
@ %bb.0:
	@DEBUG_VALUE: DMA_CalcBaseAndBitshift:hdma <- $r0
	@DEBUG_VALUE: DMA_CalcBaseAndBitshift:hdma <- $r0
	movw	r2, #1039
.Ltmp144:
	.loc	2 1798 6 prologue_end           @ libraries/STM32H7xx_HAL/STM32H7xx_HAL_Driver/Src/stm32h7xx_hal_dma.c:1798:6
	ldr	r1, [r0]
	movt	r2, #16386
	cmp	r1, r2
	bgt	.LBB2_5
.Ltmp145:
@ %bb.1:
	@DEBUG_VALUE: DMA_CalcBaseAndBitshift:hdma <- $r0
	.loc	2 0 6 is_stmt 0                 @ libraries/STM32H7xx_HAL/STM32H7xx_HAL_Driver/Src/stm32h7xx_hal_dma.c:0:6
	movs	r2, #111
	movt	r2, #16386
	.loc	2 1798 6                        @ libraries/STM32H7xx_HAL/STM32H7xx_HAL_Driver/Src/stm32h7xx_hal_dma.c:1798:6
	cmp	r1, r2
	bgt	.LBB2_9
.Ltmp146:
@ %bb.2:
	@DEBUG_VALUE: DMA_CalcBaseAndBitshift:hdma <- $r0
	.loc	2 0 6                           @ libraries/STM32H7xx_HAL/STM32H7xx_HAL_Driver/Src/stm32h7xx_hal_dma.c:0:6
	movs	r2, #63
	movt	r2, #16386
	.loc	2 1798 6                        @ libraries/STM32H7xx_HAL/STM32H7xx_HAL_Driver/Src/stm32h7xx_hal_dma.c:1798:6
	cmp	r1, r2
	bgt	.LBB2_15
.Ltmp147:
@ %bb.3:
	@DEBUG_VALUE: DMA_CalcBaseAndBitshift:hdma <- $r0
	.loc	2 0 6                           @ libraries/STM32H7xx_HAL/STM32H7xx_HAL_Driver/Src/stm32h7xx_hal_dma.c:0:6
	movs	r2, #16
	movt	r2, #16386
	.loc	2 1798 6                        @ libraries/STM32H7xx_HAL/STM32H7xx_HAL_Driver/Src/stm32h7xx_hal_dma.c:1798:6
	cmp	r1, r2
	beq	.LBB2_24
.Ltmp148:
@ %bb.4:
	@DEBUG_VALUE: DMA_CalcBaseAndBitshift:hdma <- $r0
	.loc	2 0 6                           @ libraries/STM32H7xx_HAL/STM32H7xx_HAL_Driver/Src/stm32h7xx_hal_dma.c:0:6
	movs	r2, #40
	b	.LBB2_23
.Ltmp149:
.LBB2_5:
	@DEBUG_VALUE: DMA_CalcBaseAndBitshift:hdma <- $r0
	movw	r2, #1135
	movt	r2, #16386
	.loc	2 1798 6                        @ libraries/STM32H7xx_HAL/STM32H7xx_HAL_Driver/Src/stm32h7xx_hal_dma.c:1798:6
	cmp	r1, r2
	bgt	.LBB2_12
.Ltmp150:
@ %bb.6:
	@DEBUG_VALUE: DMA_CalcBaseAndBitshift:hdma <- $r0
	.loc	2 0 6                           @ libraries/STM32H7xx_HAL/STM32H7xx_HAL_Driver/Src/stm32h7xx_hal_dma.c:0:6
	movw	r2, #1087
	movt	r2, #16386
	.loc	2 1798 6                        @ libraries/STM32H7xx_HAL/STM32H7xx_HAL_Driver/Src/stm32h7xx_hal_dma.c:1798:6
	cmp	r1, r2
	bgt	.LBB2_17
.Ltmp151:
@ %bb.7:
	@DEBUG_VALUE: DMA_CalcBaseAndBitshift:hdma <- $r0
	.loc	2 0 6                           @ libraries/STM32H7xx_HAL/STM32H7xx_HAL_Driver/Src/stm32h7xx_hal_dma.c:0:6
	movw	r2, #1040
	movt	r2, #16386
	.loc	2 1798 6                        @ libraries/STM32H7xx_HAL/STM32H7xx_HAL_Driver/Src/stm32h7xx_hal_dma.c:1798:6
	cmp	r1, r2
	beq	.LBB2_24
.Ltmp152:
@ %bb.8:
	@DEBUG_VALUE: DMA_CalcBaseAndBitshift:hdma <- $r0
	.loc	2 0 6                           @ libraries/STM32H7xx_HAL/STM32H7xx_HAL_Driver/Src/stm32h7xx_hal_dma.c:0:6
	movw	r2, #1064
	b	.LBB2_23
.Ltmp153:
.LBB2_9:
	@DEBUG_VALUE: DMA_CalcBaseAndBitshift:hdma <- $r0
	movs	r2, #159
	movt	r2, #16386
	.loc	2 1798 6                        @ libraries/STM32H7xx_HAL/STM32H7xx_HAL_Driver/Src/stm32h7xx_hal_dma.c:1798:6
	cmp	r1, r2
	bgt	.LBB2_19
.Ltmp154:
@ %bb.10:
	@DEBUG_VALUE: DMA_CalcBaseAndBitshift:hdma <- $r0
	.loc	2 0 6                           @ libraries/STM32H7xx_HAL/STM32H7xx_HAL_Driver/Src/stm32h7xx_hal_dma.c:0:6
	movs	r2, #112
	movt	r2, #16386
	.loc	2 1798 6                        @ libraries/STM32H7xx_HAL/STM32H7xx_HAL_Driver/Src/stm32h7xx_hal_dma.c:1798:6
	cmp	r1, r2
	beq	.LBB2_24
.Ltmp155:
@ %bb.11:
	@DEBUG_VALUE: DMA_CalcBaseAndBitshift:hdma <- $r0
	.loc	2 0 6                           @ libraries/STM32H7xx_HAL/STM32H7xx_HAL_Driver/Src/stm32h7xx_hal_dma.c:0:6
	movs	r2, #136
	b	.LBB2_23
.Ltmp156:
.LBB2_12:
	@DEBUG_VALUE: DMA_CalcBaseAndBitshift:hdma <- $r0
	movw	r2, #1183
	movt	r2, #16386
	.loc	2 1798 6                        @ libraries/STM32H7xx_HAL/STM32H7xx_HAL_Driver/Src/stm32h7xx_hal_dma.c:1798:6
	cmp	r1, r2
	bgt	.LBB2_21
.Ltmp157:
@ %bb.13:
	@DEBUG_VALUE: DMA_CalcBaseAndBitshift:hdma <- $r0
	.loc	2 0 6                           @ libraries/STM32H7xx_HAL/STM32H7xx_HAL_Driver/Src/stm32h7xx_hal_dma.c:0:6
	movw	r2, #1136
	movt	r2, #16386
	.loc	2 1798 6                        @ libraries/STM32H7xx_HAL/STM32H7xx_HAL_Driver/Src/stm32h7xx_hal_dma.c:1798:6
	cmp	r1, r2
	beq	.LBB2_24
.Ltmp158:
@ %bb.14:
	@DEBUG_VALUE: DMA_CalcBaseAndBitshift:hdma <- $r0
	.loc	2 0 6                           @ libraries/STM32H7xx_HAL/STM32H7xx_HAL_Driver/Src/stm32h7xx_hal_dma.c:0:6
	movw	r2, #1160
	b	.LBB2_23
.Ltmp159:
.LBB2_15:
	@DEBUG_VALUE: DMA_CalcBaseAndBitshift:hdma <- $r0
	movs	r2, #64
	movt	r2, #16386
	.loc	2 1798 6                        @ libraries/STM32H7xx_HAL/STM32H7xx_HAL_Driver/Src/stm32h7xx_hal_dma.c:1798:6
	cmp	r1, r2
	beq	.LBB2_24
.Ltmp160:
@ %bb.16:
	@DEBUG_VALUE: DMA_CalcBaseAndBitshift:hdma <- $r0
	.loc	2 0 6                           @ libraries/STM32H7xx_HAL/STM32H7xx_HAL_Driver/Src/stm32h7xx_hal_dma.c:0:6
	movs	r2, #88
	b	.LBB2_23
.Ltmp161:
.LBB2_17:
	@DEBUG_VALUE: DMA_CalcBaseAndBitshift:hdma <- $r0
	movw	r2, #1088
	movt	r2, #16386
	.loc	2 1798 6                        @ libraries/STM32H7xx_HAL/STM32H7xx_HAL_Driver/Src/stm32h7xx_hal_dma.c:1798:6
	cmp	r1, r2
	beq	.LBB2_24
.Ltmp162:
@ %bb.18:
	@DEBUG_VALUE: DMA_CalcBaseAndBitshift:hdma <- $r0
	.loc	2 0 6                           @ libraries/STM32H7xx_HAL/STM32H7xx_HAL_Driver/Src/stm32h7xx_hal_dma.c:0:6
	movw	r2, #1112
	b	.LBB2_23
.Ltmp163:
.LBB2_19:
	@DEBUG_VALUE: DMA_CalcBaseAndBitshift:hdma <- $r0
	movs	r2, #160
	movt	r2, #16386
	.loc	2 1798 6                        @ libraries/STM32H7xx_HAL/STM32H7xx_HAL_Driver/Src/stm32h7xx_hal_dma.c:1798:6
	cmp	r1, r2
	beq	.LBB2_24
.Ltmp164:
@ %bb.20:
	@DEBUG_VALUE: DMA_CalcBaseAndBitshift:hdma <- $r0
	.loc	2 0 6                           @ libraries/STM32H7xx_HAL/STM32H7xx_HAL_Driver/Src/stm32h7xx_hal_dma.c:0:6
	movs	r2, #184
	b	.LBB2_23
.Ltmp165:
.LBB2_21:
	@DEBUG_VALUE: DMA_CalcBaseAndBitshift:hdma <- $r0
	movw	r2, #1208
	movt	r2, #16386
	.loc	2 1798 6                        @ libraries/STM32H7xx_HAL/STM32H7xx_HAL_Driver/Src/stm32h7xx_hal_dma.c:1798:6
	cmp	r1, r2
	beq	.LBB2_24
.Ltmp166:
@ %bb.22:
	@DEBUG_VALUE: DMA_CalcBaseAndBitshift:hdma <- $r0
	.loc	2 0 6                           @ libraries/STM32H7xx_HAL/STM32H7xx_HAL_Driver/Src/stm32h7xx_hal_dma.c:0:6
	movw	r2, #1184
.Ltmp167:
.LBB2_23:
	@DEBUG_VALUE: DMA_CalcBaseAndBitshift:hdma <- $r0
	movt	r2, #16386
	.loc	2 1798 6                        @ libraries/STM32H7xx_HAL/STM32H7xx_HAL_Driver/Src/stm32h7xx_hal_dma.c:1798:6
	cmp	r1, r2
	bne	.LBB2_26
.Ltmp168:
.LBB2_24:
	@DEBUG_VALUE: DMA_CalcBaseAndBitshift:hdma <- $r0
	.loc	2 1800 60 is_stmt 1             @ libraries/STM32H7xx_HAL/STM32H7xx_HAL_Driver/Src/stm32h7xx_hal_dma.c:1800:60
	ldr.w	r12, [r0]
	mvn	r2, #15
	movw	r3, #43691
	.loc	2 1800 79 is_stmt 0             @ libraries/STM32H7xx_HAL/STM32H7xx_HAL_Driver/Src/stm32h7xx_hal_dma.c:1800:79
	uxtab	r2, r2, r12
	movt	r3, #43690
	.loc	2 1800 86                       @ libraries/STM32H7xx_HAL/STM32H7xx_HAL_Driver/Src/stm32h7xx_hal_dma.c:1800:86
	umull	r3, r1, r2, r3
.Ltmp169:
	@DEBUG_VALUE: stream_number <- undef
	.loc	2 1804 25 is_stmt 1             @ libraries/STM32H7xx_HAL/STM32H7xx_HAL_Driver/Src/stm32h7xx_hal_dma.c:1804:25
	adr	r3, .LCPI2_0
	.loc	2 1806 9                        @ libraries/STM32H7xx_HAL/STM32H7xx_HAL_Driver/Src/stm32h7xx_hal_dma.c:1806:9
	cmp	r2, #95
	.loc	2 1804 58                       @ libraries/STM32H7xx_HAL/STM32H7xx_HAL_Driver/Src/stm32h7xx_hal_dma.c:1804:58
	ubfx	r1, r1, #4, #3
	.loc	2 1804 25 is_stmt 0             @ libraries/STM32H7xx_HAL/STM32H7xx_HAL_Driver/Src/stm32h7xx_hal_dma.c:1804:25
	ldrb	r3, [r3, r1]
	movw	r1, #1023
.Ltmp170:
	.loc	2 0 0                           @ libraries/STM32H7xx_HAL/STM32H7xx_HAL_Driver/Src/stm32h7xx_hal_dma.c:0:0
	bic.w	r1, r12, r1
.Ltmp171:
	.loc	2 1804 23                       @ libraries/STM32H7xx_HAL/STM32H7xx_HAL_Driver/Src/stm32h7xx_hal_dma.c:1804:23
	str	r3, [r0, #92]
	.loc	2 1806 9 is_stmt 1              @ libraries/STM32H7xx_HAL/STM32H7xx_HAL_Driver/Src/stm32h7xx_hal_dma.c:1806:9
	it	hi
	addhi	r1, #4
.Ltmp172:
.LBB2_25:
	@DEBUG_VALUE: DMA_CalcBaseAndBitshift:hdma <- $r0
	.loc	2 0 0 is_stmt 0                 @ libraries/STM32H7xx_HAL/STM32H7xx_HAL_Driver/Src/stm32h7xx_hal_dma.c:0:0
	str	r1, [r0, #88]
.Ltmp173:
	.loc	2 1823 3 is_stmt 1              @ libraries/STM32H7xx_HAL/STM32H7xx_HAL_Driver/Src/stm32h7xx_hal_dma.c:1823:3
	mov	r0, r1
.Ltmp174:
	@DEBUG_VALUE: DMA_CalcBaseAndBitshift:hdma <- [DW_OP_LLVM_entry_value 1] $r0
	bx	lr
.Ltmp175:
.LBB2_26:
	@DEBUG_VALUE: DMA_CalcBaseAndBitshift:hdma <- $r0
	.loc	2 1820 60                       @ libraries/STM32H7xx_HAL/STM32H7xx_HAL_Driver/Src/stm32h7xx_hal_dma.c:1820:60
	ldr	r1, [r0]
	.loc	2 1820 70 is_stmt 0             @ libraries/STM32H7xx_HAL/STM32H7xx_HAL_Driver/Src/stm32h7xx_hal_dma.c:1820:70
	bic	r1, r1, #255
	b	.LBB2_25
.Ltmp176:
	.p2align	2
@ %bb.27:
	.loc	2 0 70                          @ libraries/STM32H7xx_HAL/STM32H7xx_HAL_Driver/Src/stm32h7xx_hal_dma.c:0:70
.LCPI2_0:
DMA_CalcBaseAndBitshift.flagBitshiftOffset:
	.ascii	"\000\006\020\026\000\006\020\026"
.Lfunc_end2:
	.size	DMA_CalcBaseAndBitshift, .Lfunc_end2-DMA_CalcBaseAndBitshift
	.cfi_endproc
	.cantunwind
	.fnend
                                        @ -- End function
	.section	.text.DMA_CalcDMAMUXChannelBaseAndMask,"ax",%progbits
	.p2align	3                               @ -- Begin function DMA_CalcDMAMUXChannelBaseAndMask
	.type	DMA_CalcDMAMUXChannelBaseAndMask,%function
	.code	16                              @ @DMA_CalcDMAMUXChannelBaseAndMask
	.thumb_func
DMA_CalcDMAMUXChannelBaseAndMask:
.Lfunc_begin3:
	.loc	2 1927 0 is_stmt 1              @ libraries/STM32H7xx_HAL/STM32H7xx_HAL_Driver/Src/stm32h7xx_hal_dma.c:1927:0
	.fnstart
	.cfi_startproc
@ %bb.0:
	@DEBUG_VALUE: DMA_CalcDMAMUXChannelBaseAndMask:hdma <- $r0
	@DEBUG_VALUE: DMA_CalcDMAMUXChannelBaseAndMask:hdma <- $r0
	.save	{r4, lr}
	push	{r4, lr}
	.cfi_def_cfa_offset 8
	.cfi_offset lr, -4
	.cfi_offset r4, -8
	movw	r2, #21591
.Ltmp177:
	.loc	2 1929 61 prologue_end          @ libraries/STM32H7xx_HAL/STM32H7xx_HAL_Driver/Src/stm32h7xx_hal_dma.c:1929:61
	ldr	r1, [r0]
.Ltmp178:
	@DEBUG_VALUE: DMA_CalcDMAMUXChannelBaseAndMask:stream_baseaddress <- $r1
	.loc	2 0 61 is_stmt 0                @ libraries/STM32H7xx_HAL/STM32H7xx_HAL_Driver/Src/stm32h7xx_hal_dma.c:0:61
	movt	r2, #22530
.Ltmp179:
	.loc	2 1931 6 is_stmt 1              @ libraries/STM32H7xx_HAL/STM32H7xx_HAL_Driver/Src/stm32h7xx_hal_dma.c:1931:6
	cmp	r1, r2
	bgt	.LBB3_4
.Ltmp180:
@ %bb.1:
	@DEBUG_VALUE: DMA_CalcDMAMUXChannelBaseAndMask:stream_baseaddress <- $r1
	@DEBUG_VALUE: DMA_CalcDMAMUXChannelBaseAndMask:hdma <- $r0
	.loc	2 0 6 is_stmt 0                 @ libraries/STM32H7xx_HAL/STM32H7xx_HAL_Driver/Src/stm32h7xx_hal_dma.c:0:6
	movw	r2, #21551
	movt	r2, #22530
	.loc	2 1931 6                        @ libraries/STM32H7xx_HAL/STM32H7xx_HAL_Driver/Src/stm32h7xx_hal_dma.c:1931:6
	cmp	r1, r2
	bgt	.LBB3_7
.Ltmp181:
@ %bb.2:
	@DEBUG_VALUE: DMA_CalcDMAMUXChannelBaseAndMask:stream_baseaddress <- $r1
	@DEBUG_VALUE: DMA_CalcDMAMUXChannelBaseAndMask:hdma <- $r0
	.loc	2 0 6                           @ libraries/STM32H7xx_HAL/STM32H7xx_HAL_Driver/Src/stm32h7xx_hal_dma.c:0:6
	movw	r2, #21512
	movt	r2, #22530
	.loc	2 1931 6                        @ libraries/STM32H7xx_HAL/STM32H7xx_HAL_Driver/Src/stm32h7xx_hal_dma.c:1931:6
	cmp	r1, r2
	beq	.LBB3_12
.Ltmp182:
@ %bb.3:
	@DEBUG_VALUE: DMA_CalcDMAMUXChannelBaseAndMask:stream_baseaddress <- $r1
	@DEBUG_VALUE: DMA_CalcDMAMUXChannelBaseAndMask:hdma <- $r0
	.loc	2 0 6                           @ libraries/STM32H7xx_HAL/STM32H7xx_HAL_Driver/Src/stm32h7xx_hal_dma.c:0:6
	movw	r2, #21532
	b	.LBB3_11
.Ltmp183:
.LBB3_4:
	@DEBUG_VALUE: DMA_CalcDMAMUXChannelBaseAndMask:stream_baseaddress <- $r1
	@DEBUG_VALUE: DMA_CalcDMAMUXChannelBaseAndMask:hdma <- $r0
	movw	r2, #21631
	movt	r2, #22530
	.loc	2 1931 6                        @ libraries/STM32H7xx_HAL/STM32H7xx_HAL_Driver/Src/stm32h7xx_hal_dma.c:1931:6
	cmp	r1, r2
	bgt	.LBB3_9
.Ltmp184:
@ %bb.5:
	@DEBUG_VALUE: DMA_CalcDMAMUXChannelBaseAndMask:stream_baseaddress <- $r1
	@DEBUG_VALUE: DMA_CalcDMAMUXChannelBaseAndMask:hdma <- $r0
	.loc	2 0 6                           @ libraries/STM32H7xx_HAL/STM32H7xx_HAL_Driver/Src/stm32h7xx_hal_dma.c:0:6
	movw	r2, #21592
	movt	r2, #22530
	.loc	2 1931 6                        @ libraries/STM32H7xx_HAL/STM32H7xx_HAL_Driver/Src/stm32h7xx_hal_dma.c:1931:6
	cmp	r1, r2
	beq	.LBB3_12
.Ltmp185:
@ %bb.6:
	@DEBUG_VALUE: DMA_CalcDMAMUXChannelBaseAndMask:stream_baseaddress <- $r1
	@DEBUG_VALUE: DMA_CalcDMAMUXChannelBaseAndMask:hdma <- $r0
	.loc	2 0 6                           @ libraries/STM32H7xx_HAL/STM32H7xx_HAL_Driver/Src/stm32h7xx_hal_dma.c:0:6
	movw	r2, #21612
	b	.LBB3_11
.Ltmp186:
.LBB3_7:
	@DEBUG_VALUE: DMA_CalcDMAMUXChannelBaseAndMask:stream_baseaddress <- $r1
	@DEBUG_VALUE: DMA_CalcDMAMUXChannelBaseAndMask:hdma <- $r0
	movw	r2, #21552
	movt	r2, #22530
	.loc	2 1931 6                        @ libraries/STM32H7xx_HAL/STM32H7xx_HAL_Driver/Src/stm32h7xx_hal_dma.c:1931:6
	cmp	r1, r2
	beq	.LBB3_12
.Ltmp187:
@ %bb.8:
	@DEBUG_VALUE: DMA_CalcDMAMUXChannelBaseAndMask:stream_baseaddress <- $r1
	@DEBUG_VALUE: DMA_CalcDMAMUXChannelBaseAndMask:hdma <- $r0
	.loc	2 0 6                           @ libraries/STM32H7xx_HAL/STM32H7xx_HAL_Driver/Src/stm32h7xx_hal_dma.c:0:6
	movw	r2, #21572
	b	.LBB3_11
.Ltmp188:
.LBB3_9:
	@DEBUG_VALUE: DMA_CalcDMAMUXChannelBaseAndMask:stream_baseaddress <- $r1
	@DEBUG_VALUE: DMA_CalcDMAMUXChannelBaseAndMask:hdma <- $r0
	movw	r2, #21652
	movt	r2, #22530
	.loc	2 1931 6                        @ libraries/STM32H7xx_HAL/STM32H7xx_HAL_Driver/Src/stm32h7xx_hal_dma.c:1931:6
	cmp	r1, r2
	beq	.LBB3_12
.Ltmp189:
@ %bb.10:
	@DEBUG_VALUE: DMA_CalcDMAMUXChannelBaseAndMask:stream_baseaddress <- $r1
	@DEBUG_VALUE: DMA_CalcDMAMUXChannelBaseAndMask:hdma <- $r0
	.loc	2 0 6                           @ libraries/STM32H7xx_HAL/STM32H7xx_HAL_Driver/Src/stm32h7xx_hal_dma.c:0:6
	movw	r2, #21632
.Ltmp190:
.LBB3_11:
	@DEBUG_VALUE: DMA_CalcDMAMUXChannelBaseAndMask:stream_baseaddress <- $r1
	@DEBUG_VALUE: DMA_CalcDMAMUXChannelBaseAndMask:hdma <- $r0
	movt	r2, #22530
	.loc	2 1931 6                        @ libraries/STM32H7xx_HAL/STM32H7xx_HAL_Driver/Src/stm32h7xx_hal_dma.c:1931:6
	cmp	r1, r2
	bne	.LBB3_14
.Ltmp191:
.LBB3_12:
	@DEBUG_VALUE: DMA_CalcDMAMUXChannelBaseAndMask:stream_baseaddress <- $r1
	@DEBUG_VALUE: DMA_CalcDMAMUXChannelBaseAndMask:hdma <- $r0
	.loc	2 1934 51 is_stmt 1             @ libraries/STM32H7xx_HAL/STM32H7xx_HAL_Driver/Src/stm32h7xx_hal_dma.c:1934:51
	ldrb	r1, [r0]
.Ltmp192:
	.loc	2 0 51 is_stmt 0                @ libraries/STM32H7xx_HAL/STM32H7xx_HAL_Driver/Src/stm32h7xx_hal_dma.c:0:51
	movw	r2, #52429
	movt	r2, #52428
	movw	r3, #22528
	.loc	2 1934 70                       @ libraries/STM32H7xx_HAL/STM32H7xx_HAL_Driver/Src/stm32h7xx_hal_dma.c:1934:70
	subs	r1, #8
	movt	r3, #22530
	.loc	2 1934 76                       @ libraries/STM32H7xx_HAL/STM32H7xx_HAL_Driver/Src/stm32h7xx_hal_dma.c:1934:76
	umull	r1, r2, r1, r2
	add.w	r1, r3, #128
	lsrs	r2, r2, #4
.Ltmp193:
	@DEBUG_VALUE: DMA_CalcDMAMUXChannelBaseAndMask:stream_number <- $r2
.LBB3_13:
	@DEBUG_VALUE: DMA_CalcDMAMUXChannelBaseAndMask:stream_number <- $r2
	@DEBUG_VALUE: DMA_CalcDMAMUXChannelBaseAndMask:hdma <- $r0
	.loc	2 0 0                           @ libraries/STM32H7xx_HAL/STM32H7xx_HAL_Driver/Src/stm32h7xx_hal_dma.c:0:0
	add.w	r3, r3, r2, lsl #2
	and	r2, r2, #31
.Ltmp194:
	str	r3, [r0, #96]
	movs	r3, #1
	str	r1, [r0, #100]
	lsl.w	r1, r3, r2
	str	r1, [r0, #104]
.Ltmp195:
	.loc	2 1953 1 is_stmt 1              @ libraries/STM32H7xx_HAL/STM32H7xx_HAL_Driver/Src/stm32h7xx_hal_dma.c:1953:1
	pop	{r4, pc}
.Ltmp196:
.LBB3_14:
	@DEBUG_VALUE: DMA_CalcDMAMUXChannelBaseAndMask:stream_baseaddress <- $r1
	@DEBUG_VALUE: DMA_CalcDMAMUXChannelBaseAndMask:hdma <- $r0
	.loc	2 1942 51                       @ libraries/STM32H7xx_HAL/STM32H7xx_HAL_Driver/Src/stm32h7xx_hal_dma.c:1942:51
	ldrb	r2, [r0]
	movw	r3, #43691
	movt	r3, #43690
	mov.w	lr, #8
	.loc	2 1942 70 is_stmt 0             @ libraries/STM32H7xx_HAL/STM32H7xx_HAL_Driver/Src/stm32h7xx_hal_dma.c:1942:70
	subs	r2, #16
	.loc	2 1942 77                       @ libraries/STM32H7xx_HAL/STM32H7xx_HAL_Driver/Src/stm32h7xx_hal_dma.c:1942:77
	umull	r2, r3, r2, r3
	movw	r2, #1039
	movt	r2, #16386
	lsr.w	r12, r3, #4
.Ltmp197:
	@DEBUG_VALUE: DMA_CalcDMAMUXChannelBaseAndMask:stream_number <- $r12
	.loc	2 1944 58 is_stmt 1             @ libraries/STM32H7xx_HAL/STM32H7xx_HAL_Driver/Src/stm32h7xx_hal_dma.c:1944:58
	cmp	r1, r2
	.loc	2 1944 28 is_stmt 0             @ libraries/STM32H7xx_HAL/STM32H7xx_HAL_Driver/Src/stm32h7xx_hal_dma.c:1944:28
	add.w	r4, r2, #170
	.loc	2 1944 58                       @ libraries/STM32H7xx_HAL/STM32H7xx_HAL_Driver/Src/stm32h7xx_hal_dma.c:1944:58
	mov	r2, r12
	it	hi
	addhi.w	r2, lr, r3, lsr #4
	movw	r3, #2048
	cmp	r1, r4
	movt	r3, #16386
	add.w	r1, r3, #128
.Ltmp198:
	it	hs
	movhs	r2, r12
.Ltmp199:
	@DEBUG_VALUE: DMA_CalcDMAMUXChannelBaseAndMask:stream_number <- $r2
	.loc	2 0 58                          @ libraries/STM32H7xx_HAL/STM32H7xx_HAL_Driver/Src/stm32h7xx_hal_dma.c:0:58
	b	.LBB3_13
.Ltmp200:
.Lfunc_end3:
	.size	DMA_CalcDMAMUXChannelBaseAndMask, .Lfunc_end3-DMA_CalcDMAMUXChannelBaseAndMask
	.cfi_endproc
	.cantunwind
	.fnend
                                        @ -- End function
	.section	.text.DMA_CalcDMAMUXRequestGenBaseAndMask,"ax",%progbits
	.p2align	3                               @ -- Begin function DMA_CalcDMAMUXRequestGenBaseAndMask
	.type	DMA_CalcDMAMUXRequestGenBaseAndMask,%function
	.code	16                              @ @DMA_CalcDMAMUXRequestGenBaseAndMask
	.thumb_func
DMA_CalcDMAMUXRequestGenBaseAndMask:
.Lfunc_begin4:
	.loc	2 1962 0 is_stmt 1              @ libraries/STM32H7xx_HAL/STM32H7xx_HAL_Driver/Src/stm32h7xx_hal_dma.c:1962:0
	.fnstart
	.cfi_startproc
@ %bb.0:
	@DEBUG_VALUE: DMA_CalcDMAMUXRequestGenBaseAndMask:hdma <- $r0
	@DEBUG_VALUE: DMA_CalcDMAMUXRequestGenBaseAndMask:hdma <- $r0
	.save	{r4, lr}
	push	{r4, lr}
	.cfi_def_cfa_offset 8
	.cfi_offset lr, -4
	.cfi_offset r4, -8
.Ltmp201:
	.loc	2 1963 34 prologue_end          @ libraries/STM32H7xx_HAL/STM32H7xx_HAL_Driver/Src/stm32h7xx_hal_dma.c:1963:34
	ldrb	r2, [r0, #4]
.Ltmp202:
	@DEBUG_VALUE: DMA_CalcDMAMUXRequestGenBaseAndMask:request <- $r2
	.loc	2 1965 42                       @ libraries/STM32H7xx_HAL/STM32H7xx_HAL_Driver/Src/stm32h7xx_hal_dma.c:1965:42
	subs	r1, r2, #1
	cmp	r1, #7
.Ltmp203:
	.loc	2 1984 1                        @ libraries/STM32H7xx_HAL/STM32H7xx_HAL_Driver/Src/stm32h7xx_hal_dma.c:1984:1
	it	hi
	pophi	{r4, pc}
.Ltmp204:
.LBB4_1:
	@DEBUG_VALUE: DMA_CalcDMAMUXRequestGenBaseAndMask:request <- $r2
	@DEBUG_VALUE: DMA_CalcDMAMUXRequestGenBaseAndMask:hdma <- $r0
	.loc	2 0 1 is_stmt 0                 @ libraries/STM32H7xx_HAL/STM32H7xx_HAL_Driver/Src/stm32h7xx_hal_dma.c:0:1
	movw	r12, #21591
	movw	lr, #22780
.Ltmp205:
	.loc	2 1967 8 is_stmt 1              @ libraries/STM32H7xx_HAL/STM32H7xx_HAL_Driver/Src/stm32h7xx_hal_dma.c:1967:8
	ldr	r3, [r0]
	movt	r12, #22530
	movt	lr, #22530
	cmp	r3, r12
	add.w	r12, lr, #68
	bgt	.LBB4_5
.Ltmp206:
@ %bb.2:
	@DEBUG_VALUE: DMA_CalcDMAMUXRequestGenBaseAndMask:request <- $r2
	@DEBUG_VALUE: DMA_CalcDMAMUXRequestGenBaseAndMask:hdma <- $r0
	.loc	2 0 8 is_stmt 0                 @ libraries/STM32H7xx_HAL/STM32H7xx_HAL_Driver/Src/stm32h7xx_hal_dma.c:0:8
	movw	r4, #21551
	movt	r4, #22530
	.loc	2 1967 8                        @ libraries/STM32H7xx_HAL/STM32H7xx_HAL_Driver/Src/stm32h7xx_hal_dma.c:1967:8
	cmp	r3, r4
	bgt	.LBB4_8
.Ltmp207:
@ %bb.3:
	@DEBUG_VALUE: DMA_CalcDMAMUXRequestGenBaseAndMask:request <- $r2
	@DEBUG_VALUE: DMA_CalcDMAMUXRequestGenBaseAndMask:hdma <- $r0
	.loc	2 0 8                           @ libraries/STM32H7xx_HAL/STM32H7xx_HAL_Driver/Src/stm32h7xx_hal_dma.c:0:8
	movw	r4, #21512
	movt	r4, #22530
	.loc	2 1967 8                        @ libraries/STM32H7xx_HAL/STM32H7xx_HAL_Driver/Src/stm32h7xx_hal_dma.c:1967:8
	cmp	r3, r4
	beq	.LBB4_13
.Ltmp208:
@ %bb.4:
	@DEBUG_VALUE: DMA_CalcDMAMUXRequestGenBaseAndMask:request <- $r2
	@DEBUG_VALUE: DMA_CalcDMAMUXRequestGenBaseAndMask:hdma <- $r0
	.loc	2 0 8                           @ libraries/STM32H7xx_HAL/STM32H7xx_HAL_Driver/Src/stm32h7xx_hal_dma.c:0:8
	movw	r4, #21532
	b	.LBB4_12
.Ltmp209:
.LBB4_5:
	@DEBUG_VALUE: DMA_CalcDMAMUXRequestGenBaseAndMask:request <- $r2
	@DEBUG_VALUE: DMA_CalcDMAMUXRequestGenBaseAndMask:hdma <- $r0
	movw	r4, #21631
	movt	r4, #22530
	.loc	2 1967 8                        @ libraries/STM32H7xx_HAL/STM32H7xx_HAL_Driver/Src/stm32h7xx_hal_dma.c:1967:8
	cmp	r3, r4
	bgt	.LBB4_10
.Ltmp210:
@ %bb.6:
	@DEBUG_VALUE: DMA_CalcDMAMUXRequestGenBaseAndMask:request <- $r2
	@DEBUG_VALUE: DMA_CalcDMAMUXRequestGenBaseAndMask:hdma <- $r0
	.loc	2 0 8                           @ libraries/STM32H7xx_HAL/STM32H7xx_HAL_Driver/Src/stm32h7xx_hal_dma.c:0:8
	movw	r4, #21592
	movt	r4, #22530
	.loc	2 1967 8                        @ libraries/STM32H7xx_HAL/STM32H7xx_HAL_Driver/Src/stm32h7xx_hal_dma.c:1967:8
	cmp	r3, r4
	beq	.LBB4_13
.Ltmp211:
@ %bb.7:
	@DEBUG_VALUE: DMA_CalcDMAMUXRequestGenBaseAndMask:request <- $r2
	@DEBUG_VALUE: DMA_CalcDMAMUXRequestGenBaseAndMask:hdma <- $r0
	.loc	2 0 8                           @ libraries/STM32H7xx_HAL/STM32H7xx_HAL_Driver/Src/stm32h7xx_hal_dma.c:0:8
	movw	r4, #21612
	b	.LBB4_12
.Ltmp212:
.LBB4_8:
	@DEBUG_VALUE: DMA_CalcDMAMUXRequestGenBaseAndMask:request <- $r2
	@DEBUG_VALUE: DMA_CalcDMAMUXRequestGenBaseAndMask:hdma <- $r0
	movw	r4, #21552
	movt	r4, #22530
	.loc	2 1967 8                        @ libraries/STM32H7xx_HAL/STM32H7xx_HAL_Driver/Src/stm32h7xx_hal_dma.c:1967:8
	cmp	r3, r4
	beq	.LBB4_13
.Ltmp213:
@ %bb.9:
	@DEBUG_VALUE: DMA_CalcDMAMUXRequestGenBaseAndMask:request <- $r2
	@DEBUG_VALUE: DMA_CalcDMAMUXRequestGenBaseAndMask:hdma <- $r0
	.loc	2 0 8                           @ libraries/STM32H7xx_HAL/STM32H7xx_HAL_Driver/Src/stm32h7xx_hal_dma.c:0:8
	movw	r4, #21572
	b	.LBB4_12
.Ltmp214:
.LBB4_10:
	@DEBUG_VALUE: DMA_CalcDMAMUXRequestGenBaseAndMask:request <- $r2
	@DEBUG_VALUE: DMA_CalcDMAMUXRequestGenBaseAndMask:hdma <- $r0
	movw	r4, #21632
	movt	r4, #22530
	.loc	2 1967 8                        @ libraries/STM32H7xx_HAL/STM32H7xx_HAL_Driver/Src/stm32h7xx_hal_dma.c:1967:8
	cmp	r3, r4
	beq	.LBB4_13
.Ltmp215:
@ %bb.11:
	@DEBUG_VALUE: DMA_CalcDMAMUXRequestGenBaseAndMask:request <- $r2
	@DEBUG_VALUE: DMA_CalcDMAMUXRequestGenBaseAndMask:hdma <- $r0
	.loc	2 0 8                           @ libraries/STM32H7xx_HAL/STM32H7xx_HAL_Driver/Src/stm32h7xx_hal_dma.c:0:8
	movw	r4, #21652
.Ltmp216:
.LBB4_12:
	@DEBUG_VALUE: DMA_CalcDMAMUXRequestGenBaseAndMask:request <- $r2
	@DEBUG_VALUE: DMA_CalcDMAMUXRequestGenBaseAndMask:hdma <- $r0
	movt	r4, #22530
	.loc	2 1967 8                        @ libraries/STM32H7xx_HAL/STM32H7xx_HAL_Driver/Src/stm32h7xx_hal_dma.c:1967:8
	cmp	r3, r4
	bne	.LBB4_14
.Ltmp217:
.LBB4_13:
	@DEBUG_VALUE: DMA_CalcDMAMUXRequestGenBaseAndMask:request <- $r2
	@DEBUG_VALUE: DMA_CalcDMAMUXRequestGenBaseAndMask:hdma <- $r0
	.loc	2 0 0                           @ libraries/STM32H7xx_HAL/STM32H7xx_HAL_Driver/Src/stm32h7xx_hal_dma.c:0:0
	add.w	r2, lr, r2, lsl #2
.Ltmp218:
	str	r2, [r0, #108]
	movs	r2, #1
	str.w	r12, [r0, #112]
.Ltmp219:
	.loc	2 1982 44 is_stmt 1             @ libraries/STM32H7xx_HAL/STM32H7xx_HAL_Driver/Src/stm32h7xx_hal_dma.c:1982:44
	lsl.w	r1, r2, r1
	.loc	2 1982 38 is_stmt 0             @ libraries/STM32H7xx_HAL/STM32H7xx_HAL_Driver/Src/stm32h7xx_hal_dma.c:1982:38
	str	r1, [r0, #116]
.Ltmp220:
	.loc	2 1984 1 is_stmt 1              @ libraries/STM32H7xx_HAL/STM32H7xx_HAL_Driver/Src/stm32h7xx_hal_dma.c:1984:1
	pop	{r4, pc}
.Ltmp221:
.LBB4_14:
	@DEBUG_VALUE: DMA_CalcDMAMUXRequestGenBaseAndMask:request <- $r2
	@DEBUG_VALUE: DMA_CalcDMAMUXRequestGenBaseAndMask:hdma <- $r0
	.loc	2 0 1 is_stmt 0                 @ libraries/STM32H7xx_HAL/STM32H7xx_HAL_Driver/Src/stm32h7xx_hal_dma.c:0:1
	movw	lr, #2300
	movt	lr, #16386
	add.w	r12, lr, #68
	b	.LBB4_13
.Lfunc_end4:
	.size	DMA_CalcDMAMUXRequestGenBaseAndMask, .Lfunc_end4-DMA_CalcDMAMUXRequestGenBaseAndMask
	.cfi_endproc
	.cantunwind
	.fnend
                                        @ -- End function
	.section	.text.HAL_DMA_DeInit,"ax",%progbits
	.hidden	HAL_DMA_DeInit                  @ -- Begin function HAL_DMA_DeInit
	.globl	HAL_DMA_DeInit
	.p2align	3
	.type	HAL_DMA_DeInit,%function
	.code	16                              @ @HAL_DMA_DeInit
	.thumb_func
HAL_DMA_DeInit:
.Lfunc_begin5:
	.loc	2 431 0 is_stmt 1               @ libraries/STM32H7xx_HAL/STM32H7xx_HAL_Driver/Src/stm32h7xx_hal_dma.c:431:0
	.fnstart
	.cfi_startproc
@ %bb.0:
	@DEBUG_VALUE: HAL_DMA_DeInit:hdma <- $r0
	@DEBUG_VALUE: HAL_DMA_DeInit:hdma <- $r0
	.save	{r4, lr}
	push	{r4, lr}
	.cfi_def_cfa_offset 8
	.cfi_offset lr, -4
	.cfi_offset r4, -8
.Ltmp222:
	.loc	2 436 6 prologue_end            @ libraries/STM32H7xx_HAL/STM32H7xx_HAL_Driver/Src/stm32h7xx_hal_dma.c:436:6
	cbz	r0, .LBB5_6
.Ltmp223:
@ %bb.1:
	@DEBUG_VALUE: HAL_DMA_DeInit:hdma <- $r0
	.loc	2 0 6 is_stmt 0                 @ libraries/STM32H7xx_HAL/STM32H7xx_HAL_Driver/Src/stm32h7xx_hal_dma.c:0:6
	mov	r4, r0
.Ltmp224:
	@DEBUG_VALUE: HAL_DMA_DeInit:hdma <- $r4
	.loc	2 442 3 is_stmt 1               @ libraries/STM32H7xx_HAL/STM32H7xx_HAL_Driver/Src/stm32h7xx_hal_dma.c:442:3
	ldr	r1, [r0]
	movw	r0, #1039
	movt	r0, #16386
	cmp	r1, r0
	movw	r0, #1135
	movt	r0, #16386
	bgt	.LBB5_7
.Ltmp225:
@ %bb.2:
	@DEBUG_VALUE: HAL_DMA_DeInit:hdma <- $r4
	.loc	2 0 3 is_stmt 0                 @ libraries/STM32H7xx_HAL/STM32H7xx_HAL_Driver/Src/stm32h7xx_hal_dma.c:0:3
	movs	r2, #111
	movt	r2, #16386
	.loc	2 442 3                         @ libraries/STM32H7xx_HAL/STM32H7xx_HAL_Driver/Src/stm32h7xx_hal_dma.c:442:3
	cmp	r1, r2
	bgt	.LBB5_11
.Ltmp226:
@ %bb.3:
	@DEBUG_VALUE: HAL_DMA_DeInit:hdma <- $r4
	.loc	2 0 3                           @ libraries/STM32H7xx_HAL/STM32H7xx_HAL_Driver/Src/stm32h7xx_hal_dma.c:0:3
	movs	r2, #63
	movt	r2, #16386
	.loc	2 442 3                         @ libraries/STM32H7xx_HAL/STM32H7xx_HAL_Driver/Src/stm32h7xx_hal_dma.c:442:3
	cmp	r1, r2
	bgt	.LBB5_17
.Ltmp227:
@ %bb.4:
	@DEBUG_VALUE: HAL_DMA_DeInit:hdma <- $r4
	.loc	2 0 3                           @ libraries/STM32H7xx_HAL/STM32H7xx_HAL_Driver/Src/stm32h7xx_hal_dma.c:0:3
	movs	r2, #16
	movt	r2, #16386
	.loc	2 442 3                         @ libraries/STM32H7xx_HAL/STM32H7xx_HAL_Driver/Src/stm32h7xx_hal_dma.c:442:3
	cmp	r1, r2
	beq	.LBB5_26
.Ltmp228:
@ %bb.5:
	@DEBUG_VALUE: HAL_DMA_DeInit:hdma <- $r4
	.loc	2 0 3                           @ libraries/STM32H7xx_HAL/STM32H7xx_HAL_Driver/Src/stm32h7xx_hal_dma.c:0:3
	movs	r2, #40
	b	.LBB5_25
.Ltmp229:
.LBB5_6:
	@DEBUG_VALUE: HAL_DMA_DeInit:hdma <- $r0
	movs	r0, #1
.Ltmp230:
	@DEBUG_VALUE: HAL_DMA_DeInit:hdma <- [DW_OP_LLVM_entry_value 1] $r0
	.loc	2 547 1 is_stmt 1               @ libraries/STM32H7xx_HAL/STM32H7xx_HAL_Driver/Src/stm32h7xx_hal_dma.c:547:1
	pop	{r4, pc}
.Ltmp231:
.LBB5_7:
	@DEBUG_VALUE: HAL_DMA_DeInit:hdma <- $r4
	.loc	2 442 3                         @ libraries/STM32H7xx_HAL/STM32H7xx_HAL_Driver/Src/stm32h7xx_hal_dma.c:442:3
	cmp	r1, r0
	bgt	.LBB5_14
.Ltmp232:
@ %bb.8:
	@DEBUG_VALUE: HAL_DMA_DeInit:hdma <- $r4
	.loc	2 0 3 is_stmt 0                 @ libraries/STM32H7xx_HAL/STM32H7xx_HAL_Driver/Src/stm32h7xx_hal_dma.c:0:3
	movw	r2, #1087
	movt	r2, #16386
	.loc	2 442 3                         @ libraries/STM32H7xx_HAL/STM32H7xx_HAL_Driver/Src/stm32h7xx_hal_dma.c:442:3
	cmp	r1, r2
	bgt	.LBB5_19
.Ltmp233:
@ %bb.9:
	@DEBUG_VALUE: HAL_DMA_DeInit:hdma <- $r4
	.loc	2 0 3                           @ libraries/STM32H7xx_HAL/STM32H7xx_HAL_Driver/Src/stm32h7xx_hal_dma.c:0:3
	movw	r2, #1040
	movt	r2, #16386
	.loc	2 442 3                         @ libraries/STM32H7xx_HAL/STM32H7xx_HAL_Driver/Src/stm32h7xx_hal_dma.c:442:3
	cmp	r1, r2
	beq	.LBB5_26
.Ltmp234:
@ %bb.10:
	@DEBUG_VALUE: HAL_DMA_DeInit:hdma <- $r4
	.loc	2 0 3                           @ libraries/STM32H7xx_HAL/STM32H7xx_HAL_Driver/Src/stm32h7xx_hal_dma.c:0:3
	movw	r2, #1064
	b	.LBB5_25
.Ltmp235:
.LBB5_11:
	@DEBUG_VALUE: HAL_DMA_DeInit:hdma <- $r4
	movs	r2, #159
	movt	r2, #16386
	.loc	2 442 3                         @ libraries/STM32H7xx_HAL/STM32H7xx_HAL_Driver/Src/stm32h7xx_hal_dma.c:442:3
	cmp	r1, r2
	bgt	.LBB5_21
.Ltmp236:
@ %bb.12:
	@DEBUG_VALUE: HAL_DMA_DeInit:hdma <- $r4
	.loc	2 0 3                           @ libraries/STM32H7xx_HAL/STM32H7xx_HAL_Driver/Src/stm32h7xx_hal_dma.c:0:3
	movs	r2, #112
	movt	r2, #16386
	.loc	2 442 3                         @ libraries/STM32H7xx_HAL/STM32H7xx_HAL_Driver/Src/stm32h7xx_hal_dma.c:442:3
	cmp	r1, r2
	beq	.LBB5_26
.Ltmp237:
@ %bb.13:
	@DEBUG_VALUE: HAL_DMA_DeInit:hdma <- $r4
	.loc	2 0 3                           @ libraries/STM32H7xx_HAL/STM32H7xx_HAL_Driver/Src/stm32h7xx_hal_dma.c:0:3
	movs	r2, #136
	b	.LBB5_25
.Ltmp238:
.LBB5_14:
	@DEBUG_VALUE: HAL_DMA_DeInit:hdma <- $r4
	movw	r2, #1183
	movt	r2, #16386
	.loc	2 442 3                         @ libraries/STM32H7xx_HAL/STM32H7xx_HAL_Driver/Src/stm32h7xx_hal_dma.c:442:3
	cmp	r1, r2
	bgt	.LBB5_23
.Ltmp239:
@ %bb.15:
	@DEBUG_VALUE: HAL_DMA_DeInit:hdma <- $r4
	.loc	2 0 3                           @ libraries/STM32H7xx_HAL/STM32H7xx_HAL_Driver/Src/stm32h7xx_hal_dma.c:0:3
	movw	r2, #1136
	movt	r2, #16386
	.loc	2 442 3                         @ libraries/STM32H7xx_HAL/STM32H7xx_HAL_Driver/Src/stm32h7xx_hal_dma.c:442:3
	cmp	r1, r2
	beq	.LBB5_26
.Ltmp240:
@ %bb.16:
	@DEBUG_VALUE: HAL_DMA_DeInit:hdma <- $r4
	.loc	2 0 3                           @ libraries/STM32H7xx_HAL/STM32H7xx_HAL_Driver/Src/stm32h7xx_hal_dma.c:0:3
	movw	r2, #1160
	b	.LBB5_25
.Ltmp241:
.LBB5_17:
	@DEBUG_VALUE: HAL_DMA_DeInit:hdma <- $r4
	movs	r2, #64
	movt	r2, #16386
	.loc	2 442 3                         @ libraries/STM32H7xx_HAL/STM32H7xx_HAL_Driver/Src/stm32h7xx_hal_dma.c:442:3
	cmp	r1, r2
	beq	.LBB5_26
.Ltmp242:
@ %bb.18:
	@DEBUG_VALUE: HAL_DMA_DeInit:hdma <- $r4
	.loc	2 0 3                           @ libraries/STM32H7xx_HAL/STM32H7xx_HAL_Driver/Src/stm32h7xx_hal_dma.c:0:3
	movs	r2, #88
	b	.LBB5_25
.Ltmp243:
.LBB5_19:
	@DEBUG_VALUE: HAL_DMA_DeInit:hdma <- $r4
	movw	r2, #1088
	movt	r2, #16386
	.loc	2 442 3                         @ libraries/STM32H7xx_HAL/STM32H7xx_HAL_Driver/Src/stm32h7xx_hal_dma.c:442:3
	cmp	r1, r2
	beq	.LBB5_26
.Ltmp244:
@ %bb.20:
	@DEBUG_VALUE: HAL_DMA_DeInit:hdma <- $r4
	.loc	2 0 3                           @ libraries/STM32H7xx_HAL/STM32H7xx_HAL_Driver/Src/stm32h7xx_hal_dma.c:0:3
	movw	r2, #1112
	b	.LBB5_25
.Ltmp245:
.LBB5_21:
	@DEBUG_VALUE: HAL_DMA_DeInit:hdma <- $r4
	movs	r2, #160
	movt	r2, #16386
	.loc	2 442 3                         @ libraries/STM32H7xx_HAL/STM32H7xx_HAL_Driver/Src/stm32h7xx_hal_dma.c:442:3
	cmp	r1, r2
	beq	.LBB5_26
.Ltmp246:
@ %bb.22:
	@DEBUG_VALUE: HAL_DMA_DeInit:hdma <- $r4
	.loc	2 0 3                           @ libraries/STM32H7xx_HAL/STM32H7xx_HAL_Driver/Src/stm32h7xx_hal_dma.c:0:3
	movs	r2, #184
	b	.LBB5_25
.Ltmp247:
.LBB5_23:
	@DEBUG_VALUE: HAL_DMA_DeInit:hdma <- $r4
	movw	r2, #1208
	movt	r2, #16386
	.loc	2 442 3                         @ libraries/STM32H7xx_HAL/STM32H7xx_HAL_Driver/Src/stm32h7xx_hal_dma.c:442:3
	cmp	r1, r2
	beq	.LBB5_26
.Ltmp248:
@ %bb.24:
	@DEBUG_VALUE: HAL_DMA_DeInit:hdma <- $r4
	.loc	2 0 3                           @ libraries/STM32H7xx_HAL/STM32H7xx_HAL_Driver/Src/stm32h7xx_hal_dma.c:0:3
	movw	r2, #1184
.Ltmp249:
.LBB5_25:
	@DEBUG_VALUE: HAL_DMA_DeInit:hdma <- $r4
	movt	r2, #16386
	.loc	2 442 3                         @ libraries/STM32H7xx_HAL/STM32H7xx_HAL_Driver/Src/stm32h7xx_hal_dma.c:442:3
	cmp	r1, r2
	bne.w	.LBB5_68
.Ltmp250:
.LBB5_26:
	@DEBUG_VALUE: HAL_DMA_DeInit:hdma <- $r4
	ldr	r2, [r4]
.Ltmp251:
.LBB5_27:
	@DEBUG_VALUE: HAL_DMA_DeInit:hdma <- $r4
	ldr	r3, [r2]
.Ltmp252:
	.loc	2 444 6 is_stmt 1               @ libraries/STM32H7xx_HAL/STM32H7xx_HAL_Driver/Src/stm32h7xx_hal_dma.c:444:6
	cmp	r1, r0
	mov.w	r0, #1
.Ltmp253:
	.loc	2 442 3                         @ libraries/STM32H7xx_HAL/STM32H7xx_HAL_Driver/Src/stm32h7xx_hal_dma.c:442:3
	bic	r3, r3, #1
	str	r3, [r2]
.Ltmp254:
	.loc	2 444 6                         @ libraries/STM32H7xx_HAL/STM32H7xx_HAL_Driver/Src/stm32h7xx_hal_dma.c:444:6
	bgt	.LBB5_33
.Ltmp255:
@ %bb.28:
	@DEBUG_VALUE: HAL_DMA_DeInit:hdma <- $r4
	.loc	2 0 6 is_stmt 0                 @ libraries/STM32H7xx_HAL/STM32H7xx_HAL_Driver/Src/stm32h7xx_hal_dma.c:0:6
	movs	r2, #159
	movt	r2, #16386
	.loc	2 444 6                         @ libraries/STM32H7xx_HAL/STM32H7xx_HAL_Driver/Src/stm32h7xx_hal_dma.c:444:6
	cmp	r1, r2
	bgt	.LBB5_38
.Ltmp256:
@ %bb.29:
	@DEBUG_VALUE: HAL_DMA_DeInit:hdma <- $r4
	.loc	2 0 6                           @ libraries/STM32H7xx_HAL/STM32H7xx_HAL_Driver/Src/stm32h7xx_hal_dma.c:0:6
	movs	r2, #87
	movt	r2, #16386
	.loc	2 444 6                         @ libraries/STM32H7xx_HAL/STM32H7xx_HAL_Driver/Src/stm32h7xx_hal_dma.c:444:6
	cmp	r1, r2
	bgt	.LBB5_46
.Ltmp257:
@ %bb.30:
	@DEBUG_VALUE: HAL_DMA_DeInit:hdma <- $r4
	.loc	2 0 6                           @ libraries/STM32H7xx_HAL/STM32H7xx_HAL_Driver/Src/stm32h7xx_hal_dma.c:0:6
	movs	r2, #16
	movt	r2, #16386
	.loc	2 444 6                         @ libraries/STM32H7xx_HAL/STM32H7xx_HAL_Driver/Src/stm32h7xx_hal_dma.c:444:6
	cmp	r1, r2
	beq	.LBB5_56
.Ltmp258:
@ %bb.31:
	@DEBUG_VALUE: HAL_DMA_DeInit:hdma <- $r4
	.loc	2 0 6                           @ libraries/STM32H7xx_HAL/STM32H7xx_HAL_Driver/Src/stm32h7xx_hal_dma.c:0:6
	movs	r2, #40
	movt	r2, #16386
	.loc	2 444 6                         @ libraries/STM32H7xx_HAL/STM32H7xx_HAL_Driver/Src/stm32h7xx_hal_dma.c:444:6
	cmp	r1, r2
	beq	.LBB5_56
.Ltmp259:
@ %bb.32:
	@DEBUG_VALUE: HAL_DMA_DeInit:hdma <- $r4
	.loc	2 0 6                           @ libraries/STM32H7xx_HAL/STM32H7xx_HAL_Driver/Src/stm32h7xx_hal_dma.c:0:6
	movs	r2, #64
	b	.LBB5_55
.Ltmp260:
.LBB5_33:
	@DEBUG_VALUE: HAL_DMA_DeInit:hdma <- $r4
	movw	r2, #21551
	movt	r2, #22530
	.loc	2 444 6                         @ libraries/STM32H7xx_HAL/STM32H7xx_HAL_Driver/Src/stm32h7xx_hal_dma.c:444:6
	cmp	r1, r2
	bgt	.LBB5_42
.Ltmp261:
@ %bb.34:
	@DEBUG_VALUE: HAL_DMA_DeInit:hdma <- $r4
	.loc	2 0 6                           @ libraries/STM32H7xx_HAL/STM32H7xx_HAL_Driver/Src/stm32h7xx_hal_dma.c:0:6
	movw	r2, #1207
	movt	r2, #16386
	.loc	2 444 6                         @ libraries/STM32H7xx_HAL/STM32H7xx_HAL_Driver/Src/stm32h7xx_hal_dma.c:444:6
	cmp	r1, r2
	bgt	.LBB5_49
.Ltmp262:
@ %bb.35:
	@DEBUG_VALUE: HAL_DMA_DeInit:hdma <- $r4
	.loc	2 0 6                           @ libraries/STM32H7xx_HAL/STM32H7xx_HAL_Driver/Src/stm32h7xx_hal_dma.c:0:6
	movw	r2, #1136
	movt	r2, #16386
	.loc	2 444 6                         @ libraries/STM32H7xx_HAL/STM32H7xx_HAL_Driver/Src/stm32h7xx_hal_dma.c:444:6
	cmp	r1, r2
	beq	.LBB5_56
.Ltmp263:
@ %bb.36:
	@DEBUG_VALUE: HAL_DMA_DeInit:hdma <- $r4
	.loc	2 0 6                           @ libraries/STM32H7xx_HAL/STM32H7xx_HAL_Driver/Src/stm32h7xx_hal_dma.c:0:6
	movw	r2, #1160
	movt	r2, #16386
	.loc	2 444 6                         @ libraries/STM32H7xx_HAL/STM32H7xx_HAL_Driver/Src/stm32h7xx_hal_dma.c:444:6
	cmp	r1, r2
	beq	.LBB5_56
.Ltmp264:
@ %bb.37:
	@DEBUG_VALUE: HAL_DMA_DeInit:hdma <- $r4
	.loc	2 0 6                           @ libraries/STM32H7xx_HAL/STM32H7xx_HAL_Driver/Src/stm32h7xx_hal_dma.c:0:6
	movw	r2, #1184
	b	.LBB5_55
.Ltmp265:
.LBB5_38:
	@DEBUG_VALUE: HAL_DMA_DeInit:hdma <- $r4
	movw	r2, #1063
	movt	r2, #16386
	.loc	2 444 6                         @ libraries/STM32H7xx_HAL/STM32H7xx_HAL_Driver/Src/stm32h7xx_hal_dma.c:444:6
	cmp	r1, r2
	bgt	.LBB5_52
.Ltmp266:
@ %bb.39:
	@DEBUG_VALUE: HAL_DMA_DeInit:hdma <- $r4
	.loc	2 0 6                           @ libraries/STM32H7xx_HAL/STM32H7xx_HAL_Driver/Src/stm32h7xx_hal_dma.c:0:6
	movs	r2, #160
	movt	r2, #16386
	.loc	2 444 6                         @ libraries/STM32H7xx_HAL/STM32H7xx_HAL_Driver/Src/stm32h7xx_hal_dma.c:444:6
	cmp	r1, r2
	beq	.LBB5_56
.Ltmp267:
@ %bb.40:
	@DEBUG_VALUE: HAL_DMA_DeInit:hdma <- $r4
	.loc	2 0 6                           @ libraries/STM32H7xx_HAL/STM32H7xx_HAL_Driver/Src/stm32h7xx_hal_dma.c:0:6
	movs	r2, #184
	movt	r2, #16386
	.loc	2 444 6                         @ libraries/STM32H7xx_HAL/STM32H7xx_HAL_Driver/Src/stm32h7xx_hal_dma.c:444:6
	cmp	r1, r2
	beq	.LBB5_56
.Ltmp268:
@ %bb.41:
	@DEBUG_VALUE: HAL_DMA_DeInit:hdma <- $r4
	.loc	2 0 6                           @ libraries/STM32H7xx_HAL/STM32H7xx_HAL_Driver/Src/stm32h7xx_hal_dma.c:0:6
	movw	r2, #1040
	b	.LBB5_55
.Ltmp269:
.LBB5_42:
	@DEBUG_VALUE: HAL_DMA_DeInit:hdma <- $r4
	movw	r2, #21611
	movt	r2, #22530
	.loc	2 444 6                         @ libraries/STM32H7xx_HAL/STM32H7xx_HAL_Driver/Src/stm32h7xx_hal_dma.c:444:6
	cmp	r1, r2
	bgt	.LBB5_57
.Ltmp270:
@ %bb.43:
	@DEBUG_VALUE: HAL_DMA_DeInit:hdma <- $r4
	.loc	2 0 6                           @ libraries/STM32H7xx_HAL/STM32H7xx_HAL_Driver/Src/stm32h7xx_hal_dma.c:0:6
	movw	r2, #21552
	movt	r2, #22530
	.loc	2 444 6                         @ libraries/STM32H7xx_HAL/STM32H7xx_HAL_Driver/Src/stm32h7xx_hal_dma.c:444:6
	cmp	r1, r2
	beq	.LBB5_61
.Ltmp271:
@ %bb.44:
	@DEBUG_VALUE: HAL_DMA_DeInit:hdma <- $r4
	.loc	2 0 6                           @ libraries/STM32H7xx_HAL/STM32H7xx_HAL_Driver/Src/stm32h7xx_hal_dma.c:0:6
	movw	r2, #21572
	movt	r2, #22530
	.loc	2 444 6                         @ libraries/STM32H7xx_HAL/STM32H7xx_HAL_Driver/Src/stm32h7xx_hal_dma.c:444:6
	cmp	r1, r2
	beq	.LBB5_61
.Ltmp272:
@ %bb.45:
	@DEBUG_VALUE: HAL_DMA_DeInit:hdma <- $r4
	.loc	2 0 6                           @ libraries/STM32H7xx_HAL/STM32H7xx_HAL_Driver/Src/stm32h7xx_hal_dma.c:0:6
	movw	r2, #21592
	b	.LBB5_60
.Ltmp273:
.LBB5_46:
	@DEBUG_VALUE: HAL_DMA_DeInit:hdma <- $r4
	movs	r2, #88
	movt	r2, #16386
	.loc	2 444 6                         @ libraries/STM32H7xx_HAL/STM32H7xx_HAL_Driver/Src/stm32h7xx_hal_dma.c:444:6
	cmp	r1, r2
	beq	.LBB5_56
.Ltmp274:
@ %bb.47:
	@DEBUG_VALUE: HAL_DMA_DeInit:hdma <- $r4
	.loc	2 0 6                           @ libraries/STM32H7xx_HAL/STM32H7xx_HAL_Driver/Src/stm32h7xx_hal_dma.c:0:6
	movs	r2, #112
	movt	r2, #16386
	.loc	2 444 6                         @ libraries/STM32H7xx_HAL/STM32H7xx_HAL_Driver/Src/stm32h7xx_hal_dma.c:444:6
	cmp	r1, r2
	beq	.LBB5_56
.Ltmp275:
@ %bb.48:
	@DEBUG_VALUE: HAL_DMA_DeInit:hdma <- $r4
	.loc	2 0 6                           @ libraries/STM32H7xx_HAL/STM32H7xx_HAL_Driver/Src/stm32h7xx_hal_dma.c:0:6
	movs	r2, #136
	b	.LBB5_55
.Ltmp276:
.LBB5_49:
	@DEBUG_VALUE: HAL_DMA_DeInit:hdma <- $r4
	movw	r2, #1208
	movt	r2, #16386
	.loc	2 444 6                         @ libraries/STM32H7xx_HAL/STM32H7xx_HAL_Driver/Src/stm32h7xx_hal_dma.c:444:6
	cmp	r1, r2
	beq	.LBB5_56
.Ltmp277:
@ %bb.50:
	@DEBUG_VALUE: HAL_DMA_DeInit:hdma <- $r4
	.loc	2 0 6                           @ libraries/STM32H7xx_HAL/STM32H7xx_HAL_Driver/Src/stm32h7xx_hal_dma.c:0:6
	movw	r2, #21512
	movt	r2, #22530
	.loc	2 444 6                         @ libraries/STM32H7xx_HAL/STM32H7xx_HAL_Driver/Src/stm32h7xx_hal_dma.c:444:6
	cmp	r1, r2
	beq	.LBB5_61
.Ltmp278:
@ %bb.51:
	@DEBUG_VALUE: HAL_DMA_DeInit:hdma <- $r4
	.loc	2 0 6                           @ libraries/STM32H7xx_HAL/STM32H7xx_HAL_Driver/Src/stm32h7xx_hal_dma.c:0:6
	movw	r2, #21532
	b	.LBB5_60
.Ltmp279:
.LBB5_52:
	@DEBUG_VALUE: HAL_DMA_DeInit:hdma <- $r4
	movw	r2, #1064
	movt	r2, #16386
	.loc	2 444 6                         @ libraries/STM32H7xx_HAL/STM32H7xx_HAL_Driver/Src/stm32h7xx_hal_dma.c:444:6
	cmp	r1, r2
	beq	.LBB5_56
.Ltmp280:
@ %bb.53:
	@DEBUG_VALUE: HAL_DMA_DeInit:hdma <- $r4
	.loc	2 0 6                           @ libraries/STM32H7xx_HAL/STM32H7xx_HAL_Driver/Src/stm32h7xx_hal_dma.c:0:6
	movw	r2, #1088
	movt	r2, #16386
	.loc	2 444 6                         @ libraries/STM32H7xx_HAL/STM32H7xx_HAL_Driver/Src/stm32h7xx_hal_dma.c:444:6
	cmp	r1, r2
	beq	.LBB5_56
.Ltmp281:
@ %bb.54:
	@DEBUG_VALUE: HAL_DMA_DeInit:hdma <- $r4
	.loc	2 0 6                           @ libraries/STM32H7xx_HAL/STM32H7xx_HAL_Driver/Src/stm32h7xx_hal_dma.c:0:6
	movw	r2, #1112
.Ltmp282:
.LBB5_55:
	@DEBUG_VALUE: HAL_DMA_DeInit:hdma <- $r4
	movt	r2, #16386
	.loc	2 444 6                         @ libraries/STM32H7xx_HAL/STM32H7xx_HAL_Driver/Src/stm32h7xx_hal_dma.c:444:6
	cmp	r1, r2
	bne	.LBB5_67
.Ltmp283:
.LBB5_56:
	@DEBUG_VALUE: HAL_DMA_DeInit:hdma <- $r4
	.loc	2 447 36 is_stmt 1              @ libraries/STM32H7xx_HAL/STM32H7xx_HAL_Driver/Src/stm32h7xx_hal_dma.c:447:36
	ldr	r0, [r4]
	movs	r1, #0
	.loc	2 447 52 is_stmt 0              @ libraries/STM32H7xx_HAL/STM32H7xx_HAL_Driver/Src/stm32h7xx_hal_dma.c:447:52
	str	r1, [r0]
	.loc	2 450 52 is_stmt 1              @ libraries/STM32H7xx_HAL/STM32H7xx_HAL_Driver/Src/stm32h7xx_hal_dma.c:450:52
	str	r1, [r0, #4]
	.loc	2 453 52                        @ libraries/STM32H7xx_HAL/STM32H7xx_HAL_Driver/Src/stm32h7xx_hal_dma.c:453:52
	str	r1, [r0, #8]
	.loc	2 456 52                        @ libraries/STM32H7xx_HAL/STM32H7xx_HAL_Driver/Src/stm32h7xx_hal_dma.c:456:52
	str	r1, [r0, #12]
	.loc	2 459 52                        @ libraries/STM32H7xx_HAL/STM32H7xx_HAL_Driver/Src/stm32h7xx_hal_dma.c:459:52
	str	r1, [r0, #16]
	movs	r1, #33
	.loc	2 462 52                        @ libraries/STM32H7xx_HAL/STM32H7xx_HAL_Driver/Src/stm32h7xx_hal_dma.c:462:52
	str	r1, [r0, #20]
	.loc	2 465 38                        @ libraries/STM32H7xx_HAL/STM32H7xx_HAL_Driver/Src/stm32h7xx_hal_dma.c:465:38
	mov	r0, r4
	bl	DMA_CalcBaseAndBitshift
.Ltmp284:
	@DEBUG_VALUE: HAL_DMA_DeInit:regs_dma <- $r0
	.loc	2 468 39                        @ libraries/STM32H7xx_HAL/STM32H7xx_HAL_Driver/Src/stm32h7xx_hal_dma.c:468:39
	ldr	r1, [r4, #92]
	movs	r2, #63
	.loc	2 468 51 is_stmt 0              @ libraries/STM32H7xx_HAL/STM32H7xx_HAL_Driver/Src/stm32h7xx_hal_dma.c:468:51
	and	r1, r1, #31
	.loc	2 468 29                        @ libraries/STM32H7xx_HAL/STM32H7xx_HAL_Driver/Src/stm32h7xx_hal_dma.c:468:29
	lsl.w	r1, r2, r1
	.loc	2 468 20                        @ libraries/STM32H7xx_HAL/STM32H7xx_HAL_Driver/Src/stm32h7xx_hal_dma.c:468:20
	str	r1, [r0, #8]
	b	.LBB5_62
.Ltmp285:
.LBB5_57:
	@DEBUG_VALUE: HAL_DMA_DeInit:hdma <- $r4
	.loc	2 0 20                          @ libraries/STM32H7xx_HAL/STM32H7xx_HAL_Driver/Src/stm32h7xx_hal_dma.c:0:20
	movw	r2, #21612
	movt	r2, #22530
	.loc	2 444 6 is_stmt 1               @ libraries/STM32H7xx_HAL/STM32H7xx_HAL_Driver/Src/stm32h7xx_hal_dma.c:444:6
	cmp	r1, r2
	beq	.LBB5_61
.Ltmp286:
@ %bb.58:
	@DEBUG_VALUE: HAL_DMA_DeInit:hdma <- $r4
	.loc	2 0 6 is_stmt 0                 @ libraries/STM32H7xx_HAL/STM32H7xx_HAL_Driver/Src/stm32h7xx_hal_dma.c:0:6
	movw	r2, #21632
	movt	r2, #22530
	.loc	2 444 6                         @ libraries/STM32H7xx_HAL/STM32H7xx_HAL_Driver/Src/stm32h7xx_hal_dma.c:444:6
	cmp	r1, r2
	beq	.LBB5_61
.Ltmp287:
@ %bb.59:
	@DEBUG_VALUE: HAL_DMA_DeInit:hdma <- $r4
	.loc	2 0 6                           @ libraries/STM32H7xx_HAL/STM32H7xx_HAL_Driver/Src/stm32h7xx_hal_dma.c:0:6
	movw	r2, #21652
.Ltmp288:
.LBB5_60:
	@DEBUG_VALUE: HAL_DMA_DeInit:hdma <- $r4
	movt	r2, #22530
	.loc	2 444 6                         @ libraries/STM32H7xx_HAL/STM32H7xx_HAL_Driver/Src/stm32h7xx_hal_dma.c:444:6
	cmp	r1, r2
	bne	.LBB5_67
.Ltmp289:
.LBB5_61:
	@DEBUG_VALUE: HAL_DMA_DeInit:hdma <- $r4
	.loc	2 473 36 is_stmt 1              @ libraries/STM32H7xx_HAL/STM32H7xx_HAL_Driver/Src/stm32h7xx_hal_dma.c:473:36
	ldr	r0, [r4]
	movs	r1, #0
	.loc	2 473 52 is_stmt 0              @ libraries/STM32H7xx_HAL/STM32H7xx_HAL_Driver/Src/stm32h7xx_hal_dma.c:473:52
	str	r1, [r0]
	.loc	2 476 53 is_stmt 1              @ libraries/STM32H7xx_HAL/STM32H7xx_HAL_Driver/Src/stm32h7xx_hal_dma.c:476:53
	str	r1, [r0, #4]
	.loc	2 479 53                        @ libraries/STM32H7xx_HAL/STM32H7xx_HAL_Driver/Src/stm32h7xx_hal_dma.c:479:53
	str	r1, [r0, #8]
	.loc	2 482 53                        @ libraries/STM32H7xx_HAL/STM32H7xx_HAL_Driver/Src/stm32h7xx_hal_dma.c:482:53
	str	r1, [r0, #12]
	.loc	2 485 53                        @ libraries/STM32H7xx_HAL/STM32H7xx_HAL_Driver/Src/stm32h7xx_hal_dma.c:485:53
	str	r1, [r0, #16]
	.loc	2 488 40                        @ libraries/STM32H7xx_HAL/STM32H7xx_HAL_Driver/Src/stm32h7xx_hal_dma.c:488:40
	mov	r0, r4
	bl	DMA_CalcBaseAndBitshift
.Ltmp290:
	@DEBUG_VALUE: HAL_DMA_DeInit:regs_bdma <- $r0
	.loc	2 491 52                        @ libraries/STM32H7xx_HAL/STM32H7xx_HAL_Driver/Src/stm32h7xx_hal_dma.c:491:52
	ldr	r1, [r4, #92]
	movs	r2, #1
	.loc	2 491 64 is_stmt 0              @ libraries/STM32H7xx_HAL/STM32H7xx_HAL_Driver/Src/stm32h7xx_hal_dma.c:491:64
	and	r1, r1, #31
	.loc	2 491 42                        @ libraries/STM32H7xx_HAL/STM32H7xx_HAL_Driver/Src/stm32h7xx_hal_dma.c:491:42
	lsl.w	r1, r2, r1
	.loc	2 491 21                        @ libraries/STM32H7xx_HAL/STM32H7xx_HAL_Driver/Src/stm32h7xx_hal_dma.c:491:21
	str	r1, [r0, #4]
.Ltmp291:
.LBB5_62:
	@DEBUG_VALUE: HAL_DMA_DeInit:hdma <- $r4
	.loc	2 501 3 is_stmt 1               @ libraries/STM32H7xx_HAL/STM32H7xx_HAL_Driver/Src/stm32h7xx_hal_dma.c:501:3
	mov	r0, r4
	bl	DMA_CalcDMAMUXChannelBaseAndMask
.Ltmp292:
	.loc	2 503 12                        @ libraries/STM32H7xx_HAL/STM32H7xx_HAL_Driver/Src/stm32h7xx_hal_dma.c:503:12
	ldr	r0, [r4, #96]
	cbz	r0, .LBB5_64
.Ltmp293:
@ %bb.63:
	@DEBUG_VALUE: HAL_DMA_DeInit:hdma <- $r4
	.loc	2 0 12 is_stmt 0                @ libraries/STM32H7xx_HAL/STM32H7xx_HAL_Driver/Src/stm32h7xx_hal_dma.c:0:12
	movs	r1, #0
.Ltmp294:
	.loc	2 506 30 is_stmt 1              @ libraries/STM32H7xx_HAL/STM32H7xx_HAL_Driver/Src/stm32h7xx_hal_dma.c:506:30
	str	r1, [r0]
	.loc	2 509 11                        @ libraries/STM32H7xx_HAL/STM32H7xx_HAL_Driver/Src/stm32h7xx_hal_dma.c:509:11
	ldrd	r0, r1, [r4, #100]
	.loc	2 509 36 is_stmt 0              @ libraries/STM32H7xx_HAL/STM32H7xx_HAL_Driver/Src/stm32h7xx_hal_dma.c:509:36
	str	r1, [r0, #4]
.Ltmp295:
.LBB5_64:
	@DEBUG_VALUE: HAL_DMA_DeInit:hdma <- $r4
	.loc	2 512 18 is_stmt 1              @ libraries/STM32H7xx_HAL/STM32H7xx_HAL_Driver/Src/stm32h7xx_hal_dma.c:512:18
	ldr	r0, [r4, #4]
	.loc	2 512 53 is_stmt 0              @ libraries/STM32H7xx_HAL/STM32H7xx_HAL_Driver/Src/stm32h7xx_hal_dma.c:512:53
	subs	r0, #1
	cmp	r0, #7
	bhi	.LBB5_66
.Ltmp296:
@ %bb.65:
	@DEBUG_VALUE: HAL_DMA_DeInit:hdma <- $r4
	.loc	2 516 5 is_stmt 1               @ libraries/STM32H7xx_HAL/STM32H7xx_HAL_Driver/Src/stm32h7xx_hal_dma.c:516:5
	mov	r0, r4
	bl	DMA_CalcDMAMUXRequestGenBaseAndMask
	.loc	2 519 11                        @ libraries/STM32H7xx_HAL/STM32H7xx_HAL_Driver/Src/stm32h7xx_hal_dma.c:519:11
	add.w	r2, r4, #108
	movs	r3, #0
	ldm	r2, {r0, r1, r2}
	.loc	2 519 34 is_stmt 0              @ libraries/STM32H7xx_HAL/STM32H7xx_HAL_Driver/Src/stm32h7xx_hal_dma.c:519:34
	str	r3, [r0]
	.loc	2 522 41 is_stmt 1              @ libraries/STM32H7xx_HAL/STM32H7xx_HAL_Driver/Src/stm32h7xx_hal_dma.c:522:41
	str	r2, [r1, #4]
.Ltmp297:
.LBB5_66:
	@DEBUG_VALUE: HAL_DMA_DeInit:hdma <- $r4
	.loc	2 0 41 is_stmt 0                @ libraries/STM32H7xx_HAL/STM32H7xx_HAL_Driver/Src/stm32h7xx_hal_dma.c:0:41
	movs	r0, #0
	.loc	2 527 36 is_stmt 1              @ libraries/STM32H7xx_HAL/STM32H7xx_HAL_Driver/Src/stm32h7xx_hal_dma.c:527:36
	str	r0, [r4, #116]
	.loc	2 525 26                        @ libraries/STM32H7xx_HAL/STM32H7xx_HAL_Driver/Src/stm32h7xx_hal_dma.c:525:26
	strd	r0, r0, [r4, #108]
	.loc	2 530 32                        @ libraries/STM32H7xx_HAL/STM32H7xx_HAL_Driver/Src/stm32h7xx_hal_dma.c:530:32
	strd	r0, r0, [r4, #60]
	strd	r0, r0, [r4, #68]
	strd	r0, r0, [r4, #76]
	.loc	2 538 19                        @ libraries/STM32H7xx_HAL/STM32H7xx_HAL_Driver/Src/stm32h7xx_hal_dma.c:538:19
	str	r0, [r4, #84]
	.loc	2 541 15                        @ libraries/STM32H7xx_HAL/STM32H7xx_HAL_Driver/Src/stm32h7xx_hal_dma.c:541:15
	strb.w	r0, [r4, #53]
.Ltmp298:
	.loc	2 544 3                         @ libraries/STM32H7xx_HAL/STM32H7xx_HAL_Driver/Src/stm32h7xx_hal_dma.c:544:3
	strb.w	r0, [r4, #52]
.Ltmp299:
.LBB5_67:
	@DEBUG_VALUE: HAL_DMA_DeInit:hdma <- $r4
	.loc	2 547 1                         @ libraries/STM32H7xx_HAL/STM32H7xx_HAL_Driver/Src/stm32h7xx_hal_dma.c:547:1
	pop	{r4, pc}
.Ltmp300:
.LBB5_68:
	@DEBUG_VALUE: HAL_DMA_DeInit:hdma <- $r4
	.loc	2 0 1 is_stmt 0                 @ libraries/STM32H7xx_HAL/STM32H7xx_HAL_Driver/Src/stm32h7xx_hal_dma.c:0:1
	mov	r2, r1
	b	.LBB5_27
.Lfunc_end5:
	.size	HAL_DMA_DeInit, .Lfunc_end5-HAL_DMA_DeInit
	.cfi_endproc
	.cantunwind
	.fnend
                                        @ -- End function
	.section	.text.HAL_DMA_Start,"ax",%progbits
	.hidden	HAL_DMA_Start                   @ -- Begin function HAL_DMA_Start
	.globl	HAL_DMA_Start
	.p2align	3
	.type	HAL_DMA_Start,%function
	.code	16                              @ @HAL_DMA_Start
	.thumb_func
HAL_DMA_Start:
.Lfunc_begin6:
	.loc	2 582 0 is_stmt 1               @ libraries/STM32H7xx_HAL/STM32H7xx_HAL_Driver/Src/stm32h7xx_hal_dma.c:582:0
	.fnstart
	.cfi_startproc
@ %bb.0:
	@DEBUG_VALUE: HAL_DMA_Start:hdma <- $r0
	@DEBUG_VALUE: HAL_DMA_Start:SrcAddress <- $r1
	@DEBUG_VALUE: HAL_DMA_Start:DstAddress <- $r2
	@DEBUG_VALUE: HAL_DMA_Start:DataLength <- $r3
	@DEBUG_VALUE: HAL_DMA_Start:hdma <- $r0
	.save	{r4, r5, r6, r7, r8, lr}
	push.w	{r4, r5, r6, r7, r8, lr}
	.cfi_def_cfa_offset 24
	.cfi_offset lr, -4
	.cfi_offset r8, -8
	.cfi_offset r7, -12
	.cfi_offset r6, -16
	.cfi_offset r5, -20
	.cfi_offset r4, -24
.Ltmp301:
	@DEBUG_VALUE: HAL_DMA_Start:status <- 0
	@DEBUG_VALUE: HAL_DMA_Start:DataLength <- $r3
	@DEBUG_VALUE: HAL_DMA_Start:DstAddress <- $r2
	@DEBUG_VALUE: HAL_DMA_Start:SrcAddress <- $r1
	.loc	2 589 6 prologue_end            @ libraries/STM32H7xx_HAL/STM32H7xx_HAL_Driver/Src/stm32h7xx_hal_dma.c:589:6
	cbz	r0, .LBB6_10
.Ltmp302:
@ %bb.1:
	@DEBUG_VALUE: HAL_DMA_Start:DataLength <- $r3
	@DEBUG_VALUE: HAL_DMA_Start:DstAddress <- $r2
	@DEBUG_VALUE: HAL_DMA_Start:SrcAddress <- $r1
	@DEBUG_VALUE: HAL_DMA_Start:hdma <- $r0
	@DEBUG_VALUE: HAL_DMA_Start:status <- 0
	.loc	2 0 6 is_stmt 0                 @ libraries/STM32H7xx_HAL/STM32H7xx_HAL_Driver/Src/stm32h7xx_hal_dma.c:0:6
	mov	r4, r0
.Ltmp303:
	@DEBUG_VALUE: HAL_DMA_Start:hdma <- $r4
	.loc	2 595 3 is_stmt 1               @ libraries/STM32H7xx_HAL/STM32H7xx_HAL_Driver/Src/stm32h7xx_hal_dma.c:595:3
	ldrb.w	r0, [r0, #52]
.Ltmp304:
	.loc	2 595 3 is_stmt 0               @ libraries/STM32H7xx_HAL/STM32H7xx_HAL_Driver/Src/stm32h7xx_hal_dma.c:595:3
	cmp	r0, #1
	bne	.LBB6_3
.Ltmp305:
@ %bb.2:
	@DEBUG_VALUE: HAL_DMA_Start:hdma <- $r4
	@DEBUG_VALUE: HAL_DMA_Start:DataLength <- $r3
	@DEBUG_VALUE: HAL_DMA_Start:DstAddress <- $r2
	@DEBUG_VALUE: HAL_DMA_Start:SrcAddress <- $r1
	@DEBUG_VALUE: HAL_DMA_Start:status <- 0
	.loc	2 0 3                           @ libraries/STM32H7xx_HAL/STM32H7xx_HAL_Driver/Src/stm32h7xx_hal_dma.c:0:3
	movs	r0, #2
	.loc	2 626 1 is_stmt 1               @ libraries/STM32H7xx_HAL/STM32H7xx_HAL_Driver/Src/stm32h7xx_hal_dma.c:626:1
	pop.w	{r4, r5, r6, r7, r8, pc}
.Ltmp306:
.LBB6_3:
	@DEBUG_VALUE: HAL_DMA_Start:hdma <- $r4
	@DEBUG_VALUE: HAL_DMA_Start:DataLength <- $r3
	@DEBUG_VALUE: HAL_DMA_Start:DstAddress <- $r2
	@DEBUG_VALUE: HAL_DMA_Start:SrcAddress <- $r1
	@DEBUG_VALUE: HAL_DMA_Start:status <- 0
	.loc	2 0 1 is_stmt 0                 @ libraries/STM32H7xx_HAL/STM32H7xx_HAL_Driver/Src/stm32h7xx_hal_dma.c:0:1
	movs	r0, #1
.Ltmp307:
	.loc	2 595 3 is_stmt 1               @ libraries/STM32H7xx_HAL/STM32H7xx_HAL_Driver/Src/stm32h7xx_hal_dma.c:595:3
	strb.w	r0, [r4, #52]
.Ltmp308:
	.loc	2 597 35                        @ libraries/STM32H7xx_HAL/STM32H7xx_HAL_Driver/Src/stm32h7xx_hal_dma.c:597:35
	ldrb.w	r0, [r4, #53]
.Ltmp309:
	.loc	2 597 6 is_stmt 0               @ libraries/STM32H7xx_HAL/STM32H7xx_HAL_Driver/Src/stm32h7xx_hal_dma.c:597:6
	cmp	r0, #1
	bne	.LBB6_9
.Ltmp310:
@ %bb.4:
	@DEBUG_VALUE: HAL_DMA_Start:hdma <- $r4
	@DEBUG_VALUE: HAL_DMA_Start:DataLength <- $r3
	@DEBUG_VALUE: HAL_DMA_Start:DstAddress <- $r2
	@DEBUG_VALUE: HAL_DMA_Start:SrcAddress <- $r1
	@DEBUG_VALUE: HAL_DMA_Start:status <- 0
	.loc	2 0 6                           @ libraries/STM32H7xx_HAL/STM32H7xx_HAL_Driver/Src/stm32h7xx_hal_dma.c:0:6
	movs	r0, #2
.Ltmp311:
	.loc	2 600 17 is_stmt 1              @ libraries/STM32H7xx_HAL/STM32H7xx_HAL_Driver/Src/stm32h7xx_hal_dma.c:600:17
	strb.w	r0, [r4, #53]
	movs	r0, #0
	.loc	2 603 21                        @ libraries/STM32H7xx_HAL/STM32H7xx_HAL_Driver/Src/stm32h7xx_hal_dma.c:603:21
	str	r0, [r4, #84]
	movw	r7, #1039
	.loc	2 606 5                         @ libraries/STM32H7xx_HAL/STM32H7xx_HAL_Driver/Src/stm32h7xx_hal_dma.c:606:5
	ldr	r0, [r4]
	movt	r7, #16386
	movw	r8, #1135
	movs	r6, #111
	cmp	r0, r7
	movt	r8, #16386
	movt	r6, #16386
	bgt	.LBB6_11
.Ltmp312:
@ %bb.5:
	@DEBUG_VALUE: HAL_DMA_Start:hdma <- $r4
	@DEBUG_VALUE: HAL_DMA_Start:DataLength <- $r3
	@DEBUG_VALUE: HAL_DMA_Start:DstAddress <- $r2
	@DEBUG_VALUE: HAL_DMA_Start:SrcAddress <- $r1
	@DEBUG_VALUE: HAL_DMA_Start:status <- 0
	cmp	r0, r6
	bgt	.LBB6_15
.Ltmp313:
@ %bb.6:
	@DEBUG_VALUE: HAL_DMA_Start:hdma <- $r4
	@DEBUG_VALUE: HAL_DMA_Start:DataLength <- $r3
	@DEBUG_VALUE: HAL_DMA_Start:DstAddress <- $r2
	@DEBUG_VALUE: HAL_DMA_Start:SrcAddress <- $r1
	@DEBUG_VALUE: HAL_DMA_Start:status <- 0
	.loc	2 0 5 is_stmt 0                 @ libraries/STM32H7xx_HAL/STM32H7xx_HAL_Driver/Src/stm32h7xx_hal_dma.c:0:5
	movs	r5, #63
	movt	r5, #16386
	.loc	2 606 5                         @ libraries/STM32H7xx_HAL/STM32H7xx_HAL_Driver/Src/stm32h7xx_hal_dma.c:606:5
	cmp	r0, r5
	bgt	.LBB6_21
.Ltmp314:
@ %bb.7:
	@DEBUG_VALUE: HAL_DMA_Start:hdma <- $r4
	@DEBUG_VALUE: HAL_DMA_Start:DataLength <- $r3
	@DEBUG_VALUE: HAL_DMA_Start:DstAddress <- $r2
	@DEBUG_VALUE: HAL_DMA_Start:SrcAddress <- $r1
	@DEBUG_VALUE: HAL_DMA_Start:status <- 0
	.loc	2 0 5                           @ libraries/STM32H7xx_HAL/STM32H7xx_HAL_Driver/Src/stm32h7xx_hal_dma.c:0:5
	movs	r5, #16
	movt	r5, #16386
	.loc	2 606 5                         @ libraries/STM32H7xx_HAL/STM32H7xx_HAL_Driver/Src/stm32h7xx_hal_dma.c:606:5
	cmp	r0, r5
	beq	.LBB6_30
.Ltmp315:
@ %bb.8:
	@DEBUG_VALUE: HAL_DMA_Start:hdma <- $r4
	@DEBUG_VALUE: HAL_DMA_Start:DataLength <- $r3
	@DEBUG_VALUE: HAL_DMA_Start:DstAddress <- $r2
	@DEBUG_VALUE: HAL_DMA_Start:SrcAddress <- $r1
	@DEBUG_VALUE: HAL_DMA_Start:status <- 0
	.loc	2 0 5                           @ libraries/STM32H7xx_HAL/STM32H7xx_HAL_Driver/Src/stm32h7xx_hal_dma.c:0:5
	movs	r5, #40
	b	.LBB6_29
.Ltmp316:
.LBB6_9:
	@DEBUG_VALUE: HAL_DMA_Start:hdma <- $r4
	@DEBUG_VALUE: HAL_DMA_Start:DataLength <- $r3
	@DEBUG_VALUE: HAL_DMA_Start:DstAddress <- $r2
	@DEBUG_VALUE: HAL_DMA_Start:SrcAddress <- $r1
	@DEBUG_VALUE: HAL_DMA_Start:status <- 0
	movs	r0, #0
.Ltmp317:
	.loc	2 617 5 is_stmt 1               @ libraries/STM32H7xx_HAL/STM32H7xx_HAL_Driver/Src/stm32h7xx_hal_dma.c:617:5
	strb.w	r0, [r4, #52]
	mov.w	r0, #2048
.Ltmp318:
	.loc	2 620 21                        @ libraries/STM32H7xx_HAL/STM32H7xx_HAL_Driver/Src/stm32h7xx_hal_dma.c:620:21
	str	r0, [r4, #84]
.Ltmp319:
.LBB6_10:
	@DEBUG_VALUE: HAL_DMA_Start:DataLength <- $r3
	@DEBUG_VALUE: HAL_DMA_Start:DstAddress <- $r2
	@DEBUG_VALUE: HAL_DMA_Start:SrcAddress <- $r1
	@DEBUG_VALUE: HAL_DMA_Start:status <- 0
	.loc	2 0 21 is_stmt 0                @ libraries/STM32H7xx_HAL/STM32H7xx_HAL_Driver/Src/stm32h7xx_hal_dma.c:0:21
	movs	r0, #1
	.loc	2 626 1 is_stmt 1               @ libraries/STM32H7xx_HAL/STM32H7xx_HAL_Driver/Src/stm32h7xx_hal_dma.c:626:1
	pop.w	{r4, r5, r6, r7, r8, pc}
.Ltmp320:
.LBB6_11:
	@DEBUG_VALUE: HAL_DMA_Start:hdma <- $r4
	@DEBUG_VALUE: HAL_DMA_Start:DataLength <- $r3
	@DEBUG_VALUE: HAL_DMA_Start:DstAddress <- $r2
	@DEBUG_VALUE: HAL_DMA_Start:SrcAddress <- $r1
	@DEBUG_VALUE: HAL_DMA_Start:status <- 0
	.loc	2 606 5                         @ libraries/STM32H7xx_HAL/STM32H7xx_HAL_Driver/Src/stm32h7xx_hal_dma.c:606:5
	cmp	r0, r8
	bgt	.LBB6_18
.Ltmp321:
@ %bb.12:
	@DEBUG_VALUE: HAL_DMA_Start:hdma <- $r4
	@DEBUG_VALUE: HAL_DMA_Start:DataLength <- $r3
	@DEBUG_VALUE: HAL_DMA_Start:DstAddress <- $r2
	@DEBUG_VALUE: HAL_DMA_Start:SrcAddress <- $r1
	@DEBUG_VALUE: HAL_DMA_Start:status <- 0
	.loc	2 0 5 is_stmt 0                 @ libraries/STM32H7xx_HAL/STM32H7xx_HAL_Driver/Src/stm32h7xx_hal_dma.c:0:5
	movw	r5, #1087
	movt	r5, #16386
	.loc	2 606 5                         @ libraries/STM32H7xx_HAL/STM32H7xx_HAL_Driver/Src/stm32h7xx_hal_dma.c:606:5
	cmp	r0, r5
	bgt	.LBB6_23
.Ltmp322:
@ %bb.13:
	@DEBUG_VALUE: HAL_DMA_Start:hdma <- $r4
	@DEBUG_VALUE: HAL_DMA_Start:DataLength <- $r3
	@DEBUG_VALUE: HAL_DMA_Start:DstAddress <- $r2
	@DEBUG_VALUE: HAL_DMA_Start:SrcAddress <- $r1
	@DEBUG_VALUE: HAL_DMA_Start:status <- 0
	.loc	2 0 5                           @ libraries/STM32H7xx_HAL/STM32H7xx_HAL_Driver/Src/stm32h7xx_hal_dma.c:0:5
	movw	r5, #1040
	movt	r5, #16386
	.loc	2 606 5                         @ libraries/STM32H7xx_HAL/STM32H7xx_HAL_Driver/Src/stm32h7xx_hal_dma.c:606:5
	cmp	r0, r5
	beq	.LBB6_30
.Ltmp323:
@ %bb.14:
	@DEBUG_VALUE: HAL_DMA_Start:hdma <- $r4
	@DEBUG_VALUE: HAL_DMA_Start:DataLength <- $r3
	@DEBUG_VALUE: HAL_DMA_Start:DstAddress <- $r2
	@DEBUG_VALUE: HAL_DMA_Start:SrcAddress <- $r1
	@DEBUG_VALUE: HAL_DMA_Start:status <- 0
	.loc	2 0 5                           @ libraries/STM32H7xx_HAL/STM32H7xx_HAL_Driver/Src/stm32h7xx_hal_dma.c:0:5
	movw	r5, #1064
	b	.LBB6_29
.Ltmp324:
.LBB6_15:
	@DEBUG_VALUE: HAL_DMA_Start:hdma <- $r4
	@DEBUG_VALUE: HAL_DMA_Start:DataLength <- $r3
	@DEBUG_VALUE: HAL_DMA_Start:DstAddress <- $r2
	@DEBUG_VALUE: HAL_DMA_Start:SrcAddress <- $r1
	@DEBUG_VALUE: HAL_DMA_Start:status <- 0
	movs	r5, #159
	movt	r5, #16386
	.loc	2 606 5                         @ libraries/STM32H7xx_HAL/STM32H7xx_HAL_Driver/Src/stm32h7xx_hal_dma.c:606:5
	cmp	r0, r5
	bgt	.LBB6_25
.Ltmp325:
@ %bb.16:
	@DEBUG_VALUE: HAL_DMA_Start:hdma <- $r4
	@DEBUG_VALUE: HAL_DMA_Start:DataLength <- $r3
	@DEBUG_VALUE: HAL_DMA_Start:DstAddress <- $r2
	@DEBUG_VALUE: HAL_DMA_Start:SrcAddress <- $r1
	@DEBUG_VALUE: HAL_DMA_Start:status <- 0
	.loc	2 0 5                           @ libraries/STM32H7xx_HAL/STM32H7xx_HAL_Driver/Src/stm32h7xx_hal_dma.c:0:5
	movs	r5, #112
	movt	r5, #16386
	.loc	2 606 5                         @ libraries/STM32H7xx_HAL/STM32H7xx_HAL_Driver/Src/stm32h7xx_hal_dma.c:606:5
	cmp	r0, r5
	beq	.LBB6_30
.Ltmp326:
@ %bb.17:
	@DEBUG_VALUE: HAL_DMA_Start:hdma <- $r4
	@DEBUG_VALUE: HAL_DMA_Start:DataLength <- $r3
	@DEBUG_VALUE: HAL_DMA_Start:DstAddress <- $r2
	@DEBUG_VALUE: HAL_DMA_Start:SrcAddress <- $r1
	@DEBUG_VALUE: HAL_DMA_Start:status <- 0
	.loc	2 0 5                           @ libraries/STM32H7xx_HAL/STM32H7xx_HAL_Driver/Src/stm32h7xx_hal_dma.c:0:5
	movs	r5, #136
	b	.LBB6_29
.Ltmp327:
.LBB6_18:
	@DEBUG_VALUE: HAL_DMA_Start:hdma <- $r4
	@DEBUG_VALUE: HAL_DMA_Start:DataLength <- $r3
	@DEBUG_VALUE: HAL_DMA_Start:DstAddress <- $r2
	@DEBUG_VALUE: HAL_DMA_Start:SrcAddress <- $r1
	@DEBUG_VALUE: HAL_DMA_Start:status <- 0
	movw	r5, #1183
	movt	r5, #16386
	.loc	2 606 5                         @ libraries/STM32H7xx_HAL/STM32H7xx_HAL_Driver/Src/stm32h7xx_hal_dma.c:606:5
	cmp	r0, r5
	bgt	.LBB6_27
.Ltmp328:
@ %bb.19:
	@DEBUG_VALUE: HAL_DMA_Start:hdma <- $r4
	@DEBUG_VALUE: HAL_DMA_Start:DataLength <- $r3
	@DEBUG_VALUE: HAL_DMA_Start:DstAddress <- $r2
	@DEBUG_VALUE: HAL_DMA_Start:SrcAddress <- $r1
	@DEBUG_VALUE: HAL_DMA_Start:status <- 0
	.loc	2 0 5                           @ libraries/STM32H7xx_HAL/STM32H7xx_HAL_Driver/Src/stm32h7xx_hal_dma.c:0:5
	movw	r5, #1136
	movt	r5, #16386
	.loc	2 606 5                         @ libraries/STM32H7xx_HAL/STM32H7xx_HAL_Driver/Src/stm32h7xx_hal_dma.c:606:5
	cmp	r0, r5
	beq	.LBB6_30
.Ltmp329:
@ %bb.20:
	@DEBUG_VALUE: HAL_DMA_Start:hdma <- $r4
	@DEBUG_VALUE: HAL_DMA_Start:DataLength <- $r3
	@DEBUG_VALUE: HAL_DMA_Start:DstAddress <- $r2
	@DEBUG_VALUE: HAL_DMA_Start:SrcAddress <- $r1
	@DEBUG_VALUE: HAL_DMA_Start:status <- 0
	.loc	2 0 5                           @ libraries/STM32H7xx_HAL/STM32H7xx_HAL_Driver/Src/stm32h7xx_hal_dma.c:0:5
	movw	r5, #1160
	b	.LBB6_29
.Ltmp330:
.LBB6_21:
	@DEBUG_VALUE: HAL_DMA_Start:hdma <- $r4
	@DEBUG_VALUE: HAL_DMA_Start:DataLength <- $r3
	@DEBUG_VALUE: HAL_DMA_Start:DstAddress <- $r2
	@DEBUG_VALUE: HAL_DMA_Start:SrcAddress <- $r1
	@DEBUG_VALUE: HAL_DMA_Start:status <- 0
	movs	r5, #64
	movt	r5, #16386
	.loc	2 606 5                         @ libraries/STM32H7xx_HAL/STM32H7xx_HAL_Driver/Src/stm32h7xx_hal_dma.c:606:5
	cmp	r0, r5
	beq	.LBB6_30
.Ltmp331:
@ %bb.22:
	@DEBUG_VALUE: HAL_DMA_Start:hdma <- $r4
	@DEBUG_VALUE: HAL_DMA_Start:DataLength <- $r3
	@DEBUG_VALUE: HAL_DMA_Start:DstAddress <- $r2
	@DEBUG_VALUE: HAL_DMA_Start:SrcAddress <- $r1
	@DEBUG_VALUE: HAL_DMA_Start:status <- 0
	.loc	2 0 5                           @ libraries/STM32H7xx_HAL/STM32H7xx_HAL_Driver/Src/stm32h7xx_hal_dma.c:0:5
	movs	r5, #88
	b	.LBB6_29
.Ltmp332:
.LBB6_23:
	@DEBUG_VALUE: HAL_DMA_Start:hdma <- $r4
	@DEBUG_VALUE: HAL_DMA_Start:DataLength <- $r3
	@DEBUG_VALUE: HAL_DMA_Start:DstAddress <- $r2
	@DEBUG_VALUE: HAL_DMA_Start:SrcAddress <- $r1
	@DEBUG_VALUE: HAL_DMA_Start:status <- 0
	movw	r5, #1088
	movt	r5, #16386
	.loc	2 606 5                         @ libraries/STM32H7xx_HAL/STM32H7xx_HAL_Driver/Src/stm32h7xx_hal_dma.c:606:5
	cmp	r0, r5
	beq	.LBB6_30
.Ltmp333:
@ %bb.24:
	@DEBUG_VALUE: HAL_DMA_Start:hdma <- $r4
	@DEBUG_VALUE: HAL_DMA_Start:DataLength <- $r3
	@DEBUG_VALUE: HAL_DMA_Start:DstAddress <- $r2
	@DEBUG_VALUE: HAL_DMA_Start:SrcAddress <- $r1
	@DEBUG_VALUE: HAL_DMA_Start:status <- 0
	.loc	2 0 5                           @ libraries/STM32H7xx_HAL/STM32H7xx_HAL_Driver/Src/stm32h7xx_hal_dma.c:0:5
	movw	r5, #1112
	b	.LBB6_29
.Ltmp334:
.LBB6_25:
	@DEBUG_VALUE: HAL_DMA_Start:hdma <- $r4
	@DEBUG_VALUE: HAL_DMA_Start:DataLength <- $r3
	@DEBUG_VALUE: HAL_DMA_Start:DstAddress <- $r2
	@DEBUG_VALUE: HAL_DMA_Start:SrcAddress <- $r1
	@DEBUG_VALUE: HAL_DMA_Start:status <- 0
	movs	r5, #160
	movt	r5, #16386
	.loc	2 606 5                         @ libraries/STM32H7xx_HAL/STM32H7xx_HAL_Driver/Src/stm32h7xx_hal_dma.c:606:5
	cmp	r0, r5
	beq	.LBB6_30
.Ltmp335:
@ %bb.26:
	@DEBUG_VALUE: HAL_DMA_Start:hdma <- $r4
	@DEBUG_VALUE: HAL_DMA_Start:DataLength <- $r3
	@DEBUG_VALUE: HAL_DMA_Start:DstAddress <- $r2
	@DEBUG_VALUE: HAL_DMA_Start:SrcAddress <- $r1
	@DEBUG_VALUE: HAL_DMA_Start:status <- 0
	.loc	2 0 5                           @ libraries/STM32H7xx_HAL/STM32H7xx_HAL_Driver/Src/stm32h7xx_hal_dma.c:0:5
	movs	r5, #184
	b	.LBB6_29
.Ltmp336:
.LBB6_27:
	@DEBUG_VALUE: HAL_DMA_Start:hdma <- $r4
	@DEBUG_VALUE: HAL_DMA_Start:DataLength <- $r3
	@DEBUG_VALUE: HAL_DMA_Start:DstAddress <- $r2
	@DEBUG_VALUE: HAL_DMA_Start:SrcAddress <- $r1
	@DEBUG_VALUE: HAL_DMA_Start:status <- 0
	movw	r5, #1208
	movt	r5, #16386
	.loc	2 606 5                         @ libraries/STM32H7xx_HAL/STM32H7xx_HAL_Driver/Src/stm32h7xx_hal_dma.c:606:5
	cmp	r0, r5
	beq	.LBB6_30
.Ltmp337:
@ %bb.28:
	@DEBUG_VALUE: HAL_DMA_Start:hdma <- $r4
	@DEBUG_VALUE: HAL_DMA_Start:DataLength <- $r3
	@DEBUG_VALUE: HAL_DMA_Start:DstAddress <- $r2
	@DEBUG_VALUE: HAL_DMA_Start:SrcAddress <- $r1
	@DEBUG_VALUE: HAL_DMA_Start:status <- 0
	.loc	2 0 5                           @ libraries/STM32H7xx_HAL/STM32H7xx_HAL_Driver/Src/stm32h7xx_hal_dma.c:0:5
	movw	r5, #1184
.Ltmp338:
.LBB6_29:
	@DEBUG_VALUE: HAL_DMA_Start:hdma <- $r4
	@DEBUG_VALUE: HAL_DMA_Start:DataLength <- $r3
	@DEBUG_VALUE: HAL_DMA_Start:DstAddress <- $r2
	@DEBUG_VALUE: HAL_DMA_Start:SrcAddress <- $r1
	@DEBUG_VALUE: HAL_DMA_Start:status <- 0
	movt	r5, #16386
	.loc	2 606 5                         @ libraries/STM32H7xx_HAL/STM32H7xx_HAL_Driver/Src/stm32h7xx_hal_dma.c:606:5
	cmp	r0, r5
	it	eq
	ldreq	r0, [r4]
	b	.LBB6_31
.Ltmp339:
.LBB6_30:
	@DEBUG_VALUE: HAL_DMA_Start:hdma <- $r4
	@DEBUG_VALUE: HAL_DMA_Start:DataLength <- $r3
	@DEBUG_VALUE: HAL_DMA_Start:DstAddress <- $r2
	@DEBUG_VALUE: HAL_DMA_Start:SrcAddress <- $r1
	@DEBUG_VALUE: HAL_DMA_Start:status <- 0
	ldr	r0, [r4]
.Ltmp340:
.LBB6_31:
	@DEBUG_VALUE: HAL_DMA_Start:hdma <- $r4
	@DEBUG_VALUE: HAL_DMA_Start:DataLength <- $r3
	@DEBUG_VALUE: HAL_DMA_Start:DstAddress <- $r2
	@DEBUG_VALUE: HAL_DMA_Start:SrcAddress <- $r1
	@DEBUG_VALUE: HAL_DMA_Start:status <- 0
	ldr	r5, [r0]
	bic	r5, r5, #1
	str	r5, [r0]
	.loc	2 609 5 is_stmt 1               @ libraries/STM32H7xx_HAL/STM32H7xx_HAL_Driver/Src/stm32h7xx_hal_dma.c:609:5
	mov	r0, r4
	bl	DMA_SetConfig
.Ltmp341:
	@DEBUG_VALUE: HAL_DMA_Start:DataLength <- [DW_OP_LLVM_entry_value 1] $r3
	@DEBUG_VALUE: HAL_DMA_Start:DstAddress <- [DW_OP_LLVM_entry_value 1] $r2
	@DEBUG_VALUE: HAL_DMA_Start:SrcAddress <- [DW_OP_LLVM_entry_value 1] $r1
	.loc	2 612 5                         @ libraries/STM32H7xx_HAL/STM32H7xx_HAL_Driver/Src/stm32h7xx_hal_dma.c:612:5
	ldr	r0, [r4]
	cmp	r0, r7
	bgt	.LBB6_36
.Ltmp342:
@ %bb.32:
	@DEBUG_VALUE: HAL_DMA_Start:hdma <- $r4
	@DEBUG_VALUE: HAL_DMA_Start:DataLength <- [DW_OP_LLVM_entry_value 1] $r3
	@DEBUG_VALUE: HAL_DMA_Start:DstAddress <- [DW_OP_LLVM_entry_value 1] $r2
	@DEBUG_VALUE: HAL_DMA_Start:SrcAddress <- [DW_OP_LLVM_entry_value 1] $r1
	@DEBUG_VALUE: HAL_DMA_Start:status <- 0
	cmp	r0, r6
	bgt	.LBB6_40
.Ltmp343:
@ %bb.33:
	@DEBUG_VALUE: HAL_DMA_Start:hdma <- $r4
	@DEBUG_VALUE: HAL_DMA_Start:DataLength <- [DW_OP_LLVM_entry_value 1] $r3
	@DEBUG_VALUE: HAL_DMA_Start:DstAddress <- [DW_OP_LLVM_entry_value 1] $r2
	@DEBUG_VALUE: HAL_DMA_Start:SrcAddress <- [DW_OP_LLVM_entry_value 1] $r1
	@DEBUG_VALUE: HAL_DMA_Start:status <- 0
	.loc	2 0 5 is_stmt 0                 @ libraries/STM32H7xx_HAL/STM32H7xx_HAL_Driver/Src/stm32h7xx_hal_dma.c:0:5
	movs	r1, #63
	movt	r1, #16386
	.loc	2 612 5                         @ libraries/STM32H7xx_HAL/STM32H7xx_HAL_Driver/Src/stm32h7xx_hal_dma.c:612:5
	cmp	r0, r1
	bgt	.LBB6_46
.Ltmp344:
@ %bb.34:
	@DEBUG_VALUE: HAL_DMA_Start:hdma <- $r4
	@DEBUG_VALUE: HAL_DMA_Start:DataLength <- [DW_OP_LLVM_entry_value 1] $r3
	@DEBUG_VALUE: HAL_DMA_Start:DstAddress <- [DW_OP_LLVM_entry_value 1] $r2
	@DEBUG_VALUE: HAL_DMA_Start:SrcAddress <- [DW_OP_LLVM_entry_value 1] $r1
	@DEBUG_VALUE: HAL_DMA_Start:status <- 0
	.loc	2 0 5                           @ libraries/STM32H7xx_HAL/STM32H7xx_HAL_Driver/Src/stm32h7xx_hal_dma.c:0:5
	movs	r1, #16
	movt	r1, #16386
	.loc	2 612 5                         @ libraries/STM32H7xx_HAL/STM32H7xx_HAL_Driver/Src/stm32h7xx_hal_dma.c:612:5
	cmp	r0, r1
	beq	.LBB6_55
.Ltmp345:
@ %bb.35:
	@DEBUG_VALUE: HAL_DMA_Start:hdma <- $r4
	@DEBUG_VALUE: HAL_DMA_Start:DataLength <- [DW_OP_LLVM_entry_value 1] $r3
	@DEBUG_VALUE: HAL_DMA_Start:DstAddress <- [DW_OP_LLVM_entry_value 1] $r2
	@DEBUG_VALUE: HAL_DMA_Start:SrcAddress <- [DW_OP_LLVM_entry_value 1] $r1
	@DEBUG_VALUE: HAL_DMA_Start:status <- 0
	.loc	2 0 5                           @ libraries/STM32H7xx_HAL/STM32H7xx_HAL_Driver/Src/stm32h7xx_hal_dma.c:0:5
	movs	r1, #40
	b	.LBB6_54
.Ltmp346:
.LBB6_36:
	@DEBUG_VALUE: HAL_DMA_Start:hdma <- $r4
	@DEBUG_VALUE: HAL_DMA_Start:DataLength <- [DW_OP_LLVM_entry_value 1] $r3
	@DEBUG_VALUE: HAL_DMA_Start:DstAddress <- [DW_OP_LLVM_entry_value 1] $r2
	@DEBUG_VALUE: HAL_DMA_Start:SrcAddress <- [DW_OP_LLVM_entry_value 1] $r1
	@DEBUG_VALUE: HAL_DMA_Start:status <- 0
	.loc	2 612 5                         @ libraries/STM32H7xx_HAL/STM32H7xx_HAL_Driver/Src/stm32h7xx_hal_dma.c:612:5
	cmp	r0, r8
	bgt	.LBB6_43
.Ltmp347:
@ %bb.37:
	@DEBUG_VALUE: HAL_DMA_Start:hdma <- $r4
	@DEBUG_VALUE: HAL_DMA_Start:DataLength <- [DW_OP_LLVM_entry_value 1] $r3
	@DEBUG_VALUE: HAL_DMA_Start:DstAddress <- [DW_OP_LLVM_entry_value 1] $r2
	@DEBUG_VALUE: HAL_DMA_Start:SrcAddress <- [DW_OP_LLVM_entry_value 1] $r1
	@DEBUG_VALUE: HAL_DMA_Start:status <- 0
	.loc	2 0 5                           @ libraries/STM32H7xx_HAL/STM32H7xx_HAL_Driver/Src/stm32h7xx_hal_dma.c:0:5
	movw	r1, #1087
	movt	r1, #16386
	.loc	2 612 5                         @ libraries/STM32H7xx_HAL/STM32H7xx_HAL_Driver/Src/stm32h7xx_hal_dma.c:612:5
	cmp	r0, r1
	bgt	.LBB6_48
.Ltmp348:
@ %bb.38:
	@DEBUG_VALUE: HAL_DMA_Start:hdma <- $r4
	@DEBUG_VALUE: HAL_DMA_Start:DataLength <- [DW_OP_LLVM_entry_value 1] $r3
	@DEBUG_VALUE: HAL_DMA_Start:DstAddress <- [DW_OP_LLVM_entry_value 1] $r2
	@DEBUG_VALUE: HAL_DMA_Start:SrcAddress <- [DW_OP_LLVM_entry_value 1] $r1
	@DEBUG_VALUE: HAL_DMA_Start:status <- 0
	.loc	2 0 5                           @ libraries/STM32H7xx_HAL/STM32H7xx_HAL_Driver/Src/stm32h7xx_hal_dma.c:0:5
	movw	r1, #1040
	movt	r1, #16386
	.loc	2 612 5                         @ libraries/STM32H7xx_HAL/STM32H7xx_HAL_Driver/Src/stm32h7xx_hal_dma.c:612:5
	cmp	r0, r1
	beq	.LBB6_55
.Ltmp349:
@ %bb.39:
	@DEBUG_VALUE: HAL_DMA_Start:hdma <- $r4
	@DEBUG_VALUE: HAL_DMA_Start:DataLength <- [DW_OP_LLVM_entry_value 1] $r3
	@DEBUG_VALUE: HAL_DMA_Start:DstAddress <- [DW_OP_LLVM_entry_value 1] $r2
	@DEBUG_VALUE: HAL_DMA_Start:SrcAddress <- [DW_OP_LLVM_entry_value 1] $r1
	@DEBUG_VALUE: HAL_DMA_Start:status <- 0
	.loc	2 0 5                           @ libraries/STM32H7xx_HAL/STM32H7xx_HAL_Driver/Src/stm32h7xx_hal_dma.c:0:5
	movw	r1, #1064
	b	.LBB6_54
.Ltmp350:
.LBB6_40:
	@DEBUG_VALUE: HAL_DMA_Start:hdma <- $r4
	@DEBUG_VALUE: HAL_DMA_Start:DataLength <- [DW_OP_LLVM_entry_value 1] $r3
	@DEBUG_VALUE: HAL_DMA_Start:DstAddress <- [DW_OP_LLVM_entry_value 1] $r2
	@DEBUG_VALUE: HAL_DMA_Start:SrcAddress <- [DW_OP_LLVM_entry_value 1] $r1
	@DEBUG_VALUE: HAL_DMA_Start:status <- 0
	movs	r1, #159
	movt	r1, #16386
	.loc	2 612 5                         @ libraries/STM32H7xx_HAL/STM32H7xx_HAL_Driver/Src/stm32h7xx_hal_dma.c:612:5
	cmp	r0, r1
	bgt	.LBB6_50
.Ltmp351:
@ %bb.41:
	@DEBUG_VALUE: HAL_DMA_Start:hdma <- $r4
	@DEBUG_VALUE: HAL_DMA_Start:DataLength <- [DW_OP_LLVM_entry_value 1] $r3
	@DEBUG_VALUE: HAL_DMA_Start:DstAddress <- [DW_OP_LLVM_entry_value 1] $r2
	@DEBUG_VALUE: HAL_DMA_Start:SrcAddress <- [DW_OP_LLVM_entry_value 1] $r1
	@DEBUG_VALUE: HAL_DMA_Start:status <- 0
	.loc	2 0 5                           @ libraries/STM32H7xx_HAL/STM32H7xx_HAL_Driver/Src/stm32h7xx_hal_dma.c:0:5
	movs	r1, #112
	movt	r1, #16386
	.loc	2 612 5                         @ libraries/STM32H7xx_HAL/STM32H7xx_HAL_Driver/Src/stm32h7xx_hal_dma.c:612:5
	cmp	r0, r1
	beq	.LBB6_55
.Ltmp352:
@ %bb.42:
	@DEBUG_VALUE: HAL_DMA_Start:hdma <- $r4
	@DEBUG_VALUE: HAL_DMA_Start:DataLength <- [DW_OP_LLVM_entry_value 1] $r3
	@DEBUG_VALUE: HAL_DMA_Start:DstAddress <- [DW_OP_LLVM_entry_value 1] $r2
	@DEBUG_VALUE: HAL_DMA_Start:SrcAddress <- [DW_OP_LLVM_entry_value 1] $r1
	@DEBUG_VALUE: HAL_DMA_Start:status <- 0
	.loc	2 0 5                           @ libraries/STM32H7xx_HAL/STM32H7xx_HAL_Driver/Src/stm32h7xx_hal_dma.c:0:5
	movs	r1, #136
	b	.LBB6_54
.Ltmp353:
.LBB6_43:
	@DEBUG_VALUE: HAL_DMA_Start:hdma <- $r4
	@DEBUG_VALUE: HAL_DMA_Start:DataLength <- [DW_OP_LLVM_entry_value 1] $r3
	@DEBUG_VALUE: HAL_DMA_Start:DstAddress <- [DW_OP_LLVM_entry_value 1] $r2
	@DEBUG_VALUE: HAL_DMA_Start:SrcAddress <- [DW_OP_LLVM_entry_value 1] $r1
	@DEBUG_VALUE: HAL_DMA_Start:status <- 0
	movw	r1, #1183
	movt	r1, #16386
	.loc	2 612 5                         @ libraries/STM32H7xx_HAL/STM32H7xx_HAL_Driver/Src/stm32h7xx_hal_dma.c:612:5
	cmp	r0, r1
	bgt	.LBB6_52
.Ltmp354:
@ %bb.44:
	@DEBUG_VALUE: HAL_DMA_Start:hdma <- $r4
	@DEBUG_VALUE: HAL_DMA_Start:DataLength <- [DW_OP_LLVM_entry_value 1] $r3
	@DEBUG_VALUE: HAL_DMA_Start:DstAddress <- [DW_OP_LLVM_entry_value 1] $r2
	@DEBUG_VALUE: HAL_DMA_Start:SrcAddress <- [DW_OP_LLVM_entry_value 1] $r1
	@DEBUG_VALUE: HAL_DMA_Start:status <- 0
	.loc	2 0 5                           @ libraries/STM32H7xx_HAL/STM32H7xx_HAL_Driver/Src/stm32h7xx_hal_dma.c:0:5
	movw	r1, #1136
	movt	r1, #16386
	.loc	2 612 5                         @ libraries/STM32H7xx_HAL/STM32H7xx_HAL_Driver/Src/stm32h7xx_hal_dma.c:612:5
	cmp	r0, r1
	beq	.LBB6_55
.Ltmp355:
@ %bb.45:
	@DEBUG_VALUE: HAL_DMA_Start:hdma <- $r4
	@DEBUG_VALUE: HAL_DMA_Start:DataLength <- [DW_OP_LLVM_entry_value 1] $r3
	@DEBUG_VALUE: HAL_DMA_Start:DstAddress <- [DW_OP_LLVM_entry_value 1] $r2
	@DEBUG_VALUE: HAL_DMA_Start:SrcAddress <- [DW_OP_LLVM_entry_value 1] $r1
	@DEBUG_VALUE: HAL_DMA_Start:status <- 0
	.loc	2 0 5                           @ libraries/STM32H7xx_HAL/STM32H7xx_HAL_Driver/Src/stm32h7xx_hal_dma.c:0:5
	movw	r1, #1160
	b	.LBB6_54
.Ltmp356:
.LBB6_46:
	@DEBUG_VALUE: HAL_DMA_Start:hdma <- $r4
	@DEBUG_VALUE: HAL_DMA_Start:DataLength <- [DW_OP_LLVM_entry_value 1] $r3
	@DEBUG_VALUE: HAL_DMA_Start:DstAddress <- [DW_OP_LLVM_entry_value 1] $r2
	@DEBUG_VALUE: HAL_DMA_Start:SrcAddress <- [DW_OP_LLVM_entry_value 1] $r1
	@DEBUG_VALUE: HAL_DMA_Start:status <- 0
	movs	r1, #64
	movt	r1, #16386
	.loc	2 612 5                         @ libraries/STM32H7xx_HAL/STM32H7xx_HAL_Driver/Src/stm32h7xx_hal_dma.c:612:5
	cmp	r0, r1
	beq	.LBB6_55
.Ltmp357:
@ %bb.47:
	@DEBUG_VALUE: HAL_DMA_Start:hdma <- $r4
	@DEBUG_VALUE: HAL_DMA_Start:DataLength <- [DW_OP_LLVM_entry_value 1] $r3
	@DEBUG_VALUE: HAL_DMA_Start:DstAddress <- [DW_OP_LLVM_entry_value 1] $r2
	@DEBUG_VALUE: HAL_DMA_Start:SrcAddress <- [DW_OP_LLVM_entry_value 1] $r1
	@DEBUG_VALUE: HAL_DMA_Start:status <- 0
	.loc	2 0 5                           @ libraries/STM32H7xx_HAL/STM32H7xx_HAL_Driver/Src/stm32h7xx_hal_dma.c:0:5
	movs	r1, #88
	b	.LBB6_54
.Ltmp358:
.LBB6_48:
	@DEBUG_VALUE: HAL_DMA_Start:hdma <- $r4
	@DEBUG_VALUE: HAL_DMA_Start:DataLength <- [DW_OP_LLVM_entry_value 1] $r3
	@DEBUG_VALUE: HAL_DMA_Start:DstAddress <- [DW_OP_LLVM_entry_value 1] $r2
	@DEBUG_VALUE: HAL_DMA_Start:SrcAddress <- [DW_OP_LLVM_entry_value 1] $r1
	@DEBUG_VALUE: HAL_DMA_Start:status <- 0
	movw	r1, #1088
	movt	r1, #16386
	.loc	2 612 5                         @ libraries/STM32H7xx_HAL/STM32H7xx_HAL_Driver/Src/stm32h7xx_hal_dma.c:612:5
	cmp	r0, r1
	beq	.LBB6_55
.Ltmp359:
@ %bb.49:
	@DEBUG_VALUE: HAL_DMA_Start:hdma <- $r4
	@DEBUG_VALUE: HAL_DMA_Start:DataLength <- [DW_OP_LLVM_entry_value 1] $r3
	@DEBUG_VALUE: HAL_DMA_Start:DstAddress <- [DW_OP_LLVM_entry_value 1] $r2
	@DEBUG_VALUE: HAL_DMA_Start:SrcAddress <- [DW_OP_LLVM_entry_value 1] $r1
	@DEBUG_VALUE: HAL_DMA_Start:status <- 0
	.loc	2 0 5                           @ libraries/STM32H7xx_HAL/STM32H7xx_HAL_Driver/Src/stm32h7xx_hal_dma.c:0:5
	movw	r1, #1112
	b	.LBB6_54
.Ltmp360:
.LBB6_50:
	@DEBUG_VALUE: HAL_DMA_Start:hdma <- $r4
	@DEBUG_VALUE: HAL_DMA_Start:DataLength <- [DW_OP_LLVM_entry_value 1] $r3
	@DEBUG_VALUE: HAL_DMA_Start:DstAddress <- [DW_OP_LLVM_entry_value 1] $r2
	@DEBUG_VALUE: HAL_DMA_Start:SrcAddress <- [DW_OP_LLVM_entry_value 1] $r1
	@DEBUG_VALUE: HAL_DMA_Start:status <- 0
	movs	r1, #160
	movt	r1, #16386
	.loc	2 612 5                         @ libraries/STM32H7xx_HAL/STM32H7xx_HAL_Driver/Src/stm32h7xx_hal_dma.c:612:5
	cmp	r0, r1
	beq	.LBB6_55
.Ltmp361:
@ %bb.51:
	@DEBUG_VALUE: HAL_DMA_Start:hdma <- $r4
	@DEBUG_VALUE: HAL_DMA_Start:DataLength <- [DW_OP_LLVM_entry_value 1] $r3
	@DEBUG_VALUE: HAL_DMA_Start:DstAddress <- [DW_OP_LLVM_entry_value 1] $r2
	@DEBUG_VALUE: HAL_DMA_Start:SrcAddress <- [DW_OP_LLVM_entry_value 1] $r1
	@DEBUG_VALUE: HAL_DMA_Start:status <- 0
	.loc	2 0 5                           @ libraries/STM32H7xx_HAL/STM32H7xx_HAL_Driver/Src/stm32h7xx_hal_dma.c:0:5
	movs	r1, #184
	b	.LBB6_54
.Ltmp362:
.LBB6_52:
	@DEBUG_VALUE: HAL_DMA_Start:hdma <- $r4
	@DEBUG_VALUE: HAL_DMA_Start:DataLength <- [DW_OP_LLVM_entry_value 1] $r3
	@DEBUG_VALUE: HAL_DMA_Start:DstAddress <- [DW_OP_LLVM_entry_value 1] $r2
	@DEBUG_VALUE: HAL_DMA_Start:SrcAddress <- [DW_OP_LLVM_entry_value 1] $r1
	@DEBUG_VALUE: HAL_DMA_Start:status <- 0
	movw	r1, #1208
	movt	r1, #16386
	.loc	2 612 5                         @ libraries/STM32H7xx_HAL/STM32H7xx_HAL_Driver/Src/stm32h7xx_hal_dma.c:612:5
	cmp	r0, r1
	beq	.LBB6_55
.Ltmp363:
@ %bb.53:
	@DEBUG_VALUE: HAL_DMA_Start:hdma <- $r4
	@DEBUG_VALUE: HAL_DMA_Start:DataLength <- [DW_OP_LLVM_entry_value 1] $r3
	@DEBUG_VALUE: HAL_DMA_Start:DstAddress <- [DW_OP_LLVM_entry_value 1] $r2
	@DEBUG_VALUE: HAL_DMA_Start:SrcAddress <- [DW_OP_LLVM_entry_value 1] $r1
	@DEBUG_VALUE: HAL_DMA_Start:status <- 0
	.loc	2 0 5                           @ libraries/STM32H7xx_HAL/STM32H7xx_HAL_Driver/Src/stm32h7xx_hal_dma.c:0:5
	movw	r1, #1184
.Ltmp364:
.LBB6_54:
	@DEBUG_VALUE: HAL_DMA_Start:hdma <- $r4
	@DEBUG_VALUE: HAL_DMA_Start:DataLength <- [DW_OP_LLVM_entry_value 1] $r3
	@DEBUG_VALUE: HAL_DMA_Start:DstAddress <- [DW_OP_LLVM_entry_value 1] $r2
	@DEBUG_VALUE: HAL_DMA_Start:SrcAddress <- [DW_OP_LLVM_entry_value 1] $r1
	@DEBUG_VALUE: HAL_DMA_Start:status <- 0
	movt	r1, #16386
	.loc	2 612 5                         @ libraries/STM32H7xx_HAL/STM32H7xx_HAL_Driver/Src/stm32h7xx_hal_dma.c:612:5
	cmp	r0, r1
	it	eq
	ldreq	r0, [r4]
	b	.LBB6_56
.Ltmp365:
.LBB6_55:
	@DEBUG_VALUE: HAL_DMA_Start:hdma <- $r4
	@DEBUG_VALUE: HAL_DMA_Start:DataLength <- [DW_OP_LLVM_entry_value 1] $r3
	@DEBUG_VALUE: HAL_DMA_Start:DstAddress <- [DW_OP_LLVM_entry_value 1] $r2
	@DEBUG_VALUE: HAL_DMA_Start:SrcAddress <- [DW_OP_LLVM_entry_value 1] $r1
	@DEBUG_VALUE: HAL_DMA_Start:status <- 0
	ldr	r0, [r4]
.Ltmp366:
.LBB6_56:
	@DEBUG_VALUE: HAL_DMA_Start:hdma <- $r4
	@DEBUG_VALUE: HAL_DMA_Start:DataLength <- [DW_OP_LLVM_entry_value 1] $r3
	@DEBUG_VALUE: HAL_DMA_Start:DstAddress <- [DW_OP_LLVM_entry_value 1] $r2
	@DEBUG_VALUE: HAL_DMA_Start:SrcAddress <- [DW_OP_LLVM_entry_value 1] $r1
	@DEBUG_VALUE: HAL_DMA_Start:status <- 0
	ldr	r1, [r0]
	orr	r1, r1, #1
	str	r1, [r0]
	movs	r0, #0
.Ltmp367:
	.loc	2 626 1 is_stmt 1               @ libraries/STM32H7xx_HAL/STM32H7xx_HAL_Driver/Src/stm32h7xx_hal_dma.c:626:1
	pop.w	{r4, r5, r6, r7, r8, pc}
.Ltmp368:
.Lfunc_end6:
	.size	HAL_DMA_Start, .Lfunc_end6-HAL_DMA_Start
	.cfi_endproc
	.cantunwind
	.fnend
                                        @ -- End function
	.section	.text.DMA_SetConfig,"ax",%progbits
	.p2align	3                               @ -- Begin function DMA_SetConfig
	.type	DMA_SetConfig,%function
	.code	16                              @ @DMA_SetConfig
	.thumb_func
DMA_SetConfig:
.Lfunc_begin7:
	.loc	2 1713 0                        @ libraries/STM32H7xx_HAL/STM32H7xx_HAL_Driver/Src/stm32h7xx_hal_dma.c:1713:0
	.fnstart
	.cfi_startproc
@ %bb.0:
	@DEBUG_VALUE: DMA_SetConfig:hdma <- $r0
	@DEBUG_VALUE: DMA_SetConfig:hdma <- $r0
	@DEBUG_VALUE: DMA_SetConfig:SrcAddress <- $r1
	@DEBUG_VALUE: DMA_SetConfig:SrcAddress <- $r1
	@DEBUG_VALUE: DMA_SetConfig:DstAddress <- $r2
	@DEBUG_VALUE: DMA_SetConfig:DstAddress <- $r2
	@DEBUG_VALUE: DMA_SetConfig:DataLength <- $r3
	@DEBUG_VALUE: DMA_SetConfig:DataLength <- $r3
	.save	{r4, r5, r7, lr}
	push	{r4, r5, r7, lr}
	.cfi_def_cfa_offset 16
	.cfi_offset lr, -4
	.cfi_offset r7, -8
	.cfi_offset r5, -12
	.cfi_offset r4, -16
.Ltmp369:
	.loc	2 1719 9 prologue_end           @ libraries/STM32H7xx_HAL/STM32H7xx_HAL_Driver/Src/stm32h7xx_hal_dma.c:1719:9
	ldr.w	lr, [r0, #100]
	.loc	2 1715 64                       @ libraries/STM32H7xx_HAL/STM32H7xx_HAL_Driver/Src/stm32h7xx_hal_dma.c:1715:64
	ldr.w	r12, [r0, #88]
.Ltmp370:
	@DEBUG_VALUE: DMA_SetConfig:regs_bdma <- $r12
	@DEBUG_VALUE: DMA_SetConfig:regs_dma <- $r12
	.loc	2 1721 12                       @ libraries/STM32H7xx_HAL/STM32H7xx_HAL_Driver/Src/stm32h7xx_hal_dma.c:1721:12
	ldr	r4, [r0, #108]
.Ltmp371:
	.loc	2 1721 6 is_stmt 0              @ libraries/STM32H7xx_HAL/STM32H7xx_HAL_Driver/Src/stm32h7xx_hal_dma.c:1721:6
	cmp	r4, #0
	.loc	2 1719 42 is_stmt 1             @ libraries/STM32H7xx_HAL/STM32H7xx_HAL_Driver/Src/stm32h7xx_hal_dma.c:1719:42
	ldr	r4, [r0, #104]
	.loc	2 1719 34 is_stmt 0             @ libraries/STM32H7xx_HAL/STM32H7xx_HAL_Driver/Src/stm32h7xx_hal_dma.c:1719:34
	str.w	r4, [lr, #4]
.Ltmp372:
	.loc	2 1724 11 is_stmt 1             @ libraries/STM32H7xx_HAL/STM32H7xx_HAL_Driver/Src/stm32h7xx_hal_dma.c:1724:11
	itt	ne
	ldrdne	lr, r4, [r0, #112]
	.loc	2 1724 41 is_stmt 0             @ libraries/STM32H7xx_HAL/STM32H7xx_HAL_Driver/Src/stm32h7xx_hal_dma.c:1724:41
	strne.w	r4, [lr, #4]
	movw	r4, #1135
.Ltmp373:
	.loc	2 1727 6 is_stmt 1              @ libraries/STM32H7xx_HAL/STM32H7xx_HAL_Driver/Src/stm32h7xx_hal_dma.c:1727:6
	ldr.w	lr, [r0]
	movt	r4, #16386
	cmp	lr, r4
	bgt	.LBB7_6
.Ltmp374:
@ %bb.1:
	@DEBUG_VALUE: DMA_SetConfig:regs_dma <- $r12
	@DEBUG_VALUE: DMA_SetConfig:regs_bdma <- $r12
	@DEBUG_VALUE: DMA_SetConfig:DataLength <- $r3
	@DEBUG_VALUE: DMA_SetConfig:DstAddress <- $r2
	@DEBUG_VALUE: DMA_SetConfig:SrcAddress <- $r1
	@DEBUG_VALUE: DMA_SetConfig:hdma <- $r0
	.loc	2 0 6 is_stmt 0                 @ libraries/STM32H7xx_HAL/STM32H7xx_HAL_Driver/Src/stm32h7xx_hal_dma.c:0:6
	movs	r4, #159
	movt	r4, #16386
	.loc	2 1727 6                        @ libraries/STM32H7xx_HAL/STM32H7xx_HAL_Driver/Src/stm32h7xx_hal_dma.c:1727:6
	cmp	lr, r4
	bgt	.LBB7_11
.Ltmp375:
@ %bb.2:
	@DEBUG_VALUE: DMA_SetConfig:regs_dma <- $r12
	@DEBUG_VALUE: DMA_SetConfig:regs_bdma <- $r12
	@DEBUG_VALUE: DMA_SetConfig:DataLength <- $r3
	@DEBUG_VALUE: DMA_SetConfig:DstAddress <- $r2
	@DEBUG_VALUE: DMA_SetConfig:SrcAddress <- $r1
	@DEBUG_VALUE: DMA_SetConfig:hdma <- $r0
	.loc	2 0 6                           @ libraries/STM32H7xx_HAL/STM32H7xx_HAL_Driver/Src/stm32h7xx_hal_dma.c:0:6
	movs	r4, #87
	movt	r4, #16386
	.loc	2 1727 6                        @ libraries/STM32H7xx_HAL/STM32H7xx_HAL_Driver/Src/stm32h7xx_hal_dma.c:1727:6
	cmp	lr, r4
	bgt	.LBB7_19
.Ltmp376:
@ %bb.3:
	@DEBUG_VALUE: DMA_SetConfig:regs_dma <- $r12
	@DEBUG_VALUE: DMA_SetConfig:regs_bdma <- $r12
	@DEBUG_VALUE: DMA_SetConfig:DataLength <- $r3
	@DEBUG_VALUE: DMA_SetConfig:DstAddress <- $r2
	@DEBUG_VALUE: DMA_SetConfig:SrcAddress <- $r1
	@DEBUG_VALUE: DMA_SetConfig:hdma <- $r0
	.loc	2 0 6                           @ libraries/STM32H7xx_HAL/STM32H7xx_HAL_Driver/Src/stm32h7xx_hal_dma.c:0:6
	movs	r4, #16
	movt	r4, #16386
	.loc	2 1727 6                        @ libraries/STM32H7xx_HAL/STM32H7xx_HAL_Driver/Src/stm32h7xx_hal_dma.c:1727:6
	cmp	lr, r4
	beq	.LBB7_29
.Ltmp377:
@ %bb.4:
	@DEBUG_VALUE: DMA_SetConfig:regs_dma <- $r12
	@DEBUG_VALUE: DMA_SetConfig:regs_bdma <- $r12
	@DEBUG_VALUE: DMA_SetConfig:DataLength <- $r3
	@DEBUG_VALUE: DMA_SetConfig:DstAddress <- $r2
	@DEBUG_VALUE: DMA_SetConfig:SrcAddress <- $r1
	@DEBUG_VALUE: DMA_SetConfig:hdma <- $r0
	.loc	2 0 6                           @ libraries/STM32H7xx_HAL/STM32H7xx_HAL_Driver/Src/stm32h7xx_hal_dma.c:0:6
	movs	r4, #40
	movt	r4, #16386
	.loc	2 1727 6                        @ libraries/STM32H7xx_HAL/STM32H7xx_HAL_Driver/Src/stm32h7xx_hal_dma.c:1727:6
	cmp	lr, r4
	beq	.LBB7_29
.Ltmp378:
@ %bb.5:
	@DEBUG_VALUE: DMA_SetConfig:regs_dma <- $r12
	@DEBUG_VALUE: DMA_SetConfig:regs_bdma <- $r12
	@DEBUG_VALUE: DMA_SetConfig:DataLength <- $r3
	@DEBUG_VALUE: DMA_SetConfig:DstAddress <- $r2
	@DEBUG_VALUE: DMA_SetConfig:SrcAddress <- $r1
	@DEBUG_VALUE: DMA_SetConfig:hdma <- $r0
	.loc	2 0 6                           @ libraries/STM32H7xx_HAL/STM32H7xx_HAL_Driver/Src/stm32h7xx_hal_dma.c:0:6
	movs	r4, #64
	b	.LBB7_28
.Ltmp379:
.LBB7_6:
	@DEBUG_VALUE: DMA_SetConfig:regs_dma <- $r12
	@DEBUG_VALUE: DMA_SetConfig:regs_bdma <- $r12
	@DEBUG_VALUE: DMA_SetConfig:DataLength <- $r3
	@DEBUG_VALUE: DMA_SetConfig:DstAddress <- $r2
	@DEBUG_VALUE: DMA_SetConfig:SrcAddress <- $r1
	@DEBUG_VALUE: DMA_SetConfig:hdma <- $r0
	movw	r4, #21551
	movt	r4, #22530
	.loc	2 1727 6                        @ libraries/STM32H7xx_HAL/STM32H7xx_HAL_Driver/Src/stm32h7xx_hal_dma.c:1727:6
	cmp	lr, r4
	bgt	.LBB7_15
.Ltmp380:
@ %bb.7:
	@DEBUG_VALUE: DMA_SetConfig:regs_dma <- $r12
	@DEBUG_VALUE: DMA_SetConfig:regs_bdma <- $r12
	@DEBUG_VALUE: DMA_SetConfig:DataLength <- $r3
	@DEBUG_VALUE: DMA_SetConfig:DstAddress <- $r2
	@DEBUG_VALUE: DMA_SetConfig:SrcAddress <- $r1
	@DEBUG_VALUE: DMA_SetConfig:hdma <- $r0
	.loc	2 0 6                           @ libraries/STM32H7xx_HAL/STM32H7xx_HAL_Driver/Src/stm32h7xx_hal_dma.c:0:6
	movw	r4, #1207
	movt	r4, #16386
	.loc	2 1727 6                        @ libraries/STM32H7xx_HAL/STM32H7xx_HAL_Driver/Src/stm32h7xx_hal_dma.c:1727:6
	cmp	lr, r4
	bgt	.LBB7_22
.Ltmp381:
@ %bb.8:
	@DEBUG_VALUE: DMA_SetConfig:regs_dma <- $r12
	@DEBUG_VALUE: DMA_SetConfig:regs_bdma <- $r12
	@DEBUG_VALUE: DMA_SetConfig:DataLength <- $r3
	@DEBUG_VALUE: DMA_SetConfig:DstAddress <- $r2
	@DEBUG_VALUE: DMA_SetConfig:SrcAddress <- $r1
	@DEBUG_VALUE: DMA_SetConfig:hdma <- $r0
	.loc	2 0 6                           @ libraries/STM32H7xx_HAL/STM32H7xx_HAL_Driver/Src/stm32h7xx_hal_dma.c:0:6
	movw	r4, #1136
	movt	r4, #16386
	.loc	2 1727 6                        @ libraries/STM32H7xx_HAL/STM32H7xx_HAL_Driver/Src/stm32h7xx_hal_dma.c:1727:6
	cmp	lr, r4
	beq	.LBB7_29
.Ltmp382:
@ %bb.9:
	@DEBUG_VALUE: DMA_SetConfig:regs_dma <- $r12
	@DEBUG_VALUE: DMA_SetConfig:regs_bdma <- $r12
	@DEBUG_VALUE: DMA_SetConfig:DataLength <- $r3
	@DEBUG_VALUE: DMA_SetConfig:DstAddress <- $r2
	@DEBUG_VALUE: DMA_SetConfig:SrcAddress <- $r1
	@DEBUG_VALUE: DMA_SetConfig:hdma <- $r0
	.loc	2 0 6                           @ libraries/STM32H7xx_HAL/STM32H7xx_HAL_Driver/Src/stm32h7xx_hal_dma.c:0:6
	movw	r4, #1160
	movt	r4, #16386
	.loc	2 1727 6                        @ libraries/STM32H7xx_HAL/STM32H7xx_HAL_Driver/Src/stm32h7xx_hal_dma.c:1727:6
	cmp	lr, r4
	beq	.LBB7_29
.Ltmp383:
@ %bb.10:
	@DEBUG_VALUE: DMA_SetConfig:regs_dma <- $r12
	@DEBUG_VALUE: DMA_SetConfig:regs_bdma <- $r12
	@DEBUG_VALUE: DMA_SetConfig:DataLength <- $r3
	@DEBUG_VALUE: DMA_SetConfig:DstAddress <- $r2
	@DEBUG_VALUE: DMA_SetConfig:SrcAddress <- $r1
	@DEBUG_VALUE: DMA_SetConfig:hdma <- $r0
	.loc	2 0 6                           @ libraries/STM32H7xx_HAL/STM32H7xx_HAL_Driver/Src/stm32h7xx_hal_dma.c:0:6
	movw	r4, #1184
	b	.LBB7_28
.Ltmp384:
.LBB7_11:
	@DEBUG_VALUE: DMA_SetConfig:regs_dma <- $r12
	@DEBUG_VALUE: DMA_SetConfig:regs_bdma <- $r12
	@DEBUG_VALUE: DMA_SetConfig:DataLength <- $r3
	@DEBUG_VALUE: DMA_SetConfig:DstAddress <- $r2
	@DEBUG_VALUE: DMA_SetConfig:SrcAddress <- $r1
	@DEBUG_VALUE: DMA_SetConfig:hdma <- $r0
	movw	r4, #1063
	movt	r4, #16386
	.loc	2 1727 6                        @ libraries/STM32H7xx_HAL/STM32H7xx_HAL_Driver/Src/stm32h7xx_hal_dma.c:1727:6
	cmp	lr, r4
	bgt	.LBB7_25
.Ltmp385:
@ %bb.12:
	@DEBUG_VALUE: DMA_SetConfig:regs_dma <- $r12
	@DEBUG_VALUE: DMA_SetConfig:regs_bdma <- $r12
	@DEBUG_VALUE: DMA_SetConfig:DataLength <- $r3
	@DEBUG_VALUE: DMA_SetConfig:DstAddress <- $r2
	@DEBUG_VALUE: DMA_SetConfig:SrcAddress <- $r1
	@DEBUG_VALUE: DMA_SetConfig:hdma <- $r0
	.loc	2 0 6                           @ libraries/STM32H7xx_HAL/STM32H7xx_HAL_Driver/Src/stm32h7xx_hal_dma.c:0:6
	movs	r4, #160
	movt	r4, #16386
	.loc	2 1727 6                        @ libraries/STM32H7xx_HAL/STM32H7xx_HAL_Driver/Src/stm32h7xx_hal_dma.c:1727:6
	cmp	lr, r4
	beq	.LBB7_29
.Ltmp386:
@ %bb.13:
	@DEBUG_VALUE: DMA_SetConfig:regs_dma <- $r12
	@DEBUG_VALUE: DMA_SetConfig:regs_bdma <- $r12
	@DEBUG_VALUE: DMA_SetConfig:DataLength <- $r3
	@DEBUG_VALUE: DMA_SetConfig:DstAddress <- $r2
	@DEBUG_VALUE: DMA_SetConfig:SrcAddress <- $r1
	@DEBUG_VALUE: DMA_SetConfig:hdma <- $r0
	.loc	2 0 6                           @ libraries/STM32H7xx_HAL/STM32H7xx_HAL_Driver/Src/stm32h7xx_hal_dma.c:0:6
	movs	r4, #184
	movt	r4, #16386
	.loc	2 1727 6                        @ libraries/STM32H7xx_HAL/STM32H7xx_HAL_Driver/Src/stm32h7xx_hal_dma.c:1727:6
	cmp	lr, r4
	beq	.LBB7_29
.Ltmp387:
@ %bb.14:
	@DEBUG_VALUE: DMA_SetConfig:regs_dma <- $r12
	@DEBUG_VALUE: DMA_SetConfig:regs_bdma <- $r12
	@DEBUG_VALUE: DMA_SetConfig:DataLength <- $r3
	@DEBUG_VALUE: DMA_SetConfig:DstAddress <- $r2
	@DEBUG_VALUE: DMA_SetConfig:SrcAddress <- $r1
	@DEBUG_VALUE: DMA_SetConfig:hdma <- $r0
	.loc	2 0 6                           @ libraries/STM32H7xx_HAL/STM32H7xx_HAL_Driver/Src/stm32h7xx_hal_dma.c:0:6
	movw	r4, #1040
	b	.LBB7_28
.Ltmp388:
.LBB7_15:
	@DEBUG_VALUE: DMA_SetConfig:regs_dma <- $r12
	@DEBUG_VALUE: DMA_SetConfig:regs_bdma <- $r12
	@DEBUG_VALUE: DMA_SetConfig:DataLength <- $r3
	@DEBUG_VALUE: DMA_SetConfig:DstAddress <- $r2
	@DEBUG_VALUE: DMA_SetConfig:SrcAddress <- $r1
	@DEBUG_VALUE: DMA_SetConfig:hdma <- $r0
	movw	r4, #21611
	movt	r4, #22530
	.loc	2 1727 6                        @ libraries/STM32H7xx_HAL/STM32H7xx_HAL_Driver/Src/stm32h7xx_hal_dma.c:1727:6
	cmp	lr, r4
	bgt	.LBB7_31
.Ltmp389:
@ %bb.16:
	@DEBUG_VALUE: DMA_SetConfig:regs_dma <- $r12
	@DEBUG_VALUE: DMA_SetConfig:regs_bdma <- $r12
	@DEBUG_VALUE: DMA_SetConfig:DataLength <- $r3
	@DEBUG_VALUE: DMA_SetConfig:DstAddress <- $r2
	@DEBUG_VALUE: DMA_SetConfig:SrcAddress <- $r1
	@DEBUG_VALUE: DMA_SetConfig:hdma <- $r0
	.loc	2 0 6                           @ libraries/STM32H7xx_HAL/STM32H7xx_HAL_Driver/Src/stm32h7xx_hal_dma.c:0:6
	movw	r4, #21552
	movt	r4, #22530
	.loc	2 1727 6                        @ libraries/STM32H7xx_HAL/STM32H7xx_HAL_Driver/Src/stm32h7xx_hal_dma.c:1727:6
	cmp	lr, r4
	beq	.LBB7_35
.Ltmp390:
@ %bb.17:
	@DEBUG_VALUE: DMA_SetConfig:regs_dma <- $r12
	@DEBUG_VALUE: DMA_SetConfig:regs_bdma <- $r12
	@DEBUG_VALUE: DMA_SetConfig:DataLength <- $r3
	@DEBUG_VALUE: DMA_SetConfig:DstAddress <- $r2
	@DEBUG_VALUE: DMA_SetConfig:SrcAddress <- $r1
	@DEBUG_VALUE: DMA_SetConfig:hdma <- $r0
	.loc	2 0 6                           @ libraries/STM32H7xx_HAL/STM32H7xx_HAL_Driver/Src/stm32h7xx_hal_dma.c:0:6
	movw	r4, #21572
	movt	r4, #22530
	.loc	2 1727 6                        @ libraries/STM32H7xx_HAL/STM32H7xx_HAL_Driver/Src/stm32h7xx_hal_dma.c:1727:6
	cmp	lr, r4
	beq	.LBB7_35
.Ltmp391:
@ %bb.18:
	@DEBUG_VALUE: DMA_SetConfig:regs_dma <- $r12
	@DEBUG_VALUE: DMA_SetConfig:regs_bdma <- $r12
	@DEBUG_VALUE: DMA_SetConfig:DataLength <- $r3
	@DEBUG_VALUE: DMA_SetConfig:DstAddress <- $r2
	@DEBUG_VALUE: DMA_SetConfig:SrcAddress <- $r1
	@DEBUG_VALUE: DMA_SetConfig:hdma <- $r0
	.loc	2 0 6                           @ libraries/STM32H7xx_HAL/STM32H7xx_HAL_Driver/Src/stm32h7xx_hal_dma.c:0:6
	movw	r4, #21592
	b	.LBB7_34
.Ltmp392:
.LBB7_19:
	@DEBUG_VALUE: DMA_SetConfig:regs_dma <- $r12
	@DEBUG_VALUE: DMA_SetConfig:regs_bdma <- $r12
	@DEBUG_VALUE: DMA_SetConfig:DataLength <- $r3
	@DEBUG_VALUE: DMA_SetConfig:DstAddress <- $r2
	@DEBUG_VALUE: DMA_SetConfig:SrcAddress <- $r1
	@DEBUG_VALUE: DMA_SetConfig:hdma <- $r0
	movs	r4, #88
	movt	r4, #16386
	.loc	2 1727 6                        @ libraries/STM32H7xx_HAL/STM32H7xx_HAL_Driver/Src/stm32h7xx_hal_dma.c:1727:6
	cmp	lr, r4
	beq	.LBB7_29
.Ltmp393:
@ %bb.20:
	@DEBUG_VALUE: DMA_SetConfig:regs_dma <- $r12
	@DEBUG_VALUE: DMA_SetConfig:regs_bdma <- $r12
	@DEBUG_VALUE: DMA_SetConfig:DataLength <- $r3
	@DEBUG_VALUE: DMA_SetConfig:DstAddress <- $r2
	@DEBUG_VALUE: DMA_SetConfig:SrcAddress <- $r1
	@DEBUG_VALUE: DMA_SetConfig:hdma <- $r0
	.loc	2 0 6                           @ libraries/STM32H7xx_HAL/STM32H7xx_HAL_Driver/Src/stm32h7xx_hal_dma.c:0:6
	movs	r4, #112
	movt	r4, #16386
	.loc	2 1727 6                        @ libraries/STM32H7xx_HAL/STM32H7xx_HAL_Driver/Src/stm32h7xx_hal_dma.c:1727:6
	cmp	lr, r4
	beq	.LBB7_29
.Ltmp394:
@ %bb.21:
	@DEBUG_VALUE: DMA_SetConfig:regs_dma <- $r12
	@DEBUG_VALUE: DMA_SetConfig:regs_bdma <- $r12
	@DEBUG_VALUE: DMA_SetConfig:DataLength <- $r3
	@DEBUG_VALUE: DMA_SetConfig:DstAddress <- $r2
	@DEBUG_VALUE: DMA_SetConfig:SrcAddress <- $r1
	@DEBUG_VALUE: DMA_SetConfig:hdma <- $r0
	.loc	2 0 6                           @ libraries/STM32H7xx_HAL/STM32H7xx_HAL_Driver/Src/stm32h7xx_hal_dma.c:0:6
	movs	r4, #136
	b	.LBB7_28
.Ltmp395:
.LBB7_22:
	@DEBUG_VALUE: DMA_SetConfig:regs_dma <- $r12
	@DEBUG_VALUE: DMA_SetConfig:regs_bdma <- $r12
	@DEBUG_VALUE: DMA_SetConfig:DataLength <- $r3
	@DEBUG_VALUE: DMA_SetConfig:DstAddress <- $r2
	@DEBUG_VALUE: DMA_SetConfig:SrcAddress <- $r1
	@DEBUG_VALUE: DMA_SetConfig:hdma <- $r0
	movw	r4, #1208
	movt	r4, #16386
	.loc	2 1727 6                        @ libraries/STM32H7xx_HAL/STM32H7xx_HAL_Driver/Src/stm32h7xx_hal_dma.c:1727:6
	cmp	lr, r4
	beq	.LBB7_29
.Ltmp396:
@ %bb.23:
	@DEBUG_VALUE: DMA_SetConfig:regs_dma <- $r12
	@DEBUG_VALUE: DMA_SetConfig:regs_bdma <- $r12
	@DEBUG_VALUE: DMA_SetConfig:DataLength <- $r3
	@DEBUG_VALUE: DMA_SetConfig:DstAddress <- $r2
	@DEBUG_VALUE: DMA_SetConfig:SrcAddress <- $r1
	@DEBUG_VALUE: DMA_SetConfig:hdma <- $r0
	.loc	2 0 6                           @ libraries/STM32H7xx_HAL/STM32H7xx_HAL_Driver/Src/stm32h7xx_hal_dma.c:0:6
	movw	r4, #21512
	movt	r4, #22530
	.loc	2 1727 6                        @ libraries/STM32H7xx_HAL/STM32H7xx_HAL_Driver/Src/stm32h7xx_hal_dma.c:1727:6
	cmp	lr, r4
	beq	.LBB7_35
.Ltmp397:
@ %bb.24:
	@DEBUG_VALUE: DMA_SetConfig:regs_dma <- $r12
	@DEBUG_VALUE: DMA_SetConfig:regs_bdma <- $r12
	@DEBUG_VALUE: DMA_SetConfig:DataLength <- $r3
	@DEBUG_VALUE: DMA_SetConfig:DstAddress <- $r2
	@DEBUG_VALUE: DMA_SetConfig:SrcAddress <- $r1
	@DEBUG_VALUE: DMA_SetConfig:hdma <- $r0
	.loc	2 0 6                           @ libraries/STM32H7xx_HAL/STM32H7xx_HAL_Driver/Src/stm32h7xx_hal_dma.c:0:6
	movw	r4, #21532
	b	.LBB7_34
.Ltmp398:
.LBB7_25:
	@DEBUG_VALUE: DMA_SetConfig:regs_dma <- $r12
	@DEBUG_VALUE: DMA_SetConfig:regs_bdma <- $r12
	@DEBUG_VALUE: DMA_SetConfig:DataLength <- $r3
	@DEBUG_VALUE: DMA_SetConfig:DstAddress <- $r2
	@DEBUG_VALUE: DMA_SetConfig:SrcAddress <- $r1
	@DEBUG_VALUE: DMA_SetConfig:hdma <- $r0
	movw	r4, #1064
	movt	r4, #16386
	.loc	2 1727 6                        @ libraries/STM32H7xx_HAL/STM32H7xx_HAL_Driver/Src/stm32h7xx_hal_dma.c:1727:6
	cmp	lr, r4
	beq	.LBB7_29
.Ltmp399:
@ %bb.26:
	@DEBUG_VALUE: DMA_SetConfig:regs_dma <- $r12
	@DEBUG_VALUE: DMA_SetConfig:regs_bdma <- $r12
	@DEBUG_VALUE: DMA_SetConfig:DataLength <- $r3
	@DEBUG_VALUE: DMA_SetConfig:DstAddress <- $r2
	@DEBUG_VALUE: DMA_SetConfig:SrcAddress <- $r1
	@DEBUG_VALUE: DMA_SetConfig:hdma <- $r0
	.loc	2 0 6                           @ libraries/STM32H7xx_HAL/STM32H7xx_HAL_Driver/Src/stm32h7xx_hal_dma.c:0:6
	movw	r4, #1088
	movt	r4, #16386
	.loc	2 1727 6                        @ libraries/STM32H7xx_HAL/STM32H7xx_HAL_Driver/Src/stm32h7xx_hal_dma.c:1727:6
	cmp	lr, r4
	beq	.LBB7_29
.Ltmp400:
@ %bb.27:
	@DEBUG_VALUE: DMA_SetConfig:regs_dma <- $r12
	@DEBUG_VALUE: DMA_SetConfig:regs_bdma <- $r12
	@DEBUG_VALUE: DMA_SetConfig:DataLength <- $r3
	@DEBUG_VALUE: DMA_SetConfig:DstAddress <- $r2
	@DEBUG_VALUE: DMA_SetConfig:SrcAddress <- $r1
	@DEBUG_VALUE: DMA_SetConfig:hdma <- $r0
	.loc	2 0 6                           @ libraries/STM32H7xx_HAL/STM32H7xx_HAL_Driver/Src/stm32h7xx_hal_dma.c:0:6
	movw	r4, #1112
.Ltmp401:
.LBB7_28:
	@DEBUG_VALUE: DMA_SetConfig:regs_dma <- $r12
	@DEBUG_VALUE: DMA_SetConfig:regs_bdma <- $r12
	@DEBUG_VALUE: DMA_SetConfig:DataLength <- $r3
	@DEBUG_VALUE: DMA_SetConfig:DstAddress <- $r2
	@DEBUG_VALUE: DMA_SetConfig:SrcAddress <- $r1
	@DEBUG_VALUE: DMA_SetConfig:hdma <- $r0
	movt	r4, #16386
	.loc	2 1727 6                        @ libraries/STM32H7xx_HAL/STM32H7xx_HAL_Driver/Src/stm32h7xx_hal_dma.c:1727:6
	cmp	lr, r4
	bne	.LBB7_38
.Ltmp402:
.LBB7_29:
	@DEBUG_VALUE: DMA_SetConfig:regs_dma <- $r12
	@DEBUG_VALUE: DMA_SetConfig:regs_bdma <- $r12
	@DEBUG_VALUE: DMA_SetConfig:DataLength <- $r3
	@DEBUG_VALUE: DMA_SetConfig:DstAddress <- $r2
	@DEBUG_VALUE: DMA_SetConfig:SrcAddress <- $r1
	@DEBUG_VALUE: DMA_SetConfig:hdma <- $r0
	.loc	2 1733 34 is_stmt 1             @ libraries/STM32H7xx_HAL/STM32H7xx_HAL_Driver/Src/stm32h7xx_hal_dma.c:1733:34
	ldr.w	lr, [r0]
	movs	r5, #63
.Ltmp403:
	.loc	2 1739 20                       @ libraries/STM32H7xx_HAL/STM32H7xx_HAL_Driver/Src/stm32h7xx_hal_dma.c:1739:20
	ldr	r4, [r0, #8]
.Ltmp404:
	.loc	2 1730 39                       @ libraries/STM32H7xx_HAL/STM32H7xx_HAL_Driver/Src/stm32h7xx_hal_dma.c:1730:39
	ldr	r0, [r0, #92]
.Ltmp405:
	@DEBUG_VALUE: DMA_SetConfig:hdma <- [DW_OP_LLVM_entry_value 1] $r0
	.loc	2 1730 51 is_stmt 0             @ libraries/STM32H7xx_HAL/STM32H7xx_HAL_Driver/Src/stm32h7xx_hal_dma.c:1730:51
	and	r0, r0, #31
	.loc	2 1739 8 is_stmt 1              @ libraries/STM32H7xx_HAL/STM32H7xx_HAL_Driver/Src/stm32h7xx_hal_dma.c:1739:8
	cmp	r4, #64
	.loc	2 1730 29                       @ libraries/STM32H7xx_HAL/STM32H7xx_HAL_Driver/Src/stm32h7xx_hal_dma.c:1730:29
	lsl.w	r0, r5, r0
	.loc	2 1730 20 is_stmt 0             @ libraries/STM32H7xx_HAL/STM32H7xx_HAL_Driver/Src/stm32h7xx_hal_dma.c:1730:20
	str.w	r0, [r12, #8]
	.loc	2 1733 48 is_stmt 1             @ libraries/STM32H7xx_HAL/STM32H7xx_HAL_Driver/Src/stm32h7xx_hal_dma.c:1733:48
	ldr.w	r0, [lr]
	bic	r0, r0, #262144
	str.w	r0, [lr]
	.loc	2 1736 50                       @ libraries/STM32H7xx_HAL/STM32H7xx_HAL_Driver/Src/stm32h7xx_hal_dma.c:1736:50
	str.w	r3, [lr, #4]
	beq	.LBB7_36
.Ltmp406:
@ %bb.30:
	@DEBUG_VALUE: DMA_SetConfig:regs_dma <- $r12
	@DEBUG_VALUE: DMA_SetConfig:regs_bdma <- $r12
	@DEBUG_VALUE: DMA_SetConfig:DataLength <- $r3
	@DEBUG_VALUE: DMA_SetConfig:DstAddress <- $r2
	@DEBUG_VALUE: DMA_SetConfig:SrcAddress <- $r1
	@DEBUG_VALUE: DMA_SetConfig:hdma <- [DW_OP_LLVM_entry_value 1] $r0
	.loc	2 1751 51                       @ libraries/STM32H7xx_HAL/STM32H7xx_HAL_Driver/Src/stm32h7xx_hal_dma.c:1751:51
	str.w	r1, [lr, #8]
	.loc	2 1754 52                       @ libraries/STM32H7xx_HAL/STM32H7xx_HAL_Driver/Src/stm32h7xx_hal_dma.c:1754:52
	str.w	r2, [lr, #12]
.Ltmp407:
	.loc	2 1788 1                        @ libraries/STM32H7xx_HAL/STM32H7xx_HAL_Driver/Src/stm32h7xx_hal_dma.c:1788:1
	pop	{r4, r5, r7, pc}
.Ltmp408:
.LBB7_31:
	@DEBUG_VALUE: DMA_SetConfig:regs_dma <- $r12
	@DEBUG_VALUE: DMA_SetConfig:regs_bdma <- $r12
	@DEBUG_VALUE: DMA_SetConfig:DataLength <- $r3
	@DEBUG_VALUE: DMA_SetConfig:DstAddress <- $r2
	@DEBUG_VALUE: DMA_SetConfig:SrcAddress <- $r1
	@DEBUG_VALUE: DMA_SetConfig:hdma <- $r0
	.loc	2 0 1 is_stmt 0                 @ libraries/STM32H7xx_HAL/STM32H7xx_HAL_Driver/Src/stm32h7xx_hal_dma.c:0:1
	movw	r4, #21612
	movt	r4, #22530
.Ltmp409:
	.loc	2 1727 6 is_stmt 1              @ libraries/STM32H7xx_HAL/STM32H7xx_HAL_Driver/Src/stm32h7xx_hal_dma.c:1727:6
	cmp	lr, r4
	beq	.LBB7_35
.Ltmp410:
@ %bb.32:
	@DEBUG_VALUE: DMA_SetConfig:regs_dma <- $r12
	@DEBUG_VALUE: DMA_SetConfig:regs_bdma <- $r12
	@DEBUG_VALUE: DMA_SetConfig:DataLength <- $r3
	@DEBUG_VALUE: DMA_SetConfig:DstAddress <- $r2
	@DEBUG_VALUE: DMA_SetConfig:SrcAddress <- $r1
	@DEBUG_VALUE: DMA_SetConfig:hdma <- $r0
	.loc	2 0 6 is_stmt 0                 @ libraries/STM32H7xx_HAL/STM32H7xx_HAL_Driver/Src/stm32h7xx_hal_dma.c:0:6
	movw	r4, #21632
	movt	r4, #22530
	.loc	2 1727 6                        @ libraries/STM32H7xx_HAL/STM32H7xx_HAL_Driver/Src/stm32h7xx_hal_dma.c:1727:6
	cmp	lr, r4
	beq	.LBB7_35
.Ltmp411:
@ %bb.33:
	@DEBUG_VALUE: DMA_SetConfig:regs_dma <- $r12
	@DEBUG_VALUE: DMA_SetConfig:regs_bdma <- $r12
	@DEBUG_VALUE: DMA_SetConfig:DataLength <- $r3
	@DEBUG_VALUE: DMA_SetConfig:DstAddress <- $r2
	@DEBUG_VALUE: DMA_SetConfig:SrcAddress <- $r1
	@DEBUG_VALUE: DMA_SetConfig:hdma <- $r0
	.loc	2 0 6                           @ libraries/STM32H7xx_HAL/STM32H7xx_HAL_Driver/Src/stm32h7xx_hal_dma.c:0:6
	movw	r4, #21652
.Ltmp412:
.LBB7_34:
	@DEBUG_VALUE: DMA_SetConfig:regs_dma <- $r12
	@DEBUG_VALUE: DMA_SetConfig:regs_bdma <- $r12
	@DEBUG_VALUE: DMA_SetConfig:DataLength <- $r3
	@DEBUG_VALUE: DMA_SetConfig:DstAddress <- $r2
	@DEBUG_VALUE: DMA_SetConfig:SrcAddress <- $r1
	@DEBUG_VALUE: DMA_SetConfig:hdma <- $r0
	movt	r4, #22530
	.loc	2 1727 6                        @ libraries/STM32H7xx_HAL/STM32H7xx_HAL_Driver/Src/stm32h7xx_hal_dma.c:1727:6
	cmp	lr, r4
	bne	.LBB7_38
.Ltmp413:
.LBB7_35:
	@DEBUG_VALUE: DMA_SetConfig:regs_dma <- $r12
	@DEBUG_VALUE: DMA_SetConfig:regs_bdma <- $r12
	@DEBUG_VALUE: DMA_SetConfig:DataLength <- $r3
	@DEBUG_VALUE: DMA_SetConfig:DstAddress <- $r2
	@DEBUG_VALUE: DMA_SetConfig:SrcAddress <- $r1
	@DEBUG_VALUE: DMA_SetConfig:hdma <- $r0
	.loc	2 1763 36 is_stmt 1             @ libraries/STM32H7xx_HAL/STM32H7xx_HAL_Driver/Src/stm32h7xx_hal_dma.c:1763:36
	ldr.w	lr, [r0]
	.loc	2 1760 49                       @ libraries/STM32H7xx_HAL/STM32H7xx_HAL_Driver/Src/stm32h7xx_hal_dma.c:1760:49
	ldr	r4, [r0, #92]
.Ltmp414:
	.loc	2 1766 20                       @ libraries/STM32H7xx_HAL/STM32H7xx_HAL_Driver/Src/stm32h7xx_hal_dma.c:1766:20
	ldr	r0, [r0, #8]
.Ltmp415:
	@DEBUG_VALUE: DMA_SetConfig:hdma <- [DW_OP_LLVM_entry_value 1] $r0
	.loc	2 1760 61                       @ libraries/STM32H7xx_HAL/STM32H7xx_HAL_Driver/Src/stm32h7xx_hal_dma.c:1760:61
	and	r4, r4, #31
	movs	r5, #1
	.loc	2 1766 8                        @ libraries/STM32H7xx_HAL/STM32H7xx_HAL_Driver/Src/stm32h7xx_hal_dma.c:1766:8
	cmp	r0, #64
	.loc	2 1760 39                       @ libraries/STM32H7xx_HAL/STM32H7xx_HAL_Driver/Src/stm32h7xx_hal_dma.c:1760:39
	lsl.w	r4, r5, r4
	.loc	2 1760 21 is_stmt 0             @ libraries/STM32H7xx_HAL/STM32H7xx_HAL_Driver/Src/stm32h7xx_hal_dma.c:1760:21
	str.w	r4, [r12, #4]
	.loc	2 1763 53 is_stmt 1             @ libraries/STM32H7xx_HAL/STM32H7xx_HAL_Driver/Src/stm32h7xx_hal_dma.c:1763:53
	str.w	r3, [lr, #4]
	bne	.LBB7_37
.Ltmp416:
.LBB7_36:
	@DEBUG_VALUE: DMA_SetConfig:regs_dma <- $r12
	@DEBUG_VALUE: DMA_SetConfig:regs_bdma <- $r12
	@DEBUG_VALUE: DMA_SetConfig:DataLength <- $r3
	@DEBUG_VALUE: DMA_SetConfig:DstAddress <- $r2
	@DEBUG_VALUE: DMA_SetConfig:SrcAddress <- $r1
	@DEBUG_VALUE: DMA_SetConfig:hdma <- [DW_OP_LLVM_entry_value 1] $r0
	.loc	2 0 0 is_stmt 0                 @ libraries/STM32H7xx_HAL/STM32H7xx_HAL_Driver/Src/stm32h7xx_hal_dma.c:0:0
	str.w	r2, [lr, #8]
	str.w	r1, [lr, #12]
.Ltmp417:
	.loc	2 1788 1 is_stmt 1              @ libraries/STM32H7xx_HAL/STM32H7xx_HAL_Driver/Src/stm32h7xx_hal_dma.c:1788:1
	pop	{r4, r5, r7, pc}
.Ltmp418:
.LBB7_37:
	@DEBUG_VALUE: DMA_SetConfig:regs_dma <- $r12
	@DEBUG_VALUE: DMA_SetConfig:regs_bdma <- $r12
	@DEBUG_VALUE: DMA_SetConfig:DataLength <- $r3
	@DEBUG_VALUE: DMA_SetConfig:DstAddress <- $r2
	@DEBUG_VALUE: DMA_SetConfig:SrcAddress <- $r1
	@DEBUG_VALUE: DMA_SetConfig:hdma <- [DW_OP_LLVM_entry_value 1] $r0
	.loc	2 1778 54                       @ libraries/STM32H7xx_HAL/STM32H7xx_HAL_Driver/Src/stm32h7xx_hal_dma.c:1778:54
	str.w	r1, [lr, #8]
	.loc	2 1781 55                       @ libraries/STM32H7xx_HAL/STM32H7xx_HAL_Driver/Src/stm32h7xx_hal_dma.c:1781:55
	str.w	r2, [lr, #12]
.Ltmp419:
.LBB7_38:
	@DEBUG_VALUE: DMA_SetConfig:regs_dma <- $r12
	@DEBUG_VALUE: DMA_SetConfig:regs_bdma <- $r12
	@DEBUG_VALUE: DMA_SetConfig:DataLength <- $r3
	@DEBUG_VALUE: DMA_SetConfig:DstAddress <- $r2
	@DEBUG_VALUE: DMA_SetConfig:SrcAddress <- $r1
	.loc	2 1788 1                        @ libraries/STM32H7xx_HAL/STM32H7xx_HAL_Driver/Src/stm32h7xx_hal_dma.c:1788:1
	pop	{r4, r5, r7, pc}
.Ltmp420:
.Lfunc_end7:
	.size	DMA_SetConfig, .Lfunc_end7-DMA_SetConfig
	.cfi_endproc
	.cantunwind
	.fnend
                                        @ -- End function
	.section	.text.HAL_DMA_Start_IT,"ax",%progbits
	.hidden	HAL_DMA_Start_IT                @ -- Begin function HAL_DMA_Start_IT
	.globl	HAL_DMA_Start_IT
	.p2align	3
	.type	HAL_DMA_Start_IT,%function
	.code	16                              @ @HAL_DMA_Start_IT
	.thumb_func
HAL_DMA_Start_IT:
.Lfunc_begin8:
	.loc	2 638 0                         @ libraries/STM32H7xx_HAL/STM32H7xx_HAL_Driver/Src/stm32h7xx_hal_dma.c:638:0
	.fnstart
	.cfi_startproc
@ %bb.0:
	@DEBUG_VALUE: HAL_DMA_Start_IT:hdma <- $r0
	@DEBUG_VALUE: HAL_DMA_Start_IT:SrcAddress <- $r1
	@DEBUG_VALUE: HAL_DMA_Start_IT:DstAddress <- $r2
	@DEBUG_VALUE: HAL_DMA_Start_IT:DataLength <- $r3
	@DEBUG_VALUE: HAL_DMA_Start_IT:hdma <- $r0
	.save	{r4, r5, r6, lr}
	push	{r4, r5, r6, lr}
	.cfi_def_cfa_offset 16
	.cfi_offset lr, -4
	.cfi_offset r6, -8
	.cfi_offset r5, -12
	.cfi_offset r4, -16
.Ltmp421:
	@DEBUG_VALUE: HAL_DMA_Start_IT:status <- 0
	@DEBUG_VALUE: HAL_DMA_Start_IT:DataLength <- $r3
	@DEBUG_VALUE: HAL_DMA_Start_IT:DstAddress <- $r2
	@DEBUG_VALUE: HAL_DMA_Start_IT:SrcAddress <- $r1
	.loc	2 645 6 prologue_end            @ libraries/STM32H7xx_HAL/STM32H7xx_HAL_Driver/Src/stm32h7xx_hal_dma.c:645:6
	cbz	r0, .LBB8_10
.Ltmp422:
@ %bb.1:
	@DEBUG_VALUE: HAL_DMA_Start_IT:DataLength <- $r3
	@DEBUG_VALUE: HAL_DMA_Start_IT:DstAddress <- $r2
	@DEBUG_VALUE: HAL_DMA_Start_IT:SrcAddress <- $r1
	@DEBUG_VALUE: HAL_DMA_Start_IT:hdma <- $r0
	@DEBUG_VALUE: HAL_DMA_Start_IT:status <- 0
	.loc	2 0 6 is_stmt 0                 @ libraries/STM32H7xx_HAL/STM32H7xx_HAL_Driver/Src/stm32h7xx_hal_dma.c:0:6
	mov	r4, r0
.Ltmp423:
	@DEBUG_VALUE: HAL_DMA_Start_IT:hdma <- $r4
	.loc	2 651 3 is_stmt 1               @ libraries/STM32H7xx_HAL/STM32H7xx_HAL_Driver/Src/stm32h7xx_hal_dma.c:651:3
	ldrb.w	r0, [r0, #52]
.Ltmp424:
	.loc	2 651 3 is_stmt 0               @ libraries/STM32H7xx_HAL/STM32H7xx_HAL_Driver/Src/stm32h7xx_hal_dma.c:651:3
	cmp	r0, #1
	bne	.LBB8_3
.Ltmp425:
@ %bb.2:
	@DEBUG_VALUE: HAL_DMA_Start_IT:hdma <- $r4
	@DEBUG_VALUE: HAL_DMA_Start_IT:DataLength <- $r3
	@DEBUG_VALUE: HAL_DMA_Start_IT:DstAddress <- $r2
	@DEBUG_VALUE: HAL_DMA_Start_IT:SrcAddress <- $r1
	@DEBUG_VALUE: HAL_DMA_Start_IT:status <- 0
	.loc	2 0 3                           @ libraries/STM32H7xx_HAL/STM32H7xx_HAL_Driver/Src/stm32h7xx_hal_dma.c:0:3
	movs	r0, #2
	.loc	2 720 1 is_stmt 1               @ libraries/STM32H7xx_HAL/STM32H7xx_HAL_Driver/Src/stm32h7xx_hal_dma.c:720:1
	pop	{r4, r5, r6, pc}
.Ltmp426:
.LBB8_3:
	@DEBUG_VALUE: HAL_DMA_Start_IT:hdma <- $r4
	@DEBUG_VALUE: HAL_DMA_Start_IT:DataLength <- $r3
	@DEBUG_VALUE: HAL_DMA_Start_IT:DstAddress <- $r2
	@DEBUG_VALUE: HAL_DMA_Start_IT:SrcAddress <- $r1
	@DEBUG_VALUE: HAL_DMA_Start_IT:status <- 0
	.loc	2 0 1 is_stmt 0                 @ libraries/STM32H7xx_HAL/STM32H7xx_HAL_Driver/Src/stm32h7xx_hal_dma.c:0:1
	movs	r0, #1
.Ltmp427:
	.loc	2 651 3 is_stmt 1               @ libraries/STM32H7xx_HAL/STM32H7xx_HAL_Driver/Src/stm32h7xx_hal_dma.c:651:3
	strb.w	r0, [r4, #52]
.Ltmp428:
	.loc	2 653 35                        @ libraries/STM32H7xx_HAL/STM32H7xx_HAL_Driver/Src/stm32h7xx_hal_dma.c:653:35
	ldrb.w	r0, [r4, #53]
.Ltmp429:
	.loc	2 653 6 is_stmt 0               @ libraries/STM32H7xx_HAL/STM32H7xx_HAL_Driver/Src/stm32h7xx_hal_dma.c:653:6
	cmp	r0, #1
	bne	.LBB8_9
.Ltmp430:
@ %bb.4:
	@DEBUG_VALUE: HAL_DMA_Start_IT:hdma <- $r4
	@DEBUG_VALUE: HAL_DMA_Start_IT:DataLength <- $r3
	@DEBUG_VALUE: HAL_DMA_Start_IT:DstAddress <- $r2
	@DEBUG_VALUE: HAL_DMA_Start_IT:SrcAddress <- $r1
	@DEBUG_VALUE: HAL_DMA_Start_IT:status <- 0
	.loc	2 0 6                           @ libraries/STM32H7xx_HAL/STM32H7xx_HAL_Driver/Src/stm32h7xx_hal_dma.c:0:6
	movs	r0, #2
.Ltmp431:
	.loc	2 656 17 is_stmt 1              @ libraries/STM32H7xx_HAL/STM32H7xx_HAL_Driver/Src/stm32h7xx_hal_dma.c:656:17
	strb.w	r0, [r4, #53]
	movs	r0, #0
	.loc	2 659 21                        @ libraries/STM32H7xx_HAL/STM32H7xx_HAL_Driver/Src/stm32h7xx_hal_dma.c:659:21
	str	r0, [r4, #84]
	movw	r6, #1039
	.loc	2 662 5                         @ libraries/STM32H7xx_HAL/STM32H7xx_HAL_Driver/Src/stm32h7xx_hal_dma.c:662:5
	ldr	r0, [r4]
	movt	r6, #16386
	cmp	r0, r6
	bgt	.LBB8_11
.Ltmp432:
@ %bb.5:
	@DEBUG_VALUE: HAL_DMA_Start_IT:hdma <- $r4
	@DEBUG_VALUE: HAL_DMA_Start_IT:DataLength <- $r3
	@DEBUG_VALUE: HAL_DMA_Start_IT:DstAddress <- $r2
	@DEBUG_VALUE: HAL_DMA_Start_IT:SrcAddress <- $r1
	@DEBUG_VALUE: HAL_DMA_Start_IT:status <- 0
	.loc	2 0 5 is_stmt 0                 @ libraries/STM32H7xx_HAL/STM32H7xx_HAL_Driver/Src/stm32h7xx_hal_dma.c:0:5
	movs	r5, #111
	movt	r5, #16386
	.loc	2 662 5                         @ libraries/STM32H7xx_HAL/STM32H7xx_HAL_Driver/Src/stm32h7xx_hal_dma.c:662:5
	cmp	r0, r5
	bgt	.LBB8_15
.Ltmp433:
@ %bb.6:
	@DEBUG_VALUE: HAL_DMA_Start_IT:hdma <- $r4
	@DEBUG_VALUE: HAL_DMA_Start_IT:DataLength <- $r3
	@DEBUG_VALUE: HAL_DMA_Start_IT:DstAddress <- $r2
	@DEBUG_VALUE: HAL_DMA_Start_IT:SrcAddress <- $r1
	@DEBUG_VALUE: HAL_DMA_Start_IT:status <- 0
	.loc	2 0 5                           @ libraries/STM32H7xx_HAL/STM32H7xx_HAL_Driver/Src/stm32h7xx_hal_dma.c:0:5
	movs	r5, #63
	movt	r5, #16386
	.loc	2 662 5                         @ libraries/STM32H7xx_HAL/STM32H7xx_HAL_Driver/Src/stm32h7xx_hal_dma.c:662:5
	cmp	r0, r5
	bgt	.LBB8_21
.Ltmp434:
@ %bb.7:
	@DEBUG_VALUE: HAL_DMA_Start_IT:hdma <- $r4
	@DEBUG_VALUE: HAL_DMA_Start_IT:DataLength <- $r3
	@DEBUG_VALUE: HAL_DMA_Start_IT:DstAddress <- $r2
	@DEBUG_VALUE: HAL_DMA_Start_IT:SrcAddress <- $r1
	@DEBUG_VALUE: HAL_DMA_Start_IT:status <- 0
	.loc	2 0 5                           @ libraries/STM32H7xx_HAL/STM32H7xx_HAL_Driver/Src/stm32h7xx_hal_dma.c:0:5
	movs	r5, #16
	movt	r5, #16386
	.loc	2 662 5                         @ libraries/STM32H7xx_HAL/STM32H7xx_HAL_Driver/Src/stm32h7xx_hal_dma.c:662:5
	cmp	r0, r5
	beq	.LBB8_30
.Ltmp435:
@ %bb.8:
	@DEBUG_VALUE: HAL_DMA_Start_IT:hdma <- $r4
	@DEBUG_VALUE: HAL_DMA_Start_IT:DataLength <- $r3
	@DEBUG_VALUE: HAL_DMA_Start_IT:DstAddress <- $r2
	@DEBUG_VALUE: HAL_DMA_Start_IT:SrcAddress <- $r1
	@DEBUG_VALUE: HAL_DMA_Start_IT:status <- 0
	.loc	2 0 5                           @ libraries/STM32H7xx_HAL/STM32H7xx_HAL_Driver/Src/stm32h7xx_hal_dma.c:0:5
	movs	r5, #40
	b	.LBB8_29
.Ltmp436:
.LBB8_9:
	@DEBUG_VALUE: HAL_DMA_Start_IT:hdma <- $r4
	@DEBUG_VALUE: HAL_DMA_Start_IT:DataLength <- $r3
	@DEBUG_VALUE: HAL_DMA_Start_IT:DstAddress <- $r2
	@DEBUG_VALUE: HAL_DMA_Start_IT:SrcAddress <- $r1
	@DEBUG_VALUE: HAL_DMA_Start_IT:status <- 0
	movs	r0, #0
.Ltmp437:
	.loc	2 710 5 is_stmt 1               @ libraries/STM32H7xx_HAL/STM32H7xx_HAL_Driver/Src/stm32h7xx_hal_dma.c:710:5
	strb.w	r0, [r4, #52]
	mov.w	r0, #2048
.Ltmp438:
	.loc	2 713 21                        @ libraries/STM32H7xx_HAL/STM32H7xx_HAL_Driver/Src/stm32h7xx_hal_dma.c:713:21
	str	r0, [r4, #84]
.Ltmp439:
.LBB8_10:
	@DEBUG_VALUE: HAL_DMA_Start_IT:DataLength <- $r3
	@DEBUG_VALUE: HAL_DMA_Start_IT:DstAddress <- $r2
	@DEBUG_VALUE: HAL_DMA_Start_IT:SrcAddress <- $r1
	@DEBUG_VALUE: HAL_DMA_Start_IT:status <- 0
	.loc	2 0 21 is_stmt 0                @ libraries/STM32H7xx_HAL/STM32H7xx_HAL_Driver/Src/stm32h7xx_hal_dma.c:0:21
	movs	r0, #1
	.loc	2 720 1 is_stmt 1               @ libraries/STM32H7xx_HAL/STM32H7xx_HAL_Driver/Src/stm32h7xx_hal_dma.c:720:1
	pop	{r4, r5, r6, pc}
.Ltmp440:
.LBB8_11:
	@DEBUG_VALUE: HAL_DMA_Start_IT:hdma <- $r4
	@DEBUG_VALUE: HAL_DMA_Start_IT:DataLength <- $r3
	@DEBUG_VALUE: HAL_DMA_Start_IT:DstAddress <- $r2
	@DEBUG_VALUE: HAL_DMA_Start_IT:SrcAddress <- $r1
	@DEBUG_VALUE: HAL_DMA_Start_IT:status <- 0
	.loc	2 0 1 is_stmt 0                 @ libraries/STM32H7xx_HAL/STM32H7xx_HAL_Driver/Src/stm32h7xx_hal_dma.c:0:1
	movw	r5, #1135
	movt	r5, #16386
.Ltmp441:
	.loc	2 662 5 is_stmt 1               @ libraries/STM32H7xx_HAL/STM32H7xx_HAL_Driver/Src/stm32h7xx_hal_dma.c:662:5
	cmp	r0, r5
	bgt	.LBB8_18
.Ltmp442:
@ %bb.12:
	@DEBUG_VALUE: HAL_DMA_Start_IT:hdma <- $r4
	@DEBUG_VALUE: HAL_DMA_Start_IT:DataLength <- $r3
	@DEBUG_VALUE: HAL_DMA_Start_IT:DstAddress <- $r2
	@DEBUG_VALUE: HAL_DMA_Start_IT:SrcAddress <- $r1
	@DEBUG_VALUE: HAL_DMA_Start_IT:status <- 0
	.loc	2 0 5 is_stmt 0                 @ libraries/STM32H7xx_HAL/STM32H7xx_HAL_Driver/Src/stm32h7xx_hal_dma.c:0:5
	movw	r5, #1087
	movt	r5, #16386
	.loc	2 662 5                         @ libraries/STM32H7xx_HAL/STM32H7xx_HAL_Driver/Src/stm32h7xx_hal_dma.c:662:5
	cmp	r0, r5
	bgt	.LBB8_23
.Ltmp443:
@ %bb.13:
	@DEBUG_VALUE: HAL_DMA_Start_IT:hdma <- $r4
	@DEBUG_VALUE: HAL_DMA_Start_IT:DataLength <- $r3
	@DEBUG_VALUE: HAL_DMA_Start_IT:DstAddress <- $r2
	@DEBUG_VALUE: HAL_DMA_Start_IT:SrcAddress <- $r1
	@DEBUG_VALUE: HAL_DMA_Start_IT:status <- 0
	.loc	2 0 5                           @ libraries/STM32H7xx_HAL/STM32H7xx_HAL_Driver/Src/stm32h7xx_hal_dma.c:0:5
	movw	r5, #1040
	movt	r5, #16386
	.loc	2 662 5                         @ libraries/STM32H7xx_HAL/STM32H7xx_HAL_Driver/Src/stm32h7xx_hal_dma.c:662:5
	cmp	r0, r5
	beq	.LBB8_30
.Ltmp444:
@ %bb.14:
	@DEBUG_VALUE: HAL_DMA_Start_IT:hdma <- $r4
	@DEBUG_VALUE: HAL_DMA_Start_IT:DataLength <- $r3
	@DEBUG_VALUE: HAL_DMA_Start_IT:DstAddress <- $r2
	@DEBUG_VALUE: HAL_DMA_Start_IT:SrcAddress <- $r1
	@DEBUG_VALUE: HAL_DMA_Start_IT:status <- 0
	.loc	2 0 5                           @ libraries/STM32H7xx_HAL/STM32H7xx_HAL_Driver/Src/stm32h7xx_hal_dma.c:0:5
	movw	r5, #1064
	b	.LBB8_29
.Ltmp445:
.LBB8_15:
	@DEBUG_VALUE: HAL_DMA_Start_IT:hdma <- $r4
	@DEBUG_VALUE: HAL_DMA_Start_IT:DataLength <- $r3
	@DEBUG_VALUE: HAL_DMA_Start_IT:DstAddress <- $r2
	@DEBUG_VALUE: HAL_DMA_Start_IT:SrcAddress <- $r1
	@DEBUG_VALUE: HAL_DMA_Start_IT:status <- 0
	movs	r5, #159
	movt	r5, #16386
	.loc	2 662 5                         @ libraries/STM32H7xx_HAL/STM32H7xx_HAL_Driver/Src/stm32h7xx_hal_dma.c:662:5
	cmp	r0, r5
	bgt	.LBB8_25
.Ltmp446:
@ %bb.16:
	@DEBUG_VALUE: HAL_DMA_Start_IT:hdma <- $r4
	@DEBUG_VALUE: HAL_DMA_Start_IT:DataLength <- $r3
	@DEBUG_VALUE: HAL_DMA_Start_IT:DstAddress <- $r2
	@DEBUG_VALUE: HAL_DMA_Start_IT:SrcAddress <- $r1
	@DEBUG_VALUE: HAL_DMA_Start_IT:status <- 0
	.loc	2 0 5                           @ libraries/STM32H7xx_HAL/STM32H7xx_HAL_Driver/Src/stm32h7xx_hal_dma.c:0:5
	movs	r5, #112
	movt	r5, #16386
	.loc	2 662 5                         @ libraries/STM32H7xx_HAL/STM32H7xx_HAL_Driver/Src/stm32h7xx_hal_dma.c:662:5
	cmp	r0, r5
	beq	.LBB8_30
.Ltmp447:
@ %bb.17:
	@DEBUG_VALUE: HAL_DMA_Start_IT:hdma <- $r4
	@DEBUG_VALUE: HAL_DMA_Start_IT:DataLength <- $r3
	@DEBUG_VALUE: HAL_DMA_Start_IT:DstAddress <- $r2
	@DEBUG_VALUE: HAL_DMA_Start_IT:SrcAddress <- $r1
	@DEBUG_VALUE: HAL_DMA_Start_IT:status <- 0
	.loc	2 0 5                           @ libraries/STM32H7xx_HAL/STM32H7xx_HAL_Driver/Src/stm32h7xx_hal_dma.c:0:5
	movs	r5, #136
	b	.LBB8_29
.Ltmp448:
.LBB8_18:
	@DEBUG_VALUE: HAL_DMA_Start_IT:hdma <- $r4
	@DEBUG_VALUE: HAL_DMA_Start_IT:DataLength <- $r3
	@DEBUG_VALUE: HAL_DMA_Start_IT:DstAddress <- $r2
	@DEBUG_VALUE: HAL_DMA_Start_IT:SrcAddress <- $r1
	@DEBUG_VALUE: HAL_DMA_Start_IT:status <- 0
	movw	r5, #1183
	movt	r5, #16386
	.loc	2 662 5                         @ libraries/STM32H7xx_HAL/STM32H7xx_HAL_Driver/Src/stm32h7xx_hal_dma.c:662:5
	cmp	r0, r5
	bgt	.LBB8_27
.Ltmp449:
@ %bb.19:
	@DEBUG_VALUE: HAL_DMA_Start_IT:hdma <- $r4
	@DEBUG_VALUE: HAL_DMA_Start_IT:DataLength <- $r3
	@DEBUG_VALUE: HAL_DMA_Start_IT:DstAddress <- $r2
	@DEBUG_VALUE: HAL_DMA_Start_IT:SrcAddress <- $r1
	@DEBUG_VALUE: HAL_DMA_Start_IT:status <- 0
	.loc	2 0 5                           @ libraries/STM32H7xx_HAL/STM32H7xx_HAL_Driver/Src/stm32h7xx_hal_dma.c:0:5
	movw	r5, #1136
	movt	r5, #16386
	.loc	2 662 5                         @ libraries/STM32H7xx_HAL/STM32H7xx_HAL_Driver/Src/stm32h7xx_hal_dma.c:662:5
	cmp	r0, r5
	beq	.LBB8_30
.Ltmp450:
@ %bb.20:
	@DEBUG_VALUE: HAL_DMA_Start_IT:hdma <- $r4
	@DEBUG_VALUE: HAL_DMA_Start_IT:DataLength <- $r3
	@DEBUG_VALUE: HAL_DMA_Start_IT:DstAddress <- $r2
	@DEBUG_VALUE: HAL_DMA_Start_IT:SrcAddress <- $r1
	@DEBUG_VALUE: HAL_DMA_Start_IT:status <- 0
	.loc	2 0 5                           @ libraries/STM32H7xx_HAL/STM32H7xx_HAL_Driver/Src/stm32h7xx_hal_dma.c:0:5
	movw	r5, #1160
	b	.LBB8_29
.Ltmp451:
.LBB8_21:
	@DEBUG_VALUE: HAL_DMA_Start_IT:hdma <- $r4
	@DEBUG_VALUE: HAL_DMA_Start_IT:DataLength <- $r3
	@DEBUG_VALUE: HAL_DMA_Start_IT:DstAddress <- $r2
	@DEBUG_VALUE: HAL_DMA_Start_IT:SrcAddress <- $r1
	@DEBUG_VALUE: HAL_DMA_Start_IT:status <- 0
	movs	r5, #64
	movt	r5, #16386
	.loc	2 662 5                         @ libraries/STM32H7xx_HAL/STM32H7xx_HAL_Driver/Src/stm32h7xx_hal_dma.c:662:5
	cmp	r0, r5
	beq	.LBB8_30
.Ltmp452:
@ %bb.22:
	@DEBUG_VALUE: HAL_DMA_Start_IT:hdma <- $r4
	@DEBUG_VALUE: HAL_DMA_Start_IT:DataLength <- $r3
	@DEBUG_VALUE: HAL_DMA_Start_IT:DstAddress <- $r2
	@DEBUG_VALUE: HAL_DMA_Start_IT:SrcAddress <- $r1
	@DEBUG_VALUE: HAL_DMA_Start_IT:status <- 0
	.loc	2 0 5                           @ libraries/STM32H7xx_HAL/STM32H7xx_HAL_Driver/Src/stm32h7xx_hal_dma.c:0:5
	movs	r5, #88
	b	.LBB8_29
.Ltmp453:
.LBB8_23:
	@DEBUG_VALUE: HAL_DMA_Start_IT:hdma <- $r4
	@DEBUG_VALUE: HAL_DMA_Start_IT:DataLength <- $r3
	@DEBUG_VALUE: HAL_DMA_Start_IT:DstAddress <- $r2
	@DEBUG_VALUE: HAL_DMA_Start_IT:SrcAddress <- $r1
	@DEBUG_VALUE: HAL_DMA_Start_IT:status <- 0
	movw	r5, #1088
	movt	r5, #16386
	.loc	2 662 5                         @ libraries/STM32H7xx_HAL/STM32H7xx_HAL_Driver/Src/stm32h7xx_hal_dma.c:662:5
	cmp	r0, r5
	beq	.LBB8_30
.Ltmp454:
@ %bb.24:
	@DEBUG_VALUE: HAL_DMA_Start_IT:hdma <- $r4
	@DEBUG_VALUE: HAL_DMA_Start_IT:DataLength <- $r3
	@DEBUG_VALUE: HAL_DMA_Start_IT:DstAddress <- $r2
	@DEBUG_VALUE: HAL_DMA_Start_IT:SrcAddress <- $r1
	@DEBUG_VALUE: HAL_DMA_Start_IT:status <- 0
	.loc	2 0 5                           @ libraries/STM32H7xx_HAL/STM32H7xx_HAL_Driver/Src/stm32h7xx_hal_dma.c:0:5
	movw	r5, #1112
	b	.LBB8_29
.Ltmp455:
.LBB8_25:
	@DEBUG_VALUE: HAL_DMA_Start_IT:hdma <- $r4
	@DEBUG_VALUE: HAL_DMA_Start_IT:DataLength <- $r3
	@DEBUG_VALUE: HAL_DMA_Start_IT:DstAddress <- $r2
	@DEBUG_VALUE: HAL_DMA_Start_IT:SrcAddress <- $r1
	@DEBUG_VALUE: HAL_DMA_Start_IT:status <- 0
	movs	r5, #160
	movt	r5, #16386
	.loc	2 662 5                         @ libraries/STM32H7xx_HAL/STM32H7xx_HAL_Driver/Src/stm32h7xx_hal_dma.c:662:5
	cmp	r0, r5
	beq	.LBB8_30
.Ltmp456:
@ %bb.26:
	@DEBUG_VALUE: HAL_DMA_Start_IT:hdma <- $r4
	@DEBUG_VALUE: HAL_DMA_Start_IT:DataLength <- $r3
	@DEBUG_VALUE: HAL_DMA_Start_IT:DstAddress <- $r2
	@DEBUG_VALUE: HAL_DMA_Start_IT:SrcAddress <- $r1
	@DEBUG_VALUE: HAL_DMA_Start_IT:status <- 0
	.loc	2 0 5                           @ libraries/STM32H7xx_HAL/STM32H7xx_HAL_Driver/Src/stm32h7xx_hal_dma.c:0:5
	movs	r5, #184
	b	.LBB8_29
.Ltmp457:
.LBB8_27:
	@DEBUG_VALUE: HAL_DMA_Start_IT:hdma <- $r4
	@DEBUG_VALUE: HAL_DMA_Start_IT:DataLength <- $r3
	@DEBUG_VALUE: HAL_DMA_Start_IT:DstAddress <- $r2
	@DEBUG_VALUE: HAL_DMA_Start_IT:SrcAddress <- $r1
	@DEBUG_VALUE: HAL_DMA_Start_IT:status <- 0
	movw	r5, #1208
	movt	r5, #16386
	.loc	2 662 5                         @ libraries/STM32H7xx_HAL/STM32H7xx_HAL_Driver/Src/stm32h7xx_hal_dma.c:662:5
	cmp	r0, r5
	beq	.LBB8_30
.Ltmp458:
@ %bb.28:
	@DEBUG_VALUE: HAL_DMA_Start_IT:hdma <- $r4
	@DEBUG_VALUE: HAL_DMA_Start_IT:DataLength <- $r3
	@DEBUG_VALUE: HAL_DMA_Start_IT:DstAddress <- $r2
	@DEBUG_VALUE: HAL_DMA_Start_IT:SrcAddress <- $r1
	@DEBUG_VALUE: HAL_DMA_Start_IT:status <- 0
	.loc	2 0 5                           @ libraries/STM32H7xx_HAL/STM32H7xx_HAL_Driver/Src/stm32h7xx_hal_dma.c:0:5
	movw	r5, #1184
.Ltmp459:
.LBB8_29:
	@DEBUG_VALUE: HAL_DMA_Start_IT:hdma <- $r4
	@DEBUG_VALUE: HAL_DMA_Start_IT:DataLength <- $r3
	@DEBUG_VALUE: HAL_DMA_Start_IT:DstAddress <- $r2
	@DEBUG_VALUE: HAL_DMA_Start_IT:SrcAddress <- $r1
	@DEBUG_VALUE: HAL_DMA_Start_IT:status <- 0
	movt	r5, #16386
	.loc	2 662 5                         @ libraries/STM32H7xx_HAL/STM32H7xx_HAL_Driver/Src/stm32h7xx_hal_dma.c:662:5
	cmp	r0, r5
	it	eq
	ldreq	r0, [r4]
	b	.LBB8_31
.Ltmp460:
.LBB8_30:
	@DEBUG_VALUE: HAL_DMA_Start_IT:hdma <- $r4
	@DEBUG_VALUE: HAL_DMA_Start_IT:DataLength <- $r3
	@DEBUG_VALUE: HAL_DMA_Start_IT:DstAddress <- $r2
	@DEBUG_VALUE: HAL_DMA_Start_IT:SrcAddress <- $r1
	@DEBUG_VALUE: HAL_DMA_Start_IT:status <- 0
	ldr	r0, [r4]
.Ltmp461:
.LBB8_31:
	@DEBUG_VALUE: HAL_DMA_Start_IT:hdma <- $r4
	@DEBUG_VALUE: HAL_DMA_Start_IT:DataLength <- $r3
	@DEBUG_VALUE: HAL_DMA_Start_IT:DstAddress <- $r2
	@DEBUG_VALUE: HAL_DMA_Start_IT:SrcAddress <- $r1
	@DEBUG_VALUE: HAL_DMA_Start_IT:status <- 0
	ldr	r5, [r0]
	bic	r5, r5, #1
	str	r5, [r0]
	.loc	2 665 5 is_stmt 1               @ libraries/STM32H7xx_HAL/STM32H7xx_HAL_Driver/Src/stm32h7xx_hal_dma.c:665:5
	mov	r0, r4
	bl	DMA_SetConfig
.Ltmp462:
	@DEBUG_VALUE: HAL_DMA_Start_IT:DataLength <- [DW_OP_LLVM_entry_value 1] $r3
	@DEBUG_VALUE: HAL_DMA_Start_IT:DstAddress <- [DW_OP_LLVM_entry_value 1] $r2
	@DEBUG_VALUE: HAL_DMA_Start_IT:SrcAddress <- [DW_OP_LLVM_entry_value 1] $r1
	.loc	2 667 8                         @ libraries/STM32H7xx_HAL/STM32H7xx_HAL_Driver/Src/stm32h7xx_hal_dma.c:667:8
	ldr	r0, [r4]
	cmp	r0, r6
	bgt	.LBB8_36
.Ltmp463:
@ %bb.32:
	@DEBUG_VALUE: HAL_DMA_Start_IT:hdma <- $r4
	@DEBUG_VALUE: HAL_DMA_Start_IT:DataLength <- [DW_OP_LLVM_entry_value 1] $r3
	@DEBUG_VALUE: HAL_DMA_Start_IT:DstAddress <- [DW_OP_LLVM_entry_value 1] $r2
	@DEBUG_VALUE: HAL_DMA_Start_IT:SrcAddress <- [DW_OP_LLVM_entry_value 1] $r1
	@DEBUG_VALUE: HAL_DMA_Start_IT:status <- 0
	.loc	2 0 8 is_stmt 0                 @ libraries/STM32H7xx_HAL/STM32H7xx_HAL_Driver/Src/stm32h7xx_hal_dma.c:0:8
	movs	r1, #111
	movt	r1, #16386
	.loc	2 667 8                         @ libraries/STM32H7xx_HAL/STM32H7xx_HAL_Driver/Src/stm32h7xx_hal_dma.c:667:8
	cmp	r0, r1
	bgt	.LBB8_40
.Ltmp464:
@ %bb.33:
	@DEBUG_VALUE: HAL_DMA_Start_IT:hdma <- $r4
	@DEBUG_VALUE: HAL_DMA_Start_IT:DataLength <- [DW_OP_LLVM_entry_value 1] $r3
	@DEBUG_VALUE: HAL_DMA_Start_IT:DstAddress <- [DW_OP_LLVM_entry_value 1] $r2
	@DEBUG_VALUE: HAL_DMA_Start_IT:SrcAddress <- [DW_OP_LLVM_entry_value 1] $r1
	@DEBUG_VALUE: HAL_DMA_Start_IT:status <- 0
	.loc	2 0 8                           @ libraries/STM32H7xx_HAL/STM32H7xx_HAL_Driver/Src/stm32h7xx_hal_dma.c:0:8
	movs	r1, #63
	movt	r1, #16386
	.loc	2 667 8                         @ libraries/STM32H7xx_HAL/STM32H7xx_HAL_Driver/Src/stm32h7xx_hal_dma.c:667:8
	cmp	r0, r1
	bgt	.LBB8_46
.Ltmp465:
@ %bb.34:
	@DEBUG_VALUE: HAL_DMA_Start_IT:hdma <- $r4
	@DEBUG_VALUE: HAL_DMA_Start_IT:DataLength <- [DW_OP_LLVM_entry_value 1] $r3
	@DEBUG_VALUE: HAL_DMA_Start_IT:DstAddress <- [DW_OP_LLVM_entry_value 1] $r2
	@DEBUG_VALUE: HAL_DMA_Start_IT:SrcAddress <- [DW_OP_LLVM_entry_value 1] $r1
	@DEBUG_VALUE: HAL_DMA_Start_IT:status <- 0
	.loc	2 0 8                           @ libraries/STM32H7xx_HAL/STM32H7xx_HAL_Driver/Src/stm32h7xx_hal_dma.c:0:8
	movs	r1, #16
	movt	r1, #16386
	.loc	2 667 8                         @ libraries/STM32H7xx_HAL/STM32H7xx_HAL_Driver/Src/stm32h7xx_hal_dma.c:667:8
	cmp	r0, r1
	beq	.LBB8_55
.Ltmp466:
@ %bb.35:
	@DEBUG_VALUE: HAL_DMA_Start_IT:hdma <- $r4
	@DEBUG_VALUE: HAL_DMA_Start_IT:DataLength <- [DW_OP_LLVM_entry_value 1] $r3
	@DEBUG_VALUE: HAL_DMA_Start_IT:DstAddress <- [DW_OP_LLVM_entry_value 1] $r2
	@DEBUG_VALUE: HAL_DMA_Start_IT:SrcAddress <- [DW_OP_LLVM_entry_value 1] $r1
	@DEBUG_VALUE: HAL_DMA_Start_IT:status <- 0
	.loc	2 0 8                           @ libraries/STM32H7xx_HAL/STM32H7xx_HAL_Driver/Src/stm32h7xx_hal_dma.c:0:8
	movs	r1, #40
	b	.LBB8_54
.Ltmp467:
.LBB8_36:
	@DEBUG_VALUE: HAL_DMA_Start_IT:hdma <- $r4
	@DEBUG_VALUE: HAL_DMA_Start_IT:DataLength <- [DW_OP_LLVM_entry_value 1] $r3
	@DEBUG_VALUE: HAL_DMA_Start_IT:DstAddress <- [DW_OP_LLVM_entry_value 1] $r2
	@DEBUG_VALUE: HAL_DMA_Start_IT:SrcAddress <- [DW_OP_LLVM_entry_value 1] $r1
	@DEBUG_VALUE: HAL_DMA_Start_IT:status <- 0
	movw	r1, #1135
	movt	r1, #16386
	.loc	2 667 8                         @ libraries/STM32H7xx_HAL/STM32H7xx_HAL_Driver/Src/stm32h7xx_hal_dma.c:667:8
	cmp	r0, r1
	bgt	.LBB8_43
.Ltmp468:
@ %bb.37:
	@DEBUG_VALUE: HAL_DMA_Start_IT:hdma <- $r4
	@DEBUG_VALUE: HAL_DMA_Start_IT:DataLength <- [DW_OP_LLVM_entry_value 1] $r3
	@DEBUG_VALUE: HAL_DMA_Start_IT:DstAddress <- [DW_OP_LLVM_entry_value 1] $r2
	@DEBUG_VALUE: HAL_DMA_Start_IT:SrcAddress <- [DW_OP_LLVM_entry_value 1] $r1
	@DEBUG_VALUE: HAL_DMA_Start_IT:status <- 0
	.loc	2 0 8                           @ libraries/STM32H7xx_HAL/STM32H7xx_HAL_Driver/Src/stm32h7xx_hal_dma.c:0:8
	movw	r1, #1087
	movt	r1, #16386
	.loc	2 667 8                         @ libraries/STM32H7xx_HAL/STM32H7xx_HAL_Driver/Src/stm32h7xx_hal_dma.c:667:8
	cmp	r0, r1
	bgt	.LBB8_48
.Ltmp469:
@ %bb.38:
	@DEBUG_VALUE: HAL_DMA_Start_IT:hdma <- $r4
	@DEBUG_VALUE: HAL_DMA_Start_IT:DataLength <- [DW_OP_LLVM_entry_value 1] $r3
	@DEBUG_VALUE: HAL_DMA_Start_IT:DstAddress <- [DW_OP_LLVM_entry_value 1] $r2
	@DEBUG_VALUE: HAL_DMA_Start_IT:SrcAddress <- [DW_OP_LLVM_entry_value 1] $r1
	@DEBUG_VALUE: HAL_DMA_Start_IT:status <- 0
	.loc	2 0 8                           @ libraries/STM32H7xx_HAL/STM32H7xx_HAL_Driver/Src/stm32h7xx_hal_dma.c:0:8
	movw	r1, #1040
	movt	r1, #16386
	.loc	2 667 8                         @ libraries/STM32H7xx_HAL/STM32H7xx_HAL_Driver/Src/stm32h7xx_hal_dma.c:667:8
	cmp	r0, r1
	beq	.LBB8_55
.Ltmp470:
@ %bb.39:
	@DEBUG_VALUE: HAL_DMA_Start_IT:hdma <- $r4
	@DEBUG_VALUE: HAL_DMA_Start_IT:DataLength <- [DW_OP_LLVM_entry_value 1] $r3
	@DEBUG_VALUE: HAL_DMA_Start_IT:DstAddress <- [DW_OP_LLVM_entry_value 1] $r2
	@DEBUG_VALUE: HAL_DMA_Start_IT:SrcAddress <- [DW_OP_LLVM_entry_value 1] $r1
	@DEBUG_VALUE: HAL_DMA_Start_IT:status <- 0
	.loc	2 0 8                           @ libraries/STM32H7xx_HAL/STM32H7xx_HAL_Driver/Src/stm32h7xx_hal_dma.c:0:8
	movw	r1, #1064
	b	.LBB8_54
.Ltmp471:
.LBB8_40:
	@DEBUG_VALUE: HAL_DMA_Start_IT:hdma <- $r4
	@DEBUG_VALUE: HAL_DMA_Start_IT:DataLength <- [DW_OP_LLVM_entry_value 1] $r3
	@DEBUG_VALUE: HAL_DMA_Start_IT:DstAddress <- [DW_OP_LLVM_entry_value 1] $r2
	@DEBUG_VALUE: HAL_DMA_Start_IT:SrcAddress <- [DW_OP_LLVM_entry_value 1] $r1
	@DEBUG_VALUE: HAL_DMA_Start_IT:status <- 0
	movs	r1, #159
	movt	r1, #16386
	.loc	2 667 8                         @ libraries/STM32H7xx_HAL/STM32H7xx_HAL_Driver/Src/stm32h7xx_hal_dma.c:667:8
	cmp	r0, r1
	bgt	.LBB8_50
.Ltmp472:
@ %bb.41:
	@DEBUG_VALUE: HAL_DMA_Start_IT:hdma <- $r4
	@DEBUG_VALUE: HAL_DMA_Start_IT:DataLength <- [DW_OP_LLVM_entry_value 1] $r3
	@DEBUG_VALUE: HAL_DMA_Start_IT:DstAddress <- [DW_OP_LLVM_entry_value 1] $r2
	@DEBUG_VALUE: HAL_DMA_Start_IT:SrcAddress <- [DW_OP_LLVM_entry_value 1] $r1
	@DEBUG_VALUE: HAL_DMA_Start_IT:status <- 0
	.loc	2 0 8                           @ libraries/STM32H7xx_HAL/STM32H7xx_HAL_Driver/Src/stm32h7xx_hal_dma.c:0:8
	movs	r1, #112
	movt	r1, #16386
	.loc	2 667 8                         @ libraries/STM32H7xx_HAL/STM32H7xx_HAL_Driver/Src/stm32h7xx_hal_dma.c:667:8
	cmp	r0, r1
	beq	.LBB8_55
.Ltmp473:
@ %bb.42:
	@DEBUG_VALUE: HAL_DMA_Start_IT:hdma <- $r4
	@DEBUG_VALUE: HAL_DMA_Start_IT:DataLength <- [DW_OP_LLVM_entry_value 1] $r3
	@DEBUG_VALUE: HAL_DMA_Start_IT:DstAddress <- [DW_OP_LLVM_entry_value 1] $r2
	@DEBUG_VALUE: HAL_DMA_Start_IT:SrcAddress <- [DW_OP_LLVM_entry_value 1] $r1
	@DEBUG_VALUE: HAL_DMA_Start_IT:status <- 0
	.loc	2 0 8                           @ libraries/STM32H7xx_HAL/STM32H7xx_HAL_Driver/Src/stm32h7xx_hal_dma.c:0:8
	movs	r1, #136
	b	.LBB8_54
.Ltmp474:
.LBB8_43:
	@DEBUG_VALUE: HAL_DMA_Start_IT:hdma <- $r4
	@DEBUG_VALUE: HAL_DMA_Start_IT:DataLength <- [DW_OP_LLVM_entry_value 1] $r3
	@DEBUG_VALUE: HAL_DMA_Start_IT:DstAddress <- [DW_OP_LLVM_entry_value 1] $r2
	@DEBUG_VALUE: HAL_DMA_Start_IT:SrcAddress <- [DW_OP_LLVM_entry_value 1] $r1
	@DEBUG_VALUE: HAL_DMA_Start_IT:status <- 0
	movw	r1, #1183
	movt	r1, #16386
	.loc	2 667 8                         @ libraries/STM32H7xx_HAL/STM32H7xx_HAL_Driver/Src/stm32h7xx_hal_dma.c:667:8
	cmp	r0, r1
	bgt	.LBB8_52
.Ltmp475:
@ %bb.44:
	@DEBUG_VALUE: HAL_DMA_Start_IT:hdma <- $r4
	@DEBUG_VALUE: HAL_DMA_Start_IT:DataLength <- [DW_OP_LLVM_entry_value 1] $r3
	@DEBUG_VALUE: HAL_DMA_Start_IT:DstAddress <- [DW_OP_LLVM_entry_value 1] $r2
	@DEBUG_VALUE: HAL_DMA_Start_IT:SrcAddress <- [DW_OP_LLVM_entry_value 1] $r1
	@DEBUG_VALUE: HAL_DMA_Start_IT:status <- 0
	.loc	2 0 8                           @ libraries/STM32H7xx_HAL/STM32H7xx_HAL_Driver/Src/stm32h7xx_hal_dma.c:0:8
	movw	r1, #1136
	movt	r1, #16386
	.loc	2 667 8                         @ libraries/STM32H7xx_HAL/STM32H7xx_HAL_Driver/Src/stm32h7xx_hal_dma.c:667:8
	cmp	r0, r1
	beq	.LBB8_55
.Ltmp476:
@ %bb.45:
	@DEBUG_VALUE: HAL_DMA_Start_IT:hdma <- $r4
	@DEBUG_VALUE: HAL_DMA_Start_IT:DataLength <- [DW_OP_LLVM_entry_value 1] $r3
	@DEBUG_VALUE: HAL_DMA_Start_IT:DstAddress <- [DW_OP_LLVM_entry_value 1] $r2
	@DEBUG_VALUE: HAL_DMA_Start_IT:SrcAddress <- [DW_OP_LLVM_entry_value 1] $r1
	@DEBUG_VALUE: HAL_DMA_Start_IT:status <- 0
	.loc	2 0 8                           @ libraries/STM32H7xx_HAL/STM32H7xx_HAL_Driver/Src/stm32h7xx_hal_dma.c:0:8
	movw	r1, #1160
	b	.LBB8_54
.Ltmp477:
.LBB8_46:
	@DEBUG_VALUE: HAL_DMA_Start_IT:hdma <- $r4
	@DEBUG_VALUE: HAL_DMA_Start_IT:DataLength <- [DW_OP_LLVM_entry_value 1] $r3
	@DEBUG_VALUE: HAL_DMA_Start_IT:DstAddress <- [DW_OP_LLVM_entry_value 1] $r2
	@DEBUG_VALUE: HAL_DMA_Start_IT:SrcAddress <- [DW_OP_LLVM_entry_value 1] $r1
	@DEBUG_VALUE: HAL_DMA_Start_IT:status <- 0
	movs	r1, #64
	movt	r1, #16386
	.loc	2 667 8                         @ libraries/STM32H7xx_HAL/STM32H7xx_HAL_Driver/Src/stm32h7xx_hal_dma.c:667:8
	cmp	r0, r1
	beq	.LBB8_55
.Ltmp478:
@ %bb.47:
	@DEBUG_VALUE: HAL_DMA_Start_IT:hdma <- $r4
	@DEBUG_VALUE: HAL_DMA_Start_IT:DataLength <- [DW_OP_LLVM_entry_value 1] $r3
	@DEBUG_VALUE: HAL_DMA_Start_IT:DstAddress <- [DW_OP_LLVM_entry_value 1] $r2
	@DEBUG_VALUE: HAL_DMA_Start_IT:SrcAddress <- [DW_OP_LLVM_entry_value 1] $r1
	@DEBUG_VALUE: HAL_DMA_Start_IT:status <- 0
	.loc	2 0 8                           @ libraries/STM32H7xx_HAL/STM32H7xx_HAL_Driver/Src/stm32h7xx_hal_dma.c:0:8
	movs	r1, #88
	b	.LBB8_54
.Ltmp479:
.LBB8_48:
	@DEBUG_VALUE: HAL_DMA_Start_IT:hdma <- $r4
	@DEBUG_VALUE: HAL_DMA_Start_IT:DataLength <- [DW_OP_LLVM_entry_value 1] $r3
	@DEBUG_VALUE: HAL_DMA_Start_IT:DstAddress <- [DW_OP_LLVM_entry_value 1] $r2
	@DEBUG_VALUE: HAL_DMA_Start_IT:SrcAddress <- [DW_OP_LLVM_entry_value 1] $r1
	@DEBUG_VALUE: HAL_DMA_Start_IT:status <- 0
	movw	r1, #1088
	movt	r1, #16386
	.loc	2 667 8                         @ libraries/STM32H7xx_HAL/STM32H7xx_HAL_Driver/Src/stm32h7xx_hal_dma.c:667:8
	cmp	r0, r1
	beq	.LBB8_55
.Ltmp480:
@ %bb.49:
	@DEBUG_VALUE: HAL_DMA_Start_IT:hdma <- $r4
	@DEBUG_VALUE: HAL_DMA_Start_IT:DataLength <- [DW_OP_LLVM_entry_value 1] $r3
	@DEBUG_VALUE: HAL_DMA_Start_IT:DstAddress <- [DW_OP_LLVM_entry_value 1] $r2
	@DEBUG_VALUE: HAL_DMA_Start_IT:SrcAddress <- [DW_OP_LLVM_entry_value 1] $r1
	@DEBUG_VALUE: HAL_DMA_Start_IT:status <- 0
	.loc	2 0 8                           @ libraries/STM32H7xx_HAL/STM32H7xx_HAL_Driver/Src/stm32h7xx_hal_dma.c:0:8
	movw	r1, #1112
	b	.LBB8_54
.Ltmp481:
.LBB8_50:
	@DEBUG_VALUE: HAL_DMA_Start_IT:hdma <- $r4
	@DEBUG_VALUE: HAL_DMA_Start_IT:DataLength <- [DW_OP_LLVM_entry_value 1] $r3
	@DEBUG_VALUE: HAL_DMA_Start_IT:DstAddress <- [DW_OP_LLVM_entry_value 1] $r2
	@DEBUG_VALUE: HAL_DMA_Start_IT:SrcAddress <- [DW_OP_LLVM_entry_value 1] $r1
	@DEBUG_VALUE: HAL_DMA_Start_IT:status <- 0
	movs	r1, #160
	movt	r1, #16386
	.loc	2 667 8                         @ libraries/STM32H7xx_HAL/STM32H7xx_HAL_Driver/Src/stm32h7xx_hal_dma.c:667:8
	cmp	r0, r1
	beq	.LBB8_55
.Ltmp482:
@ %bb.51:
	@DEBUG_VALUE: HAL_DMA_Start_IT:hdma <- $r4
	@DEBUG_VALUE: HAL_DMA_Start_IT:DataLength <- [DW_OP_LLVM_entry_value 1] $r3
	@DEBUG_VALUE: HAL_DMA_Start_IT:DstAddress <- [DW_OP_LLVM_entry_value 1] $r2
	@DEBUG_VALUE: HAL_DMA_Start_IT:SrcAddress <- [DW_OP_LLVM_entry_value 1] $r1
	@DEBUG_VALUE: HAL_DMA_Start_IT:status <- 0
	.loc	2 0 8                           @ libraries/STM32H7xx_HAL/STM32H7xx_HAL_Driver/Src/stm32h7xx_hal_dma.c:0:8
	movs	r1, #184
	b	.LBB8_54
.Ltmp483:
.LBB8_52:
	@DEBUG_VALUE: HAL_DMA_Start_IT:hdma <- $r4
	@DEBUG_VALUE: HAL_DMA_Start_IT:DataLength <- [DW_OP_LLVM_entry_value 1] $r3
	@DEBUG_VALUE: HAL_DMA_Start_IT:DstAddress <- [DW_OP_LLVM_entry_value 1] $r2
	@DEBUG_VALUE: HAL_DMA_Start_IT:SrcAddress <- [DW_OP_LLVM_entry_value 1] $r1
	@DEBUG_VALUE: HAL_DMA_Start_IT:status <- 0
	movw	r1, #1208
	movt	r1, #16386
	.loc	2 667 8                         @ libraries/STM32H7xx_HAL/STM32H7xx_HAL_Driver/Src/stm32h7xx_hal_dma.c:667:8
	cmp	r0, r1
	beq	.LBB8_55
.Ltmp484:
@ %bb.53:
	@DEBUG_VALUE: HAL_DMA_Start_IT:hdma <- $r4
	@DEBUG_VALUE: HAL_DMA_Start_IT:DataLength <- [DW_OP_LLVM_entry_value 1] $r3
	@DEBUG_VALUE: HAL_DMA_Start_IT:DstAddress <- [DW_OP_LLVM_entry_value 1] $r2
	@DEBUG_VALUE: HAL_DMA_Start_IT:SrcAddress <- [DW_OP_LLVM_entry_value 1] $r1
	@DEBUG_VALUE: HAL_DMA_Start_IT:status <- 0
	.loc	2 0 8                           @ libraries/STM32H7xx_HAL/STM32H7xx_HAL_Driver/Src/stm32h7xx_hal_dma.c:0:8
	movw	r1, #1184
.Ltmp485:
.LBB8_54:
	@DEBUG_VALUE: HAL_DMA_Start_IT:hdma <- $r4
	@DEBUG_VALUE: HAL_DMA_Start_IT:DataLength <- [DW_OP_LLVM_entry_value 1] $r3
	@DEBUG_VALUE: HAL_DMA_Start_IT:DstAddress <- [DW_OP_LLVM_entry_value 1] $r2
	@DEBUG_VALUE: HAL_DMA_Start_IT:SrcAddress <- [DW_OP_LLVM_entry_value 1] $r1
	@DEBUG_VALUE: HAL_DMA_Start_IT:status <- 0
	movt	r1, #16386
	.loc	2 667 8                         @ libraries/STM32H7xx_HAL/STM32H7xx_HAL_Driver/Src/stm32h7xx_hal_dma.c:667:8
	cmp	r0, r1
	bne.w	.LBB8_88
.Ltmp486:
.LBB8_55:
	@DEBUG_VALUE: HAL_DMA_Start_IT:hdma <- $r4
	@DEBUG_VALUE: HAL_DMA_Start_IT:DataLength <- [DW_OP_LLVM_entry_value 1] $r3
	@DEBUG_VALUE: HAL_DMA_Start_IT:DstAddress <- [DW_OP_LLVM_entry_value 1] $r2
	@DEBUG_VALUE: HAL_DMA_Start_IT:SrcAddress <- [DW_OP_LLVM_entry_value 1] $r1
	@DEBUG_VALUE: HAL_DMA_Start_IT:status <- 0
	.loc	2 670 7 is_stmt 1               @ libraries/STM32H7xx_HAL/STM32H7xx_HAL_Driver/Src/stm32h7xx_hal_dma.c:670:7
	ldr	r1, [r4]
	movs	r5, #11
.Ltmp487:
	.loc	2 672 16                        @ libraries/STM32H7xx_HAL/STM32H7xx_HAL_Driver/Src/stm32h7xx_hal_dma.c:672:16
	ldr	r2, [r4, #64]
.Ltmp488:
	.loc	2 670 7                         @ libraries/STM32H7xx_HAL/STM32H7xx_HAL_Driver/Src/stm32h7xx_hal_dma.c:670:7
	ldr	r3, [r1]
	bfi	r3, r5, #1, #4
	str	r3, [r1]
	.loc	2 672 10                        @ libraries/STM32H7xx_HAL/STM32H7xx_HAL_Driver/Src/stm32h7xx_hal_dma.c:672:10
	cbz	r2, .LBB8_58
.Ltmp489:
@ %bb.56:
	@DEBUG_VALUE: HAL_DMA_Start_IT:hdma <- $r4
	@DEBUG_VALUE: HAL_DMA_Start_IT:DataLength <- [DW_OP_LLVM_entry_value 1] $r3
	@DEBUG_VALUE: HAL_DMA_Start_IT:DstAddress <- [DW_OP_LLVM_entry_value 1] $r2
	@DEBUG_VALUE: HAL_DMA_Start_IT:SrcAddress <- [DW_OP_LLVM_entry_value 1] $r1
	@DEBUG_VALUE: HAL_DMA_Start_IT:status <- 0
	.loc	2 675 55                        @ libraries/STM32H7xx_HAL/STM32H7xx_HAL_Driver/Src/stm32h7xx_hal_dma.c:675:55
	ldr	r2, [r1]
	orr	r2, r2, #8
.Ltmp490:
.LBB8_57:
	@DEBUG_VALUE: HAL_DMA_Start_IT:hdma <- $r4
	@DEBUG_VALUE: HAL_DMA_Start_IT:DataLength <- [DW_OP_LLVM_entry_value 1] $r3
	@DEBUG_VALUE: HAL_DMA_Start_IT:DstAddress <- [DW_OP_LLVM_entry_value 1] $r2
	@DEBUG_VALUE: HAL_DMA_Start_IT:SrcAddress <- [DW_OP_LLVM_entry_value 1] $r1
	@DEBUG_VALUE: HAL_DMA_Start_IT:status <- 0
	.loc	2 0 0 is_stmt 0                 @ libraries/STM32H7xx_HAL/STM32H7xx_HAL_Driver/Src/stm32h7xx_hal_dma.c:0:0
	str	r2, [r1]
.Ltmp491:
.LBB8_58:
	@DEBUG_VALUE: HAL_DMA_Start_IT:hdma <- $r4
	@DEBUG_VALUE: HAL_DMA_Start_IT:DataLength <- [DW_OP_LLVM_entry_value 1] $r3
	@DEBUG_VALUE: HAL_DMA_Start_IT:DstAddress <- [DW_OP_LLVM_entry_value 1] $r2
	@DEBUG_VALUE: HAL_DMA_Start_IT:SrcAddress <- [DW_OP_LLVM_entry_value 1] $r1
	@DEBUG_VALUE: HAL_DMA_Start_IT:status <- 0
	.loc	2 691 15 is_stmt 1              @ libraries/STM32H7xx_HAL/STM32H7xx_HAL_Driver/Src/stm32h7xx_hal_dma.c:691:15
	ldr	r1, [r4, #96]
	.loc	2 691 30 is_stmt 0              @ libraries/STM32H7xx_HAL/STM32H7xx_HAL_Driver/Src/stm32h7xx_hal_dma.c:691:30
	ldr	r2, [r1]
.Ltmp492:
	.loc	2 691 8                         @ libraries/STM32H7xx_HAL/STM32H7xx_HAL_Driver/Src/stm32h7xx_hal_dma.c:691:8
	lsls	r2, r2, #15
	bpl	.LBB8_60
.Ltmp493:
@ %bb.59:
	@DEBUG_VALUE: HAL_DMA_Start_IT:hdma <- $r4
	@DEBUG_VALUE: HAL_DMA_Start_IT:DataLength <- [DW_OP_LLVM_entry_value 1] $r3
	@DEBUG_VALUE: HAL_DMA_Start_IT:DstAddress <- [DW_OP_LLVM_entry_value 1] $r2
	@DEBUG_VALUE: HAL_DMA_Start_IT:SrcAddress <- [DW_OP_LLVM_entry_value 1] $r1
	@DEBUG_VALUE: HAL_DMA_Start_IT:status <- 0
	.loc	2 694 32 is_stmt 1              @ libraries/STM32H7xx_HAL/STM32H7xx_HAL_Driver/Src/stm32h7xx_hal_dma.c:694:32
	ldr	r2, [r1]
	orr	r2, r2, #256
	str	r2, [r1]
.Ltmp494:
.LBB8_60:
	@DEBUG_VALUE: HAL_DMA_Start_IT:hdma <- $r4
	@DEBUG_VALUE: HAL_DMA_Start_IT:DataLength <- [DW_OP_LLVM_entry_value 1] $r3
	@DEBUG_VALUE: HAL_DMA_Start_IT:DstAddress <- [DW_OP_LLVM_entry_value 1] $r2
	@DEBUG_VALUE: HAL_DMA_Start_IT:SrcAddress <- [DW_OP_LLVM_entry_value 1] $r1
	@DEBUG_VALUE: HAL_DMA_Start_IT:status <- 0
	.loc	2 697 14                        @ libraries/STM32H7xx_HAL/STM32H7xx_HAL_Driver/Src/stm32h7xx_hal_dma.c:697:14
	ldr	r1, [r4, #108]
.Ltmp495:
	.loc	2 697 8 is_stmt 0               @ libraries/STM32H7xx_HAL/STM32H7xx_HAL_Driver/Src/stm32h7xx_hal_dma.c:697:8
	cbz	r1, .LBB8_62
.Ltmp496:
@ %bb.61:
	@DEBUG_VALUE: HAL_DMA_Start_IT:hdma <- $r4
	@DEBUG_VALUE: HAL_DMA_Start_IT:DataLength <- [DW_OP_LLVM_entry_value 1] $r3
	@DEBUG_VALUE: HAL_DMA_Start_IT:DstAddress <- [DW_OP_LLVM_entry_value 1] $r2
	@DEBUG_VALUE: HAL_DMA_Start_IT:SrcAddress <- [DW_OP_LLVM_entry_value 1] $r1
	@DEBUG_VALUE: HAL_DMA_Start_IT:status <- 0
	.loc	2 701 36 is_stmt 1              @ libraries/STM32H7xx_HAL/STM32H7xx_HAL_Driver/Src/stm32h7xx_hal_dma.c:701:36
	ldr	r2, [r1]
	orr	r2, r2, #256
	str	r2, [r1]
.Ltmp497:
.LBB8_62:
	@DEBUG_VALUE: HAL_DMA_Start_IT:hdma <- $r4
	@DEBUG_VALUE: HAL_DMA_Start_IT:DataLength <- [DW_OP_LLVM_entry_value 1] $r3
	@DEBUG_VALUE: HAL_DMA_Start_IT:DstAddress <- [DW_OP_LLVM_entry_value 1] $r2
	@DEBUG_VALUE: HAL_DMA_Start_IT:SrcAddress <- [DW_OP_LLVM_entry_value 1] $r1
	@DEBUG_VALUE: HAL_DMA_Start_IT:status <- 0
	.loc	2 705 5                         @ libraries/STM32H7xx_HAL/STM32H7xx_HAL_Driver/Src/stm32h7xx_hal_dma.c:705:5
	cmp	r0, r6
	bgt	.LBB8_67
.Ltmp498:
@ %bb.63:
	@DEBUG_VALUE: HAL_DMA_Start_IT:hdma <- $r4
	@DEBUG_VALUE: HAL_DMA_Start_IT:DataLength <- [DW_OP_LLVM_entry_value 1] $r3
	@DEBUG_VALUE: HAL_DMA_Start_IT:DstAddress <- [DW_OP_LLVM_entry_value 1] $r2
	@DEBUG_VALUE: HAL_DMA_Start_IT:SrcAddress <- [DW_OP_LLVM_entry_value 1] $r1
	@DEBUG_VALUE: HAL_DMA_Start_IT:status <- 0
	.loc	2 0 5 is_stmt 0                 @ libraries/STM32H7xx_HAL/STM32H7xx_HAL_Driver/Src/stm32h7xx_hal_dma.c:0:5
	movs	r1, #111
	movt	r1, #16386
	.loc	2 705 5                         @ libraries/STM32H7xx_HAL/STM32H7xx_HAL_Driver/Src/stm32h7xx_hal_dma.c:705:5
	cmp	r0, r1
	bgt	.LBB8_71
.Ltmp499:
@ %bb.64:
	@DEBUG_VALUE: HAL_DMA_Start_IT:hdma <- $r4
	@DEBUG_VALUE: HAL_DMA_Start_IT:DataLength <- [DW_OP_LLVM_entry_value 1] $r3
	@DEBUG_VALUE: HAL_DMA_Start_IT:DstAddress <- [DW_OP_LLVM_entry_value 1] $r2
	@DEBUG_VALUE: HAL_DMA_Start_IT:SrcAddress <- [DW_OP_LLVM_entry_value 1] $r1
	@DEBUG_VALUE: HAL_DMA_Start_IT:status <- 0
	.loc	2 0 5                           @ libraries/STM32H7xx_HAL/STM32H7xx_HAL_Driver/Src/stm32h7xx_hal_dma.c:0:5
	movs	r1, #63
	movt	r1, #16386
	.loc	2 705 5                         @ libraries/STM32H7xx_HAL/STM32H7xx_HAL_Driver/Src/stm32h7xx_hal_dma.c:705:5
	cmp	r0, r1
	bgt	.LBB8_77
.Ltmp500:
@ %bb.65:
	@DEBUG_VALUE: HAL_DMA_Start_IT:hdma <- $r4
	@DEBUG_VALUE: HAL_DMA_Start_IT:DataLength <- [DW_OP_LLVM_entry_value 1] $r3
	@DEBUG_VALUE: HAL_DMA_Start_IT:DstAddress <- [DW_OP_LLVM_entry_value 1] $r2
	@DEBUG_VALUE: HAL_DMA_Start_IT:SrcAddress <- [DW_OP_LLVM_entry_value 1] $r1
	@DEBUG_VALUE: HAL_DMA_Start_IT:status <- 0
	.loc	2 0 5                           @ libraries/STM32H7xx_HAL/STM32H7xx_HAL_Driver/Src/stm32h7xx_hal_dma.c:0:5
	movs	r1, #16
	movt	r1, #16386
	.loc	2 705 5                         @ libraries/STM32H7xx_HAL/STM32H7xx_HAL_Driver/Src/stm32h7xx_hal_dma.c:705:5
	cmp	r0, r1
	beq	.LBB8_86
.Ltmp501:
@ %bb.66:
	@DEBUG_VALUE: HAL_DMA_Start_IT:hdma <- $r4
	@DEBUG_VALUE: HAL_DMA_Start_IT:DataLength <- [DW_OP_LLVM_entry_value 1] $r3
	@DEBUG_VALUE: HAL_DMA_Start_IT:DstAddress <- [DW_OP_LLVM_entry_value 1] $r2
	@DEBUG_VALUE: HAL_DMA_Start_IT:SrcAddress <- [DW_OP_LLVM_entry_value 1] $r1
	@DEBUG_VALUE: HAL_DMA_Start_IT:status <- 0
	.loc	2 0 5                           @ libraries/STM32H7xx_HAL/STM32H7xx_HAL_Driver/Src/stm32h7xx_hal_dma.c:0:5
	movs	r1, #40
	b	.LBB8_85
.Ltmp502:
.LBB8_67:
	@DEBUG_VALUE: HAL_DMA_Start_IT:hdma <- $r4
	@DEBUG_VALUE: HAL_DMA_Start_IT:DataLength <- [DW_OP_LLVM_entry_value 1] $r3
	@DEBUG_VALUE: HAL_DMA_Start_IT:DstAddress <- [DW_OP_LLVM_entry_value 1] $r2
	@DEBUG_VALUE: HAL_DMA_Start_IT:SrcAddress <- [DW_OP_LLVM_entry_value 1] $r1
	@DEBUG_VALUE: HAL_DMA_Start_IT:status <- 0
	movw	r1, #1135
	movt	r1, #16386
	.loc	2 705 5                         @ libraries/STM32H7xx_HAL/STM32H7xx_HAL_Driver/Src/stm32h7xx_hal_dma.c:705:5
	cmp	r0, r1
	bgt	.LBB8_74
.Ltmp503:
@ %bb.68:
	@DEBUG_VALUE: HAL_DMA_Start_IT:hdma <- $r4
	@DEBUG_VALUE: HAL_DMA_Start_IT:DataLength <- [DW_OP_LLVM_entry_value 1] $r3
	@DEBUG_VALUE: HAL_DMA_Start_IT:DstAddress <- [DW_OP_LLVM_entry_value 1] $r2
	@DEBUG_VALUE: HAL_DMA_Start_IT:SrcAddress <- [DW_OP_LLVM_entry_value 1] $r1
	@DEBUG_VALUE: HAL_DMA_Start_IT:status <- 0
	.loc	2 0 5                           @ libraries/STM32H7xx_HAL/STM32H7xx_HAL_Driver/Src/stm32h7xx_hal_dma.c:0:5
	movw	r1, #1087
	movt	r1, #16386
	.loc	2 705 5                         @ libraries/STM32H7xx_HAL/STM32H7xx_HAL_Driver/Src/stm32h7xx_hal_dma.c:705:5
	cmp	r0, r1
	bgt	.LBB8_79
.Ltmp504:
@ %bb.69:
	@DEBUG_VALUE: HAL_DMA_Start_IT:hdma <- $r4
	@DEBUG_VALUE: HAL_DMA_Start_IT:DataLength <- [DW_OP_LLVM_entry_value 1] $r3
	@DEBUG_VALUE: HAL_DMA_Start_IT:DstAddress <- [DW_OP_LLVM_entry_value 1] $r2
	@DEBUG_VALUE: HAL_DMA_Start_IT:SrcAddress <- [DW_OP_LLVM_entry_value 1] $r1
	@DEBUG_VALUE: HAL_DMA_Start_IT:status <- 0
	.loc	2 0 5                           @ libraries/STM32H7xx_HAL/STM32H7xx_HAL_Driver/Src/stm32h7xx_hal_dma.c:0:5
	movw	r1, #1040
	movt	r1, #16386
	.loc	2 705 5                         @ libraries/STM32H7xx_HAL/STM32H7xx_HAL_Driver/Src/stm32h7xx_hal_dma.c:705:5
	cmp	r0, r1
	beq	.LBB8_86
.Ltmp505:
@ %bb.70:
	@DEBUG_VALUE: HAL_DMA_Start_IT:hdma <- $r4
	@DEBUG_VALUE: HAL_DMA_Start_IT:DataLength <- [DW_OP_LLVM_entry_value 1] $r3
	@DEBUG_VALUE: HAL_DMA_Start_IT:DstAddress <- [DW_OP_LLVM_entry_value 1] $r2
	@DEBUG_VALUE: HAL_DMA_Start_IT:SrcAddress <- [DW_OP_LLVM_entry_value 1] $r1
	@DEBUG_VALUE: HAL_DMA_Start_IT:status <- 0
	.loc	2 0 5                           @ libraries/STM32H7xx_HAL/STM32H7xx_HAL_Driver/Src/stm32h7xx_hal_dma.c:0:5
	movw	r1, #1064
	b	.LBB8_85
.Ltmp506:
.LBB8_71:
	@DEBUG_VALUE: HAL_DMA_Start_IT:hdma <- $r4
	@DEBUG_VALUE: HAL_DMA_Start_IT:DataLength <- [DW_OP_LLVM_entry_value 1] $r3
	@DEBUG_VALUE: HAL_DMA_Start_IT:DstAddress <- [DW_OP_LLVM_entry_value 1] $r2
	@DEBUG_VALUE: HAL_DMA_Start_IT:SrcAddress <- [DW_OP_LLVM_entry_value 1] $r1
	@DEBUG_VALUE: HAL_DMA_Start_IT:status <- 0
	movs	r1, #159
	movt	r1, #16386
	.loc	2 705 5                         @ libraries/STM32H7xx_HAL/STM32H7xx_HAL_Driver/Src/stm32h7xx_hal_dma.c:705:5
	cmp	r0, r1
	bgt	.LBB8_81
.Ltmp507:
@ %bb.72:
	@DEBUG_VALUE: HAL_DMA_Start_IT:hdma <- $r4
	@DEBUG_VALUE: HAL_DMA_Start_IT:DataLength <- [DW_OP_LLVM_entry_value 1] $r3
	@DEBUG_VALUE: HAL_DMA_Start_IT:DstAddress <- [DW_OP_LLVM_entry_value 1] $r2
	@DEBUG_VALUE: HAL_DMA_Start_IT:SrcAddress <- [DW_OP_LLVM_entry_value 1] $r1
	@DEBUG_VALUE: HAL_DMA_Start_IT:status <- 0
	.loc	2 0 5                           @ libraries/STM32H7xx_HAL/STM32H7xx_HAL_Driver/Src/stm32h7xx_hal_dma.c:0:5
	movs	r1, #112
	movt	r1, #16386
	.loc	2 705 5                         @ libraries/STM32H7xx_HAL/STM32H7xx_HAL_Driver/Src/stm32h7xx_hal_dma.c:705:5
	cmp	r0, r1
	beq	.LBB8_86
.Ltmp508:
@ %bb.73:
	@DEBUG_VALUE: HAL_DMA_Start_IT:hdma <- $r4
	@DEBUG_VALUE: HAL_DMA_Start_IT:DataLength <- [DW_OP_LLVM_entry_value 1] $r3
	@DEBUG_VALUE: HAL_DMA_Start_IT:DstAddress <- [DW_OP_LLVM_entry_value 1] $r2
	@DEBUG_VALUE: HAL_DMA_Start_IT:SrcAddress <- [DW_OP_LLVM_entry_value 1] $r1
	@DEBUG_VALUE: HAL_DMA_Start_IT:status <- 0
	.loc	2 0 5                           @ libraries/STM32H7xx_HAL/STM32H7xx_HAL_Driver/Src/stm32h7xx_hal_dma.c:0:5
	movs	r1, #136
	b	.LBB8_85
.Ltmp509:
.LBB8_74:
	@DEBUG_VALUE: HAL_DMA_Start_IT:hdma <- $r4
	@DEBUG_VALUE: HAL_DMA_Start_IT:DataLength <- [DW_OP_LLVM_entry_value 1] $r3
	@DEBUG_VALUE: HAL_DMA_Start_IT:DstAddress <- [DW_OP_LLVM_entry_value 1] $r2
	@DEBUG_VALUE: HAL_DMA_Start_IT:SrcAddress <- [DW_OP_LLVM_entry_value 1] $r1
	@DEBUG_VALUE: HAL_DMA_Start_IT:status <- 0
	movw	r1, #1183
	movt	r1, #16386
	.loc	2 705 5                         @ libraries/STM32H7xx_HAL/STM32H7xx_HAL_Driver/Src/stm32h7xx_hal_dma.c:705:5
	cmp	r0, r1
	bgt	.LBB8_83
.Ltmp510:
@ %bb.75:
	@DEBUG_VALUE: HAL_DMA_Start_IT:hdma <- $r4
	@DEBUG_VALUE: HAL_DMA_Start_IT:DataLength <- [DW_OP_LLVM_entry_value 1] $r3
	@DEBUG_VALUE: HAL_DMA_Start_IT:DstAddress <- [DW_OP_LLVM_entry_value 1] $r2
	@DEBUG_VALUE: HAL_DMA_Start_IT:SrcAddress <- [DW_OP_LLVM_entry_value 1] $r1
	@DEBUG_VALUE: HAL_DMA_Start_IT:status <- 0
	.loc	2 0 5                           @ libraries/STM32H7xx_HAL/STM32H7xx_HAL_Driver/Src/stm32h7xx_hal_dma.c:0:5
	movw	r1, #1136
	movt	r1, #16386
	.loc	2 705 5                         @ libraries/STM32H7xx_HAL/STM32H7xx_HAL_Driver/Src/stm32h7xx_hal_dma.c:705:5
	cmp	r0, r1
	beq	.LBB8_86
.Ltmp511:
@ %bb.76:
	@DEBUG_VALUE: HAL_DMA_Start_IT:hdma <- $r4
	@DEBUG_VALUE: HAL_DMA_Start_IT:DataLength <- [DW_OP_LLVM_entry_value 1] $r3
	@DEBUG_VALUE: HAL_DMA_Start_IT:DstAddress <- [DW_OP_LLVM_entry_value 1] $r2
	@DEBUG_VALUE: HAL_DMA_Start_IT:SrcAddress <- [DW_OP_LLVM_entry_value 1] $r1
	@DEBUG_VALUE: HAL_DMA_Start_IT:status <- 0
	.loc	2 0 5                           @ libraries/STM32H7xx_HAL/STM32H7xx_HAL_Driver/Src/stm32h7xx_hal_dma.c:0:5
	movw	r1, #1160
	b	.LBB8_85
.Ltmp512:
.LBB8_77:
	@DEBUG_VALUE: HAL_DMA_Start_IT:hdma <- $r4
	@DEBUG_VALUE: HAL_DMA_Start_IT:DataLength <- [DW_OP_LLVM_entry_value 1] $r3
	@DEBUG_VALUE: HAL_DMA_Start_IT:DstAddress <- [DW_OP_LLVM_entry_value 1] $r2
	@DEBUG_VALUE: HAL_DMA_Start_IT:SrcAddress <- [DW_OP_LLVM_entry_value 1] $r1
	@DEBUG_VALUE: HAL_DMA_Start_IT:status <- 0
	movs	r1, #64
	movt	r1, #16386
	.loc	2 705 5                         @ libraries/STM32H7xx_HAL/STM32H7xx_HAL_Driver/Src/stm32h7xx_hal_dma.c:705:5
	cmp	r0, r1
	beq	.LBB8_86
.Ltmp513:
@ %bb.78:
	@DEBUG_VALUE: HAL_DMA_Start_IT:hdma <- $r4
	@DEBUG_VALUE: HAL_DMA_Start_IT:DataLength <- [DW_OP_LLVM_entry_value 1] $r3
	@DEBUG_VALUE: HAL_DMA_Start_IT:DstAddress <- [DW_OP_LLVM_entry_value 1] $r2
	@DEBUG_VALUE: HAL_DMA_Start_IT:SrcAddress <- [DW_OP_LLVM_entry_value 1] $r1
	@DEBUG_VALUE: HAL_DMA_Start_IT:status <- 0
	.loc	2 0 5                           @ libraries/STM32H7xx_HAL/STM32H7xx_HAL_Driver/Src/stm32h7xx_hal_dma.c:0:5
	movs	r1, #88
	b	.LBB8_85
.Ltmp514:
.LBB8_79:
	@DEBUG_VALUE: HAL_DMA_Start_IT:hdma <- $r4
	@DEBUG_VALUE: HAL_DMA_Start_IT:DataLength <- [DW_OP_LLVM_entry_value 1] $r3
	@DEBUG_VALUE: HAL_DMA_Start_IT:DstAddress <- [DW_OP_LLVM_entry_value 1] $r2
	@DEBUG_VALUE: HAL_DMA_Start_IT:SrcAddress <- [DW_OP_LLVM_entry_value 1] $r1
	@DEBUG_VALUE: HAL_DMA_Start_IT:status <- 0
	movw	r1, #1088
	movt	r1, #16386
	.loc	2 705 5                         @ libraries/STM32H7xx_HAL/STM32H7xx_HAL_Driver/Src/stm32h7xx_hal_dma.c:705:5
	cmp	r0, r1
	beq	.LBB8_86
.Ltmp515:
@ %bb.80:
	@DEBUG_VALUE: HAL_DMA_Start_IT:hdma <- $r4
	@DEBUG_VALUE: HAL_DMA_Start_IT:DataLength <- [DW_OP_LLVM_entry_value 1] $r3
	@DEBUG_VALUE: HAL_DMA_Start_IT:DstAddress <- [DW_OP_LLVM_entry_value 1] $r2
	@DEBUG_VALUE: HAL_DMA_Start_IT:SrcAddress <- [DW_OP_LLVM_entry_value 1] $r1
	@DEBUG_VALUE: HAL_DMA_Start_IT:status <- 0
	.loc	2 0 5                           @ libraries/STM32H7xx_HAL/STM32H7xx_HAL_Driver/Src/stm32h7xx_hal_dma.c:0:5
	movw	r1, #1112
	b	.LBB8_85
.Ltmp516:
.LBB8_81:
	@DEBUG_VALUE: HAL_DMA_Start_IT:hdma <- $r4
	@DEBUG_VALUE: HAL_DMA_Start_IT:DataLength <- [DW_OP_LLVM_entry_value 1] $r3
	@DEBUG_VALUE: HAL_DMA_Start_IT:DstAddress <- [DW_OP_LLVM_entry_value 1] $r2
	@DEBUG_VALUE: HAL_DMA_Start_IT:SrcAddress <- [DW_OP_LLVM_entry_value 1] $r1
	@DEBUG_VALUE: HAL_DMA_Start_IT:status <- 0
	movs	r1, #160
	movt	r1, #16386
	.loc	2 705 5                         @ libraries/STM32H7xx_HAL/STM32H7xx_HAL_Driver/Src/stm32h7xx_hal_dma.c:705:5
	cmp	r0, r1
	beq	.LBB8_86
.Ltmp517:
@ %bb.82:
	@DEBUG_VALUE: HAL_DMA_Start_IT:hdma <- $r4
	@DEBUG_VALUE: HAL_DMA_Start_IT:DataLength <- [DW_OP_LLVM_entry_value 1] $r3
	@DEBUG_VALUE: HAL_DMA_Start_IT:DstAddress <- [DW_OP_LLVM_entry_value 1] $r2
	@DEBUG_VALUE: HAL_DMA_Start_IT:SrcAddress <- [DW_OP_LLVM_entry_value 1] $r1
	@DEBUG_VALUE: HAL_DMA_Start_IT:status <- 0
	.loc	2 0 5                           @ libraries/STM32H7xx_HAL/STM32H7xx_HAL_Driver/Src/stm32h7xx_hal_dma.c:0:5
	movs	r1, #184
	b	.LBB8_85
.Ltmp518:
.LBB8_83:
	@DEBUG_VALUE: HAL_DMA_Start_IT:hdma <- $r4
	@DEBUG_VALUE: HAL_DMA_Start_IT:DataLength <- [DW_OP_LLVM_entry_value 1] $r3
	@DEBUG_VALUE: HAL_DMA_Start_IT:DstAddress <- [DW_OP_LLVM_entry_value 1] $r2
	@DEBUG_VALUE: HAL_DMA_Start_IT:SrcAddress <- [DW_OP_LLVM_entry_value 1] $r1
	@DEBUG_VALUE: HAL_DMA_Start_IT:status <- 0
	movw	r1, #1208
	movt	r1, #16386
	.loc	2 705 5                         @ libraries/STM32H7xx_HAL/STM32H7xx_HAL_Driver/Src/stm32h7xx_hal_dma.c:705:5
	cmp	r0, r1
	beq	.LBB8_86
.Ltmp519:
@ %bb.84:
	@DEBUG_VALUE: HAL_DMA_Start_IT:hdma <- $r4
	@DEBUG_VALUE: HAL_DMA_Start_IT:DataLength <- [DW_OP_LLVM_entry_value 1] $r3
	@DEBUG_VALUE: HAL_DMA_Start_IT:DstAddress <- [DW_OP_LLVM_entry_value 1] $r2
	@DEBUG_VALUE: HAL_DMA_Start_IT:SrcAddress <- [DW_OP_LLVM_entry_value 1] $r1
	@DEBUG_VALUE: HAL_DMA_Start_IT:status <- 0
	.loc	2 0 5                           @ libraries/STM32H7xx_HAL/STM32H7xx_HAL_Driver/Src/stm32h7xx_hal_dma.c:0:5
	movw	r1, #1184
.Ltmp520:
.LBB8_85:
	@DEBUG_VALUE: HAL_DMA_Start_IT:hdma <- $r4
	@DEBUG_VALUE: HAL_DMA_Start_IT:DataLength <- [DW_OP_LLVM_entry_value 1] $r3
	@DEBUG_VALUE: HAL_DMA_Start_IT:DstAddress <- [DW_OP_LLVM_entry_value 1] $r2
	@DEBUG_VALUE: HAL_DMA_Start_IT:SrcAddress <- [DW_OP_LLVM_entry_value 1] $r1
	@DEBUG_VALUE: HAL_DMA_Start_IT:status <- 0
	movt	r1, #16386
	.loc	2 705 5                         @ libraries/STM32H7xx_HAL/STM32H7xx_HAL_Driver/Src/stm32h7xx_hal_dma.c:705:5
	cmp	r0, r1
	it	eq
	ldreq	r0, [r4]
	b	.LBB8_87
.Ltmp521:
.LBB8_86:
	@DEBUG_VALUE: HAL_DMA_Start_IT:hdma <- $r4
	@DEBUG_VALUE: HAL_DMA_Start_IT:DataLength <- [DW_OP_LLVM_entry_value 1] $r3
	@DEBUG_VALUE: HAL_DMA_Start_IT:DstAddress <- [DW_OP_LLVM_entry_value 1] $r2
	@DEBUG_VALUE: HAL_DMA_Start_IT:SrcAddress <- [DW_OP_LLVM_entry_value 1] $r1
	@DEBUG_VALUE: HAL_DMA_Start_IT:status <- 0
	ldr	r0, [r4]
.Ltmp522:
.LBB8_87:
	@DEBUG_VALUE: HAL_DMA_Start_IT:hdma <- $r4
	@DEBUG_VALUE: HAL_DMA_Start_IT:DataLength <- [DW_OP_LLVM_entry_value 1] $r3
	@DEBUG_VALUE: HAL_DMA_Start_IT:DstAddress <- [DW_OP_LLVM_entry_value 1] $r2
	@DEBUG_VALUE: HAL_DMA_Start_IT:SrcAddress <- [DW_OP_LLVM_entry_value 1] $r1
	@DEBUG_VALUE: HAL_DMA_Start_IT:status <- 0
	ldr	r1, [r0]
	orr	r1, r1, #1
	str	r1, [r0]
	movs	r0, #0
.Ltmp523:
	.loc	2 720 1 is_stmt 1               @ libraries/STM32H7xx_HAL/STM32H7xx_HAL_Driver/Src/stm32h7xx_hal_dma.c:720:1
	pop	{r4, r5, r6, pc}
.Ltmp524:
.LBB8_88:
	@DEBUG_VALUE: HAL_DMA_Start_IT:hdma <- $r4
	@DEBUG_VALUE: HAL_DMA_Start_IT:DataLength <- [DW_OP_LLVM_entry_value 1] $r3
	@DEBUG_VALUE: HAL_DMA_Start_IT:DstAddress <- [DW_OP_LLVM_entry_value 1] $r2
	@DEBUG_VALUE: HAL_DMA_Start_IT:SrcAddress <- [DW_OP_LLVM_entry_value 1] $r1
	@DEBUG_VALUE: HAL_DMA_Start_IT:status <- 0
	.loc	2 681 7                         @ libraries/STM32H7xx_HAL/STM32H7xx_HAL_Driver/Src/stm32h7xx_hal_dma.c:681:7
	ldr	r1, [r4]
	movs	r5, #5
.Ltmp525:
	.loc	2 683 16                        @ libraries/STM32H7xx_HAL/STM32H7xx_HAL_Driver/Src/stm32h7xx_hal_dma.c:683:16
	ldr	r2, [r4, #64]
.Ltmp526:
	.loc	2 681 7                         @ libraries/STM32H7xx_HAL/STM32H7xx_HAL_Driver/Src/stm32h7xx_hal_dma.c:681:7
	ldr	r3, [r1]
	.loc	2 683 10                        @ libraries/STM32H7xx_HAL/STM32H7xx_HAL_Driver/Src/stm32h7xx_hal_dma.c:683:10
	cmp	r2, #0
	.loc	2 681 7                         @ libraries/STM32H7xx_HAL/STM32H7xx_HAL_Driver/Src/stm32h7xx_hal_dma.c:681:7
	bfi	r3, r5, #1, #3
	str	r3, [r1]
	.loc	2 683 10                        @ libraries/STM32H7xx_HAL/STM32H7xx_HAL_Driver/Src/stm32h7xx_hal_dma.c:683:10
	beq.w	.LBB8_58
.Ltmp527:
@ %bb.89:
	@DEBUG_VALUE: HAL_DMA_Start_IT:hdma <- $r4
	@DEBUG_VALUE: HAL_DMA_Start_IT:DataLength <- [DW_OP_LLVM_entry_value 1] $r3
	@DEBUG_VALUE: HAL_DMA_Start_IT:DstAddress <- [DW_OP_LLVM_entry_value 1] $r2
	@DEBUG_VALUE: HAL_DMA_Start_IT:SrcAddress <- [DW_OP_LLVM_entry_value 1] $r1
	@DEBUG_VALUE: HAL_DMA_Start_IT:status <- 0
	.loc	2 686 58                        @ libraries/STM32H7xx_HAL/STM32H7xx_HAL_Driver/Src/stm32h7xx_hal_dma.c:686:58
	ldr	r2, [r1]
	orr	r2, r2, #4
	b	.LBB8_57
.Ltmp528:
.Lfunc_end8:
	.size	HAL_DMA_Start_IT, .Lfunc_end8-HAL_DMA_Start_IT
	.cfi_endproc
	.cantunwind
	.fnend
                                        @ -- End function
	.section	.text.HAL_DMA_Abort,"ax",%progbits
	.hidden	HAL_DMA_Abort                   @ -- Begin function HAL_DMA_Abort
	.globl	HAL_DMA_Abort
	.p2align	3
	.type	HAL_DMA_Abort,%function
	.code	16                              @ @HAL_DMA_Abort
	.thumb_func
HAL_DMA_Abort:
.Lfunc_begin9:
	.loc	2 735 0                         @ libraries/STM32H7xx_HAL/STM32H7xx_HAL_Driver/Src/stm32h7xx_hal_dma.c:735:0
	.fnstart
	.cfi_startproc
@ %bb.0:
	@DEBUG_VALUE: HAL_DMA_Abort:hdma <- $r0
	.save	{r4, r5, r6, r7, lr}
	push	{r4, r5, r6, r7, lr}
	.cfi_def_cfa_offset 20
	.cfi_offset lr, -4
	.cfi_offset r7, -8
	.cfi_offset r6, -12
	.cfi_offset r5, -16
	.cfi_offset r4, -20
	.pad	#4
	sub	sp, #4
	.cfi_def_cfa_offset 24
	mov	r4, r0
.Ltmp529:
	@DEBUG_VALUE: HAL_DMA_Abort:hdma <- $r4
	@DEBUG_VALUE: HAL_DMA_Abort:hdma <- $r4
	.loc	2 741 24 prologue_end           @ libraries/STM32H7xx_HAL/STM32H7xx_HAL_Driver/Src/stm32h7xx_hal_dma.c:741:24
	bl	HAL_GetTick
	.loc	2 744 6                         @ libraries/STM32H7xx_HAL/STM32H7xx_HAL_Driver/Src/stm32h7xx_hal_dma.c:744:6
	cmp	r4, #0
.Ltmp530:
	@DEBUG_VALUE: HAL_DMA_Abort:tickstart <- $r0
	beq.w	.LBB9_57
.Ltmp531:
@ %bb.1:
	@DEBUG_VALUE: HAL_DMA_Abort:hdma <- $r4
	@DEBUG_VALUE: HAL_DMA_Abort:tickstart <- $r0
	.loc	2 0 0 is_stmt 0                 @ libraries/STM32H7xx_HAL/STM32H7xx_HAL_Driver/Src/stm32h7xx_hal_dma.c:0:0
	mov	r5, r0
.Ltmp532:
	@DEBUG_VALUE: HAL_DMA_Abort:tickstart <- $r5
	@DEBUG_VALUE: HAL_DMA_Abort:tickstart <- $r5
	.loc	2 750 12 is_stmt 1              @ libraries/STM32H7xx_HAL/STM32H7xx_HAL_Driver/Src/stm32h7xx_hal_dma.c:750:12
	ldrb.w	r0, [r4, #53]
.Ltmp533:
	.loc	2 750 6 is_stmt 0               @ libraries/STM32H7xx_HAL/STM32H7xx_HAL_Driver/Src/stm32h7xx_hal_dma.c:750:6
	cmp	r0, #2
	bne	.LBB9_7
.Ltmp534:
@ %bb.2:
	@DEBUG_VALUE: HAL_DMA_Abort:tickstart <- $r5
	@DEBUG_VALUE: HAL_DMA_Abort:hdma <- $r4
	.loc	2 0 6                           @ libraries/STM32H7xx_HAL/STM32H7xx_HAL_Driver/Src/stm32h7xx_hal_dma.c:0:6
	movw	r6, #1039
.Ltmp535:
	.loc	2 762 8 is_stmt 1               @ libraries/STM32H7xx_HAL/STM32H7xx_HAL_Driver/Src/stm32h7xx_hal_dma.c:762:8
	ldr	r0, [r4]
	movt	r6, #16386
	cmp	r0, r6
	bgt	.LBB9_8
.Ltmp536:
@ %bb.3:
	@DEBUG_VALUE: HAL_DMA_Abort:tickstart <- $r5
	@DEBUG_VALUE: HAL_DMA_Abort:hdma <- $r4
	.loc	2 0 8 is_stmt 0                 @ libraries/STM32H7xx_HAL/STM32H7xx_HAL_Driver/Src/stm32h7xx_hal_dma.c:0:8
	movs	r1, #111
	movt	r1, #16386
	.loc	2 762 8                         @ libraries/STM32H7xx_HAL/STM32H7xx_HAL_Driver/Src/stm32h7xx_hal_dma.c:762:8
	cmp	r0, r1
	bgt	.LBB9_12
.Ltmp537:
@ %bb.4:
	@DEBUG_VALUE: HAL_DMA_Abort:tickstart <- $r5
	@DEBUG_VALUE: HAL_DMA_Abort:hdma <- $r4
	.loc	2 0 8                           @ libraries/STM32H7xx_HAL/STM32H7xx_HAL_Driver/Src/stm32h7xx_hal_dma.c:0:8
	movs	r1, #63
	movt	r1, #16386
	.loc	2 762 8                         @ libraries/STM32H7xx_HAL/STM32H7xx_HAL_Driver/Src/stm32h7xx_hal_dma.c:762:8
	cmp	r0, r1
	bgt	.LBB9_18
.Ltmp538:
@ %bb.5:
	@DEBUG_VALUE: HAL_DMA_Abort:tickstart <- $r5
	@DEBUG_VALUE: HAL_DMA_Abort:hdma <- $r4
	.loc	2 0 8                           @ libraries/STM32H7xx_HAL/STM32H7xx_HAL_Driver/Src/stm32h7xx_hal_dma.c:0:8
	movs	r1, #16
	movt	r1, #16386
	.loc	2 762 8                         @ libraries/STM32H7xx_HAL/STM32H7xx_HAL_Driver/Src/stm32h7xx_hal_dma.c:762:8
	cmp	r0, r1
	beq	.LBB9_27
.Ltmp539:
@ %bb.6:
	@DEBUG_VALUE: HAL_DMA_Abort:tickstart <- $r5
	@DEBUG_VALUE: HAL_DMA_Abort:hdma <- $r4
	.loc	2 0 8                           @ libraries/STM32H7xx_HAL/STM32H7xx_HAL_Driver/Src/stm32h7xx_hal_dma.c:0:8
	movs	r1, #40
	b	.LBB9_26
.Ltmp540:
.LBB9_7:
	@DEBUG_VALUE: HAL_DMA_Abort:tickstart <- $r5
	@DEBUG_VALUE: HAL_DMA_Abort:hdma <- $r4
	movs	r0, #128
.Ltmp541:
	.loc	2 752 21 is_stmt 1              @ libraries/STM32H7xx_HAL/STM32H7xx_HAL_Driver/Src/stm32h7xx_hal_dma.c:752:21
	str	r0, [r4, #84]
	movs	r0, #0
.Ltmp542:
	.loc	2 755 5                         @ libraries/STM32H7xx_HAL/STM32H7xx_HAL_Driver/Src/stm32h7xx_hal_dma.c:755:5
	strb.w	r0, [r4, #52]
	b	.LBB9_57
.Ltmp543:
.LBB9_8:
	@DEBUG_VALUE: HAL_DMA_Abort:tickstart <- $r5
	@DEBUG_VALUE: HAL_DMA_Abort:hdma <- $r4
	.loc	2 0 5 is_stmt 0                 @ libraries/STM32H7xx_HAL/STM32H7xx_HAL_Driver/Src/stm32h7xx_hal_dma.c:0:5
	movw	r1, #1135
	movt	r1, #16386
.Ltmp544:
	.loc	2 762 8 is_stmt 1               @ libraries/STM32H7xx_HAL/STM32H7xx_HAL_Driver/Src/stm32h7xx_hal_dma.c:762:8
	cmp	r0, r1
	bgt	.LBB9_15
.Ltmp545:
@ %bb.9:
	@DEBUG_VALUE: HAL_DMA_Abort:tickstart <- $r5
	@DEBUG_VALUE: HAL_DMA_Abort:hdma <- $r4
	.loc	2 0 8 is_stmt 0                 @ libraries/STM32H7xx_HAL/STM32H7xx_HAL_Driver/Src/stm32h7xx_hal_dma.c:0:8
	movw	r1, #1087
	movt	r1, #16386
	.loc	2 762 8                         @ libraries/STM32H7xx_HAL/STM32H7xx_HAL_Driver/Src/stm32h7xx_hal_dma.c:762:8
	cmp	r0, r1
	bgt	.LBB9_20
.Ltmp546:
@ %bb.10:
	@DEBUG_VALUE: HAL_DMA_Abort:tickstart <- $r5
	@DEBUG_VALUE: HAL_DMA_Abort:hdma <- $r4
	.loc	2 0 8                           @ libraries/STM32H7xx_HAL/STM32H7xx_HAL_Driver/Src/stm32h7xx_hal_dma.c:0:8
	movw	r1, #1040
	movt	r1, #16386
	.loc	2 762 8                         @ libraries/STM32H7xx_HAL/STM32H7xx_HAL_Driver/Src/stm32h7xx_hal_dma.c:762:8
	cmp	r0, r1
	beq	.LBB9_27
.Ltmp547:
@ %bb.11:
	@DEBUG_VALUE: HAL_DMA_Abort:tickstart <- $r5
	@DEBUG_VALUE: HAL_DMA_Abort:hdma <- $r4
	.loc	2 0 8                           @ libraries/STM32H7xx_HAL/STM32H7xx_HAL_Driver/Src/stm32h7xx_hal_dma.c:0:8
	movw	r1, #1064
	b	.LBB9_26
.Ltmp548:
.LBB9_12:
	@DEBUG_VALUE: HAL_DMA_Abort:tickstart <- $r5
	@DEBUG_VALUE: HAL_DMA_Abort:hdma <- $r4
	movs	r1, #159
	movt	r1, #16386
	.loc	2 762 8                         @ libraries/STM32H7xx_HAL/STM32H7xx_HAL_Driver/Src/stm32h7xx_hal_dma.c:762:8
	cmp	r0, r1
	bgt	.LBB9_22
.Ltmp549:
@ %bb.13:
	@DEBUG_VALUE: HAL_DMA_Abort:tickstart <- $r5
	@DEBUG_VALUE: HAL_DMA_Abort:hdma <- $r4
	.loc	2 0 8                           @ libraries/STM32H7xx_HAL/STM32H7xx_HAL_Driver/Src/stm32h7xx_hal_dma.c:0:8
	movs	r1, #112
	movt	r1, #16386
	.loc	2 762 8                         @ libraries/STM32H7xx_HAL/STM32H7xx_HAL_Driver/Src/stm32h7xx_hal_dma.c:762:8
	cmp	r0, r1
	beq	.LBB9_27
.Ltmp550:
@ %bb.14:
	@DEBUG_VALUE: HAL_DMA_Abort:tickstart <- $r5
	@DEBUG_VALUE: HAL_DMA_Abort:hdma <- $r4
	.loc	2 0 8                           @ libraries/STM32H7xx_HAL/STM32H7xx_HAL_Driver/Src/stm32h7xx_hal_dma.c:0:8
	movs	r1, #136
	b	.LBB9_26
.Ltmp551:
.LBB9_15:
	@DEBUG_VALUE: HAL_DMA_Abort:tickstart <- $r5
	@DEBUG_VALUE: HAL_DMA_Abort:hdma <- $r4
	movw	r1, #1183
	movt	r1, #16386
	.loc	2 762 8                         @ libraries/STM32H7xx_HAL/STM32H7xx_HAL_Driver/Src/stm32h7xx_hal_dma.c:762:8
	cmp	r0, r1
	bgt	.LBB9_24
.Ltmp552:
@ %bb.16:
	@DEBUG_VALUE: HAL_DMA_Abort:tickstart <- $r5
	@DEBUG_VALUE: HAL_DMA_Abort:hdma <- $r4
	.loc	2 0 8                           @ libraries/STM32H7xx_HAL/STM32H7xx_HAL_Driver/Src/stm32h7xx_hal_dma.c:0:8
	movw	r1, #1136
	movt	r1, #16386
	.loc	2 762 8                         @ libraries/STM32H7xx_HAL/STM32H7xx_HAL_Driver/Src/stm32h7xx_hal_dma.c:762:8
	cmp	r0, r1
	beq	.LBB9_27
.Ltmp553:
@ %bb.17:
	@DEBUG_VALUE: HAL_DMA_Abort:tickstart <- $r5
	@DEBUG_VALUE: HAL_DMA_Abort:hdma <- $r4
	.loc	2 0 8                           @ libraries/STM32H7xx_HAL/STM32H7xx_HAL_Driver/Src/stm32h7xx_hal_dma.c:0:8
	movw	r1, #1160
	b	.LBB9_26
.Ltmp554:
.LBB9_18:
	@DEBUG_VALUE: HAL_DMA_Abort:tickstart <- $r5
	@DEBUG_VALUE: HAL_DMA_Abort:hdma <- $r4
	movs	r1, #64
	movt	r1, #16386
	.loc	2 762 8                         @ libraries/STM32H7xx_HAL/STM32H7xx_HAL_Driver/Src/stm32h7xx_hal_dma.c:762:8
	cmp	r0, r1
	beq	.LBB9_27
.Ltmp555:
@ %bb.19:
	@DEBUG_VALUE: HAL_DMA_Abort:tickstart <- $r5
	@DEBUG_VALUE: HAL_DMA_Abort:hdma <- $r4
	.loc	2 0 8                           @ libraries/STM32H7xx_HAL/STM32H7xx_HAL_Driver/Src/stm32h7xx_hal_dma.c:0:8
	movs	r1, #88
	b	.LBB9_26
.Ltmp556:
.LBB9_20:
	@DEBUG_VALUE: HAL_DMA_Abort:tickstart <- $r5
	@DEBUG_VALUE: HAL_DMA_Abort:hdma <- $r4
	movw	r1, #1088
	movt	r1, #16386
	.loc	2 762 8                         @ libraries/STM32H7xx_HAL/STM32H7xx_HAL_Driver/Src/stm32h7xx_hal_dma.c:762:8
	cmp	r0, r1
	beq	.LBB9_27
.Ltmp557:
@ %bb.21:
	@DEBUG_VALUE: HAL_DMA_Abort:tickstart <- $r5
	@DEBUG_VALUE: HAL_DMA_Abort:hdma <- $r4
	.loc	2 0 8                           @ libraries/STM32H7xx_HAL/STM32H7xx_HAL_Driver/Src/stm32h7xx_hal_dma.c:0:8
	movw	r1, #1112
	b	.LBB9_26
.Ltmp558:
.LBB9_22:
	@DEBUG_VALUE: HAL_DMA_Abort:tickstart <- $r5
	@DEBUG_VALUE: HAL_DMA_Abort:hdma <- $r4
	movs	r1, #160
	movt	r1, #16386
	.loc	2 762 8                         @ libraries/STM32H7xx_HAL/STM32H7xx_HAL_Driver/Src/stm32h7xx_hal_dma.c:762:8
	cmp	r0, r1
	beq	.LBB9_27
.Ltmp559:
@ %bb.23:
	@DEBUG_VALUE: HAL_DMA_Abort:tickstart <- $r5
	@DEBUG_VALUE: HAL_DMA_Abort:hdma <- $r4
	.loc	2 0 8                           @ libraries/STM32H7xx_HAL/STM32H7xx_HAL_Driver/Src/stm32h7xx_hal_dma.c:0:8
	movs	r1, #184
	b	.LBB9_26
.Ltmp560:
.LBB9_24:
	@DEBUG_VALUE: HAL_DMA_Abort:tickstart <- $r5
	@DEBUG_VALUE: HAL_DMA_Abort:hdma <- $r4
	movw	r1, #1208
	movt	r1, #16386
	.loc	2 762 8                         @ libraries/STM32H7xx_HAL/STM32H7xx_HAL_Driver/Src/stm32h7xx_hal_dma.c:762:8
	cmp	r0, r1
	beq	.LBB9_27
.Ltmp561:
@ %bb.25:
	@DEBUG_VALUE: HAL_DMA_Abort:tickstart <- $r5
	@DEBUG_VALUE: HAL_DMA_Abort:hdma <- $r4
	.loc	2 0 8                           @ libraries/STM32H7xx_HAL/STM32H7xx_HAL_Driver/Src/stm32h7xx_hal_dma.c:0:8
	movw	r1, #1184
.Ltmp562:
.LBB9_26:
	@DEBUG_VALUE: HAL_DMA_Abort:tickstart <- $r5
	@DEBUG_VALUE: HAL_DMA_Abort:hdma <- $r4
	movt	r1, #16386
	.loc	2 762 8                         @ libraries/STM32H7xx_HAL/STM32H7xx_HAL_Driver/Src/stm32h7xx_hal_dma.c:762:8
	cmp	r0, r1
	bne.w	.LBB9_86
.Ltmp563:
.LBB9_27:
	@DEBUG_VALUE: HAL_DMA_Abort:tickstart <- $r5
	@DEBUG_VALUE: HAL_DMA_Abort:hdma <- $r4
	.loc	2 765 38 is_stmt 1              @ libraries/STM32H7xx_HAL/STM32H7xx_HAL_Driver/Src/stm32h7xx_hal_dma.c:765:38
	ldr	r7, [r4]
	.loc	2 765 53 is_stmt 0              @ libraries/STM32H7xx_HAL/STM32H7xx_HAL_Driver/Src/stm32h7xx_hal_dma.c:765:53
	ldr	r1, [r7]
	bic	r2, r1, #30
	mov	r1, r7
	str	r2, [r1], #20
	mvn	r2, #128
.Ltmp564:
	@DEBUG_VALUE: HAL_DMA_Abort:enableRegister <- $r7
.LBB9_28:
	@DEBUG_VALUE: HAL_DMA_Abort:tickstart <- $r5
	@DEBUG_VALUE: HAL_DMA_Abort:hdma <- $r4
	.loc	2 0 0                           @ libraries/STM32H7xx_HAL/STM32H7xx_HAL_Driver/Src/stm32h7xx_hal_dma.c:0:0
	ldr	r3, [r1]
.Ltmp565:
	.loc	2 782 5 is_stmt 1               @ libraries/STM32H7xx_HAL/STM32H7xx_HAL_Driver/Src/stm32h7xx_hal_dma.c:782:5
	cmp	r0, r6
.Ltmp566:
	.loc	2 0 0 is_stmt 0                 @ libraries/STM32H7xx_HAL/STM32H7xx_HAL_Driver/Src/stm32h7xx_hal_dma.c:0:0
	and.w	r2, r2, r3
	str	r2, [r1]
.Ltmp567:
	@DEBUG_VALUE: HAL_DMA_Abort:enableRegister <- $r7
	.loc	2 779 11 is_stmt 1              @ libraries/STM32H7xx_HAL/STM32H7xx_HAL_Driver/Src/stm32h7xx_hal_dma.c:779:11
	ldr	r1, [r4, #96]
	.loc	2 779 30 is_stmt 0              @ libraries/STM32H7xx_HAL/STM32H7xx_HAL_Driver/Src/stm32h7xx_hal_dma.c:779:30
	ldr	r2, [r1]
	bic	r2, r2, #256
	str	r2, [r1]
	.loc	2 782 5 is_stmt 1               @ libraries/STM32H7xx_HAL/STM32H7xx_HAL_Driver/Src/stm32h7xx_hal_dma.c:782:5
	bgt	.LBB9_33
.Ltmp568:
@ %bb.29:
	@DEBUG_VALUE: HAL_DMA_Abort:enableRegister <- $r7
	@DEBUG_VALUE: HAL_DMA_Abort:tickstart <- $r5
	@DEBUG_VALUE: HAL_DMA_Abort:hdma <- $r4
	.loc	2 0 5 is_stmt 0                 @ libraries/STM32H7xx_HAL/STM32H7xx_HAL_Driver/Src/stm32h7xx_hal_dma.c:0:5
	movs	r1, #111
	movt	r1, #16386
	.loc	2 782 5                         @ libraries/STM32H7xx_HAL/STM32H7xx_HAL_Driver/Src/stm32h7xx_hal_dma.c:782:5
	cmp	r0, r1
	bgt	.LBB9_37
.Ltmp569:
@ %bb.30:
	@DEBUG_VALUE: HAL_DMA_Abort:enableRegister <- $r7
	@DEBUG_VALUE: HAL_DMA_Abort:tickstart <- $r5
	@DEBUG_VALUE: HAL_DMA_Abort:hdma <- $r4
	.loc	2 0 5                           @ libraries/STM32H7xx_HAL/STM32H7xx_HAL_Driver/Src/stm32h7xx_hal_dma.c:0:5
	movs	r1, #63
	movt	r1, #16386
	.loc	2 782 5                         @ libraries/STM32H7xx_HAL/STM32H7xx_HAL_Driver/Src/stm32h7xx_hal_dma.c:782:5
	cmp	r0, r1
	bgt	.LBB9_43
.Ltmp570:
@ %bb.31:
	@DEBUG_VALUE: HAL_DMA_Abort:enableRegister <- $r7
	@DEBUG_VALUE: HAL_DMA_Abort:tickstart <- $r5
	@DEBUG_VALUE: HAL_DMA_Abort:hdma <- $r4
	.loc	2 0 5                           @ libraries/STM32H7xx_HAL/STM32H7xx_HAL_Driver/Src/stm32h7xx_hal_dma.c:0:5
	movs	r1, #16
	movt	r1, #16386
	.loc	2 782 5                         @ libraries/STM32H7xx_HAL/STM32H7xx_HAL_Driver/Src/stm32h7xx_hal_dma.c:782:5
	cmp	r0, r1
	beq	.LBB9_52
.Ltmp571:
@ %bb.32:
	@DEBUG_VALUE: HAL_DMA_Abort:enableRegister <- $r7
	@DEBUG_VALUE: HAL_DMA_Abort:tickstart <- $r5
	@DEBUG_VALUE: HAL_DMA_Abort:hdma <- $r4
	.loc	2 0 5                           @ libraries/STM32H7xx_HAL/STM32H7xx_HAL_Driver/Src/stm32h7xx_hal_dma.c:0:5
	movs	r1, #40
	b	.LBB9_51
.Ltmp572:
.LBB9_33:
	@DEBUG_VALUE: HAL_DMA_Abort:enableRegister <- $r7
	@DEBUG_VALUE: HAL_DMA_Abort:tickstart <- $r5
	@DEBUG_VALUE: HAL_DMA_Abort:hdma <- $r4
	movw	r1, #1135
	movt	r1, #16386
	.loc	2 782 5                         @ libraries/STM32H7xx_HAL/STM32H7xx_HAL_Driver/Src/stm32h7xx_hal_dma.c:782:5
	cmp	r0, r1
	bgt	.LBB9_40
.Ltmp573:
@ %bb.34:
	@DEBUG_VALUE: HAL_DMA_Abort:enableRegister <- $r7
	@DEBUG_VALUE: HAL_DMA_Abort:tickstart <- $r5
	@DEBUG_VALUE: HAL_DMA_Abort:hdma <- $r4
	.loc	2 0 5                           @ libraries/STM32H7xx_HAL/STM32H7xx_HAL_Driver/Src/stm32h7xx_hal_dma.c:0:5
	movw	r1, #1087
	movt	r1, #16386
	.loc	2 782 5                         @ libraries/STM32H7xx_HAL/STM32H7xx_HAL_Driver/Src/stm32h7xx_hal_dma.c:782:5
	cmp	r0, r1
	bgt	.LBB9_45
.Ltmp574:
@ %bb.35:
	@DEBUG_VALUE: HAL_DMA_Abort:enableRegister <- $r7
	@DEBUG_VALUE: HAL_DMA_Abort:tickstart <- $r5
	@DEBUG_VALUE: HAL_DMA_Abort:hdma <- $r4
	.loc	2 0 5                           @ libraries/STM32H7xx_HAL/STM32H7xx_HAL_Driver/Src/stm32h7xx_hal_dma.c:0:5
	movw	r1, #1040
	movt	r1, #16386
	.loc	2 782 5                         @ libraries/STM32H7xx_HAL/STM32H7xx_HAL_Driver/Src/stm32h7xx_hal_dma.c:782:5
	cmp	r0, r1
	beq	.LBB9_52
.Ltmp575:
@ %bb.36:
	@DEBUG_VALUE: HAL_DMA_Abort:enableRegister <- $r7
	@DEBUG_VALUE: HAL_DMA_Abort:tickstart <- $r5
	@DEBUG_VALUE: HAL_DMA_Abort:hdma <- $r4
	.loc	2 0 5                           @ libraries/STM32H7xx_HAL/STM32H7xx_HAL_Driver/Src/stm32h7xx_hal_dma.c:0:5
	movw	r1, #1064
	b	.LBB9_51
.Ltmp576:
.LBB9_37:
	@DEBUG_VALUE: HAL_DMA_Abort:enableRegister <- $r7
	@DEBUG_VALUE: HAL_DMA_Abort:tickstart <- $r5
	@DEBUG_VALUE: HAL_DMA_Abort:hdma <- $r4
	movs	r1, #159
	movt	r1, #16386
	.loc	2 782 5                         @ libraries/STM32H7xx_HAL/STM32H7xx_HAL_Driver/Src/stm32h7xx_hal_dma.c:782:5
	cmp	r0, r1
	bgt	.LBB9_47
.Ltmp577:
@ %bb.38:
	@DEBUG_VALUE: HAL_DMA_Abort:enableRegister <- $r7
	@DEBUG_VALUE: HAL_DMA_Abort:tickstart <- $r5
	@DEBUG_VALUE: HAL_DMA_Abort:hdma <- $r4
	.loc	2 0 5                           @ libraries/STM32H7xx_HAL/STM32H7xx_HAL_Driver/Src/stm32h7xx_hal_dma.c:0:5
	movs	r1, #112
	movt	r1, #16386
	.loc	2 782 5                         @ libraries/STM32H7xx_HAL/STM32H7xx_HAL_Driver/Src/stm32h7xx_hal_dma.c:782:5
	cmp	r0, r1
	beq	.LBB9_52
.Ltmp578:
@ %bb.39:
	@DEBUG_VALUE: HAL_DMA_Abort:enableRegister <- $r7
	@DEBUG_VALUE: HAL_DMA_Abort:tickstart <- $r5
	@DEBUG_VALUE: HAL_DMA_Abort:hdma <- $r4
	.loc	2 0 5                           @ libraries/STM32H7xx_HAL/STM32H7xx_HAL_Driver/Src/stm32h7xx_hal_dma.c:0:5
	movs	r1, #136
	b	.LBB9_51
.Ltmp579:
.LBB9_40:
	@DEBUG_VALUE: HAL_DMA_Abort:enableRegister <- $r7
	@DEBUG_VALUE: HAL_DMA_Abort:tickstart <- $r5
	@DEBUG_VALUE: HAL_DMA_Abort:hdma <- $r4
	movw	r1, #1183
	movt	r1, #16386
	.loc	2 782 5                         @ libraries/STM32H7xx_HAL/STM32H7xx_HAL_Driver/Src/stm32h7xx_hal_dma.c:782:5
	cmp	r0, r1
	bgt	.LBB9_49
.Ltmp580:
@ %bb.41:
	@DEBUG_VALUE: HAL_DMA_Abort:enableRegister <- $r7
	@DEBUG_VALUE: HAL_DMA_Abort:tickstart <- $r5
	@DEBUG_VALUE: HAL_DMA_Abort:hdma <- $r4
	.loc	2 0 5                           @ libraries/STM32H7xx_HAL/STM32H7xx_HAL_Driver/Src/stm32h7xx_hal_dma.c:0:5
	movw	r1, #1136
	movt	r1, #16386
	.loc	2 782 5                         @ libraries/STM32H7xx_HAL/STM32H7xx_HAL_Driver/Src/stm32h7xx_hal_dma.c:782:5
	cmp	r0, r1
	beq	.LBB9_52
.Ltmp581:
@ %bb.42:
	@DEBUG_VALUE: HAL_DMA_Abort:enableRegister <- $r7
	@DEBUG_VALUE: HAL_DMA_Abort:tickstart <- $r5
	@DEBUG_VALUE: HAL_DMA_Abort:hdma <- $r4
	.loc	2 0 5                           @ libraries/STM32H7xx_HAL/STM32H7xx_HAL_Driver/Src/stm32h7xx_hal_dma.c:0:5
	movw	r1, #1160
	b	.LBB9_51
.Ltmp582:
.LBB9_43:
	@DEBUG_VALUE: HAL_DMA_Abort:enableRegister <- $r7
	@DEBUG_VALUE: HAL_DMA_Abort:tickstart <- $r5
	@DEBUG_VALUE: HAL_DMA_Abort:hdma <- $r4
	movs	r1, #64
	movt	r1, #16386
	.loc	2 782 5                         @ libraries/STM32H7xx_HAL/STM32H7xx_HAL_Driver/Src/stm32h7xx_hal_dma.c:782:5
	cmp	r0, r1
	beq	.LBB9_52
.Ltmp583:
@ %bb.44:
	@DEBUG_VALUE: HAL_DMA_Abort:enableRegister <- $r7
	@DEBUG_VALUE: HAL_DMA_Abort:tickstart <- $r5
	@DEBUG_VALUE: HAL_DMA_Abort:hdma <- $r4
	.loc	2 0 5                           @ libraries/STM32H7xx_HAL/STM32H7xx_HAL_Driver/Src/stm32h7xx_hal_dma.c:0:5
	movs	r1, #88
	b	.LBB9_51
.Ltmp584:
.LBB9_45:
	@DEBUG_VALUE: HAL_DMA_Abort:enableRegister <- $r7
	@DEBUG_VALUE: HAL_DMA_Abort:tickstart <- $r5
	@DEBUG_VALUE: HAL_DMA_Abort:hdma <- $r4
	movw	r1, #1088
	movt	r1, #16386
	.loc	2 782 5                         @ libraries/STM32H7xx_HAL/STM32H7xx_HAL_Driver/Src/stm32h7xx_hal_dma.c:782:5
	cmp	r0, r1
	beq	.LBB9_52
.Ltmp585:
@ %bb.46:
	@DEBUG_VALUE: HAL_DMA_Abort:enableRegister <- $r7
	@DEBUG_VALUE: HAL_DMA_Abort:tickstart <- $r5
	@DEBUG_VALUE: HAL_DMA_Abort:hdma <- $r4
	.loc	2 0 5                           @ libraries/STM32H7xx_HAL/STM32H7xx_HAL_Driver/Src/stm32h7xx_hal_dma.c:0:5
	movw	r1, #1112
	b	.LBB9_51
.Ltmp586:
.LBB9_47:
	@DEBUG_VALUE: HAL_DMA_Abort:enableRegister <- $r7
	@DEBUG_VALUE: HAL_DMA_Abort:tickstart <- $r5
	@DEBUG_VALUE: HAL_DMA_Abort:hdma <- $r4
	movs	r1, #160
	movt	r1, #16386
	.loc	2 782 5                         @ libraries/STM32H7xx_HAL/STM32H7xx_HAL_Driver/Src/stm32h7xx_hal_dma.c:782:5
	cmp	r0, r1
	beq	.LBB9_52
.Ltmp587:
@ %bb.48:
	@DEBUG_VALUE: HAL_DMA_Abort:enableRegister <- $r7
	@DEBUG_VALUE: HAL_DMA_Abort:tickstart <- $r5
	@DEBUG_VALUE: HAL_DMA_Abort:hdma <- $r4
	.loc	2 0 5                           @ libraries/STM32H7xx_HAL/STM32H7xx_HAL_Driver/Src/stm32h7xx_hal_dma.c:0:5
	movs	r1, #184
	b	.LBB9_51
.Ltmp588:
.LBB9_49:
	@DEBUG_VALUE: HAL_DMA_Abort:enableRegister <- $r7
	@DEBUG_VALUE: HAL_DMA_Abort:tickstart <- $r5
	@DEBUG_VALUE: HAL_DMA_Abort:hdma <- $r4
	movw	r1, #1208
	movt	r1, #16386
	.loc	2 782 5                         @ libraries/STM32H7xx_HAL/STM32H7xx_HAL_Driver/Src/stm32h7xx_hal_dma.c:782:5
	cmp	r0, r1
	beq	.LBB9_52
.Ltmp589:
@ %bb.50:
	@DEBUG_VALUE: HAL_DMA_Abort:enableRegister <- $r7
	@DEBUG_VALUE: HAL_DMA_Abort:tickstart <- $r5
	@DEBUG_VALUE: HAL_DMA_Abort:hdma <- $r4
	.loc	2 0 5                           @ libraries/STM32H7xx_HAL/STM32H7xx_HAL_Driver/Src/stm32h7xx_hal_dma.c:0:5
	movw	r1, #1184
.Ltmp590:
.LBB9_51:
	@DEBUG_VALUE: HAL_DMA_Abort:enableRegister <- $r7
	@DEBUG_VALUE: HAL_DMA_Abort:tickstart <- $r5
	@DEBUG_VALUE: HAL_DMA_Abort:hdma <- $r4
	movt	r1, #16386
	.loc	2 782 5                         @ libraries/STM32H7xx_HAL/STM32H7xx_HAL_Driver/Src/stm32h7xx_hal_dma.c:782:5
	cmp	r0, r1
	it	eq
	ldreq	r0, [r4]
	b	.LBB9_53
.Ltmp591:
.LBB9_52:
	@DEBUG_VALUE: HAL_DMA_Abort:enableRegister <- $r7
	@DEBUG_VALUE: HAL_DMA_Abort:tickstart <- $r5
	@DEBUG_VALUE: HAL_DMA_Abort:hdma <- $r4
	ldr	r0, [r4]
.Ltmp592:
.LBB9_53:
	@DEBUG_VALUE: HAL_DMA_Abort:enableRegister <- $r7
	@DEBUG_VALUE: HAL_DMA_Abort:tickstart <- $r5
	@DEBUG_VALUE: HAL_DMA_Abort:hdma <- $r4
	ldr	r1, [r0]
	bic	r1, r1, #1
	str	r1, [r0]
.Ltmp593:
	.p2align	2
.LBB9_54:                               @ =>This Inner Loop Header: Depth=1
	@DEBUG_VALUE: HAL_DMA_Abort:enableRegister <- $r7
	@DEBUG_VALUE: HAL_DMA_Abort:tickstart <- $r5
	@DEBUG_VALUE: HAL_DMA_Abort:hdma <- $r4
	.loc	2 785 13 is_stmt 1              @ libraries/STM32H7xx_HAL/STM32H7xx_HAL_Driver/Src/stm32h7xx_hal_dma.c:785:13
	ldr	r0, [r7]
	.loc	2 785 5 is_stmt 0               @ libraries/STM32H7xx_HAL/STM32H7xx_HAL_Driver/Src/stm32h7xx_hal_dma.c:785:5
	lsls	r0, r0, #31
	beq	.LBB9_58
.Ltmp594:
@ %bb.55:                               @   in Loop: Header=BB9_54 Depth=1
	@DEBUG_VALUE: HAL_DMA_Abort:enableRegister <- $r7
	@DEBUG_VALUE: HAL_DMA_Abort:tickstart <- $r5
	@DEBUG_VALUE: HAL_DMA_Abort:hdma <- $r4
	.loc	2 788 11 is_stmt 1              @ libraries/STM32H7xx_HAL/STM32H7xx_HAL_Driver/Src/stm32h7xx_hal_dma.c:788:11
	bl	HAL_GetTick
	.loc	2 788 25 is_stmt 0              @ libraries/STM32H7xx_HAL/STM32H7xx_HAL_Driver/Src/stm32h7xx_hal_dma.c:788:25
	subs	r0, r0, r5
.Ltmp595:
	.loc	2 788 10                        @ libraries/STM32H7xx_HAL/STM32H7xx_HAL_Driver/Src/stm32h7xx_hal_dma.c:788:10
	cmp	r0, #6
	blo	.LBB9_54
.Ltmp596:
@ %bb.56:
	@DEBUG_VALUE: HAL_DMA_Abort:enableRegister <- $r7
	@DEBUG_VALUE: HAL_DMA_Abort:tickstart <- $r5
	@DEBUG_VALUE: HAL_DMA_Abort:hdma <- $r4
	.loc	2 0 10                          @ libraries/STM32H7xx_HAL/STM32H7xx_HAL_Driver/Src/stm32h7xx_hal_dma.c:0:10
	movs	r0, #32
.Ltmp597:
	.loc	2 791 25 is_stmt 1              @ libraries/STM32H7xx_HAL/STM32H7xx_HAL_Driver/Src/stm32h7xx_hal_dma.c:791:25
	str	r0, [r4, #84]
	movs	r0, #0
.Ltmp598:
	.loc	2 794 9                         @ libraries/STM32H7xx_HAL/STM32H7xx_HAL_Driver/Src/stm32h7xx_hal_dma.c:794:9
	strb.w	r0, [r4, #52]
	movs	r0, #3
.Ltmp599:
	.loc	2 797 21                        @ libraries/STM32H7xx_HAL/STM32H7xx_HAL_Driver/Src/stm32h7xx_hal_dma.c:797:21
	strb.w	r0, [r4, #53]
.Ltmp600:
.LBB9_57:
	@DEBUG_VALUE: HAL_DMA_Abort:hdma <- $r4
	.loc	2 0 21 is_stmt 0                @ libraries/STM32H7xx_HAL/STM32H7xx_HAL_Driver/Src/stm32h7xx_hal_dma.c:0:21
	movs	r0, #1
	.loc	2 836 1 is_stmt 1               @ libraries/STM32H7xx_HAL/STM32H7xx_HAL_Driver/Src/stm32h7xx_hal_dma.c:836:1
	add	sp, #4
	pop	{r4, r5, r6, r7, pc}
.Ltmp601:
.LBB9_58:
	@DEBUG_VALUE: HAL_DMA_Abort:enableRegister <- $r7
	@DEBUG_VALUE: HAL_DMA_Abort:tickstart <- $r5
	@DEBUG_VALUE: HAL_DMA_Abort:hdma <- $r4
	.loc	2 804 8                         @ libraries/STM32H7xx_HAL/STM32H7xx_HAL_Driver/Src/stm32h7xx_hal_dma.c:804:8
	ldr	r0, [r4]
	cmp	r0, r6
	bgt	.LBB9_63
.Ltmp602:
@ %bb.59:
	@DEBUG_VALUE: HAL_DMA_Abort:enableRegister <- $r7
	@DEBUG_VALUE: HAL_DMA_Abort:tickstart <- $r5
	@DEBUG_VALUE: HAL_DMA_Abort:hdma <- $r4
	.loc	2 0 8 is_stmt 0                 @ libraries/STM32H7xx_HAL/STM32H7xx_HAL_Driver/Src/stm32h7xx_hal_dma.c:0:8
	movs	r1, #111
	movt	r1, #16386
	.loc	2 804 8                         @ libraries/STM32H7xx_HAL/STM32H7xx_HAL_Driver/Src/stm32h7xx_hal_dma.c:804:8
	cmp	r0, r1
	bgt	.LBB9_67
.Ltmp603:
@ %bb.60:
	@DEBUG_VALUE: HAL_DMA_Abort:enableRegister <- $r7
	@DEBUG_VALUE: HAL_DMA_Abort:tickstart <- $r5
	@DEBUG_VALUE: HAL_DMA_Abort:hdma <- $r4
	.loc	2 0 8                           @ libraries/STM32H7xx_HAL/STM32H7xx_HAL_Driver/Src/stm32h7xx_hal_dma.c:0:8
	movs	r1, #63
	movt	r1, #16386
	.loc	2 804 8                         @ libraries/STM32H7xx_HAL/STM32H7xx_HAL_Driver/Src/stm32h7xx_hal_dma.c:804:8
	cmp	r0, r1
	bgt	.LBB9_73
.Ltmp604:
@ %bb.61:
	@DEBUG_VALUE: HAL_DMA_Abort:enableRegister <- $r7
	@DEBUG_VALUE: HAL_DMA_Abort:tickstart <- $r5
	@DEBUG_VALUE: HAL_DMA_Abort:hdma <- $r4
	.loc	2 0 8                           @ libraries/STM32H7xx_HAL/STM32H7xx_HAL_Driver/Src/stm32h7xx_hal_dma.c:0:8
	movs	r1, #16
	movt	r1, #16386
	.loc	2 804 8                         @ libraries/STM32H7xx_HAL/STM32H7xx_HAL_Driver/Src/stm32h7xx_hal_dma.c:804:8
	cmp	r0, r1
	beq	.LBB9_82
.Ltmp605:
@ %bb.62:
	@DEBUG_VALUE: HAL_DMA_Abort:enableRegister <- $r7
	@DEBUG_VALUE: HAL_DMA_Abort:tickstart <- $r5
	@DEBUG_VALUE: HAL_DMA_Abort:hdma <- $r4
	.loc	2 0 8                           @ libraries/STM32H7xx_HAL/STM32H7xx_HAL_Driver/Src/stm32h7xx_hal_dma.c:0:8
	movs	r1, #40
	b	.LBB9_81
.Ltmp606:
.LBB9_63:
	@DEBUG_VALUE: HAL_DMA_Abort:enableRegister <- $r7
	@DEBUG_VALUE: HAL_DMA_Abort:tickstart <- $r5
	@DEBUG_VALUE: HAL_DMA_Abort:hdma <- $r4
	movw	r1, #1135
	movt	r1, #16386
	.loc	2 804 8                         @ libraries/STM32H7xx_HAL/STM32H7xx_HAL_Driver/Src/stm32h7xx_hal_dma.c:804:8
	cmp	r0, r1
	bgt	.LBB9_70
.Ltmp607:
@ %bb.64:
	@DEBUG_VALUE: HAL_DMA_Abort:enableRegister <- $r7
	@DEBUG_VALUE: HAL_DMA_Abort:tickstart <- $r5
	@DEBUG_VALUE: HAL_DMA_Abort:hdma <- $r4
	.loc	2 0 8                           @ libraries/STM32H7xx_HAL/STM32H7xx_HAL_Driver/Src/stm32h7xx_hal_dma.c:0:8
	movw	r1, #1087
	movt	r1, #16386
	.loc	2 804 8                         @ libraries/STM32H7xx_HAL/STM32H7xx_HAL_Driver/Src/stm32h7xx_hal_dma.c:804:8
	cmp	r0, r1
	bgt	.LBB9_75
.Ltmp608:
@ %bb.65:
	@DEBUG_VALUE: HAL_DMA_Abort:enableRegister <- $r7
	@DEBUG_VALUE: HAL_DMA_Abort:tickstart <- $r5
	@DEBUG_VALUE: HAL_DMA_Abort:hdma <- $r4
	.loc	2 0 8                           @ libraries/STM32H7xx_HAL/STM32H7xx_HAL_Driver/Src/stm32h7xx_hal_dma.c:0:8
	movw	r1, #1040
	movt	r1, #16386
	.loc	2 804 8                         @ libraries/STM32H7xx_HAL/STM32H7xx_HAL_Driver/Src/stm32h7xx_hal_dma.c:804:8
	cmp	r0, r1
	beq	.LBB9_82
.Ltmp609:
@ %bb.66:
	@DEBUG_VALUE: HAL_DMA_Abort:enableRegister <- $r7
	@DEBUG_VALUE: HAL_DMA_Abort:tickstart <- $r5
	@DEBUG_VALUE: HAL_DMA_Abort:hdma <- $r4
	.loc	2 0 8                           @ libraries/STM32H7xx_HAL/STM32H7xx_HAL_Driver/Src/stm32h7xx_hal_dma.c:0:8
	movw	r1, #1064
	b	.LBB9_81
.Ltmp610:
.LBB9_67:
	@DEBUG_VALUE: HAL_DMA_Abort:enableRegister <- $r7
	@DEBUG_VALUE: HAL_DMA_Abort:tickstart <- $r5
	@DEBUG_VALUE: HAL_DMA_Abort:hdma <- $r4
	movs	r1, #159
	movt	r1, #16386
	.loc	2 804 8                         @ libraries/STM32H7xx_HAL/STM32H7xx_HAL_Driver/Src/stm32h7xx_hal_dma.c:804:8
	cmp	r0, r1
	bgt	.LBB9_77
.Ltmp611:
@ %bb.68:
	@DEBUG_VALUE: HAL_DMA_Abort:enableRegister <- $r7
	@DEBUG_VALUE: HAL_DMA_Abort:tickstart <- $r5
	@DEBUG_VALUE: HAL_DMA_Abort:hdma <- $r4
	.loc	2 0 8                           @ libraries/STM32H7xx_HAL/STM32H7xx_HAL_Driver/Src/stm32h7xx_hal_dma.c:0:8
	movs	r1, #112
	movt	r1, #16386
	.loc	2 804 8                         @ libraries/STM32H7xx_HAL/STM32H7xx_HAL_Driver/Src/stm32h7xx_hal_dma.c:804:8
	cmp	r0, r1
	beq	.LBB9_82
.Ltmp612:
@ %bb.69:
	@DEBUG_VALUE: HAL_DMA_Abort:enableRegister <- $r7
	@DEBUG_VALUE: HAL_DMA_Abort:tickstart <- $r5
	@DEBUG_VALUE: HAL_DMA_Abort:hdma <- $r4
	.loc	2 0 8                           @ libraries/STM32H7xx_HAL/STM32H7xx_HAL_Driver/Src/stm32h7xx_hal_dma.c:0:8
	movs	r1, #136
	b	.LBB9_81
.Ltmp613:
.LBB9_70:
	@DEBUG_VALUE: HAL_DMA_Abort:enableRegister <- $r7
	@DEBUG_VALUE: HAL_DMA_Abort:tickstart <- $r5
	@DEBUG_VALUE: HAL_DMA_Abort:hdma <- $r4
	movw	r1, #1183
	movt	r1, #16386
	.loc	2 804 8                         @ libraries/STM32H7xx_HAL/STM32H7xx_HAL_Driver/Src/stm32h7xx_hal_dma.c:804:8
	cmp	r0, r1
	bgt	.LBB9_79
.Ltmp614:
@ %bb.71:
	@DEBUG_VALUE: HAL_DMA_Abort:enableRegister <- $r7
	@DEBUG_VALUE: HAL_DMA_Abort:tickstart <- $r5
	@DEBUG_VALUE: HAL_DMA_Abort:hdma <- $r4
	.loc	2 0 8                           @ libraries/STM32H7xx_HAL/STM32H7xx_HAL_Driver/Src/stm32h7xx_hal_dma.c:0:8
	movw	r1, #1136
	movt	r1, #16386
	.loc	2 804 8                         @ libraries/STM32H7xx_HAL/STM32H7xx_HAL_Driver/Src/stm32h7xx_hal_dma.c:804:8
	cmp	r0, r1
	beq	.LBB9_82
.Ltmp615:
@ %bb.72:
	@DEBUG_VALUE: HAL_DMA_Abort:enableRegister <- $r7
	@DEBUG_VALUE: HAL_DMA_Abort:tickstart <- $r5
	@DEBUG_VALUE: HAL_DMA_Abort:hdma <- $r4
	.loc	2 0 8                           @ libraries/STM32H7xx_HAL/STM32H7xx_HAL_Driver/Src/stm32h7xx_hal_dma.c:0:8
	movw	r1, #1160
	b	.LBB9_81
.Ltmp616:
.LBB9_73:
	@DEBUG_VALUE: HAL_DMA_Abort:enableRegister <- $r7
	@DEBUG_VALUE: HAL_DMA_Abort:tickstart <- $r5
	@DEBUG_VALUE: HAL_DMA_Abort:hdma <- $r4
	movs	r1, #64
	movt	r1, #16386
	.loc	2 804 8                         @ libraries/STM32H7xx_HAL/STM32H7xx_HAL_Driver/Src/stm32h7xx_hal_dma.c:804:8
	cmp	r0, r1
	beq	.LBB9_82
.Ltmp617:
@ %bb.74:
	@DEBUG_VALUE: HAL_DMA_Abort:enableRegister <- $r7
	@DEBUG_VALUE: HAL_DMA_Abort:tickstart <- $r5
	@DEBUG_VALUE: HAL_DMA_Abort:hdma <- $r4
	.loc	2 0 8                           @ libraries/STM32H7xx_HAL/STM32H7xx_HAL_Driver/Src/stm32h7xx_hal_dma.c:0:8
	movs	r1, #88
	b	.LBB9_81
.Ltmp618:
.LBB9_75:
	@DEBUG_VALUE: HAL_DMA_Abort:enableRegister <- $r7
	@DEBUG_VALUE: HAL_DMA_Abort:tickstart <- $r5
	@DEBUG_VALUE: HAL_DMA_Abort:hdma <- $r4
	movw	r1, #1088
	movt	r1, #16386
	.loc	2 804 8                         @ libraries/STM32H7xx_HAL/STM32H7xx_HAL_Driver/Src/stm32h7xx_hal_dma.c:804:8
	cmp	r0, r1
	beq	.LBB9_82
.Ltmp619:
@ %bb.76:
	@DEBUG_VALUE: HAL_DMA_Abort:enableRegister <- $r7
	@DEBUG_VALUE: HAL_DMA_Abort:tickstart <- $r5
	@DEBUG_VALUE: HAL_DMA_Abort:hdma <- $r4
	.loc	2 0 8                           @ libraries/STM32H7xx_HAL/STM32H7xx_HAL_Driver/Src/stm32h7xx_hal_dma.c:0:8
	movw	r1, #1112
	b	.LBB9_81
.Ltmp620:
.LBB9_77:
	@DEBUG_VALUE: HAL_DMA_Abort:enableRegister <- $r7
	@DEBUG_VALUE: HAL_DMA_Abort:tickstart <- $r5
	@DEBUG_VALUE: HAL_DMA_Abort:hdma <- $r4
	movs	r1, #160
	movt	r1, #16386
	.loc	2 804 8                         @ libraries/STM32H7xx_HAL/STM32H7xx_HAL_Driver/Src/stm32h7xx_hal_dma.c:804:8
	cmp	r0, r1
	beq	.LBB9_82
.Ltmp621:
@ %bb.78:
	@DEBUG_VALUE: HAL_DMA_Abort:enableRegister <- $r7
	@DEBUG_VALUE: HAL_DMA_Abort:tickstart <- $r5
	@DEBUG_VALUE: HAL_DMA_Abort:hdma <- $r4
	.loc	2 0 8                           @ libraries/STM32H7xx_HAL/STM32H7xx_HAL_Driver/Src/stm32h7xx_hal_dma.c:0:8
	movs	r1, #184
	b	.LBB9_81
.Ltmp622:
.LBB9_79:
	@DEBUG_VALUE: HAL_DMA_Abort:enableRegister <- $r7
	@DEBUG_VALUE: HAL_DMA_Abort:tickstart <- $r5
	@DEBUG_VALUE: HAL_DMA_Abort:hdma <- $r4
	movw	r1, #1208
	movt	r1, #16386
	.loc	2 804 8                         @ libraries/STM32H7xx_HAL/STM32H7xx_HAL_Driver/Src/stm32h7xx_hal_dma.c:804:8
	cmp	r0, r1
	beq	.LBB9_82
.Ltmp623:
@ %bb.80:
	@DEBUG_VALUE: HAL_DMA_Abort:enableRegister <- $r7
	@DEBUG_VALUE: HAL_DMA_Abort:tickstart <- $r5
	@DEBUG_VALUE: HAL_DMA_Abort:hdma <- $r4
	.loc	2 0 8                           @ libraries/STM32H7xx_HAL/STM32H7xx_HAL_Driver/Src/stm32h7xx_hal_dma.c:0:8
	movw	r1, #1184
.Ltmp624:
.LBB9_81:
	@DEBUG_VALUE: HAL_DMA_Abort:enableRegister <- $r7
	@DEBUG_VALUE: HAL_DMA_Abort:tickstart <- $r5
	@DEBUG_VALUE: HAL_DMA_Abort:hdma <- $r4
	movt	r1, #16386
	.loc	2 804 8                         @ libraries/STM32H7xx_HAL/STM32H7xx_HAL_Driver/Src/stm32h7xx_hal_dma.c:804:8
	cmp	r0, r1
	bne	.LBB9_87
.Ltmp625:
.LBB9_82:
	@DEBUG_VALUE: HAL_DMA_Abort:enableRegister <- $r7
	@DEBUG_VALUE: HAL_DMA_Abort:tickstart <- $r5
	@DEBUG_VALUE: HAL_DMA_Abort:hdma <- $r4
	@DEBUG_VALUE: HAL_DMA_Abort:regs_dma <- undef
	.loc	2 806 46 is_stmt 1              @ libraries/STM32H7xx_HAL/STM32H7xx_HAL_Driver/Src/stm32h7xx_hal_dma.c:806:46
	ldrd	r0, r1, [r4, #88]
	.loc	2 807 53                        @ libraries/STM32H7xx_HAL/STM32H7xx_HAL_Driver/Src/stm32h7xx_hal_dma.c:807:53
	and	r1, r1, #31
	movs	r2, #63
	.loc	2 807 31 is_stmt 0              @ libraries/STM32H7xx_HAL/STM32H7xx_HAL_Driver/Src/stm32h7xx_hal_dma.c:807:31
	lsl.w	r1, r2, r1
	.loc	2 807 22                        @ libraries/STM32H7xx_HAL/STM32H7xx_HAL_Driver/Src/stm32h7xx_hal_dma.c:807:22
	str	r1, [r0, #8]
.Ltmp626:
.LBB9_83:
	@DEBUG_VALUE: HAL_DMA_Abort:enableRegister <- $r7
	@DEBUG_VALUE: HAL_DMA_Abort:tickstart <- $r5
	@DEBUG_VALUE: HAL_DMA_Abort:hdma <- $r4
	.loc	2 816 11 is_stmt 1              @ libraries/STM32H7xx_HAL/STM32H7xx_HAL_Driver/Src/stm32h7xx_hal_dma.c:816:11
	ldr	r1, [r4, #100]
	.loc	2 816 44 is_stmt 0              @ libraries/STM32H7xx_HAL/STM32H7xx_HAL_Driver/Src/stm32h7xx_hal_dma.c:816:44
	ldr	r2, [r4, #104]
.Ltmp627:
	.loc	2 818 14 is_stmt 1              @ libraries/STM32H7xx_HAL/STM32H7xx_HAL_Driver/Src/stm32h7xx_hal_dma.c:818:14
	ldr	r0, [r4, #108]
.Ltmp628:
	.loc	2 816 36                        @ libraries/STM32H7xx_HAL/STM32H7xx_HAL_Driver/Src/stm32h7xx_hal_dma.c:816:36
	str	r2, [r1, #4]
	.loc	2 818 8                         @ libraries/STM32H7xx_HAL/STM32H7xx_HAL_Driver/Src/stm32h7xx_hal_dma.c:818:8
	cbz	r0, .LBB9_85
.Ltmp629:
@ %bb.84:
	@DEBUG_VALUE: HAL_DMA_Abort:enableRegister <- $r7
	@DEBUG_VALUE: HAL_DMA_Abort:tickstart <- $r5
	@DEBUG_VALUE: HAL_DMA_Abort:hdma <- $r4
	.loc	2 822 36                        @ libraries/STM32H7xx_HAL/STM32H7xx_HAL_Driver/Src/stm32h7xx_hal_dma.c:822:36
	ldr	r1, [r0]
	bic	r1, r1, #256
	str	r1, [r0]
	.loc	2 825 13                        @ libraries/STM32H7xx_HAL/STM32H7xx_HAL_Driver/Src/stm32h7xx_hal_dma.c:825:13
	ldrd	r0, r1, [r4, #112]
	.loc	2 825 43 is_stmt 0              @ libraries/STM32H7xx_HAL/STM32H7xx_HAL_Driver/Src/stm32h7xx_hal_dma.c:825:43
	str	r1, [r0, #4]
.Ltmp630:
.LBB9_85:
	@DEBUG_VALUE: HAL_DMA_Abort:enableRegister <- $r7
	@DEBUG_VALUE: HAL_DMA_Abort:tickstart <- $r5
	@DEBUG_VALUE: HAL_DMA_Abort:hdma <- $r4
	.loc	2 0 43                          @ libraries/STM32H7xx_HAL/STM32H7xx_HAL_Driver/Src/stm32h7xx_hal_dma.c:0:43
	movs	r0, #0
.Ltmp631:
	.loc	2 829 5 is_stmt 1               @ libraries/STM32H7xx_HAL/STM32H7xx_HAL_Driver/Src/stm32h7xx_hal_dma.c:829:5
	strb.w	r0, [r4, #52]
	movs	r1, #1
.Ltmp632:
	.loc	2 832 17                        @ libraries/STM32H7xx_HAL/STM32H7xx_HAL_Driver/Src/stm32h7xx_hal_dma.c:832:17
	strb.w	r1, [r4, #53]
.Ltmp633:
	.loc	2 836 1                         @ libraries/STM32H7xx_HAL/STM32H7xx_HAL_Driver/Src/stm32h7xx_hal_dma.c:836:1
	add	sp, #4
	pop	{r4, r5, r6, r7, pc}
.Ltmp634:
.LBB9_86:
	@DEBUG_VALUE: HAL_DMA_Abort:tickstart <- $r5
	@DEBUG_VALUE: HAL_DMA_Abort:hdma <- $r4
	.loc	2 773 40                        @ libraries/STM32H7xx_HAL/STM32H7xx_HAL_Driver/Src/stm32h7xx_hal_dma.c:773:40
	ldr	r1, [r4]
	mvn	r2, #14
.Ltmp635:
	@DEBUG_VALUE: HAL_DMA_Abort:enableRegister <- $r1
	.loc	2 0 0 is_stmt 0                 @ libraries/STM32H7xx_HAL/STM32H7xx_HAL_Driver/Src/stm32h7xx_hal_dma.c:0:0
	mov	r7, r1
	b	.LBB9_28
.Ltmp636:
.LBB9_87:
	@DEBUG_VALUE: HAL_DMA_Abort:enableRegister <- $r7
	@DEBUG_VALUE: HAL_DMA_Abort:tickstart <- $r5
	@DEBUG_VALUE: HAL_DMA_Abort:hdma <- $r4
	@DEBUG_VALUE: HAL_DMA_Abort:regs_bdma <- undef
	.loc	2 811 48 is_stmt 1              @ libraries/STM32H7xx_HAL/STM32H7xx_HAL_Driver/Src/stm32h7xx_hal_dma.c:811:48
	ldrd	r0, r1, [r4, #88]
	.loc	2 812 66                        @ libraries/STM32H7xx_HAL/STM32H7xx_HAL_Driver/Src/stm32h7xx_hal_dma.c:812:66
	and	r1, r1, #31
	movs	r2, #1
	.loc	2 812 44 is_stmt 0              @ libraries/STM32H7xx_HAL/STM32H7xx_HAL_Driver/Src/stm32h7xx_hal_dma.c:812:44
	lsl.w	r1, r2, r1
	.loc	2 812 23                        @ libraries/STM32H7xx_HAL/STM32H7xx_HAL_Driver/Src/stm32h7xx_hal_dma.c:812:23
	str	r1, [r0, #4]
	b	.LBB9_83
.Ltmp637:
.Lfunc_end9:
	.size	HAL_DMA_Abort, .Lfunc_end9-HAL_DMA_Abort
	.cfi_endproc
	.cantunwind
	.fnend
                                        @ -- End function
	.section	.text.HAL_DMA_Abort_IT,"ax",%progbits
	.hidden	HAL_DMA_Abort_IT                @ -- Begin function HAL_DMA_Abort_IT
	.globl	HAL_DMA_Abort_IT
	.p2align	3
	.type	HAL_DMA_Abort_IT,%function
	.code	16                              @ @HAL_DMA_Abort_IT
	.thumb_func
HAL_DMA_Abort_IT:
.Lfunc_begin10:
	.loc	2 845 0 is_stmt 1               @ libraries/STM32H7xx_HAL/STM32H7xx_HAL_Driver/Src/stm32h7xx_hal_dma.c:845:0
	.fnstart
	.cfi_startproc
@ %bb.0:
	@DEBUG_VALUE: HAL_DMA_Abort_IT:hdma <- $r0
	@DEBUG_VALUE: HAL_DMA_Abort_IT:hdma <- $r0
	.save	{r4, lr}
	push	{r4, lr}
	.cfi_def_cfa_offset 8
	.cfi_offset lr, -4
	.cfi_offset r4, -8
.Ltmp638:
	.loc	2 849 6 prologue_end            @ libraries/STM32H7xx_HAL/STM32H7xx_HAL_Driver/Src/stm32h7xx_hal_dma.c:849:6
	cbz	r0, .LBB10_7
.Ltmp639:
@ %bb.1:
	@DEBUG_VALUE: HAL_DMA_Abort_IT:hdma <- $r0
	.loc	2 854 12                        @ libraries/STM32H7xx_HAL/STM32H7xx_HAL_Driver/Src/stm32h7xx_hal_dma.c:854:12
	ldrb.w	r1, [r0, #53]
.Ltmp640:
	.loc	2 854 6 is_stmt 0               @ libraries/STM32H7xx_HAL/STM32H7xx_HAL_Driver/Src/stm32h7xx_hal_dma.c:854:6
	cmp	r1, #2
	bne	.LBB10_8
.Ltmp641:
@ %bb.2:
	@DEBUG_VALUE: HAL_DMA_Abort_IT:hdma <- $r0
	.loc	2 0 6                           @ libraries/STM32H7xx_HAL/STM32H7xx_HAL_Driver/Src/stm32h7xx_hal_dma.c:0:6
	movw	r2, #1039
.Ltmp642:
	.loc	2 861 8 is_stmt 1               @ libraries/STM32H7xx_HAL/STM32H7xx_HAL_Driver/Src/stm32h7xx_hal_dma.c:861:8
	ldr	r1, [r0]
	movt	r2, #16386
	cmp	r1, r2
	bgt	.LBB10_9
.Ltmp643:
@ %bb.3:
	@DEBUG_VALUE: HAL_DMA_Abort_IT:hdma <- $r0
	.loc	2 0 8 is_stmt 0                 @ libraries/STM32H7xx_HAL/STM32H7xx_HAL_Driver/Src/stm32h7xx_hal_dma.c:0:8
	movs	r3, #111
	movt	r3, #16386
	.loc	2 861 8                         @ libraries/STM32H7xx_HAL/STM32H7xx_HAL_Driver/Src/stm32h7xx_hal_dma.c:861:8
	cmp	r1, r3
	bgt	.LBB10_13
.Ltmp644:
@ %bb.4:
	@DEBUG_VALUE: HAL_DMA_Abort_IT:hdma <- $r0
	.loc	2 0 8                           @ libraries/STM32H7xx_HAL/STM32H7xx_HAL_Driver/Src/stm32h7xx_hal_dma.c:0:8
	movs	r3, #63
	movt	r3, #16386
	.loc	2 861 8                         @ libraries/STM32H7xx_HAL/STM32H7xx_HAL_Driver/Src/stm32h7xx_hal_dma.c:861:8
	cmp	r1, r3
	bgt	.LBB10_19
.Ltmp645:
@ %bb.5:
	@DEBUG_VALUE: HAL_DMA_Abort_IT:hdma <- $r0
	.loc	2 0 8                           @ libraries/STM32H7xx_HAL/STM32H7xx_HAL_Driver/Src/stm32h7xx_hal_dma.c:0:8
	movs	r3, #16
	movt	r3, #16386
	.loc	2 861 8                         @ libraries/STM32H7xx_HAL/STM32H7xx_HAL_Driver/Src/stm32h7xx_hal_dma.c:861:8
	cmp	r1, r3
	beq	.LBB10_28
.Ltmp646:
@ %bb.6:
	@DEBUG_VALUE: HAL_DMA_Abort_IT:hdma <- $r0
	.loc	2 0 8                           @ libraries/STM32H7xx_HAL/STM32H7xx_HAL_Driver/Src/stm32h7xx_hal_dma.c:0:8
	movs	r3, #40
	b	.LBB10_27
.Ltmp647:
.LBB10_7:
	@DEBUG_VALUE: HAL_DMA_Abort_IT:hdma <- $r0
	movs	r0, #1
.Ltmp648:
	@DEBUG_VALUE: HAL_DMA_Abort_IT:hdma <- [DW_OP_LLVM_entry_value 1] $r0
	.loc	2 912 1 is_stmt 1               @ libraries/STM32H7xx_HAL/STM32H7xx_HAL_Driver/Src/stm32h7xx_hal_dma.c:912:1
	pop	{r4, pc}
.Ltmp649:
.LBB10_8:
	@DEBUG_VALUE: HAL_DMA_Abort_IT:hdma <- $r0
	.loc	2 0 1 is_stmt 0                 @ libraries/STM32H7xx_HAL/STM32H7xx_HAL_Driver/Src/stm32h7xx_hal_dma.c:0:1
	movs	r1, #128
.Ltmp650:
	.loc	2 856 21 is_stmt 1              @ libraries/STM32H7xx_HAL/STM32H7xx_HAL_Driver/Src/stm32h7xx_hal_dma.c:856:21
	str	r1, [r0, #84]
	movs	r0, #1
.Ltmp651:
	@DEBUG_VALUE: HAL_DMA_Abort_IT:hdma <- [DW_OP_LLVM_entry_value 1] $r0
	.loc	2 912 1                         @ libraries/STM32H7xx_HAL/STM32H7xx_HAL_Driver/Src/stm32h7xx_hal_dma.c:912:1
	pop	{r4, pc}
.Ltmp652:
.LBB10_9:
	@DEBUG_VALUE: HAL_DMA_Abort_IT:hdma <- $r0
	.loc	2 0 1 is_stmt 0                 @ libraries/STM32H7xx_HAL/STM32H7xx_HAL_Driver/Src/stm32h7xx_hal_dma.c:0:1
	movw	r3, #1135
	movt	r3, #16386
.Ltmp653:
	.loc	2 861 8 is_stmt 1               @ libraries/STM32H7xx_HAL/STM32H7xx_HAL_Driver/Src/stm32h7xx_hal_dma.c:861:8
	cmp	r1, r3
	bgt	.LBB10_16
.Ltmp654:
@ %bb.10:
	@DEBUG_VALUE: HAL_DMA_Abort_IT:hdma <- $r0
	.loc	2 0 8 is_stmt 0                 @ libraries/STM32H7xx_HAL/STM32H7xx_HAL_Driver/Src/stm32h7xx_hal_dma.c:0:8
	movw	r3, #1087
	movt	r3, #16386
	.loc	2 861 8                         @ libraries/STM32H7xx_HAL/STM32H7xx_HAL_Driver/Src/stm32h7xx_hal_dma.c:861:8
	cmp	r1, r3
	bgt	.LBB10_21
.Ltmp655:
@ %bb.11:
	@DEBUG_VALUE: HAL_DMA_Abort_IT:hdma <- $r0
	.loc	2 0 8                           @ libraries/STM32H7xx_HAL/STM32H7xx_HAL_Driver/Src/stm32h7xx_hal_dma.c:0:8
	movw	r3, #1040
	movt	r3, #16386
	.loc	2 861 8                         @ libraries/STM32H7xx_HAL/STM32H7xx_HAL_Driver/Src/stm32h7xx_hal_dma.c:861:8
	cmp	r1, r3
	beq	.LBB10_28
.Ltmp656:
@ %bb.12:
	@DEBUG_VALUE: HAL_DMA_Abort_IT:hdma <- $r0
	.loc	2 0 8                           @ libraries/STM32H7xx_HAL/STM32H7xx_HAL_Driver/Src/stm32h7xx_hal_dma.c:0:8
	movw	r3, #1064
	b	.LBB10_27
.Ltmp657:
.LBB10_13:
	@DEBUG_VALUE: HAL_DMA_Abort_IT:hdma <- $r0
	movs	r3, #159
	movt	r3, #16386
	.loc	2 861 8                         @ libraries/STM32H7xx_HAL/STM32H7xx_HAL_Driver/Src/stm32h7xx_hal_dma.c:861:8
	cmp	r1, r3
	bgt	.LBB10_23
.Ltmp658:
@ %bb.14:
	@DEBUG_VALUE: HAL_DMA_Abort_IT:hdma <- $r0
	.loc	2 0 8                           @ libraries/STM32H7xx_HAL/STM32H7xx_HAL_Driver/Src/stm32h7xx_hal_dma.c:0:8
	movs	r3, #112
	movt	r3, #16386
	.loc	2 861 8                         @ libraries/STM32H7xx_HAL/STM32H7xx_HAL_Driver/Src/stm32h7xx_hal_dma.c:861:8
	cmp	r1, r3
	beq	.LBB10_28
.Ltmp659:
@ %bb.15:
	@DEBUG_VALUE: HAL_DMA_Abort_IT:hdma <- $r0
	.loc	2 0 8                           @ libraries/STM32H7xx_HAL/STM32H7xx_HAL_Driver/Src/stm32h7xx_hal_dma.c:0:8
	movs	r3, #136
	b	.LBB10_27
.Ltmp660:
.LBB10_16:
	@DEBUG_VALUE: HAL_DMA_Abort_IT:hdma <- $r0
	movw	r3, #1183
	movt	r3, #16386
	.loc	2 861 8                         @ libraries/STM32H7xx_HAL/STM32H7xx_HAL_Driver/Src/stm32h7xx_hal_dma.c:861:8
	cmp	r1, r3
	bgt	.LBB10_25
.Ltmp661:
@ %bb.17:
	@DEBUG_VALUE: HAL_DMA_Abort_IT:hdma <- $r0
	.loc	2 0 8                           @ libraries/STM32H7xx_HAL/STM32H7xx_HAL_Driver/Src/stm32h7xx_hal_dma.c:0:8
	movw	r3, #1136
	movt	r3, #16386
	.loc	2 861 8                         @ libraries/STM32H7xx_HAL/STM32H7xx_HAL_Driver/Src/stm32h7xx_hal_dma.c:861:8
	cmp	r1, r3
	beq	.LBB10_28
.Ltmp662:
@ %bb.18:
	@DEBUG_VALUE: HAL_DMA_Abort_IT:hdma <- $r0
	.loc	2 0 8                           @ libraries/STM32H7xx_HAL/STM32H7xx_HAL_Driver/Src/stm32h7xx_hal_dma.c:0:8
	movw	r3, #1160
	b	.LBB10_27
.Ltmp663:
.LBB10_19:
	@DEBUG_VALUE: HAL_DMA_Abort_IT:hdma <- $r0
	movs	r3, #64
	movt	r3, #16386
	.loc	2 861 8                         @ libraries/STM32H7xx_HAL/STM32H7xx_HAL_Driver/Src/stm32h7xx_hal_dma.c:861:8
	cmp	r1, r3
	beq	.LBB10_28
.Ltmp664:
@ %bb.20:
	@DEBUG_VALUE: HAL_DMA_Abort_IT:hdma <- $r0
	.loc	2 0 8                           @ libraries/STM32H7xx_HAL/STM32H7xx_HAL_Driver/Src/stm32h7xx_hal_dma.c:0:8
	movs	r3, #88
	b	.LBB10_27
.Ltmp665:
.LBB10_21:
	@DEBUG_VALUE: HAL_DMA_Abort_IT:hdma <- $r0
	movw	r3, #1088
	movt	r3, #16386
	.loc	2 861 8                         @ libraries/STM32H7xx_HAL/STM32H7xx_HAL_Driver/Src/stm32h7xx_hal_dma.c:861:8
	cmp	r1, r3
	beq	.LBB10_28
.Ltmp666:
@ %bb.22:
	@DEBUG_VALUE: HAL_DMA_Abort_IT:hdma <- $r0
	.loc	2 0 8                           @ libraries/STM32H7xx_HAL/STM32H7xx_HAL_Driver/Src/stm32h7xx_hal_dma.c:0:8
	movw	r3, #1112
	b	.LBB10_27
.Ltmp667:
.LBB10_23:
	@DEBUG_VALUE: HAL_DMA_Abort_IT:hdma <- $r0
	movs	r3, #160
	movt	r3, #16386
	.loc	2 861 8                         @ libraries/STM32H7xx_HAL/STM32H7xx_HAL_Driver/Src/stm32h7xx_hal_dma.c:861:8
	cmp	r1, r3
	beq	.LBB10_28
.Ltmp668:
@ %bb.24:
	@DEBUG_VALUE: HAL_DMA_Abort_IT:hdma <- $r0
	.loc	2 0 8                           @ libraries/STM32H7xx_HAL/STM32H7xx_HAL_Driver/Src/stm32h7xx_hal_dma.c:0:8
	movs	r3, #184
	b	.LBB10_27
.Ltmp669:
.LBB10_25:
	@DEBUG_VALUE: HAL_DMA_Abort_IT:hdma <- $r0
	movw	r3, #1208
	movt	r3, #16386
	.loc	2 861 8                         @ libraries/STM32H7xx_HAL/STM32H7xx_HAL_Driver/Src/stm32h7xx_hal_dma.c:861:8
	cmp	r1, r3
	beq	.LBB10_28
.Ltmp670:
@ %bb.26:
	@DEBUG_VALUE: HAL_DMA_Abort_IT:hdma <- $r0
	.loc	2 0 8                           @ libraries/STM32H7xx_HAL/STM32H7xx_HAL_Driver/Src/stm32h7xx_hal_dma.c:0:8
	movw	r3, #1184
.Ltmp671:
.LBB10_27:
	@DEBUG_VALUE: HAL_DMA_Abort_IT:hdma <- $r0
	movt	r3, #16386
	.loc	2 861 8                         @ libraries/STM32H7xx_HAL/STM32H7xx_HAL_Driver/Src/stm32h7xx_hal_dma.c:861:8
	cmp	r1, r3
	bne	.LBB10_54
.Ltmp672:
.LBB10_28:
	@DEBUG_VALUE: HAL_DMA_Abort_IT:hdma <- $r0
	.loc	2 867 7 is_stmt 1               @ libraries/STM32H7xx_HAL/STM32H7xx_HAL_Driver/Src/stm32h7xx_hal_dma.c:867:7
	cmp	r1, r2
	mov.w	r2, #4
	.loc	2 864 19                        @ libraries/STM32H7xx_HAL/STM32H7xx_HAL_Driver/Src/stm32h7xx_hal_dma.c:864:19
	strb.w	r2, [r0, #53]
	.loc	2 867 7                         @ libraries/STM32H7xx_HAL/STM32H7xx_HAL_Driver/Src/stm32h7xx_hal_dma.c:867:7
	bgt	.LBB10_33
.Ltmp673:
@ %bb.29:
	@DEBUG_VALUE: HAL_DMA_Abort_IT:hdma <- $r0
	.loc	2 0 7 is_stmt 0                 @ libraries/STM32H7xx_HAL/STM32H7xx_HAL_Driver/Src/stm32h7xx_hal_dma.c:0:7
	movs	r2, #111
	movt	r2, #16386
	.loc	2 867 7                         @ libraries/STM32H7xx_HAL/STM32H7xx_HAL_Driver/Src/stm32h7xx_hal_dma.c:867:7
	cmp	r1, r2
	bgt	.LBB10_37
.Ltmp674:
@ %bb.30:
	@DEBUG_VALUE: HAL_DMA_Abort_IT:hdma <- $r0
	.loc	2 0 7                           @ libraries/STM32H7xx_HAL/STM32H7xx_HAL_Driver/Src/stm32h7xx_hal_dma.c:0:7
	movs	r2, #63
	movt	r2, #16386
	.loc	2 867 7                         @ libraries/STM32H7xx_HAL/STM32H7xx_HAL_Driver/Src/stm32h7xx_hal_dma.c:867:7
	cmp	r1, r2
	bgt	.LBB10_43
.Ltmp675:
@ %bb.31:
	@DEBUG_VALUE: HAL_DMA_Abort_IT:hdma <- $r0
	.loc	2 0 7                           @ libraries/STM32H7xx_HAL/STM32H7xx_HAL_Driver/Src/stm32h7xx_hal_dma.c:0:7
	movs	r2, #16
	movt	r2, #16386
	.loc	2 867 7                         @ libraries/STM32H7xx_HAL/STM32H7xx_HAL_Driver/Src/stm32h7xx_hal_dma.c:867:7
	cmp	r1, r2
	beq	.LBB10_52
.Ltmp676:
@ %bb.32:
	@DEBUG_VALUE: HAL_DMA_Abort_IT:hdma <- $r0
	.loc	2 0 7                           @ libraries/STM32H7xx_HAL/STM32H7xx_HAL_Driver/Src/stm32h7xx_hal_dma.c:0:7
	movs	r2, #40
	b	.LBB10_51
.Ltmp677:
.LBB10_33:
	@DEBUG_VALUE: HAL_DMA_Abort_IT:hdma <- $r0
	movw	r2, #1135
	movt	r2, #16386
	.loc	2 867 7                         @ libraries/STM32H7xx_HAL/STM32H7xx_HAL_Driver/Src/stm32h7xx_hal_dma.c:867:7
	cmp	r1, r2
	bgt	.LBB10_40
.Ltmp678:
@ %bb.34:
	@DEBUG_VALUE: HAL_DMA_Abort_IT:hdma <- $r0
	.loc	2 0 7                           @ libraries/STM32H7xx_HAL/STM32H7xx_HAL_Driver/Src/stm32h7xx_hal_dma.c:0:7
	movw	r2, #1087
	movt	r2, #16386
	.loc	2 867 7                         @ libraries/STM32H7xx_HAL/STM32H7xx_HAL_Driver/Src/stm32h7xx_hal_dma.c:867:7
	cmp	r1, r2
	bgt	.LBB10_45
.Ltmp679:
@ %bb.35:
	@DEBUG_VALUE: HAL_DMA_Abort_IT:hdma <- $r0
	.loc	2 0 7                           @ libraries/STM32H7xx_HAL/STM32H7xx_HAL_Driver/Src/stm32h7xx_hal_dma.c:0:7
	movw	r2, #1040
	movt	r2, #16386
	.loc	2 867 7                         @ libraries/STM32H7xx_HAL/STM32H7xx_HAL_Driver/Src/stm32h7xx_hal_dma.c:867:7
	cmp	r1, r2
	beq	.LBB10_52
.Ltmp680:
@ %bb.36:
	@DEBUG_VALUE: HAL_DMA_Abort_IT:hdma <- $r0
	.loc	2 0 7                           @ libraries/STM32H7xx_HAL/STM32H7xx_HAL_Driver/Src/stm32h7xx_hal_dma.c:0:7
	movw	r2, #1064
	b	.LBB10_51
.Ltmp681:
.LBB10_37:
	@DEBUG_VALUE: HAL_DMA_Abort_IT:hdma <- $r0
	movs	r2, #159
	movt	r2, #16386
	.loc	2 867 7                         @ libraries/STM32H7xx_HAL/STM32H7xx_HAL_Driver/Src/stm32h7xx_hal_dma.c:867:7
	cmp	r1, r2
	bgt	.LBB10_47
.Ltmp682:
@ %bb.38:
	@DEBUG_VALUE: HAL_DMA_Abort_IT:hdma <- $r0
	.loc	2 0 7                           @ libraries/STM32H7xx_HAL/STM32H7xx_HAL_Driver/Src/stm32h7xx_hal_dma.c:0:7
	movs	r2, #112
	movt	r2, #16386
	.loc	2 867 7                         @ libraries/STM32H7xx_HAL/STM32H7xx_HAL_Driver/Src/stm32h7xx_hal_dma.c:867:7
	cmp	r1, r2
	beq	.LBB10_52
.Ltmp683:
@ %bb.39:
	@DEBUG_VALUE: HAL_DMA_Abort_IT:hdma <- $r0
	.loc	2 0 7                           @ libraries/STM32H7xx_HAL/STM32H7xx_HAL_Driver/Src/stm32h7xx_hal_dma.c:0:7
	movs	r2, #136
	b	.LBB10_51
.Ltmp684:
.LBB10_40:
	@DEBUG_VALUE: HAL_DMA_Abort_IT:hdma <- $r0
	movw	r2, #1183
	movt	r2, #16386
	.loc	2 867 7                         @ libraries/STM32H7xx_HAL/STM32H7xx_HAL_Driver/Src/stm32h7xx_hal_dma.c:867:7
	cmp	r1, r2
	bgt	.LBB10_49
.Ltmp685:
@ %bb.41:
	@DEBUG_VALUE: HAL_DMA_Abort_IT:hdma <- $r0
	.loc	2 0 7                           @ libraries/STM32H7xx_HAL/STM32H7xx_HAL_Driver/Src/stm32h7xx_hal_dma.c:0:7
	movw	r2, #1136
	movt	r2, #16386
	.loc	2 867 7                         @ libraries/STM32H7xx_HAL/STM32H7xx_HAL_Driver/Src/stm32h7xx_hal_dma.c:867:7
	cmp	r1, r2
	beq	.LBB10_52
.Ltmp686:
@ %bb.42:
	@DEBUG_VALUE: HAL_DMA_Abort_IT:hdma <- $r0
	.loc	2 0 7                           @ libraries/STM32H7xx_HAL/STM32H7xx_HAL_Driver/Src/stm32h7xx_hal_dma.c:0:7
	movw	r2, #1160
	b	.LBB10_51
.Ltmp687:
.LBB10_43:
	@DEBUG_VALUE: HAL_DMA_Abort_IT:hdma <- $r0
	movs	r2, #64
	movt	r2, #16386
	.loc	2 867 7                         @ libraries/STM32H7xx_HAL/STM32H7xx_HAL_Driver/Src/stm32h7xx_hal_dma.c:867:7
	cmp	r1, r2
	beq	.LBB10_52
.Ltmp688:
@ %bb.44:
	@DEBUG_VALUE: HAL_DMA_Abort_IT:hdma <- $r0
	.loc	2 0 7                           @ libraries/STM32H7xx_HAL/STM32H7xx_HAL_Driver/Src/stm32h7xx_hal_dma.c:0:7
	movs	r2, #88
	b	.LBB10_51
.Ltmp689:
.LBB10_45:
	@DEBUG_VALUE: HAL_DMA_Abort_IT:hdma <- $r0
	movw	r2, #1088
	movt	r2, #16386
	.loc	2 867 7                         @ libraries/STM32H7xx_HAL/STM32H7xx_HAL_Driver/Src/stm32h7xx_hal_dma.c:867:7
	cmp	r1, r2
	beq	.LBB10_52
.Ltmp690:
@ %bb.46:
	@DEBUG_VALUE: HAL_DMA_Abort_IT:hdma <- $r0
	.loc	2 0 7                           @ libraries/STM32H7xx_HAL/STM32H7xx_HAL_Driver/Src/stm32h7xx_hal_dma.c:0:7
	movw	r2, #1112
	b	.LBB10_51
.Ltmp691:
.LBB10_47:
	@DEBUG_VALUE: HAL_DMA_Abort_IT:hdma <- $r0
	movs	r2, #160
	movt	r2, #16386
	.loc	2 867 7                         @ libraries/STM32H7xx_HAL/STM32H7xx_HAL_Driver/Src/stm32h7xx_hal_dma.c:867:7
	cmp	r1, r2
	beq	.LBB10_52
.Ltmp692:
@ %bb.48:
	@DEBUG_VALUE: HAL_DMA_Abort_IT:hdma <- $r0
	.loc	2 0 7                           @ libraries/STM32H7xx_HAL/STM32H7xx_HAL_Driver/Src/stm32h7xx_hal_dma.c:0:7
	movs	r2, #184
	b	.LBB10_51
.Ltmp693:
.LBB10_49:
	@DEBUG_VALUE: HAL_DMA_Abort_IT:hdma <- $r0
	movw	r2, #1208
	movt	r2, #16386
	.loc	2 867 7                         @ libraries/STM32H7xx_HAL/STM32H7xx_HAL_Driver/Src/stm32h7xx_hal_dma.c:867:7
	cmp	r1, r2
	beq	.LBB10_52
.Ltmp694:
@ %bb.50:
	@DEBUG_VALUE: HAL_DMA_Abort_IT:hdma <- $r0
	.loc	2 0 7                           @ libraries/STM32H7xx_HAL/STM32H7xx_HAL_Driver/Src/stm32h7xx_hal_dma.c:0:7
	movw	r2, #1184
.Ltmp695:
.LBB10_51:
	@DEBUG_VALUE: HAL_DMA_Abort_IT:hdma <- $r0
	movt	r2, #16386
	.loc	2 867 7                         @ libraries/STM32H7xx_HAL/STM32H7xx_HAL_Driver/Src/stm32h7xx_hal_dma.c:867:7
	cmp	r1, r2
	bne	.LBB10_53
.Ltmp696:
.LBB10_52:
	@DEBUG_VALUE: HAL_DMA_Abort_IT:hdma <- $r0
	ldr	r0, [r0]
.Ltmp697:
	@DEBUG_VALUE: HAL_DMA_Abort_IT:hdma <- [DW_OP_LLVM_entry_value 1] $r0
	ldr	r1, [r0]
	bic	r1, r1, #1
	str	r1, [r0]
	movs	r0, #0
.Ltmp698:
	.loc	2 912 1 is_stmt 1               @ libraries/STM32H7xx_HAL/STM32H7xx_HAL_Driver/Src/stm32h7xx_hal_dma.c:912:1
	pop	{r4, pc}
.Ltmp699:
.LBB10_53:
	@DEBUG_VALUE: HAL_DMA_Abort_IT:hdma <- $r0
	.loc	2 867 7                         @ libraries/STM32H7xx_HAL/STM32H7xx_HAL_Driver/Src/stm32h7xx_hal_dma.c:867:7
	ldr	r0, [r1]
.Ltmp700:
	@DEBUG_VALUE: HAL_DMA_Abort_IT:hdma <- [DW_OP_LLVM_entry_value 1] $r0
	bic	r0, r0, #1
	str	r0, [r1]
	movs	r0, #0
.Ltmp701:
	.loc	2 912 1                         @ libraries/STM32H7xx_HAL/STM32H7xx_HAL_Driver/Src/stm32h7xx_hal_dma.c:912:1
	pop	{r4, pc}
.Ltmp702:
.LBB10_54:
	@DEBUG_VALUE: HAL_DMA_Abort_IT:hdma <- $r0
	.loc	2 872 40                        @ libraries/STM32H7xx_HAL/STM32H7xx_HAL_Driver/Src/stm32h7xx_hal_dma.c:872:40
	ldr	r2, [r0]
.Ltmp703:
	@DEBUG_VALUE: HAL_DMA_Abort_IT:regs_bdma <- $r12
	.loc	2 881 48                        @ libraries/STM32H7xx_HAL/STM32H7xx_HAL_Driver/Src/stm32h7xx_hal_dma.c:881:48
	ldrd	r12, lr, [r0, #88]
.Ltmp704:
	.loc	2 878 13                        @ libraries/STM32H7xx_HAL/STM32H7xx_HAL_Driver/Src/stm32h7xx_hal_dma.c:878:13
	ldr	r3, [r0, #96]
	.loc	2 872 56                        @ libraries/STM32H7xx_HAL/STM32H7xx_HAL_Driver/Src/stm32h7xx_hal_dma.c:872:56
	ldr	r4, [r2]
	bic	r4, r4, #14
	str	r4, [r2]
	.loc	2 875 7                         @ libraries/STM32H7xx_HAL/STM32H7xx_HAL_Driver/Src/stm32h7xx_hal_dma.c:875:7
	ldr	r2, [r1]
	bic	r2, r2, #1
	str	r2, [r1]
	.loc	2 878 32                        @ libraries/STM32H7xx_HAL/STM32H7xx_HAL_Driver/Src/stm32h7xx_hal_dma.c:878:32
	ldr	r1, [r3]
	movs	r2, #1
	bic	r1, r1, #256
	str	r1, [r3]
	.loc	2 882 66                        @ libraries/STM32H7xx_HAL/STM32H7xx_HAL_Driver/Src/stm32h7xx_hal_dma.c:882:66
	and	r1, lr, #31
	.loc	2 882 44 is_stmt 0              @ libraries/STM32H7xx_HAL/STM32H7xx_HAL_Driver/Src/stm32h7xx_hal_dma.c:882:44
	lsl.w	r1, r2, r1
	.loc	2 882 23                        @ libraries/STM32H7xx_HAL/STM32H7xx_HAL_Driver/Src/stm32h7xx_hal_dma.c:882:23
	str.w	r1, [r12, #4]
	.loc	2 885 13 is_stmt 1              @ libraries/STM32H7xx_HAL/STM32H7xx_HAL_Driver/Src/stm32h7xx_hal_dma.c:885:13
	ldrd	r1, r3, [r0, #100]
	.loc	2 885 38 is_stmt 0              @ libraries/STM32H7xx_HAL/STM32H7xx_HAL_Driver/Src/stm32h7xx_hal_dma.c:885:38
	str	r3, [r1, #4]
.Ltmp705:
	.loc	2 887 16 is_stmt 1              @ libraries/STM32H7xx_HAL/STM32H7xx_HAL_Driver/Src/stm32h7xx_hal_dma.c:887:16
	ldr	r1, [r0, #108]
.Ltmp706:
	.loc	2 887 10 is_stmt 0              @ libraries/STM32H7xx_HAL/STM32H7xx_HAL_Driver/Src/stm32h7xx_hal_dma.c:887:10
	cbz	r1, .LBB10_56
.Ltmp707:
@ %bb.55:
	@DEBUG_VALUE: HAL_DMA_Abort_IT:hdma <- $r0
	.loc	2 891 38 is_stmt 1              @ libraries/STM32H7xx_HAL/STM32H7xx_HAL_Driver/Src/stm32h7xx_hal_dma.c:891:38
	ldr	r3, [r1]
	bic	r3, r3, #256
	str	r3, [r1]
	.loc	2 894 15                        @ libraries/STM32H7xx_HAL/STM32H7xx_HAL_Driver/Src/stm32h7xx_hal_dma.c:894:15
	ldrd	r1, r3, [r0, #112]
	.loc	2 894 45 is_stmt 0              @ libraries/STM32H7xx_HAL/STM32H7xx_HAL_Driver/Src/stm32h7xx_hal_dma.c:894:45
	str	r3, [r1, #4]
.Ltmp708:
.LBB10_56:
	@DEBUG_VALUE: HAL_DMA_Abort_IT:hdma <- $r0
	.loc	2 0 45                          @ libraries/STM32H7xx_HAL/STM32H7xx_HAL_Driver/Src/stm32h7xx_hal_dma.c:0:45
	movs	r1, #0
.Ltmp709:
	.loc	2 898 7 is_stmt 1               @ libraries/STM32H7xx_HAL/STM32H7xx_HAL_Driver/Src/stm32h7xx_hal_dma.c:898:7
	strb.w	r1, [r0, #52]
.Ltmp710:
	.loc	2 901 19                        @ libraries/STM32H7xx_HAL/STM32H7xx_HAL_Driver/Src/stm32h7xx_hal_dma.c:901:19
	strb.w	r2, [r0, #53]
.Ltmp711:
	.loc	2 904 16                        @ libraries/STM32H7xx_HAL/STM32H7xx_HAL_Driver/Src/stm32h7xx_hal_dma.c:904:16
	ldr	r2, [r0, #80]
.Ltmp712:
	.loc	2 904 10 is_stmt 0              @ libraries/STM32H7xx_HAL/STM32H7xx_HAL_Driver/Src/stm32h7xx_hal_dma.c:904:10
	cbz	r2, .LBB10_58
.Ltmp713:
@ %bb.57:
	@DEBUG_VALUE: HAL_DMA_Abort_IT:hdma <- $r0
	.loc	2 906 9 is_stmt 1               @ libraries/STM32H7xx_HAL/STM32H7xx_HAL_Driver/Src/stm32h7xx_hal_dma.c:906:9
	blx	r2
.Ltmp714:
	@DEBUG_VALUE: HAL_DMA_Abort_IT:hdma <- [DW_OP_LLVM_entry_value 1] $r0
	.loc	2 0 9 is_stmt 0                 @ libraries/STM32H7xx_HAL/STM32H7xx_HAL_Driver/Src/stm32h7xx_hal_dma.c:0:9
	movs	r1, #0
.Ltmp715:
.LBB10_58:
	.loc	2 912 1 is_stmt 1               @ libraries/STM32H7xx_HAL/STM32H7xx_HAL_Driver/Src/stm32h7xx_hal_dma.c:912:1
	mov	r0, r1
	pop	{r4, pc}
.Ltmp716:
