	.text
	.syntax unified
	.eabi_attribute	67, "2.09"	@ Tag_conformance
	.cpu	cortex-m7
	.eabi_attribute	6, 13	@ Tag_CPU_arch
	.eabi_attribute	7, 77	@ Tag_CPU_arch_profile
	.eabi_attribute	8, 0	@ Tag_ARM_ISA_use
	.eabi_attribute	9, 2	@ Tag_THUMB_ISA_use
	.fpu	fpv5-d16
	.eabi_attribute	36, 1	@ Tag_FP_HP_extension
	.eabi_attribute	34, 1	@ Tag_CPU_unaligned_access
	.eabi_attribute	17, 1	@ Tag_ABI_PCS_GOT_use
	.eabi_attribute	20, 2	@ Tag_ABI_FP_denormal
	.eabi_attribute	21, 0	@ Tag_ABI_FP_exceptions
	.eabi_attribute	23, 1	@ Tag_ABI_FP_number_model
	.eabi_attribute	24, 1	@ Tag_ABI_align_needed
	.eabi_attribute	25, 1	@ Tag_ABI_align_preserved
	.eabi_attribute	28, 1	@ Tag_ABI_VFP_args
	.eabi_attribute	38, 1	@ Tag_ABI_FP_16bit_format
	.eabi_attribute	18, 2	@ Tag_ABI_PCS_wchar_t
	.eabi_attribute	26, 1	@ Tag_ABI_enum_size
	.eabi_attribute	14, 0	@ Tag_ABI_PCS_R9_use
	.file	"stm32h7xx_hal_gpio.c"
	.file	1 "E:\\STM32\\Learning\\STM32H750_ART_PI_RGBLCD" "libraries/STM32H7xx_HAL/STM32H7xx_HAL_Driver/Inc\\stm32h7xx_hal_gpio.h"
	.file	2 "E:\\STM32\\Learning\\STM32H750_ART_PI_RGBLCD" "libraries/STM32H7xx_HAL/STM32H7xx_HAL_Driver/Inc/stm32h7xx_hal_def.h"
	.file	3 "D:\\Keil_v5\\ARM\\ARMCLANG\\Bin\\..\\include" "stdint.h"
	.file	4 "E:\\STM32\\Learning\\STM32H750_ART_PI_RGBLCD" "libraries/STM32H7xx_HAL/CMSIS/Device/ST/STM32H7xx/Include/stm32h750xx.h"
	.section	.text.HAL_GPIO_Init,"ax",%progbits
	.hidden	HAL_GPIO_Init                   @ -- Begin function HAL_GPIO_Init
	.globl	HAL_GPIO_Init
	.p2align	3
	.type	HAL_GPIO_Init,%function
	.code	16                              @ @HAL_GPIO_Init
	.thumb_func
HAL_GPIO_Init:
.Lfunc_begin0:
	.file	5 "E:\\STM32\\Learning\\STM32H750_ART_PI_RGBLCD" "libraries/STM32H7xx_HAL/STM32H7xx_HAL_Driver/Src/stm32h7xx_hal_gpio.c"
	.loc	5 174 0                         @ libraries/STM32H7xx_HAL/STM32H7xx_HAL_Driver/Src/stm32h7xx_hal_gpio.c:174:0
	.fnstart
	.cfi_sections .debug_frame
	.cfi_startproc
@ %bb.0:
	.pad	#64
	sub	sp, #64
	.cfi_def_cfa_offset 64
	str	r0, [sp, #60]
	str	r1, [sp, #56]
	movs	r0, #0
.Ltmp0:
	.loc	5 175 12 prologue_end           @ libraries/STM32H7xx_HAL/STM32H7xx_HAL_Driver/Src/stm32h7xx_hal_gpio.c:175:12
	str	r0, [sp, #52]
	movs	r0, #128
	movt	r0, #22528
	.loc	5 183 19                        @ libraries/STM32H7xx_HAL/STM32H7xx_HAL_Driver/Src/stm32h7xx_hal_gpio.c:183:19
	str	r0, [sp, #40]
	.loc	5 193 3                         @ libraries/STM32H7xx_HAL/STM32H7xx_HAL_Driver/Src/stm32h7xx_hal_gpio.c:193:3
	b	.LBB0_1
.LBB0_1:                                @ =>This Inner Loop Header: Depth=1
	.loc	5 193 12 is_stmt 0              @ libraries/STM32H7xx_HAL/STM32H7xx_HAL_Driver/Src/stm32h7xx_hal_gpio.c:193:12
	ldr	r0, [sp, #56]
	.loc	5 193 23                        @ libraries/STM32H7xx_HAL/STM32H7xx_HAL_Driver/Src/stm32h7xx_hal_gpio.c:193:23
	ldr	r0, [r0]
	.loc	5 193 31                        @ libraries/STM32H7xx_HAL/STM32H7xx_HAL_Driver/Src/stm32h7xx_hal_gpio.c:193:31
	ldr	r1, [sp, #52]
	.loc	5 193 28                        @ libraries/STM32H7xx_HAL/STM32H7xx_HAL_Driver/Src/stm32h7xx_hal_gpio.c:193:28
	lsrs	r0, r1
	.loc	5 193 3                         @ libraries/STM32H7xx_HAL/STM32H7xx_HAL_Driver/Src/stm32h7xx_hal_gpio.c:193:3
	cmp	r0, #0
	beq.w	.LBB0_52
	b	.LBB0_2
.LBB0_2:                                @   in Loop: Header=BB0_1 Depth=1
.Ltmp1:
	.loc	5 196 18 is_stmt 1              @ libraries/STM32H7xx_HAL/STM32H7xx_HAL_Driver/Src/stm32h7xx_hal_gpio.c:196:18
	ldr	r0, [sp, #56]
	.loc	5 196 29 is_stmt 0              @ libraries/STM32H7xx_HAL/STM32H7xx_HAL_Driver/Src/stm32h7xx_hal_gpio.c:196:29
	ldr	r0, [r0]
	.loc	5 196 44                        @ libraries/STM32H7xx_HAL/STM32H7xx_HAL_Driver/Src/stm32h7xx_hal_gpio.c:196:44
	ldr	r2, [sp, #52]
	movs	r1, #1
	.loc	5 196 41                        @ libraries/STM32H7xx_HAL/STM32H7xx_HAL_Driver/Src/stm32h7xx_hal_gpio.c:196:41
	lsls	r1, r2
	.loc	5 196 34                        @ libraries/STM32H7xx_HAL/STM32H7xx_HAL_Driver/Src/stm32h7xx_hal_gpio.c:196:34
	ands	r0, r1
	.loc	5 196 15                        @ libraries/STM32H7xx_HAL/STM32H7xx_HAL_Driver/Src/stm32h7xx_hal_gpio.c:196:15
	str	r0, [sp, #48]
.Ltmp2:
	.loc	5 198 9 is_stmt 1               @ libraries/STM32H7xx_HAL/STM32H7xx_HAL_Driver/Src/stm32h7xx_hal_gpio.c:198:9
	ldr	r0, [sp, #48]
.Ltmp3:
	.loc	5 198 9 is_stmt 0               @ libraries/STM32H7xx_HAL/STM32H7xx_HAL_Driver/Src/stm32h7xx_hal_gpio.c:198:9
	cmp	r0, #0
	beq.w	.LBB0_51
	b	.LBB0_3
.LBB0_3:                                @   in Loop: Header=BB0_1 Depth=1
.Ltmp4:
	.loc	5 202 12 is_stmt 1              @ libraries/STM32H7xx_HAL/STM32H7xx_HAL_Driver/Src/stm32h7xx_hal_gpio.c:202:12
	ldr	r0, [sp, #56]
	.loc	5 202 23 is_stmt 0              @ libraries/STM32H7xx_HAL/STM32H7xx_HAL_Driver/Src/stm32h7xx_hal_gpio.c:202:23
	ldr	r0, [r0, #4]
	.loc	5 202 48                        @ libraries/STM32H7xx_HAL/STM32H7xx_HAL_Driver/Src/stm32h7xx_hal_gpio.c:202:48
	cmp	r0, #2
	beq	.LBB0_5
	b	.LBB0_4
.LBB0_4:                                @   in Loop: Header=BB0_1 Depth=1
	.loc	5 202 52                        @ libraries/STM32H7xx_HAL/STM32H7xx_HAL_Driver/Src/stm32h7xx_hal_gpio.c:202:52
	ldr	r0, [sp, #56]
	.loc	5 202 63                        @ libraries/STM32H7xx_HAL/STM32H7xx_HAL_Driver/Src/stm32h7xx_hal_gpio.c:202:63
	ldr	r0, [r0, #4]
.Ltmp5:
	.loc	5 202 11                        @ libraries/STM32H7xx_HAL/STM32H7xx_HAL_Driver/Src/stm32h7xx_hal_gpio.c:202:11
	cmp	r0, #18
	bne	.LBB0_6
	b	.LBB0_5
.LBB0_5:                                @   in Loop: Header=BB0_1 Depth=1
.Ltmp6:
	.loc	5 209 16 is_stmt 1              @ libraries/STM32H7xx_HAL/STM32H7xx_HAL_Driver/Src/stm32h7xx_hal_gpio.c:209:16
	ldr	r0, [sp, #60]
	.loc	5 209 27 is_stmt 0              @ libraries/STM32H7xx_HAL/STM32H7xx_HAL_Driver/Src/stm32h7xx_hal_gpio.c:209:27
	ldr	r1, [sp, #52]
	mvn	r2, #3
	.loc	5 209 36                        @ libraries/STM32H7xx_HAL/STM32H7xx_HAL_Driver/Src/stm32h7xx_hal_gpio.c:209:36
	and.w	r1, r2, r1, lsr #1
	.loc	5 209 23                        @ libraries/STM32H7xx_HAL/STM32H7xx_HAL_Driver/Src/stm32h7xx_hal_gpio.c:209:23
	add	r0, r1
	.loc	5 209 16                        @ libraries/STM32H7xx_HAL/STM32H7xx_HAL_Driver/Src/stm32h7xx_hal_gpio.c:209:16
	ldr	r0, [r0, #32]
	.loc	5 209 14                        @ libraries/STM32H7xx_HAL/STM32H7xx_HAL_Driver/Src/stm32h7xx_hal_gpio.c:209:14
	str	r0, [sp, #44]
	.loc	5 210 29 is_stmt 1              @ libraries/STM32H7xx_HAL/STM32H7xx_HAL_Driver/Src/stm32h7xx_hal_gpio.c:210:29
	ldr	r0, [sp, #52]
	.loc	5 210 38 is_stmt 0              @ libraries/STM32H7xx_HAL/STM32H7xx_HAL_Driver/Src/stm32h7xx_hal_gpio.c:210:38
	and	r0, r0, #7
	.loc	5 210 47                        @ libraries/STM32H7xx_HAL/STM32H7xx_HAL_Driver/Src/stm32h7xx_hal_gpio.c:210:47
	lsls	r1, r0, #2
	movs	r0, #15
	.loc	5 210 24                        @ libraries/STM32H7xx_HAL/STM32H7xx_HAL_Driver/Src/stm32h7xx_hal_gpio.c:210:24
	lsl.w	r1, r0, r1
	.loc	5 210 14                        @ libraries/STM32H7xx_HAL/STM32H7xx_HAL_Driver/Src/stm32h7xx_hal_gpio.c:210:14
	ldr	r0, [sp, #44]
	bics	r0, r1
	str	r0, [sp, #44]
	.loc	5 211 19 is_stmt 1              @ libraries/STM32H7xx_HAL/STM32H7xx_HAL_Driver/Src/stm32h7xx_hal_gpio.c:211:19
	ldr	r0, [sp, #56]
	.loc	5 211 30 is_stmt 0              @ libraries/STM32H7xx_HAL/STM32H7xx_HAL_Driver/Src/stm32h7xx_hal_gpio.c:211:30
	ldr	r0, [r0, #16]
	.loc	5 211 46                        @ libraries/STM32H7xx_HAL/STM32H7xx_HAL_Driver/Src/stm32h7xx_hal_gpio.c:211:46
	ldr	r1, [sp, #52]
	.loc	5 211 55                        @ libraries/STM32H7xx_HAL/STM32H7xx_HAL_Driver/Src/stm32h7xx_hal_gpio.c:211:55
	and	r1, r1, #7
	.loc	5 211 64                        @ libraries/STM32H7xx_HAL/STM32H7xx_HAL_Driver/Src/stm32h7xx_hal_gpio.c:211:64
	lsls	r1, r1, #2
	.loc	5 211 41                        @ libraries/STM32H7xx_HAL/STM32H7xx_HAL_Driver/Src/stm32h7xx_hal_gpio.c:211:41
	lsl.w	r1, r0, r1
	.loc	5 211 14                        @ libraries/STM32H7xx_HAL/STM32H7xx_HAL_Driver/Src/stm32h7xx_hal_gpio.c:211:14
	ldr	r0, [sp, #44]
	orrs	r0, r1
	str	r0, [sp, #44]
	.loc	5 212 38 is_stmt 1              @ libraries/STM32H7xx_HAL/STM32H7xx_HAL_Driver/Src/stm32h7xx_hal_gpio.c:212:38
	ldr	r0, [sp, #44]
	.loc	5 212 9 is_stmt 0               @ libraries/STM32H7xx_HAL/STM32H7xx_HAL_Driver/Src/stm32h7xx_hal_gpio.c:212:9
	ldr	r1, [sp, #60]
	.loc	5 212 20                        @ libraries/STM32H7xx_HAL/STM32H7xx_HAL_Driver/Src/stm32h7xx_hal_gpio.c:212:20
	ldr	r3, [sp, #52]
	.loc	5 212 29                        @ libraries/STM32H7xx_HAL/STM32H7xx_HAL_Driver/Src/stm32h7xx_hal_gpio.c:212:29
	and.w	r2, r2, r3, lsr #1
	.loc	5 212 16                        @ libraries/STM32H7xx_HAL/STM32H7xx_HAL_Driver/Src/stm32h7xx_hal_gpio.c:212:16
	add	r1, r2
	.loc	5 212 36                        @ libraries/STM32H7xx_HAL/STM32H7xx_HAL_Driver/Src/stm32h7xx_hal_gpio.c:212:36
	str	r0, [r1, #32]
	.loc	5 213 7 is_stmt 1               @ libraries/STM32H7xx_HAL/STM32H7xx_HAL_Driver/Src/stm32h7xx_hal_gpio.c:213:7
	b	.LBB0_6
.Ltmp7:
.LBB0_6:                                @   in Loop: Header=BB0_1 Depth=1
	.loc	5 216 14                        @ libraries/STM32H7xx_HAL/STM32H7xx_HAL_Driver/Src/stm32h7xx_hal_gpio.c:216:14
	ldr	r0, [sp, #60]
	.loc	5 216 21 is_stmt 0              @ libraries/STM32H7xx_HAL/STM32H7xx_HAL_Driver/Src/stm32h7xx_hal_gpio.c:216:21
	ldr	r0, [r0]
	.loc	5 216 12                        @ libraries/STM32H7xx_HAL/STM32H7xx_HAL_Driver/Src/stm32h7xx_hal_gpio.c:216:12
	str	r0, [sp, #44]
	.loc	5 217 38 is_stmt 1              @ libraries/STM32H7xx_HAL/STM32H7xx_HAL_Driver/Src/stm32h7xx_hal_gpio.c:217:38
	ldr	r0, [sp, #52]
	.loc	5 217 47 is_stmt 0              @ libraries/STM32H7xx_HAL/STM32H7xx_HAL_Driver/Src/stm32h7xx_hal_gpio.c:217:47
	lsls	r1, r0, #1
	movs	r0, #3
	.loc	5 217 34                        @ libraries/STM32H7xx_HAL/STM32H7xx_HAL_Driver/Src/stm32h7xx_hal_gpio.c:217:34
	lsl.w	r1, r0, r1
	.loc	5 217 12                        @ libraries/STM32H7xx_HAL/STM32H7xx_HAL_Driver/Src/stm32h7xx_hal_gpio.c:217:12
	ldr	r0, [sp, #44]
	bics	r0, r1
	str	r0, [sp, #44]
	.loc	5 218 17 is_stmt 1              @ libraries/STM32H7xx_HAL/STM32H7xx_HAL_Driver/Src/stm32h7xx_hal_gpio.c:218:17
	ldr	r0, [sp, #56]
	.loc	5 218 28 is_stmt 0              @ libraries/STM32H7xx_HAL/STM32H7xx_HAL_Driver/Src/stm32h7xx_hal_gpio.c:218:28
	ldr	r0, [r0, #4]
	.loc	5 218 33                        @ libraries/STM32H7xx_HAL/STM32H7xx_HAL_Driver/Src/stm32h7xx_hal_gpio.c:218:33
	and	r0, r0, #3
	.loc	5 218 50                        @ libraries/STM32H7xx_HAL/STM32H7xx_HAL_Driver/Src/stm32h7xx_hal_gpio.c:218:50
	ldr	r1, [sp, #52]
	.loc	5 218 59                        @ libraries/STM32H7xx_HAL/STM32H7xx_HAL_Driver/Src/stm32h7xx_hal_gpio.c:218:59
	lsls	r1, r1, #1
	.loc	5 218 46                        @ libraries/STM32H7xx_HAL/STM32H7xx_HAL_Driver/Src/stm32h7xx_hal_gpio.c:218:46
	lsl.w	r1, r0, r1
	.loc	5 218 12                        @ libraries/STM32H7xx_HAL/STM32H7xx_HAL_Driver/Src/stm32h7xx_hal_gpio.c:218:12
	ldr	r0, [sp, #44]
	orrs	r0, r1
	str	r0, [sp, #44]
	.loc	5 219 22 is_stmt 1              @ libraries/STM32H7xx_HAL/STM32H7xx_HAL_Driver/Src/stm32h7xx_hal_gpio.c:219:22
	ldr	r0, [sp, #44]
	.loc	5 219 7 is_stmt 0               @ libraries/STM32H7xx_HAL/STM32H7xx_HAL_Driver/Src/stm32h7xx_hal_gpio.c:219:7
	ldr	r1, [sp, #60]
	.loc	5 219 20                        @ libraries/STM32H7xx_HAL/STM32H7xx_HAL_Driver/Src/stm32h7xx_hal_gpio.c:219:20
	str	r0, [r1]
.Ltmp8:
	.loc	5 222 12 is_stmt 1              @ libraries/STM32H7xx_HAL/STM32H7xx_HAL_Driver/Src/stm32h7xx_hal_gpio.c:222:12
	ldr	r0, [sp, #56]
	.loc	5 222 23 is_stmt 0              @ libraries/STM32H7xx_HAL/STM32H7xx_HAL_Driver/Src/stm32h7xx_hal_gpio.c:222:23
	ldr	r0, [r0, #4]
	.loc	5 222 52                        @ libraries/STM32H7xx_HAL/STM32H7xx_HAL_Driver/Src/stm32h7xx_hal_gpio.c:222:52
	cmp	r0, #1
	beq	.LBB0_10
	b	.LBB0_7
.LBB0_7:                                @   in Loop: Header=BB0_1 Depth=1
	.loc	5 222 56                        @ libraries/STM32H7xx_HAL/STM32H7xx_HAL_Driver/Src/stm32h7xx_hal_gpio.c:222:56
	ldr	r0, [sp, #56]
	.loc	5 222 67                        @ libraries/STM32H7xx_HAL/STM32H7xx_HAL_Driver/Src/stm32h7xx_hal_gpio.c:222:67
	ldr	r0, [r0, #4]
	.loc	5 222 92                        @ libraries/STM32H7xx_HAL/STM32H7xx_HAL_Driver/Src/stm32h7xx_hal_gpio.c:222:92
	cmp	r0, #2
	beq	.LBB0_10
	b	.LBB0_8
.LBB0_8:                                @   in Loop: Header=BB0_1 Depth=1
	.loc	5 223 12 is_stmt 1              @ libraries/STM32H7xx_HAL/STM32H7xx_HAL_Driver/Src/stm32h7xx_hal_gpio.c:223:12
	ldr	r0, [sp, #56]
	.loc	5 223 23 is_stmt 0              @ libraries/STM32H7xx_HAL/STM32H7xx_HAL_Driver/Src/stm32h7xx_hal_gpio.c:223:23
	ldr	r0, [r0, #4]
	.loc	5 223 52                        @ libraries/STM32H7xx_HAL/STM32H7xx_HAL_Driver/Src/stm32h7xx_hal_gpio.c:223:52
	cmp	r0, #17
	beq	.LBB0_10
	b	.LBB0_9
.LBB0_9:                                @   in Loop: Header=BB0_1 Depth=1
	.loc	5 223 56                        @ libraries/STM32H7xx_HAL/STM32H7xx_HAL_Driver/Src/stm32h7xx_hal_gpio.c:223:56
	ldr	r0, [sp, #56]
	.loc	5 223 67                        @ libraries/STM32H7xx_HAL/STM32H7xx_HAL_Driver/Src/stm32h7xx_hal_gpio.c:223:67
	ldr	r0, [r0, #4]
.Ltmp9:
	.loc	5 222 11 is_stmt 1              @ libraries/STM32H7xx_HAL/STM32H7xx_HAL_Driver/Src/stm32h7xx_hal_gpio.c:222:11
	cmp	r0, #18
	bne	.LBB0_11
	b	.LBB0_10
.LBB0_10:                               @   in Loop: Header=BB0_1 Depth=1
.Ltmp10:
	.loc	5 228 16                        @ libraries/STM32H7xx_HAL/STM32H7xx_HAL_Driver/Src/stm32h7xx_hal_gpio.c:228:16
	ldr	r0, [sp, #60]
	.loc	5 228 23 is_stmt 0              @ libraries/STM32H7xx_HAL/STM32H7xx_HAL_Driver/Src/stm32h7xx_hal_gpio.c:228:23
	ldr	r0, [r0, #8]
	.loc	5 228 14                        @ libraries/STM32H7xx_HAL/STM32H7xx_HAL_Driver/Src/stm32h7xx_hal_gpio.c:228:14
	str	r0, [sp, #44]
	.loc	5 229 44 is_stmt 1              @ libraries/STM32H7xx_HAL/STM32H7xx_HAL_Driver/Src/stm32h7xx_hal_gpio.c:229:44
	ldr	r0, [sp, #52]
	.loc	5 229 53 is_stmt 0              @ libraries/STM32H7xx_HAL/STM32H7xx_HAL_Driver/Src/stm32h7xx_hal_gpio.c:229:53
	lsls	r1, r0, #1
	movs	r0, #3
	.loc	5 229 40                        @ libraries/STM32H7xx_HAL/STM32H7xx_HAL_Driver/Src/stm32h7xx_hal_gpio.c:229:40
	lsl.w	r1, r0, r1
	.loc	5 229 14                        @ libraries/STM32H7xx_HAL/STM32H7xx_HAL_Driver/Src/stm32h7xx_hal_gpio.c:229:14
	ldr	r0, [sp, #44]
	bics	r0, r1
	str	r0, [sp, #44]
	.loc	5 230 18 is_stmt 1              @ libraries/STM32H7xx_HAL/STM32H7xx_HAL_Driver/Src/stm32h7xx_hal_gpio.c:230:18
	ldr	r0, [sp, #56]
	.loc	5 230 29 is_stmt 0              @ libraries/STM32H7xx_HAL/STM32H7xx_HAL_Driver/Src/stm32h7xx_hal_gpio.c:230:29
	ldr	r0, [r0, #12]
	.loc	5 230 39                        @ libraries/STM32H7xx_HAL/STM32H7xx_HAL_Driver/Src/stm32h7xx_hal_gpio.c:230:39
	ldr	r1, [sp, #52]
	.loc	5 230 48                        @ libraries/STM32H7xx_HAL/STM32H7xx_HAL_Driver/Src/stm32h7xx_hal_gpio.c:230:48
	lsls	r1, r1, #1
	.loc	5 230 35                        @ libraries/STM32H7xx_HAL/STM32H7xx_HAL_Driver/Src/stm32h7xx_hal_gpio.c:230:35
	lsl.w	r1, r0, r1
	.loc	5 230 14                        @ libraries/STM32H7xx_HAL/STM32H7xx_HAL_Driver/Src/stm32h7xx_hal_gpio.c:230:14
	ldr	r0, [sp, #44]
	orrs	r0, r1
	str	r0, [sp, #44]
	.loc	5 231 26 is_stmt 1              @ libraries/STM32H7xx_HAL/STM32H7xx_HAL_Driver/Src/stm32h7xx_hal_gpio.c:231:26
	ldr	r0, [sp, #44]
	.loc	5 231 9 is_stmt 0               @ libraries/STM32H7xx_HAL/STM32H7xx_HAL_Driver/Src/stm32h7xx_hal_gpio.c:231:9
	ldr	r1, [sp, #60]
	.loc	5 231 24                        @ libraries/STM32H7xx_HAL/STM32H7xx_HAL_Driver/Src/stm32h7xx_hal_gpio.c:231:24
	str	r0, [r1, #8]
	.loc	5 234 16 is_stmt 1              @ libraries/STM32H7xx_HAL/STM32H7xx_HAL_Driver/Src/stm32h7xx_hal_gpio.c:234:16
	ldr	r0, [sp, #60]
	.loc	5 234 23 is_stmt 0              @ libraries/STM32H7xx_HAL/STM32H7xx_HAL_Driver/Src/stm32h7xx_hal_gpio.c:234:23
	ldr	r0, [r0, #4]
	.loc	5 234 14                        @ libraries/STM32H7xx_HAL/STM32H7xx_HAL_Driver/Src/stm32h7xx_hal_gpio.c:234:14
	str	r0, [sp, #44]
	.loc	5 235 38 is_stmt 1              @ libraries/STM32H7xx_HAL/STM32H7xx_HAL_Driver/Src/stm32h7xx_hal_gpio.c:235:38
	ldr	r1, [sp, #52]
	movs	r0, #1
	.loc	5 235 35 is_stmt 0              @ libraries/STM32H7xx_HAL/STM32H7xx_HAL_Driver/Src/stm32h7xx_hal_gpio.c:235:35
	lsl.w	r1, r0, r1
	.loc	5 235 14                        @ libraries/STM32H7xx_HAL/STM32H7xx_HAL_Driver/Src/stm32h7xx_hal_gpio.c:235:14
	ldr	r0, [sp, #44]
	bics	r0, r1
	str	r0, [sp, #44]
	.loc	5 236 20 is_stmt 1              @ libraries/STM32H7xx_HAL/STM32H7xx_HAL_Driver/Src/stm32h7xx_hal_gpio.c:236:20
	ldr	r0, [sp, #56]
	.loc	5 236 31 is_stmt 0              @ libraries/STM32H7xx_HAL/STM32H7xx_HAL_Driver/Src/stm32h7xx_hal_gpio.c:236:31
	ldr	r0, [r0, #4]
	.loc	5 236 56                        @ libraries/STM32H7xx_HAL/STM32H7xx_HAL_Driver/Src/stm32h7xx_hal_gpio.c:236:56
	ubfx	r0, r0, #4, #1
	.loc	5 236 66                        @ libraries/STM32H7xx_HAL/STM32H7xx_HAL_Driver/Src/stm32h7xx_hal_gpio.c:236:66
	ldr	r1, [sp, #52]
	.loc	5 236 63                        @ libraries/STM32H7xx_HAL/STM32H7xx_HAL_Driver/Src/stm32h7xx_hal_gpio.c:236:63
	lsl.w	r1, r0, r1
	.loc	5 236 14                        @ libraries/STM32H7xx_HAL/STM32H7xx_HAL_Driver/Src/stm32h7xx_hal_gpio.c:236:14
	ldr	r0, [sp, #44]
	orrs	r0, r1
	str	r0, [sp, #44]
	.loc	5 237 25 is_stmt 1              @ libraries/STM32H7xx_HAL/STM32H7xx_HAL_Driver/Src/stm32h7xx_hal_gpio.c:237:25
	ldr	r0, [sp, #44]
	.loc	5 237 9 is_stmt 0               @ libraries/STM32H7xx_HAL/STM32H7xx_HAL_Driver/Src/stm32h7xx_hal_gpio.c:237:9
	ldr	r1, [sp, #60]
	.loc	5 237 23                        @ libraries/STM32H7xx_HAL/STM32H7xx_HAL_Driver/Src/stm32h7xx_hal_gpio.c:237:23
	str	r0, [r1, #4]
	.loc	5 238 7 is_stmt 1               @ libraries/STM32H7xx_HAL/STM32H7xx_HAL_Driver/Src/stm32h7xx_hal_gpio.c:238:7
	b	.LBB0_11
.Ltmp11:
.LBB0_11:                               @   in Loop: Header=BB0_1 Depth=1
	.loc	5 241 14                        @ libraries/STM32H7xx_HAL/STM32H7xx_HAL_Driver/Src/stm32h7xx_hal_gpio.c:241:14
	ldr	r0, [sp, #60]
	.loc	5 241 21 is_stmt 0              @ libraries/STM32H7xx_HAL/STM32H7xx_HAL_Driver/Src/stm32h7xx_hal_gpio.c:241:21
	ldr	r0, [r0, #12]
	.loc	5 241 12                        @ libraries/STM32H7xx_HAL/STM32H7xx_HAL_Driver/Src/stm32h7xx_hal_gpio.c:241:12
	str	r0, [sp, #44]
	.loc	5 242 38 is_stmt 1              @ libraries/STM32H7xx_HAL/STM32H7xx_HAL_Driver/Src/stm32h7xx_hal_gpio.c:242:38
	ldr	r0, [sp, #52]
	.loc	5 242 47 is_stmt 0              @ libraries/STM32H7xx_HAL/STM32H7xx_HAL_Driver/Src/stm32h7xx_hal_gpio.c:242:47
	lsls	r1, r0, #1
	movs	r0, #3
	.loc	5 242 34                        @ libraries/STM32H7xx_HAL/STM32H7xx_HAL_Driver/Src/stm32h7xx_hal_gpio.c:242:34
	lsl.w	r1, r0, r1
	.loc	5 242 12                        @ libraries/STM32H7xx_HAL/STM32H7xx_HAL_Driver/Src/stm32h7xx_hal_gpio.c:242:12
	ldr	r0, [sp, #44]
	bics	r0, r1
	str	r0, [sp, #44]
	.loc	5 243 17 is_stmt 1              @ libraries/STM32H7xx_HAL/STM32H7xx_HAL_Driver/Src/stm32h7xx_hal_gpio.c:243:17
	ldr	r0, [sp, #56]
	.loc	5 243 28 is_stmt 0              @ libraries/STM32H7xx_HAL/STM32H7xx_HAL_Driver/Src/stm32h7xx_hal_gpio.c:243:28
	ldr	r0, [r0, #8]
	.loc	5 243 38                        @ libraries/STM32H7xx_HAL/STM32H7xx_HAL_Driver/Src/stm32h7xx_hal_gpio.c:243:38
	ldr	r1, [sp, #52]
	.loc	5 243 47                        @ libraries/STM32H7xx_HAL/STM32H7xx_HAL_Driver/Src/stm32h7xx_hal_gpio.c:243:47
	lsls	r1, r1, #1
	.loc	5 243 34                        @ libraries/STM32H7xx_HAL/STM32H7xx_HAL_Driver/Src/stm32h7xx_hal_gpio.c:243:34
	lsl.w	r1, r0, r1
	.loc	5 243 12                        @ libraries/STM32H7xx_HAL/STM32H7xx_HAL_Driver/Src/stm32h7xx_hal_gpio.c:243:12
	ldr	r0, [sp, #44]
	orrs	r0, r1
	str	r0, [sp, #44]
	.loc	5 244 22 is_stmt 1              @ libraries/STM32H7xx_HAL/STM32H7xx_HAL_Driver/Src/stm32h7xx_hal_gpio.c:244:22
	ldr	r0, [sp, #44]
	.loc	5 244 7 is_stmt 0               @ libraries/STM32H7xx_HAL/STM32H7xx_HAL_Driver/Src/stm32h7xx_hal_gpio.c:244:7
	ldr	r1, [sp, #60]
	.loc	5 244 20                        @ libraries/STM32H7xx_HAL/STM32H7xx_HAL_Driver/Src/stm32h7xx_hal_gpio.c:244:20
	str	r0, [r1, #12]
.Ltmp12:
	.loc	5 248 12 is_stmt 1              @ libraries/STM32H7xx_HAL/STM32H7xx_HAL_Driver/Src/stm32h7xx_hal_gpio.c:248:12
	ldr	r0, [sp, #56]
.Ltmp13:
	.loc	5 248 11 is_stmt 0              @ libraries/STM32H7xx_HAL/STM32H7xx_HAL_Driver/Src/stm32h7xx_hal_gpio.c:248:11
	ldrb	r0, [r0, #7]
	lsls	r0, r0, #27
	cmp	r0, #0
	bpl.w	.LBB0_50
	b	.LBB0_12
.LBB0_12:                               @   in Loop: Header=BB0_1 Depth=1
.Ltmp14:
	.loc	5 251 9 is_stmt 1               @ libraries/STM32H7xx_HAL/STM32H7xx_HAL_Driver/Src/stm32h7xx_hal_gpio.c:251:9
	b	.LBB0_13
.LBB0_13:                               @   in Loop: Header=BB0_1 Depth=1
	.loc	5 0 9 is_stmt 0                 @ libraries/STM32H7xx_HAL/STM32H7xx_HAL_Driver/Src/stm32h7xx_hal_gpio.c:0:9
	movw	r0, #17652
	movt	r0, #22530
.Ltmp15:
	.loc	5 251 9                         @ libraries/STM32H7xx_HAL/STM32H7xx_HAL_Driver/Src/stm32h7xx_hal_gpio.c:251:9
	ldr	r1, [r0]
	orr	r1, r1, #2
	str	r1, [r0]
	ldr	r0, [r0]
	and	r0, r0, #2
	str	r0, [sp, #36]
	ldr	r0, [sp, #36]
	b	.LBB0_14
.Ltmp16:
.LBB0_14:                               @   in Loop: Header=BB0_1 Depth=1
	.loc	5 253 31 is_stmt 1              @ libraries/STM32H7xx_HAL/STM32H7xx_HAL_Driver/Src/stm32h7xx_hal_gpio.c:253:31
	ldr	r0, [sp, #52]
	.loc	5 253 40 is_stmt 0              @ libraries/STM32H7xx_HAL/STM32H7xx_HAL_Driver/Src/stm32h7xx_hal_gpio.c:253:40
	bic	r0, r0, #3
	movw	r1, #1032
	movt	r1, #22528
	.loc	5 253 16                        @ libraries/STM32H7xx_HAL/STM32H7xx_HAL_Driver/Src/stm32h7xx_hal_gpio.c:253:16
	ldr	r0, [r0, r1]
	.loc	5 253 14                        @ libraries/STM32H7xx_HAL/STM32H7xx_HAL_Driver/Src/stm32h7xx_hal_gpio.c:253:14
	str	r0, [sp, #44]
	.loc	5 254 36 is_stmt 1              @ libraries/STM32H7xx_HAL/STM32H7xx_HAL_Driver/Src/stm32h7xx_hal_gpio.c:254:36
	ldr	r0, [sp, #52]
	.loc	5 254 45 is_stmt 0              @ libraries/STM32H7xx_HAL/STM32H7xx_HAL_Driver/Src/stm32h7xx_hal_gpio.c:254:45
	and	r0, r0, #3
	.loc	5 254 33                        @ libraries/STM32H7xx_HAL/STM32H7xx_HAL_Driver/Src/stm32h7xx_hal_gpio.c:254:33
	lsls	r1, r0, #2
	movs	r0, #15
	.loc	5 254 26                        @ libraries/STM32H7xx_HAL/STM32H7xx_HAL_Driver/Src/stm32h7xx_hal_gpio.c:254:26
	lsl.w	r1, r0, r1
	.loc	5 254 14                        @ libraries/STM32H7xx_HAL/STM32H7xx_HAL_Driver/Src/stm32h7xx_hal_gpio.c:254:14
	ldr	r0, [sp, #44]
	bics	r0, r1
	str	r0, [sp, #44]
	.loc	5 255 18 is_stmt 1              @ libraries/STM32H7xx_HAL/STM32H7xx_HAL_Driver/Src/stm32h7xx_hal_gpio.c:255:18
	ldr	r0, [sp, #60]
	movs	r1, #0
	movt	r1, #22530
	cmp	r0, r1
	bne	.LBB0_16
	b	.LBB0_15
.LBB0_15:                               @   in Loop: Header=BB0_1 Depth=1
	.loc	5 0 18 is_stmt 0                @ libraries/STM32H7xx_HAL/STM32H7xx_HAL_Driver/Src/stm32h7xx_hal_gpio.c:0:18
	movs	r0, #0
	.loc	5 255 18                        @ libraries/STM32H7xx_HAL/STM32H7xx_HAL_Driver/Src/stm32h7xx_hal_gpio.c:255:18
	str	r0, [sp, #32]                   @ 4-byte Spill
	b	.LBB0_41
.LBB0_16:                               @   in Loop: Header=BB0_1 Depth=1
	ldr	r0, [sp, #60]
	movw	r1, #1024
	movt	r1, #22530
	cmp	r0, r1
	bne	.LBB0_18
	b	.LBB0_17
.LBB0_17:                               @   in Loop: Header=BB0_1 Depth=1
	.loc	5 0 18                          @ libraries/STM32H7xx_HAL/STM32H7xx_HAL_Driver/Src/stm32h7xx_hal_gpio.c:0:18
	movs	r0, #1
	.loc	5 255 18                        @ libraries/STM32H7xx_HAL/STM32H7xx_HAL_Driver/Src/stm32h7xx_hal_gpio.c:255:18
	str	r0, [sp, #28]                   @ 4-byte Spill
	b	.LBB0_40
.LBB0_18:                               @   in Loop: Header=BB0_1 Depth=1
	ldr	r0, [sp, #60]
	movw	r1, #2048
	movt	r1, #22530
	cmp	r0, r1
	bne	.LBB0_20
	b	.LBB0_19
.LBB0_19:                               @   in Loop: Header=BB0_1 Depth=1
	.loc	5 0 18                          @ libraries/STM32H7xx_HAL/STM32H7xx_HAL_Driver/Src/stm32h7xx_hal_gpio.c:0:18
	movs	r0, #2
	.loc	5 255 18                        @ libraries/STM32H7xx_HAL/STM32H7xx_HAL_Driver/Src/stm32h7xx_hal_gpio.c:255:18
	str	r0, [sp, #24]                   @ 4-byte Spill
	b	.LBB0_39
.LBB0_20:                               @   in Loop: Header=BB0_1 Depth=1
	ldr	r0, [sp, #60]
	movw	r1, #3072
	movt	r1, #22530
	cmp	r0, r1
	bne	.LBB0_22
	b	.LBB0_21
.LBB0_21:                               @   in Loop: Header=BB0_1 Depth=1
	.loc	5 0 18                          @ libraries/STM32H7xx_HAL/STM32H7xx_HAL_Driver/Src/stm32h7xx_hal_gpio.c:0:18
	movs	r0, #3
	.loc	5 255 18                        @ libraries/STM32H7xx_HAL/STM32H7xx_HAL_Driver/Src/stm32h7xx_hal_gpio.c:255:18
	str	r0, [sp, #20]                   @ 4-byte Spill
	b	.LBB0_38
.LBB0_22:                               @   in Loop: Header=BB0_1 Depth=1
	ldr	r0, [sp, #60]
	movw	r1, #4096
	movt	r1, #22530
	cmp	r0, r1
	bne	.LBB0_24
	b	.LBB0_23
.LBB0_23:                               @   in Loop: Header=BB0_1 Depth=1
	.loc	5 0 18                          @ libraries/STM32H7xx_HAL/STM32H7xx_HAL_Driver/Src/stm32h7xx_hal_gpio.c:0:18
	movs	r0, #4
	.loc	5 255 18                        @ libraries/STM32H7xx_HAL/STM32H7xx_HAL_Driver/Src/stm32h7xx_hal_gpio.c:255:18
	str	r0, [sp, #16]                   @ 4-byte Spill
	b	.LBB0_37
.LBB0_24:                               @   in Loop: Header=BB0_1 Depth=1
	ldr	r0, [sp, #60]
	movw	r1, #5120
	movt	r1, #22530
	cmp	r0, r1
	bne	.LBB0_26
	b	.LBB0_25
.LBB0_25:                               @   in Loop: Header=BB0_1 Depth=1
	.loc	5 0 18                          @ libraries/STM32H7xx_HAL/STM32H7xx_HAL_Driver/Src/stm32h7xx_hal_gpio.c:0:18
	movs	r0, #5
	.loc	5 255 18                        @ libraries/STM32H7xx_HAL/STM32H7xx_HAL_Driver/Src/stm32h7xx_hal_gpio.c:255:18
	str	r0, [sp, #12]                   @ 4-byte Spill
	b	.LBB0_36
.LBB0_26:                               @   in Loop: Header=BB0_1 Depth=1
	ldr	r0, [sp, #60]
	movw	r1, #6144
	movt	r1, #22530
	cmp	r0, r1
	bne	.LBB0_28
	b	.LBB0_27
.LBB0_27:                               @   in Loop: Header=BB0_1 Depth=1
	.loc	5 0 18                          @ libraries/STM32H7xx_HAL/STM32H7xx_HAL_Driver/Src/stm32h7xx_hal_gpio.c:0:18
	movs	r0, #6
	.loc	5 255 18                        @ libraries/STM32H7xx_HAL/STM32H7xx_HAL_Driver/Src/stm32h7xx_hal_gpio.c:255:18
	str	r0, [sp, #8]                    @ 4-byte Spill
	b	.LBB0_35
.LBB0_28:                               @   in Loop: Header=BB0_1 Depth=1
	ldr	r0, [sp, #60]
	movw	r1, #7168
	movt	r1, #22530
	cmp	r0, r1
	bne	.LBB0_30
	b	.LBB0_29
.LBB0_29:                               @   in Loop: Header=BB0_1 Depth=1
	.loc	5 0 18                          @ libraries/STM32H7xx_HAL/STM32H7xx_HAL_Driver/Src/stm32h7xx_hal_gpio.c:0:18
	movs	r0, #7
	.loc	5 255 18                        @ libraries/STM32H7xx_HAL/STM32H7xx_HAL_Driver/Src/stm32h7xx_hal_gpio.c:255:18
	str	r0, [sp, #4]                    @ 4-byte Spill
	b	.LBB0_34
.LBB0_30:                               @   in Loop: Header=BB0_1 Depth=1
	ldr	r0, [sp, #60]
	movw	r1, #8192
	movt	r1, #22530
	cmp	r0, r1
	bne	.LBB0_32
	b	.LBB0_31
.LBB0_31:                               @   in Loop: Header=BB0_1 Depth=1
	.loc	5 0 18                          @ libraries/STM32H7xx_HAL/STM32H7xx_HAL_Driver/Src/stm32h7xx_hal_gpio.c:0:18
	movs	r0, #8
	.loc	5 255 18                        @ libraries/STM32H7xx_HAL/STM32H7xx_HAL_Driver/Src/stm32h7xx_hal_gpio.c:255:18
	str	r0, [sp]                        @ 4-byte Spill
	b	.LBB0_33
.LBB0_32:                               @   in Loop: Header=BB0_1 Depth=1
	ldr	r1, [sp, #60]
	movw	r2, #9216
	movt	r2, #22530
	movs	r0, #10
	cmp	r1, r2
	it	eq
	moveq	r0, #9
	str	r0, [sp]                        @ 4-byte Spill
	b	.LBB0_33
.LBB0_33:                               @   in Loop: Header=BB0_1 Depth=1
	ldr	r0, [sp]                        @ 4-byte Reload
	str	r0, [sp, #4]                    @ 4-byte Spill
	b	.LBB0_34
.LBB0_34:                               @   in Loop: Header=BB0_1 Depth=1
	ldr	r0, [sp, #4]                    @ 4-byte Reload
	str	r0, [sp, #8]                    @ 4-byte Spill
	b	.LBB0_35
.LBB0_35:                               @   in Loop: Header=BB0_1 Depth=1
	ldr	r0, [sp, #8]                    @ 4-byte Reload
	str	r0, [sp, #12]                   @ 4-byte Spill
	b	.LBB0_36
.LBB0_36:                               @   in Loop: Header=BB0_1 Depth=1
	ldr	r0, [sp, #12]                   @ 4-byte Reload
	str	r0, [sp, #16]                   @ 4-byte Spill
	b	.LBB0_37
.LBB0_37:                               @   in Loop: Header=BB0_1 Depth=1
	ldr	r0, [sp, #16]                   @ 4-byte Reload
	str	r0, [sp, #20]                   @ 4-byte Spill
	b	.LBB0_38
.LBB0_38:                               @   in Loop: Header=BB0_1 Depth=1
	ldr	r0, [sp, #20]                   @ 4-byte Reload
	str	r0, [sp, #24]                   @ 4-byte Spill
	b	.LBB0_39
.LBB0_39:                               @   in Loop: Header=BB0_1 Depth=1
	ldr	r0, [sp, #24]                   @ 4-byte Reload
	str	r0, [sp, #28]                   @ 4-byte Spill
	b	.LBB0_40
.LBB0_40:                               @   in Loop: Header=BB0_1 Depth=1
	ldr	r0, [sp, #28]                   @ 4-byte Reload
	str	r0, [sp, #32]                   @ 4-byte Spill
	b	.LBB0_41
.LBB0_41:                               @   in Loop: Header=BB0_1 Depth=1
	ldr	r0, [sp, #32]                   @ 4-byte Reload
	.loc	5 255 50                        @ libraries/STM32H7xx_HAL/STM32H7xx_HAL_Driver/Src/stm32h7xx_hal_gpio.c:255:50
	ldr	r1, [sp, #52]
	.loc	5 255 59                        @ libraries/STM32H7xx_HAL/STM32H7xx_HAL_Driver/Src/stm32h7xx_hal_gpio.c:255:59
	and	r1, r1, #3
	.loc	5 255 47                        @ libraries/STM32H7xx_HAL/STM32H7xx_HAL_Driver/Src/stm32h7xx_hal_gpio.c:255:47
	lsls	r1, r1, #2
	.loc	5 255 40                        @ libraries/STM32H7xx_HAL/STM32H7xx_HAL_Driver/Src/stm32h7xx_hal_gpio.c:255:40
	lsl.w	r1, r0, r1
	.loc	5 255 14                        @ libraries/STM32H7xx_HAL/STM32H7xx_HAL_Driver/Src/stm32h7xx_hal_gpio.c:255:14
	ldr	r0, [sp, #44]
	orrs	r0, r1
	str	r0, [sp, #44]
	.loc	5 256 42 is_stmt 1              @ libraries/STM32H7xx_HAL/STM32H7xx_HAL_Driver/Src/stm32h7xx_hal_gpio.c:256:42
	ldr	r0, [sp, #44]
	.loc	5 256 24 is_stmt 0              @ libraries/STM32H7xx_HAL/STM32H7xx_HAL_Driver/Src/stm32h7xx_hal_gpio.c:256:24
	ldr	r1, [sp, #52]
	.loc	5 256 33                        @ libraries/STM32H7xx_HAL/STM32H7xx_HAL_Driver/Src/stm32h7xx_hal_gpio.c:256:33
	bic	r1, r1, #3
	movw	r2, #1032
	movt	r2, #22528
	.loc	5 256 40                        @ libraries/STM32H7xx_HAL/STM32H7xx_HAL_Driver/Src/stm32h7xx_hal_gpio.c:256:40
	str	r0, [r1, r2]
	.loc	5 259 16 is_stmt 1              @ libraries/STM32H7xx_HAL/STM32H7xx_HAL_Driver/Src/stm32h7xx_hal_gpio.c:259:16
	ldr	r0, [sp, #40]
	.loc	5 259 33 is_stmt 0              @ libraries/STM32H7xx_HAL/STM32H7xx_HAL_Driver/Src/stm32h7xx_hal_gpio.c:259:33
	ldr	r0, [r0]
	.loc	5 259 14                        @ libraries/STM32H7xx_HAL/STM32H7xx_HAL_Driver/Src/stm32h7xx_hal_gpio.c:259:14
	str	r0, [sp, #44]
	.loc	5 260 19 is_stmt 1              @ libraries/STM32H7xx_HAL/STM32H7xx_HAL_Driver/Src/stm32h7xx_hal_gpio.c:260:19
	ldr	r1, [sp, #48]
	.loc	5 260 14 is_stmt 0              @ libraries/STM32H7xx_HAL/STM32H7xx_HAL_Driver/Src/stm32h7xx_hal_gpio.c:260:14
	ldr	r0, [sp, #44]
	bics	r0, r1
	str	r0, [sp, #44]
.Ltmp17:
	.loc	5 261 14 is_stmt 1              @ libraries/STM32H7xx_HAL/STM32H7xx_HAL_Driver/Src/stm32h7xx_hal_gpio.c:261:14
	ldr	r0, [sp, #56]
.Ltmp18:
	.loc	5 261 13 is_stmt 0              @ libraries/STM32H7xx_HAL/STM32H7xx_HAL_Driver/Src/stm32h7xx_hal_gpio.c:261:13
	ldrb	r0, [r0, #6]
	lsls	r0, r0, #31
	cbz	r0, .LBB0_43
	b	.LBB0_42
.LBB0_42:                               @   in Loop: Header=BB0_1 Depth=1
.Ltmp19:
	.loc	5 263 19 is_stmt 1              @ libraries/STM32H7xx_HAL/STM32H7xx_HAL_Driver/Src/stm32h7xx_hal_gpio.c:263:19
	ldr	r1, [sp, #48]
	.loc	5 263 16 is_stmt 0              @ libraries/STM32H7xx_HAL/STM32H7xx_HAL_Driver/Src/stm32h7xx_hal_gpio.c:263:16
	ldr	r0, [sp, #44]
	orrs	r0, r1
	str	r0, [sp, #44]
	.loc	5 264 9 is_stmt 1               @ libraries/STM32H7xx_HAL/STM32H7xx_HAL_Driver/Src/stm32h7xx_hal_gpio.c:264:9
	b	.LBB0_43
.Ltmp20:
.LBB0_43:                               @   in Loop: Header=BB0_1 Depth=1
	.loc	5 265 33                        @ libraries/STM32H7xx_HAL/STM32H7xx_HAL_Driver/Src/stm32h7xx_hal_gpio.c:265:33
	ldr	r0, [sp, #44]
	.loc	5 265 9 is_stmt 0               @ libraries/STM32H7xx_HAL/STM32H7xx_HAL_Driver/Src/stm32h7xx_hal_gpio.c:265:9
	ldr	r1, [sp, #40]
	.loc	5 265 31                        @ libraries/STM32H7xx_HAL/STM32H7xx_HAL_Driver/Src/stm32h7xx_hal_gpio.c:265:31
	str	r0, [r1]
	.loc	5 267 16 is_stmt 1              @ libraries/STM32H7xx_HAL/STM32H7xx_HAL_Driver/Src/stm32h7xx_hal_gpio.c:267:16
	ldr	r0, [sp, #40]
	.loc	5 267 33 is_stmt 0              @ libraries/STM32H7xx_HAL/STM32H7xx_HAL_Driver/Src/stm32h7xx_hal_gpio.c:267:33
	ldr	r0, [r0, #4]
	.loc	5 267 14                        @ libraries/STM32H7xx_HAL/STM32H7xx_HAL_Driver/Src/stm32h7xx_hal_gpio.c:267:14
	str	r0, [sp, #44]
	.loc	5 268 19 is_stmt 1              @ libraries/STM32H7xx_HAL/STM32H7xx_HAL_Driver/Src/stm32h7xx_hal_gpio.c:268:19
	ldr	r1, [sp, #48]
	.loc	5 268 14 is_stmt 0              @ libraries/STM32H7xx_HAL/STM32H7xx_HAL_Driver/Src/stm32h7xx_hal_gpio.c:268:14
	ldr	r0, [sp, #44]
	bics	r0, r1
	str	r0, [sp, #44]
.Ltmp21:
	.loc	5 269 14 is_stmt 1              @ libraries/STM32H7xx_HAL/STM32H7xx_HAL_Driver/Src/stm32h7xx_hal_gpio.c:269:14
	ldr	r0, [sp, #56]
.Ltmp22:
	.loc	5 269 13 is_stmt 0              @ libraries/STM32H7xx_HAL/STM32H7xx_HAL_Driver/Src/stm32h7xx_hal_gpio.c:269:13
	ldrb	r0, [r0, #6]
	lsls	r0, r0, #30
	cmp	r0, #0
	bpl	.LBB0_45
	b	.LBB0_44
.LBB0_44:                               @   in Loop: Header=BB0_1 Depth=1
.Ltmp23:
	.loc	5 271 19 is_stmt 1              @ libraries/STM32H7xx_HAL/STM32H7xx_HAL_Driver/Src/stm32h7xx_hal_gpio.c:271:19
	ldr	r1, [sp, #48]
	.loc	5 271 16 is_stmt 0              @ libraries/STM32H7xx_HAL/STM32H7xx_HAL_Driver/Src/stm32h7xx_hal_gpio.c:271:16
	ldr	r0, [sp, #44]
	orrs	r0, r1
	str	r0, [sp, #44]
	.loc	5 272 9 is_stmt 1               @ libraries/STM32H7xx_HAL/STM32H7xx_HAL_Driver/Src/stm32h7xx_hal_gpio.c:272:9
	b	.LBB0_45
.Ltmp24:
.LBB0_45:                               @   in Loop: Header=BB0_1 Depth=1
	.loc	5 273 33                        @ libraries/STM32H7xx_HAL/STM32H7xx_HAL_Driver/Src/stm32h7xx_hal_gpio.c:273:33
	ldr	r0, [sp, #44]
	.loc	5 273 9 is_stmt 0               @ libraries/STM32H7xx_HAL/STM32H7xx_HAL_Driver/Src/stm32h7xx_hal_gpio.c:273:9
	ldr	r1, [sp, #40]
	.loc	5 273 31                        @ libraries/STM32H7xx_HAL/STM32H7xx_HAL_Driver/Src/stm32h7xx_hal_gpio.c:273:31
	str	r0, [r1, #4]
	mov.w	r0, #1476395008
	.loc	5 276 22 is_stmt 1              @ libraries/STM32H7xx_HAL/STM32H7xx_HAL_Driver/Src/stm32h7xx_hal_gpio.c:276:22
	ldr	r0, [r0]
	.loc	5 276 14 is_stmt 0              @ libraries/STM32H7xx_HAL/STM32H7xx_HAL_Driver/Src/stm32h7xx_hal_gpio.c:276:14
	str	r0, [sp, #44]
	.loc	5 277 19 is_stmt 1              @ libraries/STM32H7xx_HAL/STM32H7xx_HAL_Driver/Src/stm32h7xx_hal_gpio.c:277:19
	ldr	r1, [sp, #48]
	.loc	5 277 14 is_stmt 0              @ libraries/STM32H7xx_HAL/STM32H7xx_HAL_Driver/Src/stm32h7xx_hal_gpio.c:277:14
	ldr	r0, [sp, #44]
	bics	r0, r1
	str	r0, [sp, #44]
.Ltmp25:
	.loc	5 278 14 is_stmt 1              @ libraries/STM32H7xx_HAL/STM32H7xx_HAL_Driver/Src/stm32h7xx_hal_gpio.c:278:14
	ldr	r0, [sp, #56]
.Ltmp26:
	.loc	5 278 13 is_stmt 0              @ libraries/STM32H7xx_HAL/STM32H7xx_HAL_Driver/Src/stm32h7xx_hal_gpio.c:278:13
	ldrb	r0, [r0, #6]
	lsls	r0, r0, #27
	cmp	r0, #0
	bpl	.LBB0_47
	b	.LBB0_46
.LBB0_46:                               @   in Loop: Header=BB0_1 Depth=1
.Ltmp27:
	.loc	5 280 19 is_stmt 1              @ libraries/STM32H7xx_HAL/STM32H7xx_HAL_Driver/Src/stm32h7xx_hal_gpio.c:280:19
	ldr	r1, [sp, #48]
	.loc	5 280 16 is_stmt 0              @ libraries/STM32H7xx_HAL/STM32H7xx_HAL_Driver/Src/stm32h7xx_hal_gpio.c:280:16
	ldr	r0, [sp, #44]
	orrs	r0, r1
	str	r0, [sp, #44]
	.loc	5 281 9 is_stmt 1               @ libraries/STM32H7xx_HAL/STM32H7xx_HAL_Driver/Src/stm32h7xx_hal_gpio.c:281:9
	b	.LBB0_47
.Ltmp28:
.LBB0_47:                               @   in Loop: Header=BB0_1 Depth=1
	.loc	5 282 23                        @ libraries/STM32H7xx_HAL/STM32H7xx_HAL_Driver/Src/stm32h7xx_hal_gpio.c:282:23
	ldr	r0, [sp, #44]
	mov.w	r1, #1476395008
	.loc	5 282 21 is_stmt 0              @ libraries/STM32H7xx_HAL/STM32H7xx_HAL_Driver/Src/stm32h7xx_hal_gpio.c:282:21
	str	r0, [r1]
	movs	r0, #4
	movt	r0, #22528
	.loc	5 284 22 is_stmt 1              @ libraries/STM32H7xx_HAL/STM32H7xx_HAL_Driver/Src/stm32h7xx_hal_gpio.c:284:22
	ldr	r0, [r0]
	.loc	5 284 14 is_stmt 0              @ libraries/STM32H7xx_HAL/STM32H7xx_HAL_Driver/Src/stm32h7xx_hal_gpio.c:284:14
	str	r0, [sp, #44]
	.loc	5 285 19 is_stmt 1              @ libraries/STM32H7xx_HAL/STM32H7xx_HAL_Driver/Src/stm32h7xx_hal_gpio.c:285:19
	ldr	r1, [sp, #48]
	.loc	5 285 14 is_stmt 0              @ libraries/STM32H7xx_HAL/STM32H7xx_HAL_Driver/Src/stm32h7xx_hal_gpio.c:285:14
	ldr	r0, [sp, #44]
	bics	r0, r1
	str	r0, [sp, #44]
.Ltmp29:
	.loc	5 286 14 is_stmt 1              @ libraries/STM32H7xx_HAL/STM32H7xx_HAL_Driver/Src/stm32h7xx_hal_gpio.c:286:14
	ldr	r0, [sp, #56]
.Ltmp30:
	.loc	5 286 13 is_stmt 0              @ libraries/STM32H7xx_HAL/STM32H7xx_HAL_Driver/Src/stm32h7xx_hal_gpio.c:286:13
	ldrb	r0, [r0, #6]
	lsls	r0, r0, #26
	cmp	r0, #0
	bpl	.LBB0_49
	b	.LBB0_48
.LBB0_48:                               @   in Loop: Header=BB0_1 Depth=1
.Ltmp31:
	.loc	5 288 19 is_stmt 1              @ libraries/STM32H7xx_HAL/STM32H7xx_HAL_Driver/Src/stm32h7xx_hal_gpio.c:288:19
	ldr	r1, [sp, #48]
	.loc	5 288 16 is_stmt 0              @ libraries/STM32H7xx_HAL/STM32H7xx_HAL_Driver/Src/stm32h7xx_hal_gpio.c:288:16
	ldr	r0, [sp, #44]
	orrs	r0, r1
	str	r0, [sp, #44]
	.loc	5 289 9 is_stmt 1               @ libraries/STM32H7xx_HAL/STM32H7xx_HAL_Driver/Src/stm32h7xx_hal_gpio.c:289:9
	b	.LBB0_49
.Ltmp32:
.LBB0_49:                               @   in Loop: Header=BB0_1 Depth=1
	.loc	5 290 23                        @ libraries/STM32H7xx_HAL/STM32H7xx_HAL_Driver/Src/stm32h7xx_hal_gpio.c:290:23
	ldr	r0, [sp, #44]
	movs	r1, #4
	movt	r1, #22528
	.loc	5 290 21 is_stmt 0              @ libraries/STM32H7xx_HAL/STM32H7xx_HAL_Driver/Src/stm32h7xx_hal_gpio.c:290:21
	str	r0, [r1]
	.loc	5 291 7 is_stmt 1               @ libraries/STM32H7xx_HAL/STM32H7xx_HAL_Driver/Src/stm32h7xx_hal_gpio.c:291:7
	b	.LBB0_50
.Ltmp33:
.LBB0_50:                               @   in Loop: Header=BB0_1 Depth=1
	.loc	5 292 5                         @ libraries/STM32H7xx_HAL/STM32H7xx_HAL_Driver/Src/stm32h7xx_hal_gpio.c:292:5
	b	.LBB0_51
.Ltmp34:
.LBB0_51:                               @   in Loop: Header=BB0_1 Depth=1
	.loc	5 294 13                        @ libraries/STM32H7xx_HAL/STM32H7xx_HAL_Driver/Src/stm32h7xx_hal_gpio.c:294:13
	ldr	r0, [sp, #52]
	adds	r0, #1
	str	r0, [sp, #52]
.Ltmp35:
	.loc	5 193 3                         @ libraries/STM32H7xx_HAL/STM32H7xx_HAL_Driver/Src/stm32h7xx_hal_gpio.c:193:3
	b	.LBB0_1
.LBB0_52:
	.loc	5 296 1                         @ libraries/STM32H7xx_HAL/STM32H7xx_HAL_Driver/Src/stm32h7xx_hal_gpio.c:296:1
	add	sp, #64
	bx	lr
.Ltmp36:
.Lfunc_end0:
	.size	HAL_GPIO_Init, .Lfunc_end0-HAL_GPIO_Init
	.cfi_endproc
	.cantunwind
	.fnend
                                        @ -- End function
	.section	.text.HAL_GPIO_DeInit,"ax",%progbits
	.hidden	HAL_GPIO_DeInit                 @ -- Begin function HAL_GPIO_DeInit
	.globl	HAL_GPIO_DeInit
	.p2align	3
	.type	HAL_GPIO_DeInit,%function
	.code	16                              @ @HAL_GPIO_DeInit
	.thumb_func
HAL_GPIO_DeInit:
.Lfunc_begin1:
	.loc	5 306 0                         @ libraries/STM32H7xx_HAL/STM32H7xx_HAL_Driver/Src/stm32h7xx_hal_gpio.c:306:0
	.fnstart
	.cfi_startproc
@ %bb.0:
	.pad	#64
	sub	sp, #64
	.cfi_def_cfa_offset 64
	str	r0, [sp, #60]
	str	r1, [sp, #56]
	movs	r0, #0
.Ltmp37:
	.loc	5 307 12 prologue_end           @ libraries/STM32H7xx_HAL/STM32H7xx_HAL_Driver/Src/stm32h7xx_hal_gpio.c:307:12
	str	r0, [sp, #52]
	movs	r0, #128
	movt	r0, #22528
	.loc	5 315 19                        @ libraries/STM32H7xx_HAL/STM32H7xx_HAL_Driver/Src/stm32h7xx_hal_gpio.c:315:19
	str	r0, [sp, #40]
	.loc	5 323 3                         @ libraries/STM32H7xx_HAL/STM32H7xx_HAL_Driver/Src/stm32h7xx_hal_gpio.c:323:3
	b	.LBB1_1
.LBB1_1:                                @ =>This Inner Loop Header: Depth=1
	.loc	5 323 11 is_stmt 0              @ libraries/STM32H7xx_HAL/STM32H7xx_HAL_Driver/Src/stm32h7xx_hal_gpio.c:323:11
	ldr	r0, [sp, #56]
	.loc	5 323 23                        @ libraries/STM32H7xx_HAL/STM32H7xx_HAL_Driver/Src/stm32h7xx_hal_gpio.c:323:23
	ldr	r1, [sp, #52]
	.loc	5 323 20                        @ libraries/STM32H7xx_HAL/STM32H7xx_HAL_Driver/Src/stm32h7xx_hal_gpio.c:323:20
	lsrs	r0, r1
	.loc	5 323 3                         @ libraries/STM32H7xx_HAL/STM32H7xx_HAL_Driver/Src/stm32h7xx_hal_gpio.c:323:3
	cmp	r0, #0
	beq.w	.LBB1_34
	b	.LBB1_2
.LBB1_2:                                @   in Loop: Header=BB1_1 Depth=1
.Ltmp38:
	.loc	5 326 17 is_stmt 1              @ libraries/STM32H7xx_HAL/STM32H7xx_HAL_Driver/Src/stm32h7xx_hal_gpio.c:326:17
	ldr	r0, [sp, #56]
	.loc	5 326 36 is_stmt 0              @ libraries/STM32H7xx_HAL/STM32H7xx_HAL_Driver/Src/stm32h7xx_hal_gpio.c:326:36
	ldr	r2, [sp, #52]
	movs	r1, #1
	.loc	5 326 33                        @ libraries/STM32H7xx_HAL/STM32H7xx_HAL_Driver/Src/stm32h7xx_hal_gpio.c:326:33
	lsls	r1, r2
	.loc	5 326 26                        @ libraries/STM32H7xx_HAL/STM32H7xx_HAL_Driver/Src/stm32h7xx_hal_gpio.c:326:26
	ands	r0, r1
	.loc	5 326 15                        @ libraries/STM32H7xx_HAL/STM32H7xx_HAL_Driver/Src/stm32h7xx_hal_gpio.c:326:15
	str	r0, [sp, #48]
.Ltmp39:
	.loc	5 328 9 is_stmt 1               @ libraries/STM32H7xx_HAL/STM32H7xx_HAL_Driver/Src/stm32h7xx_hal_gpio.c:328:9
	ldr	r0, [sp, #48]
.Ltmp40:
	.loc	5 328 9 is_stmt 0               @ libraries/STM32H7xx_HAL/STM32H7xx_HAL_Driver/Src/stm32h7xx_hal_gpio.c:328:9
	cmp	r0, #0
	beq.w	.LBB1_33
	b	.LBB1_3
.LBB1_3:                                @   in Loop: Header=BB1_1 Depth=1
.Ltmp41:
	.loc	5 332 28 is_stmt 1              @ libraries/STM32H7xx_HAL/STM32H7xx_HAL_Driver/Src/stm32h7xx_hal_gpio.c:332:28
	ldr	r0, [sp, #52]
	.loc	5 332 37 is_stmt 0              @ libraries/STM32H7xx_HAL/STM32H7xx_HAL_Driver/Src/stm32h7xx_hal_gpio.c:332:37
	bic	r0, r0, #3
	movw	r1, #1032
	movt	r1, #22528
	.loc	5 332 13                        @ libraries/STM32H7xx_HAL/STM32H7xx_HAL_Driver/Src/stm32h7xx_hal_gpio.c:332:13
	ldr	r0, [r0, r1]
	.loc	5 332 11                        @ libraries/STM32H7xx_HAL/STM32H7xx_HAL_Driver/Src/stm32h7xx_hal_gpio.c:332:11
	str	r0, [sp, #44]
	.loc	5 333 32 is_stmt 1              @ libraries/STM32H7xx_HAL/STM32H7xx_HAL_Driver/Src/stm32h7xx_hal_gpio.c:333:32
	ldr	r0, [sp, #52]
	.loc	5 333 41 is_stmt 0              @ libraries/STM32H7xx_HAL/STM32H7xx_HAL_Driver/Src/stm32h7xx_hal_gpio.c:333:41
	and	r0, r0, #3
	.loc	5 333 29                        @ libraries/STM32H7xx_HAL/STM32H7xx_HAL_Driver/Src/stm32h7xx_hal_gpio.c:333:29
	lsls	r1, r0, #2
	movs	r0, #15
	.loc	5 333 22                        @ libraries/STM32H7xx_HAL/STM32H7xx_HAL_Driver/Src/stm32h7xx_hal_gpio.c:333:22
	lsl.w	r1, r0, r1
	.loc	5 333 11                        @ libraries/STM32H7xx_HAL/STM32H7xx_HAL_Driver/Src/stm32h7xx_hal_gpio.c:333:11
	ldr	r0, [sp, #44]
	ands	r0, r1
	str	r0, [sp, #44]
.Ltmp42:
	.loc	5 334 11 is_stmt 1              @ libraries/STM32H7xx_HAL/STM32H7xx_HAL_Driver/Src/stm32h7xx_hal_gpio.c:334:11
	ldr	r0, [sp, #44]
	.loc	5 334 19 is_stmt 0              @ libraries/STM32H7xx_HAL/STM32H7xx_HAL_Driver/Src/stm32h7xx_hal_gpio.c:334:19
	str	r0, [sp, #36]                   @ 4-byte Spill
	ldr	r0, [sp, #60]
	movs	r1, #0
	movt	r1, #22530
	cmp	r0, r1
	bne	.LBB1_5
	b	.LBB1_4
.LBB1_4:                                @   in Loop: Header=BB1_1 Depth=1
	.loc	5 0 19                          @ libraries/STM32H7xx_HAL/STM32H7xx_HAL_Driver/Src/stm32h7xx_hal_gpio.c:0:19
	movs	r0, #0
	.loc	5 334 19                        @ libraries/STM32H7xx_HAL/STM32H7xx_HAL_Driver/Src/stm32h7xx_hal_gpio.c:334:19
	str	r0, [sp, #32]                   @ 4-byte Spill
	b	.LBB1_30
.LBB1_5:                                @   in Loop: Header=BB1_1 Depth=1
	ldr	r0, [sp, #60]
	movw	r1, #1024
	movt	r1, #22530
	cmp	r0, r1
	bne	.LBB1_7
	b	.LBB1_6
.LBB1_6:                                @   in Loop: Header=BB1_1 Depth=1
	.loc	5 0 19                          @ libraries/STM32H7xx_HAL/STM32H7xx_HAL_Driver/Src/stm32h7xx_hal_gpio.c:0:19
	movs	r0, #1
	.loc	5 334 19                        @ libraries/STM32H7xx_HAL/STM32H7xx_HAL_Driver/Src/stm32h7xx_hal_gpio.c:334:19
	str	r0, [sp, #28]                   @ 4-byte Spill
	b	.LBB1_29
.LBB1_7:                                @   in Loop: Header=BB1_1 Depth=1
	ldr	r0, [sp, #60]
	movw	r1, #2048
	movt	r1, #22530
	cmp	r0, r1
	bne	.LBB1_9
	b	.LBB1_8
.LBB1_8:                                @   in Loop: Header=BB1_1 Depth=1
	.loc	5 0 19                          @ libraries/STM32H7xx_HAL/STM32H7xx_HAL_Driver/Src/stm32h7xx_hal_gpio.c:0:19
	movs	r0, #2
	.loc	5 334 19                        @ libraries/STM32H7xx_HAL/STM32H7xx_HAL_Driver/Src/stm32h7xx_hal_gpio.c:334:19
	str	r0, [sp, #24]                   @ 4-byte Spill
	b	.LBB1_28
.LBB1_9:                                @   in Loop: Header=BB1_1 Depth=1
	ldr	r0, [sp, #60]
	movw	r1, #3072
	movt	r1, #22530
	cmp	r0, r1
	bne	.LBB1_11
	b	.LBB1_10
.LBB1_10:                               @   in Loop: Header=BB1_1 Depth=1
	.loc	5 0 19                          @ libraries/STM32H7xx_HAL/STM32H7xx_HAL_Driver/Src/stm32h7xx_hal_gpio.c:0:19
	movs	r0, #3
	.loc	5 334 19                        @ libraries/STM32H7xx_HAL/STM32H7xx_HAL_Driver/Src/stm32h7xx_hal_gpio.c:334:19
	str	r0, [sp, #20]                   @ 4-byte Spill
	b	.LBB1_27
.LBB1_11:                               @   in Loop: Header=BB1_1 Depth=1
	ldr	r0, [sp, #60]
	movw	r1, #4096
	movt	r1, #22530
	cmp	r0, r1
	bne	.LBB1_13
	b	.LBB1_12
.LBB1_12:                               @   in Loop: Header=BB1_1 Depth=1
	.loc	5 0 19                          @ libraries/STM32H7xx_HAL/STM32H7xx_HAL_Driver/Src/stm32h7xx_hal_gpio.c:0:19
	movs	r0, #4
	.loc	5 334 19                        @ libraries/STM32H7xx_HAL/STM32H7xx_HAL_Driver/Src/stm32h7xx_hal_gpio.c:334:19
	str	r0, [sp, #16]                   @ 4-byte Spill
	b	.LBB1_26
.LBB1_13:                               @   in Loop: Header=BB1_1 Depth=1
	ldr	r0, [sp, #60]
	movw	r1, #5120
	movt	r1, #22530
	cmp	r0, r1
	bne	.LBB1_15
	b	.LBB1_14
.LBB1_14:                               @   in Loop: Header=BB1_1 Depth=1
	.loc	5 0 19                          @ libraries/STM32H7xx_HAL/STM32H7xx_HAL_Driver/Src/stm32h7xx_hal_gpio.c:0:19
	movs	r0, #5
	.loc	5 334 19                        @ libraries/STM32H7xx_HAL/STM32H7xx_HAL_Driver/Src/stm32h7xx_hal_gpio.c:334:19
	str	r0, [sp, #12]                   @ 4-byte Spill
	b	.LBB1_25
.LBB1_15:                               @   in Loop: Header=BB1_1 Depth=1
	ldr	r0, [sp, #60]
	movw	r1, #6144
	movt	r1, #22530
	cmp	r0, r1
	bne	.LBB1_17
	b	.LBB1_16
.LBB1_16:                               @   in Loop: Header=BB1_1 Depth=1
	.loc	5 0 19                          @ libraries/STM32H7xx_HAL/STM32H7xx_HAL_Driver/Src/stm32h7xx_hal_gpio.c:0:19
	movs	r0, #6
	.loc	5 334 19                        @ libraries/STM32H7xx_HAL/STM32H7xx_HAL_Driver/Src/stm32h7xx_hal_gpio.c:334:19
	str	r0, [sp, #8]                    @ 4-byte Spill
	b	.LBB1_24
.LBB1_17:                               @   in Loop: Header=BB1_1 Depth=1
	ldr	r0, [sp, #60]
	movw	r1, #7168
	movt	r1, #22530
	cmp	r0, r1
	bne	.LBB1_19
	b	.LBB1_18
.LBB1_18:                               @   in Loop: Header=BB1_1 Depth=1
	.loc	5 0 19                          @ libraries/STM32H7xx_HAL/STM32H7xx_HAL_Driver/Src/stm32h7xx_hal_gpio.c:0:19
	movs	r0, #7
	.loc	5 334 19                        @ libraries/STM32H7xx_HAL/STM32H7xx_HAL_Driver/Src/stm32h7xx_hal_gpio.c:334:19
	str	r0, [sp, #4]                    @ 4-byte Spill
	b	.LBB1_23
.LBB1_19:                               @   in Loop: Header=BB1_1 Depth=1
	ldr	r0, [sp, #60]
	movw	r1, #8192
	movt	r1, #22530
	cmp	r0, r1
	bne	.LBB1_21
	b	.LBB1_20
.LBB1_20:                               @   in Loop: Header=BB1_1 Depth=1
	.loc	5 0 19                          @ libraries/STM32H7xx_HAL/STM32H7xx_HAL_Driver/Src/stm32h7xx_hal_gpio.c:0:19
	movs	r0, #8
	.loc	5 334 19                        @ libraries/STM32H7xx_HAL/STM32H7xx_HAL_Driver/Src/stm32h7xx_hal_gpio.c:334:19
	str	r0, [sp]                        @ 4-byte Spill
	b	.LBB1_22
.LBB1_21:                               @   in Loop: Header=BB1_1 Depth=1
	ldr	r1, [sp, #60]
	movw	r2, #9216
	movt	r2, #22530
	movs	r0, #10
	cmp	r1, r2
	it	eq
	moveq	r0, #9
	str	r0, [sp]                        @ 4-byte Spill
	b	.LBB1_22
.LBB1_22:                               @   in Loop: Header=BB1_1 Depth=1
	ldr	r0, [sp]                        @ 4-byte Reload
	str	r0, [sp, #4]                    @ 4-byte Spill
	b	.LBB1_23
.LBB1_23:                               @   in Loop: Header=BB1_1 Depth=1
	ldr	r0, [sp, #4]                    @ 4-byte Reload
	str	r0, [sp, #8]                    @ 4-byte Spill
	b	.LBB1_24
.LBB1_24:                               @   in Loop: Header=BB1_1 Depth=1
	ldr	r0, [sp, #8]                    @ 4-byte Reload
	str	r0, [sp, #12]                   @ 4-byte Spill
	b	.LBB1_25
.LBB1_25:                               @   in Loop: Header=BB1_1 Depth=1
	ldr	r0, [sp, #12]                   @ 4-byte Reload
	str	r0, [sp, #16]                   @ 4-byte Spill
	b	.LBB1_26
.LBB1_26:                               @   in Loop: Header=BB1_1 Depth=1
	ldr	r0, [sp, #16]                   @ 4-byte Reload
	str	r0, [sp, #20]                   @ 4-byte Spill
	b	.LBB1_27
.LBB1_27:                               @   in Loop: Header=BB1_1 Depth=1
	ldr	r0, [sp, #20]                   @ 4-byte Reload
	str	r0, [sp, #24]                   @ 4-byte Spill
	b	.LBB1_28
.LBB1_28:                               @   in Loop: Header=BB1_1 Depth=1
	ldr	r0, [sp, #24]                   @ 4-byte Reload
	str	r0, [sp, #28]                   @ 4-byte Spill
	b	.LBB1_29
.LBB1_29:                               @   in Loop: Header=BB1_1 Depth=1
	ldr	r0, [sp, #28]                   @ 4-byte Reload
	str	r0, [sp, #32]                   @ 4-byte Spill
	b	.LBB1_30
.LBB1_30:                               @   in Loop: Header=BB1_1 Depth=1
	ldr	r0, [sp, #36]                   @ 4-byte Reload
	ldr	r1, [sp, #32]                   @ 4-byte Reload
	.loc	5 334 51                        @ libraries/STM32H7xx_HAL/STM32H7xx_HAL_Driver/Src/stm32h7xx_hal_gpio.c:334:51
	ldr	r2, [sp, #52]
	.loc	5 334 60                        @ libraries/STM32H7xx_HAL/STM32H7xx_HAL_Driver/Src/stm32h7xx_hal_gpio.c:334:60
	and	r2, r2, #3
	.loc	5 334 48                        @ libraries/STM32H7xx_HAL/STM32H7xx_HAL_Driver/Src/stm32h7xx_hal_gpio.c:334:48
	lsls	r2, r2, #2
	.loc	5 334 41                        @ libraries/STM32H7xx_HAL/STM32H7xx_HAL_Driver/Src/stm32h7xx_hal_gpio.c:334:41
	lsls	r1, r2
.Ltmp43:
	.loc	5 334 11                        @ libraries/STM32H7xx_HAL/STM32H7xx_HAL_Driver/Src/stm32h7xx_hal_gpio.c:334:11
	cmp	r0, r1
	bne	.LBB1_32
	b	.LBB1_31
.LBB1_31:                               @   in Loop: Header=BB1_1 Depth=1
.Ltmp44:
	.loc	5 336 32 is_stmt 1              @ libraries/STM32H7xx_HAL/STM32H7xx_HAL_Driver/Src/stm32h7xx_hal_gpio.c:336:32
	ldr	r0, [sp, #52]
	.loc	5 336 41 is_stmt 0              @ libraries/STM32H7xx_HAL/STM32H7xx_HAL_Driver/Src/stm32h7xx_hal_gpio.c:336:41
	and	r0, r0, #3
	.loc	5 336 29                        @ libraries/STM32H7xx_HAL/STM32H7xx_HAL_Driver/Src/stm32h7xx_hal_gpio.c:336:29
	lsls	r1, r0, #2
	movs	r0, #15
	.loc	5 336 22                        @ libraries/STM32H7xx_HAL/STM32H7xx_HAL_Driver/Src/stm32h7xx_hal_gpio.c:336:22
	lsls	r0, r1
	.loc	5 336 13                        @ libraries/STM32H7xx_HAL/STM32H7xx_HAL_Driver/Src/stm32h7xx_hal_gpio.c:336:13
	str	r0, [sp, #44]
	.loc	5 337 44 is_stmt 1              @ libraries/STM32H7xx_HAL/STM32H7xx_HAL_Driver/Src/stm32h7xx_hal_gpio.c:337:44
	ldr	r3, [sp, #44]
	.loc	5 337 24 is_stmt 0              @ libraries/STM32H7xx_HAL/STM32H7xx_HAL_Driver/Src/stm32h7xx_hal_gpio.c:337:24
	ldr	r0, [sp, #52]
	.loc	5 337 33                        @ libraries/STM32H7xx_HAL/STM32H7xx_HAL_Driver/Src/stm32h7xx_hal_gpio.c:337:33
	bic	r1, r0, #3
	movw	r2, #1032
	movt	r2, #22528
	.loc	5 337 40                        @ libraries/STM32H7xx_HAL/STM32H7xx_HAL_Driver/Src/stm32h7xx_hal_gpio.c:337:40
	ldr	r0, [r1, r2]
	bics	r0, r3
	str	r0, [r1, r2]
	.loc	5 340 36 is_stmt 1              @ libraries/STM32H7xx_HAL/STM32H7xx_HAL_Driver/Src/stm32h7xx_hal_gpio.c:340:36
	ldr	r2, [sp, #48]
	.loc	5 340 9 is_stmt 0               @ libraries/STM32H7xx_HAL/STM32H7xx_HAL_Driver/Src/stm32h7xx_hal_gpio.c:340:9
	ldr	r1, [sp, #40]
	.loc	5 340 31                        @ libraries/STM32H7xx_HAL/STM32H7xx_HAL_Driver/Src/stm32h7xx_hal_gpio.c:340:31
	ldr	r0, [r1]
	bics	r0, r2
	str	r0, [r1]
	.loc	5 341 36 is_stmt 1              @ libraries/STM32H7xx_HAL/STM32H7xx_HAL_Driver/Src/stm32h7xx_hal_gpio.c:341:36
	ldr	r2, [sp, #48]
	.loc	5 341 9 is_stmt 0               @ libraries/STM32H7xx_HAL/STM32H7xx_HAL_Driver/Src/stm32h7xx_hal_gpio.c:341:9
	ldr	r1, [sp, #40]
	.loc	5 341 31                        @ libraries/STM32H7xx_HAL/STM32H7xx_HAL_Driver/Src/stm32h7xx_hal_gpio.c:341:31
	ldr	r0, [r1, #4]
	bics	r0, r2
	str	r0, [r1, #4]
	.loc	5 344 26 is_stmt 1              @ libraries/STM32H7xx_HAL/STM32H7xx_HAL_Driver/Src/stm32h7xx_hal_gpio.c:344:26
	ldr	r2, [sp, #48]
	mov.w	r1, #1476395008
	.loc	5 344 21 is_stmt 0              @ libraries/STM32H7xx_HAL/STM32H7xx_HAL_Driver/Src/stm32h7xx_hal_gpio.c:344:21
	ldr	r0, [r1]
	bics	r0, r2
	str	r0, [r1]
	.loc	5 345 26 is_stmt 1              @ libraries/STM32H7xx_HAL/STM32H7xx_HAL_Driver/Src/stm32h7xx_hal_gpio.c:345:26
	ldr	r2, [sp, #48]
	movs	r1, #4
	movt	r1, #22528
	.loc	5 345 21 is_stmt 0              @ libraries/STM32H7xx_HAL/STM32H7xx_HAL_Driver/Src/stm32h7xx_hal_gpio.c:345:21
	ldr	r0, [r1]
	bics	r0, r2
	str	r0, [r1]
	.loc	5 346 7 is_stmt 1               @ libraries/STM32H7xx_HAL/STM32H7xx_HAL_Driver/Src/stm32h7xx_hal_gpio.c:346:7
	b	.LBB1_32
.Ltmp45:
.LBB1_32:                               @   in Loop: Header=BB1_1 Depth=1
	.loc	5 350 45                        @ libraries/STM32H7xx_HAL/STM32H7xx_HAL_Driver/Src/stm32h7xx_hal_gpio.c:350:45
	ldr	r0, [sp, #52]
	.loc	5 350 54 is_stmt 0              @ libraries/STM32H7xx_HAL/STM32H7xx_HAL_Driver/Src/stm32h7xx_hal_gpio.c:350:54
	lsls	r1, r0, #1
	movs	r0, #3
	.loc	5 350 41                        @ libraries/STM32H7xx_HAL/STM32H7xx_HAL_Driver/Src/stm32h7xx_hal_gpio.c:350:41
	lsl.w	r3, r0, r1
	.loc	5 350 7                         @ libraries/STM32H7xx_HAL/STM32H7xx_HAL_Driver/Src/stm32h7xx_hal_gpio.c:350:7
	ldr	r2, [sp, #60]
	.loc	5 350 20                        @ libraries/STM32H7xx_HAL/STM32H7xx_HAL_Driver/Src/stm32h7xx_hal_gpio.c:350:20
	ldr	r1, [r2]
	orrs	r1, r3
	str	r1, [r2]
	.loc	5 353 49 is_stmt 1              @ libraries/STM32H7xx_HAL/STM32H7xx_HAL_Driver/Src/stm32h7xx_hal_gpio.c:353:49
	ldr.w	r12, [sp, #52]
	.loc	5 353 58 is_stmt 0              @ libraries/STM32H7xx_HAL/STM32H7xx_HAL_Driver/Src/stm32h7xx_hal_gpio.c:353:58
	and	r1, r12, #7
	.loc	5 353 67                        @ libraries/STM32H7xx_HAL/STM32H7xx_HAL_Driver/Src/stm32h7xx_hal_gpio.c:353:67
	lsls	r2, r1, #2
	movs	r1, #15
	.loc	5 353 44                        @ libraries/STM32H7xx_HAL/STM32H7xx_HAL_Driver/Src/stm32h7xx_hal_gpio.c:353:44
	lsl.w	r3, r1, r2
	.loc	5 353 7                         @ libraries/STM32H7xx_HAL/STM32H7xx_HAL_Driver/Src/stm32h7xx_hal_gpio.c:353:7
	ldr	r1, [sp, #60]
	mvn	r2, #3
	.loc	5 353 27                        @ libraries/STM32H7xx_HAL/STM32H7xx_HAL_Driver/Src/stm32h7xx_hal_gpio.c:353:27
	and.w	r2, r2, r12, lsr #1
	.loc	5 353 14                        @ libraries/STM32H7xx_HAL/STM32H7xx_HAL_Driver/Src/stm32h7xx_hal_gpio.c:353:14
	add	r2, r1
	.loc	5 353 34                        @ libraries/STM32H7xx_HAL/STM32H7xx_HAL_Driver/Src/stm32h7xx_hal_gpio.c:353:34
	ldr	r1, [r2, #32]
	bics	r1, r3
	str	r1, [r2, #32]
	.loc	5 356 52 is_stmt 1              @ libraries/STM32H7xx_HAL/STM32H7xx_HAL_Driver/Src/stm32h7xx_hal_gpio.c:356:52
	ldr	r1, [sp, #52]
	.loc	5 356 61 is_stmt 0              @ libraries/STM32H7xx_HAL/STM32H7xx_HAL_Driver/Src/stm32h7xx_hal_gpio.c:356:61
	lsls	r1, r1, #1
	.loc	5 356 48                        @ libraries/STM32H7xx_HAL/STM32H7xx_HAL_Driver/Src/stm32h7xx_hal_gpio.c:356:48
	lsl.w	r3, r0, r1
	.loc	5 356 7                         @ libraries/STM32H7xx_HAL/STM32H7xx_HAL_Driver/Src/stm32h7xx_hal_gpio.c:356:7
	ldr	r2, [sp, #60]
	.loc	5 356 22                        @ libraries/STM32H7xx_HAL/STM32H7xx_HAL_Driver/Src/stm32h7xx_hal_gpio.c:356:22
	ldr	r1, [r2, #8]
	bics	r1, r3
	str	r1, [r2, #8]
	.loc	5 359 46 is_stmt 1              @ libraries/STM32H7xx_HAL/STM32H7xx_HAL_Driver/Src/stm32h7xx_hal_gpio.c:359:46
	ldr	r2, [sp, #52]
	movs	r1, #1
	.loc	5 359 43 is_stmt 0              @ libraries/STM32H7xx_HAL/STM32H7xx_HAL_Driver/Src/stm32h7xx_hal_gpio.c:359:43
	lsl.w	r3, r1, r2
	.loc	5 359 7                         @ libraries/STM32H7xx_HAL/STM32H7xx_HAL_Driver/Src/stm32h7xx_hal_gpio.c:359:7
	ldr	r2, [sp, #60]
	.loc	5 359 22                        @ libraries/STM32H7xx_HAL/STM32H7xx_HAL_Driver/Src/stm32h7xx_hal_gpio.c:359:22
	ldr	r1, [r2, #4]
	bics	r1, r3
	str	r1, [r2, #4]
	.loc	5 362 46 is_stmt 1              @ libraries/STM32H7xx_HAL/STM32H7xx_HAL_Driver/Src/stm32h7xx_hal_gpio.c:362:46
	ldr	r1, [sp, #52]
	.loc	5 362 55 is_stmt 0              @ libraries/STM32H7xx_HAL/STM32H7xx_HAL_Driver/Src/stm32h7xx_hal_gpio.c:362:55
	lsls	r1, r1, #1
	.loc	5 362 42                        @ libraries/STM32H7xx_HAL/STM32H7xx_HAL_Driver/Src/stm32h7xx_hal_gpio.c:362:42
	lsl.w	r2, r0, r1
	.loc	5 362 7                         @ libraries/STM32H7xx_HAL/STM32H7xx_HAL_Driver/Src/stm32h7xx_hal_gpio.c:362:7
	ldr	r1, [sp, #60]
	.loc	5 362 20                        @ libraries/STM32H7xx_HAL/STM32H7xx_HAL_Driver/Src/stm32h7xx_hal_gpio.c:362:20
	ldr	r0, [r1, #12]
	bics	r0, r2
	str	r0, [r1, #12]
	.loc	5 363 5 is_stmt 1               @ libraries/STM32H7xx_HAL/STM32H7xx_HAL_Driver/Src/stm32h7xx_hal_gpio.c:363:5
	b	.LBB1_33
.Ltmp46:
.LBB1_33:                               @   in Loop: Header=BB1_1 Depth=1
	.loc	5 365 13                        @ libraries/STM32H7xx_HAL/STM32H7xx_HAL_Driver/Src/stm32h7xx_hal_gpio.c:365:13
	ldr	r0, [sp, #52]
	adds	r0, #1
	str	r0, [sp, #52]
.Ltmp47:
	.loc	5 323 3                         @ libraries/STM32H7xx_HAL/STM32H7xx_HAL_Driver/Src/stm32h7xx_hal_gpio.c:323:3
	b	.LBB1_1
.LBB1_34:
	.loc	5 367 1                         @ libraries/STM32H7xx_HAL/STM32H7xx_HAL_Driver/Src/stm32h7xx_hal_gpio.c:367:1
	add	sp, #64
	bx	lr
.Ltmp48:
.Lfunc_end1:
	.size	HAL_GPIO_DeInit, .Lfunc_end1-HAL_GPIO_DeInit
	.cfi_endproc
	.cantunwind
	.fnend
                                        @ -- End function
	.section	.text.HAL_GPIO_ReadPin,"ax",%progbits
	.hidden	HAL_GPIO_ReadPin                @ -- Begin function HAL_GPIO_ReadPin
	.globl	HAL_GPIO_ReadPin
	.p2align	3
	.type	HAL_GPIO_ReadPin,%function
	.code	16                              @ @HAL_GPIO_ReadPin
	.thumb_func
HAL_GPIO_ReadPin:
.Lfunc_begin2:
	.loc	5 393 0                         @ libraries/STM32H7xx_HAL/STM32H7xx_HAL_Driver/Src/stm32h7xx_hal_gpio.c:393:0
	.fnstart
	.cfi_startproc
@ %bb.0:
	.pad	#8
	sub	sp, #8
	.cfi_def_cfa_offset 8
                                        @ kill: def $r2 killed $r1
	str	r0, [sp, #4]
	strh.w	r1, [sp, #2]
.Ltmp49:
	.loc	5 399 8 prologue_end            @ libraries/STM32H7xx_HAL/STM32H7xx_HAL_Driver/Src/stm32h7xx_hal_gpio.c:399:8
	ldr	r0, [sp, #4]
	.loc	5 399 15 is_stmt 0              @ libraries/STM32H7xx_HAL/STM32H7xx_HAL_Driver/Src/stm32h7xx_hal_gpio.c:399:15
	ldr	r0, [r0, #16]
	.loc	5 399 21                        @ libraries/STM32H7xx_HAL/STM32H7xx_HAL_Driver/Src/stm32h7xx_hal_gpio.c:399:21
	ldrh.w	r1, [sp, #2]
.Ltmp50:
	.loc	5 399 7                         @ libraries/STM32H7xx_HAL/STM32H7xx_HAL_Driver/Src/stm32h7xx_hal_gpio.c:399:7
	tst	r0, r1
	beq	.LBB2_2
	b	.LBB2_1
.LBB2_1:
	.loc	5 0 7                           @ libraries/STM32H7xx_HAL/STM32H7xx_HAL_Driver/Src/stm32h7xx_hal_gpio.c:0:7
	movs	r0, #1
.Ltmp51:
	.loc	5 401 15 is_stmt 1              @ libraries/STM32H7xx_HAL/STM32H7xx_HAL_Driver/Src/stm32h7xx_hal_gpio.c:401:15
	strb.w	r0, [sp, #1]
	.loc	5 402 3                         @ libraries/STM32H7xx_HAL/STM32H7xx_HAL_Driver/Src/stm32h7xx_hal_gpio.c:402:3
	b	.LBB2_3
.Ltmp52:
.LBB2_2:
	.loc	5 0 3 is_stmt 0                 @ libraries/STM32H7xx_HAL/STM32H7xx_HAL_Driver/Src/stm32h7xx_hal_gpio.c:0:3
	movs	r0, #0
.Ltmp53:
	.loc	5 405 15 is_stmt 1              @ libraries/STM32H7xx_HAL/STM32H7xx_HAL_Driver/Src/stm32h7xx_hal_gpio.c:405:15
	strb.w	r0, [sp, #1]
	b	.LBB2_3
.Ltmp54:
.LBB2_3:
	.loc	5 407 10                        @ libraries/STM32H7xx_HAL/STM32H7xx_HAL_Driver/Src/stm32h7xx_hal_gpio.c:407:10
	ldrb.w	r0, [sp, #1]
	.loc	5 407 3 is_stmt 0               @ libraries/STM32H7xx_HAL/STM32H7xx_HAL_Driver/Src/stm32h7xx_hal_gpio.c:407:3
	add	sp, #8
	bx	lr
.Ltmp55:
.Lfunc_end2:
	.size	HAL_GPIO_ReadPin, .Lfunc_end2-HAL_GPIO_ReadPin
	.cfi_endproc
	.cantunwind
	.fnend
                                        @ -- End function
	.section	.text.HAL_GPIO_WritePin,"ax",%progbits
	.hidden	HAL_GPIO_WritePin               @ -- Begin function HAL_GPIO_WritePin
	.globl	HAL_GPIO_WritePin
	.p2align	3
	.type	HAL_GPIO_WritePin,%function
	.code	16                              @ @HAL_GPIO_WritePin
	.thumb_func
HAL_GPIO_WritePin:
.Lfunc_begin3:
	.loc	5 427 0 is_stmt 1               @ libraries/STM32H7xx_HAL/STM32H7xx_HAL_Driver/Src/stm32h7xx_hal_gpio.c:427:0
	.fnstart
	.cfi_startproc
@ %bb.0:
	.pad	#8
	sub	sp, #8
	.cfi_def_cfa_offset 8
                                        @ kill: def $r3 killed $r2
                                        @ kill: def $r3 killed $r1
	str	r0, [sp, #4]
	strh.w	r1, [sp, #2]
	strb.w	r2, [sp, #1]
.Ltmp56:
	.loc	5 432 7 prologue_end            @ libraries/STM32H7xx_HAL/STM32H7xx_HAL_Driver/Src/stm32h7xx_hal_gpio.c:432:7
	ldrb.w	r0, [sp, #1]
.Ltmp57:
	.loc	5 432 7 is_stmt 0               @ libraries/STM32H7xx_HAL/STM32H7xx_HAL_Driver/Src/stm32h7xx_hal_gpio.c:432:7
	cbz	r0, .LBB3_2
	b	.LBB3_1
.LBB3_1:
.Ltmp58:
	.loc	5 434 19 is_stmt 1              @ libraries/STM32H7xx_HAL/STM32H7xx_HAL_Driver/Src/stm32h7xx_hal_gpio.c:434:19
	ldrh.w	r0, [sp, #2]
	.loc	5 434 5 is_stmt 0               @ libraries/STM32H7xx_HAL/STM32H7xx_HAL_Driver/Src/stm32h7xx_hal_gpio.c:434:5
	ldr	r1, [sp, #4]
	.loc	5 434 17                        @ libraries/STM32H7xx_HAL/STM32H7xx_HAL_Driver/Src/stm32h7xx_hal_gpio.c:434:17
	str	r0, [r1, #24]
	.loc	5 435 3 is_stmt 1               @ libraries/STM32H7xx_HAL/STM32H7xx_HAL_Driver/Src/stm32h7xx_hal_gpio.c:435:3
	b	.LBB3_3
.Ltmp59:
.LBB3_2:
	.loc	5 438 19                        @ libraries/STM32H7xx_HAL/STM32H7xx_HAL_Driver/Src/stm32h7xx_hal_gpio.c:438:19
	ldrh.w	r0, [sp, #2]
	.loc	5 438 38 is_stmt 0              @ libraries/STM32H7xx_HAL/STM32H7xx_HAL_Driver/Src/stm32h7xx_hal_gpio.c:438:38
	lsls	r0, r0, #16
	.loc	5 438 5                         @ libraries/STM32H7xx_HAL/STM32H7xx_HAL_Driver/Src/stm32h7xx_hal_gpio.c:438:5
	ldr	r1, [sp, #4]
	.loc	5 438 17                        @ libraries/STM32H7xx_HAL/STM32H7xx_HAL_Driver/Src/stm32h7xx_hal_gpio.c:438:17
	str	r0, [r1, #24]
	b	.LBB3_3
.Ltmp60:
.LBB3_3:
	.loc	5 440 1 is_stmt 1               @ libraries/STM32H7xx_HAL/STM32H7xx_HAL_Driver/Src/stm32h7xx_hal_gpio.c:440:1
	add	sp, #8
	bx	lr
.Ltmp61:
.Lfunc_end3:
	.size	HAL_GPIO_WritePin, .Lfunc_end3-HAL_GPIO_WritePin
	.cfi_endproc
	.cantunwind
	.fnend
                                        @ -- End function
	.section	.text.HAL_GPIO_TogglePin,"ax",%progbits
	.hidden	HAL_GPIO_TogglePin              @ -- Begin function HAL_GPIO_TogglePin
	.globl	HAL_GPIO_TogglePin
	.p2align	3
	.type	HAL_GPIO_TogglePin,%function
	.code	16                              @ @HAL_GPIO_TogglePin
	.thumb_func
HAL_GPIO_TogglePin:
.Lfunc_begin4:
	.loc	5 449 0                         @ libraries/STM32H7xx_HAL/STM32H7xx_HAL_Driver/Src/stm32h7xx_hal_gpio.c:449:0
	.fnstart
	.cfi_startproc
@ %bb.0:
	.pad	#8
	sub	sp, #8
	.cfi_def_cfa_offset 8
                                        @ kill: def $r2 killed $r1
	str	r0, [sp, #4]
	strh.w	r1, [sp, #2]
.Ltmp62:
	.loc	5 453 8 prologue_end            @ libraries/STM32H7xx_HAL/STM32H7xx_HAL_Driver/Src/stm32h7xx_hal_gpio.c:453:8
	ldr	r0, [sp, #4]
	.loc	5 453 15 is_stmt 0              @ libraries/STM32H7xx_HAL/STM32H7xx_HAL_Driver/Src/stm32h7xx_hal_gpio.c:453:15
	ldr	r0, [r0, #20]
	.loc	5 453 21                        @ libraries/STM32H7xx_HAL/STM32H7xx_HAL_Driver/Src/stm32h7xx_hal_gpio.c:453:21
	ldrh.w	r1, [sp, #2]
	.loc	5 453 19                        @ libraries/STM32H7xx_HAL/STM32H7xx_HAL_Driver/Src/stm32h7xx_hal_gpio.c:453:19
	ands	r0, r1
.Ltmp63:
	.loc	5 453 7                         @ libraries/STM32H7xx_HAL/STM32H7xx_HAL_Driver/Src/stm32h7xx_hal_gpio.c:453:7
	cmp	r0, r1
	bne	.LBB4_2
	b	.LBB4_1
.LBB4_1:
.Ltmp64:
	.loc	5 455 19 is_stmt 1              @ libraries/STM32H7xx_HAL/STM32H7xx_HAL_Driver/Src/stm32h7xx_hal_gpio.c:455:19
	ldrh.w	r0, [sp, #2]
	.loc	5 455 38 is_stmt 0              @ libraries/STM32H7xx_HAL/STM32H7xx_HAL_Driver/Src/stm32h7xx_hal_gpio.c:455:38
	lsls	r0, r0, #16
	.loc	5 455 5                         @ libraries/STM32H7xx_HAL/STM32H7xx_HAL_Driver/Src/stm32h7xx_hal_gpio.c:455:5
	ldr	r1, [sp, #4]
	.loc	5 455 17                        @ libraries/STM32H7xx_HAL/STM32H7xx_HAL_Driver/Src/stm32h7xx_hal_gpio.c:455:17
	str	r0, [r1, #24]
	.loc	5 456 3 is_stmt 1               @ libraries/STM32H7xx_HAL/STM32H7xx_HAL_Driver/Src/stm32h7xx_hal_gpio.c:456:3
	b	.LBB4_3
.Ltmp65:
.LBB4_2:
	.loc	5 459 19                        @ libraries/STM32H7xx_HAL/STM32H7xx_HAL_Driver/Src/stm32h7xx_hal_gpio.c:459:19
	ldrh.w	r0, [sp, #2]
	.loc	5 459 5 is_stmt 0               @ libraries/STM32H7xx_HAL/STM32H7xx_HAL_Driver/Src/stm32h7xx_hal_gpio.c:459:5
	ldr	r1, [sp, #4]
	.loc	5 459 17                        @ libraries/STM32H7xx_HAL/STM32H7xx_HAL_Driver/Src/stm32h7xx_hal_gpio.c:459:17
	str	r0, [r1, #24]
	b	.LBB4_3
.Ltmp66:
.LBB4_3:
	.loc	5 461 1 is_stmt 1               @ libraries/STM32H7xx_HAL/STM32H7xx_HAL_Driver/Src/stm32h7xx_hal_gpio.c:461:1
	add	sp, #8
	bx	lr
.Ltmp67:
.Lfunc_end4:
	.size	HAL_GPIO_TogglePin, .Lfunc_end4-HAL_GPIO_TogglePin
	.cfi_endproc
	.cantunwind
	.fnend
                                        @ -- End function
	.section	.text.HAL_GPIO_LockPin,"ax",%progbits
	.hidden	HAL_GPIO_LockPin                @ -- Begin function HAL_GPIO_LockPin
	.globl	HAL_GPIO_LockPin
	.p2align	3
	.type	HAL_GPIO_LockPin,%function
	.code	16                              @ @HAL_GPIO_LockPin
	.thumb_func
HAL_GPIO_LockPin:
.Lfunc_begin5:
	.loc	5 475 0                         @ libraries/STM32H7xx_HAL/STM32H7xx_HAL_Driver/Src/stm32h7xx_hal_gpio.c:475:0
	.fnstart
	.cfi_startproc
@ %bb.0:
	.pad	#16
	sub	sp, #16
	.cfi_def_cfa_offset 16
                                        @ kill: def $r2 killed $r1
	str	r0, [sp, #8]
	strh.w	r1, [sp, #6]
	mov.w	r0, #65536
.Ltmp68:
	.loc	5 476 17 prologue_end           @ libraries/STM32H7xx_HAL/STM32H7xx_HAL_Driver/Src/stm32h7xx_hal_gpio.c:476:17
	str	r0, [sp]
	.loc	5 483 10                        @ libraries/STM32H7xx_HAL/STM32H7xx_HAL_Driver/Src/stm32h7xx_hal_gpio.c:483:10
	ldrh.w	r1, [sp, #6]
	.loc	5 483 7 is_stmt 0               @ libraries/STM32H7xx_HAL/STM32H7xx_HAL_Driver/Src/stm32h7xx_hal_gpio.c:483:7
	ldr	r0, [sp]
	orrs	r0, r1
	str	r0, [sp]
	.loc	5 485 17 is_stmt 1              @ libraries/STM32H7xx_HAL/STM32H7xx_HAL_Driver/Src/stm32h7xx_hal_gpio.c:485:17
	ldr	r0, [sp]
	.loc	5 485 3 is_stmt 0               @ libraries/STM32H7xx_HAL/STM32H7xx_HAL_Driver/Src/stm32h7xx_hal_gpio.c:485:3
	ldr	r1, [sp, #8]
	.loc	5 485 15                        @ libraries/STM32H7xx_HAL/STM32H7xx_HAL_Driver/Src/stm32h7xx_hal_gpio.c:485:15
	str	r0, [r1, #28]
	.loc	5 487 17 is_stmt 1              @ libraries/STM32H7xx_HAL/STM32H7xx_HAL_Driver/Src/stm32h7xx_hal_gpio.c:487:17
	ldrh.w	r0, [sp, #6]
	.loc	5 487 3 is_stmt 0               @ libraries/STM32H7xx_HAL/STM32H7xx_HAL_Driver/Src/stm32h7xx_hal_gpio.c:487:3
	ldr	r1, [sp, #8]
	.loc	5 487 15                        @ libraries/STM32H7xx_HAL/STM32H7xx_HAL_Driver/Src/stm32h7xx_hal_gpio.c:487:15
	str	r0, [r1, #28]
	.loc	5 489 17 is_stmt 1              @ libraries/STM32H7xx_HAL/STM32H7xx_HAL_Driver/Src/stm32h7xx_hal_gpio.c:489:17
	ldr	r0, [sp]
	.loc	5 489 3 is_stmt 0               @ libraries/STM32H7xx_HAL/STM32H7xx_HAL_Driver/Src/stm32h7xx_hal_gpio.c:489:3
	ldr	r1, [sp, #8]
	.loc	5 489 15                        @ libraries/STM32H7xx_HAL/STM32H7xx_HAL_Driver/Src/stm32h7xx_hal_gpio.c:489:15
	str	r0, [r1, #28]
	.loc	5 491 9 is_stmt 1               @ libraries/STM32H7xx_HAL/STM32H7xx_HAL_Driver/Src/stm32h7xx_hal_gpio.c:491:9
	ldr	r0, [sp, #8]
	.loc	5 491 16 is_stmt 0              @ libraries/STM32H7xx_HAL/STM32H7xx_HAL_Driver/Src/stm32h7xx_hal_gpio.c:491:16
	ldr	r0, [r0, #28]
	.loc	5 491 7                         @ libraries/STM32H7xx_HAL/STM32H7xx_HAL_Driver/Src/stm32h7xx_hal_gpio.c:491:7
	str	r0, [sp]
.Ltmp69:
	.loc	5 494 8 is_stmt 1               @ libraries/STM32H7xx_HAL/STM32H7xx_HAL_Driver/Src/stm32h7xx_hal_gpio.c:494:8
	ldr	r0, [sp, #8]
	.loc	5 494 15 is_stmt 0              @ libraries/STM32H7xx_HAL/STM32H7xx_HAL_Driver/Src/stm32h7xx_hal_gpio.c:494:15
	ldr	r0, [r0, #28]
.Ltmp70:
	.loc	5 494 7                         @ libraries/STM32H7xx_HAL/STM32H7xx_HAL_Driver/Src/stm32h7xx_hal_gpio.c:494:7
	lsls	r0, r0, #15
	cmp	r0, #0
	bpl	.LBB5_2
	b	.LBB5_1
.LBB5_1:
	.loc	5 0 7                           @ libraries/STM32H7xx_HAL/STM32H7xx_HAL_Driver/Src/stm32h7xx_hal_gpio.c:0:7
	movs	r0, #0
.Ltmp71:
	.loc	5 496 5 is_stmt 1               @ libraries/STM32H7xx_HAL/STM32H7xx_HAL_Driver/Src/stm32h7xx_hal_gpio.c:496:5
	strb.w	r0, [sp, #15]
	b	.LBB5_3
.Ltmp72:
.LBB5_2:
	.loc	5 0 5 is_stmt 0                 @ libraries/STM32H7xx_HAL/STM32H7xx_HAL_Driver/Src/stm32h7xx_hal_gpio.c:0:5
	movs	r0, #1
.Ltmp73:
	.loc	5 500 5 is_stmt 1               @ libraries/STM32H7xx_HAL/STM32H7xx_HAL_Driver/Src/stm32h7xx_hal_gpio.c:500:5
	strb.w	r0, [sp, #15]
	b	.LBB5_3
.Ltmp74:
.LBB5_3:
	.loc	5 502 1                         @ libraries/STM32H7xx_HAL/STM32H7xx_HAL_Driver/Src/stm32h7xx_hal_gpio.c:502:1
	ldrb.w	r0, [sp, #15]
	add	sp, #16
	bx	lr
.Ltmp75:
.Lfunc_end5:
	.size	HAL_GPIO_LockPin, .Lfunc_end5-HAL_GPIO_LockPin
	.cfi_endproc
	.cantunwind
	.fnend
                                        @ -- End function
	.section	.text.HAL_GPIO_EXTI_IRQHandler,"ax",%progbits
	.hidden	HAL_GPIO_EXTI_IRQHandler        @ -- Begin function HAL_GPIO_EXTI_IRQHandler
	.globl	HAL_GPIO_EXTI_IRQHandler
	.p2align	3
	.type	HAL_GPIO_EXTI_IRQHandler,%function
	.code	16                              @ @HAL_GPIO_EXTI_IRQHandler
	.thumb_func
HAL_GPIO_EXTI_IRQHandler:
.Lfunc_begin6:
	.loc	5 510 0                         @ libraries/STM32H7xx_HAL/STM32H7xx_HAL_Driver/Src/stm32h7xx_hal_gpio.c:510:0
	.fnstart
	.cfi_startproc
@ %bb.0:
	.save	{r7, lr}
	push	{r7, lr}
	.cfi_def_cfa_offset 8
	.cfi_offset lr, -4
	.cfi_offset r7, -8
	.pad	#8
	sub	sp, #8
	.cfi_def_cfa_offset 16
                                        @ kill: def $r1 killed $r0
	strh.w	r0, [sp, #6]
	movs	r0, #136
	movt	r0, #22528
.Ltmp76:
	.loc	5 519 7 prologue_end            @ libraries/STM32H7xx_HAL/STM32H7xx_HAL_Driver/Src/stm32h7xx_hal_gpio.c:519:7
	ldr	r0, [r0]
	ldrh.w	r1, [sp, #6]
.Ltmp77:
	.loc	5 519 7 is_stmt 0               @ libraries/STM32H7xx_HAL/STM32H7xx_HAL_Driver/Src/stm32h7xx_hal_gpio.c:519:7
	tst	r0, r1
	beq	.LBB6_2
	b	.LBB6_1
.LBB6_1:
.Ltmp78:
	.loc	5 521 5 is_stmt 1               @ libraries/STM32H7xx_HAL/STM32H7xx_HAL_Driver/Src/stm32h7xx_hal_gpio.c:521:5
	ldrh.w	r0, [sp, #6]
	movs	r1, #136
	movt	r1, #22528
	str	r0, [r1]
	.loc	5 522 28                        @ libraries/STM32H7xx_HAL/STM32H7xx_HAL_Driver/Src/stm32h7xx_hal_gpio.c:522:28
	ldrh.w	r0, [sp, #6]
	.loc	5 522 5 is_stmt 0               @ libraries/STM32H7xx_HAL/STM32H7xx_HAL_Driver/Src/stm32h7xx_hal_gpio.c:522:5
	bl	HAL_GPIO_EXTI_Callback
	.loc	5 523 3 is_stmt 1               @ libraries/STM32H7xx_HAL/STM32H7xx_HAL_Driver/Src/stm32h7xx_hal_gpio.c:523:3
	b	.LBB6_2
.Ltmp79:
.LBB6_2:
	.loc	5 525 1                         @ libraries/STM32H7xx_HAL/STM32H7xx_HAL_Driver/Src/stm32h7xx_hal_gpio.c:525:1
	add	sp, #8
	pop	{r7, pc}
.Ltmp80:
.Lfunc_end6:
	.size	HAL_GPIO_EXTI_IRQHandler, .Lfunc_end6-HAL_GPIO_EXTI_IRQHandler
	.cfi_endproc
	.cantunwind
	.fnend
                                        @ -- End function
	.section	.text.HAL_GPIO_EXTI_Callback,"ax",%progbits
	.hidden	HAL_GPIO_EXTI_Callback          @ -- Begin function HAL_GPIO_EXTI_Callback
	.weak	HAL_GPIO_EXTI_Callback
	.p2align	3
	.type	HAL_GPIO_EXTI_Callback,%function
	.code	16                              @ @HAL_GPIO_EXTI_Callback
	.thumb_func
HAL_GPIO_EXTI_Callback:
.Lfunc_begin7:
	.loc	5 533 0                         @ libraries/STM32H7xx_HAL/STM32H7xx_HAL_Driver/Src/stm32h7xx_hal_gpio.c:533:0
	.fnstart
	.cfi_startproc
@ %bb.0:
	.pad	#4
	sub	sp, #4
	.cfi_def_cfa_offset 4
                                        @ kill: def $r1 killed $r0
	strh.w	r0, [sp, #2]
.Ltmp81:
	.loc	5 540 1 prologue_end            @ libraries/STM32H7xx_HAL/STM32H7xx_HAL_Driver/Src/stm32h7xx_hal_gpio.c:540:1
	add	sp, #4
	bx	lr
.Ltmp82:
.Lfunc_end7:
	.size	HAL_GPIO_EXTI_Callback, .Lfunc_end7-HAL_GPIO_EXTI_Callback
	.cfi_endproc
	.cantunwind
	.fnend
                                        @ -- End function
	.section	".note.GNU-stack","",%progbits
	.eabi_attribute	30, 6	@ Tag_ABI_optimization_goals
	.ARM_attribute	16, 1	@ Tag_AV_eba