	.text
	.syntax unified
	.eabi_attribute	67, "2.09"	@ Tag_conformance
	.cpu	cortex-m7
	.eabi_attribute	6, 13	@ Tag_CPU_arch
	.eabi_attribute	7, 77	@ Tag_CPU_arch_profile
	.eabi_attribute	8, 0	@ Tag_ARM_ISA_use
	.eabi_attribute	9, 2	@ Tag_THUMB_ISA_use
	.fpu	fpv5-d16
	.eabi_attribute	36, 1	@ Tag_FP_HP_extension
	.eabi_attribute	34, 1	@ Tag_CPU_unaligned_access
	.eabi_attribute	17, 1	@ Tag_ABI_PCS_GOT_use
	.eabi_attribute	20, 2	@ Tag_ABI_FP_denormal
	.eabi_attribute	21, 0	@ Tag_ABI_FP_exceptions
	.eabi_attribute	23, 1	@ Tag_ABI_FP_number_model
	.eabi_attribute	24, 1	@ Tag_ABI_align_needed
	.eabi_attribute	25, 1	@ Tag_ABI_align_preserved
	.eabi_attribute	28, 1	@ Tag_ABI_VFP_args
	.eabi_attribute	38, 1	@ Tag_ABI_FP_16bit_format
	.eabi_attribute	18, 2	@ Tag_ABI_PCS_wchar_t
	.eabi_attribute	26, 1	@ Tag_ABI_enum_size
	.eabi_attribute	14, 0	@ Tag_ABI_PCS_R9_use
	.file	"stm32h7xx_hal_rcc.c"
	.file	1 "E:\\STM32\\Learning\\STM32H750_ART_PI_RGBLCD" "libraries/STM32H7xx_HAL/STM32H7xx_HAL_Driver/Inc/stm32h7xx_hal_def.h"
	.file	2 "D:\\Keil_v5\\ARM\\ARMCLANG\\Bin\\..\\include" "stdint.h"
	.file	3 "E:\\STM32\\Learning\\STM32H750_ART_PI_RGBLCD" "libraries/STM32H7xx_HAL/CMSIS/Device/ST/STM32H7xx/Include/stm32h750xx.h"
	.file	4 "D:\\Keil_v5\\ARM\\ARMCLANG\\Bin\\..\\include" "math.h"
	.section	.text.HAL_RCC_DeInit,"ax",%progbits
	.hidden	HAL_RCC_DeInit                  @ -- Begin function HAL_RCC_DeInit
	.globl	HAL_RCC_DeInit
	.p2align	3
	.type	HAL_RCC_DeInit,%function
	.code	16                              @ @HAL_RCC_DeInit
	.thumb_func
HAL_RCC_DeInit:
.Lfunc_begin0:
	.file	5 "E:\\STM32\\Learning\\STM32H750_ART_PI_RGBLCD" "libraries/STM32H7xx_HAL/STM32H7xx_HAL_Driver/Src/stm32h7xx_hal_rcc.c"
	.loc	5 189 0                         @ libraries/STM32H7xx_HAL/STM32H7xx_HAL_Driver/Src/stm32h7xx_hal_rcc.c:189:0
	.fnstart
	.cfi_sections .debug_frame
	.cfi_startproc
@ %bb.0:
	.save	{r7, lr}
	push	{r7, lr}
	.cfi_def_cfa_offset 8
	.cfi_offset lr, -4
	.cfi_offset r7, -8
	.pad	#16
	sub	sp, #16
	.cfi_def_cfa_offset 24
.Ltmp0:
	.loc	5 193 15 prologue_end           @ libraries/STM32H7xx_HAL/STM32H7xx_HAL_Driver/Src/stm32h7xx_hal_rcc.c:193:15
	bl	HAL_GetTick
	.loc	5 193 13 is_stmt 0              @ libraries/STM32H7xx_HAL/STM32H7xx_HAL_Driver/Src/stm32h7xx_hal_rcc.c:193:13
	str	r0, [sp, #8]
	movw	r1, #17408
	movt	r1, #22530
	.loc	5 196 3 is_stmt 1               @ libraries/STM32H7xx_HAL/STM32H7xx_HAL_Driver/Src/stm32h7xx_hal_rcc.c:196:3
	ldr	r0, [r1]
	orr	r0, r0, #1
	str	r0, [r1]
	.loc	5 199 3                         @ libraries/STM32H7xx_HAL/STM32H7xx_HAL_Driver/Src/stm32h7xx_hal_rcc.c:199:3
	b	.LBB0_1
.LBB0_1:                                @ =>This Inner Loop Header: Depth=1
	.loc	5 0 3 is_stmt 0                 @ libraries/STM32H7xx_HAL/STM32H7xx_HAL_Driver/Src/stm32h7xx_hal_rcc.c:0:3
	movw	r0, #17408
	movt	r0, #22530
	.loc	5 199 10                        @ libraries/STM32H7xx_HAL/STM32H7xx_HAL_Driver/Src/stm32h7xx_hal_rcc.c:199:10
	ldr	r0, [r0]
	.loc	5 199 3                         @ libraries/STM32H7xx_HAL/STM32H7xx_HAL_Driver/Src/stm32h7xx_hal_rcc.c:199:3
	lsls	r0, r0, #29
	cmp	r0, #0
	bmi	.LBB0_5
	b	.LBB0_2
.LBB0_2:                                @   in Loop: Header=BB0_1 Depth=1
.Ltmp1:
	.loc	5 201 10 is_stmt 1              @ libraries/STM32H7xx_HAL/STM32H7xx_HAL_Driver/Src/stm32h7xx_hal_rcc.c:201:10
	bl	HAL_GetTick
	.loc	5 201 26 is_stmt 0              @ libraries/STM32H7xx_HAL/STM32H7xx_HAL_Driver/Src/stm32h7xx_hal_rcc.c:201:26
	ldr	r1, [sp, #8]
	.loc	5 201 24                        @ libraries/STM32H7xx_HAL/STM32H7xx_HAL_Driver/Src/stm32h7xx_hal_rcc.c:201:24
	subs	r0, r0, r1
.Ltmp2:
	.loc	5 201 9                         @ libraries/STM32H7xx_HAL/STM32H7xx_HAL_Driver/Src/stm32h7xx_hal_rcc.c:201:9
	cmp	r0, #3
	blo	.LBB0_4
	b	.LBB0_3
.LBB0_3:
	.loc	5 0 9                           @ libraries/STM32H7xx_HAL/STM32H7xx_HAL_Driver/Src/stm32h7xx_hal_rcc.c:0:9
	movs	r0, #3
.Ltmp3:
	.loc	5 203 7 is_stmt 1               @ libraries/STM32H7xx_HAL/STM32H7xx_HAL_Driver/Src/stm32h7xx_hal_rcc.c:203:7
	strb.w	r0, [sp, #15]
	b	.LBB0_33
.Ltmp4:
.LBB0_4:                                @   in Loop: Header=BB0_1 Depth=1
	.loc	5 199 3                         @ libraries/STM32H7xx_HAL/STM32H7xx_HAL_Driver/Src/stm32h7xx_hal_rcc.c:199:3
	b	.LBB0_1
.LBB0_5:
	.loc	5 0 3 is_stmt 0                 @ libraries/STM32H7xx_HAL/STM32H7xx_HAL_Driver/Src/stm32h7xx_hal_rcc.c:0:3
	movw	r1, #17412
	movt	r1, #22530
	.loc	5 208 3 is_stmt 1               @ libraries/STM32H7xx_HAL/STM32H7xx_HAL_Driver/Src/stm32h7xx_hal_rcc.c:208:3
	ldr	r0, [r1]
	orr	r0, r0, #1073741824
	str	r0, [r1]
	movw	r1, #17424
	movt	r1, #22530
	movs	r0, #0
	.loc	5 211 3                         @ libraries/STM32H7xx_HAL/STM32H7xx_HAL_Driver/Src/stm32h7xx_hal_rcc.c:211:3
	str	r0, [r1]
	.loc	5 214 19                        @ libraries/STM32H7xx_HAL/STM32H7xx_HAL_Driver/Src/stm32h7xx_hal_rcc.c:214:19
	movw	r1, :lower16:SystemCoreClock
	movt	r1, :upper16:SystemCoreClock
	movw	r0, #36864
	movt	r0, #976
	str	r0, [r1]
.Ltmp5:
	.loc	5 217 19                        @ libraries/STM32H7xx_HAL/STM32H7xx_HAL_Driver/Src/stm32h7xx_hal_rcc.c:217:19
	movw	r0, :lower16:uwTickPrio
	movt	r0, :upper16:uwTickPrio
	ldr	r0, [r0]
	.loc	5 217 6 is_stmt 0               @ libraries/STM32H7xx_HAL/STM32H7xx_HAL_Driver/Src/stm32h7xx_hal_rcc.c:217:6
	bl	HAL_InitTick
.Ltmp6:
	.loc	5 217 6                         @ libraries/STM32H7xx_HAL/STM32H7xx_HAL_Driver/Src/stm32h7xx_hal_rcc.c:217:6
	cbz	r0, .LBB0_7
	b	.LBB0_6
.LBB0_6:
	.loc	5 0 6                           @ libraries/STM32H7xx_HAL/STM32H7xx_HAL_Driver/Src/stm32h7xx_hal_rcc.c:0:6
	movs	r0, #1
.Ltmp7:
	.loc	5 219 5 is_stmt 1               @ libraries/STM32H7xx_HAL/STM32H7xx_HAL_Driver/Src/stm32h7xx_hal_rcc.c:219:5
	strb.w	r0, [sp, #15]
	b	.LBB0_33
.Ltmp8:
.LBB0_7:
	.loc	5 223 15                        @ libraries/STM32H7xx_HAL/STM32H7xx_HAL_Driver/Src/stm32h7xx_hal_rcc.c:223:15
	bl	HAL_GetTick
	.loc	5 223 13 is_stmt 0              @ libraries/STM32H7xx_HAL/STM32H7xx_HAL_Driver/Src/stm32h7xx_hal_rcc.c:223:13
	str	r0, [sp, #8]
	.loc	5 226 3 is_stmt 1               @ libraries/STM32H7xx_HAL/STM32H7xx_HAL_Driver/Src/stm32h7xx_hal_rcc.c:226:3
	b	.LBB0_8
.LBB0_8:                                @ =>This Inner Loop Header: Depth=1
	.loc	5 0 3 is_stmt 0                 @ libraries/STM32H7xx_HAL/STM32H7xx_HAL_Driver/Src/stm32h7xx_hal_rcc.c:0:3
	movw	r0, #17424
	movt	r0, #22530
	.loc	5 226 10                        @ libraries/STM32H7xx_HAL/STM32H7xx_HAL_Driver/Src/stm32h7xx_hal_rcc.c:226:10
	ldr	r0, [r0]
	.loc	5 226 3                         @ libraries/STM32H7xx_HAL/STM32H7xx_HAL_Driver/Src/stm32h7xx_hal_rcc.c:226:3
	tst.w	r0, #56
	beq	.LBB0_12
	b	.LBB0_9
.LBB0_9:                                @   in Loop: Header=BB0_8 Depth=1
.Ltmp9:
	.loc	5 228 10 is_stmt 1              @ libraries/STM32H7xx_HAL/STM32H7xx_HAL_Driver/Src/stm32h7xx_hal_rcc.c:228:10
	bl	HAL_GetTick
	.loc	5 228 26 is_stmt 0              @ libraries/STM32H7xx_HAL/STM32H7xx_HAL_Driver/Src/stm32h7xx_hal_rcc.c:228:26
	ldr	r1, [sp, #8]
	.loc	5 228 24                        @ libraries/STM32H7xx_HAL/STM32H7xx_HAL_Driver/Src/stm32h7xx_hal_rcc.c:228:24
	subs	r0, r0, r1
	movw	r1, #5001
.Ltmp10:
	.loc	5 228 9                         @ libraries/STM32H7xx_HAL/STM32H7xx_HAL_Driver/Src/stm32h7xx_hal_rcc.c:228:9
	cmp	r0, r1
	blo	.LBB0_11
	b	.LBB0_10
.LBB0_10:
	.loc	5 0 9                           @ libraries/STM32H7xx_HAL/STM32H7xx_HAL_Driver/Src/stm32h7xx_hal_rcc.c:0:9
	movs	r0, #3
.Ltmp11:
	.loc	5 230 7 is_stmt 1               @ libraries/STM32H7xx_HAL/STM32H7xx_HAL_Driver/Src/stm32h7xx_hal_rcc.c:230:7
	strb.w	r0, [sp, #15]
	b	.LBB0_33
.Ltmp12:
.LBB0_11:                               @   in Loop: Header=BB0_8 Depth=1
	.loc	5 226 3                         @ libraries/STM32H7xx_HAL/STM32H7xx_HAL_Driver/Src/stm32h7xx_hal_rcc.c:226:3
	b	.LBB0_8
.LBB0_12:
	.loc	5 235 15                        @ libraries/STM32H7xx_HAL/STM32H7xx_HAL_Driver/Src/stm32h7xx_hal_rcc.c:235:15
	bl	HAL_GetTick
	.loc	5 235 13 is_stmt 0              @ libraries/STM32H7xx_HAL/STM32H7xx_HAL_Driver/Src/stm32h7xx_hal_rcc.c:235:13
	str	r0, [sp, #8]
	movw	r1, #17408
	movt	r1, #22530
	.loc	5 238 3 is_stmt 1               @ libraries/STM32H7xx_HAL/STM32H7xx_HAL_Driver/Src/stm32h7xx_hal_rcc.c:238:3
	ldr	r0, [r1]
	movw	r2, #60741
	movt	r2, #65526
	ands	r0, r2
	str	r0, [r1]
	.loc	5 242 3                         @ libraries/STM32H7xx_HAL/STM32H7xx_HAL_Driver/Src/stm32h7xx_hal_rcc.c:242:3
	b	.LBB0_13
.LBB0_13:                               @ =>This Inner Loop Header: Depth=1
	.loc	5 0 3 is_stmt 0                 @ libraries/STM32H7xx_HAL/STM32H7xx_HAL_Driver/Src/stm32h7xx_hal_rcc.c:0:3
	movw	r0, #17408
	movt	r0, #22530
	.loc	5 242 10                        @ libraries/STM32H7xx_HAL/STM32H7xx_HAL_Driver/Src/stm32h7xx_hal_rcc.c:242:10
	ldr	r0, [r0]
	.loc	5 242 3                         @ libraries/STM32H7xx_HAL/STM32H7xx_HAL_Driver/Src/stm32h7xx_hal_rcc.c:242:3
	lsls	r0, r0, #14
	cmp	r0, #0
	bpl	.LBB0_17
	b	.LBB0_14
.LBB0_14:                               @   in Loop: Header=BB0_13 Depth=1
.Ltmp13:
	.loc	5 244 10 is_stmt 1              @ libraries/STM32H7xx_HAL/STM32H7xx_HAL_Driver/Src/stm32h7xx_hal_rcc.c:244:10
	bl	HAL_GetTick
	.loc	5 244 26 is_stmt 0              @ libraries/STM32H7xx_HAL/STM32H7xx_HAL_Driver/Src/stm32h7xx_hal_rcc.c:244:26
	ldr	r1, [sp, #8]
	.loc	5 244 24                        @ libraries/STM32H7xx_HAL/STM32H7xx_HAL_Driver/Src/stm32h7xx_hal_rcc.c:244:24
	subs	r0, r0, r1
.Ltmp14:
	.loc	5 244 9                         @ libraries/STM32H7xx_HAL/STM32H7xx_HAL_Driver/Src/stm32h7xx_hal_rcc.c:244:9
	cmp	r0, #101
	blo	.LBB0_16
	b	.LBB0_15
.LBB0_15:
	.loc	5 0 9                           @ libraries/STM32H7xx_HAL/STM32H7xx_HAL_Driver/Src/stm32h7xx_hal_rcc.c:0:9
	movs	r0, #3
.Ltmp15:
	.loc	5 246 7 is_stmt 1               @ libraries/STM32H7xx_HAL/STM32H7xx_HAL_Driver/Src/stm32h7xx_hal_rcc.c:246:7
	strb.w	r0, [sp, #15]
	b	.LBB0_33
.Ltmp16:
.LBB0_16:                               @   in Loop: Header=BB0_13 Depth=1
	.loc	5 242 3                         @ libraries/STM32H7xx_HAL/STM32H7xx_HAL_Driver/Src/stm32h7xx_hal_rcc.c:242:3
	b	.LBB0_13
.LBB0_17:
	.loc	5 251 15                        @ libraries/STM32H7xx_HAL/STM32H7xx_HAL_Driver/Src/stm32h7xx_hal_rcc.c:251:15
	bl	HAL_GetTick
	.loc	5 251 13 is_stmt 0              @ libraries/STM32H7xx_HAL/STM32H7xx_HAL_Driver/Src/stm32h7xx_hal_rcc.c:251:13
	str	r0, [sp, #8]
	movw	r1, #17408
	movt	r1, #22530
	.loc	5 254 3 is_stmt 1               @ libraries/STM32H7xx_HAL/STM32H7xx_HAL_Driver/Src/stm32h7xx_hal_rcc.c:254:3
	ldr	r0, [r1]
	bic	r0, r0, #16777216
	str	r0, [r1]
	.loc	5 257 3                         @ libraries/STM32H7xx_HAL/STM32H7xx_HAL_Driver/Src/stm32h7xx_hal_rcc.c:257:3
	b	.LBB0_18
.LBB0_18:                               @ =>This Inner Loop Header: Depth=1
	.loc	5 0 3 is_stmt 0                 @ libraries/STM32H7xx_HAL/STM32H7xx_HAL_Driver/Src/stm32h7xx_hal_rcc.c:0:3
	movw	r0, #17408
	movt	r0, #22530
	.loc	5 257 10                        @ libraries/STM32H7xx_HAL/STM32H7xx_HAL_Driver/Src/stm32h7xx_hal_rcc.c:257:10
	ldr	r0, [r0]
	.loc	5 257 3                         @ libraries/STM32H7xx_HAL/STM32H7xx_HAL_Driver/Src/stm32h7xx_hal_rcc.c:257:3
	lsls	r0, r0, #6
	cmp	r0, #0
	bpl	.LBB0_22
	b	.LBB0_19
.LBB0_19:                               @   in Loop: Header=BB0_18 Depth=1
.Ltmp17:
	.loc	5 259 10 is_stmt 1              @ libraries/STM32H7xx_HAL/STM32H7xx_HAL_Driver/Src/stm32h7xx_hal_rcc.c:259:10
	bl	HAL_GetTick
	.loc	5 259 26 is_stmt 0              @ libraries/STM32H7xx_HAL/STM32H7xx_HAL_Driver/Src/stm32h7xx_hal_rcc.c:259:26
	ldr	r1, [sp, #8]
	.loc	5 259 24                        @ libraries/STM32H7xx_HAL/STM32H7xx_HAL_Driver/Src/stm32h7xx_hal_rcc.c:259:24
	subs	r0, r0, r1
.Ltmp18:
	.loc	5 259 9                         @ libraries/STM32H7xx_HAL/STM32H7xx_HAL_Driver/Src/stm32h7xx_hal_rcc.c:259:9
	cmp	r0, #3
	blo	.LBB0_21
	b	.LBB0_20
.LBB0_20:
	.loc	5 0 9                           @ libraries/STM32H7xx_HAL/STM32H7xx_HAL_Driver/Src/stm32h7xx_hal_rcc.c:0:9
	movs	r0, #3
.Ltmp19:
	.loc	5 261 7 is_stmt 1               @ libraries/STM32H7xx_HAL/STM32H7xx_HAL_Driver/Src/stm32h7xx_hal_rcc.c:261:7
	strb.w	r0, [sp, #15]
	b	.LBB0_33
.Ltmp20:
.LBB0_21:                               @   in Loop: Header=BB0_18 Depth=1
	.loc	5 257 3                         @ libraries/STM32H7xx_HAL/STM32H7xx_HAL_Driver/Src/stm32h7xx_hal_rcc.c:257:3
	b	.LBB0_18
.LBB0_22:
	.loc	5 266 15                        @ libraries/STM32H7xx_HAL/STM32H7xx_HAL_Driver/Src/stm32h7xx_hal_rcc.c:266:15
	bl	HAL_GetTick
	.loc	5 266 13 is_stmt 0              @ libraries/STM32H7xx_HAL/STM32H7xx_HAL_Driver/Src/stm32h7xx_hal_rcc.c:266:13
	str	r0, [sp, #8]
	movw	r1, #17408
	movt	r1, #22530
	.loc	5 269 3 is_stmt 1               @ libraries/STM32H7xx_HAL/STM32H7xx_HAL_Driver/Src/stm32h7xx_hal_rcc.c:269:3
	ldr	r0, [r1]
	bic	r0, r0, #67108864
	str	r0, [r1]
	.loc	5 272 3                         @ libraries/STM32H7xx_HAL/STM32H7xx_HAL_Driver/Src/stm32h7xx_hal_rcc.c:272:3
	b	.LBB0_23
.LBB0_23:                               @ =>This Inner Loop Header: Depth=1
	.loc	5 0 3 is_stmt 0                 @ libraries/STM32H7xx_HAL/STM32H7xx_HAL_Driver/Src/stm32h7xx_hal_rcc.c:0:3
	movw	r0, #17408
	movt	r0, #22530
	.loc	5 272 10                        @ libraries/STM32H7xx_HAL/STM32H7xx_HAL_Driver/Src/stm32h7xx_hal_rcc.c:272:10
	ldr	r0, [r0]
	.loc	5 272 3                         @ libraries/STM32H7xx_HAL/STM32H7xx_HAL_Driver/Src/stm32h7xx_hal_rcc.c:272:3
	lsls	r0, r0, #4
	cmp	r0, #0
	bpl	.LBB0_27
	b	.LBB0_24
.LBB0_24:                               @   in Loop: Header=BB0_23 Depth=1
.Ltmp21:
	.loc	5 274 10 is_stmt 1              @ libraries/STM32H7xx_HAL/STM32H7xx_HAL_Driver/Src/stm32h7xx_hal_rcc.c:274:10
	bl	HAL_GetTick
	.loc	5 274 26 is_stmt 0              @ libraries/STM32H7xx_HAL/STM32H7xx_HAL_Driver/Src/stm32h7xx_hal_rcc.c:274:26
	ldr	r1, [sp, #8]
	.loc	5 274 24                        @ libraries/STM32H7xx_HAL/STM32H7xx_HAL_Driver/Src/stm32h7xx_hal_rcc.c:274:24
	subs	r0, r0, r1
.Ltmp22:
	.loc	5 274 9                         @ libraries/STM32H7xx_HAL/STM32H7xx_HAL_Driver/Src/stm32h7xx_hal_rcc.c:274:9
	cmp	r0, #3
	blo	.LBB0_26
	b	.LBB0_25
.LBB0_25:
	.loc	5 0 9                           @ libraries/STM32H7xx_HAL/STM32H7xx_HAL_Driver/Src/stm32h7xx_hal_rcc.c:0:9
	movs	r0, #3
.Ltmp23:
	.loc	5 276 7 is_stmt 1               @ libraries/STM32H7xx_HAL/STM32H7xx_HAL_Driver/Src/stm32h7xx_hal_rcc.c:276:7
	strb.w	r0, [sp, #15]
	b	.LBB0_33
.Ltmp24:
.LBB0_26:                               @   in Loop: Header=BB0_23 Depth=1
	.loc	5 272 3                         @ libraries/STM32H7xx_HAL/STM32H7xx_HAL_Driver/Src/stm32h7xx_hal_rcc.c:272:3
	b	.LBB0_23
.LBB0_27:
	.loc	5 281 15                        @ libraries/STM32H7xx_HAL/STM32H7xx_HAL_Driver/Src/stm32h7xx_hal_rcc.c:281:15
	bl	HAL_GetTick
	.loc	5 281 13 is_stmt 0              @ libraries/STM32H7xx_HAL/STM32H7xx_HAL_Driver/Src/stm32h7xx_hal_rcc.c:281:13
	str	r0, [sp, #8]
	movw	r1, #17408
	movt	r1, #22530
	.loc	5 284 3 is_stmt 1               @ libraries/STM32H7xx_HAL/STM32H7xx_HAL_Driver/Src/stm32h7xx_hal_rcc.c:284:3
	ldr	r0, [r1]
	bic	r0, r0, #268435456
	str	r0, [r1]
	.loc	5 287 3                         @ libraries/STM32H7xx_HAL/STM32H7xx_HAL_Driver/Src/stm32h7xx_hal_rcc.c:287:3
	b	.LBB0_28
.LBB0_28:                               @ =>This Inner Loop Header: Depth=1
	.loc	5 0 3 is_stmt 0                 @ libraries/STM32H7xx_HAL/STM32H7xx_HAL_Driver/Src/stm32h7xx_hal_rcc.c:0:3
	movw	r0, #17408
	movt	r0, #22530
	.loc	5 287 10                        @ libraries/STM32H7xx_HAL/STM32H7xx_HAL_Driver/Src/stm32h7xx_hal_rcc.c:287:10
	ldr	r0, [r0]
	.loc	5 287 3                         @ libraries/STM32H7xx_HAL/STM32H7xx_HAL_Driver/Src/stm32h7xx_hal_rcc.c:287:3
	lsls	r0, r0, #2
	cmp	r0, #0
	bpl	.LBB0_32
	b	.LBB0_29
.LBB0_29:                               @   in Loop: Header=BB0_28 Depth=1
.Ltmp25:
	.loc	5 289 10 is_stmt 1              @ libraries/STM32H7xx_HAL/STM32H7xx_HAL_Driver/Src/stm32h7xx_hal_rcc.c:289:10
	bl	HAL_GetTick
	.loc	5 289 26 is_stmt 0              @ libraries/STM32H7xx_HAL/STM32H7xx_HAL_Driver/Src/stm32h7xx_hal_rcc.c:289:26
	ldr	r1, [sp, #8]
	.loc	5 289 24                        @ libraries/STM32H7xx_HAL/STM32H7xx_HAL_Driver/Src/stm32h7xx_hal_rcc.c:289:24
	subs	r0, r0, r1
.Ltmp26:
	.loc	5 289 9                         @ libraries/STM32H7xx_HAL/STM32H7xx_HAL_Driver/Src/stm32h7xx_hal_rcc.c:289:9
	cmp	r0, #3
	blo	.LBB0_31
	b	.LBB0_30
.LBB0_30:
	.loc	5 0 9                           @ libraries/STM32H7xx_HAL/STM32H7xx_HAL_Driver/Src/stm32h7xx_hal_rcc.c:0:9
	movs	r0, #3
.Ltmp27:
	.loc	5 291 7 is_stmt 1               @ libraries/STM32H7xx_HAL/STM32H7xx_HAL_Driver/Src/stm32h7xx_hal_rcc.c:291:7
	strb.w	r0, [sp, #15]
	b	.LBB0_33
.Ltmp28:
.LBB0_31:                               @   in Loop: Header=BB0_28 Depth=1
	.loc	5 287 3                         @ libraries/STM32H7xx_HAL/STM32H7xx_HAL_Driver/Src/stm32h7xx_hal_rcc.c:287:3
	b	.LBB0_28
.LBB0_32:
	.loc	5 0 3 is_stmt 0                 @ libraries/STM32H7xx_HAL/STM32H7xx_HAL_Driver/Src/stm32h7xx_hal_rcc.c:0:3
	movw	r1, #17432
	movt	r1, #22530
	movs	r0, #0
	.loc	5 296 3 is_stmt 1               @ libraries/STM32H7xx_HAL/STM32H7xx_HAL_Driver/Src/stm32h7xx_hal_rcc.c:296:3
	str	r0, [sp, #4]                    @ 4-byte Spill
	str	r0, [r1]
	movw	r1, #17436
	movt	r1, #22530
	.loc	5 299 3                         @ libraries/STM32H7xx_HAL/STM32H7xx_HAL_Driver/Src/stm32h7xx_hal_rcc.c:299:3
	str	r0, [r1]
	movw	r1, #17440
	movt	r1, #22530
	.loc	5 302 3                         @ libraries/STM32H7xx_HAL/STM32H7xx_HAL_Driver/Src/stm32h7xx_hal_rcc.c:302:3
	str	r0, [r1]
	movw	r2, #17448
	movt	r2, #22530
	movw	r1, #512
	movt	r1, #514
	.loc	5 305 17                        @ libraries/STM32H7xx_HAL/STM32H7xx_HAL_Driver/Src/stm32h7xx_hal_rcc.c:305:17
	str	r1, [r2]
	movw	r2, #17452
	movt	r2, #22530
	movs	r1, #0
	movt	r1, #511
	.loc	5 308 3                         @ libraries/STM32H7xx_HAL/STM32H7xx_HAL_Driver/Src/stm32h7xx_hal_rcc.c:308:3
	str	r1, [r2]
	movw	r2, #17456
	movt	r2, #22530
	movw	r1, #640
	movt	r1, #257
	.loc	5 311 3                         @ libraries/STM32H7xx_HAL/STM32H7xx_HAL_Driver/Src/stm32h7xx_hal_rcc.c:311:3
	str	r1, [r2]
	movw	r2, #17460
	movt	r2, #22530
	.loc	5 314 3                         @ libraries/STM32H7xx_HAL/STM32H7xx_HAL_Driver/Src/stm32h7xx_hal_rcc.c:314:3
	str	r0, [r2]
	movw	r2, #17464
	movt	r2, #22530
	.loc	5 317 3                         @ libraries/STM32H7xx_HAL/STM32H7xx_HAL_Driver/Src/stm32h7xx_hal_rcc.c:317:3
	str	r1, [r2]
	movw	r2, #17468
	movt	r2, #22530
	.loc	5 320 3                         @ libraries/STM32H7xx_HAL/STM32H7xx_HAL_Driver/Src/stm32h7xx_hal_rcc.c:320:3
	str	r0, [r2]
	movw	r2, #17472
	movt	r2, #22530
	.loc	5 323 3                         @ libraries/STM32H7xx_HAL/STM32H7xx_HAL_Driver/Src/stm32h7xx_hal_rcc.c:323:3
	str	r1, [r2]
	movw	r1, #17476
	movt	r1, #22530
	.loc	5 326 3                         @ libraries/STM32H7xx_HAL/STM32H7xx_HAL_Driver/Src/stm32h7xx_hal_rcc.c:326:3
	str	r0, [r1]
	movw	r2, #17408
	movt	r2, #22530
	.loc	5 329 3                         @ libraries/STM32H7xx_HAL/STM32H7xx_HAL_Driver/Src/stm32h7xx_hal_rcc.c:329:3
	ldr	r1, [r2]
	bic	r1, r1, #262144
	str	r1, [r2]
	movw	r1, #17504
	movt	r1, #22530
	.loc	5 332 3                         @ libraries/STM32H7xx_HAL/STM32H7xx_HAL_Driver/Src/stm32h7xx_hal_rcc.c:332:3
	str	r0, [r1]
	movw	r2, #17512
	movt	r2, #22530
	mov.w	r1, #-1
	.loc	5 335 3                         @ libraries/STM32H7xx_HAL/STM32H7xx_HAL_Driver/Src/stm32h7xx_hal_rcc.c:335:3
	str	r1, [r2]
	movw	r2, #17616
	movt	r2, #22530
	.loc	5 338 3                         @ libraries/STM32H7xx_HAL/STM32H7xx_HAL_Driver/Src/stm32h7xx_hal_rcc.c:338:3
	ldr	r1, [r2]
	orr	r1, r1, #65536
	str	r1, [r2]
	.loc	5 340 3                         @ libraries/STM32H7xx_HAL/STM32H7xx_HAL_Driver/Src/stm32h7xx_hal_rcc.c:340:3
	strb.w	r0, [sp, #15]
	b	.LBB0_33
.LBB0_33:
	.loc	5 341 1                         @ libraries/STM32H7xx_HAL/STM32H7xx_HAL_Driver/Src/stm32h7xx_hal_rcc.c:341:1
	ldrb.w	r0, [sp, #15]
	add	sp, #16
	pop	{r7, pc}
.Ltmp29:
.Lfunc_end0:
	.size	HAL_RCC_DeInit, .Lfunc_end0-HAL_RCC_DeInit
	.cfi_endproc
	.cantunwind
	.fnend
                                        @ -- End function
	.section	.text.HAL_RCC_OscConfig,"ax",%progbits
	.hidden	HAL_RCC_OscConfig               @ -- Begin function HAL_RCC_OscConfig
	.weak	HAL_RCC_OscConfig
	.p2align	3
	.type	HAL_RCC_OscConfig,%function
	.code	16                              @ @HAL_RCC_OscConfig
	.thumb_func
HAL_RCC_OscConfig:
.Lfunc_begin1:
	.loc	5 358 0                         @ libraries/STM32H7xx_HAL/STM32H7xx_HAL_Driver/Src/stm32h7xx_hal_rcc.c:358:0
	.fnstart
	.cfi_startproc
@ %bb.0:
	.save	{r7, lr}
	push	{r7, lr}
	.cfi_def_cfa_offset 8
	.cfi_offset lr, -4
	.cfi_offset r7, -8
	.pad	#40
	sub	sp, #40
	.cfi_def_cfa_offset 48
	str	r0, [sp, #32]
.Ltmp30:
	.loc	5 362 6 prologue_end            @ libraries/STM32H7xx_HAL/STM32H7xx_HAL_Driver/Src/stm32h7xx_hal_rcc.c:362:6
	ldr	r0, [sp, #32]
.Ltmp31:
	.loc	5 362 6 is_stmt 0               @ libraries/STM32H7xx_HAL/STM32H7xx_HAL_Driver/Src/stm32h7xx_hal_rcc.c:362:6
	cbnz	r0, .LBB1_2
	b	.LBB1_1
.LBB1_1:
	.loc	5 0 6                           @ libraries/STM32H7xx_HAL/STM32H7xx_HAL_Driver/Src/stm32h7xx_hal_rcc.c:0:6
	movs	r0, #1
.Ltmp32:
	.loc	5 364 5 is_stmt 1               @ libraries/STM32H7xx_HAL/STM32H7xx_HAL_Driver/Src/stm32h7xx_hal_rcc.c:364:5
	strb.w	r0, [sp, #39]
	b.w	.LBB1_196
.Ltmp33:
.LBB1_2:
	.loc	5 370 8                         @ libraries/STM32H7xx_HAL/STM32H7xx_HAL_Driver/Src/stm32h7xx_hal_rcc.c:370:8
	ldr	r0, [sp, #32]
.Ltmp34:
	.loc	5 370 6 is_stmt 0               @ libraries/STM32H7xx_HAL/STM32H7xx_HAL_Driver/Src/stm32h7xx_hal_rcc.c:370:6
	ldrb	r0, [r0]
	lsls	r0, r0, #31
	cmp	r0, #0
	beq.w	.LBB1_36
	b	.LBB1_3
.LBB1_3:
	.loc	5 0 6                           @ libraries/STM32H7xx_HAL/STM32H7xx_HAL_Driver/Src/stm32h7xx_hal_rcc.c:0:6
	movw	r0, #17424
	movt	r0, #22530
.Ltmp35:
	.loc	5 375 37 is_stmt 1              @ libraries/STM32H7xx_HAL/STM32H7xx_HAL_Driver/Src/stm32h7xx_hal_rcc.c:375:37
	ldr	r0, [r0]
	and	r0, r0, #56
	.loc	5 375 20 is_stmt 0              @ libraries/STM32H7xx_HAL/STM32H7xx_HAL_Driver/Src/stm32h7xx_hal_rcc.c:375:20
	str	r0, [sp, #24]
	movw	r0, #17448
	movt	r0, #22530
	.loc	5 376 42 is_stmt 1              @ libraries/STM32H7xx_HAL/STM32H7xx_HAL_Driver/Src/stm32h7xx_hal_rcc.c:376:42
	ldr	r0, [r0]
	.loc	5 376 20 is_stmt 0              @ libraries/STM32H7xx_HAL/STM32H7xx_HAL_Driver/Src/stm32h7xx_hal_rcc.c:376:20
	str	r0, [sp, #20]
.Ltmp36:
	.loc	5 378 9 is_stmt 1               @ libraries/STM32H7xx_HAL/STM32H7xx_HAL_Driver/Src/stm32h7xx_hal_rcc.c:378:9
	ldr	r0, [sp, #24]
	.loc	5 378 45 is_stmt 0              @ libraries/STM32H7xx_HAL/STM32H7xx_HAL_Driver/Src/stm32h7xx_hal_rcc.c:378:45
	cmp	r0, #16
	beq	.LBB1_6
	b	.LBB1_4
.LBB1_4:
	.loc	5 378 50                        @ libraries/STM32H7xx_HAL/STM32H7xx_HAL_Driver/Src/stm32h7xx_hal_rcc.c:378:50
	ldr	r0, [sp, #24]
	.loc	5 378 87                        @ libraries/STM32H7xx_HAL/STM32H7xx_HAL_Driver/Src/stm32h7xx_hal_rcc.c:378:87
	cmp	r0, #24
	bne	.LBB1_10
	b	.LBB1_5
.LBB1_5:
	.loc	5 378 92                        @ libraries/STM32H7xx_HAL/STM32H7xx_HAL_Driver/Src/stm32h7xx_hal_rcc.c:378:92
	ldr	r0, [sp, #20]
	.loc	5 378 107                       @ libraries/STM32H7xx_HAL/STM32H7xx_HAL_Driver/Src/stm32h7xx_hal_rcc.c:378:107
	and	r0, r0, #3
.Ltmp37:
	.loc	5 378 8                         @ libraries/STM32H7xx_HAL/STM32H7xx_HAL_Driver/Src/stm32h7xx_hal_rcc.c:378:8
	cmp	r0, #2
	bne	.LBB1_10
	b	.LBB1_6
.LBB1_6:
	.loc	5 0 8                           @ libraries/STM32H7xx_HAL/STM32H7xx_HAL_Driver/Src/stm32h7xx_hal_rcc.c:0:8
	movw	r0, #17408
	movt	r0, #22530
.Ltmp38:
	.loc	5 380 11 is_stmt 1              @ libraries/STM32H7xx_HAL/STM32H7xx_HAL_Driver/Src/stm32h7xx_hal_rcc.c:380:11
	ldr	r0, [r0]
	and	r1, r0, #131072
	movs	r0, #0
	.loc	5 380 54 is_stmt 0              @ libraries/STM32H7xx_HAL/STM32H7xx_HAL_Driver/Src/stm32h7xx_hal_rcc.c:380:54
	cmp.w	r0, r1, lsr #17
	beq	.LBB1_9
	b	.LBB1_7
.LBB1_7:
	.loc	5 380 58                        @ libraries/STM32H7xx_HAL/STM32H7xx_HAL_Driver/Src/stm32h7xx_hal_rcc.c:380:58
	ldr	r0, [sp, #32]
	.loc	5 380 77                        @ libraries/STM32H7xx_HAL/STM32H7xx_HAL_Driver/Src/stm32h7xx_hal_rcc.c:380:77
	ldr	r0, [r0, #4]
.Ltmp39:
	.loc	5 380 10                        @ libraries/STM32H7xx_HAL/STM32H7xx_HAL_Driver/Src/stm32h7xx_hal_rcc.c:380:10
	cbnz	r0, .LBB1_9
	b	.LBB1_8
.LBB1_8:
	.loc	5 0 10                          @ libraries/STM32H7xx_HAL/STM32H7xx_HAL_Driver/Src/stm32h7xx_hal_rcc.c:0:10
	movs	r0, #1
.Ltmp40:
	.loc	5 382 9 is_stmt 1               @ libraries/STM32H7xx_HAL/STM32H7xx_HAL_Driver/Src/stm32h7xx_hal_rcc.c:382:9
	strb.w	r0, [sp, #39]
	b.w	.LBB1_196
.Ltmp41:
.LBB1_9:
	.loc	5 384 5                         @ libraries/STM32H7xx_HAL/STM32H7xx_HAL_Driver/Src/stm32h7xx_hal_rcc.c:384:5
	b	.LBB1_35
.Ltmp42:
.LBB1_10:
	.loc	5 388 7                         @ libraries/STM32H7xx_HAL/STM32H7xx_HAL_Driver/Src/stm32h7xx_hal_rcc.c:388:7
	b	.LBB1_11
.LBB1_11:
.Ltmp43:
	.loc	5 388 7 is_stmt 0               @ libraries/STM32H7xx_HAL/STM32H7xx_HAL_Driver/Src/stm32h7xx_hal_rcc.c:388:7
	ldr	r0, [sp, #32]
	ldr	r0, [r0, #4]
.Ltmp44:
	.loc	5 388 7                         @ libraries/STM32H7xx_HAL/STM32H7xx_HAL_Driver/Src/stm32h7xx_hal_rcc.c:388:7
	cmp.w	r0, #65536
	bne	.LBB1_13
	b	.LBB1_12
.LBB1_12:
	.loc	5 0 7                           @ libraries/STM32H7xx_HAL/STM32H7xx_HAL_Driver/Src/stm32h7xx_hal_rcc.c:0:7
	movw	r1, #17408
	movt	r1, #22530
.Ltmp45:
	.loc	5 388 7                         @ libraries/STM32H7xx_HAL/STM32H7xx_HAL_Driver/Src/stm32h7xx_hal_rcc.c:388:7
	ldr	r0, [r1]
	orr	r0, r0, #65536
	str	r0, [r1]
	b	.LBB1_20
.Ltmp46:
.LBB1_13:
	.loc	5 388 7                         @ libraries/STM32H7xx_HAL/STM32H7xx_HAL_Driver/Src/stm32h7xx_hal_rcc.c:388:7
	ldr	r0, [sp, #32]
	ldr	r0, [r0, #4]
.Ltmp47:
	.loc	5 388 7                         @ libraries/STM32H7xx_HAL/STM32H7xx_HAL_Driver/Src/stm32h7xx_hal_rcc.c:388:7
	cbnz	r0, .LBB1_15
	b	.LBB1_14
.LBB1_14:
	.loc	5 0 7                           @ libraries/STM32H7xx_HAL/STM32H7xx_HAL_Driver/Src/stm32h7xx_hal_rcc.c:0:7
	movw	r1, #17408
	movt	r1, #22530
.Ltmp48:
	.loc	5 388 7                         @ libraries/STM32H7xx_HAL/STM32H7xx_HAL_Driver/Src/stm32h7xx_hal_rcc.c:388:7
	ldr	r0, [r1]
	bic	r0, r0, #65536
	str	r0, [r1]
	ldr	r0, [r1]
	bic	r0, r0, #262144
	str	r0, [r1]
	b	.LBB1_19
.Ltmp49:
.LBB1_15:
	.loc	5 388 7                         @ libraries/STM32H7xx_HAL/STM32H7xx_HAL_Driver/Src/stm32h7xx_hal_rcc.c:388:7
	ldr	r0, [sp, #32]
	ldr	r0, [r0, #4]
.Ltmp50:
	.loc	5 388 7                         @ libraries/STM32H7xx_HAL/STM32H7xx_HAL_Driver/Src/stm32h7xx_hal_rcc.c:388:7
	cmp.w	r0, #327680
	bne	.LBB1_17
	b	.LBB1_16
.LBB1_16:
	.loc	5 0 7                           @ libraries/STM32H7xx_HAL/STM32H7xx_HAL_Driver/Src/stm32h7xx_hal_rcc.c:0:7
	movw	r1, #17408
	movt	r1, #22530
.Ltmp51:
	.loc	5 388 7                         @ libraries/STM32H7xx_HAL/STM32H7xx_HAL_Driver/Src/stm32h7xx_hal_rcc.c:388:7
	ldr	r0, [r1]
	orr	r0, r0, #262144
	str	r0, [r1]
	ldr	r0, [r1]
	orr	r0, r0, #65536
	str	r0, [r1]
	b	.LBB1_18
.Ltmp52:
.LBB1_17:
	.loc	5 0 7                           @ libraries/STM32H7xx_HAL/STM32H7xx_HAL_Driver/Src/stm32h7xx_hal_rcc.c:0:7
	movw	r1, #17408
	movt	r1, #22530
.Ltmp53:
	.loc	5 388 7                         @ libraries/STM32H7xx_HAL/STM32H7xx_HAL_Driver/Src/stm32h7xx_hal_rcc.c:388:7
	ldr	r0, [r1]
	bic	r0, r0, #65536
	str	r0, [r1]
	ldr	r0, [r1]
	bic	r0, r0, #262144
	str	r0, [r1]
	b	.LBB1_18
.Ltmp54:
.LBB1_18:
	.loc	5 0 7                           @ libraries/STM32H7xx_HAL/STM32H7xx_HAL_Driver/Src/stm32h7xx_hal_rcc.c:0:7
	b	.LBB1_19
.LBB1_19:
	b	.LBB1_20
.LBB1_20:
	.loc	5 388 7                         @ libraries/STM32H7xx_HAL/STM32H7xx_HAL_Driver/Src/stm32h7xx_hal_rcc.c:388:7
	b	.LBB1_21
.Ltmp55:
.LBB1_21:
	.loc	5 391 10 is_stmt 1              @ libraries/STM32H7xx_HAL/STM32H7xx_HAL_Driver/Src/stm32h7xx_hal_rcc.c:391:10
	ldr	r0, [sp, #32]
	.loc	5 391 29 is_stmt 0              @ libraries/STM32H7xx_HAL/STM32H7xx_HAL_Driver/Src/stm32h7xx_hal_rcc.c:391:29
	ldr	r0, [r0, #4]
.Ltmp56:
	.loc	5 391 10                        @ libraries/STM32H7xx_HAL/STM32H7xx_HAL_Driver/Src/stm32h7xx_hal_rcc.c:391:10
	cbz	r0, .LBB1_28
	b	.LBB1_22
.LBB1_22:
.Ltmp57:
	.loc	5 394 21 is_stmt 1              @ libraries/STM32H7xx_HAL/STM32H7xx_HAL_Driver/Src/stm32h7xx_hal_rcc.c:394:21
	bl	HAL_GetTick
	.loc	5 394 19 is_stmt 0              @ libraries/STM32H7xx_HAL/STM32H7xx_HAL_Driver/Src/stm32h7xx_hal_rcc.c:394:19
	str	r0, [sp, #28]
	.loc	5 397 9 is_stmt 1               @ libraries/STM32H7xx_HAL/STM32H7xx_HAL_Driver/Src/stm32h7xx_hal_rcc.c:397:9
	b	.LBB1_23
.LBB1_23:                               @ =>This Inner Loop Header: Depth=1
	.loc	5 0 9 is_stmt 0                 @ libraries/STM32H7xx_HAL/STM32H7xx_HAL_Driver/Src/stm32h7xx_hal_rcc.c:0:9
	movw	r0, #17408
	movt	r0, #22530
	.loc	5 397 15                        @ libraries/STM32H7xx_HAL/STM32H7xx_HAL_Driver/Src/stm32h7xx_hal_rcc.c:397:15
	ldr	r0, [r0]
	and	r1, r0, #131072
	movs	r0, #0
	.loc	5 397 9                         @ libraries/STM32H7xx_HAL/STM32H7xx_HAL_Driver/Src/stm32h7xx_hal_rcc.c:397:9
	cmp.w	r0, r1, lsr #17
	bne	.LBB1_27
	b	.LBB1_24
.LBB1_24:                               @   in Loop: Header=BB1_23 Depth=1
.Ltmp58:
	.loc	5 399 26 is_stmt 1              @ libraries/STM32H7xx_HAL/STM32H7xx_HAL_Driver/Src/stm32h7xx_hal_rcc.c:399:26
	bl	HAL_GetTick
	.loc	5 399 42 is_stmt 0              @ libraries/STM32H7xx_HAL/STM32H7xx_HAL_Driver/Src/stm32h7xx_hal_rcc.c:399:42
	ldr	r1, [sp, #28]
	.loc	5 399 40                        @ libraries/STM32H7xx_HAL/STM32H7xx_HAL_Driver/Src/stm32h7xx_hal_rcc.c:399:40
	subs	r0, r0, r1
.Ltmp59:
	.loc	5 399 14                        @ libraries/STM32H7xx_HAL/STM32H7xx_HAL_Driver/Src/stm32h7xx_hal_rcc.c:399:14
	cmp	r0, #101
	blo	.LBB1_26
	b	.LBB1_25
.LBB1_25:
	.loc	5 0 14                          @ libraries/STM32H7xx_HAL/STM32H7xx_HAL_Driver/Src/stm32h7xx_hal_rcc.c:0:14
	movs	r0, #3
.Ltmp60:
	.loc	5 401 13 is_stmt 1              @ libraries/STM32H7xx_HAL/STM32H7xx_HAL_Driver/Src/stm32h7xx_hal_rcc.c:401:13
	strb.w	r0, [sp, #39]
	b.w	.LBB1_196
.Ltmp61:
.LBB1_26:                               @   in Loop: Header=BB1_23 Depth=1
	.loc	5 397 9                         @ libraries/STM32H7xx_HAL/STM32H7xx_HAL_Driver/Src/stm32h7xx_hal_rcc.c:397:9
	b	.LBB1_23
.LBB1_27:
	.loc	5 404 7                         @ libraries/STM32H7xx_HAL/STM32H7xx_HAL_Driver/Src/stm32h7xx_hal_rcc.c:404:7
	b	.LBB1_34
.Ltmp62:
.LBB1_28:
	.loc	5 408 21                        @ libraries/STM32H7xx_HAL/STM32H7xx_HAL_Driver/Src/stm32h7xx_hal_rcc.c:408:21
	bl	HAL_GetTick
	.loc	5 408 19 is_stmt 0              @ libraries/STM32H7xx_HAL/STM32H7xx_HAL_Driver/Src/stm32h7xx_hal_rcc.c:408:19
	str	r0, [sp, #28]
	.loc	5 411 9 is_stmt 1               @ libraries/STM32H7xx_HAL/STM32H7xx_HAL_Driver/Src/stm32h7xx_hal_rcc.c:411:9
	b	.LBB1_29
.LBB1_29:                               @ =>This Inner Loop Header: Depth=1
	.loc	5 0 9 is_stmt 0                 @ libraries/STM32H7xx_HAL/STM32H7xx_HAL_Driver/Src/stm32h7xx_hal_rcc.c:0:9
	movw	r0, #17408
	movt	r0, #22530
	.loc	5 411 15                        @ libraries/STM32H7xx_HAL/STM32H7xx_HAL_Driver/Src/stm32h7xx_hal_rcc.c:411:15
	ldr	r0, [r0]
	and	r1, r0, #131072
	movs	r0, #0
	.loc	5 411 9                         @ libraries/STM32H7xx_HAL/STM32H7xx_HAL_Driver/Src/stm32h7xx_hal_rcc.c:411:9
	cmp.w	r0, r1, lsr #17
	beq	.LBB1_33
	b	.LBB1_30
.LBB1_30:                               @   in Loop: Header=BB1_29 Depth=1
.Ltmp63:
	.loc	5 413 26 is_stmt 1              @ libraries/STM32H7xx_HAL/STM32H7xx_HAL_Driver/Src/stm32h7xx_hal_rcc.c:413:26
	bl	HAL_GetTick
	.loc	5 413 42 is_stmt 0              @ libraries/STM32H7xx_HAL/STM32H7xx_HAL_Driver/Src/stm32h7xx_hal_rcc.c:413:42
	ldr	r1, [sp, #28]
	.loc	5 413 40                        @ libraries/STM32H7xx_HAL/STM32H7xx_HAL_Driver/Src/stm32h7xx_hal_rcc.c:413:40
	subs	r0, r0, r1
.Ltmp64:
	.loc	5 413 14                        @ libraries/STM32H7xx_HAL/STM32H7xx_HAL_Driver/Src/stm32h7xx_hal_rcc.c:413:14
	cmp	r0, #101
	blo	.LBB1_32
	b	.LBB1_31
.LBB1_31:
	.loc	5 0 14                          @ libraries/STM32H7xx_HAL/STM32H7xx_HAL_Driver/Src/stm32h7xx_hal_rcc.c:0:14
	movs	r0, #3
.Ltmp65:
	.loc	5 415 13 is_stmt 1              @ libraries/STM32H7xx_HAL/STM32H7xx_HAL_Driver/Src/stm32h7xx_hal_rcc.c:415:13
	strb.w	r0, [sp, #39]
	b.w	.LBB1_196
.Ltmp66:
.LBB1_32:                               @   in Loop: Header=BB1_29 Depth=1
	.loc	5 411 9                         @ libraries/STM32H7xx_HAL/STM32H7xx_HAL_Driver/Src/stm32h7xx_hal_rcc.c:411:9
	b	.LBB1_29
.Ltmp67:
.LBB1_33:
	.loc	5 0 9 is_stmt 0                 @ libraries/STM32H7xx_HAL/STM32H7xx_HAL_Driver/Src/stm32h7xx_hal_rcc.c:0:9
	b	.LBB1_34
.LBB1_34:
	b	.LBB1_35
.LBB1_35:
	.loc	5 420 3 is_stmt 1               @ libraries/STM32H7xx_HAL/STM32H7xx_HAL_Driver/Src/stm32h7xx_hal_rcc.c:420:3
	b	.LBB1_36
.Ltmp68:
.LBB1_36:
	.loc	5 422 8                         @ libraries/STM32H7xx_HAL/STM32H7xx_HAL_Driver/Src/stm32h7xx_hal_rcc.c:422:8
	ldr	r0, [sp, #32]
.Ltmp69:
	.loc	5 422 6 is_stmt 0               @ libraries/STM32H7xx_HAL/STM32H7xx_HAL_Driver/Src/stm32h7xx_hal_rcc.c:422:6
	ldrb	r0, [r0]
	lsls	r0, r0, #30
	cmp	r0, #0
	bpl.w	.LBB1_75
	b	.LBB1_37
.LBB1_37:
	.loc	5 0 6                           @ libraries/STM32H7xx_HAL/STM32H7xx_HAL_Driver/Src/stm32h7xx_hal_rcc.c:0:6
	movw	r0, #17424
	movt	r0, #22530
.Ltmp70:
	.loc	5 429 37 is_stmt 1              @ libraries/STM32H7xx_HAL/STM32H7xx_HAL_Driver/Src/stm32h7xx_hal_rcc.c:429:37
	ldr	r0, [r0]
	and	r0, r0, #56
	.loc	5 429 20 is_stmt 0              @ libraries/STM32H7xx_HAL/STM32H7xx_HAL_Driver/Src/stm32h7xx_hal_rcc.c:429:20
	str	r0, [sp, #16]
	movw	r0, #17448
	movt	r0, #22530
	.loc	5 430 42 is_stmt 1              @ libraries/STM32H7xx_HAL/STM32H7xx_HAL_Driver/Src/stm32h7xx_hal_rcc.c:430:42
	ldr	r0, [r0]
	.loc	5 430 20 is_stmt 0              @ libraries/STM32H7xx_HAL/STM32H7xx_HAL_Driver/Src/stm32h7xx_hal_rcc.c:430:20
	str	r0, [sp, #12]
.Ltmp71:
	.loc	5 431 9 is_stmt 1               @ libraries/STM32H7xx_HAL/STM32H7xx_HAL_Driver/Src/stm32h7xx_hal_rcc.c:431:9
	ldr	r0, [sp, #16]
	.loc	5 431 45 is_stmt 0              @ libraries/STM32H7xx_HAL/STM32H7xx_HAL_Driver/Src/stm32h7xx_hal_rcc.c:431:45
	cbz	r0, .LBB1_40
	b	.LBB1_38
.LBB1_38:
	.loc	5 431 50                        @ libraries/STM32H7xx_HAL/STM32H7xx_HAL_Driver/Src/stm32h7xx_hal_rcc.c:431:50
	ldr	r0, [sp, #16]
	.loc	5 431 87                        @ libraries/STM32H7xx_HAL/STM32H7xx_HAL_Driver/Src/stm32h7xx_hal_rcc.c:431:87
	cmp	r0, #24
	bne	.LBB1_55
	b	.LBB1_39
.Ltmp72:
.LBB1_39:
	.loc	5 431 8                         @ libraries/STM32H7xx_HAL/STM32H7xx_HAL_Driver/Src/stm32h7xx_hal_rcc.c:431:8
	ldrb.w	r0, [sp, #12]
	lsls	r0, r0, #30
	cmp	r0, #0
	bne	.LBB1_55
	b	.LBB1_40
.LBB1_40:
	.loc	5 0 8                           @ libraries/STM32H7xx_HAL/STM32H7xx_HAL_Driver/Src/stm32h7xx_hal_rcc.c:0:8
	movw	r0, #17408
	movt	r0, #22530
.Ltmp73:
	.loc	5 434 11 is_stmt 1              @ libraries/STM32H7xx_HAL/STM32H7xx_HAL_Driver/Src/stm32h7xx_hal_rcc.c:434:11
	ldr	r0, [r0]
	and	r1, r0, #4
	movs	r0, #0
	.loc	5 434 54 is_stmt 0              @ libraries/STM32H7xx_HAL/STM32H7xx_HAL_Driver/Src/stm32h7xx_hal_rcc.c:434:54
	cmp.w	r0, r1, lsr #2
	beq	.LBB1_43
	b	.LBB1_41
.LBB1_41:
	.loc	5 434 58                        @ libraries/STM32H7xx_HAL/STM32H7xx_HAL_Driver/Src/stm32h7xx_hal_rcc.c:434:58
	ldr	r0, [sp, #32]
	.loc	5 434 77                        @ libraries/STM32H7xx_HAL/STM32H7xx_HAL_Driver/Src/stm32h7xx_hal_rcc.c:434:77
	ldr	r0, [r0, #12]
.Ltmp74:
	.loc	5 434 10                        @ libraries/STM32H7xx_HAL/STM32H7xx_HAL_Driver/Src/stm32h7xx_hal_rcc.c:434:10
	cbnz	r0, .LBB1_43
	b	.LBB1_42
.LBB1_42:
	.loc	5 0 10                          @ libraries/STM32H7xx_HAL/STM32H7xx_HAL_Driver/Src/stm32h7xx_hal_rcc.c:0:10
	movs	r0, #1
.Ltmp75:
	.loc	5 436 9 is_stmt 1               @ libraries/STM32H7xx_HAL/STM32H7xx_HAL_Driver/Src/stm32h7xx_hal_rcc.c:436:9
	strb.w	r0, [sp, #39]
	b	.LBB1_196
.Ltmp76:
.LBB1_43:
	.loc	5 0 9 is_stmt 0                 @ libraries/STM32H7xx_HAL/STM32H7xx_HAL_Driver/Src/stm32h7xx_hal_rcc.c:0:9
	movw	r1, #17408
	movt	r1, #22530
.Ltmp77:
	.loc	5 442 9 is_stmt 1               @ libraries/STM32H7xx_HAL/STM32H7xx_HAL_Driver/Src/stm32h7xx_hal_rcc.c:442:9
	ldr	r0, [r1]
	bic	r0, r0, #25
	ldr	r2, [sp, #32]
	ldr	r2, [r2, #12]
	orrs	r0, r2
	str	r0, [r1]
	.loc	5 445 21                        @ libraries/STM32H7xx_HAL/STM32H7xx_HAL_Driver/Src/stm32h7xx_hal_rcc.c:445:21
	bl	HAL_GetTick
	.loc	5 445 19 is_stmt 0              @ libraries/STM32H7xx_HAL/STM32H7xx_HAL_Driver/Src/stm32h7xx_hal_rcc.c:445:19
	str	r0, [sp, #28]
	.loc	5 448 9 is_stmt 1               @ libraries/STM32H7xx_HAL/STM32H7xx_HAL_Driver/Src/stm32h7xx_hal_rcc.c:448:9
	b	.LBB1_44
.LBB1_44:                               @ =>This Inner Loop Header: Depth=1
	.loc	5 0 9 is_stmt 0                 @ libraries/STM32H7xx_HAL/STM32H7xx_HAL_Driver/Src/stm32h7xx_hal_rcc.c:0:9
	movw	r0, #17408
	movt	r0, #22530
	.loc	5 448 15                        @ libraries/STM32H7xx_HAL/STM32H7xx_HAL_Driver/Src/stm32h7xx_hal_rcc.c:448:15
	ldr	r0, [r0]
	and	r1, r0, #4
	movs	r0, #0
	.loc	5 448 9                         @ libraries/STM32H7xx_HAL/STM32H7xx_HAL_Driver/Src/stm32h7xx_hal_rcc.c:448:9
	cmp.w	r0, r1, lsr #2
	bne	.LBB1_48
	b	.LBB1_45
.LBB1_45:                               @   in Loop: Header=BB1_44 Depth=1
.Ltmp78:
	.loc	5 450 26 is_stmt 1              @ libraries/STM32H7xx_HAL/STM32H7xx_HAL_Driver/Src/stm32h7xx_hal_rcc.c:450:26
	bl	HAL_GetTick
	.loc	5 450 42 is_stmt 0              @ libraries/STM32H7xx_HAL/STM32H7xx_HAL_Driver/Src/stm32h7xx_hal_rcc.c:450:42
	ldr	r1, [sp, #28]
	.loc	5 450 40                        @ libraries/STM32H7xx_HAL/STM32H7xx_HAL_Driver/Src/stm32h7xx_hal_rcc.c:450:40
	subs	r0, r0, r1
.Ltmp79:
	.loc	5 450 14                        @ libraries/STM32H7xx_HAL/STM32H7xx_HAL_Driver/Src/stm32h7xx_hal_rcc.c:450:14
	cmp	r0, #3
	blo	.LBB1_47
	b	.LBB1_46
.LBB1_46:
	.loc	5 0 14                          @ libraries/STM32H7xx_HAL/STM32H7xx_HAL_Driver/Src/stm32h7xx_hal_rcc.c:0:14
	movs	r0, #3
.Ltmp80:
	.loc	5 452 13 is_stmt 1              @ libraries/STM32H7xx_HAL/STM32H7xx_HAL_Driver/Src/stm32h7xx_hal_rcc.c:452:13
	strb.w	r0, [sp, #39]
	b	.LBB1_196
.Ltmp81:
.LBB1_47:                               @   in Loop: Header=BB1_44 Depth=1
	.loc	5 448 9                         @ libraries/STM32H7xx_HAL/STM32H7xx_HAL_Driver/Src/stm32h7xx_hal_rcc.c:448:9
	b	.LBB1_44
.LBB1_48:
	.loc	5 456 9                         @ libraries/STM32H7xx_HAL/STM32H7xx_HAL_Driver/Src/stm32h7xx_hal_rcc.c:456:9
	b	.LBB1_49
.LBB1_49:
.Ltmp82:
	.loc	5 456 9 is_stmt 0               @ libraries/STM32H7xx_HAL/STM32H7xx_HAL_Driver/Src/stm32h7xx_hal_rcc.c:456:9
	bl	HAL_GetREVID
	movw	r1, #4099
.Ltmp83:
	.loc	5 456 9                         @ libraries/STM32H7xx_HAL/STM32H7xx_HAL_Driver/Src/stm32h7xx_hal_rcc.c:456:9
	cmp	r0, r1
	bhi	.LBB1_51
	b	.LBB1_50
.LBB1_50:
	.loc	5 0 9                           @ libraries/STM32H7xx_HAL/STM32H7xx_HAL_Driver/Src/stm32h7xx_hal_rcc.c:0:9
	movw	r1, #17412
	movt	r1, #22530
.Ltmp84:
	.loc	5 456 9                         @ libraries/STM32H7xx_HAL/STM32H7xx_HAL_Driver/Src/stm32h7xx_hal_rcc.c:456:9
	ldr	r0, [r1]
	bic	r0, r0, #258048
	ldr	r2, [sp, #32]
	ldr	r2, [r2, #16]
	orr.w	r0, r0, r2, lsl #12
	str	r0, [r1]
	b	.LBB1_52
.Ltmp85:
.LBB1_51:
	.loc	5 0 9                           @ libraries/STM32H7xx_HAL/STM32H7xx_HAL_Driver/Src/stm32h7xx_hal_rcc.c:0:9
	movw	r1, #17412
	movt	r1, #22530
.Ltmp86:
	.loc	5 456 9                         @ libraries/STM32H7xx_HAL/STM32H7xx_HAL_Driver/Src/stm32h7xx_hal_rcc.c:456:9
	ldr	r0, [r1]
	bic	r0, r0, #2130706432
	ldr	r2, [sp, #32]
	ldr	r2, [r2, #16]
	orr.w	r0, r0, r2, lsl #24
	str	r0, [r1]
	b	.LBB1_52
.Ltmp87:
.LBB1_52:
	.loc	5 456 9                         @ libraries/STM32H7xx_HAL/STM32H7xx_HAL_Driver/Src/stm32h7xx_hal_rcc.c:456:9
	b	.LBB1_53
.Ltmp88:
.LBB1_53:
	.loc	5 0 9                           @ libraries/STM32H7xx_HAL/STM32H7xx_HAL_Driver/Src/stm32h7xx_hal_rcc.c:0:9
	b	.LBB1_54
.LBB1_54:
	.loc	5 458 5 is_stmt 1               @ libraries/STM32H7xx_HAL/STM32H7xx_HAL_Driver/Src/stm32h7xx_hal_rcc.c:458:5
	b	.LBB1_74
.Ltmp89:
.LBB1_55:
	.loc	5 463 11                        @ libraries/STM32H7xx_HAL/STM32H7xx_HAL_Driver/Src/stm32h7xx_hal_rcc.c:463:11
	ldr	r0, [sp, #32]
	.loc	5 463 30 is_stmt 0              @ libraries/STM32H7xx_HAL/STM32H7xx_HAL_Driver/Src/stm32h7xx_hal_rcc.c:463:30
	ldr	r0, [r0, #12]
.Ltmp90:
	.loc	5 463 10                        @ libraries/STM32H7xx_HAL/STM32H7xx_HAL_Driver/Src/stm32h7xx_hal_rcc.c:463:10
	cmp	r0, #0
	beq	.LBB1_67
	b	.LBB1_56
.LBB1_56:
	.loc	5 0 10                          @ libraries/STM32H7xx_HAL/STM32H7xx_HAL_Driver/Src/stm32h7xx_hal_rcc.c:0:10
	movw	r1, #17408
	movt	r1, #22530
.Ltmp91:
	.loc	5 466 9 is_stmt 1               @ libraries/STM32H7xx_HAL/STM32H7xx_HAL_Driver/Src/stm32h7xx_hal_rcc.c:466:9
	ldr	r0, [r1]
	bic	r0, r0, #25
	ldr	r2, [sp, #32]
	ldr	r2, [r2, #12]
	orrs	r0, r2
	str	r0, [r1]
	.loc	5 469 21                        @ libraries/STM32H7xx_HAL/STM32H7xx_HAL_Driver/Src/stm32h7xx_hal_rcc.c:469:21
	bl	HAL_GetTick
	.loc	5 469 19 is_stmt 0              @ libraries/STM32H7xx_HAL/STM32H7xx_HAL_Driver/Src/stm32h7xx_hal_rcc.c:469:19
	str	r0, [sp, #28]
	.loc	5 472 9 is_stmt 1               @ libraries/STM32H7xx_HAL/STM32H7xx_HAL_Driver/Src/stm32h7xx_hal_rcc.c:472:9
	b	.LBB1_57
.LBB1_57:                               @ =>This Inner Loop Header: Depth=1
	.loc	5 0 9 is_stmt 0                 @ libraries/STM32H7xx_HAL/STM32H7xx_HAL_Driver/Src/stm32h7xx_hal_rcc.c:0:9
	movw	r0, #17408
	movt	r0, #22530
	.loc	5 472 15                        @ libraries/STM32H7xx_HAL/STM32H7xx_HAL_Driver/Src/stm32h7xx_hal_rcc.c:472:15
	ldr	r0, [r0]
	and	r1, r0, #4
	movs	r0, #0
	.loc	5 472 9                         @ libraries/STM32H7xx_HAL/STM32H7xx_HAL_Driver/Src/stm32h7xx_hal_rcc.c:472:9
	cmp.w	r0, r1, lsr #2
	bne	.LBB1_61
	b	.LBB1_58
.LBB1_58:                               @   in Loop: Header=BB1_57 Depth=1
.Ltmp92:
	.loc	5 474 15 is_stmt 1              @ libraries/STM32H7xx_HAL/STM32H7xx_HAL_Driver/Src/stm32h7xx_hal_rcc.c:474:15
	bl	HAL_GetTick
	.loc	5 474 31 is_stmt 0              @ libraries/STM32H7xx_HAL/STM32H7xx_HAL_Driver/Src/stm32h7xx_hal_rcc.c:474:31
	ldr	r1, [sp, #28]
	.loc	5 474 29                        @ libraries/STM32H7xx_HAL/STM32H7xx_HAL_Driver/Src/stm32h7xx_hal_rcc.c:474:29
	subs	r0, r0, r1
.Ltmp93:
	.loc	5 474 14                        @ libraries/STM32H7xx_HAL/STM32H7xx_HAL_Driver/Src/stm32h7xx_hal_rcc.c:474:14
	cmp	r0, #3
	blo	.LBB1_60
	b	.LBB1_59
.LBB1_59:
	.loc	5 0 14                          @ libraries/STM32H7xx_HAL/STM32H7xx_HAL_Driver/Src/stm32h7xx_hal_rcc.c:0:14
	movs	r0, #3
.Ltmp94:
	.loc	5 476 13 is_stmt 1              @ libraries/STM32H7xx_HAL/STM32H7xx_HAL_Driver/Src/stm32h7xx_hal_rcc.c:476:13
	strb.w	r0, [sp, #39]
	b	.LBB1_196
.Ltmp95:
.LBB1_60:                               @   in Loop: Header=BB1_57 Depth=1
	.loc	5 472 9                         @ libraries/STM32H7xx_HAL/STM32H7xx_HAL_Driver/Src/stm32h7xx_hal_rcc.c:472:9
	b	.LBB1_57
.LBB1_61:
	.loc	5 481 9                         @ libraries/STM32H7xx_HAL/STM32H7xx_HAL_Driver/Src/stm32h7xx_hal_rcc.c:481:9
	b	.LBB1_62
.LBB1_62:
.Ltmp96:
	.loc	5 481 9 is_stmt 0               @ libraries/STM32H7xx_HAL/STM32H7xx_HAL_Driver/Src/stm32h7xx_hal_rcc.c:481:9
	bl	HAL_GetREVID
	movw	r1, #4099
.Ltmp97:
	.loc	5 481 9                         @ libraries/STM32H7xx_HAL/STM32H7xx_HAL_Driver/Src/stm32h7xx_hal_rcc.c:481:9
	cmp	r0, r1
	bhi	.LBB1_64
	b	.LBB1_63
.LBB1_63:
	.loc	5 0 9                           @ libraries/STM32H7xx_HAL/STM32H7xx_HAL_Driver/Src/stm32h7xx_hal_rcc.c:0:9
	movw	r1, #17412
	movt	r1, #22530
.Ltmp98:
	.loc	5 481 9                         @ libraries/STM32H7xx_HAL/STM32H7xx_HAL_Driver/Src/stm32h7xx_hal_rcc.c:481:9
	ldr	r0, [r1]
	bic	r0, r0, #258048
	ldr	r2, [sp, #32]
	ldr	r2, [r2, #16]
	orr.w	r0, r0, r2, lsl #12
	str	r0, [r1]
	b	.LBB1_65
.Ltmp99:
.LBB1_64:
	.loc	5 0 9                           @ libraries/STM32H7xx_HAL/STM32H7xx_HAL_Driver/Src/stm32h7xx_hal_rcc.c:0:9
	movw	r1, #17412
	movt	r1, #22530
.Ltmp100:
	.loc	5 481 9                         @ libraries/STM32H7xx_HAL/STM32H7xx_HAL_Driver/Src/stm32h7xx_hal_rcc.c:481:9
	ldr	r0, [r1]
	bic	r0, r0, #2130706432
	ldr	r2, [sp, #32]
	ldr	r2, [r2, #16]
	orr.w	r0, r0, r2, lsl #24
	str	r0, [r1]
	b	.LBB1_65
.Ltmp101:
.LBB1_65:
	.loc	5 481 9                         @ libraries/STM32H7xx_HAL/STM32H7xx_HAL_Driver/Src/stm32h7xx_hal_rcc.c:481:9
	b	.LBB1_66
.Ltmp102:
.LBB1_66:
	.loc	5 482 7 is_stmt 1               @ libraries/STM32H7xx_HAL/STM32H7xx_HAL_Driver/Src/stm32h7xx_hal_rcc.c:482:7
	b	.LBB1_73
.Ltmp103:
.LBB1_67:
	.loc	5 0 7 is_stmt 0                 @ libraries/STM32H7xx_HAL/STM32H7xx_HAL_Driver/Src/stm32h7xx_hal_rcc.c:0:7
	movw	r1, #17408
	movt	r1, #22530
.Ltmp104:
	.loc	5 486 9 is_stmt 1               @ libraries/STM32H7xx_HAL/STM32H7xx_HAL_Driver/Src/stm32h7xx_hal_rcc.c:486:9
	ldr	r0, [r1]
	bic	r0, r0, #1
	str	r0, [r1]
	.loc	5 489 21                        @ libraries/STM32H7xx_HAL/STM32H7xx_HAL_Driver/Src/stm32h7xx_hal_rcc.c:489:21
	bl	HAL_GetTick
	.loc	5 489 19 is_stmt 0              @ libraries/STM32H7xx_HAL/STM32H7xx_HAL_Driver/Src/stm32h7xx_hal_rcc.c:489:19
	str	r0, [sp, #28]
	.loc	5 492 9 is_stmt 1               @ libraries/STM32H7xx_HAL/STM32H7xx_HAL_Driver/Src/stm32h7xx_hal_rcc.c:492:9
	b	.LBB1_68
.LBB1_68:                               @ =>This Inner Loop Header: Depth=1
	.loc	5 0 9 is_stmt 0                 @ libraries/STM32H7xx_HAL/STM32H7xx_HAL_Driver/Src/stm32h7xx_hal_rcc.c:0:9
	movw	r0, #17408
	movt	r0, #22530
	.loc	5 492 15                        @ libraries/STM32H7xx_HAL/STM32H7xx_HAL_Driver/Src/stm32h7xx_hal_rcc.c:492:15
	ldr	r0, [r0]
	and	r1, r0, #4
	movs	r0, #0
	.loc	5 492 9                         @ libraries/STM32H7xx_HAL/STM32H7xx_HAL_Driver/Src/stm32h7xx_hal_rcc.c:492:9
	cmp.w	r0, r1, lsr #2
	beq	.LBB1_72
	b	.LBB1_69
.LBB1_69:                               @   in Loop: Header=BB1_68 Depth=1
.Ltmp105:
	.loc	5 494 15 is_stmt 1              @ libraries/STM32H7xx_HAL/STM32H7xx_HAL_Driver/Src/stm32h7xx_hal_rcc.c:494:15
	bl	HAL_GetTick
	.loc	5 494 31 is_stmt 0              @ libraries/STM32H7xx_HAL/STM32H7xx_HAL_Driver/Src/stm32h7xx_hal_rcc.c:494:31
	ldr	r1, [sp, #28]
	.loc	5 494 29                        @ libraries/STM32H7xx_HAL/STM32H7xx_HAL_Driver/Src/stm32h7xx_hal_rcc.c:494:29
	subs	r0, r0, r1
.Ltmp106:
	.loc	5 494 14                        @ libraries/STM32H7xx_HAL/STM32H7xx_HAL_Driver/Src/stm32h7xx_hal_rcc.c:494:14
	cmp	r0, #3
	blo	.LBB1_71
	b	.LBB1_70
.LBB1_70:
	.loc	5 0 14                          @ libraries/STM32H7xx_HAL/STM32H7xx_HAL_Driver/Src/stm32h7xx_hal_rcc.c:0:14
	movs	r0, #3
.Ltmp107:
	.loc	5 496 13 is_stmt 1              @ libraries/STM32H7xx_HAL/STM32H7xx_HAL_Driver/Src/stm32h7xx_hal_rcc.c:496:13
	strb.w	r0, [sp, #39]
	b	.LBB1_196
.Ltmp108:
.LBB1_71:                               @   in Loop: Header=BB1_68 Depth=1
	.loc	5 492 9                         @ libraries/STM32H7xx_HAL/STM32H7xx_HAL_Driver/Src/stm32h7xx_hal_rcc.c:492:9
	b	.LBB1_68
.Ltmp109:
.LBB1_72:
	.loc	5 0 9 is_stmt 0                 @ libraries/STM32H7xx_HAL/STM32H7xx_HAL_Driver/Src/stm32h7xx_hal_rcc.c:0:9
	b	.LBB1_73
.LBB1_73:
	b	.LBB1_74
.LBB1_74:
	.loc	5 501 3 is_stmt 1               @ libraries/STM32H7xx_HAL/STM32H7xx_HAL_Driver/Src/stm32h7xx_hal_rcc.c:501:3
	b	.LBB1_75
.Ltmp110:
.LBB1_75:
	.loc	5 503 8                         @ libraries/STM32H7xx_HAL/STM32H7xx_HAL_Driver/Src/stm32h7xx_hal_rcc.c:503:8
	ldr	r0, [sp, #32]
.Ltmp111:
	.loc	5 503 6 is_stmt 0               @ libraries/STM32H7xx_HAL/STM32H7xx_HAL_Driver/Src/stm32h7xx_hal_rcc.c:503:6
	ldrb	r0, [r0]
	lsls	r0, r0, #27
	cmp	r0, #0
	bpl.w	.LBB1_109
	b	.LBB1_76
.LBB1_76:
	.loc	5 0 6                           @ libraries/STM32H7xx_HAL/STM32H7xx_HAL_Driver/Src/stm32h7xx_hal_rcc.c:0:6
	movw	r0, #17424
	movt	r0, #22530
.Ltmp112:
	.loc	5 510 37 is_stmt 1              @ libraries/STM32H7xx_HAL/STM32H7xx_HAL_Driver/Src/stm32h7xx_hal_rcc.c:510:37
	ldr	r0, [r0]
	and	r0, r0, #56
	.loc	5 510 20 is_stmt 0              @ libraries/STM32H7xx_HAL/STM32H7xx_HAL_Driver/Src/stm32h7xx_hal_rcc.c:510:20
	str	r0, [sp, #8]
	movw	r0, #17448
	movt	r0, #22530
	.loc	5 511 42 is_stmt 1              @ libraries/STM32H7xx_HAL/STM32H7xx_HAL_Driver/Src/stm32h7xx_hal_rcc.c:511:42
	ldr	r0, [r0]
	.loc	5 511 20 is_stmt 0              @ libraries/STM32H7xx_HAL/STM32H7xx_HAL_Driver/Src/stm32h7xx_hal_rcc.c:511:20
	str	r0, [sp, #4]
.Ltmp113:
	.loc	5 512 9 is_stmt 1               @ libraries/STM32H7xx_HAL/STM32H7xx_HAL_Driver/Src/stm32h7xx_hal_rcc.c:512:9
	ldr	r0, [sp, #8]
	.loc	5 512 45 is_stmt 0              @ libraries/STM32H7xx_HAL/STM32H7xx_HAL_Driver/Src/stm32h7xx_hal_rcc.c:512:45
	cmp	r0, #8
	beq	.LBB1_79
	b	.LBB1_77
.LBB1_77:
	.loc	5 512 50                        @ libraries/STM32H7xx_HAL/STM32H7xx_HAL_Driver/Src/stm32h7xx_hal_rcc.c:512:50
	ldr	r0, [sp, #8]
	.loc	5 512 87                        @ libraries/STM32H7xx_HAL/STM32H7xx_HAL_Driver/Src/stm32h7xx_hal_rcc.c:512:87
	cmp	r0, #24
	bne	.LBB1_89
	b	.LBB1_78
.LBB1_78:
	.loc	5 512 92                        @ libraries/STM32H7xx_HAL/STM32H7xx_HAL_Driver/Src/stm32h7xx_hal_rcc.c:512:92
	ldr	r0, [sp, #4]
	.loc	5 512 107                       @ libraries/STM32H7xx_HAL/STM32H7xx_HAL_Driver/Src/stm32h7xx_hal_rcc.c:512:107
	and	r0, r0, #3
.Ltmp114:
	.loc	5 512 8                         @ libraries/STM32H7xx_HAL/STM32H7xx_HAL_Driver/Src/stm32h7xx_hal_rcc.c:512:8
	cmp	r0, #1
	bne	.LBB1_89
	b	.LBB1_79
.LBB1_79:
	.loc	5 0 8                           @ libraries/STM32H7xx_HAL/STM32H7xx_HAL_Driver/Src/stm32h7xx_hal_rcc.c:0:8
	movw	r0, #17408
	movt	r0, #22530
.Ltmp115:
	.loc	5 515 11 is_stmt 1              @ libraries/STM32H7xx_HAL/STM32H7xx_HAL_Driver/Src/stm32h7xx_hal_rcc.c:515:11
	ldr	r0, [r0]
	and	r1, r0, #256
	movs	r0, #0
	.loc	5 515 54 is_stmt 0              @ libraries/STM32H7xx_HAL/STM32H7xx_HAL_Driver/Src/stm32h7xx_hal_rcc.c:515:54
	cmp.w	r0, r1, lsr #8
	beq	.LBB1_82
	b	.LBB1_80
.LBB1_80:
	.loc	5 515 58                        @ libraries/STM32H7xx_HAL/STM32H7xx_HAL_Driver/Src/stm32h7xx_hal_rcc.c:515:58
	ldr	r0, [sp, #32]
	.loc	5 515 77                        @ libraries/STM32H7xx_HAL/STM32H7xx_HAL_Driver/Src/stm32h7xx_hal_rcc.c:515:77
	ldr	r0, [r0, #28]
.Ltmp116:
	.loc	5 515 10                        @ libraries/STM32H7xx_HAL/STM32H7xx_HAL_Driver/Src/stm32h7xx_hal_rcc.c:515:10
	cmp	r0, #128
	beq	.LBB1_82
	b	.LBB1_81
.LBB1_81:
	.loc	5 0 10                          @ libraries/STM32H7xx_HAL/STM32H7xx_HAL_Driver/Src/stm32h7xx_hal_rcc.c:0:10
	movs	r0, #1
.Ltmp117:
	.loc	5 517 9 is_stmt 1               @ libraries/STM32H7xx_HAL/STM32H7xx_HAL_Driver/Src/stm32h7xx_hal_rcc.c:517:9
	strb.w	r0, [sp, #39]
	b	.LBB1_196
.Ltmp118:
.LBB1_82:
	.loc	5 523 9                         @ libraries/STM32H7xx_HAL/STM32H7xx_HAL_Driver/Src/stm32h7xx_hal_rcc.c:523:9
	b	.LBB1_83
.LBB1_83:
.Ltmp119:
	.loc	5 523 9 is_stmt 0               @ libraries/STM32H7xx_HAL/STM32H7xx_HAL_Driver/Src/stm32h7xx_hal_rcc.c:523:9
	bl	HAL_GetREVID
	movw	r1, #4099
.Ltmp120:
	.loc	5 523 9                         @ libraries/STM32H7xx_HAL/STM32H7xx_HAL_Driver/Src/stm32h7xx_hal_rcc.c:523:9
	cmp	r0, r1
	bhi	.LBB1_85
	b	.LBB1_84
.LBB1_84:
	.loc	5 0 9                           @ libraries/STM32H7xx_HAL/STM32H7xx_HAL_Driver/Src/stm32h7xx_hal_rcc.c:0:9
	movw	r1, #17412
	movt	r1, #22530
.Ltmp121:
	.loc	5 523 9                         @ libraries/STM32H7xx_HAL/STM32H7xx_HAL_Driver/Src/stm32h7xx_hal_rcc.c:523:9
	ldr	r0, [r1]
	bic	r0, r0, #2080374784
	ldr	r2, [sp, #32]
	ldr	r2, [r2, #32]
	orr.w	r0, r0, r2, lsl #26
	str	r0, [r1]
	b	.LBB1_86
.Ltmp122:
.LBB1_85:
	.loc	5 0 9                           @ libraries/STM32H7xx_HAL/STM32H7xx_HAL_Driver/Src/stm32h7xx_hal_rcc.c:0:9
	movw	r1, #17420
	movt	r1, #22530
.Ltmp123:
	.loc	5 523 9                         @ libraries/STM32H7xx_HAL/STM32H7xx_HAL_Driver/Src/stm32h7xx_hal_rcc.c:523:9
	ldr	r0, [r1]
	bic	r0, r0, #1056964608
	ldr	r2, [sp, #32]
	ldr	r2, [r2, #32]
	orr.w	r0, r0, r2, lsl #24
	str	r0, [r1]
	b	.LBB1_86
.Ltmp124:
.LBB1_86:
	.loc	5 523 9                         @ libraries/STM32H7xx_HAL/STM32H7xx_HAL_Driver/Src/stm32h7xx_hal_rcc.c:523:9
	b	.LBB1_87
.Ltmp125:
.LBB1_87:
	.loc	5 0 9                           @ libraries/STM32H7xx_HAL/STM32H7xx_HAL_Driver/Src/stm32h7xx_hal_rcc.c:0:9
	b	.LBB1_88
.LBB1_88:
	.loc	5 525 5 is_stmt 1               @ libraries/STM32H7xx_HAL/STM32H7xx_HAL_Driver/Src/stm32h7xx_hal_rcc.c:525:5
	b	.LBB1_108
.Ltmp126:
.LBB1_89:
	.loc	5 529 11                        @ libraries/STM32H7xx_HAL/STM32H7xx_HAL_Driver/Src/stm32h7xx_hal_rcc.c:529:11
	ldr	r0, [sp, #32]
	.loc	5 529 30 is_stmt 0              @ libraries/STM32H7xx_HAL/STM32H7xx_HAL_Driver/Src/stm32h7xx_hal_rcc.c:529:30
	ldr	r0, [r0, #28]
.Ltmp127:
	.loc	5 529 10                        @ libraries/STM32H7xx_HAL/STM32H7xx_HAL_Driver/Src/stm32h7xx_hal_rcc.c:529:10
	cmp	r0, #0
	beq	.LBB1_101
	b	.LBB1_90
.LBB1_90:
	.loc	5 0 10                          @ libraries/STM32H7xx_HAL/STM32H7xx_HAL_Driver/Src/stm32h7xx_hal_rcc.c:0:10
	movw	r1, #17408
	movt	r1, #22530
.Ltmp128:
	.loc	5 532 9 is_stmt 1               @ libraries/STM32H7xx_HAL/STM32H7xx_HAL_Driver/Src/stm32h7xx_hal_rcc.c:532:9
	ldr	r0, [r1]
	orr	r0, r0, #128
	str	r0, [r1]
	.loc	5 535 21                        @ libraries/STM32H7xx_HAL/STM32H7xx_HAL_Driver/Src/stm32h7xx_hal_rcc.c:535:21
	bl	HAL_GetTick
	.loc	5 535 19 is_stmt 0              @ libraries/STM32H7xx_HAL/STM32H7xx_HAL_Driver/Src/stm32h7xx_hal_rcc.c:535:19
	str	r0, [sp, #28]
	.loc	5 538 9 is_stmt 1               @ libraries/STM32H7xx_HAL/STM32H7xx_HAL_Driver/Src/stm32h7xx_hal_rcc.c:538:9
	b	.LBB1_91
.LBB1_91:                               @ =>This Inner Loop Header: Depth=1
	.loc	5 0 9 is_stmt 0                 @ libraries/STM32H7xx_HAL/STM32H7xx_HAL_Driver/Src/stm32h7xx_hal_rcc.c:0:9
	movw	r0, #17408
	movt	r0, #22530
	.loc	5 538 15                        @ libraries/STM32H7xx_HAL/STM32H7xx_HAL_Driver/Src/stm32h7xx_hal_rcc.c:538:15
	ldr	r0, [r0]
	and	r1, r0, #256
	movs	r0, #0
	.loc	5 538 9                         @ libraries/STM32H7xx_HAL/STM32H7xx_HAL_Driver/Src/stm32h7xx_hal_rcc.c:538:9
	cmp.w	r0, r1, lsr #8
	bne	.LBB1_95
	b	.LBB1_92
.LBB1_92:                               @   in Loop: Header=BB1_91 Depth=1
.Ltmp129:
	.loc	5 540 15 is_stmt 1              @ libraries/STM32H7xx_HAL/STM32H7xx_HAL_Driver/Src/stm32h7xx_hal_rcc.c:540:15
	bl	HAL_GetTick
	.loc	5 540 31 is_stmt 0              @ libraries/STM32H7xx_HAL/STM32H7xx_HAL_Driver/Src/stm32h7xx_hal_rcc.c:540:31
	ldr	r1, [sp, #28]
	.loc	5 540 29                        @ libraries/STM32H7xx_HAL/STM32H7xx_HAL_Driver/Src/stm32h7xx_hal_rcc.c:540:29
	subs	r0, r0, r1
.Ltmp130:
	.loc	5 540 14                        @ libraries/STM32H7xx_HAL/STM32H7xx_HAL_Driver/Src/stm32h7xx_hal_rcc.c:540:14
	cmp	r0, #3
	blo	.LBB1_94
	b	.LBB1_93
.LBB1_93:
	.loc	5 0 14                          @ libraries/STM32H7xx_HAL/STM32H7xx_HAL_Driver/Src/stm32h7xx_hal_rcc.c:0:14
	movs	r0, #3
.Ltmp131:
	.loc	5 542 13 is_stmt 1              @ libraries/STM32H7xx_HAL/STM32H7xx_HAL_Driver/Src/stm32h7xx_hal_rcc.c:542:13
	strb.w	r0, [sp, #39]
	b	.LBB1_196
.Ltmp132:
.LBB1_94:                               @   in Loop: Header=BB1_91 Depth=1
	.loc	5 538 9                         @ libraries/STM32H7xx_HAL/STM32H7xx_HAL_Driver/Src/stm32h7xx_hal_rcc.c:538:9
	b	.LBB1_91
.LBB1_95:
	.loc	5 547 9                         @ libraries/STM32H7xx_HAL/STM32H7xx_HAL_Driver/Src/stm32h7xx_hal_rcc.c:547:9
	b	.LBB1_96
.LBB1_96:
.Ltmp133:
	.loc	5 547 9 is_stmt 0               @ libraries/STM32H7xx_HAL/STM32H7xx_HAL_Driver/Src/stm32h7xx_hal_rcc.c:547:9
	bl	HAL_GetREVID
	movw	r1, #4099
.Ltmp134:
	.loc	5 547 9                         @ libraries/STM32H7xx_HAL/STM32H7xx_HAL_Driver/Src/stm32h7xx_hal_rcc.c:547:9
	cmp	r0, r1
	bhi	.LBB1_98
	b	.LBB1_97
.LBB1_97:
	.loc	5 0 9                           @ libraries/STM32H7xx_HAL/STM32H7xx_HAL_Driver/Src/stm32h7xx_hal_rcc.c:0:9
	movw	r1, #17412
	movt	r1, #22530
.Ltmp135:
	.loc	5 547 9                         @ libraries/STM32H7xx_HAL/STM32H7xx_HAL_Driver/Src/stm32h7xx_hal_rcc.c:547:9
	ldr	r0, [r1]
	bic	r0, r0, #2080374784
	ldr	r2, [sp, #32]
	ldr	r2, [r2, #32]
	orr.w	r0, r0, r2, lsl #26
	str	r0, [r1]
	b	.LBB1_99
.Ltmp136:
.LBB1_98:
	.loc	5 0 9                           @ libraries/STM32H7xx_HAL/STM32H7xx_HAL_Driver/Src/stm32h7xx_hal_rcc.c:0:9
	movw	r1, #17420
	movt	r1, #22530
.Ltmp137:
	.loc	5 547 9                         @ libraries/STM32H7xx_HAL/STM32H7xx_HAL_Driver/Src/stm32h7xx_hal_rcc.c:547:9
	ldr	r0, [r1]
	bic	r0, r0, #1056964608
	ldr	r2, [sp, #32]
	ldr	r2, [r2, #32]
	orr.w	r0, r0, r2, lsl #24
	str	r0, [r1]
	b	.LBB1_99
.Ltmp138:
.LBB1_99:
	.loc	5 547 9                         @ libraries/STM32H7xx_HAL/STM32H7xx_HAL_Driver/Src/stm32h7xx_hal_rcc.c:547:9
	b	.LBB1_100
.Ltmp139:
.LBB1_100:
	.loc	5 548 7 is_stmt 1               @ libraries/STM32H7xx_HAL/STM32H7xx_HAL_Driver/Src/stm32h7xx_hal_rcc.c:548:7
	b	.LBB1_107
.Ltmp140:
.LBB1_101:
	.loc	5 0 7 is_stmt 0                 @ libraries/STM32H7xx_HAL/STM32H7xx_HAL_Driver/Src/stm32h7xx_hal_rcc.c:0:7
	movw	r1, #17408
	movt	r1, #22530
.Ltmp141:
	.loc	5 552 9 is_stmt 1               @ libraries/STM32H7xx_HAL/STM32H7xx_HAL_Driver/Src/stm32h7xx_hal_rcc.c:552:9
	ldr	r0, [r1]
	bic	r0, r0, #128
	str	r0, [r1]
	.loc	5 555 21                        @ libraries/STM32H7xx_HAL/STM32H7xx_HAL_Driver/Src/stm32h7xx_hal_rcc.c:555:21
	bl	HAL_GetTick
	.loc	5 555 19 is_stmt 0              @ libraries/STM32H7xx_HAL/STM32H7xx_HAL_Driver/Src/stm32h7xx_hal_rcc.c:555:19
	str	r0, [sp, #28]
	.loc	5 558 9 is_stmt 1               @ libraries/STM32H7xx_HAL/STM32H7xx_HAL_Driver/Src/stm32h7xx_hal_rcc.c:558:9
	b	.LBB1_102
.LBB1_102:                              @ =>This Inner Loop Header: Depth=1
	.loc	5 0 9 is_stmt 0                 @ libraries/STM32H7xx_HAL/STM32H7xx_HAL_Driver/Src/stm32h7xx_hal_rcc.c:0:9
	movw	r0, #17408
	movt	r0, #22530
	.loc	5 558 15                        @ libraries/STM32H7xx_HAL/STM32H7xx_HAL_Driver/Src/stm32h7xx_hal_rcc.c:558:15
	ldr	r0, [r0]
	and	r1, r0, #256
	movs	r0, #0
	.loc	5 558 9                         @ libraries/STM32H7xx_HAL/STM32H7xx_HAL_Driver/Src/stm32h7xx_hal_rcc.c:558:9
	cmp.w	r0, r1, lsr #8
	beq	.LBB1_106
	b	.LBB1_103
.LBB1_103:                              @   in Loop: Header=BB1_102 Depth=1
.Ltmp142:
	.loc	5 560 15 is_stmt 1              @ libraries/STM32H7xx_HAL/STM32H7xx_HAL_Driver/Src/stm32h7xx_hal_rcc.c:560:15
	bl	HAL_GetTick
	.loc	5 560 31 is_stmt 0              @ libraries/STM32H7xx_HAL/STM32H7xx_HAL_Driver/Src/stm32h7xx_hal_rcc.c:560:31
	ldr	r1, [sp, #28]
	.loc	5 560 29                        @ libraries/STM32H7xx_HAL/STM32H7xx_HAL_Driver/Src/stm32h7xx_hal_rcc.c:560:29
	subs	r0, r0, r1
.Ltmp143:
	.loc	5 560 14                        @ libraries/STM32H7xx_HAL/STM32H7xx_HAL_Driver/Src/stm32h7xx_hal_rcc.c:560:14
	cmp	r0, #3
	blo	.LBB1_105
	b	.LBB1_104
.LBB1_104:
	.loc	5 0 14                          @ libraries/STM32H7xx_HAL/STM32H7xx_HAL_Driver/Src/stm32h7xx_hal_rcc.c:0:14
	movs	r0, #3
.Ltmp144:
	.loc	5 562 13 is_stmt 1              @ libraries/STM32H7xx_HAL/STM32H7xx_HAL_Driver/Src/stm32h7xx_hal_rcc.c:562:13
	strb.w	r0, [sp, #39]
	b	.LBB1_196
.Ltmp145:
.LBB1_105:                              @   in Loop: Header=BB1_102 Depth=1
	.loc	5 558 9                         @ libraries/STM32H7xx_HAL/STM32H7xx_HAL_Driver/Src/stm32h7xx_hal_rcc.c:558:9
	b	.LBB1_102
.Ltmp146:
.LBB1_106:
	.loc	5 0 9 is_stmt 0                 @ libraries/STM32H7xx_HAL/STM32H7xx_HAL_Driver/Src/stm32h7xx_hal_rcc.c:0:9
	b	.LBB1_107
.LBB1_107:
	b	.LBB1_108
.LBB1_108:
	.loc	5 567 3 is_stmt 1               @ libraries/STM32H7xx_HAL/STM32H7xx_HAL_Driver/Src/stm32h7xx_hal_rcc.c:567:3
	b	.LBB1_109
.Ltmp147:
.LBB1_109:
	.loc	5 569 8                         @ libraries/STM32H7xx_HAL/STM32H7xx_HAL_Driver/Src/stm32h7xx_hal_rcc.c:569:8
	ldr	r0, [sp, #32]
.Ltmp148:
	.loc	5 569 6 is_stmt 0               @ libraries/STM32H7xx_HAL/STM32H7xx_HAL_Driver/Src/stm32h7xx_hal_rcc.c:569:6
	ldrb	r0, [r0]
	lsls	r0, r0, #28
	cmp	r0, #0
	bpl	.LBB1_124
	b	.LBB1_110
.LBB1_110:
.Ltmp149:
	.loc	5 575 9 is_stmt 1               @ libraries/STM32H7xx_HAL/STM32H7xx_HAL_Driver/Src/stm32h7xx_hal_rcc.c:575:9
	ldr	r0, [sp, #32]
	.loc	5 575 28 is_stmt 0              @ libraries/STM32H7xx_HAL/STM32H7xx_HAL_Driver/Src/stm32h7xx_hal_rcc.c:575:28
	ldr	r0, [r0, #20]
.Ltmp150:
	.loc	5 575 8                         @ libraries/STM32H7xx_HAL/STM32H7xx_HAL_Driver/Src/stm32h7xx_hal_rcc.c:575:8
	cbz	r0, .LBB1_117
	b	.LBB1_111
.LBB1_111:
	.loc	5 0 8                           @ libraries/STM32H7xx_HAL/STM32H7xx_HAL_Driver/Src/stm32h7xx_hal_rcc.c:0:8
	movw	r1, #17524
	movt	r1, #22530
.Ltmp151:
	.loc	5 578 7 is_stmt 1               @ libraries/STM32H7xx_HAL/STM32H7xx_HAL_Driver/Src/stm32h7xx_hal_rcc.c:578:7
	ldr	r0, [r1]
	orr	r0, r0, #1
	str	r0, [r1]
	.loc	5 581 19                        @ libraries/STM32H7xx_HAL/STM32H7xx_HAL_Driver/Src/stm32h7xx_hal_rcc.c:581:19
	bl	HAL_GetTick
	.loc	5 581 17 is_stmt 0              @ libraries/STM32H7xx_HAL/STM32H7xx_HAL_Driver/Src/stm32h7xx_hal_rcc.c:581:17
	str	r0, [sp, #28]
	.loc	5 584 7 is_stmt 1               @ libraries/STM32H7xx_HAL/STM32H7xx_HAL_Driver/Src/stm32h7xx_hal_rcc.c:584:7
	b	.LBB1_112
.LBB1_112:                              @ =>This Inner Loop Header: Depth=1
	.loc	5 0 7 is_stmt 0                 @ libraries/STM32H7xx_HAL/STM32H7xx_HAL_Driver/Src/stm32h7xx_hal_rcc.c:0:7
	movw	r0, #17524
	movt	r0, #22530
	.loc	5 584 13                        @ libraries/STM32H7xx_HAL/STM32H7xx_HAL_Driver/Src/stm32h7xx_hal_rcc.c:584:13
	ldr	r0, [r0]
	and	r1, r0, #2
	movs	r0, #0
	.loc	5 584 7                         @ libraries/STM32H7xx_HAL/STM32H7xx_HAL_Driver/Src/stm32h7xx_hal_rcc.c:584:7
	cmp.w	r0, r1, lsr #1
	bne	.LBB1_116
	b	.LBB1_113
.LBB1_113:                              @   in Loop: Header=BB1_112 Depth=1
.Ltmp152:
	.loc	5 586 13 is_stmt 1              @ libraries/STM32H7xx_HAL/STM32H7xx_HAL_Driver/Src/stm32h7xx_hal_rcc.c:586:13
	bl	HAL_GetTick
	.loc	5 586 29 is_stmt 0              @ libraries/STM32H7xx_HAL/STM32H7xx_HAL_Driver/Src/stm32h7xx_hal_rcc.c:586:29
	ldr	r1, [sp, #28]
	.loc	5 586 27                        @ libraries/STM32H7xx_HAL/STM32H7xx_HAL_Driver/Src/stm32h7xx_hal_rcc.c:586:27
	subs	r0, r0, r1
.Ltmp153:
	.loc	5 586 12                        @ libraries/STM32H7xx_HAL/STM32H7xx_HAL_Driver/Src/stm32h7xx_hal_rcc.c:586:12
	cmp	r0, #3
	blo	.LBB1_115
	b	.LBB1_114
.LBB1_114:
	.loc	5 0 12                          @ libraries/STM32H7xx_HAL/STM32H7xx_HAL_Driver/Src/stm32h7xx_hal_rcc.c:0:12
	movs	r0, #3
.Ltmp154:
	.loc	5 588 11 is_stmt 1              @ libraries/STM32H7xx_HAL/STM32H7xx_HAL_Driver/Src/stm32h7xx_hal_rcc.c:588:11
	strb.w	r0, [sp, #39]
	b	.LBB1_196
.Ltmp155:
.LBB1_115:                              @   in Loop: Header=BB1_112 Depth=1
	.loc	5 584 7                         @ libraries/STM32H7xx_HAL/STM32H7xx_HAL_Driver/Src/stm32h7xx_hal_rcc.c:584:7
	b	.LBB1_112
.LBB1_116:
	.loc	5 591 5                         @ libraries/STM32H7xx_HAL/STM32H7xx_HAL_Driver/Src/stm32h7xx_hal_rcc.c:591:5
	b	.LBB1_123
.Ltmp156:
.LBB1_117:
	.loc	5 0 5 is_stmt 0                 @ libraries/STM32H7xx_HAL/STM32H7xx_HAL_Driver/Src/stm32h7xx_hal_rcc.c:0:5
	movw	r1, #17524
	movt	r1, #22530
.Ltmp157:
	.loc	5 595 7 is_stmt 1               @ libraries/STM32H7xx_HAL/STM32H7xx_HAL_Driver/Src/stm32h7xx_hal_rcc.c:595:7
	ldr	r0, [r1]
	bic	r0, r0, #1
	str	r0, [r1]
	.loc	5 598 19                        @ libraries/STM32H7xx_HAL/STM32H7xx_HAL_Driver/Src/stm32h7xx_hal_rcc.c:598:19
	bl	HAL_GetTick
	.loc	5 598 17 is_stmt 0              @ libraries/STM32H7xx_HAL/STM32H7xx_HAL_Driver/Src/stm32h7xx_hal_rcc.c:598:17
	str	r0, [sp, #28]
	.loc	5 601 7 is_stmt 1               @ libraries/STM32H7xx_HAL/STM32H7xx_HAL_Driver/Src/stm32h7xx_hal_rcc.c:601:7
	b	.LBB1_118
.LBB1_118:                              @ =>This Inner Loop Header: Depth=1
	.loc	5 0 7 is_stmt 0                 @ libraries/STM32H7xx_HAL/STM32H7xx_HAL_Driver/Src/stm32h7xx_hal_rcc.c:0:7
	movw	r0, #17524
	movt	r0, #22530
	.loc	5 601 13                        @ libraries/STM32H7xx_HAL/STM32H7xx_HAL_Driver/Src/stm32h7xx_hal_rcc.c:601:13
	ldr	r0, [r0]
	and	r1, r0, #2
	movs	r0, #0
	.loc	5 601 7                         @ libraries/STM32H7xx_HAL/STM32H7xx_HAL_Driver/Src/stm32h7xx_hal_rcc.c:601:7
	cmp.w	r0, r1, lsr #1
	beq	.LBB1_122
	b	.LBB1_119
.LBB1_119:                              @   in Loop: Header=BB1_118 Depth=1
.Ltmp158:
	.loc	5 603 13 is_stmt 1              @ libraries/STM32H7xx_HAL/STM32H7xx_HAL_Driver/Src/stm32h7xx_hal_rcc.c:603:13
	bl	HAL_GetTick
	.loc	5 603 29 is_stmt 0              @ libraries/STM32H7xx_HAL/STM32H7xx_HAL_Driver/Src/stm32h7xx_hal_rcc.c:603:29
	ldr	r1, [sp, #28]
	.loc	5 603 27                        @ libraries/STM32H7xx_HAL/STM32H7xx_HAL_Driver/Src/stm32h7xx_hal_rcc.c:603:27
	subs	r0, r0, r1
.Ltmp159:
	.loc	5 603 12                        @ libraries/STM32H7xx_HAL/STM32H7xx_HAL_Driver/Src/stm32h7xx_hal_rcc.c:603:12
	cmp	r0, #3
	blo	.LBB1_121
	b	.LBB1_120
.LBB1_120:
	.loc	5 0 12                          @ libraries/STM32H7xx_HAL/STM32H7xx_HAL_Driver/Src/stm32h7xx_hal_rcc.c:0:12
	movs	r0, #3
.Ltmp160:
	.loc	5 605 11 is_stmt 1              @ libraries/STM32H7xx_HAL/STM32H7xx_HAL_Driver/Src/stm32h7xx_hal_rcc.c:605:11
	strb.w	r0, [sp, #39]
	b	.LBB1_196
.Ltmp161:
.LBB1_121:                              @   in Loop: Header=BB1_118 Depth=1
	.loc	5 601 7                         @ libraries/STM32H7xx_HAL/STM32H7xx_HAL_Driver/Src/stm32h7xx_hal_rcc.c:601:7
	b	.LBB1_118
.Ltmp162:
.LBB1_122:
	.loc	5 0 7 is_stmt 0                 @ libraries/STM32H7xx_HAL/STM32H7xx_HAL_Driver/Src/stm32h7xx_hal_rcc.c:0:7
	b	.LBB1_123
.LBB1_123:
	.loc	5 609 3 is_stmt 1               @ libraries/STM32H7xx_HAL/STM32H7xx_HAL_Driver/Src/stm32h7xx_hal_rcc.c:609:3
	b	.LBB1_124
.Ltmp163:
.LBB1_124:
	.loc	5 612 8                         @ libraries/STM32H7xx_HAL/STM32H7xx_HAL_Driver/Src/stm32h7xx_hal_rcc.c:612:8
	ldr	r0, [sp, #32]
.Ltmp164:
	.loc	5 612 6 is_stmt 0               @ libraries/STM32H7xx_HAL/STM32H7xx_HAL_Driver/Src/stm32h7xx_hal_rcc.c:612:6
	ldrb	r0, [r0]
	lsls	r0, r0, #26
	cmp	r0, #0
	bpl	.LBB1_139
	b	.LBB1_125
.LBB1_125:
.Ltmp165:
	.loc	5 618 9 is_stmt 1               @ libraries/STM32H7xx_HAL/STM32H7xx_HAL_Driver/Src/stm32h7xx_hal_rcc.c:618:9
	ldr	r0, [sp, #32]
	.loc	5 618 28 is_stmt 0              @ libraries/STM32H7xx_HAL/STM32H7xx_HAL_Driver/Src/stm32h7xx_hal_rcc.c:618:28
	ldr	r0, [r0, #24]
.Ltmp166:
	.loc	5 618 8                         @ libraries/STM32H7xx_HAL/STM32H7xx_HAL_Driver/Src/stm32h7xx_hal_rcc.c:618:8
	cbz	r0, .LBB1_132
	b	.LBB1_126
.LBB1_126:
	.loc	5 0 8                           @ libraries/STM32H7xx_HAL/STM32H7xx_HAL_Driver/Src/stm32h7xx_hal_rcc.c:0:8
	movw	r1, #17408
	movt	r1, #22530
.Ltmp167:
	.loc	5 621 7 is_stmt 1               @ libraries/STM32H7xx_HAL/STM32H7xx_HAL_Driver/Src/stm32h7xx_hal_rcc.c:621:7
	ldr	r0, [r1]
	orr	r0, r0, #4096
	str	r0, [r1]
	.loc	5 624 19                        @ libraries/STM32H7xx_HAL/STM32H7xx_HAL_Driver/Src/stm32h7xx_hal_rcc.c:624:19
	bl	HAL_GetTick
	.loc	5 624 17 is_stmt 0              @ libraries/STM32H7xx_HAL/STM32H7xx_HAL_Driver/Src/stm32h7xx_hal_rcc.c:624:17
	str	r0, [sp, #28]
	.loc	5 627 7 is_stmt 1               @ libraries/STM32H7xx_HAL/STM32H7xx_HAL_Driver/Src/stm32h7xx_hal_rcc.c:627:7
	b	.LBB1_127
.LBB1_127:                              @ =>This Inner Loop Header: Depth=1
	.loc	5 0 7 is_stmt 0                 @ libraries/STM32H7xx_HAL/STM32H7xx_HAL_Driver/Src/stm32h7xx_hal_rcc.c:0:7
	movw	r0, #17408
	movt	r0, #22530
	.loc	5 627 13                        @ libraries/STM32H7xx_HAL/STM32H7xx_HAL_Driver/Src/stm32h7xx_hal_rcc.c:627:13
	ldr	r0, [r0]
	and	r1, r0, #8192
	movs	r0, #0
	.loc	5 627 7                         @ libraries/STM32H7xx_HAL/STM32H7xx_HAL_Driver/Src/stm32h7xx_hal_rcc.c:627:7
	cmp.w	r0, r1, lsr #13
	bne	.LBB1_131
	b	.LBB1_128
.LBB1_128:                              @   in Loop: Header=BB1_127 Depth=1
.Ltmp168:
	.loc	5 629 13 is_stmt 1              @ libraries/STM32H7xx_HAL/STM32H7xx_HAL_Driver/Src/stm32h7xx_hal_rcc.c:629:13
	bl	HAL_GetTick
	.loc	5 629 29 is_stmt 0              @ libraries/STM32H7xx_HAL/STM32H7xx_HAL_Driver/Src/stm32h7xx_hal_rcc.c:629:29
	ldr	r1, [sp, #28]
	.loc	5 629 27                        @ libraries/STM32H7xx_HAL/STM32H7xx_HAL_Driver/Src/stm32h7xx_hal_rcc.c:629:27
	subs	r0, r0, r1
.Ltmp169:
	.loc	5 629 12                        @ libraries/STM32H7xx_HAL/STM32H7xx_HAL_Driver/Src/stm32h7xx_hal_rcc.c:629:12
	cmp	r0, #3
	blo	.LBB1_130
	b	.LBB1_129
.LBB1_129:
	.loc	5 0 12                          @ libraries/STM32H7xx_HAL/STM32H7xx_HAL_Driver/Src/stm32h7xx_hal_rcc.c:0:12
	movs	r0, #3
.Ltmp170:
	.loc	5 631 11 is_stmt 1              @ libraries/STM32H7xx_HAL/STM32H7xx_HAL_Driver/Src/stm32h7xx_hal_rcc.c:631:11
	strb.w	r0, [sp, #39]
	b	.LBB1_196
.Ltmp171:
.LBB1_130:                              @   in Loop: Header=BB1_127 Depth=1
	.loc	5 627 7                         @ libraries/STM32H7xx_HAL/STM32H7xx_HAL_Driver/Src/stm32h7xx_hal_rcc.c:627:7
	b	.LBB1_127
.LBB1_131:
	.loc	5 634 5                         @ libraries/STM32H7xx_HAL/STM32H7xx_HAL_Driver/Src/stm32h7xx_hal_rcc.c:634:5
	b	.LBB1_138
.Ltmp172:
.LBB1_132:
	.loc	5 0 5 is_stmt 0                 @ libraries/STM32H7xx_HAL/STM32H7xx_HAL_Driver/Src/stm32h7xx_hal_rcc.c:0:5
	movw	r1, #17408
	movt	r1, #22530
.Ltmp173:
	.loc	5 638 7 is_stmt 1               @ libraries/STM32H7xx_HAL/STM32H7xx_HAL_Driver/Src/stm32h7xx_hal_rcc.c:638:7
	ldr	r0, [r1]
	bic	r0, r0, #4096
	str	r0, [r1]
	.loc	5 641 19                        @ libraries/STM32H7xx_HAL/STM32H7xx_HAL_Driver/Src/stm32h7xx_hal_rcc.c:641:19
	bl	HAL_GetTick
	.loc	5 641 17 is_stmt 0              @ libraries/STM32H7xx_HAL/STM32H7xx_HAL_Driver/Src/stm32h7xx_hal_rcc.c:641:17
	str	r0, [sp, #28]
	.loc	5 644 7 is_stmt 1               @ libraries/STM32H7xx_HAL/STM32H7xx_HAL_Driver/Src/stm32h7xx_hal_rcc.c:644:7
	b	.LBB1_133
.LBB1_133:                              @ =>This Inner Loop Header: Depth=1
	.loc	5 0 7 is_stmt 0                 @ libraries/STM32H7xx_HAL/STM32H7xx_HAL_Driver/Src/stm32h7xx_hal_rcc.c:0:7
	movw	r0, #17408
	movt	r0, #22530
	.loc	5 644 13                        @ libraries/STM32H7xx_HAL/STM32H7xx_HAL_Driver/Src/stm32h7xx_hal_rcc.c:644:13
	ldr	r0, [r0]
	and	r1, r0, #8192
	movs	r0, #0
	.loc	5 644 7                         @ libraries/STM32H7xx_HAL/STM32H7xx_HAL_Driver/Src/stm32h7xx_hal_rcc.c:644:7
	cmp.w	r0, r1, lsr #13
	beq	.LBB1_137
	b	.LBB1_134
.LBB1_134:                              @   in Loop: Header=BB1_133 Depth=1
.Ltmp174:
	.loc	5 646 13 is_stmt 1              @ libraries/STM32H7xx_HAL/STM32H7xx_HAL_Driver/Src/stm32h7xx_hal_rcc.c:646:13
	bl	HAL_GetTick
	.loc	5 646 29 is_stmt 0              @ libraries/STM32H7xx_HAL/STM32H7xx_HAL_Driver/Src/stm32h7xx_hal_rcc.c:646:29
	ldr	r1, [sp, #28]
	.loc	5 646 27                        @ libraries/STM32H7xx_HAL/STM32H7xx_HAL_Driver/Src/stm32h7xx_hal_rcc.c:646:27
	subs	r0, r0, r1
.Ltmp175:
	.loc	5 646 12                        @ libraries/STM32H7xx_HAL/STM32H7xx_HAL_Driver/Src/stm32h7xx_hal_rcc.c:646:12
	cmp	r0, #3
	blo	.LBB1_136
	b	.LBB1_135
.LBB1_135:
	.loc	5 0 12                          @ libraries/STM32H7xx_HAL/STM32H7xx_HAL_Driver/Src/stm32h7xx_hal_rcc.c:0:12
	movs	r0, #3
.Ltmp176:
	.loc	5 648 11 is_stmt 1              @ libraries/STM32H7xx_HAL/STM32H7xx_HAL_Driver/Src/stm32h7xx_hal_rcc.c:648:11
	strb.w	r0, [sp, #39]
	b	.LBB1_196
.Ltmp177:
.LBB1_136:                              @   in Loop: Header=BB1_133 Depth=1
	.loc	5 644 7                         @ libraries/STM32H7xx_HAL/STM32H7xx_HAL_Driver/Src/stm32h7xx_hal_rcc.c:644:7
	b	.LBB1_133
.Ltmp178:
.LBB1_137:
	.loc	5 0 7 is_stmt 0                 @ libraries/STM32H7xx_HAL/STM32H7xx_HAL_Driver/Src/stm32h7xx_hal_rcc.c:0:7
	b	.LBB1_138
.LBB1_138:
	.loc	5 652 3 is_stmt 1               @ libraries/STM32H7xx_HAL/STM32H7xx_HAL_Driver/Src/stm32h7xx_hal_rcc.c:652:3
	b	.LBB1_139
.Ltmp179:
.LBB1_139:
	.loc	5 654 8                         @ libraries/STM32H7xx_HAL/STM32H7xx_HAL_Driver/Src/stm32h7xx_hal_rcc.c:654:8
	ldr	r0, [sp, #32]
.Ltmp180:
	.loc	5 654 6 is_stmt 0               @ libraries/STM32H7xx_HAL/STM32H7xx_HAL_Driver/Src/stm32h7xx_hal_rcc.c:654:6
	ldrb	r0, [r0]
	lsls	r0, r0, #29
	cmp	r0, #0
	bpl.w	.LBB1_170
	b	.LBB1_140
.LBB1_140:
	.loc	5 0 6                           @ libraries/STM32H7xx_HAL/STM32H7xx_HAL_Driver/Src/stm32h7xx_hal_rcc.c:0:6
	movw	r1, #18432
	movt	r1, #22530
.Ltmp181:
	.loc	5 660 14 is_stmt 1              @ libraries/STM32H7xx_HAL/STM32H7xx_HAL_Driver/Src/stm32h7xx_hal_rcc.c:660:14
	ldr	r0, [r1]
	orr	r0, r0, #256
	str	r0, [r1]
	.loc	5 663 17                        @ libraries/STM32H7xx_HAL/STM32H7xx_HAL_Driver/Src/stm32h7xx_hal_rcc.c:663:17
	bl	HAL_GetTick
	.loc	5 663 15 is_stmt 0              @ libraries/STM32H7xx_HAL/STM32H7xx_HAL_Driver/Src/stm32h7xx_hal_rcc.c:663:15
	str	r0, [sp, #28]
	.loc	5 665 5 is_stmt 1               @ libraries/STM32H7xx_HAL/STM32H7xx_HAL_Driver/Src/stm32h7xx_hal_rcc.c:665:5
	b	.LBB1_141
.LBB1_141:                              @ =>This Inner Loop Header: Depth=1
	.loc	5 0 5 is_stmt 0                 @ libraries/STM32H7xx_HAL/STM32H7xx_HAL_Driver/Src/stm32h7xx_hal_rcc.c:0:5
	movw	r0, #18432
	movt	r0, #22530
	.loc	5 665 17                        @ libraries/STM32H7xx_HAL/STM32H7xx_HAL_Driver/Src/stm32h7xx_hal_rcc.c:665:17
	ldr	r0, [r0]
	.loc	5 665 5                         @ libraries/STM32H7xx_HAL/STM32H7xx_HAL_Driver/Src/stm32h7xx_hal_rcc.c:665:5
	lsls	r0, r0, #23
	cmp	r0, #0
	bmi	.LBB1_145
	b	.LBB1_142
.LBB1_142:                              @   in Loop: Header=BB1_141 Depth=1
.Ltmp182:
	.loc	5 667 11 is_stmt 1              @ libraries/STM32H7xx_HAL/STM32H7xx_HAL_Driver/Src/stm32h7xx_hal_rcc.c:667:11
	bl	HAL_GetTick
	.loc	5 667 27 is_stmt 0              @ libraries/STM32H7xx_HAL/STM32H7xx_HAL_Driver/Src/stm32h7xx_hal_rcc.c:667:27
	ldr	r1, [sp, #28]
	.loc	5 667 25                        @ libraries/STM32H7xx_HAL/STM32H7xx_HAL_Driver/Src/stm32h7xx_hal_rcc.c:667:25
	subs	r0, r0, r1
.Ltmp183:
	.loc	5 667 10                        @ libraries/STM32H7xx_HAL/STM32H7xx_HAL_Driver/Src/stm32h7xx_hal_rcc.c:667:10
	cmp	r0, #101
	blo	.LBB1_144
	b	.LBB1_143
.LBB1_143:
	.loc	5 0 10                          @ libraries/STM32H7xx_HAL/STM32H7xx_HAL_Driver/Src/stm32h7xx_hal_rcc.c:0:10
	movs	r0, #3
.Ltmp184:
	.loc	5 669 9 is_stmt 1               @ libraries/STM32H7xx_HAL/STM32H7xx_HAL_Driver/Src/stm32h7xx_hal_rcc.c:669:9
	strb.w	r0, [sp, #39]
	b	.LBB1_196
.Ltmp185:
.LBB1_144:                              @   in Loop: Header=BB1_141 Depth=1
	.loc	5 665 5                         @ libraries/STM32H7xx_HAL/STM32H7xx_HAL_Driver/Src/stm32h7xx_hal_rcc.c:665:5
	b	.LBB1_141
.LBB1_145:
	.loc	5 674 5                         @ libraries/STM32H7xx_HAL/STM32H7xx_HAL_Driver/Src/stm32h7xx_hal_rcc.c:674:5
	b	.LBB1_146
.LBB1_146:
.Ltmp186:
	.loc	5 674 5 is_stmt 0               @ libraries/STM32H7xx_HAL/STM32H7xx_HAL_Driver/Src/stm32h7xx_hal_rcc.c:674:5
	ldr	r0, [sp, #32]
	ldr	r0, [r0, #8]
.Ltmp187:
	.loc	5 674 5                         @ libraries/STM32H7xx_HAL/STM32H7xx_HAL_Driver/Src/stm32h7xx_hal_rcc.c:674:5
	cmp	r0, #1
	bne	.LBB1_148
	b	.LBB1_147
.LBB1_147:
	.loc	5 0 5                           @ libraries/STM32H7xx_HAL/STM32H7xx_HAL_Driver/Src/stm32h7xx_hal_rcc.c:0:5
	movw	r1, #17520
	movt	r1, #22530
.Ltmp188:
	.loc	5 674 5                         @ libraries/STM32H7xx_HAL/STM32H7xx_HAL_Driver/Src/stm32h7xx_hal_rcc.c:674:5
	ldr	r0, [r1]
	orr	r0, r0, #1
	str	r0, [r1]
	b	.LBB1_155
.Ltmp189:
.LBB1_148:
	.loc	5 674 5                         @ libraries/STM32H7xx_HAL/STM32H7xx_HAL_Driver/Src/stm32h7xx_hal_rcc.c:674:5
	ldr	r0, [sp, #32]
	ldr	r0, [r0, #8]
.Ltmp190:
	.loc	5 674 5                         @ libraries/STM32H7xx_HAL/STM32H7xx_HAL_Driver/Src/stm32h7xx_hal_rcc.c:674:5
	cbnz	r0, .LBB1_150
	b	.LBB1_149
.LBB1_149:
	.loc	5 0 5                           @ libraries/STM32H7xx_HAL/STM32H7xx_HAL_Driver/Src/stm32h7xx_hal_rcc.c:0:5
	movw	r1, #17520
	movt	r1, #22530
.Ltmp191:
	.loc	5 674 5                         @ libraries/STM32H7xx_HAL/STM32H7xx_HAL_Driver/Src/stm32h7xx_hal_rcc.c:674:5
	ldr	r0, [r1]
	bic	r0, r0, #1
	str	r0, [r1]
	ldr	r0, [r1]
	bic	r0, r0, #4
	str	r0, [r1]
	b	.LBB1_154
.Ltmp192:
.LBB1_150:
	.loc	5 674 5                         @ libraries/STM32H7xx_HAL/STM32H7xx_HAL_Driver/Src/stm32h7xx_hal_rcc.c:674:5
	ldr	r0, [sp, #32]
	ldr	r0, [r0, #8]
.Ltmp193:
	.loc	5 674 5                         @ libraries/STM32H7xx_HAL/STM32H7xx_HAL_Driver/Src/stm32h7xx_hal_rcc.c:674:5
	cmp	r0, #5
	bne	.LBB1_152
	b	.LBB1_151
.LBB1_151:
	.loc	5 0 5                           @ libraries/STM32H7xx_HAL/STM32H7xx_HAL_Driver/Src/stm32h7xx_hal_rcc.c:0:5
	movw	r1, #17520
	movt	r1, #22530
.Ltmp194:
	.loc	5 674 5                         @ libraries/STM32H7xx_HAL/STM32H7xx_HAL_Driver/Src/stm32h7xx_hal_rcc.c:674:5
	ldr	r0, [r1]
	orr	r0, r0, #4
	str	r0, [r1]
	ldr	r0, [r1]
	orr	r0, r0, #1
	str	r0, [r1]
	b	.LBB1_153
.Ltmp195:
.LBB1_152:
	.loc	5 0 5                           @ libraries/STM32H7xx_HAL/STM32H7xx_HAL_Driver/Src/stm32h7xx_hal_rcc.c:0:5
	movw	r1, #17520
	movt	r1, #22530
.Ltmp196:
	.loc	5 674 5                         @ libraries/STM32H7xx_HAL/STM32H7xx_HAL_Driver/Src/stm32h7xx_hal_rcc.c:674:5
	ldr	r0, [r1]
	bic	r0, r0, #1
	str	r0, [r1]
	ldr	r0, [r1]
	bic	r0, r0, #4
	str	r0, [r1]
	b	.LBB1_153
.Ltmp197:
.LBB1_153:
	.loc	5 0 5                           @ libraries/STM32H7xx_HAL/STM32H7xx_HAL_Driver/Src/stm32h7xx_hal_rcc.c:0:5
	b	.LBB1_154
.LBB1_154:
	b	.LBB1_155
.LBB1_155:
	.loc	5 674 5                         @ libraries/STM32H7xx_HAL/STM32H7xx_HAL_Driver/Src/stm32h7xx_hal_rcc.c:674:5
	b	.LBB1_156
.Ltmp198:
.LBB1_156:
	.loc	5 676 9 is_stmt 1               @ libraries/STM32H7xx_HAL/STM32H7xx_HAL_Driver/Src/stm32h7xx_hal_rcc.c:676:9
	ldr	r0, [sp, #32]
	.loc	5 676 28 is_stmt 0              @ libraries/STM32H7xx_HAL/STM32H7xx_HAL_Driver/Src/stm32h7xx_hal_rcc.c:676:28
	ldr	r0, [r0, #8]
.Ltmp199:
	.loc	5 676 8                         @ libraries/STM32H7xx_HAL/STM32H7xx_HAL_Driver/Src/stm32h7xx_hal_rcc.c:676:8
	cbz	r0, .LBB1_163
	b	.LBB1_157
.LBB1_157:
.Ltmp200:
	.loc	5 679 19 is_stmt 1              @ libraries/STM32H7xx_HAL/STM32H7xx_HAL_Driver/Src/stm32h7xx_hal_rcc.c:679:19
	bl	HAL_GetTick
	.loc	5 679 17 is_stmt 0              @ libraries/STM32H7xx_HAL/STM32H7xx_HAL_Driver/Src/stm32h7xx_hal_rcc.c:679:17
	str	r0, [sp, #28]
	.loc	5 682 7 is_stmt 1               @ libraries/STM32H7xx_HAL/STM32H7xx_HAL_Driver/Src/stm32h7xx_hal_rcc.c:682:7
	b	.LBB1_158
.LBB1_158:                              @ =>This Inner Loop Header: Depth=1
	.loc	5 0 7 is_stmt 0                 @ libraries/STM32H7xx_HAL/STM32H7xx_HAL_Driver/Src/stm32h7xx_hal_rcc.c:0:7
	movw	r0, #17520
	movt	r0, #22530
	.loc	5 682 13                        @ libraries/STM32H7xx_HAL/STM32H7xx_HAL_Driver/Src/stm32h7xx_hal_rcc.c:682:13
	ldr	r0, [r0]
	and	r1, r0, #2
	movs	r0, #0
	.loc	5 682 7                         @ libraries/STM32H7xx_HAL/STM32H7xx_HAL_Driver/Src/stm32h7xx_hal_rcc.c:682:7
	cmp.w	r0, r1, lsr #1
	bne	.LBB1_162
	b	.LBB1_159
.LBB1_159:                              @   in Loop: Header=BB1_158 Depth=1
.Ltmp201:
	.loc	5 684 13 is_stmt 1              @ libraries/STM32H7xx_HAL/STM32H7xx_HAL_Driver/Src/stm32h7xx_hal_rcc.c:684:13
	bl	HAL_GetTick
	.loc	5 684 29 is_stmt 0              @ libraries/STM32H7xx_HAL/STM32H7xx_HAL_Driver/Src/stm32h7xx_hal_rcc.c:684:29
	ldr	r1, [sp, #28]
	.loc	5 684 27                        @ libraries/STM32H7xx_HAL/STM32H7xx_HAL_Driver/Src/stm32h7xx_hal_rcc.c:684:27
	subs	r0, r0, r1
	movw	r1, #5001
.Ltmp202:
	.loc	5 684 12                        @ libraries/STM32H7xx_HAL/STM32H7xx_HAL_Driver/Src/stm32h7xx_hal_rcc.c:684:12
	cmp	r0, r1
	blo	.LBB1_161
	b	.LBB1_160
.LBB1_160:
	.loc	5 0 12                          @ libraries/STM32H7xx_HAL/STM32H7xx_HAL_Driver/Src/stm32h7xx_hal_rcc.c:0:12
	movs	r0, #3
.Ltmp203:
	.loc	5 686 11 is_stmt 1              @ libraries/STM32H7xx_HAL/STM32H7xx_HAL_Driver/Src/stm32h7xx_hal_rcc.c:686:11
	strb.w	r0, [sp, #39]
	b	.LBB1_196
.Ltmp204:
.LBB1_161:                              @   in Loop: Header=BB1_158 Depth=1
	.loc	5 682 7                         @ libraries/STM32H7xx_HAL/STM32H7xx_HAL_Driver/Src/stm32h7xx_hal_rcc.c:682:7
	b	.LBB1_158
.LBB1_162:
	.loc	5 689 5                         @ libraries/STM32H7xx_HAL/STM32H7xx_HAL_Driver/Src/stm32h7xx_hal_rcc.c:689:5
	b	.LBB1_169
.Ltmp205:
.LBB1_163:
	.loc	5 693 19                        @ libraries/STM32H7xx_HAL/STM32H7xx_HAL_Driver/Src/stm32h7xx_hal_rcc.c:693:19
	bl	HAL_GetTick
	.loc	5 693 17 is_stmt 0              @ libraries/STM32H7xx_HAL/STM32H7xx_HAL_Driver/Src/stm32h7xx_hal_rcc.c:693:17
	str	r0, [sp, #28]
	.loc	5 696 7 is_stmt 1               @ libraries/STM32H7xx_HAL/STM32H7xx_HAL_Driver/Src/stm32h7xx_hal_rcc.c:696:7
	b	.LBB1_164
.LBB1_164:                              @ =>This Inner Loop Header: Depth=1
	.loc	5 0 7 is_stmt 0                 @ libraries/STM32H7xx_HAL/STM32H7xx_HAL_Driver/Src/stm32h7xx_hal_rcc.c:0:7
	movw	r0, #17520
	movt	r0, #22530
	.loc	5 696 13                        @ libraries/STM32H7xx_HAL/STM32H7xx_HAL_Driver/Src/stm32h7xx_hal_rcc.c:696:13
	ldr	r0, [r0]
	and	r1, r0, #2
	movs	r0, #0
	.loc	5 696 7                         @ libraries/STM32H7xx_HAL/STM32H7xx_HAL_Driver/Src/stm32h7xx_hal_rcc.c:696:7
	cmp.w	r0, r1, lsr #1
	beq	.LBB1_168
	b	.LBB1_165
.LBB1_165:                              @   in Loop: Header=BB1_164 Depth=1
.Ltmp206:
	.loc	5 698 13 is_stmt 1              @ libraries/STM32H7xx_HAL/STM32H7xx_HAL_Driver/Src/stm32h7xx_hal_rcc.c:698:13
	bl	HAL_GetTick
	.loc	5 698 29 is_stmt 0              @ libraries/STM32H7xx_HAL/STM32H7xx_HAL_Driver/Src/stm32h7xx_hal_rcc.c:698:29
	ldr	r1, [sp, #28]
	.loc	5 698 27                        @ libraries/STM32H7xx_HAL/STM32H7xx_HAL_Driver/Src/stm32h7xx_hal_rcc.c:698:27
	subs	r0, r0, r1
	movw	r1, #5001
.Ltmp207:
	.loc	5 698 12                        @ libraries/STM32H7xx_HAL/STM32H7xx_HAL_Driver/Src/stm32h7xx_hal_rcc.c:698:12
	cmp	r0, r1
	blo	.LBB1_167
	b	.LBB1_166
.LBB1_166:
	.loc	5 0 12                          @ libraries/STM32H7xx_HAL/STM32H7xx_HAL_Driver/Src/stm32h7xx_hal_rcc.c:0:12
	movs	r0, #3
.Ltmp208:
	.loc	5 700 11 is_stmt 1              @ libraries/STM32H7xx_HAL/STM32H7xx_HAL_Driver/Src/stm32h7xx_hal_rcc.c:700:11
	strb.w	r0, [sp, #39]
	b	.LBB1_196
.Ltmp209:
.LBB1_167:                              @   in Loop: Header=BB1_164 Depth=1
	.loc	5 696 7                         @ libraries/STM32H7xx_HAL/STM32H7xx_HAL_Driver/Src/stm32h7xx_hal_rcc.c:696:7
	b	.LBB1_164
.Ltmp210:
.LBB1_168:
	.loc	5 0 7 is_stmt 0                 @ libraries/STM32H7xx_HAL/STM32H7xx_HAL_Driver/Src/stm32h7xx_hal_rcc.c:0:7
	b	.LBB1_169
.LBB1_169:
	.loc	5 704 3 is_stmt 1               @ libraries/STM32H7xx_HAL/STM32H7xx_HAL_Driver/Src/stm32h7xx_hal_rcc.c:704:3
	b	.LBB1_170
.Ltmp211:
.LBB1_170:
	.loc	5 708 8                         @ libraries/STM32H7xx_HAL/STM32H7xx_HAL_Driver/Src/stm32h7xx_hal_rcc.c:708:8
	ldr	r0, [sp, #32]
	.loc	5 708 31 is_stmt 0              @ libraries/STM32H7xx_HAL/STM32H7xx_HAL_Driver/Src/stm32h7xx_hal_rcc.c:708:31
	ldr	r0, [r0, #36]
.Ltmp212:
	.loc	5 708 7                         @ libraries/STM32H7xx_HAL/STM32H7xx_HAL_Driver/Src/stm32h7xx_hal_rcc.c:708:7
	cmp	r0, #0
	beq.w	.LBB1_195
	b	.LBB1_171
.LBB1_171:
	.loc	5 0 7                           @ libraries/STM32H7xx_HAL/STM32H7xx_HAL_Driver/Src/stm32h7xx_hal_rcc.c:0:7
	movw	r0, #17424
	movt	r0, #22530
.Ltmp213:
	.loc	5 711 8 is_stmt 1               @ libraries/STM32H7xx_HAL/STM32H7xx_HAL_Driver/Src/stm32h7xx_hal_rcc.c:711:8
	ldr	r0, [r0]
	and	r0, r0, #56
.Ltmp214:
	.loc	5 711 8 is_stmt 0               @ libraries/STM32H7xx_HAL/STM32H7xx_HAL_Driver/Src/stm32h7xx_hal_rcc.c:711:8
	cmp	r0, #24
	beq.w	.LBB1_193
	b	.LBB1_172
.LBB1_172:
.Ltmp215:
	.loc	5 713 11 is_stmt 1              @ libraries/STM32H7xx_HAL/STM32H7xx_HAL_Driver/Src/stm32h7xx_hal_rcc.c:713:11
	ldr	r0, [sp, #32]
	.loc	5 713 34 is_stmt 0              @ libraries/STM32H7xx_HAL/STM32H7xx_HAL_Driver/Src/stm32h7xx_hal_rcc.c:713:34
	ldr	r0, [r0, #36]
.Ltmp216:
	.loc	5 713 10                        @ libraries/STM32H7xx_HAL/STM32H7xx_HAL_Driver/Src/stm32h7xx_hal_rcc.c:713:10
	cmp	r0, #2
	bne.w	.LBB1_186
	b	.LBB1_173
.LBB1_173:
	.loc	5 0 10                          @ libraries/STM32H7xx_HAL/STM32H7xx_HAL_Driver/Src/stm32h7xx_hal_rcc.c:0:10
	movw	r1, #17408
	movt	r1, #22530
.Ltmp217:
	.loc	5 725 9 is_stmt 1               @ libraries/STM32H7xx_HAL/STM32H7xx_HAL_Driver/Src/stm32h7xx_hal_rcc.c:725:9
	ldr	r0, [r1]
	bic	r0, r0, #16777216
	str	r0, [r1]
	.loc	5 728 21                        @ libraries/STM32H7xx_HAL/STM32H7xx_HAL_Driver/Src/stm32h7xx_hal_rcc.c:728:21
	bl	HAL_GetTick
	.loc	5 728 19 is_stmt 0              @ libraries/STM32H7xx_HAL/STM32H7xx_HAL_Driver/Src/stm32h7xx_hal_rcc.c:728:19
	str	r0, [sp, #28]
	.loc	5 731 9 is_stmt 1               @ libraries/STM32H7xx_HAL/STM32H7xx_HAL_Driver/Src/stm32h7xx_hal_rcc.c:731:9
	b	.LBB1_174
.LBB1_174:                              @ =>This Inner Loop Header: Depth=1
	.loc	5 0 9 is_stmt 0                 @ libraries/STM32H7xx_HAL/STM32H7xx_HAL_Driver/Src/stm32h7xx_hal_rcc.c:0:9
	movw	r0, #17408
	movt	r0, #22530
	.loc	5 731 15                        @ libraries/STM32H7xx_HAL/STM32H7xx_HAL_Driver/Src/stm32h7xx_hal_rcc.c:731:15
	ldr	r0, [r0]
	and	r1, r0, #33554432
	movs	r0, #0
	.loc	5 731 9                         @ libraries/STM32H7xx_HAL/STM32H7xx_HAL_Driver/Src/stm32h7xx_hal_rcc.c:731:9
	cmp.w	r0, r1, lsr #25
	beq	.LBB1_178
	b	.LBB1_175
.LBB1_175:                              @   in Loop: Header=BB1_174 Depth=1
.Ltmp218:
	.loc	5 733 15 is_stmt 1              @ libraries/STM32H7xx_HAL/STM32H7xx_HAL_Driver/Src/stm32h7xx_hal_rcc.c:733:15
	bl	HAL_GetTick
	.loc	5 733 31 is_stmt 0              @ libraries/STM32H7xx_HAL/STM32H7xx_HAL_Driver/Src/stm32h7xx_hal_rcc.c:733:31
	ldr	r1, [sp, #28]
	.loc	5 733 29                        @ libraries/STM32H7xx_HAL/STM32H7xx_HAL_Driver/Src/stm32h7xx_hal_rcc.c:733:29
	subs	r0, r0, r1
.Ltmp219:
	.loc	5 733 14                        @ libraries/STM32H7xx_HAL/STM32H7xx_HAL_Driver/Src/stm32h7xx_hal_rcc.c:733:14
	cmp	r0, #3
	blo	.LBB1_177
	b	.LBB1_176
.LBB1_176:
	.loc	5 0 14                          @ libraries/STM32H7xx_HAL/STM32H7xx_HAL_Driver/Src/stm32h7xx_hal_rcc.c:0:14
	movs	r0, #3
.Ltmp220:
	.loc	5 735 13 is_stmt 1              @ libraries/STM32H7xx_HAL/STM32H7xx_HAL_Driver/Src/stm32h7xx_hal_rcc.c:735:13
	strb.w	r0, [sp, #39]
	b	.LBB1_196
.Ltmp221:
.LBB1_177:                              @   in Loop: Header=BB1_174 Depth=1
	.loc	5 731 9                         @ libraries/STM32H7xx_HAL/STM32H7xx_HAL_Driver/Src/stm32h7xx_hal_rcc.c:731:9
	b	.LBB1_174
.LBB1_178:
	.loc	5 740 9                         @ libraries/STM32H7xx_HAL/STM32H7xx_HAL_Driver/Src/stm32h7xx_hal_rcc.c:740:9
	b	.LBB1_179
.LBB1_179:
	.loc	5 0 9 is_stmt 0                 @ libraries/STM32H7xx_HAL/STM32H7xx_HAL_Driver/Src/stm32h7xx_hal_rcc.c:0:9
	movw	r1, #17448
	movt	r1, #22530
.Ltmp222:
	.loc	5 740 9                         @ libraries/STM32H7xx_HAL/STM32H7xx_HAL_Driver/Src/stm32h7xx_hal_rcc.c:740:9
	ldr	r0, [r1]
	movw	r2, #1011
	bics	r0, r2
	ldr	r3, [sp, #32]
	ldr	r2, [r3, #40]
	ldr	r3, [r3, #44]
	orr.w	r2, r2, r3, lsl #4
	orrs	r0, r2
	str	r0, [r1]
	ldr	r1, [sp, #32]
	ldr	r0, [r1, #48]
	ldr.w	r12, [r1, #52]
	ldr	r3, [r1, #56]
	ldr	r2, [r1, #60]
	subs	r0, #1
	bfc	r0, #9, #23
	movw	r1, #65024
	movt	r1, #65535
	add.w	r1, r1, r12, lsl #9
	uxth	r1, r1
	add	r0, r1
	movs	r1, #0
	movt	r1, #65535
	add.w	r1, r1, r3, lsl #16
	and	r1, r1, #8323072
	add	r0, r1
	mov.w	r1, #-16777216
	add.w	r1, r1, r2, lsl #24
	and	r1, r1, #2130706432
	add	r0, r1
	movw	r1, #17456
	movt	r1, #22530
	str	r0, [r1]
	b	.LBB1_180
.Ltmp223:
.LBB1_180:
	.loc	5 0 9                           @ libraries/STM32H7xx_HAL/STM32H7xx_HAL_Driver/Src/stm32h7xx_hal_rcc.c:0:9
	movw	r1, #17452
	movt	r1, #22530
	.loc	5 748 10 is_stmt 1              @ libraries/STM32H7xx_HAL/STM32H7xx_HAL_Driver/Src/stm32h7xx_hal_rcc.c:748:10
	str	r1, [sp]                        @ 4-byte Spill
	ldr	r0, [r1]
	bic	r0, r0, #1
	str	r0, [r1]
	movw	r2, #17460
	movt	r2, #22530
	.loc	5 751 10                        @ libraries/STM32H7xx_HAL/STM32H7xx_HAL_Driver/Src/stm32h7xx_hal_rcc.c:751:10
	ldr	r0, [r2]
	movw	r3, #65528
	bics	r0, r3
	ldr	r3, [sp, #32]
	ldr	r3, [r3, #72]
	orr.w	r0, r0, r3, lsl #3
	str	r0, [r2]
	.loc	5 754 9                         @ libraries/STM32H7xx_HAL/STM32H7xx_HAL_Driver/Src/stm32h7xx_hal_rcc.c:754:9
	ldr	r0, [r1]
	bic	r0, r0, #12
	ldr	r2, [sp, #32]
	ldr	r2, [r2, #64]
	orrs	r0, r2
	str	r0, [r1]
	.loc	5 757 9                         @ libraries/STM32H7xx_HAL/STM32H7xx_HAL_Driver/Src/stm32h7xx_hal_rcc.c:757:9
	ldr	r0, [r1]
	bic	r0, r0, #2
	ldr	r2, [sp, #32]
	ldr	r2, [r2, #68]
	orrs	r0, r2
	str	r0, [r1]
	.loc	5 760 10                        @ libraries/STM32H7xx_HAL/STM32H7xx_HAL_Driver/Src/stm32h7xx_hal_rcc.c:760:10
	ldr	r0, [r1]
	orr	r0, r0, #65536
	str	r0, [r1]
	.loc	5 763 10                        @ libraries/STM32H7xx_HAL/STM32H7xx_HAL_Driver/Src/stm32h7xx_hal_rcc.c:763:10
	ldr	r0, [r1]
	orr	r0, r0, #131072
	str	r0, [r1]
	.loc	5 766 10                        @ libraries/STM32H7xx_HAL/STM32H7xx_HAL_Driver/Src/stm32h7xx_hal_rcc.c:766:10
	ldr	r0, [r1]
	orr	r0, r0, #262144
	str	r0, [r1]
	.loc	5 769 10                        @ libraries/STM32H7xx_HAL/STM32H7xx_HAL_Driver/Src/stm32h7xx_hal_rcc.c:769:10
	ldr	r0, [r1]
	orr	r0, r0, #1
	str	r0, [r1]
	movw	r1, #17408
	movt	r1, #22530
	.loc	5 772 9                         @ libraries/STM32H7xx_HAL/STM32H7xx_HAL_Driver/Src/stm32h7xx_hal_rcc.c:772:9
	ldr	r0, [r1]
	orr	r0, r0, #16777216
	str	r0, [r1]
	.loc	5 775 21                        @ libraries/STM32H7xx_HAL/STM32H7xx_HAL_Driver/Src/stm32h7xx_hal_rcc.c:775:21
	bl	HAL_GetTick
	.loc	5 775 19 is_stmt 0              @ libraries/STM32H7xx_HAL/STM32H7xx_HAL_Driver/Src/stm32h7xx_hal_rcc.c:775:19
	str	r0, [sp, #28]
	.loc	5 778 9 is_stmt 1               @ libraries/STM32H7xx_HAL/STM32H7xx_HAL_Driver/Src/stm32h7xx_hal_rcc.c:778:9
	b	.LBB1_181
.LBB1_181:                              @ =>This Inner Loop Header: Depth=1
	.loc	5 0 9 is_stmt 0                 @ libraries/STM32H7xx_HAL/STM32H7xx_HAL_Driver/Src/stm32h7xx_hal_rcc.c:0:9
	movw	r0, #17408
	movt	r0, #22530
	.loc	5 778 15                        @ libraries/STM32H7xx_HAL/STM32H7xx_HAL_Driver/Src/stm32h7xx_hal_rcc.c:778:15
	ldr	r0, [r0]
	and	r1, r0, #33554432
	movs	r0, #0
	.loc	5 778 9                         @ libraries/STM32H7xx_HAL/STM32H7xx_HAL_Driver/Src/stm32h7xx_hal_rcc.c:778:9
	cmp.w	r0, r1, lsr #25
	bne	.LBB1_185
	b	.LBB1_182
.LBB1_182:                              @   in Loop: Header=BB1_181 Depth=1
.Ltmp224:
	.loc	5 780 15 is_stmt 1              @ libraries/STM32H7xx_HAL/STM32H7xx_HAL_Driver/Src/stm32h7xx_hal_rcc.c:780:15
	bl	HAL_GetTick
	.loc	5 780 31 is_stmt 0              @ libraries/STM32H7xx_HAL/STM32H7xx_HAL_Driver/Src/stm32h7xx_hal_rcc.c:780:31
	ldr	r1, [sp, #28]
	.loc	5 780 29                        @ libraries/STM32H7xx_HAL/STM32H7xx_HAL_Driver/Src/stm32h7xx_hal_rcc.c:780:29
	subs	r0, r0, r1
.Ltmp225:
	.loc	5 780 14                        @ libraries/STM32H7xx_HAL/STM32H7xx_HAL_Driver/Src/stm32h7xx_hal_rcc.c:780:14
	cmp	r0, #3
	blo	.LBB1_184
	b	.LBB1_183
.LBB1_183:
	.loc	5 0 14                          @ libraries/STM32H7xx_HAL/STM32H7xx_HAL_Driver/Src/stm32h7xx_hal_rcc.c:0:14
	movs	r0, #3
.Ltmp226:
	.loc	5 782 13 is_stmt 1              @ libraries/STM32H7xx_HAL/STM32H7xx_HAL_Driver/Src/stm32h7xx_hal_rcc.c:782:13
	strb.w	r0, [sp, #39]
	b	.LBB1_196
.Ltmp227:
.LBB1_184:                              @   in Loop: Header=BB1_181 Depth=1
	.loc	5 778 9                         @ libraries/STM32H7xx_HAL/STM32H7xx_HAL_Driver/Src/stm32h7xx_hal_rcc.c:778:9
	b	.LBB1_181
.LBB1_185:
	.loc	5 785 7                         @ libraries/STM32H7xx_HAL/STM32H7xx_HAL_Driver/Src/stm32h7xx_hal_rcc.c:785:7
	b	.LBB1_192
.Ltmp228:
.LBB1_186:
	.loc	5 0 7 is_stmt 0                 @ libraries/STM32H7xx_HAL/STM32H7xx_HAL_Driver/Src/stm32h7xx_hal_rcc.c:0:7
	movw	r1, #17408
	movt	r1, #22530
.Ltmp229:
	.loc	5 789 9 is_stmt 1               @ libraries/STM32H7xx_HAL/STM32H7xx_HAL_Driver/Src/stm32h7xx_hal_rcc.c:789:9
	ldr	r0, [r1]
	bic	r0, r0, #16777216
	str	r0, [r1]
	.loc	5 792 21                        @ libraries/STM32H7xx_HAL/STM32H7xx_HAL_Driver/Src/stm32h7xx_hal_rcc.c:792:21
	bl	HAL_GetTick
	.loc	5 792 19 is_stmt 0              @ libraries/STM32H7xx_HAL/STM32H7xx_HAL_Driver/Src/stm32h7xx_hal_rcc.c:792:19
	str	r0, [sp, #28]
	.loc	5 795 9 is_stmt 1               @ libraries/STM32H7xx_HAL/STM32H7xx_HAL_Driver/Src/stm32h7xx_hal_rcc.c:795:9
	b	.LBB1_187
.LBB1_187:                              @ =>This Inner Loop Header: Depth=1
	.loc	5 0 9 is_stmt 0                 @ libraries/STM32H7xx_HAL/STM32H7xx_HAL_Driver/Src/stm32h7xx_hal_rcc.c:0:9
	movw	r0, #17408
	movt	r0, #22530
	.loc	5 795 15                        @ libraries/STM32H7xx_HAL/STM32H7xx_HAL_Driver/Src/stm32h7xx_hal_rcc.c:795:15
	ldr	r0, [r0]
	and	r1, r0, #33554432
	movs	r0, #0
	.loc	5 795 9                         @ libraries/STM32H7xx_HAL/STM32H7xx_HAL_Driver/Src/stm32h7xx_hal_rcc.c:795:9
	cmp.w	r0, r1, lsr #25
	beq	.LBB1_191
	b	.LBB1_188
.LBB1_188:                              @   in Loop: Header=BB1_187 Depth=1
.Ltmp230:
	.loc	5 797 15 is_stmt 1              @ libraries/STM32H7xx_HAL/STM32H7xx_HAL_Driver/Src/stm32h7xx_hal_rcc.c:797:15
	bl	HAL_GetTick
	.loc	5 797 31 is_stmt 0              @ libraries/STM32H7xx_HAL/STM32H7xx_HAL_Driver/Src/stm32h7xx_hal_rcc.c:797:31
	ldr	r1, [sp, #28]
	.loc	5 797 29                        @ libraries/STM32H7xx_HAL/STM32H7xx_HAL_Driver/Src/stm32h7xx_hal_rcc.c:797:29
	subs	r0, r0, r1
.Ltmp231:
	.loc	5 797 14                        @ libraries/STM32H7xx_HAL/STM32H7xx_HAL_Driver/Src/stm32h7xx_hal_rcc.c:797:14
	cmp	r0, #3
	blo	.LBB1_190
	b	.LBB1_189
.LBB1_189:
	.loc	5 0 14                          @ libraries/STM32H7xx_HAL/STM32H7xx_HAL_Driver/Src/stm32h7xx_hal_rcc.c:0:14
	movs	r0, #3
.Ltmp232:
	.loc	5 799 13 is_stmt 1              @ libraries/STM32H7xx_HAL/STM32H7xx_HAL_Driver/Src/stm32h7xx_hal_rcc.c:799:13
	strb.w	r0, [sp, #39]
	b	.LBB1_196
.Ltmp233:
.LBB1_190:                              @   in Loop: Header=BB1_187 Depth=1
	.loc	5 795 9                         @ libraries/STM32H7xx_HAL/STM32H7xx_HAL_Driver/Src/stm32h7xx_hal_rcc.c:795:9
	b	.LBB1_187
.Ltmp234:
.LBB1_191:
	.loc	5 0 9 is_stmt 0                 @ libraries/STM32H7xx_HAL/STM32H7xx_HAL_Driver/Src/stm32h7xx_hal_rcc.c:0:9
	b	.LBB1_192
.LBB1_192:
	.loc	5 803 5 is_stmt 1               @ libraries/STM32H7xx_HAL/STM32H7xx_HAL_Driver/Src/stm32h7xx_hal_rcc.c:803:5
	b	.LBB1_194
.Ltmp235:
.LBB1_193:
	.loc	5 0 5 is_stmt 0                 @ libraries/STM32H7xx_HAL/STM32H7xx_HAL_Driver/Src/stm32h7xx_hal_rcc.c:0:5
	movs	r0, #1
.Ltmp236:
	.loc	5 806 7 is_stmt 1               @ libraries/STM32H7xx_HAL/STM32H7xx_HAL_Driver/Src/stm32h7xx_hal_rcc.c:806:7
	strb.w	r0, [sp, #39]
	b	.LBB1_196
.Ltmp237:
.LBB1_194:
	.loc	5 808 3                         @ libraries/STM32H7xx_HAL/STM32H7xx_HAL_Driver/Src/stm32h7xx_hal_rcc.c:808:3
	b	.LBB1_195
.Ltmp238:
.LBB1_195:
	.loc	5 0 3 is_stmt 0                 @ libraries/STM32H7xx_HAL/STM32H7xx_HAL_Driver/Src/stm32h7xx_hal_rcc.c:0:3
	movs	r0, #0
	.loc	5 809 3 is_stmt 1               @ libraries/STM32H7xx_HAL/STM32H7xx_HAL_Driver/Src/stm32h7xx_hal_rcc.c:809:3
	strb.w	r0, [sp, #39]
	b	.LBB1_196
.LBB1_196:
	.loc	5 810 1                         @ libraries/STM32H7xx_HAL/STM32H7xx_HAL_Driver/Src/stm32h7xx_hal_rcc.c:810:1
	ldrb.w	r0, [sp, #39]
	add	sp, #40
	pop	{r7, pc}
.Ltmp239:
.Lfunc_end1:
	.size	HAL_RCC_OscConfig, .Lfunc_end1-HAL_RCC_OscConfig
	.cfi_endproc
	.cantunwind
	.fnend
                                        @ -- End function
	.section	.text.HAL_RCC_ClockConfig,"ax",%progbits
	.hidden	HAL_RCC_ClockConfig             @ -- Begin function HAL_RCC_ClockConfig
	.globl	HAL_RCC_ClockConfig
	.p2align	3
	.type	HAL_RCC_ClockConfig,%function
	.code	16                              @ @HAL_RCC_ClockConfig
	.thumb_func
HAL_RCC_ClockConfig:
.Lfunc_begin2:
	.loc	5 839 0                         @ libraries/STM32H7xx_HAL/STM32H7xx_HAL_Driver/Src/stm32h7xx_hal_rcc.c:839:0
	.fnstart
	.cfi_startproc
@ %bb.0:
	.save	{r7, lr}
	push	{r7, lr}
	.cfi_def_cfa_offset 8
	.cfi_offset lr, -4
	.cfi_offset r7, -8
	.pad	#24
	sub	sp, #24
	.cfi_def_cfa_offset 32
	str	r0, [sp, #16]
	str	r1, [sp, #12]
.Ltmp240:
	.loc	5 844 6 prologue_end            @ libraries/STM32H7xx_HAL/STM32H7xx_HAL_Driver/Src/stm32h7xx_hal_rcc.c:844:6
	ldr	r0, [sp, #16]
.Ltmp241:
	.loc	5 844 6 is_stmt 0               @ libraries/STM32H7xx_HAL/STM32H7xx_HAL_Driver/Src/stm32h7xx_hal_rcc.c:844:6
	cbnz	r0, .LBB2_2
	b	.LBB2_1
.LBB2_1:
	.loc	5 0 6                           @ libraries/STM32H7xx_HAL/STM32H7xx_HAL_Driver/Src/stm32h7xx_hal_rcc.c:0:6
	movs	r0, #1
.Ltmp242:
	.loc	5 846 5 is_stmt 1               @ libraries/STM32H7xx_HAL/STM32H7xx_HAL_Driver/Src/stm32h7xx_hal_rcc.c:846:5
	strb.w	r0, [sp, #23]
	b	.LBB2_75
.Ltmp243:
.LBB2_2:
	.loc	5 858 6                         @ libraries/STM32H7xx_HAL/STM32H7xx_HAL_Driver/Src/stm32h7xx_hal_rcc.c:858:6
	ldr	r0, [sp, #12]
	movw	r1, #8192
	movt	r1, #20992
	.loc	5 858 17 is_stmt 0              @ libraries/STM32H7xx_HAL/STM32H7xx_HAL_Driver/Src/stm32h7xx_hal_rcc.c:858:17
	ldr	r1, [r1]
	and	r1, r1, #15
.Ltmp244:
	.loc	5 858 6                         @ libraries/STM32H7xx_HAL/STM32H7xx_HAL_Driver/Src/stm32h7xx_hal_rcc.c:858:6
	cmp	r0, r1
	bls	.LBB2_6
	b	.LBB2_3
.LBB2_3:
	.loc	5 0 6                           @ libraries/STM32H7xx_HAL/STM32H7xx_HAL_Driver/Src/stm32h7xx_hal_rcc.c:0:6
	movw	r0, #8192
	movt	r0, #20992
.Ltmp245:
	.loc	5 861 5 is_stmt 1               @ libraries/STM32H7xx_HAL/STM32H7xx_HAL_Driver/Src/stm32h7xx_hal_rcc.c:861:5
	ldr	r1, [r0]
	bic	r1, r1, #15
	ldr	r2, [sp, #12]
	orrs	r1, r2
	str	r1, [r0]
.Ltmp246:
	.loc	5 865 8                         @ libraries/STM32H7xx_HAL/STM32H7xx_HAL_Driver/Src/stm32h7xx_hal_rcc.c:865:8
	ldr	r0, [r0]
	and	r0, r0, #15
	.loc	5 865 37 is_stmt 0              @ libraries/STM32H7xx_HAL/STM32H7xx_HAL_Driver/Src/stm32h7xx_hal_rcc.c:865:37
	ldr	r1, [sp, #12]
.Ltmp247:
	.loc	5 865 8                         @ libraries/STM32H7xx_HAL/STM32H7xx_HAL_Driver/Src/stm32h7xx_hal_rcc.c:865:8
	cmp	r0, r1
	beq	.LBB2_5
	b	.LBB2_4
.LBB2_4:
	.loc	5 0 8                           @ libraries/STM32H7xx_HAL/STM32H7xx_HAL_Driver/Src/stm32h7xx_hal_rcc.c:0:8
	movs	r0, #1
.Ltmp248:
	.loc	5 867 7 is_stmt 1               @ libraries/STM32H7xx_HAL/STM32H7xx_HAL_Driver/Src/stm32h7xx_hal_rcc.c:867:7
	strb.w	r0, [sp, #23]
	b	.LBB2_75
.Ltmp249:
.LBB2_5:
	.loc	5 870 3                         @ libraries/STM32H7xx_HAL/STM32H7xx_HAL_Driver/Src/stm32h7xx_hal_rcc.c:870:3
	b	.LBB2_6
.Ltmp250:
.LBB2_6:
	.loc	5 874 8                         @ libraries/STM32H7xx_HAL/STM32H7xx_HAL_Driver/Src/stm32h7xx_hal_rcc.c:874:8
	ldr	r0, [sp, #16]
.Ltmp251:
	.loc	5 874 6 is_stmt 0               @ libraries/STM32H7xx_HAL/STM32H7xx_HAL_Driver/Src/stm32h7xx_hal_rcc.c:874:6
	ldrb	r0, [r0]
	lsls	r0, r0, #29
	cmp	r0, #0
	bpl	.LBB2_10
	b	.LBB2_7
.LBB2_7:
.Ltmp252:
	.loc	5 876 9 is_stmt 1               @ libraries/STM32H7xx_HAL/STM32H7xx_HAL_Driver/Src/stm32h7xx_hal_rcc.c:876:9
	ldr	r0, [sp, #16]
	.loc	5 876 28 is_stmt 0              @ libraries/STM32H7xx_HAL/STM32H7xx_HAL_Driver/Src/stm32h7xx_hal_rcc.c:876:28
	ldr	r0, [r0, #16]
	movw	r1, #17432
	movt	r1, #22530
	.loc	5 876 52                        @ libraries/STM32H7xx_HAL/STM32H7xx_HAL_Driver/Src/stm32h7xx_hal_rcc.c:876:52
	ldr	r1, [r1]
	.loc	5 876 59                        @ libraries/STM32H7xx_HAL/STM32H7xx_HAL_Driver/Src/stm32h7xx_hal_rcc.c:876:59
	and	r1, r1, #112
.Ltmp253:
	.loc	5 876 8                         @ libraries/STM32H7xx_HAL/STM32H7xx_HAL_Driver/Src/stm32h7xx_hal_rcc.c:876:8
	cmp	r0, r1
	bls	.LBB2_9
	b	.LBB2_8
.LBB2_8:
	.loc	5 0 8                           @ libraries/STM32H7xx_HAL/STM32H7xx_HAL_Driver/Src/stm32h7xx_hal_rcc.c:0:8
	movw	r1, #17432
	movt	r1, #22530
.Ltmp254:
	.loc	5 879 7 is_stmt 1               @ libraries/STM32H7xx_HAL/STM32H7xx_HAL_Driver/Src/stm32h7xx_hal_rcc.c:879:7
	ldr	r0, [r1]
	bic	r0, r0, #112
	ldr	r2, [sp, #16]
	ldr	r2, [r2, #16]
	orrs	r0, r2
	str	r0, [r1]
	.loc	5 880 5                         @ libraries/STM32H7xx_HAL/STM32H7xx_HAL_Driver/Src/stm32h7xx_hal_rcc.c:880:5
	b	.LBB2_9
.Ltmp255:
.LBB2_9:
	.loc	5 881 3                         @ libraries/STM32H7xx_HAL/STM32H7xx_HAL_Driver/Src/stm32h7xx_hal_rcc.c:881:3
	b	.LBB2_10
.Ltmp256:
.LBB2_10:
	.loc	5 884 8                         @ libraries/STM32H7xx_HAL/STM32H7xx_HAL_Driver/Src/stm32h7xx_hal_rcc.c:884:8
	ldr	r0, [sp, #16]
.Ltmp257:
	.loc	5 884 6 is_stmt 0               @ libraries/STM32H7xx_HAL/STM32H7xx_HAL_Driver/Src/stm32h7xx_hal_rcc.c:884:6
	ldrb	r0, [r0]
	lsls	r0, r0, #28
	cmp	r0, #0
	bpl	.LBB2_14
	b	.LBB2_11
.LBB2_11:
.Ltmp258:
	.loc	5 886 9 is_stmt 1               @ libraries/STM32H7xx_HAL/STM32H7xx_HAL_Driver/Src/stm32h7xx_hal_rcc.c:886:9
	ldr	r0, [sp, #16]
	.loc	5 886 28 is_stmt 0              @ libraries/STM32H7xx_HAL/STM32H7xx_HAL_Driver/Src/stm32h7xx_hal_rcc.c:886:28
	ldr	r0, [r0, #20]
	movw	r1, #17436
	movt	r1, #22530
	.loc	5 886 52                        @ libraries/STM32H7xx_HAL/STM32H7xx_HAL_Driver/Src/stm32h7xx_hal_rcc.c:886:52
	ldr	r1, [r1]
	.loc	5 886 59                        @ libraries/STM32H7xx_HAL/STM32H7xx_HAL_Driver/Src/stm32h7xx_hal_rcc.c:886:59
	and	r1, r1, #112
.Ltmp259:
	.loc	5 886 8                         @ libraries/STM32H7xx_HAL/STM32H7xx_HAL_Driver/Src/stm32h7xx_hal_rcc.c:886:8
	cmp	r0, r1
	bls	.LBB2_13
	b	.LBB2_12
.LBB2_12:
	.loc	5 0 8                           @ libraries/STM32H7xx_HAL/STM32H7xx_HAL_Driver/Src/stm32h7xx_hal_rcc.c:0:8
	movw	r1, #17436
	movt	r1, #22530
.Ltmp260:
	.loc	5 889 7 is_stmt 1               @ libraries/STM32H7xx_HAL/STM32H7xx_HAL_Driver/Src/stm32h7xx_hal_rcc.c:889:7
	ldr	r0, [r1]
	bic	r0, r0, #112
	ldr	r2, [sp, #16]
	ldr	r2, [r2, #20]
	orrs	r0, r2
	str	r0, [r1]
	.loc	5 890 5                         @ libraries/STM32H7xx_HAL/STM32H7xx_HAL_Driver/Src/stm32h7xx_hal_rcc.c:890:5
	b	.LBB2_13
.Ltmp261:
.LBB2_13:
	.loc	5 891 3                         @ libraries/STM32H7xx_HAL/STM32H7xx_HAL_Driver/Src/stm32h7xx_hal_rcc.c:891:3
	b	.LBB2_14
.Ltmp262:
.LBB2_14:
	.loc	5 894 8                         @ libraries/STM32H7xx_HAL/STM32H7xx_HAL_Driver/Src/stm32h7xx_hal_rcc.c:894:8
	ldr	r0, [sp, #16]
.Ltmp263:
	.loc	5 894 6 is_stmt 0               @ libraries/STM32H7xx_HAL/STM32H7xx_HAL_Driver/Src/stm32h7xx_hal_rcc.c:894:6
	ldrb	r0, [r0]
	lsls	r0, r0, #27
	cmp	r0, #0
	bpl	.LBB2_18
	b	.LBB2_15
.LBB2_15:
.Ltmp264:
	.loc	5 896 9 is_stmt 1               @ libraries/STM32H7xx_HAL/STM32H7xx_HAL_Driver/Src/stm32h7xx_hal_rcc.c:896:9
	ldr	r0, [sp, #16]
	.loc	5 896 28 is_stmt 0              @ libraries/STM32H7xx_HAL/STM32H7xx_HAL_Driver/Src/stm32h7xx_hal_rcc.c:896:28
	ldr	r0, [r0, #24]
	movw	r1, #17436
	movt	r1, #22530
	.loc	5 896 52                        @ libraries/STM32H7xx_HAL/STM32H7xx_HAL_Driver/Src/stm32h7xx_hal_rcc.c:896:52
	ldr	r1, [r1]
	.loc	5 896 59                        @ libraries/STM32H7xx_HAL/STM32H7xx_HAL_Driver/Src/stm32h7xx_hal_rcc.c:896:59
	and	r1, r1, #1792
.Ltmp265:
	.loc	5 896 8                         @ libraries/STM32H7xx_HAL/STM32H7xx_HAL_Driver/Src/stm32h7xx_hal_rcc.c:896:8
	cmp	r0, r1
	bls	.LBB2_17
	b	.LBB2_16
.LBB2_16:
	.loc	5 0 8                           @ libraries/STM32H7xx_HAL/STM32H7xx_HAL_Driver/Src/stm32h7xx_hal_rcc.c:0:8
	movw	r1, #17436
	movt	r1, #22530
.Ltmp266:
	.loc	5 899 7 is_stmt 1               @ libraries/STM32H7xx_HAL/STM32H7xx_HAL_Driver/Src/stm32h7xx_hal_rcc.c:899:7
	ldr	r0, [r1]
	bic	r0, r0, #1792
	ldr	r2, [sp, #16]
	ldr	r2, [r2, #24]
	orrs	r0, r2
	str	r0, [r1]
	.loc	5 900 5                         @ libraries/STM32H7xx_HAL/STM32H7xx_HAL_Driver/Src/stm32h7xx_hal_rcc.c:900:5
	b	.LBB2_17
.Ltmp267:
.LBB2_17:
	.loc	5 901 3                         @ libraries/STM32H7xx_HAL/STM32H7xx_HAL_Driver/Src/stm32h7xx_hal_rcc.c:901:3
	b	.LBB2_18
.Ltmp268:
.LBB2_18:
	.loc	5 904 8                         @ libraries/STM32H7xx_HAL/STM32H7xx_HAL_Driver/Src/stm32h7xx_hal_rcc.c:904:8
	ldr	r0, [sp, #16]
.Ltmp269:
	.loc	5 904 6 is_stmt 0               @ libraries/STM32H7xx_HAL/STM32H7xx_HAL_Driver/Src/stm32h7xx_hal_rcc.c:904:6
	ldrb	r0, [r0]
	lsls	r0, r0, #26
	cmp	r0, #0
	bpl	.LBB2_22
	b	.LBB2_19
.LBB2_19:
.Ltmp270:
	.loc	5 906 9 is_stmt 1               @ libraries/STM32H7xx_HAL/STM32H7xx_HAL_Driver/Src/stm32h7xx_hal_rcc.c:906:9
	ldr	r0, [sp, #16]
	.loc	5 906 28 is_stmt 0              @ libraries/STM32H7xx_HAL/STM32H7xx_HAL_Driver/Src/stm32h7xx_hal_rcc.c:906:28
	ldr	r0, [r0, #28]
	movw	r1, #17440
	movt	r1, #22530
	.loc	5 906 52                        @ libraries/STM32H7xx_HAL/STM32H7xx_HAL_Driver/Src/stm32h7xx_hal_rcc.c:906:52
	ldr	r1, [r1]
	.loc	5 906 59                        @ libraries/STM32H7xx_HAL/STM32H7xx_HAL_Driver/Src/stm32h7xx_hal_rcc.c:906:59
	and	r1, r1, #112
.Ltmp271:
	.loc	5 906 8                         @ libraries/STM32H7xx_HAL/STM32H7xx_HAL_Driver/Src/stm32h7xx_hal_rcc.c:906:8
	cmp	r0, r1
	bls	.LBB2_21
	b	.LBB2_20
.LBB2_20:
	.loc	5 0 8                           @ libraries/STM32H7xx_HAL/STM32H7xx_HAL_Driver/Src/stm32h7xx_hal_rcc.c:0:8
	movw	r1, #17440
	movt	r1, #22530
.Ltmp272:
	.loc	5 909 7 is_stmt 1               @ libraries/STM32H7xx_HAL/STM32H7xx_HAL_Driver/Src/stm32h7xx_hal_rcc.c:909:7
	ldr	r0, [r1]
	bic	r0, r0, #112
	ldr	r2, [sp, #16]
	ldr	r2, [r2, #28]
	orrs	r0, r2
	str	r0, [r1]
	.loc	5 910 5                         @ libraries/STM32H7xx_HAL/STM32H7xx_HAL_Driver/Src/stm32h7xx_hal_rcc.c:910:5
	b	.LBB2_21
.Ltmp273:
.LBB2_21:
	.loc	5 911 3                         @ libraries/STM32H7xx_HAL/STM32H7xx_HAL_Driver/Src/stm32h7xx_hal_rcc.c:911:3
	b	.LBB2_22
.Ltmp274:
.LBB2_22:
	.loc	5 914 8                         @ libraries/STM32H7xx_HAL/STM32H7xx_HAL_Driver/Src/stm32h7xx_hal_rcc.c:914:8
	ldr	r0, [sp, #16]
.Ltmp275:
	.loc	5 914 6 is_stmt 0               @ libraries/STM32H7xx_HAL/STM32H7xx_HAL_Driver/Src/stm32h7xx_hal_rcc.c:914:6
	ldrb	r0, [r0]
	lsls	r0, r0, #30
	cmp	r0, #0
	bpl	.LBB2_26
	b	.LBB2_23
.LBB2_23:
.Ltmp276:
	.loc	5 916 9 is_stmt 1               @ libraries/STM32H7xx_HAL/STM32H7xx_HAL_Driver/Src/stm32h7xx_hal_rcc.c:916:9
	ldr	r0, [sp, #16]
	.loc	5 916 28 is_stmt 0              @ libraries/STM32H7xx_HAL/STM32H7xx_HAL_Driver/Src/stm32h7xx_hal_rcc.c:916:28
	ldr	r0, [r0, #12]
	movw	r1, #17432
	movt	r1, #22530
	.loc	5 916 51                        @ libraries/STM32H7xx_HAL/STM32H7xx_HAL_Driver/Src/stm32h7xx_hal_rcc.c:916:51
	ldr	r1, [r1]
	.loc	5 916 58                        @ libraries/STM32H7xx_HAL/STM32H7xx_HAL_Driver/Src/stm32h7xx_hal_rcc.c:916:58
	and	r1, r1, #15
.Ltmp277:
	.loc	5 916 8                         @ libraries/STM32H7xx_HAL/STM32H7xx_HAL_Driver/Src/stm32h7xx_hal_rcc.c:916:8
	cmp	r0, r1
	bls	.LBB2_25
	b	.LBB2_24
.LBB2_24:
	.loc	5 0 8                           @ libraries/STM32H7xx_HAL/STM32H7xx_HAL_Driver/Src/stm32h7xx_hal_rcc.c:0:8
	movw	r1, #17432
	movt	r1, #22530
.Ltmp278:
	.loc	5 920 7 is_stmt 1               @ libraries/STM32H7xx_HAL/STM32H7xx_HAL_Driver/Src/stm32h7xx_hal_rcc.c:920:7
	ldr	r0, [r1]
	bic	r0, r0, #15
	ldr	r2, [sp, #16]
	ldr	r2, [r2, #12]
	orrs	r0, r2
	str	r0, [r1]
	.loc	5 921 5                         @ libraries/STM32H7xx_HAL/STM32H7xx_HAL_Driver/Src/stm32h7xx_hal_rcc.c:921:5
	b	.LBB2_25
.Ltmp279:
.LBB2_25:
	.loc	5 922 3                         @ libraries/STM32H7xx_HAL/STM32H7xx_HAL_Driver/Src/stm32h7xx_hal_rcc.c:922:3
	b	.LBB2_26
.Ltmp280:
.LBB2_26:
	.loc	5 925 10                        @ libraries/STM32H7xx_HAL/STM32H7xx_HAL_Driver/Src/stm32h7xx_hal_rcc.c:925:10
	ldr	r0, [sp, #16]
.Ltmp281:
	.loc	5 925 8 is_stmt 0               @ libraries/STM32H7xx_HAL/STM32H7xx_HAL_Driver/Src/stm32h7xx_hal_rcc.c:925:8
	ldrb	r0, [r0]
	lsls	r0, r0, #31
	cmp	r0, #0
	beq.w	.LBB2_50
	b	.LBB2_27
.LBB2_27:
	.loc	5 0 8                           @ libraries/STM32H7xx_HAL/STM32H7xx_HAL_Driver/Src/stm32h7xx_hal_rcc.c:0:8
	movw	r1, #17432
	movt	r1, #22530
.Ltmp282:
	.loc	5 929 7 is_stmt 1               @ libraries/STM32H7xx_HAL/STM32H7xx_HAL_Driver/Src/stm32h7xx_hal_rcc.c:929:7
	ldr	r0, [r1]
	bic	r0, r0, #3840
	ldr	r2, [sp, #16]
	ldr	r2, [r2, #8]
	orrs	r0, r2
	str	r0, [r1]
.Ltmp283:
	.loc	5 931 10                        @ libraries/STM32H7xx_HAL/STM32H7xx_HAL_Driver/Src/stm32h7xx_hal_rcc.c:931:10
	ldr	r0, [sp, #16]
	.loc	5 931 29 is_stmt 0              @ libraries/STM32H7xx_HAL/STM32H7xx_HAL_Driver/Src/stm32h7xx_hal_rcc.c:931:29
	ldr	r0, [r0, #4]
.Ltmp284:
	.loc	5 931 10                        @ libraries/STM32H7xx_HAL/STM32H7xx_HAL_Driver/Src/stm32h7xx_hal_rcc.c:931:10
	cmp	r0, #2
	bne	.LBB2_31
	b	.LBB2_28
.LBB2_28:
	.loc	5 0 10                          @ libraries/STM32H7xx_HAL/STM32H7xx_HAL_Driver/Src/stm32h7xx_hal_rcc.c:0:10
	movw	r0, #17408
	movt	r0, #22530
.Ltmp285:
	.loc	5 934 12 is_stmt 1              @ libraries/STM32H7xx_HAL/STM32H7xx_HAL_Driver/Src/stm32h7xx_hal_rcc.c:934:12
	ldr	r0, [r0]
	and	r1, r0, #131072
	movs	r0, #0
.Ltmp286:
	.loc	5 934 12 is_stmt 0              @ libraries/STM32H7xx_HAL/STM32H7xx_HAL_Driver/Src/stm32h7xx_hal_rcc.c:934:12
	cmp.w	r0, r1, lsr #17
	bne	.LBB2_30
	b	.LBB2_29
.LBB2_29:
	.loc	5 0 12                          @ libraries/STM32H7xx_HAL/STM32H7xx_HAL_Driver/Src/stm32h7xx_hal_rcc.c:0:12
	movs	r0, #1
.Ltmp287:
	.loc	5 936 11 is_stmt 1              @ libraries/STM32H7xx_HAL/STM32H7xx_HAL_Driver/Src/stm32h7xx_hal_rcc.c:936:11
	strb.w	r0, [sp, #23]
	b	.LBB2_75
.Ltmp288:
.LBB2_30:
	.loc	5 938 7                         @ libraries/STM32H7xx_HAL/STM32H7xx_HAL_Driver/Src/stm32h7xx_hal_rcc.c:938:7
	b	.LBB2_44
.Ltmp289:
.LBB2_31:
	.loc	5 940 15                        @ libraries/STM32H7xx_HAL/STM32H7xx_HAL_Driver/Src/stm32h7xx_hal_rcc.c:940:15
	ldr	r0, [sp, #16]
	.loc	5 940 34 is_stmt 0              @ libraries/STM32H7xx_HAL/STM32H7xx_HAL_Driver/Src/stm32h7xx_hal_rcc.c:940:34
	ldr	r0, [r0, #4]
.Ltmp290:
	.loc	5 940 15                        @ libraries/STM32H7xx_HAL/STM32H7xx_HAL_Driver/Src/stm32h7xx_hal_rcc.c:940:15
	cmp	r0, #3
	bne	.LBB2_35
	b	.LBB2_32
.LBB2_32:
	.loc	5 0 15                          @ libraries/STM32H7xx_HAL/STM32H7xx_HAL_Driver/Src/stm32h7xx_hal_rcc.c:0:15
	movw	r0, #17408
	movt	r0, #22530
.Ltmp291:
	.loc	5 943 12 is_stmt 1              @ libraries/STM32H7xx_HAL/STM32H7xx_HAL_Driver/Src/stm32h7xx_hal_rcc.c:943:12
	ldr	r0, [r0]
	and	r1, r0, #33554432
	movs	r0, #0
.Ltmp292:
	.loc	5 943 12 is_stmt 0              @ libraries/STM32H7xx_HAL/STM32H7xx_HAL_Driver/Src/stm32h7xx_hal_rcc.c:943:12
	cmp.w	r0, r1, lsr #25
	bne	.LBB2_34
	b	.LBB2_33
.LBB2_33:
	.loc	5 0 12                          @ libraries/STM32H7xx_HAL/STM32H7xx_HAL_Driver/Src/stm32h7xx_hal_rcc.c:0:12
	movs	r0, #1
.Ltmp293:
	.loc	5 945 11 is_stmt 1              @ libraries/STM32H7xx_HAL/STM32H7xx_HAL_Driver/Src/stm32h7xx_hal_rcc.c:945:11
	strb.w	r0, [sp, #23]
	b	.LBB2_75
.Ltmp294:
.LBB2_34:
	.loc	5 947 7                         @ libraries/STM32H7xx_HAL/STM32H7xx_HAL_Driver/Src/stm32h7xx_hal_rcc.c:947:7
	b	.LBB2_43
.Ltmp295:
.LBB2_35:
	.loc	5 949 15                        @ libraries/STM32H7xx_HAL/STM32H7xx_HAL_Driver/Src/stm32h7xx_hal_rcc.c:949:15
	ldr	r0, [sp, #16]
	.loc	5 949 34 is_stmt 0              @ libraries/STM32H7xx_HAL/STM32H7xx_HAL_Driver/Src/stm32h7xx_hal_rcc.c:949:34
	ldr	r0, [r0, #4]
.Ltmp296:
	.loc	5 949 15                        @ libraries/STM32H7xx_HAL/STM32H7xx_HAL_Driver/Src/stm32h7xx_hal_rcc.c:949:15
	cmp	r0, #1
	bne	.LBB2_39
	b	.LBB2_36
.LBB2_36:
	.loc	5 0 15                          @ libraries/STM32H7xx_HAL/STM32H7xx_HAL_Driver/Src/stm32h7xx_hal_rcc.c:0:15
	movw	r0, #17408
	movt	r0, #22530
.Ltmp297:
	.loc	5 952 12 is_stmt 1              @ libraries/STM32H7xx_HAL/STM32H7xx_HAL_Driver/Src/stm32h7xx_hal_rcc.c:952:12
	ldr	r0, [r0]
	and	r1, r0, #256
	movs	r0, #0
.Ltmp298:
	.loc	5 952 12 is_stmt 0              @ libraries/STM32H7xx_HAL/STM32H7xx_HAL_Driver/Src/stm32h7xx_hal_rcc.c:952:12
	cmp.w	r0, r1, lsr #8
	bne	.LBB2_38
	b	.LBB2_37
.LBB2_37:
	.loc	5 0 12                          @ libraries/STM32H7xx_HAL/STM32H7xx_HAL_Driver/Src/stm32h7xx_hal_rcc.c:0:12
	movs	r0, #1
.Ltmp299:
	.loc	5 954 11 is_stmt 1              @ libraries/STM32H7xx_HAL/STM32H7xx_HAL_Driver/Src/stm32h7xx_hal_rcc.c:954:11
	strb.w	r0, [sp, #23]
	b	.LBB2_75
.Ltmp300:
.LBB2_38:
	.loc	5 956 7                         @ libraries/STM32H7xx_HAL/STM32H7xx_HAL_Driver/Src/stm32h7xx_hal_rcc.c:956:7
	b	.LBB2_42
.Ltmp301:
.LBB2_39:
	.loc	5 0 7 is_stmt 0                 @ libraries/STM32H7xx_HAL/STM32H7xx_HAL_Driver/Src/stm32h7xx_hal_rcc.c:0:7
	movw	r0, #17408
	movt	r0, #22530
.Ltmp302:
	.loc	5 961 12 is_stmt 1              @ libraries/STM32H7xx_HAL/STM32H7xx_HAL_Driver/Src/stm32h7xx_hal_rcc.c:961:12
	ldr	r0, [r0]
	and	r1, r0, #4
	movs	r0, #0
.Ltmp303:
	.loc	5 961 12 is_stmt 0              @ libraries/STM32H7xx_HAL/STM32H7xx_HAL_Driver/Src/stm32h7xx_hal_rcc.c:961:12
	cmp.w	r0, r1, lsr #2
	bne	.LBB2_41
	b	.LBB2_40
.LBB2_40:
	.loc	5 0 12                          @ libraries/STM32H7xx_HAL/STM32H7xx_HAL_Driver/Src/stm32h7xx_hal_rcc.c:0:12
	movs	r0, #1
.Ltmp304:
	.loc	5 963 11 is_stmt 1              @ libraries/STM32H7xx_HAL/STM32H7xx_HAL_Driver/Src/stm32h7xx_hal_rcc.c:963:11
	strb.w	r0, [sp, #23]
	b	.LBB2_75
.Ltmp305:
.LBB2_41:
	.loc	5 0 11 is_stmt 0                @ libraries/STM32H7xx_HAL/STM32H7xx_HAL_Driver/Src/stm32h7xx_hal_rcc.c:0:11
	b	.LBB2_42
.LBB2_42:
	b	.LBB2_43
.LBB2_43:
	b	.LBB2_44
.LBB2_44:
	movw	r1, #17424
	movt	r1, #22530
	.loc	5 966 7 is_stmt 1               @ libraries/STM32H7xx_HAL/STM32H7xx_HAL_Driver/Src/stm32h7xx_hal_rcc.c:966:7
	ldr	r0, [r1]
	bic	r0, r0, #7
	ldr	r2, [sp, #16]
	ldr	r2, [r2, #4]
	orrs	r0, r2
	str	r0, [r1]
	.loc	5 969 19                        @ libraries/STM32H7xx_HAL/STM32H7xx_HAL_Driver/Src/stm32h7xx_hal_rcc.c:969:19
	bl	HAL_GetTick
	.loc	5 969 17 is_stmt 0              @ libraries/STM32H7xx_HAL/STM32H7xx_HAL_Driver/Src/stm32h7xx_hal_rcc.c:969:17
	str	r0, [sp, #4]
	.loc	5 971 9 is_stmt 1               @ libraries/STM32H7xx_HAL/STM32H7xx_HAL_Driver/Src/stm32h7xx_hal_rcc.c:971:9
	b	.LBB2_45
.LBB2_45:                               @ =>This Inner Loop Header: Depth=1
	.loc	5 0 9 is_stmt 0                 @ libraries/STM32H7xx_HAL/STM32H7xx_HAL_Driver/Src/stm32h7xx_hal_rcc.c:0:9
	movw	r0, #17424
	movt	r0, #22530
	.loc	5 971 16                        @ libraries/STM32H7xx_HAL/STM32H7xx_HAL_Driver/Src/stm32h7xx_hal_rcc.c:971:16
	ldr	r0, [r0]
	and	r0, r0, #56
	.loc	5 971 51                        @ libraries/STM32H7xx_HAL/STM32H7xx_HAL_Driver/Src/stm32h7xx_hal_rcc.c:971:51
	ldr	r1, [sp, #16]
	.loc	5 971 70                        @ libraries/STM32H7xx_HAL/STM32H7xx_HAL_Driver/Src/stm32h7xx_hal_rcc.c:971:70
	ldr	r1, [r1, #4]
	.loc	5 971 9                         @ libraries/STM32H7xx_HAL/STM32H7xx_HAL_Driver/Src/stm32h7xx_hal_rcc.c:971:9
	cmp.w	r0, r1, lsl #3
	beq	.LBB2_49
	b	.LBB2_46
.LBB2_46:                               @   in Loop: Header=BB2_45 Depth=1
.Ltmp306:
	.loc	5 973 15 is_stmt 1              @ libraries/STM32H7xx_HAL/STM32H7xx_HAL_Driver/Src/stm32h7xx_hal_rcc.c:973:15
	bl	HAL_GetTick
	.loc	5 973 31 is_stmt 0              @ libraries/STM32H7xx_HAL/STM32H7xx_HAL_Driver/Src/stm32h7xx_hal_rcc.c:973:31
	ldr	r1, [sp, #4]
	.loc	5 973 29                        @ libraries/STM32H7xx_HAL/STM32H7xx_HAL_Driver/Src/stm32h7xx_hal_rcc.c:973:29
	subs	r0, r0, r1
	movw	r1, #5001
.Ltmp307:
	.loc	5 973 14                        @ libraries/STM32H7xx_HAL/STM32H7xx_HAL_Driver/Src/stm32h7xx_hal_rcc.c:973:14
	cmp	r0, r1
	blo	.LBB2_48
	b	.LBB2_47
.LBB2_47:
	.loc	5 0 14                          @ libraries/STM32H7xx_HAL/STM32H7xx_HAL_Driver/Src/stm32h7xx_hal_rcc.c:0:14
	movs	r0, #3
.Ltmp308:
	.loc	5 975 13 is_stmt 1              @ libraries/STM32H7xx_HAL/STM32H7xx_HAL_Driver/Src/stm32h7xx_hal_rcc.c:975:13
	strb.w	r0, [sp, #23]
	b	.LBB2_75
.Ltmp309:
.LBB2_48:                               @   in Loop: Header=BB2_45 Depth=1
	.loc	5 971 9                         @ libraries/STM32H7xx_HAL/STM32H7xx_HAL_Driver/Src/stm32h7xx_hal_rcc.c:971:9
	b	.LBB2_45
.LBB2_49:
	.loc	5 979 5                         @ libraries/STM32H7xx_HAL/STM32H7xx_HAL_Driver/Src/stm32h7xx_hal_rcc.c:979:5
	b	.LBB2_50
.Ltmp310:
.LBB2_50:
	.loc	5 983 8                         @ libraries/STM32H7xx_HAL/STM32H7xx_HAL_Driver/Src/stm32h7xx_hal_rcc.c:983:8
	ldr	r0, [sp, #16]
.Ltmp311:
	.loc	5 983 6 is_stmt 0               @ libraries/STM32H7xx_HAL/STM32H7xx_HAL_Driver/Src/stm32h7xx_hal_rcc.c:983:6
	ldrb	r0, [r0]
	lsls	r0, r0, #30
	cmp	r0, #0
	bpl	.LBB2_54
	b	.LBB2_51
.LBB2_51:
.Ltmp312:
	.loc	5 985 9 is_stmt 1               @ libraries/STM32H7xx_HAL/STM32H7xx_HAL_Driver/Src/stm32h7xx_hal_rcc.c:985:9
	ldr	r0, [sp, #16]
	.loc	5 985 28 is_stmt 0              @ libraries/STM32H7xx_HAL/STM32H7xx_HAL_Driver/Src/stm32h7xx_hal_rcc.c:985:28
	ldr	r0, [r0, #12]
	movw	r1, #17432
	movt	r1, #22530
	.loc	5 985 51                        @ libraries/STM32H7xx_HAL/STM32H7xx_HAL_Driver/Src/stm32h7xx_hal_rcc.c:985:51
	ldr	r1, [r1]
	.loc	5 985 58                        @ libraries/STM32H7xx_HAL/STM32H7xx_HAL_Driver/Src/stm32h7xx_hal_rcc.c:985:58
	and	r1, r1, #15
.Ltmp313:
	.loc	5 985 8                         @ libraries/STM32H7xx_HAL/STM32H7xx_HAL_Driver/Src/stm32h7xx_hal_rcc.c:985:8
	cmp	r0, r1
	bhs	.LBB2_53
	b	.LBB2_52
.LBB2_52:
	.loc	5 0 8                           @ libraries/STM32H7xx_HAL/STM32H7xx_HAL_Driver/Src/stm32h7xx_hal_rcc.c:0:8
	movw	r1, #17432
	movt	r1, #22530
.Ltmp314:
	.loc	5 989 7 is_stmt 1               @ libraries/STM32H7xx_HAL/STM32H7xx_HAL_Driver/Src/stm32h7xx_hal_rcc.c:989:7
	ldr	r0, [r1]
	bic	r0, r0, #15
	ldr	r2, [sp, #16]
	ldr	r2, [r2, #12]
	orrs	r0, r2
	str	r0, [r1]
	.loc	5 990 5                         @ libraries/STM32H7xx_HAL/STM32H7xx_HAL_Driver/Src/stm32h7xx_hal_rcc.c:990:5
	b	.LBB2_53
.Ltmp315:
.LBB2_53:
	.loc	5 991 3                         @ libraries/STM32H7xx_HAL/STM32H7xx_HAL_Driver/Src/stm32h7xx_hal_rcc.c:991:3
	b	.LBB2_54
.Ltmp316:
.LBB2_54:
	.loc	5 994 6                         @ libraries/STM32H7xx_HAL/STM32H7xx_HAL_Driver/Src/stm32h7xx_hal_rcc.c:994:6
	ldr	r0, [sp, #12]
	movw	r1, #8192
	movt	r1, #20992
	.loc	5 994 17 is_stmt 0              @ libraries/STM32H7xx_HAL/STM32H7xx_HAL_Driver/Src/stm32h7xx_hal_rcc.c:994:17
	ldr	r1, [r1]
	and	r1, r1, #15
.Ltmp317:
	.loc	5 994 6                         @ libraries/STM32H7xx_HAL/STM32H7xx_HAL_Driver/Src/stm32h7xx_hal_rcc.c:994:6
	cmp	r0, r1
	bhs	.LBB2_58
	b	.LBB2_55
.LBB2_55:
	.loc	5 0 6                           @ libraries/STM32H7xx_HAL/STM32H7xx_HAL_Driver/Src/stm32h7xx_hal_rcc.c:0:6
	movw	r0, #8192
	movt	r0, #20992
.Ltmp318:
	.loc	5 997 5 is_stmt 1               @ libraries/STM32H7xx_HAL/STM32H7xx_HAL_Driver/Src/stm32h7xx_hal_rcc.c:997:5
	ldr	r1, [r0]
	bic	r1, r1, #15
	ldr	r2, [sp, #12]
	orrs	r1, r2
	str	r1, [r0]
.Ltmp319:
	.loc	5 1001 8                        @ libraries/STM32H7xx_HAL/STM32H7xx_HAL_Driver/Src/stm32h7xx_hal_rcc.c:1001:8
	ldr	r0, [r0]
	and	r0, r0, #15
	.loc	5 1001 37 is_stmt 0             @ libraries/STM32H7xx_HAL/STM32H7xx_HAL_Driver/Src/stm32h7xx_hal_rcc.c:1001:37
	ldr	r1, [sp, #12]
.Ltmp320:
	.loc	5 1001 8                        @ libraries/STM32H7xx_HAL/STM32H7xx_HAL_Driver/Src/stm32h7xx_hal_rcc.c:1001:8
	cmp	r0, r1
	beq	.LBB2_57
	b	.LBB2_56
.LBB2_56:
	.loc	5 0 8                           @ libraries/STM32H7xx_HAL/STM32H7xx_HAL_Driver/Src/stm32h7xx_hal_rcc.c:0:8
	movs	r0, #1
.Ltmp321:
	.loc	5 1003 7 is_stmt 1              @ libraries/STM32H7xx_HAL/STM32H7xx_HAL_Driver/Src/stm32h7xx_hal_rcc.c:1003:7
	strb.w	r0, [sp, #23]
	b	.LBB2_75
.Ltmp322:
.LBB2_57:
	.loc	5 1005 2                        @ libraries/STM32H7xx_HAL/STM32H7xx_HAL_Driver/Src/stm32h7xx_hal_rcc.c:1005:2
	b	.LBB2_58
.Ltmp323:
.LBB2_58:
	.loc	5 1008 7                        @ libraries/STM32H7xx_HAL/STM32H7xx_HAL_Driver/Src/stm32h7xx_hal_rcc.c:1008:7
	ldr	r0, [sp, #16]
.Ltmp324:
	.loc	5 1008 5 is_stmt 0              @ libraries/STM32H7xx_HAL/STM32H7xx_HAL_Driver/Src/stm32h7xx_hal_rcc.c:1008:5
	ldrb	r0, [r0]
	lsls	r0, r0, #29
	cmp	r0, #0
	bpl	.LBB2_62
	b	.LBB2_59
.LBB2_59:
.Ltmp325:
	.loc	5 1010 8 is_stmt 1              @ libraries/STM32H7xx_HAL/STM32H7xx_HAL_Driver/Src/stm32h7xx_hal_rcc.c:1010:8
	ldr	r0, [sp, #16]
	.loc	5 1010 27 is_stmt 0             @ libraries/STM32H7xx_HAL/STM32H7xx_HAL_Driver/Src/stm32h7xx_hal_rcc.c:1010:27
	ldr	r0, [r0, #16]
	movw	r1, #17432
	movt	r1, #22530
	.loc	5 1010 51                       @ libraries/STM32H7xx_HAL/STM32H7xx_HAL_Driver/Src/stm32h7xx_hal_rcc.c:1010:51
	ldr	r1, [r1]
	.loc	5 1010 58                       @ libraries/STM32H7xx_HAL/STM32H7xx_HAL_Driver/Src/stm32h7xx_hal_rcc.c:1010:58
	and	r1, r1, #112
.Ltmp326:
	.loc	5 1010 7                        @ libraries/STM32H7xx_HAL/STM32H7xx_HAL_Driver/Src/stm32h7xx_hal_rcc.c:1010:7
	cmp	r0, r1
	bhs	.LBB2_61
	b	.LBB2_60
.LBB2_60:
	.loc	5 0 7                           @ libraries/STM32H7xx_HAL/STM32H7xx_HAL_Driver/Src/stm32h7xx_hal_rcc.c:0:7
	movw	r1, #17432
	movt	r1, #22530
.Ltmp327:
	.loc	5 1013 6 is_stmt 1              @ libraries/STM32H7xx_HAL/STM32H7xx_HAL_Driver/Src/stm32h7xx_hal_rcc.c:1013:6
	ldr	r0, [r1]
	bic	r0, r0, #112
	ldr	r2, [sp, #16]
	ldr	r2, [r2, #16]
	orrs	r0, r2
	str	r0, [r1]
	.loc	5 1014 4                        @ libraries/STM32H7xx_HAL/STM32H7xx_HAL_Driver/Src/stm32h7xx_hal_rcc.c:1014:4
	b	.LBB2_61
.Ltmp328:
.LBB2_61:
	.loc	5 1015 2                        @ libraries/STM32H7xx_HAL/STM32H7xx_HAL_Driver/Src/stm32h7xx_hal_rcc.c:1015:2
	b	.LBB2_62
.Ltmp329:
.LBB2_62:
	.loc	5 1018 7                        @ libraries/STM32H7xx_HAL/STM32H7xx_HAL_Driver/Src/stm32h7xx_hal_rcc.c:1018:7
	ldr	r0, [sp, #16]
.Ltmp330:
	.loc	5 1018 5 is_stmt 0              @ libraries/STM32H7xx_HAL/STM32H7xx_HAL_Driver/Src/stm32h7xx_hal_rcc.c:1018:5
	ldrb	r0, [r0]
	lsls	r0, r0, #28
	cmp	r0, #0
	bpl	.LBB2_66
	b	.LBB2_63
.LBB2_63:
.Ltmp331:
	.loc	5 1020 8 is_stmt 1              @ libraries/STM32H7xx_HAL/STM32H7xx_HAL_Driver/Src/stm32h7xx_hal_rcc.c:1020:8
	ldr	r0, [sp, #16]
	.loc	5 1020 27 is_stmt 0             @ libraries/STM32H7xx_HAL/STM32H7xx_HAL_Driver/Src/stm32h7xx_hal_rcc.c:1020:27
	ldr	r0, [r0, #20]
	movw	r1, #17436
	movt	r1, #22530
	.loc	5 1020 51                       @ libraries/STM32H7xx_HAL/STM32H7xx_HAL_Driver/Src/stm32h7xx_hal_rcc.c:1020:51
	ldr	r1, [r1]
	.loc	5 1020 58                       @ libraries/STM32H7xx_HAL/STM32H7xx_HAL_Driver/Src/stm32h7xx_hal_rcc.c:1020:58
	and	r1, r1, #112
.Ltmp332:
	.loc	5 1020 7                        @ libraries/STM32H7xx_HAL/STM32H7xx_HAL_Driver/Src/stm32h7xx_hal_rcc.c:1020:7
	cmp	r0, r1
	bhs	.LBB2_65
	b	.LBB2_64
.LBB2_64:
	.loc	5 0 7                           @ libraries/STM32H7xx_HAL/STM32H7xx_HAL_Driver/Src/stm32h7xx_hal_rcc.c:0:7
	movw	r1, #17436
	movt	r1, #22530
.Ltmp333:
	.loc	5 1023 6 is_stmt 1              @ libraries/STM32H7xx_HAL/STM32H7xx_HAL_Driver/Src/stm32h7xx_hal_rcc.c:1023:6
	ldr	r0, [r1]
	bic	r0, r0, #112
	ldr	r2, [sp, #16]
	ldr	r2, [r2, #20]
	orrs	r0, r2
	str	r0, [r1]
	.loc	5 1024 4                        @ libraries/STM32H7xx_HAL/STM32H7xx_HAL_Driver/Src/stm32h7xx_hal_rcc.c:1024:4
	b	.LBB2_65
.Ltmp334:
.LBB2_65:
	.loc	5 1025 2                        @ libraries/STM32H7xx_HAL/STM32H7xx_HAL_Driver/Src/stm32h7xx_hal_rcc.c:1025:2
	b	.LBB2_66
.Ltmp335:
.LBB2_66:
	.loc	5 1028 7                        @ libraries/STM32H7xx_HAL/STM32H7xx_HAL_Driver/Src/stm32h7xx_hal_rcc.c:1028:7
	ldr	r0, [sp, #16]
.Ltmp336:
	.loc	5 1028 5 is_stmt 0              @ libraries/STM32H7xx_HAL/STM32H7xx_HAL_Driver/Src/stm32h7xx_hal_rcc.c:1028:5
	ldrb	r0, [r0]
	lsls	r0, r0, #27
	cmp	r0, #0
	bpl	.LBB2_70
	b	.LBB2_67
.LBB2_67:
.Ltmp337:
	.loc	5 1030 8 is_stmt 1              @ libraries/STM32H7xx_HAL/STM32H7xx_HAL_Driver/Src/stm32h7xx_hal_rcc.c:1030:8
	ldr	r0, [sp, #16]
	.loc	5 1030 27 is_stmt 0             @ libraries/STM32H7xx_HAL/STM32H7xx_HAL_Driver/Src/stm32h7xx_hal_rcc.c:1030:27
	ldr	r0, [r0, #24]
	movw	r1, #17436
	movt	r1, #22530
	.loc	5 1030 51                       @ libraries/STM32H7xx_HAL/STM32H7xx_HAL_Driver/Src/stm32h7xx_hal_rcc.c:1030:51
	ldr	r1, [r1]
	.loc	5 1030 58                       @ libraries/STM32H7xx_HAL/STM32H7xx_HAL_Driver/Src/stm32h7xx_hal_rcc.c:1030:58
	and	r1, r1, #1792
.Ltmp338:
	.loc	5 1030 7                        @ libraries/STM32H7xx_HAL/STM32H7xx_HAL_Driver/Src/stm32h7xx_hal_rcc.c:1030:7
	cmp	r0, r1
	bhs	.LBB2_69
	b	.LBB2_68
.LBB2_68:
	.loc	5 0 7                           @ libraries/STM32H7xx_HAL/STM32H7xx_HAL_Driver/Src/stm32h7xx_hal_rcc.c:0:7
	movw	r1, #17436
	movt	r1, #22530
.Ltmp339:
	.loc	5 1033 6 is_stmt 1              @ libraries/STM32H7xx_HAL/STM32H7xx_HAL_Driver/Src/stm32h7xx_hal_rcc.c:1033:6
	ldr	r0, [r1]
	bic	r0, r0, #1792
	ldr	r2, [sp, #16]
	ldr	r2, [r2, #24]
	orrs	r0, r2
	str	r0, [r1]
	.loc	5 1034 4                        @ libraries/STM32H7xx_HAL/STM32H7xx_HAL_Driver/Src/stm32h7xx_hal_rcc.c:1034:4
	b	.LBB2_69
.Ltmp340:
.LBB2_69:
	.loc	5 1035 2                        @ libraries/STM32H7xx_HAL/STM32H7xx_HAL_Driver/Src/stm32h7xx_hal_rcc.c:1035:2
	b	.LBB2_70
.Ltmp341:
.LBB2_70:
	.loc	5 1038 7                        @ libraries/STM32H7xx_HAL/STM32H7xx_HAL_Driver/Src/stm32h7xx_hal_rcc.c:1038:7
	ldr	r0, [sp, #16]
.Ltmp342:
	.loc	5 1038 5 is_stmt 0              @ libraries/STM32H7xx_HAL/STM32H7xx_HAL_Driver/Src/stm32h7xx_hal_rcc.c:1038:5
	ldrb	r0, [r0]
	lsls	r0, r0, #26
	cmp	r0, #0
	bpl	.LBB2_74
	b	.LBB2_71
.LBB2_71:
.Ltmp343:
	.loc	5 1040 8 is_stmt 1              @ libraries/STM32H7xx_HAL/STM32H7xx_HAL_Driver/Src/stm32h7xx_hal_rcc.c:1040:8
	ldr	r0, [sp, #16]
	.loc	5 1040 27 is_stmt 0             @ libraries/STM32H7xx_HAL/STM32H7xx_HAL_Driver/Src/stm32h7xx_hal_rcc.c:1040:27
	ldr	r0, [r0, #28]
	movw	r1, #17440
	movt	r1, #22530
	.loc	5 1040 51                       @ libraries/STM32H7xx_HAL/STM32H7xx_HAL_Driver/Src/stm32h7xx_hal_rcc.c:1040:51
	ldr	r1, [r1]
	.loc	5 1040 58                       @ libraries/STM32H7xx_HAL/STM32H7xx_HAL_Driver/Src/stm32h7xx_hal_rcc.c:1040:58
	and	r1, r1, #112
.Ltmp344:
	.loc	5 1040 7                        @ libraries/STM32H7xx_HAL/STM32H7xx_HAL_Driver/Src/stm32h7xx_hal_rcc.c:1040:7
	cmp	r0, r1
	bhs	.LBB2_73
	b	.LBB2_72
.LBB2_72:
	.loc	5 0 7                           @ libraries/STM32H7xx_HAL/STM32H7xx_HAL_Driver/Src/stm32h7xx_hal_rcc.c:0:7
	movw	r1, #17440
	movt	r1, #22530
.Ltmp345:
	.loc	5 1043 6 is_stmt 1              @ libraries/STM32H7xx_HAL/STM32H7xx_HAL_Driver/Src/stm32h7xx_hal_rcc.c:1043:6
	ldr	r0, [r1]
	bic	r0, r0, #112
	ldr	r2, [sp, #16]
	ldr	r2, [r2, #28]
	orrs	r0, r2
	str	r0, [r1]
	.loc	5 1044 4                        @ libraries/STM32H7xx_HAL/STM32H7xx_HAL_Driver/Src/stm32h7xx_hal_rcc.c:1044:4
	b	.LBB2_73
.Ltmp346:
.LBB2_73:
	.loc	5 1045 2                        @ libraries/STM32H7xx_HAL/STM32H7xx_HAL_Driver/Src/stm32h7xx_hal_rcc.c:1045:2
	b	.LBB2_74
.Ltmp347:
.LBB2_74:
	.loc	5 1048 21                       @ libraries/STM32H7xx_HAL/STM32H7xx_HAL_Driver/Src/stm32h7xx_hal_rcc.c:1048:21
	bl	HAL_RCC_GetSysClockFreq
	movw	r1, #17432
	movt	r1, #22530
	.loc	5 1048 75 is_stmt 0             @ libraries/STM32H7xx_HAL/STM32H7xx_HAL_Driver/Src/stm32h7xx_hal_rcc.c:1048:75
	ldr	r1, [r1]
	.loc	5 1048 102                      @ libraries/STM32H7xx_HAL/STM32H7xx_HAL_Driver/Src/stm32h7xx_hal_rcc.c:1048:102
	ubfx	r2, r1, #8, #4
	.loc	5 1048 52                       @ libraries/STM32H7xx_HAL/STM32H7xx_HAL_Driver/Src/stm32h7xx_hal_rcc.c:1048:52
	movw	r1, :lower16:D1CorePrescTable
	movt	r1, :upper16:D1CorePrescTable
	.loc	5 1048 51                       @ libraries/STM32H7xx_HAL/STM32H7xx_HAL_Driver/Src/stm32h7xx_hal_rcc.c:1048:51
	ldrb	r1, [r1, r2]
	.loc	5 1048 129                      @ libraries/STM32H7xx_HAL/STM32H7xx_HAL_Driver/Src/stm32h7xx_hal_rcc.c:1048:129
	and	r1, r1, #31
	.loc	5 1048 47                       @ libraries/STM32H7xx_HAL/STM32H7xx_HAL_Driver/Src/stm32h7xx_hal_rcc.c:1048:47
	lsrs	r0, r1
	.loc	5 1048 19                       @ libraries/STM32H7xx_HAL/STM32H7xx_HAL_Driver/Src/stm32h7xx_hal_rcc.c:1048:19
	movw	r1, :lower16:SystemCoreClock
	movt	r1, :upper16:SystemCoreClock
	str	r0, [r1]
	.loc	5 1051 29 is_stmt 1             @ libraries/STM32H7xx_HAL/STM32H7xx_HAL_Driver/Src/stm32h7xx_hal_rcc.c:1051:29
	movw	r0, :lower16:uwTickPrio
	movt	r0, :upper16:uwTickPrio
	ldr	r0, [r0]
	.loc	5 1051 15 is_stmt 0             @ libraries/STM32H7xx_HAL/STM32H7xx_HAL_Driver/Src/stm32h7xx_hal_rcc.c:1051:15
	bl	HAL_InitTick
	.loc	5 1051 13                       @ libraries/STM32H7xx_HAL/STM32H7xx_HAL_Driver/Src/stm32h7xx_hal_rcc.c:1051:13
	strb.w	r0, [sp, #11]
	.loc	5 1053 10 is_stmt 1             @ libraries/STM32H7xx_HAL/STM32H7xx_HAL_Driver/Src/stm32h7xx_hal_rcc.c:1053:10
	ldrb.w	r0, [sp, #11]
	.loc	5 1053 3 is_stmt 0              @ libraries/STM32H7xx_HAL/STM32H7xx_HAL_Driver/Src/stm32h7xx_hal_rcc.c:1053:3
	strb.w	r0, [sp, #23]
	b	.LBB2_75
.LBB2_75:
	.loc	5 1054 1 is_stmt 1              @ libraries/STM32H7xx_HAL/STM32H7xx_HAL_Driver/Src/stm32h7xx_hal_rcc.c:1054:1
	ldrb.w	r0, [sp, #23]
	add	sp, #24
	pop	{r7, pc}
.Ltmp348:
.Lfunc_end2:
	.size	HAL_RCC_ClockConfig, .Lfunc_end2-HAL_RCC_ClockConfig
	.cfi_endproc
	.cantunwind
	.fnend
                                        @ -- End function
	.section	.text.HAL_RCC_GetSysClockFreq,"ax",%progbits
	.hidden	HAL_RCC_GetSysClockFreq         @ -- Begin function HAL_RCC_GetSysClockFreq
	.globl	HAL_RCC_GetSysClockFreq
	.p2align	3
	.type	HAL_RCC_GetSysClockFreq,%function
	.code	16                              @ @HAL_RCC_GetSysClockFreq
	.thumb_func
HAL_RCC_GetSysClockFreq:
.Lfunc_begin3:
	.loc	5 1203 0                        @ libraries/STM32H7xx_HAL/STM32H7xx_HAL_Driver/Src/stm32h7xx_hal_rcc.c:1203:0
	.fnstart
	.cfi_startproc
@ %bb.0:
	.pad	#40
	sub	sp, #40
	.cfi_def_cfa_offset 40
	movw	r0, #17424
	movt	r0, #22530
.Ltmp349:
	.loc	5 1210 16 prologue_end          @ libraries/STM32H7xx_HAL/STM32H7xx_HAL_Driver/Src/stm32h7xx_hal_rcc.c:1210:16
	ldr	r0, [r0]
	.loc	5 1210 21 is_stmt 0             @ libraries/STM32H7xx_HAL/STM32H7xx_HAL_Driver/Src/stm32h7xx_hal_rcc.c:1210:21
	and	r0, r0, #56
	.loc	5 1210 3                        @ libraries/STM32H7xx_HAL/STM32H7xx_HAL_Driver/Src/stm32h7xx_hal_rcc.c:1210:3
	mov	r1, r0
	str	r1, [sp, #4]                    @ 4-byte Spill
	cmp	r0, #24
	bhi.w	.LBB3_23
@ %bb.1:
	.loc	5 0 3                           @ libraries/STM32H7xx_HAL/STM32H7xx_HAL_Driver/Src/stm32h7xx_hal_rcc.c:0:3
	ldr	r1, [sp, #4]                    @ 4-byte Reload
.LCPI3_4:
	tbh	[pc, r1, lsl #1]
@ %bb.2:
.LJTI3_0:
	.short	(.LBB3_3-(.LCPI3_4+4))/2
	.short	(.LBB3_23-(.LCPI3_4+4))/2
	.short	(.LBB3_23-(.LCPI3_4+4))/2
	.short	(.LBB3_23-(.LCPI3_4+4))/2
	.short	(.LBB3_23-(.LCPI3_4+4))/2
	.short	(.LBB3_23-(.LCPI3_4+4))/2
	.short	(.LBB3_23-(.LCPI3_4+4))/2
	.short	(.LBB3_23-(.LCPI3_4+4))/2
	.short	(.LBB3_7-(.LCPI3_4+4))/2
	.short	(.LBB3_23-(.LCPI3_4+4))/2
	.short	(.LBB3_23-(.LCPI3_4+4))/2
	.short	(.LBB3_23-(.LCPI3_4+4))/2
	.short	(.LBB3_23-(.LCPI3_4+4))/2
	.short	(.LBB3_23-(.LCPI3_4+4))/2
	.short	(.LBB3_23-(.LCPI3_4+4))/2
	.short	(.LBB3_23-(.LCPI3_4+4))/2
	.short	(.LBB3_8-(.LCPI3_4+4))/2
	.short	(.LBB3_23-(.LCPI3_4+4))/2
	.short	(.LBB3_23-(.LCPI3_4+4))/2
	.short	(.LBB3_23-(.LCPI3_4+4))/2
	.short	(.LBB3_23-(.LCPI3_4+4))/2
	.short	(.LBB3_23-(.LCPI3_4+4))/2
	.short	(.LBB3_23-(.LCPI3_4+4))/2
	.short	(.LBB3_23-(.LCPI3_4+4))/2
	.short	(.LBB3_9-(.LCPI3_4+4))/2
	.p2align	1
.LBB3_3:
	movw	r0, #17408
	movt	r0, #22530
.Ltmp350:
	.loc	5 1214 8 is_stmt 1              @ libraries/STM32H7xx_HAL/STM32H7xx_HAL_Driver/Src/stm32h7xx_hal_rcc.c:1214:8
	ldr	r0, [r0]
	and	r1, r0, #32
	movs	r0, #0
.Ltmp351:
	.loc	5 1214 8 is_stmt 0              @ libraries/STM32H7xx_HAL/STM32H7xx_HAL_Driver/Src/stm32h7xx_hal_rcc.c:1214:8
	cmp.w	r0, r1, lsr #5
	beq	.LBB3_5
	b	.LBB3_4
.LBB3_4:
	.loc	5 0 8                           @ libraries/STM32H7xx_HAL/STM32H7xx_HAL_Driver/Src/stm32h7xx_hal_rcc.c:0:8
	movw	r0, #17408
	movt	r0, #22530
.Ltmp352:
	.loc	5 1216 50 is_stmt 1             @ libraries/STM32H7xx_HAL/STM32H7xx_HAL_Driver/Src/stm32h7xx_hal_rcc.c:1216:50
	ldr	r0, [r0]
	.loc	5 1216 77 is_stmt 0             @ libraries/STM32H7xx_HAL/STM32H7xx_HAL_Driver/Src/stm32h7xx_hal_rcc.c:1216:77
	ubfx	r1, r0, #3, #2
	movw	r0, #36864
	movt	r0, #976
	.loc	5 1216 46                       @ libraries/STM32H7xx_HAL/STM32H7xx_HAL_Driver/Src/stm32h7xx_hal_rcc.c:1216:46
	lsrs	r0, r1
	.loc	5 1216 22                       @ libraries/STM32H7xx_HAL/STM32H7xx_HAL_Driver/Src/stm32h7xx_hal_rcc.c:1216:22
	str	r0, [sp, #8]
	.loc	5 1217 7 is_stmt 1              @ libraries/STM32H7xx_HAL/STM32H7xx_HAL_Driver/Src/stm32h7xx_hal_rcc.c:1217:7
	b	.LBB3_6
.Ltmp353:
.LBB3_5:
	.loc	5 0 7 is_stmt 0                 @ libraries/STM32H7xx_HAL/STM32H7xx_HAL_Driver/Src/stm32h7xx_hal_rcc.c:0:7
	movw	r0, #36864
	movt	r0, #976
.Ltmp354:
	.loc	5 1220 22 is_stmt 1             @ libraries/STM32H7xx_HAL/STM32H7xx_HAL_Driver/Src/stm32h7xx_hal_rcc.c:1220:22
	str	r0, [sp, #8]
	b	.LBB3_6
.Ltmp355:
.LBB3_6:
	.loc	5 1223 5                        @ libraries/STM32H7xx_HAL/STM32H7xx_HAL_Driver/Src/stm32h7xx_hal_rcc.c:1223:5
	b	.LBB3_24
.LBB3_7:
	.loc	5 0 5 is_stmt 0                 @ libraries/STM32H7xx_HAL/STM32H7xx_HAL_Driver/Src/stm32h7xx_hal_rcc.c:0:5
	movw	r0, #2304
	movt	r0, #61
	.loc	5 1226 18 is_stmt 1             @ libraries/STM32H7xx_HAL/STM32H7xx_HAL_Driver/Src/stm32h7xx_hal_rcc.c:1226:18
	str	r0, [sp, #8]
	.loc	5 1227 5                        @ libraries/STM32H7xx_HAL/STM32H7xx_HAL_Driver/Src/stm32h7xx_hal_rcc.c:1227:5
	b	.LBB3_24
.LBB3_8:
	.loc	5 0 5 is_stmt 0                 @ libraries/STM32H7xx_HAL/STM32H7xx_HAL_Driver/Src/stm32h7xx_hal_rcc.c:0:5
	movw	r0, #30784
	movt	r0, #381
	.loc	5 1230 18 is_stmt 1             @ libraries/STM32H7xx_HAL/STM32H7xx_HAL_Driver/Src/stm32h7xx_hal_rcc.c:1230:18
	str	r0, [sp, #8]
	.loc	5 1231 5                        @ libraries/STM32H7xx_HAL/STM32H7xx_HAL_Driver/Src/stm32h7xx_hal_rcc.c:1231:5
	b	.LBB3_24
.LBB3_9:
	.loc	5 0 5 is_stmt 0                 @ libraries/STM32H7xx_HAL/STM32H7xx_HAL_Driver/Src/stm32h7xx_hal_rcc.c:0:5
	movw	r0, #17448
	movt	r0, #22530
	.loc	5 1238 23 is_stmt 1             @ libraries/STM32H7xx_HAL/STM32H7xx_HAL_Driver/Src/stm32h7xx_hal_rcc.c:1238:23
	ldr	r1, [r0]
	.loc	5 1238 33 is_stmt 0             @ libraries/STM32H7xx_HAL/STM32H7xx_HAL_Driver/Src/stm32h7xx_hal_rcc.c:1238:33
	and	r1, r1, #3
	.loc	5 1238 15                       @ libraries/STM32H7xx_HAL/STM32H7xx_HAL_Driver/Src/stm32h7xx_hal_rcc.c:1238:15
	str	r1, [sp, #32]
	.loc	5 1239 19 is_stmt 1             @ libraries/STM32H7xx_HAL/STM32H7xx_HAL_Driver/Src/stm32h7xx_hal_rcc.c:1239:19
	ldr	r0, [r0]
	.loc	5 1239 51 is_stmt 0             @ libraries/STM32H7xx_HAL/STM32H7xx_HAL_Driver/Src/stm32h7xx_hal_rcc.c:1239:51
	ubfx	r0, r0, #4, #6
	.loc	5 1239 10                       @ libraries/STM32H7xx_HAL/STM32H7xx_HAL_Driver/Src/stm32h7xx_hal_rcc.c:1239:10
	str	r0, [sp, #28]
	movw	r0, #17452
	movt	r0, #22530
	.loc	5 1240 25 is_stmt 1             @ libraries/STM32H7xx_HAL/STM32H7xx_HAL_Driver/Src/stm32h7xx_hal_rcc.c:1240:25
	ldr	r0, [r0]
	.loc	5 1240 33 is_stmt 0             @ libraries/STM32H7xx_HAL/STM32H7xx_HAL_Driver/Src/stm32h7xx_hal_rcc.c:1240:33
	and	r0, r0, #1
	.loc	5 1240 15                       @ libraries/STM32H7xx_HAL/STM32H7xx_HAL_Driver/Src/stm32h7xx_hal_rcc.c:1240:15
	str	r0, [sp, #24]
	.loc	5 1241 34 is_stmt 1             @ libraries/STM32H7xx_HAL/STM32H7xx_HAL_Driver/Src/stm32h7xx_hal_rcc.c:1241:34
	ldr	r0, [sp, #24]
	movw	r1, #17460
	movt	r1, #22530
	.loc	5 1241 52 is_stmt 0             @ libraries/STM32H7xx_HAL/STM32H7xx_HAL_Driver/Src/stm32h7xx_hal_rcc.c:1241:52
	ldr	r1, [r1]
	.loc	5 1241 62                       @ libraries/STM32H7xx_HAL/STM32H7xx_HAL_Driver/Src/stm32h7xx_hal_rcc.c:1241:62
	uxth	r1, r1
	.loc	5 1241 85                       @ libraries/STM32H7xx_HAL/STM32H7xx_HAL_Driver/Src/stm32h7xx_hal_rcc.c:1241:85
	lsrs	r1, r1, #3
	.loc	5 1241 43                       @ libraries/STM32H7xx_HAL/STM32H7xx_HAL_Driver/Src/stm32h7xx_hal_rcc.c:1241:43
	muls	r0, r1, r0
	.loc	5 1241 14                       @ libraries/STM32H7xx_HAL/STM32H7xx_HAL_Driver/Src/stm32h7xx_hal_rcc.c:1241:14
	vmov	s0, r0
	vcvt.f32.u32	s0, s0
	.loc	5 1241 12                       @ libraries/STM32H7xx_HAL/STM32H7xx_HAL_Driver/Src/stm32h7xx_hal_rcc.c:1241:12
	vstr	s0, [sp, #16]
.Ltmp356:
	.loc	5 1243 9 is_stmt 1              @ libraries/STM32H7xx_HAL/STM32H7xx_HAL_Driver/Src/stm32h7xx_hal_rcc.c:1243:9
	ldr	r0, [sp, #28]
.Ltmp357:
	.loc	5 1243 9 is_stmt 0              @ libraries/STM32H7xx_HAL/STM32H7xx_HAL_Driver/Src/stm32h7xx_hal_rcc.c:1243:9
	cmp	r0, #0
	beq.w	.LBB3_21
	b	.LBB3_10
.LBB3_10:
.Ltmp358:
	.loc	5 1245 15 is_stmt 1             @ libraries/STM32H7xx_HAL/STM32H7xx_HAL_Driver/Src/stm32h7xx_hal_rcc.c:1245:15
	ldr	r0, [sp, #32]
	.loc	5 1245 7 is_stmt 0              @ libraries/STM32H7xx_HAL/STM32H7xx_HAL_Driver/Src/stm32h7xx_hal_rcc.c:1245:7
	str	r0, [sp]                        @ 4-byte Spill
	cbz	r0, .LBB3_13
	b	.LBB3_11
.LBB3_11:
	ldr	r0, [sp]                        @ 4-byte Reload
	cmp	r0, #1
	beq	.LBB3_17
	b	.LBB3_12
.LBB3_12:
	ldr	r0, [sp]                        @ 4-byte Reload
	cmp	r0, #2
	beq.w	.LBB3_18
	b	.LBB3_19
.LBB3_13:
	.loc	5 0 7                           @ libraries/STM32H7xx_HAL/STM32H7xx_HAL_Driver/Src/stm32h7xx_hal_rcc.c:0:7
	movw	r0, #17408
	movt	r0, #22530
.Ltmp359:
	.loc	5 1249 12 is_stmt 1             @ libraries/STM32H7xx_HAL/STM32H7xx_HAL_Driver/Src/stm32h7xx_hal_rcc.c:1249:12
	ldr	r0, [r0]
	and	r1, r0, #32
	movs	r0, #0
.Ltmp360:
	.loc	5 1249 12 is_stmt 0             @ libraries/STM32H7xx_HAL/STM32H7xx_HAL_Driver/Src/stm32h7xx_hal_rcc.c:1249:12
	cmp.w	r0, r1, lsr #5
	beq	.LBB3_15
	b	.LBB3_14
.LBB3_14:
	.loc	5 0 12                          @ libraries/STM32H7xx_HAL/STM32H7xx_HAL_Driver/Src/stm32h7xx_hal_rcc.c:0:12
	movw	r0, #17408
	movt	r0, #22530
.Ltmp361:
	.loc	5 1251 36 is_stmt 1             @ libraries/STM32H7xx_HAL/STM32H7xx_HAL_Driver/Src/stm32h7xx_hal_rcc.c:1251:36
	ldr	r0, [r0]
	.loc	5 1251 63 is_stmt 0             @ libraries/STM32H7xx_HAL/STM32H7xx_HAL_Driver/Src/stm32h7xx_hal_rcc.c:1251:63
	ubfx	r1, r0, #3, #2
	movw	r0, #36864
	movt	r0, #976
	.loc	5 1251 32                       @ libraries/STM32H7xx_HAL/STM32H7xx_HAL_Driver/Src/stm32h7xx_hal_rcc.c:1251:32
	lsrs	r0, r1
	.loc	5 1251 19                       @ libraries/STM32H7xx_HAL/STM32H7xx_HAL_Driver/Src/stm32h7xx_hal_rcc.c:1251:19
	str	r0, [sp, #20]
	.loc	5 1252 22 is_stmt 1             @ libraries/STM32H7xx_HAL/STM32H7xx_HAL_Driver/Src/stm32h7xx_hal_rcc.c:1252:22
	vldr	s0, [sp, #20]
	vcvt.f32.u32	s0, s0
	.loc	5 1252 42 is_stmt 0             @ libraries/STM32H7xx_HAL/STM32H7xx_HAL_Driver/Src/stm32h7xx_hal_rcc.c:1252:42
	vldr	s2, [sp, #28]
	vcvt.f32.u32	s2, s2
	.loc	5 1252 40                       @ libraries/STM32H7xx_HAL/STM32H7xx_HAL_Driver/Src/stm32h7xx_hal_rcc.c:1252:40
	vdiv.f32	s0, s0, s2
	movw	r0, #17456
	movt	r0, #22530
	.loc	5 1252 85                       @ libraries/STM32H7xx_HAL/STM32H7xx_HAL_Driver/Src/stm32h7xx_hal_rcc.c:1252:85
	ldr	r0, [r0]
	.loc	5 1252 94                       @ libraries/STM32H7xx_HAL/STM32H7xx_HAL_Driver/Src/stm32h7xx_hal_rcc.c:1252:94
	bfc	r0, #9, #23
	.loc	5 1252 60                       @ libraries/STM32H7xx_HAL/STM32H7xx_HAL_Driver/Src/stm32h7xx_hal_rcc.c:1252:60
	vmov	s2, r0
	vcvt.f32.u32	s2, s2
	.loc	5 1252 116                      @ libraries/STM32H7xx_HAL/STM32H7xx_HAL_Driver/Src/stm32h7xx_hal_rcc.c:1252:116
	vldr	s4, [sp, #16]
	vldr	s6, .LCPI3_1
	.loc	5 1252 122                      @ libraries/STM32H7xx_HAL/STM32H7xx_HAL_Driver/Src/stm32h7xx_hal_rcc.c:1252:122
	vdiv.f32	s4, s4, s6
	.loc	5 1252 113                      @ libraries/STM32H7xx_HAL/STM32H7xx_HAL_Driver/Src/stm32h7xx_hal_rcc.c:1252:113
	vadd.f32	s2, s2, s4
	vmov.f32	s4, #1.000000e+00
	.loc	5 1252 140                      @ libraries/STM32H7xx_HAL/STM32H7xx_HAL_Driver/Src/stm32h7xx_hal_rcc.c:1252:140
	vadd.f32	s2, s2, s4
	.loc	5 1252 57                       @ libraries/STM32H7xx_HAL/STM32H7xx_HAL_Driver/Src/stm32h7xx_hal_rcc.c:1252:57
	vmul.f32	s0, s0, s2
	.loc	5 1252 18                       @ libraries/STM32H7xx_HAL/STM32H7xx_HAL_Driver/Src/stm32h7xx_hal_rcc.c:1252:18
	vstr	s0, [sp, #12]
	.loc	5 1253 9 is_stmt 1              @ libraries/STM32H7xx_HAL/STM32H7xx_HAL_Driver/Src/stm32h7xx_hal_rcc.c:1253:9
	b	.LBB3_16
.Ltmp362:
.LBB3_15:
	.loc	5 1256 42                       @ libraries/STM32H7xx_HAL/STM32H7xx_HAL_Driver/Src/stm32h7xx_hal_rcc.c:1256:42
	vldr	s0, [sp, #28]
	vcvt.f32.u32	s2, s0
	vldr	s0, .LCPI3_3
	.loc	5 1256 40 is_stmt 0             @ libraries/STM32H7xx_HAL/STM32H7xx_HAL_Driver/Src/stm32h7xx_hal_rcc.c:1256:40
	vdiv.f32	s0, s0, s2
	movw	r0, #17456
	movt	r0, #22530
	.loc	5 1256 85                       @ libraries/STM32H7xx_HAL/STM32H7xx_HAL_Driver/Src/stm32h7xx_hal_rcc.c:1256:85
	ldr	r0, [r0]
	.loc	5 1256 94                       @ libraries/STM32H7xx_HAL/STM32H7xx_HAL_Driver/Src/stm32h7xx_hal_rcc.c:1256:94
	bfc	r0, #9, #23
	.loc	5 1256 60                       @ libraries/STM32H7xx_HAL/STM32H7xx_HAL_Driver/Src/stm32h7xx_hal_rcc.c:1256:60
	vmov	s2, r0
	vcvt.f32.u32	s2, s2
	.loc	5 1256 116                      @ libraries/STM32H7xx_HAL/STM32H7xx_HAL_Driver/Src/stm32h7xx_hal_rcc.c:1256:116
	vldr	s4, [sp, #16]
	vldr	s6, .LCPI3_1
	.loc	5 1256 122                      @ libraries/STM32H7xx_HAL/STM32H7xx_HAL_Driver/Src/stm32h7xx_hal_rcc.c:1256:122
	vdiv.f32	s4, s4, s6
	.loc	5 1256 113                      @ libraries/STM32H7xx_HAL/STM32H7xx_HAL_Driver/Src/stm32h7xx_hal_rcc.c:1256:113
	vadd.f32	s2, s2, s4
	vmov.f32	s4, #1.000000e+00
	.loc	5 1256 140                      @ libraries/STM32H7xx_HAL/STM32H7xx_HAL_Driver/Src/stm32h7xx_hal_rcc.c:1256:140
	vadd.f32	s2, s2, s4
	.loc	5 1256 57                       @ libraries/STM32H7xx_HAL/STM32H7xx_HAL_Driver/Src/stm32h7xx_hal_rcc.c:1256:57
	vmul.f32	s0, s0, s2
	.loc	5 1256 18                       @ libraries/STM32H7xx_HAL/STM32H7xx_HAL_Driver/Src/stm32h7xx_hal_rcc.c:1256:18
	vstr	s0, [sp, #12]
	b	.LBB3_16
.Ltmp363:
.LBB3_16:
	.loc	5 1258 9 is_stmt 1              @ libraries/STM32H7xx_HAL/STM32H7xx_HAL_Driver/Src/stm32h7xx_hal_rcc.c:1258:9
	b	.LBB3_20
.LBB3_17:
	.loc	5 1261 40                       @ libraries/STM32H7xx_HAL/STM32H7xx_HAL_Driver/Src/stm32h7xx_hal_rcc.c:1261:40
	vldr	s0, [sp, #28]
	vcvt.f32.u32	s2, s0
	vldr	s0, .LCPI3_2
	.loc	5 1261 38 is_stmt 0             @ libraries/STM32H7xx_HAL/STM32H7xx_HAL_Driver/Src/stm32h7xx_hal_rcc.c:1261:38
	vdiv.f32	s0, s0, s2
	movw	r0, #17456
	movt	r0, #22530
	.loc	5 1261 83                       @ libraries/STM32H7xx_HAL/STM32H7xx_HAL_Driver/Src/stm32h7xx_hal_rcc.c:1261:83
	ldr	r0, [r0]
	.loc	5 1261 92                       @ libraries/STM32H7xx_HAL/STM32H7xx_HAL_Driver/Src/stm32h7xx_hal_rcc.c:1261:92
	bfc	r0, #9, #23
	.loc	5 1261 58                       @ libraries/STM32H7xx_HAL/STM32H7xx_HAL_Driver/Src/stm32h7xx_hal_rcc.c:1261:58
	vmov	s2, r0
	vcvt.f32.u32	s2, s2
	.loc	5 1261 114                      @ libraries/STM32H7xx_HAL/STM32H7xx_HAL_Driver/Src/stm32h7xx_hal_rcc.c:1261:114
	vldr	s4, [sp, #16]
	vldr	s6, .LCPI3_1
	.loc	5 1261 120                      @ libraries/STM32H7xx_HAL/STM32H7xx_HAL_Driver/Src/stm32h7xx_hal_rcc.c:1261:120
	vdiv.f32	s4, s4, s6
	.loc	5 1261 111                      @ libraries/STM32H7xx_HAL/STM32H7xx_HAL_Driver/Src/stm32h7xx_hal_rcc.c:1261:111
	vadd.f32	s2, s2, s4
	vmov.f32	s4, #1.000000e+00
	.loc	5 1261 138                      @ libraries/STM32H7xx_HAL/STM32H7xx_HAL_Driver/Src/stm32h7xx_hal_rcc.c:1261:138
	vadd.f32	s2, s2, s4
	.loc	5 1261 55                       @ libraries/STM32H7xx_HAL/STM32H7xx_HAL_Driver/Src/stm32h7xx_hal_rcc.c:1261:55
	vmul.f32	s0, s0, s2
	.loc	5 1261 16                       @ libraries/STM32H7xx_HAL/STM32H7xx_HAL_Driver/Src/stm32h7xx_hal_rcc.c:1261:16
	vstr	s0, [sp, #12]
	.loc	5 1262 9 is_stmt 1              @ libraries/STM32H7xx_HAL/STM32H7xx_HAL_Driver/Src/stm32h7xx_hal_rcc.c:1262:9
	b	.LBB3_20
.LBB3_18:
	.loc	5 1265 40                       @ libraries/STM32H7xx_HAL/STM32H7xx_HAL_Driver/Src/stm32h7xx_hal_rcc.c:1265:40
	vldr	s0, [sp, #28]
	vcvt.f32.u32	s2, s0
	vldr	s0, .LCPI3_0
	.loc	5 1265 38 is_stmt 0             @ libraries/STM32H7xx_HAL/STM32H7xx_HAL_Driver/Src/stm32h7xx_hal_rcc.c:1265:38
	vdiv.f32	s0, s0, s2
	movw	r0, #17456
	movt	r0, #22530
	.loc	5 1265 83                       @ libraries/STM32H7xx_HAL/STM32H7xx_HAL_Driver/Src/stm32h7xx_hal_rcc.c:1265:83
	ldr	r0, [r0]
	.loc	5 1265 92                       @ libraries/STM32H7xx_HAL/STM32H7xx_HAL_Driver/Src/stm32h7xx_hal_rcc.c:1265:92
	bfc	r0, #9, #23
	.loc	5 1265 58                       @ libraries/STM32H7xx_HAL/STM32H7xx_HAL_Driver/Src/stm32h7xx_hal_rcc.c:1265:58
	vmov	s2, r0
	vcvt.f32.u32	s2, s2
	.loc	5 1265 114                      @ libraries/STM32H7xx_HAL/STM32H7xx_HAL_Driver/Src/stm32h7xx_hal_rcc.c:1265:114
	vldr	s4, [sp, #16]
	vldr	s6, .LCPI3_1
	.loc	5 1265 120                      @ libraries/STM32H7xx_HAL/STM32H7xx_HAL_Driver/Src/stm32h7xx_hal_rcc.c:1265:120
	vdiv.f32	s4, s4, s6
	.loc	5 1265 111                      @ libraries/STM32H7xx_HAL/STM32H7xx_HAL_Driver/Src/stm32h7xx_hal_rcc.c:1265:111
	vadd.f32	s2, s2, s4
	vmov.f32	s4, #1.000000e+00
	.loc	5 1265 138                      @ libraries/STM32H7xx_HAL/STM32H7xx_HAL_Driver/Src/stm32h7xx_hal_rcc.c:1265:138
	vadd.f32	s2, s2, s4
	.loc	5 1265 55                       @ libraries/STM32H7xx_HAL/STM32H7xx_HAL_Driver/Src/stm32h7xx_hal_rcc.c:1265:55
	vmul.f32	s0, s0, s2
	.loc	5 1265 16                       @ libraries/STM32H7xx_HAL/STM32H7xx_HAL_Driver/Src/stm32h7xx_hal_rcc.c:1265:16
	vstr	s0, [sp, #12]
	.loc	5 1266 9 is_stmt 1              @ libraries/STM32H7xx_HAL/STM32H7xx_HAL_Driver/Src/stm32h7xx_hal_rcc.c:1266:9
	b	.LBB3_20
.LBB3_19:
	.loc	5 1269 40                       @ libraries/STM32H7xx_HAL/STM32H7xx_HAL_Driver/Src/stm32h7xx_hal_rcc.c:1269:40
	vldr	s0, [sp, #28]
	vcvt.f32.u32	s2, s0
	vldr	s0, .LCPI3_2
	.loc	5 1269 38 is_stmt 0             @ libraries/STM32H7xx_HAL/STM32H7xx_HAL_Driver/Src/stm32h7xx_hal_rcc.c:1269:38
	vdiv.f32	s0, s0, s2
	movw	r0, #17456
	movt	r0, #22530
	.loc	5 1269 83                       @ libraries/STM32H7xx_HAL/STM32H7xx_HAL_Driver/Src/stm32h7xx_hal_rcc.c:1269:83
	ldr	r0, [r0]
	.loc	5 1269 92                       @ libraries/STM32H7xx_HAL/STM32H7xx_HAL_Driver/Src/stm32h7xx_hal_rcc.c:1269:92
	bfc	r0, #9, #23
	.loc	5 1269 58                       @ libraries/STM32H7xx_HAL/STM32H7xx_HAL_Driver/Src/stm32h7xx_hal_rcc.c:1269:58
	vmov	s2, r0
	vcvt.f32.u32	s2, s2
	.loc	5 1269 114                      @ libraries/STM32H7xx_HAL/STM32H7xx_HAL_Driver/Src/stm32h7xx_hal_rcc.c:1269:114
	vldr	s4, [sp, #16]
	vldr	s6, .LCPI3_1
	.loc	5 1269 120                      @ libraries/STM32H7xx_HAL/STM32H7xx_HAL_Driver/Src/stm32h7xx_hal_rcc.c:1269:120
	vdiv.f32	s4, s4, s6
	.loc	5 1269 111                      @ libraries/STM32H7xx_HAL/STM32H7xx_HAL_Driver/Src/stm32h7xx_hal_rcc.c:1269:111
	vadd.f32	s2, s2, s4
	vmov.f32	s4, #1.000000e+00
	.loc	5 1269 138                      @ libraries/STM32H7xx_HAL/STM32H7xx_HAL_Driver/Src/stm32h7xx_hal_rcc.c:1269:138
	vadd.f32	s2, s2, s4
	.loc	5 1269 55                       @ libraries/STM32H7xx_HAL/STM32H7xx_HAL_Driver/Src/stm32h7xx_hal_rcc.c:1269:55
	vmul.f32	s0, s0, s2
	.loc	5 1269 16                       @ libraries/STM32H7xx_HAL/STM32H7xx_HAL_Driver/Src/stm32h7xx_hal_rcc.c:1269:16
	vstr	s0, [sp, #12]
	.loc	5 1270 9 is_stmt 1              @ libraries/STM32H7xx_HAL/STM32H7xx_HAL_Driver/Src/stm32h7xx_hal_rcc.c:1270:9
	b	.LBB3_20
.Ltmp364:
.LBB3_20:
	.loc	5 0 9 is_stmt 0                 @ libraries/STM32H7xx_HAL/STM32H7xx_HAL_Driver/Src/stm32h7xx_hal_rcc.c:0:9
	movw	r0, #17456
	movt	r0, #22530
	.loc	5 1272 22 is_stmt 1             @ libraries/STM32H7xx_HAL/STM32H7xx_HAL_Driver/Src/stm32h7xx_hal_rcc.c:1272:22
	ldr	r0, [r0]
	.loc	5 1272 31 is_stmt 0             @ libraries/STM32H7xx_HAL/STM32H7xx_HAL_Driver/Src/stm32h7xx_hal_rcc.c:1272:31
	uxth	r1, r0
	movs	r0, #1
	.loc	5 1272 55                       @ libraries/STM32H7xx_HAL/STM32H7xx_HAL_Driver/Src/stm32h7xx_hal_rcc.c:1272:55
	add.w	r0, r0, r1, lsr #9
	.loc	5 1272 12                       @ libraries/STM32H7xx_HAL/STM32H7xx_HAL_Driver/Src/stm32h7xx_hal_rcc.c:1272:12
	str	r0, [sp, #36]
	.loc	5 1273 43 is_stmt 1             @ libraries/STM32H7xx_HAL/STM32H7xx_HAL_Driver/Src/stm32h7xx_hal_rcc.c:1273:43
	vldr	s0, [sp, #12]
	.loc	5 1273 50 is_stmt 0             @ libraries/STM32H7xx_HAL/STM32H7xx_HAL_Driver/Src/stm32h7xx_hal_rcc.c:1273:50
	vldr	s2, [sp, #36]
	vcvt.f32.u32	s2, s2
	.loc	5 1273 49                       @ libraries/STM32H7xx_HAL/STM32H7xx_HAL_Driver/Src/stm32h7xx_hal_rcc.c:1273:49
	vdiv.f32	s0, s0, s2
	.loc	5 1273 20                       @ libraries/STM32H7xx_HAL/STM32H7xx_HAL_Driver/Src/stm32h7xx_hal_rcc.c:1273:20
	vcvt.u32.f32	s0, s0
	vstr	s0, [sp, #8]
	.loc	5 1274 5 is_stmt 1              @ libraries/STM32H7xx_HAL/STM32H7xx_HAL_Driver/Src/stm32h7xx_hal_rcc.c:1274:5
	b	.LBB3_22
.Ltmp365:
.LBB3_21:
	.loc	5 0 5 is_stmt 0                 @ libraries/STM32H7xx_HAL/STM32H7xx_HAL_Driver/Src/stm32h7xx_hal_rcc.c:0:5
	movs	r0, #0
.Ltmp366:
	.loc	5 1277 20 is_stmt 1             @ libraries/STM32H7xx_HAL/STM32H7xx_HAL_Driver/Src/stm32h7xx_hal_rcc.c:1277:20
	str	r0, [sp, #8]
	b	.LBB3_22
.Ltmp367:
.LBB3_22:
	.loc	5 1279 5                        @ libraries/STM32H7xx_HAL/STM32H7xx_HAL_Driver/Src/stm32h7xx_hal_rcc.c:1279:5
	b	.LBB3_24
.LBB3_23:
	.loc	5 0 5 is_stmt 0                 @ libraries/STM32H7xx_HAL/STM32H7xx_HAL_Driver/Src/stm32h7xx_hal_rcc.c:0:5
	movw	r0, #2304
	movt	r0, #61
	.loc	5 1282 18 is_stmt 1             @ libraries/STM32H7xx_HAL/STM32H7xx_HAL_Driver/Src/stm32h7xx_hal_rcc.c:1282:18
	str	r0, [sp, #8]
	.loc	5 1283 5                        @ libraries/STM32H7xx_HAL/STM32H7xx_HAL_Driver/Src/stm32h7xx_hal_rcc.c:1283:5
	b	.LBB3_24
.Ltmp368:
.LBB3_24:
	.loc	5 1286 10                       @ libraries/STM32H7xx_HAL/STM32H7xx_HAL_Driver/Src/stm32h7xx_hal_rcc.c:1286:10
	ldr	r0, [sp, #8]
	.loc	5 1286 3 is_stmt 0              @ libraries/STM32H7xx_HAL/STM32H7xx_HAL_Driver/Src/stm32h7xx_hal_rcc.c:1286:3
	add	sp, #40
	bx	lr
.Ltmp369:
	.p2align	2
@ %bb.25:
	.loc	5 0 3                           @ libraries/STM32H7xx_HAL/STM32H7xx_HAL_Driver/Src/stm32h7xx_hal_rcc.c:0:3
.LCPI3_0:
	.long	0x4bbebc20                      @ float 2.5E+7
.LCPI3_1:
	.long	0x46000000                      @ float 8192
.LCPI3_2:
	.long	0x4a742400                      @ float 4.0E+6
.LCPI3_3:
	.long	0x4c742400                      @ float 6.4E+7
.Lfunc_end3:
	.size	HAL_RCC_GetSysClockFreq, .Lfunc_end3-HAL_RCC_GetSysClockFreq
	.cfi_endproc
	.cantunwind
	.fnend
                                        @ -- End function
	.section	.text.HAL_RCC_MCOConfig,"ax",%progbits
	.hidden	HAL_RCC_MCOConfig               @ -- Begin function HAL_RCC_MCOConfig
	.globl	HAL_RCC_MCOConfig
	.p2align	3
	.type	HAL_RCC_MCOConfig,%function
	.code	16                              @ @HAL_RCC_MCOConfig
	.thumb_func
HAL_RCC_MCOConfig:
.Lfunc_begin4:
	.loc	5 1101 0 is_stmt 1              @ libraries/STM32H7xx_HAL/STM32H7xx_HAL_Driver/Src/stm32h7xx_hal_rcc.c:1101:0
	.fnstart
	.cfi_startproc
@ %bb.0:
	.save	{r7, lr}
	push	{r7, lr}
	.cfi_def_cfa_offset 8
	.cfi_offset lr, -4
	.cfi_offset r7, -8
	.pad	#40
	sub	sp, #40
	.cfi_def_cfa_offset 48
	str	r0, [sp, #36]
	str	r1, [sp, #32]
	str	r2, [sp, #28]
.Ltmp370:
	.loc	5 1107 6 prologue_end           @ libraries/STM32H7xx_HAL/STM32H7xx_HAL_Driver/Src/stm32h7xx_hal_rcc.c:1107:6
	ldr	r0, [sp, #36]
.Ltmp371:
	.loc	5 1107 6 is_stmt 0              @ libraries/STM32H7xx_HAL/STM32H7xx_HAL_Driver/Src/stm32h7xx_hal_rcc.c:1107:6
	cbnz	r0, .LBB4_4
	b	.LBB4_1
.LBB4_1:
.Ltmp372:
	.loc	5 1112 5 is_stmt 1              @ libraries/STM32H7xx_HAL/STM32H7xx_HAL_Driver/Src/stm32h7xx_hal_rcc.c:1112:5
	b	.LBB4_2
.LBB4_2:
	.loc	5 0 5 is_stmt 0                 @ libraries/STM32H7xx_HAL/STM32H7xx_HAL_Driver/Src/stm32h7xx_hal_rcc.c:0:5
	movw	r0, #17632
	movt	r0, #22530
.Ltmp373:
	.loc	5 1112 5                        @ libraries/STM32H7xx_HAL/STM32H7xx_HAL_Driver/Src/stm32h7xx_hal_rcc.c:1112:5
	ldr	r1, [r0]
	orr	r1, r1, #1
	str	r1, [r0]
	ldr	r0, [r0]
	and	r0, r0, #1
	str	r0, [sp, #4]
	ldr	r0, [sp, #4]
	b	.LBB4_3
.Ltmp374:
.LBB4_3:
	.loc	5 0 5                           @ libraries/STM32H7xx_HAL/STM32H7xx_HAL_Driver/Src/stm32h7xx_hal_rcc.c:0:5
	mov.w	r0, #256
	.loc	5 1115 25 is_stmt 1             @ libraries/STM32H7xx_HAL/STM32H7xx_HAL_Driver/Src/stm32h7xx_hal_rcc.c:1115:25
	str	r0, [sp, #8]
	movs	r0, #2
	.loc	5 1116 26                       @ libraries/STM32H7xx_HAL/STM32H7xx_HAL_Driver/Src/stm32h7xx_hal_rcc.c:1116:26
	str	r0, [sp, #12]
	movs	r0, #3
	.loc	5 1117 27                       @ libraries/STM32H7xx_HAL/STM32H7xx_HAL_Driver/Src/stm32h7xx_hal_rcc.c:1117:27
	str	r0, [sp, #20]
	movs	r0, #0
	.loc	5 1118 26                       @ libraries/STM32H7xx_HAL/STM32H7xx_HAL_Driver/Src/stm32h7xx_hal_rcc.c:1118:26
	str	r0, [sp, #16]
	.loc	5 1119 31                       @ libraries/STM32H7xx_HAL/STM32H7xx_HAL_Driver/Src/stm32h7xx_hal_rcc.c:1119:31
	str	r0, [sp, #24]
	movs	r0, #0
	movt	r0, #22530
	add	r1, sp, #8
	.loc	5 1120 5                        @ libraries/STM32H7xx_HAL/STM32H7xx_HAL_Driver/Src/stm32h7xx_hal_rcc.c:1120:5
	bl	HAL_GPIO_Init
	movw	r1, #17424
	movt	r1, #22530
	.loc	5 1123 5                        @ libraries/STM32H7xx_HAL/STM32H7xx_HAL_Driver/Src/stm32h7xx_hal_rcc.c:1123:5
	ldr	r0, [r1]
	bic	r0, r0, #33292288
	ldr	r2, [sp, #32]
	ldr	r3, [sp, #28]
	orrs	r2, r3
	orrs	r0, r2
	str	r0, [r1]
	.loc	5 1124 3                        @ libraries/STM32H7xx_HAL/STM32H7xx_HAL_Driver/Src/stm32h7xx_hal_rcc.c:1124:3
	b	.LBB4_7
.Ltmp375:
.LBB4_4:
	.loc	5 1130 5                        @ libraries/STM32H7xx_HAL/STM32H7xx_HAL_Driver/Src/stm32h7xx_hal_rcc.c:1130:5
	b	.LBB4_5
.LBB4_5:
	.loc	5 0 5 is_stmt 0                 @ libraries/STM32H7xx_HAL/STM32H7xx_HAL_Driver/Src/stm32h7xx_hal_rcc.c:0:5
	movw	r0, #17632
	movt	r0, #22530
.Ltmp376:
	.loc	5 1130 5                        @ libraries/STM32H7xx_HAL/STM32H7xx_HAL_Driver/Src/stm32h7xx_hal_rcc.c:1130:5
	ldr	r1, [r0]
	orr	r1, r1, #4
	str	r1, [r0]
	ldr	r0, [r0]
	and	r0, r0, #4
	str	r0, [sp]
	ldr	r0, [sp]
	b	.LBB4_6
.Ltmp377:
.LBB4_6:
	.loc	5 0 5                           @ libraries/STM32H7xx_HAL/STM32H7xx_HAL_Driver/Src/stm32h7xx_hal_rcc.c:0:5
	mov.w	r0, #512
	.loc	5 1133 25 is_stmt 1             @ libraries/STM32H7xx_HAL/STM32H7xx_HAL_Driver/Src/stm32h7xx_hal_rcc.c:1133:25
	str	r0, [sp, #8]
	movs	r0, #2
	.loc	5 1134 26                       @ libraries/STM32H7xx_HAL/STM32H7xx_HAL_Driver/Src/stm32h7xx_hal_rcc.c:1134:26
	str	r0, [sp, #12]
	movs	r0, #3
	.loc	5 1135 27                       @ libraries/STM32H7xx_HAL/STM32H7xx_HAL_Driver/Src/stm32h7xx_hal_rcc.c:1135:27
	str	r0, [sp, #20]
	movs	r0, #0
	.loc	5 1136 26                       @ libraries/STM32H7xx_HAL/STM32H7xx_HAL_Driver/Src/stm32h7xx_hal_rcc.c:1136:26
	str	r0, [sp, #16]
	.loc	5 1137 31                       @ libraries/STM32H7xx_HAL/STM32H7xx_HAL_Driver/Src/stm32h7xx_hal_rcc.c:1137:31
	str	r0, [sp, #24]
	movw	r0, #2048
	movt	r0, #22530
	add	r1, sp, #8
	.loc	5 1138 5                        @ libraries/STM32H7xx_HAL/STM32H7xx_HAL_Driver/Src/stm32h7xx_hal_rcc.c:1138:5
	bl	HAL_GPIO_Init
	movw	r1, #17424
	movt	r1, #22530
	.loc	5 1141 5                        @ libraries/STM32H7xx_HAL/STM32H7xx_HAL_Driver/Src/stm32h7xx_hal_rcc.c:1141:5
	ldr	r0, [r1]
	bic	r0, r0, #-33554432
	ldr	r2, [sp, #32]
	ldr	r3, [sp, #28]
	orr.w	r2, r2, r3, lsl #7
	orrs	r0, r2
	str	r0, [r1]
	b	.LBB4_7
.Ltmp378:
.LBB4_7:
	.loc	5 1143 1                        @ libraries/STM32H7xx_HAL/STM32H7xx_HAL_Driver/Src/stm32h7xx_hal_rcc.c:1143:1
	add	sp, #40
	pop	{r7, pc}
.Ltmp379:
.Lfunc_end4:
	.size	HAL_RCC_MCOConfig, .Lfunc_end4-HAL_RCC_MCOConfig
	.cfi_endproc
	.cantunwind
	.fnend
                                        @ -- End function
	.section	.text.HAL_RCC_EnableCSS,"ax",%progbits
	.hidden	HAL_RCC_EnableCSS               @ -- Begin function HAL_RCC_EnableCSS
	.globl	HAL_RCC_EnableCSS
	.p2align	3
	.type	HAL_RCC_EnableCSS,%function
	.code	16                              @ @HAL_RCC_EnableCSS
	.thumb_func
HAL_RCC_EnableCSS:
.Lfunc_begin5:
	.loc	5 1155 0                        @ libraries/STM32H7xx_HAL/STM32H7xx_HAL_Driver/Src/stm32h7xx_hal_rcc.c:1155:0
	.fnstart
	.cfi_startproc
@ %bb.0:
	movw	r1, #17408
	movt	r1, #22530
.Ltmp380:
	.loc	5 1156 3 prologue_end           @ libraries/STM32H7xx_HAL/STM32H7xx_HAL_Driver/Src/stm32h7xx_hal_rcc.c:1156:3
	ldr	r0, [r1]
	orr	r0, r0, #524288
	str	r0, [r1]
	.loc	5 1157 1                        @ libraries/STM32H7xx_HAL/STM32H7xx_HAL_Driver/Src/stm32h7xx_hal_rcc.c:1157:1
	bx	lr
.Ltmp381:
.Lfunc_end5:
	.size	HAL_RCC_EnableCSS, .Lfunc_end5-HAL_RCC_EnableCSS
	.cfi_endproc
	.cantunwind
	.fnend
                                        @ -- End function
	.section	.text.HAL_RCC_DisableCSS,"ax",%progbits
	.hidden	HAL_RCC_DisableCSS              @ -- Begin function HAL_RCC_DisableCSS
	.globl	HAL_RCC_DisableCSS
	.p2align	3
	.type	HAL_RCC_DisableCSS,%function
	.code	16                              @ @HAL_RCC_DisableCSS
	.thumb_func
HAL_RCC_DisableCSS:
.Lfunc_begin6:
	.loc	5 1164 0                        @ libraries/STM32H7xx_HAL/STM32H7xx_HAL_Driver/Src/stm32h7xx_hal_rcc.c:1164:0
	.fnstart
	.cfi_startproc
@ %bb.0:
	movw	r1, #17408
	movt	r1, #22530
.Ltmp382:
	.loc	5 1165 3 prologue_end           @ libraries/STM32H7xx_HAL/STM32H7xx_HAL_Driver/Src/stm32h7xx_hal_rcc.c:1165:3
	ldr	r0, [r1]
	bic	r0, r0, #524288
	str	r0, [r1]
	.loc	5 1166 1                        @ libraries/STM32H7xx_HAL/STM32H7xx_HAL_Driver/Src/stm32h7xx_hal_rcc.c:1166:1
	bx	lr
.Ltmp383:
.Lfunc_end6:
	.size	HAL_RCC_DisableCSS, .Lfunc_end6-HAL_RCC_DisableCSS
	.cfi_endproc
	.cantunwind
	.fnend
                                        @ -- End function
	.section	.text.HAL_RCC_GetHCLKFreq,"ax",%progbits
	.hidden	HAL_RCC_GetHCLKFreq             @ -- Begin function HAL_RCC_GetHCLKFreq
	.globl	HAL_RCC_GetHCLKFreq
	.p2align	3
	.type	HAL_RCC_GetHCLKFreq,%function
	.code	16                              @ @HAL_RCC_GetHCLKFreq
	.thumb_func
HAL_RCC_GetHCLKFreq:
.Lfunc_begin7:
	.loc	5 1300 0                        @ libraries/STM32H7xx_HAL/STM32H7xx_HAL_Driver/Src/stm32h7xx_hal_rcc.c:1300:0
	.fnstart
	.cfi_startproc
@ %bb.0:
	.save	{r7, lr}
	push	{r7, lr}
	.cfi_def_cfa_offset 8
	.cfi_offset lr, -4
	.cfi_offset r7, -8
.Ltmp384:
	.loc	5 1301 20 prologue_end          @ libraries/STM32H7xx_HAL/STM32H7xx_HAL_Driver/Src/stm32h7xx_hal_rcc.c:1301:20
	bl	HAL_RCCEx_GetD1SysClockFreq
	movw	r1, #17432
	movt	r1, #22530
	.loc	5 1301 78 is_stmt 0             @ libraries/STM32H7xx_HAL/STM32H7xx_HAL_Driver/Src/stm32h7xx_hal_rcc.c:1301:78
	ldr	r1, [r1]
	.loc	5 1301 85                       @ libraries/STM32H7xx_HAL/STM32H7xx_HAL_Driver/Src/stm32h7xx_hal_rcc.c:1301:85
	and	r2, r1, #15
	.loc	5 1301 55                       @ libraries/STM32H7xx_HAL/STM32H7xx_HAL_Driver/Src/stm32h7xx_hal_rcc.c:1301:55
	movw	r1, :lower16:D1CorePrescTable
	movt	r1, :upper16:D1CorePrescTable
	.loc	5 1301 54                       @ libraries/STM32H7xx_HAL/STM32H7xx_HAL_Driver/Src/stm32h7xx_hal_rcc.c:1301:54
	ldrb	r1, [r1, r2]
	.loc	5 1301 128                      @ libraries/STM32H7xx_HAL/STM32H7xx_HAL_Driver/Src/stm32h7xx_hal_rcc.c:1301:128
	and	r1, r1, #31
	.loc	5 1301 50                       @ libraries/STM32H7xx_HAL/STM32H7xx_HAL_Driver/Src/stm32h7xx_hal_rcc.c:1301:50
	lsr.w	r1, r0, r1
	.loc	5 1301 17                       @ libraries/STM32H7xx_HAL/STM32H7xx_HAL_Driver/Src/stm32h7xx_hal_rcc.c:1301:17
	movw	r0, :lower16:SystemD2Clock
	movt	r0, :upper16:SystemD2Clock
	str	r1, [r0]
	.loc	5 1302 10 is_stmt 1             @ libraries/STM32H7xx_HAL/STM32H7xx_HAL_Driver/Src/stm32h7xx_hal_rcc.c:1302:10
	ldr	r0, [r0]
	.loc	5 1302 3 is_stmt 0              @ libraries/STM32H7xx_HAL/STM32H7xx_HAL_Driver/Src/stm32h7xx_hal_rcc.c:1302:3
	pop	{r7, pc}
.Ltmp385:
.Lfunc_end7:
	.size	HAL_RCC_GetHCLKFreq, .Lfunc_end7-HAL_RCC_GetHCLKFreq
	.cfi_endproc
	.cantunwind
	.fnend
                                        @ -- End function
	.section	.text.HAL_RCC_GetPCLK1Freq,"ax",%progbits
	.hidden	HAL_RCC_GetPCLK1Freq            @ -- Begin function HAL_RCC_GetPCLK1Freq
	.globl	HAL_RCC_GetPCLK1Freq
	.p2align	3
	.type	HAL_RCC_GetPCLK1Freq,%function
	.code	16                              @ @HAL_RCC_GetPCLK1Freq
	.thumb_func
HAL_RCC_GetPCLK1Freq:
.Lfunc_begin8:
	.loc	5 1313 0 is_stmt 1              @ libraries/STM32H7xx_HAL/STM32H7xx_HAL_Driver/Src/stm32h7xx_hal_rcc.c:1313:0
	.fnstart
	.cfi_startproc
@ %bb.0:
	.save	{r7, lr}
	push	{r7, lr}
	.cfi_def_cfa_offset 8
	.cfi_offset lr, -4
	.cfi_offset r7, -8
.Ltmp386:
	.loc	5 1315 11 prologue_end          @ libraries/STM32H7xx_HAL/STM32H7xx_HAL_Driver/Src/stm32h7xx_hal_rcc.c:1315:11
	bl	HAL_RCC_GetHCLKFreq
	movw	r1, #17436
	movt	r1, #22530
	.loc	5 1315 61 is_stmt 0             @ libraries/STM32H7xx_HAL/STM32H7xx_HAL_Driver/Src/stm32h7xx_hal_rcc.c:1315:61
	ldr	r1, [r1]
	.loc	5 1315 89                       @ libraries/STM32H7xx_HAL/STM32H7xx_HAL_Driver/Src/stm32h7xx_hal_rcc.c:1315:89
	ubfx	r2, r1, #4, #3
	.loc	5 1315 38                       @ libraries/STM32H7xx_HAL/STM32H7xx_HAL_Driver/Src/stm32h7xx_hal_rcc.c:1315:38
	movw	r1, :lower16:D1CorePrescTable
	movt	r1, :upper16:D1CorePrescTable
	.loc	5 1315 37                       @ libraries/STM32H7xx_HAL/STM32H7xx_HAL_Driver/Src/stm32h7xx_hal_rcc.c:1315:37
	ldrb	r1, [r1, r2]
	.loc	5 1315 117                      @ libraries/STM32H7xx_HAL/STM32H7xx_HAL_Driver/Src/stm32h7xx_hal_rcc.c:1315:117
	and	r1, r1, #31
	.loc	5 1315 33                       @ libraries/STM32H7xx_HAL/STM32H7xx_HAL_Driver/Src/stm32h7xx_hal_rcc.c:1315:33
	lsrs	r0, r1
	.loc	5 1315 3                        @ libraries/STM32H7xx_HAL/STM32H7xx_HAL_Driver/Src/stm32h7xx_hal_rcc.c:1315:3
	pop	{r7, pc}
.Ltmp387:
.Lfunc_end8:
	.size	HAL_RCC_GetPCLK1Freq, .Lfunc_end8-HAL_RCC_GetPCLK1Freq
	.cfi_endproc
	.cantunwind
	.fnend
                                        @ -- End function
	.section	.text.HAL_RCC_GetPCLK2Freq,"ax",%progbits
	.hidden	HAL_RCC_GetPCLK2Freq            @ -- Begin function HAL_RCC_GetPCLK2Freq
	.globl	HAL_RCC_GetPCLK2Freq
	.p2align	3
	.type	HAL_RCC_GetPCLK2Freq,%function
	.code	16                              @ @HAL_RCC_GetPCLK2Freq
	.thumb_func
HAL_RCC_GetPCLK2Freq:
.Lfunc_begin9:
	.loc	5 1326 0 is_stmt 1              @ libraries/STM32H7xx_HAL/STM32H7xx_HAL_Driver/Src/stm32h7xx_hal_rcc.c:1326:0
	.fnstart
	.cfi_startproc
@ %bb.0:
	.save	{r7, lr}
	push	{r7, lr}
	.cfi_def_cfa_offset 8
	.cfi_offset lr, -4
	.cfi_offset r7, -8
.Ltmp388:
	.loc	5 1328 11 prologue_end          @ libraries/STM32H7xx_HAL/STM32H7xx_HAL_Driver/Src/stm32h7xx_hal_rcc.c:1328:11
	bl	HAL_RCC_GetHCLKFreq
	movw	r1, #17436
	movt	r1, #22530
	.loc	5 1328 61 is_stmt 0             @ libraries/STM32H7xx_HAL/STM32H7xx_HAL_Driver/Src/stm32h7xx_hal_rcc.c:1328:61
	ldr	r1, [r1]
	.loc	5 1328 89                       @ libraries/STM32H7xx_HAL/STM32H7xx_HAL_Driver/Src/stm32h7xx_hal_rcc.c:1328:89
	ubfx	r2, r1, #8, #3
	.loc	5 1328 38                       @ libraries/STM32H7xx_HAL/STM32H7xx_HAL_Driver/Src/stm32h7xx_hal_rcc.c:1328:38
	movw	r1, :lower16:D1CorePrescTable
	movt	r1, :upper16:D1CorePrescTable
	.loc	5 1328 37                       @ libraries/STM32H7xx_HAL/STM32H7xx_HAL_Driver/Src/stm32h7xx_hal_rcc.c:1328:37
	ldrb	r1, [r1, r2]
	.loc	5 1328 117                      @ libraries/STM32H7xx_HAL/STM32H7xx_HAL_Driver/Src/stm32h7xx_hal_rcc.c:1328:117
	and	r1, r1, #31
	.loc	5 1328 33                       @ libraries/STM32H7xx_HAL/STM32H7xx_HAL_Driver/Src/stm32h7xx_hal_rcc.c:1328:33
	lsrs	r0, r1
	.loc	5 1328 3                        @ libraries/STM32H7xx_HAL/STM32H7xx_HAL_Driver/Src/stm32h7xx_hal_rcc.c:1328:3
	pop	{r7, pc}
.Ltmp389:
.Lfunc_end9:
	.size	HAL_RCC_GetPCLK2Freq, .Lfunc_end9-HAL_RCC_GetPCLK2Freq
	.cfi_endproc
	.cantunwind
	.fnend
                                        @ -- End function
	.section	.text.HAL_RCC_GetOscConfig,"ax",%progbits
	.hidden	HAL_RCC_GetOscConfig            @ -- Begin function HAL_RCC_GetOscConfig
	.globl	HAL_RCC_GetOscConfig
	.p2align	3
	.type	HAL_RCC_GetOscConfig,%function
	.code	16                              @ @HAL_RCC_GetOscConfig
	.thumb_func
HAL_RCC_GetOscConfig:
.Lfunc_begin10:
	.loc	5 1339 0 is_stmt 1              @ libraries/STM32H7xx_HAL/STM32H7xx_HAL_Driver/Src/stm32h7xx_hal_rcc.c:1339:0
	.fnstart
	.cfi_startproc
@ %bb.0:
	.save	{r7, lr}
	push	{r7, lr}
	.cfi_def_cfa_offset 8
	.cfi_offset lr, -4
	.cfi_offset r7, -8
	.pad	#8
	sub	sp, #8
	.cfi_def_cfa_offset 16
	str	r0, [sp, #4]
.Ltmp390:
	.loc	5 1341 3 prologue_end           @ libraries/STM32H7xx_HAL/STM32H7xx_HAL_Driver/Src/stm32h7xx_hal_rcc.c:1341:3
	ldr	r1, [sp, #4]
	movs	r0, #63
	.loc	5 1341 37 is_stmt 0             @ libraries/STM32H7xx_HAL/STM32H7xx_HAL_Driver/Src/stm32h7xx_hal_rcc.c:1341:37
	str	r0, [r1]
	movw	r0, #17408
	movt	r0, #22530
.Ltmp391:
	.loc	5 1345 12 is_stmt 1             @ libraries/STM32H7xx_HAL/STM32H7xx_HAL_Driver/Src/stm32h7xx_hal_rcc.c:1345:12
	ldr	r0, [r0]
.Ltmp392:
	.loc	5 1345 6 is_stmt 0              @ libraries/STM32H7xx_HAL/STM32H7xx_HAL_Driver/Src/stm32h7xx_hal_rcc.c:1345:6
	lsls	r0, r0, #13
	cmp	r0, #0
	bpl	.LBB10_2
	b	.LBB10_1
.LBB10_1:
.Ltmp393:
	.loc	5 1347 5 is_stmt 1              @ libraries/STM32H7xx_HAL/STM32H7xx_HAL_Driver/Src/stm32h7xx_hal_rcc.c:1347:5
	ldr	r1, [sp, #4]
	mov.w	r0, #327680
	.loc	5 1347 33 is_stmt 0             @ libraries/STM32H7xx_HAL/STM32H7xx_HAL_Driver/Src/stm32h7xx_hal_rcc.c:1347:33
	str	r0, [r1, #4]
	.loc	5 1348 3 is_stmt 1              @ libraries/STM32H7xx_HAL/STM32H7xx_HAL_Driver/Src/stm32h7xx_hal_rcc.c:1348:3
	b	.LBB10_6
.Ltmp394:
.LBB10_2:
	.loc	5 0 3 is_stmt 0                 @ libraries/STM32H7xx_HAL/STM32H7xx_HAL_Driver/Src/stm32h7xx_hal_rcc.c:0:3
	movw	r0, #17408
	movt	r0, #22530
.Ltmp395:
	.loc	5 1349 17 is_stmt 1             @ libraries/STM32H7xx_HAL/STM32H7xx_HAL_Driver/Src/stm32h7xx_hal_rcc.c:1349:17
	ldr	r0, [r0]
.Ltmp396:
	.loc	5 1349 11 is_stmt 0             @ libraries/STM32H7xx_HAL/STM32H7xx_HAL_Driver/Src/stm32h7xx_hal_rcc.c:1349:11
	lsls	r0, r0, #15
	cmp	r0, #0
	bpl	.LBB10_4
	b	.LBB10_3
.LBB10_3:
.Ltmp397:
	.loc	5 1351 5 is_stmt 1              @ libraries/STM32H7xx_HAL/STM32H7xx_HAL_Driver/Src/stm32h7xx_hal_rcc.c:1351:5
	ldr	r1, [sp, #4]
	mov.w	r0, #65536
	.loc	5 1351 33 is_stmt 0             @ libraries/STM32H7xx_HAL/STM32H7xx_HAL_Driver/Src/stm32h7xx_hal_rcc.c:1351:33
	str	r0, [r1, #4]
	.loc	5 1352 3 is_stmt 1              @ libraries/STM32H7xx_HAL/STM32H7xx_HAL_Driver/Src/stm32h7xx_hal_rcc.c:1352:3
	b	.LBB10_5
.Ltmp398:
.LBB10_4:
	.loc	5 1355 5                        @ libraries/STM32H7xx_HAL/STM32H7xx_HAL_Driver/Src/stm32h7xx_hal_rcc.c:1355:5
	ldr	r1, [sp, #4]
	movs	r0, #0
	.loc	5 1355 33 is_stmt 0             @ libraries/STM32H7xx_HAL/STM32H7xx_HAL_Driver/Src/stm32h7xx_hal_rcc.c:1355:33
	str	r0, [r1, #4]
	b	.LBB10_5
.Ltmp399:
.LBB10_5:
	.loc	5 0 33                          @ libraries/STM32H7xx_HAL/STM32H7xx_HAL_Driver/Src/stm32h7xx_hal_rcc.c:0:33
	b	.LBB10_6
.LBB10_6:
	movw	r0, #17408
	movt	r0, #22530
.Ltmp400:
	.loc	5 1359 12 is_stmt 1             @ libraries/STM32H7xx_HAL/STM32H7xx_HAL_Driver/Src/stm32h7xx_hal_rcc.c:1359:12
	ldr	r0, [r0]
.Ltmp401:
	.loc	5 1359 6 is_stmt 0              @ libraries/STM32H7xx_HAL/STM32H7xx_HAL_Driver/Src/stm32h7xx_hal_rcc.c:1359:6
	lsls	r0, r0, #24
	cmp	r0, #0
	bpl	.LBB10_8
	b	.LBB10_7
.LBB10_7:
.Ltmp402:
	.loc	5 1361 5 is_stmt 1              @ libraries/STM32H7xx_HAL/STM32H7xx_HAL_Driver/Src/stm32h7xx_hal_rcc.c:1361:5
	ldr	r1, [sp, #4]
	movs	r0, #128
	.loc	5 1361 33 is_stmt 0             @ libraries/STM32H7xx_HAL/STM32H7xx_HAL_Driver/Src/stm32h7xx_hal_rcc.c:1361:33
	str	r0, [r1, #28]
	.loc	5 1362 3 is_stmt 1              @ libraries/STM32H7xx_HAL/STM32H7xx_HAL_Driver/Src/stm32h7xx_hal_rcc.c:1362:3
	b	.LBB10_9
.Ltmp403:
.LBB10_8:
	.loc	5 1365 5                        @ libraries/STM32H7xx_HAL/STM32H7xx_HAL_Driver/Src/stm32h7xx_hal_rcc.c:1365:5
	ldr	r1, [sp, #4]
	movs	r0, #0
	.loc	5 1365 33 is_stmt 0             @ libraries/STM32H7xx_HAL/STM32H7xx_HAL_Driver/Src/stm32h7xx_hal_rcc.c:1365:33
	str	r0, [r1, #28]
	b	.LBB10_9
.Ltmp404:
.LBB10_9:
	.loc	5 1368 6 is_stmt 1              @ libraries/STM32H7xx_HAL/STM32H7xx_HAL_Driver/Src/stm32h7xx_hal_rcc.c:1368:6
	bl	HAL_GetREVID
	movw	r1, #4099
.Ltmp405:
	.loc	5 1368 6 is_stmt 0              @ libraries/STM32H7xx_HAL/STM32H7xx_HAL_Driver/Src/stm32h7xx_hal_rcc.c:1368:6
	cmp	r0, r1
	bhi	.LBB10_11
	b	.LBB10_10
.LBB10_10:
	.loc	5 0 6                           @ libraries/STM32H7xx_HAL/STM32H7xx_HAL_Driver/Src/stm32h7xx_hal_rcc.c:0:6
	movw	r0, #17412
	movt	r0, #22530
.Ltmp406:
	.loc	5 1370 57 is_stmt 1             @ libraries/STM32H7xx_HAL/STM32H7xx_HAL_Driver/Src/stm32h7xx_hal_rcc.c:1370:57
	ldr	r0, [r0]
	.loc	5 1370 107 is_stmt 0            @ libraries/STM32H7xx_HAL/STM32H7xx_HAL_Driver/Src/stm32h7xx_hal_rcc.c:1370:107
	ubfx	r0, r0, #26, #5
	.loc	5 1370 5                        @ libraries/STM32H7xx_HAL/STM32H7xx_HAL_Driver/Src/stm32h7xx_hal_rcc.c:1370:5
	ldr	r1, [sp, #4]
	.loc	5 1370 44                       @ libraries/STM32H7xx_HAL/STM32H7xx_HAL_Driver/Src/stm32h7xx_hal_rcc.c:1370:44
	str	r0, [r1, #32]
	.loc	5 1371 3 is_stmt 1              @ libraries/STM32H7xx_HAL/STM32H7xx_HAL_Driver/Src/stm32h7xx_hal_rcc.c:1371:3
	b	.LBB10_12
.Ltmp407:
.LBB10_11:
	.loc	5 0 3 is_stmt 0                 @ libraries/STM32H7xx_HAL/STM32H7xx_HAL_Driver/Src/stm32h7xx_hal_rcc.c:0:3
	movw	r0, #17420
	movt	r0, #22530
.Ltmp408:
	.loc	5 1374 57 is_stmt 1             @ libraries/STM32H7xx_HAL/STM32H7xx_HAL_Driver/Src/stm32h7xx_hal_rcc.c:1374:57
	ldr	r0, [r0]
	.loc	5 1374 101 is_stmt 0            @ libraries/STM32H7xx_HAL/STM32H7xx_HAL_Driver/Src/stm32h7xx_hal_rcc.c:1374:101
	ubfx	r0, r0, #24, #6
	.loc	5 1374 5                        @ libraries/STM32H7xx_HAL/STM32H7xx_HAL_Driver/Src/stm32h7xx_hal_rcc.c:1374:5
	ldr	r1, [sp, #4]
	.loc	5 1374 44                       @ libraries/STM32H7xx_HAL/STM32H7xx_HAL_Driver/Src/stm32h7xx_hal_rcc.c:1374:44
	str	r0, [r1, #32]
	b	.LBB10_12
.Ltmp409:
.LBB10_12:
	.loc	5 0 44                          @ libraries/STM32H7xx_HAL/STM32H7xx_HAL_Driver/Src/stm32h7xx_hal_rcc.c:0:44
	movw	r0, #17408
	movt	r0, #22530
.Ltmp410:
	.loc	5 1378 12 is_stmt 1             @ libraries/STM32H7xx_HAL/STM32H7xx_HAL_Driver/Src/stm32h7xx_hal_rcc.c:1378:12
	ldr	r0, [r0]
.Ltmp411:
	.loc	5 1378 6 is_stmt 0              @ libraries/STM32H7xx_HAL/STM32H7xx_HAL_Driver/Src/stm32h7xx_hal_rcc.c:1378:6
	lsls	r0, r0, #31
	cbz	r0, .LBB10_14
	b	.LBB10_13
.LBB10_13:
.Ltmp412:
	.loc	5 1380 5 is_stmt 1              @ libraries/STM32H7xx_HAL/STM32H7xx_HAL_Driver/Src/stm32h7xx_hal_rcc.c:1380:5
	ldr	r1, [sp, #4]
	movs	r0, #1
	.loc	5 1380 33 is_stmt 0             @ libraries/STM32H7xx_HAL/STM32H7xx_HAL_Driver/Src/stm32h7xx_hal_rcc.c:1380:33
	str	r0, [r1, #12]
	.loc	5 1381 3 is_stmt 1              @ libraries/STM32H7xx_HAL/STM32H7xx_HAL_Driver/Src/stm32h7xx_hal_rcc.c:1381:3
	b	.LBB10_15
.Ltmp413:
.LBB10_14:
	.loc	5 1384 5                        @ libraries/STM32H7xx_HAL/STM32H7xx_HAL_Driver/Src/stm32h7xx_hal_rcc.c:1384:5
	ldr	r1, [sp, #4]
	movs	r0, #0
	.loc	5 1384 33 is_stmt 0             @ libraries/STM32H7xx_HAL/STM32H7xx_HAL_Driver/Src/stm32h7xx_hal_rcc.c:1384:33
	str	r0, [r1, #12]
	b	.LBB10_15
.Ltmp414:
.LBB10_15:
	.loc	5 1387 6 is_stmt 1              @ libraries/STM32H7xx_HAL/STM32H7xx_HAL_Driver/Src/stm32h7xx_hal_rcc.c:1387:6
	bl	HAL_GetREVID
	movw	r1, #4099
.Ltmp415:
	.loc	5 1387 6 is_stmt 0              @ libraries/STM32H7xx_HAL/STM32H7xx_HAL_Driver/Src/stm32h7xx_hal_rcc.c:1387:6
	cmp	r0, r1
	bhi	.LBB10_17
	b	.LBB10_16
.LBB10_16:
	.loc	5 0 6                           @ libraries/STM32H7xx_HAL/STM32H7xx_HAL_Driver/Src/stm32h7xx_hal_rcc.c:0:6
	movw	r0, #17412
	movt	r0, #22530
.Ltmp416:
	.loc	5 1389 57 is_stmt 1             @ libraries/STM32H7xx_HAL/STM32H7xx_HAL_Driver/Src/stm32h7xx_hal_rcc.c:1389:57
	ldr	r0, [r0]
	.loc	5 1389 107 is_stmt 0            @ libraries/STM32H7xx_HAL/STM32H7xx_HAL_Driver/Src/stm32h7xx_hal_rcc.c:1389:107
	ubfx	r0, r0, #12, #6
	.loc	5 1389 5                        @ libraries/STM32H7xx_HAL/STM32H7xx_HAL_Driver/Src/stm32h7xx_hal_rcc.c:1389:5
	ldr	r1, [sp, #4]
	.loc	5 1389 44                       @ libraries/STM32H7xx_HAL/STM32H7xx_HAL_Driver/Src/stm32h7xx_hal_rcc.c:1389:44
	str	r0, [r1, #16]
	.loc	5 1390 3 is_stmt 1              @ libraries/STM32H7xx_HAL/STM32H7xx_HAL_Driver/Src/stm32h7xx_hal_rcc.c:1390:3
	b	.LBB10_18
.Ltmp417:
.LBB10_17:
	.loc	5 0 3 is_stmt 0                 @ libraries/STM32H7xx_HAL/STM32H7xx_HAL_Driver/Src/stm32h7xx_hal_rcc.c:0:3
	movw	r0, #17412
	movt	r0, #22530
.Ltmp418:
	.loc	5 1393 57 is_stmt 1             @ libraries/STM32H7xx_HAL/STM32H7xx_HAL_Driver/Src/stm32h7xx_hal_rcc.c:1393:57
	ldr	r0, [r0]
	.loc	5 1393 101 is_stmt 0            @ libraries/STM32H7xx_HAL/STM32H7xx_HAL_Driver/Src/stm32h7xx_hal_rcc.c:1393:101
	ubfx	r0, r0, #24, #7
	.loc	5 1393 5                        @ libraries/STM32H7xx_HAL/STM32H7xx_HAL_Driver/Src/stm32h7xx_hal_rcc.c:1393:5
	ldr	r1, [sp, #4]
	.loc	5 1393 44                       @ libraries/STM32H7xx_HAL/STM32H7xx_HAL_Driver/Src/stm32h7xx_hal_rcc.c:1393:44
	str	r0, [r1, #16]
	b	.LBB10_18
.Ltmp419:
.LBB10_18:
	.loc	5 0 44                          @ libraries/STM32H7xx_HAL/STM32H7xx_HAL_Driver/Src/stm32h7xx_hal_rcc.c:0:44
	movw	r0, #17520
	movt	r0, #22530
.Ltmp420:
	.loc	5 1397 12 is_stmt 1             @ libraries/STM32H7xx_HAL/STM32H7xx_HAL_Driver/Src/stm32h7xx_hal_rcc.c:1397:12
	ldr	r0, [r0]
.Ltmp421:
	.loc	5 1397 6 is_stmt 0              @ libraries/STM32H7xx_HAL/STM32H7xx_HAL_Driver/Src/stm32h7xx_hal_rcc.c:1397:6
	lsls	r0, r0, #29
	cmp	r0, #0
	bpl	.LBB10_20
	b	.LBB10_19
.LBB10_19:
.Ltmp422:
	.loc	5 1399 5 is_stmt 1              @ libraries/STM32H7xx_HAL/STM32H7xx_HAL_Driver/Src/stm32h7xx_hal_rcc.c:1399:5
	ldr	r1, [sp, #4]
	movs	r0, #5
	.loc	5 1399 33 is_stmt 0             @ libraries/STM32H7xx_HAL/STM32H7xx_HAL_Driver/Src/stm32h7xx_hal_rcc.c:1399:33
	str	r0, [r1, #8]
	.loc	5 1400 3 is_stmt 1              @ libraries/STM32H7xx_HAL/STM32H7xx_HAL_Driver/Src/stm32h7xx_hal_rcc.c:1400:3
	b	.LBB10_24
.Ltmp423:
.LBB10_20:
	.loc	5 0 3 is_stmt 0                 @ libraries/STM32H7xx_HAL/STM32H7xx_HAL_Driver/Src/stm32h7xx_hal_rcc.c:0:3
	movw	r0, #17520
	movt	r0, #22530
.Ltmp424:
	.loc	5 1401 17 is_stmt 1             @ libraries/STM32H7xx_HAL/STM32H7xx_HAL_Driver/Src/stm32h7xx_hal_rcc.c:1401:17
	ldr	r0, [r0]
.Ltmp425:
	.loc	5 1401 11 is_stmt 0             @ libraries/STM32H7xx_HAL/STM32H7xx_HAL_Driver/Src/stm32h7xx_hal_rcc.c:1401:11
	lsls	r0, r0, #31
	cbz	r0, .LBB10_22
	b	.LBB10_21
.LBB10_21:
.Ltmp426:
	.loc	5 1403 5 is_stmt 1              @ libraries/STM32H7xx_HAL/STM32H7xx_HAL_Driver/Src/stm32h7xx_hal_rcc.c:1403:5
	ldr	r1, [sp, #4]
	movs	r0, #1
	.loc	5 1403 33 is_stmt 0             @ libraries/STM32H7xx_HAL/STM32H7xx_HAL_Driver/Src/stm32h7xx_hal_rcc.c:1403:33
	str	r0, [r1, #8]
	.loc	5 1404 3 is_stmt 1              @ libraries/STM32H7xx_HAL/STM32H7xx_HAL_Driver/Src/stm32h7xx_hal_rcc.c:1404:3
	b	.LBB10_23
.Ltmp427:
.LBB10_22:
	.loc	5 1407 5                        @ libraries/STM32H7xx_HAL/STM32H7xx_HAL_Driver/Src/stm32h7xx_hal_rcc.c:1407:5
	ldr	r1, [sp, #4]
	movs	r0, #0
	.loc	5 1407 33 is_stmt 0             @ libraries/STM32H7xx_HAL/STM32H7xx_HAL_Driver/Src/stm32h7xx_hal_rcc.c:1407:33
	str	r0, [r1, #8]
	b	.LBB10_23
.Ltmp428:
.LBB10_23:
	.loc	5 0 33                          @ libraries/STM32H7xx_HAL/STM32H7xx_HAL_Driver/Src/stm32h7xx_hal_rcc.c:0:33
	b	.LBB10_24
.LBB10_24:
	movw	r0, #17524
	movt	r0, #22530
.Ltmp429:
	.loc	5 1411 12 is_stmt 1             @ libraries/STM32H7xx_HAL/STM32H7xx_HAL_Driver/Src/stm32h7xx_hal_rcc.c:1411:12
	ldr	r0, [r0]
.Ltmp430:
	.loc	5 1411 6 is_stmt 0              @ libraries/STM32H7xx_HAL/STM32H7xx_HAL_Driver/Src/stm32h7xx_hal_rcc.c:1411:6
	lsls	r0, r0, #31
	cbz	r0, .LBB10_26
	b	.LBB10_25
.LBB10_25:
.Ltmp431:
	.loc	5 1413 5 is_stmt 1              @ libraries/STM32H7xx_HAL/STM32H7xx_HAL_Driver/Src/stm32h7xx_hal_rcc.c:1413:5
	ldr	r1, [sp, #4]
	movs	r0, #1
	.loc	5 1413 33 is_stmt 0             @ libraries/STM32H7xx_HAL/STM32H7xx_HAL_Driver/Src/stm32h7xx_hal_rcc.c:1413:33
	str	r0, [r1, #20]
	.loc	5 1414 3 is_stmt 1              @ libraries/STM32H7xx_HAL/STM32H7xx_HAL_Driver/Src/stm32h7xx_hal_rcc.c:1414:3
	b	.LBB10_27
.Ltmp432:
.LBB10_26:
	.loc	5 1417 5                        @ libraries/STM32H7xx_HAL/STM32H7xx_HAL_Driver/Src/stm32h7xx_hal_rcc.c:1417:5
	ldr	r1, [sp, #4]
	movs	r0, #0
	.loc	5 1417 33 is_stmt 0             @ libraries/STM32H7xx_HAL/STM32H7xx_HAL_Driver/Src/stm32h7xx_hal_rcc.c:1417:33
	str	r0, [r1, #20]
	b	.LBB10_27
.Ltmp433:
.LBB10_27:
	.loc	5 0 33                          @ libraries/STM32H7xx_HAL/STM32H7xx_HAL_Driver/Src/stm32h7xx_hal_rcc.c:0:33
	movw	r0, #17408
	movt	r0, #22530
.Ltmp434:
	.loc	5 1421 12 is_stmt 1             @ libraries/STM32H7xx_HAL/STM32H7xx_HAL_Driver/Src/stm32h7xx_hal_rcc.c:1421:12
	ldr	r0, [r0]
.Ltmp435:
	.loc	5 1421 6 is_stmt 0              @ libraries/STM32H7xx_HAL/STM32H7xx_HAL_Driver/Src/stm32h7xx_hal_rcc.c:1421:6
	lsls	r0, r0, #19
	cmp	r0, #0
	bpl	.LBB10_29
	b	.LBB10_28
.LBB10_28:
.Ltmp436:
	.loc	5 1423 5 is_stmt 1              @ libraries/STM32H7xx_HAL/STM32H7xx_HAL_Driver/Src/stm32h7xx_hal_rcc.c:1423:5
	ldr	r1, [sp, #4]
	movs	r0, #1
	.loc	5 1423 35 is_stmt 0             @ libraries/STM32H7xx_HAL/STM32H7xx_HAL_Driver/Src/stm32h7xx_hal_rcc.c:1423:35
	str	r0, [r1, #24]
	.loc	5 1424 3 is_stmt 1              @ libraries/STM32H7xx_HAL/STM32H7xx_HAL_Driver/Src/stm32h7xx_hal_rcc.c:1424:3
	b	.LBB10_30
.Ltmp437:
.LBB10_29:
	.loc	5 1427 5                        @ libraries/STM32H7xx_HAL/STM32H7xx_HAL_Driver/Src/stm32h7xx_hal_rcc.c:1427:5
	ldr	r1, [sp, #4]
	movs	r0, #0
	.loc	5 1427 35 is_stmt 0             @ libraries/STM32H7xx_HAL/STM32H7xx_HAL_Driver/Src/stm32h7xx_hal_rcc.c:1427:35
	str	r0, [r1, #24]
	b	.LBB10_30
.Ltmp438:
.LBB10_30:
	.loc	5 0 35                          @ libraries/STM32H7xx_HAL/STM32H7xx_HAL_Driver/Src/stm32h7xx_hal_rcc.c:0:35
	movw	r0, #17408
	movt	r0, #22530
.Ltmp439:
	.loc	5 1431 12 is_stmt 1             @ libraries/STM32H7xx_HAL/STM32H7xx_HAL_Driver/Src/stm32h7xx_hal_rcc.c:1431:12
	ldr	r0, [r0]
.Ltmp440:
	.loc	5 1431 6 is_stmt 0              @ libraries/STM32H7xx_HAL/STM32H7xx_HAL_Driver/Src/stm32h7xx_hal_rcc.c:1431:6
	lsls	r0, r0, #7
	cmp	r0, #0
	bpl	.LBB10_32
	b	.LBB10_31
.LBB10_31:
.Ltmp441:
	.loc	5 1433 5 is_stmt 1              @ libraries/STM32H7xx_HAL/STM32H7xx_HAL_Driver/Src/stm32h7xx_hal_rcc.c:1433:5
	ldr	r1, [sp, #4]
	movs	r0, #2
	.loc	5 1433 37 is_stmt 0             @ libraries/STM32H7xx_HAL/STM32H7xx_HAL_Driver/Src/stm32h7xx_hal_rcc.c:1433:37
	str	r0, [r1, #36]
	.loc	5 1434 3 is_stmt 1              @ libraries/STM32H7xx_HAL/STM32H7xx_HAL_Driver/Src/stm32h7xx_hal_rcc.c:1434:3
	b	.LBB10_33
.Ltmp442:
.LBB10_32:
	.loc	5 1437 5                        @ libraries/STM32H7xx_HAL/STM32H7xx_HAL_Driver/Src/stm32h7xx_hal_rcc.c:1437:5
	ldr	r1, [sp, #4]
	movs	r0, #1
	.loc	5 1437 37 is_stmt 0             @ libraries/STM32H7xx_HAL/STM32H7xx_HAL_Driver/Src/stm32h7xx_hal_rcc.c:1437:37
	str	r0, [r1, #36]
	b	.LBB10_33
.Ltmp443:
.LBB10_33:
	.loc	5 0 37                          @ libraries/STM32H7xx_HAL/STM32H7xx_HAL_Driver/Src/stm32h7xx_hal_rcc.c:0:37
	movw	r0, #17448
	movt	r0, #22530
	.loc	5 1439 54 is_stmt 1             @ libraries/STM32H7xx_HAL/STM32H7xx_HAL_Driver/Src/stm32h7xx_hal_rcc.c:1439:54
	ldr	r1, [r0]
	.loc	5 1439 64 is_stmt 0             @ libraries/STM32H7xx_HAL/STM32H7xx_HAL_Driver/Src/stm32h7xx_hal_rcc.c:1439:64
	and	r1, r1, #3
	.loc	5 1439 3                        @ libraries/STM32H7xx_HAL/STM32H7xx_HAL_Driver/Src/stm32h7xx_hal_rcc.c:1439:3
	ldr	r2, [sp, #4]
	.loc	5 1439 36                       @ libraries/STM32H7xx_HAL/STM32H7xx_HAL_Driver/Src/stm32h7xx_hal_rcc.c:1439:36
	str	r1, [r2, #40]
	.loc	5 1440 50 is_stmt 1             @ libraries/STM32H7xx_HAL/STM32H7xx_HAL_Driver/Src/stm32h7xx_hal_rcc.c:1440:50
	ldr	r0, [r0]
	.loc	5 1440 82 is_stmt 0             @ libraries/STM32H7xx_HAL/STM32H7xx_HAL_Driver/Src/stm32h7xx_hal_rcc.c:1440:82
	ubfx	r0, r0, #4, #6
	.loc	5 1440 3                        @ libraries/STM32H7xx_HAL/STM32H7xx_HAL_Driver/Src/stm32h7xx_hal_rcc.c:1440:3
	ldr	r1, [sp, #4]
	.loc	5 1440 31                       @ libraries/STM32H7xx_HAL/STM32H7xx_HAL_Driver/Src/stm32h7xx_hal_rcc.c:1440:31
	str	r0, [r1, #44]
	movw	r1, #17456
	movt	r1, #22530
	.loc	5 1441 50 is_stmt 1             @ libraries/STM32H7xx_HAL/STM32H7xx_HAL_Driver/Src/stm32h7xx_hal_rcc.c:1441:50
	ldr	r0, [r1]
	.loc	5 1441 59 is_stmt 0             @ libraries/STM32H7xx_HAL/STM32H7xx_HAL_Driver/Src/stm32h7xx_hal_rcc.c:1441:59
	bfc	r0, #9, #23
	.loc	5 1441 101                      @ libraries/STM32H7xx_HAL/STM32H7xx_HAL_Driver/Src/stm32h7xx_hal_rcc.c:1441:101
	adds	r0, #1
	.loc	5 1441 3                        @ libraries/STM32H7xx_HAL/STM32H7xx_HAL_Driver/Src/stm32h7xx_hal_rcc.c:1441:3
	ldr	r2, [sp, #4]
	.loc	5 1441 31                       @ libraries/STM32H7xx_HAL/STM32H7xx_HAL_Driver/Src/stm32h7xx_hal_rcc.c:1441:31
	str	r0, [r2, #48]
	.loc	5 1442 50 is_stmt 1             @ libraries/STM32H7xx_HAL/STM32H7xx_HAL_Driver/Src/stm32h7xx_hal_rcc.c:1442:50
	ldr	r0, [r1]
	.loc	5 1442 59 is_stmt 0             @ libraries/STM32H7xx_HAL/STM32H7xx_HAL_Driver/Src/stm32h7xx_hal_rcc.c:1442:59
	and	r2, r0, #2130706432
	movs	r0, #1
	.loc	5 1442 101                      @ libraries/STM32H7xx_HAL/STM32H7xx_HAL_Driver/Src/stm32h7xx_hal_rcc.c:1442:101
	add.w	r2, r0, r2, lsr #24
	.loc	5 1442 3                        @ libraries/STM32H7xx_HAL/STM32H7xx_HAL_Driver/Src/stm32h7xx_hal_rcc.c:1442:3
	ldr	r3, [sp, #4]
	.loc	5 1442 31                       @ libraries/STM32H7xx_HAL/STM32H7xx_HAL_Driver/Src/stm32h7xx_hal_rcc.c:1442:31
	str	r2, [r3, #60]
	.loc	5 1443 50 is_stmt 1             @ libraries/STM32H7xx_HAL/STM32H7xx_HAL_Driver/Src/stm32h7xx_hal_rcc.c:1443:50
	ldr	r2, [r1]
	.loc	5 1443 59 is_stmt 0             @ libraries/STM32H7xx_HAL/STM32H7xx_HAL_Driver/Src/stm32h7xx_hal_rcc.c:1443:59
	uxth	r2, r2
	.loc	5 1443 101                      @ libraries/STM32H7xx_HAL/STM32H7xx_HAL_Driver/Src/stm32h7xx_hal_rcc.c:1443:101
	add.w	r2, r0, r2, lsr #9
	.loc	5 1443 3                        @ libraries/STM32H7xx_HAL/STM32H7xx_HAL_Driver/Src/stm32h7xx_hal_rcc.c:1443:3
	ldr	r3, [sp, #4]
	.loc	5 1443 31                       @ libraries/STM32H7xx_HAL/STM32H7xx_HAL_Driver/Src/stm32h7xx_hal_rcc.c:1443:31
	str	r2, [r3, #52]
	.loc	5 1444 50 is_stmt 1             @ libraries/STM32H7xx_HAL/STM32H7xx_HAL_Driver/Src/stm32h7xx_hal_rcc.c:1444:50
	ldr	r1, [r1]
	.loc	5 1444 59 is_stmt 0             @ libraries/STM32H7xx_HAL/STM32H7xx_HAL_Driver/Src/stm32h7xx_hal_rcc.c:1444:59
	and	r1, r1, #8323072
	.loc	5 1444 101                      @ libraries/STM32H7xx_HAL/STM32H7xx_HAL_Driver/Src/stm32h7xx_hal_rcc.c:1444:101
	add.w	r0, r0, r1, lsr #16
	.loc	5 1444 3                        @ libraries/STM32H7xx_HAL/STM32H7xx_HAL_Driver/Src/stm32h7xx_hal_rcc.c:1444:3
	ldr	r1, [sp, #4]
	.loc	5 1444 31                       @ libraries/STM32H7xx_HAL/STM32H7xx_HAL_Driver/Src/stm32h7xx_hal_rcc.c:1444:31
	str	r0, [r1, #56]
	movw	r0, #17452
	movt	r0, #22530
	.loc	5 1445 52 is_stmt 1             @ libraries/STM32H7xx_HAL/STM32H7xx_HAL_Driver/Src/stm32h7xx_hal_rcc.c:1445:52
	ldr	r1, [r0]
	.loc	5 1445 60 is_stmt 0             @ libraries/STM32H7xx_HAL/STM32H7xx_HAL_Driver/Src/stm32h7xx_hal_rcc.c:1445:60
	and	r1, r1, #12
	.loc	5 1445 3                        @ libraries/STM32H7xx_HAL/STM32H7xx_HAL_Driver/Src/stm32h7xx_hal_rcc.c:1445:3
	ldr	r2, [sp, #4]
	.loc	5 1445 33                       @ libraries/STM32H7xx_HAL/STM32H7xx_HAL_Driver/Src/stm32h7xx_hal_rcc.c:1445:33
	str	r1, [r2, #64]
	.loc	5 1446 55 is_stmt 1             @ libraries/STM32H7xx_HAL/STM32H7xx_HAL_Driver/Src/stm32h7xx_hal_rcc.c:1446:55
	ldr	r0, [r0]
	.loc	5 1446 89 is_stmt 0             @ libraries/STM32H7xx_HAL/STM32H7xx_HAL_Driver/Src/stm32h7xx_hal_rcc.c:1446:89
	ubfx	r0, r0, #1, #1
	.loc	5 1446 3                        @ libraries/STM32H7xx_HAL/STM32H7xx_HAL_Driver/Src/stm32h7xx_hal_rcc.c:1446:3
	ldr	r1, [sp, #4]
	.loc	5 1446 36                       @ libraries/STM32H7xx_HAL/STM32H7xx_HAL_Driver/Src/stm32h7xx_hal_rcc.c:1446:36
	str	r0, [r1, #68]
	movw	r0, #17460
	movt	r0, #22530
	.loc	5 1447 55 is_stmt 1             @ libraries/STM32H7xx_HAL/STM32H7xx_HAL_Driver/Src/stm32h7xx_hal_rcc.c:1447:55
	ldr	r0, [r0]
	.loc	5 1447 65 is_stmt 0             @ libraries/STM32H7xx_HAL/STM32H7xx_HAL_Driver/Src/stm32h7xx_hal_rcc.c:1447:65
	uxth	r0, r0
	.loc	5 1447 89                       @ libraries/STM32H7xx_HAL/STM32H7xx_HAL_Driver/Src/stm32h7xx_hal_rcc.c:1447:89
	lsrs	r0, r0, #3
	.loc	5 1447 3                        @ libraries/STM32H7xx_HAL/STM32H7xx_HAL_Driver/Src/stm32h7xx_hal_rcc.c:1447:3
	ldr	r1, [sp, #4]
	.loc	5 1447 35                       @ libraries/STM32H7xx_HAL/STM32H7xx_HAL_Driver/Src/stm32h7xx_hal_rcc.c:1447:35
	str	r0, [r1, #72]
	.loc	5 1448 1 is_stmt 1              @ libraries/STM32H7xx_HAL/STM32H7xx_HAL_Driver/Src/stm32h7xx_hal_rcc.c:1448:1
	add	sp, #8
	pop	{r7, pc}
.Ltmp444:
.Lfunc_end10:
	.size	HAL_RCC_GetOscConfig, .Lfunc_end10-HAL_RCC_GetOscConfig
	.cfi_endproc
	.cantunwind
	.fnend
                                        @ -- End function
	.section	.text.HAL_RCC_GetClockConfig,"ax",%progbits
	.hidden	HAL_RCC_GetClockConfig          @ -- Begin function HAL_RCC_GetClockConfig
	.globl	HAL_RCC_GetClockConfig
	.p2align	3
	.type	HAL_RCC_GetClockConfig,%function
	.code	16                              @ @HAL_RCC_GetClockConfig
	.thumb_func
HAL_RCC_GetClockConfig:
.Lfunc_begin11:
	.loc	5 1459 0                        @ libraries/STM32H7xx_HAL/STM32H7xx_HAL_Driver/Src/stm32h7xx_hal_rcc.c:1459:0
	.fnstart
	.cfi_startproc
@ %bb.0:
	.pad	#8
	sub	sp, #8
	.cfi_def_cfa_offset 8
	str	r0, [sp, #4]
	str	r1, [sp]
.Ltmp445:
	.loc	5 1461 3 prologue_end           @ libraries/STM32H7xx_HAL/STM32H7xx_HAL_Driver/Src/stm32h7xx_hal_rcc.c:1461:3
	ldr	r1, [sp, #4]
	movs	r0, #63
	.loc	5 1461 32 is_stmt 0             @ libraries/STM32H7xx_HAL/STM32H7xx_HAL_Driver/Src/stm32h7xx_hal_rcc.c:1461:32
	str	r0, [r1]
	movw	r0, #17424
	movt	r0, #22530
	.loc	5 1465 53 is_stmt 1             @ libraries/STM32H7xx_HAL/STM32H7xx_HAL_Driver/Src/stm32h7xx_hal_rcc.c:1465:53
	ldr	r0, [r0]
	.loc	5 1465 58 is_stmt 0             @ libraries/STM32H7xx_HAL/STM32H7xx_HAL_Driver/Src/stm32h7xx_hal_rcc.c:1465:58
	and	r0, r0, #7
	.loc	5 1465 3                        @ libraries/STM32H7xx_HAL/STM32H7xx_HAL_Driver/Src/stm32h7xx_hal_rcc.c:1465:3
	ldr	r1, [sp, #4]
	.loc	5 1465 35                       @ libraries/STM32H7xx_HAL/STM32H7xx_HAL_Driver/Src/stm32h7xx_hal_rcc.c:1465:35
	str	r0, [r1, #4]
	movw	r0, #17432
	movt	r0, #22530
	.loc	5 1468 54 is_stmt 1             @ libraries/STM32H7xx_HAL/STM32H7xx_HAL_Driver/Src/stm32h7xx_hal_rcc.c:1468:54
	ldr	r1, [r0]
	.loc	5 1468 61 is_stmt 0             @ libraries/STM32H7xx_HAL/STM32H7xx_HAL_Driver/Src/stm32h7xx_hal_rcc.c:1468:61
	and	r1, r1, #3840
	.loc	5 1468 3                        @ libraries/STM32H7xx_HAL/STM32H7xx_HAL_Driver/Src/stm32h7xx_hal_rcc.c:1468:3
	ldr	r2, [sp, #4]
	.loc	5 1468 36                       @ libraries/STM32H7xx_HAL/STM32H7xx_HAL_Driver/Src/stm32h7xx_hal_rcc.c:1468:36
	str	r1, [r2, #8]
	.loc	5 1471 54 is_stmt 1             @ libraries/STM32H7xx_HAL/STM32H7xx_HAL_Driver/Src/stm32h7xx_hal_rcc.c:1471:54
	ldr	r1, [r0]
	.loc	5 1471 61 is_stmt 0             @ libraries/STM32H7xx_HAL/STM32H7xx_HAL_Driver/Src/stm32h7xx_hal_rcc.c:1471:61
	and	r1, r1, #15
	.loc	5 1471 3                        @ libraries/STM32H7xx_HAL/STM32H7xx_HAL_Driver/Src/stm32h7xx_hal_rcc.c:1471:3
	ldr	r2, [sp, #4]
	.loc	5 1471 36                       @ libraries/STM32H7xx_HAL/STM32H7xx_HAL_Driver/Src/stm32h7xx_hal_rcc.c:1471:36
	str	r1, [r2, #12]
	.loc	5 1474 55 is_stmt 1             @ libraries/STM32H7xx_HAL/STM32H7xx_HAL_Driver/Src/stm32h7xx_hal_rcc.c:1474:55
	ldr	r0, [r0]
	.loc	5 1474 62 is_stmt 0             @ libraries/STM32H7xx_HAL/STM32H7xx_HAL_Driver/Src/stm32h7xx_hal_rcc.c:1474:62
	and	r0, r0, #112
	.loc	5 1474 3                        @ libraries/STM32H7xx_HAL/STM32H7xx_HAL_Driver/Src/stm32h7xx_hal_rcc.c:1474:3
	ldr	r1, [sp, #4]
	.loc	5 1474 37                       @ libraries/STM32H7xx_HAL/STM32H7xx_HAL_Driver/Src/stm32h7xx_hal_rcc.c:1474:37
	str	r0, [r1, #16]
	movw	r0, #17436
	movt	r0, #22530
	.loc	5 1477 55 is_stmt 1             @ libraries/STM32H7xx_HAL/STM32H7xx_HAL_Driver/Src/stm32h7xx_hal_rcc.c:1477:55
	ldr	r1, [r0]
	.loc	5 1477 62 is_stmt 0             @ libraries/STM32H7xx_HAL/STM32H7xx_HAL_Driver/Src/stm32h7xx_hal_rcc.c:1477:62
	and	r1, r1, #112
	.loc	5 1477 3                        @ libraries/STM32H7xx_HAL/STM32H7xx_HAL_Driver/Src/stm32h7xx_hal_rcc.c:1477:3
	ldr	r2, [sp, #4]
	.loc	5 1477 37                       @ libraries/STM32H7xx_HAL/STM32H7xx_HAL_Driver/Src/stm32h7xx_hal_rcc.c:1477:37
	str	r1, [r2, #20]
	.loc	5 1480 55 is_stmt 1             @ libraries/STM32H7xx_HAL/STM32H7xx_HAL_Driver/Src/stm32h7xx_hal_rcc.c:1480:55
	ldr	r0, [r0]
	.loc	5 1480 62 is_stmt 0             @ libraries/STM32H7xx_HAL/STM32H7xx_HAL_Driver/Src/stm32h7xx_hal_rcc.c:1480:62
	and	r0, r0, #1792
	.loc	5 1480 3                        @ libraries/STM32H7xx_HAL/STM32H7xx_HAL_Driver/Src/stm32h7xx_hal_rcc.c:1480:3
	ldr	r1, [sp, #4]
	.loc	5 1480 37                       @ libraries/STM32H7xx_HAL/STM32H7xx_HAL_Driver/Src/stm32h7xx_hal_rcc.c:1480:37
	str	r0, [r1, #24]
	movw	r0, #17440
	movt	r0, #22530
	.loc	5 1483 55 is_stmt 1             @ libraries/STM32H7xx_HAL/STM32H7xx_HAL_Driver/Src/stm32h7xx_hal_rcc.c:1483:55
	ldr	r0, [r0]
	.loc	5 1483 62 is_stmt 0             @ libraries/STM32H7xx_HAL/STM32H7xx_HAL_Driver/Src/stm32h7xx_hal_rcc.c:1483:62
	and	r0, r0, #112
	.loc	5 1483 3                        @ libraries/STM32H7xx_HAL/STM32H7xx_HAL_Driver/Src/stm32h7xx_hal_rcc.c:1483:3
	ldr	r1, [sp, #4]
	.loc	5 1483 37                       @ libraries/STM32H7xx_HAL/STM32H7xx_HAL_Driver/Src/stm32h7xx_hal_rcc.c:1483:37
	str	r0, [r1, #28]
	movw	r0, #8192
	movt	r0, #20992
	.loc	5 1487 34 is_stmt 1             @ libraries/STM32H7xx_HAL/STM32H7xx_HAL_Driver/Src/stm32h7xx_hal_rcc.c:1487:34
	ldr	r0, [r0]
	.loc	5 1487 38 is_stmt 0             @ libraries/STM32H7xx_HAL/STM32H7xx_HAL_Driver/Src/stm32h7xx_hal_rcc.c:1487:38
	and	r0, r0, #15
	.loc	5 1487 4                        @ libraries/STM32H7xx_HAL/STM32H7xx_HAL_Driver/Src/stm32h7xx_hal_rcc.c:1487:4
	ldr	r1, [sp]
	.loc	5 1487 14                       @ libraries/STM32H7xx_HAL/STM32H7xx_HAL_Driver/Src/stm32h7xx_hal_rcc.c:1487:14
	str	r0, [r1]
	.loc	5 1488 1 is_stmt 1              @ libraries/STM32H7xx_HAL/STM32H7xx_HAL_Driver/Src/stm32h7xx_hal_rcc.c:1488:1
	add	sp, #8
	bx	lr
.Ltmp446:
.Lfunc_end11:
	.size	HAL_RCC_GetClockConfig, .Lfunc_end11-HAL_RCC_GetClockConfig
	.cfi_endproc
	.cantunwind
	.fnend
                                        @ -- End function
	.section	.text.HAL_RCC_NMI_IRQHandler,"ax",%progbits
	.hidden	HAL_RCC_NMI_IRQHandler          @ -- Begin function HAL_RCC_NMI_IRQHandler
	.globl	HAL_RCC_NMI_IRQHandler
	.p2align	3
	.type	HAL_RCC_NMI_IRQHandler,%function
	.code	16                              @ @HAL_RCC_NMI_IRQHandler
	.thumb_func
HAL_RCC_NMI_IRQHandler:
.Lfunc_begin12:
	.loc	5 1496 0                        @ libraries/STM32H7xx_HAL/STM32H7xx_HAL_Driver/Src/stm32h7xx_hal_rcc.c:1496:0
	.fnstart
	.cfi_startproc
@ %bb.0:
	.save	{r7, lr}
	push	{r7, lr}
	.cfi_def_cfa_offset 8
	.cfi_offset lr, -4
	.cfi_offset r7, -8
	movw	r0, #17508
	movt	r0, #22530
.Ltmp447:
	.loc	5 1498 6 prologue_end           @ libraries/STM32H7xx_HAL/STM32H7xx_HAL_Driver/Src/stm32h7xx_hal_rcc.c:1498:6
	ldr	r0, [r0]
.Ltmp448:
	.loc	5 1498 6 is_stmt 0              @ libraries/STM32H7xx_HAL/STM32H7xx_HAL_Driver/Src/stm32h7xx_hal_rcc.c:1498:6
	lsls	r0, r0, #21
	cmp	r0, #0
	bpl	.LBB12_2
	b	.LBB12_1
.LBB12_1:
.Ltmp449:
	.loc	5 1501 5 is_stmt 1              @ libraries/STM32H7xx_HAL/STM32H7xx_HAL_Driver/Src/stm32h7xx_hal_rcc.c:1501:5
	bl	HAL_RCC_CSSCallback
	movw	r1, #17512
	movt	r1, #22530
	mov.w	r0, #1024
	.loc	5 1504 5                        @ libraries/STM32H7xx_HAL/STM32H7xx_HAL_Driver/Src/stm32h7xx_hal_rcc.c:1504:5
	str	r0, [r1]
	.loc	5 1505 3                        @ libraries/STM32H7xx_HAL/STM32H7xx_HAL_Driver/Src/stm32h7xx_hal_rcc.c:1505:3
	b	.LBB12_2
.Ltmp450:
.LBB12_2:
	.loc	5 1506 1                        @ libraries/STM32H7xx_HAL/STM32H7xx_HAL_Driver/Src/stm32h7xx_hal_rcc.c:1506:1
	pop	{r7, pc}
.Ltmp451:
.Lfunc_end12:
	.size	HAL_RCC_NMI_IRQHandler, .Lfunc_end12-HAL_RCC_NMI_IRQHandler
	.cfi_endproc
	.cantunwind
	.fnend
                                        @ -- End function
	.section	.text.HAL_RCC_CSSCallback,"ax",%progbits
	.hidden	HAL_RCC_CSSCallback             @ -- Begin function HAL_RCC_CSSCallback
	.weak	HAL_RCC_CSSCallback
	.p2align	3
	.type	HAL_RCC_CSSCallback,%function
	.code	16                              @ @HAL_RCC_CSSCallback
	.thumb_func
HAL_RCC_CSSCallback:
.Lfunc_begin13:
	.loc	5 1513 0                        @ libraries/STM32H7xx_HAL/STM32H7xx_HAL_Driver/Src/stm32h7xx_hal_rcc.c:1513:0
	.fnstart
	.cfi_startproc
@ %bb.0:
	.loc	5 1517 1 prologue_end           @ libraries/STM32H7xx_HAL/STM32H7xx_HAL_Driver/Src/stm32h7xx_hal_rcc.c:1517:1
	bx	lr
.Ltmp452:
.Lfunc_end13:
	.size	HAL_RCC_CSSCallback, .Lfunc_end13-HAL_RCC_CSSCallback
	.cfi_endproc
	.cantunwind
	.fnend
                                        @ -- End function
	.file	6 "E:\\STM32\\Learning\\STM32H750_ART_PI_RGBLCD" "libraries/STM32H7xx_HAL/STM32H7xx_HAL_Driver/Inc\\stm32h7xx_hal_rcc.h"
	.file	7 "E:\\STM32\\Learning\\STM32H750_ART_PI_RGBLCD" "libraries/STM32H7xx_HAL/STM32H7xx_HAL_Driver/Inc\\stm32h7xx_hal_gpio.h"
	.section	".note.GNU-stack","",%progbits
	.eabi_attribute	30, 6	@ Tag_ABI_optimization_goals
	.ARM_attribute	16, 1	@ Tag_AV_eba