	.text
	.syntax unified
	.eabi_attribute	67, "2.09"	@ Tag_conformance
	.cpu	cortex-m7
	.eabi_attribute	6, 13	@ Tag_CPU_arch
	.eabi_attribute	7, 77	@ Tag_CPU_arch_profile
	.eabi_attribute	8, 0	@ Tag_ARM_ISA_use
	.eabi_attribute	9, 2	@ Tag_THUMB_ISA_use
	.fpu	fpv5-d16
	.eabi_attribute	36, 1	@ Tag_FP_HP_extension
	.eabi_attribute	34, 1	@ Tag_CPU_unaligned_access
	.eabi_attribute	17, 1	@ Tag_ABI_PCS_GOT_use
	.eabi_attribute	20, 2	@ Tag_ABI_FP_denormal
	.eabi_attribute	21, 0	@ Tag_ABI_FP_exceptions
	.eabi_attribute	23, 1	@ Tag_ABI_FP_number_model
	.eabi_attribute	24, 1	@ Tag_ABI_align_needed
	.eabi_attribute	25, 1	@ Tag_ABI_align_preserved
	.eabi_attribute	28, 1	@ Tag_ABI_VFP_args
	.eabi_attribute	38, 1	@ Tag_ABI_FP_16bit_format
	.eabi_attribute	18, 2	@ Tag_ABI_PCS_wchar_t
	.eabi_attribute	26, 1	@ Tag_ABI_enum_size
	.eabi_attribute	14, 0	@ Tag_ABI_PCS_R9_use
	.file	"stm32h7xx_hal_sdram.c"
	.file	1 "E:\\Smart-access-control\\Hardware\\CODE" "libraries/STM32H7xx_HAL/STM32H7xx_HAL_Driver/Inc/stm32h7xx_hal_def.h"
	.file	2 "E:\\Smart-access-control\\Hardware\\CODE" "libraries/STM32H7xx_HAL/STM32H7xx_HAL_Driver/Inc\\stm32h7xx_hal_sdram.h"
	.file	3 "E:\\Smart-access-control\\Hardware\\CODE" "libraries/STM32H7xx_HAL/STM32H7xx_HAL_Driver/Inc\\stm32h7xx_hal_mdma.h"
	.file	4 "D:\\Keil_v5\\ARM\\ARMCLANG\\Bin\\..\\include" "stdint.h"
	.file	5 "E:\\Smart-access-control\\Hardware\\CODE" "libraries/STM32H7xx_HAL/CMSIS/Device/ST/STM32H7xx/Include/stm32h750xx.h"
	.file	6 "E:\\Smart-access-control\\Hardware\\CODE" "libraries/STM32H7xx_HAL/STM32H7xx_HAL_Driver/Inc/stm32h7xx_ll_fmc.h"
	.section	.text.HAL_SDRAM_Init,"ax",%progbits
	.hidden	HAL_SDRAM_Init                  @ -- Begin function HAL_SDRAM_Init
	.globl	HAL_SDRAM_Init
	.p2align	3
	.type	HAL_SDRAM_Init,%function
	.code	16                              @ @HAL_SDRAM_Init
	.thumb_func
HAL_SDRAM_Init:
.Lfunc_begin0:
	.file	7 "E:\\Smart-access-control\\Hardware\\CODE" "libraries/STM32H7xx_HAL/STM32H7xx_HAL_Driver/Src/stm32h7xx_hal_sdram.c"
	.loc	7 171 0                         @ libraries/STM32H7xx_HAL/STM32H7xx_HAL_Driver/Src/stm32h7xx_hal_sdram.c:171:0
	.fnstart
	.cfi_sections .debug_frame
	.cfi_startproc
@ %bb.0:
	.save	{r7, lr}
	push	{r7, lr}
	.cfi_def_cfa_offset 8
	.cfi_offset lr, -4
	.cfi_offset r7, -8
	.pad	#16
	sub	sp, #16
	.cfi_def_cfa_offset 24
	str	r0, [sp, #8]
	str	r1, [sp, #4]
.Ltmp0:
	.loc	7 173 7 prologue_end            @ libraries/STM32H7xx_HAL/STM32H7xx_HAL_Driver/Src/stm32h7xx_hal_sdram.c:173:7
	ldr	r0, [sp, #8]
.Ltmp1:
	.loc	7 173 7 is_stmt 0               @ libraries/STM32H7xx_HAL/STM32H7xx_HAL_Driver/Src/stm32h7xx_hal_sdram.c:173:7
	cbnz	r0, .LBB0_2
	b	.LBB0_1
.LBB0_1:
	.loc	7 0 7                           @ libraries/STM32H7xx_HAL/STM32H7xx_HAL_Driver/Src/stm32h7xx_hal_sdram.c:0:7
	movs	r0, #1
.Ltmp2:
	.loc	7 175 5 is_stmt 1               @ libraries/STM32H7xx_HAL/STM32H7xx_HAL_Driver/Src/stm32h7xx_hal_sdram.c:175:5
	strb.w	r0, [sp, #15]
	b	.LBB0_5
.Ltmp3:
.LBB0_2:
	.loc	7 178 7                         @ libraries/STM32H7xx_HAL/STM32H7xx_HAL_Driver/Src/stm32h7xx_hal_sdram.c:178:7
	ldr	r0, [sp, #8]
	.loc	7 178 15 is_stmt 0              @ libraries/STM32H7xx_HAL/STM32H7xx_HAL_Driver/Src/stm32h7xx_hal_sdram.c:178:15
	ldrb.w	r0, [r0, #44]
.Ltmp4:
	.loc	7 178 7                         @ libraries/STM32H7xx_HAL/STM32H7xx_HAL_Driver/Src/stm32h7xx_hal_sdram.c:178:7
	cbnz	r0, .LBB0_4
	b	.LBB0_3
.LBB0_3:
.Ltmp5:
	.loc	7 181 5 is_stmt 1               @ libraries/STM32H7xx_HAL/STM32H7xx_HAL_Driver/Src/stm32h7xx_hal_sdram.c:181:5
	ldr	r1, [sp, #8]
	movs	r0, #0
	.loc	7 181 18 is_stmt 0              @ libraries/STM32H7xx_HAL/STM32H7xx_HAL_Driver/Src/stm32h7xx_hal_sdram.c:181:18
	strb.w	r0, [r1, #45]
	.loc	7 195 23 is_stmt 1              @ libraries/STM32H7xx_HAL/STM32H7xx_HAL_Driver/Src/stm32h7xx_hal_sdram.c:195:23
	ldr	r0, [sp, #8]
	.loc	7 195 5 is_stmt 0               @ libraries/STM32H7xx_HAL/STM32H7xx_HAL_Driver/Src/stm32h7xx_hal_sdram.c:195:5
	bl	HAL_SDRAM_MspInit
	.loc	7 197 3 is_stmt 1               @ libraries/STM32H7xx_HAL/STM32H7xx_HAL_Driver/Src/stm32h7xx_hal_sdram.c:197:3
	b	.LBB0_4
.Ltmp6:
.LBB0_4:
	.loc	7 200 3                         @ libraries/STM32H7xx_HAL/STM32H7xx_HAL_Driver/Src/stm32h7xx_hal_sdram.c:200:3
	ldr	r1, [sp, #8]
	movs	r0, #2
	.loc	7 200 17 is_stmt 0              @ libraries/STM32H7xx_HAL/STM32H7xx_HAL_Driver/Src/stm32h7xx_hal_sdram.c:200:17
	strb.w	r0, [r1, #44]
	.loc	7 203 24 is_stmt 1              @ libraries/STM32H7xx_HAL/STM32H7xx_HAL_Driver/Src/stm32h7xx_hal_sdram.c:203:24
	ldr	r1, [sp, #8]
	.loc	7 203 32 is_stmt 0              @ libraries/STM32H7xx_HAL/STM32H7xx_HAL_Driver/Src/stm32h7xx_hal_sdram.c:203:32
	ldr	r0, [r1], #4
	.loc	7 203 9                         @ libraries/STM32H7xx_HAL/STM32H7xx_HAL_Driver/Src/stm32h7xx_hal_sdram.c:203:9
	bl	FMC_SDRAM_Init
	.loc	7 206 31 is_stmt 1              @ libraries/STM32H7xx_HAL/STM32H7xx_HAL_Driver/Src/stm32h7xx_hal_sdram.c:206:31
	ldr	r2, [sp, #8]
	.loc	7 206 49 is_stmt 0              @ libraries/STM32H7xx_HAL/STM32H7xx_HAL_Driver/Src/stm32h7xx_hal_sdram.c:206:49
	ldr	r1, [sp, #4]
	.loc	7 206 39                        @ libraries/STM32H7xx_HAL/STM32H7xx_HAL_Driver/Src/stm32h7xx_hal_sdram.c:206:39
	ldr	r0, [r2]
	.loc	7 206 70                        @ libraries/STM32H7xx_HAL/STM32H7xx_HAL_Driver/Src/stm32h7xx_hal_sdram.c:206:70
	ldr	r2, [r2, #4]
	.loc	7 206 9                         @ libraries/STM32H7xx_HAL/STM32H7xx_HAL_Driver/Src/stm32h7xx_hal_sdram.c:206:9
	bl	FMC_SDRAM_Timing_Init
	movw	r1, #16384
	movt	r1, #20992
	.loc	7 209 3 is_stmt 1               @ libraries/STM32H7xx_HAL/STM32H7xx_HAL_Driver/Src/stm32h7xx_hal_sdram.c:209:3
	ldr	r0, [r1]
	orr	r0, r0, #-2147483648
	str	r0, [r1]
	.loc	7 211 3                         @ libraries/STM32H7xx_HAL/STM32H7xx_HAL_Driver/Src/stm32h7xx_hal_sdram.c:211:3
	ldr	r1, [sp, #8]
	movs	r0, #1
	.loc	7 211 17 is_stmt 0              @ libraries/STM32H7xx_HAL/STM32H7xx_HAL_Driver/Src/stm32h7xx_hal_sdram.c:211:17
	strb.w	r0, [r1, #44]
	movs	r0, #0
	.loc	7 213 3 is_stmt 1               @ libraries/STM32H7xx_HAL/STM32H7xx_HAL_Driver/Src/stm32h7xx_hal_sdram.c:213:3
	strb.w	r0, [sp, #15]
	b	.LBB0_5
.LBB0_5:
	.loc	7 214 1                         @ libraries/STM32H7xx_HAL/STM32H7xx_HAL_Driver/Src/stm32h7xx_hal_sdram.c:214:1
	ldrb.w	r0, [sp, #15]
	add	sp, #16
	pop	{r7, pc}
.Ltmp7:
.Lfunc_end0:
	.size	HAL_SDRAM_Init, .Lfunc_end0-HAL_SDRAM_Init
	.cfi_endproc
	.cantunwind
	.fnend
                                        @ -- End function
	.section	.text.HAL_SDRAM_MspInit,"ax",%progbits
	.hidden	HAL_SDRAM_MspInit               @ -- Begin function HAL_SDRAM_MspInit
	.weak	HAL_SDRAM_MspInit
	.p2align	3
	.type	HAL_SDRAM_MspInit,%function
	.code	16                              @ @HAL_SDRAM_MspInit
	.thumb_func
HAL_SDRAM_MspInit:
.Lfunc_begin1:
	.loc	7 256 0                         @ libraries/STM32H7xx_HAL/STM32H7xx_HAL_Driver/Src/stm32h7xx_hal_sdram.c:256:0
	.fnstart
	.cfi_startproc
@ %bb.0:
	.pad	#4
	sub	sp, #4
	.cfi_def_cfa_offset 4
	str	r0, [sp]
.Ltmp8:
	.loc	7 263 1 prologue_end            @ libraries/STM32H7xx_HAL/STM32H7xx_HAL_Driver/Src/stm32h7xx_hal_sdram.c:263:1
	add	sp, #4
	bx	lr
.Ltmp9:
.Lfunc_end1:
	.size	HAL_SDRAM_MspInit, .Lfunc_end1-HAL_SDRAM_MspInit
	.cfi_endproc
	.cantunwind
	.fnend
                                        @ -- End function
	.section	.text.HAL_SDRAM_DeInit,"ax",%progbits
	.hidden	HAL_SDRAM_DeInit                @ -- Begin function HAL_SDRAM_DeInit
	.globl	HAL_SDRAM_DeInit
	.p2align	3
	.type	HAL_SDRAM_DeInit,%function
	.code	16                              @ @HAL_SDRAM_DeInit
	.thumb_func
HAL_SDRAM_DeInit:
.Lfunc_begin2:
	.loc	7 223 0                         @ libraries/STM32H7xx_HAL/STM32H7xx_HAL_Driver/Src/stm32h7xx_hal_sdram.c:223:0
	.fnstart
	.cfi_startproc
@ %bb.0:
	.save	{r7, lr}
	push	{r7, lr}
	.cfi_def_cfa_offset 8
	.cfi_offset lr, -4
	.cfi_offset r7, -8
	.pad	#8
	sub	sp, #8
	.cfi_def_cfa_offset 16
	str	r0, [sp, #4]
.Ltmp10:
	.loc	7 234 23 prologue_end           @ libraries/STM32H7xx_HAL/STM32H7xx_HAL_Driver/Src/stm32h7xx_hal_sdram.c:234:23
	ldr	r0, [sp, #4]
	.loc	7 234 3 is_stmt 0               @ libraries/STM32H7xx_HAL/STM32H7xx_HAL_Driver/Src/stm32h7xx_hal_sdram.c:234:3
	bl	HAL_SDRAM_MspDeInit
	.loc	7 238 26 is_stmt 1              @ libraries/STM32H7xx_HAL/STM32H7xx_HAL_Driver/Src/stm32h7xx_hal_sdram.c:238:26
	ldr	r1, [sp, #4]
	.loc	7 238 34 is_stmt 0              @ libraries/STM32H7xx_HAL/STM32H7xx_HAL_Driver/Src/stm32h7xx_hal_sdram.c:238:34
	ldr	r0, [r1]
	.loc	7 238 57                        @ libraries/STM32H7xx_HAL/STM32H7xx_HAL_Driver/Src/stm32h7xx_hal_sdram.c:238:57
	ldr	r1, [r1, #4]
	.loc	7 238 9                         @ libraries/STM32H7xx_HAL/STM32H7xx_HAL_Driver/Src/stm32h7xx_hal_sdram.c:238:9
	bl	FMC_SDRAM_DeInit
	.loc	7 241 3 is_stmt 1               @ libraries/STM32H7xx_HAL/STM32H7xx_HAL_Driver/Src/stm32h7xx_hal_sdram.c:241:3
	ldr	r1, [sp, #4]
	movs	r0, #0
	.loc	7 241 17 is_stmt 0              @ libraries/STM32H7xx_HAL/STM32H7xx_HAL_Driver/Src/stm32h7xx_hal_sdram.c:241:17
	strb.w	r0, [r1, #44]
	.loc	7 244 3 is_stmt 1               @ libraries/STM32H7xx_HAL/STM32H7xx_HAL_Driver/Src/stm32h7xx_hal_sdram.c:244:3
	b	.LBB2_1
.LBB2_1:
.Ltmp11:
	.loc	7 244 3 is_stmt 0               @ libraries/STM32H7xx_HAL/STM32H7xx_HAL_Driver/Src/stm32h7xx_hal_sdram.c:244:3
	ldr	r1, [sp, #4]
	movs	r0, #0
	strb.w	r0, [r1, #45]
	b	.LBB2_2
.Ltmp12:
.LBB2_2:
	.loc	7 0 3                           @ libraries/STM32H7xx_HAL/STM32H7xx_HAL_Driver/Src/stm32h7xx_hal_sdram.c:0:3
	movs	r0, #0
	.loc	7 246 3 is_stmt 1               @ libraries/STM32H7xx_HAL/STM32H7xx_HAL_Driver/Src/stm32h7xx_hal_sdram.c:246:3
	add	sp, #8
	pop	{r7, pc}
.Ltmp13:
.Lfunc_end2:
	.size	HAL_SDRAM_DeInit, .Lfunc_end2-HAL_SDRAM_DeInit
	.cfi_endproc
	.cantunwind
	.fnend
                                        @ -- End function
	.section	.text.HAL_SDRAM_MspDeInit,"ax",%progbits
	.hidden	HAL_SDRAM_MspDeInit             @ -- Begin function HAL_SDRAM_MspDeInit
	.weak	HAL_SDRAM_MspDeInit
	.p2align	3
	.type	HAL_SDRAM_MspDeInit,%function
	.code	16                              @ @HAL_SDRAM_MspDeInit
	.thumb_func
HAL_SDRAM_MspDeInit:
.Lfunc_begin3:
	.loc	7 272 0                         @ libraries/STM32H7xx_HAL/STM32H7xx_HAL_Driver/Src/stm32h7xx_hal_sdram.c:272:0
	.fnstart
	.cfi_startproc
@ %bb.0:
	.pad	#4
	sub	sp, #4
	.cfi_def_cfa_offset 4
	str	r0, [sp]
.Ltmp14:
	.loc	7 279 1 prologue_end            @ libraries/STM32H7xx_HAL/STM32H7xx_HAL_Driver/Src/stm32h7xx_hal_sdram.c:279:1
	add	sp, #4
	bx	lr
.Ltmp15:
.Lfunc_end3:
	.size	HAL_SDRAM_MspDeInit, .Lfunc_end3-HAL_SDRAM_MspDeInit
	.cfi_endproc
	.cantunwind
	.fnend
                                        @ -- End function
	.section	.text.HAL_SDRAM_IRQHandler,"ax",%progbits
	.hidden	HAL_SDRAM_IRQHandler            @ -- Begin function HAL_SDRAM_IRQHandler
	.globl	HAL_SDRAM_IRQHandler
	.p2align	3
	.type	HAL_SDRAM_IRQHandler,%function
	.code	16                              @ @HAL_SDRAM_IRQHandler
	.thumb_func
HAL_SDRAM_IRQHandler:
.Lfunc_begin4:
	.loc	7 288 0                         @ libraries/STM32H7xx_HAL/STM32H7xx_HAL_Driver/Src/stm32h7xx_hal_sdram.c:288:0
	.fnstart
	.cfi_startproc
@ %bb.0:
	.save	{r7, lr}
	push	{r7, lr}
	.cfi_def_cfa_offset 8
	.cfi_offset lr, -4
	.cfi_offset r7, -8
	.pad	#8
	sub	sp, #8
	.cfi_def_cfa_offset 16
	str	r0, [sp, #4]
.Ltmp16:
	.loc	7 290 7 prologue_end            @ libraries/STM32H7xx_HAL/STM32H7xx_HAL_Driver/Src/stm32h7xx_hal_sdram.c:290:7
	ldr	r0, [sp, #4]
	ldr	r0, [r0]
	ldr	r0, [r0, #24]
.Ltmp17:
	.loc	7 290 7 is_stmt 0               @ libraries/STM32H7xx_HAL/STM32H7xx_HAL_Driver/Src/stm32h7xx_hal_sdram.c:290:7
	lsls	r0, r0, #31
	cbz	r0, .LBB4_2
	b	.LBB4_1
.LBB4_1:
.Ltmp18:
	.loc	7 296 36 is_stmt 1              @ libraries/STM32H7xx_HAL/STM32H7xx_HAL_Driver/Src/stm32h7xx_hal_sdram.c:296:36
	ldr	r0, [sp, #4]
	.loc	7 296 5 is_stmt 0               @ libraries/STM32H7xx_HAL/STM32H7xx_HAL_Driver/Src/stm32h7xx_hal_sdram.c:296:5
	bl	HAL_SDRAM_RefreshErrorCallback
	.loc	7 300 5 is_stmt 1               @ libraries/STM32H7xx_HAL/STM32H7xx_HAL_Driver/Src/stm32h7xx_hal_sdram.c:300:5
	ldr	r0, [sp, #4]
	ldr	r1, [r0]
	ldr	r0, [r1, #20]
	orr	r0, r0, #1
	str	r0, [r1, #20]
	.loc	7 301 3                         @ libraries/STM32H7xx_HAL/STM32H7xx_HAL_Driver/Src/stm32h7xx_hal_sdram.c:301:3
	b	.LBB4_2
.Ltmp19:
.LBB4_2:
	.loc	7 302 1                         @ libraries/STM32H7xx_HAL/STM32H7xx_HAL_Driver/Src/stm32h7xx_hal_sdram.c:302:1
	add	sp, #8
	pop	{r7, pc}
.Ltmp20:
.Lfunc_end4:
	.size	HAL_SDRAM_IRQHandler, .Lfunc_end4-HAL_SDRAM_IRQHandler
	.cfi_endproc
	.cantunwind
	.fnend
                                        @ -- End function
	.section	.text.HAL_SDRAM_RefreshErrorCallback,"ax",%progbits
	.hidden	HAL_SDRAM_RefreshErrorCallback  @ -- Begin function HAL_SDRAM_RefreshErrorCallback
	.weak	HAL_SDRAM_RefreshErrorCallback
	.p2align	3
	.type	HAL_SDRAM_RefreshErrorCallback,%function
	.code	16                              @ @HAL_SDRAM_RefreshErrorCallback
	.thumb_func
HAL_SDRAM_RefreshErrorCallback:
.Lfunc_begin5:
	.loc	7 311 0                         @ libraries/STM32H7xx_HAL/STM32H7xx_HAL_Driver/Src/stm32h7xx_hal_sdram.c:311:0
	.fnstart
	.cfi_startproc
@ %bb.0:
	.pad	#4
	sub	sp, #4
	.cfi_def_cfa_offset 4
	str	r0, [sp]
.Ltmp21:
	.loc	7 318 1 prologue_end            @ libraries/STM32H7xx_HAL/STM32H7xx_HAL_Driver/Src/stm32h7xx_hal_sdram.c:318:1
	add	sp, #4
	bx	lr
.Ltmp22:
.Lfunc_end5:
	.size	HAL_SDRAM_RefreshErrorCallback, .Lfunc_end5-HAL_SDRAM_RefreshErrorCallback
	.cfi_endproc
	.cantunwind
	.fnend
                                        @ -- End function
	.section	.text.HAL_SDRAM_DMA_XferCpltCallback,"ax",%progbits
	.hidden	HAL_SDRAM_DMA_XferCpltCallback  @ -- Begin function HAL_SDRAM_DMA_XferCpltCallback
	.weak	HAL_SDRAM_DMA_XferCpltCallback
	.p2align	3
	.type	HAL_SDRAM_DMA_XferCpltCallback,%function
	.code	16                              @ @HAL_SDRAM_DMA_XferCpltCallback
	.thumb_func
HAL_SDRAM_DMA_XferCpltCallback:
.Lfunc_begin6:
	.loc	7 327 0                         @ libraries/STM32H7xx_HAL/STM32H7xx_HAL_Driver/Src/stm32h7xx_hal_sdram.c:327:0
	.fnstart
	.cfi_startproc
@ %bb.0:
	.pad	#4
	sub	sp, #4
	.cfi_def_cfa_offset 4
	str	r0, [sp]
.Ltmp23:
	.loc	7 334 1 prologue_end            @ libraries/STM32H7xx_HAL/STM32H7xx_HAL_Driver/Src/stm32h7xx_hal_sdram.c:334:1
	add	sp, #4
	bx	lr
.Ltmp24:
.Lfunc_end6:
	.size	HAL_SDRAM_DMA_XferCpltCallback, .Lfunc_end6-HAL_SDRAM_DMA_XferCpltCallback
	.cfi_endproc
	.cantunwind
	.fnend
                                        @ -- End function
	.section	.text.HAL_SDRAM_DMA_XferErrorCallback,"ax",%progbits
	.hidden	HAL_SDRAM_DMA_XferErrorCallback @ -- Begin function HAL_SDRAM_DMA_XferErrorCallback
	.weak	HAL_SDRAM_DMA_XferErrorCallback
	.p2align	3
	.type	HAL_SDRAM_DMA_XferErrorCallback,%function
	.code	16                              @ @HAL_SDRAM_DMA_XferErrorCallback
	.thumb_func
HAL_SDRAM_DMA_XferErrorCallback:
.Lfunc_begin7:
	.loc	7 342 0                         @ libraries/STM32H7xx_HAL/STM32H7xx_HAL_Driver/Src/stm32h7xx_hal_sdram.c:342:0
	.fnstart
	.cfi_startproc
@ %bb.0:
	.pad	#4
	sub	sp, #4
	.cfi_def_cfa_offset 4
	str	r0, [sp]
.Ltmp25:
	.loc	7 349 1 prologue_end            @ libraries/STM32H7xx_HAL/STM32H7xx_HAL_Driver/Src/stm32h7xx_hal_sdram.c:349:1
	add	sp, #4
	bx	lr
.Ltmp26:
.Lfunc_end7:
	.size	HAL_SDRAM_DMA_XferErrorCallback, .Lfunc_end7-HAL_SDRAM_DMA_XferErrorCallback
	.cfi_endproc
	.cantunwind
	.fnend
                                        @ -- End function
	.section	.text.HAL_SDRAM_Read_8b,"ax",%progbits
	.hidden	HAL_SDRAM_Read_8b               @ -- Begin function HAL_SDRAM_Read_8b
	.globl	HAL_SDRAM_Read_8b
	.p2align	3
	.type	HAL_SDRAM_Read_8b,%function
	.code	16                              @ @HAL_SDRAM_Read_8b
	.thumb_func
HAL_SDRAM_Read_8b:
.Lfunc_begin8:
	.loc	7 379 0                         @ libraries/STM32H7xx_HAL/STM32H7xx_HAL_Driver/Src/stm32h7xx_hal_sdram.c:379:0
	.fnstart
	.cfi_startproc
@ %bb.0:
	.pad	#36
	sub	sp, #36
	.cfi_def_cfa_offset 36
	str	r0, [sp, #28]
	str	r1, [sp, #24]
	str	r2, [sp, #20]
	str	r3, [sp, #16]
.Ltmp27:
	.loc	7 381 44 prologue_end           @ libraries/STM32H7xx_HAL/STM32H7xx_HAL_Driver/Src/stm32h7xx_hal_sdram.c:381:44
	ldr	r0, [sp, #24]
	.loc	7 381 17 is_stmt 0              @ libraries/STM32H7xx_HAL/STM32H7xx_HAL_Driver/Src/stm32h7xx_hal_sdram.c:381:17
	str	r0, [sp, #8]
	.loc	7 382 25 is_stmt 1              @ libraries/STM32H7xx_HAL/STM32H7xx_HAL_Driver/Src/stm32h7xx_hal_sdram.c:382:25
	ldr	r0, [sp, #20]
	.loc	7 382 13 is_stmt 0              @ libraries/STM32H7xx_HAL/STM32H7xx_HAL_Driver/Src/stm32h7xx_hal_sdram.c:382:13
	str	r0, [sp, #4]
	.loc	7 383 34 is_stmt 1              @ libraries/STM32H7xx_HAL/STM32H7xx_HAL_Driver/Src/stm32h7xx_hal_sdram.c:383:34
	ldr	r0, [sp, #28]
	.loc	7 383 42 is_stmt 0              @ libraries/STM32H7xx_HAL/STM32H7xx_HAL_Driver/Src/stm32h7xx_hal_sdram.c:383:42
	ldrb.w	r0, [r0, #44]
	.loc	7 383 26                        @ libraries/STM32H7xx_HAL/STM32H7xx_HAL_Driver/Src/stm32h7xx_hal_sdram.c:383:26
	strb.w	r0, [sp, #3]
.Ltmp28:
	.loc	7 386 7 is_stmt 1               @ libraries/STM32H7xx_HAL/STM32H7xx_HAL_Driver/Src/stm32h7xx_hal_sdram.c:386:7
	ldrb.w	r0, [sp, #3]
.Ltmp29:
	.loc	7 386 7 is_stmt 0               @ libraries/STM32H7xx_HAL/STM32H7xx_HAL_Driver/Src/stm32h7xx_hal_sdram.c:386:7
	cmp	r0, #2
	bne	.LBB8_2
	b	.LBB8_1
.LBB8_1:
	.loc	7 0 7                           @ libraries/STM32H7xx_HAL/STM32H7xx_HAL_Driver/Src/stm32h7xx_hal_sdram.c:0:7
	movs	r0, #2
.Ltmp30:
	.loc	7 388 5 is_stmt 1               @ libraries/STM32H7xx_HAL/STM32H7xx_HAL_Driver/Src/stm32h7xx_hal_sdram.c:388:5
	strb.w	r0, [sp, #35]
	b	.LBB8_19
.Ltmp31:
.LBB8_2:
	.loc	7 390 13                        @ libraries/STM32H7xx_HAL/STM32H7xx_HAL_Driver/Src/stm32h7xx_hal_sdram.c:390:13
	ldrb.w	r0, [sp, #3]
	.loc	7 390 45 is_stmt 0              @ libraries/STM32H7xx_HAL/STM32H7xx_HAL_Driver/Src/stm32h7xx_hal_sdram.c:390:45
	cmp	r0, #1
	beq	.LBB8_4
	b	.LBB8_3
.LBB8_3:
	.loc	7 390 49                        @ libraries/STM32H7xx_HAL/STM32H7xx_HAL_Driver/Src/stm32h7xx_hal_sdram.c:390:49
	ldrb.w	r0, [sp, #3]
.Ltmp32:
	.loc	7 390 12                        @ libraries/STM32H7xx_HAL/STM32H7xx_HAL_Driver/Src/stm32h7xx_hal_sdram.c:390:12
	cmp	r0, #4
	bne	.LBB8_16
	b	.LBB8_4
.LBB8_4:
.Ltmp33:
	.loc	7 393 5 is_stmt 1               @ libraries/STM32H7xx_HAL/STM32H7xx_HAL_Driver/Src/stm32h7xx_hal_sdram.c:393:5
	b	.LBB8_5
.LBB8_5:
.Ltmp34:
	.loc	7 393 5 is_stmt 0               @ libraries/STM32H7xx_HAL/STM32H7xx_HAL_Driver/Src/stm32h7xx_hal_sdram.c:393:5
	ldr	r0, [sp, #28]
	ldrb.w	r0, [r0, #45]
.Ltmp35:
	.loc	7 393 5                         @ libraries/STM32H7xx_HAL/STM32H7xx_HAL_Driver/Src/stm32h7xx_hal_sdram.c:393:5
	cmp	r0, #1
	bne	.LBB8_7
	b	.LBB8_6
.LBB8_6:
	.loc	7 0 5                           @ libraries/STM32H7xx_HAL/STM32H7xx_HAL_Driver/Src/stm32h7xx_hal_sdram.c:0:5
	movs	r0, #2
.Ltmp36:
	.loc	7 393 5                         @ libraries/STM32H7xx_HAL/STM32H7xx_HAL_Driver/Src/stm32h7xx_hal_sdram.c:393:5
	strb.w	r0, [sp, #35]
	b	.LBB8_19
.Ltmp37:
.LBB8_7:
	.loc	7 393 5                         @ libraries/STM32H7xx_HAL/STM32H7xx_HAL_Driver/Src/stm32h7xx_hal_sdram.c:393:5
	ldr	r1, [sp, #28]
	movs	r0, #1
	strb.w	r0, [r1, #45]
	b	.LBB8_8
.Ltmp38:
.LBB8_8:
	.loc	7 393 5                         @ libraries/STM32H7xx_HAL/STM32H7xx_HAL_Driver/Src/stm32h7xx_hal_sdram.c:393:5
	b	.LBB8_9
.Ltmp39:
.LBB8_9:
	.loc	7 396 5 is_stmt 1               @ libraries/STM32H7xx_HAL/STM32H7xx_HAL_Driver/Src/stm32h7xx_hal_sdram.c:396:5
	ldr	r1, [sp, #28]
	movs	r0, #2
	.loc	7 396 19 is_stmt 0              @ libraries/STM32H7xx_HAL/STM32H7xx_HAL_Driver/Src/stm32h7xx_hal_sdram.c:396:19
	strb.w	r0, [r1, #44]
.Ltmp40:
	.loc	7 399 17 is_stmt 1              @ libraries/STM32H7xx_HAL/STM32H7xx_HAL_Driver/Src/stm32h7xx_hal_sdram.c:399:17
	ldr	r0, [sp, #16]
	.loc	7 399 15 is_stmt 0              @ libraries/STM32H7xx_HAL/STM32H7xx_HAL_Driver/Src/stm32h7xx_hal_sdram.c:399:15
	str	r0, [sp, #12]
	.loc	7 399 10                        @ libraries/STM32H7xx_HAL/STM32H7xx_HAL_Driver/Src/stm32h7xx_hal_sdram.c:399:10
	b	.LBB8_10
.LBB8_10:                               @ =>This Inner Loop Header: Depth=1
.Ltmp41:
	.loc	7 399 29                        @ libraries/STM32H7xx_HAL/STM32H7xx_HAL_Driver/Src/stm32h7xx_hal_sdram.c:399:29
	ldr	r0, [sp, #12]
.Ltmp42:
	.loc	7 399 5                         @ libraries/STM32H7xx_HAL/STM32H7xx_HAL_Driver/Src/stm32h7xx_hal_sdram.c:399:5
	cbz	r0, .LBB8_13
	b	.LBB8_11
.LBB8_11:                               @   in Loop: Header=BB8_10 Depth=1
.Ltmp43:
	.loc	7 401 37 is_stmt 1              @ libraries/STM32H7xx_HAL/STM32H7xx_HAL_Driver/Src/stm32h7xx_hal_sdram.c:401:37
	ldr	r0, [sp, #8]
	.loc	7 401 20 is_stmt 0              @ libraries/STM32H7xx_HAL/STM32H7xx_HAL_Driver/Src/stm32h7xx_hal_sdram.c:401:20
	ldrb	r0, [r0]
	.loc	7 401 8                         @ libraries/STM32H7xx_HAL/STM32H7xx_HAL_Driver/Src/stm32h7xx_hal_sdram.c:401:8
	ldr	r1, [sp, #4]
	.loc	7 401 18                        @ libraries/STM32H7xx_HAL/STM32H7xx_HAL_Driver/Src/stm32h7xx_hal_sdram.c:401:18
	strb	r0, [r1]
	.loc	7 402 16 is_stmt 1              @ libraries/STM32H7xx_HAL/STM32H7xx_HAL_Driver/Src/stm32h7xx_hal_sdram.c:402:16
	ldr	r0, [sp, #4]
	adds	r0, #1
	str	r0, [sp, #4]
	.loc	7 403 20                        @ libraries/STM32H7xx_HAL/STM32H7xx_HAL_Driver/Src/stm32h7xx_hal_sdram.c:403:20
	ldr	r0, [sp, #8]
	adds	r0, #1
	str	r0, [sp, #8]
	.loc	7 404 5                         @ libraries/STM32H7xx_HAL/STM32H7xx_HAL_Driver/Src/stm32h7xx_hal_sdram.c:404:5
	b	.LBB8_12
.Ltmp44:
.LBB8_12:                               @   in Loop: Header=BB8_10 Depth=1
	.loc	7 399 45                        @ libraries/STM32H7xx_HAL/STM32H7xx_HAL_Driver/Src/stm32h7xx_hal_sdram.c:399:45
	ldr	r0, [sp, #12]
	subs	r0, #1
	str	r0, [sp, #12]
	.loc	7 399 5 is_stmt 0               @ libraries/STM32H7xx_HAL/STM32H7xx_HAL_Driver/Src/stm32h7xx_hal_sdram.c:399:5
	b	.LBB8_10
.Ltmp45:
.LBB8_13:
	.loc	7 407 21 is_stmt 1              @ libraries/STM32H7xx_HAL/STM32H7xx_HAL_Driver/Src/stm32h7xx_hal_sdram.c:407:21
	ldrb.w	r0, [sp, #3]
	.loc	7 407 5 is_stmt 0               @ libraries/STM32H7xx_HAL/STM32H7xx_HAL_Driver/Src/stm32h7xx_hal_sdram.c:407:5
	ldr	r1, [sp, #28]
	.loc	7 407 19                        @ libraries/STM32H7xx_HAL/STM32H7xx_HAL_Driver/Src/stm32h7xx_hal_sdram.c:407:19
	strb.w	r0, [r1, #44]
	.loc	7 410 5 is_stmt 1               @ libraries/STM32H7xx_HAL/STM32H7xx_HAL_Driver/Src/stm32h7xx_hal_sdram.c:410:5
	b	.LBB8_14
.LBB8_14:
.Ltmp46:
	.loc	7 410 5 is_stmt 0               @ libraries/STM32H7xx_HAL/STM32H7xx_HAL_Driver/Src/stm32h7xx_hal_sdram.c:410:5
	ldr	r1, [sp, #28]
	movs	r0, #0
	strb.w	r0, [r1, #45]
	b	.LBB8_15
.Ltmp47:
.LBB8_15:
	.loc	7 411 3 is_stmt 1               @ libraries/STM32H7xx_HAL/STM32H7xx_HAL_Driver/Src/stm32h7xx_hal_sdram.c:411:3
	b	.LBB8_17
.Ltmp48:
.LBB8_16:
	.loc	7 0 3 is_stmt 0                 @ libraries/STM32H7xx_HAL/STM32H7xx_HAL_Driver/Src/stm32h7xx_hal_sdram.c:0:3
	movs	r0, #1
.Ltmp49:
	.loc	7 414 5 is_stmt 1               @ libraries/STM32H7xx_HAL/STM32H7xx_HAL_Driver/Src/stm32h7xx_hal_sdram.c:414:5
	strb.w	r0, [sp, #35]
	b	.LBB8_19
.Ltmp50:
.LBB8_17:
	.loc	7 0 5 is_stmt 0                 @ libraries/STM32H7xx_HAL/STM32H7xx_HAL_Driver/Src/stm32h7xx_hal_sdram.c:0:5
	b	.LBB8_18
.LBB8_18:
	movs	r0, #0
	.loc	7 417 3 is_stmt 1               @ libraries/STM32H7xx_HAL/STM32H7xx_HAL_Driver/Src/stm32h7xx_hal_sdram.c:417:3
	strb.w	r0, [sp, #35]
	b	.LBB8_19
.LBB8_19:
	.loc	7 418 1                         @ libraries/STM32H7xx_HAL/STM32H7xx_HAL_Driver/Src/stm32h7xx_hal_sdram.c:418:1
	ldrb.w	r0, [sp, #35]
	add	sp, #36
	bx	lr
.Ltmp51:
.Lfunc_end8:
	.size	HAL_SDRAM_Read_8b, .Lfunc_end8-HAL_SDRAM_Read_8b
	.cfi_endproc
	.cantunwind
	.fnend
                                        @ -- End function
	.section	.text.HAL_SDRAM_Write_8b,"ax",%progbits
	.hidden	HAL_SDRAM_Write_8b              @ -- Begin function HAL_SDRAM_Write_8b
	.globl	HAL_SDRAM_Write_8b
	.p2align	3
	.type	HAL_SDRAM_Write_8b,%function
	.code	16                              @ @HAL_SDRAM_Write_8b
	.thumb_func
HAL_SDRAM_Write_8b:
.Lfunc_begin9:
	.loc	7 430 0                         @ libraries/STM32H7xx_HAL/STM32H7xx_HAL_Driver/Src/stm32h7xx_hal_sdram.c:430:0
	.fnstart
	.cfi_startproc
@ %bb.0:
	.pad	#32
	sub	sp, #32
	.cfi_def_cfa_offset 32
	str	r0, [sp, #24]
	str	r1, [sp, #20]
	str	r2, [sp, #16]
	str	r3, [sp, #12]
.Ltmp52:
	.loc	7 432 44 prologue_end           @ libraries/STM32H7xx_HAL/STM32H7xx_HAL_Driver/Src/stm32h7xx_hal_sdram.c:432:44
	ldr	r0, [sp, #20]
	.loc	7 432 17 is_stmt 0              @ libraries/STM32H7xx_HAL/STM32H7xx_HAL_Driver/Src/stm32h7xx_hal_sdram.c:432:17
	str	r0, [sp, #4]
	.loc	7 433 24 is_stmt 1              @ libraries/STM32H7xx_HAL/STM32H7xx_HAL_Driver/Src/stm32h7xx_hal_sdram.c:433:24
	ldr	r0, [sp, #16]
	.loc	7 433 13 is_stmt 0              @ libraries/STM32H7xx_HAL/STM32H7xx_HAL_Driver/Src/stm32h7xx_hal_sdram.c:433:13
	str	r0, [sp]
.Ltmp53:
	.loc	7 436 7 is_stmt 1               @ libraries/STM32H7xx_HAL/STM32H7xx_HAL_Driver/Src/stm32h7xx_hal_sdram.c:436:7
	ldr	r0, [sp, #24]
	.loc	7 436 15 is_stmt 0              @ libraries/STM32H7xx_HAL/STM32H7xx_HAL_Driver/Src/stm32h7xx_hal_sdram.c:436:15
	ldrb.w	r0, [r0, #44]
.Ltmp54:
	.loc	7 436 7                         @ libraries/STM32H7xx_HAL/STM32H7xx_HAL_Driver/Src/stm32h7xx_hal_sdram.c:436:7
	cmp	r0, #2
	bne	.LBB9_2
	b	.LBB9_1
.LBB9_1:
	.loc	7 0 7                           @ libraries/STM32H7xx_HAL/STM32H7xx_HAL_Driver/Src/stm32h7xx_hal_sdram.c:0:7
	movs	r0, #2
.Ltmp55:
	.loc	7 438 5 is_stmt 1               @ libraries/STM32H7xx_HAL/STM32H7xx_HAL_Driver/Src/stm32h7xx_hal_sdram.c:438:5
	strb.w	r0, [sp, #31]
	b	.LBB9_18
.Ltmp56:
.LBB9_2:
	.loc	7 440 12                        @ libraries/STM32H7xx_HAL/STM32H7xx_HAL_Driver/Src/stm32h7xx_hal_sdram.c:440:12
	ldr	r0, [sp, #24]
	.loc	7 440 20 is_stmt 0              @ libraries/STM32H7xx_HAL/STM32H7xx_HAL_Driver/Src/stm32h7xx_hal_sdram.c:440:20
	ldrb.w	r0, [r0, #44]
.Ltmp57:
	.loc	7 440 12                        @ libraries/STM32H7xx_HAL/STM32H7xx_HAL_Driver/Src/stm32h7xx_hal_sdram.c:440:12
	cmp	r0, #1
	bne	.LBB9_15
	b	.LBB9_3
.LBB9_3:
.Ltmp58:
	.loc	7 443 5 is_stmt 1               @ libraries/STM32H7xx_HAL/STM32H7xx_HAL_Driver/Src/stm32h7xx_hal_sdram.c:443:5
	b	.LBB9_4
.LBB9_4:
.Ltmp59:
	.loc	7 443 5 is_stmt 0               @ libraries/STM32H7xx_HAL/STM32H7xx_HAL_Driver/Src/stm32h7xx_hal_sdram.c:443:5
	ldr	r0, [sp, #24]
	ldrb.w	r0, [r0, #45]
.Ltmp60:
	.loc	7 443 5                         @ libraries/STM32H7xx_HAL/STM32H7xx_HAL_Driver/Src/stm32h7xx_hal_sdram.c:443:5
	cmp	r0, #1
	bne	.LBB9_6
	b	.LBB9_5
.LBB9_5:
	.loc	7 0 5                           @ libraries/STM32H7xx_HAL/STM32H7xx_HAL_Driver/Src/stm32h7xx_hal_sdram.c:0:5
	movs	r0, #2
.Ltmp61:
	.loc	7 443 5                         @ libraries/STM32H7xx_HAL/STM32H7xx_HAL_Driver/Src/stm32h7xx_hal_sdram.c:443:5
	strb.w	r0, [sp, #31]
	b	.LBB9_18
.Ltmp62:
.LBB9_6:
	.loc	7 443 5                         @ libraries/STM32H7xx_HAL/STM32H7xx_HAL_Driver/Src/stm32h7xx_hal_sdram.c:443:5
	ldr	r1, [sp, #24]
	movs	r0, #1
	strb.w	r0, [r1, #45]
	b	.LBB9_7
.Ltmp63:
.LBB9_7:
	.loc	7 443 5                         @ libraries/STM32H7xx_HAL/STM32H7xx_HAL_Driver/Src/stm32h7xx_hal_sdram.c:443:5
	b	.LBB9_8
.Ltmp64:
.LBB9_8:
	.loc	7 446 5 is_stmt 1               @ libraries/STM32H7xx_HAL/STM32H7xx_HAL_Driver/Src/stm32h7xx_hal_sdram.c:446:5
	ldr	r1, [sp, #24]
	movs	r0, #2
	.loc	7 446 19 is_stmt 0              @ libraries/STM32H7xx_HAL/STM32H7xx_HAL_Driver/Src/stm32h7xx_hal_sdram.c:446:19
	strb.w	r0, [r1, #44]
.Ltmp65:
	.loc	7 449 17 is_stmt 1              @ libraries/STM32H7xx_HAL/STM32H7xx_HAL_Driver/Src/stm32h7xx_hal_sdram.c:449:17
	ldr	r0, [sp, #12]
	.loc	7 449 15 is_stmt 0              @ libraries/STM32H7xx_HAL/STM32H7xx_HAL_Driver/Src/stm32h7xx_hal_sdram.c:449:15
	str	r0, [sp, #8]
	.loc	7 449 10                        @ libraries/STM32H7xx_HAL/STM32H7xx_HAL_Driver/Src/stm32h7xx_hal_sdram.c:449:10
	b	.LBB9_9
.LBB9_9:                                @ =>This Inner Loop Header: Depth=1
.Ltmp66:
	.loc	7 449 29                        @ libraries/STM32H7xx_HAL/STM32H7xx_HAL_Driver/Src/stm32h7xx_hal_sdram.c:449:29
	ldr	r0, [sp, #8]
.Ltmp67:
	.loc	7 449 5                         @ libraries/STM32H7xx_HAL/STM32H7xx_HAL_Driver/Src/stm32h7xx_hal_sdram.c:449:5
	cbz	r0, .LBB9_12
	b	.LBB9_10
.LBB9_10:                               @   in Loop: Header=BB9_9 Depth=1
.Ltmp68:
	.loc	7 451 41 is_stmt 1              @ libraries/STM32H7xx_HAL/STM32H7xx_HAL_Driver/Src/stm32h7xx_hal_sdram.c:451:41
	ldr	r0, [sp]
	.loc	7 451 40 is_stmt 0              @ libraries/STM32H7xx_HAL/STM32H7xx_HAL_Driver/Src/stm32h7xx_hal_sdram.c:451:40
	ldrb	r0, [r0]
	.loc	7 451 24                        @ libraries/STM32H7xx_HAL/STM32H7xx_HAL_Driver/Src/stm32h7xx_hal_sdram.c:451:24
	ldr	r1, [sp, #4]
	.loc	7 451 38                        @ libraries/STM32H7xx_HAL/STM32H7xx_HAL_Driver/Src/stm32h7xx_hal_sdram.c:451:38
	strb	r0, [r1]
	.loc	7 452 15 is_stmt 1              @ libraries/STM32H7xx_HAL/STM32H7xx_HAL_Driver/Src/stm32h7xx_hal_sdram.c:452:15
	ldr	r0, [sp]
	adds	r0, #1
	str	r0, [sp]
	.loc	7 453 20                        @ libraries/STM32H7xx_HAL/STM32H7xx_HAL_Driver/Src/stm32h7xx_hal_sdram.c:453:20
	ldr	r0, [sp, #4]
	adds	r0, #1
	str	r0, [sp, #4]
	.loc	7 454 5                         @ libraries/STM32H7xx_HAL/STM32H7xx_HAL_Driver/Src/stm32h7xx_hal_sdram.c:454:5
	b	.LBB9_11
.Ltmp69:
.LBB9_11:                               @   in Loop: Header=BB9_9 Depth=1
	.loc	7 449 45                        @ libraries/STM32H7xx_HAL/STM32H7xx_HAL_Driver/Src/stm32h7xx_hal_sdram.c:449:45
	ldr	r0, [sp, #8]
	subs	r0, #1
	str	r0, [sp, #8]
	.loc	7 449 5 is_stmt 0               @ libraries/STM32H7xx_HAL/STM32H7xx_HAL_Driver/Src/stm32h7xx_hal_sdram.c:449:5
	b	.LBB9_9
.Ltmp70:
.LBB9_12:
	.loc	7 457 5 is_stmt 1               @ libraries/STM32H7xx_HAL/STM32H7xx_HAL_Driver/Src/stm32h7xx_hal_sdram.c:457:5
	ldr	r1, [sp, #24]
	movs	r0, #1
	.loc	7 457 19 is_stmt 0              @ libraries/STM32H7xx_HAL/STM32H7xx_HAL_Driver/Src/stm32h7xx_hal_sdram.c:457:19
	strb.w	r0, [r1, #44]
	.loc	7 460 5 is_stmt 1               @ libraries/STM32H7xx_HAL/STM32H7xx_HAL_Driver/Src/stm32h7xx_hal_sdram.c:460:5
	b	.LBB9_13
.LBB9_13:
.Ltmp71:
	.loc	7 460 5 is_stmt 0               @ libraries/STM32H7xx_HAL/STM32H7xx_HAL_Driver/Src/stm32h7xx_hal_sdram.c:460:5
	ldr	r1, [sp, #24]
	movs	r0, #0
	strb.w	r0, [r1, #45]
	b	.LBB9_14
.Ltmp72:
.LBB9_14:
	.loc	7 461 3 is_stmt 1               @ libraries/STM32H7xx_HAL/STM32H7xx_HAL_Driver/Src/stm32h7xx_hal_sdram.c:461:3
	b	.LBB9_16
.Ltmp73:
.LBB9_15:
	.loc	7 0 3 is_stmt 0                 @ libraries/STM32H7xx_HAL/STM32H7xx_HAL_Driver/Src/stm32h7xx_hal_sdram.c:0:3
	movs	r0, #1
.Ltmp74:
	.loc	7 464 5 is_stmt 1               @ libraries/STM32H7xx_HAL/STM32H7xx_HAL_Driver/Src/stm32h7xx_hal_sdram.c:464:5
	strb.w	r0, [sp, #31]
	b	.LBB9_18
.Ltmp75:
.LBB9_16:
	.loc	7 0 5 is_stmt 0                 @ libraries/STM32H7xx_HAL/STM32H7xx_HAL_Driver/Src/stm32h7xx_hal_sdram.c:0:5
	b	.LBB9_17
.LBB9_17:
	movs	r0, #0
	.loc	7 467 3 is_stmt 1               @ libraries/STM32H7xx_HAL/STM32H7xx_HAL_Driver/Src/stm32h7xx_hal_sdram.c:467:3
	strb.w	r0, [sp, #31]
	b	.LBB9_18
.LBB9_18:
	.loc	7 468 1                         @ libraries/STM32H7xx_HAL/STM32H7xx_HAL_Driver/Src/stm32h7xx_hal_sdram.c:468:1
	ldrb.w	r0, [sp, #31]
	add	sp, #32
	bx	lr
.Ltmp76:
.Lfunc_end9:
	.size	HAL_SDRAM_Write_8b, .Lfunc_end9-HAL_SDRAM_Write_8b
	.cfi_endproc
	.cantunwind
	.fnend
                                        @ -- End function
	.section	.text.HAL_SDRAM_Read_16b,"ax",%progbits
	.hidden	HAL_SDRAM_Read_16b              @ -- Begin function HAL_SDRAM_Read_16b
	.globl	HAL_SDRAM_Read_16b
	.p2align	3
	.type	HAL_SDRAM_Read_16b,%function
	.code	16                              @ @HAL_SDRAM_Read_16b
	.thumb_func
HAL_SDRAM_Read_16b:
.Lfunc_begin10:
	.loc	7 480 0                         @ libraries/STM32H7xx_HAL/STM32H7xx_HAL_Driver/Src/stm32h7xx_hal_sdram.c:480:0
	.fnstart
	.cfi_startproc
@ %bb.0:
	.pad	#36
	sub	sp, #36
	.cfi_def_cfa_offset 36
	str	r0, [sp, #28]
	str	r1, [sp, #24]
	str	r2, [sp, #20]
	str	r3, [sp, #16]
.Ltmp77:
	.loc	7 482 34 prologue_end           @ libraries/STM32H7xx_HAL/STM32H7xx_HAL_Driver/Src/stm32h7xx_hal_sdram.c:482:34
	ldr	r0, [sp, #24]
	.loc	7 482 18 is_stmt 0              @ libraries/STM32H7xx_HAL/STM32H7xx_HAL_Driver/Src/stm32h7xx_hal_sdram.c:482:18
	str	r0, [sp, #8]
	.loc	7 483 25 is_stmt 1              @ libraries/STM32H7xx_HAL/STM32H7xx_HAL_Driver/Src/stm32h7xx_hal_sdram.c:483:25
	ldr	r0, [sp, #20]
	.loc	7 483 13 is_stmt 0              @ libraries/STM32H7xx_HAL/STM32H7xx_HAL_Driver/Src/stm32h7xx_hal_sdram.c:483:13
	str	r0, [sp, #4]
	.loc	7 484 34 is_stmt 1              @ libraries/STM32H7xx_HAL/STM32H7xx_HAL_Driver/Src/stm32h7xx_hal_sdram.c:484:34
	ldr	r0, [sp, #28]
	.loc	7 484 42 is_stmt 0              @ libraries/STM32H7xx_HAL/STM32H7xx_HAL_Driver/Src/stm32h7xx_hal_sdram.c:484:42
	ldrb.w	r0, [r0, #44]
	.loc	7 484 26                        @ libraries/STM32H7xx_HAL/STM32H7xx_HAL_Driver/Src/stm32h7xx_hal_sdram.c:484:26
	strb.w	r0, [sp, #3]
.Ltmp78:
	.loc	7 487 7 is_stmt 1               @ libraries/STM32H7xx_HAL/STM32H7xx_HAL_Driver/Src/stm32h7xx_hal_sdram.c:487:7
	ldrb.w	r0, [sp, #3]
.Ltmp79:
	.loc	7 487 7 is_stmt 0               @ libraries/STM32H7xx_HAL/STM32H7xx_HAL_Driver/Src/stm32h7xx_hal_sdram.c:487:7
	cmp	r0, #2
	bne	.LBB10_2
	b	.LBB10_1
.LBB10_1:
	.loc	7 0 7                           @ libraries/STM32H7xx_HAL/STM32H7xx_HAL_Driver/Src/stm32h7xx_hal_sdram.c:0:7
	movs	r0, #2
.Ltmp80:
	.loc	7 489 5 is_stmt 1               @ libraries/STM32H7xx_HAL/STM32H7xx_HAL_Driver/Src/stm32h7xx_hal_sdram.c:489:5
	strb.w	r0, [sp, #35]
	b	.LBB10_21
.Ltmp81:
.LBB10_2:
	.loc	7 491 13                        @ libraries/STM32H7xx_HAL/STM32H7xx_HAL_Driver/Src/stm32h7xx_hal_sdram.c:491:13
	ldrb.w	r0, [sp, #3]
	.loc	7 491 45 is_stmt 0              @ libraries/STM32H7xx_HAL/STM32H7xx_HAL_Driver/Src/stm32h7xx_hal_sdram.c:491:45
	cmp	r0, #1
	beq	.LBB10_4
	b	.LBB10_3
.LBB10_3:
	.loc	7 491 49                        @ libraries/STM32H7xx_HAL/STM32H7xx_HAL_Driver/Src/stm32h7xx_hal_sdram.c:491:49
	ldrb.w	r0, [sp, #3]
.Ltmp82:
	.loc	7 491 12                        @ libraries/STM32H7xx_HAL/STM32H7xx_HAL_Driver/Src/stm32h7xx_hal_sdram.c:491:12
	cmp	r0, #4
	bne	.LBB10_18
	b	.LBB10_4
.LBB10_4:
.Ltmp83:
	.loc	7 494 5 is_stmt 1               @ libraries/STM32H7xx_HAL/STM32H7xx_HAL_Driver/Src/stm32h7xx_hal_sdram.c:494:5
	b	.LBB10_5
.LBB10_5:
.Ltmp84:
	.loc	7 494 5 is_stmt 0               @ libraries/STM32H7xx_HAL/STM32H7xx_HAL_Driver/Src/stm32h7xx_hal_sdram.c:494:5
	ldr	r0, [sp, #28]
	ldrb.w	r0, [r0, #45]
.Ltmp85:
	.loc	7 494 5                         @ libraries/STM32H7xx_HAL/STM32H7xx_HAL_Driver/Src/stm32h7xx_hal_sdram.c:494:5
	cmp	r0, #1
	bne	.LBB10_7
	b	.LBB10_6
.LBB10_6:
	.loc	7 0 5                           @ libraries/STM32H7xx_HAL/STM32H7xx_HAL_Driver/Src/stm32h7xx_hal_sdram.c:0:5
	movs	r0, #2
.Ltmp86:
	.loc	7 494 5                         @ libraries/STM32H7xx_HAL/STM32H7xx_HAL_Driver/Src/stm32h7xx_hal_sdram.c:494:5
	strb.w	r0, [sp, #35]
	b	.LBB10_21
.Ltmp87:
.LBB10_7:
	.loc	7 494 5                         @ libraries/STM32H7xx_HAL/STM32H7xx_HAL_Driver/Src/stm32h7xx_hal_sdram.c:494:5
	ldr	r1, [sp, #28]
	movs	r0, #1
	strb.w	r0, [r1, #45]
	b	.LBB10_8
.Ltmp88:
.LBB10_8:
	.loc	7 494 5                         @ libraries/STM32H7xx_HAL/STM32H7xx_HAL_Driver/Src/stm32h7xx_hal_sdram.c:494:5
	b	.LBB10_9
.Ltmp89:
.LBB10_9:
	.loc	7 497 5 is_stmt 1               @ libraries/STM32H7xx_HAL/STM32H7xx_HAL_Driver/Src/stm32h7xx_hal_sdram.c:497:5
	ldr	r1, [sp, #28]
	movs	r0, #2
	.loc	7 497 19 is_stmt 0              @ libraries/STM32H7xx_HAL/STM32H7xx_HAL_Driver/Src/stm32h7xx_hal_sdram.c:497:19
	strb.w	r0, [r1, #44]
.Ltmp90:
	.loc	7 500 17 is_stmt 1              @ libraries/STM32H7xx_HAL/STM32H7xx_HAL_Driver/Src/stm32h7xx_hal_sdram.c:500:17
	ldr	r0, [sp, #16]
	.loc	7 500 15 is_stmt 0              @ libraries/STM32H7xx_HAL/STM32H7xx_HAL_Driver/Src/stm32h7xx_hal_sdram.c:500:15
	str	r0, [sp, #12]
	.loc	7 500 10                        @ libraries/STM32H7xx_HAL/STM32H7xx_HAL_Driver/Src/stm32h7xx_hal_sdram.c:500:10
	b	.LBB10_10
.LBB10_10:                              @ =>This Inner Loop Header: Depth=1
.Ltmp91:
	.loc	7 500 29                        @ libraries/STM32H7xx_HAL/STM32H7xx_HAL_Driver/Src/stm32h7xx_hal_sdram.c:500:29
	ldr	r0, [sp, #12]
.Ltmp92:
	.loc	7 500 5                         @ libraries/STM32H7xx_HAL/STM32H7xx_HAL_Driver/Src/stm32h7xx_hal_sdram.c:500:5
	cmp	r0, #2
	blo	.LBB10_13
	b	.LBB10_11
.LBB10_11:                              @   in Loop: Header=BB10_10 Depth=1
.Ltmp93:
	.loc	7 502 33 is_stmt 1              @ libraries/STM32H7xx_HAL/STM32H7xx_HAL_Driver/Src/stm32h7xx_hal_sdram.c:502:33
	ldr	r0, [sp, #8]
	.loc	7 502 32 is_stmt 0              @ libraries/STM32H7xx_HAL/STM32H7xx_HAL_Driver/Src/stm32h7xx_hal_sdram.c:502:32
	ldr	r0, [r0]
	.loc	7 502 8                         @ libraries/STM32H7xx_HAL/STM32H7xx_HAL_Driver/Src/stm32h7xx_hal_sdram.c:502:8
	ldr	r1, [sp, #4]
	.loc	7 502 18                        @ libraries/STM32H7xx_HAL/STM32H7xx_HAL_Driver/Src/stm32h7xx_hal_sdram.c:502:18
	strh	r0, [r1]
	.loc	7 503 16 is_stmt 1              @ libraries/STM32H7xx_HAL/STM32H7xx_HAL_Driver/Src/stm32h7xx_hal_sdram.c:503:16
	ldr	r0, [sp, #4]
	adds	r0, #2
	str	r0, [sp, #4]
	.loc	7 504 34                        @ libraries/STM32H7xx_HAL/STM32H7xx_HAL_Driver/Src/stm32h7xx_hal_sdram.c:504:34
	ldr	r0, [sp, #8]
	.loc	7 504 33 is_stmt 0              @ libraries/STM32H7xx_HAL/STM32H7xx_HAL_Driver/Src/stm32h7xx_hal_sdram.c:504:33
	ldr	r0, [r0]
	.loc	7 504 64                        @ libraries/STM32H7xx_HAL/STM32H7xx_HAL_Driver/Src/stm32h7xx_hal_sdram.c:504:64
	lsrs	r0, r0, #16
	.loc	7 504 8                         @ libraries/STM32H7xx_HAL/STM32H7xx_HAL_Driver/Src/stm32h7xx_hal_sdram.c:504:8
	ldr	r1, [sp, #4]
	.loc	7 504 18                        @ libraries/STM32H7xx_HAL/STM32H7xx_HAL_Driver/Src/stm32h7xx_hal_sdram.c:504:18
	strh	r0, [r1]
	.loc	7 505 16 is_stmt 1              @ libraries/STM32H7xx_HAL/STM32H7xx_HAL_Driver/Src/stm32h7xx_hal_sdram.c:505:16
	ldr	r0, [sp, #4]
	adds	r0, #2
	str	r0, [sp, #4]
	.loc	7 506 20                        @ libraries/STM32H7xx_HAL/STM32H7xx_HAL_Driver/Src/stm32h7xx_hal_sdram.c:506:20
	ldr	r0, [sp, #8]
	adds	r0, #4
	str	r0, [sp, #8]
	.loc	7 507 5                         @ libraries/STM32H7xx_HAL/STM32H7xx_HAL_Driver/Src/stm32h7xx_hal_sdram.c:507:5
	b	.LBB10_12
.Ltmp94:
.LBB10_12:                              @   in Loop: Header=BB10_10 Depth=1
	.loc	7 500 46                        @ libraries/STM32H7xx_HAL/STM32H7xx_HAL_Driver/Src/stm32h7xx_hal_sdram.c:500:46
	ldr	r0, [sp, #12]
	subs	r0, #2
	str	r0, [sp, #12]
	.loc	7 500 5 is_stmt 0               @ libraries/STM32H7xx_HAL/STM32H7xx_HAL_Driver/Src/stm32h7xx_hal_sdram.c:500:5
	b	.LBB10_10
.Ltmp95:
.LBB10_13:
	.loc	7 510 9 is_stmt 1               @ libraries/STM32H7xx_HAL/STM32H7xx_HAL_Driver/Src/stm32h7xx_hal_sdram.c:510:9
	ldrb.w	r0, [sp, #16]
	lsls	r0, r0, #31
	cbz	r0, .LBB10_15
	b	.LBB10_14
.LBB10_14:
.Ltmp96:
	.loc	7 512 33                        @ libraries/STM32H7xx_HAL/STM32H7xx_HAL_Driver/Src/stm32h7xx_hal_sdram.c:512:33
	ldr	r0, [sp, #8]
	.loc	7 512 32 is_stmt 0              @ libraries/STM32H7xx_HAL/STM32H7xx_HAL_Driver/Src/stm32h7xx_hal_sdram.c:512:32
	ldr	r0, [r0]
	.loc	7 512 8                         @ libraries/STM32H7xx_HAL/STM32H7xx_HAL_Driver/Src/stm32h7xx_hal_sdram.c:512:8
	ldr	r1, [sp, #4]
	.loc	7 512 18                        @ libraries/STM32H7xx_HAL/STM32H7xx_HAL_Driver/Src/stm32h7xx_hal_sdram.c:512:18
	strh	r0, [r1]
	.loc	7 513 5 is_stmt 1               @ libraries/STM32H7xx_HAL/STM32H7xx_HAL_Driver/Src/stm32h7xx_hal_sdram.c:513:5
	b	.LBB10_15
.Ltmp97:
.LBB10_15:
	.loc	7 516 21                        @ libraries/STM32H7xx_HAL/STM32H7xx_HAL_Driver/Src/stm32h7xx_hal_sdram.c:516:21
	ldrb.w	r0, [sp, #3]
	.loc	7 516 5 is_stmt 0               @ libraries/STM32H7xx_HAL/STM32H7xx_HAL_Driver/Src/stm32h7xx_hal_sdram.c:516:5
	ldr	r1, [sp, #28]
	.loc	7 516 19                        @ libraries/STM32H7xx_HAL/STM32H7xx_HAL_Driver/Src/stm32h7xx_hal_sdram.c:516:19
	strb.w	r0, [r1, #44]
	.loc	7 519 5 is_stmt 1               @ libraries/STM32H7xx_HAL/STM32H7xx_HAL_Driver/Src/stm32h7xx_hal_sdram.c:519:5
	b	.LBB10_16
.LBB10_16:
.Ltmp98:
	.loc	7 519 5 is_stmt 0               @ libraries/STM32H7xx_HAL/STM32H7xx_HAL_Driver/Src/stm32h7xx_hal_sdram.c:519:5
	ldr	r1, [sp, #28]
	movs	r0, #0
	strb.w	r0, [r1, #45]
	b	.LBB10_17
.Ltmp99:
.LBB10_17:
	.loc	7 520 3 is_stmt 1               @ libraries/STM32H7xx_HAL/STM32H7xx_HAL_Driver/Src/stm32h7xx_hal_sdram.c:520:3
	b	.LBB10_19
.Ltmp100:
.LBB10_18:
	.loc	7 0 3 is_stmt 0                 @ libraries/STM32H7xx_HAL/STM32H7xx_HAL_Driver/Src/stm32h7xx_hal_sdram.c:0:3
	movs	r0, #1
.Ltmp101:
	.loc	7 523 5 is_stmt 1               @ libraries/STM32H7xx_HAL/STM32H7xx_HAL_Driver/Src/stm32h7xx_hal_sdram.c:523:5
	strb.w	r0, [sp, #35]
	b	.LBB10_21
.Ltmp102:
.LBB10_19:
	.loc	7 0 5 is_stmt 0                 @ libraries/STM32H7xx_HAL/STM32H7xx_HAL_Driver/Src/stm32h7xx_hal_sdram.c:0:5
	b	.LBB10_20
.LBB10_20:
	movs	r0, #0
	.loc	7 526 3 is_stmt 1               @ libraries/STM32H7xx_HAL/STM32H7xx_HAL_Driver/Src/stm32h7xx_hal_sdram.c:526:3
	strb.w	r0, [sp, #35]
	b	.LBB10_21
.LBB10_21:
	.loc	7 527 1                         @ libraries/STM32H7xx_HAL/STM32H7xx_HAL_Driver/Src/stm32h7xx_hal_sdram.c:527:1
	ldrb.w	r0, [sp, #35]
	add	sp, #36
	bx	lr
.Ltmp103:
.Lfunc_end10:
	.size	HAL_SDRAM_Read_16b, .Lfunc_end10-HAL_SDRAM_Read_16b
	.cfi_endproc
	.cantunwind
	.fnend
                                        @ -- End function
	.section	.text.HAL_SDRAM_Write_16b,"ax",%progbits
	.hidden	HAL_SDRAM_Write_16b             @ -- Begin function HAL_SDRAM_Write_16b
	.globl	HAL_SDRAM_Write_16b
	.p2align	3
	.type	HAL_SDRAM_Write_16b,%function
	.code	16                              @ @HAL_SDRAM_Write_16b
	.thumb_func
HAL_SDRAM_Write_16b:
.Lfunc_begin11:
	.loc	7 539 0                         @ libraries/STM32H7xx_HAL/STM32H7xx_HAL_Driver/Src/stm32h7xx_hal_sdram.c:539:0
	.fnstart
	.cfi_startproc
@ %bb.0:
	.pad	#32
	sub	sp, #32
	.cfi_def_cfa_offset 32
	str	r0, [sp, #24]
	str	r1, [sp, #20]
	str	r2, [sp, #16]
	str	r3, [sp, #12]
.Ltmp104:
	.loc	7 541 34 prologue_end           @ libraries/STM32H7xx_HAL/STM32H7xx_HAL_Driver/Src/stm32h7xx_hal_sdram.c:541:34
	ldr	r0, [sp, #20]
	.loc	7 541 18 is_stmt 0              @ libraries/STM32H7xx_HAL/STM32H7xx_HAL_Driver/Src/stm32h7xx_hal_sdram.c:541:18
	str	r0, [sp, #4]
	.loc	7 542 25 is_stmt 1              @ libraries/STM32H7xx_HAL/STM32H7xx_HAL_Driver/Src/stm32h7xx_hal_sdram.c:542:25
	ldr	r0, [sp, #16]
	.loc	7 542 14 is_stmt 0              @ libraries/STM32H7xx_HAL/STM32H7xx_HAL_Driver/Src/stm32h7xx_hal_sdram.c:542:14
	str	r0, [sp]
.Ltmp105:
	.loc	7 545 7 is_stmt 1               @ libraries/STM32H7xx_HAL/STM32H7xx_HAL_Driver/Src/stm32h7xx_hal_sdram.c:545:7
	ldr	r0, [sp, #24]
	.loc	7 545 15 is_stmt 0              @ libraries/STM32H7xx_HAL/STM32H7xx_HAL_Driver/Src/stm32h7xx_hal_sdram.c:545:15
	ldrb.w	r0, [r0, #44]
.Ltmp106:
	.loc	7 545 7                         @ libraries/STM32H7xx_HAL/STM32H7xx_HAL_Driver/Src/stm32h7xx_hal_sdram.c:545:7
	cmp	r0, #2
	bne	.LBB11_2
	b	.LBB11_1
.LBB11_1:
	.loc	7 0 7                           @ libraries/STM32H7xx_HAL/STM32H7xx_HAL_Driver/Src/stm32h7xx_hal_sdram.c:0:7
	movs	r0, #2
.Ltmp107:
	.loc	7 547 5 is_stmt 1               @ libraries/STM32H7xx_HAL/STM32H7xx_HAL_Driver/Src/stm32h7xx_hal_sdram.c:547:5
	strb.w	r0, [sp, #31]
	b	.LBB11_20
.Ltmp108:
.LBB11_2:
	.loc	7 549 12                        @ libraries/STM32H7xx_HAL/STM32H7xx_HAL_Driver/Src/stm32h7xx_hal_sdram.c:549:12
	ldr	r0, [sp, #24]
	.loc	7 549 20 is_stmt 0              @ libraries/STM32H7xx_HAL/STM32H7xx_HAL_Driver/Src/stm32h7xx_hal_sdram.c:549:20
	ldrb.w	r0, [r0, #44]
.Ltmp109:
	.loc	7 549 12                        @ libraries/STM32H7xx_HAL/STM32H7xx_HAL_Driver/Src/stm32h7xx_hal_sdram.c:549:12
	cmp	r0, #1
	bne	.LBB11_17
	b	.LBB11_3
.LBB11_3:
.Ltmp110:
	.loc	7 552 5 is_stmt 1               @ libraries/STM32H7xx_HAL/STM32H7xx_HAL_Driver/Src/stm32h7xx_hal_sdram.c:552:5
	b	.LBB11_4
.LBB11_4:
.Ltmp111:
	.loc	7 552 5 is_stmt 0               @ libraries/STM32H7xx_HAL/STM32H7xx_HAL_Driver/Src/stm32h7xx_hal_sdram.c:552:5
	ldr	r0, [sp, #24]
	ldrb.w	r0, [r0, #45]
.Ltmp112:
	.loc	7 552 5                         @ libraries/STM32H7xx_HAL/STM32H7xx_HAL_Driver/Src/stm32h7xx_hal_sdram.c:552:5
	cmp	r0, #1
	bne	.LBB11_6
	b	.LBB11_5
.LBB11_5:
	.loc	7 0 5                           @ libraries/STM32H7xx_HAL/STM32H7xx_HAL_Driver/Src/stm32h7xx_hal_sdram.c:0:5
	movs	r0, #2
.Ltmp113:
	.loc	7 552 5                         @ libraries/STM32H7xx_HAL/STM32H7xx_HAL_Driver/Src/stm32h7xx_hal_sdram.c:552:5
	strb.w	r0, [sp, #31]
	b	.LBB11_20
.Ltmp114:
.LBB11_6:
	.loc	7 552 5                         @ libraries/STM32H7xx_HAL/STM32H7xx_HAL_Driver/Src/stm32h7xx_hal_sdram.c:552:5
	ldr	r1, [sp, #24]
	movs	r0, #1
	strb.w	r0, [r1, #45]
	b	.LBB11_7
.Ltmp115:
.LBB11_7:
	.loc	7 552 5                         @ libraries/STM32H7xx_HAL/STM32H7xx_HAL_Driver/Src/stm32h7xx_hal_sdram.c:552:5
	b	.LBB11_8
.Ltmp116:
.LBB11_8:
	.loc	7 555 5 is_stmt 1               @ libraries/STM32H7xx_HAL/STM32H7xx_HAL_Driver/Src/stm32h7xx_hal_sdram.c:555:5
	ldr	r1, [sp, #24]
	movs	r0, #2
	.loc	7 555 19 is_stmt 0              @ libraries/STM32H7xx_HAL/STM32H7xx_HAL_Driver/Src/stm32h7xx_hal_sdram.c:555:19
	strb.w	r0, [r1, #44]
.Ltmp117:
	.loc	7 558 17 is_stmt 1              @ libraries/STM32H7xx_HAL/STM32H7xx_HAL_Driver/Src/stm32h7xx_hal_sdram.c:558:17
	ldr	r0, [sp, #12]
	.loc	7 558 15 is_stmt 0              @ libraries/STM32H7xx_HAL/STM32H7xx_HAL_Driver/Src/stm32h7xx_hal_sdram.c:558:15
	str	r0, [sp, #8]
	.loc	7 558 10                        @ libraries/STM32H7xx_HAL/STM32H7xx_HAL_Driver/Src/stm32h7xx_hal_sdram.c:558:10
	b	.LBB11_9
.LBB11_9:                               @ =>This Inner Loop Header: Depth=1
.Ltmp118:
	.loc	7 558 29                        @ libraries/STM32H7xx_HAL/STM32H7xx_HAL_Driver/Src/stm32h7xx_hal_sdram.c:558:29
	ldr	r0, [sp, #8]
.Ltmp119:
	.loc	7 558 5                         @ libraries/STM32H7xx_HAL/STM32H7xx_HAL_Driver/Src/stm32h7xx_hal_sdram.c:558:5
	cmp	r0, #2
	blo	.LBB11_12
	b	.LBB11_10
.LBB11_10:                              @   in Loop: Header=BB11_9 Depth=1
.Ltmp120:
	.loc	7 560 36 is_stmt 1              @ libraries/STM32H7xx_HAL/STM32H7xx_HAL_Driver/Src/stm32h7xx_hal_sdram.c:560:36
	ldr	r0, [sp]
	.loc	7 560 35 is_stmt 0              @ libraries/STM32H7xx_HAL/STM32H7xx_HAL_Driver/Src/stm32h7xx_hal_sdram.c:560:35
	ldrh	r0, [r0]
	.loc	7 560 8                         @ libraries/STM32H7xx_HAL/STM32H7xx_HAL_Driver/Src/stm32h7xx_hal_sdram.c:560:8
	ldr	r1, [sp, #4]
	.loc	7 560 22                        @ libraries/STM32H7xx_HAL/STM32H7xx_HAL_Driver/Src/stm32h7xx_hal_sdram.c:560:22
	str	r0, [r1]
	.loc	7 561 15 is_stmt 1              @ libraries/STM32H7xx_HAL/STM32H7xx_HAL_Driver/Src/stm32h7xx_hal_sdram.c:561:15
	ldr	r0, [sp]
	adds	r0, #2
	str	r0, [sp]
	.loc	7 562 38                        @ libraries/STM32H7xx_HAL/STM32H7xx_HAL_Driver/Src/stm32h7xx_hal_sdram.c:562:38
	ldr	r0, [sp]
	.loc	7 562 26 is_stmt 0              @ libraries/STM32H7xx_HAL/STM32H7xx_HAL_Driver/Src/stm32h7xx_hal_sdram.c:562:26
	ldrh	r2, [r0]
	.loc	7 562 8                         @ libraries/STM32H7xx_HAL/STM32H7xx_HAL_Driver/Src/stm32h7xx_hal_sdram.c:562:8
	ldr	r1, [sp, #4]
	.loc	7 562 22                        @ libraries/STM32H7xx_HAL/STM32H7xx_HAL_Driver/Src/stm32h7xx_hal_sdram.c:562:22
	ldr	r0, [r1]
	orr.w	r0, r0, r2, lsl #16
	str	r0, [r1]
	.loc	7 563 15 is_stmt 1              @ libraries/STM32H7xx_HAL/STM32H7xx_HAL_Driver/Src/stm32h7xx_hal_sdram.c:563:15
	ldr	r0, [sp]
	adds	r0, #2
	str	r0, [sp]
	.loc	7 564 20                        @ libraries/STM32H7xx_HAL/STM32H7xx_HAL_Driver/Src/stm32h7xx_hal_sdram.c:564:20
	ldr	r0, [sp, #4]
	adds	r0, #4
	str	r0, [sp, #4]
	.loc	7 565 5                         @ libraries/STM32H7xx_HAL/STM32H7xx_HAL_Driver/Src/stm32h7xx_hal_sdram.c:565:5
	b	.LBB11_11
.Ltmp121:
.LBB11_11:                              @   in Loop: Header=BB11_9 Depth=1
	.loc	7 558 46                        @ libraries/STM32H7xx_HAL/STM32H7xx_HAL_Driver/Src/stm32h7xx_hal_sdram.c:558:46
	ldr	r0, [sp, #8]
	subs	r0, #2
	str	r0, [sp, #8]
	.loc	7 558 5 is_stmt 0               @ libraries/STM32H7xx_HAL/STM32H7xx_HAL_Driver/Src/stm32h7xx_hal_sdram.c:558:5
	b	.LBB11_9
.Ltmp122:
.LBB11_12:
	.loc	7 568 9 is_stmt 1               @ libraries/STM32H7xx_HAL/STM32H7xx_HAL_Driver/Src/stm32h7xx_hal_sdram.c:568:9
	ldrb.w	r0, [sp, #12]
	lsls	r0, r0, #31
	cbz	r0, .LBB11_14
	b	.LBB11_13
.LBB11_13:
.Ltmp123:
	.loc	7 570 37                        @ libraries/STM32H7xx_HAL/STM32H7xx_HAL_Driver/Src/stm32h7xx_hal_sdram.c:570:37
	ldr	r0, [sp]
	.loc	7 570 36 is_stmt 0              @ libraries/STM32H7xx_HAL/STM32H7xx_HAL_Driver/Src/stm32h7xx_hal_sdram.c:570:36
	ldrh	r0, [r0]
	.loc	7 570 67                        @ libraries/STM32H7xx_HAL/STM32H7xx_HAL_Driver/Src/stm32h7xx_hal_sdram.c:570:67
	ldr	r1, [sp, #4]
	.loc	7 570 66                        @ libraries/STM32H7xx_HAL/STM32H7xx_HAL_Driver/Src/stm32h7xx_hal_sdram.c:570:66
	ldr	r1, [r1]
	movw	r2, #65535
	.loc	7 570 82                        @ libraries/STM32H7xx_HAL/STM32H7xx_HAL_Driver/Src/stm32h7xx_hal_sdram.c:570:82
	bics	r1, r2
	.loc	7 570 62                        @ libraries/STM32H7xx_HAL/STM32H7xx_HAL_Driver/Src/stm32h7xx_hal_sdram.c:570:62
	add	r0, r1
	.loc	7 570 8                         @ libraries/STM32H7xx_HAL/STM32H7xx_HAL_Driver/Src/stm32h7xx_hal_sdram.c:570:8
	ldr	r1, [sp, #4]
	.loc	7 570 22                        @ libraries/STM32H7xx_HAL/STM32H7xx_HAL_Driver/Src/stm32h7xx_hal_sdram.c:570:22
	str	r0, [r1]
	.loc	7 571 5 is_stmt 1               @ libraries/STM32H7xx_HAL/STM32H7xx_HAL_Driver/Src/stm32h7xx_hal_sdram.c:571:5
	b	.LBB11_14
.Ltmp124:
.LBB11_14:
	.loc	7 574 5                         @ libraries/STM32H7xx_HAL/STM32H7xx_HAL_Driver/Src/stm32h7xx_hal_sdram.c:574:5
	ldr	r1, [sp, #24]
	movs	r0, #1
	.loc	7 574 19 is_stmt 0              @ libraries/STM32H7xx_HAL/STM32H7xx_HAL_Driver/Src/stm32h7xx_hal_sdram.c:574:19
	strb.w	r0, [r1, #44]
	.loc	7 577 5 is_stmt 1               @ libraries/STM32H7xx_HAL/STM32H7xx_HAL_Driver/Src/stm32h7xx_hal_sdram.c:577:5
	b	.LBB11_15
.LBB11_15:
.Ltmp125:
	.loc	7 577 5 is_stmt 0               @ libraries/STM32H7xx_HAL/STM32H7xx_HAL_Driver/Src/stm32h7xx_hal_sdram.c:577:5
	ldr	r1, [sp, #24]
	movs	r0, #0
	strb.w	r0, [r1, #45]
	b	.LBB11_16
.Ltmp126:
.LBB11_16:
	.loc	7 578 3 is_stmt 1               @ libraries/STM32H7xx_HAL/STM32H7xx_HAL_Driver/Src/stm32h7xx_hal_sdram.c:578:3
	b	.LBB11_18
.Ltmp127:
.LBB11_17:
	.loc	7 0 3 is_stmt 0                 @ libraries/STM32H7xx_HAL/STM32H7xx_HAL_Driver/Src/stm32h7xx_hal_sdram.c:0:3
	movs	r0, #1
.Ltmp128:
	.loc	7 581 5 is_stmt 1               @ libraries/STM32H7xx_HAL/STM32H7xx_HAL_Driver/Src/stm32h7xx_hal_sdram.c:581:5
	strb.w	r0, [sp, #31]
	b	.LBB11_20
.Ltmp129:
.LBB11_18:
	.loc	7 0 5 is_stmt 0                 @ libraries/STM32H7xx_HAL/STM32H7xx_HAL_Driver/Src/stm32h7xx_hal_sdram.c:0:5
	b	.LBB11_19
.LBB11_19:
	movs	r0, #0
	.loc	7 584 3 is_stmt 1               @ libraries/STM32H7xx_HAL/STM32H7xx_HAL_Driver/Src/stm32h7xx_hal_sdram.c:584:3
	strb.w	r0, [sp, #31]
	b	.LBB11_20
.LBB11_20:
	.loc	7 585 1                         @ libraries/STM32H7xx_HAL/STM32H7xx_HAL_Driver/Src/stm32h7xx_hal_sdram.c:585:1
	ldrb.w	r0, [sp, #31]
	add	sp, #32
	bx	lr
.Ltmp130:
.Lfunc_end11:
	.size	HAL_SDRAM_Write_16b, .Lfunc_end11-HAL_SDRAM_Write_16b
	.cfi_endproc
	.cantunwind
	.fnend
                                        @ -- End function
	.section	.text.HAL_SDRAM_Read_32b,"ax",%progbits
	.hidden	HAL_SDRAM_Read_32b              @ -- Begin function HAL_SDRAM_Read_32b
	.globl	HAL_SDRAM_Read_32b
	.p2align	3
	.type	HAL_SDRAM_Read_32b,%function
	.code	16                              @ @HAL_SDRAM_Read_32b
	.thumb_func
HAL_SDRAM_Read_32b:
.Lfunc_begin12:
	.loc	7 597 0                         @ libraries/STM32H7xx_HAL/STM32H7xx_HAL_Driver/Src/stm32h7xx_hal_sdram.c:597:0
	.fnstart
	.cfi_startproc
@ %bb.0:
	.pad	#36
	sub	sp, #36
	.cfi_def_cfa_offset 36
	str	r0, [sp, #28]
	str	r1, [sp, #24]
	str	r2, [sp, #20]
	str	r3, [sp, #16]
.Ltmp131:
	.loc	7 599 46 prologue_end           @ libraries/STM32H7xx_HAL/STM32H7xx_HAL_Driver/Src/stm32h7xx_hal_sdram.c:599:46
	ldr	r0, [sp, #24]
	.loc	7 599 18 is_stmt 0              @ libraries/STM32H7xx_HAL/STM32H7xx_HAL_Driver/Src/stm32h7xx_hal_sdram.c:599:18
	str	r0, [sp, #8]
	.loc	7 600 26 is_stmt 1              @ libraries/STM32H7xx_HAL/STM32H7xx_HAL_Driver/Src/stm32h7xx_hal_sdram.c:600:26
	ldr	r0, [sp, #20]
	.loc	7 600 14 is_stmt 0              @ libraries/STM32H7xx_HAL/STM32H7xx_HAL_Driver/Src/stm32h7xx_hal_sdram.c:600:14
	str	r0, [sp, #4]
	.loc	7 601 34 is_stmt 1              @ libraries/STM32H7xx_HAL/STM32H7xx_HAL_Driver/Src/stm32h7xx_hal_sdram.c:601:34
	ldr	r0, [sp, #28]
	.loc	7 601 42 is_stmt 0              @ libraries/STM32H7xx_HAL/STM32H7xx_HAL_Driver/Src/stm32h7xx_hal_sdram.c:601:42
	ldrb.w	r0, [r0, #44]
	.loc	7 601 26                        @ libraries/STM32H7xx_HAL/STM32H7xx_HAL_Driver/Src/stm32h7xx_hal_sdram.c:601:26
	strb.w	r0, [sp, #3]
.Ltmp132:
	.loc	7 604 7 is_stmt 1               @ libraries/STM32H7xx_HAL/STM32H7xx_HAL_Driver/Src/stm32h7xx_hal_sdram.c:604:7
	ldrb.w	r0, [sp, #3]
.Ltmp133:
	.loc	7 604 7 is_stmt 0               @ libraries/STM32H7xx_HAL/STM32H7xx_HAL_Driver/Src/stm32h7xx_hal_sdram.c:604:7
	cmp	r0, #2
	bne	.LBB12_2
	b	.LBB12_1
.LBB12_1:
	.loc	7 0 7                           @ libraries/STM32H7xx_HAL/STM32H7xx_HAL_Driver/Src/stm32h7xx_hal_sdram.c:0:7
	movs	r0, #2
.Ltmp134:
	.loc	7 606 5 is_stmt 1               @ libraries/STM32H7xx_HAL/STM32H7xx_HAL_Driver/Src/stm32h7xx_hal_sdram.c:606:5
	strb.w	r0, [sp, #35]
	b	.LBB12_19
.Ltmp135:
.LBB12_2:
	.loc	7 608 13                        @ libraries/STM32H7xx_HAL/STM32H7xx_HAL_Driver/Src/stm32h7xx_hal_sdram.c:608:13
	ldrb.w	r0, [sp, #3]
	.loc	7 608 45 is_stmt 0              @ libraries/STM32H7xx_HAL/STM32H7xx_HAL_Driver/Src/stm32h7xx_hal_sdram.c:608:45
	cmp	r0, #1
	beq	.LBB12_4
	b	.LBB12_3
.LBB12_3:
	.loc	7 608 49                        @ libraries/STM32H7xx_HAL/STM32H7xx_HAL_Driver/Src/stm32h7xx_hal_sdram.c:608:49
	ldrb.w	r0, [sp, #3]
.Ltmp136:
	.loc	7 608 12                        @ libraries/STM32H7xx_HAL/STM32H7xx_HAL_Driver/Src/stm32h7xx_hal_sdram.c:608:12
	cmp	r0, #4
	bne	.LBB12_16
	b	.LBB12_4
.LBB12_4:
.Ltmp137:
	.loc	7 611 5 is_stmt 1               @ libraries/STM32H7xx_HAL/STM32H7xx_HAL_Driver/Src/stm32h7xx_hal_sdram.c:611:5
	b	.LBB12_5
.LBB12_5:
.Ltmp138:
	.loc	7 611 5 is_stmt 0               @ libraries/STM32H7xx_HAL/STM32H7xx_HAL_Driver/Src/stm32h7xx_hal_sdram.c:611:5
	ldr	r0, [sp, #28]
	ldrb.w	r0, [r0, #45]
.Ltmp139:
	.loc	7 611 5                         @ libraries/STM32H7xx_HAL/STM32H7xx_HAL_Driver/Src/stm32h7xx_hal_sdram.c:611:5
	cmp	r0, #1
	bne	.LBB12_7
	b	.LBB12_6
.LBB12_6:
	.loc	7 0 5                           @ libraries/STM32H7xx_HAL/STM32H7xx_HAL_Driver/Src/stm32h7xx_hal_sdram.c:0:5
	movs	r0, #2
.Ltmp140:
	.loc	7 611 5                         @ libraries/STM32H7xx_HAL/STM32H7xx_HAL_Driver/Src/stm32h7xx_hal_sdram.c:611:5
	strb.w	r0, [sp, #35]
	b	.LBB12_19
.Ltmp141:
.LBB12_7:
	.loc	7 611 5                         @ libraries/STM32H7xx_HAL/STM32H7xx_HAL_Driver/Src/stm32h7xx_hal_sdram.c:611:5
	ldr	r1, [sp, #28]
	movs	r0, #1
	strb.w	r0, [r1, #45]
	b	.LBB12_8
.Ltmp142:
.LBB12_8:
	.loc	7 611 5                         @ libraries/STM32H7xx_HAL/STM32H7xx_HAL_Driver/Src/stm32h7xx_hal_sdram.c:611:5
	b	.LBB12_9
.Ltmp143:
.LBB12_9:
	.loc	7 614 5 is_stmt 1               @ libraries/STM32H7xx_HAL/STM32H7xx_HAL_Driver/Src/stm32h7xx_hal_sdram.c:614:5
	ldr	r1, [sp, #28]
	movs	r0, #2
	.loc	7 614 19 is_stmt 0              @ libraries/STM32H7xx_HAL/STM32H7xx_HAL_Driver/Src/stm32h7xx_hal_sdram.c:614:19
	strb.w	r0, [r1, #44]
.Ltmp144:
	.loc	7 617 17 is_stmt 1              @ libraries/STM32H7xx_HAL/STM32H7xx_HAL_Driver/Src/stm32h7xx_hal_sdram.c:617:17
	ldr	r0, [sp, #16]
	.loc	7 617 15 is_stmt 0              @ libraries/STM32H7xx_HAL/STM32H7xx_HAL_Driver/Src/stm32h7xx_hal_sdram.c:617:15
	str	r0, [sp, #12]
	.loc	7 617 10                        @ libraries/STM32H7xx_HAL/STM32H7xx_HAL_Driver/Src/stm32h7xx_hal_sdram.c:617:10
	b	.LBB12_10
.LBB12_10:                              @ =>This Inner Loop Header: Depth=1
.Ltmp145:
	.loc	7 617 29                        @ libraries/STM32H7xx_HAL/STM32H7xx_HAL_Driver/Src/stm32h7xx_hal_sdram.c:617:29
	ldr	r0, [sp, #12]
.Ltmp146:
	.loc	7 617 5                         @ libraries/STM32H7xx_HAL/STM32H7xx_HAL_Driver/Src/stm32h7xx_hal_sdram.c:617:5
	cbz	r0, .LBB12_13
	b	.LBB12_11
.LBB12_11:                              @   in Loop: Header=BB12_10 Depth=1
.Ltmp147:
	.loc	7 619 38 is_stmt 1              @ libraries/STM32H7xx_HAL/STM32H7xx_HAL_Driver/Src/stm32h7xx_hal_sdram.c:619:38
	ldr	r0, [sp, #8]
	.loc	7 619 20 is_stmt 0              @ libraries/STM32H7xx_HAL/STM32H7xx_HAL_Driver/Src/stm32h7xx_hal_sdram.c:619:20
	ldr	r0, [r0]
	.loc	7 619 8                         @ libraries/STM32H7xx_HAL/STM32H7xx_HAL_Driver/Src/stm32h7xx_hal_sdram.c:619:8
	ldr	r1, [sp, #4]
	.loc	7 619 18                        @ libraries/STM32H7xx_HAL/STM32H7xx_HAL_Driver/Src/stm32h7xx_hal_sdram.c:619:18
	str	r0, [r1]
	.loc	7 620 16 is_stmt 1              @ libraries/STM32H7xx_HAL/STM32H7xx_HAL_Driver/Src/stm32h7xx_hal_sdram.c:620:16
	ldr	r0, [sp, #4]
	adds	r0, #4
	str	r0, [sp, #4]
	.loc	7 621 20                        @ libraries/STM32H7xx_HAL/STM32H7xx_HAL_Driver/Src/stm32h7xx_hal_sdram.c:621:20
	ldr	r0, [sp, #8]
	adds	r0, #4
	str	r0, [sp, #8]
	.loc	7 622 5                         @ libraries/STM32H7xx_HAL/STM32H7xx_HAL_Driver/Src/stm32h7xx_hal_sdram.c:622:5
	b	.LBB12_12
.Ltmp148:
.LBB12_12:                              @   in Loop: Header=BB12_10 Depth=1
	.loc	7 617 45                        @ libraries/STM32H7xx_HAL/STM32H7xx_HAL_Driver/Src/stm32h7xx_hal_sdram.c:617:45
	ldr	r0, [sp, #12]
	subs	r0, #1
	str	r0, [sp, #12]
	.loc	7 617 5 is_stmt 0               @ libraries/STM32H7xx_HAL/STM32H7xx_HAL_Driver/Src/stm32h7xx_hal_sdram.c:617:5
	b	.LBB12_10
.Ltmp149:
.LBB12_13:
	.loc	7 625 21 is_stmt 1              @ libraries/STM32H7xx_HAL/STM32H7xx_HAL_Driver/Src/stm32h7xx_hal_sdram.c:625:21
	ldrb.w	r0, [sp, #3]
	.loc	7 625 5 is_stmt 0               @ libraries/STM32H7xx_HAL/STM32H7xx_HAL_Driver/Src/stm32h7xx_hal_sdram.c:625:5
	ldr	r1, [sp, #28]
	.loc	7 625 19                        @ libraries/STM32H7xx_HAL/STM32H7xx_HAL_Driver/Src/stm32h7xx_hal_sdram.c:625:19
	strb.w	r0, [r1, #44]
	.loc	7 628 5 is_stmt 1               @ libraries/STM32H7xx_HAL/STM32H7xx_HAL_Driver/Src/stm32h7xx_hal_sdram.c:628:5
	b	.LBB12_14
.LBB12_14:
.Ltmp150:
	.loc	7 628 5 is_stmt 0               @ libraries/STM32H7xx_HAL/STM32H7xx_HAL_Driver/Src/stm32h7xx_hal_sdram.c:628:5
	ldr	r1, [sp, #28]
	movs	r0, #0
	strb.w	r0, [r1, #45]
	b	.LBB12_15
.Ltmp151:
.LBB12_15:
	.loc	7 629 3 is_stmt 1               @ libraries/STM32H7xx_HAL/STM32H7xx_HAL_Driver/Src/stm32h7xx_hal_sdram.c:629:3
	b	.LBB12_17
.Ltmp152:
.LBB12_16:
	.loc	7 0 3 is_stmt 0                 @ libraries/STM32H7xx_HAL/STM32H7xx_HAL_Driver/Src/stm32h7xx_hal_sdram.c:0:3
	movs	r0, #1
.Ltmp153:
	.loc	7 632 5 is_stmt 1               @ libraries/STM32H7xx_HAL/STM32H7xx_HAL_Driver/Src/stm32h7xx_hal_sdram.c:632:5
	strb.w	r0, [sp, #35]
	b	.LBB12_19
.Ltmp154:
.LBB12_17:
	.loc	7 0 5 is_stmt 0                 @ libraries/STM32H7xx_HAL/STM32H7xx_HAL_Driver/Src/stm32h7xx_hal_sdram.c:0:5
	b	.LBB12_18
.LBB12_18:
	movs	r0, #0
	.loc	7 635 3 is_stmt 1               @ libraries/STM32H7xx_HAL/STM32H7xx_HAL_Driver/Src/stm32h7xx_hal_sdram.c:635:3
	strb.w	r0, [sp, #35]
	b	.LBB12_19
.LBB12_19:
	.loc	7 636 1                         @ libraries/STM32H7xx_HAL/STM32H7xx_HAL_Driver/Src/stm32h7xx_hal_sdram.c:636:1
	ldrb.w	r0, [sp, #35]
	add	sp, #36
	bx	lr
.Ltmp155:
.Lfunc_end12:
	.size	HAL_SDRAM_Read_32b, .Lfunc_end12-HAL_SDRAM_Read_32b
	.cfi_endproc
	.cantunwind
	.fnend
                                        @ -- End function
	.section	.text.HAL_SDRAM_Write_32b,"ax",%progbits
	.hidden	HAL_SDRAM_Write_32b             @ -- Begin function HAL_SDRAM_Write_32b
	.globl	HAL_SDRAM_Write_32b
	.p2align	3
	.type	HAL_SDRAM_Write_32b,%function
	.code	16                              @ @HAL_SDRAM_Write_32b
	.thumb_func
HAL_SDRAM_Write_32b:
.Lfunc_begin13:
	.loc	7 648 0                         @ libraries/STM32H7xx_HAL/STM32H7xx_HAL_Driver/Src/stm32h7xx_hal_sdram.c:648:0
	.fnstart
	.cfi_startproc
@ %bb.0:
	.pad	#32
	sub	sp, #32
	.cfi_def_cfa_offset 32
	str	r0, [sp, #24]
	str	r1, [sp, #20]
	str	r2, [sp, #16]
	str	r3, [sp, #12]
.Ltmp156:
	.loc	7 650 34 prologue_end           @ libraries/STM32H7xx_HAL/STM32H7xx_HAL_Driver/Src/stm32h7xx_hal_sdram.c:650:34
	ldr	r0, [sp, #20]
	.loc	7 650 18 is_stmt 0              @ libraries/STM32H7xx_HAL/STM32H7xx_HAL_Driver/Src/stm32h7xx_hal_sdram.c:650:18
	str	r0, [sp, #4]
	.loc	7 651 25 is_stmt 1              @ libraries/STM32H7xx_HAL/STM32H7xx_HAL_Driver/Src/stm32h7xx_hal_sdram.c:651:25
	ldr	r0, [sp, #16]
	.loc	7 651 14 is_stmt 0              @ libraries/STM32H7xx_HAL/STM32H7xx_HAL_Driver/Src/stm32h7xx_hal_sdram.c:651:14
	str	r0, [sp]
.Ltmp157:
	.loc	7 654 7 is_stmt 1               @ libraries/STM32H7xx_HAL/STM32H7xx_HAL_Driver/Src/stm32h7xx_hal_sdram.c:654:7
	ldr	r0, [sp, #24]
	.loc	7 654 15 is_stmt 0              @ libraries/STM32H7xx_HAL/STM32H7xx_HAL_Driver/Src/stm32h7xx_hal_sdram.c:654:15
	ldrb.w	r0, [r0, #44]
.Ltmp158:
	.loc	7 654 7                         @ libraries/STM32H7xx_HAL/STM32H7xx_HAL_Driver/Src/stm32h7xx_hal_sdram.c:654:7
	cmp	r0, #2
	bne	.LBB13_2
	b	.LBB13_1
.LBB13_1:
	.loc	7 0 7                           @ libraries/STM32H7xx_HAL/STM32H7xx_HAL_Driver/Src/stm32h7xx_hal_sdram.c:0:7
	movs	r0, #2
.Ltmp159:
	.loc	7 656 5 is_stmt 1               @ libraries/STM32H7xx_HAL/STM32H7xx_HAL_Driver/Src/stm32h7xx_hal_sdram.c:656:5
	strb.w	r0, [sp, #31]
	b	.LBB13_18
.Ltmp160:
.LBB13_2:
	.loc	7 658 12                        @ libraries/STM32H7xx_HAL/STM32H7xx_HAL_Driver/Src/stm32h7xx_hal_sdram.c:658:12
	ldr	r0, [sp, #24]
	.loc	7 658 20 is_stmt 0              @ libraries/STM32H7xx_HAL/STM32H7xx_HAL_Driver/Src/stm32h7xx_hal_sdram.c:658:20
	ldrb.w	r0, [r0, #44]
.Ltmp161:
	.loc	7 658 12                        @ libraries/STM32H7xx_HAL/STM32H7xx_HAL_Driver/Src/stm32h7xx_hal_sdram.c:658:12
	cmp	r0, #1
	bne	.LBB13_15
	b	.LBB13_3
.LBB13_3:
.Ltmp162:
	.loc	7 661 5 is_stmt 1               @ libraries/STM32H7xx_HAL/STM32H7xx_HAL_Driver/Src/stm32h7xx_hal_sdram.c:661:5
	b	.LBB13_4
.LBB13_4:
.Ltmp163:
	.loc	7 661 5 is_stmt 0               @ libraries/STM32H7xx_HAL/STM32H7xx_HAL_Driver/Src/stm32h7xx_hal_sdram.c:661:5
	ldr	r0, [sp, #24]
	ldrb.w	r0, [r0, #45]
.Ltmp164:
	.loc	7 661 5                         @ libraries/STM32H7xx_HAL/STM32H7xx_HAL_Driver/Src/stm32h7xx_hal_sdram.c:661:5
	cmp	r0, #1
	bne	.LBB13_6
	b	.LBB13_5
.LBB13_5:
	.loc	7 0 5                           @ libraries/STM32H7xx_HAL/STM32H7xx_HAL_Driver/Src/stm32h7xx_hal_sdram.c:0:5
	movs	r0, #2
.Ltmp165:
	.loc	7 661 5                         @ libraries/STM32H7xx_HAL/STM32H7xx_HAL_Driver/Src/stm32h7xx_hal_sdram.c:661:5
	strb.w	r0, [sp, #31]
	b	.LBB13_18
.Ltmp166:
.LBB13_6:
	.loc	7 661 5                         @ libraries/STM32H7xx_HAL/STM32H7xx_HAL_Driver/Src/stm32h7xx_hal_sdram.c:661:5
	ldr	r1, [sp, #24]
	movs	r0, #1
	strb.w	r0, [r1, #45]
	b	.LBB13_7
.Ltmp167:
.LBB13_7:
	.loc	7 661 5                         @ libraries/STM32H7xx_HAL/STM32H7xx_HAL_Driver/Src/stm32h7xx_hal_sdram.c:661:5
	b	.LBB13_8
.Ltmp168:
.LBB13_8:
	.loc	7 664 5 is_stmt 1               @ libraries/STM32H7xx_HAL/STM32H7xx_HAL_Driver/Src/stm32h7xx_hal_sdram.c:664:5
	ldr	r1, [sp, #24]
	movs	r0, #2
	.loc	7 664 19 is_stmt 0              @ libraries/STM32H7xx_HAL/STM32H7xx_HAL_Driver/Src/stm32h7xx_hal_sdram.c:664:19
	strb.w	r0, [r1, #44]
.Ltmp169:
	.loc	7 667 17 is_stmt 1              @ libraries/STM32H7xx_HAL/STM32H7xx_HAL_Driver/Src/stm32h7xx_hal_sdram.c:667:17
	ldr	r0, [sp, #12]
	.loc	7 667 15 is_stmt 0              @ libraries/STM32H7xx_HAL/STM32H7xx_HAL_Driver/Src/stm32h7xx_hal_sdram.c:667:15
	str	r0, [sp, #8]
	.loc	7 667 10                        @ libraries/STM32H7xx_HAL/STM32H7xx_HAL_Driver/Src/stm32h7xx_hal_sdram.c:667:10
	b	.LBB13_9
.LBB13_9:                               @ =>This Inner Loop Header: Depth=1
.Ltmp170:
	.loc	7 667 29                        @ libraries/STM32H7xx_HAL/STM32H7xx_HAL_Driver/Src/stm32h7xx_hal_sdram.c:667:29
	ldr	r0, [sp, #8]
.Ltmp171:
	.loc	7 667 5                         @ libraries/STM32H7xx_HAL/STM32H7xx_HAL_Driver/Src/stm32h7xx_hal_sdram.c:667:5
	cbz	r0, .LBB13_12
	b	.LBB13_10
.LBB13_10:                              @   in Loop: Header=BB13_9 Depth=1
.Ltmp172:
	.loc	7 669 25 is_stmt 1              @ libraries/STM32H7xx_HAL/STM32H7xx_HAL_Driver/Src/stm32h7xx_hal_sdram.c:669:25
	ldr	r0, [sp]
	.loc	7 669 24 is_stmt 0              @ libraries/STM32H7xx_HAL/STM32H7xx_HAL_Driver/Src/stm32h7xx_hal_sdram.c:669:24
	ldr	r0, [r0]
	.loc	7 669 8                         @ libraries/STM32H7xx_HAL/STM32H7xx_HAL_Driver/Src/stm32h7xx_hal_sdram.c:669:8
	ldr	r1, [sp, #4]
	.loc	7 669 22                        @ libraries/STM32H7xx_HAL/STM32H7xx_HAL_Driver/Src/stm32h7xx_hal_sdram.c:669:22
	str	r0, [r1]
	.loc	7 670 15 is_stmt 1              @ libraries/STM32H7xx_HAL/STM32H7xx_HAL_Driver/Src/stm32h7xx_hal_sdram.c:670:15
	ldr	r0, [sp]
	adds	r0, #4
	str	r0, [sp]
	.loc	7 671 20                        @ libraries/STM32H7xx_HAL/STM32H7xx_HAL_Driver/Src/stm32h7xx_hal_sdram.c:671:20
	ldr	r0, [sp, #4]
	adds	r0, #4
	str	r0, [sp, #4]
	.loc	7 672 5                         @ libraries/STM32H7xx_HAL/STM32H7xx_HAL_Driver/Src/stm32h7xx_hal_sdram.c:672:5
	b	.LBB13_11
.Ltmp173:
.LBB13_11:                              @   in Loop: Header=BB13_9 Depth=1
	.loc	7 667 45                        @ libraries/STM32H7xx_HAL/STM32H7xx_HAL_Driver/Src/stm32h7xx_hal_sdram.c:667:45
	ldr	r0, [sp, #8]
	subs	r0, #1
	str	r0, [sp, #8]
	.loc	7 667 5 is_stmt 0               @ libraries/STM32H7xx_HAL/STM32H7xx_HAL_Driver/Src/stm32h7xx_hal_sdram.c:667:5
	b	.LBB13_9
.Ltmp174:
.LBB13_12:
	.loc	7 675 5 is_stmt 1               @ libraries/STM32H7xx_HAL/STM32H7xx_HAL_Driver/Src/stm32h7xx_hal_sdram.c:675:5
	ldr	r1, [sp, #24]
	movs	r0, #1
	.loc	7 675 19 is_stmt 0              @ libraries/STM32H7xx_HAL/STM32H7xx_HAL_Driver/Src/stm32h7xx_hal_sdram.c:675:19
	strb.w	r0, [r1, #44]
	.loc	7 678 5 is_stmt 1               @ libraries/STM32H7xx_HAL/STM32H7xx_HAL_Driver/Src/stm32h7xx_hal_sdram.c:678:5
	b	.LBB13_13
.LBB13_13:
.Ltmp175:
	.loc	7 678 5 is_stmt 0               @ libraries/STM32H7xx_HAL/STM32H7xx_HAL_Driver/Src/stm32h7xx_hal_sdram.c:678:5
	ldr	r1, [sp, #24]
	movs	r0, #0
	strb.w	r0, [r1, #45]
	b	.LBB13_14
.Ltmp176:
.LBB13_14:
	.loc	7 679 3 is_stmt 1               @ libraries/STM32H7xx_HAL/STM32H7xx_HAL_Driver/Src/stm32h7xx_hal_sdram.c:679:3
	b	.LBB13_16
.Ltmp177:
.LBB13_15:
	.loc	7 0 3 is_stmt 0                 @ libraries/STM32H7xx_HAL/STM32H7xx_HAL_Driver/Src/stm32h7xx_hal_sdram.c:0:3
	movs	r0, #1
.Ltmp178:
	.loc	7 682 5 is_stmt 1               @ libraries/STM32H7xx_HAL/STM32H7xx_HAL_Driver/Src/stm32h7xx_hal_sdram.c:682:5
	strb.w	r0, [sp, #31]
	b	.LBB13_18
.Ltmp179:
.LBB13_16:
	.loc	7 0 5 is_stmt 0                 @ libraries/STM32H7xx_HAL/STM32H7xx_HAL_Driver/Src/stm32h7xx_hal_sdram.c:0:5
	b	.LBB13_17
.LBB13_17:
	movs	r0, #0
	.loc	7 685 3 is_stmt 1               @ libraries/STM32H7xx_HAL/STM32H7xx_HAL_Driver/Src/stm32h7xx_hal_sdram.c:685:3
	strb.w	r0, [sp, #31]
	b	.LBB13_18
.LBB13_18:
	.loc	7 686 1                         @ libraries/STM32H7xx_HAL/STM32H7xx_HAL_Driver/Src/stm32h7xx_hal_sdram.c:686:1
	ldrb.w	r0, [sp, #31]
	add	sp, #32
	bx	lr
.Ltmp180:
.Lfunc_end13:
	.size	HAL_SDRAM_Write_32b, .Lfunc_end13-HAL_SDRAM_Write_32b
	.cfi_endproc
	.cantunwind
	.fnend
                                        @ -- End function
	.section	.text.HAL_SDRAM_Read_DMA,"ax",%progbits
	.hidden	HAL_SDRAM_Read_DMA              @ -- Begin function HAL_SDRAM_Read_DMA
	.globl	HAL_SDRAM_Read_DMA
	.p2align	3
	.type	HAL_SDRAM_Read_DMA,%function
	.code	16                              @ @HAL_SDRAM_Read_DMA
	.thumb_func
HAL_SDRAM_Read_DMA:
.Lfunc_begin14:
	.loc	7 698 0                         @ libraries/STM32H7xx_HAL/STM32H7xx_HAL_Driver/Src/stm32h7xx_hal_sdram.c:698:0
	.fnstart
	.cfi_startproc
@ %bb.0:
	.save	{r7, lr}
	push	{r7, lr}
	.cfi_def_cfa_offset 8
	.cfi_offset lr, -4
	.cfi_offset r7, -8
	.pad	#32
	sub	sp, #32
	.cfi_def_cfa_offset 40
	str	r0, [sp, #24]
	str	r1, [sp, #20]
	str	r2, [sp, #16]
	str	r3, [sp, #12]
.Ltmp181:
	.loc	7 700 34 prologue_end           @ libraries/STM32H7xx_HAL/STM32H7xx_HAL_Driver/Src/stm32h7xx_hal_sdram.c:700:34
	ldr	r0, [sp, #24]
	.loc	7 700 42 is_stmt 0              @ libraries/STM32H7xx_HAL/STM32H7xx_HAL_Driver/Src/stm32h7xx_hal_sdram.c:700:42
	ldrb.w	r0, [r0, #44]
	.loc	7 700 26                        @ libraries/STM32H7xx_HAL/STM32H7xx_HAL_Driver/Src/stm32h7xx_hal_sdram.c:700:26
	strb.w	r0, [sp, #10]
.Ltmp182:
	.loc	7 703 7 is_stmt 1               @ libraries/STM32H7xx_HAL/STM32H7xx_HAL_Driver/Src/stm32h7xx_hal_sdram.c:703:7
	ldrb.w	r0, [sp, #10]
.Ltmp183:
	.loc	7 703 7 is_stmt 0               @ libraries/STM32H7xx_HAL/STM32H7xx_HAL_Driver/Src/stm32h7xx_hal_sdram.c:703:7
	cmp	r0, #2
	bne	.LBB14_2
	b	.LBB14_1
.LBB14_1:
	.loc	7 0 7                           @ libraries/STM32H7xx_HAL/STM32H7xx_HAL_Driver/Src/stm32h7xx_hal_sdram.c:0:7
	movs	r0, #2
.Ltmp184:
	.loc	7 705 5 is_stmt 1               @ libraries/STM32H7xx_HAL/STM32H7xx_HAL_Driver/Src/stm32h7xx_hal_sdram.c:705:5
	strb.w	r0, [sp, #31]
	b	.LBB14_18
.Ltmp185:
.LBB14_2:
	.loc	7 707 13                        @ libraries/STM32H7xx_HAL/STM32H7xx_HAL_Driver/Src/stm32h7xx_hal_sdram.c:707:13
	ldrb.w	r0, [sp, #10]
	.loc	7 707 45 is_stmt 0              @ libraries/STM32H7xx_HAL/STM32H7xx_HAL_Driver/Src/stm32h7xx_hal_sdram.c:707:45
	cmp	r0, #1
	beq	.LBB14_4
	b	.LBB14_3
.LBB14_3:
	.loc	7 707 49                        @ libraries/STM32H7xx_HAL/STM32H7xx_HAL_Driver/Src/stm32h7xx_hal_sdram.c:707:49
	ldrb.w	r0, [sp, #10]
.Ltmp186:
	.loc	7 707 12                        @ libraries/STM32H7xx_HAL/STM32H7xx_HAL_Driver/Src/stm32h7xx_hal_sdram.c:707:12
	cmp	r0, #4
	bne	.LBB14_15
	b	.LBB14_4
.LBB14_4:
.Ltmp187:
	.loc	7 710 5 is_stmt 1               @ libraries/STM32H7xx_HAL/STM32H7xx_HAL_Driver/Src/stm32h7xx_hal_sdram.c:710:5
	b	.LBB14_5
.LBB14_5:
.Ltmp188:
	.loc	7 710 5 is_stmt 0               @ libraries/STM32H7xx_HAL/STM32H7xx_HAL_Driver/Src/stm32h7xx_hal_sdram.c:710:5
	ldr	r0, [sp, #24]
	ldrb.w	r0, [r0, #45]
.Ltmp189:
	.loc	7 710 5                         @ libraries/STM32H7xx_HAL/STM32H7xx_HAL_Driver/Src/stm32h7xx_hal_sdram.c:710:5
	cmp	r0, #1
	bne	.LBB14_7
	b	.LBB14_6
.LBB14_6:
	.loc	7 0 5                           @ libraries/STM32H7xx_HAL/STM32H7xx_HAL_Driver/Src/stm32h7xx_hal_sdram.c:0:5
	movs	r0, #2
.Ltmp190:
	.loc	7 710 5                         @ libraries/STM32H7xx_HAL/STM32H7xx_HAL_Driver/Src/stm32h7xx_hal_sdram.c:710:5
	strb.w	r0, [sp, #31]
	b	.LBB14_18
.Ltmp191:
.LBB14_7:
	.loc	7 710 5                         @ libraries/STM32H7xx_HAL/STM32H7xx_HAL_Driver/Src/stm32h7xx_hal_sdram.c:710:5
	ldr	r1, [sp, #24]
	movs	r0, #1
	strb.w	r0, [r1, #45]
	b	.LBB14_8
.Ltmp192:
.LBB14_8:
	.loc	7 710 5                         @ libraries/STM32H7xx_HAL/STM32H7xx_HAL_Driver/Src/stm32h7xx_hal_sdram.c:710:5
	b	.LBB14_9
.Ltmp193:
.LBB14_9:
	.loc	7 713 5 is_stmt 1               @ libraries/STM32H7xx_HAL/STM32H7xx_HAL_Driver/Src/stm32h7xx_hal_sdram.c:713:5
	ldr	r1, [sp, #24]
	movs	r0, #2
	.loc	7 713 19 is_stmt 0              @ libraries/STM32H7xx_HAL/STM32H7xx_HAL_Driver/Src/stm32h7xx_hal_sdram.c:713:19
	strb.w	r0, [r1, #44]
.Ltmp194:
	.loc	7 716 9 is_stmt 1               @ libraries/STM32H7xx_HAL/STM32H7xx_HAL_Driver/Src/stm32h7xx_hal_sdram.c:716:9
	ldrb.w	r0, [sp, #10]
.Ltmp195:
	.loc	7 716 9 is_stmt 0               @ libraries/STM32H7xx_HAL/STM32H7xx_HAL_Driver/Src/stm32h7xx_hal_sdram.c:716:9
	cmp	r0, #1
	bne	.LBB14_11
	b	.LBB14_10
.LBB14_10:
.Ltmp196:
	.loc	7 718 7 is_stmt 1               @ libraries/STM32H7xx_HAL/STM32H7xx_HAL_Driver/Src/stm32h7xx_hal_sdram.c:718:7
	ldr	r0, [sp, #24]
	.loc	7 718 15 is_stmt 0              @ libraries/STM32H7xx_HAL/STM32H7xx_HAL_Driver/Src/stm32h7xx_hal_sdram.c:718:15
	ldr	r1, [r0, #48]
	.loc	7 718 39                        @ libraries/STM32H7xx_HAL/STM32H7xx_HAL_Driver/Src/stm32h7xx_hal_sdram.c:718:39
	movw	r0, :lower16:SDRAM_DMACplt
	movt	r0, :upper16:SDRAM_DMACplt
	str	r0, [r1, #68]
	.loc	7 719 5 is_stmt 1               @ libraries/STM32H7xx_HAL/STM32H7xx_HAL_Driver/Src/stm32h7xx_hal_sdram.c:719:5
	b	.LBB14_12
.Ltmp197:
.LBB14_11:
	.loc	7 722 7                         @ libraries/STM32H7xx_HAL/STM32H7xx_HAL_Driver/Src/stm32h7xx_hal_sdram.c:722:7
	ldr	r0, [sp, #24]
	.loc	7 722 15 is_stmt 0              @ libraries/STM32H7xx_HAL/STM32H7xx_HAL_Driver/Src/stm32h7xx_hal_sdram.c:722:15
	ldr	r1, [r0, #48]
	.loc	7 722 39                        @ libraries/STM32H7xx_HAL/STM32H7xx_HAL_Driver/Src/stm32h7xx_hal_sdram.c:722:39
	movw	r0, :lower16:SDRAM_DMACpltProt
	movt	r0, :upper16:SDRAM_DMACpltProt
	str	r0, [r1, #68]
	b	.LBB14_12
.Ltmp198:
.LBB14_12:
	.loc	7 724 5 is_stmt 1               @ libraries/STM32H7xx_HAL/STM32H7xx_HAL_Driver/Src/stm32h7xx_hal_sdram.c:724:5
	ldr	r0, [sp, #24]
	.loc	7 724 13 is_stmt 0              @ libraries/STM32H7xx_HAL/STM32H7xx_HAL_Driver/Src/stm32h7xx_hal_sdram.c:724:13
	ldr	r1, [r0, #48]
	.loc	7 724 38                        @ libraries/STM32H7xx_HAL/STM32H7xx_HAL_Driver/Src/stm32h7xx_hal_sdram.c:724:38
	movw	r0, :lower16:SDRAM_DMAError
	movt	r0, :upper16:SDRAM_DMAError
	str	r0, [r1, #84]
	.loc	7 727 32 is_stmt 1              @ libraries/STM32H7xx_HAL/STM32H7xx_HAL_Driver/Src/stm32h7xx_hal_sdram.c:727:32
	ldr	r0, [sp, #24]
	.loc	7 727 40 is_stmt 0              @ libraries/STM32H7xx_HAL/STM32H7xx_HAL_Driver/Src/stm32h7xx_hal_sdram.c:727:40
	ldr	r0, [r0, #48]
	.loc	7 727 57                        @ libraries/STM32H7xx_HAL/STM32H7xx_HAL_Driver/Src/stm32h7xx_hal_sdram.c:727:57
	ldr	r1, [sp, #20]
	.loc	7 727 77                        @ libraries/STM32H7xx_HAL/STM32H7xx_HAL_Driver/Src/stm32h7xx_hal_sdram.c:727:77
	ldr	r2, [sp, #16]
	.loc	7 727 100                       @ libraries/STM32H7xx_HAL/STM32H7xx_HAL_Driver/Src/stm32h7xx_hal_sdram.c:727:100
	ldr	r3, [sp, #12]
	.loc	7 727 111                       @ libraries/STM32H7xx_HAL/STM32H7xx_HAL_Driver/Src/stm32h7xx_hal_sdram.c:727:111
	lsls	r3, r3, #2
	.loc	7 727 14                        @ libraries/STM32H7xx_HAL/STM32H7xx_HAL_Driver/Src/stm32h7xx_hal_sdram.c:727:14
	mov	lr, sp
	mov.w	r12, #1
	str.w	r12, [lr]
	bl	HAL_MDMA_Start_IT
	.loc	7 727 12                        @ libraries/STM32H7xx_HAL/STM32H7xx_HAL_Driver/Src/stm32h7xx_hal_sdram.c:727:12
	strb.w	r0, [sp, #11]
	.loc	7 730 5 is_stmt 1               @ libraries/STM32H7xx_HAL/STM32H7xx_HAL_Driver/Src/stm32h7xx_hal_sdram.c:730:5
	b	.LBB14_13
.LBB14_13:
.Ltmp199:
	.loc	7 730 5 is_stmt 0               @ libraries/STM32H7xx_HAL/STM32H7xx_HAL_Driver/Src/stm32h7xx_hal_sdram.c:730:5
	ldr	r1, [sp, #24]
	movs	r0, #0
	strb.w	r0, [r1, #45]
	b	.LBB14_14
.Ltmp200:
.LBB14_14:
	.loc	7 731 3 is_stmt 1               @ libraries/STM32H7xx_HAL/STM32H7xx_HAL_Driver/Src/stm32h7xx_hal_sdram.c:731:3
	b	.LBB14_16
.Ltmp201:
.LBB14_15:
	.loc	7 0 3 is_stmt 0                 @ libraries/STM32H7xx_HAL/STM32H7xx_HAL_Driver/Src/stm32h7xx_hal_sdram.c:0:3
	movs	r0, #1
.Ltmp202:
	.loc	7 734 5 is_stmt 1               @ libraries/STM32H7xx_HAL/STM32H7xx_HAL_Driver/Src/stm32h7xx_hal_sdram.c:734:5
	strb.w	r0, [sp, #31]
	b	.LBB14_18
.Ltmp203:
.LBB14_16:
	.loc	7 0 5 is_stmt 0                 @ libraries/STM32H7xx_HAL/STM32H7xx_HAL_Driver/Src/stm32h7xx_hal_sdram.c:0:5
	b	.LBB14_17
.LBB14_17:
	.loc	7 737 10 is_stmt 1              @ libraries/STM32H7xx_HAL/STM32H7xx_HAL_Driver/Src/stm32h7xx_hal_sdram.c:737:10
	ldrb.w	r0, [sp, #11]
	.loc	7 737 3 is_stmt 0               @ libraries/STM32H7xx_HAL/STM32H7xx_HAL_Driver/Src/stm32h7xx_hal_sdram.c:737:3
	strb.w	r0, [sp, #31]
	b	.LBB14_18
.LBB14_18:
	.loc	7 738 1 is_stmt 1               @ libraries/STM32H7xx_HAL/STM32H7xx_HAL_Driver/Src/stm32h7xx_hal_sdram.c:738:1
	ldrb.w	r0, [sp, #31]
	add	sp, #32
	pop	{r7, pc}
.Ltmp204:
.Lfunc_end14:
	.size	HAL_SDRAM_Read_DMA, .Lfunc_end14-HAL_SDRAM_Read_DMA
	.cfi_endproc
	.cantunwind
	.fnend
                                        @ -- End function
	.section	.text.SDRAM_DMACplt,"ax",%progbits
	.p2align	3                               @ -- Begin function SDRAM_DMACplt
	.type	SDRAM_DMACplt,%function
	.code	16                              @ @SDRAM_DMACplt
	.thumb_func
SDRAM_DMACplt:
.Lfunc_begin15:
	.loc	7 1237 0                        @ libraries/STM32H7xx_HAL/STM32H7xx_HAL_Driver/Src/stm32h7xx_hal_sdram.c:1237:0
	.fnstart
	.cfi_startproc
@ %bb.0:
	.save	{r7, lr}
	push	{r7, lr}
	.cfi_def_cfa_offset 8
	.cfi_offset lr, -4
	.cfi_offset r7, -8
	.pad	#8
	sub	sp, #8
	.cfi_def_cfa_offset 16
	str	r0, [sp, #4]
.Ltmp205:
	.loc	7 1238 58 prologue_end          @ libraries/STM32H7xx_HAL/STM32H7xx_HAL_Driver/Src/stm32h7xx_hal_sdram.c:1238:58
	ldr	r0, [sp, #4]
	.loc	7 1238 65 is_stmt 0             @ libraries/STM32H7xx_HAL/STM32H7xx_HAL_Driver/Src/stm32h7xx_hal_sdram.c:1238:65
	ldr	r0, [r0, #64]
	.loc	7 1238 24                       @ libraries/STM32H7xx_HAL/STM32H7xx_HAL_Driver/Src/stm32h7xx_hal_sdram.c:1238:24
	str	r0, [sp]
	.loc	7 1241 3 is_stmt 1              @ libraries/STM32H7xx_HAL/STM32H7xx_HAL_Driver/Src/stm32h7xx_hal_sdram.c:1241:3
	ldr	r0, [sp, #4]
	ldr	r1, [r0]
	ldr	r0, [r1, #12]
	bic	r0, r0, #1
	str	r0, [r1, #12]
	.loc	7 1244 3                        @ libraries/STM32H7xx_HAL/STM32H7xx_HAL_Driver/Src/stm32h7xx_hal_sdram.c:1244:3
	ldr	r1, [sp]
	movs	r0, #1
	.loc	7 1244 17 is_stmt 0             @ libraries/STM32H7xx_HAL/STM32H7xx_HAL_Driver/Src/stm32h7xx_hal_sdram.c:1244:17
	strb.w	r0, [r1, #44]
	.loc	7 1249 34 is_stmt 1             @ libraries/STM32H7xx_HAL/STM32H7xx_HAL_Driver/Src/stm32h7xx_hal_sdram.c:1249:34
	ldr	r0, [sp, #4]
	.loc	7 1249 3 is_stmt 0              @ libraries/STM32H7xx_HAL/STM32H7xx_HAL_Driver/Src/stm32h7xx_hal_sdram.c:1249:3
	bl	HAL_SDRAM_DMA_XferCpltCallback
	.loc	7 1251 1 is_stmt 1              @ libraries/STM32H7xx_HAL/STM32H7xx_HAL_Driver/Src/stm32h7xx_hal_sdram.c:1251:1
	add	sp, #8
	pop	{r7, pc}
.Ltmp206:
.Lfunc_end15:
	.size	SDRAM_DMACplt, .Lfunc_end15-SDRAM_DMACplt
	.cfi_endproc
	.cantunwind
	.fnend
                                        @ -- End function
	.section	.text.SDRAM_DMACpltProt,"ax",%progbits
	.p2align	3                               @ -- Begin function SDRAM_DMACpltProt
	.type	SDRAM_DMACpltProt,%function
	.code	16                              @ @SDRAM_DMACpltProt
	.thumb_func
SDRAM_DMACpltProt:
.Lfunc_begin16:
	.loc	7 1259 0                        @ libraries/STM32H7xx_HAL/STM32H7xx_HAL_Driver/Src/stm32h7xx_hal_sdram.c:1259:0
	.fnstart
	.cfi_startproc
@ %bb.0:
	.save	{r7, lr}
	push	{r7, lr}
	.cfi_def_cfa_offset 8
	.cfi_offset lr, -4
	.cfi_offset r7, -8
	.pad	#8
	sub	sp, #8
	.cfi_def_cfa_offset 16
	str	r0, [sp, #4]
.Ltmp207:
	.loc	7 1260 58 prologue_end          @ libraries/STM32H7xx_HAL/STM32H7xx_HAL_Driver/Src/stm32h7xx_hal_sdram.c:1260:58
	ldr	r0, [sp, #4]
	.loc	7 1260 65 is_stmt 0             @ libraries/STM32H7xx_HAL/STM32H7xx_HAL_Driver/Src/stm32h7xx_hal_sdram.c:1260:65
	ldr	r0, [r0, #64]
	.loc	7 1260 24                       @ libraries/STM32H7xx_HAL/STM32H7xx_HAL_Driver/Src/stm32h7xx_hal_sdram.c:1260:24
	str	r0, [sp]
	.loc	7 1263 3 is_stmt 1              @ libraries/STM32H7xx_HAL/STM32H7xx_HAL_Driver/Src/stm32h7xx_hal_sdram.c:1263:3
	ldr	r0, [sp, #4]
	ldr	r1, [r0]
	ldr	r0, [r1, #12]
	bic	r0, r0, #1
	str	r0, [r1, #12]
	.loc	7 1266 3                        @ libraries/STM32H7xx_HAL/STM32H7xx_HAL_Driver/Src/stm32h7xx_hal_sdram.c:1266:3
	ldr	r1, [sp]
	movs	r0, #4
	.loc	7 1266 17 is_stmt 0             @ libraries/STM32H7xx_HAL/STM32H7xx_HAL_Driver/Src/stm32h7xx_hal_sdram.c:1266:17
	strb.w	r0, [r1, #44]
	.loc	7 1271 34 is_stmt 1             @ libraries/STM32H7xx_HAL/STM32H7xx_HAL_Driver/Src/stm32h7xx_hal_sdram.c:1271:34
	ldr	r0, [sp, #4]
	.loc	7 1271 3 is_stmt 0              @ libraries/STM32H7xx_HAL/STM32H7xx_HAL_Driver/Src/stm32h7xx_hal_sdram.c:1271:3
	bl	HAL_SDRAM_DMA_XferCpltCallback
	.loc	7 1273 1 is_stmt 1              @ libraries/STM32H7xx_HAL/STM32H7xx_HAL_Driver/Src/stm32h7xx_hal_sdram.c:1273:1
	add	sp, #8
	pop	{r7, pc}
.Ltmp208:
.Lfunc_end16:
	.size	SDRAM_DMACpltProt, .Lfunc_end16-SDRAM_DMACpltProt
	.cfi_endproc
	.cantunwind
	.fnend
                                        @ -- End function
	.section	.text.SDRAM_DMAError,"ax",%progbits
	.p2align	3                               @ -- Begin function SDRAM_DMAError
	.type	SDRAM_DMAError,%function
	.code	16                              @ @SDRAM_DMAError
	.thumb_func
SDRAM_DMAError:
.Lfunc_begin17:
	.loc	7 1281 0                        @ libraries/STM32H7xx_HAL/STM32H7xx_HAL_Driver/Src/stm32h7xx_hal_sdram.c:1281:0
	.fnstart
	.cfi_startproc
@ %bb.0:
	.save	{r7, lr}
	push	{r7, lr}
	.cfi_def_cfa_offset 8
	.cfi_offset lr, -4
	.cfi_offset r7, -8
	.pad	#8
	sub	sp, #8
	.cfi_def_cfa_offset 16
	str	r0, [sp, #4]
.Ltmp209:
	.loc	7 1282 58 prologue_end          @ libraries/STM32H7xx_HAL/STM32H7xx_HAL_Driver/Src/stm32h7xx_hal_sdram.c:1282:58
	ldr	r0, [sp, #4]
	.loc	7 1282 65 is_stmt 0             @ libraries/STM32H7xx_HAL/STM32H7xx_HAL_Driver/Src/stm32h7xx_hal_sdram.c:1282:65
	ldr	r0, [r0, #64]
	.loc	7 1282 24                       @ libraries/STM32H7xx_HAL/STM32H7xx_HAL_Driver/Src/stm32h7xx_hal_sdram.c:1282:24
	str	r0, [sp]
	.loc	7 1285 3 is_stmt 1              @ libraries/STM32H7xx_HAL/STM32H7xx_HAL_Driver/Src/stm32h7xx_hal_sdram.c:1285:3
	ldr	r0, [sp, #4]
	ldr	r1, [r0]
	ldr	r0, [r1, #12]
	bic	r0, r0, #1
	str	r0, [r1, #12]
	.loc	7 1288 3                        @ libraries/STM32H7xx_HAL/STM32H7xx_HAL_Driver/Src/stm32h7xx_hal_sdram.c:1288:3
	ldr	r1, [sp]
	movs	r0, #3
	.loc	7 1288 17 is_stmt 0             @ libraries/STM32H7xx_HAL/STM32H7xx_HAL_Driver/Src/stm32h7xx_hal_sdram.c:1288:17
	strb.w	r0, [r1, #44]
	.loc	7 1293 35 is_stmt 1             @ libraries/STM32H7xx_HAL/STM32H7xx_HAL_Driver/Src/stm32h7xx_hal_sdram.c:1293:35
	ldr	r0, [sp, #4]
	.loc	7 1293 3 is_stmt 0              @ libraries/STM32H7xx_HAL/STM32H7xx_HAL_Driver/Src/stm32h7xx_hal_sdram.c:1293:3
	bl	HAL_SDRAM_DMA_XferErrorCallback
	.loc	7 1295 1 is_stmt 1              @ libraries/STM32H7xx_HAL/STM32H7xx_HAL_Driver/Src/stm32h7xx_hal_sdram.c:1295:1
	add	sp, #8
	pop	{r7, pc}
.Ltmp210:
.Lfunc_end17:
	.size	SDRAM_DMAError, .Lfunc_end17-SDRAM_DMAError
	.cfi_endproc
	.cantunwind
	.fnend
                                        @ -- End function
	.section	.text.HAL_SDRAM_Write_DMA,"ax",%progbits
	.hidden	HAL_SDRAM_Write_DMA             @ -- Begin function HAL_SDRAM_Write_DMA
	.globl	HAL_SDRAM_Write_DMA
	.p2align	3
	.type	HAL_SDRAM_Write_DMA,%function
	.code	16                              @ @HAL_SDRAM_Write_DMA
	.thumb_func
HAL_SDRAM_Write_DMA:
.Lfunc_begin18:
	.loc	7 750 0                         @ libraries/STM32H7xx_HAL/STM32H7xx_HAL_Driver/Src/stm32h7xx_hal_sdram.c:750:0
	.fnstart
	.cfi_startproc
@ %bb.0:
	.save	{r7, lr}
	push	{r7, lr}
	.cfi_def_cfa_offset 8
	.cfi_offset lr, -4
	.cfi_offset r7, -8
	.pad	#32
	sub	sp, #32
	.cfi_def_cfa_offset 40
	str	r0, [sp, #24]
	str	r1, [sp, #20]
	str	r2, [sp, #16]
	str	r3, [sp, #12]
.Ltmp211:
	.loc	7 754 7 prologue_end            @ libraries/STM32H7xx_HAL/STM32H7xx_HAL_Driver/Src/stm32h7xx_hal_sdram.c:754:7
	ldr	r0, [sp, #24]
	.loc	7 754 15 is_stmt 0              @ libraries/STM32H7xx_HAL/STM32H7xx_HAL_Driver/Src/stm32h7xx_hal_sdram.c:754:15
	ldrb.w	r0, [r0, #44]
.Ltmp212:
	.loc	7 754 7                         @ libraries/STM32H7xx_HAL/STM32H7xx_HAL_Driver/Src/stm32h7xx_hal_sdram.c:754:7
	cmp	r0, #2
	bne	.LBB18_2
	b	.LBB18_1
.LBB18_1:
	.loc	7 0 7                           @ libraries/STM32H7xx_HAL/STM32H7xx_HAL_Driver/Src/stm32h7xx_hal_sdram.c:0:7
	movs	r0, #2
.Ltmp213:
	.loc	7 756 5 is_stmt 1               @ libraries/STM32H7xx_HAL/STM32H7xx_HAL_Driver/Src/stm32h7xx_hal_sdram.c:756:5
	strb.w	r0, [sp, #31]
	b	.LBB18_14
.Ltmp214:
.LBB18_2:
	.loc	7 758 12                        @ libraries/STM32H7xx_HAL/STM32H7xx_HAL_Driver/Src/stm32h7xx_hal_sdram.c:758:12
	ldr	r0, [sp, #24]
	.loc	7 758 20 is_stmt 0              @ libraries/STM32H7xx_HAL/STM32H7xx_HAL_Driver/Src/stm32h7xx_hal_sdram.c:758:20
	ldrb.w	r0, [r0, #44]
.Ltmp215:
	.loc	7 758 12                        @ libraries/STM32H7xx_HAL/STM32H7xx_HAL_Driver/Src/stm32h7xx_hal_sdram.c:758:12
	cmp	r0, #1
	bne	.LBB18_11
	b	.LBB18_3
.LBB18_3:
.Ltmp216:
	.loc	7 761 5 is_stmt 1               @ libraries/STM32H7xx_HAL/STM32H7xx_HAL_Driver/Src/stm32h7xx_hal_sdram.c:761:5
	b	.LBB18_4
.LBB18_4:
.Ltmp217:
	.loc	7 761 5 is_stmt 0               @ libraries/STM32H7xx_HAL/STM32H7xx_HAL_Driver/Src/stm32h7xx_hal_sdram.c:761:5
	ldr	r0, [sp, #24]
	ldrb.w	r0, [r0, #45]
.Ltmp218:
	.loc	7 761 5                         @ libraries/STM32H7xx_HAL/STM32H7xx_HAL_Driver/Src/stm32h7xx_hal_sdram.c:761:5
	cmp	r0, #1
	bne	.LBB18_6
	b	.LBB18_5
.LBB18_5:
	.loc	7 0 5                           @ libraries/STM32H7xx_HAL/STM32H7xx_HAL_Driver/Src/stm32h7xx_hal_sdram.c:0:5
	movs	r0, #2
.Ltmp219:
	.loc	7 761 5                         @ libraries/STM32H7xx_HAL/STM32H7xx_HAL_Driver/Src/stm32h7xx_hal_sdram.c:761:5
	strb.w	r0, [sp, #31]
	b	.LBB18_14
.Ltmp220:
.LBB18_6:
	.loc	7 761 5                         @ libraries/STM32H7xx_HAL/STM32H7xx_HAL_Driver/Src/stm32h7xx_hal_sdram.c:761:5
	ldr	r1, [sp, #24]
	movs	r0, #1
	strb.w	r0, [r1, #45]
	b	.LBB18_7
.Ltmp221:
.LBB18_7:
	.loc	7 761 5                         @ libraries/STM32H7xx_HAL/STM32H7xx_HAL_Driver/Src/stm32h7xx_hal_sdram.c:761:5
	b	.LBB18_8
.Ltmp222:
.LBB18_8:
	.loc	7 764 5 is_stmt 1               @ libraries/STM32H7xx_HAL/STM32H7xx_HAL_Driver/Src/stm32h7xx_hal_sdram.c:764:5
	ldr	r1, [sp, #24]
	movs	r0, #2
	.loc	7 764 19 is_stmt 0              @ libraries/STM32H7xx_HAL/STM32H7xx_HAL_Driver/Src/stm32h7xx_hal_sdram.c:764:19
	strb.w	r0, [r1, #44]
	.loc	7 767 5 is_stmt 1               @ libraries/STM32H7xx_HAL/STM32H7xx_HAL_Driver/Src/stm32h7xx_hal_sdram.c:767:5
	ldr	r0, [sp, #24]
	.loc	7 767 13 is_stmt 0              @ libraries/STM32H7xx_HAL/STM32H7xx_HAL_Driver/Src/stm32h7xx_hal_sdram.c:767:13
	ldr	r1, [r0, #48]
	.loc	7 767 37                        @ libraries/STM32H7xx_HAL/STM32H7xx_HAL_Driver/Src/stm32h7xx_hal_sdram.c:767:37
	movw	r0, :lower16:SDRAM_DMACplt
	movt	r0, :upper16:SDRAM_DMACplt
	str	r0, [r1, #68]
	.loc	7 768 5 is_stmt 1               @ libraries/STM32H7xx_HAL/STM32H7xx_HAL_Driver/Src/stm32h7xx_hal_sdram.c:768:5
	ldr	r0, [sp, #24]
	.loc	7 768 13 is_stmt 0              @ libraries/STM32H7xx_HAL/STM32H7xx_HAL_Driver/Src/stm32h7xx_hal_sdram.c:768:13
	ldr	r1, [r0, #48]
	.loc	7 768 38                        @ libraries/STM32H7xx_HAL/STM32H7xx_HAL_Driver/Src/stm32h7xx_hal_sdram.c:768:38
	movw	r0, :lower16:SDRAM_DMAError
	movt	r0, :upper16:SDRAM_DMAError
	str	r0, [r1, #84]
	.loc	7 771 30 is_stmt 1              @ libraries/STM32H7xx_HAL/STM32H7xx_HAL_Driver/Src/stm32h7xx_hal_sdram.c:771:30
	ldr	r0, [sp, #24]
	.loc	7 771 38 is_stmt 0              @ libraries/STM32H7xx_HAL/STM32H7xx_HAL_Driver/Src/stm32h7xx_hal_sdram.c:771:38
	ldr	r0, [r0, #48]
	.loc	7 771 55                        @ libraries/STM32H7xx_HAL/STM32H7xx_HAL_Driver/Src/stm32h7xx_hal_sdram.c:771:55
	ldr	r1, [sp, #16]
	.loc	7 771 77                        @ libraries/STM32H7xx_HAL/STM32H7xx_HAL_Driver/Src/stm32h7xx_hal_sdram.c:771:77
	ldr	r2, [sp, #20]
	.loc	7 771 98                        @ libraries/STM32H7xx_HAL/STM32H7xx_HAL_Driver/Src/stm32h7xx_hal_sdram.c:771:98
	ldr	r3, [sp, #12]
	.loc	7 771 109                       @ libraries/STM32H7xx_HAL/STM32H7xx_HAL_Driver/Src/stm32h7xx_hal_sdram.c:771:109
	lsls	r3, r3, #2
	.loc	7 771 12                        @ libraries/STM32H7xx_HAL/STM32H7xx_HAL_Driver/Src/stm32h7xx_hal_sdram.c:771:12
	mov	lr, sp
	mov.w	r12, #1
	str.w	r12, [lr]
	bl	HAL_MDMA_Start_IT
	.loc	7 771 10                        @ libraries/STM32H7xx_HAL/STM32H7xx_HAL_Driver/Src/stm32h7xx_hal_sdram.c:771:10
	strb.w	r0, [sp, #11]
	.loc	7 774 5 is_stmt 1               @ libraries/STM32H7xx_HAL/STM32H7xx_HAL_Driver/Src/stm32h7xx_hal_sdram.c:774:5
	b	.LBB18_9
.LBB18_9:
.Ltmp223:
	.loc	7 774 5 is_stmt 0               @ libraries/STM32H7xx_HAL/STM32H7xx_HAL_Driver/Src/stm32h7xx_hal_sdram.c:774:5
	ldr	r1, [sp, #24]
	movs	r0, #0
	strb.w	r0, [r1, #45]
	b	.LBB18_10
.Ltmp224:
.LBB18_10:
	.loc	7 775 3 is_stmt 1               @ libraries/STM32H7xx_HAL/STM32H7xx_HAL_Driver/Src/stm32h7xx_hal_sdram.c:775:3
	b	.LBB18_12
.Ltmp225:
.LBB18_11:
	.loc	7 0 3 is_stmt 0                 @ libraries/STM32H7xx_HAL/STM32H7xx_HAL_Driver/Src/stm32h7xx_hal_sdram.c:0:3
	movs	r0, #1
.Ltmp226:
	.loc	7 778 5 is_stmt 1               @ libraries/STM32H7xx_HAL/STM32H7xx_HAL_Driver/Src/stm32h7xx_hal_sdram.c:778:5
	strb.w	r0, [sp, #31]
	b	.LBB18_14
.Ltmp227:
.LBB18_12:
	.loc	7 0 5 is_stmt 0                 @ libraries/STM32H7xx_HAL/STM32H7xx_HAL_Driver/Src/stm32h7xx_hal_sdram.c:0:5
	b	.LBB18_13
.LBB18_13:
	.loc	7 781 10 is_stmt 1              @ libraries/STM32H7xx_HAL/STM32H7xx_HAL_Driver/Src/stm32h7xx_hal_sdram.c:781:10
	ldrb.w	r0, [sp, #11]
	.loc	7 781 3 is_stmt 0               @ libraries/STM32H7xx_HAL/STM32H7xx_HAL_Driver/Src/stm32h7xx_hal_sdram.c:781:3
	strb.w	r0, [sp, #31]
	b	.LBB18_14
.LBB18_14:
	.loc	7 782 1 is_stmt 1               @ libraries/STM32H7xx_HAL/STM32H7xx_HAL_Driver/Src/stm32h7xx_hal_sdram.c:782:1
	ldrb.w	r0, [sp, #31]
	add	sp, #32
	pop	{r7, pc}
.Ltmp228:
.Lfunc_end18:
	.size	HAL_SDRAM_Write_DMA, .Lfunc_end18-HAL_SDRAM_Write_DMA
	.cfi_endproc
	.cantunwind
	.fnend
                                        @ -- End function
	.section	.text.HAL_SDRAM_WriteProtection_Enable,"ax",%progbits
	.hidden	HAL_SDRAM_WriteProtection_Enable @ -- Begin function HAL_SDRAM_WriteProtection_Enable
	.globl	HAL_SDRAM_WriteProtection_Enable
	.p2align	3
	.type	HAL_SDRAM_WriteProtection_Enable,%function
	.code	16                              @ @HAL_SDRAM_WriteProtection_Enable
	.thumb_func
HAL_SDRAM_WriteProtection_Enable:
.Lfunc_begin19:
	.loc	7 1010 0                        @ libraries/STM32H7xx_HAL/STM32H7xx_HAL_Driver/Src/stm32h7xx_hal_sdram.c:1010:0
	.fnstart
	.cfi_startproc
@ %bb.0:
	.save	{r7, lr}
	push	{r7, lr}
	.cfi_def_cfa_offset 8
	.cfi_offset lr, -4
	.cfi_offset r7, -8
	.pad	#8
	sub	sp, #8
	.cfi_def_cfa_offset 16
	str	r0, [sp]
.Ltmp229:
	.loc	7 1012 7 prologue_end           @ libraries/STM32H7xx_HAL/STM32H7xx_HAL_Driver/Src/stm32h7xx_hal_sdram.c:1012:7
	ldr	r0, [sp]
	.loc	7 1012 15 is_stmt 0             @ libraries/STM32H7xx_HAL/STM32H7xx_HAL_Driver/Src/stm32h7xx_hal_sdram.c:1012:15
	ldrb.w	r0, [r0, #44]
.Ltmp230:
	.loc	7 1012 7                        @ libraries/STM32H7xx_HAL/STM32H7xx_HAL_Driver/Src/stm32h7xx_hal_sdram.c:1012:7
	cmp	r0, #2
	bne	.LBB19_2
	b	.LBB19_1
.LBB19_1:
	.loc	7 0 7                           @ libraries/STM32H7xx_HAL/STM32H7xx_HAL_Driver/Src/stm32h7xx_hal_sdram.c:0:7
	movs	r0, #2
.Ltmp231:
	.loc	7 1014 5 is_stmt 1              @ libraries/STM32H7xx_HAL/STM32H7xx_HAL_Driver/Src/stm32h7xx_hal_sdram.c:1014:5
	strb.w	r0, [sp, #7]
	b	.LBB19_7
.Ltmp232:
.LBB19_2:
	.loc	7 1016 12                       @ libraries/STM32H7xx_HAL/STM32H7xx_HAL_Driver/Src/stm32h7xx_hal_sdram.c:1016:12
	ldr	r0, [sp]
	.loc	7 1016 20 is_stmt 0             @ libraries/STM32H7xx_HAL/STM32H7xx_HAL_Driver/Src/stm32h7xx_hal_sdram.c:1016:20
	ldrb.w	r0, [r0, #44]
.Ltmp233:
	.loc	7 1016 12                       @ libraries/STM32H7xx_HAL/STM32H7xx_HAL_Driver/Src/stm32h7xx_hal_sdram.c:1016:12
	cmp	r0, #1
	bne	.LBB19_4
	b	.LBB19_3
.LBB19_3:
.Ltmp234:
	.loc	7 1019 5 is_stmt 1              @ libraries/STM32H7xx_HAL/STM32H7xx_HAL_Driver/Src/stm32h7xx_hal_sdram.c:1019:5
	ldr	r1, [sp]
	movs	r0, #2
	.loc	7 1019 19 is_stmt 0             @ libraries/STM32H7xx_HAL/STM32H7xx_HAL_Driver/Src/stm32h7xx_hal_sdram.c:1019:19
	strb.w	r0, [r1, #44]
	.loc	7 1022 44 is_stmt 1             @ libraries/STM32H7xx_HAL/STM32H7xx_HAL_Driver/Src/stm32h7xx_hal_sdram.c:1022:44
	ldr	r1, [sp]
	.loc	7 1022 52 is_stmt 0             @ libraries/STM32H7xx_HAL/STM32H7xx_HAL_Driver/Src/stm32h7xx_hal_sdram.c:1022:52
	ldr	r0, [r1]
	.loc	7 1022 75                       @ libraries/STM32H7xx_HAL/STM32H7xx_HAL_Driver/Src/stm32h7xx_hal_sdram.c:1022:75
	ldr	r1, [r1, #4]
	.loc	7 1022 11                       @ libraries/STM32H7xx_HAL/STM32H7xx_HAL_Driver/Src/stm32h7xx_hal_sdram.c:1022:11
	bl	FMC_SDRAM_WriteProtection_Enable
	.loc	7 1025 5 is_stmt 1              @ libraries/STM32H7xx_HAL/STM32H7xx_HAL_Driver/Src/stm32h7xx_hal_sdram.c:1025:5
	ldr	r1, [sp]
	movs	r0, #4
	.loc	7 1025 19 is_stmt 0             @ libraries/STM32H7xx_HAL/STM32H7xx_HAL_Driver/Src/stm32h7xx_hal_sdram.c:1025:19
	strb.w	r0, [r1, #44]
	.loc	7 1026 3 is_stmt 1              @ libraries/STM32H7xx_HAL/STM32H7xx_HAL_Driver/Src/stm32h7xx_hal_sdram.c:1026:3
	b	.LBB19_5
.Ltmp235:
.LBB19_4:
	.loc	7 0 3 is_stmt 0                 @ libraries/STM32H7xx_HAL/STM32H7xx_HAL_Driver/Src/stm32h7xx_hal_sdram.c:0:3
	movs	r0, #1
.Ltmp236:
	.loc	7 1029 5 is_stmt 1              @ libraries/STM32H7xx_HAL/STM32H7xx_HAL_Driver/Src/stm32h7xx_hal_sdram.c:1029:5
	strb.w	r0, [sp, #7]
	b	.LBB19_7
.Ltmp237:
.LBB19_5:
	.loc	7 0 5 is_stmt 0                 @ libraries/STM32H7xx_HAL/STM32H7xx_HAL_Driver/Src/stm32h7xx_hal_sdram.c:0:5
	b	.LBB19_6
.LBB19_6:
	movs	r0, #0
	.loc	7 1032 3 is_stmt 1              @ libraries/STM32H7xx_HAL/STM32H7xx_HAL_Driver/Src/stm32h7xx_hal_sdram.c:1032:3
	strb.w	r0, [sp, #7]
	b	.LBB19_7
.LBB19_7:
	.loc	7 1033 1                        @ libraries/STM32H7xx_HAL/STM32H7xx_HAL_Driver/Src/stm32h7xx_hal_sdram.c:1033:1
	ldrb.w	r0, [sp, #7]
	add	sp, #8
	pop	{r7, pc}
.Ltmp238:
.Lfunc_end19:
	.size	HAL_SDRAM_WriteProtection_Enable, .Lfunc_end19-HAL_SDRAM_WriteProtection_Enable
	.cfi_endproc
	.cantunwind
	.fnend
                                        @ -- End function
	.section	.text.HAL_SDRAM_WriteProtection_Disable,"ax",%progbits
	.hidden	HAL_SDRAM_WriteProtection_Disable @ -- Begin function HAL_SDRAM_WriteProtection_Disable
	.globl	HAL_SDRAM_WriteProtection_Disable
	.p2align	3
	.type	HAL_SDRAM_WriteProtection_Disable,%function
	.code	16                              @ @HAL_SDRAM_WriteProtection_Disable
	.thumb_func
HAL_SDRAM_WriteProtection_Disable:
.Lfunc_begin20:
	.loc	7 1042 0                        @ libraries/STM32H7xx_HAL/STM32H7xx_HAL_Driver/Src/stm32h7xx_hal_sdram.c:1042:0
	.fnstart
	.cfi_startproc
@ %bb.0:
	.save	{r7, lr}
	push	{r7, lr}
	.cfi_def_cfa_offset 8
	.cfi_offset lr, -4
	.cfi_offset r7, -8
	.pad	#16
	sub	sp, #16
	.cfi_def_cfa_offset 24
	str	r0, [sp, #8]
.Ltmp239:
	.loc	7 1043 34 prologue_end          @ libraries/STM32H7xx_HAL/STM32H7xx_HAL_Driver/Src/stm32h7xx_hal_sdram.c:1043:34
	ldr	r0, [sp, #8]
	.loc	7 1043 42 is_stmt 0             @ libraries/STM32H7xx_HAL/STM32H7xx_HAL_Driver/Src/stm32h7xx_hal_sdram.c:1043:42
	ldrb.w	r0, [r0, #44]
	.loc	7 1043 26                       @ libraries/STM32H7xx_HAL/STM32H7xx_HAL_Driver/Src/stm32h7xx_hal_sdram.c:1043:26
	strb.w	r0, [sp, #7]
.Ltmp240:
	.loc	7 1046 7 is_stmt 1              @ libraries/STM32H7xx_HAL/STM32H7xx_HAL_Driver/Src/stm32h7xx_hal_sdram.c:1046:7
	ldrb.w	r0, [sp, #7]
.Ltmp241:
	.loc	7 1046 7 is_stmt 0              @ libraries/STM32H7xx_HAL/STM32H7xx_HAL_Driver/Src/stm32h7xx_hal_sdram.c:1046:7
	cmp	r0, #2
	bne	.LBB20_2
	b	.LBB20_1
.LBB20_1:
	.loc	7 0 7                           @ libraries/STM32H7xx_HAL/STM32H7xx_HAL_Driver/Src/stm32h7xx_hal_sdram.c:0:7
	movs	r0, #2
.Ltmp242:
	.loc	7 1048 5 is_stmt 1              @ libraries/STM32H7xx_HAL/STM32H7xx_HAL_Driver/Src/stm32h7xx_hal_sdram.c:1048:5
	strb.w	r0, [sp, #15]
	b	.LBB20_7
.Ltmp243:
.LBB20_2:
	.loc	7 1050 12                       @ libraries/STM32H7xx_HAL/STM32H7xx_HAL_Driver/Src/stm32h7xx_hal_sdram.c:1050:12
	ldrb.w	r0, [sp, #7]
.Ltmp244:
	.loc	7 1050 12 is_stmt 0             @ libraries/STM32H7xx_HAL/STM32H7xx_HAL_Driver/Src/stm32h7xx_hal_sdram.c:1050:12
	cmp	r0, #4
	bne	.LBB20_4
	b	.LBB20_3
.LBB20_3:
.Ltmp245:
	.loc	7 1053 5 is_stmt 1              @ libraries/STM32H7xx_HAL/STM32H7xx_HAL_Driver/Src/stm32h7xx_hal_sdram.c:1053:5
	ldr	r1, [sp, #8]
	movs	r0, #2
	.loc	7 1053 19 is_stmt 0             @ libraries/STM32H7xx_HAL/STM32H7xx_HAL_Driver/Src/stm32h7xx_hal_sdram.c:1053:19
	strb.w	r0, [r1, #44]
	.loc	7 1056 45 is_stmt 1             @ libraries/STM32H7xx_HAL/STM32H7xx_HAL_Driver/Src/stm32h7xx_hal_sdram.c:1056:45
	ldr	r1, [sp, #8]
	.loc	7 1056 53 is_stmt 0             @ libraries/STM32H7xx_HAL/STM32H7xx_HAL_Driver/Src/stm32h7xx_hal_sdram.c:1056:53
	ldr	r0, [r1]
	.loc	7 1056 76                       @ libraries/STM32H7xx_HAL/STM32H7xx_HAL_Driver/Src/stm32h7xx_hal_sdram.c:1056:76
	ldr	r1, [r1, #4]
	.loc	7 1056 11                       @ libraries/STM32H7xx_HAL/STM32H7xx_HAL_Driver/Src/stm32h7xx_hal_sdram.c:1056:11
	bl	FMC_SDRAM_WriteProtection_Disable
	.loc	7 1059 5 is_stmt 1              @ libraries/STM32H7xx_HAL/STM32H7xx_HAL_Driver/Src/stm32h7xx_hal_sdram.c:1059:5
	ldr	r1, [sp, #8]
	movs	r0, #1
	.loc	7 1059 19 is_stmt 0             @ libraries/STM32H7xx_HAL/STM32H7xx_HAL_Driver/Src/stm32h7xx_hal_sdram.c:1059:19
	strb.w	r0, [r1, #44]
	.loc	7 1060 3 is_stmt 1              @ libraries/STM32H7xx_HAL/STM32H7xx_HAL_Driver/Src/stm32h7xx_hal_sdram.c:1060:3
	b	.LBB20_5
.Ltmp246:
.LBB20_4:
	.loc	7 0 3 is_stmt 0                 @ libraries/STM32H7xx_HAL/STM32H7xx_HAL_Driver/Src/stm32h7xx_hal_sdram.c:0:3
	movs	r0, #1
.Ltmp247:
	.loc	7 1063 5 is_stmt 1              @ libraries/STM32H7xx_HAL/STM32H7xx_HAL_Driver/Src/stm32h7xx_hal_sdram.c:1063:5
	strb.w	r0, [sp, #15]
	b	.LBB20_7
.Ltmp248:
.LBB20_5:
	.loc	7 0 5 is_stmt 0                 @ libraries/STM32H7xx_HAL/STM32H7xx_HAL_Driver/Src/stm32h7xx_hal_sdram.c:0:5
	b	.LBB20_6
.LBB20_6:
	movs	r0, #0
	.loc	7 1066 3 is_stmt 1              @ libraries/STM32H7xx_HAL/STM32H7xx_HAL_Driver/Src/stm32h7xx_hal_sdram.c:1066:3
	strb.w	r0, [sp, #15]
	b	.LBB20_7
.LBB20_7:
	.loc	7 1067 1                        @ libraries/STM32H7xx_HAL/STM32H7xx_HAL_Driver/Src/stm32h7xx_hal_sdram.c:1067:1
	ldrb.w	r0, [sp, #15]
	add	sp, #16
	pop	{r7, pc}
.Ltmp249:
.Lfunc_end20:
	.size	HAL_SDRAM_WriteProtection_Disable, .Lfunc_end20-HAL_SDRAM_WriteProtection_Disable
	.cfi_endproc
	.cantunwind
	.fnend
                                        @ -- End function
	.section	.text.HAL_SDRAM_SendCommand,"ax",%progbits
	.hidden	HAL_SDRAM_SendCommand           @ -- Begin function HAL_SDRAM_SendCommand
	.globl	HAL_SDRAM_SendCommand
	.p2align	3
	.type	HAL_SDRAM_SendCommand,%function
	.code	16                              @ @HAL_SDRAM_SendCommand
	.thumb_func
HAL_SDRAM_SendCommand:
.Lfunc_begin21:
	.loc	7 1078 0                        @ libraries/STM32H7xx_HAL/STM32H7xx_HAL_Driver/Src/stm32h7xx_hal_sdram.c:1078:0
	.fnstart
	.cfi_startproc
@ %bb.0:
	.save	{r7, lr}
	push	{r7, lr}
	.cfi_def_cfa_offset 8
	.cfi_offset lr, -4
	.cfi_offset r7, -8
	.pad	#24
	sub	sp, #24
	.cfi_def_cfa_offset 32
	str	r0, [sp, #16]
	str	r1, [sp, #12]
	str	r2, [sp, #8]
.Ltmp250:
	.loc	7 1079 34 prologue_end          @ libraries/STM32H7xx_HAL/STM32H7xx_HAL_Driver/Src/stm32h7xx_hal_sdram.c:1079:34
	ldr	r0, [sp, #16]
	.loc	7 1079 42 is_stmt 0             @ libraries/STM32H7xx_HAL/STM32H7xx_HAL_Driver/Src/stm32h7xx_hal_sdram.c:1079:42
	ldrb.w	r0, [r0, #44]
	.loc	7 1079 26                       @ libraries/STM32H7xx_HAL/STM32H7xx_HAL_Driver/Src/stm32h7xx_hal_sdram.c:1079:26
	strb.w	r0, [sp, #7]
.Ltmp251:
	.loc	7 1082 7 is_stmt 1              @ libraries/STM32H7xx_HAL/STM32H7xx_HAL_Driver/Src/stm32h7xx_hal_sdram.c:1082:7
	ldrb.w	r0, [sp, #7]
.Ltmp252:
	.loc	7 1082 7 is_stmt 0              @ libraries/STM32H7xx_HAL/STM32H7xx_HAL_Driver/Src/stm32h7xx_hal_sdram.c:1082:7
	cmp	r0, #2
	bne	.LBB21_2
	b	.LBB21_1
.LBB21_1:
	.loc	7 0 7                           @ libraries/STM32H7xx_HAL/STM32H7xx_HAL_Driver/Src/stm32h7xx_hal_sdram.c:0:7
	movs	r0, #2
.Ltmp253:
	.loc	7 1084 5 is_stmt 1              @ libraries/STM32H7xx_HAL/STM32H7xx_HAL_Driver/Src/stm32h7xx_hal_sdram.c:1084:5
	strb.w	r0, [sp, #23]
	b	.LBB21_11
.Ltmp254:
.LBB21_2:
	.loc	7 1086 12                       @ libraries/STM32H7xx_HAL/STM32H7xx_HAL_Driver/Src/stm32h7xx_hal_sdram.c:1086:12
	ldrb.w	r0, [sp, #7]
	.loc	7 1086 44 is_stmt 0             @ libraries/STM32H7xx_HAL/STM32H7xx_HAL_Driver/Src/stm32h7xx_hal_sdram.c:1086:44
	cmp	r0, #1
	beq	.LBB21_4
	b	.LBB21_3
.LBB21_3:
	.loc	7 1086 48                       @ libraries/STM32H7xx_HAL/STM32H7xx_HAL_Driver/Src/stm32h7xx_hal_sdram.c:1086:48
	ldrb.w	r0, [sp, #7]
.Ltmp255:
	.loc	7 1086 11                       @ libraries/STM32H7xx_HAL/STM32H7xx_HAL_Driver/Src/stm32h7xx_hal_sdram.c:1086:11
	cmp	r0, #5
	bne	.LBB21_8
	b	.LBB21_4
.LBB21_4:
.Ltmp256:
	.loc	7 1089 5 is_stmt 1              @ libraries/STM32H7xx_HAL/STM32H7xx_HAL_Driver/Src/stm32h7xx_hal_sdram.c:1089:5
	ldr	r1, [sp, #16]
	movs	r0, #2
	.loc	7 1089 19 is_stmt 0             @ libraries/STM32H7xx_HAL/STM32H7xx_HAL_Driver/Src/stm32h7xx_hal_sdram.c:1089:19
	strb.w	r0, [r1, #44]
	.loc	7 1092 33 is_stmt 1             @ libraries/STM32H7xx_HAL/STM32H7xx_HAL_Driver/Src/stm32h7xx_hal_sdram.c:1092:33
	ldr	r0, [sp, #16]
	.loc	7 1092 41 is_stmt 0             @ libraries/STM32H7xx_HAL/STM32H7xx_HAL_Driver/Src/stm32h7xx_hal_sdram.c:1092:41
	ldr	r0, [r0]
	.loc	7 1092 51                       @ libraries/STM32H7xx_HAL/STM32H7xx_HAL_Driver/Src/stm32h7xx_hal_sdram.c:1092:51
	ldr	r1, [sp, #12]
	.loc	7 1092 60                       @ libraries/STM32H7xx_HAL/STM32H7xx_HAL_Driver/Src/stm32h7xx_hal_sdram.c:1092:60
	ldr	r2, [sp, #8]
	.loc	7 1092 11                       @ libraries/STM32H7xx_HAL/STM32H7xx_HAL_Driver/Src/stm32h7xx_hal_sdram.c:1092:11
	bl	FMC_SDRAM_SendCommand
.Ltmp257:
	.loc	7 1095 9 is_stmt 1              @ libraries/STM32H7xx_HAL/STM32H7xx_HAL_Driver/Src/stm32h7xx_hal_sdram.c:1095:9
	ldr	r0, [sp, #12]
	.loc	7 1095 18 is_stmt 0             @ libraries/STM32H7xx_HAL/STM32H7xx_HAL_Driver/Src/stm32h7xx_hal_sdram.c:1095:18
	ldr	r0, [r0]
.Ltmp258:
	.loc	7 1095 9                        @ libraries/STM32H7xx_HAL/STM32H7xx_HAL_Driver/Src/stm32h7xx_hal_sdram.c:1095:9
	cmp	r0, #2
	bne	.LBB21_6
	b	.LBB21_5
.LBB21_5:
.Ltmp259:
	.loc	7 1097 7 is_stmt 1              @ libraries/STM32H7xx_HAL/STM32H7xx_HAL_Driver/Src/stm32h7xx_hal_sdram.c:1097:7
	ldr	r1, [sp, #16]
	movs	r0, #5
	.loc	7 1097 21 is_stmt 0             @ libraries/STM32H7xx_HAL/STM32H7xx_HAL_Driver/Src/stm32h7xx_hal_sdram.c:1097:21
	strb.w	r0, [r1, #44]
	.loc	7 1098 5 is_stmt 1              @ libraries/STM32H7xx_HAL/STM32H7xx_HAL_Driver/Src/stm32h7xx_hal_sdram.c:1098:5
	b	.LBB21_7
.Ltmp260:
.LBB21_6:
	.loc	7 1101 7                        @ libraries/STM32H7xx_HAL/STM32H7xx_HAL_Driver/Src/stm32h7xx_hal_sdram.c:1101:7
	ldr	r1, [sp, #16]
	movs	r0, #1
	.loc	7 1101 21 is_stmt 0             @ libraries/STM32H7xx_HAL/STM32H7xx_HAL_Driver/Src/stm32h7xx_hal_sdram.c:1101:21
	strb.w	r0, [r1, #44]
	b	.LBB21_7
.Ltmp261:
.LBB21_7:
	.loc	7 1103 3 is_stmt 1              @ libraries/STM32H7xx_HAL/STM32H7xx_HAL_Driver/Src/stm32h7xx_hal_sdram.c:1103:3
	b	.LBB21_9
.Ltmp262:
.LBB21_8:
	.loc	7 0 3 is_stmt 0                 @ libraries/STM32H7xx_HAL/STM32H7xx_HAL_Driver/Src/stm32h7xx_hal_sdram.c:0:3
	movs	r0, #1
.Ltmp263:
	.loc	7 1106 5 is_stmt 1              @ libraries/STM32H7xx_HAL/STM32H7xx_HAL_Driver/Src/stm32h7xx_hal_sdram.c:1106:5
	strb.w	r0, [sp, #23]
	b	.LBB21_11
.Ltmp264:
.LBB21_9:
	.loc	7 0 5 is_stmt 0                 @ libraries/STM32H7xx_HAL/STM32H7xx_HAL_Driver/Src/stm32h7xx_hal_sdram.c:0:5
	b	.LBB21_10
.LBB21_10:
	movs	r0, #0
	.loc	7 1109 3 is_stmt 1              @ libraries/STM32H7xx_HAL/STM32H7xx_HAL_Driver/Src/stm32h7xx_hal_sdram.c:1109:3
	strb.w	r0, [sp, #23]
	b	.LBB21_11
.LBB21_11:
	.loc	7 1110 1                        @ libraries/STM32H7xx_HAL/STM32H7xx_HAL_Driver/Src/stm32h7xx_hal_sdram.c:1110:1
	ldrb.w	r0, [sp, #23]
	add	sp, #24
	pop	{r7, pc}
.Ltmp265:
.Lfunc_end21:
	.size	HAL_SDRAM_SendCommand, .Lfunc_end21-HAL_SDRAM_SendCommand
	.cfi_endproc
	.cantunwind
	.fnend
                                        @ -- End function
	.section	.text.HAL_SDRAM_ProgramRefreshRate,"ax",%progbits
	.hidden	HAL_SDRAM_ProgramRefreshRate    @ -- Begin function HAL_SDRAM_ProgramRefreshRate
	.globl	HAL_SDRAM_ProgramRefreshRate
	.p2align	3
	.type	HAL_SDRAM_ProgramRefreshRate,%function
	.code	16                              @ @HAL_SDRAM_ProgramRefreshRate
	.thumb_func
HAL_SDRAM_ProgramRefreshRate:
.Lfunc_begin22:
	.loc	7 1120 0                        @ libraries/STM32H7xx_HAL/STM32H7xx_HAL_Driver/Src/stm32h7xx_hal_sdram.c:1120:0
	.fnstart
	.cfi_startproc
@ %bb.0:
	.save	{r7, lr}
	push	{r7, lr}
	.cfi_def_cfa_offset 8
	.cfi_offset lr, -4
	.cfi_offset r7, -8
	.pad	#16
	sub	sp, #16
	.cfi_def_cfa_offset 24
	str	r0, [sp, #8]
	str	r1, [sp, #4]
.Ltmp266:
	.loc	7 1122 7 prologue_end           @ libraries/STM32H7xx_HAL/STM32H7xx_HAL_Driver/Src/stm32h7xx_hal_sdram.c:1122:7
	ldr	r0, [sp, #8]
	.loc	7 1122 15 is_stmt 0             @ libraries/STM32H7xx_HAL/STM32H7xx_HAL_Driver/Src/stm32h7xx_hal_sdram.c:1122:15
	ldrb.w	r0, [r0, #44]
.Ltmp267:
	.loc	7 1122 7                        @ libraries/STM32H7xx_HAL/STM32H7xx_HAL_Driver/Src/stm32h7xx_hal_sdram.c:1122:7
	cmp	r0, #2
	bne	.LBB22_2
	b	.LBB22_1
.LBB22_1:
	.loc	7 0 7                           @ libraries/STM32H7xx_HAL/STM32H7xx_HAL_Driver/Src/stm32h7xx_hal_sdram.c:0:7
	movs	r0, #2
.Ltmp268:
	.loc	7 1124 5 is_stmt 1              @ libraries/STM32H7xx_HAL/STM32H7xx_HAL_Driver/Src/stm32h7xx_hal_sdram.c:1124:5
	strb.w	r0, [sp, #15]
	b	.LBB22_7
.Ltmp269:
.LBB22_2:
	.loc	7 1126 12                       @ libraries/STM32H7xx_HAL/STM32H7xx_HAL_Driver/Src/stm32h7xx_hal_sdram.c:1126:12
	ldr	r0, [sp, #8]
	.loc	7 1126 20 is_stmt 0             @ libraries/STM32H7xx_HAL/STM32H7xx_HAL_Driver/Src/stm32h7xx_hal_sdram.c:1126:20
	ldrb.w	r0, [r0, #44]
.Ltmp270:
	.loc	7 1126 12                       @ libraries/STM32H7xx_HAL/STM32H7xx_HAL_Driver/Src/stm32h7xx_hal_sdram.c:1126:12
	cmp	r0, #1
	bne	.LBB22_4
	b	.LBB22_3
.LBB22_3:
.Ltmp271:
	.loc	7 1129 5 is_stmt 1              @ libraries/STM32H7xx_HAL/STM32H7xx_HAL_Driver/Src/stm32h7xx_hal_sdram.c:1129:5
	ldr	r1, [sp, #8]
	movs	r0, #2
	.loc	7 1129 19 is_stmt 0             @ libraries/STM32H7xx_HAL/STM32H7xx_HAL_Driver/Src/stm32h7xx_hal_sdram.c:1129:19
	strb.w	r0, [r1, #44]
	.loc	7 1132 40 is_stmt 1             @ libraries/STM32H7xx_HAL/STM32H7xx_HAL_Driver/Src/stm32h7xx_hal_sdram.c:1132:40
	ldr	r0, [sp, #8]
	.loc	7 1132 48 is_stmt 0             @ libraries/STM32H7xx_HAL/STM32H7xx_HAL_Driver/Src/stm32h7xx_hal_sdram.c:1132:48
	ldr	r0, [r0]
	.loc	7 1132 58                       @ libraries/STM32H7xx_HAL/STM32H7xx_HAL_Driver/Src/stm32h7xx_hal_sdram.c:1132:58
	ldr	r1, [sp, #4]
	.loc	7 1132 11                       @ libraries/STM32H7xx_HAL/STM32H7xx_HAL_Driver/Src/stm32h7xx_hal_sdram.c:1132:11
	bl	FMC_SDRAM_ProgramRefreshRate
	.loc	7 1135 5 is_stmt 1              @ libraries/STM32H7xx_HAL/STM32H7xx_HAL_Driver/Src/stm32h7xx_hal_sdram.c:1135:5
	ldr	r1, [sp, #8]
	movs	r0, #1
	.loc	7 1135 19 is_stmt 0             @ libraries/STM32H7xx_HAL/STM32H7xx_HAL_Driver/Src/stm32h7xx_hal_sdram.c:1135:19
	strb.w	r0, [r1, #44]
	.loc	7 1136 3 is_stmt 1              @ libraries/STM32H7xx_HAL/STM32H7xx_HAL_Driver/Src/stm32h7xx_hal_sdram.c:1136:3
	b	.LBB22_5
.Ltmp272:
.LBB22_4:
	.loc	7 0 3 is_stmt 0                 @ libraries/STM32H7xx_HAL/STM32H7xx_HAL_Driver/Src/stm32h7xx_hal_sdram.c:0:3
	movs	r0, #1
.Ltmp273:
	.loc	7 1139 5 is_stmt 1              @ libraries/STM32H7xx_HAL/STM32H7xx_HAL_Driver/Src/stm32h7xx_hal_sdram.c:1139:5
	strb.w	r0, [sp, #15]
	b	.LBB22_7
.Ltmp274:
.LBB22_5:
	.loc	7 0 5 is_stmt 0                 @ libraries/STM32H7xx_HAL/STM32H7xx_HAL_Driver/Src/stm32h7xx_hal_sdram.c:0:5
	b	.LBB22_6
.LBB22_6:
	movs	r0, #0
	.loc	7 1142 3 is_stmt 1              @ libraries/STM32H7xx_HAL/STM32H7xx_HAL_Driver/Src/stm32h7xx_hal_sdram.c:1142:3
	strb.w	r0, [sp, #15]
	b	.LBB22_7
.LBB22_7:
	.loc	7 1143 1                        @ libraries/STM32H7xx_HAL/STM32H7xx_HAL_Driver/Src/stm32h7xx_hal_sdram.c:1143:1
	ldrb.w	r0, [sp, #15]
	add	sp, #16
	pop	{r7, pc}
.Ltmp275:
.Lfunc_end22:
	.size	HAL_SDRAM_ProgramRefreshRate, .Lfunc_end22-HAL_SDRAM_ProgramRefreshRate
	.cfi_endproc
	.cantunwind
	.fnend
                                        @ -- End function
	.section	.text.HAL_SDRAM_SetAutoRefreshNumber,"ax",%progbits
	.hidden	HAL_SDRAM_SetAutoRefreshNumber  @ -- Begin function HAL_SDRAM_SetAutoRefreshNumber
	.globl	HAL_SDRAM_SetAutoRefreshNumber
	.p2align	3
	.type	HAL_SDRAM_SetAutoRefreshNumber,%function
	.code	16                              @ @HAL_SDRAM_SetAutoRefreshNumber
	.thumb_func
HAL_SDRAM_SetAutoRefreshNumber:
.Lfunc_begin23:
	.loc	7 1153 0                        @ libraries/STM32H7xx_HAL/STM32H7xx_HAL_Driver/Src/stm32h7xx_hal_sdram.c:1153:0
	.fnstart
	.cfi_startproc
@ %bb.0:
	.save	{r7, lr}
	push	{r7, lr}
	.cfi_def_cfa_offset 8
	.cfi_offset lr, -4
	.cfi_offset r7, -8
	.pad	#16
	sub	sp, #16
	.cfi_def_cfa_offset 24
	str	r0, [sp, #8]
	str	r1, [sp, #4]
.Ltmp276:
	.loc	7 1155 7 prologue_end           @ libraries/STM32H7xx_HAL/STM32H7xx_HAL_Driver/Src/stm32h7xx_hal_sdram.c:1155:7
	ldr	r0, [sp, #8]
	.loc	7 1155 15 is_stmt 0             @ libraries/STM32H7xx_HAL/STM32H7xx_HAL_Driver/Src/stm32h7xx_hal_sdram.c:1155:15
	ldrb.w	r0, [r0, #44]
.Ltmp277:
	.loc	7 1155 7                        @ libraries/STM32H7xx_HAL/STM32H7xx_HAL_Driver/Src/stm32h7xx_hal_sdram.c:1155:7
	cmp	r0, #2
	bne	.LBB23_2
	b	.LBB23_1
.LBB23_1:
	.loc	7 0 7                           @ libraries/STM32H7xx_HAL/STM32H7xx_HAL_Driver/Src/stm32h7xx_hal_sdram.c:0:7
	movs	r0, #2
.Ltmp278:
	.loc	7 1157 5 is_stmt 1              @ libraries/STM32H7xx_HAL/STM32H7xx_HAL_Driver/Src/stm32h7xx_hal_sdram.c:1157:5
	strb.w	r0, [sp, #15]
	b	.LBB23_7
.Ltmp279:
.LBB23_2:
	.loc	7 1159 12                       @ libraries/STM32H7xx_HAL/STM32H7xx_HAL_Driver/Src/stm32h7xx_hal_sdram.c:1159:12
	ldr	r0, [sp, #8]
	.loc	7 1159 20 is_stmt 0             @ libraries/STM32H7xx_HAL/STM32H7xx_HAL_Driver/Src/stm32h7xx_hal_sdram.c:1159:20
	ldrb.w	r0, [r0, #44]
.Ltmp280:
	.loc	7 1159 12                       @ libraries/STM32H7xx_HAL/STM32H7xx_HAL_Driver/Src/stm32h7xx_hal_sdram.c:1159:12
	cmp	r0, #1
	bne	.LBB23_4
	b	.LBB23_3
.LBB23_3:
.Ltmp281:
	.loc	7 1162 5 is_stmt 1              @ libraries/STM32H7xx_HAL/STM32H7xx_HAL_Driver/Src/stm32h7xx_hal_sdram.c:1162:5
	ldr	r1, [sp, #8]
	movs	r0, #2
	.loc	7 1162 19 is_stmt 0             @ libraries/STM32H7xx_HAL/STM32H7xx_HAL_Driver/Src/stm32h7xx_hal_sdram.c:1162:19
	strb.w	r0, [r1, #44]
	.loc	7 1165 42 is_stmt 1             @ libraries/STM32H7xx_HAL/STM32H7xx_HAL_Driver/Src/stm32h7xx_hal_sdram.c:1165:42
	ldr	r0, [sp, #8]
	.loc	7 1165 50 is_stmt 0             @ libraries/STM32H7xx_HAL/STM32H7xx_HAL_Driver/Src/stm32h7xx_hal_sdram.c:1165:50
	ldr	r0, [r0]
	.loc	7 1165 60                       @ libraries/STM32H7xx_HAL/STM32H7xx_HAL_Driver/Src/stm32h7xx_hal_sdram.c:1165:60
	ldr	r1, [sp, #4]
	.loc	7 1165 11                       @ libraries/STM32H7xx_HAL/STM32H7xx_HAL_Driver/Src/stm32h7xx_hal_sdram.c:1165:11
	bl	FMC_SDRAM_SetAutoRefreshNumber
	.loc	7 1168 5 is_stmt 1              @ libraries/STM32H7xx_HAL/STM32H7xx_HAL_Driver/Src/stm32h7xx_hal_sdram.c:1168:5
	ldr	r1, [sp, #8]
	movs	r0, #1
	.loc	7 1168 19 is_stmt 0             @ libraries/STM32H7xx_HAL/STM32H7xx_HAL_Driver/Src/stm32h7xx_hal_sdram.c:1168:19
	strb.w	r0, [r1, #44]
	.loc	7 1169 3 is_stmt 1              @ libraries/STM32H7xx_HAL/STM32H7xx_HAL_Driver/Src/stm32h7xx_hal_sdram.c:1169:3
	b	.LBB23_5
.Ltmp282:
.LBB23_4:
	.loc	7 0 3 is_stmt 0                 @ libraries/STM32H7xx_HAL/STM32H7xx_HAL_Driver/Src/stm32h7xx_hal_sdram.c:0:3
	movs	r0, #1
.Ltmp283:
	.loc	7 1172 5 is_stmt 1              @ libraries/STM32H7xx_HAL/STM32H7xx_HAL_Driver/Src/stm32h7xx_hal_sdram.c:1172:5
	strb.w	r0, [sp, #15]
	b	.LBB23_7
.Ltmp284:
.LBB23_5:
	.loc	7 0 5 is_stmt 0                 @ libraries/STM32H7xx_HAL/STM32H7xx_HAL_Driver/Src/stm32h7xx_hal_sdram.c:0:5
	b	.LBB23_6
.LBB23_6:
	movs	r0, #0
	.loc	7 1175 3 is_stmt 1              @ libraries/STM32H7xx_HAL/STM32H7xx_HAL_Driver/Src/stm32h7xx_hal_sdram.c:1175:3
	strb.w	r0, [sp, #15]
	b	.LBB23_7
.LBB23_7:
	.loc	7 1176 1                        @ libraries/STM32H7xx_HAL/STM32H7xx_HAL_Driver/Src/stm32h7xx_hal_sdram.c:1176:1
	ldrb.w	r0, [sp, #15]
	add	sp, #16
	pop	{r7, pc}
.Ltmp285:
.Lfunc_end23:
	.size	HAL_SDRAM_SetAutoRefreshNumber, .Lfunc_end23-HAL_SDRAM_SetAutoRefreshNumber
	.cfi_endproc
	.cantunwind
	.fnend
                                        @ -- End function
	.section	.text.HAL_SDRAM_GetModeStatus,"ax",%progbits
	.hidden	HAL_SDRAM_GetModeStatus         @ -- Begin function HAL_SDRAM_GetModeStatus
	.globl	HAL_SDRAM_GetModeStatus
	.p2align	3
	.type	HAL_SDRAM_GetModeStatus,%function
	.code	16                              @ @HAL_SDRAM_GetModeStatus
	.thumb_func
HAL_SDRAM_GetModeStatus:
.Lfunc_begin24:
	.loc	7 1185 0                        @ libraries/STM32H7xx_HAL/STM32H7xx_HAL_Driver/Src/stm32h7xx_hal_sdram.c:1185:0
	.fnstart
	.cfi_startproc
@ %bb.0:
	.save	{r7, lr}
	push	{r7, lr}
	.cfi_def_cfa_offset 8
	.cfi_offset lr, -4
	.cfi_offset r7, -8
	.pad	#8
	sub	sp, #8
	.cfi_def_cfa_offset 16
	str	r0, [sp, #4]
.Ltmp286:
	.loc	7 1187 35 prologue_end          @ libraries/STM32H7xx_HAL/STM32H7xx_HAL_Driver/Src/stm32h7xx_hal_sdram.c:1187:35
	ldr	r1, [sp, #4]
	.loc	7 1187 43 is_stmt 0             @ libraries/STM32H7xx_HAL/STM32H7xx_HAL_Driver/Src/stm32h7xx_hal_sdram.c:1187:43
	ldr	r0, [r1]
	.loc	7 1187 66                       @ libraries/STM32H7xx_HAL/STM32H7xx_HAL_Driver/Src/stm32h7xx_hal_sdram.c:1187:66
	ldr	r1, [r1, #4]
	.loc	7 1187 11                       @ libraries/STM32H7xx_HAL/STM32H7xx_HAL_Driver/Src/stm32h7xx_hal_sdram.c:1187:11
	bl	FMC_SDRAM_GetModeStatus
	.loc	7 1187 3                        @ libraries/STM32H7xx_HAL/STM32H7xx_HAL_Driver/Src/stm32h7xx_hal_sdram.c:1187:3
	add	sp, #8
	pop	{r7, pc}
.Ltmp287:
.Lfunc_end24:
	.size	HAL_SDRAM_GetModeStatus, .Lfunc_end24-HAL_SDRAM_GetModeStatus
	.cfi_endproc
	.cantunwind
	.fnend
                                        @ -- End function
	.section	.text.HAL_SDRAM_GetState,"ax",%progbits
	.hidden	HAL_SDRAM_GetState              @ -- Begin function HAL_SDRAM_GetState
	.globl	HAL_SDRAM_GetState
	.p2align	3
	.type	HAL_SDRAM_GetState,%function
	.code	16                              @ @HAL_SDRAM_GetState
	.thumb_func
HAL_SDRAM_GetState:
.Lfunc_begin25:
	.loc	7 1216 0 is_stmt 1              @ libraries/STM32H7xx_HAL/STM32H7xx_HAL_Driver/Src/stm32h7xx_hal_sdram.c:1216:0
	.fnstart
	.cfi_startproc
@ %bb.0:
	.pad	#4
	sub	sp, #4
	.cfi_def_cfa_offset 4
	str	r0, [sp]
.Ltmp288:
	.loc	7 1217 10 prologue_end          @ libraries/STM32H7xx_HAL/STM32H7xx_HAL_Driver/Src/stm32h7xx_hal_sdram.c:1217:10
	ldr	r0, [sp]
	.loc	7 1217 18 is_stmt 0             @ libraries/STM32H7xx_HAL/STM32H7xx_HAL_Driver/Src/stm32h7xx_hal_sdram.c:1217:18
	ldrb.w	r0, [r0, #44]
	.loc	7 1217 3                        @ libraries/STM32H7xx_HAL/STM32H7xx_HAL_Driver/Src/stm32h7xx_hal_sdram.c:1217:3
	add	sp, #4
	bx	lr
.Ltmp289:
.Lfunc_end25:
	.size	HAL_SDRAM_GetState, .Lfunc_end25-HAL_SDRAM_GetState
	.cfi_endproc
	.cantunwind
	.fnend
                                        @ -- End function
	.section	".note.GNU-stack","",%progbits
	.eabi_attribute	30, 6	@ Tag_ABI_optimization_goals
	.ARM_attribute	16, 1	@ Tag_AV_eba