	.text
	.syntax unified
	.eabi_attribute	67, "2.09"	@ Tag_conformance
	.cpu	cortex-m7
	.eabi_attribute	6, 13	@ Tag_CPU_arch
	.eabi_attribute	7, 77	@ Tag_CPU_arch_profile
	.eabi_attribute	8, 0	@ Tag_ARM_ISA_use
	.eabi_attribute	9, 2	@ Tag_THUMB_ISA_use
	.fpu	fpv5-d16
	.eabi_attribute	36, 1	@ Tag_FP_HP_extension
	.eabi_attribute	34, 1	@ Tag_CPU_unaligned_access
	.eabi_attribute	17, 1	@ Tag_ABI_PCS_GOT_use
	.eabi_attribute	20, 2	@ Tag_ABI_FP_denormal
	.eabi_attribute	21, 0	@ Tag_ABI_FP_exceptions
	.eabi_attribute	23, 1	@ Tag_ABI_FP_number_model
	.eabi_attribute	24, 1	@ Tag_ABI_align_needed
	.eabi_attribute	25, 1	@ Tag_ABI_align_preserved
	.eabi_attribute	28, 1	@ Tag_ABI_VFP_args
	.eabi_attribute	38, 1	@ Tag_ABI_FP_16bit_format
	.eabi_attribute	18, 2	@ Tag_ABI_PCS_wchar_t
	.eabi_attribute	26, 1	@ Tag_ABI_enum_size
	.eabi_attribute	14, 0	@ Tag_ABI_PCS_R9_use
	.file	"stm32h7xx_hal_msp.c"
	.file	1 "D:\\Keil_v5\\ARM\\ARMCLANG\\Bin\\..\\include" "stdint.h"
	.file	2 "E:\\Smart-access-control\\Hardware\\CODE" "board/CubeMX_Config/Core/Src/stm32h7xx_hal_msp.c"
	.file	3 "E:\\Smart-access-control\\Hardware\\CODE" "libraries/STM32H7xx_HAL/CMSIS/Device/ST/STM32H7xx/Include\\stm32h7xx.h"
	.file	4 "E:\\Smart-access-control\\Hardware\\CODE" "libraries/STM32H7xx_HAL/STM32H7xx_HAL_Driver/Inc/stm32h7xx_hal_def.h"
	.file	5 "E:\\Smart-access-control\\Hardware\\CODE" "libraries/STM32H7xx_HAL/STM32H7xx_HAL_Driver/Inc\\stm32h7xx_hal_dma.h"
	.file	6 "E:\\Smart-access-control\\Hardware\\CODE" "libraries/STM32H7xx_HAL/STM32H7xx_HAL_Driver/Inc\\stm32h7xx_hal_eth.h"
	.file	7 "E:\\Smart-access-control\\Hardware\\CODE" "libraries/STM32H7xx_HAL/CMSIS/Device/ST/STM32H7xx/Include/stm32h750xx.h"
	.file	8 "E:\\Smart-access-control\\Hardware\\CODE" "libraries/STM32H7xx_HAL/STM32H7xx_HAL_Driver/Inc\\stm32h7xx_hal_ltdc.h"
	.file	9 "E:\\Smart-access-control\\Hardware\\CODE" "libraries/STM32H7xx_HAL/STM32H7xx_HAL_Driver/Inc\\stm32h7xx_hal_sd.h"
	.file	10 "E:\\Smart-access-control\\Hardware\\CODE" "libraries/STM32H7xx_HAL/STM32H7xx_HAL_Driver/Inc\\stm32h7xx_hal_spi.h"
	.file	11 "E:\\Smart-access-control\\Hardware\\CODE" "libraries/STM32H7xx_HAL/STM32H7xx_HAL_Driver/Inc\\stm32h7xx_hal_tim.h"
	.file	12 "E:\\Smart-access-control\\Hardware\\CODE" "libraries/STM32H7xx_HAL/STM32H7xx_HAL_Driver/Inc\\stm32h7xx_hal_pcd.h"
	.file	13 "E:\\Smart-access-control\\Hardware\\CODE" "libraries/STM32H7xx_HAL/STM32H7xx_HAL_Driver/Inc\\stm32h7xx_hal_sdram.h"
	.file	14 "E:\\Smart-access-control\\Hardware\\CODE" "libraries/STM32H7xx_HAL/STM32H7xx_HAL_Driver/Inc\\stm32h7xx_hal_mdma.h"
	.section	.text.HAL_MspInit,"ax",%progbits
	.hidden	HAL_MspInit                     @ -- Begin function HAL_MspInit
	.globl	HAL_MspInit
	.p2align	3
	.type	HAL_MspInit,%function
	.code	16                              @ @HAL_MspInit
	.thumb_func
HAL_MspInit:
.Lfunc_begin0:
	.loc	2 67 0                          @ board/CubeMX_Config/Core/Src/stm32h7xx_hal_msp.c:67:0
	.fnstart
	.cfi_sections .debug_frame
	.cfi_startproc
@ %bb.0:
	.pad	#4
	sub	sp, #4
	.cfi_def_cfa_offset 4
.Ltmp0:
	.loc	2 72 3 prologue_end             @ board/CubeMX_Config/Core/Src/stm32h7xx_hal_msp.c:72:3
	b	.LBB0_1
.LBB0_1:
	.loc	2 0 3 is_stmt 0                 @ board/CubeMX_Config/Core/Src/stm32h7xx_hal_msp.c:0:3
	movw	r0, #17652
	movt	r0, #22530
.Ltmp1:
	.loc	2 72 3                          @ board/CubeMX_Config/Core/Src/stm32h7xx_hal_msp.c:72:3
	ldr	r1, [r0]
	orr	r1, r1, #2
	str	r1, [r0]
	ldr	r0, [r0]
	and	r0, r0, #2
	str	r0, [sp]
	ldr	r0, [sp]
	b	.LBB0_2
.Ltmp2:
.LBB0_2:
	.loc	2 79 1 is_stmt 1                @ board/CubeMX_Config/Core/Src/stm32h7xx_hal_msp.c:79:1
	add	sp, #4
	bx	lr
.Ltmp3:
.Lfunc_end0:
	.size	HAL_MspInit, .Lfunc_end0-HAL_MspInit
	.cfi_endproc
	.cantunwind
	.fnend
                                        @ -- End function
	.section	.text.HAL_ADC_MspInit,"ax",%progbits
	.hidden	HAL_ADC_MspInit                 @ -- Begin function HAL_ADC_MspInit
	.globl	HAL_ADC_MspInit
	.p2align	3
	.type	HAL_ADC_MspInit,%function
	.code	16                              @ @HAL_ADC_MspInit
	.thumb_func
HAL_ADC_MspInit:
.Lfunc_begin1:
	.loc	2 88 0                          @ board/CubeMX_Config/Core/Src/stm32h7xx_hal_msp.c:88:0
	.fnstart
	.cfi_startproc
@ %bb.0:
	.save	{r7, lr}
	push	{r7, lr}
	.cfi_def_cfa_offset 8
	.cfi_offset lr, -4
	.cfi_offset r7, -8
	.pad	#32
	sub	sp, #32
	.cfi_def_cfa_offset 40
	str	r0, [sp, #28]
	movs	r0, #0
.Ltmp4:
	.loc	2 89 20 prologue_end            @ board/CubeMX_Config/Core/Src/stm32h7xx_hal_msp.c:89:20
	str	r0, [sp, #24]
	str	r0, [sp, #20]
	str	r0, [sp, #16]
	str	r0, [sp, #12]
	str	r0, [sp, #8]
.Ltmp5:
	.loc	2 90 6                          @ board/CubeMX_Config/Core/Src/stm32h7xx_hal_msp.c:90:6
	ldr	r0, [sp, #28]
	.loc	2 90 12 is_stmt 0               @ board/CubeMX_Config/Core/Src/stm32h7xx_hal_msp.c:90:12
	ldr	r0, [r0]
	movw	r1, #8192
	movt	r1, #16386
.Ltmp6:
	.loc	2 90 6                          @ board/CubeMX_Config/Core/Src/stm32h7xx_hal_msp.c:90:6
	cmp	r0, r1
	bne	.LBB1_6
	b	.LBB1_1
.LBB1_1:
.Ltmp7:
	.loc	2 96 5 is_stmt 1                @ board/CubeMX_Config/Core/Src/stm32h7xx_hal_msp.c:96:5
	b	.LBB1_2
.LBB1_2:
	.loc	2 0 5 is_stmt 0                 @ board/CubeMX_Config/Core/Src/stm32h7xx_hal_msp.c:0:5
	movw	r0, #17624
	movt	r0, #22530
.Ltmp8:
	.loc	2 96 5                          @ board/CubeMX_Config/Core/Src/stm32h7xx_hal_msp.c:96:5
	ldr	r1, [r0]
	orr	r1, r1, #32
	str	r1, [r0]
	ldr	r0, [r0]
	and	r0, r0, #32
	str	r0, [sp, #4]
	ldr	r0, [sp, #4]
	b	.LBB1_3
.Ltmp9:
.LBB1_3:
	.loc	2 98 5 is_stmt 1                @ board/CubeMX_Config/Core/Src/stm32h7xx_hal_msp.c:98:5
	b	.LBB1_4
.LBB1_4:
	.loc	2 0 5 is_stmt 0                 @ board/CubeMX_Config/Core/Src/stm32h7xx_hal_msp.c:0:5
	movw	r0, #17632
	movt	r0, #22530
.Ltmp10:
	.loc	2 98 5                          @ board/CubeMX_Config/Core/Src/stm32h7xx_hal_msp.c:98:5
	ldr	r1, [r0]
	orr	r1, r1, #2
	str	r1, [r0]
	ldr	r0, [r0]
	and	r0, r0, #2
	str	r0, [sp]
	ldr	r0, [sp]
	b	.LBB1_5
.Ltmp11:
.LBB1_5:
	.loc	2 0 5                           @ board/CubeMX_Config/Core/Src/stm32h7xx_hal_msp.c:0:5
	movs	r0, #2
	.loc	2 102 25 is_stmt 1              @ board/CubeMX_Config/Core/Src/stm32h7xx_hal_msp.c:102:25
	str	r0, [sp, #8]
	movs	r0, #3
	.loc	2 103 26                        @ board/CubeMX_Config/Core/Src/stm32h7xx_hal_msp.c:103:26
	str	r0, [sp, #12]
	movs	r0, #0
	.loc	2 104 26                        @ board/CubeMX_Config/Core/Src/stm32h7xx_hal_msp.c:104:26
	str	r0, [sp, #16]
	movw	r0, #1024
	movt	r0, #22530
	add	r1, sp, #8
	.loc	2 105 5                         @ board/CubeMX_Config/Core/Src/stm32h7xx_hal_msp.c:105:5
	bl	HAL_GPIO_Init
	.loc	2 110 3                         @ board/CubeMX_Config/Core/Src/stm32h7xx_hal_msp.c:110:3
	b	.LBB1_6
.Ltmp12:
.LBB1_6:
	.loc	2 112 1                         @ board/CubeMX_Config/Core/Src/stm32h7xx_hal_msp.c:112:1
	add	sp, #32
	pop	{r7, pc}
.Ltmp13:
.Lfunc_end1:
	.size	HAL_ADC_MspInit, .Lfunc_end1-HAL_ADC_MspInit
	.cfi_endproc
	.cantunwind
	.fnend
                                        @ -- End function
	.section	.text.HAL_ADC_MspDeInit,"ax",%progbits
	.hidden	HAL_ADC_MspDeInit               @ -- Begin function HAL_ADC_MspDeInit
	.globl	HAL_ADC_MspDeInit
	.p2align	3
	.type	HAL_ADC_MspDeInit,%function
	.code	16                              @ @HAL_ADC_MspDeInit
	.thumb_func
HAL_ADC_MspDeInit:
.Lfunc_begin2:
	.loc	2 121 0                         @ board/CubeMX_Config/Core/Src/stm32h7xx_hal_msp.c:121:0
	.fnstart
	.cfi_startproc
@ %bb.0:
	.save	{r7, lr}
	push	{r7, lr}
	.cfi_def_cfa_offset 8
	.cfi_offset lr, -4
	.cfi_offset r7, -8
	.pad	#8
	sub	sp, #8
	.cfi_def_cfa_offset 16
	str	r0, [sp, #4]
.Ltmp14:
	.loc	2 122 6 prologue_end            @ board/CubeMX_Config/Core/Src/stm32h7xx_hal_msp.c:122:6
	ldr	r0, [sp, #4]
	.loc	2 122 12 is_stmt 0              @ board/CubeMX_Config/Core/Src/stm32h7xx_hal_msp.c:122:12
	ldr	r0, [r0]
	movw	r1, #8192
	movt	r1, #16386
.Ltmp15:
	.loc	2 122 6                         @ board/CubeMX_Config/Core/Src/stm32h7xx_hal_msp.c:122:6
	cmp	r0, r1
	bne	.LBB2_2
	b	.LBB2_1
.LBB2_1:
	.loc	2 0 6                           @ board/CubeMX_Config/Core/Src/stm32h7xx_hal_msp.c:0:6
	movw	r1, #17624
	movt	r1, #22530
.Ltmp16:
	.loc	2 128 5 is_stmt 1               @ board/CubeMX_Config/Core/Src/stm32h7xx_hal_msp.c:128:5
	ldr	r0, [r1]
	bic	r0, r0, #32
	str	r0, [r1]
	movw	r0, #1024
	movt	r0, #22530
	movs	r1, #2
	.loc	2 133 5                         @ board/CubeMX_Config/Core/Src/stm32h7xx_hal_msp.c:133:5
	bl	HAL_GPIO_DeInit
	.loc	2 138 3                         @ board/CubeMX_Config/Core/Src/stm32h7xx_hal_msp.c:138:3
	b	.LBB2_2
.Ltmp17:
.LBB2_2:
	.loc	2 140 1                         @ board/CubeMX_Config/Core/Src/stm32h7xx_hal_msp.c:140:1
	add	sp, #8
	pop	{r7, pc}
.Ltmp18:
.Lfunc_end2:
	.size	HAL_ADC_MspDeInit, .Lfunc_end2-HAL_ADC_MspDeInit
	.cfi_endproc
	.cantunwind
	.fnend
                                        @ -- End function
	.section	.text.HAL_ETH_MspInit,"ax",%progbits
	.hidden	HAL_ETH_MspInit                 @ -- Begin function HAL_ETH_MspInit
	.globl	HAL_ETH_MspInit
	.p2align	3
	.type	HAL_ETH_MspInit,%function
	.code	16                              @ @HAL_ETH_MspInit
	.thumb_func
HAL_ETH_MspInit:
.Lfunc_begin3:
	.loc	2 149 0                         @ board/CubeMX_Config/Core/Src/stm32h7xx_hal_msp.c:149:0
	.fnstart
	.cfi_startproc
@ %bb.0:
	.save	{r7, lr}
	push	{r7, lr}
	.cfi_def_cfa_offset 8
	.cfi_offset lr, -4
	.cfi_offset r7, -8
	.pad	#72
	sub	sp, #72
	.cfi_def_cfa_offset 80
	str	r0, [sp, #68]
	movs	r0, #0
.Ltmp19:
	.loc	2 150 20 prologue_end           @ board/CubeMX_Config/Core/Src/stm32h7xx_hal_msp.c:150:20
	str	r0, [sp, #64]
	str	r0, [sp, #60]
	str	r0, [sp, #56]
	str	r0, [sp, #52]
	str	r0, [sp, #48]
.Ltmp20:
	.loc	2 151 6                         @ board/CubeMX_Config/Core/Src/stm32h7xx_hal_msp.c:151:6
	ldr	r0, [sp, #68]
	.loc	2 151 12 is_stmt 0              @ board/CubeMX_Config/Core/Src/stm32h7xx_hal_msp.c:151:12
	ldr	r0, [r0]
	movw	r1, #32768
	movt	r1, #16386
.Ltmp21:
	.loc	2 151 6                         @ board/CubeMX_Config/Core/Src/stm32h7xx_hal_msp.c:151:6
	cmp	r0, r1
	bne.w	.LBB3_14
	b	.LBB3_1
.LBB3_1:
.Ltmp22:
	.loc	2 157 5 is_stmt 1               @ board/CubeMX_Config/Core/Src/stm32h7xx_hal_msp.c:157:5
	b	.LBB3_2
.LBB3_2:
	.loc	2 0 5 is_stmt 0                 @ board/CubeMX_Config/Core/Src/stm32h7xx_hal_msp.c:0:5
	movw	r0, #17624
	movt	r0, #22530
.Ltmp23:
	.loc	2 157 5                         @ board/CubeMX_Config/Core/Src/stm32h7xx_hal_msp.c:157:5
	ldr	r1, [r0]
	orr	r1, r1, #32768
	str	r1, [r0]
	ldr	r0, [r0]
	and	r0, r0, #32768
	str	r0, [sp, #44]
	ldr	r0, [sp, #44]
	b	.LBB3_3
.Ltmp24:
.LBB3_3:
	.loc	2 158 5 is_stmt 1               @ board/CubeMX_Config/Core/Src/stm32h7xx_hal_msp.c:158:5
	b	.LBB3_4
.LBB3_4:
	.loc	2 0 5 is_stmt 0                 @ board/CubeMX_Config/Core/Src/stm32h7xx_hal_msp.c:0:5
	movw	r0, #17624
	movt	r0, #22530
.Ltmp25:
	.loc	2 158 5                         @ board/CubeMX_Config/Core/Src/stm32h7xx_hal_msp.c:158:5
	ldr	r1, [r0]
	orr	r1, r1, #65536
	str	r1, [r0]
	ldr	r0, [r0]
	and	r0, r0, #65536
	str	r0, [sp, #40]
	ldr	r0, [sp, #40]
	b	.LBB3_5
.Ltmp26:
.LBB3_5:
	.loc	2 159 5 is_stmt 1               @ board/CubeMX_Config/Core/Src/stm32h7xx_hal_msp.c:159:5
	b	.LBB3_6
.LBB3_6:
	.loc	2 0 5 is_stmt 0                 @ board/CubeMX_Config/Core/Src/stm32h7xx_hal_msp.c:0:5
	movw	r0, #17624
	movt	r0, #22530
.Ltmp27:
	.loc	2 159 5                         @ board/CubeMX_Config/Core/Src/stm32h7xx_hal_msp.c:159:5
	ldr	r1, [r0]
	orr	r1, r1, #131072
	str	r1, [r0]
	ldr	r0, [r0]
	and	r0, r0, #131072
	str	r0, [sp, #36]
	ldr	r0, [sp, #36]
	b	.LBB3_7
.Ltmp28:
.LBB3_7:
	.loc	2 161 5 is_stmt 1               @ board/CubeMX_Config/Core/Src/stm32h7xx_hal_msp.c:161:5
	b	.LBB3_8
.LBB3_8:
	.loc	2 0 5 is_stmt 0                 @ board/CubeMX_Config/Core/Src/stm32h7xx_hal_msp.c:0:5
	movw	r0, #17632
	movt	r0, #22530
.Ltmp29:
	.loc	2 161 5                         @ board/CubeMX_Config/Core/Src/stm32h7xx_hal_msp.c:161:5
	ldr	r1, [r0]
	orr	r1, r1, #64
	str	r1, [r0]
	ldr	r0, [r0]
	and	r0, r0, #64
	str	r0, [sp, #32]
	ldr	r0, [sp, #32]
	b	.LBB3_9
.Ltmp30:
.LBB3_9:
	.loc	2 162 5 is_stmt 1               @ board/CubeMX_Config/Core/Src/stm32h7xx_hal_msp.c:162:5
	b	.LBB3_10
.LBB3_10:
	.loc	2 0 5 is_stmt 0                 @ board/CubeMX_Config/Core/Src/stm32h7xx_hal_msp.c:0:5
	movw	r0, #17632
	movt	r0, #22530
.Ltmp31:
	.loc	2 162 5                         @ board/CubeMX_Config/Core/Src/stm32h7xx_hal_msp.c:162:5
	ldr	r1, [r0]
	orr	r1, r1, #4
	str	r1, [r0]
	ldr	r0, [r0]
	and	r0, r0, #4
	str	r0, [sp, #28]
	ldr	r0, [sp, #28]
	b	.LBB3_11
.Ltmp32:
.LBB3_11:
	.loc	2 163 5 is_stmt 1               @ board/CubeMX_Config/Core/Src/stm32h7xx_hal_msp.c:163:5
	b	.LBB3_12
.LBB3_12:
	.loc	2 0 5 is_stmt 0                 @ board/CubeMX_Config/Core/Src/stm32h7xx_hal_msp.c:0:5
	movw	r0, #17632
	movt	r0, #22530
.Ltmp33:
	.loc	2 163 5                         @ board/CubeMX_Config/Core/Src/stm32h7xx_hal_msp.c:163:5
	ldr	r1, [r0]
	orr	r1, r1, #1
	str	r1, [r0]
	ldr	r0, [r0]
	and	r0, r0, #1
	str	r0, [sp, #24]
	ldr	r0, [sp, #24]
	b	.LBB3_13
.Ltmp34:
.LBB3_13:
	.loc	2 0 5                           @ board/CubeMX_Config/Core/Src/stm32h7xx_hal_msp.c:0:5
	mov.w	r0, #26624
	.loc	2 175 25 is_stmt 1              @ board/CubeMX_Config/Core/Src/stm32h7xx_hal_msp.c:175:25
	str	r0, [sp, #48]
	movs	r0, #2
	.loc	2 176 26                        @ board/CubeMX_Config/Core/Src/stm32h7xx_hal_msp.c:176:26
	str	r0, [sp]                        @ 4-byte Spill
	str	r0, [sp, #52]
	movs	r0, #0
	.loc	2 177 26                        @ board/CubeMX_Config/Core/Src/stm32h7xx_hal_msp.c:177:26
	str	r0, [sp, #16]                   @ 4-byte Spill
	str	r0, [sp, #56]
	movs	r0, #3
	.loc	2 178 27                        @ board/CubeMX_Config/Core/Src/stm32h7xx_hal_msp.c:178:27
	str	r0, [sp, #4]                    @ 4-byte Spill
	str	r0, [sp, #60]
	movs	r0, #11
	.loc	2 179 31                        @ board/CubeMX_Config/Core/Src/stm32h7xx_hal_msp.c:179:31
	str	r0, [sp, #8]                    @ 4-byte Spill
	str	r0, [sp, #64]
	movw	r0, #6144
	movt	r0, #22530
	add	r1, sp, #48
	.loc	2 180 5                         @ board/CubeMX_Config/Core/Src/stm32h7xx_hal_msp.c:180:5
	str	r1, [sp, #12]                   @ 4-byte Spill
	bl	HAL_GPIO_Init
	ldr.w	r12, [sp]                       @ 4-byte Reload
	ldr	r2, [sp, #4]                    @ 4-byte Reload
	ldr	r0, [sp, #8]                    @ 4-byte Reload
	ldr	r1, [sp, #12]                   @ 4-byte Reload
	ldr	r3, [sp, #16]                   @ 4-byte Reload
	mov.w	lr, #50
	.loc	2 182 25                        @ board/CubeMX_Config/Core/Src/stm32h7xx_hal_msp.c:182:25
	str.w	lr, [sp, #48]
	.loc	2 183 26                        @ board/CubeMX_Config/Core/Src/stm32h7xx_hal_msp.c:183:26
	str.w	r12, [sp, #52]
	.loc	2 184 26                        @ board/CubeMX_Config/Core/Src/stm32h7xx_hal_msp.c:184:26
	str	r3, [sp, #56]
	.loc	2 185 27                        @ board/CubeMX_Config/Core/Src/stm32h7xx_hal_msp.c:185:27
	str	r2, [sp, #60]
	.loc	2 186 31                        @ board/CubeMX_Config/Core/Src/stm32h7xx_hal_msp.c:186:31
	str	r0, [sp, #64]
	movw	r0, #2048
	movt	r0, #22530
	.loc	2 187 5                         @ board/CubeMX_Config/Core/Src/stm32h7xx_hal_msp.c:187:5
	bl	HAL_GPIO_Init
	ldr.w	r12, [sp]                       @ 4-byte Reload
	ldr	r2, [sp, #4]                    @ 4-byte Reload
	ldr	r0, [sp, #8]                    @ 4-byte Reload
	ldr	r1, [sp, #12]                   @ 4-byte Reload
	ldr	r3, [sp, #16]                   @ 4-byte Reload
	mov.w	lr, #134
	.loc	2 189 25                        @ board/CubeMX_Config/Core/Src/stm32h7xx_hal_msp.c:189:25
	str.w	lr, [sp, #48]
	.loc	2 190 26                        @ board/CubeMX_Config/Core/Src/stm32h7xx_hal_msp.c:190:26
	str.w	r12, [sp, #52]
	.loc	2 191 26                        @ board/CubeMX_Config/Core/Src/stm32h7xx_hal_msp.c:191:26
	str	r3, [sp, #56]
	.loc	2 192 27                        @ board/CubeMX_Config/Core/Src/stm32h7xx_hal_msp.c:192:27
	str	r2, [sp, #60]
	.loc	2 193 31                        @ board/CubeMX_Config/Core/Src/stm32h7xx_hal_msp.c:193:31
	str	r0, [sp, #64]
	movs	r0, #0
	movt	r0, #22530
	.loc	2 194 5                         @ board/CubeMX_Config/Core/Src/stm32h7xx_hal_msp.c:194:5
	bl	HAL_GPIO_Init
	ldr	r2, [sp, #16]                   @ 4-byte Reload
	movs	r0, #61
	.loc	2 197 5                         @ board/CubeMX_Config/Core/Src/stm32h7xx_hal_msp.c:197:5
	str	r0, [sp, #20]                   @ 4-byte Spill
	mov	r1, r2
	bl	HAL_NVIC_SetPriority
	ldr	r0, [sp, #20]                   @ 4-byte Reload
	.loc	2 198 5                         @ board/CubeMX_Config/Core/Src/stm32h7xx_hal_msp.c:198:5
	bl	HAL_NVIC_EnableIRQ
	.loc	2 202 3                         @ board/CubeMX_Config/Core/Src/stm32h7xx_hal_msp.c:202:3
	b	.LBB3_14
.Ltmp35:
.LBB3_14:
	.loc	2 204 1                         @ board/CubeMX_Config/Core/Src/stm32h7xx_hal_msp.c:204:1
	add	sp, #72
	pop	{r7, pc}
.Ltmp36:
.Lfunc_end3:
	.size	HAL_ETH_MspInit, .Lfunc_end3-HAL_ETH_MspInit
	.cfi_endproc
	.cantunwind
	.fnend
                                        @ -- End function
	.section	.text.HAL_ETH_MspDeInit,"ax",%progbits
	.hidden	HAL_ETH_MspDeInit               @ -- Begin function HAL_ETH_MspDeInit
	.globl	HAL_ETH_MspDeInit
	.p2align	3
	.type	HAL_ETH_MspDeInit,%function
	.code	16                              @ @HAL_ETH_MspDeInit
	.thumb_func
HAL_ETH_MspDeInit:
.Lfunc_begin4:
	.loc	2 213 0                         @ board/CubeMX_Config/Core/Src/stm32h7xx_hal_msp.c:213:0
	.fnstart
	.cfi_startproc
@ %bb.0:
	.save	{r7, lr}
	push	{r7, lr}
	.cfi_def_cfa_offset 8
	.cfi_offset lr, -4
	.cfi_offset r7, -8
	.pad	#8
	sub	sp, #8
	.cfi_def_cfa_offset 16
	str	r0, [sp, #4]
.Ltmp37:
	.loc	2 214 6 prologue_end            @ board/CubeMX_Config/Core/Src/stm32h7xx_hal_msp.c:214:6
	ldr	r0, [sp, #4]
	.loc	2 214 12 is_stmt 0              @ board/CubeMX_Config/Core/Src/stm32h7xx_hal_msp.c:214:12
	ldr	r0, [r0]
	movw	r1, #32768
	movt	r1, #16386
.Ltmp38:
	.loc	2 214 6                         @ board/CubeMX_Config/Core/Src/stm32h7xx_hal_msp.c:214:6
	cmp	r0, r1
	bne	.LBB4_2
	b	.LBB4_1
.LBB4_1:
	.loc	2 0 6                           @ board/CubeMX_Config/Core/Src/stm32h7xx_hal_msp.c:0:6
	movw	r1, #17624
	movt	r1, #22530
.Ltmp39:
	.loc	2 220 5 is_stmt 1               @ board/CubeMX_Config/Core/Src/stm32h7xx_hal_msp.c:220:5
	ldr	r0, [r1]
	bic	r0, r0, #32768
	str	r0, [r1]
	.loc	2 221 5                         @ board/CubeMX_Config/Core/Src/stm32h7xx_hal_msp.c:221:5
	ldr	r0, [r1]
	bic	r0, r0, #65536
	str	r0, [r1]
	.loc	2 222 5                         @ board/CubeMX_Config/Core/Src/stm32h7xx_hal_msp.c:222:5
	ldr	r0, [r1]
	bic	r0, r0, #131072
	str	r0, [r1]
	movw	r0, #6144
	movt	r0, #22530
	mov.w	r1, #26624
	.loc	2 235 5                         @ board/CubeMX_Config/Core/Src/stm32h7xx_hal_msp.c:235:5
	bl	HAL_GPIO_DeInit
	movw	r0, #2048
	movt	r0, #22530
	movs	r1, #50
	.loc	2 237 5                         @ board/CubeMX_Config/Core/Src/stm32h7xx_hal_msp.c:237:5
	bl	HAL_GPIO_DeInit
	movs	r0, #0
	movt	r0, #22530
	movs	r1, #134
	.loc	2 239 5                         @ board/CubeMX_Config/Core/Src/stm32h7xx_hal_msp.c:239:5
	bl	HAL_GPIO_DeInit
	movs	r0, #61
	.loc	2 242 5                         @ board/CubeMX_Config/Core/Src/stm32h7xx_hal_msp.c:242:5
	bl	HAL_NVIC_DisableIRQ
	.loc	2 246 3                         @ board/CubeMX_Config/Core/Src/stm32h7xx_hal_msp.c:246:3
	b	.LBB4_2
.Ltmp40:
.LBB4_2:
	.loc	2 248 1                         @ board/CubeMX_Config/Core/Src/stm32h7xx_hal_msp.c:248:1
	add	sp, #8
	pop	{r7, pc}
.Ltmp41:
.Lfunc_end4:
	.size	HAL_ETH_MspDeInit, .Lfunc_end4-HAL_ETH_MspDeInit
	.cfi_endproc
	.cantunwind
	.fnend
                                        @ -- End function
	.section	.text.HAL_LTDC_MspInit,"ax",%progbits
	.hidden	HAL_LTDC_MspInit                @ -- Begin function HAL_LTDC_MspInit
	.globl	HAL_LTDC_MspInit
	.p2align	3
	.type	HAL_LTDC_MspInit,%function
	.code	16                              @ @HAL_LTDC_MspInit
	.thumb_func
HAL_LTDC_MspInit:
.Lfunc_begin5:
	.loc	2 257 0                         @ board/CubeMX_Config/Core/Src/stm32h7xx_hal_msp.c:257:0
	.fnstart
	.cfi_startproc
@ %bb.0:
	.save	{r7, lr}
	push	{r7, lr}
	.cfi_def_cfa_offset 8
	.cfi_offset lr, -4
	.cfi_offset r7, -8
	.pad	#64
	sub	sp, #64
	.cfi_def_cfa_offset 72
	str	r0, [sp, #60]
	movs	r0, #0
.Ltmp42:
	.loc	2 258 20 prologue_end           @ board/CubeMX_Config/Core/Src/stm32h7xx_hal_msp.c:258:20
	str	r0, [sp, #56]
	str	r0, [sp, #52]
	str	r0, [sp, #48]
	str	r0, [sp, #44]
	str	r0, [sp, #40]
.Ltmp43:
	.loc	2 259 6                         @ board/CubeMX_Config/Core/Src/stm32h7xx_hal_msp.c:259:6
	ldr	r0, [sp, #60]
	.loc	2 259 13 is_stmt 0              @ board/CubeMX_Config/Core/Src/stm32h7xx_hal_msp.c:259:13
	ldr	r0, [r0]
	movw	r1, #4096
	movt	r1, #20480
.Ltmp44:
	.loc	2 259 6                         @ board/CubeMX_Config/Core/Src/stm32h7xx_hal_msp.c:259:6
	cmp	r0, r1
	bne	.LBB5_10
	b	.LBB5_1
.LBB5_1:
.Ltmp45:
	.loc	2 265 5 is_stmt 1               @ board/CubeMX_Config/Core/Src/stm32h7xx_hal_msp.c:265:5
	b	.LBB5_2
.LBB5_2:
	.loc	2 0 5 is_stmt 0                 @ board/CubeMX_Config/Core/Src/stm32h7xx_hal_msp.c:0:5
	movw	r0, #17636
	movt	r0, #22530
.Ltmp46:
	.loc	2 265 5                         @ board/CubeMX_Config/Core/Src/stm32h7xx_hal_msp.c:265:5
	ldr	r1, [r0]
	orr	r1, r1, #8
	str	r1, [r0]
	ldr	r0, [r0]
	and	r0, r0, #8
	str	r0, [sp, #36]
	ldr	r0, [sp, #36]
	b	.LBB5_3
.Ltmp47:
.LBB5_3:
	.loc	2 267 5 is_stmt 1               @ board/CubeMX_Config/Core/Src/stm32h7xx_hal_msp.c:267:5
	b	.LBB5_4
.LBB5_4:
	.loc	2 0 5 is_stmt 0                 @ board/CubeMX_Config/Core/Src/stm32h7xx_hal_msp.c:0:5
	movw	r0, #17632
	movt	r0, #22530
.Ltmp48:
	.loc	2 267 5                         @ board/CubeMX_Config/Core/Src/stm32h7xx_hal_msp.c:267:5
	ldr	r1, [r0]
	orr	r1, r1, #1024
	str	r1, [r0]
	ldr	r0, [r0]
	and	r0, r0, #1024
	str	r0, [sp, #32]
	ldr	r0, [sp, #32]
	b	.LBB5_5
.Ltmp49:
.LBB5_5:
	.loc	2 268 5 is_stmt 1               @ board/CubeMX_Config/Core/Src/stm32h7xx_hal_msp.c:268:5
	b	.LBB5_6
.LBB5_6:
	.loc	2 0 5 is_stmt 0                 @ board/CubeMX_Config/Core/Src/stm32h7xx_hal_msp.c:0:5
	movw	r0, #17632
	movt	r0, #22530
.Ltmp50:
	.loc	2 268 5                         @ board/CubeMX_Config/Core/Src/stm32h7xx_hal_msp.c:268:5
	ldr	r1, [r0]
	orr	r1, r1, #512
	str	r1, [r0]
	ldr	r0, [r0]
	and	r0, r0, #512
	str	r0, [sp, #28]
	ldr	r0, [sp, #28]
	b	.LBB5_7
.Ltmp51:
.LBB5_7:
	.loc	2 269 5 is_stmt 1               @ board/CubeMX_Config/Core/Src/stm32h7xx_hal_msp.c:269:5
	b	.LBB5_8
.LBB5_8:
	.loc	2 0 5 is_stmt 0                 @ board/CubeMX_Config/Core/Src/stm32h7xx_hal_msp.c:0:5
	movw	r0, #17632
	movt	r0, #22530
.Ltmp52:
	.loc	2 269 5                         @ board/CubeMX_Config/Core/Src/stm32h7xx_hal_msp.c:269:5
	ldr	r1, [r0]
	orr	r1, r1, #256
	str	r1, [r0]
	ldr	r0, [r0]
	and	r0, r0, #256
	str	r0, [sp, #24]
	ldr	r0, [sp, #24]
	b	.LBB5_9
.Ltmp53:
.LBB5_9:
	.loc	2 0 5                           @ board/CubeMX_Config/Core/Src/stm32h7xx_hal_msp.c:0:5
	movs	r0, #255
	.loc	2 300 25 is_stmt 1              @ board/CubeMX_Config/Core/Src/stm32h7xx_hal_msp.c:300:25
	str	r0, [sp, #40]
	movs	r0, #2
	.loc	2 302 26                        @ board/CubeMX_Config/Core/Src/stm32h7xx_hal_msp.c:302:26
	str	r0, [sp, #4]                    @ 4-byte Spill
	str	r0, [sp, #44]
	movs	r0, #0
	.loc	2 303 26                        @ board/CubeMX_Config/Core/Src/stm32h7xx_hal_msp.c:303:26
	str	r0, [sp, #8]                    @ 4-byte Spill
	str	r0, [sp, #48]
	movs	r0, #3
	.loc	2 304 27                        @ board/CubeMX_Config/Core/Src/stm32h7xx_hal_msp.c:304:27
	str	r0, [sp, #12]                   @ 4-byte Spill
	str	r0, [sp, #52]
	movs	r0, #14
	.loc	2 305 31                        @ board/CubeMX_Config/Core/Src/stm32h7xx_hal_msp.c:305:31
	str	r0, [sp, #16]                   @ 4-byte Spill
	str	r0, [sp, #56]
	movw	r0, #10240
	movt	r0, #22530
	add	r1, sp, #40
	.loc	2 306 5                         @ board/CubeMX_Config/Core/Src/stm32h7xx_hal_msp.c:306:5
	str	r1, [sp, #20]                   @ 4-byte Spill
	bl	HAL_GPIO_Init
	ldr.w	r12, [sp, #4]                   @ 4-byte Reload
	ldr	r3, [sp, #8]                    @ 4-byte Reload
	ldr	r2, [sp, #12]                   @ 4-byte Reload
	ldr	r0, [sp, #16]                   @ 4-byte Reload
	ldr	r1, [sp, #20]                   @ 4-byte Reload
	movw	lr, #65535
	.loc	2 308 25                        @ board/CubeMX_Config/Core/Src/stm32h7xx_hal_msp.c:308:25
	str.w	lr, [sp, #40]
	.loc	2 312 26                        @ board/CubeMX_Config/Core/Src/stm32h7xx_hal_msp.c:312:26
	str.w	r12, [sp, #44]
	.loc	2 313 26                        @ board/CubeMX_Config/Core/Src/stm32h7xx_hal_msp.c:313:26
	str	r3, [sp, #48]
	.loc	2 314 27                        @ board/CubeMX_Config/Core/Src/stm32h7xx_hal_msp.c:314:27
	str	r2, [sp, #52]
	.loc	2 315 31                        @ board/CubeMX_Config/Core/Src/stm32h7xx_hal_msp.c:315:31
	str	r0, [sp, #56]
	movw	r0, #9216
	movt	r0, #22530
	.loc	2 316 5                         @ board/CubeMX_Config/Core/Src/stm32h7xx_hal_msp.c:316:5
	bl	HAL_GPIO_Init
	ldr.w	r12, [sp, #4]                   @ 4-byte Reload
	ldr	r3, [sp, #8]                    @ 4-byte Reload
	ldr	r2, [sp, #12]                   @ 4-byte Reload
	ldr	r0, [sp, #16]                   @ 4-byte Reload
	ldr	r1, [sp, #20]                   @ 4-byte Reload
	mov.w	lr, #61440
	.loc	2 318 25                        @ board/CubeMX_Config/Core/Src/stm32h7xx_hal_msp.c:318:25
	str.w	lr, [sp, #40]
	.loc	2 319 26                        @ board/CubeMX_Config/Core/Src/stm32h7xx_hal_msp.c:319:26
	str.w	r12, [sp, #44]
	.loc	2 320 26                        @ board/CubeMX_Config/Core/Src/stm32h7xx_hal_msp.c:320:26
	str	r3, [sp, #48]
	.loc	2 321 27                        @ board/CubeMX_Config/Core/Src/stm32h7xx_hal_msp.c:321:27
	str	r2, [sp, #52]
	.loc	2 322 31                        @ board/CubeMX_Config/Core/Src/stm32h7xx_hal_msp.c:322:31
	str	r0, [sp, #56]
	movw	r0, #8192
	movt	r0, #22530
	.loc	2 323 5                         @ board/CubeMX_Config/Core/Src/stm32h7xx_hal_msp.c:323:5
	bl	HAL_GPIO_Init
	.loc	2 328 3                         @ board/CubeMX_Config/Core/Src/stm32h7xx_hal_msp.c:328:3
	b	.LBB5_10
.Ltmp54:
.LBB5_10:
	.loc	2 330 1                         @ board/CubeMX_Config/Core/Src/stm32h7xx_hal_msp.c:330:1
	add	sp, #64
	pop	{r7, pc}
.Ltmp55:
.Lfunc_end5:
	.size	HAL_LTDC_MspInit, .Lfunc_end5-HAL_LTDC_MspInit
	.cfi_endproc
	.cantunwind
	.fnend
                                        @ -- End function
	.section	.text.HAL_LTDC_MspDeInit,"ax",%progbits
	.hidden	HAL_LTDC_MspDeInit              @ -- Begin function HAL_LTDC_MspDeInit
	.globl	HAL_LTDC_MspDeInit
	.p2align	3
	.type	HAL_LTDC_MspDeInit,%function
	.code	16                              @ @HAL_LTDC_MspDeInit
	.thumb_func
HAL_LTDC_MspDeInit:
.Lfunc_begin6:
	.loc	2 339 0                         @ board/CubeMX_Config/Core/Src/stm32h7xx_hal_msp.c:339:0
	.fnstart
	.cfi_startproc
@ %bb.0:
	.save	{r7, lr}
	push	{r7, lr}
	.cfi_def_cfa_offset 8
	.cfi_offset lr, -4
	.cfi_offset r7, -8
	.pad	#8
	sub	sp, #8
	.cfi_def_cfa_offset 16
	str	r0, [sp, #4]
.Ltmp56:
	.loc	2 340 6 prologue_end            @ board/CubeMX_Config/Core/Src/stm32h7xx_hal_msp.c:340:6
	ldr	r0, [sp, #4]
	.loc	2 340 13 is_stmt 0              @ board/CubeMX_Config/Core/Src/stm32h7xx_hal_msp.c:340:13
	ldr	r0, [r0]
	movw	r1, #4096
	movt	r1, #20480
.Ltmp57:
	.loc	2 340 6                         @ board/CubeMX_Config/Core/Src/stm32h7xx_hal_msp.c:340:6
	cmp	r0, r1
	bne	.LBB6_2
	b	.LBB6_1
.LBB6_1:
	.loc	2 0 6                           @ board/CubeMX_Config/Core/Src/stm32h7xx_hal_msp.c:0:6
	movw	r1, #17636
	movt	r1, #22530
.Ltmp58:
	.loc	2 346 5 is_stmt 1               @ board/CubeMX_Config/Core/Src/stm32h7xx_hal_msp.c:346:5
	ldr	r0, [r1]
	bic	r0, r0, #8
	str	r0, [r1]
	movw	r0, #10240
	movt	r0, #22530
	movs	r1, #255
	.loc	2 378 5                         @ board/CubeMX_Config/Core/Src/stm32h7xx_hal_msp.c:378:5
	bl	HAL_GPIO_DeInit
	movw	r0, #9216
	movt	r0, #22530
	movw	r1, #65535
	.loc	2 381 5                         @ board/CubeMX_Config/Core/Src/stm32h7xx_hal_msp.c:381:5
	bl	HAL_GPIO_DeInit
	movw	r0, #8192
	movt	r0, #22530
	mov.w	r1, #61440
	.loc	2 386 5                         @ board/CubeMX_Config/Core/Src/stm32h7xx_hal_msp.c:386:5
	bl	HAL_GPIO_DeInit
	.loc	2 391 3                         @ board/CubeMX_Config/Core/Src/stm32h7xx_hal_msp.c:391:3
	b	.LBB6_2
.Ltmp59:
.LBB6_2:
	.loc	2 393 1                         @ board/CubeMX_Config/Core/Src/stm32h7xx_hal_msp.c:393:1
	add	sp, #8
	pop	{r7, pc}
.Ltmp60:
.Lfunc_end6:
	.size	HAL_LTDC_MspDeInit, .Lfunc_end6-HAL_LTDC_MspDeInit
	.cfi_endproc
	.cantunwind
	.fnend
                                        @ -- End function
	.section	.text.HAL_SD_MspInit,"ax",%progbits
	.hidden	HAL_SD_MspInit                  @ -- Begin function HAL_SD_MspInit
	.globl	HAL_SD_MspInit
	.p2align	3
	.type	HAL_SD_MspInit,%function
	.code	16                              @ @HAL_SD_MspInit
	.thumb_func
HAL_SD_MspInit:
.Lfunc_begin7:
	.loc	2 402 0                         @ board/CubeMX_Config/Core/Src/stm32h7xx_hal_msp.c:402:0
	.fnstart
	.cfi_startproc
@ %bb.0:
	.save	{r7, lr}
	push	{r7, lr}
	.cfi_def_cfa_offset 8
	.cfi_offset lr, -4
	.cfi_offset r7, -8
	.pad	#96
	sub	sp, #96
	.cfi_def_cfa_offset 104
	str	r0, [sp, #92]
	movs	r0, #0
.Ltmp61:
	.loc	2 403 20 prologue_end           @ board/CubeMX_Config/Core/Src/stm32h7xx_hal_msp.c:403:20
	str	r0, [sp, #88]
	str	r0, [sp, #84]
	str	r0, [sp, #80]
	str	r0, [sp, #76]
	str	r0, [sp, #72]
.Ltmp62:
	.loc	2 404 6                         @ board/CubeMX_Config/Core/Src/stm32h7xx_hal_msp.c:404:6
	ldr	r0, [sp, #92]
	.loc	2 404 11 is_stmt 0              @ board/CubeMX_Config/Core/Src/stm32h7xx_hal_msp.c:404:11
	ldr	r0, [r0]
	movw	r1, #28672
	movt	r1, #20992
.Ltmp63:
	.loc	2 404 6                         @ board/CubeMX_Config/Core/Src/stm32h7xx_hal_msp.c:404:6
	cmp	r0, r1
	bne	.LBB7_8
	b	.LBB7_1
.LBB7_1:
.Ltmp64:
	.loc	2 410 5 is_stmt 1               @ board/CubeMX_Config/Core/Src/stm32h7xx_hal_msp.c:410:5
	b	.LBB7_2
.LBB7_2:
	.loc	2 0 5 is_stmt 0                 @ board/CubeMX_Config/Core/Src/stm32h7xx_hal_msp.c:0:5
	movw	r0, #17620
	movt	r0, #22530
.Ltmp65:
	.loc	2 410 5                         @ board/CubeMX_Config/Core/Src/stm32h7xx_hal_msp.c:410:5
	ldr	r1, [r0]
	orr	r1, r1, #65536
	str	r1, [r0]
	ldr	r0, [r0]
	and	r0, r0, #65536
	str	r0, [sp, #68]
	ldr	r0, [sp, #68]
	b	.LBB7_3
.Ltmp66:
.LBB7_3:
	.loc	2 412 5 is_stmt 1               @ board/CubeMX_Config/Core/Src/stm32h7xx_hal_msp.c:412:5
	b	.LBB7_4
.LBB7_4:
	.loc	2 0 5 is_stmt 0                 @ board/CubeMX_Config/Core/Src/stm32h7xx_hal_msp.c:0:5
	movw	r0, #17632
	movt	r0, #22530
.Ltmp67:
	.loc	2 412 5                         @ board/CubeMX_Config/Core/Src/stm32h7xx_hal_msp.c:412:5
	ldr	r1, [r0]
	orr	r1, r1, #4
	str	r1, [r0]
	ldr	r0, [r0]
	and	r0, r0, #4
	str	r0, [sp, #64]
	ldr	r0, [sp, #64]
	b	.LBB7_5
.Ltmp68:
.LBB7_5:
	.loc	2 413 5 is_stmt 1               @ board/CubeMX_Config/Core/Src/stm32h7xx_hal_msp.c:413:5
	b	.LBB7_6
.LBB7_6:
	.loc	2 0 5 is_stmt 0                 @ board/CubeMX_Config/Core/Src/stm32h7xx_hal_msp.c:0:5
	movw	r0, #17632
	movt	r0, #22530
.Ltmp69:
	.loc	2 413 5                         @ board/CubeMX_Config/Core/Src/stm32h7xx_hal_msp.c:413:5
	ldr	r1, [r0]
	orr	r1, r1, #8
	str	r1, [r0]
	ldr	r0, [r0]
	and	r0, r0, #8
	str	r0, [sp, #60]
	ldr	r0, [sp, #60]
	b	.LBB7_7
.Ltmp70:
.LBB7_7:
	.loc	2 0 5                           @ board/CubeMX_Config/Core/Src/stm32h7xx_hal_msp.c:0:5
	mov.w	r0, #7936
	.loc	2 422 25 is_stmt 1              @ board/CubeMX_Config/Core/Src/stm32h7xx_hal_msp.c:422:25
	str	r0, [sp, #72]
	movs	r0, #2
	.loc	2 424 26                        @ board/CubeMX_Config/Core/Src/stm32h7xx_hal_msp.c:424:26
	str	r0, [sp, #24]                   @ 4-byte Spill
	str	r0, [sp, #76]
	movs	r0, #0
	.loc	2 425 26                        @ board/CubeMX_Config/Core/Src/stm32h7xx_hal_msp.c:425:26
	str	r0, [sp, #40]                   @ 4-byte Spill
	str	r0, [sp, #80]
	movs	r0, #3
	.loc	2 426 27                        @ board/CubeMX_Config/Core/Src/stm32h7xx_hal_msp.c:426:27
	str	r0, [sp, #28]                   @ 4-byte Spill
	str	r0, [sp, #84]
	movs	r0, #12
	.loc	2 427 31                        @ board/CubeMX_Config/Core/Src/stm32h7xx_hal_msp.c:427:31
	str	r0, [sp, #32]                   @ 4-byte Spill
	str	r0, [sp, #88]
	movw	r0, #2048
	movt	r0, #22530
	add	r1, sp, #72
	.loc	2 428 5                         @ board/CubeMX_Config/Core/Src/stm32h7xx_hal_msp.c:428:5
	str	r1, [sp, #36]                   @ 4-byte Spill
	bl	HAL_GPIO_Init
	ldr.w	r12, [sp, #24]                  @ 4-byte Reload
	ldr	r2, [sp, #28]                   @ 4-byte Reload
	ldr	r0, [sp, #32]                   @ 4-byte Reload
	ldr	r1, [sp, #36]                   @ 4-byte Reload
	ldr	r3, [sp, #40]                   @ 4-byte Reload
	mov.w	lr, #4
	.loc	2 430 25                        @ board/CubeMX_Config/Core/Src/stm32h7xx_hal_msp.c:430:25
	str.w	lr, [sp, #72]
	.loc	2 431 26                        @ board/CubeMX_Config/Core/Src/stm32h7xx_hal_msp.c:431:26
	str.w	r12, [sp, #76]
	.loc	2 432 26                        @ board/CubeMX_Config/Core/Src/stm32h7xx_hal_msp.c:432:26
	str	r3, [sp, #80]
	.loc	2 433 27                        @ board/CubeMX_Config/Core/Src/stm32h7xx_hal_msp.c:433:27
	str	r2, [sp, #84]
	.loc	2 434 31                        @ board/CubeMX_Config/Core/Src/stm32h7xx_hal_msp.c:434:31
	str	r0, [sp, #88]
	movw	r0, #3072
	movt	r0, #22530
	.loc	2 435 5                         @ board/CubeMX_Config/Core/Src/stm32h7xx_hal_msp.c:435:5
	bl	HAL_GPIO_Init
	ldr	r2, [sp, #40]                   @ 4-byte Reload
	movs	r0, #49
	.loc	2 438 5                         @ board/CubeMX_Config/Core/Src/stm32h7xx_hal_msp.c:438:5
	str	r0, [sp, #44]                   @ 4-byte Spill
	mov	r1, r2
	bl	HAL_NVIC_SetPriority
	ldr	r0, [sp, #44]                   @ 4-byte Reload
	.loc	2 439 5                         @ board/CubeMX_Config/Core/Src/stm32h7xx_hal_msp.c:439:5
	bl	HAL_NVIC_EnableIRQ
	.loc	2 443 3                         @ board/CubeMX_Config/Core/Src/stm32h7xx_hal_msp.c:443:3
	b	.LBB7_17
.Ltmp71:
.LBB7_8:
	.loc	2 444 11                        @ board/CubeMX_Config/Core/Src/stm32h7xx_hal_msp.c:444:11
	ldr	r0, [sp, #92]
	.loc	2 444 16 is_stmt 0              @ board/CubeMX_Config/Core/Src/stm32h7xx_hal_msp.c:444:16
	ldr	r0, [r0]
	movw	r1, #9216
	movt	r1, #18434
.Ltmp72:
	.loc	2 444 11                        @ board/CubeMX_Config/Core/Src/stm32h7xx_hal_msp.c:444:11
	cmp	r0, r1
	bne	.LBB7_16
	b	.LBB7_9
.LBB7_9:
.Ltmp73:
	.loc	2 450 5 is_stmt 1               @ board/CubeMX_Config/Core/Src/stm32h7xx_hal_msp.c:450:5
	b	.LBB7_10
.LBB7_10:
	.loc	2 0 5 is_stmt 0                 @ board/CubeMX_Config/Core/Src/stm32h7xx_hal_msp.c:0:5
	movw	r0, #17628
	movt	r0, #22530
.Ltmp74:
	.loc	2 450 5                         @ board/CubeMX_Config/Core/Src/stm32h7xx_hal_msp.c:450:5
	ldr	r1, [r0]
	orr	r1, r1, #512
	str	r1, [r0]
	ldr	r0, [r0]
	and	r0, r0, #512
	str	r0, [sp, #56]
	ldr	r0, [sp, #56]
	b	.LBB7_11
.Ltmp75:
.LBB7_11:
	.loc	2 452 5 is_stmt 1               @ board/CubeMX_Config/Core/Src/stm32h7xx_hal_msp.c:452:5
	b	.LBB7_12
.LBB7_12:
	.loc	2 0 5 is_stmt 0                 @ board/CubeMX_Config/Core/Src/stm32h7xx_hal_msp.c:0:5
	movw	r0, #17632
	movt	r0, #22530
.Ltmp76:
	.loc	2 452 5                         @ board/CubeMX_Config/Core/Src/stm32h7xx_hal_msp.c:452:5
	ldr	r1, [r0]
	orr	r1, r1, #2
	str	r1, [r0]
	ldr	r0, [r0]
	and	r0, r0, #2
	str	r0, [sp, #52]
	ldr	r0, [sp, #52]
	b	.LBB7_13
.Ltmp77:
.LBB7_13:
	.loc	2 453 5 is_stmt 1               @ board/CubeMX_Config/Core/Src/stm32h7xx_hal_msp.c:453:5
	b	.LBB7_14
.LBB7_14:
	.loc	2 0 5 is_stmt 0                 @ board/CubeMX_Config/Core/Src/stm32h7xx_hal_msp.c:0:5
	movw	r0, #17632
	movt	r0, #22530
.Ltmp78:
	.loc	2 453 5                         @ board/CubeMX_Config/Core/Src/stm32h7xx_hal_msp.c:453:5
	ldr	r1, [r0]
	orr	r1, r1, #8
	str	r1, [r0]
	ldr	r0, [r0]
	and	r0, r0, #8
	str	r0, [sp, #48]
	ldr	r0, [sp, #48]
	b	.LBB7_15
.Ltmp79:
.LBB7_15:
	.loc	2 0 5                           @ board/CubeMX_Config/Core/Src/stm32h7xx_hal_msp.c:0:5
	movw	r0, #49176
	.loc	2 462 25 is_stmt 1              @ board/CubeMX_Config/Core/Src/stm32h7xx_hal_msp.c:462:25
	str	r0, [sp, #72]
	movs	r0, #2
	.loc	2 463 26                        @ board/CubeMX_Config/Core/Src/stm32h7xx_hal_msp.c:463:26
	str	r0, [sp, #4]                    @ 4-byte Spill
	str	r0, [sp, #76]
	movs	r0, #0
	.loc	2 464 26                        @ board/CubeMX_Config/Core/Src/stm32h7xx_hal_msp.c:464:26
	str	r0, [sp, #16]                   @ 4-byte Spill
	str	r0, [sp, #80]
	movs	r0, #3
	.loc	2 465 27                        @ board/CubeMX_Config/Core/Src/stm32h7xx_hal_msp.c:465:27
	str	r0, [sp, #8]                    @ 4-byte Spill
	str	r0, [sp, #84]
	movs	r0, #9
	.loc	2 466 31                        @ board/CubeMX_Config/Core/Src/stm32h7xx_hal_msp.c:466:31
	str	r0, [sp, #88]
	movw	r0, #1024
	movt	r0, #22530
	add	r1, sp, #72
	.loc	2 467 5                         @ board/CubeMX_Config/Core/Src/stm32h7xx_hal_msp.c:467:5
	str	r1, [sp, #12]                   @ 4-byte Spill
	bl	HAL_GPIO_Init
	ldr	r3, [sp, #4]                    @ 4-byte Reload
	ldr	r0, [sp, #8]                    @ 4-byte Reload
	ldr	r1, [sp, #12]                   @ 4-byte Reload
	ldr	r2, [sp, #16]                   @ 4-byte Reload
	mov.w	r12, #192
	.loc	2 469 25                        @ board/CubeMX_Config/Core/Src/stm32h7xx_hal_msp.c:469:25
	str.w	r12, [sp, #72]
	.loc	2 470 26                        @ board/CubeMX_Config/Core/Src/stm32h7xx_hal_msp.c:470:26
	str	r3, [sp, #76]
	.loc	2 471 26                        @ board/CubeMX_Config/Core/Src/stm32h7xx_hal_msp.c:471:26
	str	r2, [sp, #80]
	.loc	2 472 27                        @ board/CubeMX_Config/Core/Src/stm32h7xx_hal_msp.c:472:27
	str	r0, [sp, #84]
	movs	r0, #11
	.loc	2 473 31                        @ board/CubeMX_Config/Core/Src/stm32h7xx_hal_msp.c:473:31
	str	r0, [sp, #88]
	movw	r0, #3072
	movt	r0, #22530
	.loc	2 474 5                         @ board/CubeMX_Config/Core/Src/stm32h7xx_hal_msp.c:474:5
	bl	HAL_GPIO_Init
	ldr	r2, [sp, #16]                   @ 4-byte Reload
	movs	r0, #124
	.loc	2 477 5                         @ board/CubeMX_Config/Core/Src/stm32h7xx_hal_msp.c:477:5
	str	r0, [sp, #20]                   @ 4-byte Spill
	mov	r1, r2
	bl	HAL_NVIC_SetPriority
	ldr	r0, [sp, #20]                   @ 4-byte Reload
	.loc	2 478 5                         @ board/CubeMX_Config/Core/Src/stm32h7xx_hal_msp.c:478:5
	bl	HAL_NVIC_EnableIRQ
	.loc	2 482 3                         @ board/CubeMX_Config/Core/Src/stm32h7xx_hal_msp.c:482:3
	b	.LBB7_16
.Ltmp80:
.LBB7_16:
	.loc	2 0 3 is_stmt 0                 @ board/CubeMX_Config/Core/Src/stm32h7xx_hal_msp.c:0:3
	b	.LBB7_17
.LBB7_17:
	.loc	2 484 1 is_stmt 1               @ board/CubeMX_Config/Core/Src/stm32h7xx_hal_msp.c:484:1
	add	sp, #96
	pop	{r7, pc}
.Ltmp81:
.Lfunc_end7:
	.size	HAL_SD_MspInit, .Lfunc_end7-HAL_SD_MspInit
	.cfi_endproc
	.cantunwind
	.fnend
                                        @ -- End function
	.section	.text.HAL_SD_MspDeInit,"ax",%progbits
	.hidden	HAL_SD_MspDeInit                @ -- Begin function HAL_SD_MspDeInit
	.globl	HAL_SD_MspDeInit
	.p2align	3
	.type	HAL_SD_MspDeInit,%function
	.code	16                              @ @HAL_SD_MspDeInit
	.thumb_func
HAL_SD_MspDeInit:
.Lfunc_begin8:
	.loc	2 493 0                         @ board/CubeMX_Config/Core/Src/stm32h7xx_hal_msp.c:493:0
	.fnstart
	.cfi_startproc
@ %bb.0:
	.save	{r7, lr}
	push	{r7, lr}
	.cfi_def_cfa_offset 8
	.cfi_offset lr, -4
	.cfi_offset r7, -8
	.pad	#8
	sub	sp, #8
	.cfi_def_cfa_offset 16
	str	r0, [sp, #4]
.Ltmp82:
	.loc	2 494 6 prologue_end            @ board/CubeMX_Config/Core/Src/stm32h7xx_hal_msp.c:494:6
	ldr	r0, [sp, #4]
	.loc	2 494 11 is_stmt 0              @ board/CubeMX_Config/Core/Src/stm32h7xx_hal_msp.c:494:11
	ldr	r0, [r0]
	movw	r1, #28672
	movt	r1, #20992
.Ltmp83:
	.loc	2 494 6                         @ board/CubeMX_Config/Core/Src/stm32h7xx_hal_msp.c:494:6
	cmp	r0, r1
	bne	.LBB8_2
	b	.LBB8_1
.LBB8_1:
	.loc	2 0 6                           @ board/CubeMX_Config/Core/Src/stm32h7xx_hal_msp.c:0:6
	movw	r1, #17620
	movt	r1, #22530
.Ltmp84:
	.loc	2 500 5 is_stmt 1               @ board/CubeMX_Config/Core/Src/stm32h7xx_hal_msp.c:500:5
	ldr	r0, [r1]
	bic	r0, r0, #65536
	str	r0, [r1]
	movw	r0, #2048
	movt	r0, #22530
	mov.w	r1, #7936
	.loc	2 510 5                         @ board/CubeMX_Config/Core/Src/stm32h7xx_hal_msp.c:510:5
	bl	HAL_GPIO_DeInit
	movw	r0, #3072
	movt	r0, #22530
	movs	r1, #4
	.loc	2 513 5                         @ board/CubeMX_Config/Core/Src/stm32h7xx_hal_msp.c:513:5
	bl	HAL_GPIO_DeInit
	movs	r0, #49
	.loc	2 516 5                         @ board/CubeMX_Config/Core/Src/stm32h7xx_hal_msp.c:516:5
	bl	HAL_NVIC_DisableIRQ
	.loc	2 520 3                         @ board/CubeMX_Config/Core/Src/stm32h7xx_hal_msp.c:520:3
	b	.LBB8_5
.Ltmp85:
.LBB8_2:
	.loc	2 521 11                        @ board/CubeMX_Config/Core/Src/stm32h7xx_hal_msp.c:521:11
	ldr	r0, [sp, #4]
	.loc	2 521 16 is_stmt 0              @ board/CubeMX_Config/Core/Src/stm32h7xx_hal_msp.c:521:16
	ldr	r0, [r0]
	movw	r1, #9216
	movt	r1, #18434
.Ltmp86:
	.loc	2 521 11                        @ board/CubeMX_Config/Core/Src/stm32h7xx_hal_msp.c:521:11
	cmp	r0, r1
	bne	.LBB8_4
	b	.LBB8_3
.LBB8_3:
	.loc	2 0 11                          @ board/CubeMX_Config/Core/Src/stm32h7xx_hal_msp.c:0:11
	movw	r1, #17628
	movt	r1, #22530
.Ltmp87:
	.loc	2 527 5 is_stmt 1               @ board/CubeMX_Config/Core/Src/stm32h7xx_hal_msp.c:527:5
	ldr	r0, [r1]
	bic	r0, r0, #512
	str	r0, [r1]
	movw	r0, #1024
	movt	r0, #22530
	movw	r1, #49176
	.loc	2 537 5                         @ board/CubeMX_Config/Core/Src/stm32h7xx_hal_msp.c:537:5
	bl	HAL_GPIO_DeInit
	movw	r0, #3072
	movt	r0, #22530
	movs	r1, #192
	.loc	2 539 5                         @ board/CubeMX_Config/Core/Src/stm32h7xx_hal_msp.c:539:5
	bl	HAL_GPIO_DeInit
	movs	r0, #124
	.loc	2 542 5                         @ board/CubeMX_Config/Core/Src/stm32h7xx_hal_msp.c:542:5
	bl	HAL_NVIC_DisableIRQ
	.loc	2 546 3                         @ board/CubeMX_Config/Core/Src/stm32h7xx_hal_msp.c:546:3
	b	.LBB8_4
.Ltmp88:
.LBB8_4:
	.loc	2 0 3 is_stmt 0                 @ board/CubeMX_Config/Core/Src/stm32h7xx_hal_msp.c:0:3
	b	.LBB8_5
.LBB8_5:
	.loc	2 548 1 is_stmt 1               @ board/CubeMX_Config/Core/Src/stm32h7xx_hal_msp.c:548:1
	add	sp, #8
	pop	{r7, pc}
.Ltmp89:
.Lfunc_end8:
	.size	HAL_SD_MspDeInit, .Lfunc_end8-HAL_SD_MspDeInit
	.cfi_endproc
	.cantunwind
	.fnend
                                        @ -- End function
	.section	.text.HAL_SPI_MspInit,"ax",%progbits
	.hidden	HAL_SPI_MspInit                 @ -- Begin function HAL_SPI_MspInit
	.globl	HAL_SPI_MspInit
	.p2align	3
	.type	HAL_SPI_MspInit,%function
	.code	16                              @ @HAL_SPI_MspInit
	.thumb_func
HAL_SPI_MspInit:
.Lfunc_begin9:
	.loc	2 557 0                         @ board/CubeMX_Config/Core/Src/stm32h7xx_hal_msp.c:557:0
	.fnstart
	.cfi_startproc
@ %bb.0:
	.save	{r7, lr}
	push	{r7, lr}
	.cfi_def_cfa_offset 8
	.cfi_offset lr, -4
	.cfi_offset r7, -8
	.pad	#72
	sub	sp, #72
	.cfi_def_cfa_offset 80
	str	r0, [sp, #68]
	movs	r0, #0
.Ltmp90:
	.loc	2 558 20 prologue_end           @ board/CubeMX_Config/Core/Src/stm32h7xx_hal_msp.c:558:20
	str	r0, [sp, #64]
	str	r0, [sp, #60]
	str	r0, [sp, #56]
	str	r0, [sp, #52]
	str	r0, [sp, #48]
.Ltmp91:
	.loc	2 559 6                         @ board/CubeMX_Config/Core/Src/stm32h7xx_hal_msp.c:559:6
	ldr	r0, [sp, #68]
	.loc	2 559 12 is_stmt 0              @ board/CubeMX_Config/Core/Src/stm32h7xx_hal_msp.c:559:12
	ldr	r0, [r0]
	movw	r1, #12288
	movt	r1, #16385
.Ltmp92:
	.loc	2 559 6                         @ board/CubeMX_Config/Core/Src/stm32h7xx_hal_msp.c:559:6
	cmp	r0, r1
	bne	.LBB9_10
	b	.LBB9_1
.LBB9_1:
.Ltmp93:
	.loc	2 565 5 is_stmt 1               @ board/CubeMX_Config/Core/Src/stm32h7xx_hal_msp.c:565:5
	b	.LBB9_2
.LBB9_2:
	.loc	2 0 5 is_stmt 0                 @ board/CubeMX_Config/Core/Src/stm32h7xx_hal_msp.c:0:5
	movw	r0, #17648
	movt	r0, #22530
.Ltmp94:
	.loc	2 565 5                         @ board/CubeMX_Config/Core/Src/stm32h7xx_hal_msp.c:565:5
	ldr	r1, [r0]
	orr	r1, r1, #4096
	str	r1, [r0]
	ldr	r0, [r0]
	and	r0, r0, #4096
	str	r0, [sp, #44]
	ldr	r0, [sp, #44]
	b	.LBB9_3
.Ltmp95:
.LBB9_3:
	.loc	2 567 5 is_stmt 1               @ board/CubeMX_Config/Core/Src/stm32h7xx_hal_msp.c:567:5
	b	.LBB9_4
.LBB9_4:
	.loc	2 0 5 is_stmt 0                 @ board/CubeMX_Config/Core/Src/stm32h7xx_hal_msp.c:0:5
	movw	r0, #17632
	movt	r0, #22530
.Ltmp96:
	.loc	2 567 5                         @ board/CubeMX_Config/Core/Src/stm32h7xx_hal_msp.c:567:5
	ldr	r1, [r0]
	orr	r1, r1, #2
	str	r1, [r0]
	ldr	r0, [r0]
	and	r0, r0, #2
	str	r0, [sp, #40]
	ldr	r0, [sp, #40]
	b	.LBB9_5
.Ltmp97:
.LBB9_5:
	.loc	2 568 5 is_stmt 1               @ board/CubeMX_Config/Core/Src/stm32h7xx_hal_msp.c:568:5
	b	.LBB9_6
.LBB9_6:
	.loc	2 0 5 is_stmt 0                 @ board/CubeMX_Config/Core/Src/stm32h7xx_hal_msp.c:0:5
	movw	r0, #17632
	movt	r0, #22530
.Ltmp98:
	.loc	2 568 5                         @ board/CubeMX_Config/Core/Src/stm32h7xx_hal_msp.c:568:5
	ldr	r1, [r0]
	orr	r1, r1, #64
	str	r1, [r0]
	ldr	r0, [r0]
	and	r0, r0, #64
	str	r0, [sp, #36]
	ldr	r0, [sp, #36]
	b	.LBB9_7
.Ltmp99:
.LBB9_7:
	.loc	2 569 5 is_stmt 1               @ board/CubeMX_Config/Core/Src/stm32h7xx_hal_msp.c:569:5
	b	.LBB9_8
.LBB9_8:
	.loc	2 0 5 is_stmt 0                 @ board/CubeMX_Config/Core/Src/stm32h7xx_hal_msp.c:0:5
	movw	r0, #17632
	movt	r0, #22530
.Ltmp100:
	.loc	2 569 5                         @ board/CubeMX_Config/Core/Src/stm32h7xx_hal_msp.c:569:5
	ldr	r1, [r0]
	orr	r1, r1, #1
	str	r1, [r0]
	ldr	r0, [r0]
	and	r0, r0, #1
	str	r0, [sp, #32]
	ldr	r0, [sp, #32]
	b	.LBB9_9
.Ltmp101:
.LBB9_9:
	.loc	2 0 5                           @ board/CubeMX_Config/Core/Src/stm32h7xx_hal_msp.c:0:5
	movs	r0, #32
	.loc	2 575 25 is_stmt 1              @ board/CubeMX_Config/Core/Src/stm32h7xx_hal_msp.c:575:25
	str	r0, [sp, #4]                    @ 4-byte Spill
	str	r0, [sp, #48]
	movs	r0, #2
	.loc	2 576 26                        @ board/CubeMX_Config/Core/Src/stm32h7xx_hal_msp.c:576:26
	str	r0, [sp, #12]                   @ 4-byte Spill
	str	r0, [sp, #52]
	movs	r1, #0
	.loc	2 577 26                        @ board/CubeMX_Config/Core/Src/stm32h7xx_hal_msp.c:577:26
	str	r1, [sp, #8]                    @ 4-byte Spill
	str	r1, [sp, #56]
	.loc	2 578 27                        @ board/CubeMX_Config/Core/Src/stm32h7xx_hal_msp.c:578:27
	str	r0, [sp, #60]
	movs	r0, #5
	.loc	2 579 31                        @ board/CubeMX_Config/Core/Src/stm32h7xx_hal_msp.c:579:31
	str	r0, [sp, #16]                   @ 4-byte Spill
	str	r0, [sp, #64]
	movw	r0, #1024
	movt	r0, #22530
	add	r1, sp, #48
	.loc	2 580 5                         @ board/CubeMX_Config/Core/Src/stm32h7xx_hal_msp.c:580:5
	str	r1, [sp, #20]                   @ 4-byte Spill
	bl	HAL_GPIO_Init
	ldr	r3, [sp, #8]                    @ 4-byte Reload
	ldr	r2, [sp, #12]                   @ 4-byte Reload
	ldr	r0, [sp, #16]                   @ 4-byte Reload
	ldr	r1, [sp, #20]                   @ 4-byte Reload
	mov.w	r12, #512
	.loc	2 582 25                        @ board/CubeMX_Config/Core/Src/stm32h7xx_hal_msp.c:582:25
	str.w	r12, [sp, #48]
	.loc	2 583 26                        @ board/CubeMX_Config/Core/Src/stm32h7xx_hal_msp.c:583:26
	str	r2, [sp, #52]
	.loc	2 584 26                        @ board/CubeMX_Config/Core/Src/stm32h7xx_hal_msp.c:584:26
	str	r3, [sp, #56]
	.loc	2 585 27                        @ board/CubeMX_Config/Core/Src/stm32h7xx_hal_msp.c:585:27
	str	r2, [sp, #60]
	.loc	2 586 31                        @ board/CubeMX_Config/Core/Src/stm32h7xx_hal_msp.c:586:31
	str	r0, [sp, #64]
	movw	r0, #6144
	movt	r0, #22530
	.loc	2 587 5                         @ board/CubeMX_Config/Core/Src/stm32h7xx_hal_msp.c:587:5
	bl	HAL_GPIO_Init
	ldr.w	r12, [sp, #4]                   @ 4-byte Reload
	ldr	r3, [sp, #8]                    @ 4-byte Reload
	ldr	r2, [sp, #12]                   @ 4-byte Reload
	ldr	r0, [sp, #16]                   @ 4-byte Reload
	ldr	r1, [sp, #20]                   @ 4-byte Reload
	.loc	2 589 25                        @ board/CubeMX_Config/Core/Src/stm32h7xx_hal_msp.c:589:25
	str.w	r12, [sp, #48]
	.loc	2 590 26                        @ board/CubeMX_Config/Core/Src/stm32h7xx_hal_msp.c:590:26
	str	r2, [sp, #52]
	.loc	2 591 26                        @ board/CubeMX_Config/Core/Src/stm32h7xx_hal_msp.c:591:26
	str	r3, [sp, #56]
	.loc	2 592 27                        @ board/CubeMX_Config/Core/Src/stm32h7xx_hal_msp.c:592:27
	str	r2, [sp, #60]
	.loc	2 593 31                        @ board/CubeMX_Config/Core/Src/stm32h7xx_hal_msp.c:593:31
	str	r0, [sp, #64]
	movs	r0, #0
	movt	r0, #22530
	.loc	2 594 5                         @ board/CubeMX_Config/Core/Src/stm32h7xx_hal_msp.c:594:5
	bl	HAL_GPIO_Init
	.loc	2 599 3                         @ board/CubeMX_Config/Core/Src/stm32h7xx_hal_msp.c:599:3
	b	.LBB9_17
.Ltmp102:
.LBB9_10:
	.loc	2 600 11                        @ board/CubeMX_Config/Core/Src/stm32h7xx_hal_msp.c:600:11
	ldr	r0, [sp, #68]
	.loc	2 600 17 is_stmt 0              @ board/CubeMX_Config/Core/Src/stm32h7xx_hal_msp.c:600:17
	ldr	r0, [r0]
	movw	r1, #13312
	movt	r1, #16385
.Ltmp103:
	.loc	2 600 11                        @ board/CubeMX_Config/Core/Src/stm32h7xx_hal_msp.c:600:11
	cmp	r0, r1
	bne	.LBB9_16
	b	.LBB9_11
.LBB9_11:
.Ltmp104:
	.loc	2 606 5 is_stmt 1               @ board/CubeMX_Config/Core/Src/stm32h7xx_hal_msp.c:606:5
	b	.LBB9_12
.LBB9_12:
	.loc	2 0 5 is_stmt 0                 @ board/CubeMX_Config/Core/Src/stm32h7xx_hal_msp.c:0:5
	movw	r0, #17648
	movt	r0, #22530
.Ltmp105:
	.loc	2 606 5                         @ board/CubeMX_Config/Core/Src/stm32h7xx_hal_msp.c:606:5
	ldr	r1, [r0]
	orr	r1, r1, #8192
	str	r1, [r0]
	ldr	r0, [r0]
	and	r0, r0, #8192
	str	r0, [sp, #28]
	ldr	r0, [sp, #28]
	b	.LBB9_13
.Ltmp106:
.LBB9_13:
	.loc	2 608 5 is_stmt 1               @ board/CubeMX_Config/Core/Src/stm32h7xx_hal_msp.c:608:5
	b	.LBB9_14
.LBB9_14:
	.loc	2 0 5 is_stmt 0                 @ board/CubeMX_Config/Core/Src/stm32h7xx_hal_msp.c:0:5
	movw	r0, #17632
	movt	r0, #22530
.Ltmp107:
	.loc	2 608 5                         @ board/CubeMX_Config/Core/Src/stm32h7xx_hal_msp.c:608:5
	ldr	r1, [r0]
	orr	r1, r1, #16
	str	r1, [r0]
	ldr	r0, [r0]
	and	r0, r0, #16
	str	r0, [sp, #24]
	ldr	r0, [sp, #24]
	b	.LBB9_15
.Ltmp108:
.LBB9_15:
	.loc	2 0 5                           @ board/CubeMX_Config/Core/Src/stm32h7xx_hal_msp.c:0:5
	movs	r0, #100
	.loc	2 614 25 is_stmt 1              @ board/CubeMX_Config/Core/Src/stm32h7xx_hal_msp.c:614:25
	str	r0, [sp, #48]
	movs	r0, #2
	.loc	2 615 26                        @ board/CubeMX_Config/Core/Src/stm32h7xx_hal_msp.c:615:26
	str	r0, [sp, #52]
	movs	r1, #0
	.loc	2 616 26                        @ board/CubeMX_Config/Core/Src/stm32h7xx_hal_msp.c:616:26
	str	r1, [sp, #56]
	.loc	2 617 27                        @ board/CubeMX_Config/Core/Src/stm32h7xx_hal_msp.c:617:27
	str	r0, [sp, #60]
	movs	r0, #5
	.loc	2 618 31                        @ board/CubeMX_Config/Core/Src/stm32h7xx_hal_msp.c:618:31
	str	r0, [sp, #64]
	movw	r0, #4096
	movt	r0, #22530
	add	r1, sp, #48
	.loc	2 619 5                         @ board/CubeMX_Config/Core/Src/stm32h7xx_hal_msp.c:619:5
	bl	HAL_GPIO_Init
	.loc	2 624 3                         @ board/CubeMX_Config/Core/Src/stm32h7xx_hal_msp.c:624:3
	b	.LBB9_16
.Ltmp109:
.LBB9_16:
	.loc	2 0 3 is_stmt 0                 @ board/CubeMX_Config/Core/Src/stm32h7xx_hal_msp.c:0:3
	b	.LBB9_17
.LBB9_17:
	.loc	2 626 1 is_stmt 1               @ board/CubeMX_Config/Core/Src/stm32h7xx_hal_msp.c:626:1
	add	sp, #72
	pop	{r7, pc}
.Ltmp110:
.Lfunc_end9:
	.size	HAL_SPI_MspInit, .Lfunc_end9-HAL_SPI_MspInit
	.cfi_endproc
	.cantunwind
	.fnend
                                        @ -- End function
	.section	.text.HAL_SPI_MspDeInit,"ax",%progbits
	.hidden	HAL_SPI_MspDeInit               @ -- Begin function HAL_SPI_MspDeInit
	.globl	HAL_SPI_MspDeInit
	.p2align	3
	.type	HAL_SPI_MspDeInit,%function
	.code	16                              @ @HAL_SPI_MspDeInit
	.thumb_func
HAL_SPI_MspDeInit:
.Lfunc_begin10:
	.loc	2 635 0                         @ board/CubeMX_Config/Core/Src/stm32h7xx_hal_msp.c:635:0
	.fnstart
	.cfi_startproc
@ %bb.0:
	.save	{r7, lr}
	push	{r7, lr}
	.cfi_def_cfa_offset 8
	.cfi_offset lr, -4
	.cfi_offset r7, -8
	.pad	#8
	sub	sp, #8
	.cfi_def_cfa_offset 16
	str	r0, [sp, #4]
.Ltmp111:
	.loc	2 636 6 prologue_end            @ board/CubeMX_Config/Core/Src/stm32h7xx_hal_msp.c:636:6
	ldr	r0, [sp, #4]
	.loc	2 636 12 is_stmt 0              @ board/CubeMX_Config/Core/Src/stm32h7xx_hal_msp.c:636:12
	ldr	r0, [r0]
	movw	r1, #12288
	movt	r1, #16385
.Ltmp112:
	.loc	2 636 6                         @ board/CubeMX_Config/Core/Src/stm32h7xx_hal_msp.c:636:6
	cmp	r0, r1
	bne	.LBB10_2
	b	.LBB10_1
.LBB10_1:
	.loc	2 0 6                           @ board/CubeMX_Config/Core/Src/stm32h7xx_hal_msp.c:0:6
	movw	r1, #17648
	movt	r1, #22530
.Ltmp113:
	.loc	2 642 5 is_stmt 1               @ board/CubeMX_Config/Core/Src/stm32h7xx_hal_msp.c:642:5
	ldr	r0, [r1]
	bic	r0, r0, #4096
	str	r0, [r1]
	movw	r0, #1024
	movt	r0, #22530
	movs	r1, #32
	.loc	2 649 5                         @ board/CubeMX_Config/Core/Src/stm32h7xx_hal_msp.c:649:5
	str	r1, [sp]                        @ 4-byte Spill
	bl	HAL_GPIO_DeInit
	movw	r0, #6144
	movt	r0, #22530
	mov.w	r1, #512
	.loc	2 651 5                         @ board/CubeMX_Config/Core/Src/stm32h7xx_hal_msp.c:651:5
	bl	HAL_GPIO_DeInit
	ldr	r1, [sp]                        @ 4-byte Reload
	movs	r0, #0
	movt	r0, #22530
	.loc	2 653 5                         @ board/CubeMX_Config/Core/Src/stm32h7xx_hal_msp.c:653:5
	bl	HAL_GPIO_DeInit
	.loc	2 658 3                         @ board/CubeMX_Config/Core/Src/stm32h7xx_hal_msp.c:658:3
	b	.LBB10_5
.Ltmp114:
.LBB10_2:
	.loc	2 659 11                        @ board/CubeMX_Config/Core/Src/stm32h7xx_hal_msp.c:659:11
	ldr	r0, [sp, #4]
	.loc	2 659 17 is_stmt 0              @ board/CubeMX_Config/Core/Src/stm32h7xx_hal_msp.c:659:17
	ldr	r0, [r0]
	movw	r1, #13312
	movt	r1, #16385
.Ltmp115:
	.loc	2 659 11                        @ board/CubeMX_Config/Core/Src/stm32h7xx_hal_msp.c:659:11
	cmp	r0, r1
	bne	.LBB10_4
	b	.LBB10_3
.LBB10_3:
	.loc	2 0 11                          @ board/CubeMX_Config/Core/Src/stm32h7xx_hal_msp.c:0:11
	movw	r1, #17648
	movt	r1, #22530
.Ltmp116:
	.loc	2 665 5 is_stmt 1               @ board/CubeMX_Config/Core/Src/stm32h7xx_hal_msp.c:665:5
	ldr	r0, [r1]
	bic	r0, r0, #8192
	str	r0, [r1]
	movw	r0, #4096
	movt	r0, #22530
	movs	r1, #100
	.loc	2 672 5                         @ board/CubeMX_Config/Core/Src/stm32h7xx_hal_msp.c:672:5
	bl	HAL_GPIO_DeInit
	.loc	2 677 3                         @ board/CubeMX_Config/Core/Src/stm32h7xx_hal_msp.c:677:3
	b	.LBB10_4
.Ltmp117:
.LBB10_4:
	.loc	2 0 3 is_stmt 0                 @ board/CubeMX_Config/Core/Src/stm32h7xx_hal_msp.c:0:3
	b	.LBB10_5
.LBB10_5:
	.loc	2 679 1 is_stmt 1               @ board/CubeMX_Config/Core/Src/stm32h7xx_hal_msp.c:679:1
	add	sp, #8
	pop	{r7, pc}
.Ltmp118:
.Lfunc_end10:
	.size	HAL_SPI_MspDeInit, .Lfunc_end10-HAL_SPI_MspDeInit
	.cfi_endproc
	.cantunwind
	.fnend
                                        @ -- End function
	.section	.text.HAL_TIM_PWM_MspInit,"ax",%progbits
	.hidden	HAL_TIM_PWM_MspInit             @ -- Begin function HAL_TIM_PWM_MspInit
	.globl	HAL_TIM_PWM_MspInit
	.p2align	3
	.type	HAL_TIM_PWM_MspInit,%function
	.code	16                              @ @HAL_TIM_PWM_MspInit
	.thumb_func
HAL_TIM_PWM_MspInit:
.Lfunc_begin11:
	.loc	2 688 0                         @ board/CubeMX_Config/Core/Src/stm32h7xx_hal_msp.c:688:0
	.fnstart
	.cfi_startproc
@ %bb.0:
	.pad	#8
	sub	sp, #8
	.cfi_def_cfa_offset 8
	str	r0, [sp, #4]
.Ltmp119:
	.loc	2 690 6 prologue_end            @ board/CubeMX_Config/Core/Src/stm32h7xx_hal_msp.c:690:6
	ldr	r0, [sp, #4]
	.loc	2 690 16 is_stmt 0              @ board/CubeMX_Config/Core/Src/stm32h7xx_hal_msp.c:690:16
	ldr	r0, [r0]
	movw	r1, #3072
	movt	r1, #16384
.Ltmp120:
	.loc	2 690 6                         @ board/CubeMX_Config/Core/Src/stm32h7xx_hal_msp.c:690:6
	cmp	r0, r1
	bne	.LBB11_4
	b	.LBB11_1
.LBB11_1:
.Ltmp121:
	.loc	2 696 5 is_stmt 1               @ board/CubeMX_Config/Core/Src/stm32h7xx_hal_msp.c:696:5
	b	.LBB11_2
.LBB11_2:
	.loc	2 0 5 is_stmt 0                 @ board/CubeMX_Config/Core/Src/stm32h7xx_hal_msp.c:0:5
	movw	r0, #17640
	movt	r0, #22530
.Ltmp122:
	.loc	2 696 5                         @ board/CubeMX_Config/Core/Src/stm32h7xx_hal_msp.c:696:5
	ldr	r1, [r0]
	orr	r1, r1, #8
	str	r1, [r0]
	ldr	r0, [r0]
	and	r0, r0, #8
	str	r0, [sp]
	ldr	r0, [sp]
	b	.LBB11_3
.Ltmp123:
.LBB11_3:
	.loc	2 700 3 is_stmt 1               @ board/CubeMX_Config/Core/Src/stm32h7xx_hal_msp.c:700:3
	b	.LBB11_4
.Ltmp124:
.LBB11_4:
	.loc	2 702 1                         @ board/CubeMX_Config/Core/Src/stm32h7xx_hal_msp.c:702:1
	add	sp, #8
	bx	lr
.Ltmp125:
.Lfunc_end11:
	.size	HAL_TIM_PWM_MspInit, .Lfunc_end11-HAL_TIM_PWM_MspInit
	.cfi_endproc
	.cantunwind
	.fnend
                                        @ -- End function
	.section	.text.HAL_TIM_MspPostInit,"ax",%progbits
	.hidden	HAL_TIM_MspPostInit             @ -- Begin function HAL_TIM_MspPostInit
	.globl	HAL_TIM_MspPostInit
	.p2align	3
	.type	HAL_TIM_MspPostInit,%function
	.code	16                              @ @HAL_TIM_MspPostInit
	.thumb_func
HAL_TIM_MspPostInit:
.Lfunc_begin12:
	.loc	2 705 0                         @ board/CubeMX_Config/Core/Src/stm32h7xx_hal_msp.c:705:0
	.fnstart
	.cfi_startproc
@ %bb.0:
	.save	{r7, lr}
	push	{r7, lr}
	.cfi_def_cfa_offset 8
	.cfi_offset lr, -4
	.cfi_offset r7, -8
	.pad	#32
	sub	sp, #32
	.cfi_def_cfa_offset 40
	str	r0, [sp, #28]
	movs	r0, #0
.Ltmp126:
	.loc	2 706 20 prologue_end           @ board/CubeMX_Config/Core/Src/stm32h7xx_hal_msp.c:706:20
	str	r0, [sp, #24]
	str	r0, [sp, #20]
	str	r0, [sp, #16]
	str	r0, [sp, #12]
	str	r0, [sp, #8]
.Ltmp127:
	.loc	2 707 6                         @ board/CubeMX_Config/Core/Src/stm32h7xx_hal_msp.c:707:6
	ldr	r0, [sp, #28]
	.loc	2 707 12 is_stmt 0              @ board/CubeMX_Config/Core/Src/stm32h7xx_hal_msp.c:707:12
	ldr	r0, [r0]
	movw	r1, #3072
	movt	r1, #16384
.Ltmp128:
	.loc	2 707 6                         @ board/CubeMX_Config/Core/Src/stm32h7xx_hal_msp.c:707:6
	cmp	r0, r1
	bne	.LBB12_4
	b	.LBB12_1
.LBB12_1:
.Ltmp129:
	.loc	2 713 5 is_stmt 1               @ board/CubeMX_Config/Core/Src/stm32h7xx_hal_msp.c:713:5
	b	.LBB12_2
.LBB12_2:
	.loc	2 0 5 is_stmt 0                 @ board/CubeMX_Config/Core/Src/stm32h7xx_hal_msp.c:0:5
	movw	r0, #17632
	movt	r0, #22530
.Ltmp130:
	.loc	2 713 5                         @ board/CubeMX_Config/Core/Src/stm32h7xx_hal_msp.c:713:5
	ldr	r1, [r0]
	orr	r1, r1, #128
	str	r1, [r0]
	ldr	r0, [r0]
	and	r0, r0, #128
	str	r0, [sp, #4]
	ldr	r0, [sp, #4]
	b	.LBB12_3
.Ltmp131:
.LBB12_3:
	.loc	2 0 5                           @ board/CubeMX_Config/Core/Src/stm32h7xx_hal_msp.c:0:5
	mov.w	r0, #1024
	.loc	2 717 25 is_stmt 1              @ board/CubeMX_Config/Core/Src/stm32h7xx_hal_msp.c:717:25
	str	r0, [sp, #8]
	movs	r0, #2
	.loc	2 718 26                        @ board/CubeMX_Config/Core/Src/stm32h7xx_hal_msp.c:718:26
	str	r0, [sp, #12]
	movs	r1, #0
	.loc	2 719 26                        @ board/CubeMX_Config/Core/Src/stm32h7xx_hal_msp.c:719:26
	str	r1, [sp, #16]
	.loc	2 720 27                        @ board/CubeMX_Config/Core/Src/stm32h7xx_hal_msp.c:720:27
	str	r1, [sp, #20]
	.loc	2 721 31                        @ board/CubeMX_Config/Core/Src/stm32h7xx_hal_msp.c:721:31
	str	r0, [sp, #24]
	movw	r0, #7168
	movt	r0, #22530
	add	r1, sp, #8
	.loc	2 722 5                         @ board/CubeMX_Config/Core/Src/stm32h7xx_hal_msp.c:722:5
	bl	HAL_GPIO_Init
	.loc	2 727 3                         @ board/CubeMX_Config/Core/Src/stm32h7xx_hal_msp.c:727:3
	b	.LBB12_4
.Ltmp132:
.LBB12_4:
	.loc	2 729 1                         @ board/CubeMX_Config/Core/Src/stm32h7xx_hal_msp.c:729:1
	add	sp, #32
	pop	{r7, pc}
.Ltmp133:
.Lfunc_end12:
	.size	HAL_TIM_MspPostInit, .Lfunc_end12-HAL_TIM_MspPostInit
	.cfi_endproc
	.cantunwind
	.fnend
                                        @ -- End function
	.section	.text.HAL_TIM_PWM_MspDeInit,"ax",%progbits
	.hidden	HAL_TIM_PWM_MspDeInit           @ -- Begin function HAL_TIM_PWM_MspDeInit
	.globl	HAL_TIM_PWM_MspDeInit
	.p2align	3
	.type	HAL_TIM_PWM_MspDeInit,%function
	.code	16                              @ @HAL_TIM_PWM_MspDeInit
	.thumb_func
HAL_TIM_PWM_MspDeInit:
.Lfunc_begin13:
	.loc	2 737 0                         @ board/CubeMX_Config/Core/Src/stm32h7xx_hal_msp.c:737:0
	.fnstart
	.cfi_startproc
@ %bb.0:
	.pad	#4
	sub	sp, #4
	.cfi_def_cfa_offset 4
	str	r0, [sp]
.Ltmp134:
	.loc	2 738 6 prologue_end            @ board/CubeMX_Config/Core/Src/stm32h7xx_hal_msp.c:738:6
	ldr	r0, [sp]
	.loc	2 738 16 is_stmt 0              @ board/CubeMX_Config/Core/Src/stm32h7xx_hal_msp.c:738:16
	ldr	r0, [r0]
	movw	r1, #3072
	movt	r1, #16384
.Ltmp135:
	.loc	2 738 6                         @ board/CubeMX_Config/Core/Src/stm32h7xx_hal_msp.c:738:6
	cmp	r0, r1
	bne	.LBB13_2
	b	.LBB13_1
.LBB13_1:
	.loc	2 0 6                           @ board/CubeMX_Config/Core/Src/stm32h7xx_hal_msp.c:0:6
	movw	r1, #17640
	movt	r1, #22530
.Ltmp136:
	.loc	2 744 5 is_stmt 1               @ board/CubeMX_Config/Core/Src/stm32h7xx_hal_msp.c:744:5
	ldr	r0, [r1]
	bic	r0, r0, #8
	str	r0, [r1]
	.loc	2 748 3                         @ board/CubeMX_Config/Core/Src/stm32h7xx_hal_msp.c:748:3
	b	.LBB13_2
.Ltmp137:
.LBB13_2:
	.loc	2 750 1                         @ board/CubeMX_Config/Core/Src/stm32h7xx_hal_msp.c:750:1
	add	sp, #4
	bx	lr
.Ltmp138:
.Lfunc_end13:
	.size	HAL_TIM_PWM_MspDeInit, .Lfunc_end13-HAL_TIM_PWM_MspDeInit
	.cfi_endproc
	.cantunwind
	.fnend
                                        @ -- End function
	.section	.text.HAL_UART_MspInit,"ax",%progbits
	.hidden	HAL_UART_MspInit                @ -- Begin function HAL_UART_MspInit
	.globl	HAL_UART_MspInit
	.p2align	3
	.type	HAL_UART_MspInit,%function
	.code	16                              @ @HAL_UART_MspInit
	.thumb_func
HAL_UART_MspInit:
.Lfunc_begin14:
	.loc	2 759 0                         @ board/CubeMX_Config/Core/Src/stm32h7xx_hal_msp.c:759:0
	.fnstart
	.cfi_startproc
@ %bb.0:
	.save	{r7, lr}
	push	{r7, lr}
	.cfi_def_cfa_offset 8
	.cfi_offset lr, -4
	.cfi_offset r7, -8
	.pad	#80
	sub	sp, #80
	.cfi_def_cfa_offset 88
	str	r0, [sp, #76]
	movs	r0, #0
.Ltmp139:
	.loc	2 760 20 prologue_end           @ board/CubeMX_Config/Core/Src/stm32h7xx_hal_msp.c:760:20
	str	r0, [sp, #72]
	str	r0, [sp, #68]
	str	r0, [sp, #64]
	str	r0, [sp, #60]
	str	r0, [sp, #56]
.Ltmp140:
	.loc	2 761 6                         @ board/CubeMX_Config/Core/Src/stm32h7xx_hal_msp.c:761:6
	ldr	r0, [sp, #76]
	.loc	2 761 13 is_stmt 0              @ board/CubeMX_Config/Core/Src/stm32h7xx_hal_msp.c:761:13
	ldr	r0, [r0]
	movw	r1, #19456
	movt	r1, #16384
.Ltmp141:
	.loc	2 761 6                         @ board/CubeMX_Config/Core/Src/stm32h7xx_hal_msp.c:761:6
	cmp	r0, r1
	bne	.LBB14_8
	b	.LBB14_1
.LBB14_1:
.Ltmp142:
	.loc	2 767 5 is_stmt 1               @ board/CubeMX_Config/Core/Src/stm32h7xx_hal_msp.c:767:5
	b	.LBB14_2
.LBB14_2:
	.loc	2 0 5 is_stmt 0                 @ board/CubeMX_Config/Core/Src/stm32h7xx_hal_msp.c:0:5
	movw	r0, #17640
	movt	r0, #22530
.Ltmp143:
	.loc	2 767 5                         @ board/CubeMX_Config/Core/Src/stm32h7xx_hal_msp.c:767:5
	ldr	r1, [r0]
	orr	r1, r1, #524288
	str	r1, [r0]
	ldr	r0, [r0]
	and	r0, r0, #524288
	str	r0, [sp, #52]
	ldr	r0, [sp, #52]
	b	.LBB14_3
.Ltmp144:
.LBB14_3:
	.loc	2 769 5 is_stmt 1               @ board/CubeMX_Config/Core/Src/stm32h7xx_hal_msp.c:769:5
	b	.LBB14_4
.LBB14_4:
	.loc	2 0 5 is_stmt 0                 @ board/CubeMX_Config/Core/Src/stm32h7xx_hal_msp.c:0:5
	movw	r0, #17632
	movt	r0, #22530
.Ltmp145:
	.loc	2 769 5                         @ board/CubeMX_Config/Core/Src/stm32h7xx_hal_msp.c:769:5
	ldr	r1, [r0]
	orr	r1, r1, #256
	str	r1, [r0]
	ldr	r0, [r0]
	and	r0, r0, #256
	str	r0, [sp, #48]
	ldr	r0, [sp, #48]
	b	.LBB14_5
.Ltmp146:
.LBB14_5:
	.loc	2 770 5 is_stmt 1               @ board/CubeMX_Config/Core/Src/stm32h7xx_hal_msp.c:770:5
	b	.LBB14_6
.LBB14_6:
	.loc	2 0 5 is_stmt 0                 @ board/CubeMX_Config/Core/Src/stm32h7xx_hal_msp.c:0:5
	movw	r0, #17632
	movt	r0, #22530
.Ltmp147:
	.loc	2 770 5                         @ board/CubeMX_Config/Core/Src/stm32h7xx_hal_msp.c:770:5
	ldr	r1, [r0]
	orr	r1, r1, #1
	str	r1, [r0]
	ldr	r0, [r0]
	and	r0, r0, #1
	str	r0, [sp, #44]
	ldr	r0, [sp, #44]
	b	.LBB14_7
.Ltmp148:
.LBB14_7:
	.loc	2 0 5                           @ board/CubeMX_Config/Core/Src/stm32h7xx_hal_msp.c:0:5
	mov.w	r0, #512
	.loc	2 775 25 is_stmt 1              @ board/CubeMX_Config/Core/Src/stm32h7xx_hal_msp.c:775:25
	str	r0, [sp, #56]
	movs	r0, #2
	.loc	2 776 26                        @ board/CubeMX_Config/Core/Src/stm32h7xx_hal_msp.c:776:26
	str	r0, [sp, #16]                   @ 4-byte Spill
	str	r0, [sp, #60]
	movs	r0, #0
	.loc	2 777 26                        @ board/CubeMX_Config/Core/Src/stm32h7xx_hal_msp.c:777:26
	str	r0, [sp, #20]                   @ 4-byte Spill
	str	r0, [sp, #64]
	.loc	2 778 27                        @ board/CubeMX_Config/Core/Src/stm32h7xx_hal_msp.c:778:27
	str	r0, [sp, #68]
	movs	r0, #8
	.loc	2 779 31                        @ board/CubeMX_Config/Core/Src/stm32h7xx_hal_msp.c:779:31
	str	r0, [sp, #24]                   @ 4-byte Spill
	str	r0, [sp, #72]
	movw	r0, #8192
	movt	r0, #22530
	add	r1, sp, #56
	.loc	2 780 5                         @ board/CubeMX_Config/Core/Src/stm32h7xx_hal_msp.c:780:5
	str	r1, [sp, #28]                   @ 4-byte Spill
	bl	HAL_GPIO_Init
	ldr	r3, [sp, #16]                   @ 4-byte Reload
	ldr	r2, [sp, #20]                   @ 4-byte Reload
	ldr	r0, [sp, #24]                   @ 4-byte Reload
	ldr	r1, [sp, #28]                   @ 4-byte Reload
	mov.w	r12, #1
	.loc	2 782 25                        @ board/CubeMX_Config/Core/Src/stm32h7xx_hal_msp.c:782:25
	str.w	r12, [sp, #56]
	.loc	2 783 26                        @ board/CubeMX_Config/Core/Src/stm32h7xx_hal_msp.c:783:26
	str	r3, [sp, #60]
	.loc	2 784 26                        @ board/CubeMX_Config/Core/Src/stm32h7xx_hal_msp.c:784:26
	str	r2, [sp, #64]
	.loc	2 785 27                        @ board/CubeMX_Config/Core/Src/stm32h7xx_hal_msp.c:785:27
	str	r2, [sp, #68]
	.loc	2 786 31                        @ board/CubeMX_Config/Core/Src/stm32h7xx_hal_msp.c:786:31
	str	r0, [sp, #72]
	movs	r0, #0
	movt	r0, #22530
	.loc	2 787 5                         @ board/CubeMX_Config/Core/Src/stm32h7xx_hal_msp.c:787:5
	bl	HAL_GPIO_Init
	.loc	2 792 3                         @ board/CubeMX_Config/Core/Src/stm32h7xx_hal_msp.c:792:3
	b	.LBB14_17
.Ltmp149:
.LBB14_8:
	.loc	2 793 11                        @ board/CubeMX_Config/Core/Src/stm32h7xx_hal_msp.c:793:11
	ldr	r0, [sp, #76]
	.loc	2 793 18 is_stmt 0              @ board/CubeMX_Config/Core/Src/stm32h7xx_hal_msp.c:793:18
	ldr	r0, [r0]
	movw	r1, #18432
	movt	r1, #16384
.Ltmp150:
	.loc	2 793 11                        @ board/CubeMX_Config/Core/Src/stm32h7xx_hal_msp.c:793:11
	cmp	r0, r1
	bne	.LBB14_16
	b	.LBB14_9
.LBB14_9:
.Ltmp151:
	.loc	2 799 5 is_stmt 1               @ board/CubeMX_Config/Core/Src/stm32h7xx_hal_msp.c:799:5
	b	.LBB14_10
.LBB14_10:
	.loc	2 0 5 is_stmt 0                 @ board/CubeMX_Config/Core/Src/stm32h7xx_hal_msp.c:0:5
	movw	r0, #17640
	movt	r0, #22530
.Ltmp152:
	.loc	2 799 5                         @ board/CubeMX_Config/Core/Src/stm32h7xx_hal_msp.c:799:5
	ldr	r1, [r0]
	orr	r1, r1, #262144
	str	r1, [r0]
	ldr	r0, [r0]
	and	r0, r0, #262144
	str	r0, [sp, #40]
	ldr	r0, [sp, #40]
	b	.LBB14_11
.Ltmp153:
.LBB14_11:
	.loc	2 801 5 is_stmt 1               @ board/CubeMX_Config/Core/Src/stm32h7xx_hal_msp.c:801:5
	b	.LBB14_12
.LBB14_12:
	.loc	2 0 5 is_stmt 0                 @ board/CubeMX_Config/Core/Src/stm32h7xx_hal_msp.c:0:5
	movw	r0, #17632
	movt	r0, #22530
.Ltmp154:
	.loc	2 801 5                         @ board/CubeMX_Config/Core/Src/stm32h7xx_hal_msp.c:801:5
	ldr	r1, [r0]
	orr	r1, r1, #2
	str	r1, [r0]
	ldr	r0, [r0]
	and	r0, r0, #2
	str	r0, [sp, #36]
	ldr	r0, [sp, #36]
	b	.LBB14_13
.Ltmp155:
.LBB14_13:
	.loc	2 802 5 is_stmt 1               @ board/CubeMX_Config/Core/Src/stm32h7xx_hal_msp.c:802:5
	b	.LBB14_14
.LBB14_14:
	.loc	2 0 5 is_stmt 0                 @ board/CubeMX_Config/Core/Src/stm32h7xx_hal_msp.c:0:5
	movw	r0, #17632
	movt	r0, #22530
.Ltmp156:
	.loc	2 802 5                         @ board/CubeMX_Config/Core/Src/stm32h7xx_hal_msp.c:802:5
	ldr	r1, [r0]
	orr	r1, r1, #8
	str	r1, [r0]
	ldr	r0, [r0]
	and	r0, r0, #8
	str	r0, [sp, #32]
	ldr	r0, [sp, #32]
	b	.LBB14_15
.Ltmp157:
.LBB14_15:
	.loc	2 0 5                           @ board/CubeMX_Config/Core/Src/stm32h7xx_hal_msp.c:0:5
	mov.w	r0, #3072
	.loc	2 809 25 is_stmt 1              @ board/CubeMX_Config/Core/Src/stm32h7xx_hal_msp.c:809:25
	str	r0, [sp, #56]
	movs	r0, #2
	.loc	2 810 26                        @ board/CubeMX_Config/Core/Src/stm32h7xx_hal_msp.c:810:26
	str	r0, [sp]                        @ 4-byte Spill
	str	r0, [sp, #60]
	movs	r0, #0
	.loc	2 811 26                        @ board/CubeMX_Config/Core/Src/stm32h7xx_hal_msp.c:811:26
	str	r0, [sp, #4]                    @ 4-byte Spill
	str	r0, [sp, #64]
	.loc	2 812 27                        @ board/CubeMX_Config/Core/Src/stm32h7xx_hal_msp.c:812:27
	str	r0, [sp, #68]
	movs	r0, #7
	.loc	2 813 31                        @ board/CubeMX_Config/Core/Src/stm32h7xx_hal_msp.c:813:31
	str	r0, [sp, #8]                    @ 4-byte Spill
	str	r0, [sp, #72]
	movw	r0, #1024
	movt	r0, #22530
	add	r1, sp, #56
	.loc	2 814 5                         @ board/CubeMX_Config/Core/Src/stm32h7xx_hal_msp.c:814:5
	str	r1, [sp, #12]                   @ 4-byte Spill
	bl	HAL_GPIO_Init
	ldr	r3, [sp]                        @ 4-byte Reload
	ldr	r2, [sp, #4]                    @ 4-byte Reload
	ldr	r0, [sp, #8]                    @ 4-byte Reload
	ldr	r1, [sp, #12]                   @ 4-byte Reload
	mov.w	r12, #6144
	.loc	2 816 25                        @ board/CubeMX_Config/Core/Src/stm32h7xx_hal_msp.c:816:25
	str.w	r12, [sp, #56]
	.loc	2 817 26                        @ board/CubeMX_Config/Core/Src/stm32h7xx_hal_msp.c:817:26
	str	r3, [sp, #60]
	.loc	2 818 26                        @ board/CubeMX_Config/Core/Src/stm32h7xx_hal_msp.c:818:26
	str	r2, [sp, #64]
	.loc	2 819 27                        @ board/CubeMX_Config/Core/Src/stm32h7xx_hal_msp.c:819:27
	str	r2, [sp, #68]
	.loc	2 820 31                        @ board/CubeMX_Config/Core/Src/stm32h7xx_hal_msp.c:820:31
	str	r0, [sp, #72]
	movw	r0, #3072
	movt	r0, #22530
	.loc	2 821 5                         @ board/CubeMX_Config/Core/Src/stm32h7xx_hal_msp.c:821:5
	bl	HAL_GPIO_Init
	.loc	2 826 3                         @ board/CubeMX_Config/Core/Src/stm32h7xx_hal_msp.c:826:3
	b	.LBB14_16
.Ltmp158:
.LBB14_16:
	.loc	2 0 3 is_stmt 0                 @ board/CubeMX_Config/Core/Src/stm32h7xx_hal_msp.c:0:3
	b	.LBB14_17
.LBB14_17:
	.loc	2 828 1 is_stmt 1               @ board/CubeMX_Config/Core/Src/stm32h7xx_hal_msp.c:828:1
	add	sp, #80
	pop	{r7, pc}
.Ltmp159:
.Lfunc_end14:
	.size	HAL_UART_MspInit, .Lfunc_end14-HAL_UART_MspInit
	.cfi_endproc
	.cantunwind
	.fnend
                                        @ -- End function
	.section	.text.HAL_UART_MspDeInit,"ax",%progbits
	.hidden	HAL_UART_MspDeInit              @ -- Begin function HAL_UART_MspDeInit
	.globl	HAL_UART_MspDeInit
	.p2align	3
	.type	HAL_UART_MspDeInit,%function
	.code	16                              @ @HAL_UART_MspDeInit
	.thumb_func
HAL_UART_MspDeInit:
.Lfunc_begin15:
	.loc	2 837 0                         @ board/CubeMX_Config/Core/Src/stm32h7xx_hal_msp.c:837:0
	.fnstart
	.cfi_startproc
@ %bb.0:
	.save	{r7, lr}
	push	{r7, lr}
	.cfi_def_cfa_offset 8
	.cfi_offset lr, -4
	.cfi_offset r7, -8
	.pad	#8
	sub	sp, #8
	.cfi_def_cfa_offset 16
	str	r0, [sp, #4]
.Ltmp160:
	.loc	2 838 6 prologue_end            @ board/CubeMX_Config/Core/Src/stm32h7xx_hal_msp.c:838:6
	ldr	r0, [sp, #4]
	.loc	2 838 13 is_stmt 0              @ board/CubeMX_Config/Core/Src/stm32h7xx_hal_msp.c:838:13
	ldr	r0, [r0]
	movw	r1, #19456
	movt	r1, #16384
.Ltmp161:
	.loc	2 838 6                         @ board/CubeMX_Config/Core/Src/stm32h7xx_hal_msp.c:838:6
	cmp	r0, r1
	bne	.LBB15_2
	b	.LBB15_1
.LBB15_1:
	.loc	2 0 6                           @ board/CubeMX_Config/Core/Src/stm32h7xx_hal_msp.c:0:6
	movw	r1, #17640
	movt	r1, #22530
.Ltmp162:
	.loc	2 844 5 is_stmt 1               @ board/CubeMX_Config/Core/Src/stm32h7xx_hal_msp.c:844:5
	ldr	r0, [r1]
	bic	r0, r0, #524288
	str	r0, [r1]
	movw	r0, #8192
	movt	r0, #22530
	mov.w	r1, #512
	.loc	2 850 5                         @ board/CubeMX_Config/Core/Src/stm32h7xx_hal_msp.c:850:5
	bl	HAL_GPIO_DeInit
	movs	r0, #0
	movt	r0, #22530
	movs	r1, #1
	.loc	2 852 5                         @ board/CubeMX_Config/Core/Src/stm32h7xx_hal_msp.c:852:5
	bl	HAL_GPIO_DeInit
	.loc	2 857 3                         @ board/CubeMX_Config/Core/Src/stm32h7xx_hal_msp.c:857:3
	b	.LBB15_5
.Ltmp163:
.LBB15_2:
	.loc	2 858 11                        @ board/CubeMX_Config/Core/Src/stm32h7xx_hal_msp.c:858:11
	ldr	r0, [sp, #4]
	.loc	2 858 18 is_stmt 0              @ board/CubeMX_Config/Core/Src/stm32h7xx_hal_msp.c:858:18
	ldr	r0, [r0]
	movw	r1, #18432
	movt	r1, #16384
.Ltmp164:
	.loc	2 858 11                        @ board/CubeMX_Config/Core/Src/stm32h7xx_hal_msp.c:858:11
	cmp	r0, r1
	bne	.LBB15_4
	b	.LBB15_3
.LBB15_3:
	.loc	2 0 11                          @ board/CubeMX_Config/Core/Src/stm32h7xx_hal_msp.c:0:11
	movw	r1, #17640
	movt	r1, #22530
.Ltmp165:
	.loc	2 864 5 is_stmt 1               @ board/CubeMX_Config/Core/Src/stm32h7xx_hal_msp.c:864:5
	ldr	r0, [r1]
	bic	r0, r0, #262144
	str	r0, [r1]
	movw	r0, #1024
	movt	r0, #22530
	mov.w	r1, #3072
	.loc	2 872 5                         @ board/CubeMX_Config/Core/Src/stm32h7xx_hal_msp.c:872:5
	bl	HAL_GPIO_DeInit
	movw	r0, #3072
	movt	r0, #22530
	mov.w	r1, #6144
	.loc	2 874 5                         @ board/CubeMX_Config/Core/Src/stm32h7xx_hal_msp.c:874:5
	bl	HAL_GPIO_DeInit
	.loc	2 879 3                         @ board/CubeMX_Config/Core/Src/stm32h7xx_hal_msp.c:879:3
	b	.LBB15_4
.Ltmp166:
.LBB15_4:
	.loc	2 0 3 is_stmt 0                 @ board/CubeMX_Config/Core/Src/stm32h7xx_hal_msp.c:0:3
	b	.LBB15_5
.LBB15_5:
	.loc	2 881 1 is_stmt 1               @ board/CubeMX_Config/Core/Src/stm32h7xx_hal_msp.c:881:1
	add	sp, #8
	pop	{r7, pc}
.Ltmp167:
.Lfunc_end15:
	.size	HAL_UART_MspDeInit, .Lfunc_end15-HAL_UART_MspDeInit
	.cfi_endproc
	.cantunwind
	.fnend
                                        @ -- End function
	.section	.text.HAL_PCD_MspInit,"ax",%progbits
	.hidden	HAL_PCD_MspInit                 @ -- Begin function HAL_PCD_MspInit
	.globl	HAL_PCD_MspInit
	.p2align	3
	.type	HAL_PCD_MspInit,%function
	.code	16                              @ @HAL_PCD_MspInit
	.thumb_func
HAL_PCD_MspInit:
.Lfunc_begin16:
	.loc	2 890 0                         @ board/CubeMX_Config/Core/Src/stm32h7xx_hal_msp.c:890:0
	.fnstart
	.cfi_startproc
@ %bb.0:
	.save	{r7, lr}
	push	{r7, lr}
	.cfi_def_cfa_offset 8
	.cfi_offset lr, -4
	.cfi_offset r7, -8
	.pad	#40
	sub	sp, #40
	.cfi_def_cfa_offset 48
	str	r0, [sp, #36]
	movs	r0, #0
.Ltmp168:
	.loc	2 891 20 prologue_end           @ board/CubeMX_Config/Core/Src/stm32h7xx_hal_msp.c:891:20
	str	r0, [sp, #32]
	str	r0, [sp, #28]
	str	r0, [sp, #24]
	str	r0, [sp, #20]
	str	r0, [sp, #16]
.Ltmp169:
	.loc	2 892 6                         @ board/CubeMX_Config/Core/Src/stm32h7xx_hal_msp.c:892:6
	ldr	r0, [sp, #36]
	.loc	2 892 12 is_stmt 0              @ board/CubeMX_Config/Core/Src/stm32h7xx_hal_msp.c:892:12
	ldr	r0, [r0]
	movs	r1, #0
	movt	r1, #16392
.Ltmp170:
	.loc	2 892 6                         @ board/CubeMX_Config/Core/Src/stm32h7xx_hal_msp.c:892:6
	cmp	r0, r1
	bne	.LBB16_6
	b	.LBB16_1
.LBB16_1:
.Ltmp171:
	.loc	2 898 5 is_stmt 1               @ board/CubeMX_Config/Core/Src/stm32h7xx_hal_msp.c:898:5
	b	.LBB16_2
.LBB16_2:
	.loc	2 0 5 is_stmt 0                 @ board/CubeMX_Config/Core/Src/stm32h7xx_hal_msp.c:0:5
	movw	r0, #17632
	movt	r0, #22530
.Ltmp172:
	.loc	2 898 5                         @ board/CubeMX_Config/Core/Src/stm32h7xx_hal_msp.c:898:5
	ldr	r1, [r0]
	orr	r1, r1, #1
	str	r1, [r0]
	ldr	r0, [r0]
	and	r0, r0, #1
	str	r0, [sp, #12]
	ldr	r0, [sp, #12]
	b	.LBB16_3
.Ltmp173:
.LBB16_3:
	.loc	2 0 5                           @ board/CubeMX_Config/Core/Src/stm32h7xx_hal_msp.c:0:5
	mov.w	r0, #6144
	.loc	2 903 25 is_stmt 1              @ board/CubeMX_Config/Core/Src/stm32h7xx_hal_msp.c:903:25
	str	r0, [sp, #16]
	movs	r0, #2
	.loc	2 904 26                        @ board/CubeMX_Config/Core/Src/stm32h7xx_hal_msp.c:904:26
	str	r0, [sp, #20]
	movs	r0, #0
	.loc	2 905 26                        @ board/CubeMX_Config/Core/Src/stm32h7xx_hal_msp.c:905:26
	str	r0, [sp, #24]
	movs	r0, #3
	.loc	2 906 27                        @ board/CubeMX_Config/Core/Src/stm32h7xx_hal_msp.c:906:27
	str	r0, [sp, #28]
	movs	r0, #10
	.loc	2 907 31                        @ board/CubeMX_Config/Core/Src/stm32h7xx_hal_msp.c:907:31
	str	r0, [sp, #32]
	movs	r0, #0
	movt	r0, #22530
	add	r1, sp, #16
	.loc	2 908 5                         @ board/CubeMX_Config/Core/Src/stm32h7xx_hal_msp.c:908:5
	bl	HAL_GPIO_Init
	.loc	2 911 5                         @ board/CubeMX_Config/Core/Src/stm32h7xx_hal_msp.c:911:5
	b	.LBB16_4
.LBB16_4:
	.loc	2 0 5 is_stmt 0                 @ board/CubeMX_Config/Core/Src/stm32h7xx_hal_msp.c:0:5
	movw	r0, #17624
	movt	r0, #22530
.Ltmp174:
	.loc	2 911 5                         @ board/CubeMX_Config/Core/Src/stm32h7xx_hal_msp.c:911:5
	ldr	r1, [r0]
	orr	r1, r1, #134217728
	str	r1, [r0]
	ldr	r0, [r0]
	and	r0, r0, #134217728
	str	r0, [sp, #8]
	ldr	r0, [sp, #8]
	b	.LBB16_5
.Ltmp175:
.LBB16_5:
	.loc	2 0 5                           @ board/CubeMX_Config/Core/Src/stm32h7xx_hal_msp.c:0:5
	movs	r0, #101
	str	r0, [sp, #4]                    @ 4-byte Spill
	movs	r2, #0
	.loc	2 913 5 is_stmt 1               @ board/CubeMX_Config/Core/Src/stm32h7xx_hal_msp.c:913:5
	mov	r1, r2
	bl	HAL_NVIC_SetPriority
	ldr	r0, [sp, #4]                    @ 4-byte Reload
	.loc	2 914 5                         @ board/CubeMX_Config/Core/Src/stm32h7xx_hal_msp.c:914:5
	bl	HAL_NVIC_EnableIRQ
	.loc	2 918 3                         @ board/CubeMX_Config/Core/Src/stm32h7xx_hal_msp.c:918:3
	b	.LBB16_6
.Ltmp176:
.LBB16_6:
	.loc	2 920 1                         @ board/CubeMX_Config/Core/Src/stm32h7xx_hal_msp.c:920:1
	add	sp, #40
	pop	{r7, pc}
.Ltmp177:
.Lfunc_end16:
	.size	HAL_PCD_MspInit, .Lfunc_end16-HAL_PCD_MspInit
	.cfi_endproc
	.cantunwind
	.fnend
                                        @ -- End function
	.section	.text.HAL_PCD_MspDeInit,"ax",%progbits
	.hidden	HAL_PCD_MspDeInit               @ -- Begin function HAL_PCD_MspDeInit
	.globl	HAL_PCD_MspDeInit
	.p2align	3
	.type	HAL_PCD_MspDeInit,%function
	.code	16                              @ @HAL_PCD_MspDeInit
	.thumb_func
HAL_PCD_MspDeInit:
.Lfunc_begin17:
	.loc	2 929 0                         @ board/CubeMX_Config/Core/Src/stm32h7xx_hal_msp.c:929:0
	.fnstart
	.cfi_startproc
@ %bb.0:
	.save	{r7, lr}
	push	{r7, lr}
	.cfi_def_cfa_offset 8
	.cfi_offset lr, -4
	.cfi_offset r7, -8
	.pad	#8
	sub	sp, #8
	.cfi_def_cfa_offset 16
	str	r0, [sp, #4]
.Ltmp178:
	.loc	2 930 6 prologue_end            @ board/CubeMX_Config/Core/Src/stm32h7xx_hal_msp.c:930:6
	ldr	r0, [sp, #4]
	.loc	2 930 12 is_stmt 0              @ board/CubeMX_Config/Core/Src/stm32h7xx_hal_msp.c:930:12
	ldr	r0, [r0]
	movs	r1, #0
	movt	r1, #16392
.Ltmp179:
	.loc	2 930 6                         @ board/CubeMX_Config/Core/Src/stm32h7xx_hal_msp.c:930:6
	cmp	r0, r1
	bne	.LBB17_2
	b	.LBB17_1
.LBB17_1:
	.loc	2 0 6                           @ board/CubeMX_Config/Core/Src/stm32h7xx_hal_msp.c:0:6
	movw	r1, #17624
	movt	r1, #22530
.Ltmp180:
	.loc	2 936 5 is_stmt 1               @ board/CubeMX_Config/Core/Src/stm32h7xx_hal_msp.c:936:5
	ldr	r0, [r1]
	bic	r0, r0, #134217728
	str	r0, [r1]
	movs	r0, #0
	movt	r0, #22530
	mov.w	r1, #6144
	.loc	2 942 5                         @ board/CubeMX_Config/Core/Src/stm32h7xx_hal_msp.c:942:5
	bl	HAL_GPIO_DeInit
	movs	r0, #101
	.loc	2 945 5                         @ board/CubeMX_Config/Core/Src/stm32h7xx_hal_msp.c:945:5
	bl	HAL_NVIC_DisableIRQ
	.loc	2 949 3                         @ board/CubeMX_Config/Core/Src/stm32h7xx_hal_msp.c:949:3
	b	.LBB17_2
.Ltmp181:
.LBB17_2:
	.loc	2 951 1                         @ board/CubeMX_Config/Core/Src/stm32h7xx_hal_msp.c:951:1
	add	sp, #8
	pop	{r7, pc}
.Ltmp182:
.Lfunc_end17:
	.size	HAL_PCD_MspDeInit, .Lfunc_end17-HAL_PCD_MspDeInit
	.cfi_endproc
	.cantunwind
	.fnend
                                        @ -- End function
	.section	.text.HAL_SDRAM_MspInit,"ax",%progbits
	.hidden	HAL_SDRAM_MspInit               @ -- Begin function HAL_SDRAM_MspInit
	.globl	HAL_SDRAM_MspInit
	.p2align	3
	.type	HAL_SDRAM_MspInit,%function
	.code	16                              @ @HAL_SDRAM_MspInit
	.thumb_func
HAL_SDRAM_MspInit:
.Lfunc_begin18:
	.loc	2 1062 0                        @ board/CubeMX_Config/Core/Src/stm32h7xx_hal_msp.c:1062:0
	.fnstart
	.cfi_startproc
@ %bb.0:
	.save	{r7, lr}
	push	{r7, lr}
	.cfi_def_cfa_offset 8
	.cfi_offset lr, -4
	.cfi_offset r7, -8
	.pad	#8
	sub	sp, #8
	.cfi_def_cfa_offset 16
	str	r0, [sp, #4]
.Ltmp183:
	.loc	2 1066 3 prologue_end           @ board/CubeMX_Config/Core/Src/stm32h7xx_hal_msp.c:1066:3
	bl	HAL_FMC_MspInit
	.loc	2 1070 1                        @ board/CubeMX_Config/Core/Src/stm32h7xx_hal_msp.c:1070:1
	add	sp, #8
	pop	{r7, pc}
.Ltmp184:
.Lfunc_end18:
	.size	HAL_SDRAM_MspInit, .Lfunc_end18-HAL_SDRAM_MspInit
	.cfi_endproc
	.cantunwind
	.fnend
                                        @ -- End function
	.section	.text.HAL_FMC_MspInit,"ax",%progbits
	.p2align	3                               @ -- Begin function HAL_FMC_MspInit
	.type	HAL_FMC_MspInit,%function
	.code	16                              @ @HAL_FMC_MspInit
	.thumb_func
HAL_FMC_MspInit:
.Lfunc_begin19:
	.loc	2 955 0                         @ board/CubeMX_Config/Core/Src/stm32h7xx_hal_msp.c:955:0
	.fnstart
	.cfi_startproc
@ %bb.0:
	.save	{r7, lr}
	push	{r7, lr}
	.cfi_def_cfa_offset 8
	.cfi_offset lr, -4
	.cfi_offset r7, -8
	.pad	#48
	sub	sp, #48
	.cfi_def_cfa_offset 56
	movs	r0, #0
.Ltmp185:
	.loc	2 959 20 prologue_end           @ board/CubeMX_Config/Core/Src/stm32h7xx_hal_msp.c:959:20
	str	r0, [sp, #44]
	str	r0, [sp, #40]
	str	r0, [sp, #36]
	str	r0, [sp, #32]
	str	r0, [sp, #28]
.Ltmp186:
	.loc	2 960 7                         @ board/CubeMX_Config/Core/Src/stm32h7xx_hal_msp.c:960:7
	movw	r0, :lower16:FMC_Initialized
	movt	r0, :upper16:FMC_Initialized
	ldr	r0, [r0]
.Ltmp187:
	.loc	2 960 7 is_stmt 0               @ board/CubeMX_Config/Core/Src/stm32h7xx_hal_msp.c:960:7
	cbz	r0, .LBB19_2
	b	.LBB19_1
.LBB19_1:
.Ltmp188:
	.loc	2 961 5 is_stmt 1               @ board/CubeMX_Config/Core/Src/stm32h7xx_hal_msp.c:961:5
	b	.LBB19_5
.Ltmp189:
.LBB19_2:
	.loc	2 963 19                        @ board/CubeMX_Config/Core/Src/stm32h7xx_hal_msp.c:963:19
	movw	r1, :lower16:FMC_Initialized
	movt	r1, :upper16:FMC_Initialized
	movs	r0, #1
	str	r0, [r1]
	.loc	2 966 3                         @ board/CubeMX_Config/Core/Src/stm32h7xx_hal_msp.c:966:3
	b	.LBB19_3
.LBB19_3:
	.loc	2 0 3 is_stmt 0                 @ board/CubeMX_Config/Core/Src/stm32h7xx_hal_msp.c:0:3
	movw	r0, #17620
	movt	r0, #22530
.Ltmp190:
	.loc	2 966 3                         @ board/CubeMX_Config/Core/Src/stm32h7xx_hal_msp.c:966:3
	ldr	r1, [r0]
	orr	r1, r1, #4096
	str	r1, [r0]
	ldr	r0, [r0]
	and	r0, r0, #4096
	str	r0, [sp, #24]
	ldr	r0, [sp, #24]
	b	.LBB19_4
.Ltmp191:
.LBB19_4:
	.loc	2 0 3                           @ board/CubeMX_Config/Core/Src/stm32h7xx_hal_msp.c:0:3
	movw	r0, #65411
	.loc	2 1009 23 is_stmt 1             @ board/CubeMX_Config/Core/Src/stm32h7xx_hal_msp.c:1009:23
	str	r0, [sp, #28]
	movs	r0, #2
	.loc	2 1012 24                       @ board/CubeMX_Config/Core/Src/stm32h7xx_hal_msp.c:1012:24
	str	r0, [sp, #4]                    @ 4-byte Spill
	str	r0, [sp, #32]
	movs	r0, #0
	.loc	2 1013 24                       @ board/CubeMX_Config/Core/Src/stm32h7xx_hal_msp.c:1013:24
	str	r0, [sp, #8]                    @ 4-byte Spill
	str	r0, [sp, #36]
	movs	r0, #3
	.loc	2 1014 25                       @ board/CubeMX_Config/Core/Src/stm32h7xx_hal_msp.c:1014:25
	str	r0, [sp, #12]                   @ 4-byte Spill
	str	r0, [sp, #40]
	movs	r0, #12
	.loc	2 1015 29                       @ board/CubeMX_Config/Core/Src/stm32h7xx_hal_msp.c:1015:29
	str	r0, [sp, #16]                   @ 4-byte Spill
	str	r0, [sp, #44]
	movw	r0, #4096
	movt	r0, #22530
	add	r1, sp, #28
	.loc	2 1016 3                        @ board/CubeMX_Config/Core/Src/stm32h7xx_hal_msp.c:1016:3
	str	r1, [sp, #20]                   @ 4-byte Spill
	bl	HAL_GPIO_Init
	ldr.w	r12, [sp, #4]                   @ 4-byte Reload
	ldr	r3, [sp, #8]                    @ 4-byte Reload
	ldr	r2, [sp, #12]                   @ 4-byte Reload
	ldr	r0, [sp, #16]                   @ 4-byte Reload
	ldr	r1, [sp, #20]                   @ 4-byte Reload
	movw	lr, #33079
	.loc	2 1018 23                       @ board/CubeMX_Config/Core/Src/stm32h7xx_hal_msp.c:1018:23
	str.w	lr, [sp, #28]
	.loc	2 1020 24                       @ board/CubeMX_Config/Core/Src/stm32h7xx_hal_msp.c:1020:24
	str.w	r12, [sp, #32]
	.loc	2 1021 24                       @ board/CubeMX_Config/Core/Src/stm32h7xx_hal_msp.c:1021:24
	str	r3, [sp, #36]
	.loc	2 1022 25                       @ board/CubeMX_Config/Core/Src/stm32h7xx_hal_msp.c:1022:25
	str	r2, [sp, #40]
	.loc	2 1023 29                       @ board/CubeMX_Config/Core/Src/stm32h7xx_hal_msp.c:1023:29
	str	r0, [sp, #44]
	movw	r0, #6144
	movt	r0, #22530
	.loc	2 1024 3                        @ board/CubeMX_Config/Core/Src/stm32h7xx_hal_msp.c:1024:3
	bl	HAL_GPIO_Init
	ldr.w	r12, [sp, #4]                   @ 4-byte Reload
	ldr	r3, [sp, #8]                    @ 4-byte Reload
	ldr	r2, [sp, #12]                   @ 4-byte Reload
	ldr	r0, [sp, #16]                   @ 4-byte Reload
	ldr	r1, [sp, #20]                   @ 4-byte Reload
	movw	lr, #50947
	.loc	2 1026 23                       @ board/CubeMX_Config/Core/Src/stm32h7xx_hal_msp.c:1026:23
	str.w	lr, [sp, #28]
	.loc	2 1028 24                       @ board/CubeMX_Config/Core/Src/stm32h7xx_hal_msp.c:1028:24
	str.w	r12, [sp, #32]
	.loc	2 1029 24                       @ board/CubeMX_Config/Core/Src/stm32h7xx_hal_msp.c:1029:24
	str	r3, [sp, #36]
	.loc	2 1030 25                       @ board/CubeMX_Config/Core/Src/stm32h7xx_hal_msp.c:1030:25
	str	r2, [sp, #40]
	.loc	2 1031 29                       @ board/CubeMX_Config/Core/Src/stm32h7xx_hal_msp.c:1031:29
	str	r0, [sp, #44]
	movw	r0, #3072
	movt	r0, #22530
	.loc	2 1032 3                        @ board/CubeMX_Config/Core/Src/stm32h7xx_hal_msp.c:1032:3
	bl	HAL_GPIO_Init
	ldr.w	r12, [sp, #4]                   @ 4-byte Reload
	ldr	r3, [sp, #8]                    @ 4-byte Reload
	ldr	r2, [sp, #12]                   @ 4-byte Reload
	ldr	r0, [sp, #16]                   @ 4-byte Reload
	ldr	r1, [sp, #20]                   @ 4-byte Reload
	movw	lr, #63551
	.loc	2 1034 23                       @ board/CubeMX_Config/Core/Src/stm32h7xx_hal_msp.c:1034:23
	str.w	lr, [sp, #28]
	.loc	2 1037 24                       @ board/CubeMX_Config/Core/Src/stm32h7xx_hal_msp.c:1037:24
	str.w	r12, [sp, #32]
	.loc	2 1038 24                       @ board/CubeMX_Config/Core/Src/stm32h7xx_hal_msp.c:1038:24
	str	r3, [sp, #36]
	.loc	2 1039 25                       @ board/CubeMX_Config/Core/Src/stm32h7xx_hal_msp.c:1039:25
	str	r2, [sp, #40]
	.loc	2 1040 29                       @ board/CubeMX_Config/Core/Src/stm32h7xx_hal_msp.c:1040:29
	str	r0, [sp, #44]
	movw	r0, #5120
	movt	r0, #22530
	.loc	2 1041 3                        @ board/CubeMX_Config/Core/Src/stm32h7xx_hal_msp.c:1041:3
	bl	HAL_GPIO_Init
	ldr.w	r12, [sp, #4]                   @ 4-byte Reload
	ldr	r3, [sp, #8]                    @ 4-byte Reload
	ldr	r2, [sp, #12]                   @ 4-byte Reload
	ldr	r0, [sp, #16]                   @ 4-byte Reload
	ldr	r1, [sp, #20]                   @ 4-byte Reload
	.loc	2 1043 23                       @ board/CubeMX_Config/Core/Src/stm32h7xx_hal_msp.c:1043:23
	str	r0, [sp, #28]
	.loc	2 1044 24                       @ board/CubeMX_Config/Core/Src/stm32h7xx_hal_msp.c:1044:24
	str.w	r12, [sp, #32]
	.loc	2 1045 24                       @ board/CubeMX_Config/Core/Src/stm32h7xx_hal_msp.c:1045:24
	str	r3, [sp, #36]
	.loc	2 1046 25                       @ board/CubeMX_Config/Core/Src/stm32h7xx_hal_msp.c:1046:25
	str	r2, [sp, #40]
	.loc	2 1047 29                       @ board/CubeMX_Config/Core/Src/stm32h7xx_hal_msp.c:1047:29
	str	r0, [sp, #44]
	movw	r0, #2048
	movt	r0, #22530
	.loc	2 1048 3                        @ board/CubeMX_Config/Core/Src/stm32h7xx_hal_msp.c:1048:3
	bl	HAL_GPIO_Init
	ldr.w	r12, [sp, #4]                   @ 4-byte Reload
	ldr	r3, [sp, #8]                    @ 4-byte Reload
	ldr	r2, [sp, #12]                   @ 4-byte Reload
	ldr	r0, [sp, #16]                   @ 4-byte Reload
	ldr	r1, [sp, #20]                   @ 4-byte Reload
	mov.w	lr, #32
	.loc	2 1050 23                       @ board/CubeMX_Config/Core/Src/stm32h7xx_hal_msp.c:1050:23
	str.w	lr, [sp, #28]
	.loc	2 1051 24                       @ board/CubeMX_Config/Core/Src/stm32h7xx_hal_msp.c:1051:24
	str.w	r12, [sp, #32]
	.loc	2 1052 24                       @ board/CubeMX_Config/Core/Src/stm32h7xx_hal_msp.c:1052:24
	str	r3, [sp, #36]
	.loc	2 1053 25                       @ board/CubeMX_Config/Core/Src/stm32h7xx_hal_msp.c:1053:25
	str	r2, [sp, #40]
	.loc	2 1054 29                       @ board/CubeMX_Config/Core/Src/stm32h7xx_hal_msp.c:1054:29
	str	r0, [sp, #44]
	movw	r0, #7168
	movt	r0, #22530
	.loc	2 1055 3                        @ board/CubeMX_Config/Core/Src/stm32h7xx_hal_msp.c:1055:3
	bl	HAL_GPIO_Init
	.loc	2 1060 1                        @ board/CubeMX_Config/Core/Src/stm32h7xx_hal_msp.c:1060:1
	b	.LBB19_5
.LBB19_5:
	add	sp, #48
	pop	{r7, pc}
.Ltmp192:
.Lfunc_end19:
	.size	HAL_FMC_MspInit, .Lfunc_end19-HAL_FMC_MspInit
	.cfi_endproc
	.cantunwind
	.fnend
                                        @ -- End function
	.section	.text.HAL_SDRAM_MspDeInit,"ax",%progbits
	.hidden	HAL_SDRAM_MspDeInit             @ -- Begin function HAL_SDRAM_MspDeInit
	.globl	HAL_SDRAM_MspDeInit
	.p2align	3
	.type	HAL_SDRAM_MspDeInit,%function
	.code	16                              @ @HAL_SDRAM_MspDeInit
	.thumb_func
HAL_SDRAM_MspDeInit:
.Lfunc_begin20:
	.loc	2 1149 0                        @ board/CubeMX_Config/Core/Src/stm32h7xx_hal_msp.c:1149:0
	.fnstart
	.cfi_startproc
@ %bb.0:
	.save	{r7, lr}
	push	{r7, lr}
	.cfi_def_cfa_offset 8
	.cfi_offset lr, -4
	.cfi_offset r7, -8
	.pad	#8
	sub	sp, #8
	.cfi_def_cfa_offset 16
	str	r0, [sp, #4]
.Ltmp193:
	.loc	2 1153 3 prologue_end           @ board/CubeMX_Config/Core/Src/stm32h7xx_hal_msp.c:1153:3
	bl	HAL_FMC_MspDeInit
	.loc	2 1157 1                        @ board/CubeMX_Config/Core/Src/stm32h7xx_hal_msp.c:1157:1
	add	sp, #8
	pop	{r7, pc}
.Ltmp194:
.Lfunc_end20:
	.size	HAL_SDRAM_MspDeInit, .Lfunc_end20-HAL_SDRAM_MspDeInit
	.cfi_endproc
	.cantunwind
	.fnend
                                        @ -- End function
	.section	.text.HAL_FMC_MspDeInit,"ax",%progbits
	.p2align	3                               @ -- Begin function HAL_FMC_MspDeInit
	.type	HAL_FMC_MspDeInit,%function
	.code	16                              @ @HAL_FMC_MspDeInit
	.thumb_func
HAL_FMC_MspDeInit:
.Lfunc_begin21:
	.loc	2 1074 0                        @ board/CubeMX_Config/Core/Src/stm32h7xx_hal_msp.c:1074:0
	.fnstart
	.cfi_startproc
@ %bb.0:
	.save	{r7, lr}
	push	{r7, lr}
	.cfi_def_cfa_offset 8
	.cfi_offset lr, -4
	.cfi_offset r7, -8
.Ltmp195:
	.loc	2 1078 7 prologue_end           @ board/CubeMX_Config/Core/Src/stm32h7xx_hal_msp.c:1078:7
	movw	r0, :lower16:FMC_DeInitialized
	movt	r0, :upper16:FMC_DeInitialized
	ldr	r0, [r0]
.Ltmp196:
	.loc	2 1078 7 is_stmt 0              @ board/CubeMX_Config/Core/Src/stm32h7xx_hal_msp.c:1078:7
	cbz	r0, .LBB21_2
	b	.LBB21_1
.LBB21_1:
.Ltmp197:
	.loc	2 1079 5 is_stmt 1              @ board/CubeMX_Config/Core/Src/stm32h7xx_hal_msp.c:1079:5
	b	.LBB21_3
.Ltmp198:
.LBB21_2:
	.loc	2 1081 21                       @ board/CubeMX_Config/Core/Src/stm32h7xx_hal_msp.c:1081:21
	movw	r1, :lower16:FMC_DeInitialized
	movt	r1, :upper16:FMC_DeInitialized
	movs	r0, #1
	str	r0, [r1]
	movw	r1, #17620
	movt	r1, #22530
	.loc	2 1083 3                        @ board/CubeMX_Config/Core/Src/stm32h7xx_hal_msp.c:1083:3
	ldr	r0, [r1]
	bic	r0, r0, #4096
	str	r0, [r1]
	movw	r0, #4096
	movt	r0, #22530
	movw	r1, #65411
	.loc	2 1126 3                        @ board/CubeMX_Config/Core/Src/stm32h7xx_hal_msp.c:1126:3
	bl	HAL_GPIO_DeInit
	movw	r0, #6144
	movt	r0, #22530
	movw	r1, #33079
	.loc	2 1130 3                        @ board/CubeMX_Config/Core/Src/stm32h7xx_hal_msp.c:1130:3
	bl	HAL_GPIO_DeInit
	movw	r0, #3072
	movt	r0, #22530
	movw	r1, #50947
	.loc	2 1133 3                        @ board/CubeMX_Config/Core/Src/stm32h7xx_hal_msp.c:1133:3
	bl	HAL_GPIO_DeInit
	movw	r0, #5120
	movt	r0, #22530
	movw	r1, #63551
	.loc	2 1136 3                        @ board/CubeMX_Config/Core/Src/stm32h7xx_hal_msp.c:1136:3
	bl	HAL_GPIO_DeInit
	movw	r0, #2048
	movt	r0, #22530
	movs	r1, #12
	.loc	2 1140 3                        @ board/CubeMX_Config/Core/Src/stm32h7xx_hal_msp.c:1140:3
	bl	HAL_GPIO_DeInit
	movw	r0, #7168
	movt	r0, #22530
	movs	r1, #32
	.loc	2 1142 3                        @ board/CubeMX_Config/Core/Src/stm32h7xx_hal_msp.c:1142:3
	bl	HAL_GPIO_DeInit
	.loc	2 1147 1                        @ board/CubeMX_Config/Core/Src/stm32h7xx_hal_msp.c:1147:1
	b	.LBB21_3
.LBB21_3:
	pop	{r7, pc}
.Ltmp199:
.Lfunc_end21:
	.size	HAL_FMC_MspDeInit, .Lfunc_end21-HAL_FMC_MspDeInit
	.cfi_endproc
	.cantunwind
	.fnend
                                        @ -- End function
	.type	FMC_Initialized,%object         @ @FMC_Initialized
	.section	.bss.FMC_Initialized,"aw",%nobits
	.p2align	2
FMC_Initialized:
	.long	0                               @ 0x0
	.size	FMC_Initialized, 4

	.type	FMC_DeInitialized,%object       @ @FMC_DeInitialized
	.section	.bss.FMC_DeInitialized,"aw",%nobits
	.p2align	2
FMC_DeInitialized:
	.long	0                               @ 0x0
	.size	FMC_DeInitialized, 4

	.file	15 "E:\\Smart-access-control\\Hardware\\CODE" "libraries/STM32H7xx_HAL/STM32H7xx_HAL_Driver/Inc\\stm32h7xx_hal_adc.h"
	.file	16 "E:\\Smart-access-control\\Hardware\\CODE" "libraries/STM32H7xx_HAL/STM32H7xx_HAL_Driver/Inc\\stm32h7xx_hal_gpio.h"
	.file	17 "E:\\Smart-access-control\\Hardware\\CODE" "libraries/STM32H7xx_HAL/STM32H7xx_HAL_Driver/Inc/stm32h7xx_ll_sdmmc.h"
	.file	18 "E:\\Smart-access-control\\Hardware\\CODE" "libraries/STM32H7xx_HAL/STM32H7xx_HAL_Driver/Inc\\stm32h7xx_hal_uart.h"
	.file	19 "E:\\Smart-access-control\\Hardware\\CODE" "libraries/STM32H7xx_HAL/STM32H7xx_HAL_Driver/Inc/stm32h7xx_ll_usb.h"
	.file	20 "E:\\Smart-access-control\\Hardware\\CODE" "libraries/STM32H7xx_HAL/STM32H7xx_HAL_Driver/Inc/stm32h7xx_ll_fmc.h"
	.section	".note.GNU-stack","",%progbits
	.eabi_attribute	30, 6	@ Tag_ABI_optimization_goals
	.ARM_attribute	16, 1	@ Tag_AV_eba