	.text
	.syntax unified
	.eabi_attribute	67, "2.09"	@ Tag_conformance
	.cpu	cortex-m7
	.eabi_attribute	6, 13	@ Tag_CPU_arch
	.eabi_attribute	7, 77	@ Tag_CPU_arch_profile
	.eabi_attribute	8, 0	@ Tag_ARM_ISA_use
	.eabi_attribute	9, 2	@ Tag_THUMB_ISA_use
	.fpu	fpv5-d16
	.eabi_attribute	36, 1	@ Tag_FP_HP_extension
	.eabi_attribute	34, 1	@ Tag_CPU_unaligned_access
	.eabi_attribute	17, 1	@ Tag_ABI_PCS_GOT_use
	.eabi_attribute	20, 2	@ Tag_ABI_FP_denormal
	.eabi_attribute	21, 0	@ Tag_ABI_FP_exceptions
	.eabi_attribute	23, 1	@ Tag_ABI_FP_number_model
	.eabi_attribute	24, 1	@ Tag_ABI_align_needed
	.eabi_attribute	25, 1	@ Tag_ABI_align_preserved
	.eabi_attribute	28, 1	@ Tag_ABI_VFP_args
	.eabi_attribute	38, 1	@ Tag_ABI_FP_16bit_format
	.eabi_attribute	18, 2	@ Tag_ABI_PCS_wchar_t
	.eabi_attribute	26, 1	@ Tag_ABI_enum_size
	.eabi_attribute	14, 0	@ Tag_ABI_PCS_R9_use
	.file	"stm32h7xx_ll_fmc.c"
	.file	1 "E:\\STM32\\Learning\\STM32H750_ART_PI_RGBLCD" "libraries/STM32H7xx_HAL/STM32H7xx_HAL_Driver/Inc/stm32h7xx_hal_def.h"
	.file	2 "E:\\STM32\\Learning\\STM32H750_ART_PI_RGBLCD" "libraries/STM32H7xx_HAL/CMSIS/Device/ST/STM32H7xx/Include\\stm32h7xx.h"
	.file	3 "D:\\Keil_v5\\ARM\\ARMCLANG\\Bin\\..\\include" "stdint.h"
	.section	.text.FMC_NORSRAM_Init,"ax",%progbits
	.hidden	FMC_NORSRAM_Init                @ -- Begin function FMC_NORSRAM_Init
	.globl	FMC_NORSRAM_Init
	.p2align	3
	.type	FMC_NORSRAM_Init,%function
	.code	16                              @ @FMC_NORSRAM_Init
	.thumb_func
FMC_NORSRAM_Init:
.Lfunc_begin0:
	.file	4 "E:\\STM32\\Learning\\STM32H750_ART_PI_RGBLCD" "libraries/STM32H7xx_HAL/STM32H7xx_HAL_Driver/Src/stm32h7xx_ll_fmc.c"
	.loc	4 188 0                         @ libraries/STM32H7xx_HAL/STM32H7xx_HAL_Driver/Src/stm32h7xx_ll_fmc.c:188:0
	.fnstart
	.cfi_sections .debug_frame
	.cfi_startproc
@ %bb.0:
	.save	{r4, lr}
	push	{r4, lr}
	.cfi_def_cfa_offset 8
	.cfi_offset lr, -4
	.cfi_offset r4, -8
	.pad	#16
	sub	sp, #16
	.cfi_def_cfa_offset 24
	str	r0, [sp, #12]
	str	r1, [sp, #8]
.Ltmp0:
	.loc	4 210 3 prologue_end            @ libraries/STM32H7xx_HAL/STM32H7xx_HAL_Driver/Src/stm32h7xx_ll_fmc.c:210:3
	ldr	r1, [sp, #12]
	ldr	r0, [sp, #8]
	ldr	r2, [r0]
	ldr.w	r0, [r1, r2, lsl #2]
	bic	r0, r0, #1
	str.w	r0, [r1, r2, lsl #2]
.Ltmp1:
	.loc	4 213 7                         @ libraries/STM32H7xx_HAL/STM32H7xx_HAL_Driver/Src/stm32h7xx_ll_fmc.c:213:7
	ldr	r0, [sp, #8]
	.loc	4 213 13 is_stmt 0              @ libraries/STM32H7xx_HAL/STM32H7xx_HAL_Driver/Src/stm32h7xx_ll_fmc.c:213:13
	ldr	r0, [r0, #8]
.Ltmp2:
	.loc	4 213 7                         @ libraries/STM32H7xx_HAL/STM32H7xx_HAL_Driver/Src/stm32h7xx_ll_fmc.c:213:7
	cmp	r0, #8
	bne	.LBB0_2
	b	.LBB0_1
.LBB0_1:
	.loc	4 0 7                           @ libraries/STM32H7xx_HAL/STM32H7xx_HAL_Driver/Src/stm32h7xx_ll_fmc.c:0:7
	movs	r0, #64
.Ltmp3:
	.loc	4 215 17 is_stmt 1              @ libraries/STM32H7xx_HAL/STM32H7xx_HAL_Driver/Src/stm32h7xx_ll_fmc.c:215:17
	str	r0, [sp, #4]
	.loc	4 216 3                         @ libraries/STM32H7xx_HAL/STM32H7xx_HAL_Driver/Src/stm32h7xx_ll_fmc.c:216:3
	b	.LBB0_3
.Ltmp4:
.LBB0_2:
	.loc	4 0 3 is_stmt 0                 @ libraries/STM32H7xx_HAL/STM32H7xx_HAL_Driver/Src/stm32h7xx_ll_fmc.c:0:3
	movs	r0, #0
.Ltmp5:
	.loc	4 219 17 is_stmt 1              @ libraries/STM32H7xx_HAL/STM32H7xx_HAL_Driver/Src/stm32h7xx_ll_fmc.c:219:17
	str	r0, [sp, #4]
	b	.LBB0_3
.Ltmp6:
.LBB0_3:
	.loc	4 222 3                         @ libraries/STM32H7xx_HAL/STM32H7xx_HAL_Driver/Src/stm32h7xx_ll_fmc.c:222:3
	ldr	r0, [sp, #12]
	ldr	r1, [sp, #8]
	ldr	r1, [r1]
	ldr.w	r0, [r0, r1, lsl #2]
	movw	r1, #1152
	movt	r1, #65472
	ands	r0, r1
	ldr	r1, [sp, #4]
	ldr	r3, [sp, #8]
	str	r3, [sp]                        @ 4-byte Spill
	ldr	r2, [r3]
	ldr	r4, [r3, #4]
	ldr.w	lr, [r3, #8]
	ldr.w	r12, [r3, #12]
	orrs	r1, r4
	orr.w	r1, r1, lr
	orr.w	r1, r1, r12
	ldr.w	r12, [r3, #16]
	orr.w	r1, r1, r12
	ldr.w	r12, [r3, #20]
	orr.w	r1, r1, r12
	ldr.w	r12, [r3, #24]
	orr.w	r1, r1, r12
	ldr.w	r12, [r3, #28]
	orr.w	r1, r1, r12
	ldr.w	r12, [r3, #32]
	orr.w	r1, r1, r12
	ldr.w	r12, [r3, #36]
	orr.w	r1, r1, r12
	ldr.w	r12, [r3, #40]
	orr.w	r1, r1, r12
	ldr.w	r12, [r3, #44]
	orr.w	r1, r1, r12
	ldr.w	r12, [r3, #48]
	orr.w	r1, r1, r12
	ldr.w	r12, [r3, #52]
	orr.w	r1, r1, r12
	ldr	r3, [r3, #56]
	orrs	r1, r3
	orrs	r0, r1
	ldr	r1, [sp, #12]
	str.w	r0, [r1, r2, lsl #2]
.Ltmp7:
	.loc	4 256 8                         @ libraries/STM32H7xx_HAL/STM32H7xx_HAL_Driver/Src/stm32h7xx_ll_fmc.c:256:8
	ldr	r0, [sp, #8]
	.loc	4 256 14 is_stmt 0              @ libraries/STM32H7xx_HAL/STM32H7xx_HAL_Driver/Src/stm32h7xx_ll_fmc.c:256:14
	ldr	r0, [r0, #48]
	.loc	4 256 66                        @ libraries/STM32H7xx_HAL/STM32H7xx_HAL_Driver/Src/stm32h7xx_ll_fmc.c:256:66
	cmp.w	r0, #1048576
	bne	.LBB0_6
	b	.LBB0_4
.LBB0_4:
	.loc	4 256 70                        @ libraries/STM32H7xx_HAL/STM32H7xx_HAL_Driver/Src/stm32h7xx_ll_fmc.c:256:70
	ldr	r0, [sp, #8]
	.loc	4 256 76                        @ libraries/STM32H7xx_HAL/STM32H7xx_HAL_Driver/Src/stm32h7xx_ll_fmc.c:256:76
	ldr	r0, [r0]
.Ltmp8:
	.loc	4 256 7                         @ libraries/STM32H7xx_HAL/STM32H7xx_HAL_Driver/Src/stm32h7xx_ll_fmc.c:256:7
	cbz	r0, .LBB0_6
	b	.LBB0_5
.LBB0_5:
.Ltmp9:
	.loc	4 258 5 is_stmt 1               @ libraries/STM32H7xx_HAL/STM32H7xx_HAL_Driver/Src/stm32h7xx_ll_fmc.c:258:5
	ldr	r0, [sp, #12]
	ldr	r0, [r0]
	bic	r0, r0, #1048576
	ldr	r1, [sp, #8]
	ldr	r1, [r1, #48]
	orrs	r0, r1
	ldr	r1, [sp, #12]
	str	r0, [r1]
	.loc	4 259 3                         @ libraries/STM32H7xx_HAL/STM32H7xx_HAL_Driver/Src/stm32h7xx_ll_fmc.c:259:3
	b	.LBB0_6
.Ltmp10:
.LBB0_6:
	.loc	4 261 7                         @ libraries/STM32H7xx_HAL/STM32H7xx_HAL_Driver/Src/stm32h7xx_ll_fmc.c:261:7
	ldr	r0, [sp, #8]
	.loc	4 261 13 is_stmt 0              @ libraries/STM32H7xx_HAL/STM32H7xx_HAL_Driver/Src/stm32h7xx_ll_fmc.c:261:13
	ldr	r0, [r0]
.Ltmp11:
	.loc	4 261 7                         @ libraries/STM32H7xx_HAL/STM32H7xx_HAL_Driver/Src/stm32h7xx_ll_fmc.c:261:7
	cbz	r0, .LBB0_8
	b	.LBB0_7
.LBB0_7:
.Ltmp12:
	.loc	4 264 5 is_stmt 1               @ libraries/STM32H7xx_HAL/STM32H7xx_HAL_Driver/Src/stm32h7xx_ll_fmc.c:264:5
	ldr	r0, [sp, #8]
	ldr	r2, [r0, #52]
	ldr	r1, [sp, #12]
	ldr	r0, [r1]
	orrs	r0, r2
	str	r0, [r1]
	.loc	4 265 3                         @ libraries/STM32H7xx_HAL/STM32H7xx_HAL_Driver/Src/stm32h7xx_ll_fmc.c:265:3
	b	.LBB0_8
.Ltmp13:
.LBB0_8:
	.loc	4 0 3 is_stmt 0                 @ libraries/STM32H7xx_HAL/STM32H7xx_HAL_Driver/Src/stm32h7xx_ll_fmc.c:0:3
	movs	r0, #0
	.loc	4 267 3 is_stmt 1               @ libraries/STM32H7xx_HAL/STM32H7xx_HAL_Driver/Src/stm32h7xx_ll_fmc.c:267:3
	add	sp, #16
	pop	{r4, pc}
.Ltmp14:
.Lfunc_end0:
	.size	FMC_NORSRAM_Init, .Lfunc_end0-FMC_NORSRAM_Init
	.cfi_endproc
	.cantunwind
	.fnend
                                        @ -- End function
	.section	.text.FMC_NORSRAM_DeInit,"ax",%progbits
	.hidden	FMC_NORSRAM_DeInit              @ -- Begin function FMC_NORSRAM_DeInit
	.globl	FMC_NORSRAM_DeInit
	.p2align	3
	.type	FMC_NORSRAM_DeInit,%function
	.code	16                              @ @FMC_NORSRAM_DeInit
	.thumb_func
FMC_NORSRAM_DeInit:
.Lfunc_begin1:
	.loc	4 279 0                         @ libraries/STM32H7xx_HAL/STM32H7xx_HAL_Driver/Src/stm32h7xx_ll_fmc.c:279:0
	.fnstart
	.cfi_startproc
@ %bb.0:
	.pad	#12
	sub	sp, #12
	.cfi_def_cfa_offset 12
	str	r0, [sp, #8]
	str	r1, [sp, #4]
	str	r2, [sp]
.Ltmp15:
	.loc	4 286 3 prologue_end            @ libraries/STM32H7xx_HAL/STM32H7xx_HAL_Driver/Src/stm32h7xx_ll_fmc.c:286:3
	ldr	r1, [sp, #8]
	ldr	r2, [sp]
	ldr.w	r0, [r1, r2, lsl #2]
	bic	r0, r0, #1
	str.w	r0, [r1, r2, lsl #2]
.Ltmp16:
	.loc	4 290 7                         @ libraries/STM32H7xx_HAL/STM32H7xx_HAL_Driver/Src/stm32h7xx_ll_fmc.c:290:7
	ldr	r0, [sp]
.Ltmp17:
	.loc	4 290 7 is_stmt 0               @ libraries/STM32H7xx_HAL/STM32H7xx_HAL_Driver/Src/stm32h7xx_ll_fmc.c:290:7
	cbnz	r0, .LBB1_2
	b	.LBB1_1
.LBB1_1:
.Ltmp18:
	.loc	4 292 5 is_stmt 1               @ libraries/STM32H7xx_HAL/STM32H7xx_HAL_Driver/Src/stm32h7xx_ll_fmc.c:292:5
	ldr	r1, [sp, #8]
	.loc	4 292 18 is_stmt 0              @ libraries/STM32H7xx_HAL/STM32H7xx_HAL_Driver/Src/stm32h7xx_ll_fmc.c:292:18
	ldr	r2, [sp]
	movw	r0, #12507
	.loc	4 292 24                        @ libraries/STM32H7xx_HAL/STM32H7xx_HAL_Driver/Src/stm32h7xx_ll_fmc.c:292:24
	str.w	r0, [r1, r2, lsl #2]
	.loc	4 293 3 is_stmt 1               @ libraries/STM32H7xx_HAL/STM32H7xx_HAL_Driver/Src/stm32h7xx_ll_fmc.c:293:3
	b	.LBB1_3
.Ltmp19:
.LBB1_2:
	.loc	4 297 5                         @ libraries/STM32H7xx_HAL/STM32H7xx_HAL_Driver/Src/stm32h7xx_ll_fmc.c:297:5
	ldr	r1, [sp, #8]
	.loc	4 297 18 is_stmt 0              @ libraries/STM32H7xx_HAL/STM32H7xx_HAL_Driver/Src/stm32h7xx_ll_fmc.c:297:18
	ldr	r2, [sp]
	movw	r0, #12498
	.loc	4 297 24                        @ libraries/STM32H7xx_HAL/STM32H7xx_HAL_Driver/Src/stm32h7xx_ll_fmc.c:297:24
	str.w	r0, [r1, r2, lsl #2]
	b	.LBB1_3
.Ltmp20:
.LBB1_3:
	.loc	4 300 3 is_stmt 1               @ libraries/STM32H7xx_HAL/STM32H7xx_HAL_Driver/Src/stm32h7xx_ll_fmc.c:300:3
	ldr	r0, [sp, #8]
	.loc	4 300 16 is_stmt 0              @ libraries/STM32H7xx_HAL/STM32H7xx_HAL_Driver/Src/stm32h7xx_ll_fmc.c:300:16
	ldr	r1, [sp]
	.loc	4 300 3                         @ libraries/STM32H7xx_HAL/STM32H7xx_HAL_Driver/Src/stm32h7xx_ll_fmc.c:300:3
	add.w	r1, r0, r1, lsl #2
	mvn	r0, #-268435456
	.loc	4 300 27                        @ libraries/STM32H7xx_HAL/STM32H7xx_HAL_Driver/Src/stm32h7xx_ll_fmc.c:300:27
	str	r0, [r1, #4]
	.loc	4 301 3 is_stmt 1               @ libraries/STM32H7xx_HAL/STM32H7xx_HAL_Driver/Src/stm32h7xx_ll_fmc.c:301:3
	ldr	r1, [sp, #4]
	.loc	4 301 18 is_stmt 0              @ libraries/STM32H7xx_HAL/STM32H7xx_HAL_Driver/Src/stm32h7xx_ll_fmc.c:301:18
	ldr	r2, [sp]
	.loc	4 301 26                        @ libraries/STM32H7xx_HAL/STM32H7xx_HAL_Driver/Src/stm32h7xx_ll_fmc.c:301:26
	str.w	r0, [r1, r2, lsl #2]
	movs	r0, #0
	.loc	4 303 3 is_stmt 1               @ libraries/STM32H7xx_HAL/STM32H7xx_HAL_Driver/Src/stm32h7xx_ll_fmc.c:303:3
	add	sp, #12
	bx	lr
.Ltmp21:
.Lfunc_end1:
	.size	FMC_NORSRAM_DeInit, .Lfunc_end1-FMC_NORSRAM_DeInit
	.cfi_endproc
	.cantunwind
	.fnend
                                        @ -- End function
	.section	.text.FMC_NORSRAM_Timing_Init,"ax",%progbits
	.hidden	FMC_NORSRAM_Timing_Init         @ -- Begin function FMC_NORSRAM_Timing_Init
	.globl	FMC_NORSRAM_Timing_Init
	.p2align	3
	.type	FMC_NORSRAM_Timing_Init,%function
	.code	16                              @ @FMC_NORSRAM_Timing_Init
	.thumb_func
FMC_NORSRAM_Timing_Init:
.Lfunc_begin2:
	.loc	4 316 0                         @ libraries/STM32H7xx_HAL/STM32H7xx_HAL_Driver/Src/stm32h7xx_ll_fmc.c:316:0
	.fnstart
	.cfi_startproc
@ %bb.0:
	.save	{r7, lr}
	push	{r7, lr}
	.cfi_def_cfa_offset 8
	.cfi_offset lr, -4
	.cfi_offset r7, -8
	.pad	#16
	sub	sp, #16
	.cfi_def_cfa_offset 24
	str	r0, [sp, #12]
	str	r1, [sp, #8]
	str	r2, [sp, #4]
.Ltmp22:
	.loc	4 331 3 prologue_end            @ libraries/STM32H7xx_HAL/STM32H7xx_HAL_Driver/Src/stm32h7xx_ll_fmc.c:331:3
	ldr	r0, [sp, #12]
	ldr	r1, [sp, #4]
	add.w	r0, r0, r1, lsl #2
	ldr	r0, [r0, #4]
	and	r0, r0, #-1073741824
	ldr	r2, [sp, #8]
	ldr	r1, [r2]
	ldr.w	lr, [r2, #4]
	ldr.w	r12, [r2, #8]
	ldr	r3, [r2, #12]
	orr.w	r1, r1, lr, lsl #4
	orr.w	r1, r1, r12, lsl #8
	orr.w	r1, r1, r3, lsl #16
	ldr.w	r12, [r2, #16]
	movs	r3, #0
	movt	r3, #65520
	add.w	r3, r3, r12, lsl #20
	orrs	r1, r3
	ldr	r3, [r2, #20]
	adds	r3, #254
	orr.w	r1, r1, r3, lsl #24
	ldr	r2, [r2, #24]
	orrs	r1, r2
	orrs	r0, r1
	ldr	r1, [sp, #12]
	ldr	r2, [sp, #4]
	add.w	r1, r1, r2, lsl #2
	str	r0, [r1, #4]
.Ltmp23:
	.loc	4 340 7                         @ libraries/STM32H7xx_HAL/STM32H7xx_HAL_Driver/Src/stm32h7xx_ll_fmc.c:340:7
	ldr	r0, [sp, #12]
	ldr	r0, [r0]
.Ltmp24:
	.loc	4 340 7 is_stmt 0               @ libraries/STM32H7xx_HAL/STM32H7xx_HAL_Driver/Src/stm32h7xx_ll_fmc.c:340:7
	lsls	r0, r0, #11
	cmp	r0, #0
	bpl	.LBB2_2
	b	.LBB2_1
.LBB2_1:
.Ltmp25:
	.loc	4 342 23 is_stmt 1              @ libraries/STM32H7xx_HAL/STM32H7xx_HAL_Driver/Src/stm32h7xx_ll_fmc.c:342:23
	ldr	r0, [sp, #12]
	ldr	r0, [r0, #4]
	.loc	4 342 60 is_stmt 0              @ libraries/STM32H7xx_HAL/STM32H7xx_HAL_Driver/Src/stm32h7xx_ll_fmc.c:342:60
	bic	r0, r0, #15728640
	.loc	4 342 10                        @ libraries/STM32H7xx_HAL/STM32H7xx_HAL_Driver/Src/stm32h7xx_ll_fmc.c:342:10
	str	r0, [sp]
	.loc	4 343 26 is_stmt 1              @ libraries/STM32H7xx_HAL/STM32H7xx_HAL_Driver/Src/stm32h7xx_ll_fmc.c:343:26
	ldr	r0, [sp, #8]
	.loc	4 343 34 is_stmt 0              @ libraries/STM32H7xx_HAL/STM32H7xx_HAL_Driver/Src/stm32h7xx_ll_fmc.c:343:34
	ldr	r1, [r0, #16]
	movs	r0, #0
	movt	r0, #65520
	.loc	4 343 53                        @ libraries/STM32H7xx_HAL/STM32H7xx_HAL_Driver/Src/stm32h7xx_ll_fmc.c:343:53
	add.w	r1, r0, r1, lsl #20
	.loc	4 343 10                        @ libraries/STM32H7xx_HAL/STM32H7xx_HAL_Driver/Src/stm32h7xx_ll_fmc.c:343:10
	ldr	r0, [sp]
	orrs	r0, r1
	str	r0, [sp]
	.loc	4 344 5 is_stmt 1               @ libraries/STM32H7xx_HAL/STM32H7xx_HAL_Driver/Src/stm32h7xx_ll_fmc.c:344:5
	ldr	r0, [sp, #12]
	ldr	r0, [r0, #4]
	bic	r0, r0, #15728640
	ldr	r1, [sp]
	orrs	r0, r1
	ldr	r1, [sp, #12]
	str	r0, [r1, #4]
	.loc	4 345 3                         @ libraries/STM32H7xx_HAL/STM32H7xx_HAL_Driver/Src/stm32h7xx_ll_fmc.c:345:3
	b	.LBB2_2
.Ltmp26:
.LBB2_2:
	.loc	4 0 3 is_stmt 0                 @ libraries/STM32H7xx_HAL/STM32H7xx_HAL_Driver/Src/stm32h7xx_ll_fmc.c:0:3
	movs	r0, #0
	.loc	4 347 3 is_stmt 1               @ libraries/STM32H7xx_HAL/STM32H7xx_HAL_Driver/Src/stm32h7xx_ll_fmc.c:347:3
	add	sp, #16
	pop	{r7, pc}
.Ltmp27:
.Lfunc_end2:
	.size	FMC_NORSRAM_Timing_Init, .Lfunc_end2-FMC_NORSRAM_Timing_Init
	.cfi_endproc
	.cantunwind
	.fnend
                                        @ -- End function
	.section	.text.FMC_NORSRAM_Extended_Timing_Init,"ax",%progbits
	.hidden	FMC_NORSRAM_Extended_Timing_Init @ -- Begin function FMC_NORSRAM_Extended_Timing_Init
	.globl	FMC_NORSRAM_Extended_Timing_Init
	.p2align	3
	.type	FMC_NORSRAM_Extended_Timing_Init,%function
	.code	16                              @ @FMC_NORSRAM_Extended_Timing_Init
	.thumb_func
FMC_NORSRAM_Extended_Timing_Init:
.Lfunc_begin3:
	.loc	4 363 0                         @ libraries/STM32H7xx_HAL/STM32H7xx_HAL_Driver/Src/stm32h7xx_ll_fmc.c:363:0
	.fnstart
	.cfi_startproc
@ %bb.0:
	.save	{r7, lr}
	push	{r7, lr}
	.cfi_def_cfa_offset 8
	.cfi_offset lr, -4
	.cfi_offset r7, -8
	.pad	#16
	sub	sp, #16
	.cfi_def_cfa_offset 24
	str	r0, [sp, #12]
	str	r1, [sp, #8]
	str	r2, [sp, #4]
	str	r3, [sp]
.Ltmp28:
	.loc	4 368 7 prologue_end            @ libraries/STM32H7xx_HAL/STM32H7xx_HAL_Driver/Src/stm32h7xx_ll_fmc.c:368:7
	ldr	r0, [sp]
.Ltmp29:
	.loc	4 368 7 is_stmt 0               @ libraries/STM32H7xx_HAL/STM32H7xx_HAL_Driver/Src/stm32h7xx_ll_fmc.c:368:7
	cmp.w	r0, #16384
	bne	.LBB3_2
	b	.LBB3_1
.LBB3_1:
.Ltmp30:
	.loc	4 380 5 is_stmt 1               @ libraries/STM32H7xx_HAL/STM32H7xx_HAL_Driver/Src/stm32h7xx_ll_fmc.c:380:5
	ldr	r0, [sp, #12]
	ldr	r1, [sp, #4]
	ldr.w	r0, [r0, r1, lsl #2]
	movs	r1, #0
	movt	r1, #53232
	ands	r0, r1
	ldr	r3, [sp, #8]
	ldr	r1, [r3]
	ldr.w	lr, [r3, #4]
	ldr.w	r12, [r3, #8]
	ldr	r2, [r3, #12]
	orr.w	r1, r1, lr, lsl #4
	orr.w	r1, r1, r12, lsl #8
	ldr	r3, [r3, #24]
	orrs	r1, r3
	orr.w	r1, r1, r2, lsl #16
	orrs	r0, r1
	ldr	r1, [sp, #12]
	ldr	r2, [sp, #4]
	str.w	r0, [r1, r2, lsl #2]
	.loc	4 385 3                         @ libraries/STM32H7xx_HAL/STM32H7xx_HAL_Driver/Src/stm32h7xx_ll_fmc.c:385:3
	b	.LBB3_3
.Ltmp31:
.LBB3_2:
	.loc	4 388 5                         @ libraries/STM32H7xx_HAL/STM32H7xx_HAL_Driver/Src/stm32h7xx_ll_fmc.c:388:5
	ldr	r1, [sp, #12]
	.loc	4 388 18 is_stmt 0              @ libraries/STM32H7xx_HAL/STM32H7xx_HAL_Driver/Src/stm32h7xx_ll_fmc.c:388:18
	ldr	r2, [sp, #4]
	mvn	r0, #-268435456
	.loc	4 388 24                        @ libraries/STM32H7xx_HAL/STM32H7xx_HAL_Driver/Src/stm32h7xx_ll_fmc.c:388:24
	str.w	r0, [r1, r2, lsl #2]
	b	.LBB3_3
.Ltmp32:
.LBB3_3:
	.loc	4 0 24                          @ libraries/STM32H7xx_HAL/STM32H7xx_HAL_Driver/Src/stm32h7xx_ll_fmc.c:0:24
	movs	r0, #0
	.loc	4 391 3 is_stmt 1               @ libraries/STM32H7xx_HAL/STM32H7xx_HAL_Driver/Src/stm32h7xx_ll_fmc.c:391:3
	add	sp, #16
	pop	{r7, pc}
.Ltmp33:
.Lfunc_end3:
	.size	FMC_NORSRAM_Extended_Timing_Init, .Lfunc_end3-FMC_NORSRAM_Extended_Timing_Init
	.cfi_endproc
	.cantunwind
	.fnend
                                        @ -- End function
	.section	.text.FMC_NORSRAM_WriteOperation_Enable,"ax",%progbits
	.hidden	FMC_NORSRAM_WriteOperation_Enable @ -- Begin function FMC_NORSRAM_WriteOperation_Enable
	.globl	FMC_NORSRAM_WriteOperation_Enable
	.p2align	3
	.type	FMC_NORSRAM_WriteOperation_Enable,%function
	.code	16                              @ @FMC_NORSRAM_WriteOperation_Enable
	.thumb_func
FMC_NORSRAM_WriteOperation_Enable:
.Lfunc_begin4:
	.loc	4 419 0                         @ libraries/STM32H7xx_HAL/STM32H7xx_HAL_Driver/Src/stm32h7xx_ll_fmc.c:419:0
	.fnstart
	.cfi_startproc
@ %bb.0:
	.pad	#8
	sub	sp, #8
	.cfi_def_cfa_offset 8
	str	r0, [sp, #4]
	str	r1, [sp]
.Ltmp34:
	.loc	4 425 3 prologue_end            @ libraries/STM32H7xx_HAL/STM32H7xx_HAL_Driver/Src/stm32h7xx_ll_fmc.c:425:3
	ldr	r1, [sp, #4]
	ldr	r2, [sp]
	ldr.w	r0, [r1, r2, lsl #2]
	orr	r0, r0, #4096
	str.w	r0, [r1, r2, lsl #2]
	movs	r0, #0
	.loc	4 427 3                         @ libraries/STM32H7xx_HAL/STM32H7xx_HAL_Driver/Src/stm32h7xx_ll_fmc.c:427:3
	add	sp, #8
	bx	lr
.Ltmp35:
.Lfunc_end4:
	.size	FMC_NORSRAM_WriteOperation_Enable, .Lfunc_end4-FMC_NORSRAM_WriteOperation_Enable
	.cfi_endproc
	.cantunwind
	.fnend
                                        @ -- End function
	.section	.text.FMC_NORSRAM_WriteOperation_Disable,"ax",%progbits
	.hidden	FMC_NORSRAM_WriteOperation_Disable @ -- Begin function FMC_NORSRAM_WriteOperation_Disable
	.globl	FMC_NORSRAM_WriteOperation_Disable
	.p2align	3
	.type	FMC_NORSRAM_WriteOperation_Disable,%function
	.code	16                              @ @FMC_NORSRAM_WriteOperation_Disable
	.thumb_func
FMC_NORSRAM_WriteOperation_Disable:
.Lfunc_begin5:
	.loc	4 437 0                         @ libraries/STM32H7xx_HAL/STM32H7xx_HAL_Driver/Src/stm32h7xx_ll_fmc.c:437:0
	.fnstart
	.cfi_startproc
@ %bb.0:
	.pad	#8
	sub	sp, #8
	.cfi_def_cfa_offset 8
	str	r0, [sp, #4]
	str	r1, [sp]
.Ltmp36:
	.loc	4 443 3 prologue_end            @ libraries/STM32H7xx_HAL/STM32H7xx_HAL_Driver/Src/stm32h7xx_ll_fmc.c:443:3
	ldr	r1, [sp, #4]
	ldr	r2, [sp]
	ldr.w	r0, [r1, r2, lsl #2]
	bic	r0, r0, #4096
	str.w	r0, [r1, r2, lsl #2]
	movs	r0, #0
	.loc	4 445 3                         @ libraries/STM32H7xx_HAL/STM32H7xx_HAL_Driver/Src/stm32h7xx_ll_fmc.c:445:3
	add	sp, #8
	bx	lr
.Ltmp37:
.Lfunc_end5:
	.size	FMC_NORSRAM_WriteOperation_Disable, .Lfunc_end5-FMC_NORSRAM_WriteOperation_Disable
	.cfi_endproc
	.cantunwind
	.fnend
                                        @ -- End function
	.section	.text.FMC_NAND_Init,"ax",%progbits
	.hidden	FMC_NAND_Init                   @ -- Begin function FMC_NAND_Init
	.globl	FMC_NAND_Init
	.p2align	3
	.type	FMC_NAND_Init,%function
	.code	16                              @ @FMC_NAND_Init
	.thumb_func
FMC_NAND_Init:
.Lfunc_begin6:
	.loc	4 507 0                         @ libraries/STM32H7xx_HAL/STM32H7xx_HAL_Driver/Src/stm32h7xx_ll_fmc.c:507:0
	.fnstart
	.cfi_startproc
@ %bb.0:
	.save	{r7, lr}
	push	{r7, lr}
	.cfi_def_cfa_offset 8
	.cfi_offset lr, -4
	.cfi_offset r7, -8
	.pad	#8
	sub	sp, #8
	.cfi_def_cfa_offset 16
	str	r0, [sp, #4]
	str	r1, [sp]
.Ltmp38:
	.loc	4 519 3 prologue_end            @ libraries/STM32H7xx_HAL/STM32H7xx_HAL_Driver/Src/stm32h7xx_ll_fmc.c:519:3
	ldr	r0, [sp, #4]
	ldr	r0, [r0]
	movw	r1, #385
	movt	r1, #65520
	ands	r1, r0
	ldr	r2, [sp]
	ldr	r0, [r2, #4]
	ldr.w	lr, [r2, #8]
	ldr.w	r12, [r2, #12]
	ldr	r3, [r2, #16]
	orr.w	r0, r0, lr
	orr.w	r0, r0, r12
	orrs	r0, r3
	ldr	r3, [r2, #20]
	orr.w	r0, r0, r3, lsl #9
	ldr	r2, [r2, #24]
	orr.w	r0, r0, r2, lsl #13
	orrs	r0, r1
	orr	r0, r0, #8
	ldr	r1, [sp, #4]
	str	r0, [r1]
	movs	r0, #0
	.loc	4 527 3                         @ libraries/STM32H7xx_HAL/STM32H7xx_HAL_Driver/Src/stm32h7xx_ll_fmc.c:527:3
	add	sp, #8
	pop	{r7, pc}
.Ltmp39:
.Lfunc_end6:
	.size	FMC_NAND_Init, .Lfunc_end6-FMC_NAND_Init
	.cfi_endproc
	.cantunwind
	.fnend
                                        @ -- End function
	.section	.text.FMC_NAND_CommonSpace_Timing_Init,"ax",%progbits
	.hidden	FMC_NAND_CommonSpace_Timing_Init @ -- Begin function FMC_NAND_CommonSpace_Timing_Init
	.globl	FMC_NAND_CommonSpace_Timing_Init
	.p2align	3
	.type	FMC_NAND_CommonSpace_Timing_Init,%function
	.code	16                              @ @FMC_NAND_CommonSpace_Timing_Init
	.thumb_func
FMC_NAND_CommonSpace_Timing_Init:
.Lfunc_begin7:
	.loc	4 539 0                         @ libraries/STM32H7xx_HAL/STM32H7xx_HAL_Driver/Src/stm32h7xx_ll_fmc.c:539:0
	.fnstart
	.cfi_startproc
@ %bb.0:
	.pad	#12
	sub	sp, #12
	.cfi_def_cfa_offset 12
	str	r0, [sp, #8]
	str	r1, [sp, #4]
	str	r2, [sp]
.Ltmp40:
	.loc	4 549 3 prologue_end            @ libraries/STM32H7xx_HAL/STM32H7xx_HAL_Driver/Src/stm32h7xx_ll_fmc.c:549:3
	ldr	r0, [sp, #8]
	ldr	r0, [r0, #8]
	ldr	r1, [sp, #4]
	ldr	r0, [r1]
	ldr	r3, [r1, #4]
	ldr	r2, [r1, #8]
	ldr	r1, [r1, #12]
	orr.w	r0, r0, r3, lsl #8
	orr.w	r0, r0, r2, lsl #16
	orr.w	r0, r0, r1, lsl #24
	ldr	r1, [sp, #8]
	str	r0, [r1, #8]
	movs	r0, #0
	.loc	4 554 3                         @ libraries/STM32H7xx_HAL/STM32H7xx_HAL_Driver/Src/stm32h7xx_ll_fmc.c:554:3
	add	sp, #12
	bx	lr
.Ltmp41:
.Lfunc_end7:
	.size	FMC_NAND_CommonSpace_Timing_Init, .Lfunc_end7-FMC_NAND_CommonSpace_Timing_Init
	.cfi_endproc
	.cantunwind
	.fnend
                                        @ -- End function
	.section	.text.FMC_NAND_AttributeSpace_Timing_Init,"ax",%progbits
	.hidden	FMC_NAND_AttributeSpace_Timing_Init @ -- Begin function FMC_NAND_AttributeSpace_Timing_Init
	.globl	FMC_NAND_AttributeSpace_Timing_Init
	.p2align	3
	.type	FMC_NAND_AttributeSpace_Timing_Init,%function
	.code	16                              @ @FMC_NAND_AttributeSpace_Timing_Init
	.thumb_func
FMC_NAND_AttributeSpace_Timing_Init:
.Lfunc_begin8:
	.loc	4 566 0                         @ libraries/STM32H7xx_HAL/STM32H7xx_HAL_Driver/Src/stm32h7xx_ll_fmc.c:566:0
	.fnstart
	.cfi_startproc
@ %bb.0:
	.pad	#12
	sub	sp, #12
	.cfi_def_cfa_offset 12
	str	r0, [sp, #8]
	str	r1, [sp, #4]
	str	r2, [sp]
.Ltmp42:
	.loc	4 576 3 prologue_end            @ libraries/STM32H7xx_HAL/STM32H7xx_HAL_Driver/Src/stm32h7xx_ll_fmc.c:576:3
	ldr	r0, [sp, #8]
	ldr	r0, [r0, #12]
	ldr	r1, [sp, #4]
	ldr	r0, [r1]
	ldr	r3, [r1, #4]
	ldr	r2, [r1, #8]
	ldr	r1, [r1, #12]
	orr.w	r0, r0, r3, lsl #8
	orr.w	r0, r0, r2, lsl #16
	orr.w	r0, r0, r1, lsl #24
	ldr	r1, [sp, #8]
	str	r0, [r1, #12]
	movs	r0, #0
	.loc	4 581 3                         @ libraries/STM32H7xx_HAL/STM32H7xx_HAL_Driver/Src/stm32h7xx_ll_fmc.c:581:3
	add	sp, #12
	bx	lr
.Ltmp43:
.Lfunc_end8:
	.size	FMC_NAND_AttributeSpace_Timing_Init, .Lfunc_end8-FMC_NAND_AttributeSpace_Timing_Init
	.cfi_endproc
	.cantunwind
	.fnend
                                        @ -- End function
	.section	.text.FMC_NAND_DeInit,"ax",%progbits
	.hidden	FMC_NAND_DeInit                 @ -- Begin function FMC_NAND_DeInit
	.globl	FMC_NAND_DeInit
	.p2align	3
	.type	FMC_NAND_DeInit,%function
	.code	16                              @ @FMC_NAND_DeInit
	.thumb_func
FMC_NAND_DeInit:
.Lfunc_begin9:
	.loc	4 591 0                         @ libraries/STM32H7xx_HAL/STM32H7xx_HAL_Driver/Src/stm32h7xx_ll_fmc.c:591:0
	.fnstart
	.cfi_startproc
@ %bb.0:
	.pad	#8
	sub	sp, #8
	.cfi_def_cfa_offset 8
	str	r0, [sp, #4]
	str	r1, [sp]
.Ltmp44:
	.loc	4 597 3 prologue_end            @ libraries/STM32H7xx_HAL/STM32H7xx_HAL_Driver/Src/stm32h7xx_ll_fmc.c:597:3
	ldr	r1, [sp, #4]
	ldr	r0, [r1]
	bic	r0, r0, #4
	str	r0, [r1]
	.loc	4 601 3                         @ libraries/STM32H7xx_HAL/STM32H7xx_HAL_Driver/Src/stm32h7xx_ll_fmc.c:601:3
	ldr	r1, [sp, #4]
	movs	r0, #24
	str	r0, [r1]
	.loc	4 602 3                         @ libraries/STM32H7xx_HAL/STM32H7xx_HAL_Driver/Src/stm32h7xx_ll_fmc.c:602:3
	ldr	r1, [sp, #4]
	movs	r0, #64
	str	r0, [r1, #4]
	.loc	4 603 3                         @ libraries/STM32H7xx_HAL/STM32H7xx_HAL_Driver/Src/stm32h7xx_ll_fmc.c:603:3
	ldr	r1, [sp, #4]
	mov.w	r0, #-50529028
	str	r0, [r1, #8]
	.loc	4 604 3                         @ libraries/STM32H7xx_HAL/STM32H7xx_HAL_Driver/Src/stm32h7xx_ll_fmc.c:604:3
	ldr	r1, [sp, #4]
	str	r0, [r1, #12]
	movs	r0, #0
	.loc	4 606 3                         @ libraries/STM32H7xx_HAL/STM32H7xx_HAL_Driver/Src/stm32h7xx_ll_fmc.c:606:3
	add	sp, #8
	bx	lr
.Ltmp45:
.Lfunc_end9:
	.size	FMC_NAND_DeInit, .Lfunc_end9-FMC_NAND_DeInit
	.cfi_endproc
	.cantunwind
	.fnend
                                        @ -- End function
	.section	.text.FMC_NAND_ECC_Enable,"ax",%progbits
	.hidden	FMC_NAND_ECC_Enable             @ -- Begin function FMC_NAND_ECC_Enable
	.globl	FMC_NAND_ECC_Enable
	.p2align	3
	.type	FMC_NAND_ECC_Enable,%function
	.code	16                              @ @FMC_NAND_ECC_Enable
	.thumb_func
FMC_NAND_ECC_Enable:
.Lfunc_begin10:
	.loc	4 636 0                         @ libraries/STM32H7xx_HAL/STM32H7xx_HAL_Driver/Src/stm32h7xx_ll_fmc.c:636:0
	.fnstart
	.cfi_startproc
@ %bb.0:
	.pad	#8
	sub	sp, #8
	.cfi_def_cfa_offset 8
	str	r0, [sp, #4]
	str	r1, [sp]
.Ltmp46:
	.loc	4 642 3 prologue_end            @ libraries/STM32H7xx_HAL/STM32H7xx_HAL_Driver/Src/stm32h7xx_ll_fmc.c:642:3
	ldr	r1, [sp, #4]
	ldr	r0, [r1]
	orr	r0, r0, #64
	str	r0, [r1]
	movs	r0, #0
	.loc	4 644 3                         @ libraries/STM32H7xx_HAL/STM32H7xx_HAL_Driver/Src/stm32h7xx_ll_fmc.c:644:3
	add	sp, #8
	bx	lr
.Ltmp47:
.Lfunc_end10:
	.size	FMC_NAND_ECC_Enable, .Lfunc_end10-FMC_NAND_ECC_Enable
	.cfi_endproc
	.cantunwind
	.fnend
                                        @ -- End function
	.section	.text.FMC_NAND_ECC_Disable,"ax",%progbits
	.hidden	FMC_NAND_ECC_Disable            @ -- Begin function FMC_NAND_ECC_Disable
	.globl	FMC_NAND_ECC_Disable
	.p2align	3
	.type	FMC_NAND_ECC_Disable,%function
	.code	16                              @ @FMC_NAND_ECC_Disable
	.thumb_func
FMC_NAND_ECC_Disable:
.Lfunc_begin11:
	.loc	4 655 0                         @ libraries/STM32H7xx_HAL/STM32H7xx_HAL_Driver/Src/stm32h7xx_ll_fmc.c:655:0
	.fnstart
	.cfi_startproc
@ %bb.0:
	.pad	#8
	sub	sp, #8
	.cfi_def_cfa_offset 8
	str	r0, [sp, #4]
	str	r1, [sp]
.Ltmp48:
	.loc	4 661 3 prologue_end            @ libraries/STM32H7xx_HAL/STM32H7xx_HAL_Driver/Src/stm32h7xx_ll_fmc.c:661:3
	ldr	r1, [sp, #4]
	ldr	r0, [r1]
	bic	r0, r0, #64
	str	r0, [r1]
	movs	r0, #0
	.loc	4 663 3                         @ libraries/STM32H7xx_HAL/STM32H7xx_HAL_Driver/Src/stm32h7xx_ll_fmc.c:663:3
	add	sp, #8
	bx	lr
.Ltmp49:
.Lfunc_end11:
	.size	FMC_NAND_ECC_Disable, .Lfunc_end11-FMC_NAND_ECC_Disable
	.cfi_endproc
	.cantunwind
	.fnend
                                        @ -- End function
	.section	.text.FMC_NAND_GetECC,"ax",%progbits
	.hidden	FMC_NAND_GetECC                 @ -- Begin function FMC_NAND_GetECC
	.globl	FMC_NAND_GetECC
	.p2align	3
	.type	FMC_NAND_GetECC,%function
	.code	16                              @ @FMC_NAND_GetECC
	.thumb_func
FMC_NAND_GetECC:
.Lfunc_begin12:
	.loc	4 675 0                         @ libraries/STM32H7xx_HAL/STM32H7xx_HAL_Driver/Src/stm32h7xx_ll_fmc.c:675:0
	.fnstart
	.cfi_startproc
@ %bb.0:
	.save	{r7, lr}
	push	{r7, lr}
	.cfi_def_cfa_offset 8
	.cfi_offset lr, -4
	.cfi_offset r7, -8
	.pad	#24
	sub	sp, #24
	.cfi_def_cfa_offset 32
	str	r0, [sp, #16]
	str	r1, [sp, #12]
	str	r2, [sp, #8]
	str	r3, [sp, #4]
.Ltmp50:
	.loc	4 683 15 prologue_end           @ libraries/STM32H7xx_HAL/STM32H7xx_HAL_Driver/Src/stm32h7xx_ll_fmc.c:683:15
	bl	HAL_GetTick
	.loc	4 683 13 is_stmt 0              @ libraries/STM32H7xx_HAL/STM32H7xx_HAL_Driver/Src/stm32h7xx_ll_fmc.c:683:13
	str	r0, [sp]
	.loc	4 686 3 is_stmt 1               @ libraries/STM32H7xx_HAL/STM32H7xx_HAL_Driver/Src/stm32h7xx_ll_fmc.c:686:3
	b	.LBB12_1
.LBB12_1:                               @ =>This Inner Loop Header: Depth=1
	.loc	4 686 10 is_stmt 0              @ libraries/STM32H7xx_HAL/STM32H7xx_HAL_Driver/Src/stm32h7xx_ll_fmc.c:686:10
	ldr	r0, [sp, #16]
	ldr	r0, [r0, #4]
	and	r1, r0, #64
	movs	r0, #0
	.loc	4 686 3                         @ libraries/STM32H7xx_HAL/STM32H7xx_HAL_Driver/Src/stm32h7xx_ll_fmc.c:686:3
	cmp.w	r0, r1, lsr #6
	bne	.LBB12_8
	b	.LBB12_2
.LBB12_2:                               @   in Loop: Header=BB12_1 Depth=1
.Ltmp51:
	.loc	4 689 9 is_stmt 1               @ libraries/STM32H7xx_HAL/STM32H7xx_HAL_Driver/Src/stm32h7xx_ll_fmc.c:689:9
	ldr	r0, [sp, #4]
.Ltmp52:
	.loc	4 689 9 is_stmt 0               @ libraries/STM32H7xx_HAL/STM32H7xx_HAL_Driver/Src/stm32h7xx_ll_fmc.c:689:9
	adds	r0, #1
	cbz	r0, .LBB12_7
	b	.LBB12_3
.LBB12_3:                               @   in Loop: Header=BB12_1 Depth=1
.Ltmp53:
	.loc	4 691 13 is_stmt 1              @ libraries/STM32H7xx_HAL/STM32H7xx_HAL_Driver/Src/stm32h7xx_ll_fmc.c:691:13
	bl	HAL_GetTick
	.loc	4 691 29 is_stmt 0              @ libraries/STM32H7xx_HAL/STM32H7xx_HAL_Driver/Src/stm32h7xx_ll_fmc.c:691:29
	ldr	r1, [sp]
	.loc	4 691 27                        @ libraries/STM32H7xx_HAL/STM32H7xx_HAL_Driver/Src/stm32h7xx_ll_fmc.c:691:27
	subs	r0, r0, r1
	.loc	4 691 42                        @ libraries/STM32H7xx_HAL/STM32H7xx_HAL_Driver/Src/stm32h7xx_ll_fmc.c:691:42
	ldr	r1, [sp, #4]
	.loc	4 691 51                        @ libraries/STM32H7xx_HAL/STM32H7xx_HAL_Driver/Src/stm32h7xx_ll_fmc.c:691:51
	cmp	r0, r1
	bhi	.LBB12_5
	b	.LBB12_4
.LBB12_4:                               @   in Loop: Header=BB12_1 Depth=1
	.loc	4 691 55                        @ libraries/STM32H7xx_HAL/STM32H7xx_HAL_Driver/Src/stm32h7xx_ll_fmc.c:691:55
	ldr	r0, [sp, #4]
.Ltmp54:
	.loc	4 691 11                        @ libraries/STM32H7xx_HAL/STM32H7xx_HAL_Driver/Src/stm32h7xx_ll_fmc.c:691:11
	cbnz	r0, .LBB12_6
	b	.LBB12_5
.LBB12_5:
	.loc	4 0 11                          @ libraries/STM32H7xx_HAL/STM32H7xx_HAL_Driver/Src/stm32h7xx_ll_fmc.c:0:11
	movs	r0, #3
.Ltmp55:
	.loc	4 693 9 is_stmt 1               @ libraries/STM32H7xx_HAL/STM32H7xx_HAL_Driver/Src/stm32h7xx_ll_fmc.c:693:9
	strb.w	r0, [sp, #23]
	b	.LBB12_9
.Ltmp56:
.LBB12_6:                               @   in Loop: Header=BB12_1 Depth=1
	.loc	4 695 5                         @ libraries/STM32H7xx_HAL/STM32H7xx_HAL_Driver/Src/stm32h7xx_ll_fmc.c:695:5
	b	.LBB12_7
.Ltmp57:
.LBB12_7:                               @   in Loop: Header=BB12_1 Depth=1
	.loc	4 686 3                         @ libraries/STM32H7xx_HAL/STM32H7xx_HAL_Driver/Src/stm32h7xx_ll_fmc.c:686:3
	b	.LBB12_1
.LBB12_8:
	.loc	4 699 23                        @ libraries/STM32H7xx_HAL/STM32H7xx_HAL_Driver/Src/stm32h7xx_ll_fmc.c:699:23
	ldr	r0, [sp, #16]
	.loc	4 699 31 is_stmt 0              @ libraries/STM32H7xx_HAL/STM32H7xx_HAL_Driver/Src/stm32h7xx_ll_fmc.c:699:31
	ldr	r0, [r0, #20]
	.loc	4 699 4                         @ libraries/STM32H7xx_HAL/STM32H7xx_HAL_Driver/Src/stm32h7xx_ll_fmc.c:699:4
	ldr	r1, [sp, #12]
	.loc	4 699 11                        @ libraries/STM32H7xx_HAL/STM32H7xx_HAL_Driver/Src/stm32h7xx_ll_fmc.c:699:11
	str	r0, [r1]
	movs	r0, #0
	.loc	4 701 3 is_stmt 1               @ libraries/STM32H7xx_HAL/STM32H7xx_HAL_Driver/Src/stm32h7xx_ll_fmc.c:701:3
	strb.w	r0, [sp, #23]
	b	.LBB12_9
.LBB12_9:
	.loc	4 702 1                         @ libraries/STM32H7xx_HAL/STM32H7xx_HAL_Driver/Src/stm32h7xx_ll_fmc.c:702:1
	ldrb.w	r0, [sp, #23]
	add	sp, #24
	pop	{r7, pc}
.Ltmp58:
.Lfunc_end12:
	.size	FMC_NAND_GetECC, .Lfunc_end12-FMC_NAND_GetECC
	.cfi_endproc
	.cantunwind
	.fnend
                                        @ -- End function
	.section	.text.FMC_SDRAM_Init,"ax",%progbits
	.hidden	FMC_SDRAM_Init                  @ -- Begin function FMC_SDRAM_Init
	.globl	FMC_SDRAM_Init
	.p2align	3
	.type	FMC_SDRAM_Init,%function
	.code	16                              @ @FMC_SDRAM_Init
	.thumb_func
FMC_SDRAM_Init:
.Lfunc_begin13:
	.loc	4 757 0                         @ libraries/STM32H7xx_HAL/STM32H7xx_HAL_Driver/Src/stm32h7xx_ll_fmc.c:757:0
	.fnstart
	.cfi_startproc
@ %bb.0:
	.save	{r7, lr}
	push	{r7, lr}
	.cfi_def_cfa_offset 8
	.cfi_offset lr, -4
	.cfi_offset r7, -8
	.pad	#12
	sub	sp, #12
	.cfi_def_cfa_offset 20
	str	r0, [sp, #8]
	str	r1, [sp, #4]
.Ltmp59:
	.loc	4 772 7 prologue_end            @ libraries/STM32H7xx_HAL/STM32H7xx_HAL_Driver/Src/stm32h7xx_ll_fmc.c:772:7
	ldr	r0, [sp, #4]
	.loc	4 772 13 is_stmt 0              @ libraries/STM32H7xx_HAL/STM32H7xx_HAL_Driver/Src/stm32h7xx_ll_fmc.c:772:13
	ldr	r0, [r0]
.Ltmp60:
	.loc	4 772 7                         @ libraries/STM32H7xx_HAL/STM32H7xx_HAL_Driver/Src/stm32h7xx_ll_fmc.c:772:7
	cbnz	r0, .LBB13_2
	b	.LBB13_1
.LBB13_1:
.Ltmp61:
	.loc	4 774 5 is_stmt 1               @ libraries/STM32H7xx_HAL/STM32H7xx_HAL_Driver/Src/stm32h7xx_ll_fmc.c:774:5
	ldr	r0, [sp, #8]
	ldr	r0, [r0]
	movw	r1, #32767
	bics	r0, r1
	ldr	r2, [sp, #4]
	str	r2, [sp]                        @ 4-byte Spill
	ldr	r1, [r2, #4]
	ldr.w	lr, [r2, #8]
	ldr.w	r12, [r2, #12]
	ldr	r3, [r2, #16]
	orr.w	r1, r1, lr
	orr.w	r1, r1, r12
	orrs	r1, r3
	ldr	r3, [r2, #20]
	orrs	r1, r3
	ldr	r3, [r2, #24]
	orrs	r1, r3
	ldr	r3, [r2, #28]
	orrs	r1, r3
	ldr	r3, [r2, #32]
	orrs	r1, r3
	ldr	r2, [r2, #36]
	orrs	r1, r2
	orrs	r0, r1
	ldr	r1, [sp, #8]
	str	r0, [r1]
	.loc	4 785 3                         @ libraries/STM32H7xx_HAL/STM32H7xx_HAL_Driver/Src/stm32h7xx_ll_fmc.c:785:3
	b	.LBB13_3
.Ltmp62:
.LBB13_2:
	.loc	4 788 5                         @ libraries/STM32H7xx_HAL/STM32H7xx_HAL_Driver/Src/stm32h7xx_ll_fmc.c:788:5
	ldr	r0, [sp, #8]
	ldr	r0, [r0]
	bic	r0, r0, #31744
	ldr	r2, [sp, #4]
	ldr	r1, [r2, #28]
	ldr	r3, [r2, #32]
	ldr	r2, [r2, #36]
	orrs	r1, r3
	orrs	r1, r2
	orrs	r0, r1
	ldr	r1, [sp, #8]
	str	r0, [r1]
	.loc	4 796 5                         @ libraries/STM32H7xx_HAL/STM32H7xx_HAL_Driver/Src/stm32h7xx_ll_fmc.c:796:5
	ldr	r0, [sp, #8]
	ldr	r0, [r0, #4]
	movw	r1, #32767
	bics	r0, r1
	ldr	r2, [sp, #4]
	ldr	r1, [r2, #4]
	ldr.w	lr, [r2, #8]
	ldr.w	r12, [r2, #12]
	ldr	r3, [r2, #16]
	orr.w	r1, r1, lr
	orr.w	r1, r1, r12
	orrs	r1, r3
	ldr	r3, [r2, #20]
	orrs	r1, r3
	ldr	r2, [r2, #24]
	orrs	r1, r2
	orrs	r0, r1
	ldr	r1, [sp, #8]
	str	r0, [r1, #4]
	b	.LBB13_3
.Ltmp63:
.LBB13_3:
	.loc	4 0 5 is_stmt 0                 @ libraries/STM32H7xx_HAL/STM32H7xx_HAL_Driver/Src/stm32h7xx_ll_fmc.c:0:5
	movs	r0, #0
	.loc	4 806 3 is_stmt 1               @ libraries/STM32H7xx_HAL/STM32H7xx_HAL_Driver/Src/stm32h7xx_ll_fmc.c:806:3
	add	sp, #12
	pop	{r7, pc}
.Ltmp64:
.Lfunc_end13:
	.size	FMC_SDRAM_Init, .Lfunc_end13-FMC_SDRAM_Init
	.cfi_endproc
	.cantunwind
	.fnend
                                        @ -- End function
	.section	.text.FMC_SDRAM_Timing_Init,"ax",%progbits
	.hidden	FMC_SDRAM_Timing_Init           @ -- Begin function FMC_SDRAM_Timing_Init
	.globl	FMC_SDRAM_Timing_Init
	.p2align	3
	.type	FMC_SDRAM_Timing_Init,%function
	.code	16                              @ @FMC_SDRAM_Timing_Init
	.thumb_func
FMC_SDRAM_Timing_Init:
.Lfunc_begin14:
	.loc	4 819 0                         @ libraries/STM32H7xx_HAL/STM32H7xx_HAL_Driver/Src/stm32h7xx_ll_fmc.c:819:0
	.fnstart
	.cfi_startproc
@ %bb.0:
	.save	{r4, lr}
	push	{r4, lr}
	.cfi_def_cfa_offset 8
	.cfi_offset lr, -4
	.cfi_offset r4, -8
	.pad	#12
	sub	sp, #12
	.cfi_def_cfa_offset 20
	str	r0, [sp, #8]
	str	r1, [sp, #4]
	str	r2, [sp]
.Ltmp65:
	.loc	4 832 7 prologue_end            @ libraries/STM32H7xx_HAL/STM32H7xx_HAL_Driver/Src/stm32h7xx_ll_fmc.c:832:7
	ldr	r0, [sp]
.Ltmp66:
	.loc	4 832 7 is_stmt 0               @ libraries/STM32H7xx_HAL/STM32H7xx_HAL_Driver/Src/stm32h7xx_ll_fmc.c:832:7
	cbnz	r0, .LBB14_2
	b	.LBB14_1
.LBB14_1:
.Ltmp67:
	.loc	4 834 5 is_stmt 1               @ libraries/STM32H7xx_HAL/STM32H7xx_HAL_Driver/Src/stm32h7xx_ll_fmc.c:834:5
	ldr	r0, [sp, #8]
	ldr	r0, [r0, #8]
	and	r0, r0, #-268435456
	ldr	r2, [sp, #4]
	ldr	r1, [r2]
	ldr	r4, [r2, #4]
	ldr.w	lr, [r2, #8]
	ldr.w	r12, [r2, #12]
	subs	r1, #1
	mvn	r3, #15
	add.w	r3, r3, r4, lsl #4
	orrs	r1, r3
	mvn	r3, #255
	add.w	r3, r3, lr, lsl #8
	orrs	r1, r3
	movw	r3, #61440
	movt	r3, #65535
	add.w	r3, r3, r12, lsl #12
	orrs	r1, r3
	ldr.w	r12, [r2, #16]
	movs	r3, #0
	movt	r3, #65535
	add.w	r3, r3, r12, lsl #16
	orrs	r1, r3
	ldr.w	r12, [r2, #20]
	movs	r3, #0
	movt	r3, #65520
	add.w	r3, r3, r12, lsl #20
	orrs	r1, r3
	ldr	r2, [r2, #24]
	subs	r2, #1
	orr.w	r1, r1, r2, lsl #24
	orrs	r0, r1
	ldr	r1, [sp, #8]
	str	r0, [r1, #8]
	.loc	4 843 3                         @ libraries/STM32H7xx_HAL/STM32H7xx_HAL_Driver/Src/stm32h7xx_ll_fmc.c:843:3
	b	.LBB14_3
.Ltmp68:
.LBB14_2:
	.loc	4 846 5                         @ libraries/STM32H7xx_HAL/STM32H7xx_HAL_Driver/Src/stm32h7xx_ll_fmc.c:846:5
	ldr	r0, [sp, #8]
	ldr	r0, [r0, #8]
	movw	r1, #4095
	movt	r1, #65295
	ands	r0, r1
	ldr	r1, [sp, #4]
	ldr	r2, [r1, #12]
	ldr	r3, [r1, #20]
	movw	r1, #61440
	movt	r1, #65535
	add.w	r1, r1, r2, lsl #12
	movs	r2, #0
	movt	r2, #65520
	add.w	r2, r2, r3, lsl #20
	orrs	r1, r2
	orrs	r0, r1
	ldr	r1, [sp, #8]
	str	r0, [r1, #8]
	.loc	4 852 5                         @ libraries/STM32H7xx_HAL/STM32H7xx_HAL_Driver/Src/stm32h7xx_ll_fmc.c:852:5
	ldr	r0, [sp, #8]
	ldr	r0, [r0, #12]
	and	r0, r0, #-268435456
	ldr	r2, [sp, #4]
	ldr	r1, [r2]
	ldr	r4, [r2, #4]
	ldr.w	lr, [r2, #8]
	ldr.w	r12, [r2, #16]
	subs	r1, #1
	mvn	r3, #15
	add.w	r3, r3, r4, lsl #4
	orrs	r1, r3
	mvn	r3, #255
	add.w	r3, r3, lr, lsl #8
	orrs	r1, r3
	movs	r3, #0
	movt	r3, #65535
	add.w	r3, r3, r12, lsl #16
	orrs	r1, r3
	ldr	r2, [r2, #24]
	subs	r2, #1
	orr.w	r1, r1, r2, lsl #24
	orrs	r0, r1
	ldr	r1, [sp, #8]
	str	r0, [r1, #12]
	b	.LBB14_3
.Ltmp69:
.LBB14_3:
	.loc	4 0 5 is_stmt 0                 @ libraries/STM32H7xx_HAL/STM32H7xx_HAL_Driver/Src/stm32h7xx_ll_fmc.c:0:5
	movs	r0, #0
	.loc	4 861 3 is_stmt 1               @ libraries/STM32H7xx_HAL/STM32H7xx_HAL_Driver/Src/stm32h7xx_ll_fmc.c:861:3
	add	sp, #12
	pop	{r4, pc}
.Ltmp70:
.Lfunc_end14:
	.size	FMC_SDRAM_Timing_Init, .Lfunc_end14-FMC_SDRAM_Timing_Init
	.cfi_endproc
	.cantunwind
	.fnend
                                        @ -- End function
	.section	.text.FMC_SDRAM_DeInit,"ax",%progbits
	.hidden	FMC_SDRAM_DeInit                @ -- Begin function FMC_SDRAM_DeInit
	.globl	FMC_SDRAM_DeInit
	.p2align	3
	.type	FMC_SDRAM_DeInit,%function
	.code	16                              @ @FMC_SDRAM_DeInit
	.thumb_func
FMC_SDRAM_DeInit:
.Lfunc_begin15:
	.loc	4 870 0                         @ libraries/STM32H7xx_HAL/STM32H7xx_HAL_Driver/Src/stm32h7xx_ll_fmc.c:870:0
	.fnstart
	.cfi_startproc
@ %bb.0:
	.pad	#8
	sub	sp, #8
	.cfi_def_cfa_offset 8
	str	r0, [sp, #4]
	str	r1, [sp]
.Ltmp71:
	.loc	4 876 3 prologue_end            @ libraries/STM32H7xx_HAL/STM32H7xx_HAL_Driver/Src/stm32h7xx_ll_fmc.c:876:3
	ldr	r1, [sp, #4]
	.loc	4 876 16 is_stmt 0              @ libraries/STM32H7xx_HAL/STM32H7xx_HAL_Driver/Src/stm32h7xx_ll_fmc.c:876:16
	ldr	r2, [sp]
	mov.w	r0, #720
	.loc	4 876 22                        @ libraries/STM32H7xx_HAL/STM32H7xx_HAL_Driver/Src/stm32h7xx_ll_fmc.c:876:22
	str.w	r0, [r1, r2, lsl #2]
	.loc	4 877 3 is_stmt 1               @ libraries/STM32H7xx_HAL/STM32H7xx_HAL_Driver/Src/stm32h7xx_ll_fmc.c:877:3
	ldr	r0, [sp, #4]
	.loc	4 877 16 is_stmt 0              @ libraries/STM32H7xx_HAL/STM32H7xx_HAL_Driver/Src/stm32h7xx_ll_fmc.c:877:16
	ldr	r1, [sp]
	.loc	4 877 11                        @ libraries/STM32H7xx_HAL/STM32H7xx_HAL_Driver/Src/stm32h7xx_ll_fmc.c:877:11
	add.w	r1, r0, r1, lsl #2
	mvn	r0, #-268435456
	.loc	4 877 22                        @ libraries/STM32H7xx_HAL/STM32H7xx_HAL_Driver/Src/stm32h7xx_ll_fmc.c:877:22
	str	r0, [r1, #8]
	.loc	4 878 3 is_stmt 1               @ libraries/STM32H7xx_HAL/STM32H7xx_HAL_Driver/Src/stm32h7xx_ll_fmc.c:878:3
	ldr	r1, [sp, #4]
	movs	r0, #0
	.loc	4 878 22 is_stmt 0              @ libraries/STM32H7xx_HAL/STM32H7xx_HAL_Driver/Src/stm32h7xx_ll_fmc.c:878:22
	str	r0, [r1, #16]
	.loc	4 879 3 is_stmt 1               @ libraries/STM32H7xx_HAL/STM32H7xx_HAL_Driver/Src/stm32h7xx_ll_fmc.c:879:3
	ldr	r1, [sp, #4]
	.loc	4 879 22 is_stmt 0              @ libraries/STM32H7xx_HAL/STM32H7xx_HAL_Driver/Src/stm32h7xx_ll_fmc.c:879:22
	str	r0, [r1, #20]
	.loc	4 880 3 is_stmt 1               @ libraries/STM32H7xx_HAL/STM32H7xx_HAL_Driver/Src/stm32h7xx_ll_fmc.c:880:3
	ldr	r1, [sp, #4]
	.loc	4 880 22 is_stmt 0              @ libraries/STM32H7xx_HAL/STM32H7xx_HAL_Driver/Src/stm32h7xx_ll_fmc.c:880:22
	str	r0, [r1, #24]
	.loc	4 882 3 is_stmt 1               @ libraries/STM32H7xx_HAL/STM32H7xx_HAL_Driver/Src/stm32h7xx_ll_fmc.c:882:3
	add	sp, #8
	bx	lr
.Ltmp72:
.Lfunc_end15:
	.size	FMC_SDRAM_DeInit, .Lfunc_end15-FMC_SDRAM_DeInit
	.cfi_endproc
	.cantunwind
	.fnend
                                        @ -- End function
	.section	.text.FMC_SDRAM_WriteProtection_Enable,"ax",%progbits
	.hidden	FMC_SDRAM_WriteProtection_Enable @ -- Begin function FMC_SDRAM_WriteProtection_Enable
	.globl	FMC_SDRAM_WriteProtection_Enable
	.p2align	3
	.type	FMC_SDRAM_WriteProtection_Enable,%function
	.code	16                              @ @FMC_SDRAM_WriteProtection_Enable
	.thumb_func
FMC_SDRAM_WriteProtection_Enable:
.Lfunc_begin16:
	.loc	4 911 0                         @ libraries/STM32H7xx_HAL/STM32H7xx_HAL_Driver/Src/stm32h7xx_ll_fmc.c:911:0
	.fnstart
	.cfi_startproc
@ %bb.0:
	.pad	#8
	sub	sp, #8
	.cfi_def_cfa_offset 8
	str	r0, [sp, #4]
	str	r1, [sp]
.Ltmp73:
	.loc	4 917 3 prologue_end            @ libraries/STM32H7xx_HAL/STM32H7xx_HAL_Driver/Src/stm32h7xx_ll_fmc.c:917:3
	ldr	r1, [sp, #4]
	ldr	r2, [sp]
	ldr.w	r0, [r1, r2, lsl #2]
	orr	r0, r0, #512
	str.w	r0, [r1, r2, lsl #2]
	movs	r0, #0
	.loc	4 919 3                         @ libraries/STM32H7xx_HAL/STM32H7xx_HAL_Driver/Src/stm32h7xx_ll_fmc.c:919:3
	add	sp, #8
	bx	lr
.Ltmp74:
.Lfunc_end16:
	.size	FMC_SDRAM_WriteProtection_Enable, .Lfunc_end16-FMC_SDRAM_WriteProtection_Enable
	.cfi_endproc
	.cantunwind
	.fnend
                                        @ -- End function
	.section	.text.FMC_SDRAM_WriteProtection_Disable,"ax",%progbits
	.hidden	FMC_SDRAM_WriteProtection_Disable @ -- Begin function FMC_SDRAM_WriteProtection_Disable
	.globl	FMC_SDRAM_WriteProtection_Disable
	.p2align	3
	.type	FMC_SDRAM_WriteProtection_Disable,%function
	.code	16                              @ @FMC_SDRAM_WriteProtection_Disable
	.thumb_func
FMC_SDRAM_WriteProtection_Disable:
.Lfunc_begin17:
	.loc	4 928 0                         @ libraries/STM32H7xx_HAL/STM32H7xx_HAL_Driver/Src/stm32h7xx_ll_fmc.c:928:0
	.fnstart
	.cfi_startproc
@ %bb.0:
	.pad	#8
	sub	sp, #8
	.cfi_def_cfa_offset 8
	str	r0, [sp, #4]
	str	r1, [sp]
.Ltmp75:
	.loc	4 934 3 prologue_end            @ libraries/STM32H7xx_HAL/STM32H7xx_HAL_Driver/Src/stm32h7xx_ll_fmc.c:934:3
	ldr	r1, [sp, #4]
	ldr	r2, [sp]
	ldr.w	r0, [r1, r2, lsl #2]
	bic	r0, r0, #512
	str.w	r0, [r1, r2, lsl #2]
	movs	r0, #0
	.loc	4 936 3                         @ libraries/STM32H7xx_HAL/STM32H7xx_HAL_Driver/Src/stm32h7xx_ll_fmc.c:936:3
	add	sp, #8
	bx	lr
.Ltmp76:
.Lfunc_end17:
	.size	FMC_SDRAM_WriteProtection_Disable, .Lfunc_end17-FMC_SDRAM_WriteProtection_Disable
	.cfi_endproc
	.cantunwind
	.fnend
                                        @ -- End function
	.section	.text.FMC_SDRAM_SendCommand,"ax",%progbits
	.hidden	FMC_SDRAM_SendCommand           @ -- Begin function FMC_SDRAM_SendCommand
	.globl	FMC_SDRAM_SendCommand
	.p2align	3
	.type	FMC_SDRAM_SendCommand,%function
	.code	16                              @ @FMC_SDRAM_SendCommand
	.thumb_func
FMC_SDRAM_SendCommand:
.Lfunc_begin18:
	.loc	4 948 0                         @ libraries/STM32H7xx_HAL/STM32H7xx_HAL_Driver/Src/stm32h7xx_ll_fmc.c:948:0
	.fnstart
	.cfi_startproc
@ %bb.0:
	.pad	#12
	sub	sp, #12
	.cfi_def_cfa_offset 12
	str	r0, [sp, #8]
	str	r1, [sp, #4]
	str	r2, [sp]
.Ltmp77:
	.loc	4 957 3 prologue_end            @ libraries/STM32H7xx_HAL/STM32H7xx_HAL_Driver/Src/stm32h7xx_ll_fmc.c:957:3
	ldr	r1, [sp, #4]
	ldr	r0, [r1]
	ldr	r2, [r1, #4]
	ldr	r3, [r1, #8]
	ldr	r1, [r1, #12]
	orrs	r0, r2
	mvn	r2, #31
	add.w	r2, r2, r3, lsl #5
	orrs	r0, r2
	orr.w	r2, r0, r1, lsl #9
	ldr	r1, [sp, #8]
	ldr	r0, [r1, #16]
	orrs	r0, r2
	str	r0, [r1, #16]
	movs	r0, #0
	.loc	4 963 3                         @ libraries/STM32H7xx_HAL/STM32H7xx_HAL_Driver/Src/stm32h7xx_ll_fmc.c:963:3
	add	sp, #12
	bx	lr
.Ltmp78:
.Lfunc_end18:
	.size	FMC_SDRAM_SendCommand, .Lfunc_end18-FMC_SDRAM_SendCommand
	.cfi_endproc
	.cantunwind
	.fnend
                                        @ -- End function
	.section	.text.FMC_SDRAM_ProgramRefreshRate,"ax",%progbits
	.hidden	FMC_SDRAM_ProgramRefreshRate    @ -- Begin function FMC_SDRAM_ProgramRefreshRate
	.globl	FMC_SDRAM_ProgramRefreshRate
	.p2align	3
	.type	FMC_SDRAM_ProgramRefreshRate,%function
	.code	16                              @ @FMC_SDRAM_ProgramRefreshRate
	.thumb_func
FMC_SDRAM_ProgramRefreshRate:
.Lfunc_begin19:
	.loc	4 973 0                         @ libraries/STM32H7xx_HAL/STM32H7xx_HAL_Driver/Src/stm32h7xx_ll_fmc.c:973:0
	.fnstart
	.cfi_startproc
@ %bb.0:
	.pad	#8
	sub	sp, #8
	.cfi_def_cfa_offset 8
	str	r0, [sp, #4]
	str	r1, [sp]
.Ltmp79:
	.loc	4 979 3 prologue_end            @ libraries/STM32H7xx_HAL/STM32H7xx_HAL_Driver/Src/stm32h7xx_ll_fmc.c:979:3
	ldr	r0, [sp, #4]
	ldr	r0, [r0, #20]
	movw	r1, #16382
	bics	r0, r1
	ldr	r1, [sp]
	orr.w	r0, r0, r1, lsl #1
	ldr	r1, [sp, #4]
	str	r0, [r1, #20]
	movs	r0, #0
	.loc	4 981 3                         @ libraries/STM32H7xx_HAL/STM32H7xx_HAL_Driver/Src/stm32h7xx_ll_fmc.c:981:3
	add	sp, #8
	bx	lr
.Ltmp80:
.Lfunc_end19:
	.size	FMC_SDRAM_ProgramRefreshRate, .Lfunc_end19-FMC_SDRAM_ProgramRefreshRate
	.cfi_endproc
	.cantunwind
	.fnend
                                        @ -- End function
	.section	.text.FMC_SDRAM_SetAutoRefreshNumber,"ax",%progbits
	.hidden	FMC_SDRAM_SetAutoRefreshNumber  @ -- Begin function FMC_SDRAM_SetAutoRefreshNumber
	.globl	FMC_SDRAM_SetAutoRefreshNumber
	.p2align	3
	.type	FMC_SDRAM_SetAutoRefreshNumber,%function
	.code	16                              @ @FMC_SDRAM_SetAutoRefreshNumber
	.thumb_func
FMC_SDRAM_SetAutoRefreshNumber:
.Lfunc_begin20:
	.loc	4 991 0                         @ libraries/STM32H7xx_HAL/STM32H7xx_HAL_Driver/Src/stm32h7xx_ll_fmc.c:991:0
	.fnstart
	.cfi_startproc
@ %bb.0:
	.pad	#8
	sub	sp, #8
	.cfi_def_cfa_offset 8
	str	r0, [sp, #4]
	str	r1, [sp]
.Ltmp81:
	.loc	4 997 3 prologue_end            @ libraries/STM32H7xx_HAL/STM32H7xx_HAL_Driver/Src/stm32h7xx_ll_fmc.c:997:3
	ldr	r0, [sp, #4]
	ldr	r0, [r0, #16]
	bic	r0, r0, #480
	ldr	r2, [sp]
	mvn	r1, #31
	add.w	r1, r1, r2, lsl #5
	orrs	r0, r1
	ldr	r1, [sp, #4]
	str	r0, [r1, #16]
	movs	r0, #0
	.loc	4 999 3                         @ libraries/STM32H7xx_HAL/STM32H7xx_HAL_Driver/Src/stm32h7xx_ll_fmc.c:999:3
	add	sp, #8
	bx	lr
.Ltmp82:
.Lfunc_end20:
	.size	FMC_SDRAM_SetAutoRefreshNumber, .Lfunc_end20-FMC_SDRAM_SetAutoRefreshNumber
	.cfi_endproc
	.cantunwind
	.fnend
                                        @ -- End function
	.section	.text.FMC_SDRAM_GetModeStatus,"ax",%progbits
	.hidden	FMC_SDRAM_GetModeStatus         @ -- Begin function FMC_SDRAM_GetModeStatus
	.globl	FMC_SDRAM_GetModeStatus
	.p2align	3
	.type	FMC_SDRAM_GetModeStatus,%function
	.code	16                              @ @FMC_SDRAM_GetModeStatus
	.thumb_func
FMC_SDRAM_GetModeStatus:
.Lfunc_begin21:
	.loc	4 1012 0                        @ libraries/STM32H7xx_HAL/STM32H7xx_HAL_Driver/Src/stm32h7xx_ll_fmc.c:1012:0
	.fnstart
	.cfi_startproc
@ %bb.0:
	.pad	#12
	sub	sp, #12
	.cfi_def_cfa_offset 12
	str	r0, [sp, #8]
	str	r1, [sp, #4]
.Ltmp83:
	.loc	4 1020 7 prologue_end           @ libraries/STM32H7xx_HAL/STM32H7xx_HAL_Driver/Src/stm32h7xx_ll_fmc.c:1020:7
	ldr	r0, [sp, #4]
.Ltmp84:
	.loc	4 1020 7 is_stmt 0              @ libraries/STM32H7xx_HAL/STM32H7xx_HAL_Driver/Src/stm32h7xx_ll_fmc.c:1020:7
	cbnz	r0, .LBB21_2
	b	.LBB21_1
.LBB21_1:
.Ltmp85:
	.loc	4 1022 25 is_stmt 1             @ libraries/STM32H7xx_HAL/STM32H7xx_HAL_Driver/Src/stm32h7xx_ll_fmc.c:1022:25
	ldr	r0, [sp, #8]
	.loc	4 1022 33 is_stmt 0             @ libraries/STM32H7xx_HAL/STM32H7xx_HAL_Driver/Src/stm32h7xx_ll_fmc.c:1022:33
	ldr	r0, [r0, #24]
	.loc	4 1022 38                       @ libraries/STM32H7xx_HAL/STM32H7xx_HAL_Driver/Src/stm32h7xx_ll_fmc.c:1022:38
	and	r0, r0, #6
	.loc	4 1022 12                       @ libraries/STM32H7xx_HAL/STM32H7xx_HAL_Driver/Src/stm32h7xx_ll_fmc.c:1022:12
	str	r0, [sp]
	.loc	4 1023 3 is_stmt 1              @ libraries/STM32H7xx_HAL/STM32H7xx_HAL_Driver/Src/stm32h7xx_ll_fmc.c:1023:3
	b	.LBB21_3
.Ltmp86:
.LBB21_2:
	.loc	4 1026 26                       @ libraries/STM32H7xx_HAL/STM32H7xx_HAL_Driver/Src/stm32h7xx_ll_fmc.c:1026:26
	ldr	r0, [sp, #8]
	.loc	4 1026 34 is_stmt 0             @ libraries/STM32H7xx_HAL/STM32H7xx_HAL_Driver/Src/stm32h7xx_ll_fmc.c:1026:34
	ldr	r0, [r0, #24]
	.loc	4 1026 39                       @ libraries/STM32H7xx_HAL/STM32H7xx_HAL_Driver/Src/stm32h7xx_ll_fmc.c:1026:39
	and	r0, r0, #24
	.loc	4 1026 58                       @ libraries/STM32H7xx_HAL/STM32H7xx_HAL_Driver/Src/stm32h7xx_ll_fmc.c:1026:58
	lsrs	r0, r0, #2
	.loc	4 1026 12                       @ libraries/STM32H7xx_HAL/STM32H7xx_HAL_Driver/Src/stm32h7xx_ll_fmc.c:1026:12
	str	r0, [sp]
	b	.LBB21_3
.Ltmp87:
.LBB21_3:
	.loc	4 1030 10 is_stmt 1             @ libraries/STM32H7xx_HAL/STM32H7xx_HAL_Driver/Src/stm32h7xx_ll_fmc.c:1030:10
	ldr	r0, [sp]
	.loc	4 1030 3 is_stmt 0              @ libraries/STM32H7xx_HAL/STM32H7xx_HAL_Driver/Src/stm32h7xx_ll_fmc.c:1030:3
	add	sp, #12
	bx	lr
.Ltmp88:
.Lfunc_end21:
	.size	FMC_SDRAM_GetModeStatus, .Lfunc_end21-FMC_SDRAM_GetModeStatus
	.cfi_endproc
	.cantunwind
	.fnend
                                        @ -- End function
	.file	5 "E:\\STM32\\Learning\\STM32H750_ART_PI_RGBLCD" "libraries/STM32H7xx_HAL/CMSIS/Device/ST/STM32H7xx/Include/stm32h750xx.h"
	.file	6 "E:\\STM32\\Learning\\STM32H750_ART_PI_RGBLCD" "libraries/STM32H7xx_HAL/STM32H7xx_HAL_Driver/Inc/stm32h7xx_ll_fmc.h"
	.section	".note.GNU-stack","",%progbits
	.eabi_attribute	30, 6	@ Tag_ABI_optimization_goals
	.ARM_attribute	16, 1	@ Tag_AV_eba