	.text
	.syntax unified
	.eabi_attribute	67, "2.09"	@ Tag_conformance
	.cpu	cortex-m7
	.eabi_attribute	6, 13	@ Tag_CPU_arch
	.eabi_attribute	7, 77	@ Tag_CPU_arch_profile
	.eabi_attribute	8, 0	@ Tag_ARM_ISA_use
	.eabi_attribute	9, 2	@ Tag_THUMB_ISA_use
	.fpu	fpv5-d16
	.eabi_attribute	36, 1	@ Tag_FP_HP_extension
	.eabi_attribute	34, 1	@ Tag_CPU_unaligned_access
	.eabi_attribute	17, 1	@ Tag_ABI_PCS_GOT_use
	.eabi_attribute	20, 2	@ Tag_ABI_FP_denormal
	.eabi_attribute	21, 0	@ Tag_ABI_FP_exceptions
	.eabi_attribute	23, 1	@ Tag_ABI_FP_number_model
	.eabi_attribute	24, 1	@ Tag_ABI_align_needed
	.eabi_attribute	25, 1	@ Tag_ABI_align_preserved
	.eabi_attribute	28, 1	@ Tag_ABI_VFP_args
	.eabi_attribute	38, 1	@ Tag_ABI_FP_16bit_format
	.eabi_attribute	18, 2	@ Tag_ABI_PCS_wchar_t
	.eabi_attribute	26, 1	@ Tag_ABI_enum_size
	.eabi_attribute	14, 0	@ Tag_ABI_PCS_R9_use
	.file	"stm32h7xx_hal.c"
	.file	1 "D:\\Keil_v5\\ARM\\ARMCLANG\\Bin\\..\\include" "stdint.h"
	.file	2 "E:\\Smart-access-control\\Hardware\\CODE" "libraries/STM32H7xx_HAL/STM32H7xx_HAL_Driver/Src/stm32h7xx_hal.c"
	.file	3 "E:\\Smart-access-control\\Hardware\\CODE" "libraries/STM32H7xx_HAL/STM32H7xx_HAL_Driver/Inc\\stm32h7xx_hal.h"
	.file	4 "E:\\Smart-access-control\\Hardware\\CODE" "libraries/STM32H7xx_HAL/STM32H7xx_HAL_Driver/Inc/stm32h7xx_hal_def.h"
	.file	5 "E:\\Smart-access-control\\Hardware\\CODE" "libraries/STM32H7xx_HAL/CMSIS/Device/ST/STM32H7xx/Include/stm32h750xx.h"
	.file	6 "E:\\Smart-access-control\\Hardware\\CODE" "libraries/STM32H7xx_HAL/CMSIS/Include\\core_cm7.h"
	.section	.text.HAL_Init,"ax",%progbits
	.hidden	HAL_Init                        @ -- Begin function HAL_Init
	.globl	HAL_Init
	.p2align	3
	.type	HAL_Init,%function
	.code	16                              @ @HAL_Init
	.thumb_func
HAL_Init:
.Lfunc_begin0:
	.loc	2 135 0                         @ libraries/STM32H7xx_HAL/STM32H7xx_HAL_Driver/Src/stm32h7xx_hal.c:135:0
	.fnstart
	.cfi_sections .debug_frame
	.cfi_startproc
@ %bb.0:
	.save	{r7, lr}
	push	{r7, lr}
	.cfi_def_cfa_offset 8
	.cfi_offset lr, -4
	.cfi_offset r7, -8
	.pad	#8
	sub	sp, #8
	.cfi_def_cfa_offset 16
	movs	r0, #3
.Ltmp0:
	.loc	2 145 3 prologue_end            @ libraries/STM32H7xx_HAL/STM32H7xx_HAL_Driver/Src/stm32h7xx_hal.c:145:3
	bl	HAL_NVIC_SetPriorityGrouping
	.loc	2 148 21                        @ libraries/STM32H7xx_HAL/STM32H7xx_HAL_Driver/Src/stm32h7xx_hal.c:148:21
	bl	HAL_RCC_GetSysClockFreq
	movw	r2, #17432
	movt	r2, #22530
	.loc	2 148 75 is_stmt 0              @ libraries/STM32H7xx_HAL/STM32H7xx_HAL_Driver/Src/stm32h7xx_hal.c:148:75
	ldr	r1, [r2]
	.loc	2 148 102                       @ libraries/STM32H7xx_HAL/STM32H7xx_HAL_Driver/Src/stm32h7xx_hal.c:148:102
	ubfx	r3, r1, #8, #4
	.loc	2 148 52                        @ libraries/STM32H7xx_HAL/STM32H7xx_HAL_Driver/Src/stm32h7xx_hal.c:148:52
	movw	r1, :lower16:D1CorePrescTable
	movt	r1, :upper16:D1CorePrescTable
	.loc	2 148 51                        @ libraries/STM32H7xx_HAL/STM32H7xx_HAL_Driver/Src/stm32h7xx_hal.c:148:51
	ldrb	r3, [r1, r3]
	.loc	2 148 129                       @ libraries/STM32H7xx_HAL/STM32H7xx_HAL_Driver/Src/stm32h7xx_hal.c:148:129
	and	r3, r3, #31
	.loc	2 148 47                        @ libraries/STM32H7xx_HAL/STM32H7xx_HAL_Driver/Src/stm32h7xx_hal.c:148:47
	lsr.w	r3, r0, r3
	.loc	2 148 19                        @ libraries/STM32H7xx_HAL/STM32H7xx_HAL_Driver/Src/stm32h7xx_hal.c:148:19
	movw	r0, :lower16:SystemCoreClock
	movt	r0, :upper16:SystemCoreClock
	str	r3, [r0]
	.loc	2 151 20 is_stmt 1              @ libraries/STM32H7xx_HAL/STM32H7xx_HAL_Driver/Src/stm32h7xx_hal.c:151:20
	ldr	r0, [r0]
	.loc	2 151 64 is_stmt 0              @ libraries/STM32H7xx_HAL/STM32H7xx_HAL_Driver/Src/stm32h7xx_hal.c:151:64
	ldr	r2, [r2]
	.loc	2 151 71                        @ libraries/STM32H7xx_HAL/STM32H7xx_HAL_Driver/Src/stm32h7xx_hal.c:151:71
	and	r2, r2, #15
	.loc	2 151 40                        @ libraries/STM32H7xx_HAL/STM32H7xx_HAL_Driver/Src/stm32h7xx_hal.c:151:40
	ldrb	r1, [r1, r2]
	.loc	2 151 114                       @ libraries/STM32H7xx_HAL/STM32H7xx_HAL_Driver/Src/stm32h7xx_hal.c:151:114
	and	r1, r1, #31
	.loc	2 151 36                        @ libraries/STM32H7xx_HAL/STM32H7xx_HAL_Driver/Src/stm32h7xx_hal.c:151:36
	lsrs	r0, r1
	.loc	2 151 17                        @ libraries/STM32H7xx_HAL/STM32H7xx_HAL_Driver/Src/stm32h7xx_hal.c:151:17
	movw	r1, :lower16:SystemD2Clock
	movt	r1, :upper16:SystemD2Clock
	str	r0, [r1]
	movs	r0, #0
.Ltmp1:
	.loc	2 154 6 is_stmt 1               @ libraries/STM32H7xx_HAL/STM32H7xx_HAL_Driver/Src/stm32h7xx_hal.c:154:6
	bl	HAL_InitTick
.Ltmp2:
	.loc	2 154 6 is_stmt 0               @ libraries/STM32H7xx_HAL/STM32H7xx_HAL_Driver/Src/stm32h7xx_hal.c:154:6
	cbz	r0, .LBB0_2
	b	.LBB0_1
.LBB0_1:
	.loc	2 0 6                           @ libraries/STM32H7xx_HAL/STM32H7xx_HAL_Driver/Src/stm32h7xx_hal.c:0:6
	movs	r0, #1
.Ltmp3:
	.loc	2 156 5 is_stmt 1               @ libraries/STM32H7xx_HAL/STM32H7xx_HAL_Driver/Src/stm32h7xx_hal.c:156:5
	strb.w	r0, [sp, #7]
	b	.LBB0_3
.Ltmp4:
.LBB0_2:
	.loc	2 160 3                         @ libraries/STM32H7xx_HAL/STM32H7xx_HAL_Driver/Src/stm32h7xx_hal.c:160:3
	bl	HAL_MspInit
	movs	r0, #0
	.loc	2 163 3                         @ libraries/STM32H7xx_HAL/STM32H7xx_HAL_Driver/Src/stm32h7xx_hal.c:163:3
	strb.w	r0, [sp, #7]
	b	.LBB0_3
.LBB0_3:
	.loc	2 164 1                         @ libraries/STM32H7xx_HAL/STM32H7xx_HAL_Driver/Src/stm32h7xx_hal.c:164:1
	ldrb.w	r0, [sp, #7]
	add	sp, #8
	pop	{r7, pc}
.Ltmp5:
.Lfunc_end0:
	.size	HAL_Init, .Lfunc_end0-HAL_Init
	.cfi_endproc
	.cantunwind
	.fnend
                                        @ -- End function
	.section	.text.HAL_InitTick,"ax",%progbits
	.hidden	HAL_InitTick                    @ -- Begin function HAL_InitTick
	.weak	HAL_InitTick
	.p2align	3
	.type	HAL_InitTick,%function
	.code	16                              @ @HAL_InitTick
	.thumb_func
HAL_InitTick:
.Lfunc_begin1:
	.loc	2 247 0                         @ libraries/STM32H7xx_HAL/STM32H7xx_HAL_Driver/Src/stm32h7xx_hal.c:247:0
	.fnstart
	.cfi_startproc
@ %bb.0:
	.save	{r7, lr}
	push	{r7, lr}
	.cfi_def_cfa_offset 8
	.cfi_offset lr, -4
	.cfi_offset r7, -8
	.pad	#8
	sub	sp, #8
	.cfi_def_cfa_offset 16
	str	r0, [sp]
.Ltmp6:
	.loc	2 249 16 prologue_end           @ libraries/STM32H7xx_HAL/STM32H7xx_HAL_Driver/Src/stm32h7xx_hal.c:249:16
	movw	r0, :lower16:uwTickFreq
	movt	r0, :upper16:uwTickFreq
	ldrb	r0, [r0]
.Ltmp7:
	.loc	2 249 6 is_stmt 0               @ libraries/STM32H7xx_HAL/STM32H7xx_HAL_Driver/Src/stm32h7xx_hal.c:249:6
	cbnz	r0, .LBB1_2
	b	.LBB1_1
.LBB1_1:
	.loc	2 0 6                           @ libraries/STM32H7xx_HAL/STM32H7xx_HAL_Driver/Src/stm32h7xx_hal.c:0:6
	movs	r0, #1
.Ltmp8:
	.loc	2 251 5 is_stmt 1               @ libraries/STM32H7xx_HAL/STM32H7xx_HAL_Driver/Src/stm32h7xx_hal.c:251:5
	strb.w	r0, [sp, #7]
	b	.LBB1_8
.Ltmp9:
.LBB1_2:
	.loc	2 275 26                        @ libraries/STM32H7xx_HAL/STM32H7xx_HAL_Driver/Src/stm32h7xx_hal.c:275:26
	movw	r0, :lower16:SystemCoreClock
	movt	r0, :upper16:SystemCoreClock
	ldr	r0, [r0]
	.loc	2 275 64 is_stmt 0              @ libraries/STM32H7xx_HAL/STM32H7xx_HAL_Driver/Src/stm32h7xx_hal.c:275:64
	movw	r1, :lower16:uwTickFreq
	movt	r1, :upper16:uwTickFreq
	ldrb	r2, [r1]
	mov.w	r1, #1000
	.loc	2 275 52                        @ libraries/STM32H7xx_HAL/STM32H7xx_HAL_Driver/Src/stm32h7xx_hal.c:275:52
	udiv	r1, r1, r2
	.loc	2 275 42                        @ libraries/STM32H7xx_HAL/STM32H7xx_HAL_Driver/Src/stm32h7xx_hal.c:275:42
	udiv	r0, r0, r1
	.loc	2 275 7                         @ libraries/STM32H7xx_HAL/STM32H7xx_HAL_Driver/Src/stm32h7xx_hal.c:275:7
	bl	HAL_SYSTICK_Config
.Ltmp10:
	.loc	2 275 7                         @ libraries/STM32H7xx_HAL/STM32H7xx_HAL_Driver/Src/stm32h7xx_hal.c:275:7
	cbz	r0, .LBB1_4
	b	.LBB1_3
.LBB1_3:
	.loc	2 0 7                           @ libraries/STM32H7xx_HAL/STM32H7xx_HAL_Driver/Src/stm32h7xx_hal.c:0:7
	movs	r0, #1
.Ltmp11:
	.loc	2 277 5 is_stmt 1               @ libraries/STM32H7xx_HAL/STM32H7xx_HAL_Driver/Src/stm32h7xx_hal.c:277:5
	strb.w	r0, [sp, #7]
	b	.LBB1_8
.Ltmp12:
.LBB1_4:
	.loc	2 282 7                         @ libraries/STM32H7xx_HAL/STM32H7xx_HAL_Driver/Src/stm32h7xx_hal.c:282:7
	ldr	r0, [sp]
.Ltmp13:
	.loc	2 282 7 is_stmt 0               @ libraries/STM32H7xx_HAL/STM32H7xx_HAL_Driver/Src/stm32h7xx_hal.c:282:7
	cmp	r0, #15
	bhi	.LBB1_6
	b	.LBB1_5
.LBB1_5:
.Ltmp14:
	.loc	2 284 40 is_stmt 1              @ libraries/STM32H7xx_HAL/STM32H7xx_HAL_Driver/Src/stm32h7xx_hal.c:284:40
	ldr	r1, [sp]
	mov.w	r0, #-1
	movs	r2, #0
	.loc	2 284 5 is_stmt 0               @ libraries/STM32H7xx_HAL/STM32H7xx_HAL_Driver/Src/stm32h7xx_hal.c:284:5
	bl	HAL_NVIC_SetPriority
	.loc	2 285 18 is_stmt 1              @ libraries/STM32H7xx_HAL/STM32H7xx_HAL_Driver/Src/stm32h7xx_hal.c:285:18
	ldr	r0, [sp]
	.loc	2 285 16 is_stmt 0              @ libraries/STM32H7xx_HAL/STM32H7xx_HAL_Driver/Src/stm32h7xx_hal.c:285:16
	movw	r1, :lower16:uwTickPrio
	movt	r1, :upper16:uwTickPrio
	str	r0, [r1]
	.loc	2 286 3 is_stmt 1               @ libraries/STM32H7xx_HAL/STM32H7xx_HAL_Driver/Src/stm32h7xx_hal.c:286:3
	b	.LBB1_7
.Ltmp15:
.LBB1_6:
	.loc	2 0 3 is_stmt 0                 @ libraries/STM32H7xx_HAL/STM32H7xx_HAL_Driver/Src/stm32h7xx_hal.c:0:3
	movs	r0, #1
.Ltmp16:
	.loc	2 289 5 is_stmt 1               @ libraries/STM32H7xx_HAL/STM32H7xx_HAL_Driver/Src/stm32h7xx_hal.c:289:5
	strb.w	r0, [sp, #7]
	b	.LBB1_8
.Ltmp17:
.LBB1_7:
	.loc	2 0 5 is_stmt 0                 @ libraries/STM32H7xx_HAL/STM32H7xx_HAL_Driver/Src/stm32h7xx_hal.c:0:5
	movs	r0, #0
	.loc	2 293 3 is_stmt 1               @ libraries/STM32H7xx_HAL/STM32H7xx_HAL_Driver/Src/stm32h7xx_hal.c:293:3
	strb.w	r0, [sp, #7]
	b	.LBB1_8
.LBB1_8:
	.loc	2 294 1                         @ libraries/STM32H7xx_HAL/STM32H7xx_HAL_Driver/Src/stm32h7xx_hal.c:294:1
	ldrb.w	r0, [sp, #7]
	add	sp, #8
	pop	{r7, pc}
.Ltmp18:
.Lfunc_end1:
	.size	HAL_InitTick, .Lfunc_end1-HAL_InitTick
	.cfi_endproc
	.cantunwind
	.fnend
                                        @ -- End function
	.section	.text.HAL_MspInit,"ax",%progbits
	.hidden	HAL_MspInit                     @ -- Begin function HAL_MspInit
	.weak	HAL_MspInit
	.p2align	3
	.type	HAL_MspInit,%function
	.code	16                              @ @HAL_MspInit
	.thumb_func
HAL_MspInit:
.Lfunc_begin2:
	.loc	2 213 0                         @ libraries/STM32H7xx_HAL/STM32H7xx_HAL_Driver/Src/stm32h7xx_hal.c:213:0
	.fnstart
	.cfi_startproc
@ %bb.0:
	.loc	2 217 1 prologue_end            @ libraries/STM32H7xx_HAL/STM32H7xx_HAL_Driver/Src/stm32h7xx_hal.c:217:1
	bx	lr
.Ltmp19:
.Lfunc_end2:
	.size	HAL_MspInit, .Lfunc_end2-HAL_MspInit
	.cfi_endproc
	.cantunwind
	.fnend
                                        @ -- End function
	.section	.text.HAL_DeInit,"ax",%progbits
	.hidden	HAL_DeInit                      @ -- Begin function HAL_DeInit
	.globl	HAL_DeInit
	.p2align	3
	.type	HAL_DeInit,%function
	.code	16                              @ @HAL_DeInit
	.thumb_func
HAL_DeInit:
.Lfunc_begin3:
	.loc	2 172 0                         @ libraries/STM32H7xx_HAL/STM32H7xx_HAL_Driver/Src/stm32h7xx_hal.c:172:0
	.fnstart
	.cfi_startproc
@ %bb.0:
	.save	{r7, lr}
	push	{r7, lr}
	.cfi_def_cfa_offset 8
	.cfi_offset lr, -4
	.cfi_offset r7, -8
	.pad	#8
	sub	sp, #8
	.cfi_def_cfa_offset 16
	movw	r1, #17532
	movt	r1, #22530
	mov.w	r2, #-1
.Ltmp20:
	.loc	2 174 3 prologue_end            @ libraries/STM32H7xx_HAL/STM32H7xx_HAL_Driver/Src/stm32h7xx_hal.c:174:3
	str	r2, [r1]
	movs	r0, #0
	.loc	2 175 3                         @ libraries/STM32H7xx_HAL/STM32H7xx_HAL_Driver/Src/stm32h7xx_hal.c:175:3
	str	r0, [sp, #4]                    @ 4-byte Spill
	str	r0, [r1]
	movw	r1, #17536
	movt	r1, #22530
	.loc	2 177 3                         @ libraries/STM32H7xx_HAL/STM32H7xx_HAL_Driver/Src/stm32h7xx_hal.c:177:3
	str	r2, [r1]
	.loc	2 178 3                         @ libraries/STM32H7xx_HAL/STM32H7xx_HAL_Driver/Src/stm32h7xx_hal.c:178:3
	str	r0, [r1]
	movw	r1, #17540
	movt	r1, #22530
	.loc	2 180 3                         @ libraries/STM32H7xx_HAL/STM32H7xx_HAL_Driver/Src/stm32h7xx_hal.c:180:3
	str	r2, [r1]
	.loc	2 181 3                         @ libraries/STM32H7xx_HAL/STM32H7xx_HAL_Driver/Src/stm32h7xx_hal.c:181:3
	str	r0, [r1]
	movw	r1, #17544
	movt	r1, #22530
	.loc	2 183 3                         @ libraries/STM32H7xx_HAL/STM32H7xx_HAL_Driver/Src/stm32h7xx_hal.c:183:3
	str	r2, [r1]
	.loc	2 184 2                         @ libraries/STM32H7xx_HAL/STM32H7xx_HAL_Driver/Src/stm32h7xx_hal.c:184:2
	str	r0, [r1]
	movw	r1, #17548
	movt	r1, #22530
	.loc	2 186 3                         @ libraries/STM32H7xx_HAL/STM32H7xx_HAL_Driver/Src/stm32h7xx_hal.c:186:3
	str	r2, [r1]
	.loc	2 187 3                         @ libraries/STM32H7xx_HAL/STM32H7xx_HAL_Driver/Src/stm32h7xx_hal.c:187:3
	str	r0, [r1]
	movw	r1, #17552
	movt	r1, #22530
	.loc	2 189 3                         @ libraries/STM32H7xx_HAL/STM32H7xx_HAL_Driver/Src/stm32h7xx_hal.c:189:3
	str	r2, [r1]
	.loc	2 190 3                         @ libraries/STM32H7xx_HAL/STM32H7xx_HAL_Driver/Src/stm32h7xx_hal.c:190:3
	str	r0, [r1]
	movw	r1, #17556
	movt	r1, #22530
	.loc	2 192 3                         @ libraries/STM32H7xx_HAL/STM32H7xx_HAL_Driver/Src/stm32h7xx_hal.c:192:3
	str	r2, [r1]
	.loc	2 193 3                         @ libraries/STM32H7xx_HAL/STM32H7xx_HAL_Driver/Src/stm32h7xx_hal.c:193:3
	str	r0, [r1]
	movw	r1, #17560
	movt	r1, #22530
	.loc	2 195 4                         @ libraries/STM32H7xx_HAL/STM32H7xx_HAL_Driver/Src/stm32h7xx_hal.c:195:4
	str	r2, [r1]
	.loc	2 196 4                         @ libraries/STM32H7xx_HAL/STM32H7xx_HAL_Driver/Src/stm32h7xx_hal.c:196:4
	str	r0, [r1]
	movw	r1, #17564
	movt	r1, #22530
	.loc	2 198 3                         @ libraries/STM32H7xx_HAL/STM32H7xx_HAL_Driver/Src/stm32h7xx_hal.c:198:3
	str	r2, [r1]
	.loc	2 199 3                         @ libraries/STM32H7xx_HAL/STM32H7xx_HAL_Driver/Src/stm32h7xx_hal.c:199:3
	str	r0, [r1]
	.loc	2 202 3                         @ libraries/STM32H7xx_HAL/STM32H7xx_HAL_Driver/Src/stm32h7xx_hal.c:202:3
	bl	HAL_MspDeInit
	ldr	r0, [sp, #4]                    @ 4-byte Reload
	.loc	2 205 3                         @ libraries/STM32H7xx_HAL/STM32H7xx_HAL_Driver/Src/stm32h7xx_hal.c:205:3
	add	sp, #8
	pop	{r7, pc}
.Ltmp21:
.Lfunc_end3:
	.size	HAL_DeInit, .Lfunc_end3-HAL_DeInit
	.cfi_endproc
	.cantunwind
	.fnend
                                        @ -- End function
	.section	.text.HAL_MspDeInit,"ax",%progbits
	.hidden	HAL_MspDeInit                   @ -- Begin function HAL_MspDeInit
	.weak	HAL_MspDeInit
	.p2align	3
	.type	HAL_MspDeInit,%function
	.code	16                              @ @HAL_MspDeInit
	.thumb_func
HAL_MspDeInit:
.Lfunc_begin4:
	.loc	2 224 0                         @ libraries/STM32H7xx_HAL/STM32H7xx_HAL_Driver/Src/stm32h7xx_hal.c:224:0
	.fnstart
	.cfi_startproc
@ %bb.0:
	.loc	2 228 1 prologue_end            @ libraries/STM32H7xx_HAL/STM32H7xx_HAL_Driver/Src/stm32h7xx_hal.c:228:1
	bx	lr
.Ltmp22:
.Lfunc_end4:
	.size	HAL_MspDeInit, .Lfunc_end4-HAL_MspDeInit
	.cfi_endproc
	.cantunwind
	.fnend
                                        @ -- End function
	.section	.text.HAL_IncTick,"ax",%progbits
	.hidden	HAL_IncTick                     @ -- Begin function HAL_IncTick
	.weak	HAL_IncTick
	.p2align	3
	.type	HAL_IncTick,%function
	.code	16                              @ @HAL_IncTick
	.thumb_func
HAL_IncTick:
.Lfunc_begin5:
	.loc	2 333 0                         @ libraries/STM32H7xx_HAL/STM32H7xx_HAL_Driver/Src/stm32h7xx_hal.c:333:0
	.fnstart
	.cfi_startproc
@ %bb.0:
	.loc	2 334 23 prologue_end           @ libraries/STM32H7xx_HAL/STM32H7xx_HAL_Driver/Src/stm32h7xx_hal.c:334:23
	movw	r0, :lower16:uwTickFreq
	movt	r0, :upper16:uwTickFreq
	ldrb	r2, [r0]
	.loc	2 334 10 is_stmt 0              @ libraries/STM32H7xx_HAL/STM32H7xx_HAL_Driver/Src/stm32h7xx_hal.c:334:10
	movw	r1, :lower16:uwTick
	movt	r1, :upper16:uwTick
	ldr	r0, [r1]
	add	r0, r2
	str	r0, [r1]
	.loc	2 335 1 is_stmt 1               @ libraries/STM32H7xx_HAL/STM32H7xx_HAL_Driver/Src/stm32h7xx_hal.c:335:1
	bx	lr
.Ltmp23:
.Lfunc_end5:
	.size	HAL_IncTick, .Lfunc_end5-HAL_IncTick
	.cfi_endproc
	.cantunwind
	.fnend
                                        @ -- End function
	.section	.text.HAL_GetTick,"ax",%progbits
	.hidden	HAL_GetTick                     @ -- Begin function HAL_GetTick
	.weak	HAL_GetTick
	.p2align	3
	.type	HAL_GetTick,%function
	.code	16                              @ @HAL_GetTick
	.thumb_func
HAL_GetTick:
.Lfunc_begin6:
	.loc	2 344 0                         @ libraries/STM32H7xx_HAL/STM32H7xx_HAL_Driver/Src/stm32h7xx_hal.c:344:0
	.fnstart
	.cfi_startproc
@ %bb.0:
	.loc	2 345 10 prologue_end           @ libraries/STM32H7xx_HAL/STM32H7xx_HAL_Driver/Src/stm32h7xx_hal.c:345:10
	movw	r0, :lower16:uwTick
	movt	r0, :upper16:uwTick
	ldr	r0, [r0]
	.loc	2 345 3 is_stmt 0               @ libraries/STM32H7xx_HAL/STM32H7xx_HAL_Driver/Src/stm32h7xx_hal.c:345:3
	bx	lr
.Ltmp24:
.Lfunc_end6:
	.size	HAL_GetTick, .Lfunc_end6-HAL_GetTick
	.cfi_endproc
	.cantunwind
	.fnend
                                        @ -- End function
	.section	.text.HAL_GetTickPrio,"ax",%progbits
	.hidden	HAL_GetTickPrio                 @ -- Begin function HAL_GetTickPrio
	.globl	HAL_GetTickPrio
	.p2align	3
	.type	HAL_GetTickPrio,%function
	.code	16                              @ @HAL_GetTickPrio
	.thumb_func
HAL_GetTickPrio:
.Lfunc_begin7:
	.loc	2 353 0 is_stmt 1               @ libraries/STM32H7xx_HAL/STM32H7xx_HAL_Driver/Src/stm32h7xx_hal.c:353:0
	.fnstart
	.cfi_startproc
@ %bb.0:
	.loc	2 354 10 prologue_end           @ libraries/STM32H7xx_HAL/STM32H7xx_HAL_Driver/Src/stm32h7xx_hal.c:354:10
	movw	r0, :lower16:uwTickPrio
	movt	r0, :upper16:uwTickPrio
	ldr	r0, [r0]
	.loc	2 354 3 is_stmt 0               @ libraries/STM32H7xx_HAL/STM32H7xx_HAL_Driver/Src/stm32h7xx_hal.c:354:3
	bx	lr
.Ltmp25:
.Lfunc_end7:
	.size	HAL_GetTickPrio, .Lfunc_end7-HAL_GetTickPrio
	.cfi_endproc
	.cantunwind
	.fnend
                                        @ -- End function
	.section	.text.HAL_SetTickFreq,"ax",%progbits
	.hidden	HAL_SetTickFreq                 @ -- Begin function HAL_SetTickFreq
	.globl	HAL_SetTickFreq
	.p2align	3
	.type	HAL_SetTickFreq,%function
	.code	16                              @ @HAL_SetTickFreq
	.thumb_func
HAL_SetTickFreq:
.Lfunc_begin8:
	.loc	2 362 0 is_stmt 1               @ libraries/STM32H7xx_HAL/STM32H7xx_HAL_Driver/Src/stm32h7xx_hal.c:362:0
	.fnstart
	.cfi_startproc
@ %bb.0:
	.save	{r7, lr}
	push	{r7, lr}
	.cfi_def_cfa_offset 8
	.cfi_offset lr, -4
	.cfi_offset r7, -8
	.pad	#8
	sub	sp, #8
	.cfi_def_cfa_offset 16
                                        @ kill: def $r1 killed $r0
	strb.w	r0, [sp, #7]
	movs	r0, #0
.Ltmp26:
	.loc	2 363 21 prologue_end           @ libraries/STM32H7xx_HAL/STM32H7xx_HAL_Driver/Src/stm32h7xx_hal.c:363:21
	strb.w	r0, [sp, #6]
.Ltmp27:
	.loc	2 366 7                         @ libraries/STM32H7xx_HAL/STM32H7xx_HAL_Driver/Src/stm32h7xx_hal.c:366:7
	movw	r0, :lower16:uwTickFreq
	movt	r0, :upper16:uwTickFreq
	ldrb	r0, [r0]
	.loc	2 366 21 is_stmt 0              @ libraries/STM32H7xx_HAL/STM32H7xx_HAL_Driver/Src/stm32h7xx_hal.c:366:21
	ldrb.w	r1, [sp, #7]
.Ltmp28:
	.loc	2 366 7                         @ libraries/STM32H7xx_HAL/STM32H7xx_HAL_Driver/Src/stm32h7xx_hal.c:366:7
	cmp	r0, r1
	beq	.LBB8_2
	b	.LBB8_1
.LBB8_1:
.Ltmp29:
	.loc	2 368 18 is_stmt 1              @ libraries/STM32H7xx_HAL/STM32H7xx_HAL_Driver/Src/stm32h7xx_hal.c:368:18
	ldrb.w	r0, [sp, #7]
	.loc	2 368 16 is_stmt 0              @ libraries/STM32H7xx_HAL/STM32H7xx_HAL_Driver/Src/stm32h7xx_hal.c:368:16
	movw	r1, :lower16:uwTickFreq
	movt	r1, :upper16:uwTickFreq
	strb	r0, [r1]
	.loc	2 371 27 is_stmt 1              @ libraries/STM32H7xx_HAL/STM32H7xx_HAL_Driver/Src/stm32h7xx_hal.c:371:27
	movw	r0, :lower16:uwTickPrio
	movt	r0, :upper16:uwTickPrio
	ldr	r0, [r0]
	.loc	2 371 14 is_stmt 0              @ libraries/STM32H7xx_HAL/STM32H7xx_HAL_Driver/Src/stm32h7xx_hal.c:371:14
	bl	HAL_InitTick
	.loc	2 371 12                        @ libraries/STM32H7xx_HAL/STM32H7xx_HAL_Driver/Src/stm32h7xx_hal.c:371:12
	strb.w	r0, [sp, #6]
	.loc	2 372 3 is_stmt 1               @ libraries/STM32H7xx_HAL/STM32H7xx_HAL_Driver/Src/stm32h7xx_hal.c:372:3
	b	.LBB8_2
.Ltmp30:
.LBB8_2:
	.loc	2 374 10                        @ libraries/STM32H7xx_HAL/STM32H7xx_HAL_Driver/Src/stm32h7xx_hal.c:374:10
	ldrb.w	r0, [sp, #6]
	.loc	2 374 3 is_stmt 0               @ libraries/STM32H7xx_HAL/STM32H7xx_HAL_Driver/Src/stm32h7xx_hal.c:374:3
	add	sp, #8
	pop	{r7, pc}
.Ltmp31:
.Lfunc_end8:
	.size	HAL_SetTickFreq, .Lfunc_end8-HAL_SetTickFreq
	.cfi_endproc
	.cantunwind
	.fnend
                                        @ -- End function
	.section	.text.HAL_GetTickFreq,"ax",%progbits
	.hidden	HAL_GetTickFreq                 @ -- Begin function HAL_GetTickFreq
	.globl	HAL_GetTickFreq
	.p2align	3
	.type	HAL_GetTickFreq,%function
	.code	16                              @ @HAL_GetTickFreq
	.thumb_func
HAL_GetTickFreq:
.Lfunc_begin9:
	.loc	2 382 0 is_stmt 1               @ libraries/STM32H7xx_HAL/STM32H7xx_HAL_Driver/Src/stm32h7xx_hal.c:382:0
	.fnstart
	.cfi_startproc
@ %bb.0:
	.loc	2 383 10 prologue_end           @ libraries/STM32H7xx_HAL/STM32H7xx_HAL_Driver/Src/stm32h7xx_hal.c:383:10
	movw	r0, :lower16:uwTickFreq
	movt	r0, :upper16:uwTickFreq
	ldrb	r0, [r0]
	.loc	2 383 3 is_stmt 0               @ libraries/STM32H7xx_HAL/STM32H7xx_HAL_Driver/Src/stm32h7xx_hal.c:383:3
	bx	lr
.Ltmp32:
.Lfunc_end9:
	.size	HAL_GetTickFreq, .Lfunc_end9-HAL_GetTickFreq
	.cfi_endproc
	.cantunwind
	.fnend
                                        @ -- End function
	.section	.text.HAL_Delay,"ax",%progbits
	.hidden	HAL_Delay                       @ -- Begin function HAL_Delay
	.weak	HAL_Delay
	.p2align	3
	.type	HAL_Delay,%function
	.code	16                              @ @HAL_Delay
	.thumb_func
HAL_Delay:
.Lfunc_begin10:
	.loc	2 398 0 is_stmt 1               @ libraries/STM32H7xx_HAL/STM32H7xx_HAL_Driver/Src/stm32h7xx_hal.c:398:0
	.fnstart
	.cfi_startproc
@ %bb.0:
	.save	{r7, lr}
	push	{r7, lr}
	.cfi_def_cfa_offset 8
	.cfi_offset lr, -4
	.cfi_offset r7, -8
	.pad	#16
	sub	sp, #16
	.cfi_def_cfa_offset 24
	str	r0, [sp, #12]
.Ltmp33:
	.loc	2 399 24 prologue_end           @ libraries/STM32H7xx_HAL/STM32H7xx_HAL_Driver/Src/stm32h7xx_hal.c:399:24
	bl	HAL_GetTick
	.loc	2 399 12 is_stmt 0              @ libraries/STM32H7xx_HAL/STM32H7xx_HAL_Driver/Src/stm32h7xx_hal.c:399:12
	str	r0, [sp, #8]
	.loc	2 400 19 is_stmt 1              @ libraries/STM32H7xx_HAL/STM32H7xx_HAL_Driver/Src/stm32h7xx_hal.c:400:19
	ldr	r0, [sp, #12]
	.loc	2 400 12 is_stmt 0              @ libraries/STM32H7xx_HAL/STM32H7xx_HAL_Driver/Src/stm32h7xx_hal.c:400:12
	str	r0, [sp, #4]
.Ltmp34:
	.loc	2 403 7 is_stmt 1               @ libraries/STM32H7xx_HAL/STM32H7xx_HAL_Driver/Src/stm32h7xx_hal.c:403:7
	ldr	r0, [sp, #4]
.Ltmp35:
	.loc	2 403 7 is_stmt 0               @ libraries/STM32H7xx_HAL/STM32H7xx_HAL_Driver/Src/stm32h7xx_hal.c:403:7
	adds	r0, #1
	cbz	r0, .LBB10_2
	b	.LBB10_1
.LBB10_1:
.Ltmp36:
	.loc	2 405 24 is_stmt 1              @ libraries/STM32H7xx_HAL/STM32H7xx_HAL_Driver/Src/stm32h7xx_hal.c:405:24
	movw	r0, :lower16:uwTickFreq
	movt	r0, :upper16:uwTickFreq
	ldrb	r1, [r0]
	.loc	2 405 10 is_stmt 0              @ libraries/STM32H7xx_HAL/STM32H7xx_HAL_Driver/Src/stm32h7xx_hal.c:405:10
	ldr	r0, [sp, #4]
	add	r0, r1
	str	r0, [sp, #4]
	.loc	2 406 3 is_stmt 1               @ libraries/STM32H7xx_HAL/STM32H7xx_HAL_Driver/Src/stm32h7xx_hal.c:406:3
	b	.LBB10_2
.Ltmp37:
.LBB10_2:
	.loc	2 408 3                         @ libraries/STM32H7xx_HAL/STM32H7xx_HAL_Driver/Src/stm32h7xx_hal.c:408:3
	b	.LBB10_3
.LBB10_3:                               @ =>This Inner Loop Header: Depth=1
	.loc	2 408 11 is_stmt 0              @ libraries/STM32H7xx_HAL/STM32H7xx_HAL_Driver/Src/stm32h7xx_hal.c:408:11
	bl	HAL_GetTick
	.loc	2 408 27                        @ libraries/STM32H7xx_HAL/STM32H7xx_HAL_Driver/Src/stm32h7xx_hal.c:408:27
	ldr	r1, [sp, #8]
	.loc	2 408 25                        @ libraries/STM32H7xx_HAL/STM32H7xx_HAL_Driver/Src/stm32h7xx_hal.c:408:25
	subs	r0, r0, r1
	.loc	2 408 40                        @ libraries/STM32H7xx_HAL/STM32H7xx_HAL_Driver/Src/stm32h7xx_hal.c:408:40
	ldr	r1, [sp, #4]
	.loc	2 408 3                         @ libraries/STM32H7xx_HAL/STM32H7xx_HAL_Driver/Src/stm32h7xx_hal.c:408:3
	cmp	r0, r1
	bhs	.LBB10_5
	b	.LBB10_4
.LBB10_4:                               @   in Loop: Header=BB10_3 Depth=1
	b	.LBB10_3
.LBB10_5:
	.loc	2 411 1 is_stmt 1               @ libraries/STM32H7xx_HAL/STM32H7xx_HAL_Driver/Src/stm32h7xx_hal.c:411:1
	add	sp, #16
	pop	{r7, pc}
.Ltmp38:
.Lfunc_end10:
	.size	HAL_Delay, .Lfunc_end10-HAL_Delay
	.cfi_endproc
	.cantunwind
	.fnend
                                        @ -- End function
	.section	.text.HAL_SuspendTick,"ax",%progbits
	.hidden	HAL_SuspendTick                 @ -- Begin function HAL_SuspendTick
	.weak	HAL_SuspendTick
	.p2align	3
	.type	HAL_SuspendTick,%function
	.code	16                              @ @HAL_SuspendTick
	.thumb_func
HAL_SuspendTick:
.Lfunc_begin11:
	.loc	2 424 0                         @ libraries/STM32H7xx_HAL/STM32H7xx_HAL_Driver/Src/stm32h7xx_hal.c:424:0
	.fnstart
	.cfi_startproc
@ %bb.0:
	movw	r1, #57360
	movt	r1, #57344
.Ltmp39:
	.loc	2 426 17 prologue_end           @ libraries/STM32H7xx_HAL/STM32H7xx_HAL_Driver/Src/stm32h7xx_hal.c:426:17
	ldr	r0, [r1]
	bic	r0, r0, #2
	str	r0, [r1]
	.loc	2 427 1                         @ libraries/STM32H7xx_HAL/STM32H7xx_HAL_Driver/Src/stm32h7xx_hal.c:427:1
	bx	lr
.Ltmp40:
.Lfunc_end11:
	.size	HAL_SuspendTick, .Lfunc_end11-HAL_SuspendTick
	.cfi_endproc
	.cantunwind
	.fnend
                                        @ -- End function
	.section	.text.HAL_ResumeTick,"ax",%progbits
	.hidden	HAL_ResumeTick                  @ -- Begin function HAL_ResumeTick
	.weak	HAL_ResumeTick
	.p2align	3
	.type	HAL_ResumeTick,%function
	.code	16                              @ @HAL_ResumeTick
	.thumb_func
HAL_ResumeTick:
.Lfunc_begin12:
	.loc	2 440 0                         @ libraries/STM32H7xx_HAL/STM32H7xx_HAL_Driver/Src/stm32h7xx_hal.c:440:0
	.fnstart
	.cfi_startproc
@ %bb.0:
	movw	r1, #57360
	movt	r1, #57344
.Ltmp41:
	.loc	2 442 18 prologue_end           @ libraries/STM32H7xx_HAL/STM32H7xx_HAL_Driver/Src/stm32h7xx_hal.c:442:18
	ldr	r0, [r1]
	orr	r0, r0, #2
	str	r0, [r1]
	.loc	2 443 1                         @ libraries/STM32H7xx_HAL/STM32H7xx_HAL_Driver/Src/stm32h7xx_hal.c:443:1
	bx	lr
.Ltmp42:
.Lfunc_end12:
	.size	HAL_ResumeTick, .Lfunc_end12-HAL_ResumeTick
	.cfi_endproc
	.cantunwind
	.fnend
                                        @ -- End function
	.section	.text.HAL_GetHalVersion,"ax",%progbits
	.hidden	HAL_GetHalVersion               @ -- Begin function HAL_GetHalVersion
	.globl	HAL_GetHalVersion
	.p2align	3
	.type	HAL_GetHalVersion,%function
	.code	16                              @ @HAL_GetHalVersion
	.thumb_func
HAL_GetHalVersion:
.Lfunc_begin13:
	.loc	2 450 0                         @ libraries/STM32H7xx_HAL/STM32H7xx_HAL_Driver/Src/stm32h7xx_hal.c:450:0
	.fnstart
	.cfi_startproc
@ %bb.0:
	mov.w	r0, #17170432
.Ltmp43:
	.loc	2 451 2 prologue_end            @ libraries/STM32H7xx_HAL/STM32H7xx_HAL_Driver/Src/stm32h7xx_hal.c:451:2
	bx	lr
.Ltmp44:
.Lfunc_end13:
	.size	HAL_GetHalVersion, .Lfunc_end13-HAL_GetHalVersion
	.cfi_endproc
	.cantunwind
	.fnend
                                        @ -- End function
	.section	.text.HAL_GetREVID,"ax",%progbits
	.hidden	HAL_GetREVID                    @ -- Begin function HAL_GetREVID
	.globl	HAL_GetREVID
	.p2align	3
	.type	HAL_GetREVID,%function
	.code	16                              @ @HAL_GetREVID
	.thumb_func
HAL_GetREVID:
.Lfunc_begin14:
	.loc	2 459 0                         @ libraries/STM32H7xx_HAL/STM32H7xx_HAL_Driver/Src/stm32h7xx_hal.c:459:0
	.fnstart
	.cfi_startproc
@ %bb.0:
	movw	r0, #4096
	movt	r0, #23552
.Ltmp45:
	.loc	2 460 20 prologue_end           @ libraries/STM32H7xx_HAL/STM32H7xx_HAL_Driver/Src/stm32h7xx_hal.c:460:20
	ldr	r0, [r0]
	.loc	2 460 28 is_stmt 0              @ libraries/STM32H7xx_HAL/STM32H7xx_HAL_Driver/Src/stm32h7xx_hal.c:460:28
	lsrs	r0, r0, #16
	.loc	2 460 4                         @ libraries/STM32H7xx_HAL/STM32H7xx_HAL_Driver/Src/stm32h7xx_hal.c:460:4
	bx	lr
.Ltmp46:
.Lfunc_end14:
	.size	HAL_GetREVID, .Lfunc_end14-HAL_GetREVID
	.cfi_endproc
	.cantunwind
	.fnend
                                        @ -- End function
	.section	.text.HAL_GetDEVID,"ax",%progbits
	.hidden	HAL_GetDEVID                    @ -- Begin function HAL_GetDEVID
	.globl	HAL_GetDEVID
	.p2align	3
	.type	HAL_GetDEVID,%function
	.code	16                              @ @HAL_GetDEVID
	.thumb_func
HAL_GetDEVID:
.Lfunc_begin15:
	.loc	2 468 0 is_stmt 1               @ libraries/STM32H7xx_HAL/STM32H7xx_HAL_Driver/Src/stm32h7xx_hal.c:468:0
	.fnstart
	.cfi_startproc
@ %bb.0:
	movw	r0, #4096
	movt	r0, #23552
.Ltmp47:
	.loc	2 469 20 prologue_end           @ libraries/STM32H7xx_HAL/STM32H7xx_HAL_Driver/Src/stm32h7xx_hal.c:469:20
	ldr	r0, [r0]
	.loc	2 469 28 is_stmt 0              @ libraries/STM32H7xx_HAL/STM32H7xx_HAL_Driver/Src/stm32h7xx_hal.c:469:28
	bfc	r0, #12, #20
	.loc	2 469 4                         @ libraries/STM32H7xx_HAL/STM32H7xx_HAL_Driver/Src/stm32h7xx_hal.c:469:4
	bx	lr
.Ltmp48:
.Lfunc_end15:
	.size	HAL_GetDEVID, .Lfunc_end15-HAL_GetDEVID
	.cfi_endproc
	.cantunwind
	.fnend
                                        @ -- End function
	.section	.text.HAL_GetUIDw0,"ax",%progbits
	.hidden	HAL_GetUIDw0                    @ -- Begin function HAL_GetUIDw0
	.globl	HAL_GetUIDw0
	.p2align	3
	.type	HAL_GetUIDw0,%function
	.code	16                              @ @HAL_GetUIDw0
	.thumb_func
HAL_GetUIDw0:
.Lfunc_begin16:
	.loc	2 477 0 is_stmt 1               @ libraries/STM32H7xx_HAL/STM32H7xx_HAL_Driver/Src/stm32h7xx_hal.c:477:0
	.fnstart
	.cfi_startproc
@ %bb.0:
	movw	r0, #59392
	movt	r0, #8177
.Ltmp49:
	.loc	2 478 10 prologue_end           @ libraries/STM32H7xx_HAL/STM32H7xx_HAL_Driver/Src/stm32h7xx_hal.c:478:10
	ldr	r0, [r0]
	.loc	2 478 3 is_stmt 0               @ libraries/STM32H7xx_HAL/STM32H7xx_HAL_Driver/Src/stm32h7xx_hal.c:478:3
	bx	lr
.Ltmp50:
.Lfunc_end16:
	.size	HAL_GetUIDw0, .Lfunc_end16-HAL_GetUIDw0
	.cfi_endproc
	.cantunwind
	.fnend
                                        @ -- End function
	.section	.text.HAL_GetUIDw1,"ax",%progbits
	.hidden	HAL_GetUIDw1                    @ -- Begin function HAL_GetUIDw1
	.globl	HAL_GetUIDw1
	.p2align	3
	.type	HAL_GetUIDw1,%function
	.code	16                              @ @HAL_GetUIDw1
	.thumb_func
HAL_GetUIDw1:
.Lfunc_begin17:
	.loc	2 486 0 is_stmt 1               @ libraries/STM32H7xx_HAL/STM32H7xx_HAL_Driver/Src/stm32h7xx_hal.c:486:0
	.fnstart
	.cfi_startproc
@ %bb.0:
	movw	r0, #59396
	movt	r0, #8177
.Ltmp51:
	.loc	2 487 10 prologue_end           @ libraries/STM32H7xx_HAL/STM32H7xx_HAL_Driver/Src/stm32h7xx_hal.c:487:10
	ldr	r0, [r0]
	.loc	2 487 3 is_stmt 0               @ libraries/STM32H7xx_HAL/STM32H7xx_HAL_Driver/Src/stm32h7xx_hal.c:487:3
	bx	lr
.Ltmp52:
.Lfunc_end17:
	.size	HAL_GetUIDw1, .Lfunc_end17-HAL_GetUIDw1
	.cfi_endproc
	.cantunwind
	.fnend
                                        @ -- End function
	.section	.text.HAL_GetUIDw2,"ax",%progbits
	.hidden	HAL_GetUIDw2                    @ -- Begin function HAL_GetUIDw2
	.globl	HAL_GetUIDw2
	.p2align	3
	.type	HAL_GetUIDw2,%function
	.code	16                              @ @HAL_GetUIDw2
	.thumb_func
HAL_GetUIDw2:
.Lfunc_begin18:
	.loc	2 495 0 is_stmt 1               @ libraries/STM32H7xx_HAL/STM32H7xx_HAL_Driver/Src/stm32h7xx_hal.c:495:0
	.fnstart
	.cfi_startproc
@ %bb.0:
	movw	r0, #59400
	movt	r0, #8177
.Ltmp53:
	.loc	2 496 10 prologue_end           @ libraries/STM32H7xx_HAL/STM32H7xx_HAL_Driver/Src/stm32h7xx_hal.c:496:10
	ldr	r0, [r0]
	.loc	2 496 3 is_stmt 0               @ libraries/STM32H7xx_HAL/STM32H7xx_HAL_Driver/Src/stm32h7xx_hal.c:496:3
	bx	lr
.Ltmp54:
.Lfunc_end18:
	.size	HAL_GetUIDw2, .Lfunc_end18-HAL_GetUIDw2
	.cfi_endproc
	.cantunwind
	.fnend
                                        @ -- End function
	.section	.text.HAL_SYSCFG_VREFBUF_VoltageScalingConfig,"ax",%progbits
	.hidden	HAL_SYSCFG_VREFBUF_VoltageScalingConfig @ -- Begin function HAL_SYSCFG_VREFBUF_VoltageScalingConfig
	.globl	HAL_SYSCFG_VREFBUF_VoltageScalingConfig
	.p2align	3
	.type	HAL_SYSCFG_VREFBUF_VoltageScalingConfig,%function
	.code	16                              @ @HAL_SYSCFG_VREFBUF_VoltageScalingConfig
	.thumb_func
HAL_SYSCFG_VREFBUF_VoltageScalingConfig:
.Lfunc_begin19:
	.loc	2 514 0 is_stmt 1               @ libraries/STM32H7xx_HAL/STM32H7xx_HAL_Driver/Src/stm32h7xx_hal.c:514:0
	.fnstart
	.cfi_startproc
@ %bb.0:
	.pad	#4
	sub	sp, #4
	.cfi_def_cfa_offset 4
	str	r0, [sp]
	movw	r1, #15360
	movt	r1, #22528
.Ltmp55:
	.loc	2 518 3 prologue_end            @ libraries/STM32H7xx_HAL/STM32H7xx_HAL_Driver/Src/stm32h7xx_hal.c:518:3
	ldr	r0, [r1]
	bic	r0, r0, #112
	ldr	r2, [sp]
	orrs	r0, r2
	str	r0, [r1]
	.loc	2 519 1                         @ libraries/STM32H7xx_HAL/STM32H7xx_HAL_Driver/Src/stm32h7xx_hal.c:519:1
	add	sp, #4
	bx	lr
.Ltmp56:
.Lfunc_end19:
	.size	HAL_SYSCFG_VREFBUF_VoltageScalingConfig, .Lfunc_end19-HAL_SYSCFG_VREFBUF_VoltageScalingConfig
	.cfi_endproc
	.cantunwind
	.fnend
                                        @ -- End function
	.section	.text.HAL_SYSCFG_VREFBUF_HighImpedanceConfig,"ax",%progbits
	.hidden	HAL_SYSCFG_VREFBUF_HighImpedanceConfig @ -- Begin function HAL_SYSCFG_VREFBUF_HighImpedanceConfig
	.globl	HAL_SYSCFG_VREFBUF_HighImpedanceConfig
	.p2align	3
	.type	HAL_SYSCFG_VREFBUF_HighImpedanceConfig,%function
	.code	16                              @ @HAL_SYSCFG_VREFBUF_HighImpedanceConfig
	.thumb_func
HAL_SYSCFG_VREFBUF_HighImpedanceConfig:
.Lfunc_begin20:
	.loc	2 530 0                         @ libraries/STM32H7xx_HAL/STM32H7xx_HAL_Driver/Src/stm32h7xx_hal.c:530:0
	.fnstart
	.cfi_startproc
@ %bb.0:
	.pad	#4
	sub	sp, #4
	.cfi_def_cfa_offset 4
	str	r0, [sp]
	movw	r1, #15360
	movt	r1, #22528
.Ltmp57:
	.loc	2 534 3 prologue_end            @ libraries/STM32H7xx_HAL/STM32H7xx_HAL_Driver/Src/stm32h7xx_hal.c:534:3
	ldr	r0, [r1]
	bic	r0, r0, #2
	ldr	r2, [sp]
	orrs	r0, r2
	str	r0, [r1]
	.loc	2 535 1                         @ libraries/STM32H7xx_HAL/STM32H7xx_HAL_Driver/Src/stm32h7xx_hal.c:535:1
	add	sp, #4
	bx	lr
.Ltmp58:
.Lfunc_end20:
	.size	HAL_SYSCFG_VREFBUF_HighImpedanceConfig, .Lfunc_end20-HAL_SYSCFG_VREFBUF_HighImpedanceConfig
	.cfi_endproc
	.cantunwind
	.fnend
                                        @ -- End function
	.section	.text.HAL_SYSCFG_VREFBUF_TrimmingConfig,"ax",%progbits
	.hidden	HAL_SYSCFG_VREFBUF_TrimmingConfig @ -- Begin function HAL_SYSCFG_VREFBUF_TrimmingConfig
	.globl	HAL_SYSCFG_VREFBUF_TrimmingConfig
	.p2align	3
	.type	HAL_SYSCFG_VREFBUF_TrimmingConfig,%function
	.code	16                              @ @HAL_SYSCFG_VREFBUF_TrimmingConfig
	.thumb_func
HAL_SYSCFG_VREFBUF_TrimmingConfig:
.Lfunc_begin21:
	.loc	2 542 0                         @ libraries/STM32H7xx_HAL/STM32H7xx_HAL_Driver/Src/stm32h7xx_hal.c:542:0
	.fnstart
	.cfi_startproc
@ %bb.0:
	.pad	#4
	sub	sp, #4
	.cfi_def_cfa_offset 4
	str	r0, [sp]
	movw	r1, #15364
	movt	r1, #22528
.Ltmp59:
	.loc	2 546 3 prologue_end            @ libraries/STM32H7xx_HAL/STM32H7xx_HAL_Driver/Src/stm32h7xx_hal.c:546:3
	ldr	r0, [r1]
	bic	r0, r0, #63
	ldr	r2, [sp]
	orrs	r0, r2
	str	r0, [r1]
	.loc	2 547 1                         @ libraries/STM32H7xx_HAL/STM32H7xx_HAL_Driver/Src/stm32h7xx_hal.c:547:1
	add	sp, #4
	bx	lr
.Ltmp60:
.Lfunc_end21:
	.size	HAL_SYSCFG_VREFBUF_TrimmingConfig, .Lfunc_end21-HAL_SYSCFG_VREFBUF_TrimmingConfig
	.cfi_endproc
	.cantunwind
	.fnend
                                        @ -- End function
	.section	.text.HAL_SYSCFG_EnableVREFBUF,"ax",%progbits
	.hidden	HAL_SYSCFG_EnableVREFBUF        @ -- Begin function HAL_SYSCFG_EnableVREFBUF
	.globl	HAL_SYSCFG_EnableVREFBUF
	.p2align	3
	.type	HAL_SYSCFG_EnableVREFBUF,%function
	.code	16                              @ @HAL_SYSCFG_EnableVREFBUF
	.thumb_func
HAL_SYSCFG_EnableVREFBUF:
.Lfunc_begin22:
	.loc	2 554 0                         @ libraries/STM32H7xx_HAL/STM32H7xx_HAL_Driver/Src/stm32h7xx_hal.c:554:0
	.fnstart
	.cfi_startproc
@ %bb.0:
	.save	{r7, lr}
	push	{r7, lr}
	.cfi_def_cfa_offset 8
	.cfi_offset lr, -4
	.cfi_offset r7, -8
	.pad	#8
	sub	sp, #8
	.cfi_def_cfa_offset 16
	movw	r1, #15360
	movt	r1, #22528
.Ltmp61:
	.loc	2 557 3 prologue_end            @ libraries/STM32H7xx_HAL/STM32H7xx_HAL_Driver/Src/stm32h7xx_hal.c:557:3
	ldr	r0, [r1]
	orr	r0, r0, #1
	str	r0, [r1]
	.loc	2 560 15                        @ libraries/STM32H7xx_HAL/STM32H7xx_HAL_Driver/Src/stm32h7xx_hal.c:560:15
	bl	HAL_GetTick
	.loc	2 560 13 is_stmt 0              @ libraries/STM32H7xx_HAL/STM32H7xx_HAL_Driver/Src/stm32h7xx_hal.c:560:13
	str	r0, [sp]
	.loc	2 563 3 is_stmt 1               @ libraries/STM32H7xx_HAL/STM32H7xx_HAL_Driver/Src/stm32h7xx_hal.c:563:3
	b	.LBB22_1
.LBB22_1:                               @ =>This Inner Loop Header: Depth=1
	.loc	2 0 3 is_stmt 0                 @ libraries/STM32H7xx_HAL/STM32H7xx_HAL_Driver/Src/stm32h7xx_hal.c:0:3
	movw	r0, #15360
	movt	r0, #22528
	.loc	2 563 9                         @ libraries/STM32H7xx_HAL/STM32H7xx_HAL_Driver/Src/stm32h7xx_hal.c:563:9
	ldr	r0, [r0]
	.loc	2 563 3                         @ libraries/STM32H7xx_HAL/STM32H7xx_HAL_Driver/Src/stm32h7xx_hal.c:563:3
	lsls	r0, r0, #28
	cmp	r0, #0
	bmi	.LBB22_5
	b	.LBB22_2
.LBB22_2:                               @   in Loop: Header=BB22_1 Depth=1
.Ltmp62:
	.loc	2 565 9 is_stmt 1               @ libraries/STM32H7xx_HAL/STM32H7xx_HAL_Driver/Src/stm32h7xx_hal.c:565:9
	bl	HAL_GetTick
	.loc	2 565 25 is_stmt 0              @ libraries/STM32H7xx_HAL/STM32H7xx_HAL_Driver/Src/stm32h7xx_hal.c:565:25
	ldr	r1, [sp]
	.loc	2 565 23                        @ libraries/STM32H7xx_HAL/STM32H7xx_HAL_Driver/Src/stm32h7xx_hal.c:565:23
	subs	r0, r0, r1
.Ltmp63:
	.loc	2 565 8                         @ libraries/STM32H7xx_HAL/STM32H7xx_HAL_Driver/Src/stm32h7xx_hal.c:565:8
	cmp	r0, #11
	blo	.LBB22_4
	b	.LBB22_3
.LBB22_3:
	.loc	2 0 8                           @ libraries/STM32H7xx_HAL/STM32H7xx_HAL_Driver/Src/stm32h7xx_hal.c:0:8
	movs	r0, #3
.Ltmp64:
	.loc	2 567 7 is_stmt 1               @ libraries/STM32H7xx_HAL/STM32H7xx_HAL_Driver/Src/stm32h7xx_hal.c:567:7
	strb.w	r0, [sp, #7]
	b	.LBB22_6
.Ltmp65:
.LBB22_4:                               @   in Loop: Header=BB22_1 Depth=1
	.loc	2 563 3                         @ libraries/STM32H7xx_HAL/STM32H7xx_HAL_Driver/Src/stm32h7xx_hal.c:563:3
	b	.LBB22_1
.LBB22_5:
	.loc	2 0 3 is_stmt 0                 @ libraries/STM32H7xx_HAL/STM32H7xx_HAL_Driver/Src/stm32h7xx_hal.c:0:3
	movs	r0, #0
	.loc	2 571 3 is_stmt 1               @ libraries/STM32H7xx_HAL/STM32H7xx_HAL_Driver/Src/stm32h7xx_hal.c:571:3
	strb.w	r0, [sp, #7]
	b	.LBB22_6
.LBB22_6:
	.loc	2 572 1                         @ libraries/STM32H7xx_HAL/STM32H7xx_HAL_Driver/Src/stm32h7xx_hal.c:572:1
	ldrb.w	r0, [sp, #7]
	add	sp, #8
	pop	{r7, pc}
.Ltmp66:
.Lfunc_end22:
	.size	HAL_SYSCFG_EnableVREFBUF, .Lfunc_end22-HAL_SYSCFG_EnableVREFBUF
	.cfi_endproc
	.cantunwind
	.fnend
                                        @ -- End function
	.section	.text.HAL_SYSCFG_DisableVREFBUF,"ax",%progbits
	.hidden	HAL_SYSCFG_DisableVREFBUF       @ -- Begin function HAL_SYSCFG_DisableVREFBUF
	.globl	HAL_SYSCFG_DisableVREFBUF
	.p2align	3
	.type	HAL_SYSCFG_DisableVREFBUF,%function
	.code	16                              @ @HAL_SYSCFG_DisableVREFBUF
	.thumb_func
HAL_SYSCFG_DisableVREFBUF:
.Lfunc_begin23:
	.loc	2 580 0                         @ libraries/STM32H7xx_HAL/STM32H7xx_HAL_Driver/Src/stm32h7xx_hal.c:580:0
	.fnstart
	.cfi_startproc
@ %bb.0:
	movw	r1, #15360
	movt	r1, #22528
.Ltmp67:
	.loc	2 581 3 prologue_end            @ libraries/STM32H7xx_HAL/STM32H7xx_HAL_Driver/Src/stm32h7xx_hal.c:581:3
	ldr	r0, [r1]
	bic	r0, r0, #1
	str	r0, [r1]
	.loc	2 582 1                         @ libraries/STM32H7xx_HAL/STM32H7xx_HAL_Driver/Src/stm32h7xx_hal.c:582:1
	bx	lr
.Ltmp68:
.Lfunc_end23:
	.size	HAL_SYSCFG_DisableVREFBUF, .Lfunc_end23-HAL_SYSCFG_DisableVREFBUF
	.cfi_endproc
	.cantunwind
	.fnend
                                        @ -- End function
	.section	.text.HAL_SYSCFG_ETHInterfaceSelect,"ax",%progbits
	.hidden	HAL_SYSCFG_ETHInterfaceSelect   @ -- Begin function HAL_SYSCFG_ETHInterfaceSelect
	.globl	HAL_SYSCFG_ETHInterfaceSelect
	.p2align	3
	.type	HAL_SYSCFG_ETHInterfaceSelect,%function
	.code	16                              @ @HAL_SYSCFG_ETHInterfaceSelect
	.thumb_func
HAL_SYSCFG_ETHInterfaceSelect:
.Lfunc_begin24:
	.loc	2 593 0                         @ libraries/STM32H7xx_HAL/STM32H7xx_HAL_Driver/Src/stm32h7xx_hal.c:593:0
	.fnstart
	.cfi_startproc
@ %bb.0:
	.pad	#4
	sub	sp, #4
	.cfi_def_cfa_offset 4
	str	r0, [sp]
	movw	r1, #1028
	movt	r1, #22528
.Ltmp69:
	.loc	2 597 3 prologue_end            @ libraries/STM32H7xx_HAL/STM32H7xx_HAL_Driver/Src/stm32h7xx_hal.c:597:3
	ldr	r0, [r1]
	bic	r0, r0, #14680064
	ldr	r2, [sp]
	orrs	r0, r2
	str	r0, [r1]
	.loc	2 598 1                         @ libraries/STM32H7xx_HAL/STM32H7xx_HAL_Driver/Src/stm32h7xx_hal.c:598:1
	add	sp, #4
	bx	lr
.Ltmp70:
.Lfunc_end24:
	.size	HAL_SYSCFG_ETHInterfaceSelect, .Lfunc_end24-HAL_SYSCFG_ETHInterfaceSelect
	.cfi_endproc
	.cantunwind
	.fnend
                                        @ -- End function
	.section	.text.HAL_SYSCFG_AnalogSwitchConfig,"ax",%progbits
	.hidden	HAL_SYSCFG_AnalogSwitchConfig   @ -- Begin function HAL_SYSCFG_AnalogSwitchConfig
	.globl	HAL_SYSCFG_AnalogSwitchConfig
	.p2align	3
	.type	HAL_SYSCFG_AnalogSwitchConfig,%function
	.code	16                              @ @HAL_SYSCFG_AnalogSwitchConfig
	.thumb_func
HAL_SYSCFG_AnalogSwitchConfig:
.Lfunc_begin25:
	.loc	2 623 0                         @ libraries/STM32H7xx_HAL/STM32H7xx_HAL_Driver/Src/stm32h7xx_hal.c:623:0
	.fnstart
	.cfi_startproc
@ %bb.0:
	.pad	#8
	sub	sp, #8
	.cfi_def_cfa_offset 8
	str	r0, [sp, #4]
	str	r1, [sp]
	movw	r1, #1028
	movt	r1, #22528
.Ltmp71:
	.loc	2 628 3 prologue_end            @ libraries/STM32H7xx_HAL/STM32H7xx_HAL_Driver/Src/stm32h7xx_hal.c:628:3
	ldr	r0, [r1]
	ldr	r2, [sp, #4]
	bics	r0, r2
	ldr	r2, [sp]
	orrs	r0, r2
	str	r0, [r1]
	.loc	2 629 1                         @ libraries/STM32H7xx_HAL/STM32H7xx_HAL_Driver/Src/stm32h7xx_hal.c:629:1
	add	sp, #8
	bx	lr
.Ltmp72:
.Lfunc_end25:
	.size	HAL_SYSCFG_AnalogSwitchConfig, .Lfunc_end25-HAL_SYSCFG_AnalogSwitchConfig
	.cfi_endproc
	.cantunwind
	.fnend
                                        @ -- End function
	.section	.text.HAL_SYSCFG_EnableBOOST,"ax",%progbits
	.hidden	HAL_SYSCFG_EnableBOOST          @ -- Begin function HAL_SYSCFG_EnableBOOST
	.globl	HAL_SYSCFG_EnableBOOST
	.p2align	3
	.type	HAL_SYSCFG_EnableBOOST,%function
	.code	16                              @ @HAL_SYSCFG_EnableBOOST
	.thumb_func
HAL_SYSCFG_EnableBOOST:
.Lfunc_begin26:
	.loc	2 641 0                         @ libraries/STM32H7xx_HAL/STM32H7xx_HAL_Driver/Src/stm32h7xx_hal.c:641:0
	.fnstart
	.cfi_startproc
@ %bb.0:
	movw	r1, #1028
	movt	r1, #22528
.Ltmp73:
	.loc	2 642 2 prologue_end            @ libraries/STM32H7xx_HAL/STM32H7xx_HAL_Driver/Src/stm32h7xx_hal.c:642:2
	ldr	r0, [r1]
	orr	r0, r0, #256
	str	r0, [r1]
	.loc	2 643 1                         @ libraries/STM32H7xx_HAL/STM32H7xx_HAL_Driver/Src/stm32h7xx_hal.c:643:1
	bx	lr
.Ltmp74:
.Lfunc_end26:
	.size	HAL_SYSCFG_EnableBOOST, .Lfunc_end26-HAL_SYSCFG_EnableBOOST
	.cfi_endproc
	.cantunwind
	.fnend
                                        @ -- End function
	.section	.text.HAL_SYSCFG_DisableBOOST,"ax",%progbits
	.hidden	HAL_SYSCFG_DisableBOOST         @ -- Begin function HAL_SYSCFG_DisableBOOST
	.globl	HAL_SYSCFG_DisableBOOST
	.p2align	3
	.type	HAL_SYSCFG_DisableBOOST,%function
	.code	16                              @ @HAL_SYSCFG_DisableBOOST
	.thumb_func
HAL_SYSCFG_DisableBOOST:
.Lfunc_begin27:
	.loc	2 653 0                         @ libraries/STM32H7xx_HAL/STM32H7xx_HAL_Driver/Src/stm32h7xx_hal.c:653:0
	.fnstart
	.cfi_startproc
@ %bb.0:
	movw	r1, #1028
	movt	r1, #22528
.Ltmp75:
	.loc	2 654 2 prologue_end            @ libraries/STM32H7xx_HAL/STM32H7xx_HAL_Driver/Src/stm32h7xx_hal.c:654:2
	ldr	r0, [r1]
	bic	r0, r0, #256
	str	r0, [r1]
	.loc	2 655 1                         @ libraries/STM32H7xx_HAL/STM32H7xx_HAL_Driver/Src/stm32h7xx_hal.c:655:1
	bx	lr
.Ltmp76:
.Lfunc_end27:
	.size	HAL_SYSCFG_DisableBOOST, .Lfunc_end27-HAL_SYSCFG_DisableBOOST
	.cfi_endproc
	.cantunwind
	.fnend
                                        @ -- End function
	.section	.text.HAL_SYSCFG_CM7BootAddConfig,"ax",%progbits
	.hidden	HAL_SYSCFG_CM7BootAddConfig     @ -- Begin function HAL_SYSCFG_CM7BootAddConfig
	.globl	HAL_SYSCFG_CM7BootAddConfig
	.p2align	3
	.type	HAL_SYSCFG_CM7BootAddConfig,%function
	.code	16                              @ @HAL_SYSCFG_CM7BootAddConfig
	.thumb_func
HAL_SYSCFG_CM7BootAddConfig:
.Lfunc_begin28:
	.loc	2 668 0                         @ libraries/STM32H7xx_HAL/STM32H7xx_HAL_Driver/Src/stm32h7xx_hal.c:668:0
	.fnstart
	.cfi_startproc
@ %bb.0:
	.pad	#8
	sub	sp, #8
	.cfi_def_cfa_offset 8
	str	r0, [sp, #4]
	str	r1, [sp]
.Ltmp77:
	.loc	2 672 8 prologue_end            @ libraries/STM32H7xx_HAL/STM32H7xx_HAL_Driver/Src/stm32h7xx_hal.c:672:8
	ldr	r0, [sp, #4]
.Ltmp78:
	.loc	2 672 8 is_stmt 0               @ libraries/STM32H7xx_HAL/STM32H7xx_HAL_Driver/Src/stm32h7xx_hal.c:672:8
	cbnz	r0, .LBB28_2
	b	.LBB28_1
.LBB28_1:
	.loc	2 0 8                           @ libraries/STM32H7xx_HAL/STM32H7xx_HAL_Driver/Src/stm32h7xx_hal.c:0:8
	movw	r1, #1800
	movt	r1, #22528
.Ltmp79:
	.loc	2 678 5 is_stmt 1               @ libraries/STM32H7xx_HAL/STM32H7xx_HAL_Driver/Src/stm32h7xx_hal.c:678:5
	ldr	r0, [r1]
	ldrh.w	r2, [sp, #2]
	pkhbt	r0, r0, r2, lsl #16
	str	r0, [r1]
	.loc	2 680 3                         @ libraries/STM32H7xx_HAL/STM32H7xx_HAL_Driver/Src/stm32h7xx_hal.c:680:3
	b	.LBB28_3
.Ltmp80:
.LBB28_2:
	.loc	2 0 3 is_stmt 0                 @ libraries/STM32H7xx_HAL/STM32H7xx_HAL_Driver/Src/stm32h7xx_hal.c:0:3
	movw	r1, #1804
	movt	r1, #22528
.Ltmp81:
	.loc	2 687 5 is_stmt 1               @ libraries/STM32H7xx_HAL/STM32H7xx_HAL_Driver/Src/stm32h7xx_hal.c:687:5
	ldr	r0, [r1]
	movw	r2, #65535
	bics	r0, r2
	ldrh.w	r2, [sp, #2]
	add	r0, r2
	str	r0, [r1]
	b	.LBB28_3
.Ltmp82:
.LBB28_3:
	.loc	2 691 1                         @ libraries/STM32H7xx_HAL/STM32H7xx_HAL_Driver/Src/stm32h7xx_hal.c:691:1
	add	sp, #8
	bx	lr
.Ltmp83:
.Lfunc_end28:
	.size	HAL_SYSCFG_CM7BootAddConfig, .Lfunc_end28-HAL_SYSCFG_CM7BootAddConfig
	.cfi_endproc
	.cantunwind
	.fnend
                                        @ -- End function
	.section	.text.HAL_EnableCompensationCell,"ax",%progbits
	.hidden	HAL_EnableCompensationCell      @ -- Begin function HAL_EnableCompensationCell
	.globl	HAL_EnableCompensationCell
	.p2align	3
	.type	HAL_EnableCompensationCell,%function
	.code	16                              @ @HAL_EnableCompensationCell
	.thumb_func
HAL_EnableCompensationCell:
.Lfunc_begin29:
	.loc	2 768 0                         @ libraries/STM32H7xx_HAL/STM32H7xx_HAL_Driver/Src/stm32h7xx_hal.c:768:0
	.fnstart
	.cfi_startproc
@ %bb.0:
	movw	r1, #1056
	movt	r1, #22528
.Ltmp84:
	.loc	2 769 3 prologue_end            @ libraries/STM32H7xx_HAL/STM32H7xx_HAL_Driver/Src/stm32h7xx_hal.c:769:3
	ldr	r0, [r1]
	orr	r0, r0, #1
	str	r0, [r1]
	.loc	2 770 1                         @ libraries/STM32H7xx_HAL/STM32H7xx_HAL_Driver/Src/stm32h7xx_hal.c:770:1
	bx	lr
.Ltmp85:
.Lfunc_end29:
	.size	HAL_EnableCompensationCell, .Lfunc_end29-HAL_EnableCompensationCell
	.cfi_endproc
	.cantunwind
	.fnend
                                        @ -- End function
	.section	.text.HAL_DisableCompensationCell,"ax",%progbits
	.hidden	HAL_DisableCompensationCell     @ -- Begin function HAL_DisableCompensationCell
	.globl	HAL_DisableCompensationCell
	.p2align	3
	.type	HAL_DisableCompensationCell,%function
	.code	16                              @ @HAL_DisableCompensationCell
	.thumb_func
HAL_DisableCompensationCell:
.Lfunc_begin30:
	.loc	2 779 0                         @ libraries/STM32H7xx_HAL/STM32H7xx_HAL_Driver/Src/stm32h7xx_hal.c:779:0
	.fnstart
	.cfi_startproc
@ %bb.0:
	movw	r1, #1056
	movt	r1, #22528
.Ltmp86:
	.loc	2 780 3 prologue_end            @ libraries/STM32H7xx_HAL/STM32H7xx_HAL_Driver/Src/stm32h7xx_hal.c:780:3
	ldr	r0, [r1]
	bic	r0, r0, #1
	str	r0, [r1]
	.loc	2 781 1                         @ libraries/STM32H7xx_HAL/STM32H7xx_HAL_Driver/Src/stm32h7xx_hal.c:781:1
	bx	lr
.Ltmp87:
.Lfunc_end30:
	.size	HAL_DisableCompensationCell, .Lfunc_end30-HAL_DisableCompensationCell
	.cfi_endproc
	.cantunwind
	.fnend
                                        @ -- End function
	.section	.text.HAL_SYSCFG_EnableIOSpeedOptimize,"ax",%progbits
	.hidden	HAL_SYSCFG_EnableIOSpeedOptimize @ -- Begin function HAL_SYSCFG_EnableIOSpeedOptimize
	.globl	HAL_SYSCFG_EnableIOSpeedOptimize
	.p2align	3
	.type	HAL_SYSCFG_EnableIOSpeedOptimize,%function
	.code	16                              @ @HAL_SYSCFG_EnableIOSpeedOptimize
	.thumb_func
HAL_SYSCFG_EnableIOSpeedOptimize:
.Lfunc_begin31:
	.loc	2 792 0                         @ libraries/STM32H7xx_HAL/STM32H7xx_HAL_Driver/Src/stm32h7xx_hal.c:792:0
	.fnstart
	.cfi_startproc
@ %bb.0:
	movw	r1, #1056
	movt	r1, #22528
.Ltmp88:
	.loc	2 793 3 prologue_end            @ libraries/STM32H7xx_HAL/STM32H7xx_HAL_Driver/Src/stm32h7xx_hal.c:793:3
	ldr	r0, [r1]
	orr	r0, r0, #65536
	str	r0, [r1]
	.loc	2 794 1                         @ libraries/STM32H7xx_HAL/STM32H7xx_HAL_Driver/Src/stm32h7xx_hal.c:794:1
	bx	lr
.Ltmp89:
.Lfunc_end31:
	.size	HAL_SYSCFG_EnableIOSpeedOptimize, .Lfunc_end31-HAL_SYSCFG_EnableIOSpeedOptimize
	.cfi_endproc
	.cantunwind
	.fnend
                                        @ -- End function
	.section	.text.HAL_SYSCFG_DisableIOSpeedOptimize,"ax",%progbits
	.hidden	HAL_SYSCFG_DisableIOSpeedOptimize @ -- Begin function HAL_SYSCFG_DisableIOSpeedOptimize
	.globl	HAL_SYSCFG_DisableIOSpeedOptimize
	.p2align	3
	.type	HAL_SYSCFG_DisableIOSpeedOptimize,%function
	.code	16                              @ @HAL_SYSCFG_DisableIOSpeedOptimize
	.thumb_func
HAL_SYSCFG_DisableIOSpeedOptimize:
.Lfunc_begin32:
	.loc	2 804 0                         @ libraries/STM32H7xx_HAL/STM32H7xx_HAL_Driver/Src/stm32h7xx_hal.c:804:0
	.fnstart
	.cfi_startproc
@ %bb.0:
	movw	r1, #1056
	movt	r1, #22528
.Ltmp90:
	.loc	2 805 3 prologue_end            @ libraries/STM32H7xx_HAL/STM32H7xx_HAL_Driver/Src/stm32h7xx_hal.c:805:3
	ldr	r0, [r1]
	bic	r0, r0, #65536
	str	r0, [r1]
	.loc	2 806 1                         @ libraries/STM32H7xx_HAL/STM32H7xx_HAL_Driver/Src/stm32h7xx_hal.c:806:1
	bx	lr
.Ltmp91:
.Lfunc_end32:
	.size	HAL_SYSCFG_DisableIOSpeedOptimize, .Lfunc_end32-HAL_SYSCFG_DisableIOSpeedOptimize
	.cfi_endproc
	.cantunwind
	.fnend
                                        @ -- End function
	.section	.text.HAL_SYSCFG_CompensationCodeSelect,"ax",%progbits
	.hidden	HAL_SYSCFG_CompensationCodeSelect @ -- Begin function HAL_SYSCFG_CompensationCodeSelect
	.globl	HAL_SYSCFG_CompensationCodeSelect
	.p2align	3
	.type	HAL_SYSCFG_CompensationCodeSelect,%function
	.code	16                              @ @HAL_SYSCFG_CompensationCodeSelect
	.thumb_func
HAL_SYSCFG_CompensationCodeSelect:
.Lfunc_begin33:
	.loc	2 817 0                         @ libraries/STM32H7xx_HAL/STM32H7xx_HAL_Driver/Src/stm32h7xx_hal.c:817:0
	.fnstart
	.cfi_startproc
@ %bb.0:
	.pad	#4
	sub	sp, #4
	.cfi_def_cfa_offset 4
	str	r0, [sp]
	movw	r1, #1056
	movt	r1, #22528
.Ltmp92:
	.loc	2 820 3 prologue_end            @ libraries/STM32H7xx_HAL/STM32H7xx_HAL_Driver/Src/stm32h7xx_hal.c:820:3
	ldr	r0, [r1]
	bic	r0, r0, #2
	ldr	r2, [sp]
	orrs	r0, r2
	str	r0, [r1]
	.loc	2 821 1                         @ libraries/STM32H7xx_HAL/STM32H7xx_HAL_Driver/Src/stm32h7xx_hal.c:821:1
	add	sp, #4
	bx	lr
.Ltmp93:
.Lfunc_end33:
	.size	HAL_SYSCFG_CompensationCodeSelect, .Lfunc_end33-HAL_SYSCFG_CompensationCodeSelect
	.cfi_endproc
	.cantunwind
	.fnend
                                        @ -- End function
	.section	.text.HAL_SYSCFG_CompensationCodeConfig,"ax",%progbits
	.hidden	HAL_SYSCFG_CompensationCodeConfig @ -- Begin function HAL_SYSCFG_CompensationCodeConfig
	.globl	HAL_SYSCFG_CompensationCodeConfig
	.p2align	3
	.type	HAL_SYSCFG_CompensationCodeConfig,%function
	.code	16                              @ @HAL_SYSCFG_CompensationCodeConfig
	.thumb_func
HAL_SYSCFG_CompensationCodeConfig:
.Lfunc_begin34:
	.loc	2 834 0                         @ libraries/STM32H7xx_HAL/STM32H7xx_HAL_Driver/Src/stm32h7xx_hal.c:834:0
	.fnstart
	.cfi_startproc
@ %bb.0:
	.pad	#8
	sub	sp, #8
	.cfi_def_cfa_offset 8
	str	r0, [sp, #4]
	str	r1, [sp]
	movw	r1, #1064
	movt	r1, #22528
.Ltmp94:
	.loc	2 838 3 prologue_end            @ libraries/STM32H7xx_HAL/STM32H7xx_HAL_Driver/Src/stm32h7xx_hal.c:838:3
	ldr	r0, [r1]
	bic	r0, r0, #255
	ldr	r3, [sp, #4]
	ldr	r2, [sp]
	orr.w	r2, r2, r3, lsl #4
	orrs	r0, r2
	str	r0, [r1]
	.loc	2 839 1                         @ libraries/STM32H7xx_HAL/STM32H7xx_HAL_Driver/Src/stm32h7xx_hal.c:839:1
	add	sp, #8
	bx	lr
.Ltmp95:
.Lfunc_end34:
	.size	HAL_SYSCFG_CompensationCodeConfig, .Lfunc_end34-HAL_SYSCFG_CompensationCodeConfig
	.cfi_endproc
	.cantunwind
	.fnend
                                        @ -- End function
	.section	.text.HAL_DBGMCU_EnableDBGSleepMode,"ax",%progbits
	.hidden	HAL_DBGMCU_EnableDBGSleepMode   @ -- Begin function HAL_DBGMCU_EnableDBGSleepMode
	.globl	HAL_DBGMCU_EnableDBGSleepMode
	.p2align	3
	.type	HAL_DBGMCU_EnableDBGSleepMode,%function
	.code	16                              @ @HAL_DBGMCU_EnableDBGSleepMode
	.thumb_func
HAL_DBGMCU_EnableDBGSleepMode:
.Lfunc_begin35:
	.loc	2 847 0                         @ libraries/STM32H7xx_HAL/STM32H7xx_HAL_Driver/Src/stm32h7xx_hal.c:847:0
	.fnstart
	.cfi_startproc
@ %bb.0:
	movw	r1, #4100
	movt	r1, #23552
.Ltmp96:
	.loc	2 848 3 prologue_end            @ libraries/STM32H7xx_HAL/STM32H7xx_HAL_Driver/Src/stm32h7xx_hal.c:848:3
	ldr	r0, [r1]
	orr	r0, r0, #1
	str	r0, [r1]
	.loc	2 849 1                         @ libraries/STM32H7xx_HAL/STM32H7xx_HAL_Driver/Src/stm32h7xx_hal.c:849:1
	bx	lr
.Ltmp97:
.Lfunc_end35:
	.size	HAL_DBGMCU_EnableDBGSleepMode, .Lfunc_end35-HAL_DBGMCU_EnableDBGSleepMode
	.cfi_endproc
	.cantunwind
	.fnend
                                        @ -- End function
	.section	.text.HAL_DBGMCU_DisableDBGSleepMode,"ax",%progbits
	.hidden	HAL_DBGMCU_DisableDBGSleepMode  @ -- Begin function HAL_DBGMCU_DisableDBGSleepMode
	.globl	HAL_DBGMCU_DisableDBGSleepMode
	.p2align	3
	.type	HAL_DBGMCU_DisableDBGSleepMode,%function
	.code	16                              @ @HAL_DBGMCU_DisableDBGSleepMode
	.thumb_func
HAL_DBGMCU_DisableDBGSleepMode:
.Lfunc_begin36:
	.loc	2 856 0                         @ libraries/STM32H7xx_HAL/STM32H7xx_HAL_Driver/Src/stm32h7xx_hal.c:856:0
	.fnstart
	.cfi_startproc
@ %bb.0:
	movw	r1, #4100
	movt	r1, #23552
.Ltmp98:
	.loc	2 857 3 prologue_end            @ libraries/STM32H7xx_HAL/STM32H7xx_HAL_Driver/Src/stm32h7xx_hal.c:857:3
	ldr	r0, [r1]
	bic	r0, r0, #1
	str	r0, [r1]
	.loc	2 858 1                         @ libraries/STM32H7xx_HAL/STM32H7xx_HAL_Driver/Src/stm32h7xx_hal.c:858:1
	bx	lr
.Ltmp99:
.Lfunc_end36:
	.size	HAL_DBGMCU_DisableDBGSleepMode, .Lfunc_end36-HAL_DBGMCU_DisableDBGSleepMode
	.cfi_endproc
	.cantunwind
	.fnend
                                        @ -- End function
	.section	.text.HAL_DBGMCU_EnableDBGStopMode,"ax",%progbits
	.hidden	HAL_DBGMCU_EnableDBGStopMode    @ -- Begin function HAL_DBGMCU_EnableDBGStopMode
	.globl	HAL_DBGMCU_EnableDBGStopMode
	.p2align	3
	.type	HAL_DBGMCU_EnableDBGStopMode,%function
	.code	16                              @ @HAL_DBGMCU_EnableDBGStopMode
	.thumb_func
HAL_DBGMCU_EnableDBGStopMode:
.Lfunc_begin37:
	.loc	2 865 0                         @ libraries/STM32H7xx_HAL/STM32H7xx_HAL_Driver/Src/stm32h7xx_hal.c:865:0
	.fnstart
	.cfi_startproc
@ %bb.0:
	movw	r1, #4100
	movt	r1, #23552
.Ltmp100:
	.loc	2 866 3 prologue_end            @ libraries/STM32H7xx_HAL/STM32H7xx_HAL_Driver/Src/stm32h7xx_hal.c:866:3
	ldr	r0, [r1]
	orr	r0, r0, #2
	str	r0, [r1]
	.loc	2 867 1                         @ libraries/STM32H7xx_HAL/STM32H7xx_HAL_Driver/Src/stm32h7xx_hal.c:867:1
	bx	lr
.Ltmp101:
.Lfunc_end37:
	.size	HAL_DBGMCU_EnableDBGStopMode, .Lfunc_end37-HAL_DBGMCU_EnableDBGStopMode
	.cfi_endproc
	.cantunwind
	.fnend
                                        @ -- End function
	.section	.text.HAL_DBGMCU_DisableDBGStopMode,"ax",%progbits
	.hidden	HAL_DBGMCU_DisableDBGStopMode   @ -- Begin function HAL_DBGMCU_DisableDBGStopMode
	.globl	HAL_DBGMCU_DisableDBGStopMode
	.p2align	3
	.type	HAL_DBGMCU_DisableDBGStopMode,%function
	.code	16                              @ @HAL_DBGMCU_DisableDBGStopMode
	.thumb_func
HAL_DBGMCU_DisableDBGStopMode:
.Lfunc_begin38:
	.loc	2 874 0                         @ libraries/STM32H7xx_HAL/STM32H7xx_HAL_Driver/Src/stm32h7xx_hal.c:874:0
	.fnstart
	.cfi_startproc
@ %bb.0:
	movw	r1, #4100
	movt	r1, #23552
.Ltmp102:
	.loc	2 875 3 prologue_end            @ libraries/STM32H7xx_HAL/STM32H7xx_HAL_Driver/Src/stm32h7xx_hal.c:875:3
	ldr	r0, [r1]
	bic	r0, r0, #2
	str	r0, [r1]
	.loc	2 876 1                         @ libraries/STM32H7xx_HAL/STM32H7xx_HAL_Driver/Src/stm32h7xx_hal.c:876:1
	bx	lr
.Ltmp103:
.Lfunc_end38:
	.size	HAL_DBGMCU_DisableDBGStopMode, .Lfunc_end38-HAL_DBGMCU_DisableDBGStopMode
	.cfi_endproc
	.cantunwind
	.fnend
                                        @ -- End function
	.section	.text.HAL_DBGMCU_EnableDBGStandbyMode,"ax",%progbits
	.hidden	HAL_DBGMCU_EnableDBGStandbyMode @ -- Begin function HAL_DBGMCU_EnableDBGStandbyMode
	.globl	HAL_DBGMCU_EnableDBGStandbyMode
	.p2align	3
	.type	HAL_DBGMCU_EnableDBGStandbyMode,%function
	.code	16                              @ @HAL_DBGMCU_EnableDBGStandbyMode
	.thumb_func
HAL_DBGMCU_EnableDBGStandbyMode:
.Lfunc_begin39:
	.loc	2 883 0                         @ libraries/STM32H7xx_HAL/STM32H7xx_HAL_Driver/Src/stm32h7xx_hal.c:883:0
	.fnstart
	.cfi_startproc
@ %bb.0:
	movw	r1, #4100
	movt	r1, #23552
.Ltmp104:
	.loc	2 884 3 prologue_end            @ libraries/STM32H7xx_HAL/STM32H7xx_HAL_Driver/Src/stm32h7xx_hal.c:884:3
	ldr	r0, [r1]
	orr	r0, r0, #4
	str	r0, [r1]
	.loc	2 885 1                         @ libraries/STM32H7xx_HAL/STM32H7xx_HAL_Driver/Src/stm32h7xx_hal.c:885:1
	bx	lr
.Ltmp105:
.Lfunc_end39:
	.size	HAL_DBGMCU_EnableDBGStandbyMode, .Lfunc_end39-HAL_DBGMCU_EnableDBGStandbyMode
	.cfi_endproc
	.cantunwind
	.fnend
                                        @ -- End function
	.section	.text.HAL_DBGMCU_DisableDBGStandbyMode,"ax",%progbits
	.hidden	HAL_DBGMCU_DisableDBGStandbyMode @ -- Begin function HAL_DBGMCU_DisableDBGStandbyMode
	.globl	HAL_DBGMCU_DisableDBGStandbyMode
	.p2align	3
	.type	HAL_DBGMCU_DisableDBGStandbyMode,%function
	.code	16                              @ @HAL_DBGMCU_DisableDBGStandbyMode
	.thumb_func
HAL_DBGMCU_DisableDBGStandbyMode:
.Lfunc_begin40:
	.loc	2 892 0                         @ libraries/STM32H7xx_HAL/STM32H7xx_HAL_Driver/Src/stm32h7xx_hal.c:892:0
	.fnstart
	.cfi_startproc
@ %bb.0:
	movw	r1, #4100
	movt	r1, #23552
.Ltmp106:
	.loc	2 893 3 prologue_end            @ libraries/STM32H7xx_HAL/STM32H7xx_HAL_Driver/Src/stm32h7xx_hal.c:893:3
	ldr	r0, [r1]
	bic	r0, r0, #4
	str	r0, [r1]
	.loc	2 894 1                         @ libraries/STM32H7xx_HAL/STM32H7xx_HAL_Driver/Src/stm32h7xx_hal.c:894:1
	bx	lr
.Ltmp107:
.Lfunc_end40:
	.size	HAL_DBGMCU_DisableDBGStandbyMode, .Lfunc_end40-HAL_DBGMCU_DisableDBGStandbyMode
	.cfi_endproc
	.cantunwind
	.fnend
                                        @ -- End function
	.section	.text.HAL_EnableDomain3DBGStopMode,"ax",%progbits
	.hidden	HAL_EnableDomain3DBGStopMode    @ -- Begin function HAL_EnableDomain3DBGStopMode
	.globl	HAL_EnableDomain3DBGStopMode
	.p2align	3
	.type	HAL_EnableDomain3DBGStopMode,%function
	.code	16                              @ @HAL_EnableDomain3DBGStopMode
	.thumb_func
HAL_EnableDomain3DBGStopMode:
.Lfunc_begin41:
	.loc	2 958 0                         @ libraries/STM32H7xx_HAL/STM32H7xx_HAL_Driver/Src/stm32h7xx_hal.c:958:0
	.fnstart
	.cfi_startproc
@ %bb.0:
	movw	r1, #4100
	movt	r1, #23552
.Ltmp108:
	.loc	2 959 3 prologue_end            @ libraries/STM32H7xx_HAL/STM32H7xx_HAL_Driver/Src/stm32h7xx_hal.c:959:3
	ldr	r0, [r1]
	orr	r0, r0, #128
	str	r0, [r1]
	.loc	2 960 1                         @ libraries/STM32H7xx_HAL/STM32H7xx_HAL_Driver/Src/stm32h7xx_hal.c:960:1
	bx	lr
.Ltmp109:
.Lfunc_end41:
	.size	HAL_EnableDomain3DBGStopMode, .Lfunc_end41-HAL_EnableDomain3DBGStopMode
	.cfi_endproc
	.cantunwind
	.fnend
                                        @ -- End function
	.section	.text.HAL_DisableDomain3DBGStopMode,"ax",%progbits
	.hidden	HAL_DisableDomain3DBGStopMode   @ -- Begin function HAL_DisableDomain3DBGStopMode
	.globl	HAL_DisableDomain3DBGStopMode
	.p2align	3
	.type	HAL_DisableDomain3DBGStopMode,%function
	.code	16                              @ @HAL_DisableDomain3DBGStopMode
	.thumb_func
HAL_DisableDomain3DBGStopMode:
.Lfunc_begin42:
	.loc	2 967 0                         @ libraries/STM32H7xx_HAL/STM32H7xx_HAL_Driver/Src/stm32h7xx_hal.c:967:0
	.fnstart
	.cfi_startproc
@ %bb.0:
	movw	r1, #4100
	movt	r1, #23552
.Ltmp110:
	.loc	2 968 3 prologue_end            @ libraries/STM32H7xx_HAL/STM32H7xx_HAL_Driver/Src/stm32h7xx_hal.c:968:3
	ldr	r0, [r1]
	bic	r0, r0, #128
	str	r0, [r1]
	.loc	2 969 1                         @ libraries/STM32H7xx_HAL/STM32H7xx_HAL_Driver/Src/stm32h7xx_hal.c:969:1
	bx	lr
.Ltmp111:
.Lfunc_end42:
	.size	HAL_DisableDomain3DBGStopMode, .Lfunc_end42-HAL_DisableDomain3DBGStopMode
	.cfi_endproc
	.cantunwind
	.fnend
                                        @ -- End function
	.section	.text.HAL_EnableDomain3DBGStandbyMode,"ax",%progbits
	.hidden	HAL_EnableDomain3DBGStandbyMode @ -- Begin function HAL_EnableDomain3DBGStandbyMode
	.globl	HAL_EnableDomain3DBGStandbyMode
	.p2align	3
	.type	HAL_EnableDomain3DBGStandbyMode,%function
	.code	16                              @ @HAL_EnableDomain3DBGStandbyMode
	.thumb_func
HAL_EnableDomain3DBGStandbyMode:
.Lfunc_begin43:
	.loc	2 976 0                         @ libraries/STM32H7xx_HAL/STM32H7xx_HAL_Driver/Src/stm32h7xx_hal.c:976:0
	.fnstart
	.cfi_startproc
@ %bb.0:
	movw	r1, #4100
	movt	r1, #23552
.Ltmp112:
	.loc	2 977 3 prologue_end            @ libraries/STM32H7xx_HAL/STM32H7xx_HAL_Driver/Src/stm32h7xx_hal.c:977:3
	ldr	r0, [r1]
	orr	r0, r0, #256
	str	r0, [r1]
	.loc	2 978 1                         @ libraries/STM32H7xx_HAL/STM32H7xx_HAL_Driver/Src/stm32h7xx_hal.c:978:1
	bx	lr
.Ltmp113:
.Lfunc_end43:
	.size	HAL_EnableDomain3DBGStandbyMode, .Lfunc_end43-HAL_EnableDomain3DBGStandbyMode
	.cfi_endproc
	.cantunwind
	.fnend
                                        @ -- End function
	.section	.text.HAL_DisableDomain3DBGStandbyMode,"ax",%progbits
	.hidden	HAL_DisableDomain3DBGStandbyMode @ -- Begin function HAL_DisableDomain3DBGStandbyMode
	.globl	HAL_DisableDomain3DBGStandbyMode
	.p2align	3
	.type	HAL_DisableDomain3DBGStandbyMode,%function
	.code	16                              @ @HAL_DisableDomain3DBGStandbyMode
	.thumb_func
HAL_DisableDomain3DBGStandbyMode:
.Lfunc_begin44:
	.loc	2 985 0                         @ libraries/STM32H7xx_HAL/STM32H7xx_HAL_Driver/Src/stm32h7xx_hal.c:985:0
	.fnstart
	.cfi_startproc
@ %bb.0:
	movw	r1, #4100
	movt	r1, #23552
.Ltmp114:
	.loc	2 986 3 prologue_end            @ libraries/STM32H7xx_HAL/STM32H7xx_HAL_Driver/Src/stm32h7xx_hal.c:986:3
	ldr	r0, [r1]
	bic	r0, r0, #256
	str	r0, [r1]
	.loc	2 987 1                         @ libraries/STM32H7xx_HAL/STM32H7xx_HAL_Driver/Src/stm32h7xx_hal.c:987:1
	bx	lr
.Ltmp115:
.Lfunc_end44:
	.size	HAL_DisableDomain3DBGStandbyMode, .Lfunc_end44-HAL_DisableDomain3DBGStandbyMode
	.cfi_endproc
	.cantunwind
	.fnend
                                        @ -- End function
	.section	.text.HAL_SetFMCMemorySwappingConfig,"ax",%progbits
	.hidden	HAL_SetFMCMemorySwappingConfig  @ -- Begin function HAL_SetFMCMemorySwappingConfig
	.globl	HAL_SetFMCMemorySwappingConfig
	.p2align	3
	.type	HAL_SetFMCMemorySwappingConfig,%function
	.code	16                              @ @HAL_SetFMCMemorySwappingConfig
	.thumb_func
HAL_SetFMCMemorySwappingConfig:
.Lfunc_begin45:
	.loc	2 996 0                         @ libraries/STM32H7xx_HAL/STM32H7xx_HAL_Driver/Src/stm32h7xx_hal.c:996:0
	.fnstart
	.cfi_startproc
@ %bb.0:
	.pad	#4
	sub	sp, #4
	.cfi_def_cfa_offset 4
	str	r0, [sp]
	movw	r1, #16384
	movt	r1, #20992
.Ltmp116:
	.loc	2 999 3 prologue_end            @ libraries/STM32H7xx_HAL/STM32H7xx_HAL_Driver/Src/stm32h7xx_hal.c:999:3
	ldr	r0, [r1]
	bic	r0, r0, #50331648
	ldr	r2, [sp]
	orrs	r0, r2
	str	r0, [r1]
	.loc	2 1000 1                        @ libraries/STM32H7xx_HAL/STM32H7xx_HAL_Driver/Src/stm32h7xx_hal.c:1000:1
	add	sp, #4
	bx	lr
.Ltmp117:
.Lfunc_end45:
	.size	HAL_SetFMCMemorySwappingConfig, .Lfunc_end45-HAL_SetFMCMemorySwappingConfig
	.cfi_endproc
	.cantunwind
	.fnend
                                        @ -- End function
	.section	.text.HAL_GetFMCMemorySwappingConfig,"ax",%progbits
	.hidden	HAL_GetFMCMemorySwappingConfig  @ -- Begin function HAL_GetFMCMemorySwappingConfig
	.globl	HAL_GetFMCMemorySwappingConfig
	.p2align	3
	.type	HAL_GetFMCMemorySwappingConfig,%function
	.code	16                              @ @HAL_GetFMCMemorySwappingConfig
	.thumb_func
HAL_GetFMCMemorySwappingConfig:
.Lfunc_begin46:
	.loc	2 1008 0                        @ libraries/STM32H7xx_HAL/STM32H7xx_HAL_Driver/Src/stm32h7xx_hal.c:1008:0
	.fnstart
	.cfi_startproc
@ %bb.0:
	movw	r0, #16384
	movt	r0, #20992
.Ltmp118:
	.loc	2 1009 10 prologue_end          @ libraries/STM32H7xx_HAL/STM32H7xx_HAL_Driver/Src/stm32h7xx_hal.c:1009:10
	ldr	r0, [r0]
	and	r0, r0, #50331648
	.loc	2 1009 3 is_stmt 0              @ libraries/STM32H7xx_HAL/STM32H7xx_HAL_Driver/Src/stm32h7xx_hal.c:1009:3
	bx	lr
.Ltmp119:
.Lfunc_end46:
	.size	HAL_GetFMCMemorySwappingConfig, .Lfunc_end46-HAL_GetFMCMemorySwappingConfig
	.cfi_endproc
	.cantunwind
	.fnend
                                        @ -- End function
	.section	.text.HAL_EXTI_EdgeConfig,"ax",%progbits
	.hidden	HAL_EXTI_EdgeConfig             @ -- Begin function HAL_EXTI_EdgeConfig
	.globl	HAL_EXTI_EdgeConfig
	.p2align	3
	.type	HAL_EXTI_EdgeConfig,%function
	.code	16                              @ @HAL_EXTI_EdgeConfig
	.thumb_func
HAL_EXTI_EdgeConfig:
.Lfunc_begin47:
	.loc	2 1025 0 is_stmt 1              @ libraries/STM32H7xx_HAL/STM32H7xx_HAL_Driver/Src/stm32h7xx_hal.c:1025:0
	.fnstart
	.cfi_startproc
@ %bb.0:
	.pad	#8
	sub	sp, #8
	.cfi_def_cfa_offset 8
	str	r0, [sp, #4]
	str	r1, [sp]
.Ltmp120:
	.loc	2 1031 3 prologue_end           @ libraries/STM32H7xx_HAL/STM32H7xx_HAL_Driver/Src/stm32h7xx_hal.c:1031:3
	ldr	r0, [sp, #4]
	and	r2, r0, #31
	movs	r1, #1
	lsl.w	r12, r1, r2
	bic	r2, r0, #31
	movs	r3, #4
	movt	r3, #22528
	ldr	r0, [r2, r3]
	bic.w	r0, r0, r12
	str	r0, [r2, r3]
	.loc	2 1032 3                        @ libraries/STM32H7xx_HAL/STM32H7xx_HAL_Driver/Src/stm32h7xx_hal.c:1032:3
	ldr	r0, [sp, #4]
	and	r2, r0, #31
	lsl.w	r3, r1, r2
	bic	r1, r0, #31
	mov.w	r2, #1476395008
	ldr	r0, [r1, r2]
	bics	r0, r3
	str	r0, [r1, r2]
	.loc	2 1034 7                        @ libraries/STM32H7xx_HAL/STM32H7xx_HAL_Driver/Src/stm32h7xx_hal.c:1034:7
	ldrb.w	r0, [sp, #2]
	lsls	r0, r0, #27
	cmp	r0, #0
	bpl	.LBB47_2
	b	.LBB47_1
.LBB47_1:
.Ltmp121:
	.loc	2 1036 4                        @ libraries/STM32H7xx_HAL/STM32H7xx_HAL_Driver/Src/stm32h7xx_hal.c:1036:4
	ldr	r0, [sp, #4]
	and	r2, r0, #31
	movs	r1, #1
	lsl.w	r3, r1, r2
	bic	r1, r0, #31
	mov.w	r2, #1476395008
	ldr	r0, [r1, r2]
	orrs	r0, r3
	str	r0, [r1, r2]
	.loc	2 1037 3                        @ libraries/STM32H7xx_HAL/STM32H7xx_HAL_Driver/Src/stm32h7xx_hal.c:1037:3
	b	.LBB47_2
.Ltmp122:
.LBB47_2:
	.loc	2 1038 7                        @ libraries/STM32H7xx_HAL/STM32H7xx_HAL_Driver/Src/stm32h7xx_hal.c:1038:7
	ldrb.w	r0, [sp, #2]
	lsls	r0, r0, #26
	cmp	r0, #0
	bpl	.LBB47_4
	b	.LBB47_3
.LBB47_3:
.Ltmp123:
	.loc	2 1040 4                        @ libraries/STM32H7xx_HAL/STM32H7xx_HAL_Driver/Src/stm32h7xx_hal.c:1040:4
	ldr	r0, [sp, #4]
	and	r2, r0, #31
	movs	r1, #1
	lsl.w	r3, r1, r2
	bic	r1, r0, #31
	movs	r2, #4
	movt	r2, #22528
	ldr	r0, [r1, r2]
	orrs	r0, r3
	str	r0, [r1, r2]
	.loc	2 1041 3                        @ libraries/STM32H7xx_HAL/STM32H7xx_HAL_Driver/Src/stm32h7xx_hal.c:1041:3
	b	.LBB47_4
.Ltmp124:
.LBB47_4:
	.loc	2 1042 1                        @ libraries/STM32H7xx_HAL/STM32H7xx_HAL_Driver/Src/stm32h7xx_hal.c:1042:1
	add	sp, #8
	bx	lr
.Ltmp125:
.Lfunc_end47:
	.size	HAL_EXTI_EdgeConfig, .Lfunc_end47-HAL_EXTI_EdgeConfig
	.cfi_endproc
	.cantunwind
	.fnend
                                        @ -- End function
	.section	.text.HAL_EXTI_GenerateSWInterrupt,"ax",%progbits
	.hidden	HAL_EXTI_GenerateSWInterrupt    @ -- Begin function HAL_EXTI_GenerateSWInterrupt
	.globl	HAL_EXTI_GenerateSWInterrupt
	.p2align	3
	.type	HAL_EXTI_GenerateSWInterrupt,%function
	.code	16                              @ @HAL_EXTI_GenerateSWInterrupt
	.thumb_func
HAL_EXTI_GenerateSWInterrupt:
.Lfunc_begin48:
	.loc	2 1051 0                        @ libraries/STM32H7xx_HAL/STM32H7xx_HAL_Driver/Src/stm32h7xx_hal.c:1051:0
	.fnstart
	.cfi_startproc
@ %bb.0:
	.pad	#4
	sub	sp, #4
	.cfi_def_cfa_offset 4
	str	r0, [sp]
.Ltmp126:
	.loc	2 1055 3 prologue_end           @ libraries/STM32H7xx_HAL/STM32H7xx_HAL_Driver/Src/stm32h7xx_hal.c:1055:3
	ldr	r0, [sp]
	and	r2, r0, #31
	movs	r1, #1
	lsl.w	r3, r1, r2
	bic	r1, r0, #31
	movs	r2, #8
	movt	r2, #22528
	ldr	r0, [r1, r2]
	orrs	r0, r3
	str	r0, [r1, r2]
	.loc	2 1056 1                        @ libraries/STM32H7xx_HAL/STM32H7xx_HAL_Driver/Src/stm32h7xx_hal.c:1056:1
	add	sp, #4
	bx	lr
.Ltmp127:
.Lfunc_end48:
	.size	HAL_EXTI_GenerateSWInterrupt, .Lfunc_end48-HAL_EXTI_GenerateSWInterrupt
	.cfi_endproc
	.cantunwind
	.fnend
                                        @ -- End function
	.section	.text.HAL_EXTI_D1_ClearFlag,"ax",%progbits
	.hidden	HAL_EXTI_D1_ClearFlag           @ -- Begin function HAL_EXTI_D1_ClearFlag
	.globl	HAL_EXTI_D1_ClearFlag
	.p2align	3
	.type	HAL_EXTI_D1_ClearFlag,%function
	.code	16                              @ @HAL_EXTI_D1_ClearFlag
	.thumb_func
HAL_EXTI_D1_ClearFlag:
.Lfunc_begin49:
	.loc	2 1066 0                        @ libraries/STM32H7xx_HAL/STM32H7xx_HAL_Driver/Src/stm32h7xx_hal.c:1066:0
	.fnstart
	.cfi_startproc
@ %bb.0:
	.pad	#4
	sub	sp, #4
	.cfi_def_cfa_offset 4
	str	r0, [sp]
.Ltmp128:
	.loc	2 1069 2 prologue_end           @ libraries/STM32H7xx_HAL/STM32H7xx_HAL_Driver/Src/stm32h7xx_hal.c:1069:2
	ldr	r1, [sp]
	and	r2, r1, #31
	movs	r0, #1
	lsl.w	r3, r0, r2
	mvn	r0, #15
	and.w	r1, r0, r1, lsr #1
	movs	r2, #136
	movt	r2, #22528
	ldr	r0, [r1, r2]
	orrs	r0, r3
	str	r0, [r1, r2]
	.loc	2 1071 1                        @ libraries/STM32H7xx_HAL/STM32H7xx_HAL_Driver/Src/stm32h7xx_hal.c:1071:1
	add	sp, #4
	bx	lr
.Ltmp129:
.Lfunc_end49:
	.size	HAL_EXTI_D1_ClearFlag, .Lfunc_end49-HAL_EXTI_D1_ClearFlag
	.cfi_endproc
	.cantunwind
	.fnend
                                        @ -- End function
	.section	.text.HAL_EXTI_D1_EventInputConfig,"ax",%progbits
	.hidden	HAL_EXTI_D1_EventInputConfig    @ -- Begin function HAL_EXTI_D1_EventInputConfig
	.globl	HAL_EXTI_D1_EventInputConfig
	.p2align	3
	.type	HAL_EXTI_D1_EventInputConfig,%function
	.code	16                              @ @HAL_EXTI_D1_EventInputConfig
	.thumb_func
HAL_EXTI_D1_EventInputConfig:
.Lfunc_begin50:
	.loc	2 1101 0                        @ libraries/STM32H7xx_HAL/STM32H7xx_HAL_Driver/Src/stm32h7xx_hal.c:1101:0
	.fnstart
	.cfi_startproc
@ %bb.0:
	.pad	#12
	sub	sp, #12
	.cfi_def_cfa_offset 12
	str	r0, [sp, #8]
	str	r1, [sp, #4]
	str	r2, [sp]
.Ltmp130:
	.loc	2 1106 7 prologue_end           @ libraries/STM32H7xx_HAL/STM32H7xx_HAL_Driver/Src/stm32h7xx_hal.c:1106:7
	ldrb.w	r0, [sp, #6]
	lsls	r0, r0, #31
	cbz	r0, .LBB50_5
	b	.LBB50_1
.LBB50_1:
.Ltmp131:
	.loc	2 1108 10                       @ libraries/STM32H7xx_HAL/STM32H7xx_HAL_Driver/Src/stm32h7xx_hal.c:1108:10
	ldr	r0, [sp]
.Ltmp132:
	.loc	2 1108 10 is_stmt 0             @ libraries/STM32H7xx_HAL/STM32H7xx_HAL_Driver/Src/stm32h7xx_hal.c:1108:10
	cbnz	r0, .LBB50_3
	b	.LBB50_2
.LBB50_2:
.Ltmp133:
	.loc	2 1111 9 is_stmt 1              @ libraries/STM32H7xx_HAL/STM32H7xx_HAL_Driver/Src/stm32h7xx_hal.c:1111:9
	ldr	r1, [sp, #8]
	and	r2, r1, #31
	movs	r0, #1
	lsl.w	r3, r0, r2
	mvn	r0, #15
	and.w	r1, r0, r1, lsr #1
	movs	r2, #128
	movt	r2, #22528
	ldr	r0, [r1, r2]
	bics	r0, r3
	str	r0, [r1, r2]
	.loc	2 1112 6                        @ libraries/STM32H7xx_HAL/STM32H7xx_HAL_Driver/Src/stm32h7xx_hal.c:1112:6
	b	.LBB50_4
.Ltmp134:
.LBB50_3:
	.loc	2 1115 9                        @ libraries/STM32H7xx_HAL/STM32H7xx_HAL_Driver/Src/stm32h7xx_hal.c:1115:9
	ldr	r1, [sp, #8]
	and	r2, r1, #31
	movs	r0, #1
	lsl.w	r3, r0, r2
	mvn	r0, #15
	and.w	r1, r0, r1, lsr #1
	movs	r2, #128
	movt	r2, #22528
	ldr	r0, [r1, r2]
	orrs	r0, r3
	str	r0, [r1, r2]
	b	.LBB50_4
.Ltmp135:
.LBB50_4:
	.loc	2 1117 3                        @ libraries/STM32H7xx_HAL/STM32H7xx_HAL_Driver/Src/stm32h7xx_hal.c:1117:3
	b	.LBB50_5
.Ltmp136:
.LBB50_5:
	.loc	2 1119 7                        @ libraries/STM32H7xx_HAL/STM32H7xx_HAL_Driver/Src/stm32h7xx_hal.c:1119:7
	ldrb.w	r0, [sp, #6]
	lsls	r0, r0, #30
	cmp	r0, #0
	bpl	.LBB50_10
	b	.LBB50_6
.LBB50_6:
.Ltmp137:
	.loc	2 1121 9                        @ libraries/STM32H7xx_HAL/STM32H7xx_HAL_Driver/Src/stm32h7xx_hal.c:1121:9
	ldr	r0, [sp]
.Ltmp138:
	.loc	2 1121 9 is_stmt 0              @ libraries/STM32H7xx_HAL/STM32H7xx_HAL_Driver/Src/stm32h7xx_hal.c:1121:9
	cbnz	r0, .LBB50_8
	b	.LBB50_7
.LBB50_7:
.Ltmp139:
	.loc	2 1124 7 is_stmt 1              @ libraries/STM32H7xx_HAL/STM32H7xx_HAL_Driver/Src/stm32h7xx_hal.c:1124:7
	ldr	r1, [sp, #8]
	and	r2, r1, #31
	movs	r0, #1
	lsl.w	r3, r0, r2
	mvn	r0, #15
	and.w	r1, r0, r1, lsr #1
	movs	r2, #132
	movt	r2, #22528
	ldr	r0, [r1, r2]
	bics	r0, r3
	str	r0, [r1, r2]
	.loc	2 1125 5                        @ libraries/STM32H7xx_HAL/STM32H7xx_HAL_Driver/Src/stm32h7xx_hal.c:1125:5
	b	.LBB50_9
.Ltmp140:
.LBB50_8:
	.loc	2 1128 7                        @ libraries/STM32H7xx_HAL/STM32H7xx_HAL_Driver/Src/stm32h7xx_hal.c:1128:7
	ldr	r1, [sp, #8]
	and	r2, r1, #31
	movs	r0, #1
	lsl.w	r3, r0, r2
	mvn	r0, #15
	and.w	r1, r0, r1, lsr #1
	movs	r2, #132
	movt	r2, #22528
	ldr	r0, [r1, r2]
	orrs	r0, r3
	str	r0, [r1, r2]
	b	.LBB50_9
.Ltmp141:
.LBB50_9:
	.loc	2 1130 3                        @ libraries/STM32H7xx_HAL/STM32H7xx_HAL_Driver/Src/stm32h7xx_hal.c:1130:3
	b	.LBB50_10
.Ltmp142:
.LBB50_10:
	.loc	2 1131 1                        @ libraries/STM32H7xx_HAL/STM32H7xx_HAL_Driver/Src/stm32h7xx_hal.c:1131:1
	add	sp, #12
	bx	lr
.Ltmp143:
.Lfunc_end50:
	.size	HAL_EXTI_D1_EventInputConfig, .Lfunc_end50-HAL_EXTI_D1_EventInputConfig
	.cfi_endproc
	.cantunwind
	.fnend
                                        @ -- End function
	.section	.text.HAL_EXTI_D3_EventInputConfig,"ax",%progbits
	.hidden	HAL_EXTI_D3_EventInputConfig    @ -- Begin function HAL_EXTI_D3_EventInputConfig
	.globl	HAL_EXTI_D3_EventInputConfig
	.p2align	3
	.type	HAL_EXTI_D3_EventInputConfig,%function
	.code	16                              @ @HAL_EXTI_D3_EventInputConfig
	.thumb_func
HAL_EXTI_D3_EventInputConfig:
.Lfunc_begin51:
	.loc	2 1195 0                        @ libraries/STM32H7xx_HAL/STM32H7xx_HAL_Driver/Src/stm32h7xx_hal.c:1195:0
	.fnstart
	.cfi_startproc
@ %bb.0:
	.pad	#16
	sub	sp, #16
	.cfi_def_cfa_offset 16
	str	r0, [sp, #12]
	str	r1, [sp, #8]
	str	r2, [sp, #4]
.Ltmp144:
	.loc	2 1202 7 prologue_end           @ libraries/STM32H7xx_HAL/STM32H7xx_HAL_Driver/Src/stm32h7xx_hal.c:1202:7
	ldr	r0, [sp, #8]
.Ltmp145:
	.loc	2 1202 7 is_stmt 0              @ libraries/STM32H7xx_HAL/STM32H7xx_HAL_Driver/Src/stm32h7xx_hal.c:1202:7
	cbnz	r0, .LBB51_2
	b	.LBB51_1
.LBB51_1:
.Ltmp146:
	.loc	2 1205 5 is_stmt 1              @ libraries/STM32H7xx_HAL/STM32H7xx_HAL_Driver/Src/stm32h7xx_hal.c:1205:5
	ldr	r0, [sp, #12]
	and	r2, r0, #31
	movs	r1, #1
	lsl.w	r3, r1, r2
	bic	r1, r0, #31
	movs	r2, #12
	movt	r2, #22528
	ldr	r0, [r1, r2]
	bics	r0, r3
	str	r0, [r1, r2]
	.loc	2 1206 3                        @ libraries/STM32H7xx_HAL/STM32H7xx_HAL_Driver/Src/stm32h7xx_hal.c:1206:3
	b	.LBB51_3
.Ltmp147:
.LBB51_2:
	.loc	2 1209 5                        @ libraries/STM32H7xx_HAL/STM32H7xx_HAL_Driver/Src/stm32h7xx_hal.c:1209:5
	ldr	r0, [sp, #12]
	and	r2, r0, #31
	movs	r1, #1
	lsl.w	r3, r1, r2
	bic	r1, r0, #31
	movs	r2, #12
	movt	r2, #22528
	ldr	r0, [r1, r2]
	orrs	r0, r3
	str	r0, [r1, r2]
	b	.LBB51_3
.Ltmp148:
.LBB51_3:
	.loc	2 1212 8                        @ libraries/STM32H7xx_HAL/STM32H7xx_HAL_Driver/Src/stm32h7xx_hal.c:1212:8
	ldr	r0, [sp, #12]
	.loc	2 1212 17 is_stmt 0             @ libraries/STM32H7xx_HAL/STM32H7xx_HAL_Driver/Src/stm32h7xx_hal.c:1212:17
	lsrs	r0, r0, #4
.Ltmp149:
	.loc	2 1212 6                        @ libraries/STM32H7xx_HAL/STM32H7xx_HAL_Driver/Src/stm32h7xx_hal.c:1212:6
	lsls	r0, r0, #31
	cbnz	r0, .LBB51_5
	b	.LBB51_4
.LBB51_4:
.Ltmp150:
	.loc	2 1214 66 is_stmt 1             @ libraries/STM32H7xx_HAL/STM32H7xx_HAL_Driver/Src/stm32h7xx_hal.c:1214:66
	ldr	r0, [sp, #12]
	.loc	2 1214 76 is_stmt 0             @ libraries/STM32H7xx_HAL/STM32H7xx_HAL_Driver/Src/stm32h7xx_hal.c:1214:76
	bic	r0, r0, #31
	movs	r1, #16
	movt	r1, #22528
	.loc	2 1214 62                       @ libraries/STM32H7xx_HAL/STM32H7xx_HAL_Driver/Src/stm32h7xx_hal.c:1214:62
	add	r0, r1
	.loc	2 1214 11                       @ libraries/STM32H7xx_HAL/STM32H7xx_HAL_Driver/Src/stm32h7xx_hal.c:1214:11
	str	r0, [sp]
	.loc	2 1215 3 is_stmt 1              @ libraries/STM32H7xx_HAL/STM32H7xx_HAL_Driver/Src/stm32h7xx_hal.c:1215:3
	b	.LBB51_6
.Ltmp151:
.LBB51_5:
	.loc	2 1218 66                       @ libraries/STM32H7xx_HAL/STM32H7xx_HAL_Driver/Src/stm32h7xx_hal.c:1218:66
	ldr	r0, [sp, #12]
	.loc	2 1218 76 is_stmt 0             @ libraries/STM32H7xx_HAL/STM32H7xx_HAL_Driver/Src/stm32h7xx_hal.c:1218:76
	bic	r0, r0, #31
	movs	r1, #20
	movt	r1, #22528
	.loc	2 1218 62                       @ libraries/STM32H7xx_HAL/STM32H7xx_HAL_Driver/Src/stm32h7xx_hal.c:1218:62
	add	r0, r1
	.loc	2 1218 11                       @ libraries/STM32H7xx_HAL/STM32H7xx_HAL_Driver/Src/stm32h7xx_hal.c:1218:11
	str	r0, [sp]
	b	.LBB51_6
.Ltmp152:
.LBB51_6:
	.loc	2 1220 3 is_stmt 1              @ libraries/STM32H7xx_HAL/STM32H7xx_HAL_Driver/Src/stm32h7xx_hal.c:1220:3
	ldr	r0, [sp]
	ldr	r0, [r0]
	ldr	r2, [sp, #12]
	movs	r1, #30
	and.w	r2, r1, r2, lsl #1
	movs	r1, #3
	lsls	r1, r2
	bics	r0, r1
	ldr	r1, [sp, #4]
	lsls	r1, r2
	orrs	r0, r1
	ldr	r1, [sp]
	str	r0, [r1]
	.loc	2 1222 1                        @ libraries/STM32H7xx_HAL/STM32H7xx_HAL_Driver/Src/stm32h7xx_hal.c:1222:1
	add	sp, #16
	bx	lr
.Ltmp153:
.Lfunc_end51:
	.size	HAL_EXTI_D3_EventInputConfig, .Lfunc_end51-HAL_EXTI_D3_EventInputConfig
	.cfi_endproc
	.cantunwind
	.fnend
                                        @ -- End function
	.hidden	uwTickPrio                      @ @uwTickPrio
	.type	uwTickPrio,%object
	.section	.data.uwTickPrio,"aw",%progbits
	.globl	uwTickPrio
	.p2align	2
uwTickPrio:
	.long	16                              @ 0x10
	.size	uwTickPrio, 4

	.hidden	uwTickFreq                      @ @uwTickFreq
	.type	uwTickFreq,%object
	.section	.data.uwTickFreq,"aw",%progbits
	.globl	uwTickFreq
uwTickFreq:
	.byte	1                               @ 0x1
	.size	uwTickFreq, 1

	.hidden	uwTick                          @ @uwTick
	.type	uwTick,%object
	.section	.bss.uwTick,"aw",%nobits
	.globl	uwTick
	.p2align	2
uwTick:
	.long	0                               @ 0x0
	.size	uwTick, 4

	.section	".note.GNU-stack","",%progbits
	.eabi_attribute	30, 6	@ Tag_ABI_optimization_goals
	.ARM_attribute	16, 1	@ Tag_AV_eba