	.text
	.syntax unified
	.eabi_attribute	67, "2.09"	@ Tag_conformance
	.cpu	cortex-m7
	.eabi_attribute	6, 13	@ Tag_CPU_arch
	.eabi_attribute	7, 77	@ Tag_CPU_arch_profile
	.eabi_attribute	8, 0	@ Tag_ARM_ISA_use
	.eabi_attribute	9, 2	@ Tag_THUMB_ISA_use
	.fpu	fpv5-d16
	.eabi_attribute	36, 1	@ Tag_FP_HP_extension
	.eabi_attribute	34, 1	@ Tag_CPU_unaligned_access
	.eabi_attribute	17, 1	@ Tag_ABI_PCS_GOT_use
	.eabi_attribute	20, 2	@ Tag_ABI_FP_denormal
	.eabi_attribute	21, 0	@ Tag_ABI_FP_exceptions
	.eabi_attribute	23, 1	@ Tag_ABI_FP_number_model
	.eabi_attribute	24, 1	@ Tag_ABI_align_needed
	.eabi_attribute	25, 1	@ Tag_ABI_align_preserved
	.eabi_attribute	28, 1	@ Tag_ABI_VFP_args
	.eabi_attribute	38, 1	@ Tag_ABI_FP_16bit_format
	.eabi_attribute	18, 2	@ Tag_ABI_PCS_wchar_t
	.eabi_attribute	26, 1	@ Tag_ABI_enum_size
	.eabi_attribute	14, 0	@ Tag_ABI_PCS_R9_use
	.file	"stm32h7xx_hal_uart.c"
	.file	1 "E:\\Smart-access-control\\Hardware\\CODE" "libraries/STM32H7xx_HAL/STM32H7xx_HAL_Driver/Inc/stm32h7xx_hal_def.h"
	.file	2 "E:\\Smart-access-control\\Hardware\\CODE" "libraries/STM32H7xx_HAL/STM32H7xx_HAL_Driver/Inc\\stm32h7xx_hal_dma.h"
	.file	3 "E:\\Smart-access-control\\Hardware\\CODE" "libraries/STM32H7xx_HAL/CMSIS/Device/ST/STM32H7xx/Include\\stm32h7xx.h"
	.file	4 "E:\\Smart-access-control\\Hardware\\CODE" "libraries/STM32H7xx_HAL/STM32H7xx_HAL_Driver/Inc\\stm32h7xx_hal_uart.h"
	.file	5 "D:\\Keil_v5\\ARM\\ARMCLANG\\Bin\\..\\include" "stdint.h"
	.file	6 "E:\\Smart-access-control\\Hardware\\CODE" "libraries/STM32H7xx_HAL/CMSIS/Device/ST/STM32H7xx/Include/stm32h750xx.h"
	.section	.text.HAL_UART_Init,"ax",%progbits
	.hidden	HAL_UART_Init                   @ -- Begin function HAL_UART_Init
	.globl	HAL_UART_Init
	.p2align	3
	.type	HAL_UART_Init,%function
	.code	16                              @ @HAL_UART_Init
	.thumb_func
HAL_UART_Init:
.Lfunc_begin0:
	.file	7 "E:\\Smart-access-control\\Hardware\\CODE" "libraries/STM32H7xx_HAL/STM32H7xx_HAL_Driver/Src/stm32h7xx_hal_uart.c"
	.loc	7 296 0                         @ libraries/STM32H7xx_HAL/STM32H7xx_HAL_Driver/Src/stm32h7xx_hal_uart.c:296:0
	.fnstart
	.cfi_sections .debug_frame
	.cfi_startproc
@ %bb.0:
	.save	{r7, lr}
	push	{r7, lr}
	.cfi_def_cfa_offset 8
	.cfi_offset lr, -4
	.cfi_offset r7, -8
	.pad	#8
	sub	sp, #8
	.cfi_def_cfa_offset 16
	str	r0, [sp]
.Ltmp0:
	.loc	7 298 7 prologue_end            @ libraries/STM32H7xx_HAL/STM32H7xx_HAL_Driver/Src/stm32h7xx_hal_uart.c:298:7
	ldr	r0, [sp]
.Ltmp1:
	.loc	7 298 7 is_stmt 0               @ libraries/STM32H7xx_HAL/STM32H7xx_HAL_Driver/Src/stm32h7xx_hal_uart.c:298:7
	cbnz	r0, .LBB0_2
	b	.LBB0_1
.LBB0_1:
	.loc	7 0 7                           @ libraries/STM32H7xx_HAL/STM32H7xx_HAL_Driver/Src/stm32h7xx_hal_uart.c:0:7
	movs	r0, #1
.Ltmp2:
	.loc	7 300 5 is_stmt 1               @ libraries/STM32H7xx_HAL/STM32H7xx_HAL_Driver/Src/stm32h7xx_hal_uart.c:300:5
	strb.w	r0, [sp, #7]
	b	.LBB0_12
.Ltmp3:
.LBB0_2:
	.loc	7 303 7                         @ libraries/STM32H7xx_HAL/STM32H7xx_HAL_Driver/Src/stm32h7xx_hal_uart.c:303:7
	ldr	r0, [sp]
	.loc	7 303 19 is_stmt 0              @ libraries/STM32H7xx_HAL/STM32H7xx_HAL_Driver/Src/stm32h7xx_hal_uart.c:303:19
	ldr	r0, [r0, #24]
.Ltmp4:
	.loc	7 303 7                         @ libraries/STM32H7xx_HAL/STM32H7xx_HAL_Driver/Src/stm32h7xx_hal_uart.c:303:7
	cbz	r0, .LBB0_4
	b	.LBB0_3
.LBB0_3:
.Ltmp5:
	.loc	7 307 3 is_stmt 1               @ libraries/STM32H7xx_HAL/STM32H7xx_HAL_Driver/Src/stm32h7xx_hal_uart.c:307:3
	b	.LBB0_5
.Ltmp6:
.LBB0_4:
	.loc	7 0 3 is_stmt 0                 @ libraries/STM32H7xx_HAL/STM32H7xx_HAL_Driver/Src/stm32h7xx_hal_uart.c:0:3
	b	.LBB0_5
.LBB0_5:
.Ltmp7:
	.loc	7 314 7 is_stmt 1               @ libraries/STM32H7xx_HAL/STM32H7xx_HAL_Driver/Src/stm32h7xx_hal_uart.c:314:7
	ldr	r0, [sp]
	.loc	7 314 14 is_stmt 0              @ libraries/STM32H7xx_HAL/STM32H7xx_HAL_Driver/Src/stm32h7xx_hal_uart.c:314:14
	ldr.w	r0, [r0, #128]
.Ltmp8:
	.loc	7 314 7                         @ libraries/STM32H7xx_HAL/STM32H7xx_HAL_Driver/Src/stm32h7xx_hal_uart.c:314:7
	cbnz	r0, .LBB0_7
	b	.LBB0_6
.LBB0_6:
.Ltmp9:
	.loc	7 317 5 is_stmt 1               @ libraries/STM32H7xx_HAL/STM32H7xx_HAL_Driver/Src/stm32h7xx_hal_uart.c:317:5
	ldr	r1, [sp]
	movs	r0, #0
	.loc	7 317 17 is_stmt 0              @ libraries/STM32H7xx_HAL/STM32H7xx_HAL_Driver/Src/stm32h7xx_hal_uart.c:317:17
	strb.w	r0, [r1, #124]
	.loc	7 331 22 is_stmt 1              @ libraries/STM32H7xx_HAL/STM32H7xx_HAL_Driver/Src/stm32h7xx_hal_uart.c:331:22
	ldr	r0, [sp]
	.loc	7 331 5 is_stmt 0               @ libraries/STM32H7xx_HAL/STM32H7xx_HAL_Driver/Src/stm32h7xx_hal_uart.c:331:5
	bl	HAL_UART_MspInit
	.loc	7 333 3 is_stmt 1               @ libraries/STM32H7xx_HAL/STM32H7xx_HAL_Driver/Src/stm32h7xx_hal_uart.c:333:3
	b	.LBB0_7
.Ltmp10:
.LBB0_7:
	.loc	7 335 3                         @ libraries/STM32H7xx_HAL/STM32H7xx_HAL_Driver/Src/stm32h7xx_hal_uart.c:335:3
	ldr	r1, [sp]
	movs	r0, #36
	.loc	7 335 17 is_stmt 0              @ libraries/STM32H7xx_HAL/STM32H7xx_HAL_Driver/Src/stm32h7xx_hal_uart.c:335:17
	str.w	r0, [r1, #128]
	.loc	7 337 3 is_stmt 1               @ libraries/STM32H7xx_HAL/STM32H7xx_HAL_Driver/Src/stm32h7xx_hal_uart.c:337:3
	ldr	r0, [sp]
	ldr	r1, [r0]
	ldr	r0, [r1]
	bic	r0, r0, #1
	str	r0, [r1]
.Ltmp11:
	.loc	7 340 22                        @ libraries/STM32H7xx_HAL/STM32H7xx_HAL_Driver/Src/stm32h7xx_hal_uart.c:340:22
	ldr	r0, [sp]
	.loc	7 340 7 is_stmt 0               @ libraries/STM32H7xx_HAL/STM32H7xx_HAL_Driver/Src/stm32h7xx_hal_uart.c:340:7
	bl	UART_SetConfig
.Ltmp12:
	.loc	7 340 7                         @ libraries/STM32H7xx_HAL/STM32H7xx_HAL_Driver/Src/stm32h7xx_hal_uart.c:340:7
	cmp	r0, #1
	bne	.LBB0_9
	b	.LBB0_8
.LBB0_8:
	.loc	7 0 7                           @ libraries/STM32H7xx_HAL/STM32H7xx_HAL_Driver/Src/stm32h7xx_hal_uart.c:0:7
	movs	r0, #1
.Ltmp13:
	.loc	7 342 5 is_stmt 1               @ libraries/STM32H7xx_HAL/STM32H7xx_HAL_Driver/Src/stm32h7xx_hal_uart.c:342:5
	strb.w	r0, [sp, #7]
	b	.LBB0_12
.Ltmp14:
.LBB0_9:
	.loc	7 345 7                         @ libraries/STM32H7xx_HAL/STM32H7xx_HAL_Driver/Src/stm32h7xx_hal_uart.c:345:7
	ldr	r0, [sp]
	.loc	7 345 27 is_stmt 0              @ libraries/STM32H7xx_HAL/STM32H7xx_HAL_Driver/Src/stm32h7xx_hal_uart.c:345:27
	ldr	r0, [r0, #40]
.Ltmp15:
	.loc	7 345 7                         @ libraries/STM32H7xx_HAL/STM32H7xx_HAL_Driver/Src/stm32h7xx_hal_uart.c:345:7
	cbz	r0, .LBB0_11
	b	.LBB0_10
.LBB0_10:
.Ltmp16:
	.loc	7 347 27 is_stmt 1              @ libraries/STM32H7xx_HAL/STM32H7xx_HAL_Driver/Src/stm32h7xx_hal_uart.c:347:27
	ldr	r0, [sp]
	.loc	7 347 5 is_stmt 0               @ libraries/STM32H7xx_HAL/STM32H7xx_HAL_Driver/Src/stm32h7xx_hal_uart.c:347:5
	bl	UART_AdvFeatureConfig
	.loc	7 348 3 is_stmt 1               @ libraries/STM32H7xx_HAL/STM32H7xx_HAL_Driver/Src/stm32h7xx_hal_uart.c:348:3
	b	.LBB0_11
.Ltmp17:
.LBB0_11:
	.loc	7 353 3                         @ libraries/STM32H7xx_HAL/STM32H7xx_HAL_Driver/Src/stm32h7xx_hal_uart.c:353:3
	ldr	r0, [sp]
	ldr	r1, [r0]
	ldr	r0, [r1, #4]
	bic	r0, r0, #18432
	str	r0, [r1, #4]
	.loc	7 354 3                         @ libraries/STM32H7xx_HAL/STM32H7xx_HAL_Driver/Src/stm32h7xx_hal_uart.c:354:3
	ldr	r0, [sp]
	ldr	r1, [r0]
	ldr	r0, [r1, #8]
	bic	r0, r0, #42
	str	r0, [r1, #8]
	.loc	7 356 3                         @ libraries/STM32H7xx_HAL/STM32H7xx_HAL_Driver/Src/stm32h7xx_hal_uart.c:356:3
	ldr	r0, [sp]
	ldr	r1, [r0]
	ldr	r0, [r1]
	orr	r0, r0, #1
	str	r0, [r1]
	.loc	7 359 31                        @ libraries/STM32H7xx_HAL/STM32H7xx_HAL_Driver/Src/stm32h7xx_hal_uart.c:359:31
	ldr	r0, [sp]
	.loc	7 359 11 is_stmt 0              @ libraries/STM32H7xx_HAL/STM32H7xx_HAL_Driver/Src/stm32h7xx_hal_uart.c:359:11
	bl	UART_CheckIdleState
	.loc	7 359 3                         @ libraries/STM32H7xx_HAL/STM32H7xx_HAL_Driver/Src/stm32h7xx_hal_uart.c:359:3
	strb.w	r0, [sp, #7]
	b	.LBB0_12
.LBB0_12:
	.loc	7 360 1 is_stmt 1               @ libraries/STM32H7xx_HAL/STM32H7xx_HAL_Driver/Src/stm32h7xx_hal_uart.c:360:1
	ldrb.w	r0, [sp, #7]
	add	sp, #8
	pop	{r7, pc}
.Ltmp18:
.Lfunc_end0:
	.size	HAL_UART_Init, .Lfunc_end0-HAL_UART_Init
	.cfi_endproc
	.cantunwind
	.fnend
                                        @ -- End function
	.section	.text.HAL_UART_MspInit,"ax",%progbits
	.hidden	HAL_UART_MspInit                @ -- Begin function HAL_UART_MspInit
	.weak	HAL_UART_MspInit
	.p2align	3
	.type	HAL_UART_MspInit,%function
	.code	16                              @ @HAL_UART_MspInit
	.thumb_func
HAL_UART_MspInit:
.Lfunc_begin1:
	.loc	7 658 0                         @ libraries/STM32H7xx_HAL/STM32H7xx_HAL_Driver/Src/stm32h7xx_hal_uart.c:658:0
	.fnstart
	.cfi_startproc
@ %bb.0:
	.pad	#4
	sub	sp, #4
	.cfi_def_cfa_offset 4
	str	r0, [sp]
.Ltmp19:
	.loc	7 665 1 prologue_end            @ libraries/STM32H7xx_HAL/STM32H7xx_HAL_Driver/Src/stm32h7xx_hal_uart.c:665:1
	add	sp, #4
	bx	lr
.Ltmp20:
.Lfunc_end1:
	.size	HAL_UART_MspInit, .Lfunc_end1-HAL_UART_MspInit
	.cfi_endproc
	.cantunwind
	.fnend
                                        @ -- End function
	.section	.text.UART_SetConfig,"ax",%progbits
	.hidden	UART_SetConfig                  @ -- Begin function UART_SetConfig
	.globl	UART_SetConfig
	.p2align	3
	.type	UART_SetConfig,%function
	.code	16                              @ @UART_SetConfig
	.thumb_func
UART_SetConfig:
.Lfunc_begin2:
	.loc	7 2856 0                        @ libraries/STM32H7xx_HAL/STM32H7xx_HAL_Driver/Src/stm32h7xx_hal_uart.c:2856:0
	.fnstart
	.cfi_startproc
@ %bb.0:
	.save	{r7, lr}
	push	{r7, lr}
	.cfi_def_cfa_offset 8
	.cfi_offset lr, -4
	.cfi_offset r7, -8
	.pad	#1544
	sub.w	sp, sp, #1544
	.cfi_def_cfa_offset 1552
	str.w	r0, [sp, #1540]
	movs	r0, #0
.Ltmp21:
	.loc	7 2860 12 prologue_end          @ libraries/STM32H7xx_HAL/STM32H7xx_HAL_Driver/Src/stm32h7xx_hal_uart.c:2860:12
	str.w	r0, [sp, #1528]
	.loc	7 2861 21                       @ libraries/STM32H7xx_HAL/STM32H7xx_HAL_Driver/Src/stm32h7xx_hal_uart.c:2861:21
	strb.w	r0, [sp, #1527]
	.loc	7 2862 12                       @ libraries/STM32H7xx_HAL/STM32H7xx_HAL_Driver/Src/stm32h7xx_hal_uart.c:2862:12
	str.w	r0, [sp, #1520]
.Ltmp22:
	.loc	7 2870 7                        @ libraries/STM32H7xx_HAL/STM32H7xx_HAL_Driver/Src/stm32h7xx_hal_uart.c:2870:7
	ldr.w	r0, [sp, #1540]
	ldr	r0, [r0]
	movw	r1, #3072
	movt	r1, #22528
.Ltmp23:
	.loc	7 2870 7 is_stmt 0              @ libraries/STM32H7xx_HAL/STM32H7xx_HAL_Driver/Src/stm32h7xx_hal_uart.c:2870:7
	cmp	r0, r1
	bne	.LBB2_2
	b	.LBB2_1
.LBB2_1:
.Ltmp24:
	.loc	7 2873 3 is_stmt 1              @ libraries/STM32H7xx_HAL/STM32H7xx_HAL_Driver/Src/stm32h7xx_hal_uart.c:2873:3
	b	.LBB2_3
.Ltmp25:
.LBB2_2:
	.loc	7 0 3 is_stmt 0                 @ libraries/STM32H7xx_HAL/STM32H7xx_HAL_Driver/Src/stm32h7xx_hal_uart.c:0:3
	b	.LBB2_3
.LBB2_3:
	.loc	7 2893 22 is_stmt 1             @ libraries/STM32H7xx_HAL/STM32H7xx_HAL_Driver/Src/stm32h7xx_hal_uart.c:2893:22
	ldr.w	r1, [sp, #1540]
	.loc	7 2893 34 is_stmt 0             @ libraries/STM32H7xx_HAL/STM32H7xx_HAL_Driver/Src/stm32h7xx_hal_uart.c:2893:34
	ldr	r0, [r1, #8]
	.loc	7 2893 59                       @ libraries/STM32H7xx_HAL/STM32H7xx_HAL_Driver/Src/stm32h7xx_hal_uart.c:2893:59
	ldr	r3, [r1, #16]
	.loc	7 2893 80                       @ libraries/STM32H7xx_HAL/STM32H7xx_HAL_Driver/Src/stm32h7xx_hal_uart.c:2893:80
	ldr	r2, [r1, #20]
	.loc	7 2893 99                       @ libraries/STM32H7xx_HAL/STM32H7xx_HAL_Driver/Src/stm32h7xx_hal_uart.c:2893:99
	ldr	r1, [r1, #28]
	.loc	7 2893 45                       @ libraries/STM32H7xx_HAL/STM32H7xx_HAL_Driver/Src/stm32h7xx_hal_uart.c:2893:45
	orrs	r0, r3
	.loc	7 2893 66                       @ libraries/STM32H7xx_HAL/STM32H7xx_HAL_Driver/Src/stm32h7xx_hal_uart.c:2893:66
	orrs	r0, r2
	.loc	7 2893 85                       @ libraries/STM32H7xx_HAL/STM32H7xx_HAL_Driver/Src/stm32h7xx_hal_uart.c:2893:85
	orrs	r0, r1
	.loc	7 2893 10                       @ libraries/STM32H7xx_HAL/STM32H7xx_HAL_Driver/Src/stm32h7xx_hal_uart.c:2893:10
	str.w	r0, [sp, #1536]
	.loc	7 2894 23 is_stmt 1             @ libraries/STM32H7xx_HAL/STM32H7xx_HAL_Driver/Src/stm32h7xx_hal_uart.c:2894:23
	ldr.w	r0, [sp, #1540]
	.loc	7 2894 30 is_stmt 0             @ libraries/STM32H7xx_HAL/STM32H7xx_HAL_Driver/Src/stm32h7xx_hal_uart.c:2894:30
	ldr	r1, [r0, #100]
	.loc	7 2894 10                       @ libraries/STM32H7xx_HAL/STM32H7xx_HAL_Driver/Src/stm32h7xx_hal_uart.c:2894:10
	ldr.w	r0, [sp, #1536]
	orrs	r0, r1
	str.w	r0, [sp, #1536]
	.loc	7 2895 3 is_stmt 1              @ libraries/STM32H7xx_HAL/STM32H7xx_HAL_Driver/Src/stm32h7xx_hal_uart.c:2895:3
	ldr.w	r0, [sp, #1540]
	ldr	r0, [r0]
	ldr	r0, [r0]
	movw	r1, #27123
	movt	r1, #53247
	ands	r0, r1
	ldr.w	r1, [sp, #1536]
	orrs	r0, r1
	ldr.w	r1, [sp, #1540]
	ldr	r1, [r1]
	str	r0, [r1]
	.loc	7 2900 3                        @ libraries/STM32H7xx_HAL/STM32H7xx_HAL_Driver/Src/stm32h7xx_hal_uart.c:2900:3
	ldr.w	r0, [sp, #1540]
	ldr	r0, [r0]
	ldr	r0, [r0, #4]
	bic	r0, r0, #12288
	ldr.w	r2, [sp, #1540]
	ldr	r1, [r2]
	ldr	r2, [r2, #12]
	orrs	r0, r2
	str	r0, [r1, #4]
	.loc	7 2908 22                       @ libraries/STM32H7xx_HAL/STM32H7xx_HAL_Driver/Src/stm32h7xx_hal_uart.c:2908:22
	ldr.w	r0, [sp, #1540]
	.loc	7 2908 34 is_stmt 0             @ libraries/STM32H7xx_HAL/STM32H7xx_HAL_Driver/Src/stm32h7xx_hal_uart.c:2908:34
	ldr	r0, [r0, #24]
	.loc	7 2908 10                       @ libraries/STM32H7xx_HAL/STM32H7xx_HAL_Driver/Src/stm32h7xx_hal_uart.c:2908:10
	str.w	r0, [sp, #1536]
.Ltmp26:
	.loc	7 2910 9 is_stmt 1              @ libraries/STM32H7xx_HAL/STM32H7xx_HAL_Driver/Src/stm32h7xx_hal_uart.c:2910:9
	ldr.w	r0, [sp, #1540]
	ldr	r0, [r0]
	movw	r1, #3072
	movt	r1, #22528
.Ltmp27:
	.loc	7 2910 7 is_stmt 0              @ libraries/STM32H7xx_HAL/STM32H7xx_HAL_Driver/Src/stm32h7xx_hal_uart.c:2910:7
	cmp	r0, r1
	beq	.LBB2_5
	b	.LBB2_4
.LBB2_4:
.Ltmp28:
	.loc	7 2912 15 is_stmt 1             @ libraries/STM32H7xx_HAL/STM32H7xx_HAL_Driver/Src/stm32h7xx_hal_uart.c:2912:15
	ldr.w	r0, [sp, #1540]
	.loc	7 2912 27 is_stmt 0             @ libraries/STM32H7xx_HAL/STM32H7xx_HAL_Driver/Src/stm32h7xx_hal_uart.c:2912:27
	ldr	r1, [r0, #32]
	.loc	7 2912 12                       @ libraries/STM32H7xx_HAL/STM32H7xx_HAL_Driver/Src/stm32h7xx_hal_uart.c:2912:12
	ldr.w	r0, [sp, #1536]
	orrs	r0, r1
	str.w	r0, [sp, #1536]
	.loc	7 2913 3 is_stmt 1              @ libraries/STM32H7xx_HAL/STM32H7xx_HAL_Driver/Src/stm32h7xx_hal_uart.c:2913:3
	b	.LBB2_5
.Ltmp29:
.LBB2_5:
	.loc	7 2914 3                        @ libraries/STM32H7xx_HAL/STM32H7xx_HAL_Driver/Src/stm32h7xx_hal_uart.c:2914:3
	ldr.w	r0, [sp, #1540]
	ldr	r0, [r0]
	ldr	r0, [r0, #8]
	movw	r1, #62719
	movt	r1, #4607
	ands	r0, r1
	ldr.w	r1, [sp, #1536]
	orrs	r0, r1
	ldr.w	r1, [sp, #1540]
	ldr	r1, [r1]
	str	r0, [r1, #8]
	.loc	7 2919 3                        @ libraries/STM32H7xx_HAL/STM32H7xx_HAL_Driver/Src/stm32h7xx_hal_uart.c:2919:3
	ldr.w	r0, [sp, #1540]
	ldr	r0, [r0]
	ldr	r0, [r0, #44]
	bic	r0, r0, #15
	ldr.w	r2, [sp, #1540]
	ldr	r1, [r2]
	ldr	r2, [r2, #36]
	orrs	r0, r2
	str	r0, [r1, #44]
	.loc	7 2922 3                        @ libraries/STM32H7xx_HAL/STM32H7xx_HAL_Driver/Src/stm32h7xx_hal_uart.c:2922:3
	b	.LBB2_6
.LBB2_6:
.Ltmp30:
	.loc	7 2922 3 is_stmt 0              @ libraries/STM32H7xx_HAL/STM32H7xx_HAL_Driver/Src/stm32h7xx_hal_uart.c:2922:3
	ldr.w	r0, [sp, #1540]
	ldr	r0, [r0]
	movw	r1, #4096
	movt	r1, #16385
.Ltmp31:
	.loc	7 2922 3                        @ libraries/STM32H7xx_HAL/STM32H7xx_HAL_Driver/Src/stm32h7xx_hal_uart.c:2922:3
	cmp	r0, r1
	bne.w	.LBB2_18
	b	.LBB2_7
.LBB2_7:
	.loc	7 0 3                           @ libraries/STM32H7xx_HAL/STM32H7xx_HAL_Driver/Src/stm32h7xx_hal_uart.c:0:3
	movw	r0, #17492
	movt	r0, #22530
.Ltmp32:
	.loc	7 2922 3                        @ libraries/STM32H7xx_HAL/STM32H7xx_HAL_Driver/Src/stm32h7xx_hal_uart.c:2922:3
	ldr	r0, [r0]
	and	r0, r0, #56
	mov	r1, r0
	str.w	r1, [sp, #1488]                 @ 4-byte Spill
	cmp	r0, #40
	bhi	.LBB2_16
@ %bb.8:
	.loc	7 0 3                           @ libraries/STM32H7xx_HAL/STM32H7xx_HAL_Driver/Src/stm32h7xx_hal_uart.c:0:3
	ldr.w	r1, [sp, #1488]                 @ 4-byte Reload
.LCPI2_0:
	tbb	[pc, r1]
@ %bb.9:
.LJTI2_8:
	.byte	(.LBB2_10-(.LCPI2_0+4))/2
	.byte	(.LBB2_16-(.LCPI2_0+4))/2
	.byte	(.LBB2_16-(.LCPI2_0+4))/2
	.byte	(.LBB2_16-(.LCPI2_0+4))/2
	.byte	(.LBB2_16-(.LCPI2_0+4))/2
	.byte	(.LBB2_16-(.LCPI2_0+4))/2
	.byte	(.LBB2_16-(.LCPI2_0+4))/2
	.byte	(.LBB2_16-(.LCPI2_0+4))/2
	.byte	(.LBB2_11-(.LCPI2_0+4))/2
	.byte	(.LBB2_16-(.LCPI2_0+4))/2
	.byte	(.LBB2_16-(.LCPI2_0+4))/2
	.byte	(.LBB2_16-(.LCPI2_0+4))/2
	.byte	(.LBB2_16-(.LCPI2_0+4))/2
	.byte	(.LBB2_16-(.LCPI2_0+4))/2
	.byte	(.LBB2_16-(.LCPI2_0+4))/2
	.byte	(.LBB2_16-(.LCPI2_0+4))/2
	.byte	(.LBB2_12-(.LCPI2_0+4))/2
	.byte	(.LBB2_16-(.LCPI2_0+4))/2
	.byte	(.LBB2_16-(.LCPI2_0+4))/2
	.byte	(.LBB2_16-(.LCPI2_0+4))/2
	.byte	(.LBB2_16-(.LCPI2_0+4))/2
	.byte	(.LBB2_16-(.LCPI2_0+4))/2
	.byte	(.LBB2_16-(.LCPI2_0+4))/2
	.byte	(.LBB2_16-(.LCPI2_0+4))/2
	.byte	(.LBB2_13-(.LCPI2_0+4))/2
	.byte	(.LBB2_16-(.LCPI2_0+4))/2
	.byte	(.LBB2_16-(.LCPI2_0+4))/2
	.byte	(.LBB2_16-(.LCPI2_0+4))/2
	.byte	(.LBB2_16-(.LCPI2_0+4))/2
	.byte	(.LBB2_16-(.LCPI2_0+4))/2
	.byte	(.LBB2_16-(.LCPI2_0+4))/2
	.byte	(.LBB2_16-(.LCPI2_0+4))/2
	.byte	(.LBB2_14-(.LCPI2_0+4))/2
	.byte	(.LBB2_16-(.LCPI2_0+4))/2
	.byte	(.LBB2_16-(.LCPI2_0+4))/2
	.byte	(.LBB2_16-(.LCPI2_0+4))/2
	.byte	(.LBB2_16-(.LCPI2_0+4))/2
	.byte	(.LBB2_16-(.LCPI2_0+4))/2
	.byte	(.LBB2_16-(.LCPI2_0+4))/2
	.byte	(.LBB2_16-(.LCPI2_0+4))/2
	.byte	(.LBB2_15-(.LCPI2_0+4))/2
	.p2align	1
.LBB2_10:
	movs	r0, #1
.Ltmp33:
	.loc	7 2922 3                        @ libraries/STM32H7xx_HAL/STM32H7xx_HAL_Driver/Src/stm32h7xx_hal_uart.c:2922:3
	strb.w	r0, [sp, #1533]
	b	.LBB2_17
.LBB2_11:
	.loc	7 0 3                           @ libraries/STM32H7xx_HAL/STM32H7xx_HAL_Driver/Src/stm32h7xx_hal_uart.c:0:3
	movs	r0, #4
	.loc	7 2922 3                        @ libraries/STM32H7xx_HAL/STM32H7xx_HAL_Driver/Src/stm32h7xx_hal_uart.c:2922:3
	strb.w	r0, [sp, #1533]
	b	.LBB2_17
.LBB2_12:
	.loc	7 0 3                           @ libraries/STM32H7xx_HAL/STM32H7xx_HAL_Driver/Src/stm32h7xx_hal_uart.c:0:3
	movs	r0, #8
	.loc	7 2922 3                        @ libraries/STM32H7xx_HAL/STM32H7xx_HAL_Driver/Src/stm32h7xx_hal_uart.c:2922:3
	strb.w	r0, [sp, #1533]
	b	.LBB2_17
.LBB2_13:
	.loc	7 0 3                           @ libraries/STM32H7xx_HAL/STM32H7xx_HAL_Driver/Src/stm32h7xx_hal_uart.c:0:3
	movs	r0, #16
	.loc	7 2922 3                        @ libraries/STM32H7xx_HAL/STM32H7xx_HAL_Driver/Src/stm32h7xx_hal_uart.c:2922:3
	strb.w	r0, [sp, #1533]
	b	.LBB2_17
.LBB2_14:
	.loc	7 0 3                           @ libraries/STM32H7xx_HAL/STM32H7xx_HAL_Driver/Src/stm32h7xx_hal_uart.c:0:3
	movs	r0, #32
	.loc	7 2922 3                        @ libraries/STM32H7xx_HAL/STM32H7xx_HAL_Driver/Src/stm32h7xx_hal_uart.c:2922:3
	strb.w	r0, [sp, #1533]
	b	.LBB2_17
.LBB2_15:
	.loc	7 0 3                           @ libraries/STM32H7xx_HAL/STM32H7xx_HAL_Driver/Src/stm32h7xx_hal_uart.c:0:3
	movs	r0, #64
	.loc	7 2922 3                        @ libraries/STM32H7xx_HAL/STM32H7xx_HAL_Driver/Src/stm32h7xx_hal_uart.c:2922:3
	strb.w	r0, [sp, #1533]
	b	.LBB2_17
.LBB2_16:
	.loc	7 0 3                           @ libraries/STM32H7xx_HAL/STM32H7xx_HAL_Driver/Src/stm32h7xx_hal_uart.c:0:3
	movs	r0, #128
	.loc	7 2922 3                        @ libraries/STM32H7xx_HAL/STM32H7xx_HAL_Driver/Src/stm32h7xx_hal_uart.c:2922:3
	strb.w	r0, [sp, #1533]
	b	.LBB2_17
.Ltmp34:
.LBB2_17:
	.loc	7 2922 3                        @ libraries/STM32H7xx_HAL/STM32H7xx_HAL_Driver/Src/stm32h7xx_hal_uart.c:2922:3
	b	.LBB2_123
.Ltmp35:
.LBB2_18:
	.loc	7 2922 3                        @ libraries/STM32H7xx_HAL/STM32H7xx_HAL_Driver/Src/stm32h7xx_hal_uart.c:2922:3
	ldr.w	r0, [sp, #1540]
	ldr	r0, [r0]
	movw	r1, #17408
	movt	r1, #16384
.Ltmp36:
	.loc	7 2922 3                        @ libraries/STM32H7xx_HAL/STM32H7xx_HAL_Driver/Src/stm32h7xx_hal_uart.c:2922:3
	cmp	r0, r1
	bne	.LBB2_30
	b	.LBB2_19
.LBB2_19:
	.loc	7 0 3                           @ libraries/STM32H7xx_HAL/STM32H7xx_HAL_Driver/Src/stm32h7xx_hal_uart.c:0:3
	movw	r0, #17492
	movt	r0, #22530
.Ltmp37:
	.loc	7 2922 3                        @ libraries/STM32H7xx_HAL/STM32H7xx_HAL_Driver/Src/stm32h7xx_hal_uart.c:2922:3
	ldr	r0, [r0]
	and	r0, r0, #7
	mov	r1, r0
	str.w	r1, [sp, #1484]                 @ 4-byte Spill
	cmp	r0, #5
	bhi	.LBB2_28
@ %bb.20:
	.loc	7 0 3                           @ libraries/STM32H7xx_HAL/STM32H7xx_HAL_Driver/Src/stm32h7xx_hal_uart.c:0:3
	ldr.w	r1, [sp, #1484]                 @ 4-byte Reload
.LCPI2_1:
	tbb	[pc, r1]
@ %bb.21:
.LJTI2_7:
	.byte	(.LBB2_22-(.LCPI2_1+4))/2
	.byte	(.LBB2_23-(.LCPI2_1+4))/2
	.byte	(.LBB2_24-(.LCPI2_1+4))/2
	.byte	(.LBB2_25-(.LCPI2_1+4))/2
	.byte	(.LBB2_26-(.LCPI2_1+4))/2
	.byte	(.LBB2_27-(.LCPI2_1+4))/2
	.p2align	1
.LBB2_22:
	movs	r0, #0
.Ltmp38:
	.loc	7 2922 3                        @ libraries/STM32H7xx_HAL/STM32H7xx_HAL_Driver/Src/stm32h7xx_hal_uart.c:2922:3
	strb.w	r0, [sp, #1533]
	b	.LBB2_29
.LBB2_23:
	.loc	7 0 3                           @ libraries/STM32H7xx_HAL/STM32H7xx_HAL_Driver/Src/stm32h7xx_hal_uart.c:0:3
	movs	r0, #4
	.loc	7 2922 3                        @ libraries/STM32H7xx_HAL/STM32H7xx_HAL_Driver/Src/stm32h7xx_hal_uart.c:2922:3
	strb.w	r0, [sp, #1533]
	b	.LBB2_29
.LBB2_24:
	.loc	7 0 3                           @ libraries/STM32H7xx_HAL/STM32H7xx_HAL_Driver/Src/stm32h7xx_hal_uart.c:0:3
	movs	r0, #8
	.loc	7 2922 3                        @ libraries/STM32H7xx_HAL/STM32H7xx_HAL_Driver/Src/stm32h7xx_hal_uart.c:2922:3
	strb.w	r0, [sp, #1533]
	b	.LBB2_29
.LBB2_25:
	.loc	7 0 3                           @ libraries/STM32H7xx_HAL/STM32H7xx_HAL_Driver/Src/stm32h7xx_hal_uart.c:0:3
	movs	r0, #16
	.loc	7 2922 3                        @ libraries/STM32H7xx_HAL/STM32H7xx_HAL_Driver/Src/stm32h7xx_hal_uart.c:2922:3
	strb.w	r0, [sp, #1533]
	b	.LBB2_29
.LBB2_26:
	.loc	7 0 3                           @ libraries/STM32H7xx_HAL/STM32H7xx_HAL_Driver/Src/stm32h7xx_hal_uart.c:0:3
	movs	r0, #32
	.loc	7 2922 3                        @ libraries/STM32H7xx_HAL/STM32H7xx_HAL_Driver/Src/stm32h7xx_hal_uart.c:2922:3
	strb.w	r0, [sp, #1533]
	b	.LBB2_29
.LBB2_27:
	.loc	7 0 3                           @ libraries/STM32H7xx_HAL/STM32H7xx_HAL_Driver/Src/stm32h7xx_hal_uart.c:0:3
	movs	r0, #64
	.loc	7 2922 3                        @ libraries/STM32H7xx_HAL/STM32H7xx_HAL_Driver/Src/stm32h7xx_hal_uart.c:2922:3
	strb.w	r0, [sp, #1533]
	b	.LBB2_29
.LBB2_28:
	.loc	7 0 3                           @ libraries/STM32H7xx_HAL/STM32H7xx_HAL_Driver/Src/stm32h7xx_hal_uart.c:0:3
	movs	r0, #128
	.loc	7 2922 3                        @ libraries/STM32H7xx_HAL/STM32H7xx_HAL_Driver/Src/stm32h7xx_hal_uart.c:2922:3
	strb.w	r0, [sp, #1533]
	b	.LBB2_29
.Ltmp39:
.LBB2_29:
	.loc	7 2922 3                        @ libraries/STM32H7xx_HAL/STM32H7xx_HAL_Driver/Src/stm32h7xx_hal_uart.c:2922:3
	b	.LBB2_122
.Ltmp40:
.LBB2_30:
	.loc	7 2922 3                        @ libraries/STM32H7xx_HAL/STM32H7xx_HAL_Driver/Src/stm32h7xx_hal_uart.c:2922:3
	ldr.w	r0, [sp, #1540]
	ldr	r0, [r0]
	movw	r1, #18432
	movt	r1, #16384
.Ltmp41:
	.loc	7 2922 3                        @ libraries/STM32H7xx_HAL/STM32H7xx_HAL_Driver/Src/stm32h7xx_hal_uart.c:2922:3
	cmp	r0, r1
	bne	.LBB2_42
	b	.LBB2_31
.LBB2_31:
	.loc	7 0 3                           @ libraries/STM32H7xx_HAL/STM32H7xx_HAL_Driver/Src/stm32h7xx_hal_uart.c:0:3
	movw	r0, #17492
	movt	r0, #22530
.Ltmp42:
	.loc	7 2922 3                        @ libraries/STM32H7xx_HAL/STM32H7xx_HAL_Driver/Src/stm32h7xx_hal_uart.c:2922:3
	ldr	r0, [r0]
	and	r0, r0, #7
	mov	r1, r0
	str.w	r1, [sp, #1480]                 @ 4-byte Spill
	cmp	r0, #5
	bhi	.LBB2_40
@ %bb.32:
	.loc	7 0 3                           @ libraries/STM32H7xx_HAL/STM32H7xx_HAL_Driver/Src/stm32h7xx_hal_uart.c:0:3
	ldr.w	r1, [sp, #1480]                 @ 4-byte Reload
.LCPI2_2:
	tbb	[pc, r1]
@ %bb.33:
.LJTI2_6:
	.byte	(.LBB2_34-(.LCPI2_2+4))/2
	.byte	(.LBB2_35-(.LCPI2_2+4))/2
	.byte	(.LBB2_36-(.LCPI2_2+4))/2
	.byte	(.LBB2_37-(.LCPI2_2+4))/2
	.byte	(.LBB2_38-(.LCPI2_2+4))/2
	.byte	(.LBB2_39-(.LCPI2_2+4))/2
	.p2align	1
.LBB2_34:
	movs	r0, #0
.Ltmp43:
	.loc	7 2922 3                        @ libraries/STM32H7xx_HAL/STM32H7xx_HAL_Driver/Src/stm32h7xx_hal_uart.c:2922:3
	strb.w	r0, [sp, #1533]
	b	.LBB2_41
.LBB2_35:
	.loc	7 0 3                           @ libraries/STM32H7xx_HAL/STM32H7xx_HAL_Driver/Src/stm32h7xx_hal_uart.c:0:3
	movs	r0, #4
	.loc	7 2922 3                        @ libraries/STM32H7xx_HAL/STM32H7xx_HAL_Driver/Src/stm32h7xx_hal_uart.c:2922:3
	strb.w	r0, [sp, #1533]
	b	.LBB2_41
.LBB2_36:
	.loc	7 0 3                           @ libraries/STM32H7xx_HAL/STM32H7xx_HAL_Driver/Src/stm32h7xx_hal_uart.c:0:3
	movs	r0, #8
	.loc	7 2922 3                        @ libraries/STM32H7xx_HAL/STM32H7xx_HAL_Driver/Src/stm32h7xx_hal_uart.c:2922:3
	strb.w	r0, [sp, #1533]
	b	.LBB2_41
.LBB2_37:
	.loc	7 0 3                           @ libraries/STM32H7xx_HAL/STM32H7xx_HAL_Driver/Src/stm32h7xx_hal_uart.c:0:3
	movs	r0, #16
	.loc	7 2922 3                        @ libraries/STM32H7xx_HAL/STM32H7xx_HAL_Driver/Src/stm32h7xx_hal_uart.c:2922:3
	strb.w	r0, [sp, #1533]
	b	.LBB2_41
.LBB2_38:
	.loc	7 0 3                           @ libraries/STM32H7xx_HAL/STM32H7xx_HAL_Driver/Src/stm32h7xx_hal_uart.c:0:3
	movs	r0, #32
	.loc	7 2922 3                        @ libraries/STM32H7xx_HAL/STM32H7xx_HAL_Driver/Src/stm32h7xx_hal_uart.c:2922:3
	strb.w	r0, [sp, #1533]
	b	.LBB2_41
.LBB2_39:
	.loc	7 0 3                           @ libraries/STM32H7xx_HAL/STM32H7xx_HAL_Driver/Src/stm32h7xx_hal_uart.c:0:3
	movs	r0, #64
	.loc	7 2922 3                        @ libraries/STM32H7xx_HAL/STM32H7xx_HAL_Driver/Src/stm32h7xx_hal_uart.c:2922:3
	strb.w	r0, [sp, #1533]
	b	.LBB2_41
.LBB2_40:
	.loc	7 0 3                           @ libraries/STM32H7xx_HAL/STM32H7xx_HAL_Driver/Src/stm32h7xx_hal_uart.c:0:3
	movs	r0, #128
	.loc	7 2922 3                        @ libraries/STM32H7xx_HAL/STM32H7xx_HAL_Driver/Src/stm32h7xx_hal_uart.c:2922:3
	strb.w	r0, [sp, #1533]
	b	.LBB2_41
.Ltmp44:
.LBB2_41:
	.loc	7 2922 3                        @ libraries/STM32H7xx_HAL/STM32H7xx_HAL_Driver/Src/stm32h7xx_hal_uart.c:2922:3
	b	.LBB2_121
.Ltmp45:
.LBB2_42:
	.loc	7 2922 3                        @ libraries/STM32H7xx_HAL/STM32H7xx_HAL_Driver/Src/stm32h7xx_hal_uart.c:2922:3
	ldr.w	r0, [sp, #1540]
	ldr	r0, [r0]
	movw	r1, #19456
	movt	r1, #16384
.Ltmp46:
	.loc	7 2922 3                        @ libraries/STM32H7xx_HAL/STM32H7xx_HAL_Driver/Src/stm32h7xx_hal_uart.c:2922:3
	cmp	r0, r1
	bne	.LBB2_54
	b	.LBB2_43
.LBB2_43:
	.loc	7 0 3                           @ libraries/STM32H7xx_HAL/STM32H7xx_HAL_Driver/Src/stm32h7xx_hal_uart.c:0:3
	movw	r0, #17492
	movt	r0, #22530
.Ltmp47:
	.loc	7 2922 3                        @ libraries/STM32H7xx_HAL/STM32H7xx_HAL_Driver/Src/stm32h7xx_hal_uart.c:2922:3
	ldr	r0, [r0]
	and	r0, r0, #7
	mov	r1, r0
	str.w	r1, [sp, #1476]                 @ 4-byte Spill
	cmp	r0, #5
	bhi	.LBB2_52
@ %bb.44:
	.loc	7 0 3                           @ libraries/STM32H7xx_HAL/STM32H7xx_HAL_Driver/Src/stm32h7xx_hal_uart.c:0:3
	ldr.w	r1, [sp, #1476]                 @ 4-byte Reload
.LCPI2_3:
	tbb	[pc, r1]
@ %bb.45:
.LJTI2_5:
	.byte	(.LBB2_46-(.LCPI2_3+4))/2
	.byte	(.LBB2_47-(.LCPI2_3+4))/2
	.byte	(.LBB2_48-(.LCPI2_3+4))/2
	.byte	(.LBB2_49-(.LCPI2_3+4))/2
	.byte	(.LBB2_50-(.LCPI2_3+4))/2
	.byte	(.LBB2_51-(.LCPI2_3+4))/2
	.p2align	1
.LBB2_46:
	movs	r0, #0
.Ltmp48:
	.loc	7 2922 3                        @ libraries/STM32H7xx_HAL/STM32H7xx_HAL_Driver/Src/stm32h7xx_hal_uart.c:2922:3
	strb.w	r0, [sp, #1533]
	b	.LBB2_53
.LBB2_47:
	.loc	7 0 3                           @ libraries/STM32H7xx_HAL/STM32H7xx_HAL_Driver/Src/stm32h7xx_hal_uart.c:0:3
	movs	r0, #4
	.loc	7 2922 3                        @ libraries/STM32H7xx_HAL/STM32H7xx_HAL_Driver/Src/stm32h7xx_hal_uart.c:2922:3
	strb.w	r0, [sp, #1533]
	b	.LBB2_53
.LBB2_48:
	.loc	7 0 3                           @ libraries/STM32H7xx_HAL/STM32H7xx_HAL_Driver/Src/stm32h7xx_hal_uart.c:0:3
	movs	r0, #8
	.loc	7 2922 3                        @ libraries/STM32H7xx_HAL/STM32H7xx_HAL_Driver/Src/stm32h7xx_hal_uart.c:2922:3
	strb.w	r0, [sp, #1533]
	b	.LBB2_53
.LBB2_49:
	.loc	7 0 3                           @ libraries/STM32H7xx_HAL/STM32H7xx_HAL_Driver/Src/stm32h7xx_hal_uart.c:0:3
	movs	r0, #16
	.loc	7 2922 3                        @ libraries/STM32H7xx_HAL/STM32H7xx_HAL_Driver/Src/stm32h7xx_hal_uart.c:2922:3
	strb.w	r0, [sp, #1533]
	b	.LBB2_53
.LBB2_50:
	.loc	7 0 3                           @ libraries/STM32H7xx_HAL/STM32H7xx_HAL_Driver/Src/stm32h7xx_hal_uart.c:0:3
	movs	r0, #32
	.loc	7 2922 3                        @ libraries/STM32H7xx_HAL/STM32H7xx_HAL_Driver/Src/stm32h7xx_hal_uart.c:2922:3
	strb.w	r0, [sp, #1533]
	b	.LBB2_53
.LBB2_51:
	.loc	7 0 3                           @ libraries/STM32H7xx_HAL/STM32H7xx_HAL_Driver/Src/stm32h7xx_hal_uart.c:0:3
	movs	r0, #64
	.loc	7 2922 3                        @ libraries/STM32H7xx_HAL/STM32H7xx_HAL_Driver/Src/stm32h7xx_hal_uart.c:2922:3
	strb.w	r0, [sp, #1533]
	b	.LBB2_53
.LBB2_52:
	.loc	7 0 3                           @ libraries/STM32H7xx_HAL/STM32H7xx_HAL_Driver/Src/stm32h7xx_hal_uart.c:0:3
	movs	r0, #128
	.loc	7 2922 3                        @ libraries/STM32H7xx_HAL/STM32H7xx_HAL_Driver/Src/stm32h7xx_hal_uart.c:2922:3
	strb.w	r0, [sp, #1533]
	b	.LBB2_53
.Ltmp49:
.LBB2_53:
	.loc	7 2922 3                        @ libraries/STM32H7xx_HAL/STM32H7xx_HAL_Driver/Src/stm32h7xx_hal_uart.c:2922:3
	b	.LBB2_120
.Ltmp50:
.LBB2_54:
	.loc	7 2922 3                        @ libraries/STM32H7xx_HAL/STM32H7xx_HAL_Driver/Src/stm32h7xx_hal_uart.c:2922:3
	ldr.w	r0, [sp, #1540]
	ldr	r0, [r0]
	movw	r1, #20480
	movt	r1, #16384
.Ltmp51:
	.loc	7 2922 3                        @ libraries/STM32H7xx_HAL/STM32H7xx_HAL_Driver/Src/stm32h7xx_hal_uart.c:2922:3
	cmp	r0, r1
	bne	.LBB2_66
	b	.LBB2_55
.LBB2_55:
	.loc	7 0 3                           @ libraries/STM32H7xx_HAL/STM32H7xx_HAL_Driver/Src/stm32h7xx_hal_uart.c:0:3
	movw	r0, #17492
	movt	r0, #22530
.Ltmp52:
	.loc	7 2922 3                        @ libraries/STM32H7xx_HAL/STM32H7xx_HAL_Driver/Src/stm32h7xx_hal_uart.c:2922:3
	ldr	r0, [r0]
	and	r0, r0, #7
	mov	r1, r0
	str.w	r1, [sp, #1472]                 @ 4-byte Spill
	cmp	r0, #5
	bhi	.LBB2_64
@ %bb.56:
	.loc	7 0 3                           @ libraries/STM32H7xx_HAL/STM32H7xx_HAL_Driver/Src/stm32h7xx_hal_uart.c:0:3
	ldr.w	r1, [sp, #1472]                 @ 4-byte Reload
.LCPI2_4:
	tbb	[pc, r1]
@ %bb.57:
.LJTI2_4:
	.byte	(.LBB2_58-(.LCPI2_4+4))/2
	.byte	(.LBB2_59-(.LCPI2_4+4))/2
	.byte	(.LBB2_60-(.LCPI2_4+4))/2
	.byte	(.LBB2_61-(.LCPI2_4+4))/2
	.byte	(.LBB2_62-(.LCPI2_4+4))/2
	.byte	(.LBB2_63-(.LCPI2_4+4))/2
	.p2align	1
.LBB2_58:
	movs	r0, #0
.Ltmp53:
	.loc	7 2922 3                        @ libraries/STM32H7xx_HAL/STM32H7xx_HAL_Driver/Src/stm32h7xx_hal_uart.c:2922:3
	strb.w	r0, [sp, #1533]
	b	.LBB2_65
.LBB2_59:
	.loc	7 0 3                           @ libraries/STM32H7xx_HAL/STM32H7xx_HAL_Driver/Src/stm32h7xx_hal_uart.c:0:3
	movs	r0, #4
	.loc	7 2922 3                        @ libraries/STM32H7xx_HAL/STM32H7xx_HAL_Driver/Src/stm32h7xx_hal_uart.c:2922:3
	strb.w	r0, [sp, #1533]
	b	.LBB2_65
.LBB2_60:
	.loc	7 0 3                           @ libraries/STM32H7xx_HAL/STM32H7xx_HAL_Driver/Src/stm32h7xx_hal_uart.c:0:3
	movs	r0, #8
	.loc	7 2922 3                        @ libraries/STM32H7xx_HAL/STM32H7xx_HAL_Driver/Src/stm32h7xx_hal_uart.c:2922:3
	strb.w	r0, [sp, #1533]
	b	.LBB2_65
.LBB2_61:
	.loc	7 0 3                           @ libraries/STM32H7xx_HAL/STM32H7xx_HAL_Driver/Src/stm32h7xx_hal_uart.c:0:3
	movs	r0, #16
	.loc	7 2922 3                        @ libraries/STM32H7xx_HAL/STM32H7xx_HAL_Driver/Src/stm32h7xx_hal_uart.c:2922:3
	strb.w	r0, [sp, #1533]
	b	.LBB2_65
.LBB2_62:
	.loc	7 0 3                           @ libraries/STM32H7xx_HAL/STM32H7xx_HAL_Driver/Src/stm32h7xx_hal_uart.c:0:3
	movs	r0, #32
	.loc	7 2922 3                        @ libraries/STM32H7xx_HAL/STM32H7xx_HAL_Driver/Src/stm32h7xx_hal_uart.c:2922:3
	strb.w	r0, [sp, #1533]
	b	.LBB2_65
.LBB2_63:
	.loc	7 0 3                           @ libraries/STM32H7xx_HAL/STM32H7xx_HAL_Driver/Src/stm32h7xx_hal_uart.c:0:3
	movs	r0, #64
	.loc	7 2922 3                        @ libraries/STM32H7xx_HAL/STM32H7xx_HAL_Driver/Src/stm32h7xx_hal_uart.c:2922:3
	strb.w	r0, [sp, #1533]
	b	.LBB2_65
.LBB2_64:
	.loc	7 0 3                           @ libraries/STM32H7xx_HAL/STM32H7xx_HAL_Driver/Src/stm32h7xx_hal_uart.c:0:3
	movs	r0, #128
	.loc	7 2922 3                        @ libraries/STM32H7xx_HAL/STM32H7xx_HAL_Driver/Src/stm32h7xx_hal_uart.c:2922:3
	strb.w	r0, [sp, #1533]
	b	.LBB2_65
.Ltmp54:
.LBB2_65:
	.loc	7 2922 3                        @ libraries/STM32H7xx_HAL/STM32H7xx_HAL_Driver/Src/stm32h7xx_hal_uart.c:2922:3
	b	.LBB2_119
.Ltmp55:
.LBB2_66:
	.loc	7 2922 3                        @ libraries/STM32H7xx_HAL/STM32H7xx_HAL_Driver/Src/stm32h7xx_hal_uart.c:2922:3
	ldr.w	r0, [sp, #1540]
	ldr	r0, [r0]
	movw	r1, #5120
	movt	r1, #16385
.Ltmp56:
	.loc	7 2922 3                        @ libraries/STM32H7xx_HAL/STM32H7xx_HAL_Driver/Src/stm32h7xx_hal_uart.c:2922:3
	cmp	r0, r1
	bne.w	.LBB2_78
	b	.LBB2_67
.LBB2_67:
	.loc	7 0 3                           @ libraries/STM32H7xx_HAL/STM32H7xx_HAL_Driver/Src/stm32h7xx_hal_uart.c:0:3
	movw	r0, #17492
	movt	r0, #22530
.Ltmp57:
	.loc	7 2922 3                        @ libraries/STM32H7xx_HAL/STM32H7xx_HAL_Driver/Src/stm32h7xx_hal_uart.c:2922:3
	ldr	r0, [r0]
	and	r0, r0, #56
	mov	r1, r0
	str.w	r1, [sp, #1468]                 @ 4-byte Spill
	cmp	r0, #40
	bhi	.LBB2_76
@ %bb.68:
	.loc	7 0 3                           @ libraries/STM32H7xx_HAL/STM32H7xx_HAL_Driver/Src/stm32h7xx_hal_uart.c:0:3
	ldr.w	r1, [sp, #1468]                 @ 4-byte Reload
.LCPI2_5:
	tbb	[pc, r1]
@ %bb.69:
.LJTI2_3:
	.byte	(.LBB2_70-(.LCPI2_5+4))/2
	.byte	(.LBB2_76-(.LCPI2_5+4))/2
	.byte	(.LBB2_76-(.LCPI2_5+4))/2
	.byte	(.LBB2_76-(.LCPI2_5+4))/2
	.byte	(.LBB2_76-(.LCPI2_5+4))/2
	.byte	(.LBB2_76-(.LCPI2_5+4))/2
	.byte	(.LBB2_76-(.LCPI2_5+4))/2
	.byte	(.LBB2_76-(.LCPI2_5+4))/2
	.byte	(.LBB2_71-(.LCPI2_5+4))/2
	.byte	(.LBB2_76-(.LCPI2_5+4))/2
	.byte	(.LBB2_76-(.LCPI2_5+4))/2
	.byte	(.LBB2_76-(.LCPI2_5+4))/2
	.byte	(.LBB2_76-(.LCPI2_5+4))/2
	.byte	(.LBB2_76-(.LCPI2_5+4))/2
	.byte	(.LBB2_76-(.LCPI2_5+4))/2
	.byte	(.LBB2_76-(.LCPI2_5+4))/2
	.byte	(.LBB2_72-(.LCPI2_5+4))/2
	.byte	(.LBB2_76-(.LCPI2_5+4))/2
	.byte	(.LBB2_76-(.LCPI2_5+4))/2
	.byte	(.LBB2_76-(.LCPI2_5+4))/2
	.byte	(.LBB2_76-(.LCPI2_5+4))/2
	.byte	(.LBB2_76-(.LCPI2_5+4))/2
	.byte	(.LBB2_76-(.LCPI2_5+4))/2
	.byte	(.LBB2_76-(.LCPI2_5+4))/2
	.byte	(.LBB2_73-(.LCPI2_5+4))/2
	.byte	(.LBB2_76-(.LCPI2_5+4))/2
	.byte	(.LBB2_76-(.LCPI2_5+4))/2
	.byte	(.LBB2_76-(.LCPI2_5+4))/2
	.byte	(.LBB2_76-(.LCPI2_5+4))/2
	.byte	(.LBB2_76-(.LCPI2_5+4))/2
	.byte	(.LBB2_76-(.LCPI2_5+4))/2
	.byte	(.LBB2_76-(.LCPI2_5+4))/2
	.byte	(.LBB2_74-(.LCPI2_5+4))/2
	.byte	(.LBB2_76-(.LCPI2_5+4))/2
	.byte	(.LBB2_76-(.LCPI2_5+4))/2
	.byte	(.LBB2_76-(.LCPI2_5+4))/2
	.byte	(.LBB2_76-(.LCPI2_5+4))/2
	.byte	(.LBB2_76-(.LCPI2_5+4))/2
	.byte	(.LBB2_76-(.LCPI2_5+4))/2
	.byte	(.LBB2_76-(.LCPI2_5+4))/2
	.byte	(.LBB2_75-(.LCPI2_5+4))/2
	.p2align	1
.LBB2_70:
	movs	r0, #1
.Ltmp58:
	.loc	7 2922 3                        @ libraries/STM32H7xx_HAL/STM32H7xx_HAL_Driver/Src/stm32h7xx_hal_uart.c:2922:3
	strb.w	r0, [sp, #1533]
	b	.LBB2_77
.LBB2_71:
	.loc	7 0 3                           @ libraries/STM32H7xx_HAL/STM32H7xx_HAL_Driver/Src/stm32h7xx_hal_uart.c:0:3
	movs	r0, #4
	.loc	7 2922 3                        @ libraries/STM32H7xx_HAL/STM32H7xx_HAL_Driver/Src/stm32h7xx_hal_uart.c:2922:3
	strb.w	r0, [sp, #1533]
	b	.LBB2_77
.LBB2_72:
	.loc	7 0 3                           @ libraries/STM32H7xx_HAL/STM32H7xx_HAL_Driver/Src/stm32h7xx_hal_uart.c:0:3
	movs	r0, #8
	.loc	7 2922 3                        @ libraries/STM32H7xx_HAL/STM32H7xx_HAL_Driver/Src/stm32h7xx_hal_uart.c:2922:3
	strb.w	r0, [sp, #1533]
	b	.LBB2_77
.LBB2_73:
	.loc	7 0 3                           @ libraries/STM32H7xx_HAL/STM32H7xx_HAL_Driver/Src/stm32h7xx_hal_uart.c:0:3
	movs	r0, #16
	.loc	7 2922 3                        @ libraries/STM32H7xx_HAL/STM32H7xx_HAL_Driver/Src/stm32h7xx_hal_uart.c:2922:3
	strb.w	r0, [sp, #1533]
	b	.LBB2_77
.LBB2_74:
	.loc	7 0 3                           @ libraries/STM32H7xx_HAL/STM32H7xx_HAL_Driver/Src/stm32h7xx_hal_uart.c:0:3
	movs	r0, #32
	.loc	7 2922 3                        @ libraries/STM32H7xx_HAL/STM32H7xx_HAL_Driver/Src/stm32h7xx_hal_uart.c:2922:3
	strb.w	r0, [sp, #1533]
	b	.LBB2_77
.LBB2_75:
	.loc	7 0 3                           @ libraries/STM32H7xx_HAL/STM32H7xx_HAL_Driver/Src/stm32h7xx_hal_uart.c:0:3
	movs	r0, #64
	.loc	7 2922 3                        @ libraries/STM32H7xx_HAL/STM32H7xx_HAL_Driver/Src/stm32h7xx_hal_uart.c:2922:3
	strb.w	r0, [sp, #1533]
	b	.LBB2_77
.LBB2_76:
	.loc	7 0 3                           @ libraries/STM32H7xx_HAL/STM32H7xx_HAL_Driver/Src/stm32h7xx_hal_uart.c:0:3
	movs	r0, #128
	.loc	7 2922 3                        @ libraries/STM32H7xx_HAL/STM32H7xx_HAL_Driver/Src/stm32h7xx_hal_uart.c:2922:3
	strb.w	r0, [sp, #1533]
	b	.LBB2_77
.Ltmp59:
.LBB2_77:
	.loc	7 2922 3                        @ libraries/STM32H7xx_HAL/STM32H7xx_HAL_Driver/Src/stm32h7xx_hal_uart.c:2922:3
	b	.LBB2_118
.Ltmp60:
.LBB2_78:
	.loc	7 2922 3                        @ libraries/STM32H7xx_HAL/STM32H7xx_HAL_Driver/Src/stm32h7xx_hal_uart.c:2922:3
	ldr.w	r0, [sp, #1540]
	ldr	r0, [r0]
	movw	r1, #30720
	movt	r1, #16384
.Ltmp61:
	.loc	7 2922 3                        @ libraries/STM32H7xx_HAL/STM32H7xx_HAL_Driver/Src/stm32h7xx_hal_uart.c:2922:3
	cmp	r0, r1
	bne	.LBB2_90
	b	.LBB2_79
.LBB2_79:
	.loc	7 0 3                           @ libraries/STM32H7xx_HAL/STM32H7xx_HAL_Driver/Src/stm32h7xx_hal_uart.c:0:3
	movw	r0, #17492
	movt	r0, #22530
.Ltmp62:
	.loc	7 2922 3                        @ libraries/STM32H7xx_HAL/STM32H7xx_HAL_Driver/Src/stm32h7xx_hal_uart.c:2922:3
	ldr	r0, [r0]
	and	r0, r0, #7
	mov	r1, r0
	str.w	r1, [sp, #1464]                 @ 4-byte Spill
	cmp	r0, #5
	bhi	.LBB2_88
@ %bb.80:
	.loc	7 0 3                           @ libraries/STM32H7xx_HAL/STM32H7xx_HAL_Driver/Src/stm32h7xx_hal_uart.c:0:3
	ldr.w	r1, [sp, #1464]                 @ 4-byte Reload
.LCPI2_6:
	tbb	[pc, r1]
@ %bb.81:
.LJTI2_2:
	.byte	(.LBB2_82-(.LCPI2_6+4))/2
	.byte	(.LBB2_83-(.LCPI2_6+4))/2
	.byte	(.LBB2_84-(.LCPI2_6+4))/2
	.byte	(.LBB2_85-(.LCPI2_6+4))/2
	.byte	(.LBB2_86-(.LCPI2_6+4))/2
	.byte	(.LBB2_87-(.LCPI2_6+4))/2
	.p2align	1
.LBB2_82:
	movs	r0, #0
.Ltmp63:
	.loc	7 2922 3                        @ libraries/STM32H7xx_HAL/STM32H7xx_HAL_Driver/Src/stm32h7xx_hal_uart.c:2922:3
	strb.w	r0, [sp, #1533]
	b	.LBB2_89
.LBB2_83:
	.loc	7 0 3                           @ libraries/STM32H7xx_HAL/STM32H7xx_HAL_Driver/Src/stm32h7xx_hal_uart.c:0:3
	movs	r0, #4
	.loc	7 2922 3                        @ libraries/STM32H7xx_HAL/STM32H7xx_HAL_Driver/Src/stm32h7xx_hal_uart.c:2922:3
	strb.w	r0, [sp, #1533]
	b	.LBB2_89
.LBB2_84:
	.loc	7 0 3                           @ libraries/STM32H7xx_HAL/STM32H7xx_HAL_Driver/Src/stm32h7xx_hal_uart.c:0:3
	movs	r0, #8
	.loc	7 2922 3                        @ libraries/STM32H7xx_HAL/STM32H7xx_HAL_Driver/Src/stm32h7xx_hal_uart.c:2922:3
	strb.w	r0, [sp, #1533]
	b	.LBB2_89
.LBB2_85:
	.loc	7 0 3                           @ libraries/STM32H7xx_HAL/STM32H7xx_HAL_Driver/Src/stm32h7xx_hal_uart.c:0:3
	movs	r0, #16
	.loc	7 2922 3                        @ libraries/STM32H7xx_HAL/STM32H7xx_HAL_Driver/Src/stm32h7xx_hal_uart.c:2922:3
	strb.w	r0, [sp, #1533]
	b	.LBB2_89
.LBB2_86:
	.loc	7 0 3                           @ libraries/STM32H7xx_HAL/STM32H7xx_HAL_Driver/Src/stm32h7xx_hal_uart.c:0:3
	movs	r0, #32
	.loc	7 2922 3                        @ libraries/STM32H7xx_HAL/STM32H7xx_HAL_Driver/Src/stm32h7xx_hal_uart.c:2922:3
	strb.w	r0, [sp, #1533]
	b	.LBB2_89
.LBB2_87:
	.loc	7 0 3                           @ libraries/STM32H7xx_HAL/STM32H7xx_HAL_Driver/Src/stm32h7xx_hal_uart.c:0:3
	movs	r0, #64
	.loc	7 2922 3                        @ libraries/STM32H7xx_HAL/STM32H7xx_HAL_Driver/Src/stm32h7xx_hal_uart.c:2922:3
	strb.w	r0, [sp, #1533]
	b	.LBB2_89
.LBB2_88:
	.loc	7 0 3                           @ libraries/STM32H7xx_HAL/STM32H7xx_HAL_Driver/Src/stm32h7xx_hal_uart.c:0:3
	movs	r0, #128
	.loc	7 2922 3                        @ libraries/STM32H7xx_HAL/STM32H7xx_HAL_Driver/Src/stm32h7xx_hal_uart.c:2922:3
	strb.w	r0, [sp, #1533]
	b	.LBB2_89
.Ltmp64:
.LBB2_89:
	.loc	7 2922 3                        @ libraries/STM32H7xx_HAL/STM32H7xx_HAL_Driver/Src/stm32h7xx_hal_uart.c:2922:3
	b	.LBB2_117
.Ltmp65:
.LBB2_90:
	.loc	7 2922 3                        @ libraries/STM32H7xx_HAL/STM32H7xx_HAL_Driver/Src/stm32h7xx_hal_uart.c:2922:3
	ldr.w	r0, [sp, #1540]
	ldr	r0, [r0]
	movw	r1, #31744
	movt	r1, #16384
.Ltmp66:
	.loc	7 2922 3                        @ libraries/STM32H7xx_HAL/STM32H7xx_HAL_Driver/Src/stm32h7xx_hal_uart.c:2922:3
	cmp	r0, r1
	bne	.LBB2_102
	b	.LBB2_91
.LBB2_91:
	.loc	7 0 3                           @ libraries/STM32H7xx_HAL/STM32H7xx_HAL_Driver/Src/stm32h7xx_hal_uart.c:0:3
	movw	r0, #17492
	movt	r0, #22530
.Ltmp67:
	.loc	7 2922 3                        @ libraries/STM32H7xx_HAL/STM32H7xx_HAL_Driver/Src/stm32h7xx_hal_uart.c:2922:3
	ldr	r0, [r0]
	and	r0, r0, #7
	mov	r1, r0
	str.w	r1, [sp, #1460]                 @ 4-byte Spill
	cmp	r0, #5
	bhi	.LBB2_100
@ %bb.92:
	.loc	7 0 3                           @ libraries/STM32H7xx_HAL/STM32H7xx_HAL_Driver/Src/stm32h7xx_hal_uart.c:0:3
	ldr.w	r1, [sp, #1460]                 @ 4-byte Reload
.LCPI2_7:
	tbb	[pc, r1]
@ %bb.93:
.LJTI2_1:
	.byte	(.LBB2_94-(.LCPI2_7+4))/2
	.byte	(.LBB2_95-(.LCPI2_7+4))/2
	.byte	(.LBB2_96-(.LCPI2_7+4))/2
	.byte	(.LBB2_97-(.LCPI2_7+4))/2
	.byte	(.LBB2_98-(.LCPI2_7+4))/2
	.byte	(.LBB2_99-(.LCPI2_7+4))/2
	.p2align	1
.LBB2_94:
	movs	r0, #0
.Ltmp68:
	.loc	7 2922 3                        @ libraries/STM32H7xx_HAL/STM32H7xx_HAL_Driver/Src/stm32h7xx_hal_uart.c:2922:3
	strb.w	r0, [sp, #1533]
	b	.LBB2_101
.LBB2_95:
	.loc	7 0 3                           @ libraries/STM32H7xx_HAL/STM32H7xx_HAL_Driver/Src/stm32h7xx_hal_uart.c:0:3
	movs	r0, #4
	.loc	7 2922 3                        @ libraries/STM32H7xx_HAL/STM32H7xx_HAL_Driver/Src/stm32h7xx_hal_uart.c:2922:3
	strb.w	r0, [sp, #1533]
	b	.LBB2_101
.LBB2_96:
	.loc	7 0 3                           @ libraries/STM32H7xx_HAL/STM32H7xx_HAL_Driver/Src/stm32h7xx_hal_uart.c:0:3
	movs	r0, #8
	.loc	7 2922 3                        @ libraries/STM32H7xx_HAL/STM32H7xx_HAL_Driver/Src/stm32h7xx_hal_uart.c:2922:3
	strb.w	r0, [sp, #1533]
	b	.LBB2_101
.LBB2_97:
	.loc	7 0 3                           @ libraries/STM32H7xx_HAL/STM32H7xx_HAL_Driver/Src/stm32h7xx_hal_uart.c:0:3
	movs	r0, #16
	.loc	7 2922 3                        @ libraries/STM32H7xx_HAL/STM32H7xx_HAL_Driver/Src/stm32h7xx_hal_uart.c:2922:3
	strb.w	r0, [sp, #1533]
	b	.LBB2_101
.LBB2_98:
	.loc	7 0 3                           @ libraries/STM32H7xx_HAL/STM32H7xx_HAL_Driver/Src/stm32h7xx_hal_uart.c:0:3
	movs	r0, #32
	.loc	7 2922 3                        @ libraries/STM32H7xx_HAL/STM32H7xx_HAL_Driver/Src/stm32h7xx_hal_uart.c:2922:3
	strb.w	r0, [sp, #1533]
	b	.LBB2_101
.LBB2_99:
	.loc	7 0 3                           @ libraries/STM32H7xx_HAL/STM32H7xx_HAL_Driver/Src/stm32h7xx_hal_uart.c:0:3
	movs	r0, #64
	.loc	7 2922 3                        @ libraries/STM32H7xx_HAL/STM32H7xx_HAL_Driver/Src/stm32h7xx_hal_uart.c:2922:3
	strb.w	r0, [sp, #1533]
	b	.LBB2_101
.LBB2_100:
	.loc	7 0 3                           @ libraries/STM32H7xx_HAL/STM32H7xx_HAL_Driver/Src/stm32h7xx_hal_uart.c:0:3
	movs	r0, #128
	.loc	7 2922 3                        @ libraries/STM32H7xx_HAL/STM32H7xx_HAL_Driver/Src/stm32h7xx_hal_uart.c:2922:3
	strb.w	r0, [sp, #1533]
	b	.LBB2_101
.Ltmp69:
.LBB2_101:
	.loc	7 2922 3                        @ libraries/STM32H7xx_HAL/STM32H7xx_HAL_Driver/Src/stm32h7xx_hal_uart.c:2922:3
	b	.LBB2_116
.Ltmp70:
.LBB2_102:
	.loc	7 2922 3                        @ libraries/STM32H7xx_HAL/STM32H7xx_HAL_Driver/Src/stm32h7xx_hal_uart.c:2922:3
	ldr.w	r0, [sp, #1540]
	ldr	r0, [r0]
	movw	r1, #3072
	movt	r1, #22528
.Ltmp71:
	.loc	7 2922 3                        @ libraries/STM32H7xx_HAL/STM32H7xx_HAL_Driver/Src/stm32h7xx_hal_uart.c:2922:3
	cmp	r0, r1
	bne	.LBB2_114
	b	.LBB2_103
.LBB2_103:
	.loc	7 0 3                           @ libraries/STM32H7xx_HAL/STM32H7xx_HAL_Driver/Src/stm32h7xx_hal_uart.c:0:3
	movw	r0, #17496
	movt	r0, #22530
.Ltmp72:
	.loc	7 2922 3                        @ libraries/STM32H7xx_HAL/STM32H7xx_HAL_Driver/Src/stm32h7xx_hal_uart.c:2922:3
	ldr	r0, [r0]
	and	r0, r0, #7
	mov	r1, r0
	str.w	r1, [sp, #1456]                 @ 4-byte Spill
	cmp	r0, #5
	bhi	.LBB2_112
@ %bb.104:
	.loc	7 0 3                           @ libraries/STM32H7xx_HAL/STM32H7xx_HAL_Driver/Src/stm32h7xx_hal_uart.c:0:3
	ldr.w	r1, [sp, #1456]                 @ 4-byte Reload
.LCPI2_8:
	tbb	[pc, r1]
@ %bb.105:
.LJTI2_0:
	.byte	(.LBB2_106-(.LCPI2_8+4))/2
	.byte	(.LBB2_107-(.LCPI2_8+4))/2
	.byte	(.LBB2_108-(.LCPI2_8+4))/2
	.byte	(.LBB2_109-(.LCPI2_8+4))/2
	.byte	(.LBB2_110-(.LCPI2_8+4))/2
	.byte	(.LBB2_111-(.LCPI2_8+4))/2
	.p2align	1
.LBB2_106:
	movs	r0, #2
.Ltmp73:
	.loc	7 2922 3                        @ libraries/STM32H7xx_HAL/STM32H7xx_HAL_Driver/Src/stm32h7xx_hal_uart.c:2922:3
	strb.w	r0, [sp, #1533]
	b	.LBB2_113
.LBB2_107:
	.loc	7 0 3                           @ libraries/STM32H7xx_HAL/STM32H7xx_HAL_Driver/Src/stm32h7xx_hal_uart.c:0:3
	movs	r0, #4
	.loc	7 2922 3                        @ libraries/STM32H7xx_HAL/STM32H7xx_HAL_Driver/Src/stm32h7xx_hal_uart.c:2922:3
	strb.w	r0, [sp, #1533]
	b	.LBB2_113
.LBB2_108:
	.loc	7 0 3                           @ libraries/STM32H7xx_HAL/STM32H7xx_HAL_Driver/Src/stm32h7xx_hal_uart.c:0:3
	movs	r0, #8
	.loc	7 2922 3                        @ libraries/STM32H7xx_HAL/STM32H7xx_HAL_Driver/Src/stm32h7xx_hal_uart.c:2922:3
	strb.w	r0, [sp, #1533]
	b	.LBB2_113
.LBB2_109:
	.loc	7 0 3                           @ libraries/STM32H7xx_HAL/STM32H7xx_HAL_Driver/Src/stm32h7xx_hal_uart.c:0:3
	movs	r0, #16
	.loc	7 2922 3                        @ libraries/STM32H7xx_HAL/STM32H7xx_HAL_Driver/Src/stm32h7xx_hal_uart.c:2922:3
	strb.w	r0, [sp, #1533]
	b	.LBB2_113
.LBB2_110:
	.loc	7 0 3                           @ libraries/STM32H7xx_HAL/STM32H7xx_HAL_Driver/Src/stm32h7xx_hal_uart.c:0:3
	movs	r0, #32
	.loc	7 2922 3                        @ libraries/STM32H7xx_HAL/STM32H7xx_HAL_Driver/Src/stm32h7xx_hal_uart.c:2922:3
	strb.w	r0, [sp, #1533]
	b	.LBB2_113
.LBB2_111:
	.loc	7 0 3                           @ libraries/STM32H7xx_HAL/STM32H7xx_HAL_Driver/Src/stm32h7xx_hal_uart.c:0:3
	movs	r0, #64
	.loc	7 2922 3                        @ libraries/STM32H7xx_HAL/STM32H7xx_HAL_Driver/Src/stm32h7xx_hal_uart.c:2922:3
	strb.w	r0, [sp, #1533]
	b	.LBB2_113
.LBB2_112:
	.loc	7 0 3                           @ libraries/STM32H7xx_HAL/STM32H7xx_HAL_Driver/Src/stm32h7xx_hal_uart.c:0:3
	movs	r0, #128
	.loc	7 2922 3                        @ libraries/STM32H7xx_HAL/STM32H7xx_HAL_Driver/Src/stm32h7xx_hal_uart.c:2922:3
	strb.w	r0, [sp, #1533]
	b	.LBB2_113
.Ltmp74:
.LBB2_113:
	.loc	7 2922 3                        @ libraries/STM32H7xx_HAL/STM32H7xx_HAL_Driver/Src/stm32h7xx_hal_uart.c:2922:3
	b	.LBB2_115
.Ltmp75:
.LBB2_114:
	.loc	7 0 3                           @ libraries/STM32H7xx_HAL/STM32H7xx_HAL_Driver/Src/stm32h7xx_hal_uart.c:0:3
	movs	r0, #128
.Ltmp76:
	.loc	7 2922 3                        @ libraries/STM32H7xx_HAL/STM32H7xx_HAL_Driver/Src/stm32h7xx_hal_uart.c:2922:3
	strb.w	r0, [sp, #1533]
	b	.LBB2_115
.Ltmp77:
.LBB2_115:
	.loc	7 0 3                           @ libraries/STM32H7xx_HAL/STM32H7xx_HAL_Driver/Src/stm32h7xx_hal_uart.c:0:3
	b	.LBB2_116
.LBB2_116:
	b	.LBB2_117
.LBB2_117:
	b	.LBB2_118
.LBB2_118:
	b	.LBB2_119
.LBB2_119:
	b	.LBB2_120
.LBB2_120:
	b	.LBB2_121
.LBB2_121:
	b	.LBB2_122
.LBB2_122:
	b	.LBB2_123
.LBB2_123:
	.loc	7 2922 3                        @ libraries/STM32H7xx_HAL/STM32H7xx_HAL_Driver/Src/stm32h7xx_hal_uart.c:2922:3
	b	.LBB2_124
.Ltmp78:
.LBB2_124:
	.loc	7 2925 7 is_stmt 1              @ libraries/STM32H7xx_HAL/STM32H7xx_HAL_Driver/Src/stm32h7xx_hal_uart.c:2925:7
	ldr.w	r0, [sp, #1540]
	ldr	r0, [r0]
	movw	r1, #3072
	movt	r1, #22528
.Ltmp79:
	.loc	7 2925 7 is_stmt 0              @ libraries/STM32H7xx_HAL/STM32H7xx_HAL_Driver/Src/stm32h7xx_hal_uart.c:2925:7
	cmp	r0, r1
	bne.w	.LBB2_630
	b	.LBB2_125
.LBB2_125:
.Ltmp80:
	.loc	7 2928 13 is_stmt 1             @ libraries/STM32H7xx_HAL/STM32H7xx_HAL_Driver/Src/stm32h7xx_hal_uart.c:2928:13
	ldrb.w	r0, [sp, #1533]
	.loc	7 2928 5 is_stmt 0              @ libraries/STM32H7xx_HAL/STM32H7xx_HAL_Driver/Src/stm32h7xx_hal_uart.c:2928:5
	mov	r1, r0
	str.w	r1, [sp, #1452]                 @ 4-byte Spill
	cmp	r0, #2
	beq	.LBB2_131
	b	.LBB2_126
.LBB2_126:
	ldr.w	r0, [sp, #1452]                 @ 4-byte Reload
	cmp	r0, #4
	beq.w	.LBB2_165
	b	.LBB2_127
.LBB2_127:
	ldr.w	r0, [sp, #1452]                 @ 4-byte Reload
	cmp	r0, #8
	beq.w	.LBB2_199
	b	.LBB2_128
.LBB2_128:
	ldr.w	r0, [sp, #1452]                 @ 4-byte Reload
	cmp	r0, #16
	beq.w	.LBB2_233
	b	.LBB2_129
.LBB2_129:
	ldr.w	r0, [sp, #1452]                 @ 4-byte Reload
	cmp	r0, #32
	beq.w	.LBB2_303
	b	.LBB2_130
.LBB2_130:
	ldr.w	r0, [sp, #1452]                 @ 4-byte Reload
	cmp	r0, #64
	beq.w	.LBB2_337
	b.w	.LBB2_371
.LBB2_131:
.Ltmp81:
	.loc	7 2931 31 is_stmt 1             @ libraries/STM32H7xx_HAL/STM32H7xx_HAL_Driver/Src/stm32h7xx_hal_uart.c:2931:31
	bl	HAL_RCCEx_GetD3PCLK1Freq
	.loc	7 2931 60 is_stmt 0             @ libraries/STM32H7xx_HAL/STM32H7xx_HAL_Driver/Src/stm32h7xx_hal_uart.c:2931:60
	str.w	r0, [sp, #1448]                 @ 4-byte Spill
	ldr.w	r0, [sp, #1540]
	ldr	r0, [r0, #36]
	cbnz	r0, .LBB2_133
	b	.LBB2_132
.LBB2_132:
	.loc	7 0 60                          @ libraries/STM32H7xx_HAL/STM32H7xx_HAL_Driver/Src/stm32h7xx_hal_uart.c:0:60
	movs	r0, #1
	.loc	7 2931 60                       @ libraries/STM32H7xx_HAL/STM32H7xx_HAL_Driver/Src/stm32h7xx_hal_uart.c:2931:60
	str.w	r0, [sp, #1444]                 @ 4-byte Spill
	b	.LBB2_164
.LBB2_133:
	ldr.w	r0, [sp, #1540]
	ldr	r0, [r0, #36]
	cmp	r0, #1
	bne	.LBB2_135
	b	.LBB2_134
.LBB2_134:
	.loc	7 0 60                          @ libraries/STM32H7xx_HAL/STM32H7xx_HAL_Driver/Src/stm32h7xx_hal_uart.c:0:60
	movs	r0, #2
	.loc	7 2931 60                       @ libraries/STM32H7xx_HAL/STM32H7xx_HAL_Driver/Src/stm32h7xx_hal_uart.c:2931:60
	str.w	r0, [sp, #1440]                 @ 4-byte Spill
	b	.LBB2_163
.LBB2_135:
	ldr.w	r0, [sp, #1540]
	ldr	r0, [r0, #36]
	cmp	r0, #2
	bne	.LBB2_137
	b	.LBB2_136
.LBB2_136:
	.loc	7 0 60                          @ libraries/STM32H7xx_HAL/STM32H7xx_HAL_Driver/Src/stm32h7xx_hal_uart.c:0:60
	movs	r0, #4
	.loc	7 2931 60                       @ libraries/STM32H7xx_HAL/STM32H7xx_HAL_Driver/Src/stm32h7xx_hal_uart.c:2931:60
	str.w	r0, [sp, #1436]                 @ 4-byte Spill
	b	.LBB2_162
.LBB2_137:
	ldr.w	r0, [sp, #1540]
	ldr	r0, [r0, #36]
	cmp	r0, #3
	bne	.LBB2_139
	b	.LBB2_138
.LBB2_138:
	.loc	7 0 60                          @ libraries/STM32H7xx_HAL/STM32H7xx_HAL_Driver/Src/stm32h7xx_hal_uart.c:0:60
	movs	r0, #6
	.loc	7 2931 60                       @ libraries/STM32H7xx_HAL/STM32H7xx_HAL_Driver/Src/stm32h7xx_hal_uart.c:2931:60
	str.w	r0, [sp, #1432]                 @ 4-byte Spill
	b	.LBB2_161
.LBB2_139:
	ldr.w	r0, [sp, #1540]
	ldr	r0, [r0, #36]
	cmp	r0, #4
	bne	.LBB2_141
	b	.LBB2_140
.LBB2_140:
	.loc	7 0 60                          @ libraries/STM32H7xx_HAL/STM32H7xx_HAL_Driver/Src/stm32h7xx_hal_uart.c:0:60
	movs	r0, #8
	.loc	7 2931 60                       @ libraries/STM32H7xx_HAL/STM32H7xx_HAL_Driver/Src/stm32h7xx_hal_uart.c:2931:60
	str.w	r0, [sp, #1428]                 @ 4-byte Spill
	b	.LBB2_160
.LBB2_141:
	ldr.w	r0, [sp, #1540]
	ldr	r0, [r0, #36]
	cmp	r0, #5
	bne	.LBB2_143
	b	.LBB2_142
.LBB2_142:
	.loc	7 0 60                          @ libraries/STM32H7xx_HAL/STM32H7xx_HAL_Driver/Src/stm32h7xx_hal_uart.c:0:60
	movs	r0, #10
	.loc	7 2931 60                       @ libraries/STM32H7xx_HAL/STM32H7xx_HAL_Driver/Src/stm32h7xx_hal_uart.c:2931:60
	str.w	r0, [sp, #1424]                 @ 4-byte Spill
	b	.LBB2_159
.LBB2_143:
	ldr.w	r0, [sp, #1540]
	ldr	r0, [r0, #36]
	cmp	r0, #6
	bne	.LBB2_145
	b	.LBB2_144
.LBB2_144:
	.loc	7 0 60                          @ libraries/STM32H7xx_HAL/STM32H7xx_HAL_Driver/Src/stm32h7xx_hal_uart.c:0:60
	movs	r0, #12
	.loc	7 2931 60                       @ libraries/STM32H7xx_HAL/STM32H7xx_HAL_Driver/Src/stm32h7xx_hal_uart.c:2931:60
	str.w	r0, [sp, #1420]                 @ 4-byte Spill
	b	.LBB2_158
.LBB2_145:
	ldr.w	r0, [sp, #1540]
	ldr	r0, [r0, #36]
	cmp	r0, #7
	bne	.LBB2_147
	b	.LBB2_146
.LBB2_146:
	.loc	7 0 60                          @ libraries/STM32H7xx_HAL/STM32H7xx_HAL_Driver/Src/stm32h7xx_hal_uart.c:0:60
	movs	r0, #16
	.loc	7 2931 60                       @ libraries/STM32H7xx_HAL/STM32H7xx_HAL_Driver/Src/stm32h7xx_hal_uart.c:2931:60
	str.w	r0, [sp, #1416]                 @ 4-byte Spill
	b	.LBB2_157
.LBB2_147:
	ldr.w	r0, [sp, #1540]
	ldr	r0, [r0, #36]
	cmp	r0, #8
	bne	.LBB2_149
	b	.LBB2_148
.LBB2_148:
	.loc	7 0 60                          @ libraries/STM32H7xx_HAL/STM32H7xx_HAL_Driver/Src/stm32h7xx_hal_uart.c:0:60
	movs	r0, #32
	.loc	7 2931 60                       @ libraries/STM32H7xx_HAL/STM32H7xx_HAL_Driver/Src/stm32h7xx_hal_uart.c:2931:60
	str.w	r0, [sp, #1412]                 @ 4-byte Spill
	b	.LBB2_156
.LBB2_149:
	ldr.w	r0, [sp, #1540]
	ldr	r0, [r0, #36]
	cmp	r0, #9
	bne	.LBB2_151
	b	.LBB2_150
.LBB2_150:
	.loc	7 0 60                          @ libraries/STM32H7xx_HAL/STM32H7xx_HAL_Driver/Src/stm32h7xx_hal_uart.c:0:60
	movs	r0, #64
	.loc	7 2931 60                       @ libraries/STM32H7xx_HAL/STM32H7xx_HAL_Driver/Src/stm32h7xx_hal_uart.c:2931:60
	str.w	r0, [sp, #1408]                 @ 4-byte Spill
	b	.LBB2_155
.LBB2_151:
	ldr.w	r0, [sp, #1540]
	ldr	r0, [r0, #36]
	cmp	r0, #10
	bne	.LBB2_153
	b	.LBB2_152
.LBB2_152:
	.loc	7 0 60                          @ libraries/STM32H7xx_HAL/STM32H7xx_HAL_Driver/Src/stm32h7xx_hal_uart.c:0:60
	movs	r0, #128
	.loc	7 2931 60                       @ libraries/STM32H7xx_HAL/STM32H7xx_HAL_Driver/Src/stm32h7xx_hal_uart.c:2931:60
	str.w	r0, [sp, #1404]                 @ 4-byte Spill
	b	.LBB2_154
.LBB2_153:
	ldr.w	r0, [sp, #1540]
	ldr	r1, [r0, #36]
	movs	r0, #1
	cmp	r1, #11
	it	eq
	moveq.w	r0, #256
	str.w	r0, [sp, #1404]                 @ 4-byte Spill
	b	.LBB2_154
.LBB2_154:
	ldr.w	r0, [sp, #1404]                 @ 4-byte Reload
	str.w	r0, [sp, #1408]                 @ 4-byte Spill
	b	.LBB2_155
.LBB2_155:
	ldr.w	r0, [sp, #1408]                 @ 4-byte Reload
	str.w	r0, [sp, #1412]                 @ 4-byte Spill
	b	.LBB2_156
.LBB2_156:
	ldr.w	r0, [sp, #1412]                 @ 4-byte Reload
	str.w	r0, [sp, #1416]                 @ 4-byte Spill
	b	.LBB2_157
.LBB2_157:
	ldr.w	r0, [sp, #1416]                 @ 4-byte Reload
	str.w	r0, [sp, #1420]                 @ 4-byte Spill
	b	.LBB2_158
.LBB2_158:
	ldr.w	r0, [sp, #1420]                 @ 4-byte Reload
	str.w	r0, [sp, #1424]                 @ 4-byte Spill
	b	.LBB2_159
.LBB2_159:
	ldr.w	r0, [sp, #1424]                 @ 4-byte Reload
	str.w	r0, [sp, #1428]                 @ 4-byte Spill
	b	.LBB2_160
.LBB2_160:
	ldr.w	r0, [sp, #1428]                 @ 4-byte Reload
	str.w	r0, [sp, #1432]                 @ 4-byte Spill
	b	.LBB2_161
.LBB2_161:
	ldr.w	r0, [sp, #1432]                 @ 4-byte Reload
	str.w	r0, [sp, #1436]                 @ 4-byte Spill
	b	.LBB2_162
.LBB2_162:
	ldr.w	r0, [sp, #1436]                 @ 4-byte Reload
	str.w	r0, [sp, #1440]                 @ 4-byte Spill
	b	.LBB2_163
.LBB2_163:
	ldr.w	r0, [sp, #1440]                 @ 4-byte Reload
	str.w	r0, [sp, #1444]                 @ 4-byte Spill
	b	.LBB2_164
.LBB2_164:
	ldr.w	r0, [sp, #1448]                 @ 4-byte Reload
	ldr.w	r1, [sp, #1444]                 @ 4-byte Reload
	.loc	7 2931 58                       @ libraries/STM32H7xx_HAL/STM32H7xx_HAL_Driver/Src/stm32h7xx_hal_uart.c:2931:58
	udiv	r0, r0, r1
	.loc	7 2931 28                       @ libraries/STM32H7xx_HAL/STM32H7xx_HAL_Driver/Src/stm32h7xx_hal_uart.c:2931:28
	str.w	r0, [sp, #1520]
	.loc	7 2932 9 is_stmt 1              @ libraries/STM32H7xx_HAL/STM32H7xx_HAL_Driver/Src/stm32h7xx_hal_uart.c:2932:9
	b.w	.LBB2_372
.LBB2_165:
	.loc	7 0 9 is_stmt 0                 @ libraries/STM32H7xx_HAL/STM32H7xx_HAL_Driver/Src/stm32h7xx_hal_uart.c:0:9
	addw	r0, sp, #1508
	.loc	7 2934 9 is_stmt 1              @ libraries/STM32H7xx_HAL/STM32H7xx_HAL_Driver/Src/stm32h7xx_hal_uart.c:2934:9
	bl	HAL_RCCEx_GetPLL2ClockFreq
	.loc	7 2935 43                       @ libraries/STM32H7xx_HAL/STM32H7xx_HAL_Driver/Src/stm32h7xx_hal_uart.c:2935:43
	ldr.w	r0, [sp, #1512]
	.loc	7 2935 62 is_stmt 0             @ libraries/STM32H7xx_HAL/STM32H7xx_HAL_Driver/Src/stm32h7xx_hal_uart.c:2935:62
	str.w	r0, [sp, #1400]                 @ 4-byte Spill
	ldr.w	r0, [sp, #1540]
	ldr	r0, [r0, #36]
	cbnz	r0, .LBB2_167
	b	.LBB2_166
.LBB2_166:
	.loc	7 0 62                          @ libraries/STM32H7xx_HAL/STM32H7xx_HAL_Driver/Src/stm32h7xx_hal_uart.c:0:62
	movs	r0, #1
	.loc	7 2935 62                       @ libraries/STM32H7xx_HAL/STM32H7xx_HAL_Driver/Src/stm32h7xx_hal_uart.c:2935:62
	str.w	r0, [sp, #1396]                 @ 4-byte Spill
	b	.LBB2_198
.LBB2_167:
	ldr.w	r0, [sp, #1540]
	ldr	r0, [r0, #36]
	cmp	r0, #1
	bne	.LBB2_169
	b	.LBB2_168
.LBB2_168:
	.loc	7 0 62                          @ libraries/STM32H7xx_HAL/STM32H7xx_HAL_Driver/Src/stm32h7xx_hal_uart.c:0:62
	movs	r0, #2
	.loc	7 2935 62                       @ libraries/STM32H7xx_HAL/STM32H7xx_HAL_Driver/Src/stm32h7xx_hal_uart.c:2935:62
	str.w	r0, [sp, #1392]                 @ 4-byte Spill
	b	.LBB2_197
.LBB2_169:
	ldr.w	r0, [sp, #1540]
	ldr	r0, [r0, #36]
	cmp	r0, #2
	bne	.LBB2_171
	b	.LBB2_170
.LBB2_170:
	.loc	7 0 62                          @ libraries/STM32H7xx_HAL/STM32H7xx_HAL_Driver/Src/stm32h7xx_hal_uart.c:0:62
	movs	r0, #4
	.loc	7 2935 62                       @ libraries/STM32H7xx_HAL/STM32H7xx_HAL_Driver/Src/stm32h7xx_hal_uart.c:2935:62
	str.w	r0, [sp, #1388]                 @ 4-byte Spill
	b	.LBB2_196
.LBB2_171:
	ldr.w	r0, [sp, #1540]
	ldr	r0, [r0, #36]
	cmp	r0, #3
	bne	.LBB2_173
	b	.LBB2_172
.LBB2_172:
	.loc	7 0 62                          @ libraries/STM32H7xx_HAL/STM32H7xx_HAL_Driver/Src/stm32h7xx_hal_uart.c:0:62
	movs	r0, #6
	.loc	7 2935 62                       @ libraries/STM32H7xx_HAL/STM32H7xx_HAL_Driver/Src/stm32h7xx_hal_uart.c:2935:62
	str.w	r0, [sp, #1384]                 @ 4-byte Spill
	b	.LBB2_195
.LBB2_173:
	ldr.w	r0, [sp, #1540]
	ldr	r0, [r0, #36]
	cmp	r0, #4
	bne	.LBB2_175
	b	.LBB2_174
.LBB2_174:
	.loc	7 0 62                          @ libraries/STM32H7xx_HAL/STM32H7xx_HAL_Driver/Src/stm32h7xx_hal_uart.c:0:62
	movs	r0, #8
	.loc	7 2935 62                       @ libraries/STM32H7xx_HAL/STM32H7xx_HAL_Driver/Src/stm32h7xx_hal_uart.c:2935:62
	str.w	r0, [sp, #1380]                 @ 4-byte Spill
	b	.LBB2_194
.LBB2_175:
	ldr.w	r0, [sp, #1540]
	ldr	r0, [r0, #36]
	cmp	r0, #5
	bne	.LBB2_177
	b	.LBB2_176
.LBB2_176:
	.loc	7 0 62                          @ libraries/STM32H7xx_HAL/STM32H7xx_HAL_Driver/Src/stm32h7xx_hal_uart.c:0:62
	movs	r0, #10
	.loc	7 2935 62                       @ libraries/STM32H7xx_HAL/STM32H7xx_HAL_Driver/Src/stm32h7xx_hal_uart.c:2935:62
	str.w	r0, [sp, #1376]                 @ 4-byte Spill
	b	.LBB2_193
.LBB2_177:
	ldr.w	r0, [sp, #1540]
	ldr	r0, [r0, #36]
	cmp	r0, #6
	bne	.LBB2_179
	b	.LBB2_178
.LBB2_178:
	.loc	7 0 62                          @ libraries/STM32H7xx_HAL/STM32H7xx_HAL_Driver/Src/stm32h7xx_hal_uart.c:0:62
	movs	r0, #12
	.loc	7 2935 62                       @ libraries/STM32H7xx_HAL/STM32H7xx_HAL_Driver/Src/stm32h7xx_hal_uart.c:2935:62
	str.w	r0, [sp, #1372]                 @ 4-byte Spill
	b	.LBB2_192
.LBB2_179:
	ldr.w	r0, [sp, #1540]
	ldr	r0, [r0, #36]
	cmp	r0, #7
	bne	.LBB2_181
	b	.LBB2_180
.LBB2_180:
	.loc	7 0 62                          @ libraries/STM32H7xx_HAL/STM32H7xx_HAL_Driver/Src/stm32h7xx_hal_uart.c:0:62
	movs	r0, #16
	.loc	7 2935 62                       @ libraries/STM32H7xx_HAL/STM32H7xx_HAL_Driver/Src/stm32h7xx_hal_uart.c:2935:62
	str.w	r0, [sp, #1368]                 @ 4-byte Spill
	b	.LBB2_191
.LBB2_181:
	ldr.w	r0, [sp, #1540]
	ldr	r0, [r0, #36]
	cmp	r0, #8
	bne	.LBB2_183
	b	.LBB2_182
.LBB2_182:
	.loc	7 0 62                          @ libraries/STM32H7xx_HAL/STM32H7xx_HAL_Driver/Src/stm32h7xx_hal_uart.c:0:62
	movs	r0, #32
	.loc	7 2935 62                       @ libraries/STM32H7xx_HAL/STM32H7xx_HAL_Driver/Src/stm32h7xx_hal_uart.c:2935:62
	str.w	r0, [sp, #1364]                 @ 4-byte Spill
	b	.LBB2_190
.LBB2_183:
	ldr.w	r0, [sp, #1540]
	ldr	r0, [r0, #36]
	cmp	r0, #9
	bne	.LBB2_185
	b	.LBB2_184
.LBB2_184:
	.loc	7 0 62                          @ libraries/STM32H7xx_HAL/STM32H7xx_HAL_Driver/Src/stm32h7xx_hal_uart.c:0:62
	movs	r0, #64
	.loc	7 2935 62                       @ libraries/STM32H7xx_HAL/STM32H7xx_HAL_Driver/Src/stm32h7xx_hal_uart.c:2935:62
	str.w	r0, [sp, #1360]                 @ 4-byte Spill
	b	.LBB2_189
.LBB2_185:
	ldr.w	r0, [sp, #1540]
	ldr	r0, [r0, #36]
	cmp	r0, #10
	bne	.LBB2_187
	b	.LBB2_186
.LBB2_186:
	.loc	7 0 62                          @ libraries/STM32H7xx_HAL/STM32H7xx_HAL_Driver/Src/stm32h7xx_hal_uart.c:0:62
	movs	r0, #128
	.loc	7 2935 62                       @ libraries/STM32H7xx_HAL/STM32H7xx_HAL_Driver/Src/stm32h7xx_hal_uart.c:2935:62
	str.w	r0, [sp, #1356]                 @ 4-byte Spill
	b	.LBB2_188
.LBB2_187:
	ldr.w	r0, [sp, #1540]
	ldr	r1, [r0, #36]
	movs	r0, #1
	cmp	r1, #11
	it	eq
	moveq.w	r0, #256
	str.w	r0, [sp, #1356]                 @ 4-byte Spill
	b	.LBB2_188
.LBB2_188:
	ldr.w	r0, [sp, #1356]                 @ 4-byte Reload
	str.w	r0, [sp, #1360]                 @ 4-byte Spill
	b	.LBB2_189
.LBB2_189:
	ldr.w	r0, [sp, #1360]                 @ 4-byte Reload
	str.w	r0, [sp, #1364]                 @ 4-byte Spill
	b	.LBB2_190
.LBB2_190:
	ldr.w	r0, [sp, #1364]                 @ 4-byte Reload
	str.w	r0, [sp, #1368]                 @ 4-byte Spill
	b	.LBB2_191
.LBB2_191:
	ldr.w	r0, [sp, #1368]                 @ 4-byte Reload
	str.w	r0, [sp, #1372]                 @ 4-byte Spill
	b	.LBB2_192
.LBB2_192:
	ldr.w	r0, [sp, #1372]                 @ 4-byte Reload
	str.w	r0, [sp, #1376]                 @ 4-byte Spill
	b	.LBB2_193
.LBB2_193:
	ldr.w	r0, [sp, #1376]                 @ 4-byte Reload
	str.w	r0, [sp, #1380]                 @ 4-byte Spill
	b	.LBB2_194
.LBB2_194:
	ldr.w	r0, [sp, #1380]                 @ 4-byte Reload
	str.w	r0, [sp, #1384]                 @ 4-byte Spill
	b	.LBB2_195
.LBB2_195:
	ldr.w	r0, [sp, #1384]                 @ 4-byte Reload
	str.w	r0, [sp, #1388]                 @ 4-byte Spill
	b	.LBB2_196
.LBB2_196:
	ldr.w	r0, [sp, #1388]                 @ 4-byte Reload
	str.w	r0, [sp, #1392]                 @ 4-byte Spill
	b	.LBB2_197
.LBB2_197:
	ldr.w	r0, [sp, #1392]                 @ 4-byte Reload
	str.w	r0, [sp, #1396]                 @ 4-byte Spill
	b	.LBB2_198
.LBB2_198:
	ldr.w	r0, [sp, #1400]                 @ 4-byte Reload
	ldr.w	r1, [sp, #1396]                 @ 4-byte Reload
	.loc	7 2935 60                       @ libraries/STM32H7xx_HAL/STM32H7xx_HAL_Driver/Src/stm32h7xx_hal_uart.c:2935:60
	udiv	r0, r0, r1
	.loc	7 2935 28                       @ libraries/STM32H7xx_HAL/STM32H7xx_HAL_Driver/Src/stm32h7xx_hal_uart.c:2935:28
	str.w	r0, [sp, #1520]
	.loc	7 2936 9 is_stmt 1              @ libraries/STM32H7xx_HAL/STM32H7xx_HAL_Driver/Src/stm32h7xx_hal_uart.c:2936:9
	b	.LBB2_372
.LBB2_199:
	.loc	7 0 9 is_stmt 0                 @ libraries/STM32H7xx_HAL/STM32H7xx_HAL_Driver/Src/stm32h7xx_hal_uart.c:0:9
	add.w	r0, sp, #1496
	.loc	7 2938 9 is_stmt 1              @ libraries/STM32H7xx_HAL/STM32H7xx_HAL_Driver/Src/stm32h7xx_hal_uart.c:2938:9
	bl	HAL_RCCEx_GetPLL3ClockFreq
	.loc	7 2939 43                       @ libraries/STM32H7xx_HAL/STM32H7xx_HAL_Driver/Src/stm32h7xx_hal_uart.c:2939:43
	ldr.w	r0, [sp, #1500]
	.loc	7 2939 62 is_stmt 0             @ libraries/STM32H7xx_HAL/STM32H7xx_HAL_Driver/Src/stm32h7xx_hal_uart.c:2939:62
	str.w	r0, [sp, #1352]                 @ 4-byte Spill
	ldr.w	r0, [sp, #1540]
	ldr	r0, [r0, #36]
	cbnz	r0, .LBB2_201
	b	.LBB2_200
.LBB2_200:
	.loc	7 0 62                          @ libraries/STM32H7xx_HAL/STM32H7xx_HAL_Driver/Src/stm32h7xx_hal_uart.c:0:62
	movs	r0, #1
	.loc	7 2939 62                       @ libraries/STM32H7xx_HAL/STM32H7xx_HAL_Driver/Src/stm32h7xx_hal_uart.c:2939:62
	str.w	r0, [sp, #1348]                 @ 4-byte Spill
	b	.LBB2_232
.LBB2_201:
	ldr.w	r0, [sp, #1540]
	ldr	r0, [r0, #36]
	cmp	r0, #1
	bne	.LBB2_203
	b	.LBB2_202
.LBB2_202:
	.loc	7 0 62                          @ libraries/STM32H7xx_HAL/STM32H7xx_HAL_Driver/Src/stm32h7xx_hal_uart.c:0:62
	movs	r0, #2
	.loc	7 2939 62                       @ libraries/STM32H7xx_HAL/STM32H7xx_HAL_Driver/Src/stm32h7xx_hal_uart.c:2939:62
	str.w	r0, [sp, #1344]                 @ 4-byte Spill
	b	.LBB2_231
.LBB2_203:
	ldr.w	r0, [sp, #1540]
	ldr	r0, [r0, #36]
	cmp	r0, #2
	bne	.LBB2_205
	b	.LBB2_204
.LBB2_204:
	.loc	7 0 62                          @ libraries/STM32H7xx_HAL/STM32H7xx_HAL_Driver/Src/stm32h7xx_hal_uart.c:0:62
	movs	r0, #4
	.loc	7 2939 62                       @ libraries/STM32H7xx_HAL/STM32H7xx_HAL_Driver/Src/stm32h7xx_hal_uart.c:2939:62
	str.w	r0, [sp, #1340]                 @ 4-byte Spill
	b	.LBB2_230
.LBB2_205:
	ldr.w	r0, [sp, #1540]
	ldr	r0, [r0, #36]
	cmp	r0, #3
	bne	.LBB2_207
	b	.LBB2_206
.LBB2_206:
	.loc	7 0 62                          @ libraries/STM32H7xx_HAL/STM32H7xx_HAL_Driver/Src/stm32h7xx_hal_uart.c:0:62
	movs	r0, #6
	.loc	7 2939 62                       @ libraries/STM32H7xx_HAL/STM32H7xx_HAL_Driver/Src/stm32h7xx_hal_uart.c:2939:62
	str.w	r0, [sp, #1336]                 @ 4-byte Spill
	b	.LBB2_229
.LBB2_207:
	ldr.w	r0, [sp, #1540]
	ldr	r0, [r0, #36]
	cmp	r0, #4
	bne	.LBB2_209
	b	.LBB2_208
.LBB2_208:
	.loc	7 0 62                          @ libraries/STM32H7xx_HAL/STM32H7xx_HAL_Driver/Src/stm32h7xx_hal_uart.c:0:62
	movs	r0, #8
	.loc	7 2939 62                       @ libraries/STM32H7xx_HAL/STM32H7xx_HAL_Driver/Src/stm32h7xx_hal_uart.c:2939:62
	str.w	r0, [sp, #1332]                 @ 4-byte Spill
	b	.LBB2_228
.LBB2_209:
	ldr.w	r0, [sp, #1540]
	ldr	r0, [r0, #36]
	cmp	r0, #5
	bne	.LBB2_211
	b	.LBB2_210
.LBB2_210:
	.loc	7 0 62                          @ libraries/STM32H7xx_HAL/STM32H7xx_HAL_Driver/Src/stm32h7xx_hal_uart.c:0:62
	movs	r0, #10
	.loc	7 2939 62                       @ libraries/STM32H7xx_HAL/STM32H7xx_HAL_Driver/Src/stm32h7xx_hal_uart.c:2939:62
	str.w	r0, [sp, #1328]                 @ 4-byte Spill
	b	.LBB2_227
.LBB2_211:
	ldr.w	r0, [sp, #1540]
	ldr	r0, [r0, #36]
	cmp	r0, #6
	bne	.LBB2_213
	b	.LBB2_212
.LBB2_212:
	.loc	7 0 62                          @ libraries/STM32H7xx_HAL/STM32H7xx_HAL_Driver/Src/stm32h7xx_hal_uart.c:0:62
	movs	r0, #12
	.loc	7 2939 62                       @ libraries/STM32H7xx_HAL/STM32H7xx_HAL_Driver/Src/stm32h7xx_hal_uart.c:2939:62
	str.w	r0, [sp, #1324]                 @ 4-byte Spill
	b	.LBB2_226
.LBB2_213:
	ldr.w	r0, [sp, #1540]
	ldr	r0, [r0, #36]
	cmp	r0, #7
	bne	.LBB2_215
	b	.LBB2_214
.LBB2_214:
	.loc	7 0 62                          @ libraries/STM32H7xx_HAL/STM32H7xx_HAL_Driver/Src/stm32h7xx_hal_uart.c:0:62
	movs	r0, #16
	.loc	7 2939 62                       @ libraries/STM32H7xx_HAL/STM32H7xx_HAL_Driver/Src/stm32h7xx_hal_uart.c:2939:62
	str.w	r0, [sp, #1320]                 @ 4-byte Spill
	b	.LBB2_225
.LBB2_215:
	ldr.w	r0, [sp, #1540]
	ldr	r0, [r0, #36]
	cmp	r0, #8
	bne	.LBB2_217
	b	.LBB2_216
.LBB2_216:
	.loc	7 0 62                          @ libraries/STM32H7xx_HAL/STM32H7xx_HAL_Driver/Src/stm32h7xx_hal_uart.c:0:62
	movs	r0, #32
	.loc	7 2939 62                       @ libraries/STM32H7xx_HAL/STM32H7xx_HAL_Driver/Src/stm32h7xx_hal_uart.c:2939:62
	str.w	r0, [sp, #1316]                 @ 4-byte Spill
	b	.LBB2_224
.LBB2_217:
	ldr.w	r0, [sp, #1540]
	ldr	r0, [r0, #36]
	cmp	r0, #9
	bne	.LBB2_219
	b	.LBB2_218
.LBB2_218:
	.loc	7 0 62                          @ libraries/STM32H7xx_HAL/STM32H7xx_HAL_Driver/Src/stm32h7xx_hal_uart.c:0:62
	movs	r0, #64
	.loc	7 2939 62                       @ libraries/STM32H7xx_HAL/STM32H7xx_HAL_Driver/Src/stm32h7xx_hal_uart.c:2939:62
	str.w	r0, [sp, #1312]                 @ 4-byte Spill
	b	.LBB2_223
.LBB2_219:
	ldr.w	r0, [sp, #1540]
	ldr	r0, [r0, #36]
	cmp	r0, #10
	bne	.LBB2_221
	b	.LBB2_220
.LBB2_220:
	.loc	7 0 62                          @ libraries/STM32H7xx_HAL/STM32H7xx_HAL_Driver/Src/stm32h7xx_hal_uart.c:0:62
	movs	r0, #128
	.loc	7 2939 62                       @ libraries/STM32H7xx_HAL/STM32H7xx_HAL_Driver/Src/stm32h7xx_hal_uart.c:2939:62
	str.w	r0, [sp, #1308]                 @ 4-byte Spill
	b	.LBB2_222
.LBB2_221:
	ldr.w	r0, [sp, #1540]
	ldr	r1, [r0, #36]
	movs	r0, #1
	cmp	r1, #11
	it	eq
	moveq.w	r0, #256
	str.w	r0, [sp, #1308]                 @ 4-byte Spill
	b	.LBB2_222
.LBB2_222:
	ldr.w	r0, [sp, #1308]                 @ 4-byte Reload
	str.w	r0, [sp, #1312]                 @ 4-byte Spill
	b	.LBB2_223
.LBB2_223:
	ldr.w	r0, [sp, #1312]                 @ 4-byte Reload
	str.w	r0, [sp, #1316]                 @ 4-byte Spill
	b	.LBB2_224
.LBB2_224:
	ldr.w	r0, [sp, #1316]                 @ 4-byte Reload
	str.w	r0, [sp, #1320]                 @ 4-byte Spill
	b	.LBB2_225
.LBB2_225:
	ldr.w	r0, [sp, #1320]                 @ 4-byte Reload
	str.w	r0, [sp, #1324]                 @ 4-byte Spill
	b	.LBB2_226
.LBB2_226:
	ldr.w	r0, [sp, #1324]                 @ 4-byte Reload
	str.w	r0, [sp, #1328]                 @ 4-byte Spill
	b	.LBB2_227
.LBB2_227:
	ldr.w	r0, [sp, #1328]                 @ 4-byte Reload
	str.w	r0, [sp, #1332]                 @ 4-byte Spill
	b	.LBB2_228
.LBB2_228:
	ldr.w	r0, [sp, #1332]                 @ 4-byte Reload
	str.w	r0, [sp, #1336]                 @ 4-byte Spill
	b	.LBB2_229
.LBB2_229:
	ldr.w	r0, [sp, #1336]                 @ 4-byte Reload
	str.w	r0, [sp, #1340]                 @ 4-byte Spill
	b	.LBB2_230
.LBB2_230:
	ldr.w	r0, [sp, #1340]                 @ 4-byte Reload
	str.w	r0, [sp, #1344]                 @ 4-byte Spill
	b	.LBB2_231
.LBB2_231:
	ldr.w	r0, [sp, #1344]                 @ 4-byte Reload
	str.w	r0, [sp, #1348]                 @ 4-byte Spill
	b	.LBB2_232
.LBB2_232:
	ldr.w	r0, [sp, #1352]                 @ 4-byte Reload
	ldr.w	r1, [sp, #1348]                 @ 4-byte Reload
	.loc	7 2939 60                       @ libraries/STM32H7xx_HAL/STM32H7xx_HAL_Driver/Src/stm32h7xx_hal_uart.c:2939:60
	udiv	r0, r0, r1
	.loc	7 2939 28                       @ libraries/STM32H7xx_HAL/STM32H7xx_HAL_Driver/Src/stm32h7xx_hal_uart.c:2939:28
	str.w	r0, [sp, #1520]
	.loc	7 2940 9 is_stmt 1              @ libraries/STM32H7xx_HAL/STM32H7xx_HAL_Driver/Src/stm32h7xx_hal_uart.c:2940:9
	b	.LBB2_372
.LBB2_233:
	.loc	7 0 9 is_stmt 0                 @ libraries/STM32H7xx_HAL/STM32H7xx_HAL_Driver/Src/stm32h7xx_hal_uart.c:0:9
	movw	r0, #17408
	movt	r0, #22530
.Ltmp82:
	.loc	7 2942 13 is_stmt 1             @ libraries/STM32H7xx_HAL/STM32H7xx_HAL_Driver/Src/stm32h7xx_hal_uart.c:2942:13
	ldr	r0, [r0]
	and	r1, r0, #32
	movs	r0, #0
.Ltmp83:
	.loc	7 2942 13 is_stmt 0             @ libraries/STM32H7xx_HAL/STM32H7xx_HAL_Driver/Src/stm32h7xx_hal_uart.c:2942:13
	cmp.w	r0, r1, lsr #5
	beq.w	.LBB2_268
	b	.LBB2_234
.LBB2_234:
	.loc	7 0 13                          @ libraries/STM32H7xx_HAL/STM32H7xx_HAL_Driver/Src/stm32h7xx_hal_uart.c:0:13
	movw	r0, #17408
	movt	r0, #22530
.Ltmp84:
	.loc	7 2944 58 is_stmt 1             @ libraries/STM32H7xx_HAL/STM32H7xx_HAL_Driver/Src/stm32h7xx_hal_uart.c:2944:58
	ldr	r0, [r0]
	.loc	7 2944 86 is_stmt 0             @ libraries/STM32H7xx_HAL/STM32H7xx_HAL_Driver/Src/stm32h7xx_hal_uart.c:2944:86
	ubfx	r1, r0, #3, #2
	movw	r0, #36864
	movt	r0, #976
	.loc	7 2944 54                       @ libraries/STM32H7xx_HAL/STM32H7xx_HAL_Driver/Src/stm32h7xx_hal_uart.c:2944:54
	lsrs	r0, r1
	.loc	7 2944 96                       @ libraries/STM32H7xx_HAL/STM32H7xx_HAL_Driver/Src/stm32h7xx_hal_uart.c:2944:96
	str.w	r0, [sp, #1304]                 @ 4-byte Spill
	ldr.w	r0, [sp, #1540]
	ldr	r0, [r0, #36]
	cbnz	r0, .LBB2_236
	b	.LBB2_235
.LBB2_235:
	.loc	7 0 96                          @ libraries/STM32H7xx_HAL/STM32H7xx_HAL_Driver/Src/stm32h7xx_hal_uart.c:0:96
	movs	r0, #1
	.loc	7 2944 96                       @ libraries/STM32H7xx_HAL/STM32H7xx_HAL_Driver/Src/stm32h7xx_hal_uart.c:2944:96
	str.w	r0, [sp, #1300]                 @ 4-byte Spill
	b	.LBB2_267
.LBB2_236:
	ldr.w	r0, [sp, #1540]
	ldr	r0, [r0, #36]
	cmp	r0, #1
	bne	.LBB2_238
	b	.LBB2_237
.LBB2_237:
	.loc	7 0 96                          @ libraries/STM32H7xx_HAL/STM32H7xx_HAL_Driver/Src/stm32h7xx_hal_uart.c:0:96
	movs	r0, #2
	.loc	7 2944 96                       @ libraries/STM32H7xx_HAL/STM32H7xx_HAL_Driver/Src/stm32h7xx_hal_uart.c:2944:96
	str.w	r0, [sp, #1296]                 @ 4-byte Spill
	b	.LBB2_266
.LBB2_238:
	ldr.w	r0, [sp, #1540]
	ldr	r0, [r0, #36]
	cmp	r0, #2
	bne	.LBB2_240
	b	.LBB2_239
.LBB2_239:
	.loc	7 0 96                          @ libraries/STM32H7xx_HAL/STM32H7xx_HAL_Driver/Src/stm32h7xx_hal_uart.c:0:96
	movs	r0, #4
	.loc	7 2944 96                       @ libraries/STM32H7xx_HAL/STM32H7xx_HAL_Driver/Src/stm32h7xx_hal_uart.c:2944:96
	str.w	r0, [sp, #1292]                 @ 4-byte Spill
	b	.LBB2_265
.LBB2_240:
	ldr.w	r0, [sp, #1540]
	ldr	r0, [r0, #36]
	cmp	r0, #3
	bne	.LBB2_242
	b	.LBB2_241
.LBB2_241:
	.loc	7 0 96                          @ libraries/STM32H7xx_HAL/STM32H7xx_HAL_Driver/Src/stm32h7xx_hal_uart.c:0:96
	movs	r0, #6
	.loc	7 2944 96                       @ libraries/STM32H7xx_HAL/STM32H7xx_HAL_Driver/Src/stm32h7xx_hal_uart.c:2944:96
	str.w	r0, [sp, #1288]                 @ 4-byte Spill
	b	.LBB2_264
.LBB2_242:
	ldr.w	r0, [sp, #1540]
	ldr	r0, [r0, #36]
	cmp	r0, #4
	bne	.LBB2_244
	b	.LBB2_243
.LBB2_243:
	.loc	7 0 96                          @ libraries/STM32H7xx_HAL/STM32H7xx_HAL_Driver/Src/stm32h7xx_hal_uart.c:0:96
	movs	r0, #8
	.loc	7 2944 96                       @ libraries/STM32H7xx_HAL/STM32H7xx_HAL_Driver/Src/stm32h7xx_hal_uart.c:2944:96
	str.w	r0, [sp, #1284]                 @ 4-byte Spill
	b	.LBB2_263
.LBB2_244:
	ldr.w	r0, [sp, #1540]
	ldr	r0, [r0, #36]
	cmp	r0, #5
	bne	.LBB2_246
	b	.LBB2_245
.LBB2_245:
	.loc	7 0 96                          @ libraries/STM32H7xx_HAL/STM32H7xx_HAL_Driver/Src/stm32h7xx_hal_uart.c:0:96
	movs	r0, #10
	.loc	7 2944 96                       @ libraries/STM32H7xx_HAL/STM32H7xx_HAL_Driver/Src/stm32h7xx_hal_uart.c:2944:96
	str.w	r0, [sp, #1280]                 @ 4-byte Spill
	b	.LBB2_262
.LBB2_246:
	ldr.w	r0, [sp, #1540]
	ldr	r0, [r0, #36]
	cmp	r0, #6
	bne	.LBB2_248
	b	.LBB2_247
.LBB2_247:
	.loc	7 0 96                          @ libraries/STM32H7xx_HAL/STM32H7xx_HAL_Driver/Src/stm32h7xx_hal_uart.c:0:96
	movs	r0, #12
	.loc	7 2944 96                       @ libraries/STM32H7xx_HAL/STM32H7xx_HAL_Driver/Src/stm32h7xx_hal_uart.c:2944:96
	str.w	r0, [sp, #1276]                 @ 4-byte Spill
	b	.LBB2_261
.LBB2_248:
	ldr.w	r0, [sp, #1540]
	ldr	r0, [r0, #36]
	cmp	r0, #7
	bne	.LBB2_250
	b	.LBB2_249
.LBB2_249:
	.loc	7 0 96                          @ libraries/STM32H7xx_HAL/STM32H7xx_HAL_Driver/Src/stm32h7xx_hal_uart.c:0:96
	movs	r0, #16
	.loc	7 2944 96                       @ libraries/STM32H7xx_HAL/STM32H7xx_HAL_Driver/Src/stm32h7xx_hal_uart.c:2944:96
	str.w	r0, [sp, #1272]                 @ 4-byte Spill
	b	.LBB2_260
.LBB2_250:
	ldr.w	r0, [sp, #1540]
	ldr	r0, [r0, #36]
	cmp	r0, #8
	bne	.LBB2_252
	b	.LBB2_251
.LBB2_251:
	.loc	7 0 96                          @ libraries/STM32H7xx_HAL/STM32H7xx_HAL_Driver/Src/stm32h7xx_hal_uart.c:0:96
	movs	r0, #32
	.loc	7 2944 96                       @ libraries/STM32H7xx_HAL/STM32H7xx_HAL_Driver/Src/stm32h7xx_hal_uart.c:2944:96
	str.w	r0, [sp, #1268]                 @ 4-byte Spill
	b	.LBB2_259
.LBB2_252:
	ldr.w	r0, [sp, #1540]
	ldr	r0, [r0, #36]
	cmp	r0, #9
	bne	.LBB2_254
	b	.LBB2_253
.LBB2_253:
	.loc	7 0 96                          @ libraries/STM32H7xx_HAL/STM32H7xx_HAL_Driver/Src/stm32h7xx_hal_uart.c:0:96
	movs	r0, #64
	.loc	7 2944 96                       @ libraries/STM32H7xx_HAL/STM32H7xx_HAL_Driver/Src/stm32h7xx_hal_uart.c:2944:96
	str.w	r0, [sp, #1264]                 @ 4-byte Spill
	b	.LBB2_258
.LBB2_254:
	ldr.w	r0, [sp, #1540]
	ldr	r0, [r0, #36]
	cmp	r0, #10
	bne	.LBB2_256
	b	.LBB2_255
.LBB2_255:
	.loc	7 0 96                          @ libraries/STM32H7xx_HAL/STM32H7xx_HAL_Driver/Src/stm32h7xx_hal_uart.c:0:96
	movs	r0, #128
	.loc	7 2944 96                       @ libraries/STM32H7xx_HAL/STM32H7xx_HAL_Driver/Src/stm32h7xx_hal_uart.c:2944:96
	str.w	r0, [sp, #1260]                 @ 4-byte Spill
	b	.LBB2_257
.LBB2_256:
	ldr.w	r0, [sp, #1540]
	ldr	r1, [r0, #36]
	movs	r0, #1
	cmp	r1, #11
	it	eq
	moveq.w	r0, #256
	str.w	r0, [sp, #1260]                 @ 4-byte Spill
	b	.LBB2_257
.LBB2_257:
	ldr.w	r0, [sp, #1260]                 @ 4-byte Reload
	str.w	r0, [sp, #1264]                 @ 4-byte Spill
	b	.LBB2_258
.LBB2_258:
	ldr.w	r0, [sp, #1264]                 @ 4-byte Reload
	str.w	r0, [sp, #1268]                 @ 4-byte Spill
	b	.LBB2_259
.LBB2_259:
	ldr.w	r0, [sp, #1268]                 @ 4-byte Reload
	str.w	r0, [sp, #1272]                 @ 4-byte Spill
	b	.LBB2_260
.LBB2_260:
	ldr.w	r0, [sp, #1272]                 @ 4-byte Reload
	str.w	r0, [sp, #1276]                 @ 4-byte Spill
	b	.LBB2_261
.LBB2_261:
	ldr.w	r0, [sp, #1276]                 @ 4-byte Reload
	str.w	r0, [sp, #1280]                 @ 4-byte Spill
	b	.LBB2_262
.LBB2_262:
	ldr.w	r0, [sp, #1280]                 @ 4-byte Reload
	str.w	r0, [sp, #1284]                 @ 4-byte Spill
	b	.LBB2_263
.LBB2_263:
	ldr.w	r0, [sp, #1284]                 @ 4-byte Reload
	str.w	r0, [sp, #1288]                 @ 4-byte Spill
	b	.LBB2_264
.LBB2_264:
	ldr.w	r0, [sp, #1288]                 @ 4-byte Reload
	str.w	r0, [sp, #1292]                 @ 4-byte Spill
	b	.LBB2_265
.LBB2_265:
	ldr.w	r0, [sp, #1292]                 @ 4-byte Reload
	str.w	r0, [sp, #1296]                 @ 4-byte Spill
	b	.LBB2_266
.LBB2_266:
	ldr.w	r0, [sp, #1296]                 @ 4-byte Reload
	str.w	r0, [sp, #1300]                 @ 4-byte Spill
	b	.LBB2_267
.LBB2_267:
	ldr.w	r0, [sp, #1304]                 @ 4-byte Reload
	ldr.w	r1, [sp, #1300]                 @ 4-byte Reload
	.loc	7 2944 94                       @ libraries/STM32H7xx_HAL/STM32H7xx_HAL_Driver/Src/stm32h7xx_hal_uart.c:2944:94
	udiv	r0, r0, r1
	.loc	7 2944 30                       @ libraries/STM32H7xx_HAL/STM32H7xx_HAL_Driver/Src/stm32h7xx_hal_uart.c:2944:30
	str.w	r0, [sp, #1520]
	.loc	7 2945 9 is_stmt 1              @ libraries/STM32H7xx_HAL/STM32H7xx_HAL_Driver/Src/stm32h7xx_hal_uart.c:2945:9
	b	.LBB2_302
.Ltmp85:
.LBB2_268:
	.loc	7 2948 56                       @ libraries/STM32H7xx_HAL/STM32H7xx_HAL_Driver/Src/stm32h7xx_hal_uart.c:2948:56
	ldr.w	r0, [sp, #1540]
	ldr	r0, [r0, #36]
	cbnz	r0, .LBB2_270
	b	.LBB2_269
.LBB2_269:
	.loc	7 0 56 is_stmt 0                @ libraries/STM32H7xx_HAL/STM32H7xx_HAL_Driver/Src/stm32h7xx_hal_uart.c:0:56
	movs	r0, #1
	.loc	7 2948 56                       @ libraries/STM32H7xx_HAL/STM32H7xx_HAL_Driver/Src/stm32h7xx_hal_uart.c:2948:56
	str.w	r0, [sp, #1256]                 @ 4-byte Spill
	b	.LBB2_301
.LBB2_270:
	ldr.w	r0, [sp, #1540]
	ldr	r0, [r0, #36]
	cmp	r0, #1
	bne	.LBB2_272
	b	.LBB2_271
.LBB2_271:
	.loc	7 0 56                          @ libraries/STM32H7xx_HAL/STM32H7xx_HAL_Driver/Src/stm32h7xx_hal_uart.c:0:56
	movs	r0, #2
	.loc	7 2948 56                       @ libraries/STM32H7xx_HAL/STM32H7xx_HAL_Driver/Src/stm32h7xx_hal_uart.c:2948:56
	str.w	r0, [sp, #1252]                 @ 4-byte Spill
	b	.LBB2_300
.LBB2_272:
	ldr.w	r0, [sp, #1540]
	ldr	r0, [r0, #36]
	cmp	r0, #2
	bne	.LBB2_274
	b	.LBB2_273
.LBB2_273:
	.loc	7 0 56                          @ libraries/STM32H7xx_HAL/STM32H7xx_HAL_Driver/Src/stm32h7xx_hal_uart.c:0:56
	movs	r0, #4
	.loc	7 2948 56                       @ libraries/STM32H7xx_HAL/STM32H7xx_HAL_Driver/Src/stm32h7xx_hal_uart.c:2948:56
	str.w	r0, [sp, #1248]                 @ 4-byte Spill
	b	.LBB2_299
.LBB2_274:
	ldr.w	r0, [sp, #1540]
	ldr	r0, [r0, #36]
	cmp	r0, #3
	bne	.LBB2_276
	b	.LBB2_275
.LBB2_275:
	.loc	7 0 56                          @ libraries/STM32H7xx_HAL/STM32H7xx_HAL_Driver/Src/stm32h7xx_hal_uart.c:0:56
	movs	r0, #6
	.loc	7 2948 56                       @ libraries/STM32H7xx_HAL/STM32H7xx_HAL_Driver/Src/stm32h7xx_hal_uart.c:2948:56
	str.w	r0, [sp, #1244]                 @ 4-byte Spill
	b	.LBB2_298
.LBB2_276:
	ldr.w	r0, [sp, #1540]
	ldr	r0, [r0, #36]
	cmp	r0, #4
	bne	.LBB2_278
	b	.LBB2_277
.LBB2_277:
	.loc	7 0 56                          @ libraries/STM32H7xx_HAL/STM32H7xx_HAL_Driver/Src/stm32h7xx_hal_uart.c:0:56
	movs	r0, #8
	.loc	7 2948 56                       @ libraries/STM32H7xx_HAL/STM32H7xx_HAL_Driver/Src/stm32h7xx_hal_uart.c:2948:56
	str.w	r0, [sp, #1240]                 @ 4-byte Spill
	b	.LBB2_297
.LBB2_278:
	ldr.w	r0, [sp, #1540]
	ldr	r0, [r0, #36]
	cmp	r0, #5
	bne	.LBB2_280
	b	.LBB2_279
.LBB2_279:
	.loc	7 0 56                          @ libraries/STM32H7xx_HAL/STM32H7xx_HAL_Driver/Src/stm32h7xx_hal_uart.c:0:56
	movs	r0, #10
	.loc	7 2948 56                       @ libraries/STM32H7xx_HAL/STM32H7xx_HAL_Driver/Src/stm32h7xx_hal_uart.c:2948:56
	str.w	r0, [sp, #1236]                 @ 4-byte Spill
	b	.LBB2_296
.LBB2_280:
	ldr.w	r0, [sp, #1540]
	ldr	r0, [r0, #36]
	cmp	r0, #6
	bne	.LBB2_282
	b	.LBB2_281
.LBB2_281:
	.loc	7 0 56                          @ libraries/STM32H7xx_HAL/STM32H7xx_HAL_Driver/Src/stm32h7xx_hal_uart.c:0:56
	movs	r0, #12
	.loc	7 2948 56                       @ libraries/STM32H7xx_HAL/STM32H7xx_HAL_Driver/Src/stm32h7xx_hal_uart.c:2948:56
	str.w	r0, [sp, #1232]                 @ 4-byte Spill
	b	.LBB2_295
.LBB2_282:
	ldr.w	r0, [sp, #1540]
	ldr	r0, [r0, #36]
	cmp	r0, #7
	bne	.LBB2_284
	b	.LBB2_283
.LBB2_283:
	.loc	7 0 56                          @ libraries/STM32H7xx_HAL/STM32H7xx_HAL_Driver/Src/stm32h7xx_hal_uart.c:0:56
	movs	r0, #16
	.loc	7 2948 56                       @ libraries/STM32H7xx_HAL/STM32H7xx_HAL_Driver/Src/stm32h7xx_hal_uart.c:2948:56
	str.w	r0, [sp, #1228]                 @ 4-byte Spill
	b	.LBB2_294
.LBB2_284:
	ldr.w	r0, [sp, #1540]
	ldr	r0, [r0, #36]
	cmp	r0, #8
	bne	.LBB2_286
	b	.LBB2_285
.LBB2_285:
	.loc	7 0 56                          @ libraries/STM32H7xx_HAL/STM32H7xx_HAL_Driver/Src/stm32h7xx_hal_uart.c:0:56
	movs	r0, #32
	.loc	7 2948 56                       @ libraries/STM32H7xx_HAL/STM32H7xx_HAL_Driver/Src/stm32h7xx_hal_uart.c:2948:56
	str.w	r0, [sp, #1224]                 @ 4-byte Spill
	b	.LBB2_293
.LBB2_286:
	ldr.w	r0, [sp, #1540]
	ldr	r0, [r0, #36]
	cmp	r0, #9
	bne	.LBB2_288
	b	.LBB2_287
.LBB2_287:
	.loc	7 0 56                          @ libraries/STM32H7xx_HAL/STM32H7xx_HAL_Driver/Src/stm32h7xx_hal_uart.c:0:56
	movs	r0, #64
	.loc	7 2948 56                       @ libraries/STM32H7xx_HAL/STM32H7xx_HAL_Driver/Src/stm32h7xx_hal_uart.c:2948:56
	str.w	r0, [sp, #1220]                 @ 4-byte Spill
	b	.LBB2_292
.LBB2_288:
	ldr.w	r0, [sp, #1540]
	ldr	r0, [r0, #36]
	cmp	r0, #10
	bne	.LBB2_290
	b	.LBB2_289
.LBB2_289:
	.loc	7 0 56                          @ libraries/STM32H7xx_HAL/STM32H7xx_HAL_Driver/Src/stm32h7xx_hal_uart.c:0:56
	movs	r0, #128
	.loc	7 2948 56                       @ libraries/STM32H7xx_HAL/STM32H7xx_HAL_Driver/Src/stm32h7xx_hal_uart.c:2948:56
	str.w	r0, [sp, #1216]                 @ 4-byte Spill
	b	.LBB2_291
.LBB2_290:
	ldr.w	r0, [sp, #1540]
	ldr	r1, [r0, #36]
	movs	r0, #1
	cmp	r1, #11
	it	eq
	moveq.w	r0, #256
	str.w	r0, [sp, #1216]                 @ 4-byte Spill
	b	.LBB2_291
.LBB2_291:
	ldr.w	r0, [sp, #1216]                 @ 4-byte Reload
	str.w	r0, [sp, #1220]                 @ 4-byte Spill
	b	.LBB2_292
.LBB2_292:
	ldr.w	r0, [sp, #1220]                 @ 4-byte Reload
	str.w	r0, [sp, #1224]                 @ 4-byte Spill
	b	.LBB2_293
.LBB2_293:
	ldr.w	r0, [sp, #1224]                 @ 4-byte Reload
	str.w	r0, [sp, #1228]                 @ 4-byte Spill
	b	.LBB2_294
.LBB2_294:
	ldr.w	r0, [sp, #1228]                 @ 4-byte Reload
	str.w	r0, [sp, #1232]                 @ 4-byte Spill
	b	.LBB2_295
.LBB2_295:
	ldr.w	r0, [sp, #1232]                 @ 4-byte Reload
	str.w	r0, [sp, #1236]                 @ 4-byte Spill
	b	.LBB2_296
.LBB2_296:
	ldr.w	r0, [sp, #1236]                 @ 4-byte Reload
	str.w	r0, [sp, #1240]                 @ 4-byte Spill
	b	.LBB2_297
.LBB2_297:
	ldr.w	r0, [sp, #1240]                 @ 4-byte Reload
	str.w	r0, [sp, #1244]                 @ 4-byte Spill
	b	.LBB2_298
.LBB2_298:
	ldr.w	r0, [sp, #1244]                 @ 4-byte Reload
	str.w	r0, [sp, #1248]                 @ 4-byte Spill
	b	.LBB2_299
.LBB2_299:
	ldr.w	r0, [sp, #1248]                 @ 4-byte Reload
	str.w	r0, [sp, #1252]                 @ 4-byte Spill
	b	.LBB2_300
.LBB2_300:
	ldr.w	r0, [sp, #1252]                 @ 4-byte Reload
	str.w	r0, [sp, #1256]                 @ 4-byte Spill
	b	.LBB2_301
.LBB2_301:
	ldr.w	r1, [sp, #1256]                 @ 4-byte Reload
	movw	r0, #36864
	movt	r0, #976
	.loc	7 2948 54                       @ libraries/STM32H7xx_HAL/STM32H7xx_HAL_Driver/Src/stm32h7xx_hal_uart.c:2948:54
	udiv	r0, r0, r1
	.loc	7 2948 30                       @ libraries/STM32H7xx_HAL/STM32H7xx_HAL_Driver/Src/stm32h7xx_hal_uart.c:2948:30
	str.w	r0, [sp, #1520]
	b	.LBB2_302
.Ltmp86:
.LBB2_302:
	.loc	7 2950 9 is_stmt 1              @ libraries/STM32H7xx_HAL/STM32H7xx_HAL_Driver/Src/stm32h7xx_hal_uart.c:2950:9
	b	.LBB2_372
.LBB2_303:
	.loc	7 2952 53                       @ libraries/STM32H7xx_HAL/STM32H7xx_HAL_Driver/Src/stm32h7xx_hal_uart.c:2952:53
	ldr.w	r0, [sp, #1540]
	ldr	r0, [r0, #36]
	cbnz	r0, .LBB2_305
	b	.LBB2_304
.LBB2_304:
	.loc	7 0 53 is_stmt 0                @ libraries/STM32H7xx_HAL/STM32H7xx_HAL_Driver/Src/stm32h7xx_hal_uart.c:0:53
	movs	r0, #1
	.loc	7 2952 53                       @ libraries/STM32H7xx_HAL/STM32H7xx_HAL_Driver/Src/stm32h7xx_hal_uart.c:2952:53
	str.w	r0, [sp, #1212]                 @ 4-byte Spill
	b	.LBB2_336
.LBB2_305:
	ldr.w	r0, [sp, #1540]
	ldr	r0, [r0, #36]
	cmp	r0, #1
	bne	.LBB2_307
	b	.LBB2_306
.LBB2_306:
	.loc	7 0 53                          @ libraries/STM32H7xx_HAL/STM32H7xx_HAL_Driver/Src/stm32h7xx_hal_uart.c:0:53
	movs	r0, #2
	.loc	7 2952 53                       @ libraries/STM32H7xx_HAL/STM32H7xx_HAL_Driver/Src/stm32h7xx_hal_uart.c:2952:53
	str.w	r0, [sp, #1208]                 @ 4-byte Spill
	b	.LBB2_335
.LBB2_307:
	ldr.w	r0, [sp, #1540]
	ldr	r0, [r0, #36]
	cmp	r0, #2
	bne	.LBB2_309
	b	.LBB2_308
.LBB2_308:
	.loc	7 0 53                          @ libraries/STM32H7xx_HAL/STM32H7xx_HAL_Driver/Src/stm32h7xx_hal_uart.c:0:53
	movs	r0, #4
	.loc	7 2952 53                       @ libraries/STM32H7xx_HAL/STM32H7xx_HAL_Driver/Src/stm32h7xx_hal_uart.c:2952:53
	str.w	r0, [sp, #1204]                 @ 4-byte Spill
	b	.LBB2_334
.LBB2_309:
	ldr.w	r0, [sp, #1540]
	ldr	r0, [r0, #36]
	cmp	r0, #3
	bne	.LBB2_311
	b	.LBB2_310
.LBB2_310:
	.loc	7 0 53                          @ libraries/STM32H7xx_HAL/STM32H7xx_HAL_Driver/Src/stm32h7xx_hal_uart.c:0:53
	movs	r0, #6
	.loc	7 2952 53                       @ libraries/STM32H7xx_HAL/STM32H7xx_HAL_Driver/Src/stm32h7xx_hal_uart.c:2952:53
	str.w	r0, [sp, #1200]                 @ 4-byte Spill
	b	.LBB2_333
.LBB2_311:
	ldr.w	r0, [sp, #1540]
	ldr	r0, [r0, #36]
	cmp	r0, #4
	bne	.LBB2_313
	b	.LBB2_312
.LBB2_312:
	.loc	7 0 53                          @ libraries/STM32H7xx_HAL/STM32H7xx_HAL_Driver/Src/stm32h7xx_hal_uart.c:0:53
	movs	r0, #8
	.loc	7 2952 53                       @ libraries/STM32H7xx_HAL/STM32H7xx_HAL_Driver/Src/stm32h7xx_hal_uart.c:2952:53
	str.w	r0, [sp, #1196]                 @ 4-byte Spill
	b	.LBB2_332
.LBB2_313:
	ldr.w	r0, [sp, #1540]
	ldr	r0, [r0, #36]
	cmp	r0, #5
	bne	.LBB2_315
	b	.LBB2_314
.LBB2_314:
	.loc	7 0 53                          @ libraries/STM32H7xx_HAL/STM32H7xx_HAL_Driver/Src/stm32h7xx_hal_uart.c:0:53
	movs	r0, #10
	.loc	7 2952 53                       @ libraries/STM32H7xx_HAL/STM32H7xx_HAL_Driver/Src/stm32h7xx_hal_uart.c:2952:53
	str.w	r0, [sp, #1192]                 @ 4-byte Spill
	b	.LBB2_331
.LBB2_315:
	ldr.w	r0, [sp, #1540]
	ldr	r0, [r0, #36]
	cmp	r0, #6
	bne	.LBB2_317
	b	.LBB2_316
.LBB2_316:
	.loc	7 0 53                          @ libraries/STM32H7xx_HAL/STM32H7xx_HAL_Driver/Src/stm32h7xx_hal_uart.c:0:53
	movs	r0, #12
	.loc	7 2952 53                       @ libraries/STM32H7xx_HAL/STM32H7xx_HAL_Driver/Src/stm32h7xx_hal_uart.c:2952:53
	str.w	r0, [sp, #1188]                 @ 4-byte Spill
	b	.LBB2_330
.LBB2_317:
	ldr.w	r0, [sp, #1540]
	ldr	r0, [r0, #36]
	cmp	r0, #7
	bne	.LBB2_319
	b	.LBB2_318
.LBB2_318:
	.loc	7 0 53                          @ libraries/STM32H7xx_HAL/STM32H7xx_HAL_Driver/Src/stm32h7xx_hal_uart.c:0:53
	movs	r0, #16
	.loc	7 2952 53                       @ libraries/STM32H7xx_HAL/STM32H7xx_HAL_Driver/Src/stm32h7xx_hal_uart.c:2952:53
	str.w	r0, [sp, #1184]                 @ 4-byte Spill
	b	.LBB2_329
.LBB2_319:
	ldr.w	r0, [sp, #1540]
	ldr	r0, [r0, #36]
	cmp	r0, #8
	bne	.LBB2_321
	b	.LBB2_320
.LBB2_320:
	.loc	7 0 53                          @ libraries/STM32H7xx_HAL/STM32H7xx_HAL_Driver/Src/stm32h7xx_hal_uart.c:0:53
	movs	r0, #32
	.loc	7 2952 53                       @ libraries/STM32H7xx_HAL/STM32H7xx_HAL_Driver/Src/stm32h7xx_hal_uart.c:2952:53
	str.w	r0, [sp, #1180]                 @ 4-byte Spill
	b	.LBB2_328
.LBB2_321:
	ldr.w	r0, [sp, #1540]
	ldr	r0, [r0, #36]
	cmp	r0, #9
	bne	.LBB2_323
	b	.LBB2_322
.LBB2_322:
	.loc	7 0 53                          @ libraries/STM32H7xx_HAL/STM32H7xx_HAL_Driver/Src/stm32h7xx_hal_uart.c:0:53
	movs	r0, #64
	.loc	7 2952 53                       @ libraries/STM32H7xx_HAL/STM32H7xx_HAL_Driver/Src/stm32h7xx_hal_uart.c:2952:53
	str.w	r0, [sp, #1176]                 @ 4-byte Spill
	b	.LBB2_327
.LBB2_323:
	ldr.w	r0, [sp, #1540]
	ldr	r0, [r0, #36]
	cmp	r0, #10
	bne	.LBB2_325
	b	.LBB2_324
.LBB2_324:
	.loc	7 0 53                          @ libraries/STM32H7xx_HAL/STM32H7xx_HAL_Driver/Src/stm32h7xx_hal_uart.c:0:53
	movs	r0, #128
	.loc	7 2952 53                       @ libraries/STM32H7xx_HAL/STM32H7xx_HAL_Driver/Src/stm32h7xx_hal_uart.c:2952:53
	str.w	r0, [sp, #1172]                 @ 4-byte Spill
	b	.LBB2_326
.LBB2_325:
	ldr.w	r0, [sp, #1540]
	ldr	r1, [r0, #36]
	movs	r0, #1
	cmp	r1, #11
	it	eq
	moveq.w	r0, #256
	str.w	r0, [sp, #1172]                 @ 4-byte Spill
	b	.LBB2_326
.LBB2_326:
	ldr.w	r0, [sp, #1172]                 @ 4-byte Reload
	str.w	r0, [sp, #1176]                 @ 4-byte Spill
	b	.LBB2_327
.LBB2_327:
	ldr.w	r0, [sp, #1176]                 @ 4-byte Reload
	str.w	r0, [sp, #1180]                 @ 4-byte Spill
	b	.LBB2_328
.LBB2_328:
	ldr.w	r0, [sp, #1180]                 @ 4-byte Reload
	str.w	r0, [sp, #1184]                 @ 4-byte Spill
	b	.LBB2_329
.LBB2_329:
	ldr.w	r0, [sp, #1184]                 @ 4-byte Reload
	str.w	r0, [sp, #1188]                 @ 4-byte Spill
	b	.LBB2_330
.LBB2_330:
	ldr.w	r0, [sp, #1188]                 @ 4-byte Reload
	str.w	r0, [sp, #1192]                 @ 4-byte Spill
	b	.LBB2_331
.LBB2_331:
	ldr.w	r0, [sp, #1192]                 @ 4-byte Reload
	str.w	r0, [sp, #1196]                 @ 4-byte Spill
	b	.LBB2_332
.LBB2_332:
	ldr.w	r0, [sp, #1196]                 @ 4-byte Reload
	str.w	r0, [sp, #1200]                 @ 4-byte Spill
	b	.LBB2_333
.LBB2_333:
	ldr.w	r0, [sp, #1200]                 @ 4-byte Reload
	str.w	r0, [sp, #1204]                 @ 4-byte Spill
	b	.LBB2_334
.LBB2_334:
	ldr.w	r0, [sp, #1204]                 @ 4-byte Reload
	str.w	r0, [sp, #1208]                 @ 4-byte Spill
	b	.LBB2_335
.LBB2_335:
	ldr.w	r0, [sp, #1208]                 @ 4-byte Reload
	str.w	r0, [sp, #1212]                 @ 4-byte Spill
	b	.LBB2_336
.LBB2_336:
	ldr.w	r1, [sp, #1212]                 @ 4-byte Reload
	movw	r0, #2304
	movt	r0, #61
	.loc	7 2952 51                       @ libraries/STM32H7xx_HAL/STM32H7xx_HAL_Driver/Src/stm32h7xx_hal_uart.c:2952:51
	udiv	r0, r0, r1
	.loc	7 2952 28                       @ libraries/STM32H7xx_HAL/STM32H7xx_HAL_Driver/Src/stm32h7xx_hal_uart.c:2952:28
	str.w	r0, [sp, #1520]
	.loc	7 2953 9 is_stmt 1              @ libraries/STM32H7xx_HAL/STM32H7xx_HAL_Driver/Src/stm32h7xx_hal_uart.c:2953:9
	b	.LBB2_372
.LBB2_337:
	.loc	7 2955 53                       @ libraries/STM32H7xx_HAL/STM32H7xx_HAL_Driver/Src/stm32h7xx_hal_uart.c:2955:53
	ldr.w	r0, [sp, #1540]
	ldr	r0, [r0, #36]
	cbnz	r0, .LBB2_339
	b	.LBB2_338
.LBB2_338:
	.loc	7 0 53 is_stmt 0                @ libraries/STM32H7xx_HAL/STM32H7xx_HAL_Driver/Src/stm32h7xx_hal_uart.c:0:53
	movs	r0, #1
	.loc	7 2955 53                       @ libraries/STM32H7xx_HAL/STM32H7xx_HAL_Driver/Src/stm32h7xx_hal_uart.c:2955:53
	str.w	r0, [sp, #1168]                 @ 4-byte Spill
	b	.LBB2_370
.LBB2_339:
	ldr.w	r0, [sp, #1540]
	ldr	r0, [r0, #36]
	cmp	r0, #1
	bne	.LBB2_341
	b	.LBB2_340
.LBB2_340:
	.loc	7 0 53                          @ libraries/STM32H7xx_HAL/STM32H7xx_HAL_Driver/Src/stm32h7xx_hal_uart.c:0:53
	movs	r0, #2
	.loc	7 2955 53                       @ libraries/STM32H7xx_HAL/STM32H7xx_HAL_Driver/Src/stm32h7xx_hal_uart.c:2955:53
	str.w	r0, [sp, #1164]                 @ 4-byte Spill
	b	.LBB2_369
.LBB2_341:
	ldr.w	r0, [sp, #1540]
	ldr	r0, [r0, #36]
	cmp	r0, #2
	bne	.LBB2_343
	b	.LBB2_342
.LBB2_342:
	.loc	7 0 53                          @ libraries/STM32H7xx_HAL/STM32H7xx_HAL_Driver/Src/stm32h7xx_hal_uart.c:0:53
	movs	r0, #4
	.loc	7 2955 53                       @ libraries/STM32H7xx_HAL/STM32H7xx_HAL_Driver/Src/stm32h7xx_hal_uart.c:2955:53
	str.w	r0, [sp, #1160]                 @ 4-byte Spill
	b	.LBB2_368
.LBB2_343:
	ldr.w	r0, [sp, #1540]
	ldr	r0, [r0, #36]
	cmp	r0, #3
	bne	.LBB2_345
	b	.LBB2_344
.LBB2_344:
	.loc	7 0 53                          @ libraries/STM32H7xx_HAL/STM32H7xx_HAL_Driver/Src/stm32h7xx_hal_uart.c:0:53
	movs	r0, #6
	.loc	7 2955 53                       @ libraries/STM32H7xx_HAL/STM32H7xx_HAL_Driver/Src/stm32h7xx_hal_uart.c:2955:53
	str.w	r0, [sp, #1156]                 @ 4-byte Spill
	b	.LBB2_367
.LBB2_345:
	ldr.w	r0, [sp, #1540]
	ldr	r0, [r0, #36]
	cmp	r0, #4
	bne	.LBB2_347
	b	.LBB2_346
.LBB2_346:
	.loc	7 0 53                          @ libraries/STM32H7xx_HAL/STM32H7xx_HAL_Driver/Src/stm32h7xx_hal_uart.c:0:53
	movs	r0, #8
	.loc	7 2955 53                       @ libraries/STM32H7xx_HAL/STM32H7xx_HAL_Driver/Src/stm32h7xx_hal_uart.c:2955:53
	str.w	r0, [sp, #1152]                 @ 4-byte Spill
	b	.LBB2_366
.LBB2_347:
	ldr.w	r0, [sp, #1540]
	ldr	r0, [r0, #36]
	cmp	r0, #5
	bne	.LBB2_349
	b	.LBB2_348
.LBB2_348:
	.loc	7 0 53                          @ libraries/STM32H7xx_HAL/STM32H7xx_HAL_Driver/Src/stm32h7xx_hal_uart.c:0:53
	movs	r0, #10
	.loc	7 2955 53                       @ libraries/STM32H7xx_HAL/STM32H7xx_HAL_Driver/Src/stm32h7xx_hal_uart.c:2955:53
	str.w	r0, [sp, #1148]                 @ 4-byte Spill
	b	.LBB2_365
.LBB2_349:
	ldr.w	r0, [sp, #1540]
	ldr	r0, [r0, #36]
	cmp	r0, #6
	bne	.LBB2_351
	b	.LBB2_350
.LBB2_350:
	.loc	7 0 53                          @ libraries/STM32H7xx_HAL/STM32H7xx_HAL_Driver/Src/stm32h7xx_hal_uart.c:0:53
	movs	r0, #12
	.loc	7 2955 53                       @ libraries/STM32H7xx_HAL/STM32H7xx_HAL_Driver/Src/stm32h7xx_hal_uart.c:2955:53
	str.w	r0, [sp, #1144]                 @ 4-byte Spill
	b	.LBB2_364
.LBB2_351:
	ldr.w	r0, [sp, #1540]
	ldr	r0, [r0, #36]
	cmp	r0, #7
	bne	.LBB2_353
	b	.LBB2_352
.LBB2_352:
	.loc	7 0 53                          @ libraries/STM32H7xx_HAL/STM32H7xx_HAL_Driver/Src/stm32h7xx_hal_uart.c:0:53
	movs	r0, #16
	.loc	7 2955 53                       @ libraries/STM32H7xx_HAL/STM32H7xx_HAL_Driver/Src/stm32h7xx_hal_uart.c:2955:53
	str.w	r0, [sp, #1140]                 @ 4-byte Spill
	b	.LBB2_363
.LBB2_353:
	ldr.w	r0, [sp, #1540]
	ldr	r0, [r0, #36]
	cmp	r0, #8
	bne	.LBB2_355
	b	.LBB2_354
.LBB2_354:
	.loc	7 0 53                          @ libraries/STM32H7xx_HAL/STM32H7xx_HAL_Driver/Src/stm32h7xx_hal_uart.c:0:53
	movs	r0, #32
	.loc	7 2955 53                       @ libraries/STM32H7xx_HAL/STM32H7xx_HAL_Driver/Src/stm32h7xx_hal_uart.c:2955:53
	str.w	r0, [sp, #1136]                 @ 4-byte Spill
	b	.LBB2_362
.LBB2_355:
	ldr.w	r0, [sp, #1540]
	ldr	r0, [r0, #36]
	cmp	r0, #9
	bne	.LBB2_357
	b	.LBB2_356
.LBB2_356:
	.loc	7 0 53                          @ libraries/STM32H7xx_HAL/STM32H7xx_HAL_Driver/Src/stm32h7xx_hal_uart.c:0:53
	movs	r0, #64
	.loc	7 2955 53                       @ libraries/STM32H7xx_HAL/STM32H7xx_HAL_Driver/Src/stm32h7xx_hal_uart.c:2955:53
	str.w	r0, [sp, #1132]                 @ 4-byte Spill
	b	.LBB2_361
.LBB2_357:
	ldr.w	r0, [sp, #1540]
	ldr	r0, [r0, #36]
	cmp	r0, #10
	bne	.LBB2_359
	b	.LBB2_358
.LBB2_358:
	.loc	7 0 53                          @ libraries/STM32H7xx_HAL/STM32H7xx_HAL_Driver/Src/stm32h7xx_hal_uart.c:0:53
	movs	r0, #128
	.loc	7 2955 53                       @ libraries/STM32H7xx_HAL/STM32H7xx_HAL_Driver/Src/stm32h7xx_hal_uart.c:2955:53
	str.w	r0, [sp, #1128]                 @ 4-byte Spill
	b	.LBB2_360
.LBB2_359:
	ldr.w	r0, [sp, #1540]
	ldr	r1, [r0, #36]
	movs	r0, #1
	cmp	r1, #11
	it	eq
	moveq.w	r0, #256
	str.w	r0, [sp, #1128]                 @ 4-byte Spill
	b	.LBB2_360
.LBB2_360:
	ldr.w	r0, [sp, #1128]                 @ 4-byte Reload
	str.w	r0, [sp, #1132]                 @ 4-byte Spill
	b	.LBB2_361
.LBB2_361:
	ldr.w	r0, [sp, #1132]                 @ 4-byte Reload
	str.w	r0, [sp, #1136]                 @ 4-byte Spill
	b	.LBB2_362
.LBB2_362:
	ldr.w	r0, [sp, #1136]                 @ 4-byte Reload
	str.w	r0, [sp, #1140]                 @ 4-byte Spill
	b	.LBB2_363
.LBB2_363:
	ldr.w	r0, [sp, #1140]                 @ 4-byte Reload
	str.w	r0, [sp, #1144]                 @ 4-byte Spill
	b	.LBB2_364
.LBB2_364:
	ldr.w	r0, [sp, #1144]                 @ 4-byte Reload
	str.w	r0, [sp, #1148]                 @ 4-byte Spill
	b	.LBB2_365
.LBB2_365:
	ldr.w	r0, [sp, #1148]                 @ 4-byte Reload
	str.w	r0, [sp, #1152]                 @ 4-byte Spill
	b	.LBB2_366
.LBB2_366:
	ldr.w	r0, [sp, #1152]                 @ 4-byte Reload
	str.w	r0, [sp, #1156]                 @ 4-byte Spill
	b	.LBB2_367
.LBB2_367:
	ldr.w	r0, [sp, #1156]                 @ 4-byte Reload
	str.w	r0, [sp, #1160]                 @ 4-byte Spill
	b	.LBB2_368
.LBB2_368:
	ldr.w	r0, [sp, #1160]                 @ 4-byte Reload
	str.w	r0, [sp, #1164]                 @ 4-byte Spill
	b	.LBB2_369
.LBB2_369:
	ldr.w	r0, [sp, #1164]                 @ 4-byte Reload
	str.w	r0, [sp, #1168]                 @ 4-byte Spill
	b	.LBB2_370
.LBB2_370:
	ldr.w	r1, [sp, #1168]                 @ 4-byte Reload
	mov.w	r0, #32768
	.loc	7 2955 51                       @ libraries/STM32H7xx_HAL/STM32H7xx_HAL_Driver/Src/stm32h7xx_hal_uart.c:2955:51
	udiv	r0, r0, r1
	.loc	7 2955 28                       @ libraries/STM32H7xx_HAL/STM32H7xx_HAL_Driver/Src/stm32h7xx_hal_uart.c:2955:28
	str.w	r0, [sp, #1520]
	.loc	7 2956 9 is_stmt 1              @ libraries/STM32H7xx_HAL/STM32H7xx_HAL_Driver/Src/stm32h7xx_hal_uart.c:2956:9
	b	.LBB2_372
.LBB2_371:
	.loc	7 0 9 is_stmt 0                 @ libraries/STM32H7xx_HAL/STM32H7xx_HAL_Driver/Src/stm32h7xx_hal_uart.c:0:9
	movs	r0, #1
	.loc	7 2958 13 is_stmt 1             @ libraries/STM32H7xx_HAL/STM32H7xx_HAL_Driver/Src/stm32h7xx_hal_uart.c:2958:13
	strb.w	r0, [sp, #1527]
	.loc	7 2959 9                        @ libraries/STM32H7xx_HAL/STM32H7xx_HAL_Driver/Src/stm32h7xx_hal_uart.c:2959:9
	b	.LBB2_372
.Ltmp87:
.LBB2_372:
	.loc	7 2963 9                        @ libraries/STM32H7xx_HAL/STM32H7xx_HAL_Driver/Src/stm32h7xx_hal_uart.c:2963:9
	ldr.w	r0, [sp, #1520]
.Ltmp88:
	.loc	7 2963 9 is_stmt 0              @ libraries/STM32H7xx_HAL/STM32H7xx_HAL_Driver/Src/stm32h7xx_hal_uart.c:2963:9
	cmp	r0, #0
	beq.w	.LBB2_629
	b	.LBB2_373
.LBB2_373:
.Ltmp89:
	.loc	7 2966 12 is_stmt 1             @ libraries/STM32H7xx_HAL/STM32H7xx_HAL_Driver/Src/stm32h7xx_hal_uart.c:2966:12
	ldr.w	r0, [sp, #1520]
	.loc	7 2966 39 is_stmt 0             @ libraries/STM32H7xx_HAL/STM32H7xx_HAL_Driver/Src/stm32h7xx_hal_uart.c:2966:39
	ldr.w	r1, [sp, #1540]
	.loc	7 2966 51                       @ libraries/STM32H7xx_HAL/STM32H7xx_HAL_Driver/Src/stm32h7xx_hal_uart.c:2966:51
	ldr	r1, [r1, #4]
	.loc	7 2966 37                       @ libraries/STM32H7xx_HAL/STM32H7xx_HAL_Driver/Src/stm32h7xx_hal_uart.c:2966:37
	add.w	r1, r1, r1, lsl #1
	.loc	7 2966 62                       @ libraries/STM32H7xx_HAL/STM32H7xx_HAL_Driver/Src/stm32h7xx_hal_uart.c:2966:62
	cmp	r0, r1
	blo	.LBB2_375
	b	.LBB2_374
.LBB2_374:
	.loc	7 2967 12 is_stmt 1             @ libraries/STM32H7xx_HAL/STM32H7xx_HAL_Driver/Src/stm32h7xx_hal_uart.c:2967:12
	ldr.w	r0, [sp, #1520]
	.loc	7 2967 42 is_stmt 0             @ libraries/STM32H7xx_HAL/STM32H7xx_HAL_Driver/Src/stm32h7xx_hal_uart.c:2967:42
	ldr.w	r1, [sp, #1540]
	.loc	7 2967 54                       @ libraries/STM32H7xx_HAL/STM32H7xx_HAL_Driver/Src/stm32h7xx_hal_uart.c:2967:54
	ldr	r1, [r1, #4]
.Ltmp90:
	.loc	7 2966 11 is_stmt 1             @ libraries/STM32H7xx_HAL/STM32H7xx_HAL_Driver/Src/stm32h7xx_hal_uart.c:2966:11
	cmp.w	r0, r1, lsl #12
	bls	.LBB2_376
	b	.LBB2_375
.LBB2_375:
	.loc	7 0 11 is_stmt 0                @ libraries/STM32H7xx_HAL/STM32H7xx_HAL_Driver/Src/stm32h7xx_hal_uart.c:0:11
	movs	r0, #1
.Ltmp91:
	.loc	7 2969 13 is_stmt 1             @ libraries/STM32H7xx_HAL/STM32H7xx_HAL_Driver/Src/stm32h7xx_hal_uart.c:2969:13
	strb.w	r0, [sp, #1527]
	.loc	7 2970 7                        @ libraries/STM32H7xx_HAL/STM32H7xx_HAL_Driver/Src/stm32h7xx_hal_uart.c:2970:7
	b.w	.LBB2_628
.Ltmp92:
.LBB2_376:
	.loc	7 2973 17                       @ libraries/STM32H7xx_HAL/STM32H7xx_HAL_Driver/Src/stm32h7xx_hal_uart.c:2973:17
	ldrb.w	r0, [sp, #1533]
	.loc	7 2973 9 is_stmt 0              @ libraries/STM32H7xx_HAL/STM32H7xx_HAL_Driver/Src/stm32h7xx_hal_uart.c:2973:9
	mov	r1, r0
	str.w	r1, [sp, #1124]                 @ 4-byte Spill
	cmp	r0, #2
	beq	.LBB2_382
	b	.LBB2_377
.LBB2_377:
	ldr.w	r0, [sp, #1124]                 @ 4-byte Reload
	cmp	r0, #4
	beq.w	.LBB2_416
	b	.LBB2_378
.LBB2_378:
	ldr.w	r0, [sp, #1124]                 @ 4-byte Reload
	cmp	r0, #8
	beq.w	.LBB2_450
	b	.LBB2_379
.LBB2_379:
	ldr.w	r0, [sp, #1124]                 @ 4-byte Reload
	cmp	r0, #16
	beq.w	.LBB2_484
	b	.LBB2_380
.LBB2_380:
	ldr.w	r0, [sp, #1124]                 @ 4-byte Reload
	cmp	r0, #32
	beq.w	.LBB2_554
	b	.LBB2_381
.LBB2_381:
	ldr.w	r0, [sp, #1124]                 @ 4-byte Reload
	cmp	r0, #64
	beq.w	.LBB2_588
	b.w	.LBB2_622
.LBB2_382:
.Ltmp93:
	.loc	7 2976 20 is_stmt 1             @ libraries/STM32H7xx_HAL/STM32H7xx_HAL_Driver/Src/stm32h7xx_hal_uart.c:2976:20
	bl	HAL_RCCEx_GetD3PCLK1Freq
	.loc	7 2976 18 is_stmt 0             @ libraries/STM32H7xx_HAL/STM32H7xx_HAL_Driver/Src/stm32h7xx_hal_uart.c:2976:18
	str.w	r0, [sp, #1492]
	.loc	7 2977 35 is_stmt 1             @ libraries/STM32H7xx_HAL/STM32H7xx_HAL_Driver/Src/stm32h7xx_hal_uart.c:2977:35
	ldr.w	r0, [sp, #1492]
	str.w	r0, [sp, #1116]                 @ 4-byte Spill
	movs	r0, #0
	str.w	r0, [sp, #1120]                 @ 4-byte Spill
	ldr.w	r0, [sp, #1540]
	ldr	r0, [r0, #36]
	cbnz	r0, .LBB2_384
	b	.LBB2_383
.LBB2_383:
	.loc	7 0 35 is_stmt 0                @ libraries/STM32H7xx_HAL/STM32H7xx_HAL_Driver/Src/stm32h7xx_hal_uart.c:0:35
	movs	r0, #1
	.loc	7 2977 35                       @ libraries/STM32H7xx_HAL/STM32H7xx_HAL_Driver/Src/stm32h7xx_hal_uart.c:2977:35
	str.w	r0, [sp, #1112]                 @ 4-byte Spill
	b	.LBB2_415
.LBB2_384:
	ldr.w	r0, [sp, #1540]
	ldr	r0, [r0, #36]
	cmp	r0, #1
	bne	.LBB2_386
	b	.LBB2_385
.LBB2_385:
	.loc	7 0 35                          @ libraries/STM32H7xx_HAL/STM32H7xx_HAL_Driver/Src/stm32h7xx_hal_uart.c:0:35
	movs	r0, #2
	.loc	7 2977 35                       @ libraries/STM32H7xx_HAL/STM32H7xx_HAL_Driver/Src/stm32h7xx_hal_uart.c:2977:35
	str.w	r0, [sp, #1108]                 @ 4-byte Spill
	b	.LBB2_414
.LBB2_386:
	ldr.w	r0, [sp, #1540]
	ldr	r0, [r0, #36]
	cmp	r0, #2
	bne	.LBB2_388
	b	.LBB2_387
.LBB2_387:
	.loc	7 0 35                          @ libraries/STM32H7xx_HAL/STM32H7xx_HAL_Driver/Src/stm32h7xx_hal_uart.c:0:35
	movs	r0, #4
	.loc	7 2977 35                       @ libraries/STM32H7xx_HAL/STM32H7xx_HAL_Driver/Src/stm32h7xx_hal_uart.c:2977:35
	str.w	r0, [sp, #1104]                 @ 4-byte Spill
	b	.LBB2_413
.LBB2_388:
	ldr.w	r0, [sp, #1540]
	ldr	r0, [r0, #36]
	cmp	r0, #3
	bne	.LBB2_390
	b	.LBB2_389
.LBB2_389:
	.loc	7 0 35                          @ libraries/STM32H7xx_HAL/STM32H7xx_HAL_Driver/Src/stm32h7xx_hal_uart.c:0:35
	movs	r0, #6
	.loc	7 2977 35                       @ libraries/STM32H7xx_HAL/STM32H7xx_HAL_Driver/Src/stm32h7xx_hal_uart.c:2977:35
	str.w	r0, [sp, #1100]                 @ 4-byte Spill
	b	.LBB2_412
.LBB2_390:
	ldr.w	r0, [sp, #1540]
	ldr	r0, [r0, #36]
	cmp	r0, #4
	bne	.LBB2_392
	b	.LBB2_391
.LBB2_391:
	.loc	7 0 35                          @ libraries/STM32H7xx_HAL/STM32H7xx_HAL_Driver/Src/stm32h7xx_hal_uart.c:0:35
	movs	r0, #8
	.loc	7 2977 35                       @ libraries/STM32H7xx_HAL/STM32H7xx_HAL_Driver/Src/stm32h7xx_hal_uart.c:2977:35
	str.w	r0, [sp, #1096]                 @ 4-byte Spill
	b	.LBB2_411
.LBB2_392:
	ldr.w	r0, [sp, #1540]
	ldr	r0, [r0, #36]
	cmp	r0, #5
	bne	.LBB2_394
	b	.LBB2_393
.LBB2_393:
	.loc	7 0 35                          @ libraries/STM32H7xx_HAL/STM32H7xx_HAL_Driver/Src/stm32h7xx_hal_uart.c:0:35
	movs	r0, #10
	.loc	7 2977 35                       @ libraries/STM32H7xx_HAL/STM32H7xx_HAL_Driver/Src/stm32h7xx_hal_uart.c:2977:35
	str.w	r0, [sp, #1092]                 @ 4-byte Spill
	b	.LBB2_410
.LBB2_394:
	ldr.w	r0, [sp, #1540]
	ldr	r0, [r0, #36]
	cmp	r0, #6
	bne	.LBB2_396
	b	.LBB2_395
.LBB2_395:
	.loc	7 0 35                          @ libraries/STM32H7xx_HAL/STM32H7xx_HAL_Driver/Src/stm32h7xx_hal_uart.c:0:35
	movs	r0, #12
	.loc	7 2977 35                       @ libraries/STM32H7xx_HAL/STM32H7xx_HAL_Driver/Src/stm32h7xx_hal_uart.c:2977:35
	str.w	r0, [sp, #1088]                 @ 4-byte Spill
	b	.LBB2_409
.LBB2_396:
	ldr.w	r0, [sp, #1540]
	ldr	r0, [r0, #36]
	cmp	r0, #7
	bne	.LBB2_398
	b	.LBB2_397
.LBB2_397:
	.loc	7 0 35                          @ libraries/STM32H7xx_HAL/STM32H7xx_HAL_Driver/Src/stm32h7xx_hal_uart.c:0:35
	movs	r0, #16
	.loc	7 2977 35                       @ libraries/STM32H7xx_HAL/STM32H7xx_HAL_Driver/Src/stm32h7xx_hal_uart.c:2977:35
	str.w	r0, [sp, #1084]                 @ 4-byte Spill
	b	.LBB2_408
.LBB2_398:
	ldr.w	r0, [sp, #1540]
	ldr	r0, [r0, #36]
	cmp	r0, #8
	bne	.LBB2_400
	b	.LBB2_399
.LBB2_399:
	.loc	7 0 35                          @ libraries/STM32H7xx_HAL/STM32H7xx_HAL_Driver/Src/stm32h7xx_hal_uart.c:0:35
	movs	r0, #32
	.loc	7 2977 35                       @ libraries/STM32H7xx_HAL/STM32H7xx_HAL_Driver/Src/stm32h7xx_hal_uart.c:2977:35
	str.w	r0, [sp, #1080]                 @ 4-byte Spill
	b	.LBB2_407
.LBB2_400:
	ldr.w	r0, [sp, #1540]
	ldr	r0, [r0, #36]
	cmp	r0, #9
	bne	.LBB2_402
	b	.LBB2_401
.LBB2_401:
	.loc	7 0 35                          @ libraries/STM32H7xx_HAL/STM32H7xx_HAL_Driver/Src/stm32h7xx_hal_uart.c:0:35
	movs	r0, #64
	.loc	7 2977 35                       @ libraries/STM32H7xx_HAL/STM32H7xx_HAL_Driver/Src/stm32h7xx_hal_uart.c:2977:35
	str.w	r0, [sp, #1076]                 @ 4-byte Spill
	b	.LBB2_406
.LBB2_402:
	ldr.w	r0, [sp, #1540]
	ldr	r0, [r0, #36]
	cmp	r0, #10
	bne	.LBB2_404
	b	.LBB2_403
.LBB2_403:
	.loc	7 0 35                          @ libraries/STM32H7xx_HAL/STM32H7xx_HAL_Driver/Src/stm32h7xx_hal_uart.c:0:35
	movs	r0, #128
	.loc	7 2977 35                       @ libraries/STM32H7xx_HAL/STM32H7xx_HAL_Driver/Src/stm32h7xx_hal_uart.c:2977:35
	str.w	r0, [sp, #1072]                 @ 4-byte Spill
	b	.LBB2_405
.LBB2_404:
	ldr.w	r0, [sp, #1540]
	ldr	r1, [r0, #36]
	movs	r0, #1
	cmp	r1, #11
	it	eq
	moveq.w	r0, #256
	str.w	r0, [sp, #1072]                 @ 4-byte Spill
	b	.LBB2_405
.LBB2_405:
	ldr.w	r0, [sp, #1072]                 @ 4-byte Reload
	str.w	r0, [sp, #1076]                 @ 4-byte Spill
	b	.LBB2_406
.LBB2_406:
	ldr.w	r0, [sp, #1076]                 @ 4-byte Reload
	str.w	r0, [sp, #1080]                 @ 4-byte Spill
	b	.LBB2_407
.LBB2_407:
	ldr.w	r0, [sp, #1080]                 @ 4-byte Reload
	str.w	r0, [sp, #1084]                 @ 4-byte Spill
	b	.LBB2_408
.LBB2_408:
	ldr.w	r0, [sp, #1084]                 @ 4-byte Reload
	str.w	r0, [sp, #1088]                 @ 4-byte Spill
	b	.LBB2_409
.LBB2_409:
	ldr.w	r0, [sp, #1088]                 @ 4-byte Reload
	str.w	r0, [sp, #1092]                 @ 4-byte Spill
	b	.LBB2_410
.LBB2_410:
	ldr.w	r0, [sp, #1092]                 @ 4-byte Reload
	str.w	r0, [sp, #1096]                 @ 4-byte Spill
	b	.LBB2_411
.LBB2_411:
	ldr.w	r0, [sp, #1096]                 @ 4-byte Reload
	str.w	r0, [sp, #1100]                 @ 4-byte Spill
	b	.LBB2_412
.LBB2_412:
	ldr.w	r0, [sp, #1100]                 @ 4-byte Reload
	str.w	r0, [sp, #1104]                 @ 4-byte Spill
	b	.LBB2_413
.LBB2_413:
	ldr.w	r0, [sp, #1104]                 @ 4-byte Reload
	str.w	r0, [sp, #1108]                 @ 4-byte Spill
	b	.LBB2_414
.LBB2_414:
	ldr.w	r0, [sp, #1108]                 @ 4-byte Reload
	str.w	r0, [sp, #1112]                 @ 4-byte Spill
	b	.LBB2_415
.LBB2_415:
	ldr.w	r1, [sp, #1120]                 @ 4-byte Reload
	ldr.w	r0, [sp, #1116]                 @ 4-byte Reload
	ldr.w	r2, [sp, #1112]                 @ 4-byte Reload
	movs	r3, #0
	str.w	r3, [sp, #1068]                 @ 4-byte Spill
	bl	__aeabi_uldivmod
	ldr.w	r3, [sp, #1068]                 @ 4-byte Reload
	lsls	r1, r1, #8
	orr.w	r1, r1, r0, lsr #24
	lsls	r0, r0, #8
	ldr.w	r2, [sp, #1540]
	ldr	r2, [r2, #4]
	adds.w	r0, r0, r2, lsr #1
	adc	r1, r1, #0
	bl	__aeabi_uldivmod
	.loc	7 2977 22                       @ libraries/STM32H7xx_HAL/STM32H7xx_HAL_Driver/Src/stm32h7xx_hal_uart.c:2977:22
	str.w	r0, [sp, #1528]
	.loc	7 2978 13 is_stmt 1             @ libraries/STM32H7xx_HAL/STM32H7xx_HAL_Driver/Src/stm32h7xx_hal_uart.c:2978:13
	b.w	.LBB2_623
.LBB2_416:
	.loc	7 0 13 is_stmt 0                @ libraries/STM32H7xx_HAL/STM32H7xx_HAL_Driver/Src/stm32h7xx_hal_uart.c:0:13
	addw	r0, sp, #1508
	.loc	7 2980 13 is_stmt 1             @ libraries/STM32H7xx_HAL/STM32H7xx_HAL_Driver/Src/stm32h7xx_hal_uart.c:2980:13
	bl	HAL_RCCEx_GetPLL2ClockFreq
	.loc	7 2981 35                       @ libraries/STM32H7xx_HAL/STM32H7xx_HAL_Driver/Src/stm32h7xx_hal_uart.c:2981:35
	ldr.w	r0, [sp, #1512]
	str.w	r0, [sp, #1060]                 @ 4-byte Spill
	movs	r0, #0
	str.w	r0, [sp, #1064]                 @ 4-byte Spill
	ldr.w	r0, [sp, #1540]
	ldr	r0, [r0, #36]
	cbnz	r0, .LBB2_418
	b	.LBB2_417
.LBB2_417:
	.loc	7 0 35 is_stmt 0                @ libraries/STM32H7xx_HAL/STM32H7xx_HAL_Driver/Src/stm32h7xx_hal_uart.c:0:35
	movs	r0, #1
	.loc	7 2981 35                       @ libraries/STM32H7xx_HAL/STM32H7xx_HAL_Driver/Src/stm32h7xx_hal_uart.c:2981:35
	str.w	r0, [sp, #1056]                 @ 4-byte Spill
	b	.LBB2_449
.LBB2_418:
	ldr.w	r0, [sp, #1540]
	ldr	r0, [r0, #36]
	cmp	r0, #1
	bne	.LBB2_420
	b	.LBB2_419
.LBB2_419:
	.loc	7 0 35                          @ libraries/STM32H7xx_HAL/STM32H7xx_HAL_Driver/Src/stm32h7xx_hal_uart.c:0:35
	movs	r0, #2
	.loc	7 2981 35                       @ libraries/STM32H7xx_HAL/STM32H7xx_HAL_Driver/Src/stm32h7xx_hal_uart.c:2981:35
	str.w	r0, [sp, #1052]                 @ 4-byte Spill
	b	.LBB2_448
.LBB2_420:
	ldr.w	r0, [sp, #1540]
	ldr	r0, [r0, #36]
	cmp	r0, #2
	bne	.LBB2_422
	b	.LBB2_421
.LBB2_421:
	.loc	7 0 35                          @ libraries/STM32H7xx_HAL/STM32H7xx_HAL_Driver/Src/stm32h7xx_hal_uart.c:0:35
	movs	r0, #4
	.loc	7 2981 35                       @ libraries/STM32H7xx_HAL/STM32H7xx_HAL_Driver/Src/stm32h7xx_hal_uart.c:2981:35
	str.w	r0, [sp, #1048]                 @ 4-byte Spill
	b	.LBB2_447
.LBB2_422:
	ldr.w	r0, [sp, #1540]
	ldr	r0, [r0, #36]
	cmp	r0, #3
	bne	.LBB2_424
	b	.LBB2_423
.LBB2_423:
	.loc	7 0 35                          @ libraries/STM32H7xx_HAL/STM32H7xx_HAL_Driver/Src/stm32h7xx_hal_uart.c:0:35
	movs	r0, #6
	.loc	7 2981 35                       @ libraries/STM32H7xx_HAL/STM32H7xx_HAL_Driver/Src/stm32h7xx_hal_uart.c:2981:35
	str.w	r0, [sp, #1044]                 @ 4-byte Spill
	b	.LBB2_446
.LBB2_424:
	ldr.w	r0, [sp, #1540]
	ldr	r0, [r0, #36]
	cmp	r0, #4
	bne	.LBB2_426
	b	.LBB2_425
.LBB2_425:
	.loc	7 0 35                          @ libraries/STM32H7xx_HAL/STM32H7xx_HAL_Driver/Src/stm32h7xx_hal_uart.c:0:35
	movs	r0, #8
	.loc	7 2981 35                       @ libraries/STM32H7xx_HAL/STM32H7xx_HAL_Driver/Src/stm32h7xx_hal_uart.c:2981:35
	str.w	r0, [sp, #1040]                 @ 4-byte Spill
	b	.LBB2_445
.LBB2_426:
	ldr.w	r0, [sp, #1540]
	ldr	r0, [r0, #36]
	cmp	r0, #5
	bne	.LBB2_428
	b	.LBB2_427
.LBB2_427:
	.loc	7 0 35                          @ libraries/STM32H7xx_HAL/STM32H7xx_HAL_Driver/Src/stm32h7xx_hal_uart.c:0:35
	movs	r0, #10
	.loc	7 2981 35                       @ libraries/STM32H7xx_HAL/STM32H7xx_HAL_Driver/Src/stm32h7xx_hal_uart.c:2981:35
	str.w	r0, [sp, #1036]                 @ 4-byte Spill
	b	.LBB2_444
.LBB2_428:
	ldr.w	r0, [sp, #1540]
	ldr	r0, [r0, #36]
	cmp	r0, #6
	bne	.LBB2_430
	b	.LBB2_429
.LBB2_429:
	.loc	7 0 35                          @ libraries/STM32H7xx_HAL/STM32H7xx_HAL_Driver/Src/stm32h7xx_hal_uart.c:0:35
	movs	r0, #12
	.loc	7 2981 35                       @ libraries/STM32H7xx_HAL/STM32H7xx_HAL_Driver/Src/stm32h7xx_hal_uart.c:2981:35
	str.w	r0, [sp, #1032]                 @ 4-byte Spill
	b	.LBB2_443
.LBB2_430:
	ldr.w	r0, [sp, #1540]
	ldr	r0, [r0, #36]
	cmp	r0, #7
	bne	.LBB2_432
	b	.LBB2_431
.LBB2_431:
	.loc	7 0 35                          @ libraries/STM32H7xx_HAL/STM32H7xx_HAL_Driver/Src/stm32h7xx_hal_uart.c:0:35
	movs	r0, #16
	.loc	7 2981 35                       @ libraries/STM32H7xx_HAL/STM32H7xx_HAL_Driver/Src/stm32h7xx_hal_uart.c:2981:35
	str.w	r0, [sp, #1028]                 @ 4-byte Spill
	b	.LBB2_442
.LBB2_432:
	ldr.w	r0, [sp, #1540]
	ldr	r0, [r0, #36]
	cmp	r0, #8
	bne	.LBB2_434
	b	.LBB2_433
.LBB2_433:
	.loc	7 0 35                          @ libraries/STM32H7xx_HAL/STM32H7xx_HAL_Driver/Src/stm32h7xx_hal_uart.c:0:35
	movs	r0, #32
	.loc	7 2981 35                       @ libraries/STM32H7xx_HAL/STM32H7xx_HAL_Driver/Src/stm32h7xx_hal_uart.c:2981:35
	str.w	r0, [sp, #1024]                 @ 4-byte Spill
	b	.LBB2_441
.LBB2_434:
	ldr.w	r0, [sp, #1540]
	ldr	r0, [r0, #36]
	cmp	r0, #9
	bne	.LBB2_436
	b	.LBB2_435
.LBB2_435:
	.loc	7 0 35                          @ libraries/STM32H7xx_HAL/STM32H7xx_HAL_Driver/Src/stm32h7xx_hal_uart.c:0:35
	movs	r0, #64
	.loc	7 2981 35                       @ libraries/STM32H7xx_HAL/STM32H7xx_HAL_Driver/Src/stm32h7xx_hal_uart.c:2981:35
	str	r0, [sp, #1020]                 @ 4-byte Spill
	b	.LBB2_440
.LBB2_436:
	ldr.w	r0, [sp, #1540]
	ldr	r0, [r0, #36]
	cmp	r0, #10
	bne	.LBB2_438
	b	.LBB2_437
.LBB2_437:
	.loc	7 0 35                          @ libraries/STM32H7xx_HAL/STM32H7xx_HAL_Driver/Src/stm32h7xx_hal_uart.c:0:35
	movs	r0, #128
	.loc	7 2981 35                       @ libraries/STM32H7xx_HAL/STM32H7xx_HAL_Driver/Src/stm32h7xx_hal_uart.c:2981:35
	str	r0, [sp, #1016]                 @ 4-byte Spill
	b	.LBB2_439
.LBB2_438:
	ldr.w	r0, [sp, #1540]
	ldr	r1, [r0, #36]
	movs	r0, #1
	cmp	r1, #11
	it	eq
	moveq.w	r0, #256
	str	r0, [sp, #1016]                 @ 4-byte Spill
	b	.LBB2_439
.LBB2_439:
	ldr	r0, [sp, #1016]                 @ 4-byte Reload
	str	r0, [sp, #1020]                 @ 4-byte Spill
	b	.LBB2_440
.LBB2_440:
	ldr	r0, [sp, #1020]                 @ 4-byte Reload
	str.w	r0, [sp, #1024]                 @ 4-byte Spill
	b	.LBB2_441
.LBB2_441:
	ldr.w	r0, [sp, #1024]                 @ 4-byte Reload
	str.w	r0, [sp, #1028]                 @ 4-byte Spill
	b	.LBB2_442
.LBB2_442:
	ldr.w	r0, [sp, #1028]                 @ 4-byte Reload
	str.w	r0, [sp, #1032]                 @ 4-byte Spill
	b	.LBB2_443
.LBB2_443:
	ldr.w	r0, [sp, #1032]                 @ 4-byte Reload
	str.w	r0, [sp, #1036]                 @ 4-byte Spill
	b	.LBB2_444
.LBB2_444:
	ldr.w	r0, [sp, #1036]                 @ 4-byte Reload
	str.w	r0, [sp, #1040]                 @ 4-byte Spill
	b	.LBB2_445
.LBB2_445:
	ldr.w	r0, [sp, #1040]                 @ 4-byte Reload
	str.w	r0, [sp, #1044]                 @ 4-byte Spill
	b	.LBB2_446
.LBB2_446:
	ldr.w	r0, [sp, #1044]                 @ 4-byte Reload
	str.w	r0, [sp, #1048]                 @ 4-byte Spill
	b	.LBB2_447
.LBB2_447:
	ldr.w	r0, [sp, #1048]                 @ 4-byte Reload
	str.w	r0, [sp, #1052]                 @ 4-byte Spill
	b	.LBB2_448
.LBB2_448:
	ldr.w	r0, [sp, #1052]                 @ 4-byte Reload
	str.w	r0, [sp, #1056]                 @ 4-byte Spill
	b	.LBB2_449
.LBB2_449:
	ldr.w	r1, [sp, #1064]                 @ 4-byte Reload
	ldr.w	r0, [sp, #1060]                 @ 4-byte Reload
	ldr.w	r2, [sp, #1056]                 @ 4-byte Reload
	movs	r3, #0
	str	r3, [sp, #1012]                 @ 4-byte Spill
	bl	__aeabi_uldivmod
	ldr	r3, [sp, #1012]                 @ 4-byte Reload
	lsls	r1, r1, #8
	orr.w	r1, r1, r0, lsr #24
	lsls	r0, r0, #8
	ldr.w	r2, [sp, #1540]
	ldr	r2, [r2, #4]
	adds.w	r0, r0, r2, lsr #1
	adc	r1, r1, #0
	bl	__aeabi_uldivmod
	.loc	7 2981 22                       @ libraries/STM32H7xx_HAL/STM32H7xx_HAL_Driver/Src/stm32h7xx_hal_uart.c:2981:22
	str.w	r0, [sp, #1528]
	.loc	7 2982 13 is_stmt 1             @ libraries/STM32H7xx_HAL/STM32H7xx_HAL_Driver/Src/stm32h7xx_hal_uart.c:2982:13
	b	.LBB2_623
.LBB2_450:
	.loc	7 0 13 is_stmt 0                @ libraries/STM32H7xx_HAL/STM32H7xx_HAL_Driver/Src/stm32h7xx_hal_uart.c:0:13
	add.w	r0, sp, #1496
	.loc	7 2984 13 is_stmt 1             @ libraries/STM32H7xx_HAL/STM32H7xx_HAL_Driver/Src/stm32h7xx_hal_uart.c:2984:13
	bl	HAL_RCCEx_GetPLL3ClockFreq
	.loc	7 2985 35                       @ libraries/STM32H7xx_HAL/STM32H7xx_HAL_Driver/Src/stm32h7xx_hal_uart.c:2985:35
	ldr.w	r0, [sp, #1500]
	str	r0, [sp, #1004]                 @ 4-byte Spill
	movs	r0, #0
	str	r0, [sp, #1008]                 @ 4-byte Spill
	ldr.w	r0, [sp, #1540]
	ldr	r0, [r0, #36]
	cbnz	r0, .LBB2_452
	b	.LBB2_451
.LBB2_451:
	.loc	7 0 35 is_stmt 0                @ libraries/STM32H7xx_HAL/STM32H7xx_HAL_Driver/Src/stm32h7xx_hal_uart.c:0:35
	movs	r0, #1
	.loc	7 2985 35                       @ libraries/STM32H7xx_HAL/STM32H7xx_HAL_Driver/Src/stm32h7xx_hal_uart.c:2985:35
	str	r0, [sp, #1000]                 @ 4-byte Spill
	b	.LBB2_483
.LBB2_452:
	ldr.w	r0, [sp, #1540]
	ldr	r0, [r0, #36]
	cmp	r0, #1
	bne	.LBB2_454
	b	.LBB2_453
.LBB2_453:
	.loc	7 0 35                          @ libraries/STM32H7xx_HAL/STM32H7xx_HAL_Driver/Src/stm32h7xx_hal_uart.c:0:35
	movs	r0, #2
	.loc	7 2985 35                       @ libraries/STM32H7xx_HAL/STM32H7xx_HAL_Driver/Src/stm32h7xx_hal_uart.c:2985:35
	str	r0, [sp, #996]                  @ 4-byte Spill
	b	.LBB2_482
.LBB2_454:
	ldr.w	r0, [sp, #1540]
	ldr	r0, [r0, #36]
	cmp	r0, #2
	bne	.LBB2_456
	b	.LBB2_455
.LBB2_455:
	.loc	7 0 35                          @ libraries/STM32H7xx_HAL/STM32H7xx_HAL_Driver/Src/stm32h7xx_hal_uart.c:0:35
	movs	r0, #4
	.loc	7 2985 35                       @ libraries/STM32H7xx_HAL/STM32H7xx_HAL_Driver/Src/stm32h7xx_hal_uart.c:2985:35
	str	r0, [sp, #992]                  @ 4-byte Spill
	b	.LBB2_481
.LBB2_456:
	ldr.w	r0, [sp, #1540]
	ldr	r0, [r0, #36]
	cmp	r0, #3
	bne	.LBB2_458
	b	.LBB2_457
.LBB2_457:
	.loc	7 0 35                          @ libraries/STM32H7xx_HAL/STM32H7xx_HAL_Driver/Src/stm32h7xx_hal_uart.c:0:35
	movs	r0, #6
	.loc	7 2985 35                       @ libraries/STM32H7xx_HAL/STM32H7xx_HAL_Driver/Src/stm32h7xx_hal_uart.c:2985:35
	str	r0, [sp, #988]                  @ 4-byte Spill
	b	.LBB2_480
.LBB2_458:
	ldr.w	r0, [sp, #1540]
	ldr	r0, [r0, #36]
	cmp	r0, #4
	bne	.LBB2_460
	b	.LBB2_459
.LBB2_459:
	.loc	7 0 35                          @ libraries/STM32H7xx_HAL/STM32H7xx_HAL_Driver/Src/stm32h7xx_hal_uart.c:0:35
	movs	r0, #8
	.loc	7 2985 35                       @ libraries/STM32H7xx_HAL/STM32H7xx_HAL_Driver/Src/stm32h7xx_hal_uart.c:2985:35
	str	r0, [sp, #984]                  @ 4-byte Spill
	b	.LBB2_479
.LBB2_460:
	ldr.w	r0, [sp, #1540]
	ldr	r0, [r0, #36]
	cmp	r0, #5
	bne	.LBB2_462
	b	.LBB2_461
.LBB2_461:
	.loc	7 0 35                          @ libraries/STM32H7xx_HAL/STM32H7xx_HAL_Driver/Src/stm32h7xx_hal_uart.c:0:35
	movs	r0, #10
	.loc	7 2985 35                       @ libraries/STM32H7xx_HAL/STM32H7xx_HAL_Driver/Src/stm32h7xx_hal_uart.c:2985:35
	str	r0, [sp, #980]                  @ 4-byte Spill
	b	.LBB2_478
.LBB2_462:
	ldr.w	r0, [sp, #1540]
	ldr	r0, [r0, #36]
	cmp	r0, #6
	bne	.LBB2_464
	b	.LBB2_463
.LBB2_463:
	.loc	7 0 35                          @ libraries/STM32H7xx_HAL/STM32H7xx_HAL_Driver/Src/stm32h7xx_hal_uart.c:0:35
	movs	r0, #12
	.loc	7 2985 35                       @ libraries/STM32H7xx_HAL/STM32H7xx_HAL_Driver/Src/stm32h7xx_hal_uart.c:2985:35
	str	r0, [sp, #976]                  @ 4-byte Spill
	b	.LBB2_477
.LBB2_464:
	ldr.w	r0, [sp, #1540]
	ldr	r0, [r0, #36]
	cmp	r0, #7
	bne	.LBB2_466
	b	.LBB2_465
.LBB2_465:
	.loc	7 0 35                          @ libraries/STM32H7xx_HAL/STM32H7xx_HAL_Driver/Src/stm32h7xx_hal_uart.c:0:35
	movs	r0, #16
	.loc	7 2985 35                       @ libraries/STM32H7xx_HAL/STM32H7xx_HAL_Driver/Src/stm32h7xx_hal_uart.c:2985:35
	str	r0, [sp, #972]                  @ 4-byte Spill
	b	.LBB2_476
.LBB2_466:
	ldr.w	r0, [sp, #1540]
	ldr	r0, [r0, #36]
	cmp	r0, #8
	bne	.LBB2_468
	b	.LBB2_467
.LBB2_467:
	.loc	7 0 35                          @ libraries/STM32H7xx_HAL/STM32H7xx_HAL_Driver/Src/stm32h7xx_hal_uart.c:0:35
	movs	r0, #32
	.loc	7 2985 35                       @ libraries/STM32H7xx_HAL/STM32H7xx_HAL_Driver/Src/stm32h7xx_hal_uart.c:2985:35
	str	r0, [sp, #968]                  @ 4-byte Spill
	b	.LBB2_475
.LBB2_468:
	ldr.w	r0, [sp, #1540]
	ldr	r0, [r0, #36]
	cmp	r0, #9
	bne	.LBB2_470
	b	.LBB2_469
.LBB2_469:
	.loc	7 0 35                          @ libraries/STM32H7xx_HAL/STM32H7xx_HAL_Driver/Src/stm32h7xx_hal_uart.c:0:35
	movs	r0, #64
	.loc	7 2985 35                       @ libraries/STM32H7xx_HAL/STM32H7xx_HAL_Driver/Src/stm32h7xx_hal_uart.c:2985:35
	str	r0, [sp, #964]                  @ 4-byte Spill
	b	.LBB2_474
.LBB2_470:
	ldr.w	r0, [sp, #1540]
	ldr	r0, [r0, #36]
	cmp	r0, #10
	bne	.LBB2_472
	b	.LBB2_471
.LBB2_471:
	.loc	7 0 35                          @ libraries/STM32H7xx_HAL/STM32H7xx_HAL_Driver/Src/stm32h7xx_hal_uart.c:0:35
	movs	r0, #128
	.loc	7 2985 35                       @ libraries/STM32H7xx_HAL/STM32H7xx_HAL_Driver/Src/stm32h7xx_hal_uart.c:2985:35
	str	r0, [sp, #960]                  @ 4-byte Spill
	b	.LBB2_473
.LBB2_472:
	ldr.w	r0, [sp, #1540]
	ldr	r1, [r0, #36]
	movs	r0, #1
	cmp	r1, #11
	it	eq
	moveq.w	r0, #256
	str	r0, [sp, #960]                  @ 4-byte Spill
	b	.LBB2_473
.LBB2_473:
	ldr	r0, [sp, #960]                  @ 4-byte Reload
	str	r0, [sp, #964]                  @ 4-byte Spill
	b	.LBB2_474
.LBB2_474:
	ldr	r0, [sp, #964]                  @ 4-byte Reload
	str	r0, [sp, #968]                  @ 4-byte Spill
	b	.LBB2_475
.LBB2_475:
	ldr	r0, [sp, #968]                  @ 4-byte Reload
	str	r0, [sp, #972]                  @ 4-byte Spill
	b	.LBB2_476
.LBB2_476:
	ldr	r0, [sp, #972]                  @ 4-byte Reload
	str	r0, [sp, #976]                  @ 4-byte Spill
	b	.LBB2_477
.LBB2_477:
	ldr	r0, [sp, #976]                  @ 4-byte Reload
	str	r0, [sp, #980]                  @ 4-byte Spill
	b	.LBB2_478
.LBB2_478:
	ldr	r0, [sp, #980]                  @ 4-byte Reload
	str	r0, [sp, #984]                  @ 4-byte Spill
	b	.LBB2_479
.LBB2_479:
	ldr	r0, [sp, #984]                  @ 4-byte Reload
	str	r0, [sp, #988]                  @ 4-byte Spill
	b	.LBB2_480
.LBB2_480:
	ldr	r0, [sp, #988]                  @ 4-byte Reload
	str	r0, [sp, #992]                  @ 4-byte Spill
	b	.LBB2_481
.LBB2_481:
	ldr	r0, [sp, #992]                  @ 4-byte Reload
	str	r0, [sp, #996]                  @ 4-byte Spill
	b	.LBB2_482
.LBB2_482:
	ldr	r0, [sp, #996]                  @ 4-byte Reload
	str	r0, [sp, #1000]                 @ 4-byte Spill
	b	.LBB2_483
.LBB2_483:
	ldr	r1, [sp, #1008]                 @ 4-byte Reload
	ldr	r0, [sp, #1004]                 @ 4-byte Reload
	ldr	r2, [sp, #1000]                 @ 4-byte Reload
	movs	r3, #0
	str	r3, [sp, #956]                  @ 4-byte Spill
	bl	__aeabi_uldivmod
	ldr	r3, [sp, #956]                  @ 4-byte Reload
	lsls	r1, r1, #8
	orr.w	r1, r1, r0, lsr #24
	lsls	r0, r0, #8
	ldr.w	r2, [sp, #1540]
	ldr	r2, [r2, #4]
	adds.w	r0, r0, r2, lsr #1
	adc	r1, r1, #0
	bl	__aeabi_uldivmod
	.loc	7 2985 22                       @ libraries/STM32H7xx_HAL/STM32H7xx_HAL_Driver/Src/stm32h7xx_hal_uart.c:2985:22
	str.w	r0, [sp, #1528]
	.loc	7 2986 13 is_stmt 1             @ libraries/STM32H7xx_HAL/STM32H7xx_HAL_Driver/Src/stm32h7xx_hal_uart.c:2986:13
	b	.LBB2_623
.LBB2_484:
	.loc	7 0 13 is_stmt 0                @ libraries/STM32H7xx_HAL/STM32H7xx_HAL_Driver/Src/stm32h7xx_hal_uart.c:0:13
	movw	r0, #17408
	movt	r0, #22530
.Ltmp94:
	.loc	7 2988 17 is_stmt 1             @ libraries/STM32H7xx_HAL/STM32H7xx_HAL_Driver/Src/stm32h7xx_hal_uart.c:2988:17
	ldr	r0, [r0]
	and	r1, r0, #32
	movs	r0, #0
.Ltmp95:
	.loc	7 2988 17 is_stmt 0             @ libraries/STM32H7xx_HAL/STM32H7xx_HAL_Driver/Src/stm32h7xx_hal_uart.c:2988:17
	cmp.w	r0, r1, lsr #5
	beq.w	.LBB2_519
	b	.LBB2_485
.LBB2_485:
	.loc	7 0 17                          @ libraries/STM32H7xx_HAL/STM32H7xx_HAL_Driver/Src/stm32h7xx_hal_uart.c:0:17
	movw	r0, #17408
	movt	r0, #22530
.Ltmp96:
	.loc	7 2990 37 is_stmt 1             @ libraries/STM32H7xx_HAL/STM32H7xx_HAL_Driver/Src/stm32h7xx_hal_uart.c:2990:37
	ldr	r0, [r0]
	ubfx	r1, r0, #3, #2
	movw	r0, #36864
	movt	r0, #976
	lsrs	r0, r1
	movs	r1, #0
	str	r1, [sp, #948]                  @ 4-byte Spill
	str	r0, [sp, #952]                  @ 4-byte Spill
	ldr.w	r0, [sp, #1540]
	ldr	r0, [r0, #36]
	cbnz	r0, .LBB2_487
	b	.LBB2_486
.LBB2_486:
	.loc	7 0 37 is_stmt 0                @ libraries/STM32H7xx_HAL/STM32H7xx_HAL_Driver/Src/stm32h7xx_hal_uart.c:0:37
	movs	r0, #1
	.loc	7 2990 37                       @ libraries/STM32H7xx_HAL/STM32H7xx_HAL_Driver/Src/stm32h7xx_hal_uart.c:2990:37
	str	r0, [sp, #944]                  @ 4-byte Spill
	b	.LBB2_518
.LBB2_487:
	ldr.w	r0, [sp, #1540]
	ldr	r0, [r0, #36]
	cmp	r0, #1
	bne	.LBB2_489
	b	.LBB2_488
.LBB2_488:
	.loc	7 0 37                          @ libraries/STM32H7xx_HAL/STM32H7xx_HAL_Driver/Src/stm32h7xx_hal_uart.c:0:37
	movs	r0, #2
	.loc	7 2990 37                       @ libraries/STM32H7xx_HAL/STM32H7xx_HAL_Driver/Src/stm32h7xx_hal_uart.c:2990:37
	str	r0, [sp, #940]                  @ 4-byte Spill
	b	.LBB2_517
.LBB2_489:
	ldr.w	r0, [sp, #1540]
	ldr	r0, [r0, #36]
	cmp	r0, #2
	bne	.LBB2_491
	b	.LBB2_490
.LBB2_490:
	.loc	7 0 37                          @ libraries/STM32H7xx_HAL/STM32H7xx_HAL_Driver/Src/stm32h7xx_hal_uart.c:0:37
	movs	r0, #4
	.loc	7 2990 37                       @ libraries/STM32H7xx_HAL/STM32H7xx_HAL_Driver/Src/stm32h7xx_hal_uart.c:2990:37
	str	r0, [sp, #936]                  @ 4-byte Spill
	b	.LBB2_516
.LBB2_491:
	ldr.w	r0, [sp, #1540]
	ldr	r0, [r0, #36]
	cmp	r0, #3
	bne	.LBB2_493
	b	.LBB2_492
.LBB2_492:
	.loc	7 0 37                          @ libraries/STM32H7xx_HAL/STM32H7xx_HAL_Driver/Src/stm32h7xx_hal_uart.c:0:37
	movs	r0, #6
	.loc	7 2990 37                       @ libraries/STM32H7xx_HAL/STM32H7xx_HAL_Driver/Src/stm32h7xx_hal_uart.c:2990:37
	str	r0, [sp, #932]                  @ 4-byte Spill
	b	.LBB2_515
.LBB2_493:
	ldr.w	r0, [sp, #1540]
	ldr	r0, [r0, #36]
	cmp	r0, #4
	bne	.LBB2_495
	b	.LBB2_494
.LBB2_494:
	.loc	7 0 37                          @ libraries/STM32H7xx_HAL/STM32H7xx_HAL_Driver/Src/stm32h7xx_hal_uart.c:0:37
	movs	r0, #8
	.loc	7 2990 37                       @ libraries/STM32H7xx_HAL/STM32H7xx_HAL_Driver/Src/stm32h7xx_hal_uart.c:2990:37
	str	r0, [sp, #928]                  @ 4-byte Spill
	b	.LBB2_514
.LBB2_495:
	ldr.w	r0, [sp, #1540]
	ldr	r0, [r0, #36]
	cmp	r0, #5
	bne	.LBB2_497
	b	.LBB2_496
.LBB2_496:
	.loc	7 0 37                          @ libraries/STM32H7xx_HAL/STM32H7xx_HAL_Driver/Src/stm32h7xx_hal_uart.c:0:37
	movs	r0, #10
	.loc	7 2990 37                       @ libraries/STM32H7xx_HAL/STM32H7xx_HAL_Driver/Src/stm32h7xx_hal_uart.c:2990:37
	str	r0, [sp, #924]                  @ 4-byte Spill
	b	.LBB2_513
.LBB2_497:
	ldr.w	r0, [sp, #1540]
	ldr	r0, [r0, #36]
	cmp	r0, #6
	bne	.LBB2_499
	b	.LBB2_498
.LBB2_498:
	.loc	7 0 37                          @ libraries/STM32H7xx_HAL/STM32H7xx_HAL_Driver/Src/stm32h7xx_hal_uart.c:0:37
	movs	r0, #12
	.loc	7 2990 37                       @ libraries/STM32H7xx_HAL/STM32H7xx_HAL_Driver/Src/stm32h7xx_hal_uart.c:2990:37
	str	r0, [sp, #920]                  @ 4-byte Spill
	b	.LBB2_512
.LBB2_499:
	ldr.w	r0, [sp, #1540]
	ldr	r0, [r0, #36]
	cmp	r0, #7
	bne	.LBB2_501
	b	.LBB2_500
.LBB2_500:
	.loc	7 0 37                          @ libraries/STM32H7xx_HAL/STM32H7xx_HAL_Driver/Src/stm32h7xx_hal_uart.c:0:37
	movs	r0, #16
	.loc	7 2990 37                       @ libraries/STM32H7xx_HAL/STM32H7xx_HAL_Driver/Src/stm32h7xx_hal_uart.c:2990:37
	str	r0, [sp, #916]                  @ 4-byte Spill
	b	.LBB2_511
.LBB2_501:
	ldr.w	r0, [sp, #1540]
	ldr	r0, [r0, #36]
	cmp	r0, #8
	bne	.LBB2_503
	b	.LBB2_502
.LBB2_502:
	.loc	7 0 37                          @ libraries/STM32H7xx_HAL/STM32H7xx_HAL_Driver/Src/stm32h7xx_hal_uart.c:0:37
	movs	r0, #32
	.loc	7 2990 37                       @ libraries/STM32H7xx_HAL/STM32H7xx_HAL_Driver/Src/stm32h7xx_hal_uart.c:2990:37
	str	r0, [sp, #912]                  @ 4-byte Spill
	b	.LBB2_510
.LBB2_503:
	ldr.w	r0, [sp, #1540]
	ldr	r0, [r0, #36]
	cmp	r0, #9
	bne	.LBB2_505
	b	.LBB2_504
.LBB2_504:
	.loc	7 0 37                          @ libraries/STM32H7xx_HAL/STM32H7xx_HAL_Driver/Src/stm32h7xx_hal_uart.c:0:37
	movs	r0, #64
	.loc	7 2990 37                       @ libraries/STM32H7xx_HAL/STM32H7xx_HAL_Driver/Src/stm32h7xx_hal_uart.c:2990:37
	str	r0, [sp, #908]                  @ 4-byte Spill
	b	.LBB2_509
.LBB2_505:
	ldr.w	r0, [sp, #1540]
	ldr	r0, [r0, #36]
	cmp	r0, #10
	bne	.LBB2_507
	b	.LBB2_506
.LBB2_506:
	.loc	7 0 37                          @ libraries/STM32H7xx_HAL/STM32H7xx_HAL_Driver/Src/stm32h7xx_hal_uart.c:0:37
	movs	r0, #128
	.loc	7 2990 37                       @ libraries/STM32H7xx_HAL/STM32H7xx_HAL_Driver/Src/stm32h7xx_hal_uart.c:2990:37
	str	r0, [sp, #904]                  @ 4-byte Spill
	b	.LBB2_508
.LBB2_507:
	ldr.w	r0, [sp, #1540]
	ldr	r1, [r0, #36]
	movs	r0, #1
	cmp	r1, #11
	it	eq
	moveq.w	r0, #256
	str	r0, [sp, #904]                  @ 4-byte Spill
	b	.LBB2_508
.LBB2_508:
	ldr	r0, [sp, #904]                  @ 4-byte Reload
	str	r0, [sp, #908]                  @ 4-byte Spill
	b	.LBB2_509
.LBB2_509:
	ldr	r0, [sp, #908]                  @ 4-byte Reload
	str	r0, [sp, #912]                  @ 4-byte Spill
	b	.LBB2_510
.LBB2_510:
	ldr	r0, [sp, #912]                  @ 4-byte Reload
	str	r0, [sp, #916]                  @ 4-byte Spill
	b	.LBB2_511
.LBB2_511:
	ldr	r0, [sp, #916]                  @ 4-byte Reload
	str	r0, [sp, #920]                  @ 4-byte Spill
	b	.LBB2_512
.LBB2_512:
	ldr	r0, [sp, #920]                  @ 4-byte Reload
	str	r0, [sp, #924]                  @ 4-byte Spill
	b	.LBB2_513
.LBB2_513:
	ldr	r0, [sp, #924]                  @ 4-byte Reload
	str	r0, [sp, #928]                  @ 4-byte Spill
	b	.LBB2_514
.LBB2_514:
	ldr	r0, [sp, #928]                  @ 4-byte Reload
	str	r0, [sp, #932]                  @ 4-byte Spill
	b	.LBB2_515
.LBB2_515:
	ldr	r0, [sp, #932]                  @ 4-byte Reload
	str	r0, [sp, #936]                  @ 4-byte Spill
	b	.LBB2_516
.LBB2_516:
	ldr	r0, [sp, #936]                  @ 4-byte Reload
	str	r0, [sp, #940]                  @ 4-byte Spill
	b	.LBB2_517
.LBB2_517:
	ldr	r0, [sp, #940]                  @ 4-byte Reload
	str	r0, [sp, #944]                  @ 4-byte Spill
	b	.LBB2_518
.LBB2_518:
	ldr	r1, [sp, #948]                  @ 4-byte Reload
	ldr	r0, [sp, #952]                  @ 4-byte Reload
	ldr	r2, [sp, #944]                  @ 4-byte Reload
	movs	r3, #0
	str	r3, [sp, #900]                  @ 4-byte Spill
	bl	__aeabi_uldivmod
	ldr	r3, [sp, #900]                  @ 4-byte Reload
	lsls	r1, r1, #8
	orr.w	r1, r1, r0, lsr #24
	lsls	r0, r0, #8
	ldr.w	r2, [sp, #1540]
	ldr	r2, [r2, #4]
	adds.w	r0, r0, r2, lsr #1
	adc	r1, r1, #0
	bl	__aeabi_uldivmod
	.loc	7 2990 24                       @ libraries/STM32H7xx_HAL/STM32H7xx_HAL_Driver/Src/stm32h7xx_hal_uart.c:2990:24
	str.w	r0, [sp, #1528]
	.loc	7 2991 13 is_stmt 1             @ libraries/STM32H7xx_HAL/STM32H7xx_HAL_Driver/Src/stm32h7xx_hal_uart.c:2991:13
	b	.LBB2_553
.Ltmp97:
.LBB2_519:
	.loc	7 2994 37                       @ libraries/STM32H7xx_HAL/STM32H7xx_HAL_Driver/Src/stm32h7xx_hal_uart.c:2994:37
	ldr.w	r0, [sp, #1540]
	ldr	r0, [r0, #36]
	cbnz	r0, .LBB2_521
	b	.LBB2_520
.LBB2_520:
	.loc	7 0 37 is_stmt 0                @ libraries/STM32H7xx_HAL/STM32H7xx_HAL_Driver/Src/stm32h7xx_hal_uart.c:0:37
	movs	r0, #1
	.loc	7 2994 37                       @ libraries/STM32H7xx_HAL/STM32H7xx_HAL_Driver/Src/stm32h7xx_hal_uart.c:2994:37
	str	r0, [sp, #896]                  @ 4-byte Spill
	b	.LBB2_552
.LBB2_521:
	ldr.w	r0, [sp, #1540]
	ldr	r0, [r0, #36]
	cmp	r0, #1
	bne	.LBB2_523
	b	.LBB2_522
.LBB2_522:
	.loc	7 0 37                          @ libraries/STM32H7xx_HAL/STM32H7xx_HAL_Driver/Src/stm32h7xx_hal_uart.c:0:37
	movs	r0, #2
	.loc	7 2994 37                       @ libraries/STM32H7xx_HAL/STM32H7xx_HAL_Driver/Src/stm32h7xx_hal_uart.c:2994:37
	str	r0, [sp, #892]                  @ 4-byte Spill
	b	.LBB2_551
.LBB2_523:
	ldr.w	r0, [sp, #1540]
	ldr	r0, [r0, #36]
	cmp	r0, #2
	bne	.LBB2_525
	b	.LBB2_524
.LBB2_524:
	.loc	7 0 37                          @ libraries/STM32H7xx_HAL/STM32H7xx_HAL_Driver/Src/stm32h7xx_hal_uart.c:0:37
	movs	r0, #4
	.loc	7 2994 37                       @ libraries/STM32H7xx_HAL/STM32H7xx_HAL_Driver/Src/stm32h7xx_hal_uart.c:2994:37
	str	r0, [sp, #888]                  @ 4-byte Spill
	b	.LBB2_550
.LBB2_525:
	ldr.w	r0, [sp, #1540]
	ldr	r0, [r0, #36]
	cmp	r0, #3
	bne	.LBB2_527
	b	.LBB2_526
.LBB2_526:
	.loc	7 0 37                          @ libraries/STM32H7xx_HAL/STM32H7xx_HAL_Driver/Src/stm32h7xx_hal_uart.c:0:37
	movs	r0, #6
	.loc	7 2994 37                       @ libraries/STM32H7xx_HAL/STM32H7xx_HAL_Driver/Src/stm32h7xx_hal_uart.c:2994:37
	str	r0, [sp, #884]                  @ 4-byte Spill
	b	.LBB2_549
.LBB2_527:
	ldr.w	r0, [sp, #1540]
	ldr	r0, [r0, #36]
	cmp	r0, #4
	bne	.LBB2_529
	b	.LBB2_528
.LBB2_528:
	.loc	7 0 37                          @ libraries/STM32H7xx_HAL/STM32H7xx_HAL_Driver/Src/stm32h7xx_hal_uart.c:0:37
	movs	r0, #8
	.loc	7 2994 37                       @ libraries/STM32H7xx_HAL/STM32H7xx_HAL_Driver/Src/stm32h7xx_hal_uart.c:2994:37
	str	r0, [sp, #880]                  @ 4-byte Spill
	b	.LBB2_548
.LBB2_529:
	ldr.w	r0, [sp, #1540]
	ldr	r0, [r0, #36]
	cmp	r0, #5
	bne	.LBB2_531
	b	.LBB2_530
.LBB2_530:
	.loc	7 0 37                          @ libraries/STM32H7xx_HAL/STM32H7xx_HAL_Driver/Src/stm32h7xx_hal_uart.c:0:37
	movs	r0, #10
	.loc	7 2994 37                       @ libraries/STM32H7xx_HAL/STM32H7xx_HAL_Driver/Src/stm32h7xx_hal_uart.c:2994:37
	str	r0, [sp, #876]                  @ 4-byte Spill
	b	.LBB2_547
.LBB2_531:
	ldr.w	r0, [sp, #1540]
	ldr	r0, [r0, #36]
	cmp	r0, #6
	bne	.LBB2_533
	b	.LBB2_532
.LBB2_532:
	.loc	7 0 37                          @ libraries/STM32H7xx_HAL/STM32H7xx_HAL_Driver/Src/stm32h7xx_hal_uart.c:0:37
	movs	r0, #12
	.loc	7 2994 37                       @ libraries/STM32H7xx_HAL/STM32H7xx_HAL_Driver/Src/stm32h7xx_hal_uart.c:2994:37
	str	r0, [sp, #872]                  @ 4-byte Spill
	b	.LBB2_546
.LBB2_533:
	ldr.w	r0, [sp, #1540]
	ldr	r0, [r0, #36]
	cmp	r0, #7
	bne	.LBB2_535
	b	.LBB2_534
.LBB2_534:
	.loc	7 0 37                          @ libraries/STM32H7xx_HAL/STM32H7xx_HAL_Driver/Src/stm32h7xx_hal_uart.c:0:37
	movs	r0, #16
	.loc	7 2994 37                       @ libraries/STM32H7xx_HAL/STM32H7xx_HAL_Driver/Src/stm32h7xx_hal_uart.c:2994:37
	str	r0, [sp, #868]                  @ 4-byte Spill
	b	.LBB2_545
.LBB2_535:
	ldr.w	r0, [sp, #1540]
	ldr	r0, [r0, #36]
	cmp	r0, #8
	bne	.LBB2_537
	b	.LBB2_536
.LBB2_536:
	.loc	7 0 37                          @ libraries/STM32H7xx_HAL/STM32H7xx_HAL_Driver/Src/stm32h7xx_hal_uart.c:0:37
	movs	r0, #32
	.loc	7 2994 37                       @ libraries/STM32H7xx_HAL/STM32H7xx_HAL_Driver/Src/stm32h7xx_hal_uart.c:2994:37
	str	r0, [sp, #864]                  @ 4-byte Spill
	b	.LBB2_544
.LBB2_537:
	ldr.w	r0, [sp, #1540]
	ldr	r0, [r0, #36]
	cmp	r0, #9
	bne	.LBB2_539
	b	.LBB2_538
.LBB2_538:
	.loc	7 0 37                          @ libraries/STM32H7xx_HAL/STM32H7xx_HAL_Driver/Src/stm32h7xx_hal_uart.c:0:37
	movs	r0, #64
	.loc	7 2994 37                       @ libraries/STM32H7xx_HAL/STM32H7xx_HAL_Driver/Src/stm32h7xx_hal_uart.c:2994:37
	str	r0, [sp, #860]                  @ 4-byte Spill
	b	.LBB2_543
.LBB2_539:
	ldr.w	r0, [sp, #1540]
	ldr	r0, [r0, #36]
	cmp	r0, #10
	bne	.LBB2_541
	b	.LBB2_540
.LBB2_540:
	.loc	7 0 37                          @ libraries/STM32H7xx_HAL/STM32H7xx_HAL_Driver/Src/stm32h7xx_hal_uart.c:0:37
	movs	r0, #128
	.loc	7 2994 37                       @ libraries/STM32H7xx_HAL/STM32H7xx_HAL_Driver/Src/stm32h7xx_hal_uart.c:2994:37
	str	r0, [sp, #856]                  @ 4-byte Spill
	b	.LBB2_542
.LBB2_541:
	ldr.w	r0, [sp, #1540]
	ldr	r1, [r0, #36]
	movs	r0, #1
	cmp	r1, #11
	it	eq
	moveq.w	r0, #256
	str	r0, [sp, #856]                  @ 4-byte Spill
	b	.LBB2_542
.LBB2_542:
	ldr	r0, [sp, #856]                  @ 4-byte Reload
	str	r0, [sp, #860]                  @ 4-byte Spill
	b	.LBB2_543
.LBB2_543:
	ldr	r0, [sp, #860]                  @ 4-byte Reload
	str	r0, [sp, #864]                  @ 4-byte Spill
	b	.LBB2_544
.LBB2_544:
	ldr	r0, [sp, #864]                  @ 4-byte Reload
	str	r0, [sp, #868]                  @ 4-byte Spill
	b	.LBB2_545
.LBB2_545:
	ldr	r0, [sp, #868]                  @ 4-byte Reload
	str	r0, [sp, #872]                  @ 4-byte Spill
	b	.LBB2_546
.LBB2_546:
	ldr	r0, [sp, #872]                  @ 4-byte Reload
	str	r0, [sp, #876]                  @ 4-byte Spill
	b	.LBB2_547
.LBB2_547:
	ldr	r0, [sp, #876]                  @ 4-byte Reload
	str	r0, [sp, #880]                  @ 4-byte Spill
	b	.LBB2_548
.LBB2_548:
	ldr	r0, [sp, #880]                  @ 4-byte Reload
	str	r0, [sp, #884]                  @ 4-byte Spill
	b	.LBB2_549
.LBB2_549:
	ldr	r0, [sp, #884]                  @ 4-byte Reload
	str	r0, [sp, #888]                  @ 4-byte Spill
	b	.LBB2_550
.LBB2_550:
	ldr	r0, [sp, #888]                  @ 4-byte Reload
	str	r0, [sp, #892]                  @ 4-byte Spill
	b	.LBB2_551
.LBB2_551:
	ldr	r0, [sp, #892]                  @ 4-byte Reload
	str	r0, [sp, #896]                  @ 4-byte Spill
	b	.LBB2_552
.LBB2_552:
	ldr	r2, [sp, #896]                  @ 4-byte Reload
	movw	r0, #36864
	movt	r0, #976
	movs	r3, #0
	str	r3, [sp, #852]                  @ 4-byte Spill
	mov	r1, r3
	bl	__aeabi_uldivmod
	ldr	r3, [sp, #852]                  @ 4-byte Reload
	lsls	r1, r1, #8
	orr.w	r1, r1, r0, lsr #24
	lsls	r0, r0, #8
	ldr.w	r2, [sp, #1540]
	ldr	r2, [r2, #4]
	adds.w	r0, r0, r2, lsr #1
	adc	r1, r1, #0
	bl	__aeabi_uldivmod
	.loc	7 2994 24                       @ libraries/STM32H7xx_HAL/STM32H7xx_HAL_Driver/Src/stm32h7xx_hal_uart.c:2994:24
	str.w	r0, [sp, #1528]
	b	.LBB2_553
.Ltmp98:
.LBB2_553:
	.loc	7 2996 13 is_stmt 1             @ libraries/STM32H7xx_HAL/STM32H7xx_HAL_Driver/Src/stm32h7xx_hal_uart.c:2996:13
	b	.LBB2_623
.LBB2_554:
	.loc	7 2998 35                       @ libraries/STM32H7xx_HAL/STM32H7xx_HAL_Driver/Src/stm32h7xx_hal_uart.c:2998:35
	ldr.w	r0, [sp, #1540]
	ldr	r0, [r0, #36]
	cbnz	r0, .LBB2_556
	b	.LBB2_555
.LBB2_555:
	.loc	7 0 35 is_stmt 0                @ libraries/STM32H7xx_HAL/STM32H7xx_HAL_Driver/Src/stm32h7xx_hal_uart.c:0:35
	movs	r0, #1
	.loc	7 2998 35                       @ libraries/STM32H7xx_HAL/STM32H7xx_HAL_Driver/Src/stm32h7xx_hal_uart.c:2998:35
	str	r0, [sp, #848]                  @ 4-byte Spill
	b	.LBB2_587
.LBB2_556:
	ldr.w	r0, [sp, #1540]
	ldr	r0, [r0, #36]
	cmp	r0, #1
	bne	.LBB2_558
	b	.LBB2_557
.LBB2_557:
	.loc	7 0 35                          @ libraries/STM32H7xx_HAL/STM32H7xx_HAL_Driver/Src/stm32h7xx_hal_uart.c:0:35
	movs	r0, #2
	.loc	7 2998 35                       @ libraries/STM32H7xx_HAL/STM32H7xx_HAL_Driver/Src/stm32h7xx_hal_uart.c:2998:35
	str	r0, [sp, #844]                  @ 4-byte Spill
	b	.LBB2_586
.LBB2_558:
	ldr.w	r0, [sp, #1540]
	ldr	r0, [r0, #36]
	cmp	r0, #2
	bne	.LBB2_560
	b	.LBB2_559
.LBB2_559:
	.loc	7 0 35                          @ libraries/STM32H7xx_HAL/STM32H7xx_HAL_Driver/Src/stm32h7xx_hal_uart.c:0:35
	movs	r0, #4
	.loc	7 2998 35                       @ libraries/STM32H7xx_HAL/STM32H7xx_HAL_Driver/Src/stm32h7xx_hal_uart.c:2998:35
	str	r0, [sp, #840]                  @ 4-byte Spill
	b	.LBB2_585
.LBB2_560:
	ldr.w	r0, [sp, #1540]
	ldr	r0, [r0, #36]
	cmp	r0, #3
	bne	.LBB2_562
	b	.LBB2_561
.LBB2_561:
	.loc	7 0 35                          @ libraries/STM32H7xx_HAL/STM32H7xx_HAL_Driver/Src/stm32h7xx_hal_uart.c:0:35
	movs	r0, #6
	.loc	7 2998 35                       @ libraries/STM32H7xx_HAL/STM32H7xx_HAL_Driver/Src/stm32h7xx_hal_uart.c:2998:35
	str	r0, [sp, #836]                  @ 4-byte Spill
	b	.LBB2_584
.LBB2_562:
	ldr.w	r0, [sp, #1540]
	ldr	r0, [r0, #36]
	cmp	r0, #4
	bne	.LBB2_564
	b	.LBB2_563
.LBB2_563:
	.loc	7 0 35                          @ libraries/STM32H7xx_HAL/STM32H7xx_HAL_Driver/Src/stm32h7xx_hal_uart.c:0:35
	movs	r0, #8
	.loc	7 2998 35                       @ libraries/STM32H7xx_HAL/STM32H7xx_HAL_Driver/Src/stm32h7xx_hal_uart.c:2998:35
	str	r0, [sp, #832]                  @ 4-byte Spill
	b	.LBB2_583
.LBB2_564:
	ldr.w	r0, [sp, #1540]
	ldr	r0, [r0, #36]
	cmp	r0, #5
	bne	.LBB2_566
	b	.LBB2_565
.LBB2_565:
	.loc	7 0 35                          @ libraries/STM32H7xx_HAL/STM32H7xx_HAL_Driver/Src/stm32h7xx_hal_uart.c:0:35
	movs	r0, #10
	.loc	7 2998 35                       @ libraries/STM32H7xx_HAL/STM32H7xx_HAL_Driver/Src/stm32h7xx_hal_uart.c:2998:35
	str	r0, [sp, #828]                  @ 4-byte Spill
	b	.LBB2_582
.LBB2_566:
	ldr.w	r0, [sp, #1540]
	ldr	r0, [r0, #36]
	cmp	r0, #6
	bne	.LBB2_568
	b	.LBB2_567
.LBB2_567:
	.loc	7 0 35                          @ libraries/STM32H7xx_HAL/STM32H7xx_HAL_Driver/Src/stm32h7xx_hal_uart.c:0:35
	movs	r0, #12
	.loc	7 2998 35                       @ libraries/STM32H7xx_HAL/STM32H7xx_HAL_Driver/Src/stm32h7xx_hal_uart.c:2998:35
	str	r0, [sp, #824]                  @ 4-byte Spill
	b	.LBB2_581
.LBB2_568:
	ldr.w	r0, [sp, #1540]
	ldr	r0, [r0, #36]
	cmp	r0, #7
	bne	.LBB2_570
	b	.LBB2_569
.LBB2_569:
	.loc	7 0 35                          @ libraries/STM32H7xx_HAL/STM32H7xx_HAL_Driver/Src/stm32h7xx_hal_uart.c:0:35
	movs	r0, #16
	.loc	7 2998 35                       @ libraries/STM32H7xx_HAL/STM32H7xx_HAL_Driver/Src/stm32h7xx_hal_uart.c:2998:35
	str	r0, [sp, #820]                  @ 4-byte Spill
	b	.LBB2_580
.LBB2_570:
	ldr.w	r0, [sp, #1540]
	ldr	r0, [r0, #36]
	cmp	r0, #8
	bne	.LBB2_572
	b	.LBB2_571
.LBB2_571:
	.loc	7 0 35                          @ libraries/STM32H7xx_HAL/STM32H7xx_HAL_Driver/Src/stm32h7xx_hal_uart.c:0:35
	movs	r0, #32
	.loc	7 2998 35                       @ libraries/STM32H7xx_HAL/STM32H7xx_HAL_Driver/Src/stm32h7xx_hal_uart.c:2998:35
	str	r0, [sp, #816]                  @ 4-byte Spill
	b	.LBB2_579
.LBB2_572:
	ldr.w	r0, [sp, #1540]
	ldr	r0, [r0, #36]
	cmp	r0, #9
	bne	.LBB2_574
	b	.LBB2_573
.LBB2_573:
	.loc	7 0 35                          @ libraries/STM32H7xx_HAL/STM32H7xx_HAL_Driver/Src/stm32h7xx_hal_uart.c:0:35
	movs	r0, #64
	.loc	7 2998 35                       @ libraries/STM32H7xx_HAL/STM32H7xx_HAL_Driver/Src/stm32h7xx_hal_uart.c:2998:35
	str	r0, [sp, #812]                  @ 4-byte Spill
	b	.LBB2_578
.LBB2_574:
	ldr.w	r0, [sp, #1540]
	ldr	r0, [r0, #36]
	cmp	r0, #10
	bne	.LBB2_576
	b	.LBB2_575
.LBB2_575:
	.loc	7 0 35                          @ libraries/STM32H7xx_HAL/STM32H7xx_HAL_Driver/Src/stm32h7xx_hal_uart.c:0:35
	movs	r0, #128
	.loc	7 2998 35                       @ libraries/STM32H7xx_HAL/STM32H7xx_HAL_Driver/Src/stm32h7xx_hal_uart.c:2998:35
	str	r0, [sp, #808]                  @ 4-byte Spill
	b	.LBB2_577
.LBB2_576:
	ldr.w	r0, [sp, #1540]
	ldr	r1, [r0, #36]
	movs	r0, #1
	cmp	r1, #11
	it	eq
	moveq.w	r0, #256
	str	r0, [sp, #808]                  @ 4-byte Spill
	b	.LBB2_577
.LBB2_577:
	ldr	r0, [sp, #808]                  @ 4-byte Reload
	str	r0, [sp, #812]                  @ 4-byte Spill
	b	.LBB2_578
.LBB2_578:
	ldr	r0, [sp, #812]                  @ 4-byte Reload
	str	r0, [sp, #816]                  @ 4-byte Spill
	b	.LBB2_579
.LBB2_579:
	ldr	r0, [sp, #816]                  @ 4-byte Reload
	str	r0, [sp, #820]                  @ 4-byte Spill
	b	.LBB2_580
.LBB2_580:
	ldr	r0, [sp, #820]                  @ 4-byte Reload
	str	r0, [sp, #824]                  @ 4-byte Spill
	b	.LBB2_581
.LBB2_581:
	ldr	r0, [sp, #824]                  @ 4-byte Reload
	str	r0, [sp, #828]                  @ 4-byte Spill
	b	.LBB2_582
.LBB2_582:
	ldr	r0, [sp, #828]                  @ 4-byte Reload
	str	r0, [sp, #832]                  @ 4-byte Spill
	b	.LBB2_583
.LBB2_583:
	ldr	r0, [sp, #832]                  @ 4-byte Reload
	str	r0, [sp, #836]                  @ 4-byte Spill
	b	.LBB2_584
.LBB2_584:
	ldr	r0, [sp, #836]                  @ 4-byte Reload
	str	r0, [sp, #840]                  @ 4-byte Spill
	b	.LBB2_585
.LBB2_585:
	ldr	r0, [sp, #840]                  @ 4-byte Reload
	str	r0, [sp, #844]                  @ 4-byte Spill
	b	.LBB2_586
.LBB2_586:
	ldr	r0, [sp, #844]                  @ 4-byte Reload
	str	r0, [sp, #848]                  @ 4-byte Spill
	b	.LBB2_587
.LBB2_587:
	ldr	r2, [sp, #848]                  @ 4-byte Reload
	movw	r0, #2304
	movt	r0, #61
	movs	r3, #0
	str	r3, [sp, #804]                  @ 4-byte Spill
	mov	r1, r3
	bl	__aeabi_uldivmod
	ldr	r3, [sp, #804]                  @ 4-byte Reload
	lsls	r1, r1, #8
	orr.w	r1, r1, r0, lsr #24
	lsls	r0, r0, #8
	ldr.w	r2, [sp, #1540]
	ldr	r2, [r2, #4]
	adds.w	r0, r0, r2, lsr #1
	adc	r1, r1, #0
	bl	__aeabi_uldivmod
	.loc	7 2998 22                       @ libraries/STM32H7xx_HAL/STM32H7xx_HAL_Driver/Src/stm32h7xx_hal_uart.c:2998:22
	str.w	r0, [sp, #1528]
	.loc	7 2999 13 is_stmt 1             @ libraries/STM32H7xx_HAL/STM32H7xx_HAL_Driver/Src/stm32h7xx_hal_uart.c:2999:13
	b	.LBB2_623
.LBB2_588:
	.loc	7 3001 35                       @ libraries/STM32H7xx_HAL/STM32H7xx_HAL_Driver/Src/stm32h7xx_hal_uart.c:3001:35
	ldr.w	r0, [sp, #1540]
	ldr	r0, [r0, #36]
	cbnz	r0, .LBB2_590
	b	.LBB2_589
.LBB2_589:
	.loc	7 0 35 is_stmt 0                @ libraries/STM32H7xx_HAL/STM32H7xx_HAL_Driver/Src/stm32h7xx_hal_uart.c:0:35
	movs	r0, #1
	.loc	7 3001 35                       @ libraries/STM32H7xx_HAL/STM32H7xx_HAL_Driver/Src/stm32h7xx_hal_uart.c:3001:35
	str	r0, [sp, #800]                  @ 4-byte Spill
	b	.LBB2_621
.LBB2_590:
	ldr.w	r0, [sp, #1540]
	ldr	r0, [r0, #36]
	cmp	r0, #1
	bne	.LBB2_592
	b	.LBB2_591
.LBB2_591:
	.loc	7 0 35                          @ libraries/STM32H7xx_HAL/STM32H7xx_HAL_Driver/Src/stm32h7xx_hal_uart.c:0:35
	movs	r0, #2
	.loc	7 3001 35                       @ libraries/STM32H7xx_HAL/STM32H7xx_HAL_Driver/Src/stm32h7xx_hal_uart.c:3001:35
	str	r0, [sp, #796]                  @ 4-byte Spill
	b	.LBB2_620
.LBB2_592:
	ldr.w	r0, [sp, #1540]
	ldr	r0, [r0, #36]
	cmp	r0, #2
	bne	.LBB2_594
	b	.LBB2_593
.LBB2_593:
	.loc	7 0 35                          @ libraries/STM32H7xx_HAL/STM32H7xx_HAL_Driver/Src/stm32h7xx_hal_uart.c:0:35
	movs	r0, #4
	.loc	7 3001 35                       @ libraries/STM32H7xx_HAL/STM32H7xx_HAL_Driver/Src/stm32h7xx_hal_uart.c:3001:35
	str	r0, [sp, #792]                  @ 4-byte Spill
	b	.LBB2_619
.LBB2_594:
	ldr.w	r0, [sp, #1540]
	ldr	r0, [r0, #36]
	cmp	r0, #3
	bne	.LBB2_596
	b	.LBB2_595
.LBB2_595:
	.loc	7 0 35                          @ libraries/STM32H7xx_HAL/STM32H7xx_HAL_Driver/Src/stm32h7xx_hal_uart.c:0:35
	movs	r0, #6
	.loc	7 3001 35                       @ libraries/STM32H7xx_HAL/STM32H7xx_HAL_Driver/Src/stm32h7xx_hal_uart.c:3001:35
	str	r0, [sp, #788]                  @ 4-byte Spill
	b	.LBB2_618
.LBB2_596:
	ldr.w	r0, [sp, #1540]
	ldr	r0, [r0, #36]
	cmp	r0, #4
	bne	.LBB2_598
	b	.LBB2_597
.LBB2_597:
	.loc	7 0 35                          @ libraries/STM32H7xx_HAL/STM32H7xx_HAL_Driver/Src/stm32h7xx_hal_uart.c:0:35
	movs	r0, #8
	.loc	7 3001 35                       @ libraries/STM32H7xx_HAL/STM32H7xx_HAL_Driver/Src/stm32h7xx_hal_uart.c:3001:35
	str	r0, [sp, #784]                  @ 4-byte Spill
	b	.LBB2_617
.LBB2_598:
	ldr.w	r0, [sp, #1540]
	ldr	r0, [r0, #36]
	cmp	r0, #5
	bne	.LBB2_600
	b	.LBB2_599
.LBB2_599:
	.loc	7 0 35                          @ libraries/STM32H7xx_HAL/STM32H7xx_HAL_Driver/Src/stm32h7xx_hal_uart.c:0:35
	movs	r0, #10
	.loc	7 3001 35                       @ libraries/STM32H7xx_HAL/STM32H7xx_HAL_Driver/Src/stm32h7xx_hal_uart.c:3001:35
	str	r0, [sp, #780]                  @ 4-byte Spill
	b	.LBB2_616
.LBB2_600:
	ldr.w	r0, [sp, #1540]
	ldr	r0, [r0, #36]
	cmp	r0, #6
	bne	.LBB2_602
	b	.LBB2_601
.LBB2_601:
	.loc	7 0 35                          @ libraries/STM32H7xx_HAL/STM32H7xx_HAL_Driver/Src/stm32h7xx_hal_uart.c:0:35
	movs	r0, #12
	.loc	7 3001 35                       @ libraries/STM32H7xx_HAL/STM32H7xx_HAL_Driver/Src/stm32h7xx_hal_uart.c:3001:35
	str	r0, [sp, #776]                  @ 4-byte Spill
	b	.LBB2_615
.LBB2_602:
	ldr.w	r0, [sp, #1540]
	ldr	r0, [r0, #36]
	cmp	r0, #7
	bne	.LBB2_604
	b	.LBB2_603
.LBB2_603:
	.loc	7 0 35                          @ libraries/STM32H7xx_HAL/STM32H7xx_HAL_Driver/Src/stm32h7xx_hal_uart.c:0:35
	movs	r0, #16
	.loc	7 3001 35                       @ libraries/STM32H7xx_HAL/STM32H7xx_HAL_Driver/Src/stm32h7xx_hal_uart.c:3001:35
	str	r0, [sp, #772]                  @ 4-byte Spill
	b	.LBB2_614
.LBB2_604:
	ldr.w	r0, [sp, #1540]
	ldr	r0, [r0, #36]
	cmp	r0, #8
	bne	.LBB2_606
	b	.LBB2_605
.LBB2_605:
	.loc	7 0 35                          @ libraries/STM32H7xx_HAL/STM32H7xx_HAL_Driver/Src/stm32h7xx_hal_uart.c:0:35
	movs	r0, #32
	.loc	7 3001 35                       @ libraries/STM32H7xx_HAL/STM32H7xx_HAL_Driver/Src/stm32h7xx_hal_uart.c:3001:35
	str	r0, [sp, #768]                  @ 4-byte Spill
	b	.LBB2_613
.LBB2_606:
	ldr.w	r0, [sp, #1540]
	ldr	r0, [r0, #36]
	cmp	r0, #9
	bne	.LBB2_608
	b	.LBB2_607
.LBB2_607:
	.loc	7 0 35                          @ libraries/STM32H7xx_HAL/STM32H7xx_HAL_Driver/Src/stm32h7xx_hal_uart.c:0:35
	movs	r0, #64
	.loc	7 3001 35                       @ libraries/STM32H7xx_HAL/STM32H7xx_HAL_Driver/Src/stm32h7xx_hal_uart.c:3001:35
	str	r0, [sp, #764]                  @ 4-byte Spill
	b	.LBB2_612
.LBB2_608:
	ldr.w	r0, [sp, #1540]
	ldr	r0, [r0, #36]
	cmp	r0, #10
	bne	.LBB2_610
	b	.LBB2_609
.LBB2_609:
	.loc	7 0 35                          @ libraries/STM32H7xx_HAL/STM32H7xx_HAL_Driver/Src/stm32h7xx_hal_uart.c:0:35
	movs	r0, #128
	.loc	7 3001 35                       @ libraries/STM32H7xx_HAL/STM32H7xx_HAL_Driver/Src/stm32h7xx_hal_uart.c:3001:35
	str	r0, [sp, #760]                  @ 4-byte Spill
	b	.LBB2_611
.LBB2_610:
	ldr.w	r0, [sp, #1540]
	ldr	r1, [r0, #36]
	movs	r0, #1
	cmp	r1, #11
	it	eq
	moveq.w	r0, #256
	str	r0, [sp, #760]                  @ 4-byte Spill
	b	.LBB2_611
.LBB2_611:
	ldr	r0, [sp, #760]                  @ 4-byte Reload
	str	r0, [sp, #764]                  @ 4-byte Spill
	b	.LBB2_612
.LBB2_612:
	ldr	r0, [sp, #764]                  @ 4-byte Reload
	str	r0, [sp, #768]                  @ 4-byte Spill
	b	.LBB2_613
.LBB2_613:
	ldr	r0, [sp, #768]                  @ 4-byte Reload
	str	r0, [sp, #772]                  @ 4-byte Spill
	b	.LBB2_614
.LBB2_614:
	ldr	r0, [sp, #772]                  @ 4-byte Reload
	str	r0, [sp, #776]                  @ 4-byte Spill
	b	.LBB2_615
.LBB2_615:
	ldr	r0, [sp, #776]                  @ 4-byte Reload
	str	r0, [sp, #780]                  @ 4-byte Spill
	b	.LBB2_616
.LBB2_616:
	ldr	r0, [sp, #780]                  @ 4-byte Reload
	str	r0, [sp, #784]                  @ 4-byte Spill
	b	.LBB2_617
.LBB2_617:
	ldr	r0, [sp, #784]                  @ 4-byte Reload
	str	r0, [sp, #788]                  @ 4-byte Spill
	b	.LBB2_618
.LBB2_618:
	ldr	r0, [sp, #788]                  @ 4-byte Reload
	str	r0, [sp, #792]                  @ 4-byte Spill
	b	.LBB2_619
.LBB2_619:
	ldr	r0, [sp, #792]                  @ 4-byte Reload
	str	r0, [sp, #796]                  @ 4-byte Spill
	b	.LBB2_620
.LBB2_620:
	ldr	r0, [sp, #796]                  @ 4-byte Reload
	str	r0, [sp, #800]                  @ 4-byte Spill
	b	.LBB2_621
.LBB2_621:
	ldr	r2, [sp, #800]                  @ 4-byte Reload
	mov.w	r0, #32768
	movs	r3, #0
	str	r3, [sp, #756]                  @ 4-byte Spill
	mov	r1, r3
	bl	__aeabi_uldivmod
	ldr	r3, [sp, #756]                  @ 4-byte Reload
	lsls	r1, r1, #8
	orr.w	r1, r1, r0, lsr #24
	lsls	r0, r0, #8
	ldr.w	r2, [sp, #1540]
	ldr	r2, [r2, #4]
	adds.w	r0, r0, r2, lsr #1
	adc	r1, r1, #0
	bl	__aeabi_uldivmod
	.loc	7 3001 22                       @ libraries/STM32H7xx_HAL/STM32H7xx_HAL_Driver/Src/stm32h7xx_hal_uart.c:3001:22
	str.w	r0, [sp, #1528]
	.loc	7 3002 13 is_stmt 1             @ libraries/STM32H7xx_HAL/STM32H7xx_HAL_Driver/Src/stm32h7xx_hal_uart.c:3002:13
	b	.LBB2_623
.LBB2_622:
	.loc	7 0 13 is_stmt 0                @ libraries/STM32H7xx_HAL/STM32H7xx_HAL_Driver/Src/stm32h7xx_hal_uart.c:0:13
	movs	r0, #1
	.loc	7 3004 17 is_stmt 1             @ libraries/STM32H7xx_HAL/STM32H7xx_HAL_Driver/Src/stm32h7xx_hal_uart.c:3004:17
	strb.w	r0, [sp, #1527]
	.loc	7 3005 13                       @ libraries/STM32H7xx_HAL/STM32H7xx_HAL_Driver/Src/stm32h7xx_hal_uart.c:3005:13
	b	.LBB2_623
.Ltmp99:
.LBB2_623:
	.loc	7 3009 14                       @ libraries/STM32H7xx_HAL/STM32H7xx_HAL_Driver/Src/stm32h7xx_hal_uart.c:3009:14
	ldr.w	r0, [sp, #1528]
	.loc	7 3009 42 is_stmt 0             @ libraries/STM32H7xx_HAL/STM32H7xx_HAL_Driver/Src/stm32h7xx_hal_uart.c:3009:42
	cmp.w	r0, #768
	blo	.LBB2_626
	b	.LBB2_624
.LBB2_624:
	.loc	7 3009 46                       @ libraries/STM32H7xx_HAL/STM32H7xx_HAL_Driver/Src/stm32h7xx_hal_uart.c:3009:46
	ldr.w	r1, [sp, #1528]
	movs	r0, #0
.Ltmp100:
	.loc	7 3009 13                       @ libraries/STM32H7xx_HAL/STM32H7xx_HAL_Driver/Src/stm32h7xx_hal_uart.c:3009:13
	cmp.w	r0, r1, lsr #20
	bne	.LBB2_626
	b	.LBB2_625
.LBB2_625:
.Ltmp101:
	.loc	7 3011 34 is_stmt 1             @ libraries/STM32H7xx_HAL/STM32H7xx_HAL_Driver/Src/stm32h7xx_hal_uart.c:3011:34
	ldr.w	r0, [sp, #1528]
	.loc	7 3011 11 is_stmt 0             @ libraries/STM32H7xx_HAL/STM32H7xx_HAL_Driver/Src/stm32h7xx_hal_uart.c:3011:11
	ldr.w	r1, [sp, #1540]
	.loc	7 3011 18                       @ libraries/STM32H7xx_HAL/STM32H7xx_HAL_Driver/Src/stm32h7xx_hal_uart.c:3011:18
	ldr	r1, [r1]
	.loc	7 3011 32                       @ libraries/STM32H7xx_HAL/STM32H7xx_HAL_Driver/Src/stm32h7xx_hal_uart.c:3011:32
	str	r0, [r1, #12]
	.loc	7 3012 9 is_stmt 1              @ libraries/STM32H7xx_HAL/STM32H7xx_HAL_Driver/Src/stm32h7xx_hal_uart.c:3012:9
	b	.LBB2_627
.Ltmp102:
.LBB2_626:
	.loc	7 0 9 is_stmt 0                 @ libraries/STM32H7xx_HAL/STM32H7xx_HAL_Driver/Src/stm32h7xx_hal_uart.c:0:9
	movs	r0, #1
.Ltmp103:
	.loc	7 3015 15 is_stmt 1             @ libraries/STM32H7xx_HAL/STM32H7xx_HAL_Driver/Src/stm32h7xx_hal_uart.c:3015:15
	strb.w	r0, [sp, #1527]
	b	.LBB2_627
.Ltmp104:
.LBB2_627:
	.loc	7 0 15 is_stmt 0                @ libraries/STM32H7xx_HAL/STM32H7xx_HAL_Driver/Src/stm32h7xx_hal_uart.c:0:15
	b	.LBB2_628
.LBB2_628:
	.loc	7 3018 5 is_stmt 1              @ libraries/STM32H7xx_HAL/STM32H7xx_HAL_Driver/Src/stm32h7xx_hal_uart.c:3018:5
	b	.LBB2_629
.Ltmp105:
.LBB2_629:
	.loc	7 3019 3                        @ libraries/STM32H7xx_HAL/STM32H7xx_HAL_Driver/Src/stm32h7xx_hal_uart.c:3019:3
	b.w	.LBB2_1198
.Ltmp106:
.LBB2_630:
	.loc	7 3021 12                       @ libraries/STM32H7xx_HAL/STM32H7xx_HAL_Driver/Src/stm32h7xx_hal_uart.c:3021:12
	ldr.w	r0, [sp, #1540]
	.loc	7 3021 24 is_stmt 0             @ libraries/STM32H7xx_HAL/STM32H7xx_HAL_Driver/Src/stm32h7xx_hal_uart.c:3021:24
	ldr	r0, [r0, #28]
.Ltmp107:
	.loc	7 3021 12                       @ libraries/STM32H7xx_HAL/STM32H7xx_HAL_Driver/Src/stm32h7xx_hal_uart.c:3021:12
	cmp.w	r0, #32768
	bne.w	.LBB2_914
	b	.LBB2_631
.LBB2_631:
.Ltmp108:
	.loc	7 3023 13 is_stmt 1             @ libraries/STM32H7xx_HAL/STM32H7xx_HAL_Driver/Src/stm32h7xx_hal_uart.c:3023:13
	ldrb.w	r0, [sp, #1533]
	.loc	7 3023 5 is_stmt 0              @ libraries/STM32H7xx_HAL/STM32H7xx_HAL_Driver/Src/stm32h7xx_hal_uart.c:3023:5
	mov	r1, r0
	str	r1, [sp, #752]                  @ 4-byte Spill
	cmp	r0, #64
	bhi.w	.LBB2_908
@ %bb.632:
	.loc	7 0 5                           @ libraries/STM32H7xx_HAL/STM32H7xx_HAL_Driver/Src/stm32h7xx_hal_uart.c:0:5
	ldr	r1, [sp, #752]                  @ 4-byte Reload
.LCPI2_9:
	tbh	[pc, r1, lsl #1]
@ %bb.633:
.LJTI2_10:
	.short	(.LBB2_634-(.LCPI2_9+4))/2
	.short	(.LBB2_668-(.LCPI2_9+4))/2
	.short	(.LBB2_908-(.LCPI2_9+4))/2
	.short	(.LBB2_908-(.LCPI2_9+4))/2
	.short	(.LBB2_702-(.LCPI2_9+4))/2
	.short	(.LBB2_908-(.LCPI2_9+4))/2
	.short	(.LBB2_908-(.LCPI2_9+4))/2
	.short	(.LBB2_908-(.LCPI2_9+4))/2
	.short	(.LBB2_736-(.LCPI2_9+4))/2
	.short	(.LBB2_908-(.LCPI2_9+4))/2
	.short	(.LBB2_908-(.LCPI2_9+4))/2
	.short	(.LBB2_908-(.LCPI2_9+4))/2
	.short	(.LBB2_908-(.LCPI2_9+4))/2
	.short	(.LBB2_908-(.LCPI2_9+4))/2
	.short	(.LBB2_908-(.LCPI2_9+4))/2
	.short	(.LBB2_908-(.LCPI2_9+4))/2
	.short	(.LBB2_770-(.LCPI2_9+4))/2
	.short	(.LBB2_908-(.LCPI2_9+4))/2
	.short	(.LBB2_908-(.LCPI2_9+4))/2
	.short	(.LBB2_908-(.LCPI2_9+4))/2
	.short	(.LBB2_908-(.LCPI2_9+4))/2
	.short	(.LBB2_908-(.LCPI2_9+4))/2
	.short	(.LBB2_908-(.LCPI2_9+4))/2
	.short	(.LBB2_908-(.LCPI2_9+4))/2
	.short	(.LBB2_908-(.LCPI2_9+4))/2
	.short	(.LBB2_908-(.LCPI2_9+4))/2
	.short	(.LBB2_908-(.LCPI2_9+4))/2
	.short	(.LBB2_908-(.LCPI2_9+4))/2
	.short	(.LBB2_908-(.LCPI2_9+4))/2
	.short	(.LBB2_908-(.LCPI2_9+4))/2
	.short	(.LBB2_908-(.LCPI2_9+4))/2
	.short	(.LBB2_908-(.LCPI2_9+4))/2
	.short	(.LBB2_840-(.LCPI2_9+4))/2
	.short	(.LBB2_908-(.LCPI2_9+4))/2
	.short	(.LBB2_908-(.LCPI2_9+4))/2
	.short	(.LBB2_908-(.LCPI2_9+4))/2
	.short	(.LBB2_908-(.LCPI2_9+4))/2
	.short	(.LBB2_908-(.LCPI2_9+4))/2
	.short	(.LBB2_908-(.LCPI2_9+4))/2
	.short	(.LBB2_908-(.LCPI2_9+4))/2
	.short	(.LBB2_908-(.LCPI2_9+4))/2
	.short	(.LBB2_908-(.LCPI2_9+4))/2
	.short	(.LBB2_908-(.LCPI2_9+4))/2
	.short	(.LBB2_908-(.LCPI2_9+4))/2
	.short	(.LBB2_908-(.LCPI2_9+4))/2
	.short	(.LBB2_908-(.LCPI2_9+4))/2
	.short	(.LBB2_908-(.LCPI2_9+4))/2
	.short	(.LBB2_908-(.LCPI2_9+4))/2
	.short	(.LBB2_908-(.LCPI2_9+4))/2
	.short	(.LBB2_908-(.LCPI2_9+4))/2
	.short	(.LBB2_908-(.LCPI2_9+4))/2
	.short	(.LBB2_908-(.LCPI2_9+4))/2
	.short	(.LBB2_908-(.LCPI2_9+4))/2
	.short	(.LBB2_908-(.LCPI2_9+4))/2
	.short	(.LBB2_908-(.LCPI2_9+4))/2
	.short	(.LBB2_908-(.LCPI2_9+4))/2
	.short	(.LBB2_908-(.LCPI2_9+4))/2
	.short	(.LBB2_908-(.LCPI2_9+4))/2
	.short	(.LBB2_908-(.LCPI2_9+4))/2
	.short	(.LBB2_908-(.LCPI2_9+4))/2
	.short	(.LBB2_908-(.LCPI2_9+4))/2
	.short	(.LBB2_908-(.LCPI2_9+4))/2
	.short	(.LBB2_908-(.LCPI2_9+4))/2
	.short	(.LBB2_908-(.LCPI2_9+4))/2
	.short	(.LBB2_874-(.LCPI2_9+4))/2
	.p2align	1
.LBB2_634:
.Ltmp109:
	.loc	7 3026 16 is_stmt 1             @ libraries/STM32H7xx_HAL/STM32H7xx_HAL_Driver/Src/stm32h7xx_hal_uart.c:3026:16
	bl	HAL_RCC_GetPCLK1Freq
	.loc	7 3026 14 is_stmt 0             @ libraries/STM32H7xx_HAL/STM32H7xx_HAL_Driver/Src/stm32h7xx_hal_uart.c:3026:14
	str.w	r0, [sp, #1492]
	.loc	7 3027 31 is_stmt 1             @ libraries/STM32H7xx_HAL/STM32H7xx_HAL_Driver/Src/stm32h7xx_hal_uart.c:3027:31
	ldr.w	r0, [sp, #1492]
	str	r0, [sp, #748]                  @ 4-byte Spill
	ldr.w	r0, [sp, #1540]
	ldr	r0, [r0, #36]
	cbnz	r0, .LBB2_636
	b	.LBB2_635
.LBB2_635:
	.loc	7 0 31 is_stmt 0                @ libraries/STM32H7xx_HAL/STM32H7xx_HAL_Driver/Src/stm32h7xx_hal_uart.c:0:31
	movs	r0, #1
	.loc	7 3027 31                       @ libraries/STM32H7xx_HAL/STM32H7xx_HAL_Driver/Src/stm32h7xx_hal_uart.c:3027:31
	str	r0, [sp, #744]                  @ 4-byte Spill
	b	.LBB2_667
.LBB2_636:
	ldr.w	r0, [sp, #1540]
	ldr	r0, [r0, #36]
	cmp	r0, #1
	bne	.LBB2_638
	b	.LBB2_637
.LBB2_637:
	.loc	7 0 31                          @ libraries/STM32H7xx_HAL/STM32H7xx_HAL_Driver/Src/stm32h7xx_hal_uart.c:0:31
	movs	r0, #2
	.loc	7 3027 31                       @ libraries/STM32H7xx_HAL/STM32H7xx_HAL_Driver/Src/stm32h7xx_hal_uart.c:3027:31
	str	r0, [sp, #740]                  @ 4-byte Spill
	b	.LBB2_666
.LBB2_638:
	ldr.w	r0, [sp, #1540]
	ldr	r0, [r0, #36]
	cmp	r0, #2
	bne	.LBB2_640
	b	.LBB2_639
.LBB2_639:
	.loc	7 0 31                          @ libraries/STM32H7xx_HAL/STM32H7xx_HAL_Driver/Src/stm32h7xx_hal_uart.c:0:31
	movs	r0, #4
	.loc	7 3027 31                       @ libraries/STM32H7xx_HAL/STM32H7xx_HAL_Driver/Src/stm32h7xx_hal_uart.c:3027:31
	str	r0, [sp, #736]                  @ 4-byte Spill
	b	.LBB2_665
.LBB2_640:
	ldr.w	r0, [sp, #1540]
	ldr	r0, [r0, #36]
	cmp	r0, #3
	bne	.LBB2_642
	b	.LBB2_641
.LBB2_641:
	.loc	7 0 31                          @ libraries/STM32H7xx_HAL/STM32H7xx_HAL_Driver/Src/stm32h7xx_hal_uart.c:0:31
	movs	r0, #6
	.loc	7 3027 31                       @ libraries/STM32H7xx_HAL/STM32H7xx_HAL_Driver/Src/stm32h7xx_hal_uart.c:3027:31
	str	r0, [sp, #732]                  @ 4-byte Spill
	b	.LBB2_664
.LBB2_642:
	ldr.w	r0, [sp, #1540]
	ldr	r0, [r0, #36]
	cmp	r0, #4
	bne	.LBB2_644
	b	.LBB2_643
.LBB2_643:
	.loc	7 0 31                          @ libraries/STM32H7xx_HAL/STM32H7xx_HAL_Driver/Src/stm32h7xx_hal_uart.c:0:31
	movs	r0, #8
	.loc	7 3027 31                       @ libraries/STM32H7xx_HAL/STM32H7xx_HAL_Driver/Src/stm32h7xx_hal_uart.c:3027:31
	str	r0, [sp, #728]                  @ 4-byte Spill
	b	.LBB2_663
.LBB2_644:
	ldr.w	r0, [sp, #1540]
	ldr	r0, [r0, #36]
	cmp	r0, #5
	bne	.LBB2_646
	b	.LBB2_645
.LBB2_645:
	.loc	7 0 31                          @ libraries/STM32H7xx_HAL/STM32H7xx_HAL_Driver/Src/stm32h7xx_hal_uart.c:0:31
	movs	r0, #10
	.loc	7 3027 31                       @ libraries/STM32H7xx_HAL/STM32H7xx_HAL_Driver/Src/stm32h7xx_hal_uart.c:3027:31
	str	r0, [sp, #724]                  @ 4-byte Spill
	b	.LBB2_662
.LBB2_646:
	ldr.w	r0, [sp, #1540]
	ldr	r0, [r0, #36]
	cmp	r0, #6
	bne	.LBB2_648
	b	.LBB2_647
.LBB2_647:
	.loc	7 0 31                          @ libraries/STM32H7xx_HAL/STM32H7xx_HAL_Driver/Src/stm32h7xx_hal_uart.c:0:31
	movs	r0, #12
	.loc	7 3027 31                       @ libraries/STM32H7xx_HAL/STM32H7xx_HAL_Driver/Src/stm32h7xx_hal_uart.c:3027:31
	str	r0, [sp, #720]                  @ 4-byte Spill
	b	.LBB2_661
.LBB2_648:
	ldr.w	r0, [sp, #1540]
	ldr	r0, [r0, #36]
	cmp	r0, #7
	bne	.LBB2_650
	b	.LBB2_649
.LBB2_649:
	.loc	7 0 31                          @ libraries/STM32H7xx_HAL/STM32H7xx_HAL_Driver/Src/stm32h7xx_hal_uart.c:0:31
	movs	r0, #16
	.loc	7 3027 31                       @ libraries/STM32H7xx_HAL/STM32H7xx_HAL_Driver/Src/stm32h7xx_hal_uart.c:3027:31
	str	r0, [sp, #716]                  @ 4-byte Spill
	b	.LBB2_660
.LBB2_650:
	ldr.w	r0, [sp, #1540]
	ldr	r0, [r0, #36]
	cmp	r0, #8
	bne	.LBB2_652
	b	.LBB2_651
.LBB2_651:
	.loc	7 0 31                          @ libraries/STM32H7xx_HAL/STM32H7xx_HAL_Driver/Src/stm32h7xx_hal_uart.c:0:31
	movs	r0, #32
	.loc	7 3027 31                       @ libraries/STM32H7xx_HAL/STM32H7xx_HAL_Driver/Src/stm32h7xx_hal_uart.c:3027:31
	str	r0, [sp, #712]                  @ 4-byte Spill
	b	.LBB2_659
.LBB2_652:
	ldr.w	r0, [sp, #1540]
	ldr	r0, [r0, #36]
	cmp	r0, #9
	bne	.LBB2_654
	b	.LBB2_653
.LBB2_653:
	.loc	7 0 31                          @ libraries/STM32H7xx_HAL/STM32H7xx_HAL_Driver/Src/stm32h7xx_hal_uart.c:0:31
	movs	r0, #64
	.loc	7 3027 31                       @ libraries/STM32H7xx_HAL/STM32H7xx_HAL_Driver/Src/stm32h7xx_hal_uart.c:3027:31
	str	r0, [sp, #708]                  @ 4-byte Spill
	b	.LBB2_658
.LBB2_654:
	ldr.w	r0, [sp, #1540]
	ldr	r0, [r0, #36]
	cmp	r0, #10
	bne	.LBB2_656
	b	.LBB2_655
.LBB2_655:
	.loc	7 0 31                          @ libraries/STM32H7xx_HAL/STM32H7xx_HAL_Driver/Src/stm32h7xx_hal_uart.c:0:31
	movs	r0, #128
	.loc	7 3027 31                       @ libraries/STM32H7xx_HAL/STM32H7xx_HAL_Driver/Src/stm32h7xx_hal_uart.c:3027:31
	str	r0, [sp, #704]                  @ 4-byte Spill
	b	.LBB2_657
.LBB2_656:
	ldr.w	r0, [sp, #1540]
	ldr	r1, [r0, #36]
	movs	r0, #1
	cmp	r1, #11
	it	eq
	moveq.w	r0, #256
	str	r0, [sp, #704]                  @ 4-byte Spill
	b	.LBB2_657
.LBB2_657:
	ldr	r0, [sp, #704]                  @ 4-byte Reload
	str	r0, [sp, #708]                  @ 4-byte Spill
	b	.LBB2_658
.LBB2_658:
	ldr	r0, [sp, #708]                  @ 4-byte Reload
	str	r0, [sp, #712]                  @ 4-byte Spill
	b	.LBB2_659
.LBB2_659:
	ldr	r0, [sp, #712]                  @ 4-byte Reload
	str	r0, [sp, #716]                  @ 4-byte Spill
	b	.LBB2_660
.LBB2_660:
	ldr	r0, [sp, #716]                  @ 4-byte Reload
	str	r0, [sp, #720]                  @ 4-byte Spill
	b	.LBB2_661
.LBB2_661:
	ldr	r0, [sp, #720]                  @ 4-byte Reload
	str	r0, [sp, #724]                  @ 4-byte Spill
	b	.LBB2_662
.LBB2_662:
	ldr	r0, [sp, #724]                  @ 4-byte Reload
	str	r0, [sp, #728]                  @ 4-byte Spill
	b	.LBB2_663
.LBB2_663:
	ldr	r0, [sp, #728]                  @ 4-byte Reload
	str	r0, [sp, #732]                  @ 4-byte Spill
	b	.LBB2_664
.LBB2_664:
	ldr	r0, [sp, #732]                  @ 4-byte Reload
	str	r0, [sp, #736]                  @ 4-byte Spill
	b	.LBB2_665
.LBB2_665:
	ldr	r0, [sp, #736]                  @ 4-byte Reload
	str	r0, [sp, #740]                  @ 4-byte Spill
	b	.LBB2_666
.LBB2_666:
	ldr	r0, [sp, #740]                  @ 4-byte Reload
	str	r0, [sp, #744]                  @ 4-byte Spill
	b	.LBB2_667
.LBB2_667:
	ldr	r0, [sp, #748]                  @ 4-byte Reload
	ldr	r1, [sp, #744]                  @ 4-byte Reload
	udiv	r0, r0, r1
	lsls	r0, r0, #1
	ldr.w	r1, [sp, #1540]
	ldr	r1, [r1, #4]
	add.w	r0, r0, r1, lsr #1
	udiv	r0, r0, r1
	.loc	7 3027 20                       @ libraries/STM32H7xx_HAL/STM32H7xx_HAL_Driver/Src/stm32h7xx_hal_uart.c:3027:20
	uxth	r0, r0
	.loc	7 3027 18                       @ libraries/STM32H7xx_HAL/STM32H7xx_HAL_Driver/Src/stm32h7xx_hal_uart.c:3027:18
	str.w	r0, [sp, #1528]
	.loc	7 3028 9 is_stmt 1              @ libraries/STM32H7xx_HAL/STM32H7xx_HAL_Driver/Src/stm32h7xx_hal_uart.c:3028:9
	b.w	.LBB2_909
.LBB2_668:
	.loc	7 3030 16                       @ libraries/STM32H7xx_HAL/STM32H7xx_HAL_Driver/Src/stm32h7xx_hal_uart.c:3030:16
	bl	HAL_RCC_GetPCLK2Freq
	.loc	7 3030 14 is_stmt 0             @ libraries/STM32H7xx_HAL/STM32H7xx_HAL_Driver/Src/stm32h7xx_hal_uart.c:3030:14
	str.w	r0, [sp, #1492]
	.loc	7 3031 31 is_stmt 1             @ libraries/STM32H7xx_HAL/STM32H7xx_HAL_Driver/Src/stm32h7xx_hal_uart.c:3031:31
	ldr.w	r0, [sp, #1492]
	str	r0, [sp, #700]                  @ 4-byte Spill
	ldr.w	r0, [sp, #1540]
	ldr	r0, [r0, #36]
	cbnz	r0, .LBB2_670
	b	.LBB2_669
.LBB2_669:
	.loc	7 0 31 is_stmt 0                @ libraries/STM32H7xx_HAL/STM32H7xx_HAL_Driver/Src/stm32h7xx_hal_uart.c:0:31
	movs	r0, #1
	.loc	7 3031 31                       @ libraries/STM32H7xx_HAL/STM32H7xx_HAL_Driver/Src/stm32h7xx_hal_uart.c:3031:31
	str	r0, [sp, #696]                  @ 4-byte Spill
	b	.LBB2_701
.LBB2_670:
	ldr.w	r0, [sp, #1540]
	ldr	r0, [r0, #36]
	cmp	r0, #1
	bne	.LBB2_672
	b	.LBB2_671
.LBB2_671:
	.loc	7 0 31                          @ libraries/STM32H7xx_HAL/STM32H7xx_HAL_Driver/Src/stm32h7xx_hal_uart.c:0:31
	movs	r0, #2
	.loc	7 3031 31                       @ libraries/STM32H7xx_HAL/STM32H7xx_HAL_Driver/Src/stm32h7xx_hal_uart.c:3031:31
	str	r0, [sp, #692]                  @ 4-byte Spill
	b	.LBB2_700
.LBB2_672:
	ldr.w	r0, [sp, #1540]
	ldr	r0, [r0, #36]
	cmp	r0, #2
	bne	.LBB2_674
	b	.LBB2_673
.LBB2_673:
	.loc	7 0 31                          @ libraries/STM32H7xx_HAL/STM32H7xx_HAL_Driver/Src/stm32h7xx_hal_uart.c:0:31
	movs	r0, #4
	.loc	7 3031 31                       @ libraries/STM32H7xx_HAL/STM32H7xx_HAL_Driver/Src/stm32h7xx_hal_uart.c:3031:31
	str	r0, [sp, #688]                  @ 4-byte Spill
	b	.LBB2_699
.LBB2_674:
	ldr.w	r0, [sp, #1540]
	ldr	r0, [r0, #36]
	cmp	r0, #3
	bne	.LBB2_676
	b	.LBB2_675
.LBB2_675:
	.loc	7 0 31                          @ libraries/STM32H7xx_HAL/STM32H7xx_HAL_Driver/Src/stm32h7xx_hal_uart.c:0:31
	movs	r0, #6
	.loc	7 3031 31                       @ libraries/STM32H7xx_HAL/STM32H7xx_HAL_Driver/Src/stm32h7xx_hal_uart.c:3031:31
	str	r0, [sp, #684]                  @ 4-byte Spill
	b	.LBB2_698
.LBB2_676:
	ldr.w	r0, [sp, #1540]
	ldr	r0, [r0, #36]
	cmp	r0, #4
	bne	.LBB2_678
	b	.LBB2_677
.LBB2_677:
	.loc	7 0 31                          @ libraries/STM32H7xx_HAL/STM32H7xx_HAL_Driver/Src/stm32h7xx_hal_uart.c:0:31
	movs	r0, #8
	.loc	7 3031 31                       @ libraries/STM32H7xx_HAL/STM32H7xx_HAL_Driver/Src/stm32h7xx_hal_uart.c:3031:31
	str	r0, [sp, #680]                  @ 4-byte Spill
	b	.LBB2_697
.LBB2_678:
	ldr.w	r0, [sp, #1540]
	ldr	r0, [r0, #36]
	cmp	r0, #5
	bne	.LBB2_680
	b	.LBB2_679
.LBB2_679:
	.loc	7 0 31                          @ libraries/STM32H7xx_HAL/STM32H7xx_HAL_Driver/Src/stm32h7xx_hal_uart.c:0:31
	movs	r0, #10
	.loc	7 3031 31                       @ libraries/STM32H7xx_HAL/STM32H7xx_HAL_Driver/Src/stm32h7xx_hal_uart.c:3031:31
	str	r0, [sp, #676]                  @ 4-byte Spill
	b	.LBB2_696
.LBB2_680:
	ldr.w	r0, [sp, #1540]
	ldr	r0, [r0, #36]
	cmp	r0, #6
	bne	.LBB2_682
	b	.LBB2_681
.LBB2_681:
	.loc	7 0 31                          @ libraries/STM32H7xx_HAL/STM32H7xx_HAL_Driver/Src/stm32h7xx_hal_uart.c:0:31
	movs	r0, #12
	.loc	7 3031 31                       @ libraries/STM32H7xx_HAL/STM32H7xx_HAL_Driver/Src/stm32h7xx_hal_uart.c:3031:31
	str	r0, [sp, #672]                  @ 4-byte Spill
	b	.LBB2_695
.LBB2_682:
	ldr.w	r0, [sp, #1540]
	ldr	r0, [r0, #36]
	cmp	r0, #7
	bne	.LBB2_684
	b	.LBB2_683
.LBB2_683:
	.loc	7 0 31                          @ libraries/STM32H7xx_HAL/STM32H7xx_HAL_Driver/Src/stm32h7xx_hal_uart.c:0:31
	movs	r0, #16
	.loc	7 3031 31                       @ libraries/STM32H7xx_HAL/STM32H7xx_HAL_Driver/Src/stm32h7xx_hal_uart.c:3031:31
	str	r0, [sp, #668]                  @ 4-byte Spill
	b	.LBB2_694
.LBB2_684:
	ldr.w	r0, [sp, #1540]
	ldr	r0, [r0, #36]
	cmp	r0, #8
	bne	.LBB2_686
	b	.LBB2_685
.LBB2_685:
	.loc	7 0 31                          @ libraries/STM32H7xx_HAL/STM32H7xx_HAL_Driver/Src/stm32h7xx_hal_uart.c:0:31
	movs	r0, #32
	.loc	7 3031 31                       @ libraries/STM32H7xx_HAL/STM32H7xx_HAL_Driver/Src/stm32h7xx_hal_uart.c:3031:31
	str	r0, [sp, #664]                  @ 4-byte Spill
	b	.LBB2_693
.LBB2_686:
	ldr.w	r0, [sp, #1540]
	ldr	r0, [r0, #36]
	cmp	r0, #9
	bne	.LBB2_688
	b	.LBB2_687
.LBB2_687:
	.loc	7 0 31                          @ libraries/STM32H7xx_HAL/STM32H7xx_HAL_Driver/Src/stm32h7xx_hal_uart.c:0:31
	movs	r0, #64
	.loc	7 3031 31                       @ libraries/STM32H7xx_HAL/STM32H7xx_HAL_Driver/Src/stm32h7xx_hal_uart.c:3031:31
	str	r0, [sp, #660]                  @ 4-byte Spill
	b	.LBB2_692
.LBB2_688:
	ldr.w	r0, [sp, #1540]
	ldr	r0, [r0, #36]
	cmp	r0, #10
	bne	.LBB2_690
	b	.LBB2_689
.LBB2_689:
	.loc	7 0 31                          @ libraries/STM32H7xx_HAL/STM32H7xx_HAL_Driver/Src/stm32h7xx_hal_uart.c:0:31
	movs	r0, #128
	.loc	7 3031 31                       @ libraries/STM32H7xx_HAL/STM32H7xx_HAL_Driver/Src/stm32h7xx_hal_uart.c:3031:31
	str	r0, [sp, #656]                  @ 4-byte Spill
	b	.LBB2_691
.LBB2_690:
	ldr.w	r0, [sp, #1540]
	ldr	r1, [r0, #36]
	movs	r0, #1
	cmp	r1, #11
	it	eq
	moveq.w	r0, #256
	str	r0, [sp, #656]                  @ 4-byte Spill
	b	.LBB2_691
.LBB2_691:
	ldr	r0, [sp, #656]                  @ 4-byte Reload
	str	r0, [sp, #660]                  @ 4-byte Spill
	b	.LBB2_692
.LBB2_692:
	ldr	r0, [sp, #660]                  @ 4-byte Reload
	str	r0, [sp, #664]                  @ 4-byte Spill
	b	.LBB2_693
.LBB2_693:
	ldr	r0, [sp, #664]                  @ 4-byte Reload
	str	r0, [sp, #668]                  @ 4-byte Spill
	b	.LBB2_694
.LBB2_694:
	ldr	r0, [sp, #668]                  @ 4-byte Reload
	str	r0, [sp, #672]                  @ 4-byte Spill
	b	.LBB2_695
.LBB2_695:
	ldr	r0, [sp, #672]                  @ 4-byte Reload
	str	r0, [sp, #676]                  @ 4-byte Spill
	b	.LBB2_696
.LBB2_696:
	ldr	r0, [sp, #676]                  @ 4-byte Reload
	str	r0, [sp, #680]                  @ 4-byte Spill
	b	.LBB2_697
.LBB2_697:
	ldr	r0, [sp, #680]                  @ 4-byte Reload
	str	r0, [sp, #684]                  @ 4-byte Spill
	b	.LBB2_698
.LBB2_698:
	ldr	r0, [sp, #684]                  @ 4-byte Reload
	str	r0, [sp, #688]                  @ 4-byte Spill
	b	.LBB2_699
.LBB2_699:
	ldr	r0, [sp, #688]                  @ 4-byte Reload
	str	r0, [sp, #692]                  @ 4-byte Spill
	b	.LBB2_700
.LBB2_700:
	ldr	r0, [sp, #692]                  @ 4-byte Reload
	str	r0, [sp, #696]                  @ 4-byte Spill
	b	.LBB2_701
.LBB2_701:
	ldr	r0, [sp, #700]                  @ 4-byte Reload
	ldr	r1, [sp, #696]                  @ 4-byte Reload
	udiv	r0, r0, r1
	lsls	r0, r0, #1
	ldr.w	r1, [sp, #1540]
	ldr	r1, [r1, #4]
	add.w	r0, r0, r1, lsr #1
	udiv	r0, r0, r1
	.loc	7 3031 20                       @ libraries/STM32H7xx_HAL/STM32H7xx_HAL_Driver/Src/stm32h7xx_hal_uart.c:3031:20
	uxth	r0, r0
	.loc	7 3031 18                       @ libraries/STM32H7xx_HAL/STM32H7xx_HAL_Driver/Src/stm32h7xx_hal_uart.c:3031:18
	str.w	r0, [sp, #1528]
	.loc	7 3032 9 is_stmt 1              @ libraries/STM32H7xx_HAL/STM32H7xx_HAL_Driver/Src/stm32h7xx_hal_uart.c:3032:9
	b	.LBB2_909
.LBB2_702:
	.loc	7 0 9 is_stmt 0                 @ libraries/STM32H7xx_HAL/STM32H7xx_HAL_Driver/Src/stm32h7xx_hal_uart.c:0:9
	addw	r0, sp, #1508
	.loc	7 3034 9 is_stmt 1              @ libraries/STM32H7xx_HAL/STM32H7xx_HAL_Driver/Src/stm32h7xx_hal_uart.c:3034:9
	bl	HAL_RCCEx_GetPLL2ClockFreq
	.loc	7 3035 31                       @ libraries/STM32H7xx_HAL/STM32H7xx_HAL_Driver/Src/stm32h7xx_hal_uart.c:3035:31
	ldr.w	r0, [sp, #1512]
	str	r0, [sp, #652]                  @ 4-byte Spill
	ldr.w	r0, [sp, #1540]
	ldr	r0, [r0, #36]
	cbnz	r0, .LBB2_704
	b	.LBB2_703
.LBB2_703:
	.loc	7 0 31 is_stmt 0                @ libraries/STM32H7xx_HAL/STM32H7xx_HAL_Driver/Src/stm32h7xx_hal_uart.c:0:31
	movs	r0, #1
	.loc	7 3035 31                       @ libraries/STM32H7xx_HAL/STM32H7xx_HAL_Driver/Src/stm32h7xx_hal_uart.c:3035:31
	str	r0, [sp, #648]                  @ 4-byte Spill
	b	.LBB2_735
.LBB2_704:
	ldr.w	r0, [sp, #1540]
	ldr	r0, [r0, #36]
	cmp	r0, #1
	bne	.LBB2_706
	b	.LBB2_705
.LBB2_705:
	.loc	7 0 31                          @ libraries/STM32H7xx_HAL/STM32H7xx_HAL_Driver/Src/stm32h7xx_hal_uart.c:0:31
	movs	r0, #2
	.loc	7 3035 31                       @ libraries/STM32H7xx_HAL/STM32H7xx_HAL_Driver/Src/stm32h7xx_hal_uart.c:3035:31
	str	r0, [sp, #644]                  @ 4-byte Spill
	b	.LBB2_734
.LBB2_706:
	ldr.w	r0, [sp, #1540]
	ldr	r0, [r0, #36]
	cmp	r0, #2
	bne	.LBB2_708
	b	.LBB2_707
.LBB2_707:
	.loc	7 0 31                          @ libraries/STM32H7xx_HAL/STM32H7xx_HAL_Driver/Src/stm32h7xx_hal_uart.c:0:31
	movs	r0, #4
	.loc	7 3035 31                       @ libraries/STM32H7xx_HAL/STM32H7xx_HAL_Driver/Src/stm32h7xx_hal_uart.c:3035:31
	str	r0, [sp, #640]                  @ 4-byte Spill
	b	.LBB2_733
.LBB2_708:
	ldr.w	r0, [sp, #1540]
	ldr	r0, [r0, #36]
	cmp	r0, #3
	bne	.LBB2_710
	b	.LBB2_709
.LBB2_709:
	.loc	7 0 31                          @ libraries/STM32H7xx_HAL/STM32H7xx_HAL_Driver/Src/stm32h7xx_hal_uart.c:0:31
	movs	r0, #6
	.loc	7 3035 31                       @ libraries/STM32H7xx_HAL/STM32H7xx_HAL_Driver/Src/stm32h7xx_hal_uart.c:3035:31
	str	r0, [sp, #636]                  @ 4-byte Spill
	b	.LBB2_732
.LBB2_710:
	ldr.w	r0, [sp, #1540]
	ldr	r0, [r0, #36]
	cmp	r0, #4
	bne	.LBB2_712
	b	.LBB2_711
.LBB2_711:
	.loc	7 0 31                          @ libraries/STM32H7xx_HAL/STM32H7xx_HAL_Driver/Src/stm32h7xx_hal_uart.c:0:31
	movs	r0, #8
	.loc	7 3035 31                       @ libraries/STM32H7xx_HAL/STM32H7xx_HAL_Driver/Src/stm32h7xx_hal_uart.c:3035:31
	str	r0, [sp, #632]                  @ 4-byte Spill
	b	.LBB2_731
.LBB2_712:
	ldr.w	r0, [sp, #1540]
	ldr	r0, [r0, #36]
	cmp	r0, #5
	bne	.LBB2_714
	b	.LBB2_713
.LBB2_713:
	.loc	7 0 31                          @ libraries/STM32H7xx_HAL/STM32H7xx_HAL_Driver/Src/stm32h7xx_hal_uart.c:0:31
	movs	r0, #10
	.loc	7 3035 31                       @ libraries/STM32H7xx_HAL/STM32H7xx_HAL_Driver/Src/stm32h7xx_hal_uart.c:3035:31
	str	r0, [sp, #628]                  @ 4-byte Spill
	b	.LBB2_730
.LBB2_714:
	ldr.w	r0, [sp, #1540]
	ldr	r0, [r0, #36]
	cmp	r0, #6
	bne	.LBB2_716
	b	.LBB2_715
.LBB2_715:
	.loc	7 0 31                          @ libraries/STM32H7xx_HAL/STM32H7xx_HAL_Driver/Src/stm32h7xx_hal_uart.c:0:31
	movs	r0, #12
	.loc	7 3035 31                       @ libraries/STM32H7xx_HAL/STM32H7xx_HAL_Driver/Src/stm32h7xx_hal_uart.c:3035:31
	str	r0, [sp, #624]                  @ 4-byte Spill
	b	.LBB2_729
.LBB2_716:
	ldr.w	r0, [sp, #1540]
	ldr	r0, [r0, #36]
	cmp	r0, #7
	bne	.LBB2_718
	b	.LBB2_717
.LBB2_717:
	.loc	7 0 31                          @ libraries/STM32H7xx_HAL/STM32H7xx_HAL_Driver/Src/stm32h7xx_hal_uart.c:0:31
	movs	r0, #16
	.loc	7 3035 31                       @ libraries/STM32H7xx_HAL/STM32H7xx_HAL_Driver/Src/stm32h7xx_hal_uart.c:3035:31
	str	r0, [sp, #620]                  @ 4-byte Spill
	b	.LBB2_728
.LBB2_718:
	ldr.w	r0, [sp, #1540]
	ldr	r0, [r0, #36]
	cmp	r0, #8
	bne	.LBB2_720
	b	.LBB2_719
.LBB2_719:
	.loc	7 0 31                          @ libraries/STM32H7xx_HAL/STM32H7xx_HAL_Driver/Src/stm32h7xx_hal_uart.c:0:31
	movs	r0, #32
	.loc	7 3035 31                       @ libraries/STM32H7xx_HAL/STM32H7xx_HAL_Driver/Src/stm32h7xx_hal_uart.c:3035:31
	str	r0, [sp, #616]                  @ 4-byte Spill
	b	.LBB2_727
.LBB2_720:
	ldr.w	r0, [sp, #1540]
	ldr	r0, [r0, #36]
	cmp	r0, #9
	bne	.LBB2_722
	b	.LBB2_721
.LBB2_721:
	.loc	7 0 31                          @ libraries/STM32H7xx_HAL/STM32H7xx_HAL_Driver/Src/stm32h7xx_hal_uart.c:0:31
	movs	r0, #64
	.loc	7 3035 31                       @ libraries/STM32H7xx_HAL/STM32H7xx_HAL_Driver/Src/stm32h7xx_hal_uart.c:3035:31
	str	r0, [sp, #612]                  @ 4-byte Spill
	b	.LBB2_726
.LBB2_722:
	ldr.w	r0, [sp, #1540]
	ldr	r0, [r0, #36]
	cmp	r0, #10
	bne	.LBB2_724
	b	.LBB2_723
.LBB2_723:
	.loc	7 0 31                          @ libraries/STM32H7xx_HAL/STM32H7xx_HAL_Driver/Src/stm32h7xx_hal_uart.c:0:31
	movs	r0, #128
	.loc	7 3035 31                       @ libraries/STM32H7xx_HAL/STM32H7xx_HAL_Driver/Src/stm32h7xx_hal_uart.c:3035:31
	str	r0, [sp, #608]                  @ 4-byte Spill
	b	.LBB2_725
.LBB2_724:
	ldr.w	r0, [sp, #1540]
	ldr	r1, [r0, #36]
	movs	r0, #1
	cmp	r1, #11
	it	eq
	moveq.w	r0, #256
	str	r0, [sp, #608]                  @ 4-byte Spill
	b	.LBB2_725
.LBB2_725:
	ldr	r0, [sp, #608]                  @ 4-byte Reload
	str	r0, [sp, #612]                  @ 4-byte Spill
	b	.LBB2_726
.LBB2_726:
	ldr	r0, [sp, #612]                  @ 4-byte Reload
	str	r0, [sp, #616]                  @ 4-byte Spill
	b	.LBB2_727
.LBB2_727:
	ldr	r0, [sp, #616]                  @ 4-byte Reload
	str	r0, [sp, #620]                  @ 4-byte Spill
	b	.LBB2_728
.LBB2_728:
	ldr	r0, [sp, #620]                  @ 4-byte Reload
	str	r0, [sp, #624]                  @ 4-byte Spill
	b	.LBB2_729
.LBB2_729:
	ldr	r0, [sp, #624]                  @ 4-byte Reload
	str	r0, [sp, #628]                  @ 4-byte Spill
	b	.LBB2_730
.LBB2_730:
	ldr	r0, [sp, #628]                  @ 4-byte Reload
	str	r0, [sp, #632]                  @ 4-byte Spill
	b	.LBB2_731
.LBB2_731:
	ldr	r0, [sp, #632]                  @ 4-byte Reload
	str	r0, [sp, #636]                  @ 4-byte Spill
	b	.LBB2_732
.LBB2_732:
	ldr	r0, [sp, #636]                  @ 4-byte Reload
	str	r0, [sp, #640]                  @ 4-byte Spill
	b	.LBB2_733
.LBB2_733:
	ldr	r0, [sp, #640]                  @ 4-byte Reload
	str	r0, [sp, #644]                  @ 4-byte Spill
	b	.LBB2_734
.LBB2_734:
	ldr	r0, [sp, #644]                  @ 4-byte Reload
	str	r0, [sp, #648]                  @ 4-byte Spill
	b	.LBB2_735
.LBB2_735:
	ldr	r0, [sp, #652]                  @ 4-byte Reload
	ldr	r1, [sp, #648]                  @ 4-byte Reload
	udiv	r0, r0, r1
	lsls	r0, r0, #1
	ldr.w	r1, [sp, #1540]
	ldr	r1, [r1, #4]
	add.w	r0, r0, r1, lsr #1
	udiv	r0, r0, r1
	.loc	7 3035 20                       @ libraries/STM32H7xx_HAL/STM32H7xx_HAL_Driver/Src/stm32h7xx_hal_uart.c:3035:20
	uxth	r0, r0
	.loc	7 3035 18                       @ libraries/STM32H7xx_HAL/STM32H7xx_HAL_Driver/Src/stm32h7xx_hal_uart.c:3035:18
	str.w	r0, [sp, #1528]
	.loc	7 3036 9 is_stmt 1              @ libraries/STM32H7xx_HAL/STM32H7xx_HAL_Driver/Src/stm32h7xx_hal_uart.c:3036:9
	b	.LBB2_909
.LBB2_736:
	.loc	7 0 9 is_stmt 0                 @ libraries/STM32H7xx_HAL/STM32H7xx_HAL_Driver/Src/stm32h7xx_hal_uart.c:0:9
	add.w	r0, sp, #1496
	.loc	7 3038 9 is_stmt 1              @ libraries/STM32H7xx_HAL/STM32H7xx_HAL_Driver/Src/stm32h7xx_hal_uart.c:3038:9
	bl	HAL_RCCEx_GetPLL3ClockFreq
	.loc	7 3039 31                       @ libraries/STM32H7xx_HAL/STM32H7xx_HAL_Driver/Src/stm32h7xx_hal_uart.c:3039:31
	ldr.w	r0, [sp, #1500]
	str	r0, [sp, #604]                  @ 4-byte Spill
	ldr.w	r0, [sp, #1540]
	ldr	r0, [r0, #36]
	cbnz	r0, .LBB2_738
	b	.LBB2_737
.LBB2_737:
	.loc	7 0 31 is_stmt 0                @ libraries/STM32H7xx_HAL/STM32H7xx_HAL_Driver/Src/stm32h7xx_hal_uart.c:0:31
	movs	r0, #1
	.loc	7 3039 31                       @ libraries/STM32H7xx_HAL/STM32H7xx_HAL_Driver/Src/stm32h7xx_hal_uart.c:3039:31
	str	r0, [sp, #600]                  @ 4-byte Spill
	b	.LBB2_769
.LBB2_738:
	ldr.w	r0, [sp, #1540]
	ldr	r0, [r0, #36]
	cmp	r0, #1
	bne	.LBB2_740
	b	.LBB2_739
.LBB2_739:
	.loc	7 0 31                          @ libraries/STM32H7xx_HAL/STM32H7xx_HAL_Driver/Src/stm32h7xx_hal_uart.c:0:31
	movs	r0, #2
	.loc	7 3039 31                       @ libraries/STM32H7xx_HAL/STM32H7xx_HAL_Driver/Src/stm32h7xx_hal_uart.c:3039:31
	str	r0, [sp, #596]                  @ 4-byte Spill
	b	.LBB2_768
.LBB2_740:
	ldr.w	r0, [sp, #1540]
	ldr	r0, [r0, #36]
	cmp	r0, #2
	bne	.LBB2_742
	b	.LBB2_741
.LBB2_741:
	.loc	7 0 31                          @ libraries/STM32H7xx_HAL/STM32H7xx_HAL_Driver/Src/stm32h7xx_hal_uart.c:0:31
	movs	r0, #4
	.loc	7 3039 31                       @ libraries/STM32H7xx_HAL/STM32H7xx_HAL_Driver/Src/stm32h7xx_hal_uart.c:3039:31
	str	r0, [sp, #592]                  @ 4-byte Spill
	b	.LBB2_767
.LBB2_742:
	ldr.w	r0, [sp, #1540]
	ldr	r0, [r0, #36]
	cmp	r0, #3
	bne	.LBB2_744
	b	.LBB2_743
.LBB2_743:
	.loc	7 0 31                          @ libraries/STM32H7xx_HAL/STM32H7xx_HAL_Driver/Src/stm32h7xx_hal_uart.c:0:31
	movs	r0, #6
	.loc	7 3039 31                       @ libraries/STM32H7xx_HAL/STM32H7xx_HAL_Driver/Src/stm32h7xx_hal_uart.c:3039:31
	str	r0, [sp, #588]                  @ 4-byte Spill
	b	.LBB2_766
.LBB2_744:
	ldr.w	r0, [sp, #1540]
	ldr	r0, [r0, #36]
	cmp	r0, #4
	bne	.LBB2_746
	b	.LBB2_745
.LBB2_745:
	.loc	7 0 31                          @ libraries/STM32H7xx_HAL/STM32H7xx_HAL_Driver/Src/stm32h7xx_hal_uart.c:0:31
	movs	r0, #8
	.loc	7 3039 31                       @ libraries/STM32H7xx_HAL/STM32H7xx_HAL_Driver/Src/stm32h7xx_hal_uart.c:3039:31
	str	r0, [sp, #584]                  @ 4-byte Spill
	b	.LBB2_765
.LBB2_746:
	ldr.w	r0, [sp, #1540]
	ldr	r0, [r0, #36]
	cmp	r0, #5
	bne	.LBB2_748
	b	.LBB2_747
.LBB2_747:
	.loc	7 0 31                          @ libraries/STM32H7xx_HAL/STM32H7xx_HAL_Driver/Src/stm32h7xx_hal_uart.c:0:31
	movs	r0, #10
	.loc	7 3039 31                       @ libraries/STM32H7xx_HAL/STM32H7xx_HAL_Driver/Src/stm32h7xx_hal_uart.c:3039:31
	str	r0, [sp, #580]                  @ 4-byte Spill
	b	.LBB2_764
.LBB2_748:
	ldr.w	r0, [sp, #1540]
	ldr	r0, [r0, #36]
	cmp	r0, #6
	bne	.LBB2_750
	b	.LBB2_749
.LBB2_749:
	.loc	7 0 31                          @ libraries/STM32H7xx_HAL/STM32H7xx_HAL_Driver/Src/stm32h7xx_hal_uart.c:0:31
	movs	r0, #12
	.loc	7 3039 31                       @ libraries/STM32H7xx_HAL/STM32H7xx_HAL_Driver/Src/stm32h7xx_hal_uart.c:3039:31
	str	r0, [sp, #576]                  @ 4-byte Spill
	b	.LBB2_763
.LBB2_750:
	ldr.w	r0, [sp, #1540]
	ldr	r0, [r0, #36]
	cmp	r0, #7
	bne	.LBB2_752
	b	.LBB2_751
.LBB2_751:
	.loc	7 0 31                          @ libraries/STM32H7xx_HAL/STM32H7xx_HAL_Driver/Src/stm32h7xx_hal_uart.c:0:31
	movs	r0, #16
	.loc	7 3039 31                       @ libraries/STM32H7xx_HAL/STM32H7xx_HAL_Driver/Src/stm32h7xx_hal_uart.c:3039:31
	str	r0, [sp, #572]                  @ 4-byte Spill
	b	.LBB2_762
.LBB2_752:
	ldr.w	r0, [sp, #1540]
	ldr	r0, [r0, #36]
	cmp	r0, #8
	bne	.LBB2_754
	b	.LBB2_753
.LBB2_753:
	.loc	7 0 31                          @ libraries/STM32H7xx_HAL/STM32H7xx_HAL_Driver/Src/stm32h7xx_hal_uart.c:0:31
	movs	r0, #32
	.loc	7 3039 31                       @ libraries/STM32H7xx_HAL/STM32H7xx_HAL_Driver/Src/stm32h7xx_hal_uart.c:3039:31
	str	r0, [sp, #568]                  @ 4-byte Spill
	b	.LBB2_761
.LBB2_754:
	ldr.w	r0, [sp, #1540]
	ldr	r0, [r0, #36]
	cmp	r0, #9
	bne	.LBB2_756
	b	.LBB2_755
.LBB2_755:
	.loc	7 0 31                          @ libraries/STM32H7xx_HAL/STM32H7xx_HAL_Driver/Src/stm32h7xx_hal_uart.c:0:31
	movs	r0, #64
	.loc	7 3039 31                       @ libraries/STM32H7xx_HAL/STM32H7xx_HAL_Driver/Src/stm32h7xx_hal_uart.c:3039:31
	str	r0, [sp, #564]                  @ 4-byte Spill
	b	.LBB2_760
.LBB2_756:
	ldr.w	r0, [sp, #1540]
	ldr	r0, [r0, #36]
	cmp	r0, #10
	bne	.LBB2_758
	b	.LBB2_757
.LBB2_757:
	.loc	7 0 31                          @ libraries/STM32H7xx_HAL/STM32H7xx_HAL_Driver/Src/stm32h7xx_hal_uart.c:0:31
	movs	r0, #128
	.loc	7 3039 31                       @ libraries/STM32H7xx_HAL/STM32H7xx_HAL_Driver/Src/stm32h7xx_hal_uart.c:3039:31
	str	r0, [sp, #560]                  @ 4-byte Spill
	b	.LBB2_759
.LBB2_758:
	ldr.w	r0, [sp, #1540]
	ldr	r1, [r0, #36]
	movs	r0, #1
	cmp	r1, #11
	it	eq
	moveq.w	r0, #256
	str	r0, [sp, #560]                  @ 4-byte Spill
	b	.LBB2_759
.LBB2_759:
	ldr	r0, [sp, #560]                  @ 4-byte Reload
	str	r0, [sp, #564]                  @ 4-byte Spill
	b	.LBB2_760
.LBB2_760:
	ldr	r0, [sp, #564]                  @ 4-byte Reload
	str	r0, [sp, #568]                  @ 4-byte Spill
	b	.LBB2_761
.LBB2_761:
	ldr	r0, [sp, #568]                  @ 4-byte Reload
	str	r0, [sp, #572]                  @ 4-byte Spill
	b	.LBB2_762
.LBB2_762:
	ldr	r0, [sp, #572]                  @ 4-byte Reload
	str	r0, [sp, #576]                  @ 4-byte Spill
	b	.LBB2_763
.LBB2_763:
	ldr	r0, [sp, #576]                  @ 4-byte Reload
	str	r0, [sp, #580]                  @ 4-byte Spill
	b	.LBB2_764
.LBB2_764:
	ldr	r0, [sp, #580]                  @ 4-byte Reload
	str	r0, [sp, #584]                  @ 4-byte Spill
	b	.LBB2_765
.LBB2_765:
	ldr	r0, [sp, #584]                  @ 4-byte Reload
	str	r0, [sp, #588]                  @ 4-byte Spill
	b	.LBB2_766
.LBB2_766:
	ldr	r0, [sp, #588]                  @ 4-byte Reload
	str	r0, [sp, #592]                  @ 4-byte Spill
	b	.LBB2_767
.LBB2_767:
	ldr	r0, [sp, #592]                  @ 4-byte Reload
	str	r0, [sp, #596]                  @ 4-byte Spill
	b	.LBB2_768
.LBB2_768:
	ldr	r0, [sp, #596]                  @ 4-byte Reload
	str	r0, [sp, #600]                  @ 4-byte Spill
	b	.LBB2_769
.LBB2_769:
	ldr	r0, [sp, #604]                  @ 4-byte Reload
	ldr	r1, [sp, #600]                  @ 4-byte Reload
	udiv	r0, r0, r1
	lsls	r0, r0, #1
	ldr.w	r1, [sp, #1540]
	ldr	r1, [r1, #4]
	add.w	r0, r0, r1, lsr #1
	udiv	r0, r0, r1
	.loc	7 3039 20                       @ libraries/STM32H7xx_HAL/STM32H7xx_HAL_Driver/Src/stm32h7xx_hal_uart.c:3039:20
	uxth	r0, r0
	.loc	7 3039 18                       @ libraries/STM32H7xx_HAL/STM32H7xx_HAL_Driver/Src/stm32h7xx_hal_uart.c:3039:18
	str.w	r0, [sp, #1528]
	.loc	7 3040 9 is_stmt 1              @ libraries/STM32H7xx_HAL/STM32H7xx_HAL_Driver/Src/stm32h7xx_hal_uart.c:3040:9
	b	.LBB2_909
.LBB2_770:
	.loc	7 0 9 is_stmt 0                 @ libraries/STM32H7xx_HAL/STM32H7xx_HAL_Driver/Src/stm32h7xx_hal_uart.c:0:9
	movw	r0, #17408
	movt	r0, #22530
.Ltmp110:
	.loc	7 3042 13 is_stmt 1             @ libraries/STM32H7xx_HAL/STM32H7xx_HAL_Driver/Src/stm32h7xx_hal_uart.c:3042:13
	ldr	r0, [r0]
	and	r1, r0, #32
	movs	r0, #0
.Ltmp111:
	.loc	7 3042 13 is_stmt 0             @ libraries/STM32H7xx_HAL/STM32H7xx_HAL_Driver/Src/stm32h7xx_hal_uart.c:3042:13
	cmp.w	r0, r1, lsr #5
	beq.w	.LBB2_805
	b	.LBB2_771
.LBB2_771:
	.loc	7 0 13                          @ libraries/STM32H7xx_HAL/STM32H7xx_HAL_Driver/Src/stm32h7xx_hal_uart.c:0:13
	movw	r0, #17408
	movt	r0, #22530
.Ltmp112:
	.loc	7 3044 33 is_stmt 1             @ libraries/STM32H7xx_HAL/STM32H7xx_HAL_Driver/Src/stm32h7xx_hal_uart.c:3044:33
	ldr	r0, [r0]
	ubfx	r1, r0, #3, #2
	movw	r0, #36864
	movt	r0, #976
	lsrs	r0, r1
	str	r0, [sp, #556]                  @ 4-byte Spill
	ldr.w	r0, [sp, #1540]
	ldr	r0, [r0, #36]
	cbnz	r0, .LBB2_773
	b	.LBB2_772
.LBB2_772:
	.loc	7 0 33 is_stmt 0                @ libraries/STM32H7xx_HAL/STM32H7xx_HAL_Driver/Src/stm32h7xx_hal_uart.c:0:33
	movs	r0, #1
	.loc	7 3044 33                       @ libraries/STM32H7xx_HAL/STM32H7xx_HAL_Driver/Src/stm32h7xx_hal_uart.c:3044:33
	str	r0, [sp, #552]                  @ 4-byte Spill
	b	.LBB2_804
.LBB2_773:
	ldr.w	r0, [sp, #1540]
	ldr	r0, [r0, #36]
	cmp	r0, #1
	bne	.LBB2_775
	b	.LBB2_774
.LBB2_774:
	.loc	7 0 33                          @ libraries/STM32H7xx_HAL/STM32H7xx_HAL_Driver/Src/stm32h7xx_hal_uart.c:0:33
	movs	r0, #2
	.loc	7 3044 33                       @ libraries/STM32H7xx_HAL/STM32H7xx_HAL_Driver/Src/stm32h7xx_hal_uart.c:3044:33
	str	r0, [sp, #548]                  @ 4-byte Spill
	b	.LBB2_803
.LBB2_775:
	ldr.w	r0, [sp, #1540]
	ldr	r0, [r0, #36]
	cmp	r0, #2
	bne	.LBB2_777
	b	.LBB2_776
.LBB2_776:
	.loc	7 0 33                          @ libraries/STM32H7xx_HAL/STM32H7xx_HAL_Driver/Src/stm32h7xx_hal_uart.c:0:33
	movs	r0, #4
	.loc	7 3044 33                       @ libraries/STM32H7xx_HAL/STM32H7xx_HAL_Driver/Src/stm32h7xx_hal_uart.c:3044:33
	str	r0, [sp, #544]                  @ 4-byte Spill
	b	.LBB2_802
.LBB2_777:
	ldr.w	r0, [sp, #1540]
	ldr	r0, [r0, #36]
	cmp	r0, #3
	bne	.LBB2_779
	b	.LBB2_778
.LBB2_778:
	.loc	7 0 33                          @ libraries/STM32H7xx_HAL/STM32H7xx_HAL_Driver/Src/stm32h7xx_hal_uart.c:0:33
	movs	r0, #6
	.loc	7 3044 33                       @ libraries/STM32H7xx_HAL/STM32H7xx_HAL_Driver/Src/stm32h7xx_hal_uart.c:3044:33
	str	r0, [sp, #540]                  @ 4-byte Spill
	b	.LBB2_801
.LBB2_779:
	ldr.w	r0, [sp, #1540]
	ldr	r0, [r0, #36]
	cmp	r0, #4
	bne	.LBB2_781
	b	.LBB2_780
.LBB2_780:
	.loc	7 0 33                          @ libraries/STM32H7xx_HAL/STM32H7xx_HAL_Driver/Src/stm32h7xx_hal_uart.c:0:33
	movs	r0, #8
	.loc	7 3044 33                       @ libraries/STM32H7xx_HAL/STM32H7xx_HAL_Driver/Src/stm32h7xx_hal_uart.c:3044:33
	str	r0, [sp, #536]                  @ 4-byte Spill
	b	.LBB2_800
.LBB2_781:
	ldr.w	r0, [sp, #1540]
	ldr	r0, [r0, #36]
	cmp	r0, #5
	bne	.LBB2_783
	b	.LBB2_782
.LBB2_782:
	.loc	7 0 33                          @ libraries/STM32H7xx_HAL/STM32H7xx_HAL_Driver/Src/stm32h7xx_hal_uart.c:0:33
	movs	r0, #10
	.loc	7 3044 33                       @ libraries/STM32H7xx_HAL/STM32H7xx_HAL_Driver/Src/stm32h7xx_hal_uart.c:3044:33
	str	r0, [sp, #532]                  @ 4-byte Spill
	b	.LBB2_799
.LBB2_783:
	ldr.w	r0, [sp, #1540]
	ldr	r0, [r0, #36]
	cmp	r0, #6
	bne	.LBB2_785
	b	.LBB2_784
.LBB2_784:
	.loc	7 0 33                          @ libraries/STM32H7xx_HAL/STM32H7xx_HAL_Driver/Src/stm32h7xx_hal_uart.c:0:33
	movs	r0, #12
	.loc	7 3044 33                       @ libraries/STM32H7xx_HAL/STM32H7xx_HAL_Driver/Src/stm32h7xx_hal_uart.c:3044:33
	str	r0, [sp, #528]                  @ 4-byte Spill
	b	.LBB2_798
.LBB2_785:
	ldr.w	r0, [sp, #1540]
	ldr	r0, [r0, #36]
	cmp	r0, #7
	bne	.LBB2_787
	b	.LBB2_786
.LBB2_786:
	.loc	7 0 33                          @ libraries/STM32H7xx_HAL/STM32H7xx_HAL_Driver/Src/stm32h7xx_hal_uart.c:0:33
	movs	r0, #16
	.loc	7 3044 33                       @ libraries/STM32H7xx_HAL/STM32H7xx_HAL_Driver/Src/stm32h7xx_hal_uart.c:3044:33
	str	r0, [sp, #524]                  @ 4-byte Spill
	b	.LBB2_797
.LBB2_787:
	ldr.w	r0, [sp, #1540]
	ldr	r0, [r0, #36]
	cmp	r0, #8
	bne	.LBB2_789
	b	.LBB2_788
.LBB2_788:
	.loc	7 0 33                          @ libraries/STM32H7xx_HAL/STM32H7xx_HAL_Driver/Src/stm32h7xx_hal_uart.c:0:33
	movs	r0, #32
	.loc	7 3044 33                       @ libraries/STM32H7xx_HAL/STM32H7xx_HAL_Driver/Src/stm32h7xx_hal_uart.c:3044:33
	str	r0, [sp, #520]                  @ 4-byte Spill
	b	.LBB2_796
.LBB2_789:
	ldr.w	r0, [sp, #1540]
	ldr	r0, [r0, #36]
	cmp	r0, #9
	bne	.LBB2_791
	b	.LBB2_790
.LBB2_790:
	.loc	7 0 33                          @ libraries/STM32H7xx_HAL/STM32H7xx_HAL_Driver/Src/stm32h7xx_hal_uart.c:0:33
	movs	r0, #64
	.loc	7 3044 33                       @ libraries/STM32H7xx_HAL/STM32H7xx_HAL_Driver/Src/stm32h7xx_hal_uart.c:3044:33
	str	r0, [sp, #516]                  @ 4-byte Spill
	b	.LBB2_795
.LBB2_791:
	ldr.w	r0, [sp, #1540]
	ldr	r0, [r0, #36]
	cmp	r0, #10
	bne	.LBB2_793
	b	.LBB2_792
.LBB2_792:
	.loc	7 0 33                          @ libraries/STM32H7xx_HAL/STM32H7xx_HAL_Driver/Src/stm32h7xx_hal_uart.c:0:33
	movs	r0, #128
	.loc	7 3044 33                       @ libraries/STM32H7xx_HAL/STM32H7xx_HAL_Driver/Src/stm32h7xx_hal_uart.c:3044:33
	str	r0, [sp, #512]                  @ 4-byte Spill
	b	.LBB2_794
.LBB2_793:
	ldr.w	r0, [sp, #1540]
	ldr	r1, [r0, #36]
	movs	r0, #1
	cmp	r1, #11
	it	eq
	moveq.w	r0, #256
	str	r0, [sp, #512]                  @ 4-byte Spill
	b	.LBB2_794
.LBB2_794:
	ldr	r0, [sp, #512]                  @ 4-byte Reload
	str	r0, [sp, #516]                  @ 4-byte Spill
	b	.LBB2_795
.LBB2_795:
	ldr	r0, [sp, #516]                  @ 4-byte Reload
	str	r0, [sp, #520]                  @ 4-byte Spill
	b	.LBB2_796
.LBB2_796:
	ldr	r0, [sp, #520]                  @ 4-byte Reload
	str	r0, [sp, #524]                  @ 4-byte Spill
	b	.LBB2_797
.LBB2_797:
	ldr	r0, [sp, #524]                  @ 4-byte Reload
	str	r0, [sp, #528]                  @ 4-byte Spill
	b	.LBB2_798
.LBB2_798:
	ldr	r0, [sp, #528]                  @ 4-byte Reload
	str	r0, [sp, #532]                  @ 4-byte Spill
	b	.LBB2_799
.LBB2_799:
	ldr	r0, [sp, #532]                  @ 4-byte Reload
	str	r0, [sp, #536]                  @ 4-byte Spill
	b	.LBB2_800
.LBB2_800:
	ldr	r0, [sp, #536]                  @ 4-byte Reload
	str	r0, [sp, #540]                  @ 4-byte Spill
	b	.LBB2_801
.LBB2_801:
	ldr	r0, [sp, #540]                  @ 4-byte Reload
	str	r0, [sp, #544]                  @ 4-byte Spill
	b	.LBB2_802
.LBB2_802:
	ldr	r0, [sp, #544]                  @ 4-byte Reload
	str	r0, [sp, #548]                  @ 4-byte Spill
	b	.LBB2_803
.LBB2_803:
	ldr	r0, [sp, #548]                  @ 4-byte Reload
	str	r0, [sp, #552]                  @ 4-byte Spill
	b	.LBB2_804
.LBB2_804:
	ldr	r0, [sp, #556]                  @ 4-byte Reload
	ldr	r1, [sp, #552]                  @ 4-byte Reload
	udiv	r0, r0, r1
	lsls	r0, r0, #1
	ldr.w	r1, [sp, #1540]
	ldr	r1, [r1, #4]
	add.w	r0, r0, r1, lsr #1
	udiv	r0, r0, r1
	.loc	7 3044 22                       @ libraries/STM32H7xx_HAL/STM32H7xx_HAL_Driver/Src/stm32h7xx_hal_uart.c:3044:22
	uxth	r0, r0
	.loc	7 3044 20                       @ libraries/STM32H7xx_HAL/STM32H7xx_HAL_Driver/Src/stm32h7xx_hal_uart.c:3044:20
	str.w	r0, [sp, #1528]
	.loc	7 3045 9 is_stmt 1              @ libraries/STM32H7xx_HAL/STM32H7xx_HAL_Driver/Src/stm32h7xx_hal_uart.c:3045:9
	b	.LBB2_839
.Ltmp113:
.LBB2_805:
	.loc	7 3048 33                       @ libraries/STM32H7xx_HAL/STM32H7xx_HAL_Driver/Src/stm32h7xx_hal_uart.c:3048:33
	ldr.w	r0, [sp, #1540]
	ldr	r0, [r0, #36]
	cbnz	r0, .LBB2_807
	b	.LBB2_806
.LBB2_806:
	.loc	7 0 33 is_stmt 0                @ libraries/STM32H7xx_HAL/STM32H7xx_HAL_Driver/Src/stm32h7xx_hal_uart.c:0:33
	movs	r0, #1
	.loc	7 3048 33                       @ libraries/STM32H7xx_HAL/STM32H7xx_HAL_Driver/Src/stm32h7xx_hal_uart.c:3048:33
	str	r0, [sp, #508]                  @ 4-byte Spill
	b	.LBB2_838
.LBB2_807:
	ldr.w	r0, [sp, #1540]
	ldr	r0, [r0, #36]
	cmp	r0, #1
	bne	.LBB2_809
	b	.LBB2_808
.LBB2_808:
	.loc	7 0 33                          @ libraries/STM32H7xx_HAL/STM32H7xx_HAL_Driver/Src/stm32h7xx_hal_uart.c:0:33
	movs	r0, #2
	.loc	7 3048 33                       @ libraries/STM32H7xx_HAL/STM32H7xx_HAL_Driver/Src/stm32h7xx_hal_uart.c:3048:33
	str	r0, [sp, #504]                  @ 4-byte Spill
	b	.LBB2_837
.LBB2_809:
	ldr.w	r0, [sp, #1540]
	ldr	r0, [r0, #36]
	cmp	r0, #2
	bne	.LBB2_811
	b	.LBB2_810
.LBB2_810:
	.loc	7 0 33                          @ libraries/STM32H7xx_HAL/STM32H7xx_HAL_Driver/Src/stm32h7xx_hal_uart.c:0:33
	movs	r0, #4
	.loc	7 3048 33                       @ libraries/STM32H7xx_HAL/STM32H7xx_HAL_Driver/Src/stm32h7xx_hal_uart.c:3048:33
	str	r0, [sp, #500]                  @ 4-byte Spill
	b	.LBB2_836
.LBB2_811:
	ldr.w	r0, [sp, #1540]
	ldr	r0, [r0, #36]
	cmp	r0, #3
	bne	.LBB2_813
	b	.LBB2_812
.LBB2_812:
	.loc	7 0 33                          @ libraries/STM32H7xx_HAL/STM32H7xx_HAL_Driver/Src/stm32h7xx_hal_uart.c:0:33
	movs	r0, #6
	.loc	7 3048 33                       @ libraries/STM32H7xx_HAL/STM32H7xx_HAL_Driver/Src/stm32h7xx_hal_uart.c:3048:33
	str	r0, [sp, #496]                  @ 4-byte Spill
	b	.LBB2_835
.LBB2_813:
	ldr.w	r0, [sp, #1540]
	ldr	r0, [r0, #36]
	cmp	r0, #4
	bne	.LBB2_815
	b	.LBB2_814
.LBB2_814:
	.loc	7 0 33                          @ libraries/STM32H7xx_HAL/STM32H7xx_HAL_Driver/Src/stm32h7xx_hal_uart.c:0:33
	movs	r0, #8
	.loc	7 3048 33                       @ libraries/STM32H7xx_HAL/STM32H7xx_HAL_Driver/Src/stm32h7xx_hal_uart.c:3048:33
	str	r0, [sp, #492]                  @ 4-byte Spill
	b	.LBB2_834
.LBB2_815:
	ldr.w	r0, [sp, #1540]
	ldr	r0, [r0, #36]
	cmp	r0, #5
	bne	.LBB2_817
	b	.LBB2_816
.LBB2_816:
	.loc	7 0 33                          @ libraries/STM32H7xx_HAL/STM32H7xx_HAL_Driver/Src/stm32h7xx_hal_uart.c:0:33
	movs	r0, #10
	.loc	7 3048 33                       @ libraries/STM32H7xx_HAL/STM32H7xx_HAL_Driver/Src/stm32h7xx_hal_uart.c:3048:33
	str	r0, [sp, #488]                  @ 4-byte Spill
	b	.LBB2_833
.LBB2_817:
	ldr.w	r0, [sp, #1540]
	ldr	r0, [r0, #36]
	cmp	r0, #6
	bne	.LBB2_819
	b	.LBB2_818
.LBB2_818:
	.loc	7 0 33                          @ libraries/STM32H7xx_HAL/STM32H7xx_HAL_Driver/Src/stm32h7xx_hal_uart.c:0:33
	movs	r0, #12
	.loc	7 3048 33                       @ libraries/STM32H7xx_HAL/STM32H7xx_HAL_Driver/Src/stm32h7xx_hal_uart.c:3048:33
	str	r0, [sp, #484]                  @ 4-byte Spill
	b	.LBB2_832
.LBB2_819:
	ldr.w	r0, [sp, #1540]
	ldr	r0, [r0, #36]
	cmp	r0, #7
	bne	.LBB2_821
	b	.LBB2_820
.LBB2_820:
	.loc	7 0 33                          @ libraries/STM32H7xx_HAL/STM32H7xx_HAL_Driver/Src/stm32h7xx_hal_uart.c:0:33
	movs	r0, #16
	.loc	7 3048 33                       @ libraries/STM32H7xx_HAL/STM32H7xx_HAL_Driver/Src/stm32h7xx_hal_uart.c:3048:33
	str	r0, [sp, #480]                  @ 4-byte Spill
	b	.LBB2_831
.LBB2_821:
	ldr.w	r0, [sp, #1540]
	ldr	r0, [r0, #36]
	cmp	r0, #8
	bne	.LBB2_823
	b	.LBB2_822
.LBB2_822:
	.loc	7 0 33                          @ libraries/STM32H7xx_HAL/STM32H7xx_HAL_Driver/Src/stm32h7xx_hal_uart.c:0:33
	movs	r0, #32
	.loc	7 3048 33                       @ libraries/STM32H7xx_HAL/STM32H7xx_HAL_Driver/Src/stm32h7xx_hal_uart.c:3048:33
	str	r0, [sp, #476]                  @ 4-byte Spill
	b	.LBB2_830
.LBB2_823:
	ldr.w	r0, [sp, #1540]
	ldr	r0, [r0, #36]
	cmp	r0, #9
	bne	.LBB2_825
	b	.LBB2_824
.LBB2_824:
	.loc	7 0 33                          @ libraries/STM32H7xx_HAL/STM32H7xx_HAL_Driver/Src/stm32h7xx_hal_uart.c:0:33
	movs	r0, #64
	.loc	7 3048 33                       @ libraries/STM32H7xx_HAL/STM32H7xx_HAL_Driver/Src/stm32h7xx_hal_uart.c:3048:33
	str	r0, [sp, #472]                  @ 4-byte Spill
	b	.LBB2_829
.LBB2_825:
	ldr.w	r0, [sp, #1540]
	ldr	r0, [r0, #36]
	cmp	r0, #10
	bne	.LBB2_827
	b	.LBB2_826
.LBB2_826:
	.loc	7 0 33                          @ libraries/STM32H7xx_HAL/STM32H7xx_HAL_Driver/Src/stm32h7xx_hal_uart.c:0:33
	movs	r0, #128
	.loc	7 3048 33                       @ libraries/STM32H7xx_HAL/STM32H7xx_HAL_Driver/Src/stm32h7xx_hal_uart.c:3048:33
	str	r0, [sp, #468]                  @ 4-byte Spill
	b	.LBB2_828
.LBB2_827:
	ldr.w	r0, [sp, #1540]
	ldr	r1, [r0, #36]
	movs	r0, #1
	cmp	r1, #11
	it	eq
	moveq.w	r0, #256
	str	r0, [sp, #468]                  @ 4-byte Spill
	b	.LBB2_828
.LBB2_828:
	ldr	r0, [sp, #468]                  @ 4-byte Reload
	str	r0, [sp, #472]                  @ 4-byte Spill
	b	.LBB2_829
.LBB2_829:
	ldr	r0, [sp, #472]                  @ 4-byte Reload
	str	r0, [sp, #476]                  @ 4-byte Spill
	b	.LBB2_830
.LBB2_830:
	ldr	r0, [sp, #476]                  @ 4-byte Reload
	str	r0, [sp, #480]                  @ 4-byte Spill
	b	.LBB2_831
.LBB2_831:
	ldr	r0, [sp, #480]                  @ 4-byte Reload
	str	r0, [sp, #484]                  @ 4-byte Spill
	b	.LBB2_832
.LBB2_832:
	ldr	r0, [sp, #484]                  @ 4-byte Reload
	str	r0, [sp, #488]                  @ 4-byte Spill
	b	.LBB2_833
.LBB2_833:
	ldr	r0, [sp, #488]                  @ 4-byte Reload
	str	r0, [sp, #492]                  @ 4-byte Spill
	b	.LBB2_834
.LBB2_834:
	ldr	r0, [sp, #492]                  @ 4-byte Reload
	str	r0, [sp, #496]                  @ 4-byte Spill
	b	.LBB2_835
.LBB2_835:
	ldr	r0, [sp, #496]                  @ 4-byte Reload
	str	r0, [sp, #500]                  @ 4-byte Spill
	b	.LBB2_836
.LBB2_836:
	ldr	r0, [sp, #500]                  @ 4-byte Reload
	str	r0, [sp, #504]                  @ 4-byte Spill
	b	.LBB2_837
.LBB2_837:
	ldr	r0, [sp, #504]                  @ 4-byte Reload
	str	r0, [sp, #508]                  @ 4-byte Spill
	b	.LBB2_838
.LBB2_838:
	ldr	r1, [sp, #508]                  @ 4-byte Reload
	movw	r0, #36864
	movt	r0, #976
	udiv	r0, r0, r1
	lsls	r0, r0, #1
	ldr.w	r1, [sp, #1540]
	ldr	r1, [r1, #4]
	add.w	r0, r0, r1, lsr #1
	udiv	r0, r0, r1
	.loc	7 3048 22                       @ libraries/STM32H7xx_HAL/STM32H7xx_HAL_Driver/Src/stm32h7xx_hal_uart.c:3048:22
	uxth	r0, r0
	.loc	7 3048 20                       @ libraries/STM32H7xx_HAL/STM32H7xx_HAL_Driver/Src/stm32h7xx_hal_uart.c:3048:20
	str.w	r0, [sp, #1528]
	b	.LBB2_839
.Ltmp114:
.LBB2_839:
	.loc	7 3050 9 is_stmt 1              @ libraries/STM32H7xx_HAL/STM32H7xx_HAL_Driver/Src/stm32h7xx_hal_uart.c:3050:9
	b	.LBB2_909
.LBB2_840:
	.loc	7 3052 31                       @ libraries/STM32H7xx_HAL/STM32H7xx_HAL_Driver/Src/stm32h7xx_hal_uart.c:3052:31
	ldr.w	r0, [sp, #1540]
	ldr	r0, [r0, #36]
	cbnz	r0, .LBB2_842
	b	.LBB2_841
.LBB2_841:
	.loc	7 0 31 is_stmt 0                @ libraries/STM32H7xx_HAL/STM32H7xx_HAL_Driver/Src/stm32h7xx_hal_uart.c:0:31
	movs	r0, #1
	.loc	7 3052 31                       @ libraries/STM32H7xx_HAL/STM32H7xx_HAL_Driver/Src/stm32h7xx_hal_uart.c:3052:31
	str	r0, [sp, #464]                  @ 4-byte Spill
	b	.LBB2_873
.LBB2_842:
	ldr.w	r0, [sp, #1540]
	ldr	r0, [r0, #36]
	cmp	r0, #1
	bne	.LBB2_844
	b	.LBB2_843
.LBB2_843:
	.loc	7 0 31                          @ libraries/STM32H7xx_HAL/STM32H7xx_HAL_Driver/Src/stm32h7xx_hal_uart.c:0:31
	movs	r0, #2
	.loc	7 3052 31                       @ libraries/STM32H7xx_HAL/STM32H7xx_HAL_Driver/Src/stm32h7xx_hal_uart.c:3052:31
	str	r0, [sp, #460]                  @ 4-byte Spill
	b	.LBB2_872
.LBB2_844:
	ldr.w	r0, [sp, #1540]
	ldr	r0, [r0, #36]
	cmp	r0, #2
	bne	.LBB2_846
	b	.LBB2_845
.LBB2_845:
	.loc	7 0 31                          @ libraries/STM32H7xx_HAL/STM32H7xx_HAL_Driver/Src/stm32h7xx_hal_uart.c:0:31
	movs	r0, #4
	.loc	7 3052 31                       @ libraries/STM32H7xx_HAL/STM32H7xx_HAL_Driver/Src/stm32h7xx_hal_uart.c:3052:31
	str	r0, [sp, #456]                  @ 4-byte Spill
	b	.LBB2_871
.LBB2_846:
	ldr.w	r0, [sp, #1540]
	ldr	r0, [r0, #36]
	cmp	r0, #3
	bne	.LBB2_848
	b	.LBB2_847
.LBB2_847:
	.loc	7 0 31                          @ libraries/STM32H7xx_HAL/STM32H7xx_HAL_Driver/Src/stm32h7xx_hal_uart.c:0:31
	movs	r0, #6
	.loc	7 3052 31                       @ libraries/STM32H7xx_HAL/STM32H7xx_HAL_Driver/Src/stm32h7xx_hal_uart.c:3052:31
	str	r0, [sp, #452]                  @ 4-byte Spill
	b	.LBB2_870
.LBB2_848:
	ldr.w	r0, [sp, #1540]
	ldr	r0, [r0, #36]
	cmp	r0, #4
	bne	.LBB2_850
	b	.LBB2_849
.LBB2_849:
	.loc	7 0 31                          @ libraries/STM32H7xx_HAL/STM32H7xx_HAL_Driver/Src/stm32h7xx_hal_uart.c:0:31
	movs	r0, #8
	.loc	7 3052 31                       @ libraries/STM32H7xx_HAL/STM32H7xx_HAL_Driver/Src/stm32h7xx_hal_uart.c:3052:31
	str	r0, [sp, #448]                  @ 4-byte Spill
	b	.LBB2_869
.LBB2_850:
	ldr.w	r0, [sp, #1540]
	ldr	r0, [r0, #36]
	cmp	r0, #5
	bne	.LBB2_852
	b	.LBB2_851
.LBB2_851:
	.loc	7 0 31                          @ libraries/STM32H7xx_HAL/STM32H7xx_HAL_Driver/Src/stm32h7xx_hal_uart.c:0:31
	movs	r0, #10
	.loc	7 3052 31                       @ libraries/STM32H7xx_HAL/STM32H7xx_HAL_Driver/Src/stm32h7xx_hal_uart.c:3052:31
	str	r0, [sp, #444]                  @ 4-byte Spill
	b	.LBB2_868
.LBB2_852:
	ldr.w	r0, [sp, #1540]
	ldr	r0, [r0, #36]
	cmp	r0, #6
	bne	.LBB2_854
	b	.LBB2_853
.LBB2_853:
	.loc	7 0 31                          @ libraries/STM32H7xx_HAL/STM32H7xx_HAL_Driver/Src/stm32h7xx_hal_uart.c:0:31
	movs	r0, #12
	.loc	7 3052 31                       @ libraries/STM32H7xx_HAL/STM32H7xx_HAL_Driver/Src/stm32h7xx_hal_uart.c:3052:31
	str	r0, [sp, #440]                  @ 4-byte Spill
	b	.LBB2_867
.LBB2_854:
	ldr.w	r0, [sp, #1540]
	ldr	r0, [r0, #36]
	cmp	r0, #7
	bne	.LBB2_856
	b	.LBB2_855
.LBB2_855:
	.loc	7 0 31                          @ libraries/STM32H7xx_HAL/STM32H7xx_HAL_Driver/Src/stm32h7xx_hal_uart.c:0:31
	movs	r0, #16
	.loc	7 3052 31                       @ libraries/STM32H7xx_HAL/STM32H7xx_HAL_Driver/Src/stm32h7xx_hal_uart.c:3052:31
	str	r0, [sp, #436]                  @ 4-byte Spill
	b	.LBB2_866
.LBB2_856:
	ldr.w	r0, [sp, #1540]
	ldr	r0, [r0, #36]
	cmp	r0, #8
	bne	.LBB2_858
	b	.LBB2_857
.LBB2_857:
	.loc	7 0 31                          @ libraries/STM32H7xx_HAL/STM32H7xx_HAL_Driver/Src/stm32h7xx_hal_uart.c:0:31
	movs	r0, #32
	.loc	7 3052 31                       @ libraries/STM32H7xx_HAL/STM32H7xx_HAL_Driver/Src/stm32h7xx_hal_uart.c:3052:31
	str	r0, [sp, #432]                  @ 4-byte Spill
	b	.LBB2_865
.LBB2_858:
	ldr.w	r0, [sp, #1540]
	ldr	r0, [r0, #36]
	cmp	r0, #9
	bne	.LBB2_860
	b	.LBB2_859
.LBB2_859:
	.loc	7 0 31                          @ libraries/STM32H7xx_HAL/STM32H7xx_HAL_Driver/Src/stm32h7xx_hal_uart.c:0:31
	movs	r0, #64
	.loc	7 3052 31                       @ libraries/STM32H7xx_HAL/STM32H7xx_HAL_Driver/Src/stm32h7xx_hal_uart.c:3052:31
	str	r0, [sp, #428]                  @ 4-byte Spill
	b	.LBB2_864
.LBB2_860:
	ldr.w	r0, [sp, #1540]
	ldr	r0, [r0, #36]
	cmp	r0, #10
	bne	.LBB2_862
	b	.LBB2_861
.LBB2_861:
	.loc	7 0 31                          @ libraries/STM32H7xx_HAL/STM32H7xx_HAL_Driver/Src/stm32h7xx_hal_uart.c:0:31
	movs	r0, #128
	.loc	7 3052 31                       @ libraries/STM32H7xx_HAL/STM32H7xx_HAL_Driver/Src/stm32h7xx_hal_uart.c:3052:31
	str	r0, [sp, #424]                  @ 4-byte Spill
	b	.LBB2_863
.LBB2_862:
	ldr.w	r0, [sp, #1540]
	ldr	r1, [r0, #36]
	movs	r0, #1
	cmp	r1, #11
	it	eq
	moveq.w	r0, #256
	str	r0, [sp, #424]                  @ 4-byte Spill
	b	.LBB2_863
.LBB2_863:
	ldr	r0, [sp, #424]                  @ 4-byte Reload
	str	r0, [sp, #428]                  @ 4-byte Spill
	b	.LBB2_864
.LBB2_864:
	ldr	r0, [sp, #428]                  @ 4-byte Reload
	str	r0, [sp, #432]                  @ 4-byte Spill
	b	.LBB2_865
.LBB2_865:
	ldr	r0, [sp, #432]                  @ 4-byte Reload
	str	r0, [sp, #436]                  @ 4-byte Spill
	b	.LBB2_866
.LBB2_866:
	ldr	r0, [sp, #436]                  @ 4-byte Reload
	str	r0, [sp, #440]                  @ 4-byte Spill
	b	.LBB2_867
.LBB2_867:
	ldr	r0, [sp, #440]                  @ 4-byte Reload
	str	r0, [sp, #444]                  @ 4-byte Spill
	b	.LBB2_868
.LBB2_868:
	ldr	r0, [sp, #444]                  @ 4-byte Reload
	str	r0, [sp, #448]                  @ 4-byte Spill
	b	.LBB2_869
.LBB2_869:
	ldr	r0, [sp, #448]                  @ 4-byte Reload
	str	r0, [sp, #452]                  @ 4-byte Spill
	b	.LBB2_870
.LBB2_870:
	ldr	r0, [sp, #452]                  @ 4-byte Reload
	str	r0, [sp, #456]                  @ 4-byte Spill
	b	.LBB2_871
.LBB2_871:
	ldr	r0, [sp, #456]                  @ 4-byte Reload
	str	r0, [sp, #460]                  @ 4-byte Spill
	b	.LBB2_872
.LBB2_872:
	ldr	r0, [sp, #460]                  @ 4-byte Reload
	str	r0, [sp, #464]                  @ 4-byte Spill
	b	.LBB2_873
.LBB2_873:
	ldr	r1, [sp, #464]                  @ 4-byte Reload
	movw	r0, #2304
	movt	r0, #61
	udiv	r0, r0, r1
	lsls	r0, r0, #1
	ldr.w	r1, [sp, #1540]
	ldr	r1, [r1, #4]
	add.w	r0, r0, r1, lsr #1
	udiv	r0, r0, r1
	.loc	7 3052 20                       @ libraries/STM32H7xx_HAL/STM32H7xx_HAL_Driver/Src/stm32h7xx_hal_uart.c:3052:20
	uxth	r0, r0
	.loc	7 3052 18                       @ libraries/STM32H7xx_HAL/STM32H7xx_HAL_Driver/Src/stm32h7xx_hal_uart.c:3052:18
	str.w	r0, [sp, #1528]
	.loc	7 3053 9 is_stmt 1              @ libraries/STM32H7xx_HAL/STM32H7xx_HAL_Driver/Src/stm32h7xx_hal_uart.c:3053:9
	b	.LBB2_909
.LBB2_874:
	.loc	7 3055 31                       @ libraries/STM32H7xx_HAL/STM32H7xx_HAL_Driver/Src/stm32h7xx_hal_uart.c:3055:31
	ldr.w	r0, [sp, #1540]
	ldr	r0, [r0, #36]
	cbnz	r0, .LBB2_876
	b	.LBB2_875
.LBB2_875:
	.loc	7 0 31 is_stmt 0                @ libraries/STM32H7xx_HAL/STM32H7xx_HAL_Driver/Src/stm32h7xx_hal_uart.c:0:31
	movs	r0, #1
	.loc	7 3055 31                       @ libraries/STM32H7xx_HAL/STM32H7xx_HAL_Driver/Src/stm32h7xx_hal_uart.c:3055:31
	str	r0, [sp, #420]                  @ 4-byte Spill
	b	.LBB2_907
.LBB2_876:
	ldr.w	r0, [sp, #1540]
	ldr	r0, [r0, #36]
	cmp	r0, #1
	bne	.LBB2_878
	b	.LBB2_877
.LBB2_877:
	.loc	7 0 31                          @ libraries/STM32H7xx_HAL/STM32H7xx_HAL_Driver/Src/stm32h7xx_hal_uart.c:0:31
	movs	r0, #2
	.loc	7 3055 31                       @ libraries/STM32H7xx_HAL/STM32H7xx_HAL_Driver/Src/stm32h7xx_hal_uart.c:3055:31
	str	r0, [sp, #416]                  @ 4-byte Spill
	b	.LBB2_906
.LBB2_878:
	ldr.w	r0, [sp, #1540]
	ldr	r0, [r0, #36]
	cmp	r0, #2
	bne	.LBB2_880
	b	.LBB2_879
.LBB2_879:
	.loc	7 0 31                          @ libraries/STM32H7xx_HAL/STM32H7xx_HAL_Driver/Src/stm32h7xx_hal_uart.c:0:31
	movs	r0, #4
	.loc	7 3055 31                       @ libraries/STM32H7xx_HAL/STM32H7xx_HAL_Driver/Src/stm32h7xx_hal_uart.c:3055:31
	str	r0, [sp, #412]                  @ 4-byte Spill
	b	.LBB2_905
.LBB2_880:
	ldr.w	r0, [sp, #1540]
	ldr	r0, [r0, #36]
	cmp	r0, #3
	bne	.LBB2_882
	b	.LBB2_881
.LBB2_881:
	.loc	7 0 31                          @ libraries/STM32H7xx_HAL/STM32H7xx_HAL_Driver/Src/stm32h7xx_hal_uart.c:0:31
	movs	r0, #6
	.loc	7 3055 31                       @ libraries/STM32H7xx_HAL/STM32H7xx_HAL_Driver/Src/stm32h7xx_hal_uart.c:3055:31
	str	r0, [sp, #408]                  @ 4-byte Spill
	b	.LBB2_904
.LBB2_882:
	ldr.w	r0, [sp, #1540]
	ldr	r0, [r0, #36]
	cmp	r0, #4
	bne	.LBB2_884
	b	.LBB2_883
.LBB2_883:
	.loc	7 0 31                          @ libraries/STM32H7xx_HAL/STM32H7xx_HAL_Driver/Src/stm32h7xx_hal_uart.c:0:31
	movs	r0, #8
	.loc	7 3055 31                       @ libraries/STM32H7xx_HAL/STM32H7xx_HAL_Driver/Src/stm32h7xx_hal_uart.c:3055:31
	str	r0, [sp, #404]                  @ 4-byte Spill
	b	.LBB2_903
.LBB2_884:
	ldr.w	r0, [sp, #1540]
	ldr	r0, [r0, #36]
	cmp	r0, #5
	bne	.LBB2_886
	b	.LBB2_885
.LBB2_885:
	.loc	7 0 31                          @ libraries/STM32H7xx_HAL/STM32H7xx_HAL_Driver/Src/stm32h7xx_hal_uart.c:0:31
	movs	r0, #10
	.loc	7 3055 31                       @ libraries/STM32H7xx_HAL/STM32H7xx_HAL_Driver/Src/stm32h7xx_hal_uart.c:3055:31
	str	r0, [sp, #400]                  @ 4-byte Spill
	b	.LBB2_902
.LBB2_886:
	ldr.w	r0, [sp, #1540]
	ldr	r0, [r0, #36]
	cmp	r0, #6
	bne	.LBB2_888
	b	.LBB2_887
.LBB2_887:
	.loc	7 0 31                          @ libraries/STM32H7xx_HAL/STM32H7xx_HAL_Driver/Src/stm32h7xx_hal_uart.c:0:31
	movs	r0, #12
	.loc	7 3055 31                       @ libraries/STM32H7xx_HAL/STM32H7xx_HAL_Driver/Src/stm32h7xx_hal_uart.c:3055:31
	str	r0, [sp, #396]                  @ 4-byte Spill
	b	.LBB2_901
.LBB2_888:
	ldr.w	r0, [sp, #1540]
	ldr	r0, [r0, #36]
	cmp	r0, #7
	bne	.LBB2_890
	b	.LBB2_889
.LBB2_889:
	.loc	7 0 31                          @ libraries/STM32H7xx_HAL/STM32H7xx_HAL_Driver/Src/stm32h7xx_hal_uart.c:0:31
	movs	r0, #16
	.loc	7 3055 31                       @ libraries/STM32H7xx_HAL/STM32H7xx_HAL_Driver/Src/stm32h7xx_hal_uart.c:3055:31
	str	r0, [sp, #392]                  @ 4-byte Spill
	b	.LBB2_900
.LBB2_890:
	ldr.w	r0, [sp, #1540]
	ldr	r0, [r0, #36]
	cmp	r0, #8
	bne	.LBB2_892
	b	.LBB2_891
.LBB2_891:
	.loc	7 0 31                          @ libraries/STM32H7xx_HAL/STM32H7xx_HAL_Driver/Src/stm32h7xx_hal_uart.c:0:31
	movs	r0, #32
	.loc	7 3055 31                       @ libraries/STM32H7xx_HAL/STM32H7xx_HAL_Driver/Src/stm32h7xx_hal_uart.c:3055:31
	str	r0, [sp, #388]                  @ 4-byte Spill
	b	.LBB2_899
.LBB2_892:
	ldr.w	r0, [sp, #1540]
	ldr	r0, [r0, #36]
	cmp	r0, #9
	bne	.LBB2_894
	b	.LBB2_893
.LBB2_893:
	.loc	7 0 31                          @ libraries/STM32H7xx_HAL/STM32H7xx_HAL_Driver/Src/stm32h7xx_hal_uart.c:0:31
	movs	r0, #64
	.loc	7 3055 31                       @ libraries/STM32H7xx_HAL/STM32H7xx_HAL_Driver/Src/stm32h7xx_hal_uart.c:3055:31
	str	r0, [sp, #384]                  @ 4-byte Spill
	b	.LBB2_898
.LBB2_894:
	ldr.w	r0, [sp, #1540]
	ldr	r0, [r0, #36]
	cmp	r0, #10
	bne	.LBB2_896
	b	.LBB2_895
.LBB2_895:
	.loc	7 0 31                          @ libraries/STM32H7xx_HAL/STM32H7xx_HAL_Driver/Src/stm32h7xx_hal_uart.c:0:31
	movs	r0, #128
	.loc	7 3055 31                       @ libraries/STM32H7xx_HAL/STM32H7xx_HAL_Driver/Src/stm32h7xx_hal_uart.c:3055:31
	str	r0, [sp, #380]                  @ 4-byte Spill
	b	.LBB2_897
.LBB2_896:
	ldr.w	r0, [sp, #1540]
	ldr	r1, [r0, #36]
	movs	r0, #1
	cmp	r1, #11
	it	eq
	moveq.w	r0, #256
	str	r0, [sp, #380]                  @ 4-byte Spill
	b	.LBB2_897
.LBB2_897:
	ldr	r0, [sp, #380]                  @ 4-byte Reload
	str	r0, [sp, #384]                  @ 4-byte Spill
	b	.LBB2_898
.LBB2_898:
	ldr	r0, [sp, #384]                  @ 4-byte Reload
	str	r0, [sp, #388]                  @ 4-byte Spill
	b	.LBB2_899
.LBB2_899:
	ldr	r0, [sp, #388]                  @ 4-byte Reload
	str	r0, [sp, #392]                  @ 4-byte Spill
	b	.LBB2_900
.LBB2_900:
	ldr	r0, [sp, #392]                  @ 4-byte Reload
	str	r0, [sp, #396]                  @ 4-byte Spill
	b	.LBB2_901
.LBB2_901:
	ldr	r0, [sp, #396]                  @ 4-byte Reload
	str	r0, [sp, #400]                  @ 4-byte Spill
	b	.LBB2_902
.LBB2_902:
	ldr	r0, [sp, #400]                  @ 4-byte Reload
	str	r0, [sp, #404]                  @ 4-byte Spill
	b	.LBB2_903
.LBB2_903:
	ldr	r0, [sp, #404]                  @ 4-byte Reload
	str	r0, [sp, #408]                  @ 4-byte Spill
	b	.LBB2_904
.LBB2_904:
	ldr	r0, [sp, #408]                  @ 4-byte Reload
	str	r0, [sp, #412]                  @ 4-byte Spill
	b	.LBB2_905
.LBB2_905:
	ldr	r0, [sp, #412]                  @ 4-byte Reload
	str	r0, [sp, #416]                  @ 4-byte Spill
	b	.LBB2_906
.LBB2_906:
	ldr	r0, [sp, #416]                  @ 4-byte Reload
	str	r0, [sp, #420]                  @ 4-byte Spill
	b	.LBB2_907
.LBB2_907:
	ldr	r1, [sp, #420]                  @ 4-byte Reload
	mov.w	r0, #32768
	udiv	r0, r0, r1
	lsls	r0, r0, #1
	ldr.w	r1, [sp, #1540]
	ldr	r1, [r1, #4]
	add.w	r0, r0, r1, lsr #1
	udiv	r0, r0, r1
	.loc	7 3055 20                       @ libraries/STM32H7xx_HAL/STM32H7xx_HAL_Driver/Src/stm32h7xx_hal_uart.c:3055:20
	uxth	r0, r0
	.loc	7 3055 18                       @ libraries/STM32H7xx_HAL/STM32H7xx_HAL_Driver/Src/stm32h7xx_hal_uart.c:3055:18
	str.w	r0, [sp, #1528]
	.loc	7 3056 9 is_stmt 1              @ libraries/STM32H7xx_HAL/STM32H7xx_HAL_Driver/Src/stm32h7xx_hal_uart.c:3056:9
	b	.LBB2_909
.LBB2_908:
	.loc	7 0 9 is_stmt 0                 @ libraries/STM32H7xx_HAL/STM32H7xx_HAL_Driver/Src/stm32h7xx_hal_uart.c:0:9
	movs	r0, #1
	.loc	7 3058 13 is_stmt 1             @ libraries/STM32H7xx_HAL/STM32H7xx_HAL_Driver/Src/stm32h7xx_hal_uart.c:3058:13
	strb.w	r0, [sp, #1527]
	.loc	7 3059 9                        @ libraries/STM32H7xx_HAL/STM32H7xx_HAL_Driver/Src/stm32h7xx_hal_uart.c:3059:9
	b	.LBB2_909
.Ltmp115:
.LBB2_909:
	.loc	7 3063 10                       @ libraries/STM32H7xx_HAL/STM32H7xx_HAL_Driver/Src/stm32h7xx_hal_uart.c:3063:10
	ldr.w	r0, [sp, #1528]
	.loc	7 3063 36 is_stmt 0             @ libraries/STM32H7xx_HAL/STM32H7xx_HAL_Driver/Src/stm32h7xx_hal_uart.c:3063:36
	cmp	r0, #16
	blo	.LBB2_912
	b	.LBB2_910
.LBB2_910:
	.loc	7 3063 40                       @ libraries/STM32H7xx_HAL/STM32H7xx_HAL_Driver/Src/stm32h7xx_hal_uart.c:3063:40
	ldrh.w	r0, [sp, #1530]
.Ltmp116:
	.loc	7 3063 9                        @ libraries/STM32H7xx_HAL/STM32H7xx_HAL_Driver/Src/stm32h7xx_hal_uart.c:3063:9
	cbnz	r0, .LBB2_912
	b	.LBB2_911
.LBB2_911:
.Ltmp117:
	.loc	7 3065 28 is_stmt 1             @ libraries/STM32H7xx_HAL/STM32H7xx_HAL_Driver/Src/stm32h7xx_hal_uart.c:3065:28
	ldr.w	r0, [sp, #1528]
	.loc	7 3065 37 is_stmt 0             @ libraries/STM32H7xx_HAL/STM32H7xx_HAL_Driver/Src/stm32h7xx_hal_uart.c:3065:37
	bic	r0, r0, #15
	.loc	7 3065 15                       @ libraries/STM32H7xx_HAL/STM32H7xx_HAL_Driver/Src/stm32h7xx_hal_uart.c:3065:15
	strh.w	r0, [sp, #1534]
	.loc	7 3066 30 is_stmt 1             @ libraries/STM32H7xx_HAL/STM32H7xx_HAL_Driver/Src/stm32h7xx_hal_uart.c:3066:30
	ldr.w	r0, [sp, #1528]
	.loc	7 3066 39 is_stmt 0             @ libraries/STM32H7xx_HAL/STM32H7xx_HAL_Driver/Src/stm32h7xx_hal_uart.c:3066:39
	and	r1, r0, #14
	.loc	7 3066 15                       @ libraries/STM32H7xx_HAL/STM32H7xx_HAL_Driver/Src/stm32h7xx_hal_uart.c:3066:15
	ldrh.w	r0, [sp, #1534]
	orr.w	r0, r0, r1, lsr #1
	strh.w	r0, [sp, #1534]
	.loc	7 3067 30 is_stmt 1             @ libraries/STM32H7xx_HAL/STM32H7xx_HAL_Driver/Src/stm32h7xx_hal_uart.c:3067:30
	ldrh.w	r0, [sp, #1534]
	.loc	7 3067 7 is_stmt 0              @ libraries/STM32H7xx_HAL/STM32H7xx_HAL_Driver/Src/stm32h7xx_hal_uart.c:3067:7
	ldr.w	r1, [sp, #1540]
	.loc	7 3067 14                       @ libraries/STM32H7xx_HAL/STM32H7xx_HAL_Driver/Src/stm32h7xx_hal_uart.c:3067:14
	ldr	r1, [r1]
	.loc	7 3067 28                       @ libraries/STM32H7xx_HAL/STM32H7xx_HAL_Driver/Src/stm32h7xx_hal_uart.c:3067:28
	str	r0, [r1, #12]
	.loc	7 3068 5 is_stmt 1              @ libraries/STM32H7xx_HAL/STM32H7xx_HAL_Driver/Src/stm32h7xx_hal_uart.c:3068:5
	b	.LBB2_913
.Ltmp118:
.LBB2_912:
	.loc	7 0 5 is_stmt 0                 @ libraries/STM32H7xx_HAL/STM32H7xx_HAL_Driver/Src/stm32h7xx_hal_uart.c:0:5
	movs	r0, #1
.Ltmp119:
	.loc	7 3071 11 is_stmt 1             @ libraries/STM32H7xx_HAL/STM32H7xx_HAL_Driver/Src/stm32h7xx_hal_uart.c:3071:11
	strb.w	r0, [sp, #1527]
	b	.LBB2_913
.Ltmp120:
.LBB2_913:
	.loc	7 3073 3                        @ libraries/STM32H7xx_HAL/STM32H7xx_HAL_Driver/Src/stm32h7xx_hal_uart.c:3073:3
	b.w	.LBB2_1197
.Ltmp121:
.LBB2_914:
	.loc	7 3076 13                       @ libraries/STM32H7xx_HAL/STM32H7xx_HAL_Driver/Src/stm32h7xx_hal_uart.c:3076:13
	ldrb.w	r0, [sp, #1533]
	.loc	7 3076 5 is_stmt 0              @ libraries/STM32H7xx_HAL/STM32H7xx_HAL_Driver/Src/stm32h7xx_hal_uart.c:3076:5
	mov	r1, r0
	str	r1, [sp, #376]                  @ 4-byte Spill
	cmp	r0, #64
	bhi.w	.LBB2_1191
@ %bb.915:
	.loc	7 0 5                           @ libraries/STM32H7xx_HAL/STM32H7xx_HAL_Driver/Src/stm32h7xx_hal_uart.c:0:5
	ldr	r1, [sp, #376]                  @ 4-byte Reload
.LCPI2_10:
	tbh	[pc, r1, lsl #1]
@ %bb.916:
.LJTI2_9:
	.short	(.LBB2_917-(.LCPI2_10+4))/2
	.short	(.LBB2_951-(.LCPI2_10+4))/2
	.short	(.LBB2_1191-(.LCPI2_10+4))/2
	.short	(.LBB2_1191-(.LCPI2_10+4))/2
	.short	(.LBB2_985-(.LCPI2_10+4))/2
	.short	(.LBB2_1191-(.LCPI2_10+4))/2
	.short	(.LBB2_1191-(.LCPI2_10+4))/2
	.short	(.LBB2_1191-(.LCPI2_10+4))/2
	.short	(.LBB2_1019-(.LCPI2_10+4))/2
	.short	(.LBB2_1191-(.LCPI2_10+4))/2
	.short	(.LBB2_1191-(.LCPI2_10+4))/2
	.short	(.LBB2_1191-(.LCPI2_10+4))/2
	.short	(.LBB2_1191-(.LCPI2_10+4))/2
	.short	(.LBB2_1191-(.LCPI2_10+4))/2
	.short	(.LBB2_1191-(.LCPI2_10+4))/2
	.short	(.LBB2_1191-(.LCPI2_10+4))/2
	.short	(.LBB2_1053-(.LCPI2_10+4))/2
	.short	(.LBB2_1191-(.LCPI2_10+4))/2
	.short	(.LBB2_1191-(.LCPI2_10+4))/2
	.short	(.LBB2_1191-(.LCPI2_10+4))/2
	.short	(.LBB2_1191-(.LCPI2_10+4))/2
	.short	(.LBB2_1191-(.LCPI2_10+4))/2
	.short	(.LBB2_1191-(.LCPI2_10+4))/2
	.short	(.LBB2_1191-(.LCPI2_10+4))/2
	.short	(.LBB2_1191-(.LCPI2_10+4))/2
	.short	(.LBB2_1191-(.LCPI2_10+4))/2
	.short	(.LBB2_1191-(.LCPI2_10+4))/2
	.short	(.LBB2_1191-(.LCPI2_10+4))/2
	.short	(.LBB2_1191-(.LCPI2_10+4))/2
	.short	(.LBB2_1191-(.LCPI2_10+4))/2
	.short	(.LBB2_1191-(.LCPI2_10+4))/2
	.short	(.LBB2_1191-(.LCPI2_10+4))/2
	.short	(.LBB2_1123-(.LCPI2_10+4))/2
	.short	(.LBB2_1191-(.LCPI2_10+4))/2
	.short	(.LBB2_1191-(.LCPI2_10+4))/2
	.short	(.LBB2_1191-(.LCPI2_10+4))/2
	.short	(.LBB2_1191-(.LCPI2_10+4))/2
	.short	(.LBB2_1191-(.LCPI2_10+4))/2
	.short	(.LBB2_1191-(.LCPI2_10+4))/2
	.short	(.LBB2_1191-(.LCPI2_10+4))/2
	.short	(.LBB2_1191-(.LCPI2_10+4))/2
	.short	(.LBB2_1191-(.LCPI2_10+4))/2
	.short	(.LBB2_1191-(.LCPI2_10+4))/2
	.short	(.LBB2_1191-(.LCPI2_10+4))/2
	.short	(.LBB2_1191-(.LCPI2_10+4))/2
	.short	(.LBB2_1191-(.LCPI2_10+4))/2
	.short	(.LBB2_1191-(.LCPI2_10+4))/2
	.short	(.LBB2_1191-(.LCPI2_10+4))/2
	.short	(.LBB2_1191-(.LCPI2_10+4))/2
	.short	(.LBB2_1191-(.LCPI2_10+4))/2
	.short	(.LBB2_1191-(.LCPI2_10+4))/2
	.short	(.LBB2_1191-(.LCPI2_10+4))/2
	.short	(.LBB2_1191-(.LCPI2_10+4))/2
	.short	(.LBB2_1191-(.LCPI2_10+4))/2
	.short	(.LBB2_1191-(.LCPI2_10+4))/2
	.short	(.LBB2_1191-(.LCPI2_10+4))/2
	.short	(.LBB2_1191-(.LCPI2_10+4))/2
	.short	(.LBB2_1191-(.LCPI2_10+4))/2
	.short	(.LBB2_1191-(.LCPI2_10+4))/2
	.short	(.LBB2_1191-(.LCPI2_10+4))/2
	.short	(.LBB2_1191-(.LCPI2_10+4))/2
	.short	(.LBB2_1191-(.LCPI2_10+4))/2
	.short	(.LBB2_1191-(.LCPI2_10+4))/2
	.short	(.LBB2_1191-(.LCPI2_10+4))/2
	.short	(.LBB2_1157-(.LCPI2_10+4))/2
	.p2align	1
.LBB2_917:
.Ltmp122:
	.loc	7 3079 16 is_stmt 1             @ libraries/STM32H7xx_HAL/STM32H7xx_HAL_Driver/Src/stm32h7xx_hal_uart.c:3079:16
	bl	HAL_RCC_GetPCLK1Freq
	.loc	7 3079 14 is_stmt 0             @ libraries/STM32H7xx_HAL/STM32H7xx_HAL_Driver/Src/stm32h7xx_hal_uart.c:3079:14
	str.w	r0, [sp, #1492]
	.loc	7 3080 31 is_stmt 1             @ libraries/STM32H7xx_HAL/STM32H7xx_HAL_Driver/Src/stm32h7xx_hal_uart.c:3080:31
	ldr.w	r0, [sp, #1492]
	str	r0, [sp, #372]                  @ 4-byte Spill
	ldr.w	r0, [sp, #1540]
	ldr	r0, [r0, #36]
	cbnz	r0, .LBB2_919
	b	.LBB2_918
.LBB2_918:
	.loc	7 0 31 is_stmt 0                @ libraries/STM32H7xx_HAL/STM32H7xx_HAL_Driver/Src/stm32h7xx_hal_uart.c:0:31
	movs	r0, #1
	.loc	7 3080 31                       @ libraries/STM32H7xx_HAL/STM32H7xx_HAL_Driver/Src/stm32h7xx_hal_uart.c:3080:31
	str	r0, [sp, #368]                  @ 4-byte Spill
	b	.LBB2_950
.LBB2_919:
	ldr.w	r0, [sp, #1540]
	ldr	r0, [r0, #36]
	cmp	r0, #1
	bne	.LBB2_921
	b	.LBB2_920
.LBB2_920:
	.loc	7 0 31                          @ libraries/STM32H7xx_HAL/STM32H7xx_HAL_Driver/Src/stm32h7xx_hal_uart.c:0:31
	movs	r0, #2
	.loc	7 3080 31                       @ libraries/STM32H7xx_HAL/STM32H7xx_HAL_Driver/Src/stm32h7xx_hal_uart.c:3080:31
	str	r0, [sp, #364]                  @ 4-byte Spill
	b	.LBB2_949
.LBB2_921:
	ldr.w	r0, [sp, #1540]
	ldr	r0, [r0, #36]
	cmp	r0, #2
	bne	.LBB2_923
	b	.LBB2_922
.LBB2_922:
	.loc	7 0 31                          @ libraries/STM32H7xx_HAL/STM32H7xx_HAL_Driver/Src/stm32h7xx_hal_uart.c:0:31
	movs	r0, #4
	.loc	7 3080 31                       @ libraries/STM32H7xx_HAL/STM32H7xx_HAL_Driver/Src/stm32h7xx_hal_uart.c:3080:31
	str	r0, [sp, #360]                  @ 4-byte Spill
	b	.LBB2_948
.LBB2_923:
	ldr.w	r0, [sp, #1540]
	ldr	r0, [r0, #36]
	cmp	r0, #3
	bne	.LBB2_925
	b	.LBB2_924
.LBB2_924:
	.loc	7 0 31                          @ libraries/STM32H7xx_HAL/STM32H7xx_HAL_Driver/Src/stm32h7xx_hal_uart.c:0:31
	movs	r0, #6
	.loc	7 3080 31                       @ libraries/STM32H7xx_HAL/STM32H7xx_HAL_Driver/Src/stm32h7xx_hal_uart.c:3080:31
	str	r0, [sp, #356]                  @ 4-byte Spill
	b	.LBB2_947
.LBB2_925:
	ldr.w	r0, [sp, #1540]
	ldr	r0, [r0, #36]
	cmp	r0, #4
	bne	.LBB2_927
	b	.LBB2_926
.LBB2_926:
	.loc	7 0 31                          @ libraries/STM32H7xx_HAL/STM32H7xx_HAL_Driver/Src/stm32h7xx_hal_uart.c:0:31
	movs	r0, #8
	.loc	7 3080 31                       @ libraries/STM32H7xx_HAL/STM32H7xx_HAL_Driver/Src/stm32h7xx_hal_uart.c:3080:31
	str	r0, [sp, #352]                  @ 4-byte Spill
	b	.LBB2_946
.LBB2_927:
	ldr.w	r0, [sp, #1540]
	ldr	r0, [r0, #36]
	cmp	r0, #5
	bne	.LBB2_929
	b	.LBB2_928
.LBB2_928:
	.loc	7 0 31                          @ libraries/STM32H7xx_HAL/STM32H7xx_HAL_Driver/Src/stm32h7xx_hal_uart.c:0:31
	movs	r0, #10
	.loc	7 3080 31                       @ libraries/STM32H7xx_HAL/STM32H7xx_HAL_Driver/Src/stm32h7xx_hal_uart.c:3080:31
	str	r0, [sp, #348]                  @ 4-byte Spill
	b	.LBB2_945
.LBB2_929:
	ldr.w	r0, [sp, #1540]
	ldr	r0, [r0, #36]
	cmp	r0, #6
	bne	.LBB2_931
	b	.LBB2_930
.LBB2_930:
	.loc	7 0 31                          @ libraries/STM32H7xx_HAL/STM32H7xx_HAL_Driver/Src/stm32h7xx_hal_uart.c:0:31
	movs	r0, #12
	.loc	7 3080 31                       @ libraries/STM32H7xx_HAL/STM32H7xx_HAL_Driver/Src/stm32h7xx_hal_uart.c:3080:31
	str	r0, [sp, #344]                  @ 4-byte Spill
	b	.LBB2_944
.LBB2_931:
	ldr.w	r0, [sp, #1540]
	ldr	r0, [r0, #36]
	cmp	r0, #7
	bne	.LBB2_933
	b	.LBB2_932
.LBB2_932:
	.loc	7 0 31                          @ libraries/STM32H7xx_HAL/STM32H7xx_HAL_Driver/Src/stm32h7xx_hal_uart.c:0:31
	movs	r0, #16
	.loc	7 3080 31                       @ libraries/STM32H7xx_HAL/STM32H7xx_HAL_Driver/Src/stm32h7xx_hal_uart.c:3080:31
	str	r0, [sp, #340]                  @ 4-byte Spill
	b	.LBB2_943
.LBB2_933:
	ldr.w	r0, [sp, #1540]
	ldr	r0, [r0, #36]
	cmp	r0, #8
	bne	.LBB2_935
	b	.LBB2_934
.LBB2_934:
	.loc	7 0 31                          @ libraries/STM32H7xx_HAL/STM32H7xx_HAL_Driver/Src/stm32h7xx_hal_uart.c:0:31
	movs	r0, #32
	.loc	7 3080 31                       @ libraries/STM32H7xx_HAL/STM32H7xx_HAL_Driver/Src/stm32h7xx_hal_uart.c:3080:31
	str	r0, [sp, #336]                  @ 4-byte Spill
	b	.LBB2_942
.LBB2_935:
	ldr.w	r0, [sp, #1540]
	ldr	r0, [r0, #36]
	cmp	r0, #9
	bne	.LBB2_937
	b	.LBB2_936
.LBB2_936:
	.loc	7 0 31                          @ libraries/STM32H7xx_HAL/STM32H7xx_HAL_Driver/Src/stm32h7xx_hal_uart.c:0:31
	movs	r0, #64
	.loc	7 3080 31                       @ libraries/STM32H7xx_HAL/STM32H7xx_HAL_Driver/Src/stm32h7xx_hal_uart.c:3080:31
	str	r0, [sp, #332]                  @ 4-byte Spill
	b	.LBB2_941
.LBB2_937:
	ldr.w	r0, [sp, #1540]
	ldr	r0, [r0, #36]
	cmp	r0, #10
	bne	.LBB2_939
	b	.LBB2_938
.LBB2_938:
	.loc	7 0 31                          @ libraries/STM32H7xx_HAL/STM32H7xx_HAL_Driver/Src/stm32h7xx_hal_uart.c:0:31
	movs	r0, #128
	.loc	7 3080 31                       @ libraries/STM32H7xx_HAL/STM32H7xx_HAL_Driver/Src/stm32h7xx_hal_uart.c:3080:31
	str	r0, [sp, #328]                  @ 4-byte Spill
	b	.LBB2_940
.LBB2_939:
	ldr.w	r0, [sp, #1540]
	ldr	r1, [r0, #36]
	movs	r0, #1
	cmp	r1, #11
	it	eq
	moveq.w	r0, #256
	str	r0, [sp, #328]                  @ 4-byte Spill
	b	.LBB2_940
.LBB2_940:
	ldr	r0, [sp, #328]                  @ 4-byte Reload
	str	r0, [sp, #332]                  @ 4-byte Spill
	b	.LBB2_941
.LBB2_941:
	ldr	r0, [sp, #332]                  @ 4-byte Reload
	str	r0, [sp, #336]                  @ 4-byte Spill
	b	.LBB2_942
.LBB2_942:
	ldr	r0, [sp, #336]                  @ 4-byte Reload
	str	r0, [sp, #340]                  @ 4-byte Spill
	b	.LBB2_943
.LBB2_943:
	ldr	r0, [sp, #340]                  @ 4-byte Reload
	str	r0, [sp, #344]                  @ 4-byte Spill
	b	.LBB2_944
.LBB2_944:
	ldr	r0, [sp, #344]                  @ 4-byte Reload
	str	r0, [sp, #348]                  @ 4-byte Spill
	b	.LBB2_945
.LBB2_945:
	ldr	r0, [sp, #348]                  @ 4-byte Reload
	str	r0, [sp, #352]                  @ 4-byte Spill
	b	.LBB2_946
.LBB2_946:
	ldr	r0, [sp, #352]                  @ 4-byte Reload
	str	r0, [sp, #356]                  @ 4-byte Spill
	b	.LBB2_947
.LBB2_947:
	ldr	r0, [sp, #356]                  @ 4-byte Reload
	str	r0, [sp, #360]                  @ 4-byte Spill
	b	.LBB2_948
.LBB2_948:
	ldr	r0, [sp, #360]                  @ 4-byte Reload
	str	r0, [sp, #364]                  @ 4-byte Spill
	b	.LBB2_949
.LBB2_949:
	ldr	r0, [sp, #364]                  @ 4-byte Reload
	str	r0, [sp, #368]                  @ 4-byte Spill
	b	.LBB2_950
.LBB2_950:
	ldr	r0, [sp, #372]                  @ 4-byte Reload
	ldr	r1, [sp, #368]                  @ 4-byte Reload
	udiv	r0, r0, r1
	ldr.w	r1, [sp, #1540]
	ldr	r1, [r1, #4]
	add.w	r0, r0, r1, lsr #1
	udiv	r0, r0, r1
	.loc	7 3080 20                       @ libraries/STM32H7xx_HAL/STM32H7xx_HAL_Driver/Src/stm32h7xx_hal_uart.c:3080:20
	uxth	r0, r0
	.loc	7 3080 18                       @ libraries/STM32H7xx_HAL/STM32H7xx_HAL_Driver/Src/stm32h7xx_hal_uart.c:3080:18
	str.w	r0, [sp, #1528]
	.loc	7 3081 9 is_stmt 1              @ libraries/STM32H7xx_HAL/STM32H7xx_HAL_Driver/Src/stm32h7xx_hal_uart.c:3081:9
	b.w	.LBB2_1192
.LBB2_951:
	.loc	7 3083 16                       @ libraries/STM32H7xx_HAL/STM32H7xx_HAL_Driver/Src/stm32h7xx_hal_uart.c:3083:16
	bl	HAL_RCC_GetPCLK2Freq
	.loc	7 3083 14 is_stmt 0             @ libraries/STM32H7xx_HAL/STM32H7xx_HAL_Driver/Src/stm32h7xx_hal_uart.c:3083:14
	str.w	r0, [sp, #1492]
	.loc	7 3084 31 is_stmt 1             @ libraries/STM32H7xx_HAL/STM32H7xx_HAL_Driver/Src/stm32h7xx_hal_uart.c:3084:31
	ldr.w	r0, [sp, #1492]
	str	r0, [sp, #324]                  @ 4-byte Spill
	ldr.w	r0, [sp, #1540]
	ldr	r0, [r0, #36]
	cbnz	r0, .LBB2_953
	b	.LBB2_952
.LBB2_952:
	.loc	7 0 31 is_stmt 0                @ libraries/STM32H7xx_HAL/STM32H7xx_HAL_Driver/Src/stm32h7xx_hal_uart.c:0:31
	movs	r0, #1
	.loc	7 3084 31                       @ libraries/STM32H7xx_HAL/STM32H7xx_HAL_Driver/Src/stm32h7xx_hal_uart.c:3084:31
	str	r0, [sp, #320]                  @ 4-byte Spill
	b	.LBB2_984
.LBB2_953:
	ldr.w	r0, [sp, #1540]
	ldr	r0, [r0, #36]
	cmp	r0, #1
	bne	.LBB2_955
	b	.LBB2_954
.LBB2_954:
	.loc	7 0 31                          @ libraries/STM32H7xx_HAL/STM32H7xx_HAL_Driver/Src/stm32h7xx_hal_uart.c:0:31
	movs	r0, #2
	.loc	7 3084 31                       @ libraries/STM32H7xx_HAL/STM32H7xx_HAL_Driver/Src/stm32h7xx_hal_uart.c:3084:31
	str	r0, [sp, #316]                  @ 4-byte Spill
	b	.LBB2_983
.LBB2_955:
	ldr.w	r0, [sp, #1540]
	ldr	r0, [r0, #36]
	cmp	r0, #2
	bne	.LBB2_957
	b	.LBB2_956
.LBB2_956:
	.loc	7 0 31                          @ libraries/STM32H7xx_HAL/STM32H7xx_HAL_Driver/Src/stm32h7xx_hal_uart.c:0:31
	movs	r0, #4
	.loc	7 3084 31                       @ libraries/STM32H7xx_HAL/STM32H7xx_HAL_Driver/Src/stm32h7xx_hal_uart.c:3084:31
	str	r0, [sp, #312]                  @ 4-byte Spill
	b	.LBB2_982
.LBB2_957:
	ldr.w	r0, [sp, #1540]
	ldr	r0, [r0, #36]
	cmp	r0, #3
	bne	.LBB2_959
	b	.LBB2_958
.LBB2_958:
	.loc	7 0 31                          @ libraries/STM32H7xx_HAL/STM32H7xx_HAL_Driver/Src/stm32h7xx_hal_uart.c:0:31
	movs	r0, #6
	.loc	7 3084 31                       @ libraries/STM32H7xx_HAL/STM32H7xx_HAL_Driver/Src/stm32h7xx_hal_uart.c:3084:31
	str	r0, [sp, #308]                  @ 4-byte Spill
	b	.LBB2_981
.LBB2_959:
	ldr.w	r0, [sp, #1540]
	ldr	r0, [r0, #36]
	cmp	r0, #4
	bne	.LBB2_961
	b	.LBB2_960
.LBB2_960:
	.loc	7 0 31                          @ libraries/STM32H7xx_HAL/STM32H7xx_HAL_Driver/Src/stm32h7xx_hal_uart.c:0:31
	movs	r0, #8
	.loc	7 3084 31                       @ libraries/STM32H7xx_HAL/STM32H7xx_HAL_Driver/Src/stm32h7xx_hal_uart.c:3084:31
	str	r0, [sp, #304]                  @ 4-byte Spill
	b	.LBB2_980
.LBB2_961:
	ldr.w	r0, [sp, #1540]
	ldr	r0, [r0, #36]
	cmp	r0, #5
	bne	.LBB2_963
	b	.LBB2_962
.LBB2_962:
	.loc	7 0 31                          @ libraries/STM32H7xx_HAL/STM32H7xx_HAL_Driver/Src/stm32h7xx_hal_uart.c:0:31
	movs	r0, #10
	.loc	7 3084 31                       @ libraries/STM32H7xx_HAL/STM32H7xx_HAL_Driver/Src/stm32h7xx_hal_uart.c:3084:31
	str	r0, [sp, #300]                  @ 4-byte Spill
	b	.LBB2_979
.LBB2_963:
	ldr.w	r0, [sp, #1540]
	ldr	r0, [r0, #36]
	cmp	r0, #6
	bne	.LBB2_965
	b	.LBB2_964
.LBB2_964:
	.loc	7 0 31                          @ libraries/STM32H7xx_HAL/STM32H7xx_HAL_Driver/Src/stm32h7xx_hal_uart.c:0:31
	movs	r0, #12
	.loc	7 3084 31                       @ libraries/STM32H7xx_HAL/STM32H7xx_HAL_Driver/Src/stm32h7xx_hal_uart.c:3084:31
	str	r0, [sp, #296]                  @ 4-byte Spill
	b	.LBB2_978
.LBB2_965:
	ldr.w	r0, [sp, #1540]
	ldr	r0, [r0, #36]
	cmp	r0, #7
	bne	.LBB2_967
	b	.LBB2_966
.LBB2_966:
	.loc	7 0 31                          @ libraries/STM32H7xx_HAL/STM32H7xx_HAL_Driver/Src/stm32h7xx_hal_uart.c:0:31
	movs	r0, #16
	.loc	7 3084 31                       @ libraries/STM32H7xx_HAL/STM32H7xx_HAL_Driver/Src/stm32h7xx_hal_uart.c:3084:31
	str	r0, [sp, #292]                  @ 4-byte Spill
	b	.LBB2_977
.LBB2_967:
	ldr.w	r0, [sp, #1540]
	ldr	r0, [r0, #36]
	cmp	r0, #8
	bne	.LBB2_969
	b	.LBB2_968
.LBB2_968:
	.loc	7 0 31                          @ libraries/STM32H7xx_HAL/STM32H7xx_HAL_Driver/Src/stm32h7xx_hal_uart.c:0:31
	movs	r0, #32
	.loc	7 3084 31                       @ libraries/STM32H7xx_HAL/STM32H7xx_HAL_Driver/Src/stm32h7xx_hal_uart.c:3084:31
	str	r0, [sp, #288]                  @ 4-byte Spill
	b	.LBB2_976
.LBB2_969:
	ldr.w	r0, [sp, #1540]
	ldr	r0, [r0, #36]
	cmp	r0, #9
	bne	.LBB2_971
	b	.LBB2_970
.LBB2_970:
	.loc	7 0 31                          @ libraries/STM32H7xx_HAL/STM32H7xx_HAL_Driver/Src/stm32h7xx_hal_uart.c:0:31
	movs	r0, #64
	.loc	7 3084 31                       @ libraries/STM32H7xx_HAL/STM32H7xx_HAL_Driver/Src/stm32h7xx_hal_uart.c:3084:31
	str	r0, [sp, #284]                  @ 4-byte Spill
	b	.LBB2_975
.LBB2_971:
	ldr.w	r0, [sp, #1540]
	ldr	r0, [r0, #36]
	cmp	r0, #10
	bne	.LBB2_973
	b	.LBB2_972
.LBB2_972:
	.loc	7 0 31                          @ libraries/STM32H7xx_HAL/STM32H7xx_HAL_Driver/Src/stm32h7xx_hal_uart.c:0:31
	movs	r0, #128
	.loc	7 3084 31                       @ libraries/STM32H7xx_HAL/STM32H7xx_HAL_Driver/Src/stm32h7xx_hal_uart.c:3084:31
	str	r0, [sp, #280]                  @ 4-byte Spill
	b	.LBB2_974
.LBB2_973:
	ldr.w	r0, [sp, #1540]
	ldr	r1, [r0, #36]
	movs	r0, #1
	cmp	r1, #11
	it	eq
	moveq.w	r0, #256
	str	r0, [sp, #280]                  @ 4-byte Spill
	b	.LBB2_974
.LBB2_974:
	ldr	r0, [sp, #280]                  @ 4-byte Reload
	str	r0, [sp, #284]                  @ 4-byte Spill
	b	.LBB2_975
.LBB2_975:
	ldr	r0, [sp, #284]                  @ 4-byte Reload
	str	r0, [sp, #288]                  @ 4-byte Spill
	b	.LBB2_976
.LBB2_976:
	ldr	r0, [sp, #288]                  @ 4-byte Reload
	str	r0, [sp, #292]                  @ 4-byte Spill
	b	.LBB2_977
.LBB2_977:
	ldr	r0, [sp, #292]                  @ 4-byte Reload
	str	r0, [sp, #296]                  @ 4-byte Spill
	b	.LBB2_978
.LBB2_978:
	ldr	r0, [sp, #296]                  @ 4-byte Reload
	str	r0, [sp, #300]                  @ 4-byte Spill
	b	.LBB2_979
.LBB2_979:
	ldr	r0, [sp, #300]                  @ 4-byte Reload
	str	r0, [sp, #304]                  @ 4-byte Spill
	b	.LBB2_980
.LBB2_980:
	ldr	r0, [sp, #304]                  @ 4-byte Reload
	str	r0, [sp, #308]                  @ 4-byte Spill
	b	.LBB2_981
.LBB2_981:
	ldr	r0, [sp, #308]                  @ 4-byte Reload
	str	r0, [sp, #312]                  @ 4-byte Spill
	b	.LBB2_982
.LBB2_982:
	ldr	r0, [sp, #312]                  @ 4-byte Reload
	str	r0, [sp, #316]                  @ 4-byte Spill
	b	.LBB2_983
.LBB2_983:
	ldr	r0, [sp, #316]                  @ 4-byte Reload
	str	r0, [sp, #320]                  @ 4-byte Spill
	b	.LBB2_984
.LBB2_984:
	ldr	r0, [sp, #324]                  @ 4-byte Reload
	ldr	r1, [sp, #320]                  @ 4-byte Reload
	udiv	r0, r0, r1
	ldr.w	r1, [sp, #1540]
	ldr	r1, [r1, #4]
	add.w	r0, r0, r1, lsr #1
	udiv	r0, r0, r1
	.loc	7 3084 20                       @ libraries/STM32H7xx_HAL/STM32H7xx_HAL_Driver/Src/stm32h7xx_hal_uart.c:3084:20
	uxth	r0, r0
	.loc	7 3084 18                       @ libraries/STM32H7xx_HAL/STM32H7xx_HAL_Driver/Src/stm32h7xx_hal_uart.c:3084:18
	str.w	r0, [sp, #1528]
	.loc	7 3085 9 is_stmt 1              @ libraries/STM32H7xx_HAL/STM32H7xx_HAL_Driver/Src/stm32h7xx_hal_uart.c:3085:9
	b	.LBB2_1192
.LBB2_985:
	.loc	7 0 9 is_stmt 0                 @ libraries/STM32H7xx_HAL/STM32H7xx_HAL_Driver/Src/stm32h7xx_hal_uart.c:0:9
	addw	r0, sp, #1508
	.loc	7 3087 9 is_stmt 1              @ libraries/STM32H7xx_HAL/STM32H7xx_HAL_Driver/Src/stm32h7xx_hal_uart.c:3087:9
	bl	HAL_RCCEx_GetPLL2ClockFreq
	.loc	7 3088 31                       @ libraries/STM32H7xx_HAL/STM32H7xx_HAL_Driver/Src/stm32h7xx_hal_uart.c:3088:31
	ldr.w	r0, [sp, #1512]
	str	r0, [sp, #276]                  @ 4-byte Spill
	ldr.w	r0, [sp, #1540]
	ldr	r0, [r0, #36]
	cbnz	r0, .LBB2_987
	b	.LBB2_986
.LBB2_986:
	.loc	7 0 31 is_stmt 0                @ libraries/STM32H7xx_HAL/STM32H7xx_HAL_Driver/Src/stm32h7xx_hal_uart.c:0:31
	movs	r0, #1
	.loc	7 3088 31                       @ libraries/STM32H7xx_HAL/STM32H7xx_HAL_Driver/Src/stm32h7xx_hal_uart.c:3088:31
	str	r0, [sp, #272]                  @ 4-byte Spill
	b	.LBB2_1018
.LBB2_987:
	ldr.w	r0, [sp, #1540]
	ldr	r0, [r0, #36]
	cmp	r0, #1
	bne	.LBB2_989
	b	.LBB2_988
.LBB2_988:
	.loc	7 0 31                          @ libraries/STM32H7xx_HAL/STM32H7xx_HAL_Driver/Src/stm32h7xx_hal_uart.c:0:31
	movs	r0, #2
	.loc	7 3088 31                       @ libraries/STM32H7xx_HAL/STM32H7xx_HAL_Driver/Src/stm32h7xx_hal_uart.c:3088:31
	str	r0, [sp, #268]                  @ 4-byte Spill
	b	.LBB2_1017
.LBB2_989:
	ldr.w	r0, [sp, #1540]
	ldr	r0, [r0, #36]
	cmp	r0, #2
	bne	.LBB2_991
	b	.LBB2_990
.LBB2_990:
	.loc	7 0 31                          @ libraries/STM32H7xx_HAL/STM32H7xx_HAL_Driver/Src/stm32h7xx_hal_uart.c:0:31
	movs	r0, #4
	.loc	7 3088 31                       @ libraries/STM32H7xx_HAL/STM32H7xx_HAL_Driver/Src/stm32h7xx_hal_uart.c:3088:31
	str	r0, [sp, #264]                  @ 4-byte Spill
	b	.LBB2_1016
.LBB2_991:
	ldr.w	r0, [sp, #1540]
	ldr	r0, [r0, #36]
	cmp	r0, #3
	bne	.LBB2_993
	b	.LBB2_992
.LBB2_992:
	.loc	7 0 31                          @ libraries/STM32H7xx_HAL/STM32H7xx_HAL_Driver/Src/stm32h7xx_hal_uart.c:0:31
	movs	r0, #6
	.loc	7 3088 31                       @ libraries/STM32H7xx_HAL/STM32H7xx_HAL_Driver/Src/stm32h7xx_hal_uart.c:3088:31
	str	r0, [sp, #260]                  @ 4-byte Spill
	b	.LBB2_1015
.LBB2_993:
	ldr.w	r0, [sp, #1540]
	ldr	r0, [r0, #36]
	cmp	r0, #4
	bne	.LBB2_995
	b	.LBB2_994
.LBB2_994:
	.loc	7 0 31                          @ libraries/STM32H7xx_HAL/STM32H7xx_HAL_Driver/Src/stm32h7xx_hal_uart.c:0:31
	movs	r0, #8
	.loc	7 3088 31                       @ libraries/STM32H7xx_HAL/STM32H7xx_HAL_Driver/Src/stm32h7xx_hal_uart.c:3088:31
	str	r0, [sp, #256]                  @ 4-byte Spill
	b	.LBB2_1014
.LBB2_995:
	ldr.w	r0, [sp, #1540]
	ldr	r0, [r0, #36]
	cmp	r0, #5
	bne	.LBB2_997
	b	.LBB2_996
.LBB2_996:
	.loc	7 0 31                          @ libraries/STM32H7xx_HAL/STM32H7xx_HAL_Driver/Src/stm32h7xx_hal_uart.c:0:31
	movs	r0, #10
	.loc	7 3088 31                       @ libraries/STM32H7xx_HAL/STM32H7xx_HAL_Driver/Src/stm32h7xx_hal_uart.c:3088:31
	str	r0, [sp, #252]                  @ 4-byte Spill
	b	.LBB2_1013
.LBB2_997:
	ldr.w	r0, [sp, #1540]
	ldr	r0, [r0, #36]
	cmp	r0, #6
	bne	.LBB2_999
	b	.LBB2_998
.LBB2_998:
	.loc	7 0 31                          @ libraries/STM32H7xx_HAL/STM32H7xx_HAL_Driver/Src/stm32h7xx_hal_uart.c:0:31
	movs	r0, #12
	.loc	7 3088 31                       @ libraries/STM32H7xx_HAL/STM32H7xx_HAL_Driver/Src/stm32h7xx_hal_uart.c:3088:31
	str	r0, [sp, #248]                  @ 4-byte Spill
	b	.LBB2_1012
.LBB2_999:
	ldr.w	r0, [sp, #1540]
	ldr	r0, [r0, #36]
	cmp	r0, #7
	bne	.LBB2_1001
	b	.LBB2_1000
.LBB2_1000:
	.loc	7 0 31                          @ libraries/STM32H7xx_HAL/STM32H7xx_HAL_Driver/Src/stm32h7xx_hal_uart.c:0:31
	movs	r0, #16
	.loc	7 3088 31                       @ libraries/STM32H7xx_HAL/STM32H7xx_HAL_Driver/Src/stm32h7xx_hal_uart.c:3088:31
	str	r0, [sp, #244]                  @ 4-byte Spill
	b	.LBB2_1011
.LBB2_1001:
	ldr.w	r0, [sp, #1540]
	ldr	r0, [r0, #36]
	cmp	r0, #8
	bne	.LBB2_1003
	b	.LBB2_1002
.LBB2_1002:
	.loc	7 0 31                          @ libraries/STM32H7xx_HAL/STM32H7xx_HAL_Driver/Src/stm32h7xx_hal_uart.c:0:31
	movs	r0, #32
	.loc	7 3088 31                       @ libraries/STM32H7xx_HAL/STM32H7xx_HAL_Driver/Src/stm32h7xx_hal_uart.c:3088:31
	str	r0, [sp, #240]                  @ 4-byte Spill
	b	.LBB2_1010
.LBB2_1003:
	ldr.w	r0, [sp, #1540]
	ldr	r0, [r0, #36]
	cmp	r0, #9
	bne	.LBB2_1005
	b	.LBB2_1004
.LBB2_1004:
	.loc	7 0 31                          @ libraries/STM32H7xx_HAL/STM32H7xx_HAL_Driver/Src/stm32h7xx_hal_uart.c:0:31
	movs	r0, #64
	.loc	7 3088 31                       @ libraries/STM32H7xx_HAL/STM32H7xx_HAL_Driver/Src/stm32h7xx_hal_uart.c:3088:31
	str	r0, [sp, #236]                  @ 4-byte Spill
	b	.LBB2_1009
.LBB2_1005:
	ldr.w	r0, [sp, #1540]
	ldr	r0, [r0, #36]
	cmp	r0, #10
	bne	.LBB2_1007
	b	.LBB2_1006
.LBB2_1006:
	.loc	7 0 31                          @ libraries/STM32H7xx_HAL/STM32H7xx_HAL_Driver/Src/stm32h7xx_hal_uart.c:0:31
	movs	r0, #128
	.loc	7 3088 31                       @ libraries/STM32H7xx_HAL/STM32H7xx_HAL_Driver/Src/stm32h7xx_hal_uart.c:3088:31
	str	r0, [sp, #232]                  @ 4-byte Spill
	b	.LBB2_1008
.LBB2_1007:
	ldr.w	r0, [sp, #1540]
	ldr	r1, [r0, #36]
	movs	r0, #1
	cmp	r1, #11
	it	eq
	moveq.w	r0, #256
	str	r0, [sp, #232]                  @ 4-byte Spill
	b	.LBB2_1008
.LBB2_1008:
	ldr	r0, [sp, #232]                  @ 4-byte Reload
	str	r0, [sp, #236]                  @ 4-byte Spill
	b	.LBB2_1009
.LBB2_1009:
	ldr	r0, [sp, #236]                  @ 4-byte Reload
	str	r0, [sp, #240]                  @ 4-byte Spill
	b	.LBB2_1010
.LBB2_1010:
	ldr	r0, [sp, #240]                  @ 4-byte Reload
	str	r0, [sp, #244]                  @ 4-byte Spill
	b	.LBB2_1011
.LBB2_1011:
	ldr	r0, [sp, #244]                  @ 4-byte Reload
	str	r0, [sp, #248]                  @ 4-byte Spill
	b	.LBB2_1012
.LBB2_1012:
	ldr	r0, [sp, #248]                  @ 4-byte Reload
	str	r0, [sp, #252]                  @ 4-byte Spill
	b	.LBB2_1013
.LBB2_1013:
	ldr	r0, [sp, #252]                  @ 4-byte Reload
	str	r0, [sp, #256]                  @ 4-byte Spill
	b	.LBB2_1014
.LBB2_1014:
	ldr	r0, [sp, #256]                  @ 4-byte Reload
	str	r0, [sp, #260]                  @ 4-byte Spill
	b	.LBB2_1015
.LBB2_1015:
	ldr	r0, [sp, #260]                  @ 4-byte Reload
	str	r0, [sp, #264]                  @ 4-byte Spill
	b	.LBB2_1016
.LBB2_1016:
	ldr	r0, [sp, #264]                  @ 4-byte Reload
	str	r0, [sp, #268]                  @ 4-byte Spill
	b	.LBB2_1017
.LBB2_1017:
	ldr	r0, [sp, #268]                  @ 4-byte Reload
	str	r0, [sp, #272]                  @ 4-byte Spill
	b	.LBB2_1018
.LBB2_1018:
	ldr	r0, [sp, #276]                  @ 4-byte Reload
	ldr	r1, [sp, #272]                  @ 4-byte Reload
	udiv	r0, r0, r1
	ldr.w	r1, [sp, #1540]
	ldr	r1, [r1, #4]
	add.w	r0, r0, r1, lsr #1
	udiv	r0, r0, r1
	.loc	7 3088 20                       @ libraries/STM32H7xx_HAL/STM32H7xx_HAL_Driver/Src/stm32h7xx_hal_uart.c:3088:20
	uxth	r0, r0
	.loc	7 3088 18                       @ libraries/STM32H7xx_HAL/STM32H7xx_HAL_Driver/Src/stm32h7xx_hal_uart.c:3088:18
	str.w	r0, [sp, #1528]
	.loc	7 3089 9 is_stmt 1              @ libraries/STM32H7xx_HAL/STM32H7xx_HAL_Driver/Src/stm32h7xx_hal_uart.c:3089:9
	b	.LBB2_1192
.LBB2_1019:
	.loc	7 0 9 is_stmt 0                 @ libraries/STM32H7xx_HAL/STM32H7xx_HAL_Driver/Src/stm32h7xx_hal_uart.c:0:9
	add.w	r0, sp, #1496
	.loc	7 3091 9 is_stmt 1              @ libraries/STM32H7xx_HAL/STM32H7xx_HAL_Driver/Src/stm32h7xx_hal_uart.c:3091:9
	bl	HAL_RCCEx_GetPLL3ClockFreq
	.loc	7 3092 31                       @ libraries/STM32H7xx_HAL/STM32H7xx_HAL_Driver/Src/stm32h7xx_hal_uart.c:3092:31
	ldr.w	r0, [sp, #1500]
	str	r0, [sp, #228]                  @ 4-byte Spill
	ldr.w	r0, [sp, #1540]
	ldr	r0, [r0, #36]
	cbnz	r0, .LBB2_1021
	b	.LBB2_1020
.LBB2_1020:
	.loc	7 0 31 is_stmt 0                @ libraries/STM32H7xx_HAL/STM32H7xx_HAL_Driver/Src/stm32h7xx_hal_uart.c:0:31
	movs	r0, #1
	.loc	7 3092 31                       @ libraries/STM32H7xx_HAL/STM32H7xx_HAL_Driver/Src/stm32h7xx_hal_uart.c:3092:31
	str	r0, [sp, #224]                  @ 4-byte Spill
	b	.LBB2_1052
.LBB2_1021:
	ldr.w	r0, [sp, #1540]
	ldr	r0, [r0, #36]
	cmp	r0, #1
	bne	.LBB2_1023
	b	.LBB2_1022
.LBB2_1022:
	.loc	7 0 31                          @ libraries/STM32H7xx_HAL/STM32H7xx_HAL_Driver/Src/stm32h7xx_hal_uart.c:0:31
	movs	r0, #2
	.loc	7 3092 31                       @ libraries/STM32H7xx_HAL/STM32H7xx_HAL_Driver/Src/stm32h7xx_hal_uart.c:3092:31
	str	r0, [sp, #220]                  @ 4-byte Spill
	b	.LBB2_1051
.LBB2_1023:
	ldr.w	r0, [sp, #1540]
	ldr	r0, [r0, #36]
	cmp	r0, #2
	bne	.LBB2_1025
	b	.LBB2_1024
.LBB2_1024:
	.loc	7 0 31                          @ libraries/STM32H7xx_HAL/STM32H7xx_HAL_Driver/Src/stm32h7xx_hal_uart.c:0:31
	movs	r0, #4
	.loc	7 3092 31                       @ libraries/STM32H7xx_HAL/STM32H7xx_HAL_Driver/Src/stm32h7xx_hal_uart.c:3092:31
	str	r0, [sp, #216]                  @ 4-byte Spill
	b	.LBB2_1050
.LBB2_1025:
	ldr.w	r0, [sp, #1540]
	ldr	r0, [r0, #36]
	cmp	r0, #3
	bne	.LBB2_1027
	b	.LBB2_1026
.LBB2_1026:
	.loc	7 0 31                          @ libraries/STM32H7xx_HAL/STM32H7xx_HAL_Driver/Src/stm32h7xx_hal_uart.c:0:31
	movs	r0, #6
	.loc	7 3092 31                       @ libraries/STM32H7xx_HAL/STM32H7xx_HAL_Driver/Src/stm32h7xx_hal_uart.c:3092:31
	str	r0, [sp, #212]                  @ 4-byte Spill
	b	.LBB2_1049
.LBB2_1027:
	ldr.w	r0, [sp, #1540]
	ldr	r0, [r0, #36]
	cmp	r0, #4
	bne	.LBB2_1029
	b	.LBB2_1028
.LBB2_1028:
	.loc	7 0 31                          @ libraries/STM32H7xx_HAL/STM32H7xx_HAL_Driver/Src/stm32h7xx_hal_uart.c:0:31
	movs	r0, #8
	.loc	7 3092 31                       @ libraries/STM32H7xx_HAL/STM32H7xx_HAL_Driver/Src/stm32h7xx_hal_uart.c:3092:31
	str	r0, [sp, #208]                  @ 4-byte Spill
	b	.LBB2_1048
.LBB2_1029:
	ldr.w	r0, [sp, #1540]
	ldr	r0, [r0, #36]
	cmp	r0, #5
	bne	.LBB2_1031
	b	.LBB2_1030
.LBB2_1030:
	.loc	7 0 31                          @ libraries/STM32H7xx_HAL/STM32H7xx_HAL_Driver/Src/stm32h7xx_hal_uart.c:0:31
	movs	r0, #10
	.loc	7 3092 31                       @ libraries/STM32H7xx_HAL/STM32H7xx_HAL_Driver/Src/stm32h7xx_hal_uart.c:3092:31
	str	r0, [sp, #204]                  @ 4-byte Spill
	b	.LBB2_1047
.LBB2_1031:
	ldr.w	r0, [sp, #1540]
	ldr	r0, [r0, #36]
	cmp	r0, #6
	bne	.LBB2_1033
	b	.LBB2_1032
.LBB2_1032:
	.loc	7 0 31                          @ libraries/STM32H7xx_HAL/STM32H7xx_HAL_Driver/Src/stm32h7xx_hal_uart.c:0:31
	movs	r0, #12
	.loc	7 3092 31                       @ libraries/STM32H7xx_HAL/STM32H7xx_HAL_Driver/Src/stm32h7xx_hal_uart.c:3092:31
	str	r0, [sp, #200]                  @ 4-byte Spill
	b	.LBB2_1046
.LBB2_1033:
	ldr.w	r0, [sp, #1540]
	ldr	r0, [r0, #36]
	cmp	r0, #7
	bne	.LBB2_1035
	b	.LBB2_1034
.LBB2_1034:
	.loc	7 0 31                          @ libraries/STM32H7xx_HAL/STM32H7xx_HAL_Driver/Src/stm32h7xx_hal_uart.c:0:31
	movs	r0, #16
	.loc	7 3092 31                       @ libraries/STM32H7xx_HAL/STM32H7xx_HAL_Driver/Src/stm32h7xx_hal_uart.c:3092:31
	str	r0, [sp, #196]                  @ 4-byte Spill
	b	.LBB2_1045
.LBB2_1035:
	ldr.w	r0, [sp, #1540]
	ldr	r0, [r0, #36]
	cmp	r0, #8
	bne	.LBB2_1037
	b	.LBB2_1036
.LBB2_1036:
	.loc	7 0 31                          @ libraries/STM32H7xx_HAL/STM32H7xx_HAL_Driver/Src/stm32h7xx_hal_uart.c:0:31
	movs	r0, #32
	.loc	7 3092 31                       @ libraries/STM32H7xx_HAL/STM32H7xx_HAL_Driver/Src/stm32h7xx_hal_uart.c:3092:31
	str	r0, [sp, #192]                  @ 4-byte Spill
	b	.LBB2_1044
.LBB2_1037:
	ldr.w	r0, [sp, #1540]
	ldr	r0, [r0, #36]
	cmp	r0, #9
	bne	.LBB2_1039
	b	.LBB2_1038
.LBB2_1038:
	.loc	7 0 31                          @ libraries/STM32H7xx_HAL/STM32H7xx_HAL_Driver/Src/stm32h7xx_hal_uart.c:0:31
	movs	r0, #64
	.loc	7 3092 31                       @ libraries/STM32H7xx_HAL/STM32H7xx_HAL_Driver/Src/stm32h7xx_hal_uart.c:3092:31
	str	r0, [sp, #188]                  @ 4-byte Spill
	b	.LBB2_1043
.LBB2_1039:
	ldr.w	r0, [sp, #1540]
	ldr	r0, [r0, #36]
	cmp	r0, #10
	bne	.LBB2_1041
	b	.LBB2_1040
.LBB2_1040:
	.loc	7 0 31                          @ libraries/STM32H7xx_HAL/STM32H7xx_HAL_Driver/Src/stm32h7xx_hal_uart.c:0:31
	movs	r0, #128
	.loc	7 3092 31                       @ libraries/STM32H7xx_HAL/STM32H7xx_HAL_Driver/Src/stm32h7xx_hal_uart.c:3092:31
	str	r0, [sp, #184]                  @ 4-byte Spill
	b	.LBB2_1042
.LBB2_1041:
	ldr.w	r0, [sp, #1540]
	ldr	r1, [r0, #36]
	movs	r0, #1
	cmp	r1, #11
	it	eq
	moveq.w	r0, #256
	str	r0, [sp, #184]                  @ 4-byte Spill
	b	.LBB2_1042
.LBB2_1042:
	ldr	r0, [sp, #184]                  @ 4-byte Reload
	str	r0, [sp, #188]                  @ 4-byte Spill
	b	.LBB2_1043
.LBB2_1043:
	ldr	r0, [sp, #188]                  @ 4-byte Reload
	str	r0, [sp, #192]                  @ 4-byte Spill
	b	.LBB2_1044
.LBB2_1044:
	ldr	r0, [sp, #192]                  @ 4-byte Reload
	str	r0, [sp, #196]                  @ 4-byte Spill
	b	.LBB2_1045
.LBB2_1045:
	ldr	r0, [sp, #196]                  @ 4-byte Reload
	str	r0, [sp, #200]                  @ 4-byte Spill
	b	.LBB2_1046
.LBB2_1046:
	ldr	r0, [sp, #200]                  @ 4-byte Reload
	str	r0, [sp, #204]                  @ 4-byte Spill
	b	.LBB2_1047
.LBB2_1047:
	ldr	r0, [sp, #204]                  @ 4-byte Reload
	str	r0, [sp, #208]                  @ 4-byte Spill
	b	.LBB2_1048
.LBB2_1048:
	ldr	r0, [sp, #208]                  @ 4-byte Reload
	str	r0, [sp, #212]                  @ 4-byte Spill
	b	.LBB2_1049
.LBB2_1049:
	ldr	r0, [sp, #212]                  @ 4-byte Reload
	str	r0, [sp, #216]                  @ 4-byte Spill
	b	.LBB2_1050
.LBB2_1050:
	ldr	r0, [sp, #216]                  @ 4-byte Reload
	str	r0, [sp, #220]                  @ 4-byte Spill
	b	.LBB2_1051
.LBB2_1051:
	ldr	r0, [sp, #220]                  @ 4-byte Reload
	str	r0, [sp, #224]                  @ 4-byte Spill
	b	.LBB2_1052
.LBB2_1052:
	ldr	r0, [sp, #228]                  @ 4-byte Reload
	ldr	r1, [sp, #224]                  @ 4-byte Reload
	udiv	r0, r0, r1
	ldr.w	r1, [sp, #1540]
	ldr	r1, [r1, #4]
	add.w	r0, r0, r1, lsr #1
	udiv	r0, r0, r1
	.loc	7 3092 20                       @ libraries/STM32H7xx_HAL/STM32H7xx_HAL_Driver/Src/stm32h7xx_hal_uart.c:3092:20
	uxth	r0, r0
	.loc	7 3092 18                       @ libraries/STM32H7xx_HAL/STM32H7xx_HAL_Driver/Src/stm32h7xx_hal_uart.c:3092:18
	str.w	r0, [sp, #1528]
	.loc	7 3093 9 is_stmt 1              @ libraries/STM32H7xx_HAL/STM32H7xx_HAL_Driver/Src/stm32h7xx_hal_uart.c:3093:9
	b	.LBB2_1192
.LBB2_1053:
	.loc	7 0 9 is_stmt 0                 @ libraries/STM32H7xx_HAL/STM32H7xx_HAL_Driver/Src/stm32h7xx_hal_uart.c:0:9
	movw	r0, #17408
	movt	r0, #22530
.Ltmp123:
	.loc	7 3095 13 is_stmt 1             @ libraries/STM32H7xx_HAL/STM32H7xx_HAL_Driver/Src/stm32h7xx_hal_uart.c:3095:13
	ldr	r0, [r0]
	and	r1, r0, #32
	movs	r0, #0
.Ltmp124:
	.loc	7 3095 13 is_stmt 0             @ libraries/STM32H7xx_HAL/STM32H7xx_HAL_Driver/Src/stm32h7xx_hal_uart.c:3095:13
	cmp.w	r0, r1, lsr #5
	beq.w	.LBB2_1088
	b	.LBB2_1054
.LBB2_1054:
