	.text
	.syntax unified
	.eabi_attribute	67, "2.09"	@ Tag_conformance
	.cpu	cortex-m7
	.eabi_attribute	6, 13	@ Tag_CPU_arch
	.eabi_attribute	7, 77	@ Tag_CPU_arch_profile
	.eabi_attribute	8, 0	@ Tag_ARM_ISA_use
	.eabi_attribute	9, 2	@ Tag_THUMB_ISA_use
	.fpu	fpv5-d16
	.eabi_attribute	36, 1	@ Tag_FP_HP_extension
	.eabi_attribute	34, 1	@ Tag_CPU_unaligned_access
	.eabi_attribute	17, 1	@ Tag_ABI_PCS_GOT_use
	.eabi_attribute	20, 2	@ Tag_ABI_FP_denormal
	.eabi_attribute	21, 0	@ Tag_ABI_FP_exceptions
	.eabi_attribute	23, 1	@ Tag_ABI_FP_number_model
	.eabi_attribute	24, 1	@ Tag_ABI_align_needed
	.eabi_attribute	25, 1	@ Tag_ABI_align_preserved
	.eabi_attribute	28, 1	@ Tag_ABI_VFP_args
	.eabi_attribute	38, 1	@ Tag_ABI_FP_16bit_format
	.eabi_attribute	18, 2	@ Tag_ABI_PCS_wchar_t
	.eabi_attribute	26, 1	@ Tag_ABI_enum_size
	.eabi_attribute	14, 0	@ Tag_ABI_PCS_R9_use
	.file	"stm32h7xx_hal_rtc.c"
	.file	1 "E:\\STM32\\Learning\\STM32H750_ART_PI_RGBLCD" "libraries/STM32H7xx_HAL/STM32H7xx_HAL_Driver/Inc/stm32h7xx_hal_def.h"
	.file	2 "E:\\STM32\\Learning\\STM32H750_ART_PI_RGBLCD" "libraries/STM32H7xx_HAL/STM32H7xx_HAL_Driver/Inc\\stm32h7xx_hal_rtc.h"
	.file	3 "D:\\Keil_v5\\ARM\\ARMCLANG\\Bin\\..\\include" "stdint.h"
	.file	4 "E:\\STM32\\Learning\\STM32H750_ART_PI_RGBLCD" "libraries/STM32H7xx_HAL/CMSIS/Device/ST/STM32H7xx/Include/stm32h750xx.h"
	.section	.text.HAL_RTC_Init,"ax",%progbits
	.hidden	HAL_RTC_Init                    @ -- Begin function HAL_RTC_Init
	.globl	HAL_RTC_Init
	.p2align	3
	.type	HAL_RTC_Init,%function
	.code	16                              @ @HAL_RTC_Init
	.thumb_func
HAL_RTC_Init:
.Lfunc_begin0:
	.file	5 "E:\\STM32\\Learning\\STM32H750_ART_PI_RGBLCD" "libraries/STM32H7xx_HAL/STM32H7xx_HAL_Driver/Src/stm32h7xx_hal_rtc.c"
	.loc	5 224 0                         @ libraries/STM32H7xx_HAL/STM32H7xx_HAL_Driver/Src/stm32h7xx_hal_rtc.c:224:0
	.fnstart
	.cfi_sections .debug_frame
	.cfi_startproc
@ %bb.0:
	.save	{r7, lr}
	push	{r7, lr}
	.cfi_def_cfa_offset 8
	.cfi_offset lr, -4
	.cfi_offset r7, -8
	.pad	#8
	sub	sp, #8
	.cfi_def_cfa_offset 16
	str	r0, [sp, #4]
	movs	r0, #1
.Ltmp0:
	.loc	5 225 21 prologue_end           @ libraries/STM32H7xx_HAL/STM32H7xx_HAL_Driver/Src/stm32h7xx_hal_rtc.c:225:21
	strb.w	r0, [sp, #3]
.Ltmp1:
	.loc	5 228 6                         @ libraries/STM32H7xx_HAL/STM32H7xx_HAL_Driver/Src/stm32h7xx_hal_rtc.c:228:6
	ldr	r0, [sp, #4]
.Ltmp2:
	.loc	5 228 6 is_stmt 0               @ libraries/STM32H7xx_HAL/STM32H7xx_HAL_Driver/Src/stm32h7xx_hal_rtc.c:228:6
	cmp	r0, #0
	beq	.LBB0_13
	b	.LBB0_1
.LBB0_1:
	.loc	5 0 6                           @ libraries/STM32H7xx_HAL/STM32H7xx_HAL_Driver/Src/stm32h7xx_hal_rtc.c:0:6
	movs	r0, #0
.Ltmp3:
	.loc	5 230 12 is_stmt 1              @ libraries/STM32H7xx_HAL/STM32H7xx_HAL_Driver/Src/stm32h7xx_hal_rtc.c:230:12
	strb.w	r0, [sp, #3]
.Ltmp4:
	.loc	5 269 8                         @ libraries/STM32H7xx_HAL/STM32H7xx_HAL_Driver/Src/stm32h7xx_hal_rtc.c:269:8
	ldr	r0, [sp, #4]
	.loc	5 269 14 is_stmt 0              @ libraries/STM32H7xx_HAL/STM32H7xx_HAL_Driver/Src/stm32h7xx_hal_rtc.c:269:14
	ldrb.w	r0, [r0, #33]
.Ltmp5:
	.loc	5 269 8                         @ libraries/STM32H7xx_HAL/STM32H7xx_HAL_Driver/Src/stm32h7xx_hal_rtc.c:269:8
	cbnz	r0, .LBB0_3
	b	.LBB0_2
.LBB0_2:
.Ltmp6:
	.loc	5 272 7 is_stmt 1               @ libraries/STM32H7xx_HAL/STM32H7xx_HAL_Driver/Src/stm32h7xx_hal_rtc.c:272:7
	ldr	r1, [sp, #4]
	movs	r0, #0
	.loc	5 272 18 is_stmt 0              @ libraries/STM32H7xx_HAL/STM32H7xx_HAL_Driver/Src/stm32h7xx_hal_rtc.c:272:18
	strb.w	r0, [r1, #32]
	.loc	5 275 23 is_stmt 1              @ libraries/STM32H7xx_HAL/STM32H7xx_HAL_Driver/Src/stm32h7xx_hal_rtc.c:275:23
	ldr	r0, [sp, #4]
	.loc	5 275 7 is_stmt 0               @ libraries/STM32H7xx_HAL/STM32H7xx_HAL_Driver/Src/stm32h7xx_hal_rtc.c:275:7
	bl	HAL_RTC_MspInit
	.loc	5 276 5 is_stmt 1               @ libraries/STM32H7xx_HAL/STM32H7xx_HAL_Driver/Src/stm32h7xx_hal_rtc.c:276:5
	b	.LBB0_3
.Ltmp7:
.LBB0_3:
	.loc	5 280 5                         @ libraries/STM32H7xx_HAL/STM32H7xx_HAL_Driver/Src/stm32h7xx_hal_rtc.c:280:5
	ldr	r1, [sp, #4]
	movs	r0, #2
	.loc	5 280 17 is_stmt 0              @ libraries/STM32H7xx_HAL/STM32H7xx_HAL_Driver/Src/stm32h7xx_hal_rtc.c:280:17
	strb.w	r0, [r1, #33]
	.loc	5 283 5 is_stmt 1               @ libraries/STM32H7xx_HAL/STM32H7xx_HAL_Driver/Src/stm32h7xx_hal_rtc.c:283:5
	b	.LBB0_4
.LBB0_4:
.Ltmp8:
	.loc	5 283 5 is_stmt 0               @ libraries/STM32H7xx_HAL/STM32H7xx_HAL_Driver/Src/stm32h7xx_hal_rtc.c:283:5
	ldr	r0, [sp, #4]
	ldr	r1, [r0]
	movs	r0, #202
	str	r0, [r1, #36]
	ldr	r0, [sp, #4]
	ldr	r1, [r0]
	movs	r0, #83
	str	r0, [r1, #36]
	b	.LBB0_5
.Ltmp9:
.LBB0_5:
	.loc	5 286 26 is_stmt 1              @ libraries/STM32H7xx_HAL/STM32H7xx_HAL_Driver/Src/stm32h7xx_hal_rtc.c:286:26
	ldr	r0, [sp, #4]
	.loc	5 286 8 is_stmt 0               @ libraries/STM32H7xx_HAL/STM32H7xx_HAL_Driver/Src/stm32h7xx_hal_rtc.c:286:8
	bl	RTC_EnterInitMode
.Ltmp10:
	.loc	5 286 8                         @ libraries/STM32H7xx_HAL/STM32H7xx_HAL_Driver/Src/stm32h7xx_hal_rtc.c:286:8
	cbz	r0, .LBB0_9
	b	.LBB0_6
.LBB0_6:
.Ltmp11:
	.loc	5 289 7 is_stmt 1               @ libraries/STM32H7xx_HAL/STM32H7xx_HAL_Driver/Src/stm32h7xx_hal_rtc.c:289:7
	b	.LBB0_7
.LBB0_7:
.Ltmp12:
	.loc	5 289 7 is_stmt 0               @ libraries/STM32H7xx_HAL/STM32H7xx_HAL_Driver/Src/stm32h7xx_hal_rtc.c:289:7
	ldr	r0, [sp, #4]
	ldr	r1, [r0]
	movs	r0, #255
	str	r0, [r1, #36]
	b	.LBB0_8
.Ltmp13:
.LBB0_8:
	.loc	5 292 7 is_stmt 1               @ libraries/STM32H7xx_HAL/STM32H7xx_HAL_Driver/Src/stm32h7xx_hal_rtc.c:292:7
	ldr	r1, [sp, #4]
	movs	r0, #4
	.loc	5 292 19 is_stmt 0              @ libraries/STM32H7xx_HAL/STM32H7xx_HAL_Driver/Src/stm32h7xx_hal_rtc.c:292:19
	strb.w	r0, [r1, #33]
	movs	r0, #1
	.loc	5 294 16 is_stmt 1              @ libraries/STM32H7xx_HAL/STM32H7xx_HAL_Driver/Src/stm32h7xx_hal_rtc.c:294:16
	strb.w	r0, [sp, #3]
	.loc	5 295 5                         @ libraries/STM32H7xx_HAL/STM32H7xx_HAL_Driver/Src/stm32h7xx_hal_rtc.c:295:5
	b	.LBB0_12
.Ltmp14:
.LBB0_9:
	.loc	5 299 7                         @ libraries/STM32H7xx_HAL/STM32H7xx_HAL_Driver/Src/stm32h7xx_hal_rtc.c:299:7
	ldr	r0, [sp, #4]
	.loc	5 299 13 is_stmt 0              @ libraries/STM32H7xx_HAL/STM32H7xx_HAL_Driver/Src/stm32h7xx_hal_rtc.c:299:13
	ldr	r1, [r0]
	.loc	5 299 26                        @ libraries/STM32H7xx_HAL/STM32H7xx_HAL_Driver/Src/stm32h7xx_hal_rtc.c:299:26
	ldr	r0, [r1, #8]
	movw	r2, #65471
	movt	r2, #65423
	ands	r0, r2
	str	r0, [r1, #8]
	.loc	5 301 30 is_stmt 1              @ libraries/STM32H7xx_HAL/STM32H7xx_HAL_Driver/Src/stm32h7xx_hal_rtc.c:301:30
	ldr	r2, [sp, #4]
	.loc	5 301 13 is_stmt 0              @ libraries/STM32H7xx_HAL/STM32H7xx_HAL_Driver/Src/stm32h7xx_hal_rtc.c:301:13
	ldr	r1, [r2]
	.loc	5 301 41                        @ libraries/STM32H7xx_HAL/STM32H7xx_HAL_Driver/Src/stm32h7xx_hal_rtc.c:301:41
	ldr	r0, [r2, #4]
	.loc	5 301 65                        @ libraries/STM32H7xx_HAL/STM32H7xx_HAL_Driver/Src/stm32h7xx_hal_rtc.c:301:65
	ldr	r3, [r2, #16]
	.loc	5 301 85                        @ libraries/STM32H7xx_HAL/STM32H7xx_HAL_Driver/Src/stm32h7xx_hal_rtc.c:301:85
	ldr	r2, [r2, #24]
	.loc	5 301 52                        @ libraries/STM32H7xx_HAL/STM32H7xx_HAL_Driver/Src/stm32h7xx_hal_rtc.c:301:52
	orrs	r0, r3
	.loc	5 301 72                        @ libraries/STM32H7xx_HAL/STM32H7xx_HAL_Driver/Src/stm32h7xx_hal_rtc.c:301:72
	orrs	r2, r0
	.loc	5 301 26                        @ libraries/STM32H7xx_HAL/STM32H7xx_HAL_Driver/Src/stm32h7xx_hal_rtc.c:301:26
	ldr	r0, [r1, #8]
	orrs	r0, r2
	str	r0, [r1, #8]
	.loc	5 304 32 is_stmt 1              @ libraries/STM32H7xx_HAL/STM32H7xx_HAL_Driver/Src/stm32h7xx_hal_rtc.c:304:32
	ldr	r0, [sp, #4]
	.loc	5 304 13 is_stmt 0              @ libraries/STM32H7xx_HAL/STM32H7xx_HAL_Driver/Src/stm32h7xx_hal_rtc.c:304:13
	ldr	r1, [r0]
	.loc	5 304 43                        @ libraries/STM32H7xx_HAL/STM32H7xx_HAL_Driver/Src/stm32h7xx_hal_rtc.c:304:43
	ldr	r0, [r0, #12]
	.loc	5 304 29                        @ libraries/STM32H7xx_HAL/STM32H7xx_HAL_Driver/Src/stm32h7xx_hal_rtc.c:304:29
	str	r0, [r1, #16]
	.loc	5 305 32 is_stmt 1              @ libraries/STM32H7xx_HAL/STM32H7xx_HAL_Driver/Src/stm32h7xx_hal_rtc.c:305:32
	ldr	r0, [sp, #4]
	.loc	5 305 13 is_stmt 0              @ libraries/STM32H7xx_HAL/STM32H7xx_HAL_Driver/Src/stm32h7xx_hal_rtc.c:305:13
	ldr	r1, [r0]
	.loc	5 305 43                        @ libraries/STM32H7xx_HAL/STM32H7xx_HAL_Driver/Src/stm32h7xx_hal_rtc.c:305:43
	ldr	r2, [r0, #8]
	.loc	5 305 28                        @ libraries/STM32H7xx_HAL/STM32H7xx_HAL_Driver/Src/stm32h7xx_hal_rtc.c:305:28
	ldr	r0, [r1, #16]
	orr.w	r0, r0, r2, lsl #16
	str	r0, [r1, #16]
	.loc	5 308 7 is_stmt 1               @ libraries/STM32H7xx_HAL/STM32H7xx_HAL_Driver/Src/stm32h7xx_hal_rtc.c:308:7
	ldr	r0, [sp, #4]
	.loc	5 308 13 is_stmt 0              @ libraries/STM32H7xx_HAL/STM32H7xx_HAL_Driver/Src/stm32h7xx_hal_rtc.c:308:13
	ldr	r1, [r0]
	.loc	5 308 27                        @ libraries/STM32H7xx_HAL/STM32H7xx_HAL_Driver/Src/stm32h7xx_hal_rtc.c:308:27
	ldr	r0, [r1, #12]
	bic	r0, r0, #128
	str	r0, [r1, #12]
	.loc	5 311 7 is_stmt 1               @ libraries/STM32H7xx_HAL/STM32H7xx_HAL_Driver/Src/stm32h7xx_hal_rtc.c:311:7
	ldr	r0, [sp, #4]
	.loc	5 311 13 is_stmt 0              @ libraries/STM32H7xx_HAL/STM32H7xx_HAL_Driver/Src/stm32h7xx_hal_rtc.c:311:13
	ldr	r1, [r0]
	.loc	5 311 26                        @ libraries/STM32H7xx_HAL/STM32H7xx_HAL_Driver/Src/stm32h7xx_hal_rtc.c:311:26
	ldr	r0, [r1, #76]
	bic	r0, r0, #3
	str	r0, [r1, #76]
	.loc	5 313 30 is_stmt 1              @ libraries/STM32H7xx_HAL/STM32H7xx_HAL_Driver/Src/stm32h7xx_hal_rtc.c:313:30
	ldr	r0, [sp, #4]
	.loc	5 313 13 is_stmt 0              @ libraries/STM32H7xx_HAL/STM32H7xx_HAL_Driver/Src/stm32h7xx_hal_rtc.c:313:13
	ldr	r1, [r0]
	.loc	5 313 65                        @ libraries/STM32H7xx_HAL/STM32H7xx_HAL_Driver/Src/stm32h7xx_hal_rtc.c:313:65
	ldr	r2, [r0, #20]
	.loc	5 313 41                        @ libraries/STM32H7xx_HAL/STM32H7xx_HAL_Driver/Src/stm32h7xx_hal_rtc.c:313:41
	ldr	r0, [r0, #28]
	.loc	5 313 52                        @ libraries/STM32H7xx_HAL/STM32H7xx_HAL_Driver/Src/stm32h7xx_hal_rtc.c:313:52
	orrs	r2, r0
	.loc	5 313 26                        @ libraries/STM32H7xx_HAL/STM32H7xx_HAL_Driver/Src/stm32h7xx_hal_rtc.c:313:26
	ldr	r0, [r1, #76]
	orrs	r0, r2
	str	r0, [r1, #76]
	.loc	5 316 7 is_stmt 1               @ libraries/STM32H7xx_HAL/STM32H7xx_HAL_Driver/Src/stm32h7xx_hal_rtc.c:316:7
	b	.LBB0_10
.LBB0_10:
.Ltmp15:
	.loc	5 316 7 is_stmt 0               @ libraries/STM32H7xx_HAL/STM32H7xx_HAL_Driver/Src/stm32h7xx_hal_rtc.c:316:7
	ldr	r0, [sp, #4]
	ldr	r1, [r0]
	movs	r0, #255
	str	r0, [r1, #36]
	b	.LBB0_11
.Ltmp16:
.LBB0_11:
	.loc	5 319 7 is_stmt 1               @ libraries/STM32H7xx_HAL/STM32H7xx_HAL_Driver/Src/stm32h7xx_hal_rtc.c:319:7
	ldr	r1, [sp, #4]
	movs	r0, #1
	.loc	5 319 19 is_stmt 0              @ libraries/STM32H7xx_HAL/STM32H7xx_HAL_Driver/Src/stm32h7xx_hal_rtc.c:319:19
	strb.w	r0, [r1, #33]
	b	.LBB0_12
.Ltmp17:
.LBB0_12:
	.loc	5 321 3 is_stmt 1               @ libraries/STM32H7xx_HAL/STM32H7xx_HAL_Driver/Src/stm32h7xx_hal_rtc.c:321:3
	b	.LBB0_13
.Ltmp18:
.LBB0_13:
	.loc	5 324 10                        @ libraries/STM32H7xx_HAL/STM32H7xx_HAL_Driver/Src/stm32h7xx_hal_rtc.c:324:10
	ldrb.w	r0, [sp, #3]
	.loc	5 324 3 is_stmt 0               @ libraries/STM32H7xx_HAL/STM32H7xx_HAL_Driver/Src/stm32h7xx_hal_rtc.c:324:3
	add	sp, #8
	pop	{r7, pc}
.Ltmp19:
.Lfunc_end0:
	.size	HAL_RTC_Init, .Lfunc_end0-HAL_RTC_Init
	.cfi_endproc
	.cantunwind
	.fnend
                                        @ -- End function
	.section	.text.HAL_RTC_MspInit,"ax",%progbits
	.hidden	HAL_RTC_MspInit                 @ -- Begin function HAL_RTC_MspInit
	.weak	HAL_RTC_MspInit
	.p2align	3
	.type	HAL_RTC_MspInit,%function
	.code	16                              @ @HAL_RTC_MspInit
	.thumb_func
HAL_RTC_MspInit:
.Lfunc_begin1:
	.loc	5 670 0 is_stmt 1               @ libraries/STM32H7xx_HAL/STM32H7xx_HAL_Driver/Src/stm32h7xx_hal_rtc.c:670:0
	.fnstart
	.cfi_startproc
@ %bb.0:
	.pad	#4
	sub	sp, #4
	.cfi_def_cfa_offset 4
	str	r0, [sp]
.Ltmp20:
	.loc	5 677 1 prologue_end            @ libraries/STM32H7xx_HAL/STM32H7xx_HAL_Driver/Src/stm32h7xx_hal_rtc.c:677:1
	add	sp, #4
	bx	lr
.Ltmp21:
.Lfunc_end1:
	.size	HAL_RTC_MspInit, .Lfunc_end1-HAL_RTC_MspInit
	.cfi_endproc
	.cantunwind
	.fnend
                                        @ -- End function
	.section	.text.RTC_EnterInitMode,"ax",%progbits
	.hidden	RTC_EnterInitMode               @ -- Begin function RTC_EnterInitMode
	.globl	RTC_EnterInitMode
	.p2align	3
	.type	RTC_EnterInitMode,%function
	.code	16                              @ @RTC_EnterInitMode
	.thumb_func
RTC_EnterInitMode:
.Lfunc_begin2:
	.loc	5 1790 0                        @ libraries/STM32H7xx_HAL/STM32H7xx_HAL_Driver/Src/stm32h7xx_hal_rtc.c:1790:0
	.fnstart
	.cfi_startproc
@ %bb.0:
	.save	{r7, lr}
	push	{r7, lr}
	.cfi_def_cfa_offset 8
	.cfi_offset lr, -4
	.cfi_offset r7, -8
	.pad	#16
	sub	sp, #16
	.cfi_def_cfa_offset 24
	str	r0, [sp, #8]
.Ltmp22:
	.loc	5 1794 7 prologue_end           @ libraries/STM32H7xx_HAL/STM32H7xx_HAL_Driver/Src/stm32h7xx_hal_rtc.c:1794:7
	ldr	r0, [sp, #8]
	.loc	5 1794 13 is_stmt 0             @ libraries/STM32H7xx_HAL/STM32H7xx_HAL_Driver/Src/stm32h7xx_hal_rtc.c:1794:13
	ldr	r0, [r0]
	.loc	5 1794 23                       @ libraries/STM32H7xx_HAL/STM32H7xx_HAL_Driver/Src/stm32h7xx_hal_rtc.c:1794:23
	ldr	r0, [r0, #12]
.Ltmp23:
	.loc	5 1794 6                        @ libraries/STM32H7xx_HAL/STM32H7xx_HAL_Driver/Src/stm32h7xx_hal_rtc.c:1794:6
	lsls	r0, r0, #25
	cmp	r0, #0
	bmi	.LBB2_7
	b	.LBB2_1
.LBB2_1:
.Ltmp24:
	.loc	5 1797 5 is_stmt 1              @ libraries/STM32H7xx_HAL/STM32H7xx_HAL_Driver/Src/stm32h7xx_hal_rtc.c:1797:5
	ldr	r0, [sp, #8]
	.loc	5 1797 11 is_stmt 0             @ libraries/STM32H7xx_HAL/STM32H7xx_HAL_Driver/Src/stm32h7xx_hal_rtc.c:1797:11
	ldr	r1, [r0]
	mov.w	r0, #-1
	.loc	5 1797 25                       @ libraries/STM32H7xx_HAL/STM32H7xx_HAL_Driver/Src/stm32h7xx_hal_rtc.c:1797:25
	str	r0, [r1, #12]
	.loc	5 1799 17 is_stmt 1             @ libraries/STM32H7xx_HAL/STM32H7xx_HAL_Driver/Src/stm32h7xx_hal_rtc.c:1799:17
	bl	HAL_GetTick
	.loc	5 1799 15 is_stmt 0             @ libraries/STM32H7xx_HAL/STM32H7xx_HAL_Driver/Src/stm32h7xx_hal_rtc.c:1799:15
	str	r0, [sp, #4]
	.loc	5 1801 5 is_stmt 1              @ libraries/STM32H7xx_HAL/STM32H7xx_HAL_Driver/Src/stm32h7xx_hal_rtc.c:1801:5
	b	.LBB2_2
.LBB2_2:                                @ =>This Inner Loop Header: Depth=1
	.loc	5 1801 12 is_stmt 0             @ libraries/STM32H7xx_HAL/STM32H7xx_HAL_Driver/Src/stm32h7xx_hal_rtc.c:1801:12
	ldr	r0, [sp, #8]
	.loc	5 1801 18                       @ libraries/STM32H7xx_HAL/STM32H7xx_HAL_Driver/Src/stm32h7xx_hal_rtc.c:1801:18
	ldr	r0, [r0]
	.loc	5 1801 28                       @ libraries/STM32H7xx_HAL/STM32H7xx_HAL_Driver/Src/stm32h7xx_hal_rtc.c:1801:28
	ldr	r0, [r0, #12]
	.loc	5 1801 5                        @ libraries/STM32H7xx_HAL/STM32H7xx_HAL_Driver/Src/stm32h7xx_hal_rtc.c:1801:5
	lsls	r0, r0, #25
	cmp	r0, #0
	bmi	.LBB2_6
	b	.LBB2_3
.LBB2_3:                                @   in Loop: Header=BB2_2 Depth=1
.Ltmp25:
	.loc	5 1803 11 is_stmt 1             @ libraries/STM32H7xx_HAL/STM32H7xx_HAL_Driver/Src/stm32h7xx_hal_rtc.c:1803:11
	bl	HAL_GetTick
	.loc	5 1803 28 is_stmt 0             @ libraries/STM32H7xx_HAL/STM32H7xx_HAL_Driver/Src/stm32h7xx_hal_rtc.c:1803:28
	ldr	r1, [sp, #4]
	.loc	5 1803 26                       @ libraries/STM32H7xx_HAL/STM32H7xx_HAL_Driver/Src/stm32h7xx_hal_rtc.c:1803:26
	subs	r0, r0, r1
.Ltmp26:
	.loc	5 1803 10                       @ libraries/STM32H7xx_HAL/STM32H7xx_HAL_Driver/Src/stm32h7xx_hal_rtc.c:1803:10
	cmp.w	r0, #1000
	bls	.LBB2_5
	b	.LBB2_4
.LBB2_4:
	.loc	5 0 10                          @ libraries/STM32H7xx_HAL/STM32H7xx_HAL_Driver/Src/stm32h7xx_hal_rtc.c:0:10
	movs	r0, #3
.Ltmp27:
	.loc	5 1805 9 is_stmt 1              @ libraries/STM32H7xx_HAL/STM32H7xx_HAL_Driver/Src/stm32h7xx_hal_rtc.c:1805:9
	strb.w	r0, [sp, #15]
	b	.LBB2_8
.Ltmp28:
.LBB2_5:                                @   in Loop: Header=BB2_2 Depth=1
	.loc	5 1801 5                        @ libraries/STM32H7xx_HAL/STM32H7xx_HAL_Driver/Src/stm32h7xx_hal_rtc.c:1801:5
	b	.LBB2_2
.LBB2_6:
	.loc	5 1808 3                        @ libraries/STM32H7xx_HAL/STM32H7xx_HAL_Driver/Src/stm32h7xx_hal_rtc.c:1808:3
	b	.LBB2_7
.Ltmp29:
.LBB2_7:
	.loc	5 0 3 is_stmt 0                 @ libraries/STM32H7xx_HAL/STM32H7xx_HAL_Driver/Src/stm32h7xx_hal_rtc.c:0:3
	movs	r0, #0
	.loc	5 1810 3 is_stmt 1              @ libraries/STM32H7xx_HAL/STM32H7xx_HAL_Driver/Src/stm32h7xx_hal_rtc.c:1810:3
	strb.w	r0, [sp, #15]
	b	.LBB2_8
.LBB2_8:
	.loc	5 1811 1                        @ libraries/STM32H7xx_HAL/STM32H7xx_HAL_Driver/Src/stm32h7xx_hal_rtc.c:1811:1
	ldrb.w	r0, [sp, #15]
	add	sp, #16
	pop	{r7, pc}
.Ltmp30:
.Lfunc_end2:
	.size	RTC_EnterInitMode, .Lfunc_end2-RTC_EnterInitMode
	.cfi_endproc
	.cantunwind
	.fnend
                                        @ -- End function
	.section	.text.HAL_RTC_DeInit,"ax",%progbits
	.hidden	HAL_RTC_DeInit                  @ -- Begin function HAL_RTC_DeInit
	.globl	HAL_RTC_DeInit
	.p2align	3
	.type	HAL_RTC_DeInit,%function
	.code	16                              @ @HAL_RTC_DeInit
	.thumb_func
HAL_RTC_DeInit:
.Lfunc_begin3:
	.loc	5 334 0                         @ libraries/STM32H7xx_HAL/STM32H7xx_HAL_Driver/Src/stm32h7xx_hal_rtc.c:334:0
	.fnstart
	.cfi_startproc
@ %bb.0:
	.save	{r7, lr}
	push	{r7, lr}
	.cfi_def_cfa_offset 8
	.cfi_offset lr, -4
	.cfi_offset r7, -8
	.pad	#16
	sub	sp, #16
	.cfi_def_cfa_offset 24
	str	r0, [sp, #12]
	movs	r0, #1
.Ltmp31:
	.loc	5 335 21 prologue_end           @ libraries/STM32H7xx_HAL/STM32H7xx_HAL_Driver/Src/stm32h7xx_hal_rtc.c:335:21
	strb.w	r0, [sp, #11]
.Ltmp32:
	.loc	5 339 6                         @ libraries/STM32H7xx_HAL/STM32H7xx_HAL_Driver/Src/stm32h7xx_hal_rtc.c:339:6
	ldr	r0, [sp, #12]
.Ltmp33:
	.loc	5 339 6 is_stmt 0               @ libraries/STM32H7xx_HAL/STM32H7xx_HAL_Driver/Src/stm32h7xx_hal_rtc.c:339:6
	cmp	r0, #0
	beq.w	.LBB3_30
	b	.LBB3_1
.LBB3_1:
	.loc	5 0 6                           @ libraries/STM32H7xx_HAL/STM32H7xx_HAL_Driver/Src/stm32h7xx_hal_rtc.c:0:6
	movs	r0, #0
.Ltmp34:
	.loc	5 341 12 is_stmt 1              @ libraries/STM32H7xx_HAL/STM32H7xx_HAL_Driver/Src/stm32h7xx_hal_rtc.c:341:12
	strb.w	r0, [sp, #11]
	.loc	5 347 5                         @ libraries/STM32H7xx_HAL/STM32H7xx_HAL_Driver/Src/stm32h7xx_hal_rtc.c:347:5
	ldr	r1, [sp, #12]
	movs	r0, #2
	.loc	5 347 17 is_stmt 0              @ libraries/STM32H7xx_HAL/STM32H7xx_HAL_Driver/Src/stm32h7xx_hal_rtc.c:347:17
	strb.w	r0, [r1, #33]
	.loc	5 350 5 is_stmt 1               @ libraries/STM32H7xx_HAL/STM32H7xx_HAL_Driver/Src/stm32h7xx_hal_rtc.c:350:5
	b	.LBB3_2
.LBB3_2:
.Ltmp35:
	.loc	5 350 5 is_stmt 0               @ libraries/STM32H7xx_HAL/STM32H7xx_HAL_Driver/Src/stm32h7xx_hal_rtc.c:350:5
	ldr	r0, [sp, #12]
	ldr	r1, [r0]
	movs	r0, #202
	str	r0, [r1, #36]
	ldr	r0, [sp, #12]
	ldr	r1, [r0]
	movs	r0, #83
	str	r0, [r1, #36]
	b	.LBB3_3
.Ltmp36:
.LBB3_3:
	.loc	5 353 26 is_stmt 1              @ libraries/STM32H7xx_HAL/STM32H7xx_HAL_Driver/Src/stm32h7xx_hal_rtc.c:353:26
	ldr	r0, [sp, #12]
	.loc	5 353 8 is_stmt 0               @ libraries/STM32H7xx_HAL/STM32H7xx_HAL_Driver/Src/stm32h7xx_hal_rtc.c:353:8
	bl	RTC_EnterInitMode
.Ltmp37:
	.loc	5 353 8                         @ libraries/STM32H7xx_HAL/STM32H7xx_HAL_Driver/Src/stm32h7xx_hal_rtc.c:353:8
	cbz	r0, .LBB3_7
	b	.LBB3_4
.LBB3_4:
.Ltmp38:
	.loc	5 356 7 is_stmt 1               @ libraries/STM32H7xx_HAL/STM32H7xx_HAL_Driver/Src/stm32h7xx_hal_rtc.c:356:7
	b	.LBB3_5
.LBB3_5:
.Ltmp39:
	.loc	5 356 7 is_stmt 0               @ libraries/STM32H7xx_HAL/STM32H7xx_HAL_Driver/Src/stm32h7xx_hal_rtc.c:356:7
	ldr	r0, [sp, #12]
	ldr	r1, [r0]
	movs	r0, #255
	str	r0, [r1, #36]
	b	.LBB3_6
.Ltmp40:
.LBB3_6:
	.loc	5 359 7 is_stmt 1               @ libraries/STM32H7xx_HAL/STM32H7xx_HAL_Driver/Src/stm32h7xx_hal_rtc.c:359:7
	ldr	r1, [sp, #12]
	movs	r0, #4
	.loc	5 359 19 is_stmt 0              @ libraries/STM32H7xx_HAL/STM32H7xx_HAL_Driver/Src/stm32h7xx_hal_rtc.c:359:19
	strb.w	r0, [r1, #33]
	movs	r0, #1
	.loc	5 361 14 is_stmt 1              @ libraries/STM32H7xx_HAL/STM32H7xx_HAL_Driver/Src/stm32h7xx_hal_rtc.c:361:14
	strb.w	r0, [sp, #11]
	.loc	5 362 5                         @ libraries/STM32H7xx_HAL/STM32H7xx_HAL_Driver/Src/stm32h7xx_hal_rtc.c:362:5
	b	.LBB3_15
.Ltmp41:
.LBB3_7:
	.loc	5 366 7                         @ libraries/STM32H7xx_HAL/STM32H7xx_HAL_Driver/Src/stm32h7xx_hal_rtc.c:366:7
	ldr	r0, [sp, #12]
	.loc	5 366 13 is_stmt 0              @ libraries/STM32H7xx_HAL/STM32H7xx_HAL_Driver/Src/stm32h7xx_hal_rtc.c:366:13
	ldr	r1, [r0]
	movs	r0, #0
	.loc	5 366 26                        @ libraries/STM32H7xx_HAL/STM32H7xx_HAL_Driver/Src/stm32h7xx_hal_rtc.c:366:26
	str	r0, [r1]
	.loc	5 367 7 is_stmt 1               @ libraries/STM32H7xx_HAL/STM32H7xx_HAL_Driver/Src/stm32h7xx_hal_rtc.c:367:7
	ldr	r0, [sp, #12]
	.loc	5 367 13 is_stmt 0              @ libraries/STM32H7xx_HAL/STM32H7xx_HAL_Driver/Src/stm32h7xx_hal_rtc.c:367:13
	ldr	r1, [r0]
	movw	r0, #8449
	.loc	5 367 26                        @ libraries/STM32H7xx_HAL/STM32H7xx_HAL_Driver/Src/stm32h7xx_hal_rtc.c:367:26
	str	r0, [r1, #4]
	.loc	5 369 7 is_stmt 1               @ libraries/STM32H7xx_HAL/STM32H7xx_HAL_Driver/Src/stm32h7xx_hal_rtc.c:369:7
	ldr	r0, [sp, #12]
	.loc	5 369 13 is_stmt 0              @ libraries/STM32H7xx_HAL/STM32H7xx_HAL_Driver/Src/stm32h7xx_hal_rtc.c:369:13
	ldr	r1, [r0]
	.loc	5 369 26                        @ libraries/STM32H7xx_HAL/STM32H7xx_HAL_Driver/Src/stm32h7xx_hal_rtc.c:369:26
	ldr	r0, [r1, #8]
	and	r0, r0, #7
	str	r0, [r1, #8]
	.loc	5 371 19 is_stmt 1              @ libraries/STM32H7xx_HAL/STM32H7xx_HAL_Driver/Src/stm32h7xx_hal_rtc.c:371:19
	bl	HAL_GetTick
	.loc	5 371 17 is_stmt 0              @ libraries/STM32H7xx_HAL/STM32H7xx_HAL_Driver/Src/stm32h7xx_hal_rtc.c:371:17
	str	r0, [sp, #4]
	.loc	5 374 7 is_stmt 1               @ libraries/STM32H7xx_HAL/STM32H7xx_HAL_Driver/Src/stm32h7xx_hal_rtc.c:374:7
	b	.LBB3_8
.LBB3_8:                                @ =>This Inner Loop Header: Depth=1
	.loc	5 374 15 is_stmt 0              @ libraries/STM32H7xx_HAL/STM32H7xx_HAL_Driver/Src/stm32h7xx_hal_rtc.c:374:15
	ldr	r0, [sp, #12]
	.loc	5 374 21                        @ libraries/STM32H7xx_HAL/STM32H7xx_HAL_Driver/Src/stm32h7xx_hal_rtc.c:374:21
	ldr	r0, [r0]
	.loc	5 374 31                        @ libraries/STM32H7xx_HAL/STM32H7xx_HAL_Driver/Src/stm32h7xx_hal_rtc.c:374:31
	ldr	r0, [r0, #12]
	.loc	5 374 7                         @ libraries/STM32H7xx_HAL/STM32H7xx_HAL_Driver/Src/stm32h7xx_hal_rtc.c:374:7
	lsls	r0, r0, #29
	cmp	r0, #0
	bmi	.LBB3_14
	b	.LBB3_9
.LBB3_9:                                @   in Loop: Header=BB3_8 Depth=1
.Ltmp42:
	.loc	5 376 13 is_stmt 1              @ libraries/STM32H7xx_HAL/STM32H7xx_HAL_Driver/Src/stm32h7xx_hal_rtc.c:376:13
	bl	HAL_GetTick
	.loc	5 376 29 is_stmt 0              @ libraries/STM32H7xx_HAL/STM32H7xx_HAL_Driver/Src/stm32h7xx_hal_rtc.c:376:29
	ldr	r1, [sp, #4]
	.loc	5 376 27                        @ libraries/STM32H7xx_HAL/STM32H7xx_HAL_Driver/Src/stm32h7xx_hal_rtc.c:376:27
	subs	r0, r0, r1
.Ltmp43:
	.loc	5 376 12                        @ libraries/STM32H7xx_HAL/STM32H7xx_HAL_Driver/Src/stm32h7xx_hal_rtc.c:376:12
	cmp.w	r0, #1000
	bls	.LBB3_13
	b	.LBB3_10
.LBB3_10:                               @   in Loop: Header=BB3_8 Depth=1
.Ltmp44:
	.loc	5 379 11 is_stmt 1              @ libraries/STM32H7xx_HAL/STM32H7xx_HAL_Driver/Src/stm32h7xx_hal_rtc.c:379:11
	b	.LBB3_11
.LBB3_11:                               @   in Loop: Header=BB3_8 Depth=1
.Ltmp45:
	.loc	5 379 11 is_stmt 0              @ libraries/STM32H7xx_HAL/STM32H7xx_HAL_Driver/Src/stm32h7xx_hal_rtc.c:379:11
	ldr	r0, [sp, #12]
	ldr	r1, [r0]
	movs	r0, #255
	str	r0, [r1, #36]
	b	.LBB3_12
.Ltmp46:
.LBB3_12:                               @   in Loop: Header=BB3_8 Depth=1
	.loc	5 382 11 is_stmt 1              @ libraries/STM32H7xx_HAL/STM32H7xx_HAL_Driver/Src/stm32h7xx_hal_rtc.c:382:11
	ldr	r1, [sp, #12]
	movs	r0, #3
	.loc	5 382 23 is_stmt 0              @ libraries/STM32H7xx_HAL/STM32H7xx_HAL_Driver/Src/stm32h7xx_hal_rtc.c:382:23
	strb.w	r0, [r1, #33]
	.loc	5 384 18 is_stmt 1              @ libraries/STM32H7xx_HAL/STM32H7xx_HAL_Driver/Src/stm32h7xx_hal_rtc.c:384:18
	strb.w	r0, [sp, #11]
	.loc	5 385 9                         @ libraries/STM32H7xx_HAL/STM32H7xx_HAL_Driver/Src/stm32h7xx_hal_rtc.c:385:9
	b	.LBB3_13
.Ltmp47:
.LBB3_13:                               @   in Loop: Header=BB3_8 Depth=1
	.loc	5 374 7                         @ libraries/STM32H7xx_HAL/STM32H7xx_HAL_Driver/Src/stm32h7xx_hal_rtc.c:374:7
	b	.LBB3_8
.Ltmp48:
.LBB3_14:
	.loc	5 0 7 is_stmt 0                 @ libraries/STM32H7xx_HAL/STM32H7xx_HAL_Driver/Src/stm32h7xx_hal_rtc.c:0:7
	b	.LBB3_15
.LBB3_15:
.Ltmp49:
	.loc	5 389 8 is_stmt 1               @ libraries/STM32H7xx_HAL/STM32H7xx_HAL_Driver/Src/stm32h7xx_hal_rtc.c:389:8
	ldrb.w	r0, [sp, #11]
.Ltmp50:
	.loc	5 389 8 is_stmt 0               @ libraries/STM32H7xx_HAL/STM32H7xx_HAL_Driver/Src/stm32h7xx_hal_rtc.c:389:8
	cmp	r0, #0
	bne	.LBB3_23
	b	.LBB3_16
.LBB3_16:
.Ltmp51:
	.loc	5 392 7 is_stmt 1               @ libraries/STM32H7xx_HAL/STM32H7xx_HAL_Driver/Src/stm32h7xx_hal_rtc.c:392:7
	ldr	r0, [sp, #12]
	.loc	5 392 13 is_stmt 0              @ libraries/STM32H7xx_HAL/STM32H7xx_HAL_Driver/Src/stm32h7xx_hal_rtc.c:392:13
	ldr	r1, [r0]
	.loc	5 392 26                        @ libraries/STM32H7xx_HAL/STM32H7xx_HAL_Driver/Src/stm32h7xx_hal_rtc.c:392:26
	ldr	r0, [r1, #8]
	movs	r0, #0
	str	r0, [sp]                        @ 4-byte Spill
	str	r0, [r1, #8]
	.loc	5 394 7 is_stmt 1               @ libraries/STM32H7xx_HAL/STM32H7xx_HAL_Driver/Src/stm32h7xx_hal_rtc.c:394:7
	ldr	r1, [sp, #12]
	.loc	5 394 13 is_stmt 0              @ libraries/STM32H7xx_HAL/STM32H7xx_HAL_Driver/Src/stm32h7xx_hal_rtc.c:394:13
	ldr	r2, [r1]
	movw	r1, #65535
	.loc	5 394 28                        @ libraries/STM32H7xx_HAL/STM32H7xx_HAL_Driver/Src/stm32h7xx_hal_rtc.c:394:28
	str	r1, [r2, #20]
	.loc	5 395 7 is_stmt 1               @ libraries/STM32H7xx_HAL/STM32H7xx_HAL_Driver/Src/stm32h7xx_hal_rtc.c:395:7
	ldr	r1, [sp, #12]
	.loc	5 395 13 is_stmt 0              @ libraries/STM32H7xx_HAL/STM32H7xx_HAL_Driver/Src/stm32h7xx_hal_rtc.c:395:13
	ldr	r2, [r1]
	movs	r1, #255
	movt	r1, #127
	.loc	5 395 28                        @ libraries/STM32H7xx_HAL/STM32H7xx_HAL_Driver/Src/stm32h7xx_hal_rtc.c:395:28
	str	r1, [r2, #16]
	.loc	5 396 7 is_stmt 1               @ libraries/STM32H7xx_HAL/STM32H7xx_HAL_Driver/Src/stm32h7xx_hal_rtc.c:396:7
	ldr	r1, [sp, #12]
	.loc	5 396 13 is_stmt 0              @ libraries/STM32H7xx_HAL/STM32H7xx_HAL_Driver/Src/stm32h7xx_hal_rtc.c:396:13
	ldr	r1, [r1]
	.loc	5 396 30                        @ libraries/STM32H7xx_HAL/STM32H7xx_HAL_Driver/Src/stm32h7xx_hal_rtc.c:396:30
	str	r0, [r1, #28]
	.loc	5 397 7 is_stmt 1               @ libraries/STM32H7xx_HAL/STM32H7xx_HAL_Driver/Src/stm32h7xx_hal_rtc.c:397:7
	ldr	r1, [sp, #12]
	.loc	5 397 13 is_stmt 0              @ libraries/STM32H7xx_HAL/STM32H7xx_HAL_Driver/Src/stm32h7xx_hal_rtc.c:397:13
	ldr	r1, [r1]
	.loc	5 397 30                        @ libraries/STM32H7xx_HAL/STM32H7xx_HAL_Driver/Src/stm32h7xx_hal_rtc.c:397:30
	str	r0, [r1, #32]
	.loc	5 398 7 is_stmt 1               @ libraries/STM32H7xx_HAL/STM32H7xx_HAL_Driver/Src/stm32h7xx_hal_rtc.c:398:7
	ldr	r1, [sp, #12]
	.loc	5 398 13 is_stmt 0              @ libraries/STM32H7xx_HAL/STM32H7xx_HAL_Driver/Src/stm32h7xx_hal_rtc.c:398:13
	ldr	r1, [r1]
	.loc	5 398 30                        @ libraries/STM32H7xx_HAL/STM32H7xx_HAL_Driver/Src/stm32h7xx_hal_rtc.c:398:30
	str	r0, [r1, #44]
	.loc	5 399 7 is_stmt 1               @ libraries/STM32H7xx_HAL/STM32H7xx_HAL_Driver/Src/stm32h7xx_hal_rtc.c:399:7
	ldr	r1, [sp, #12]
	.loc	5 399 13 is_stmt 0              @ libraries/STM32H7xx_HAL/STM32H7xx_HAL_Driver/Src/stm32h7xx_hal_rtc.c:399:13
	ldr	r1, [r1]
	.loc	5 399 28                        @ libraries/STM32H7xx_HAL/STM32H7xx_HAL_Driver/Src/stm32h7xx_hal_rtc.c:399:28
	str	r0, [r1, #60]
	.loc	5 400 7 is_stmt 1               @ libraries/STM32H7xx_HAL/STM32H7xx_HAL_Driver/Src/stm32h7xx_hal_rtc.c:400:7
	ldr	r1, [sp, #12]
	.loc	5 400 13 is_stmt 0              @ libraries/STM32H7xx_HAL/STM32H7xx_HAL_Driver/Src/stm32h7xx_hal_rtc.c:400:13
	ldr	r1, [r1]
	.loc	5 400 32                        @ libraries/STM32H7xx_HAL/STM32H7xx_HAL_Driver/Src/stm32h7xx_hal_rtc.c:400:32
	str	r0, [r1, #68]
	.loc	5 401 7 is_stmt 1               @ libraries/STM32H7xx_HAL/STM32H7xx_HAL_Driver/Src/stm32h7xx_hal_rtc.c:401:7
	ldr	r1, [sp, #12]
	.loc	5 401 13 is_stmt 0              @ libraries/STM32H7xx_HAL/STM32H7xx_HAL_Driver/Src/stm32h7xx_hal_rtc.c:401:13
	ldr	r1, [r1]
	.loc	5 401 32                        @ libraries/STM32H7xx_HAL/STM32H7xx_HAL_Driver/Src/stm32h7xx_hal_rtc.c:401:32
	str	r0, [r1, #72]
	.loc	5 404 7 is_stmt 1               @ libraries/STM32H7xx_HAL/STM32H7xx_HAL_Driver/Src/stm32h7xx_hal_rtc.c:404:7
	ldr	r1, [sp, #12]
	.loc	5 404 13 is_stmt 0              @ libraries/STM32H7xx_HAL/STM32H7xx_HAL_Driver/Src/stm32h7xx_hal_rtc.c:404:13
	ldr	r1, [r1]
	.loc	5 404 30                        @ libraries/STM32H7xx_HAL/STM32H7xx_HAL_Driver/Src/stm32h7xx_hal_rtc.c:404:30
	str	r0, [r1, #64]
	.loc	5 407 7 is_stmt 1               @ libraries/STM32H7xx_HAL/STM32H7xx_HAL_Driver/Src/stm32h7xx_hal_rtc.c:407:7
	ldr	r1, [sp, #12]
	.loc	5 407 13 is_stmt 0              @ libraries/STM32H7xx_HAL/STM32H7xx_HAL_Driver/Src/stm32h7xx_hal_rtc.c:407:13
	ldr	r1, [r1]
	.loc	5 407 26                        @ libraries/STM32H7xx_HAL/STM32H7xx_HAL_Driver/Src/stm32h7xx_hal_rtc.c:407:26
	str	r0, [r1, #76]
	.loc	5 410 7 is_stmt 1               @ libraries/STM32H7xx_HAL/STM32H7xx_HAL_Driver/Src/stm32h7xx_hal_rtc.c:410:7
	ldr	r1, [sp, #12]
	.loc	5 410 13 is_stmt 0              @ libraries/STM32H7xx_HAL/STM32H7xx_HAL_Driver/Src/stm32h7xx_hal_rtc.c:410:13
	ldr	r1, [r1]
	.loc	5 410 27                        @ libraries/STM32H7xx_HAL/STM32H7xx_HAL_Driver/Src/stm32h7xx_hal_rtc.c:410:27
	str	r0, [r1, #12]
.Ltmp52:
	.loc	5 413 11 is_stmt 1              @ libraries/STM32H7xx_HAL/STM32H7xx_HAL_Driver/Src/stm32h7xx_hal_rtc.c:413:11
	ldr	r0, [sp, #12]
	.loc	5 413 17 is_stmt 0              @ libraries/STM32H7xx_HAL/STM32H7xx_HAL_Driver/Src/stm32h7xx_hal_rtc.c:413:17
	ldr	r0, [r0]
	.loc	5 413 27                        @ libraries/STM32H7xx_HAL/STM32H7xx_HAL_Driver/Src/stm32h7xx_hal_rtc.c:413:27
	ldr	r0, [r0, #8]
.Ltmp53:
	.loc	5 413 10                        @ libraries/STM32H7xx_HAL/STM32H7xx_HAL_Driver/Src/stm32h7xx_hal_rtc.c:413:10
	lsls	r0, r0, #26
	cmp	r0, #0
	bmi	.LBB3_22
	b	.LBB3_17
.LBB3_17:
.Ltmp54:
	.loc	5 415 35 is_stmt 1              @ libraries/STM32H7xx_HAL/STM32H7xx_HAL_Driver/Src/stm32h7xx_hal_rtc.c:415:35
	ldr	r0, [sp, #12]
	.loc	5 415 12 is_stmt 0              @ libraries/STM32H7xx_HAL/STM32H7xx_HAL_Driver/Src/stm32h7xx_hal_rtc.c:415:12
	bl	HAL_RTC_WaitForSynchro
.Ltmp55:
	.loc	5 415 12                        @ libraries/STM32H7xx_HAL/STM32H7xx_HAL_Driver/Src/stm32h7xx_hal_rtc.c:415:12
	cbz	r0, .LBB3_21
	b	.LBB3_18
.LBB3_18:
.Ltmp56:
	.loc	5 418 11 is_stmt 1              @ libraries/STM32H7xx_HAL/STM32H7xx_HAL_Driver/Src/stm32h7xx_hal_rtc.c:418:11
	b	.LBB3_19
.LBB3_19:
.Ltmp57:
	.loc	5 418 11 is_stmt 0              @ libraries/STM32H7xx_HAL/STM32H7xx_HAL_Driver/Src/stm32h7xx_hal_rtc.c:418:11
	ldr	r0, [sp, #12]
	ldr	r1, [r0]
	movs	r0, #255
	str	r0, [r1, #36]
	b	.LBB3_20
.Ltmp58:
.LBB3_20:
	.loc	5 420 11 is_stmt 1              @ libraries/STM32H7xx_HAL/STM32H7xx_HAL_Driver/Src/stm32h7xx_hal_rtc.c:420:11
	ldr	r1, [sp, #12]
	movs	r0, #4
	.loc	5 420 23 is_stmt 0              @ libraries/STM32H7xx_HAL/STM32H7xx_HAL_Driver/Src/stm32h7xx_hal_rtc.c:420:23
	strb.w	r0, [r1, #33]
	movs	r0, #1
	.loc	5 422 18 is_stmt 1              @ libraries/STM32H7xx_HAL/STM32H7xx_HAL_Driver/Src/stm32h7xx_hal_rtc.c:422:18
	strb.w	r0, [sp, #11]
	.loc	5 423 9                         @ libraries/STM32H7xx_HAL/STM32H7xx_HAL_Driver/Src/stm32h7xx_hal_rtc.c:423:9
	b	.LBB3_21
.Ltmp59:
.LBB3_21:
	.loc	5 424 7                         @ libraries/STM32H7xx_HAL/STM32H7xx_HAL_Driver/Src/stm32h7xx_hal_rtc.c:424:7
	b	.LBB3_22
.Ltmp60:
.LBB3_22:
	.loc	5 425 5                         @ libraries/STM32H7xx_HAL/STM32H7xx_HAL_Driver/Src/stm32h7xx_hal_rtc.c:425:5
	b	.LBB3_23
.Ltmp61:
.LBB3_23:
	.loc	5 427 8                         @ libraries/STM32H7xx_HAL/STM32H7xx_HAL_Driver/Src/stm32h7xx_hal_rtc.c:427:8
	ldrb.w	r0, [sp, #11]
.Ltmp62:
	.loc	5 427 8 is_stmt 0               @ libraries/STM32H7xx_HAL/STM32H7xx_HAL_Driver/Src/stm32h7xx_hal_rtc.c:427:8
	cbnz	r0, .LBB3_29
	b	.LBB3_24
.LBB3_24:
.Ltmp63:
	.loc	5 430 7 is_stmt 1               @ libraries/STM32H7xx_HAL/STM32H7xx_HAL_Driver/Src/stm32h7xx_hal_rtc.c:430:7
	b	.LBB3_25
.LBB3_25:
.Ltmp64:
	.loc	5 430 7 is_stmt 0               @ libraries/STM32H7xx_HAL/STM32H7xx_HAL_Driver/Src/stm32h7xx_hal_rtc.c:430:7
	ldr	r0, [sp, #12]
	ldr	r1, [r0]
	movs	r0, #255
	str	r0, [r1, #36]
	b	.LBB3_26
.Ltmp65:
.LBB3_26:
	.loc	5 443 25 is_stmt 1              @ libraries/STM32H7xx_HAL/STM32H7xx_HAL_Driver/Src/stm32h7xx_hal_rtc.c:443:25
	ldr	r0, [sp, #12]
	.loc	5 443 7 is_stmt 0               @ libraries/STM32H7xx_HAL/STM32H7xx_HAL_Driver/Src/stm32h7xx_hal_rtc.c:443:7
	bl	HAL_RTC_MspDeInit
	.loc	5 446 7 is_stmt 1               @ libraries/STM32H7xx_HAL/STM32H7xx_HAL_Driver/Src/stm32h7xx_hal_rtc.c:446:7
	ldr	r1, [sp, #12]
	movs	r0, #0
	.loc	5 446 19 is_stmt 0              @ libraries/STM32H7xx_HAL/STM32H7xx_HAL_Driver/Src/stm32h7xx_hal_rtc.c:446:19
	strb.w	r0, [r1, #33]
	.loc	5 449 7 is_stmt 1               @ libraries/STM32H7xx_HAL/STM32H7xx_HAL_Driver/Src/stm32h7xx_hal_rtc.c:449:7
	b	.LBB3_27
.LBB3_27:
.Ltmp66:
	.loc	5 449 7 is_stmt 0               @ libraries/STM32H7xx_HAL/STM32H7xx_HAL_Driver/Src/stm32h7xx_hal_rtc.c:449:7
	ldr	r1, [sp, #12]
	movs	r0, #0
	strb.w	r0, [r1, #32]
	b	.LBB3_28
.Ltmp67:
.LBB3_28:
	.loc	5 450 5 is_stmt 1               @ libraries/STM32H7xx_HAL/STM32H7xx_HAL_Driver/Src/stm32h7xx_hal_rtc.c:450:5
	b	.LBB3_29
.Ltmp68:
.LBB3_29:
	.loc	5 451 3                         @ libraries/STM32H7xx_HAL/STM32H7xx_HAL_Driver/Src/stm32h7xx_hal_rtc.c:451:3
	b	.LBB3_30
.Ltmp69:
.LBB3_30:
	.loc	5 454 10                        @ libraries/STM32H7xx_HAL/STM32H7xx_HAL_Driver/Src/stm32h7xx_hal_rtc.c:454:10
	ldrb.w	r0, [sp, #11]
	.loc	5 454 3 is_stmt 0               @ libraries/STM32H7xx_HAL/STM32H7xx_HAL_Driver/Src/stm32h7xx_hal_rtc.c:454:3
	add	sp, #16
	pop	{r7, pc}
.Ltmp70:
.Lfunc_end3:
	.size	HAL_RTC_DeInit, .Lfunc_end3-HAL_RTC_DeInit
	.cfi_endproc
	.cantunwind
	.fnend
                                        @ -- End function
	.section	.text.HAL_RTC_WaitForSynchro,"ax",%progbits
	.hidden	HAL_RTC_WaitForSynchro          @ -- Begin function HAL_RTC_WaitForSynchro
	.globl	HAL_RTC_WaitForSynchro
	.p2align	3
	.type	HAL_RTC_WaitForSynchro,%function
	.code	16                              @ @HAL_RTC_WaitForSynchro
	.thumb_func
HAL_RTC_WaitForSynchro:
.Lfunc_begin4:
	.loc	5 1722 0 is_stmt 1              @ libraries/STM32H7xx_HAL/STM32H7xx_HAL_Driver/Src/stm32h7xx_hal_rtc.c:1722:0
	.fnstart
	.cfi_startproc
@ %bb.0:
	.save	{r7, lr}
	push	{r7, lr}
	.cfi_def_cfa_offset 8
	.cfi_offset lr, -4
	.cfi_offset r7, -8
	.pad	#16
	sub	sp, #16
	.cfi_def_cfa_offset 24
	str	r0, [sp, #8]
.Ltmp71:
	.loc	5 1726 3 prologue_end           @ libraries/STM32H7xx_HAL/STM32H7xx_HAL_Driver/Src/stm32h7xx_hal_rtc.c:1726:3
	ldr	r0, [sp, #8]
	.loc	5 1726 9 is_stmt 0              @ libraries/STM32H7xx_HAL/STM32H7xx_HAL_Driver/Src/stm32h7xx_hal_rtc.c:1726:9
	ldr	r1, [r0]
	.loc	5 1726 23                       @ libraries/STM32H7xx_HAL/STM32H7xx_HAL_Driver/Src/stm32h7xx_hal_rtc.c:1726:23
	ldr	r0, [r1, #12]
	bic	r0, r0, #160
	str	r0, [r1, #12]
	.loc	5 1728 15 is_stmt 1             @ libraries/STM32H7xx_HAL/STM32H7xx_HAL_Driver/Src/stm32h7xx_hal_rtc.c:1728:15
	bl	HAL_GetTick
	.loc	5 1728 13 is_stmt 0             @ libraries/STM32H7xx_HAL/STM32H7xx_HAL_Driver/Src/stm32h7xx_hal_rtc.c:1728:13
	str	r0, [sp, #4]
	.loc	5 1731 3 is_stmt 1              @ libraries/STM32H7xx_HAL/STM32H7xx_HAL_Driver/Src/stm32h7xx_hal_rtc.c:1731:3
	b	.LBB4_1
.LBB4_1:                                @ =>This Inner Loop Header: Depth=1
	.loc	5 1731 10 is_stmt 0             @ libraries/STM32H7xx_HAL/STM32H7xx_HAL_Driver/Src/stm32h7xx_hal_rtc.c:1731:10
	ldr	r0, [sp, #8]
	.loc	5 1731 16                       @ libraries/STM32H7xx_HAL/STM32H7xx_HAL_Driver/Src/stm32h7xx_hal_rtc.c:1731:16
	ldr	r0, [r0]
	.loc	5 1731 26                       @ libraries/STM32H7xx_HAL/STM32H7xx_HAL_Driver/Src/stm32h7xx_hal_rtc.c:1731:26
	ldr	r0, [r0, #12]
	.loc	5 1731 3                        @ libraries/STM32H7xx_HAL/STM32H7xx_HAL_Driver/Src/stm32h7xx_hal_rtc.c:1731:3
	lsls	r0, r0, #26
	cmp	r0, #0
	bmi	.LBB4_5
	b	.LBB4_2
.LBB4_2:                                @   in Loop: Header=BB4_1 Depth=1
.Ltmp72:
	.loc	5 1733 9 is_stmt 1              @ libraries/STM32H7xx_HAL/STM32H7xx_HAL_Driver/Src/stm32h7xx_hal_rtc.c:1733:9
	bl	HAL_GetTick
	.loc	5 1733 25 is_stmt 0             @ libraries/STM32H7xx_HAL/STM32H7xx_HAL_Driver/Src/stm32h7xx_hal_rtc.c:1733:25
	ldr	r1, [sp, #4]
	.loc	5 1733 23                       @ libraries/STM32H7xx_HAL/STM32H7xx_HAL_Driver/Src/stm32h7xx_hal_rtc.c:1733:23
	subs	r0, r0, r1
.Ltmp73:
	.loc	5 1733 8                        @ libraries/STM32H7xx_HAL/STM32H7xx_HAL_Driver/Src/stm32h7xx_hal_rtc.c:1733:8
	cmp.w	r0, #1000
	bls	.LBB4_4
	b	.LBB4_3
.LBB4_3:
	.loc	5 0 8                           @ libraries/STM32H7xx_HAL/STM32H7xx_HAL_Driver/Src/stm32h7xx_hal_rtc.c:0:8
	movs	r0, #3
.Ltmp74:
	.loc	5 1735 7 is_stmt 1              @ libraries/STM32H7xx_HAL/STM32H7xx_HAL_Driver/Src/stm32h7xx_hal_rtc.c:1735:7
	strb.w	r0, [sp, #15]
	b	.LBB4_6
.Ltmp75:
.LBB4_4:                                @   in Loop: Header=BB4_1 Depth=1
	.loc	5 1731 3                        @ libraries/STM32H7xx_HAL/STM32H7xx_HAL_Driver/Src/stm32h7xx_hal_rtc.c:1731:3
	b	.LBB4_1
.LBB4_5:
	.loc	5 0 3 is_stmt 0                 @ libraries/STM32H7xx_HAL/STM32H7xx_HAL_Driver/Src/stm32h7xx_hal_rtc.c:0:3
	movs	r0, #0
	.loc	5 1739 3 is_stmt 1              @ libraries/STM32H7xx_HAL/STM32H7xx_HAL_Driver/Src/stm32h7xx_hal_rtc.c:1739:3
	strb.w	r0, [sp, #15]
	b	.LBB4_6
.LBB4_6:
	.loc	5 1740 1                        @ libraries/STM32H7xx_HAL/STM32H7xx_HAL_Driver/Src/stm32h7xx_hal_rtc.c:1740:1
	ldrb.w	r0, [sp, #15]
	add	sp, #16
	pop	{r7, pc}
.Ltmp76:
.Lfunc_end4:
	.size	HAL_RTC_WaitForSynchro, .Lfunc_end4-HAL_RTC_WaitForSynchro
	.cfi_endproc
	.cantunwind
	.fnend
                                        @ -- End function
	.section	.text.HAL_RTC_MspDeInit,"ax",%progbits
	.hidden	HAL_RTC_MspDeInit               @ -- Begin function HAL_RTC_MspDeInit
	.weak	HAL_RTC_MspDeInit
	.p2align	3
	.type	HAL_RTC_MspDeInit,%function
	.code	16                              @ @HAL_RTC_MspDeInit
	.thumb_func
HAL_RTC_MspDeInit:
.Lfunc_begin5:
	.loc	5 685 0                         @ libraries/STM32H7xx_HAL/STM32H7xx_HAL_Driver/Src/stm32h7xx_hal_rtc.c:685:0
	.fnstart
	.cfi_startproc
@ %bb.0:
	.pad	#4
	sub	sp, #4
	.cfi_def_cfa_offset 4
	str	r0, [sp]
.Ltmp77:
	.loc	5 692 1 prologue_end            @ libraries/STM32H7xx_HAL/STM32H7xx_HAL_Driver/Src/stm32h7xx_hal_rtc.c:692:1
	add	sp, #4
	bx	lr
.Ltmp78:
.Lfunc_end5:
	.size	HAL_RTC_MspDeInit, .Lfunc_end5-HAL_RTC_MspDeInit
	.cfi_endproc
	.cantunwind
	.fnend
                                        @ -- End function
	.section	.text.HAL_RTC_SetTime,"ax",%progbits
	.hidden	HAL_RTC_SetTime                 @ -- Begin function HAL_RTC_SetTime
	.globl	HAL_RTC_SetTime
	.p2align	3
	.type	HAL_RTC_SetTime,%function
	.code	16                              @ @HAL_RTC_SetTime
	.thumb_func
HAL_RTC_SetTime:
.Lfunc_begin6:
	.loc	5 723 0                         @ libraries/STM32H7xx_HAL/STM32H7xx_HAL_Driver/Src/stm32h7xx_hal_rtc.c:723:0
	.fnstart
	.cfi_startproc
@ %bb.0:
	.save	{r7, lr}
	push	{r7, lr}
	.cfi_def_cfa_offset 8
	.cfi_offset lr, -4
	.cfi_offset r7, -8
	.pad	#32
	sub	sp, #32
	.cfi_def_cfa_offset 40
	str	r0, [sp, #24]
	str	r1, [sp, #20]
	str	r2, [sp, #16]
.Ltmp79:
	.loc	5 732 3 prologue_end            @ libraries/STM32H7xx_HAL/STM32H7xx_HAL_Driver/Src/stm32h7xx_hal_rtc.c:732:3
	b	.LBB6_1
.LBB6_1:
.Ltmp80:
	.loc	5 732 3 is_stmt 0               @ libraries/STM32H7xx_HAL/STM32H7xx_HAL_Driver/Src/stm32h7xx_hal_rtc.c:732:3
	ldr	r0, [sp, #24]
	ldrb.w	r0, [r0, #32]
.Ltmp81:
	.loc	5 732 3                         @ libraries/STM32H7xx_HAL/STM32H7xx_HAL_Driver/Src/stm32h7xx_hal_rtc.c:732:3
	cmp	r0, #1
	bne	.LBB6_3
	b	.LBB6_2
.LBB6_2:
	.loc	5 0 3                           @ libraries/STM32H7xx_HAL/STM32H7xx_HAL_Driver/Src/stm32h7xx_hal_rtc.c:0:3
	movs	r0, #2
.Ltmp82:
	.loc	5 732 3                         @ libraries/STM32H7xx_HAL/STM32H7xx_HAL_Driver/Src/stm32h7xx_hal_rtc.c:732:3
	strb.w	r0, [sp, #31]
	b	.LBB6_35
.Ltmp83:
.LBB6_3:
	.loc	5 732 3                         @ libraries/STM32H7xx_HAL/STM32H7xx_HAL_Driver/Src/stm32h7xx_hal_rtc.c:732:3
	ldr	r1, [sp, #24]
	movs	r0, #1
	strb.w	r0, [r1, #32]
	b	.LBB6_4
.Ltmp84:
.LBB6_4:
	.loc	5 732 3                         @ libraries/STM32H7xx_HAL/STM32H7xx_HAL_Driver/Src/stm32h7xx_hal_rtc.c:732:3
	b	.LBB6_5
.Ltmp85:
.LBB6_5:
	.loc	5 734 3 is_stmt 1               @ libraries/STM32H7xx_HAL/STM32H7xx_HAL_Driver/Src/stm32h7xx_hal_rtc.c:734:3
	ldr	r1, [sp, #24]
	movs	r0, #2
	.loc	5 734 15 is_stmt 0              @ libraries/STM32H7xx_HAL/STM32H7xx_HAL_Driver/Src/stm32h7xx_hal_rtc.c:734:15
	strb.w	r0, [r1, #33]
.Ltmp86:
	.loc	5 736 6 is_stmt 1               @ libraries/STM32H7xx_HAL/STM32H7xx_HAL_Driver/Src/stm32h7xx_hal_rtc.c:736:6
	ldr	r0, [sp, #16]
.Ltmp87:
	.loc	5 736 6 is_stmt 0               @ libraries/STM32H7xx_HAL/STM32H7xx_HAL_Driver/Src/stm32h7xx_hal_rtc.c:736:6
	cbnz	r0, .LBB6_10
	b	.LBB6_6
.LBB6_6:
.Ltmp88:
	.loc	5 738 9 is_stmt 1               @ libraries/STM32H7xx_HAL/STM32H7xx_HAL_Driver/Src/stm32h7xx_hal_rtc.c:738:9
	ldr	r0, [sp, #24]
	.loc	5 738 15 is_stmt 0              @ libraries/STM32H7xx_HAL/STM32H7xx_HAL_Driver/Src/stm32h7xx_hal_rtc.c:738:15
	ldr	r0, [r0]
	.loc	5 738 25                        @ libraries/STM32H7xx_HAL/STM32H7xx_HAL_Driver/Src/stm32h7xx_hal_rtc.c:738:25
	ldr	r0, [r0, #8]
.Ltmp89:
	.loc	5 738 8                         @ libraries/STM32H7xx_HAL/STM32H7xx_HAL_Driver/Src/stm32h7xx_hal_rtc.c:738:8
	lsls	r0, r0, #25
	cmp	r0, #0
	bpl	.LBB6_8
	b	.LBB6_7
.LBB6_7:
.Ltmp90:
	.loc	5 742 5 is_stmt 1               @ libraries/STM32H7xx_HAL/STM32H7xx_HAL_Driver/Src/stm32h7xx_hal_rtc.c:742:5
	b	.LBB6_9
.Ltmp91:
.LBB6_8:
	.loc	5 745 7                         @ libraries/STM32H7xx_HAL/STM32H7xx_HAL_Driver/Src/stm32h7xx_hal_rtc.c:745:7
	ldr	r1, [sp, #20]
	movs	r0, #0
	.loc	5 745 25 is_stmt 0              @ libraries/STM32H7xx_HAL/STM32H7xx_HAL_Driver/Src/stm32h7xx_hal_rtc.c:745:25
	strb	r0, [r1, #3]
	b	.LBB6_9
.Ltmp92:
.LBB6_9:
	.loc	5 751 52 is_stmt 1              @ libraries/STM32H7xx_HAL/STM32H7xx_HAL_Driver/Src/stm32h7xx_hal_rtc.c:751:52
	ldr	r0, [sp, #20]
	.loc	5 751 59 is_stmt 0              @ libraries/STM32H7xx_HAL/STM32H7xx_HAL_Driver/Src/stm32h7xx_hal_rtc.c:751:59
	ldrb	r0, [r0]
	.loc	5 751 37                        @ libraries/STM32H7xx_HAL/STM32H7xx_HAL_Driver/Src/stm32h7xx_hal_rtc.c:751:37
	bl	RTC_ByteToBcd2
	.loc	5 751 68                        @ libraries/STM32H7xx_HAL/STM32H7xx_HAL_Driver/Src/stm32h7xx_hal_rtc.c:751:68
	lsls	r0, r0, #16
	.loc	5 752 52 is_stmt 1              @ libraries/STM32H7xx_HAL/STM32H7xx_HAL_Driver/Src/stm32h7xx_hal_rtc.c:752:52
	str	r0, [sp, #4]                    @ 4-byte Spill
	ldr	r0, [sp, #20]
	.loc	5 752 59 is_stmt 0              @ libraries/STM32H7xx_HAL/STM32H7xx_HAL_Driver/Src/stm32h7xx_hal_rtc.c:752:59
	ldrb	r0, [r0, #1]
	.loc	5 752 37                        @ libraries/STM32H7xx_HAL/STM32H7xx_HAL_Driver/Src/stm32h7xx_hal_rtc.c:752:37
	bl	RTC_ByteToBcd2
	mov	r1, r0
	.loc	5 751 87 is_stmt 1              @ libraries/STM32H7xx_HAL/STM32H7xx_HAL_Driver/Src/stm32h7xx_hal_rtc.c:751:87
	ldr	r0, [sp, #4]                    @ 4-byte Reload
	orr.w	r0, r0, r1, lsl #8
	.loc	5 753 52                        @ libraries/STM32H7xx_HAL/STM32H7xx_HAL_Driver/Src/stm32h7xx_hal_rtc.c:753:52
	str	r0, [sp, #8]                    @ 4-byte Spill
	ldr	r0, [sp, #20]
	.loc	5 753 59 is_stmt 0              @ libraries/STM32H7xx_HAL/STM32H7xx_HAL_Driver/Src/stm32h7xx_hal_rtc.c:753:59
	ldrb	r0, [r0, #2]
	.loc	5 753 37                        @ libraries/STM32H7xx_HAL/STM32H7xx_HAL_Driver/Src/stm32h7xx_hal_rtc.c:753:37
	bl	RTC_ByteToBcd2
	mov	r1, r0
	.loc	5 752 87 is_stmt 1              @ libraries/STM32H7xx_HAL/STM32H7xx_HAL_Driver/Src/stm32h7xx_hal_rtc.c:752:87
	ldr	r0, [sp, #8]                    @ 4-byte Reload
	add	r0, r1
	.loc	5 754 37                        @ libraries/STM32H7xx_HAL/STM32H7xx_HAL_Driver/Src/stm32h7xx_hal_rtc.c:754:37
	ldr	r1, [sp, #20]
	.loc	5 754 44 is_stmt 0              @ libraries/STM32H7xx_HAL/STM32H7xx_HAL_Driver/Src/stm32h7xx_hal_rtc.c:754:44
	ldrb	r1, [r1, #3]
	.loc	5 753 87 is_stmt 1              @ libraries/STM32H7xx_HAL/STM32H7xx_HAL_Driver/Src/stm32h7xx_hal_rtc.c:753:87
	orr.w	r0, r0, r1, lsl #22
	.loc	5 751 12                        @ libraries/STM32H7xx_HAL/STM32H7xx_HAL_Driver/Src/stm32h7xx_hal_rtc.c:751:12
	str	r0, [sp, #12]
	.loc	5 755 3                         @ libraries/STM32H7xx_HAL/STM32H7xx_HAL_Driver/Src/stm32h7xx_hal_rtc.c:755:3
	b	.LBB6_14
.Ltmp93:
.LBB6_10:
	.loc	5 758 9                         @ libraries/STM32H7xx_HAL/STM32H7xx_HAL_Driver/Src/stm32h7xx_hal_rtc.c:758:9
	ldr	r0, [sp, #24]
	.loc	5 758 15 is_stmt 0              @ libraries/STM32H7xx_HAL/STM32H7xx_HAL_Driver/Src/stm32h7xx_hal_rtc.c:758:15
	ldr	r0, [r0]
	.loc	5 758 25                        @ libraries/STM32H7xx_HAL/STM32H7xx_HAL_Driver/Src/stm32h7xx_hal_rtc.c:758:25
	ldr	r0, [r0, #8]
.Ltmp94:
	.loc	5 758 8                         @ libraries/STM32H7xx_HAL/STM32H7xx_HAL_Driver/Src/stm32h7xx_hal_rtc.c:758:8
	lsls	r0, r0, #25
	cmp	r0, #0
	bpl	.LBB6_12
	b	.LBB6_11
.LBB6_11:
.Ltmp95:
	.loc	5 762 5 is_stmt 1               @ libraries/STM32H7xx_HAL/STM32H7xx_HAL_Driver/Src/stm32h7xx_hal_rtc.c:762:5
	b	.LBB6_13
.Ltmp96:
.LBB6_12:
	.loc	5 765 7                         @ libraries/STM32H7xx_HAL/STM32H7xx_HAL_Driver/Src/stm32h7xx_hal_rtc.c:765:7
	ldr	r1, [sp, #20]
	movs	r0, #0
	.loc	5 765 25 is_stmt 0              @ libraries/STM32H7xx_HAL/STM32H7xx_HAL_Driver/Src/stm32h7xx_hal_rtc.c:765:25
	strb	r0, [r1, #3]
	b	.LBB6_13
.Ltmp97:
.LBB6_13:
	.loc	5 770 27 is_stmt 1              @ libraries/STM32H7xx_HAL/STM32H7xx_HAL_Driver/Src/stm32h7xx_hal_rtc.c:770:27
	ldr	r1, [sp, #20]
	.loc	5 770 34 is_stmt 0              @ libraries/STM32H7xx_HAL/STM32H7xx_HAL_Driver/Src/stm32h7xx_hal_rtc.c:770:34
	ldrb	r0, [r1]
	.loc	5 771 34 is_stmt 1              @ libraries/STM32H7xx_HAL/STM32H7xx_HAL_Driver/Src/stm32h7xx_hal_rtc.c:771:34
	ldrb	r3, [r1, #1]
	.loc	5 772 34                        @ libraries/STM32H7xx_HAL/STM32H7xx_HAL_Driver/Src/stm32h7xx_hal_rtc.c:772:34
	ldrb	r2, [r1, #2]
	.loc	5 773 34                        @ libraries/STM32H7xx_HAL/STM32H7xx_HAL_Driver/Src/stm32h7xx_hal_rtc.c:773:34
	ldrb	r1, [r1, #3]
	.loc	5 770 46                        @ libraries/STM32H7xx_HAL/STM32H7xx_HAL_Driver/Src/stm32h7xx_hal_rtc.c:770:46
	lsls	r0, r0, #16
	.loc	5 770 65 is_stmt 0              @ libraries/STM32H7xx_HAL/STM32H7xx_HAL_Driver/Src/stm32h7xx_hal_rtc.c:770:65
	orr.w	r0, r0, r3, lsl #8
	.loc	5 771 65 is_stmt 1              @ libraries/STM32H7xx_HAL/STM32H7xx_HAL_Driver/Src/stm32h7xx_hal_rtc.c:771:65
	add	r0, r2
	.loc	5 772 65                        @ libraries/STM32H7xx_HAL/STM32H7xx_HAL_Driver/Src/stm32h7xx_hal_rtc.c:772:65
	orr.w	r0, r0, r1, lsl #22
	.loc	5 770 12                        @ libraries/STM32H7xx_HAL/STM32H7xx_HAL_Driver/Src/stm32h7xx_hal_rtc.c:770:12
	str	r0, [sp, #12]
	b	.LBB6_14
.Ltmp98:
.LBB6_14:
	.loc	5 777 3                         @ libraries/STM32H7xx_HAL/STM32H7xx_HAL_Driver/Src/stm32h7xx_hal_rtc.c:777:3
	b	.LBB6_15
.LBB6_15:
.Ltmp99:
	.loc	5 777 3 is_stmt 0               @ libraries/STM32H7xx_HAL/STM32H7xx_HAL_Driver/Src/stm32h7xx_hal_rtc.c:777:3
	ldr	r0, [sp, #24]
	ldr	r1, [r0]
	movs	r0, #202
	str	r0, [r1, #36]
	ldr	r0, [sp, #24]
	ldr	r1, [r0]
	movs	r0, #83
	str	r0, [r1, #36]
	b	.LBB6_16
.Ltmp100:
.LBB6_16:
	.loc	5 780 24 is_stmt 1              @ libraries/STM32H7xx_HAL/STM32H7xx_HAL_Driver/Src/stm32h7xx_hal_rtc.c:780:24
	ldr	r0, [sp, #24]
	.loc	5 780 6 is_stmt 0               @ libraries/STM32H7xx_HAL/STM32H7xx_HAL_Driver/Src/stm32h7xx_hal_rtc.c:780:6
	bl	RTC_EnterInitMode
.Ltmp101:
	.loc	5 780 6                         @ libraries/STM32H7xx_HAL/STM32H7xx_HAL_Driver/Src/stm32h7xx_hal_rtc.c:780:6
	cbz	r0, .LBB6_22
	b	.LBB6_17
.LBB6_17:
.Ltmp102:
	.loc	5 783 5 is_stmt 1               @ libraries/STM32H7xx_HAL/STM32H7xx_HAL_Driver/Src/stm32h7xx_hal_rtc.c:783:5
	b	.LBB6_18
.LBB6_18:
.Ltmp103:
	.loc	5 783 5 is_stmt 0               @ libraries/STM32H7xx_HAL/STM32H7xx_HAL_Driver/Src/stm32h7xx_hal_rtc.c:783:5
	ldr	r0, [sp, #24]
	ldr	r1, [r0]
	movs	r0, #255
	str	r0, [r1, #36]
	b	.LBB6_19
.Ltmp104:
.LBB6_19:
	.loc	5 786 5 is_stmt 1               @ libraries/STM32H7xx_HAL/STM32H7xx_HAL_Driver/Src/stm32h7xx_hal_rtc.c:786:5
	ldr	r1, [sp, #24]
	movs	r0, #4
	.loc	5 786 17 is_stmt 0              @ libraries/STM32H7xx_HAL/STM32H7xx_HAL_Driver/Src/stm32h7xx_hal_rtc.c:786:17
	strb.w	r0, [r1, #33]
	.loc	5 789 5 is_stmt 1               @ libraries/STM32H7xx_HAL/STM32H7xx_HAL_Driver/Src/stm32h7xx_hal_rtc.c:789:5
	b	.LBB6_20
.LBB6_20:
.Ltmp105:
	.loc	5 789 5 is_stmt 0               @ libraries/STM32H7xx_HAL/STM32H7xx_HAL_Driver/Src/stm32h7xx_hal_rtc.c:789:5
	ldr	r1, [sp, #24]
	movs	r0, #0
	strb.w	r0, [r1, #32]
	b	.LBB6_21
.Ltmp106:
.LBB6_21:
	.loc	5 0 5                           @ libraries/STM32H7xx_HAL/STM32H7xx_HAL_Driver/Src/stm32h7xx_hal_rtc.c:0:5
	movs	r0, #1
	.loc	5 791 5 is_stmt 1               @ libraries/STM32H7xx_HAL/STM32H7xx_HAL_Driver/Src/stm32h7xx_hal_rtc.c:791:5
	strb.w	r0, [sp, #31]
	b	.LBB6_35
.Ltmp107:
.LBB6_22:
	.loc	5 796 37                        @ libraries/STM32H7xx_HAL/STM32H7xx_HAL_Driver/Src/stm32h7xx_hal_rtc.c:796:37
	ldr	r0, [sp, #12]
	movw	r1, #32639
	movt	r1, #127
	.loc	5 796 44 is_stmt 0              @ libraries/STM32H7xx_HAL/STM32H7xx_HAL_Driver/Src/stm32h7xx_hal_rtc.c:796:44
	ands	r0, r1
	.loc	5 796 5                         @ libraries/STM32H7xx_HAL/STM32H7xx_HAL_Driver/Src/stm32h7xx_hal_rtc.c:796:5
	ldr	r1, [sp, #24]
	.loc	5 796 11                        @ libraries/STM32H7xx_HAL/STM32H7xx_HAL_Driver/Src/stm32h7xx_hal_rtc.c:796:11
	ldr	r1, [r1]
	.loc	5 796 24                        @ libraries/STM32H7xx_HAL/STM32H7xx_HAL_Driver/Src/stm32h7xx_hal_rtc.c:796:24
	str	r0, [r1]
	.loc	5 799 5 is_stmt 1               @ libraries/STM32H7xx_HAL/STM32H7xx_HAL_Driver/Src/stm32h7xx_hal_rtc.c:799:5
	ldr	r0, [sp, #24]
	.loc	5 799 11 is_stmt 0              @ libraries/STM32H7xx_HAL/STM32H7xx_HAL_Driver/Src/stm32h7xx_hal_rtc.c:799:11
	ldr	r1, [r0]
	.loc	5 799 24                        @ libraries/STM32H7xx_HAL/STM32H7xx_HAL_Driver/Src/stm32h7xx_hal_rtc.c:799:24
	ldr	r0, [r1, #8]
	bic	r0, r0, #262144
	str	r0, [r1, #8]
	.loc	5 802 38 is_stmt 1              @ libraries/STM32H7xx_HAL/STM32H7xx_HAL_Driver/Src/stm32h7xx_hal_rtc.c:802:38
	ldr	r1, [sp, #20]
	.loc	5 802 45 is_stmt 0              @ libraries/STM32H7xx_HAL/STM32H7xx_HAL_Driver/Src/stm32h7xx_hal_rtc.c:802:45
	ldr	r0, [r1, #12]
	.loc	5 802 69                        @ libraries/STM32H7xx_HAL/STM32H7xx_HAL_Driver/Src/stm32h7xx_hal_rtc.c:802:69
	ldr	r1, [r1, #16]
	.loc	5 802 60                        @ libraries/STM32H7xx_HAL/STM32H7xx_HAL_Driver/Src/stm32h7xx_hal_rtc.c:802:60
	orr.w	r2, r0, r1
	.loc	5 802 5                         @ libraries/STM32H7xx_HAL/STM32H7xx_HAL_Driver/Src/stm32h7xx_hal_rtc.c:802:5
	ldr	r0, [sp, #24]
	.loc	5 802 11                        @ libraries/STM32H7xx_HAL/STM32H7xx_HAL_Driver/Src/stm32h7xx_hal_rtc.c:802:11
	ldr	r1, [r0]
	.loc	5 802 24                        @ libraries/STM32H7xx_HAL/STM32H7xx_HAL_Driver/Src/stm32h7xx_hal_rtc.c:802:24
	ldr	r0, [r1, #8]
	orrs	r0, r2
	str	r0, [r1, #8]
	.loc	5 805 5 is_stmt 1               @ libraries/STM32H7xx_HAL/STM32H7xx_HAL_Driver/Src/stm32h7xx_hal_rtc.c:805:5
	ldr	r0, [sp, #24]
	.loc	5 805 11 is_stmt 0              @ libraries/STM32H7xx_HAL/STM32H7xx_HAL_Driver/Src/stm32h7xx_hal_rtc.c:805:11
	ldr	r1, [r0]
	.loc	5 805 25                        @ libraries/STM32H7xx_HAL/STM32H7xx_HAL_Driver/Src/stm32h7xx_hal_rtc.c:805:25
	ldr	r0, [r1, #12]
	bic	r0, r0, #128
	str	r0, [r1, #12]
.Ltmp108:
	.loc	5 808 9 is_stmt 1               @ libraries/STM32H7xx_HAL/STM32H7xx_HAL_Driver/Src/stm32h7xx_hal_rtc.c:808:9
	ldr	r0, [sp, #24]
	.loc	5 808 15 is_stmt 0              @ libraries/STM32H7xx_HAL/STM32H7xx_HAL_Driver/Src/stm32h7xx_hal_rtc.c:808:15
	ldr	r0, [r0]
	.loc	5 808 25                        @ libraries/STM32H7xx_HAL/STM32H7xx_HAL_Driver/Src/stm32h7xx_hal_rtc.c:808:25
	ldr	r0, [r0, #8]
.Ltmp109:
	.loc	5 808 8                         @ libraries/STM32H7xx_HAL/STM32H7xx_HAL_Driver/Src/stm32h7xx_hal_rtc.c:808:8
	lsls	r0, r0, #26
	cmp	r0, #0
	bmi	.LBB6_30
	b	.LBB6_23
.LBB6_23:
.Ltmp110:
	.loc	5 810 33 is_stmt 1              @ libraries/STM32H7xx_HAL/STM32H7xx_HAL_Driver/Src/stm32h7xx_hal_rtc.c:810:33
	ldr	r0, [sp, #24]
	.loc	5 810 10 is_stmt 0              @ libraries/STM32H7xx_HAL/STM32H7xx_HAL_Driver/Src/stm32h7xx_hal_rtc.c:810:10
	bl	HAL_RTC_WaitForSynchro
.Ltmp111:
	.loc	5 810 10                        @ libraries/STM32H7xx_HAL/STM32H7xx_HAL_Driver/Src/stm32h7xx_hal_rtc.c:810:10
	cbz	r0, .LBB6_29
	b	.LBB6_24
.LBB6_24:
.Ltmp112:
	.loc	5 813 9 is_stmt 1               @ libraries/STM32H7xx_HAL/STM32H7xx_HAL_Driver/Src/stm32h7xx_hal_rtc.c:813:9
	b	.LBB6_25
.LBB6_25:
.Ltmp113:
	.loc	5 813 9 is_stmt 0               @ libraries/STM32H7xx_HAL/STM32H7xx_HAL_Driver/Src/stm32h7xx_hal_rtc.c:813:9
	ldr	r0, [sp, #24]
	ldr	r1, [r0]
	movs	r0, #255
	str	r0, [r1, #36]
	b	.LBB6_26
.Ltmp114:
.LBB6_26:
	.loc	5 815 9 is_stmt 1               @ libraries/STM32H7xx_HAL/STM32H7xx_HAL_Driver/Src/stm32h7xx_hal_rtc.c:815:9
	ldr	r1, [sp, #24]
	movs	r0, #4
	.loc	5 815 21 is_stmt 0              @ libraries/STM32H7xx_HAL/STM32H7xx_HAL_Driver/Src/stm32h7xx_hal_rtc.c:815:21
	strb.w	r0, [r1, #33]
	.loc	5 818 9 is_stmt 1               @ libraries/STM32H7xx_HAL/STM32H7xx_HAL_Driver/Src/stm32h7xx_hal_rtc.c:818:9
	b	.LBB6_27
.LBB6_27:
.Ltmp115:
	.loc	5 818 9 is_stmt 0               @ libraries/STM32H7xx_HAL/STM32H7xx_HAL_Driver/Src/stm32h7xx_hal_rtc.c:818:9
	ldr	r1, [sp, #24]
	movs	r0, #0
	strb.w	r0, [r1, #32]
	b	.LBB6_28
.Ltmp116:
.LBB6_28:
	.loc	5 0 9                           @ libraries/STM32H7xx_HAL/STM32H7xx_HAL_Driver/Src/stm32h7xx_hal_rtc.c:0:9
	movs	r0, #1
	.loc	5 820 9 is_stmt 1               @ libraries/STM32H7xx_HAL/STM32H7xx_HAL_Driver/Src/stm32h7xx_hal_rtc.c:820:9
	strb.w	r0, [sp, #31]
	b	.LBB6_35
.Ltmp117:
.LBB6_29:
	.loc	5 822 5                         @ libraries/STM32H7xx_HAL/STM32H7xx_HAL_Driver/Src/stm32h7xx_hal_rtc.c:822:5
	b	.LBB6_30
.Ltmp118:
.LBB6_30:
	.loc	5 825 5                         @ libraries/STM32H7xx_HAL/STM32H7xx_HAL_Driver/Src/stm32h7xx_hal_rtc.c:825:5
	b	.LBB6_31
.LBB6_31:
.Ltmp119:
	.loc	5 825 5 is_stmt 0               @ libraries/STM32H7xx_HAL/STM32H7xx_HAL_Driver/Src/stm32h7xx_hal_rtc.c:825:5
	ldr	r0, [sp, #24]
	ldr	r1, [r0]
	movs	r0, #255
	str	r0, [r1, #36]
	b	.LBB6_32
.Ltmp120:
.LBB6_32:
	.loc	5 827 4 is_stmt 1               @ libraries/STM32H7xx_HAL/STM32H7xx_HAL_Driver/Src/stm32h7xx_hal_rtc.c:827:4
	ldr	r1, [sp, #24]
	movs	r0, #1
	.loc	5 827 16 is_stmt 0              @ libraries/STM32H7xx_HAL/STM32H7xx_HAL_Driver/Src/stm32h7xx_hal_rtc.c:827:16
	strb.w	r0, [r1, #33]
	.loc	5 829 4 is_stmt 1               @ libraries/STM32H7xx_HAL/STM32H7xx_HAL_Driver/Src/stm32h7xx_hal_rtc.c:829:4
	b	.LBB6_33
.LBB6_33:
.Ltmp121:
	.loc	5 829 4 is_stmt 0               @ libraries/STM32H7xx_HAL/STM32H7xx_HAL_Driver/Src/stm32h7xx_hal_rtc.c:829:4
	ldr	r1, [sp, #24]
	movs	r0, #0
	strb.w	r0, [r1, #32]
	b	.LBB6_34
.Ltmp122:
.LBB6_34:
	.loc	5 0 4                           @ libraries/STM32H7xx_HAL/STM32H7xx_HAL_Driver/Src/stm32h7xx_hal_rtc.c:0:4
	movs	r0, #0
	.loc	5 831 4 is_stmt 1               @ libraries/STM32H7xx_HAL/STM32H7xx_HAL_Driver/Src/stm32h7xx_hal_rtc.c:831:4
	strb.w	r0, [sp, #31]
	b	.LBB6_35
.Ltmp123:
.LBB6_35:
	.loc	5 833 1                         @ libraries/STM32H7xx_HAL/STM32H7xx_HAL_Driver/Src/stm32h7xx_hal_rtc.c:833:1
	ldrb.w	r0, [sp, #31]
	add	sp, #32
	pop	{r7, pc}
.Ltmp124:
.Lfunc_end6:
	.size	HAL_RTC_SetTime, .Lfunc_end6-HAL_RTC_SetTime
	.cfi_endproc
	.cantunwind
	.fnend
                                        @ -- End function
	.section	.text.RTC_ByteToBcd2,"ax",%progbits
	.hidden	RTC_ByteToBcd2                  @ -- Begin function RTC_ByteToBcd2
	.globl	RTC_ByteToBcd2
	.p2align	3
	.type	RTC_ByteToBcd2,%function
	.code	16                              @ @RTC_ByteToBcd2
	.thumb_func
RTC_ByteToBcd2:
.Lfunc_begin7:
	.loc	5 1820 0                        @ libraries/STM32H7xx_HAL/STM32H7xx_HAL_Driver/Src/stm32h7xx_hal_rtc.c:1820:0
	.fnstart
	.cfi_startproc
@ %bb.0:
	.pad	#12
	sub	sp, #12
	.cfi_def_cfa_offset 12
                                        @ kill: def $r1 killed $r0
	strb.w	r0, [sp, #11]
	movs	r0, #0
.Ltmp125:
	.loc	5 1821 12 prologue_end          @ libraries/STM32H7xx_HAL/STM32H7xx_HAL_Driver/Src/stm32h7xx_hal_rtc.c:1821:12
	str	r0, [sp, #4]
	.loc	5 1822 19                       @ libraries/STM32H7xx_HAL/STM32H7xx_HAL_Driver/Src/stm32h7xx_hal_rtc.c:1822:19
	ldrb.w	r0, [sp, #11]
	.loc	5 1822 11 is_stmt 0             @ libraries/STM32H7xx_HAL/STM32H7xx_HAL_Driver/Src/stm32h7xx_hal_rtc.c:1822:11
	strb.w	r0, [sp, #3]
	.loc	5 1824 3 is_stmt 1              @ libraries/STM32H7xx_HAL/STM32H7xx_HAL_Driver/Src/stm32h7xx_hal_rtc.c:1824:3
	b	.LBB7_1
.LBB7_1:                                @ =>This Inner Loop Header: Depth=1
	.loc	5 1824 9 is_stmt 0              @ libraries/STM32H7xx_HAL/STM32H7xx_HAL_Driver/Src/stm32h7xx_hal_rtc.c:1824:9
	ldrb.w	r0, [sp, #3]
	.loc	5 1824 3                        @ libraries/STM32H7xx_HAL/STM32H7xx_HAL_Driver/Src/stm32h7xx_hal_rtc.c:1824:3
	cmp	r0, #10
	blo	.LBB7_3
	b	.LBB7_2
.LBB7_2:                                @   in Loop: Header=BB7_1 Depth=1
.Ltmp126:
	.loc	5 1826 12 is_stmt 1             @ libraries/STM32H7xx_HAL/STM32H7xx_HAL_Driver/Src/stm32h7xx_hal_rtc.c:1826:12
	ldr	r0, [sp, #4]
	adds	r0, #1
	str	r0, [sp, #4]
	.loc	5 1827 11                       @ libraries/STM32H7xx_HAL/STM32H7xx_HAL_Driver/Src/stm32h7xx_hal_rtc.c:1827:11
	ldrb.w	r0, [sp, #3]
	subs	r0, #10
	strb.w	r0, [sp, #3]
.Ltmp127:
	.loc	5 1824 3                        @ libraries/STM32H7xx_HAL/STM32H7xx_HAL_Driver/Src/stm32h7xx_hal_rtc.c:1824:3
	b	.LBB7_1
.LBB7_3:
	.loc	5 1830 22                       @ libraries/STM32H7xx_HAL/STM32H7xx_HAL_Driver/Src/stm32h7xx_hal_rtc.c:1830:22
	ldr	r0, [sp, #4]
	.loc	5 1830 30 is_stmt 0             @ libraries/STM32H7xx_HAL/STM32H7xx_HAL_Driver/Src/stm32h7xx_hal_rtc.c:1830:30
	and	r1, r0, #15
	.loc	5 1830 39                       @ libraries/STM32H7xx_HAL/STM32H7xx_HAL_Driver/Src/stm32h7xx_hal_rtc.c:1830:39
	ldrb.w	r0, [sp, #3]
	.loc	5 1830 37                       @ libraries/STM32H7xx_HAL/STM32H7xx_HAL_Driver/Src/stm32h7xx_hal_rtc.c:1830:37
	orr.w	r0, r0, r1, lsl #4
	.loc	5 1830 3                        @ libraries/STM32H7xx_HAL/STM32H7xx_HAL_Driver/Src/stm32h7xx_hal_rtc.c:1830:3
	add	sp, #12
	bx	lr
.Ltmp128:
.Lfunc_end7:
	.size	RTC_ByteToBcd2, .Lfunc_end7-RTC_ByteToBcd2
	.cfi_endproc
	.cantunwind
	.fnend
                                        @ -- End function
	.section	.text.HAL_RTC_GetTime,"ax",%progbits
	.hidden	HAL_RTC_GetTime                 @ -- Begin function HAL_RTC_GetTime
	.globl	HAL_RTC_GetTime
	.p2align	3
	.type	HAL_RTC_GetTime,%function
	.code	16                              @ @HAL_RTC_GetTime
	.thumb_func
HAL_RTC_GetTime:
.Lfunc_begin8:
	.loc	5 857 0 is_stmt 1               @ libraries/STM32H7xx_HAL/STM32H7xx_HAL_Driver/Src/stm32h7xx_hal_rtc.c:857:0
	.fnstart
	.cfi_startproc
@ %bb.0:
	.save	{r7, lr}
	push	{r7, lr}
	.cfi_def_cfa_offset 8
	.cfi_offset lr, -4
	.cfi_offset r7, -8
	.pad	#16
	sub	sp, #16
	.cfi_def_cfa_offset 24
	str	r0, [sp, #12]
	str	r1, [sp, #8]
	str	r2, [sp, #4]
.Ltmp129:
	.loc	5 864 34 prologue_end           @ libraries/STM32H7xx_HAL/STM32H7xx_HAL_Driver/Src/stm32h7xx_hal_rtc.c:864:34
	ldr	r0, [sp, #12]
	.loc	5 864 40 is_stmt 0              @ libraries/STM32H7xx_HAL/STM32H7xx_HAL_Driver/Src/stm32h7xx_hal_rtc.c:864:40
	ldr	r0, [r0]
	.loc	5 864 50                        @ libraries/STM32H7xx_HAL/STM32H7xx_HAL_Driver/Src/stm32h7xx_hal_rtc.c:864:50
	ldr	r0, [r0, #40]
	.loc	5 864 3                         @ libraries/STM32H7xx_HAL/STM32H7xx_HAL_Driver/Src/stm32h7xx_hal_rtc.c:864:3
	ldr	r1, [sp, #8]
	.loc	5 864 21                        @ libraries/STM32H7xx_HAL/STM32H7xx_HAL_Driver/Src/stm32h7xx_hal_rtc.c:864:21
	str	r0, [r1, #4]
	.loc	5 867 38 is_stmt 1              @ libraries/STM32H7xx_HAL/STM32H7xx_HAL_Driver/Src/stm32h7xx_hal_rtc.c:867:38
	ldr	r0, [sp, #12]
	.loc	5 867 44 is_stmt 0              @ libraries/STM32H7xx_HAL/STM32H7xx_HAL_Driver/Src/stm32h7xx_hal_rtc.c:867:44
	ldr	r0, [r0]
	.loc	5 867 54                        @ libraries/STM32H7xx_HAL/STM32H7xx_HAL_Driver/Src/stm32h7xx_hal_rtc.c:867:54
	ldr	r0, [r0, #16]
	.loc	5 867 59                        @ libraries/STM32H7xx_HAL/STM32H7xx_HAL_Driver/Src/stm32h7xx_hal_rtc.c:867:59
	bfc	r0, #15, #17
	.loc	5 867 3                         @ libraries/STM32H7xx_HAL/STM32H7xx_HAL_Driver/Src/stm32h7xx_hal_rtc.c:867:3
	ldr	r1, [sp, #8]
	.loc	5 867 25                        @ libraries/STM32H7xx_HAL/STM32H7xx_HAL_Driver/Src/stm32h7xx_hal_rtc.c:867:25
	str	r0, [r1, #8]
	.loc	5 870 23 is_stmt 1              @ libraries/STM32H7xx_HAL/STM32H7xx_HAL_Driver/Src/stm32h7xx_hal_rtc.c:870:23
	ldr	r0, [sp, #12]
	.loc	5 870 29 is_stmt 0              @ libraries/STM32H7xx_HAL/STM32H7xx_HAL_Driver/Src/stm32h7xx_hal_rtc.c:870:29
	ldr	r0, [r0]
	.loc	5 870 39                        @ libraries/STM32H7xx_HAL/STM32H7xx_HAL_Driver/Src/stm32h7xx_hal_rtc.c:870:39
	ldr	r0, [r0]
	movw	r1, #32639
	movt	r1, #127
	.loc	5 870 42                        @ libraries/STM32H7xx_HAL/STM32H7xx_HAL_Driver/Src/stm32h7xx_hal_rtc.c:870:42
	ands	r0, r1
	.loc	5 870 10                        @ libraries/STM32H7xx_HAL/STM32H7xx_HAL_Driver/Src/stm32h7xx_hal_rtc.c:870:10
	str	r0, [sp]
	.loc	5 873 34 is_stmt 1              @ libraries/STM32H7xx_HAL/STM32H7xx_HAL_Driver/Src/stm32h7xx_hal_rtc.c:873:34
	ldr	r0, [sp]
	.loc	5 873 70 is_stmt 0              @ libraries/STM32H7xx_HAL/STM32H7xx_HAL_Driver/Src/stm32h7xx_hal_rtc.c:873:70
	ubfx	r0, r0, #16, #6
	.loc	5 873 3                         @ libraries/STM32H7xx_HAL/STM32H7xx_HAL_Driver/Src/stm32h7xx_hal_rtc.c:873:3
	ldr	r1, [sp, #8]
	.loc	5 873 21                        @ libraries/STM32H7xx_HAL/STM32H7xx_HAL_Driver/Src/stm32h7xx_hal_rtc.c:873:21
	strb	r0, [r1]
	.loc	5 874 34 is_stmt 1              @ libraries/STM32H7xx_HAL/STM32H7xx_HAL_Driver/Src/stm32h7xx_hal_rtc.c:874:34
	ldr	r0, [sp]
	.loc	5 874 70 is_stmt 0              @ libraries/STM32H7xx_HAL/STM32H7xx_HAL_Driver/Src/stm32h7xx_hal_rtc.c:874:70
	ubfx	r0, r0, #8, #7
	.loc	5 874 3                         @ libraries/STM32H7xx_HAL/STM32H7xx_HAL_Driver/Src/stm32h7xx_hal_rtc.c:874:3
	ldr	r1, [sp, #8]
	.loc	5 874 21                        @ libraries/STM32H7xx_HAL/STM32H7xx_HAL_Driver/Src/stm32h7xx_hal_rtc.c:874:21
	strb	r0, [r1, #1]
	.loc	5 875 34 is_stmt 1              @ libraries/STM32H7xx_HAL/STM32H7xx_HAL_Driver/Src/stm32h7xx_hal_rtc.c:875:34
	ldr	r0, [sp]
	.loc	5 875 41 is_stmt 0              @ libraries/STM32H7xx_HAL/STM32H7xx_HAL_Driver/Src/stm32h7xx_hal_rtc.c:875:41
	and	r0, r0, #127
	.loc	5 875 3                         @ libraries/STM32H7xx_HAL/STM32H7xx_HAL_Driver/Src/stm32h7xx_hal_rtc.c:875:3
	ldr	r1, [sp, #8]
	.loc	5 875 21                        @ libraries/STM32H7xx_HAL/STM32H7xx_HAL_Driver/Src/stm32h7xx_hal_rtc.c:875:21
	strb	r0, [r1, #2]
	.loc	5 876 34 is_stmt 1              @ libraries/STM32H7xx_HAL/STM32H7xx_HAL_Driver/Src/stm32h7xx_hal_rtc.c:876:34
	ldr	r0, [sp]
	.loc	5 876 70 is_stmt 0              @ libraries/STM32H7xx_HAL/STM32H7xx_HAL_Driver/Src/stm32h7xx_hal_rtc.c:876:70
	ubfx	r0, r0, #22, #1
	.loc	5 876 3                         @ libraries/STM32H7xx_HAL/STM32H7xx_HAL_Driver/Src/stm32h7xx_hal_rtc.c:876:3
	ldr	r1, [sp, #8]
	.loc	5 876 21                        @ libraries/STM32H7xx_HAL/STM32H7xx_HAL_Driver/Src/stm32h7xx_hal_rtc.c:876:21
	strb	r0, [r1, #3]
.Ltmp130:
	.loc	5 879 6 is_stmt 1               @ libraries/STM32H7xx_HAL/STM32H7xx_HAL_Driver/Src/stm32h7xx_hal_rtc.c:879:6
	ldr	r0, [sp, #4]
.Ltmp131:
	.loc	5 879 6 is_stmt 0               @ libraries/STM32H7xx_HAL/STM32H7xx_HAL_Driver/Src/stm32h7xx_hal_rtc.c:879:6
	cbnz	r0, .LBB8_2
	b	.LBB8_1
.LBB8_1:
.Ltmp132:
	.loc	5 882 46 is_stmt 1              @ libraries/STM32H7xx_HAL/STM32H7xx_HAL_Driver/Src/stm32h7xx_hal_rtc.c:882:46
	ldr	r0, [sp, #8]
	.loc	5 882 53 is_stmt 0              @ libraries/STM32H7xx_HAL/STM32H7xx_HAL_Driver/Src/stm32h7xx_hal_rtc.c:882:53
	ldrb	r0, [r0]
	.loc	5 882 31                        @ libraries/STM32H7xx_HAL/STM32H7xx_HAL_Driver/Src/stm32h7xx_hal_rtc.c:882:31
	bl	RTC_Bcd2ToByte
	.loc	5 882 5                         @ libraries/STM32H7xx_HAL/STM32H7xx_HAL_Driver/Src/stm32h7xx_hal_rtc.c:882:5
	ldr	r1, [sp, #8]
	.loc	5 882 20                        @ libraries/STM32H7xx_HAL/STM32H7xx_HAL_Driver/Src/stm32h7xx_hal_rtc.c:882:20
	strb	r0, [r1]
	.loc	5 883 46 is_stmt 1              @ libraries/STM32H7xx_HAL/STM32H7xx_HAL_Driver/Src/stm32h7xx_hal_rtc.c:883:46
	ldr	r0, [sp, #8]
	.loc	5 883 53 is_stmt 0              @ libraries/STM32H7xx_HAL/STM32H7xx_HAL_Driver/Src/stm32h7xx_hal_rtc.c:883:53
	ldrb	r0, [r0, #1]
	.loc	5 883 31                        @ libraries/STM32H7xx_HAL/STM32H7xx_HAL_Driver/Src/stm32h7xx_hal_rtc.c:883:31
	bl	RTC_Bcd2ToByte
	.loc	5 883 5                         @ libraries/STM32H7xx_HAL/STM32H7xx_HAL_Driver/Src/stm32h7xx_hal_rtc.c:883:5
	ldr	r1, [sp, #8]
	.loc	5 883 20                        @ libraries/STM32H7xx_HAL/STM32H7xx_HAL_Driver/Src/stm32h7xx_hal_rtc.c:883:20
	strb	r0, [r1, #1]
	.loc	5 884 46 is_stmt 1              @ libraries/STM32H7xx_HAL/STM32H7xx_HAL_Driver/Src/stm32h7xx_hal_rtc.c:884:46
	ldr	r0, [sp, #8]
	.loc	5 884 53 is_stmt 0              @ libraries/STM32H7xx_HAL/STM32H7xx_HAL_Driver/Src/stm32h7xx_hal_rtc.c:884:53
	ldrb	r0, [r0, #2]
	.loc	5 884 31                        @ libraries/STM32H7xx_HAL/STM32H7xx_HAL_Driver/Src/stm32h7xx_hal_rtc.c:884:31
	bl	RTC_Bcd2ToByte
	.loc	5 884 5                         @ libraries/STM32H7xx_HAL/STM32H7xx_HAL_Driver/Src/stm32h7xx_hal_rtc.c:884:5
	ldr	r1, [sp, #8]
	.loc	5 884 20                        @ libraries/STM32H7xx_HAL/STM32H7xx_HAL_Driver/Src/stm32h7xx_hal_rtc.c:884:20
	strb	r0, [r1, #2]
	.loc	5 885 3 is_stmt 1               @ libraries/STM32H7xx_HAL/STM32H7xx_HAL_Driver/Src/stm32h7xx_hal_rtc.c:885:3
	b	.LBB8_2
.Ltmp133:
.LBB8_2:
	.loc	5 0 3 is_stmt 0                 @ libraries/STM32H7xx_HAL/STM32H7xx_HAL_Driver/Src/stm32h7xx_hal_rtc.c:0:3
	movs	r0, #0
	.loc	5 887 3 is_stmt 1               @ libraries/STM32H7xx_HAL/STM32H7xx_HAL_Driver/Src/stm32h7xx_hal_rtc.c:887:3
	add	sp, #16
	pop	{r7, pc}
.Ltmp134:
.Lfunc_end8:
	.size	HAL_RTC_GetTime, .Lfunc_end8-HAL_RTC_GetTime
	.cfi_endproc
	.cantunwind
	.fnend
                                        @ -- End function
	.section	.text.RTC_Bcd2ToByte,"ax",%progbits
	.hidden	RTC_Bcd2ToByte                  @ -- Begin function RTC_Bcd2ToByte
	.globl	RTC_Bcd2ToByte
	.p2align	3
	.type	RTC_Bcd2ToByte,%function
	.code	16                              @ @RTC_Bcd2ToByte
	.thumb_func
RTC_Bcd2ToByte:
.Lfunc_begin9:
	.loc	5 1839 0                        @ libraries/STM32H7xx_HAL/STM32H7xx_HAL_Driver/Src/stm32h7xx_hal_rtc.c:1839:0
	.fnstart
	.cfi_startproc
@ %bb.0:
	.pad	#4
	sub	sp, #4
	.cfi_def_cfa_offset 4
                                        @ kill: def $r1 killed $r0
	strb.w	r0, [sp, #3]
.Ltmp135:
	.loc	5 1841 11 prologue_end          @ libraries/STM32H7xx_HAL/STM32H7xx_HAL_Driver/Src/stm32h7xx_hal_rtc.c:1841:11
	ldrb.w	r0, [sp, #3]
	.loc	5 1841 26 is_stmt 0             @ libraries/STM32H7xx_HAL/STM32H7xx_HAL_Driver/Src/stm32h7xx_hal_rtc.c:1841:26
	lsrs	r0, r0, #4
	.loc	5 1841 33                       @ libraries/STM32H7xx_HAL/STM32H7xx_HAL_Driver/Src/stm32h7xx_hal_rtc.c:1841:33
	add.w	r0, r0, r0, lsl #2
	lsls	r0, r0, #1
	.loc	5 1841 7                        @ libraries/STM32H7xx_HAL/STM32H7xx_HAL_Driver/Src/stm32h7xx_hal_rtc.c:1841:7
	strb.w	r0, [sp, #2]
	.loc	5 1842 11 is_stmt 1             @ libraries/STM32H7xx_HAL/STM32H7xx_HAL_Driver/Src/stm32h7xx_hal_rtc.c:1842:11
	ldrb.w	r0, [sp, #2]
	.loc	5 1842 18 is_stmt 0             @ libraries/STM32H7xx_HAL/STM32H7xx_HAL_Driver/Src/stm32h7xx_hal_rtc.c:1842:18
	ldrb.w	r1, [sp, #3]
	.loc	5 1842 24                       @ libraries/STM32H7xx_HAL/STM32H7xx_HAL_Driver/Src/stm32h7xx_hal_rtc.c:1842:24
	and	r1, r1, #15
	.loc	5 1842 15                       @ libraries/STM32H7xx_HAL/STM32H7xx_HAL_Driver/Src/stm32h7xx_hal_rtc.c:1842:15
	add	r0, r1
	.loc	5 1842 3                        @ libraries/STM32H7xx_HAL/STM32H7xx_HAL_Driver/Src/stm32h7xx_hal_rtc.c:1842:3
	uxtb	r0, r0
	add	sp, #4
	bx	lr
.Ltmp136:
.Lfunc_end9:
	.size	RTC_Bcd2ToByte, .Lfunc_end9-RTC_Bcd2ToByte
	.cfi_endproc
	.cantunwind
	.fnend
                                        @ -- End function
	.section	.text.HAL_RTC_SetDate,"ax",%progbits
	.hidden	HAL_RTC_SetDate                 @ -- Begin function HAL_RTC_SetDate
	.globl	HAL_RTC_SetDate
	.p2align	3
	.type	HAL_RTC_SetDate,%function
	.code	16                              @ @HAL_RTC_SetDate
	.thumb_func
HAL_RTC_SetDate:
.Lfunc_begin10:
	.loc	5 901 0 is_stmt 1               @ libraries/STM32H7xx_HAL/STM32H7xx_HAL_Driver/Src/stm32h7xx_hal_rtc.c:901:0
	.fnstart
	.cfi_startproc
@ %bb.0:
	.save	{r7, lr}
	push	{r7, lr}
	.cfi_def_cfa_offset 8
	.cfi_offset lr, -4
	.cfi_offset r7, -8
	.pad	#32
	sub	sp, #32
	.cfi_def_cfa_offset 40
	str	r0, [sp, #24]
	str	r1, [sp, #20]
	str	r2, [sp, #16]
.Ltmp137:
	.loc	5 908 2 prologue_end            @ libraries/STM32H7xx_HAL/STM32H7xx_HAL_Driver/Src/stm32h7xx_hal_rtc.c:908:2
	b	.LBB10_1
.LBB10_1:
.Ltmp138:
	.loc	5 908 2 is_stmt 0               @ libraries/STM32H7xx_HAL/STM32H7xx_HAL_Driver/Src/stm32h7xx_hal_rtc.c:908:2
	ldr	r0, [sp, #24]
	ldrb.w	r0, [r0, #32]
.Ltmp139:
	.loc	5 908 2                         @ libraries/STM32H7xx_HAL/STM32H7xx_HAL_Driver/Src/stm32h7xx_hal_rtc.c:908:2
	cmp	r0, #1
	bne	.LBB10_3
	b	.LBB10_2
.LBB10_2:
	.loc	5 0 2                           @ libraries/STM32H7xx_HAL/STM32H7xx_HAL_Driver/Src/stm32h7xx_hal_rtc.c:0:2
	movs	r0, #2
.Ltmp140:
	.loc	5 908 2                         @ libraries/STM32H7xx_HAL/STM32H7xx_HAL_Driver/Src/stm32h7xx_hal_rtc.c:908:2
	strb.w	r0, [sp, #31]
	b	.LBB10_32
.Ltmp141:
.LBB10_3:
	.loc	5 908 2                         @ libraries/STM32H7xx_HAL/STM32H7xx_HAL_Driver/Src/stm32h7xx_hal_rtc.c:908:2
	ldr	r1, [sp, #24]
	movs	r0, #1
	strb.w	r0, [r1, #32]
	b	.LBB10_4
.Ltmp142:
.LBB10_4:
	.loc	5 908 2                         @ libraries/STM32H7xx_HAL/STM32H7xx_HAL_Driver/Src/stm32h7xx_hal_rtc.c:908:2
	b	.LBB10_5
.Ltmp143:
.LBB10_5:
	.loc	5 910 3 is_stmt 1               @ libraries/STM32H7xx_HAL/STM32H7xx_HAL_Driver/Src/stm32h7xx_hal_rtc.c:910:3
	ldr	r1, [sp, #24]
	movs	r0, #2
	.loc	5 910 15 is_stmt 0              @ libraries/STM32H7xx_HAL/STM32H7xx_HAL_Driver/Src/stm32h7xx_hal_rtc.c:910:15
	strb.w	r0, [r1, #33]
.Ltmp144:
	.loc	5 912 7 is_stmt 1               @ libraries/STM32H7xx_HAL/STM32H7xx_HAL_Driver/Src/stm32h7xx_hal_rtc.c:912:7
	ldr	r0, [sp, #16]
	.loc	5 912 33 is_stmt 0              @ libraries/STM32H7xx_HAL/STM32H7xx_HAL_Driver/Src/stm32h7xx_hal_rtc.c:912:33
	cbnz	r0, .LBB10_8
	b	.LBB10_6
.LBB10_6:
	.loc	5 912 38                        @ libraries/STM32H7xx_HAL/STM32H7xx_HAL_Driver/Src/stm32h7xx_hal_rtc.c:912:38
	ldr	r0, [sp, #20]
	ldrb	r0, [r0, #1]
.Ltmp145:
	.loc	5 912 6                         @ libraries/STM32H7xx_HAL/STM32H7xx_HAL_Driver/Src/stm32h7xx_hal_rtc.c:912:6
	lsls	r0, r0, #27
	cmp	r0, #0
	bpl	.LBB10_8
	b	.LBB10_7
.LBB10_7:
.Ltmp146:
	.loc	5 914 31 is_stmt 1              @ libraries/STM32H7xx_HAL/STM32H7xx_HAL_Driver/Src/stm32h7xx_hal_rtc.c:914:31
	ldr	r1, [sp, #20]
	ldrb	r0, [r1, #1]
	.loc	5 914 44 is_stmt 0              @ libraries/STM32H7xx_HAL/STM32H7xx_HAL_Driver/Src/stm32h7xx_hal_rtc.c:914:44
	and	r0, r0, #239
	.loc	5 914 65                        @ libraries/STM32H7xx_HAL/STM32H7xx_HAL_Driver/Src/stm32h7xx_hal_rtc.c:914:65
	adds	r0, #10
	.loc	5 914 18                        @ libraries/STM32H7xx_HAL/STM32H7xx_HAL_Driver/Src/stm32h7xx_hal_rtc.c:914:18
	strb	r0, [r1, #1]
	.loc	5 915 3 is_stmt 1               @ libraries/STM32H7xx_HAL/STM32H7xx_HAL_Driver/Src/stm32h7xx_hal_rtc.c:915:3
	b	.LBB10_8
.Ltmp147:
.LBB10_8:
	.loc	5 919 6                         @ libraries/STM32H7xx_HAL/STM32H7xx_HAL_Driver/Src/stm32h7xx_hal_rtc.c:919:6
	ldr	r0, [sp, #16]
.Ltmp148:
	.loc	5 919 6 is_stmt 0               @ libraries/STM32H7xx_HAL/STM32H7xx_HAL_Driver/Src/stm32h7xx_hal_rtc.c:919:6
	cbnz	r0, .LBB10_10
	b	.LBB10_9
.LBB10_9:
.Ltmp149:
	.loc	5 925 44 is_stmt 1              @ libraries/STM32H7xx_HAL/STM32H7xx_HAL_Driver/Src/stm32h7xx_hal_rtc.c:925:44
	ldr	r0, [sp, #20]
	.loc	5 925 51 is_stmt 0              @ libraries/STM32H7xx_HAL/STM32H7xx_HAL_Driver/Src/stm32h7xx_hal_rtc.c:925:51
	ldrb	r0, [r0, #3]
	.loc	5 925 29                        @ libraries/STM32H7xx_HAL/STM32H7xx_HAL_Driver/Src/stm32h7xx_hal_rtc.c:925:29
	bl	RTC_ByteToBcd2
	.loc	5 925 58                        @ libraries/STM32H7xx_HAL/STM32H7xx_HAL_Driver/Src/stm32h7xx_hal_rtc.c:925:58
	lsls	r0, r0, #16
	.loc	5 926 44 is_stmt 1              @ libraries/STM32H7xx_HAL/STM32H7xx_HAL_Driver/Src/stm32h7xx_hal_rtc.c:926:44
	str	r0, [sp, #4]                    @ 4-byte Spill
	ldr	r0, [sp, #20]
	.loc	5 926 51 is_stmt 0              @ libraries/STM32H7xx_HAL/STM32H7xx_HAL_Driver/Src/stm32h7xx_hal_rtc.c:926:51
	ldrb	r0, [r0, #1]
	.loc	5 926 29                        @ libraries/STM32H7xx_HAL/STM32H7xx_HAL_Driver/Src/stm32h7xx_hal_rtc.c:926:29
	bl	RTC_ByteToBcd2
	mov	r1, r0
	.loc	5 925 76 is_stmt 1              @ libraries/STM32H7xx_HAL/STM32H7xx_HAL_Driver/Src/stm32h7xx_hal_rtc.c:925:76
	ldr	r0, [sp, #4]                    @ 4-byte Reload
	orr.w	r0, r0, r1, lsl #8
	.loc	5 927 44                        @ libraries/STM32H7xx_HAL/STM32H7xx_HAL_Driver/Src/stm32h7xx_hal_rtc.c:927:44
	str	r0, [sp, #8]                    @ 4-byte Spill
	ldr	r0, [sp, #20]
	.loc	5 927 51 is_stmt 0              @ libraries/STM32H7xx_HAL/STM32H7xx_HAL_Driver/Src/stm32h7xx_hal_rtc.c:927:51
	ldrb	r0, [r0, #2]
	.loc	5 927 29                        @ libraries/STM32H7xx_HAL/STM32H7xx_HAL_Driver/Src/stm32h7xx_hal_rtc.c:927:29
	bl	RTC_ByteToBcd2
	mov	r1, r0
	.loc	5 926 76 is_stmt 1              @ libraries/STM32H7xx_HAL/STM32H7xx_HAL_Driver/Src/stm32h7xx_hal_rtc.c:926:76
	ldr	r0, [sp, #8]                    @ 4-byte Reload
	add	r0, r1
	.loc	5 928 29                        @ libraries/STM32H7xx_HAL/STM32H7xx_HAL_Driver/Src/stm32h7xx_hal_rtc.c:928:29
	ldr	r1, [sp, #20]
	.loc	5 928 36 is_stmt 0              @ libraries/STM32H7xx_HAL/STM32H7xx_HAL_Driver/Src/stm32h7xx_hal_rtc.c:928:36
	ldrb	r1, [r1]
	.loc	5 927 76 is_stmt 1              @ libraries/STM32H7xx_HAL/STM32H7xx_HAL_Driver/Src/stm32h7xx_hal_rtc.c:927:76
	orr.w	r0, r0, r1, lsl #13
	.loc	5 925 15                        @ libraries/STM32H7xx_HAL/STM32H7xx_HAL_Driver/Src/stm32h7xx_hal_rtc.c:925:15
	str	r0, [sp, #12]
	.loc	5 929 3                         @ libraries/STM32H7xx_HAL/STM32H7xx_HAL_Driver/Src/stm32h7xx_hal_rtc.c:929:3
	b	.LBB10_11
.Ltmp150:
.LBB10_10:
	.loc	5 936 31                        @ libraries/STM32H7xx_HAL/STM32H7xx_HAL_Driver/Src/stm32h7xx_hal_rtc.c:936:31
	ldr	r0, [sp, #20]
	.loc	5 939 38                        @ libraries/STM32H7xx_HAL/STM32H7xx_HAL_Driver/Src/stm32h7xx_hal_rtc.c:939:38
	ldrb	r1, [r0]
	.loc	5 937 38                        @ libraries/STM32H7xx_HAL/STM32H7xx_HAL_Driver/Src/stm32h7xx_hal_rtc.c:937:38
	ldrb	r3, [r0, #1]
	.loc	5 938 38                        @ libraries/STM32H7xx_HAL/STM32H7xx_HAL_Driver/Src/stm32h7xx_hal_rtc.c:938:38
	ldrb	r2, [r0, #2]
	.loc	5 936 38                        @ libraries/STM32H7xx_HAL/STM32H7xx_HAL_Driver/Src/stm32h7xx_hal_rtc.c:936:38
	ldrb	r0, [r0, #3]
	.loc	5 936 45 is_stmt 0              @ libraries/STM32H7xx_HAL/STM32H7xx_HAL_Driver/Src/stm32h7xx_hal_rtc.c:936:45
	lsls	r0, r0, #16
	.loc	5 936 63                        @ libraries/STM32H7xx_HAL/STM32H7xx_HAL_Driver/Src/stm32h7xx_hal_rtc.c:936:63
	orr.w	r0, r0, r3, lsl #8
	.loc	5 937 63 is_stmt 1              @ libraries/STM32H7xx_HAL/STM32H7xx_HAL_Driver/Src/stm32h7xx_hal_rtc.c:937:63
	add	r0, r2
	.loc	5 938 63                        @ libraries/STM32H7xx_HAL/STM32H7xx_HAL_Driver/Src/stm32h7xx_hal_rtc.c:938:63
	orr.w	r0, r0, r1, lsl #13
	.loc	5 936 16                        @ libraries/STM32H7xx_HAL/STM32H7xx_HAL_Driver/Src/stm32h7xx_hal_rtc.c:936:16
	str	r0, [sp, #12]
	b	.LBB10_11
.Ltmp151:
.LBB10_11:
	.loc	5 943 3                         @ libraries/STM32H7xx_HAL/STM32H7xx_HAL_Driver/Src/stm32h7xx_hal_rtc.c:943:3
	b	.LBB10_12
.LBB10_12:
.Ltmp152:
	.loc	5 943 3 is_stmt 0               @ libraries/STM32H7xx_HAL/STM32H7xx_HAL_Driver/Src/stm32h7xx_hal_rtc.c:943:3
	ldr	r0, [sp, #24]
	ldr	r1, [r0]
	movs	r0, #202
	str	r0, [r1, #36]
	ldr	r0, [sp, #24]
	ldr	r1, [r0]
	movs	r0, #83
	str	r0, [r1, #36]
	b	.LBB10_13
.Ltmp153:
.LBB10_13:
	.loc	5 946 24 is_stmt 1              @ libraries/STM32H7xx_HAL/STM32H7xx_HAL_Driver/Src/stm32h7xx_hal_rtc.c:946:24
	ldr	r0, [sp, #24]
	.loc	5 946 6 is_stmt 0               @ libraries/STM32H7xx_HAL/STM32H7xx_HAL_Driver/Src/stm32h7xx_hal_rtc.c:946:6
	bl	RTC_EnterInitMode
.Ltmp154:
	.loc	5 946 6                         @ libraries/STM32H7xx_HAL/STM32H7xx_HAL_Driver/Src/stm32h7xx_hal_rtc.c:946:6
	cbz	r0, .LBB10_19
	b	.LBB10_14
.LBB10_14:
.Ltmp155:
	.loc	5 949 5 is_stmt 1               @ libraries/STM32H7xx_HAL/STM32H7xx_HAL_Driver/Src/stm32h7xx_hal_rtc.c:949:5
	b	.LBB10_15
.LBB10_15:
.Ltmp156:
	.loc	5 949 5 is_stmt 0               @ libraries/STM32H7xx_HAL/STM32H7xx_HAL_Driver/Src/stm32h7xx_hal_rtc.c:949:5
	ldr	r0, [sp, #24]
	ldr	r1, [r0]
	movs	r0, #255
	str	r0, [r1, #36]
	b	.LBB10_16
.Ltmp157:
.LBB10_16:
	.loc	5 952 5 is_stmt 1               @ libraries/STM32H7xx_HAL/STM32H7xx_HAL_Driver/Src/stm32h7xx_hal_rtc.c:952:5
	ldr	r1, [sp, #24]
	movs	r0, #4
	.loc	5 952 17 is_stmt 0              @ libraries/STM32H7xx_HAL/STM32H7xx_HAL_Driver/Src/stm32h7xx_hal_rtc.c:952:17
	strb.w	r0, [r1, #33]
	.loc	5 955 5 is_stmt 1               @ libraries/STM32H7xx_HAL/STM32H7xx_HAL_Driver/Src/stm32h7xx_hal_rtc.c:955:5
	b	.LBB10_17
.LBB10_17:
.Ltmp158:
	.loc	5 955 5 is_stmt 0               @ libraries/STM32H7xx_HAL/STM32H7xx_HAL_Driver/Src/stm32h7xx_hal_rtc.c:955:5
	ldr	r1, [sp, #24]
	movs	r0, #0
	strb.w	r0, [r1, #32]
	b	.LBB10_18
.Ltmp159:
.LBB10_18:
	.loc	5 0 5                           @ libraries/STM32H7xx_HAL/STM32H7xx_HAL_Driver/Src/stm32h7xx_hal_rtc.c:0:5
	movs	r0, #1
	.loc	5 957 5 is_stmt 1               @ libraries/STM32H7xx_HAL/STM32H7xx_HAL_Driver/Src/stm32h7xx_hal_rtc.c:957:5
	strb.w	r0, [sp, #31]
	b	.LBB10_32
.Ltmp160:
.LBB10_19:
	.loc	5 962 37                        @ libraries/STM32H7xx_HAL/STM32H7xx_HAL_Driver/Src/stm32h7xx_hal_rtc.c:962:37
	ldr	r0, [sp, #12]
	movw	r1, #65343
	movt	r1, #255
	.loc	5 962 48 is_stmt 0              @ libraries/STM32H7xx_HAL/STM32H7xx_HAL_Driver/Src/stm32h7xx_hal_rtc.c:962:48
	ands	r0, r1
	.loc	5 962 5                         @ libraries/STM32H7xx_HAL/STM32H7xx_HAL_Driver/Src/stm32h7xx_hal_rtc.c:962:5
	ldr	r1, [sp, #24]
	.loc	5 962 11                        @ libraries/STM32H7xx_HAL/STM32H7xx_HAL_Driver/Src/stm32h7xx_hal_rtc.c:962:11
	ldr	r1, [r1]
	.loc	5 962 24                        @ libraries/STM32H7xx_HAL/STM32H7xx_HAL_Driver/Src/stm32h7xx_hal_rtc.c:962:24
	str	r0, [r1, #4]
	.loc	5 965 5 is_stmt 1               @ libraries/STM32H7xx_HAL/STM32H7xx_HAL_Driver/Src/stm32h7xx_hal_rtc.c:965:5
	ldr	r0, [sp, #24]
	.loc	5 965 11 is_stmt 0              @ libraries/STM32H7xx_HAL/STM32H7xx_HAL_Driver/Src/stm32h7xx_hal_rtc.c:965:11
	ldr	r1, [r0]
	.loc	5 965 25                        @ libraries/STM32H7xx_HAL/STM32H7xx_HAL_Driver/Src/stm32h7xx_hal_rtc.c:965:25
	ldr	r0, [r1, #12]
	bic	r0, r0, #128
	str	r0, [r1, #12]
.Ltmp161:
	.loc	5 968 9 is_stmt 1               @ libraries/STM32H7xx_HAL/STM32H7xx_HAL_Driver/Src/stm32h7xx_hal_rtc.c:968:9
	ldr	r0, [sp, #24]
	.loc	5 968 15 is_stmt 0              @ libraries/STM32H7xx_HAL/STM32H7xx_HAL_Driver/Src/stm32h7xx_hal_rtc.c:968:15
	ldr	r0, [r0]
	.loc	5 968 25                        @ libraries/STM32H7xx_HAL/STM32H7xx_HAL_Driver/Src/stm32h7xx_hal_rtc.c:968:25
	ldr	r0, [r0, #8]
.Ltmp162:
	.loc	5 968 8                         @ libraries/STM32H7xx_HAL/STM32H7xx_HAL_Driver/Src/stm32h7xx_hal_rtc.c:968:8
	lsls	r0, r0, #26
	cmp	r0, #0
	bmi	.LBB10_27
	b	.LBB10_20
.LBB10_20:
.Ltmp163:
	.loc	5 970 33 is_stmt 1              @ libraries/STM32H7xx_HAL/STM32H7xx_HAL_Driver/Src/stm32h7xx_hal_rtc.c:970:33
	ldr	r0, [sp, #24]
	.loc	5 970 10 is_stmt 0              @ libraries/STM32H7xx_HAL/STM32H7xx_HAL_Driver/Src/stm32h7xx_hal_rtc.c:970:10
	bl	HAL_RTC_WaitForSynchro
.Ltmp164:
	.loc	5 970 10                        @ libraries/STM32H7xx_HAL/STM32H7xx_HAL_Driver/Src/stm32h7xx_hal_rtc.c:970:10
	cbz	r0, .LBB10_26
	b	.LBB10_21
.LBB10_21:
.Ltmp165:
	.loc	5 973 9 is_stmt 1               @ libraries/STM32H7xx_HAL/STM32H7xx_HAL_Driver/Src/stm32h7xx_hal_rtc.c:973:9
	b	.LBB10_22
.LBB10_22:
.Ltmp166:
	.loc	5 973 9 is_stmt 0               @ libraries/STM32H7xx_HAL/STM32H7xx_HAL_Driver/Src/stm32h7xx_hal_rtc.c:973:9
	ldr	r0, [sp, #24]
	ldr	r1, [r0]
	movs	r0, #255
	str	r0, [r1, #36]
	b	.LBB10_23
.Ltmp167:
.LBB10_23:
	.loc	5 975 9 is_stmt 1               @ libraries/STM32H7xx_HAL/STM32H7xx_HAL_Driver/Src/stm32h7xx_hal_rtc.c:975:9
	ldr	r1, [sp, #24]
	movs	r0, #4
	.loc	5 975 21 is_stmt 0              @ libraries/STM32H7xx_HAL/STM32H7xx_HAL_Driver/Src/stm32h7xx_hal_rtc.c:975:21
	strb.w	r0, [r1, #33]
	.loc	5 978 9 is_stmt 1               @ libraries/STM32H7xx_HAL/STM32H7xx_HAL_Driver/Src/stm32h7xx_hal_rtc.c:978:9
	b	.LBB10_24
.LBB10_24:
.Ltmp168:
	.loc	5 978 9 is_stmt 0               @ libraries/STM32H7xx_HAL/STM32H7xx_HAL_Driver/Src/stm32h7xx_hal_rtc.c:978:9
	ldr	r1, [sp, #24]
	movs	r0, #0
	strb.w	r0, [r1, #32]
	b	.LBB10_25
.Ltmp169:
.LBB10_25:
	.loc	5 0 9                           @ libraries/STM32H7xx_HAL/STM32H7xx_HAL_Driver/Src/stm32h7xx_hal_rtc.c:0:9
	movs	r0, #1
	.loc	5 980 9 is_stmt 1               @ libraries/STM32H7xx_HAL/STM32H7xx_HAL_Driver/Src/stm32h7xx_hal_rtc.c:980:9
	strb.w	r0, [sp, #31]
	b	.LBB10_32
.Ltmp170:
.LBB10_26:
	.loc	5 982 5                         @ libraries/STM32H7xx_HAL/STM32H7xx_HAL_Driver/Src/stm32h7xx_hal_rtc.c:982:5
	b	.LBB10_27
.Ltmp171:
.LBB10_27:
	.loc	5 985 5                         @ libraries/STM32H7xx_HAL/STM32H7xx_HAL_Driver/Src/stm32h7xx_hal_rtc.c:985:5
	b	.LBB10_28
.LBB10_28:
.Ltmp172:
	.loc	5 985 5 is_stmt 0               @ libraries/STM32H7xx_HAL/STM32H7xx_HAL_Driver/Src/stm32h7xx_hal_rtc.c:985:5
	ldr	r0, [sp, #24]
	ldr	r1, [r0]
	movs	r0, #255
	str	r0, [r1, #36]
	b	.LBB10_29
.Ltmp173:
.LBB10_29:
	.loc	5 987 5 is_stmt 1               @ libraries/STM32H7xx_HAL/STM32H7xx_HAL_Driver/Src/stm32h7xx_hal_rtc.c:987:5
	ldr	r1, [sp, #24]
	movs	r0, #1
	.loc	5 987 17 is_stmt 0              @ libraries/STM32H7xx_HAL/STM32H7xx_HAL_Driver/Src/stm32h7xx_hal_rtc.c:987:17
	strb.w	r0, [r1, #33]
	.loc	5 990 5 is_stmt 1               @ libraries/STM32H7xx_HAL/STM32H7xx_HAL_Driver/Src/stm32h7xx_hal_rtc.c:990:5
	b	.LBB10_30
.LBB10_30:
.Ltmp174:
	.loc	5 990 5 is_stmt 0               @ libraries/STM32H7xx_HAL/STM32H7xx_HAL_Driver/Src/stm32h7xx_hal_rtc.c:990:5
	ldr	r1, [sp, #24]
	movs	r0, #0
	strb.w	r0, [r1, #32]
	b	.LBB10_31
.Ltmp175:
.LBB10_31:
	.loc	5 0 5                           @ libraries/STM32H7xx_HAL/STM32H7xx_HAL_Driver/Src/stm32h7xx_hal_rtc.c:0:5
	movs	r0, #0
	.loc	5 992 5 is_stmt 1               @ libraries/STM32H7xx_HAL/STM32H7xx_HAL_Driver/Src/stm32h7xx_hal_rtc.c:992:5
	strb.w	r0, [sp, #31]
	b	.LBB10_32
.Ltmp176:
.LBB10_32:
	.loc	5 994 1                         @ libraries/STM32H7xx_HAL/STM32H7xx_HAL_Driver/Src/stm32h7xx_hal_rtc.c:994:1
	ldrb.w	r0, [sp, #31]
	add	sp, #32
	pop	{r7, pc}
.Ltmp177:
.Lfunc_end10:
	.size	HAL_RTC_SetDate, .Lfunc_end10-HAL_RTC_SetDate
	.cfi_endproc
	.cantunwind
	.fnend
                                        @ -- End function
	.section	.text.HAL_RTC_GetDate,"ax",%progbits
	.hidden	HAL_RTC_GetDate                 @ -- Begin function HAL_RTC_GetDate
	.globl	HAL_RTC_GetDate
	.p2align	3
	.type	HAL_RTC_GetDate,%function
	.code	16                              @ @HAL_RTC_GetDate
	.thumb_func
HAL_RTC_GetDate:
.Lfunc_begin11:
	.loc	5 1010 0                        @ libraries/STM32H7xx_HAL/STM32H7xx_HAL_Driver/Src/stm32h7xx_hal_rtc.c:1010:0
	.fnstart
	.cfi_startproc
@ %bb.0:
	.save	{r7, lr}
	push	{r7, lr}
	.cfi_def_cfa_offset 8
	.cfi_offset lr, -4
	.cfi_offset r7, -8
	.pad	#16
	sub	sp, #16
	.cfi_def_cfa_offset 24
	str	r0, [sp, #12]
	str	r1, [sp, #8]
	str	r2, [sp, #4]
.Ltmp178:
	.loc	5 1017 27 prologue_end          @ libraries/STM32H7xx_HAL/STM32H7xx_HAL_Driver/Src/stm32h7xx_hal_rtc.c:1017:27
	ldr	r0, [sp, #12]
	.loc	5 1017 33 is_stmt 0             @ libraries/STM32H7xx_HAL/STM32H7xx_HAL_Driver/Src/stm32h7xx_hal_rtc.c:1017:33
	ldr	r0, [r0]
	.loc	5 1017 43                       @ libraries/STM32H7xx_HAL/STM32H7xx_HAL_Driver/Src/stm32h7xx_hal_rtc.c:1017:43
	ldr	r0, [r0, #4]
	movw	r1, #65343
	movt	r1, #255
	.loc	5 1017 46                       @ libraries/STM32H7xx_HAL/STM32H7xx_HAL_Driver/Src/stm32h7xx_hal_rtc.c:1017:46
	ands	r0, r1
	.loc	5 1017 14                       @ libraries/STM32H7xx_HAL/STM32H7xx_HAL_Driver/Src/stm32h7xx_hal_rtc.c:1017:14
	str	r0, [sp]
	.loc	5 1020 29 is_stmt 1             @ libraries/STM32H7xx_HAL/STM32H7xx_HAL_Driver/Src/stm32h7xx_hal_rtc.c:1020:29
	ldrh.w	r0, [sp, #2]
	.loc	5 1020 3 is_stmt 0              @ libraries/STM32H7xx_HAL/STM32H7xx_HAL_Driver/Src/stm32h7xx_hal_rtc.c:1020:3
	ldr	r1, [sp, #8]
	.loc	5 1020 16                       @ libraries/STM32H7xx_HAL/STM32H7xx_HAL_Driver/Src/stm32h7xx_hal_rtc.c:1020:16
	strb	r0, [r1, #3]
	.loc	5 1021 29 is_stmt 1             @ libraries/STM32H7xx_HAL/STM32H7xx_HAL_Driver/Src/stm32h7xx_hal_rtc.c:1021:29
	ldr	r0, [sp]
	.loc	5 1021 67 is_stmt 0             @ libraries/STM32H7xx_HAL/STM32H7xx_HAL_Driver/Src/stm32h7xx_hal_rtc.c:1021:67
	ubfx	r0, r0, #8, #5
	.loc	5 1021 3                        @ libraries/STM32H7xx_HAL/STM32H7xx_HAL_Driver/Src/stm32h7xx_hal_rtc.c:1021:3
	ldr	r1, [sp, #8]
	.loc	5 1021 16                       @ libraries/STM32H7xx_HAL/STM32H7xx_HAL_Driver/Src/stm32h7xx_hal_rtc.c:1021:16
	strb	r0, [r1, #1]
	.loc	5 1022 29 is_stmt 1             @ libraries/STM32H7xx_HAL/STM32H7xx_HAL_Driver/Src/stm32h7xx_hal_rtc.c:1022:29
	ldr	r0, [sp]
	.loc	5 1022 40 is_stmt 0             @ libraries/STM32H7xx_HAL/STM32H7xx_HAL_Driver/Src/stm32h7xx_hal_rtc.c:1022:40
	and	r0, r0, #63
	.loc	5 1022 3                        @ libraries/STM32H7xx_HAL/STM32H7xx_HAL_Driver/Src/stm32h7xx_hal_rtc.c:1022:3
	ldr	r1, [sp, #8]
	.loc	5 1022 16                       @ libraries/STM32H7xx_HAL/STM32H7xx_HAL_Driver/Src/stm32h7xx_hal_rtc.c:1022:16
	strb	r0, [r1, #2]
	.loc	5 1023 31 is_stmt 1             @ libraries/STM32H7xx_HAL/STM32H7xx_HAL_Driver/Src/stm32h7xx_hal_rtc.c:1023:31
	ldrh.w	r0, [sp]
	.loc	5 1023 58 is_stmt 0             @ libraries/STM32H7xx_HAL/STM32H7xx_HAL_Driver/Src/stm32h7xx_hal_rtc.c:1023:58
	lsrs	r0, r0, #13
	.loc	5 1023 3                        @ libraries/STM32H7xx_HAL/STM32H7xx_HAL_Driver/Src/stm32h7xx_hal_rtc.c:1023:3
	ldr	r1, [sp, #8]
	.loc	5 1023 18                       @ libraries/STM32H7xx_HAL/STM32H7xx_HAL_Driver/Src/stm32h7xx_hal_rtc.c:1023:18
	strb	r0, [r1]
.Ltmp179:
	.loc	5 1026 6 is_stmt 1              @ libraries/STM32H7xx_HAL/STM32H7xx_HAL_Driver/Src/stm32h7xx_hal_rtc.c:1026:6
	ldr	r0, [sp, #4]
.Ltmp180:
	.loc	5 1026 6 is_stmt 0              @ libraries/STM32H7xx_HAL/STM32H7xx_HAL_Driver/Src/stm32h7xx_hal_rtc.c:1026:6
	cbnz	r0, .LBB11_2
	b	.LBB11_1
.LBB11_1:
.Ltmp181:
	.loc	5 1029 43 is_stmt 1             @ libraries/STM32H7xx_HAL/STM32H7xx_HAL_Driver/Src/stm32h7xx_hal_rtc.c:1029:43
	ldr	r0, [sp, #8]
	.loc	5 1029 50 is_stmt 0             @ libraries/STM32H7xx_HAL/STM32H7xx_HAL_Driver/Src/stm32h7xx_hal_rtc.c:1029:50
	ldrb	r0, [r0, #3]
	.loc	5 1029 28                       @ libraries/STM32H7xx_HAL/STM32H7xx_HAL_Driver/Src/stm32h7xx_hal_rtc.c:1029:28
	bl	RTC_Bcd2ToByte
	.loc	5 1029 5                        @ libraries/STM32H7xx_HAL/STM32H7xx_HAL_Driver/Src/stm32h7xx_hal_rtc.c:1029:5
	ldr	r1, [sp, #8]
	.loc	5 1029 17                       @ libraries/STM32H7xx_HAL/STM32H7xx_HAL_Driver/Src/stm32h7xx_hal_rtc.c:1029:17
	strb	r0, [r1, #3]
	.loc	5 1030 44 is_stmt 1             @ libraries/STM32H7xx_HAL/STM32H7xx_HAL_Driver/Src/stm32h7xx_hal_rtc.c:1030:44
	ldr	r0, [sp, #8]
	.loc	5 1030 51 is_stmt 0             @ libraries/STM32H7xx_HAL/STM32H7xx_HAL_Driver/Src/stm32h7xx_hal_rtc.c:1030:51
	ldrb	r0, [r0, #1]
	.loc	5 1030 29                       @ libraries/STM32H7xx_HAL/STM32H7xx_HAL_Driver/Src/stm32h7xx_hal_rtc.c:1030:29
	bl	RTC_Bcd2ToByte
	.loc	5 1030 5                        @ libraries/STM32H7xx_HAL/STM32H7xx_HAL_Driver/Src/stm32h7xx_hal_rtc.c:1030:5
	ldr	r1, [sp, #8]
	.loc	5 1030 18                       @ libraries/STM32H7xx_HAL/STM32H7xx_HAL_Driver/Src/stm32h7xx_hal_rtc.c:1030:18
	strb	r0, [r1, #1]
	.loc	5 1031 43 is_stmt 1             @ libraries/STM32H7xx_HAL/STM32H7xx_HAL_Driver/Src/stm32h7xx_hal_rtc.c:1031:43
	ldr	r0, [sp, #8]
	.loc	5 1031 50 is_stmt 0             @ libraries/STM32H7xx_HAL/STM32H7xx_HAL_Driver/Src/stm32h7xx_hal_rtc.c:1031:50
	ldrb	r0, [r0, #2]
	.loc	5 1031 28                       @ libraries/STM32H7xx_HAL/STM32H7xx_HAL_Driver/Src/stm32h7xx_hal_rtc.c:1031:28
	bl	RTC_Bcd2ToByte
	.loc	5 1031 5                        @ libraries/STM32H7xx_HAL/STM32H7xx_HAL_Driver/Src/stm32h7xx_hal_rtc.c:1031:5
	ldr	r1, [sp, #8]
	.loc	5 1031 17                       @ libraries/STM32H7xx_HAL/STM32H7xx_HAL_Driver/Src/stm32h7xx_hal_rtc.c:1031:17
	strb	r0, [r1, #2]
	.loc	5 1032 3 is_stmt 1              @ libraries/STM32H7xx_HAL/STM32H7xx_HAL_Driver/Src/stm32h7xx_hal_rtc.c:1032:3
	b	.LBB11_2
.Ltmp182:
.LBB11_2:
	.loc	5 0 3 is_stmt 0                 @ libraries/STM32H7xx_HAL/STM32H7xx_HAL_Driver/Src/stm32h7xx_hal_rtc.c:0:3
	movs	r0, #0
	.loc	5 1033 3 is_stmt 1              @ libraries/STM32H7xx_HAL/STM32H7xx_HAL_Driver/Src/stm32h7xx_hal_rtc.c:1033:3
	add	sp, #16
	pop	{r7, pc}
.Ltmp183:
.Lfunc_end11:
	.size	HAL_RTC_GetDate, .Lfunc_end11-HAL_RTC_GetDate
	.cfi_endproc
	.cantunwind
	.fnend
                                        @ -- End function
	.section	.text.HAL_RTC_SetAlarm,"ax",%progbits
	.hidden	HAL_RTC_SetAlarm                @ -- Begin function HAL_RTC_SetAlarm
	.globl	HAL_RTC_SetAlarm
	.p2align	3
	.type	HAL_RTC_SetAlarm,%function
	.code	16                              @ @HAL_RTC_SetAlarm
	.thumb_func
HAL_RTC_SetAlarm:
.Lfunc_begin12:
	.loc	5 1064 0                        @ libraries/STM32H7xx_HAL/STM32H7xx_HAL_Driver/Src/stm32h7xx_hal_rtc.c:1064:0
	.fnstart
	.cfi_startproc
@ %bb.0:
	.save	{r7, lr}
	push	{r7, lr}
	.cfi_def_cfa_offset 8
	.cfi_offset lr, -4
	.cfi_offset r7, -8
	.pad	#40
	sub	sp, #40
	.cfi_def_cfa_offset 48
	str	r0, [sp, #32]
	str	r1, [sp, #28]
	str	r2, [sp, #24]
.Ltmp184:
	.loc	5 1078 3 prologue_end           @ libraries/STM32H7xx_HAL/STM32H7xx_HAL_Driver/Src/stm32h7xx_hal_rtc.c:1078:3
	b	.LBB12_1
.LBB12_1:
.Ltmp185:
	.loc	5 1078 3 is_stmt 0              @ libraries/STM32H7xx_HAL/STM32H7xx_HAL_Driver/Src/stm32h7xx_hal_rtc.c:1078:3
	ldr	r0, [sp, #32]
	ldrb.w	r0, [r0, #32]
.Ltmp186:
	.loc	5 1078 3                        @ libraries/STM32H7xx_HAL/STM32H7xx_HAL_Driver/Src/stm32h7xx_hal_rtc.c:1078:3
	cmp	r0, #1
	bne	.LBB12_3
	b	.LBB12_2
.LBB12_2:
	.loc	5 0 3                           @ libraries/STM32H7xx_HAL/STM32H7xx_HAL_Driver/Src/stm32h7xx_hal_rtc.c:0:3
	movs	r0, #2
.Ltmp187:
	.loc	5 1078 3                        @ libraries/STM32H7xx_HAL/STM32H7xx_HAL_Driver/Src/stm32h7xx_hal_rtc.c:1078:3
	strb.w	r0, [sp, #39]
	b	.LBB12_48
.Ltmp188:
.LBB12_3:
	.loc	5 1078 3                        @ libraries/STM32H7xx_HAL/STM32H7xx_HAL_Driver/Src/stm32h7xx_hal_rtc.c:1078:3
	ldr	r1, [sp, #32]
	movs	r0, #1
	strb.w	r0, [r1, #32]
	b	.LBB12_4
.Ltmp189:
.LBB12_4:
	.loc	5 1078 3                        @ libraries/STM32H7xx_HAL/STM32H7xx_HAL_Driver/Src/stm32h7xx_hal_rtc.c:1078:3
	b	.LBB12_5
.Ltmp190:
.LBB12_5:
	.loc	5 1080 3 is_stmt 1              @ libraries/STM32H7xx_HAL/STM32H7xx_HAL_Driver/Src/stm32h7xx_hal_rtc.c:1080:3
	ldr	r1, [sp, #32]
	movs	r0, #2
	.loc	5 1080 15 is_stmt 0             @ libraries/STM32H7xx_HAL/STM32H7xx_HAL_Driver/Src/stm32h7xx_hal_rtc.c:1080:15
	strb.w	r0, [r1, #33]
.Ltmp191:
	.loc	5 1082 6 is_stmt 1              @ libraries/STM32H7xx_HAL/STM32H7xx_HAL_Driver/Src/stm32h7xx_hal_rtc.c:1082:6
	ldr	r0, [sp, #24]
.Ltmp192:
	.loc	5 1082 6 is_stmt 0              @ libraries/STM32H7xx_HAL/STM32H7xx_HAL_Driver/Src/stm32h7xx_hal_rtc.c:1082:6
	cbnz	r0, .LBB12_13
	b	.LBB12_6
.LBB12_6:
.Ltmp193:
	.loc	5 1084 9 is_stmt 1              @ libraries/STM32H7xx_HAL/STM32H7xx_HAL_Driver/Src/stm32h7xx_hal_rtc.c:1084:9
	ldr	r0, [sp, #32]
	.loc	5 1084 15 is_stmt 0             @ libraries/STM32H7xx_HAL/STM32H7xx_HAL_Driver/Src/stm32h7xx_hal_rtc.c:1084:15
	ldr	r0, [r0]
	.loc	5 1084 25                       @ libraries/STM32H7xx_HAL/STM32H7xx_HAL_Driver/Src/stm32h7xx_hal_rtc.c:1084:25
	ldr	r0, [r0, #8]
.Ltmp194:
	.loc	5 1084 8                        @ libraries/STM32H7xx_HAL/STM32H7xx_HAL_Driver/Src/stm32h7xx_hal_rtc.c:1084:8
	lsls	r0, r0, #25
	cmp	r0, #0
	bpl	.LBB12_8
	b	.LBB12_7
.LBB12_7:
.Ltmp195:
	.loc	5 1088 5 is_stmt 1              @ libraries/STM32H7xx_HAL/STM32H7xx_HAL_Driver/Src/stm32h7xx_hal_rtc.c:1088:5
	b	.LBB12_9
.Ltmp196:
.LBB12_8:
	.loc	5 1091 7                        @ libraries/STM32H7xx_HAL/STM32H7xx_HAL_Driver/Src/stm32h7xx_hal_rtc.c:1091:7
	ldr	r1, [sp, #28]
	movs	r0, #0
	.loc	5 1091 36 is_stmt 0             @ libraries/STM32H7xx_HAL/STM32H7xx_HAL_Driver/Src/stm32h7xx_hal_rtc.c:1091:36
	strb	r0, [r1, #3]
	b	.LBB12_9
.Ltmp197:
.LBB12_9:
	.loc	5 1097 8 is_stmt 1              @ libraries/STM32H7xx_HAL/STM32H7xx_HAL_Driver/Src/stm32h7xx_hal_rtc.c:1097:8
	ldr	r0, [sp, #28]
	.loc	5 1097 16 is_stmt 0             @ libraries/STM32H7xx_HAL/STM32H7xx_HAL_Driver/Src/stm32h7xx_hal_rtc.c:1097:16
	ldr	r0, [r0, #28]
.Ltmp198:
	.loc	5 1097 8                        @ libraries/STM32H7xx_HAL/STM32H7xx_HAL_Driver/Src/stm32h7xx_hal_rtc.c:1097:8
	cbnz	r0, .LBB12_11
	b	.LBB12_10
.LBB12_10:
.Ltmp199:
	.loc	5 1100 5 is_stmt 1              @ libraries/STM32H7xx_HAL/STM32H7xx_HAL_Driver/Src/stm32h7xx_hal_rtc.c:1100:5
	b	.LBB12_12
.Ltmp200:
.LBB12_11:
	.loc	5 0 5 is_stmt 0                 @ libraries/STM32H7xx_HAL/STM32H7xx_HAL_Driver/Src/stm32h7xx_hal_rtc.c:0:5
	b	.LBB12_12
.LBB12_12:
	.loc	5 1106 41 is_stmt 1             @ libraries/STM32H7xx_HAL/STM32H7xx_HAL_Driver/Src/stm32h7xx_hal_rtc.c:1106:41
	ldr	r0, [sp, #28]
	.loc	5 1106 59 is_stmt 0             @ libraries/STM32H7xx_HAL/STM32H7xx_HAL_Driver/Src/stm32h7xx_hal_rtc.c:1106:59
	ldrb	r0, [r0]
	.loc	5 1106 26                       @ libraries/STM32H7xx_HAL/STM32H7xx_HAL_Driver/Src/stm32h7xx_hal_rtc.c:1106:26
	bl	RTC_ByteToBcd2
	.loc	5 1106 68                       @ libraries/STM32H7xx_HAL/STM32H7xx_HAL_Driver/Src/stm32h7xx_hal_rtc.c:1106:68
	lsls	r0, r0, #16
	.loc	5 1107 41 is_stmt 1             @ libraries/STM32H7xx_HAL/STM32H7xx_HAL_Driver/Src/stm32h7xx_hal_rtc.c:1107:41
	str	r0, [sp]                        @ 4-byte Spill
	ldr	r0, [sp, #28]
	.loc	5 1107 59 is_stmt 0             @ libraries/STM32H7xx_HAL/STM32H7xx_HAL_Driver/Src/stm32h7xx_hal_rtc.c:1107:59
	ldrb	r0, [r0, #1]
	.loc	5 1107 26                       @ libraries/STM32H7xx_HAL/STM32H7xx_HAL_Driver/Src/stm32h7xx_hal_rtc.c:1107:26
	bl	RTC_ByteToBcd2
	mov	r1, r0
	.loc	5 1106 91 is_stmt 1             @ libraries/STM32H7xx_HAL/STM32H7xx_HAL_Driver/Src/stm32h7xx_hal_rtc.c:1106:91
	ldr	r0, [sp]                        @ 4-byte Reload
	orr.w	r0, r0, r1, lsl #8
	.loc	5 1108 41                       @ libraries/STM32H7xx_HAL/STM32H7xx_HAL_Driver/Src/stm32h7xx_hal_rtc.c:1108:41
	str	r0, [sp, #4]                    @ 4-byte Spill
	ldr	r0, [sp, #28]
	.loc	5 1108 59 is_stmt 0             @ libraries/STM32H7xx_HAL/STM32H7xx_HAL_Driver/Src/stm32h7xx_hal_rtc.c:1108:59
	ldrb	r0, [r0, #2]
	.loc	5 1108 26                       @ libraries/STM32H7xx_HAL/STM32H7xx_HAL_Driver/Src/stm32h7xx_hal_rtc.c:1108:26
	bl	RTC_ByteToBcd2
	mov	r1, r0
	.loc	5 1107 91 is_stmt 1             @ libraries/STM32H7xx_HAL/STM32H7xx_HAL_Driver/Src/stm32h7xx_hal_rtc.c:1107:91
	ldr	r0, [sp, #4]                    @ 4-byte Reload
	add	r1, r0
	.loc	5 1109 27                       @ libraries/STM32H7xx_HAL/STM32H7xx_HAL_Driver/Src/stm32h7xx_hal_rtc.c:1109:27
	ldr	r0, [sp, #28]
	.loc	5 1109 45 is_stmt 0             @ libraries/STM32H7xx_HAL/STM32H7xx_HAL_Driver/Src/stm32h7xx_hal_rtc.c:1109:45
	ldrb	r2, [r0, #3]
	.loc	5 1110 49 is_stmt 1             @ libraries/STM32H7xx_HAL/STM32H7xx_HAL_Driver/Src/stm32h7xx_hal_rtc.c:1110:49
	ldrb.w	r0, [r0, #32]
	.loc	5 1108 91                       @ libraries/STM32H7xx_HAL/STM32H7xx_HAL_Driver/Src/stm32h7xx_hal_rtc.c:1108:91
	orr.w	r1, r1, r2, lsl #22
	.loc	5 1110 26                       @ libraries/STM32H7xx_HAL/STM32H7xx_HAL_Driver/Src/stm32h7xx_hal_rtc.c:1110:26
	str	r1, [sp, #8]                    @ 4-byte Spill
	bl	RTC_ByteToBcd2
	mov	r1, r0
	.loc	5 1109 91                       @ libraries/STM32H7xx_HAL/STM32H7xx_HAL_Driver/Src/stm32h7xx_hal_rtc.c:1109:91
	ldr	r0, [sp, #8]                    @ 4-byte Reload
	orr.w	r0, r0, r1, lsl #24
	.loc	5 1111 26                       @ libraries/STM32H7xx_HAL/STM32H7xx_HAL_Driver/Src/stm32h7xx_hal_rtc.c:1111:26
	ldr	r2, [sp, #28]
	.loc	5 1112 34                       @ libraries/STM32H7xx_HAL/STM32H7xx_HAL_Driver/Src/stm32h7xx_hal_rtc.c:1112:34
	ldr	r1, [r2, #20]
	.loc	5 1111 34                       @ libraries/STM32H7xx_HAL/STM32H7xx_HAL_Driver/Src/stm32h7xx_hal_rtc.c:1111:34
	ldr	r2, [r2, #28]
	.loc	5 1110 91                       @ libraries/STM32H7xx_HAL/STM32H7xx_HAL_Driver/Src/stm32h7xx_hal_rtc.c:1110:91
	orrs	r0, r2
	.loc	5 1111 91                       @ libraries/STM32H7xx_HAL/STM32H7xx_HAL_Driver/Src/stm32h7xx_hal_rtc.c:1111:91
	orrs	r0, r1
	.loc	5 1106 12                       @ libraries/STM32H7xx_HAL/STM32H7xx_HAL_Driver/Src/stm32h7xx_hal_rtc.c:1106:12
	str	r0, [sp, #16]
	.loc	5 1113 3                        @ libraries/STM32H7xx_HAL/STM32H7xx_HAL_Driver/Src/stm32h7xx_hal_rtc.c:1113:3
	b	.LBB12_20
.Ltmp201:
.LBB12_13:
	.loc	5 1116 9                        @ libraries/STM32H7xx_HAL/STM32H7xx_HAL_Driver/Src/stm32h7xx_hal_rtc.c:1116:9
	ldr	r0, [sp, #32]
	.loc	5 1116 15 is_stmt 0             @ libraries/STM32H7xx_HAL/STM32H7xx_HAL_Driver/Src/stm32h7xx_hal_rtc.c:1116:15
	ldr	r0, [r0]
	.loc	5 1116 25                       @ libraries/STM32H7xx_HAL/STM32H7xx_HAL_Driver/Src/stm32h7xx_hal_rtc.c:1116:25
	ldr	r0, [r0, #8]
.Ltmp202:
	.loc	5 1116 8                        @ libraries/STM32H7xx_HAL/STM32H7xx_HAL_Driver/Src/stm32h7xx_hal_rtc.c:1116:8
	lsls	r0, r0, #25
	cmp	r0, #0
	bpl	.LBB12_15
	b	.LBB12_14
.LBB12_14:
.Ltmp203:
	.loc	5 1120 5 is_stmt 1              @ libraries/STM32H7xx_HAL/STM32H7xx_HAL_Driver/Src/stm32h7xx_hal_rtc.c:1120:5
	b	.LBB12_16
.Ltmp204:
.LBB12_15:
	.loc	5 1123 7                        @ libraries/STM32H7xx_HAL/STM32H7xx_HAL_Driver/Src/stm32h7xx_hal_rtc.c:1123:7
	ldr	r1, [sp, #28]
	movs	r0, #0
	.loc	5 1123 36 is_stmt 0             @ libraries/STM32H7xx_HAL/STM32H7xx_HAL_Driver/Src/stm32h7xx_hal_rtc.c:1123:36
	strb	r0, [r1, #3]
	b	.LBB12_16
.Ltmp205:
.LBB12_16:
	.loc	5 1130 8 is_stmt 1              @ libraries/STM32H7xx_HAL/STM32H7xx_HAL_Driver/Src/stm32h7xx_hal_rtc.c:1130:8
	ldr	r0, [sp, #28]
	.loc	5 1130 16 is_stmt 0             @ libraries/STM32H7xx_HAL/STM32H7xx_HAL_Driver/Src/stm32h7xx_hal_rtc.c:1130:16
	ldr	r0, [r0, #28]
.Ltmp206:
	.loc	5 1130 8                        @ libraries/STM32H7xx_HAL/STM32H7xx_HAL_Driver/Src/stm32h7xx_hal_rtc.c:1130:8
	cbnz	r0, .LBB12_18
	b	.LBB12_17
.LBB12_17:
.Ltmp207:
	.loc	5 1133 5 is_stmt 1              @ libraries/STM32H7xx_HAL/STM32H7xx_HAL_Driver/Src/stm32h7xx_hal_rtc.c:1133:5
	b	.LBB12_19
.Ltmp208:
.LBB12_18:
	.loc	5 0 5 is_stmt 0                 @ libraries/STM32H7xx_HAL/STM32H7xx_HAL_Driver/Src/stm32h7xx_hal_rtc.c:0:5
	b	.LBB12_19
.LBB12_19:
	.loc	5 1139 27 is_stmt 1             @ libraries/STM32H7xx_HAL/STM32H7xx_HAL_Driver/Src/stm32h7xx_hal_rtc.c:1139:27
	ldr	r1, [sp, #28]
	.loc	5 1139 45 is_stmt 0             @ libraries/STM32H7xx_HAL/STM32H7xx_HAL_Driver/Src/stm32h7xx_hal_rtc.c:1139:45
	ldrb	r0, [r1]
	.loc	5 1140 45 is_stmt 1             @ libraries/STM32H7xx_HAL/STM32H7xx_HAL_Driver/Src/stm32h7xx_hal_rtc.c:1140:45
	ldrb.w	r12, [r1, #1]
	.loc	5 1141 45                       @ libraries/STM32H7xx_HAL/STM32H7xx_HAL_Driver/Src/stm32h7xx_hal_rtc.c:1141:45
	ldrb	r3, [r1, #2]
	.loc	5 1142 45                       @ libraries/STM32H7xx_HAL/STM32H7xx_HAL_Driver/Src/stm32h7xx_hal_rtc.c:1142:45
	ldrb	r2, [r1, #3]
	.loc	5 1139 54                       @ libraries/STM32H7xx_HAL/STM32H7xx_HAL_Driver/Src/stm32h7xx_hal_rtc.c:1139:54
	lsls	r0, r0, #16
	.loc	5 1139 77 is_stmt 0             @ libraries/STM32H7xx_HAL/STM32H7xx_HAL_Driver/Src/stm32h7xx_hal_rtc.c:1139:77
	orr.w	r0, r0, r12, lsl #8
	.loc	5 1140 77 is_stmt 1             @ libraries/STM32H7xx_HAL/STM32H7xx_HAL_Driver/Src/stm32h7xx_hal_rtc.c:1140:77
	add	r0, r3
	.loc	5 1141 77                       @ libraries/STM32H7xx_HAL/STM32H7xx_HAL_Driver/Src/stm32h7xx_hal_rtc.c:1141:77
	orr.w	r0, r0, r2, lsl #22
	.loc	5 1143 16                       @ libraries/STM32H7xx_HAL/STM32H7xx_HAL_Driver/Src/stm32h7xx_hal_rtc.c:1143:16
	ldrb.w	r2, [r1, #32]
	.loc	5 1142 77                       @ libraries/STM32H7xx_HAL/STM32H7xx_HAL_Driver/Src/stm32h7xx_hal_rtc.c:1142:77
	orr.w	r0, r0, r2, lsl #24
	.loc	5 1144 35                       @ libraries/STM32H7xx_HAL/STM32H7xx_HAL_Driver/Src/stm32h7xx_hal_rtc.c:1144:35
	ldr	r2, [r1, #28]
	.loc	5 1143 77                       @ libraries/STM32H7xx_HAL/STM32H7xx_HAL_Driver/Src/stm32h7xx_hal_rtc.c:1143:77
	orrs	r0, r2
	.loc	5 1145 35                       @ libraries/STM32H7xx_HAL/STM32H7xx_HAL_Driver/Src/stm32h7xx_hal_rtc.c:1145:35
	ldr	r1, [r1, #20]
	.loc	5 1144 77                       @ libraries/STM32H7xx_HAL/STM32H7xx_HAL_Driver/Src/stm32h7xx_hal_rtc.c:1144:77
	orrs	r0, r1
	.loc	5 1139 12                       @ libraries/STM32H7xx_HAL/STM32H7xx_HAL_Driver/Src/stm32h7xx_hal_rtc.c:1139:12
	str	r0, [sp, #16]
	b	.LBB12_20
.Ltmp209:
.LBB12_20:
	.loc	5 1149 43                       @ libraries/STM32H7xx_HAL/STM32H7xx_HAL_Driver/Src/stm32h7xx_hal_rtc.c:1149:43
	ldr	r1, [sp, #28]
	.loc	5 1149 61 is_stmt 0             @ libraries/STM32H7xx_HAL/STM32H7xx_HAL_Driver/Src/stm32h7xx_hal_rtc.c:1149:61
	ldr	r0, [r1, #4]
	.loc	5 1149 94                       @ libraries/STM32H7xx_HAL/STM32H7xx_HAL_Driver/Src/stm32h7xx_hal_rtc.c:1149:94
	ldr	r1, [r1, #24]
	.loc	5 1149 73                       @ libraries/STM32H7xx_HAL/STM32H7xx_HAL_Driver/Src/stm32h7xx_hal_rtc.c:1149:73
	orrs	r0, r1
	.loc	5 1149 19                       @ libraries/STM32H7xx_HAL/STM32H7xx_HAL_Driver/Src/stm32h7xx_hal_rtc.c:1149:19
	str	r0, [sp, #12]
	.loc	5 1152 3 is_stmt 1              @ libraries/STM32H7xx_HAL/STM32H7xx_HAL_Driver/Src/stm32h7xx_hal_rtc.c:1152:3
	b	.LBB12_21
.LBB12_21:
.Ltmp210:
	.loc	5 1152 3 is_stmt 0              @ libraries/STM32H7xx_HAL/STM32H7xx_HAL_Driver/Src/stm32h7xx_hal_rtc.c:1152:3
	ldr	r0, [sp, #32]
	ldr	r1, [r0]
	movs	r0, #202
	str	r0, [r1, #36]
	ldr	r0, [sp, #32]
	ldr	r1, [r0]
	movs	r0, #83
	str	r0, [r1, #36]
	b	.LBB12_22
.Ltmp211:
.LBB12_22:
	.loc	5 1155 6 is_stmt 1              @ libraries/STM32H7xx_HAL/STM32H7xx_HAL_Driver/Src/stm32h7xx_hal_rtc.c:1155:6
	ldr	r0, [sp, #28]
	.loc	5 1155 14 is_stmt 0             @ libraries/STM32H7xx_HAL/STM32H7xx_HAL_Driver/Src/stm32h7xx_hal_rtc.c:1155:14
	ldr	r0, [r0, #36]
.Ltmp212:
	.loc	5 1155 6                        @ libraries/STM32H7xx_HAL/STM32H7xx_HAL_Driver/Src/stm32h7xx_hal_rtc.c:1155:6
	cmp.w	r0, #256
	bne	.LBB12_33
	b	.LBB12_23
.LBB12_23:
.Ltmp213:
	.loc	5 1158 5 is_stmt 1              @ libraries/STM32H7xx_HAL/STM32H7xx_HAL_Driver/Src/stm32h7xx_hal_rtc.c:1158:5
	ldr	r0, [sp, #32]
	ldr	r1, [r0]
	ldr	r0, [r1, #8]
	bic	r0, r0, #256
	str	r0, [r1, #8]
	.loc	5 1161 5                        @ libraries/STM32H7xx_HAL/STM32H7xx_HAL_Driver/Src/stm32h7xx_hal_rtc.c:1161:5
	ldr	r0, [sp, #32]
	ldr	r1, [r0]
	ldr	r0, [r1, #8]
	bic	r0, r0, #4096
	str	r0, [r1, #8]
	.loc	5 1163 17                       @ libraries/STM32H7xx_HAL/STM32H7xx_HAL_Driver/Src/stm32h7xx_hal_rtc.c:1163:17
	bl	HAL_GetTick
	.loc	5 1163 15 is_stmt 0             @ libraries/STM32H7xx_HAL/STM32H7xx_HAL_Driver/Src/stm32h7xx_hal_rtc.c:1163:15
	str	r0, [sp, #20]
	.loc	5 1165 5 is_stmt 1              @ libraries/STM32H7xx_HAL/STM32H7xx_HAL_Driver/Src/stm32h7xx_hal_rtc.c:1165:5
	b	.LBB12_24
.LBB12_24:                              @ =>This Inner Loop Header: Depth=1
	.loc	5 1165 11 is_stmt 0             @ libraries/STM32H7xx_HAL/STM32H7xx_HAL_Driver/Src/stm32h7xx_hal_rtc.c:1165:11
	ldr	r0, [sp, #32]
	ldr	r0, [r0]
	ldr	r0, [r0, #12]
	.loc	5 1165 5                        @ libraries/STM32H7xx_HAL/STM32H7xx_HAL_Driver/Src/stm32h7xx_hal_rtc.c:1165:5
	lsls	r0, r0, #31
	cbnz	r0, .LBB12_32
	b	.LBB12_25
.LBB12_25:                              @   in Loop: Header=BB12_24 Depth=1
.Ltmp214:
	.loc	5 1167 11 is_stmt 1             @ libraries/STM32H7xx_HAL/STM32H7xx_HAL_Driver/Src/stm32h7xx_hal_rtc.c:1167:11
	bl	HAL_GetTick
	.loc	5 1167 27 is_stmt 0             @ libraries/STM32H7xx_HAL/STM32H7xx_HAL_Driver/Src/stm32h7xx_hal_rtc.c:1167:27
	ldr	r1, [sp, #20]
	.loc	5 1167 25                       @ libraries/STM32H7xx_HAL/STM32H7xx_HAL_Driver/Src/stm32h7xx_hal_rtc.c:1167:25
	subs	r0, r0, r1
.Ltmp215:
	.loc	5 1167 10                       @ libraries/STM32H7xx_HAL/STM32H7xx_HAL_Driver/Src/stm32h7xx_hal_rtc.c:1167:10
	cmp.w	r0, #1000
	bls	.LBB12_31
	b	.LBB12_26
.LBB12_26:
.Ltmp216:
	.loc	5 1170 9 is_stmt 1              @ libraries/STM32H7xx_HAL/STM32H7xx_HAL_Driver/Src/stm32h7xx_hal_rtc.c:1170:9
	b	.LBB12_27
.LBB12_27:
.Ltmp217:
	.loc	5 1170 9 is_stmt 0              @ libraries/STM32H7xx_HAL/STM32H7xx_HAL_Driver/Src/stm32h7xx_hal_rtc.c:1170:9
	ldr	r0, [sp, #32]
	ldr	r1, [r0]
	movs	r0, #255
	str	r0, [r1, #36]
	b	.LBB12_28
.Ltmp218:
.LBB12_28:
	.loc	5 1172 9 is_stmt 1              @ libraries/STM32H7xx_HAL/STM32H7xx_HAL_Driver/Src/stm32h7xx_hal_rtc.c:1172:9
	ldr	r1, [sp, #32]
	movs	r0, #3
	.loc	5 1172 21 is_stmt 0             @ libraries/STM32H7xx_HAL/STM32H7xx_HAL_Driver/Src/stm32h7xx_hal_rtc.c:1172:21
	strb.w	r0, [r1, #33]
	.loc	5 1175 9 is_stmt 1              @ libraries/STM32H7xx_HAL/STM32H7xx_HAL_Driver/Src/stm32h7xx_hal_rtc.c:1175:9
	b	.LBB12_29
.LBB12_29:
.Ltmp219:
	.loc	5 1175 9 is_stmt 0              @ libraries/STM32H7xx_HAL/STM32H7xx_HAL_Driver/Src/stm32h7xx_hal_rtc.c:1175:9
	ldr	r1, [sp, #32]
	movs	r0, #0
	strb.w	r0, [r1, #32]
	b	.LBB12_30
.Ltmp220:
.LBB12_30:
	.loc	5 0 9                           @ libraries/STM32H7xx_HAL/STM32H7xx_HAL_Driver/Src/stm32h7xx_hal_rtc.c:0:9
	movs	r0, #3
	.loc	5 1177 9 is_stmt 1              @ libraries/STM32H7xx_HAL/STM32H7xx_HAL_Driver/Src/stm32h7xx_hal_rtc.c:1177:9
	strb.w	r0, [sp, #39]
	b	.LBB12_48
.Ltmp221:
.LBB12_31:                              @   in Loop: Header=BB12_24 Depth=1
	.loc	5 1165 5                        @ libraries/STM32H7xx_HAL/STM32H7xx_HAL_Driver/Src/stm32h7xx_hal_rtc.c:1165:5
	b	.LBB12_24
.LBB12_32:
	.loc	5 1181 40                       @ libraries/STM32H7xx_HAL/STM32H7xx_HAL_Driver/Src/stm32h7xx_hal_rtc.c:1181:40
	ldr	r0, [sp, #16]
	.loc	5 1181 5 is_stmt 0              @ libraries/STM32H7xx_HAL/STM32H7xx_HAL_Driver/Src/stm32h7xx_hal_rtc.c:1181:5
	ldr	r1, [sp, #32]
	.loc	5 1181 11                       @ libraries/STM32H7xx_HAL/STM32H7xx_HAL_Driver/Src/stm32h7xx_hal_rtc.c:1181:11
	ldr	r1, [r1]
	.loc	5 1181 28                       @ libraries/STM32H7xx_HAL/STM32H7xx_HAL_Driver/Src/stm32h7xx_hal_rtc.c:1181:28
	str	r0, [r1, #28]
	.loc	5 1183 32 is_stmt 1             @ libraries/STM32H7xx_HAL/STM32H7xx_HAL_Driver/Src/stm32h7xx_hal_rtc.c:1183:32
	ldr	r0, [sp, #12]
	.loc	5 1183 5 is_stmt 0              @ libraries/STM32H7xx_HAL/STM32H7xx_HAL_Driver/Src/stm32h7xx_hal_rtc.c:1183:5
	ldr	r1, [sp, #32]
	.loc	5 1183 11                       @ libraries/STM32H7xx_HAL/STM32H7xx_HAL_Driver/Src/stm32h7xx_hal_rtc.c:1183:11
	ldr	r1, [r1]
	.loc	5 1183 30                       @ libraries/STM32H7xx_HAL/STM32H7xx_HAL_Driver/Src/stm32h7xx_hal_rtc.c:1183:30
	str	r0, [r1, #68]
	.loc	5 1185 5 is_stmt 1              @ libraries/STM32H7xx_HAL/STM32H7xx_HAL_Driver/Src/stm32h7xx_hal_rtc.c:1185:5
	ldr	r0, [sp, #32]
	ldr	r1, [r0]
	ldr	r0, [r1, #8]
	orr	r0, r0, #256
	str	r0, [r1, #8]
	.loc	5 1186 3                        @ libraries/STM32H7xx_HAL/STM32H7xx_HAL_Driver/Src/stm32h7xx_hal_rtc.c:1186:3
	b	.LBB12_43
.Ltmp222:
.LBB12_33:
	.loc	5 1190 5                        @ libraries/STM32H7xx_HAL/STM32H7xx_HAL_Driver/Src/stm32h7xx_hal_rtc.c:1190:5
	ldr	r0, [sp, #32]
	ldr	r1, [r0]
	ldr	r0, [r1, #8]
	bic	r0, r0, #512
	str	r0, [r1, #8]
	.loc	5 1193 5                        @ libraries/STM32H7xx_HAL/STM32H7xx_HAL_Driver/Src/stm32h7xx_hal_rtc.c:1193:5
	ldr	r0, [sp, #32]
	ldr	r1, [r0]
	ldr	r0, [r1, #8]
	bic	r0, r0, #8192
	str	r0, [r1, #8]
	.loc	5 1195 17                       @ libraries/STM32H7xx_HAL/STM32H7xx_HAL_Driver/Src/stm32h7xx_hal_rtc.c:1195:17
	bl	HAL_GetTick
	.loc	5 1195 15 is_stmt 0             @ libraries/STM32H7xx_HAL/STM32H7xx_HAL_Driver/Src/stm32h7xx_hal_rtc.c:1195:15
	str	r0, [sp, #20]
	.loc	5 1197 5 is_stmt 1              @ libraries/STM32H7xx_HAL/STM32H7xx_HAL_Driver/Src/stm32h7xx_hal_rtc.c:1197:5
	b	.LBB12_34
.LBB12_34:                              @ =>This Inner Loop Header: Depth=1
	.loc	5 1197 11 is_stmt 0             @ libraries/STM32H7xx_HAL/STM32H7xx_HAL_Driver/Src/stm32h7xx_hal_rtc.c:1197:11
	ldr	r0, [sp, #32]
	ldr	r0, [r0]
	ldr	r0, [r0, #12]
	and	r1, r0, #2
	movs	r0, #0
	.loc	5 1197 5                        @ libraries/STM32H7xx_HAL/STM32H7xx_HAL_Driver/Src/stm32h7xx_hal_rtc.c:1197:5
	cmp.w	r0, r1, lsr #1
	bne	.LBB12_42
	b	.LBB12_35
.LBB12_35:                              @   in Loop: Header=BB12_34 Depth=1
.Ltmp223:
	.loc	5 1199 11 is_stmt 1             @ libraries/STM32H7xx_HAL/STM32H7xx_HAL_Driver/Src/stm32h7xx_hal_rtc.c:1199:11
	bl	HAL_GetTick
	.loc	5 1199 27 is_stmt 0             @ libraries/STM32H7xx_HAL/STM32H7xx_HAL_Driver/Src/stm32h7xx_hal_rtc.c:1199:27
	ldr	r1, [sp, #20]
	.loc	5 1199 25                       @ libraries/STM32H7xx_HAL/STM32H7xx_HAL_Driver/Src/stm32h7xx_hal_rtc.c:1199:25
	subs	r0, r0, r1
.Ltmp224:
	.loc	5 1199 10                       @ libraries/STM32H7xx_HAL/STM32H7xx_HAL_Driver/Src/stm32h7xx_hal_rtc.c:1199:10
	cmp.w	r0, #1000
	bls	.LBB12_41
	b	.LBB12_36
.LBB12_36:
.Ltmp225:
	.loc	5 1202 9 is_stmt 1              @ libraries/STM32H7xx_HAL/STM32H7xx_HAL_Driver/Src/stm32h7xx_hal_rtc.c:1202:9
	b	.LBB12_37
.LBB12_37:
.Ltmp226:
	.loc	5 1202 9 is_stmt 0              @ libraries/STM32H7xx_HAL/STM32H7xx_HAL_Driver/Src/stm32h7xx_hal_rtc.c:1202:9
	ldr	r0, [sp, #32]
	ldr	r1, [r0]
	movs	r0, #255
	str	r0, [r1, #36]
	b	.LBB12_38
.Ltmp227:
.LBB12_38:
	.loc	5 1204 9 is_stmt 1              @ libraries/STM32H7xx_HAL/STM32H7xx_HAL_Driver/Src/stm32h7xx_hal_rtc.c:1204:9
	ldr	r1, [sp, #32]
	movs	r0, #3
	.loc	5 1204 21 is_stmt 0             @ libraries/STM32H7xx_HAL/STM32H7xx_HAL_Driver/Src/stm32h7xx_hal_rtc.c:1204:21
	strb.w	r0, [r1, #33]
	.loc	5 1207 9 is_stmt 1              @ libraries/STM32H7xx_HAL/STM32H7xx_HAL_Driver/Src/stm32h7xx_hal_rtc.c:1207:9
	b	.LBB12_39
.LBB12_39:
.Ltmp228:
	.loc	5 1207 9 is_stmt 0              @ libraries/STM32H7xx_HAL/STM32H7xx_HAL_Driver/Src/stm32h7xx_hal_rtc.c:1207:9
	ldr	r1, [sp, #32]
	movs	r0, #0
	strb.w	r0, [r1, #32]
	b	.LBB12_40
.Ltmp229:
.LBB12_40:
	.loc	5 0 9                           @ libraries/STM32H7xx_HAL/STM32H7xx_HAL_Driver/Src/stm32h7xx_hal_rtc.c:0:9
	movs	r0, #3
	.loc	5 1209 9 is_stmt 1              @ libraries/STM32H7xx_HAL/STM32H7xx_HAL_Driver/Src/stm32h7xx_hal_rtc.c:1209:9
	strb.w	r0, [sp, #39]
	b	.LBB12_48
.Ltmp230:
.LBB12_41:                              @   in Loop: Header=BB12_34 Depth=1
	.loc	5 1197 5                        @ libraries/STM32H7xx_HAL/STM32H7xx_HAL_Driver/Src/stm32h7xx_hal_rtc.c:1197:5
	b	.LBB12_34
.LBB12_42:
	.loc	5 1213 40                       @ libraries/STM32H7xx_HAL/STM32H7xx_HAL_Driver/Src/stm32h7xx_hal_rtc.c:1213:40
	ldr	r0, [sp, #16]
	.loc	5 1213 5 is_stmt 0              @ libraries/STM32H7xx_HAL/STM32H7xx_HAL_Driver/Src/stm32h7xx_hal_rtc.c:1213:5
	ldr	r1, [sp, #32]
	.loc	5 1213 11                       @ libraries/STM32H7xx_HAL/STM32H7xx_HAL_Driver/Src/stm32h7xx_hal_rtc.c:1213:11
	ldr	r1, [r1]
	.loc	5 1213 28                       @ libraries/STM32H7xx_HAL/STM32H7xx_HAL_Driver/Src/stm32h7xx_hal_rtc.c:1213:28
	str	r0, [r1, #32]
	.loc	5 1215 32 is_stmt 1             @ libraries/STM32H7xx_HAL/STM32H7xx_HAL_Driver/Src/stm32h7xx_hal_rtc.c:1215:32
	ldr	r0, [sp, #12]
	.loc	5 1215 5 is_stmt 0              @ libraries/STM32H7xx_HAL/STM32H7xx_HAL_Driver/Src/stm32h7xx_hal_rtc.c:1215:5
	ldr	r1, [sp, #32]
	.loc	5 1215 11                       @ libraries/STM32H7xx_HAL/STM32H7xx_HAL_Driver/Src/stm32h7xx_hal_rtc.c:1215:11
	ldr	r1, [r1]
	.loc	5 1215 30                       @ libraries/STM32H7xx_HAL/STM32H7xx_HAL_Driver/Src/stm32h7xx_hal_rtc.c:1215:30
	str	r0, [r1, #72]
	.loc	5 1217 5 is_stmt 1              @ libraries/STM32H7xx_HAL/STM32H7xx_HAL_Driver/Src/stm32h7xx_hal_rtc.c:1217:5
	ldr	r0, [sp, #32]
	ldr	r1, [r0]
	ldr	r0, [r1, #8]
	orr	r0, r0, #512
	str	r0, [r1, #8]
	b	.LBB12_43
.Ltmp231:
.LBB12_43:
	.loc	5 1221 3                        @ libraries/STM32H7xx_HAL/STM32H7xx_HAL_Driver/Src/stm32h7xx_hal_rtc.c:1221:3
	b	.LBB12_44
.LBB12_44:
.Ltmp232:
	.loc	5 1221 3 is_stmt 0              @ libraries/STM32H7xx_HAL/STM32H7xx_HAL_Driver/Src/stm32h7xx_hal_rtc.c:1221:3
	ldr	r0, [sp, #32]
	ldr	r1, [r0]
	movs	r0, #255
	str	r0, [r1, #36]
	b	.LBB12_45
.Ltmp233:
.LBB12_45:
	.loc	5 1224 3 is_stmt 1              @ libraries/STM32H7xx_HAL/STM32H7xx_HAL_Driver/Src/stm32h7xx_hal_rtc.c:1224:3
	ldr	r1, [sp, #32]
	movs	r0, #1
	.loc	5 1224 15 is_stmt 0             @ libraries/STM32H7xx_HAL/STM32H7xx_HAL_Driver/Src/stm32h7xx_hal_rtc.c:1224:15
	strb.w	r0, [r1, #33]
	.loc	5 1227 3 is_stmt 1              @ libraries/STM32H7xx_HAL/STM32H7xx_HAL_Driver/Src/stm32h7xx_hal_rtc.c:1227:3
	b	.LBB12_46
.LBB12_46:
.Ltmp234:
	.loc	5 1227 3 is_stmt 0              @ libraries/STM32H7xx_HAL/STM32H7xx_HAL_Driver/Src/stm32h7xx_hal_rtc.c:1227:3
	ldr	r1, [sp, #32]
	movs	r0, #0
	strb.w	r0, [r1, #32]
	b	.LBB12_47
.Ltmp235:
.LBB12_47:
	.loc	5 0 3                           @ libraries/STM32H7xx_HAL/STM32H7xx_HAL_Driver/Src/stm32h7xx_hal_rtc.c:0:3
	movs	r0, #0
	.loc	5 1229 3 is_stmt 1              @ libraries/STM32H7xx_HAL/STM32H7xx_HAL_Driver/Src/stm32h7xx_hal_rtc.c:1229:3
	strb.w	r0, [sp, #39]
	b	.LBB12_48
.LBB12_48:
	.loc	5 1230 1                        @ libraries/STM32H7xx_HAL/STM32H7xx_HAL_Driver/Src/stm32h7xx_hal_rtc.c:1230:1
	ldrb.w	r0, [sp, #39]
	add	sp, #40
	pop	{r7, pc}
.Ltmp236:
.Lfunc_end12:
	.size	HAL_RTC_SetAlarm, .Lfunc_end12-HAL_RTC_SetAlarm
	.cfi_endproc
	.cantunwind
	.fnend
                                        @ -- End function
	.section	.text.HAL_RTC_SetAlarm_IT,"ax",%progbits
	.hidden	HAL_RTC_SetAlarm_IT             @ -- Begin function HAL_RTC_SetAlarm_IT
	.globl	HAL_RTC_SetAlarm_IT
	.p2align	3
	.type	HAL_RTC_SetAlarm_IT,%function
	.code	16                              @ @HAL_RTC_SetAlarm_IT
	.thumb_func
HAL_RTC_SetAlarm_IT:
.Lfunc_begin13:
	.loc	5 1246 0                        @ libraries/STM32H7xx_HAL/STM32H7xx_HAL_Driver/Src/stm32h7xx_hal_rtc.c:1246:0
	.fnstart
	.cfi_startproc
@ %bb.0:
	.save	{r7, lr}
	push	{r7, lr}
	.cfi_def_cfa_offset 8
	.cfi_offset lr, -4
	.cfi_offset r7, -8
	.pad	#40
	sub	sp, #40
	.cfi_def_cfa_offset 48
	str	r0, [sp, #32]
	str	r1, [sp, #28]
	str	r2, [sp, #24]
.Ltmp237:
	.loc	5 1260 3 prologue_end           @ libraries/STM32H7xx_HAL/STM32H7xx_HAL_Driver/Src/stm32h7xx_hal_rtc.c:1260:3
	b	.LBB13_1
.LBB13_1:
.Ltmp238:
	.loc	5 1260 3 is_stmt 0              @ libraries/STM32H7xx_HAL/STM32H7xx_HAL_Driver/Src/stm32h7xx_hal_rtc.c:1260:3
	ldr	r0, [sp, #32]
	ldrb.w	r0, [r0, #32]
.Ltmp239:
	.loc	5 1260 3                        @ libraries/STM32H7xx_HAL/STM32H7xx_HAL_Driver/Src/stm32h7xx_hal_rtc.c:1260:3
	cmp	r0, #1
	bne	.LBB13_3
	b	.LBB13_2
.LBB13_2:
	.loc	5 0 3                           @ libraries/STM32H7xx_HAL/STM32H7xx_HAL_Driver/Src/stm32h7xx_hal_rtc.c:0:3
	movs	r0, #2
.Ltmp240:
	.loc	5 1260 3                        @ libraries/STM32H7xx_HAL/STM32H7xx_HAL_Driver/Src/stm32h7xx_hal_rtc.c:1260:3
	strb.w	r0, [sp, #39]
	b	.LBB13_48
.Ltmp241:
.LBB13_3:
	.loc	5 1260 3                        @ libraries/STM32H7xx_HAL/STM32H7xx_HAL_Driver/Src/stm32h7xx_hal_rtc.c:1260:3
	ldr	r1, [sp, #32]
	movs	r0, #1
	strb.w	r0, [r1, #32]
	b	.LBB13_4
.Ltmp242:
.LBB13_4:
	.loc	5 1260 3                        @ libraries/STM32H7xx_HAL/STM32H7xx_HAL_Driver/Src/stm32h7xx_hal_rtc.c:1260:3
	b	.LBB13_5
.Ltmp243:
.LBB13_5:
	.loc	5 1262 3 is_stmt 1              @ libraries/STM32H7xx_HAL/STM32H7xx_HAL_Driver/Src/stm32h7xx_hal_rtc.c:1262:3
	ldr	r1, [sp, #32]
	movs	r0, #2
	.loc	5 1262 15 is_stmt 0             @ libraries/STM32H7xx_HAL/STM32H7xx_HAL_Driver/Src/stm32h7xx_hal_rtc.c:1262:15
	strb.w	r0, [r1, #33]
.Ltmp244:
	.loc	5 1264 6 is_stmt 1              @ libraries/STM32H7xx_HAL/STM32H7xx_HAL_Driver/Src/stm32h7xx_hal_rtc.c:1264:6
	ldr	r0, [sp, #24]
.Ltmp245:
	.loc	5 1264 6 is_stmt 0              @ libraries/STM32H7xx_HAL/STM32H7xx_HAL_Driver/Src/stm32h7xx_hal_rtc.c:1264:6
	cbnz	r0, .LBB13_13
	b	.LBB13_6
.LBB13_6:
.Ltmp246:
	.loc	5 1266 9 is_stmt 1              @ libraries/STM32H7xx_HAL/STM32H7xx_HAL_Driver/Src/stm32h7xx_hal_rtc.c:1266:9
	ldr	r0, [sp, #32]
	.loc	5 1266 15 is_stmt 0             @ libraries/STM32H7xx_HAL/STM32H7xx_HAL_Driver/Src/stm32h7xx_hal_rtc.c:1266:15
	ldr	r0, [r0]
	.loc	5 1266 25                       @ libraries/STM32H7xx_HAL/STM32H7xx_HAL_Driver/Src/stm32h7xx_hal_rtc.c:1266:25
	ldr	r0, [r0, #8]
.Ltmp247:
	.loc	5 1266 8                        @ libraries/STM32H7xx_HAL/STM32H7xx_HAL_Driver/Src/stm32h7xx_hal_rtc.c:1266:8
	lsls	r0, r0, #25
	cmp	r0, #0
	bpl	.LBB13_8
	b	.LBB13_7
.LBB13_7:
.Ltmp248:
	.loc	5 1270 5 is_stmt 1              @ libraries/STM32H7xx_HAL/STM32H7xx_HAL_Driver/Src/stm32h7xx_hal_rtc.c:1270:5
	b	.LBB13_9
.Ltmp249:
.LBB13_8:
	.loc	5 1273 7                        @ libraries/STM32H7xx_HAL/STM32H7xx_HAL_Driver/Src/stm32h7xx_hal_rtc.c:1273:7
	ldr	r1, [sp, #28]
	movs	r0, #0
	.loc	5 1273 36 is_stmt 0             @ libraries/STM32H7xx_HAL/STM32H7xx_HAL_Driver/Src/stm32h7xx_hal_rtc.c:1273:36
	strb	r0, [r1, #3]
	b	.LBB13_9
.Ltmp250:
.LBB13_9:
	.loc	5 1279 8 is_stmt 1              @ libraries/STM32H7xx_HAL/STM32H7xx_HAL_Driver/Src/stm32h7xx_hal_rtc.c:1279:8
	ldr	r0, [sp, #28]
	.loc	5 1279 16 is_stmt 0             @ libraries/STM32H7xx_HAL/STM32H7xx_HAL_Driver/Src/stm32h7xx_hal_rtc.c:1279:16
	ldr	r0, [r0, #28]
.Ltmp251:
	.loc	5 1279 8                        @ libraries/STM32H7xx_HAL/STM32H7xx_HAL_Driver/Src/stm32h7xx_hal_rtc.c:1279:8
	cbnz	r0, .LBB13_11
	b	.LBB13_10
.LBB13_10:
.Ltmp252:
	.loc	5 1282 5 is_stmt 1              @ libraries/STM32H7xx_HAL/STM32H7xx_HAL_Driver/Src/stm32h7xx_hal_rtc.c:1282:5
	b	.LBB13_12
.Ltmp253:
.LBB13_11:
	.loc	5 0 5 is_stmt 0                 @ libraries/STM32H7xx_HAL/STM32H7xx_HAL_Driver/Src/stm32h7xx_hal_rtc.c:0:5
	b	.LBB13_12
.LBB13_12:
	.loc	5 1287 41 is_stmt 1             @ libraries/STM32H7xx_HAL/STM32H7xx_HAL_Driver/Src/stm32h7xx_hal_rtc.c:1287:41
	ldr	r0, [sp, #28]
	.loc	5 1287 59 is_stmt 0             @ libraries/STM32H7xx_HAL/STM32H7xx_HAL_Driver/Src/stm32h7xx_hal_rtc.c:1287:59
	ldrb	r0, [r0]
	.loc	5 1287 26                       @ libraries/STM32H7xx_HAL/STM32H7xx_HAL_Driver/Src/stm32h7xx_hal_rtc.c:1287:26
	bl	RTC_ByteToBcd2
	.loc	5 1287 68                       @ libraries/STM32H7xx_HAL/STM32H7xx_HAL_Driver/Src/stm32h7xx_hal_rtc.c:1287:68
	lsls	r0, r0, #16
	.loc	5 1288 41 is_stmt 1             @ libraries/STM32H7xx_HAL/STM32H7xx_HAL_Driver/Src/stm32h7xx_hal_rtc.c:1288:41
	str	r0, [sp]                        @ 4-byte Spill
	ldr	r0, [sp, #28]
	.loc	5 1288 59 is_stmt 0             @ libraries/STM32H7xx_HAL/STM32H7xx_HAL_Driver/Src/stm32h7xx_hal_rtc.c:1288:59
	ldrb	r0, [r0, #1]
	.loc	5 1288 26                       @ libraries/STM32H7xx_HAL/STM32H7xx_HAL_Driver/Src/stm32h7xx_hal_rtc.c:1288:26
	bl	RTC_ByteToBcd2
	mov	r1, r0
	.loc	5 1287 91 is_stmt 1             @ libraries/STM32H7xx_HAL/STM32H7xx_HAL_Driver/Src/stm32h7xx_hal_rtc.c:1287:91
	ldr	r0, [sp]                        @ 4-byte Reload
	orr.w	r0, r0, r1, lsl #8
	.loc	5 1289 41                       @ libraries/STM32H7xx_HAL/STM32H7xx_HAL_Driver/Src/stm32h7xx_hal_rtc.c:1289:41
	str	r0, [sp, #4]                    @ 4-byte Spill
	ldr	r0, [sp, #28]
	.loc	5 1289 59 is_stmt 0             @ libraries/STM32H7xx_HAL/STM32H7xx_HAL_Driver/Src/stm32h7xx_hal_rtc.c:1289:59
	ldrb	r0, [r0, #2]
	.loc	5 1289 26                       @ libraries/STM32H7xx_HAL/STM32H7xx_HAL_Driver/Src/stm32h7xx_hal_rtc.c:1289:26
	bl	RTC_ByteToBcd2
	mov	r1, r0
	.loc	5 1288 91 is_stmt 1             @ libraries/STM32H7xx_HAL/STM32H7xx_HAL_Driver/Src/stm32h7xx_hal_rtc.c:1288:91
	ldr	r0, [sp, #4]                    @ 4-byte Reload
	add	r1, r0
	.loc	5 1290 27                       @ libraries/STM32H7xx_HAL/STM32H7xx_HAL_Driver/Src/stm32h7xx_hal_rtc.c:1290:27
	ldr	r0, [sp, #28]
	.loc	5 1290 45 is_stmt 0             @ libraries/STM32H7xx_HAL/STM32H7xx_HAL_Driver/Src/stm32h7xx_hal_rtc.c:1290:45
	ldrb	r2, [r0, #3]
	.loc	5 1291 49 is_stmt 1             @ libraries/STM32H7xx_HAL/STM32H7xx_HAL_Driver/Src/stm32h7xx_hal_rtc.c:1291:49
	ldrb.w	r0, [r0, #32]
	.loc	5 1289 91                       @ libraries/STM32H7xx_HAL/STM32H7xx_HAL_Driver/Src/stm32h7xx_hal_rtc.c:1289:91
	orr.w	r1, r1, r2, lsl #22
	.loc	5 1291 26                       @ libraries/STM32H7xx_HAL/STM32H7xx_HAL_Driver/Src/stm32h7xx_hal_rtc.c:1291:26
	str	r1, [sp, #8]                    @ 4-byte Spill
	bl	RTC_ByteToBcd2
	mov	r1, r0
	.loc	5 1290 91                       @ libraries/STM32H7xx_HAL/STM32H7xx_HAL_Driver/Src/stm32h7xx_hal_rtc.c:1290:91
	ldr	r0, [sp, #8]                    @ 4-byte Reload
	orr.w	r0, r0, r1, lsl #24
	.loc	5 1292 26                       @ libraries/STM32H7xx_HAL/STM32H7xx_HAL_Driver/Src/stm32h7xx_hal_rtc.c:1292:26
	ldr	r2, [sp, #28]
	.loc	5 1293 34                       @ libraries/STM32H7xx_HAL/STM32H7xx_HAL_Driver/Src/stm32h7xx_hal_rtc.c:1293:34
	ldr	r1, [r2, #20]
	.loc	5 1292 34                       @ libraries/STM32H7xx_HAL/STM32H7xx_HAL_Driver/Src/stm32h7xx_hal_rtc.c:1292:34
	ldr	r2, [r2, #28]
	.loc	5 1291 91                       @ libraries/STM32H7xx_HAL/STM32H7xx_HAL_Driver/Src/stm32h7xx_hal_rtc.c:1291:91
	orrs	r0, r2
	.loc	5 1292 91                       @ libraries/STM32H7xx_HAL/STM32H7xx_HAL_Driver/Src/stm32h7xx_hal_rtc.c:1292:91
	orrs	r0, r1
	.loc	5 1287 12                       @ libraries/STM32H7xx_HAL/STM32H7xx_HAL_Driver/Src/stm32h7xx_hal_rtc.c:1287:12
	str	r0, [sp, #16]
	.loc	5 1294 3                        @ libraries/STM32H7xx_HAL/STM32H7xx_HAL_Driver/Src/stm32h7xx_hal_rtc.c:1294:3
	b	.LBB13_20
.Ltmp254:
.LBB13_13:
	.loc	5 1297 9                        @ libraries/STM32H7xx_HAL/STM32H7xx_HAL_Driver/Src/stm32h7xx_hal_rtc.c:1297:9
	ldr	r0, [sp, #32]
	.loc	5 1297 15 is_stmt 0             @ libraries/STM32H7xx_HAL/STM32H7xx_HAL_Driver/Src/stm32h7xx_hal_rtc.c:1297:15
	ldr	r0, [r0]
	.loc	5 1297 25                       @ libraries/STM32H7xx_HAL/STM32H7xx_HAL_Driver/Src/stm32h7xx_hal_rtc.c:1297:25
	ldr	r0, [r0, #8]
.Ltmp255:
	.loc	5 1297 8                        @ libraries/STM32H7xx_HAL/STM32H7xx_HAL_Driver/Src/stm32h7xx_hal_rtc.c:1297:8
	lsls	r0, r0, #25
	cmp	r0, #0
	bpl	.LBB13_15
	b	.LBB13_14
.LBB13_14:
.Ltmp256:
	.loc	5 1301 5 is_stmt 1              @ libraries/STM32H7xx_HAL/STM32H7xx_HAL_Driver/Src/stm32h7xx_hal_rtc.c:1301:5
	b	.LBB13_16
.Ltmp257:
.LBB13_15:
	.loc	5 1304 7                        @ libraries/STM32H7xx_HAL/STM32H7xx_HAL_Driver/Src/stm32h7xx_hal_rtc.c:1304:7
	ldr	r1, [sp, #28]
	movs	r0, #0
	.loc	5 1304 36 is_stmt 0             @ libraries/STM32H7xx_HAL/STM32H7xx_HAL_Driver/Src/stm32h7xx_hal_rtc.c:1304:36
	strb	r0, [r1, #3]
	b	.LBB13_16
.Ltmp258:
.LBB13_16:
	.loc	5 1311 8 is_stmt 1              @ libraries/STM32H7xx_HAL/STM32H7xx_HAL_Driver/Src/stm32h7xx_hal_rtc.c:1311:8
	ldr	r0, [sp, #28]
	.loc	5 1311 16 is_stmt 0             @ libraries/STM32H7xx_HAL/STM32H7xx_HAL_Driver/Src/stm32h7xx_hal_rtc.c:1311:16
	ldr	r0, [r0, #28]
.Ltmp259:
	.loc	5 1311 8                        @ libraries/STM32H7xx_HAL/STM32H7xx_HAL_Driver/Src/stm32h7xx_hal_rtc.c:1311:8
	cbnz	r0, .LBB13_18
	b	.LBB13_17
.LBB13_17:
.Ltmp260:
	.loc	5 1314 5 is_stmt 1              @ libraries/STM32H7xx_HAL/STM32H7xx_HAL_Driver/Src/stm32h7xx_hal_rtc.c:1314:5
	b	.LBB13_19
.Ltmp261:
.LBB13_18:
	.loc	5 0 5 is_stmt 0                 @ libraries/STM32H7xx_HAL/STM32H7xx_HAL_Driver/Src/stm32h7xx_hal_rtc.c:0:5
	b	.LBB13_19
.LBB13_19:
	.loc	5 1319 27 is_stmt 1             @ libraries/STM32H7xx_HAL/STM32H7xx_HAL_Driver/Src/stm32h7xx_hal_rtc.c:1319:27
	ldr	r1, [sp, #28]
	.loc	5 1319 45 is_stmt 0             @ libraries/STM32H7xx_HAL/STM32H7xx_HAL_Driver/Src/stm32h7xx_hal_rtc.c:1319:45
	ldrb	r0, [r1]
	.loc	5 1320 45 is_stmt 1             @ libraries/STM32H7xx_HAL/STM32H7xx_HAL_Driver/Src/stm32h7xx_hal_rtc.c:1320:45
	ldrb.w	r12, [r1, #1]
	.loc	5 1321 45                       @ libraries/STM32H7xx_HAL/STM32H7xx_HAL_Driver/Src/stm32h7xx_hal_rtc.c:1321:45
	ldrb	r3, [r1, #2]
	.loc	5 1322 45                       @ libraries/STM32H7xx_HAL/STM32H7xx_HAL_Driver/Src/stm32h7xx_hal_rtc.c:1322:45
	ldrb	r2, [r1, #3]
	.loc	5 1319 54                       @ libraries/STM32H7xx_HAL/STM32H7xx_HAL_Driver/Src/stm32h7xx_hal_rtc.c:1319:54
	lsls	r0, r0, #16
	.loc	5 1319 77 is_stmt 0             @ libraries/STM32H7xx_HAL/STM32H7xx_HAL_Driver/Src/stm32h7xx_hal_rtc.c:1319:77
	orr.w	r0, r0, r12, lsl #8
	.loc	5 1320 77 is_stmt 1             @ libraries/STM32H7xx_HAL/STM32H7xx_HAL_Driver/Src/stm32h7xx_hal_rtc.c:1320:77
	add	r0, r3
	.loc	5 1321 77                       @ libraries/STM32H7xx_HAL/STM32H7xx_HAL_Driver/Src/stm32h7xx_hal_rtc.c:1321:77
	orr.w	r0, r0, r2, lsl #22
	.loc	5 1323 16                       @ libraries/STM32H7xx_HAL/STM32H7xx_HAL_Driver/Src/stm32h7xx_hal_rtc.c:1323:16
	ldrb.w	r2, [r1, #32]
	.loc	5 1322 77                       @ libraries/STM32H7xx_HAL/STM32H7xx_HAL_Driver/Src/stm32h7xx_hal_rtc.c:1322:77
	orr.w	r0, r0, r2, lsl #24
	.loc	5 1324 35                       @ libraries/STM32H7xx_HAL/STM32H7xx_HAL_Driver/Src/stm32h7xx_hal_rtc.c:1324:35
	ldr	r2, [r1, #28]
	.loc	5 1323 77                       @ libraries/STM32H7xx_HAL/STM32H7xx_HAL_Driver/Src/stm32h7xx_hal_rtc.c:1323:77
	orrs	r0, r2
	.loc	5 1325 35                       @ libraries/STM32H7xx_HAL/STM32H7xx_HAL_Driver/Src/stm32h7xx_hal_rtc.c:1325:35
	ldr	r1, [r1, #20]
	.loc	5 1324 77                       @ libraries/STM32H7xx_HAL/STM32H7xx_HAL_Driver/Src/stm32h7xx_hal_rtc.c:1324:77
	orrs	r0, r1
	.loc	5 1319 12                       @ libraries/STM32H7xx_HAL/STM32H7xx_HAL_Driver/Src/stm32h7xx_hal_rtc.c:1319:12
	str	r0, [sp, #16]
	b	.LBB13_20
.Ltmp262:
.LBB13_20:
	.loc	5 1328 43                       @ libraries/STM32H7xx_HAL/STM32H7xx_HAL_Driver/Src/stm32h7xx_hal_rtc.c:1328:43
	ldr	r1, [sp, #28]
	.loc	5 1328 61 is_stmt 0             @ libraries/STM32H7xx_HAL/STM32H7xx_HAL_Driver/Src/stm32h7xx_hal_rtc.c:1328:61
	ldr	r0, [r1, #4]
	.loc	5 1328 94                       @ libraries/STM32H7xx_HAL/STM32H7xx_HAL_Driver/Src/stm32h7xx_hal_rtc.c:1328:94
	ldr	r1, [r1, #24]
	.loc	5 1328 73                       @ libraries/STM32H7xx_HAL/STM32H7xx_HAL_Driver/Src/stm32h7xx_hal_rtc.c:1328:73
	orrs	r0, r1
	.loc	5 1328 19                       @ libraries/STM32H7xx_HAL/STM32H7xx_HAL_Driver/Src/stm32h7xx_hal_rtc.c:1328:19
	str	r0, [sp, #12]
	.loc	5 1331 3 is_stmt 1              @ libraries/STM32H7xx_HAL/STM32H7xx_HAL_Driver/Src/stm32h7xx_hal_rtc.c:1331:3
	b	.LBB13_21
.LBB13_21:
.Ltmp263:
	.loc	5 1331 3 is_stmt 0              @ libraries/STM32H7xx_HAL/STM32H7xx_HAL_Driver/Src/stm32h7xx_hal_rtc.c:1331:3
	ldr	r0, [sp, #32]
	ldr	r1, [r0]
	movs	r0, #202
	str	r0, [r1, #36]
	ldr	r0, [sp, #32]
	ldr	r1, [r0]
	movs	r0, #83
	str	r0, [r1, #36]
	b	.LBB13_22
.Ltmp264:
.LBB13_22:
	.loc	5 1334 6 is_stmt 1              @ libraries/STM32H7xx_HAL/STM32H7xx_HAL_Driver/Src/stm32h7xx_hal_rtc.c:1334:6
	ldr	r0, [sp, #28]
	.loc	5 1334 14 is_stmt 0             @ libraries/STM32H7xx_HAL/STM32H7xx_HAL_Driver/Src/stm32h7xx_hal_rtc.c:1334:14
	ldr	r0, [r0, #36]
.Ltmp265:
	.loc	5 1334 6                        @ libraries/STM32H7xx_HAL/STM32H7xx_HAL_Driver/Src/stm32h7xx_hal_rtc.c:1334:6
	cmp.w	r0, #256
	bne	.LBB13_33
	b	.LBB13_23
.LBB13_23:
.Ltmp266:
	.loc	5 1337 5 is_stmt 1              @ libraries/STM32H7xx_HAL/STM32H7xx_HAL_Driver/Src/stm32h7xx_hal_rtc.c:1337:5
	ldr	r0, [sp, #32]
	ldr	r1, [r0]
	ldr	r0, [r1, #8]
	bic	r0, r0, #256
	str	r0, [r1, #8]
	.loc	5 1340 5                        @ libraries/STM32H7xx_HAL/STM32H7xx_HAL_Driver/Src/stm32h7xx_hal_rtc.c:1340:5
	ldr	r0, [sp, #32]
	ldr	r0, [r0]
	ldr	r0, [r0, #12]
	orn	r0, r0, #384
	bic	r0, r0, #256
	ldr	r1, [sp, #32]
	ldr	r1, [r1]
	str	r0, [r1, #12]
	.loc	5 1342 17                       @ libraries/STM32H7xx_HAL/STM32H7xx_HAL_Driver/Src/stm32h7xx_hal_rtc.c:1342:17
	bl	HAL_GetTick
	.loc	5 1342 15 is_stmt 0             @ libraries/STM32H7xx_HAL/STM32H7xx_HAL_Driver/Src/stm32h7xx_hal_rtc.c:1342:15
	str	r0, [sp, #20]
	.loc	5 1344 5 is_stmt 1              @ libraries/STM32H7xx_HAL/STM32H7xx_HAL_Driver/Src/stm32h7xx_hal_rtc.c:1344:5
	b	.LBB13_24
.LBB13_24:                              @ =>This Inner Loop Header: Depth=1
	.loc	5 1344 11 is_stmt 0             @ libraries/STM32H7xx_HAL/STM32H7xx_HAL_Driver/Src/stm32h7xx_hal_rtc.c:1344:11
	ldr	r0, [sp, #32]
	ldr	r0, [r0]
	ldr	r0, [r0, #12]
	.loc	5 1344 5                        @ libraries/STM32H7xx_HAL/STM32H7xx_HAL_Driver/Src/stm32h7xx_hal_rtc.c:1344:5
	lsls	r0, r0, #31
	cbnz	r0, .LBB13_32
	b	.LBB13_25
.LBB13_25:                              @   in Loop: Header=BB13_24 Depth=1
.Ltmp267:
	.loc	5 1346 11 is_stmt 1             @ libraries/STM32H7xx_HAL/STM32H7xx_HAL_Driver/Src/stm32h7xx_hal_rtc.c:1346:11
	bl	HAL_GetTick
	.loc	5 1346 27 is_stmt 0             @ libraries/STM32H7xx_HAL/STM32H7xx_HAL_Driver/Src/stm32h7xx_hal_rtc.c:1346:27
	ldr	r1, [sp, #20]
	.loc	5 1346 25                       @ libraries/STM32H7xx_HAL/STM32H7xx_HAL_Driver/Src/stm32h7xx_hal_rtc.c:1346:25
	subs	r0, r0, r1
.Ltmp268:
	.loc	5 1346 10                       @ libraries/STM32H7xx_HAL/STM32H7xx_HAL_Driver/Src/stm32h7xx_hal_rtc.c:1346:10
	cmp.w	r0, #1000
	bls	.LBB13_31
	b	.LBB13_26
.LBB13_26:
.Ltmp269:
	.loc	5 1349 9 is_stmt 1              @ libraries/STM32H7xx_HAL/STM32H7xx_HAL_Driver/Src/stm32h7xx_hal_rtc.c:1349:9
	b	.LBB13_27
.LBB13_27:
.Ltmp270:
	.loc	5 1349 9 is_stmt 0              @ libraries/STM32H7xx_HAL/STM32H7xx_HAL_Driver/Src/stm32h7xx_hal_rtc.c:1349:9
	ldr	r0, [sp, #32]
	ldr	r1, [r0]
	movs	r0, #255
	str	r0, [r1, #36]
	b	.LBB13_28
.Ltmp271:
.LBB13_28:
	.loc	5 1351 9 is_stmt 1              @ libraries/STM32H7xx_HAL/STM32H7xx_HAL_Driver/Src/stm32h7xx_hal_rtc.c:1351:9
	ldr	r1, [sp, #32]
	movs	r0, #3
	.loc	5 1351 21 is_stmt 0             @ libraries/STM32H7xx_HAL/STM32H7xx_HAL_Driver/Src/stm32h7xx_hal_rtc.c:1351:21
	strb.w	r0, [r1, #33]
	.loc	5 1354 9 is_stmt 1              @ libraries/STM32H7xx_HAL/STM32H7xx_HAL_Driver/Src/stm32h7xx_hal_rtc.c:1354:9
	b	.LBB13_29
.LBB13_29:
.Ltmp272:
	.loc	5 1354 9 is_stmt 0              @ libraries/STM32H7xx_HAL/STM32H7xx_HAL_Driver/Src/stm32h7xx_hal_rtc.c:1354:9
	ldr	r1, [sp, #32]
	movs	r0, #0
	strb.w	r0, [r1, #32]
	b	.LBB13_30
.Ltmp273:
.LBB13_30:
	.loc	5 0 9                           @ libraries/STM32H7xx_HAL/STM32H7xx_HAL_Driver/Src/stm32h7xx_hal_rtc.c:0:9
	movs	r0, #3
	.loc	5 1356 9 is_stmt 1              @ libraries/STM32H7xx_HAL/STM32H7xx_HAL_Driver/Src/stm32h7xx_hal_rtc.c:1356:9
	strb.w	r0, [sp, #39]
	b	.LBB13_48
.Ltmp274:
.LBB13_31:                              @   in Loop: Header=BB13_24 Depth=1
	.loc	5 1344 5                        @ libraries/STM32H7xx_HAL/STM32H7xx_HAL_Driver/Src/stm32h7xx_hal_rtc.c:1344:5
	b	.LBB13_24
.LBB13_32:
	.loc	5 1360 40                       @ libraries/STM32H7xx_HAL/STM32H7xx_HAL_Driver/Src/stm32h7xx_hal_rtc.c:1360:40
	ldr	r0, [sp, #16]
	.loc	5 1360 5 is_stmt 0              @ libraries/STM32H7xx_HAL/STM32H7xx_HAL_Driver/Src/stm32h7xx_hal_rtc.c:1360:5
	ldr	r1, [sp, #32]
	.loc	5 1360 11                       @ libraries/STM32H7xx_HAL/STM32H7xx_HAL_Driver/Src/stm32h7xx_hal_rtc.c:1360:11
	ldr	r1, [r1]
	.loc	5 1360 28                       @ libraries/STM32H7xx_HAL/STM32H7xx_HAL_Driver/Src/stm32h7xx_hal_rtc.c:1360:28
	str	r0, [r1, #28]
	.loc	5 1362 32 is_stmt 1             @ libraries/STM32H7xx_HAL/STM32H7xx_HAL_Driver/Src/stm32h7xx_hal_rtc.c:1362:32
	ldr	r0, [sp, #12]
	.loc	5 1362 5 is_stmt 0              @ libraries/STM32H7xx_HAL/STM32H7xx_HAL_Driver/Src/stm32h7xx_hal_rtc.c:1362:5
	ldr	r1, [sp, #32]
	.loc	5 1362 11                       @ libraries/STM32H7xx_HAL/STM32H7xx_HAL_Driver/Src/stm32h7xx_hal_rtc.c:1362:11
	ldr	r1, [r1]
	.loc	5 1362 30                       @ libraries/STM32H7xx_HAL/STM32H7xx_HAL_Driver/Src/stm32h7xx_hal_rtc.c:1362:30
	str	r0, [r1, #68]
	.loc	5 1364 5 is_stmt 1              @ libraries/STM32H7xx_HAL/STM32H7xx_HAL_Driver/Src/stm32h7xx_hal_rtc.c:1364:5
	ldr	r0, [sp, #32]
	ldr	r1, [r0]
	ldr	r0, [r1, #8]
	orr	r0, r0, #256
	str	r0, [r1, #8]
	.loc	5 1366 5                        @ libraries/STM32H7xx_HAL/STM32H7xx_HAL_Driver/Src/stm32h7xx_hal_rtc.c:1366:5
	ldr	r0, [sp, #32]
	ldr	r1, [r0]
	ldr	r0, [r1, #8]
	orr	r0, r0, #4096
	str	r0, [r1, #8]
	.loc	5 1367 3                        @ libraries/STM32H7xx_HAL/STM32H7xx_HAL_Driver/Src/stm32h7xx_hal_rtc.c:1367:3
	b	.LBB13_43
.Ltmp275:
.LBB13_33:
	.loc	5 1371 5                        @ libraries/STM32H7xx_HAL/STM32H7xx_HAL_Driver/Src/stm32h7xx_hal_rtc.c:1371:5
	ldr	r0, [sp, #32]
	ldr	r1, [r0]
	ldr	r0, [r1, #8]
	bic	r0, r0, #512
	str	r0, [r1, #8]
	.loc	5 1374 5                        @ libraries/STM32H7xx_HAL/STM32H7xx_HAL_Driver/Src/stm32h7xx_hal_rtc.c:1374:5
	ldr	r0, [sp, #32]
	ldr	r0, [r0]
	ldr	r0, [r0, #12]
	orn	r0, r0, #640
	bic	r0, r0, #512
	ldr	r1, [sp, #32]
	ldr	r1, [r1]
	str	r0, [r1, #12]
	.loc	5 1376 17                       @ libraries/STM32H7xx_HAL/STM32H7xx_HAL_Driver/Src/stm32h7xx_hal_rtc.c:1376:17
	bl	HAL_GetTick
	.loc	5 1376 15 is_stmt 0             @ libraries/STM32H7xx_HAL/STM32H7xx_HAL_Driver/Src/stm32h7xx_hal_rtc.c:1376:15
	str	r0, [sp, #20]
	.loc	5 1378 5 is_stmt 1              @ libraries/STM32H7xx_HAL/STM32H7xx_HAL_Driver/Src/stm32h7xx_hal_rtc.c:1378:5
	b	.LBB13_34
.LBB13_34:                              @ =>This Inner Loop Header: Depth=1
	.loc	5 1378 11 is_stmt 0             @ libraries/STM32H7xx_HAL/STM32H7xx_HAL_Driver/Src/stm32h7xx_hal_rtc.c:1378:11
	ldr	r0, [sp, #32]
	ldr	r0, [r0]
	ldr	r0, [r0, #12]
	and	r1, r0, #2
	movs	r0, #0
	.loc	5 1378 5                        @ libraries/STM32H7xx_HAL/STM32H7xx_HAL_Driver/Src/stm32h7xx_hal_rtc.c:1378:5
	cmp.w	r0, r1, lsr #1
	bne	.LBB13_42
	b	.LBB13_35
.LBB13_35:                              @   in Loop: Header=BB13_34 Depth=1
.Ltmp276:
	.loc	5 1380 11 is_stmt 1             @ libraries/STM32H7xx_HAL/STM32H7xx_HAL_Driver/Src/stm32h7xx_hal_rtc.c:1380:11
	bl	HAL_GetTick
	.loc	5 1380 27 is_stmt 0             @ libraries/STM32H7xx_HAL/STM32H7xx_HAL_Driver/Src/stm32h7xx_hal_rtc.c:1380:27
	ldr	r1, [sp, #20]
	.loc	5 1380 25                       @ libraries/STM32H7xx_HAL/STM32H7xx_HAL_Driver/Src/stm32h7xx_hal_rtc.c:1380:25
	subs	r0, r0, r1
.Ltmp277:
	.loc	5 1380 10                       @ libraries/STM32H7xx_HAL/STM32H7xx_HAL_Driver/Src/stm32h7xx_hal_rtc.c:1380:10
	cmp.w	r0, #1000
	bls	.LBB13_41
	b	.LBB13_36
.LBB13_36:
.Ltmp278:
	.loc	5 1383 9 is_stmt 1              @ libraries/STM32H7xx_HAL/STM32H7xx_HAL_Driver/Src/stm32h7xx_hal_rtc.c:1383:9
	b	.LBB13_37
.LBB13_37:
.Ltmp279:
	.loc	5 1383 9 is_stmt 0              @ libraries/STM32H7xx_HAL/STM32H7xx_HAL_Driver/Src/stm32h7xx_hal_rtc.c:1383:9
	ldr	r0, [sp, #32]
	ldr	r1, [r0]
	movs	r0, #255
	str	r0, [r1, #36]
	b	.LBB13_38
.Ltmp280:
.LBB13_38:
	.loc	5 1385 9 is_stmt 1              @ libraries/STM32H7xx_HAL/STM32H7xx_HAL_Driver/Src/stm32h7xx_hal_rtc.c:1385:9
	ldr	r1, [sp, #32]
	movs	r0, #3
	.loc	5 1385 21 is_stmt 0             @ libraries/STM32H7xx_HAL/STM32H7xx_HAL_Driver/Src/stm32h7xx_hal_rtc.c:1385:21
	strb.w	r0, [r1, #33]
	.loc	5 1388 9 is_stmt 1              @ libraries/STM32H7xx_HAL/STM32H7xx_HAL_Driver/Src/stm32h7xx_hal_rtc.c:1388:9
	b	.LBB13_39
.LBB13_39:
.Ltmp281:
	.loc	5 1388 9 is_stmt 0              @ libraries/STM32H7xx_HAL/STM32H7xx_HAL_Driver/Src/stm32h7xx_hal_rtc.c:1388:9
	ldr	r1, [sp, #32]
	movs	r0, #0
	strb.w	r0, [r1, #32]
	b	.LBB13_40
.Ltmp282:
.LBB13_40:
	.loc	5 0 9                           @ libraries/STM32H7xx_HAL/STM32H7xx_HAL_Driver/Src/stm32h7xx_hal_rtc.c:0:9
	movs	r0, #3
	.loc	5 1390 9 is_stmt 1              @ libraries/STM32H7xx_HAL/STM32H7xx_HAL_Driver/Src/stm32h7xx_hal_rtc.c:1390:9
	strb.w	r0, [sp, #39]
	b	.LBB13_48
.Ltmp283:
.LBB13_41:                              @   in Loop: Header=BB13_34 Depth=1
	.loc	5 1378 5                        @ libraries/STM32H7xx_HAL/STM32H7xx_HAL_Driver/Src/stm32h7xx_hal_rtc.c:1378:5
	b	.LBB13_34
.LBB13_42:
	.loc	5 1394 40                       @ libraries/STM32H7xx_HAL/STM32H7xx_HAL_Driver/Src/stm32h7xx_hal_rtc.c:1394:40
	ldr	r0, [sp, #16]
	.loc	5 1394 5 is_stmt 0              @ libraries/STM32H7xx_HAL/STM32H7xx_HAL_Driver/Src/stm32h7xx_hal_rtc.c:1394:5
	ldr	r1, [sp, #32]
	.loc	5 1394 11                       @ libraries/STM32H7xx_HAL/STM32H7xx_HAL_Driver/Src/stm32h7xx_hal_rtc.c:1394:11
	ldr	r1, [r1]
	.loc	5 1394 28                       @ libraries/STM32H7xx_HAL/STM32H7xx_HAL_Driver/Src/stm32h7xx_hal_rtc.c:1394:28
	str	r0, [r1, #32]
	.loc	5 1396 32 is_stmt 1             @ libraries/STM32H7xx_HAL/STM32H7xx_HAL_Driver/Src/stm32h7xx_hal_rtc.c:1396:32
	ldr	r0, [sp, #12]
	.loc	5 1396 5 is_stmt 0              @ libraries/STM32H7xx_HAL/STM32H7xx_HAL_Driver/Src/stm32h7xx_hal_rtc.c:1396:5
	ldr	r1, [sp, #32]
	.loc	5 1396 11                       @ libraries/STM32H7xx_HAL/STM32H7xx_HAL_Driver/Src/stm32h7xx_hal_rtc.c:1396:11
	ldr	r1, [r1]
	.loc	5 1396 30                       @ libraries/STM32H7xx_HAL/STM32H7xx_HAL_Driver/Src/stm32h7xx_hal_rtc.c:1396:30
	str	r0, [r1, #72]
	.loc	5 1398 5 is_stmt 1              @ libraries/STM32H7xx_HAL/STM32H7xx_HAL_Driver/Src/stm32h7xx_hal_rtc.c:1398:5
	ldr	r0, [sp, #32]
	ldr	r1, [r0]
	ldr	r0, [r1, #8]
	orr	r0, r0, #512
	str	r0, [r1, #8]
	.loc	5 1400 5                        @ libraries/STM32H7xx_HAL/STM32H7xx_HAL_Driver/Src/stm32h7xx_hal_rtc.c:1400:5
	ldr	r0, [sp, #32]
	ldr	r1, [r0]
	ldr	r0, [r1, #8]
	orr	r0, r0, #8192
	str	r0, [r1, #8]
	b	.LBB13_43
.Ltmp284:
.LBB13_43:
	.loc	5 0 5 is_stmt 0                 @ libraries/STM32H7xx_HAL/STM32H7xx_HAL_Driver/Src/stm32h7xx_hal_rtc.c:0:5
	movs	r1, #128
	movt	r1, #22528
	.loc	5 1405 6 is_stmt 1              @ libraries/STM32H7xx_HAL/STM32H7xx_HAL_Driver/Src/stm32h7xx_hal_rtc.c:1405:6
	ldr	r0, [r1]
	orr	r0, r0, #131072
	str	r0, [r1]
	mov.w	r1, #1476395008
	.loc	5 1408 3                        @ libraries/STM32H7xx_HAL/STM32H7xx_HAL_Driver/Src/stm32h7xx_hal_rtc.c:1408:3
	ldr	r0, [r1]
	orr	r0, r0, #131072
	str	r0, [r1]
	.loc	5 1410 3                        @ libraries/STM32H7xx_HAL/STM32H7xx_HAL_Driver/Src/stm32h7xx_hal_rtc.c:1410:3
	b	.LBB13_44
.LBB13_44:
.Ltmp285:
	.loc	5 1410 3 is_stmt 0              @ libraries/STM32H7xx_HAL/STM32H7xx_HAL_Driver/Src/stm32h7xx_hal_rtc.c:1410:3
	ldr	r0, [sp, #32]
	ldr	r1, [r0]
	movs	r0, #255
	str	r0, [r1, #36]
	b	.LBB13_45
.Ltmp286:
.LBB13_45:
	.loc	5 1412 3 is_stmt 1              @ libraries/STM32H7xx_HAL/STM32H7xx_HAL_Driver/Src/stm32h7xx_hal_rtc.c:1412:3
	ldr	r1, [sp, #32]
	movs	r0, #1
	.loc	5 1412 15 is_stmt 0             @ libraries/STM32H7xx_HAL/STM32H7xx_HAL_Driver/Src/stm32h7xx_hal_rtc.c:1412:15
	strb.w	r0, [r1, #33]
	.loc	5 1415 3 is_stmt 1              @ libraries/STM32H7xx_HAL/STM32H7xx_HAL_Driver/Src/stm32h7xx_hal_rtc.c:1415:3
	b	.LBB13_46
.LBB13_46:
.Ltmp287:
	.loc	5 1415 3 is_stmt 0              @ libraries/STM32H7xx_HAL/STM32H7xx_HAL_Driver/Src/stm32h7xx_hal_rtc.c:1415:3
	ldr	r1, [sp, #32]
	movs	r0, #0
	strb.w	r0, [r1, #32]
	b	.LBB13_47
.Ltmp288:
.LBB13_47:
	.loc	5 0 3                           @ libraries/STM32H7xx_HAL/STM32H7xx_HAL_Driver/Src/stm32h7xx_hal_rtc.c:0:3
	movs	r0, #0
	.loc	5 1417 3 is_stmt 1              @ libraries/STM32H7xx_HAL/STM32H7xx_HAL_Driver/Src/stm32h7xx_hal_rtc.c:1417:3
	strb.w	r0, [sp, #39]
	b	.LBB13_48
.LBB13_48:
	.loc	5 1418 1                        @ libraries/STM32H7xx_HAL/STM32H7xx_HAL_Driver/Src/stm32h7xx_hal_rtc.c:1418:1
	ldrb.w	r0, [sp, #39]
	add	sp, #40
	pop	{r7, pc}
.Ltmp289:
.Lfunc_end13:
	.size	HAL_RTC_SetAlarm_IT, .Lfunc_end13-HAL_RTC_SetAlarm_IT
	.cfi_endproc
	.cantunwind
	.fnend
                                        @ -- End function
	.section	.text.HAL_RTC_DeactivateAlarm,"ax",%progbits
	.hidden	HAL_RTC_DeactivateAlarm         @ -- Begin function HAL_RTC_DeactivateAlarm
	.globl	HAL_RTC_DeactivateAlarm
	.p2align	3
	.type	HAL_RTC_DeactivateAlarm,%function
	.code	16                              @ @HAL_RTC_DeactivateAlarm
	.thumb_func
HAL_RTC_DeactivateAlarm:
.Lfunc_begin14:
	.loc	5 1430 0                        @ libraries/STM32H7xx_HAL/STM32H7xx_HAL_Driver/Src/stm32h7xx_hal_rtc.c:1430:0
	.fnstart
	.cfi_startproc
@ %bb.0:
	.save	{r7, lr}
	push	{r7, lr}
	.cfi_def_cfa_offset 8
	.cfi_offset lr, -4
	.cfi_offset r7, -8
	.pad	#16
	sub	sp, #16
	.cfi_def_cfa_offset 24
	str	r0, [sp, #8]
	str	r1, [sp, #4]
.Ltmp290:
	.loc	5 1437 3 prologue_end           @ libraries/STM32H7xx_HAL/STM32H7xx_HAL_Driver/Src/stm32h7xx_hal_rtc.c:1437:3
	b	.LBB14_1
.LBB14_1:
.Ltmp291:
	.loc	5 1437 3 is_stmt 0              @ libraries/STM32H7xx_HAL/STM32H7xx_HAL_Driver/Src/stm32h7xx_hal_rtc.c:1437:3
	ldr	r0, [sp, #8]
	ldrb.w	r0, [r0, #32]
.Ltmp292:
	.loc	5 1437 3                        @ libraries/STM32H7xx_HAL/STM32H7xx_HAL_Driver/Src/stm32h7xx_hal_rtc.c:1437:3
	cmp	r0, #1
	bne	.LBB14_3
	b	.LBB14_2
.LBB14_2:
	.loc	5 0 3                           @ libraries/STM32H7xx_HAL/STM32H7xx_HAL_Driver/Src/stm32h7xx_hal_rtc.c:0:3
	movs	r0, #2
.Ltmp293:
	.loc	5 1437 3                        @ libraries/STM32H7xx_HAL/STM32H7xx_HAL_Driver/Src/stm32h7xx_hal_rtc.c:1437:3
	strb.w	r0, [sp, #15]
	b	.LBB14_33
.Ltmp294:
.LBB14_3:
	.loc	5 1437 3                        @ libraries/STM32H7xx_HAL/STM32H7xx_HAL_Driver/Src/stm32h7xx_hal_rtc.c:1437:3
	ldr	r1, [sp, #8]
	movs	r0, #1
	strb.w	r0, [r1, #32]
	b	.LBB14_4
.Ltmp295:
.LBB14_4:
	.loc	5 1437 3                        @ libraries/STM32H7xx_HAL/STM32H7xx_HAL_Driver/Src/stm32h7xx_hal_rtc.c:1437:3
	b	.LBB14_5
.Ltmp296:
.LBB14_5:
	.loc	5 1439 3 is_stmt 1              @ libraries/STM32H7xx_HAL/STM32H7xx_HAL_Driver/Src/stm32h7xx_hal_rtc.c:1439:3
	ldr	r1, [sp, #8]
	movs	r0, #2
	.loc	5 1439 15 is_stmt 0             @ libraries/STM32H7xx_HAL/STM32H7xx_HAL_Driver/Src/stm32h7xx_hal_rtc.c:1439:15
	strb.w	r0, [r1, #33]
	.loc	5 1442 3 is_stmt 1              @ libraries/STM32H7xx_HAL/STM32H7xx_HAL_Driver/Src/stm32h7xx_hal_rtc.c:1442:3
	b	.LBB14_6
.LBB14_6:
.Ltmp297:
	.loc	5 1442 3 is_stmt 0              @ libraries/STM32H7xx_HAL/STM32H7xx_HAL_Driver/Src/stm32h7xx_hal_rtc.c:1442:3
	ldr	r0, [sp, #8]
	ldr	r1, [r0]
	movs	r0, #202
	str	r0, [r1, #36]
	ldr	r0, [sp, #8]
	ldr	r1, [r0]
	movs	r0, #83
	str	r0, [r1, #36]
	b	.LBB14_7
.Ltmp298:
.LBB14_7:
	.loc	5 1444 6 is_stmt 1              @ libraries/STM32H7xx_HAL/STM32H7xx_HAL_Driver/Src/stm32h7xx_hal_rtc.c:1444:6
	ldr	r0, [sp, #4]
.Ltmp299:
	.loc	5 1444 6 is_stmt 0              @ libraries/STM32H7xx_HAL/STM32H7xx_HAL_Driver/Src/stm32h7xx_hal_rtc.c:1444:6
	cmp.w	r0, #256
	bne	.LBB14_18
	b	.LBB14_8
.LBB14_8:
.Ltmp300:
	.loc	5 1447 5 is_stmt 1              @ libraries/STM32H7xx_HAL/STM32H7xx_HAL_Driver/Src/stm32h7xx_hal_rtc.c:1447:5
	ldr	r0, [sp, #8]
	ldr	r1, [r0]
	ldr	r0, [r1, #8]
	bic	r0, r0, #256
	str	r0, [r1, #8]
	.loc	5 1450 5                        @ libraries/STM32H7xx_HAL/STM32H7xx_HAL_Driver/Src/stm32h7xx_hal_rtc.c:1450:5
	ldr	r0, [sp, #8]
	ldr	r1, [r0]
	ldr	r0, [r1, #8]
	bic	r0, r0, #4096
	str	r0, [r1, #8]
	.loc	5 1452 17                       @ libraries/STM32H7xx_HAL/STM32H7xx_HAL_Driver/Src/stm32h7xx_hal_rtc.c:1452:17
	bl	HAL_GetTick
	.loc	5 1452 15 is_stmt 0             @ libraries/STM32H7xx_HAL/STM32H7xx_HAL_Driver/Src/stm32h7xx_hal_rtc.c:1452:15
	str	r0, [sp]
	.loc	5 1455 5 is_stmt 1              @ libraries/STM32H7xx_HAL/STM32H7xx_HAL_Driver/Src/stm32h7xx_hal_rtc.c:1455:5
	b	.LBB14_9
.LBB14_9:                               @ =>This Inner Loop Header: Depth=1
	.loc	5 1455 11 is_stmt 0             @ libraries/STM32H7xx_HAL/STM32H7xx_HAL_Driver/Src/stm32h7xx_hal_rtc.c:1455:11
	ldr	r0, [sp, #8]
	ldr	r0, [r0]
	ldr	r0, [r0, #12]
	.loc	5 1455 5                        @ libraries/STM32H7xx_HAL/STM32H7xx_HAL_Driver/Src/stm32h7xx_hal_rtc.c:1455:5
	lsls	r0, r0, #31
	cbnz	r0, .LBB14_17
	b	.LBB14_10
.LBB14_10:                              @   in Loop: Header=BB14_9 Depth=1
.Ltmp301:
	.loc	5 1457 12 is_stmt 1             @ libraries/STM32H7xx_HAL/STM32H7xx_HAL_Driver/Src/stm32h7xx_hal_rtc.c:1457:12
	bl	HAL_GetTick
	.loc	5 1457 29 is_stmt 0             @ libraries/STM32H7xx_HAL/STM32H7xx_HAL_Driver/Src/stm32h7xx_hal_rtc.c:1457:29
	ldr	r1, [sp]
	.loc	5 1457 27                       @ libraries/STM32H7xx_HAL/STM32H7xx_HAL_Driver/Src/stm32h7xx_hal_rtc.c:1457:27
	subs	r0, r0, r1
.Ltmp302:
	.loc	5 1457 11                       @ libraries/STM32H7xx_HAL/STM32H7xx_HAL_Driver/Src/stm32h7xx_hal_rtc.c:1457:11
	cmp.w	r0, #1000
	bls	.LBB14_16
	b	.LBB14_11
.LBB14_11:
.Ltmp303:
	.loc	5 1460 9 is_stmt 1              @ libraries/STM32H7xx_HAL/STM32H7xx_HAL_Driver/Src/stm32h7xx_hal_rtc.c:1460:9
	b	.LBB14_12
.LBB14_12:
.Ltmp304:
	.loc	5 1460 9 is_stmt 0              @ libraries/STM32H7xx_HAL/STM32H7xx_HAL_Driver/Src/stm32h7xx_hal_rtc.c:1460:9
	ldr	r0, [sp, #8]
	ldr	r1, [r0]
	movs	r0, #255
	str	r0, [r1, #36]
	b	.LBB14_13
.Ltmp305:
.LBB14_13:
	.loc	5 1462 9 is_stmt 1              @ libraries/STM32H7xx_HAL/STM32H7xx_HAL_Driver/Src/stm32h7xx_hal_rtc.c:1462:9
	ldr	r1, [sp, #8]
	movs	r0, #3
	.loc	5 1462 21 is_stmt 0             @ libraries/STM32H7xx_HAL/STM32H7xx_HAL_Driver/Src/stm32h7xx_hal_rtc.c:1462:21
	strb.w	r0, [r1, #33]
	.loc	5 1465 9 is_stmt 1              @ libraries/STM32H7xx_HAL/STM32H7xx_HAL_Driver/Src/stm32h7xx_hal_rtc.c:1465:9
	b	.LBB14_14
.LBB14_14:
.Ltmp306:
	.loc	5 1465 9 is_stmt 0              @ libraries/STM32H7xx_HAL/STM32H7xx_HAL_Driver/Src/stm32h7xx_hal_rtc.c:1465:9
	ldr	r1, [sp, #8]
	movs	r0, #0
	strb.w	r0, [r1, #32]
	b	.LBB14_15
.Ltmp307:
.LBB14_15:
	.loc	5 0 9                           @ libraries/STM32H7xx_HAL/STM32H7xx_HAL_Driver/Src/stm32h7xx_hal_rtc.c:0:9
	movs	r0, #3
	.loc	5 1467 9 is_stmt 1              @ libraries/STM32H7xx_HAL/STM32H7xx_HAL_Driver/Src/stm32h7xx_hal_rtc.c:1467:9
	strb.w	r0, [sp, #15]
	b	.LBB14_33
.Ltmp308:
.LBB14_16:                              @   in Loop: Header=BB14_9 Depth=1
	.loc	5 1455 5                        @ libraries/STM32H7xx_HAL/STM32H7xx_HAL_Driver/Src/stm32h7xx_hal_rtc.c:1455:5
	b	.LBB14_9
.LBB14_17:
	.loc	5 1470 3                        @ libraries/STM32H7xx_HAL/STM32H7xx_HAL_Driver/Src/stm32h7xx_hal_rtc.c:1470:3
	b	.LBB14_28
.Ltmp309:
.LBB14_18:
	.loc	5 1474 5                        @ libraries/STM32H7xx_HAL/STM32H7xx_HAL_Driver/Src/stm32h7xx_hal_rtc.c:1474:5
	ldr	r0, [sp, #8]
	ldr	r1, [r0]
	ldr	r0, [r1, #8]
	bic	r0, r0, #512
	str	r0, [r1, #8]
	.loc	5 1477 5                        @ libraries/STM32H7xx_HAL/STM32H7xx_HAL_Driver/Src/stm32h7xx_hal_rtc.c:1477:5
	ldr	r0, [sp, #8]
	ldr	r1, [r0]
	ldr	r0, [r1, #8]
	bic	r0, r0, #8192
	str	r0, [r1, #8]
	.loc	5 1479 17                       @ libraries/STM32H7xx_HAL/STM32H7xx_HAL_Driver/Src/stm32h7xx_hal_rtc.c:1479:17
	bl	HAL_GetTick
	.loc	5 1479 15 is_stmt 0             @ libraries/STM32H7xx_HAL/STM32H7xx_HAL_Driver/Src/stm32h7xx_hal_rtc.c:1479:15
	str	r0, [sp]
	.loc	5 1482 5 is_stmt 1              @ libraries/STM32H7xx_HAL/STM32H7xx_HAL_Driver/Src/stm32h7xx_hal_rtc.c:1482:5
	b	.LBB14_19
.LBB14_19:                              @ =>This Inner Loop Header: Depth=1
	.loc	5 1482 11 is_stmt 0             @ libraries/STM32H7xx_HAL/STM32H7xx_HAL_Driver/Src/stm32h7xx_hal_rtc.c:1482:11
	ldr	r0, [sp, #8]
	ldr	r0, [r0]
	ldr	r0, [r0, #12]
	and	r1, r0, #2
	movs	r0, #0
	.loc	5 1482 5                        @ libraries/STM32H7xx_HAL/STM32H7xx_HAL_Driver/Src/stm32h7xx_hal_rtc.c:1482:5
	cmp.w	r0, r1, lsr #1
	bne	.LBB14_27
	b	.LBB14_20
.LBB14_20:                              @   in Loop: Header=BB14_19 Depth=1
.Ltmp310:
	.loc	5 1484 11 is_stmt 1             @ libraries/STM32H7xx_HAL/STM32H7xx_HAL_Driver/Src/stm32h7xx_hal_rtc.c:1484:11
	bl	HAL_GetTick
	.loc	5 1484 27 is_stmt 0             @ libraries/STM32H7xx_HAL/STM32H7xx_HAL_Driver/Src/stm32h7xx_hal_rtc.c:1484:27
	ldr	r1, [sp]
	.loc	5 1484 25                       @ libraries/STM32H7xx_HAL/STM32H7xx_HAL_Driver/Src/stm32h7xx_hal_rtc.c:1484:25
	subs	r0, r0, r1
.Ltmp311:
	.loc	5 1484 10                       @ libraries/STM32H7xx_HAL/STM32H7xx_HAL_Driver/Src/stm32h7xx_hal_rtc.c:1484:10
	cmp.w	r0, #1000
	bls	.LBB14_26
	b	.LBB14_21
.LBB14_21:
.Ltmp312:
	.loc	5 1487 9 is_stmt 1              @ libraries/STM32H7xx_HAL/STM32H7xx_HAL_Driver/Src/stm32h7xx_hal_rtc.c:1487:9
	b	.LBB14_22
.LBB14_22:
.Ltmp313:
	.loc	5 1487 9 is_stmt 0              @ libraries/STM32H7xx_HAL/STM32H7xx_HAL_Driver/Src/stm32h7xx_hal_rtc.c:1487:9
	ldr	r0, [sp, #8]
	ldr	r1, [r0]
	movs	r0, #255
	str	r0, [r1, #36]
	b	.LBB14_23
.Ltmp314:
.LBB14_23:
	.loc	5 1489 9 is_stmt 1              @ libraries/STM32H7xx_HAL/STM32H7xx_HAL_Driver/Src/stm32h7xx_hal_rtc.c:1489:9
	ldr	r1, [sp, #8]
	movs	r0, #3
	.loc	5 1489 21 is_stmt 0             @ libraries/STM32H7xx_HAL/STM32H7xx_HAL_Driver/Src/stm32h7xx_hal_rtc.c:1489:21
	strb.w	r0, [r1, #33]
	.loc	5 1492 9 is_stmt 1              @ libraries/STM32H7xx_HAL/STM32H7xx_HAL_Driver/Src/stm32h7xx_hal_rtc.c:1492:9
	b	.LBB14_24
.LBB14_24:
.Ltmp315:
	.loc	5 1492 9 is_stmt 0              @ libraries/STM32H7xx_HAL/STM32H7xx_HAL_Driver/Src/stm32h7xx_hal_rtc.c:1492:9
	ldr	r1, [sp, #8]
	movs	r0, #0
	strb.w	r0, [r1, #32]
	b	.LBB14_25
.Ltmp316:
.LBB14_25:
	.loc	5 0 9                           @ libraries/STM32H7xx_HAL/STM32H7xx_HAL_Driver/Src/stm32h7xx_hal_rtc.c:0:9
	movs	r0, #3
	.loc	5 1494 9 is_stmt 1              @ libraries/STM32H7xx_HAL/STM32H7xx_HAL_Driver/Src/stm32h7xx_hal_rtc.c:1494:9
	strb.w	r0, [sp, #15]
	b	.LBB14_33
.Ltmp317:
.LBB14_26:                              @   in Loop: Header=BB14_19 Depth=1
	.loc	5 1482 5                        @ libraries/STM32H7xx_HAL/STM32H7xx_HAL_Driver/Src/stm32h7xx_hal_rtc.c:1482:5
	b	.LBB14_19
.Ltmp318:
.LBB14_27:
	.loc	5 0 5 is_stmt 0                 @ libraries/STM32H7xx_HAL/STM32H7xx_HAL_Driver/Src/stm32h7xx_hal_rtc.c:0:5
	b	.LBB14_28
.LBB14_28:
	.loc	5 1499 3 is_stmt 1              @ libraries/STM32H7xx_HAL/STM32H7xx_HAL_Driver/Src/stm32h7xx_hal_rtc.c:1499:3
	b	.LBB14_29
.LBB14_29:
.Ltmp319:
	.loc	5 1499 3 is_stmt 0              @ libraries/STM32H7xx_HAL/STM32H7xx_HAL_Driver/Src/stm32h7xx_hal_rtc.c:1499:3
	ldr	r0, [sp, #8]
	ldr	r1, [r0]
	movs	r0, #255
	str	r0, [r1, #36]
	b	.LBB14_30
.Ltmp320:
.LBB14_30:
	.loc	5 1501 3 is_stmt 1              @ libraries/STM32H7xx_HAL/STM32H7xx_HAL_Driver/Src/stm32h7xx_hal_rtc.c:1501:3
	ldr	r1, [sp, #8]
	movs	r0, #1
	.loc	5 1501 15 is_stmt 0             @ libraries/STM32H7xx_HAL/STM32H7xx_HAL_Driver/Src/stm32h7xx_hal_rtc.c:1501:15
	strb.w	r0, [r1, #33]
	.loc	5 1504 3 is_stmt 1              @ libraries/STM32H7xx_HAL/STM32H7xx_HAL_Driver/Src/stm32h7xx_hal_rtc.c:1504:3
	b	.LBB14_31
.LBB14_31:
.Ltmp321:
	.loc	5 1504 3 is_stmt 0              @ libraries/STM32H7xx_HAL/STM32H7xx_HAL_Driver/Src/stm32h7xx_hal_rtc.c:1504:3
	ldr	r1, [sp, #8]
	movs	r0, #0
	strb.w	r0, [r1, #32]
	b	.LBB14_32
.Ltmp322:
.LBB14_32:
	.loc	5 0 3                           @ libraries/STM32H7xx_HAL/STM32H7xx_HAL_Driver/Src/stm32h7xx_hal_rtc.c:0:3
	movs	r0, #0
	.loc	5 1506 3 is_stmt 1              @ libraries/STM32H7xx_HAL/STM32H7xx_HAL_Driver/Src/stm32h7xx_hal_rtc.c:1506:3
	strb.w	r0, [sp, #15]
	b	.LBB14_33
.LBB14_33:
	.loc	5 1507 1                        @ libraries/STM32H7xx_HAL/STM32H7xx_HAL_Driver/Src/stm32h7xx_hal_rtc.c:1507:1
	ldrb.w	r0, [sp, #15]
	add	sp, #16
	pop	{r7, pc}
.Ltmp323:
.Lfunc_end14:
	.size	HAL_RTC_DeactivateAlarm, .Lfunc_end14-HAL_RTC_DeactivateAlarm
	.cfi_endproc
	.cantunwind
	.fnend
                                        @ -- End function
	.section	.text.HAL_RTC_GetAlarm,"ax",%progbits
	.hidden	HAL_RTC_GetAlarm                @ -- Begin function HAL_RTC_GetAlarm
	.globl	HAL_RTC_GetAlarm
	.p2align	3
	.type	HAL_RTC_GetAlarm,%function
	.code	16                              @ @HAL_RTC_GetAlarm
	.thumb_func
HAL_RTC_GetAlarm:
.Lfunc_begin15:
	.loc	5 1524 0                        @ libraries/STM32H7xx_HAL/STM32H7xx_HAL_Driver/Src/stm32h7xx_hal_rtc.c:1524:0
	.fnstart
	.cfi_startproc
@ %bb.0:
	.save	{r7, lr}
	push	{r7, lr}
	.cfi_def_cfa_offset 8
	.cfi_offset lr, -4
	.cfi_offset r7, -8
	.pad	#24
	sub	sp, #24
	.cfi_def_cfa_offset 32
	str	r0, [sp, #20]
	str	r1, [sp, #16]
	str	r2, [sp, #12]
	str	r3, [sp, #8]
.Ltmp324:
	.loc	5 1532 6 prologue_end           @ libraries/STM32H7xx_HAL/STM32H7xx_HAL_Driver/Src/stm32h7xx_hal_rtc.c:1532:6
	ldr	r0, [sp, #12]
.Ltmp325:
	.loc	5 1532 6 is_stmt 0              @ libraries/STM32H7xx_HAL/STM32H7xx_HAL_Driver/Src/stm32h7xx_hal_rtc.c:1532:6
	cmp.w	r0, #256
	bne	.LBB15_2
	b	.LBB15_1
.LBB15_1:
.Ltmp326:
	.loc	5 1535 5 is_stmt 1              @ libraries/STM32H7xx_HAL/STM32H7xx_HAL_Driver/Src/stm32h7xx_hal_rtc.c:1535:5
	ldr	r1, [sp, #16]
	mov.w	r0, #256
	.loc	5 1535 19 is_stmt 0             @ libraries/STM32H7xx_HAL/STM32H7xx_HAL_Driver/Src/stm32h7xx_hal_rtc.c:1535:19
	str	r0, [r1, #36]
	.loc	5 1537 25 is_stmt 1             @ libraries/STM32H7xx_HAL/STM32H7xx_HAL_Driver/Src/stm32h7xx_hal_rtc.c:1537:25
	ldr	r0, [sp, #20]
	.loc	5 1537 31 is_stmt 0             @ libraries/STM32H7xx_HAL/STM32H7xx_HAL_Driver/Src/stm32h7xx_hal_rtc.c:1537:31
	ldr	r0, [r0]
	.loc	5 1537 41                       @ libraries/STM32H7xx_HAL/STM32H7xx_HAL_Driver/Src/stm32h7xx_hal_rtc.c:1537:41
	ldr	r0, [r0, #28]
	.loc	5 1537 12                       @ libraries/STM32H7xx_HAL/STM32H7xx_HAL_Driver/Src/stm32h7xx_hal_rtc.c:1537:12
	str	r0, [sp, #4]
	.loc	5 1538 35 is_stmt 1             @ libraries/STM32H7xx_HAL/STM32H7xx_HAL_Driver/Src/stm32h7xx_hal_rtc.c:1538:35
	ldr	r0, [sp, #20]
	.loc	5 1538 41 is_stmt 0             @ libraries/STM32H7xx_HAL/STM32H7xx_HAL_Driver/Src/stm32h7xx_hal_rtc.c:1538:41
	ldr	r0, [r0]
	.loc	5 1538 51                       @ libraries/STM32H7xx_HAL/STM32H7xx_HAL_Driver/Src/stm32h7xx_hal_rtc.c:1538:51
	ldr	r0, [r0, #68]
	.loc	5 1538 62                       @ libraries/STM32H7xx_HAL/STM32H7xx_HAL_Driver/Src/stm32h7xx_hal_rtc.c:1538:62
	bfc	r0, #15, #17
	.loc	5 1538 21                       @ libraries/STM32H7xx_HAL/STM32H7xx_HAL_Driver/Src/stm32h7xx_hal_rtc.c:1538:21
	str	r0, [sp]
	.loc	5 1541 48 is_stmt 1             @ libraries/STM32H7xx_HAL/STM32H7xx_HAL_Driver/Src/stm32h7xx_hal_rtc.c:1541:48
	ldr	r0, [sp, #4]
	.loc	5 1541 92 is_stmt 0             @ libraries/STM32H7xx_HAL/STM32H7xx_HAL_Driver/Src/stm32h7xx_hal_rtc.c:1541:92
	ubfx	r0, r0, #16, #6
	.loc	5 1541 5                        @ libraries/STM32H7xx_HAL/STM32H7xx_HAL_Driver/Src/stm32h7xx_hal_rtc.c:1541:5
	ldr	r1, [sp, #16]
	.loc	5 1541 34                       @ libraries/STM32H7xx_HAL/STM32H7xx_HAL_Driver/Src/stm32h7xx_hal_rtc.c:1541:34
	strb	r0, [r1]
	.loc	5 1542 48 is_stmt 1             @ libraries/STM32H7xx_HAL/STM32H7xx_HAL_Driver/Src/stm32h7xx_hal_rtc.c:1542:48
	ldr	r0, [sp, #4]
	.loc	5 1542 92 is_stmt 0             @ libraries/STM32H7xx_HAL/STM32H7xx_HAL_Driver/Src/stm32h7xx_hal_rtc.c:1542:92
	ubfx	r0, r0, #8, #7
	.loc	5 1542 5                        @ libraries/STM32H7xx_HAL/STM32H7xx_HAL_Driver/Src/stm32h7xx_hal_rtc.c:1542:5
	ldr	r1, [sp, #16]
	.loc	5 1542 34                       @ libraries/STM32H7xx_HAL/STM32H7xx_HAL_Driver/Src/stm32h7xx_hal_rtc.c:1542:34
	strb	r0, [r1, #1]
	.loc	5 1543 48 is_stmt 1             @ libraries/STM32H7xx_HAL/STM32H7xx_HAL_Driver/Src/stm32h7xx_hal_rtc.c:1543:48
	ldr	r0, [sp, #4]
	.loc	5 1543 55 is_stmt 0             @ libraries/STM32H7xx_HAL/STM32H7xx_HAL_Driver/Src/stm32h7xx_hal_rtc.c:1543:55
	and	r0, r0, #127
	.loc	5 1543 5                        @ libraries/STM32H7xx_HAL/STM32H7xx_HAL_Driver/Src/stm32h7xx_hal_rtc.c:1543:5
	ldr	r1, [sp, #16]
	.loc	5 1543 34                       @ libraries/STM32H7xx_HAL/STM32H7xx_HAL_Driver/Src/stm32h7xx_hal_rtc.c:1543:34
	strb	r0, [r1, #2]
	.loc	5 1544 48 is_stmt 1             @ libraries/STM32H7xx_HAL/STM32H7xx_HAL_Driver/Src/stm32h7xx_hal_rtc.c:1544:48
	ldr	r0, [sp, #4]
	.loc	5 1544 92 is_stmt 0             @ libraries/STM32H7xx_HAL/STM32H7xx_HAL_Driver/Src/stm32h7xx_hal_rtc.c:1544:92
	ubfx	r0, r0, #22, #1
	.loc	5 1544 5                        @ libraries/STM32H7xx_HAL/STM32H7xx_HAL_Driver/Src/stm32h7xx_hal_rtc.c:1544:5
	ldr	r1, [sp, #16]
	.loc	5 1544 34                       @ libraries/STM32H7xx_HAL/STM32H7xx_HAL_Driver/Src/stm32h7xx_hal_rtc.c:1544:34
	strb	r0, [r1, #3]
	.loc	5 1545 47 is_stmt 1             @ libraries/STM32H7xx_HAL/STM32H7xx_HAL_Driver/Src/stm32h7xx_hal_rtc.c:1545:47
	ldr	r0, [sp]
	.loc	5 1545 5 is_stmt 0              @ libraries/STM32H7xx_HAL/STM32H7xx_HAL_Driver/Src/stm32h7xx_hal_rtc.c:1545:5
	ldr	r1, [sp, #16]
	.loc	5 1545 34                       @ libraries/STM32H7xx_HAL/STM32H7xx_HAL_Driver/Src/stm32h7xx_hal_rtc.c:1545:34
	str	r0, [r1, #4]
	.loc	5 1546 48 is_stmt 1             @ libraries/STM32H7xx_HAL/STM32H7xx_HAL_Driver/Src/stm32h7xx_hal_rtc.c:1546:48
	ldr	r0, [sp, #4]
	.loc	5 1546 92 is_stmt 0             @ libraries/STM32H7xx_HAL/STM32H7xx_HAL_Driver/Src/stm32h7xx_hal_rtc.c:1546:92
	ubfx	r0, r0, #24, #6
	.loc	5 1546 5                        @ libraries/STM32H7xx_HAL/STM32H7xx_HAL_Driver/Src/stm32h7xx_hal_rtc.c:1546:5
	ldr	r1, [sp, #16]
	.loc	5 1546 34                       @ libraries/STM32H7xx_HAL/STM32H7xx_HAL_Driver/Src/stm32h7xx_hal_rtc.c:1546:34
	strb.w	r0, [r1, #32]
	.loc	5 1547 48 is_stmt 1             @ libraries/STM32H7xx_HAL/STM32H7xx_HAL_Driver/Src/stm32h7xx_hal_rtc.c:1547:48
	ldr	r0, [sp, #4]
	.loc	5 1547 55 is_stmt 0             @ libraries/STM32H7xx_HAL/STM32H7xx_HAL_Driver/Src/stm32h7xx_hal_rtc.c:1547:55
	and	r0, r0, #1073741824
	.loc	5 1547 5                        @ libraries/STM32H7xx_HAL/STM32H7xx_HAL_Driver/Src/stm32h7xx_hal_rtc.c:1547:5
	ldr	r1, [sp, #16]
	.loc	5 1547 34                       @ libraries/STM32H7xx_HAL/STM32H7xx_HAL_Driver/Src/stm32h7xx_hal_rtc.c:1547:34
	str	r0, [r1, #28]
	.loc	5 1548 48 is_stmt 1             @ libraries/STM32H7xx_HAL/STM32H7xx_HAL_Driver/Src/stm32h7xx_hal_rtc.c:1548:48
	ldr	r0, [sp, #4]
	.loc	5 1548 55 is_stmt 0             @ libraries/STM32H7xx_HAL/STM32H7xx_HAL_Driver/Src/stm32h7xx_hal_rtc.c:1548:55
	bic	r0, r0, #2139062143
	.loc	5 1548 5                        @ libraries/STM32H7xx_HAL/STM32H7xx_HAL_Driver/Src/stm32h7xx_hal_rtc.c:1548:5
	ldr	r1, [sp, #16]
	.loc	5 1548 34                       @ libraries/STM32H7xx_HAL/STM32H7xx_HAL_Driver/Src/stm32h7xx_hal_rtc.c:1548:34
	str	r0, [r1, #20]
	.loc	5 1549 3 is_stmt 1              @ libraries/STM32H7xx_HAL/STM32H7xx_HAL_Driver/Src/stm32h7xx_hal_rtc.c:1549:3
	b	.LBB15_3
.Ltmp327:
.LBB15_2:
	.loc	5 1552 5                        @ libraries/STM32H7xx_HAL/STM32H7xx_HAL_Driver/Src/stm32h7xx_hal_rtc.c:1552:5
	ldr	r1, [sp, #16]
	mov.w	r0, #512
	.loc	5 1552 19 is_stmt 0             @ libraries/STM32H7xx_HAL/STM32H7xx_HAL_Driver/Src/stm32h7xx_hal_rtc.c:1552:19
	str	r0, [r1, #36]
	.loc	5 1554 25 is_stmt 1             @ libraries/STM32H7xx_HAL/STM32H7xx_HAL_Driver/Src/stm32h7xx_hal_rtc.c:1554:25
	ldr	r0, [sp, #20]
	.loc	5 1554 31 is_stmt 0             @ libraries/STM32H7xx_HAL/STM32H7xx_HAL_Driver/Src/stm32h7xx_hal_rtc.c:1554:31
	ldr	r0, [r0]
	.loc	5 1554 41                       @ libraries/STM32H7xx_HAL/STM32H7xx_HAL_Driver/Src/stm32h7xx_hal_rtc.c:1554:41
	ldr	r0, [r0, #32]
	.loc	5 1554 12                       @ libraries/STM32H7xx_HAL/STM32H7xx_HAL_Driver/Src/stm32h7xx_hal_rtc.c:1554:12
	str	r0, [sp, #4]
	.loc	5 1555 35 is_stmt 1             @ libraries/STM32H7xx_HAL/STM32H7xx_HAL_Driver/Src/stm32h7xx_hal_rtc.c:1555:35
	ldr	r0, [sp, #20]
	.loc	5 1555 41 is_stmt 0             @ libraries/STM32H7xx_HAL/STM32H7xx_HAL_Driver/Src/stm32h7xx_hal_rtc.c:1555:41
	ldr	r0, [r0]
	.loc	5 1555 51                       @ libraries/STM32H7xx_HAL/STM32H7xx_HAL_Driver/Src/stm32h7xx_hal_rtc.c:1555:51
	ldr	r0, [r0, #72]
	.loc	5 1555 61                       @ libraries/STM32H7xx_HAL/STM32H7xx_HAL_Driver/Src/stm32h7xx_hal_rtc.c:1555:61
	bfc	r0, #15, #17
	.loc	5 1555 21                       @ libraries/STM32H7xx_HAL/STM32H7xx_HAL_Driver/Src/stm32h7xx_hal_rtc.c:1555:21
	str	r0, [sp]
	.loc	5 1558 48 is_stmt 1             @ libraries/STM32H7xx_HAL/STM32H7xx_HAL_Driver/Src/stm32h7xx_hal_rtc.c:1558:48
	ldr	r0, [sp, #4]
	.loc	5 1558 92 is_stmt 0             @ libraries/STM32H7xx_HAL/STM32H7xx_HAL_Driver/Src/stm32h7xx_hal_rtc.c:1558:92
	ubfx	r0, r0, #16, #6
	.loc	5 1558 5                        @ libraries/STM32H7xx_HAL/STM32H7xx_HAL_Driver/Src/stm32h7xx_hal_rtc.c:1558:5
	ldr	r1, [sp, #16]
	.loc	5 1558 34                       @ libraries/STM32H7xx_HAL/STM32H7xx_HAL_Driver/Src/stm32h7xx_hal_rtc.c:1558:34
	strb	r0, [r1]
	.loc	5 1559 48 is_stmt 1             @ libraries/STM32H7xx_HAL/STM32H7xx_HAL_Driver/Src/stm32h7xx_hal_rtc.c:1559:48
	ldr	r0, [sp, #4]
	.loc	5 1559 92 is_stmt 0             @ libraries/STM32H7xx_HAL/STM32H7xx_HAL_Driver/Src/stm32h7xx_hal_rtc.c:1559:92
	ubfx	r0, r0, #8, #7
	.loc	5 1559 5                        @ libraries/STM32H7xx_HAL/STM32H7xx_HAL_Driver/Src/stm32h7xx_hal_rtc.c:1559:5
	ldr	r1, [sp, #16]
	.loc	5 1559 34                       @ libraries/STM32H7xx_HAL/STM32H7xx_HAL_Driver/Src/stm32h7xx_hal_rtc.c:1559:34
	strb	r0, [r1, #1]
	.loc	5 1560 48 is_stmt 1             @ libraries/STM32H7xx_HAL/STM32H7xx_HAL_Driver/Src/stm32h7xx_hal_rtc.c:1560:48
	ldr	r0, [sp, #4]
	.loc	5 1560 55 is_stmt 0             @ libraries/STM32H7xx_HAL/STM32H7xx_HAL_Driver/Src/stm32h7xx_hal_rtc.c:1560:55
	and	r0, r0, #127
	.loc	5 1560 5                        @ libraries/STM32H7xx_HAL/STM32H7xx_HAL_Driver/Src/stm32h7xx_hal_rtc.c:1560:5
	ldr	r1, [sp, #16]
	.loc	5 1560 34                       @ libraries/STM32H7xx_HAL/STM32H7xx_HAL_Driver/Src/stm32h7xx_hal_rtc.c:1560:34
	strb	r0, [r1, #2]
	.loc	5 1561 48 is_stmt 1             @ libraries/STM32H7xx_HAL/STM32H7xx_HAL_Driver/Src/stm32h7xx_hal_rtc.c:1561:48
	ldr	r0, [sp, #4]
	.loc	5 1561 92 is_stmt 0             @ libraries/STM32H7xx_HAL/STM32H7xx_HAL_Driver/Src/stm32h7xx_hal_rtc.c:1561:92
	ubfx	r0, r0, #22, #1
	.loc	5 1561 5                        @ libraries/STM32H7xx_HAL/STM32H7xx_HAL_Driver/Src/stm32h7xx_hal_rtc.c:1561:5
	ldr	r1, [sp, #16]
	.loc	5 1561 34                       @ libraries/STM32H7xx_HAL/STM32H7xx_HAL_Driver/Src/stm32h7xx_hal_rtc.c:1561:34
	strb	r0, [r1, #3]
	.loc	5 1562 47 is_stmt 1             @ libraries/STM32H7xx_HAL/STM32H7xx_HAL_Driver/Src/stm32h7xx_hal_rtc.c:1562:47
	ldr	r0, [sp]
	.loc	5 1562 5 is_stmt 0              @ libraries/STM32H7xx_HAL/STM32H7xx_HAL_Driver/Src/stm32h7xx_hal_rtc.c:1562:5
	ldr	r1, [sp, #16]
	.loc	5 1562 34                       @ libraries/STM32H7xx_HAL/STM32H7xx_HAL_Driver/Src/stm32h7xx_hal_rtc.c:1562:34
	str	r0, [r1, #4]
	.loc	5 1563 48 is_stmt 1             @ libraries/STM32H7xx_HAL/STM32H7xx_HAL_Driver/Src/stm32h7xx_hal_rtc.c:1563:48
	ldr	r0, [sp, #4]
	.loc	5 1563 92 is_stmt 0             @ libraries/STM32H7xx_HAL/STM32H7xx_HAL_Driver/Src/stm32h7xx_hal_rtc.c:1563:92
	ubfx	r0, r0, #24, #6
	.loc	5 1563 5                        @ libraries/STM32H7xx_HAL/STM32H7xx_HAL_Driver/Src/stm32h7xx_hal_rtc.c:1563:5
	ldr	r1, [sp, #16]
	.loc	5 1563 34                       @ libraries/STM32H7xx_HAL/STM32H7xx_HAL_Driver/Src/stm32h7xx_hal_rtc.c:1563:34
	strb.w	r0, [r1, #32]
	.loc	5 1564 48 is_stmt 1             @ libraries/STM32H7xx_HAL/STM32H7xx_HAL_Driver/Src/stm32h7xx_hal_rtc.c:1564:48
	ldr	r0, [sp, #4]
	.loc	5 1564 55 is_stmt 0             @ libraries/STM32H7xx_HAL/STM32H7xx_HAL_Driver/Src/stm32h7xx_hal_rtc.c:1564:55
	and	r0, r0, #1073741824
	.loc	5 1564 5                        @ libraries/STM32H7xx_HAL/STM32H7xx_HAL_Driver/Src/stm32h7xx_hal_rtc.c:1564:5
	ldr	r1, [sp, #16]
	.loc	5 1564 34                       @ libraries/STM32H7xx_HAL/STM32H7xx_HAL_Driver/Src/stm32h7xx_hal_rtc.c:1564:34
	str	r0, [r1, #28]
	.loc	5 1565 48 is_stmt 1             @ libraries/STM32H7xx_HAL/STM32H7xx_HAL_Driver/Src/stm32h7xx_hal_rtc.c:1565:48
	ldr	r0, [sp, #4]
	.loc	5 1565 55 is_stmt 0             @ libraries/STM32H7xx_HAL/STM32H7xx_HAL_Driver/Src/stm32h7xx_hal_rtc.c:1565:55
	bic	r0, r0, #2139062143
	.loc	5 1565 5                        @ libraries/STM32H7xx_HAL/STM32H7xx_HAL_Driver/Src/stm32h7xx_hal_rtc.c:1565:5
	ldr	r1, [sp, #16]
	.loc	5 1565 34                       @ libraries/STM32H7xx_HAL/STM32H7xx_HAL_Driver/Src/stm32h7xx_hal_rtc.c:1565:34
	str	r0, [r1, #20]
	b	.LBB15_3
.Ltmp328:
.LBB15_3:
	.loc	5 1568 6 is_stmt 1              @ libraries/STM32H7xx_HAL/STM32H7xx_HAL_Driver/Src/stm32h7xx_hal_rtc.c:1568:6
	ldr	r0, [sp, #8]
.Ltmp329:
	.loc	5 1568 6 is_stmt 0              @ libraries/STM32H7xx_HAL/STM32H7xx_HAL_Driver/Src/stm32h7xx_hal_rtc.c:1568:6
	cbnz	r0, .LBB15_5
	b	.LBB15_4
.LBB15_4:
.Ltmp330:
	.loc	5 1570 48 is_stmt 1             @ libraries/STM32H7xx_HAL/STM32H7xx_HAL_Driver/Src/stm32h7xx_hal_rtc.c:1570:48
	ldr	r0, [sp, #16]
	.loc	5 1570 66 is_stmt 0             @ libraries/STM32H7xx_HAL/STM32H7xx_HAL_Driver/Src/stm32h7xx_hal_rtc.c:1570:66
	ldrb	r0, [r0]
	.loc	5 1570 33                       @ libraries/STM32H7xx_HAL/STM32H7xx_HAL_Driver/Src/stm32h7xx_hal_rtc.c:1570:33
	bl	RTC_Bcd2ToByte
	.loc	5 1570 5                        @ libraries/STM32H7xx_HAL/STM32H7xx_HAL_Driver/Src/stm32h7xx_hal_rtc.c:1570:5
	ldr	r1, [sp, #16]
	.loc	5 1570 31                       @ libraries/STM32H7xx_HAL/STM32H7xx_HAL_Driver/Src/stm32h7xx_hal_rtc.c:1570:31
	strb	r0, [r1]
	.loc	5 1571 48 is_stmt 1             @ libraries/STM32H7xx_HAL/STM32H7xx_HAL_Driver/Src/stm32h7xx_hal_rtc.c:1571:48
	ldr	r0, [sp, #16]
	.loc	5 1571 66 is_stmt 0             @ libraries/STM32H7xx_HAL/STM32H7xx_HAL_Driver/Src/stm32h7xx_hal_rtc.c:1571:66
	ldrb	r0, [r0, #1]
	.loc	5 1571 33                       @ libraries/STM32H7xx_HAL/STM32H7xx_HAL_Driver/Src/stm32h7xx_hal_rtc.c:1571:33
	bl	RTC_Bcd2ToByte
	.loc	5 1571 5                        @ libraries/STM32H7xx_HAL/STM32H7xx_HAL_Driver/Src/stm32h7xx_hal_rtc.c:1571:5
	ldr	r1, [sp, #16]
	.loc	5 1571 31                       @ libraries/STM32H7xx_HAL/STM32H7xx_HAL_Driver/Src/stm32h7xx_hal_rtc.c:1571:31
	strb	r0, [r1, #1]
	.loc	5 1572 48 is_stmt 1             @ libraries/STM32H7xx_HAL/STM32H7xx_HAL_Driver/Src/stm32h7xx_hal_rtc.c:1572:48
	ldr	r0, [sp, #16]
	.loc	5 1572 66 is_stmt 0             @ libraries/STM32H7xx_HAL/STM32H7xx_HAL_Driver/Src/stm32h7xx_hal_rtc.c:1572:66
	ldrb	r0, [r0, #2]
	.loc	5 1572 33                       @ libraries/STM32H7xx_HAL/STM32H7xx_HAL_Driver/Src/stm32h7xx_hal_rtc.c:1572:33
	bl	RTC_Bcd2ToByte
	.loc	5 1572 5                        @ libraries/STM32H7xx_HAL/STM32H7xx_HAL_Driver/Src/stm32h7xx_hal_rtc.c:1572:5
	ldr	r1, [sp, #16]
	.loc	5 1572 31                       @ libraries/STM32H7xx_HAL/STM32H7xx_HAL_Driver/Src/stm32h7xx_hal_rtc.c:1572:31
	strb	r0, [r1, #2]
	.loc	5 1573 48 is_stmt 1             @ libraries/STM32H7xx_HAL/STM32H7xx_HAL_Driver/Src/stm32h7xx_hal_rtc.c:1573:48
	ldr	r0, [sp, #16]
	.loc	5 1573 56 is_stmt 0             @ libraries/STM32H7xx_HAL/STM32H7xx_HAL_Driver/Src/stm32h7xx_hal_rtc.c:1573:56
	ldrb.w	r0, [r0, #32]
	.loc	5 1573 33                       @ libraries/STM32H7xx_HAL/STM32H7xx_HAL_Driver/Src/stm32h7xx_hal_rtc.c:1573:33
	bl	RTC_Bcd2ToByte
	.loc	5 1573 5                        @ libraries/STM32H7xx_HAL/STM32H7xx_HAL_Driver/Src/stm32h7xx_hal_rtc.c:1573:5
	ldr	r1, [sp, #16]
	.loc	5 1573 31                       @ libraries/STM32H7xx_HAL/STM32H7xx_HAL_Driver/Src/stm32h7xx_hal_rtc.c:1573:31
	strb.w	r0, [r1, #32]
	.loc	5 1574 3 is_stmt 1              @ libraries/STM32H7xx_HAL/STM32H7xx_HAL_Driver/Src/stm32h7xx_hal_rtc.c:1574:3
	b	.LBB15_5
.Ltmp331:
.LBB15_5:
	.loc	5 0 3 is_stmt 0                 @ libraries/STM32H7xx_HAL/STM32H7xx_HAL_Driver/Src/stm32h7xx_hal_rtc.c:0:3
	movs	r0, #0
	.loc	5 1576 3 is_stmt 1              @ libraries/STM32H7xx_HAL/STM32H7xx_HAL_Driver/Src/stm32h7xx_hal_rtc.c:1576:3
	add	sp, #24
	pop	{r7, pc}
.Ltmp332:
.Lfunc_end15:
	.size	HAL_RTC_GetAlarm, .Lfunc_end15-HAL_RTC_GetAlarm
	.cfi_endproc
	.cantunwind
	.fnend
                                        @ -- End function
	.section	.text.HAL_RTC_AlarmIRQHandler,"ax",%progbits
	.hidden	HAL_RTC_AlarmIRQHandler         @ -- Begin function HAL_RTC_AlarmIRQHandler
	.globl	HAL_RTC_AlarmIRQHandler
	.p2align	3
	.type	HAL_RTC_AlarmIRQHandler,%function
	.code	16                              @ @HAL_RTC_AlarmIRQHandler
	.thumb_func
HAL_RTC_AlarmIRQHandler:
.Lfunc_begin16:
	.loc	5 1585 0                        @ libraries/STM32H7xx_HAL/STM32H7xx_HAL_Driver/Src/stm32h7xx_hal_rtc.c:1585:0
	.fnstart
	.cfi_startproc
@ %bb.0:
	.save	{r7, lr}
	push	{r7, lr}
	.cfi_def_cfa_offset 8
	.cfi_offset lr, -4
	.cfi_offset r7, -8
	.pad	#8
	sub	sp, #8
	.cfi_def_cfa_offset 16
	str	r0, [sp, #4]
	movs	r1, #136
	movt	r1, #22528
	mov.w	r0, #131072
.Ltmp333:
	.loc	5 1598 5 prologue_end           @ libraries/STM32H7xx_HAL/STM32H7xx_HAL_Driver/Src/stm32h7xx_hal_rtc.c:1598:5
	str	r0, [r1]
.Ltmp334:
	.loc	5 1602 6                        @ libraries/STM32H7xx_HAL/STM32H7xx_HAL_Driver/Src/stm32h7xx_hal_rtc.c:1602:6
	ldr	r0, [sp, #4]
	ldr	r0, [r0]
	ldr	r0, [r0, #8]
	and	r1, r0, #4096
	movs	r0, #0
.Ltmp335:
	.loc	5 1602 6 is_stmt 0              @ libraries/STM32H7xx_HAL/STM32H7xx_HAL_Driver/Src/stm32h7xx_hal_rtc.c:1602:6
	cmp.w	r0, r1, lsr #12
	beq	.LBB16_4
	b	.LBB16_1
.LBB16_1:
.Ltmp336:
	.loc	5 1605 8 is_stmt 1              @ libraries/STM32H7xx_HAL/STM32H7xx_HAL_Driver/Src/stm32h7xx_hal_rtc.c:1605:8
	ldr	r0, [sp, #4]
	ldr	r0, [r0]
	ldr	r0, [r0, #12]
	and	r1, r0, #256
	movs	r0, #0
.Ltmp337:
	.loc	5 1605 8 is_stmt 0              @ libraries/STM32H7xx_HAL/STM32H7xx_HAL_Driver/Src/stm32h7xx_hal_rtc.c:1605:8
	cmp.w	r0, r1, lsr #8
	beq	.LBB16_3
	b	.LBB16_2
.LBB16_2:
.Ltmp338:
	.loc	5 1608 7 is_stmt 1              @ libraries/STM32H7xx_HAL/STM32H7xx_HAL_Driver/Src/stm32h7xx_hal_rtc.c:1608:7
	ldr	r0, [sp, #4]
	ldr	r0, [r0]
	ldr	r0, [r0, #12]
	orn	r0, r0, #384
	bic	r0, r0, #256
	ldr	r1, [sp, #4]
	ldr	r1, [r1]
	str	r0, [r1, #12]
	.loc	5 1614 35                       @ libraries/STM32H7xx_HAL/STM32H7xx_HAL_Driver/Src/stm32h7xx_hal_rtc.c:1614:35
	ldr	r0, [sp, #4]
	.loc	5 1614 7 is_stmt 0              @ libraries/STM32H7xx_HAL/STM32H7xx_HAL_Driver/Src/stm32h7xx_hal_rtc.c:1614:7
	bl	HAL_RTC_AlarmAEventCallback
	.loc	5 1616 5 is_stmt 1              @ libraries/STM32H7xx_HAL/STM32H7xx_HAL_Driver/Src/stm32h7xx_hal_rtc.c:1616:5
	b	.LBB16_3
.Ltmp339:
.LBB16_3:
	.loc	5 1617 3                        @ libraries/STM32H7xx_HAL/STM32H7xx_HAL_Driver/Src/stm32h7xx_hal_rtc.c:1617:3
	b	.LBB16_4
.Ltmp340:
.LBB16_4:
	.loc	5 1620 6                        @ libraries/STM32H7xx_HAL/STM32H7xx_HAL_Driver/Src/stm32h7xx_hal_rtc.c:1620:6
	ldr	r0, [sp, #4]
	ldr	r0, [r0]
	ldr	r0, [r0, #8]
	and	r1, r0, #8192
	movs	r0, #0
.Ltmp341:
	.loc	5 1620 6 is_stmt 0              @ libraries/STM32H7xx_HAL/STM32H7xx_HAL_Driver/Src/stm32h7xx_hal_rtc.c:1620:6
	cmp.w	r0, r1, lsr #13
	beq	.LBB16_8
	b	.LBB16_5
.LBB16_5:
.Ltmp342:
	.loc	5 1623 8 is_stmt 1              @ libraries/STM32H7xx_HAL/STM32H7xx_HAL_Driver/Src/stm32h7xx_hal_rtc.c:1623:8
	ldr	r0, [sp, #4]
	ldr	r0, [r0]
	ldr	r0, [r0, #12]
	and	r1, r0, #512
	movs	r0, #0
.Ltmp343:
	.loc	5 1623 8 is_stmt 0              @ libraries/STM32H7xx_HAL/STM32H7xx_HAL_Driver/Src/stm32h7xx_hal_rtc.c:1623:8
	cmp.w	r0, r1, lsr #9
	beq	.LBB16_7
	b	.LBB16_6
.LBB16_6:
.Ltmp344:
	.loc	5 1626 7 is_stmt 1              @ libraries/STM32H7xx_HAL/STM32H7xx_HAL_Driver/Src/stm32h7xx_hal_rtc.c:1626:7
	ldr	r0, [sp, #4]
	ldr	r0, [r0]
	ldr	r0, [r0, #12]
	orn	r0, r0, #640
	bic	r0, r0, #512
	ldr	r1, [sp, #4]
	ldr	r1, [r1]
	str	r0, [r1, #12]
	.loc	5 1632 37                       @ libraries/STM32H7xx_HAL/STM32H7xx_HAL_Driver/Src/stm32h7xx_hal_rtc.c:1632:37
	ldr	r0, [sp, #4]
	.loc	5 1632 7 is_stmt 0              @ libraries/STM32H7xx_HAL/STM32H7xx_HAL_Driver/Src/stm32h7xx_hal_rtc.c:1632:7
	bl	HAL_RTCEx_AlarmBEventCallback
	.loc	5 1634 5 is_stmt 1              @ libraries/STM32H7xx_HAL/STM32H7xx_HAL_Driver/Src/stm32h7xx_hal_rtc.c:1634:5
	b	.LBB16_7
.Ltmp345:
.LBB16_7:
	.loc	5 1635 3                        @ libraries/STM32H7xx_HAL/STM32H7xx_HAL_Driver/Src/stm32h7xx_hal_rtc.c:1635:3
	b	.LBB16_8
.Ltmp346:
.LBB16_8:
	.loc	5 1638 3                        @ libraries/STM32H7xx_HAL/STM32H7xx_HAL_Driver/Src/stm32h7xx_hal_rtc.c:1638:3
	ldr	r1, [sp, #4]
	movs	r0, #1
	.loc	5 1638 15 is_stmt 0             @ libraries/STM32H7xx_HAL/STM32H7xx_HAL_Driver/Src/stm32h7xx_hal_rtc.c:1638:15
	strb.w	r0, [r1, #33]
	.loc	5 1639 1 is_stmt 1              @ libraries/STM32H7xx_HAL/STM32H7xx_HAL_Driver/Src/stm32h7xx_hal_rtc.c:1639:1
	add	sp, #8
	pop	{r7, pc}
.Ltmp347:
.Lfunc_end16:
	.size	HAL_RTC_AlarmIRQHandler, .Lfunc_end16-HAL_RTC_AlarmIRQHandler
	.cfi_endproc
	.cantunwind
	.fnend
                                        @ -- End function
	.section	.text.HAL_RTC_AlarmAEventCallback,"ax",%progbits
	.hidden	HAL_RTC_AlarmAEventCallback     @ -- Begin function HAL_RTC_AlarmAEventCallback
	.weak	HAL_RTC_AlarmAEventCallback
	.p2align	3
	.type	HAL_RTC_AlarmAEventCallback,%function
	.code	16                              @ @HAL_RTC_AlarmAEventCallback
	.thumb_func
HAL_RTC_AlarmAEventCallback:
.Lfunc_begin17:
	.loc	5 1647 0                        @ libraries/STM32H7xx_HAL/STM32H7xx_HAL_Driver/Src/stm32h7xx_hal_rtc.c:1647:0
	.fnstart
	.cfi_startproc
@ %bb.0:
	.pad	#4
	sub	sp, #4
	.cfi_def_cfa_offset 4
	str	r0, [sp]
.Ltmp348:
	.loc	5 1654 1 prologue_end           @ libraries/STM32H7xx_HAL/STM32H7xx_HAL_Driver/Src/stm32h7xx_hal_rtc.c:1654:1
	add	sp, #4
	bx	lr
.Ltmp349:
.Lfunc_end17:
	.size	HAL_RTC_AlarmAEventCallback, .Lfunc_end17-HAL_RTC_AlarmAEventCallback
	.cfi_endproc
	.cantunwind
	.fnend
                                        @ -- End function
	.section	.text.HAL_RTC_PollForAlarmAEvent,"ax",%progbits
	.hidden	HAL_RTC_PollForAlarmAEvent      @ -- Begin function HAL_RTC_PollForAlarmAEvent
	.globl	HAL_RTC_PollForAlarmAEvent
	.p2align	3
	.type	HAL_RTC_PollForAlarmAEvent,%function
	.code	16                              @ @HAL_RTC_PollForAlarmAEvent
	.thumb_func
HAL_RTC_PollForAlarmAEvent:
.Lfunc_begin18:
	.loc	5 1663 0                        @ libraries/STM32H7xx_HAL/STM32H7xx_HAL_Driver/Src/stm32h7xx_hal_rtc.c:1663:0
	.fnstart
	.cfi_startproc
@ %bb.0:
	.save	{r7, lr}
	push	{r7, lr}
	.cfi_def_cfa_offset 8
	.cfi_offset lr, -4
	.cfi_offset r7, -8
	.pad	#16
	sub	sp, #16
	.cfi_def_cfa_offset 24
	str	r0, [sp, #8]
	str	r1, [sp, #4]
.Ltmp350:
	.loc	5 1665 24 prologue_end          @ libraries/STM32H7xx_HAL/STM32H7xx_HAL_Driver/Src/stm32h7xx_hal_rtc.c:1665:24
	bl	HAL_GetTick
	.loc	5 1665 12 is_stmt 0             @ libraries/STM32H7xx_HAL/STM32H7xx_HAL_Driver/Src/stm32h7xx_hal_rtc.c:1665:12
	str	r0, [sp]
	.loc	5 1667 3 is_stmt 1              @ libraries/STM32H7xx_HAL/STM32H7xx_HAL_Driver/Src/stm32h7xx_hal_rtc.c:1667:3
	b	.LBB18_1
.LBB18_1:                               @ =>This Inner Loop Header: Depth=1
	.loc	5 1667 9 is_stmt 0              @ libraries/STM32H7xx_HAL/STM32H7xx_HAL_Driver/Src/stm32h7xx_hal_rtc.c:1667:9
	ldr	r0, [sp, #8]
	ldr	r0, [r0]
	ldr	r0, [r0, #12]
	and	r1, r0, #256
	movs	r0, #0
	.loc	5 1667 3                        @ libraries/STM32H7xx_HAL/STM32H7xx_HAL_Driver/Src/stm32h7xx_hal_rtc.c:1667:3
	cmp.w	r0, r1, lsr #8
	bne	.LBB18_8
	b	.LBB18_2
.LBB18_2:                               @   in Loop: Header=BB18_1 Depth=1
.Ltmp351:
	.loc	5 1669 8 is_stmt 1              @ libraries/STM32H7xx_HAL/STM32H7xx_HAL_Driver/Src/stm32h7xx_hal_rtc.c:1669:8
	ldr	r0, [sp, #4]
.Ltmp352:
	.loc	5 1669 8 is_stmt 0              @ libraries/STM32H7xx_HAL/STM32H7xx_HAL_Driver/Src/stm32h7xx_hal_rtc.c:1669:8
	adds	r0, #1
	cbz	r0, .LBB18_7
	b	.LBB18_3
.LBB18_3:                               @   in Loop: Header=BB18_1 Depth=1
.Ltmp353:
	.loc	5 1671 12 is_stmt 1             @ libraries/STM32H7xx_HAL/STM32H7xx_HAL_Driver/Src/stm32h7xx_hal_rtc.c:1671:12
	bl	HAL_GetTick
	.loc	5 1671 28 is_stmt 0             @ libraries/STM32H7xx_HAL/STM32H7xx_HAL_Driver/Src/stm32h7xx_hal_rtc.c:1671:28
	ldr	r1, [sp]
	.loc	5 1671 26                       @ libraries/STM32H7xx_HAL/STM32H7xx_HAL_Driver/Src/stm32h7xx_hal_rtc.c:1671:26
	subs	r0, r0, r1
	.loc	5 1671 42                       @ libraries/STM32H7xx_HAL/STM32H7xx_HAL_Driver/Src/stm32h7xx_hal_rtc.c:1671:42
	ldr	r1, [sp, #4]
	.loc	5 1671 51                       @ libraries/STM32H7xx_HAL/STM32H7xx_HAL_Driver/Src/stm32h7xx_hal_rtc.c:1671:51
	cmp	r0, r1
	bhi	.LBB18_5
	b	.LBB18_4
.LBB18_4:                               @   in Loop: Header=BB18_1 Depth=1
	.loc	5 1671 55                       @ libraries/STM32H7xx_HAL/STM32H7xx_HAL_Driver/Src/stm32h7xx_hal_rtc.c:1671:55
	ldr	r0, [sp, #4]
.Ltmp354:
	.loc	5 1671 10                       @ libraries/STM32H7xx_HAL/STM32H7xx_HAL_Driver/Src/stm32h7xx_hal_rtc.c:1671:10
	cbnz	r0, .LBB18_6
	b	.LBB18_5
.LBB18_5:
.Ltmp355:
	.loc	5 1673 9 is_stmt 1              @ libraries/STM32H7xx_HAL/STM32H7xx_HAL_Driver/Src/stm32h7xx_hal_rtc.c:1673:9
	ldr	r1, [sp, #8]
	movs	r0, #3
	.loc	5 1673 21 is_stmt 0             @ libraries/STM32H7xx_HAL/STM32H7xx_HAL_Driver/Src/stm32h7xx_hal_rtc.c:1673:21
	strb.w	r0, [r1, #33]
	.loc	5 1674 9 is_stmt 1              @ libraries/STM32H7xx_HAL/STM32H7xx_HAL_Driver/Src/stm32h7xx_hal_rtc.c:1674:9
	strb.w	r0, [sp, #15]
	b	.LBB18_9
.Ltmp356:
.LBB18_6:                               @   in Loop: Header=BB18_1 Depth=1
	.loc	5 1676 5                        @ libraries/STM32H7xx_HAL/STM32H7xx_HAL_Driver/Src/stm32h7xx_hal_rtc.c:1676:5
	b	.LBB18_7
.Ltmp357:
.LBB18_7:                               @   in Loop: Header=BB18_1 Depth=1
	.loc	5 1667 3                        @ libraries/STM32H7xx_HAL/STM32H7xx_HAL_Driver/Src/stm32h7xx_hal_rtc.c:1667:3
	b	.LBB18_1
.LBB18_8:
	.loc	5 1680 3                        @ libraries/STM32H7xx_HAL/STM32H7xx_HAL_Driver/Src/stm32h7xx_hal_rtc.c:1680:3
	ldr	r0, [sp, #8]
	ldr	r0, [r0]
	ldr	r0, [r0, #12]
	orn	r0, r0, #384
	bic	r0, r0, #256
	ldr	r1, [sp, #8]
	ldr	r1, [r1]
	str	r0, [r1, #12]
	.loc	5 1683 3                        @ libraries/STM32H7xx_HAL/STM32H7xx_HAL_Driver/Src/stm32h7xx_hal_rtc.c:1683:3
	ldr	r1, [sp, #8]
	movs	r0, #1
	.loc	5 1683 15 is_stmt 0             @ libraries/STM32H7xx_HAL/STM32H7xx_HAL_Driver/Src/stm32h7xx_hal_rtc.c:1683:15
	strb.w	r0, [r1, #33]
	movs	r0, #0
	.loc	5 1685 3 is_stmt 1              @ libraries/STM32H7xx_HAL/STM32H7xx_HAL_Driver/Src/stm32h7xx_hal_rtc.c:1685:3
	strb.w	r0, [sp, #15]
	b	.LBB18_9
.LBB18_9:
	.loc	5 1686 1                        @ libraries/STM32H7xx_HAL/STM32H7xx_HAL_Driver/Src/stm32h7xx_hal_rtc.c:1686:1
	ldrb.w	r0, [sp, #15]
	add	sp, #16
	pop	{r7, pc}
.Ltmp358:
.Lfunc_end18:
	.size	HAL_RTC_PollForAlarmAEvent, .Lfunc_end18-HAL_RTC_PollForAlarmAEvent
	.cfi_endproc
	.cantunwind
	.fnend
                                        @ -- End function
	.section	.text.HAL_RTC_GetState,"ax",%progbits
	.hidden	HAL_RTC_GetState                @ -- Begin function HAL_RTC_GetState
	.globl	HAL_RTC_GetState
	.p2align	3
	.type	HAL_RTC_GetState,%function
	.code	16                              @ @HAL_RTC_GetState
	.thumb_func
HAL_RTC_GetState:
.Lfunc_begin19:
	.loc	5 1766 0                        @ libraries/STM32H7xx_HAL/STM32H7xx_HAL_Driver/Src/stm32h7xx_hal_rtc.c:1766:0
	.fnstart
	.cfi_startproc
@ %bb.0:
	.pad	#4
	sub	sp, #4
	.cfi_def_cfa_offset 4
	str	r0, [sp]
.Ltmp359:
	.loc	5 1768 10 prologue_end          @ libraries/STM32H7xx_HAL/STM32H7xx_HAL_Driver/Src/stm32h7xx_hal_rtc.c:1768:10
	ldr	r0, [sp]
	.loc	5 1768 16 is_stmt 0             @ libraries/STM32H7xx_HAL/STM32H7xx_HAL_Driver/Src/stm32h7xx_hal_rtc.c:1768:16
	ldrb.w	r0, [r0, #33]
	.loc	5 1768 3                        @ libraries/STM32H7xx_HAL/STM32H7xx_HAL_Driver/Src/stm32h7xx_hal_rtc.c:1768:3
	add	sp, #4
	bx	lr
.Ltmp360:
.Lfunc_end19:
	.size	HAL_RTC_GetState, .Lfunc_end19-HAL_RTC_GetState
	.cfi_endproc
	.cantunwind
	.fnend
                                        @ -- End function
	.section	".note.GNU-stack","",%progbits
	.eabi_attribute	30, 6	@ Tag_ABI_optimization_goals
	.ARM_attribute	16, 1	@ Tag_AV_eba