	.text
	.syntax unified
	.eabi_attribute	67, "2.09"	@ Tag_conformance
	.cpu	cortex-m7
	.eabi_attribute	6, 13	@ Tag_CPU_arch
	.eabi_attribute	7, 77	@ Tag_CPU_arch_profile
	.eabi_attribute	8, 0	@ Tag_ARM_ISA_use
	.eabi_attribute	9, 2	@ Tag_THUMB_ISA_use
	.fpu	fpv5-d16
	.eabi_attribute	36, 1	@ Tag_FP_HP_extension
	.eabi_attribute	34, 1	@ Tag_CPU_unaligned_access
	.eabi_attribute	17, 1	@ Tag_ABI_PCS_GOT_use
	.eabi_attribute	20, 2	@ Tag_ABI_FP_denormal
	.eabi_attribute	21, 0	@ Tag_ABI_FP_exceptions
	.eabi_attribute	23, 1	@ Tag_ABI_FP_number_model
	.eabi_attribute	24, 1	@ Tag_ABI_align_needed
	.eabi_attribute	25, 1	@ Tag_ABI_align_preserved
	.eabi_attribute	28, 1	@ Tag_ABI_VFP_args
	.eabi_attribute	38, 1	@ Tag_ABI_FP_16bit_format
	.eabi_attribute	18, 2	@ Tag_ABI_PCS_wchar_t
	.eabi_attribute	26, 1	@ Tag_ABI_enum_size
	.eabi_attribute	14, 0	@ Tag_ABI_PCS_R9_use
	.file	"stm32h7xx_hal_dma_ex.c"
	.file	1 "E:\\STM32\\Learning\\STM32H750_ART_PI_RGBLCD" "libraries/STM32H7xx_HAL/STM32H7xx_HAL_Driver/Inc/stm32h7xx_hal_def.h"
	.file	2 "E:\\STM32\\Learning\\STM32H750_ART_PI_RGBLCD" "libraries/STM32H7xx_HAL/STM32H7xx_HAL_Driver/Inc\\stm32h7xx_hal_dma.h"
	.file	3 "E:\\STM32\\Learning\\STM32H750_ART_PI_RGBLCD" "libraries/STM32H7xx_HAL/STM32H7xx_HAL_Driver/Inc/stm32h7xx_hal_dma_ex.h"
	.file	4 "E:\\STM32\\Learning\\STM32H750_ART_PI_RGBLCD" "libraries/STM32H7xx_HAL/CMSIS/Device/ST/STM32H7xx/Include\\stm32h7xx.h"
	.file	5 "D:\\Keil_v5\\ARM\\ARMCLANG\\Bin\\..\\include" "stdint.h"
	.file	6 "E:\\STM32\\Learning\\STM32H750_ART_PI_RGBLCD" "libraries/STM32H7xx_HAL/CMSIS/Device/ST/STM32H7xx/Include/stm32h750xx.h"
	.section	.text.HAL_DMAEx_MultiBufferStart,"ax",%progbits
	.hidden	HAL_DMAEx_MultiBufferStart      @ -- Begin function HAL_DMAEx_MultiBufferStart
	.globl	HAL_DMAEx_MultiBufferStart
	.p2align	3
	.type	HAL_DMAEx_MultiBufferStart,%function
	.code	16                              @ @HAL_DMAEx_MultiBufferStart
	.thumb_func
HAL_DMAEx_MultiBufferStart:
.Lfunc_begin0:
	.file	7 "E:\\STM32\\Learning\\STM32H750_ART_PI_RGBLCD" "libraries/STM32H7xx_HAL/STM32H7xx_HAL_Driver/Src/stm32h7xx_hal_dma_ex.c"
	.loc	7 122 0                         @ libraries/STM32H7xx_HAL/STM32H7xx_HAL_Driver/Src/stm32h7xx_hal_dma_ex.c:122:0
	.fnstart
	.cfi_sections .debug_frame
	.cfi_startproc
@ %bb.0:
	.save	{r7, lr}
	push	{r7, lr}
	.cfi_def_cfa_offset 8
	.cfi_offset lr, -4
	.cfi_offset r7, -8
	.pad	#32
	sub	sp, #32
	.cfi_def_cfa_offset 40
	ldr.w	r12, [sp, #40]
	str	r0, [sp, #24]
	str	r1, [sp, #20]
	str	r2, [sp, #16]
	str	r3, [sp, #12]
	movs	r0, #0
.Ltmp0:
	.loc	7 123 21 prologue_end           @ libraries/STM32H7xx_HAL/STM32H7xx_HAL_Driver/Src/stm32h7xx_hal_dma_ex.c:123:21
	strb.w	r0, [sp, #11]
.Ltmp1:
	.loc	7 131 7                         @ libraries/STM32H7xx_HAL/STM32H7xx_HAL_Driver/Src/stm32h7xx_hal_dma_ex.c:131:7
	ldr	r0, [sp, #24]
	.loc	7 131 18 is_stmt 0              @ libraries/STM32H7xx_HAL/STM32H7xx_HAL_Driver/Src/stm32h7xx_hal_dma_ex.c:131:18
	ldr	r0, [r0, #8]
.Ltmp2:
	.loc	7 131 7                         @ libraries/STM32H7xx_HAL/STM32H7xx_HAL_Driver/Src/stm32h7xx_hal_dma_ex.c:131:7
	cmp	r0, #128
	bne	.LBB0_2
	b	.LBB0_1
.LBB0_1:
.Ltmp3:
	.loc	7 133 5 is_stmt 1               @ libraries/STM32H7xx_HAL/STM32H7xx_HAL_Driver/Src/stm32h7xx_hal_dma_ex.c:133:5
	ldr	r1, [sp, #24]
	mov.w	r0, #256
	.loc	7 133 21 is_stmt 0              @ libraries/STM32H7xx_HAL/STM32H7xx_HAL_Driver/Src/stm32h7xx_hal_dma_ex.c:133:21
	str	r0, [r1, #84]
	movs	r0, #1
	.loc	7 134 12 is_stmt 1              @ libraries/STM32H7xx_HAL/STM32H7xx_HAL_Driver/Src/stm32h7xx_hal_dma_ex.c:134:12
	strb.w	r0, [sp, #11]
	.loc	7 135 3                         @ libraries/STM32H7xx_HAL/STM32H7xx_HAL_Driver/Src/stm32h7xx_hal_dma_ex.c:135:3
	b	.LBB0_50
.Ltmp4:
.LBB0_2:
	.loc	7 139 5                         @ libraries/STM32H7xx_HAL/STM32H7xx_HAL_Driver/Src/stm32h7xx_hal_dma_ex.c:139:5
	b	.LBB0_3
.LBB0_3:
.Ltmp5:
	.loc	7 139 5 is_stmt 0               @ libraries/STM32H7xx_HAL/STM32H7xx_HAL_Driver/Src/stm32h7xx_hal_dma_ex.c:139:5
	ldr	r0, [sp, #24]
	ldrb.w	r0, [r0, #52]
.Ltmp6:
	.loc	7 139 5                         @ libraries/STM32H7xx_HAL/STM32H7xx_HAL_Driver/Src/stm32h7xx_hal_dma_ex.c:139:5
	cmp	r0, #1
	bne	.LBB0_5
	b	.LBB0_4
.LBB0_4:
	.loc	7 0 5                           @ libraries/STM32H7xx_HAL/STM32H7xx_HAL_Driver/Src/stm32h7xx_hal_dma_ex.c:0:5
	movs	r0, #2
.Ltmp7:
	.loc	7 139 5                         @ libraries/STM32H7xx_HAL/STM32H7xx_HAL_Driver/Src/stm32h7xx_hal_dma_ex.c:139:5
	strb.w	r0, [sp, #31]
	b	.LBB0_51
.Ltmp8:
.LBB0_5:
	.loc	7 139 5                         @ libraries/STM32H7xx_HAL/STM32H7xx_HAL_Driver/Src/stm32h7xx_hal_dma_ex.c:139:5
	ldr	r1, [sp, #24]
	movs	r0, #1
	strb.w	r0, [r1, #52]
	b	.LBB0_6
.Ltmp9:
.LBB0_6:
	.loc	7 139 5                         @ libraries/STM32H7xx_HAL/STM32H7xx_HAL_Driver/Src/stm32h7xx_hal_dma_ex.c:139:5
	b	.LBB0_7
.Ltmp10:
.LBB0_7:
	.loc	7 141 31 is_stmt 1              @ libraries/STM32H7xx_HAL/STM32H7xx_HAL_Driver/Src/stm32h7xx_hal_dma_ex.c:141:31
	ldr	r0, [sp, #24]
	.loc	7 141 37 is_stmt 0              @ libraries/STM32H7xx_HAL/STM32H7xx_HAL_Driver/Src/stm32h7xx_hal_dma_ex.c:141:37
	ldrb.w	r0, [r0, #53]
.Ltmp11:
	.loc	7 141 8                         @ libraries/STM32H7xx_HAL/STM32H7xx_HAL_Driver/Src/stm32h7xx_hal_dma_ex.c:141:8
	cmp	r0, #1
	bne.w	.LBB0_48
	b	.LBB0_8
.LBB0_8:
.Ltmp12:
	.loc	7 144 7 is_stmt 1               @ libraries/STM32H7xx_HAL/STM32H7xx_HAL_Driver/Src/stm32h7xx_hal_dma_ex.c:144:7
	ldr	r1, [sp, #24]
	movs	r0, #2
	.loc	7 144 19 is_stmt 0              @ libraries/STM32H7xx_HAL/STM32H7xx_HAL_Driver/Src/stm32h7xx_hal_dma_ex.c:144:19
	strb.w	r0, [r1, #53]
	.loc	7 147 7 is_stmt 1               @ libraries/STM32H7xx_HAL/STM32H7xx_HAL_Driver/Src/stm32h7xx_hal_dma_ex.c:147:7
	ldr	r1, [sp, #24]
	movs	r0, #0
	.loc	7 147 23 is_stmt 0              @ libraries/STM32H7xx_HAL/STM32H7xx_HAL_Driver/Src/stm32h7xx_hal_dma_ex.c:147:23
	str	r0, [r1, #84]
.Ltmp13:
	.loc	7 149 10 is_stmt 1              @ libraries/STM32H7xx_HAL/STM32H7xx_HAL_Driver/Src/stm32h7xx_hal_dma_ex.c:149:10
	ldr	r0, [sp, #24]
	ldr	r1, [r0]
	movs	r0, #1
	movs	r2, #16
	movt	r2, #16386
	cmp	r1, r2
	str	r0, [sp]                        @ 4-byte Spill
	beq.w	.LBB0_24
	b	.LBB0_9
.LBB0_9:
	ldr	r0, [sp, #24]
	ldr	r1, [r0]
	movs	r0, #1
	movs	r2, #40
	movt	r2, #16386
	cmp	r1, r2
	str	r0, [sp]                        @ 4-byte Spill
	beq.w	.LBB0_24
	b	.LBB0_10
.LBB0_10:
	ldr	r0, [sp, #24]
	ldr	r1, [r0]
	movs	r0, #1
	movs	r2, #64
	movt	r2, #16386
	cmp	r1, r2
	str	r0, [sp]                        @ 4-byte Spill
	beq.w	.LBB0_24
	b	.LBB0_11
.LBB0_11:
	ldr	r0, [sp, #24]
	ldr	r1, [r0]
	movs	r0, #1
	movs	r2, #88
	movt	r2, #16386
	cmp	r1, r2
	str	r0, [sp]                        @ 4-byte Spill
	beq.w	.LBB0_24
	b	.LBB0_12
.LBB0_12:
	ldr	r0, [sp, #24]
	ldr	r1, [r0]
	movs	r0, #1
	movs	r2, #112
	movt	r2, #16386
	cmp	r1, r2
	str	r0, [sp]                        @ 4-byte Spill
	beq	.LBB0_24
	b	.LBB0_13
.LBB0_13:
	ldr	r0, [sp, #24]
	ldr	r1, [r0]
	movs	r0, #1
	movs	r2, #136
	movt	r2, #16386
	cmp	r1, r2
	str	r0, [sp]                        @ 4-byte Spill
	beq	.LBB0_24
	b	.LBB0_14
.LBB0_14:
	ldr	r0, [sp, #24]
	ldr	r1, [r0]
	movs	r0, #1
	movs	r2, #160
	movt	r2, #16386
	cmp	r1, r2
	str	r0, [sp]                        @ 4-byte Spill
	beq	.LBB0_24
	b	.LBB0_15
.LBB0_15:
	ldr	r0, [sp, #24]
	ldr	r1, [r0]
	movs	r0, #1
	movs	r2, #184
	movt	r2, #16386
	cmp	r1, r2
	str	r0, [sp]                        @ 4-byte Spill
	beq	.LBB0_24
	b	.LBB0_16
.LBB0_16:
	ldr	r0, [sp, #24]
	ldr	r1, [r0]
	movs	r0, #1
	movw	r2, #1040
	movt	r2, #16386
	cmp	r1, r2
	str	r0, [sp]                        @ 4-byte Spill
	beq	.LBB0_24
	b	.LBB0_17
.LBB0_17:
	ldr	r0, [sp, #24]
	ldr	r1, [r0]
	movs	r0, #1
	movw	r2, #1064
	movt	r2, #16386
	cmp	r1, r2
	str	r0, [sp]                        @ 4-byte Spill
	beq	.LBB0_24
	b	.LBB0_18
.LBB0_18:
	ldr	r0, [sp, #24]
	ldr	r1, [r0]
	movs	r0, #1
	movw	r2, #1088
	movt	r2, #16386
	cmp	r1, r2
	str	r0, [sp]                        @ 4-byte Spill
	beq	.LBB0_24
	b	.LBB0_19
.LBB0_19:
	ldr	r0, [sp, #24]
	ldr	r1, [r0]
	movs	r0, #1
	movw	r2, #1112
	movt	r2, #16386
	cmp	r1, r2
	str	r0, [sp]                        @ 4-byte Spill
	beq	.LBB0_24
	b	.LBB0_20
.LBB0_20:
	ldr	r0, [sp, #24]
	ldr	r1, [r0]
	movs	r0, #1
	movw	r2, #1136
	movt	r2, #16386
	cmp	r1, r2
	str	r0, [sp]                        @ 4-byte Spill
	beq	.LBB0_24
	b	.LBB0_21
.LBB0_21:
	ldr	r0, [sp, #24]
	ldr	r1, [r0]
	movs	r0, #1
	movw	r2, #1160
	movt	r2, #16386
	cmp	r1, r2
	str	r0, [sp]                        @ 4-byte Spill
	beq	.LBB0_24
	b	.LBB0_22
.LBB0_22:
	ldr	r0, [sp, #24]
	ldr	r1, [r0]
	movs	r0, #1
	movw	r2, #1184
	movt	r2, #16386
	cmp	r1, r2
	str	r0, [sp]                        @ 4-byte Spill
	beq	.LBB0_24
	b	.LBB0_23
.LBB0_23:
	ldr	r0, [sp, #24]
	ldr	r0, [r0]
	movw	r1, #64328
	movt	r1, #49149
	add	r0, r1
	clz	r0, r0
	lsrs	r0, r0, #5
	str	r0, [sp]                        @ 4-byte Spill
	b	.LBB0_24
.Ltmp14:
.LBB0_24:
	.loc	7 0 10 is_stmt 0                @ libraries/STM32H7xx_HAL/STM32H7xx_HAL_Driver/Src/stm32h7xx_hal_dma_ex.c:0:10
	ldr	r0, [sp]                        @ 4-byte Reload
	.loc	7 149 10                        @ libraries/STM32H7xx_HAL/STM32H7xx_HAL_Driver/Src/stm32h7xx_hal_dma_ex.c:149:10
	lsls	r0, r0, #31
	cbz	r0, .LBB0_26
	b	.LBB0_25
.LBB0_25:
.Ltmp15:
	.loc	7 152 34 is_stmt 1              @ libraries/STM32H7xx_HAL/STM32H7xx_HAL_Driver/Src/stm32h7xx_hal_dma_ex.c:152:34
	ldr	r0, [sp, #24]
	.loc	7 152 40 is_stmt 0              @ libraries/STM32H7xx_HAL/STM32H7xx_HAL_Driver/Src/stm32h7xx_hal_dma_ex.c:152:40
	ldr	r1, [r0]
	.loc	7 152 54                        @ libraries/STM32H7xx_HAL/STM32H7xx_HAL_Driver/Src/stm32h7xx_hal_dma_ex.c:152:54
	ldr	r0, [r1]
	orr	r0, r0, #262144
	str	r0, [r1]
	.loc	7 155 58 is_stmt 1              @ libraries/STM32H7xx_HAL/STM32H7xx_HAL_Driver/Src/stm32h7xx_hal_dma_ex.c:155:58
	ldr	r0, [sp, #12]
	.loc	7 155 34 is_stmt 0              @ libraries/STM32H7xx_HAL/STM32H7xx_HAL_Driver/Src/stm32h7xx_hal_dma_ex.c:155:34
	ldr	r1, [sp, #24]
	.loc	7 155 40                        @ libraries/STM32H7xx_HAL/STM32H7xx_HAL_Driver/Src/stm32h7xx_hal_dma_ex.c:155:40
	ldr	r1, [r1]
	.loc	7 155 56                        @ libraries/STM32H7xx_HAL/STM32H7xx_HAL_Driver/Src/stm32h7xx_hal_dma_ex.c:155:56
	str	r0, [r1, #16]
	.loc	7 158 52 is_stmt 1              @ libraries/STM32H7xx_HAL/STM32H7xx_HAL_Driver/Src/stm32h7xx_hal_dma_ex.c:158:52
	ldr	r0, [sp, #24]
	.loc	7 158 58 is_stmt 0              @ libraries/STM32H7xx_HAL/STM32H7xx_HAL_Driver/Src/stm32h7xx_hal_dma_ex.c:158:58
	ldr	r0, [r0, #88]
	.loc	7 158 76                        @ libraries/STM32H7xx_HAL/STM32H7xx_HAL_Driver/Src/stm32h7xx_hal_dma_ex.c:158:76
	adds	r0, #8
	.loc	7 158 26                        @ libraries/STM32H7xx_HAL/STM32H7xx_HAL_Driver/Src/stm32h7xx_hal_dma_ex.c:158:26
	str	r0, [sp, #4]
	.loc	7 161 40 is_stmt 1              @ libraries/STM32H7xx_HAL/STM32H7xx_HAL_Driver/Src/stm32h7xx_hal_dma_ex.c:161:40
	ldr	r0, [sp, #24]
	.loc	7 161 46 is_stmt 0              @ libraries/STM32H7xx_HAL/STM32H7xx_HAL_Driver/Src/stm32h7xx_hal_dma_ex.c:161:46
	ldr	r0, [r0, #92]
	.loc	7 161 58                        @ libraries/STM32H7xx_HAL/STM32H7xx_HAL_Driver/Src/stm32h7xx_hal_dma_ex.c:161:58
	and	r1, r0, #31
	movs	r0, #63
	.loc	7 161 36                        @ libraries/STM32H7xx_HAL/STM32H7xx_HAL_Driver/Src/stm32h7xx_hal_dma_ex.c:161:36
	lsls	r0, r1
	.loc	7 161 10                        @ libraries/STM32H7xx_HAL/STM32H7xx_HAL_Driver/Src/stm32h7xx_hal_dma_ex.c:161:10
	ldr	r1, [sp, #4]
	.loc	7 161 27                        @ libraries/STM32H7xx_HAL/STM32H7xx_HAL_Driver/Src/stm32h7xx_hal_dma_ex.c:161:27
	str	r0, [r1]
	.loc	7 162 7 is_stmt 1               @ libraries/STM32H7xx_HAL/STM32H7xx_HAL_Driver/Src/stm32h7xx_hal_dma_ex.c:162:7
	b	.LBB0_27
.Ltmp16:
.LBB0_26:
	.loc	7 166 36                        @ libraries/STM32H7xx_HAL/STM32H7xx_HAL_Driver/Src/stm32h7xx_hal_dma_ex.c:166:36
	ldr	r0, [sp, #24]
	.loc	7 166 42 is_stmt 0              @ libraries/STM32H7xx_HAL/STM32H7xx_HAL_Driver/Src/stm32h7xx_hal_dma_ex.c:166:42
	ldr	r1, [r0]
	.loc	7 166 57                        @ libraries/STM32H7xx_HAL/STM32H7xx_HAL_Driver/Src/stm32h7xx_hal_dma_ex.c:166:57
	ldr	r0, [r1]
	movw	r2, #32800
	orrs	r0, r2
	str	r0, [r1]
	.loc	7 169 61 is_stmt 1              @ libraries/STM32H7xx_HAL/STM32H7xx_HAL_Driver/Src/stm32h7xx_hal_dma_ex.c:169:61
	ldr	r0, [sp, #12]
	.loc	7 169 36 is_stmt 0              @ libraries/STM32H7xx_HAL/STM32H7xx_HAL_Driver/Src/stm32h7xx_hal_dma_ex.c:169:36
	ldr	r1, [sp, #24]
	.loc	7 169 42                        @ libraries/STM32H7xx_HAL/STM32H7xx_HAL_Driver/Src/stm32h7xx_hal_dma_ex.c:169:42
	ldr	r1, [r1]
	.loc	7 169 59                        @ libraries/STM32H7xx_HAL/STM32H7xx_HAL_Driver/Src/stm32h7xx_hal_dma_ex.c:169:59
	str	r0, [r1, #16]
	.loc	7 172 52 is_stmt 1              @ libraries/STM32H7xx_HAL/STM32H7xx_HAL_Driver/Src/stm32h7xx_hal_dma_ex.c:172:52
	ldr	r0, [sp, #24]
	.loc	7 172 58 is_stmt 0              @ libraries/STM32H7xx_HAL/STM32H7xx_HAL_Driver/Src/stm32h7xx_hal_dma_ex.c:172:58
	ldr	r0, [r0, #88]
	.loc	7 172 76                        @ libraries/STM32H7xx_HAL/STM32H7xx_HAL_Driver/Src/stm32h7xx_hal_dma_ex.c:172:76
	adds	r0, #4
	.loc	7 172 26                        @ libraries/STM32H7xx_HAL/STM32H7xx_HAL_Driver/Src/stm32h7xx_hal_dma_ex.c:172:26
	str	r0, [sp, #4]
	.loc	7 175 49 is_stmt 1              @ libraries/STM32H7xx_HAL/STM32H7xx_HAL_Driver/Src/stm32h7xx_hal_dma_ex.c:175:49
	ldr	r0, [sp, #24]
	.loc	7 175 55 is_stmt 0              @ libraries/STM32H7xx_HAL/STM32H7xx_HAL_Driver/Src/stm32h7xx_hal_dma_ex.c:175:55
	ldr	r0, [r0, #92]
	.loc	7 175 67                        @ libraries/STM32H7xx_HAL/STM32H7xx_HAL_Driver/Src/stm32h7xx_hal_dma_ex.c:175:67
	and	r1, r0, #31
	movs	r0, #1
	.loc	7 175 45                        @ libraries/STM32H7xx_HAL/STM32H7xx_HAL_Driver/Src/stm32h7xx_hal_dma_ex.c:175:45
	lsls	r0, r1
	.loc	7 175 10                        @ libraries/STM32H7xx_HAL/STM32H7xx_HAL_Driver/Src/stm32h7xx_hal_dma_ex.c:175:10
	ldr	r1, [sp, #4]
	.loc	7 175 27                        @ libraries/STM32H7xx_HAL/STM32H7xx_HAL_Driver/Src/stm32h7xx_hal_dma_ex.c:175:27
	str	r0, [r1]
	b	.LBB0_27
.Ltmp17:
.LBB0_27:
	.loc	7 179 32 is_stmt 1              @ libraries/STM32H7xx_HAL/STM32H7xx_HAL_Driver/Src/stm32h7xx_hal_dma_ex.c:179:32
	ldr	r0, [sp, #24]
	.loc	7 179 38 is_stmt 0              @ libraries/STM32H7xx_HAL/STM32H7xx_HAL_Driver/Src/stm32h7xx_hal_dma_ex.c:179:38
	ldr	r1, [sp, #20]
	.loc	7 179 50                        @ libraries/STM32H7xx_HAL/STM32H7xx_HAL_Driver/Src/stm32h7xx_hal_dma_ex.c:179:50
	ldr	r2, [sp, #16]
	.loc	7 179 62                        @ libraries/STM32H7xx_HAL/STM32H7xx_HAL_Driver/Src/stm32h7xx_hal_dma_ex.c:179:62
	ldr	r3, [sp, #40]
	.loc	7 179 7                         @ libraries/STM32H7xx_HAL/STM32H7xx_HAL_Driver/Src/stm32h7xx_hal_dma_ex.c:179:7
	bl	DMA_MultiBufferSetConfig
	.loc	7 182 40 is_stmt 1              @ libraries/STM32H7xx_HAL/STM32H7xx_HAL_Driver/Src/stm32h7xx_hal_dma_ex.c:182:40
	ldr	r0, [sp, #24]
	.loc	7 182 13 is_stmt 0              @ libraries/STM32H7xx_HAL/STM32H7xx_HAL_Driver/Src/stm32h7xx_hal_dma_ex.c:182:13
	ldr	r1, [r0, #100]
	.loc	7 182 46                        @ libraries/STM32H7xx_HAL/STM32H7xx_HAL_Driver/Src/stm32h7xx_hal_dma_ex.c:182:46
	ldr	r0, [r0, #104]
	.loc	7 182 38                        @ libraries/STM32H7xx_HAL/STM32H7xx_HAL_Driver/Src/stm32h7xx_hal_dma_ex.c:182:38
	str	r0, [r1, #4]
.Ltmp18:
	.loc	7 184 10 is_stmt 1              @ libraries/STM32H7xx_HAL/STM32H7xx_HAL_Driver/Src/stm32h7xx_hal_dma_ex.c:184:10
	ldr	r0, [sp, #24]
	.loc	7 184 16 is_stmt 0              @ libraries/STM32H7xx_HAL/STM32H7xx_HAL_Driver/Src/stm32h7xx_hal_dma_ex.c:184:16
	ldr	r0, [r0, #108]
.Ltmp19:
	.loc	7 184 10                        @ libraries/STM32H7xx_HAL/STM32H7xx_HAL_Driver/Src/stm32h7xx_hal_dma_ex.c:184:10
	cbz	r0, .LBB0_29
	b	.LBB0_28
.LBB0_28:
.Ltmp20:
	.loc	7 187 47 is_stmt 1              @ libraries/STM32H7xx_HAL/STM32H7xx_HAL_Driver/Src/stm32h7xx_hal_dma_ex.c:187:47
	ldr	r0, [sp, #24]
	.loc	7 187 15 is_stmt 0              @ libraries/STM32H7xx_HAL/STM32H7xx_HAL_Driver/Src/stm32h7xx_hal_dma_ex.c:187:15
	ldr	r1, [r0, #112]
	.loc	7 187 53                        @ libraries/STM32H7xx_HAL/STM32H7xx_HAL_Driver/Src/stm32h7xx_hal_dma_ex.c:187:53
	ldr	r0, [r0, #116]
	.loc	7 187 45                        @ libraries/STM32H7xx_HAL/STM32H7xx_HAL_Driver/Src/stm32h7xx_hal_dma_ex.c:187:45
	str	r0, [r1, #4]
	.loc	7 188 7 is_stmt 1               @ libraries/STM32H7xx_HAL/STM32H7xx_HAL_Driver/Src/stm32h7xx_hal_dma_ex.c:188:7
	b	.LBB0_29
.Ltmp21:
.LBB0_29:
	.loc	7 191 7                         @ libraries/STM32H7xx_HAL/STM32H7xx_HAL_Driver/Src/stm32h7xx_hal_dma_ex.c:191:7
	ldr	r0, [sp, #24]
	ldr	r0, [r0]
	movs	r1, #16
	movt	r1, #16386
	cmp	r0, r1
	beq.w	.LBB0_45
	b	.LBB0_30
.LBB0_30:
	ldr	r0, [sp, #24]
	ldr	r0, [r0]
	movs	r1, #40
	movt	r1, #16386
	cmp	r0, r1
	beq	.LBB0_45
	b	.LBB0_31
.LBB0_31:
	ldr	r0, [sp, #24]
	ldr	r0, [r0]
	movs	r1, #64
	movt	r1, #16386
	cmp	r0, r1
	beq	.LBB0_45
	b	.LBB0_32
.LBB0_32:
	ldr	r0, [sp, #24]
	ldr	r0, [r0]
	movs	r1, #88
	movt	r1, #16386
	cmp	r0, r1
	beq	.LBB0_45
	b	.LBB0_33
.LBB0_33:
	ldr	r0, [sp, #24]
	ldr	r0, [r0]
	movs	r1, #112
	movt	r1, #16386
	cmp	r0, r1
	beq	.LBB0_45
	b	.LBB0_34
.LBB0_34:
	ldr	r0, [sp, #24]
	ldr	r0, [r0]
	movs	r1, #136
	movt	r1, #16386
	cmp	r0, r1
	beq	.LBB0_45
	b	.LBB0_35
.LBB0_35:
	ldr	r0, [sp, #24]
	ldr	r0, [r0]
	movs	r1, #160
	movt	r1, #16386
	cmp	r0, r1
	beq	.LBB0_45
	b	.LBB0_36
.LBB0_36:
	ldr	r0, [sp, #24]
	ldr	r0, [r0]
	movs	r1, #184
	movt	r1, #16386
	cmp	r0, r1
	beq	.LBB0_45
	b	.LBB0_37
.LBB0_37:
	ldr	r0, [sp, #24]
	ldr	r0, [r0]
	movw	r1, #1040
	movt	r1, #16386
	cmp	r0, r1
	beq	.LBB0_45
	b	.LBB0_38
.LBB0_38:
	ldr	r0, [sp, #24]
	ldr	r0, [r0]
	movw	r1, #1064
	movt	r1, #16386
	cmp	r0, r1
	beq	.LBB0_45
	b	.LBB0_39
.LBB0_39:
	ldr	r0, [sp, #24]
	ldr	r0, [r0]
	movw	r1, #1088
	movt	r1, #16386
	cmp	r0, r1
	beq	.LBB0_45
	b	.LBB0_40
.LBB0_40:
	ldr	r0, [sp, #24]
	ldr	r0, [r0]
	movw	r1, #1112
	movt	r1, #16386
	cmp	r0, r1
	beq	.LBB0_45
	b	.LBB0_41
.LBB0_41:
	ldr	r0, [sp, #24]
	ldr	r0, [r0]
	movw	r1, #1136
	movt	r1, #16386
	cmp	r0, r1
	beq	.LBB0_45
	b	.LBB0_42
.LBB0_42:
	ldr	r0, [sp, #24]
	ldr	r0, [r0]
	movw	r1, #1160
	movt	r1, #16386
	cmp	r0, r1
	beq	.LBB0_45
	b	.LBB0_43
.LBB0_43:
	ldr	r0, [sp, #24]
	ldr	r0, [r0]
	movw	r1, #1184
	movt	r1, #16386
	cmp	r0, r1
	beq	.LBB0_45
	b	.LBB0_44
.LBB0_44:
	ldr	r0, [sp, #24]
	ldr	r0, [r0]
	movw	r1, #1208
	movt	r1, #16386
	cmp	r0, r1
	bne	.LBB0_46
	b	.LBB0_45
.LBB0_45:
	ldr	r0, [sp, #24]
	ldr	r1, [r0]
	ldr	r0, [r1]
	orr	r0, r0, #1
                                        @ kill: def $r2 killed $r0
	str	r0, [r1]
	b	.LBB0_47
.LBB0_46:
	ldr	r0, [sp, #24]
	ldr	r1, [r0]
	ldr	r0, [r1]
	orr	r0, r0, #1
                                        @ kill: def $r2 killed $r0
	str	r0, [r1]
	b	.LBB0_47
.LBB0_47:
	.loc	7 192 5                         @ libraries/STM32H7xx_HAL/STM32H7xx_HAL_Driver/Src/stm32h7xx_hal_dma_ex.c:192:5
	b	.LBB0_49
.Ltmp22:
.LBB0_48:
	.loc	7 196 7                         @ libraries/STM32H7xx_HAL/STM32H7xx_HAL_Driver/Src/stm32h7xx_hal_dma_ex.c:196:7
	ldr	r1, [sp, #24]
	mov.w	r0, #2048
	.loc	7 196 23 is_stmt 0              @ libraries/STM32H7xx_HAL/STM32H7xx_HAL_Driver/Src/stm32h7xx_hal_dma_ex.c:196:23
	str	r0, [r1, #84]
	movs	r0, #1
	.loc	7 199 14 is_stmt 1              @ libraries/STM32H7xx_HAL/STM32H7xx_HAL_Driver/Src/stm32h7xx_hal_dma_ex.c:199:14
	strb.w	r0, [sp, #11]
	b	.LBB0_49
.Ltmp23:
.LBB0_49:
	.loc	7 0 14 is_stmt 0                @ libraries/STM32H7xx_HAL/STM32H7xx_HAL_Driver/Src/stm32h7xx_hal_dma_ex.c:0:14
	b	.LBB0_50
.LBB0_50:
	.loc	7 202 10 is_stmt 1              @ libraries/STM32H7xx_HAL/STM32H7xx_HAL_Driver/Src/stm32h7xx_hal_dma_ex.c:202:10
	ldrb.w	r0, [sp, #11]
	.loc	7 202 3 is_stmt 0               @ libraries/STM32H7xx_HAL/STM32H7xx_HAL_Driver/Src/stm32h7xx_hal_dma_ex.c:202:3
	strb.w	r0, [sp, #31]
	b	.LBB0_51
.LBB0_51:
	.loc	7 203 1 is_stmt 1               @ libraries/STM32H7xx_HAL/STM32H7xx_HAL_Driver/Src/stm32h7xx_hal_dma_ex.c:203:1
	ldrb.w	r0, [sp, #31]
	add	sp, #32
	pop	{r7, pc}
.Ltmp24:
.Lfunc_end0:
	.size	HAL_DMAEx_MultiBufferStart, .Lfunc_end0-HAL_DMAEx_MultiBufferStart
	.cfi_endproc
	.cantunwind
	.fnend
                                        @ -- End function
	.section	.text.DMA_MultiBufferSetConfig,"ax",%progbits
	.p2align	3                               @ -- Begin function DMA_MultiBufferSetConfig
	.type	DMA_MultiBufferSetConfig,%function
	.code	16                              @ @DMA_MultiBufferSetConfig
	.thumb_func
DMA_MultiBufferSetConfig:
.Lfunc_begin1:
	.loc	7 641 0                         @ libraries/STM32H7xx_HAL/STM32H7xx_HAL_Driver/Src/stm32h7xx_hal_dma_ex.c:641:0
	.fnstart
	.cfi_startproc
@ %bb.0:
	.pad	#20
	sub	sp, #20
	.cfi_def_cfa_offset 20
	str	r0, [sp, #16]
	str	r1, [sp, #12]
	str	r2, [sp, #8]
	str	r3, [sp, #4]
.Ltmp25:
	.loc	7 642 6 prologue_end            @ libraries/STM32H7xx_HAL/STM32H7xx_HAL_Driver/Src/stm32h7xx_hal_dma_ex.c:642:6
	ldr	r0, [sp, #16]
	ldr	r1, [r0]
	movs	r0, #1
	movs	r2, #16
	movt	r2, #16386
	cmp	r1, r2
	str	r0, [sp]                        @ 4-byte Spill
	beq.w	.LBB1_16
	b	.LBB1_1
.LBB1_1:
	ldr	r0, [sp, #16]
	ldr	r1, [r0]
	movs	r0, #1
	movs	r2, #40
	movt	r2, #16386
	cmp	r1, r2
	str	r0, [sp]                        @ 4-byte Spill
	beq.w	.LBB1_16
	b	.LBB1_2
.LBB1_2:
	ldr	r0, [sp, #16]
	ldr	r1, [r0]
	movs	r0, #1
	movs	r2, #64
	movt	r2, #16386
	cmp	r1, r2
	str	r0, [sp]                        @ 4-byte Spill
	beq.w	.LBB1_16
	b	.LBB1_3
.LBB1_3:
	ldr	r0, [sp, #16]
	ldr	r1, [r0]
	movs	r0, #1
	movs	r2, #88
	movt	r2, #16386
	cmp	r1, r2
	str	r0, [sp]                        @ 4-byte Spill
	beq.w	.LBB1_16
	b	.LBB1_4
.LBB1_4:
	ldr	r0, [sp, #16]
	ldr	r1, [r0]
	movs	r0, #1
	movs	r2, #112
	movt	r2, #16386
	cmp	r1, r2
	str	r0, [sp]                        @ 4-byte Spill
	beq	.LBB1_16
	b	.LBB1_5
.LBB1_5:
	ldr	r0, [sp, #16]
	ldr	r1, [r0]
	movs	r0, #1
	movs	r2, #136
	movt	r2, #16386
	cmp	r1, r2
	str	r0, [sp]                        @ 4-byte Spill
	beq	.LBB1_16
	b	.LBB1_6
.LBB1_6:
	ldr	r0, [sp, #16]
	ldr	r1, [r0]
	movs	r0, #1
	movs	r2, #160
	movt	r2, #16386
	cmp	r1, r2
	str	r0, [sp]                        @ 4-byte Spill
	beq	.LBB1_16
	b	.LBB1_7
.LBB1_7:
	ldr	r0, [sp, #16]
	ldr	r1, [r0]
	movs	r0, #1
	movs	r2, #184
	movt	r2, #16386
	cmp	r1, r2
	str	r0, [sp]                        @ 4-byte Spill
	beq	.LBB1_16
	b	.LBB1_8
.LBB1_8:
	ldr	r0, [sp, #16]
	ldr	r1, [r0]
	movs	r0, #1
	movw	r2, #1040
	movt	r2, #16386
	cmp	r1, r2
	str	r0, [sp]                        @ 4-byte Spill
	beq	.LBB1_16
	b	.LBB1_9
.LBB1_9:
	ldr	r0, [sp, #16]
	ldr	r1, [r0]
	movs	r0, #1
	movw	r2, #1064
	movt	r2, #16386
	cmp	r1, r2
	str	r0, [sp]                        @ 4-byte Spill
	beq	.LBB1_16
	b	.LBB1_10
.LBB1_10:
	ldr	r0, [sp, #16]
	ldr	r1, [r0]
	movs	r0, #1
	movw	r2, #1088
	movt	r2, #16386
	cmp	r1, r2
	str	r0, [sp]                        @ 4-byte Spill
	beq	.LBB1_16
	b	.LBB1_11
.LBB1_11:
	ldr	r0, [sp, #16]
	ldr	r1, [r0]
	movs	r0, #1
	movw	r2, #1112
	movt	r2, #16386
	cmp	r1, r2
	str	r0, [sp]                        @ 4-byte Spill
	beq	.LBB1_16
	b	.LBB1_12
.LBB1_12:
	ldr	r0, [sp, #16]
	ldr	r1, [r0]
	movs	r0, #1
	movw	r2, #1136
	movt	r2, #16386
	cmp	r1, r2
	str	r0, [sp]                        @ 4-byte Spill
	beq	.LBB1_16
	b	.LBB1_13
.LBB1_13:
	ldr	r0, [sp, #16]
	ldr	r1, [r0]
	movs	r0, #1
	movw	r2, #1160
	movt	r2, #16386
	cmp	r1, r2
	str	r0, [sp]                        @ 4-byte Spill
	beq	.LBB1_16
	b	.LBB1_14
.LBB1_14:
	ldr	r0, [sp, #16]
	ldr	r1, [r0]
	movs	r0, #1
	movw	r2, #1184
	movt	r2, #16386
	cmp	r1, r2
	str	r0, [sp]                        @ 4-byte Spill
	beq	.LBB1_16
	b	.LBB1_15
.LBB1_15:
	ldr	r0, [sp, #16]
	ldr	r0, [r0]
	movw	r1, #64328
	movt	r1, #49149
	add	r0, r1
	clz	r0, r0
	lsrs	r0, r0, #5
	str	r0, [sp]                        @ 4-byte Spill
	b	.LBB1_16
.Ltmp26:
.LBB1_16:
	.loc	7 0 6 is_stmt 0                 @ libraries/STM32H7xx_HAL/STM32H7xx_HAL_Driver/Src/stm32h7xx_hal_dma_ex.c:0:6
	ldr	r0, [sp]                        @ 4-byte Reload
	.loc	7 642 6                         @ libraries/STM32H7xx_HAL/STM32H7xx_HAL_Driver/Src/stm32h7xx_hal_dma_ex.c:642:6
	lsls	r0, r0, #31
	cbz	r0, .LBB1_21
	b	.LBB1_17
.LBB1_17:
.Ltmp27:
	.loc	7 645 54 is_stmt 1              @ libraries/STM32H7xx_HAL/STM32H7xx_HAL_Driver/Src/stm32h7xx_hal_dma_ex.c:645:54
	ldr	r0, [sp, #4]
	.loc	7 645 30 is_stmt 0              @ libraries/STM32H7xx_HAL/STM32H7xx_HAL_Driver/Src/stm32h7xx_hal_dma_ex.c:645:30
	ldr	r1, [sp, #16]
	.loc	7 645 36                        @ libraries/STM32H7xx_HAL/STM32H7xx_HAL_Driver/Src/stm32h7xx_hal_dma_ex.c:645:36
	ldr	r1, [r1]
	.loc	7 645 52                        @ libraries/STM32H7xx_HAL/STM32H7xx_HAL_Driver/Src/stm32h7xx_hal_dma_ex.c:645:52
	str	r0, [r1, #4]
.Ltmp28:
	.loc	7 648 9 is_stmt 1               @ libraries/STM32H7xx_HAL/STM32H7xx_HAL_Driver/Src/stm32h7xx_hal_dma_ex.c:648:9
	ldr	r0, [sp, #16]
	.loc	7 648 20 is_stmt 0              @ libraries/STM32H7xx_HAL/STM32H7xx_HAL_Driver/Src/stm32h7xx_hal_dma_ex.c:648:20
	ldr	r0, [r0, #8]
.Ltmp29:
	.loc	7 648 8                         @ libraries/STM32H7xx_HAL/STM32H7xx_HAL_Driver/Src/stm32h7xx_hal_dma_ex.c:648:8
	cmp	r0, #64
	bne	.LBB1_19
	b	.LBB1_18
.LBB1_18:
.Ltmp30:
	.loc	7 651 55 is_stmt 1              @ libraries/STM32H7xx_HAL/STM32H7xx_HAL_Driver/Src/stm32h7xx_hal_dma_ex.c:651:55
	ldr	r0, [sp, #8]
	.loc	7 651 32 is_stmt 0              @ libraries/STM32H7xx_HAL/STM32H7xx_HAL_Driver/Src/stm32h7xx_hal_dma_ex.c:651:32
	ldr	r1, [sp, #16]
	.loc	7 651 38                        @ libraries/STM32H7xx_HAL/STM32H7xx_HAL_Driver/Src/stm32h7xx_hal_dma_ex.c:651:38
	ldr	r1, [r1]
	.loc	7 651 53                        @ libraries/STM32H7xx_HAL/STM32H7xx_HAL_Driver/Src/stm32h7xx_hal_dma_ex.c:651:53
	str	r0, [r1, #8]
	.loc	7 654 56 is_stmt 1              @ libraries/STM32H7xx_HAL/STM32H7xx_HAL_Driver/Src/stm32h7xx_hal_dma_ex.c:654:56
	ldr	r0, [sp, #12]
	.loc	7 654 32 is_stmt 0              @ libraries/STM32H7xx_HAL/STM32H7xx_HAL_Driver/Src/stm32h7xx_hal_dma_ex.c:654:32
	ldr	r1, [sp, #16]
	.loc	7 654 38                        @ libraries/STM32H7xx_HAL/STM32H7xx_HAL_Driver/Src/stm32h7xx_hal_dma_ex.c:654:38
	ldr	r1, [r1]
	.loc	7 654 54                        @ libraries/STM32H7xx_HAL/STM32H7xx_HAL_Driver/Src/stm32h7xx_hal_dma_ex.c:654:54
	str	r0, [r1, #12]
	.loc	7 655 5 is_stmt 1               @ libraries/STM32H7xx_HAL/STM32H7xx_HAL_Driver/Src/stm32h7xx_hal_dma_ex.c:655:5
	b	.LBB1_20
.Ltmp31:
.LBB1_19:
	.loc	7 660 55                        @ libraries/STM32H7xx_HAL/STM32H7xx_HAL_Driver/Src/stm32h7xx_hal_dma_ex.c:660:55
	ldr	r0, [sp, #12]
	.loc	7 660 32 is_stmt 0              @ libraries/STM32H7xx_HAL/STM32H7xx_HAL_Driver/Src/stm32h7xx_hal_dma_ex.c:660:32
	ldr	r1, [sp, #16]
	.loc	7 660 38                        @ libraries/STM32H7xx_HAL/STM32H7xx_HAL_Driver/Src/stm32h7xx_hal_dma_ex.c:660:38
	ldr	r1, [r1]
	.loc	7 660 53                        @ libraries/STM32H7xx_HAL/STM32H7xx_HAL_Driver/Src/stm32h7xx_hal_dma_ex.c:660:53
	str	r0, [r1, #8]
	.loc	7 663 56 is_stmt 1              @ libraries/STM32H7xx_HAL/STM32H7xx_HAL_Driver/Src/stm32h7xx_hal_dma_ex.c:663:56
	ldr	r0, [sp, #8]
	.loc	7 663 32 is_stmt 0              @ libraries/STM32H7xx_HAL/STM32H7xx_HAL_Driver/Src/stm32h7xx_hal_dma_ex.c:663:32
	ldr	r1, [sp, #16]
	.loc	7 663 38                        @ libraries/STM32H7xx_HAL/STM32H7xx_HAL_Driver/Src/stm32h7xx_hal_dma_ex.c:663:38
	ldr	r1, [r1]
	.loc	7 663 54                        @ libraries/STM32H7xx_HAL/STM32H7xx_HAL_Driver/Src/stm32h7xx_hal_dma_ex.c:663:54
	str	r0, [r1, #12]
	b	.LBB1_20
.Ltmp32:
.LBB1_20:
	.loc	7 665 3 is_stmt 1               @ libraries/STM32H7xx_HAL/STM32H7xx_HAL_Driver/Src/stm32h7xx_hal_dma_ex.c:665:3
	b	.LBB1_25
.Ltmp33:
.LBB1_21:
	.loc	7 669 57                        @ libraries/STM32H7xx_HAL/STM32H7xx_HAL_Driver/Src/stm32h7xx_hal_dma_ex.c:669:57
	ldr	r0, [sp, #4]
	.loc	7 669 32 is_stmt 0              @ libraries/STM32H7xx_HAL/STM32H7xx_HAL_Driver/Src/stm32h7xx_hal_dma_ex.c:669:32
	ldr	r1, [sp, #16]
	.loc	7 669 38                        @ libraries/STM32H7xx_HAL/STM32H7xx_HAL_Driver/Src/stm32h7xx_hal_dma_ex.c:669:38
	ldr	r1, [r1]
	.loc	7 669 55                        @ libraries/STM32H7xx_HAL/STM32H7xx_HAL_Driver/Src/stm32h7xx_hal_dma_ex.c:669:55
	str	r0, [r1, #4]
.Ltmp34:
	.loc	7 672 9 is_stmt 1               @ libraries/STM32H7xx_HAL/STM32H7xx_HAL_Driver/Src/stm32h7xx_hal_dma_ex.c:672:9
	ldr	r0, [sp, #16]
	.loc	7 672 20 is_stmt 0              @ libraries/STM32H7xx_HAL/STM32H7xx_HAL_Driver/Src/stm32h7xx_hal_dma_ex.c:672:20
	ldr	r0, [r0, #8]
.Ltmp35:
	.loc	7 672 8                         @ libraries/STM32H7xx_HAL/STM32H7xx_HAL_Driver/Src/stm32h7xx_hal_dma_ex.c:672:8
	cmp	r0, #64
	bne	.LBB1_23
	b	.LBB1_22
.LBB1_22:
.Ltmp36:
	.loc	7 675 58 is_stmt 1              @ libraries/STM32H7xx_HAL/STM32H7xx_HAL_Driver/Src/stm32h7xx_hal_dma_ex.c:675:58
	ldr	r0, [sp, #8]
	.loc	7 675 34 is_stmt 0              @ libraries/STM32H7xx_HAL/STM32H7xx_HAL_Driver/Src/stm32h7xx_hal_dma_ex.c:675:34
	ldr	r1, [sp, #16]
	.loc	7 675 40                        @ libraries/STM32H7xx_HAL/STM32H7xx_HAL_Driver/Src/stm32h7xx_hal_dma_ex.c:675:40
	ldr	r1, [r1]
	.loc	7 675 56                        @ libraries/STM32H7xx_HAL/STM32H7xx_HAL_Driver/Src/stm32h7xx_hal_dma_ex.c:675:56
	str	r0, [r1, #8]
	.loc	7 678 59 is_stmt 1              @ libraries/STM32H7xx_HAL/STM32H7xx_HAL_Driver/Src/stm32h7xx_hal_dma_ex.c:678:59
	ldr	r0, [sp, #12]
	.loc	7 678 34 is_stmt 0              @ libraries/STM32H7xx_HAL/STM32H7xx_HAL_Driver/Src/stm32h7xx_hal_dma_ex.c:678:34
	ldr	r1, [sp, #16]
	.loc	7 678 40                        @ libraries/STM32H7xx_HAL/STM32H7xx_HAL_Driver/Src/stm32h7xx_hal_dma_ex.c:678:40
	ldr	r1, [r1]
	.loc	7 678 57                        @ libraries/STM32H7xx_HAL/STM32H7xx_HAL_Driver/Src/stm32h7xx_hal_dma_ex.c:678:57
	str	r0, [r1, #12]
	.loc	7 679 5 is_stmt 1               @ libraries/STM32H7xx_HAL/STM32H7xx_HAL_Driver/Src/stm32h7xx_hal_dma_ex.c:679:5
	b	.LBB1_24
.Ltmp37:
.LBB1_23:
	.loc	7 684 58                        @ libraries/STM32H7xx_HAL/STM32H7xx_HAL_Driver/Src/stm32h7xx_hal_dma_ex.c:684:58
	ldr	r0, [sp, #12]
	.loc	7 684 34 is_stmt 0              @ libraries/STM32H7xx_HAL/STM32H7xx_HAL_Driver/Src/stm32h7xx_hal_dma_ex.c:684:34
	ldr	r1, [sp, #16]
	.loc	7 684 40                        @ libraries/STM32H7xx_HAL/STM32H7xx_HAL_Driver/Src/stm32h7xx_hal_dma_ex.c:684:40
	ldr	r1, [r1]
	.loc	7 684 56                        @ libraries/STM32H7xx_HAL/STM32H7xx_HAL_Driver/Src/stm32h7xx_hal_dma_ex.c:684:56
	str	r0, [r1, #8]
	.loc	7 687 59 is_stmt 1              @ libraries/STM32H7xx_HAL/STM32H7xx_HAL_Driver/Src/stm32h7xx_hal_dma_ex.c:687:59
	ldr	r0, [sp, #8]
	.loc	7 687 34 is_stmt 0              @ libraries/STM32H7xx_HAL/STM32H7xx_HAL_Driver/Src/stm32h7xx_hal_dma_ex.c:687:34
	ldr	r1, [sp, #16]
	.loc	7 687 40                        @ libraries/STM32H7xx_HAL/STM32H7xx_HAL_Driver/Src/stm32h7xx_hal_dma_ex.c:687:40
	ldr	r1, [r1]
	.loc	7 687 57                        @ libraries/STM32H7xx_HAL/STM32H7xx_HAL_Driver/Src/stm32h7xx_hal_dma_ex.c:687:57
	str	r0, [r1, #12]
	b	.LBB1_24
.Ltmp38:
.LBB1_24:
	.loc	7 0 57                          @ libraries/STM32H7xx_HAL/STM32H7xx_HAL_Driver/Src/stm32h7xx_hal_dma_ex.c:0:57
	b	.LBB1_25
.LBB1_25:
	.loc	7 690 1 is_stmt 1               @ libraries/STM32H7xx_HAL/STM32H7xx_HAL_Driver/Src/stm32h7xx_hal_dma_ex.c:690:1
	add	sp, #20
	bx	lr
.Ltmp39:
.Lfunc_end1:
	.size	DMA_MultiBufferSetConfig, .Lfunc_end1-DMA_MultiBufferSetConfig
	.cfi_endproc
	.cantunwind
	.fnend
                                        @ -- End function
	.section	.text.HAL_DMAEx_MultiBufferStart_IT,"ax",%progbits
	.hidden	HAL_DMAEx_MultiBufferStart_IT   @ -- Begin function HAL_DMAEx_MultiBufferStart_IT
	.globl	HAL_DMAEx_MultiBufferStart_IT
	.p2align	3
	.type	HAL_DMAEx_MultiBufferStart_IT,%function
	.code	16                              @ @HAL_DMAEx_MultiBufferStart_IT
	.thumb_func
HAL_DMAEx_MultiBufferStart_IT:
.Lfunc_begin2:
	.loc	7 216 0                         @ libraries/STM32H7xx_HAL/STM32H7xx_HAL_Driver/Src/stm32h7xx_hal_dma_ex.c:216:0
	.fnstart
	.cfi_startproc
@ %bb.0:
	.save	{r7, lr}
	push	{r7, lr}
	.cfi_def_cfa_offset 8
	.cfi_offset lr, -4
	.cfi_offset r7, -8
	.pad	#40
	sub	sp, #40
	.cfi_def_cfa_offset 48
	ldr.w	r12, [sp, #48]
	str	r0, [sp, #32]
	str	r1, [sp, #28]
	str	r2, [sp, #24]
	str	r3, [sp, #20]
	movs	r0, #0
.Ltmp40:
	.loc	7 217 21 prologue_end           @ libraries/STM32H7xx_HAL/STM32H7xx_HAL_Driver/Src/stm32h7xx_hal_dma_ex.c:217:21
	strb.w	r0, [sp, #19]
.Ltmp41:
	.loc	7 225 6                         @ libraries/STM32H7xx_HAL/STM32H7xx_HAL_Driver/Src/stm32h7xx_hal_dma_ex.c:225:6
	ldr	r0, [sp, #32]
	.loc	7 225 17 is_stmt 0              @ libraries/STM32H7xx_HAL/STM32H7xx_HAL_Driver/Src/stm32h7xx_hal_dma_ex.c:225:17
	ldr	r0, [r0, #8]
.Ltmp42:
	.loc	7 225 6                         @ libraries/STM32H7xx_HAL/STM32H7xx_HAL_Driver/Src/stm32h7xx_hal_dma_ex.c:225:6
	cmp	r0, #128
	bne	.LBB2_2
	b	.LBB2_1
.LBB2_1:
.Ltmp43:
	.loc	7 227 5 is_stmt 1               @ libraries/STM32H7xx_HAL/STM32H7xx_HAL_Driver/Src/stm32h7xx_hal_dma_ex.c:227:5
	ldr	r1, [sp, #32]
	mov.w	r0, #256
	.loc	7 227 21 is_stmt 0              @ libraries/STM32H7xx_HAL/STM32H7xx_HAL_Driver/Src/stm32h7xx_hal_dma_ex.c:227:21
	str	r0, [r1, #84]
	movs	r0, #1
	.loc	7 228 5 is_stmt 1               @ libraries/STM32H7xx_HAL/STM32H7xx_HAL_Driver/Src/stm32h7xx_hal_dma_ex.c:228:5
	strb.w	r0, [sp, #39]
	b	.LBB2_79
.Ltmp44:
.LBB2_2:
	.loc	7 232 3                         @ libraries/STM32H7xx_HAL/STM32H7xx_HAL_Driver/Src/stm32h7xx_hal_dma_ex.c:232:3
	b	.LBB2_3
.LBB2_3:
.Ltmp45:
	.loc	7 232 3 is_stmt 0               @ libraries/STM32H7xx_HAL/STM32H7xx_HAL_Driver/Src/stm32h7xx_hal_dma_ex.c:232:3
	ldr	r0, [sp, #32]
	ldrb.w	r0, [r0, #52]
.Ltmp46:
	.loc	7 232 3                         @ libraries/STM32H7xx_HAL/STM32H7xx_HAL_Driver/Src/stm32h7xx_hal_dma_ex.c:232:3
	cmp	r0, #1
	bne	.LBB2_5
	b	.LBB2_4
.LBB2_4:
	.loc	7 0 3                           @ libraries/STM32H7xx_HAL/STM32H7xx_HAL_Driver/Src/stm32h7xx_hal_dma_ex.c:0:3
	movs	r0, #2
.Ltmp47:
	.loc	7 232 3                         @ libraries/STM32H7xx_HAL/STM32H7xx_HAL_Driver/Src/stm32h7xx_hal_dma_ex.c:232:3
	strb.w	r0, [sp, #39]
	b	.LBB2_79
.Ltmp48:
.LBB2_5:
	.loc	7 232 3                         @ libraries/STM32H7xx_HAL/STM32H7xx_HAL_Driver/Src/stm32h7xx_hal_dma_ex.c:232:3
	ldr	r1, [sp, #32]
	movs	r0, #1
	strb.w	r0, [r1, #52]
	b	.LBB2_6
.Ltmp49:
.LBB2_6:
	.loc	7 232 3                         @ libraries/STM32H7xx_HAL/STM32H7xx_HAL_Driver/Src/stm32h7xx_hal_dma_ex.c:232:3
	b	.LBB2_7
.Ltmp50:
.LBB2_7:
	.loc	7 234 29 is_stmt 1              @ libraries/STM32H7xx_HAL/STM32H7xx_HAL_Driver/Src/stm32h7xx_hal_dma_ex.c:234:29
	ldr	r0, [sp, #32]
	.loc	7 234 35 is_stmt 0              @ libraries/STM32H7xx_HAL/STM32H7xx_HAL_Driver/Src/stm32h7xx_hal_dma_ex.c:234:35
	ldrb.w	r0, [r0, #53]
.Ltmp51:
	.loc	7 234 6                         @ libraries/STM32H7xx_HAL/STM32H7xx_HAL_Driver/Src/stm32h7xx_hal_dma_ex.c:234:6
	cmp	r0, #1
	bne.w	.LBB2_77
	b	.LBB2_8
.LBB2_8:
.Ltmp52:
	.loc	7 237 5 is_stmt 1               @ libraries/STM32H7xx_HAL/STM32H7xx_HAL_Driver/Src/stm32h7xx_hal_dma_ex.c:237:5
	ldr	r1, [sp, #32]
	movs	r0, #2
	.loc	7 237 17 is_stmt 0              @ libraries/STM32H7xx_HAL/STM32H7xx_HAL_Driver/Src/stm32h7xx_hal_dma_ex.c:237:17
	strb.w	r0, [r1, #53]
	.loc	7 240 5 is_stmt 1               @ libraries/STM32H7xx_HAL/STM32H7xx_HAL_Driver/Src/stm32h7xx_hal_dma_ex.c:240:5
	ldr	r1, [sp, #32]
	movs	r0, #0
	.loc	7 240 21 is_stmt 0              @ libraries/STM32H7xx_HAL/STM32H7xx_HAL_Driver/Src/stm32h7xx_hal_dma_ex.c:240:21
	str	r0, [r1, #84]
.Ltmp53:
	.loc	7 242 8 is_stmt 1               @ libraries/STM32H7xx_HAL/STM32H7xx_HAL_Driver/Src/stm32h7xx_hal_dma_ex.c:242:8
	ldr	r0, [sp, #32]
	ldr	r1, [r0]
	movs	r0, #1
	movs	r2, #16
	movt	r2, #16386
	cmp	r1, r2
	str	r0, [sp, #8]                    @ 4-byte Spill
	beq.w	.LBB2_24
	b	.LBB2_9
.LBB2_9:
	ldr	r0, [sp, #32]
	ldr	r1, [r0]
	movs	r0, #1
	movs	r2, #40
	movt	r2, #16386
	cmp	r1, r2
	str	r0, [sp, #8]                    @ 4-byte Spill
	beq.w	.LBB2_24
	b	.LBB2_10
.LBB2_10:
	ldr	r0, [sp, #32]
	ldr	r1, [r0]
	movs	r0, #1
	movs	r2, #64
	movt	r2, #16386
	cmp	r1, r2
	str	r0, [sp, #8]                    @ 4-byte Spill
	beq.w	.LBB2_24
	b	.LBB2_11
.LBB2_11:
	ldr	r0, [sp, #32]
	ldr	r1, [r0]
	movs	r0, #1
	movs	r2, #88
	movt	r2, #16386
	cmp	r1, r2
	str	r0, [sp, #8]                    @ 4-byte Spill
	beq.w	.LBB2_24
	b	.LBB2_12
.LBB2_12:
	ldr	r0, [sp, #32]
	ldr	r1, [r0]
	movs	r0, #1
	movs	r2, #112
	movt	r2, #16386
	cmp	r1, r2
	str	r0, [sp, #8]                    @ 4-byte Spill
	beq	.LBB2_24
	b	.LBB2_13
.LBB2_13:
	ldr	r0, [sp, #32]
	ldr	r1, [r0]
	movs	r0, #1
	movs	r2, #136
	movt	r2, #16386
	cmp	r1, r2
	str	r0, [sp, #8]                    @ 4-byte Spill
	beq	.LBB2_24
	b	.LBB2_14
.LBB2_14:
	ldr	r0, [sp, #32]
	ldr	r1, [r0]
	movs	r0, #1
	movs	r2, #160
	movt	r2, #16386
	cmp	r1, r2
	str	r0, [sp, #8]                    @ 4-byte Spill
	beq	.LBB2_24
	b	.LBB2_15
.LBB2_15:
	ldr	r0, [sp, #32]
	ldr	r1, [r0]
	movs	r0, #1
	movs	r2, #184
	movt	r2, #16386
	cmp	r1, r2
	str	r0, [sp, #8]                    @ 4-byte Spill
	beq	.LBB2_24
	b	.LBB2_16
.LBB2_16:
	ldr	r0, [sp, #32]
	ldr	r1, [r0]
	movs	r0, #1
	movw	r2, #1040
	movt	r2, #16386
	cmp	r1, r2
	str	r0, [sp, #8]                    @ 4-byte Spill
	beq	.LBB2_24
	b	.LBB2_17
.LBB2_17:
	ldr	r0, [sp, #32]
	ldr	r1, [r0]
	movs	r0, #1
	movw	r2, #1064
	movt	r2, #16386
	cmp	r1, r2
	str	r0, [sp, #8]                    @ 4-byte Spill
	beq	.LBB2_24
	b	.LBB2_18
.LBB2_18:
	ldr	r0, [sp, #32]
	ldr	r1, [r0]
	movs	r0, #1
	movw	r2, #1088
	movt	r2, #16386
	cmp	r1, r2
	str	r0, [sp, #8]                    @ 4-byte Spill
	beq	.LBB2_24
	b	.LBB2_19
.LBB2_19:
	ldr	r0, [sp, #32]
	ldr	r1, [r0]
	movs	r0, #1
	movw	r2, #1112
	movt	r2, #16386
	cmp	r1, r2
	str	r0, [sp, #8]                    @ 4-byte Spill
	beq	.LBB2_24
	b	.LBB2_20
.LBB2_20:
	ldr	r0, [sp, #32]
	ldr	r1, [r0]
	movs	r0, #1
	movw	r2, #1136
	movt	r2, #16386
	cmp	r1, r2
	str	r0, [sp, #8]                    @ 4-byte Spill
	beq	.LBB2_24
	b	.LBB2_21
.LBB2_21:
	ldr	r0, [sp, #32]
	ldr	r1, [r0]
	movs	r0, #1
	movw	r2, #1160
	movt	r2, #16386
	cmp	r1, r2
	str	r0, [sp, #8]                    @ 4-byte Spill
	beq	.LBB2_24
	b	.LBB2_22
.LBB2_22:
	ldr	r0, [sp, #32]
	ldr	r1, [r0]
	movs	r0, #1
	movw	r2, #1184
	movt	r2, #16386
	cmp	r1, r2
	str	r0, [sp, #8]                    @ 4-byte Spill
	beq	.LBB2_24
	b	.LBB2_23
.LBB2_23:
	ldr	r0, [sp, #32]
	ldr	r0, [r0]
	movw	r1, #64328
	movt	r1, #49149
	add	r0, r1
	clz	r0, r0
	lsrs	r0, r0, #5
	str	r0, [sp, #8]                    @ 4-byte Spill
	b	.LBB2_24
.Ltmp54:
.LBB2_24:
	.loc	7 0 8 is_stmt 0                 @ libraries/STM32H7xx_HAL/STM32H7xx_HAL_Driver/Src/stm32h7xx_hal_dma_ex.c:0:8
	ldr	r0, [sp, #8]                    @ 4-byte Reload
	.loc	7 242 8                         @ libraries/STM32H7xx_HAL/STM32H7xx_HAL_Driver/Src/stm32h7xx_hal_dma_ex.c:242:8
	lsls	r0, r0, #31
	cbz	r0, .LBB2_26
	b	.LBB2_25
.LBB2_25:
.Ltmp55:
	.loc	7 245 32 is_stmt 1              @ libraries/STM32H7xx_HAL/STM32H7xx_HAL_Driver/Src/stm32h7xx_hal_dma_ex.c:245:32
	ldr	r0, [sp, #32]
	.loc	7 245 38 is_stmt 0              @ libraries/STM32H7xx_HAL/STM32H7xx_HAL_Driver/Src/stm32h7xx_hal_dma_ex.c:245:38
	ldr	r1, [r0]
	.loc	7 245 52                        @ libraries/STM32H7xx_HAL/STM32H7xx_HAL_Driver/Src/stm32h7xx_hal_dma_ex.c:245:52
	ldr	r0, [r1]
	orr	r0, r0, #262144
	str	r0, [r1]
	.loc	7 248 56 is_stmt 1              @ libraries/STM32H7xx_HAL/STM32H7xx_HAL_Driver/Src/stm32h7xx_hal_dma_ex.c:248:56
	ldr	r0, [sp, #20]
	.loc	7 248 32 is_stmt 0              @ libraries/STM32H7xx_HAL/STM32H7xx_HAL_Driver/Src/stm32h7xx_hal_dma_ex.c:248:32
	ldr	r1, [sp, #32]
	.loc	7 248 38                        @ libraries/STM32H7xx_HAL/STM32H7xx_HAL_Driver/Src/stm32h7xx_hal_dma_ex.c:248:38
	ldr	r1, [r1]
	.loc	7 248 54                        @ libraries/STM32H7xx_HAL/STM32H7xx_HAL_Driver/Src/stm32h7xx_hal_dma_ex.c:248:54
	str	r0, [r1, #16]
	.loc	7 251 50 is_stmt 1              @ libraries/STM32H7xx_HAL/STM32H7xx_HAL_Driver/Src/stm32h7xx_hal_dma_ex.c:251:50
	ldr	r0, [sp, #32]
	.loc	7 251 56 is_stmt 0              @ libraries/STM32H7xx_HAL/STM32H7xx_HAL_Driver/Src/stm32h7xx_hal_dma_ex.c:251:56
	ldr	r0, [r0, #88]
	.loc	7 251 74                        @ libraries/STM32H7xx_HAL/STM32H7xx_HAL_Driver/Src/stm32h7xx_hal_dma_ex.c:251:74
	adds	r0, #8
	.loc	7 251 24                        @ libraries/STM32H7xx_HAL/STM32H7xx_HAL_Driver/Src/stm32h7xx_hal_dma_ex.c:251:24
	str	r0, [sp, #12]
	.loc	7 254 38 is_stmt 1              @ libraries/STM32H7xx_HAL/STM32H7xx_HAL_Driver/Src/stm32h7xx_hal_dma_ex.c:254:38
	ldr	r0, [sp, #32]
	.loc	7 254 44 is_stmt 0              @ libraries/STM32H7xx_HAL/STM32H7xx_HAL_Driver/Src/stm32h7xx_hal_dma_ex.c:254:44
	ldr	r0, [r0, #92]
	.loc	7 254 56                        @ libraries/STM32H7xx_HAL/STM32H7xx_HAL_Driver/Src/stm32h7xx_hal_dma_ex.c:254:56
	and	r1, r0, #31
	movs	r0, #63
	.loc	7 254 34                        @ libraries/STM32H7xx_HAL/STM32H7xx_HAL_Driver/Src/stm32h7xx_hal_dma_ex.c:254:34
	lsls	r0, r1
	.loc	7 254 8                         @ libraries/STM32H7xx_HAL/STM32H7xx_HAL_Driver/Src/stm32h7xx_hal_dma_ex.c:254:8
	ldr	r1, [sp, #12]
	.loc	7 254 25                        @ libraries/STM32H7xx_HAL/STM32H7xx_HAL_Driver/Src/stm32h7xx_hal_dma_ex.c:254:25
	str	r0, [r1]
	.loc	7 255 5 is_stmt 1               @ libraries/STM32H7xx_HAL/STM32H7xx_HAL_Driver/Src/stm32h7xx_hal_dma_ex.c:255:5
	b	.LBB2_27
.Ltmp56:
.LBB2_26:
	.loc	7 259 34                        @ libraries/STM32H7xx_HAL/STM32H7xx_HAL_Driver/Src/stm32h7xx_hal_dma_ex.c:259:34
	ldr	r0, [sp, #32]
	.loc	7 259 40 is_stmt 0              @ libraries/STM32H7xx_HAL/STM32H7xx_HAL_Driver/Src/stm32h7xx_hal_dma_ex.c:259:40
	ldr	r1, [r0]
	.loc	7 259 55                        @ libraries/STM32H7xx_HAL/STM32H7xx_HAL_Driver/Src/stm32h7xx_hal_dma_ex.c:259:55
	ldr	r0, [r1]
	movw	r2, #32800
	orrs	r0, r2
	str	r0, [r1]
	.loc	7 262 59 is_stmt 1              @ libraries/STM32H7xx_HAL/STM32H7xx_HAL_Driver/Src/stm32h7xx_hal_dma_ex.c:262:59
	ldr	r0, [sp, #20]
	.loc	7 262 34 is_stmt 0              @ libraries/STM32H7xx_HAL/STM32H7xx_HAL_Driver/Src/stm32h7xx_hal_dma_ex.c:262:34
	ldr	r1, [sp, #32]
	.loc	7 262 40                        @ libraries/STM32H7xx_HAL/STM32H7xx_HAL_Driver/Src/stm32h7xx_hal_dma_ex.c:262:40
	ldr	r1, [r1]
	.loc	7 262 57                        @ libraries/STM32H7xx_HAL/STM32H7xx_HAL_Driver/Src/stm32h7xx_hal_dma_ex.c:262:57
	str	r0, [r1, #16]
	.loc	7 265 50 is_stmt 1              @ libraries/STM32H7xx_HAL/STM32H7xx_HAL_Driver/Src/stm32h7xx_hal_dma_ex.c:265:50
	ldr	r0, [sp, #32]
	.loc	7 265 56 is_stmt 0              @ libraries/STM32H7xx_HAL/STM32H7xx_HAL_Driver/Src/stm32h7xx_hal_dma_ex.c:265:56
	ldr	r0, [r0, #88]
	.loc	7 265 74                        @ libraries/STM32H7xx_HAL/STM32H7xx_HAL_Driver/Src/stm32h7xx_hal_dma_ex.c:265:74
	adds	r0, #4
	.loc	7 265 24                        @ libraries/STM32H7xx_HAL/STM32H7xx_HAL_Driver/Src/stm32h7xx_hal_dma_ex.c:265:24
	str	r0, [sp, #12]
	.loc	7 268 47 is_stmt 1              @ libraries/STM32H7xx_HAL/STM32H7xx_HAL_Driver/Src/stm32h7xx_hal_dma_ex.c:268:47
	ldr	r0, [sp, #32]
	.loc	7 268 53 is_stmt 0              @ libraries/STM32H7xx_HAL/STM32H7xx_HAL_Driver/Src/stm32h7xx_hal_dma_ex.c:268:53
	ldr	r0, [r0, #92]
	.loc	7 268 65                        @ libraries/STM32H7xx_HAL/STM32H7xx_HAL_Driver/Src/stm32h7xx_hal_dma_ex.c:268:65
	and	r1, r0, #31
	movs	r0, #1
	.loc	7 268 43                        @ libraries/STM32H7xx_HAL/STM32H7xx_HAL_Driver/Src/stm32h7xx_hal_dma_ex.c:268:43
	lsls	r0, r1
	.loc	7 268 8                         @ libraries/STM32H7xx_HAL/STM32H7xx_HAL_Driver/Src/stm32h7xx_hal_dma_ex.c:268:8
	ldr	r1, [sp, #12]
	.loc	7 268 25                        @ libraries/STM32H7xx_HAL/STM32H7xx_HAL_Driver/Src/stm32h7xx_hal_dma_ex.c:268:25
	str	r0, [r1]
	b	.LBB2_27
.Ltmp57:
.LBB2_27:
	.loc	7 272 30 is_stmt 1              @ libraries/STM32H7xx_HAL/STM32H7xx_HAL_Driver/Src/stm32h7xx_hal_dma_ex.c:272:30
	ldr	r0, [sp, #32]
	.loc	7 272 36 is_stmt 0              @ libraries/STM32H7xx_HAL/STM32H7xx_HAL_Driver/Src/stm32h7xx_hal_dma_ex.c:272:36
	ldr	r1, [sp, #28]
	.loc	7 272 48                        @ libraries/STM32H7xx_HAL/STM32H7xx_HAL_Driver/Src/stm32h7xx_hal_dma_ex.c:272:48
	ldr	r2, [sp, #24]
	.loc	7 272 60                        @ libraries/STM32H7xx_HAL/STM32H7xx_HAL_Driver/Src/stm32h7xx_hal_dma_ex.c:272:60
	ldr	r3, [sp, #48]
	.loc	7 272 5                         @ libraries/STM32H7xx_HAL/STM32H7xx_HAL_Driver/Src/stm32h7xx_hal_dma_ex.c:272:5
	bl	DMA_MultiBufferSetConfig
	.loc	7 275 38 is_stmt 1              @ libraries/STM32H7xx_HAL/STM32H7xx_HAL_Driver/Src/stm32h7xx_hal_dma_ex.c:275:38
	ldr	r0, [sp, #32]
	.loc	7 275 11 is_stmt 0              @ libraries/STM32H7xx_HAL/STM32H7xx_HAL_Driver/Src/stm32h7xx_hal_dma_ex.c:275:11
	ldr	r1, [r0, #100]
	.loc	7 275 44                        @ libraries/STM32H7xx_HAL/STM32H7xx_HAL_Driver/Src/stm32h7xx_hal_dma_ex.c:275:44
	ldr	r0, [r0, #104]
	.loc	7 275 36                        @ libraries/STM32H7xx_HAL/STM32H7xx_HAL_Driver/Src/stm32h7xx_hal_dma_ex.c:275:36
	str	r0, [r1, #4]
.Ltmp58:
	.loc	7 277 8 is_stmt 1               @ libraries/STM32H7xx_HAL/STM32H7xx_HAL_Driver/Src/stm32h7xx_hal_dma_ex.c:277:8
	ldr	r0, [sp, #32]
	.loc	7 277 14 is_stmt 0              @ libraries/STM32H7xx_HAL/STM32H7xx_HAL_Driver/Src/stm32h7xx_hal_dma_ex.c:277:14
	ldr	r0, [r0, #108]
.Ltmp59:
	.loc	7 277 8                         @ libraries/STM32H7xx_HAL/STM32H7xx_HAL_Driver/Src/stm32h7xx_hal_dma_ex.c:277:8
	cbz	r0, .LBB2_29
	b	.LBB2_28
.LBB2_28:
.Ltmp60:
	.loc	7 280 45 is_stmt 1              @ libraries/STM32H7xx_HAL/STM32H7xx_HAL_Driver/Src/stm32h7xx_hal_dma_ex.c:280:45
	ldr	r0, [sp, #32]
	.loc	7 280 13 is_stmt 0              @ libraries/STM32H7xx_HAL/STM32H7xx_HAL_Driver/Src/stm32h7xx_hal_dma_ex.c:280:13
	ldr	r1, [r0, #112]
	.loc	7 280 51                        @ libraries/STM32H7xx_HAL/STM32H7xx_HAL_Driver/Src/stm32h7xx_hal_dma_ex.c:280:51
	ldr	r0, [r0, #116]
	.loc	7 280 43                        @ libraries/STM32H7xx_HAL/STM32H7xx_HAL_Driver/Src/stm32h7xx_hal_dma_ex.c:280:43
	str	r0, [r1, #4]
	.loc	7 281 5 is_stmt 1               @ libraries/STM32H7xx_HAL/STM32H7xx_HAL_Driver/Src/stm32h7xx_hal_dma_ex.c:281:5
	b	.LBB2_29
.Ltmp61:
.LBB2_29:
	.loc	7 283 8                         @ libraries/STM32H7xx_HAL/STM32H7xx_HAL_Driver/Src/stm32h7xx_hal_dma_ex.c:283:8
	ldr	r0, [sp, #32]
	ldr	r1, [r0]
	movs	r0, #1
	movs	r2, #16
	movt	r2, #16386
	cmp	r1, r2
	str	r0, [sp, #4]                    @ 4-byte Spill
	beq.w	.LBB2_45
	b	.LBB2_30
.LBB2_30:
	ldr	r0, [sp, #32]
	ldr	r1, [r0]
	movs	r0, #1
	movs	r2, #40
	movt	r2, #16386
	cmp	r1, r2
	str	r0, [sp, #4]                    @ 4-byte Spill
	beq.w	.LBB2_45
	b	.LBB2_31
.LBB2_31:
	ldr	r0, [sp, #32]
	ldr	r1, [r0]
	movs	r0, #1
	movs	r2, #64
	movt	r2, #16386
	cmp	r1, r2
	str	r0, [sp, #4]                    @ 4-byte Spill
	beq.w	.LBB2_45
	b	.LBB2_32
.LBB2_32:
	ldr	r0, [sp, #32]
	ldr	r1, [r0]
	movs	r0, #1
	movs	r2, #88
	movt	r2, #16386
	cmp	r1, r2
	str	r0, [sp, #4]                    @ 4-byte Spill
	beq.w	.LBB2_45
	b	.LBB2_33
.LBB2_33:
	ldr	r0, [sp, #32]
	ldr	r1, [r0]
	movs	r0, #1
	movs	r2, #112
	movt	r2, #16386
	cmp	r1, r2
	str	r0, [sp, #4]                    @ 4-byte Spill
	beq	.LBB2_45
	b	.LBB2_34
.LBB2_34:
	ldr	r0, [sp, #32]
	ldr	r1, [r0]
	movs	r0, #1
	movs	r2, #136
	movt	r2, #16386
	cmp	r1, r2
	str	r0, [sp, #4]                    @ 4-byte Spill
	beq	.LBB2_45
	b	.LBB2_35
.LBB2_35:
	ldr	r0, [sp, #32]
	ldr	r1, [r0]
	movs	r0, #1
	movs	r2, #160
	movt	r2, #16386
	cmp	r1, r2
	str	r0, [sp, #4]                    @ 4-byte Spill
	beq	.LBB2_45
	b	.LBB2_36
.LBB2_36:
	ldr	r0, [sp, #32]
	ldr	r1, [r0]
	movs	r0, #1
	movs	r2, #184
	movt	r2, #16386
	cmp	r1, r2
	str	r0, [sp, #4]                    @ 4-byte Spill
	beq	.LBB2_45
	b	.LBB2_37
.LBB2_37:
	ldr	r0, [sp, #32]
	ldr	r1, [r0]
	movs	r0, #1
	movw	r2, #1040
	movt	r2, #16386
	cmp	r1, r2
	str	r0, [sp, #4]                    @ 4-byte Spill
	beq	.LBB2_45
	b	.LBB2_38
.LBB2_38:
	ldr	r0, [sp, #32]
	ldr	r1, [r0]
	movs	r0, #1
	movw	r2, #1064
	movt	r2, #16386
	cmp	r1, r2
	str	r0, [sp, #4]                    @ 4-byte Spill
	beq	.LBB2_45
	b	.LBB2_39
.LBB2_39:
	ldr	r0, [sp, #32]
	ldr	r1, [r0]
	movs	r0, #1
	movw	r2, #1088
	movt	r2, #16386
	cmp	r1, r2
	str	r0, [sp, #4]                    @ 4-byte Spill
	beq	.LBB2_45
	b	.LBB2_40
.LBB2_40:
	ldr	r0, [sp, #32]
	ldr	r1, [r0]
	movs	r0, #1
	movw	r2, #1112
	movt	r2, #16386
	cmp	r1, r2
	str	r0, [sp, #4]                    @ 4-byte Spill
	beq	.LBB2_45
	b	.LBB2_41
.LBB2_41:
	ldr	r0, [sp, #32]
	ldr	r1, [r0]
	movs	r0, #1
	movw	r2, #1136
	movt	r2, #16386
	cmp	r1, r2
	str	r0, [sp, #4]                    @ 4-byte Spill
	beq	.LBB2_45
	b	.LBB2_42
.LBB2_42:
	ldr	r0, [sp, #32]
	ldr	r1, [r0]
	movs	r0, #1
	movw	r2, #1160
	movt	r2, #16386
	cmp	r1, r2
	str	r0, [sp, #4]                    @ 4-byte Spill
	beq	.LBB2_45
	b	.LBB2_43
.LBB2_43:
	ldr	r0, [sp, #32]
	ldr	r1, [r0]
	movs	r0, #1
	movw	r2, #1184
	movt	r2, #16386
	cmp	r1, r2
	str	r0, [sp, #4]                    @ 4-byte Spill
	beq	.LBB2_45
	b	.LBB2_44
.LBB2_44:
	ldr	r0, [sp, #32]
	ldr	r0, [r0]
	movw	r1, #64328
	movt	r1, #49149
	add	r0, r1
	clz	r0, r0
	lsrs	r0, r0, #5
	str	r0, [sp, #4]                    @ 4-byte Spill
	b	.LBB2_45
.Ltmp62:
.LBB2_45:
	.loc	7 0 8 is_stmt 0                 @ libraries/STM32H7xx_HAL/STM32H7xx_HAL_Driver/Src/stm32h7xx_hal_dma_ex.c:0:8
	ldr	r0, [sp, #4]                    @ 4-byte Reload
	.loc	7 283 8                         @ libraries/STM32H7xx_HAL/STM32H7xx_HAL_Driver/Src/stm32h7xx_hal_dma_ex.c:283:8
	lsls	r0, r0, #31
	cbz	r0, .LBB2_50
	b	.LBB2_46
.LBB2_46:
.Ltmp63:
	.loc	7 286 7 is_stmt 1               @ libraries/STM32H7xx_HAL/STM32H7xx_HAL_Driver/Src/stm32h7xx_hal_dma_ex.c:286:7
	ldr	r0, [sp, #32]
	ldr	r0, [r0]
	ldr	r0, [r0]
	movs	r1, #11
	bfi	r0, r1, #1, #4
	ldr	r1, [sp, #32]
	ldr	r1, [r1]
	str	r0, [r1]
	.loc	7 287 32                        @ libraries/STM32H7xx_HAL/STM32H7xx_HAL_Driver/Src/stm32h7xx_hal_dma_ex.c:287:32
	ldr	r0, [sp, #32]
	.loc	7 287 38 is_stmt 0              @ libraries/STM32H7xx_HAL/STM32H7xx_HAL_Driver/Src/stm32h7xx_hal_dma_ex.c:287:38
	ldr	r1, [r0]
	.loc	7 287 53                        @ libraries/STM32H7xx_HAL/STM32H7xx_HAL_Driver/Src/stm32h7xx_hal_dma_ex.c:287:53
	ldr	r0, [r1, #20]
	orr	r0, r0, #128
	str	r0, [r1, #20]
.Ltmp64:
	.loc	7 289 11 is_stmt 1              @ libraries/STM32H7xx_HAL/STM32H7xx_HAL_Driver/Src/stm32h7xx_hal_dma_ex.c:289:11
	ldr	r0, [sp, #32]
	.loc	7 289 17 is_stmt 0              @ libraries/STM32H7xx_HAL/STM32H7xx_HAL_Driver/Src/stm32h7xx_hal_dma_ex.c:289:17
	ldr	r0, [r0, #64]
	.loc	7 289 47                        @ libraries/STM32H7xx_HAL/STM32H7xx_HAL_Driver/Src/stm32h7xx_hal_dma_ex.c:289:47
	cbnz	r0, .LBB2_48
	b	.LBB2_47
.LBB2_47:
	.loc	7 289 51                        @ libraries/STM32H7xx_HAL/STM32H7xx_HAL_Driver/Src/stm32h7xx_hal_dma_ex.c:289:51
	ldr	r0, [sp, #32]
	.loc	7 289 57                        @ libraries/STM32H7xx_HAL/STM32H7xx_HAL_Driver/Src/stm32h7xx_hal_dma_ex.c:289:57
	ldr	r0, [r0, #72]
.Ltmp65:
	.loc	7 289 10                        @ libraries/STM32H7xx_HAL/STM32H7xx_HAL_Driver/Src/stm32h7xx_hal_dma_ex.c:289:10
	cbz	r0, .LBB2_49
	b	.LBB2_48
.LBB2_48:
.Ltmp66:
	.loc	7 292 34 is_stmt 1              @ libraries/STM32H7xx_HAL/STM32H7xx_HAL_Driver/Src/stm32h7xx_hal_dma_ex.c:292:34
	ldr	r0, [sp, #32]
	.loc	7 292 40 is_stmt 0              @ libraries/STM32H7xx_HAL/STM32H7xx_HAL_Driver/Src/stm32h7xx_hal_dma_ex.c:292:40
	ldr	r1, [r0]
	.loc	7 292 55                        @ libraries/STM32H7xx_HAL/STM32H7xx_HAL_Driver/Src/stm32h7xx_hal_dma_ex.c:292:55
	ldr	r0, [r1]
	orr	r0, r0, #8
	str	r0, [r1]
	.loc	7 293 7 is_stmt 1               @ libraries/STM32H7xx_HAL/STM32H7xx_HAL_Driver/Src/stm32h7xx_hal_dma_ex.c:293:7
	b	.LBB2_49
.Ltmp67:
.LBB2_49:
	.loc	7 294 5                         @ libraries/STM32H7xx_HAL/STM32H7xx_HAL_Driver/Src/stm32h7xx_hal_dma_ex.c:294:5
	b	.LBB2_54
.Ltmp68:
.LBB2_50:
	.loc	7 298 7                         @ libraries/STM32H7xx_HAL/STM32H7xx_HAL_Driver/Src/stm32h7xx_hal_dma_ex.c:298:7
	ldr	r0, [sp, #32]
	ldr	r0, [r0]
	ldr	r0, [r0]
	movs	r1, #5
	bfi	r0, r1, #1, #3
	ldr	r1, [sp, #32]
	ldr	r1, [r1]
	str	r0, [r1]
.Ltmp69:
	.loc	7 300 11                        @ libraries/STM32H7xx_HAL/STM32H7xx_HAL_Driver/Src/stm32h7xx_hal_dma_ex.c:300:11
	ldr	r0, [sp, #32]
	.loc	7 300 17 is_stmt 0              @ libraries/STM32H7xx_HAL/STM32H7xx_HAL_Driver/Src/stm32h7xx_hal_dma_ex.c:300:17
	ldr	r0, [r0, #64]
	.loc	7 300 47                        @ libraries/STM32H7xx_HAL/STM32H7xx_HAL_Driver/Src/stm32h7xx_hal_dma_ex.c:300:47
	cbnz	r0, .LBB2_52
	b	.LBB2_51
.LBB2_51:
	.loc	7 300 51                        @ libraries/STM32H7xx_HAL/STM32H7xx_HAL_Driver/Src/stm32h7xx_hal_dma_ex.c:300:51
	ldr	r0, [sp, #32]
	.loc	7 300 57                        @ libraries/STM32H7xx_HAL/STM32H7xx_HAL_Driver/Src/stm32h7xx_hal_dma_ex.c:300:57
	ldr	r0, [r0, #72]
.Ltmp70:
	.loc	7 300 10                        @ libraries/STM32H7xx_HAL/STM32H7xx_HAL_Driver/Src/stm32h7xx_hal_dma_ex.c:300:10
	cbz	r0, .LBB2_53
	b	.LBB2_52
.LBB2_52:
.Ltmp71:
	.loc	7 303 36 is_stmt 1              @ libraries/STM32H7xx_HAL/STM32H7xx_HAL_Driver/Src/stm32h7xx_hal_dma_ex.c:303:36
	ldr	r0, [sp, #32]
	.loc	7 303 42 is_stmt 0              @ libraries/STM32H7xx_HAL/STM32H7xx_HAL_Driver/Src/stm32h7xx_hal_dma_ex.c:303:42
	ldr	r1, [r0]
	.loc	7 303 58                        @ libraries/STM32H7xx_HAL/STM32H7xx_HAL_Driver/Src/stm32h7xx_hal_dma_ex.c:303:58
	ldr	r0, [r1]
	orr	r0, r0, #4
	str	r0, [r1]
	.loc	7 304 7 is_stmt 1               @ libraries/STM32H7xx_HAL/STM32H7xx_HAL_Driver/Src/stm32h7xx_hal_dma_ex.c:304:7
	b	.LBB2_53
.Ltmp72:
.LBB2_53:
	.loc	7 0 7 is_stmt 0                 @ libraries/STM32H7xx_HAL/STM32H7xx_HAL_Driver/Src/stm32h7xx_hal_dma_ex.c:0:7
	b	.LBB2_54
.LBB2_54:
.Ltmp73:
	.loc	7 308 9 is_stmt 1               @ libraries/STM32H7xx_HAL/STM32H7xx_HAL_Driver/Src/stm32h7xx_hal_dma_ex.c:308:9
	ldr	r0, [sp, #32]
	.loc	7 308 15 is_stmt 0              @ libraries/STM32H7xx_HAL/STM32H7xx_HAL_Driver/Src/stm32h7xx_hal_dma_ex.c:308:15
	ldr	r0, [r0, #96]
	.loc	7 308 30                        @ libraries/STM32H7xx_HAL/STM32H7xx_HAL_Driver/Src/stm32h7xx_hal_dma_ex.c:308:30
	ldr	r0, [r0]
.Ltmp74:
	.loc	7 308 8                         @ libraries/STM32H7xx_HAL/STM32H7xx_HAL_Driver/Src/stm32h7xx_hal_dma_ex.c:308:8
	lsls	r0, r0, #15
	cmp	r0, #0
	bpl	.LBB2_56
	b	.LBB2_55
.LBB2_55:
.Ltmp75:
	.loc	7 311 7 is_stmt 1               @ libraries/STM32H7xx_HAL/STM32H7xx_HAL_Driver/Src/stm32h7xx_hal_dma_ex.c:311:7
	ldr	r0, [sp, #32]
	.loc	7 311 13 is_stmt 0              @ libraries/STM32H7xx_HAL/STM32H7xx_HAL_Driver/Src/stm32h7xx_hal_dma_ex.c:311:13
	ldr	r1, [r0, #96]
	.loc	7 311 32                        @ libraries/STM32H7xx_HAL/STM32H7xx_HAL_Driver/Src/stm32h7xx_hal_dma_ex.c:311:32
	ldr	r0, [r1]
	orr	r0, r0, #256
	str	r0, [r1]
	.loc	7 312 5 is_stmt 1               @ libraries/STM32H7xx_HAL/STM32H7xx_HAL_Driver/Src/stm32h7xx_hal_dma_ex.c:312:5
	b	.LBB2_56
.Ltmp76:
.LBB2_56:
	.loc	7 314 8                         @ libraries/STM32H7xx_HAL/STM32H7xx_HAL_Driver/Src/stm32h7xx_hal_dma_ex.c:314:8
	ldr	r0, [sp, #32]
	.loc	7 314 14 is_stmt 0              @ libraries/STM32H7xx_HAL/STM32H7xx_HAL_Driver/Src/stm32h7xx_hal_dma_ex.c:314:14
	ldr	r0, [r0, #108]
.Ltmp77:
	.loc	7 314 8                         @ libraries/STM32H7xx_HAL/STM32H7xx_HAL_Driver/Src/stm32h7xx_hal_dma_ex.c:314:8
	cbz	r0, .LBB2_58
	b	.LBB2_57
.LBB2_57:
.Ltmp78:
	.loc	7 318 7 is_stmt 1               @ libraries/STM32H7xx_HAL/STM32H7xx_HAL_Driver/Src/stm32h7xx_hal_dma_ex.c:318:7
	ldr	r0, [sp, #32]
	.loc	7 318 13 is_stmt 0              @ libraries/STM32H7xx_HAL/STM32H7xx_HAL_Driver/Src/stm32h7xx_hal_dma_ex.c:318:13
	ldr	r1, [r0, #108]
	.loc	7 318 36                        @ libraries/STM32H7xx_HAL/STM32H7xx_HAL_Driver/Src/stm32h7xx_hal_dma_ex.c:318:36
	ldr	r0, [r1]
	orr	r0, r0, #256
	str	r0, [r1]
	.loc	7 319 5 is_stmt 1               @ libraries/STM32H7xx_HAL/STM32H7xx_HAL_Driver/Src/stm32h7xx_hal_dma_ex.c:319:5
	b	.LBB2_58
.Ltmp79:
.LBB2_58:
	.loc	7 322 5                         @ libraries/STM32H7xx_HAL/STM32H7xx_HAL_Driver/Src/stm32h7xx_hal_dma_ex.c:322:5
	ldr	r0, [sp, #32]
	ldr	r0, [r0]
	movs	r1, #16
	movt	r1, #16386
	cmp	r0, r1
	beq.w	.LBB2_74
	b	.LBB2_59
.LBB2_59:
	ldr	r0, [sp, #32]
	ldr	r0, [r0]
	movs	r1, #40
	movt	r1, #16386
	cmp	r0, r1
	beq	.LBB2_74
	b	.LBB2_60
.LBB2_60:
	ldr	r0, [sp, #32]
	ldr	r0, [r0]
	movs	r1, #64
	movt	r1, #16386
	cmp	r0, r1
	beq	.LBB2_74
	b	.LBB2_61
.LBB2_61:
	ldr	r0, [sp, #32]
	ldr	r0, [r0]
	movs	r1, #88
	movt	r1, #16386
	cmp	r0, r1
	beq	.LBB2_74
	b	.LBB2_62
.LBB2_62:
	ldr	r0, [sp, #32]
	ldr	r0, [r0]
	movs	r1, #112
	movt	r1, #16386
	cmp	r0, r1
	beq	.LBB2_74
	b	.LBB2_63
.LBB2_63:
	ldr	r0, [sp, #32]
	ldr	r0, [r0]
	movs	r1, #136
	movt	r1, #16386
	cmp	r0, r1
	beq	.LBB2_74
	b	.LBB2_64
.LBB2_64:
	ldr	r0, [sp, #32]
	ldr	r0, [r0]
	movs	r1, #160
	movt	r1, #16386
	cmp	r0, r1
	beq	.LBB2_74
	b	.LBB2_65
.LBB2_65:
	ldr	r0, [sp, #32]
	ldr	r0, [r0]
	movs	r1, #184
	movt	r1, #16386
	cmp	r0, r1
	beq	.LBB2_74
	b	.LBB2_66
.LBB2_66:
	ldr	r0, [sp, #32]
	ldr	r0, [r0]
	movw	r1, #1040
	movt	r1, #16386
	cmp	r0, r1
	beq	.LBB2_74
	b	.LBB2_67
.LBB2_67:
	ldr	r0, [sp, #32]
	ldr	r0, [r0]
	movw	r1, #1064
	movt	r1, #16386
	cmp	r0, r1
	beq	.LBB2_74
	b	.LBB2_68
.LBB2_68:
	ldr	r0, [sp, #32]
	ldr	r0, [r0]
	movw	r1, #1088
	movt	r1, #16386
	cmp	r0, r1
	beq	.LBB2_74
	b	.LBB2_69
.LBB2_69:
	ldr	r0, [sp, #32]
	ldr	r0, [r0]
	movw	r1, #1112
	movt	r1, #16386
	cmp	r0, r1
	beq	.LBB2_74
	b	.LBB2_70
.LBB2_70:
	ldr	r0, [sp, #32]
	ldr	r0, [r0]
	movw	r1, #1136
	movt	r1, #16386
	cmp	r0, r1
	beq	.LBB2_74
	b	.LBB2_71
.LBB2_71:
	ldr	r0, [sp, #32]
	ldr	r0, [r0]
	movw	r1, #1160
	movt	r1, #16386
	cmp	r0, r1
	beq	.LBB2_74
	b	.LBB2_72
.LBB2_72:
	ldr	r0, [sp, #32]
	ldr	r0, [r0]
	movw	r1, #1184
	movt	r1, #16386
	cmp	r0, r1
	beq	.LBB2_74
	b	.LBB2_73
.LBB2_73:
	ldr	r0, [sp, #32]
	ldr	r0, [r0]
	movw	r1, #1208
	movt	r1, #16386
	cmp	r0, r1
	bne	.LBB2_75
	b	.LBB2_74
.LBB2_74:
	ldr	r0, [sp, #32]
	ldr	r1, [r0]
	ldr	r0, [r1]
	orr	r0, r0, #1
                                        @ kill: def $r2 killed $r0
	str	r0, [r1]
	b	.LBB2_76
.LBB2_75:
	ldr	r0, [sp, #32]
	ldr	r1, [r0]
	ldr	r0, [r1]
	orr	r0, r0, #1
                                        @ kill: def $r2 killed $r0
	str	r0, [r1]
	b	.LBB2_76
.LBB2_76:
	.loc	7 323 3                         @ libraries/STM32H7xx_HAL/STM32H7xx_HAL_Driver/Src/stm32h7xx_hal_dma_ex.c:323:3
	b	.LBB2_78
.Ltmp80:
.LBB2_77:
	.loc	7 327 5                         @ libraries/STM32H7xx_HAL/STM32H7xx_HAL_Driver/Src/stm32h7xx_hal_dma_ex.c:327:5
	ldr	r1, [sp, #32]
	mov.w	r0, #2048
	.loc	7 327 21 is_stmt 0              @ libraries/STM32H7xx_HAL/STM32H7xx_HAL_Driver/Src/stm32h7xx_hal_dma_ex.c:327:21
	str	r0, [r1, #84]
	movs	r0, #1
	.loc	7 330 12 is_stmt 1              @ libraries/STM32H7xx_HAL/STM32H7xx_HAL_Driver/Src/stm32h7xx_hal_dma_ex.c:330:12
	strb.w	r0, [sp, #19]
	b	.LBB2_78
.Ltmp81:
.LBB2_78:
	.loc	7 332 10                        @ libraries/STM32H7xx_HAL/STM32H7xx_HAL_Driver/Src/stm32h7xx_hal_dma_ex.c:332:10
	ldrb.w	r0, [sp, #19]
	.loc	7 332 3 is_stmt 0               @ libraries/STM32H7xx_HAL/STM32H7xx_HAL_Driver/Src/stm32h7xx_hal_dma_ex.c:332:3
	strb.w	r0, [sp, #39]
	b	.LBB2_79
.LBB2_79:
	.loc	7 333 1 is_stmt 1               @ libraries/STM32H7xx_HAL/STM32H7xx_HAL_Driver/Src/stm32h7xx_hal_dma_ex.c:333:1
	ldrb.w	r0, [sp, #39]
	add	sp, #40
	pop	{r7, pc}
.Ltmp82:
.Lfunc_end2:
	.size	HAL_DMAEx_MultiBufferStart_IT, .Lfunc_end2-HAL_DMAEx_MultiBufferStart_IT
	.cfi_endproc
	.cantunwind
	.fnend
                                        @ -- End function
	.section	.text.HAL_DMAEx_ChangeMemory,"ax",%progbits
	.hidden	HAL_DMAEx_ChangeMemory          @ -- Begin function HAL_DMAEx_ChangeMemory
	.globl	HAL_DMAEx_ChangeMemory
	.p2align	3
	.type	HAL_DMAEx_ChangeMemory,%function
	.code	16                              @ @HAL_DMAEx_ChangeMemory
	.thumb_func
HAL_DMAEx_ChangeMemory:
.Lfunc_begin3:
	.loc	7 350 0                         @ libraries/STM32H7xx_HAL/STM32H7xx_HAL_Driver/Src/stm32h7xx_hal_dma_ex.c:350:0
	.fnstart
	.cfi_startproc
@ %bb.0:
	.pad	#16
	sub	sp, #16
	.cfi_def_cfa_offset 16
                                        @ kill: def $r3 killed $r2
	str	r0, [sp, #12]
	str	r1, [sp, #8]
	strb.w	r2, [sp, #7]
.Ltmp83:
	.loc	7 351 6 prologue_end            @ libraries/STM32H7xx_HAL/STM32H7xx_HAL_Driver/Src/stm32h7xx_hal_dma_ex.c:351:6
	ldr	r0, [sp, #12]
	ldr	r1, [r0]
	movs	r0, #1
	movs	r2, #16
	movt	r2, #16386
	cmp	r1, r2
	str	r0, [sp]                        @ 4-byte Spill
	beq.w	.LBB3_16
	b	.LBB3_1
.LBB3_1:
	ldr	r0, [sp, #12]
	ldr	r1, [r0]
	movs	r0, #1
	movs	r2, #40
	movt	r2, #16386
	cmp	r1, r2
	str	r0, [sp]                        @ 4-byte Spill
	beq.w	.LBB3_16
	b	.LBB3_2
.LBB3_2:
	ldr	r0, [sp, #12]
	ldr	r1, [r0]
	movs	r0, #1
	movs	r2, #64
	movt	r2, #16386
	cmp	r1, r2
	str	r0, [sp]                        @ 4-byte Spill
	beq.w	.LBB3_16
	b	.LBB3_3
.LBB3_3:
	ldr	r0, [sp, #12]
	ldr	r1, [r0]
	movs	r0, #1
	movs	r2, #88
	movt	r2, #16386
	cmp	r1, r2
	str	r0, [sp]                        @ 4-byte Spill
	beq.w	.LBB3_16
	b	.LBB3_4
.LBB3_4:
	ldr	r0, [sp, #12]
	ldr	r1, [r0]
	movs	r0, #1
	movs	r2, #112
	movt	r2, #16386
	cmp	r1, r2
	str	r0, [sp]                        @ 4-byte Spill
	beq	.LBB3_16
	b	.LBB3_5
.LBB3_5:
	ldr	r0, [sp, #12]
	ldr	r1, [r0]
	movs	r0, #1
	movs	r2, #136
	movt	r2, #16386
	cmp	r1, r2
	str	r0, [sp]                        @ 4-byte Spill
	beq	.LBB3_16
	b	.LBB3_6
.LBB3_6:
	ldr	r0, [sp, #12]
	ldr	r1, [r0]
	movs	r0, #1
	movs	r2, #160
	movt	r2, #16386
	cmp	r1, r2
	str	r0, [sp]                        @ 4-byte Spill
	beq	.LBB3_16
	b	.LBB3_7
.LBB3_7:
	ldr	r0, [sp, #12]
	ldr	r1, [r0]
	movs	r0, #1
	movs	r2, #184
	movt	r2, #16386
	cmp	r1, r2
	str	r0, [sp]                        @ 4-byte Spill
	beq	.LBB3_16
	b	.LBB3_8
.LBB3_8:
	ldr	r0, [sp, #12]
	ldr	r1, [r0]
	movs	r0, #1
	movw	r2, #1040
	movt	r2, #16386
	cmp	r1, r2
	str	r0, [sp]                        @ 4-byte Spill
	beq	.LBB3_16
	b	.LBB3_9
.LBB3_9:
	ldr	r0, [sp, #12]
	ldr	r1, [r0]
	movs	r0, #1
	movw	r2, #1064
	movt	r2, #16386
	cmp	r1, r2
	str	r0, [sp]                        @ 4-byte Spill
	beq	.LBB3_16
	b	.LBB3_10
.LBB3_10:
	ldr	r0, [sp, #12]
	ldr	r1, [r0]
	movs	r0, #1
	movw	r2, #1088
	movt	r2, #16386
	cmp	r1, r2
	str	r0, [sp]                        @ 4-byte Spill
	beq	.LBB3_16
	b	.LBB3_11
.LBB3_11:
	ldr	r0, [sp, #12]
	ldr	r1, [r0]
	movs	r0, #1
	movw	r2, #1112
	movt	r2, #16386
	cmp	r1, r2
	str	r0, [sp]                        @ 4-byte Spill
	beq	.LBB3_16
	b	.LBB3_12
.LBB3_12:
	ldr	r0, [sp, #12]
	ldr	r1, [r0]
	movs	r0, #1
	movw	r2, #1136
	movt	r2, #16386
	cmp	r1, r2
	str	r0, [sp]                        @ 4-byte Spill
	beq	.LBB3_16
	b	.LBB3_13
.LBB3_13:
	ldr	r0, [sp, #12]
	ldr	r1, [r0]
	movs	r0, #1
	movw	r2, #1160
	movt	r2, #16386
	cmp	r1, r2
	str	r0, [sp]                        @ 4-byte Spill
	beq	.LBB3_16
	b	.LBB3_14
.LBB3_14:
	ldr	r0, [sp, #12]
	ldr	r1, [r0]
	movs	r0, #1
	movw	r2, #1184
	movt	r2, #16386
	cmp	r1, r2
	str	r0, [sp]                        @ 4-byte Spill
	beq	.LBB3_16
	b	.LBB3_15
.LBB3_15:
	ldr	r0, [sp, #12]
	ldr	r0, [r0]
	movw	r1, #64328
	movt	r1, #49149
	add	r0, r1
	clz	r0, r0
	lsrs	r0, r0, #5
	str	r0, [sp]                        @ 4-byte Spill
	b	.LBB3_16
.Ltmp84:
.LBB3_16:
	.loc	7 0 6 is_stmt 0                 @ libraries/STM32H7xx_HAL/STM32H7xx_HAL_Driver/Src/stm32h7xx_hal_dma_ex.c:0:6
	ldr	r0, [sp]                        @ 4-byte Reload
	.loc	7 351 6                         @ libraries/STM32H7xx_HAL/STM32H7xx_HAL_Driver/Src/stm32h7xx_hal_dma_ex.c:351:6
	lsls	r0, r0, #31
	cbz	r0, .LBB3_21
	b	.LBB3_17
.LBB3_17:
.Ltmp85:
	.loc	7 353 8 is_stmt 1               @ libraries/STM32H7xx_HAL/STM32H7xx_HAL_Driver/Src/stm32h7xx_hal_dma_ex.c:353:8
	ldrb.w	r0, [sp, #7]
.Ltmp86:
	.loc	7 353 8 is_stmt 0               @ libraries/STM32H7xx_HAL/STM32H7xx_HAL_Driver/Src/stm32h7xx_hal_dma_ex.c:353:8
	cbnz	r0, .LBB3_19
	b	.LBB3_18
.LBB3_18:
.Ltmp87:
	.loc	7 356 56 is_stmt 1              @ libraries/STM32H7xx_HAL/STM32H7xx_HAL_Driver/Src/stm32h7xx_hal_dma_ex.c:356:56
	ldr	r0, [sp, #8]
	.loc	7 356 32 is_stmt 0              @ libraries/STM32H7xx_HAL/STM32H7xx_HAL_Driver/Src/stm32h7xx_hal_dma_ex.c:356:32
	ldr	r1, [sp, #12]
	.loc	7 356 38                        @ libraries/STM32H7xx_HAL/STM32H7xx_HAL_Driver/Src/stm32h7xx_hal_dma_ex.c:356:38
	ldr	r1, [r1]
	.loc	7 356 54                        @ libraries/STM32H7xx_HAL/STM32H7xx_HAL_Driver/Src/stm32h7xx_hal_dma_ex.c:356:54
	str	r0, [r1, #12]
	.loc	7 357 5 is_stmt 1               @ libraries/STM32H7xx_HAL/STM32H7xx_HAL_Driver/Src/stm32h7xx_hal_dma_ex.c:357:5
	b	.LBB3_20
.Ltmp88:
.LBB3_19:
	.loc	7 361 56                        @ libraries/STM32H7xx_HAL/STM32H7xx_HAL_Driver/Src/stm32h7xx_hal_dma_ex.c:361:56
	ldr	r0, [sp, #8]
	.loc	7 361 32 is_stmt 0              @ libraries/STM32H7xx_HAL/STM32H7xx_HAL_Driver/Src/stm32h7xx_hal_dma_ex.c:361:32
	ldr	r1, [sp, #12]
	.loc	7 361 38                        @ libraries/STM32H7xx_HAL/STM32H7xx_HAL_Driver/Src/stm32h7xx_hal_dma_ex.c:361:38
	ldr	r1, [r1]
	.loc	7 361 54                        @ libraries/STM32H7xx_HAL/STM32H7xx_HAL_Driver/Src/stm32h7xx_hal_dma_ex.c:361:54
	str	r0, [r1, #16]
	b	.LBB3_20
.Ltmp89:
.LBB3_20:
	.loc	7 363 3 is_stmt 1               @ libraries/STM32H7xx_HAL/STM32H7xx_HAL_Driver/Src/stm32h7xx_hal_dma_ex.c:363:3
	b	.LBB3_25
.Ltmp90:
.LBB3_21:
	.loc	7 366 8                         @ libraries/STM32H7xx_HAL/STM32H7xx_HAL_Driver/Src/stm32h7xx_hal_dma_ex.c:366:8
	ldrb.w	r0, [sp, #7]
.Ltmp91:
	.loc	7 366 8 is_stmt 0               @ libraries/STM32H7xx_HAL/STM32H7xx_HAL_Driver/Src/stm32h7xx_hal_dma_ex.c:366:8
	cbnz	r0, .LBB3_23
	b	.LBB3_22
.LBB3_22:
.Ltmp92:
	.loc	7 369 59 is_stmt 1              @ libraries/STM32H7xx_HAL/STM32H7xx_HAL_Driver/Src/stm32h7xx_hal_dma_ex.c:369:59
	ldr	r0, [sp, #8]
	.loc	7 369 34 is_stmt 0              @ libraries/STM32H7xx_HAL/STM32H7xx_HAL_Driver/Src/stm32h7xx_hal_dma_ex.c:369:34
	ldr	r1, [sp, #12]
	.loc	7 369 40                        @ libraries/STM32H7xx_HAL/STM32H7xx_HAL_Driver/Src/stm32h7xx_hal_dma_ex.c:369:40
	ldr	r1, [r1]
	.loc	7 369 57                        @ libraries/STM32H7xx_HAL/STM32H7xx_HAL_Driver/Src/stm32h7xx_hal_dma_ex.c:369:57
	str	r0, [r1, #12]
	.loc	7 370 5 is_stmt 1               @ libraries/STM32H7xx_HAL/STM32H7xx_HAL_Driver/Src/stm32h7xx_hal_dma_ex.c:370:5
	b	.LBB3_24
.Ltmp93:
.LBB3_23:
	.loc	7 374 59                        @ libraries/STM32H7xx_HAL/STM32H7xx_HAL_Driver/Src/stm32h7xx_hal_dma_ex.c:374:59
	ldr	r0, [sp, #8]
	.loc	7 374 34 is_stmt 0              @ libraries/STM32H7xx_HAL/STM32H7xx_HAL_Driver/Src/stm32h7xx_hal_dma_ex.c:374:34
	ldr	r1, [sp, #12]
	.loc	7 374 40                        @ libraries/STM32H7xx_HAL/STM32H7xx_HAL_Driver/Src/stm32h7xx_hal_dma_ex.c:374:40
	ldr	r1, [r1]
	.loc	7 374 57                        @ libraries/STM32H7xx_HAL/STM32H7xx_HAL_Driver/Src/stm32h7xx_hal_dma_ex.c:374:57
	str	r0, [r1, #16]
	b	.LBB3_24
.Ltmp94:
.LBB3_24:
	.loc	7 0 57                          @ libraries/STM32H7xx_HAL/STM32H7xx_HAL_Driver/Src/stm32h7xx_hal_dma_ex.c:0:57
	b	.LBB3_25
.LBB3_25:
	movs	r0, #0
	.loc	7 378 3 is_stmt 1               @ libraries/STM32H7xx_HAL/STM32H7xx_HAL_Driver/Src/stm32h7xx_hal_dma_ex.c:378:3
	add	sp, #16
	bx	lr
.Ltmp95:
.Lfunc_end3:
	.size	HAL_DMAEx_ChangeMemory, .Lfunc_end3-HAL_DMAEx_ChangeMemory
	.cfi_endproc
	.cantunwind
	.fnend
                                        @ -- End function
	.section	.text.HAL_DMAEx_ConfigMuxSync,"ax",%progbits
	.hidden	HAL_DMAEx_ConfigMuxSync         @ -- Begin function HAL_DMAEx_ConfigMuxSync
	.globl	HAL_DMAEx_ConfigMuxSync
	.p2align	3
	.type	HAL_DMAEx_ConfigMuxSync,%function
	.code	16                              @ @HAL_DMAEx_ConfigMuxSync
	.thumb_func
HAL_DMAEx_ConfigMuxSync:
.Lfunc_begin4:
	.loc	7 389 0                         @ libraries/STM32H7xx_HAL/STM32H7xx_HAL_Driver/Src/stm32h7xx_hal_dma_ex.c:389:0
	.fnstart
	.cfi_startproc
@ %bb.0:
	.pad	#24
	sub	sp, #24
	.cfi_def_cfa_offset 24
	str	r0, [sp, #16]
	str	r1, [sp, #12]
	movs	r0, #0
.Ltmp96:
	.loc	7 390 12 prologue_end           @ libraries/STM32H7xx_HAL/STM32H7xx_HAL_Driver/Src/stm32h7xx_hal_dma_ex.c:390:12
	str	r0, [sp, #8]
	.loc	7 391 12                        @ libraries/STM32H7xx_HAL/STM32H7xx_HAL_Driver/Src/stm32h7xx_hal_dma_ex.c:391:12
	str	r0, [sp, #4]
.Ltmp97:
	.loc	7 399 6                         @ libraries/STM32H7xx_HAL/STM32H7xx_HAL_Driver/Src/stm32h7xx_hal_dma_ex.c:399:6
	ldr	r0, [sp, #12]
	.loc	7 399 19 is_stmt 0              @ libraries/STM32H7xx_HAL/STM32H7xx_HAL_Driver/Src/stm32h7xx_hal_dma_ex.c:399:19
	ldrb	r0, [r0, #8]
.Ltmp98:
	.loc	7 399 6                         @ libraries/STM32H7xx_HAL/STM32H7xx_HAL_Driver/Src/stm32h7xx_hal_dma_ex.c:399:6
	cmp	r0, #1
	bne.w	.LBB4_21
	b	.LBB4_1
.LBB4_1:
.Ltmp99:
	.loc	7 403 8 is_stmt 1               @ libraries/STM32H7xx_HAL/STM32H7xx_HAL_Driver/Src/stm32h7xx_hal_dma_ex.c:403:8
	ldr	r0, [sp, #16]
	ldr	r1, [r0]
	movs	r0, #1
	movs	r2, #16
	movt	r2, #16386
	cmp	r1, r2
	str	r0, [sp]                        @ 4-byte Spill
	beq.w	.LBB4_17
	b	.LBB4_2
.LBB4_2:
	ldr	r0, [sp, #16]
	ldr	r1, [r0]
	movs	r0, #1
	movs	r2, #40
	movt	r2, #16386
	cmp	r1, r2
	str	r0, [sp]                        @ 4-byte Spill
	beq.w	.LBB4_17
	b	.LBB4_3
.LBB4_3:
	ldr	r0, [sp, #16]
	ldr	r1, [r0]
	movs	r0, #1
	movs	r2, #64
	movt	r2, #16386
	cmp	r1, r2
	str	r0, [sp]                        @ 4-byte Spill
	beq.w	.LBB4_17
	b	.LBB4_4
.LBB4_4:
	ldr	r0, [sp, #16]
	ldr	r1, [r0]
	movs	r0, #1
	movs	r2, #88
	movt	r2, #16386
	cmp	r1, r2
	str	r0, [sp]                        @ 4-byte Spill
	beq.w	.LBB4_17
	b	.LBB4_5
.LBB4_5:
	ldr	r0, [sp, #16]
	ldr	r1, [r0]
	movs	r0, #1
	movs	r2, #112
	movt	r2, #16386
	cmp	r1, r2
	str	r0, [sp]                        @ 4-byte Spill
	beq	.LBB4_17
	b	.LBB4_6
.LBB4_6:
	ldr	r0, [sp, #16]
	ldr	r1, [r0]
	movs	r0, #1
	movs	r2, #136
	movt	r2, #16386
	cmp	r1, r2
	str	r0, [sp]                        @ 4-byte Spill
	beq	.LBB4_17
	b	.LBB4_7
.LBB4_7:
	ldr	r0, [sp, #16]
	ldr	r1, [r0]
	movs	r0, #1
	movs	r2, #160
	movt	r2, #16386
	cmp	r1, r2
	str	r0, [sp]                        @ 4-byte Spill
	beq	.LBB4_17
	b	.LBB4_8
.LBB4_8:
	ldr	r0, [sp, #16]
	ldr	r1, [r0]
	movs	r0, #1
	movs	r2, #184
	movt	r2, #16386
	cmp	r1, r2
	str	r0, [sp]                        @ 4-byte Spill
	beq	.LBB4_17
	b	.LBB4_9
.LBB4_9:
	ldr	r0, [sp, #16]
	ldr	r1, [r0]
	movs	r0, #1
	movw	r2, #1040
	movt	r2, #16386
	cmp	r1, r2
	str	r0, [sp]                        @ 4-byte Spill
	beq	.LBB4_17
	b	.LBB4_10
.LBB4_10:
	ldr	r0, [sp, #16]
	ldr	r1, [r0]
	movs	r0, #1
	movw	r2, #1064
	movt	r2, #16386
	cmp	r1, r2
	str	r0, [sp]                        @ 4-byte Spill
	beq	.LBB4_17
	b	.LBB4_11
.LBB4_11:
	ldr	r0, [sp, #16]
	ldr	r1, [r0]
	movs	r0, #1
	movw	r2, #1088
	movt	r2, #16386
	cmp	r1, r2
	str	r0, [sp]                        @ 4-byte Spill
	beq	.LBB4_17
	b	.LBB4_12
.LBB4_12:
	ldr	r0, [sp, #16]
	ldr	r1, [r0]
	movs	r0, #1
	movw	r2, #1112
	movt	r2, #16386
	cmp	r1, r2
	str	r0, [sp]                        @ 4-byte Spill
	beq	.LBB4_17
	b	.LBB4_13
.LBB4_13:
	ldr	r0, [sp, #16]
	ldr	r1, [r0]
	movs	r0, #1
	movw	r2, #1136
	movt	r2, #16386
	cmp	r1, r2
	str	r0, [sp]                        @ 4-byte Spill
	beq	.LBB4_17
	b	.LBB4_14
.LBB4_14:
	ldr	r0, [sp, #16]
	ldr	r1, [r0]
	movs	r0, #1
	movw	r2, #1160
	movt	r2, #16386
	cmp	r1, r2
	str	r0, [sp]                        @ 4-byte Spill
	beq	.LBB4_17
	b	.LBB4_15
.LBB4_15:
	ldr	r0, [sp, #16]
	ldr	r1, [r0]
	movs	r0, #1
	movw	r2, #1184
	movt	r2, #16386
	cmp	r1, r2
	str	r0, [sp]                        @ 4-byte Spill
	beq	.LBB4_17
	b	.LBB4_16
.LBB4_16:
	ldr	r0, [sp, #16]
	ldr	r0, [r0]
	movw	r1, #64328
	movt	r1, #49149
	add	r0, r1
	clz	r0, r0
	lsrs	r0, r0, #5
	str	r0, [sp]                        @ 4-byte Spill
	b	.LBB4_17
.Ltmp100:
.LBB4_17:
	.loc	7 0 8 is_stmt 0                 @ libraries/STM32H7xx_HAL/STM32H7xx_HAL_Driver/Src/stm32h7xx_hal_dma_ex.c:0:8
	ldr	r0, [sp]                        @ 4-byte Reload
	.loc	7 403 8                         @ libraries/STM32H7xx_HAL/STM32H7xx_HAL_Driver/Src/stm32h7xx_hal_dma_ex.c:403:8
	lsls	r0, r0, #31
	cbz	r0, .LBB4_19
	b	.LBB4_18
.LBB4_18:
.Ltmp101:
	.loc	7 406 5 is_stmt 1               @ libraries/STM32H7xx_HAL/STM32H7xx_HAL_Driver/Src/stm32h7xx_hal_dma_ex.c:406:5
	b	.LBB4_20
.Ltmp102:
.LBB4_19:
	.loc	7 0 5 is_stmt 0                 @ libraries/STM32H7xx_HAL/STM32H7xx_HAL_Driver/Src/stm32h7xx_hal_dma_ex.c:0:5
	b	.LBB4_20
.LBB4_20:
	.loc	7 411 20 is_stmt 1              @ libraries/STM32H7xx_HAL/STM32H7xx_HAL_Driver/Src/stm32h7xx_hal_dma_ex.c:411:20
	ldr	r0, [sp, #12]
	.loc	7 411 33 is_stmt 0              @ libraries/STM32H7xx_HAL/STM32H7xx_HAL_Driver/Src/stm32h7xx_hal_dma_ex.c:411:33
	ldr	r0, [r0]
	.loc	7 411 18                        @ libraries/STM32H7xx_HAL/STM32H7xx_HAL_Driver/Src/stm32h7xx_hal_dma_ex.c:411:18
	str	r0, [sp, #8]
	.loc	7 412 20 is_stmt 1              @ libraries/STM32H7xx_HAL/STM32H7xx_HAL_Driver/Src/stm32h7xx_hal_dma_ex.c:412:20
	ldr	r0, [sp, #12]
	.loc	7 412 33 is_stmt 0              @ libraries/STM32H7xx_HAL/STM32H7xx_HAL_Driver/Src/stm32h7xx_hal_dma_ex.c:412:33
	ldr	r0, [r0, #4]
	.loc	7 412 18                        @ libraries/STM32H7xx_HAL/STM32H7xx_HAL_Driver/Src/stm32h7xx_hal_dma_ex.c:412:18
	str	r0, [sp, #4]
	.loc	7 413 3 is_stmt 1               @ libraries/STM32H7xx_HAL/STM32H7xx_HAL_Driver/Src/stm32h7xx_hal_dma_ex.c:413:3
	b	.LBB4_21
.Ltmp103:
.LBB4_21:
	.loc	7 416 6                         @ libraries/STM32H7xx_HAL/STM32H7xx_HAL_Driver/Src/stm32h7xx_hal_dma_ex.c:416:6
	ldr	r0, [sp, #16]
	.loc	7 416 12 is_stmt 0              @ libraries/STM32H7xx_HAL/STM32H7xx_HAL_Driver/Src/stm32h7xx_hal_dma_ex.c:416:12
	ldrb.w	r0, [r0, #53]
.Ltmp104:
	.loc	7 416 6                         @ libraries/STM32H7xx_HAL/STM32H7xx_HAL_Driver/Src/stm32h7xx_hal_dma_ex.c:416:6
	cmp	r0, #1
	bne	.LBB4_30
	b	.LBB4_22
.LBB4_22:
.Ltmp105:
	.loc	7 419 5 is_stmt 1               @ libraries/STM32H7xx_HAL/STM32H7xx_HAL_Driver/Src/stm32h7xx_hal_dma_ex.c:419:5
	b	.LBB4_23
.LBB4_23:
.Ltmp106:
	.loc	7 419 5 is_stmt 0               @ libraries/STM32H7xx_HAL/STM32H7xx_HAL_Driver/Src/stm32h7xx_hal_dma_ex.c:419:5
	ldr	r0, [sp, #16]
	ldrb.w	r0, [r0, #52]
.Ltmp107:
	.loc	7 419 5                         @ libraries/STM32H7xx_HAL/STM32H7xx_HAL_Driver/Src/stm32h7xx_hal_dma_ex.c:419:5
	cmp	r0, #1
	bne	.LBB4_25
	b	.LBB4_24
.LBB4_24:
	.loc	7 0 5                           @ libraries/STM32H7xx_HAL/STM32H7xx_HAL_Driver/Src/stm32h7xx_hal_dma_ex.c:0:5
	movs	r0, #2
.Ltmp108:
	.loc	7 419 5                         @ libraries/STM32H7xx_HAL/STM32H7xx_HAL_Driver/Src/stm32h7xx_hal_dma_ex.c:419:5
	strb.w	r0, [sp, #23]
	b	.LBB4_31
.Ltmp109:
.LBB4_25:
	.loc	7 419 5                         @ libraries/STM32H7xx_HAL/STM32H7xx_HAL_Driver/Src/stm32h7xx_hal_dma_ex.c:419:5
	ldr	r1, [sp, #16]
	movs	r0, #1
	strb.w	r0, [r1, #52]
	b	.LBB4_26
.Ltmp110:
.LBB4_26:
	.loc	7 419 5                         @ libraries/STM32H7xx_HAL/STM32H7xx_HAL_Driver/Src/stm32h7xx_hal_dma_ex.c:419:5
	b	.LBB4_27
.Ltmp111:
.LBB4_27:
	.loc	7 422 5 is_stmt 1               @ libraries/STM32H7xx_HAL/STM32H7xx_HAL_Driver/Src/stm32h7xx_hal_dma_ex.c:422:5
	ldr	r0, [sp, #16]
	ldr	r1, [r0, #96]
	ldr	r0, [r1]
	bic	r0, r0, #66048
	str	r0, [r1]
	.loc	7 425 5                         @ libraries/STM32H7xx_HAL/STM32H7xx_HAL_Driver/Src/stm32h7xx_hal_dma_ex.c:425:5
	ldr	r0, [sp, #16]
	ldr	r0, [r0, #96]
	ldr	r0, [r0]
	uxtb	r0, r0
	ldr	r3, [sp, #8]
	ldr	r2, [sp, #12]
	ldr.w	r12, [r2, #12]
	movs	r1, #0
	movt	r1, #65528
	add.w	r1, r1, r12, lsl #19
	orr.w	r1, r1, r3, lsl #24
	ldr	r3, [sp, #4]
	orrs	r1, r3
	ldrb	r3, [r2, #8]
	ldrb	r2, [r2, #9]
	orr.w	r1, r1, r3, lsl #16
	orr.w	r1, r1, r2, lsl #9
	orrs	r0, r1
	ldr	r1, [sp, #16]
	ldr	r1, [r1, #96]
	str	r0, [r1]
	.loc	7 433 5                         @ libraries/STM32H7xx_HAL/STM32H7xx_HAL_Driver/Src/stm32h7xx_hal_dma_ex.c:433:5
	b	.LBB4_28
.LBB4_28:
.Ltmp112:
	.loc	7 433 5 is_stmt 0               @ libraries/STM32H7xx_HAL/STM32H7xx_HAL_Driver/Src/stm32h7xx_hal_dma_ex.c:433:5
	ldr	r1, [sp, #16]
	movs	r0, #0
	strb.w	r0, [r1, #52]
	b	.LBB4_29
.Ltmp113:
.LBB4_29:
	.loc	7 0 5                           @ libraries/STM32H7xx_HAL/STM32H7xx_HAL_Driver/Src/stm32h7xx_hal_dma_ex.c:0:5
	movs	r0, #0
	.loc	7 435 5 is_stmt 1               @ libraries/STM32H7xx_HAL/STM32H7xx_HAL_Driver/Src/stm32h7xx_hal_dma_ex.c:435:5
	strb.w	r0, [sp, #23]
	b	.LBB4_31
.Ltmp114:
.LBB4_30:
	.loc	7 440 5                         @ libraries/STM32H7xx_HAL/STM32H7xx_HAL_Driver/Src/stm32h7xx_hal_dma_ex.c:440:5
	ldr	r1, [sp, #16]
	mov.w	r0, #2048
	.loc	7 440 21 is_stmt 0              @ libraries/STM32H7xx_HAL/STM32H7xx_HAL_Driver/Src/stm32h7xx_hal_dma_ex.c:440:21
	str	r0, [r1, #84]
	movs	r0, #1
	.loc	7 443 5 is_stmt 1               @ libraries/STM32H7xx_HAL/STM32H7xx_HAL_Driver/Src/stm32h7xx_hal_dma_ex.c:443:5
	strb.w	r0, [sp, #23]
	b	.LBB4_31
.Ltmp115:
.LBB4_31:
	.loc	7 445 1                         @ libraries/STM32H7xx_HAL/STM32H7xx_HAL_Driver/Src/stm32h7xx_hal_dma_ex.c:445:1
	ldrb.w	r0, [sp, #23]
	add	sp, #24
	bx	lr
.Ltmp116:
.Lfunc_end4:
	.size	HAL_DMAEx_ConfigMuxSync, .Lfunc_end4-HAL_DMAEx_ConfigMuxSync
	.cfi_endproc
	.cantunwind
	.fnend
                                        @ -- End function
	.section	.text.HAL_DMAEx_ConfigMuxRequestGenerator,"ax",%progbits
	.hidden	HAL_DMAEx_ConfigMuxRequestGenerator @ -- Begin function HAL_DMAEx_ConfigMuxRequestGenerator
	.globl	HAL_DMAEx_ConfigMuxRequestGenerator
	.p2align	3
	.type	HAL_DMAEx_ConfigMuxRequestGenerator,%function
	.code	16                              @ @HAL_DMAEx_ConfigMuxRequestGenerator
	.thumb_func
HAL_DMAEx_ConfigMuxRequestGenerator:
.Lfunc_begin5:
	.loc	7 457 0                         @ libraries/STM32H7xx_HAL/STM32H7xx_HAL_Driver/Src/stm32h7xx_hal_dma_ex.c:457:0
	.fnstart
	.cfi_startproc
@ %bb.0:
	.pad	#20
	sub	sp, #20
	.cfi_def_cfa_offset 20
	str	r0, [sp, #12]
	str	r1, [sp, #8]
.Ltmp117:
	.loc	7 459 37 prologue_end           @ libraries/STM32H7xx_HAL/STM32H7xx_HAL_Driver/Src/stm32h7xx_hal_dma_ex.c:459:37
	ldr	r0, [sp, #12]
	.loc	7 459 43 is_stmt 0              @ libraries/STM32H7xx_HAL/STM32H7xx_HAL_Driver/Src/stm32h7xx_hal_dma_ex.c:459:43
	ldrb.w	r0, [r0, #53]
	.loc	7 459 24                        @ libraries/STM32H7xx_HAL/STM32H7xx_HAL_Driver/Src/stm32h7xx_hal_dma_ex.c:459:24
	strb.w	r0, [sp, #6]
.Ltmp118:
	.loc	7 464 6 is_stmt 1               @ libraries/STM32H7xx_HAL/STM32H7xx_HAL_Driver/Src/stm32h7xx_hal_dma_ex.c:464:6
	ldr	r0, [sp, #12]
	ldr	r1, [r0]
	movs	r0, #1
	movs	r2, #16
	movt	r2, #16386
	cmp	r1, r2
	str	r0, [sp]                        @ 4-byte Spill
	beq.w	.LBB5_16
	b	.LBB5_1
.LBB5_1:
	ldr	r0, [sp, #12]
	ldr	r1, [r0]
	movs	r0, #1
	movs	r2, #40
	movt	r2, #16386
	cmp	r1, r2
	str	r0, [sp]                        @ 4-byte Spill
	beq.w	.LBB5_16
	b	.LBB5_2
.LBB5_2:
	ldr	r0, [sp, #12]
	ldr	r1, [r0]
	movs	r0, #1
	movs	r2, #64
	movt	r2, #16386
	cmp	r1, r2
	str	r0, [sp]                        @ 4-byte Spill
	beq.w	.LBB5_16
	b	.LBB5_3
.LBB5_3:
	ldr	r0, [sp, #12]
	ldr	r1, [r0]
	movs	r0, #1
	movs	r2, #88
	movt	r2, #16386
	cmp	r1, r2
	str	r0, [sp]                        @ 4-byte Spill
	beq.w	.LBB5_16
	b	.LBB5_4
.LBB5_4:
	ldr	r0, [sp, #12]
	ldr	r1, [r0]
	movs	r0, #1
	movs	r2, #112
	movt	r2, #16386
	cmp	r1, r2
	str	r0, [sp]                        @ 4-byte Spill
	beq	.LBB5_16
	b	.LBB5_5
.LBB5_5:
	ldr	r0, [sp, #12]
	ldr	r1, [r0]
	movs	r0, #1
	movs	r2, #136
	movt	r2, #16386
	cmp	r1, r2
	str	r0, [sp]                        @ 4-byte Spill
	beq	.LBB5_16
	b	.LBB5_6
.LBB5_6:
	ldr	r0, [sp, #12]
	ldr	r1, [r0]
	movs	r0, #1
	movs	r2, #160
	movt	r2, #16386
	cmp	r1, r2
	str	r0, [sp]                        @ 4-byte Spill
	beq	.LBB5_16
	b	.LBB5_7
.LBB5_7:
	ldr	r0, [sp, #12]
	ldr	r1, [r0]
	movs	r0, #1
	movs	r2, #184
	movt	r2, #16386
	cmp	r1, r2
	str	r0, [sp]                        @ 4-byte Spill
	beq	.LBB5_16
	b	.LBB5_8
.LBB5_8:
	ldr	r0, [sp, #12]
	ldr	r1, [r0]
	movs	r0, #1
	movw	r2, #1040
	movt	r2, #16386
	cmp	r1, r2
	str	r0, [sp]                        @ 4-byte Spill
	beq	.LBB5_16
	b	.LBB5_9
.LBB5_9:
	ldr	r0, [sp, #12]
	ldr	r1, [r0]
	movs	r0, #1
	movw	r2, #1064
	movt	r2, #16386
	cmp	r1, r2
	str	r0, [sp]                        @ 4-byte Spill
	beq	.LBB5_16
	b	.LBB5_10
.LBB5_10:
	ldr	r0, [sp, #12]
	ldr	r1, [r0]
	movs	r0, #1
	movw	r2, #1088
	movt	r2, #16386
	cmp	r1, r2
	str	r0, [sp]                        @ 4-byte Spill
	beq	.LBB5_16
	b	.LBB5_11
.LBB5_11:
	ldr	r0, [sp, #12]
	ldr	r1, [r0]
	movs	r0, #1
	movw	r2, #1112
	movt	r2, #16386
	cmp	r1, r2
	str	r0, [sp]                        @ 4-byte Spill
	beq	.LBB5_16
	b	.LBB5_12
.LBB5_12:
	ldr	r0, [sp, #12]
	ldr	r1, [r0]
	movs	r0, #1
	movw	r2, #1136
	movt	r2, #16386
	cmp	r1, r2
	str	r0, [sp]                        @ 4-byte Spill
	beq	.LBB5_16
	b	.LBB5_13
.LBB5_13:
	ldr	r0, [sp, #12]
	ldr	r1, [r0]
	movs	r0, #1
	movw	r2, #1160
	movt	r2, #16386
	cmp	r1, r2
	str	r0, [sp]                        @ 4-byte Spill
	beq	.LBB5_16
	b	.LBB5_14
.LBB5_14:
	ldr	r0, [sp, #12]
	ldr	r1, [r0]
	movs	r0, #1
	movw	r2, #1184
	movt	r2, #16386
	cmp	r1, r2
	str	r0, [sp]                        @ 4-byte Spill
	beq	.LBB5_16
	b	.LBB5_15
.LBB5_15:
	ldr	r0, [sp, #12]
	ldr	r0, [r0]
	movw	r1, #64328
	movt	r1, #49149
	add	r0, r1
	clz	r0, r0
	lsrs	r0, r0, #5
	str	r0, [sp]                        @ 4-byte Spill
	b	.LBB5_16
.Ltmp119:
.LBB5_16:
	.loc	7 0 6 is_stmt 0                 @ libraries/STM32H7xx_HAL/STM32H7xx_HAL_Driver/Src/stm32h7xx_hal_dma_ex.c:0:6
	ldr	r0, [sp]                        @ 4-byte Reload
	.loc	7 464 6                         @ libraries/STM32H7xx_HAL/STM32H7xx_HAL_Driver/Src/stm32h7xx_hal_dma_ex.c:464:6
	lsls	r0, r0, #31
	cbz	r0, .LBB5_18
	b	.LBB5_17
.LBB5_17:
.Ltmp120:
	.loc	7 467 3 is_stmt 1               @ libraries/STM32H7xx_HAL/STM32H7xx_HAL_Driver/Src/stm32h7xx_hal_dma_ex.c:467:3
	b	.LBB5_19
.Ltmp121:
.LBB5_18:
	.loc	7 0 3 is_stmt 0                 @ libraries/STM32H7xx_HAL/STM32H7xx_HAL_Driver/Src/stm32h7xx_hal_dma_ex.c:0:3
	b	.LBB5_19
.LBB5_19:
.Ltmp122:
	.loc	7 480 6 is_stmt 1               @ libraries/STM32H7xx_HAL/STM32H7xx_HAL_Driver/Src/stm32h7xx_hal_dma_ex.c:480:6
	ldr	r0, [sp, #12]
	.loc	7 480 12 is_stmt 0              @ libraries/STM32H7xx_HAL/STM32H7xx_HAL_Driver/Src/stm32h7xx_hal_dma_ex.c:480:12
	ldr	r0, [r0, #108]
.Ltmp123:
	.loc	7 480 6                         @ libraries/STM32H7xx_HAL/STM32H7xx_HAL_Driver/Src/stm32h7xx_hal_dma_ex.c:480:6
	cbnz	r0, .LBB5_21
	b	.LBB5_20
.LBB5_20:
.Ltmp124:
	.loc	7 483 5 is_stmt 1               @ libraries/STM32H7xx_HAL/STM32H7xx_HAL_Driver/Src/stm32h7xx_hal_dma_ex.c:483:5
	ldr	r1, [sp, #12]
	movs	r0, #64
	.loc	7 483 21 is_stmt 0              @ libraries/STM32H7xx_HAL/STM32H7xx_HAL_Driver/Src/stm32h7xx_hal_dma_ex.c:483:21
	str	r0, [r1, #84]
	movs	r0, #1
	.loc	7 486 12 is_stmt 1              @ libraries/STM32H7xx_HAL/STM32H7xx_HAL_Driver/Src/stm32h7xx_hal_dma_ex.c:486:12
	strb.w	r0, [sp, #7]
	.loc	7 487 3                         @ libraries/STM32H7xx_HAL/STM32H7xx_HAL_Driver/Src/stm32h7xx_hal_dma_ex.c:487:3
	b	.LBB5_33
.Ltmp125:
.LBB5_21:
	.loc	7 488 13                        @ libraries/STM32H7xx_HAL/STM32H7xx_HAL_Driver/Src/stm32h7xx_hal_dma_ex.c:488:13
	ldr	r0, [sp, #12]
	.loc	7 488 19 is_stmt 0              @ libraries/STM32H7xx_HAL/STM32H7xx_HAL_Driver/Src/stm32h7xx_hal_dma_ex.c:488:19
	ldr	r0, [r0, #108]
	.loc	7 488 37                        @ libraries/STM32H7xx_HAL/STM32H7xx_HAL_Driver/Src/stm32h7xx_hal_dma_ex.c:488:37
	ldr	r0, [r0]
	.loc	7 488 68                        @ libraries/STM32H7xx_HAL/STM32H7xx_HAL_Driver/Src/stm32h7xx_hal_dma_ex.c:488:68
	lsls	r0, r0, #15
	cmp	r0, #0
	bmi	.LBB5_31
	b	.LBB5_22
.LBB5_22:
	.loc	7 488 72                        @ libraries/STM32H7xx_HAL/STM32H7xx_HAL_Driver/Src/stm32h7xx_hal_dma_ex.c:488:72
	ldrb.w	r0, [sp, #6]
.Ltmp126:
	.loc	7 488 11                        @ libraries/STM32H7xx_HAL/STM32H7xx_HAL_Driver/Src/stm32h7xx_hal_dma_ex.c:488:11
	cmp	r0, #1
	bne	.LBB5_31
	b	.LBB5_23
.LBB5_23:
.Ltmp127:
	.loc	7 493 5 is_stmt 1               @ libraries/STM32H7xx_HAL/STM32H7xx_HAL_Driver/Src/stm32h7xx_hal_dma_ex.c:493:5
	b	.LBB5_24
.LBB5_24:
.Ltmp128:
	.loc	7 493 5 is_stmt 0               @ libraries/STM32H7xx_HAL/STM32H7xx_HAL_Driver/Src/stm32h7xx_hal_dma_ex.c:493:5
	ldr	r0, [sp, #12]
	ldrb.w	r0, [r0, #52]
.Ltmp129:
	.loc	7 493 5                         @ libraries/STM32H7xx_HAL/STM32H7xx_HAL_Driver/Src/stm32h7xx_hal_dma_ex.c:493:5
	cmp	r0, #1
	bne	.LBB5_26
	b	.LBB5_25
.LBB5_25:
	.loc	7 0 5                           @ libraries/STM32H7xx_HAL/STM32H7xx_HAL_Driver/Src/stm32h7xx_hal_dma_ex.c:0:5
	movs	r0, #2
.Ltmp130:
	.loc	7 493 5                         @ libraries/STM32H7xx_HAL/STM32H7xx_HAL_Driver/Src/stm32h7xx_hal_dma_ex.c:493:5
	strb.w	r0, [sp, #19]
	b	.LBB5_34
.Ltmp131:
.LBB5_26:
	.loc	7 493 5                         @ libraries/STM32H7xx_HAL/STM32H7xx_HAL_Driver/Src/stm32h7xx_hal_dma_ex.c:493:5
	ldr	r1, [sp, #12]
	movs	r0, #1
	strb.w	r0, [r1, #52]
	b	.LBB5_27
.Ltmp132:
.LBB5_27:
	.loc	7 493 5                         @ libraries/STM32H7xx_HAL/STM32H7xx_HAL_Driver/Src/stm32h7xx_hal_dma_ex.c:493:5
	b	.LBB5_28
.Ltmp133:
.LBB5_28:
	.loc	7 496 36 is_stmt 1              @ libraries/STM32H7xx_HAL/STM32H7xx_HAL_Driver/Src/stm32h7xx_hal_dma_ex.c:496:36
	ldr	r2, [sp, #8]
	.loc	7 496 61 is_stmt 0              @ libraries/STM32H7xx_HAL/STM32H7xx_HAL_Driver/Src/stm32h7xx_hal_dma_ex.c:496:61
	ldr	r0, [r2]
	.loc	7 498 60 is_stmt 1              @ libraries/STM32H7xx_HAL/STM32H7xx_HAL_Driver/Src/stm32h7xx_hal_dma_ex.c:498:60
	ldr	r1, [r2, #4]
	.loc	7 497 62                        @ libraries/STM32H7xx_HAL/STM32H7xx_HAL_Driver/Src/stm32h7xx_hal_dma_ex.c:497:62
	ldr	r3, [r2, #8]
	movs	r2, #0
	movt	r2, #65528
	.loc	7 497 82 is_stmt 0              @ libraries/STM32H7xx_HAL/STM32H7xx_HAL_Driver/Src/stm32h7xx_hal_dma_ex.c:497:82
	add.w	r2, r2, r3, lsl #19
	.loc	7 496 70 is_stmt 1              @ libraries/STM32H7xx_HAL/STM32H7xx_HAL_Driver/Src/stm32h7xx_hal_dma_ex.c:496:70
	orrs	r0, r2
	.loc	7 497 109                       @ libraries/STM32H7xx_HAL/STM32H7xx_HAL_Driver/Src/stm32h7xx_hal_dma_ex.c:497:109
	orrs	r0, r1
	.loc	7 496 5                         @ libraries/STM32H7xx_HAL/STM32H7xx_HAL_Driver/Src/stm32h7xx_hal_dma_ex.c:496:5
	ldr	r1, [sp, #12]
	.loc	7 496 11 is_stmt 0              @ libraries/STM32H7xx_HAL/STM32H7xx_HAL_Driver/Src/stm32h7xx_hal_dma_ex.c:496:11
	ldr	r1, [r1, #108]
	.loc	7 496 34                        @ libraries/STM32H7xx_HAL/STM32H7xx_HAL_Driver/Src/stm32h7xx_hal_dma_ex.c:496:34
	str	r0, [r1]
	.loc	7 500 5 is_stmt 1               @ libraries/STM32H7xx_HAL/STM32H7xx_HAL_Driver/Src/stm32h7xx_hal_dma_ex.c:500:5
	b	.LBB5_29
.LBB5_29:
.Ltmp134:
	.loc	7 500 5 is_stmt 0               @ libraries/STM32H7xx_HAL/STM32H7xx_HAL_Driver/Src/stm32h7xx_hal_dma_ex.c:500:5
	ldr	r1, [sp, #12]
	movs	r0, #0
	strb.w	r0, [r1, #52]
	b	.LBB5_30
.Ltmp135:
.LBB5_30:
	.loc	7 0 5                           @ libraries/STM32H7xx_HAL/STM32H7xx_HAL_Driver/Src/stm32h7xx_hal_dma_ex.c:0:5
	movs	r0, #0
	.loc	7 502 5 is_stmt 1               @ libraries/STM32H7xx_HAL/STM32H7xx_HAL_Driver/Src/stm32h7xx_hal_dma_ex.c:502:5
	strb.w	r0, [sp, #19]
	b	.LBB5_34
.Ltmp136:
.LBB5_31:
	.loc	7 507 5                         @ libraries/STM32H7xx_HAL/STM32H7xx_HAL_Driver/Src/stm32h7xx_hal_dma_ex.c:507:5
	ldr	r1, [sp, #12]
	mov.w	r0, #2048
	.loc	7 507 21 is_stmt 0              @ libraries/STM32H7xx_HAL/STM32H7xx_HAL_Driver/Src/stm32h7xx_hal_dma_ex.c:507:21
	str	r0, [r1, #84]
	movs	r0, #1
	.loc	7 510 12 is_stmt 1              @ libraries/STM32H7xx_HAL/STM32H7xx_HAL_Driver/Src/stm32h7xx_hal_dma_ex.c:510:12
	strb.w	r0, [sp, #7]
	b	.LBB5_32
.Ltmp137:
.LBB5_32:
	.loc	7 0 12 is_stmt 0                @ libraries/STM32H7xx_HAL/STM32H7xx_HAL_Driver/Src/stm32h7xx_hal_dma_ex.c:0:12
	b	.LBB5_33
.LBB5_33:
	.loc	7 513 10 is_stmt 1              @ libraries/STM32H7xx_HAL/STM32H7xx_HAL_Driver/Src/stm32h7xx_hal_dma_ex.c:513:10
	ldrb.w	r0, [sp, #7]
	.loc	7 513 3 is_stmt 0               @ libraries/STM32H7xx_HAL/STM32H7xx_HAL_Driver/Src/stm32h7xx_hal_dma_ex.c:513:3
	strb.w	r0, [sp, #19]
	b	.LBB5_34
.LBB5_34:
	.loc	7 514 1 is_stmt 1               @ libraries/STM32H7xx_HAL/STM32H7xx_HAL_Driver/Src/stm32h7xx_hal_dma_ex.c:514:1
	ldrb.w	r0, [sp, #19]
	add	sp, #20
	bx	lr
.Ltmp138:
.Lfunc_end5:
	.size	HAL_DMAEx_ConfigMuxRequestGenerator, .Lfunc_end5-HAL_DMAEx_ConfigMuxRequestGenerator
	.cfi_endproc
	.cantunwind
	.fnend
                                        @ -- End function
	.section	.text.HAL_DMAEx_EnableMuxRequestGenerator,"ax",%progbits
	.hidden	HAL_DMAEx_EnableMuxRequestGenerator @ -- Begin function HAL_DMAEx_EnableMuxRequestGenerator
	.globl	HAL_DMAEx_EnableMuxRequestGenerator
	.p2align	3
	.type	HAL_DMAEx_EnableMuxRequestGenerator,%function
	.code	16                              @ @HAL_DMAEx_EnableMuxRequestGenerator
	.thumb_func
HAL_DMAEx_EnableMuxRequestGenerator:
.Lfunc_begin6:
	.loc	7 523 0                         @ libraries/STM32H7xx_HAL/STM32H7xx_HAL_Driver/Src/stm32h7xx_hal_dma_ex.c:523:0
	.fnstart
	.cfi_startproc
@ %bb.0:
	.pad	#8
	sub	sp, #8
	.cfi_def_cfa_offset 8
	str	r0, [sp]
.Ltmp139:
	.loc	7 529 7 prologue_end            @ libraries/STM32H7xx_HAL/STM32H7xx_HAL_Driver/Src/stm32h7xx_hal_dma_ex.c:529:7
	ldr	r0, [sp]
	.loc	7 529 13 is_stmt 0              @ libraries/STM32H7xx_HAL/STM32H7xx_HAL_Driver/Src/stm32h7xx_hal_dma_ex.c:529:13
	ldrb.w	r0, [r0, #53]
	.loc	7 529 43                        @ libraries/STM32H7xx_HAL/STM32H7xx_HAL_Driver/Src/stm32h7xx_hal_dma_ex.c:529:43
	cbz	r0, .LBB6_3
	b	.LBB6_1
.LBB6_1:
	.loc	7 529 47                        @ libraries/STM32H7xx_HAL/STM32H7xx_HAL_Driver/Src/stm32h7xx_hal_dma_ex.c:529:47
	ldr	r0, [sp]
	.loc	7 529 53                        @ libraries/STM32H7xx_HAL/STM32H7xx_HAL_Driver/Src/stm32h7xx_hal_dma_ex.c:529:53
	ldr	r0, [r0, #108]
.Ltmp140:
	.loc	7 529 6                         @ libraries/STM32H7xx_HAL/STM32H7xx_HAL_Driver/Src/stm32h7xx_hal_dma_ex.c:529:6
	cbz	r0, .LBB6_3
	b	.LBB6_2
.LBB6_2:
.Ltmp141:
	.loc	7 532 5 is_stmt 1               @ libraries/STM32H7xx_HAL/STM32H7xx_HAL_Driver/Src/stm32h7xx_hal_dma_ex.c:532:5
	ldr	r0, [sp]
	.loc	7 532 11 is_stmt 0              @ libraries/STM32H7xx_HAL/STM32H7xx_HAL_Driver/Src/stm32h7xx_hal_dma_ex.c:532:11
	ldr	r1, [r0, #108]
	.loc	7 532 34                        @ libraries/STM32H7xx_HAL/STM32H7xx_HAL_Driver/Src/stm32h7xx_hal_dma_ex.c:532:34
	ldr	r0, [r1]
	orr	r0, r0, #65536
	str	r0, [r1]
	movs	r0, #0
	.loc	7 534 4 is_stmt 1               @ libraries/STM32H7xx_HAL/STM32H7xx_HAL_Driver/Src/stm32h7xx_hal_dma_ex.c:534:4
	strb.w	r0, [sp, #7]
	b	.LBB6_4
.Ltmp142:
.LBB6_3:
	.loc	7 0 4 is_stmt 0                 @ libraries/STM32H7xx_HAL/STM32H7xx_HAL_Driver/Src/stm32h7xx_hal_dma_ex.c:0:4
	movs	r0, #1
.Ltmp143:
	.loc	7 538 4 is_stmt 1               @ libraries/STM32H7xx_HAL/STM32H7xx_HAL_Driver/Src/stm32h7xx_hal_dma_ex.c:538:4
	strb.w	r0, [sp, #7]
	b	.LBB6_4
.Ltmp144:
.LBB6_4:
	.loc	7 540 1                         @ libraries/STM32H7xx_HAL/STM32H7xx_HAL_Driver/Src/stm32h7xx_hal_dma_ex.c:540:1
	ldrb.w	r0, [sp, #7]
	add	sp, #8
	bx	lr
.Ltmp145:
.Lfunc_end6:
	.size	HAL_DMAEx_EnableMuxRequestGenerator, .Lfunc_end6-HAL_DMAEx_EnableMuxRequestGenerator
	.cfi_endproc
	.cantunwind
	.fnend
                                        @ -- End function
	.section	.text.HAL_DMAEx_DisableMuxRequestGenerator,"ax",%progbits
	.hidden	HAL_DMAEx_DisableMuxRequestGenerator @ -- Begin function HAL_DMAEx_DisableMuxRequestGenerator
	.globl	HAL_DMAEx_DisableMuxRequestGenerator
	.p2align	3
	.type	HAL_DMAEx_DisableMuxRequestGenerator,%function
	.code	16                              @ @HAL_DMAEx_DisableMuxRequestGenerator
	.thumb_func
HAL_DMAEx_DisableMuxRequestGenerator:
.Lfunc_begin7:
	.loc	7 549 0                         @ libraries/STM32H7xx_HAL/STM32H7xx_HAL_Driver/Src/stm32h7xx_hal_dma_ex.c:549:0
	.fnstart
	.cfi_startproc
@ %bb.0:
	.pad	#8
	sub	sp, #8
	.cfi_def_cfa_offset 8
	str	r0, [sp]
.Ltmp146:
	.loc	7 555 7 prologue_end            @ libraries/STM32H7xx_HAL/STM32H7xx_HAL_Driver/Src/stm32h7xx_hal_dma_ex.c:555:7
	ldr	r0, [sp]
	.loc	7 555 13 is_stmt 0              @ libraries/STM32H7xx_HAL/STM32H7xx_HAL_Driver/Src/stm32h7xx_hal_dma_ex.c:555:13
	ldrb.w	r0, [r0, #53]
	.loc	7 555 43                        @ libraries/STM32H7xx_HAL/STM32H7xx_HAL_Driver/Src/stm32h7xx_hal_dma_ex.c:555:43
	cbz	r0, .LBB7_3
	b	.LBB7_1
.LBB7_1:
	.loc	7 555 47                        @ libraries/STM32H7xx_HAL/STM32H7xx_HAL_Driver/Src/stm32h7xx_hal_dma_ex.c:555:47
	ldr	r0, [sp]
	.loc	7 555 53                        @ libraries/STM32H7xx_HAL/STM32H7xx_HAL_Driver/Src/stm32h7xx_hal_dma_ex.c:555:53
	ldr	r0, [r0, #108]
.Ltmp147:
	.loc	7 555 6                         @ libraries/STM32H7xx_HAL/STM32H7xx_HAL_Driver/Src/stm32h7xx_hal_dma_ex.c:555:6
	cbz	r0, .LBB7_3
	b	.LBB7_2
.LBB7_2:
.Ltmp148:
	.loc	7 558 5 is_stmt 1               @ libraries/STM32H7xx_HAL/STM32H7xx_HAL_Driver/Src/stm32h7xx_hal_dma_ex.c:558:5
	ldr	r0, [sp]
	.loc	7 558 11 is_stmt 0              @ libraries/STM32H7xx_HAL/STM32H7xx_HAL_Driver/Src/stm32h7xx_hal_dma_ex.c:558:11
	ldr	r1, [r0, #108]
	.loc	7 558 34                        @ libraries/STM32H7xx_HAL/STM32H7xx_HAL_Driver/Src/stm32h7xx_hal_dma_ex.c:558:34
	ldr	r0, [r1]
	bic	r0, r0, #65536
	str	r0, [r1]
	movs	r0, #0
	.loc	7 560 4 is_stmt 1               @ libraries/STM32H7xx_HAL/STM32H7xx_HAL_Driver/Src/stm32h7xx_hal_dma_ex.c:560:4
	strb.w	r0, [sp, #7]
	b	.LBB7_4
.Ltmp149:
.LBB7_3:
	.loc	7 0 4 is_stmt 0                 @ libraries/STM32H7xx_HAL/STM32H7xx_HAL_Driver/Src/stm32h7xx_hal_dma_ex.c:0:4
	movs	r0, #1
.Ltmp150:
	.loc	7 564 4 is_stmt 1               @ libraries/STM32H7xx_HAL/STM32H7xx_HAL_Driver/Src/stm32h7xx_hal_dma_ex.c:564:4
	strb.w	r0, [sp, #7]
	b	.LBB7_4
.Ltmp151:
.LBB7_4:
	.loc	7 566 1                         @ libraries/STM32H7xx_HAL/STM32H7xx_HAL_Driver/Src/stm32h7xx_hal_dma_ex.c:566:1
	ldrb.w	r0, [sp, #7]
	add	sp, #8
	bx	lr
.Ltmp152:
.Lfunc_end7:
	.size	HAL_DMAEx_DisableMuxRequestGenerator, .Lfunc_end7-HAL_DMAEx_DisableMuxRequestGenerator
	.cfi_endproc
	.cantunwind
	.fnend
                                        @ -- End function
	.section	.text.HAL_DMAEx_MUX_IRQHandler,"ax",%progbits
	.hidden	HAL_DMAEx_MUX_IRQHandler        @ -- Begin function HAL_DMAEx_MUX_IRQHandler
	.globl	HAL_DMAEx_MUX_IRQHandler
	.p2align	3
	.type	HAL_DMAEx_MUX_IRQHandler,%function
	.code	16                              @ @HAL_DMAEx_MUX_IRQHandler
	.thumb_func
HAL_DMAEx_MUX_IRQHandler:
.Lfunc_begin8:
	.loc	7 575 0                         @ libraries/STM32H7xx_HAL/STM32H7xx_HAL_Driver/Src/stm32h7xx_hal_dma_ex.c:575:0
	.fnstart
	.cfi_startproc
@ %bb.0:
	.save	{r7, lr}
	push	{r7, lr}
	.cfi_def_cfa_offset 8
	.cfi_offset lr, -4
	.cfi_offset r7, -8
	.pad	#8
	sub	sp, #8
	.cfi_def_cfa_offset 16
	str	r0, [sp, #4]
.Ltmp153:
	.loc	7 577 7 prologue_end            @ libraries/STM32H7xx_HAL/STM32H7xx_HAL_Driver/Src/stm32h7xx_hal_dma_ex.c:577:7
	ldr	r0, [sp, #4]
	.loc	7 577 13 is_stmt 0              @ libraries/STM32H7xx_HAL/STM32H7xx_HAL_Driver/Src/stm32h7xx_hal_dma_ex.c:577:13
	ldr	r0, [r0, #100]
	.loc	7 577 34                        @ libraries/STM32H7xx_HAL/STM32H7xx_HAL_Driver/Src/stm32h7xx_hal_dma_ex.c:577:34
	ldr	r0, [r0]
	.loc	7 577 40                        @ libraries/STM32H7xx_HAL/STM32H7xx_HAL_Driver/Src/stm32h7xx_hal_dma_ex.c:577:40
	ldr	r1, [sp, #4]
	.loc	7 577 46                        @ libraries/STM32H7xx_HAL/STM32H7xx_HAL_Driver/Src/stm32h7xx_hal_dma_ex.c:577:46
	ldr	r1, [r1, #104]
.Ltmp154:
	.loc	7 577 6                         @ libraries/STM32H7xx_HAL/STM32H7xx_HAL_Driver/Src/stm32h7xx_hal_dma_ex.c:577:6
	tst	r0, r1
	beq	.LBB8_4
	b	.LBB8_1
.LBB8_1:
.Ltmp155:
	.loc	7 580 5 is_stmt 1               @ libraries/STM32H7xx_HAL/STM32H7xx_HAL_Driver/Src/stm32h7xx_hal_dma_ex.c:580:5
	ldr	r0, [sp, #4]
	.loc	7 580 11 is_stmt 0              @ libraries/STM32H7xx_HAL/STM32H7xx_HAL_Driver/Src/stm32h7xx_hal_dma_ex.c:580:11
	ldr	r1, [r0, #96]
	.loc	7 580 30                        @ libraries/STM32H7xx_HAL/STM32H7xx_HAL_Driver/Src/stm32h7xx_hal_dma_ex.c:580:30
	ldr	r0, [r1]
	bic	r0, r0, #256
	str	r0, [r1]
	.loc	7 583 38 is_stmt 1              @ libraries/STM32H7xx_HAL/STM32H7xx_HAL_Driver/Src/stm32h7xx_hal_dma_ex.c:583:38
	ldr	r0, [sp, #4]
	.loc	7 583 11 is_stmt 0              @ libraries/STM32H7xx_HAL/STM32H7xx_HAL_Driver/Src/stm32h7xx_hal_dma_ex.c:583:11
	ldr	r1, [r0, #100]
	.loc	7 583 44                        @ libraries/STM32H7xx_HAL/STM32H7xx_HAL_Driver/Src/stm32h7xx_hal_dma_ex.c:583:44
	ldr	r0, [r0, #104]
	.loc	7 583 36                        @ libraries/STM32H7xx_HAL/STM32H7xx_HAL_Driver/Src/stm32h7xx_hal_dma_ex.c:583:36
	str	r0, [r1, #4]
	.loc	7 586 5 is_stmt 1               @ libraries/STM32H7xx_HAL/STM32H7xx_HAL_Driver/Src/stm32h7xx_hal_dma_ex.c:586:5
	ldr	r1, [sp, #4]
	.loc	7 586 21 is_stmt 0              @ libraries/STM32H7xx_HAL/STM32H7xx_HAL_Driver/Src/stm32h7xx_hal_dma_ex.c:586:21
	ldr	r0, [r1, #84]
	orr	r0, r0, #512
	str	r0, [r1, #84]
.Ltmp156:
	.loc	7 588 8 is_stmt 1               @ libraries/STM32H7xx_HAL/STM32H7xx_HAL_Driver/Src/stm32h7xx_hal_dma_ex.c:588:8
	ldr	r0, [sp, #4]
	.loc	7 588 14 is_stmt 0              @ libraries/STM32H7xx_HAL/STM32H7xx_HAL_Driver/Src/stm32h7xx_hal_dma_ex.c:588:14
	ldr	r0, [r0, #76]
.Ltmp157:
	.loc	7 588 8                         @ libraries/STM32H7xx_HAL/STM32H7xx_HAL_Driver/Src/stm32h7xx_hal_dma_ex.c:588:8
	cbz	r0, .LBB8_3
	b	.LBB8_2
.LBB8_2:
.Ltmp158:
	.loc	7 591 7 is_stmt 1               @ libraries/STM32H7xx_HAL/STM32H7xx_HAL_Driver/Src/stm32h7xx_hal_dma_ex.c:591:7
	ldr	r0, [sp, #4]
	.loc	7 591 13 is_stmt 0              @ libraries/STM32H7xx_HAL/STM32H7xx_HAL_Driver/Src/stm32h7xx_hal_dma_ex.c:591:13
	ldr	r1, [r0, #76]
	.loc	7 591 7                         @ libraries/STM32H7xx_HAL/STM32H7xx_HAL_Driver/Src/stm32h7xx_hal_dma_ex.c:591:7
	blx	r1
	.loc	7 592 5 is_stmt 1               @ libraries/STM32H7xx_HAL/STM32H7xx_HAL_Driver/Src/stm32h7xx_hal_dma_ex.c:592:5
	b	.LBB8_3
.Ltmp159:
.LBB8_3:
	.loc	7 593 3                         @ libraries/STM32H7xx_HAL/STM32H7xx_HAL_Driver/Src/stm32h7xx_hal_dma_ex.c:593:3
	b	.LBB8_4
.Ltmp160:
.LBB8_4:
	.loc	7 595 6                         @ libraries/STM32H7xx_HAL/STM32H7xx_HAL_Driver/Src/stm32h7xx_hal_dma_ex.c:595:6
	ldr	r0, [sp, #4]
	.loc	7 595 12 is_stmt 0              @ libraries/STM32H7xx_HAL/STM32H7xx_HAL_Driver/Src/stm32h7xx_hal_dma_ex.c:595:12
	ldr	r0, [r0, #108]
.Ltmp161:
	.loc	7 595 6                         @ libraries/STM32H7xx_HAL/STM32H7xx_HAL_Driver/Src/stm32h7xx_hal_dma_ex.c:595:6
	cbz	r0, .LBB8_10
	b	.LBB8_5
.LBB8_5:
.Ltmp162:
	.loc	7 598 9 is_stmt 1               @ libraries/STM32H7xx_HAL/STM32H7xx_HAL_Driver/Src/stm32h7xx_hal_dma_ex.c:598:9
	ldr	r0, [sp, #4]
	.loc	7 598 15 is_stmt 0              @ libraries/STM32H7xx_HAL/STM32H7xx_HAL_Driver/Src/stm32h7xx_hal_dma_ex.c:598:15
	ldr	r0, [r0, #112]
	.loc	7 598 39                        @ libraries/STM32H7xx_HAL/STM32H7xx_HAL_Driver/Src/stm32h7xx_hal_dma_ex.c:598:39
	ldr	r0, [r0]
	.loc	7 598 46                        @ libraries/STM32H7xx_HAL/STM32H7xx_HAL_Driver/Src/stm32h7xx_hal_dma_ex.c:598:46
	ldr	r1, [sp, #4]
	.loc	7 598 52                        @ libraries/STM32H7xx_HAL/STM32H7xx_HAL_Driver/Src/stm32h7xx_hal_dma_ex.c:598:52
	ldr	r1, [r1, #116]
.Ltmp163:
	.loc	7 598 8                         @ libraries/STM32H7xx_HAL/STM32H7xx_HAL_Driver/Src/stm32h7xx_hal_dma_ex.c:598:8
	tst	r0, r1
	beq	.LBB8_9
	b	.LBB8_6
.LBB8_6:
.Ltmp164:
	.loc	7 601 7 is_stmt 1               @ libraries/STM32H7xx_HAL/STM32H7xx_HAL_Driver/Src/stm32h7xx_hal_dma_ex.c:601:7
	ldr	r0, [sp, #4]
	.loc	7 601 13 is_stmt 0              @ libraries/STM32H7xx_HAL/STM32H7xx_HAL_Driver/Src/stm32h7xx_hal_dma_ex.c:601:13
	ldr	r1, [r0, #108]
	.loc	7 601 36                        @ libraries/STM32H7xx_HAL/STM32H7xx_HAL_Driver/Src/stm32h7xx_hal_dma_ex.c:601:36
	ldr	r0, [r1]
	bic	r0, r0, #256
	str	r0, [r1]
	.loc	7 604 45 is_stmt 1              @ libraries/STM32H7xx_HAL/STM32H7xx_HAL_Driver/Src/stm32h7xx_hal_dma_ex.c:604:45
	ldr	r0, [sp, #4]
	.loc	7 604 13 is_stmt 0              @ libraries/STM32H7xx_HAL/STM32H7xx_HAL_Driver/Src/stm32h7xx_hal_dma_ex.c:604:13
	ldr	r1, [r0, #112]
	.loc	7 604 51                        @ libraries/STM32H7xx_HAL/STM32H7xx_HAL_Driver/Src/stm32h7xx_hal_dma_ex.c:604:51
	ldr	r0, [r0, #116]
	.loc	7 604 43                        @ libraries/STM32H7xx_HAL/STM32H7xx_HAL_Driver/Src/stm32h7xx_hal_dma_ex.c:604:43
	str	r0, [r1, #4]
	.loc	7 607 7 is_stmt 1               @ libraries/STM32H7xx_HAL/STM32H7xx_HAL_Driver/Src/stm32h7xx_hal_dma_ex.c:607:7
	ldr	r1, [sp, #4]
	.loc	7 607 23 is_stmt 0              @ libraries/STM32H7xx_HAL/STM32H7xx_HAL_Driver/Src/stm32h7xx_hal_dma_ex.c:607:23
	ldr	r0, [r1, #84]
	orr	r0, r0, #1024
	str	r0, [r1, #84]
.Ltmp165:
	.loc	7 609 10 is_stmt 1              @ libraries/STM32H7xx_HAL/STM32H7xx_HAL_Driver/Src/stm32h7xx_hal_dma_ex.c:609:10
	ldr	r0, [sp, #4]
	.loc	7 609 16 is_stmt 0              @ libraries/STM32H7xx_HAL/STM32H7xx_HAL_Driver/Src/stm32h7xx_hal_dma_ex.c:609:16
	ldr	r0, [r0, #76]
.Ltmp166:
	.loc	7 609 10                        @ libraries/STM32H7xx_HAL/STM32H7xx_HAL_Driver/Src/stm32h7xx_hal_dma_ex.c:609:10
	cbz	r0, .LBB8_8
	b	.LBB8_7
.LBB8_7:
.Ltmp167:
	.loc	7 612 9 is_stmt 1               @ libraries/STM32H7xx_HAL/STM32H7xx_HAL_Driver/Src/stm32h7xx_hal_dma_ex.c:612:9
	ldr	r0, [sp, #4]
	.loc	7 612 15 is_stmt 0              @ libraries/STM32H7xx_HAL/STM32H7xx_HAL_Driver/Src/stm32h7xx_hal_dma_ex.c:612:15
	ldr	r1, [r0, #76]
	.loc	7 612 9                         @ libraries/STM32H7xx_HAL/STM32H7xx_HAL_Driver/Src/stm32h7xx_hal_dma_ex.c:612:9
	blx	r1
	.loc	7 613 7 is_stmt 1               @ libraries/STM32H7xx_HAL/STM32H7xx_HAL_Driver/Src/stm32h7xx_hal_dma_ex.c:613:7
	b	.LBB8_8
.Ltmp168:
.LBB8_8:
	.loc	7 614 5                         @ libraries/STM32H7xx_HAL/STM32H7xx_HAL_Driver/Src/stm32h7xx_hal_dma_ex.c:614:5
	b	.LBB8_9
.Ltmp169:
.LBB8_9:
	.loc	7 615 3                         @ libraries/STM32H7xx_HAL/STM32H7xx_HAL_Driver/Src/stm32h7xx_hal_dma_ex.c:615:3
	b	.LBB8_10
.Ltmp170:
.LBB8_10:
	.loc	7 616 1                         @ libraries/STM32H7xx_HAL/STM32H7xx_HAL_Driver/Src/stm32h7xx_hal_dma_ex.c:616:1
	add	sp, #8
	pop	{r7, pc}
.Ltmp171:
.Lfunc_end8:
	.size	HAL_DMAEx_MUX_IRQHandler, .Lfunc_end8-HAL_DMAEx_MUX_IRQHandler
	.cfi_endproc
	.cantunwind
	.fnend
                                        @ -- End function
	.section	".note.GNU-stack","",%progbits
	.eabi_attribute	30, 6	@ Tag_ABI_optimization_goals
	.ARM_attribute	16, 1	@ Tag_AV_eba