	.text
	.syntax unified
	.eabi_attribute	67, "2.09"	@ Tag_conformance
	.cpu	cortex-m7
	.eabi_attribute	6, 13	@ Tag_CPU_arch
	.eabi_attribute	7, 77	@ Tag_CPU_arch_profile
	.eabi_attribute	8, 0	@ Tag_ARM_ISA_use
	.eabi_attribute	9, 2	@ Tag_THUMB_ISA_use
	.fpu	fpv5-d16
	.eabi_attribute	36, 1	@ Tag_FP_HP_extension
	.eabi_attribute	34, 1	@ Tag_CPU_unaligned_access
	.eabi_attribute	17, 1	@ Tag_ABI_PCS_GOT_use
	.eabi_attribute	20, 2	@ Tag_ABI_FP_denormal
	.eabi_attribute	21, 0	@ Tag_ABI_FP_exceptions
	.eabi_attribute	23, 1	@ Tag_ABI_FP_number_model
	.eabi_attribute	24, 1	@ Tag_ABI_align_needed
	.eabi_attribute	25, 1	@ Tag_ABI_align_preserved
	.eabi_attribute	28, 1	@ Tag_ABI_VFP_args
	.eabi_attribute	38, 1	@ Tag_ABI_FP_16bit_format
	.eabi_attribute	18, 2	@ Tag_ABI_PCS_wchar_t
	.eabi_attribute	26, 1	@ Tag_ABI_enum_size
	.eabi_attribute	14, 0	@ Tag_ABI_PCS_R9_use
	.file	"sys_arch.c"
	.file	1 "E:\\STM32\\Learning\\STM32H750_ART_PI_RGBLCD" "rt-thread/include\\rtdef.h"
	.file	2 "E:\\STM32\\Learning\\STM32H750_ART_PI_RGBLCD" "rt-thread/components/net/lwip-2.0.2/src/arch/sys_arch.c"
	.file	3 "E:\\STM32\\Learning\\STM32H750_ART_PI_RGBLCD" "./rt-thread/components/net/lwip-2.0.2/src/include\\lwip/err.h"
	.file	4 "E:\\STM32\\Learning\\STM32H750_ART_PI_RGBLCD" "./rt-thread/components/net/lwip-2.0.2/src/include\\lwip/netif.h"
	.file	5 "D:\\Keil_v5\\ARM\\ARMCLANG\\Bin\\..\\include" "stdint.h"
	.file	6 "E:\\STM32\\Learning\\STM32H750_ART_PI_RGBLCD" "./rt-thread/components/net/lwip-2.0.2/src/include\\lwip/arch.h"
	.file	7 "E:\\STM32\\Learning\\STM32H750_ART_PI_RGBLCD" "./rt-thread/components/net/lwip-2.0.2/src/include\\netif/ethernetif.h"
	.file	8 "E:\\STM32\\Learning\\STM32H750_ART_PI_RGBLCD" "./rt-thread/components/net/lwip-2.0.2/src/include\\lwip/ip4_addr.h"
	.file	9 "E:\\STM32\\Learning\\STM32H750_ART_PI_RGBLCD" "./rt-thread/components/net/lwip-2.0.2/src/include\\lwip/ip_addr.h"
	.file	10 "E:\\STM32\\Learning\\STM32H750_ART_PI_RGBLCD" "./rt-thread/components/net/lwip-2.0.2/src/include\\lwip/pbuf.h"
	.section	.text.lwip_system_init,"ax",%progbits
	.hidden	lwip_system_init                @ -- Begin function lwip_system_init
	.globl	lwip_system_init
	.p2align	3
	.type	lwip_system_init,%function
	.code	16                              @ @lwip_system_init
	.thumb_func
lwip_system_init:
.Lfunc_begin0:
	.loc	2 157 0                         @ rt-thread/components/net/lwip-2.0.2/src/arch/sys_arch.c:157:0
	.fnstart
	.cfi_sections .debug_frame
	.cfi_startproc
@ %bb.0:
	.save	{r7, lr}
	push	{r7, lr}
	.cfi_def_cfa_offset 8
	.cfi_offset lr, -4
	.cfi_offset r7, -8
	.pad	#48
	sub	sp, #48
	.cfi_def_cfa_offset 56
.Ltmp0:
	.loc	2 162 9 prologue_end            @ rt-thread/components/net/lwip-2.0.2/src/arch/sys_arch.c:162:9
	movw	r0, :lower16:lwip_system_init.init_ok
	movt	r0, :upper16:lwip_system_init.init_ok
	ldr	r0, [r0]
.Ltmp1:
	.loc	2 162 9 is_stmt 0               @ rt-thread/components/net/lwip-2.0.2/src/arch/sys_arch.c:162:9
	cbz	r0, .LBB0_2
	b	.LBB0_1
.LBB0_1:
.Ltmp2:
	.loc	2 164 9 is_stmt 1               @ rt-thread/components/net/lwip-2.0.2/src/arch/sys_arch.c:164:9
	movw	r0, :lower16:.L.str
	movt	r0, :upper16:.L.str
	bl	rt_kprintf
	movs	r0, #0
	.loc	2 165 9                         @ rt-thread/components/net/lwip-2.0.2/src/arch/sys_arch.c:165:9
	str	r0, [sp, #44]
	b	.LBB0_11
.Ltmp3:
.LBB0_2:
	.loc	2 168 5                         @ rt-thread/components/net/lwip-2.0.2/src/arch/sys_arch.c:168:5
	bl	eth_system_device_init_private
	.loc	2 171 19                        @ rt-thread/components/net/lwip-2.0.2/src/arch/sys_arch.c:171:19
	movw	r0, :lower16:netif_default
	movt	r0, :upper16:netif_default
	movs	r3, #0
	str	r3, [r0]
	.loc	2 173 10                        @ rt-thread/components/net/lwip-2.0.2/src/arch/sys_arch.c:173:10
	movw	r1, :lower16:.L.str.1
	movt	r1, :upper16:.L.str.1
	add	r0, sp, #8
	mov	r2, r3
	bl	rt_sem_init
	.loc	2 173 8 is_stmt 0               @ rt-thread/components/net/lwip-2.0.2/src/arch/sys_arch.c:173:8
	str	r0, [sp, #40]
.Ltmp4:
	.loc	2 175 9 is_stmt 1               @ rt-thread/components/net/lwip-2.0.2/src/arch/sys_arch.c:175:9
	ldr	r0, [sp, #40]
.Ltmp5:
	.loc	2 175 9 is_stmt 0               @ rt-thread/components/net/lwip-2.0.2/src/arch/sys_arch.c:175:9
	cbz	r0, .LBB0_8
	b	.LBB0_3
.LBB0_3:
.Ltmp6:
	.loc	2 177 9 is_stmt 1               @ rt-thread/components/net/lwip-2.0.2/src/arch/sys_arch.c:177:9
	b	.LBB0_4
.LBB0_4:
.Ltmp7:
	.loc	2 177 9 is_stmt 0               @ rt-thread/components/net/lwip-2.0.2/src/arch/sys_arch.c:177:9
	b	.LBB0_5
.LBB0_5:
.Ltmp8:
	.loc	2 177 9                         @ rt-thread/components/net/lwip-2.0.2/src/arch/sys_arch.c:177:9
	movw	r0, :lower16:.L.str.2
	movt	r0, :upper16:.L.str.2
	bl	rt_kprintf
	movw	r0, :lower16:.L.str.3
	movt	r0, :upper16:.L.str.3
	movs	r1, #177
	bl	sys_arch_assert
	b	.LBB0_6
.Ltmp9:
.LBB0_6:
	.loc	2 177 9                         @ rt-thread/components/net/lwip-2.0.2/src/arch/sys_arch.c:177:9
	b	.LBB0_7
.Ltmp10:
.LBB0_7:
	.loc	2 0 9                           @ rt-thread/components/net/lwip-2.0.2/src/arch/sys_arch.c:0:9
	mov.w	r0, #-1
	.loc	2 179 9 is_stmt 1               @ rt-thread/components/net/lwip-2.0.2/src/arch/sys_arch.c:179:9
	str	r0, [sp, #44]
	b	.LBB0_11
.Ltmp11:
.LBB0_8:
	.loc	2 182 5                         @ rt-thread/components/net/lwip-2.0.2/src/arch/sys_arch.c:182:5
	movw	r0, :lower16:tcpip_init_done_callback
	movt	r0, :upper16:tcpip_init_done_callback
	add	r1, sp, #8
	str	r1, [sp, #4]                    @ 4-byte Spill
	bl	tcpip_init
	ldr	r0, [sp, #4]                    @ 4-byte Reload
	mov.w	r1, #-1
.Ltmp12:
	.loc	2 185 9                         @ rt-thread/components/net/lwip-2.0.2/src/arch/sys_arch.c:185:9
	bl	rt_sem_take
.Ltmp13:
	.loc	2 185 9 is_stmt 0               @ rt-thread/components/net/lwip-2.0.2/src/arch/sys_arch.c:185:9
	cbz	r0, .LBB0_10
	b	.LBB0_9
.LBB0_9:
	.loc	2 0 9                           @ rt-thread/components/net/lwip-2.0.2/src/arch/sys_arch.c:0:9
	add	r0, sp, #8
.Ltmp14:
	.loc	2 187 9 is_stmt 1               @ rt-thread/components/net/lwip-2.0.2/src/arch/sys_arch.c:187:9
	bl	rt_sem_detach
	mov.w	r0, #-1
	.loc	2 189 9                         @ rt-thread/components/net/lwip-2.0.2/src/arch/sys_arch.c:189:9
	str	r0, [sp, #44]
	b	.LBB0_11
.Ltmp15:
.LBB0_10:
	.loc	2 0 9 is_stmt 0                 @ rt-thread/components/net/lwip-2.0.2/src/arch/sys_arch.c:0:9
	add	r0, sp, #8
	.loc	2 191 5 is_stmt 1               @ rt-thread/components/net/lwip-2.0.2/src/arch/sys_arch.c:191:5
	bl	rt_sem_detach
	.loc	2 206 5                         @ rt-thread/components/net/lwip-2.0.2/src/arch/sys_arch.c:206:5
	movw	r0, :lower16:.L.str.4
	movt	r0, :upper16:.L.str.4
	movs	r2, #0
	str	r2, [sp]                        @ 4-byte Spill
	movs	r3, #2
	mov	r1, r3
	bl	rt_kprintf
	ldr	r0, [sp]                        @ 4-byte Reload
	.loc	2 208 13                        @ rt-thread/components/net/lwip-2.0.2/src/arch/sys_arch.c:208:13
	movw	r2, :lower16:lwip_system_init.init_ok
	movt	r2, :upper16:lwip_system_init.init_ok
	movs	r1, #1
	str	r1, [r2]
	.loc	2 210 5                         @ rt-thread/components/net/lwip-2.0.2/src/arch/sys_arch.c:210:5
	str	r0, [sp, #44]
	b	.LBB0_11
.LBB0_11:
	.loc	2 211 1                         @ rt-thread/components/net/lwip-2.0.2/src/arch/sys_arch.c:211:1
	ldr	r0, [sp, #44]
	add	sp, #48
	pop	{r7, pc}
.Ltmp16:
.Lfunc_end0:
	.size	lwip_system_init, .Lfunc_end0-lwip_system_init
	.cfi_endproc
	.cantunwind
	.fnend
                                        @ -- End function
	.section	.text.sys_arch_assert,"ax",%progbits
	.hidden	sys_arch_assert                 @ -- Begin function sys_arch_assert
	.globl	sys_arch_assert
	.p2align	3
	.type	sys_arch_assert,%function
	.code	16                              @ @sys_arch_assert
	.thumb_func
sys_arch_assert:
.Lfunc_begin1:
	.loc	2 617 0                         @ rt-thread/components/net/lwip-2.0.2/src/arch/sys_arch.c:617:0
	.fnstart
	.cfi_startproc
@ %bb.0:
	.save	{r7, lr}
	push	{r7, lr}
	.cfi_def_cfa_offset 8
	.cfi_offset lr, -4
	.cfi_offset r7, -8
	.pad	#16
	sub	sp, #16
	.cfi_def_cfa_offset 24
	str	r0, [sp, #12]
	str	r1, [sp, #8]
.Ltmp17:
	.loc	2 619 16 prologue_end           @ rt-thread/components/net/lwip-2.0.2/src/arch/sys_arch.c:619:16
	ldr	r0, [sp, #8]
	.loc	2 619 22 is_stmt 0              @ rt-thread/components/net/lwip-2.0.2/src/arch/sys_arch.c:619:22
	str	r0, [sp]                        @ 4-byte Spill
	ldr	r0, [sp, #12]
	.loc	2 619 28                        @ rt-thread/components/net/lwip-2.0.2/src/arch/sys_arch.c:619:28
	str	r0, [sp, #4]                    @ 4-byte Spill
	bl	rt_thread_self
	ldr	r1, [sp]                        @ 4-byte Reload
	ldr	r2, [sp, #4]                    @ 4-byte Reload
	mov	r3, r0
	.loc	2 618 5 is_stmt 1               @ rt-thread/components/net/lwip-2.0.2/src/arch/sys_arch.c:618:5
	movw	r0, :lower16:.L.str.11
	movt	r0, :upper16:.L.str.11
	bl	rt_kprintf
.Ltmp18:
	.loc	2 620 5                         @ rt-thread/components/net/lwip-2.0.2/src/arch/sys_arch.c:620:5
	movw	r0, :lower16:.L.str.5
	movt	r0, :upper16:.L.str.5
	movw	r1, :lower16:.L__FUNCTION__.sys_arch_assert
	movt	r1, :upper16:.L__FUNCTION__.sys_arch_assert
	mov.w	r2, #620
	bl	rt_assert_handler
.Ltmp19:
	.loc	2 621 1                         @ rt-thread/components/net/lwip-2.0.2/src/arch/sys_arch.c:621:1
	add	sp, #16
	pop	{r7, pc}
.Ltmp20:
.Lfunc_end1:
	.size	sys_arch_assert, .Lfunc_end1-sys_arch_assert
	.cfi_endproc
	.cantunwind
	.fnend
                                        @ -- End function
	.section	.text.tcpip_init_done_callback,"ax",%progbits
	.p2align	3                               @ -- Begin function tcpip_init_done_callback
	.type	tcpip_init_done_callback,%function
	.code	16                              @ @tcpip_init_done_callback
	.thumb_func
tcpip_init_done_callback:
.Lfunc_begin2:
	.loc	2 86 0                          @ rt-thread/components/net/lwip-2.0.2/src/arch/sys_arch.c:86:0
	.fnstart
	.cfi_startproc
@ %bb.0:
	.save	{r7, lr}
	push	{r7, lr}
	.cfi_def_cfa_offset 8
	.cfi_offset lr, -4
	.cfi_offset r7, -8
	.pad	#48
	sub	sp, #48
	.cfi_def_cfa_offset 56
	str	r0, [sp, #44]
.Ltmp21:
	.loc	2 94 5 prologue_end             @ rt-thread/components/net/lwip-2.0.2/src/arch/sys_arch.c:94:5
	b	.LBB2_1
.LBB2_1:
.Ltmp22:
	.loc	2 94 5 is_stmt 0                @ rt-thread/components/net/lwip-2.0.2/src/arch/sys_arch.c:94:5
	ldr	r0, [sp, #44]
.Ltmp23:
	.loc	2 94 5                          @ rt-thread/components/net/lwip-2.0.2/src/arch/sys_arch.c:94:5
	cbnz	r0, .LBB2_5
	b	.LBB2_2
.LBB2_2:
.Ltmp24:
	.loc	2 94 5                          @ rt-thread/components/net/lwip-2.0.2/src/arch/sys_arch.c:94:5
	b	.LBB2_3
.LBB2_3:
.Ltmp25:
	.loc	2 94 5                          @ rt-thread/components/net/lwip-2.0.2/src/arch/sys_arch.c:94:5
	movw	r0, :lower16:.L.str.12
	movt	r0, :upper16:.L.str.12
	bl	rt_kprintf
	movw	r0, :lower16:.L.str.3
	movt	r0, :upper16:.L.str.3
	movs	r1, #94
	bl	sys_arch_assert
	b	.LBB2_4
.Ltmp26:
.LBB2_4:
	.loc	2 94 5                          @ rt-thread/components/net/lwip-2.0.2/src/arch/sys_arch.c:94:5
	b	.LBB2_5
.Ltmp27:
.LBB2_5:
	.loc	2 94 5                          @ rt-thread/components/net/lwip-2.0.2/src/arch/sys_arch.c:94:5
	b	.LBB2_6
.Ltmp28:
.LBB2_6:
	.loc	2 0 5                           @ rt-thread/components/net/lwip-2.0.2/src/arch/sys_arch.c:0:5
	movs	r0, #0
	.loc	2 96 5 is_stmt 1                @ rt-thread/components/net/lwip-2.0.2/src/arch/sys_arch.c:96:5
	str	r0, [sp, #24]
	.loc	2 97 5                          @ rt-thread/components/net/lwip-2.0.2/src/arch/sys_arch.c:97:5
	str	r0, [sp, #32]
	.loc	2 98 5                          @ rt-thread/components/net/lwip-2.0.2/src/arch/sys_arch.c:98:5
	str	r0, [sp, #28]
	.loc	2 101 5                         @ rt-thread/components/net/lwip-2.0.2/src/arch/sys_arch.c:101:5
	bl	rt_enter_critical
	movs	r0, #9
	.loc	2 104 19                        @ rt-thread/components/net/lwip-2.0.2/src/arch/sys_arch.c:104:19
	bl	rt_object_get_information
	.loc	2 104 17 is_stmt 0              @ rt-thread/components/net/lwip-2.0.2/src/arch/sys_arch.c:104:17
	str	r0, [sp, #12]
.Ltmp29:
	.loc	2 105 5 is_stmt 1               @ rt-thread/components/net/lwip-2.0.2/src/arch/sys_arch.c:105:5
	ldr	r0, [sp, #12]
.Ltmp30:
	.loc	2 105 5 is_stmt 0               @ rt-thread/components/net/lwip-2.0.2/src/arch/sys_arch.c:105:5
	cbnz	r0, .LBB2_8
	b	.LBB2_7
.LBB2_7:
.Ltmp31:
	.loc	2 105 5                         @ rt-thread/components/net/lwip-2.0.2/src/arch/sys_arch.c:105:5
	movw	r0, :lower16:.L.str.13
	movt	r0, :upper16:.L.str.13
	movw	r1, :lower16:.L__FUNCTION__.tcpip_init_done_callback
	movt	r1, :upper16:.L__FUNCTION__.tcpip_init_done_callback
	movs	r2, #105
	bl	rt_assert_handler
	b	.LBB2_8
.Ltmp32:
.LBB2_8:
	.loc	2 106 17 is_stmt 1              @ rt-thread/components/net/lwip-2.0.2/src/arch/sys_arch.c:106:17
	ldr	r0, [sp, #12]
	.loc	2 106 42 is_stmt 0              @ rt-thread/components/net/lwip-2.0.2/src/arch/sys_arch.c:106:42
	ldr	r0, [r0, #4]
	.loc	2 106 15                        @ rt-thread/components/net/lwip-2.0.2/src/arch/sys_arch.c:106:15
	str	r0, [sp, #20]
	.loc	2 106 10                        @ rt-thread/components/net/lwip-2.0.2/src/arch/sys_arch.c:106:10
	b	.LBB2_9
.LBB2_9:                                @ =>This Inner Loop Header: Depth=1
.Ltmp33:
	.loc	2 107 10 is_stmt 1              @ rt-thread/components/net/lwip-2.0.2/src/arch/sys_arch.c:107:10
	ldr	r0, [sp, #20]
	.loc	2 107 20 is_stmt 0              @ rt-thread/components/net/lwip-2.0.2/src/arch/sys_arch.c:107:20
	ldr	r1, [sp, #12]
	.loc	2 107 33                        @ rt-thread/components/net/lwip-2.0.2/src/arch/sys_arch.c:107:33
	adds	r1, #4
.Ltmp34:
	.loc	2 106 5 is_stmt 1               @ rt-thread/components/net/lwip-2.0.2/src/arch/sys_arch.c:106:5
	cmp	r0, r1
	beq	.LBB2_18
	b	.LBB2_10
.LBB2_10:                               @   in Loop: Header=BB2_9 Depth=1
.Ltmp35:
	.loc	2 110 18                        @ rt-thread/components/net/lwip-2.0.2/src/arch/sys_arch.c:110:18
	ldr	r0, [sp, #20]
	subs	r0, #12
	.loc	2 110 16 is_stmt 0              @ rt-thread/components/net/lwip-2.0.2/src/arch/sys_arch.c:110:16
	str	r0, [sp, #16]
	.loc	2 111 31 is_stmt 1              @ rt-thread/components/net/lwip-2.0.2/src/arch/sys_arch.c:111:31
	ldr	r0, [sp, #16]
	.loc	2 111 16 is_stmt 0              @ rt-thread/components/net/lwip-2.0.2/src/arch/sys_arch.c:111:16
	str	r0, [sp, #40]
.Ltmp36:
	.loc	2 112 13 is_stmt 1              @ rt-thread/components/net/lwip-2.0.2/src/arch/sys_arch.c:112:13
	ldr	r0, [sp, #40]
	.loc	2 112 21 is_stmt 0              @ rt-thread/components/net/lwip-2.0.2/src/arch/sys_arch.c:112:21
	ldrb	r0, [r0, #20]
.Ltmp37:
	.loc	2 112 13                        @ rt-thread/components/net/lwip-2.0.2/src/arch/sys_arch.c:112:13
	cmp	r0, #2
	bne	.LBB2_16
	b	.LBB2_11
.LBB2_11:                               @   in Loop: Header=BB2_9 Depth=1
.Ltmp38:
	.loc	2 114 42 is_stmt 1              @ rt-thread/components/net/lwip-2.0.2/src/arch/sys_arch.c:114:42
	ldr	r0, [sp, #40]
	.loc	2 114 19 is_stmt 0              @ rt-thread/components/net/lwip-2.0.2/src/arch/sys_arch.c:114:19
	str	r0, [sp, #36]
	.loc	2 117 13 is_stmt 1              @ rt-thread/components/net/lwip-2.0.2/src/arch/sys_arch.c:117:13
	bl	rt_exit_critical
	.loc	2 118 13                        @ rt-thread/components/net/lwip-2.0.2/src/arch/sys_arch.c:118:13
	movw	r0, :lower16:lock_tcpip_core
	movt	r0, :upper16:lock_tcpip_core
	bl	sys_mutex_lock
	.loc	2 120 23                        @ rt-thread/components/net/lwip-2.0.2/src/arch/sys_arch.c:120:23
	ldr	r1, [sp, #36]
	.loc	2 120 30 is_stmt 0              @ rt-thread/components/net/lwip-2.0.2/src/arch/sys_arch.c:120:30
	ldr	r0, [r1, #80]
	.loc	2 120 13                        @ rt-thread/components/net/lwip-2.0.2/src/arch/sys_arch.c:120:13
	movw	r3, :lower16:tcpip_input
	movt	r3, :upper16:tcpip_input
	mov	r2, sp
	str	r3, [r2, #8]
	movw	r3, :lower16:netif_device_init
	movt	r3, :upper16:netif_device_init
	str	r3, [r2, #4]
	str	r1, [r2]
	add	r1, sp, #32
	add	r2, sp, #28
	add	r3, sp, #24
	bl	netif_add
.Ltmp39:
	.loc	2 123 17 is_stmt 1              @ rt-thread/components/net/lwip-2.0.2/src/arch/sys_arch.c:123:17
	movw	r0, :lower16:netif_default
	movt	r0, :upper16:netif_default
	ldr	r0, [r0]
.Ltmp40:
	.loc	2 123 17 is_stmt 0              @ rt-thread/components/net/lwip-2.0.2/src/arch/sys_arch.c:123:17
	cbnz	r0, .LBB2_13
	b	.LBB2_12
.LBB2_12:                               @   in Loop: Header=BB2_9 Depth=1
.Ltmp41:
	.loc	2 124 35 is_stmt 1              @ rt-thread/components/net/lwip-2.0.2/src/arch/sys_arch.c:124:35
	ldr	r0, [sp, #36]
	.loc	2 124 42 is_stmt 0              @ rt-thread/components/net/lwip-2.0.2/src/arch/sys_arch.c:124:42
	ldr	r0, [r0, #80]
	.loc	2 124 17                        @ rt-thread/components/net/lwip-2.0.2/src/arch/sys_arch.c:124:17
	bl	netif_set_default
	b	.LBB2_13
.Ltmp42:
.LBB2_13:                               @   in Loop: Header=BB2_9 Depth=1
	.loc	2 128 26 is_stmt 1              @ rt-thread/components/net/lwip-2.0.2/src/arch/sys_arch.c:128:26
	ldr	r0, [sp, #36]
	.loc	2 128 33 is_stmt 0              @ rt-thread/components/net/lwip-2.0.2/src/arch/sys_arch.c:128:33
	ldr	r0, [r0, #80]
	.loc	2 128 13                        @ rt-thread/components/net/lwip-2.0.2/src/arch/sys_arch.c:128:13
	bl	netif_set_up
	.loc	2 130 24 is_stmt 1              @ rt-thread/components/net/lwip-2.0.2/src/arch/sys_arch.c:130:24
	ldr	r0, [sp, #36]
	.loc	2 130 31 is_stmt 0              @ rt-thread/components/net/lwip-2.0.2/src/arch/sys_arch.c:130:31
	ldr	r0, [r0, #80]
	.loc	2 130 13                        @ rt-thread/components/net/lwip-2.0.2/src/arch/sys_arch.c:130:13
	bl	dhcp_start
.Ltmp43:
	.loc	2 136 17 is_stmt 1              @ rt-thread/components/net/lwip-2.0.2/src/arch/sys_arch.c:136:17
	ldr	r0, [sp, #36]
	ldrh.w	r0, [r0, #116]
.Ltmp44:
	.loc	2 136 17 is_stmt 0              @ rt-thread/components/net/lwip-2.0.2/src/arch/sys_arch.c:136:17
	lsls	r0, r0, #23
	cmp	r0, #0
	bpl	.LBB2_15
	b	.LBB2_14
.LBB2_14:                               @   in Loop: Header=BB2_9 Depth=1
.Ltmp45:
	.loc	2 138 35 is_stmt 1              @ rt-thread/components/net/lwip-2.0.2/src/arch/sys_arch.c:138:35
	ldr	r0, [sp, #36]
	.loc	2 138 42 is_stmt 0              @ rt-thread/components/net/lwip-2.0.2/src/arch/sys_arch.c:138:42
	ldr	r0, [r0, #80]
	.loc	2 138 17                        @ rt-thread/components/net/lwip-2.0.2/src/arch/sys_arch.c:138:17
	bl	netif_set_link_up
	.loc	2 139 13 is_stmt 1              @ rt-thread/components/net/lwip-2.0.2/src/arch/sys_arch.c:139:13
	b	.LBB2_15
.Ltmp46:
.LBB2_15:                               @   in Loop: Header=BB2_9 Depth=1
	.loc	2 141 13                        @ rt-thread/components/net/lwip-2.0.2/src/arch/sys_arch.c:141:13
	movw	r0, :lower16:lock_tcpip_core
	movt	r0, :upper16:lock_tcpip_core
	bl	sys_mutex_unlock
	.loc	2 143 13                        @ rt-thread/components/net/lwip-2.0.2/src/arch/sys_arch.c:143:13
	bl	rt_enter_critical
	.loc	2 144 9                         @ rt-thread/components/net/lwip-2.0.2/src/arch/sys_arch.c:144:9
	b	.LBB2_16
.Ltmp47:
.LBB2_16:                               @   in Loop: Header=BB2_9 Depth=1
	.loc	2 145 5                         @ rt-thread/components/net/lwip-2.0.2/src/arch/sys_arch.c:145:5
	b	.LBB2_17
.Ltmp48:
.LBB2_17:                               @   in Loop: Header=BB2_9 Depth=1
	.loc	2 108 17                        @ rt-thread/components/net/lwip-2.0.2/src/arch/sys_arch.c:108:17
	ldr	r0, [sp, #20]
	.loc	2 108 23 is_stmt 0              @ rt-thread/components/net/lwip-2.0.2/src/arch/sys_arch.c:108:23
	ldr	r0, [r0]
	.loc	2 108 15                        @ rt-thread/components/net/lwip-2.0.2/src/arch/sys_arch.c:108:15
	str	r0, [sp, #20]
	.loc	2 106 5 is_stmt 1               @ rt-thread/components/net/lwip-2.0.2/src/arch/sys_arch.c:106:5
	b	.LBB2_9
.Ltmp49:
.LBB2_18:
	.loc	2 148 5                         @ rt-thread/components/net/lwip-2.0.2/src/arch/sys_arch.c:148:5
	bl	rt_exit_critical
	.loc	2 149 30                        @ rt-thread/components/net/lwip-2.0.2/src/arch/sys_arch.c:149:30
	ldr	r0, [sp, #44]
	.loc	2 149 5 is_stmt 0               @ rt-thread/components/net/lwip-2.0.2/src/arch/sys_arch.c:149:5
	bl	rt_sem_release
	.loc	2 150 1 is_stmt 1               @ rt-thread/components/net/lwip-2.0.2/src/arch/sys_arch.c:150:1
	add	sp, #48
	pop	{r7, pc}
.Ltmp50:
.Lfunc_end2:
	.size	tcpip_init_done_callback, .Lfunc_end2-tcpip_init_done_callback
	.cfi_endproc
	.cantunwind
	.fnend
                                        @ -- End function
	.section	.text.sys_init,"ax",%progbits
	.hidden	sys_init                        @ -- Begin function sys_init
	.globl	sys_init
	.p2align	3
	.type	sys_init,%function
	.code	16                              @ @sys_init
	.thumb_func
sys_init:
.Lfunc_begin3:
	.loc	2 215 0                         @ rt-thread/components/net/lwip-2.0.2/src/arch/sys_arch.c:215:0
	.fnstart
	.cfi_startproc
@ %bb.0:
	.loc	2 217 1 prologue_end            @ rt-thread/components/net/lwip-2.0.2/src/arch/sys_arch.c:217:1
	bx	lr
.Ltmp51:
.Lfunc_end3:
	.size	sys_init, .Lfunc_end3-sys_init
	.cfi_endproc
	.cantunwind
	.fnend
                                        @ -- End function
	.section	.text.lwip_sys_init,"ax",%progbits
	.hidden	lwip_sys_init                   @ -- Begin function lwip_sys_init
	.globl	lwip_sys_init
	.p2align	3
	.type	lwip_sys_init,%function
	.code	16                              @ @lwip_sys_init
	.thumb_func
lwip_sys_init:
.Lfunc_begin4:
	.loc	2 220 0                         @ rt-thread/components/net/lwip-2.0.2/src/arch/sys_arch.c:220:0
	.fnstart
	.cfi_startproc
@ %bb.0:
	.save	{r7, lr}
	push	{r7, lr}
	.cfi_def_cfa_offset 8
	.cfi_offset lr, -4
	.cfi_offset r7, -8
.Ltmp52:
	.loc	2 221 5 prologue_end            @ rt-thread/components/net/lwip-2.0.2/src/arch/sys_arch.c:221:5
	bl	lwip_system_init
	.loc	2 222 1                         @ rt-thread/components/net/lwip-2.0.2/src/arch/sys_arch.c:222:1
	pop	{r7, pc}
.Ltmp53:
.Lfunc_end4:
	.size	lwip_sys_init, .Lfunc_end4-lwip_sys_init
	.cfi_endproc
	.cantunwind
	.fnend
                                        @ -- End function
	.section	.text.sys_sem_new,"ax",%progbits
	.hidden	sys_sem_new                     @ -- Begin function sys_sem_new
	.globl	sys_sem_new
	.p2align	3
	.type	sys_sem_new,%function
	.code	16                              @ @sys_sem_new
	.thumb_func
sys_sem_new:
.Lfunc_begin5:
	.loc	2 230 0                         @ rt-thread/components/net/lwip-2.0.2/src/arch/sys_arch.c:230:0
	.fnstart
	.cfi_startproc
@ %bb.0:
	.save	{r7, lr}
	push	{r7, lr}
	.cfi_def_cfa_offset 8
	.cfi_offset lr, -4
	.cfi_offset r7, -8
	.pad	#40
	sub	sp, #40
	.cfi_def_cfa_offset 48
                                        @ kill: def $r2 killed $r1
	str	r0, [sp, #32]
	strb.w	r1, [sp, #31]
.Ltmp54:
	.loc	2 235 5 prologue_end            @ rt-thread/components/net/lwip-2.0.2/src/arch/sys_arch.c:235:5
	b	.LBB5_1
.LBB5_1:
.Ltmp55:
	.loc	2 235 5 is_stmt 0               @ rt-thread/components/net/lwip-2.0.2/src/arch/sys_arch.c:235:5
	bl	rt_hw_interrupt_disable
	str	r0, [sp, #12]
.Ltmp56:
	.loc	2 235 5                         @ rt-thread/components/net/lwip-2.0.2/src/arch/sys_arch.c:235:5
	bl	rt_interrupt_get_nest
.Ltmp57:
	.loc	2 235 5                         @ rt-thread/components/net/lwip-2.0.2/src/arch/sys_arch.c:235:5
	cbz	r0, .LBB5_3
	b	.LBB5_2
.LBB5_2:
.Ltmp58:
	.loc	2 235 5                         @ rt-thread/components/net/lwip-2.0.2/src/arch/sys_arch.c:235:5
	movw	r0, :lower16:.L.str.5
	movt	r0, :upper16:.L.str.5
	movw	r1, :lower16:.L__FUNCTION__.sys_sem_new
	movt	r1, :upper16:.L__FUNCTION__.sys_sem_new
	movs	r2, #235
	bl	rt_assert_handler
.Ltmp59:
	.loc	2 235 5                         @ rt-thread/components/net/lwip-2.0.2/src/arch/sys_arch.c:235:5
	b	.LBB5_3
.Ltmp60:
.LBB5_3:
	.loc	2 235 5                         @ rt-thread/components/net/lwip-2.0.2/src/arch/sys_arch.c:235:5
	ldr	r0, [sp, #12]
	bl	rt_hw_interrupt_enable
	b	.LBB5_4
.Ltmp61:
.LBB5_4:
	.loc	2 237 64 is_stmt 1              @ rt-thread/components/net/lwip-2.0.2/src/arch/sys_arch.c:237:64
	movw	r0, :lower16:sys_sem_new.counter
	movt	r0, :upper16:sys_sem_new.counter
	str	r0, [sp, #4]                    @ 4-byte Spill
	ldrh	r0, [r0]
	.loc	2 237 5 is_stmt 0               @ rt-thread/components/net/lwip-2.0.2/src/arch/sys_arch.c:237:5
	mov	r1, sp
	str	r0, [r1]
	movw	r2, :lower16:.L.str.6
	movt	r2, :upper16:.L.str.6
	movw	r3, :lower16:.L.str.7
	movt	r3, :upper16:.L.str.7
	add.w	r0, sp, #23
	str	r0, [sp, #8]                    @ 4-byte Spill
	movs	r1, #8
	bl	rt_snprintf
	ldr	r2, [sp, #4]                    @ 4-byte Reload
                                        @ kill: def $r1 killed $r0
	.loc	2 238 13 is_stmt 1              @ rt-thread/components/net/lwip-2.0.2/src/arch/sys_arch.c:238:13
	ldr	r0, [sp, #8]                    @ 4-byte Reload
	ldrh	r1, [r2]
	adds	r1, #1
	strh	r1, [r2]
	.loc	2 240 35                        @ rt-thread/components/net/lwip-2.0.2/src/arch/sys_arch.c:240:35
	ldrb.w	r1, [sp, #31]
	movs	r2, #0
	.loc	2 240 14 is_stmt 0              @ rt-thread/components/net/lwip-2.0.2/src/arch/sys_arch.c:240:14
	bl	rt_sem_create
	.loc	2 240 12                        @ rt-thread/components/net/lwip-2.0.2/src/arch/sys_arch.c:240:12
	str	r0, [sp, #16]
.Ltmp62:
	.loc	2 241 9 is_stmt 1               @ rt-thread/components/net/lwip-2.0.2/src/arch/sys_arch.c:241:9
	ldr	r0, [sp, #16]
.Ltmp63:
	.loc	2 241 9 is_stmt 0               @ rt-thread/components/net/lwip-2.0.2/src/arch/sys_arch.c:241:9
	cbnz	r0, .LBB5_6
	b	.LBB5_5
.LBB5_5:
	.loc	2 0 9                           @ rt-thread/components/net/lwip-2.0.2/src/arch/sys_arch.c:0:9
	movs	r0, #255
.Ltmp64:
	.loc	2 242 9 is_stmt 1               @ rt-thread/components/net/lwip-2.0.2/src/arch/sys_arch.c:242:9
	strb.w	r0, [sp, #39]
	b	.LBB5_7
.LBB5_6:
.Ltmp65:
	.loc	2 245 16                        @ rt-thread/components/net/lwip-2.0.2/src/arch/sys_arch.c:245:16
	ldr	r0, [sp, #16]
	.loc	2 245 10 is_stmt 0              @ rt-thread/components/net/lwip-2.0.2/src/arch/sys_arch.c:245:10
	ldr	r1, [sp, #32]
	.loc	2 245 14                        @ rt-thread/components/net/lwip-2.0.2/src/arch/sys_arch.c:245:14
	str	r0, [r1]
	movs	r0, #0
	.loc	2 247 9 is_stmt 1               @ rt-thread/components/net/lwip-2.0.2/src/arch/sys_arch.c:247:9
	strb.w	r0, [sp, #39]
	b	.LBB5_7
.Ltmp66:
.LBB5_7:
	.loc	2 249 1                         @ rt-thread/components/net/lwip-2.0.2/src/arch/sys_arch.c:249:1
	ldrsb.w	r0, [sp, #39]
	add	sp, #40
	pop	{r7, pc}
.Ltmp67:
.Lfunc_end5:
	.size	sys_sem_new, .Lfunc_end5-sys_sem_new
	.cfi_endproc
	.cantunwind
	.fnend
                                        @ -- End function
	.section	.text.sys_sem_free,"ax",%progbits
	.hidden	sys_sem_free                    @ -- Begin function sys_sem_free
	.globl	sys_sem_free
	.p2align	3
	.type	sys_sem_free,%function
	.code	16                              @ @sys_sem_free
	.thumb_func
sys_sem_free:
.Lfunc_begin6:
	.loc	2 255 0                         @ rt-thread/components/net/lwip-2.0.2/src/arch/sys_arch.c:255:0
	.fnstart
	.cfi_startproc
@ %bb.0:
	.save	{r7, lr}
	push	{r7, lr}
	.cfi_def_cfa_offset 8
	.cfi_offset lr, -4
	.cfi_offset r7, -8
	.pad	#8
	sub	sp, #8
	.cfi_def_cfa_offset 16
	str	r0, [sp, #4]
.Ltmp68:
	.loc	2 256 5 prologue_end            @ rt-thread/components/net/lwip-2.0.2/src/arch/sys_arch.c:256:5
	b	.LBB6_1
.LBB6_1:
.Ltmp69:
	.loc	2 256 5 is_stmt 0               @ rt-thread/components/net/lwip-2.0.2/src/arch/sys_arch.c:256:5
	bl	rt_hw_interrupt_disable
	str	r0, [sp]
.Ltmp70:
	.loc	2 256 5                         @ rt-thread/components/net/lwip-2.0.2/src/arch/sys_arch.c:256:5
	bl	rt_interrupt_get_nest
.Ltmp71:
	.loc	2 256 5                         @ rt-thread/components/net/lwip-2.0.2/src/arch/sys_arch.c:256:5
	cbz	r0, .LBB6_3
	b	.LBB6_2
.LBB6_2:
.Ltmp72:
	.loc	2 256 5                         @ rt-thread/components/net/lwip-2.0.2/src/arch/sys_arch.c:256:5
	movw	r0, :lower16:.L.str.5
	movt	r0, :upper16:.L.str.5
	movw	r1, :lower16:.L__FUNCTION__.sys_sem_free
	movt	r1, :upper16:.L__FUNCTION__.sys_sem_free
	mov.w	r2, #256
	bl	rt_assert_handler
.Ltmp73:
	.loc	2 256 5                         @ rt-thread/components/net/lwip-2.0.2/src/arch/sys_arch.c:256:5
	b	.LBB6_3
.Ltmp74:
.LBB6_3:
	.loc	2 256 5                         @ rt-thread/components/net/lwip-2.0.2/src/arch/sys_arch.c:256:5
	ldr	r0, [sp]
	bl	rt_hw_interrupt_enable
	b	.LBB6_4
.Ltmp75:
.LBB6_4:
	.loc	2 257 20 is_stmt 1              @ rt-thread/components/net/lwip-2.0.2/src/arch/sys_arch.c:257:20
	ldr	r0, [sp, #4]
	.loc	2 257 19 is_stmt 0              @ rt-thread/components/net/lwip-2.0.2/src/arch/sys_arch.c:257:19
	ldr	r0, [r0]
	.loc	2 257 5                         @ rt-thread/components/net/lwip-2.0.2/src/arch/sys_arch.c:257:5
	bl	rt_sem_delete
	.loc	2 258 1 is_stmt 1               @ rt-thread/components/net/lwip-2.0.2/src/arch/sys_arch.c:258:1
	add	sp, #8
	pop	{r7, pc}
.Ltmp76:
.Lfunc_end6:
	.size	sys_sem_free, .Lfunc_end6-sys_sem_free
	.cfi_endproc
	.cantunwind
	.fnend
                                        @ -- End function
	.section	.text.sys_sem_signal,"ax",%progbits
	.hidden	sys_sem_signal                  @ -- Begin function sys_sem_signal
	.globl	sys_sem_signal
	.p2align	3
	.type	sys_sem_signal,%function
	.code	16                              @ @sys_sem_signal
	.thumb_func
sys_sem_signal:
.Lfunc_begin7:
	.loc	2 264 0                         @ rt-thread/components/net/lwip-2.0.2/src/arch/sys_arch.c:264:0
	.fnstart
	.cfi_startproc
@ %bb.0:
	.save	{r7, lr}
	push	{r7, lr}
	.cfi_def_cfa_offset 8
	.cfi_offset lr, -4
	.cfi_offset r7, -8
	.pad	#8
	sub	sp, #8
	.cfi_def_cfa_offset 16
	str	r0, [sp, #4]
.Ltmp77:
	.loc	2 265 21 prologue_end           @ rt-thread/components/net/lwip-2.0.2/src/arch/sys_arch.c:265:21
	ldr	r0, [sp, #4]
	.loc	2 265 20 is_stmt 0              @ rt-thread/components/net/lwip-2.0.2/src/arch/sys_arch.c:265:20
	ldr	r0, [r0]
	.loc	2 265 5                         @ rt-thread/components/net/lwip-2.0.2/src/arch/sys_arch.c:265:5
	bl	rt_sem_release
	.loc	2 266 1 is_stmt 1               @ rt-thread/components/net/lwip-2.0.2/src/arch/sys_arch.c:266:1
	add	sp, #8
	pop	{r7, pc}
.Ltmp78:
.Lfunc_end7:
	.size	sys_sem_signal, .Lfunc_end7-sys_sem_signal
	.cfi_endproc
	.cantunwind
	.fnend
                                        @ -- End function
	.section	.text.sys_arch_sem_wait,"ax",%progbits
	.hidden	sys_arch_sem_wait               @ -- Begin function sys_arch_sem_wait
	.globl	sys_arch_sem_wait
	.p2align	3
	.type	sys_arch_sem_wait,%function
	.code	16                              @ @sys_arch_sem_wait
	.thumb_func
sys_arch_sem_wait:
.Lfunc_begin8:
	.loc	2 277 0                         @ rt-thread/components/net/lwip-2.0.2/src/arch/sys_arch.c:277:0
	.fnstart
	.cfi_startproc
@ %bb.0:
	.save	{r7, lr}
	push	{r7, lr}
	.cfi_def_cfa_offset 8
	.cfi_offset lr, -4
	.cfi_offset r7, -8
	.pad	#32
	sub	sp, #32
	.cfi_def_cfa_offset 40
	str	r0, [sp, #24]
	str	r1, [sp, #20]
.Ltmp79:
	.loc	2 282 5 prologue_end            @ rt-thread/components/net/lwip-2.0.2/src/arch/sys_arch.c:282:5
	b	.LBB8_1
.LBB8_1:
.Ltmp80:
	.loc	2 282 5 is_stmt 0               @ rt-thread/components/net/lwip-2.0.2/src/arch/sys_arch.c:282:5
	bl	rt_hw_interrupt_disable
	str	r0, [sp, #4]
.Ltmp81:
	.loc	2 282 5                         @ rt-thread/components/net/lwip-2.0.2/src/arch/sys_arch.c:282:5
	bl	rt_interrupt_get_nest
.Ltmp82:
	.loc	2 282 5                         @ rt-thread/components/net/lwip-2.0.2/src/arch/sys_arch.c:282:5
	cbz	r0, .LBB8_3
	b	.LBB8_2
.LBB8_2:
.Ltmp83:
	.loc	2 282 5                         @ rt-thread/components/net/lwip-2.0.2/src/arch/sys_arch.c:282:5
	movw	r0, :lower16:.L.str.5
	movt	r0, :upper16:.L.str.5
	movw	r1, :lower16:.L__FUNCTION__.sys_arch_sem_wait
	movt	r1, :upper16:.L__FUNCTION__.sys_arch_sem_wait
	mov.w	r2, #282
	bl	rt_assert_handler
.Ltmp84:
	.loc	2 282 5                         @ rt-thread/components/net/lwip-2.0.2/src/arch/sys_arch.c:282:5
	b	.LBB8_3
.Ltmp85:
.LBB8_3:
	.loc	2 282 5                         @ rt-thread/components/net/lwip-2.0.2/src/arch/sys_arch.c:282:5
	ldr	r0, [sp, #4]
	bl	rt_hw_interrupt_enable
	b	.LBB8_4
.Ltmp86:
.LBB8_4:
	.loc	2 285 12 is_stmt 1              @ rt-thread/components/net/lwip-2.0.2/src/arch/sys_arch.c:285:12
	bl	rt_tick_get
	.loc	2 285 10 is_stmt 0              @ rt-thread/components/net/lwip-2.0.2/src/arch/sys_arch.c:285:10
	str	r0, [sp, #8]
.Ltmp87:
	.loc	2 286 9 is_stmt 1               @ rt-thread/components/net/lwip-2.0.2/src/arch/sys_arch.c:286:9
	ldr	r0, [sp, #20]
.Ltmp88:
	.loc	2 286 9 is_stmt 0               @ rt-thread/components/net/lwip-2.0.2/src/arch/sys_arch.c:286:9
	cbnz	r0, .LBB8_6
	b	.LBB8_5
.LBB8_5:
	.loc	2 0 9                           @ rt-thread/components/net/lwip-2.0.2/src/arch/sys_arch.c:0:9
	mov.w	r0, #-1
.Ltmp89:
	.loc	2 287 11 is_stmt 1              @ rt-thread/components/net/lwip-2.0.2/src/arch/sys_arch.c:287:11
	str	r0, [sp, #12]
	.loc	2 287 9 is_stmt 0               @ rt-thread/components/net/lwip-2.0.2/src/arch/sys_arch.c:287:9
	b	.LBB8_10
.LBB8_6:
.Ltmp90:
	.loc	2 291 13 is_stmt 1              @ rt-thread/components/net/lwip-2.0.2/src/arch/sys_arch.c:291:13
	ldr	r0, [sp, #20]
.Ltmp91:
	.loc	2 291 13 is_stmt 0              @ rt-thread/components/net/lwip-2.0.2/src/arch/sys_arch.c:291:13
	cbnz	r0, .LBB8_8
	b	.LBB8_7
.LBB8_7:
	.loc	2 0 13                          @ rt-thread/components/net/lwip-2.0.2/src/arch/sys_arch.c:0:13
	movs	r0, #1
.Ltmp92:
	.loc	2 292 15 is_stmt 1              @ rt-thread/components/net/lwip-2.0.2/src/arch/sys_arch.c:292:15
	str	r0, [sp, #12]
	.loc	2 292 13 is_stmt 0              @ rt-thread/components/net/lwip-2.0.2/src/arch/sys_arch.c:292:13
	b	.LBB8_9
.LBB8_8:
	.loc	2 294 17 is_stmt 1              @ rt-thread/components/net/lwip-2.0.2/src/arch/sys_arch.c:294:17
	ldr	r0, [sp, #20]
	.loc	2 294 15 is_stmt 0              @ rt-thread/components/net/lwip-2.0.2/src/arch/sys_arch.c:294:15
	str	r0, [sp, #12]
	b	.LBB8_9
.Ltmp93:
.LBB8_9:
	.loc	2 0 15                          @ rt-thread/components/net/lwip-2.0.2/src/arch/sys_arch.c:0:15
	b	.LBB8_10
.LBB8_10:
	.loc	2 297 24 is_stmt 1              @ rt-thread/components/net/lwip-2.0.2/src/arch/sys_arch.c:297:24
	ldr	r0, [sp, #24]
	.loc	2 297 23 is_stmt 0              @ rt-thread/components/net/lwip-2.0.2/src/arch/sys_arch.c:297:23
	ldr	r0, [r0]
	.loc	2 297 29                        @ rt-thread/components/net/lwip-2.0.2/src/arch/sys_arch.c:297:29
	ldr	r1, [sp, #12]
	.loc	2 297 11                        @ rt-thread/components/net/lwip-2.0.2/src/arch/sys_arch.c:297:11
	bl	rt_sem_take
	.loc	2 297 9                         @ rt-thread/components/net/lwip-2.0.2/src/arch/sys_arch.c:297:9
	str	r0, [sp, #16]
.Ltmp94:
	.loc	2 299 9 is_stmt 1               @ rt-thread/components/net/lwip-2.0.2/src/arch/sys_arch.c:299:9
	ldr	r0, [sp, #16]
.Ltmp95:
	.loc	2 299 9 is_stmt 0               @ rt-thread/components/net/lwip-2.0.2/src/arch/sys_arch.c:299:9
	adds	r0, #2
	cbnz	r0, .LBB8_12
	b	.LBB8_11
.LBB8_11:
	.loc	2 0 9                           @ rt-thread/components/net/lwip-2.0.2/src/arch/sys_arch.c:0:9
	mov.w	r0, #-1
.Ltmp96:
	.loc	2 300 9 is_stmt 1               @ rt-thread/components/net/lwip-2.0.2/src/arch/sys_arch.c:300:9
	str	r0, [sp, #28]
	b	.LBB8_18
.LBB8_12:
.Ltmp97:
	.loc	2 303 13                        @ rt-thread/components/net/lwip-2.0.2/src/arch/sys_arch.c:303:13
	ldr	r0, [sp, #16]
.Ltmp98:
	.loc	2 303 13 is_stmt 0              @ rt-thread/components/net/lwip-2.0.2/src/arch/sys_arch.c:303:13
	cbnz	r0, .LBB8_14
	b	.LBB8_13
.LBB8_13:
	.loc	2 0 13                          @ rt-thread/components/net/lwip-2.0.2/src/arch/sys_arch.c:0:13
	movs	r0, #1
.Ltmp99:
	.loc	2 304 17 is_stmt 1              @ rt-thread/components/net/lwip-2.0.2/src/arch/sys_arch.c:304:17
	str	r0, [sp, #16]
	.loc	2 304 13 is_stmt 0              @ rt-thread/components/net/lwip-2.0.2/src/arch/sys_arch.c:304:13
	b	.LBB8_14
.Ltmp100:
.LBB8_14:
	.loc	2 0 13                          @ rt-thread/components/net/lwip-2.0.2/src/arch/sys_arch.c:0:13
	b	.LBB8_15
.LBB8_15:
	.loc	2 308 12 is_stmt 1              @ rt-thread/components/net/lwip-2.0.2/src/arch/sys_arch.c:308:12
	bl	rt_tick_get
	.loc	2 308 28 is_stmt 0              @ rt-thread/components/net/lwip-2.0.2/src/arch/sys_arch.c:308:28
	ldr	r1, [sp, #8]
	.loc	2 308 26                        @ rt-thread/components/net/lwip-2.0.2/src/arch/sys_arch.c:308:26
	subs	r0, r0, r1
	.loc	2 308 10                        @ rt-thread/components/net/lwip-2.0.2/src/arch/sys_arch.c:308:10
	str	r0, [sp, #8]
	.loc	2 311 12 is_stmt 1              @ rt-thread/components/net/lwip-2.0.2/src/arch/sys_arch.c:311:12
	ldr	r0, [sp, #8]
	.loc	2 312 9                         @ rt-thread/components/net/lwip-2.0.2/src/arch/sys_arch.c:312:9
	cbnz	r0, .LBB8_17
	b	.LBB8_16
.LBB8_16:
	.loc	2 0 9 is_stmt 0                 @ rt-thread/components/net/lwip-2.0.2/src/arch/sys_arch.c:0:9
	movs	r0, #1
.Ltmp101:
	.loc	2 313 14 is_stmt 1              @ rt-thread/components/net/lwip-2.0.2/src/arch/sys_arch.c:313:14
	str	r0, [sp, #8]
	.loc	2 313 9 is_stmt 0               @ rt-thread/components/net/lwip-2.0.2/src/arch/sys_arch.c:313:9
	b	.LBB8_17
.Ltmp102:
.LBB8_17:
	.loc	2 315 12 is_stmt 1              @ rt-thread/components/net/lwip-2.0.2/src/arch/sys_arch.c:315:12
	ldr	r0, [sp, #8]
	.loc	2 315 5 is_stmt 0               @ rt-thread/components/net/lwip-2.0.2/src/arch/sys_arch.c:315:5
	str	r0, [sp, #28]
	b	.LBB8_18
.LBB8_18:
	.loc	2 316 1 is_stmt 1               @ rt-thread/components/net/lwip-2.0.2/src/arch/sys_arch.c:316:1
	ldr	r0, [sp, #28]
	add	sp, #32
	pop	{r7, pc}
.Ltmp103:
.Lfunc_end8:
	.size	sys_arch_sem_wait, .Lfunc_end8-sys_arch_sem_wait
	.cfi_endproc
	.cantunwind
	.fnend
                                        @ -- End function
	.section	.text.sys_sem_valid,"ax",%progbits
	.hidden	sys_sem_valid                   @ -- Begin function sys_sem_valid
	.globl	sys_sem_valid
	.p2align	3
	.type	sys_sem_valid,%function
	.code	16                              @ @sys_sem_valid
	.thumb_func
sys_sem_valid:
.Lfunc_begin9:
	.loc	2 323 0                         @ rt-thread/components/net/lwip-2.0.2/src/arch/sys_arch.c:323:0
	.fnstart
	.cfi_startproc
@ %bb.0:
	.pad	#4
	sub	sp, #4
	.cfi_def_cfa_offset 4
	str	r0, [sp]
.Ltmp104:
	.loc	2 324 19 prologue_end           @ rt-thread/components/net/lwip-2.0.2/src/arch/sys_arch.c:324:19
	ldr	r0, [sp]
	.loc	2 324 18 is_stmt 0              @ rt-thread/components/net/lwip-2.0.2/src/arch/sys_arch.c:324:18
	ldr	r0, [r0]
	.loc	2 324 5                         @ rt-thread/components/net/lwip-2.0.2/src/arch/sys_arch.c:324:5
	add	sp, #4
	bx	lr
.Ltmp105:
.Lfunc_end9:
	.size	sys_sem_valid, .Lfunc_end9-sys_sem_valid
	.cfi_endproc
	.cantunwind
	.fnend
                                        @ -- End function
	.section	.text.sys_sem_set_invalid,"ax",%progbits
	.hidden	sys_sem_set_invalid             @ -- Begin function sys_sem_set_invalid
	.globl	sys_sem_set_invalid
	.p2align	3
	.type	sys_sem_set_invalid,%function
	.code	16                              @ @sys_sem_set_invalid
	.thumb_func
sys_sem_set_invalid:
.Lfunc_begin10:
	.loc	2 332 0 is_stmt 1               @ rt-thread/components/net/lwip-2.0.2/src/arch/sys_arch.c:332:0
	.fnstart
	.cfi_startproc
@ %bb.0:
	.pad	#4
	sub	sp, #4
	.cfi_def_cfa_offset 4
	str	r0, [sp]
.Ltmp106:
	.loc	2 333 6 prologue_end            @ rt-thread/components/net/lwip-2.0.2/src/arch/sys_arch.c:333:6
	ldr	r1, [sp]
	movs	r0, #0
	.loc	2 333 10 is_stmt 0              @ rt-thread/components/net/lwip-2.0.2/src/arch/sys_arch.c:333:10
	str	r0, [r1]
	.loc	2 334 1 is_stmt 1               @ rt-thread/components/net/lwip-2.0.2/src/arch/sys_arch.c:334:1
	add	sp, #4
	bx	lr
.Ltmp107:
.Lfunc_end10:
	.size	sys_sem_set_invalid, .Lfunc_end10-sys_sem_set_invalid
	.cfi_endproc
	.cantunwind
	.fnend
                                        @ -- End function
	.section	.text.sys_mutex_new,"ax",%progbits
	.hidden	sys_mutex_new                   @ -- Begin function sys_mutex_new
	.globl	sys_mutex_new
	.p2align	3
	.type	sys_mutex_new,%function
	.code	16                              @ @sys_mutex_new
	.thumb_func
sys_mutex_new:
.Lfunc_begin11:
	.loc	2 344 0                         @ rt-thread/components/net/lwip-2.0.2/src/arch/sys_arch.c:344:0
	.fnstart
	.cfi_startproc
@ %bb.0:
	.save	{r7, lr}
	push	{r7, lr}
	.cfi_def_cfa_offset 8
	.cfi_offset lr, -4
	.cfi_offset r7, -8
	.pad	#40
	sub	sp, #40
	.cfi_def_cfa_offset 48
	str	r0, [sp, #32]
.Ltmp108:
	.loc	2 349 5 prologue_end            @ rt-thread/components/net/lwip-2.0.2/src/arch/sys_arch.c:349:5
	b	.LBB11_1
.LBB11_1:
.Ltmp109:
	.loc	2 349 5 is_stmt 0               @ rt-thread/components/net/lwip-2.0.2/src/arch/sys_arch.c:349:5
	bl	rt_hw_interrupt_disable
	str	r0, [sp, #16]
.Ltmp110:
	.loc	2 349 5                         @ rt-thread/components/net/lwip-2.0.2/src/arch/sys_arch.c:349:5
	bl	rt_interrupt_get_nest
.Ltmp111:
	.loc	2 349 5                         @ rt-thread/components/net/lwip-2.0.2/src/arch/sys_arch.c:349:5
	cbz	r0, .LBB11_3
	b	.LBB11_2
.LBB11_2:
.Ltmp112:
	.loc	2 349 5                         @ rt-thread/components/net/lwip-2.0.2/src/arch/sys_arch.c:349:5
	movw	r0, :lower16:.L.str.5
	movt	r0, :upper16:.L.str.5
	movw	r1, :lower16:.L__FUNCTION__.sys_mutex_new
	movt	r1, :upper16:.L__FUNCTION__.sys_mutex_new
	movw	r2, #349
	bl	rt_assert_handler
.Ltmp113:
	.loc	2 349 5                         @ rt-thread/components/net/lwip-2.0.2/src/arch/sys_arch.c:349:5
	b	.LBB11_3
.Ltmp114:
.LBB11_3:
	.loc	2 349 5                         @ rt-thread/components/net/lwip-2.0.2/src/arch/sys_arch.c:349:5
	ldr	r0, [sp, #16]
	bl	rt_hw_interrupt_enable
	b	.LBB11_4
.Ltmp115:
.LBB11_4:
	.loc	2 351 66 is_stmt 1              @ rt-thread/components/net/lwip-2.0.2/src/arch/sys_arch.c:351:66
	movw	r0, :lower16:sys_mutex_new.counter
	movt	r0, :upper16:sys_mutex_new.counter
	str	r0, [sp, #8]                    @ 4-byte Spill
	ldrh	r0, [r0]
	.loc	2 351 5 is_stmt 0               @ rt-thread/components/net/lwip-2.0.2/src/arch/sys_arch.c:351:5
	mov	r1, sp
	str	r0, [r1]
	movw	r2, :lower16:.L.str.6
	movt	r2, :upper16:.L.str.6
	movw	r3, :lower16:.L.str.8
	movt	r3, :upper16:.L.str.8
	add	r0, sp, #24
	str	r0, [sp, #12]                   @ 4-byte Spill
	movs	r1, #8
	bl	rt_snprintf
	ldr	r2, [sp, #8]                    @ 4-byte Reload
                                        @ kill: def $r1 killed $r0
	.loc	2 352 13 is_stmt 1              @ rt-thread/components/net/lwip-2.0.2/src/arch/sys_arch.c:352:13
	ldr	r0, [sp, #12]                   @ 4-byte Reload
	ldrh	r1, [r2]
	adds	r1, #1
	strh	r1, [r2]
	movs	r1, #0
	.loc	2 354 16                        @ rt-thread/components/net/lwip-2.0.2/src/arch/sys_arch.c:354:16
	bl	rt_mutex_create
	.loc	2 354 14 is_stmt 0              @ rt-thread/components/net/lwip-2.0.2/src/arch/sys_arch.c:354:14
	str	r0, [sp, #20]
.Ltmp116:
	.loc	2 355 9 is_stmt 1               @ rt-thread/components/net/lwip-2.0.2/src/arch/sys_arch.c:355:9
	ldr	r0, [sp, #20]
.Ltmp117:
	.loc	2 355 9 is_stmt 0               @ rt-thread/components/net/lwip-2.0.2/src/arch/sys_arch.c:355:9
	cbnz	r0, .LBB11_6
	b	.LBB11_5
.LBB11_5:
	.loc	2 0 9                           @ rt-thread/components/net/lwip-2.0.2/src/arch/sys_arch.c:0:9
	movs	r0, #255
.Ltmp118:
	.loc	2 356 9 is_stmt 1               @ rt-thread/components/net/lwip-2.0.2/src/arch/sys_arch.c:356:9
	strb.w	r0, [sp, #39]
	b	.LBB11_7
.LBB11_6:
.Ltmp119:
	.loc	2 359 18                        @ rt-thread/components/net/lwip-2.0.2/src/arch/sys_arch.c:359:18
	ldr	r0, [sp, #20]
	.loc	2 359 10 is_stmt 0              @ rt-thread/components/net/lwip-2.0.2/src/arch/sys_arch.c:359:10
	ldr	r1, [sp, #32]
	.loc	2 359 16                        @ rt-thread/components/net/lwip-2.0.2/src/arch/sys_arch.c:359:16
	str	r0, [r1]
	movs	r0, #0
	.loc	2 361 9 is_stmt 1               @ rt-thread/components/net/lwip-2.0.2/src/arch/sys_arch.c:361:9
	strb.w	r0, [sp, #39]
	b	.LBB11_7
.Ltmp120:
.LBB11_7:
	.loc	2 363 1                         @ rt-thread/components/net/lwip-2.0.2/src/arch/sys_arch.c:363:1
	ldrsb.w	r0, [sp, #39]
	add	sp, #40
	pop	{r7, pc}
.Ltmp121:
.Lfunc_end11:
	.size	sys_mutex_new, .Lfunc_end11-sys_mutex_new
	.cfi_endproc
	.cantunwind
	.fnend
                                        @ -- End function
	.section	.text.sys_mutex_lock,"ax",%progbits
	.hidden	sys_mutex_lock                  @ -- Begin function sys_mutex_lock
	.globl	sys_mutex_lock
	.p2align	3
	.type	sys_mutex_lock,%function
	.code	16                              @ @sys_mutex_lock
	.thumb_func
sys_mutex_lock:
.Lfunc_begin12:
	.loc	2 369 0                         @ rt-thread/components/net/lwip-2.0.2/src/arch/sys_arch.c:369:0
	.fnstart
	.cfi_startproc
@ %bb.0:
	.save	{r7, lr}
	push	{r7, lr}
	.cfi_def_cfa_offset 8
	.cfi_offset lr, -4
	.cfi_offset r7, -8
	.pad	#8
	sub	sp, #8
	.cfi_def_cfa_offset 16
	str	r0, [sp, #4]
.Ltmp122:
	.loc	2 370 5 prologue_end            @ rt-thread/components/net/lwip-2.0.2/src/arch/sys_arch.c:370:5
	b	.LBB12_1
.LBB12_1:
.Ltmp123:
	.loc	2 370 5 is_stmt 0               @ rt-thread/components/net/lwip-2.0.2/src/arch/sys_arch.c:370:5
	bl	rt_hw_interrupt_disable
	str	r0, [sp]
.Ltmp124:
	.loc	2 370 5                         @ rt-thread/components/net/lwip-2.0.2/src/arch/sys_arch.c:370:5
	bl	rt_interrupt_get_nest
.Ltmp125:
	.loc	2 370 5                         @ rt-thread/components/net/lwip-2.0.2/src/arch/sys_arch.c:370:5
	cbz	r0, .LBB12_3
	b	.LBB12_2
.LBB12_2:
.Ltmp126:
	.loc	2 370 5                         @ rt-thread/components/net/lwip-2.0.2/src/arch/sys_arch.c:370:5
	movw	r0, :lower16:.L.str.5
	movt	r0, :upper16:.L.str.5
	movw	r1, :lower16:.L__FUNCTION__.sys_mutex_lock
	movt	r1, :upper16:.L__FUNCTION__.sys_mutex_lock
	mov.w	r2, #370
	bl	rt_assert_handler
.Ltmp127:
	.loc	2 370 5                         @ rt-thread/components/net/lwip-2.0.2/src/arch/sys_arch.c:370:5
	b	.LBB12_3
.Ltmp128:
.LBB12_3:
	.loc	2 370 5                         @ rt-thread/components/net/lwip-2.0.2/src/arch/sys_arch.c:370:5
	ldr	r0, [sp]
	bl	rt_hw_interrupt_enable
	b	.LBB12_4
.Ltmp129:
.LBB12_4:
	.loc	2 371 20 is_stmt 1              @ rt-thread/components/net/lwip-2.0.2/src/arch/sys_arch.c:371:20
	ldr	r0, [sp, #4]
	.loc	2 371 19 is_stmt 0              @ rt-thread/components/net/lwip-2.0.2/src/arch/sys_arch.c:371:19
	ldr	r0, [r0]
	mov.w	r1, #-1
	.loc	2 371 5                         @ rt-thread/components/net/lwip-2.0.2/src/arch/sys_arch.c:371:5
	bl	rt_mutex_take
	.loc	2 373 5 is_stmt 1               @ rt-thread/components/net/lwip-2.0.2/src/arch/sys_arch.c:373:5
	add	sp, #8
	pop	{r7, pc}
.Ltmp130:
.Lfunc_end12:
	.size	sys_mutex_lock, .Lfunc_end12-sys_mutex_lock
	.cfi_endproc
	.cantunwind
	.fnend
                                        @ -- End function
	.section	.text.sys_mutex_unlock,"ax",%progbits
	.hidden	sys_mutex_unlock                @ -- Begin function sys_mutex_unlock
	.globl	sys_mutex_unlock
	.p2align	3
	.type	sys_mutex_unlock,%function
	.code	16                              @ @sys_mutex_unlock
	.thumb_func
sys_mutex_unlock:
.Lfunc_begin13:
	.loc	2 380 0                         @ rt-thread/components/net/lwip-2.0.2/src/arch/sys_arch.c:380:0
	.fnstart
	.cfi_startproc
@ %bb.0:
	.save	{r7, lr}
	push	{r7, lr}
	.cfi_def_cfa_offset 8
	.cfi_offset lr, -4
	.cfi_offset r7, -8
	.pad	#8
	sub	sp, #8
	.cfi_def_cfa_offset 16
	str	r0, [sp, #4]
.Ltmp131:
	.loc	2 381 23 prologue_end           @ rt-thread/components/net/lwip-2.0.2/src/arch/sys_arch.c:381:23
	ldr	r0, [sp, #4]
	.loc	2 381 22 is_stmt 0              @ rt-thread/components/net/lwip-2.0.2/src/arch/sys_arch.c:381:22
	ldr	r0, [r0]
	.loc	2 381 5                         @ rt-thread/components/net/lwip-2.0.2/src/arch/sys_arch.c:381:5
	bl	rt_mutex_release
	.loc	2 382 1 is_stmt 1               @ rt-thread/components/net/lwip-2.0.2/src/arch/sys_arch.c:382:1
	add	sp, #8
	pop	{r7, pc}
.Ltmp132:
.Lfunc_end13:
	.size	sys_mutex_unlock, .Lfunc_end13-sys_mutex_unlock
	.cfi_endproc
	.cantunwind
	.fnend
                                        @ -- End function
	.section	.text.sys_mutex_free,"ax",%progbits
	.hidden	sys_mutex_free                  @ -- Begin function sys_mutex_free
	.globl	sys_mutex_free
	.p2align	3
	.type	sys_mutex_free,%function
	.code	16                              @ @sys_mutex_free
	.thumb_func
sys_mutex_free:
.Lfunc_begin14:
	.loc	2 388 0                         @ rt-thread/components/net/lwip-2.0.2/src/arch/sys_arch.c:388:0
	.fnstart
	.cfi_startproc
@ %bb.0:
	.save	{r7, lr}
	push	{r7, lr}
	.cfi_def_cfa_offset 8
	.cfi_offset lr, -4
	.cfi_offset r7, -8
	.pad	#8
	sub	sp, #8
	.cfi_def_cfa_offset 16
	str	r0, [sp, #4]
.Ltmp133:
	.loc	2 389 5 prologue_end            @ rt-thread/components/net/lwip-2.0.2/src/arch/sys_arch.c:389:5
	b	.LBB14_1
.LBB14_1:
.Ltmp134:
	.loc	2 389 5 is_stmt 0               @ rt-thread/components/net/lwip-2.0.2/src/arch/sys_arch.c:389:5
	bl	rt_hw_interrupt_disable
	str	r0, [sp]
.Ltmp135:
	.loc	2 389 5                         @ rt-thread/components/net/lwip-2.0.2/src/arch/sys_arch.c:389:5
	bl	rt_interrupt_get_nest
.Ltmp136:
	.loc	2 389 5                         @ rt-thread/components/net/lwip-2.0.2/src/arch/sys_arch.c:389:5
	cbz	r0, .LBB14_3
	b	.LBB14_2
.LBB14_2:
.Ltmp137:
	.loc	2 389 5                         @ rt-thread/components/net/lwip-2.0.2/src/arch/sys_arch.c:389:5
	movw	r0, :lower16:.L.str.5
	movt	r0, :upper16:.L.str.5
	movw	r1, :lower16:.L__FUNCTION__.sys_mutex_free
	movt	r1, :upper16:.L__FUNCTION__.sys_mutex_free
	movw	r2, #389
	bl	rt_assert_handler
.Ltmp138:
	.loc	2 389 5                         @ rt-thread/components/net/lwip-2.0.2/src/arch/sys_arch.c:389:5
	b	.LBB14_3
.Ltmp139:
.LBB14_3:
	.loc	2 389 5                         @ rt-thread/components/net/lwip-2.0.2/src/arch/sys_arch.c:389:5
	ldr	r0, [sp]
	bl	rt_hw_interrupt_enable
	b	.LBB14_4
.Ltmp140:
.LBB14_4:
	.loc	2 391 22 is_stmt 1              @ rt-thread/components/net/lwip-2.0.2/src/arch/sys_arch.c:391:22
	ldr	r0, [sp, #4]
	.loc	2 391 21 is_stmt 0              @ rt-thread/components/net/lwip-2.0.2/src/arch/sys_arch.c:391:21
	ldr	r0, [r0]
	.loc	2 391 5                         @ rt-thread/components/net/lwip-2.0.2/src/arch/sys_arch.c:391:5
	bl	rt_mutex_delete
	.loc	2 392 1 is_stmt 1               @ rt-thread/components/net/lwip-2.0.2/src/arch/sys_arch.c:392:1
	add	sp, #8
	pop	{r7, pc}
.Ltmp141:
.Lfunc_end14:
	.size	sys_mutex_free, .Lfunc_end14-sys_mutex_free
	.cfi_endproc
	.cantunwind
	.fnend
                                        @ -- End function
	.section	.text.sys_mutex_valid,"ax",%progbits
	.hidden	sys_mutex_valid                 @ -- Begin function sys_mutex_valid
	.globl	sys_mutex_valid
	.p2align	3
	.type	sys_mutex_valid,%function
	.code	16                              @ @sys_mutex_valid
	.thumb_func
sys_mutex_valid:
.Lfunc_begin15:
	.loc	2 399 0                         @ rt-thread/components/net/lwip-2.0.2/src/arch/sys_arch.c:399:0
	.fnstart
	.cfi_startproc
@ %bb.0:
	.pad	#4
	sub	sp, #4
	.cfi_def_cfa_offset 4
	str	r0, [sp]
.Ltmp142:
	.loc	2 400 19 prologue_end           @ rt-thread/components/net/lwip-2.0.2/src/arch/sys_arch.c:400:19
	ldr	r0, [sp]
	.loc	2 400 18 is_stmt 0              @ rt-thread/components/net/lwip-2.0.2/src/arch/sys_arch.c:400:18
	ldr	r0, [r0]
	.loc	2 400 5                         @ rt-thread/components/net/lwip-2.0.2/src/arch/sys_arch.c:400:5
	add	sp, #4
	bx	lr
.Ltmp143:
.Lfunc_end15:
	.size	sys_mutex_valid, .Lfunc_end15-sys_mutex_valid
	.cfi_endproc
	.cantunwind
	.fnend
                                        @ -- End function
	.section	.text.sys_mutex_set_invalid,"ax",%progbits
	.hidden	sys_mutex_set_invalid           @ -- Begin function sys_mutex_set_invalid
	.globl	sys_mutex_set_invalid
	.p2align	3
	.type	sys_mutex_set_invalid,%function
	.code	16                              @ @sys_mutex_set_invalid
	.thumb_func
sys_mutex_set_invalid:
.Lfunc_begin16:
	.loc	2 408 0 is_stmt 1               @ rt-thread/components/net/lwip-2.0.2/src/arch/sys_arch.c:408:0
	.fnstart
	.cfi_startproc
@ %bb.0:
	.pad	#4
	sub	sp, #4
	.cfi_def_cfa_offset 4
	str	r0, [sp]
.Ltmp144:
	.loc	2 409 6 prologue_end            @ rt-thread/components/net/lwip-2.0.2/src/arch/sys_arch.c:409:6
	ldr	r1, [sp]
	movs	r0, #0
	.loc	2 409 12 is_stmt 0              @ rt-thread/components/net/lwip-2.0.2/src/arch/sys_arch.c:409:12
	str	r0, [r1]
	.loc	2 410 1 is_stmt 1               @ rt-thread/components/net/lwip-2.0.2/src/arch/sys_arch.c:410:1
	add	sp, #4
	bx	lr
.Ltmp145:
.Lfunc_end16:
	.size	sys_mutex_set_invalid, .Lfunc_end16-sys_mutex_set_invalid
	.cfi_endproc
	.cantunwind
	.fnend
                                        @ -- End function
	.section	.text.sys_mbox_new,"ax",%progbits
	.hidden	sys_mbox_new                    @ -- Begin function sys_mbox_new
	.globl	sys_mbox_new
	.p2align	3
	.type	sys_mbox_new,%function
	.code	16                              @ @sys_mbox_new
	.thumb_func
sys_mbox_new:
.Lfunc_begin17:
	.loc	2 421 0                         @ rt-thread/components/net/lwip-2.0.2/src/arch/sys_arch.c:421:0
	.fnstart
	.cfi_startproc
@ %bb.0:
	.save	{r7, lr}
	push	{r7, lr}
	.cfi_def_cfa_offset 8
	.cfi_offset lr, -4
	.cfi_offset r7, -8
	.pad	#40
	sub	sp, #40
	.cfi_def_cfa_offset 48
	str	r0, [sp, #32]
	str	r1, [sp, #28]
.Ltmp146:
	.loc	2 426 5 prologue_end            @ rt-thread/components/net/lwip-2.0.2/src/arch/sys_arch.c:426:5
	b	.LBB17_1
.LBB17_1:
.Ltmp147:
	.loc	2 426 5 is_stmt 0               @ rt-thread/components/net/lwip-2.0.2/src/arch/sys_arch.c:426:5
	bl	rt_hw_interrupt_disable
	str	r0, [sp, #12]
.Ltmp148:
	.loc	2 426 5                         @ rt-thread/components/net/lwip-2.0.2/src/arch/sys_arch.c:426:5
	bl	rt_interrupt_get_nest
.Ltmp149:
	.loc	2 426 5                         @ rt-thread/components/net/lwip-2.0.2/src/arch/sys_arch.c:426:5
	cbz	r0, .LBB17_3
	b	.LBB17_2
.LBB17_2:
.Ltmp150:
	.loc	2 426 5                         @ rt-thread/components/net/lwip-2.0.2/src/arch/sys_arch.c:426:5
	movw	r0, :lower16:.L.str.5
	movt	r0, :upper16:.L.str.5
	movw	r1, :lower16:.L__FUNCTION__.sys_mbox_new
	movt	r1, :upper16:.L__FUNCTION__.sys_mbox_new
	mov.w	r2, #426
	bl	rt_assert_handler
.Ltmp151:
	.loc	2 426 5                         @ rt-thread/components/net/lwip-2.0.2/src/arch/sys_arch.c:426:5
	b	.LBB17_3
.Ltmp152:
.LBB17_3:
	.loc	2 426 5                         @ rt-thread/components/net/lwip-2.0.2/src/arch/sys_arch.c:426:5
	ldr	r0, [sp, #12]
	bl	rt_hw_interrupt_enable
	b	.LBB17_4
.Ltmp153:
.LBB17_4:
	.loc	2 428 65 is_stmt 1              @ rt-thread/components/net/lwip-2.0.2/src/arch/sys_arch.c:428:65
	movw	r0, :lower16:sys_mbox_new.counter
	movt	r0, :upper16:sys_mbox_new.counter
	str	r0, [sp, #4]                    @ 4-byte Spill
	ldrh	r0, [r0]
	.loc	2 428 5 is_stmt 0               @ rt-thread/components/net/lwip-2.0.2/src/arch/sys_arch.c:428:5
	mov	r1, sp
	str	r0, [r1]
	movw	r2, :lower16:.L.str.6
	movt	r2, :upper16:.L.str.6
	movw	r3, :lower16:.L.str.9
	movt	r3, :upper16:.L.str.9
	add	r0, sp, #20
	str	r0, [sp, #8]                    @ 4-byte Spill
	movs	r1, #8
	bl	rt_snprintf
	ldr	r2, [sp, #4]                    @ 4-byte Reload
                                        @ kill: def $r1 killed $r0
	.loc	2 429 13 is_stmt 1              @ rt-thread/components/net/lwip-2.0.2/src/arch/sys_arch.c:429:13
	ldr	r0, [sp, #8]                    @ 4-byte Reload
	ldrh	r1, [r2]
	adds	r1, #1
	strh	r1, [r2]
	.loc	2 431 35                        @ rt-thread/components/net/lwip-2.0.2/src/arch/sys_arch.c:431:35
	ldr	r1, [sp, #28]
	movs	r2, #0
	.loc	2 431 15 is_stmt 0              @ rt-thread/components/net/lwip-2.0.2/src/arch/sys_arch.c:431:15
	bl	rt_mb_create
	.loc	2 431 13                        @ rt-thread/components/net/lwip-2.0.2/src/arch/sys_arch.c:431:13
	str	r0, [sp, #16]
.Ltmp154:
	.loc	2 432 9 is_stmt 1               @ rt-thread/components/net/lwip-2.0.2/src/arch/sys_arch.c:432:9
	ldr	r0, [sp, #16]
.Ltmp155:
	.loc	2 432 9 is_stmt 0               @ rt-thread/components/net/lwip-2.0.2/src/arch/sys_arch.c:432:9
	cbz	r0, .LBB17_6
	b	.LBB17_5
.LBB17_5:
.Ltmp156:
	.loc	2 434 17 is_stmt 1              @ rt-thread/components/net/lwip-2.0.2/src/arch/sys_arch.c:434:17
	ldr	r0, [sp, #16]
	.loc	2 434 10 is_stmt 0              @ rt-thread/components/net/lwip-2.0.2/src/arch/sys_arch.c:434:10
	ldr	r1, [sp, #32]
	.loc	2 434 15                        @ rt-thread/components/net/lwip-2.0.2/src/arch/sys_arch.c:434:15
	str	r0, [r1]
	movs	r0, #0
	.loc	2 436 9 is_stmt 1               @ rt-thread/components/net/lwip-2.0.2/src/arch/sys_arch.c:436:9
	strb.w	r0, [sp, #39]
	b	.LBB17_7
.Ltmp157:
.LBB17_6:
	.loc	2 0 9 is_stmt 0                 @ rt-thread/components/net/lwip-2.0.2/src/arch/sys_arch.c:0:9
	movs	r0, #255
	.loc	2 439 5 is_stmt 1               @ rt-thread/components/net/lwip-2.0.2/src/arch/sys_arch.c:439:5
	strb.w	r0, [sp, #39]
	b	.LBB17_7
.LBB17_7:
	.loc	2 440 1                         @ rt-thread/components/net/lwip-2.0.2/src/arch/sys_arch.c:440:1
	ldrsb.w	r0, [sp, #39]
	add	sp, #40
	pop	{r7, pc}
.Ltmp158:
.Lfunc_end17:
	.size	sys_mbox_new, .Lfunc_end17-sys_mbox_new
	.cfi_endproc
	.cantunwind
	.fnend
                                        @ -- End function
	.section	.text.sys_mbox_free,"ax",%progbits
	.hidden	sys_mbox_free                   @ -- Begin function sys_mbox_free
	.globl	sys_mbox_free
	.p2align	3
	.type	sys_mbox_free,%function
	.code	16                              @ @sys_mbox_free
	.thumb_func
sys_mbox_free:
.Lfunc_begin18:
	.loc	2 446 0                         @ rt-thread/components/net/lwip-2.0.2/src/arch/sys_arch.c:446:0
	.fnstart
	.cfi_startproc
@ %bb.0:
	.save	{r7, lr}
	push	{r7, lr}
	.cfi_def_cfa_offset 8
	.cfi_offset lr, -4
	.cfi_offset r7, -8
	.pad	#8
	sub	sp, #8
	.cfi_def_cfa_offset 16
	str	r0, [sp, #4]
.Ltmp159:
	.loc	2 447 5 prologue_end            @ rt-thread/components/net/lwip-2.0.2/src/arch/sys_arch.c:447:5
	b	.LBB18_1
.LBB18_1:
.Ltmp160:
	.loc	2 447 5 is_stmt 0               @ rt-thread/components/net/lwip-2.0.2/src/arch/sys_arch.c:447:5
	bl	rt_hw_interrupt_disable
	str	r0, [sp]
.Ltmp161:
	.loc	2 447 5                         @ rt-thread/components/net/lwip-2.0.2/src/arch/sys_arch.c:447:5
	bl	rt_interrupt_get_nest
.Ltmp162:
	.loc	2 447 5                         @ rt-thread/components/net/lwip-2.0.2/src/arch/sys_arch.c:447:5
	cbz	r0, .LBB18_3
	b	.LBB18_2
.LBB18_2:
.Ltmp163:
	.loc	2 447 5                         @ rt-thread/components/net/lwip-2.0.2/src/arch/sys_arch.c:447:5
	movw	r0, :lower16:.L.str.5
	movt	r0, :upper16:.L.str.5
	movw	r1, :lower16:.L__FUNCTION__.sys_mbox_free
	movt	r1, :upper16:.L__FUNCTION__.sys_mbox_free
	movw	r2, #447
	bl	rt_assert_handler
.Ltmp164:
	.loc	2 447 5                         @ rt-thread/components/net/lwip-2.0.2/src/arch/sys_arch.c:447:5
	b	.LBB18_3
.Ltmp165:
.LBB18_3:
	.loc	2 447 5                         @ rt-thread/components/net/lwip-2.0.2/src/arch/sys_arch.c:447:5
	ldr	r0, [sp]
	bl	rt_hw_interrupt_enable
	b	.LBB18_4
.Ltmp166:
.LBB18_4:
	.loc	2 449 19 is_stmt 1              @ rt-thread/components/net/lwip-2.0.2/src/arch/sys_arch.c:449:19
	ldr	r0, [sp, #4]
	.loc	2 449 18 is_stmt 0              @ rt-thread/components/net/lwip-2.0.2/src/arch/sys_arch.c:449:18
	ldr	r0, [r0]
	.loc	2 449 5                         @ rt-thread/components/net/lwip-2.0.2/src/arch/sys_arch.c:449:5
	bl	rt_mb_delete
	.loc	2 451 5 is_stmt 1               @ rt-thread/components/net/lwip-2.0.2/src/arch/sys_arch.c:451:5
	add	sp, #8
	pop	{r7, pc}
.Ltmp167:
.Lfunc_end18:
	.size	sys_mbox_free, .Lfunc_end18-sys_mbox_free
	.cfi_endproc
	.cantunwind
	.fnend
                                        @ -- End function
	.section	.text.sys_mbox_post,"ax",%progbits
	.hidden	sys_mbox_post                   @ -- Begin function sys_mbox_post
	.globl	sys_mbox_post
	.p2align	3
	.type	sys_mbox_post,%function
	.code	16                              @ @sys_mbox_post
	.thumb_func
sys_mbox_post:
.Lfunc_begin19:
	.loc	2 460 0                         @ rt-thread/components/net/lwip-2.0.2/src/arch/sys_arch.c:460:0
	.fnstart
	.cfi_startproc
@ %bb.0:
	.save	{r7, lr}
	push	{r7, lr}
	.cfi_def_cfa_offset 8
	.cfi_offset lr, -4
	.cfi_offset r7, -8
	.pad	#16
	sub	sp, #16
	.cfi_def_cfa_offset 24
	str	r0, [sp, #12]
	str	r1, [sp, #8]
.Ltmp168:
	.loc	2 461 5 prologue_end            @ rt-thread/components/net/lwip-2.0.2/src/arch/sys_arch.c:461:5
	b	.LBB19_1
.LBB19_1:
.Ltmp169:
	.loc	2 461 5 is_stmt 0               @ rt-thread/components/net/lwip-2.0.2/src/arch/sys_arch.c:461:5
	bl	rt_hw_interrupt_disable
	str	r0, [sp, #4]
.Ltmp170:
	.loc	2 461 5                         @ rt-thread/components/net/lwip-2.0.2/src/arch/sys_arch.c:461:5
	bl	rt_interrupt_get_nest
.Ltmp171:
	.loc	2 461 5                         @ rt-thread/components/net/lwip-2.0.2/src/arch/sys_arch.c:461:5
	cbz	r0, .LBB19_3
	b	.LBB19_2
.LBB19_2:
.Ltmp172:
	.loc	2 461 5                         @ rt-thread/components/net/lwip-2.0.2/src/arch/sys_arch.c:461:5
	movw	r0, :lower16:.L.str.5
	movt	r0, :upper16:.L.str.5
	movw	r1, :lower16:.L__FUNCTION__.sys_mbox_post
	movt	r1, :upper16:.L__FUNCTION__.sys_mbox_post
	movw	r2, #461
	bl	rt_assert_handler
.Ltmp173:
	.loc	2 461 5                         @ rt-thread/components/net/lwip-2.0.2/src/arch/sys_arch.c:461:5
	b	.LBB19_3
.Ltmp174:
.LBB19_3:
	.loc	2 461 5                         @ rt-thread/components/net/lwip-2.0.2/src/arch/sys_arch.c:461:5
	ldr	r0, [sp, #4]
	bl	rt_hw_interrupt_enable
	b	.LBB19_4
.Ltmp175:
.LBB19_4:
	.loc	2 463 22 is_stmt 1              @ rt-thread/components/net/lwip-2.0.2/src/arch/sys_arch.c:463:22
	ldr	r0, [sp, #12]
	.loc	2 463 21 is_stmt 0              @ rt-thread/components/net/lwip-2.0.2/src/arch/sys_arch.c:463:21
	ldr	r0, [r0]
	.loc	2 463 41                        @ rt-thread/components/net/lwip-2.0.2/src/arch/sys_arch.c:463:41
	ldr	r1, [sp, #8]
	mov.w	r2, #-1
	.loc	2 463 5                         @ rt-thread/components/net/lwip-2.0.2/src/arch/sys_arch.c:463:5
	bl	rt_mb_send_wait
	.loc	2 465 5 is_stmt 1               @ rt-thread/components/net/lwip-2.0.2/src/arch/sys_arch.c:465:5
	add	sp, #16
	pop	{r7, pc}
.Ltmp176:
.Lfunc_end19:
	.size	sys_mbox_post, .Lfunc_end19-sys_mbox_post
	.cfi_endproc
	.cantunwind
	.fnend
                                        @ -- End function
	.section	.text.sys_mbox_trypost,"ax",%progbits
	.hidden	sys_mbox_trypost                @ -- Begin function sys_mbox_trypost
	.globl	sys_mbox_trypost
	.p2align	3
	.type	sys_mbox_trypost,%function
	.code	16                              @ @sys_mbox_trypost
	.thumb_func
sys_mbox_trypost:
.Lfunc_begin20:
	.loc	2 474 0                         @ rt-thread/components/net/lwip-2.0.2/src/arch/sys_arch.c:474:0
	.fnstart
	.cfi_startproc
@ %bb.0:
	.save	{r7, lr}
	push	{r7, lr}
	.cfi_def_cfa_offset 8
	.cfi_offset lr, -4
	.cfi_offset r7, -8
	.pad	#16
	sub	sp, #16
	.cfi_def_cfa_offset 24
	str	r0, [sp, #8]
	str	r1, [sp, #4]
.Ltmp177:
	.loc	2 475 21 prologue_end           @ rt-thread/components/net/lwip-2.0.2/src/arch/sys_arch.c:475:21
	ldr	r0, [sp, #8]
	.loc	2 475 20 is_stmt 0              @ rt-thread/components/net/lwip-2.0.2/src/arch/sys_arch.c:475:20
	ldr	r0, [r0]
	.loc	2 475 40                        @ rt-thread/components/net/lwip-2.0.2/src/arch/sys_arch.c:475:40
	ldr	r1, [sp, #4]
	.loc	2 475 9                         @ rt-thread/components/net/lwip-2.0.2/src/arch/sys_arch.c:475:9
	bl	rt_mb_send
.Ltmp178:
	.loc	2 475 9                         @ rt-thread/components/net/lwip-2.0.2/src/arch/sys_arch.c:475:9
	cbnz	r0, .LBB20_2
	b	.LBB20_1
.LBB20_1:
	.loc	2 0 9                           @ rt-thread/components/net/lwip-2.0.2/src/arch/sys_arch.c:0:9
	movs	r0, #0
.Ltmp179:
	.loc	2 476 9 is_stmt 1               @ rt-thread/components/net/lwip-2.0.2/src/arch/sys_arch.c:476:9
	strb.w	r0, [sp, #15]
	b	.LBB20_3
.Ltmp180:
.LBB20_2:
	.loc	2 0 9 is_stmt 0                 @ rt-thread/components/net/lwip-2.0.2/src/arch/sys_arch.c:0:9
	movs	r0, #255
	.loc	2 478 5 is_stmt 1               @ rt-thread/components/net/lwip-2.0.2/src/arch/sys_arch.c:478:5
	strb.w	r0, [sp, #15]
	b	.LBB20_3
.LBB20_3:
	.loc	2 479 1                         @ rt-thread/components/net/lwip-2.0.2/src/arch/sys_arch.c:479:1
	ldrsb.w	r0, [sp, #15]
	add	sp, #16
	pop	{r7, pc}
.Ltmp181:
.Lfunc_end20:
	.size	sys_mbox_trypost, .Lfunc_end20-sys_mbox_trypost
	.cfi_endproc
	.cantunwind
	.fnend
                                        @ -- End function
	.section	.text.sys_arch_mbox_fetch,"ax",%progbits
	.hidden	sys_arch_mbox_fetch             @ -- Begin function sys_arch_mbox_fetch
	.globl	sys_arch_mbox_fetch
	.p2align	3
	.type	sys_arch_mbox_fetch,%function
	.code	16                              @ @sys_arch_mbox_fetch
	.thumb_func
sys_arch_mbox_fetch:
.Lfunc_begin21:
	.loc	2 490 0                         @ rt-thread/components/net/lwip-2.0.2/src/arch/sys_arch.c:490:0
	.fnstart
	.cfi_startproc
@ %bb.0:
	.save	{r7, lr}
	push	{r7, lr}
	.cfi_def_cfa_offset 8
	.cfi_offset lr, -4
	.cfi_offset r7, -8
	.pad	#32
	sub	sp, #32
	.cfi_def_cfa_offset 40
	str	r0, [sp, #24]
	str	r1, [sp, #20]
	str	r2, [sp, #16]
.Ltmp182:
	.loc	2 495 5 prologue_end            @ rt-thread/components/net/lwip-2.0.2/src/arch/sys_arch.c:495:5
	b	.LBB21_1
.LBB21_1:
.Ltmp183:
	.loc	2 495 5 is_stmt 0               @ rt-thread/components/net/lwip-2.0.2/src/arch/sys_arch.c:495:5
	bl	rt_hw_interrupt_disable
	str	r0, [sp]
.Ltmp184:
	.loc	2 495 5                         @ rt-thread/components/net/lwip-2.0.2/src/arch/sys_arch.c:495:5
	bl	rt_interrupt_get_nest
.Ltmp185:
	.loc	2 495 5                         @ rt-thread/components/net/lwip-2.0.2/src/arch/sys_arch.c:495:5
	cbz	r0, .LBB21_3
	b	.LBB21_2
.LBB21_2:
.Ltmp186:
	.loc	2 495 5                         @ rt-thread/components/net/lwip-2.0.2/src/arch/sys_arch.c:495:5
	movw	r0, :lower16:.L.str.5
	movt	r0, :upper16:.L.str.5
	movw	r1, :lower16:.L__FUNCTION__.sys_arch_mbox_fetch
	movt	r1, :upper16:.L__FUNCTION__.sys_arch_mbox_fetch
	movw	r2, #495
	bl	rt_assert_handler
.Ltmp187:
	.loc	2 495 5                         @ rt-thread/components/net/lwip-2.0.2/src/arch/sys_arch.c:495:5
	b	.LBB21_3
.Ltmp188:
.LBB21_3:
	.loc	2 495 5                         @ rt-thread/components/net/lwip-2.0.2/src/arch/sys_arch.c:495:5
	ldr	r0, [sp]
	bl	rt_hw_interrupt_enable
	b	.LBB21_4
.Ltmp189:
.LBB21_4:
	.loc	2 498 12 is_stmt 1              @ rt-thread/components/net/lwip-2.0.2/src/arch/sys_arch.c:498:12
	bl	rt_tick_get
	.loc	2 498 10 is_stmt 0              @ rt-thread/components/net/lwip-2.0.2/src/arch/sys_arch.c:498:10
	str	r0, [sp, #4]
.Ltmp190:
	.loc	2 500 8 is_stmt 1               @ rt-thread/components/net/lwip-2.0.2/src/arch/sys_arch.c:500:8
	ldr	r0, [sp, #16]
.Ltmp191:
	.loc	2 500 8 is_stmt 0               @ rt-thread/components/net/lwip-2.0.2/src/arch/sys_arch.c:500:8
	cbnz	r0, .LBB21_6
	b	.LBB21_5
.LBB21_5:
	.loc	2 0 8                           @ rt-thread/components/net/lwip-2.0.2/src/arch/sys_arch.c:0:8
	mov.w	r0, #-1
.Ltmp192:
	.loc	2 501 11 is_stmt 1              @ rt-thread/components/net/lwip-2.0.2/src/arch/sys_arch.c:501:11
	str	r0, [sp, #8]
	.loc	2 501 9 is_stmt 0               @ rt-thread/components/net/lwip-2.0.2/src/arch/sys_arch.c:501:9
	b	.LBB21_10
.LBB21_6:
.Ltmp193:
	.loc	2 505 13 is_stmt 1              @ rt-thread/components/net/lwip-2.0.2/src/arch/sys_arch.c:505:13
	ldr	r0, [sp, #16]
.Ltmp194:
	.loc	2 505 13 is_stmt 0              @ rt-thread/components/net/lwip-2.0.2/src/arch/sys_arch.c:505:13
	cbnz	r0, .LBB21_8
	b	.LBB21_7
.LBB21_7:
	.loc	2 0 13                          @ rt-thread/components/net/lwip-2.0.2/src/arch/sys_arch.c:0:13
	movs	r0, #1
.Ltmp195:
	.loc	2 506 15 is_stmt 1              @ rt-thread/components/net/lwip-2.0.2/src/arch/sys_arch.c:506:15
	str	r0, [sp, #8]
	.loc	2 506 13 is_stmt 0              @ rt-thread/components/net/lwip-2.0.2/src/arch/sys_arch.c:506:13
	b	.LBB21_9
.LBB21_8:
	.loc	2 508 17 is_stmt 1              @ rt-thread/components/net/lwip-2.0.2/src/arch/sys_arch.c:508:17
	ldr	r0, [sp, #16]
	.loc	2 508 15 is_stmt 0              @ rt-thread/components/net/lwip-2.0.2/src/arch/sys_arch.c:508:15
	str	r0, [sp, #8]
	b	.LBB21_9
.Ltmp196:
.LBB21_9:
	.loc	2 0 15                          @ rt-thread/components/net/lwip-2.0.2/src/arch/sys_arch.c:0:15
	b	.LBB21_10
.LBB21_10:
	.loc	2 511 23 is_stmt 1              @ rt-thread/components/net/lwip-2.0.2/src/arch/sys_arch.c:511:23
	ldr	r0, [sp, #24]
	.loc	2 511 22 is_stmt 0              @ rt-thread/components/net/lwip-2.0.2/src/arch/sys_arch.c:511:22
	ldr	r0, [r0]
	.loc	2 511 43                        @ rt-thread/components/net/lwip-2.0.2/src/arch/sys_arch.c:511:43
	ldr	r1, [sp, #20]
	.loc	2 511 48                        @ rt-thread/components/net/lwip-2.0.2/src/arch/sys_arch.c:511:48
	ldr	r2, [sp, #8]
	.loc	2 511 11                        @ rt-thread/components/net/lwip-2.0.2/src/arch/sys_arch.c:511:11
	bl	rt_mb_recv
	.loc	2 511 9                         @ rt-thread/components/net/lwip-2.0.2/src/arch/sys_arch.c:511:9
	str	r0, [sp, #12]
.Ltmp197:
	.loc	2 512 8 is_stmt 1               @ rt-thread/components/net/lwip-2.0.2/src/arch/sys_arch.c:512:8
	ldr	r0, [sp, #12]
.Ltmp198:
	.loc	2 512 8 is_stmt 0               @ rt-thread/components/net/lwip-2.0.2/src/arch/sys_arch.c:512:8
	cbz	r0, .LBB21_12
	b	.LBB21_11
.LBB21_11:
	.loc	2 0 8                           @ rt-thread/components/net/lwip-2.0.2/src/arch/sys_arch.c:0:8
	mov.w	r0, #-1
.Ltmp199:
	.loc	2 514 9 is_stmt 1               @ rt-thread/components/net/lwip-2.0.2/src/arch/sys_arch.c:514:9
	str	r0, [sp, #28]
	b	.LBB21_15
.Ltmp200:
.LBB21_12:
	.loc	2 518 12                        @ rt-thread/components/net/lwip-2.0.2/src/arch/sys_arch.c:518:12
	bl	rt_tick_get
	.loc	2 518 28 is_stmt 0              @ rt-thread/components/net/lwip-2.0.2/src/arch/sys_arch.c:518:28
	ldr	r1, [sp, #4]
	.loc	2 518 26                        @ rt-thread/components/net/lwip-2.0.2/src/arch/sys_arch.c:518:26
	subs	r0, r0, r1
	.loc	2 518 10                        @ rt-thread/components/net/lwip-2.0.2/src/arch/sys_arch.c:518:10
	str	r0, [sp, #4]
	.loc	2 521 12 is_stmt 1              @ rt-thread/components/net/lwip-2.0.2/src/arch/sys_arch.c:521:12
	ldr	r0, [sp, #4]
	.loc	2 522 9                         @ rt-thread/components/net/lwip-2.0.2/src/arch/sys_arch.c:522:9
	cbnz	r0, .LBB21_14
	b	.LBB21_13
.LBB21_13:
	.loc	2 0 9 is_stmt 0                 @ rt-thread/components/net/lwip-2.0.2/src/arch/sys_arch.c:0:9
	movs	r0, #1
.Ltmp201:
	.loc	2 523 14 is_stmt 1              @ rt-thread/components/net/lwip-2.0.2/src/arch/sys_arch.c:523:14
	str	r0, [sp, #4]
	.loc	2 523 9 is_stmt 0               @ rt-thread/components/net/lwip-2.0.2/src/arch/sys_arch.c:523:9
	b	.LBB21_14
.Ltmp202:
.LBB21_14:
	.loc	2 525 12 is_stmt 1              @ rt-thread/components/net/lwip-2.0.2/src/arch/sys_arch.c:525:12
	ldr	r0, [sp, #4]
	.loc	2 525 5 is_stmt 0               @ rt-thread/components/net/lwip-2.0.2/src/arch/sys_arch.c:525:5
	str	r0, [sp, #28]
	b	.LBB21_15
.LBB21_15:
	.loc	2 526 1 is_stmt 1               @ rt-thread/components/net/lwip-2.0.2/src/arch/sys_arch.c:526:1
	ldr	r0, [sp, #28]
	add	sp, #32
	pop	{r7, pc}
.Ltmp203:
.Lfunc_end21:
	.size	sys_arch_mbox_fetch, .Lfunc_end21-sys_arch_mbox_fetch
	.cfi_endproc
	.cantunwind
	.fnend
                                        @ -- End function
	.section	.text.sys_arch_mbox_tryfetch,"ax",%progbits
	.hidden	sys_arch_mbox_tryfetch          @ -- Begin function sys_arch_mbox_tryfetch
	.globl	sys_arch_mbox_tryfetch
	.p2align	3
	.type	sys_arch_mbox_tryfetch,%function
	.code	16                              @ @sys_arch_mbox_tryfetch
	.thumb_func
sys_arch_mbox_tryfetch:
.Lfunc_begin22:
	.loc	2 536 0                         @ rt-thread/components/net/lwip-2.0.2/src/arch/sys_arch.c:536:0
	.fnstart
	.cfi_startproc
@ %bb.0:
	.save	{r7, lr}
	push	{r7, lr}
	.cfi_def_cfa_offset 8
	.cfi_offset lr, -4
	.cfi_offset r7, -8
	.pad	#16
	sub	sp, #16
	.cfi_def_cfa_offset 24
	str	r0, [sp, #8]
	str	r1, [sp, #4]
.Ltmp204:
	.loc	2 539 23 prologue_end           @ rt-thread/components/net/lwip-2.0.2/src/arch/sys_arch.c:539:23
	ldr	r0, [sp, #8]
	.loc	2 539 22 is_stmt 0              @ rt-thread/components/net/lwip-2.0.2/src/arch/sys_arch.c:539:22
	ldr	r0, [r0]
	.loc	2 539 43                        @ rt-thread/components/net/lwip-2.0.2/src/arch/sys_arch.c:539:43
	ldr	r1, [sp, #4]
	movs	r2, #0
	.loc	2 539 11                        @ rt-thread/components/net/lwip-2.0.2/src/arch/sys_arch.c:539:11
	bl	rt_mb_recv
	.loc	2 539 9                         @ rt-thread/components/net/lwip-2.0.2/src/arch/sys_arch.c:539:9
	str	r0, [sp]
.Ltmp205:
	.loc	2 541 8 is_stmt 1               @ rt-thread/components/net/lwip-2.0.2/src/arch/sys_arch.c:541:8
	ldr	r0, [sp]
.Ltmp206:
	.loc	2 541 8 is_stmt 0               @ rt-thread/components/net/lwip-2.0.2/src/arch/sys_arch.c:541:8
	adds	r0, #2
	cbnz	r0, .LBB22_2
	b	.LBB22_1
.LBB22_1:
	.loc	2 0 8                           @ rt-thread/components/net/lwip-2.0.2/src/arch/sys_arch.c:0:8
	mov.w	r0, #-1
.Ltmp207:
	.loc	2 542 9 is_stmt 1               @ rt-thread/components/net/lwip-2.0.2/src/arch/sys_arch.c:542:9
	str	r0, [sp, #12]
	b	.LBB22_6
.LBB22_2:
.Ltmp208:
	.loc	2 545 13                        @ rt-thread/components/net/lwip-2.0.2/src/arch/sys_arch.c:545:13
	ldr	r0, [sp]
.Ltmp209:
	.loc	2 545 13 is_stmt 0              @ rt-thread/components/net/lwip-2.0.2/src/arch/sys_arch.c:545:13
	cbnz	r0, .LBB22_4
	b	.LBB22_3
.LBB22_3:
	.loc	2 0 13                          @ rt-thread/components/net/lwip-2.0.2/src/arch/sys_arch.c:0:13
	movs	r0, #1
.Ltmp210:
	.loc	2 546 17 is_stmt 1              @ rt-thread/components/net/lwip-2.0.2/src/arch/sys_arch.c:546:17
	str	r0, [sp]
	.loc	2 546 13 is_stmt 0              @ rt-thread/components/net/lwip-2.0.2/src/arch/sys_arch.c:546:13
	b	.LBB22_4
.Ltmp211:
.LBB22_4:
	.loc	2 0 13                          @ rt-thread/components/net/lwip-2.0.2/src/arch/sys_arch.c:0:13
	b	.LBB22_5
.LBB22_5:
	.loc	2 549 12 is_stmt 1              @ rt-thread/components/net/lwip-2.0.2/src/arch/sys_arch.c:549:12
	ldr	r0, [sp]
	.loc	2 549 5 is_stmt 0               @ rt-thread/components/net/lwip-2.0.2/src/arch/sys_arch.c:549:5
	str	r0, [sp, #12]
	b	.LBB22_6
.LBB22_6:
	.loc	2 550 1 is_stmt 1               @ rt-thread/components/net/lwip-2.0.2/src/arch/sys_arch.c:550:1
	ldr	r0, [sp, #12]
	add	sp, #16
	pop	{r7, pc}
.Ltmp212:
.Lfunc_end22:
	.size	sys_arch_mbox_tryfetch, .Lfunc_end22-sys_arch_mbox_tryfetch
	.cfi_endproc
	.cantunwind
	.fnend
                                        @ -- End function
	.section	.text.sys_mbox_valid,"ax",%progbits
	.hidden	sys_mbox_valid                  @ -- Begin function sys_mbox_valid
	.globl	sys_mbox_valid
	.p2align	3
	.type	sys_mbox_valid,%function
	.code	16                              @ @sys_mbox_valid
	.thumb_func
sys_mbox_valid:
.Lfunc_begin23:
	.loc	2 557 0                         @ rt-thread/components/net/lwip-2.0.2/src/arch/sys_arch.c:557:0
	.fnstart
	.cfi_startproc
@ %bb.0:
	.pad	#4
	sub	sp, #4
	.cfi_def_cfa_offset 4
	str	r0, [sp]
.Ltmp213:
	.loc	2 558 19 prologue_end           @ rt-thread/components/net/lwip-2.0.2/src/arch/sys_arch.c:558:19
	ldr	r0, [sp]
	.loc	2 558 18 is_stmt 0              @ rt-thread/components/net/lwip-2.0.2/src/arch/sys_arch.c:558:18
	ldr	r0, [r0]
	.loc	2 558 5                         @ rt-thread/components/net/lwip-2.0.2/src/arch/sys_arch.c:558:5
	add	sp, #4
	bx	lr
.Ltmp214:
.Lfunc_end23:
	.size	sys_mbox_valid, .Lfunc_end23-sys_mbox_valid
	.cfi_endproc
	.cantunwind
	.fnend
                                        @ -- End function
	.section	.text.sys_mbox_set_invalid,"ax",%progbits
	.hidden	sys_mbox_set_invalid            @ -- Begin function sys_mbox_set_invalid
	.globl	sys_mbox_set_invalid
	.p2align	3
	.type	sys_mbox_set_invalid,%function
	.code	16                              @ @sys_mbox_set_invalid
	.thumb_func
sys_mbox_set_invalid:
.Lfunc_begin24:
	.loc	2 566 0 is_stmt 1               @ rt-thread/components/net/lwip-2.0.2/src/arch/sys_arch.c:566:0
	.fnstart
	.cfi_startproc
@ %bb.0:
	.pad	#4
	sub	sp, #4
	.cfi_def_cfa_offset 4
	str	r0, [sp]
.Ltmp215:
	.loc	2 567 6 prologue_end            @ rt-thread/components/net/lwip-2.0.2/src/arch/sys_arch.c:567:6
	ldr	r1, [sp]
	movs	r0, #0
	.loc	2 567 11 is_stmt 0              @ rt-thread/components/net/lwip-2.0.2/src/arch/sys_arch.c:567:11
	str	r0, [r1]
	.loc	2 568 1 is_stmt 1               @ rt-thread/components/net/lwip-2.0.2/src/arch/sys_arch.c:568:1
	add	sp, #4
	bx	lr
.Ltmp216:
.Lfunc_end24:
	.size	sys_mbox_set_invalid, .Lfunc_end24-sys_mbox_set_invalid
	.cfi_endproc
	.cantunwind
	.fnend
                                        @ -- End function
	.section	.text.sys_thread_new,"ax",%progbits
	.hidden	sys_thread_new                  @ -- Begin function sys_thread_new
	.globl	sys_thread_new
	.p2align	3
	.type	sys_thread_new,%function
	.code	16                              @ @sys_thread_new
	.thumb_func
sys_thread_new:
.Lfunc_begin25:
	.loc	2 583 0                         @ rt-thread/components/net/lwip-2.0.2/src/arch/sys_arch.c:583:0
	.fnstart
	.cfi_startproc
@ %bb.0:
	.save	{r4, lr}
	push	{r4, lr}
	.cfi_def_cfa_offset 8
	.cfi_offset lr, -4
	.cfi_offset r4, -8
	.pad	#32
	sub	sp, #32
	.cfi_def_cfa_offset 40
	ldr.w	r12, [sp, #40]
	str	r0, [sp, #28]
	str	r1, [sp, #24]
	str	r2, [sp, #20]
	str	r3, [sp, #16]
.Ltmp217:
	.loc	2 586 5 prologue_end            @ rt-thread/components/net/lwip-2.0.2/src/arch/sys_arch.c:586:5
	b	.LBB25_1
.LBB25_1:
.Ltmp218:
	.loc	2 586 5 is_stmt 0               @ rt-thread/components/net/lwip-2.0.2/src/arch/sys_arch.c:586:5
	bl	rt_hw_interrupt_disable
	str	r0, [sp, #8]
.Ltmp219:
	.loc	2 586 5                         @ rt-thread/components/net/lwip-2.0.2/src/arch/sys_arch.c:586:5
	bl	rt_interrupt_get_nest
.Ltmp220:
	.loc	2 586 5                         @ rt-thread/components/net/lwip-2.0.2/src/arch/sys_arch.c:586:5
	cbz	r0, .LBB25_3
	b	.LBB25_2
.LBB25_2:
.Ltmp221:
	.loc	2 586 5                         @ rt-thread/components/net/lwip-2.0.2/src/arch/sys_arch.c:586:5
	movw	r0, :lower16:.L.str.5
	movt	r0, :upper16:.L.str.5
	movw	r1, :lower16:.L__FUNCTION__.sys_thread_new
	movt	r1, :upper16:.L__FUNCTION__.sys_thread_new
	movw	r2, #586
	bl	rt_assert_handler
.Ltmp222:
	.loc	2 586 5                         @ rt-thread/components/net/lwip-2.0.2/src/arch/sys_arch.c:586:5
	b	.LBB25_3
.Ltmp223:
.LBB25_3:
	.loc	2 586 5                         @ rt-thread/components/net/lwip-2.0.2/src/arch/sys_arch.c:586:5
	ldr	r0, [sp, #8]
	bl	rt_hw_interrupt_enable
	b	.LBB25_4
.Ltmp224:
.LBB25_4:
	.loc	2 589 26 is_stmt 1              @ rt-thread/components/net/lwip-2.0.2/src/arch/sys_arch.c:589:26
	ldr	r0, [sp, #28]
	.loc	2 589 32 is_stmt 0              @ rt-thread/components/net/lwip-2.0.2/src/arch/sys_arch.c:589:32
	ldr	r1, [sp, #24]
	.loc	2 589 40                        @ rt-thread/components/net/lwip-2.0.2/src/arch/sys_arch.c:589:40
	ldr	r2, [sp, #20]
	.loc	2 589 45                        @ rt-thread/components/net/lwip-2.0.2/src/arch/sys_arch.c:589:45
	ldr	r3, [sp, #16]
	.loc	2 589 56                        @ rt-thread/components/net/lwip-2.0.2/src/arch/sys_arch.c:589:56
	ldrb.w	r12, [sp, #40]
	.loc	2 589 9                         @ rt-thread/components/net/lwip-2.0.2/src/arch/sys_arch.c:589:9
	mov	lr, sp
	movs	r4, #20
	str.w	r4, [lr, #4]
	str.w	r12, [lr]
	bl	rt_thread_create
	.loc	2 589 7                         @ rt-thread/components/net/lwip-2.0.2/src/arch/sys_arch.c:589:7
	str	r0, [sp, #12]
.Ltmp225:
	.loc	2 590 5 is_stmt 1               @ rt-thread/components/net/lwip-2.0.2/src/arch/sys_arch.c:590:5
	ldr	r0, [sp, #12]
.Ltmp226:
	.loc	2 590 5 is_stmt 0               @ rt-thread/components/net/lwip-2.0.2/src/arch/sys_arch.c:590:5
	cbnz	r0, .LBB25_6
	b	.LBB25_5
.LBB25_5:
.Ltmp227:
	.loc	2 590 5                         @ rt-thread/components/net/lwip-2.0.2/src/arch/sys_arch.c:590:5
	movw	r0, :lower16:.L.str.10
	movt	r0, :upper16:.L.str.10
	movw	r1, :lower16:.L__FUNCTION__.sys_thread_new
	movt	r1, :upper16:.L__FUNCTION__.sys_thread_new
	movw	r2, #590
	bl	rt_assert_handler
	b	.LBB25_6
.Ltmp228:
.LBB25_6:
	.loc	2 593 23 is_stmt 1              @ rt-thread/components/net/lwip-2.0.2/src/arch/sys_arch.c:593:23
	ldr	r0, [sp, #12]
	.loc	2 593 5 is_stmt 0               @ rt-thread/components/net/lwip-2.0.2/src/arch/sys_arch.c:593:5
	bl	rt_thread_startup
	.loc	2 595 12 is_stmt 1              @ rt-thread/components/net/lwip-2.0.2/src/arch/sys_arch.c:595:12
	ldr	r0, [sp, #12]
	.loc	2 595 5 is_stmt 0               @ rt-thread/components/net/lwip-2.0.2/src/arch/sys_arch.c:595:5
	add	sp, #32
	pop	{r4, pc}
.Ltmp229:
.Lfunc_end25:
	.size	sys_thread_new, .Lfunc_end25-sys_thread_new
	.cfi_endproc
	.cantunwind
	.fnend
                                        @ -- End function
	.section	.text.sys_arch_protect,"ax",%progbits
	.hidden	sys_arch_protect                @ -- Begin function sys_arch_protect
	.globl	sys_arch_protect
	.p2align	3
	.type	sys_arch_protect,%function
	.code	16                              @ @sys_arch_protect
	.thumb_func
sys_arch_protect:
.Lfunc_begin26:
	.loc	2 599 0 is_stmt 1               @ rt-thread/components/net/lwip-2.0.2/src/arch/sys_arch.c:599:0
	.fnstart
	.cfi_startproc
@ %bb.0:
	.save	{r7, lr}
	push	{r7, lr}
	.cfi_def_cfa_offset 8
	.cfi_offset lr, -4
	.cfi_offset r7, -8
	.pad	#8
	sub	sp, #8
	.cfi_def_cfa_offset 16
.Ltmp230:
	.loc	2 603 13 prologue_end           @ rt-thread/components/net/lwip-2.0.2/src/arch/sys_arch.c:603:13
	bl	rt_hw_interrupt_disable
	.loc	2 603 11 is_stmt 0              @ rt-thread/components/net/lwip-2.0.2/src/arch/sys_arch.c:603:11
	str	r0, [sp, #4]
	.loc	2 605 12 is_stmt 1              @ rt-thread/components/net/lwip-2.0.2/src/arch/sys_arch.c:605:12
	ldr	r0, [sp, #4]
	.loc	2 605 5 is_stmt 0               @ rt-thread/components/net/lwip-2.0.2/src/arch/sys_arch.c:605:5
	add	sp, #8
	pop	{r7, pc}
.Ltmp231:
.Lfunc_end26:
	.size	sys_arch_protect, .Lfunc_end26-sys_arch_protect
	.cfi_endproc
	.cantunwind
	.fnend
                                        @ -- End function
	.section	.text.sys_arch_unprotect,"ax",%progbits
	.hidden	sys_arch_unprotect              @ -- Begin function sys_arch_unprotect
	.globl	sys_arch_unprotect
	.p2align	3
	.type	sys_arch_unprotect,%function
	.code	16                              @ @sys_arch_unprotect
	.thumb_func
sys_arch_unprotect:
.Lfunc_begin27:
	.loc	2 609 0 is_stmt 1               @ rt-thread/components/net/lwip-2.0.2/src/arch/sys_arch.c:609:0
	.fnstart
	.cfi_startproc
@ %bb.0:
	.save	{r7, lr}
	push	{r7, lr}
	.cfi_def_cfa_offset 8
	.cfi_offset lr, -4
	.cfi_offset r7, -8
	.pad	#8
	sub	sp, #8
	.cfi_def_cfa_offset 16
	str	r0, [sp, #4]
.Ltmp232:
	.loc	2 611 28 prologue_end           @ rt-thread/components/net/lwip-2.0.2/src/arch/sys_arch.c:611:28
	ldr	r0, [sp, #4]
	.loc	2 611 5 is_stmt 0               @ rt-thread/components/net/lwip-2.0.2/src/arch/sys_arch.c:611:5
	bl	rt_hw_interrupt_enable
	.loc	2 613 5 is_stmt 1               @ rt-thread/components/net/lwip-2.0.2/src/arch/sys_arch.c:613:5
	add	sp, #8
	pop	{r7, pc}
.Ltmp233:
.Lfunc_end27:
	.size	sys_arch_unprotect, .Lfunc_end27-sys_arch_unprotect
	.cfi_endproc
	.cantunwind
	.fnend
                                        @ -- End function
	.section	.text.sys_jiffies,"ax",%progbits
	.hidden	sys_jiffies                     @ -- Begin function sys_jiffies
	.globl	sys_jiffies
	.p2align	3
	.type	sys_jiffies,%function
	.code	16                              @ @sys_jiffies
	.thumb_func
sys_jiffies:
.Lfunc_begin28:
	.loc	2 624 0                         @ rt-thread/components/net/lwip-2.0.2/src/arch/sys_arch.c:624:0
	.fnstart
	.cfi_startproc
@ %bb.0:
	.save	{r7, lr}
	push	{r7, lr}
	.cfi_def_cfa_offset 8
	.cfi_offset lr, -4
	.cfi_offset r7, -8
.Ltmp234:
	.loc	2 625 12 prologue_end           @ rt-thread/components/net/lwip-2.0.2/src/arch/sys_arch.c:625:12
	bl	rt_tick_get
	.loc	2 625 5 is_stmt 0               @ rt-thread/components/net/lwip-2.0.2/src/arch/sys_arch.c:625:5
	pop	{r7, pc}
.Ltmp235:
.Lfunc_end28:
	.size	sys_jiffies, .Lfunc_end28-sys_jiffies
	.cfi_endproc
	.cantunwind
	.fnend
                                        @ -- End function
	.section	.text.sys_now,"ax",%progbits
	.hidden	sys_now                         @ -- Begin function sys_now
	.globl	sys_now
	.p2align	3
	.type	sys_now,%function
	.code	16                              @ @sys_now
	.thumb_func
sys_now:
.Lfunc_begin29:
	.loc	2 629 0 is_stmt 1               @ rt-thread/components/net/lwip-2.0.2/src/arch/sys_arch.c:629:0
	.fnstart
	.cfi_startproc
@ %bb.0:
	.save	{r7, lr}
	push	{r7, lr}
	.cfi_def_cfa_offset 8
	.cfi_offset lr, -4
	.cfi_offset r7, -8
.Ltmp236:
	.loc	2 630 12 prologue_end           @ rt-thread/components/net/lwip-2.0.2/src/arch/sys_arch.c:630:12
	bl	rt_tick_get
	.loc	2 630 5 is_stmt 0               @ rt-thread/components/net/lwip-2.0.2/src/arch/sys_arch.c:630:5
	pop	{r7, pc}
.Ltmp237:
.Lfunc_end29:
	.size	sys_now, .Lfunc_end29-sys_now
	.cfi_endproc
	.cantunwind
	.fnend
                                        @ -- End function
	.section	.text.mem_init,"ax",%progbits
	.hidden	mem_init                        @ -- Begin function mem_init
	.weak	mem_init
	.p2align	3
	.type	mem_init,%function
	.code	16                              @ @mem_init
	.thumb_func
mem_init:
.Lfunc_begin30:
	.loc	2 636 0 is_stmt 1               @ rt-thread/components/net/lwip-2.0.2/src/arch/sys_arch.c:636:0
	.fnstart
	.cfi_startproc
@ %bb.0:
	.loc	2 637 1 prologue_end            @ rt-thread/components/net/lwip-2.0.2/src/arch/sys_arch.c:637:1
	bx	lr
.Ltmp238:
.Lfunc_end30:
	.size	mem_init, .Lfunc_end30-mem_init
	.cfi_endproc
	.cantunwind
	.fnend
                                        @ -- End function
	.section	.text.mem_calloc,"ax",%progbits
	.hidden	mem_calloc                      @ -- Begin function mem_calloc
	.globl	mem_calloc
	.p2align	3
	.type	mem_calloc,%function
	.code	16                              @ @mem_calloc
	.thumb_func
mem_calloc:
.Lfunc_begin31:
	.loc	2 640 0                         @ rt-thread/components/net/lwip-2.0.2/src/arch/sys_arch.c:640:0
	.fnstart
	.cfi_startproc
@ %bb.0:
	.save	{r7, lr}
	push	{r7, lr}
	.cfi_def_cfa_offset 8
	.cfi_offset lr, -4
	.cfi_offset r7, -8
	.pad	#8
	sub	sp, #8
	.cfi_def_cfa_offset 16
                                        @ kill: def $r2 killed $r1
                                        @ kill: def $r2 killed $r0
	strh.w	r0, [sp, #6]
	strh.w	r1, [sp, #4]
.Ltmp239:
	.loc	2 641 22 prologue_end           @ rt-thread/components/net/lwip-2.0.2/src/arch/sys_arch.c:641:22
	ldrh.w	r0, [sp, #6]
	.loc	2 641 29 is_stmt 0              @ rt-thread/components/net/lwip-2.0.2/src/arch/sys_arch.c:641:29
	ldrh.w	r1, [sp, #4]
	.loc	2 641 12                        @ rt-thread/components/net/lwip-2.0.2/src/arch/sys_arch.c:641:12
	bl	rt_calloc
	.loc	2 641 5                         @ rt-thread/components/net/lwip-2.0.2/src/arch/sys_arch.c:641:5
	add	sp, #8
	pop	{r7, pc}
.Ltmp240:
.Lfunc_end31:
	.size	mem_calloc, .Lfunc_end31-mem_calloc
	.cfi_endproc
	.cantunwind
	.fnend
                                        @ -- End function
	.section	.text.mem_trim,"ax",%progbits
	.hidden	mem_trim                        @ -- Begin function mem_trim
	.globl	mem_trim
	.p2align	3
	.type	mem_trim,%function
	.code	16                              @ @mem_trim
	.thumb_func
mem_trim:
.Lfunc_begin32:
	.loc	2 645 0 is_stmt 1               @ rt-thread/components/net/lwip-2.0.2/src/arch/sys_arch.c:645:0
	.fnstart
	.cfi_startproc
@ %bb.0:
	.pad	#8
	sub	sp, #8
	.cfi_def_cfa_offset 8
                                        @ kill: def $r2 killed $r1
	str	r0, [sp, #4]
	strh.w	r1, [sp, #2]
.Ltmp241:
	.loc	2 648 12 prologue_end           @ rt-thread/components/net/lwip-2.0.2/src/arch/sys_arch.c:648:12
	ldr	r0, [sp, #4]
	.loc	2 648 5 is_stmt 0               @ rt-thread/components/net/lwip-2.0.2/src/arch/sys_arch.c:648:5
	add	sp, #8
	bx	lr
.Ltmp242:
.Lfunc_end32:
	.size	mem_trim, .Lfunc_end32-mem_trim
	.cfi_endproc
	.cantunwind
	.fnend
                                        @ -- End function
	.section	.text.mem_malloc,"ax",%progbits
	.hidden	mem_malloc                      @ -- Begin function mem_malloc
	.globl	mem_malloc
	.p2align	3
	.type	mem_malloc,%function
	.code	16                              @ @mem_malloc
	.thumb_func
mem_malloc:
.Lfunc_begin33:
	.loc	2 652 0 is_stmt 1               @ rt-thread/components/net/lwip-2.0.2/src/arch/sys_arch.c:652:0
	.fnstart
	.cfi_startproc
@ %bb.0:
	.save	{r7, lr}
	push	{r7, lr}
	.cfi_def_cfa_offset 8
	.cfi_offset lr, -4
	.cfi_offset r7, -8
	.pad	#8
	sub	sp, #8
	.cfi_def_cfa_offset 16
                                        @ kill: def $r1 killed $r0
	strh.w	r0, [sp, #6]
.Ltmp243:
	.loc	2 653 22 prologue_end           @ rt-thread/components/net/lwip-2.0.2/src/arch/sys_arch.c:653:22
	ldrh.w	r0, [sp, #6]
	.loc	2 653 12 is_stmt 0              @ rt-thread/components/net/lwip-2.0.2/src/arch/sys_arch.c:653:12
	bl	rt_malloc
	.loc	2 653 5                         @ rt-thread/components/net/lwip-2.0.2/src/arch/sys_arch.c:653:5
	add	sp, #8
	pop	{r7, pc}
.Ltmp244:
.Lfunc_end33:
	.size	mem_malloc, .Lfunc_end33-mem_malloc
	.cfi_endproc
	.cantunwind
	.fnend
                                        @ -- End function
	.section	.text.mem_free,"ax",%progbits
	.hidden	mem_free                        @ -- Begin function mem_free
	.globl	mem_free
	.p2align	3
	.type	mem_free,%function
	.code	16                              @ @mem_free
	.thumb_func
mem_free:
.Lfunc_begin34:
	.loc	2 657 0 is_stmt 1               @ rt-thread/components/net/lwip-2.0.2/src/arch/sys_arch.c:657:0
	.fnstart
	.cfi_startproc
@ %bb.0:
	.save	{r7, lr}
	push	{r7, lr}
	.cfi_def_cfa_offset 8
	.cfi_offset lr, -4
	.cfi_offset r7, -8
	.pad	#8
	sub	sp, #8
	.cfi_def_cfa_offset 16
	str	r0, [sp, #4]
.Ltmp245:
	.loc	2 658 13 prologue_end           @ rt-thread/components/net/lwip-2.0.2/src/arch/sys_arch.c:658:13
	ldr	r0, [sp, #4]
	.loc	2 658 5 is_stmt 0               @ rt-thread/components/net/lwip-2.0.2/src/arch/sys_arch.c:658:5
	bl	rt_free
	.loc	2 659 1 is_stmt 1               @ rt-thread/components/net/lwip-2.0.2/src/arch/sys_arch.c:659:1
	add	sp, #8
	pop	{r7, pc}
.Ltmp246:
.Lfunc_end34:
	.size	mem_free, .Lfunc_end34-mem_free
	.cfi_endproc
	.cantunwind
	.fnend
                                        @ -- End function
	.section	.text.netif_device_init,"ax",%progbits
	.p2align	3                               @ -- Begin function netif_device_init
	.type	netif_device_init,%function
	.code	16                              @ @netif_device_init
	.thumb_func
netif_device_init:
.Lfunc_begin35:
	.loc	2 59 0                          @ rt-thread/components/net/lwip-2.0.2/src/arch/sys_arch.c:59:0
	.fnstart
	.cfi_startproc
@ %bb.0:
	.save	{r7, lr}
	push	{r7, lr}
	.cfi_def_cfa_offset 8
	.cfi_offset lr, -4
	.cfi_offset r7, -8
	.pad	#16
	sub	sp, #16
	.cfi_def_cfa_offset 24
	str	r0, [sp, #8]
.Ltmp247:
	.loc	2 62 34 prologue_end            @ rt-thread/components/net/lwip-2.0.2/src/arch/sys_arch.c:62:34
	ldr	r0, [sp, #8]
	.loc	2 62 41 is_stmt 0               @ rt-thread/components/net/lwip-2.0.2/src/arch/sys_arch.c:62:41
	ldr	r0, [r0, #36]
	.loc	2 62 11                         @ rt-thread/components/net/lwip-2.0.2/src/arch/sys_arch.c:62:11
	str	r0, [sp, #4]
.Ltmp248:
	.loc	2 63 9 is_stmt 1                @ rt-thread/components/net/lwip-2.0.2/src/arch/sys_arch.c:63:9
	ldr	r0, [sp, #4]
.Ltmp249:
	.loc	2 63 9 is_stmt 0                @ rt-thread/components/net/lwip-2.0.2/src/arch/sys_arch.c:63:9
	cbz	r0, .LBB35_4
	b	.LBB35_1
.LBB35_1:
.Ltmp250:
	.loc	2 68 32 is_stmt 1               @ rt-thread/components/net/lwip-2.0.2/src/arch/sys_arch.c:68:32
	ldr	r0, [sp, #4]
	.loc	2 68 16 is_stmt 0               @ rt-thread/components/net/lwip-2.0.2/src/arch/sys_arch.c:68:16
	str	r0, [sp]
.Ltmp251:
	.loc	2 69 28 is_stmt 1               @ rt-thread/components/net/lwip-2.0.2/src/arch/sys_arch.c:69:28
	ldr	r0, [sp]
	.loc	2 69 13 is_stmt 0               @ rt-thread/components/net/lwip-2.0.2/src/arch/sys_arch.c:69:13
	bl	rt_device_init
.Ltmp252:
	.loc	2 69 13                         @ rt-thread/components/net/lwip-2.0.2/src/arch/sys_arch.c:69:13
	cbz	r0, .LBB35_3
	b	.LBB35_2
.LBB35_2:
	.loc	2 0 13                          @ rt-thread/components/net/lwip-2.0.2/src/arch/sys_arch.c:0:13
	movs	r0, #244
.Ltmp253:
	.loc	2 71 13 is_stmt 1               @ rt-thread/components/net/lwip-2.0.2/src/arch/sys_arch.c:71:13
	strb.w	r0, [sp, #15]
	b	.LBB35_5
.Ltmp254:
.LBB35_3:
	.loc	2 75 24                         @ rt-thread/components/net/lwip-2.0.2/src/arch/sys_arch.c:75:24
	ldr	r0, [sp, #4]
	.loc	2 75 31 is_stmt 0               @ rt-thread/components/net/lwip-2.0.2/src/arch/sys_arch.c:75:31
	ldrb.w	r0, [r0, #116]
	.loc	2 75 9                          @ rt-thread/components/net/lwip-2.0.2/src/arch/sys_arch.c:75:9
	ldr	r1, [sp, #8]
	.loc	2 75 22                         @ rt-thread/components/net/lwip-2.0.2/src/arch/sys_arch.c:75:22
	strb.w	r0, [r1, #65]
	movs	r0, #0
	.loc	2 77 9 is_stmt 1                @ rt-thread/components/net/lwip-2.0.2/src/arch/sys_arch.c:77:9
	strb.w	r0, [sp, #15]
	b	.LBB35_5
.Ltmp255:
.LBB35_4:
	.loc	2 0 9 is_stmt 0                 @ rt-thread/components/net/lwip-2.0.2/src/arch/sys_arch.c:0:9
	movs	r0, #244
	.loc	2 80 5 is_stmt 1                @ rt-thread/components/net/lwip-2.0.2/src/arch/sys_arch.c:80:5
	strb.w	r0, [sp, #15]
	b	.LBB35_5
.LBB35_5:
	.loc	2 81 1                          @ rt-thread/components/net/lwip-2.0.2/src/arch/sys_arch.c:81:1
	ldrsb.w	r0, [sp, #15]
	add	sp, #16
	pop	{r7, pc}
.Ltmp256:
.Lfunc_end35:
	.size	netif_device_init, .Lfunc_end35-netif_device_init
	.cfi_endproc
	.cantunwind
	.fnend
                                        @ -- End function
	.type	lwip_system_init.init_ok,%object @ @lwip_system_init.init_ok
	.section	.bss.lwip_system_init.init_ok,"aw",%nobits
	.p2align	2
lwip_system_init.init_ok:
	.long	0                               @ 0x0
	.size	lwip_system_init.init_ok, 4

	.type	.L.str,%object                  @ @.str
	.section	.rodata.str1.1,"aMS",%progbits,1
.L.str:
	.asciz	"lwip system already init.\n"
	.size	.L.str, 27

	.type	.L.str.1,%object                @ @.str.1
.L.str.1:
	.asciz	"done"
	.size	.L.str.1, 5

	.type	.L.str.2,%object                @ @.str.2
.L.str.2:
	.asciz	"Failed to create semaphore"
	.size	.L.str.2, 27

	.type	.L.str.3,%object                @ @.str.3
.L.str.3:
	.asciz	"rt-thread/components/net/lwip-2.0.2/src/arch/sys_arch.c"
	.size	.L.str.3, 56

	.type	.L.str.4,%object                @ @.str.4
.L.str.4:
	.asciz	"lwIP-%d.%d.%d initialized!\n"
	.size	.L.str.4, 28

	.hidden	__rt_init_lwip_system_init      @ @__rt_init_lwip_system_init
	.type	__rt_init_lwip_system_init,%object
	.section	.rti_fn.2,"a",%progbits
	.globl	__rt_init_lwip_system_init
	.p2align	2
__rt_init_lwip_system_init:
__tagsym$$used.0:
	.long	lwip_system_init
	.size	__rt_init_lwip_system_init, 4

	.type	sys_sem_new.counter,%object     @ @sys_sem_new.counter
	.section	.bss.sys_sem_new.counter,"aw",%nobits
	.p2align	1
sys_sem_new.counter:
	.short	0                               @ 0x0
	.size	sys_sem_new.counter, 2

	.type	.L.str.5,%object                @ @.str.5
	.section	.rodata.str1.1,"aMS",%progbits,1
.L.str.5:
	.asciz	"0"
	.size	.L.str.5, 2

	.type	.L__FUNCTION__.sys_sem_new,%object @ @__FUNCTION__.sys_sem_new
.L__FUNCTION__.sys_sem_new:
	.asciz	"sys_sem_new"
	.size	.L__FUNCTION__.sys_sem_new, 12

	.type	.L.str.6,%object                @ @.str.6
.L.str.6:
	.asciz	"%s%d"
	.size	.L.str.6, 5

	.type	.L.str.7,%object                @ @.str.7
.L.str.7:
	.asciz	"sem"
	.size	.L.str.7, 4

	.type	.L__FUNCTION__.sys_sem_free,%object @ @__FUNCTION__.sys_sem_free
.L__FUNCTION__.sys_sem_free:
	.asciz	"sys_sem_free"
	.size	.L__FUNCTION__.sys_sem_free, 13

	.type	.L__FUNCTION__.sys_arch_sem_wait,%object @ @__FUNCTION__.sys_arch_sem_wait
.L__FUNCTION__.sys_arch_sem_wait:
	.asciz	"sys_arch_sem_wait"
	.size	.L__FUNCTION__.sys_arch_sem_wait, 18

	.type	sys_mutex_new.counter,%object   @ @sys_mutex_new.counter
	.section	.bss.sys_mutex_new.counter,"aw",%nobits
	.p2align	1
sys_mutex_new.counter:
	.short	0                               @ 0x0
	.size	sys_mutex_new.counter, 2

	.type	.L__FUNCTION__.sys_mutex_new,%object @ @__FUNCTION__.sys_mutex_new
	.section	.rodata.str1.1,"aMS",%progbits,1
.L__FUNCTION__.sys_mutex_new:
	.asciz	"sys_mutex_new"
	.size	.L__FUNCTION__.sys_mutex_new, 14

	.type	.L.str.8,%object                @ @.str.8
.L.str.8:
	.asciz	"mu"
	.size	.L.str.8, 3

	.type	.L__FUNCTION__.sys_mutex_lock,%object @ @__FUNCTION__.sys_mutex_lock
.L__FUNCTION__.sys_mutex_lock:
	.asciz	"sys_mutex_lock"
	.size	.L__FUNCTION__.sys_mutex_lock, 15

	.type	.L__FUNCTION__.sys_mutex_free,%object @ @__FUNCTION__.sys_mutex_free
.L__FUNCTION__.sys_mutex_free:
	.asciz	"sys_mutex_free"
	.size	.L__FUNCTION__.sys_mutex_free, 15

	.type	sys_mbox_new.counter,%object    @ @sys_mbox_new.counter
	.section	.bss.sys_mbox_new.counter,"aw",%nobits
	.p2align	1
sys_mbox_new.counter:
	.short	0                               @ 0x0
	.size	sys_mbox_new.counter, 2

	.type	.L__FUNCTION__.sys_mbox_new,%object @ @__FUNCTION__.sys_mbox_new
	.section	.rodata.str1.1,"aMS",%progbits,1
.L__FUNCTION__.sys_mbox_new:
	.asciz	"sys_mbox_new"
	.size	.L__FUNCTION__.sys_mbox_new, 13

	.type	.L.str.9,%object                @ @.str.9
.L.str.9:
	.asciz	"mbox"
	.size	.L.str.9, 5

	.type	.L__FUNCTION__.sys_mbox_free,%object @ @__FUNCTION__.sys_mbox_free
.L__FUNCTION__.sys_mbox_free:
	.asciz	"sys_mbox_free"
	.size	.L__FUNCTION__.sys_mbox_free, 14

	.type	.L__FUNCTION__.sys_mbox_post,%object @ @__FUNCTION__.sys_mbox_post
.L__FUNCTION__.sys_mbox_post:
	.asciz	"sys_mbox_post"
	.size	.L__FUNCTION__.sys_mbox_post, 14

	.type	.L__FUNCTION__.sys_arch_mbox_fetch,%object @ @__FUNCTION__.sys_arch_mbox_fetch
.L__FUNCTION__.sys_arch_mbox_fetch:
	.asciz	"sys_arch_mbox_fetch"
	.size	.L__FUNCTION__.sys_arch_mbox_fetch, 20

	.type	.L__FUNCTION__.sys_thread_new,%object @ @__FUNCTION__.sys_thread_new
.L__FUNCTION__.sys_thread_new:
	.asciz	"sys_thread_new"
	.size	.L__FUNCTION__.sys_thread_new, 15

	.type	.L.str.10,%object               @ @.str.10
.L.str.10:
	.asciz	"t != RT_NULL"
	.size	.L.str.10, 13

	.type	.L.str.11,%object               @ @.str.11
.L.str.11:
	.asciz	"\nAssertion: %d in %s, thread %s\n"
	.size	.L.str.11, 33

	.type	.L__FUNCTION__.sys_arch_assert,%object @ @__FUNCTION__.sys_arch_assert
.L__FUNCTION__.sys_arch_assert:
	.asciz	"sys_arch_assert"
	.size	.L__FUNCTION__.sys_arch_assert, 16

	.type	.L.str.12,%object               @ @.str.12
.L.str.12:
	.asciz	"invalid arg.\n"
	.size	.L.str.12, 14

	.type	.L.str.13,%object               @ @.str.13
.L.str.13:
	.asciz	"information != RT_NULL"
	.size	.L.str.13, 23

	.type	.L__FUNCTION__.tcpip_init_done_callback,%object @ @__FUNCTION__.tcpip_init_done_callback
.L__FUNCTION__.tcpip_init_done_callback:
	.asciz	"tcpip_init_done_callback"
	.size	.L__FUNCTION__.tcpip_init_done_callback, 25

	.globl	__rt_init_lwip_system_init
	.file	11 "E:\\STM32\\Learning\\STM32H750_ART_PI_RGBLCD" "./rt-thread/components/net/lwip-2.0.2/src/arch/include\\arch/sys_arch.h"
	.file	12 "E:\\STM32\\Learning\\STM32H750_ART_PI_RGBLCD" "./rt-thread/components/net/lwip-2.0.2/src/include\\lwip/sys.h"
	.file	13 "E:\\STM32\\Learning\\STM32H750_ART_PI_RGBLCD" "./rt-thread/components/net/lwip-2.0.2/src/include\\lwip/mem.h"
	.section	".note.GNU-stack","",%progbits
	.eabi_attribute	30, 6	@ Tag_ABI_optimization_goals
	.ARM_attribute	16, 1	@ Tag_AV_eba