	.text
	.syntax unified
	.eabi_attribute	67, "2.09"	@ Tag_conformance
	.cpu	cortex-m7
	.eabi_attribute	6, 13	@ Tag_CPU_arch
	.eabi_attribute	7, 77	@ Tag_CPU_arch_profile
	.eabi_attribute	8, 0	@ Tag_ARM_ISA_use
	.eabi_attribute	9, 2	@ Tag_THUMB_ISA_use
	.fpu	fpv5-d16
	.eabi_attribute	36, 1	@ Tag_FP_HP_extension
	.eabi_attribute	34, 1	@ Tag_CPU_unaligned_access
	.eabi_attribute	17, 1	@ Tag_ABI_PCS_GOT_use
	.eabi_attribute	20, 2	@ Tag_ABI_FP_denormal
	.eabi_attribute	21, 0	@ Tag_ABI_FP_exceptions
	.eabi_attribute	23, 1	@ Tag_ABI_FP_number_model
	.eabi_attribute	24, 1	@ Tag_ABI_align_needed
	.eabi_attribute	25, 1	@ Tag_ABI_align_preserved
	.eabi_attribute	28, 1	@ Tag_ABI_VFP_args
	.eabi_attribute	38, 1	@ Tag_ABI_FP_16bit_format
	.eabi_attribute	18, 2	@ Tag_ABI_PCS_wchar_t
	.eabi_attribute	26, 1	@ Tag_ABI_enum_size
	.eabi_attribute	14, 0	@ Tag_ABI_PCS_R9_use
	.file	"tcp.c"
	.file	1 "D:\\Keil_v5\\ARM\\ARMCLANG\\Bin\\..\\include" "stdint.h"
	.file	2 "E:\\Smart-access-control\\Hardware\\CODE" "./rt-thread/components/net/lwip-2.0.2/src/include\\lwip/arch.h"
	.file	3 "E:\\Smart-access-control\\Hardware\\CODE" "./rt-thread/components/net/lwip-2.0.2/src/include\\lwip/ip4_addr.h"
	.file	4 "E:\\Smart-access-control\\Hardware\\CODE" "./rt-thread/components/net/lwip-2.0.2/src/include\\lwip/ip_addr.h"
	.file	5 "E:\\Smart-access-control\\Hardware\\CODE" "./rt-thread/components/net/lwip-2.0.2/src/include\\lwip/tcp.h"
	.file	6 "E:\\Smart-access-control\\Hardware\\CODE" "./rt-thread/components/net/lwip-2.0.2/src/include\\lwip/priv/tcp_priv.h"
	.file	7 "E:\\Smart-access-control\\Hardware\\CODE" "./rt-thread/components/net/lwip-2.0.2/src/include\\lwip/pbuf.h"
	.file	8 "E:\\Smart-access-control\\Hardware\\CODE" "./rt-thread/components/net/lwip-2.0.2/src/include\\lwip/prot/tcp.h"
	.file	9 "E:\\Smart-access-control\\Hardware\\CODE" "./rt-thread/components/net/lwip-2.0.2/src/include\\lwip/err.h"
	.file	10 "E:\\Smart-access-control\\Hardware\\CODE" "rt-thread/components/net/lwip-2.0.2/src/core/tcp.c"
	.file	11 "E:\\Smart-access-control\\Hardware\\CODE" "./rt-thread/components/net/lwip-2.0.2/src/include\\lwip/memp.h"
	.file	12 "E:\\Smart-access-control\\Hardware\\CODE" "./rt-thread/components/net/lwip-2.0.2/src/include\\lwip/netif.h"
	.section	.text.tcp_init,"ax",%progbits
	.hidden	tcp_init                        @ -- Begin function tcp_init
	.globl	tcp_init
	.p2align	3
	.type	tcp_init,%function
	.code	16                              @ @tcp_init
	.thumb_func
tcp_init:
.Lfunc_begin0:
	.loc	10 146 0                        @ rt-thread/components/net/lwip-2.0.2/src/core/tcp.c:146:0
	.fnstart
	.cfi_sections .debug_frame
	.cfi_startproc
@ %bb.0:
	.loc	10 150 1 prologue_end           @ rt-thread/components/net/lwip-2.0.2/src/core/tcp.c:150:1
	bx	lr
.Ltmp0:
.Lfunc_end0:
	.size	tcp_init, .Lfunc_end0-tcp_init
	.cfi_endproc
	.cantunwind
	.fnend
                                        @ -- End function
	.section	.text.tcp_tmr,"ax",%progbits
	.hidden	tcp_tmr                         @ -- Begin function tcp_tmr
	.globl	tcp_tmr
	.p2align	3
	.type	tcp_tmr,%function
	.code	16                              @ @tcp_tmr
	.thumb_func
tcp_tmr:
.Lfunc_begin1:
	.loc	10 157 0                        @ rt-thread/components/net/lwip-2.0.2/src/core/tcp.c:157:0
	.fnstart
	.cfi_startproc
@ %bb.0:
	.save	{r7, lr}
	push	{r7, lr}
	.cfi_def_cfa_offset 8
	.cfi_offset lr, -4
	.cfi_offset r7, -8
.Ltmp1:
	.loc	10 159 3 prologue_end           @ rt-thread/components/net/lwip-2.0.2/src/core/tcp.c:159:3
	bl	tcp_fasttmr
.Ltmp2:
	.loc	10 161 7                        @ rt-thread/components/net/lwip-2.0.2/src/core/tcp.c:161:7
	movw	r1, :lower16:tcp_timer
	movt	r1, :upper16:tcp_timer
	ldrb	r0, [r1]
	adds	r0, #1
	strb	r0, [r1]
.Ltmp3:
	.loc	10 161 7 is_stmt 0              @ rt-thread/components/net/lwip-2.0.2/src/core/tcp.c:161:7
	lsls	r0, r0, #31
	cbz	r0, .LBB1_2
	b	.LBB1_1
.LBB1_1:
.Ltmp4:
	.loc	10 164 5 is_stmt 1              @ rt-thread/components/net/lwip-2.0.2/src/core/tcp.c:164:5
	bl	tcp_slowtmr
	.loc	10 165 3                        @ rt-thread/components/net/lwip-2.0.2/src/core/tcp.c:165:3
	b	.LBB1_2
.Ltmp5:
.LBB1_2:
	.loc	10 166 1                        @ rt-thread/components/net/lwip-2.0.2/src/core/tcp.c:166:1
	pop	{r7, pc}
.Ltmp6:
.Lfunc_end1:
	.size	tcp_tmr, .Lfunc_end1-tcp_tmr
	.cfi_endproc
	.cantunwind
	.fnend
                                        @ -- End function
	.section	.text.tcp_fasttmr,"ax",%progbits
	.hidden	tcp_fasttmr                     @ -- Begin function tcp_fasttmr
	.globl	tcp_fasttmr
	.p2align	3
	.type	tcp_fasttmr,%function
	.code	16                              @ @tcp_fasttmr
	.thumb_func
tcp_fasttmr:
.Lfunc_begin2:
	.loc	10 1247 0                       @ rt-thread/components/net/lwip-2.0.2/src/core/tcp.c:1247:0
	.fnstart
	.cfi_startproc
@ %bb.0:
	.save	{r7, lr}
	push	{r7, lr}
	.cfi_def_cfa_offset 8
	.cfi_offset lr, -4
	.cfi_offset r7, -8
	.pad	#16
	sub	sp, #16
	.cfi_def_cfa_offset 24
.Ltmp7:
	.loc	10 1250 3 prologue_end          @ rt-thread/components/net/lwip-2.0.2/src/core/tcp.c:1250:3
	movw	r1, :lower16:tcp_timer_ctr
	movt	r1, :upper16:tcp_timer_ctr
	ldrb	r0, [r1]
	adds	r0, #1
	strb	r0, [r1]
	b	.LBB2_1
.LBB2_1:                                @ =>This Loop Header: Depth=1
                                        @     Child Loop BB2_2 Depth 2
.Ltmp8:
	@DEBUG_LABEL: tcp_fasttmr:tcp_fasttmr_start
	.loc	10 1253 9                       @ rt-thread/components/net/lwip-2.0.2/src/core/tcp.c:1253:9
	movw	r0, :lower16:tcp_active_pcbs
	movt	r0, :upper16:tcp_active_pcbs
	ldr	r0, [r0]
	.loc	10 1253 7 is_stmt 0             @ rt-thread/components/net/lwip-2.0.2/src/core/tcp.c:1253:7
	str	r0, [sp, #12]
	.loc	10 1255 3 is_stmt 1             @ rt-thread/components/net/lwip-2.0.2/src/core/tcp.c:1255:3
	b	.LBB2_2
.LBB2_2:                                @   Parent Loop BB2_1 Depth=1
                                        @ =>  This Inner Loop Header: Depth=2
	.loc	10 1255 10 is_stmt 0            @ rt-thread/components/net/lwip-2.0.2/src/core/tcp.c:1255:10
	ldr	r0, [sp, #12]
	.loc	10 1255 3                       @ rt-thread/components/net/lwip-2.0.2/src/core/tcp.c:1255:3
	cmp	r0, #0
	beq	.LBB2_17
	b	.LBB2_3
.LBB2_3:                                @   in Loop: Header=BB2_2 Depth=2
.Ltmp9:
	.loc	10 1256 9 is_stmt 1             @ rt-thread/components/net/lwip-2.0.2/src/core/tcp.c:1256:9
	ldr	r0, [sp, #12]
	.loc	10 1256 14 is_stmt 0            @ rt-thread/components/net/lwip-2.0.2/src/core/tcp.c:1256:14
	ldrb	r0, [r0, #29]
	.loc	10 1256 28                      @ rt-thread/components/net/lwip-2.0.2/src/core/tcp.c:1256:28
	movw	r1, :lower16:tcp_timer_ctr
	movt	r1, :upper16:tcp_timer_ctr
	ldrb	r1, [r1]
.Ltmp10:
	.loc	10 1256 9                       @ rt-thread/components/net/lwip-2.0.2/src/core/tcp.c:1256:9
	cmp	r0, r1
	beq	.LBB2_15
	b	.LBB2_4
.LBB2_4:                                @   in Loop: Header=BB2_2 Depth=2
.Ltmp11:
	.loc	10 1258 25 is_stmt 1            @ rt-thread/components/net/lwip-2.0.2/src/core/tcp.c:1258:25
	movw	r0, :lower16:tcp_timer_ctr
	movt	r0, :upper16:tcp_timer_ctr
	ldrb	r0, [r0]
	.loc	10 1258 7 is_stmt 0             @ rt-thread/components/net/lwip-2.0.2/src/core/tcp.c:1258:7
	ldr	r1, [sp, #12]
	.loc	10 1258 23                      @ rt-thread/components/net/lwip-2.0.2/src/core/tcp.c:1258:23
	strb	r0, [r1, #29]
.Ltmp12:
	.loc	10 1260 11 is_stmt 1            @ rt-thread/components/net/lwip-2.0.2/src/core/tcp.c:1260:11
	ldr	r0, [sp, #12]
	ldrb	r0, [r0, #26]
.Ltmp13:
	.loc	10 1260 11 is_stmt 0            @ rt-thread/components/net/lwip-2.0.2/src/core/tcp.c:1260:11
	lsls	r0, r0, #31
	cbz	r0, .LBB2_8
	b	.LBB2_5
.LBB2_5:                                @   in Loop: Header=BB2_2 Depth=2
.Ltmp14:
	.loc	10 1262 9 is_stmt 1             @ rt-thread/components/net/lwip-2.0.2/src/core/tcp.c:1262:9
	b	.LBB2_6
.LBB2_6:                                @   in Loop: Header=BB2_2 Depth=2
.Ltmp15:
	.loc	10 1262 9 is_stmt 0             @ rt-thread/components/net/lwip-2.0.2/src/core/tcp.c:1262:9
	ldr	r1, [sp, #12]
	ldrb	r0, [r1, #26]
	orr	r0, r0, #2
	strb	r0, [r1, #26]
	b	.LBB2_7
.Ltmp16:
.LBB2_7:                                @   in Loop: Header=BB2_2 Depth=2
	.loc	10 1263 20 is_stmt 1            @ rt-thread/components/net/lwip-2.0.2/src/core/tcp.c:1263:20
	ldr	r0, [sp, #12]
	.loc	10 1263 9 is_stmt 0             @ rt-thread/components/net/lwip-2.0.2/src/core/tcp.c:1263:9
	bl	tcp_output
	.loc	10 1264 9 is_stmt 1             @ rt-thread/components/net/lwip-2.0.2/src/core/tcp.c:1264:9
	ldr	r1, [sp, #12]
	.loc	10 1264 20 is_stmt 0            @ rt-thread/components/net/lwip-2.0.2/src/core/tcp.c:1264:20
	ldrb	r0, [r1, #26]
	and	r0, r0, #252
	strb	r0, [r1, #26]
	.loc	10 1265 7 is_stmt 1             @ rt-thread/components/net/lwip-2.0.2/src/core/tcp.c:1265:7
	b	.LBB2_8
.Ltmp17:
.LBB2_8:                                @   in Loop: Header=BB2_2 Depth=2
	.loc	10 1267 11                      @ rt-thread/components/net/lwip-2.0.2/src/core/tcp.c:1267:11
	ldr	r0, [sp, #12]
	ldrb	r0, [r0, #26]
.Ltmp18:
	.loc	10 1267 11 is_stmt 0            @ rt-thread/components/net/lwip-2.0.2/src/core/tcp.c:1267:11
	lsls	r0, r0, #28
	cmp	r0, #0
	bpl	.LBB2_10
	b	.LBB2_9
.LBB2_9:                                @   in Loop: Header=BB2_2 Depth=2
.Ltmp19:
	.loc	10 1269 9 is_stmt 1             @ rt-thread/components/net/lwip-2.0.2/src/core/tcp.c:1269:9
	ldr	r1, [sp, #12]
	.loc	10 1269 20 is_stmt 0            @ rt-thread/components/net/lwip-2.0.2/src/core/tcp.c:1269:20
	ldrb	r0, [r1, #26]
	and	r0, r0, #247
	strb	r0, [r1, #26]
	.loc	10 1270 32 is_stmt 1            @ rt-thread/components/net/lwip-2.0.2/src/core/tcp.c:1270:32
	ldr	r0, [sp, #12]
	.loc	10 1270 9 is_stmt 0             @ rt-thread/components/net/lwip-2.0.2/src/core/tcp.c:1270:9
	bl	tcp_close_shutdown_fin
	.loc	10 1271 7 is_stmt 1             @ rt-thread/components/net/lwip-2.0.2/src/core/tcp.c:1271:7
	b	.LBB2_10
.Ltmp20:
.LBB2_10:                               @   in Loop: Header=BB2_2 Depth=2
	.loc	10 1273 14                      @ rt-thread/components/net/lwip-2.0.2/src/core/tcp.c:1273:14
	ldr	r0, [sp, #12]
	.loc	10 1273 19 is_stmt 0            @ rt-thread/components/net/lwip-2.0.2/src/core/tcp.c:1273:19
	ldr	r0, [r0, #12]
	.loc	10 1273 12                      @ rt-thread/components/net/lwip-2.0.2/src/core/tcp.c:1273:12
	str	r0, [sp, #8]
.Ltmp21:
	.loc	10 1276 11 is_stmt 1            @ rt-thread/components/net/lwip-2.0.2/src/core/tcp.c:1276:11
	ldr	r0, [sp, #12]
	.loc	10 1276 16 is_stmt 0            @ rt-thread/components/net/lwip-2.0.2/src/core/tcp.c:1276:16
	ldr	r0, [r0, #116]
.Ltmp22:
	.loc	10 1276 11                      @ rt-thread/components/net/lwip-2.0.2/src/core/tcp.c:1276:11
	cbz	r0, .LBB2_14
	b	.LBB2_11
.LBB2_11:                               @   in Loop: Header=BB2_2 Depth=2
.Ltmp23:
	.loc	10 1277 33 is_stmt 1            @ rt-thread/components/net/lwip-2.0.2/src/core/tcp.c:1277:33
	movw	r1, :lower16:tcp_active_pcbs_changed
	movt	r1, :upper16:tcp_active_pcbs_changed
	str	r1, [sp, #4]                    @ 4-byte Spill
	movs	r0, #0
	strb	r0, [r1]
	.loc	10 1278 34                      @ rt-thread/components/net/lwip-2.0.2/src/core/tcp.c:1278:34
	ldr	r0, [sp, #12]
	.loc	10 1278 9 is_stmt 0             @ rt-thread/components/net/lwip-2.0.2/src/core/tcp.c:1278:9
	bl	tcp_process_refused_data
                                        @ kill: def $r1 killed $r0
.Ltmp24:
	.loc	10 1279 13 is_stmt 1            @ rt-thread/components/net/lwip-2.0.2/src/core/tcp.c:1279:13
	ldr	r0, [sp, #4]                    @ 4-byte Reload
	ldrb	r0, [r0]
.Ltmp25:
	.loc	10 1279 13 is_stmt 0            @ rt-thread/components/net/lwip-2.0.2/src/core/tcp.c:1279:13
	cbz	r0, .LBB2_13
	b	.LBB2_12
.LBB2_12:                               @   in Loop: Header=BB2_1 Depth=1
.Ltmp26:
	.loc	10 1281 11 is_stmt 1            @ rt-thread/components/net/lwip-2.0.2/src/core/tcp.c:1281:11
	b	.LBB2_1
.Ltmp27:
.LBB2_13:                               @   in Loop: Header=BB2_2 Depth=2
	.loc	10 1283 7                       @ rt-thread/components/net/lwip-2.0.2/src/core/tcp.c:1283:7
	b	.LBB2_14
.Ltmp28:
.LBB2_14:                               @   in Loop: Header=BB2_2 Depth=2
	.loc	10 1284 13                      @ rt-thread/components/net/lwip-2.0.2/src/core/tcp.c:1284:13
	ldr	r0, [sp, #8]
	.loc	10 1284 11 is_stmt 0            @ rt-thread/components/net/lwip-2.0.2/src/core/tcp.c:1284:11
	str	r0, [sp, #12]
	.loc	10 1285 5 is_stmt 1             @ rt-thread/components/net/lwip-2.0.2/src/core/tcp.c:1285:5
	b	.LBB2_16
.Ltmp29:
.LBB2_15:                               @   in Loop: Header=BB2_2 Depth=2
	.loc	10 1286 13                      @ rt-thread/components/net/lwip-2.0.2/src/core/tcp.c:1286:13
	ldr	r0, [sp, #12]
	.loc	10 1286 18 is_stmt 0            @ rt-thread/components/net/lwip-2.0.2/src/core/tcp.c:1286:18
	ldr	r0, [r0, #12]
	.loc	10 1286 11                      @ rt-thread/components/net/lwip-2.0.2/src/core/tcp.c:1286:11
	str	r0, [sp, #12]
	b	.LBB2_16
.Ltmp30:
.LBB2_16:                               @   in Loop: Header=BB2_2 Depth=2
	.loc	10 1255 3 is_stmt 1             @ rt-thread/components/net/lwip-2.0.2/src/core/tcp.c:1255:3
	b	.LBB2_2
.LBB2_17:
	.loc	10 1289 1                       @ rt-thread/components/net/lwip-2.0.2/src/core/tcp.c:1289:1
	add	sp, #16
	pop	{r7, pc}
.Ltmp31:
.Lfunc_end2:
	.size	tcp_fasttmr, .Lfunc_end2-tcp_fasttmr
	.cfi_endproc
	.cantunwind
	.fnend
                                        @ -- End function
	.section	.text.tcp_slowtmr,"ax",%progbits
	.hidden	tcp_slowtmr                     @ -- Begin function tcp_slowtmr
	.globl	tcp_slowtmr
	.p2align	3
	.type	tcp_slowtmr,%function
	.code	16                              @ @tcp_slowtmr
	.thumb_func
tcp_slowtmr:
.Lfunc_begin3:
	.loc	10 982 0                        @ rt-thread/components/net/lwip-2.0.2/src/core/tcp.c:982:0
	.fnstart
	.cfi_startproc
@ %bb.0:
	.save	{r4, lr}
	push	{r4, lr}
	.cfi_def_cfa_offset 8
	.cfi_offset lr, -4
	.cfi_offset r4, -8
	.pad	#56
	sub	sp, #56
	.cfi_def_cfa_offset 64
	movs	r0, #0
.Ltmp32:
	.loc	10 989 7 prologue_end           @ rt-thread/components/net/lwip-2.0.2/src/core/tcp.c:989:7
	strb.w	r0, [sp, #43]
	.loc	10 991 3                        @ rt-thread/components/net/lwip-2.0.2/src/core/tcp.c:991:3
	movw	r1, :lower16:tcp_ticks
	movt	r1, :upper16:tcp_ticks
	ldr	r0, [r1]
	adds	r0, #1
	str	r0, [r1]
	.loc	10 992 3                        @ rt-thread/components/net/lwip-2.0.2/src/core/tcp.c:992:3
	movw	r1, :lower16:tcp_timer_ctr
	movt	r1, :upper16:tcp_timer_ctr
	ldrb	r0, [r1]
	adds	r0, #1
	strb	r0, [r1]
	b	.LBB3_1
.LBB3_1:                                @ =>This Loop Header: Depth=1
                                        @     Child Loop BB3_4 Depth 2
.Ltmp33:
	@DEBUG_LABEL: tcp_slowtmr:tcp_slowtmr_start
	.loc	10 0 3 is_stmt 0                @ rt-thread/components/net/lwip-2.0.2/src/core/tcp.c:0:3
	movs	r0, #0
	.loc	10 996 8 is_stmt 1              @ rt-thread/components/net/lwip-2.0.2/src/core/tcp.c:996:8
	str	r0, [sp, #48]
	.loc	10 997 9                        @ rt-thread/components/net/lwip-2.0.2/src/core/tcp.c:997:9
	movw	r0, :lower16:tcp_active_pcbs
	movt	r0, :upper16:tcp_active_pcbs
	ldr	r0, [r0]
	.loc	10 997 7 is_stmt 0              @ rt-thread/components/net/lwip-2.0.2/src/core/tcp.c:997:7
	str	r0, [sp, #52]
.Ltmp34:
	.loc	10 998 7 is_stmt 1              @ rt-thread/components/net/lwip-2.0.2/src/core/tcp.c:998:7
	ldr	r0, [sp, #52]
.Ltmp35:
	.loc	10 998 7 is_stmt 0              @ rt-thread/components/net/lwip-2.0.2/src/core/tcp.c:998:7
	cbnz	r0, .LBB3_3
	b	.LBB3_2
.LBB3_2:                                @   in Loop: Header=BB3_1 Depth=1
.Ltmp36:
	.loc	10 1000 3 is_stmt 1             @ rt-thread/components/net/lwip-2.0.2/src/core/tcp.c:1000:3
	b	.LBB3_3
.Ltmp37:
.LBB3_3:                                @   in Loop: Header=BB3_1 Depth=1
	.loc	10 1001 3                       @ rt-thread/components/net/lwip-2.0.2/src/core/tcp.c:1001:3
	b	.LBB3_4
.LBB3_4:                                @   Parent Loop BB3_1 Depth=1
                                        @ =>  This Inner Loop Header: Depth=2
	.loc	10 1001 10 is_stmt 0            @ rt-thread/components/net/lwip-2.0.2/src/core/tcp.c:1001:10
	ldr	r0, [sp, #52]
	.loc	10 1001 3                       @ rt-thread/components/net/lwip-2.0.2/src/core/tcp.c:1001:3
	cmp	r0, #0
	beq.w	.LBB3_124
	b	.LBB3_5
.LBB3_5:                                @   in Loop: Header=BB3_4 Depth=2
.Ltmp38:
	.loc	10 1003 5 is_stmt 1             @ rt-thread/components/net/lwip-2.0.2/src/core/tcp.c:1003:5
	b	.LBB3_6
.LBB3_6:                                @   in Loop: Header=BB3_4 Depth=2
.Ltmp39:
	.loc	10 1003 5 is_stmt 0             @ rt-thread/components/net/lwip-2.0.2/src/core/tcp.c:1003:5
	ldr	r0, [sp, #52]
	ldrb	r0, [r0, #20]
.Ltmp40:
	.loc	10 1003 5                       @ rt-thread/components/net/lwip-2.0.2/src/core/tcp.c:1003:5
	cbnz	r0, .LBB3_10
	b	.LBB3_7
.LBB3_7:                                @   in Loop: Header=BB3_4 Depth=2
.Ltmp41:
	.loc	10 1003 5                       @ rt-thread/components/net/lwip-2.0.2/src/core/tcp.c:1003:5
	b	.LBB3_8
.LBB3_8:                                @   in Loop: Header=BB3_4 Depth=2
.Ltmp42:
	.loc	10 1003 5                       @ rt-thread/components/net/lwip-2.0.2/src/core/tcp.c:1003:5
	movw	r0, :lower16:.L.str.8
	movt	r0, :upper16:.L.str.8
	bl	rt_kprintf
	movw	r0, :lower16:.L.str.1
	movt	r0, :upper16:.L.str.1
	movw	r1, #1003
	bl	sys_arch_assert
	b	.LBB3_9
.Ltmp43:
.LBB3_9:                                @   in Loop: Header=BB3_4 Depth=2
	.loc	10 1003 5                       @ rt-thread/components/net/lwip-2.0.2/src/core/tcp.c:1003:5
	b	.LBB3_10
.Ltmp44:
.LBB3_10:                               @   in Loop: Header=BB3_4 Depth=2
	.loc	10 1003 5                       @ rt-thread/components/net/lwip-2.0.2/src/core/tcp.c:1003:5
	b	.LBB3_11
.Ltmp45:
.LBB3_11:                               @   in Loop: Header=BB3_4 Depth=2
	.loc	10 1004 5 is_stmt 1             @ rt-thread/components/net/lwip-2.0.2/src/core/tcp.c:1004:5
	b	.LBB3_12
.LBB3_12:                               @   in Loop: Header=BB3_4 Depth=2
.Ltmp46:
	.loc	10 1004 5 is_stmt 0             @ rt-thread/components/net/lwip-2.0.2/src/core/tcp.c:1004:5
	ldr	r0, [sp, #52]
	ldrb	r0, [r0, #20]
.Ltmp47:
	.loc	10 1004 5                       @ rt-thread/components/net/lwip-2.0.2/src/core/tcp.c:1004:5
	cmp	r0, #1
	bne	.LBB3_16
	b	.LBB3_13
.LBB3_13:                               @   in Loop: Header=BB3_4 Depth=2
.Ltmp48:
	.loc	10 1004 5                       @ rt-thread/components/net/lwip-2.0.2/src/core/tcp.c:1004:5
	b	.LBB3_14
.LBB3_14:                               @   in Loop: Header=BB3_4 Depth=2
.Ltmp49:
	.loc	10 1004 5                       @ rt-thread/components/net/lwip-2.0.2/src/core/tcp.c:1004:5
	movw	r0, :lower16:.L.str.9
	movt	r0, :upper16:.L.str.9
	bl	rt_kprintf
	movw	r0, :lower16:.L.str.1
	movt	r0, :upper16:.L.str.1
	mov.w	r1, #1004
	bl	sys_arch_assert
	b	.LBB3_15
.Ltmp50:
.LBB3_15:                               @   in Loop: Header=BB3_4 Depth=2
	.loc	10 1004 5                       @ rt-thread/components/net/lwip-2.0.2/src/core/tcp.c:1004:5
	b	.LBB3_16
.Ltmp51:
.LBB3_16:                               @   in Loop: Header=BB3_4 Depth=2
	.loc	10 1004 5                       @ rt-thread/components/net/lwip-2.0.2/src/core/tcp.c:1004:5
	b	.LBB3_17
.Ltmp52:
.LBB3_17:                               @   in Loop: Header=BB3_4 Depth=2
	.loc	10 1005 5 is_stmt 1             @ rt-thread/components/net/lwip-2.0.2/src/core/tcp.c:1005:5
	b	.LBB3_18
.LBB3_18:                               @   in Loop: Header=BB3_4 Depth=2
.Ltmp53:
	.loc	10 1005 5 is_stmt 0             @ rt-thread/components/net/lwip-2.0.2/src/core/tcp.c:1005:5
	ldr	r0, [sp, #52]
	ldrb	r0, [r0, #20]
.Ltmp54:
	.loc	10 1005 5                       @ rt-thread/components/net/lwip-2.0.2/src/core/tcp.c:1005:5
	cmp	r0, #10
	bne	.LBB3_22
	b	.LBB3_19
.LBB3_19:                               @   in Loop: Header=BB3_4 Depth=2
.Ltmp55:
	.loc	10 1005 5                       @ rt-thread/components/net/lwip-2.0.2/src/core/tcp.c:1005:5
	b	.LBB3_20
.LBB3_20:                               @   in Loop: Header=BB3_4 Depth=2
.Ltmp56:
	.loc	10 1005 5                       @ rt-thread/components/net/lwip-2.0.2/src/core/tcp.c:1005:5
	movw	r0, :lower16:.L.str.10
	movt	r0, :upper16:.L.str.10
	bl	rt_kprintf
	movw	r0, :lower16:.L.str.1
	movt	r0, :upper16:.L.str.1
	movw	r1, #1005
	bl	sys_arch_assert
	b	.LBB3_21
.Ltmp57:
.LBB3_21:                               @   in Loop: Header=BB3_4 Depth=2
	.loc	10 1005 5                       @ rt-thread/components/net/lwip-2.0.2/src/core/tcp.c:1005:5
	b	.LBB3_22
.Ltmp58:
.LBB3_22:                               @   in Loop: Header=BB3_4 Depth=2
	.loc	10 1005 5                       @ rt-thread/components/net/lwip-2.0.2/src/core/tcp.c:1005:5
	b	.LBB3_23
.Ltmp59:
.LBB3_23:                               @   in Loop: Header=BB3_4 Depth=2
	.loc	10 1006 9 is_stmt 1             @ rt-thread/components/net/lwip-2.0.2/src/core/tcp.c:1006:9
	ldr	r0, [sp, #52]
	.loc	10 1006 14 is_stmt 0            @ rt-thread/components/net/lwip-2.0.2/src/core/tcp.c:1006:14
	ldrb	r0, [r0, #29]
	.loc	10 1006 28                      @ rt-thread/components/net/lwip-2.0.2/src/core/tcp.c:1006:28
	movw	r1, :lower16:tcp_timer_ctr
	movt	r1, :upper16:tcp_timer_ctr
	ldrb	r1, [r1]
.Ltmp60:
	.loc	10 1006 9                       @ rt-thread/components/net/lwip-2.0.2/src/core/tcp.c:1006:9
	cmp	r0, r1
	bne	.LBB3_25
	b	.LBB3_24
.LBB3_24:                               @   in Loop: Header=BB3_4 Depth=2
.Ltmp61:
	.loc	10 1008 13 is_stmt 1            @ rt-thread/components/net/lwip-2.0.2/src/core/tcp.c:1008:13
	ldr	r0, [sp, #52]
	.loc	10 1008 18 is_stmt 0            @ rt-thread/components/net/lwip-2.0.2/src/core/tcp.c:1008:18
	ldr	r0, [r0, #12]
	.loc	10 1008 11                      @ rt-thread/components/net/lwip-2.0.2/src/core/tcp.c:1008:11
	str	r0, [sp, #52]
	.loc	10 1009 7 is_stmt 1             @ rt-thread/components/net/lwip-2.0.2/src/core/tcp.c:1009:7
	b	.LBB3_4
.Ltmp62:
.LBB3_25:                               @   in Loop: Header=BB3_4 Depth=2
	.loc	10 1011 23                      @ rt-thread/components/net/lwip-2.0.2/src/core/tcp.c:1011:23
	movw	r0, :lower16:tcp_timer_ctr
	movt	r0, :upper16:tcp_timer_ctr
	ldrb	r0, [r0]
	.loc	10 1011 5 is_stmt 0             @ rt-thread/components/net/lwip-2.0.2/src/core/tcp.c:1011:5
	ldr	r1, [sp, #52]
	.loc	10 1011 21                      @ rt-thread/components/net/lwip-2.0.2/src/core/tcp.c:1011:21
	strb	r0, [r1, #29]
	movs	r0, #0
	.loc	10 1013 16 is_stmt 1            @ rt-thread/components/net/lwip-2.0.2/src/core/tcp.c:1013:16
	strb.w	r0, [sp, #45]
	.loc	10 1014 15                      @ rt-thread/components/net/lwip-2.0.2/src/core/tcp.c:1014:15
	strb.w	r0, [sp, #44]
.Ltmp63:
	.loc	10 1016 9                       @ rt-thread/components/net/lwip-2.0.2/src/core/tcp.c:1016:9
	ldr	r0, [sp, #52]
	.loc	10 1016 14 is_stmt 0            @ rt-thread/components/net/lwip-2.0.2/src/core/tcp.c:1016:14
	ldrb	r0, [r0, #20]
	.loc	10 1016 32                      @ rt-thread/components/net/lwip-2.0.2/src/core/tcp.c:1016:32
	cmp	r0, #2
	bne	.LBB3_28
	b	.LBB3_26
.LBB3_26:                               @   in Loop: Header=BB3_4 Depth=2
	.loc	10 1016 35                      @ rt-thread/components/net/lwip-2.0.2/src/core/tcp.c:1016:35
	ldr	r0, [sp, #52]
	.loc	10 1016 40                      @ rt-thread/components/net/lwip-2.0.2/src/core/tcp.c:1016:40
	ldrb.w	r0, [r0, #66]
.Ltmp64:
	.loc	10 1016 9                       @ rt-thread/components/net/lwip-2.0.2/src/core/tcp.c:1016:9
	cmp	r0, #4
	blt	.LBB3_28
	b	.LBB3_27
.LBB3_27:                               @   in Loop: Header=BB3_4 Depth=2
.Ltmp65:
	.loc	10 1017 7 is_stmt 1             @ rt-thread/components/net/lwip-2.0.2/src/core/tcp.c:1017:7
	ldrb.w	r0, [sp, #45]
	adds	r0, #1
	strb.w	r0, [sp, #45]
	.loc	10 1019 5                       @ rt-thread/components/net/lwip-2.0.2/src/core/tcp.c:1019:5
	b	.LBB3_58
.Ltmp66:
.LBB3_28:                               @   in Loop: Header=BB3_4 Depth=2
	.loc	10 1020 14                      @ rt-thread/components/net/lwip-2.0.2/src/core/tcp.c:1020:14
	ldr	r0, [sp, #52]
	.loc	10 1020 19 is_stmt 0            @ rt-thread/components/net/lwip-2.0.2/src/core/tcp.c:1020:19
	ldrb.w	r0, [r0, #66]
.Ltmp67:
	.loc	10 1020 14                      @ rt-thread/components/net/lwip-2.0.2/src/core/tcp.c:1020:14
	cmp	r0, #12
	blt	.LBB3_30
	b	.LBB3_29
.LBB3_29:                               @   in Loop: Header=BB3_4 Depth=2
.Ltmp68:
	.loc	10 1021 7 is_stmt 1             @ rt-thread/components/net/lwip-2.0.2/src/core/tcp.c:1021:7
	ldrb.w	r0, [sp, #45]
	adds	r0, #1
	strb.w	r0, [sp, #45]
	.loc	10 1023 5                       @ rt-thread/components/net/lwip-2.0.2/src/core/tcp.c:1023:5
	b	.LBB3_57
.Ltmp69:
.LBB3_30:                               @   in Loop: Header=BB3_4 Depth=2
	.loc	10 1024 11                      @ rt-thread/components/net/lwip-2.0.2/src/core/tcp.c:1024:11
	ldr	r0, [sp, #52]
	.loc	10 1024 16 is_stmt 0            @ rt-thread/components/net/lwip-2.0.2/src/core/tcp.c:1024:16
	ldrb.w	r0, [r0, #157]
.Ltmp70:
	.loc	10 1024 11                      @ rt-thread/components/net/lwip-2.0.2/src/core/tcp.c:1024:11
	cmp	r0, #1
	blt	.LBB3_40
	b	.LBB3_31
.LBB3_31:                               @   in Loop: Header=BB3_4 Depth=2
.Ltmp71:
	.loc	10 1027 48 is_stmt 1            @ rt-thread/components/net/lwip-2.0.2/src/core/tcp.c:1027:48
	ldr	r0, [sp, #52]
	.loc	10 1027 53 is_stmt 0            @ rt-thread/components/net/lwip-2.0.2/src/core/tcp.c:1027:53
	ldrb.w	r0, [r0, #157]
	.loc	10 1027 28                      @ rt-thread/components/net/lwip-2.0.2/src/core/tcp.c:1027:28
	movw	r1, :lower16:tcp_persist_backoff
	movt	r1, :upper16:tcp_persist_backoff
	add	r0, r1
	ldrb	r0, [r0, #-1]
	.loc	10 1027 14                      @ rt-thread/components/net/lwip-2.0.2/src/core/tcp.c:1027:14
	strb.w	r0, [sp, #42]
.Ltmp72:
	.loc	10 1028 13 is_stmt 1            @ rt-thread/components/net/lwip-2.0.2/src/core/tcp.c:1028:13
	ldr	r0, [sp, #52]
	.loc	10 1028 18 is_stmt 0            @ rt-thread/components/net/lwip-2.0.2/src/core/tcp.c:1028:18
	ldrb.w	r0, [r0, #156]
	.loc	10 1028 32                      @ rt-thread/components/net/lwip-2.0.2/src/core/tcp.c:1028:32
	ldrb.w	r1, [sp, #42]
.Ltmp73:
	.loc	10 1028 13                      @ rt-thread/components/net/lwip-2.0.2/src/core/tcp.c:1028:13
	cmp	r0, r1
	bge	.LBB3_33
	b	.LBB3_32
.LBB3_32:                               @   in Loop: Header=BB3_4 Depth=2
.Ltmp74:
	.loc	10 1029 11 is_stmt 1            @ rt-thread/components/net/lwip-2.0.2/src/core/tcp.c:1029:11
	ldr	r1, [sp, #52]
	.loc	10 1029 27 is_stmt 0            @ rt-thread/components/net/lwip-2.0.2/src/core/tcp.c:1029:27
	ldrb.w	r0, [r1, #156]
	adds	r0, #1
	strb.w	r0, [r1, #156]
	.loc	10 1030 9 is_stmt 1             @ rt-thread/components/net/lwip-2.0.2/src/core/tcp.c:1030:9
	b	.LBB3_33
.Ltmp75:
.LBB3_33:                               @   in Loop: Header=BB3_4 Depth=2
	.loc	10 1031 13                      @ rt-thread/components/net/lwip-2.0.2/src/core/tcp.c:1031:13
	ldr	r0, [sp, #52]
	.loc	10 1031 18 is_stmt 0            @ rt-thread/components/net/lwip-2.0.2/src/core/tcp.c:1031:18
	ldrb.w	r0, [r0, #156]
	.loc	10 1031 33                      @ rt-thread/components/net/lwip-2.0.2/src/core/tcp.c:1031:33
	ldrb.w	r1, [sp, #42]
.Ltmp76:
	.loc	10 1031 13                      @ rt-thread/components/net/lwip-2.0.2/src/core/tcp.c:1031:13
	cmp	r0, r1
	blt	.LBB3_39
	b	.LBB3_34
.LBB3_34:                               @   in Loop: Header=BB3_4 Depth=2
.Ltmp77:
	.loc	10 1032 37 is_stmt 1            @ rt-thread/components/net/lwip-2.0.2/src/core/tcp.c:1032:37
	ldr	r0, [sp, #52]
	.loc	10 1032 15 is_stmt 0            @ rt-thread/components/net/lwip-2.0.2/src/core/tcp.c:1032:15
	bl	tcp_zero_window_probe
.Ltmp78:
	.loc	10 1032 15                      @ rt-thread/components/net/lwip-2.0.2/src/core/tcp.c:1032:15
	cbnz	r0, .LBB3_38
	b	.LBB3_35
.LBB3_35:                               @   in Loop: Header=BB3_4 Depth=2
.Ltmp79:
	.loc	10 1033 13 is_stmt 1            @ rt-thread/components/net/lwip-2.0.2/src/core/tcp.c:1033:13
	ldr	r1, [sp, #52]
	movs	r0, #0
	.loc	10 1033 30 is_stmt 0            @ rt-thread/components/net/lwip-2.0.2/src/core/tcp.c:1033:30
	strb.w	r0, [r1, #156]
.Ltmp80:
	.loc	10 1034 17 is_stmt 1            @ rt-thread/components/net/lwip-2.0.2/src/core/tcp.c:1034:17
	ldr	r0, [sp, #52]
	.loc	10 1034 22 is_stmt 0            @ rt-thread/components/net/lwip-2.0.2/src/core/tcp.c:1034:22
	ldrb.w	r0, [r0, #157]
.Ltmp81:
	.loc	10 1034 17                      @ rt-thread/components/net/lwip-2.0.2/src/core/tcp.c:1034:17
	cmp	r0, #6
	bhi	.LBB3_37
	b	.LBB3_36
.LBB3_36:                               @   in Loop: Header=BB3_4 Depth=2
.Ltmp82:
	.loc	10 1035 15 is_stmt 1            @ rt-thread/components/net/lwip-2.0.2/src/core/tcp.c:1035:15
	ldr	r1, [sp, #52]
	.loc	10 1035 35 is_stmt 0            @ rt-thread/components/net/lwip-2.0.2/src/core/tcp.c:1035:35
	ldrb.w	r0, [r1, #157]
	adds	r0, #1
	strb.w	r0, [r1, #157]
	.loc	10 1036 13 is_stmt 1            @ rt-thread/components/net/lwip-2.0.2/src/core/tcp.c:1036:13
	b	.LBB3_37
.Ltmp83:
.LBB3_37:                               @   in Loop: Header=BB3_4 Depth=2
	.loc	10 1037 11                      @ rt-thread/components/net/lwip-2.0.2/src/core/tcp.c:1037:11
	b	.LBB3_38
.Ltmp84:
.LBB3_38:                               @   in Loop: Header=BB3_4 Depth=2
	.loc	10 1038 9                       @ rt-thread/components/net/lwip-2.0.2/src/core/tcp.c:1038:9
	b	.LBB3_39
.Ltmp85:
.LBB3_39:                               @   in Loop: Header=BB3_4 Depth=2
	.loc	10 1039 7                       @ rt-thread/components/net/lwip-2.0.2/src/core/tcp.c:1039:7
	b	.LBB3_56
.Ltmp86:
.LBB3_40:                               @   in Loop: Header=BB3_4 Depth=2
	.loc	10 1041 13                      @ rt-thread/components/net/lwip-2.0.2/src/core/tcp.c:1041:13
	ldr	r0, [sp, #52]
	.loc	10 1041 18 is_stmt 0            @ rt-thread/components/net/lwip-2.0.2/src/core/tcp.c:1041:18
	ldrsh.w	r0, [r0, #48]
.Ltmp87:
	.loc	10 1041 13                      @ rt-thread/components/net/lwip-2.0.2/src/core/tcp.c:1041:13
	cmp	r0, #0
	bmi	.LBB3_42
	b	.LBB3_41
.LBB3_41:                               @   in Loop: Header=BB3_4 Depth=2
.Ltmp88:
	.loc	10 1042 13 is_stmt 1            @ rt-thread/components/net/lwip-2.0.2/src/core/tcp.c:1042:13
	ldr	r1, [sp, #52]
	.loc	10 1042 11 is_stmt 0            @ rt-thread/components/net/lwip-2.0.2/src/core/tcp.c:1042:11
	ldrh	r0, [r1, #48]
	adds	r0, #1
	strh	r0, [r1, #48]
	.loc	10 1043 9 is_stmt 1             @ rt-thread/components/net/lwip-2.0.2/src/core/tcp.c:1043:9
	b	.LBB3_42
.Ltmp89:
.LBB3_42:                               @   in Loop: Header=BB3_4 Depth=2
	.loc	10 1045 13                      @ rt-thread/components/net/lwip-2.0.2/src/core/tcp.c:1045:13
	ldr	r0, [sp, #52]
	.loc	10 1045 18 is_stmt 0            @ rt-thread/components/net/lwip-2.0.2/src/core/tcp.c:1045:18
	ldr	r0, [r0, #108]
	.loc	10 1045 34                      @ rt-thread/components/net/lwip-2.0.2/src/core/tcp.c:1045:34
	cmp	r0, #0
	beq	.LBB3_55
	b	.LBB3_43
.LBB3_43:                               @   in Loop: Header=BB3_4 Depth=2
	.loc	10 1045 37                      @ rt-thread/components/net/lwip-2.0.2/src/core/tcp.c:1045:37
	ldr	r1, [sp, #52]
	.loc	10 1045 42                      @ rt-thread/components/net/lwip-2.0.2/src/core/tcp.c:1045:42
	ldrsh.w	r0, [r1, #48]
	.loc	10 1045 56                      @ rt-thread/components/net/lwip-2.0.2/src/core/tcp.c:1045:56
	ldrsh.w	r1, [r1, #64]
.Ltmp90:
	.loc	10 1045 13                      @ rt-thread/components/net/lwip-2.0.2/src/core/tcp.c:1045:13
	cmp	r0, r1
	blt	.LBB3_55
	b	.LBB3_44
.LBB3_44:                               @   in Loop: Header=BB3_4 Depth=2
.Ltmp91:
	.loc	10 1053 15 is_stmt 1            @ rt-thread/components/net/lwip-2.0.2/src/core/tcp.c:1053:15
	ldr	r0, [sp, #52]
	.loc	10 1053 20 is_stmt 0            @ rt-thread/components/net/lwip-2.0.2/src/core/tcp.c:1053:20
	ldrb	r0, [r0, #20]
.Ltmp92:
	.loc	10 1053 15                      @ rt-thread/components/net/lwip-2.0.2/src/core/tcp.c:1053:15
	cmp	r0, #2
	beq	.LBB3_49
	b	.LBB3_45
.LBB3_45:                               @   in Loop: Header=BB3_4 Depth=2
.Ltmp93:
	.loc	10 1054 32 is_stmt 1            @ rt-thread/components/net/lwip-2.0.2/src/core/tcp.c:1054:32
	ldr	r0, [sp, #52]
	ldrb.w	r0, [r0, #66]
	cmp	r0, #11
	bhi	.LBB3_47
	b	.LBB3_46
.LBB3_46:                               @   in Loop: Header=BB3_4 Depth=2
	ldr	r0, [sp, #52]
	ldrb.w	r0, [r0, #66]
	str	r0, [sp, #16]                   @ 4-byte Spill
	b	.LBB3_48
.LBB3_47:                               @   in Loop: Header=BB3_4 Depth=2
	.loc	10 0 32 is_stmt 0               @ rt-thread/components/net/lwip-2.0.2/src/core/tcp.c:0:32
	movs	r0, #12
	.loc	10 1054 32                      @ rt-thread/components/net/lwip-2.0.2/src/core/tcp.c:1054:32
	str	r0, [sp, #16]                   @ 4-byte Spill
	b	.LBB3_48
.LBB3_48:                               @   in Loop: Header=BB3_4 Depth=2
	ldr	r0, [sp, #16]                   @ 4-byte Reload
	.loc	10 1054 18                      @ rt-thread/components/net/lwip-2.0.2/src/core/tcp.c:1054:18
	strb.w	r0, [sp, #41]
	.loc	10 1055 26 is_stmt 1            @ rt-thread/components/net/lwip-2.0.2/src/core/tcp.c:1055:26
	ldr	r1, [sp, #52]
	.loc	10 1055 31 is_stmt 0            @ rt-thread/components/net/lwip-2.0.2/src/core/tcp.c:1055:31
	ldrsh.w	r2, [r1, #60]
	.loc	10 1055 47                      @ rt-thread/components/net/lwip-2.0.2/src/core/tcp.c:1055:47
	ldrsh.w	r0, [r1, #62]
	.loc	10 1055 40                      @ rt-thread/components/net/lwip-2.0.2/src/core/tcp.c:1055:40
	add.w	r0, r0, r2, asr #3
	.loc	10 1055 66                      @ rt-thread/components/net/lwip-2.0.2/src/core/tcp.c:1055:66
	ldrb.w	r3, [sp, #41]
	.loc	10 1055 54                      @ rt-thread/components/net/lwip-2.0.2/src/core/tcp.c:1055:54
	movw	r2, :lower16:tcp_backoff
	movt	r2, :upper16:tcp_backoff
	ldrb	r2, [r2, r3]
	.loc	10 1055 51                      @ rt-thread/components/net/lwip-2.0.2/src/core/tcp.c:1055:51
	lsls	r0, r2
	.loc	10 1055 22                      @ rt-thread/components/net/lwip-2.0.2/src/core/tcp.c:1055:22
	strh.w	r0, [r1, #64]
	.loc	10 1056 11 is_stmt 1            @ rt-thread/components/net/lwip-2.0.2/src/core/tcp.c:1056:11
	b	.LBB3_49
.Ltmp94:
.LBB3_49:                               @   in Loop: Header=BB3_4 Depth=2
	.loc	10 1059 11                      @ rt-thread/components/net/lwip-2.0.2/src/core/tcp.c:1059:11
	ldr	r1, [sp, #52]
	movs	r0, #0
	.loc	10 1059 22 is_stmt 0            @ rt-thread/components/net/lwip-2.0.2/src/core/tcp.c:1059:22
	strh	r0, [r1, #48]
	.loc	10 1062 21 is_stmt 1            @ rt-thread/components/net/lwip-2.0.2/src/core/tcp.c:1062:21
	ldr	r1, [sp, #52]
	ldrh.w	r0, [r1, #72]
	ldrh.w	r1, [r1, #92]
	cmp	r0, r1
	bge	.LBB3_51
	b	.LBB3_50
.LBB3_50:                               @   in Loop: Header=BB3_4 Depth=2
	ldr	r0, [sp, #52]
	ldrh.w	r0, [r0, #72]
	str	r0, [sp, #12]                   @ 4-byte Spill
	b	.LBB3_52
.LBB3_51:                               @   in Loop: Header=BB3_4 Depth=2
	ldr	r0, [sp, #52]
	ldrh.w	r0, [r0, #92]
	str	r0, [sp, #12]                   @ 4-byte Spill
	b	.LBB3_52
.LBB3_52:                               @   in Loop: Header=BB3_4 Depth=2
	ldr	r0, [sp, #12]                   @ 4-byte Reload
	.loc	10 1062 19 is_stmt 0            @ rt-thread/components/net/lwip-2.0.2/src/core/tcp.c:1062:19
	strh.w	r0, [sp, #46]
	.loc	10 1063 27 is_stmt 1            @ rt-thread/components/net/lwip-2.0.2/src/core/tcp.c:1063:27
	ldrh.w	r0, [sp, #46]
	.loc	10 1063 35 is_stmt 0            @ rt-thread/components/net/lwip-2.0.2/src/core/tcp.c:1063:35
	lsrs	r0, r0, #1
	.loc	10 1063 11                      @ rt-thread/components/net/lwip-2.0.2/src/core/tcp.c:1063:11
	ldr	r1, [sp, #52]
	.loc	10 1063 25                      @ rt-thread/components/net/lwip-2.0.2/src/core/tcp.c:1063:25
	strh.w	r0, [r1, #74]
.Ltmp95:
	.loc	10 1064 15 is_stmt 1            @ rt-thread/components/net/lwip-2.0.2/src/core/tcp.c:1064:15
	ldr	r1, [sp, #52]
	.loc	10 1064 20 is_stmt 0            @ rt-thread/components/net/lwip-2.0.2/src/core/tcp.c:1064:20
	ldrh.w	r0, [r1, #74]
	.loc	10 1064 47                      @ rt-thread/components/net/lwip-2.0.2/src/core/tcp.c:1064:47
	ldrh	r1, [r1, #50]
	.loc	10 1064 56                      @ rt-thread/components/net/lwip-2.0.2/src/core/tcp.c:1064:56
	lsls	r1, r1, #1
	.loc	10 1064 31                      @ rt-thread/components/net/lwip-2.0.2/src/core/tcp.c:1064:31
	uxth	r1, r1
.Ltmp96:
	.loc	10 1064 15                      @ rt-thread/components/net/lwip-2.0.2/src/core/tcp.c:1064:15
	cmp	r0, r1
	bge	.LBB3_54
	b	.LBB3_53
.LBB3_53:                               @   in Loop: Header=BB3_4 Depth=2
.Ltmp97:
	.loc	10 1065 30 is_stmt 1            @ rt-thread/components/net/lwip-2.0.2/src/core/tcp.c:1065:30
	ldr	r1, [sp, #52]
	ldrh	r0, [r1, #50]
	.loc	10 1065 39 is_stmt 0            @ rt-thread/components/net/lwip-2.0.2/src/core/tcp.c:1065:39
	lsls	r0, r0, #1
	.loc	10 1065 27                      @ rt-thread/components/net/lwip-2.0.2/src/core/tcp.c:1065:27
	strh.w	r0, [r1, #74]
	.loc	10 1066 11 is_stmt 1            @ rt-thread/components/net/lwip-2.0.2/src/core/tcp.c:1066:11
	b	.LBB3_54
.Ltmp98:
.LBB3_54:                               @   in Loop: Header=BB3_4 Depth=2
	.loc	10 1067 23                      @ rt-thread/components/net/lwip-2.0.2/src/core/tcp.c:1067:23
	ldr	r1, [sp, #52]
	.loc	10 1067 28 is_stmt 0            @ rt-thread/components/net/lwip-2.0.2/src/core/tcp.c:1067:28
	ldrh	r0, [r1, #50]
	.loc	10 1067 21                      @ rt-thread/components/net/lwip-2.0.2/src/core/tcp.c:1067:21
	strh.w	r0, [r1, #72]
	.loc	10 1074 26 is_stmt 1            @ rt-thread/components/net/lwip-2.0.2/src/core/tcp.c:1074:26
	ldr	r0, [sp, #52]
	.loc	10 1074 11 is_stmt 0            @ rt-thread/components/net/lwip-2.0.2/src/core/tcp.c:1074:11
	bl	tcp_rexmit_rto
	.loc	10 1075 9 is_stmt 1             @ rt-thread/components/net/lwip-2.0.2/src/core/tcp.c:1075:9
	b	.LBB3_55
.Ltmp99:
.LBB3_55:                               @   in Loop: Header=BB3_4 Depth=2
	.loc	10 0 9 is_stmt 0                @ rt-thread/components/net/lwip-2.0.2/src/core/tcp.c:0:9
	b	.LBB3_56
.LBB3_56:                               @   in Loop: Header=BB3_4 Depth=2
	b	.LBB3_57
.LBB3_57:                               @   in Loop: Header=BB3_4 Depth=2
	b	.LBB3_58
.LBB3_58:                               @   in Loop: Header=BB3_4 Depth=2
.Ltmp100:
	.loc	10 1079 9 is_stmt 1             @ rt-thread/components/net/lwip-2.0.2/src/core/tcp.c:1079:9
	ldr	r0, [sp, #52]
	.loc	10 1079 14 is_stmt 0            @ rt-thread/components/net/lwip-2.0.2/src/core/tcp.c:1079:14
	ldrb	r0, [r0, #20]
.Ltmp101:
	.loc	10 1079 9                       @ rt-thread/components/net/lwip-2.0.2/src/core/tcp.c:1079:9
	cmp	r0, #6
	bne	.LBB3_64
	b	.LBB3_59
.LBB3_59:                               @   in Loop: Header=BB3_4 Depth=2
.Ltmp102:
	.loc	10 1081 11 is_stmt 1            @ rt-thread/components/net/lwip-2.0.2/src/core/tcp.c:1081:11
	ldr	r0, [sp, #52]
	ldrb	r0, [r0, #26]
.Ltmp103:
	.loc	10 1081 11 is_stmt 0            @ rt-thread/components/net/lwip-2.0.2/src/core/tcp.c:1081:11
	lsls	r0, r0, #27
	cmp	r0, #0
	bpl	.LBB3_63
	b	.LBB3_60
.LBB3_60:                               @   in Loop: Header=BB3_4 Depth=2
.Ltmp104:
	.loc	10 1084 21 is_stmt 1            @ rt-thread/components/net/lwip-2.0.2/src/core/tcp.c:1084:21
	movw	r0, :lower16:tcp_ticks
	movt	r0, :upper16:tcp_ticks
	ldr	r0, [r0]
	.loc	10 1084 33 is_stmt 0            @ rt-thread/components/net/lwip-2.0.2/src/core/tcp.c:1084:33
	ldr	r1, [sp, #52]
	.loc	10 1084 38                      @ rt-thread/components/net/lwip-2.0.2/src/core/tcp.c:1084:38
	ldr	r1, [r1, #32]
	.loc	10 1084 31                      @ rt-thread/components/net/lwip-2.0.2/src/core/tcp.c:1084:31
	subs	r0, r0, r1
.Ltmp105:
	.loc	10 1084 13                      @ rt-thread/components/net/lwip-2.0.2/src/core/tcp.c:1084:13
	cmp	r0, #41
	blo	.LBB3_62
	b	.LBB3_61
.LBB3_61:                               @   in Loop: Header=BB3_4 Depth=2
.Ltmp106:
	.loc	10 1086 11 is_stmt 1            @ rt-thread/components/net/lwip-2.0.2/src/core/tcp.c:1086:11
	ldrb.w	r0, [sp, #45]
	adds	r0, #1
	strb.w	r0, [sp, #45]
	.loc	10 1088 9                       @ rt-thread/components/net/lwip-2.0.2/src/core/tcp.c:1088:9
	b	.LBB3_62
.Ltmp107:
.LBB3_62:                               @   in Loop: Header=BB3_4 Depth=2
	.loc	10 1089 7                       @ rt-thread/components/net/lwip-2.0.2/src/core/tcp.c:1089:7
	b	.LBB3_63
.Ltmp108:
.LBB3_63:                               @   in Loop: Header=BB3_4 Depth=2
	.loc	10 1090 5                       @ rt-thread/components/net/lwip-2.0.2/src/core/tcp.c:1090:5
	b	.LBB3_64
.Ltmp109:
.LBB3_64:                               @   in Loop: Header=BB3_4 Depth=2
	.loc	10 1093 9                       @ rt-thread/components/net/lwip-2.0.2/src/core/tcp.c:1093:9
	ldr	r0, [sp, #52]
	ldrb	r0, [r0, #8]
	.loc	10 1093 43 is_stmt 0            @ rt-thread/components/net/lwip-2.0.2/src/core/tcp.c:1093:43
	lsls	r0, r0, #28
	cmp	r0, #0
	bpl	.LBB3_75
	b	.LBB3_65
.LBB3_65:                               @   in Loop: Header=BB3_4 Depth=2
	.loc	10 1094 10 is_stmt 1            @ rt-thread/components/net/lwip-2.0.2/src/core/tcp.c:1094:10
	ldr	r0, [sp, #52]
	.loc	10 1094 15 is_stmt 0            @ rt-thread/components/net/lwip-2.0.2/src/core/tcp.c:1094:15
	ldrb	r0, [r0, #20]
	.loc	10 1094 37                      @ rt-thread/components/net/lwip-2.0.2/src/core/tcp.c:1094:37
	cmp	r0, #4
	beq	.LBB3_67
	b	.LBB3_66
.LBB3_66:                               @   in Loop: Header=BB3_4 Depth=2
	.loc	10 1095 10 is_stmt 1            @ rt-thread/components/net/lwip-2.0.2/src/core/tcp.c:1095:10
	ldr	r0, [sp, #52]
	.loc	10 1095 15 is_stmt 0            @ rt-thread/components/net/lwip-2.0.2/src/core/tcp.c:1095:15
	ldrb	r0, [r0, #20]
.Ltmp110:
	.loc	10 1093 9 is_stmt 1             @ rt-thread/components/net/lwip-2.0.2/src/core/tcp.c:1093:9
	cmp	r0, #7
	bne	.LBB3_75
	b	.LBB3_67
.LBB3_67:                               @   in Loop: Header=BB3_4 Depth=2
.Ltmp111:
	.loc	10 1096 19                      @ rt-thread/components/net/lwip-2.0.2/src/core/tcp.c:1096:19
	movw	r0, :lower16:tcp_ticks
	movt	r0, :upper16:tcp_ticks
	ldr	r0, [r0]
	.loc	10 1096 31 is_stmt 0            @ rt-thread/components/net/lwip-2.0.2/src/core/tcp.c:1096:31
	ldr	r1, [sp, #52]
	.loc	10 1096 36                      @ rt-thread/components/net/lwip-2.0.2/src/core/tcp.c:1096:36
	ldr.w	r12, [r1, #32]
	.loc	10 1097 16 is_stmt 1            @ rt-thread/components/net/lwip-2.0.2/src/core/tcp.c:1097:16
	ldr.w	r3, [r1, #144]
	.loc	10 1097 28 is_stmt 0            @ rt-thread/components/net/lwip-2.0.2/src/core/tcp.c:1097:28
	ldr.w	r2, [r1, #148]
	ldr.w	r1, [r1, #152]
	.loc	10 1096 29 is_stmt 1            @ rt-thread/components/net/lwip-2.0.2/src/core/tcp.c:1096:29
	sub.w	r0, r0, r12
	.loc	10 1097 26                      @ rt-thread/components/net/lwip-2.0.2/src/core/tcp.c:1097:26
	mla	r1, r1, r2, r3
	movw	r2, #19923
	movt	r2, #4194
	.loc	10 1097 47 is_stmt 0            @ rt-thread/components/net/lwip-2.0.2/src/core/tcp.c:1097:47
	umull	r2, r1, r1, r2
.Ltmp112:
	.loc	10 1096 11 is_stmt 1            @ rt-thread/components/net/lwip-2.0.2/src/core/tcp.c:1096:11
	cmp.w	r0, r1, lsr #5
	bls	.LBB3_69
	b	.LBB3_68
.LBB3_68:                               @   in Loop: Header=BB3_4 Depth=2
.Ltmp113:
	.loc	10 1103 9                       @ rt-thread/components/net/lwip-2.0.2/src/core/tcp.c:1103:9
	ldrb.w	r0, [sp, #45]
	adds	r0, #1
	strb.w	r0, [sp, #45]
	.loc	10 1104 9                       @ rt-thread/components/net/lwip-2.0.2/src/core/tcp.c:1104:9
	ldrb.w	r0, [sp, #44]
	adds	r0, #1
	strb.w	r0, [sp, #44]
	.loc	10 1105 7                       @ rt-thread/components/net/lwip-2.0.2/src/core/tcp.c:1105:7
	b	.LBB3_74
.Ltmp114:
.LBB3_69:                               @   in Loop: Header=BB3_4 Depth=2
	.loc	10 1105 26 is_stmt 0            @ rt-thread/components/net/lwip-2.0.2/src/core/tcp.c:1105:26
	movw	r0, :lower16:tcp_ticks
	movt	r0, :upper16:tcp_ticks
	ldr	r0, [r0]
	.loc	10 1105 38                      @ rt-thread/components/net/lwip-2.0.2/src/core/tcp.c:1105:38
	ldr	r1, [sp, #52]
	.loc	10 1105 43                      @ rt-thread/components/net/lwip-2.0.2/src/core/tcp.c:1105:43
	ldr.w	r12, [r1, #32]
	.loc	10 1106 23 is_stmt 1            @ rt-thread/components/net/lwip-2.0.2/src/core/tcp.c:1106:23
	ldr.w	r3, [r1, #144]
	.loc	10 1106 56 is_stmt 0            @ rt-thread/components/net/lwip-2.0.2/src/core/tcp.c:1106:56
	ldr.w	r2, [r1, #148]
	.loc	10 1105 36 is_stmt 1            @ rt-thread/components/net/lwip-2.0.2/src/core/tcp.c:1105:36
	sub.w	r0, r0, r12
	.loc	10 1106 40                      @ rt-thread/components/net/lwip-2.0.2/src/core/tcp.c:1106:40
	ldrb.w	r1, [r1, #158]
	.loc	10 1106 33 is_stmt 0            @ rt-thread/components/net/lwip-2.0.2/src/core/tcp.c:1106:33
	mla	r1, r1, r2, r3
	movw	r2, #19923
	movt	r2, #4194
	.loc	10 1107 17 is_stmt 1            @ rt-thread/components/net/lwip-2.0.2/src/core/tcp.c:1107:17
	umull	r2, r1, r1, r2
.Ltmp115:
	.loc	10 1105 18                      @ rt-thread/components/net/lwip-2.0.2/src/core/tcp.c:1105:18
	cmp.w	r0, r1, lsr #5
	bls	.LBB3_73
	b	.LBB3_70
.LBB3_70:                               @   in Loop: Header=BB3_4 Depth=2
.Ltmp116:
	.loc	10 1109 29                      @ rt-thread/components/net/lwip-2.0.2/src/core/tcp.c:1109:29
	ldr	r0, [sp, #52]
	.loc	10 1109 15 is_stmt 0            @ rt-thread/components/net/lwip-2.0.2/src/core/tcp.c:1109:15
	bl	tcp_keepalive
	.loc	10 1109 13                      @ rt-thread/components/net/lwip-2.0.2/src/core/tcp.c:1109:13
	strb.w	r0, [sp, #43]
.Ltmp117:
	.loc	10 1110 13 is_stmt 1            @ rt-thread/components/net/lwip-2.0.2/src/core/tcp.c:1110:13
	ldrsb.w	r0, [sp, #43]
.Ltmp118:
	.loc	10 1110 13 is_stmt 0            @ rt-thread/components/net/lwip-2.0.2/src/core/tcp.c:1110:13
	cbnz	r0, .LBB3_72
	b	.LBB3_71
.LBB3_71:                               @   in Loop: Header=BB3_4 Depth=2
.Ltmp119:
	.loc	10 1111 11 is_stmt 1            @ rt-thread/components/net/lwip-2.0.2/src/core/tcp.c:1111:11
	ldr	r1, [sp, #52]
	.loc	10 1111 29 is_stmt 0            @ rt-thread/components/net/lwip-2.0.2/src/core/tcp.c:1111:29
	ldrb.w	r0, [r1, #158]
	adds	r0, #1
	strb.w	r0, [r1, #158]
	.loc	10 1112 9 is_stmt 1             @ rt-thread/components/net/lwip-2.0.2/src/core/tcp.c:1112:9
	b	.LBB3_72
.Ltmp120:
.LBB3_72:                               @   in Loop: Header=BB3_4 Depth=2
	.loc	10 1113 7                       @ rt-thread/components/net/lwip-2.0.2/src/core/tcp.c:1113:7
	b	.LBB3_73
.Ltmp121:
.LBB3_73:                               @   in Loop: Header=BB3_4 Depth=2
	.loc	10 0 7 is_stmt 0                @ rt-thread/components/net/lwip-2.0.2/src/core/tcp.c:0:7
	b	.LBB3_74
.LBB3_74:                               @   in Loop: Header=BB3_4 Depth=2
	.loc	10 1114 5 is_stmt 1             @ rt-thread/components/net/lwip-2.0.2/src/core/tcp.c:1114:5
	b	.LBB3_75
.Ltmp122:
.LBB3_75:                               @   in Loop: Header=BB3_4 Depth=2
	.loc	10 1120 9                       @ rt-thread/components/net/lwip-2.0.2/src/core/tcp.c:1120:9
	ldr	r0, [sp, #52]
	.loc	10 1120 14 is_stmt 0            @ rt-thread/components/net/lwip-2.0.2/src/core/tcp.c:1120:14
	ldr	r0, [r0, #112]
	.loc	10 1120 28                      @ rt-thread/components/net/lwip-2.0.2/src/core/tcp.c:1120:28
	cbz	r0, .LBB3_78
	b	.LBB3_76
.LBB3_76:                               @   in Loop: Header=BB3_4 Depth=2
	.loc	10 1121 16 is_stmt 1            @ rt-thread/components/net/lwip-2.0.2/src/core/tcp.c:1121:16
	movw	r0, :lower16:tcp_ticks
	movt	r0, :upper16:tcp_ticks
	ldr	r0, [r0]
	.loc	10 1121 28 is_stmt 0            @ rt-thread/components/net/lwip-2.0.2/src/core/tcp.c:1121:28
	ldr	r1, [sp, #52]
	.loc	10 1121 33                      @ rt-thread/components/net/lwip-2.0.2/src/core/tcp.c:1121:33
	ldr	r2, [r1, #32]
	.loc	10 1121 26                      @ rt-thread/components/net/lwip-2.0.2/src/core/tcp.c:1121:26
	subs	r0, r0, r2
	.loc	10 1121 45                      @ rt-thread/components/net/lwip-2.0.2/src/core/tcp.c:1121:45
	ldrsh.w	r1, [r1, #64]
	.loc	10 1121 49                      @ rt-thread/components/net/lwip-2.0.2/src/core/tcp.c:1121:49
	add.w	r1, r1, r1, lsl #1
.Ltmp123:
	.loc	10 1120 9 is_stmt 1             @ rt-thread/components/net/lwip-2.0.2/src/core/tcp.c:1120:9
	cmp.w	r0, r1, lsl #1
	blo	.LBB3_78
	b	.LBB3_77
.LBB3_77:                               @   in Loop: Header=BB3_4 Depth=2
.Ltmp124:
	.loc	10 1122 21                      @ rt-thread/components/net/lwip-2.0.2/src/core/tcp.c:1122:21
	ldr	r0, [sp, #52]
	.loc	10 1122 26 is_stmt 0            @ rt-thread/components/net/lwip-2.0.2/src/core/tcp.c:1122:26
	ldr	r0, [r0, #112]
	.loc	10 1122 7                       @ rt-thread/components/net/lwip-2.0.2/src/core/tcp.c:1122:7
	bl	tcp_segs_free
	.loc	10 1123 7 is_stmt 1             @ rt-thread/components/net/lwip-2.0.2/src/core/tcp.c:1123:7
	ldr	r1, [sp, #52]
	movs	r0, #0
	.loc	10 1123 18 is_stmt 0            @ rt-thread/components/net/lwip-2.0.2/src/core/tcp.c:1123:18
	str	r0, [r1, #112]
	.loc	10 1125 5 is_stmt 1             @ rt-thread/components/net/lwip-2.0.2/src/core/tcp.c:1125:5
	b	.LBB3_78
.Ltmp125:
.LBB3_78:                               @   in Loop: Header=BB3_4 Depth=2
	.loc	10 1129 9                       @ rt-thread/components/net/lwip-2.0.2/src/core/tcp.c:1129:9
	ldr	r0, [sp, #52]
	.loc	10 1129 14 is_stmt 0            @ rt-thread/components/net/lwip-2.0.2/src/core/tcp.c:1129:14
	ldrb	r0, [r0, #20]
.Ltmp126:
	.loc	10 1129 9                       @ rt-thread/components/net/lwip-2.0.2/src/core/tcp.c:1129:9
	cmp	r0, #3
	bne	.LBB3_82
	b	.LBB3_79
.LBB3_79:                               @   in Loop: Header=BB3_4 Depth=2
.Ltmp127:
	.loc	10 1130 19 is_stmt 1            @ rt-thread/components/net/lwip-2.0.2/src/core/tcp.c:1130:19
	movw	r0, :lower16:tcp_ticks
	movt	r0, :upper16:tcp_ticks
	ldr	r0, [r0]
	.loc	10 1130 31 is_stmt 0            @ rt-thread/components/net/lwip-2.0.2/src/core/tcp.c:1130:31
	ldr	r1, [sp, #52]
	.loc	10 1130 36                      @ rt-thread/components/net/lwip-2.0.2/src/core/tcp.c:1130:36
	ldr	r1, [r1, #32]
	.loc	10 1130 29                      @ rt-thread/components/net/lwip-2.0.2/src/core/tcp.c:1130:29
	subs	r0, r0, r1
.Ltmp128:
	.loc	10 1130 11                      @ rt-thread/components/net/lwip-2.0.2/src/core/tcp.c:1130:11
	cmp	r0, #41
	blo	.LBB3_81
	b	.LBB3_80
.LBB3_80:                               @   in Loop: Header=BB3_4 Depth=2
.Ltmp129:
	.loc	10 1132 9 is_stmt 1             @ rt-thread/components/net/lwip-2.0.2/src/core/tcp.c:1132:9
	ldrb.w	r0, [sp, #45]
	adds	r0, #1
	strb.w	r0, [sp, #45]
	.loc	10 1134 7                       @ rt-thread/components/net/lwip-2.0.2/src/core/tcp.c:1134:7
	b	.LBB3_81
.Ltmp130:
.LBB3_81:                               @   in Loop: Header=BB3_4 Depth=2
	.loc	10 1135 5                       @ rt-thread/components/net/lwip-2.0.2/src/core/tcp.c:1135:5
	b	.LBB3_82
.Ltmp131:
.LBB3_82:                               @   in Loop: Header=BB3_4 Depth=2
	.loc	10 1138 9                       @ rt-thread/components/net/lwip-2.0.2/src/core/tcp.c:1138:9
	ldr	r0, [sp, #52]
	.loc	10 1138 14 is_stmt 0            @ rt-thread/components/net/lwip-2.0.2/src/core/tcp.c:1138:14
	ldrb	r0, [r0, #20]
.Ltmp132:
	.loc	10 1138 9                       @ rt-thread/components/net/lwip-2.0.2/src/core/tcp.c:1138:9
	cmp	r0, #9
	bne	.LBB3_86
	b	.LBB3_83
.LBB3_83:                               @   in Loop: Header=BB3_4 Depth=2
.Ltmp133:
	.loc	10 1139 19 is_stmt 1            @ rt-thread/components/net/lwip-2.0.2/src/core/tcp.c:1139:19
	movw	r0, :lower16:tcp_ticks
	movt	r0, :upper16:tcp_ticks
	ldr	r0, [r0]
	.loc	10 1139 31 is_stmt 0            @ rt-thread/components/net/lwip-2.0.2/src/core/tcp.c:1139:31
	ldr	r1, [sp, #52]
	.loc	10 1139 36                      @ rt-thread/components/net/lwip-2.0.2/src/core/tcp.c:1139:36
	ldr	r1, [r1, #32]
	.loc	10 1139 29                      @ rt-thread/components/net/lwip-2.0.2/src/core/tcp.c:1139:29
	subs	r0, r0, r1
.Ltmp134:
	.loc	10 1139 11                      @ rt-thread/components/net/lwip-2.0.2/src/core/tcp.c:1139:11
	cmp	r0, #241
	blo	.LBB3_85
	b	.LBB3_84
.LBB3_84:                               @   in Loop: Header=BB3_4 Depth=2
.Ltmp135:
	.loc	10 1140 9 is_stmt 1             @ rt-thread/components/net/lwip-2.0.2/src/core/tcp.c:1140:9
	ldrb.w	r0, [sp, #45]
	adds	r0, #1
	strb.w	r0, [sp, #45]
	.loc	10 1142 7                       @ rt-thread/components/net/lwip-2.0.2/src/core/tcp.c:1142:7
	b	.LBB3_85
.Ltmp136:
.LBB3_85:                               @   in Loop: Header=BB3_4 Depth=2
	.loc	10 1143 5                       @ rt-thread/components/net/lwip-2.0.2/src/core/tcp.c:1143:5
	b	.LBB3_86
.Ltmp137:
.LBB3_86:                               @   in Loop: Header=BB3_4 Depth=2
	.loc	10 1146 9                       @ rt-thread/components/net/lwip-2.0.2/src/core/tcp.c:1146:9
	ldrb.w	r0, [sp, #45]
.Ltmp138:
	.loc	10 1146 9 is_stmt 0             @ rt-thread/components/net/lwip-2.0.2/src/core/tcp.c:1146:9
	cmp	r0, #0
	beq.w	.LBB3_111
	b	.LBB3_87
.LBB3_87:                               @   in Loop: Header=BB3_4 Depth=2
.Ltmp139:
	.loc	10 1149 27 is_stmt 1            @ rt-thread/components/net/lwip-2.0.2/src/core/tcp.c:1149:27
	ldr	r0, [sp, #52]
	.loc	10 1149 32 is_stmt 0            @ rt-thread/components/net/lwip-2.0.2/src/core/tcp.c:1149:32
	ldr.w	r0, [r0, #140]
	.loc	10 1149 18                      @ rt-thread/components/net/lwip-2.0.2/src/core/tcp.c:1149:18
	str	r0, [sp, #32]
	.loc	10 1153 21 is_stmt 1            @ rt-thread/components/net/lwip-2.0.2/src/core/tcp.c:1153:21
	ldr	r0, [sp, #52]
	.loc	10 1153 7 is_stmt 0             @ rt-thread/components/net/lwip-2.0.2/src/core/tcp.c:1153:7
	bl	tcp_pcb_purge
.Ltmp140:
	.loc	10 1155 11 is_stmt 1            @ rt-thread/components/net/lwip-2.0.2/src/core/tcp.c:1155:11
	ldr	r0, [sp, #48]
.Ltmp141:
	.loc	10 1155 11 is_stmt 0            @ rt-thread/components/net/lwip-2.0.2/src/core/tcp.c:1155:11
	cbz	r0, .LBB3_95
	b	.LBB3_88
.LBB3_88:                               @   in Loop: Header=BB3_4 Depth=2
.Ltmp142:
	.loc	10 1156 9 is_stmt 1             @ rt-thread/components/net/lwip-2.0.2/src/core/tcp.c:1156:9
	b	.LBB3_89
.LBB3_89:                               @   in Loop: Header=BB3_4 Depth=2
.Ltmp143:
	.loc	10 1156 9 is_stmt 0             @ rt-thread/components/net/lwip-2.0.2/src/core/tcp.c:1156:9
	ldr	r0, [sp, #52]
	movw	r1, :lower16:tcp_active_pcbs
	movt	r1, :upper16:tcp_active_pcbs
	ldr	r1, [r1]
.Ltmp144:
	.loc	10 1156 9                       @ rt-thread/components/net/lwip-2.0.2/src/core/tcp.c:1156:9
	cmp	r0, r1
	bne	.LBB3_93
	b	.LBB3_90
.LBB3_90:                               @   in Loop: Header=BB3_4 Depth=2
.Ltmp145:
	.loc	10 1156 9                       @ rt-thread/components/net/lwip-2.0.2/src/core/tcp.c:1156:9
	b	.LBB3_91
.LBB3_91:                               @   in Loop: Header=BB3_4 Depth=2
.Ltmp146:
	.loc	10 1156 9                       @ rt-thread/components/net/lwip-2.0.2/src/core/tcp.c:1156:9
	movw	r0, :lower16:.L.str.11
	movt	r0, :upper16:.L.str.11
	bl	rt_kprintf
	movw	r0, :lower16:.L.str.1
	movt	r0, :upper16:.L.str.1
	movw	r1, #1156
	bl	sys_arch_assert
	b	.LBB3_92
.Ltmp147:
.LBB3_92:                               @   in Loop: Header=BB3_4 Depth=2
	.loc	10 1156 9                       @ rt-thread/components/net/lwip-2.0.2/src/core/tcp.c:1156:9
	b	.LBB3_93
.Ltmp148:
.LBB3_93:                               @   in Loop: Header=BB3_4 Depth=2
	.loc	10 1156 9                       @ rt-thread/components/net/lwip-2.0.2/src/core/tcp.c:1156:9
	b	.LBB3_94
.Ltmp149:
.LBB3_94:                               @   in Loop: Header=BB3_4 Depth=2
	.loc	10 1157 22 is_stmt 1            @ rt-thread/components/net/lwip-2.0.2/src/core/tcp.c:1157:22
	ldr	r0, [sp, #52]
	.loc	10 1157 27 is_stmt 0            @ rt-thread/components/net/lwip-2.0.2/src/core/tcp.c:1157:27
	ldr	r0, [r0, #12]
	.loc	10 1157 9                       @ rt-thread/components/net/lwip-2.0.2/src/core/tcp.c:1157:9
	ldr	r1, [sp, #48]
	.loc	10 1157 20                      @ rt-thread/components/net/lwip-2.0.2/src/core/tcp.c:1157:20
	str	r0, [r1, #12]
	.loc	10 1158 7 is_stmt 1             @ rt-thread/components/net/lwip-2.0.2/src/core/tcp.c:1158:7
	b	.LBB3_102
.Ltmp150:
.LBB3_95:                               @   in Loop: Header=BB3_4 Depth=2
	.loc	10 1160 9                       @ rt-thread/components/net/lwip-2.0.2/src/core/tcp.c:1160:9
	b	.LBB3_96
.LBB3_96:                               @   in Loop: Header=BB3_4 Depth=2
.Ltmp151:
	.loc	10 1160 9 is_stmt 0             @ rt-thread/components/net/lwip-2.0.2/src/core/tcp.c:1160:9
	movw	r0, :lower16:tcp_active_pcbs
	movt	r0, :upper16:tcp_active_pcbs
	ldr	r0, [r0]
	ldr	r1, [sp, #52]
.Ltmp152:
	.loc	10 1160 9                       @ rt-thread/components/net/lwip-2.0.2/src/core/tcp.c:1160:9
	cmp	r0, r1
	beq	.LBB3_100
	b	.LBB3_97
.LBB3_97:                               @   in Loop: Header=BB3_4 Depth=2
.Ltmp153:
	.loc	10 1160 9                       @ rt-thread/components/net/lwip-2.0.2/src/core/tcp.c:1160:9
	b	.LBB3_98
.LBB3_98:                               @   in Loop: Header=BB3_4 Depth=2
.Ltmp154:
	.loc	10 1160 9                       @ rt-thread/components/net/lwip-2.0.2/src/core/tcp.c:1160:9
	movw	r0, :lower16:.L.str.12
	movt	r0, :upper16:.L.str.12
	bl	rt_kprintf
	movw	r0, :lower16:.L.str.1
	movt	r0, :upper16:.L.str.1
	mov.w	r1, #1160
	bl	sys_arch_assert
	b	.LBB3_99
.Ltmp155:
.LBB3_99:                               @   in Loop: Header=BB3_4 Depth=2
	.loc	10 1160 9                       @ rt-thread/components/net/lwip-2.0.2/src/core/tcp.c:1160:9
	b	.LBB3_100
.Ltmp156:
.LBB3_100:                              @   in Loop: Header=BB3_4 Depth=2
	.loc	10 1160 9                       @ rt-thread/components/net/lwip-2.0.2/src/core/tcp.c:1160:9
	b	.LBB3_101
.Ltmp157:
.LBB3_101:                              @   in Loop: Header=BB3_4 Depth=2
	.loc	10 1161 27 is_stmt 1            @ rt-thread/components/net/lwip-2.0.2/src/core/tcp.c:1161:27
	ldr	r0, [sp, #52]
	.loc	10 1161 32 is_stmt 0            @ rt-thread/components/net/lwip-2.0.2/src/core/tcp.c:1161:32
	ldr	r0, [r0, #12]
	.loc	10 1161 25                      @ rt-thread/components/net/lwip-2.0.2/src/core/tcp.c:1161:25
	movw	r1, :lower16:tcp_active_pcbs
	movt	r1, :upper16:tcp_active_pcbs
	str	r0, [r1]
	b	.LBB3_102
.Ltmp158:
.LBB3_102:                              @   in Loop: Header=BB3_4 Depth=2
	.loc	10 1164 11 is_stmt 1            @ rt-thread/components/net/lwip-2.0.2/src/core/tcp.c:1164:11
	ldrb.w	r0, [sp, #44]
.Ltmp159:
	.loc	10 1164 11 is_stmt 0            @ rt-thread/components/net/lwip-2.0.2/src/core/tcp.c:1164:11
	cbz	r0, .LBB3_104
	b	.LBB3_103
.LBB3_103:                              @   in Loop: Header=BB3_4 Depth=2
.Ltmp160:
	.loc	10 1165 17 is_stmt 1            @ rt-thread/components/net/lwip-2.0.2/src/core/tcp.c:1165:17
	ldr	r2, [sp, #52]
	.loc	10 1165 36 is_stmt 0            @ rt-thread/components/net/lwip-2.0.2/src/core/tcp.c:1165:36
	ldr	r1, [r2, #36]
	.loc	10 1165 22                      @ rt-thread/components/net/lwip-2.0.2/src/core/tcp.c:1165:22
	ldr	r0, [r2, #76]
	.loc	10 1165 67                      @ rt-thread/components/net/lwip-2.0.2/src/core/tcp.c:1165:67
	adds	r3, r2, #4
	.loc	10 1166 23 is_stmt 1            @ rt-thread/components/net/lwip-2.0.2/src/core/tcp.c:1166:23
	ldrh.w	r12, [r2, #22]
	.loc	10 1166 40 is_stmt 0            @ rt-thread/components/net/lwip-2.0.2/src/core/tcp.c:1166:40
	ldrh	r4, [r2, #24]
	.loc	10 1165 9 is_stmt 1             @ rt-thread/components/net/lwip-2.0.2/src/core/tcp.c:1165:9
	mov	lr, sp
	str.w	r4, [lr, #4]
	str.w	r12, [lr]
	bl	tcp_rst
	.loc	10 1167 7                       @ rt-thread/components/net/lwip-2.0.2/src/core/tcp.c:1167:7
	b	.LBB3_104
.Ltmp161:
.LBB3_104:                              @   in Loop: Header=BB3_4 Depth=2
	.loc	10 1169 17                      @ rt-thread/components/net/lwip-2.0.2/src/core/tcp.c:1169:17
	ldr	r0, [sp, #52]
	.loc	10 1169 22 is_stmt 0            @ rt-thread/components/net/lwip-2.0.2/src/core/tcp.c:1169:22
	ldr	r0, [r0, #16]
	.loc	10 1169 15                      @ rt-thread/components/net/lwip-2.0.2/src/core/tcp.c:1169:15
	str	r0, [sp, #28]
	.loc	10 1170 20 is_stmt 1            @ rt-thread/components/net/lwip-2.0.2/src/core/tcp.c:1170:20
	ldr	r0, [sp, #52]
	.loc	10 1170 25 is_stmt 0            @ rt-thread/components/net/lwip-2.0.2/src/core/tcp.c:1170:25
	ldrb	r0, [r0, #20]
	.loc	10 1170 18                      @ rt-thread/components/net/lwip-2.0.2/src/core/tcp.c:1170:18
	strb.w	r0, [sp, #27]
	.loc	10 1171 14 is_stmt 1            @ rt-thread/components/net/lwip-2.0.2/src/core/tcp.c:1171:14
	ldr	r0, [sp, #52]
	.loc	10 1171 12 is_stmt 0            @ rt-thread/components/net/lwip-2.0.2/src/core/tcp.c:1171:12
	str	r0, [sp, #36]
	.loc	10 1172 13 is_stmt 1            @ rt-thread/components/net/lwip-2.0.2/src/core/tcp.c:1172:13
	ldr	r0, [sp, #52]
	.loc	10 1172 18 is_stmt 0            @ rt-thread/components/net/lwip-2.0.2/src/core/tcp.c:1172:18
	ldr	r0, [r0, #12]
	.loc	10 1172 11                      @ rt-thread/components/net/lwip-2.0.2/src/core/tcp.c:1172:11
	str	r0, [sp, #52]
	.loc	10 1173 31 is_stmt 1            @ rt-thread/components/net/lwip-2.0.2/src/core/tcp.c:1173:31
	ldr	r1, [sp, #36]
	movs	r0, #2
	.loc	10 1173 7 is_stmt 0             @ rt-thread/components/net/lwip-2.0.2/src/core/tcp.c:1173:7
	bl	memp_free
	.loc	10 1175 31 is_stmt 1            @ rt-thread/components/net/lwip-2.0.2/src/core/tcp.c:1175:31
	movw	r1, :lower16:tcp_active_pcbs_changed
	movt	r1, :upper16:tcp_active_pcbs_changed
	movs	r0, #0
	strb	r0, [r1]
	.loc	10 1176 7                       @ rt-thread/components/net/lwip-2.0.2/src/core/tcp.c:1176:7
	b	.LBB3_105
.LBB3_105:                              @   in Loop: Header=BB3_4 Depth=2
.Ltmp162:
	.loc	10 1176 7 is_stmt 0             @ rt-thread/components/net/lwip-2.0.2/src/core/tcp.c:1176:7
	ldr	r0, [sp, #32]
.Ltmp163:
	.loc	10 1176 7                       @ rt-thread/components/net/lwip-2.0.2/src/core/tcp.c:1176:7
	cbz	r0, .LBB3_107
	b	.LBB3_106
.LBB3_106:                              @   in Loop: Header=BB3_4 Depth=2
.Ltmp164:
	.loc	10 1176 7                       @ rt-thread/components/net/lwip-2.0.2/src/core/tcp.c:1176:7
	ldr	r2, [sp, #32]
	ldr	r0, [sp, #28]
	mvn	r1, #12
	blx	r2
	b	.LBB3_107
.Ltmp165:
.LBB3_107:                              @   in Loop: Header=BB3_4 Depth=2
	.loc	10 1176 7                       @ rt-thread/components/net/lwip-2.0.2/src/core/tcp.c:1176:7
	b	.LBB3_108
.Ltmp166:
.LBB3_108:                              @   in Loop: Header=BB3_4 Depth=2
	.loc	10 1177 11 is_stmt 1            @ rt-thread/components/net/lwip-2.0.2/src/core/tcp.c:1177:11
	movw	r0, :lower16:tcp_active_pcbs_changed
	movt	r0, :upper16:tcp_active_pcbs_changed
	ldrb	r0, [r0]
.Ltmp167:
	.loc	10 1177 11 is_stmt 0            @ rt-thread/components/net/lwip-2.0.2/src/core/tcp.c:1177:11
	cbz	r0, .LBB3_110
	b	.LBB3_109
.LBB3_109:                              @   in Loop: Header=BB3_1 Depth=1
.Ltmp168:
	.loc	10 1178 9 is_stmt 1             @ rt-thread/components/net/lwip-2.0.2/src/core/tcp.c:1178:9
	b	.LBB3_1
.Ltmp169:
.LBB3_110:                              @   in Loop: Header=BB3_4 Depth=2
	.loc	10 1180 5                       @ rt-thread/components/net/lwip-2.0.2/src/core/tcp.c:1180:5
	b	.LBB3_123
.Ltmp170:
.LBB3_111:                              @   in Loop: Header=BB3_4 Depth=2
	.loc	10 1182 14                      @ rt-thread/components/net/lwip-2.0.2/src/core/tcp.c:1182:14
	ldr	r0, [sp, #52]
	.loc	10 1182 12 is_stmt 0            @ rt-thread/components/net/lwip-2.0.2/src/core/tcp.c:1182:12
	str	r0, [sp, #48]
	.loc	10 1183 13 is_stmt 1            @ rt-thread/components/net/lwip-2.0.2/src/core/tcp.c:1183:13
	ldr	r0, [sp, #52]
	.loc	10 1183 18 is_stmt 0            @ rt-thread/components/net/lwip-2.0.2/src/core/tcp.c:1183:18
	ldr	r0, [r0, #12]
	.loc	10 1183 11                      @ rt-thread/components/net/lwip-2.0.2/src/core/tcp.c:1183:11
	str	r0, [sp, #52]
	.loc	10 1186 9 is_stmt 1             @ rt-thread/components/net/lwip-2.0.2/src/core/tcp.c:1186:9
	ldr	r1, [sp, #48]
	.loc	10 1186 7 is_stmt 0             @ rt-thread/components/net/lwip-2.0.2/src/core/tcp.c:1186:7
	ldrb	r0, [r1, #27]
	adds	r0, #1
	strb	r0, [r1, #27]
.Ltmp171:
	.loc	10 1187 11 is_stmt 1            @ rt-thread/components/net/lwip-2.0.2/src/core/tcp.c:1187:11
	ldr	r1, [sp, #48]
	.loc	10 1187 17 is_stmt 0            @ rt-thread/components/net/lwip-2.0.2/src/core/tcp.c:1187:17
	ldrb	r0, [r1, #27]
	.loc	10 1187 34                      @ rt-thread/components/net/lwip-2.0.2/src/core/tcp.c:1187:34
	ldrb	r1, [r1, #28]
.Ltmp172:
	.loc	10 1187 11                      @ rt-thread/components/net/lwip-2.0.2/src/core/tcp.c:1187:11
	cmp	r0, r1
	blt	.LBB3_122
	b	.LBB3_112
.LBB3_112:                              @   in Loop: Header=BB3_4 Depth=2
.Ltmp173:
	.loc	10 1188 9 is_stmt 1             @ rt-thread/components/net/lwip-2.0.2/src/core/tcp.c:1188:9
	ldr	r1, [sp, #48]
	movs	r0, #0
	.loc	10 1188 23 is_stmt 0            @ rt-thread/components/net/lwip-2.0.2/src/core/tcp.c:1188:23
	strb	r0, [r1, #27]
	.loc	10 1190 33 is_stmt 1            @ rt-thread/components/net/lwip-2.0.2/src/core/tcp.c:1190:33
	movw	r1, :lower16:tcp_active_pcbs_changed
	movt	r1, :upper16:tcp_active_pcbs_changed
	strb	r0, [r1]
	.loc	10 1191 9                       @ rt-thread/components/net/lwip-2.0.2/src/core/tcp.c:1191:9
	b	.LBB3_113
.LBB3_113:                              @   in Loop: Header=BB3_4 Depth=2
.Ltmp174:
	.loc	10 1191 9 is_stmt 0             @ rt-thread/components/net/lwip-2.0.2/src/core/tcp.c:1191:9
	ldr	r0, [sp, #48]
	ldr.w	r0, [r0, #136]
.Ltmp175:
	.loc	10 1191 9                       @ rt-thread/components/net/lwip-2.0.2/src/core/tcp.c:1191:9
	cbz	r0, .LBB3_115
	b	.LBB3_114
.LBB3_114:                              @   in Loop: Header=BB3_4 Depth=2
.Ltmp176:
	.loc	10 1191 9                       @ rt-thread/components/net/lwip-2.0.2/src/core/tcp.c:1191:9
	ldr	r1, [sp, #48]
	ldr	r0, [r1, #16]
	ldr.w	r2, [r1, #136]
	blx	r2
	strb.w	r0, [sp, #43]
	b	.LBB3_116
.LBB3_115:                              @   in Loop: Header=BB3_4 Depth=2
	.loc	10 0 9                          @ rt-thread/components/net/lwip-2.0.2/src/core/tcp.c:0:9
	movs	r0, #0
	.loc	10 1191 9                       @ rt-thread/components/net/lwip-2.0.2/src/core/tcp.c:1191:9
	strb.w	r0, [sp, #43]
	b	.LBB3_116
.Ltmp177:
.LBB3_116:                              @   in Loop: Header=BB3_4 Depth=2
	.loc	10 1191 9                       @ rt-thread/components/net/lwip-2.0.2/src/core/tcp.c:1191:9
	b	.LBB3_117
.Ltmp178:
.LBB3_117:                              @   in Loop: Header=BB3_4 Depth=2
	.loc	10 1192 13 is_stmt 1            @ rt-thread/components/net/lwip-2.0.2/src/core/tcp.c:1192:13
	movw	r0, :lower16:tcp_active_pcbs_changed
	movt	r0, :upper16:tcp_active_pcbs_changed
	ldrb	r0, [r0]
.Ltmp179:
	.loc	10 1192 13 is_stmt 0            @ rt-thread/components/net/lwip-2.0.2/src/core/tcp.c:1192:13
	cbz	r0, .LBB3_119
	b	.LBB3_118
.LBB3_118:                              @   in Loop: Header=BB3_1 Depth=1
.Ltmp180:
	.loc	10 1193 11 is_stmt 1            @ rt-thread/components/net/lwip-2.0.2/src/core/tcp.c:1193:11
	b	.LBB3_1
.Ltmp181:
.LBB3_119:                              @   in Loop: Header=BB3_4 Depth=2
	.loc	10 1196 13                      @ rt-thread/components/net/lwip-2.0.2/src/core/tcp.c:1196:13
	ldrsb.w	r0, [sp, #43]
.Ltmp182:
	.loc	10 1196 13 is_stmt 0            @ rt-thread/components/net/lwip-2.0.2/src/core/tcp.c:1196:13
	cbnz	r0, .LBB3_121
	b	.LBB3_120
.LBB3_120:                              @   in Loop: Header=BB3_4 Depth=2
.Ltmp183:
	.loc	10 1197 22 is_stmt 1            @ rt-thread/components/net/lwip-2.0.2/src/core/tcp.c:1197:22
	ldr	r0, [sp, #48]
	.loc	10 1197 11 is_stmt 0            @ rt-thread/components/net/lwip-2.0.2/src/core/tcp.c:1197:11
	bl	tcp_output
	.loc	10 1198 9 is_stmt 1             @ rt-thread/components/net/lwip-2.0.2/src/core/tcp.c:1198:9
	b	.LBB3_121
.Ltmp184:
.LBB3_121:                              @   in Loop: Header=BB3_4 Depth=2
	.loc	10 1199 7                       @ rt-thread/components/net/lwip-2.0.2/src/core/tcp.c:1199:7
	b	.LBB3_122
.Ltmp185:
.LBB3_122:                              @   in Loop: Header=BB3_4 Depth=2
	.loc	10 0 7 is_stmt 0                @ rt-thread/components/net/lwip-2.0.2/src/core/tcp.c:0:7
	b	.LBB3_123
.LBB3_123:                              @   in Loop: Header=BB3_4 Depth=2
	.loc	10 1001 3 is_stmt 1             @ rt-thread/components/net/lwip-2.0.2/src/core/tcp.c:1001:3
	b	.LBB3_4
.LBB3_124:
	.loc	10 0 3 is_stmt 0                @ rt-thread/components/net/lwip-2.0.2/src/core/tcp.c:0:3
	movs	r0, #0
	.loc	10 1205 8 is_stmt 1             @ rt-thread/components/net/lwip-2.0.2/src/core/tcp.c:1205:8
	str	r0, [sp, #48]
	.loc	10 1206 9                       @ rt-thread/components/net/lwip-2.0.2/src/core/tcp.c:1206:9
	movw	r0, :lower16:tcp_tw_pcbs
	movt	r0, :upper16:tcp_tw_pcbs
	ldr	r0, [r0]
	.loc	10 1206 7 is_stmt 0             @ rt-thread/components/net/lwip-2.0.2/src/core/tcp.c:1206:7
	str	r0, [sp, #52]
	.loc	10 1207 3 is_stmt 1             @ rt-thread/components/net/lwip-2.0.2/src/core/tcp.c:1207:3
	b	.LBB3_125
.LBB3_125:                              @ =>This Inner Loop Header: Depth=1
	.loc	10 1207 10 is_stmt 0            @ rt-thread/components/net/lwip-2.0.2/src/core/tcp.c:1207:10
	ldr	r0, [sp, #52]
	.loc	10 1207 3                       @ rt-thread/components/net/lwip-2.0.2/src/core/tcp.c:1207:3
	cmp	r0, #0
	beq.w	.LBB3_153
	b	.LBB3_126
.LBB3_126:                              @   in Loop: Header=BB3_125 Depth=1
.Ltmp186:
	.loc	10 1208 5 is_stmt 1             @ rt-thread/components/net/lwip-2.0.2/src/core/tcp.c:1208:5
	b	.LBB3_127
.LBB3_127:                              @   in Loop: Header=BB3_125 Depth=1
.Ltmp187:
	.loc	10 1208 5 is_stmt 0             @ rt-thread/components/net/lwip-2.0.2/src/core/tcp.c:1208:5
	ldr	r0, [sp, #52]
	ldrb	r0, [r0, #20]
.Ltmp188:
	.loc	10 1208 5                       @ rt-thread/components/net/lwip-2.0.2/src/core/tcp.c:1208:5
	cmp	r0, #10
	beq	.LBB3_131
	b	.LBB3_128
.LBB3_128:                              @   in Loop: Header=BB3_125 Depth=1
.Ltmp189:
	.loc	10 1208 5                       @ rt-thread/components/net/lwip-2.0.2/src/core/tcp.c:1208:5
	b	.LBB3_129
.LBB3_129:                              @   in Loop: Header=BB3_125 Depth=1
.Ltmp190:
	.loc	10 1208 5                       @ rt-thread/components/net/lwip-2.0.2/src/core/tcp.c:1208:5
	movw	r0, :lower16:.L.str.13
	movt	r0, :upper16:.L.str.13
	bl	rt_kprintf
	movw	r0, :lower16:.L.str.1
	movt	r0, :upper16:.L.str.1
	mov.w	r1, #1208
	bl	sys_arch_assert
	b	.LBB3_130
.Ltmp191:
.LBB3_130:                              @   in Loop: Header=BB3_125 Depth=1
	.loc	10 1208 5                       @ rt-thread/components/net/lwip-2.0.2/src/core/tcp.c:1208:5
	b	.LBB3_131
.Ltmp192:
.LBB3_131:                              @   in Loop: Header=BB3_125 Depth=1
	.loc	10 1208 5                       @ rt-thread/components/net/lwip-2.0.2/src/core/tcp.c:1208:5
	b	.LBB3_132
.Ltmp193:
.LBB3_132:                              @   in Loop: Header=BB3_125 Depth=1
	.loc	10 0 5                          @ rt-thread/components/net/lwip-2.0.2/src/core/tcp.c:0:5
	movs	r0, #0
	.loc	10 1209 16 is_stmt 1            @ rt-thread/components/net/lwip-2.0.2/src/core/tcp.c:1209:16
	strb.w	r0, [sp, #45]
.Ltmp194:
	.loc	10 1212 17                      @ rt-thread/components/net/lwip-2.0.2/src/core/tcp.c:1212:17
	movw	r0, :lower16:tcp_ticks
	movt	r0, :upper16:tcp_ticks
	ldr	r0, [r0]
	.loc	10 1212 29 is_stmt 0            @ rt-thread/components/net/lwip-2.0.2/src/core/tcp.c:1212:29
	ldr	r1, [sp, #52]
	.loc	10 1212 34                      @ rt-thread/components/net/lwip-2.0.2/src/core/tcp.c:1212:34
	ldr	r1, [r1, #32]
	.loc	10 1212 27                      @ rt-thread/components/net/lwip-2.0.2/src/core/tcp.c:1212:27
	subs	r0, r0, r1
.Ltmp195:
	.loc	10 1212 9                       @ rt-thread/components/net/lwip-2.0.2/src/core/tcp.c:1212:9
	cmp	r0, #241
	blo	.LBB3_134
	b	.LBB3_133
.LBB3_133:                              @   in Loop: Header=BB3_125 Depth=1
.Ltmp196:
	.loc	10 1213 7 is_stmt 1             @ rt-thread/components/net/lwip-2.0.2/src/core/tcp.c:1213:7
	ldrb.w	r0, [sp, #45]
	adds	r0, #1
	strb.w	r0, [sp, #45]
	.loc	10 1214 5                       @ rt-thread/components/net/lwip-2.0.2/src/core/tcp.c:1214:5
	b	.LBB3_134
.Ltmp197:
.LBB3_134:                              @   in Loop: Header=BB3_125 Depth=1
	.loc	10 1217 9                       @ rt-thread/components/net/lwip-2.0.2/src/core/tcp.c:1217:9
	ldrb.w	r0, [sp, #45]
.Ltmp198:
	.loc	10 1217 9 is_stmt 0             @ rt-thread/components/net/lwip-2.0.2/src/core/tcp.c:1217:9
	cmp	r0, #0
	beq	.LBB3_151
	b	.LBB3_135
.LBB3_135:                              @   in Loop: Header=BB3_125 Depth=1
.Ltmp199:
	.loc	10 1219 21 is_stmt 1            @ rt-thread/components/net/lwip-2.0.2/src/core/tcp.c:1219:21
	ldr	r0, [sp, #52]
	.loc	10 1219 7 is_stmt 0             @ rt-thread/components/net/lwip-2.0.2/src/core/tcp.c:1219:7
	bl	tcp_pcb_purge
.Ltmp200:
	.loc	10 1221 11 is_stmt 1            @ rt-thread/components/net/lwip-2.0.2/src/core/tcp.c:1221:11
	ldr	r0, [sp, #48]
.Ltmp201:
	.loc	10 1221 11 is_stmt 0            @ rt-thread/components/net/lwip-2.0.2/src/core/tcp.c:1221:11
	cbz	r0, .LBB3_143
	b	.LBB3_136
.LBB3_136:                              @   in Loop: Header=BB3_125 Depth=1
.Ltmp202:
	.loc	10 1222 9 is_stmt 1             @ rt-thread/components/net/lwip-2.0.2/src/core/tcp.c:1222:9
	b	.LBB3_137
.LBB3_137:                              @   in Loop: Header=BB3_125 Depth=1
.Ltmp203:
	.loc	10 1222 9 is_stmt 0             @ rt-thread/components/net/lwip-2.0.2/src/core/tcp.c:1222:9
	ldr	r0, [sp, #52]
	movw	r1, :lower16:tcp_tw_pcbs
	movt	r1, :upper16:tcp_tw_pcbs
	ldr	r1, [r1]
.Ltmp204:
	.loc	10 1222 9                       @ rt-thread/components/net/lwip-2.0.2/src/core/tcp.c:1222:9
	cmp	r0, r1
	bne	.LBB3_141
	b	.LBB3_138
.LBB3_138:                              @   in Loop: Header=BB3_125 Depth=1
.Ltmp205:
	.loc	10 1222 9                       @ rt-thread/components/net/lwip-2.0.2/src/core/tcp.c:1222:9
	b	.LBB3_139
.LBB3_139:                              @   in Loop: Header=BB3_125 Depth=1
.Ltmp206:
	.loc	10 1222 9                       @ rt-thread/components/net/lwip-2.0.2/src/core/tcp.c:1222:9
	movw	r0, :lower16:.L.str.14
	movt	r0, :upper16:.L.str.14
	bl	rt_kprintf
	movw	r0, :lower16:.L.str.1
	movt	r0, :upper16:.L.str.1
	movw	r1, #1222
	bl	sys_arch_assert
	b	.LBB3_140
.Ltmp207:
.LBB3_140:                              @   in Loop: Header=BB3_125 Depth=1
	.loc	10 1222 9                       @ rt-thread/components/net/lwip-2.0.2/src/core/tcp.c:1222:9
	b	.LBB3_141
.Ltmp208:
.LBB3_141:                              @   in Loop: Header=BB3_125 Depth=1
	.loc	10 1222 9                       @ rt-thread/components/net/lwip-2.0.2/src/core/tcp.c:1222:9
	b	.LBB3_142
.Ltmp209:
.LBB3_142:                              @   in Loop: Header=BB3_125 Depth=1
	.loc	10 1223 22 is_stmt 1            @ rt-thread/components/net/lwip-2.0.2/src/core/tcp.c:1223:22
	ldr	r0, [sp, #52]
	.loc	10 1223 27 is_stmt 0            @ rt-thread/components/net/lwip-2.0.2/src/core/tcp.c:1223:27
	ldr	r0, [r0, #12]
	.loc	10 1223 9                       @ rt-thread/components/net/lwip-2.0.2/src/core/tcp.c:1223:9
	ldr	r1, [sp, #48]
	.loc	10 1223 20                      @ rt-thread/components/net/lwip-2.0.2/src/core/tcp.c:1223:20
	str	r0, [r1, #12]
	.loc	10 1224 7 is_stmt 1             @ rt-thread/components/net/lwip-2.0.2/src/core/tcp.c:1224:7
	b	.LBB3_150
.Ltmp210:
.LBB3_143:                              @   in Loop: Header=BB3_125 Depth=1
	.loc	10 1226 9                       @ rt-thread/components/net/lwip-2.0.2/src/core/tcp.c:1226:9
	b	.LBB3_144
.LBB3_144:                              @   in Loop: Header=BB3_125 Depth=1
.Ltmp211:
	.loc	10 1226 9 is_stmt 0             @ rt-thread/components/net/lwip-2.0.2/src/core/tcp.c:1226:9
	movw	r0, :lower16:tcp_tw_pcbs
	movt	r0, :upper16:tcp_tw_pcbs
	ldr	r0, [r0]
	ldr	r1, [sp, #52]
.Ltmp212:
	.loc	10 1226 9                       @ rt-thread/components/net/lwip-2.0.2/src/core/tcp.c:1226:9
	cmp	r0, r1
	beq	.LBB3_148
	b	.LBB3_145
.LBB3_145:                              @   in Loop: Header=BB3_125 Depth=1
.Ltmp213:
	.loc	10 1226 9                       @ rt-thread/components/net/lwip-2.0.2/src/core/tcp.c:1226:9
	b	.LBB3_146
.LBB3_146:                              @   in Loop: Header=BB3_125 Depth=1
.Ltmp214:
	.loc	10 1226 9                       @ rt-thread/components/net/lwip-2.0.2/src/core/tcp.c:1226:9
	movw	r0, :lower16:.L.str.15
	movt	r0, :upper16:.L.str.15
	bl	rt_kprintf
	movw	r0, :lower16:.L.str.1
	movt	r0, :upper16:.L.str.1
	movw	r1, #1226
	bl	sys_arch_assert
	b	.LBB3_147
.Ltmp215:
.LBB3_147:                              @   in Loop: Header=BB3_125 Depth=1
	.loc	10 1226 9                       @ rt-thread/components/net/lwip-2.0.2/src/core/tcp.c:1226:9
	b	.LBB3_148
.Ltmp216:
.LBB3_148:                              @   in Loop: Header=BB3_125 Depth=1
	.loc	10 1226 9                       @ rt-thread/components/net/lwip-2.0.2/src/core/tcp.c:1226:9
	b	.LBB3_149
.Ltmp217:
.LBB3_149:                              @   in Loop: Header=BB3_125 Depth=1
	.loc	10 1227 23 is_stmt 1            @ rt-thread/components/net/lwip-2.0.2/src/core/tcp.c:1227:23
	ldr	r0, [sp, #52]
	.loc	10 1227 28 is_stmt 0            @ rt-thread/components/net/lwip-2.0.2/src/core/tcp.c:1227:28
	ldr	r0, [r0, #12]
	.loc	10 1227 21                      @ rt-thread/components/net/lwip-2.0.2/src/core/tcp.c:1227:21
	movw	r1, :lower16:tcp_tw_pcbs
	movt	r1, :upper16:tcp_tw_pcbs
	str	r0, [r1]
	b	.LBB3_150
.Ltmp218:
.LBB3_150:                              @   in Loop: Header=BB3_125 Depth=1
	.loc	10 1229 14 is_stmt 1            @ rt-thread/components/net/lwip-2.0.2/src/core/tcp.c:1229:14
	ldr	r0, [sp, #52]
	.loc	10 1229 12 is_stmt 0            @ rt-thread/components/net/lwip-2.0.2/src/core/tcp.c:1229:12
	str	r0, [sp, #20]
	.loc	10 1230 13 is_stmt 1            @ rt-thread/components/net/lwip-2.0.2/src/core/tcp.c:1230:13
	ldr	r0, [sp, #52]
	.loc	10 1230 18 is_stmt 0            @ rt-thread/components/net/lwip-2.0.2/src/core/tcp.c:1230:18
	ldr	r0, [r0, #12]
	.loc	10 1230 11                      @ rt-thread/components/net/lwip-2.0.2/src/core/tcp.c:1230:11
	str	r0, [sp, #52]
	.loc	10 1231 31 is_stmt 1            @ rt-thread/components/net/lwip-2.0.2/src/core/tcp.c:1231:31
	ldr	r1, [sp, #20]
	movs	r0, #2
	.loc	10 1231 7 is_stmt 0             @ rt-thread/components/net/lwip-2.0.2/src/core/tcp.c:1231:7
	bl	memp_free
	.loc	10 1232 5 is_stmt 1             @ rt-thread/components/net/lwip-2.0.2/src/core/tcp.c:1232:5
	b	.LBB3_152
.Ltmp219:
.LBB3_151:                              @   in Loop: Header=BB3_125 Depth=1
	.loc	10 1233 14                      @ rt-thread/components/net/lwip-2.0.2/src/core/tcp.c:1233:14
	ldr	r0, [sp, #52]
	.loc	10 1233 12 is_stmt 0            @ rt-thread/components/net/lwip-2.0.2/src/core/tcp.c:1233:12
	str	r0, [sp, #48]
	.loc	10 1234 13 is_stmt 1            @ rt-thread/components/net/lwip-2.0.2/src/core/tcp.c:1234:13
	ldr	r0, [sp, #52]
	.loc	10 1234 18 is_stmt 0            @ rt-thread/components/net/lwip-2.0.2/src/core/tcp.c:1234:18
	ldr	r0, [r0, #12]
	.loc	10 1234 11                      @ rt-thread/components/net/lwip-2.0.2/src/core/tcp.c:1234:11
	str	r0, [sp, #52]
	b	.LBB3_152
.Ltmp220:
.LBB3_152:                              @   in Loop: Header=BB3_125 Depth=1
	.loc	10 1207 3 is_stmt 1             @ rt-thread/components/net/lwip-2.0.2/src/core/tcp.c:1207:3
	b	.LBB3_125
.LBB3_153:
	.loc	10 1237 1                       @ rt-thread/components/net/lwip-2.0.2/src/core/tcp.c:1237:1
	add	sp, #56
	pop	{r4, pc}
.Ltmp221:
.Lfunc_end3:
	.size	tcp_slowtmr, .Lfunc_end3-tcp_slowtmr
	.cfi_endproc
	.cantunwind
	.fnend
                                        @ -- End function
	.section	.text.tcp_close,"ax",%progbits
	.hidden	tcp_close                       @ -- Begin function tcp_close
	.globl	tcp_close
	.p2align	3
	.type	tcp_close,%function
	.code	16                              @ @tcp_close
	.thumb_func
tcp_close:
.Lfunc_begin4:
	.loc	10 395 0                        @ rt-thread/components/net/lwip-2.0.2/src/core/tcp.c:395:0
	.fnstart
	.cfi_startproc
@ %bb.0:
	.save	{r7, lr}
	push	{r7, lr}
	.cfi_def_cfa_offset 8
	.cfi_offset lr, -4
	.cfi_offset r7, -8
	.pad	#8
	sub	sp, #8
	.cfi_def_cfa_offset 16
	str	r0, [sp, #4]
.Ltmp222:
	.loc	10 399 7 prologue_end           @ rt-thread/components/net/lwip-2.0.2/src/core/tcp.c:399:7
	ldr	r0, [sp, #4]
	.loc	10 399 12 is_stmt 0             @ rt-thread/components/net/lwip-2.0.2/src/core/tcp.c:399:12
	ldrb	r0, [r0, #20]
.Ltmp223:
	.loc	10 399 7                        @ rt-thread/components/net/lwip-2.0.2/src/core/tcp.c:399:7
	cmp	r0, #1
	beq	.LBB4_2
	b	.LBB4_1
.LBB4_1:
.Ltmp224:
	.loc	10 401 5 is_stmt 1              @ rt-thread/components/net/lwip-2.0.2/src/core/tcp.c:401:5
	ldr	r1, [sp, #4]
	.loc	10 401 16 is_stmt 0             @ rt-thread/components/net/lwip-2.0.2/src/core/tcp.c:401:16
	ldrb	r0, [r1, #26]
	orr	r0, r0, #16
	strb	r0, [r1, #26]
	.loc	10 402 3 is_stmt 1              @ rt-thread/components/net/lwip-2.0.2/src/core/tcp.c:402:3
	b	.LBB4_2
.Ltmp225:
.LBB4_2:
	.loc	10 404 29                       @ rt-thread/components/net/lwip-2.0.2/src/core/tcp.c:404:29
	ldr	r0, [sp, #4]
	movs	r1, #1
	.loc	10 404 10 is_stmt 0             @ rt-thread/components/net/lwip-2.0.2/src/core/tcp.c:404:10
	bl	tcp_close_shutdown
	.loc	10 404 3                        @ rt-thread/components/net/lwip-2.0.2/src/core/tcp.c:404:3
	add	sp, #8
	pop	{r7, pc}
.Ltmp226:
.Lfunc_end4:
	.size	tcp_close, .Lfunc_end4-tcp_close
	.cfi_endproc
	.cantunwind
	.fnend
                                        @ -- End function
	.section	.text.tcp_close_shutdown,"ax",%progbits
	.p2align	3                               @ -- Begin function tcp_close_shutdown
	.type	tcp_close_shutdown,%function
	.code	16                              @ @tcp_close_shutdown
	.thumb_func
tcp_close_shutdown:
.Lfunc_begin5:
	.loc	10 266 0 is_stmt 1              @ rt-thread/components/net/lwip-2.0.2/src/core/tcp.c:266:0
	.fnstart
	.cfi_startproc
@ %bb.0:
	.save	{r4, lr}
	push	{r4, lr}
	.cfi_def_cfa_offset 8
	.cfi_offset lr, -4
	.cfi_offset r4, -8
	.pad	#32
	sub	sp, #32
	.cfi_def_cfa_offset 40
                                        @ kill: def $r2 killed $r1
	str	r0, [sp, #24]
	strb.w	r1, [sp, #23]
.Ltmp227:
	.loc	10 267 7 prologue_end           @ rt-thread/components/net/lwip-2.0.2/src/core/tcp.c:267:7
	ldrb.w	r0, [sp, #23]
	.loc	10 267 27 is_stmt 0             @ rt-thread/components/net/lwip-2.0.2/src/core/tcp.c:267:27
	cmp	r0, #0
	beq.w	.LBB5_34
	b	.LBB5_1
.LBB5_1:
	.loc	10 267 32                       @ rt-thread/components/net/lwip-2.0.2/src/core/tcp.c:267:32
	ldr	r0, [sp, #24]
	.loc	10 267 37                       @ rt-thread/components/net/lwip-2.0.2/src/core/tcp.c:267:37
	ldrb	r0, [r0, #20]
	.loc	10 267 59                       @ rt-thread/components/net/lwip-2.0.2/src/core/tcp.c:267:59
	cmp	r0, #4
	beq	.LBB5_3
	b	.LBB5_2
.LBB5_2:
	.loc	10 267 63                       @ rt-thread/components/net/lwip-2.0.2/src/core/tcp.c:267:63
	ldr	r0, [sp, #24]
	.loc	10 267 68                       @ rt-thread/components/net/lwip-2.0.2/src/core/tcp.c:267:68
	ldrb	r0, [r0, #20]
.Ltmp228:
	.loc	10 267 7                        @ rt-thread/components/net/lwip-2.0.2/src/core/tcp.c:267:7
	cmp	r0, #7
	bne.w	.LBB5_34
	b	.LBB5_3
.LBB5_3:
.Ltmp229:
	.loc	10 268 10 is_stmt 1             @ rt-thread/components/net/lwip-2.0.2/src/core/tcp.c:268:10
	ldr	r0, [sp, #24]
	.loc	10 268 15 is_stmt 0             @ rt-thread/components/net/lwip-2.0.2/src/core/tcp.c:268:15
	ldr	r0, [r0, #116]
	.loc	10 268 37                       @ rt-thread/components/net/lwip-2.0.2/src/core/tcp.c:268:37
	cbnz	r0, .LBB5_5
	b	.LBB5_4
.LBB5_4:
	.loc	10 268 41                       @ rt-thread/components/net/lwip-2.0.2/src/core/tcp.c:268:41
	ldr	r0, [sp, #24]
	.loc	10 268 46                       @ rt-thread/components/net/lwip-2.0.2/src/core/tcp.c:268:46
	ldrh	r0, [r0, #40]
	movw	r1, #8196
.Ltmp230:
	.loc	10 268 9                        @ rt-thread/components/net/lwip-2.0.2/src/core/tcp.c:268:9
	cmp	r0, r1
	beq.w	.LBB5_33
	b	.LBB5_5
.LBB5_5:
.Ltmp231:
	.loc	10 271 7 is_stmt 1              @ rt-thread/components/net/lwip-2.0.2/src/core/tcp.c:271:7
	b	.LBB5_6
.LBB5_6:
.Ltmp232:
	.loc	10 271 7 is_stmt 0              @ rt-thread/components/net/lwip-2.0.2/src/core/tcp.c:271:7
	ldr	r0, [sp, #24]
	ldrb	r0, [r0, #26]
.Ltmp233:
	.loc	10 271 7                        @ rt-thread/components/net/lwip-2.0.2/src/core/tcp.c:271:7
	lsls	r0, r0, #27
	cmp	r0, #0
	bmi	.LBB5_10
	b	.LBB5_7
.LBB5_7:
.Ltmp234:
	.loc	10 271 7                        @ rt-thread/components/net/lwip-2.0.2/src/core/tcp.c:271:7
	b	.LBB5_8
.LBB5_8:
.Ltmp235:
	.loc	10 271 7                        @ rt-thread/components/net/lwip-2.0.2/src/core/tcp.c:271:7
	movw	r0, :lower16:.L.str.23
	movt	r0, :upper16:.L.str.23
	bl	rt_kprintf
	movw	r0, :lower16:.L.str.1
	movt	r0, :upper16:.L.str.1
	movw	r1, #271
	bl	sys_arch_assert
	b	.LBB5_9
.Ltmp236:
.LBB5_9:
	.loc	10 271 7                        @ rt-thread/components/net/lwip-2.0.2/src/core/tcp.c:271:7
	b	.LBB5_10
.Ltmp237:
.LBB5_10:
	.loc	10 271 7                        @ rt-thread/components/net/lwip-2.0.2/src/core/tcp.c:271:7
	b	.LBB5_11
.Ltmp238:
.LBB5_11:
	.loc	10 275 15 is_stmt 1             @ rt-thread/components/net/lwip-2.0.2/src/core/tcp.c:275:15
	ldr	r2, [sp, #24]
	.loc	10 275 34 is_stmt 0             @ rt-thread/components/net/lwip-2.0.2/src/core/tcp.c:275:34
	ldr	r1, [r2, #36]
	.loc	10 275 20                       @ rt-thread/components/net/lwip-2.0.2/src/core/tcp.c:275:20
	ldr	r0, [r2, #76]
	.loc	10 275 65                       @ rt-thread/components/net/lwip-2.0.2/src/core/tcp.c:275:65
	adds	r3, r2, #4
	.loc	10 276 21 is_stmt 1             @ rt-thread/components/net/lwip-2.0.2/src/core/tcp.c:276:21
	ldrh.w	r12, [r2, #22]
	.loc	10 276 38 is_stmt 0             @ rt-thread/components/net/lwip-2.0.2/src/core/tcp.c:276:38
	ldrh	r4, [r2, #24]
	.loc	10 275 7 is_stmt 1              @ rt-thread/components/net/lwip-2.0.2/src/core/tcp.c:275:7
	mov	lr, sp
	str.w	r4, [lr, #4]
	str.w	r12, [lr]
	bl	tcp_rst
	.loc	10 278 21                       @ rt-thread/components/net/lwip-2.0.2/src/core/tcp.c:278:21
	ldr	r0, [sp, #24]
	.loc	10 278 7 is_stmt 0              @ rt-thread/components/net/lwip-2.0.2/src/core/tcp.c:278:7
	bl	tcp_pcb_purge
	.loc	10 279 7 is_stmt 1              @ rt-thread/components/net/lwip-2.0.2/src/core/tcp.c:279:7
	b	.LBB5_12
.LBB5_12:
.Ltmp239:
	.loc	10 279 7 is_stmt 0              @ rt-thread/components/net/lwip-2.0.2/src/core/tcp.c:279:7
	b	.LBB5_13
.LBB5_13:
.Ltmp240:
	.loc	10 279 7                        @ rt-thread/components/net/lwip-2.0.2/src/core/tcp.c:279:7
	movw	r0, :lower16:tcp_active_pcbs
	movt	r0, :upper16:tcp_active_pcbs
	ldr	r0, [r0]
	ldr	r1, [sp, #24]
.Ltmp241:
	.loc	10 279 7                        @ rt-thread/components/net/lwip-2.0.2/src/core/tcp.c:279:7
	cmp	r0, r1
	bne	.LBB5_15
	b	.LBB5_14
.LBB5_14:
.Ltmp242:
	.loc	10 279 7                        @ rt-thread/components/net/lwip-2.0.2/src/core/tcp.c:279:7
	movw	r1, :lower16:tcp_active_pcbs
	movt	r1, :upper16:tcp_active_pcbs
	ldr	r0, [r1]
	ldr	r0, [r0, #12]
	str	r0, [r1]
	b	.LBB5_22
.Ltmp243:
.LBB5_15:
	.loc	10 279 7                        @ rt-thread/components/net/lwip-2.0.2/src/core/tcp.c:279:7
	movw	r0, :lower16:tcp_active_pcbs
	movt	r0, :upper16:tcp_active_pcbs
	ldr	r0, [r0]
	str	r0, [sp, #16]
	b	.LBB5_16
.LBB5_16:                               @ =>This Inner Loop Header: Depth=1
.Ltmp244:
	.loc	10 279 7                        @ rt-thread/components/net/lwip-2.0.2/src/core/tcp.c:279:7
	ldr	r0, [sp, #16]
.Ltmp245:
	.loc	10 279 7                        @ rt-thread/components/net/lwip-2.0.2/src/core/tcp.c:279:7
	cbz	r0, .LBB5_21
	b	.LBB5_17
.LBB5_17:                               @   in Loop: Header=BB5_16 Depth=1
.Ltmp246:
	.loc	10 279 7                        @ rt-thread/components/net/lwip-2.0.2/src/core/tcp.c:279:7
	ldr	r0, [sp, #16]
	ldr	r0, [r0, #12]
	ldr	r1, [sp, #24]
.Ltmp247:
	.loc	10 279 7                        @ rt-thread/components/net/lwip-2.0.2/src/core/tcp.c:279:7
	cmp	r0, r1
	bne	.LBB5_19
	b	.LBB5_18
.LBB5_18:
.Ltmp248:
	.loc	10 279 7                        @ rt-thread/components/net/lwip-2.0.2/src/core/tcp.c:279:7
	ldr	r0, [sp, #24]
	ldr	r0, [r0, #12]
	ldr	r1, [sp, #16]
	str	r0, [r1, #12]
	b	.LBB5_21
.Ltmp249:
.LBB5_19:                               @   in Loop: Header=BB5_16 Depth=1
	.loc	10 279 7                        @ rt-thread/components/net/lwip-2.0.2/src/core/tcp.c:279:7
	b	.LBB5_20
.Ltmp250:
.LBB5_20:                               @   in Loop: Header=BB5_16 Depth=1
	.loc	10 279 7                        @ rt-thread/components/net/lwip-2.0.2/src/core/tcp.c:279:7
	ldr	r0, [sp, #16]
	ldr	r0, [r0, #12]
	str	r0, [sp, #16]
	b	.LBB5_16
.Ltmp251:
.LBB5_21:
	.loc	10 0 7                          @ rt-thread/components/net/lwip-2.0.2/src/core/tcp.c:0:7
	b	.LBB5_22
.LBB5_22:
	.loc	10 279 7                        @ rt-thread/components/net/lwip-2.0.2/src/core/tcp.c:279:7
	ldr	r1, [sp, #24]
	movs	r0, #0
	str	r0, [r1, #12]
	b	.LBB5_23
.Ltmp252:
.LBB5_23:
	.loc	10 279 7                        @ rt-thread/components/net/lwip-2.0.2/src/core/tcp.c:279:7
	movw	r1, :lower16:tcp_active_pcbs_changed
	movt	r1, :upper16:tcp_active_pcbs_changed
	movs	r0, #1
	strb	r0, [r1]
	b	.LBB5_24
.Ltmp253:
.LBB5_24:
	.loc	10 280 11 is_stmt 1             @ rt-thread/components/net/lwip-2.0.2/src/core/tcp.c:280:11
	ldr	r0, [sp, #24]
	.loc	10 280 16 is_stmt 0             @ rt-thread/components/net/lwip-2.0.2/src/core/tcp.c:280:16
	ldrb	r0, [r0, #20]
.Ltmp254:
	.loc	10 280 11                       @ rt-thread/components/net/lwip-2.0.2/src/core/tcp.c:280:11
	cmp	r0, #4
	bne	.LBB5_28
	b	.LBB5_25
.LBB5_25:
.Ltmp255:
	.loc	10 282 9 is_stmt 1              @ rt-thread/components/net/lwip-2.0.2/src/core/tcp.c:282:9
	ldr	r1, [sp, #24]
	movs	r0, #10
	.loc	10 282 20 is_stmt 0             @ rt-thread/components/net/lwip-2.0.2/src/core/tcp.c:282:20
	strb	r0, [r1, #20]
	.loc	10 283 9 is_stmt 1              @ rt-thread/components/net/lwip-2.0.2/src/core/tcp.c:283:9
	b	.LBB5_26
.LBB5_26:
.Ltmp256:
	.loc	10 283 9 is_stmt 0              @ rt-thread/components/net/lwip-2.0.2/src/core/tcp.c:283:9
	movw	r1, :lower16:tcp_tw_pcbs
	movt	r1, :upper16:tcp_tw_pcbs
	ldr	r0, [r1]
	ldr	r2, [sp, #24]
	str	r0, [r2, #12]
	ldr	r0, [sp, #24]
	str	r0, [r1]
	bl	tcp_timer_needed
	b	.LBB5_27
.Ltmp257:
.LBB5_27:
	.loc	10 284 7 is_stmt 1              @ rt-thread/components/net/lwip-2.0.2/src/core/tcp.c:284:7
	b	.LBB5_32
.Ltmp258:
.LBB5_28:
	.loc	10 286 13                       @ rt-thread/components/net/lwip-2.0.2/src/core/tcp.c:286:13
	movw	r0, :lower16:tcp_input_pcb
	movt	r0, :upper16:tcp_input_pcb
	ldr	r0, [r0]
	.loc	10 286 30 is_stmt 0             @ rt-thread/components/net/lwip-2.0.2/src/core/tcp.c:286:30
	ldr	r1, [sp, #24]
.Ltmp259:
	.loc	10 286 13                       @ rt-thread/components/net/lwip-2.0.2/src/core/tcp.c:286:13
	cmp	r0, r1
	bne	.LBB5_30
	b	.LBB5_29
.LBB5_29:
.Ltmp260:
	.loc	10 288 11 is_stmt 1             @ rt-thread/components/net/lwip-2.0.2/src/core/tcp.c:288:11
	bl	tcp_trigger_input_pcb_close
	.loc	10 289 9                        @ rt-thread/components/net/lwip-2.0.2/src/core/tcp.c:289:9
	b	.LBB5_31
.Ltmp261:
.LBB5_30:
	.loc	10 290 35                       @ rt-thread/components/net/lwip-2.0.2/src/core/tcp.c:290:35
	ldr	r1, [sp, #24]
	movs	r0, #2
	.loc	10 290 11 is_stmt 0             @ rt-thread/components/net/lwip-2.0.2/src/core/tcp.c:290:11
	bl	memp_free
	b	.LBB5_31
.Ltmp262:
.LBB5_31:
	.loc	10 0 11                         @ rt-thread/components/net/lwip-2.0.2/src/core/tcp.c:0:11
	b	.LBB5_32
.LBB5_32:
	movs	r0, #0
	.loc	10 293 7 is_stmt 1              @ rt-thread/components/net/lwip-2.0.2/src/core/tcp.c:293:7
	strb.w	r0, [sp, #31]
	b	.LBB5_57
.Ltmp263:
.LBB5_33:
	.loc	10 295 3                        @ rt-thread/components/net/lwip-2.0.2/src/core/tcp.c:295:3
	b	.LBB5_34
.Ltmp264:
.LBB5_34:
	.loc	10 299 11                       @ rt-thread/components/net/lwip-2.0.2/src/core/tcp.c:299:11
	ldr	r0, [sp, #24]
	.loc	10 299 16 is_stmt 0             @ rt-thread/components/net/lwip-2.0.2/src/core/tcp.c:299:16
	ldrb	r0, [r0, #20]
	.loc	10 299 3                        @ rt-thread/components/net/lwip-2.0.2/src/core/tcp.c:299:3
	mov	r1, r0
	str	r1, [sp, #8]                    @ 4-byte Spill
	cbz	r0, .LBB5_37
	b	.LBB5_35
.LBB5_35:
	ldr	r0, [sp, #8]                    @ 4-byte Reload
	cmp	r0, #1
	beq	.LBB5_51
	b	.LBB5_36
.LBB5_36:
	ldr	r0, [sp, #8]                    @ 4-byte Reload
	cmp	r0, #2
	beq	.LBB5_52
	b	.LBB5_55
.LBB5_37:
.Ltmp265:
	.loc	10 308 9 is_stmt 1              @ rt-thread/components/net/lwip-2.0.2/src/core/tcp.c:308:9
	ldr	r0, [sp, #24]
	.loc	10 308 14 is_stmt 0             @ rt-thread/components/net/lwip-2.0.2/src/core/tcp.c:308:14
	ldrh	r0, [r0, #22]
.Ltmp266:
	.loc	10 308 9                        @ rt-thread/components/net/lwip-2.0.2/src/core/tcp.c:308:9
	cbz	r0, .LBB5_50
	b	.LBB5_38
.LBB5_38:
.Ltmp267:
	.loc	10 309 7 is_stmt 1              @ rt-thread/components/net/lwip-2.0.2/src/core/tcp.c:309:7
	b	.LBB5_39
.LBB5_39:
.Ltmp268:
	.loc	10 309 7 is_stmt 0              @ rt-thread/components/net/lwip-2.0.2/src/core/tcp.c:309:7
	movw	r0, :lower16:tcp_bound_pcbs
	movt	r0, :upper16:tcp_bound_pcbs
	ldr	r0, [r0]
	ldr	r1, [sp, #24]
.Ltmp269:
	.loc	10 309 7                        @ rt-thread/components/net/lwip-2.0.2/src/core/tcp.c:309:7
	cmp	r0, r1
	bne	.LBB5_41
	b	.LBB5_40
.LBB5_40:
.Ltmp270:
	.loc	10 309 7                        @ rt-thread/components/net/lwip-2.0.2/src/core/tcp.c:309:7
	movw	r1, :lower16:tcp_bound_pcbs
	movt	r1, :upper16:tcp_bound_pcbs
	ldr	r0, [r1]
	ldr	r0, [r0, #12]
	str	r0, [r1]
	b	.LBB5_48
.Ltmp271:
.LBB5_41:
	.loc	10 309 7                        @ rt-thread/components/net/lwip-2.0.2/src/core/tcp.c:309:7
	movw	r0, :lower16:tcp_bound_pcbs
	movt	r0, :upper16:tcp_bound_pcbs
	ldr	r0, [r0]
	str	r0, [sp, #12]
	b	.LBB5_42
.LBB5_42:                               @ =>This Inner Loop Header: Depth=1
.Ltmp272:
	.loc	10 309 7                        @ rt-thread/components/net/lwip-2.0.2/src/core/tcp.c:309:7
	ldr	r0, [sp, #12]
.Ltmp273:
	.loc	10 309 7                        @ rt-thread/components/net/lwip-2.0.2/src/core/tcp.c:309:7
	cbz	r0, .LBB5_47
	b	.LBB5_43
.LBB5_43:                               @   in Loop: Header=BB5_42 Depth=1
.Ltmp274:
	.loc	10 309 7                        @ rt-thread/components/net/lwip-2.0.2/src/core/tcp.c:309:7
	ldr	r0, [sp, #12]
	ldr	r0, [r0, #12]
	ldr	r1, [sp, #24]
.Ltmp275:
	.loc	10 309 7                        @ rt-thread/components/net/lwip-2.0.2/src/core/tcp.c:309:7
	cmp	r0, r1
	bne	.LBB5_45
	b	.LBB5_44
.LBB5_44:
.Ltmp276:
	.loc	10 309 7                        @ rt-thread/components/net/lwip-2.0.2/src/core/tcp.c:309:7
	ldr	r0, [sp, #24]
	ldr	r0, [r0, #12]
	ldr	r1, [sp, #12]
	str	r0, [r1, #12]
	b	.LBB5_47
.Ltmp277:
.LBB5_45:                               @   in Loop: Header=BB5_42 Depth=1
	.loc	10 309 7                        @ rt-thread/components/net/lwip-2.0.2/src/core/tcp.c:309:7
	b	.LBB5_46
.Ltmp278:
.LBB5_46:                               @   in Loop: Header=BB5_42 Depth=1
	.loc	10 309 7                        @ rt-thread/components/net/lwip-2.0.2/src/core/tcp.c:309:7
	ldr	r0, [sp, #12]
	ldr	r0, [r0, #12]
	str	r0, [sp, #12]
	b	.LBB5_42
.Ltmp279:
.LBB5_47:
	.loc	10 0 7                          @ rt-thread/components/net/lwip-2.0.2/src/core/tcp.c:0:7
	b	.LBB5_48
.LBB5_48:
	.loc	10 309 7                        @ rt-thread/components/net/lwip-2.0.2/src/core/tcp.c:309:7
	ldr	r1, [sp, #24]
	movs	r0, #0
	str	r0, [r1, #12]
	b	.LBB5_49
.Ltmp280:
.LBB5_49:
	.loc	10 310 5 is_stmt 1              @ rt-thread/components/net/lwip-2.0.2/src/core/tcp.c:310:5
	b	.LBB5_50
.Ltmp281:
.LBB5_50:
	.loc	10 311 29                       @ rt-thread/components/net/lwip-2.0.2/src/core/tcp.c:311:29
	ldr	r1, [sp, #24]
	movs	r0, #2
	.loc	10 311 5 is_stmt 0              @ rt-thread/components/net/lwip-2.0.2/src/core/tcp.c:311:5
	bl	memp_free
	.loc	10 312 5 is_stmt 1              @ rt-thread/components/net/lwip-2.0.2/src/core/tcp.c:312:5
	b	.LBB5_56
.LBB5_51:
	.loc	10 314 23                       @ rt-thread/components/net/lwip-2.0.2/src/core/tcp.c:314:23
	ldr	r0, [sp, #24]
	.loc	10 314 5 is_stmt 0              @ rt-thread/components/net/lwip-2.0.2/src/core/tcp.c:314:5
	bl	tcp_listen_closed
	.loc	10 315 43 is_stmt 1             @ rt-thread/components/net/lwip-2.0.2/src/core/tcp.c:315:43
	ldr	r1, [sp, #24]
	.loc	10 315 5 is_stmt 0              @ rt-thread/components/net/lwip-2.0.2/src/core/tcp.c:315:5
	movw	r0, :lower16:tcp_listen_pcbs
	movt	r0, :upper16:tcp_listen_pcbs
	bl	tcp_pcb_remove
	.loc	10 316 36 is_stmt 1             @ rt-thread/components/net/lwip-2.0.2/src/core/tcp.c:316:36
	ldr	r1, [sp, #24]
	movs	r0, #3
	.loc	10 316 5 is_stmt 0              @ rt-thread/components/net/lwip-2.0.2/src/core/tcp.c:316:5
	bl	memp_free
	.loc	10 317 5 is_stmt 1              @ rt-thread/components/net/lwip-2.0.2/src/core/tcp.c:317:5
	b	.LBB5_56
.LBB5_52:
	.loc	10 319 5                        @ rt-thread/components/net/lwip-2.0.2/src/core/tcp.c:319:5
	b	.LBB5_53
.LBB5_53:
.Ltmp282:
	.loc	10 319 5 is_stmt 0              @ rt-thread/components/net/lwip-2.0.2/src/core/tcp.c:319:5
	ldr	r1, [sp, #24]
	movw	r0, :lower16:tcp_active_pcbs
	movt	r0, :upper16:tcp_active_pcbs
	bl	tcp_pcb_remove
	movw	r1, :lower16:tcp_active_pcbs_changed
	movt	r1, :upper16:tcp_active_pcbs_changed
	movs	r0, #1
	strb	r0, [r1]
	b	.LBB5_54
.Ltmp283:
.LBB5_54:
	.loc	10 320 29 is_stmt 1             @ rt-thread/components/net/lwip-2.0.2/src/core/tcp.c:320:29
	ldr	r1, [sp, #24]
	movs	r0, #2
	.loc	10 320 5 is_stmt 0              @ rt-thread/components/net/lwip-2.0.2/src/core/tcp.c:320:5
	bl	memp_free
	.loc	10 322 5 is_stmt 1              @ rt-thread/components/net/lwip-2.0.2/src/core/tcp.c:322:5
	b	.LBB5_56
.LBB5_55:
	.loc	10 324 35                       @ rt-thread/components/net/lwip-2.0.2/src/core/tcp.c:324:35
	ldr	r0, [sp, #24]
	.loc	10 324 12 is_stmt 0             @ rt-thread/components/net/lwip-2.0.2/src/core/tcp.c:324:12
	bl	tcp_close_shutdown_fin
	.loc	10 324 5                        @ rt-thread/components/net/lwip-2.0.2/src/core/tcp.c:324:5
	strb.w	r0, [sp, #31]
	b	.LBB5_57
.Ltmp284:
.LBB5_56:
	.loc	10 0 5                          @ rt-thread/components/net/lwip-2.0.2/src/core/tcp.c:0:5
	movs	r0, #0
	.loc	10 326 3 is_stmt 1              @ rt-thread/components/net/lwip-2.0.2/src/core/tcp.c:326:3
	strb.w	r0, [sp, #31]
	b	.LBB5_57
.LBB5_57:
	.loc	10 327 1                        @ rt-thread/components/net/lwip-2.0.2/src/core/tcp.c:327:1
	ldrsb.w	r0, [sp, #31]
	add	sp, #32
	pop	{r4, pc}
.Ltmp285:
.Lfunc_end5:
	.size	tcp_close_shutdown, .Lfunc_end5-tcp_close_shutdown
	.cfi_endproc
	.cantunwind
	.fnend
                                        @ -- End function
	.section	.text.tcp_shutdown,"ax",%progbits
	.hidden	tcp_shutdown                    @ -- Begin function tcp_shutdown
	.globl	tcp_shutdown
	.p2align	3
	.type	tcp_shutdown,%function
	.code	16                              @ @tcp_shutdown
	.thumb_func
tcp_shutdown:
.Lfunc_begin6:
	.loc	10 422 0                        @ rt-thread/components/net/lwip-2.0.2/src/core/tcp.c:422:0
	.fnstart
	.cfi_startproc
@ %bb.0:
	.save	{r7, lr}
	push	{r7, lr}
	.cfi_def_cfa_offset 8
	.cfi_offset lr, -4
	.cfi_offset r7, -8
	.pad	#24
	sub	sp, #24
	.cfi_def_cfa_offset 32
	str	r0, [sp, #16]
	str	r1, [sp, #12]
	str	r2, [sp, #8]
.Ltmp286:
	.loc	10 423 7 prologue_end           @ rt-thread/components/net/lwip-2.0.2/src/core/tcp.c:423:7
	ldr	r0, [sp, #16]
	.loc	10 423 12 is_stmt 0             @ rt-thread/components/net/lwip-2.0.2/src/core/tcp.c:423:12
	ldrb	r0, [r0, #20]
.Ltmp287:
	.loc	10 423 7                        @ rt-thread/components/net/lwip-2.0.2/src/core/tcp.c:423:7
	cmp	r0, #1
	bne	.LBB6_2
	b	.LBB6_1
.LBB6_1:
	.loc	10 0 7                          @ rt-thread/components/net/lwip-2.0.2/src/core/tcp.c:0:7
	movs	r0, #245
.Ltmp288:
	.loc	10 424 5 is_stmt 1              @ rt-thread/components/net/lwip-2.0.2/src/core/tcp.c:424:5
	strb.w	r0, [sp, #23]
	b	.LBB6_14
.Ltmp289:
.LBB6_2:
	.loc	10 426 7                        @ rt-thread/components/net/lwip-2.0.2/src/core/tcp.c:426:7
	ldr	r0, [sp, #12]
.Ltmp290:
	.loc	10 426 7 is_stmt 0              @ rt-thread/components/net/lwip-2.0.2/src/core/tcp.c:426:7
	cbz	r0, .LBB6_8
	b	.LBB6_3
.LBB6_3:
.Ltmp291:
	.loc	10 428 5 is_stmt 1              @ rt-thread/components/net/lwip-2.0.2/src/core/tcp.c:428:5
	ldr	r1, [sp, #16]
	.loc	10 428 16 is_stmt 0             @ rt-thread/components/net/lwip-2.0.2/src/core/tcp.c:428:16
	ldrb	r0, [r1, #26]
	orr	r0, r0, #16
	strb	r0, [r1, #26]
.Ltmp292:
	.loc	10 429 9 is_stmt 1              @ rt-thread/components/net/lwip-2.0.2/src/core/tcp.c:429:9
	ldr	r0, [sp, #8]
.Ltmp293:
	.loc	10 429 9 is_stmt 0              @ rt-thread/components/net/lwip-2.0.2/src/core/tcp.c:429:9
	cbz	r0, .LBB6_5
	b	.LBB6_4
.LBB6_4:
.Ltmp294:
	.loc	10 431 33 is_stmt 1             @ rt-thread/components/net/lwip-2.0.2/src/core/tcp.c:431:33
	ldr	r0, [sp, #16]
	movs	r1, #1
	.loc	10 431 14 is_stmt 0             @ rt-thread/components/net/lwip-2.0.2/src/core/tcp.c:431:14
	bl	tcp_close_shutdown
	.loc	10 431 7                        @ rt-thread/components/net/lwip-2.0.2/src/core/tcp.c:431:7
	strb.w	r0, [sp, #23]
	b	.LBB6_14
.Ltmp295:
.LBB6_5:
	.loc	10 434 9 is_stmt 1              @ rt-thread/components/net/lwip-2.0.2/src/core/tcp.c:434:9
	ldr	r0, [sp, #16]
	.loc	10 434 14 is_stmt 0             @ rt-thread/components/net/lwip-2.0.2/src/core/tcp.c:434:14
	ldr	r0, [r0, #116]
.Ltmp296:
	.loc	10 434 9                        @ rt-thread/components/net/lwip-2.0.2/src/core/tcp.c:434:9
	cbz	r0, .LBB6_7
	b	.LBB6_6
.LBB6_6:
.Ltmp297:
	.loc	10 435 17 is_stmt 1             @ rt-thread/components/net/lwip-2.0.2/src/core/tcp.c:435:17
	ldr	r0, [sp, #16]
	.loc	10 435 22 is_stmt 0             @ rt-thread/components/net/lwip-2.0.2/src/core/tcp.c:435:22
	ldr	r0, [r0, #116]
	.loc	10 435 7                        @ rt-thread/components/net/lwip-2.0.2/src/core/tcp.c:435:7
	bl	pbuf_free
	.loc	10 436 7 is_stmt 1              @ rt-thread/components/net/lwip-2.0.2/src/core/tcp.c:436:7
	ldr	r1, [sp, #16]
	movs	r0, #0
	.loc	10 436 25 is_stmt 0             @ rt-thread/components/net/lwip-2.0.2/src/core/tcp.c:436:25
	str	r0, [r1, #116]
	.loc	10 437 5 is_stmt 1              @ rt-thread/components/net/lwip-2.0.2/src/core/tcp.c:437:5
	b	.LBB6_7
.Ltmp298:
.LBB6_7:
	.loc	10 438 3                        @ rt-thread/components/net/lwip-2.0.2/src/core/tcp.c:438:3
	b	.LBB6_8
.Ltmp299:
.LBB6_8:
	.loc	10 439 7                        @ rt-thread/components/net/lwip-2.0.2/src/core/tcp.c:439:7
	ldr	r0, [sp, #8]
.Ltmp300:
	.loc	10 439 7 is_stmt 0              @ rt-thread/components/net/lwip-2.0.2/src/core/tcp.c:439:7
	cbz	r0, .LBB6_13
	b	.LBB6_9
.LBB6_9:
.Ltmp301:
	.loc	10 442 13 is_stmt 1             @ rt-thread/components/net/lwip-2.0.2/src/core/tcp.c:442:13
	ldr	r0, [sp, #16]
	.loc	10 442 18 is_stmt 0             @ rt-thread/components/net/lwip-2.0.2/src/core/tcp.c:442:18
	ldrb	r1, [r0, #20]
	.loc	10 442 5                        @ rt-thread/components/net/lwip-2.0.2/src/core/tcp.c:442:5
	subs	r0, r1, #3
	str	r1, [sp, #4]                    @ 4-byte Spill
	cmp	r0, #2
	blo	.LBB6_11
	b	.LBB6_10
.LBB6_10:
	ldr	r0, [sp, #4]                    @ 4-byte Reload
	cmp	r0, #7
	bne	.LBB6_12
	b	.LBB6_11
.LBB6_11:
.Ltmp302:
	.loc	10 446 33 is_stmt 1             @ rt-thread/components/net/lwip-2.0.2/src/core/tcp.c:446:33
	ldr	r0, [sp, #16]
	.loc	10 446 44 is_stmt 0             @ rt-thread/components/net/lwip-2.0.2/src/core/tcp.c:446:44
	ldrb.w	r1, [sp, #12]
	.loc	10 446 14                       @ rt-thread/components/net/lwip-2.0.2/src/core/tcp.c:446:14
	bl	tcp_close_shutdown
	.loc	10 446 7                        @ rt-thread/components/net/lwip-2.0.2/src/core/tcp.c:446:7
	strb.w	r0, [sp, #23]
	b	.LBB6_14
.LBB6_12:
	.loc	10 0 7                          @ rt-thread/components/net/lwip-2.0.2/src/core/tcp.c:0:7
	movs	r0, #245
	.loc	10 450 7 is_stmt 1              @ rt-thread/components/net/lwip-2.0.2/src/core/tcp.c:450:7
	strb.w	r0, [sp, #23]
	b	.LBB6_14
.Ltmp303:
.LBB6_13:
	.loc	10 0 7 is_stmt 0                @ rt-thread/components/net/lwip-2.0.2/src/core/tcp.c:0:7
	movs	r0, #0
	.loc	10 453 3 is_stmt 1              @ rt-thread/components/net/lwip-2.0.2/src/core/tcp.c:453:3
	strb.w	r0, [sp, #23]
	b	.LBB6_14
.LBB6_14:
	.loc	10 454 1                        @ rt-thread/components/net/lwip-2.0.2/src/core/tcp.c:454:1
	ldrsb.w	r0, [sp, #23]
	add	sp, #24
	pop	{r7, pc}
.Ltmp304:
.Lfunc_end6:
	.size	tcp_shutdown, .Lfunc_end6-tcp_shutdown
	.cfi_endproc
	.cantunwind
	.fnend
                                        @ -- End function
	.section	.text.tcp_abandon,"ax",%progbits
	.hidden	tcp_abandon                     @ -- Begin function tcp_abandon
	.globl	tcp_abandon
	.p2align	3
	.type	tcp_abandon,%function
	.code	16                              @ @tcp_abandon
	.thumb_func
tcp_abandon:
.Lfunc_begin7:
	.loc	10 466 0                        @ rt-thread/components/net/lwip-2.0.2/src/core/tcp.c:466:0
	.fnstart
	.cfi_startproc
@ %bb.0:
	.save	{r4, lr}
	push	{r4, lr}
	.cfi_def_cfa_offset 8
	.cfi_offset lr, -4
	.cfi_offset r4, -8
	.pad	#48
	sub	sp, #48
	.cfi_def_cfa_offset 56
	str	r0, [sp, #44]
	str	r1, [sp, #40]
.Ltmp305:
	.loc	10 474 3 prologue_end           @ rt-thread/components/net/lwip-2.0.2/src/core/tcp.c:474:3
	b	.LBB7_1
.LBB7_1:
.Ltmp306:
	.loc	10 474 3 is_stmt 0              @ rt-thread/components/net/lwip-2.0.2/src/core/tcp.c:474:3
	ldr	r0, [sp, #44]
	ldrb	r0, [r0, #20]
.Ltmp307:
	.loc	10 474 3                        @ rt-thread/components/net/lwip-2.0.2/src/core/tcp.c:474:3
	cmp	r0, #1
	bne	.LBB7_5
	b	.LBB7_2
.LBB7_2:
.Ltmp308:
	.loc	10 474 3                        @ rt-thread/components/net/lwip-2.0.2/src/core/tcp.c:474:3
	b	.LBB7_3
.LBB7_3:
.Ltmp309:
	.loc	10 474 3                        @ rt-thread/components/net/lwip-2.0.2/src/core/tcp.c:474:3
	movw	r0, :lower16:.L.str
	movt	r0, :upper16:.L.str
	bl	rt_kprintf
	movw	r0, :lower16:.L.str.1
	movt	r0, :upper16:.L.str.1
	movw	r1, #475
	bl	sys_arch_assert
	b	.LBB7_4
.Ltmp310:
.LBB7_4:
	.loc	10 474 3                        @ rt-thread/components/net/lwip-2.0.2/src/core/tcp.c:474:3
	b	.LBB7_5
.Ltmp311:
.LBB7_5:
	.loc	10 474 3                        @ rt-thread/components/net/lwip-2.0.2/src/core/tcp.c:474:3
	b	.LBB7_6
.Ltmp312:
.LBB7_6:
	.loc	10 479 7 is_stmt 1              @ rt-thread/components/net/lwip-2.0.2/src/core/tcp.c:479:7
	ldr	r0, [sp, #44]
	.loc	10 479 12 is_stmt 0             @ rt-thread/components/net/lwip-2.0.2/src/core/tcp.c:479:12
	ldrb	r0, [r0, #20]
.Ltmp313:
	.loc	10 479 7                        @ rt-thread/components/net/lwip-2.0.2/src/core/tcp.c:479:7
	cmp	r0, #10
	bne	.LBB7_8
	b	.LBB7_7
.LBB7_7:
.Ltmp314:
	.loc	10 480 34 is_stmt 1             @ rt-thread/components/net/lwip-2.0.2/src/core/tcp.c:480:34
	ldr	r1, [sp, #44]
	.loc	10 480 5 is_stmt 0              @ rt-thread/components/net/lwip-2.0.2/src/core/tcp.c:480:5
	movw	r0, :lower16:tcp_tw_pcbs
	movt	r0, :upper16:tcp_tw_pcbs
	bl	tcp_pcb_remove
	.loc	10 481 29 is_stmt 1             @ rt-thread/components/net/lwip-2.0.2/src/core/tcp.c:481:29
	ldr	r1, [sp, #44]
	movs	r0, #2
	.loc	10 481 5 is_stmt 0              @ rt-thread/components/net/lwip-2.0.2/src/core/tcp.c:481:5
	bl	memp_free
	.loc	10 482 3 is_stmt 1              @ rt-thread/components/net/lwip-2.0.2/src/core/tcp.c:482:3
	b	.LBB7_39
.Ltmp315:
.LBB7_8:
	.loc	10 0 3 is_stmt 0                @ rt-thread/components/net/lwip-2.0.2/src/core/tcp.c:0:3
	movs	r0, #0
.Ltmp316:
	.loc	10 483 9 is_stmt 1              @ rt-thread/components/net/lwip-2.0.2/src/core/tcp.c:483:9
	str	r0, [sp, #20]
	.loc	10 484 11                       @ rt-thread/components/net/lwip-2.0.2/src/core/tcp.c:484:11
	strh.w	r0, [sp, #18]
	.loc	10 486 13                       @ rt-thread/components/net/lwip-2.0.2/src/core/tcp.c:486:13
	ldr	r0, [sp, #44]
	.loc	10 486 18 is_stmt 0             @ rt-thread/components/net/lwip-2.0.2/src/core/tcp.c:486:18
	ldr	r0, [r0, #76]
	.loc	10 486 11                       @ rt-thread/components/net/lwip-2.0.2/src/core/tcp.c:486:11
	str	r0, [sp, #36]
	.loc	10 487 13 is_stmt 1             @ rt-thread/components/net/lwip-2.0.2/src/core/tcp.c:487:13
	ldr	r0, [sp, #44]
	.loc	10 487 18 is_stmt 0             @ rt-thread/components/net/lwip-2.0.2/src/core/tcp.c:487:18
	ldr	r0, [r0, #36]
	.loc	10 487 11                       @ rt-thread/components/net/lwip-2.0.2/src/core/tcp.c:487:11
	str	r0, [sp, #32]
	.loc	10 489 12 is_stmt 1             @ rt-thread/components/net/lwip-2.0.2/src/core/tcp.c:489:12
	ldr	r0, [sp, #44]
	.loc	10 489 17 is_stmt 0             @ rt-thread/components/net/lwip-2.0.2/src/core/tcp.c:489:17
	ldr.w	r0, [r0, #140]
	.loc	10 489 10                       @ rt-thread/components/net/lwip-2.0.2/src/core/tcp.c:489:10
	str	r0, [sp, #28]
	.loc	10 491 16 is_stmt 1             @ rt-thread/components/net/lwip-2.0.2/src/core/tcp.c:491:16
	ldr	r0, [sp, #44]
	.loc	10 491 21 is_stmt 0             @ rt-thread/components/net/lwip-2.0.2/src/core/tcp.c:491:21
	ldr	r0, [r0, #16]
	.loc	10 491 14                       @ rt-thread/components/net/lwip-2.0.2/src/core/tcp.c:491:14
	str	r0, [sp, #24]
.Ltmp317:
	.loc	10 492 9 is_stmt 1              @ rt-thread/components/net/lwip-2.0.2/src/core/tcp.c:492:9
	ldr	r0, [sp, #44]
	.loc	10 492 14 is_stmt 0             @ rt-thread/components/net/lwip-2.0.2/src/core/tcp.c:492:14
	ldrb	r0, [r0, #20]
.Ltmp318:
	.loc	10 492 9                        @ rt-thread/components/net/lwip-2.0.2/src/core/tcp.c:492:9
	cbnz	r0, .LBB7_23
	b	.LBB7_9
.LBB7_9:
.Ltmp319:
	.loc	10 493 11 is_stmt 1             @ rt-thread/components/net/lwip-2.0.2/src/core/tcp.c:493:11
	ldr	r0, [sp, #44]
	.loc	10 493 16 is_stmt 0             @ rt-thread/components/net/lwip-2.0.2/src/core/tcp.c:493:16
	ldrh	r0, [r0, #22]
.Ltmp320:
	.loc	10 493 11                       @ rt-thread/components/net/lwip-2.0.2/src/core/tcp.c:493:11
	cbz	r0, .LBB7_22
	b	.LBB7_10
.LBB7_10:
.Ltmp321:
	.loc	10 495 9 is_stmt 1              @ rt-thread/components/net/lwip-2.0.2/src/core/tcp.c:495:9
	b	.LBB7_11
.LBB7_11:
.Ltmp322:
	.loc	10 495 9 is_stmt 0              @ rt-thread/components/net/lwip-2.0.2/src/core/tcp.c:495:9
	movw	r0, :lower16:tcp_bound_pcbs
	movt	r0, :upper16:tcp_bound_pcbs
	ldr	r0, [r0]
	ldr	r1, [sp, #44]
.Ltmp323:
	.loc	10 495 9                        @ rt-thread/components/net/lwip-2.0.2/src/core/tcp.c:495:9
	cmp	r0, r1
	bne	.LBB7_13
	b	.LBB7_12
.LBB7_12:
.Ltmp324:
	.loc	10 495 9                        @ rt-thread/components/net/lwip-2.0.2/src/core/tcp.c:495:9
	movw	r1, :lower16:tcp_bound_pcbs
	movt	r1, :upper16:tcp_bound_pcbs
	ldr	r0, [r1]
	ldr	r0, [r0, #12]
	str	r0, [r1]
	b	.LBB7_20
.Ltmp325:
.LBB7_13:
	.loc	10 495 9                        @ rt-thread/components/net/lwip-2.0.2/src/core/tcp.c:495:9
	movw	r0, :lower16:tcp_bound_pcbs
	movt	r0, :upper16:tcp_bound_pcbs
	ldr	r0, [r0]
	str	r0, [sp, #12]
	b	.LBB7_14
.LBB7_14:                               @ =>This Inner Loop Header: Depth=1
.Ltmp326:
	.loc	10 495 9                        @ rt-thread/components/net/lwip-2.0.2/src/core/tcp.c:495:9
	ldr	r0, [sp, #12]
.Ltmp327:
	.loc	10 495 9                        @ rt-thread/components/net/lwip-2.0.2/src/core/tcp.c:495:9
	cbz	r0, .LBB7_19
	b	.LBB7_15
.LBB7_15:                               @   in Loop: Header=BB7_14 Depth=1
.Ltmp328:
	.loc	10 495 9                        @ rt-thread/components/net/lwip-2.0.2/src/core/tcp.c:495:9
	ldr	r0, [sp, #12]
	ldr	r0, [r0, #12]
	ldr	r1, [sp, #44]
.Ltmp329:
	.loc	10 495 9                        @ rt-thread/components/net/lwip-2.0.2/src/core/tcp.c:495:9
	cmp	r0, r1
	bne	.LBB7_17
	b	.LBB7_16
.LBB7_16:
.Ltmp330:
	.loc	10 495 9                        @ rt-thread/components/net/lwip-2.0.2/src/core/tcp.c:495:9
	ldr	r0, [sp, #44]
	ldr	r0, [r0, #12]
	ldr	r1, [sp, #12]
	str	r0, [r1, #12]
	b	.LBB7_19
.Ltmp331:
.LBB7_17:                               @   in Loop: Header=BB7_14 Depth=1
	.loc	10 495 9                        @ rt-thread/components/net/lwip-2.0.2/src/core/tcp.c:495:9
	b	.LBB7_18
.Ltmp332:
.LBB7_18:                               @   in Loop: Header=BB7_14 Depth=1
	.loc	10 495 9                        @ rt-thread/components/net/lwip-2.0.2/src/core/tcp.c:495:9
	ldr	r0, [sp, #12]
	ldr	r0, [r0, #12]
	str	r0, [sp, #12]
	b	.LBB7_14
.Ltmp333:
.LBB7_19:
	.loc	10 0 9                          @ rt-thread/components/net/lwip-2.0.2/src/core/tcp.c:0:9
	b	.LBB7_20
.LBB7_20:
	.loc	10 495 9                        @ rt-thread/components/net/lwip-2.0.2/src/core/tcp.c:495:9
	ldr	r1, [sp, #44]
	movs	r0, #0
	str	r0, [r1, #12]
	b	.LBB7_21
.Ltmp334:
.LBB7_21:
	.loc	10 496 7 is_stmt 1              @ rt-thread/components/net/lwip-2.0.2/src/core/tcp.c:496:7
	b	.LBB7_22
.Ltmp335:
.LBB7_22:
	.loc	10 497 5                        @ rt-thread/components/net/lwip-2.0.2/src/core/tcp.c:497:5
	b	.LBB7_26
.Ltmp336:
.LBB7_23:
	.loc	10 498 18                       @ rt-thread/components/net/lwip-2.0.2/src/core/tcp.c:498:18
	ldr	r0, [sp, #40]
	.loc	10 498 16 is_stmt 0             @ rt-thread/components/net/lwip-2.0.2/src/core/tcp.c:498:16
	str	r0, [sp, #20]
	.loc	10 499 20 is_stmt 1             @ rt-thread/components/net/lwip-2.0.2/src/core/tcp.c:499:20
	ldr	r0, [sp, #44]
	.loc	10 499 25 is_stmt 0             @ rt-thread/components/net/lwip-2.0.2/src/core/tcp.c:499:25
	ldrh	r0, [r0, #22]
	.loc	10 499 18                       @ rt-thread/components/net/lwip-2.0.2/src/core/tcp.c:499:18
	strh.w	r0, [sp, #18]
	.loc	10 500 7 is_stmt 1              @ rt-thread/components/net/lwip-2.0.2/src/core/tcp.c:500:7
	b	.LBB7_24
.LBB7_24:
.Ltmp337:
	.loc	10 500 7 is_stmt 0              @ rt-thread/components/net/lwip-2.0.2/src/core/tcp.c:500:7
	ldr	r1, [sp, #44]
	movw	r0, :lower16:tcp_active_pcbs
	movt	r0, :upper16:tcp_active_pcbs
	bl	tcp_pcb_remove
	movw	r1, :lower16:tcp_active_pcbs_changed
	movt	r1, :upper16:tcp_active_pcbs_changed
	movs	r0, #1
	strb	r0, [r1]
	b	.LBB7_25
.Ltmp338:
.LBB7_25:
	.loc	10 0 7                          @ rt-thread/components/net/lwip-2.0.2/src/core/tcp.c:0:7
	b	.LBB7_26
.LBB7_26:
.Ltmp339:
	.loc	10 502 9 is_stmt 1              @ rt-thread/components/net/lwip-2.0.2/src/core/tcp.c:502:9
	ldr	r0, [sp, #44]
	.loc	10 502 14 is_stmt 0             @ rt-thread/components/net/lwip-2.0.2/src/core/tcp.c:502:14
	ldr	r0, [r0, #108]
.Ltmp340:
	.loc	10 502 9                        @ rt-thread/components/net/lwip-2.0.2/src/core/tcp.c:502:9
	cbz	r0, .LBB7_28
	b	.LBB7_27
.LBB7_27:
.Ltmp341:
	.loc	10 503 21 is_stmt 1             @ rt-thread/components/net/lwip-2.0.2/src/core/tcp.c:503:21
	ldr	r0, [sp, #44]
	.loc	10 503 26 is_stmt 0             @ rt-thread/components/net/lwip-2.0.2/src/core/tcp.c:503:26
	ldr	r0, [r0, #108]
	.loc	10 503 7                        @ rt-thread/components/net/lwip-2.0.2/src/core/tcp.c:503:7
	bl	tcp_segs_free
	.loc	10 504 5 is_stmt 1              @ rt-thread/components/net/lwip-2.0.2/src/core/tcp.c:504:5
	b	.LBB7_28
.Ltmp342:
.LBB7_28:
	.loc	10 505 9                        @ rt-thread/components/net/lwip-2.0.2/src/core/tcp.c:505:9
	ldr	r0, [sp, #44]
	.loc	10 505 14 is_stmt 0             @ rt-thread/components/net/lwip-2.0.2/src/core/tcp.c:505:14
	ldr	r0, [r0, #104]
.Ltmp343:
	.loc	10 505 9                        @ rt-thread/components/net/lwip-2.0.2/src/core/tcp.c:505:9
	cbz	r0, .LBB7_30
	b	.LBB7_29
.LBB7_29:
.Ltmp344:
	.loc	10 506 21 is_stmt 1             @ rt-thread/components/net/lwip-2.0.2/src/core/tcp.c:506:21
	ldr	r0, [sp, #44]
	.loc	10 506 26 is_stmt 0             @ rt-thread/components/net/lwip-2.0.2/src/core/tcp.c:506:26
	ldr	r0, [r0, #104]
	.loc	10 506 7                        @ rt-thread/components/net/lwip-2.0.2/src/core/tcp.c:506:7
	bl	tcp_segs_free
	.loc	10 507 5 is_stmt 1              @ rt-thread/components/net/lwip-2.0.2/src/core/tcp.c:507:5
	b	.LBB7_30
.Ltmp345:
.LBB7_30:
	.loc	10 509 9                        @ rt-thread/components/net/lwip-2.0.2/src/core/tcp.c:509:9
	ldr	r0, [sp, #44]
	.loc	10 509 14 is_stmt 0             @ rt-thread/components/net/lwip-2.0.2/src/core/tcp.c:509:14
	ldr	r0, [r0, #112]
.Ltmp346:
	.loc	10 509 9                        @ rt-thread/components/net/lwip-2.0.2/src/core/tcp.c:509:9
	cbz	r0, .LBB7_32
	b	.LBB7_31
.LBB7_31:
.Ltmp347:
	.loc	10 510 21 is_stmt 1             @ rt-thread/components/net/lwip-2.0.2/src/core/tcp.c:510:21
	ldr	r0, [sp, #44]
	.loc	10 510 26 is_stmt 0             @ rt-thread/components/net/lwip-2.0.2/src/core/tcp.c:510:26
	ldr	r0, [r0, #112]
	.loc	10 510 7                        @ rt-thread/components/net/lwip-2.0.2/src/core/tcp.c:510:7
	bl	tcp_segs_free
	.loc	10 511 5 is_stmt 1              @ rt-thread/components/net/lwip-2.0.2/src/core/tcp.c:511:5
	b	.LBB7_32
.Ltmp348:
.LBB7_32:
	.loc	10 514 9                        @ rt-thread/components/net/lwip-2.0.2/src/core/tcp.c:514:9
	ldr	r0, [sp, #20]
.Ltmp349:
	.loc	10 514 9 is_stmt 0              @ rt-thread/components/net/lwip-2.0.2/src/core/tcp.c:514:9
	cbz	r0, .LBB7_34
	b	.LBB7_33
.LBB7_33:
.Ltmp350:
	.loc	10 516 15 is_stmt 1             @ rt-thread/components/net/lwip-2.0.2/src/core/tcp.c:516:15
	ldr	r0, [sp, #36]
	.loc	10 516 22 is_stmt 0             @ rt-thread/components/net/lwip-2.0.2/src/core/tcp.c:516:22
	ldr	r1, [sp, #32]
	.loc	10 516 30                       @ rt-thread/components/net/lwip-2.0.2/src/core/tcp.c:516:30
	ldr	r2, [sp, #44]
	.loc	10 516 51                       @ rt-thread/components/net/lwip-2.0.2/src/core/tcp.c:516:51
	adds	r3, r2, #4
	.loc	10 516 62                       @ rt-thread/components/net/lwip-2.0.2/src/core/tcp.c:516:62
	ldrh.w	r12, [sp, #18]
	.loc	10 516 79                       @ rt-thread/components/net/lwip-2.0.2/src/core/tcp.c:516:79
	ldrh	r4, [r2, #24]
	.loc	10 516 7                        @ rt-thread/components/net/lwip-2.0.2/src/core/tcp.c:516:7
	mov	lr, sp
	str.w	r4, [lr, #4]
	str.w	r12, [lr]
	bl	tcp_rst
	.loc	10 517 5 is_stmt 1              @ rt-thread/components/net/lwip-2.0.2/src/core/tcp.c:517:5
	b	.LBB7_34
.Ltmp351:
.LBB7_34:
	.loc	10 518 18                       @ rt-thread/components/net/lwip-2.0.2/src/core/tcp.c:518:18
	ldr	r0, [sp, #44]
	.loc	10 518 23 is_stmt 0             @ rt-thread/components/net/lwip-2.0.2/src/core/tcp.c:518:23
	ldrb	r0, [r0, #20]
	.loc	10 518 16                       @ rt-thread/components/net/lwip-2.0.2/src/core/tcp.c:518:16
	strb.w	r0, [sp, #17]
	.loc	10 519 29 is_stmt 1             @ rt-thread/components/net/lwip-2.0.2/src/core/tcp.c:519:29
	ldr	r1, [sp, #44]
	movs	r0, #2
	.loc	10 519 5 is_stmt 0              @ rt-thread/components/net/lwip-2.0.2/src/core/tcp.c:519:5
	bl	memp_free
	.loc	10 520 5 is_stmt 1              @ rt-thread/components/net/lwip-2.0.2/src/core/tcp.c:520:5
	b	.LBB7_35
.LBB7_35:
.Ltmp352:
	.loc	10 520 5 is_stmt 0              @ rt-thread/components/net/lwip-2.0.2/src/core/tcp.c:520:5
	ldr	r0, [sp, #28]
.Ltmp353:
	.loc	10 520 5                        @ rt-thread/components/net/lwip-2.0.2/src/core/tcp.c:520:5
	cbz	r0, .LBB7_37
	b	.LBB7_36
.LBB7_36:
.Ltmp354:
	.loc	10 520 5                        @ rt-thread/components/net/lwip-2.0.2/src/core/tcp.c:520:5
	ldr	r2, [sp, #28]
	ldr	r0, [sp, #24]
	mvn	r1, #12
	blx	r2
	b	.LBB7_37
.Ltmp355:
.LBB7_37:
	.loc	10 520 5                        @ rt-thread/components/net/lwip-2.0.2/src/core/tcp.c:520:5
	b	.LBB7_38
.Ltmp356:
.LBB7_38:
	.loc	10 0 5                          @ rt-thread/components/net/lwip-2.0.2/src/core/tcp.c:0:5
	b	.LBB7_39
.LBB7_39:
	.loc	10 522 1 is_stmt 1              @ rt-thread/components/net/lwip-2.0.2/src/core/tcp.c:522:1
	add	sp, #48
	pop	{r4, pc}
.Ltmp357:
.Lfunc_end7:
	.size	tcp_abandon, .Lfunc_end7-tcp_abandon
	.cfi_endproc
	.cantunwind
	.fnend
                                        @ -- End function
	.section	.text.tcp_pcb_remove,"ax",%progbits
	.hidden	tcp_pcb_remove                  @ -- Begin function tcp_pcb_remove
	.globl	tcp_pcb_remove
	.p2align	3
	.type	tcp_pcb_remove,%function
	.code	16                              @ @tcp_pcb_remove
	.thumb_func
tcp_pcb_remove:
.Lfunc_begin8:
	.loc	10 1856 0                       @ rt-thread/components/net/lwip-2.0.2/src/core/tcp.c:1856:0
	.fnstart
	.cfi_startproc
@ %bb.0:
	.save	{r7, lr}
	push	{r7, lr}
	.cfi_def_cfa_offset 8
	.cfi_offset lr, -4
	.cfi_offset r7, -8
	.pad	#16
	sub	sp, #16
	.cfi_def_cfa_offset 24
	str	r0, [sp, #12]
	str	r1, [sp, #8]
.Ltmp358:
	.loc	10 1857 3 prologue_end          @ rt-thread/components/net/lwip-2.0.2/src/core/tcp.c:1857:3
	b	.LBB8_1
.LBB8_1:
.Ltmp359:
	.loc	10 1857 3 is_stmt 0             @ rt-thread/components/net/lwip-2.0.2/src/core/tcp.c:1857:3
	ldr	r0, [sp, #12]
	ldr	r0, [r0]
	ldr	r1, [sp, #8]
.Ltmp360:
	.loc	10 1857 3                       @ rt-thread/components/net/lwip-2.0.2/src/core/tcp.c:1857:3
	cmp	r0, r1
	bne	.LBB8_3
	b	.LBB8_2
.LBB8_2:
.Ltmp361:
	.loc	10 1857 3                       @ rt-thread/components/net/lwip-2.0.2/src/core/tcp.c:1857:3
	ldr	r1, [sp, #12]
	ldr	r0, [r1]
	ldr	r0, [r0, #12]
	str	r0, [r1]
	b	.LBB8_10
.Ltmp362:
.LBB8_3:
	.loc	10 1857 3                       @ rt-thread/components/net/lwip-2.0.2/src/core/tcp.c:1857:3
	ldr	r0, [sp, #12]
	ldr	r0, [r0]
	str	r0, [sp, #4]
	b	.LBB8_4
.LBB8_4:                                @ =>This Inner Loop Header: Depth=1
.Ltmp363:
	.loc	10 1857 3                       @ rt-thread/components/net/lwip-2.0.2/src/core/tcp.c:1857:3
	ldr	r0, [sp, #4]
.Ltmp364:
	.loc	10 1857 3                       @ rt-thread/components/net/lwip-2.0.2/src/core/tcp.c:1857:3
	cbz	r0, .LBB8_9
	b	.LBB8_5
.LBB8_5:                                @   in Loop: Header=BB8_4 Depth=1
.Ltmp365:
	.loc	10 1857 3                       @ rt-thread/components/net/lwip-2.0.2/src/core/tcp.c:1857:3
	ldr	r0, [sp, #4]
	ldr	r0, [r0, #12]
	ldr	r1, [sp, #8]
.Ltmp366:
	.loc	10 1857 3                       @ rt-thread/components/net/lwip-2.0.2/src/core/tcp.c:1857:3
	cmp	r0, r1
	bne	.LBB8_7
	b	.LBB8_6
.LBB8_6:
.Ltmp367:
	.loc	10 1857 3                       @ rt-thread/components/net/lwip-2.0.2/src/core/tcp.c:1857:3
	ldr	r0, [sp, #8]
	ldr	r0, [r0, #12]
	ldr	r1, [sp, #4]
	str	r0, [r1, #12]
	b	.LBB8_9
.Ltmp368:
.LBB8_7:                                @   in Loop: Header=BB8_4 Depth=1
	.loc	10 1857 3                       @ rt-thread/components/net/lwip-2.0.2/src/core/tcp.c:1857:3
	b	.LBB8_8
.Ltmp369:
.LBB8_8:                                @   in Loop: Header=BB8_4 Depth=1
	.loc	10 1857 3                       @ rt-thread/components/net/lwip-2.0.2/src/core/tcp.c:1857:3
	ldr	r0, [sp, #4]
	ldr	r0, [r0, #12]
	str	r0, [sp, #4]
	b	.LBB8_4
.Ltmp370:
.LBB8_9:
	.loc	10 0 3                          @ rt-thread/components/net/lwip-2.0.2/src/core/tcp.c:0:3
	b	.LBB8_10
.LBB8_10:
	.loc	10 1857 3                       @ rt-thread/components/net/lwip-2.0.2/src/core/tcp.c:1857:3
	ldr	r1, [sp, #8]
	movs	r0, #0
	str	r0, [r1, #12]
	b	.LBB8_11
.Ltmp371:
.LBB8_11:
	.loc	10 1859 17 is_stmt 1            @ rt-thread/components/net/lwip-2.0.2/src/core/tcp.c:1859:17
	ldr	r0, [sp, #8]
	.loc	10 1859 3 is_stmt 0             @ rt-thread/components/net/lwip-2.0.2/src/core/tcp.c:1859:3
	bl	tcp_pcb_purge
.Ltmp372:
	.loc	10 1862 7 is_stmt 1             @ rt-thread/components/net/lwip-2.0.2/src/core/tcp.c:1862:7
	ldr	r0, [sp, #8]
	.loc	10 1862 12 is_stmt 0            @ rt-thread/components/net/lwip-2.0.2/src/core/tcp.c:1862:12
	ldrb	r0, [r0, #20]
	.loc	10 1862 31                      @ rt-thread/components/net/lwip-2.0.2/src/core/tcp.c:1862:31
	cmp	r0, #10
	beq	.LBB8_15
	b	.LBB8_12
.LBB8_12:
	.loc	10 1863 6 is_stmt 1             @ rt-thread/components/net/lwip-2.0.2/src/core/tcp.c:1863:6
	ldr	r0, [sp, #8]
	.loc	10 1863 11 is_stmt 0            @ rt-thread/components/net/lwip-2.0.2/src/core/tcp.c:1863:11
	ldrb	r0, [r0, #20]
	.loc	10 1863 27                      @ rt-thread/components/net/lwip-2.0.2/src/core/tcp.c:1863:27
	cmp	r0, #1
	beq	.LBB8_15
	b	.LBB8_13
.LBB8_13:
	.loc	10 1864 6 is_stmt 1             @ rt-thread/components/net/lwip-2.0.2/src/core/tcp.c:1864:6
	ldr	r0, [sp, #8]
	ldrb	r0, [r0, #26]
.Ltmp373:
	.loc	10 1862 7                       @ rt-thread/components/net/lwip-2.0.2/src/core/tcp.c:1862:7
	lsls	r0, r0, #31
	cbz	r0, .LBB8_15
	b	.LBB8_14
.LBB8_14:
.Ltmp374:
	.loc	10 1865 5                       @ rt-thread/components/net/lwip-2.0.2/src/core/tcp.c:1865:5
	ldr	r1, [sp, #8]
	.loc	10 1865 16 is_stmt 0            @ rt-thread/components/net/lwip-2.0.2/src/core/tcp.c:1865:16
	ldrb	r0, [r1, #26]
	orr	r0, r0, #2
	strb	r0, [r1, #26]
	.loc	10 1866 16 is_stmt 1            @ rt-thread/components/net/lwip-2.0.2/src/core/tcp.c:1866:16
	ldr	r0, [sp, #8]
	.loc	10 1866 5 is_stmt 0             @ rt-thread/components/net/lwip-2.0.2/src/core/tcp.c:1866:5
	bl	tcp_output
	.loc	10 1867 3 is_stmt 1             @ rt-thread/components/net/lwip-2.0.2/src/core/tcp.c:1867:3
	b	.LBB8_15
.Ltmp375:
.LBB8_15:
	.loc	10 1869 7                       @ rt-thread/components/net/lwip-2.0.2/src/core/tcp.c:1869:7
	ldr	r0, [sp, #8]
	.loc	10 1869 12 is_stmt 0            @ rt-thread/components/net/lwip-2.0.2/src/core/tcp.c:1869:12
	ldrb	r0, [r0, #20]
.Ltmp376:
	.loc	10 1869 7                       @ rt-thread/components/net/lwip-2.0.2/src/core/tcp.c:1869:7
	cmp	r0, #1
	beq	.LBB8_35
	b	.LBB8_16
.LBB8_16:
.Ltmp377:
	.loc	10 1870 5 is_stmt 1             @ rt-thread/components/net/lwip-2.0.2/src/core/tcp.c:1870:5
	b	.LBB8_17
.LBB8_17:
.Ltmp378:
	.loc	10 1870 5 is_stmt 0             @ rt-thread/components/net/lwip-2.0.2/src/core/tcp.c:1870:5
	ldr	r0, [sp, #8]
	ldr	r0, [r0, #104]
.Ltmp379:
	.loc	10 1870 5                       @ rt-thread/components/net/lwip-2.0.2/src/core/tcp.c:1870:5
	cbz	r0, .LBB8_21
	b	.LBB8_18
.LBB8_18:
.Ltmp380:
	.loc	10 1870 5                       @ rt-thread/components/net/lwip-2.0.2/src/core/tcp.c:1870:5
	b	.LBB8_19
.LBB8_19:
.Ltmp381:
	.loc	10 1870 5                       @ rt-thread/components/net/lwip-2.0.2/src/core/tcp.c:1870:5
	movw	r0, :lower16:.L.str.20
	movt	r0, :upper16:.L.str.20
	bl	rt_kprintf
	movw	r0, :lower16:.L.str.1
	movt	r0, :upper16:.L.str.1
	movw	r1, #1870
	bl	sys_arch_assert
	b	.LBB8_20
.Ltmp382:
.LBB8_20:
	.loc	10 1870 5                       @ rt-thread/components/net/lwip-2.0.2/src/core/tcp.c:1870:5
	b	.LBB8_21
.Ltmp383:
.LBB8_21:
	.loc	10 1870 5                       @ rt-thread/components/net/lwip-2.0.2/src/core/tcp.c:1870:5
	b	.LBB8_22
.Ltmp384:
.LBB8_22:
	.loc	10 1871 5 is_stmt 1             @ rt-thread/components/net/lwip-2.0.2/src/core/tcp.c:1871:5
	b	.LBB8_23
.LBB8_23:
.Ltmp385:
	.loc	10 1871 5 is_stmt 0             @ rt-thread/components/net/lwip-2.0.2/src/core/tcp.c:1871:5
	ldr	r0, [sp, #8]
	ldr	r0, [r0, #108]
.Ltmp386:
	.loc	10 1871 5                       @ rt-thread/components/net/lwip-2.0.2/src/core/tcp.c:1871:5
	cbz	r0, .LBB8_27
	b	.LBB8_24
.LBB8_24:
.Ltmp387:
	.loc	10 1871 5                       @ rt-thread/components/net/lwip-2.0.2/src/core/tcp.c:1871:5
	b	.LBB8_25
.LBB8_25:
.Ltmp388:
	.loc	10 1871 5                       @ rt-thread/components/net/lwip-2.0.2/src/core/tcp.c:1871:5
	movw	r0, :lower16:.L.str.21
	movt	r0, :upper16:.L.str.21
	bl	rt_kprintf
	movw	r0, :lower16:.L.str.1
	movt	r0, :upper16:.L.str.1
	movw	r1, #1871
	bl	sys_arch_assert
	b	.LBB8_26
.Ltmp389:
.LBB8_26:
	.loc	10 1871 5                       @ rt-thread/components/net/lwip-2.0.2/src/core/tcp.c:1871:5
	b	.LBB8_27
.Ltmp390:
.LBB8_27:
	.loc	10 1871 5                       @ rt-thread/components/net/lwip-2.0.2/src/core/tcp.c:1871:5
	b	.LBB8_28
.Ltmp391:
.LBB8_28:
	.loc	10 1873 5 is_stmt 1             @ rt-thread/components/net/lwip-2.0.2/src/core/tcp.c:1873:5
	b	.LBB8_29
.LBB8_29:
.Ltmp392:
	.loc	10 1873 5 is_stmt 0             @ rt-thread/components/net/lwip-2.0.2/src/core/tcp.c:1873:5
	ldr	r0, [sp, #8]
	ldr	r0, [r0, #112]
.Ltmp393:
	.loc	10 1873 5                       @ rt-thread/components/net/lwip-2.0.2/src/core/tcp.c:1873:5
	cbz	r0, .LBB8_33
	b	.LBB8_30
.LBB8_30:
.Ltmp394:
	.loc	10 1873 5                       @ rt-thread/components/net/lwip-2.0.2/src/core/tcp.c:1873:5
	b	.LBB8_31
.LBB8_31:
.Ltmp395:
	.loc	10 1873 5                       @ rt-thread/components/net/lwip-2.0.2/src/core/tcp.c:1873:5
	movw	r0, :lower16:.L.str.22
	movt	r0, :upper16:.L.str.22
	bl	rt_kprintf
	movw	r0, :lower16:.L.str.1
	movt	r0, :upper16:.L.str.1
	movw	r1, #1873
	bl	sys_arch_assert
	b	.LBB8_32
.Ltmp396:
.LBB8_32:
	.loc	10 1873 5                       @ rt-thread/components/net/lwip-2.0.2/src/core/tcp.c:1873:5
	b	.LBB8_33
.Ltmp397:
.LBB8_33:
	.loc	10 1873 5                       @ rt-thread/components/net/lwip-2.0.2/src/core/tcp.c:1873:5
	b	.LBB8_34
.Ltmp398:
.LBB8_34:
	.loc	10 1875 3 is_stmt 1             @ rt-thread/components/net/lwip-2.0.2/src/core/tcp.c:1875:3
	b	.LBB8_35
.Ltmp399:
.LBB8_35:
	.loc	10 1877 3                       @ rt-thread/components/net/lwip-2.0.2/src/core/tcp.c:1877:3
	ldr	r1, [sp, #8]
	movs	r0, #0
	.loc	10 1877 14 is_stmt 0            @ rt-thread/components/net/lwip-2.0.2/src/core/tcp.c:1877:14
	strb	r0, [r1, #20]
	.loc	10 1879 3 is_stmt 1             @ rt-thread/components/net/lwip-2.0.2/src/core/tcp.c:1879:3
	ldr	r1, [sp, #8]
	.loc	10 1879 19 is_stmt 0            @ rt-thread/components/net/lwip-2.0.2/src/core/tcp.c:1879:19
	strh	r0, [r1, #22]
	.loc	10 1881 3 is_stmt 1             @ rt-thread/components/net/lwip-2.0.2/src/core/tcp.c:1881:3
	b	.LBB8_36
.LBB8_36:
.Ltmp400:
	.loc	10 1881 3 is_stmt 0             @ rt-thread/components/net/lwip-2.0.2/src/core/tcp.c:1881:3
	b	.LBB8_37
.Ltmp401:
.LBB8_37:
	.loc	10 1882 1 is_stmt 1             @ rt-thread/components/net/lwip-2.0.2/src/core/tcp.c:1882:1
	add	sp, #16
	pop	{r7, pc}
.Ltmp402:
.Lfunc_end8:
	.size	tcp_pcb_remove, .Lfunc_end8-tcp_pcb_remove
	.cfi_endproc
	.cantunwind
	.fnend
                                        @ -- End function
	.section	.text.tcp_segs_free,"ax",%progbits
	.hidden	tcp_segs_free                   @ -- Begin function tcp_segs_free
	.globl	tcp_segs_free
	.p2align	3
	.type	tcp_segs_free,%function
	.code	16                              @ @tcp_segs_free
	.thumb_func
tcp_segs_free:
.Lfunc_begin9:
	.loc	10 1371 0                       @ rt-thread/components/net/lwip-2.0.2/src/core/tcp.c:1371:0
	.fnstart
	.cfi_startproc
@ %bb.0:
	.save	{r7, lr}
	push	{r7, lr}
	.cfi_def_cfa_offset 8
	.cfi_offset lr, -4
	.cfi_offset r7, -8
	.pad	#8
	sub	sp, #8
	.cfi_def_cfa_offset 16
	str	r0, [sp, #4]
.Ltmp403:
	.loc	10 1372 3 prologue_end          @ rt-thread/components/net/lwip-2.0.2/src/core/tcp.c:1372:3
	b	.LBB9_1
.LBB9_1:                                @ =>This Inner Loop Header: Depth=1
	.loc	10 1372 10 is_stmt 0            @ rt-thread/components/net/lwip-2.0.2/src/core/tcp.c:1372:10
	ldr	r0, [sp, #4]
	.loc	10 1372 3                       @ rt-thread/components/net/lwip-2.0.2/src/core/tcp.c:1372:3
	cbz	r0, .LBB9_3
	b	.LBB9_2
.LBB9_2:                                @   in Loop: Header=BB9_1 Depth=1
.Ltmp404:
	.loc	10 1373 28 is_stmt 1            @ rt-thread/components/net/lwip-2.0.2/src/core/tcp.c:1373:28
	ldr	r0, [sp, #4]
	.loc	10 1373 33 is_stmt 0            @ rt-thread/components/net/lwip-2.0.2/src/core/tcp.c:1373:33
	ldr	r0, [r0]
	.loc	10 1373 21                      @ rt-thread/components/net/lwip-2.0.2/src/core/tcp.c:1373:21
	str	r0, [sp]
	.loc	10 1374 18 is_stmt 1            @ rt-thread/components/net/lwip-2.0.2/src/core/tcp.c:1374:18
	ldr	r0, [sp, #4]
	.loc	10 1374 5 is_stmt 0             @ rt-thread/components/net/lwip-2.0.2/src/core/tcp.c:1374:5
	bl	tcp_seg_free
	.loc	10 1375 11 is_stmt 1            @ rt-thread/components/net/lwip-2.0.2/src/core/tcp.c:1375:11
	ldr	r0, [sp]
	.loc	10 1375 9 is_stmt 0             @ rt-thread/components/net/lwip-2.0.2/src/core/tcp.c:1375:9
	str	r0, [sp, #4]
.Ltmp405:
	.loc	10 1372 3 is_stmt 1             @ rt-thread/components/net/lwip-2.0.2/src/core/tcp.c:1372:3
	b	.LBB9_1
.LBB9_3:
	.loc	10 1377 1                       @ rt-thread/components/net/lwip-2.0.2/src/core/tcp.c:1377:1
	add	sp, #8
	pop	{r7, pc}
.Ltmp406:
.Lfunc_end9:
	.size	tcp_segs_free, .Lfunc_end9-tcp_segs_free
	.cfi_endproc
	.cantunwind
	.fnend
                                        @ -- End function
	.section	.text.tcp_abort,"ax",%progbits
	.hidden	tcp_abort                       @ -- Begin function tcp_abort
	.globl	tcp_abort
	.p2align	3
	.type	tcp_abort,%function
	.code	16                              @ @tcp_abort
	.thumb_func
tcp_abort:
.Lfunc_begin10:
	.loc	10 537 0                        @ rt-thread/components/net/lwip-2.0.2/src/core/tcp.c:537:0
	.fnstart
	.cfi_startproc
@ %bb.0:
	.save	{r7, lr}
	push	{r7, lr}
	.cfi_def_cfa_offset 8
	.cfi_offset lr, -4
	.cfi_offset r7, -8
	.pad	#8
	sub	sp, #8
	.cfi_def_cfa_offset 16
	str	r0, [sp, #4]
.Ltmp407:
	.loc	10 538 15 prologue_end          @ rt-thread/components/net/lwip-2.0.2/src/core/tcp.c:538:15
	ldr	r0, [sp, #4]
	movs	r1, #1
	.loc	10 538 3 is_stmt 0              @ rt-thread/components/net/lwip-2.0.2/src/core/tcp.c:538:3
	bl	tcp_abandon
	.loc	10 539 1 is_stmt 1              @ rt-thread/components/net/lwip-2.0.2/src/core/tcp.c:539:1
	add	sp, #8
	pop	{r7, pc}
.Ltmp408:
.Lfunc_end10:
	.size	tcp_abort, .Lfunc_end10-tcp_abort
	.cfi_endproc
	.cantunwind
	.fnend
                                        @ -- End function
	.section	.text.tcp_bind,"ax",%progbits
	.hidden	tcp_bind                        @ -- Begin function tcp_bind
	.globl	tcp_bind
	.p2align	3
	.type	tcp_bind,%function
	.code	16                              @ @tcp_bind
	.thumb_func
tcp_bind:
.Lfunc_begin11:
	.loc	10 558 0                        @ rt-thread/components/net/lwip-2.0.2/src/core/tcp.c:558:0
	.fnstart
	.cfi_startproc
@ %bb.0:
	.save	{r7, lr}
	push	{r7, lr}
	.cfi_def_cfa_offset 8
	.cfi_offset lr, -4
	.cfi_offset r7, -8
	.pad	#32
	sub	sp, #32
	.cfi_def_cfa_offset 40
                                        @ kill: def $r3 killed $r2
	str	r0, [sp, #24]
	str	r1, [sp, #20]
	strh.w	r2, [sp, #18]
	movs	r0, #4
.Ltmp409:
	.loc	10 560 7 prologue_end           @ rt-thread/components/net/lwip-2.0.2/src/core/tcp.c:560:7
	str	r0, [sp, #8]
.Ltmp410:
	.loc	10 565 7                        @ rt-thread/components/net/lwip-2.0.2/src/core/tcp.c:565:7
	ldr	r0, [sp, #20]
.Ltmp411:
	.loc	10 565 7 is_stmt 0              @ rt-thread/components/net/lwip-2.0.2/src/core/tcp.c:565:7
	cbnz	r0, .LBB11_2
	b	.LBB11_1
.LBB11_1:
.Ltmp412:
	.loc	10 566 12 is_stmt 1             @ rt-thread/components/net/lwip-2.0.2/src/core/tcp.c:566:12
	movw	r0, :lower16:ip_addr_any
	movt	r0, :upper16:ip_addr_any
	str	r0, [sp, #20]
	.loc	10 567 3                        @ rt-thread/components/net/lwip-2.0.2/src/core/tcp.c:567:3
	b	.LBB11_2
.Ltmp413:
.LBB11_2:
	.loc	10 571 8                        @ rt-thread/components/net/lwip-2.0.2/src/core/tcp.c:571:8
	ldr	r0, [sp, #24]
	.loc	10 571 21 is_stmt 0             @ rt-thread/components/net/lwip-2.0.2/src/core/tcp.c:571:21
	cbz	r0, .LBB11_4
	b	.LBB11_3
.LBB11_3:
	.loc	10 571 25                       @ rt-thread/components/net/lwip-2.0.2/src/core/tcp.c:571:25
	ldr	r0, [sp, #20]
.Ltmp414:
	.loc	10 571 7                        @ rt-thread/components/net/lwip-2.0.2/src/core/tcp.c:571:7
	cbnz	r0, .LBB11_5
	b	.LBB11_4
.LBB11_4:
	.loc	10 0 7                          @ rt-thread/components/net/lwip-2.0.2/src/core/tcp.c:0:7
	movs	r0, #250
.Ltmp415:
	.loc	10 572 5 is_stmt 1              @ rt-thread/components/net/lwip-2.0.2/src/core/tcp.c:572:5
	strb.w	r0, [sp, #31]
	b	.LBB11_46
.Ltmp416:
.LBB11_5:
	.loc	10 575 3                        @ rt-thread/components/net/lwip-2.0.2/src/core/tcp.c:575:3
	b	.LBB11_6
.LBB11_6:
.Ltmp417:
	.loc	10 575 3 is_stmt 0              @ rt-thread/components/net/lwip-2.0.2/src/core/tcp.c:575:3
	ldr	r0, [sp, #24]
	ldrb	r0, [r0, #20]
.Ltmp418:
	.loc	10 575 3                        @ rt-thread/components/net/lwip-2.0.2/src/core/tcp.c:575:3
	cbz	r0, .LBB11_10
	b	.LBB11_7
.LBB11_7:
.Ltmp419:
	.loc	10 575 3                        @ rt-thread/components/net/lwip-2.0.2/src/core/tcp.c:575:3
	b	.LBB11_8
.LBB11_8:
.Ltmp420:
	.loc	10 575 3                        @ rt-thread/components/net/lwip-2.0.2/src/core/tcp.c:575:3
	movw	r0, :lower16:.L.str.2
	movt	r0, :upper16:.L.str.2
	bl	rt_kprintf
	movw	r0, :lower16:.L.str.1
	movt	r0, :upper16:.L.str.1
	movw	r1, #575
	bl	sys_arch_assert
	b	.LBB11_9
.Ltmp421:
.LBB11_9:
	.loc	10 0 3                          @ rt-thread/components/net/lwip-2.0.2/src/core/tcp.c:0:3
	movs	r0, #250
	.loc	10 575 3                        @ rt-thread/components/net/lwip-2.0.2/src/core/tcp.c:575:3
	strb.w	r0, [sp, #31]
	b	.LBB11_46
.Ltmp422:
.LBB11_10:
	.loc	10 575 3                        @ rt-thread/components/net/lwip-2.0.2/src/core/tcp.c:575:3
	b	.LBB11_11
.Ltmp423:
.LBB11_11:
	.loc	10 583 7 is_stmt 1              @ rt-thread/components/net/lwip-2.0.2/src/core/tcp.c:583:7
	ldr	r0, [sp, #24]
	ldrb	r0, [r0, #8]
.Ltmp424:
	.loc	10 583 7 is_stmt 0              @ rt-thread/components/net/lwip-2.0.2/src/core/tcp.c:583:7
	lsls	r0, r0, #29
	cmp	r0, #0
	bpl	.LBB11_13
	b	.LBB11_12
.LBB11_12:
	.loc	10 0 7                          @ rt-thread/components/net/lwip-2.0.2/src/core/tcp.c:0:7
	movs	r0, #3
.Ltmp425:
	.loc	10 584 18 is_stmt 1             @ rt-thread/components/net/lwip-2.0.2/src/core/tcp.c:584:18
	str	r0, [sp, #8]
	.loc	10 585 3                        @ rt-thread/components/net/lwip-2.0.2/src/core/tcp.c:585:3
	b	.LBB11_13
.Ltmp426:
.LBB11_13:
	.loc	10 588 7                        @ rt-thread/components/net/lwip-2.0.2/src/core/tcp.c:588:7
	ldrh.w	r0, [sp, #18]
.Ltmp427:
	.loc	10 588 7 is_stmt 0              @ rt-thread/components/net/lwip-2.0.2/src/core/tcp.c:588:7
	cbnz	r0, .LBB11_17
	b	.LBB11_14
.LBB11_14:
.Ltmp428:
	.loc	10 589 12 is_stmt 1             @ rt-thread/components/net/lwip-2.0.2/src/core/tcp.c:589:12
	bl	tcp_new_port
	.loc	10 589 10 is_stmt 0             @ rt-thread/components/net/lwip-2.0.2/src/core/tcp.c:589:10
	strh.w	r0, [sp, #18]
.Ltmp429:
	.loc	10 590 9 is_stmt 1              @ rt-thread/components/net/lwip-2.0.2/src/core/tcp.c:590:9
	ldrh.w	r0, [sp, #18]
.Ltmp430:
	.loc	10 590 9 is_stmt 0              @ rt-thread/components/net/lwip-2.0.2/src/core/tcp.c:590:9
	cbnz	r0, .LBB11_16
	b	.LBB11_15
.LBB11_15:
	.loc	10 0 9                          @ rt-thread/components/net/lwip-2.0.2/src/core/tcp.c:0:9
	movs	r0, #254
.Ltmp431:
	.loc	10 591 7 is_stmt 1              @ rt-thread/components/net/lwip-2.0.2/src/core/tcp.c:591:7
	strb.w	r0, [sp, #31]
	b	.LBB11_46
.Ltmp432:
.LBB11_16:
	.loc	10 593 3                        @ rt-thread/components/net/lwip-2.0.2/src/core/tcp.c:593:3
	b	.LBB11_37
.Ltmp433:
.LBB11_17:
	.loc	10 0 3 is_stmt 0                @ rt-thread/components/net/lwip-2.0.2/src/core/tcp.c:0:3
	movs	r0, #0
.Ltmp434:
	.loc	10 595 12 is_stmt 1             @ rt-thread/components/net/lwip-2.0.2/src/core/tcp.c:595:12
	str	r0, [sp, #12]
	.loc	10 595 10 is_stmt 0             @ rt-thread/components/net/lwip-2.0.2/src/core/tcp.c:595:10
	b	.LBB11_18
.LBB11_18:                              @ =>This Loop Header: Depth=1
                                        @     Child Loop BB11_20 Depth 2
.Ltmp435:
	.loc	10 595 17                       @ rt-thread/components/net/lwip-2.0.2/src/core/tcp.c:595:17
	ldr	r0, [sp, #12]
	.loc	10 595 21                       @ rt-thread/components/net/lwip-2.0.2/src/core/tcp.c:595:21
	ldr	r1, [sp, #8]
.Ltmp436:
	.loc	10 595 5                        @ rt-thread/components/net/lwip-2.0.2/src/core/tcp.c:595:5
	cmp	r0, r1
	bge	.LBB11_36
	b	.LBB11_19
.LBB11_19:                              @   in Loop: Header=BB11_18 Depth=1
.Ltmp437:
	.loc	10 596 34 is_stmt 1             @ rt-thread/components/net/lwip-2.0.2/src/core/tcp.c:596:34
	ldr	r1, [sp, #12]
	.loc	10 596 20 is_stmt 0             @ rt-thread/components/net/lwip-2.0.2/src/core/tcp.c:596:20
	movw	r0, :lower16:tcp_pcb_lists
	movt	r0, :upper16:tcp_pcb_lists
	ldr.w	r0, [r0, r1, lsl #2]
	.loc	10 596 19                       @ rt-thread/components/net/lwip-2.0.2/src/core/tcp.c:596:19
	ldr	r0, [r0]
	.loc	10 596 17                       @ rt-thread/components/net/lwip-2.0.2/src/core/tcp.c:596:17
	str	r0, [sp, #4]
	.loc	10 596 12                       @ rt-thread/components/net/lwip-2.0.2/src/core/tcp.c:596:12
	b	.LBB11_20
.LBB11_20:                              @   Parent Loop BB11_18 Depth=1
                                        @ =>  This Inner Loop Header: Depth=2
.Ltmp438:
	.loc	10 596 38                       @ rt-thread/components/net/lwip-2.0.2/src/core/tcp.c:596:38
	ldr	r0, [sp, #4]
.Ltmp439:
	.loc	10 596 7                        @ rt-thread/components/net/lwip-2.0.2/src/core/tcp.c:596:7
	cbz	r0, .LBB11_34
	b	.LBB11_21
.LBB11_21:                              @   in Loop: Header=BB11_20 Depth=2
.Ltmp440:
	.loc	10 597 13 is_stmt 1             @ rt-thread/components/net/lwip-2.0.2/src/core/tcp.c:597:13
	ldr	r0, [sp, #4]
	.loc	10 597 19 is_stmt 0             @ rt-thread/components/net/lwip-2.0.2/src/core/tcp.c:597:19
	ldrh	r0, [r0, #22]
	.loc	10 597 33                       @ rt-thread/components/net/lwip-2.0.2/src/core/tcp.c:597:33
	ldrh.w	r1, [sp, #18]
.Ltmp441:
	.loc	10 597 13                       @ rt-thread/components/net/lwip-2.0.2/src/core/tcp.c:597:13
	cmp	r0, r1
	bne	.LBB11_32
	b	.LBB11_22
.LBB11_22:                              @   in Loop: Header=BB11_20 Depth=2
.Ltmp442:
	.loc	10 602 16 is_stmt 1             @ rt-thread/components/net/lwip-2.0.2/src/core/tcp.c:602:16
	ldr	r0, [sp, #24]
	ldrb	r0, [r0, #8]
	.loc	10 602 50 is_stmt 0             @ rt-thread/components/net/lwip-2.0.2/src/core/tcp.c:602:50
	lsls	r0, r0, #29
	cmp	r0, #0
	bpl	.LBB11_24
	b	.LBB11_23
.LBB11_23:                              @   in Loop: Header=BB11_20 Depth=2
	.loc	10 603 16 is_stmt 1             @ rt-thread/components/net/lwip-2.0.2/src/core/tcp.c:603:16
	ldr	r0, [sp, #4]
	ldrb	r0, [r0, #8]
.Ltmp443:
	.loc	10 602 15                       @ rt-thread/components/net/lwip-2.0.2/src/core/tcp.c:602:15
	lsls	r0, r0, #29
	cmp	r0, #0
	bmi	.LBB11_31
	b	.LBB11_24
.LBB11_24:                              @   in Loop: Header=BB11_20 Depth=2
.Ltmp444:
	.loc	10 608 18                       @ rt-thread/components/net/lwip-2.0.2/src/core/tcp.c:608:18
	ldr	r0, [sp, #4]
	cbz	r0, .LBB11_29
	b	.LBB11_25
.LBB11_25:                              @   in Loop: Header=BB11_20 Depth=2
	ldr	r0, [sp, #4]
	ldr	r0, [r0]
	.loc	10 608 49 is_stmt 0             @ rt-thread/components/net/lwip-2.0.2/src/core/tcp.c:608:49
	cbz	r0, .LBB11_29
	b	.LBB11_26
.LBB11_26:                              @   in Loop: Header=BB11_20 Depth=2
	.loc	10 609 17 is_stmt 1             @ rt-thread/components/net/lwip-2.0.2/src/core/tcp.c:609:17
	ldr	r0, [sp, #20]
	cbz	r0, .LBB11_29
	b	.LBB11_27
.LBB11_27:                              @   in Loop: Header=BB11_20 Depth=2
	ldr	r0, [sp, #20]
	ldr	r0, [r0]
	.loc	10 609 39 is_stmt 0             @ rt-thread/components/net/lwip-2.0.2/src/core/tcp.c:609:39
	cbz	r0, .LBB11_29
	b	.LBB11_28
.LBB11_28:                              @   in Loop: Header=BB11_20 Depth=2
	.loc	10 610 17 is_stmt 1             @ rt-thread/components/net/lwip-2.0.2/src/core/tcp.c:610:17
	ldr	r0, [sp, #4]
	ldr	r0, [r0]
	ldr	r1, [sp, #20]
	ldr	r1, [r1]
.Ltmp445:
	.loc	10 607 17                       @ rt-thread/components/net/lwip-2.0.2/src/core/tcp.c:607:17
	cmp	r0, r1
	bne	.LBB11_30
	b	.LBB11_29
.LBB11_29:
	.loc	10 0 17 is_stmt 0               @ rt-thread/components/net/lwip-2.0.2/src/core/tcp.c:0:17
	movs	r0, #248
.Ltmp446:
	.loc	10 611 15 is_stmt 1             @ rt-thread/components/net/lwip-2.0.2/src/core/tcp.c:611:15
	strb.w	r0, [sp, #31]
	b	.LBB11_46
.Ltmp447:
.LBB11_30:                              @   in Loop: Header=BB11_20 Depth=2
	.loc	10 613 11                       @ rt-thread/components/net/lwip-2.0.2/src/core/tcp.c:613:11
	b	.LBB11_31
.Ltmp448:
.LBB11_31:                              @   in Loop: Header=BB11_20 Depth=2
	.loc	10 614 9                        @ rt-thread/components/net/lwip-2.0.2/src/core/tcp.c:614:9
	b	.LBB11_32
.Ltmp449:
.LBB11_32:                              @   in Loop: Header=BB11_20 Depth=2
	.loc	10 615 7                        @ rt-thread/components/net/lwip-2.0.2/src/core/tcp.c:615:7
	b	.LBB11_33
.Ltmp450:
.LBB11_33:                              @   in Loop: Header=BB11_20 Depth=2
	.loc	10 596 59                       @ rt-thread/components/net/lwip-2.0.2/src/core/tcp.c:596:59
	ldr	r0, [sp, #4]
	.loc	10 596 65 is_stmt 0             @ rt-thread/components/net/lwip-2.0.2/src/core/tcp.c:596:65
	ldr	r0, [r0, #12]
	.loc	10 596 57                       @ rt-thread/components/net/lwip-2.0.2/src/core/tcp.c:596:57
	str	r0, [sp, #4]
	.loc	10 596 7                        @ rt-thread/components/net/lwip-2.0.2/src/core/tcp.c:596:7
	b	.LBB11_20
.Ltmp451:
.LBB11_34:                              @   in Loop: Header=BB11_18 Depth=1
	.loc	10 616 5 is_stmt 1              @ rt-thread/components/net/lwip-2.0.2/src/core/tcp.c:616:5
	b	.LBB11_35
.Ltmp452:
.LBB11_35:                              @   in Loop: Header=BB11_18 Depth=1
	.loc	10 595 36                       @ rt-thread/components/net/lwip-2.0.2/src/core/tcp.c:595:36
	ldr	r0, [sp, #12]
	adds	r0, #1
	str	r0, [sp, #12]
	.loc	10 595 5 is_stmt 0              @ rt-thread/components/net/lwip-2.0.2/src/core/tcp.c:595:5
	b	.LBB11_18
.Ltmp453:
.LBB11_36:
	.loc	10 0 5                          @ rt-thread/components/net/lwip-2.0.2/src/core/tcp.c:0:5
	b	.LBB11_37
.LBB11_37:
.Ltmp454:
	.loc	10 619 8 is_stmt 1              @ rt-thread/components/net/lwip-2.0.2/src/core/tcp.c:619:8
	ldr	r0, [sp, #20]
	cbz	r0, .LBB11_43
	b	.LBB11_38
.LBB11_38:
	ldr	r0, [sp, #20]
	ldr	r0, [r0]
.Ltmp455:
	.loc	10 619 7 is_stmt 0              @ rt-thread/components/net/lwip-2.0.2/src/core/tcp.c:619:7
	cbz	r0, .LBB11_43
	b	.LBB11_39
.LBB11_39:
.Ltmp456:
	.loc	10 620 5 is_stmt 1              @ rt-thread/components/net/lwip-2.0.2/src/core/tcp.c:620:5
	ldr	r0, [sp, #20]
	cbnz	r0, .LBB11_41
	b	.LBB11_40
.LBB11_40:
	.loc	10 0 5 is_stmt 0                @ rt-thread/components/net/lwip-2.0.2/src/core/tcp.c:0:5
	movs	r0, #0
	.loc	10 620 5                        @ rt-thread/components/net/lwip-2.0.2/src/core/tcp.c:620:5
	str	r0, [sp]                        @ 4-byte Spill
	b	.LBB11_42
.LBB11_41:
	ldr	r0, [sp, #20]
	ldr	r0, [r0]
	str	r0, [sp]                        @ 4-byte Spill
	b	.LBB11_42
.LBB11_42:
	ldr	r0, [sp]                        @ 4-byte Reload
	ldr	r1, [sp, #24]
	str	r0, [r1]
	.loc	10 621 3 is_stmt 1              @ rt-thread/components/net/lwip-2.0.2/src/core/tcp.c:621:3
	b	.LBB11_43
.Ltmp457:
.LBB11_43:
	.loc	10 622 21                       @ rt-thread/components/net/lwip-2.0.2/src/core/tcp.c:622:21
	ldrh.w	r0, [sp, #18]
	.loc	10 622 3 is_stmt 0              @ rt-thread/components/net/lwip-2.0.2/src/core/tcp.c:622:3
	ldr	r1, [sp, #24]
	.loc	10 622 19                       @ rt-thread/components/net/lwip-2.0.2/src/core/tcp.c:622:19
	strh	r0, [r1, #22]
	.loc	10 623 3 is_stmt 1              @ rt-thread/components/net/lwip-2.0.2/src/core/tcp.c:623:3
	b	.LBB11_44
.LBB11_44:
.Ltmp458:
	.loc	10 623 3 is_stmt 0              @ rt-thread/components/net/lwip-2.0.2/src/core/tcp.c:623:3
	movw	r1, :lower16:tcp_bound_pcbs
	movt	r1, :upper16:tcp_bound_pcbs
	ldr	r0, [r1]
	ldr	r2, [sp, #24]
	str	r0, [r2, #12]
	ldr	r0, [sp, #24]
	str	r0, [r1]
	bl	tcp_timer_needed
	b	.LBB11_45
.Ltmp459:
.LBB11_45:
	.loc	10 0 3                          @ rt-thread/components/net/lwip-2.0.2/src/core/tcp.c:0:3
	movs	r0, #0
	.loc	10 625 3 is_stmt 1              @ rt-thread/components/net/lwip-2.0.2/src/core/tcp.c:625:3
	strb.w	r0, [sp, #31]
	b	.LBB11_46
.LBB11_46:
	.loc	10 626 1                        @ rt-thread/components/net/lwip-2.0.2/src/core/tcp.c:626:1
	ldrsb.w	r0, [sp, #31]
	add	sp, #32
	pop	{r7, pc}
.Ltmp460:
.Lfunc_end11:
	.size	tcp_bind, .Lfunc_end11-tcp_bind
	.cfi_endproc
	.cantunwind
	.fnend
                                        @ -- End function
	.section	.text.tcp_new_port,"ax",%progbits
	.p2align	3                               @ -- Begin function tcp_new_port
	.type	tcp_new_port,%function
	.code	16                              @ @tcp_new_port
	.thumb_func
tcp_new_port:
.Lfunc_begin12:
	.loc	10 834 0                        @ rt-thread/components/net/lwip-2.0.2/src/core/tcp.c:834:0
	.fnstart
	.cfi_startproc
@ %bb.0:
	.pad	#12
	sub	sp, #12
	.cfi_def_cfa_offset 12
	movs	r0, #0
.Ltmp461:
	.loc	10 836 9 prologue_end           @ rt-thread/components/net/lwip-2.0.2/src/core/tcp.c:836:9
	strh.w	r0, [sp, #6]
	.loc	10 837 3                        @ rt-thread/components/net/lwip-2.0.2/src/core/tcp.c:837:3
	b	.LBB12_1
.LBB12_1:                               @ =>This Loop Header: Depth=1
                                        @     Child Loop BB12_4 Depth 2
                                        @       Child Loop BB12_6 Depth 3
.Ltmp462:
	@DEBUG_LABEL: tcp_new_port:again
	.loc	10 840 15                       @ rt-thread/components/net/lwip-2.0.2/src/core/tcp.c:840:15
	movw	r2, :lower16:tcp_port
	movt	r2, :upper16:tcp_port
	ldrh	r0, [r2]
	adds	r1, r0, #1
	strh	r1, [r2]
	movw	r1, #65535
.Ltmp463:
	.loc	10 840 7 is_stmt 0              @ rt-thread/components/net/lwip-2.0.2/src/core/tcp.c:840:7
	cmp	r0, r1
	bne	.LBB12_3
	b	.LBB12_2
.LBB12_2:                               @   in Loop: Header=BB12_1 Depth=1
.Ltmp464:
	.loc	10 841 14 is_stmt 1             @ rt-thread/components/net/lwip-2.0.2/src/core/tcp.c:841:14
	movw	r1, :lower16:tcp_port
	movt	r1, :upper16:tcp_port
	mov.w	r0, #49152
	strh	r0, [r1]
	.loc	10 842 3                        @ rt-thread/components/net/lwip-2.0.2/src/core/tcp.c:842:3
	b	.LBB12_3
.Ltmp465:
.LBB12_3:                               @   in Loop: Header=BB12_1 Depth=1
	.loc	10 0 3 is_stmt 0                @ rt-thread/components/net/lwip-2.0.2/src/core/tcp.c:0:3
	movs	r0, #0
.Ltmp466:
	.loc	10 844 10 is_stmt 1             @ rt-thread/components/net/lwip-2.0.2/src/core/tcp.c:844:10
	strb.w	r0, [sp, #9]
	.loc	10 844 8 is_stmt 0              @ rt-thread/components/net/lwip-2.0.2/src/core/tcp.c:844:8
	b	.LBB12_4
.LBB12_4:                               @   Parent Loop BB12_1 Depth=1
                                        @ =>  This Loop Header: Depth=2
                                        @       Child Loop BB12_6 Depth 3
.Ltmp467:
	.loc	10 844 15                       @ rt-thread/components/net/lwip-2.0.2/src/core/tcp.c:844:15
	ldrb.w	r0, [sp, #9]
.Ltmp468:
	.loc	10 844 3                        @ rt-thread/components/net/lwip-2.0.2/src/core/tcp.c:844:3
	cmp	r0, #3
	bgt	.LBB12_15
	b	.LBB12_5
.LBB12_5:                               @   in Loop: Header=BB12_4 Depth=2
.Ltmp469:
	.loc	10 845 31 is_stmt 1             @ rt-thread/components/net/lwip-2.0.2/src/core/tcp.c:845:31
	ldrb.w	r1, [sp, #9]
	.loc	10 845 17 is_stmt 0             @ rt-thread/components/net/lwip-2.0.2/src/core/tcp.c:845:17
	movw	r0, :lower16:tcp_pcb_lists
	movt	r0, :upper16:tcp_pcb_lists
	ldr.w	r0, [r0, r1, lsl #2]
	.loc	10 845 16                       @ rt-thread/components/net/lwip-2.0.2/src/core/tcp.c:845:16
	ldr	r0, [r0]
	.loc	10 845 14                       @ rt-thread/components/net/lwip-2.0.2/src/core/tcp.c:845:14
	str	r0, [sp]
	.loc	10 845 10                       @ rt-thread/components/net/lwip-2.0.2/src/core/tcp.c:845:10
	b	.LBB12_6
.LBB12_6:                               @   Parent Loop BB12_1 Depth=1
                                        @     Parent Loop BB12_4 Depth=2
                                        @ =>    This Inner Loop Header: Depth=3
.Ltmp470:
	.loc	10 845 35                       @ rt-thread/components/net/lwip-2.0.2/src/core/tcp.c:845:35
	ldr	r0, [sp]
.Ltmp471:
	.loc	10 845 5                        @ rt-thread/components/net/lwip-2.0.2/src/core/tcp.c:845:5
	cbz	r0, .LBB12_13
	b	.LBB12_7
.LBB12_7:                               @   in Loop: Header=BB12_6 Depth=3
.Ltmp472:
	.loc	10 846 11 is_stmt 1             @ rt-thread/components/net/lwip-2.0.2/src/core/tcp.c:846:11
	ldr	r0, [sp]
	.loc	10 846 16 is_stmt 0             @ rt-thread/components/net/lwip-2.0.2/src/core/tcp.c:846:16
	ldrh	r0, [r0, #22]
	.loc	10 846 30                       @ rt-thread/components/net/lwip-2.0.2/src/core/tcp.c:846:30
	movw	r1, :lower16:tcp_port
	movt	r1, :upper16:tcp_port
	ldrh	r1, [r1]
.Ltmp473:
	.loc	10 846 11                       @ rt-thread/components/net/lwip-2.0.2/src/core/tcp.c:846:11
	cmp	r0, r1
	bne	.LBB12_11
	b	.LBB12_8
.LBB12_8:                               @   in Loop: Header=BB12_1 Depth=1
.Ltmp474:
	.loc	10 847 13 is_stmt 1             @ rt-thread/components/net/lwip-2.0.2/src/core/tcp.c:847:13
	ldrh.w	r0, [sp, #6]
	adds	r0, #1
	strh.w	r0, [sp, #6]
	uxth	r0, r0
.Ltmp475:
	.loc	10 847 13 is_stmt 0             @ rt-thread/components/net/lwip-2.0.2/src/core/tcp.c:847:13
	cmp.w	r0, #16384
	blt	.LBB12_10
	b	.LBB12_9
.LBB12_9:
	.loc	10 0 13                         @ rt-thread/components/net/lwip-2.0.2/src/core/tcp.c:0:13
	movs	r0, #0
.Ltmp476:
	.loc	10 848 11 is_stmt 1             @ rt-thread/components/net/lwip-2.0.2/src/core/tcp.c:848:11
	strh.w	r0, [sp, #10]
	b	.LBB12_16
.Ltmp477:
.LBB12_10:                              @   in Loop: Header=BB12_1 Depth=1
	.loc	10 850 9                        @ rt-thread/components/net/lwip-2.0.2/src/core/tcp.c:850:9
	b	.LBB12_1
.Ltmp478:
.LBB12_11:                              @   in Loop: Header=BB12_6 Depth=3
	.loc	10 852 5                        @ rt-thread/components/net/lwip-2.0.2/src/core/tcp.c:852:5
	b	.LBB12_12
.Ltmp479:
.LBB12_12:                              @   in Loop: Header=BB12_6 Depth=3
	.loc	10 845 54                       @ rt-thread/components/net/lwip-2.0.2/src/core/tcp.c:845:54
	ldr	r0, [sp]
	.loc	10 845 59 is_stmt 0             @ rt-thread/components/net/lwip-2.0.2/src/core/tcp.c:845:59
	ldr	r0, [r0, #12]
	.loc	10 845 52                       @ rt-thread/components/net/lwip-2.0.2/src/core/tcp.c:845:52
	str	r0, [sp]
	.loc	10 845 5                        @ rt-thread/components/net/lwip-2.0.2/src/core/tcp.c:845:5
	b	.LBB12_6
.Ltmp480:
.LBB12_13:                              @   in Loop: Header=BB12_4 Depth=2
	.loc	10 853 3 is_stmt 1              @ rt-thread/components/net/lwip-2.0.2/src/core/tcp.c:853:3
	b	.LBB12_14
.Ltmp481:
.LBB12_14:                              @   in Loop: Header=BB12_4 Depth=2
	.loc	10 844 39                       @ rt-thread/components/net/lwip-2.0.2/src/core/tcp.c:844:39
	ldrb.w	r0, [sp, #9]
	adds	r0, #1
	strb.w	r0, [sp, #9]
	.loc	10 844 3 is_stmt 0              @ rt-thread/components/net/lwip-2.0.2/src/core/tcp.c:844:3
	b	.LBB12_4
.Ltmp482:
.LBB12_15:
	.loc	10 854 10 is_stmt 1             @ rt-thread/components/net/lwip-2.0.2/src/core/tcp.c:854:10
	movw	r0, :lower16:tcp_port
	movt	r0, :upper16:tcp_port
	ldrh	r0, [r0]
	.loc	10 854 3 is_stmt 0              @ rt-thread/components/net/lwip-2.0.2/src/core/tcp.c:854:3
	strh.w	r0, [sp, #10]
	b	.LBB12_16
.LBB12_16:
	.loc	10 855 1 is_stmt 1              @ rt-thread/components/net/lwip-2.0.2/src/core/tcp.c:855:1
	ldrh.w	r0, [sp, #10]
	add	sp, #12
	bx	lr
.Ltmp483:
.Lfunc_end12:
	.size	tcp_new_port, .Lfunc_end12-tcp_new_port
	.cfi_endproc
	.cantunwind
	.fnend
                                        @ -- End function
	.section	.text.tcp_listen_with_backlog,"ax",%progbits
	.hidden	tcp_listen_with_backlog         @ -- Begin function tcp_listen_with_backlog
	.globl	tcp_listen_with_backlog
	.p2align	3
	.type	tcp_listen_with_backlog,%function
	.code	16                              @ @tcp_listen_with_backlog
	.thumb_func
tcp_listen_with_backlog:
.Lfunc_begin13:
	.loc	10 660 0                        @ rt-thread/components/net/lwip-2.0.2/src/core/tcp.c:660:0
	.fnstart
	.cfi_startproc
@ %bb.0:
	.save	{r7, lr}
	push	{r7, lr}
	.cfi_def_cfa_offset 8
	.cfi_offset lr, -4
	.cfi_offset r7, -8
	.pad	#8
	sub	sp, #8
	.cfi_def_cfa_offset 16
                                        @ kill: def $r2 killed $r1
	str	r0, [sp, #4]
	strb.w	r1, [sp, #3]
.Ltmp484:
	.loc	10 661 42 prologue_end          @ rt-thread/components/net/lwip-2.0.2/src/core/tcp.c:661:42
	ldr	r0, [sp, #4]
	.loc	10 661 47 is_stmt 0             @ rt-thread/components/net/lwip-2.0.2/src/core/tcp.c:661:47
	ldrb.w	r1, [sp, #3]
	movs	r2, #0
	.loc	10 661 10                       @ rt-thread/components/net/lwip-2.0.2/src/core/tcp.c:661:10
	bl	tcp_listen_with_backlog_and_err
	.loc	10 661 3                        @ rt-thread/components/net/lwip-2.0.2/src/core/tcp.c:661:3
	add	sp, #8
	pop	{r7, pc}
.Ltmp485:
.Lfunc_end13:
	.size	tcp_listen_with_backlog, .Lfunc_end13-tcp_listen_with_backlog
	.cfi_endproc
	.cantunwind
	.fnend
                                        @ -- End function
	.section	.text.tcp_listen_with_backlog_and_err,"ax",%progbits
	.hidden	tcp_listen_with_backlog_and_err @ -- Begin function tcp_listen_with_backlog_and_err
	.globl	tcp_listen_with_backlog_and_err
	.p2align	3
	.type	tcp_listen_with_backlog_and_err,%function
	.code	16                              @ @tcp_listen_with_backlog_and_err
	.thumb_func
tcp_listen_with_backlog_and_err:
.Lfunc_begin14:
	.loc	10 682 0 is_stmt 1              @ rt-thread/components/net/lwip-2.0.2/src/core/tcp.c:682:0
	.fnstart
	.cfi_startproc
@ %bb.0:
	.save	{r7, lr}
	push	{r7, lr}
	.cfi_def_cfa_offset 8
	.cfi_offset lr, -4
	.cfi_offset r7, -8
	.pad	#24
	sub	sp, #24
	.cfi_def_cfa_offset 32
                                        @ kill: def $r3 killed $r1
	str	r0, [sp, #20]
	strb.w	r1, [sp, #19]
	str	r2, [sp, #12]
	movs	r0, #0
.Ltmp486:
	.loc	10 683 26 prologue_end          @ rt-thread/components/net/lwip-2.0.2/src/core/tcp.c:683:26
	str	r0, [sp, #8]
	.loc	10 687 3                        @ rt-thread/components/net/lwip-2.0.2/src/core/tcp.c:687:3
	b	.LBB14_1
.LBB14_1:
.Ltmp487:
	.loc	10 687 3 is_stmt 0              @ rt-thread/components/net/lwip-2.0.2/src/core/tcp.c:687:3
	ldr	r0, [sp, #20]
	ldrb	r0, [r0, #20]
.Ltmp488:
	.loc	10 687 3                        @ rt-thread/components/net/lwip-2.0.2/src/core/tcp.c:687:3
	cbz	r0, .LBB14_5
	b	.LBB14_2
.LBB14_2:
.Ltmp489:
	.loc	10 687 3                        @ rt-thread/components/net/lwip-2.0.2/src/core/tcp.c:687:3
	b	.LBB14_3
.LBB14_3:
.Ltmp490:
	.loc	10 687 3                        @ rt-thread/components/net/lwip-2.0.2/src/core/tcp.c:687:3
	movw	r0, :lower16:.L.str.3
	movt	r0, :upper16:.L.str.3
	bl	rt_kprintf
	movw	r0, :lower16:.L.str.1
	movt	r0, :upper16:.L.str.1
	movw	r1, #687
	bl	sys_arch_assert
	b	.LBB14_4
.Ltmp491:
.LBB14_4:
	.loc	10 0 3                          @ rt-thread/components/net/lwip-2.0.2/src/core/tcp.c:0:3
	movs	r0, #241
	.loc	10 687 3                        @ rt-thread/components/net/lwip-2.0.2/src/core/tcp.c:687:3
	strb.w	r0, [sp, #7]
	b	.LBB14_35
.Ltmp492:
.LBB14_5:
	.loc	10 687 3                        @ rt-thread/components/net/lwip-2.0.2/src/core/tcp.c:687:3
	b	.LBB14_6
.Ltmp493:
.LBB14_6:
	.loc	10 690 7 is_stmt 1              @ rt-thread/components/net/lwip-2.0.2/src/core/tcp.c:690:7
	ldr	r0, [sp, #20]
	.loc	10 690 12 is_stmt 0             @ rt-thread/components/net/lwip-2.0.2/src/core/tcp.c:690:12
	ldrb	r0, [r0, #20]
.Ltmp494:
	.loc	10 690 7                        @ rt-thread/components/net/lwip-2.0.2/src/core/tcp.c:690:7
	cmp	r0, #1
	bne	.LBB14_8
	b	.LBB14_7
.LBB14_7:
.Ltmp495:
	.loc	10 691 36 is_stmt 1             @ rt-thread/components/net/lwip-2.0.2/src/core/tcp.c:691:36
	ldr	r0, [sp, #20]
	.loc	10 691 10 is_stmt 0             @ rt-thread/components/net/lwip-2.0.2/src/core/tcp.c:691:10
	str	r0, [sp, #8]
	movs	r0, #247
	.loc	10 692 9 is_stmt 1              @ rt-thread/components/net/lwip-2.0.2/src/core/tcp.c:692:9
	strb.w	r0, [sp, #7]
	.loc	10 693 5                        @ rt-thread/components/net/lwip-2.0.2/src/core/tcp.c:693:5
	b	.LBB14_35
.Ltmp496:
.LBB14_8:
	.loc	10 696 7                        @ rt-thread/components/net/lwip-2.0.2/src/core/tcp.c:696:7
	ldr	r0, [sp, #20]
	ldrb	r0, [r0, #8]
.Ltmp497:
	.loc	10 696 7 is_stmt 0              @ rt-thread/components/net/lwip-2.0.2/src/core/tcp.c:696:7
	lsls	r0, r0, #29
	cmp	r0, #0
	bpl	.LBB14_17
	b	.LBB14_9
.LBB14_9:
.Ltmp498:
	.loc	10 700 33 is_stmt 1             @ rt-thread/components/net/lwip-2.0.2/src/core/tcp.c:700:33
	movw	r0, :lower16:tcp_listen_pcbs
	movt	r0, :upper16:tcp_listen_pcbs
	ldr	r0, [r0]
	.loc	10 700 15 is_stmt 0             @ rt-thread/components/net/lwip-2.0.2/src/core/tcp.c:700:15
	str	r0, [sp, #8]
	.loc	10 700 10                       @ rt-thread/components/net/lwip-2.0.2/src/core/tcp.c:700:10
	b	.LBB14_10
.LBB14_10:                              @ =>This Inner Loop Header: Depth=1
.Ltmp499:
	.loc	10 700 46                       @ rt-thread/components/net/lwip-2.0.2/src/core/tcp.c:700:46
	ldr	r0, [sp, #8]
.Ltmp500:
	.loc	10 700 5                        @ rt-thread/components/net/lwip-2.0.2/src/core/tcp.c:700:5
	cbz	r0, .LBB14_16
	b	.LBB14_11
.LBB14_11:                              @   in Loop: Header=BB14_10 Depth=1
.Ltmp501:
	.loc	10 701 12 is_stmt 1             @ rt-thread/components/net/lwip-2.0.2/src/core/tcp.c:701:12
	ldr	r0, [sp, #8]
	.loc	10 701 18 is_stmt 0             @ rt-thread/components/net/lwip-2.0.2/src/core/tcp.c:701:18
	ldrh	r0, [r0, #22]
	.loc	10 701 32                       @ rt-thread/components/net/lwip-2.0.2/src/core/tcp.c:701:32
	ldr	r1, [sp, #20]
	.loc	10 701 37                       @ rt-thread/components/net/lwip-2.0.2/src/core/tcp.c:701:37
	ldrh	r1, [r1, #22]
	.loc	10 701 49                       @ rt-thread/components/net/lwip-2.0.2/src/core/tcp.c:701:49
	cmp	r0, r1
	bne	.LBB14_14
	b	.LBB14_12
.LBB14_12:                              @   in Loop: Header=BB14_10 Depth=1
	.loc	10 702 11 is_stmt 1             @ rt-thread/components/net/lwip-2.0.2/src/core/tcp.c:702:11
	ldr	r0, [sp, #8]
	ldr	r0, [r0]
	ldr	r1, [sp, #20]
	ldr	r1, [r1]
.Ltmp502:
	.loc	10 701 11                       @ rt-thread/components/net/lwip-2.0.2/src/core/tcp.c:701:11
	cmp	r0, r1
	bne	.LBB14_14
	b	.LBB14_13
.LBB14_13:
	.loc	10 0 11 is_stmt 0               @ rt-thread/components/net/lwip-2.0.2/src/core/tcp.c:0:11
	movs	r0, #0
.Ltmp503:
	.loc	10 704 14 is_stmt 1             @ rt-thread/components/net/lwip-2.0.2/src/core/tcp.c:704:14
	str	r0, [sp, #8]
	movs	r0, #248
	.loc	10 705 13                       @ rt-thread/components/net/lwip-2.0.2/src/core/tcp.c:705:13
	strb.w	r0, [sp, #7]
	.loc	10 706 9                        @ rt-thread/components/net/lwip-2.0.2/src/core/tcp.c:706:9
	b	.LBB14_35
.Ltmp504:
.LBB14_14:                              @   in Loop: Header=BB14_10 Depth=1
	.loc	10 708 5                        @ rt-thread/components/net/lwip-2.0.2/src/core/tcp.c:708:5
	b	.LBB14_15
.Ltmp505:
.LBB14_15:                              @   in Loop: Header=BB14_10 Depth=1
	.loc	10 700 67                       @ rt-thread/components/net/lwip-2.0.2/src/core/tcp.c:700:67
	ldr	r0, [sp, #8]
	.loc	10 700 73 is_stmt 0             @ rt-thread/components/net/lwip-2.0.2/src/core/tcp.c:700:73
	ldr	r0, [r0, #12]
	.loc	10 700 65                       @ rt-thread/components/net/lwip-2.0.2/src/core/tcp.c:700:65
	str	r0, [sp, #8]
	.loc	10 700 5                        @ rt-thread/components/net/lwip-2.0.2/src/core/tcp.c:700:5
	b	.LBB14_10
.Ltmp506:
.LBB14_16:
	.loc	10 709 3 is_stmt 1              @ rt-thread/components/net/lwip-2.0.2/src/core/tcp.c:709:3
	b	.LBB14_17
.Ltmp507:
.LBB14_17:
	.loc	10 711 35                       @ rt-thread/components/net/lwip-2.0.2/src/core/tcp.c:711:35
	movw	r1, :lower16:.L.str.1
	movt	r1, :upper16:.L.str.1
	movs	r0, #3
	movw	r2, #711
	bl	memp_malloc_fn
	.loc	10 711 8 is_stmt 0              @ rt-thread/components/net/lwip-2.0.2/src/core/tcp.c:711:8
	str	r0, [sp, #8]
.Ltmp508:
	.loc	10 712 7 is_stmt 1              @ rt-thread/components/net/lwip-2.0.2/src/core/tcp.c:712:7
	ldr	r0, [sp, #8]
.Ltmp509:
	.loc	10 712 7 is_stmt 0              @ rt-thread/components/net/lwip-2.0.2/src/core/tcp.c:712:7
	cbnz	r0, .LBB14_19
	b	.LBB14_18
.LBB14_18:
	.loc	10 0 7                          @ rt-thread/components/net/lwip-2.0.2/src/core/tcp.c:0:7
	movs	r0, #255
.Ltmp510:
	.loc	10 713 9 is_stmt 1              @ rt-thread/components/net/lwip-2.0.2/src/core/tcp.c:713:9
	strb.w	r0, [sp, #7]
	.loc	10 714 5                        @ rt-thread/components/net/lwip-2.0.2/src/core/tcp.c:714:5
	b	.LBB14_35
.Ltmp511:
.LBB14_19:
	.loc	10 716 24                       @ rt-thread/components/net/lwip-2.0.2/src/core/tcp.c:716:24
	ldr	r0, [sp, #20]
	.loc	10 716 29 is_stmt 0             @ rt-thread/components/net/lwip-2.0.2/src/core/tcp.c:716:29
	ldr	r0, [r0, #16]
	.loc	10 716 3                        @ rt-thread/components/net/lwip-2.0.2/src/core/tcp.c:716:3
	ldr	r1, [sp, #8]
	.loc	10 716 22                       @ rt-thread/components/net/lwip-2.0.2/src/core/tcp.c:716:22
	str	r0, [r1, #16]
	.loc	10 717 22 is_stmt 1             @ rt-thread/components/net/lwip-2.0.2/src/core/tcp.c:717:22
	ldr	r0, [sp, #20]
	.loc	10 717 27 is_stmt 0             @ rt-thread/components/net/lwip-2.0.2/src/core/tcp.c:717:27
	ldrh	r0, [r0, #22]
	.loc	10 717 3                        @ rt-thread/components/net/lwip-2.0.2/src/core/tcp.c:717:3
	ldr	r1, [sp, #8]
	.loc	10 717 20                       @ rt-thread/components/net/lwip-2.0.2/src/core/tcp.c:717:20
	strh	r0, [r1, #22]
	.loc	10 718 3 is_stmt 1              @ rt-thread/components/net/lwip-2.0.2/src/core/tcp.c:718:3
	ldr	r1, [sp, #8]
	movs	r0, #1
	.loc	10 718 15 is_stmt 0             @ rt-thread/components/net/lwip-2.0.2/src/core/tcp.c:718:15
	strb	r0, [r1, #20]
	.loc	10 719 16 is_stmt 1             @ rt-thread/components/net/lwip-2.0.2/src/core/tcp.c:719:16
	ldr	r0, [sp, #20]
	.loc	10 719 21 is_stmt 0             @ rt-thread/components/net/lwip-2.0.2/src/core/tcp.c:719:21
	ldrb	r0, [r0, #21]
	.loc	10 719 3                        @ rt-thread/components/net/lwip-2.0.2/src/core/tcp.c:719:3
	ldr	r1, [sp, #8]
	.loc	10 719 14                       @ rt-thread/components/net/lwip-2.0.2/src/core/tcp.c:719:14
	strb	r0, [r1, #21]
	.loc	10 720 22 is_stmt 1             @ rt-thread/components/net/lwip-2.0.2/src/core/tcp.c:720:22
	ldr	r0, [sp, #20]
	.loc	10 720 27 is_stmt 0             @ rt-thread/components/net/lwip-2.0.2/src/core/tcp.c:720:27
	ldrb	r0, [r0, #8]
	.loc	10 720 3                        @ rt-thread/components/net/lwip-2.0.2/src/core/tcp.c:720:3
	ldr	r1, [sp, #8]
	.loc	10 720 20                       @ rt-thread/components/net/lwip-2.0.2/src/core/tcp.c:720:20
	strb	r0, [r1, #8]
	.loc	10 721 15 is_stmt 1             @ rt-thread/components/net/lwip-2.0.2/src/core/tcp.c:721:15
	ldr	r0, [sp, #20]
	.loc	10 721 20 is_stmt 0             @ rt-thread/components/net/lwip-2.0.2/src/core/tcp.c:721:20
	ldrb	r0, [r0, #10]
	.loc	10 721 3                        @ rt-thread/components/net/lwip-2.0.2/src/core/tcp.c:721:3
	ldr	r1, [sp, #8]
	.loc	10 721 13                       @ rt-thread/components/net/lwip-2.0.2/src/core/tcp.c:721:13
	strb	r0, [r1, #10]
	.loc	10 722 15 is_stmt 1             @ rt-thread/components/net/lwip-2.0.2/src/core/tcp.c:722:15
	ldr	r0, [sp, #20]
	.loc	10 722 20 is_stmt 0             @ rt-thread/components/net/lwip-2.0.2/src/core/tcp.c:722:20
	ldrb	r0, [r0, #9]
	.loc	10 722 3                        @ rt-thread/components/net/lwip-2.0.2/src/core/tcp.c:722:3
	ldr	r1, [sp, #8]
	.loc	10 722 13                       @ rt-thread/components/net/lwip-2.0.2/src/core/tcp.c:722:13
	strb	r0, [r1, #9]
	.loc	10 726 3 is_stmt 1              @ rt-thread/components/net/lwip-2.0.2/src/core/tcp.c:726:3
	ldr	r0, [sp, #20]
	ldr	r0, [r0]
	ldr	r1, [sp, #8]
	str	r0, [r1]
.Ltmp512:
	.loc	10 727 7                        @ rt-thread/components/net/lwip-2.0.2/src/core/tcp.c:727:7
	ldr	r0, [sp, #20]
	.loc	10 727 12 is_stmt 0             @ rt-thread/components/net/lwip-2.0.2/src/core/tcp.c:727:12
	ldrh	r0, [r0, #22]
.Ltmp513:
	.loc	10 727 7                        @ rt-thread/components/net/lwip-2.0.2/src/core/tcp.c:727:7
	cbz	r0, .LBB14_32
	b	.LBB14_20
.LBB14_20:
.Ltmp514:
	.loc	10 728 5 is_stmt 1              @ rt-thread/components/net/lwip-2.0.2/src/core/tcp.c:728:5
	b	.LBB14_21
.LBB14_21:
.Ltmp515:
	.loc	10 728 5 is_stmt 0              @ rt-thread/components/net/lwip-2.0.2/src/core/tcp.c:728:5
	movw	r0, :lower16:tcp_bound_pcbs
	movt	r0, :upper16:tcp_bound_pcbs
	ldr	r0, [r0]
	ldr	r1, [sp, #20]
.Ltmp516:
	.loc	10 728 5                        @ rt-thread/components/net/lwip-2.0.2/src/core/tcp.c:728:5
	cmp	r0, r1
	bne	.LBB14_23
	b	.LBB14_22
.LBB14_22:
.Ltmp517:
	.loc	10 728 5                        @ rt-thread/components/net/lwip-2.0.2/src/core/tcp.c:728:5
	movw	r1, :lower16:tcp_bound_pcbs
	movt	r1, :upper16:tcp_bound_pcbs
	ldr	r0, [r1]
	ldr	r0, [r0, #12]
	str	r0, [r1]
	b	.LBB14_30
.Ltmp518:
.LBB14_23:
	.loc	10 728 5                        @ rt-thread/components/net/lwip-2.0.2/src/core/tcp.c:728:5
	movw	r0, :lower16:tcp_bound_pcbs
	movt	r0, :upper16:tcp_bound_pcbs
	ldr	r0, [r0]
	str	r0, [sp]
	b	.LBB14_24
.LBB14_24:                              @ =>This Inner Loop Header: Depth=1
.Ltmp519:
	.loc	10 728 5                        @ rt-thread/components/net/lwip-2.0.2/src/core/tcp.c:728:5
	ldr	r0, [sp]
.Ltmp520:
	.loc	10 728 5                        @ rt-thread/components/net/lwip-2.0.2/src/core/tcp.c:728:5
	cbz	r0, .LBB14_29
	b	.LBB14_25
.LBB14_25:                              @   in Loop: Header=BB14_24 Depth=1
.Ltmp521:
	.loc	10 728 5                        @ rt-thread/components/net/lwip-2.0.2/src/core/tcp.c:728:5
	ldr	r0, [sp]
	ldr	r0, [r0, #12]
	ldr	r1, [sp, #20]
.Ltmp522:
	.loc	10 728 5                        @ rt-thread/components/net/lwip-2.0.2/src/core/tcp.c:728:5
	cmp	r0, r1
	bne	.LBB14_27
	b	.LBB14_26
.LBB14_26:
.Ltmp523:
	.loc	10 728 5                        @ rt-thread/components/net/lwip-2.0.2/src/core/tcp.c:728:5
	ldr	r0, [sp, #20]
	ldr	r0, [r0, #12]
	ldr	r1, [sp]
	str	r0, [r1, #12]
	b	.LBB14_29
.Ltmp524:
.LBB14_27:                              @   in Loop: Header=BB14_24 Depth=1
	.loc	10 728 5                        @ rt-thread/components/net/lwip-2.0.2/src/core/tcp.c:728:5
	b	.LBB14_28
.Ltmp525:
.LBB14_28:                              @   in Loop: Header=BB14_24 Depth=1
	.loc	10 728 5                        @ rt-thread/components/net/lwip-2.0.2/src/core/tcp.c:728:5
	ldr	r0, [sp]
	ldr	r0, [r0, #12]
	str	r0, [sp]
	b	.LBB14_24
.Ltmp526:
.LBB14_29:
	.loc	10 0 5                          @ rt-thread/components/net/lwip-2.0.2/src/core/tcp.c:0:5
	b	.LBB14_30
.LBB14_30:
	.loc	10 728 5                        @ rt-thread/components/net/lwip-2.0.2/src/core/tcp.c:728:5
	ldr	r1, [sp, #20]
	movs	r0, #0
	str	r0, [r1, #12]
	b	.LBB14_31
.Ltmp527:
.LBB14_31:
	.loc	10 729 3 is_stmt 1              @ rt-thread/components/net/lwip-2.0.2/src/core/tcp.c:729:3
	b	.LBB14_32
.Ltmp528:
.LBB14_32:
	.loc	10 730 27                       @ rt-thread/components/net/lwip-2.0.2/src/core/tcp.c:730:27
	ldr	r1, [sp, #20]
	movs	r0, #2
	.loc	10 730 3 is_stmt 0              @ rt-thread/components/net/lwip-2.0.2/src/core/tcp.c:730:3
	bl	memp_free
	.loc	10 732 3 is_stmt 1              @ rt-thread/components/net/lwip-2.0.2/src/core/tcp.c:732:3
	ldr	r1, [sp, #8]
	.loc	10 732 16 is_stmt 0             @ rt-thread/components/net/lwip-2.0.2/src/core/tcp.c:732:16
	movw	r0, :lower16:tcp_accept_null
	movt	r0, :upper16:tcp_accept_null
	str	r0, [r1, #24]
	.loc	10 738 3 is_stmt 1              @ rt-thread/components/net/lwip-2.0.2/src/core/tcp.c:738:3
	b	.LBB14_33
.LBB14_33:
.Ltmp529:
	.loc	10 738 3 is_stmt 0              @ rt-thread/components/net/lwip-2.0.2/src/core/tcp.c:738:3
	movw	r1, :lower16:tcp_listen_pcbs
	movt	r1, :upper16:tcp_listen_pcbs
	ldr	r0, [r1]
	ldr	r2, [sp, #8]
	str	r0, [r2, #12]
	ldr	r0, [sp, #8]
	str	r0, [r1]
	bl	tcp_timer_needed
	b	.LBB14_34
.Ltmp530:
.LBB14_34:
	.loc	10 0 3                          @ rt-thread/components/net/lwip-2.0.2/src/core/tcp.c:0:3
	movs	r0, #0
	.loc	10 739 7 is_stmt 1              @ rt-thread/components/net/lwip-2.0.2/src/core/tcp.c:739:7
	strb.w	r0, [sp, #7]
	.loc	10 739 3 is_stmt 0              @ rt-thread/components/net/lwip-2.0.2/src/core/tcp.c:739:3
	b	.LBB14_35
.LBB14_35:
.Ltmp531:
	@DEBUG_LABEL: tcp_listen_with_backlog_and_err:done
	.loc	10 741 7 is_stmt 1              @ rt-thread/components/net/lwip-2.0.2/src/core/tcp.c:741:7
	ldr	r0, [sp, #12]
.Ltmp532:
	.loc	10 741 7 is_stmt 0              @ rt-thread/components/net/lwip-2.0.2/src/core/tcp.c:741:7
	cbz	r0, .LBB14_37
	b	.LBB14_36
.LBB14_36:
.Ltmp533:
	.loc	10 742 12 is_stmt 1             @ rt-thread/components/net/lwip-2.0.2/src/core/tcp.c:742:12
	ldrb.w	r0, [sp, #7]
	.loc	10 742 6 is_stmt 0              @ rt-thread/components/net/lwip-2.0.2/src/core/tcp.c:742:6
	ldr	r1, [sp, #12]
	.loc	10 742 10                       @ rt-thread/components/net/lwip-2.0.2/src/core/tcp.c:742:10
	strb	r0, [r1]
	.loc	10 743 3 is_stmt 1              @ rt-thread/components/net/lwip-2.0.2/src/core/tcp.c:743:3
	b	.LBB14_37
.Ltmp534:
.LBB14_37:
	.loc	10 744 28                       @ rt-thread/components/net/lwip-2.0.2/src/core/tcp.c:744:28
	ldr	r0, [sp, #8]
	.loc	10 744 3 is_stmt 0              @ rt-thread/components/net/lwip-2.0.2/src/core/tcp.c:744:3
	add	sp, #24
	pop	{r7, pc}
.Ltmp535:
.Lfunc_end14:
	.size	tcp_listen_with_backlog_and_err, .Lfunc_end14-tcp_listen_with_backlog_and_err
	.cfi_endproc
	.cantunwind
	.fnend
                                        @ -- End function
	.section	.text.tcp_accept_null,"ax",%progbits
	.p2align	3                               @ -- Begin function tcp_accept_null
	.type	tcp_accept_null,%function
	.code	16                              @ @tcp_accept_null
	.thumb_func
tcp_accept_null:
.Lfunc_begin15:
	.loc	10 633 0 is_stmt 1              @ rt-thread/components/net/lwip-2.0.2/src/core/tcp.c:633:0
	.fnstart
	.cfi_startproc
@ %bb.0:
	.save	{r7, lr}
	push	{r7, lr}
	.cfi_def_cfa_offset 8
	.cfi_offset lr, -4
	.cfi_offset r7, -8
	.pad	#16
	sub	sp, #16
	.cfi_def_cfa_offset 24
                                        @ kill: def $r3 killed $r2
	str	r0, [sp, #12]
	str	r1, [sp, #8]
	strb.w	r2, [sp, #7]
.Ltmp536:
	.loc	10 637 13 prologue_end          @ rt-thread/components/net/lwip-2.0.2/src/core/tcp.c:637:13
	ldr	r0, [sp, #8]
	.loc	10 637 3 is_stmt 0              @ rt-thread/components/net/lwip-2.0.2/src/core/tcp.c:637:3
	bl	tcp_abort
	mvn	r0, #12
	.loc	10 639 3 is_stmt 1              @ rt-thread/components/net/lwip-2.0.2/src/core/tcp.c:639:3
	add	sp, #16
	pop	{r7, pc}
.Ltmp537:
.Lfunc_end15:
	.size	tcp_accept_null, .Lfunc_end15-tcp_accept_null
	.cfi_endproc
	.cantunwind
	.fnend
                                        @ -- End function
	.section	.text.tcp_update_rcv_ann_wnd,"ax",%progbits
	.hidden	tcp_update_rcv_ann_wnd          @ -- Begin function tcp_update_rcv_ann_wnd
	.globl	tcp_update_rcv_ann_wnd
	.p2align	3
	.type	tcp_update_rcv_ann_wnd,%function
	.code	16                              @ @tcp_update_rcv_ann_wnd
	.thumb_func
tcp_update_rcv_ann_wnd:
.Lfunc_begin16:
	.loc	10 755 0                        @ rt-thread/components/net/lwip-2.0.2/src/core/tcp.c:755:0
	.fnstart
	.cfi_startproc
@ %bb.0:
	.save	{r7, lr}
	push	{r7, lr}
	.cfi_def_cfa_offset 8
	.cfi_offset lr, -4
	.cfi_offset r7, -8
	.pad	#32
	sub	sp, #32
	.cfi_def_cfa_offset 40
	str	r0, [sp, #24]
.Ltmp538:
	.loc	10 756 26 prologue_end          @ rt-thread/components/net/lwip-2.0.2/src/core/tcp.c:756:26
	ldr	r1, [sp, #24]
	.loc	10 756 31 is_stmt 0             @ rt-thread/components/net/lwip-2.0.2/src/core/tcp.c:756:31
	ldr	r0, [r1, #36]
	.loc	10 756 46                       @ rt-thread/components/net/lwip-2.0.2/src/core/tcp.c:756:46
	ldrh	r1, [r1, #40]
	.loc	10 756 39                       @ rt-thread/components/net/lwip-2.0.2/src/core/tcp.c:756:39
	add	r0, r1
	.loc	10 756 9                        @ rt-thread/components/net/lwip-2.0.2/src/core/tcp.c:756:9
	str	r0, [sp, #20]
.Ltmp539:
	.loc	10 758 7 is_stmt 1              @ rt-thread/components/net/lwip-2.0.2/src/core/tcp.c:758:7
	ldr	r0, [sp, #20]
	str	r0, [sp, #8]                    @ 4-byte Spill
	ldr	r0, [sp, #24]
	ldr	r1, [r0, #44]
	str	r1, [sp, #12]                   @ 4-byte Spill
	ldrh	r0, [r0, #50]
	movw	r1, #4099
	cmp	r0, r1
	blt	.LBB16_2
	b	.LBB16_1
.LBB16_1:
	.loc	10 0 7 is_stmt 0                @ rt-thread/components/net/lwip-2.0.2/src/core/tcp.c:0:7
	movw	r0, #4098
	.loc	10 758 7                        @ rt-thread/components/net/lwip-2.0.2/src/core/tcp.c:758:7
	str	r0, [sp, #4]                    @ 4-byte Spill
	b	.LBB16_3
.LBB16_2:
	ldr	r0, [sp, #24]
	ldrh	r0, [r0, #50]
	str	r0, [sp, #4]                    @ 4-byte Spill
	b	.LBB16_3
.LBB16_3:
	ldr	r0, [sp, #8]                    @ 4-byte Reload
	ldr	r1, [sp, #12]                   @ 4-byte Reload
	ldr	r2, [sp, #4]                    @ 4-byte Reload
	add	r1, r2
	subs	r0, r0, r1
.Ltmp540:
	.loc	10 758 7                        @ rt-thread/components/net/lwip-2.0.2/src/core/tcp.c:758:7
	cmp	r0, #0
	bmi	.LBB16_5
	b	.LBB16_4
.LBB16_4:
.Ltmp541:
	.loc	10 760 24 is_stmt 1             @ rt-thread/components/net/lwip-2.0.2/src/core/tcp.c:760:24
	ldr	r1, [sp, #24]
	.loc	10 760 29 is_stmt 0             @ rt-thread/components/net/lwip-2.0.2/src/core/tcp.c:760:29
	ldrh	r0, [r1, #40]
	.loc	10 760 22                       @ rt-thread/components/net/lwip-2.0.2/src/core/tcp.c:760:22
	strh	r0, [r1, #42]
	.loc	10 761 12 is_stmt 1             @ rt-thread/components/net/lwip-2.0.2/src/core/tcp.c:761:12
	ldr	r0, [sp, #20]
	.loc	10 761 29 is_stmt 0             @ rt-thread/components/net/lwip-2.0.2/src/core/tcp.c:761:29
	ldr	r1, [sp, #24]
	.loc	10 761 34                       @ rt-thread/components/net/lwip-2.0.2/src/core/tcp.c:761:34
	ldr	r1, [r1, #44]
	.loc	10 761 27                       @ rt-thread/components/net/lwip-2.0.2/src/core/tcp.c:761:27
	subs	r0, r0, r1
	.loc	10 761 5                        @ rt-thread/components/net/lwip-2.0.2/src/core/tcp.c:761:5
	str	r0, [sp, #28]
	b	.LBB16_15
.Ltmp542:
.LBB16_5:
	.loc	10 763 9 is_stmt 1              @ rt-thread/components/net/lwip-2.0.2/src/core/tcp.c:763:9
	ldr	r1, [sp, #24]
	ldr	r0, [r1, #36]
	ldr	r1, [r1, #44]
	subs	r0, r0, r1
.Ltmp543:
	.loc	10 763 9 is_stmt 0              @ rt-thread/components/net/lwip-2.0.2/src/core/tcp.c:763:9
	cmp	r0, #1
	blt	.LBB16_7
	b	.LBB16_6
.LBB16_6:
.Ltmp544:
	.loc	10 766 7 is_stmt 1              @ rt-thread/components/net/lwip-2.0.2/src/core/tcp.c:766:7
	ldr	r1, [sp, #24]
	movs	r0, #0
	.loc	10 766 24 is_stmt 0             @ rt-thread/components/net/lwip-2.0.2/src/core/tcp.c:766:24
	strh	r0, [r1, #42]
	.loc	10 767 5 is_stmt 1              @ rt-thread/components/net/lwip-2.0.2/src/core/tcp.c:767:5
	b	.LBB16_14
.Ltmp545:
.LBB16_7:
	.loc	10 769 31                       @ rt-thread/components/net/lwip-2.0.2/src/core/tcp.c:769:31
	ldr	r0, [sp, #24]
	.loc	10 769 62 is_stmt 0             @ rt-thread/components/net/lwip-2.0.2/src/core/tcp.c:769:62
	ldr	r1, [r0, #36]
	.loc	10 769 36                       @ rt-thread/components/net/lwip-2.0.2/src/core/tcp.c:769:36
	ldr	r0, [r0, #44]
	.loc	10 769 55                       @ rt-thread/components/net/lwip-2.0.2/src/core/tcp.c:769:55
	subs	r0, r0, r1
	.loc	10 769 13                       @ rt-thread/components/net/lwip-2.0.2/src/core/tcp.c:769:13
	str	r0, [sp, #16]
	.loc	10 771 7 is_stmt 1              @ rt-thread/components/net/lwip-2.0.2/src/core/tcp.c:771:7
	b	.LBB16_8
.LBB16_8:
.Ltmp546:
	.loc	10 771 7 is_stmt 0              @ rt-thread/components/net/lwip-2.0.2/src/core/tcp.c:771:7
	ldr	r0, [sp, #16]
.Ltmp547:
	.loc	10 771 7                        @ rt-thread/components/net/lwip-2.0.2/src/core/tcp.c:771:7
	cmp.w	r0, #65536
	blo	.LBB16_12
	b	.LBB16_9
.LBB16_9:
.Ltmp548:
	.loc	10 771 7                        @ rt-thread/components/net/lwip-2.0.2/src/core/tcp.c:771:7
	b	.LBB16_10
.LBB16_10:
.Ltmp549:
	.loc	10 771 7                        @ rt-thread/components/net/lwip-2.0.2/src/core/tcp.c:771:7
	movw	r0, :lower16:.L.str.4
	movt	r0, :upper16:.L.str.4
	bl	rt_kprintf
	movw	r0, :lower16:.L.str.1
	movt	r0, :upper16:.L.str.1
	movw	r1, #771
	bl	sys_arch_assert
	b	.LBB16_11
.Ltmp550:
.LBB16_11:
	.loc	10 771 7                        @ rt-thread/components/net/lwip-2.0.2/src/core/tcp.c:771:7
	b	.LBB16_12
.Ltmp551:
.LBB16_12:
	.loc	10 771 7                        @ rt-thread/components/net/lwip-2.0.2/src/core/tcp.c:771:7
	b	.LBB16_13
.Ltmp552:
.LBB16_13:
	.loc	10 773 41 is_stmt 1             @ rt-thread/components/net/lwip-2.0.2/src/core/tcp.c:773:41
	ldr	r0, [sp, #16]
	.loc	10 773 7 is_stmt 0              @ rt-thread/components/net/lwip-2.0.2/src/core/tcp.c:773:7
	ldr	r1, [sp, #24]
	.loc	10 773 24                       @ rt-thread/components/net/lwip-2.0.2/src/core/tcp.c:773:24
	strh	r0, [r1, #42]
	b	.LBB16_14
.Ltmp553:
.LBB16_14:
	.loc	10 0 24                         @ rt-thread/components/net/lwip-2.0.2/src/core/tcp.c:0:24
	movs	r0, #0
	.loc	10 775 5 is_stmt 1              @ rt-thread/components/net/lwip-2.0.2/src/core/tcp.c:775:5
	str	r0, [sp, #28]
	b	.LBB16_15
.Ltmp554:
.LBB16_15:
	.loc	10 777 1                        @ rt-thread/components/net/lwip-2.0.2/src/core/tcp.c:777:1
	ldr	r0, [sp, #28]
	add	sp, #32
	pop	{r7, pc}
.Ltmp555:
.Lfunc_end16:
	.size	tcp_update_rcv_ann_wnd, .Lfunc_end16-tcp_update_rcv_ann_wnd
	.cfi_endproc
	.cantunwind
	.fnend
                                        @ -- End function
	.section	.text.tcp_recved,"ax",%progbits
	.hidden	tcp_recved                      @ -- Begin function tcp_recved
	.globl	tcp_recved
	.p2align	3
	.type	tcp_recved,%function
	.code	16                              @ @tcp_recved
	.thumb_func
tcp_recved:
.Lfunc_begin17:
	.loc	10 790 0                        @ rt-thread/components/net/lwip-2.0.2/src/core/tcp.c:790:0
	.fnstart
	.cfi_startproc
@ %bb.0:
	.save	{r7, lr}
	push	{r7, lr}
	.cfi_def_cfa_offset 8
	.cfi_offset lr, -4
	.cfi_offset r7, -8
	.pad	#16
	sub	sp, #16
	.cfi_def_cfa_offset 24
                                        @ kill: def $r2 killed $r1
	str	r0, [sp, #12]
	strh.w	r1, [sp, #10]
.Ltmp556:
	.loc	10 794 3 prologue_end           @ rt-thread/components/net/lwip-2.0.2/src/core/tcp.c:794:3
	b	.LBB17_1
.LBB17_1:
.Ltmp557:
	.loc	10 794 3 is_stmt 0              @ rt-thread/components/net/lwip-2.0.2/src/core/tcp.c:794:3
	ldr	r0, [sp, #12]
	ldrb	r0, [r0, #20]
.Ltmp558:
	.loc	10 794 3                        @ rt-thread/components/net/lwip-2.0.2/src/core/tcp.c:794:3
	cmp	r0, #1
	bne	.LBB17_5
	b	.LBB17_2
.LBB17_2:
.Ltmp559:
	.loc	10 794 3                        @ rt-thread/components/net/lwip-2.0.2/src/core/tcp.c:794:3
	b	.LBB17_3
.LBB17_3:
.Ltmp560:
	.loc	10 794 3                        @ rt-thread/components/net/lwip-2.0.2/src/core/tcp.c:794:3
	movw	r0, :lower16:.L.str.5
	movt	r0, :upper16:.L.str.5
	bl	rt_kprintf
	movw	r0, :lower16:.L.str.1
	movt	r0, :upper16:.L.str.1
	movw	r1, #795
	bl	sys_arch_assert
	b	.LBB17_4
.Ltmp561:
.LBB17_4:
	.loc	10 794 3                        @ rt-thread/components/net/lwip-2.0.2/src/core/tcp.c:794:3
	b	.LBB17_5
.Ltmp562:
.LBB17_5:
	.loc	10 794 3                        @ rt-thread/components/net/lwip-2.0.2/src/core/tcp.c:794:3
	b	.LBB17_6
.Ltmp563:
.LBB17_6:
	.loc	10 797 19 is_stmt 1             @ rt-thread/components/net/lwip-2.0.2/src/core/tcp.c:797:19
	ldrh.w	r2, [sp, #10]
	.loc	10 797 3 is_stmt 0              @ rt-thread/components/net/lwip-2.0.2/src/core/tcp.c:797:3
	ldr	r1, [sp, #12]
	.loc	10 797 16                       @ rt-thread/components/net/lwip-2.0.2/src/core/tcp.c:797:16
	ldrh	r0, [r1, #40]
	add	r0, r2
	strh	r0, [r1, #40]
.Ltmp564:
	.loc	10 798 7 is_stmt 1              @ rt-thread/components/net/lwip-2.0.2/src/core/tcp.c:798:7
	ldr	r0, [sp, #12]
	.loc	10 798 12 is_stmt 0             @ rt-thread/components/net/lwip-2.0.2/src/core/tcp.c:798:12
	ldrh	r0, [r0, #40]
	movw	r1, #8197
.Ltmp565:
	.loc	10 798 7                        @ rt-thread/components/net/lwip-2.0.2/src/core/tcp.c:798:7
	cmp	r0, r1
	blt	.LBB17_8
	b	.LBB17_7
.LBB17_7:
.Ltmp566:
	.loc	10 799 5 is_stmt 1              @ rt-thread/components/net/lwip-2.0.2/src/core/tcp.c:799:5
	ldr	r1, [sp, #12]
	movw	r0, #8196
	.loc	10 799 18 is_stmt 0             @ rt-thread/components/net/lwip-2.0.2/src/core/tcp.c:799:18
	strh	r0, [r1, #40]
	.loc	10 800 3 is_stmt 1              @ rt-thread/components/net/lwip-2.0.2/src/core/tcp.c:800:3
	b	.LBB17_19
.Ltmp567:
.LBB17_8:
	.loc	10 800 14 is_stmt 0             @ rt-thread/components/net/lwip-2.0.2/src/core/tcp.c:800:14
	ldr	r0, [sp, #12]
	.loc	10 800 19                       @ rt-thread/components/net/lwip-2.0.2/src/core/tcp.c:800:19
	ldrh	r0, [r0, #40]
.Ltmp568:
	.loc	10 800 14                       @ rt-thread/components/net/lwip-2.0.2/src/core/tcp.c:800:14
	cbnz	r0, .LBB17_18
	b	.LBB17_9
.LBB17_9:
.Ltmp569:
	.loc	10 802 10 is_stmt 1             @ rt-thread/components/net/lwip-2.0.2/src/core/tcp.c:802:10
	ldr	r0, [sp, #12]
	.loc	10 802 15 is_stmt 0             @ rt-thread/components/net/lwip-2.0.2/src/core/tcp.c:802:15
	ldrb	r0, [r0, #20]
	.loc	10 802 36                       @ rt-thread/components/net/lwip-2.0.2/src/core/tcp.c:802:36
	cmp	r0, #7
	beq	.LBB17_11
	b	.LBB17_10
.LBB17_10:
	.loc	10 802 40                       @ rt-thread/components/net/lwip-2.0.2/src/core/tcp.c:802:40
	ldr	r0, [sp, #12]
	.loc	10 802 45                       @ rt-thread/components/net/lwip-2.0.2/src/core/tcp.c:802:45
	ldrb	r0, [r0, #20]
.Ltmp570:
	.loc	10 802 9                        @ rt-thread/components/net/lwip-2.0.2/src/core/tcp.c:802:9
	cmp	r0, #9
	bne	.LBB17_12
	b	.LBB17_11
.LBB17_11:
.Ltmp571:
	.loc	10 806 7 is_stmt 1              @ rt-thread/components/net/lwip-2.0.2/src/core/tcp.c:806:7
	ldr	r1, [sp, #12]
	movw	r0, #8196
	.loc	10 806 20 is_stmt 0             @ rt-thread/components/net/lwip-2.0.2/src/core/tcp.c:806:20
	strh	r0, [r1, #40]
	.loc	10 807 5 is_stmt 1              @ rt-thread/components/net/lwip-2.0.2/src/core/tcp.c:807:5
	b	.LBB17_17
.Ltmp572:
.LBB17_12:
	.loc	10 808 7                        @ rt-thread/components/net/lwip-2.0.2/src/core/tcp.c:808:7
	b	.LBB17_13
.LBB17_13:
.Ltmp573:
	.loc	10 808 7 is_stmt 0              @ rt-thread/components/net/lwip-2.0.2/src/core/tcp.c:808:7
	b	.LBB17_14
.LBB17_14:
.Ltmp574:
	.loc	10 808 7                        @ rt-thread/components/net/lwip-2.0.2/src/core/tcp.c:808:7
	movw	r0, :lower16:.L.str.6
	movt	r0, :upper16:.L.str.6
	bl	rt_kprintf
	movw	r0, :lower16:.L.str.1
	movt	r0, :upper16:.L.str.1
	mov.w	r1, #808
	bl	sys_arch_assert
	b	.LBB17_15
.Ltmp575:
.LBB17_15:
	.loc	10 808 7                        @ rt-thread/components/net/lwip-2.0.2/src/core/tcp.c:808:7
	b	.LBB17_16
.Ltmp576:
.LBB17_16:
	.loc	10 0 7                          @ rt-thread/components/net/lwip-2.0.2/src/core/tcp.c:0:7
	b	.LBB17_17
.LBB17_17:
	.loc	10 810 3 is_stmt 1              @ rt-thread/components/net/lwip-2.0.2/src/core/tcp.c:810:3
	b	.LBB17_18
.Ltmp577:
.LBB17_18:
	.loc	10 0 3 is_stmt 0                @ rt-thread/components/net/lwip-2.0.2/src/core/tcp.c:0:3
	b	.LBB17_19
.LBB17_19:
	.loc	10 812 42 is_stmt 1             @ rt-thread/components/net/lwip-2.0.2/src/core/tcp.c:812:42
	ldr	r0, [sp, #12]
	.loc	10 812 19 is_stmt 0             @ rt-thread/components/net/lwip-2.0.2/src/core/tcp.c:812:19
	bl	tcp_update_rcv_ann_wnd
	.loc	10 812 17                       @ rt-thread/components/net/lwip-2.0.2/src/core/tcp.c:812:17
	str	r0, [sp, #4]
.Ltmp578:
	.loc	10 818 7 is_stmt 1              @ rt-thread/components/net/lwip-2.0.2/src/core/tcp.c:818:7
	ldr	r0, [sp, #4]
.Ltmp579:
	.loc	10 818 7 is_stmt 0              @ rt-thread/components/net/lwip-2.0.2/src/core/tcp.c:818:7
	cmp.w	r0, #2048
	ble	.LBB17_23
	b	.LBB17_20
.LBB17_20:
.Ltmp580:
	.loc	10 819 5 is_stmt 1              @ rt-thread/components/net/lwip-2.0.2/src/core/tcp.c:819:5
	b	.LBB17_21
.LBB17_21:
.Ltmp581:
	.loc	10 819 5 is_stmt 0              @ rt-thread/components/net/lwip-2.0.2/src/core/tcp.c:819:5
	ldr	r1, [sp, #12]
	ldrb	r0, [r1, #26]
	orr	r0, r0, #2
	strb	r0, [r1, #26]
	b	.LBB17_22
.Ltmp582:
.LBB17_22:
	.loc	10 820 16 is_stmt 1             @ rt-thread/components/net/lwip-2.0.2/src/core/tcp.c:820:16
	ldr	r0, [sp, #12]
	.loc	10 820 5 is_stmt 0              @ rt-thread/components/net/lwip-2.0.2/src/core/tcp.c:820:5
	bl	tcp_output
	.loc	10 821 3 is_stmt 1              @ rt-thread/components/net/lwip-2.0.2/src/core/tcp.c:821:3
	b	.LBB17_23
.Ltmp583:
.LBB17_23:
	.loc	10 825 1                        @ rt-thread/components/net/lwip-2.0.2/src/core/tcp.c:825:1
	add	sp, #16
	pop	{r7, pc}
.Ltmp584:
.Lfunc_end17:
	.size	tcp_recved, .Lfunc_end17-tcp_recved
	.cfi_endproc
	.cantunwind
	.fnend
                                        @ -- End function
	.section	.text.tcp_connect,"ax",%progbits
	.hidden	tcp_connect                     @ -- Begin function tcp_connect
	.globl	tcp_connect
	.p2align	3
	.type	tcp_connect,%function
	.code	16                              @ @tcp_connect
	.thumb_func
tcp_connect:
.Lfunc_begin18:
	.loc	10 874 0                        @ rt-thread/components/net/lwip-2.0.2/src/core/tcp.c:874:0
	.fnstart
	.cfi_startproc
@ %bb.0:
	.save	{r7, lr}
	push	{r7, lr}
	.cfi_def_cfa_offset 8
	.cfi_offset lr, -4
	.cfi_offset r7, -8
	.pad	#64
	sub	sp, #64
	.cfi_def_cfa_offset 72
                                        @ kill: def $r12 killed $r2
	str	r0, [sp, #56]
	str	r1, [sp, #52]
	strh.w	r2, [sp, #50]
	str	r3, [sp, #44]
.Ltmp585:
	.loc	10 879 8 prologue_end           @ rt-thread/components/net/lwip-2.0.2/src/core/tcp.c:879:8
	ldr	r0, [sp, #56]
	.loc	10 879 21 is_stmt 0             @ rt-thread/components/net/lwip-2.0.2/src/core/tcp.c:879:21
	cbz	r0, .LBB18_2
	b	.LBB18_1
.LBB18_1:
	.loc	10 879 25                       @ rt-thread/components/net/lwip-2.0.2/src/core/tcp.c:879:25
	ldr	r0, [sp, #52]
.Ltmp586:
	.loc	10 879 7                        @ rt-thread/components/net/lwip-2.0.2/src/core/tcp.c:879:7
	cbnz	r0, .LBB18_3
	b	.LBB18_2
.LBB18_2:
	.loc	10 0 7                          @ rt-thread/components/net/lwip-2.0.2/src/core/tcp.c:0:7
	movs	r0, #250
.Ltmp587:
	.loc	10 880 5 is_stmt 1              @ rt-thread/components/net/lwip-2.0.2/src/core/tcp.c:880:5
	strb.w	r0, [sp, #63]
	b	.LBB18_63
.Ltmp588:
.LBB18_3:
	.loc	10 883 3                        @ rt-thread/components/net/lwip-2.0.2/src/core/tcp.c:883:3
	b	.LBB18_4
.LBB18_4:
.Ltmp589:
	.loc	10 883 3 is_stmt 0              @ rt-thread/components/net/lwip-2.0.2/src/core/tcp.c:883:3
	ldr	r0, [sp, #56]
	ldrb	r0, [r0, #20]
.Ltmp590:
	.loc	10 883 3                        @ rt-thread/components/net/lwip-2.0.2/src/core/tcp.c:883:3
	cbz	r0, .LBB18_8
	b	.LBB18_5
.LBB18_5:
.Ltmp591:
	.loc	10 883 3                        @ rt-thread/components/net/lwip-2.0.2/src/core/tcp.c:883:3
	b	.LBB18_6
.LBB18_6:
.Ltmp592:
	.loc	10 883 3                        @ rt-thread/components/net/lwip-2.0.2/src/core/tcp.c:883:3
	movw	r0, :lower16:.L.str.7
	movt	r0, :upper16:.L.str.7
	bl	rt_kprintf
	movw	r0, :lower16:.L.str.1
	movt	r0, :upper16:.L.str.1
	movw	r1, #883
	bl	sys_arch_assert
	b	.LBB18_7
.Ltmp593:
.LBB18_7:
	.loc	10 0 3                          @ rt-thread/components/net/lwip-2.0.2/src/core/tcp.c:0:3
	movs	r0, #246
	.loc	10 883 3                        @ rt-thread/components/net/lwip-2.0.2/src/core/tcp.c:883:3
	strb.w	r0, [sp, #63]
	b	.LBB18_63
.Ltmp594:
.LBB18_8:
	.loc	10 883 3                        @ rt-thread/components/net/lwip-2.0.2/src/core/tcp.c:883:3
	b	.LBB18_9
.Ltmp595:
.LBB18_9:
	.loc	10 886 3 is_stmt 1              @ rt-thread/components/net/lwip-2.0.2/src/core/tcp.c:886:3
	ldr	r0, [sp, #52]
	cbnz	r0, .LBB18_11
	b	.LBB18_10
.LBB18_10:
	.loc	10 0 3 is_stmt 0                @ rt-thread/components/net/lwip-2.0.2/src/core/tcp.c:0:3
	movs	r0, #0
	.loc	10 886 3                        @ rt-thread/components/net/lwip-2.0.2/src/core/tcp.c:886:3
	str	r0, [sp, #8]                    @ 4-byte Spill
	b	.LBB18_12
.LBB18_11:
	ldr	r0, [sp, #52]
	ldr	r0, [r0]
	str	r0, [sp, #8]                    @ 4-byte Spill
	b	.LBB18_12
.LBB18_12:
	ldr	r0, [sp, #8]                    @ 4-byte Reload
	ldr	r1, [sp, #56]
	str	r0, [r1, #4]
	.loc	10 887 22 is_stmt 1             @ rt-thread/components/net/lwip-2.0.2/src/core/tcp.c:887:22
	ldrh.w	r0, [sp, #50]
	.loc	10 887 3 is_stmt 0              @ rt-thread/components/net/lwip-2.0.2/src/core/tcp.c:887:3
	ldr	r1, [sp, #56]
	.loc	10 887 20                       @ rt-thread/components/net/lwip-2.0.2/src/core/tcp.c:887:20
	strh	r0, [r1, #24]
.Ltmp596:
	.loc	10 890 7 is_stmt 1              @ rt-thread/components/net/lwip-2.0.2/src/core/tcp.c:890:7
	ldr	r0, [sp, #56]
	cbz	r0, .LBB18_14
	b	.LBB18_13
.LBB18_13:
	ldr	r0, [sp, #56]
	ldr	r0, [r0]
.Ltmp597:
	.loc	10 890 7 is_stmt 0              @ rt-thread/components/net/lwip-2.0.2/src/core/tcp.c:890:7
	cbnz	r0, .LBB18_23
	b	.LBB18_14
.LBB18_14:
.Ltmp598:
	.loc	10 894 5 is_stmt 1              @ rt-thread/components/net/lwip-2.0.2/src/core/tcp.c:894:5
	b	.LBB18_15
.LBB18_15:
.Ltmp599:
	.loc	10 894 5 is_stmt 0              @ rt-thread/components/net/lwip-2.0.2/src/core/tcp.c:894:5
	ldr	r0, [sp, #56]
	adds	r0, #4
	bl	ip4_route
	str	r0, [sp, #28]
	ldr	r0, [sp, #28]
	cbz	r0, .LBB18_17
	b	.LBB18_16
.LBB18_16:
	ldr	r0, [sp, #28]
	adds	r0, #4
	str	r0, [sp, #4]                    @ 4-byte Spill
	b	.LBB18_18
.LBB18_17:
	.loc	10 0 5                          @ rt-thread/components/net/lwip-2.0.2/src/core/tcp.c:0:5
	movs	r0, #0
	.loc	10 894 5                        @ rt-thread/components/net/lwip-2.0.2/src/core/tcp.c:894:5
	str	r0, [sp, #4]                    @ 4-byte Spill
	b	.LBB18_18
.LBB18_18:
	ldr	r0, [sp, #4]                    @ 4-byte Reload
	str	r0, [sp, #24]
	b	.LBB18_19
.Ltmp600:
.LBB18_19:
	.loc	10 895 10 is_stmt 1             @ rt-thread/components/net/lwip-2.0.2/src/core/tcp.c:895:10
	ldr	r0, [sp, #28]
	.loc	10 895 25 is_stmt 0             @ rt-thread/components/net/lwip-2.0.2/src/core/tcp.c:895:25
	cbz	r0, .LBB18_21
	b	.LBB18_20
.LBB18_20:
	.loc	10 895 29                       @ rt-thread/components/net/lwip-2.0.2/src/core/tcp.c:895:29
	ldr	r0, [sp, #24]
.Ltmp601:
	.loc	10 895 9                        @ rt-thread/components/net/lwip-2.0.2/src/core/tcp.c:895:9
	cbnz	r0, .LBB18_22
	b	.LBB18_21
.LBB18_21:
	.loc	10 0 9                          @ rt-thread/components/net/lwip-2.0.2/src/core/tcp.c:0:9
	movs	r0, #252
.Ltmp602:
	.loc	10 898 7 is_stmt 1              @ rt-thread/components/net/lwip-2.0.2/src/core/tcp.c:898:7
	strb.w	r0, [sp, #63]
	b	.LBB18_63
.Ltmp603:
.LBB18_22:
	.loc	10 901 5                        @ rt-thread/components/net/lwip-2.0.2/src/core/tcp.c:901:5
	ldr	r0, [sp, #24]
	ldr	r0, [r0]
	ldr	r1, [sp, #56]
	str	r0, [r1]
	.loc	10 902 3                        @ rt-thread/components/net/lwip-2.0.2/src/core/tcp.c:902:3
	b	.LBB18_23
.Ltmp604:
.LBB18_23:
	.loc	10 904 20                       @ rt-thread/components/net/lwip-2.0.2/src/core/tcp.c:904:20
	ldr	r0, [sp, #56]
	.loc	10 904 25 is_stmt 0             @ rt-thread/components/net/lwip-2.0.2/src/core/tcp.c:904:25
	ldrh	r0, [r0, #22]
	.loc	10 904 18                       @ rt-thread/components/net/lwip-2.0.2/src/core/tcp.c:904:18
	strh.w	r0, [sp, #34]
.Ltmp605:
	.loc	10 905 7 is_stmt 1              @ rt-thread/components/net/lwip-2.0.2/src/core/tcp.c:905:7
	ldr	r0, [sp, #56]
	.loc	10 905 12 is_stmt 0             @ rt-thread/components/net/lwip-2.0.2/src/core/tcp.c:905:12
	ldrh	r0, [r0, #22]
.Ltmp606:
	.loc	10 905 7                        @ rt-thread/components/net/lwip-2.0.2/src/core/tcp.c:905:7
	cbnz	r0, .LBB18_27
	b	.LBB18_24
.LBB18_24:
.Ltmp607:
	.loc	10 906 23 is_stmt 1             @ rt-thread/components/net/lwip-2.0.2/src/core/tcp.c:906:23
	bl	tcp_new_port
	.loc	10 906 5 is_stmt 0              @ rt-thread/components/net/lwip-2.0.2/src/core/tcp.c:906:5
	ldr	r1, [sp, #56]
	.loc	10 906 21                       @ rt-thread/components/net/lwip-2.0.2/src/core/tcp.c:906:21
	strh	r0, [r1, #22]
.Ltmp608:
	.loc	10 907 9 is_stmt 1              @ rt-thread/components/net/lwip-2.0.2/src/core/tcp.c:907:9
	ldr	r0, [sp, #56]
	.loc	10 907 14 is_stmt 0             @ rt-thread/components/net/lwip-2.0.2/src/core/tcp.c:907:14
	ldrh	r0, [r0, #22]
.Ltmp609:
	.loc	10 907 9                        @ rt-thread/components/net/lwip-2.0.2/src/core/tcp.c:907:9
	cbnz	r0, .LBB18_26
	b	.LBB18_25
.LBB18_25:
	.loc	10 0 9                          @ rt-thread/components/net/lwip-2.0.2/src/core/tcp.c:0:9
	movs	r0, #254
.Ltmp610:
	.loc	10 908 7 is_stmt 1              @ rt-thread/components/net/lwip-2.0.2/src/core/tcp.c:908:7
	strb.w	r0, [sp, #63]
	b	.LBB18_63
.Ltmp611:
.LBB18_26:
	.loc	10 910 3                        @ rt-thread/components/net/lwip-2.0.2/src/core/tcp.c:910:3
	b	.LBB18_43
.Ltmp612:
.LBB18_27:
	.loc	10 912 9                        @ rt-thread/components/net/lwip-2.0.2/src/core/tcp.c:912:9
	ldr	r0, [sp, #56]
	ldrb	r0, [r0, #8]
.Ltmp613:
	.loc	10 912 9 is_stmt 0              @ rt-thread/components/net/lwip-2.0.2/src/core/tcp.c:912:9
	lsls	r0, r0, #29
	cmp	r0, #0
	bpl	.LBB18_42
	b	.LBB18_28
.LBB18_28:
	.loc	10 0 9                          @ rt-thread/components/net/lwip-2.0.2/src/core/tcp.c:0:9
	movs	r0, #2
.Ltmp614:
	.loc	10 918 14 is_stmt 1             @ rt-thread/components/net/lwip-2.0.2/src/core/tcp.c:918:14
	str	r0, [sp, #16]
	.loc	10 918 12 is_stmt 0             @ rt-thread/components/net/lwip-2.0.2/src/core/tcp.c:918:12
	b	.LBB18_29
.LBB18_29:                              @ =>This Loop Header: Depth=1
                                        @     Child Loop BB18_31 Depth 2
.Ltmp615:
	.loc	10 918 19                       @ rt-thread/components/net/lwip-2.0.2/src/core/tcp.c:918:19
	ldr	r0, [sp, #16]
.Ltmp616:
	.loc	10 918 7                        @ rt-thread/components/net/lwip-2.0.2/src/core/tcp.c:918:7
	cmp	r0, #3
	bgt	.LBB18_41
	b	.LBB18_30
.LBB18_30:                              @   in Loop: Header=BB18_29 Depth=1
.Ltmp617:
	.loc	10 919 36 is_stmt 1             @ rt-thread/components/net/lwip-2.0.2/src/core/tcp.c:919:36
	ldr	r1, [sp, #16]
	.loc	10 919 22 is_stmt 0             @ rt-thread/components/net/lwip-2.0.2/src/core/tcp.c:919:22
	movw	r0, :lower16:tcp_pcb_lists
	movt	r0, :upper16:tcp_pcb_lists
	ldr.w	r0, [r0, r1, lsl #2]
	.loc	10 919 21                       @ rt-thread/components/net/lwip-2.0.2/src/core/tcp.c:919:21
	ldr	r0, [r0]
	.loc	10 919 19                       @ rt-thread/components/net/lwip-2.0.2/src/core/tcp.c:919:19
	str	r0, [sp, #20]
	.loc	10 919 14                       @ rt-thread/components/net/lwip-2.0.2/src/core/tcp.c:919:14
	b	.LBB18_31
.LBB18_31:                              @   Parent Loop BB18_29 Depth=1
                                        @ =>  This Inner Loop Header: Depth=2
.Ltmp618:
	.loc	10 919 40                       @ rt-thread/components/net/lwip-2.0.2/src/core/tcp.c:919:40
	ldr	r0, [sp, #20]
.Ltmp619:
	.loc	10 919 9                        @ rt-thread/components/net/lwip-2.0.2/src/core/tcp.c:919:9
	cbz	r0, .LBB18_39
	b	.LBB18_32
.LBB18_32:                              @   in Loop: Header=BB18_31 Depth=2
.Ltmp620:
	.loc	10 920 16 is_stmt 1             @ rt-thread/components/net/lwip-2.0.2/src/core/tcp.c:920:16
	ldr	r0, [sp, #20]
	.loc	10 920 22 is_stmt 0             @ rt-thread/components/net/lwip-2.0.2/src/core/tcp.c:920:22
	ldrh	r0, [r0, #22]
	.loc	10 920 36                       @ rt-thread/components/net/lwip-2.0.2/src/core/tcp.c:920:36
	ldr	r1, [sp, #56]
	.loc	10 920 41                       @ rt-thread/components/net/lwip-2.0.2/src/core/tcp.c:920:41
	ldrh	r1, [r1, #22]
	.loc	10 920 53                       @ rt-thread/components/net/lwip-2.0.2/src/core/tcp.c:920:53
	cmp	r0, r1
	bne	.LBB18_37
	b	.LBB18_33
.LBB18_33:                              @   in Loop: Header=BB18_31 Depth=2
	.loc	10 921 16 is_stmt 1             @ rt-thread/components/net/lwip-2.0.2/src/core/tcp.c:921:16
	ldr	r0, [sp, #20]
	.loc	10 921 22 is_stmt 0             @ rt-thread/components/net/lwip-2.0.2/src/core/tcp.c:921:22
	ldrh	r0, [r0, #24]
	.loc	10 921 37                       @ rt-thread/components/net/lwip-2.0.2/src/core/tcp.c:921:37
	ldrh.w	r1, [sp, #50]
	.loc	10 921 43                       @ rt-thread/components/net/lwip-2.0.2/src/core/tcp.c:921:43
	cmp	r0, r1
	bne	.LBB18_37
	b	.LBB18_34
.LBB18_34:                              @   in Loop: Header=BB18_31 Depth=2
	.loc	10 922 15 is_stmt 1             @ rt-thread/components/net/lwip-2.0.2/src/core/tcp.c:922:15
	ldr	r0, [sp, #20]
	ldr	r0, [r0]
	ldr	r1, [sp, #56]
	ldr	r1, [r1]
	.loc	10 922 60 is_stmt 0             @ rt-thread/components/net/lwip-2.0.2/src/core/tcp.c:922:60
	cmp	r0, r1
	bne	.LBB18_37
	b	.LBB18_35
.LBB18_35:                              @   in Loop: Header=BB18_31 Depth=2
	.loc	10 923 15 is_stmt 1             @ rt-thread/components/net/lwip-2.0.2/src/core/tcp.c:923:15
	ldr	r0, [sp, #20]
	ldr	r0, [r0, #4]
	ldr	r1, [sp, #52]
	ldr	r1, [r1]
.Ltmp621:
	.loc	10 920 15                       @ rt-thread/components/net/lwip-2.0.2/src/core/tcp.c:920:15
	cmp	r0, r1
	bne	.LBB18_37
	b	.LBB18_36
.LBB18_36:
	.loc	10 0 15 is_stmt 0               @ rt-thread/components/net/lwip-2.0.2/src/core/tcp.c:0:15
	movs	r0, #248
.Ltmp622:
	.loc	10 925 13 is_stmt 1             @ rt-thread/components/net/lwip-2.0.2/src/core/tcp.c:925:13
	strb.w	r0, [sp, #63]
	b	.LBB18_63
.Ltmp623:
.LBB18_37:                              @   in Loop: Header=BB18_31 Depth=2
	.loc	10 927 9                        @ rt-thread/components/net/lwip-2.0.2/src/core/tcp.c:927:9
	b	.LBB18_38
.Ltmp624:
.LBB18_38:                              @   in Loop: Header=BB18_31 Depth=2
	.loc	10 919 61                       @ rt-thread/components/net/lwip-2.0.2/src/core/tcp.c:919:61
	ldr	r0, [sp, #20]
	.loc	10 919 67 is_stmt 0             @ rt-thread/components/net/lwip-2.0.2/src/core/tcp.c:919:67
	ldr	r0, [r0, #12]
	.loc	10 919 59                       @ rt-thread/components/net/lwip-2.0.2/src/core/tcp.c:919:59
	str	r0, [sp, #20]
	.loc	10 919 9                        @ rt-thread/components/net/lwip-2.0.2/src/core/tcp.c:919:9
	b	.LBB18_31
.Ltmp625:
.LBB18_39:                              @   in Loop: Header=BB18_29 Depth=1
	.loc	10 928 7 is_stmt 1              @ rt-thread/components/net/lwip-2.0.2/src/core/tcp.c:928:7
	b	.LBB18_40
.Ltmp626:
.LBB18_40:                              @   in Loop: Header=BB18_29 Depth=1
	.loc	10 918 43                       @ rt-thread/components/net/lwip-2.0.2/src/core/tcp.c:918:43
	ldr	r0, [sp, #16]
	adds	r0, #1
	str	r0, [sp, #16]
	.loc	10 918 7 is_stmt 0              @ rt-thread/components/net/lwip-2.0.2/src/core/tcp.c:918:7
	b	.LBB18_29
.Ltmp627:
.LBB18_41:
	.loc	10 929 5 is_stmt 1              @ rt-thread/components/net/lwip-2.0.2/src/core/tcp.c:929:5
	b	.LBB18_42
.Ltmp628:
.LBB18_42:
	.loc	10 0 5 is_stmt 0                @ rt-thread/components/net/lwip-2.0.2/src/core/tcp.c:0:5
	b	.LBB18_43
.LBB18_43:
	.loc	10 933 22 is_stmt 1             @ rt-thread/components/net/lwip-2.0.2/src/core/tcp.c:933:22
	ldr	r0, [sp, #56]
	.loc	10 933 9 is_stmt 0              @ rt-thread/components/net/lwip-2.0.2/src/core/tcp.c:933:9
	bl	tcp_next_iss
	.loc	10 933 7                        @ rt-thread/components/net/lwip-2.0.2/src/core/tcp.c:933:7
	str	r0, [sp, #36]
	.loc	10 934 3 is_stmt 1              @ rt-thread/components/net/lwip-2.0.2/src/core/tcp.c:934:3
	ldr	r1, [sp, #56]
	movs	r0, #0
	.loc	10 934 16 is_stmt 0             @ rt-thread/components/net/lwip-2.0.2/src/core/tcp.c:934:16
	str	r0, [r1, #36]
	.loc	10 935 18 is_stmt 1             @ rt-thread/components/net/lwip-2.0.2/src/core/tcp.c:935:18
	ldr	r0, [sp, #36]
	.loc	10 935 3 is_stmt 0              @ rt-thread/components/net/lwip-2.0.2/src/core/tcp.c:935:3
	ldr	r1, [sp, #56]
	.loc	10 935 16                       @ rt-thread/components/net/lwip-2.0.2/src/core/tcp.c:935:16
	str	r0, [r1, #76]
	.loc	10 936 18 is_stmt 1             @ rt-thread/components/net/lwip-2.0.2/src/core/tcp.c:936:18
	ldr	r0, [sp, #36]
	.loc	10 936 22 is_stmt 0             @ rt-thread/components/net/lwip-2.0.2/src/core/tcp.c:936:22
	subs	r0, #1
	.loc	10 936 3                        @ rt-thread/components/net/lwip-2.0.2/src/core/tcp.c:936:3
	ldr	r1, [sp, #56]
	.loc	10 936 16                       @ rt-thread/components/net/lwip-2.0.2/src/core/tcp.c:936:16
	str	r0, [r1, #68]
	.loc	10 937 18 is_stmt 1             @ rt-thread/components/net/lwip-2.0.2/src/core/tcp.c:937:18
	ldr	r0, [sp, #36]
	.loc	10 937 22 is_stmt 0             @ rt-thread/components/net/lwip-2.0.2/src/core/tcp.c:937:22
	subs	r0, #1
	.loc	10 937 3                        @ rt-thread/components/net/lwip-2.0.2/src/core/tcp.c:937:3
	ldr	r1, [sp, #56]
	.loc	10 937 16                       @ rt-thread/components/net/lwip-2.0.2/src/core/tcp.c:937:16
	str	r0, [r1, #84]
	.loc	10 938 18 is_stmt 1             @ rt-thread/components/net/lwip-2.0.2/src/core/tcp.c:938:18
	ldr	r0, [sp, #36]
	.loc	10 938 22 is_stmt 0             @ rt-thread/components/net/lwip-2.0.2/src/core/tcp.c:938:22
	subs	r0, #1
	.loc	10 938 3                        @ rt-thread/components/net/lwip-2.0.2/src/core/tcp.c:938:3
	ldr	r1, [sp, #56]
	.loc	10 938 16                       @ rt-thread/components/net/lwip-2.0.2/src/core/tcp.c:938:16
	str	r0, [r1, #88]
	.loc	10 941 18 is_stmt 1             @ rt-thread/components/net/lwip-2.0.2/src/core/tcp.c:941:18
	ldr	r1, [sp, #56]
	movw	r0, #8196
	.loc	10 941 35 is_stmt 0             @ rt-thread/components/net/lwip-2.0.2/src/core/tcp.c:941:35
	strh	r0, [r1, #42]
	.loc	10 941 3                        @ rt-thread/components/net/lwip-2.0.2/src/core/tcp.c:941:3
	ldr	r1, [sp, #56]
	.loc	10 941 16                       @ rt-thread/components/net/lwip-2.0.2/src/core/tcp.c:941:16
	strh	r0, [r1, #40]
	.loc	10 942 29 is_stmt 1             @ rt-thread/components/net/lwip-2.0.2/src/core/tcp.c:942:29
	ldr	r2, [sp, #56]
	.loc	10 942 34 is_stmt 0             @ rt-thread/components/net/lwip-2.0.2/src/core/tcp.c:942:34
	ldr	r1, [r2, #36]
	.loc	10 942 27                       @ rt-thread/components/net/lwip-2.0.2/src/core/tcp.c:942:27
	str	r1, [r2, #44]
	.loc	10 943 3 is_stmt 1              @ rt-thread/components/net/lwip-2.0.2/src/core/tcp.c:943:3
	ldr	r1, [sp, #56]
	.loc	10 943 16 is_stmt 0             @ rt-thread/components/net/lwip-2.0.2/src/core/tcp.c:943:16
	strh.w	r0, [r1, #92]
	.loc	10 946 3 is_stmt 1              @ rt-thread/components/net/lwip-2.0.2/src/core/tcp.c:946:3
	ldr	r1, [sp, #56]
	mov.w	r0, #536
	.loc	10 946 12 is_stmt 0             @ rt-thread/components/net/lwip-2.0.2/src/core/tcp.c:946:12
	strh	r0, [r1, #50]
	.loc	10 948 14 is_stmt 1             @ rt-thread/components/net/lwip-2.0.2/src/core/tcp.c:948:14
	ldr	r1, [sp, #56]
	ldrh	r0, [r1, #50]
	adds	r1, #4
	bl	tcp_eff_send_mss_impl
	.loc	10 948 3 is_stmt 0              @ rt-thread/components/net/lwip-2.0.2/src/core/tcp.c:948:3
	ldr	r1, [sp, #56]
	.loc	10 948 12                       @ rt-thread/components/net/lwip-2.0.2/src/core/tcp.c:948:12
	strh	r0, [r1, #50]
	.loc	10 950 3 is_stmt 1              @ rt-thread/components/net/lwip-2.0.2/src/core/tcp.c:950:3
	ldr	r1, [sp, #56]
	movs	r0, #1
	.loc	10 950 13 is_stmt 0             @ rt-thread/components/net/lwip-2.0.2/src/core/tcp.c:950:13
	strh.w	r0, [r1, #72]
	.loc	10 952 20 is_stmt 1             @ rt-thread/components/net/lwip-2.0.2/src/core/tcp.c:952:20
	ldr	r0, [sp, #44]
	.loc	10 952 3 is_stmt 0              @ rt-thread/components/net/lwip-2.0.2/src/core/tcp.c:952:3
	ldr	r1, [sp, #56]
	.loc	10 952 18                       @ rt-thread/components/net/lwip-2.0.2/src/core/tcp.c:952:18
	str.w	r0, [r1, #132]
	.loc	10 958 27 is_stmt 1             @ rt-thread/components/net/lwip-2.0.2/src/core/tcp.c:958:27
	ldr	r0, [sp, #56]
	movs	r1, #2
	.loc	10 958 9 is_stmt 0              @ rt-thread/components/net/lwip-2.0.2/src/core/tcp.c:958:9
	bl	tcp_enqueue_flags
	.loc	10 958 7                        @ rt-thread/components/net/lwip-2.0.2/src/core/tcp.c:958:7
	strb.w	r0, [sp, #43]
.Ltmp629:
	.loc	10 959 7 is_stmt 1              @ rt-thread/components/net/lwip-2.0.2/src/core/tcp.c:959:7
	ldrsb.w	r0, [sp, #43]
.Ltmp630:
	.loc	10 959 7 is_stmt 0              @ rt-thread/components/net/lwip-2.0.2/src/core/tcp.c:959:7
	cmp	r0, #0
	bne	.LBB18_62
	b	.LBB18_44
.LBB18_44:
.Ltmp631:
	.loc	10 961 5 is_stmt 1              @ rt-thread/components/net/lwip-2.0.2/src/core/tcp.c:961:5
	ldr	r1, [sp, #56]
	movs	r0, #2
	.loc	10 961 16 is_stmt 0             @ rt-thread/components/net/lwip-2.0.2/src/core/tcp.c:961:16
	strb	r0, [r1, #20]
.Ltmp632:
	.loc	10 962 9 is_stmt 1              @ rt-thread/components/net/lwip-2.0.2/src/core/tcp.c:962:9
	ldrh.w	r0, [sp, #34]
.Ltmp633:
	.loc	10 962 9 is_stmt 0              @ rt-thread/components/net/lwip-2.0.2/src/core/tcp.c:962:9
	cbz	r0, .LBB18_57
	b	.LBB18_45
.LBB18_45:
.Ltmp634:
	.loc	10 963 7 is_stmt 1              @ rt-thread/components/net/lwip-2.0.2/src/core/tcp.c:963:7
	b	.LBB18_46
.LBB18_46:
.Ltmp635:
	.loc	10 963 7 is_stmt 0              @ rt-thread/components/net/lwip-2.0.2/src/core/tcp.c:963:7
	movw	r0, :lower16:tcp_bound_pcbs
	movt	r0, :upper16:tcp_bound_pcbs
	ldr	r0, [r0]
	ldr	r1, [sp, #56]
.Ltmp636:
	.loc	10 963 7                        @ rt-thread/components/net/lwip-2.0.2/src/core/tcp.c:963:7
	cmp	r0, r1
	bne	.LBB18_48
	b	.LBB18_47
.LBB18_47:
.Ltmp637:
	.loc	10 963 7                        @ rt-thread/components/net/lwip-2.0.2/src/core/tcp.c:963:7
	movw	r1, :lower16:tcp_bound_pcbs
	movt	r1, :upper16:tcp_bound_pcbs
	ldr	r0, [r1]
	ldr	r0, [r0, #12]
	str	r0, [r1]
	b	.LBB18_55
.Ltmp638:
.LBB18_48:
	.loc	10 963 7                        @ rt-thread/components/net/lwip-2.0.2/src/core/tcp.c:963:7
	movw	r0, :lower16:tcp_bound_pcbs
	movt	r0, :upper16:tcp_bound_pcbs
	ldr	r0, [r0]
	str	r0, [sp, #12]
	b	.LBB18_49
.LBB18_49:                              @ =>This Inner Loop Header: Depth=1
.Ltmp639:
	.loc	10 963 7                        @ rt-thread/components/net/lwip-2.0.2/src/core/tcp.c:963:7
	ldr	r0, [sp, #12]
.Ltmp640:
	.loc	10 963 7                        @ rt-thread/components/net/lwip-2.0.2/src/core/tcp.c:963:7
	cbz	r0, .LBB18_54
	b	.LBB18_50
.LBB18_50:                              @   in Loop: Header=BB18_49 Depth=1
.Ltmp641:
	.loc	10 963 7                        @ rt-thread/components/net/lwip-2.0.2/src/core/tcp.c:963:7
	ldr	r0, [sp, #12]
	ldr	r0, [r0, #12]
	ldr	r1, [sp, #56]
.Ltmp642:
	.loc	10 963 7                        @ rt-thread/components/net/lwip-2.0.2/src/core/tcp.c:963:7
	cmp	r0, r1
	bne	.LBB18_52
	b	.LBB18_51
.LBB18_51:
.Ltmp643:
	.loc	10 963 7                        @ rt-thread/components/net/lwip-2.0.2/src/core/tcp.c:963:7
	ldr	r0, [sp, #56]
	ldr	r0, [r0, #12]
	ldr	r1, [sp, #12]
	str	r0, [r1, #12]
	b	.LBB18_54
.Ltmp644:
.LBB18_52:                              @   in Loop: Header=BB18_49 Depth=1
	.loc	10 963 7                        @ rt-thread/components/net/lwip-2.0.2/src/core/tcp.c:963:7
	b	.LBB18_53
.Ltmp645:
.LBB18_53:                              @   in Loop: Header=BB18_49 Depth=1
	.loc	10 963 7                        @ rt-thread/components/net/lwip-2.0.2/src/core/tcp.c:963:7
	ldr	r0, [sp, #12]
	ldr	r0, [r0, #12]
	str	r0, [sp, #12]
	b	.LBB18_49
.Ltmp646:
.LBB18_54:
	.loc	10 0 7                          @ rt-thread/components/net/lwip-2.0.2/src/core/tcp.c:0:7
	b	.LBB18_55
.LBB18_55:
	.loc	10 963 7                        @ rt-thread/components/net/lwip-2.0.2/src/core/tcp.c:963:7
	ldr	r1, [sp, #56]
	movs	r0, #0
	str	r0, [r1, #12]
	b	.LBB18_56
.Ltmp647:
.LBB18_56:
	.loc	10 964 5 is_stmt 1              @ rt-thread/components/net/lwip-2.0.2/src/core/tcp.c:964:5
	b	.LBB18_57
.Ltmp648:
.LBB18_57:
	.loc	10 965 5                        @ rt-thread/components/net/lwip-2.0.2/src/core/tcp.c:965:5
	b	.LBB18_58
.LBB18_58:
.Ltmp649:
	.loc	10 965 5 is_stmt 0              @ rt-thread/components/net/lwip-2.0.2/src/core/tcp.c:965:5
	b	.LBB18_59
.LBB18_59:
.Ltmp650:
	.loc	10 965 5                        @ rt-thread/components/net/lwip-2.0.2/src/core/tcp.c:965:5
	movw	r1, :lower16:tcp_active_pcbs
	movt	r1, :upper16:tcp_active_pcbs
	ldr	r0, [r1]
	ldr	r2, [sp, #56]
	str	r0, [r2, #12]
	ldr	r0, [sp, #56]
	str	r0, [r1]
	bl	tcp_timer_needed
	b	.LBB18_60
.Ltmp651:
.LBB18_60:
	.loc	10 965 5                        @ rt-thread/components/net/lwip-2.0.2/src/core/tcp.c:965:5
	movw	r1, :lower16:tcp_active_pcbs_changed
	movt	r1, :upper16:tcp_active_pcbs_changed
	movs	r0, #1
	strb	r0, [r1]
	b	.LBB18_61
.Ltmp652:
.LBB18_61:
	.loc	10 968 16 is_stmt 1             @ rt-thread/components/net/lwip-2.0.2/src/core/tcp.c:968:16
	ldr	r0, [sp, #56]
	.loc	10 968 5 is_stmt 0              @ rt-thread/components/net/lwip-2.0.2/src/core/tcp.c:968:5
	bl	tcp_output
	.loc	10 969 3 is_stmt 1              @ rt-thread/components/net/lwip-2.0.2/src/core/tcp.c:969:3
	b	.LBB18_62
.Ltmp653:
.LBB18_62:
	.loc	10 970 10                       @ rt-thread/components/net/lwip-2.0.2/src/core/tcp.c:970:10
	ldrb.w	r0, [sp, #43]
	.loc	10 970 3 is_stmt 0              @ rt-thread/components/net/lwip-2.0.2/src/core/tcp.c:970:3
	strb.w	r0, [sp, #63]
	b	.LBB18_63
.LBB18_63:
	.loc	10 971 1 is_stmt 1              @ rt-thread/components/net/lwip-2.0.2/src/core/tcp.c:971:1
	ldrsb.w	r0, [sp, #63]
	add	sp, #64
	pop	{r7, pc}
.Ltmp654:
.Lfunc_end18:
	.size	tcp_connect, .Lfunc_end18-tcp_connect
	.cfi_endproc
	.cantunwind
	.fnend
                                        @ -- End function
	.section	.text.tcp_next_iss,"ax",%progbits
	.hidden	tcp_next_iss                    @ -- Begin function tcp_next_iss
	.globl	tcp_next_iss
	.p2align	3
	.type	tcp_next_iss,%function
	.code	16                              @ @tcp_next_iss
	.thumb_func
tcp_next_iss:
.Lfunc_begin19:
	.loc	10 1891 0                       @ rt-thread/components/net/lwip-2.0.2/src/core/tcp.c:1891:0
	.fnstart
	.cfi_startproc
@ %bb.0:
	.pad	#4
	sub	sp, #4
	.cfi_def_cfa_offset 4
	str	r0, [sp]
.Ltmp655:
	.loc	10 1899 10 prologue_end         @ rt-thread/components/net/lwip-2.0.2/src/core/tcp.c:1899:10
	movw	r0, :lower16:tcp_ticks
	movt	r0, :upper16:tcp_ticks
	ldr	r2, [r0]
	.loc	10 1899 7 is_stmt 0             @ rt-thread/components/net/lwip-2.0.2/src/core/tcp.c:1899:7
	movw	r0, :lower16:tcp_next_iss.iss
	movt	r0, :upper16:tcp_next_iss.iss
	ldr	r1, [r0]
	add	r1, r2
	str	r1, [r0]
	.loc	10 1900 10 is_stmt 1            @ rt-thread/components/net/lwip-2.0.2/src/core/tcp.c:1900:10
	ldr	r0, [r0]
	.loc	10 1900 3 is_stmt 0             @ rt-thread/components/net/lwip-2.0.2/src/core/tcp.c:1900:3
	add	sp, #4
	bx	lr
.Ltmp656:
.Lfunc_end19:
	.size	tcp_next_iss, .Lfunc_end19-tcp_next_iss
	.cfi_endproc
	.cantunwind
	.fnend
                                        @ -- End function
	.section	.text.tcp_eff_send_mss_impl,"ax",%progbits
	.hidden	tcp_eff_send_mss_impl           @ -- Begin function tcp_eff_send_mss_impl
	.globl	tcp_eff_send_mss_impl
	.p2align	3
	.type	tcp_eff_send_mss_impl,%function
	.code	16                              @ @tcp_eff_send_mss_impl
	.thumb_func
tcp_eff_send_mss_impl:
.Lfunc_begin20:
	.loc	10 1916 0 is_stmt 1             @ rt-thread/components/net/lwip-2.0.2/src/core/tcp.c:1916:0
	.fnstart
	.cfi_startproc
@ %bb.0:
	.save	{r7, lr}
	push	{r7, lr}
	.cfi_def_cfa_offset 8
	.cfi_offset lr, -4
	.cfi_offset r7, -8
	.pad	#24
	sub	sp, #24
	.cfi_def_cfa_offset 32
                                        @ kill: def $r2 killed $r0
	strh.w	r0, [sp, #20]
	str	r1, [sp, #16]
.Ltmp657:
	.loc	10 1921 11 prologue_end         @ rt-thread/components/net/lwip-2.0.2/src/core/tcp.c:1921:11
	ldr	r0, [sp, #16]
	bl	ip4_route
	.loc	10 1921 9 is_stmt 0             @ rt-thread/components/net/lwip-2.0.2/src/core/tcp.c:1921:9
	str	r0, [sp, #8]
.Ltmp658:
	.loc	10 1936 9 is_stmt 1             @ rt-thread/components/net/lwip-2.0.2/src/core/tcp.c:1936:9
	ldr	r0, [sp, #8]
.Ltmp659:
	.loc	10 1936 9 is_stmt 0             @ rt-thread/components/net/lwip-2.0.2/src/core/tcp.c:1936:9
	cbnz	r0, .LBB20_2
	b	.LBB20_1
.LBB20_1:
.Ltmp660:
	.loc	10 1937 14 is_stmt 1            @ rt-thread/components/net/lwip-2.0.2/src/core/tcp.c:1937:14
	ldrh.w	r0, [sp, #20]
	.loc	10 1937 7 is_stmt 0             @ rt-thread/components/net/lwip-2.0.2/src/core/tcp.c:1937:7
	strh.w	r0, [sp, #22]
	b	.LBB20_8
.Ltmp661:
.LBB20_2:
	.loc	10 1939 11 is_stmt 1            @ rt-thread/components/net/lwip-2.0.2/src/core/tcp.c:1939:11
	ldr	r0, [sp, #8]
	.loc	10 1939 18 is_stmt 0            @ rt-thread/components/net/lwip-2.0.2/src/core/tcp.c:1939:18
	ldrh	r0, [r0, #56]
	.loc	10 1939 9                       @ rt-thread/components/net/lwip-2.0.2/src/core/tcp.c:1939:9
	strh.w	r0, [sp, #6]
.Ltmp662:
	.loc	10 1943 7 is_stmt 1             @ rt-thread/components/net/lwip-2.0.2/src/core/tcp.c:1943:7
	ldrsh.w	r0, [sp, #6]
.Ltmp663:
	.loc	10 1943 7 is_stmt 0             @ rt-thread/components/net/lwip-2.0.2/src/core/tcp.c:1943:7
	cbz	r0, .LBB20_7
	b	.LBB20_3
.LBB20_3:
.Ltmp664:
	.loc	10 1957 15 is_stmt 1            @ rt-thread/components/net/lwip-2.0.2/src/core/tcp.c:1957:15
	ldrh.w	r0, [sp, #6]
	.loc	10 1957 29 is_stmt 0            @ rt-thread/components/net/lwip-2.0.2/src/core/tcp.c:1957:29
	subs	r0, #40
	.loc	10 1957 13                      @ rt-thread/components/net/lwip-2.0.2/src/core/tcp.c:1957:13
	strh.w	r0, [sp, #14]
.Ltmp665:
	.loc	10 1964 15 is_stmt 1            @ rt-thread/components/net/lwip-2.0.2/src/core/tcp.c:1964:15
	ldrh.w	r0, [sp, #20]
	ldrh.w	r1, [sp, #14]
	cmp	r0, r1
	bge	.LBB20_5
	b	.LBB20_4
.LBB20_4:
	ldrh.w	r0, [sp, #20]
	str	r0, [sp]                        @ 4-byte Spill
	b	.LBB20_6
.LBB20_5:
	ldrh.w	r0, [sp, #14]
	str	r0, [sp]                        @ 4-byte Spill
	b	.LBB20_6
.LBB20_6:
	ldr	r0, [sp]                        @ 4-byte Reload
	.loc	10 1964 13 is_stmt 0            @ rt-thread/components/net/lwip-2.0.2/src/core/tcp.c:1964:13
	strh.w	r0, [sp, #20]
	.loc	10 1965 3 is_stmt 1             @ rt-thread/components/net/lwip-2.0.2/src/core/tcp.c:1965:3
	b	.LBB20_7
.Ltmp666:
.LBB20_7:
	.loc	10 1966 10                      @ rt-thread/components/net/lwip-2.0.2/src/core/tcp.c:1966:10
	ldrh.w	r0, [sp, #20]
	.loc	10 1966 3 is_stmt 0             @ rt-thread/components/net/lwip-2.0.2/src/core/tcp.c:1966:3
	strh.w	r0, [sp, #22]
	b	.LBB20_8
.LBB20_8:
	.loc	10 1967 1 is_stmt 1             @ rt-thread/components/net/lwip-2.0.2/src/core/tcp.c:1967:1
	ldrh.w	r0, [sp, #22]
	add	sp, #24
	pop	{r7, pc}
.Ltmp667:
.Lfunc_end20:
	.size	tcp_eff_send_mss_impl, .Lfunc_end20-tcp_eff_send_mss_impl
	.cfi_endproc
	.cantunwind
	.fnend
                                        @ -- End function
	.section	.text.tcp_pcb_purge,"ax",%progbits
	.hidden	tcp_pcb_purge                   @ -- Begin function tcp_pcb_purge
	.globl	tcp_pcb_purge
	.p2align	3
	.type	tcp_pcb_purge,%function
	.code	16                              @ @tcp_pcb_purge
	.thumb_func
tcp_pcb_purge:
.Lfunc_begin21:
	.loc	10 1807 0                       @ rt-thread/components/net/lwip-2.0.2/src/core/tcp.c:1807:0
	.fnstart
	.cfi_startproc
@ %bb.0:
	.save	{r7, lr}
	push	{r7, lr}
	.cfi_def_cfa_offset 8
	.cfi_offset lr, -4
	.cfi_offset r7, -8
	.pad	#8
	sub	sp, #8
	.cfi_def_cfa_offset 16
	str	r0, [sp, #4]
.Ltmp668:
	.loc	10 1808 7 prologue_end          @ rt-thread/components/net/lwip-2.0.2/src/core/tcp.c:1808:7
	ldr	r0, [sp, #4]
	.loc	10 1808 12 is_stmt 0            @ rt-thread/components/net/lwip-2.0.2/src/core/tcp.c:1808:12
	ldrb	r0, [r0, #20]
	.loc	10 1808 28                      @ rt-thread/components/net/lwip-2.0.2/src/core/tcp.c:1808:28
	cmp	r0, #0
	beq	.LBB21_12
	b	.LBB21_1
.LBB21_1:
	.loc	10 1809 6 is_stmt 1             @ rt-thread/components/net/lwip-2.0.2/src/core/tcp.c:1809:6
	ldr	r0, [sp, #4]
	.loc	10 1809 11 is_stmt 0            @ rt-thread/components/net/lwip-2.0.2/src/core/tcp.c:1809:11
	ldrb	r0, [r0, #20]
	.loc	10 1809 30                      @ rt-thread/components/net/lwip-2.0.2/src/core/tcp.c:1809:30
	cmp	r0, #10
	beq	.LBB21_12
	b	.LBB21_2
.LBB21_2:
	.loc	10 1810 6 is_stmt 1             @ rt-thread/components/net/lwip-2.0.2/src/core/tcp.c:1810:6
	ldr	r0, [sp, #4]
	.loc	10 1810 11 is_stmt 0            @ rt-thread/components/net/lwip-2.0.2/src/core/tcp.c:1810:11
	ldrb	r0, [r0, #20]
.Ltmp669:
	.loc	10 1808 7 is_stmt 1             @ rt-thread/components/net/lwip-2.0.2/src/core/tcp.c:1808:7
	cmp	r0, #1
	beq	.LBB21_12
	b	.LBB21_3
.LBB21_3:
.Ltmp670:
	.loc	10 1816 9                       @ rt-thread/components/net/lwip-2.0.2/src/core/tcp.c:1816:9
	ldr	r0, [sp, #4]
	.loc	10 1816 14 is_stmt 0            @ rt-thread/components/net/lwip-2.0.2/src/core/tcp.c:1816:14
	ldr	r0, [r0, #116]
.Ltmp671:
	.loc	10 1816 9                       @ rt-thread/components/net/lwip-2.0.2/src/core/tcp.c:1816:9
	cbz	r0, .LBB21_5
	b	.LBB21_4
.LBB21_4:
.Ltmp672:
	.loc	10 1818 17 is_stmt 1            @ rt-thread/components/net/lwip-2.0.2/src/core/tcp.c:1818:17
	ldr	r0, [sp, #4]
	.loc	10 1818 22 is_stmt 0            @ rt-thread/components/net/lwip-2.0.2/src/core/tcp.c:1818:22
	ldr	r0, [r0, #116]
	.loc	10 1818 7                       @ rt-thread/components/net/lwip-2.0.2/src/core/tcp.c:1818:7
	bl	pbuf_free
	.loc	10 1819 7 is_stmt 1             @ rt-thread/components/net/lwip-2.0.2/src/core/tcp.c:1819:7
	ldr	r1, [sp, #4]
	movs	r0, #0
	.loc	10 1819 25 is_stmt 0            @ rt-thread/components/net/lwip-2.0.2/src/core/tcp.c:1819:25
	str	r0, [r1, #116]
	.loc	10 1820 5 is_stmt 1             @ rt-thread/components/net/lwip-2.0.2/src/core/tcp.c:1820:5
	b	.LBB21_5
.Ltmp673:
.LBB21_5:
	.loc	10 1821 9                       @ rt-thread/components/net/lwip-2.0.2/src/core/tcp.c:1821:9
	ldr	r0, [sp, #4]
	.loc	10 1821 14 is_stmt 0            @ rt-thread/components/net/lwip-2.0.2/src/core/tcp.c:1821:14
	ldr	r0, [r0, #104]
.Ltmp674:
	.loc	10 1821 9                       @ rt-thread/components/net/lwip-2.0.2/src/core/tcp.c:1821:9
	cbz	r0, .LBB21_7
	b	.LBB21_6
.LBB21_6:
.Ltmp675:
	.loc	10 1823 5 is_stmt 1             @ rt-thread/components/net/lwip-2.0.2/src/core/tcp.c:1823:5
	b	.LBB21_7
.Ltmp676:
.LBB21_7:
	.loc	10 1824 9                       @ rt-thread/components/net/lwip-2.0.2/src/core/tcp.c:1824:9
	ldr	r0, [sp, #4]
	.loc	10 1824 14 is_stmt 0            @ rt-thread/components/net/lwip-2.0.2/src/core/tcp.c:1824:14
	ldr	r0, [r0, #108]
.Ltmp677:
	.loc	10 1824 9                       @ rt-thread/components/net/lwip-2.0.2/src/core/tcp.c:1824:9
	cbz	r0, .LBB21_9
	b	.LBB21_8
.LBB21_8:
.Ltmp678:
	.loc	10 1826 5 is_stmt 1             @ rt-thread/components/net/lwip-2.0.2/src/core/tcp.c:1826:5
	b	.LBB21_9
.Ltmp679:
.LBB21_9:
	.loc	10 1828 9                       @ rt-thread/components/net/lwip-2.0.2/src/core/tcp.c:1828:9
	ldr	r0, [sp, #4]
	.loc	10 1828 14 is_stmt 0            @ rt-thread/components/net/lwip-2.0.2/src/core/tcp.c:1828:14
	ldr	r0, [r0, #112]
.Ltmp680:
	.loc	10 1828 9                       @ rt-thread/components/net/lwip-2.0.2/src/core/tcp.c:1828:9
	cbz	r0, .LBB21_11
	b	.LBB21_10
.LBB21_10:
.Ltmp681:
	.loc	10 1830 5 is_stmt 1             @ rt-thread/components/net/lwip-2.0.2/src/core/tcp.c:1830:5
	b	.LBB21_11
.Ltmp682:
.LBB21_11:
	.loc	10 1831 19                      @ rt-thread/components/net/lwip-2.0.2/src/core/tcp.c:1831:19
	ldr	r0, [sp, #4]
	.loc	10 1831 24 is_stmt 0            @ rt-thread/components/net/lwip-2.0.2/src/core/tcp.c:1831:24
	ldr	r0, [r0, #112]
	.loc	10 1831 5                       @ rt-thread/components/net/lwip-2.0.2/src/core/tcp.c:1831:5
	bl	tcp_segs_free
	.loc	10 1832 5 is_stmt 1             @ rt-thread/components/net/lwip-2.0.2/src/core/tcp.c:1832:5
	ldr	r1, [sp, #4]
	movs	r0, #0
	.loc	10 1832 16 is_stmt 0            @ rt-thread/components/net/lwip-2.0.2/src/core/tcp.c:1832:16
	str	r0, [sp]                        @ 4-byte Spill
	str	r0, [r1, #112]
	.loc	10 1837 5 is_stmt 1             @ rt-thread/components/net/lwip-2.0.2/src/core/tcp.c:1837:5
	ldr	r1, [sp, #4]
	movw	r0, #65535
	.loc	10 1837 16 is_stmt 0            @ rt-thread/components/net/lwip-2.0.2/src/core/tcp.c:1837:16
	strh	r0, [r1, #48]
	.loc	10 1839 19 is_stmt 1            @ rt-thread/components/net/lwip-2.0.2/src/core/tcp.c:1839:19
	ldr	r0, [sp, #4]
	.loc	10 1839 24 is_stmt 0            @ rt-thread/components/net/lwip-2.0.2/src/core/tcp.c:1839:24
	ldr	r0, [r0, #104]
	.loc	10 1839 5                       @ rt-thread/components/net/lwip-2.0.2/src/core/tcp.c:1839:5
	bl	tcp_segs_free
	.loc	10 1840 19 is_stmt 1            @ rt-thread/components/net/lwip-2.0.2/src/core/tcp.c:1840:19
	ldr	r0, [sp, #4]
	.loc	10 1840 24 is_stmt 0            @ rt-thread/components/net/lwip-2.0.2/src/core/tcp.c:1840:24
	ldr	r0, [r0, #108]
	.loc	10 1840 5                       @ rt-thread/components/net/lwip-2.0.2/src/core/tcp.c:1840:5
	bl	tcp_segs_free
	ldr	r0, [sp]                        @ 4-byte Reload
	.loc	10 1841 20 is_stmt 1            @ rt-thread/components/net/lwip-2.0.2/src/core/tcp.c:1841:20
	ldr	r1, [sp, #4]
	.loc	10 1841 32 is_stmt 0            @ rt-thread/components/net/lwip-2.0.2/src/core/tcp.c:1841:32
	str	r0, [r1, #104]
	.loc	10 1841 5                       @ rt-thread/components/net/lwip-2.0.2/src/core/tcp.c:1841:5
	ldr	r1, [sp, #4]
	.loc	10 1841 18                      @ rt-thread/components/net/lwip-2.0.2/src/core/tcp.c:1841:18
	str	r0, [r1, #108]
	.loc	10 1843 5 is_stmt 1             @ rt-thread/components/net/lwip-2.0.2/src/core/tcp.c:1843:5
	ldr	r1, [sp, #4]
	.loc	10 1843 26 is_stmt 0            @ rt-thread/components/net/lwip-2.0.2/src/core/tcp.c:1843:26
	strh.w	r0, [r1, #100]
	.loc	10 1845 3 is_stmt 1             @ rt-thread/components/net/lwip-2.0.2/src/core/tcp.c:1845:3
	b	.LBB21_12
.Ltmp683:
.LBB21_12:
	.loc	10 1846 1                       @ rt-thread/components/net/lwip-2.0.2/src/core/tcp.c:1846:1
	add	sp, #8
	pop	{r7, pc}
.Ltmp684:
.Lfunc_end21:
	.size	tcp_pcb_purge, .Lfunc_end21-tcp_pcb_purge
	.cfi_endproc
	.cantunwind
	.fnend
                                        @ -- End function
	.section	.text.tcp_close_shutdown_fin,"ax",%progbits
	.p2align	3                               @ -- Begin function tcp_close_shutdown_fin
	.type	tcp_close_shutdown_fin,%function
	.code	16                              @ @tcp_close_shutdown_fin
	.thumb_func
tcp_close_shutdown_fin:
.Lfunc_begin22:
	.loc	10 331 0                        @ rt-thread/components/net/lwip-2.0.2/src/core/tcp.c:331:0
	.fnstart
	.cfi_startproc
@ %bb.0:
	.save	{r7, lr}
	push	{r7, lr}
	.cfi_def_cfa_offset 8
	.cfi_offset lr, -4
	.cfi_offset r7, -8
	.pad	#16
	sub	sp, #16
	.cfi_def_cfa_offset 24
	str	r0, [sp, #8]
.Ltmp685:
	.loc	10 333 3 prologue_end           @ rt-thread/components/net/lwip-2.0.2/src/core/tcp.c:333:3
	b	.LBB22_1
.LBB22_1:
.Ltmp686:
	.loc	10 333 3 is_stmt 0              @ rt-thread/components/net/lwip-2.0.2/src/core/tcp.c:333:3
	ldr	r0, [sp, #8]
.Ltmp687:
	.loc	10 333 3                        @ rt-thread/components/net/lwip-2.0.2/src/core/tcp.c:333:3
	cbnz	r0, .LBB22_5
	b	.LBB22_2
.LBB22_2:
.Ltmp688:
	.loc	10 333 3                        @ rt-thread/components/net/lwip-2.0.2/src/core/tcp.c:333:3
	b	.LBB22_3
.LBB22_3:
.Ltmp689:
	.loc	10 333 3                        @ rt-thread/components/net/lwip-2.0.2/src/core/tcp.c:333:3
	movw	r0, :lower16:.L.str.24
	movt	r0, :upper16:.L.str.24
	bl	rt_kprintf
	movw	r0, :lower16:.L.str.1
	movt	r0, :upper16:.L.str.1
	movw	r1, #333
	bl	sys_arch_assert
	b	.LBB22_4
.Ltmp690:
.LBB22_4:
	.loc	10 333 3                        @ rt-thread/components/net/lwip-2.0.2/src/core/tcp.c:333:3
	b	.LBB22_5
.Ltmp691:
.LBB22_5:
	.loc	10 333 3                        @ rt-thread/components/net/lwip-2.0.2/src/core/tcp.c:333:3
	b	.LBB22_6
.Ltmp692:
.LBB22_6:
	.loc	10 335 11 is_stmt 1             @ rt-thread/components/net/lwip-2.0.2/src/core/tcp.c:335:11
	ldr	r0, [sp, #8]
	.loc	10 335 16 is_stmt 0             @ rt-thread/components/net/lwip-2.0.2/src/core/tcp.c:335:16
	ldrb	r0, [r0, #20]
	.loc	10 335 3                        @ rt-thread/components/net/lwip-2.0.2/src/core/tcp.c:335:3
	mov	r1, r0
	str	r1, [sp]                        @ 4-byte Spill
	cmp	r0, #3
	beq	.LBB22_9
	b	.LBB22_7
.LBB22_7:
	ldr	r0, [sp]                        @ 4-byte Reload
	cmp	r0, #4
	beq	.LBB22_12
	b	.LBB22_8
.LBB22_8:
	ldr	r0, [sp]                        @ 4-byte Reload
	cmp	r0, #7
	beq	.LBB22_15
	b	.LBB22_18
.LBB22_9:
.Ltmp693:
	.loc	10 337 24 is_stmt 1             @ rt-thread/components/net/lwip-2.0.2/src/core/tcp.c:337:24
	ldr	r0, [sp, #8]
	.loc	10 337 11 is_stmt 0             @ rt-thread/components/net/lwip-2.0.2/src/core/tcp.c:337:11
	bl	tcp_send_fin
	.loc	10 337 9                        @ rt-thread/components/net/lwip-2.0.2/src/core/tcp.c:337:9
	strb.w	r0, [sp, #7]
.Ltmp694:
	.loc	10 338 9 is_stmt 1              @ rt-thread/components/net/lwip-2.0.2/src/core/tcp.c:338:9
	ldrsb.w	r0, [sp, #7]
.Ltmp695:
	.loc	10 338 9 is_stmt 0              @ rt-thread/components/net/lwip-2.0.2/src/core/tcp.c:338:9
	cbnz	r0, .LBB22_11
	b	.LBB22_10
.LBB22_10:
.Ltmp696:
	.loc	10 341 7 is_stmt 1              @ rt-thread/components/net/lwip-2.0.2/src/core/tcp.c:341:7
	ldr	r1, [sp, #8]
	movs	r0, #5
	.loc	10 341 18 is_stmt 0             @ rt-thread/components/net/lwip-2.0.2/src/core/tcp.c:341:18
	strb	r0, [r1, #20]
	.loc	10 342 5 is_stmt 1              @ rt-thread/components/net/lwip-2.0.2/src/core/tcp.c:342:5
	b	.LBB22_11
.Ltmp697:
.LBB22_11:
	.loc	10 343 5                        @ rt-thread/components/net/lwip-2.0.2/src/core/tcp.c:343:5
	b	.LBB22_19
.LBB22_12:
	.loc	10 345 24                       @ rt-thread/components/net/lwip-2.0.2/src/core/tcp.c:345:24
	ldr	r0, [sp, #8]
	.loc	10 345 11 is_stmt 0             @ rt-thread/components/net/lwip-2.0.2/src/core/tcp.c:345:11
	bl	tcp_send_fin
	.loc	10 345 9                        @ rt-thread/components/net/lwip-2.0.2/src/core/tcp.c:345:9
	strb.w	r0, [sp, #7]
.Ltmp698:
	.loc	10 346 9 is_stmt 1              @ rt-thread/components/net/lwip-2.0.2/src/core/tcp.c:346:9
	ldrsb.w	r0, [sp, #7]
.Ltmp699:
	.loc	10 346 9 is_stmt 0              @ rt-thread/components/net/lwip-2.0.2/src/core/tcp.c:346:9
	cbnz	r0, .LBB22_14
	b	.LBB22_13
.LBB22_13:
.Ltmp700:
	.loc	10 348 7 is_stmt 1              @ rt-thread/components/net/lwip-2.0.2/src/core/tcp.c:348:7
	ldr	r1, [sp, #8]
	movs	r0, #5
	.loc	10 348 18 is_stmt 0             @ rt-thread/components/net/lwip-2.0.2/src/core/tcp.c:348:18
	strb	r0, [r1, #20]
	.loc	10 349 5 is_stmt 1              @ rt-thread/components/net/lwip-2.0.2/src/core/tcp.c:349:5
	b	.LBB22_14
.Ltmp701:
.LBB22_14:
	.loc	10 350 5                        @ rt-thread/components/net/lwip-2.0.2/src/core/tcp.c:350:5
	b	.LBB22_19
.LBB22_15:
	.loc	10 352 24                       @ rt-thread/components/net/lwip-2.0.2/src/core/tcp.c:352:24
	ldr	r0, [sp, #8]
	.loc	10 352 11 is_stmt 0             @ rt-thread/components/net/lwip-2.0.2/src/core/tcp.c:352:11
	bl	tcp_send_fin
	.loc	10 352 9                        @ rt-thread/components/net/lwip-2.0.2/src/core/tcp.c:352:9
	strb.w	r0, [sp, #7]
.Ltmp702:
	.loc	10 353 9 is_stmt 1              @ rt-thread/components/net/lwip-2.0.2/src/core/tcp.c:353:9
	ldrsb.w	r0, [sp, #7]
.Ltmp703:
	.loc	10 353 9 is_stmt 0              @ rt-thread/components/net/lwip-2.0.2/src/core/tcp.c:353:9
	cbnz	r0, .LBB22_17
	b	.LBB22_16
.LBB22_16:
.Ltmp704:
	.loc	10 355 7 is_stmt 1              @ rt-thread/components/net/lwip-2.0.2/src/core/tcp.c:355:7
	ldr	r1, [sp, #8]
	movs	r0, #9
	.loc	10 355 18 is_stmt 0             @ rt-thread/components/net/lwip-2.0.2/src/core/tcp.c:355:18
	strb	r0, [r1, #20]
	.loc	10 356 5 is_stmt 1              @ rt-thread/components/net/lwip-2.0.2/src/core/tcp.c:356:5
	b	.LBB22_17
.Ltmp705:
.LBB22_17:
	.loc	10 357 5                        @ rt-thread/components/net/lwip-2.0.2/src/core/tcp.c:357:5
	b	.LBB22_19
.LBB22_18:
	.loc	10 0 5 is_stmt 0                @ rt-thread/components/net/lwip-2.0.2/src/core/tcp.c:0:5
	movs	r0, #0
	.loc	10 360 5 is_stmt 1              @ rt-thread/components/net/lwip-2.0.2/src/core/tcp.c:360:5
	strb.w	r0, [sp, #15]
	b	.LBB22_25
.Ltmp706:
.LBB22_19:
	.loc	10 364 7                        @ rt-thread/components/net/lwip-2.0.2/src/core/tcp.c:364:7
	ldrsb.w	r0, [sp, #7]
.Ltmp707:
	.loc	10 364 7 is_stmt 0              @ rt-thread/components/net/lwip-2.0.2/src/core/tcp.c:364:7
	cbnz	r0, .LBB22_21
	b	.LBB22_20
.LBB22_20:
.Ltmp708:
	.loc	10 370 16 is_stmt 1             @ rt-thread/components/net/lwip-2.0.2/src/core/tcp.c:370:16
	ldr	r0, [sp, #8]
	.loc	10 370 5 is_stmt 0              @ rt-thread/components/net/lwip-2.0.2/src/core/tcp.c:370:5
	bl	tcp_output
	.loc	10 371 3 is_stmt 1              @ rt-thread/components/net/lwip-2.0.2/src/core/tcp.c:371:3
	b	.LBB22_24
.Ltmp709:
.LBB22_21:
	.loc	10 371 14 is_stmt 0             @ rt-thread/components/net/lwip-2.0.2/src/core/tcp.c:371:14
	ldrsb.w	r0, [sp, #7]
.Ltmp710:
	.loc	10 371 14                       @ rt-thread/components/net/lwip-2.0.2/src/core/tcp.c:371:14
	adds	r0, #1
	cbnz	r0, .LBB22_23
	b	.LBB22_22
.LBB22_22:
.Ltmp711:
	.loc	10 373 5 is_stmt 1              @ rt-thread/components/net/lwip-2.0.2/src/core/tcp.c:373:5
	ldr	r1, [sp, #8]
	.loc	10 373 16 is_stmt 0             @ rt-thread/components/net/lwip-2.0.2/src/core/tcp.c:373:16
	ldrb	r0, [r1, #26]
	orr	r0, r0, #8
	strb	r0, [r1, #26]
	.loc	10 374 3 is_stmt 1              @ rt-thread/components/net/lwip-2.0.2/src/core/tcp.c:374:3
	b	.LBB22_23
.Ltmp712:
.LBB22_23:
	.loc	10 0 3 is_stmt 0                @ rt-thread/components/net/lwip-2.0.2/src/core/tcp.c:0:3
	b	.LBB22_24
.LBB22_24:
	.loc	10 375 10 is_stmt 1             @ rt-thread/components/net/lwip-2.0.2/src/core/tcp.c:375:10
	ldrb.w	r0, [sp, #7]
	.loc	10 375 3 is_stmt 0              @ rt-thread/components/net/lwip-2.0.2/src/core/tcp.c:375:3
	strb.w	r0, [sp, #15]
	b	.LBB22_25
.LBB22_25:
	.loc	10 376 1 is_stmt 1              @ rt-thread/components/net/lwip-2.0.2/src/core/tcp.c:376:1
	ldrsb.w	r0, [sp, #15]
	add	sp, #16
	pop	{r7, pc}
.Ltmp713:
.Lfunc_end22:
	.size	tcp_close_shutdown_fin, .Lfunc_end22-tcp_close_shutdown_fin
	.cfi_endproc
	.cantunwind
	.fnend
                                        @ -- End function
	.section	.text.tcp_process_refused_data,"ax",%progbits
	.hidden	tcp_process_refused_data        @ -- Begin function tcp_process_refused_data
	.globl	tcp_process_refused_data
	.p2align	3
	.type	tcp_process_refused_data,%function
	.code	16                              @ @tcp_process_refused_data
	.thumb_func
tcp_process_refused_data:
.Lfunc_begin23:
	.loc	10 1307 0                       @ rt-thread/components/net/lwip-2.0.2/src/core/tcp.c:1307:0
	.fnstart
	.cfi_startproc
@ %bb.0:
	.save	{r7, lr}
	push	{r7, lr}
	.cfi_def_cfa_offset 8
	.cfi_offset lr, -4
	.cfi_offset r7, -8
	.pad	#16
	sub	sp, #16
	.cfi_def_cfa_offset 24
	str	r0, [sp, #8]
.Ltmp714:
	.loc	10 1314 26 prologue_end         @ rt-thread/components/net/lwip-2.0.2/src/core/tcp.c:1314:26
	ldr	r0, [sp, #8]
	.loc	10 1314 31 is_stmt 0            @ rt-thread/components/net/lwip-2.0.2/src/core/tcp.c:1314:31
	ldr	r0, [r0, #116]
	.loc	10 1314 45                      @ rt-thread/components/net/lwip-2.0.2/src/core/tcp.c:1314:45
	ldrb	r0, [r0, #13]
	.loc	10 1314 10                      @ rt-thread/components/net/lwip-2.0.2/src/core/tcp.c:1314:10
	strb.w	r0, [sp, #6]
	.loc	10 1317 33 is_stmt 1            @ rt-thread/components/net/lwip-2.0.2/src/core/tcp.c:1317:33
	ldr	r0, [sp, #8]
	.loc	10 1317 38 is_stmt 0            @ rt-thread/components/net/lwip-2.0.2/src/core/tcp.c:1317:38
	ldr	r0, [r0, #116]
	.loc	10 1317 18                      @ rt-thread/components/net/lwip-2.0.2/src/core/tcp.c:1317:18
	str	r0, [sp]
	.loc	10 1322 5 is_stmt 1             @ rt-thread/components/net/lwip-2.0.2/src/core/tcp.c:1322:5
	ldr	r1, [sp, #8]
	movs	r0, #0
	.loc	10 1322 23 is_stmt 0            @ rt-thread/components/net/lwip-2.0.2/src/core/tcp.c:1322:23
	str	r0, [r1, #116]
	.loc	10 1326 5 is_stmt 1             @ rt-thread/components/net/lwip-2.0.2/src/core/tcp.c:1326:5
	b	.LBB23_1
.LBB23_1:
.Ltmp715:
	.loc	10 1326 5 is_stmt 0             @ rt-thread/components/net/lwip-2.0.2/src/core/tcp.c:1326:5
	ldr	r0, [sp, #8]
	ldr.w	r0, [r0, #128]
.Ltmp716:
	.loc	10 1326 5                       @ rt-thread/components/net/lwip-2.0.2/src/core/tcp.c:1326:5
	cbz	r0, .LBB23_3
	b	.LBB23_2
.LBB23_2:
.Ltmp717:
	.loc	10 1326 5                       @ rt-thread/components/net/lwip-2.0.2/src/core/tcp.c:1326:5
	ldr	r1, [sp, #8]
	ldr	r0, [r1, #16]
	ldr.w	r12, [r1, #128]
	ldr	r2, [sp]
	movs	r3, #0
	blx	r12
	strb.w	r0, [sp, #7]
	b	.LBB23_4
.Ltmp718:
.LBB23_3:
	.loc	10 1326 5                       @ rt-thread/components/net/lwip-2.0.2/src/core/tcp.c:1326:5
	ldr	r1, [sp, #8]
	ldr	r2, [sp]
	movs	r3, #0
	mov	r0, r3
	bl	tcp_recv_null
	strb.w	r0, [sp, #7]
	b	.LBB23_4
.Ltmp719:
.LBB23_4:
	.loc	10 1326 5                       @ rt-thread/components/net/lwip-2.0.2/src/core/tcp.c:1326:5
	b	.LBB23_5
.Ltmp720:
.LBB23_5:
	.loc	10 1327 9 is_stmt 1             @ rt-thread/components/net/lwip-2.0.2/src/core/tcp.c:1327:9
	ldrsb.w	r0, [sp, #7]
.Ltmp721:
	.loc	10 1327 9 is_stmt 0             @ rt-thread/components/net/lwip-2.0.2/src/core/tcp.c:1327:9
	cbnz	r0, .LBB23_18
	b	.LBB23_6
.LBB23_6:
.Ltmp722:
	.loc	10 1329 11 is_stmt 1            @ rt-thread/components/net/lwip-2.0.2/src/core/tcp.c:1329:11
	ldrb.w	r0, [sp, #6]
.Ltmp723:
	.loc	10 1329 11 is_stmt 0            @ rt-thread/components/net/lwip-2.0.2/src/core/tcp.c:1329:11
	lsls	r0, r0, #26
	cmp	r0, #0
	bpl	.LBB23_17
	b	.LBB23_7
.LBB23_7:
.Ltmp724:
	.loc	10 1336 13 is_stmt 1            @ rt-thread/components/net/lwip-2.0.2/src/core/tcp.c:1336:13
	ldr	r0, [sp, #8]
	.loc	10 1336 18 is_stmt 0            @ rt-thread/components/net/lwip-2.0.2/src/core/tcp.c:1336:18
	ldrh	r0, [r0, #40]
	movw	r1, #8196
.Ltmp725:
	.loc	10 1336 13                      @ rt-thread/components/net/lwip-2.0.2/src/core/tcp.c:1336:13
	cmp	r0, r1
	beq	.LBB23_9
	b	.LBB23_8
.LBB23_8:
.Ltmp726:
	.loc	10 1337 11 is_stmt 1            @ rt-thread/components/net/lwip-2.0.2/src/core/tcp.c:1337:11
	ldr	r1, [sp, #8]
	.loc	10 1337 23 is_stmt 0            @ rt-thread/components/net/lwip-2.0.2/src/core/tcp.c:1337:23
	ldrh	r0, [r1, #40]
	adds	r0, #1
	strh	r0, [r1, #40]
	.loc	10 1338 9 is_stmt 1             @ rt-thread/components/net/lwip-2.0.2/src/core/tcp.c:1338:9
	b	.LBB23_9
.Ltmp727:
.LBB23_9:
	.loc	10 1339 9                       @ rt-thread/components/net/lwip-2.0.2/src/core/tcp.c:1339:9
	b	.LBB23_10
.LBB23_10:
.Ltmp728:
	.loc	10 1339 9 is_stmt 0             @ rt-thread/components/net/lwip-2.0.2/src/core/tcp.c:1339:9
	ldr	r0, [sp, #8]
	ldr.w	r0, [r0, #128]
.Ltmp729:
	.loc	10 1339 9                       @ rt-thread/components/net/lwip-2.0.2/src/core/tcp.c:1339:9
	cbz	r0, .LBB23_12
	b	.LBB23_11
.LBB23_11:
.Ltmp730:
	.loc	10 1339 9                       @ rt-thread/components/net/lwip-2.0.2/src/core/tcp.c:1339:9
	ldr	r1, [sp, #8]
	ldr	r0, [r1, #16]
	ldr.w	r12, [r1, #128]
	movs	r3, #0
	mov	r2, r3
	blx	r12
	strb.w	r0, [sp, #7]
	b	.LBB23_13
.Ltmp731:
.LBB23_12:
	.loc	10 0 9                          @ rt-thread/components/net/lwip-2.0.2/src/core/tcp.c:0:9
	movs	r0, #0
.Ltmp732:
	.loc	10 1339 9                       @ rt-thread/components/net/lwip-2.0.2/src/core/tcp.c:1339:9
	strb.w	r0, [sp, #7]
	b	.LBB23_13
.Ltmp733:
.LBB23_13:
	.loc	10 1339 9                       @ rt-thread/components/net/lwip-2.0.2/src/core/tcp.c:1339:9
	b	.LBB23_14
.Ltmp734:
.LBB23_14:
	.loc	10 1340 13 is_stmt 1            @ rt-thread/components/net/lwip-2.0.2/src/core/tcp.c:1340:13
	ldrsb.w	r0, [sp, #7]
.Ltmp735:
	.loc	10 1340 13 is_stmt 0            @ rt-thread/components/net/lwip-2.0.2/src/core/tcp.c:1340:13
	adds	r0, #13
	cbnz	r0, .LBB23_16
	b	.LBB23_15
.LBB23_15:
	.loc	10 0 13                         @ rt-thread/components/net/lwip-2.0.2/src/core/tcp.c:0:13
	movs	r0, #243
.Ltmp736:
	.loc	10 1341 11 is_stmt 1            @ rt-thread/components/net/lwip-2.0.2/src/core/tcp.c:1341:11
	strb.w	r0, [sp, #15]
	b	.LBB23_22
.Ltmp737:
.LBB23_16:
	.loc	10 1343 7                       @ rt-thread/components/net/lwip-2.0.2/src/core/tcp.c:1343:7
	b	.LBB23_17
.Ltmp738:
.LBB23_17:
	.loc	10 1344 5                       @ rt-thread/components/net/lwip-2.0.2/src/core/tcp.c:1344:5
	b	.LBB23_21
.Ltmp739:
.LBB23_18:
	.loc	10 1344 16 is_stmt 0            @ rt-thread/components/net/lwip-2.0.2/src/core/tcp.c:1344:16
	ldrsb.w	r0, [sp, #7]
.Ltmp740:
	.loc	10 1344 16                      @ rt-thread/components/net/lwip-2.0.2/src/core/tcp.c:1344:16
	adds	r0, #13
	cbnz	r0, .LBB23_20
	b	.LBB23_19
.LBB23_19:
	.loc	10 0 16                         @ rt-thread/components/net/lwip-2.0.2/src/core/tcp.c:0:16
	movs	r0, #243
.Ltmp741:
	.loc	10 1349 7 is_stmt 1             @ rt-thread/components/net/lwip-2.0.2/src/core/tcp.c:1349:7
	strb.w	r0, [sp, #15]
	b	.LBB23_22
.Ltmp742:
.LBB23_20:
	.loc	10 1357 27                      @ rt-thread/components/net/lwip-2.0.2/src/core/tcp.c:1357:27
	ldr	r0, [sp]
	.loc	10 1357 7 is_stmt 0             @ rt-thread/components/net/lwip-2.0.2/src/core/tcp.c:1357:7
	ldr	r1, [sp, #8]
	.loc	10 1357 25                      @ rt-thread/components/net/lwip-2.0.2/src/core/tcp.c:1357:25
	str	r0, [r1, #116]
	movs	r0, #251
	.loc	10 1358 7 is_stmt 1             @ rt-thread/components/net/lwip-2.0.2/src/core/tcp.c:1358:7
	strb.w	r0, [sp, #15]
	b	.LBB23_22
.Ltmp743:
.LBB23_21:
	.loc	10 0 7 is_stmt 0                @ rt-thread/components/net/lwip-2.0.2/src/core/tcp.c:0:7
	movs	r0, #0
	.loc	10 1361 3 is_stmt 1             @ rt-thread/components/net/lwip-2.0.2/src/core/tcp.c:1361:3
	strb.w	r0, [sp, #15]
	b	.LBB23_22
.LBB23_22:
	.loc	10 1362 1                       @ rt-thread/components/net/lwip-2.0.2/src/core/tcp.c:1362:1
	ldrsb.w	r0, [sp, #15]
	add	sp, #16
	pop	{r7, pc}
.Ltmp744:
.Lfunc_end23:
	.size	tcp_process_refused_data, .Lfunc_end23-tcp_process_refused_data
	.cfi_endproc
	.cantunwind
	.fnend
                                        @ -- End function
	.section	.text.tcp_txnow,"ax",%progbits
	.hidden	tcp_txnow                       @ -- Begin function tcp_txnow
	.globl	tcp_txnow
	.p2align	3
	.type	tcp_txnow,%function
	.code	16                              @ @tcp_txnow
	.thumb_func
tcp_txnow:
.Lfunc_begin24:
	.loc	10 1294 0                       @ rt-thread/components/net/lwip-2.0.2/src/core/tcp.c:1294:0
	.fnstart
	.cfi_startproc
@ %bb.0:
	.save	{r7, lr}
	push	{r7, lr}
	.cfi_def_cfa_offset 8
	.cfi_offset lr, -4
	.cfi_offset r7, -8
	.pad	#8
	sub	sp, #8
	.cfi_def_cfa_offset 16
.Ltmp745:
	.loc	10 1297 14 prologue_end         @ rt-thread/components/net/lwip-2.0.2/src/core/tcp.c:1297:14
	movw	r0, :lower16:tcp_active_pcbs
	movt	r0, :upper16:tcp_active_pcbs
	ldr	r0, [r0]
	.loc	10 1297 12 is_stmt 0            @ rt-thread/components/net/lwip-2.0.2/src/core/tcp.c:1297:12
	str	r0, [sp, #4]
	.loc	10 1297 8                       @ rt-thread/components/net/lwip-2.0.2/src/core/tcp.c:1297:8
	b	.LBB24_1
.LBB24_1:                               @ =>This Inner Loop Header: Depth=1
.Ltmp746:
	.loc	10 1297 31                      @ rt-thread/components/net/lwip-2.0.2/src/core/tcp.c:1297:31
	ldr	r0, [sp, #4]
.Ltmp747:
	.loc	10 1297 3                       @ rt-thread/components/net/lwip-2.0.2/src/core/tcp.c:1297:3
	cbz	r0, .LBB24_6
	b	.LBB24_2
.LBB24_2:                               @   in Loop: Header=BB24_1 Depth=1
.Ltmp748:
	.loc	10 1298 9 is_stmt 1             @ rt-thread/components/net/lwip-2.0.2/src/core/tcp.c:1298:9
	ldr	r0, [sp, #4]
	ldrb	r0, [r0, #26]
.Ltmp749:
	.loc	10 1298 9 is_stmt 0             @ rt-thread/components/net/lwip-2.0.2/src/core/tcp.c:1298:9
	lsls	r0, r0, #24
	cmp	r0, #0
	bpl	.LBB24_4
	b	.LBB24_3
.LBB24_3:                               @   in Loop: Header=BB24_1 Depth=1
.Ltmp750:
	.loc	10 1299 18 is_stmt 1            @ rt-thread/components/net/lwip-2.0.2/src/core/tcp.c:1299:18
	ldr	r0, [sp, #4]
	.loc	10 1299 7 is_stmt 0             @ rt-thread/components/net/lwip-2.0.2/src/core/tcp.c:1299:7
	bl	tcp_output
	.loc	10 1300 5 is_stmt 1             @ rt-thread/components/net/lwip-2.0.2/src/core/tcp.c:1300:5
	b	.LBB24_4
.Ltmp751:
.LBB24_4:                               @   in Loop: Header=BB24_1 Depth=1
	.loc	10 1301 3                       @ rt-thread/components/net/lwip-2.0.2/src/core/tcp.c:1301:3
	b	.LBB24_5
.Ltmp752:
.LBB24_5:                               @   in Loop: Header=BB24_1 Depth=1
	.loc	10 1297 50                      @ rt-thread/components/net/lwip-2.0.2/src/core/tcp.c:1297:50
	ldr	r0, [sp, #4]
	.loc	10 1297 55 is_stmt 0            @ rt-thread/components/net/lwip-2.0.2/src/core/tcp.c:1297:55
	ldr	r0, [r0, #12]
	.loc	10 1297 48                      @ rt-thread/components/net/lwip-2.0.2/src/core/tcp.c:1297:48
	str	r0, [sp, #4]
	.loc	10 1297 3                       @ rt-thread/components/net/lwip-2.0.2/src/core/tcp.c:1297:3
	b	.LBB24_1
.Ltmp753:
.LBB24_6:
	.loc	10 1302 1 is_stmt 1             @ rt-thread/components/net/lwip-2.0.2/src/core/tcp.c:1302:1
	add	sp, #8
	pop	{r7, pc}
.Ltmp754:
.Lfunc_end24:
	.size	tcp_txnow, .Lfunc_end24-tcp_txnow
	.cfi_endproc
	.cantunwind
	.fnend
                                        @ -- End function
	.section	.text.tcp_recv_null,"ax",%progbits
	.hidden	tcp_recv_null                   @ -- Begin function tcp_recv_null
	.globl	tcp_recv_null
	.p2align	3
	.type	tcp_recv_null,%function
	.code	16                              @ @tcp_recv_null
	.thumb_func
tcp_recv_null:
.Lfunc_begin25:
	.loc	10 1440 0                       @ rt-thread/components/net/lwip-2.0.2/src/core/tcp.c:1440:0
	.fnstart
	.cfi_startproc
@ %bb.0:
	.save	{r7, lr}
	push	{r7, lr}
	.cfi_def_cfa_offset 8
	.cfi_offset lr, -4
	.cfi_offset r7, -8
	.pad	#24
	sub	sp, #24
	.cfi_def_cfa_offset 32
                                        @ kill: def $r12 killed $r3
	str	r0, [sp, #16]
	str	r1, [sp, #12]
	str	r2, [sp, #8]
	strb.w	r3, [sp, #7]
.Ltmp755:
	.loc	10 1442 7 prologue_end          @ rt-thread/components/net/lwip-2.0.2/src/core/tcp.c:1442:7
	ldr	r0, [sp, #8]
.Ltmp756:
	.loc	10 1442 7 is_stmt 0             @ rt-thread/components/net/lwip-2.0.2/src/core/tcp.c:1442:7
	cbz	r0, .LBB25_2
	b	.LBB25_1
.LBB25_1:
.Ltmp757:
	.loc	10 1443 16 is_stmt 1            @ rt-thread/components/net/lwip-2.0.2/src/core/tcp.c:1443:16
	ldr	r0, [sp, #12]
	.loc	10 1443 21 is_stmt 0            @ rt-thread/components/net/lwip-2.0.2/src/core/tcp.c:1443:21
	ldr	r1, [sp, #8]
	.loc	10 1443 24                      @ rt-thread/components/net/lwip-2.0.2/src/core/tcp.c:1443:24
	ldrh	r1, [r1, #8]
	.loc	10 1443 5                       @ rt-thread/components/net/lwip-2.0.2/src/core/tcp.c:1443:5
	bl	tcp_recved
	.loc	10 1444 15 is_stmt 1            @ rt-thread/components/net/lwip-2.0.2/src/core/tcp.c:1444:15
	ldr	r0, [sp, #8]
	.loc	10 1444 5 is_stmt 0             @ rt-thread/components/net/lwip-2.0.2/src/core/tcp.c:1444:5
	bl	pbuf_free
	.loc	10 1445 3 is_stmt 1             @ rt-thread/components/net/lwip-2.0.2/src/core/tcp.c:1445:3
	b	.LBB25_5
.Ltmp758:
.LBB25_2:
	.loc	10 1445 14 is_stmt 0            @ rt-thread/components/net/lwip-2.0.2/src/core/tcp.c:1445:14
	ldrsb.w	r0, [sp, #7]
.Ltmp759:
	.loc	10 1445 14                      @ rt-thread/components/net/lwip-2.0.2/src/core/tcp.c:1445:14
	cbnz	r0, .LBB25_4
	b	.LBB25_3
.LBB25_3:
.Ltmp760:
	.loc	10 1446 22 is_stmt 1            @ rt-thread/components/net/lwip-2.0.2/src/core/tcp.c:1446:22
	ldr	r0, [sp, #12]
	.loc	10 1446 12 is_stmt 0            @ rt-thread/components/net/lwip-2.0.2/src/core/tcp.c:1446:12
	bl	tcp_close
	.loc	10 1446 5                       @ rt-thread/components/net/lwip-2.0.2/src/core/tcp.c:1446:5
	strb.w	r0, [sp, #23]
	b	.LBB25_6
.Ltmp761:
.LBB25_4:
	.loc	10 0 5                          @ rt-thread/components/net/lwip-2.0.2/src/core/tcp.c:0:5
	b	.LBB25_5
.LBB25_5:
	movs	r0, #0
	.loc	10 1448 3 is_stmt 1             @ rt-thread/components/net/lwip-2.0.2/src/core/tcp.c:1448:3
	strb.w	r0, [sp, #23]
	b	.LBB25_6
.LBB25_6:
	.loc	10 1449 1                       @ rt-thread/components/net/lwip-2.0.2/src/core/tcp.c:1449:1
	ldrsb.w	r0, [sp, #23]
	add	sp, #24
	pop	{r7, pc}
.Ltmp762:
.Lfunc_end25:
	.size	tcp_recv_null, .Lfunc_end25-tcp_recv_null
	.cfi_endproc
	.cantunwind
	.fnend
                                        @ -- End function
	.section	.text.tcp_seg_free,"ax",%progbits
	.hidden	tcp_seg_free                    @ -- Begin function tcp_seg_free
	.globl	tcp_seg_free
	.p2align	3
	.type	tcp_seg_free,%function
	.code	16                              @ @tcp_seg_free
	.thumb_func
tcp_seg_free:
.Lfunc_begin26:
	.loc	10 1386 0                       @ rt-thread/components/net/lwip-2.0.2/src/core/tcp.c:1386:0
	.fnstart
	.cfi_startproc
@ %bb.0:
	.save	{r7, lr}
	push	{r7, lr}
	.cfi_def_cfa_offset 8
	.cfi_offset lr, -4
	.cfi_offset r7, -8
	.pad	#8
	sub	sp, #8
	.cfi_def_cfa_offset 16
	str	r0, [sp, #4]
.Ltmp763:
	.loc	10 1387 7 prologue_end          @ rt-thread/components/net/lwip-2.0.2/src/core/tcp.c:1387:7
	ldr	r0, [sp, #4]
.Ltmp764:
	.loc	10 1387 7 is_stmt 0             @ rt-thread/components/net/lwip-2.0.2/src/core/tcp.c:1387:7
	cbz	r0, .LBB26_4
	b	.LBB26_1
.LBB26_1:
.Ltmp765:
	.loc	10 1388 9 is_stmt 1             @ rt-thread/components/net/lwip-2.0.2/src/core/tcp.c:1388:9
	ldr	r0, [sp, #4]
	.loc	10 1388 14 is_stmt 0            @ rt-thread/components/net/lwip-2.0.2/src/core/tcp.c:1388:14
	ldr	r0, [r0, #4]
.Ltmp766:
	.loc	10 1388 9                       @ rt-thread/components/net/lwip-2.0.2/src/core/tcp.c:1388:9
	cbz	r0, .LBB26_3
	b	.LBB26_2
.LBB26_2:
.Ltmp767:
	.loc	10 1389 17 is_stmt 1            @ rt-thread/components/net/lwip-2.0.2/src/core/tcp.c:1389:17
	ldr	r0, [sp, #4]
	.loc	10 1389 22 is_stmt 0            @ rt-thread/components/net/lwip-2.0.2/src/core/tcp.c:1389:22
	ldr	r0, [r0, #4]
	.loc	10 1389 7                       @ rt-thread/components/net/lwip-2.0.2/src/core/tcp.c:1389:7
	bl	pbuf_free
	.loc	10 1393 5 is_stmt 1             @ rt-thread/components/net/lwip-2.0.2/src/core/tcp.c:1393:5
	b	.LBB26_3
.Ltmp768:
.LBB26_3:
	.loc	10 1394 29                      @ rt-thread/components/net/lwip-2.0.2/src/core/tcp.c:1394:29
	ldr	r1, [sp, #4]
	movs	r0, #4
	.loc	10 1394 5 is_stmt 0             @ rt-thread/components/net/lwip-2.0.2/src/core/tcp.c:1394:5
	bl	memp_free
	.loc	10 1395 3 is_stmt 1             @ rt-thread/components/net/lwip-2.0.2/src/core/tcp.c:1395:3
	b	.LBB26_4
.Ltmp769:
.LBB26_4:
	.loc	10 1396 1                       @ rt-thread/components/net/lwip-2.0.2/src/core/tcp.c:1396:1
	add	sp, #8
	pop	{r7, pc}
.Ltmp770:
.Lfunc_end26:
	.size	tcp_seg_free, .Lfunc_end26-tcp_seg_free
	.cfi_endproc
	.cantunwind
	.fnend
                                        @ -- End function
	.section	.text.tcp_setprio,"ax",%progbits
	.hidden	tcp_setprio                     @ -- Begin function tcp_setprio
	.globl	tcp_setprio
	.p2align	3
	.type	tcp_setprio,%function
	.code	16                              @ @tcp_setprio
	.thumb_func
tcp_setprio:
.Lfunc_begin27:
	.loc	10 1406 0                       @ rt-thread/components/net/lwip-2.0.2/src/core/tcp.c:1406:0
	.fnstart
	.cfi_startproc
@ %bb.0:
	.pad	#8
	sub	sp, #8
	.cfi_def_cfa_offset 8
                                        @ kill: def $r2 killed $r1
	str	r0, [sp, #4]
	strb.w	r1, [sp, #3]
.Ltmp771:
	.loc	10 1407 15 prologue_end         @ rt-thread/components/net/lwip-2.0.2/src/core/tcp.c:1407:15
	ldrb.w	r0, [sp, #3]
	.loc	10 1407 3 is_stmt 0             @ rt-thread/components/net/lwip-2.0.2/src/core/tcp.c:1407:3
	ldr	r1, [sp, #4]
	.loc	10 1407 13                      @ rt-thread/components/net/lwip-2.0.2/src/core/tcp.c:1407:13
	strb	r0, [r1, #21]
	.loc	10 1408 1 is_stmt 1             @ rt-thread/components/net/lwip-2.0.2/src/core/tcp.c:1408:1
	add	sp, #8
	bx	lr
.Ltmp772:
.Lfunc_end27:
