	.text
	.syntax unified
	.eabi_attribute	67, "2.09"	@ Tag_conformance
	.cpu	cortex-m7
	.eabi_attribute	6, 13	@ Tag_CPU_arch
	.eabi_attribute	7, 77	@ Tag_CPU_arch_profile
	.eabi_attribute	8, 0	@ Tag_ARM_ISA_use
	.eabi_attribute	9, 2	@ Tag_THUMB_ISA_use
	.fpu	fpv5-d16
	.eabi_attribute	36, 1	@ Tag_FP_HP_extension
	.eabi_attribute	34, 1	@ Tag_CPU_unaligned_access
	.eabi_attribute	17, 1	@ Tag_ABI_PCS_GOT_use
	.eabi_attribute	20, 2	@ Tag_ABI_FP_denormal
	.eabi_attribute	21, 0	@ Tag_ABI_FP_exceptions
	.eabi_attribute	23, 1	@ Tag_ABI_FP_number_model
	.eabi_attribute	24, 1	@ Tag_ABI_align_needed
	.eabi_attribute	25, 1	@ Tag_ABI_align_preserved
	.eabi_attribute	28, 1	@ Tag_ABI_VFP_args
	.eabi_attribute	38, 1	@ Tag_ABI_FP_16bit_format
	.eabi_attribute	18, 2	@ Tag_ABI_PCS_wchar_t
	.eabi_attribute	26, 1	@ Tag_ABI_enum_size
	.eabi_attribute	14, 0	@ Tag_ABI_PCS_R9_use
	.file	"tcp_out.c"
	.file	1 "E:\\Smart-access-control\\Hardware\\CODE" "./rt-thread/components/net/lwip-2.0.2/src/include\\lwip/tcp.h"
	.file	2 "E:\\Smart-access-control\\Hardware\\CODE" "./rt-thread/components/net/lwip-2.0.2/src/include\\lwip/err.h"
	.file	3 "E:\\Smart-access-control\\Hardware\\CODE" "./rt-thread/components/net/lwip-2.0.2/src/include\\lwip/pbuf.h"
	.file	4 "E:\\Smart-access-control\\Hardware\\CODE" "./rt-thread/components/net/lwip-2.0.2/src/include\\lwip/netif.h"
	.file	5 "E:\\Smart-access-control\\Hardware\\CODE" "./rt-thread/components/net/lwip-2.0.2/src/include\\lwip/memp.h"
	.file	6 "D:\\Keil_v5\\ARM\\ARMCLANG\\Bin\\..\\include" "stdint.h"
	.file	7 "E:\\Smart-access-control\\Hardware\\CODE" "./rt-thread/components/net/lwip-2.0.2/src/include\\lwip/arch.h"
	.file	8 "E:\\Smart-access-control\\Hardware\\CODE" "./rt-thread/components/net/lwip-2.0.2/src/include\\lwip/prot/tcp.h"
	.file	9 "E:\\Smart-access-control\\Hardware\\CODE" "./rt-thread/components/net/lwip-2.0.2/src/include\\lwip/ip4_addr.h"
	.file	10 "E:\\Smart-access-control\\Hardware\\CODE" "./rt-thread/components/net/lwip-2.0.2/src/include\\lwip/ip_addr.h"
	.file	11 "E:\\Smart-access-control\\Hardware\\CODE" "./rt-thread/components/net/lwip-2.0.2/src/include\\lwip/priv/tcp_priv.h"
	.section	.text.tcp_send_fin,"ax",%progbits
	.hidden	tcp_send_fin                    @ -- Begin function tcp_send_fin
	.globl	tcp_send_fin
	.p2align	3
	.type	tcp_send_fin,%function
	.code	16                              @ @tcp_send_fin
	.thumb_func
tcp_send_fin:
.Lfunc_begin0:
	.file	12 "E:\\Smart-access-control\\Hardware\\CODE" "rt-thread/components/net/lwip-2.0.2/src/core/tcp_out.c"
	.loc	12 140 0                        @ rt-thread/components/net/lwip-2.0.2/src/core/tcp_out.c:140:0
	.fnstart
	.cfi_sections .debug_frame
	.cfi_startproc
@ %bb.0:
	.save	{r7, lr}
	push	{r7, lr}
	.cfi_def_cfa_offset 8
	.cfi_offset lr, -4
	.cfi_offset r7, -8
	.pad	#16
	sub	sp, #16
	.cfi_def_cfa_offset 24
	str	r0, [sp, #8]
.Ltmp0:
	.loc	12 142 7 prologue_end           @ rt-thread/components/net/lwip-2.0.2/src/core/tcp_out.c:142:7
	ldr	r0, [sp, #8]
	.loc	12 142 12 is_stmt 0             @ rt-thread/components/net/lwip-2.0.2/src/core/tcp_out.c:142:12
	ldr	r0, [r0, #104]
.Ltmp1:
	.loc	12 142 7                        @ rt-thread/components/net/lwip-2.0.2/src/core/tcp_out.c:142:7
	cbz	r0, .LBB0_8
	b	.LBB0_1
.LBB0_1:
.Ltmp2:
	.loc	12 144 24 is_stmt 1             @ rt-thread/components/net/lwip-2.0.2/src/core/tcp_out.c:144:24
	ldr	r0, [sp, #8]
	.loc	12 144 29 is_stmt 0             @ rt-thread/components/net/lwip-2.0.2/src/core/tcp_out.c:144:29
	ldr	r0, [r0, #104]
	.loc	12 144 22                       @ rt-thread/components/net/lwip-2.0.2/src/core/tcp_out.c:144:22
	str	r0, [sp, #4]
	.loc	12 144 10                       @ rt-thread/components/net/lwip-2.0.2/src/core/tcp_out.c:144:10
	b	.LBB0_2
.LBB0_2:                                @ =>This Inner Loop Header: Depth=1
.Ltmp3:
	.loc	12 144 37                       @ rt-thread/components/net/lwip-2.0.2/src/core/tcp_out.c:144:37
	ldr	r0, [sp, #4]
	.loc	12 144 50                       @ rt-thread/components/net/lwip-2.0.2/src/core/tcp_out.c:144:50
	ldr	r0, [r0]
.Ltmp4:
	.loc	12 144 5                        @ rt-thread/components/net/lwip-2.0.2/src/core/tcp_out.c:144:5
	cbz	r0, .LBB0_5
	b	.LBB0_3
.LBB0_3:                                @   in Loop: Header=BB0_2 Depth=1
	b	.LBB0_4
.LBB0_4:                                @   in Loop: Header=BB0_2 Depth=1
.Ltmp5:
	.loc	12 145 24 is_stmt 1             @ rt-thread/components/net/lwip-2.0.2/src/core/tcp_out.c:145:24
	ldr	r0, [sp, #4]
	.loc	12 145 37 is_stmt 0             @ rt-thread/components/net/lwip-2.0.2/src/core/tcp_out.c:145:37
	ldr	r0, [r0]
	.loc	12 145 22                       @ rt-thread/components/net/lwip-2.0.2/src/core/tcp_out.c:145:22
	str	r0, [sp, #4]
	.loc	12 144 5 is_stmt 1              @ rt-thread/components/net/lwip-2.0.2/src/core/tcp_out.c:144:5
	b	.LBB0_2
.Ltmp6:
.LBB0_5:
	.loc	12 147 10                       @ rt-thread/components/net/lwip-2.0.2/src/core/tcp_out.c:147:10
	ldr	r0, [sp, #4]
	ldr	r0, [r0, #12]
	ldrh	r0, [r0, #12]
	bl	lwip_htons
.Ltmp7:
	.loc	12 147 9 is_stmt 0              @ rt-thread/components/net/lwip-2.0.2/src/core/tcp_out.c:147:9
	lsls	r0, r0, #29
	cbnz	r0, .LBB0_7
	b	.LBB0_6
.LBB0_6:
.Ltmp8:
	.loc	12 149 7 is_stmt 1              @ rt-thread/components/net/lwip-2.0.2/src/core/tcp_out.c:149:7
	ldr	r0, [sp, #4]
	ldr	r0, [r0, #12]
	ldrh	r0, [r0, #12]
	str	r0, [sp]                        @ 4-byte Spill
	movs	r0, #1
	bl	lwip_htons
	mov	r1, r0
	ldr	r0, [sp]                        @ 4-byte Reload
	orrs	r0, r1
	ldr	r1, [sp, #4]
	ldr	r1, [r1, #12]
	strh	r0, [r1, #12]
	.loc	12 150 7                        @ rt-thread/components/net/lwip-2.0.2/src/core/tcp_out.c:150:7
	ldr	r1, [sp, #8]
	.loc	12 150 18 is_stmt 0             @ rt-thread/components/net/lwip-2.0.2/src/core/tcp_out.c:150:18
	ldrb	r0, [r1, #26]
	orr	r0, r0, #32
	strb	r0, [r1, #26]
	movs	r0, #0
	.loc	12 151 7 is_stmt 1              @ rt-thread/components/net/lwip-2.0.2/src/core/tcp_out.c:151:7
	strb.w	r0, [sp, #15]
	b	.LBB0_9
.Ltmp9:
.LBB0_7:
	.loc	12 153 3                        @ rt-thread/components/net/lwip-2.0.2/src/core/tcp_out.c:153:3
	b	.LBB0_8
.Ltmp10:
.LBB0_8:
	.loc	12 155 28                       @ rt-thread/components/net/lwip-2.0.2/src/core/tcp_out.c:155:28
	ldr	r0, [sp, #8]
	movs	r1, #1
	.loc	12 155 10 is_stmt 0             @ rt-thread/components/net/lwip-2.0.2/src/core/tcp_out.c:155:10
	bl	tcp_enqueue_flags
	.loc	12 155 3                        @ rt-thread/components/net/lwip-2.0.2/src/core/tcp_out.c:155:3
	strb.w	r0, [sp, #15]
	b	.LBB0_9
.LBB0_9:
	.loc	12 156 1 is_stmt 1              @ rt-thread/components/net/lwip-2.0.2/src/core/tcp_out.c:156:1
	ldrsb.w	r0, [sp, #15]
	add	sp, #16
	pop	{r7, pc}
.Ltmp11:
.Lfunc_end0:
	.size	tcp_send_fin, .Lfunc_end0-tcp_send_fin
	.cfi_endproc
	.cantunwind
	.fnend
                                        @ -- End function
	.section	.text.tcp_enqueue_flags,"ax",%progbits
	.hidden	tcp_enqueue_flags               @ -- Begin function tcp_enqueue_flags
	.globl	tcp_enqueue_flags
	.p2align	3
	.type	tcp_enqueue_flags,%function
	.code	16                              @ @tcp_enqueue_flags
	.thumb_func
tcp_enqueue_flags:
.Lfunc_begin1:
	.loc	12 786 0                        @ rt-thread/components/net/lwip-2.0.2/src/core/tcp_out.c:786:0
	.fnstart
	.cfi_startproc
@ %bb.0:
	.save	{r7, lr}
	push	{r7, lr}
	.cfi_def_cfa_offset 8
	.cfi_offset lr, -4
	.cfi_offset r7, -8
	.pad	#32
	sub	sp, #32
	.cfi_def_cfa_offset 40
                                        @ kill: def $r2 killed $r1
	str	r0, [sp, #24]
	strb.w	r1, [sp, #23]
	movs	r0, #0
.Ltmp12:
	.loc	12 789 8 prologue_end           @ rt-thread/components/net/lwip-2.0.2/src/core/tcp_out.c:789:8
	strb.w	r0, [sp, #11]
	.loc	12 790 8                        @ rt-thread/components/net/lwip-2.0.2/src/core/tcp_out.c:790:8
	strb.w	r0, [sp, #10]
	.loc	12 794 3                        @ rt-thread/components/net/lwip-2.0.2/src/core/tcp_out.c:794:3
	b	.LBB1_1
.LBB1_1:
.Ltmp13:
	.loc	12 794 3 is_stmt 0              @ rt-thread/components/net/lwip-2.0.2/src/core/tcp_out.c:794:3
	ldrb.w	r0, [sp, #23]
.Ltmp14:
	.loc	12 794 3                        @ rt-thread/components/net/lwip-2.0.2/src/core/tcp_out.c:794:3
	lsls	r0, r0, #30
	cbnz	r0, .LBB1_5
	b	.LBB1_2
.LBB1_2:
.Ltmp15:
	.loc	12 794 3                        @ rt-thread/components/net/lwip-2.0.2/src/core/tcp_out.c:794:3
	b	.LBB1_3
.LBB1_3:
.Ltmp16:
	.loc	12 794 3                        @ rt-thread/components/net/lwip-2.0.2/src/core/tcp_out.c:794:3
	movw	r0, :lower16:.L.str.13
	movt	r0, :upper16:.L.str.13
	bl	rt_kprintf
	movw	r0, :lower16:.L.str.1
	movt	r0, :upper16:.L.str.1
	movw	r1, #795
	bl	sys_arch_assert
	b	.LBB1_4
.Ltmp17:
.LBB1_4:
	.loc	12 794 3                        @ rt-thread/components/net/lwip-2.0.2/src/core/tcp_out.c:794:3
	b	.LBB1_5
.Ltmp18:
.LBB1_5:
	.loc	12 794 3                        @ rt-thread/components/net/lwip-2.0.2/src/core/tcp_out.c:794:3
	b	.LBB1_6
.Ltmp19:
.LBB1_6:
	.loc	12 798 9 is_stmt 1              @ rt-thread/components/net/lwip-2.0.2/src/core/tcp_out.c:798:9
	ldr	r0, [sp, #24]
	.loc	12 798 14 is_stmt 0             @ rt-thread/components/net/lwip-2.0.2/src/core/tcp_out.c:798:14
	ldrh.w	r0, [r0, #98]
	.loc	12 798 48                       @ rt-thread/components/net/lwip-2.0.2/src/core/tcp_out.c:798:48
	cmp	r0, #21
	bgt	.LBB1_8
	b	.LBB1_7
.LBB1_7:
	.loc	12 798 52                       @ rt-thread/components/net/lwip-2.0.2/src/core/tcp_out.c:798:52
	ldr	r0, [sp, #24]
	.loc	12 798 57                       @ rt-thread/components/net/lwip-2.0.2/src/core/tcp_out.c:798:57
	ldrh.w	r0, [r0, #98]
	movw	r1, #65533
	.loc	12 798 99                       @ rt-thread/components/net/lwip-2.0.2/src/core/tcp_out.c:798:99
	cmp	r0, r1
	blo	.LBB1_10
	b	.LBB1_8
.LBB1_8:
	.loc	12 799 9 is_stmt 1              @ rt-thread/components/net/lwip-2.0.2/src/core/tcp_out.c:799:9
	ldrb.w	r0, [sp, #23]
.Ltmp20:
	.loc	12 798 7                        @ rt-thread/components/net/lwip-2.0.2/src/core/tcp_out.c:798:7
	lsls	r0, r0, #31
	cbnz	r0, .LBB1_10
	b	.LBB1_9
.LBB1_9:
.Ltmp21:
	.loc	12 803 5                        @ rt-thread/components/net/lwip-2.0.2/src/core/tcp_out.c:803:5
	ldr	r1, [sp, #24]
	.loc	12 803 16 is_stmt 0             @ rt-thread/components/net/lwip-2.0.2/src/core/tcp_out.c:803:16
	ldrb	r0, [r1, #26]
	orr	r0, r0, #128
	strb	r0, [r1, #26]
	movs	r0, #255
	.loc	12 804 5 is_stmt 1              @ rt-thread/components/net/lwip-2.0.2/src/core/tcp_out.c:804:5
	strb.w	r0, [sp, #31]
	b	.LBB1_56
.Ltmp22:
.LBB1_10:
	.loc	12 807 7                        @ rt-thread/components/net/lwip-2.0.2/src/core/tcp_out.c:807:7
	ldrb.w	r0, [sp, #23]
.Ltmp23:
	.loc	12 807 7 is_stmt 0              @ rt-thread/components/net/lwip-2.0.2/src/core/tcp_out.c:807:7
	lsls	r0, r0, #30
	cmp	r0, #0
	bpl	.LBB1_12
	b	.LBB1_11
.LBB1_11:
	.loc	12 0 7                          @ rt-thread/components/net/lwip-2.0.2/src/core/tcp_out.c:0:7
	movs	r0, #1
.Ltmp24:
	.loc	12 808 14 is_stmt 1             @ rt-thread/components/net/lwip-2.0.2/src/core/tcp_out.c:808:14
	strb.w	r0, [sp, #11]
	.loc	12 816 3                        @ rt-thread/components/net/lwip-2.0.2/src/core/tcp_out.c:816:3
	b	.LBB1_12
.Ltmp25:
.LBB1_12:
	.loc	12 824 12                       @ rt-thread/components/net/lwip-2.0.2/src/core/tcp_out.c:824:12
	ldrb.w	r0, [sp, #11]
	and	r0, r0, #1
	lsls	r0, r0, #2
	.loc	12 824 10 is_stmt 0             @ rt-thread/components/net/lwip-2.0.2/src/core/tcp_out.c:824:10
	strb.w	r0, [sp, #10]
.Ltmp26:
	.loc	12 827 39 is_stmt 1             @ rt-thread/components/net/lwip-2.0.2/src/core/tcp_out.c:827:39
	ldrb.w	r1, [sp, #10]
	movs	r2, #0
	.loc	12 827 12 is_stmt 0             @ rt-thread/components/net/lwip-2.0.2/src/core/tcp_out.c:827:12
	mov	r0, r2
	bl	pbuf_alloc
	.loc	12 827 10                       @ rt-thread/components/net/lwip-2.0.2/src/core/tcp_out.c:827:10
	str	r0, [sp, #16]
.Ltmp27:
	.loc	12 827 7                        @ rt-thread/components/net/lwip-2.0.2/src/core/tcp_out.c:827:7
	cbnz	r0, .LBB1_14
	b	.LBB1_13
.LBB1_13:
.Ltmp28:
	.loc	12 828 5 is_stmt 1              @ rt-thread/components/net/lwip-2.0.2/src/core/tcp_out.c:828:5
	ldr	r1, [sp, #24]
	.loc	12 828 16 is_stmt 0             @ rt-thread/components/net/lwip-2.0.2/src/core/tcp_out.c:828:16
	ldrb	r0, [r1, #26]
	orr	r0, r0, #128
	strb	r0, [r1, #26]
	movs	r0, #255
	.loc	12 830 5 is_stmt 1              @ rt-thread/components/net/lwip-2.0.2/src/core/tcp_out.c:830:5
	strb.w	r0, [sp, #31]
	b	.LBB1_56
.Ltmp29:
.LBB1_14:
	.loc	12 832 3                        @ rt-thread/components/net/lwip-2.0.2/src/core/tcp_out.c:832:3
	b	.LBB1_15
.LBB1_15:
.Ltmp30:
	.loc	12 832 3 is_stmt 0              @ rt-thread/components/net/lwip-2.0.2/src/core/tcp_out.c:832:3
	ldr	r0, [sp, #16]
	ldrh	r0, [r0, #10]
	ldrb.w	r1, [sp, #10]
.Ltmp31:
	.loc	12 832 3                        @ rt-thread/components/net/lwip-2.0.2/src/core/tcp_out.c:832:3
	cmp	r0, r1
	bge	.LBB1_19
	b	.LBB1_16
.LBB1_16:
.Ltmp32:
	.loc	12 832 3                        @ rt-thread/components/net/lwip-2.0.2/src/core/tcp_out.c:832:3
	b	.LBB1_17
.LBB1_17:
.Ltmp33:
	.loc	12 832 3                        @ rt-thread/components/net/lwip-2.0.2/src/core/tcp_out.c:832:3
	movw	r0, :lower16:.L.str.14
	movt	r0, :upper16:.L.str.14
	bl	rt_kprintf
	movw	r0, :lower16:.L.str.1
	movt	r0, :upper16:.L.str.1
	movw	r1, #833
	bl	sys_arch_assert
	b	.LBB1_18
.Ltmp34:
.LBB1_18:
	.loc	12 832 3                        @ rt-thread/components/net/lwip-2.0.2/src/core/tcp_out.c:832:3
	b	.LBB1_19
.Ltmp35:
.LBB1_19:
	.loc	12 832 3                        @ rt-thread/components/net/lwip-2.0.2/src/core/tcp_out.c:832:3
	b	.LBB1_20
.Ltmp36:
.LBB1_20:
	.loc	12 836 33 is_stmt 1             @ rt-thread/components/net/lwip-2.0.2/src/core/tcp_out.c:836:33
	ldr	r0, [sp, #24]
	.loc	12 836 38 is_stmt 0             @ rt-thread/components/net/lwip-2.0.2/src/core/tcp_out.c:836:38
	ldr	r1, [sp, #16]
	.loc	12 836 41                       @ rt-thread/components/net/lwip-2.0.2/src/core/tcp_out.c:836:41
	ldrb.w	r2, [sp, #23]
	.loc	12 836 53                       @ rt-thread/components/net/lwip-2.0.2/src/core/tcp_out.c:836:53
	ldr	r3, [r0, #88]
	.loc	12 836 62                       @ rt-thread/components/net/lwip-2.0.2/src/core/tcp_out.c:836:62
	ldrb.w	r12, [sp, #11]
	.loc	12 836 14                       @ rt-thread/components/net/lwip-2.0.2/src/core/tcp_out.c:836:14
	mov	lr, sp
	str.w	r12, [lr]
	bl	tcp_create_segment
	.loc	12 836 12                       @ rt-thread/components/net/lwip-2.0.2/src/core/tcp_out.c:836:12
	str	r0, [sp, #12]
.Ltmp37:
	.loc	12 836 7                        @ rt-thread/components/net/lwip-2.0.2/src/core/tcp_out.c:836:7
	cbnz	r0, .LBB1_22
	b	.LBB1_21
.LBB1_21:
.Ltmp38:
	.loc	12 837 5 is_stmt 1              @ rt-thread/components/net/lwip-2.0.2/src/core/tcp_out.c:837:5
	ldr	r1, [sp, #24]
	.loc	12 837 16 is_stmt 0             @ rt-thread/components/net/lwip-2.0.2/src/core/tcp_out.c:837:16
	ldrb	r0, [r1, #26]
	orr	r0, r0, #128
	strb	r0, [r1, #26]
	movs	r0, #255
	.loc	12 839 5 is_stmt 1              @ rt-thread/components/net/lwip-2.0.2/src/core/tcp_out.c:839:5
	strb.w	r0, [sp, #31]
	b	.LBB1_56
.Ltmp39:
.LBB1_22:
	.loc	12 841 3                        @ rt-thread/components/net/lwip-2.0.2/src/core/tcp_out.c:841:3
	b	.LBB1_23
.LBB1_23:
.Ltmp40:
	.loc	12 841 3 is_stmt 0              @ rt-thread/components/net/lwip-2.0.2/src/core/tcp_out.c:841:3
	ldr	r0, [sp, #12]
.Ltmp41:
	.loc	12 841 3                        @ rt-thread/components/net/lwip-2.0.2/src/core/tcp_out.c:841:3
	ldrb	r0, [r0, #12]
	lsls	r0, r0, #30
	cbz	r0, .LBB1_27
	b	.LBB1_24
.LBB1_24:
.Ltmp42:
	.loc	12 841 3                        @ rt-thread/components/net/lwip-2.0.2/src/core/tcp_out.c:841:3
	b	.LBB1_25
.LBB1_25:
.Ltmp43:
	.loc	12 841 3                        @ rt-thread/components/net/lwip-2.0.2/src/core/tcp_out.c:841:3
	movw	r0, :lower16:.L.str.15
	movt	r0, :upper16:.L.str.15
	bl	rt_kprintf
	movw	r0, :lower16:.L.str.1
	movt	r0, :upper16:.L.str.1
	movw	r1, #841
	bl	sys_arch_assert
	b	.LBB1_26
.Ltmp44:
.LBB1_26:
	.loc	12 841 3                        @ rt-thread/components/net/lwip-2.0.2/src/core/tcp_out.c:841:3
	b	.LBB1_27
.Ltmp45:
.LBB1_27:
	.loc	12 841 3                        @ rt-thread/components/net/lwip-2.0.2/src/core/tcp_out.c:841:3
	b	.LBB1_28
.Ltmp46:
.LBB1_28:
	.loc	12 842 3 is_stmt 1              @ rt-thread/components/net/lwip-2.0.2/src/core/tcp_out.c:842:3
	b	.LBB1_29
.LBB1_29:
.Ltmp47:
	.loc	12 842 3 is_stmt 0              @ rt-thread/components/net/lwip-2.0.2/src/core/tcp_out.c:842:3
	ldr	r0, [sp, #12]
	ldrh	r0, [r0, #8]
.Ltmp48:
	.loc	12 842 3                        @ rt-thread/components/net/lwip-2.0.2/src/core/tcp_out.c:842:3
	cbz	r0, .LBB1_33
	b	.LBB1_30
.LBB1_30:
.Ltmp49:
	.loc	12 842 3                        @ rt-thread/components/net/lwip-2.0.2/src/core/tcp_out.c:842:3
	b	.LBB1_31
.LBB1_31:
.Ltmp50:
	.loc	12 842 3                        @ rt-thread/components/net/lwip-2.0.2/src/core/tcp_out.c:842:3
	movw	r0, :lower16:.L.str.16
	movt	r0, :upper16:.L.str.16
	bl	rt_kprintf
	movw	r0, :lower16:.L.str.1
	movt	r0, :upper16:.L.str.1
	movw	r1, #842
	bl	sys_arch_assert
	b	.LBB1_32
.Ltmp51:
.LBB1_32:
	.loc	12 842 3                        @ rt-thread/components/net/lwip-2.0.2/src/core/tcp_out.c:842:3
	b	.LBB1_33
.Ltmp52:
.LBB1_33:
	.loc	12 842 3                        @ rt-thread/components/net/lwip-2.0.2/src/core/tcp_out.c:842:3
	b	.LBB1_34
.Ltmp53:
.LBB1_34:
	.loc	12 851 7 is_stmt 1              @ rt-thread/components/net/lwip-2.0.2/src/core/tcp_out.c:851:7
	ldr	r0, [sp, #24]
	.loc	12 851 12 is_stmt 0             @ rt-thread/components/net/lwip-2.0.2/src/core/tcp_out.c:851:12
	ldr	r0, [r0, #104]
.Ltmp54:
	.loc	12 851 7                        @ rt-thread/components/net/lwip-2.0.2/src/core/tcp_out.c:851:7
	cbnz	r0, .LBB1_36
	b	.LBB1_35
.LBB1_35:
.Ltmp55:
	.loc	12 852 19 is_stmt 1             @ rt-thread/components/net/lwip-2.0.2/src/core/tcp_out.c:852:19
	ldr	r0, [sp, #12]
	.loc	12 852 5 is_stmt 0              @ rt-thread/components/net/lwip-2.0.2/src/core/tcp_out.c:852:5
	ldr	r1, [sp, #24]
	.loc	12 852 17                       @ rt-thread/components/net/lwip-2.0.2/src/core/tcp_out.c:852:17
	str	r0, [r1, #104]
	.loc	12 853 3 is_stmt 1              @ rt-thread/components/net/lwip-2.0.2/src/core/tcp_out.c:853:3
	b	.LBB1_41
.Ltmp56:
.LBB1_36:
	.loc	12 855 17                       @ rt-thread/components/net/lwip-2.0.2/src/core/tcp_out.c:855:17
	ldr	r0, [sp, #24]
	.loc	12 855 22 is_stmt 0             @ rt-thread/components/net/lwip-2.0.2/src/core/tcp_out.c:855:22
	ldr	r0, [r0, #104]
	.loc	12 855 15                       @ rt-thread/components/net/lwip-2.0.2/src/core/tcp_out.c:855:15
	str	r0, [sp, #4]
	.loc	12 855 10                       @ rt-thread/components/net/lwip-2.0.2/src/core/tcp_out.c:855:10
	b	.LBB1_37
.LBB1_37:                               @ =>This Inner Loop Header: Depth=1
.Ltmp57:
	.loc	12 855 30                       @ rt-thread/components/net/lwip-2.0.2/src/core/tcp_out.c:855:30
	ldr	r0, [sp, #4]
	.loc	12 855 36                       @ rt-thread/components/net/lwip-2.0.2/src/core/tcp_out.c:855:36
	ldr	r0, [r0]
.Ltmp58:
	.loc	12 855 5                        @ rt-thread/components/net/lwip-2.0.2/src/core/tcp_out.c:855:5
	cbz	r0, .LBB1_40
	b	.LBB1_38
.LBB1_38:                               @   in Loop: Header=BB1_37 Depth=1
	b	.LBB1_39
.LBB1_39:                               @   in Loop: Header=BB1_37 Depth=1
.Ltmp59:
	.loc	12 855 57                       @ rt-thread/components/net/lwip-2.0.2/src/core/tcp_out.c:855:57
	ldr	r0, [sp, #4]
	.loc	12 855 63                       @ rt-thread/components/net/lwip-2.0.2/src/core/tcp_out.c:855:63
	ldr	r0, [r0]
	.loc	12 855 55                       @ rt-thread/components/net/lwip-2.0.2/src/core/tcp_out.c:855:55
	str	r0, [sp, #4]
	.loc	12 855 5                        @ rt-thread/components/net/lwip-2.0.2/src/core/tcp_out.c:855:5
	b	.LBB1_37
.Ltmp60:
.LBB1_40:
	.loc	12 856 18 is_stmt 1             @ rt-thread/components/net/lwip-2.0.2/src/core/tcp_out.c:856:18
	ldr	r0, [sp, #12]
	.loc	12 856 5 is_stmt 0              @ rt-thread/components/net/lwip-2.0.2/src/core/tcp_out.c:856:5
	ldr	r1, [sp, #4]
	.loc	12 856 16                       @ rt-thread/components/net/lwip-2.0.2/src/core/tcp_out.c:856:16
	str	r0, [r1]
	b	.LBB1_41
.Ltmp61:
.LBB1_41:
	.loc	12 860 3 is_stmt 1              @ rt-thread/components/net/lwip-2.0.2/src/core/tcp_out.c:860:3
	ldr	r1, [sp, #24]
	movs	r0, #0
	.loc	12 860 24 is_stmt 0             @ rt-thread/components/net/lwip-2.0.2/src/core/tcp_out.c:860:24
	strh.w	r0, [r1, #100]
.Ltmp62:
	.loc	12 864 8 is_stmt 1              @ rt-thread/components/net/lwip-2.0.2/src/core/tcp_out.c:864:8
	ldrb.w	r0, [sp, #23]
	.loc	12 864 25 is_stmt 0             @ rt-thread/components/net/lwip-2.0.2/src/core/tcp_out.c:864:25
	lsls	r0, r0, #30
	cmp	r0, #0
	bmi	.LBB1_43
	b	.LBB1_42
.LBB1_42:
	.loc	12 864 29                       @ rt-thread/components/net/lwip-2.0.2/src/core/tcp_out.c:864:29
	ldrb.w	r0, [sp, #23]
.Ltmp63:
	.loc	12 864 7                        @ rt-thread/components/net/lwip-2.0.2/src/core/tcp_out.c:864:7
	lsls	r0, r0, #31
	cbz	r0, .LBB1_44
	b	.LBB1_43
.LBB1_43:
.Ltmp64:
	.loc	12 865 5 is_stmt 1              @ rt-thread/components/net/lwip-2.0.2/src/core/tcp_out.c:865:5
	ldr	r1, [sp, #24]
	.loc	12 865 17 is_stmt 0             @ rt-thread/components/net/lwip-2.0.2/src/core/tcp_out.c:865:17
	ldr	r0, [r1, #88]
	adds	r0, #1
	str	r0, [r1, #88]
	.loc	12 867 3 is_stmt 1              @ rt-thread/components/net/lwip-2.0.2/src/core/tcp_out.c:867:3
	b	.LBB1_44
.Ltmp65:
.LBB1_44:
	.loc	12 868 7                        @ rt-thread/components/net/lwip-2.0.2/src/core/tcp_out.c:868:7
	ldrb.w	r0, [sp, #23]
.Ltmp66:
	.loc	12 868 7 is_stmt 0              @ rt-thread/components/net/lwip-2.0.2/src/core/tcp_out.c:868:7
	lsls	r0, r0, #31
	cbz	r0, .LBB1_46
	b	.LBB1_45
.LBB1_45:
.Ltmp67:
	.loc	12 869 5 is_stmt 1              @ rt-thread/components/net/lwip-2.0.2/src/core/tcp_out.c:869:5
	ldr	r1, [sp, #24]
	.loc	12 869 16 is_stmt 0             @ rt-thread/components/net/lwip-2.0.2/src/core/tcp_out.c:869:16
	ldrb	r0, [r1, #26]
	orr	r0, r0, #32
	strb	r0, [r1, #26]
	.loc	12 870 3 is_stmt 1              @ rt-thread/components/net/lwip-2.0.2/src/core/tcp_out.c:870:3
	b	.LBB1_46
.Ltmp68:
.LBB1_46:
	.loc	12 873 34                       @ rt-thread/components/net/lwip-2.0.2/src/core/tcp_out.c:873:34
	ldr	r0, [sp, #12]
	.loc	12 873 39 is_stmt 0             @ rt-thread/components/net/lwip-2.0.2/src/core/tcp_out.c:873:39
	ldr	r0, [r0, #4]
	.loc	12 873 24                       @ rt-thread/components/net/lwip-2.0.2/src/core/tcp_out.c:873:24
	bl	pbuf_clen
	mov	r2, r0
	.loc	12 873 3                        @ rt-thread/components/net/lwip-2.0.2/src/core/tcp_out.c:873:3
	ldr	r1, [sp, #24]
	.loc	12 873 21                       @ rt-thread/components/net/lwip-2.0.2/src/core/tcp_out.c:873:21
	ldrh.w	r0, [r1, #98]
	add	r0, r2
	strh.w	r0, [r1, #98]
.Ltmp69:
	.loc	12 875 7 is_stmt 1              @ rt-thread/components/net/lwip-2.0.2/src/core/tcp_out.c:875:7
	ldr	r0, [sp, #24]
	.loc	12 875 12 is_stmt 0             @ rt-thread/components/net/lwip-2.0.2/src/core/tcp_out.c:875:12
	ldrh.w	r0, [r0, #98]
.Ltmp70:
	.loc	12 875 7                        @ rt-thread/components/net/lwip-2.0.2/src/core/tcp_out.c:875:7
	cbz	r0, .LBB1_55
	b	.LBB1_47
.LBB1_47:
.Ltmp71:
	.loc	12 876 5 is_stmt 1              @ rt-thread/components/net/lwip-2.0.2/src/core/tcp_out.c:876:5
	b	.LBB1_48
.LBB1_48:
.Ltmp72:
	.loc	12 876 5 is_stmt 0              @ rt-thread/components/net/lwip-2.0.2/src/core/tcp_out.c:876:5
	ldr	r0, [sp, #24]
	ldr	r0, [r0, #108]
	cbnz	r0, .LBB1_53
	b	.LBB1_49
.LBB1_49:
	ldr	r0, [sp, #24]
	ldr	r0, [r0, #104]
.Ltmp73:
	.loc	12 876 5                        @ rt-thread/components/net/lwip-2.0.2/src/core/tcp_out.c:876:5
	cbnz	r0, .LBB1_53
	b	.LBB1_50
.LBB1_50:
.Ltmp74:
	.loc	12 876 5                        @ rt-thread/components/net/lwip-2.0.2/src/core/tcp_out.c:876:5
	b	.LBB1_51
.LBB1_51:
.Ltmp75:
	.loc	12 876 5                        @ rt-thread/components/net/lwip-2.0.2/src/core/tcp_out.c:876:5
	movw	r0, :lower16:.L.str.17
	movt	r0, :upper16:.L.str.17
	bl	rt_kprintf
	movw	r0, :lower16:.L.str.1
	movt	r0, :upper16:.L.str.1
	movw	r1, #877
	bl	sys_arch_assert
	b	.LBB1_52
.Ltmp76:
.LBB1_52:
	.loc	12 876 5                        @ rt-thread/components/net/lwip-2.0.2/src/core/tcp_out.c:876:5
	b	.LBB1_53
.Ltmp77:
.LBB1_53:
	.loc	12 876 5                        @ rt-thread/components/net/lwip-2.0.2/src/core/tcp_out.c:876:5
	b	.LBB1_54
.Ltmp78:
.LBB1_54:
	.loc	12 878 3 is_stmt 1              @ rt-thread/components/net/lwip-2.0.2/src/core/tcp_out.c:878:3
	b	.LBB1_55
.Ltmp79:
.LBB1_55:
	.loc	12 0 3 is_stmt 0                @ rt-thread/components/net/lwip-2.0.2/src/core/tcp_out.c:0:3
	movs	r0, #0
	.loc	12 880 3 is_stmt 1              @ rt-thread/components/net/lwip-2.0.2/src/core/tcp_out.c:880:3
	strb.w	r0, [sp, #31]
	b	.LBB1_56
.LBB1_56:
	.loc	12 881 1                        @ rt-thread/components/net/lwip-2.0.2/src/core/tcp_out.c:881:1
	ldrsb.w	r0, [sp, #31]
	add	sp, #32
	pop	{r7, pc}
.Ltmp80:
.Lfunc_end1:
	.size	tcp_enqueue_flags, .Lfunc_end1-tcp_enqueue_flags
	.cfi_endproc
	.cantunwind
	.fnend
                                        @ -- End function
	.section	.text.tcp_write,"ax",%progbits
	.hidden	tcp_write                       @ -- Begin function tcp_write
	.globl	tcp_write
	.p2align	3
	.type	tcp_write,%function
	.code	16                              @ @tcp_write
	.thumb_func
tcp_write:
.Lfunc_begin2:
	.loc	12 369 0                        @ rt-thread/components/net/lwip-2.0.2/src/core/tcp_out.c:369:0
	.fnstart
	.cfi_startproc
@ %bb.0:
	.save	{r7, lr}
	push	{r7, lr}
	.cfi_def_cfa_offset 8
	.cfi_offset lr, -4
	.cfi_offset r7, -8
	.pad	#144
	sub	sp, #144
	.cfi_def_cfa_offset 152
                                        @ kill: def $r12 killed $r3
                                        @ kill: def $r12 killed $r2
	str	r0, [sp, #136]
	str	r1, [sp, #132]
	strh.w	r2, [sp, #130]
	strb.w	r3, [sp, #129]
	movs	r0, #0
.Ltmp81:
	.loc	12 370 16 prologue_end          @ rt-thread/components/net/lwip-2.0.2/src/core/tcp_out.c:370:16
	str	r0, [sp, #52]                   @ 4-byte Spill
	str	r0, [sp, #124]
	.loc	12 371 19                       @ rt-thread/components/net/lwip-2.0.2/src/core/tcp_out.c:371:19
	str	r0, [sp, #120]
	.loc	12 371 40 is_stmt 0             @ rt-thread/components/net/lwip-2.0.2/src/core/tcp_out.c:371:40
	str	r0, [sp, #116]
	.loc	12 371 53                       @ rt-thread/components/net/lwip-2.0.2/src/core/tcp_out.c:371:53
	str	r0, [sp, #112]
	.loc	12 371 71                       @ rt-thread/components/net/lwip-2.0.2/src/core/tcp_out.c:371:71
	str	r0, [sp, #108]
	.loc	12 372 9 is_stmt 1              @ rt-thread/components/net/lwip-2.0.2/src/core/tcp_out.c:372:9
	strh.w	r0, [sp, #106]
	.loc	12 374 8                        @ rt-thread/components/net/lwip-2.0.2/src/core/tcp_out.c:374:8
	strb.w	r0, [sp, #103]
	.loc	12 375 8                        @ rt-thread/components/net/lwip-2.0.2/src/core/tcp_out.c:375:8
	strb.w	r0, [sp, #102]
	.loc	12 377 9                        @ rt-thread/components/net/lwip-2.0.2/src/core/tcp_out.c:377:9
	strh.w	r0, [sp, #100]
	.loc	12 378 9                        @ rt-thread/components/net/lwip-2.0.2/src/core/tcp_out.c:378:9
	strh.w	r0, [sp, #98]
	.loc	12 383 9                        @ rt-thread/components/net/lwip-2.0.2/src/core/tcp_out.c:383:9
	strh.w	r0, [sp, #96]
	.loc	12 391 21                       @ rt-thread/components/net/lwip-2.0.2/src/core/tcp_out.c:391:21
	ldr	r1, [sp, #136]
	ldrh	r0, [r1, #50]
	ldrh.w	r1, [r1, #94]
	cmp.w	r0, r1, lsr #1
	bge	.LBB2_2
	b	.LBB2_1
.LBB2_1:
	ldr	r0, [sp, #136]
	ldrh	r0, [r0, #50]
	str	r0, [sp, #48]                   @ 4-byte Spill
	b	.LBB2_3
.LBB2_2:
	ldr	r0, [sp, #136]
	ldrh.w	r0, [r0, #94]
	lsrs	r0, r0, #1
	str	r0, [sp, #48]                   @ 4-byte Spill
	b	.LBB2_3
.LBB2_3:
	ldr	r0, [sp, #48]                   @ 4-byte Reload
	.loc	12 391 9 is_stmt 0              @ rt-thread/components/net/lwip-2.0.2/src/core/tcp_out.c:391:9
	strh.w	r0, [sp, #92]
	.loc	12 392 15 is_stmt 1             @ rt-thread/components/net/lwip-2.0.2/src/core/tcp_out.c:392:15
	ldrh.w	r0, [sp, #92]
	cbz	r0, .LBB2_5
	b	.LBB2_4
.LBB2_4:
	.loc	12 392 27 is_stmt 0             @ rt-thread/components/net/lwip-2.0.2/src/core/tcp_out.c:392:27
	ldrh.w	r0, [sp, #92]
	.loc	12 392 15                       @ rt-thread/components/net/lwip-2.0.2/src/core/tcp_out.c:392:15
	str	r0, [sp, #44]                   @ 4-byte Spill
	b	.LBB2_6
.LBB2_5:
	.loc	12 392 39                       @ rt-thread/components/net/lwip-2.0.2/src/core/tcp_out.c:392:39
	ldr	r0, [sp, #136]
	.loc	12 392 44                       @ rt-thread/components/net/lwip-2.0.2/src/core/tcp_out.c:392:44
	ldrh	r0, [r0, #50]
	.loc	12 392 15                       @ rt-thread/components/net/lwip-2.0.2/src/core/tcp_out.c:392:15
	str	r0, [sp, #44]                   @ 4-byte Spill
	b	.LBB2_6
.LBB2_6:
	ldr	r0, [sp, #44]                   @ 4-byte Reload
	.loc	12 392 13                       @ rt-thread/components/net/lwip-2.0.2/src/core/tcp_out.c:392:13
	strh.w	r0, [sp, #92]
	.loc	12 401 3 is_stmt 1              @ rt-thread/components/net/lwip-2.0.2/src/core/tcp_out.c:401:3
	b	.LBB2_7
.LBB2_7:
.Ltmp82:
	.loc	12 401 3 is_stmt 0              @ rt-thread/components/net/lwip-2.0.2/src/core/tcp_out.c:401:3
	ldr	r0, [sp, #132]
.Ltmp83:
	.loc	12 401 3                        @ rt-thread/components/net/lwip-2.0.2/src/core/tcp_out.c:401:3
	cbnz	r0, .LBB2_11
	b	.LBB2_8
.LBB2_8:
.Ltmp84:
	.loc	12 401 3                        @ rt-thread/components/net/lwip-2.0.2/src/core/tcp_out.c:401:3
	b	.LBB2_9
.LBB2_9:
.Ltmp85:
	.loc	12 401 3                        @ rt-thread/components/net/lwip-2.0.2/src/core/tcp_out.c:401:3
	movw	r0, :lower16:.L.str
	movt	r0, :upper16:.L.str
	bl	rt_kprintf
	movw	r0, :lower16:.L.str.1
	movt	r0, :upper16:.L.str.1
	mov.w	r1, #402
	bl	sys_arch_assert
	b	.LBB2_10
.Ltmp86:
.LBB2_10:
	.loc	12 0 3                          @ rt-thread/components/net/lwip-2.0.2/src/core/tcp_out.c:0:3
	movs	r0, #240
	.loc	12 401 3                        @ rt-thread/components/net/lwip-2.0.2/src/core/tcp_out.c:401:3
	strb.w	r0, [sp, #143]
	b	.LBB2_187
.Ltmp87:
.LBB2_11:
	.loc	12 401 3                        @ rt-thread/components/net/lwip-2.0.2/src/core/tcp_out.c:401:3
	b	.LBB2_12
.Ltmp88:
.LBB2_12:
	.loc	12 404 26 is_stmt 1             @ rt-thread/components/net/lwip-2.0.2/src/core/tcp_out.c:404:26
	ldr	r0, [sp, #136]
	.loc	12 404 31 is_stmt 0             @ rt-thread/components/net/lwip-2.0.2/src/core/tcp_out.c:404:31
	ldrh.w	r1, [sp, #130]
	.loc	12 404 9                        @ rt-thread/components/net/lwip-2.0.2/src/core/tcp_out.c:404:9
	bl	tcp_write_checks
	.loc	12 404 7                        @ rt-thread/components/net/lwip-2.0.2/src/core/tcp_out.c:404:7
	strb.w	r0, [sp, #95]
.Ltmp89:
	.loc	12 405 7 is_stmt 1              @ rt-thread/components/net/lwip-2.0.2/src/core/tcp_out.c:405:7
	ldrsb.w	r0, [sp, #95]
.Ltmp90:
	.loc	12 405 7 is_stmt 0              @ rt-thread/components/net/lwip-2.0.2/src/core/tcp_out.c:405:7
	cbz	r0, .LBB2_14
	b	.LBB2_13
.LBB2_13:
.Ltmp91:
	.loc	12 406 12 is_stmt 1             @ rt-thread/components/net/lwip-2.0.2/src/core/tcp_out.c:406:12
	ldrb.w	r0, [sp, #95]
	.loc	12 406 5 is_stmt 0              @ rt-thread/components/net/lwip-2.0.2/src/core/tcp_out.c:406:5
	strb.w	r0, [sp, #143]
	b	.LBB2_187
.Ltmp92:
.LBB2_14:
	.loc	12 408 14 is_stmt 1             @ rt-thread/components/net/lwip-2.0.2/src/core/tcp_out.c:408:14
	ldr	r0, [sp, #136]
	.loc	12 408 19 is_stmt 0             @ rt-thread/components/net/lwip-2.0.2/src/core/tcp_out.c:408:19
	ldrh.w	r0, [r0, #98]
	.loc	12 408 12                       @ rt-thread/components/net/lwip-2.0.2/src/core/tcp_out.c:408:12
	strh.w	r0, [sp, #104]
.Ltmp93:
	.loc	12 445 7 is_stmt 1              @ rt-thread/components/net/lwip-2.0.2/src/core/tcp_out.c:445:7
	ldr	r0, [sp, #136]
	.loc	12 445 12 is_stmt 0             @ rt-thread/components/net/lwip-2.0.2/src/core/tcp_out.c:445:12
	ldr	r0, [r0, #104]
.Ltmp94:
	.loc	12 445 7                        @ rt-thread/components/net/lwip-2.0.2/src/core/tcp_out.c:445:7
	cmp	r0, #0
	beq.w	.LBB2_78
	b	.LBB2_15
.LBB2_15:
.Ltmp95:
	.loc	12 450 24 is_stmt 1             @ rt-thread/components/net/lwip-2.0.2/src/core/tcp_out.c:450:24
	ldr	r0, [sp, #136]
	.loc	12 450 29 is_stmt 0             @ rt-thread/components/net/lwip-2.0.2/src/core/tcp_out.c:450:29
	ldr	r0, [r0, #104]
	.loc	12 450 22                       @ rt-thread/components/net/lwip-2.0.2/src/core/tcp_out.c:450:22
	str	r0, [sp, #120]
	.loc	12 450 10                       @ rt-thread/components/net/lwip-2.0.2/src/core/tcp_out.c:450:10
	b	.LBB2_16
.LBB2_16:                               @ =>This Inner Loop Header: Depth=1
.Ltmp96:
	.loc	12 450 37                       @ rt-thread/components/net/lwip-2.0.2/src/core/tcp_out.c:450:37
	ldr	r0, [sp, #120]
	.loc	12 450 50                       @ rt-thread/components/net/lwip-2.0.2/src/core/tcp_out.c:450:50
	ldr	r0, [r0]
.Ltmp97:
	.loc	12 450 5                        @ rt-thread/components/net/lwip-2.0.2/src/core/tcp_out.c:450:5
	cbz	r0, .LBB2_19
	b	.LBB2_17
.LBB2_17:                               @   in Loop: Header=BB2_16 Depth=1
	b	.LBB2_18
.LBB2_18:                               @   in Loop: Header=BB2_16 Depth=1
.Ltmp98:
	.loc	12 451 24 is_stmt 1             @ rt-thread/components/net/lwip-2.0.2/src/core/tcp_out.c:451:24
	ldr	r0, [sp, #120]
	.loc	12 451 37 is_stmt 0             @ rt-thread/components/net/lwip-2.0.2/src/core/tcp_out.c:451:37
	ldr	r0, [r0]
	.loc	12 451 22                       @ rt-thread/components/net/lwip-2.0.2/src/core/tcp_out.c:451:22
	str	r0, [sp, #120]
	.loc	12 450 5 is_stmt 1              @ rt-thread/components/net/lwip-2.0.2/src/core/tcp_out.c:450:5
	b	.LBB2_16
.Ltmp99:
.LBB2_19:
	.loc	12 454 21                       @ rt-thread/components/net/lwip-2.0.2/src/core/tcp_out.c:454:21
	ldr	r0, [sp, #120]
	ldrb	r0, [r0, #10]
	and	r0, r0, #1
	lsls	r0, r0, #2
	.loc	12 454 19 is_stmt 0             @ rt-thread/components/net/lwip-2.0.2/src/core/tcp_out.c:454:19
	strh.w	r0, [sp, #88]
	.loc	12 455 5 is_stmt 1              @ rt-thread/components/net/lwip-2.0.2/src/core/tcp_out.c:455:5
	b	.LBB2_20
.LBB2_20:
.Ltmp100:
	.loc	12 455 5 is_stmt 0              @ rt-thread/components/net/lwip-2.0.2/src/core/tcp_out.c:455:5
	ldrh.w	r0, [sp, #92]
	ldr	r1, [sp, #120]
	ldrh	r1, [r1, #8]
	ldrh.w	r2, [sp, #88]
	add	r1, r2
.Ltmp101:
	.loc	12 455 5                        @ rt-thread/components/net/lwip-2.0.2/src/core/tcp_out.c:455:5
	cmp	r0, r1
	bge	.LBB2_24
	b	.LBB2_21
.LBB2_21:
.Ltmp102:
	.loc	12 455 5                        @ rt-thread/components/net/lwip-2.0.2/src/core/tcp_out.c:455:5
	b	.LBB2_22
.LBB2_22:
.Ltmp103:
	.loc	12 455 5                        @ rt-thread/components/net/lwip-2.0.2/src/core/tcp_out.c:455:5
	movw	r0, :lower16:.L.str.2
	movt	r0, :upper16:.L.str.2
	bl	rt_kprintf
	movw	r0, :lower16:.L.str.1
	movt	r0, :upper16:.L.str.1
	movw	r1, #455
	bl	sys_arch_assert
	b	.LBB2_23
.Ltmp104:
.LBB2_23:
	.loc	12 455 5                        @ rt-thread/components/net/lwip-2.0.2/src/core/tcp_out.c:455:5
	b	.LBB2_24
.Ltmp105:
.LBB2_24:
	.loc	12 455 5                        @ rt-thread/components/net/lwip-2.0.2/src/core/tcp_out.c:455:5
	b	.LBB2_25
.Ltmp106:
.LBB2_25:
	.loc	12 456 13 is_stmt 1             @ rt-thread/components/net/lwip-2.0.2/src/core/tcp_out.c:456:13
	ldrh.w	r0, [sp, #92]
	.loc	12 456 26 is_stmt 0             @ rt-thread/components/net/lwip-2.0.2/src/core/tcp_out.c:456:26
	ldr	r1, [sp, #120]
	ldrh	r1, [r1, #8]
	.loc	12 456 45                       @ rt-thread/components/net/lwip-2.0.2/src/core/tcp_out.c:456:45
	ldrh.w	r2, [sp, #88]
	.loc	12 456 43                       @ rt-thread/components/net/lwip-2.0.2/src/core/tcp_out.c:456:43
	add	r1, r2
	.loc	12 456 23                       @ rt-thread/components/net/lwip-2.0.2/src/core/tcp_out.c:456:23
	subs	r0, r0, r1
	.loc	12 456 11                       @ rt-thread/components/net/lwip-2.0.2/src/core/tcp_out.c:456:11
	strh.w	r0, [sp, #90]
	.loc	12 471 16 is_stmt 1             @ rt-thread/components/net/lwip-2.0.2/src/core/tcp_out.c:471:16
	ldr	r0, [sp, #136]
	.loc	12 471 21 is_stmt 0             @ rt-thread/components/net/lwip-2.0.2/src/core/tcp_out.c:471:21
	ldrh.w	r0, [r0, #100]
	.loc	12 471 14                       @ rt-thread/components/net/lwip-2.0.2/src/core/tcp_out.c:471:14
	strh.w	r0, [sp, #100]
.Ltmp107:
	.loc	12 472 9 is_stmt 1              @ rt-thread/components/net/lwip-2.0.2/src/core/tcp_out.c:472:9
	ldrh.w	r0, [sp, #100]
.Ltmp108:
	.loc	12 472 9 is_stmt 0              @ rt-thread/components/net/lwip-2.0.2/src/core/tcp_out.c:472:9
	cmp	r0, #1
	blt	.LBB2_42
	b	.LBB2_26
.LBB2_26:
.Ltmp109:
	.loc	12 473 7 is_stmt 1              @ rt-thread/components/net/lwip-2.0.2/src/core/tcp_out.c:473:7
	b	.LBB2_27
.LBB2_27:
.Ltmp110:
	.loc	12 473 7 is_stmt 0              @ rt-thread/components/net/lwip-2.0.2/src/core/tcp_out.c:473:7
	ldrh.w	r0, [sp, #100]
	ldrh.w	r1, [sp, #90]
.Ltmp111:
	.loc	12 473 7                        @ rt-thread/components/net/lwip-2.0.2/src/core/tcp_out.c:473:7
	cmp	r0, r1
	ble	.LBB2_31
	b	.LBB2_28
.LBB2_28:
.Ltmp112:
	.loc	12 473 7                        @ rt-thread/components/net/lwip-2.0.2/src/core/tcp_out.c:473:7
	b	.LBB2_29
.LBB2_29:
.Ltmp113:
	.loc	12 473 7                        @ rt-thread/components/net/lwip-2.0.2/src/core/tcp_out.c:473:7
	movw	r0, :lower16:.L.str.3
	movt	r0, :upper16:.L.str.3
	bl	rt_kprintf
	movw	r0, :lower16:.L.str.1
	movt	r0, :upper16:.L.str.1
	movw	r1, #473
	bl	sys_arch_assert
	b	.LBB2_30
.Ltmp114:
.LBB2_30:
	.loc	12 473 7                        @ rt-thread/components/net/lwip-2.0.2/src/core/tcp_out.c:473:7
	b	.LBB2_31
.Ltmp115:
.LBB2_31:
	.loc	12 473 7                        @ rt-thread/components/net/lwip-2.0.2/src/core/tcp_out.c:473:7
	b	.LBB2_32
.Ltmp116:
.LBB2_32:
	.loc	12 474 13 is_stmt 1             @ rt-thread/components/net/lwip-2.0.2/src/core/tcp_out.c:474:13
	ldr	r0, [sp, #120]
	.loc	12 474 11 is_stmt 0             @ rt-thread/components/net/lwip-2.0.2/src/core/tcp_out.c:474:11
	str	r0, [sp, #116]
	.loc	12 475 23 is_stmt 1             @ rt-thread/components/net/lwip-2.0.2/src/core/tcp_out.c:475:23
	ldrh.w	r0, [sp, #90]
	str	r0, [sp, #40]                   @ 4-byte Spill
	ldrh.w	r0, [sp, #100]
	ldrh.w	r1, [sp, #130]
	cmp	r0, r1
	bge	.LBB2_34
	b	.LBB2_33
.LBB2_33:
	ldrh.w	r0, [sp, #100]
	str	r0, [sp, #36]                   @ 4-byte Spill
	b	.LBB2_35
.LBB2_34:
	ldrh.w	r0, [sp, #130]
	str	r0, [sp, #36]                   @ 4-byte Spill
	b	.LBB2_35
.LBB2_35:
	ldr	r0, [sp, #40]                   @ 4-byte Reload
	ldr	r1, [sp, #36]                   @ 4-byte Reload
	cmp	r0, r1
	bge	.LBB2_37
	b	.LBB2_36
.LBB2_36:
	ldrh.w	r0, [sp, #90]
	str	r0, [sp, #32]                   @ 4-byte Spill
	b	.LBB2_41
.LBB2_37:
	ldrh.w	r0, [sp, #100]
	ldrh.w	r1, [sp, #130]
	cmp	r0, r1
	bge	.LBB2_39
	b	.LBB2_38
.LBB2_38:
	ldrh.w	r0, [sp, #100]
	str	r0, [sp, #28]                   @ 4-byte Spill
	b	.LBB2_40
.LBB2_39:
	ldrh.w	r0, [sp, #130]
	str	r0, [sp, #28]                   @ 4-byte Spill
	b	.LBB2_40
.LBB2_40:
	ldr	r0, [sp, #28]                   @ 4-byte Reload
	str	r0, [sp, #32]                   @ 4-byte Spill
	b	.LBB2_41
.LBB2_41:
	ldr	r0, [sp, #32]                   @ 4-byte Reload
	.loc	12 475 21 is_stmt 0             @ rt-thread/components/net/lwip-2.0.2/src/core/tcp_out.c:475:21
	strh.w	r0, [sp, #98]
	.loc	12 476 14 is_stmt 1             @ rt-thread/components/net/lwip-2.0.2/src/core/tcp_out.c:476:14
	ldrh.w	r1, [sp, #98]
	.loc	12 476 11 is_stmt 0             @ rt-thread/components/net/lwip-2.0.2/src/core/tcp_out.c:476:11
	ldrh.w	r0, [sp, #106]
	add	r0, r1
	strh.w	r0, [sp, #106]
	.loc	12 477 19 is_stmt 1             @ rt-thread/components/net/lwip-2.0.2/src/core/tcp_out.c:477:19
	ldrh.w	r1, [sp, #98]
	.loc	12 477 16 is_stmt 0             @ rt-thread/components/net/lwip-2.0.2/src/core/tcp_out.c:477:16
	ldrh.w	r0, [sp, #100]
	subs	r0, r0, r1
	strh.w	r0, [sp, #100]
	.loc	12 478 16 is_stmt 1             @ rt-thread/components/net/lwip-2.0.2/src/core/tcp_out.c:478:16
	ldrh.w	r1, [sp, #98]
	.loc	12 478 13 is_stmt 0             @ rt-thread/components/net/lwip-2.0.2/src/core/tcp_out.c:478:13
	ldrh.w	r0, [sp, #90]
	subs	r0, r0, r1
	strh.w	r0, [sp, #90]
	.loc	12 479 5 is_stmt 1              @ rt-thread/components/net/lwip-2.0.2/src/core/tcp_out.c:479:5
	b	.LBB2_42
.Ltmp117:
.LBB2_42:
	.loc	12 481 5                        @ rt-thread/components/net/lwip-2.0.2/src/core/tcp_out.c:481:5
	b	.LBB2_43
.LBB2_43:
.Ltmp118:
	.loc	12 481 5 is_stmt 0              @ rt-thread/components/net/lwip-2.0.2/src/core/tcp_out.c:481:5
	ldrh.w	r0, [sp, #100]
	cbz	r0, .LBB2_48
	b	.LBB2_44
.LBB2_44:
	ldrh.w	r0, [sp, #106]
	ldrh.w	r1, [sp, #130]
.Ltmp119:
	.loc	12 481 5                        @ rt-thread/components/net/lwip-2.0.2/src/core/tcp_out.c:481:5
	cmp	r0, r1
	beq	.LBB2_48
	b	.LBB2_45
.LBB2_45:
.Ltmp120:
	.loc	12 481 5                        @ rt-thread/components/net/lwip-2.0.2/src/core/tcp_out.c:481:5
	b	.LBB2_46
.LBB2_46:
.Ltmp121:
	.loc	12 481 5                        @ rt-thread/components/net/lwip-2.0.2/src/core/tcp_out.c:481:5
	movw	r0, :lower16:.L.str.4
	movt	r0, :upper16:.L.str.4
	bl	rt_kprintf
	movw	r0, :lower16:.L.str.1
	movt	r0, :upper16:.L.str.1
	movw	r1, #481
	bl	sys_arch_assert
	b	.LBB2_47
.Ltmp122:
.LBB2_47:
	.loc	12 481 5                        @ rt-thread/components/net/lwip-2.0.2/src/core/tcp_out.c:481:5
	b	.LBB2_48
.Ltmp123:
.LBB2_48:
	.loc	12 481 5                        @ rt-thread/components/net/lwip-2.0.2/src/core/tcp_out.c:481:5
	b	.LBB2_49
.Ltmp124:
.LBB2_49:
	.loc	12 495 10 is_stmt 1             @ rt-thread/components/net/lwip-2.0.2/src/core/tcp_out.c:495:10
	ldrh.w	r0, [sp, #106]
	.loc	12 495 16 is_stmt 0             @ rt-thread/components/net/lwip-2.0.2/src/core/tcp_out.c:495:16
	ldrh.w	r1, [sp, #130]
	.loc	12 495 21                       @ rt-thread/components/net/lwip-2.0.2/src/core/tcp_out.c:495:21
	cmp	r0, r1
	bge.w	.LBB2_77
	b	.LBB2_50
.LBB2_50:
	.loc	12 495 25                       @ rt-thread/components/net/lwip-2.0.2/src/core/tcp_out.c:495:25
	ldrh.w	r0, [sp, #90]
	.loc	12 495 36                       @ rt-thread/components/net/lwip-2.0.2/src/core/tcp_out.c:495:36
	cmp	r0, #1
	blt.w	.LBB2_77
	b	.LBB2_51
.LBB2_51:
	.loc	12 495 40                       @ rt-thread/components/net/lwip-2.0.2/src/core/tcp_out.c:495:40
	ldr	r0, [sp, #120]
	.loc	12 495 53                       @ rt-thread/components/net/lwip-2.0.2/src/core/tcp_out.c:495:53
	ldrh	r0, [r0, #8]
.Ltmp125:
	.loc	12 495 9                        @ rt-thread/components/net/lwip-2.0.2/src/core/tcp_out.c:495:9
	cmp	r0, #1
	blt.w	.LBB2_77
	b	.LBB2_52
.LBB2_52:
.Ltmp126:
	.loc	12 496 22 is_stmt 1             @ rt-thread/components/net/lwip-2.0.2/src/core/tcp_out.c:496:22
	ldrh.w	r0, [sp, #90]
	ldrh.w	r1, [sp, #130]
	ldrh.w	r2, [sp, #106]
	subs	r1, r1, r2
	cmp	r0, r1
	bge	.LBB2_54
	b	.LBB2_53
.LBB2_53:
	ldrh.w	r0, [sp, #90]
	str	r0, [sp, #24]                   @ 4-byte Spill
	b	.LBB2_55
.LBB2_54:
	ldrh.w	r0, [sp, #130]
	ldrh.w	r1, [sp, #106]
	subs	r0, r0, r1
	str	r0, [sp, #24]                   @ 4-byte Spill
	b	.LBB2_55
.LBB2_55:
	ldr	r0, [sp, #24]                   @ 4-byte Reload
	.loc	12 496 13 is_stmt 0             @ rt-thread/components/net/lwip-2.0.2/src/core/tcp_out.c:496:13
	strh.w	r0, [sp, #86]
	.loc	12 497 13 is_stmt 1             @ rt-thread/components/net/lwip-2.0.2/src/core/tcp_out.c:497:13
	ldr	r0, [sp, #120]
	.loc	12 497 11 is_stmt 0             @ rt-thread/components/net/lwip-2.0.2/src/core/tcp_out.c:497:11
	str	r0, [sp, #116]
.Ltmp127:
	.loc	12 502 11 is_stmt 1             @ rt-thread/components/net/lwip-2.0.2/src/core/tcp_out.c:502:11
	ldrb.w	r0, [sp, #129]
.Ltmp128:
	.loc	12 502 11 is_stmt 0             @ rt-thread/components/net/lwip-2.0.2/src/core/tcp_out.c:502:11
	lsls	r0, r0, #31
	cbz	r0, .LBB2_59
	b	.LBB2_56
.LBB2_56:
.Ltmp129:
	.loc	12 504 53 is_stmt 1             @ rt-thread/components/net/lwip-2.0.2/src/core/tcp_out.c:504:53
	ldrh.w	r1, [sp, #86]
	.loc	12 504 61 is_stmt 0             @ rt-thread/components/net/lwip-2.0.2/src/core/tcp_out.c:504:61
	ldrh.w	r2, [sp, #90]
	.loc	12 504 79                       @ rt-thread/components/net/lwip-2.0.2/src/core/tcp_out.c:504:79
	ldr	r0, [sp, #136]
	.loc	12 504 84                       @ rt-thread/components/net/lwip-2.0.2/src/core/tcp_out.c:504:84
	ldrb.w	r12, [sp, #129]
	.loc	12 504 25                       @ rt-thread/components/net/lwip-2.0.2/src/core/tcp_out.c:504:25
	mov	r3, sp
	mov.w	lr, #1
	str.w	lr, [r3, #8]
	str.w	r12, [r3, #4]
	str	r0, [r3]
	movs	r0, #4
	add	r3, sp, #100
	bl	tcp_pbuf_prealloc
	.loc	12 504 23                       @ rt-thread/components/net/lwip-2.0.2/src/core/tcp_out.c:504:23
	str	r0, [sp, #124]
.Ltmp130:
	.loc	12 504 13                       @ rt-thread/components/net/lwip-2.0.2/src/core/tcp_out.c:504:13
	cbnz	r0, .LBB2_58
	b	.LBB2_57
.LBB2_57:
.Ltmp131:
	.loc	12 508 11 is_stmt 1             @ rt-thread/components/net/lwip-2.0.2/src/core/tcp_out.c:508:11
	b	.LBB2_173
.Ltmp132:
.LBB2_58:
	.loc	12 513 9                        @ rt-thread/components/net/lwip-2.0.2/src/core/tcp_out.c:513:9
	ldr	r0, [sp, #124]
	ldr	r0, [r0, #4]
	ldr	r1, [sp, #132]
	ldrh.w	r2, [sp, #106]
	add	r1, r2
	ldrh.w	r2, [sp, #86]
	bl	__aeabi_memcpy
	.loc	12 517 31                       @ rt-thread/components/net/lwip-2.0.2/src/core/tcp_out.c:517:31
	ldr	r0, [sp, #124]
	.loc	12 517 21 is_stmt 0             @ rt-thread/components/net/lwip-2.0.2/src/core/tcp_out.c:517:21
	bl	pbuf_clen
	mov	r1, r0
	.loc	12 517 18                       @ rt-thread/components/net/lwip-2.0.2/src/core/tcp_out.c:517:18
	ldrh.w	r0, [sp, #104]
	add	r0, r1
	strh.w	r0, [sp, #104]
	.loc	12 518 7 is_stmt 1              @ rt-thread/components/net/lwip-2.0.2/src/core/tcp_out.c:518:7
	b	.LBB2_76
.Ltmp133:
.LBB2_59:
	.loc	12 522 18                       @ rt-thread/components/net/lwip-2.0.2/src/core/tcp_out.c:522:18
	ldr	r0, [sp, #120]
	.loc	12 522 31 is_stmt 0             @ rt-thread/components/net/lwip-2.0.2/src/core/tcp_out.c:522:31
	ldr	r0, [r0, #4]
	.loc	12 522 16                       @ rt-thread/components/net/lwip-2.0.2/src/core/tcp_out.c:522:16
	str	r0, [sp, #80]
	.loc	12 522 14                       @ rt-thread/components/net/lwip-2.0.2/src/core/tcp_out.c:522:14
	b	.LBB2_60
.LBB2_60:                               @ =>This Inner Loop Header: Depth=1
.Ltmp134:
	.loc	12 522 34                       @ rt-thread/components/net/lwip-2.0.2/src/core/tcp_out.c:522:34
	ldr	r0, [sp, #80]
	.loc	12 522 37                       @ rt-thread/components/net/lwip-2.0.2/src/core/tcp_out.c:522:37
	ldr	r0, [r0]
.Ltmp135:
	.loc	12 522 9                        @ rt-thread/components/net/lwip-2.0.2/src/core/tcp_out.c:522:9
	cbz	r0, .LBB2_63
	b	.LBB2_61
.LBB2_61:                               @   in Loop: Header=BB2_60 Depth=1
	b	.LBB2_62
.LBB2_62:                               @   in Loop: Header=BB2_60 Depth=1
.Ltmp136:
	.loc	12 522 55                       @ rt-thread/components/net/lwip-2.0.2/src/core/tcp_out.c:522:55
	ldr	r0, [sp, #80]
	.loc	12 522 58                       @ rt-thread/components/net/lwip-2.0.2/src/core/tcp_out.c:522:58
	ldr	r0, [r0]
	.loc	12 522 53                       @ rt-thread/components/net/lwip-2.0.2/src/core/tcp_out.c:522:53
	str	r0, [sp, #80]
	.loc	12 522 9                        @ rt-thread/components/net/lwip-2.0.2/src/core/tcp_out.c:522:9
	b	.LBB2_60
.Ltmp137:
.LBB2_63:
	.loc	12 523 13 is_stmt 1             @ rt-thread/components/net/lwip-2.0.2/src/core/tcp_out.c:523:13
	ldr	r0, [sp, #80]
	.loc	12 523 16 is_stmt 0             @ rt-thread/components/net/lwip-2.0.2/src/core/tcp_out.c:523:16
	ldrb	r0, [r0, #12]
	.loc	12 523 33                       @ rt-thread/components/net/lwip-2.0.2/src/core/tcp_out.c:523:33
	cmp	r0, #1
	bne	.LBB2_72
	b	.LBB2_64
.LBB2_64:
	.loc	12 523 50                       @ rt-thread/components/net/lwip-2.0.2/src/core/tcp_out.c:523:50
	ldr	r1, [sp, #80]
	.loc	12 523 53                       @ rt-thread/components/net/lwip-2.0.2/src/core/tcp_out.c:523:53
	ldr	r0, [r1, #4]
	.loc	12 523 66                       @ rt-thread/components/net/lwip-2.0.2/src/core/tcp_out.c:523:66
	ldrh	r1, [r1, #10]
	.loc	12 523 61                       @ rt-thread/components/net/lwip-2.0.2/src/core/tcp_out.c:523:61
	add	r0, r1
	.loc	12 523 87                       @ rt-thread/components/net/lwip-2.0.2/src/core/tcp_out.c:523:87
	ldr	r1, [sp, #132]
.Ltmp138:
	.loc	12 523 13                       @ rt-thread/components/net/lwip-2.0.2/src/core/tcp_out.c:523:13
	cmp	r0, r1
	bne	.LBB2_72
	b	.LBB2_65
.LBB2_65:
.Ltmp139:
	.loc	12 524 11 is_stmt 1             @ rt-thread/components/net/lwip-2.0.2/src/core/tcp_out.c:524:11
	b	.LBB2_66
.LBB2_66:
.Ltmp140:
	.loc	12 524 11 is_stmt 0             @ rt-thread/components/net/lwip-2.0.2/src/core/tcp_out.c:524:11
	ldrh.w	r0, [sp, #106]
.Ltmp141:
	.loc	12 524 11                       @ rt-thread/components/net/lwip-2.0.2/src/core/tcp_out.c:524:11
	cbz	r0, .LBB2_70
	b	.LBB2_67
.LBB2_67:
.Ltmp142:
	.loc	12 524 11                       @ rt-thread/components/net/lwip-2.0.2/src/core/tcp_out.c:524:11
	b	.LBB2_68
.LBB2_68:
.Ltmp143:
	.loc	12 524 11                       @ rt-thread/components/net/lwip-2.0.2/src/core/tcp_out.c:524:11
	movw	r0, :lower16:.L.str.5
	movt	r0, :upper16:.L.str.5
	bl	rt_kprintf
	movw	r0, :lower16:.L.str.1
	movt	r0, :upper16:.L.str.1
	mov.w	r1, #524
	bl	sys_arch_assert
	b	.LBB2_69
.Ltmp144:
.LBB2_69:
	.loc	12 524 11                       @ rt-thread/components/net/lwip-2.0.2/src/core/tcp_out.c:524:11
	b	.LBB2_70
.Ltmp145:
.LBB2_70:
	.loc	12 524 11                       @ rt-thread/components/net/lwip-2.0.2/src/core/tcp_out.c:524:11
	b	.LBB2_71
.Ltmp146:
.LBB2_71:
	.loc	12 525 23 is_stmt 1             @ rt-thread/components/net/lwip-2.0.2/src/core/tcp_out.c:525:23
	ldrh.w	r0, [sp, #86]
	.loc	12 525 21 is_stmt 0             @ rt-thread/components/net/lwip-2.0.2/src/core/tcp_out.c:525:21
	strh.w	r0, [sp, #96]
	.loc	12 526 9 is_stmt 1              @ rt-thread/components/net/lwip-2.0.2/src/core/tcp_out.c:526:9
	b	.LBB2_75
.Ltmp147:
.LBB2_72:
	.loc	12 527 48                       @ rt-thread/components/net/lwip-2.0.2/src/core/tcp_out.c:527:48
	ldrh.w	r1, [sp, #86]
	movs	r0, #4
	movs	r2, #1
	.loc	12 527 27 is_stmt 0             @ rt-thread/components/net/lwip-2.0.2/src/core/tcp_out.c:527:27
	bl	pbuf_alloc
	.loc	12 527 25                       @ rt-thread/components/net/lwip-2.0.2/src/core/tcp_out.c:527:25
	str	r0, [sp, #124]
.Ltmp148:
	.loc	12 527 15                       @ rt-thread/components/net/lwip-2.0.2/src/core/tcp_out.c:527:15
	cbnz	r0, .LBB2_74
	b	.LBB2_73
.LBB2_73:
.Ltmp149:
	.loc	12 530 13 is_stmt 1             @ rt-thread/components/net/lwip-2.0.2/src/core/tcp_out.c:530:13
	b	.LBB2_173
.Ltmp150:
.LBB2_74:
	.loc	12 533 64                       @ rt-thread/components/net/lwip-2.0.2/src/core/tcp_out.c:533:64
	ldr	r0, [sp, #132]
	.loc	12 533 70 is_stmt 0             @ rt-thread/components/net/lwip-2.0.2/src/core/tcp_out.c:533:70
	ldrh.w	r1, [sp, #106]
	.loc	12 533 68                       @ rt-thread/components/net/lwip-2.0.2/src/core/tcp_out.c:533:68
	add	r0, r1
	.loc	12 533 30                       @ rt-thread/components/net/lwip-2.0.2/src/core/tcp_out.c:533:30
	ldr	r1, [sp, #124]
	.loc	12 533 49                       @ rt-thread/components/net/lwip-2.0.2/src/core/tcp_out.c:533:49
	str	r0, [r1, #4]
	.loc	12 534 33 is_stmt 1             @ rt-thread/components/net/lwip-2.0.2/src/core/tcp_out.c:534:33
	ldr	r0, [sp, #124]
	.loc	12 534 23 is_stmt 0             @ rt-thread/components/net/lwip-2.0.2/src/core/tcp_out.c:534:23
	bl	pbuf_clen
	mov	r1, r0
	.loc	12 534 20                       @ rt-thread/components/net/lwip-2.0.2/src/core/tcp_out.c:534:20
	ldrh.w	r0, [sp, #104]
	add	r0, r1
	strh.w	r0, [sp, #104]
	b	.LBB2_75
.Ltmp151:
.LBB2_75:
	.loc	12 0 20                         @ rt-thread/components/net/lwip-2.0.2/src/core/tcp_out.c:0:20
	b	.LBB2_76
.LBB2_76:
	.loc	12 544 14 is_stmt 1             @ rt-thread/components/net/lwip-2.0.2/src/core/tcp_out.c:544:14
	ldrh.w	r1, [sp, #86]
	.loc	12 544 11 is_stmt 0             @ rt-thread/components/net/lwip-2.0.2/src/core/tcp_out.c:544:11
	ldrh.w	r0, [sp, #106]
	add	r0, r1
	strh.w	r0, [sp, #106]
	.loc	12 545 5 is_stmt 1              @ rt-thread/components/net/lwip-2.0.2/src/core/tcp_out.c:545:5
	b	.LBB2_77
.Ltmp152:
.LBB2_77:
	.loc	12 546 3                        @ rt-thread/components/net/lwip-2.0.2/src/core/tcp_out.c:546:3
	b	.LBB2_85
.Ltmp153:
.LBB2_78:
	.loc	12 548 5                        @ rt-thread/components/net/lwip-2.0.2/src/core/tcp_out.c:548:5
	b	.LBB2_79
.LBB2_79:
.Ltmp154:
	.loc	12 548 5 is_stmt 0              @ rt-thread/components/net/lwip-2.0.2/src/core/tcp_out.c:548:5
	ldr	r0, [sp, #136]
	ldrh.w	r0, [r0, #100]
.Ltmp155:
	.loc	12 548 5                        @ rt-thread/components/net/lwip-2.0.2/src/core/tcp_out.c:548:5
	cbz	r0, .LBB2_83
	b	.LBB2_80
.LBB2_80:
.Ltmp156:
	.loc	12 548 5                        @ rt-thread/components/net/lwip-2.0.2/src/core/tcp_out.c:548:5
	b	.LBB2_81
.LBB2_81:
.Ltmp157:
	.loc	12 548 5                        @ rt-thread/components/net/lwip-2.0.2/src/core/tcp_out.c:548:5
	movw	r0, :lower16:.L.str.6
	movt	r0, :upper16:.L.str.6
	bl	rt_kprintf
	movw	r0, :lower16:.L.str.1
	movt	r0, :upper16:.L.str.1
	movw	r1, #549
	bl	sys_arch_assert
	b	.LBB2_82
.Ltmp158:
.LBB2_82:
	.loc	12 548 5                        @ rt-thread/components/net/lwip-2.0.2/src/core/tcp_out.c:548:5
	b	.LBB2_83
.Ltmp159:
.LBB2_83:
	.loc	12 548 5                        @ rt-thread/components/net/lwip-2.0.2/src/core/tcp_out.c:548:5
	b	.LBB2_84
.Ltmp160:
.LBB2_84:
	.loc	12 0 5                          @ rt-thread/components/net/lwip-2.0.2/src/core/tcp_out.c:0:5
	b	.LBB2_85
.LBB2_85:
	.loc	12 559 3 is_stmt 1              @ rt-thread/components/net/lwip-2.0.2/src/core/tcp_out.c:559:3
	b	.LBB2_86
.LBB2_86:                               @ =>This Inner Loop Header: Depth=1
	.loc	12 559 10 is_stmt 0             @ rt-thread/components/net/lwip-2.0.2/src/core/tcp_out.c:559:10
	ldrh.w	r0, [sp, #106]
	.loc	12 559 16                       @ rt-thread/components/net/lwip-2.0.2/src/core/tcp_out.c:559:16
	ldrh.w	r1, [sp, #130]
	.loc	12 559 3                        @ rt-thread/components/net/lwip-2.0.2/src/core/tcp_out.c:559:3
	cmp	r0, r1
	bge.w	.LBB2_126
	b	.LBB2_87
.LBB2_87:                               @   in Loop: Header=BB2_86 Depth=1
.Ltmp161:
	.loc	12 561 18 is_stmt 1             @ rt-thread/components/net/lwip-2.0.2/src/core/tcp_out.c:561:18
	ldrh.w	r0, [sp, #130]
	.loc	12 561 24 is_stmt 0             @ rt-thread/components/net/lwip-2.0.2/src/core/tcp_out.c:561:24
	ldrh.w	r1, [sp, #106]
	.loc	12 561 22                       @ rt-thread/components/net/lwip-2.0.2/src/core/tcp_out.c:561:22
	subs	r0, r0, r1
	.loc	12 561 11                       @ rt-thread/components/net/lwip-2.0.2/src/core/tcp_out.c:561:11
	strh.w	r0, [sp, #74]
	.loc	12 562 21 is_stmt 1             @ rt-thread/components/net/lwip-2.0.2/src/core/tcp_out.c:562:21
	ldrh.w	r0, [sp, #92]
	.loc	12 562 33 is_stmt 0             @ rt-thread/components/net/lwip-2.0.2/src/core/tcp_out.c:562:33
	ldrb.w	r1, [sp, #103]
	.loc	12 562 31                       @ rt-thread/components/net/lwip-2.0.2/src/core/tcp_out.c:562:31
	subs	r0, r0, r1
	.loc	12 562 11                       @ rt-thread/components/net/lwip-2.0.2/src/core/tcp_out.c:562:11
	strh.w	r0, [sp, #72]
	.loc	12 563 20 is_stmt 1             @ rt-thread/components/net/lwip-2.0.2/src/core/tcp_out.c:563:20
	ldrh.w	r0, [sp, #74]
	ldrh.w	r1, [sp, #72]
	cmp	r0, r1
	bge	.LBB2_89
	b	.LBB2_88
.LBB2_88:                               @   in Loop: Header=BB2_86 Depth=1
	ldrh.w	r0, [sp, #74]
	str	r0, [sp, #20]                   @ 4-byte Spill
	b	.LBB2_90
.LBB2_89:                               @   in Loop: Header=BB2_86 Depth=1
	ldrh.w	r0, [sp, #72]
	str	r0, [sp, #20]                   @ 4-byte Spill
	b	.LBB2_90
.LBB2_90:                               @   in Loop: Header=BB2_86 Depth=1
	ldr	r0, [sp, #20]                   @ 4-byte Reload
	.loc	12 563 11 is_stmt 0             @ rt-thread/components/net/lwip-2.0.2/src/core/tcp_out.c:563:11
	strh.w	r0, [sp, #70]
.Ltmp162:
	.loc	12 569 9 is_stmt 1              @ rt-thread/components/net/lwip-2.0.2/src/core/tcp_out.c:569:9
	ldrb.w	r0, [sp, #129]
.Ltmp163:
	.loc	12 569 9 is_stmt 0              @ rt-thread/components/net/lwip-2.0.2/src/core/tcp_out.c:569:9
	lsls	r0, r0, #31
	cmp	r0, #0
	beq	.LBB2_100
	b	.LBB2_91
.LBB2_91:                               @   in Loop: Header=BB2_86 Depth=1
.Ltmp164:
	.loc	12 572 50 is_stmt 1             @ rt-thread/components/net/lwip-2.0.2/src/core/tcp_out.c:572:50
	ldrh.w	r0, [sp, #70]
	.loc	12 572 59 is_stmt 0             @ rt-thread/components/net/lwip-2.0.2/src/core/tcp_out.c:572:59
	ldrb.w	r1, [sp, #103]
	.loc	12 572 57                       @ rt-thread/components/net/lwip-2.0.2/src/core/tcp_out.c:572:57
	add	r0, r1
	.loc	12 572 67                       @ rt-thread/components/net/lwip-2.0.2/src/core/tcp_out.c:572:67
	ldrh.w	r2, [sp, #92]
	.loc	12 572 89                       @ rt-thread/components/net/lwip-2.0.2/src/core/tcp_out.c:572:89
	ldr	r1, [sp, #136]
	.loc	12 572 94                       @ rt-thread/components/net/lwip-2.0.2/src/core/tcp_out.c:572:94
	ldrb.w	r12, [sp, #129]
	.loc	12 572 104                      @ rt-thread/components/net/lwip-2.0.2/src/core/tcp_out.c:572:104
	ldr	r3, [sp, #108]
	.loc	12 572 110                      @ rt-thread/components/net/lwip-2.0.2/src/core/tcp_out.c:572:110
	clz	r3, r3
	lsr.w	lr, r3, #5
	.loc	12 572 16                       @ rt-thread/components/net/lwip-2.0.2/src/core/tcp_out.c:572:16
	mov	r3, sp
	str.w	lr, [r3, #8]
	str.w	r12, [r3, #4]
	str	r1, [r3]
	uxth	r1, r0
	movs	r0, #0
	add	r3, sp, #100
	bl	tcp_pbuf_prealloc
	.loc	12 572 14                       @ rt-thread/components/net/lwip-2.0.2/src/core/tcp_out.c:572:14
	str	r0, [sp, #76]
.Ltmp165:
	.loc	12 572 11                       @ rt-thread/components/net/lwip-2.0.2/src/core/tcp_out.c:572:11
	cbnz	r0, .LBB2_93
	b	.LBB2_92
.LBB2_92:
.Ltmp166:
	.loc	12 574 9 is_stmt 1              @ rt-thread/components/net/lwip-2.0.2/src/core/tcp_out.c:574:9
	b	.LBB2_173
.Ltmp167:
.LBB2_93:                               @   in Loop: Header=BB2_86 Depth=1
	.loc	12 576 7                        @ rt-thread/components/net/lwip-2.0.2/src/core/tcp_out.c:576:7
	b	.LBB2_94
.LBB2_94:                               @   in Loop: Header=BB2_86 Depth=1
.Ltmp168:
	.loc	12 576 7 is_stmt 0              @ rt-thread/components/net/lwip-2.0.2/src/core/tcp_out.c:576:7
	ldr	r0, [sp, #76]
	ldrh	r0, [r0, #10]
	ldrh.w	r1, [sp, #70]
.Ltmp169:
	.loc	12 576 7                        @ rt-thread/components/net/lwip-2.0.2/src/core/tcp_out.c:576:7
	cmp	r0, r1
	bge	.LBB2_98
	b	.LBB2_95
.LBB2_95:                               @   in Loop: Header=BB2_86 Depth=1
.Ltmp170:
	.loc	12 576 7                        @ rt-thread/components/net/lwip-2.0.2/src/core/tcp_out.c:576:7
	b	.LBB2_96
.LBB2_96:                               @   in Loop: Header=BB2_86 Depth=1
.Ltmp171:
	.loc	12 576 7                        @ rt-thread/components/net/lwip-2.0.2/src/core/tcp_out.c:576:7
	movw	r0, :lower16:.L.str.7
	movt	r0, :upper16:.L.str.7
	bl	rt_kprintf
	movw	r0, :lower16:.L.str.1
	movt	r0, :upper16:.L.str.1
	movw	r1, #577
	bl	sys_arch_assert
	b	.LBB2_97
.Ltmp172:
.LBB2_97:                               @   in Loop: Header=BB2_86 Depth=1
	.loc	12 576 7                        @ rt-thread/components/net/lwip-2.0.2/src/core/tcp_out.c:576:7
	b	.LBB2_98
.Ltmp173:
.LBB2_98:                               @   in Loop: Header=BB2_86 Depth=1
	.loc	12 576 7                        @ rt-thread/components/net/lwip-2.0.2/src/core/tcp_out.c:576:7
	b	.LBB2_99
.Ltmp174:
.LBB2_99:                               @   in Loop: Header=BB2_86 Depth=1
	.loc	12 578 7 is_stmt 1              @ rt-thread/components/net/lwip-2.0.2/src/core/tcp_out.c:578:7
	ldr	r0, [sp, #76]
	ldr	r0, [r0, #4]
	ldrb.w	r1, [sp, #103]
	add	r0, r1
	ldr	r1, [sp, #132]
	ldrh.w	r2, [sp, #106]
	add	r1, r2
	ldrh.w	r2, [sp, #70]
	bl	__aeabi_memcpy
	.loc	12 579 5                        @ rt-thread/components/net/lwip-2.0.2/src/core/tcp_out.c:579:5
	b	.LBB2_111
.Ltmp175:
.LBB2_100:                              @   in Loop: Header=BB2_86 Depth=1
	.loc	12 587 7                        @ rt-thread/components/net/lwip-2.0.2/src/core/tcp_out.c:587:7
	b	.LBB2_101
.LBB2_101:                              @   in Loop: Header=BB2_86 Depth=1
.Ltmp176:
	.loc	12 587 7 is_stmt 0              @ rt-thread/components/net/lwip-2.0.2/src/core/tcp_out.c:587:7
	ldrh.w	r0, [sp, #100]
.Ltmp177:
	.loc	12 587 7                        @ rt-thread/components/net/lwip-2.0.2/src/core/tcp_out.c:587:7
	cbz	r0, .LBB2_105
	b	.LBB2_102
.LBB2_102:                              @   in Loop: Header=BB2_86 Depth=1
.Ltmp178:
	.loc	12 587 7                        @ rt-thread/components/net/lwip-2.0.2/src/core/tcp_out.c:587:7
	b	.LBB2_103
.LBB2_103:                              @   in Loop: Header=BB2_86 Depth=1
.Ltmp179:
	.loc	12 587 7                        @ rt-thread/components/net/lwip-2.0.2/src/core/tcp_out.c:587:7
	movw	r0, :lower16:.L.str.8
	movt	r0, :upper16:.L.str.8
	bl	rt_kprintf
	movw	r0, :lower16:.L.str.1
	movt	r0, :upper16:.L.str.1
	movw	r1, #587
	bl	sys_arch_assert
	b	.LBB2_104
.Ltmp180:
.LBB2_104:                              @   in Loop: Header=BB2_86 Depth=1
	.loc	12 587 7                        @ rt-thread/components/net/lwip-2.0.2/src/core/tcp_out.c:587:7
	b	.LBB2_105
.Ltmp181:
.LBB2_105:                              @   in Loop: Header=BB2_86 Depth=1
	.loc	12 587 7                        @ rt-thread/components/net/lwip-2.0.2/src/core/tcp_out.c:587:7
	b	.LBB2_106
.Ltmp182:
.LBB2_106:                              @   in Loop: Header=BB2_86 Depth=1
	.loc	12 589 44 is_stmt 1             @ rt-thread/components/net/lwip-2.0.2/src/core/tcp_out.c:589:44
	ldrh.w	r1, [sp, #70]
	movs	r0, #0
	movs	r2, #1
	.loc	12 589 17 is_stmt 0             @ rt-thread/components/net/lwip-2.0.2/src/core/tcp_out.c:589:17
	bl	pbuf_alloc
	.loc	12 589 15                       @ rt-thread/components/net/lwip-2.0.2/src/core/tcp_out.c:589:15
	str	r0, [sp, #64]
.Ltmp183:
	.loc	12 589 11                       @ rt-thread/components/net/lwip-2.0.2/src/core/tcp_out.c:589:11
	cbnz	r0, .LBB2_108
	b	.LBB2_107
.LBB2_107:
.Ltmp184:
	.loc	12 591 9 is_stmt 1              @ rt-thread/components/net/lwip-2.0.2/src/core/tcp_out.c:591:9
	b	.LBB2_173
.Ltmp185:
.LBB2_108:                              @   in Loop: Header=BB2_86 Depth=1
	.loc	12 602 54                       @ rt-thread/components/net/lwip-2.0.2/src/core/tcp_out.c:602:54
	ldr	r0, [sp, #132]
	.loc	12 602 60 is_stmt 0             @ rt-thread/components/net/lwip-2.0.2/src/core/tcp_out.c:602:60
	ldrh.w	r1, [sp, #106]
	.loc	12 602 58                       @ rt-thread/components/net/lwip-2.0.2/src/core/tcp_out.c:602:58
	add	r0, r1
	.loc	12 602 26                       @ rt-thread/components/net/lwip-2.0.2/src/core/tcp_out.c:602:26
	ldr	r1, [sp, #64]
	.loc	12 602 39                       @ rt-thread/components/net/lwip-2.0.2/src/core/tcp_out.c:602:39
	str	r0, [r1, #4]
.Ltmp186:
	.loc	12 605 43 is_stmt 1             @ rt-thread/components/net/lwip-2.0.2/src/core/tcp_out.c:605:43
	ldrb.w	r1, [sp, #103]
	movs	r2, #0
	.loc	12 605 16 is_stmt 0             @ rt-thread/components/net/lwip-2.0.2/src/core/tcp_out.c:605:16
	mov	r0, r2
	bl	pbuf_alloc
	.loc	12 605 14                       @ rt-thread/components/net/lwip-2.0.2/src/core/tcp_out.c:605:14
	str	r0, [sp, #76]
.Ltmp187:
	.loc	12 605 11                       @ rt-thread/components/net/lwip-2.0.2/src/core/tcp_out.c:605:11
	cbnz	r0, .LBB2_110
	b	.LBB2_109
.LBB2_109:
.Ltmp188:
	.loc	12 608 19 is_stmt 1             @ rt-thread/components/net/lwip-2.0.2/src/core/tcp_out.c:608:19
	ldr	r0, [sp, #64]
	.loc	12 608 9 is_stmt 0              @ rt-thread/components/net/lwip-2.0.2/src/core/tcp_out.c:608:9
	bl	pbuf_free
	.loc	12 610 9 is_stmt 1              @ rt-thread/components/net/lwip-2.0.2/src/core/tcp_out.c:610:9
	b	.LBB2_173
.Ltmp189:
.LBB2_110:                              @   in Loop: Header=BB2_86 Depth=1
	.loc	12 613 16                       @ rt-thread/components/net/lwip-2.0.2/src/core/tcp_out.c:613:16
	ldr	r0, [sp, #76]
	.loc	12 613 29 is_stmt 0             @ rt-thread/components/net/lwip-2.0.2/src/core/tcp_out.c:613:29
	ldr	r1, [sp, #64]
	.loc	12 613 7                        @ rt-thread/components/net/lwip-2.0.2/src/core/tcp_out.c:613:7
	bl	pbuf_cat
	b	.LBB2_111
.Ltmp190:
.LBB2_111:                              @   in Loop: Header=BB2_86 Depth=1
	.loc	12 616 27 is_stmt 1             @ rt-thread/components/net/lwip-2.0.2/src/core/tcp_out.c:616:27
	ldr	r0, [sp, #76]
	.loc	12 616 17 is_stmt 0             @ rt-thread/components/net/lwip-2.0.2/src/core/tcp_out.c:616:17
	bl	pbuf_clen
	mov	r1, r0
	.loc	12 616 14                       @ rt-thread/components/net/lwip-2.0.2/src/core/tcp_out.c:616:14
	ldrh.w	r0, [sp, #104]
	add	r0, r1
	strh.w	r0, [sp, #104]
.Ltmp191:
	.loc	12 621 10 is_stmt 1             @ rt-thread/components/net/lwip-2.0.2/src/core/tcp_out.c:621:10
	ldrh.w	r0, [sp, #104]
	.loc	12 621 39 is_stmt 0             @ rt-thread/components/net/lwip-2.0.2/src/core/tcp_out.c:621:39
	cmp	r0, #22
	bgt	.LBB2_113
	b	.LBB2_112
.LBB2_112:                              @   in Loop: Header=BB2_86 Depth=1
	.loc	12 621 43                       @ rt-thread/components/net/lwip-2.0.2/src/core/tcp_out.c:621:43
	ldrh.w	r0, [sp, #104]
	movw	r1, #65533
.Ltmp192:
	.loc	12 621 9                        @ rt-thread/components/net/lwip-2.0.2/src/core/tcp_out.c:621:9
	cmp	r0, r1
	blo	.LBB2_114
	b	.LBB2_113
.LBB2_113:
.Ltmp193:
	.loc	12 624 17 is_stmt 1             @ rt-thread/components/net/lwip-2.0.2/src/core/tcp_out.c:624:17
	ldr	r0, [sp, #76]
	.loc	12 624 7 is_stmt 0              @ rt-thread/components/net/lwip-2.0.2/src/core/tcp_out.c:624:7
	bl	pbuf_free
	.loc	12 625 7 is_stmt 1              @ rt-thread/components/net/lwip-2.0.2/src/core/tcp_out.c:625:7
	b	.LBB2_173
.Ltmp194:
.LBB2_114:                              @   in Loop: Header=BB2_86 Depth=1
	.loc	12 628 35                       @ rt-thread/components/net/lwip-2.0.2/src/core/tcp_out.c:628:35
	ldr	r0, [sp, #136]
	.loc	12 628 40 is_stmt 0             @ rt-thread/components/net/lwip-2.0.2/src/core/tcp_out.c:628:40
	ldr	r1, [sp, #76]
	.loc	12 628 51                       @ rt-thread/components/net/lwip-2.0.2/src/core/tcp_out.c:628:51
	ldr	r2, [r0, #88]
	.loc	12 628 61                       @ rt-thread/components/net/lwip-2.0.2/src/core/tcp_out.c:628:61
	ldrh.w	r3, [sp, #106]
	.loc	12 628 59                       @ rt-thread/components/net/lwip-2.0.2/src/core/tcp_out.c:628:59
	add	r3, r2
	.loc	12 628 66                       @ rt-thread/components/net/lwip-2.0.2/src/core/tcp_out.c:628:66
	ldrb.w	r2, [sp, #102]
	.loc	12 628 16                       @ rt-thread/components/net/lwip-2.0.2/src/core/tcp_out.c:628:16
	mov	r12, sp
	str.w	r2, [r12]
	movs	r2, #0
	bl	tcp_create_segment
	.loc	12 628 14                       @ rt-thread/components/net/lwip-2.0.2/src/core/tcp_out.c:628:14
	str	r0, [sp, #116]
.Ltmp195:
	.loc	12 628 9                        @ rt-thread/components/net/lwip-2.0.2/src/core/tcp_out.c:628:9
	cbnz	r0, .LBB2_116
	b	.LBB2_115
.LBB2_115:
.Ltmp196:
	.loc	12 629 7 is_stmt 1              @ rt-thread/components/net/lwip-2.0.2/src/core/tcp_out.c:629:7
	b	.LBB2_173
.Ltmp197:
.LBB2_116:                              @   in Loop: Header=BB2_86 Depth=1
	.loc	12 641 9                        @ rt-thread/components/net/lwip-2.0.2/src/core/tcp_out.c:641:9
	ldr	r0, [sp, #108]
.Ltmp198:
	.loc	12 641 9 is_stmt 0              @ rt-thread/components/net/lwip-2.0.2/src/core/tcp_out.c:641:9
	cbnz	r0, .LBB2_118
	b	.LBB2_117
.LBB2_117:                              @   in Loop: Header=BB2_86 Depth=1
.Ltmp199:
	.loc	12 642 15 is_stmt 1             @ rt-thread/components/net/lwip-2.0.2/src/core/tcp_out.c:642:15
	ldr	r0, [sp, #116]
	.loc	12 642 13 is_stmt 0             @ rt-thread/components/net/lwip-2.0.2/src/core/tcp_out.c:642:13
	str	r0, [sp, #108]
	.loc	12 643 5 is_stmt 1              @ rt-thread/components/net/lwip-2.0.2/src/core/tcp_out.c:643:5
	b	.LBB2_125
.Ltmp200:
.LBB2_118:                              @   in Loop: Header=BB2_86 Depth=1
	.loc	12 645 7                        @ rt-thread/components/net/lwip-2.0.2/src/core/tcp_out.c:645:7
	b	.LBB2_119
.LBB2_119:                              @   in Loop: Header=BB2_86 Depth=1
.Ltmp201:
	.loc	12 645 7 is_stmt 0              @ rt-thread/components/net/lwip-2.0.2/src/core/tcp_out.c:645:7
	ldr	r0, [sp, #112]
.Ltmp202:
	.loc	12 645 7                        @ rt-thread/components/net/lwip-2.0.2/src/core/tcp_out.c:645:7
	cbnz	r0, .LBB2_123
	b	.LBB2_120
.LBB2_120:                              @   in Loop: Header=BB2_86 Depth=1
.Ltmp203:
	.loc	12 645 7                        @ rt-thread/components/net/lwip-2.0.2/src/core/tcp_out.c:645:7
	b	.LBB2_121
.LBB2_121:                              @   in Loop: Header=BB2_86 Depth=1
.Ltmp204:
	.loc	12 645 7                        @ rt-thread/components/net/lwip-2.0.2/src/core/tcp_out.c:645:7
	movw	r0, :lower16:.L.str.9
	movt	r0, :upper16:.L.str.9
	bl	rt_kprintf
	movw	r0, :lower16:.L.str.1
	movt	r0, :upper16:.L.str.1
	movw	r1, #645
	bl	sys_arch_assert
	b	.LBB2_122
.Ltmp205:
.LBB2_122:                              @   in Loop: Header=BB2_86 Depth=1
	.loc	12 645 7                        @ rt-thread/components/net/lwip-2.0.2/src/core/tcp_out.c:645:7
	b	.LBB2_123
.Ltmp206:
.LBB2_123:                              @   in Loop: Header=BB2_86 Depth=1
	.loc	12 645 7                        @ rt-thread/components/net/lwip-2.0.2/src/core/tcp_out.c:645:7
	b	.LBB2_124
.Ltmp207:
.LBB2_124:                              @   in Loop: Header=BB2_86 Depth=1
	.loc	12 646 24 is_stmt 1             @ rt-thread/components/net/lwip-2.0.2/src/core/tcp_out.c:646:24
	ldr	r0, [sp, #116]
	.loc	12 646 7 is_stmt 0              @ rt-thread/components/net/lwip-2.0.2/src/core/tcp_out.c:646:7
	ldr	r1, [sp, #112]
	.loc	12 646 22                       @ rt-thread/components/net/lwip-2.0.2/src/core/tcp_out.c:646:22
	str	r0, [r1]
	b	.LBB2_125
.Ltmp208:
.LBB2_125:                              @   in Loop: Header=BB2_86 Depth=1
	.loc	12 649 16 is_stmt 1             @ rt-thread/components/net/lwip-2.0.2/src/core/tcp_out.c:649:16
	ldr	r0, [sp, #116]
	.loc	12 649 14 is_stmt 0             @ rt-thread/components/net/lwip-2.0.2/src/core/tcp_out.c:649:14
	str	r0, [sp, #112]
	.loc	12 655 12 is_stmt 1             @ rt-thread/components/net/lwip-2.0.2/src/core/tcp_out.c:655:12
	ldrh.w	r1, [sp, #70]
	.loc	12 655 9 is_stmt 0              @ rt-thread/components/net/lwip-2.0.2/src/core/tcp_out.c:655:9
	ldrh.w	r0, [sp, #106]
	add	r0, r1
	strh.w	r0, [sp, #106]
.Ltmp209:
	.loc	12 559 3 is_stmt 1              @ rt-thread/components/net/lwip-2.0.2/src/core/tcp_out.c:559:3
	b	.LBB2_86
.LBB2_126:
.Ltmp210:
	.loc	12 673 7                        @ rt-thread/components/net/lwip-2.0.2/src/core/tcp_out.c:673:7
	ldrh.w	r0, [sp, #98]
.Ltmp211:
	.loc	12 673 7 is_stmt 0              @ rt-thread/components/net/lwip-2.0.2/src/core/tcp_out.c:673:7
	cmp	r0, #1
	blt	.LBB2_134
	b	.LBB2_127
.LBB2_127:
.Ltmp212:
	.loc	12 676 14 is_stmt 1             @ rt-thread/components/net/lwip-2.0.2/src/core/tcp_out.c:676:14
	ldr	r0, [sp, #120]
	.loc	12 676 27 is_stmt 0             @ rt-thread/components/net/lwip-2.0.2/src/core/tcp_out.c:676:27
	ldr	r0, [r0, #4]
	.loc	12 676 12                       @ rt-thread/components/net/lwip-2.0.2/src/core/tcp_out.c:676:12
	str	r0, [sp, #60]
	.loc	12 676 10                       @ rt-thread/components/net/lwip-2.0.2/src/core/tcp_out.c:676:10
	b	.LBB2_128
.LBB2_128:                              @ =>This Inner Loop Header: Depth=1
.Ltmp213:
	.loc	12 676 30                       @ rt-thread/components/net/lwip-2.0.2/src/core/tcp_out.c:676:30
	ldr	r0, [sp, #60]
.Ltmp214:
	.loc	12 676 5                        @ rt-thread/components/net/lwip-2.0.2/src/core/tcp_out.c:676:5
	cbz	r0, .LBB2_133
	b	.LBB2_129
.LBB2_129:                              @   in Loop: Header=BB2_128 Depth=1
.Ltmp215:
	.loc	12 677 21 is_stmt 1             @ rt-thread/components/net/lwip-2.0.2/src/core/tcp_out.c:677:21
	ldrh.w	r2, [sp, #98]
	.loc	12 677 7 is_stmt 0              @ rt-thread/components/net/lwip-2.0.2/src/core/tcp_out.c:677:7
	ldr	r1, [sp, #60]
	.loc	12 677 18                       @ rt-thread/components/net/lwip-2.0.2/src/core/tcp_out.c:677:18
	ldrh	r0, [r1, #8]
	add	r0, r2
	strh	r0, [r1, #8]
.Ltmp216:
	.loc	12 678 11 is_stmt 1             @ rt-thread/components/net/lwip-2.0.2/src/core/tcp_out.c:678:11
	ldr	r0, [sp, #60]
	.loc	12 678 14 is_stmt 0             @ rt-thread/components/net/lwip-2.0.2/src/core/tcp_out.c:678:14
	ldr	r0, [r0]
.Ltmp217:
	.loc	12 678 11                       @ rt-thread/components/net/lwip-2.0.2/src/core/tcp_out.c:678:11
	cbnz	r0, .LBB2_131
	b	.LBB2_130
.LBB2_130:                              @   in Loop: Header=BB2_128 Depth=1
.Ltmp218:
	.loc	12 679 9 is_stmt 1              @ rt-thread/components/net/lwip-2.0.2/src/core/tcp_out.c:679:9
	ldr	r1, [sp, #60]
	ldr	r0, [r1, #4]
	ldrh	r1, [r1, #10]
	add	r0, r1
	ldr	r1, [sp, #132]
	ldrh.w	r2, [sp, #98]
	bl	__aeabi_memcpy
	.loc	12 680 19                       @ rt-thread/components/net/lwip-2.0.2/src/core/tcp_out.c:680:19
	ldrh.w	r2, [sp, #98]
	.loc	12 680 9 is_stmt 0              @ rt-thread/components/net/lwip-2.0.2/src/core/tcp_out.c:680:9
	ldr	r1, [sp, #60]
	.loc	12 680 16                       @ rt-thread/components/net/lwip-2.0.2/src/core/tcp_out.c:680:16
	ldrh	r0, [r1, #10]
	add	r0, r2
	strh	r0, [r1, #10]
	.loc	12 681 7 is_stmt 1              @ rt-thread/components/net/lwip-2.0.2/src/core/tcp_out.c:681:7
	b	.LBB2_131
.Ltmp219:
.LBB2_131:                              @   in Loop: Header=BB2_128 Depth=1
	.loc	12 682 5                        @ rt-thread/components/net/lwip-2.0.2/src/core/tcp_out.c:682:5
	b	.LBB2_132
.Ltmp220:
.LBB2_132:                              @   in Loop: Header=BB2_128 Depth=1
	.loc	12 676 37                       @ rt-thread/components/net/lwip-2.0.2/src/core/tcp_out.c:676:37
	ldr	r0, [sp, #60]
	.loc	12 676 40 is_stmt 0             @ rt-thread/components/net/lwip-2.0.2/src/core/tcp_out.c:676:40
	ldr	r0, [r0]
	.loc	12 676 35                       @ rt-thread/components/net/lwip-2.0.2/src/core/tcp_out.c:676:35
	str	r0, [sp, #60]
	.loc	12 676 5                        @ rt-thread/components/net/lwip-2.0.2/src/core/tcp_out.c:676:5
	b	.LBB2_128
.Ltmp221:
.LBB2_133:
	.loc	12 683 25 is_stmt 1             @ rt-thread/components/net/lwip-2.0.2/src/core/tcp_out.c:683:25
	ldrh.w	r2, [sp, #98]
	.loc	12 683 5 is_stmt 0              @ rt-thread/components/net/lwip-2.0.2/src/core/tcp_out.c:683:5
	ldr	r1, [sp, #120]
	.loc	12 683 22                       @ rt-thread/components/net/lwip-2.0.2/src/core/tcp_out.c:683:22
	ldrh	r0, [r1, #8]
	add	r0, r2
	strh	r0, [r1, #8]
	.loc	12 689 3 is_stmt 1              @ rt-thread/components/net/lwip-2.0.2/src/core/tcp_out.c:689:3
	b	.LBB2_134
.Ltmp222:
.LBB2_134:
	.loc	12 690 26                       @ rt-thread/components/net/lwip-2.0.2/src/core/tcp_out.c:690:26
	ldrh.w	r0, [sp, #100]
	.loc	12 690 3 is_stmt 0              @ rt-thread/components/net/lwip-2.0.2/src/core/tcp_out.c:690:3
	ldr	r1, [sp, #136]
	.loc	12 690 24                       @ rt-thread/components/net/lwip-2.0.2/src/core/tcp_out.c:690:24
	strh.w	r0, [r1, #100]
.Ltmp223:
	.loc	12 697 7 is_stmt 1              @ rt-thread/components/net/lwip-2.0.2/src/core/tcp_out.c:697:7
	ldr	r0, [sp, #124]
.Ltmp224:
	.loc	12 697 7 is_stmt 0              @ rt-thread/components/net/lwip-2.0.2/src/core/tcp_out.c:697:7
	cbz	r0, .LBB2_142
	b	.LBB2_135
.LBB2_135:
.Ltmp225:
	.loc	12 698 5 is_stmt 1              @ rt-thread/components/net/lwip-2.0.2/src/core/tcp_out.c:698:5
	b	.LBB2_136
.LBB2_136:
.Ltmp226:
	.loc	12 698 5 is_stmt 0              @ rt-thread/components/net/lwip-2.0.2/src/core/tcp_out.c:698:5
	ldr	r0, [sp, #120]
.Ltmp227:
	.loc	12 698 5                        @ rt-thread/components/net/lwip-2.0.2/src/core/tcp_out.c:698:5
	cbnz	r0, .LBB2_140
	b	.LBB2_137
.LBB2_137:
.Ltmp228:
	.loc	12 698 5                        @ rt-thread/components/net/lwip-2.0.2/src/core/tcp_out.c:698:5
	b	.LBB2_138
.LBB2_138:
.Ltmp229:
	.loc	12 698 5                        @ rt-thread/components/net/lwip-2.0.2/src/core/tcp_out.c:698:5
	movw	r0, :lower16:.L.str.10
	movt	r0, :upper16:.L.str.10
	bl	rt_kprintf
	movw	r0, :lower16:.L.str.1
	movt	r0, :upper16:.L.str.1
	movw	r1, #699
	bl	sys_arch_assert
	b	.LBB2_139
.Ltmp230:
.LBB2_139:
	.loc	12 698 5                        @ rt-thread/components/net/lwip-2.0.2/src/core/tcp_out.c:698:5
	b	.LBB2_140
.Ltmp231:
.LBB2_140:
	.loc	12 698 5                        @ rt-thread/components/net/lwip-2.0.2/src/core/tcp_out.c:698:5
	b	.LBB2_141
.Ltmp232:
.LBB2_141:
	.loc	12 700 14 is_stmt 1             @ rt-thread/components/net/lwip-2.0.2/src/core/tcp_out.c:700:14
	ldr	r0, [sp, #120]
	.loc	12 700 27 is_stmt 0             @ rt-thread/components/net/lwip-2.0.2/src/core/tcp_out.c:700:27
	ldr	r0, [r0, #4]
	.loc	12 700 30                       @ rt-thread/components/net/lwip-2.0.2/src/core/tcp_out.c:700:30
	ldr	r1, [sp, #124]
	.loc	12 700 5                        @ rt-thread/components/net/lwip-2.0.2/src/core/tcp_out.c:700:5
	bl	pbuf_cat
	.loc	12 701 25 is_stmt 1             @ rt-thread/components/net/lwip-2.0.2/src/core/tcp_out.c:701:25
	ldr	r0, [sp, #124]
	ldrh	r2, [r0, #8]
	.loc	12 701 5 is_stmt 0              @ rt-thread/components/net/lwip-2.0.2/src/core/tcp_out.c:701:5
	ldr	r1, [sp, #120]
	.loc	12 701 22                       @ rt-thread/components/net/lwip-2.0.2/src/core/tcp_out.c:701:22
	ldrh	r0, [r1, #8]
	add	r0, r2
	strh	r0, [r1, #8]
	.loc	12 702 3 is_stmt 1              @ rt-thread/components/net/lwip-2.0.2/src/core/tcp_out.c:702:3
	b	.LBB2_156
.Ltmp233:
.LBB2_142:
	.loc	12 702 14 is_stmt 0             @ rt-thread/components/net/lwip-2.0.2/src/core/tcp_out.c:702:14
	ldrh.w	r0, [sp, #96]
.Ltmp234:
	.loc	12 702 14                       @ rt-thread/components/net/lwip-2.0.2/src/core/tcp_out.c:702:14
	cmp	r0, #1
	blt	.LBB2_155
	b	.LBB2_143
.LBB2_143:
.Ltmp235:
	.loc	12 704 5 is_stmt 1              @ rt-thread/components/net/lwip-2.0.2/src/core/tcp_out.c:704:5
	b	.LBB2_144
.LBB2_144:
.Ltmp236:
	.loc	12 704 5 is_stmt 0              @ rt-thread/components/net/lwip-2.0.2/src/core/tcp_out.c:704:5
	ldr	r0, [sp, #120]
	cbz	r0, .LBB2_146
	b	.LBB2_145
.LBB2_145:
	ldr	r0, [sp, #120]
	ldr	r0, [r0, #4]
.Ltmp237:
	.loc	12 704 5                        @ rt-thread/components/net/lwip-2.0.2/src/core/tcp_out.c:704:5
	cbnz	r0, .LBB2_149
	b	.LBB2_146
.LBB2_146:
.Ltmp238:
	.loc	12 704 5                        @ rt-thread/components/net/lwip-2.0.2/src/core/tcp_out.c:704:5
	b	.LBB2_147
.LBB2_147:
.Ltmp239:
	.loc	12 704 5                        @ rt-thread/components/net/lwip-2.0.2/src/core/tcp_out.c:704:5
	movw	r0, :lower16:.L.str.11
	movt	r0, :upper16:.L.str.11
	bl	rt_kprintf
	movw	r0, :lower16:.L.str.1
	movt	r0, :upper16:.L.str.1
	movw	r1, #705
	bl	sys_arch_assert
	b	.LBB2_148
.Ltmp240:
.LBB2_148:
	.loc	12 704 5                        @ rt-thread/components/net/lwip-2.0.2/src/core/tcp_out.c:704:5
	b	.LBB2_149
.Ltmp241:
.LBB2_149:
	.loc	12 704 5                        @ rt-thread/components/net/lwip-2.0.2/src/core/tcp_out.c:704:5
	b	.LBB2_150
.Ltmp242:
.LBB2_150:
	.loc	12 706 14 is_stmt 1             @ rt-thread/components/net/lwip-2.0.2/src/core/tcp_out.c:706:14
	ldr	r0, [sp, #120]
	.loc	12 706 27 is_stmt 0             @ rt-thread/components/net/lwip-2.0.2/src/core/tcp_out.c:706:27
	ldr	r0, [r0, #4]
	.loc	12 706 12                       @ rt-thread/components/net/lwip-2.0.2/src/core/tcp_out.c:706:12
	str	r0, [sp, #56]
	.loc	12 706 10                       @ rt-thread/components/net/lwip-2.0.2/src/core/tcp_out.c:706:10
	b	.LBB2_151
.LBB2_151:                              @ =>This Inner Loop Header: Depth=1
.Ltmp243:
	.loc	12 706 30                       @ rt-thread/components/net/lwip-2.0.2/src/core/tcp_out.c:706:30
	ldr	r0, [sp, #56]
	.loc	12 706 33                       @ rt-thread/components/net/lwip-2.0.2/src/core/tcp_out.c:706:33
	ldr	r0, [r0]
.Ltmp244:
	.loc	12 706 5                        @ rt-thread/components/net/lwip-2.0.2/src/core/tcp_out.c:706:5
	cbz	r0, .LBB2_154
	b	.LBB2_152
.LBB2_152:                              @   in Loop: Header=BB2_151 Depth=1
.Ltmp245:
	.loc	12 707 21 is_stmt 1             @ rt-thread/components/net/lwip-2.0.2/src/core/tcp_out.c:707:21
	ldrh.w	r2, [sp, #96]
	.loc	12 707 7 is_stmt 0              @ rt-thread/components/net/lwip-2.0.2/src/core/tcp_out.c:707:7
	ldr	r1, [sp, #56]
	.loc	12 707 18                       @ rt-thread/components/net/lwip-2.0.2/src/core/tcp_out.c:707:18
	ldrh	r0, [r1, #8]
	add	r0, r2
	strh	r0, [r1, #8]
	.loc	12 708 5 is_stmt 1              @ rt-thread/components/net/lwip-2.0.2/src/core/tcp_out.c:708:5
	b	.LBB2_153
.Ltmp246:
.LBB2_153:                              @   in Loop: Header=BB2_151 Depth=1
	.loc	12 706 51                       @ rt-thread/components/net/lwip-2.0.2/src/core/tcp_out.c:706:51
	ldr	r0, [sp, #56]
	.loc	12 706 54 is_stmt 0             @ rt-thread/components/net/lwip-2.0.2/src/core/tcp_out.c:706:54
	ldr	r0, [r0]
	.loc	12 706 49                       @ rt-thread/components/net/lwip-2.0.2/src/core/tcp_out.c:706:49
	str	r0, [sp, #56]
	.loc	12 706 5                        @ rt-thread/components/net/lwip-2.0.2/src/core/tcp_out.c:706:5
	b	.LBB2_151
.Ltmp247:
.LBB2_154:
	.loc	12 709 19 is_stmt 1             @ rt-thread/components/net/lwip-2.0.2/src/core/tcp_out.c:709:19
	ldrh.w	r2, [sp, #96]
	.loc	12 709 5 is_stmt 0              @ rt-thread/components/net/lwip-2.0.2/src/core/tcp_out.c:709:5
	ldr	r1, [sp, #56]
	.loc	12 709 16                       @ rt-thread/components/net/lwip-2.0.2/src/core/tcp_out.c:709:16
	ldrh	r0, [r1, #8]
	add	r0, r2
	strh	r0, [r1, #8]
	.loc	12 710 15 is_stmt 1             @ rt-thread/components/net/lwip-2.0.2/src/core/tcp_out.c:710:15
	ldrh.w	r2, [sp, #96]
	.loc	12 710 5 is_stmt 0              @ rt-thread/components/net/lwip-2.0.2/src/core/tcp_out.c:710:5
	ldr	r1, [sp, #56]
	.loc	12 710 12                       @ rt-thread/components/net/lwip-2.0.2/src/core/tcp_out.c:710:12
	ldrh	r0, [r1, #10]
	add	r0, r2
	strh	r0, [r1, #10]
	.loc	12 711 25 is_stmt 1             @ rt-thread/components/net/lwip-2.0.2/src/core/tcp_out.c:711:25
	ldrh.w	r2, [sp, #96]
	.loc	12 711 5 is_stmt 0              @ rt-thread/components/net/lwip-2.0.2/src/core/tcp_out.c:711:5
	ldr	r1, [sp, #120]
	.loc	12 711 22                       @ rt-thread/components/net/lwip-2.0.2/src/core/tcp_out.c:711:22
	ldrh	r0, [r1, #8]
	add	r0, r2
	strh	r0, [r1, #8]
	.loc	12 712 3 is_stmt 1              @ rt-thread/components/net/lwip-2.0.2/src/core/tcp_out.c:712:3
	b	.LBB2_155
.Ltmp248:
.LBB2_155:
	.loc	12 0 3 is_stmt 0                @ rt-thread/components/net/lwip-2.0.2/src/core/tcp_out.c:0:3
	b	.LBB2_156
.LBB2_156:
.Ltmp249:
	.loc	12 732 7 is_stmt 1              @ rt-thread/components/net/lwip-2.0.2/src/core/tcp_out.c:732:7
	ldr	r0, [sp, #120]
.Ltmp250:
	.loc	12 732 7 is_stmt 0              @ rt-thread/components/net/lwip-2.0.2/src/core/tcp_out.c:732:7
	cbnz	r0, .LBB2_158
	b	.LBB2_157
.LBB2_157:
.Ltmp251:
	.loc	12 733 19 is_stmt 1             @ rt-thread/components/net/lwip-2.0.2/src/core/tcp_out.c:733:19
	ldr	r0, [sp, #108]
	.loc	12 733 5 is_stmt 0              @ rt-thread/components/net/lwip-2.0.2/src/core/tcp_out.c:733:5
	ldr	r1, [sp, #136]
	.loc	12 733 17                       @ rt-thread/components/net/lwip-2.0.2/src/core/tcp_out.c:733:17
	str	r0, [r1, #104]
	.loc	12 734 3 is_stmt 1              @ rt-thread/components/net/lwip-2.0.2/src/core/tcp_out.c:734:3
	b	.LBB2_159
.Ltmp252:
.LBB2_158:
	.loc	12 735 25                       @ rt-thread/components/net/lwip-2.0.2/src/core/tcp_out.c:735:25
	ldr	r0, [sp, #108]
	.loc	12 735 5 is_stmt 0              @ rt-thread/components/net/lwip-2.0.2/src/core/tcp_out.c:735:5
	ldr	r1, [sp, #120]
	.loc	12 735 23                       @ rt-thread/components/net/lwip-2.0.2/src/core/tcp_out.c:735:23
	str	r0, [r1]
	b	.LBB2_159
.Ltmp253:
.LBB2_159:
	.loc	12 741 19 is_stmt 1             @ rt-thread/components/net/lwip-2.0.2/src/core/tcp_out.c:741:19
	ldrh.w	r2, [sp, #130]
	.loc	12 741 3 is_stmt 0              @ rt-thread/components/net/lwip-2.0.2/src/core/tcp_out.c:741:3
	ldr	r1, [sp, #136]
	.loc	12 741 16                       @ rt-thread/components/net/lwip-2.0.2/src/core/tcp_out.c:741:16
	ldr	r0, [r1, #88]
	add	r0, r2
	str	r0, [r1, #88]
	.loc	12 742 19 is_stmt 1             @ rt-thread/components/net/lwip-2.0.2/src/core/tcp_out.c:742:19
	ldrh.w	r2, [sp, #130]
	.loc	12 742 3 is_stmt 0              @ rt-thread/components/net/lwip-2.0.2/src/core/tcp_out.c:742:3
	ldr	r1, [sp, #136]
	.loc	12 742 16                       @ rt-thread/components/net/lwip-2.0.2/src/core/tcp_out.c:742:16
	ldrh.w	r0, [r1, #96]
	subs	r0, r0, r2
	strh.w	r0, [r1, #96]
	.loc	12 743 23 is_stmt 1             @ rt-thread/components/net/lwip-2.0.2/src/core/tcp_out.c:743:23
	ldrh.w	r0, [sp, #104]
	.loc	12 743 3 is_stmt 0              @ rt-thread/components/net/lwip-2.0.2/src/core/tcp_out.c:743:3
	ldr	r1, [sp, #136]
	.loc	12 743 21                       @ rt-thread/components/net/lwip-2.0.2/src/core/tcp_out.c:743:21
	strh.w	r0, [r1, #98]
.Ltmp254:
	.loc	12 747 7 is_stmt 1              @ rt-thread/components/net/lwip-2.0.2/src/core/tcp_out.c:747:7
	ldr	r0, [sp, #136]
	.loc	12 747 12 is_stmt 0             @ rt-thread/components/net/lwip-2.0.2/src/core/tcp_out.c:747:12
	ldrh.w	r0, [r0, #98]
.Ltmp255:
	.loc	12 747 7                        @ rt-thread/components/net/lwip-2.0.2/src/core/tcp_out.c:747:7
	cbz	r0, .LBB2_168
	b	.LBB2_160
.LBB2_160:
.Ltmp256:
	.loc	12 748 5 is_stmt 1              @ rt-thread/components/net/lwip-2.0.2/src/core/tcp_out.c:748:5
	b	.LBB2_161
.LBB2_161:
.Ltmp257:
	.loc	12 748 5 is_stmt 0              @ rt-thread/components/net/lwip-2.0.2/src/core/tcp_out.c:748:5
	ldr	r0, [sp, #136]
	ldr	r0, [r0, #108]
	cbnz	r0, .LBB2_166
	b	.LBB2_162
.LBB2_162:
	ldr	r0, [sp, #136]
	ldr	r0, [r0, #104]
.Ltmp258:
	.loc	12 748 5                        @ rt-thread/components/net/lwip-2.0.2/src/core/tcp_out.c:748:5
	cbnz	r0, .LBB2_166
	b	.LBB2_163
.LBB2_163:
.Ltmp259:
	.loc	12 748 5                        @ rt-thread/components/net/lwip-2.0.2/src/core/tcp_out.c:748:5
	b	.LBB2_164
.LBB2_164:
.Ltmp260:
	.loc	12 748 5                        @ rt-thread/components/net/lwip-2.0.2/src/core/tcp_out.c:748:5
	movw	r0, :lower16:.L.str.12
	movt	r0, :upper16:.L.str.12
	bl	rt_kprintf
	movw	r0, :lower16:.L.str.1
	movt	r0, :upper16:.L.str.1
	movw	r1, #749
	bl	sys_arch_assert
	b	.LBB2_165
.Ltmp261:
.LBB2_165:
	.loc	12 748 5                        @ rt-thread/components/net/lwip-2.0.2/src/core/tcp_out.c:748:5
	b	.LBB2_166
.Ltmp262:
.LBB2_166:
	.loc	12 748 5                        @ rt-thread/components/net/lwip-2.0.2/src/core/tcp_out.c:748:5
	b	.LBB2_167
.Ltmp263:
.LBB2_167:
	.loc	12 750 3 is_stmt 1              @ rt-thread/components/net/lwip-2.0.2/src/core/tcp_out.c:750:3
	b	.LBB2_168
.Ltmp264:
.LBB2_168:
	.loc	12 753 7                        @ rt-thread/components/net/lwip-2.0.2/src/core/tcp_out.c:753:7
	ldr	r0, [sp, #116]
	.loc	12 753 19 is_stmt 0             @ rt-thread/components/net/lwip-2.0.2/src/core/tcp_out.c:753:19
	cbz	r0, .LBB2_172
	b	.LBB2_169
.LBB2_169:
	.loc	12 753 22                       @ rt-thread/components/net/lwip-2.0.2/src/core/tcp_out.c:753:22
	ldr	r0, [sp, #116]
	.loc	12 753 27                       @ rt-thread/components/net/lwip-2.0.2/src/core/tcp_out.c:753:27
	ldr	r0, [r0, #12]
	.loc	12 753 42                       @ rt-thread/components/net/lwip-2.0.2/src/core/tcp_out.c:753:42
	cbz	r0, .LBB2_172
	b	.LBB2_170
.LBB2_170:
	.loc	12 753 47                       @ rt-thread/components/net/lwip-2.0.2/src/core/tcp_out.c:753:47
	ldrb.w	r0, [sp, #129]
.Ltmp265:
	.loc	12 753 7                        @ rt-thread/components/net/lwip-2.0.2/src/core/tcp_out.c:753:7
	lsls	r0, r0, #30
	cmp	r0, #0
	bmi	.LBB2_172
	b	.LBB2_171
.LBB2_171:
.Ltmp266:
	.loc	12 754 5 is_stmt 1              @ rt-thread/components/net/lwip-2.0.2/src/core/tcp_out.c:754:5
	ldr	r0, [sp, #116]
	ldr	r0, [r0, #12]
	ldrh	r0, [r0, #12]
	str	r0, [sp, #16]                   @ 4-byte Spill
	movs	r0, #8
	bl	lwip_htons
	mov	r1, r0
	ldr	r0, [sp, #16]                   @ 4-byte Reload
	orrs	r0, r1
	ldr	r1, [sp, #116]
	ldr	r1, [r1, #12]
	strh	r0, [r1, #12]
	.loc	12 755 3                        @ rt-thread/components/net/lwip-2.0.2/src/core/tcp_out.c:755:3
	b	.LBB2_172
.Ltmp267:
.LBB2_172:
	.loc	12 0 3 is_stmt 0                @ rt-thread/components/net/lwip-2.0.2/src/core/tcp_out.c:0:3
	movs	r0, #0
	.loc	12 757 3 is_stmt 1              @ rt-thread/components/net/lwip-2.0.2/src/core/tcp_out.c:757:3
	strb.w	r0, [sp, #143]
	b	.LBB2_187
.LBB2_173:
.Ltmp268:
	@DEBUG_LABEL: tcp_write:memerr
	.loc	12 759 3                        @ rt-thread/components/net/lwip-2.0.2/src/core/tcp_out.c:759:3
	ldr	r1, [sp, #136]
	.loc	12 759 14 is_stmt 0             @ rt-thread/components/net/lwip-2.0.2/src/core/tcp_out.c:759:14
	ldrb	r0, [r1, #26]
	orr	r0, r0, #128
	strb	r0, [r1, #26]
.Ltmp269:
	.loc	12 762 7 is_stmt 1              @ rt-thread/components/net/lwip-2.0.2/src/core/tcp_out.c:762:7
	ldr	r0, [sp, #124]
.Ltmp270:
	.loc	12 762 7 is_stmt 0              @ rt-thread/components/net/lwip-2.0.2/src/core/tcp_out.c:762:7
	cbz	r0, .LBB2_175
	b	.LBB2_174
.LBB2_174:
.Ltmp271:
	.loc	12 763 15 is_stmt 1             @ rt-thread/components/net/lwip-2.0.2/src/core/tcp_out.c:763:15
	ldr	r0, [sp, #124]
	.loc	12 763 5 is_stmt 0              @ rt-thread/components/net/lwip-2.0.2/src/core/tcp_out.c:763:5
	bl	pbuf_free
	.loc	12 764 3 is_stmt 1              @ rt-thread/components/net/lwip-2.0.2/src/core/tcp_out.c:764:3
	b	.LBB2_175
.Ltmp272:
.LBB2_175:
	.loc	12 765 7                        @ rt-thread/components/net/lwip-2.0.2/src/core/tcp_out.c:765:7
	ldr	r0, [sp, #108]
.Ltmp273:
	.loc	12 765 7 is_stmt 0              @ rt-thread/components/net/lwip-2.0.2/src/core/tcp_out.c:765:7
	cbz	r0, .LBB2_177
	b	.LBB2_176
.LBB2_176:
.Ltmp274:
	.loc	12 766 19 is_stmt 1             @ rt-thread/components/net/lwip-2.0.2/src/core/tcp_out.c:766:19
	ldr	r0, [sp, #108]
	.loc	12 766 5 is_stmt 0              @ rt-thread/components/net/lwip-2.0.2/src/core/tcp_out.c:766:5
	bl	tcp_segs_free
	.loc	12 767 3 is_stmt 1              @ rt-thread/components/net/lwip-2.0.2/src/core/tcp_out.c:767:3
	b	.LBB2_177
.Ltmp275:
.LBB2_177:
	.loc	12 768 7                        @ rt-thread/components/net/lwip-2.0.2/src/core/tcp_out.c:768:7
	ldr	r0, [sp, #136]
	.loc	12 768 12 is_stmt 0             @ rt-thread/components/net/lwip-2.0.2/src/core/tcp_out.c:768:12
	ldrh.w	r0, [r0, #98]
.Ltmp276:
	.loc	12 768 7                        @ rt-thread/components/net/lwip-2.0.2/src/core/tcp_out.c:768:7
	cbz	r0, .LBB2_186
	b	.LBB2_178
.LBB2_178:
.Ltmp277:
	.loc	12 769 5 is_stmt 1              @ rt-thread/components/net/lwip-2.0.2/src/core/tcp_out.c:769:5
	b	.LBB2_179
.LBB2_179:
.Ltmp278:
	.loc	12 769 5 is_stmt 0              @ rt-thread/components/net/lwip-2.0.2/src/core/tcp_out.c:769:5
	ldr	r0, [sp, #136]
	ldr	r0, [r0, #108]
	cbnz	r0, .LBB2_184
	b	.LBB2_180
.LBB2_180:
	ldr	r0, [sp, #136]
	ldr	r0, [r0, #104]
.Ltmp279:
	.loc	12 769 5                        @ rt-thread/components/net/lwip-2.0.2/src/core/tcp_out.c:769:5
	cbnz	r0, .LBB2_184
	b	.LBB2_181
.LBB2_181:
.Ltmp280:
	.loc	12 769 5                        @ rt-thread/components/net/lwip-2.0.2/src/core/tcp_out.c:769:5
	b	.LBB2_182
.LBB2_182:
.Ltmp281:
	.loc	12 769 5                        @ rt-thread/components/net/lwip-2.0.2/src/core/tcp_out.c:769:5
	movw	r0, :lower16:.L.str.12
	movt	r0, :upper16:.L.str.12
	bl	rt_kprintf
	movw	r0, :lower16:.L.str.1
	movt	r0, :upper16:.L.str.1
	movw	r1, #770
	bl	sys_arch_assert
	b	.LBB2_183
.Ltmp282:
.LBB2_183:
	.loc	12 769 5                        @ rt-thread/components/net/lwip-2.0.2/src/core/tcp_out.c:769:5
	b	.LBB2_184
.Ltmp283:
.LBB2_184:
	.loc	12 769 5                        @ rt-thread/components/net/lwip-2.0.2/src/core/tcp_out.c:769:5
	b	.LBB2_185
.Ltmp284:
.LBB2_185:
	.loc	12 771 3 is_stmt 1              @ rt-thread/components/net/lwip-2.0.2/src/core/tcp_out.c:771:3
	b	.LBB2_186
.Ltmp285:
.LBB2_186:
	.loc	12 0 3 is_stmt 0                @ rt-thread/components/net/lwip-2.0.2/src/core/tcp_out.c:0:3
	movs	r0, #255
	.loc	12 773 3 is_stmt 1              @ rt-thread/components/net/lwip-2.0.2/src/core/tcp_out.c:773:3
	strb.w	r0, [sp, #143]
	b	.LBB2_187
.LBB2_187:
	.loc	12 774 1                        @ rt-thread/components/net/lwip-2.0.2/src/core/tcp_out.c:774:1
	ldrsb.w	r0, [sp, #143]
	add	sp, #144
	pop	{r7, pc}
.Ltmp286:
.Lfunc_end2:
	.size	tcp_write, .Lfunc_end2-tcp_write
	.cfi_endproc
	.cantunwind
	.fnend
                                        @ -- End function
	.section	.text.tcp_write_checks,"ax",%progbits
	.p2align	3                               @ -- Begin function tcp_write_checks
	.type	tcp_write_checks,%function
	.code	16                              @ @tcp_write_checks
	.thumb_func
tcp_write_checks:
.Lfunc_begin3:
	.loc	12 308 0                        @ rt-thread/components/net/lwip-2.0.2/src/core/tcp_out.c:308:0
	.fnstart
	.cfi_startproc
@ %bb.0:
	.save	{r7, lr}
	push	{r7, lr}
	.cfi_def_cfa_offset 8
	.cfi_offset lr, -4
	.cfi_offset r7, -8
	.pad	#16
	sub	sp, #16
	.cfi_def_cfa_offset 24
                                        @ kill: def $r2 killed $r1
	str	r0, [sp, #8]
	strh.w	r1, [sp, #6]
.Ltmp287:
	.loc	12 310 8 prologue_end           @ rt-thread/components/net/lwip-2.0.2/src/core/tcp_out.c:310:8
	ldr	r0, [sp, #8]
	.loc	12 310 13 is_stmt 0             @ rt-thread/components/net/lwip-2.0.2/src/core/tcp_out.c:310:13
	ldrb	r0, [r0, #20]
	.loc	12 310 35                       @ rt-thread/components/net/lwip-2.0.2/src/core/tcp_out.c:310:35
	cmp	r0, #4
	beq	.LBB3_5
	b	.LBB3_1
.LBB3_1:
	.loc	12 311 8 is_stmt 1              @ rt-thread/components/net/lwip-2.0.2/src/core/tcp_out.c:311:8
	ldr	r0, [sp, #8]
	.loc	12 311 13 is_stmt 0             @ rt-thread/components/net/lwip-2.0.2/src/core/tcp_out.c:311:13
	ldrb	r0, [r0, #20]
	.loc	12 311 34                       @ rt-thread/components/net/lwip-2.0.2/src/core/tcp_out.c:311:34
	cmp	r0, #7
	beq	.LBB3_5
	b	.LBB3_2
.LBB3_2:
	.loc	12 312 8 is_stmt 1              @ rt-thread/components/net/lwip-2.0.2/src/core/tcp_out.c:312:8
	ldr	r0, [sp, #8]
	.loc	12 312 13 is_stmt 0             @ rt-thread/components/net/lwip-2.0.2/src/core/tcp_out.c:312:13
	ldrb	r0, [r0, #20]
	.loc	12 312 32                       @ rt-thread/components/net/lwip-2.0.2/src/core/tcp_out.c:312:32
	cmp	r0, #2
	beq	.LBB3_5
	b	.LBB3_3
.LBB3_3:
	.loc	12 313 8 is_stmt 1              @ rt-thread/components/net/lwip-2.0.2/src/core/tcp_out.c:313:8
	ldr	r0, [sp, #8]
	.loc	12 313 13 is_stmt 0             @ rt-thread/components/net/lwip-2.0.2/src/core/tcp_out.c:313:13
	ldrb	r0, [r0, #20]
.Ltmp288:
	.loc	12 310 7 is_stmt 1              @ rt-thread/components/net/lwip-2.0.2/src/core/tcp_out.c:310:7
	cmp	r0, #3
	beq	.LBB3_5
	b	.LBB3_4
.LBB3_4:
	.loc	12 0 7 is_stmt 0                @ rt-thread/components/net/lwip-2.0.2/src/core/tcp_out.c:0:7
	movs	r0, #245
.Ltmp289:
	.loc	12 315 5 is_stmt 1              @ rt-thread/components/net/lwip-2.0.2/src/core/tcp_out.c:315:5
	strb.w	r0, [sp, #15]
	b	.LBB3_31
.Ltmp290:
.LBB3_5:
	.loc	12 316 14                       @ rt-thread/components/net/lwip-2.0.2/src/core/tcp_out.c:316:14
	ldrh.w	r0, [sp, #6]
.Ltmp291:
	.loc	12 316 14 is_stmt 0             @ rt-thread/components/net/lwip-2.0.2/src/core/tcp_out.c:316:14
	cbnz	r0, .LBB3_7
	b	.LBB3_6
.LBB3_6:
	.loc	12 0 14                         @ rt-thread/components/net/lwip-2.0.2/src/core/tcp_out.c:0:14
	movs	r0, #0
.Ltmp292:
	.loc	12 317 5 is_stmt 1              @ rt-thread/components/net/lwip-2.0.2/src/core/tcp_out.c:317:5
	strb.w	r0, [sp, #15]
	b	.LBB3_31
.Ltmp293:
.LBB3_7:
	.loc	12 0 5 is_stmt 0                @ rt-thread/components/net/lwip-2.0.2/src/core/tcp_out.c:0:5
	b	.LBB3_8
.LBB3_8:
.Ltmp294:
	.loc	12 321 7 is_stmt 1              @ rt-thread/components/net/lwip-2.0.2/src/core/tcp_out.c:321:7
	ldrh.w	r0, [sp, #6]
	.loc	12 321 13 is_stmt 0             @ rt-thread/components/net/lwip-2.0.2/src/core/tcp_out.c:321:13
	ldr	r1, [sp, #8]
	.loc	12 321 18                       @ rt-thread/components/net/lwip-2.0.2/src/core/tcp_out.c:321:18
	ldrh.w	r1, [r1, #96]
.Ltmp295:
	.loc	12 321 7                        @ rt-thread/components/net/lwip-2.0.2/src/core/tcp_out.c:321:7
	cmp	r0, r1
	ble	.LBB3_10
	b	.LBB3_9
.LBB3_9:
.Ltmp296:
	.loc	12 324 5 is_stmt 1              @ rt-thread/components/net/lwip-2.0.2/src/core/tcp_out.c:324:5
	ldr	r1, [sp, #8]
	.loc	12 324 16 is_stmt 0             @ rt-thread/components/net/lwip-2.0.2/src/core/tcp_out.c:324:16
	ldrb	r0, [r1, #26]
	orr	r0, r0, #128
	strb	r0, [r1, #26]
	movs	r0, #255
	.loc	12 325 5 is_stmt 1              @ rt-thread/components/net/lwip-2.0.2/src/core/tcp_out.c:325:5
	strb.w	r0, [sp, #15]
	b	.LBB3_31
.Ltmp297:
.LBB3_10:
	.loc	12 333 8                        @ rt-thread/components/net/lwip-2.0.2/src/core/tcp_out.c:333:8
	ldr	r0, [sp, #8]
	.loc	12 333 13 is_stmt 0             @ rt-thread/components/net/lwip-2.0.2/src/core/tcp_out.c:333:13
	ldrh.w	r0, [r0, #98]
	.loc	12 333 47                       @ rt-thread/components/net/lwip-2.0.2/src/core/tcp_out.c:333:47
	cmp	r0, #21
	bgt	.LBB3_12
	b	.LBB3_11
.LBB3_11:
	.loc	12 333 51                       @ rt-thread/components/net/lwip-2.0.2/src/core/tcp_out.c:333:51
	ldr	r0, [sp, #8]
	.loc	12 333 56                       @ rt-thread/components/net/lwip-2.0.2/src/core/tcp_out.c:333:56
	ldrh.w	r0, [r0, #98]
	movw	r1, #65533
.Ltmp298:
	.loc	12 333 7                        @ rt-thread/components/net/lwip-2.0.2/src/core/tcp_out.c:333:7
	cmp	r0, r1
	blo	.LBB3_13
	b	.LBB3_12
.LBB3_12:
.Ltmp299:
	.loc	12 337 5 is_stmt 1              @ rt-thread/components/net/lwip-2.0.2/src/core/tcp_out.c:337:5
	ldr	r1, [sp, #8]
	.loc	12 337 16 is_stmt 0             @ rt-thread/components/net/lwip-2.0.2/src/core/tcp_out.c:337:16
	ldrb	r0, [r1, #26]
	orr	r0, r0, #128
	strb	r0, [r1, #26]
	movs	r0, #255
	.loc	12 338 5 is_stmt 1              @ rt-thread/components/net/lwip-2.0.2/src/core/tcp_out.c:338:5
	strb.w	r0, [sp, #15]
	b	.LBB3_31
.Ltmp300:
.LBB3_13:
	.loc	12 340 7                        @ rt-thread/components/net/lwip-2.0.2/src/core/tcp_out.c:340:7
	ldr	r0, [sp, #8]
	.loc	12 340 12 is_stmt 0             @ rt-thread/components/net/lwip-2.0.2/src/core/tcp_out.c:340:12
	ldrh.w	r0, [r0, #98]
.Ltmp301:
	.loc	12 340 7                        @ rt-thread/components/net/lwip-2.0.2/src/core/tcp_out.c:340:7
	cbz	r0, .LBB3_22
	b	.LBB3_14
.LBB3_14:
.Ltmp302:
	.loc	12 341 5 is_stmt 1              @ rt-thread/components/net/lwip-2.0.2/src/core/tcp_out.c:341:5
	b	.LBB3_15
.LBB3_15:
.Ltmp303:
	.loc	12 341 5 is_stmt 0              @ rt-thread/components/net/lwip-2.0.2/src/core/tcp_out.c:341:5
	ldr	r0, [sp, #8]
	ldr	r0, [r0, #108]
	cbnz	r0, .LBB3_20
	b	.LBB3_16
.LBB3_16:
	ldr	r0, [sp, #8]
	ldr	r0, [r0, #104]
.Ltmp304:
	.loc	12 341 5                        @ rt-thread/components/net/lwip-2.0.2/src/core/tcp_out.c:341:5
	cbnz	r0, .LBB3_20
	b	.LBB3_17
.LBB3_17:
.Ltmp305:
	.loc	12 341 5                        @ rt-thread/components/net/lwip-2.0.2/src/core/tcp_out.c:341:5
	b	.LBB3_18
.LBB3_18:
.Ltmp306:
	.loc	12 341 5                        @ rt-thread/components/net/lwip-2.0.2/src/core/tcp_out.c:341:5
	movw	r0, :lower16:.L.str.21
	movt	r0, :upper16:.L.str.21
	bl	rt_kprintf
	movw	r0, :lower16:.L.str.1
	movt	r0, :upper16:.L.str.1
	mov.w	r1, #342
	bl	sys_arch_assert
	b	.LBB3_19
.Ltmp307:
.LBB3_19:
	.loc	12 341 5                        @ rt-thread/components/net/lwip-2.0.2/src/core/tcp_out.c:341:5
	b	.LBB3_20
.Ltmp308:
.LBB3_20:
	.loc	12 341 5                        @ rt-thread/components/net/lwip-2.0.2/src/core/tcp_out.c:341:5
	b	.LBB3_21
.Ltmp309:
.LBB3_21:
	.loc	12 343 3 is_stmt 1              @ rt-thread/components/net/lwip-2.0.2/src/core/tcp_out.c:343:3
	b	.LBB3_30
.Ltmp310:
.LBB3_22:
	.loc	12 344 5                        @ rt-thread/components/net/lwip-2.0.2/src/core/tcp_out.c:344:5
	b	.LBB3_23
.LBB3_23:
.Ltmp311:
	.loc	12 344 5 is_stmt 0              @ rt-thread/components/net/lwip-2.0.2/src/core/tcp_out.c:344:5
	ldr	r0, [sp, #8]
	ldr	r0, [r0, #108]
	cbnz	r0, .LBB3_25
	b	.LBB3_24
.LBB3_24:
	ldr	r0, [sp, #8]
	ldr	r0, [r0, #104]
.Ltmp312:
	.loc	12 344 5                        @ rt-thread/components/net/lwip-2.0.2/src/core/tcp_out.c:344:5
	cbz	r0, .LBB3_28
	b	.LBB3_25
.LBB3_25:
.Ltmp313:
	.loc	12 344 5                        @ rt-thread/components/net/lwip-2.0.2/src/core/tcp_out.c:344:5
	b	.LBB3_26
.LBB3_26:
.Ltmp314:
	.loc	12 344 5                        @ rt-thread/components/net/lwip-2.0.2/src/core/tcp_out.c:344:5
	movw	r0, :lower16:.L.str.22
	movt	r0, :upper16:.L.str.22
	bl	rt_kprintf
	movw	r0, :lower16:.L.str.1
	movt	r0, :upper16:.L.str.1
	movw	r1, #345
	bl	sys_arch_assert
	b	.LBB3_27
.Ltmp315:
.LBB3_27:
	.loc	12 344 5                        @ rt-thread/components/net/lwip-2.0.2/src/core/tcp_out.c:344:5
	b	.LBB3_28
.Ltmp316:
.LBB3_28:
	.loc	12 344 5                        @ rt-thread/components/net/lwip-2.0.2/src/core/tcp_out.c:344:5
	b	.LBB3_29
.Ltmp317:
.LBB3_29:
	.loc	12 0 5                          @ rt-thread/components/net/lwip-2.0.2/src/core/tcp_out.c:0:5
	b	.LBB3_30
.LBB3_30:
	movs	r0, #0
	.loc	12 347 3 is_stmt 1              @ rt-thread/components/net/lwip-2.0.2/src/core/tcp_out.c:347:3
	strb.w	r0, [sp, #15]
	b	.LBB3_31
.LBB3_31:
	.loc	12 348 1                        @ rt-thread/components/net/lwip-2.0.2/src/core/tcp_out.c:348:1
	ldrsb.w	r0, [sp, #15]
	add	sp, #16
	pop	{r7, pc}
.Ltmp318:
.Lfunc_end3:
	.size	tcp_write_checks, .Lfunc_end3-tcp_write_checks
	.cfi_endproc
	.cantunwind
	.fnend
                                        @ -- End function
	.section	.text.tcp_pbuf_prealloc,"ax",%progbits
	.p2align	3                               @ -- Begin function tcp_pbuf_prealloc
	.type	tcp_pbuf_prealloc,%function
	.code	16                              @ @tcp_pbuf_prealloc
	.thumb_func
tcp_pbuf_prealloc:
.Lfunc_begin4:
	.loc	12 236 0                        @ rt-thread/components/net/lwip-2.0.2/src/core/tcp_out.c:236:0
	.fnstart
	.cfi_startproc
@ %bb.0:
	.save	{r4, lr}
	push	{r4, lr}
	.cfi_def_cfa_offset 8
	.cfi_offset lr, -4
	.cfi_offset r4, -8
	.pad	#32
	sub	sp, #32
	.cfi_def_cfa_offset 40
	mov	r12, r1
	mov	lr, r0
	ldr	r0, [sp, #48]
	ldr	r1, [sp, #44]
	ldr	r4, [sp, #40]
                                        @ kill: def $r4 killed $r2
                                        @ kill: def $r4 killed $r12
                                        @ kill: def $r4 killed $lr
	strb.w	lr, [sp, #27]
	strh.w	r12, [sp, #24]
	strh.w	r2, [sp, #22]
	str	r3, [sp, #16]
	strb.w	r1, [sp, #15]
	strb.w	r0, [sp, #14]
.Ltmp319:
	.loc	12 238 17 prologue_end          @ rt-thread/components/net/lwip-2.0.2/src/core/tcp_out.c:238:17
	ldrh.w	r0, [sp, #24]
	.loc	12 238 9 is_stmt 0              @ rt-thread/components/net/lwip-2.0.2/src/core/tcp_out.c:238:9
	strh.w	r0, [sp, #6]
.Ltmp320:
	.loc	12 247 7 is_stmt 1              @ rt-thread/components/net/lwip-2.0.2/src/core/tcp_out.c:247:7
	ldrh.w	r0, [sp, #24]
	.loc	12 247 16 is_stmt 0             @ rt-thread/components/net/lwip-2.0.2/src/core/tcp_out.c:247:16
	ldrh.w	r1, [sp, #22]
.Ltmp321:
	.loc	12 247 7                        @ rt-thread/components/net/lwip-2.0.2/src/core/tcp_out.c:247:7
	cmp	r0, r1
	bge	.LBB4_11
	b	.LBB4_1
.LBB4_1:
.Ltmp322:
	.loc	12 259 10 is_stmt 1             @ rt-thread/components/net/lwip-2.0.2/src/core/tcp_out.c:259:10
	ldrb.w	r0, [sp, #15]
	.loc	12 259 42 is_stmt 0             @ rt-thread/components/net/lwip-2.0.2/src/core/tcp_out.c:259:42
	lsls	r0, r0, #30
	cmp	r0, #0
	bmi	.LBB4_6
	b	.LBB4_2
.LBB4_2:
	.loc	12 260 12 is_stmt 1             @ rt-thread/components/net/lwip-2.0.2/src/core/tcp_out.c:260:12
	ldr	r0, [sp, #40]
	ldrb	r0, [r0, #26]
	.loc	12 260 37 is_stmt 0             @ rt-thread/components/net/lwip-2.0.2/src/core/tcp_out.c:260:37
	lsls	r0, r0, #25
	cmp	r0, #0
	bmi	.LBB4_10
	b	.LBB4_3
.LBB4_3:
	.loc	12 261 12 is_stmt 1             @ rt-thread/components/net/lwip-2.0.2/src/core/tcp_out.c:261:12
	ldrb.w	r0, [sp, #14]
	.loc	12 261 22 is_stmt 0             @ rt-thread/components/net/lwip-2.0.2/src/core/tcp_out.c:261:22
	cbz	r0, .LBB4_6
	b	.LBB4_4
.LBB4_4:
	.loc	12 262 11 is_stmt 1             @ rt-thread/components/net/lwip-2.0.2/src/core/tcp_out.c:262:11
	ldr	r0, [sp, #40]
	.loc	12 262 16 is_stmt 0             @ rt-thread/components/net/lwip-2.0.2/src/core/tcp_out.c:262:16
	ldr	r0, [r0, #104]
	.loc	12 262 31                       @ rt-thread/components/net/lwip-2.0.2/src/core/tcp_out.c:262:31
	cbnz	r0, .LBB4_6
	b	.LBB4_5
.LBB4_5:
	.loc	12 263 11 is_stmt 1             @ rt-thread/components/net/lwip-2.0.2/src/core/tcp_out.c:263:11
	ldr	r0, [sp, #40]
	.loc	12 263 16 is_stmt 0             @ rt-thread/components/net/lwip-2.0.2/src/core/tcp_out.c:263:16
	ldr	r0, [r0, #108]
.Ltmp323:
	.loc	12 259 9 is_stmt 1              @ rt-thread/components/net/lwip-2.0.2/src/core/tcp_out.c:259:9
	cbz	r0, .LBB4_10
	b	.LBB4_6
.LBB4_6:
.Ltmp324:
	.loc	12 264 15                       @ rt-thread/components/net/lwip-2.0.2/src/core/tcp_out.c:264:15
	ldrh.w	r0, [sp, #22]
	ldrh.w	r1, [sp, #24]
	addw	r1, r1, #1463
	bic	r1, r1, #3
	cmp	r0, r1
	bhs	.LBB4_8
	b	.LBB4_7
.LBB4_7:
	ldrh.w	r0, [sp, #22]
	str	r0, [sp]                        @ 4-byte Spill
	b	.LBB4_9
.LBB4_8:
	ldrh.w	r0, [sp, #24]
	addw	r0, r0, #1463
	bic	r0, r0, #3
	str	r0, [sp]                        @ 4-byte Spill
	b	.LBB4_9
.LBB4_9:
	ldr	r0, [sp]                        @ 4-byte Reload
	.loc	12 264 13 is_stmt 0             @ rt-thread/components/net/lwip-2.0.2/src/core/tcp_out.c:264:13
	strh.w	r0, [sp, #6]
	.loc	12 265 5 is_stmt 1              @ rt-thread/components/net/lwip-2.0.2/src/core/tcp_out.c:265:5
	b	.LBB4_10
.Ltmp325:
.LBB4_10:
	.loc	12 266 3                        @ rt-thread/components/net/lwip-2.0.2/src/core/tcp_out.c:266:3
	b	.LBB4_11
.Ltmp326:
.LBB4_11:
	.loc	12 268 18                       @ rt-thread/components/net/lwip-2.0.2/src/core/tcp_out.c:268:18
	ldrb.w	r0, [sp, #27]
	.loc	12 268 25 is_stmt 0             @ rt-thread/components/net/lwip-2.0.2/src/core/tcp_out.c:268:25
	ldrh.w	r1, [sp, #6]
	movs	r2, #0
	.loc	12 268 7                        @ rt-thread/components/net/lwip-2.0.2/src/core/tcp_out.c:268:7
	bl	pbuf_alloc
	.loc	12 268 5                        @ rt-thread/components/net/lwip-2.0.2/src/core/tcp_out.c:268:5
	str	r0, [sp, #8]
.Ltmp327:
	.loc	12 269 7 is_stmt 1              @ rt-thread/components/net/lwip-2.0.2/src/core/tcp_out.c:269:7
	ldr	r0, [sp, #8]
.Ltmp328:
	.loc	12 269 7 is_stmt 0              @ rt-thread/components/net/lwip-2.0.2/src/core/tcp_out.c:269:7
	cbnz	r0, .LBB4_13
	b	.LBB4_12
.LBB4_12:
	.loc	12 0 7                          @ rt-thread/components/net/lwip-2.0.2/src/core/tcp_out.c:0:7
	movs	r0, #0
.Ltmp329:
	.loc	12 270 5 is_stmt 1              @ rt-thread/components/net/lwip-2.0.2/src/core/tcp_out.c:270:5
	str	r0, [sp, #28]
	b	.LBB4_20
.Ltmp330:
.LBB4_13:
	.loc	12 272 3                        @ rt-thread/components/net/lwip-2.0.2/src/core/tcp_out.c:272:3
	b	.LBB4_14
.LBB4_14:
.Ltmp331:
	.loc	12 272 3 is_stmt 0              @ rt-thread/components/net/lwip-2.0.2/src/core/tcp_out.c:272:3
	ldr	r0, [sp, #8]
	ldr	r0, [r0]
.Ltmp332:
	.loc	12 272 3                        @ rt-thread/components/net/lwip-2.0.2/src/core/tcp_out.c:272:3
	cbz	r0, .LBB4_18
	b	.LBB4_15
.LBB4_15:
.Ltmp333:
	.loc	12 272 3                        @ rt-thread/components/net/lwip-2.0.2/src/core/tcp_out.c:272:3
	b	.LBB4_16
.LBB4_16:
.Ltmp334:
	.loc	12 272 3                        @ rt-thread/components/net/lwip-2.0.2/src/core/tcp_out.c:272:3
	movw	r0, :lower16:.L.str.23
	movt	r0, :upper16:.L.str.23
	bl	rt_kprintf
	movw	r0, :lower16:.L.str.1
	movt	r0, :upper16:.L.str.1
	mov.w	r1, #272
	bl	sys_arch_assert
	b	.LBB4_17
.Ltmp335:
.LBB4_17:
	.loc	12 272 3                        @ rt-thread/components/net/lwip-2.0.2/src/core/tcp_out.c:272:3
	b	.LBB4_18
.Ltmp336:
.LBB4_18:
	.loc	12 272 3                        @ rt-thread/components/net/lwip-2.0.2/src/core/tcp_out.c:272:3
	b	.LBB4_19
.Ltmp337:
.LBB4_19:
	.loc	12 273 15 is_stmt 1             @ rt-thread/components/net/lwip-2.0.2/src/core/tcp_out.c:273:15
	ldr	r0, [sp, #8]
	ldrh	r0, [r0, #10]
	.loc	12 273 24 is_stmt 0             @ rt-thread/components/net/lwip-2.0.2/src/core/tcp_out.c:273:24
	ldrh.w	r1, [sp, #24]
	.loc	12 273 22                       @ rt-thread/components/net/lwip-2.0.2/src/core/tcp_out.c:273:22
	subs	r0, r0, r1
	.loc	12 273 4                        @ rt-thread/components/net/lwip-2.0.2/src/core/tcp_out.c:273:4
	ldr	r1, [sp, #16]
	.loc	12 273 13                       @ rt-thread/components/net/lwip-2.0.2/src/core/tcp_out.c:273:13
	strh	r0, [r1]
	.loc	12 275 25 is_stmt 1             @ rt-thread/components/net/lwip-2.0.2/src/core/tcp_out.c:275:25
	ldrh.w	r0, [sp, #24]
	.loc	12 275 12 is_stmt 0             @ rt-thread/components/net/lwip-2.0.2/src/core/tcp_out.c:275:12
	ldr	r1, [sp, #8]
	.loc	12 275 23                       @ rt-thread/components/net/lwip-2.0.2/src/core/tcp_out.c:275:23
	strh	r0, [r1, #8]
	.loc	12 275 3                        @ rt-thread/components/net/lwip-2.0.2/src/core/tcp_out.c:275:3
	ldr	r1, [sp, #8]
	.loc	12 275 10                       @ rt-thread/components/net/lwip-2.0.2/src/core/tcp_out.c:275:10
	strh	r0, [r1, #10]
	.loc	12 276 10 is_stmt 1             @ rt-thread/components/net/lwip-2.0.2/src/core/tcp_out.c:276:10
	ldr	r0, [sp, #8]
	.loc	12 276 3 is_stmt 0              @ rt-thread/components/net/lwip-2.0.2/src/core/tcp_out.c:276:3
	str	r0, [sp, #28]
	b	.LBB4_20
.LBB4_20:
	.loc	12 277 1 is_stmt 1              @ rt-thread/components/net/lwip-2.0.2/src/core/tcp_out.c:277:1
	ldr	r0, [sp, #28]
	add	sp, #32
	pop	{r4, pc}
.Ltmp338:
.Lfunc_end4:
	.size	tcp_pbuf_prealloc, .Lfunc_end4-tcp_pbuf_prealloc
	.cfi_endproc
	.cantunwind
	.fnend
                                        @ -- End function
	.section	.text.tcp_create_segment,"ax",%progbits
	.p2align	3                               @ -- Begin function tcp_create_segment
	.type	tcp_create_segment,%function
	.code	16                              @ @tcp_create_segment
	.thumb_func
tcp_create_segment:
.Lfunc_begin5:
	.loc	12 174 0                        @ rt-thread/components/net/lwip-2.0.2/src/core/tcp_out.c:174:0
	.fnstart
	.cfi_startproc
@ %bb.0:
	.save	{r7, lr}
	push	{r7, lr}
	.cfi_def_cfa_offset 8
	.cfi_offset lr, -4
	.cfi_offset r7, -8
	.pad	#32
	sub	sp, #32
	.cfi_def_cfa_offset 40
	mov	r12, r0
	ldr	r0, [sp, #40]
                                        @ kill: def $lr killed $r2
	str.w	r12, [sp, #24]
	str	r1, [sp, #20]
	strb.w	r2, [sp, #19]
	str	r3, [sp, #12]
	strb.w	r0, [sp, #11]
.Ltmp339:
	.loc	12 176 17 prologue_end          @ rt-thread/components/net/lwip-2.0.2/src/core/tcp_out.c:176:17
	ldrb.w	r0, [sp, #11]
	and	r0, r0, #1
	lsls	r0, r0, #2
	.loc	12 176 8 is_stmt 0              @ rt-thread/components/net/lwip-2.0.2/src/core/tcp_out.c:176:8
	strb.w	r0, [sp, #3]
.Ltmp340:
	.loc	12 178 32 is_stmt 1             @ rt-thread/components/net/lwip-2.0.2/src/core/tcp_out.c:178:32
	movw	r1, :lower16:.L.str.1
	movt	r1, :upper16:.L.str.1
	movs	r0, #4
	movs	r2, #178
	bl	memp_malloc_fn
	.loc	12 178 12 is_stmt 0             @ rt-thread/components/net/lwip-2.0.2/src/core/tcp_out.c:178:12
	str	r0, [sp, #4]
.Ltmp341:
	.loc	12 178 7                        @ rt-thread/components/net/lwip-2.0.2/src/core/tcp_out.c:178:7
	cbnz	r0, .LBB5_2
	b	.LBB5_1
.LBB5_1:
.Ltmp342:
	.loc	12 180 15 is_stmt 1             @ rt-thread/components/net/lwip-2.0.2/src/core/tcp_out.c:180:15
	ldr	r0, [sp, #20]
	.loc	12 180 5 is_stmt 0              @ rt-thread/components/net/lwip-2.0.2/src/core/tcp_out.c:180:5
	bl	pbuf_free
	movs	r0, #0
	.loc	12 181 5 is_stmt 1              @ rt-thread/components/net/lwip-2.0.2/src/core/tcp_out.c:181:5
	str	r0, [sp, #28]
	b	.LBB5_11
.Ltmp343:
.LBB5_2:
	.loc	12 183 16                       @ rt-thread/components/net/lwip-2.0.2/src/core/tcp_out.c:183:16
	ldrb.w	r0, [sp, #11]
	.loc	12 183 3 is_stmt 0              @ rt-thread/components/net/lwip-2.0.2/src/core/tcp_out.c:183:3
	ldr	r1, [sp, #4]
	.loc	12 183 14                       @ rt-thread/components/net/lwip-2.0.2/src/core/tcp_out.c:183:14
	strb	r0, [r1, #10]
	.loc	12 184 3 is_stmt 1              @ rt-thread/components/net/lwip-2.0.2/src/core/tcp_out.c:184:3
	ldr	r1, [sp, #4]
	movs	r0, #0
	.loc	12 184 13 is_stmt 0             @ rt-thread/components/net/lwip-2.0.2/src/core/tcp_out.c:184:13
	str	r0, [r1]
	.loc	12 185 12 is_stmt 1             @ rt-thread/components/net/lwip-2.0.2/src/core/tcp_out.c:185:12
	ldr	r0, [sp, #20]
	.loc	12 185 3 is_stmt 0              @ rt-thread/components/net/lwip-2.0.2/src/core/tcp_out.c:185:3
	ldr	r1, [sp, #4]
	.loc	12 185 10                       @ rt-thread/components/net/lwip-2.0.2/src/core/tcp_out.c:185:10
	str	r0, [r1, #4]
	.loc	12 186 3 is_stmt 1              @ rt-thread/components/net/lwip-2.0.2/src/core/tcp_out.c:186:3
	b	.LBB5_3
.LBB5_3:
.Ltmp344:
	.loc	12 186 3 is_stmt 0              @ rt-thread/components/net/lwip-2.0.2/src/core/tcp_out.c:186:3
	ldr	r0, [sp, #20]
	ldrh	r0, [r0, #8]
	ldrb.w	r1, [sp, #3]
.Ltmp345:
	.loc	12 186 3                        @ rt-thread/components/net/lwip-2.0.2/src/core/tcp_out.c:186:3
	cmp	r0, r1
	bge	.LBB5_7
	b	.LBB5_4
.LBB5_4:
.Ltmp346:
	.loc	12 186 3                        @ rt-thread/components/net/lwip-2.0.2/src/core/tcp_out.c:186:3
	b	.LBB5_5
.LBB5_5:
.Ltmp347:
	.loc	12 186 3                        @ rt-thread/components/net/lwip-2.0.2/src/core/tcp_out.c:186:3
	movw	r0, :lower16:.L.str.24
	movt	r0, :upper16:.L.str.24
	bl	rt_kprintf
	movw	r0, :lower16:.L.str.1
	movt	r0, :upper16:.L.str.1
	movs	r1, #186
	bl	sys_arch_assert
	b	.LBB5_6
.Ltmp348:
.LBB5_6:
	.loc	12 186 3                        @ rt-thread/components/net/lwip-2.0.2/src/core/tcp_out.c:186:3
	b	.LBB5_7
.Ltmp349:
.LBB5_7:
	.loc	12 186 3                        @ rt-thread/components/net/lwip-2.0.2/src/core/tcp_out.c:186:3
	b	.LBB5_8
.Ltmp350:
.LBB5_8:
	.loc	12 187 14 is_stmt 1             @ rt-thread/components/net/lwip-2.0.2/src/core/tcp_out.c:187:14
	ldr	r0, [sp, #20]
	ldrh	r0, [r0, #8]
	.loc	12 187 27 is_stmt 0             @ rt-thread/components/net/lwip-2.0.2/src/core/tcp_out.c:187:27
	ldrb.w	r1, [sp, #3]
	.loc	12 187 25                       @ rt-thread/components/net/lwip-2.0.2/src/core/tcp_out.c:187:25
	subs	r0, r0, r1
	.loc	12 187 3                        @ rt-thread/components/net/lwip-2.0.2/src/core/tcp_out.c:187:3
	ldr	r1, [sp, #4]
	.loc	12 187 12                       @ rt-thread/components/net/lwip-2.0.2/src/core/tcp_out.c:187:12
	strh	r0, [r1, #8]
.Ltmp351:
	.loc	12 200 19 is_stmt 1             @ rt-thread/components/net/lwip-2.0.2/src/core/tcp_out.c:200:19
	ldr	r0, [sp, #20]
	movs	r1, #20
	.loc	12 200 7 is_stmt 0              @ rt-thread/components/net/lwip-2.0.2/src/core/tcp_out.c:200:7
	bl	pbuf_header
.Ltmp352:
	.loc	12 200 7                        @ rt-thread/components/net/lwip-2.0.2/src/core/tcp_out.c:200:7
	cbz	r0, .LBB5_10
	b	.LBB5_9
.LBB5_9:
.Ltmp353:
	.loc	12 203 18 is_stmt 1             @ rt-thread/components/net/lwip-2.0.2/src/core/tcp_out.c:203:18
	ldr	r0, [sp, #4]
	.loc	12 203 5 is_stmt 0              @ rt-thread/components/net/lwip-2.0.2/src/core/tcp_out.c:203:5
	bl	tcp_seg_free
	movs	r0, #0
	.loc	12 204 5 is_stmt 1              @ rt-thread/components/net/lwip-2.0.2/src/core/tcp_out.c:204:5
	str	r0, [sp, #28]
	b	.LBB5_11
.Ltmp354:
.LBB5_10:
	.loc	12 206 35                       @ rt-thread/components/net/lwip-2.0.2/src/core/tcp_out.c:206:35
	ldr	r1, [sp, #4]
	.loc	12 206 40 is_stmt 0             @ rt-thread/components/net/lwip-2.0.2/src/core/tcp_out.c:206:40
	ldr	r0, [r1, #4]
	.loc	12 206 43                       @ rt-thread/components/net/lwip-2.0.2/src/core/tcp_out.c:206:43
	ldr	r0, [r0, #4]
	.loc	12 206 15                       @ rt-thread/components/net/lwip-2.0.2/src/core/tcp_out.c:206:15
	str	r0, [r1, #12]
	.loc	12 207 33 is_stmt 1             @ rt-thread/components/net/lwip-2.0.2/src/core/tcp_out.c:207:33
	ldr	r0, [sp, #24]
	.loc	12 207 38 is_stmt 0             @ rt-thread/components/net/lwip-2.0.2/src/core/tcp_out.c:207:38
	ldrh	r0, [r0, #22]
	.loc	12 207 22                       @ rt-thread/components/net/lwip-2.0.2/src/core/tcp_out.c:207:22
	bl	lwip_htons
	.loc	12 207 3                        @ rt-thread/components/net/lwip-2.0.2/src/core/tcp_out.c:207:3
	ldr	r1, [sp, #4]
	.loc	12 207 8                        @ rt-thread/components/net/lwip-2.0.2/src/core/tcp_out.c:207:8
	ldr	r1, [r1, #12]
	.loc	12 207 20                       @ rt-thread/components/net/lwip-2.0.2/src/core/tcp_out.c:207:20
	strh	r0, [r1]
	.loc	12 208 34 is_stmt 1             @ rt-thread/components/net/lwip-2.0.2/src/core/tcp_out.c:208:34
	ldr	r0, [sp, #24]
	.loc	12 208 39 is_stmt 0             @ rt-thread/components/net/lwip-2.0.2/src/core/tcp_out.c:208:39
	ldrh	r0, [r0, #24]
	.loc	12 208 23                       @ rt-thread/components/net/lwip-2.0.2/src/core/tcp_out.c:208:23
	bl	lwip_htons
	.loc	12 208 3                        @ rt-thread/components/net/lwip-2.0.2/src/core/tcp_out.c:208:3
	ldr	r1, [sp, #4]
	.loc	12 208 8                        @ rt-thread/components/net/lwip-2.0.2/src/core/tcp_out.c:208:8
	ldr	r1, [r1, #12]
	.loc	12 208 21                       @ rt-thread/components/net/lwip-2.0.2/src/core/tcp_out.c:208:21
	strh	r0, [r1, #2]
	.loc	12 209 35 is_stmt 1             @ rt-thread/components/net/lwip-2.0.2/src/core/tcp_out.c:209:35
	ldr	r0, [sp, #12]
	.loc	12 209 24 is_stmt 0             @ rt-thread/components/net/lwip-2.0.2/src/core/tcp_out.c:209:24
	bl	lwip_htonl
	.loc	12 209 3                        @ rt-thread/components/net/lwip-2.0.2/src/core/tcp_out.c:209:3
	ldr	r1, [sp, #4]
	.loc	12 209 8                        @ rt-thread/components/net/lwip-2.0.2/src/core/tcp_out.c:209:8
	ldr	r1, [r1, #12]
	.loc	12 209 22                       @ rt-thread/components/net/lwip-2.0.2/src/core/tcp_out.c:209:22
	str	r0, [r1, #4]
	.loc	12 211 3 is_stmt 1              @ rt-thread/components/net/lwip-2.0.2/src/core/tcp_out.c:211:3
	ldrb.w	r1, [sp, #3]
	movs	r0, #5
	add.w	r1, r0, r1, lsr #2
	ldrb.w	r0, [sp, #19]
	bfi	r0, r1, #12, #4
	bl	lwip_htons
	ldr	r1, [sp, #4]
	ldr	r1, [r1, #12]
	strh	r0, [r1, #12]
	.loc	12 213 3                        @ rt-thread/components/net/lwip-2.0.2/src/core/tcp_out.c:213:3
	ldr	r0, [sp, #4]
	.loc	12 213 8 is_stmt 0              @ rt-thread/components/net/lwip-2.0.2/src/core/tcp_out.c:213:8
	ldr	r1, [r0, #12]
	movs	r0, #0
	.loc	12 213 21                       @ rt-thread/components/net/lwip-2.0.2/src/core/tcp_out.c:213:21
	strh	r0, [r1, #18]
	.loc	12 214 10 is_stmt 1             @ rt-thread/components/net/lwip-2.0.2/src/core/tcp_out.c:214:10
	ldr	r0, [sp, #4]
	.loc	12 214 3 is_stmt 0              @ rt-thread/components/net/lwip-2.0.2/src/core/tcp_out.c:214:3
	str	r0, [sp, #28]
	b	.LBB5_11
.LBB5_11:
	.loc	12 215 1 is_stmt 1              @ rt-thread/components/net/lwip-2.0.2/src/core/tcp_out.c:215:1
	ldr	r0, [sp, #28]
	add	sp, #32
	pop	{r7, pc}
.Ltmp355:
.Lfunc_end5:
	.size	tcp_create_segment, .Lfunc_end5-tcp_create_segment
	.cfi_endproc
	.cantunwind
	.fnend
                                        @ -- End function
	.section	.text.tcp_send_empty_ack,"ax",%progbits
	.hidden	tcp_send_empty_ack              @ -- Begin function tcp_send_empty_ack
	.globl	tcp_send_empty_ack
	.p2align	3
	.type	tcp_send_empty_ack,%function
	.code	16                              @ @tcp_send_empty_ack
	.thumb_func
tcp_send_empty_ack:
.Lfunc_begin6:
	.loc	12 919 0                        @ rt-thread/components/net/lwip-2.0.2/src/core/tcp_out.c:919:0
	.fnstart
	.cfi_startproc
@ %bb.0:
	.save	{r4, r5, r7, lr}
	push	{r4, r5, r7, lr}
	.cfi_def_cfa_offset 16
	.cfi_offset lr, -4
	.cfi_offset r7, -8
	.cfi_offset r5, -12
	.cfi_offset r4, -16
	.pad	#56
	sub	sp, #56
	.cfi_def_cfa_offset 72
	str	r0, [sp, #48]
	movs	r0, #0
.Ltmp356:
	.loc	12 922 8 prologue_end           @ rt-thread/components/net/lwip-2.0.2/src/core/tcp_out.c:922:8
	str	r0, [sp, #20]                   @ 4-byte Spill
	strb.w	r0, [sp, #39]
	.loc	12 934 31                       @ rt-thread/components/net/lwip-2.0.2/src/core/tcp_out.c:934:31
	ldr	r0, [sp, #48]
	.loc	12 934 36 is_stmt 0             @ rt-thread/components/net/lwip-2.0.2/src/core/tcp_out.c:934:36
	str	r0, [sp, #24]                   @ 4-byte Spill
	ldrb.w	r1, [sp, #39]
	.loc	12 934 63                       @ rt-thread/components/net/lwip-2.0.2/src/core/tcp_out.c:934:63
	str	r1, [sp, #16]                   @ 4-byte Spill
	ldr	r0, [r0, #76]
	.loc	12 934 47                       @ rt-thread/components/net/lwip-2.0.2/src/core/tcp_out.c:934:47
	bl	lwip_htonl
	ldr	r1, [sp, #16]                   @ 4-byte Reload
	ldr	r2, [sp, #20]                   @ 4-byte Reload
	mov	r3, r0
	.loc	12 934 7                        @ rt-thread/components/net/lwip-2.0.2/src/core/tcp_out.c:934:7
	ldr	r0, [sp, #24]                   @ 4-byte Reload
	bl	tcp_output_alloc_header
	.loc	12 934 5                        @ rt-thread/components/net/lwip-2.0.2/src/core/tcp_out.c:934:5
	str	r0, [sp, #40]
.Ltmp357:
	.loc	12 935 7 is_stmt 1              @ rt-thread/components/net/lwip-2.0.2/src/core/tcp_out.c:935:7
	ldr	r0, [sp, #40]
.Ltmp358:
	.loc	12 935 7 is_stmt 0              @ rt-thread/components/net/lwip-2.0.2/src/core/tcp_out.c:935:7
	cbnz	r0, .LBB6_2
	b	.LBB6_1
.LBB6_1:
.Ltmp359:
	.loc	12 937 5 is_stmt 1              @ rt-thread/components/net/lwip-2.0.2/src/core/tcp_out.c:937:5
	ldr	r1, [sp, #48]
	.loc	12 937 16 is_stmt 0             @ rt-thread/components/net/lwip-2.0.2/src/core/tcp_out.c:937:16
	ldrb	r0, [r1, #26]
	orr	r0, r0, #3
	strb	r0, [r1, #26]
	movs	r0, #254
	.loc	12 939 5 is_stmt 1              @ rt-thread/components/net/lwip-2.0.2/src/core/tcp_out.c:939:5
	strb.w	r0, [sp, #55]
	b	.LBB6_9
.Ltmp360:
.LBB6_2:
	.loc	12 942 30                       @ rt-thread/components/net/lwip-2.0.2/src/core/tcp_out.c:942:30
	ldr	r0, [sp, #40]
	.loc	12 942 33 is_stmt 0             @ rt-thread/components/net/lwip-2.0.2/src/core/tcp_out.c:942:33
	ldr	r0, [r0, #4]
	.loc	12 942 10                       @ rt-thread/components/net/lwip-2.0.2/src/core/tcp_out.c:942:10
	str	r0, [sp, #28]
	.loc	12 956 11 is_stmt 1             @ rt-thread/components/net/lwip-2.0.2/src/core/tcp_out.c:956:11
	ldr	r0, [sp, #48]
	adds	r0, #4
	bl	ip4_route
	.loc	12 956 9 is_stmt 0              @ rt-thread/components/net/lwip-2.0.2/src/core/tcp_out.c:956:9
	str	r0, [sp, #32]
.Ltmp361:
	.loc	12 957 7 is_stmt 1              @ rt-thread/components/net/lwip-2.0.2/src/core/tcp_out.c:957:7
	ldr	r0, [sp, #32]
.Ltmp362:
	.loc	12 957 7 is_stmt 0              @ rt-thread/components/net/lwip-2.0.2/src/core/tcp_out.c:957:7
	cbnz	r0, .LBB6_4
	b	.LBB6_3
.LBB6_3:
	.loc	12 0 7                          @ rt-thread/components/net/lwip-2.0.2/src/core/tcp_out.c:0:7
	movs	r0, #252
.Ltmp363:
	.loc	12 958 9 is_stmt 1              @ rt-thread/components/net/lwip-2.0.2/src/core/tcp_out.c:958:9
	strb.w	r0, [sp, #47]
	.loc	12 959 3                        @ rt-thread/components/net/lwip-2.0.2/src/core/tcp_out.c:959:3
	b	.LBB6_5
.Ltmp364:
.LBB6_4:
	.loc	12 962 41                       @ rt-thread/components/net/lwip-2.0.2/src/core/tcp_out.c:962:41
	ldr	r0, [sp, #40]
	.loc	12 962 61 is_stmt 0             @ rt-thread/components/net/lwip-2.0.2/src/core/tcp_out.c:962:61
	ldrh	r2, [r0, #8]
	.loc	12 963 10 is_stmt 1             @ rt-thread/components/net/lwip-2.0.2/src/core/tcp_out.c:963:10
	ldr	r3, [sp, #48]
	.loc	12 963 31 is_stmt 0             @ rt-thread/components/net/lwip-2.0.2/src/core/tcp_out.c:963:31
	adds	r1, r3, #4
	.loc	12 962 24 is_stmt 1             @ rt-thread/components/net/lwip-2.0.2/src/core/tcp_out.c:962:24
	mov	r12, sp
	str.w	r1, [r12]
	movs	r4, #6
	mov	r1, r4
	bl	ip_chksum_pseudo
	.loc	12 962 7 is_stmt 0              @ rt-thread/components/net/lwip-2.0.2/src/core/tcp_out.c:962:7
	ldr	r1, [sp, #28]
	.loc	12 962 22                       @ rt-thread/components/net/lwip-2.0.2/src/core/tcp_out.c:962:22
	strh	r0, [r1, #16]
.Ltmp365:
	.loc	12 967 11 is_stmt 1             @ rt-thread/components/net/lwip-2.0.2/src/core/tcp_out.c:967:11
	ldr	r0, [sp, #40]
	ldr	r1, [sp, #48]
	adds	r2, r1, #4
	ldrb.w	r12, [r1, #9]
	ldrb	r3, [r1, #10]
	ldr	r5, [sp, #32]
	mov	lr, sp
	str.w	r5, [lr, #8]
	str.w	r4, [lr, #4]
	str.w	r12, [lr]
	bl	ip4_output_if
	.loc	12 967 9 is_stmt 0              @ rt-thread/components/net/lwip-2.0.2/src/core/tcp_out.c:967:9
	strb.w	r0, [sp, #47]
	b	.LBB6_5
.Ltmp366:
.LBB6_5:
	.loc	12 971 13 is_stmt 1             @ rt-thread/components/net/lwip-2.0.2/src/core/tcp_out.c:971:13
	ldr	r0, [sp, #40]
	.loc	12 971 3 is_stmt 0              @ rt-thread/components/net/lwip-2.0.2/src/core/tcp_out.c:971:3
	bl	pbuf_free
.Ltmp367:
	.loc	12 973 7 is_stmt 1              @ rt-thread/components/net/lwip-2.0.2/src/core/tcp_out.c:973:7
	ldrsb.w	r0, [sp, #47]
.Ltmp368:
	.loc	12 973 7 is_stmt 0              @ rt-thread/components/net/lwip-2.0.2/src/core/tcp_out.c:973:7
	cbz	r0, .LBB6_7
	b	.LBB6_6
.LBB6_6:
.Ltmp369:
	.loc	12 975 5 is_stmt 1              @ rt-thread/components/net/lwip-2.0.2/src/core/tcp_out.c:975:5
	ldr	r1, [sp, #48]
	.loc	12 975 16 is_stmt 0             @ rt-thread/components/net/lwip-2.0.2/src/core/tcp_out.c:975:16
	ldrb	r0, [r1, #26]
	orr	r0, r0, #3
	strb	r0, [r1, #26]
	.loc	12 976 3 is_stmt 1              @ rt-thread/components/net/lwip-2.0.2/src/core/tcp_out.c:976:3
	b	.LBB6_8
.Ltmp370:
.LBB6_7:
	.loc	12 978 5                        @ rt-thread/components/net/lwip-2.0.2/src/core/tcp_out.c:978:5
	ldr	r1, [sp, #48]
	.loc	12 978 16 is_stmt 0             @ rt-thread/components/net/lwip-2.0.2/src/core/tcp_out.c:978:16
	ldrb	r0, [r1, #26]
	and	r0, r0, #252
	strb	r0, [r1, #26]
	b	.LBB6_8
.Ltmp371:
.LBB6_8:
	.loc	12 981 10 is_stmt 1             @ rt-thread/components/net/lwip-2.0.2/src/core/tcp_out.c:981:10
	ldrb.w	r0, [sp, #47]
	.loc	12 981 3 is_stmt 0              @ rt-thread/components/net/lwip-2.0.2/src/core/tcp_out.c:981:3
	strb.w	r0, [sp, #55]
	b	.LBB6_9
.LBB6_9:
	.loc	12 982 1 is_stmt 1              @ rt-thread/components/net/lwip-2.0.2/src/core/tcp_out.c:982:1
	ldrsb.w	r0, [sp, #55]
	add	sp, #56
	pop	{r4, r5, r7, pc}
.Ltmp372:
.Lfunc_end6:
	.size	tcp_send_empty_ack, .Lfunc_end6-tcp_send_empty_ack
	.cfi_endproc
	.cantunwind
	.fnend
                                        @ -- End function
	.section	.text.tcp_output_alloc_header,"ax",%progbits
	.p2align	3                               @ -- Begin function tcp_output_alloc_header
	.type	tcp_output_alloc_header,%function
	.code	16                              @ @tcp_output_alloc_header
	.thumb_func
tcp_output_alloc_header:
.Lfunc_begin7:
	.loc	12 110 0                        @ rt-thread/components/net/lwip-2.0.2/src/core/tcp_out.c:110:0
	.fnstart
	.cfi_startproc
@ %bb.0:
	.save	{r7, lr}
	push	{r7, lr}
	.cfi_def_cfa_offset 8
	.cfi_offset lr, -4
	.cfi_offset r7, -8
	.pad	#24
	sub	sp, #24
	.cfi_def_cfa_offset 32
                                        @ kill: def $r12 killed $r2
                                        @ kill: def $r12 killed $r1
	str	r0, [sp, #20]
	strh.w	r1, [sp, #18]
	strh.w	r2, [sp, #16]
	str	r3, [sp, #12]
.Ltmp373:
	.loc	12 112 51 prologue_end          @ rt-thread/components/net/lwip-2.0.2/src/core/tcp_out.c:112:51
	ldrh.w	r0, [sp, #18]
	.loc	12 112 60 is_stmt 0             @ rt-thread/components/net/lwip-2.0.2/src/core/tcp_out.c:112:60
	ldrh.w	r1, [sp, #16]
	.loc	12 112 49                       @ rt-thread/components/net/lwip-2.0.2/src/core/tcp_out.c:112:49
	add	r0, r1
	.loc	12 112 58                       @ rt-thread/components/net/lwip-2.0.2/src/core/tcp_out.c:112:58
	adds	r0, #20
	.loc	12 112 20                       @ rt-thread/components/net/lwip-2.0.2/src/core/tcp_out.c:112:20
	uxth	r1, r0
	movs	r0, #1
	movs	r2, #0
	bl	pbuf_alloc
	.loc	12 112 16                       @ rt-thread/components/net/lwip-2.0.2/src/core/tcp_out.c:112:16
	str	r0, [sp, #4]
.Ltmp374:
	.loc	12 113 7 is_stmt 1              @ rt-thread/components/net/lwip-2.0.2/src/core/tcp_out.c:113:7
	ldr	r0, [sp, #4]
.Ltmp375:
	.loc	12 113 7 is_stmt 0              @ rt-thread/components/net/lwip-2.0.2/src/core/tcp_out.c:113:7
	cmp	r0, #0
	beq	.LBB7_8
	b	.LBB7_1
.LBB7_1:
.Ltmp376:
	.loc	12 114 5 is_stmt 1              @ rt-thread/components/net/lwip-2.0.2/src/core/tcp_out.c:114:5
	b	.LBB7_2
.LBB7_2:
.Ltmp377:
	.loc	12 114 5 is_stmt 0              @ rt-thread/components/net/lwip-2.0.2/src/core/tcp_out.c:114:5
	ldr	r0, [sp, #4]
	ldrh	r0, [r0, #10]
	ldrh.w	r1, [sp, #18]
	adds	r1, #20
.Ltmp378:
	.loc	12 114 5                        @ rt-thread/components/net/lwip-2.0.2/src/core/tcp_out.c:114:5
	cmp	r0, r1
	bge	.LBB7_6
	b	.LBB7_3
.LBB7_3:
.Ltmp379:
	.loc	12 114 5                        @ rt-thread/components/net/lwip-2.0.2/src/core/tcp_out.c:114:5
	b	.LBB7_4
.LBB7_4:
.Ltmp380:
	.loc	12 114 5                        @ rt-thread/components/net/lwip-2.0.2/src/core/tcp_out.c:114:5
	movw	r0, :lower16:.L.str.20
	movt	r0, :upper16:.L.str.20
	bl	rt_kprintf
	movw	r0, :lower16:.L.str.1
	movt	r0, :upper16:.L.str.1
	movs	r1, #115
	bl	sys_arch_assert
	b	.LBB7_5
.Ltmp381:
.LBB7_5:
	.loc	12 114 5                        @ rt-thread/components/net/lwip-2.0.2/src/core/tcp_out.c:114:5
	b	.LBB7_6
.Ltmp382:
.LBB7_6:
	.loc	12 114 5                        @ rt-thread/components/net/lwip-2.0.2/src/core/tcp_out.c:114:5
	b	.LBB7_7
.Ltmp383:
.LBB7_7:
	.loc	12 116 32 is_stmt 1             @ rt-thread/components/net/lwip-2.0.2/src/core/tcp_out.c:116:32
	ldr	r0, [sp, #4]
	.loc	12 116 35 is_stmt 0             @ rt-thread/components/net/lwip-2.0.2/src/core/tcp_out.c:116:35
	ldr	r0, [r0, #4]
	.loc	12 116 12                       @ rt-thread/components/net/lwip-2.0.2/src/core/tcp_out.c:116:12
	str	r0, [sp, #8]
	.loc	12 117 30 is_stmt 1             @ rt-thread/components/net/lwip-2.0.2/src/core/tcp_out.c:117:30
	ldr	r0, [sp, #20]
	.loc	12 117 35 is_stmt 0             @ rt-thread/components/net/lwip-2.0.2/src/core/tcp_out.c:117:35
	ldrh	r0, [r0, #22]
	.loc	12 117 19                       @ rt-thread/components/net/lwip-2.0.2/src/core/tcp_out.c:117:19
	bl	lwip_htons
	.loc	12 117 5                        @ rt-thread/components/net/lwip-2.0.2/src/core/tcp_out.c:117:5
	ldr	r1, [sp, #8]
	.loc	12 117 17                       @ rt-thread/components/net/lwip-2.0.2/src/core/tcp_out.c:117:17
	strh	r0, [r1]
	.loc	12 118 31 is_stmt 1             @ rt-thread/components/net/lwip-2.0.2/src/core/tcp_out.c:118:31
	ldr	r0, [sp, #20]
	.loc	12 118 36 is_stmt 0             @ rt-thread/components/net/lwip-2.0.2/src/core/tcp_out.c:118:36
	ldrh	r0, [r0, #24]
	.loc	12 118 20                       @ rt-thread/components/net/lwip-2.0.2/src/core/tcp_out.c:118:20
	bl	lwip_htons
	.loc	12 118 5                        @ rt-thread/components/net/lwip-2.0.2/src/core/tcp_out.c:118:5
	ldr	r1, [sp, #8]
	.loc	12 118 18                       @ rt-thread/components/net/lwip-2.0.2/src/core/tcp_out.c:118:18
	strh	r0, [r1, #2]
	.loc	12 119 21 is_stmt 1             @ rt-thread/components/net/lwip-2.0.2/src/core/tcp_out.c:119:21
	ldr	r0, [sp, #12]
	.loc	12 119 5 is_stmt 0              @ rt-thread/components/net/lwip-2.0.2/src/core/tcp_out.c:119:5
	ldr	r1, [sp, #8]
	.loc	12 119 19                       @ rt-thread/components/net/lwip-2.0.2/src/core/tcp_out.c:119:19
	str	r0, [r1, #4]
	.loc	12 120 32 is_stmt 1             @ rt-thread/components/net/lwip-2.0.2/src/core/tcp_out.c:120:32
	ldr	r0, [sp, #20]
	.loc	12 120 37 is_stmt 0             @ rt-thread/components/net/lwip-2.0.2/src/core/tcp_out.c:120:37
	ldr	r0, [r0, #36]
	.loc	12 120 21                       @ rt-thread/components/net/lwip-2.0.2/src/core/tcp_out.c:120:21
	bl	lwip_htonl
	.loc	12 120 5                        @ rt-thread/components/net/lwip-2.0.2/src/core/tcp_out.c:120:5
	ldr	r1, [sp, #8]
	.loc	12 120 19                       @ rt-thread/components/net/lwip-2.0.2/src/core/tcp_out.c:120:19
	str	r0, [r1, #8]
	.loc	12 121 5 is_stmt 1              @ rt-thread/components/net/lwip-2.0.2/src/core/tcp_out.c:121:5
	ldrh.w	r1, [sp, #18]
	mov.w	r0, #61440
	and.w	r0, r0, r1, lsl #10
	movw	r1, #20496
	add	r0, r1
	uxth	r0, r0
	bl	lwip_htons
	ldr	r1, [sp, #8]
	strh	r0, [r1, #12]
	.loc	12 122 30                       @ rt-thread/components/net/lwip-2.0.2/src/core/tcp_out.c:122:30
	ldr	r0, [sp, #20]
	ldrh	r0, [r0, #42]
	.loc	12 122 19 is_stmt 0             @ rt-thread/components/net/lwip-2.0.2/src/core/tcp_out.c:122:19
	bl	lwip_htons
	.loc	12 122 5                        @ rt-thread/components/net/lwip-2.0.2/src/core/tcp_out.c:122:5
	ldr	r1, [sp, #8]
	.loc	12 122 17                       @ rt-thread/components/net/lwip-2.0.2/src/core/tcp_out.c:122:17
	strh	r0, [r1, #14]
	.loc	12 123 5 is_stmt 1              @ rt-thread/components/net/lwip-2.0.2/src/core/tcp_out.c:123:5
	ldr	r1, [sp, #8]
	movs	r0, #0
	.loc	12 123 20 is_stmt 0             @ rt-thread/components/net/lwip-2.0.2/src/core/tcp_out.c:123:20
	strh	r0, [r1, #16]
	.loc	12 124 5 is_stmt 1              @ rt-thread/components/net/lwip-2.0.2/src/core/tcp_out.c:124:5
	ldr	r1, [sp, #8]
	.loc	12 124 18 is_stmt 0             @ rt-thread/components/net/lwip-2.0.2/src/core/tcp_out.c:124:18
	strh	r0, [r1, #18]
	.loc	12 127 31 is_stmt 1             @ rt-thread/components/net/lwip-2.0.2/src/core/tcp_out.c:127:31
	ldr	r1, [sp, #20]
	.loc	12 127 36 is_stmt 0             @ rt-thread/components/net/lwip-2.0.2/src/core/tcp_out.c:127:36
	ldr	r0, [r1, #36]
	.loc	12 127 51                       @ rt-thread/components/net/lwip-2.0.2/src/core/tcp_out.c:127:51
	ldrh	r2, [r1, #42]
	.loc	12 127 44                       @ rt-thread/components/net/lwip-2.0.2/src/core/tcp_out.c:127:44
	add	r0, r2
	.loc	12 127 29                       @ rt-thread/components/net/lwip-2.0.2/src/core/tcp_out.c:127:29
	str	r0, [r1, #44]
	.loc	12 128 3 is_stmt 1              @ rt-thread/components/net/lwip-2.0.2/src/core/tcp_out.c:128:3
	b	.LBB7_8
.Ltmp384:
.LBB7_8:
	.loc	12 129 10                       @ rt-thread/components/net/lwip-2.0.2/src/core/tcp_out.c:129:10
	ldr	r0, [sp, #4]
	.loc	12 129 3 is_stmt 0              @ rt-thread/components/net/lwip-2.0.2/src/core/tcp_out.c:129:3
	add	sp, #24
	pop	{r7, pc}
.Ltmp385:
.Lfunc_end7:
	.size	tcp_output_alloc_header, .Lfunc_end7-tcp_output_alloc_header
	.cfi_endproc
	.cantunwind
	.fnend
                                        @ -- End function
	.section	.text.tcp_output,"ax",%progbits
	.hidden	tcp_output                      @ -- Begin function tcp_output
	.globl	tcp_output
	.p2align	3
	.type	tcp_output,%function
	.code	16                              @ @tcp_output
	.thumb_func
tcp_output:
.Lfunc_begin8:
	.loc	12 994 0 is_stmt 1              @ rt-thread/components/net/lwip-2.0.2/src/core/tcp_out.c:994:0
	.fnstart
	.cfi_startproc
@ %bb.0:
	.save	{r7, lr}
	push	{r7, lr}
	.cfi_def_cfa_offset 8
	.cfi_offset lr, -4
	.cfi_offset r7, -8
	.pad	#88
	sub	sp, #88
	.cfi_def_cfa_offset 96
	str	r0, [sp, #80]
.Ltmp386:
	.loc	12 1004 3 prologue_end          @ rt-thread/components/net/lwip-2.0.2/src/core/tcp_out.c:1004:3
	b	.LBB8_1
.LBB8_1:
.Ltmp387:
	.loc	12 1004 3 is_stmt 0             @ rt-thread/components/net/lwip-2.0.2/src/core/tcp_out.c:1004:3
	ldr	r0, [sp, #80]
	ldrb	r0, [r0, #20]
.Ltmp388:
	.loc	12 1004 3                       @ rt-thread/components/net/lwip-2.0.2/src/core/tcp_out.c:1004:3
	cmp	r0, #1
	bne	.LBB8_5
	b	.LBB8_2
.LBB8_2:
.Ltmp389:
	.loc	12 1004 3                       @ rt-thread/components/net/lwip-2.0.2/src/core/tcp_out.c:1004:3
	b	.LBB8_3
.LBB8_3:
.Ltmp390:
	.loc	12 1004 3                       @ rt-thread/components/net/lwip-2.0.2/src/core/tcp_out.c:1004:3
	movw	r0, :lower16:.L.str.18
	movt	r0, :upper16:.L.str.18
	bl	rt_kprintf
	movw	r0, :lower16:.L.str.1
	movt	r0, :upper16:.L.str.1
	movw	r1, #1005
	bl	sys_arch_assert
	b	.LBB8_4
.Ltmp391:
.LBB8_4:
	.loc	12 1004 3                       @ rt-thread/components/net/lwip-2.0.2/src/core/tcp_out.c:1004:3
	b	.LBB8_5
.Ltmp392:
.LBB8_5:
	.loc	12 1004 3                       @ rt-thread/components/net/lwip-2.0.2/src/core/tcp_out.c:1004:3
	b	.LBB8_6
.Ltmp393:
.LBB8_6:
	.loc	12 1011 7 is_stmt 1             @ rt-thread/components/net/lwip-2.0.2/src/core/tcp_out.c:1011:7
	movw	r0, :lower16:tcp_input_pcb
	movt	r0, :upper16:tcp_input_pcb
	ldr	r0, [r0]
	.loc	12 1011 24 is_stmt 0            @ rt-thread/components/net/lwip-2.0.2/src/core/tcp_out.c:1011:24
	ldr	r1, [sp, #80]
.Ltmp394:
	.loc	12 1011 7                       @ rt-thread/components/net/lwip-2.0.2/src/core/tcp_out.c:1011:7
	cmp	r0, r1
	bne	.LBB8_8
	b	.LBB8_7
.LBB8_7:
	.loc	12 0 7                          @ rt-thread/components/net/lwip-2.0.2/src/core/tcp_out.c:0:7
	movs	r0, #0
.Ltmp395:
	.loc	12 1012 5 is_stmt 1             @ rt-thread/components/net/lwip-2.0.2/src/core/tcp_out.c:1012:5
	strb.w	r0, [sp, #87]
	b	.LBB8_87
.Ltmp396:
.LBB8_8:
	.loc	12 1015 9                       @ rt-thread/components/net/lwip-2.0.2/src/core/tcp_out.c:1015:9
	ldr	r1, [sp, #80]
	ldrh.w	r0, [r1, #92]
	ldrh.w	r1, [r1, #72]
	cmp	r0, r1
	bge	.LBB8_10
	b	.LBB8_9
.LBB8_9:
	ldr	r0, [sp, #80]
	ldrh.w	r0, [r0, #92]
	str	r0, [sp, #44]                   @ 4-byte Spill
	b	.LBB8_11
.LBB8_10:
	ldr	r0, [sp, #80]
	ldrh.w	r0, [r0, #72]
	str	r0, [sp, #44]                   @ 4-byte Spill
	b	.LBB8_11
.LBB8_11:
	ldr	r0, [sp, #44]                   @ 4-byte Reload
	.loc	12 1015 7 is_stmt 0             @ rt-thread/components/net/lwip-2.0.2/src/core/tcp_out.c:1015:7
	str	r0, [sp, #68]
	.loc	12 1017 9 is_stmt 1             @ rt-thread/components/net/lwip-2.0.2/src/core/tcp_out.c:1017:9
	ldr	r0, [sp, #80]
	.loc	12 1017 14 is_stmt 0            @ rt-thread/components/net/lwip-2.0.2/src/core/tcp_out.c:1017:14
	ldr	r0, [r0, #104]
	.loc	12 1017 7                       @ rt-thread/components/net/lwip-2.0.2/src/core/tcp_out.c:1017:7
	str	r0, [sp, #76]
.Ltmp397:
	.loc	12 1025 7 is_stmt 1             @ rt-thread/components/net/lwip-2.0.2/src/core/tcp_out.c:1025:7
	ldr	r0, [sp, #80]
	ldrb	r0, [r0, #26]
	.loc	12 1025 31 is_stmt 0            @ rt-thread/components/net/lwip-2.0.2/src/core/tcp_out.c:1025:31
	lsls	r0, r0, #30
	cmp	r0, #0
	bpl	.LBB8_15
	b	.LBB8_12
.LBB8_12:
	.loc	12 1026 7 is_stmt 1             @ rt-thread/components/net/lwip-2.0.2/src/core/tcp_out.c:1026:7
	ldr	r0, [sp, #76]
	.loc	12 1026 19 is_stmt 0            @ rt-thread/components/net/lwip-2.0.2/src/core/tcp_out.c:1026:19
	cbz	r0, .LBB8_14
	b	.LBB8_13
.LBB8_13:
	.loc	12 1027 7 is_stmt 1             @ rt-thread/components/net/lwip-2.0.2/src/core/tcp_out.c:1027:7
	ldr	r0, [sp, #76]
	ldr	r0, [r0, #12]
	ldr	r0, [r0, #4]
	bl	lwip_htonl
	.loc	12 1027 40 is_stmt 0            @ rt-thread/components/net/lwip-2.0.2/src/core/tcp_out.c:1027:40
	ldr	r1, [sp, #80]
	.loc	12 1027 45                      @ rt-thread/components/net/lwip-2.0.2/src/core/tcp_out.c:1027:45
	ldr	r1, [r1, #68]
	.loc	12 1027 38                      @ rt-thread/components/net/lwip-2.0.2/src/core/tcp_out.c:1027:38
	subs	r0, r0, r1
	.loc	12 1027 55                      @ rt-thread/components/net/lwip-2.0.2/src/core/tcp_out.c:1027:55
	ldr	r1, [sp, #76]
	.loc	12 1027 60                      @ rt-thread/components/net/lwip-2.0.2/src/core/tcp_out.c:1027:60
	ldrh	r1, [r1, #8]
	.loc	12 1027 53                      @ rt-thread/components/net/lwip-2.0.2/src/core/tcp_out.c:1027:53
	add	r0, r1
	.loc	12 1027 66                      @ rt-thread/components/net/lwip-2.0.2/src/core/tcp_out.c:1027:66
	ldr	r1, [sp, #68]
.Ltmp398:
	.loc	12 1025 7 is_stmt 1             @ rt-thread/components/net/lwip-2.0.2/src/core/tcp_out.c:1025:7
	cmp	r0, r1
	bls	.LBB8_15
	b	.LBB8_14
.LBB8_14:
.Ltmp399:
	.loc	12 1028 32                      @ rt-thread/components/net/lwip-2.0.2/src/core/tcp_out.c:1028:32
	ldr	r0, [sp, #80]
	.loc	12 1028 13 is_stmt 0            @ rt-thread/components/net/lwip-2.0.2/src/core/tcp_out.c:1028:13
	bl	tcp_send_empty_ack
	.loc	12 1028 6                       @ rt-thread/components/net/lwip-2.0.2/src/core/tcp_out.c:1028:6
	strb.w	r0, [sp, #87]
	b	.LBB8_87
.Ltmp400:
.LBB8_15:
	.loc	12 1032 10 is_stmt 1            @ rt-thread/components/net/lwip-2.0.2/src/core/tcp_out.c:1032:10
	ldr	r0, [sp, #80]
	.loc	12 1032 15 is_stmt 0            @ rt-thread/components/net/lwip-2.0.2/src/core/tcp_out.c:1032:15
	ldr	r0, [r0, #108]
	.loc	12 1032 8                       @ rt-thread/components/net/lwip-2.0.2/src/core/tcp_out.c:1032:8
	str	r0, [sp, #72]
.Ltmp401:
	.loc	12 1033 7 is_stmt 1             @ rt-thread/components/net/lwip-2.0.2/src/core/tcp_out.c:1033:7
	ldr	r0, [sp, #72]
.Ltmp402:
	.loc	12 1033 7 is_stmt 0             @ rt-thread/components/net/lwip-2.0.2/src/core/tcp_out.c:1033:7
	cbz	r0, .LBB8_21
	b	.LBB8_16
.LBB8_16:
.Ltmp403:
	.loc	12 1034 5 is_stmt 1             @ rt-thread/components/net/lwip-2.0.2/src/core/tcp_out.c:1034:5
	b	.LBB8_17
.LBB8_17:                               @ =>This Inner Loop Header: Depth=1
.Ltmp404:
	.loc	12 1034 12 is_stmt 0            @ rt-thread/components/net/lwip-2.0.2/src/core/tcp_out.c:1034:12
	ldr	r0, [sp, #72]
	.loc	12 1034 18                      @ rt-thread/components/net/lwip-2.0.2/src/core/tcp_out.c:1034:18
	ldr	r0, [r0]
.Ltmp405:
	.loc	12 1034 5                       @ rt-thread/components/net/lwip-2.0.2/src/core/tcp_out.c:1034:5
	cbz	r0, .LBB8_20
	b	.LBB8_18
.LBB8_18:                               @   in Loop: Header=BB8_17 Depth=1
	b	.LBB8_19
.LBB8_19:                               @   in Loop: Header=BB8_17 Depth=1
.Ltmp406:
	.loc	12 1034 39                      @ rt-thread/components/net/lwip-2.0.2/src/core/tcp_out.c:1034:39
	ldr	r0, [sp, #72]
	.loc	12 1034 45                      @ rt-thread/components/net/lwip-2.0.2/src/core/tcp_out.c:1034:45
	ldr	r0, [r0]
	.loc	12 1034 37                      @ rt-thread/components/net/lwip-2.0.2/src/core/tcp_out.c:1034:37
	str	r0, [sp, #72]
	.loc	12 1034 5                       @ rt-thread/components/net/lwip-2.0.2/src/core/tcp_out.c:1034:5
	b	.LBB8_17
.Ltmp407:
.LBB8_20:
	.loc	12 1035 3 is_stmt 1             @ rt-thread/components/net/lwip-2.0.2/src/core/tcp_out.c:1035:3
	b	.LBB8_21
.Ltmp408:
.LBB8_21:
	.loc	12 1037 11                      @ rt-thread/components/net/lwip-2.0.2/src/core/tcp_out.c:1037:11
	ldr	r0, [sp, #80]
	adds	r0, #4
	bl	ip4_route
	.loc	12 1037 9 is_stmt 0             @ rt-thread/components/net/lwip-2.0.2/src/core/tcp_out.c:1037:9
	str	r0, [sp, #56]
.Ltmp409:
	.loc	12 1038 7 is_stmt 1             @ rt-thread/components/net/lwip-2.0.2/src/core/tcp_out.c:1038:7
	ldr	r0, [sp, #56]
.Ltmp410:
	.loc	12 1038 7 is_stmt 0             @ rt-thread/components/net/lwip-2.0.2/src/core/tcp_out.c:1038:7
	cbnz	r0, .LBB8_23
	b	.LBB8_22
.LBB8_22:
	.loc	12 0 7                          @ rt-thread/components/net/lwip-2.0.2/src/core/tcp_out.c:0:7
	movs	r0, #252
.Ltmp411:
	.loc	12 1039 5 is_stmt 1             @ rt-thread/components/net/lwip-2.0.2/src/core/tcp_out.c:1039:5
	strb.w	r0, [sp, #87]
	b	.LBB8_87
.Ltmp412:
.LBB8_23:
	.loc	12 1043 7                       @ rt-thread/components/net/lwip-2.0.2/src/core/tcp_out.c:1043:7
	ldr	r0, [sp, #80]
	cbz	r0, .LBB8_25
	b	.LBB8_24
.LBB8_24:
	ldr	r0, [sp, #80]
	ldr	r0, [r0]
.Ltmp413:
	.loc	12 1043 7 is_stmt 0             @ rt-thread/components/net/lwip-2.0.2/src/core/tcp_out.c:1043:7
	cbnz	r0, .LBB8_31
	b	.LBB8_25
.LBB8_25:
.Ltmp414:
	.loc	12 1044 33 is_stmt 1            @ rt-thread/components/net/lwip-2.0.2/src/core/tcp_out.c:1044:33
	ldr	r0, [sp, #56]
	cbz	r0, .LBB8_27
	b	.LBB8_26
.LBB8_26:
	ldr	r0, [sp, #56]
	adds	r0, #4
	str	r0, [sp, #40]                   @ 4-byte Spill
	b	.LBB8_28
.LBB8_27:
	.loc	12 0 33 is_stmt 0               @ rt-thread/components/net/lwip-2.0.2/src/core/tcp_out.c:0:33
	movs	r0, #0
	.loc	12 1044 33                      @ rt-thread/components/net/lwip-2.0.2/src/core/tcp_out.c:1044:33
	str	r0, [sp, #40]                   @ 4-byte Spill
	b	.LBB8_28
.LBB8_28:
	ldr	r0, [sp, #40]                   @ 4-byte Reload
	.loc	12 1044 22                      @ rt-thread/components/net/lwip-2.0.2/src/core/tcp_out.c:1044:22
	str	r0, [sp, #52]
.Ltmp415:
	.loc	12 1045 9 is_stmt 1             @ rt-thread/components/net/lwip-2.0.2/src/core/tcp_out.c:1045:9
	ldr	r0, [sp, #52]
.Ltmp416:
	.loc	12 1045 9 is_stmt 0             @ rt-thread/components/net/lwip-2.0.2/src/core/tcp_out.c:1045:9
	cbnz	r0, .LBB8_30
	b	.LBB8_29
.LBB8_29:
	.loc	12 0 9                          @ rt-thread/components/net/lwip-2.0.2/src/core/tcp_out.c:0:9
	movs	r0, #252
.Ltmp417:
	.loc	12 1046 7 is_stmt 1             @ rt-thread/components/net/lwip-2.0.2/src/core/tcp_out.c:1046:7
	strb.w	r0, [sp, #87]
	b	.LBB8_87
.Ltmp418:
.LBB8_30:
	.loc	12 1048 5                       @ rt-thread/components/net/lwip-2.0.2/src/core/tcp_out.c:1048:5
	ldr	r0, [sp, #52]
	ldr	r0, [r0]
	ldr	r1, [sp, #80]
	str	r0, [r1]
	.loc	12 1049 3                       @ rt-thread/components/net/lwip-2.0.2/src/core/tcp_out.c:1049:3
	b	.LBB8_31
.Ltmp419:
.LBB8_31:
	.loc	12 1080 7                       @ rt-thread/components/net/lwip-2.0.2/src/core/tcp_out.c:1080:7
	ldr	r0, [sp, #76]
	.loc	12 1080 19 is_stmt 0            @ rt-thread/components/net/lwip-2.0.2/src/core/tcp_out.c:1080:19
	cbz	r0, .LBB8_39
	b	.LBB8_32
.LBB8_32:
	.loc	12 1081 7 is_stmt 1             @ rt-thread/components/net/lwip-2.0.2/src/core/tcp_out.c:1081:7
	ldr	r0, [sp, #76]
	ldr	r0, [r0, #12]
	ldr	r0, [r0, #4]
	bl	lwip_htonl
	.loc	12 1081 40 is_stmt 0            @ rt-thread/components/net/lwip-2.0.2/src/core/tcp_out.c:1081:40
	ldr	r1, [sp, #80]
	.loc	12 1081 45                      @ rt-thread/components/net/lwip-2.0.2/src/core/tcp_out.c:1081:45
	ldr	r1, [r1, #68]
	.loc	12 1081 38                      @ rt-thread/components/net/lwip-2.0.2/src/core/tcp_out.c:1081:38
	subs	r0, r0, r1
	.loc	12 1081 55                      @ rt-thread/components/net/lwip-2.0.2/src/core/tcp_out.c:1081:55
	ldr	r1, [sp, #76]
	.loc	12 1081 60                      @ rt-thread/components/net/lwip-2.0.2/src/core/tcp_out.c:1081:60
	ldrh	r1, [r1, #8]
	.loc	12 1081 53                      @ rt-thread/components/net/lwip-2.0.2/src/core/tcp_out.c:1081:53
	add	r0, r1
	.loc	12 1081 66                      @ rt-thread/components/net/lwip-2.0.2/src/core/tcp_out.c:1081:66
	ldr	r1, [sp, #68]
	.loc	12 1081 70                      @ rt-thread/components/net/lwip-2.0.2/src/core/tcp_out.c:1081:70
	cmp	r0, r1
	bls	.LBB8_39
	b	.LBB8_33
.LBB8_33:
	.loc	12 1082 7 is_stmt 1             @ rt-thread/components/net/lwip-2.0.2/src/core/tcp_out.c:1082:7
	ldr	r0, [sp, #68]
	.loc	12 1082 15 is_stmt 0            @ rt-thread/components/net/lwip-2.0.2/src/core/tcp_out.c:1082:15
	cbz	r0, .LBB8_39
	b	.LBB8_34
.LBB8_34:
	.loc	12 1082 18                      @ rt-thread/components/net/lwip-2.0.2/src/core/tcp_out.c:1082:18
	ldr	r0, [sp, #68]
	.loc	12 1082 25                      @ rt-thread/components/net/lwip-2.0.2/src/core/tcp_out.c:1082:25
	ldr	r1, [sp, #80]
	.loc	12 1082 30                      @ rt-thread/components/net/lwip-2.0.2/src/core/tcp_out.c:1082:30
	ldrh.w	r1, [r1, #92]
	.loc	12 1082 38                      @ rt-thread/components/net/lwip-2.0.2/src/core/tcp_out.c:1082:38
	cmp	r0, r1
	bne	.LBB8_39
	b	.LBB8_35
.LBB8_35:
	.loc	12 1082 41                      @ rt-thread/components/net/lwip-2.0.2/src/core/tcp_out.c:1082:41
	ldr	r0, [sp, #80]
	.loc	12 1082 46                      @ rt-thread/components/net/lwip-2.0.2/src/core/tcp_out.c:1082:46
	ldr	r0, [r0, #108]
.Ltmp420:
	.loc	12 1080 7 is_stmt 1             @ rt-thread/components/net/lwip-2.0.2/src/core/tcp_out.c:1080:7
	cbnz	r0, .LBB8_39
	b	.LBB8_36
.LBB8_36:
.Ltmp421:
	.loc	12 1084 9                       @ rt-thread/components/net/lwip-2.0.2/src/core/tcp_out.c:1084:9
	ldr	r0, [sp, #80]
	.loc	12 1084 14 is_stmt 0            @ rt-thread/components/net/lwip-2.0.2/src/core/tcp_out.c:1084:14
	ldrb.w	r0, [r0, #157]
.Ltmp422:
	.loc	12 1084 9                       @ rt-thread/components/net/lwip-2.0.2/src/core/tcp_out.c:1084:9
	cbnz	r0, .LBB8_38
	b	.LBB8_37
.LBB8_37:
.Ltmp423:
	.loc	12 1085 7 is_stmt 1             @ rt-thread/components/net/lwip-2.0.2/src/core/tcp_out.c:1085:7
	ldr	r1, [sp, #80]
	movs	r0, #0
	.loc	12 1085 24 is_stmt 0            @ rt-thread/components/net/lwip-2.0.2/src/core/tcp_out.c:1085:24
	strb.w	r0, [r1, #156]
	.loc	12 1086 7 is_stmt 1             @ rt-thread/components/net/lwip-2.0.2/src/core/tcp_out.c:1086:7
	ldr	r1, [sp, #80]
	movs	r0, #1
	.loc	12 1086 28 is_stmt 0            @ rt-thread/components/net/lwip-2.0.2/src/core/tcp_out.c:1086:28
	strb.w	r0, [r1, #157]
	.loc	12 1087 5 is_stmt 1             @ rt-thread/components/net/lwip-2.0.2/src/core/tcp_out.c:1087:5
	b	.LBB8_38
.Ltmp424:
.LBB8_38:
	.loc	12 1088 5                       @ rt-thread/components/net/lwip-2.0.2/src/core/tcp_out.c:1088:5
	b	.LBB8_84
.Ltmp425:
.LBB8_39:
	.loc	12 1091 3                       @ rt-thread/components/net/lwip-2.0.2/src/core/tcp_out.c:1091:3
	b	.LBB8_40
.LBB8_40:                               @ =>This Loop Header: Depth=1
                                        @     Child Loop BB8_73 Depth 2
	.loc	12 1091 10 is_stmt 0            @ rt-thread/components/net/lwip-2.0.2/src/core/tcp_out.c:1091:10
	ldr	r1, [sp, #76]
	movs	r0, #0
	.loc	12 1091 22                      @ rt-thread/components/net/lwip-2.0.2/src/core/tcp_out.c:1091:22
	str	r0, [sp, #36]                   @ 4-byte Spill
	cbz	r1, .LBB8_42
	b	.LBB8_41
.LBB8_41:                               @   in Loop: Header=BB8_40 Depth=1
	.loc	12 1092 10 is_stmt 1            @ rt-thread/components/net/lwip-2.0.2/src/core/tcp_out.c:1092:10
	ldr	r0, [sp, #76]
	ldr	r0, [r0, #12]
	ldr	r0, [r0, #4]
	bl	lwip_htonl
	.loc	12 1092 43 is_stmt 0            @ rt-thread/components/net/lwip-2.0.2/src/core/tcp_out.c:1092:43
	ldr	r1, [sp, #80]
	.loc	12 1092 48                      @ rt-thread/components/net/lwip-2.0.2/src/core/tcp_out.c:1092:48
	ldr	r1, [r1, #68]
	.loc	12 1092 41                      @ rt-thread/components/net/lwip-2.0.2/src/core/tcp_out.c:1092:41
	subs	r0, r0, r1
	.loc	12 1092 58                      @ rt-thread/components/net/lwip-2.0.2/src/core/tcp_out.c:1092:58
	ldr	r1, [sp, #76]
	.loc	12 1092 63                      @ rt-thread/components/net/lwip-2.0.2/src/core/tcp_out.c:1092:63
	ldrh	r1, [r1, #8]
	.loc	12 1092 56                      @ rt-thread/components/net/lwip-2.0.2/src/core/tcp_out.c:1092:56
	add	r1, r0
	.loc	12 1092 70                      @ rt-thread/components/net/lwip-2.0.2/src/core/tcp_out.c:1092:70
	ldr	r2, [sp, #68]
	movs	r0, #0
	.loc	12 1092 67                      @ rt-thread/components/net/lwip-2.0.2/src/core/tcp_out.c:1092:67
	cmp	r1, r2
	it	ls
	movls	r0, #1
	str	r0, [sp, #36]                   @ 4-byte Spill
	b	.LBB8_42
.LBB8_42:                               @   in Loop: Header=BB8_40 Depth=1
	.loc	12 0 0                          @ rt-thread/components/net/lwip-2.0.2/src/core/tcp_out.c:0:0
	ldr	r0, [sp, #36]                   @ 4-byte Reload
	.loc	12 1091 3 is_stmt 1             @ rt-thread/components/net/lwip-2.0.2/src/core/tcp_out.c:1091:3
	lsls	r0, r0, #31
	cmp	r0, #0
	beq.w	.LBB8_83
	b	.LBB8_43
.LBB8_43:                               @   in Loop: Header=BB8_40 Depth=1
.Ltmp426:
	.loc	12 1093 5                       @ rt-thread/components/net/lwip-2.0.2/src/core/tcp_out.c:1093:5
	b	.LBB8_44
.LBB8_44:                               @   in Loop: Header=BB8_40 Depth=1
.Ltmp427:
	.loc	12 1093 5 is_stmt 0             @ rt-thread/components/net/lwip-2.0.2/src/core/tcp_out.c:1093:5
	ldr	r0, [sp, #76]
	ldr	r0, [r0, #12]
	ldrh	r0, [r0, #12]
	bl	lwip_htons
.Ltmp428:
	.loc	12 1093 5                       @ rt-thread/components/net/lwip-2.0.2/src/core/tcp_out.c:1093:5
	lsls	r0, r0, #29
	cmp	r0, #0
	bpl	.LBB8_48
	b	.LBB8_45
.LBB8_45:                               @   in Loop: Header=BB8_40 Depth=1
.Ltmp429:
	.loc	12 1093 5                       @ rt-thread/components/net/lwip-2.0.2/src/core/tcp_out.c:1093:5
	b	.LBB8_46
.LBB8_46:                               @   in Loop: Header=BB8_40 Depth=1
.Ltmp430:
	.loc	12 1093 5                       @ rt-thread/components/net/lwip-2.0.2/src/core/tcp_out.c:1093:5
	movw	r0, :lower16:.L.str.19
	movt	r0, :upper16:.L.str.19
	bl	rt_kprintf
	movw	r0, :lower16:.L.str.1
	movt	r0, :upper16:.L.str.1
	movw	r1, #1094
	bl	sys_arch_assert
	b	.LBB8_47
.Ltmp431:
.LBB8_47:                               @   in Loop: Header=BB8_40 Depth=1
	.loc	12 1093 5                       @ rt-thread/components/net/lwip-2.0.2/src/core/tcp_out.c:1093:5
	b	.LBB8_48
.Ltmp432:
.LBB8_48:                               @   in Loop: Header=BB8_40 Depth=1
	.loc	12 1093 5                       @ rt-thread/components/net/lwip-2.0.2/src/core/tcp_out.c:1093:5
	b	.LBB8_49
.Ltmp433:
.LBB8_49:                               @   in Loop: Header=BB8_40 Depth=1
	.loc	12 1102 10 is_stmt 1            @ rt-thread/components/net/lwip-2.0.2/src/core/tcp_out.c:1102:10
	ldr	r0, [sp, #80]
	ldr	r1, [r0, #108]
	movs	r0, #1
	str	r0, [sp, #32]                   @ 4-byte Spill
	cbz	r1, .LBB8_57
	b	.LBB8_50
.LBB8_50:                               @   in Loop: Header=BB8_40 Depth=1
	ldr	r0, [sp, #80]
	ldrb	r1, [r0, #26]
	movs	r0, #1
	tst.w	r1, #68
	str	r0, [sp, #32]                   @ 4-byte Spill
	bne	.LBB8_57
	b	.LBB8_51
.LBB8_51:                               @   in Loop: Header=BB8_40 Depth=1
	ldr	r0, [sp, #80]
	ldr	r0, [r0, #104]
	cbz	r0, .LBB8_54
	b	.LBB8_52
.LBB8_52:                               @   in Loop: Header=BB8_40 Depth=1
	ldr	r0, [sp, #80]
	ldr	r0, [r0, #104]
	ldr	r1, [r0]
	movs	r0, #1
	str	r0, [sp, #32]                   @ 4-byte Spill
	cbnz	r1, .LBB8_57
	b	.LBB8_53
.LBB8_53:                               @   in Loop: Header=BB8_40 Depth=1
	ldr	r0, [sp, #80]
	ldr	r1, [r0, #104]
	ldrh	r1, [r1, #8]
	ldrh	r2, [r0, #50]
	movs	r0, #1
	cmp	r1, r2
	str	r0, [sp, #32]                   @ 4-byte Spill
	bge	.LBB8_57
	b	.LBB8_54
.LBB8_54:                               @   in Loop: Header=BB8_40 Depth=1
	ldr	r0, [sp, #80]
	ldrh.w	r1, [r0, #96]
	movs	r0, #1
	str	r0, [sp, #28]                   @ 4-byte Spill
	cbz	r1, .LBB8_56
	b	.LBB8_55
.LBB8_55:                               @   in Loop: Header=BB8_40 Depth=1
	ldr	r0, [sp, #80]
	ldrh.w	r1, [r0, #98]
	movs	r0, #0
	cmp	r1, #21
	it	gt
	movgt	r0, #1
	str	r0, [sp, #28]                   @ 4-byte Spill
	b	.LBB8_56
.LBB8_56:                               @   in Loop: Header=BB8_40 Depth=1
	.loc	12 0 10 is_stmt 0               @ rt-thread/components/net/lwip-2.0.2/src/core/tcp_out.c:0:10
	ldr	r0, [sp, #28]                   @ 4-byte Reload
	.loc	12 1102 10                      @ rt-thread/components/net/lwip-2.0.2/src/core/tcp_out.c:1102:10
	str	r0, [sp, #32]                   @ 4-byte Spill
	b	.LBB8_57
.LBB8_57:                               @   in Loop: Header=BB8_40 Depth=1
	.loc	12 0 10                         @ rt-thread/components/net/lwip-2.0.2/src/core/tcp_out.c:0:10
	ldr	r0, [sp, #32]                   @ 4-byte Reload
	.loc	12 1102 41                      @ rt-thread/components/net/lwip-2.0.2/src/core/tcp_out.c:1102:41
	lsls	r0, r0, #31
	cbnz	r0, .LBB8_60
	b	.LBB8_58
.LBB8_58:                               @   in Loop: Header=BB8_40 Depth=1
	.loc	12 1103 9 is_stmt 1             @ rt-thread/components/net/lwip-2.0.2/src/core/tcp_out.c:1103:9
	ldr	r0, [sp, #80]
	ldrb	r0, [r0, #26]
.Ltmp434:
	.loc	12 1102 9                       @ rt-thread/components/net/lwip-2.0.2/src/core/tcp_out.c:1102:9
	tst.w	r0, #160
	bne	.LBB8_60
	b	.LBB8_59
.LBB8_59:
.Ltmp435:
	.loc	12 1104 7                       @ rt-thread/components/net/lwip-2.0.2/src/core/tcp_out.c:1104:7
	b	.LBB8_83
.Ltmp436:
.LBB8_60:                               @   in Loop: Header=BB8_40 Depth=1
	.loc	12 1115 9                       @ rt-thread/components/net/lwip-2.0.2/src/core/tcp_out.c:1115:9
	ldr	r0, [sp, #80]
	.loc	12 1115 14 is_stmt 0            @ rt-thread/components/net/lwip-2.0.2/src/core/tcp_out.c:1115:14
	ldrb	r0, [r0, #20]
.Ltmp437:
	.loc	12 1115 9                       @ rt-thread/components/net/lwip-2.0.2/src/core/tcp_out.c:1115:9
	cmp	r0, #2
	beq	.LBB8_62
	b	.LBB8_61
.LBB8_61:                               @   in Loop: Header=BB8_40 Depth=1
.Ltmp438:
	.loc	12 1116 7 is_stmt 1             @ rt-thread/components/net/lwip-2.0.2/src/core/tcp_out.c:1116:7
	ldr	r0, [sp, #76]
	ldr	r0, [r0, #12]
	ldrh	r0, [r0, #12]
	str	r0, [sp, #24]                   @ 4-byte Spill
	movs	r0, #16
	bl	lwip_htons
	mov	r1, r0
	ldr	r0, [sp, #24]                   @ 4-byte Reload
	orrs	r0, r1
	ldr	r1, [sp, #76]
	ldr	r1, [r1, #12]
	strh	r0, [r1, #12]
	.loc	12 1117 5                       @ rt-thread/components/net/lwip-2.0.2/src/core/tcp_out.c:1117:5
	b	.LBB8_62
.Ltmp439:
.LBB8_62:                               @   in Loop: Header=BB8_40 Depth=1
	.loc	12 1122 30                      @ rt-thread/components/net/lwip-2.0.2/src/core/tcp_out.c:1122:30
	ldr	r0, [sp, #76]
	.loc	12 1122 35 is_stmt 0            @ rt-thread/components/net/lwip-2.0.2/src/core/tcp_out.c:1122:35
	ldr	r1, [sp, #80]
	.loc	12 1122 40                      @ rt-thread/components/net/lwip-2.0.2/src/core/tcp_out.c:1122:40
	ldr	r2, [sp, #56]
	.loc	12 1122 11                      @ rt-thread/components/net/lwip-2.0.2/src/core/tcp_out.c:1122:11
	bl	tcp_output_segment
	.loc	12 1122 9                       @ rt-thread/components/net/lwip-2.0.2/src/core/tcp_out.c:1122:9
	strb.w	r0, [sp, #63]
.Ltmp440:
	.loc	12 1123 9 is_stmt 1             @ rt-thread/components/net/lwip-2.0.2/src/core/tcp_out.c:1123:9
	ldrsb.w	r0, [sp, #63]
.Ltmp441:
	.loc	12 1123 9 is_stmt 0             @ rt-thread/components/net/lwip-2.0.2/src/core/tcp_out.c:1123:9
	cbz	r0, .LBB8_64
	b	.LBB8_63
.LBB8_63:
.Ltmp442:
	.loc	12 1125 7 is_stmt 1             @ rt-thread/components/net/lwip-2.0.2/src/core/tcp_out.c:1125:7
	ldr	r1, [sp, #80]
	.loc	12 1125 18 is_stmt 0            @ rt-thread/components/net/lwip-2.0.2/src/core/tcp_out.c:1125:18
	ldrb	r0, [r1, #26]
	orr	r0, r0, #128
	strb	r0, [r1, #26]
	.loc	12 1126 14 is_stmt 1            @ rt-thread/components/net/lwip-2.0.2/src/core/tcp_out.c:1126:14
	ldrb.w	r0, [sp, #63]
	.loc	12 1126 7 is_stmt 0             @ rt-thread/components/net/lwip-2.0.2/src/core/tcp_out.c:1126:7
	strb.w	r0, [sp, #87]
	b	.LBB8_87
.Ltmp443:
.LBB8_64:                               @   in Loop: Header=BB8_40 Depth=1
	.loc	12 1128 19 is_stmt 1            @ rt-thread/components/net/lwip-2.0.2/src/core/tcp_out.c:1128:19
	ldr	r0, [sp, #76]
	.loc	12 1128 24 is_stmt 0            @ rt-thread/components/net/lwip-2.0.2/src/core/tcp_out.c:1128:24
	ldr	r0, [r0]
	.loc	12 1128 5                       @ rt-thread/components/net/lwip-2.0.2/src/core/tcp_out.c:1128:5
	ldr	r1, [sp, #80]
	.loc	12 1128 17                      @ rt-thread/components/net/lwip-2.0.2/src/core/tcp_out.c:1128:17
	str	r0, [r1, #104]
.Ltmp444:
	.loc	12 1129 9 is_stmt 1             @ rt-thread/components/net/lwip-2.0.2/src/core/tcp_out.c:1129:9
	ldr	r0, [sp, #80]
	.loc	12 1129 14 is_stmt 0            @ rt-thread/components/net/lwip-2.0.2/src/core/tcp_out.c:1129:14
	ldrb	r0, [r0, #20]
.Ltmp445:
	.loc	12 1129 9                       @ rt-thread/components/net/lwip-2.0.2/src/core/tcp_out.c:1129:9
	cmp	r0, #2
	beq	.LBB8_66
	b	.LBB8_65
.LBB8_65:                               @   in Loop: Header=BB8_40 Depth=1
.Ltmp446:
	.loc	12 1130 7 is_stmt 1             @ rt-thread/components/net/lwip-2.0.2/src/core/tcp_out.c:1130:7
	ldr	r1, [sp, #80]
	.loc	12 1130 18 is_stmt 0            @ rt-thread/components/net/lwip-2.0.2/src/core/tcp_out.c:1130:18
	ldrb	r0, [r1, #26]
	and	r0, r0, #252
	strb	r0, [r1, #26]
	.loc	12 1131 5 is_stmt 1             @ rt-thread/components/net/lwip-2.0.2/src/core/tcp_out.c:1131:5
	b	.LBB8_66
.Ltmp447:
.LBB8_66:                               @   in Loop: Header=BB8_40 Depth=1
	.loc	12 1132 15                      @ rt-thread/components/net/lwip-2.0.2/src/core/tcp_out.c:1132:15
	ldr	r0, [sp, #76]
	ldr	r0, [r0, #12]
	ldr	r0, [r0, #4]
	bl	lwip_htonl
	.loc	12 1132 48 is_stmt 0            @ rt-thread/components/net/lwip-2.0.2/src/core/tcp_out.c:1132:48
	str	r0, [sp, #20]                   @ 4-byte Spill
	ldr	r0, [sp, #76]
	ldrh	r1, [r0, #8]
	str	r1, [sp, #16]                   @ 4-byte Spill
	ldr	r0, [r0, #12]
	ldrh	r0, [r0, #12]
	bl	lwip_htons
	ldr	r1, [sp, #16]                   @ 4-byte Reload
	mov	r3, r0
	ldr	r0, [sp, #20]                   @ 4-byte Reload
	adds	r2, r1, #1
	lsls	r3, r3, #30
	cmp	r3, #0
	it	ne
	movne	r1, r2
	.loc	12 1132 46                      @ rt-thread/components/net/lwip-2.0.2/src/core/tcp_out.c:1132:46
	add	r0, r1
	.loc	12 1132 13                      @ rt-thread/components/net/lwip-2.0.2/src/core/tcp_out.c:1132:13
	str	r0, [sp, #64]
.Ltmp448:
	.loc	12 1133 9 is_stmt 1             @ rt-thread/components/net/lwip-2.0.2/src/core/tcp_out.c:1133:9
	ldr	r0, [sp, #80]
	ldr	r0, [r0, #76]
	ldr	r1, [sp, #64]
	subs	r0, r0, r1
.Ltmp449:
	.loc	12 1133 9 is_stmt 0             @ rt-thread/components/net/lwip-2.0.2/src/core/tcp_out.c:1133:9
	cmp.w	r0, #-1
	bgt	.LBB8_68
	b	.LBB8_67
.LBB8_67:                               @   in Loop: Header=BB8_40 Depth=1
.Ltmp450:
	.loc	12 1134 22 is_stmt 1            @ rt-thread/components/net/lwip-2.0.2/src/core/tcp_out.c:1134:22
	ldr	r0, [sp, #64]
	.loc	12 1134 7 is_stmt 0             @ rt-thread/components/net/lwip-2.0.2/src/core/tcp_out.c:1134:7
	ldr	r1, [sp, #80]
	.loc	12 1134 20                      @ rt-thread/components/net/lwip-2.0.2/src/core/tcp_out.c:1134:20
	str	r0, [r1, #76]
	.loc	12 1135 5 is_stmt 1             @ rt-thread/components/net/lwip-2.0.2/src/core/tcp_out.c:1135:5
	b	.LBB8_68
.Ltmp451:
.LBB8_68:                               @   in Loop: Header=BB8_40 Depth=1
	.loc	12 1137 9                       @ rt-thread/components/net/lwip-2.0.2/src/core/tcp_out.c:1137:9
	ldr	r0, [sp, #76]
	ldrh	r1, [r0, #8]
	str	r1, [sp, #12]                   @ 4-byte Spill
	ldr	r0, [r0, #12]
	ldrh	r0, [r0, #12]
	bl	lwip_htons
	mov	r2, r0
	ldr	r0, [sp, #12]                   @ 4-byte Reload
	adds	r1, r0, #1
	lsls	r2, r2, #30
	cmp	r2, #0
	it	ne
	movne	r0, r1
.Ltmp452:
	.loc	12 1137 9 is_stmt 0             @ rt-thread/components/net/lwip-2.0.2/src/core/tcp_out.c:1137:9
	cmp	r0, #0
	beq	.LBB8_81
	b	.LBB8_69
.LBB8_69:                               @   in Loop: Header=BB8_40 Depth=1
.Ltmp453:
	.loc	12 1138 7 is_stmt 1             @ rt-thread/components/net/lwip-2.0.2/src/core/tcp_out.c:1138:7
	ldr	r1, [sp, #76]
	movs	r0, #0
	.loc	12 1138 17 is_stmt 0            @ rt-thread/components/net/lwip-2.0.2/src/core/tcp_out.c:1138:17
	str	r0, [r1]
.Ltmp454:
	.loc	12 1140 11 is_stmt 1            @ rt-thread/components/net/lwip-2.0.2/src/core/tcp_out.c:1140:11
	ldr	r0, [sp, #80]
	.loc	12 1140 16 is_stmt 0            @ rt-thread/components/net/lwip-2.0.2/src/core/tcp_out.c:1140:16
	ldr	r0, [r0, #108]
.Ltmp455:
	.loc	12 1140 11                      @ rt-thread/components/net/lwip-2.0.2/src/core/tcp_out.c:1140:11
	cbnz	r0, .LBB8_71
	b	.LBB8_70
.LBB8_70:                               @   in Loop: Header=BB8_40 Depth=1
.Ltmp456:
	.loc	12 1141 24 is_stmt 1            @ rt-thread/components/net/lwip-2.0.2/src/core/tcp_out.c:1141:24
	ldr	r0, [sp, #76]
	.loc	12 1141 9 is_stmt 0             @ rt-thread/components/net/lwip-2.0.2/src/core/tcp_out.c:1141:9
	ldr	r1, [sp, #80]
	.loc	12 1141 22                      @ rt-thread/components/net/lwip-2.0.2/src/core/tcp_out.c:1141:22
	str	r0, [r1, #108]
	.loc	12 1142 16 is_stmt 1            @ rt-thread/components/net/lwip-2.0.2/src/core/tcp_out.c:1142:16
	ldr	r0, [sp, #76]
	.loc	12 1142 14 is_stmt 0            @ rt-thread/components/net/lwip-2.0.2/src/core/tcp_out.c:1142:14
	str	r0, [sp, #72]
	.loc	12 1144 7 is_stmt 1             @ rt-thread/components/net/lwip-2.0.2/src/core/tcp_out.c:1144:7
	b	.LBB8_80
.Ltmp457:
.LBB8_71:                               @   in Loop: Header=BB8_40 Depth=1
	.loc	12 1148 13                      @ rt-thread/components/net/lwip-2.0.2/src/core/tcp_out.c:1148:13
	ldr	r0, [sp, #76]
	ldr	r0, [r0, #12]
	ldr	r0, [r0, #4]
	bl	lwip_htonl
	str	r0, [sp, #8]                    @ 4-byte Spill
	ldr	r0, [sp, #72]
	ldr	r0, [r0, #12]
	ldr	r0, [r0, #4]
	bl	lwip_htonl
	mov	r1, r0
	ldr	r0, [sp, #8]                    @ 4-byte Reload
	subs	r0, r0, r1
.Ltmp458:
	.loc	12 1148 13 is_stmt 0            @ rt-thread/components/net/lwip-2.0.2/src/core/tcp_out.c:1148:13
	cmp.w	r0, #-1
	bgt	.LBB8_78
	b	.LBB8_72
.LBB8_72:                               @   in Loop: Header=BB8_40 Depth=1
.Ltmp459:
	.loc	12 1150 40 is_stmt 1            @ rt-thread/components/net/lwip-2.0.2/src/core/tcp_out.c:1150:40
	ldr	r0, [sp, #80]
	.loc	12 1150 45 is_stmt 0            @ rt-thread/components/net/lwip-2.0.2/src/core/tcp_out.c:1150:45
	adds	r0, #108
	.loc	12 1150 28                      @ rt-thread/components/net/lwip-2.0.2/src/core/tcp_out.c:1150:28
	str	r0, [sp, #48]
	.loc	12 1151 11 is_stmt 1            @ rt-thread/components/net/lwip-2.0.2/src/core/tcp_out.c:1151:11
	b	.LBB8_73
.LBB8_73:                               @   Parent Loop BB8_40 Depth=1
                                        @ =>  This Inner Loop Header: Depth=2
	.loc	12 1151 19 is_stmt 0            @ rt-thread/components/net/lwip-2.0.2/src/core/tcp_out.c:1151:19
	ldr	r0, [sp, #48]
	.loc	12 1151 18                      @ rt-thread/components/net/lwip-2.0.2/src/core/tcp_out.c:1151:18
	ldr	r1, [r0]
	movs	r0, #0
	.loc	12 1151 27                      @ rt-thread/components/net/lwip-2.0.2/src/core/tcp_out.c:1151:27
	str	r0, [sp, #4]                    @ 4-byte Spill
	cbz	r1, .LBB8_75
	b	.LBB8_74
.LBB8_74:                               @   in Loop: Header=BB8_73 Depth=2
	.loc	12 1152 13 is_stmt 1            @ rt-thread/components/net/lwip-2.0.2/src/core/tcp_out.c:1152:13
	ldr	r0, [sp, #48]
	ldr	r0, [r0]
	ldr	r0, [r0, #12]
	ldr	r0, [r0, #4]
	bl	lwip_htonl
	str	r0, [sp]                        @ 4-byte Spill
	ldr	r0, [sp, #76]
	ldr	r0, [r0, #12]
	ldr	r0, [r0, #4]
	bl	lwip_htonl
	mov	r1, r0
	ldr	r0, [sp]                        @ 4-byte Reload
	subs	r0, r0, r1
	lsrs	r0, r0, #31
	str	r0, [sp, #4]                    @ 4-byte Spill
	b	.LBB8_75
.LBB8_75:                               @   in Loop: Header=BB8_73 Depth=2
	.loc	12 0 0 is_stmt 0                @ rt-thread/components/net/lwip-2.0.2/src/core/tcp_out.c:0:0
	ldr	r0, [sp, #4]                    @ 4-byte Reload
	.loc	12 1151 11 is_stmt 1            @ rt-thread/components/net/lwip-2.0.2/src/core/tcp_out.c:1151:11
	lsls	r0, r0, #31
	cbz	r0, .LBB8_77
	b	.LBB8_76
.LBB8_76:                               @   in Loop: Header=BB8_73 Depth=2
.Ltmp460:
	.loc	12 1153 29                      @ rt-thread/components/net/lwip-2.0.2/src/core/tcp_out.c:1153:29
	ldr	r0, [sp, #48]
	.loc	12 1153 28 is_stmt 0            @ rt-thread/components/net/lwip-2.0.2/src/core/tcp_out.c:1153:28
	ldr	r0, [r0]
	.loc	12 1153 23                      @ rt-thread/components/net/lwip-2.0.2/src/core/tcp_out.c:1153:23
	str	r0, [sp, #48]
.Ltmp461:
	.loc	12 1151 11 is_stmt 1            @ rt-thread/components/net/lwip-2.0.2/src/core/tcp_out.c:1151:11
	b	.LBB8_73
.LBB8_77:                               @   in Loop: Header=BB8_40 Depth=1
	.loc	12 1155 25                      @ rt-thread/components/net/lwip-2.0.2/src/core/tcp_out.c:1155:25
	ldr	r0, [sp, #48]
	.loc	12 1155 24 is_stmt 0            @ rt-thread/components/net/lwip-2.0.2/src/core/tcp_out.c:1155:24
	ldr	r0, [r0]
	.loc	12 1155 11                      @ rt-thread/components/net/lwip-2.0.2/src/core/tcp_out.c:1155:11
	ldr	r1, [sp, #76]
	.loc	12 1155 21                      @ rt-thread/components/net/lwip-2.0.2/src/core/tcp_out.c:1155:21
	str	r0, [r1]
	.loc	12 1156 24 is_stmt 1            @ rt-thread/components/net/lwip-2.0.2/src/core/tcp_out.c:1156:24
	ldr	r0, [sp, #76]
	.loc	12 1156 13 is_stmt 0            @ rt-thread/components/net/lwip-2.0.2/src/core/tcp_out.c:1156:13
	ldr	r1, [sp, #48]
	.loc	12 1156 22                      @ rt-thread/components/net/lwip-2.0.2/src/core/tcp_out.c:1156:22
	str	r0, [r1]
	.loc	12 1157 9 is_stmt 1             @ rt-thread/components/net/lwip-2.0.2/src/core/tcp_out.c:1157:9
	b	.LBB8_79
.Ltmp462:
.LBB8_78:                               @   in Loop: Header=BB8_40 Depth=1
	.loc	12 1159 24                      @ rt-thread/components/net/lwip-2.0.2/src/core/tcp_out.c:1159:24
	ldr	r0, [sp, #76]
	.loc	12 1159 11 is_stmt 0            @ rt-thread/components/net/lwip-2.0.2/src/core/tcp_out.c:1159:11
	ldr	r1, [sp, #72]
	.loc	12 1159 22                      @ rt-thread/components/net/lwip-2.0.2/src/core/tcp_out.c:1159:22
	str	r0, [r1]
	.loc	12 1160 18 is_stmt 1            @ rt-thread/components/net/lwip-2.0.2/src/core/tcp_out.c:1160:18
	ldr	r0, [sp, #72]
	.loc	12 1160 24 is_stmt 0            @ rt-thread/components/net/lwip-2.0.2/src/core/tcp_out.c:1160:24
	ldr	r0, [r0]
	.loc	12 1160 16                      @ rt-thread/components/net/lwip-2.0.2/src/core/tcp_out.c:1160:16
	str	r0, [sp, #72]
	b	.LBB8_79
.Ltmp463:
.LBB8_79:                               @   in Loop: Header=BB8_40 Depth=1
	.loc	12 0 16                         @ rt-thread/components/net/lwip-2.0.2/src/core/tcp_out.c:0:16
	b	.LBB8_80
.LBB8_80:                               @   in Loop: Header=BB8_40 Depth=1
	.loc	12 1164 5 is_stmt 1             @ rt-thread/components/net/lwip-2.0.2/src/core/tcp_out.c:1164:5
	b	.LBB8_82
.Ltmp464:
.LBB8_81:                               @   in Loop: Header=BB8_40 Depth=1
	.loc	12 1165 20                      @ rt-thread/components/net/lwip-2.0.2/src/core/tcp_out.c:1165:20
	ldr	r0, [sp, #76]
	.loc	12 1165 7 is_stmt 0             @ rt-thread/components/net/lwip-2.0.2/src/core/tcp_out.c:1165:7
	bl	tcp_seg_free
	b	.LBB8_82
.Ltmp465:
.LBB8_82:                               @   in Loop: Header=BB8_40 Depth=1
	.loc	12 1167 11 is_stmt 1            @ rt-thread/components/net/lwip-2.0.2/src/core/tcp_out.c:1167:11
	ldr	r0, [sp, #80]
	.loc	12 1167 16 is_stmt 0            @ rt-thread/components/net/lwip-2.0.2/src/core/tcp_out.c:1167:16
	ldr	r0, [r0, #104]
	.loc	12 1167 9                       @ rt-thread/components/net/lwip-2.0.2/src/core/tcp_out.c:1167:9
	str	r0, [sp, #76]
.Ltmp466:
	.loc	12 1091 3 is_stmt 1             @ rt-thread/components/net/lwip-2.0.2/src/core/tcp_out.c:1091:3
	b	.LBB8_40
.LBB8_83:
	b	.LBB8_84
.LBB8_84:
.Ltmp467:
	@DEBUG_LABEL: tcp_output:output_done
	.loc	12 1171 7                       @ rt-thread/components/net/lwip-2.0.2/src/core/tcp_out.c:1171:7
	ldr	r0, [sp, #80]
	.loc	12 1171 12 is_stmt 0            @ rt-thread/components/net/lwip-2.0.2/src/core/tcp_out.c:1171:12
	ldr	r0, [r0, #104]
.Ltmp468:
	.loc	12 1171 7                       @ rt-thread/components/net/lwip-2.0.2/src/core/tcp_out.c:1171:7
	cbnz	r0, .LBB8_86
	b	.LBB8_85
.LBB8_85:
.Ltmp469:
	.loc	12 1173 5 is_stmt 1             @ rt-thread/components/net/lwip-2.0.2/src/core/tcp_out.c:1173:5
	ldr	r1, [sp, #80]
	movs	r0, #0
	.loc	12 1173 26 is_stmt 0            @ rt-thread/components/net/lwip-2.0.2/src/core/tcp_out.c:1173:26
	strh.w	r0, [r1, #100]
	.loc	12 1174 3 is_stmt 1             @ rt-thread/components/net/lwip-2.0.2/src/core/tcp_out.c:1174:3
	b	.LBB8_86
.Ltmp470:
.LBB8_86:
	.loc	12 1177 3                       @ rt-thread/components/net/lwip-2.0.2/src/core/tcp_out.c:1177:3
	ldr	r1, [sp, #80]
	.loc	12 1177 14 is_stmt 0            @ rt-thread/components/net/lwip-2.0.2/src/core/tcp_out.c:1177:14
	ldrb	r0, [r1, #26]
	and	r0, r0, #127
	strb	r0, [r1, #26]
	movs	r0, #0
	.loc	12 1178 3 is_stmt 1             @ rt-thread/components/net/lwip-2.0.2/src/core/tcp_out.c:1178:3
	strb.w	r0, [sp, #87]
	b	.LBB8_87
.LBB8_87:
	.loc	12 1179 1                       @ rt-thread/components/net/lwip-2.0.2/src/core/tcp_out.c:1179:1
	ldrsb.w	r0, [sp, #87]
	add	sp, #88
	pop	{r7, pc}
.Ltmp471:
.Lfunc_end8:
	.size	tcp_output, .Lfunc_end8-tcp_output
	.cfi_endproc
	.cantunwind
	.fnend
                                        @ -- End function
	.section	.text.tcp_output_segment,"ax",%progbits
	.p2align	3                               @ -- Begin function tcp_output_segment
	.type	tcp_output_segment,%function
	.code	16                              @ @tcp_output_segment
	.thumb_func
tcp_output_segment:
.Lfunc_begin9:
	.loc	12 1190 0                       @ rt-thread/components/net/lwip-2.0.2/src/core/tcp_out.c:1190:0
	.fnstart
	.cfi_startproc
@ %bb.0:
	.save	{r4, r5, r7, lr}
	push	{r4, r5, r7, lr}
	.cfi_def_cfa_offset 16
	.cfi_offset lr, -4
	.cfi_offset r7, -8
	.cfi_offset r5, -12
	.cfi_offset r4, -16
	.pad	#40
	sub	sp, #40
	.cfi_def_cfa_offset 56
	str	r0, [sp, #32]
	str	r1, [sp, #28]
	str	r2, [sp, #24]
.Ltmp472:
	.loc	12 1195 7 prologue_end          @ rt-thread/components/net/lwip-2.0.2/src/core/tcp_out.c:1195:7
	ldr	r0, [sp, #32]
	.loc	12 1195 12 is_stmt 0            @ rt-thread/components/net/lwip-2.0.2/src/core/tcp_out.c:1195:12
	ldr	r0, [r0, #4]
	.loc	12 1195 15                      @ rt-thread/components/net/lwip-2.0.2/src/core/tcp_out.c:1195:15
	ldrh	r0, [r0, #14]
.Ltmp473:
	.loc	12 1195 7                       @ rt-thread/components/net/lwip-2.0.2/src/core/tcp_out.c:1195:7
	cmp	r0, #1
	beq	.LBB9_2
	b	.LBB9_1
.LBB9_1:
	.loc	12 0 7                          @ rt-thread/components/net/lwip-2.0.2/src/core/tcp_out.c:0:7
	movs	r0, #0
.Ltmp474:
	.loc	12 1199 5 is_stmt 1             @ rt-thread/components/net/lwip-2.0.2/src/core/tcp_out.c:1199:5
	strb.w	r0, [sp, #39]
	b	.LBB9_11
.Ltmp475:
.LBB9_2:
	.loc	12 1204 35                      @ rt-thread/components/net/lwip-2.0.2/src/core/tcp_out.c:1204:35
	ldr	r0, [sp, #28]
	.loc	12 1204 40 is_stmt 0            @ rt-thread/components/net/lwip-2.0.2/src/core/tcp_out.c:1204:40
	ldr	r0, [r0, #36]
	.loc	12 1204 24                      @ rt-thread/components/net/lwip-2.0.2/src/core/tcp_out.c:1204:24
	bl	lwip_htonl
	.loc	12 1204 3                       @ rt-thread/components/net/lwip-2.0.2/src/core/tcp_out.c:1204:3
	ldr	r1, [sp, #32]
	.loc	12 1204 8                       @ rt-thread/components/net/lwip-2.0.2/src/core/tcp_out.c:1204:8
	ldr	r1, [r1, #12]
	.loc	12 1204 22                      @ rt-thread/components/net/lwip-2.0.2/src/core/tcp_out.c:1204:22
	str	r0, [r1, #8]
.Ltmp476:
	.loc	12 1215 35 is_stmt 1            @ rt-thread/components/net/lwip-2.0.2/src/core/tcp_out.c:1215:35
	ldr	r0, [sp, #28]
	ldrh	r0, [r0, #42]
	.loc	12 1215 24 is_stmt 0            @ rt-thread/components/net/lwip-2.0.2/src/core/tcp_out.c:1215:24
	bl	lwip_htons
	.loc	12 1215 5                       @ rt-thread/components/net/lwip-2.0.2/src/core/tcp_out.c:1215:5
	ldr	r1, [sp, #32]
	.loc	12 1215 10                      @ rt-thread/components/net/lwip-2.0.2/src/core/tcp_out.c:1215:10
	ldr	r1, [r1, #12]
	.loc	12 1215 22                      @ rt-thread/components/net/lwip-2.0.2/src/core/tcp_out.c:1215:22
	strh	r0, [r1, #14]
.Ltmp477:
	.loc	12 1218 29 is_stmt 1            @ rt-thread/components/net/lwip-2.0.2/src/core/tcp_out.c:1218:29
	ldr	r1, [sp, #28]
	.loc	12 1218 34 is_stmt 0            @ rt-thread/components/net/lwip-2.0.2/src/core/tcp_out.c:1218:34
	ldr	r0, [r1, #36]
	.loc	12 1218 49                      @ rt-thread/components/net/lwip-2.0.2/src/core/tcp_out.c:1218:49
	ldrh	r2, [r1, #42]
	.loc	12 1218 42                      @ rt-thread/components/net/lwip-2.0.2/src/core/tcp_out.c:1218:42
	add	r0, r2
	.loc	12 1218 27                      @ rt-thread/components/net/lwip-2.0.2/src/core/tcp_out.c:1218:27
	str	r0, [r1, #44]
	.loc	12 1223 28 is_stmt 1            @ rt-thread/components/net/lwip-2.0.2/src/core/tcp_out.c:1223:28
	ldr	r0, [sp, #32]
	.loc	12 1223 33 is_stmt 0            @ rt-thread/components/net/lwip-2.0.2/src/core/tcp_out.c:1223:33
	ldr	r0, [r0, #12]
	.loc	12 1223 40                      @ rt-thread/components/net/lwip-2.0.2/src/core/tcp_out.c:1223:40
	adds	r0, #20
	.loc	12 1223 8                       @ rt-thread/components/net/lwip-2.0.2/src/core/tcp_out.c:1223:8
	str	r0, [sp, #16]
.Ltmp478:
	.loc	12 1224 7 is_stmt 1             @ rt-thread/components/net/lwip-2.0.2/src/core/tcp_out.c:1224:7
	ldr	r0, [sp, #32]
	ldrb	r0, [r0, #10]
.Ltmp479:
	.loc	12 1224 7 is_stmt 0             @ rt-thread/components/net/lwip-2.0.2/src/core/tcp_out.c:1224:7
	lsls	r0, r0, #31
	cbz	r0, .LBB9_4
	b	.LBB9_3
.LBB9_3:
.Ltmp480:
	.loc	12 1227 11 is_stmt 1            @ rt-thread/components/net/lwip-2.0.2/src/core/tcp_out.c:1227:11
	ldr	r0, [sp, #28]
	adds	r1, r0, #4
	movw	r0, #1460
	bl	tcp_eff_send_mss_impl
	.loc	12 1227 9 is_stmt 0             @ rt-thread/components/net/lwip-2.0.2/src/core/tcp_out.c:1227:9
	strh.w	r0, [sp, #14]
	.loc	12 1231 13 is_stmt 1            @ rt-thread/components/net/lwip-2.0.2/src/core/tcp_out.c:1231:13
	ldrh.w	r0, [sp, #14]
	add.w	r0, r0, #33816576
	bl	lwip_htonl
	.loc	12 1231 6 is_stmt 0             @ rt-thread/components/net/lwip-2.0.2/src/core/tcp_out.c:1231:6
	ldr	r1, [sp, #16]
	.loc	12 1231 11                      @ rt-thread/components/net/lwip-2.0.2/src/core/tcp_out.c:1231:11
	str	r0, [r1]
	.loc	12 1232 10 is_stmt 1            @ rt-thread/components/net/lwip-2.0.2/src/core/tcp_out.c:1232:10
	ldr	r0, [sp, #16]
	adds	r0, #4
	str	r0, [sp, #16]
	.loc	12 1233 3                       @ rt-thread/components/net/lwip-2.0.2/src/core/tcp_out.c:1233:3
	b	.LBB9_4
.Ltmp481:
.LBB9_4:
	.loc	12 1251 7                       @ rt-thread/components/net/lwip-2.0.2/src/core/tcp_out.c:1251:7
	ldr	r0, [sp, #28]
	.loc	12 1251 12 is_stmt 0            @ rt-thread/components/net/lwip-2.0.2/src/core/tcp_out.c:1251:12
	ldrsh.w	r0, [r0, #48]
.Ltmp482:
	.loc	12 1251 7                       @ rt-thread/components/net/lwip-2.0.2/src/core/tcp_out.c:1251:7
	cmp.w	r0, #-1
	bgt	.LBB9_6
	b	.LBB9_5
.LBB9_5:
.Ltmp483:
	.loc	12 1252 5 is_stmt 1             @ rt-thread/components/net/lwip-2.0.2/src/core/tcp_out.c:1252:5
	ldr	r1, [sp, #28]
	movs	r0, #0
	.loc	12 1252 16 is_stmt 0            @ rt-thread/components/net/lwip-2.0.2/src/core/tcp_out.c:1252:16
	strh	r0, [r1, #48]
	.loc	12 1253 3 is_stmt 1             @ rt-thread/components/net/lwip-2.0.2/src/core/tcp_out.c:1253:3
	b	.LBB9_6
.Ltmp484:
.LBB9_6:
	.loc	12 1255 7                       @ rt-thread/components/net/lwip-2.0.2/src/core/tcp_out.c:1255:7
	ldr	r0, [sp, #28]
	.loc	12 1255 12 is_stmt 0            @ rt-thread/components/net/lwip-2.0.2/src/core/tcp_out.c:1255:12
	ldr	r0, [r0, #52]
.Ltmp485:
	.loc	12 1255 7                       @ rt-thread/components/net/lwip-2.0.2/src/core/tcp_out.c:1255:7
	cbnz	r0, .LBB9_8
	b	.LBB9_7
.LBB9_7:
.Ltmp486:
	.loc	12 1256 19 is_stmt 1            @ rt-thread/components/net/lwip-2.0.2/src/core/tcp_out.c:1256:19
	movw	r0, :lower16:tcp_ticks
	movt	r0, :upper16:tcp_ticks
	ldr	r0, [r0]
	.loc	12 1256 5 is_stmt 0             @ rt-thread/components/net/lwip-2.0.2/src/core/tcp_out.c:1256:5
	ldr	r1, [sp, #28]
	.loc	12 1256 17                      @ rt-thread/components/net/lwip-2.0.2/src/core/tcp_out.c:1256:17
	str	r0, [r1, #52]
	.loc	12 1257 18 is_stmt 1            @ rt-thread/components/net/lwip-2.0.2/src/core/tcp_out.c:1257:18
	ldr	r0, [sp, #32]
	ldr	r0, [r0, #12]
	ldr	r0, [r0, #4]
	bl	lwip_htonl
	.loc	12 1257 5 is_stmt 0             @ rt-thread/components/net/lwip-2.0.2/src/core/tcp_out.c:1257:5
	ldr	r1, [sp, #28]
	.loc	12 1257 16                      @ rt-thread/components/net/lwip-2.0.2/src/core/tcp_out.c:1257:16
	str	r0, [r1, #56]
	.loc	12 1260 3 is_stmt 1             @ rt-thread/components/net/lwip-2.0.2/src/core/tcp_out.c:1260:3
	b	.LBB9_8
.Ltmp487:
.LBB9_8:
	.loc	12 1265 25                      @ rt-thread/components/net/lwip-2.0.2/src/core/tcp_out.c:1265:25
	ldr	r0, [sp, #32]
	.loc	12 1265 52 is_stmt 0            @ rt-thread/components/net/lwip-2.0.2/src/core/tcp_out.c:1265:52
	ldr	r1, [r0, #4]
	.loc	12 1265 30                      @ rt-thread/components/net/lwip-2.0.2/src/core/tcp_out.c:1265:30
	ldr	r0, [r0, #12]
	.loc	12 1265 55                      @ rt-thread/components/net/lwip-2.0.2/src/core/tcp_out.c:1265:55
	ldr	r1, [r1, #4]
	.loc	12 1265 37                      @ rt-thread/components/net/lwip-2.0.2/src/core/tcp_out.c:1265:37
	subs	r0, r0, r1
	.loc	12 1265 7                       @ rt-thread/components/net/lwip-2.0.2/src/core/tcp_out.c:1265:7
	strh.w	r0, [sp, #20]
.Ltmp488:
	.loc	12 1266 7 is_stmt 1             @ rt-thread/components/net/lwip-2.0.2/src/core/tcp_out.c:1266:7
	ldrh.w	r0, [sp, #20]
.Ltmp489:
	.loc	12 1266 7 is_stmt 0             @ rt-thread/components/net/lwip-2.0.2/src/core/tcp_out.c:1266:7
	cbnz	r0, .LBB9_10
	b	.LBB9_9
.LBB9_9:
.Ltmp490:
	.loc	12 1269 3 is_stmt 1             @ rt-thread/components/net/lwip-2.0.2/src/core/tcp_out.c:1269:3
	b	.LBB9_10
.Ltmp491:
.LBB9_10:
	.loc	12 1271 18                      @ rt-thread/components/net/lwip-2.0.2/src/core/tcp_out.c:1271:18
	ldrh.w	r2, [sp, #20]
	.loc	12 1271 3 is_stmt 0             @ rt-thread/components/net/lwip-2.0.2/src/core/tcp_out.c:1271:3
	ldr	r0, [sp, #32]
	.loc	12 1271 8                       @ rt-thread/components/net/lwip-2.0.2/src/core/tcp_out.c:1271:8
	ldr	r1, [r0, #4]
	.loc	12 1271 15                      @ rt-thread/components/net/lwip-2.0.2/src/core/tcp_out.c:1271:15
	ldrh	r0, [r1, #10]
	subs	r0, r0, r2
	strh	r0, [r1, #10]
	.loc	12 1272 22 is_stmt 1            @ rt-thread/components/net/lwip-2.0.2/src/core/tcp_out.c:1272:22
	ldrh.w	r2, [sp, #20]
	.loc	12 1272 3 is_stmt 0             @ rt-thread/components/net/lwip-2.0.2/src/core/tcp_out.c:1272:3
	ldr	r0, [sp, #32]
	.loc	12 1272 8                       @ rt-thread/components/net/lwip-2.0.2/src/core/tcp_out.c:1272:8
	ldr	r1, [r0, #4]
	.loc	12 1272 19                      @ rt-thread/components/net/lwip-2.0.2/src/core/tcp_out.c:1272:19
	ldrh	r0, [r1, #8]
	subs	r0, r0, r2
	strh	r0, [r1, #8]
	.loc	12 1274 21 is_stmt 1            @ rt-thread/components/net/lwip-2.0.2/src/core/tcp_out.c:1274:21
	ldr	r0, [sp, #32]
	.loc	12 1274 8 is_stmt 0             @ rt-thread/components/net/lwip-2.0.2/src/core/tcp_out.c:1274:8
	ldr	r1, [r0, #4]
	.loc	12 1274 26                      @ rt-thread/components/net/lwip-2.0.2/src/core/tcp_out.c:1274:26
	ldr	r0, [r0, #12]
	.loc	12 1274 19                      @ rt-thread/components/net/lwip-2.0.2/src/core/tcp_out.c:1274:19
	str	r0, [r1, #4]
	.loc	12 1276 3 is_stmt 1             @ rt-thread/components/net/lwip-2.0.2/src/core/tcp_out.c:1276:3
	ldr	r0, [sp, #32]
	.loc	12 1276 8 is_stmt 0             @ rt-thread/components/net/lwip-2.0.2/src/core/tcp_out.c:1276:8
	ldr	r1, [r0, #12]
	movs	r0, #0
	.loc	12 1276 23                      @ rt-thread/components/net/lwip-2.0.2/src/core/tcp_out.c:1276:23
	strh	r0, [r1, #16]
.Ltmp492:
	.loc	12 1309 44 is_stmt 1            @ rt-thread/components/net/lwip-2.0.2/src/core/tcp_out.c:1309:44
	ldr	r0, [sp, #32]
	.loc	12 1309 49 is_stmt 0            @ rt-thread/components/net/lwip-2.0.2/src/core/tcp_out.c:1309:49
	ldr	r0, [r0, #4]
	.loc	12 1310 15 is_stmt 1            @ rt-thread/components/net/lwip-2.0.2/src/core/tcp_out.c:1310:15
	ldrh	r2, [r0, #8]
	.loc	12 1310 25 is_stmt 0            @ rt-thread/components/net/lwip-2.0.2/src/core/tcp_out.c:1310:25
	ldr	r3, [sp, #28]
	.loc	12 1310 46                      @ rt-thread/components/net/lwip-2.0.2/src/core/tcp_out.c:1310:46
	adds	r1, r3, #4
	.loc	12 1309 27 is_stmt 1            @ rt-thread/components/net/lwip-2.0.2/src/core/tcp_out.c:1309:27
	mov	r12, sp
	str.w	r1, [r12]
	movs	r4, #6
	mov	r1, r4
	bl	ip_chksum_pseudo
	.loc	12 1309 5 is_stmt 0             @ rt-thread/components/net/lwip-2.0.2/src/core/tcp_out.c:1309:5
	ldr	r1, [sp, #32]
	.loc	12 1309 10                      @ rt-thread/components/net/lwip-2.0.2/src/core/tcp_out.c:1309:10
	ldr	r1, [r1, #12]
	.loc	12 1309 25                      @ rt-thread/components/net/lwip-2.0.2/src/core/tcp_out.c:1309:25
	strh	r0, [r1, #16]
.Ltmp493:
	.loc	12 1317 9 is_stmt 1             @ rt-thread/components/net/lwip-2.0.2/src/core/tcp_out.c:1317:9
	ldr	r0, [sp, #32]
	ldr	r0, [r0, #4]
	ldr	r1, [sp, #28]
	adds	r2, r1, #4
	ldrb.w	r12, [r1, #9]
	ldrb	r3, [r1, #10]
	ldr	r5, [sp, #24]
	mov	lr, sp
	str.w	r5, [lr, #8]
	str.w	r4, [lr, #4]
	str.w	r12, [lr]
	bl	ip4_output_if
	.loc	12 1317 7 is_stmt 0             @ rt-thread/components/net/lwip-2.0.2/src/core/tcp_out.c:1317:7
	strb.w	r0, [sp, #23]
	.loc	12 1320 10 is_stmt 1            @ rt-thread/components/net/lwip-2.0.2/src/core/tcp_out.c:1320:10
	ldrb.w	r0, [sp, #23]
	.loc	12 1320 3 is_stmt 0             @ rt-thread/components/net/lwip-2.0.2/src/core/tcp_out.c:1320:3
	strb.w	r0, [sp, #39]
	b	.LBB9_11
.LBB9_11:
	.loc	12 1321 1 is_stmt 1             @ rt-thread/components/net/lwip-2.0.2/src/core/tcp_out.c:1321:1
	ldrsb.w	r0, [sp, #39]
	add	sp, #40
	pop	{r4, r5, r7, pc}
.Ltmp494:
.Lfunc_end9:
	.size	tcp_output_segment, .Lfunc_end9-tcp_output_segment
	.cfi_endproc
	.cantunwind
	.fnend
                                        @ -- End function
	.section	.text.tcp_rst,"ax",%progbits
	.hidden	tcp_rst                         @ -- Begin function tcp_rst
	.globl	tcp_rst
	.p2align	3
	.type	tcp_rst,%function
	.code	16                              @ @tcp_rst
	.thumb_func
tcp_rst:
.Lfunc_begin10:
	.loc	12 1347 0                       @ rt-thread/components/net/lwip-2.0.2/src/core/tcp_out.c:1347:0
	.fnstart
	.cfi_startproc
@ %bb.0:
	.save	{r7, lr}
	push	{r7, lr}
	.cfi_def_cfa_offset 8
	.cfi_offset lr, -4
	.cfi_offset r7, -8
	.pad	#48
	sub	sp, #48
	.cfi_def_cfa_offset 56
	mov	r12, r1
	mov	lr, r0
	ldr	r0, [sp, #60]
	ldr	r1, [sp, #56]
	str.w	lr, [sp, #44]
	str.w	r12, [sp, #40]
	str	r2, [sp, #36]
	str	r3, [sp, #32]
	strh.w	r1, [sp, #30]
	strh.w	r0, [sp, #28]
	movs	r0, #1
	movs	r1, #20
	movs	r2, #0
.Ltmp495:
	.loc	12 1351 7 prologue_end          @ rt-thread/components/net/lwip-2.0.2/src/core/tcp_out.c:1351:7
	bl	pbuf_alloc
	.loc	12 1351 5 is_stmt 0             @ rt-thread/components/net/lwip-2.0.2/src/core/tcp_out.c:1351:5
	str	r0, [sp, #24]
.Ltmp496:
	.loc	12 1352 7 is_stmt 1             @ rt-thread/components/net/lwip-2.0.2/src/core/tcp_out.c:1352:7
	ldr	r0, [sp, #24]
.Ltmp497:
	.loc	12 1352 7 is_stmt 0             @ rt-thread/components/net/lwip-2.0.2/src/core/tcp_out.c:1352:7
	cbnz	r0, .LBB10_2
	b	.LBB10_1
.LBB10_1:
.Ltmp498:
	.loc	12 1354 5 is_stmt 1             @ rt-thread/components/net/lwip-2.0.2/src/core/tcp_out.c:1354:5
	b	.LBB10_11
.Ltmp499:
.LBB10_2:
	.loc	12 1356 3                       @ rt-thread/components/net/lwip-2.0.2/src/core/tcp_out.c:1356:3
	b	.LBB10_3
.LBB10_3:
.Ltmp500:
	.loc	12 1356 3 is_stmt 0             @ rt-thread/components/net/lwip-2.0.2/src/core/tcp_out.c:1356:3
	ldr	r0, [sp, #24]
	ldrh	r0, [r0, #10]
.Ltmp501:
	.loc	12 1356 3                       @ rt-thread/components/net/lwip-2.0.2/src/core/tcp_out.c:1356:3
	cmp	r0, #19
	bhi	.LBB10_7
	b	.LBB10_4
.LBB10_4:
.Ltmp502:
	.loc	12 1356 3                       @ rt-thread/components/net/lwip-2.0.2/src/core/tcp_out.c:1356:3
	b	.LBB10_5
.LBB10_5:
.Ltmp503:
	.loc	12 1356 3                       @ rt-thread/components/net/lwip-2.0.2/src/core/tcp_out.c:1356:3
	movw	r0, :lower16:.L.str.20
	movt	r0, :upper16:.L.str.20
	bl	rt_kprintf
	movw	r0, :lower16:.L.str.1
	movt	r0, :upper16:.L.str.1
	movw	r1, #1357
	bl	sys_arch_assert
	b	.LBB10_6
.Ltmp504:
.LBB10_6:
	.loc	12 1356 3                       @ rt-thread/components/net/lwip-2.0.2/src/core/tcp_out.c:1356:3
	b	.LBB10_7
.Ltmp505:
.LBB10_7:
	.loc	12 1356 3                       @ rt-thread/components/net/lwip-2.0.2/src/core/tcp_out.c:1356:3
	b	.LBB10_8
.Ltmp506:
.LBB10_8:
	.loc	12 1359 30 is_stmt 1            @ rt-thread/components/net/lwip-2.0.2/src/core/tcp_out.c:1359:30
	ldr	r0, [sp, #24]
	.loc	12 1359 33 is_stmt 0            @ rt-thread/components/net/lwip-2.0.2/src/core/tcp_out.c:1359:33
	ldr	r0, [r0, #4]
	.loc	12 1359 10                      @ rt-thread/components/net/lwip-2.0.2/src/core/tcp_out.c:1359:10
	str	r0, [sp, #20]
	.loc	12 1360 28 is_stmt 1            @ rt-thread/components/net/lwip-2.0.2/src/core/tcp_out.c:1360:28
	ldrh.w	r0, [sp, #30]
	.loc	12 1360 17 is_stmt 0            @ rt-thread/components/net/lwip-2.0.2/src/core/tcp_out.c:1360:17
	bl	lwip_htons
	.loc	12 1360 3                       @ rt-thread/components/net/lwip-2.0.2/src/core/tcp_out.c:1360:3
	ldr	r1, [sp, #20]
	.loc	12 1360 15                      @ rt-thread/components/net/lwip-2.0.2/src/core/tcp_out.c:1360:15
	strh	r0, [r1]
	.loc	12 1361 29 is_stmt 1            @ rt-thread/components/net/lwip-2.0.2/src/core/tcp_out.c:1361:29
	ldrh.w	r0, [sp, #28]
	.loc	12 1361 18 is_stmt 0            @ rt-thread/components/net/lwip-2.0.2/src/core/tcp_out.c:1361:18
	bl	lwip_htons
	.loc	12 1361 3                       @ rt-thread/components/net/lwip-2.0.2/src/core/tcp_out.c:1361:3
	ldr	r1, [sp, #20]
	.loc	12 1361 16                      @ rt-thread/components/net/lwip-2.0.2/src/core/tcp_out.c:1361:16
	strh	r0, [r1, #2]
	.loc	12 1362 30 is_stmt 1            @ rt-thread/components/net/lwip-2.0.2/src/core/tcp_out.c:1362:30
	ldr	r0, [sp, #44]
	.loc	12 1362 19 is_stmt 0            @ rt-thread/components/net/lwip-2.0.2/src/core/tcp_out.c:1362:19
	bl	lwip_htonl
	.loc	12 1362 3                       @ rt-thread/components/net/lwip-2.0.2/src/core/tcp_out.c:1362:3
	ldr	r1, [sp, #20]
	.loc	12 1362 17                      @ rt-thread/components/net/lwip-2.0.2/src/core/tcp_out.c:1362:17
	str	r0, [r1, #4]
	.loc	12 1363 30 is_stmt 1            @ rt-thread/components/net/lwip-2.0.2/src/core/tcp_out.c:1363:30
	ldr	r0, [sp, #40]
	.loc	12 1363 19 is_stmt 0            @ rt-thread/components/net/lwip-2.0.2/src/core/tcp_out.c:1363:19
	bl	lwip_htonl
	.loc	12 1363 3                       @ rt-thread/components/net/lwip-2.0.2/src/core/tcp_out.c:1363:3
	ldr	r1, [sp, #20]
	.loc	12 1363 17                      @ rt-thread/components/net/lwip-2.0.2/src/core/tcp_out.c:1363:17
	str	r0, [r1, #8]
	movw	r0, #20500
	.loc	12 1364 3 is_stmt 1             @ rt-thread/components/net/lwip-2.0.2/src/core/tcp_out.c:1364:3
	bl	lwip_htons
	ldr	r1, [sp, #20]
	strh	r0, [r1, #12]
	.loc	12 1368 3                       @ rt-thread/components/net/lwip-2.0.2/src/core/tcp_out.c:1368:3
	ldr	r1, [sp, #20]
	mov.w	r0, #1056
	.loc	12 1368 15 is_stmt 0            @ rt-thread/components/net/lwip-2.0.2/src/core/tcp_out.c:1368:15
	strh	r0, [r1, #14]
	.loc	12 1370 3 is_stmt 1             @ rt-thread/components/net/lwip-2.0.2/src/core/tcp_out.c:1370:3
	ldr	r1, [sp, #20]
	movs	r0, #0
	.loc	12 1370 18 is_stmt 0            @ rt-thread/components/net/lwip-2.0.2/src/core/tcp_out.c:1370:18
	strh	r0, [r1, #16]
	.loc	12 1371 3 is_stmt 1             @ rt-thread/components/net/lwip-2.0.2/src/core/tcp_out.c:1371:3
	ldr	r1, [sp, #20]
	.loc	12 1371 16 is_stmt 0            @ rt-thread/components/net/lwip-2.0.2/src/core/tcp_out.c:1371:16
	strh	r0, [r1, #18]
	.loc	12 1376 11 is_stmt 1            @ rt-thread/components/net/lwip-2.0.2/src/core/tcp_out.c:1376:11
	ldr	r0, [sp, #32]
	bl	ip4_route
	.loc	12 1376 9 is_stmt 0             @ rt-thread/components/net/lwip-2.0.2/src/core/tcp_out.c:1376:9
	str	r0, [sp, #16]
.Ltmp507:
	.loc	12 1377 7 is_stmt 1             @ rt-thread/components/net/lwip-2.0.2/src/core/tcp_out.c:1377:7
	ldr	r0, [sp, #16]
.Ltmp508:
	.loc	12 1377 7 is_stmt 0             @ rt-thread/components/net/lwip-2.0.2/src/core/tcp_out.c:1377:7
	cbz	r0, .LBB10_10
	b	.LBB10_9
.LBB10_9:
.Ltmp509:
	.loc	12 1380 41 is_stmt 1            @ rt-thread/components/net/lwip-2.0.2/src/core/tcp_out.c:1380:41
	ldr	r0, [sp, #24]
	.loc	12 1380 61 is_stmt 0            @ rt-thread/components/net/lwip-2.0.2/src/core/tcp_out.c:1380:61
	ldrh	r2, [r0, #8]
	.loc	12 1381 41 is_stmt 1            @ rt-thread/components/net/lwip-2.0.2/src/core/tcp_out.c:1381:41
	ldr	r3, [sp, #36]
	.loc	12 1381 51 is_stmt 0            @ rt-thread/components/net/lwip-2.0.2/src/core/tcp_out.c:1381:51
	ldr	r1, [sp, #32]
	.loc	12 1380 24 is_stmt 1            @ rt-thread/components/net/lwip-2.0.2/src/core/tcp_out.c:1380:24
	mov	r12, sp
	str.w	r1, [r12]
	movs	r1, #6
	str	r1, [sp, #12]                   @ 4-byte Spill
	bl	ip_chksum_pseudo
	ldr	r3, [sp, #12]                   @ 4-byte Reload
	.loc	12 1380 7 is_stmt 0             @ rt-thread/components/net/lwip-2.0.2/src/core/tcp_out.c:1380:7
	ldr	r1, [sp, #20]
	.loc	12 1380 22                      @ rt-thread/components/net/lwip-2.0.2/src/core/tcp_out.c:1380:22
	strh	r0, [r1, #16]
.Ltmp510:
	.loc	12 1385 5 is_stmt 1             @ rt-thread/components/net/lwip-2.0.2/src/core/tcp_out.c:1385:5
	ldr	r0, [sp, #24]
	ldr	r1, [sp, #36]
	ldr	r2, [sp, #32]
	ldr.w	lr, [sp, #16]
	mov	r12, sp
	str.w	lr, [r12, #8]
	str.w	r3, [r12, #4]
	movs	r3, #0
	str.w	r3, [r12]
	movs	r3, #255
	bl	ip4_output_if
	.loc	12 1386 3                       @ rt-thread/components/net/lwip-2.0.2/src/core/tcp_out.c:1386:3
	b	.LBB10_10
.Ltmp511:
.LBB10_10:
	.loc	12 1387 13                      @ rt-thread/components/net/lwip-2.0.2/src/core/tcp_out.c:1387:13
	ldr	r0, [sp, #24]
	.loc	12 1387 3 is_stmt 0             @ rt-thread/components/net/lwip-2.0.2/src/core/tcp_out.c:1387:3
	bl	pbuf_free
	.loc	12 1389 1 is_stmt 1             @ rt-thread/components/net/lwip-2.0.2/src/core/tcp_out.c:1389:1
	b	.LBB10_11
.LBB10_11:
	add	sp, #48
	pop	{r7, pc}
.Ltmp512:
.Lfunc_end10:
	.size	tcp_rst, .Lfunc_end10-tcp_rst
	.cfi_endproc
	.cantunwind
	.fnend
                                        @ -- End function
	.section	.text.tcp_rexmit_rto,"ax",%progbits
	.hidden	tcp_rexmit_rto                  @ -- Begin function tcp_rexmit_rto
	.globl	tcp_rexmit_rto
	.p2align	3
	.type	tcp_rexmit_rto,%function
	.code	16                              @ @tcp_rexmit_rto
	.thumb_func
tcp_rexmit_rto:
.Lfunc_begin11:
	.loc	12 1400 0                       @ rt-thread/components/net/lwip-2.0.2/src/core/tcp_out.c:1400:0
	.fnstart
	.cfi_startproc
@ %bb.0:
	.save	{r7, lr}
	push	{r7, lr}
	.cfi_def_cfa_offset 8
	.cfi_offset lr, -4
	.cfi_offset r7, -8
	.pad	#8
	sub	sp, #8
	.cfi_def_cfa_offset 16
	str	r0, [sp, #4]
.Ltmp513:
	.loc	12 1403 7 prologue_end          @ rt-thread/components/net/lwip-2.0.2/src/core/tcp_out.c:1403:7
	ldr	r0, [sp, #4]
	.loc	12 1403 12 is_stmt 0            @ rt-thread/components/net/lwip-2.0.2/src/core/tcp_out.c:1403:12
	ldr	r0, [r0, #108]
.Ltmp514:
	.loc	12 1403 7                       @ rt-thread/components/net/lwip-2.0.2/src/core/tcp_out.c:1403:7
	cbnz	r0, .LBB11_2
	b	.LBB11_1
.LBB11_1:
.Ltmp515:
	.loc	12 1404 5 is_stmt 1             @ rt-thread/components/net/lwip-2.0.2/src/core/tcp_out.c:1404:5
	b	.LBB11_9
.Ltmp516:
.LBB11_2:
	.loc	12 1408 14                      @ rt-thread/components/net/lwip-2.0.2/src/core/tcp_out.c:1408:14
	ldr	r0, [sp, #4]
	.loc	12 1408 19 is_stmt 0            @ rt-thread/components/net/lwip-2.0.2/src/core/tcp_out.c:1408:19
	ldr	r0, [r0, #108]
	.loc	12 1408 12                      @ rt-thread/components/net/lwip-2.0.2/src/core/tcp_out.c:1408:12
	str	r0, [sp]
	.loc	12 1408 8                       @ rt-thread/components/net/lwip-2.0.2/src/core/tcp_out.c:1408:8
	b	.LBB11_3
.LBB11_3:                               @ =>This Inner Loop Header: Depth=1
.Ltmp517:
	.loc	12 1408 28                      @ rt-thread/components/net/lwip-2.0.2/src/core/tcp_out.c:1408:28
	ldr	r0, [sp]
	.loc	12 1408 33                      @ rt-thread/components/net/lwip-2.0.2/src/core/tcp_out.c:1408:33
	ldr	r0, [r0]
.Ltmp518:
	.loc	12 1408 3                       @ rt-thread/components/net/lwip-2.0.2/src/core/tcp_out.c:1408:3
	cbz	r0, .LBB11_6
	b	.LBB11_4
.LBB11_4:                               @   in Loop: Header=BB11_3 Depth=1
	b	.LBB11_5
.LBB11_5:                               @   in Loop: Header=BB11_3 Depth=1
.Ltmp519:
	.loc	12 1408 53                      @ rt-thread/components/net/lwip-2.0.2/src/core/tcp_out.c:1408:53
	ldr	r0, [sp]
	.loc	12 1408 58                      @ rt-thread/components/net/lwip-2.0.2/src/core/tcp_out.c:1408:58
	ldr	r0, [r0]
	.loc	12 1408 51                      @ rt-thread/components/net/lwip-2.0.2/src/core/tcp_out.c:1408:51
	str	r0, [sp]
	.loc	12 1408 3                       @ rt-thread/components/net/lwip-2.0.2/src/core/tcp_out.c:1408:3
	b	.LBB11_3
.Ltmp520:
.LBB11_6:
	.loc	12 1410 15 is_stmt 1            @ rt-thread/components/net/lwip-2.0.2/src/core/tcp_out.c:1410:15
	ldr	r0, [sp, #4]
	.loc	12 1410 20 is_stmt 0            @ rt-thread/components/net/lwip-2.0.2/src/core/tcp_out.c:1410:20
	ldr	r0, [r0, #104]
	.loc	12 1410 3                       @ rt-thread/components/net/lwip-2.0.2/src/core/tcp_out.c:1410:3
	ldr	r1, [sp]
	.loc	12 1410 13                      @ rt-thread/components/net/lwip-2.0.2/src/core/tcp_out.c:1410:13
	str	r0, [r1]
	.loc	12 1418 17 is_stmt 1            @ rt-thread/components/net/lwip-2.0.2/src/core/tcp_out.c:1418:17
	ldr	r1, [sp, #4]
	.loc	12 1418 22 is_stmt 0            @ rt-thread/components/net/lwip-2.0.2/src/core/tcp_out.c:1418:22
	ldr	r0, [r1, #108]
	.loc	12 1418 15                      @ rt-thread/components/net/lwip-2.0.2/src/core/tcp_out.c:1418:15
	str	r0, [r1, #104]
	.loc	12 1420 3 is_stmt 1             @ rt-thread/components/net/lwip-2.0.2/src/core/tcp_out.c:1420:3
	ldr	r1, [sp, #4]
	movs	r0, #0
	.loc	12 1420 16 is_stmt 0            @ rt-thread/components/net/lwip-2.0.2/src/core/tcp_out.c:1420:16
	str	r0, [r1, #108]
.Ltmp521:
	.loc	12 1423 7 is_stmt 1             @ rt-thread/components/net/lwip-2.0.2/src/core/tcp_out.c:1423:7
	ldr	r0, [sp, #4]
	.loc	12 1423 12 is_stmt 0            @ rt-thread/components/net/lwip-2.0.2/src/core/tcp_out.c:1423:12
	ldrb.w	r0, [r0, #66]
.Ltmp522:
	.loc	12 1423 7                       @ rt-thread/components/net/lwip-2.0.2/src/core/tcp_out.c:1423:7
	cmp	r0, #254
	bgt	.LBB11_8
	b	.LBB11_7
.LBB11_7:
.Ltmp523:
	.loc	12 1424 7 is_stmt 1             @ rt-thread/components/net/lwip-2.0.2/src/core/tcp_out.c:1424:7
	ldr	r1, [sp, #4]
	.loc	12 1424 5 is_stmt 0             @ rt-thread/components/net/lwip-2.0.2/src/core/tcp_out.c:1424:5
	ldrb.w	r0, [r1, #66]
	adds	r0, #1
	strb.w	r0, [r1, #66]
	.loc	12 1425 3 is_stmt 1             @ rt-thread/components/net/lwip-2.0.2/src/core/tcp_out.c:1425:3
	b	.LBB11_8
.Ltmp524:
.LBB11_8:
	.loc	12 1428 3                       @ rt-thread/components/net/lwip-2.0.2/src/core/tcp_out.c:1428:3
	ldr	r1, [sp, #4]
	movs	r0, #0
	.loc	12 1428 15 is_stmt 0            @ rt-thread/components/net/lwip-2.0.2/src/core/tcp_out.c:1428:15
	str	r0, [r1, #52]
	.loc	12 1431 14 is_stmt 1            @ rt-thread/components/net/lwip-2.0.2/src/core/tcp_out.c:1431:14
	ldr	r0, [sp, #4]
	.loc	12 1431 3 is_stmt 0             @ rt-thread/components/net/lwip-2.0.2/src/core/tcp_out.c:1431:3
	bl	tcp_output
	.loc	12 1432 1 is_stmt 1             @ rt-thread/components/net/lwip-2.0.2/src/core/tcp_out.c:1432:1
	b	.LBB11_9
.LBB11_9:
	add	sp, #8
	pop	{r7, pc}
.Ltmp525:
.Lfunc_end11:
	.size	tcp_rexmit_rto, .Lfunc_end11-tcp_rexmit_rto
	.cfi_endproc
	.cantunwind
	.fnend
                                        @ -- End function
	.section	.text.tcp_rexmit,"ax",%progbits
	.hidden	tcp_rexmit                      @ -- Begin function tcp_rexmit
	.globl	tcp_rexmit
	.p2align	3
	.type	tcp_rexmit,%function
	.code	16                              @ @tcp_rexmit
	.thumb_func
tcp_rexmit:
.Lfunc_begin12:
	.loc	12 1443 0                       @ rt-thread/components/net/lwip-2.0.2/src/core/tcp_out.c:1443:0
	.fnstart
	.cfi_startproc
@ %bb.0:
	.save	{r7, lr}
	push	{r7, lr}
	.cfi_def_cfa_offset 8
	.cfi_offset lr, -4
	.cfi_offset r7, -8
	.pad	#24
	sub	sp, #24
	.cfi_def_cfa_offset 32
	str	r0, [sp, #20]
.Ltmp526:
	.loc	12 1447 7 prologue_end          @ rt-thread/components/net/lwip-2.0.2/src/core/tcp_out.c:1447:7
	ldr	r0, [sp, #20]
	.loc	12 1447 12 is_stmt 0            @ rt-thread/components/net/lwip-2.0.2/src/core/tcp_out.c:1447:12
	ldr	r0, [r0, #108]
.Ltmp527:
	.loc	12 1447 7                       @ rt-thread/components/net/lwip-2.0.2/src/core/tcp_out.c:1447:7
	cbnz	r0, .LBB12_2
	b	.LBB12_1
.LBB12_1:
.Ltmp528:
	.loc	12 1448 5 is_stmt 1             @ rt-thread/components/net/lwip-2.0.2/src/core/tcp_out.c:1448:5
	b	.LBB12_12
.Ltmp529:
.LBB12_2:
	.loc	12 1453 9                       @ rt-thread/components/net/lwip-2.0.2/src/core/tcp_out.c:1453:9
	ldr	r0, [sp, #20]
	.loc	12 1453 14 is_stmt 0            @ rt-thread/components/net/lwip-2.0.2/src/core/tcp_out.c:1453:14
	ldr	r0, [r0, #108]
	.loc	12 1453 7                       @ rt-thread/components/net/lwip-2.0.2/src/core/tcp_out.c:1453:7
	str	r0, [sp, #16]
	.loc	12 1454 18 is_stmt 1            @ rt-thread/components/net/lwip-2.0.2/src/core/tcp_out.c:1454:18
	ldr	r0, [sp, #16]
	.loc	12 1454 23 is_stmt 0            @ rt-thread/components/net/lwip-2.0.2/src/core/tcp_out.c:1454:23
	ldr	r0, [r0]
	.loc	12 1454 3                       @ rt-thread/components/net/lwip-2.0.2/src/core/tcp_out.c:1454:3
	ldr	r1, [sp, #20]
	.loc	12 1454 16                      @ rt-thread/components/net/lwip-2.0.2/src/core/tcp_out.c:1454:16
	str	r0, [r1, #108]
	.loc	12 1456 15 is_stmt 1            @ rt-thread/components/net/lwip-2.0.2/src/core/tcp_out.c:1456:15
	ldr	r0, [sp, #20]
	.loc	12 1456 20 is_stmt 0            @ rt-thread/components/net/lwip-2.0.2/src/core/tcp_out.c:1456:20
	adds	r0, #104
	.loc	12 1456 11                      @ rt-thread/components/net/lwip-2.0.2/src/core/tcp_out.c:1456:11
	str	r0, [sp, #12]
	.loc	12 1457 3 is_stmt 1             @ rt-thread/components/net/lwip-2.0.2/src/core/tcp_out.c:1457:3
	b	.LBB12_3
.LBB12_3:                               @ =>This Inner Loop Header: Depth=1
	.loc	12 1457 11 is_stmt 0            @ rt-thread/components/net/lwip-2.0.2/src/core/tcp_out.c:1457:11
	ldr	r0, [sp, #12]
	.loc	12 1457 10                      @ rt-thread/components/net/lwip-2.0.2/src/core/tcp_out.c:1457:10
	ldr	r1, [r0]
	movs	r0, #0
	.loc	12 1457 19                      @ rt-thread/components/net/lwip-2.0.2/src/core/tcp_out.c:1457:19
	str	r0, [sp, #8]                    @ 4-byte Spill
	cbz	r1, .LBB12_5
	b	.LBB12_4
.LBB12_4:                               @   in Loop: Header=BB12_3 Depth=1
	.loc	12 1458 5 is_stmt 1             @ rt-thread/components/net/lwip-2.0.2/src/core/tcp_out.c:1458:5
	ldr	r0, [sp, #12]
	ldr	r0, [r0]
	ldr	r0, [r0, #12]
	ldr	r0, [r0, #4]
	bl	lwip_htonl
	str	r0, [sp, #4]                    @ 4-byte Spill
	ldr	r0, [sp, #16]
	ldr	r0, [r0, #12]
	ldr	r0, [r0, #4]
	bl	lwip_htonl
	mov	r1, r0
	ldr	r0, [sp, #4]                    @ 4-byte Reload
	subs	r0, r0, r1
	lsrs	r0, r0, #31
	str	r0, [sp, #8]                    @ 4-byte Spill
	b	.LBB12_5
.LBB12_5:                               @   in Loop: Header=BB12_3 Depth=1
	.loc	12 0 0 is_stmt 0                @ rt-thread/components/net/lwip-2.0.2/src/core/tcp_out.c:0:0
	ldr	r0, [sp, #8]                    @ 4-byte Reload
	.loc	12 1457 3 is_stmt 1             @ rt-thread/components/net/lwip-2.0.2/src/core/tcp_out.c:1457:3
	lsls	r0, r0, #31
	cbz	r0, .LBB12_7
	b	.LBB12_6
.LBB12_6:                               @   in Loop: Header=BB12_3 Depth=1
.Ltmp530:
	.loc	12 1459 21                      @ rt-thread/components/net/lwip-2.0.2/src/core/tcp_out.c:1459:21
	ldr	r0, [sp, #12]
	.loc	12 1459 20 is_stmt 0            @ rt-thread/components/net/lwip-2.0.2/src/core/tcp_out.c:1459:20
	ldr	r0, [r0]
	.loc	12 1459 15                      @ rt-thread/components/net/lwip-2.0.2/src/core/tcp_out.c:1459:15
	str	r0, [sp, #12]
.Ltmp531:
	.loc	12 1457 3 is_stmt 1             @ rt-thread/components/net/lwip-2.0.2/src/core/tcp_out.c:1457:3
	b	.LBB12_3
.LBB12_7:
	.loc	12 1461 16                      @ rt-thread/components/net/lwip-2.0.2/src/core/tcp_out.c:1461:16
	ldr	r0, [sp, #12]
	.loc	12 1461 15 is_stmt 0            @ rt-thread/components/net/lwip-2.0.2/src/core/tcp_out.c:1461:15
	ldr	r0, [r0]
	.loc	12 1461 3                       @ rt-thread/components/net/lwip-2.0.2/src/core/tcp_out.c:1461:3
	ldr	r1, [sp, #16]
	.loc	12 1461 13                      @ rt-thread/components/net/lwip-2.0.2/src/core/tcp_out.c:1461:13
	str	r0, [r1]
	.loc	12 1462 14 is_stmt 1            @ rt-thread/components/net/lwip-2.0.2/src/core/tcp_out.c:1462:14
	ldr	r0, [sp, #16]
	.loc	12 1462 4 is_stmt 0             @ rt-thread/components/net/lwip-2.0.2/src/core/tcp_out.c:1462:4
	ldr	r1, [sp, #12]
	.loc	12 1462 12                      @ rt-thread/components/net/lwip-2.0.2/src/core/tcp_out.c:1462:12
	str	r0, [r1]
.Ltmp532:
	.loc	12 1464 7 is_stmt 1             @ rt-thread/components/net/lwip-2.0.2/src/core/tcp_out.c:1464:7
	ldr	r0, [sp, #16]
	.loc	12 1464 12 is_stmt 0            @ rt-thread/components/net/lwip-2.0.2/src/core/tcp_out.c:1464:12
	ldr	r0, [r0]
.Ltmp533:
	.loc	12 1464 7                       @ rt-thread/components/net/lwip-2.0.2/src/core/tcp_out.c:1464:7
	cbnz	r0, .LBB12_9
	b	.LBB12_8
.LBB12_8:
.Ltmp534:
	.loc	12 1466 5 is_stmt 1             @ rt-thread/components/net/lwip-2.0.2/src/core/tcp_out.c:1466:5
	ldr	r1, [sp, #20]
	movs	r0, #0
	.loc	12 1466 26 is_stmt 0            @ rt-thread/components/net/lwip-2.0.2/src/core/tcp_out.c:1466:26
	strh.w	r0, [r1, #100]
	.loc	12 1467 3 is_stmt 1             @ rt-thread/components/net/lwip-2.0.2/src/core/tcp_out.c:1467:3
	b	.LBB12_9
.Ltmp535:
.LBB12_9:
	.loc	12 1470 7                       @ rt-thread/components/net/lwip-2.0.2/src/core/tcp_out.c:1470:7
	ldr	r0, [sp, #20]
	.loc	12 1470 12 is_stmt 0            @ rt-thread/components/net/lwip-2.0.2/src/core/tcp_out.c:1470:12
	ldrb.w	r0, [r0, #66]
.Ltmp536:
	.loc	12 1470 7                       @ rt-thread/components/net/lwip-2.0.2/src/core/tcp_out.c:1470:7
	cmp	r0, #254
	bgt	.LBB12_11
	b	.LBB12_10
.LBB12_10:
.Ltmp537:
	.loc	12 1471 7 is_stmt 1             @ rt-thread/components/net/lwip-2.0.2/src/core/tcp_out.c:1471:7
	ldr	r1, [sp, #20]
	.loc	12 1471 5 is_stmt 0             @ rt-thread/components/net/lwip-2.0.2/src/core/tcp_out.c:1471:5
	ldrb.w	r0, [r1, #66]
	adds	r0, #1
	strb.w	r0, [r1, #66]
	.loc	12 1472 3 is_stmt 1             @ rt-thread/components/net/lwip-2.0.2/src/core/tcp_out.c:1472:3
	b	.LBB12_11
.Ltmp538:
.LBB12_11:
	.loc	12 1475 3                       @ rt-thread/components/net/lwip-2.0.2/src/core/tcp_out.c:1475:3
	ldr	r1, [sp, #20]
	movs	r0, #0
	.loc	12 1475 15 is_stmt 0            @ rt-thread/components/net/lwip-2.0.2/src/core/tcp_out.c:1475:15
	str	r0, [r1, #52]
	.loc	12 1481 1 is_stmt 1             @ rt-thread/components/net/lwip-2.0.2/src/core/tcp_out.c:1481:1
	b	.LBB12_12
.LBB12_12:
	add	sp, #24
	pop	{r7, pc}
.Ltmp539:
.Lfunc_end12:
	.size	tcp_rexmit, .Lfunc_end12-tcp_rexmit
	.cfi_endproc
	.cantunwind
	.fnend
                                        @ -- End function
	.section	.text.tcp_rexmit_fast,"ax",%progbits
	.hidden	tcp_rexmit_fast                 @ -- Begin function tcp_rexmit_fast
	.globl	tcp_rexmit_fast
	.p2align	3
	.type	tcp_rexmit_fast,%function
	.code	16                              @ @tcp_rexmit_fast
	.thumb_func
tcp_rexmit_fast:
.Lfunc_begin13:
	.loc	12 1491 0                       @ rt-thread/components/net/lwip-2.0.2/src/core/tcp_out.c:1491:0
	.fnstart
	.cfi_startproc
@ %bb.0:
	.save	{r7, lr}
	push	{r7, lr}
	.cfi_def_cfa_offset 8
	.cfi_offset lr, -4
	.cfi_offset r7, -8
	.pad	#8
	sub	sp, #8
	.cfi_def_cfa_offset 16
	str	r0, [sp, #4]
.Ltmp540:
	.loc	12 1492 7 prologue_end          @ rt-thread/components/net/lwip-2.0.2/src/core/tcp_out.c:1492:7
	ldr	r0, [sp, #4]
	.loc	12 1492 12 is_stmt 0            @ rt-thread/components/net/lwip-2.0.2/src/core/tcp_out.c:1492:12
	ldr	r0, [r0, #108]
	.loc	12 1492 28                      @ rt-thread/components/net/lwip-2.0.2/src/core/tcp_out.c:1492:28
	cmp	r0, #0
	beq	.LBB13_8
	b	.LBB13_1
.LBB13_1:
	.loc	12 1492 33                      @ rt-thread/components/net/lwip-2.0.2/src/core/tcp_out.c:1492:33
	ldr	r0, [sp, #4]
	ldrb	r0, [r0, #26]
.Ltmp541:
	.loc	12 1492 7                       @ rt-thread/components/net/lwip-2.0.2/src/core/tcp_out.c:1492:7
	lsls	r0, r0, #29
	cmp	r0, #0
	bmi	.LBB13_8
	b	.LBB13_2
.LBB13_2:
.Ltmp542:
	.loc	12 1499 16 is_stmt 1            @ rt-thread/components/net/lwip-2.0.2/src/core/tcp_out.c:1499:16
	ldr	r0, [sp, #4]
	.loc	12 1499 5 is_stmt 0             @ rt-thread/components/net/lwip-2.0.2/src/core/tcp_out.c:1499:5
	bl	tcp_rexmit
	.loc	12 1503 21 is_stmt 1            @ rt-thread/components/net/lwip-2.0.2/src/core/tcp_out.c:1503:21
	ldr	r1, [sp, #4]
	ldrh.w	r0, [r1, #72]
	ldrh.w	r1, [r1, #92]
	cmp	r0, r1
	bge	.LBB13_4
	b	.LBB13_3
.LBB13_3:
	ldr	r0, [sp, #4]
	ldrh.w	r0, [r0, #72]
	str	r0, [sp]                        @ 4-byte Spill
	b	.LBB13_5
.LBB13_4:
	ldr	r0, [sp, #4]
	ldrh.w	r0, [r0, #92]
	str	r0, [sp]                        @ 4-byte Spill
	b	.LBB13_5
.LBB13_5:
	ldr	r0, [sp]                        @ 4-byte Reload
	.loc	12 1503 55 is_stmt 0            @ rt-thread/components/net/lwip-2.0.2/src/core/tcp_out.c:1503:55
	add.w	r0, r0, r0, lsr #31
	lsrs	r0, r0, #1
	.loc	12 1503 5                       @ rt-thread/components/net/lwip-2.0.2/src/core/tcp_out.c:1503:5
	ldr	r1, [sp, #4]
	.loc	12 1503 19                      @ rt-thread/components/net/lwip-2.0.2/src/core/tcp_out.c:1503:19
	strh.w	r0, [r1, #74]
.Ltmp543:
	.loc	12 1506 9 is_stmt 1             @ rt-thread/components/net/lwip-2.0.2/src/core/tcp_out.c:1506:9
	ldr	r1, [sp, #4]
	.loc	12 1506 14 is_stmt 0            @ rt-thread/components/net/lwip-2.0.2/src/core/tcp_out.c:1506:14
	ldrh.w	r0, [r1, #74]
	.loc	12 1506 36                      @ rt-thread/components/net/lwip-2.0.2/src/core/tcp_out.c:1506:36
	ldrh	r1, [r1, #50]
.Ltmp544:
	.loc	12 1506 9                       @ rt-thread/components/net/lwip-2.0.2/src/core/tcp_out.c:1506:9
	cmp.w	r0, r1, lsl #1
	bhs	.LBB13_7
	b	.LBB13_6
.LBB13_6:
.Ltmp545:
	.loc	12 1511 25 is_stmt 1            @ rt-thread/components/net/lwip-2.0.2/src/core/tcp_out.c:1511:25
	ldr	r1, [sp, #4]
	ldrh	r0, [r1, #50]
	.loc	12 1511 24 is_stmt 0            @ rt-thread/components/net/lwip-2.0.2/src/core/tcp_out.c:1511:24
	lsls	r0, r0, #1
	.loc	12 1511 21                      @ rt-thread/components/net/lwip-2.0.2/src/core/tcp_out.c:1511:21
	strh.w	r0, [r1, #74]
	.loc	12 1512 5 is_stmt 1             @ rt-thread/components/net/lwip-2.0.2/src/core/tcp_out.c:1512:5
	b	.LBB13_7
.Ltmp546:
.LBB13_7:
	.loc	12 1514 17                      @ rt-thread/components/net/lwip-2.0.2/src/core/tcp_out.c:1514:17
	ldr	r1, [sp, #4]
	ldrh.w	r0, [r1, #74]
	.loc	12 1514 37 is_stmt 0            @ rt-thread/components/net/lwip-2.0.2/src/core/tcp_out.c:1514:37
	ldrh	r2, [r1, #50]
	.loc	12 1514 35                      @ rt-thread/components/net/lwip-2.0.2/src/core/tcp_out.c:1514:35
	add.w	r2, r2, r2, lsl #1
	.loc	12 1514 31                      @ rt-thread/components/net/lwip-2.0.2/src/core/tcp_out.c:1514:31
	add	r0, r2
	.loc	12 1514 15                      @ rt-thread/components/net/lwip-2.0.2/src/core/tcp_out.c:1514:15
	strh.w	r0, [r1, #72]
	.loc	12 1515 5 is_stmt 1             @ rt-thread/components/net/lwip-2.0.2/src/core/tcp_out.c:1515:5
	ldr	r1, [sp, #4]
	.loc	12 1515 16 is_stmt 0            @ rt-thread/components/net/lwip-2.0.2/src/core/tcp_out.c:1515:16
	ldrb	r0, [r1, #26]
	orr	r0, r0, #4
	strb	r0, [r1, #26]
	.loc	12 1518 5 is_stmt 1             @ rt-thread/components/net/lwip-2.0.2/src/core/tcp_out.c:1518:5
	ldr	r1, [sp, #4]
	movs	r0, #0
	.loc	12 1518 16 is_stmt 0            @ rt-thread/components/net/lwip-2.0.2/src/core/tcp_out.c:1518:16
	strh	r0, [r1, #48]
	.loc	12 1519 3 is_stmt 1             @ rt-thread/components/net/lwip-2.0.2/src/core/tcp_out.c:1519:3
	b	.LBB13_8
.Ltmp547:
.LBB13_8:
	.loc	12 1520 1                       @ rt-thread/components/net/lwip-2.0.2/src/core/tcp_out.c:1520:1
	add	sp, #8
	pop	{r7, pc}
.Ltmp548:
.Lfunc_end13:
	.size	tcp_rexmit_fast, .Lfunc_end13-tcp_rexmit_fast
	.cfi_endproc
	.cantunwind
	.fnend
                                        @ -- End function
	.section	.text.tcp_keepalive,"ax",%progbits
	.hidden	tcp_keepalive                   @ -- Begin function tcp_keepalive
	.globl	tcp_keepalive
	.p2align	3
	.type	tcp_keepalive,%function
	.code	16                              @ @tcp_keepalive
	.thumb_func
tcp_keepalive:
.Lfunc_begin14:
	.loc	12 1533 0                       @ rt-thread/components/net/lwip-2.0.2/src/core/tcp_out.c:1533:0
	.fnstart
	.cfi_startproc
@ %bb.0:
	.save	{r4, lr}
	push	{r4, lr}
	.cfi_def_cfa_offset 8
	.cfi_offset lr, -4
	.cfi_offset r4, -8
	.pad	#48
	sub	sp, #48
	.cfi_def_cfa_offset 56
	str	r0, [sp, #40]
.Ltmp549:
	.loc	12 1545 31 prologue_end         @ rt-thread/components/net/lwip-2.0.2/src/core/tcp_out.c:1545:31
	ldr	r0, [sp, #40]
	.loc	12 1545 58 is_stmt 0            @ rt-thread/components/net/lwip-2.0.2/src/core/tcp_out.c:1545:58
	str	r0, [sp, #20]                   @ 4-byte Spill
	ldr	r0, [r0, #76]
	.loc	12 1545 66                      @ rt-thread/components/net/lwip-2.0.2/src/core/tcp_out.c:1545:66
	subs	r0, #1
	.loc	12 1545 42                      @ rt-thread/components/net/lwip-2.0.2/src/core/tcp_out.c:1545:42
	bl	lwip_htonl
	mov	r3, r0
	.loc	12 1545 7                       @ rt-thread/components/net/lwip-2.0.2/src/core/tcp_out.c:1545:7
	ldr	r0, [sp, #20]                   @ 4-byte Reload
	movs	r2, #0
	mov	r1, r2
	bl	tcp_output_alloc_header
	.loc	12 1545 5                       @ rt-thread/components/net/lwip-2.0.2/src/core/tcp_out.c:1545:5
	str	r0, [sp, #32]
.Ltmp550:
	.loc	12 1546 7 is_stmt 1             @ rt-thread/components/net/lwip-2.0.2/src/core/tcp_out.c:1546:7
	ldr	r0, [sp, #32]
.Ltmp551:
	.loc	12 1546 7 is_stmt 0             @ rt-thread/components/net/lwip-2.0.2/src/core/tcp_out.c:1546:7
	cbnz	r0, .LBB14_2
	b	.LBB14_1
.LBB14_1:
	.loc	12 0 7                          @ rt-thread/components/net/lwip-2.0.2/src/core/tcp_out.c:0:7
	movs	r0, #255
.Ltmp552:
	.loc	12 1549 5 is_stmt 1             @ rt-thread/components/net/lwip-2.0.2/src/core/tcp_out.c:1549:5
	strb.w	r0, [sp, #47]
	b	.LBB14_6
.Ltmp553:
.LBB14_2:
	.loc	12 1551 11                      @ rt-thread/components/net/lwip-2.0.2/src/core/tcp_out.c:1551:11
	ldr	r0, [sp, #40]
	adds	r0, #4
	bl	ip4_route
	.loc	12 1551 9 is_stmt 0             @ rt-thread/components/net/lwip-2.0.2/src/core/tcp_out.c:1551:9
	str	r0, [sp, #28]
.Ltmp554:
	.loc	12 1552 7 is_stmt 1             @ rt-thread/components/net/lwip-2.0.2/src/core/tcp_out.c:1552:7
	ldr	r0, [sp, #28]
.Ltmp555:
	.loc	12 1552 7 is_stmt 0             @ rt-thread/components/net/lwip-2.0.2/src/core/tcp_out.c:1552:7
	cbnz	r0, .LBB14_4
	b	.LBB14_3
.LBB14_3:
	.loc	12 0 7                          @ rt-thread/components/net/lwip-2.0.2/src/core/tcp_out.c:0:7
	movs	r0, #252
.Ltmp556:
	.loc	12 1553 9 is_stmt 1             @ rt-thread/components/net/lwip-2.0.2/src/core/tcp_out.c:1553:9
	strb.w	r0, [sp, #39]
	.loc	12 1554 3                       @ rt-thread/components/net/lwip-2.0.2/src/core/tcp_out.c:1554:3
	b	.LBB14_5
.Ltmp557:
.LBB14_4:
	.loc	12 1557 50                      @ rt-thread/components/net/lwip-2.0.2/src/core/tcp_out.c:1557:50
	ldr	r0, [sp, #32]
	.loc	12 1557 53 is_stmt 0            @ rt-thread/components/net/lwip-2.0.2/src/core/tcp_out.c:1557:53
	ldr	r0, [r0, #4]
	.loc	12 1557 23                      @ rt-thread/components/net/lwip-2.0.2/src/core/tcp_out.c:1557:23
	str	r0, [sp, #24]
	.loc	12 1558 41 is_stmt 1            @ rt-thread/components/net/lwip-2.0.2/src/core/tcp_out.c:1558:41
	ldr	r0, [sp, #32]
	.loc	12 1558 61 is_stmt 0            @ rt-thread/components/net/lwip-2.0.2/src/core/tcp_out.c:1558:61
	ldrh	r2, [r0, #8]
	.loc	12 1559 10 is_stmt 1            @ rt-thread/components/net/lwip-2.0.2/src/core/tcp_out.c:1559:10
	ldr	r3, [sp, #40]
	.loc	12 1559 31 is_stmt 0            @ rt-thread/components/net/lwip-2.0.2/src/core/tcp_out.c:1559:31
	adds	r1, r3, #4
	.loc	12 1558 24 is_stmt 1            @ rt-thread/components/net/lwip-2.0.2/src/core/tcp_out.c:1558:24
	mov	r12, sp
	str.w	r1, [r12]
	movs	r1, #6
	str	r1, [sp, #16]                   @ 4-byte Spill
	bl	ip_chksum_pseudo
	ldr.w	r12, [sp, #16]                  @ 4-byte Reload
	.loc	12 1558 7 is_stmt 0             @ rt-thread/components/net/lwip-2.0.2/src/core/tcp_out.c:1558:7
	ldr	r1, [sp, #24]
	.loc	12 1558 22                      @ rt-thread/components/net/lwip-2.0.2/src/core/tcp_out.c:1558:22
	strh	r0, [r1, #16]
.Ltmp558:
	.loc	12 1566 11 is_stmt 1            @ rt-thread/components/net/lwip-2.0.2/src/core/tcp_out.c:1566:11
	ldr	r0, [sp, #32]
	ldr	r1, [sp, #40]
	adds	r2, r1, #4
	ldrb	r3, [r1, #10]
	ldr	r4, [sp, #28]
	mov	lr, sp
	str.w	r4, [lr, #8]
	str.w	r12, [lr, #4]
	mov.w	r12, #0
	str.w	r12, [lr]
	bl	ip4_output_if
	.loc	12 1566 9 is_stmt 0             @ rt-thread/components/net/lwip-2.0.2/src/core/tcp_out.c:1566:9
	strb.w	r0, [sp, #39]
	b	.LBB14_5
.Ltmp559:
.LBB14_5:
	.loc	12 1569 13 is_stmt 1            @ rt-thread/components/net/lwip-2.0.2/src/core/tcp_out.c:1569:13
	ldr	r0, [sp, #32]
	.loc	12 1569 3 is_stmt 0             @ rt-thread/components/net/lwip-2.0.2/src/core/tcp_out.c:1569:3
	bl	pbuf_free
	.loc	12 1573 10 is_stmt 1            @ rt-thread/components/net/lwip-2.0.2/src/core/tcp_out.c:1573:10
	ldrb.w	r0, [sp, #39]
	.loc	12 1573 3 is_stmt 0             @ rt-thread/components/net/lwip-2.0.2/src/core/tcp_out.c:1573:3
	strb.w	r0, [sp, #47]
	b	.LBB14_6
.LBB14_6:
	.loc	12 1574 1 is_stmt 1             @ rt-thread/components/net/lwip-2.0.2/src/core/tcp_out.c:1574:1
	ldrsb.w	r0, [sp, #47]
	add	sp, #48
	pop	{r4, pc}
.Ltmp560:
.Lfunc_end14:
	.size	tcp_keepalive, .Lfunc_end14-tcp_keepalive
	.cfi_endproc
	.cantunwind
	.fnend
                                        @ -- End function
	.section	.text.tcp_zero_window_probe,"ax",%progbits
	.hidden	tcp_zero_window_probe           @ -- Begin function tcp_zero_window_probe
	.globl	tcp_zero_window_probe
	.p2align	3
	.type	tcp_zero_window_probe,%function
	.code	16                              @ @tcp_zero_window_probe
	.thumb_func
tcp_zero_window_probe:
.Lfunc_begin15:
	.loc	12 1587 0                       @ rt-thread/components/net/lwip-2.0.2/src/core/tcp_out.c:1587:0
	.fnstart
	.cfi_startproc
@ %bb.0:
	.save	{r4, lr}
	push	{r4, lr}
	.cfi_def_cfa_offset 8
	.cfi_offset lr, -4
	.cfi_offset r4, -8
	.pad	#64
	sub	sp, #64
	.cfi_def_cfa_offset 72
	str	r0, [sp, #56]
.Ltmp561:
	.loc	12 1606 9 prologue_end          @ rt-thread/components/net/lwip-2.0.2/src/core/tcp_out.c:1606:9
	ldr	r0, [sp, #56]
	.loc	12 1606 14 is_stmt 0            @ rt-thread/components/net/lwip-2.0.2/src/core/tcp_out.c:1606:14
	ldr	r0, [r0, #108]
	.loc	12 1606 7                       @ rt-thread/components/net/lwip-2.0.2/src/core/tcp_out.c:1606:7
	str	r0, [sp, #40]
.Ltmp562:
	.loc	12 1608 7 is_stmt 1             @ rt-thread/components/net/lwip-2.0.2/src/core/tcp_out.c:1608:7
	ldr	r0, [sp, #40]
.Ltmp563:
	.loc	12 1608 7 is_stmt 0             @ rt-thread/components/net/lwip-2.0.2/src/core/tcp_out.c:1608:7
	cbnz	r0, .LBB15_2
	b	.LBB15_1
.LBB15_1:
.Ltmp564:
	.loc	12 1609 11 is_stmt 1            @ rt-thread/components/net/lwip-2.0.2/src/core/tcp_out.c:1609:11
	ldr	r0, [sp, #56]
	.loc	12 1609 16 is_stmt 0            @ rt-thread/components/net/lwip-2.0.2/src/core/tcp_out.c:1609:16
	ldr	r0, [r0, #104]
	.loc	12 1609 9                       @ rt-thread/components/net/lwip-2.0.2/src/core/tcp_out.c:1609:9
	str	r0, [sp, #40]
	.loc	12 1610 3 is_stmt 1             @ rt-thread/components/net/lwip-2.0.2/src/core/tcp_out.c:1610:3
	b	.LBB15_2
.Ltmp565:
.LBB15_2:
	.loc	12 1611 7                       @ rt-thread/components/net/lwip-2.0.2/src/core/tcp_out.c:1611:7
	ldr	r0, [sp, #40]
.Ltmp566:
	.loc	12 1611 7 is_stmt 0             @ rt-thread/components/net/lwip-2.0.2/src/core/tcp_out.c:1611:7
	cbnz	r0, .LBB15_4
	b	.LBB15_3
.LBB15_3:
	.loc	12 0 7                          @ rt-thread/components/net/lwip-2.0.2/src/core/tcp_out.c:0:7
	movs	r0, #0
.Ltmp567:
	.loc	12 1613 5 is_stmt 1             @ rt-thread/components/net/lwip-2.0.2/src/core/tcp_out.c:1613:5
	strb.w	r0, [sp, #63]
	b	.LBB15_17
.Ltmp568:
.LBB15_4:
	.loc	12 1616 14                      @ rt-thread/components/net/lwip-2.0.2/src/core/tcp_out.c:1616:14
	ldr	r0, [sp, #40]
	ldr	r0, [r0, #12]
	ldrh	r0, [r0, #12]
	bl	lwip_htons
	mov	r1, r0
	movs	r0, #0
	.loc	12 1616 55 is_stmt 0            @ rt-thread/components/net/lwip-2.0.2/src/core/tcp_out.c:1616:55
	lsls	r1, r1, #31
	str	r0, [sp, #20]                   @ 4-byte Spill
	cbz	r1, .LBB15_6
	b	.LBB15_5
.LBB15_5:
	.loc	12 1616 59                      @ rt-thread/components/net/lwip-2.0.2/src/core/tcp_out.c:1616:59
	ldr	r0, [sp, #40]
	.loc	12 1616 64                      @ rt-thread/components/net/lwip-2.0.2/src/core/tcp_out.c:1616:64
	ldrh	r0, [r0, #8]
	.loc	12 1616 68                      @ rt-thread/components/net/lwip-2.0.2/src/core/tcp_out.c:1616:68
	clz	r0, r0
	lsrs	r0, r0, #5
	str	r0, [sp, #20]                   @ 4-byte Spill
	b	.LBB15_6
.LBB15_6:
	.loc	12 0 0                          @ rt-thread/components/net/lwip-2.0.2/src/core/tcp_out.c:0:0
	ldr	r0, [sp, #20]                   @ 4-byte Reload
	.loc	12 1616 12                      @ rt-thread/components/net/lwip-2.0.2/src/core/tcp_out.c:1616:12
	and	r0, r0, #1
	.loc	12 1616 10                      @ rt-thread/components/net/lwip-2.0.2/src/core/tcp_out.c:1616:10
	strb.w	r0, [sp, #37]
	.loc	12 1618 9 is_stmt 1             @ rt-thread/components/net/lwip-2.0.2/src/core/tcp_out.c:1618:9
	ldrb.w	r0, [sp, #37]
	clz	r0, r0
	lsrs	r0, r0, #5
	.loc	12 1618 7 is_stmt 0             @ rt-thread/components/net/lwip-2.0.2/src/core/tcp_out.c:1618:7
	strh.w	r0, [sp, #38]
	.loc	12 1620 31 is_stmt 1            @ rt-thread/components/net/lwip-2.0.2/src/core/tcp_out.c:1620:31
	ldr	r0, [sp, #56]
	.loc	12 1620 39 is_stmt 0            @ rt-thread/components/net/lwip-2.0.2/src/core/tcp_out.c:1620:39
	ldrh.w	r2, [sp, #38]
	.loc	12 1620 44                      @ rt-thread/components/net/lwip-2.0.2/src/core/tcp_out.c:1620:44
	ldr	r1, [sp, #40]
	.loc	12 1620 49                      @ rt-thread/components/net/lwip-2.0.2/src/core/tcp_out.c:1620:49
	ldr	r1, [r1, #12]
	.loc	12 1620 57                      @ rt-thread/components/net/lwip-2.0.2/src/core/tcp_out.c:1620:57
	ldr	r3, [r1, #4]
	movs	r1, #0
	.loc	12 1620 7                       @ rt-thread/components/net/lwip-2.0.2/src/core/tcp_out.c:1620:7
	bl	tcp_output_alloc_header
	.loc	12 1620 5                       @ rt-thread/components/net/lwip-2.0.2/src/core/tcp_out.c:1620:5
	str	r0, [sp, #48]
.Ltmp569:
	.loc	12 1621 7 is_stmt 1             @ rt-thread/components/net/lwip-2.0.2/src/core/tcp_out.c:1621:7
	ldr	r0, [sp, #48]
.Ltmp570:
	.loc	12 1621 7 is_stmt 0             @ rt-thread/components/net/lwip-2.0.2/src/core/tcp_out.c:1621:7
	cbnz	r0, .LBB15_8
	b	.LBB15_7
.LBB15_7:
	.loc	12 0 7                          @ rt-thread/components/net/lwip-2.0.2/src/core/tcp_out.c:0:7
	movs	r0, #255
.Ltmp571:
	.loc	12 1623 5 is_stmt 1             @ rt-thread/components/net/lwip-2.0.2/src/core/tcp_out.c:1623:5
	strb.w	r0, [sp, #63]
	b	.LBB15_17
.Ltmp572:
.LBB15_8:
	.loc	12 1625 30                      @ rt-thread/components/net/lwip-2.0.2/src/core/tcp_out.c:1625:30
	ldr	r0, [sp, #48]
	.loc	12 1625 33 is_stmt 0            @ rt-thread/components/net/lwip-2.0.2/src/core/tcp_out.c:1625:33
	ldr	r0, [r0, #4]
	.loc	12 1625 10                      @ rt-thread/components/net/lwip-2.0.2/src/core/tcp_out.c:1625:10
	str	r0, [sp, #44]
.Ltmp573:
	.loc	12 1627 7 is_stmt 1             @ rt-thread/components/net/lwip-2.0.2/src/core/tcp_out.c:1627:7
	ldrb.w	r0, [sp, #37]
.Ltmp574:
	.loc	12 1627 7 is_stmt 0             @ rt-thread/components/net/lwip-2.0.2/src/core/tcp_out.c:1627:7
	cbz	r0, .LBB15_10
	b	.LBB15_9
.LBB15_9:
.Ltmp575:
	.loc	12 1629 5 is_stmt 1             @ rt-thread/components/net/lwip-2.0.2/src/core/tcp_out.c:1629:5
	ldr	r0, [sp, #44]
	ldrh	r0, [r0, #12]
	bic	r0, r0, #16128
	str	r0, [sp, #16]                   @ 4-byte Spill
	movs	r0, #17
	bl	lwip_htons
	mov	r1, r0
	ldr	r0, [sp, #16]                   @ 4-byte Reload
	orrs	r0, r1
	ldr	r1, [sp, #44]
	strh	r0, [r1, #12]
	.loc	12 1630 3                       @ rt-thread/components/net/lwip-2.0.2/src/core/tcp_out.c:1630:3
	b	.LBB15_11
.Ltmp576:
.LBB15_10:
	.loc	12 1632 24                      @ rt-thread/components/net/lwip-2.0.2/src/core/tcp_out.c:1632:24
	ldr	r0, [sp, #48]
	.loc	12 1632 27 is_stmt 0            @ rt-thread/components/net/lwip-2.0.2/src/core/tcp_out.c:1632:27
	ldr	r0, [r0, #4]
	.loc	12 1632 35                      @ rt-thread/components/net/lwip-2.0.2/src/core/tcp_out.c:1632:35
	adds	r0, #20
	.loc	12 1632 11                      @ rt-thread/components/net/lwip-2.0.2/src/core/tcp_out.c:1632:11
	str	r0, [sp, #24]
	.loc	12 1636 23 is_stmt 1            @ rt-thread/components/net/lwip-2.0.2/src/core/tcp_out.c:1636:23
	ldr	r3, [sp, #40]
	.loc	12 1636 28 is_stmt 0            @ rt-thread/components/net/lwip-2.0.2/src/core/tcp_out.c:1636:28
	ldr	r0, [r3, #4]
	.loc	12 1636 31                      @ rt-thread/components/net/lwip-2.0.2/src/core/tcp_out.c:1636:31
	ldr	r1, [sp, #24]
	.loc	12 1636 37                      @ rt-thread/components/net/lwip-2.0.2/src/core/tcp_out.c:1636:37
	ldrh	r2, [r0, #8]
	.loc	12 1636 55                      @ rt-thread/components/net/lwip-2.0.2/src/core/tcp_out.c:1636:55
	ldrh	r3, [r3, #8]
	.loc	12 1636 53                      @ rt-thread/components/net/lwip-2.0.2/src/core/tcp_out.c:1636:53
	subs	r2, r2, r3
	.loc	12 1636 5                       @ rt-thread/components/net/lwip-2.0.2/src/core/tcp_out.c:1636:5
	uxth	r3, r2
	movs	r2, #1
	bl	pbuf_copy_partial
	b	.LBB15_11
.Ltmp577:
.LBB15_11:
	.loc	12 1640 13 is_stmt 1            @ rt-thread/components/net/lwip-2.0.2/src/core/tcp_out.c:1640:13
	ldr	r0, [sp, #40]
	ldr	r0, [r0, #12]
	ldr	r0, [r0, #4]
	bl	lwip_htonl
	.loc	12 1640 44 is_stmt 0            @ rt-thread/components/net/lwip-2.0.2/src/core/tcp_out.c:1640:44
	adds	r0, #1
	.loc	12 1640 11                      @ rt-thread/components/net/lwip-2.0.2/src/core/tcp_out.c:1640:11
	str	r0, [sp, #32]
.Ltmp578:
	.loc	12 1641 7 is_stmt 1             @ rt-thread/components/net/lwip-2.0.2/src/core/tcp_out.c:1641:7
	ldr	r0, [sp, #56]
	ldr	r0, [r0, #76]
	ldr	r1, [sp, #32]
	subs	r0, r0, r1
.Ltmp579:
	.loc	12 1641 7 is_stmt 0             @ rt-thread/components/net/lwip-2.0.2/src/core/tcp_out.c:1641:7
	cmp.w	r0, #-1
	bgt	.LBB15_13
	b	.LBB15_12
.LBB15_12:
.Ltmp580:
	.loc	12 1642 20 is_stmt 1            @ rt-thread/components/net/lwip-2.0.2/src/core/tcp_out.c:1642:20
	ldr	r0, [sp, #32]
	.loc	12 1642 5 is_stmt 0             @ rt-thread/components/net/lwip-2.0.2/src/core/tcp_out.c:1642:5
	ldr	r1, [sp, #56]
	.loc	12 1642 18                      @ rt-thread/components/net/lwip-2.0.2/src/core/tcp_out.c:1642:18
	str	r0, [r1, #76]
	.loc	12 1643 3 is_stmt 1             @ rt-thread/components/net/lwip-2.0.2/src/core/tcp_out.c:1643:3
	b	.LBB15_13
.Ltmp581:
.LBB15_13:
	.loc	12 1645 11                      @ rt-thread/components/net/lwip-2.0.2/src/core/tcp_out.c:1645:11
	ldr	r0, [sp, #56]
	adds	r0, #4
	bl	ip4_route
	.loc	12 1645 9 is_stmt 0             @ rt-thread/components/net/lwip-2.0.2/src/core/tcp_out.c:1645:9
	str	r0, [sp, #28]
.Ltmp582:
	.loc	12 1646 7 is_stmt 1             @ rt-thread/components/net/lwip-2.0.2/src/core/tcp_out.c:1646:7
	ldr	r0, [sp, #28]
.Ltmp583:
	.loc	12 1646 7 is_stmt 0             @ rt-thread/components/net/lwip-2.0.2/src/core/tcp_out.c:1646:7
	cbnz	r0, .LBB15_15
	b	.LBB15_14
.LBB15_14:
	.loc	12 0 7                          @ rt-thread/components/net/lwip-2.0.2/src/core/tcp_out.c:0:7
	movs	r0, #252
.Ltmp584:
	.loc	12 1647 9 is_stmt 1             @ rt-thread/components/net/lwip-2.0.2/src/core/tcp_out.c:1647:9
	strb.w	r0, [sp, #55]
	.loc	12 1648 3                       @ rt-thread/components/net/lwip-2.0.2/src/core/tcp_out.c:1648:3
	b	.LBB15_16
.Ltmp585:
.LBB15_15:
	.loc	12 1651 41                      @ rt-thread/components/net/lwip-2.0.2/src/core/tcp_out.c:1651:41
	ldr	r0, [sp, #48]
	.loc	12 1651 61 is_stmt 0            @ rt-thread/components/net/lwip-2.0.2/src/core/tcp_out.c:1651:61
	ldrh	r2, [r0, #8]
	.loc	12 1652 10 is_stmt 1            @ rt-thread/components/net/lwip-2.0.2/src/core/tcp_out.c:1652:10
	ldr	r3, [sp, #56]
	.loc	12 1652 31 is_stmt 0            @ rt-thread/components/net/lwip-2.0.2/src/core/tcp_out.c:1652:31
	adds	r1, r3, #4
	.loc	12 1651 24 is_stmt 1            @ rt-thread/components/net/lwip-2.0.2/src/core/tcp_out.c:1651:24
	mov	r12, sp
	str.w	r1, [r12]
	movs	r1, #6
	str	r1, [sp, #12]                   @ 4-byte Spill
	bl	ip_chksum_pseudo
	ldr.w	r12, [sp, #12]                  @ 4-byte Reload
	.loc	12 1651 7 is_stmt 0             @ rt-thread/components/net/lwip-2.0.2/src/core/tcp_out.c:1651:7
	ldr	r1, [sp, #44]
	.loc	12 1651 22                      @ rt-thread/components/net/lwip-2.0.2/src/core/tcp_out.c:1651:22
	strh	r0, [r1, #16]
.Ltmp586:
	.loc	12 1659 11 is_stmt 1            @ rt-thread/components/net/lwip-2.0.2/src/core/tcp_out.c:1659:11
	ldr	r0, [sp, #48]
	ldr	r1, [sp, #56]
	adds	r2, r1, #4
	ldrb	r3, [r1, #10]
	ldr	r4, [sp, #28]
	mov	lr, sp
	str.w	r4, [lr, #8]
	str.w	r12, [lr, #4]
	mov.w	r12, #0
	str.w	r12, [lr]
	bl	ip4_output_if
	.loc	12 1659 9 is_stmt 0             @ rt-thread/components/net/lwip-2.0.2/src/core/tcp_out.c:1659:9
	strb.w	r0, [sp, #55]
	b	.LBB15_16
.Ltmp587:
.LBB15_16:
	.loc	12 1664 13 is_stmt 1            @ rt-thread/components/net/lwip-2.0.2/src/core/tcp_out.c:1664:13
	ldr	r0, [sp, #48]
	.loc	12 1664 3 is_stmt 0             @ rt-thread/components/net/lwip-2.0.2/src/core/tcp_out.c:1664:3
	bl	pbuf_free
	.loc	12 1669 10 is_stmt 1            @ rt-thread/components/net/lwip-2.0.2/src/core/tcp_out.c:1669:10
	ldrb.w	r0, [sp, #55]
	.loc	12 1669 3 is_stmt 0             @ rt-thread/components/net/lwip-2.0.2/src/core/tcp_out.c:1669:3
	strb.w	r0, [sp, #63]
	b	.LBB15_17
.LBB15_17:
	.loc	12 1670 1 is_stmt 1             @ rt-thread/components/net/lwip-2.0.2/src/core/tcp_out.c:1670:1
	ldrsb.w	r0, [sp, #63]
	add	sp, #64
	pop	{r4, pc}
.Ltmp588:
.Lfunc_end15:
	.size	tcp_zero_window_probe, .Lfunc_end15-tcp_zero_window_probe
	.cfi_endproc
	.cantunwind
	.fnend
                                        @ -- End function
	.type	.L.str,%object                  @ @.str
	.section	.rodata.str1.1,"aMS",%progbits,1
.L.str:
	.asciz	"tcp_write: arg == NULL (programmer violates API)"
	.size	.L.str, 49

	.type	.L.str.1,%object                @ @.str.1
.L.str.1:
	.asciz	"rt-thread/components/net/lwip-2.0.2/src/core/tcp_out.c"
	.size	.L.str.1, 55

	.type	.L.str.2,%object                @ @.str.2
.L.str.2:
	.asciz	"mss_local is too small"
	.size	.L.str.2, 23

	.type	.L.str.3,%object                @ @.str.3
.L.str.3:
	.asciz	"inconsistent oversize vs. space"
	.size	.L.str.3, 32

	.type	.L.str.4,%object                @ @.str.4
.L.str.4:
	.asciz	"inconsistent oversize vs. len"
	.size	.L.str.4, 30

	.type	.L.str.5,%object                @ @.str.5
.L.str.5:
	.asciz	"tcp_write: ROM pbufs cannot be oversized"
	.size	.L.str.5, 41

	.type	.L.str.6,%object                @ @.str.6
.L.str.6:
	.asciz	"unsent_oversize mismatch (pcb->unsent is NULL)"
	.size	.L.str.6, 47

	.type	.L.str.7,%object                @ @.str.7
.L.str.7:
	.asciz	"tcp_write: check that first pbuf can hold the complete seglen"
	.size	.L.str.7, 62

	.type	.L.str.8,%object                @ @.str.8
.L.str.8:
	.asciz	"oversize == 0"
	.size	.L.str.8, 14

	.type	.L.str.9,%object                @ @.str.9
.L.str.9:
	.asciz	"prev_seg != NULL"
	.size	.L.str.9, 17

	.type	.L.str.10,%object               @ @.str.10
.L.str.10:
	.asciz	"tcp_write: cannot concatenate when pcb->unsent is empty"
	.size	.L.str.10, 56

	.type	.L.str.11,%object               @ @.str.11
.L.str.11:
	.asciz	"tcp_write: extension of reference requires reference"
	.size	.L.str.11, 53

	.type	.L.str.12,%object               @ @.str.12
.L.str.12:
	.asciz	"tcp_write: valid queue length"
	.size	.L.str.12, 30

	.type	.L.str.13,%object               @ @.str.13
.L.str.13:
	.asciz	"tcp_enqueue_flags: need either TCP_SYN or TCP_FIN in flags (programmer violates API)"
	.size	.L.str.13, 85

	.type	.L.str.14,%object               @ @.str.14
.L.str.14:
	.asciz	"tcp_enqueue_flags: check that first pbuf can hold optlen"
	.size	.L.str.14, 57

	.type	.L.str.15,%object               @ @.str.15
.L.str.15:
	.asciz	"seg->tcphdr not aligned"
	.size	.L.str.15, 24

	.type	.L.str.16,%object               @ @.str.16
.L.str.16:
	.asciz	"tcp_enqueue_flags: invalid segment length"
	.size	.L.str.16, 42

	.type	.L.str.17,%object               @ @.str.17
.L.str.17:
	.asciz	"tcp_enqueue_flags: invalid queue length"
	.size	.L.str.17, 40

	.type	.L.str.18,%object               @ @.str.18
.L.str.18:
	.asciz	"don't call tcp_output for listen-pcbs"
	.size	.L.str.18, 38

	.type	.L.str.19,%object               @ @.str.19
.L.str.19:
	.asciz	"RST not expected here!"
	.size	.L.str.19, 23

	.type	.L.str.20,%object               @ @.str.20
.L.str.20:
	.asciz	"check that first pbuf can hold struct tcp_hdr"
	.size	.L.str.20, 46

	.type	.L.str.21,%object               @ @.str.21
.L.str.21:
	.asciz	"tcp_write: pbufs on queue => at least one queue non-empty"
	.size	.L.str.21, 58

	.type	.L.str.22,%object               @ @.str.22
.L.str.22:
	.asciz	"tcp_write: no pbufs on queue => both queues empty"
	.size	.L.str.22, 50

	.type	.L.str.23,%object               @ @.str.23
.L.str.23:
	.asciz	"need unchained pbuf"
	.size	.L.str.23, 20

	.type	.L.str.24,%object               @ @.str.24
.L.str.24:
	.asciz	"p->tot_len >= optlen"
	.size	.L.str.24, 21

	.section	".note.GNU-stack","",%progbits
	.eabi_attribute	30, 6	@ Tag_ABI_optimization_goals
	.ARM_attribute	16, 1	@ Tag_AV_eba