	.text
	.syntax unified
	.eabi_attribute	67, "2.09"	@ Tag_conformance
	.cpu	cortex-m7
	.eabi_attribute	6, 13	@ Tag_CPU_arch
	.eabi_attribute	7, 77	@ Tag_CPU_arch_profile
	.eabi_attribute	8, 0	@ Tag_ARM_ISA_use
	.eabi_attribute	9, 2	@ Tag_THUMB_ISA_use
	.fpu	fpv5-d16
	.eabi_attribute	36, 1	@ Tag_FP_HP_extension
	.eabi_attribute	34, 1	@ Tag_CPU_unaligned_access
	.eabi_attribute	17, 1	@ Tag_ABI_PCS_GOT_use
	.eabi_attribute	20, 2	@ Tag_ABI_FP_denormal
	.eabi_attribute	21, 0	@ Tag_ABI_FP_exceptions
	.eabi_attribute	23, 1	@ Tag_ABI_FP_number_model
	.eabi_attribute	24, 1	@ Tag_ABI_align_needed
	.eabi_attribute	25, 1	@ Tag_ABI_align_preserved
	.eabi_attribute	28, 1	@ Tag_ABI_VFP_args
	.eabi_attribute	38, 1	@ Tag_ABI_FP_16bit_format
	.eabi_attribute	18, 2	@ Tag_ABI_PCS_wchar_t
	.eabi_attribute	26, 1	@ Tag_ABI_enum_size
	.eabi_attribute	14, 0	@ Tag_ABI_PCS_R9_use
	.file	"tcp_in.c"
	.file	1 "E:\\Smart-access-control\\Hardware\\CODE" "./rt-thread/components/net/lwip-2.0.2/src/include\\lwip/priv/tcp_priv.h"
	.file	2 "E:\\Smart-access-control\\Hardware\\CODE" "./rt-thread/components/net/lwip-2.0.2/src/include\\lwip/pbuf.h"
	.file	3 "D:\\Keil_v5\\ARM\\ARMCLANG\\Bin\\..\\include" "stdint.h"
	.file	4 "E:\\Smart-access-control\\Hardware\\CODE" "./rt-thread/components/net/lwip-2.0.2/src/include\\lwip/arch.h"
	.file	5 "E:\\Smart-access-control\\Hardware\\CODE" "./rt-thread/components/net/lwip-2.0.2/src/include\\lwip/prot/tcp.h"
	.file	6 "E:\\Smart-access-control\\Hardware\\CODE" "rt-thread/components/net/lwip-2.0.2/src/core/tcp_in.c"
	.file	7 "E:\\Smart-access-control\\Hardware\\CODE" "./rt-thread/components/net/lwip-2.0.2/src/include\\lwip/tcp.h"
	.file	8 "E:\\Smart-access-control\\Hardware\\CODE" "./rt-thread/components/net/lwip-2.0.2/src/include\\lwip/ip4_addr.h"
	.file	9 "E:\\Smart-access-control\\Hardware\\CODE" "./rt-thread/components/net/lwip-2.0.2/src/include\\lwip/ip_addr.h"
	.file	10 "E:\\Smart-access-control\\Hardware\\CODE" "./rt-thread/components/net/lwip-2.0.2/src/include\\lwip/err.h"
	.file	11 "E:\\Smart-access-control\\Hardware\\CODE" "./rt-thread/components/net/lwip-2.0.2/src/include\\lwip/netif.h"
	.file	12 "E:\\Smart-access-control\\Hardware\\CODE" "./rt-thread/components/net/lwip-2.0.2/src/include\\lwip/memp.h"
	.section	.text.tcp_input,"ax",%progbits
	.hidden	tcp_input                       @ -- Begin function tcp_input
	.globl	tcp_input
	.p2align	3
	.type	tcp_input,%function
	.code	16                              @ @tcp_input
	.thumb_func
tcp_input:
.Lfunc_begin0:
	.loc	6 103 0                         @ rt-thread/components/net/lwip-2.0.2/src/core/tcp_in.c:103:0
	.fnstart
	.cfi_sections .debug_frame
	.cfi_startproc
@ %bb.0:
	@DEBUG_VALUE: tcp_input:p <- $r0
	@DEBUG_VALUE: tcp_input:inp <- $r1
	.save	{r4, r5, r6, r7, r8, r9, r10, r11, lr}
	push.w	{r4, r5, r6, r7, r8, r9, r10, r11, lr}
	.cfi_def_cfa_offset 36
	.cfi_offset lr, -4
	.cfi_offset r11, -8
	.cfi_offset r10, -12
	.cfi_offset r9, -16
	.cfi_offset r8, -20
	.cfi_offset r7, -24
	.cfi_offset r6, -28
	.cfi_offset r5, -32
	.cfi_offset r4, -36
	.pad	#12
	sub	sp, #12
	.cfi_def_cfa_offset 48
	mov	r4, r0
.Ltmp0:
	@DEBUG_VALUE: tcp_input:lpcb_any <- 0
	@DEBUG_VALUE: tcp_input:lpcb_prev <- 0
	@DEBUG_VALUE: tcp_input:p <- $r4
	.loc	6 127 10 prologue_end           @ rt-thread/components/net/lwip-2.0.2/src/core/tcp_in.c:127:10
	ldrh	r0, [r0, #10]
.Ltmp1:
	.loc	6 120 10                        @ rt-thread/components/net/lwip-2.0.2/src/core/tcp_in.c:120:10
	movw	r10, :lower16:tcphdr
	movt	r10, :upper16:tcphdr
	.loc	6 127 7                         @ rt-thread/components/net/lwip-2.0.2/src/core/tcp_in.c:127:7
	cmp	r0, #20
	.loc	6 120 33                        @ rt-thread/components/net/lwip-2.0.2/src/core/tcp_in.c:120:33
	ldr	r0, [r4, #4]
	.loc	6 120 10 is_stmt 0              @ rt-thread/components/net/lwip-2.0.2/src/core/tcp_in.c:120:10
	str.w	r0, [r10]
	.loc	6 127 7 is_stmt 1               @ rt-thread/components/net/lwip-2.0.2/src/core/tcp_in.c:127:7
	blo	.LBB0_10
.Ltmp2:
@ %bb.1:
	@DEBUG_VALUE: tcp_input:p <- $r4
	@DEBUG_VALUE: tcp_input:inp <- $r1
	@DEBUG_VALUE: tcp_input:lpcb_prev <- 0
	@DEBUG_VALUE: tcp_input:lpcb_any <- 0
	.loc	6 135 7                         @ rt-thread/components/net/lwip-2.0.2/src/core/tcp_in.c:135:7
	movw	r11, :lower16:ip_data
	movt	r11, :upper16:ip_data
	ldr.w	r1, [r11]
.Ltmp3:
	@DEBUG_VALUE: tcp_input:inp <- [DW_OP_LLVM_entry_value 1] $r1
	ldr.w	r0, [r11, #20]
	bl	ip4_addr_isbroadcast_u32
	.loc	6 135 71 is_stmt 0              @ rt-thread/components/net/lwip-2.0.2/src/core/tcp_in.c:135:71
	cmp	r0, #0
	bne	.LBB0_10
.Ltmp4:
@ %bb.2:
	@DEBUG_VALUE: tcp_input:p <- $r4
	@DEBUG_VALUE: tcp_input:inp <- [DW_OP_LLVM_entry_value 1] $r1
	@DEBUG_VALUE: tcp_input:lpcb_prev <- 0
	@DEBUG_VALUE: tcp_input:lpcb_any <- 0
	.loc	6 136 7 is_stmt 1               @ rt-thread/components/net/lwip-2.0.2/src/core/tcp_in.c:136:7
	ldr.w	r0, [r11, #20]
	and	r0, r0, #240
.Ltmp5:
	.loc	6 135 7                         @ rt-thread/components/net/lwip-2.0.2/src/core/tcp_in.c:135:7
	cmp	r0, #224
	beq	.LBB0_10
.Ltmp6:
@ %bb.3:
	@DEBUG_VALUE: tcp_input:p <- $r4
	@DEBUG_VALUE: tcp_input:inp <- [DW_OP_LLVM_entry_value 1] $r1
	@DEBUG_VALUE: tcp_input:lpcb_prev <- 0
	@DEBUG_VALUE: tcp_input:lpcb_any <- 0
	.loc	6 144 57                        @ rt-thread/components/net/lwip-2.0.2/src/core/tcp_in.c:144:57
	ldrh	r2, [r4, #8]
	.loc	6 144 20 is_stmt 0              @ rt-thread/components/net/lwip-2.0.2/src/core/tcp_in.c:144:20
	add.w	r9, r11, #16
	movs	r1, #6
	mov	r0, r4
	mov	r3, r9
	add.w	r8, r11, #20
	str.w	r8, [sp]
	bl	ip_chksum_pseudo
.Ltmp7:
	@DEBUG_VALUE: chksum <- $r0
	.loc	6 0 20                          @ rt-thread/components/net/lwip-2.0.2/src/core/tcp_in.c:0:20
	cmp	r0, #0
	bne	.LBB0_10
.Ltmp8:
@ %bb.4:
	@DEBUG_VALUE: tcp_input:p <- $r4
	@DEBUG_VALUE: tcp_input:inp <- [DW_OP_LLVM_entry_value 1] $r1
	@DEBUG_VALUE: tcp_input:lpcb_prev <- 0
	@DEBUG_VALUE: tcp_input:lpcb_any <- 0
	.loc	6 157 18 is_stmt 1              @ rt-thread/components/net/lwip-2.0.2/src/core/tcp_in.c:157:18
	ldr.w	r0, [r10]
	ldrh	r0, [r0, #12]
	bl	lwip_htons
	movs	r1, #60
	and.w	r0, r1, r0, lsr #10
.Ltmp9:
	@DEBUG_VALUE: tcp_input:hdrlen_bytes <- $r0
	.loc	6 158 33                        @ rt-thread/components/net/lwip-2.0.2/src/core/tcp_in.c:158:33
	cmp	r0, #20
	blo	.LBB0_10
.Ltmp10:
@ %bb.5:
	@DEBUG_VALUE: tcp_input:p <- $r4
	@DEBUG_VALUE: tcp_input:hdrlen_bytes <- $r0
	@DEBUG_VALUE: tcp_input:inp <- [DW_OP_LLVM_entry_value 1] $r1
	@DEBUG_VALUE: tcp_input:lpcb_prev <- 0
	@DEBUG_VALUE: tcp_input:lpcb_any <- 0
	.loc	6 158 55 is_stmt 0              @ rt-thread/components/net/lwip-2.0.2/src/core/tcp_in.c:158:55
	ldrh	r1, [r4, #8]
.Ltmp11:
	.loc	6 158 7                         @ rt-thread/components/net/lwip-2.0.2/src/core/tcp_in.c:158:7
	cmp	r1, r0
	blo	.LBB0_10
.Ltmp12:
@ %bb.6:
	@DEBUG_VALUE: tcp_input:p <- $r4
	@DEBUG_VALUE: tcp_input:hdrlen_bytes <- $r0
	@DEBUG_VALUE: tcp_input:inp <- [DW_OP_LLVM_entry_value 1] $r1
	@DEBUG_VALUE: tcp_input:lpcb_prev <- 0
	@DEBUG_VALUE: tcp_input:lpcb_any <- 0
	.loc	6 166 17 is_stmt 1              @ rt-thread/components/net/lwip-2.0.2/src/core/tcp_in.c:166:17
	movw	r6, :lower16:tcphdr_optlen
.Ltmp13:
	.loc	6 168 10                        @ rt-thread/components/net/lwip-2.0.2/src/core/tcp_in.c:168:10
	ldrh	r2, [r4, #10]
.Ltmp14:
	.loc	6 167 15                        @ rt-thread/components/net/lwip-2.0.2/src/core/tcp_in.c:167:15
	movw	r5, :lower16:tcphdr_opt2
	.loc	6 166 17                        @ rt-thread/components/net/lwip-2.0.2/src/core/tcp_in.c:166:17
	movt	r6, :upper16:tcphdr_optlen
	.loc	6 167 15                        @ rt-thread/components/net/lwip-2.0.2/src/core/tcp_in.c:167:15
	movt	r5, :upper16:tcphdr_opt2
	movw	r7, :lower16:tcphdr_opt1len
	.loc	6 166 19                        @ rt-thread/components/net/lwip-2.0.2/src/core/tcp_in.c:166:19
	sub.w	r1, r0, #20
	.loc	6 168 7                         @ rt-thread/components/net/lwip-2.0.2/src/core/tcp_in.c:168:7
	cmp	r2, r0
	movt	r7, :upper16:tcphdr_opt1len
	.loc	6 166 17                        @ rt-thread/components/net/lwip-2.0.2/src/core/tcp_in.c:166:17
	strh	r1, [r6]
	mov.w	r2, #0
	.loc	6 167 15                        @ rt-thread/components/net/lwip-2.0.2/src/core/tcp_in.c:167:15
	str	r2, [r5]
	.loc	6 168 7                         @ rt-thread/components/net/lwip-2.0.2/src/core/tcp_in.c:168:7
	bhs	.LBB0_12
.Ltmp15:
@ %bb.7:
	@DEBUG_VALUE: tcp_input:p <- $r4
	@DEBUG_VALUE: tcp_input:hdrlen_bytes <- $r0
	@DEBUG_VALUE: tcp_input:inp <- [DW_OP_LLVM_entry_value 1] $r1
	@DEBUG_VALUE: tcp_input:lpcb_prev <- 0
	@DEBUG_VALUE: tcp_input:lpcb_any <- 0
	.loc	6 176 5                         @ rt-thread/components/net/lwip-2.0.2/src/core/tcp_in.c:176:5
	ldr	r0, [r4]
.Ltmp16:
	.loc	6 176 5 is_stmt 0               @ rt-thread/components/net/lwip-2.0.2/src/core/tcp_in.c:176:5
	cbnz	r0, .LBB0_9
.Ltmp17:
@ %bb.8:
	@DEBUG_VALUE: tcp_input:p <- $r4
	@DEBUG_VALUE: tcp_input:inp <- [DW_OP_LLVM_entry_value 1] $r1
	@DEBUG_VALUE: tcp_input:lpcb_prev <- 0
	@DEBUG_VALUE: tcp_input:lpcb_any <- 0
	.loc	6 176 5                         @ rt-thread/components/net/lwip-2.0.2/src/core/tcp_in.c:176:5
	adr.w	r0, .LCPI0_0
	bl	rt_kprintf
	movw	r0, :lower16:.L.str.1
	movs	r1, #176
	movt	r0, :upper16:.L.str.1
	bl	sys_arch_assert
.Ltmp18:
.LBB0_9:
	@DEBUG_VALUE: tcp_input:p <- $r4
	@DEBUG_VALUE: tcp_input:inp <- [DW_OP_LLVM_entry_value 1] $r1
	@DEBUG_VALUE: tcp_input:lpcb_prev <- 0
	@DEBUG_VALUE: tcp_input:lpcb_any <- 0
	.loc	6 179 5 is_stmt 1               @ rt-thread/components/net/lwip-2.0.2/src/core/tcp_in.c:179:5
	mvn	r1, #19
	mov	r0, r4
	bl	pbuf_header
	.loc	6 182 25                        @ rt-thread/components/net/lwip-2.0.2/src/core/tcp_in.c:182:25
	ldrh	r0, [r4, #10]
	.loc	6 183 15                        @ rt-thread/components/net/lwip-2.0.2/src/core/tcp_in.c:183:15
	ldrh	r1, [r6]
	.loc	6 182 20                        @ rt-thread/components/net/lwip-2.0.2/src/core/tcp_in.c:182:20
	strh	r0, [r7]
	.loc	6 183 29                        @ rt-thread/components/net/lwip-2.0.2/src/core/tcp_in.c:183:29
	subs	r6, r1, r0
.Ltmp19:
	@DEBUG_VALUE: opt2len <- $r6
	.loc	6 187 20                        @ rt-thread/components/net/lwip-2.0.2/src/core/tcp_in.c:187:20
	rsbs	r0, r0, #0
	.loc	6 187 5 is_stmt 0               @ rt-thread/components/net/lwip-2.0.2/src/core/tcp_in.c:187:5
	sxth	r1, r0
	mov	r0, r4
	.loc	6 183 29 is_stmt 1              @ rt-thread/components/net/lwip-2.0.2/src/core/tcp_in.c:183:29
	uxth	r7, r6
	.loc	6 187 5                         @ rt-thread/components/net/lwip-2.0.2/src/core/tcp_in.c:187:5
	bl	pbuf_header
.Ltmp20:
	.loc	6 190 22                        @ rt-thread/components/net/lwip-2.0.2/src/core/tcp_in.c:190:22
	ldr	r0, [r4]
	.loc	6 190 28 is_stmt 0              @ rt-thread/components/net/lwip-2.0.2/src/core/tcp_in.c:190:28
	ldrh	r1, [r0, #10]
.Ltmp21:
	.loc	6 190 9                         @ rt-thread/components/net/lwip-2.0.2/src/core/tcp_in.c:190:9
	cmp	r7, r1
	bls	.LBB0_13
.Ltmp22:
.LBB0_10:
	@DEBUG_VALUE: tcp_input:p <- $r4
	@DEBUG_VALUE: tcp_input:lpcb_prev <- 0
	@DEBUG_VALUE: tcp_input:lpcb_any <- 0
	@DEBUG_LABEL: tcp_input:dropped
	.loc	6 532 3 is_stmt 1               @ rt-thread/components/net/lwip-2.0.2/src/core/tcp_in.c:532:3
	mov	r0, r4
	bl	pbuf_free
.Ltmp23:
.LBB0_11:
	.loc	6 533 1                         @ rt-thread/components/net/lwip-2.0.2/src/core/tcp_in.c:533:1
	add	sp, #12
	pop.w	{r4, r5, r6, r7, r8, r9, r10, r11, pc}
.LBB0_12:
.Ltmp24:
	@DEBUG_VALUE: tcp_input:p <- $r4
	@DEBUG_VALUE: tcp_input:hdrlen_bytes <- $r0
	@DEBUG_VALUE: tcp_input:inp <- [DW_OP_LLVM_entry_value 1] $r1
	@DEBUG_VALUE: tcp_input:lpcb_prev <- 0
	@DEBUG_VALUE: tcp_input:lpcb_any <- 0
	.loc	6 170 20                        @ rt-thread/components/net/lwip-2.0.2/src/core/tcp_in.c:170:20
	strh	r1, [r7]
	.loc	6 171 20                        @ rt-thread/components/net/lwip-2.0.2/src/core/tcp_in.c:171:20
	rsbs	r1, r0, #0
	.loc	6 171 5 is_stmt 0               @ rt-thread/components/net/lwip-2.0.2/src/core/tcp_in.c:171:5
	mov	r0, r4
.Ltmp25:
	bl	pbuf_header
	b	.LBB0_17
.Ltmp26:
.LBB0_13:
	@DEBUG_VALUE: opt2len <- $r6
	@DEBUG_VALUE: tcp_input:p <- $r4
	@DEBUG_VALUE: tcp_input:inp <- [DW_OP_LLVM_entry_value 1] $r1
	@DEBUG_VALUE: tcp_input:lpcb_prev <- 0
	@DEBUG_VALUE: tcp_input:lpcb_any <- 0
	.loc	6 198 35 is_stmt 1              @ rt-thread/components/net/lwip-2.0.2/src/core/tcp_in.c:198:35
	ldr	r1, [r0, #4]
	.loc	6 198 17 is_stmt 0              @ rt-thread/components/net/lwip-2.0.2/src/core/tcp_in.c:198:17
	str	r1, [r5]
	.loc	6 202 26 is_stmt 1              @ rt-thread/components/net/lwip-2.0.2/src/core/tcp_in.c:202:26
	rsbs	r1, r6, #0
	.loc	6 202 5 is_stmt 0               @ rt-thread/components/net/lwip-2.0.2/src/core/tcp_in.c:202:5
	sxth	r1, r1
	bl	pbuf_header
.Ltmp27:
	.loc	6 205 5 is_stmt 1               @ rt-thread/components/net/lwip-2.0.2/src/core/tcp_in.c:205:5
	ldrh	r0, [r4, #10]
.Ltmp28:
	.loc	6 203 16                        @ rt-thread/components/net/lwip-2.0.2/src/core/tcp_in.c:203:16
	ldrh	r1, [r4, #8]
.Ltmp29:
	.loc	6 205 5                         @ rt-thread/components/net/lwip-2.0.2/src/core/tcp_in.c:205:5
	cmp	r0, #0
.Ltmp30:
	.loc	6 203 16                        @ rt-thread/components/net/lwip-2.0.2/src/core/tcp_in.c:203:16
	sub.w	r0, r1, r6
	strh	r0, [r4, #8]
.Ltmp31:
	.loc	6 205 5                         @ rt-thread/components/net/lwip-2.0.2/src/core/tcp_in.c:205:5
	beq	.LBB0_15
.Ltmp32:
@ %bb.14:
	@DEBUG_VALUE: opt2len <- $r6
	@DEBUG_VALUE: tcp_input:p <- $r4
	@DEBUG_VALUE: tcp_input:inp <- [DW_OP_LLVM_entry_value 1] $r1
	@DEBUG_VALUE: tcp_input:lpcb_prev <- 0
	@DEBUG_VALUE: tcp_input:lpcb_any <- 0
	.loc	6 205 5 is_stmt 0               @ rt-thread/components/net/lwip-2.0.2/src/core/tcp_in.c:205:5
	adr.w	r0, .LCPI0_1
	bl	rt_kprintf
	movw	r0, :lower16:.L.str.1
	movs	r1, #205
	movt	r0, :upper16:.L.str.1
	bl	sys_arch_assert
.Ltmp33:
.LBB0_15:
	@DEBUG_VALUE: opt2len <- $r6
	@DEBUG_VALUE: tcp_input:p <- $r4
	@DEBUG_VALUE: tcp_input:inp <- [DW_OP_LLVM_entry_value 1] $r1
	@DEBUG_VALUE: tcp_input:lpcb_prev <- 0
	@DEBUG_VALUE: tcp_input:lpcb_any <- 0
	.loc	6 206 5 is_stmt 1               @ rt-thread/components/net/lwip-2.0.2/src/core/tcp_in.c:206:5
	ldr	r0, [r4]
	ldrh	r1, [r4, #8]
	ldrh	r0, [r0, #8]
.Ltmp34:
	.loc	6 206 5 is_stmt 0               @ rt-thread/components/net/lwip-2.0.2/src/core/tcp_in.c:206:5
	cmp	r1, r0
	beq	.LBB0_17
.Ltmp35:
@ %bb.16:
	@DEBUG_VALUE: opt2len <- $r6
	@DEBUG_VALUE: tcp_input:p <- $r4
	@DEBUG_VALUE: tcp_input:inp <- [DW_OP_LLVM_entry_value 1] $r1
	@DEBUG_VALUE: tcp_input:lpcb_prev <- 0
	@DEBUG_VALUE: tcp_input:lpcb_any <- 0
	.loc	6 206 5                         @ rt-thread/components/net/lwip-2.0.2/src/core/tcp_in.c:206:5
	adr.w	r0, .LCPI0_2
	bl	rt_kprintf
	movw	r0, :lower16:.L.str.1
	movs	r1, #206
	movt	r0, :upper16:.L.str.1
	bl	sys_arch_assert
.Ltmp36:
.LBB0_17:
	@DEBUG_VALUE: tcp_input:p <- $r4
	@DEBUG_VALUE: tcp_input:inp <- [DW_OP_LLVM_entry_value 1] $r1
	@DEBUG_VALUE: tcp_input:lpcb_prev <- 0
	@DEBUG_VALUE: tcp_input:lpcb_any <- 0
	.loc	6 210 17 is_stmt 1              @ rt-thread/components/net/lwip-2.0.2/src/core/tcp_in.c:210:17
	ldr.w	r0, [r10]
	ldrh	r0, [r0]
	bl	lwip_htons
	.loc	6 210 3 is_stmt 0               @ rt-thread/components/net/lwip-2.0.2/src/core/tcp_in.c:210:3
	ldr.w	r2, [r10]
	.loc	6 211 18 is_stmt 1              @ rt-thread/components/net/lwip-2.0.2/src/core/tcp_in.c:211:18
	ldrh	r1, [r2, #2]
	.loc	6 210 15                        @ rt-thread/components/net/lwip-2.0.2/src/core/tcp_in.c:210:15
	strh	r0, [r2]
	.loc	6 211 18                        @ rt-thread/components/net/lwip-2.0.2/src/core/tcp_in.c:211:18
	mov	r0, r1
	bl	lwip_htons
	.loc	6 211 3 is_stmt 0               @ rt-thread/components/net/lwip-2.0.2/src/core/tcp_in.c:211:3
	ldr.w	r1, [r10]
	.loc	6 211 16                        @ rt-thread/components/net/lwip-2.0.2/src/core/tcp_in.c:211:16
	strh	r0, [r1, #2]
	.loc	6 212 27 is_stmt 1              @ rt-thread/components/net/lwip-2.0.2/src/core/tcp_in.c:212:27
	ldr	r0, [r1, #4]
	bl	lwip_htonl
	.loc	6 212 9 is_stmt 0               @ rt-thread/components/net/lwip-2.0.2/src/core/tcp_in.c:212:9
	movw	r2, :lower16:seqno
	.loc	6 212 11                        @ rt-thread/components/net/lwip-2.0.2/src/core/tcp_in.c:212:11
	ldr.w	r1, [r10]
	.loc	6 212 9                         @ rt-thread/components/net/lwip-2.0.2/src/core/tcp_in.c:212:9
	movt	r2, :upper16:seqno
	.loc	6 212 25                        @ rt-thread/components/net/lwip-2.0.2/src/core/tcp_in.c:212:25
	str	r0, [r1, #4]
	.loc	6 212 9                         @ rt-thread/components/net/lwip-2.0.2/src/core/tcp_in.c:212:9
	str	r0, [r2]
	.loc	6 213 27 is_stmt 1              @ rt-thread/components/net/lwip-2.0.2/src/core/tcp_in.c:213:27
	ldr	r0, [r1, #8]
	bl	lwip_htonl
	.loc	6 213 11 is_stmt 0              @ rt-thread/components/net/lwip-2.0.2/src/core/tcp_in.c:213:11
	ldr.w	r1, [r10]
	.loc	6 213 9                         @ rt-thread/components/net/lwip-2.0.2/src/core/tcp_in.c:213:9
	movw	r2, :lower16:ackno
	movt	r2, :upper16:ackno
	.loc	6 213 25                        @ rt-thread/components/net/lwip-2.0.2/src/core/tcp_in.c:213:25
	str	r0, [r1, #8]
	.loc	6 214 17 is_stmt 1              @ rt-thread/components/net/lwip-2.0.2/src/core/tcp_in.c:214:17
	ldrh	r1, [r1, #14]
	.loc	6 213 9                         @ rt-thread/components/net/lwip-2.0.2/src/core/tcp_in.c:213:9
	str	r0, [r2]
	.loc	6 214 17                        @ rt-thread/components/net/lwip-2.0.2/src/core/tcp_in.c:214:17
	mov	r0, r1
	bl	lwip_htons
	.loc	6 214 3 is_stmt 0               @ rt-thread/components/net/lwip-2.0.2/src/core/tcp_in.c:214:3
	ldr.w	r2, [r10]
	.loc	6 216 11 is_stmt 1              @ rt-thread/components/net/lwip-2.0.2/src/core/tcp_in.c:216:11
	ldrh	r1, [r2, #12]
	.loc	6 214 15                        @ rt-thread/components/net/lwip-2.0.2/src/core/tcp_in.c:214:15
	strh	r0, [r2, #14]
	.loc	6 216 11                        @ rt-thread/components/net/lwip-2.0.2/src/core/tcp_in.c:216:11
	mov	r0, r1
	bl	lwip_htons
	.loc	6 216 9 is_stmt 0               @ rt-thread/components/net/lwip-2.0.2/src/core/tcp_in.c:216:9
	movw	r2, :lower16:flags
	.loc	6 216 11                        @ rt-thread/components/net/lwip-2.0.2/src/core/tcp_in.c:216:11
	and	r1, r0, #63
	.loc	6 216 9                         @ rt-thread/components/net/lwip-2.0.2/src/core/tcp_in.c:216:9
	movt	r2, :upper16:flags
	.loc	6 217 23 is_stmt 1              @ rt-thread/components/net/lwip-2.0.2/src/core/tcp_in.c:217:23
	lsls	r0, r0, #30
.Ltmp37:
	.loc	6 0 0 is_stmt 0                 @ rt-thread/components/net/lwip-2.0.2/src/core/tcp_in.c:0:0
	movw	r0, :lower16:tcp_active_pcbs
	movt	r0, :upper16:tcp_active_pcbs
.Ltmp38:
	.loc	6 216 9 is_stmt 1               @ rt-thread/components/net/lwip-2.0.2/src/core/tcp_in.c:216:9
	strb	r1, [r2]
	.loc	6 217 15                        @ rt-thread/components/net/lwip-2.0.2/src/core/tcp_in.c:217:15
	ldrh	r1, [r4, #8]
	.loc	6 217 10 is_stmt 0              @ rt-thread/components/net/lwip-2.0.2/src/core/tcp_in.c:217:10
	movw	r2, :lower16:tcplen
	.loc	6 217 23                        @ rt-thread/components/net/lwip-2.0.2/src/core/tcp_in.c:217:23
	it	ne
	addne	r1, #1
.Ltmp39:
	.loc	6 0 0                           @ rt-thread/components/net/lwip-2.0.2/src/core/tcp_in.c:0:0
	ldr	r0, [r0]
.Ltmp40:
	@DEBUG_VALUE: tcp_input:pcb <- $r0
	.loc	6 217 10                        @ rt-thread/components/net/lwip-2.0.2/src/core/tcp_in.c:217:10
	movt	r2, :upper16:tcplen
.Ltmp41:
	.loc	6 223 3 is_stmt 1               @ rt-thread/components/net/lwip-2.0.2/src/core/tcp_in.c:223:3
	cmp	r0, #0
.Ltmp42:
	.loc	6 217 10                        @ rt-thread/components/net/lwip-2.0.2/src/core/tcp_in.c:217:10
	strh	r1, [r2]
.Ltmp43:
	@DEBUG_VALUE: tcp_input:prev <- 0
	@DEBUG_VALUE: tcp_input:pcb <- undef
	.loc	6 223 3                         @ rt-thread/components/net/lwip-2.0.2/src/core/tcp_in.c:223:3
	beq	.LBB0_36
.Ltmp44:
@ %bb.18:
	@DEBUG_VALUE: tcp_input:p <- $r4
	@DEBUG_VALUE: tcp_input:prev <- 0
	@DEBUG_VALUE: tcp_input:inp <- [DW_OP_LLVM_entry_value 1] $r1
	@DEBUG_VALUE: tcp_input:lpcb_prev <- 0
	@DEBUG_VALUE: tcp_input:lpcb_any <- 0
	.loc	6 0 3 is_stmt 0                 @ rt-thread/components/net/lwip-2.0.2/src/core/tcp_in.c:0:3
	movw	r5, :lower16:.L.str.1
	movs	r7, #0
	movt	r5, :upper16:.L.str.1
	b	.LBB0_20
.Ltmp45:
.LBB0_19:                               @   in Loop: Header=BB0_20 Depth=1
	@DEBUG_VALUE: tcp_input:prev <- $r6
	@DEBUG_VALUE: tcp_input:p <- $r4
	@DEBUG_VALUE: tcp_input:inp <- [DW_OP_LLVM_entry_value 1] $r1
	@DEBUG_VALUE: tcp_input:lpcb_prev <- 0
	@DEBUG_VALUE: tcp_input:lpcb_any <- 0
	@DEBUG_VALUE: tcp_input:pcb <- undef
	@DEBUG_VALUE: tcp_input:prev <- $r7
	ldr	r0, [r7, #12]
.Ltmp46:
	@DEBUG_VALUE: tcp_input:pcb <- $r0
	.loc	6 223 3                         @ rt-thread/components/net/lwip-2.0.2/src/core/tcp_in.c:223:3
	cmp	r0, #0
	beq	.LBB0_36
.Ltmp47:
.LBB0_20:                               @ =>This Inner Loop Header: Depth=1
	@DEBUG_VALUE: tcp_input:p <- $r4
	@DEBUG_VALUE: tcp_input:inp <- [DW_OP_LLVM_entry_value 1] $r1
	@DEBUG_VALUE: tcp_input:lpcb_prev <- 0
	@DEBUG_VALUE: tcp_input:lpcb_any <- 0
	.loc	6 0 3                           @ rt-thread/components/net/lwip-2.0.2/src/core/tcp_in.c:0:3
	mov	r6, r7
	mov	r7, r0
.Ltmp48:
	@DEBUG_VALUE: tcp_input:prev <- $r6
	.loc	6 224 5 is_stmt 1               @ rt-thread/components/net/lwip-2.0.2/src/core/tcp_in.c:224:5
	ldrb	r0, [r0, #20]
	cbnz	r0, .LBB0_22
.Ltmp49:
@ %bb.21:                               @   in Loop: Header=BB0_20 Depth=1
	@DEBUG_VALUE: tcp_input:prev <- $r6
	@DEBUG_VALUE: tcp_input:p <- $r4
	@DEBUG_VALUE: tcp_input:inp <- [DW_OP_LLVM_entry_value 1] $r1
	@DEBUG_VALUE: tcp_input:lpcb_prev <- 0
	@DEBUG_VALUE: tcp_input:lpcb_any <- 0
	.loc	6 224 5 is_stmt 0               @ rt-thread/components/net/lwip-2.0.2/src/core/tcp_in.c:224:5
	adr.w	r0, .LCPI0_3
	bl	rt_kprintf
	movs	r1, #224
	mov	r0, r5
	bl	sys_arch_assert
.Ltmp50:
.LBB0_22:                               @   in Loop: Header=BB0_20 Depth=1
	@DEBUG_VALUE: tcp_input:prev <- $r6
	@DEBUG_VALUE: tcp_input:p <- $r4
	@DEBUG_VALUE: tcp_input:inp <- [DW_OP_LLVM_entry_value 1] $r1
	@DEBUG_VALUE: tcp_input:lpcb_prev <- 0
	@DEBUG_VALUE: tcp_input:lpcb_any <- 0
	.loc	6 225 5 is_stmt 1               @ rt-thread/components/net/lwip-2.0.2/src/core/tcp_in.c:225:5
	ldrb	r0, [r7, #20]
.Ltmp51:
	.loc	6 225 5 is_stmt 0               @ rt-thread/components/net/lwip-2.0.2/src/core/tcp_in.c:225:5
	cmp	r0, #10
	bne	.LBB0_24
.Ltmp52:
@ %bb.23:                               @   in Loop: Header=BB0_20 Depth=1
	@DEBUG_VALUE: tcp_input:prev <- $r6
	@DEBUG_VALUE: tcp_input:p <- $r4
	@DEBUG_VALUE: tcp_input:inp <- [DW_OP_LLVM_entry_value 1] $r1
	@DEBUG_VALUE: tcp_input:lpcb_prev <- 0
	@DEBUG_VALUE: tcp_input:lpcb_any <- 0
	.loc	6 225 5                         @ rt-thread/components/net/lwip-2.0.2/src/core/tcp_in.c:225:5
	adr.w	r0, .LCPI0_4
	bl	rt_kprintf
	movs	r1, #225
	mov	r0, r5
	bl	sys_arch_assert
.Ltmp53:
.LBB0_24:                               @   in Loop: Header=BB0_20 Depth=1
	@DEBUG_VALUE: tcp_input:prev <- $r6
	@DEBUG_VALUE: tcp_input:p <- $r4
	@DEBUG_VALUE: tcp_input:inp <- [DW_OP_LLVM_entry_value 1] $r1
	@DEBUG_VALUE: tcp_input:lpcb_prev <- 0
	@DEBUG_VALUE: tcp_input:lpcb_any <- 0
	.loc	6 226 5 is_stmt 1               @ rt-thread/components/net/lwip-2.0.2/src/core/tcp_in.c:226:5
	ldrb	r0, [r7, #20]
.Ltmp54:
	.loc	6 226 5 is_stmt 0               @ rt-thread/components/net/lwip-2.0.2/src/core/tcp_in.c:226:5
	cmp	r0, #1
	bne	.LBB0_26
.Ltmp55:
@ %bb.25:                               @   in Loop: Header=BB0_20 Depth=1
	@DEBUG_VALUE: tcp_input:prev <- $r6
	@DEBUG_VALUE: tcp_input:p <- $r4
	@DEBUG_VALUE: tcp_input:inp <- [DW_OP_LLVM_entry_value 1] $r1
	@DEBUG_VALUE: tcp_input:lpcb_prev <- 0
	@DEBUG_VALUE: tcp_input:lpcb_any <- 0
	.loc	6 226 5                         @ rt-thread/components/net/lwip-2.0.2/src/core/tcp_in.c:226:5
	movw	r0, :lower16:.L.str.6
	movt	r0, :upper16:.L.str.6
	bl	rt_kprintf
	movs	r1, #226
	mov	r0, r5
	bl	sys_arch_assert
.Ltmp56:
.LBB0_26:                               @   in Loop: Header=BB0_20 Depth=1
	@DEBUG_VALUE: tcp_input:prev <- $r6
	@DEBUG_VALUE: tcp_input:p <- $r4
	@DEBUG_VALUE: tcp_input:inp <- [DW_OP_LLVM_entry_value 1] $r1
	@DEBUG_VALUE: tcp_input:lpcb_prev <- 0
	@DEBUG_VALUE: tcp_input:lpcb_any <- 0
	.loc	6 227 29 is_stmt 1              @ rt-thread/components/net/lwip-2.0.2/src/core/tcp_in.c:227:29
	ldr.w	r0, [r10]
	.loc	6 227 14 is_stmt 0              @ rt-thread/components/net/lwip-2.0.2/src/core/tcp_in.c:227:14
	ldrh	r1, [r7, #24]
	.loc	6 227 37                        @ rt-thread/components/net/lwip-2.0.2/src/core/tcp_in.c:227:37
	ldrh	r2, [r0]
	.loc	6 227 41                        @ rt-thread/components/net/lwip-2.0.2/src/core/tcp_in.c:227:41
	cmp	r1, r2
	bne	.LBB0_19
.Ltmp57:
@ %bb.27:                               @   in Loop: Header=BB0_20 Depth=1
	@DEBUG_VALUE: tcp_input:prev <- $r6
	@DEBUG_VALUE: tcp_input:p <- $r4
	@DEBUG_VALUE: tcp_input:inp <- [DW_OP_LLVM_entry_value 1] $r1
	@DEBUG_VALUE: tcp_input:lpcb_prev <- 0
	@DEBUG_VALUE: tcp_input:lpcb_any <- 0
	.loc	6 228 14 is_stmt 1              @ rt-thread/components/net/lwip-2.0.2/src/core/tcp_in.c:228:14
	ldrh	r1, [r7, #22]
	.loc	6 228 36 is_stmt 0              @ rt-thread/components/net/lwip-2.0.2/src/core/tcp_in.c:228:36
	ldrh	r0, [r0, #2]
	.loc	6 228 41                        @ rt-thread/components/net/lwip-2.0.2/src/core/tcp_in.c:228:41
	cmp	r1, r0
	bne	.LBB0_19
.Ltmp58:
@ %bb.28:                               @   in Loop: Header=BB0_20 Depth=1
	@DEBUG_VALUE: tcp_input:prev <- $r6
	@DEBUG_VALUE: tcp_input:p <- $r4
	@DEBUG_VALUE: tcp_input:inp <- [DW_OP_LLVM_entry_value 1] $r1
	@DEBUG_VALUE: tcp_input:lpcb_prev <- 0
	@DEBUG_VALUE: tcp_input:lpcb_any <- 0
	.loc	6 229 9 is_stmt 1               @ rt-thread/components/net/lwip-2.0.2/src/core/tcp_in.c:229:9
	ldr	r0, [r7, #4]
	ldr.w	r1, [r11, #16]
	.loc	6 229 61 is_stmt 0              @ rt-thread/components/net/lwip-2.0.2/src/core/tcp_in.c:229:61
	cmp	r0, r1
	bne	.LBB0_19
.Ltmp59:
@ %bb.29:                               @   in Loop: Header=BB0_20 Depth=1
	@DEBUG_VALUE: tcp_input:prev <- $r6
	@DEBUG_VALUE: tcp_input:p <- $r4
	@DEBUG_VALUE: tcp_input:inp <- [DW_OP_LLVM_entry_value 1] $r1
	@DEBUG_VALUE: tcp_input:lpcb_prev <- 0
	@DEBUG_VALUE: tcp_input:lpcb_any <- 0
	.loc	6 230 9 is_stmt 1               @ rt-thread/components/net/lwip-2.0.2/src/core/tcp_in.c:230:9
	ldr	r0, [r7]
	ldr.w	r1, [r11, #20]
.Ltmp60:
	.loc	6 227 9                         @ rt-thread/components/net/lwip-2.0.2/src/core/tcp_in.c:227:9
	cmp	r0, r1
	bne	.LBB0_19
.Ltmp61:
@ %bb.30:
	@DEBUG_VALUE: tcp_input:prev <- $r6
	@DEBUG_VALUE: tcp_input:p <- $r4
	@DEBUG_VALUE: tcp_input:inp <- [DW_OP_LLVM_entry_value 1] $r1
	@DEBUG_VALUE: tcp_input:lpcb_prev <- 0
	@DEBUG_VALUE: tcp_input:lpcb_any <- 0
	.loc	6 234 7                         @ rt-thread/components/net/lwip-2.0.2/src/core/tcp_in.c:234:7
	ldr	r0, [r7, #12]
.Ltmp62:
	.loc	6 234 7 is_stmt 0               @ rt-thread/components/net/lwip-2.0.2/src/core/tcp_in.c:234:7
	cmp	r0, r7
	bne	.LBB0_32
.Ltmp63:
@ %bb.31:
	@DEBUG_VALUE: tcp_input:prev <- $r6
	@DEBUG_VALUE: tcp_input:p <- $r4
	@DEBUG_VALUE: tcp_input:inp <- [DW_OP_LLVM_entry_value 1] $r1
	@DEBUG_VALUE: tcp_input:lpcb_prev <- 0
	@DEBUG_VALUE: tcp_input:lpcb_any <- 0
	.loc	6 234 7                         @ rt-thread/components/net/lwip-2.0.2/src/core/tcp_in.c:234:7
	movw	r0, :lower16:.L.str.7
	movt	r0, :upper16:.L.str.7
	bl	rt_kprintf
	movw	r0, :lower16:.L.str.1
	movs	r1, #234
	movt	r0, :upper16:.L.str.1
	bl	sys_arch_assert
.Ltmp64:
.LBB0_32:
	@DEBUG_VALUE: tcp_input:prev <- $r6
	@DEBUG_VALUE: tcp_input:p <- $r4
	@DEBUG_VALUE: tcp_input:inp <- [DW_OP_LLVM_entry_value 1] $r1
	@DEBUG_VALUE: tcp_input:lpcb_prev <- 0
	@DEBUG_VALUE: tcp_input:lpcb_any <- 0
	.loc	6 0 7                           @ rt-thread/components/net/lwip-2.0.2/src/core/tcp_in.c:0:7
	cbz	r6, .LBB0_34
.Ltmp65:
@ %bb.33:
	@DEBUG_VALUE: tcp_input:prev <- $r6
	@DEBUG_VALUE: tcp_input:p <- $r4
	@DEBUG_VALUE: tcp_input:inp <- [DW_OP_LLVM_entry_value 1] $r1
	@DEBUG_VALUE: tcp_input:lpcb_prev <- 0
	@DEBUG_VALUE: tcp_input:lpcb_any <- 0
	movw	r1, :lower16:tcp_active_pcbs
.Ltmp66:
	.loc	6 236 27 is_stmt 1              @ rt-thread/components/net/lwip-2.0.2/src/core/tcp_in.c:236:27
	ldr	r0, [r7, #12]
	movt	r1, :upper16:tcp_active_pcbs
	.loc	6 236 20 is_stmt 0              @ rt-thread/components/net/lwip-2.0.2/src/core/tcp_in.c:236:20
	str	r0, [r6, #12]
	.loc	6 237 21 is_stmt 1              @ rt-thread/components/net/lwip-2.0.2/src/core/tcp_in.c:237:21
	ldr	r0, [r1]
	.loc	6 237 19 is_stmt 0              @ rt-thread/components/net/lwip-2.0.2/src/core/tcp_in.c:237:19
	str	r0, [r7, #12]
	.loc	6 238 25 is_stmt 1              @ rt-thread/components/net/lwip-2.0.2/src/core/tcp_in.c:238:25
	str	r7, [r1]
.Ltmp67:
.LBB0_34:
	@DEBUG_VALUE: tcp_input:prev <- $r6
	@DEBUG_VALUE: tcp_input:p <- $r4
	@DEBUG_VALUE: tcp_input:inp <- [DW_OP_LLVM_entry_value 1] $r1
	@DEBUG_VALUE: tcp_input:lpcb_prev <- 0
	@DEBUG_VALUE: tcp_input:lpcb_any <- 0
	.loc	6 242 7                         @ rt-thread/components/net/lwip-2.0.2/src/core/tcp_in.c:242:7
	ldr	r0, [r7, #12]
.Ltmp68:
	.loc	6 242 7 is_stmt 0               @ rt-thread/components/net/lwip-2.0.2/src/core/tcp_in.c:242:7
	cmp	r0, r7
	bne	.LBB0_60
.Ltmp69:
@ %bb.35:
	@DEBUG_VALUE: tcp_input:prev <- $r6
	@DEBUG_VALUE: tcp_input:p <- $r4
	@DEBUG_VALUE: tcp_input:inp <- [DW_OP_LLVM_entry_value 1] $r1
	@DEBUG_VALUE: tcp_input:lpcb_prev <- 0
	@DEBUG_VALUE: tcp_input:lpcb_any <- 0
	.loc	6 242 7                         @ rt-thread/components/net/lwip-2.0.2/src/core/tcp_in.c:242:7
	movw	r0, :lower16:.L.str.8
	movt	r0, :upper16:.L.str.8
	bl	rt_kprintf
	movw	r0, :lower16:.L.str.1
	movs	r1, #242
	movt	r0, :upper16:.L.str.1
	bl	sys_arch_assert
	b	.LBB0_60
.Ltmp70:
.LBB0_36:
	@DEBUG_VALUE: tcp_input:p <- $r4
	@DEBUG_VALUE: tcp_input:inp <- [DW_OP_LLVM_entry_value 1] $r1
	@DEBUG_VALUE: tcp_input:lpcb_prev <- 0
	@DEBUG_VALUE: tcp_input:lpcb_any <- 0
	.loc	6 0 0                           @ rt-thread/components/net/lwip-2.0.2/src/core/tcp_in.c:0:0
	movw	r0, :lower16:tcp_tw_pcbs
	movt	r0, :upper16:tcp_tw_pcbs
	ldr	r5, [r0]
.Ltmp71:
	@DEBUG_VALUE: tcp_input:pcb <- $r5
	.loc	6 251 5 is_stmt 1               @ rt-thread/components/net/lwip-2.0.2/src/core/tcp_in.c:251:5
	cbz	r5, .LBB0_46
.Ltmp72:
@ %bb.37:
	@DEBUG_VALUE: tcp_input:pcb <- $r5
	@DEBUG_VALUE: tcp_input:p <- $r4
	@DEBUG_VALUE: tcp_input:inp <- [DW_OP_LLVM_entry_value 1] $r1
	@DEBUG_VALUE: tcp_input:lpcb_prev <- 0
	@DEBUG_VALUE: tcp_input:lpcb_any <- 0
	.loc	6 0 5 is_stmt 0                 @ rt-thread/components/net/lwip-2.0.2/src/core/tcp_in.c:0:5
	movw	r7, :lower16:.L.str.9
	movw	r6, :lower16:.L.str.1
	movt	r7, :upper16:.L.str.9
	movt	r6, :upper16:.L.str.1
	b	.LBB0_39
.Ltmp73:
.LBB0_38:                               @   in Loop: Header=BB0_39 Depth=1
	@DEBUG_VALUE: tcp_input:pcb <- $r5
	@DEBUG_VALUE: tcp_input:p <- $r4
	@DEBUG_VALUE: tcp_input:inp <- [DW_OP_LLVM_entry_value 1] $r1
	@DEBUG_VALUE: tcp_input:lpcb_prev <- 0
	@DEBUG_VALUE: tcp_input:lpcb_any <- 0
	@DEBUG_VALUE: tcp_input:pcb <- undef
	ldr	r5, [r5, #12]
.Ltmp74:
	@DEBUG_VALUE: tcp_input:pcb <- $r5
	.loc	6 251 5                         @ rt-thread/components/net/lwip-2.0.2/src/core/tcp_in.c:251:5
	cbz	r5, .LBB0_46
.Ltmp75:
.LBB0_39:                               @ =>This Inner Loop Header: Depth=1
	@DEBUG_VALUE: tcp_input:pcb <- $r5
	@DEBUG_VALUE: tcp_input:p <- $r4
	@DEBUG_VALUE: tcp_input:inp <- [DW_OP_LLVM_entry_value 1] $r1
	@DEBUG_VALUE: tcp_input:lpcb_prev <- 0
	@DEBUG_VALUE: tcp_input:lpcb_any <- 0
	.loc	6 252 7 is_stmt 1               @ rt-thread/components/net/lwip-2.0.2/src/core/tcp_in.c:252:7
	ldrb	r0, [r5, #20]
.Ltmp76:
	.loc	6 252 7 is_stmt 0               @ rt-thread/components/net/lwip-2.0.2/src/core/tcp_in.c:252:7
	cmp	r0, #10
	beq	.LBB0_41
.Ltmp77:
@ %bb.40:                               @   in Loop: Header=BB0_39 Depth=1
	@DEBUG_VALUE: tcp_input:pcb <- $r5
	@DEBUG_VALUE: tcp_input:p <- $r4
	@DEBUG_VALUE: tcp_input:inp <- [DW_OP_LLVM_entry_value 1] $r1
	@DEBUG_VALUE: tcp_input:lpcb_prev <- 0
	@DEBUG_VALUE: tcp_input:lpcb_any <- 0
	.loc	6 252 7                         @ rt-thread/components/net/lwip-2.0.2/src/core/tcp_in.c:252:7
	mov	r0, r7
	bl	rt_kprintf
	movs	r1, #252
	mov	r0, r6
	bl	sys_arch_assert
.Ltmp78:
.LBB0_41:                               @   in Loop: Header=BB0_39 Depth=1
	@DEBUG_VALUE: tcp_input:pcb <- $r5
	@DEBUG_VALUE: tcp_input:p <- $r4
	@DEBUG_VALUE: tcp_input:inp <- [DW_OP_LLVM_entry_value 1] $r1
	@DEBUG_VALUE: tcp_input:lpcb_prev <- 0
	@DEBUG_VALUE: tcp_input:lpcb_any <- 0
	.loc	6 253 31 is_stmt 1              @ rt-thread/components/net/lwip-2.0.2/src/core/tcp_in.c:253:31
	ldr.w	r0, [r10]
	.loc	6 253 16 is_stmt 0              @ rt-thread/components/net/lwip-2.0.2/src/core/tcp_in.c:253:16
	ldrh	r1, [r5, #24]
	.loc	6 253 39                        @ rt-thread/components/net/lwip-2.0.2/src/core/tcp_in.c:253:39
	ldrh	r2, [r0]
	.loc	6 253 43                        @ rt-thread/components/net/lwip-2.0.2/src/core/tcp_in.c:253:43
	cmp	r1, r2
	bne	.LBB0_38
.Ltmp79:
@ %bb.42:                               @   in Loop: Header=BB0_39 Depth=1
	@DEBUG_VALUE: tcp_input:pcb <- $r5
	@DEBUG_VALUE: tcp_input:p <- $r4
	@DEBUG_VALUE: tcp_input:inp <- [DW_OP_LLVM_entry_value 1] $r1
	@DEBUG_VALUE: tcp_input:lpcb_prev <- 0
	@DEBUG_VALUE: tcp_input:lpcb_any <- 0
	.loc	6 254 16 is_stmt 1              @ rt-thread/components/net/lwip-2.0.2/src/core/tcp_in.c:254:16
	ldrh	r1, [r5, #22]
	.loc	6 254 38 is_stmt 0              @ rt-thread/components/net/lwip-2.0.2/src/core/tcp_in.c:254:38
	ldrh	r0, [r0, #2]
	.loc	6 254 43                        @ rt-thread/components/net/lwip-2.0.2/src/core/tcp_in.c:254:43
	cmp	r1, r0
	bne	.LBB0_38
.Ltmp80:
@ %bb.43:                               @   in Loop: Header=BB0_39 Depth=1
	@DEBUG_VALUE: tcp_input:pcb <- $r5
	@DEBUG_VALUE: tcp_input:p <- $r4
	@DEBUG_VALUE: tcp_input:inp <- [DW_OP_LLVM_entry_value 1] $r1
	@DEBUG_VALUE: tcp_input:lpcb_prev <- 0
	@DEBUG_VALUE: tcp_input:lpcb_any <- 0
	.loc	6 255 11 is_stmt 1              @ rt-thread/components/net/lwip-2.0.2/src/core/tcp_in.c:255:11
	ldr	r0, [r5, #4]
	ldr.w	r1, [r11, #16]
	.loc	6 255 63 is_stmt 0              @ rt-thread/components/net/lwip-2.0.2/src/core/tcp_in.c:255:63
	cmp	r0, r1
	bne	.LBB0_38
.Ltmp81:
@ %bb.44:                               @   in Loop: Header=BB0_39 Depth=1
	@DEBUG_VALUE: tcp_input:pcb <- $r5
	@DEBUG_VALUE: tcp_input:p <- $r4
	@DEBUG_VALUE: tcp_input:inp <- [DW_OP_LLVM_entry_value 1] $r1
	@DEBUG_VALUE: tcp_input:lpcb_prev <- 0
	@DEBUG_VALUE: tcp_input:lpcb_any <- 0
	.loc	6 256 11 is_stmt 1              @ rt-thread/components/net/lwip-2.0.2/src/core/tcp_in.c:256:11
	ldr	r0, [r5]
	ldr.w	r1, [r11, #20]
.Ltmp82:
	.loc	6 253 11                        @ rt-thread/components/net/lwip-2.0.2/src/core/tcp_in.c:253:11
	cmp	r0, r1
	bne	.LBB0_38
.Ltmp83:
@ %bb.45:
	@DEBUG_VALUE: tcp_input:pcb <- $r5
	@DEBUG_VALUE: tcp_input:p <- $r4
	@DEBUG_VALUE: tcp_input:inp <- [DW_OP_LLVM_entry_value 1] $r1
	@DEBUG_VALUE: tcp_input:lpcb_prev <- 0
	@DEBUG_VALUE: tcp_input:lpcb_any <- 0
	.loc	6 261 9                         @ rt-thread/components/net/lwip-2.0.2/src/core/tcp_in.c:261:9
	mov	r0, r5
	bl	tcp_timewait_input
	.loc	6 262 9                         @ rt-thread/components/net/lwip-2.0.2/src/core/tcp_in.c:262:9
	b	.LBB0_58
.Ltmp84:
.LBB0_46:
	@DEBUG_VALUE: tcp_input:pcb <- $r5
	@DEBUG_VALUE: tcp_input:p <- $r4
	@DEBUG_VALUE: tcp_input:inp <- [DW_OP_LLVM_entry_value 1] $r1
	@DEBUG_VALUE: tcp_input:lpcb_prev <- 0
	@DEBUG_VALUE: tcp_input:lpcb_any <- 0
	.loc	6 0 0 is_stmt 0                 @ rt-thread/components/net/lwip-2.0.2/src/core/tcp_in.c:0:0
	movw	r12, :lower16:tcp_listen_pcbs
	movt	r12, :upper16:tcp_listen_pcbs
	ldr.w	r3, [r12]
.Ltmp85:
	@DEBUG_VALUE: tcp_input:lpcb <- $r3
	@DEBUG_VALUE: tcp_input:prev <- 0
	@DEBUG_VALUE: tcp_input:lpcb_any <- 0
	@DEBUG_VALUE: tcp_input:lpcb_prev <- 0
	.loc	6 270 5 is_stmt 1               @ rt-thread/components/net/lwip-2.0.2/src/core/tcp_in.c:270:5
	cbz	r3, .LBB0_53
.Ltmp86:
@ %bb.47:
	@DEBUG_VALUE: tcp_input:pcb <- $r5
	@DEBUG_VALUE: tcp_input:p <- $r4
	@DEBUG_VALUE: tcp_input:lpcb <- $r3
	@DEBUG_VALUE: tcp_input:prev <- 0
	@DEBUG_VALUE: tcp_input:inp <- [DW_OP_LLVM_entry_value 1] $r1
	@DEBUG_VALUE: tcp_input:lpcb_prev <- 0
	@DEBUG_VALUE: tcp_input:lpcb_any <- 0
	.loc	6 0 5 is_stmt 0                 @ rt-thread/components/net/lwip-2.0.2/src/core/tcp_in.c:0:5
	ldr.w	r0, [r10]
	ldr.w	r6, [r11, #20]
	movs	r2, #0
	movs	r5, #0
.Ltmp87:
	ldrh	r7, [r0, #2]
	movs	r0, #0
	b	.LBB0_50
.Ltmp88:
.LBB0_48:                               @   in Loop: Header=BB0_50 Depth=1
	@DEBUG_VALUE: tcp_input:lpcb_prev <- $r5
	@DEBUG_VALUE: tcp_input:p <- $r4
	@DEBUG_VALUE: tcp_input:lpcb <- $r3
	@DEBUG_VALUE: tcp_input:prev <- $r2
	@DEBUG_VALUE: tcp_input:lpcb_any <- $r0
	@DEBUG_VALUE: tcp_input:inp <- [DW_OP_LLVM_entry_value 1] $r1
	.loc	6 284 22 is_stmt 1              @ rt-thread/components/net/lwip-2.0.2/src/core/tcp_in.c:284:22
	cmp	r1, #0
	itt	eq
	moveq	r0, r3
.Ltmp89:
	moveq	r5, r2
.Ltmp90:
	@DEBUG_VALUE: tcp_input:prev <- $r5
.LBB0_49:                               @   in Loop: Header=BB0_50 Depth=1
	@DEBUG_VALUE: tcp_input:p <- $r4
	@DEBUG_VALUE: tcp_input:lpcb <- $r3
	@DEBUG_VALUE: tcp_input:inp <- [DW_OP_LLVM_entry_value 1] $r1
	@DEBUG_VALUE: tcp_input:lpcb_prev <- $r5
	@DEBUG_VALUE: tcp_input:lpcb_any <- $r0
	@DEBUG_VALUE: tcp_input:prev <- $r3
	.loc	6 295 14                        @ rt-thread/components/net/lwip-2.0.2/src/core/tcp_in.c:295:14
	mov	r2, r3
.Ltmp91:
	@DEBUG_VALUE: tcp_input:lpcb <- undef
	.loc	6 0 0 is_stmt 0                 @ rt-thread/components/net/lwip-2.0.2/src/core/tcp_in.c:0:0
	ldr	r3, [r3, #12]
.Ltmp92:
	@DEBUG_VALUE: tcp_input:lpcb <- $r3
	@DEBUG_VALUE: tcp_input:prev <- $r2
	.loc	6 270 5 is_stmt 1               @ rt-thread/components/net/lwip-2.0.2/src/core/tcp_in.c:270:5
	cbz	r3, .LBB0_54
.Ltmp93:
.LBB0_50:                               @ =>This Inner Loop Header: Depth=1
	@DEBUG_VALUE: tcp_input:p <- $r4
	@DEBUG_VALUE: tcp_input:lpcb <- $r3
	@DEBUG_VALUE: tcp_input:inp <- [DW_OP_LLVM_entry_value 1] $r1
	@DEBUG_VALUE: tcp_input:lpcb_prev <- $r5
	@DEBUG_VALUE: tcp_input:lpcb_any <- $r0
	@DEBUG_VALUE: tcp_input:prev <- $r2
	.loc	6 271 17                        @ rt-thread/components/net/lwip-2.0.2/src/core/tcp_in.c:271:17
	ldrh	r1, [r3, #22]
.Ltmp94:
	.loc	6 271 11 is_stmt 0              @ rt-thread/components/net/lwip-2.0.2/src/core/tcp_in.c:271:11
	cmp	r1, r7
	bne	.LBB0_49
.Ltmp95:
@ %bb.51:                               @   in Loop: Header=BB0_50 Depth=1
	@DEBUG_VALUE: tcp_input:lpcb_prev <- $r5
	@DEBUG_VALUE: tcp_input:p <- $r4
	@DEBUG_VALUE: tcp_input:lpcb <- $r3
	@DEBUG_VALUE: tcp_input:prev <- $r2
	@DEBUG_VALUE: tcp_input:lpcb_any <- $r0
	@DEBUG_VALUE: tcp_input:inp <- [DW_OP_LLVM_entry_value 1] $r1
	.loc	6 281 15 is_stmt 1              @ rt-thread/components/net/lwip-2.0.2/src/core/tcp_in.c:281:15
	ldr	r1, [r3]
.Ltmp96:
	.loc	6 281 15 is_stmt 0              @ rt-thread/components/net/lwip-2.0.2/src/core/tcp_in.c:281:15
	cmp	r1, r6
	bne	.LBB0_48
.Ltmp97:
@ %bb.52:
	@DEBUG_VALUE: tcp_input:lpcb_prev <- $r5
	@DEBUG_VALUE: tcp_input:p <- $r4
	@DEBUG_VALUE: tcp_input:lpcb <- $r3
	@DEBUG_VALUE: tcp_input:prev <- $r2
	@DEBUG_VALUE: tcp_input:lpcb_any <- $r0
	@DEBUG_VALUE: tcp_input:inp <- [DW_OP_LLVM_entry_value 1] $r1
	.loc	6 0 0                           @ rt-thread/components/net/lwip-2.0.2/src/core/tcp_in.c:0:0
	mov	r0, r3
.Ltmp98:
	mov	r5, r2
.Ltmp99:
	@DEBUG_VALUE: tcp_input:prev <- $r5
	b	.LBB0_54
.Ltmp100:
.LBB0_53:
	@DEBUG_VALUE: tcp_input:pcb <- $r5
	@DEBUG_VALUE: tcp_input:p <- $r4
	@DEBUG_VALUE: tcp_input:lpcb <- $r3
	@DEBUG_VALUE: tcp_input:prev <- 0
	@DEBUG_VALUE: tcp_input:inp <- [DW_OP_LLVM_entry_value 1] $r1
	@DEBUG_VALUE: tcp_input:lpcb_prev <- 0
	@DEBUG_VALUE: tcp_input:lpcb_any <- 0
	movs	r0, #0
	movs	r5, #0
.Ltmp101:
.LBB0_54:
	@DEBUG_VALUE: tcp_input:p <- $r4
	@DEBUG_VALUE: tcp_input:lpcb <- $r3
	@DEBUG_VALUE: tcp_input:inp <- [DW_OP_LLVM_entry_value 1] $r1
	@DEBUG_VALUE: tcp_input:prev <- $r5
	@DEBUG_VALUE: tcp_input:lpcb <- $r0
	.loc	6 305 9 is_stmt 1               @ rt-thread/components/net/lwip-2.0.2/src/core/tcp_in.c:305:9
	cbz	r0, .LBB0_59
.Ltmp102:
@ %bb.55:
	@DEBUG_VALUE: tcp_input:prev <- $r5
	@DEBUG_VALUE: tcp_input:p <- $r4
	@DEBUG_VALUE: tcp_input:lpcb <- $r0
	@DEBUG_VALUE: tcp_input:inp <- [DW_OP_LLVM_entry_value 1] $r1
	.loc	6 309 11                        @ rt-thread/components/net/lwip-2.0.2/src/core/tcp_in.c:309:11
	cbz	r5, .LBB0_57
.Ltmp103:
@ %bb.56:
	@DEBUG_VALUE: tcp_input:prev <- $r5
	@DEBUG_VALUE: tcp_input:p <- $r4
	@DEBUG_VALUE: tcp_input:lpcb <- $r0
	@DEBUG_VALUE: tcp_input:inp <- [DW_OP_LLVM_entry_value 1] $r1
	.loc	6 310 55                        @ rt-thread/components/net/lwip-2.0.2/src/core/tcp_in.c:310:55
	ldr	r1, [r0, #12]
	.loc	6 310 47 is_stmt 0              @ rt-thread/components/net/lwip-2.0.2/src/core/tcp_in.c:310:47
	str	r1, [r5, #12]
	.loc	6 312 38 is_stmt 1              @ rt-thread/components/net/lwip-2.0.2/src/core/tcp_in.c:312:38
	ldr.w	r1, [r12]
	.loc	6 312 20 is_stmt 0              @ rt-thread/components/net/lwip-2.0.2/src/core/tcp_in.c:312:20
	str	r1, [r0, #12]
	.loc	6 314 37 is_stmt 1              @ rt-thread/components/net/lwip-2.0.2/src/core/tcp_in.c:314:37
	str.w	r0, [r12]
.Ltmp104:
.LBB0_57:
	@DEBUG_VALUE: tcp_input:prev <- $r5
	@DEBUG_VALUE: tcp_input:p <- $r4
	@DEBUG_VALUE: tcp_input:lpcb <- $r0
	@DEBUG_VALUE: tcp_input:inp <- [DW_OP_LLVM_entry_value 1] $r1
	.loc	6 320 7                         @ rt-thread/components/net/lwip-2.0.2/src/core/tcp_in.c:320:7
	bl	tcp_listen_input
.Ltmp105:
.LBB0_58:
	@DEBUG_VALUE: tcp_input:p <- $r4
	@DEBUG_VALUE: tcp_input:inp <- [DW_OP_LLVM_entry_value 1] $r1
	.loc	6 0 0 is_stmt 0                 @ rt-thread/components/net/lwip-2.0.2/src/core/tcp_in.c:0:0
	mov	r0, r4
	bl	pbuf_free
	.loc	6 533 1 is_stmt 1               @ rt-thread/components/net/lwip-2.0.2/src/core/tcp_in.c:533:1
	add	sp, #12
	pop.w	{r4, r5, r6, r7, r8, r9, r10, r11, pc}
.Ltmp106:
.LBB0_59:
	@DEBUG_VALUE: tcp_input:prev <- $r5
	@DEBUG_VALUE: tcp_input:p <- $r4
	@DEBUG_VALUE: tcp_input:lpcb <- $r0
	@DEBUG_VALUE: tcp_input:inp <- [DW_OP_LLVM_entry_value 1] $r1
	.loc	6 0 1 is_stmt 0                 @ rt-thread/components/net/lwip-2.0.2/src/core/tcp_in.c:0:1
	movs	r7, #0
.Ltmp107:
.LBB0_60:
	@DEBUG_VALUE: tcp_input:p <- $r4
	@DEBUG_VALUE: tcp_input:inp <- [DW_OP_LLVM_entry_value 1] $r1
	@DEBUG_VALUE: tcp_input:pcb <- $r7
	.loc	6 333 7 is_stmt 1               @ rt-thread/components/net/lwip-2.0.2/src/core/tcp_in.c:333:7
	cmp	r7, #0
	beq	.LBB0_69
.Ltmp108:
@ %bb.61:
	@DEBUG_VALUE: tcp_input:pcb <- $r7
	@DEBUG_VALUE: tcp_input:p <- $r4
	@DEBUG_VALUE: tcp_input:inp <- [DW_OP_LLVM_entry_value 1] $r1
	.loc	6 340 16                        @ rt-thread/components/net/lwip-2.0.2/src/core/tcp_in.c:340:16
	movw	r5, :lower16:inseg
	.loc	6 343 20                        @ rt-thread/components/net/lwip-2.0.2/src/core/tcp_in.c:343:20
	ldr.w	r1, [r10]
	.loc	6 340 16                        @ rt-thread/components/net/lwip-2.0.2/src/core/tcp_in.c:340:16
	movt	r5, :upper16:inseg
	.loc	6 345 15                        @ rt-thread/components/net/lwip-2.0.2/src/core/tcp_in.c:345:15
	movw	r8, :lower16:recv_data
	.loc	6 346 16                        @ rt-thread/components/net/lwip-2.0.2/src/core/tcp_in.c:346:16
	movw	r9, :lower16:recv_flags
	.loc	6 347 16                        @ rt-thread/components/net/lwip-2.0.2/src/core/tcp_in.c:347:16
	movw	r6, :lower16:recv_acked
	.loc	6 343 18                        @ rt-thread/components/net/lwip-2.0.2/src/core/tcp_in.c:343:18
	str	r1, [r5, #12]
.Ltmp109:
	.loc	6 349 9                         @ rt-thread/components/net/lwip-2.0.2/src/core/tcp_in.c:349:9
	movw	r1, :lower16:flags
	movt	r1, :upper16:flags
.Ltmp110:
	.loc	6 345 15                        @ rt-thread/components/net/lwip-2.0.2/src/core/tcp_in.c:345:15
	movt	r8, :upper16:recv_data
	.loc	6 346 16                        @ rt-thread/components/net/lwip-2.0.2/src/core/tcp_in.c:346:16
	movt	r9, :upper16:recv_flags
	.loc	6 347 16                        @ rt-thread/components/net/lwip-2.0.2/src/core/tcp_in.c:347:16
	movt	r6, :upper16:recv_acked
.Ltmp111:
	.loc	6 349 9                         @ rt-thread/components/net/lwip-2.0.2/src/core/tcp_in.c:349:9
	ldrb	r1, [r1]
.Ltmp112:
	.loc	6 341 20                        @ rt-thread/components/net/lwip-2.0.2/src/core/tcp_in.c:341:20
	ldrh	r0, [r4, #8]
	.loc	6 341 15 is_stmt 0              @ rt-thread/components/net/lwip-2.0.2/src/core/tcp_in.c:341:15
	strh	r0, [r5, #8]
	movs	r0, #0
	.loc	6 349 9 is_stmt 1               @ rt-thread/components/net/lwip-2.0.2/src/core/tcp_in.c:349:9
	lsls	r1, r1, #28
	.loc	6 345 15                        @ rt-thread/components/net/lwip-2.0.2/src/core/tcp_in.c:345:15
	str.w	r0, [r8]
	.loc	6 340 16                        @ rt-thread/components/net/lwip-2.0.2/src/core/tcp_in.c:340:16
	strd	r0, r4, [r5]
	.loc	6 346 16                        @ rt-thread/components/net/lwip-2.0.2/src/core/tcp_in.c:346:16
	strb.w	r0, [r9]
	.loc	6 347 16                        @ rt-thread/components/net/lwip-2.0.2/src/core/tcp_in.c:347:16
	strh	r0, [r6]
	bpl	.LBB0_63
.Ltmp113:
@ %bb.62:
	@DEBUG_VALUE: tcp_input:pcb <- $r7
	@DEBUG_VALUE: tcp_input:p <- $r4
	@DEBUG_VALUE: tcp_input:inp <- [DW_OP_LLVM_entry_value 1] $r1
	.loc	6 350 16                        @ rt-thread/components/net/lwip-2.0.2/src/core/tcp_in.c:350:16
	ldrb	r0, [r4, #13]
	orr	r0, r0, #1
	strb	r0, [r4, #13]
.Ltmp114:
.LBB0_63:
	@DEBUG_VALUE: tcp_input:pcb <- $r7
	@DEBUG_VALUE: tcp_input:p <- $r4
	@DEBUG_VALUE: tcp_input:inp <- [DW_OP_LLVM_entry_value 1] $r1
	.loc	6 354 14                        @ rt-thread/components/net/lwip-2.0.2/src/core/tcp_in.c:354:14
	ldr	r0, [r7, #116]
	movw	r4, :lower16:tcp_input_pcb
.Ltmp115:
	.loc	6 0 14 is_stmt 0                @ rt-thread/components/net/lwip-2.0.2/src/core/tcp_in.c:0:14
	movt	r4, :upper16:tcp_input_pcb
	cbz	r0, .LBB0_71
.Ltmp116:
@ %bb.64:
	@DEBUG_VALUE: tcp_input:pcb <- $r7
	@DEBUG_VALUE: tcp_input:inp <- [DW_OP_LLVM_entry_value 1] $r1
	.loc	6 355 12 is_stmt 1              @ rt-thread/components/net/lwip-2.0.2/src/core/tcp_in.c:355:12
	mov	r0, r7
	bl	tcp_process_refused_data
	.loc	6 355 55 is_stmt 0              @ rt-thread/components/net/lwip-2.0.2/src/core/tcp_in.c:355:55
	adds	r0, #13
	beq	.LBB0_67
.Ltmp117:
@ %bb.65:
	@DEBUG_VALUE: tcp_input:pcb <- $r7
	@DEBUG_VALUE: tcp_input:inp <- [DW_OP_LLVM_entry_value 1] $r1
	.loc	6 356 16 is_stmt 1              @ rt-thread/components/net/lwip-2.0.2/src/core/tcp_in.c:356:16
	ldr	r0, [r7, #116]
	cbz	r0, .LBB0_71
.Ltmp118:
@ %bb.66:
	@DEBUG_VALUE: tcp_input:pcb <- $r7
	@DEBUG_VALUE: tcp_input:inp <- [DW_OP_LLVM_entry_value 1] $r1
	.loc	6 0 16 is_stmt 0                @ rt-thread/components/net/lwip-2.0.2/src/core/tcp_in.c:0:16
	movw	r0, :lower16:tcplen
	movt	r0, :upper16:tcplen
	ldrh	r0, [r0]
	cbz	r0, .LBB0_71
.Ltmp119:
.LBB0_67:
	@DEBUG_VALUE: tcp_input:pcb <- $r7
	@DEBUG_VALUE: tcp_input:inp <- [DW_OP_LLVM_entry_value 1] $r1
	.loc	6 359 18 is_stmt 1              @ rt-thread/components/net/lwip-2.0.2/src/core/tcp_in.c:359:18
	ldrh	r0, [r7, #42]
.Ltmp120:
	.loc	6 359 13 is_stmt 0              @ rt-thread/components/net/lwip-2.0.2/src/core/tcp_in.c:359:13
	cmp	r0, #0
	bne	.LBB0_81
.Ltmp121:
@ %bb.68:
	@DEBUG_VALUE: tcp_input:pcb <- $r7
	@DEBUG_VALUE: tcp_input:inp <- [DW_OP_LLVM_entry_value 1] $r1
	.loc	6 362 11 is_stmt 1              @ rt-thread/components/net/lwip-2.0.2/src/core/tcp_in.c:362:11
	mov	r0, r7
	bl	tcp_send_empty_ack
	b	.LBB0_81
.Ltmp122:
.LBB0_69:
	@DEBUG_VALUE: tcp_input:pcb <- $r7
	@DEBUG_VALUE: tcp_input:p <- $r4
	@DEBUG_VALUE: tcp_input:inp <- [DW_OP_LLVM_entry_value 1] $r1
	.loc	6 517 11                        @ rt-thread/components/net/lwip-2.0.2/src/core/tcp_in.c:517:11
	ldr.w	r0, [r10]
	ldrh	r0, [r0, #12]
	bl	lwip_htons
.Ltmp123:
	.loc	6 517 9 is_stmt 0               @ rt-thread/components/net/lwip-2.0.2/src/core/tcp_in.c:517:9
	lsls	r0, r0, #29
	bmi	.LBB0_58
.Ltmp124:
@ %bb.70:
	@DEBUG_VALUE: tcp_input:pcb <- $r7
	@DEBUG_VALUE: tcp_input:p <- $r4
	@DEBUG_VALUE: tcp_input:inp <- [DW_OP_LLVM_entry_value 1] $r1
	.loc	6 521 32 is_stmt 1              @ rt-thread/components/net/lwip-2.0.2/src/core/tcp_in.c:521:32
	ldr.w	r0, [r10]
	.loc	6 520 30                        @ rt-thread/components/net/lwip-2.0.2/src/core/tcp_in.c:520:30
	movw	r2, :lower16:tcplen
	.loc	6 520 22 is_stmt 0              @ rt-thread/components/net/lwip-2.0.2/src/core/tcp_in.c:520:22
	movw	r1, :lower16:seqno
	.loc	6 520 30                        @ rt-thread/components/net/lwip-2.0.2/src/core/tcp_in.c:520:30
	movt	r2, :upper16:tcplen
	.loc	6 520 22                        @ rt-thread/components/net/lwip-2.0.2/src/core/tcp_in.c:520:22
	movt	r1, :upper16:seqno
	.loc	6 521 40 is_stmt 1              @ rt-thread/components/net/lwip-2.0.2/src/core/tcp_in.c:521:40
	ldrh	r3, [r0, #2]
	.loc	6 521 54 is_stmt 0              @ rt-thread/components/net/lwip-2.0.2/src/core/tcp_in.c:521:54
	ldrh	r7, [r0]
.Ltmp125:
	.loc	6 520 15 is_stmt 1              @ rt-thread/components/net/lwip-2.0.2/src/core/tcp_in.c:520:15
	movw	r0, :lower16:ackno
	.loc	6 520 30 is_stmt 0              @ rt-thread/components/net/lwip-2.0.2/src/core/tcp_in.c:520:30
	ldrh	r2, [r2]
	.loc	6 520 15                        @ rt-thread/components/net/lwip-2.0.2/src/core/tcp_in.c:520:15
	movt	r0, :upper16:ackno
	.loc	6 520 22                        @ rt-thread/components/net/lwip-2.0.2/src/core/tcp_in.c:520:22
	ldr	r1, [r1]
	.loc	6 520 15                        @ rt-thread/components/net/lwip-2.0.2/src/core/tcp_in.c:520:15
	ldr	r0, [r0]
	.loc	6 520 28                        @ rt-thread/components/net/lwip-2.0.2/src/core/tcp_in.c:520:28
	add	r1, r2
	.loc	6 520 7                         @ rt-thread/components/net/lwip-2.0.2/src/core/tcp_in.c:520:7
	strd	r3, r7, [sp]
	mov	r2, r8
	mov	r3, r9
	bl	tcp_rst
	b	.LBB0_58
.Ltmp126:
.LBB0_71:
	@DEBUG_VALUE: tcp_input:pcb <- $r7
	@DEBUG_VALUE: tcp_input:inp <- [DW_OP_LLVM_entry_value 1] $r1
	.loc	6 370 11 is_stmt 1              @ rt-thread/components/net/lwip-2.0.2/src/core/tcp_in.c:370:11
	mov	r0, r7
	.loc	6 369 19                        @ rt-thread/components/net/lwip-2.0.2/src/core/tcp_in.c:369:19
	str	r7, [r4]
	.loc	6 370 11                        @ rt-thread/components/net/lwip-2.0.2/src/core/tcp_in.c:370:11
	bl	tcp_process
.Ltmp127:
	@DEBUG_VALUE: tcp_input:err <- $r0
	.loc	6 373 9                         @ rt-thread/components/net/lwip-2.0.2/src/core/tcp_in.c:373:9
	adds	r0, #13
.Ltmp128:
	beq	.LBB0_81
.Ltmp129:
@ %bb.72:
	@DEBUG_VALUE: tcp_input:pcb <- $r7
	@DEBUG_VALUE: tcp_input:inp <- [DW_OP_LLVM_entry_value 1] $r1
	.loc	6 374 11                        @ rt-thread/components/net/lwip-2.0.2/src/core/tcp_in.c:374:11
	ldrb.w	r0, [r9]
.Ltmp130:
	.loc	6 374 11 is_stmt 0              @ rt-thread/components/net/lwip-2.0.2/src/core/tcp_in.c:374:11
	lsls	r0, r0, #28
	bmi	.LBB0_77
.Ltmp131:
@ %bb.73:
	@DEBUG_VALUE: tcp_input:pcb <- $r7
	@DEBUG_VALUE: tcp_input:inp <- [DW_OP_LLVM_entry_value 1] $r1
	@DEBUG_VALUE: tcp_input:err <- 0
	.loc	6 387 13 is_stmt 1              @ rt-thread/components/net/lwip-2.0.2/src/core/tcp_in.c:387:13
	ldrh	r2, [r6]
.Ltmp132:
	.loc	6 387 13 is_stmt 0              @ rt-thread/components/net/lwip-2.0.2/src/core/tcp_in.c:387:13
	cbz	r2, .LBB0_86
.Ltmp133:
@ %bb.74:
	@DEBUG_VALUE: tcp_input:pcb <- $r7
	@DEBUG_VALUE: tcp_input:err <- 0
	@DEBUG_VALUE: tcp_input:inp <- [DW_OP_LLVM_entry_value 1] $r1
	@DEBUG_VALUE: acked16 <- $r2
	.loc	6 400 13 is_stmt 1              @ rt-thread/components/net/lwip-2.0.2/src/core/tcp_in.c:400:13
	ldr	r3, [r7, #124]
.Ltmp134:
	.loc	6 400 13 is_stmt 0              @ rt-thread/components/net/lwip-2.0.2/src/core/tcp_in.c:400:13
	cbz	r3, .LBB0_83
.Ltmp135:
@ %bb.75:
	@DEBUG_VALUE: tcp_input:pcb <- $r7
	@DEBUG_VALUE: acked16 <- $r2
	@DEBUG_VALUE: tcp_input:err <- 0
	@DEBUG_VALUE: tcp_input:inp <- [DW_OP_LLVM_entry_value 1] $r1
	@DEBUG_VALUE: acked16 <- $r2
	.loc	6 400 13                        @ rt-thread/components/net/lwip-2.0.2/src/core/tcp_in.c:400:13
	ldr	r0, [r7, #16]
	mov	r1, r7
	blx	r3
.Ltmp136:
	@DEBUG_VALUE: tcp_input:err <- undef
	.loc	6 401 17 is_stmt 1              @ rt-thread/components/net/lwip-2.0.2/src/core/tcp_in.c:401:17
	adds	r0, #13
	bne	.LBB0_83
.Ltmp137:
@ %bb.76:
	@DEBUG_VALUE: tcp_input:pcb <- $r7
	@DEBUG_VALUE: tcp_input:inp <- [DW_OP_LLVM_entry_value 1] $r1
	.loc	6 0 17 is_stmt 0                @ rt-thread/components/net/lwip-2.0.2/src/core/tcp_in.c:0:17
	movs	r0, #48
	b	.LBB0_84
.Ltmp138:
.LBB0_77:
	@DEBUG_VALUE: tcp_input:pcb <- $r7
	@DEBUG_VALUE: tcp_input:inp <- [DW_OP_LLVM_entry_value 1] $r1
	.loc	6 379 9 is_stmt 1               @ rt-thread/components/net/lwip-2.0.2/src/core/tcp_in.c:379:9
	ldr.w	r2, [r7, #140]
.Ltmp139:
	.loc	6 379 9 is_stmt 0               @ rt-thread/components/net/lwip-2.0.2/src/core/tcp_in.c:379:9
	cbz	r2, .LBB0_80
.Ltmp140:
@ %bb.78:
	@DEBUG_VALUE: tcp_input:pcb <- $r7
	@DEBUG_VALUE: tcp_input:inp <- [DW_OP_LLVM_entry_value 1] $r1
	.loc	6 379 9                         @ rt-thread/components/net/lwip-2.0.2/src/core/tcp_in.c:379:9
	ldr	r0, [r7, #16]
	mvn	r1, #13
.Ltmp141:
.LBB0_79:
	@DEBUG_VALUE: tcp_input:pcb <- $r7
	@DEBUG_VALUE: tcp_input:inp <- [DW_OP_LLVM_entry_value 1] $r1
	.loc	6 0 0                           @ rt-thread/components/net/lwip-2.0.2/src/core/tcp_in.c:0:0
	blx	r2
.Ltmp142:
.LBB0_80:
	@DEBUG_VALUE: tcp_input:pcb <- $r7
	@DEBUG_VALUE: tcp_input:inp <- [DW_OP_LLVM_entry_value 1] $r1
	movw	r0, :lower16:tcp_active_pcbs
	mov	r1, r7
	movt	r0, :upper16:tcp_active_pcbs
	bl	tcp_pcb_remove
	movs	r0, #2
	mov	r1, r7
	bl	memp_free
.Ltmp143:
.LBB0_81:
	@DEBUG_VALUE: tcp_input:pcb <- $r7
	@DEBUG_VALUE: tcp_input:inp <- [DW_OP_LLVM_entry_value 1] $r1
	@DEBUG_LABEL: aborted
	.loc	6 507 15 is_stmt 1              @ rt-thread/components/net/lwip-2.0.2/src/core/tcp_in.c:507:15
	ldr	r0, [r5, #4]
	movs	r6, #0
.Ltmp144:
	.loc	6 507 9 is_stmt 0               @ rt-thread/components/net/lwip-2.0.2/src/core/tcp_in.c:507:9
	cmp	r0, #0
	.loc	6 503 19 is_stmt 1              @ rt-thread/components/net/lwip-2.0.2/src/core/tcp_in.c:503:19
	str	r6, [r4]
	.loc	6 504 15                        @ rt-thread/components/net/lwip-2.0.2/src/core/tcp_in.c:504:15
	str.w	r6, [r8]
	.loc	6 507 9                         @ rt-thread/components/net/lwip-2.0.2/src/core/tcp_in.c:507:9
	beq.w	.LBB0_11
.Ltmp145:
@ %bb.82:
	@DEBUG_VALUE: tcp_input:pcb <- $r7
	@DEBUG_VALUE: tcp_input:inp <- [DW_OP_LLVM_entry_value 1] $r1
	.loc	6 509 7                         @ rt-thread/components/net/lwip-2.0.2/src/core/tcp_in.c:509:7
	bl	pbuf_free
	.loc	6 510 15                        @ rt-thread/components/net/lwip-2.0.2/src/core/tcp_in.c:510:15
	str	r6, [r5, #4]
.Ltmp146:
	.loc	6 533 1                         @ rt-thread/components/net/lwip-2.0.2/src/core/tcp_in.c:533:1
	add	sp, #12
	pop.w	{r4, r5, r6, r7, r8, r9, r10, r11, pc}
.Ltmp147:
.LBB0_83:
	@DEBUG_VALUE: tcp_input:pcb <- $r7
	@DEBUG_VALUE: tcp_input:inp <- [DW_OP_LLVM_entry_value 1] $r1
	.loc	6 0 1 is_stmt 0                 @ rt-thread/components/net/lwip-2.0.2/src/core/tcp_in.c:0:1
	movs	r0, #0
.Ltmp148:
	.loc	6 405 22 is_stmt 1              @ rt-thread/components/net/lwip-2.0.2/src/core/tcp_in.c:405:22
	strh	r0, [r6]
.Ltmp149:
.LBB0_84:
	@DEBUG_VALUE: tcp_input:pcb <- $r7
	@DEBUG_VALUE: tcp_input:inp <- [DW_OP_LLVM_entry_value 1] $r1
	.loc	6 0 22 is_stmt 0                @ rt-thread/components/net/lwip-2.0.2/src/core/tcp_in.c:0:22
	cmp	r0, #48
	beq	.LBB0_81
.Ltmp150:
@ %bb.85:
	@DEBUG_VALUE: tcp_input:pcb <- $r7
	@DEBUG_VALUE: tcp_input:inp <- [DW_OP_LLVM_entry_value 1] $r1
	cmp	r0, #0
	bne.w	.LBB0_11
.Ltmp151:
.LBB0_86:
	@DEBUG_VALUE: tcp_input:pcb <- $r7
	@DEBUG_VALUE: tcp_input:inp <- [DW_OP_LLVM_entry_value 1] $r1
	.loc	6 407 13 is_stmt 1              @ rt-thread/components/net/lwip-2.0.2/src/core/tcp_in.c:407:13
	ldrb.w	r0, [r9]
.Ltmp152:
	.loc	6 407 13 is_stmt 0              @ rt-thread/components/net/lwip-2.0.2/src/core/tcp_in.c:407:13
	lsls	r0, r0, #27
	bmi	.LBB0_93
.Ltmp153:
@ %bb.87:
	@DEBUG_VALUE: tcp_input:pcb <- $r7
	@DEBUG_VALUE: tcp_input:inp <- [DW_OP_LLVM_entry_value 1] $r1
	.loc	6 425 13 is_stmt 1              @ rt-thread/components/net/lwip-2.0.2/src/core/tcp_in.c:425:13
	ldr.w	r0, [r8]
.Ltmp154:
	.loc	6 425 13 is_stmt 0              @ rt-thread/components/net/lwip-2.0.2/src/core/tcp_in.c:425:13
	cbz	r0, .LBB0_101
.Ltmp155:
@ %bb.88:
	@DEBUG_VALUE: tcp_input:pcb <- $r7
	@DEBUG_VALUE: tcp_input:inp <- [DW_OP_LLVM_entry_value 1] $r1
	.loc	6 428 11 is_stmt 1              @ rt-thread/components/net/lwip-2.0.2/src/core/tcp_in.c:428:11
	ldr	r0, [r7, #116]
.Ltmp156:
	.loc	6 428 11 is_stmt 0              @ rt-thread/components/net/lwip-2.0.2/src/core/tcp_in.c:428:11
	cbz	r0, .LBB0_90
.Ltmp157:
@ %bb.89:
	@DEBUG_VALUE: tcp_input:pcb <- $r7
	@DEBUG_VALUE: tcp_input:inp <- [DW_OP_LLVM_entry_value 1] $r1
	.loc	6 428 11                        @ rt-thread/components/net/lwip-2.0.2/src/core/tcp_in.c:428:11
	movw	r0, :lower16:.L.str.10
	movt	r0, :upper16:.L.str.10
	bl	rt_kprintf
	movw	r0, :lower16:.L.str.1
	mov.w	r1, #428
	movt	r0, :upper16:.L.str.1
	bl	sys_arch_assert
.Ltmp158:
.LBB0_90:
	@DEBUG_VALUE: tcp_input:pcb <- $r7
	@DEBUG_VALUE: tcp_input:inp <- [DW_OP_LLVM_entry_value 1] $r1
	.loc	6 429 20 is_stmt 1              @ rt-thread/components/net/lwip-2.0.2/src/core/tcp_in.c:429:20
	ldrb	r0, [r7, #26]
.Ltmp159:
	.loc	6 429 15 is_stmt 0              @ rt-thread/components/net/lwip-2.0.2/src/core/tcp_in.c:429:15
	lsls	r0, r0, #27
	bmi	.LBB0_96
.Ltmp160:
@ %bb.91:
	@DEBUG_VALUE: tcp_input:pcb <- $r7
	@DEBUG_VALUE: tcp_input:inp <- [DW_OP_LLVM_entry_value 1] $r1
	.loc	6 443 11 is_stmt 1              @ rt-thread/components/net/lwip-2.0.2/src/core/tcp_in.c:443:11
	ldr.w	r6, [r7, #128]
.Ltmp161:
	.loc	6 443 11 is_stmt 0              @ rt-thread/components/net/lwip-2.0.2/src/core/tcp_in.c:443:11
	cbz	r6, .LBB0_97
.Ltmp162:
@ %bb.92:
	@DEBUG_VALUE: tcp_input:pcb <- $r7
	@DEBUG_VALUE: tcp_input:inp <- [DW_OP_LLVM_entry_value 1] $r1
	.loc	6 443 11                        @ rt-thread/components/net/lwip-2.0.2/src/core/tcp_in.c:443:11
	ldr	r0, [r7, #16]
	ldr.w	r2, [r8]
	movs	r3, #0
	mov	r1, r7
	blx	r6
.Ltmp163:
	@DEBUG_VALUE: tcp_input:err <- undef
	.loc	6 0 11                          @ rt-thread/components/net/lwip-2.0.2/src/core/tcp_in.c:0:11
	b	.LBB0_98
.Ltmp164:
.LBB0_93:
	@DEBUG_VALUE: tcp_input:pcb <- $r7
	@DEBUG_VALUE: tcp_input:inp <- [DW_OP_LLVM_entry_value 1] $r1
	.loc	6 410 22 is_stmt 1              @ rt-thread/components/net/lwip-2.0.2/src/core/tcp_in.c:410:22
	ldrb	r0, [r7, #26]
.Ltmp165:
	.loc	6 410 15 is_stmt 0              @ rt-thread/components/net/lwip-2.0.2/src/core/tcp_in.c:410:15
	lsls	r0, r0, #27
	bmi	.LBB0_80
.Ltmp166:
@ %bb.94:
	@DEBUG_VALUE: tcp_input:pcb <- $r7
	@DEBUG_VALUE: tcp_input:inp <- [DW_OP_LLVM_entry_value 1] $r1
	.loc	6 414 13 is_stmt 1              @ rt-thread/components/net/lwip-2.0.2/src/core/tcp_in.c:414:13
	ldr.w	r2, [r7, #140]
.Ltmp167:
	.loc	6 414 13 is_stmt 0              @ rt-thread/components/net/lwip-2.0.2/src/core/tcp_in.c:414:13
	cmp	r2, #0
	beq	.LBB0_80
.Ltmp168:
@ %bb.95:
	@DEBUG_VALUE: tcp_input:pcb <- $r7
	@DEBUG_VALUE: tcp_input:inp <- [DW_OP_LLVM_entry_value 1] $r1
	.loc	6 414 13                        @ rt-thread/components/net/lwip-2.0.2/src/core/tcp_in.c:414:13
	ldr	r0, [r7, #16]
	mvn	r1, #14
	b	.LBB0_79
.Ltmp169:
.LBB0_96:
	@DEBUG_VALUE: tcp_input:pcb <- $r7
	@DEBUG_VALUE: tcp_input:inp <- [DW_OP_LLVM_entry_value 1] $r1
	.loc	6 432 23 is_stmt 1              @ rt-thread/components/net/lwip-2.0.2/src/core/tcp_in.c:432:23
	ldr.w	r0, [r8]
	.loc	6 432 13 is_stmt 0              @ rt-thread/components/net/lwip-2.0.2/src/core/tcp_in.c:432:13
	bl	pbuf_free
	.loc	6 438 13 is_stmt 1              @ rt-thread/components/net/lwip-2.0.2/src/core/tcp_in.c:438:13
	mov	r0, r7
	bl	tcp_abort
	b	.LBB0_81
.Ltmp170:
.LBB0_97:
	@DEBUG_VALUE: tcp_input:pcb <- $r7
	@DEBUG_VALUE: tcp_input:inp <- [DW_OP_LLVM_entry_value 1] $r1
	.loc	6 443 11                        @ rt-thread/components/net/lwip-2.0.2/src/core/tcp_in.c:443:11
	ldr.w	r2, [r8]
	movs	r0, #0
	movs	r3, #0
	mov	r1, r7
	bl	tcp_recv_null
.Ltmp171:
	@DEBUG_VALUE: tcp_input:err <- undef
.LBB0_98:
	@DEBUG_VALUE: tcp_input:pcb <- $r7
	@DEBUG_VALUE: tcp_input:inp <- [DW_OP_LLVM_entry_value 1] $r1
	@DEBUG_VALUE: tcp_input:err <- $r0
	.loc	6 444 15                        @ rt-thread/components/net/lwip-2.0.2/src/core/tcp_in.c:444:15
	cbz	r0, .LBB0_101
.Ltmp172:
@ %bb.99:
	@DEBUG_VALUE: tcp_input:pcb <- $r7
	@DEBUG_VALUE: tcp_input:err <- $r0
	@DEBUG_VALUE: tcp_input:inp <- [DW_OP_LLVM_entry_value 1] $r1
	uxtb	r0, r0
.Ltmp173:
	cmp	r0, #243
	beq	.LBB0_81
.Ltmp174:
@ %bb.100:
	@DEBUG_VALUE: tcp_input:pcb <- $r7
	@DEBUG_VALUE: tcp_input:inp <- [DW_OP_LLVM_entry_value 1] $r1
	.loc	6 460 33                        @ rt-thread/components/net/lwip-2.0.2/src/core/tcp_in.c:460:33
	ldr.w	r0, [r8]
	.loc	6 460 31 is_stmt 0              @ rt-thread/components/net/lwip-2.0.2/src/core/tcp_in.c:460:31
	str	r0, [r7, #116]
.Ltmp175:
.LBB0_101:
	@DEBUG_VALUE: tcp_input:pcb <- $r7
	@DEBUG_VALUE: tcp_input:inp <- [DW_OP_LLVM_entry_value 1] $r1
	.loc	6 473 13 is_stmt 1              @ rt-thread/components/net/lwip-2.0.2/src/core/tcp_in.c:473:13
	ldrb.w	r0, [r9]
.Ltmp176:
	.loc	6 473 13 is_stmt 0              @ rt-thread/components/net/lwip-2.0.2/src/core/tcp_in.c:473:13
	lsls	r0, r0, #26
	bpl	.LBB0_104
.Ltmp177:
@ %bb.102:
	@DEBUG_VALUE: tcp_input:pcb <- $r7
	@DEBUG_VALUE: tcp_input:inp <- [DW_OP_LLVM_entry_value 1] $r1
	.loc	6 474 20 is_stmt 1              @ rt-thread/components/net/lwip-2.0.2/src/core/tcp_in.c:474:20
	ldr	r0, [r7, #116]
.Ltmp178:
	.loc	6 474 15 is_stmt 0              @ rt-thread/components/net/lwip-2.0.2/src/core/tcp_in.c:474:15
	cbz	r0, .LBB0_105
.Ltmp179:
@ %bb.103:
	@DEBUG_VALUE: tcp_input:pcb <- $r7
	@DEBUG_VALUE: tcp_input:inp <- [DW_OP_LLVM_entry_value 1] $r1
	.loc	6 476 38 is_stmt 1              @ rt-thread/components/net/lwip-2.0.2/src/core/tcp_in.c:476:38
	ldrb	r1, [r0, #13]
	orr	r1, r1, #32
	strb	r1, [r0, #13]
.Ltmp180:
.LBB0_104:
	@DEBUG_VALUE: tcp_input:pcb <- $r7
	@DEBUG_VALUE: tcp_input:inp <- [DW_OP_LLVM_entry_value 1] $r1
	.loc	6 0 38 is_stmt 0                @ rt-thread/components/net/lwip-2.0.2/src/core/tcp_in.c:0:38
	movs	r0, #0
	.loc	6 490 23 is_stmt 1              @ rt-thread/components/net/lwip-2.0.2/src/core/tcp_in.c:490:23
	str	r0, [r4]
	.loc	6 492 9                         @ rt-thread/components/net/lwip-2.0.2/src/core/tcp_in.c:492:9
	mov	r0, r7
	bl	tcp_output
	b	.LBB0_81
.Ltmp181:
.LBB0_105:
	@DEBUG_VALUE: tcp_input:pcb <- $r7
	@DEBUG_VALUE: tcp_input:inp <- [DW_OP_LLVM_entry_value 1] $r1
	.loc	6 480 22                        @ rt-thread/components/net/lwip-2.0.2/src/core/tcp_in.c:480:22
	ldrh	r0, [r7, #40]
	movw	r1, #8196
.Ltmp182:
	.loc	6 480 17 is_stmt 0              @ rt-thread/components/net/lwip-2.0.2/src/core/tcp_in.c:480:17
	cmp	r0, r1
	beq	.LBB0_107
.Ltmp183:
@ %bb.106:
	@DEBUG_VALUE: tcp_input:pcb <- $r7
	@DEBUG_VALUE: tcp_input:inp <- [DW_OP_LLVM_entry_value 1] $r1
	.loc	6 481 27 is_stmt 1              @ rt-thread/components/net/lwip-2.0.2/src/core/tcp_in.c:481:27
	adds	r0, #1
	strh	r0, [r7, #40]
.Ltmp184:
.LBB0_107:
	@DEBUG_VALUE: tcp_input:pcb <- $r7
	@DEBUG_VALUE: tcp_input:inp <- [DW_OP_LLVM_entry_value 1] $r1
	.loc	6 483 13                        @ rt-thread/components/net/lwip-2.0.2/src/core/tcp_in.c:483:13
	ldr.w	r6, [r7, #128]
.Ltmp185:
	.loc	6 483 13 is_stmt 0              @ rt-thread/components/net/lwip-2.0.2/src/core/tcp_in.c:483:13
	cmp	r6, #0
	beq	.LBB0_104
.Ltmp186:
@ %bb.108:
	@DEBUG_VALUE: tcp_input:pcb <- $r7
	@DEBUG_VALUE: tcp_input:inp <- [DW_OP_LLVM_entry_value 1] $r1
	.loc	6 483 13                        @ rt-thread/components/net/lwip-2.0.2/src/core/tcp_in.c:483:13
	ldr	r0, [r7, #16]
	movs	r2, #0
	movs	r3, #0
	mov	r1, r7
	blx	r6
.Ltmp187:
	@DEBUG_VALUE: tcp_input:err <- undef
	.loc	6 484 17 is_stmt 1              @ rt-thread/components/net/lwip-2.0.2/src/core/tcp_in.c:484:17
	adds	r0, #13
	beq.w	.LBB0_81
	b	.LBB0_104
.Ltmp188:
	.p2align	2
@ %bb.109:
	.loc	6 0 17 is_stmt 0                @ rt-thread/components/net/lwip-2.0.2/src/core/tcp_in.c:0:17
.LCPI0_0:
.L.str:
	.asciz	"p->next != NULL"
.LCPI0_1:
.L.str.2:
	.asciz	"p->len == 0"
.LCPI0_2:
.L.str.3:
	.asciz	"p->tot_len == p->next->tot_len\000"
.LCPI0_3:
.L.str.4:
	.asciz	"tcp_input: active pcb->state != CLOSED\000"
.LCPI0_4:
.L.str.5:
	.asciz	"tcp_input: active pcb->state != TIME-WAIT\000\000"
.Lfunc_end0:
	.size	tcp_input, .Lfunc_end0-tcp_input
	.cfi_endproc
	.cantunwind
	.fnend
                                        @ -- End function
	.section	.text.tcp_timewait_input,"ax",%progbits
	.p2align	3                               @ -- Begin function tcp_timewait_input
	.type	tcp_timewait_input,%function
	.code	16                              @ @tcp_timewait_input
	.thumb_func
tcp_timewait_input:
.Lfunc_begin1:
	.loc	6 645 0 is_stmt 1               @ rt-thread/components/net/lwip-2.0.2/src/core/tcp_in.c:645:0
	.fnstart
	.cfi_startproc
@ %bb.0:
	@DEBUG_VALUE: tcp_timewait_input:pcb <- $r0
	.save	{r7, lr}
	push	{r7, lr}
	.cfi_def_cfa_offset 8
	.cfi_offset lr, -4
	.cfi_offset r7, -8
	.pad	#8
	sub	sp, #8
	.cfi_def_cfa_offset 16
.Ltmp189:
	.loc	6 651 7 prologue_end            @ rt-thread/components/net/lwip-2.0.2/src/core/tcp_in.c:651:7
	movw	r1, :lower16:flags
	movt	r1, :upper16:flags
	ldrb	r1, [r1]
.Ltmp190:
	.loc	6 651 7 is_stmt 0               @ rt-thread/components/net/lwip-2.0.2/src/core/tcp_in.c:651:7
	lsls	r2, r1, #29
	@DEBUG_VALUE: tcp_timewait_input:pcb <- $r0
	bmi	.LBB1_8
.Ltmp191:
@ %bb.1:
	@DEBUG_VALUE: tcp_timewait_input:pcb <- $r0
	.loc	6 655 7 is_stmt 1               @ rt-thread/components/net/lwip-2.0.2/src/core/tcp_in.c:655:7
	lsls	r2, r1, #30
	bmi	.LBB1_4
.Ltmp192:
@ %bb.2:
	@DEBUG_VALUE: tcp_timewait_input:pcb <- $r0
	.loc	6 664 14                        @ rt-thread/components/net/lwip-2.0.2/src/core/tcp_in.c:664:14
	lsls	r1, r1, #31
	beq	.LBB1_6
.Ltmp193:
@ %bb.3:
	@DEBUG_VALUE: tcp_timewait_input:pcb <- $r0
	.loc	6 667 16                        @ rt-thread/components/net/lwip-2.0.2/src/core/tcp_in.c:667:16
	movw	r1, :lower16:tcp_ticks
	movt	r1, :upper16:tcp_ticks
	ldr	r1, [r1]
	.loc	6 667 14 is_stmt 0              @ rt-thread/components/net/lwip-2.0.2/src/core/tcp_in.c:667:14
	str	r1, [r0, #32]
	b	.LBB1_6
.Ltmp194:
.LBB1_4:
	@DEBUG_VALUE: tcp_timewait_input:pcb <- $r0
	.loc	6 658 9 is_stmt 1               @ rt-thread/components/net/lwip-2.0.2/src/core/tcp_in.c:658:9
	movw	r1, :lower16:seqno
	ldr	r2, [r0, #36]
	movt	r1, :upper16:seqno
	ldr	r1, [r1]
	subs	r2, r1, r2
	bmi	.LBB1_6
.Ltmp195:
@ %bb.5:
	@DEBUG_VALUE: tcp_timewait_input:pcb <- $r0
	ldrh	r3, [r0, #40]
	subs	r2, r2, r3
.Ltmp196:
	.loc	6 658 9 is_stmt 0               @ rt-thread/components/net/lwip-2.0.2/src/core/tcp_in.c:658:9
	cmp	r2, #0
	ble	.LBB1_9
.Ltmp197:
.LBB1_6:
	@DEBUG_VALUE: tcp_timewait_input:pcb <- $r0
	.loc	6 670 8 is_stmt 1               @ rt-thread/components/net/lwip-2.0.2/src/core/tcp_in.c:670:8
	movw	r1, :lower16:tcplen
	movt	r1, :upper16:tcplen
	ldrh	r1, [r1]
.Ltmp198:
	.loc	6 670 7 is_stmt 0               @ rt-thread/components/net/lwip-2.0.2/src/core/tcp_in.c:670:7
	cbz	r1, .LBB1_8
.Ltmp199:
@ %bb.7:
	@DEBUG_VALUE: tcp_timewait_input:pcb <- $r0
	.loc	6 672 16 is_stmt 1              @ rt-thread/components/net/lwip-2.0.2/src/core/tcp_in.c:672:16
	ldrb	r1, [r0, #26]
	orr	r1, r1, #2
	strb	r1, [r0, #26]
	.loc	6 673 5                         @ rt-thread/components/net/lwip-2.0.2/src/core/tcp_in.c:673:5
	bl	tcp_output
.Ltmp200:
	@DEBUG_VALUE: tcp_timewait_input:pcb <- [DW_OP_LLVM_entry_value 1] $r0
.LBB1_8:
	.loc	6 676 1                         @ rt-thread/components/net/lwip-2.0.2/src/core/tcp_in.c:676:1
	add	sp, #8
	pop	{r7, pc}
.LBB1_9:
.Ltmp201:
	@DEBUG_VALUE: tcp_timewait_input:pcb <- $r0
	.loc	6 661 32                        @ rt-thread/components/net/lwip-2.0.2/src/core/tcp_in.c:661:32
	movw	r0, :lower16:tcphdr
.Ltmp202:
	@DEBUG_VALUE: tcp_timewait_input:pcb <- [DW_OP_LLVM_entry_value 1] $r0
	.loc	6 660 30                        @ rt-thread/components/net/lwip-2.0.2/src/core/tcp_in.c:660:30
	movw	r2, :lower16:tcplen
	.loc	6 661 32                        @ rt-thread/components/net/lwip-2.0.2/src/core/tcp_in.c:661:32
	movt	r0, :upper16:tcphdr
	.loc	6 660 30                        @ rt-thread/components/net/lwip-2.0.2/src/core/tcp_in.c:660:30
	movt	r2, :upper16:tcplen
	.loc	6 660 15 is_stmt 0              @ rt-thread/components/net/lwip-2.0.2/src/core/tcp_in.c:660:15
	movw	r12, :lower16:ackno
	.loc	6 661 32 is_stmt 1              @ rt-thread/components/net/lwip-2.0.2/src/core/tcp_in.c:661:32
	ldr	r0, [r0]
	.loc	6 660 15                        @ rt-thread/components/net/lwip-2.0.2/src/core/tcp_in.c:660:15
	movt	r12, :upper16:ackno
	.loc	6 660 30 is_stmt 0              @ rt-thread/components/net/lwip-2.0.2/src/core/tcp_in.c:660:30
	ldrh	r2, [r2]
	.loc	6 661 40 is_stmt 1              @ rt-thread/components/net/lwip-2.0.2/src/core/tcp_in.c:661:40
	ldrh	r3, [r0, #2]
	.loc	6 661 54 is_stmt 0              @ rt-thread/components/net/lwip-2.0.2/src/core/tcp_in.c:661:54
	ldrh.w	lr, [r0]
	.loc	6 660 7 is_stmt 1               @ rt-thread/components/net/lwip-2.0.2/src/core/tcp_in.c:660:7
	str	r3, [sp]
	movw	r3, :lower16:ip_data
	.loc	6 660 28 is_stmt 0              @ rt-thread/components/net/lwip-2.0.2/src/core/tcp_in.c:660:28
	add	r1, r2
	.loc	6 660 7                         @ rt-thread/components/net/lwip-2.0.2/src/core/tcp_in.c:660:7
	movt	r3, :upper16:ip_data
	.loc	6 660 15                        @ rt-thread/components/net/lwip-2.0.2/src/core/tcp_in.c:660:15
	ldr.w	r0, [r12]
	.loc	6 660 7                         @ rt-thread/components/net/lwip-2.0.2/src/core/tcp_in.c:660:7
	add.w	r2, r3, #20
	adds	r3, #16
	str.w	lr, [sp, #4]
	bl	tcp_rst
.Ltmp203:
	.loc	6 676 1 is_stmt 1               @ rt-thread/components/net/lwip-2.0.2/src/core/tcp_in.c:676:1
	add	sp, #8
	pop	{r7, pc}
.Ltmp204:
.Lfunc_end1:
	.size	tcp_timewait_input, .Lfunc_end1-tcp_timewait_input
	.cfi_endproc
	.cantunwind
	.fnend
                                        @ -- End function
	.section	.text.tcp_listen_input,"ax",%progbits
	.p2align	3                               @ -- Begin function tcp_listen_input
	.type	tcp_listen_input,%function
	.code	16                              @ @tcp_listen_input
	.thumb_func
tcp_listen_input:
.Lfunc_begin2:
	.loc	6 546 0                         @ rt-thread/components/net/lwip-2.0.2/src/core/tcp_in.c:546:0
	.fnstart
	.cfi_startproc
@ %bb.0:
	@DEBUG_VALUE: tcp_listen_input:pcb <- $r0
	.save	{r4, r5, r6, r7, r8, lr}
	push.w	{r4, r5, r6, r7, r8, lr}
	.cfi_def_cfa_offset 24
	.cfi_offset lr, -4
	.cfi_offset r8, -8
	.cfi_offset r7, -12
	.cfi_offset r6, -16
	.cfi_offset r5, -20
	.cfi_offset r4, -24
	.pad	#8
	sub	sp, #8
	.cfi_def_cfa_offset 32
.Ltmp205:
	.loc	6 551 7 prologue_end            @ rt-thread/components/net/lwip-2.0.2/src/core/tcp_in.c:551:7
	movw	r1, :lower16:flags
	movt	r1, :upper16:flags
	ldrb	r1, [r1]
.Ltmp206:
	.loc	6 551 7 is_stmt 0               @ rt-thread/components/net/lwip-2.0.2/src/core/tcp_in.c:551:7
	lsls	r2, r1, #29
	@DEBUG_VALUE: tcp_listen_input:pcb <- $r0
	bmi	.LBB2_3
.Ltmp207:
@ %bb.1:
	@DEBUG_VALUE: tcp_listen_input:pcb <- $r0
	.loc	6 0 7                           @ rt-thread/components/net/lwip-2.0.2/src/core/tcp_in.c:0:7
	mov	r5, r0
.Ltmp208:
	@DEBUG_VALUE: tcp_listen_input:pcb <- $r5
	@DEBUG_VALUE: tcp_listen_input:pcb <- $r5
	.loc	6 558 7 is_stmt 1               @ rt-thread/components/net/lwip-2.0.2/src/core/tcp_in.c:558:7
	lsls	r0, r1, #27
	bmi	.LBB2_4
.Ltmp209:
@ %bb.2:
	@DEBUG_VALUE: tcp_listen_input:pcb <- $r5
	.loc	6 564 14                        @ rt-thread/components/net/lwip-2.0.2/src/core/tcp_in.c:564:14
	lsls	r0, r1, #30
	bmi	.LBB2_5
.Ltmp210:
.LBB2_3:
	.loc	6 632 1                         @ rt-thread/components/net/lwip-2.0.2/src/core/tcp_in.c:632:1
	add	sp, #8
	pop.w	{r4, r5, r6, r7, r8, pc}
.LBB2_4:
.Ltmp211:
	@DEBUG_VALUE: tcp_listen_input:pcb <- $r5
	.loc	6 562 28                        @ rt-thread/components/net/lwip-2.0.2/src/core/tcp_in.c:562:28
	movw	r3, :lower16:tcplen
	.loc	6 562 20 is_stmt 0              @ rt-thread/components/net/lwip-2.0.2/src/core/tcp_in.c:562:20
	movw	r1, :lower16:seqno
	.loc	6 562 28                        @ rt-thread/components/net/lwip-2.0.2/src/core/tcp_in.c:562:28
	movt	r3, :upper16:tcplen
	.loc	6 562 20                        @ rt-thread/components/net/lwip-2.0.2/src/core/tcp_in.c:562:20
	movt	r1, :upper16:seqno
	.loc	6 563 30 is_stmt 1              @ rt-thread/components/net/lwip-2.0.2/src/core/tcp_in.c:563:30
	movw	r2, :lower16:tcphdr
	.loc	6 562 13                        @ rt-thread/components/net/lwip-2.0.2/src/core/tcp_in.c:562:13
	movw	r0, :lower16:ackno
	.loc	6 563 30                        @ rt-thread/components/net/lwip-2.0.2/src/core/tcp_in.c:563:30
	movt	r2, :upper16:tcphdr
	.loc	6 562 28                        @ rt-thread/components/net/lwip-2.0.2/src/core/tcp_in.c:562:28
	ldrh	r3, [r3]
	.loc	6 562 20 is_stmt 0              @ rt-thread/components/net/lwip-2.0.2/src/core/tcp_in.c:562:20
	ldr	r1, [r1]
	.loc	6 562 13                        @ rt-thread/components/net/lwip-2.0.2/src/core/tcp_in.c:562:13
	movt	r0, :upper16:ackno
	.loc	6 563 30 is_stmt 1              @ rt-thread/components/net/lwip-2.0.2/src/core/tcp_in.c:563:30
	ldr	r2, [r2]
	.loc	6 562 26                        @ rt-thread/components/net/lwip-2.0.2/src/core/tcp_in.c:562:26
	add	r1, r3
	.loc	6 562 5 is_stmt 0               @ rt-thread/components/net/lwip-2.0.2/src/core/tcp_in.c:562:5
	movw	r3, :lower16:ip_data
	.loc	6 562 13                        @ rt-thread/components/net/lwip-2.0.2/src/core/tcp_in.c:562:13
	ldr	r0, [r0]
	.loc	6 562 5                         @ rt-thread/components/net/lwip-2.0.2/src/core/tcp_in.c:562:5
	movt	r3, :upper16:ip_data
	.loc	6 563 38 is_stmt 1              @ rt-thread/components/net/lwip-2.0.2/src/core/tcp_in.c:563:38
	ldrh	r7, [r2, #2]
	.loc	6 563 52 is_stmt 0              @ rt-thread/components/net/lwip-2.0.2/src/core/tcp_in.c:563:52
	ldrh	r6, [r2]
	.loc	6 562 5 is_stmt 1               @ rt-thread/components/net/lwip-2.0.2/src/core/tcp_in.c:562:5
	add.w	r2, r3, #20
	adds	r3, #16
	str	r7, [sp]
	str	r6, [sp, #4]
	bl	tcp_rst
.Ltmp212:
	.loc	6 632 1                         @ rt-thread/components/net/lwip-2.0.2/src/core/tcp_in.c:632:1
	add	sp, #8
	pop.w	{r4, r5, r6, r7, r8, pc}
.Ltmp213:
.LBB2_5:
	@DEBUG_VALUE: tcp_listen_input:pcb <- $r5
	.loc	6 572 27                        @ rt-thread/components/net/lwip-2.0.2/src/core/tcp_in.c:572:27
	ldrb	r0, [r5, #21]
	.loc	6 572 12 is_stmt 0              @ rt-thread/components/net/lwip-2.0.2/src/core/tcp_in.c:572:12
	bl	tcp_alloc
.Ltmp214:
	@DEBUG_VALUE: tcp_listen_input:npcb <- $r0
	.loc	6 576 9 is_stmt 1               @ rt-thread/components/net/lwip-2.0.2/src/core/tcp_in.c:576:9
	cmp	r0, #0
	beq	.LBB2_8
.Ltmp215:
@ %bb.6:
	@DEBUG_VALUE: tcp_listen_input:pcb <- $r5
	@DEBUG_VALUE: tcp_listen_input:npcb <- $r0
	.loc	6 0 0 is_stmt 0                 @ rt-thread/components/net/lwip-2.0.2/src/core/tcp_in.c:0:0
	mov	r4, r0
.Ltmp216:
	@DEBUG_VALUE: tcp_listen_input:npcb <- $r4
	@DEBUG_VALUE: tcp_listen_input:npcb <- $r4
	.loc	6 589 5 is_stmt 1               @ rt-thread/components/net/lwip-2.0.2/src/core/tcp_in.c:589:5
	movw	r0, :lower16:ip_data
	.loc	6 592 25                        @ rt-thread/components/net/lwip-2.0.2/src/core/tcp_in.c:592:25
	movw	r8, :lower16:tcphdr
	.loc	6 589 5                         @ rt-thread/components/net/lwip-2.0.2/src/core/tcp_in.c:589:5
	movt	r0, :upper16:ip_data
	.loc	6 592 25                        @ rt-thread/components/net/lwip-2.0.2/src/core/tcp_in.c:592:25
	movt	r8, :upper16:tcphdr
	.loc	6 594 21                        @ rt-thread/components/net/lwip-2.0.2/src/core/tcp_in.c:594:21
	movw	r7, :lower16:seqno
	.loc	6 590 5                         @ rt-thread/components/net/lwip-2.0.2/src/core/tcp_in.c:590:5
	ldrd	r1, r0, [r0, #16]
	.loc	6 589 5                         @ rt-thread/components/net/lwip-2.0.2/src/core/tcp_in.c:589:5
	str	r0, [r4]
	.loc	6 592 25                        @ rt-thread/components/net/lwip-2.0.2/src/core/tcp_in.c:592:25
	ldr.w	r0, [r8]
	.loc	6 594 21                        @ rt-thread/components/net/lwip-2.0.2/src/core/tcp_in.c:594:21
	movt	r7, :upper16:seqno
	.loc	6 590 5                         @ rt-thread/components/net/lwip-2.0.2/src/core/tcp_in.c:590:5
	mov	r6, r4
	.loc	6 592 33                        @ rt-thread/components/net/lwip-2.0.2/src/core/tcp_in.c:592:33
	ldrh	r0, [r0]
	.loc	6 592 23 is_stmt 0              @ rt-thread/components/net/lwip-2.0.2/src/core/tcp_in.c:592:23
	strh	r0, [r4, #24]
	movs	r0, #3
	.loc	6 593 17 is_stmt 1              @ rt-thread/components/net/lwip-2.0.2/src/core/tcp_in.c:593:17
	strb	r0, [r4, #20]
	.loc	6 594 21                        @ rt-thread/components/net/lwip-2.0.2/src/core/tcp_in.c:594:21
	ldr	r0, [r7]
	.loc	6 590 5                         @ rt-thread/components/net/lwip-2.0.2/src/core/tcp_in.c:590:5
	str	r1, [r6, #4]!
	.loc	6 591 29                        @ rt-thread/components/net/lwip-2.0.2/src/core/tcp_in.c:591:29
	ldrh	r1, [r5, #22]
	.loc	6 594 27                        @ rt-thread/components/net/lwip-2.0.2/src/core/tcp_in.c:594:27
	adds	r0, #1
	.loc	6 594 19 is_stmt 0              @ rt-thread/components/net/lwip-2.0.2/src/core/tcp_in.c:594:19
	str	r0, [r4, #36]
	.loc	6 595 30 is_stmt 1              @ rt-thread/components/net/lwip-2.0.2/src/core/tcp_in.c:595:30
	str	r0, [r4, #44]
	.loc	6 596 11                        @ rt-thread/components/net/lwip-2.0.2/src/core/tcp_in.c:596:11
	mov	r0, r4
	.loc	6 591 22                        @ rt-thread/components/net/lwip-2.0.2/src/core/tcp_in.c:591:22
	strh	r1, [r4, #22]
	.loc	6 596 11                        @ rt-thread/components/net/lwip-2.0.2/src/core/tcp_in.c:596:11
	bl	tcp_next_iss
.Ltmp217:
	@DEBUG_VALUE: tcp_listen_input:iss <- $r0
	.loc	6 601 21                        @ rt-thread/components/net/lwip-2.0.2/src/core/tcp_in.c:601:21
	ldr	r1, [r7]
	.loc	6 599 19                        @ rt-thread/components/net/lwip-2.0.2/src/core/tcp_in.c:599:19
	str	r0, [r4, #68]
	.loc	6 598 19                        @ rt-thread/components/net/lwip-2.0.2/src/core/tcp_in.c:598:19
	str	r0, [r4, #76]
	.loc	6 601 27                        @ rt-thread/components/net/lwip-2.0.2/src/core/tcp_in.c:601:27
	subs	r1, #1
	.loc	6 601 19 is_stmt 0              @ rt-thread/components/net/lwip-2.0.2/src/core/tcp_in.c:601:19
	strd	r1, r0, [r4, #80]
	.loc	6 600 19 is_stmt 1              @ rt-thread/components/net/lwip-2.0.2/src/core/tcp_in.c:600:19
	str	r0, [r4, #88]
	.loc	6 607 29                        @ rt-thread/components/net/lwip-2.0.2/src/core/tcp_in.c:607:29
	ldrb	r0, [r5, #8]
.Ltmp218:
	.loc	6 602 31                        @ rt-thread/components/net/lwip-2.0.2/src/core/tcp_in.c:602:31
	ldr	r1, [r5, #16]
	.loc	6 602 24 is_stmt 0              @ rt-thread/components/net/lwip-2.0.2/src/core/tcp_in.c:602:24
	str	r1, [r4, #16]
	.loc	6 607 40 is_stmt 1              @ rt-thread/components/net/lwip-2.0.2/src/core/tcp_in.c:607:40
	and	r0, r0, #12
	.loc	6 607 22 is_stmt 0              @ rt-thread/components/net/lwip-2.0.2/src/core/tcp_in.c:607:22
	strb	r0, [r4, #8]
.Ltmp219:
	.loc	6 610 5 is_stmt 1               @ rt-thread/components/net/lwip-2.0.2/src/core/tcp_in.c:610:5
	movw	r0, :lower16:tcp_active_pcbs
.Ltmp220:
	.loc	6 604 20                        @ rt-thread/components/net/lwip-2.0.2/src/core/tcp_in.c:604:20
	str	r5, [r4, #120]
.Ltmp221:
	.loc	6 610 5                         @ rt-thread/components/net/lwip-2.0.2/src/core/tcp_in.c:610:5
	movt	r0, :upper16:tcp_active_pcbs
	ldr	r1, [r0]
	str	r1, [r4, #12]
	str	r4, [r0]
	bl	tcp_timer_needed
.Ltmp222:
	.loc	6 610 5 is_stmt 0               @ rt-thread/components/net/lwip-2.0.2/src/core/tcp_in.c:610:5
	movw	r0, :lower16:tcp_active_pcbs_changed
	movs	r1, #1
	movt	r0, :upper16:tcp_active_pcbs_changed
	strb	r1, [r0]
.Ltmp223:
	.loc	6 613 5 is_stmt 1               @ rt-thread/components/net/lwip-2.0.2/src/core/tcp_in.c:613:5
	mov	r0, r4
	bl	tcp_parseopt
	.loc	6 614 21                        @ rt-thread/components/net/lwip-2.0.2/src/core/tcp_in.c:614:21
	ldr.w	r0, [r8]
	.loc	6 614 29 is_stmt 0              @ rt-thread/components/net/lwip-2.0.2/src/core/tcp_in.c:614:29
	ldrh	r1, [r0, #14]
	.loc	6 618 17 is_stmt 1              @ rt-thread/components/net/lwip-2.0.2/src/core/tcp_in.c:618:17
	ldrh	r0, [r4, #50]
	.loc	6 614 19                        @ rt-thread/components/net/lwip-2.0.2/src/core/tcp_in.c:614:19
	strh.w	r1, [r4, #92]
	.loc	6 615 23                        @ rt-thread/components/net/lwip-2.0.2/src/core/tcp_in.c:615:23
	strh.w	r1, [r4, #94]
	.loc	6 618 17                        @ rt-thread/components/net/lwip-2.0.2/src/core/tcp_in.c:618:17
	mov	r1, r6
	bl	tcp_eff_send_mss_impl
	.loc	6 618 15 is_stmt 0              @ rt-thread/components/net/lwip-2.0.2/src/core/tcp_in.c:618:15
	strh	r0, [r4, #50]
	.loc	6 624 10 is_stmt 1              @ rt-thread/components/net/lwip-2.0.2/src/core/tcp_in.c:624:10
	movs	r1, #18
	mov	r0, r4
	bl	tcp_enqueue_flags
.Ltmp224:
	@DEBUG_VALUE: tcp_listen_input:rc <- $r0
	.loc	6 625 9                         @ rt-thread/components/net/lwip-2.0.2/src/core/tcp_in.c:625:9
	cbz	r0, .LBB2_10
.Ltmp225:
@ %bb.7:
	@DEBUG_VALUE: tcp_listen_input:pcb <- $r5
	@DEBUG_VALUE: tcp_listen_input:npcb <- $r4
	@DEBUG_VALUE: tcp_listen_input:rc <- $r0
	.loc	6 626 7                         @ rt-thread/components/net/lwip-2.0.2/src/core/tcp_in.c:626:7
	movs	r1, #0
	mov	r0, r4
.Ltmp226:
	bl	tcp_abandon
.Ltmp227:
	.loc	6 632 1                         @ rt-thread/components/net/lwip-2.0.2/src/core/tcp_in.c:632:1
	add	sp, #8
	pop.w	{r4, r5, r6, r7, r8, pc}
.Ltmp228:
.LBB2_8:
	@DEBUG_VALUE: tcp_listen_input:pcb <- $r5
	@DEBUG_VALUE: tcp_listen_input:npcb <- $r0
	.loc	6 580 7                         @ rt-thread/components/net/lwip-2.0.2/src/core/tcp_in.c:580:7
	ldr	r3, [r5, #24]
.Ltmp229:
	.loc	6 580 7 is_stmt 0               @ rt-thread/components/net/lwip-2.0.2/src/core/tcp_in.c:580:7
	cmp	r3, #0
	beq.w	.LBB2_3
.Ltmp230:
@ %bb.9:
	@DEBUG_VALUE: tcp_listen_input:pcb <- $r5
	@DEBUG_VALUE: tcp_listen_input:npcb <- $r0
	.loc	6 580 7                         @ rt-thread/components/net/lwip-2.0.2/src/core/tcp_in.c:580:7
	ldr	r0, [r5, #16]
.Ltmp231:
	movs	r1, #0
	mov.w	r2, #-1
	blx	r3
.Ltmp232:
	@DEBUG_VALUE: err <- undef
	.loc	6 632 1 is_stmt 1               @ rt-thread/components/net/lwip-2.0.2/src/core/tcp_in.c:632:1
	add	sp, #8
	pop.w	{r4, r5, r6, r7, r8, pc}
.Ltmp233:
.LBB2_10:
	@DEBUG_VALUE: tcp_listen_input:pcb <- $r5
	@DEBUG_VALUE: tcp_listen_input:npcb <- $r4
	@DEBUG_VALUE: tcp_listen_input:rc <- $r0
	.loc	6 629 5                         @ rt-thread/components/net/lwip-2.0.2/src/core/tcp_in.c:629:5
	mov	r0, r4
.Ltmp234:
	bl	tcp_output
.Ltmp235:
	.loc	6 632 1                         @ rt-thread/components/net/lwip-2.0.2/src/core/tcp_in.c:632:1
	add	sp, #8
	pop.w	{r4, r5, r6, r7, r8, pc}
.Ltmp236:
.Lfunc_end2:
	.size	tcp_listen_input, .Lfunc_end2-tcp_listen_input
	.cfi_endproc
	.cantunwind
	.fnend
                                        @ -- End function
	.section	.text.tcp_process,"ax",%progbits
	.p2align	3                               @ -- Begin function tcp_process
	.type	tcp_process,%function
	.code	16                              @ @tcp_process
	.thumb_func
tcp_process:
.Lfunc_begin3:
	.loc	6 691 0                         @ rt-thread/components/net/lwip-2.0.2/src/core/tcp_in.c:691:0
	.fnstart
	.cfi_startproc
@ %bb.0:
	@DEBUG_VALUE: tcp_process:pcb <- $r0
	.save	{r4, r5, r6, r7, r8, lr}
	push.w	{r4, r5, r6, r7, r8, lr}
	.cfi_def_cfa_offset 24
	.cfi_offset lr, -4
	.cfi_offset r8, -8
	.cfi_offset r7, -12
	.cfi_offset r6, -16
	.cfi_offset r5, -20
	.cfi_offset r4, -24
	.pad	#8
	sub	sp, #8
	.cfi_def_cfa_offset 32
.Ltmp237:
	.loc	6 699 7 prologue_end            @ rt-thread/components/net/lwip-2.0.2/src/core/tcp_in.c:699:7
	movw	r6, :lower16:flags
	mov	r4, r0
.Ltmp238:
	@DEBUG_VALUE: tcp_process:pcb <- $r4
	@DEBUG_VALUE: tcp_process:err <- 0
	@DEBUG_VALUE: tcp_process:acceptable <- 0
	@DEBUG_VALUE: tcp_process:pcb <- $r4
	movt	r6, :upper16:flags
	ldrb	r7, [r6]
.Ltmp239:
	.loc	6 699 7 is_stmt 0               @ rt-thread/components/net/lwip-2.0.2/src/core/tcp_in.c:699:7
	lsls	r1, r7, #29
	bmi	.LBB3_10
.Ltmp240:
@ %bb.1:
	@DEBUG_VALUE: tcp_process:pcb <- $r4
	@DEBUG_VALUE: tcp_process:acceptable <- 0
	@DEBUG_VALUE: tcp_process:err <- 0
	.loc	6 737 14 is_stmt 1              @ rt-thread/components/net/lwip-2.0.2/src/core/tcp_in.c:737:14
	ands	r8, r7, #2
	.loc	6 737 25 is_stmt 0              @ rt-thread/components/net/lwip-2.0.2/src/core/tcp_in.c:737:25
	beq	.LBB3_3
.Ltmp241:
@ %bb.2:
	@DEBUG_VALUE: tcp_process:pcb <- $r4
	@DEBUG_VALUE: tcp_process:acceptable <- 0
	@DEBUG_VALUE: tcp_process:err <- 0
	.loc	6 737 34                        @ rt-thread/components/net/lwip-2.0.2/src/core/tcp_in.c:737:34
	ldrb	r0, [r4, #20]
	.loc	6 737 52                        @ rt-thread/components/net/lwip-2.0.2/src/core/tcp_in.c:737:52
	and	r0, r0, #254
	cmp	r0, #2
	bne	.LBB3_17
.Ltmp242:
.LBB3_3:
	@DEBUG_VALUE: tcp_process:pcb <- $r4
	@DEBUG_VALUE: tcp_process:acceptable <- 0
	@DEBUG_VALUE: tcp_process:err <- 0
	.loc	6 743 13 is_stmt 1              @ rt-thread/components/net/lwip-2.0.2/src/core/tcp_in.c:743:13
	ldrb	r0, [r4, #26]
.Ltmp243:
	.loc	6 743 7 is_stmt 0               @ rt-thread/components/net/lwip-2.0.2/src/core/tcp_in.c:743:7
	lsls	r0, r0, #27
	bmi	.LBB3_5
.Ltmp244:
@ %bb.4:
	@DEBUG_VALUE: tcp_process:pcb <- $r4
	@DEBUG_VALUE: tcp_process:acceptable <- 0
	@DEBUG_VALUE: tcp_process:err <- 0
	.loc	6 745 16 is_stmt 1              @ rt-thread/components/net/lwip-2.0.2/src/core/tcp_in.c:745:16
	movw	r0, :lower16:tcp_ticks
	movt	r0, :upper16:tcp_ticks
	ldr	r0, [r0]
	.loc	6 745 14 is_stmt 0              @ rt-thread/components/net/lwip-2.0.2/src/core/tcp_in.c:745:14
	str	r0, [r4, #32]
.Ltmp245:
.LBB3_5:
	@DEBUG_VALUE: tcp_process:pcb <- $r4
	@DEBUG_VALUE: tcp_process:acceptable <- 0
	@DEBUG_VALUE: tcp_process:err <- 0
	.loc	6 749 3 is_stmt 1               @ rt-thread/components/net/lwip-2.0.2/src/core/tcp_in.c:749:3
	mov	r0, r4
	movs	r5, #0
	.loc	6 747 22                        @ rt-thread/components/net/lwip-2.0.2/src/core/tcp_in.c:747:22
	strb.w	r5, [r4, #158]
	.loc	6 749 3                         @ rt-thread/components/net/lwip-2.0.2/src/core/tcp_in.c:749:3
	bl	tcp_parseopt
	.loc	6 752 16                        @ rt-thread/components/net/lwip-2.0.2/src/core/tcp_in.c:752:16
	ldrb	r0, [r4, #20]
	.loc	6 752 3 is_stmt 0               @ rt-thread/components/net/lwip-2.0.2/src/core/tcp_in.c:752:3
	subs	r0, #2
	cmp	r0, #7
	bhi.w	.LBB3_111
.Ltmp246:
@ %bb.6:
	@DEBUG_VALUE: tcp_process:pcb <- $r4
	@DEBUG_VALUE: tcp_process:acceptable <- 0
	@DEBUG_VALUE: tcp_process:err <- 0
	.loc	6 0 3                           @ rt-thread/components/net/lwip-2.0.2/src/core/tcp_in.c:0:3
.LCPI3_4:
	tbb	[pc, r0]
.Ltmp247:
@ %bb.7:
.LJTI3_0:
	.byte	(.LBB3_22-(.LCPI3_4+4))/2
	.byte	(.LBB3_31-(.LCPI3_4+4))/2
	.byte	(.LBB3_8-(.LCPI3_4+4))/2
	.byte	(.LBB3_34-(.LCPI3_4+4))/2
	.byte	(.LBB3_37-(.LCPI3_4+4))/2
	.byte	(.LBB3_8-(.LCPI3_4+4))/2
	.byte	(.LBB3_39-(.LCPI3_4+4))/2
	.byte	(.LBB3_41-(.LCPI3_4+4))/2
	.p2align	1
.LBB3_8:
.Ltmp248:
	@DEBUG_VALUE: tcp_process:pcb <- $r4
	@DEBUG_VALUE: tcp_process:acceptable <- 0
	@DEBUG_VALUE: tcp_process:err <- 0
	.loc	6 882 5 is_stmt 1               @ rt-thread/components/net/lwip-2.0.2/src/core/tcp_in.c:882:5
	mov	r0, r4
	bl	tcp_receive
.Ltmp249:
	.loc	6 883 9                         @ rt-thread/components/net/lwip-2.0.2/src/core/tcp_in.c:883:9
	movw	r0, :lower16:recv_flags
	movt	r0, :upper16:recv_flags
	ldrb	r0, [r0]
.Ltmp250:
	.loc	6 883 9 is_stmt 0               @ rt-thread/components/net/lwip-2.0.2/src/core/tcp_in.c:883:9
	lsls	r0, r0, #26
	bmi.w	.LBB3_43
.Ltmp251:
@ %bb.9:
	@DEBUG_VALUE: tcp_process:pcb <- $r4
	@DEBUG_VALUE: tcp_process:acceptable <- 0
	@DEBUG_VALUE: tcp_process:err <- 0
	.loc	6 0 9                           @ rt-thread/components/net/lwip-2.0.2/src/core/tcp_in.c:0:9
	movs	r5, #0
	b	.LBB3_111
.Ltmp252:
.LBB3_10:
	@DEBUG_VALUE: tcp_process:pcb <- $r4
	@DEBUG_VALUE: tcp_process:acceptable <- 0
	@DEBUG_VALUE: tcp_process:err <- 0
	.loc	6 701 14 is_stmt 1              @ rt-thread/components/net/lwip-2.0.2/src/core/tcp_in.c:701:14
	ldrb	r0, [r4, #20]
.Ltmp253:
	.loc	6 701 9 is_stmt 0               @ rt-thread/components/net/lwip-2.0.2/src/core/tcp_in.c:701:9
	cmp	r0, #2
	bne	.LBB3_13
.Ltmp254:
@ %bb.11:
	@DEBUG_VALUE: tcp_process:pcb <- $r4
	@DEBUG_VALUE: tcp_process:acceptable <- 0
	@DEBUG_VALUE: tcp_process:err <- 0
	.loc	6 704 11 is_stmt 1              @ rt-thread/components/net/lwip-2.0.2/src/core/tcp_in.c:704:11
	movw	r1, :lower16:ackno
	.loc	6 704 25 is_stmt 0              @ rt-thread/components/net/lwip-2.0.2/src/core/tcp_in.c:704:25
	ldr	r2, [r4, #76]
.Ltmp255:
	@DEBUG_VALUE: tcp_process:acceptable <- undef
	.loc	6 704 11                        @ rt-thread/components/net/lwip-2.0.2/src/core/tcp_in.c:704:11
	movt	r1, :upper16:ackno
	ldr	r1, [r1]
.Ltmp256:
	.loc	6 722 9 is_stmt 1               @ rt-thread/components/net/lwip-2.0.2/src/core/tcp_in.c:722:9
	cmp	r1, r2
	beq	.LBB3_14
.Ltmp257:
@ %bb.12:
	@DEBUG_VALUE: tcp_process:pcb <- $r4
	@DEBUG_VALUE: tcp_process:err <- 0
	.loc	6 0 9 is_stmt 0                 @ rt-thread/components/net/lwip-2.0.2/src/core/tcp_in.c:0:9
	movs	r5, #0
	b	.LBB3_111
.Ltmp258:
.LBB3_13:
	@DEBUG_VALUE: tcp_process:pcb <- $r4
	@DEBUG_VALUE: tcp_process:acceptable <- 0
	@DEBUG_VALUE: tcp_process:err <- 0
	.loc	6 710 11 is_stmt 1              @ rt-thread/components/net/lwip-2.0.2/src/core/tcp_in.c:710:11
	movw	r1, :lower16:seqno
	.loc	6 710 25 is_stmt 0              @ rt-thread/components/net/lwip-2.0.2/src/core/tcp_in.c:710:25
	ldr	r2, [r4, #36]
	.loc	6 710 11                        @ rt-thread/components/net/lwip-2.0.2/src/core/tcp_in.c:710:11
	movt	r1, :upper16:seqno
	ldr	r1, [r1]
.Ltmp259:
	.loc	6 710 11                        @ rt-thread/components/net/lwip-2.0.2/src/core/tcp_in.c:710:11
	cmp	r1, r2
	bne	.LBB3_18
.Ltmp260:
.LBB3_14:
	@DEBUG_VALUE: tcp_process:pcb <- $r4
	@DEBUG_VALUE: tcp_process:err <- 0
	.loc	6 724 7 is_stmt 1               @ rt-thread/components/net/lwip-2.0.2/src/core/tcp_in.c:724:7
	cbnz	r0, .LBB3_16
.Ltmp261:
@ %bb.15:
	@DEBUG_VALUE: tcp_process:pcb <- $r4
	@DEBUG_VALUE: tcp_process:err <- 0
	.loc	6 724 7 is_stmt 0               @ rt-thread/components/net/lwip-2.0.2/src/core/tcp_in.c:724:7
	adr.w	r0, .LCPI3_0
	bl	rt_kprintf
	movw	r0, :lower16:.L.str.1
	mov.w	r1, #724
	movt	r0, :upper16:.L.str.1
	bl	sys_arch_assert
.Ltmp262:
.LBB3_16:
	@DEBUG_VALUE: tcp_process:pcb <- $r4
	@DEBUG_VALUE: tcp_process:err <- 0
	.loc	6 725 18 is_stmt 1              @ rt-thread/components/net/lwip-2.0.2/src/core/tcp_in.c:725:18
	movw	r0, :lower16:recv_flags
	.loc	6 726 18                        @ rt-thread/components/net/lwip-2.0.2/src/core/tcp_in.c:726:18
	ldrb	r2, [r4, #26]
	.loc	6 725 18                        @ rt-thread/components/net/lwip-2.0.2/src/core/tcp_in.c:725:18
	movt	r0, :upper16:recv_flags
	movs	r5, #242
	ldrb	r1, [r0]
	orr	r1, r1, #8
	strb	r1, [r0]
	.loc	6 726 18                        @ rt-thread/components/net/lwip-2.0.2/src/core/tcp_in.c:726:18
	and	r0, r2, #254
	strb	r0, [r4, #26]
	.loc	6 727 7                         @ rt-thread/components/net/lwip-2.0.2/src/core/tcp_in.c:727:7
	b	.LBB3_111
.Ltmp263:
.LBB3_17:
	@DEBUG_VALUE: tcp_process:pcb <- $r4
	@DEBUG_VALUE: tcp_process:acceptable <- 0
	@DEBUG_VALUE: tcp_process:err <- 0
	.loc	6 739 5                         @ rt-thread/components/net/lwip-2.0.2/src/core/tcp_in.c:739:5
	ldrb	r0, [r4, #26]
	movs	r5, #0
	orr	r0, r0, #2
	strb	r0, [r4, #26]
.Ltmp264:
	.loc	6 740 5                         @ rt-thread/components/net/lwip-2.0.2/src/core/tcp_in.c:740:5
	b	.LBB3_111
.Ltmp265:
.LBB3_18:
	@DEBUG_VALUE: tcp_process:pcb <- $r4
	@DEBUG_VALUE: tcp_process:acceptable <- 0
	@DEBUG_VALUE: tcp_process:err <- 0
	.loc	6 712 19                        @ rt-thread/components/net/lwip-2.0.2/src/core/tcp_in.c:712:19
	subs	r0, r1, r2
	bmi	.LBB3_21
.Ltmp266:
@ %bb.19:
	@DEBUG_VALUE: tcp_process:pcb <- $r4
	@DEBUG_VALUE: tcp_process:acceptable <- 0
	@DEBUG_VALUE: tcp_process:err <- 0
	ldrh	r1, [r4, #40]
	subs	r0, r0, r1
.Ltmp267:
	.loc	6 712 19 is_stmt 0              @ rt-thread/components/net/lwip-2.0.2/src/core/tcp_in.c:712:19
	cmp	r0, #0
	ble.w	.LBB3_46
.Ltmp268:
@ %bb.20:
	@DEBUG_VALUE: tcp_process:pcb <- $r4
	@DEBUG_VALUE: tcp_process:acceptable <- 0
	@DEBUG_VALUE: tcp_process:err <- 0
	.loc	6 0 19                          @ rt-thread/components/net/lwip-2.0.2/src/core/tcp_in.c:0:19
	movs	r5, #0
	b	.LBB3_111
.Ltmp269:
.LBB3_21:
	@DEBUG_VALUE: tcp_process:pcb <- $r4
	@DEBUG_VALUE: tcp_process:acceptable <- 0
	@DEBUG_VALUE: tcp_process:err <- 0
	movs	r5, #0
	b	.LBB3_111
.Ltmp270:
.LBB3_22:
	@DEBUG_VALUE: tcp_process:pcb <- $r4
	@DEBUG_VALUE: tcp_process:acceptable <- 0
	@DEBUG_VALUE: tcp_process:err <- 0
	.loc	6 757 27 is_stmt 1              @ rt-thread/components/net/lwip-2.0.2/src/core/tcp_in.c:757:27
	and	r0, r7, #18
	cmp	r0, #18
	bne.w	.LBB3_44
.Ltmp271:
@ %bb.23:
	@DEBUG_VALUE: tcp_process:pcb <- $r4
	@DEBUG_VALUE: tcp_process:acceptable <- 0
	@DEBUG_VALUE: tcp_process:err <- 0
	.loc	6 758 13                        @ rt-thread/components/net/lwip-2.0.2/src/core/tcp_in.c:758:13
	movw	r0, :lower16:ackno
	.loc	6 758 27 is_stmt 0              @ rt-thread/components/net/lwip-2.0.2/src/core/tcp_in.c:758:27
	ldr	r1, [r4, #68]
	.loc	6 758 13                        @ rt-thread/components/net/lwip-2.0.2/src/core/tcp_in.c:758:13
	movt	r0, :upper16:ackno
	.loc	6 758 35                        @ rt-thread/components/net/lwip-2.0.2/src/core/tcp_in.c:758:35
	adds	r1, #1
	.loc	6 758 13                        @ rt-thread/components/net/lwip-2.0.2/src/core/tcp_in.c:758:13
	ldr	r0, [r0]
.Ltmp272:
	.loc	6 757 9 is_stmt 1               @ rt-thread/components/net/lwip-2.0.2/src/core/tcp_in.c:757:9
	cmp	r0, r1
	bne.w	.LBB3_44
.Ltmp273:
@ %bb.24:
	@DEBUG_VALUE: tcp_process:pcb <- $r4
	@DEBUG_VALUE: tcp_process:acceptable <- 0
	@DEBUG_VALUE: tcp_process:err <- 0
	.loc	6 762 22                        @ rt-thread/components/net/lwip-2.0.2/src/core/tcp_in.c:762:22
	movw	r2, :lower16:tcphdr
	.loc	6 759 22                        @ rt-thread/components/net/lwip-2.0.2/src/core/tcp_in.c:759:22
	movw	r1, :lower16:seqno
	.loc	6 762 22                        @ rt-thread/components/net/lwip-2.0.2/src/core/tcp_in.c:762:22
	movt	r2, :upper16:tcphdr
	.loc	6 759 22                        @ rt-thread/components/net/lwip-2.0.2/src/core/tcp_in.c:759:22
	movt	r1, :upper16:seqno
	.loc	6 761 20                        @ rt-thread/components/net/lwip-2.0.2/src/core/tcp_in.c:761:20
	str	r0, [r4, #68]
	.loc	6 762 22                        @ rt-thread/components/net/lwip-2.0.2/src/core/tcp_in.c:762:22
	ldr	r2, [r2]
	.loc	6 759 22                        @ rt-thread/components/net/lwip-2.0.2/src/core/tcp_in.c:759:22
	ldr	r1, [r1]
	.loc	6 759 28 is_stmt 0              @ rt-thread/components/net/lwip-2.0.2/src/core/tcp_in.c:759:28
	adds	r3, r1, #1
	.loc	6 759 20                        @ rt-thread/components/net/lwip-2.0.2/src/core/tcp_in.c:759:20
	str	r3, [r4, #36]
	.loc	6 762 30 is_stmt 1              @ rt-thread/components/net/lwip-2.0.2/src/core/tcp_in.c:762:30
	ldrh	r0, [r2, #14]
	.loc	6 760 31                        @ rt-thread/components/net/lwip-2.0.2/src/core/tcp_in.c:760:31
	str	r3, [r4, #44]
	.loc	6 762 20                        @ rt-thread/components/net/lwip-2.0.2/src/core/tcp_in.c:762:20
	strh.w	r0, [r4, #92]
	.loc	6 763 24                        @ rt-thread/components/net/lwip-2.0.2/src/core/tcp_in.c:763:24
	strh.w	r0, [r4, #94]
	.loc	6 764 28                        @ rt-thread/components/net/lwip-2.0.2/src/core/tcp_in.c:764:28
	subs	r0, r1, #1
	.loc	6 764 20 is_stmt 0              @ rt-thread/components/net/lwip-2.0.2/src/core/tcp_in.c:764:20
	str	r0, [r4, #80]
	.loc	6 768 18 is_stmt 1              @ rt-thread/components/net/lwip-2.0.2/src/core/tcp_in.c:768:18
	ldrh	r0, [r4, #50]
	movs	r1, #4
	.loc	6 765 18                        @ rt-thread/components/net/lwip-2.0.2/src/core/tcp_in.c:765:18
	strb	r1, [r4, #20]
	.loc	6 768 18                        @ rt-thread/components/net/lwip-2.0.2/src/core/tcp_in.c:768:18
	adds	r1, r4, #4
	bl	tcp_eff_send_mss_impl
	movw	r1, #2190
	movw	r2, #4380
	.loc	6 771 19                        @ rt-thread/components/net/lwip-2.0.2/src/core/tcp_in.c:771:19
	cmp	r0, r1
	it	hi
	lslhi	r2, r0, #1
.Ltmp274:
	.loc	6 775 7                         @ rt-thread/components/net/lwip-2.0.2/src/core/tcp_in.c:775:7
	ldrh.w	r1, [r4, #98]
.Ltmp275:
	.loc	6 768 16                        @ rt-thread/components/net/lwip-2.0.2/src/core/tcp_in.c:768:16
	strh	r0, [r4, #50]
	.loc	6 771 19                        @ rt-thread/components/net/lwip-2.0.2/src/core/tcp_in.c:771:19
	cmp.w	r2, r0, lsl #2
	it	hi
	lslhi	r2, r0, #2
	.loc	6 771 17 is_stmt 0              @ rt-thread/components/net/lwip-2.0.2/src/core/tcp_in.c:771:17
	strh.w	r2, [r4, #72]
.Ltmp276:
	.loc	6 775 7 is_stmt 1               @ rt-thread/components/net/lwip-2.0.2/src/core/tcp_in.c:775:7
	cbnz	r1, .LBB3_26
.Ltmp277:
@ %bb.25:
	@DEBUG_VALUE: tcp_process:pcb <- $r4
	@DEBUG_VALUE: tcp_process:acceptable <- 0
	@DEBUG_VALUE: tcp_process:err <- 0
	.loc	6 775 7 is_stmt 0               @ rt-thread/components/net/lwip-2.0.2/src/core/tcp_in.c:775:7
	adr.w	r0, .LCPI3_2
	bl	rt_kprintf
	movw	r0, :lower16:.L.str.1
	movw	r1, #775
	movt	r0, :upper16:.L.str.1
	bl	sys_arch_assert
.Ltmp278:
.LBB3_26:
	@DEBUG_VALUE: tcp_process:pcb <- $r4
	@DEBUG_VALUE: tcp_process:acceptable <- 0
	@DEBUG_VALUE: tcp_process:err <- 0
	.loc	6 778 19 is_stmt 1              @ rt-thread/components/net/lwip-2.0.2/src/core/tcp_in.c:778:19
	mov	r6, r4
	ldr	r5, [r6, #108]!
.Ltmp279:
	@DEBUG_VALUE: tcp_process:rseg <- $r5
	.loc	6 776 7                         @ rt-thread/components/net/lwip-2.0.2/src/core/tcp_in.c:776:7
	ldrh	r0, [r6, #-10]
	sub.w	r0, r0, #1
	strh	r0, [r6, #-10]
	.loc	6 779 11                        @ rt-thread/components/net/lwip-2.0.2/src/core/tcp_in.c:779:11
	cbnz	r5, .LBB3_29
.Ltmp280:
@ %bb.27:
	@DEBUG_VALUE: tcp_process:rseg <- $r5
	@DEBUG_VALUE: tcp_process:pcb <- $r4
	@DEBUG_VALUE: tcp_process:acceptable <- 0
	@DEBUG_VALUE: tcp_process:err <- 0
	.loc	6 782 21                        @ rt-thread/components/net/lwip-2.0.2/src/core/tcp_in.c:782:21
	mov	r6, r4
	ldr	r5, [r6, #104]!
.Ltmp281:
	@DEBUG_VALUE: tcp_process:rseg <- $r5
	.loc	6 783 9                         @ rt-thread/components/net/lwip-2.0.2/src/core/tcp_in.c:783:9
	cbnz	r5, .LBB3_29
.Ltmp282:
@ %bb.28:
	@DEBUG_VALUE: tcp_process:rseg <- $r5
	@DEBUG_VALUE: tcp_process:pcb <- $r4
	@DEBUG_VALUE: tcp_process:acceptable <- 0
	@DEBUG_VALUE: tcp_process:err <- 0
	.loc	6 783 9 is_stmt 0               @ rt-thread/components/net/lwip-2.0.2/src/core/tcp_in.c:783:9
	adr.w	r0, .LCPI3_3
	bl	rt_kprintf
	movw	r0, :lower16:.L.str.1
	movw	r1, #783
	movt	r0, :upper16:.L.str.1
	bl	sys_arch_assert
.Ltmp283:
.LBB3_29:
	@DEBUG_VALUE: tcp_process:rseg <- $r5
	@DEBUG_VALUE: tcp_process:pcb <- $r4
	@DEBUG_VALUE: tcp_process:acceptable <- 0
	@DEBUG_VALUE: tcp_process:err <- 0
	.loc	6 0 0                           @ rt-thread/components/net/lwip-2.0.2/src/core/tcp_in.c:0:0
	ldr	r0, [r5]
	str	r0, [r6]
.Ltmp284:
	@DEBUG_VALUE: tcp_process:rseg <- $r5
	.loc	6 788 7 is_stmt 1               @ rt-thread/components/net/lwip-2.0.2/src/core/tcp_in.c:788:7
	mov	r0, r5
	bl	tcp_seg_free
.Ltmp285:
	.loc	6 792 16                        @ rt-thread/components/net/lwip-2.0.2/src/core/tcp_in.c:792:16
	ldr	r0, [r4, #108]
.Ltmp286:
	.loc	6 792 11 is_stmt 0              @ rt-thread/components/net/lwip-2.0.2/src/core/tcp_in.c:792:11
	cmp	r0, #0
	beq.w	.LBB3_83
.Ltmp287:
@ %bb.30:
	@DEBUG_VALUE: tcp_process:rseg <- $r5
	@DEBUG_VALUE: tcp_process:pcb <- $r4
	@DEBUG_VALUE: tcp_process:acceptable <- 0
	@DEBUG_VALUE: tcp_process:err <- 0
	.loc	6 0 11                          @ rt-thread/components/net/lwip-2.0.2/src/core/tcp_in.c:0:11
	movs	r0, #0
.Ltmp288:
	.loc	6 795 20 is_stmt 1              @ rt-thread/components/net/lwip-2.0.2/src/core/tcp_in.c:795:20
	strh	r0, [r4, #48]
	.loc	6 796 19                        @ rt-thread/components/net/lwip-2.0.2/src/core/tcp_in.c:796:19
	strb.w	r0, [r4, #66]
	b	.LBB3_84
.Ltmp289:
.LBB3_31:
	@DEBUG_VALUE: tcp_process:pcb <- $r4
	@DEBUG_VALUE: tcp_process:acceptable <- 0
	@DEBUG_VALUE: tcp_process:err <- 0
	.loc	6 822 9                         @ rt-thread/components/net/lwip-2.0.2/src/core/tcp_in.c:822:9
	lsls	r0, r7, #27
	bmi	.LBB3_47
.Ltmp290:
@ %bb.32:
	@DEBUG_VALUE: tcp_process:pcb <- $r4
	@DEBUG_VALUE: tcp_process:acceptable <- 0
	@DEBUG_VALUE: tcp_process:err <- 0
	.loc	6 874 34                        @ rt-thread/components/net/lwip-2.0.2/src/core/tcp_in.c:874:34
	cmp.w	r8, #0
	bne.w	.LBB3_68
.Ltmp291:
@ %bb.33:
	@DEBUG_VALUE: tcp_process:pcb <- $r4
	@DEBUG_VALUE: tcp_process:acceptable <- 0
	@DEBUG_VALUE: tcp_process:err <- 0
	.loc	6 0 34 is_stmt 0                @ rt-thread/components/net/lwip-2.0.2/src/core/tcp_in.c:0:34
	movs	r5, #0
	b	.LBB3_111
.Ltmp292:
.LBB3_34:
	@DEBUG_VALUE: tcp_process:pcb <- $r4
	@DEBUG_VALUE: tcp_process:acceptable <- 0
	@DEBUG_VALUE: tcp_process:err <- 0
	.loc	6 889 5 is_stmt 1               @ rt-thread/components/net/lwip-2.0.2/src/core/tcp_in.c:889:5
	mov	r0, r4
	bl	tcp_receive
.Ltmp293:
	.loc	6 890 9                         @ rt-thread/components/net/lwip-2.0.2/src/core/tcp_in.c:890:9
	movw	r0, :lower16:recv_flags
	.loc	6 0 0 is_stmt 0                 @ rt-thread/components/net/lwip-2.0.2/src/core/tcp_in.c:0:0
	ldrb	r1, [r6]
	.loc	6 890 9                         @ rt-thread/components/net/lwip-2.0.2/src/core/tcp_in.c:890:9
	movt	r0, :upper16:recv_flags
	ldrb	r0, [r0]
.Ltmp294:
	.loc	6 890 9                         @ rt-thread/components/net/lwip-2.0.2/src/core/tcp_in.c:890:9
	lsls	r0, r0, #26
.Ltmp295:
	.loc	6 0 0                           @ rt-thread/components/net/lwip-2.0.2/src/core/tcp_in.c:0:0
	and	r0, r1, #16
.Ltmp296:
	.loc	6 890 9                         @ rt-thread/components/net/lwip-2.0.2/src/core/tcp_in.c:890:9
	bmi	.LBB3_50
.Ltmp297:
@ %bb.35:
	@DEBUG_VALUE: tcp_process:pcb <- $r4
	@DEBUG_VALUE: tcp_process:acceptable <- 0
	@DEBUG_VALUE: tcp_process:err <- 0
	.loc	6 904 34 is_stmt 1              @ rt-thread/components/net/lwip-2.0.2/src/core/tcp_in.c:904:34
	cmp	r0, #0
	bne.w	.LBB3_70
.Ltmp298:
@ %bb.36:
	@DEBUG_VALUE: tcp_process:pcb <- $r4
	@DEBUG_VALUE: tcp_process:acceptable <- 0
	@DEBUG_VALUE: tcp_process:err <- 0
	.loc	6 0 34 is_stmt 0                @ rt-thread/components/net/lwip-2.0.2/src/core/tcp_in.c:0:34
	movs	r5, #0
	b	.LBB3_111
.Ltmp299:
.LBB3_37:
	@DEBUG_VALUE: tcp_process:pcb <- $r4
	@DEBUG_VALUE: tcp_process:acceptable <- 0
	@DEBUG_VALUE: tcp_process:err <- 0
	.loc	6 910 5 is_stmt 1               @ rt-thread/components/net/lwip-2.0.2/src/core/tcp_in.c:910:5
	mov	r0, r4
	bl	tcp_receive
.Ltmp300:
	.loc	6 911 9                         @ rt-thread/components/net/lwip-2.0.2/src/core/tcp_in.c:911:9
	movw	r0, :lower16:recv_flags
	movt	r0, :upper16:recv_flags
	ldrb	r0, [r0]
.Ltmp301:
	.loc	6 911 9 is_stmt 0               @ rt-thread/components/net/lwip-2.0.2/src/core/tcp_in.c:911:9
	lsls	r0, r0, #26
	bmi	.LBB3_54
.Ltmp302:
@ %bb.38:
	@DEBUG_VALUE: tcp_process:pcb <- $r4
	@DEBUG_VALUE: tcp_process:acceptable <- 0
	@DEBUG_VALUE: tcp_process:err <- 0
	.loc	6 0 9                           @ rt-thread/components/net/lwip-2.0.2/src/core/tcp_in.c:0:9
	movs	r5, #0
	b	.LBB3_111
.Ltmp303:
.LBB3_39:
	@DEBUG_VALUE: tcp_process:pcb <- $r4
	@DEBUG_VALUE: tcp_process:acceptable <- 0
	@DEBUG_VALUE: tcp_process:err <- 0
	.loc	6 921 5 is_stmt 1               @ rt-thread/components/net/lwip-2.0.2/src/core/tcp_in.c:921:5
	mov	r0, r4
	bl	tcp_receive
.Ltmp304:
	.loc	6 922 10                        @ rt-thread/components/net/lwip-2.0.2/src/core/tcp_in.c:922:10
	ldrb	r0, [r6]
	.loc	6 922 27 is_stmt 0              @ rt-thread/components/net/lwip-2.0.2/src/core/tcp_in.c:922:27
	lsls	r0, r0, #27
	bmi.w	.LBB3_60
.Ltmp305:
@ %bb.40:
	@DEBUG_VALUE: tcp_process:pcb <- $r4
	@DEBUG_VALUE: tcp_process:acceptable <- 0
	@DEBUG_VALUE: tcp_process:err <- 0
	.loc	6 0 27                          @ rt-thread/components/net/lwip-2.0.2/src/core/tcp_in.c:0:27
	movs	r5, #0
	b	.LBB3_111
.Ltmp306:
.LBB3_41:
	@DEBUG_VALUE: tcp_process:pcb <- $r4
	@DEBUG_VALUE: tcp_process:acceptable <- 0
	@DEBUG_VALUE: tcp_process:err <- 0
	.loc	6 931 5 is_stmt 1               @ rt-thread/components/net/lwip-2.0.2/src/core/tcp_in.c:931:5
	mov	r0, r4
	bl	tcp_receive
.Ltmp307:
	.loc	6 932 10                        @ rt-thread/components/net/lwip-2.0.2/src/core/tcp_in.c:932:10
	ldrb	r0, [r6]
	.loc	6 932 27 is_stmt 0              @ rt-thread/components/net/lwip-2.0.2/src/core/tcp_in.c:932:27
	lsls	r0, r0, #27
	bmi.w	.LBB3_63
.Ltmp308:
@ %bb.42:
	@DEBUG_VALUE: tcp_process:pcb <- $r4
	@DEBUG_VALUE: tcp_process:acceptable <- 0
	@DEBUG_VALUE: tcp_process:err <- 0
	.loc	6 0 27                          @ rt-thread/components/net/lwip-2.0.2/src/core/tcp_in.c:0:27
	movs	r5, #0
	b	.LBB3_111
.Ltmp309:
.LBB3_43:
	@DEBUG_VALUE: tcp_process:pcb <- $r4
	@DEBUG_VALUE: tcp_process:acceptable <- 0
	@DEBUG_VALUE: tcp_process:err <- 0
	.loc	6 884 7 is_stmt 1               @ rt-thread/components/net/lwip-2.0.2/src/core/tcp_in.c:884:7
	ldrb	r0, [r4, #26]
	movs	r5, #0
	orr	r0, r0, #2
	strb	r0, [r4, #26]
	movs	r0, #7
.Ltmp310:
	.loc	6 885 18                        @ rt-thread/components/net/lwip-2.0.2/src/core/tcp_in.c:885:18
	strb	r0, [r4, #20]
	.loc	6 886 5                         @ rt-thread/components/net/lwip-2.0.2/src/core/tcp_in.c:886:5
	b	.LBB3_111
.Ltmp311:
.LBB3_44:
	@DEBUG_VALUE: tcp_process:pcb <- $r4
	@DEBUG_VALUE: tcp_process:acceptable <- 0
	@DEBUG_VALUE: tcp_process:err <- 0
	.loc	6 808 14                        @ rt-thread/components/net/lwip-2.0.2/src/core/tcp_in.c:808:14
	lsls	r0, r7, #27
	bmi.w	.LBB3_66
.Ltmp312:
@ %bb.45:
	@DEBUG_VALUE: tcp_process:pcb <- $r4
	@DEBUG_VALUE: tcp_process:acceptable <- 0
	@DEBUG_VALUE: tcp_process:err <- 0
	.loc	6 0 14 is_stmt 0                @ rt-thread/components/net/lwip-2.0.2/src/core/tcp_in.c:0:14
	movs	r5, #0
	b	.LBB3_111
.Ltmp313:
.LBB3_46:
	@DEBUG_VALUE: tcp_process:pcb <- $r4
	@DEBUG_VALUE: tcp_process:acceptable <- 0
	@DEBUG_VALUE: tcp_process:err <- 0
	.loc	6 718 9 is_stmt 1               @ rt-thread/components/net/lwip-2.0.2/src/core/tcp_in.c:718:9
	ldrb	r0, [r4, #26]
	movs	r5, #0
.Ltmp314:
	@DEBUG_VALUE: tcp_process:acceptable <- undef
	orr	r0, r0, #2
	strb	r0, [r4, #26]
.Ltmp315:
	.loc	6 722 9                         @ rt-thread/components/net/lwip-2.0.2/src/core/tcp_in.c:722:9
	b	.LBB3_111
.Ltmp316:
.LBB3_47:
	@DEBUG_VALUE: tcp_process:pcb <- $r4
	@DEBUG_VALUE: tcp_process:acceptable <- 0
	@DEBUG_VALUE: tcp_process:err <- 0
	.loc	6 824 11                        @ rt-thread/components/net/lwip-2.0.2/src/core/tcp_in.c:824:11
	movw	r0, :lower16:ackno
	ldr	r1, [r4, #68]
	movt	r0, :upper16:ackno
	mvns	r1, r1
	ldr	r0, [r0]
	adds	r1, r1, r0
	bmi	.LBB3_49
.Ltmp317:
@ %bb.48:
	@DEBUG_VALUE: tcp_process:pcb <- $r4
	@DEBUG_VALUE: tcp_process:acceptable <- 0
	@DEBUG_VALUE: tcp_process:err <- 0
	ldr	r1, [r4, #76]
	subs	r1, r0, r1
.Ltmp318:
	.loc	6 824 11 is_stmt 0              @ rt-thread/components/net/lwip-2.0.2/src/core/tcp_in.c:824:11
	cmp	r1, #0
	ble.w	.LBB3_77
.Ltmp319:
.LBB3_49:
	@DEBUG_VALUE: tcp_process:pcb <- $r4
	@DEBUG_VALUE: tcp_process:acceptable <- 0
	@DEBUG_VALUE: tcp_process:err <- 0
	.loc	6 871 32 is_stmt 1              @ rt-thread/components/net/lwip-2.0.2/src/core/tcp_in.c:871:32
	movw	r3, :lower16:tcplen
	.loc	6 871 24 is_stmt 0              @ rt-thread/components/net/lwip-2.0.2/src/core/tcp_in.c:871:24
	movw	r1, :lower16:seqno
	.loc	6 871 32                        @ rt-thread/components/net/lwip-2.0.2/src/core/tcp_in.c:871:32
	movt	r3, :upper16:tcplen
	.loc	6 871 24                        @ rt-thread/components/net/lwip-2.0.2/src/core/tcp_in.c:871:24
	movt	r1, :upper16:seqno
	.loc	6 872 34 is_stmt 1              @ rt-thread/components/net/lwip-2.0.2/src/core/tcp_in.c:872:34
	movw	r2, :lower16:tcphdr
	movt	r2, :upper16:tcphdr
	.loc	6 871 32                        @ rt-thread/components/net/lwip-2.0.2/src/core/tcp_in.c:871:32
	ldrh	r3, [r3]
	.loc	6 871 24 is_stmt 0              @ rt-thread/components/net/lwip-2.0.2/src/core/tcp_in.c:871:24
	ldr	r1, [r1]
	.loc	6 872 34 is_stmt 1              @ rt-thread/components/net/lwip-2.0.2/src/core/tcp_in.c:872:34
	ldr	r2, [r2]
	.loc	6 871 30                        @ rt-thread/components/net/lwip-2.0.2/src/core/tcp_in.c:871:30
	add	r1, r3
	.loc	6 871 9 is_stmt 0               @ rt-thread/components/net/lwip-2.0.2/src/core/tcp_in.c:871:9
	movw	r3, :lower16:ip_data
	movt	r3, :upper16:ip_data
	.loc	6 872 42 is_stmt 1              @ rt-thread/components/net/lwip-2.0.2/src/core/tcp_in.c:872:42
	ldrh	r7, [r2, #2]
	.loc	6 872 56 is_stmt 0              @ rt-thread/components/net/lwip-2.0.2/src/core/tcp_in.c:872:56
	ldrh	r6, [r2]
	.loc	6 871 9 is_stmt 1               @ rt-thread/components/net/lwip-2.0.2/src/core/tcp_in.c:871:9
	add.w	r2, r3, #20
	adds	r3, #16
	str	r7, [sp]
	str	r6, [sp, #4]
	bl	tcp_rst
	movs	r5, #0
	b	.LBB3_111
.Ltmp320:
.LBB3_50:
	@DEBUG_VALUE: tcp_process:pcb <- $r4
	@DEBUG_VALUE: tcp_process:acceptable <- 0
	@DEBUG_VALUE: tcp_process:err <- 0
	.loc	6 891 29                        @ rt-thread/components/net/lwip-2.0.2/src/core/tcp_in.c:891:29
	cbz	r0, .LBB3_53
.Ltmp321:
@ %bb.51:
	@DEBUG_VALUE: tcp_process:pcb <- $r4
	@DEBUG_VALUE: tcp_process:acceptable <- 0
	@DEBUG_VALUE: tcp_process:err <- 0
	.loc	6 891 33 is_stmt 0              @ rt-thread/components/net/lwip-2.0.2/src/core/tcp_in.c:891:33
	movw	r0, :lower16:ackno
	.loc	6 891 47                        @ rt-thread/components/net/lwip-2.0.2/src/core/tcp_in.c:891:47
	ldr	r1, [r4, #76]
	.loc	6 891 33                        @ rt-thread/components/net/lwip-2.0.2/src/core/tcp_in.c:891:33
	movt	r0, :upper16:ackno
	ldr	r0, [r0]
	.loc	6 891 56                        @ rt-thread/components/net/lwip-2.0.2/src/core/tcp_in.c:891:56
	cmp	r0, r1
	bne	.LBB3_53
.Ltmp322:
@ %bb.52:
	@DEBUG_VALUE: tcp_process:pcb <- $r4
	@DEBUG_VALUE: tcp_process:acceptable <- 0
	@DEBUG_VALUE: tcp_process:err <- 0
	.loc	6 892 16 is_stmt 1              @ rt-thread/components/net/lwip-2.0.2/src/core/tcp_in.c:892:16
	ldr	r0, [r4, #104]
.Ltmp323:
	.loc	6 891 11                        @ rt-thread/components/net/lwip-2.0.2/src/core/tcp_in.c:891:11
	cmp	r0, #0
	beq.w	.LBB3_95
.Ltmp324:
.LBB3_53:
	@DEBUG_VALUE: tcp_process:pcb <- $r4
	@DEBUG_VALUE: tcp_process:acceptable <- 0
	@DEBUG_VALUE: tcp_process:err <- 0
	.loc	6 901 9                         @ rt-thread/components/net/lwip-2.0.2/src/core/tcp_in.c:901:9
	ldrb	r0, [r4, #26]
	movs	r5, #0
	orr	r0, r0, #2
	strb	r0, [r4, #26]
	movs	r0, #8
.Ltmp325:
	.loc	6 902 20                        @ rt-thread/components/net/lwip-2.0.2/src/core/tcp_in.c:902:20
	strb	r0, [r4, #20]
	b	.LBB3_111
.Ltmp326:
.LBB3_54:
	@DEBUG_VALUE: tcp_process:pcb <- $r4
	@DEBUG_VALUE: tcp_process:acceptable <- 0
	@DEBUG_VALUE: tcp_process:err <- 0
	.loc	6 913 7                         @ rt-thread/components/net/lwip-2.0.2/src/core/tcp_in.c:913:7
	ldrb	r0, [r4, #26]
	orr	r0, r0, #2
	strb	r0, [r4, #26]
.Ltmp327:
	.loc	6 914 7                         @ rt-thread/components/net/lwip-2.0.2/src/core/tcp_in.c:914:7
	mov	r0, r4
	bl	tcp_pcb_purge
.Ltmp328:
	.loc	6 915 7                         @ rt-thread/components/net/lwip-2.0.2/src/core/tcp_in.c:915:7
	movw	r1, :lower16:tcp_active_pcbs
	movt	r1, :upper16:tcp_active_pcbs
	ldr	r0, [r1]
.Ltmp329:
	.loc	6 915 7 is_stmt 0               @ rt-thread/components/net/lwip-2.0.2/src/core/tcp_in.c:915:7
	cmp	r0, r4
	beq	.LBB3_58
.Ltmp330:
	.p2align	2
.LBB3_55:                               @ =>This Inner Loop Header: Depth=1
	@DEBUG_VALUE: tcp_process:pcb <- $r4
	@DEBUG_VALUE: tcp_process:acceptable <- 0
	@DEBUG_VALUE: tcp_process:err <- 0
	@DEBUG_VALUE: tcp_tmp_pcb <- $r0
	.loc	6 915 7                         @ rt-thread/components/net/lwip-2.0.2/src/core/tcp_in.c:915:7
	cbz	r0, .LBB3_59
.Ltmp331:
@ %bb.56:                               @   in Loop: Header=BB3_55 Depth=1
	@DEBUG_VALUE: tcp_process:pcb <- $r4
	@DEBUG_VALUE: tcp_tmp_pcb <- $r0
	@DEBUG_VALUE: tcp_process:acceptable <- 0
	@DEBUG_VALUE: tcp_process:err <- 0
	.loc	6 0 0                           @ rt-thread/components/net/lwip-2.0.2/src/core/tcp_in.c:0:0
	mov	r1, r0
.Ltmp332:
	@DEBUG_VALUE: tcp_tmp_pcb <- $r1
	.loc	6 915 7                         @ rt-thread/components/net/lwip-2.0.2/src/core/tcp_in.c:915:7
	ldr	r0, [r0, #12]
.Ltmp333:
	.loc	6 915 7                         @ rt-thread/components/net/lwip-2.0.2/src/core/tcp_in.c:915:7
	cmp	r0, r4
	bne	.LBB3_55
.Ltmp334:
@ %bb.57:
	@DEBUG_VALUE: tcp_process:pcb <- $r4
	@DEBUG_VALUE: tcp_tmp_pcb <- $r1
	@DEBUG_VALUE: tcp_process:acceptable <- 0
	@DEBUG_VALUE: tcp_process:err <- 0
	.loc	6 915 7                         @ rt-thread/components/net/lwip-2.0.2/src/core/tcp_in.c:915:7
	adds	r1, #12
.Ltmp335:
	.loc	6 0 7                           @ rt-thread/components/net/lwip-2.0.2/src/core/tcp_in.c:0:7
	mov	r0, r4
.Ltmp336:
.LBB3_58:
	@DEBUG_VALUE: tcp_process:pcb <- $r4
	@DEBUG_VALUE: tcp_process:acceptable <- 0
	@DEBUG_VALUE: tcp_process:err <- 0
	ldr	r0, [r0, #12]
	str	r0, [r1]
.Ltmp337:
.LBB3_59:
	@DEBUG_VALUE: tcp_process:pcb <- $r4
	@DEBUG_VALUE: tcp_process:acceptable <- 0
	@DEBUG_VALUE: tcp_process:err <- 0
	.loc	6 915 7                         @ rt-thread/components/net/lwip-2.0.2/src/core/tcp_in.c:915:7
	movw	r0, :lower16:tcp_active_pcbs_changed
	movs	r1, #1
	movt	r0, :upper16:tcp_active_pcbs_changed
	strb	r1, [r0]
	movs	r0, #10
.Ltmp338:
	.loc	6 916 18 is_stmt 1              @ rt-thread/components/net/lwip-2.0.2/src/core/tcp_in.c:916:18
	strb	r0, [r4, #20]
.Ltmp339:
	.loc	6 917 7                         @ rt-thread/components/net/lwip-2.0.2/src/core/tcp_in.c:917:7
	movw	r0, :lower16:tcp_tw_pcbs
	movt	r0, :upper16:tcp_tw_pcbs
	ldr	r1, [r0]
	str	r1, [r4, #12]
	str	r4, [r0]
	bl	tcp_timer_needed
	movs	r5, #0
.Ltmp340:
	.loc	6 918 5                         @ rt-thread/components/net/lwip-2.0.2/src/core/tcp_in.c:918:5
	b	.LBB3_111
.Ltmp341:
.LBB3_60:
	@DEBUG_VALUE: tcp_process:pcb <- $r4
	@DEBUG_VALUE: tcp_process:acceptable <- 0
	@DEBUG_VALUE: tcp_process:err <- 0
	.loc	6 922 30                        @ rt-thread/components/net/lwip-2.0.2/src/core/tcp_in.c:922:30
	movw	r0, :lower16:ackno
	.loc	6 922 44 is_stmt 0              @ rt-thread/components/net/lwip-2.0.2/src/core/tcp_in.c:922:44
	ldr	r1, [r4, #76]
	.loc	6 922 30                        @ rt-thread/components/net/lwip-2.0.2/src/core/tcp_in.c:922:30
	movt	r0, :upper16:ackno
	ldr	r0, [r0]
	.loc	6 922 52                        @ rt-thread/components/net/lwip-2.0.2/src/core/tcp_in.c:922:52
	cmp	r0, r1
	bne	.LBB3_73
.Ltmp342:
@ %bb.61:
	@DEBUG_VALUE: tcp_process:pcb <- $r4
	@DEBUG_VALUE: tcp_process:acceptable <- 0
	@DEBUG_VALUE: tcp_process:err <- 0
	.loc	6 922 60                        @ rt-thread/components/net/lwip-2.0.2/src/core/tcp_in.c:922:60
	ldr	r0, [r4, #104]
.Ltmp343:
	.loc	6 922 9                         @ rt-thread/components/net/lwip-2.0.2/src/core/tcp_in.c:922:9
	cmp	r0, #0
	beq.w	.LBB3_88
.Ltmp344:
@ %bb.62:
	@DEBUG_VALUE: tcp_process:pcb <- $r4
	@DEBUG_VALUE: tcp_process:acceptable <- 0
	@DEBUG_VALUE: tcp_process:err <- 0
	.loc	6 0 9                           @ rt-thread/components/net/lwip-2.0.2/src/core/tcp_in.c:0:9
	movs	r5, #0
	b	.LBB3_111
.Ltmp345:
.LBB3_63:
	@DEBUG_VALUE: tcp_process:pcb <- $r4
	@DEBUG_VALUE: tcp_process:acceptable <- 0
	@DEBUG_VALUE: tcp_process:err <- 0
	.loc	6 932 30 is_stmt 1              @ rt-thread/components/net/lwip-2.0.2/src/core/tcp_in.c:932:30
	movw	r0, :lower16:ackno
	.loc	6 932 44 is_stmt 0              @ rt-thread/components/net/lwip-2.0.2/src/core/tcp_in.c:932:44
	ldr	r1, [r4, #76]
	.loc	6 932 30                        @ rt-thread/components/net/lwip-2.0.2/src/core/tcp_in.c:932:30
	movt	r0, :upper16:ackno
	ldr	r0, [r0]
	.loc	6 932 52                        @ rt-thread/components/net/lwip-2.0.2/src/core/tcp_in.c:932:52
	cmp	r0, r1
	bne	.LBB3_74
.Ltmp346:
@ %bb.64:
	@DEBUG_VALUE: tcp_process:pcb <- $r4
	@DEBUG_VALUE: tcp_process:acceptable <- 0
	@DEBUG_VALUE: tcp_process:err <- 0
	.loc	6 932 60                        @ rt-thread/components/net/lwip-2.0.2/src/core/tcp_in.c:932:60
	ldr	r0, [r4, #104]
.Ltmp347:
	.loc	6 932 9                         @ rt-thread/components/net/lwip-2.0.2/src/core/tcp_in.c:932:9
	cmp	r0, #0
	beq.w	.LBB3_94
.Ltmp348:
@ %bb.65:
	@DEBUG_VALUE: tcp_process:pcb <- $r4
	@DEBUG_VALUE: tcp_process:acceptable <- 0
	@DEBUG_VALUE: tcp_process:err <- 0
	.loc	6 0 9                           @ rt-thread/components/net/lwip-2.0.2/src/core/tcp_in.c:0:9
	movs	r5, #0
	b	.LBB3_111
.Ltmp349:
.LBB3_66:
	@DEBUG_VALUE: tcp_process:pcb <- $r4
	@DEBUG_VALUE: tcp_process:acceptable <- 0
	@DEBUG_VALUE: tcp_process:err <- 0
	.loc	6 810 30 is_stmt 1              @ rt-thread/components/net/lwip-2.0.2/src/core/tcp_in.c:810:30
	movw	r3, :lower16:tcplen
	.loc	6 810 22 is_stmt 0              @ rt-thread/components/net/lwip-2.0.2/src/core/tcp_in.c:810:22
	movw	r1, :lower16:seqno
	.loc	6 810 30                        @ rt-thread/components/net/lwip-2.0.2/src/core/tcp_in.c:810:30
	movt	r3, :upper16:tcplen
	.loc	6 810 22                        @ rt-thread/components/net/lwip-2.0.2/src/core/tcp_in.c:810:22
	movt	r1, :upper16:seqno
	.loc	6 811 32 is_stmt 1              @ rt-thread/components/net/lwip-2.0.2/src/core/tcp_in.c:811:32
	movw	r2, :lower16:tcphdr
	.loc	6 810 15                        @ rt-thread/components/net/lwip-2.0.2/src/core/tcp_in.c:810:15
	movw	r0, :lower16:ackno
	.loc	6 811 32                        @ rt-thread/components/net/lwip-2.0.2/src/core/tcp_in.c:811:32
	movt	r2, :upper16:tcphdr
	.loc	6 810 30                        @ rt-thread/components/net/lwip-2.0.2/src/core/tcp_in.c:810:30
	ldrh	r3, [r3]
	.loc	6 810 22 is_stmt 0              @ rt-thread/components/net/lwip-2.0.2/src/core/tcp_in.c:810:22
	ldr	r1, [r1]
	.loc	6 810 15                        @ rt-thread/components/net/lwip-2.0.2/src/core/tcp_in.c:810:15
	movt	r0, :upper16:ackno
	.loc	6 811 32 is_stmt 1              @ rt-thread/components/net/lwip-2.0.2/src/core/tcp_in.c:811:32
	ldr	r2, [r2]
	.loc	6 810 28                        @ rt-thread/components/net/lwip-2.0.2/src/core/tcp_in.c:810:28
	add	r1, r3
	.loc	6 810 7 is_stmt 0               @ rt-thread/components/net/lwip-2.0.2/src/core/tcp_in.c:810:7
	movw	r3, :lower16:ip_data
	.loc	6 810 15                        @ rt-thread/components/net/lwip-2.0.2/src/core/tcp_in.c:810:15
	ldr	r0, [r0]
	.loc	6 810 7                         @ rt-thread/components/net/lwip-2.0.2/src/core/tcp_in.c:810:7
	movt	r3, :upper16:ip_data
	.loc	6 811 40 is_stmt 1              @ rt-thread/components/net/lwip-2.0.2/src/core/tcp_in.c:811:40
	ldrh	r7, [r2, #2]
	.loc	6 811 54 is_stmt 0              @ rt-thread/components/net/lwip-2.0.2/src/core/tcp_in.c:811:54
	ldrh	r6, [r2]
	.loc	6 810 7 is_stmt 1               @ rt-thread/components/net/lwip-2.0.2/src/core/tcp_in.c:810:7
	add.w	r2, r3, #20
	adds	r3, #16
	str	r7, [sp]
	str	r6, [sp, #4]
	bl	tcp_rst
.Ltmp350:
	.loc	6 815 16                        @ rt-thread/components/net/lwip-2.0.2/src/core/tcp_in.c:815:16
	ldrb.w	r0, [r4, #66]
	movs	r5, #0
.Ltmp351:
	.loc	6 815 11 is_stmt 0              @ rt-thread/components/net/lwip-2.0.2/src/core/tcp_in.c:815:11
	cmp	r0, #3
	bhi.w	.LBB3_111
.Ltmp352:
@ %bb.67:
	@DEBUG_VALUE: tcp_process:pcb <- $r4
	@DEBUG_VALUE: tcp_process:acceptable <- 0
	@DEBUG_VALUE: tcp_process:err <- 0
	.loc	6 817 9 is_stmt 1               @ rt-thread/components/net/lwip-2.0.2/src/core/tcp_in.c:817:9
	mov	r0, r4
	.loc	6 816 20                        @ rt-thread/components/net/lwip-2.0.2/src/core/tcp_in.c:816:20
	strh	r5, [r4, #48]
	.loc	6 817 9                         @ rt-thread/components/net/lwip-2.0.2/src/core/tcp_in.c:817:9
	bl	tcp_rexmit_rto
	.loc	6 818 7                         @ rt-thread/components/net/lwip-2.0.2/src/core/tcp_in.c:818:7
	b	.LBB3_111
.Ltmp353:
.LBB3_68:
	@DEBUG_VALUE: tcp_process:pcb <- $r4
	@DEBUG_VALUE: tcp_process:acceptable <- 0
	@DEBUG_VALUE: tcp_process:err <- 0
	.loc	6 874 38                        @ rt-thread/components/net/lwip-2.0.2/src/core/tcp_in.c:874:38
	movw	r0, :lower16:seqno
	.loc	6 874 52 is_stmt 0              @ rt-thread/components/net/lwip-2.0.2/src/core/tcp_in.c:874:52
	ldr	r1, [r4, #36]
	.loc	6 874 38                        @ rt-thread/components/net/lwip-2.0.2/src/core/tcp_in.c:874:38
	movt	r0, :upper16:seqno
	.loc	6 874 60                        @ rt-thread/components/net/lwip-2.0.2/src/core/tcp_in.c:874:60
	subs	r1, #1
	.loc	6 874 38                        @ rt-thread/components/net/lwip-2.0.2/src/core/tcp_in.c:874:38
	ldr	r0, [r0]
.Ltmp354:
	.loc	6 874 16                        @ rt-thread/components/net/lwip-2.0.2/src/core/tcp_in.c:874:16
	cmp	r0, r1
	bne	.LBB3_75
.Ltmp355:
@ %bb.69:
	@DEBUG_VALUE: tcp_process:pcb <- $r4
	@DEBUG_VALUE: tcp_process:acceptable <- 0
	@DEBUG_VALUE: tcp_process:err <- 0
	.loc	6 876 7 is_stmt 1               @ rt-thread/components/net/lwip-2.0.2/src/core/tcp_in.c:876:7
	mov	r0, r4
	bl	tcp_rexmit
	movs	r5, #0
	.loc	6 877 5                         @ rt-thread/components/net/lwip-2.0.2/src/core/tcp_in.c:877:5
	b	.LBB3_111
.Ltmp356:
.LBB3_70:
	@DEBUG_VALUE: tcp_process:pcb <- $r4
	@DEBUG_VALUE: tcp_process:acceptable <- 0
	@DEBUG_VALUE: tcp_process:err <- 0
	.loc	6 904 38                        @ rt-thread/components/net/lwip-2.0.2/src/core/tcp_in.c:904:38
	movw	r0, :lower16:ackno
	.loc	6 904 52 is_stmt 0              @ rt-thread/components/net/lwip-2.0.2/src/core/tcp_in.c:904:52
	ldr	r1, [r4, #76]
	.loc	6 904 38                        @ rt-thread/components/net/lwip-2.0.2/src/core/tcp_in.c:904:38
	movt	r0, :upper16:ackno
	ldr	r0, [r0]
	.loc	6 904 61                        @ rt-thread/components/net/lwip-2.0.2/src/core/tcp_in.c:904:61
	cmp	r0, r1
	bne	.LBB3_76
.Ltmp357:
@ %bb.71:
	@DEBUG_VALUE: tcp_process:pcb <- $r4
	@DEBUG_VALUE: tcp_process:acceptable <- 0
	@DEBUG_VALUE: tcp_process:err <- 0
	.loc	6 905 21 is_stmt 1              @ rt-thread/components/net/lwip-2.0.2/src/core/tcp_in.c:905:21
	ldr	r0, [r4, #104]
.Ltmp358:
	.loc	6 904 16                        @ rt-thread/components/net/lwip-2.0.2/src/core/tcp_in.c:904:16
	cmp	r0, #0
	beq.w	.LBB3_101
.Ltmp359:
@ %bb.72:
	@DEBUG_VALUE: tcp_process:pcb <- $r4
	@DEBUG_VALUE: tcp_process:acceptable <- 0
	@DEBUG_VALUE: tcp_process:err <- 0
	.loc	6 0 16 is_stmt 0                @ rt-thread/components/net/lwip-2.0.2/src/core/tcp_in.c:0:16
	movs	r5, #0
	b	.LBB3_111
.Ltmp360:
.LBB3_73:
	@DEBUG_VALUE: tcp_process:pcb <- $r4
	@DEBUG_VALUE: tcp_process:acceptable <- 0
	@DEBUG_VALUE: tcp_process:err <- 0
	movs	r5, #0
	b	.LBB3_111
.Ltmp361:
.LBB3_74:
	@DEBUG_VALUE: tcp_process:pcb <- $r4
	@DEBUG_VALUE: tcp_process:acceptable <- 0
	@DEBUG_VALUE: tcp_process:err <- 0
	movs	r5, #0
	b	.LBB3_111
.Ltmp362:
.LBB3_75:
	@DEBUG_VALUE: tcp_process:pcb <- $r4
	@DEBUG_VALUE: tcp_process:acceptable <- 0
	@DEBUG_VALUE: tcp_process:err <- 0
	movs	r5, #0
	b	.LBB3_111
.Ltmp363:
.LBB3_76:
	@DEBUG_VALUE: tcp_process:pcb <- $r4
	@DEBUG_VALUE: tcp_process:acceptable <- 0
	@DEBUG_VALUE: tcp_process:err <- 0
	movs	r5, #0
	b	.LBB3_111
.Ltmp364:
.LBB3_77:
	@DEBUG_VALUE: tcp_process:pcb <- $r4
	@DEBUG_VALUE: tcp_process:acceptable <- 0
	@DEBUG_VALUE: tcp_process:err <- 0
	.loc	6 829 9 is_stmt 1               @ rt-thread/components/net/lwip-2.0.2/src/core/tcp_in.c:829:9
	ldr	r0, [r4, #120]
	movs	r1, #4
.Ltmp365:
	.loc	6 825 20                        @ rt-thread/components/net/lwip-2.0.2/src/core/tcp_in.c:825:20
	strb	r1, [r4, #20]
.Ltmp366:
	.loc	6 829 9                         @ rt-thread/components/net/lwip-2.0.2/src/core/tcp_in.c:829:9
	cbz	r0, .LBB3_80
.Ltmp367:
@ %bb.78:
	@DEBUG_VALUE: tcp_process:pcb <- $r4
	@DEBUG_VALUE: tcp_process:acceptable <- 0
	@DEBUG_VALUE: tcp_process:err <- 0
	ldr	r0, [r0, #24]
.Ltmp368:
	.loc	6 829 9 is_stmt 0               @ rt-thread/components/net/lwip-2.0.2/src/core/tcp_in.c:829:9
	cbnz	r0, .LBB3_80
.Ltmp369:
@ %bb.79:
	@DEBUG_VALUE: tcp_process:pcb <- $r4
	@DEBUG_VALUE: tcp_process:acceptable <- 0
	@DEBUG_VALUE: tcp_process:err <- 0
	.loc	6 829 9                         @ rt-thread/components/net/lwip-2.0.2/src/core/tcp_in.c:829:9
	adr	r0, .LCPI3_1
	bl	rt_kprintf
	movw	r0, :lower16:.L.str.1
	movw	r1, #830
	movt	r0, :upper16:.L.str.1
	bl	sys_arch_assert
.Ltmp370:
.LBB3_80:
	@DEBUG_VALUE: tcp_process:pcb <- $r4
	@DEBUG_VALUE: tcp_process:acceptable <- 0
	@DEBUG_VALUE: tcp_process:err <- 0
	.loc	6 832 18 is_stmt 1              @ rt-thread/components/net/lwip-2.0.2/src/core/tcp_in.c:832:18
	ldr	r0, [r4, #120]
.Ltmp371:
	.loc	6 832 13 is_stmt 0              @ rt-thread/components/net/lwip-2.0.2/src/core/tcp_in.c:832:13
	cmp	r0, #0
	beq	.LBB3_102
.Ltmp372:
@ %bb.81:
	@DEBUG_VALUE: tcp_process:pcb <- $r4
	@DEBUG_VALUE: tcp_process:acceptable <- 0
	@DEBUG_VALUE: tcp_process:err <- 0
	.loc	6 840 11 is_stmt 1              @ rt-thread/components/net/lwip-2.0.2/src/core/tcp_in.c:840:11
	ldr	r3, [r0, #24]
.Ltmp373:
	.loc	6 840 11 is_stmt 0              @ rt-thread/components/net/lwip-2.0.2/src/core/tcp_in.c:840:11
	cmp	r3, #0
	beq	.LBB3_103
.Ltmp374:
@ %bb.82:
	@DEBUG_VALUE: tcp_process:pcb <- $r4
	@DEBUG_VALUE: tcp_process:acceptable <- 0
	@DEBUG_VALUE: tcp_process:err <- 0
	.loc	6 840 11                        @ rt-thread/components/net/lwip-2.0.2/src/core/tcp_in.c:840:11
	ldr	r0, [r4, #16]
	movs	r2, #0
	mov	r1, r4
	blx	r3
.Ltmp375:
	@DEBUG_VALUE: tcp_process:err <- undef
	.loc	6 0 11                          @ rt-thread/components/net/lwip-2.0.2/src/core/tcp_in.c:0:11
	b	.LBB3_104
.Ltmp376:
.LBB3_83:
	@DEBUG_VALUE: tcp_process:rseg <- $r5
	@DEBUG_VALUE: tcp_process:pcb <- $r4
	@DEBUG_VALUE: tcp_process:acceptable <- 0
	@DEBUG_VALUE: tcp_process:err <- 0
	movw	r0, #65535
.Ltmp377:
	.loc	6 793 20 is_stmt 1              @ rt-thread/components/net/lwip-2.0.2/src/core/tcp_in.c:793:20
	strh	r0, [r4, #48]
.Ltmp378:
.LBB3_84:
	@DEBUG_VALUE: tcp_process:rseg <- $r5
	@DEBUG_VALUE: tcp_process:pcb <- $r4
	@DEBUG_VALUE: tcp_process:acceptable <- 0
	@DEBUG_VALUE: tcp_process:err <- 0
	.loc	6 801 7                         @ rt-thread/components/net/lwip-2.0.2/src/core/tcp_in.c:801:7
	ldr.w	r3, [r4, #132]
.Ltmp379:
	.loc	6 801 7 is_stmt 0               @ rt-thread/components/net/lwip-2.0.2/src/core/tcp_in.c:801:7
	cbz	r3, .LBB3_87
.Ltmp380:
@ %bb.85:
	@DEBUG_VALUE: tcp_process:rseg <- $r5
	@DEBUG_VALUE: tcp_process:pcb <- $r4
	@DEBUG_VALUE: tcp_process:acceptable <- 0
	@DEBUG_VALUE: tcp_process:err <- 0
	.loc	6 801 7                         @ rt-thread/components/net/lwip-2.0.2/src/core/tcp_in.c:801:7
	ldr	r0, [r4, #16]
	movs	r2, #0
	mov	r1, r4
	blx	r3
.Ltmp381:
	@DEBUG_VALUE: tcp_process:err <- undef
	.loc	6 802 11 is_stmt 1              @ rt-thread/components/net/lwip-2.0.2/src/core/tcp_in.c:802:11
	adds	r0, #13
	bne	.LBB3_87
.Ltmp382:
@ %bb.86:
	@DEBUG_VALUE: tcp_process:rseg <- $r5
	@DEBUG_VALUE: tcp_process:pcb <- $r4
	@DEBUG_VALUE: tcp_process:acceptable <- 0
	.loc	6 0 11 is_stmt 0                @ rt-thread/components/net/lwip-2.0.2/src/core/tcp_in.c:0:11
	movs	r5, #243
.Ltmp383:
	b	.LBB3_111
.Ltmp384:
.LBB3_87:
	@DEBUG_VALUE: tcp_process:rseg <- $r5
	@DEBUG_VALUE: tcp_process:pcb <- $r4
	@DEBUG_VALUE: tcp_process:acceptable <- 0
	.loc	6 805 7 is_stmt 1               @ rt-thread/components/net/lwip-2.0.2/src/core/tcp_in.c:805:7
	ldrb	r0, [r4, #26]
	movs	r5, #0
.Ltmp385:
	orr	r0, r0, #2
	strb	r0, [r4, #26]
.Ltmp386:
	.loc	6 806 5                         @ rt-thread/components/net/lwip-2.0.2/src/core/tcp_in.c:806:5
	b	.LBB3_111
.Ltmp387:
.LBB3_88:
	@DEBUG_VALUE: tcp_process:pcb <- $r4
	@DEBUG_VALUE: tcp_process:acceptable <- 0
	@DEBUG_VALUE: tcp_process:err <- 0
	.loc	6 924 7                         @ rt-thread/components/net/lwip-2.0.2/src/core/tcp_in.c:924:7
	mov	r0, r4
	bl	tcp_pcb_purge
.Ltmp388:
	.loc	6 925 7                         @ rt-thread/components/net/lwip-2.0.2/src/core/tcp_in.c:925:7
	movw	r1, :lower16:tcp_active_pcbs
	movt	r1, :upper16:tcp_active_pcbs
	ldr	r0, [r1]
.Ltmp389:
	.loc	6 925 7 is_stmt 0               @ rt-thread/components/net/lwip-2.0.2/src/core/tcp_in.c:925:7
	cmp	r0, r4
	beq	.LBB3_92
.Ltmp390:
.LBB3_89:                               @ =>This Inner Loop Header: Depth=1
	@DEBUG_VALUE: tcp_process:pcb <- $r4
	@DEBUG_VALUE: tcp_process:acceptable <- 0
	@DEBUG_VALUE: tcp_process:err <- 0
	@DEBUG_VALUE: tcp_tmp_pcb <- $r0
	.loc	6 925 7                         @ rt-thread/components/net/lwip-2.0.2/src/core/tcp_in.c:925:7
	cbz	r0, .LBB3_93
.Ltmp391:
@ %bb.90:                               @   in Loop: Header=BB3_89 Depth=1
	@DEBUG_VALUE: tcp_process:pcb <- $r4
	@DEBUG_VALUE: tcp_tmp_pcb <- $r0
	@DEBUG_VALUE: tcp_process:acceptable <- 0
	@DEBUG_VALUE: tcp_process:err <- 0
	.loc	6 0 0                           @ rt-thread/components/net/lwip-2.0.2/src/core/tcp_in.c:0:0
	mov	r1, r0
.Ltmp392:
	@DEBUG_VALUE: tcp_tmp_pcb <- $r1
	.loc	6 925 7                         @ rt-thread/components/net/lwip-2.0.2/src/core/tcp_in.c:925:7
	ldr	r0, [r0, #12]
.Ltmp393:
	.loc	6 925 7                         @ rt-thread/components/net/lwip-2.0.2/src/core/tcp_in.c:925:7
	cmp	r0, r4
	bne	.LBB3_89
.Ltmp394:
@ %bb.91:
	@DEBUG_VALUE: tcp_process:pcb <- $r4
	@DEBUG_VALUE: tcp_tmp_pcb <- $r1
	@DEBUG_VALUE: tcp_process:acceptable <- 0
	@DEBUG_VALUE: tcp_process:err <- 0
	.loc	6 925 7                         @ rt-thread/components/net/lwip-2.0.2/src/core/tcp_in.c:925:7
	adds	r1, #12
.Ltmp395:
	.loc	6 0 7                           @ rt-thread/components/net/lwip-2.0.2/src/core/tcp_in.c:0:7
	mov	r0, r4
.Ltmp396:
.LBB3_92:
	@DEBUG_VALUE: tcp_process:pcb <- $r4
	@DEBUG_VALUE: tcp_process:acceptable <- 0
	@DEBUG_VALUE: tcp_process:err <- 0
	ldr	r0, [r0, #12]
	str	r0, [r1]
.Ltmp397:
.LBB3_93:
	@DEBUG_VALUE: tcp_process:pcb <- $r4
	@DEBUG_VALUE: tcp_process:acceptable <- 0
	@DEBUG_VALUE: tcp_process:err <- 0
	.loc	6 925 7                         @ rt-thread/components/net/lwip-2.0.2/src/core/tcp_in.c:925:7
	movw	r0, :lower16:tcp_active_pcbs_changed
	movs	r1, #1
	movt	r0, :upper16:tcp_active_pcbs_changed
	strb	r1, [r0]
	movs	r0, #10
.Ltmp398:
	.loc	6 926 18 is_stmt 1              @ rt-thread/components/net/lwip-2.0.2/src/core/tcp_in.c:926:18
	strb	r0, [r4, #20]
.Ltmp399:
	.loc	6 927 7                         @ rt-thread/components/net/lwip-2.0.2/src/core/tcp_in.c:927:7
	movw	r0, :lower16:tcp_tw_pcbs
	movt	r0, :upper16:tcp_tw_pcbs
	ldr	r1, [r0]
	str	r1, [r4, #12]
	str	r4, [r0]
	bl	tcp_timer_needed
	movs	r5, #0
.Ltmp400:
	.loc	6 928 5                         @ rt-thread/components/net/lwip-2.0.2/src/core/tcp_in.c:928:5
	b	.LBB3_111
.Ltmp401:
.LBB3_94:
	@DEBUG_VALUE: tcp_process:pcb <- $r4
	@DEBUG_VALUE: tcp_process:acceptable <- 0
	@DEBUG_VALUE: tcp_process:err <- 0
	.loc	6 935 18                        @ rt-thread/components/net/lwip-2.0.2/src/core/tcp_in.c:935:18
	movw	r0, :lower16:recv_flags
	movs	r5, #0
	movt	r0, :upper16:recv_flags
	ldrb	r1, [r0]
	orr	r1, r1, #16
	strb	r1, [r0]
	b	.LBB3_111
.Ltmp402:
.LBB3_95:
	@DEBUG_VALUE: tcp_process:pcb <- $r4
	@DEBUG_VALUE: tcp_process:acceptable <- 0
	@DEBUG_VALUE: tcp_process:err <- 0
	.loc	6 895 9                         @ rt-thread/components/net/lwip-2.0.2/src/core/tcp_in.c:895:9
	ldrb	r0, [r4, #26]
	orr	r0, r0, #2
	strb	r0, [r4, #26]
.Ltmp403:
	.loc	6 896 9                         @ rt-thread/components/net/lwip-2.0.2/src/core/tcp_in.c:896:9
	mov	r0, r4
	bl	tcp_pcb_purge
.Ltmp404:
	.loc	6 897 9                         @ rt-thread/components/net/lwip-2.0.2/src/core/tcp_in.c:897:9
	movw	r1, :lower16:tcp_active_pcbs
	movt	r1, :upper16:tcp_active_pcbs
	ldr	r0, [r1]
.Ltmp405:
	.loc	6 897 9 is_stmt 0               @ rt-thread/components/net/lwip-2.0.2/src/core/tcp_in.c:897:9
	cmp	r0, r4
	beq	.LBB3_99
.Ltmp406:
.LBB3_96:                               @ =>This Inner Loop Header: Depth=1
	@DEBUG_VALUE: tcp_process:pcb <- $r4
	@DEBUG_VALUE: tcp_process:acceptable <- 0
	@DEBUG_VALUE: tcp_process:err <- 0
	@DEBUG_VALUE: tcp_tmp_pcb <- $r0
	.loc	6 897 9                         @ rt-thread/components/net/lwip-2.0.2/src/core/tcp_in.c:897:9
	cbz	r0, .LBB3_100
.Ltmp407:
@ %bb.97:                               @   in Loop: Header=BB3_96 Depth=1
	@DEBUG_VALUE: tcp_process:pcb <- $r4
	@DEBUG_VALUE: tcp_tmp_pcb <- $r0
	@DEBUG_VALUE: tcp_process:acceptable <- 0
	@DEBUG_VALUE: tcp_process:err <- 0
	.loc	6 0 0                           @ rt-thread/components/net/lwip-2.0.2/src/core/tcp_in.c:0:0
	mov	r1, r0
.Ltmp408:
	@DEBUG_VALUE: tcp_tmp_pcb <- $r1
	.loc	6 897 9                         @ rt-thread/components/net/lwip-2.0.2/src/core/tcp_in.c:897:9
	ldr	r0, [r0, #12]
.Ltmp409:
	.loc	6 897 9                         @ rt-thread/components/net/lwip-2.0.2/src/core/tcp_in.c:897:9
	cmp	r0, r4
	bne	.LBB3_96
.Ltmp410:
@ %bb.98:
	@DEBUG_VALUE: tcp_process:pcb <- $r4
	@DEBUG_VALUE: tcp_tmp_pcb <- $r1
	@DEBUG_VALUE: tcp_process:acceptable <- 0
	@DEBUG_VALUE: tcp_process:err <- 0
	.loc	6 897 9                         @ rt-thread/components/net/lwip-2.0.2/src/core/tcp_in.c:897:9
	adds	r1, #12
.Ltmp411:
	.loc	6 0 9                           @ rt-thread/components/net/lwip-2.0.2/src/core/tcp_in.c:0:9
	mov	r0, r4
.Ltmp412:
.LBB3_99:
	@DEBUG_VALUE: tcp_process:pcb <- $r4
	@DEBUG_VALUE: tcp_process:acceptable <- 0
	@DEBUG_VALUE: tcp_process:err <- 0
	ldr	r0, [r0, #12]
	str	r0, [r1]
.Ltmp413:
.LBB3_100:
	@DEBUG_VALUE: tcp_process:pcb <- $r4
	@DEBUG_VALUE: tcp_process:acceptable <- 0
	@DEBUG_VALUE: tcp_process:err <- 0
	.loc	6 897 9                         @ rt-thread/components/net/lwip-2.0.2/src/core/tcp_in.c:897:9
	movw	r0, :lower16:tcp_active_pcbs_changed
	movs	r1, #1
	movt	r0, :upper16:tcp_active_pcbs_changed
	strb	r1, [r0]
	movs	r0, #10
.Ltmp414:
	.loc	6 898 20 is_stmt 1              @ rt-thread/components/net/lwip-2.0.2/src/core/tcp_in.c:898:20
	strb	r0, [r4, #20]
.Ltmp415:
	.loc	6 899 9                         @ rt-thread/components/net/lwip-2.0.2/src/core/tcp_in.c:899:9
	movw	r0, :lower16:tcp_tw_pcbs
	movt	r0, :upper16:tcp_tw_pcbs
	ldr	r1, [r0]
	str	r1, [r4, #12]
	str	r4, [r0]
	bl	tcp_timer_needed
	movs	r5, #0
.Ltmp416:
	.loc	6 900 7                         @ rt-thread/components/net/lwip-2.0.2/src/core/tcp_in.c:900:7
	b	.LBB3_111
.Ltmp417:
.LBB3_101:
	@DEBUG_VALUE: tcp_process:pcb <- $r4
	@DEBUG_VALUE: tcp_process:acceptable <- 0
	@DEBUG_VALUE: tcp_process:err <- 0
	.loc	6 0 7 is_stmt 0                 @ rt-thread/components/net/lwip-2.0.2/src/core/tcp_in.c:0:7
	movs	r0, #6
.Ltmp418:
	.loc	6 906 18 is_stmt 1              @ rt-thread/components/net/lwip-2.0.2/src/core/tcp_in.c:906:18
	strb	r0, [r4, #20]
	movs	r5, #0
	.loc	6 907 5                         @ rt-thread/components/net/lwip-2.0.2/src/core/tcp_in.c:907:5
	b	.LBB3_111
.Ltmp419:
.LBB3_102:
	@DEBUG_VALUE: tcp_process:pcb <- $r4
	@DEBUG_VALUE: tcp_process:acceptable <- 0
	@DEBUG_VALUE: tcp_process:err <- 0
	.loc	6 0 5 is_stmt 0                 @ rt-thread/components/net/lwip-2.0.2/src/core/tcp_in.c:0:5
	mvn	r0, #5
	b	.LBB3_104
.Ltmp420:
.LBB3_103:
	@DEBUG_VALUE: tcp_process:pcb <- $r4
	@DEBUG_VALUE: tcp_process:acceptable <- 0
	@DEBUG_VALUE: tcp_process:err <- 0
	mvn	r0, #15
.Ltmp421:
.LBB3_104:
	@DEBUG_VALUE: tcp_process:pcb <- $r4
	@DEBUG_VALUE: tcp_process:acceptable <- 0
	@DEBUG_VALUE: tcp_process:err <- undef
	.loc	6 842 13 is_stmt 1              @ rt-thread/components/net/lwip-2.0.2/src/core/tcp_in.c:842:13
	adds.w	r1, r0, #13
	beq	.LBB3_108
.Ltmp422:
@ %bb.105:
	@DEBUG_VALUE: tcp_process:pcb <- $r4
	@DEBUG_VALUE: tcp_process:acceptable <- 0
	cbnz	r0, .LBB3_109
.Ltmp423:
@ %bb.106:
	@DEBUG_VALUE: tcp_process:pcb <- $r4
	@DEBUG_VALUE: tcp_process:acceptable <- 0
	.loc	6 853 9                         @ rt-thread/components/net/lwip-2.0.2/src/core/tcp_in.c:853:9
	mov	r0, r4
	bl	tcp_receive
.Ltmp424:
	.loc	6 856 13                        @ rt-thread/components/net/lwip-2.0.2/src/core/tcp_in.c:856:13
	movw	r0, :lower16:recv_acked
	movw	r2, #4380
	movt	r0, :upper16:recv_acked
	ldrh	r1, [r0]
.Ltmp425:
	.loc	6 856 13 is_stmt 0              @ rt-thread/components/net/lwip-2.0.2/src/core/tcp_in.c:856:13
	cmp	r1, #0
.Ltmp426:
	.loc	6 857 21 is_stmt 1              @ rt-thread/components/net/lwip-2.0.2/src/core/tcp_in.c:857:21
	itt	ne
	subne	r1, #1
	strhne	r1, [r0]
.Ltmp427:
	.loc	6 860 21                        @ rt-thread/components/net/lwip-2.0.2/src/core/tcp_in.c:860:21
	ldrh	r0, [r4, #50]
	movw	r1, #2190
	cmp	r0, r1
.Ltmp428:
	.loc	6 865 13                        @ rt-thread/components/net/lwip-2.0.2/src/core/tcp_in.c:865:13
	movw	r1, :lower16:recv_flags
	movt	r1, :upper16:recv_flags
.Ltmp429:
	.loc	6 860 21                        @ rt-thread/components/net/lwip-2.0.2/src/core/tcp_in.c:860:21
	it	hi
	lslhi	r2, r0, #1
.Ltmp430:
	.loc	6 865 13                        @ rt-thread/components/net/lwip-2.0.2/src/core/tcp_in.c:865:13
	ldrb	r1, [r1]
.Ltmp431:
	.loc	6 860 21                        @ rt-thread/components/net/lwip-2.0.2/src/core/tcp_in.c:860:21
	cmp.w	r2, r0, lsl #2
	it	hi
	lslhi	r2, r0, #2
	.loc	6 865 13                        @ rt-thread/components/net/lwip-2.0.2/src/core/tcp_in.c:865:13
	lsls	r0, r1, #26
	.loc	6 860 19                        @ rt-thread/components/net/lwip-2.0.2/src/core/tcp_in.c:860:19
	strh.w	r2, [r4, #72]
	.loc	6 865 13                        @ rt-thread/components/net/lwip-2.0.2/src/core/tcp_in.c:865:13
	bmi	.LBB3_110
.Ltmp432:
@ %bb.107:
	@DEBUG_VALUE: tcp_process:pcb <- $r4
	@DEBUG_VALUE: tcp_process:acceptable <- 0
	.loc	6 0 13 is_stmt 0                @ rt-thread/components/net/lwip-2.0.2/src/core/tcp_in.c:0:13
	movs	r5, #0
	b	.LBB3_111
.Ltmp433:
.LBB3_108:
	@DEBUG_VALUE: tcp_process:pcb <- $r4
	@DEBUG_VALUE: tcp_process:acceptable <- 0
	movs	r5, #243
	b	.LBB3_111
.Ltmp434:
.LBB3_109:
	@DEBUG_VALUE: tcp_process:pcb <- $r4
	@DEBUG_VALUE: tcp_process:acceptable <- 0
	.loc	6 847 13 is_stmt 1              @ rt-thread/components/net/lwip-2.0.2/src/core/tcp_in.c:847:13
	mov	r0, r4
	bl	tcp_abort
	movs	r5, #243
	.loc	6 848 11                        @ rt-thread/components/net/lwip-2.0.2/src/core/tcp_in.c:848:11
	b	.LBB3_111
.Ltmp435:
.LBB3_110:
	@DEBUG_VALUE: tcp_process:pcb <- $r4
	@DEBUG_VALUE: tcp_process:acceptable <- 0
	.loc	6 866 11                        @ rt-thread/components/net/lwip-2.0.2/src/core/tcp_in.c:866:11
	ldrb	r0, [r4, #26]
	movs	r5, #0
	orr	r0, r0, #2
	strb	r0, [r4, #26]
	movs	r0, #7
.Ltmp436:
	.loc	6 867 22                        @ rt-thread/components/net/lwip-2.0.2/src/core/tcp_in.c:867:22
	strb	r0, [r4, #20]
.Ltmp437:
.LBB3_111:
	@DEBUG_VALUE: tcp_process:pcb <- $r4
	.loc	6 942 1                         @ rt-thread/components/net/lwip-2.0.2/src/core/tcp_in.c:942:1
	sxtb	r0, r5
	add	sp, #8
	pop.w	{r4, r5, r6, r7, r8, pc}
.Ltmp438:
	.p2align	2
@ %bb.112:
	.loc	6 0 1 is_stmt 0                 @ rt-thread/components/net/lwip-2.0.2/src/core/tcp_in.c:0:1
.LCPI3_0:
.L.str.11:
	.asciz	"tcp_input: pcb->state != CLOSED"
.LCPI3_1:
.L.str.14:
	.asciz	"pcb->listener->accept != NULL\000\000"
.LCPI3_2:
.L.str.12:
	.asciz	"pcb->snd_queuelen > 0\000\000"
.LCPI3_3:
.L.str.13:
	.asciz	"no segment to free\000"
.Lfunc_end3:
	.size	tcp_process, .Lfunc_end3-tcp_process
	.cfi_endproc
	.cantunwind
	.fnend
                                        @ -- End function
	.section	.text.tcp_trigger_input_pcb_close,"ax",%progbits
	.hidden	tcp_trigger_input_pcb_close     @ -- Begin function tcp_trigger_input_pcb_close
	.globl	tcp_trigger_input_pcb_close
	.p2align	3
	.type	tcp_trigger_input_pcb_close,%function
	.code	16                              @ @tcp_trigger_input_pcb_close
	.thumb_func
tcp_trigger_input_pcb_close:
.Lfunc_begin4:
	.loc	6 1814 0 is_stmt 1              @ rt-thread/components/net/lwip-2.0.2/src/core/tcp_in.c:1814:0
	.fnstart
	.cfi_startproc
@ %bb.0:
	.loc	6 1815 14 prologue_end          @ rt-thread/components/net/lwip-2.0.2/src/core/tcp_in.c:1815:14
	movw	r0, :lower16:recv_flags
	movt	r0, :upper16:recv_flags
	ldrb	r1, [r0]
	orr	r1, r1, #16
	strb	r1, [r0]
	.loc	6 1816 1                        @ rt-thread/components/net/lwip-2.0.2/src/core/tcp_in.c:1816:1
	bx	lr
.Ltmp439:
.Lfunc_end4:
	.size	tcp_trigger_input_pcb_close, .Lfunc_end4-tcp_trigger_input_pcb_close
	.cfi_endproc
	.cantunwind
	.fnend
                                        @ -- End function
	.section	.text.tcp_parseopt,"ax",%progbits
	.p2align	3                               @ -- Begin function tcp_parseopt
	.type	tcp_parseopt,%function
	.code	16                              @ @tcp_parseopt
	.thumb_func
tcp_parseopt:
.Lfunc_begin5:
	.loc	6 1711 0                        @ rt-thread/components/net/lwip-2.0.2/src/core/tcp_in.c:1711:0
	.fnstart
	.cfi_startproc
@ %bb.0:
	@DEBUG_VALUE: tcp_parseopt:pcb <- $r0
	.save	{r4, r5, r6, r7, r8, lr}
	push.w	{r4, r5, r6, r7, r8, lr}
	.cfi_def_cfa_offset 24
	.cfi_offset lr, -4
	.cfi_offset r8, -8
	.cfi_offset r7, -12
	.cfi_offset r6, -16
	.cfi_offset r5, -20
	.cfi_offset r4, -24
.Ltmp440:
	.loc	6 1719 7 prologue_end           @ rt-thread/components/net/lwip-2.0.2/src/core/tcp_in.c:1719:7
	movw	r1, :lower16:tcphdr_optlen
	movt	r1, :upper16:tcphdr_optlen
	ldrh	r6, [r1]
.Ltmp441:
	.loc	6 1719 7 is_stmt 0              @ rt-thread/components/net/lwip-2.0.2/src/core/tcp_in.c:1719:7
	cmp	r6, #0
	@DEBUG_VALUE: tcp_parseopt:pcb <- $r0
	.loc	6 1810 1 is_stmt 1              @ rt-thread/components/net/lwip-2.0.2/src/core/tcp_in.c:1810:1
	it	eq
	popeq.w	{r4, r5, r6, r7, r8, pc}
.Ltmp442:
.LBB5_1:
	@DEBUG_VALUE: tcp_parseopt:pcb <- $r0
	.loc	6 1720 21                       @ rt-thread/components/net/lwip-2.0.2/src/core/tcp_in.c:1720:21
	movw	r7, :lower16:tcp_optidx
	mov	r4, r0
.Ltmp443:
	@DEBUG_VALUE: tcp_parseopt:pcb <- $r4
	@DEBUG_VALUE: tcp_parseopt:pcb <- $r4
	movt	r7, :upper16:tcp_optidx
	movw	r8, #1460
	movs	r0, #0
	strh	r0, [r7]
	b	.LBB5_4
.Ltmp444:
	.p2align	2
.LBB5_2:                                @   in Loop: Header=BB5_4 Depth=1
	@DEBUG_VALUE: tcp_parseopt:pcb <- $r4
	.loc	6 1739 16                       @ rt-thread/components/net/lwip-2.0.2/src/core/tcp_in.c:1739:16
	bl	tcp_getoptbyte
	mov	r5, r0
.Ltmp445:
	@DEBUG_VALUE: tcp_parseopt:mss <- [DW_OP_LLVM_convert 8 7, DW_OP_LLVM_convert 16 7, DW_OP_constu 8, DW_OP_shl, DW_OP_stack_value] undef
	.loc	6 1740 16                       @ rt-thread/components/net/lwip-2.0.2/src/core/tcp_in.c:1740:16
	bl	tcp_getoptbyte
	.loc	6 1740 13 is_stmt 0             @ rt-thread/components/net/lwip-2.0.2/src/core/tcp_in.c:1740:13
	orr.w	r0, r0, r5, lsl #8
.Ltmp446:
	@DEBUG_VALUE: tcp_parseopt:mss <- $r0
	.loc	6 1742 37 is_stmt 1             @ rt-thread/components/net/lwip-2.0.2/src/core/tcp_in.c:1742:37
	subs	r1, r0, #1
	.loc	6 1742 20 is_stmt 0             @ rt-thread/components/net/lwip-2.0.2/src/core/tcp_in.c:1742:20
	cmp	r1, r8
	it	hs
	movhs	r0, r8
.Ltmp447:
	.loc	6 1742 18                       @ rt-thread/components/net/lwip-2.0.2/src/core/tcp_in.c:1742:18
	strh	r0, [r4, #50]
.Ltmp448:
.LBB5_3:                                @   in Loop: Header=BB5_4 Depth=1
	@DEBUG_VALUE: tcp_parseopt:pcb <- $r4
	.loc	6 1720 26 is_stmt 1             @ rt-thread/components/net/lwip-2.0.2/src/core/tcp_in.c:1720:26
	ldrh	r0, [r7]
.Ltmp449:
	.loc	6 1720 5 is_stmt 0              @ rt-thread/components/net/lwip-2.0.2/src/core/tcp_in.c:1720:5
	cmp	r0, r6
	bhs	.LBB5_11
.Ltmp450:
.LBB5_4:                                @ =>This Inner Loop Header: Depth=1
	@DEBUG_VALUE: tcp_parseopt:pcb <- $r4
	.loc	6 1721 18 is_stmt 1             @ rt-thread/components/net/lwip-2.0.2/src/core/tcp_in.c:1721:18
	bl	tcp_getoptbyte
.Ltmp451:
	@DEBUG_VALUE: opt <- $r0
	.loc	6 1722 7                        @ rt-thread/components/net/lwip-2.0.2/src/core/tcp_in.c:1722:7
	cmp	r0, #1
	beq	.LBB5_3
.Ltmp452:
@ %bb.5:                                @   in Loop: Header=BB5_4 Depth=1
	@DEBUG_VALUE: tcp_parseopt:pcb <- $r4
	@DEBUG_VALUE: opt <- $r0
	cmp	r0, #2
	beq	.LBB5_9
.Ltmp453:
@ %bb.6:                                @   in Loop: Header=BB5_4 Depth=1
	@DEBUG_VALUE: tcp_parseopt:pcb <- $r4
	@DEBUG_VALUE: opt <- $r0
	cbz	r0, .LBB5_11
.Ltmp454:
@ %bb.7:                                @   in Loop: Header=BB5_4 Depth=1
	@DEBUG_VALUE: tcp_parseopt:pcb <- $r4
	@DEBUG_VALUE: opt <- $r0
	.loc	6 1797 16                       @ rt-thread/components/net/lwip-2.0.2/src/core/tcp_in.c:1797:16
	bl	tcp_getoptbyte
.Ltmp455:
	@DEBUG_VALUE: tcp_parseopt:data <- $r0
	.loc	6 1798 13                       @ rt-thread/components/net/lwip-2.0.2/src/core/tcp_in.c:1798:13
	cmp	r0, #2
	blo	.LBB5_11
.Ltmp456:
@ %bb.8:                                @   in Loop: Header=BB5_4 Depth=1
	@DEBUG_VALUE: tcp_parseopt:pcb <- $r4
	@DEBUG_VALUE: tcp_parseopt:data <- $r0
	.loc	6 1806 20                       @ rt-thread/components/net/lwip-2.0.2/src/core/tcp_in.c:1806:20
	ldrh	r1, [r7]
	.loc	6 1806 28 is_stmt 0             @ rt-thread/components/net/lwip-2.0.2/src/core/tcp_in.c:1806:28
	add	r0, r1
.Ltmp457:
	.loc	6 1806 20                       @ rt-thread/components/net/lwip-2.0.2/src/core/tcp_in.c:1806:20
	subs	r0, #2
	strh	r0, [r7]
	b	.LBB5_3
.Ltmp458:
	.p2align	2
.LBB5_9:                                @   in Loop: Header=BB5_4 Depth=1
	@DEBUG_VALUE: tcp_parseopt:pcb <- $r4
	@DEBUG_VALUE: opt <- $r0
	.loc	6 1733 13 is_stmt 1             @ rt-thread/components/net/lwip-2.0.2/src/core/tcp_in.c:1733:13
	bl	tcp_getoptbyte
.Ltmp459:
	.loc	6 1733 54 is_stmt 0             @ rt-thread/components/net/lwip-2.0.2/src/core/tcp_in.c:1733:54
	cmp	r0, #4
	bne	.LBB5_11
.Ltmp460:
@ %bb.10:                               @   in Loop: Header=BB5_4 Depth=1
	@DEBUG_VALUE: tcp_parseopt:pcb <- $r4
	.loc	6 1733 58                       @ rt-thread/components/net/lwip-2.0.2/src/core/tcp_in.c:1733:58
	ldrh	r0, [r7]
	.loc	6 1733 73                       @ rt-thread/components/net/lwip-2.0.2/src/core/tcp_in.c:1733:73
	adds	r0, #2
.Ltmp461:
	.loc	6 1733 13                       @ rt-thread/components/net/lwip-2.0.2/src/core/tcp_in.c:1733:13
	cmp	r0, r6
	bls	.LBB5_2
.Ltmp462:
.LBB5_11:
	@DEBUG_VALUE: tcp_parseopt:pcb <- $r4
	.loc	6 1810 1 is_stmt 1              @ rt-thread/components/net/lwip-2.0.2/src/core/tcp_in.c:1810:1
	pop.w	{r4, r5, r6, r7, r8, pc}
.Ltmp463:
.Lfunc_end5:
	.size	tcp_parseopt, .Lfunc_end5-tcp_parseopt
	.cfi_endproc
	.cantunwind
	.fnend
                                        @ -- End function
	.section	.text.tcp_getoptbyte,"ax",%progbits
	.p2align	3                               @ -- Begin function tcp_getoptbyte
	.type	tcp_getoptbyte,%function
	.code	16                              @ @tcp_getoptbyte
	.thumb_func
tcp_getoptbyte:
.Lfunc_begin6:
	.loc	6 1691 0                        @ rt-thread/components/net/lwip-2.0.2/src/core/tcp_in.c:1691:0
	.fnstart
	.cfi_startproc
@ %bb.0:
	.loc	6 1692 8 prologue_end           @ rt-thread/components/net/lwip-2.0.2/src/core/tcp_in.c:1692:8
	movw	r0, :lower16:tcphdr_opt2
	movt	r0, :upper16:tcphdr_opt2
	ldr	r1, [r0]
	movw	r0, :lower16:tcp_optidx
	movt	r0, :upper16:tcp_optidx
	.loc	6 1692 29 is_stmt 0             @ rt-thread/components/net/lwip-2.0.2/src/core/tcp_in.c:1692:29
	cbz	r1, .LBB6_2
@ %bb.1:
	.loc	6 1692 46                       @ rt-thread/components/net/lwip-2.0.2/src/core/tcp_in.c:1692:46
	movw	r3, :lower16:tcphdr_opt1len
	.loc	6 1692 33                       @ rt-thread/components/net/lwip-2.0.2/src/core/tcp_in.c:1692:33
	ldrh	r2, [r0]
	.loc	6 1692 46                       @ rt-thread/components/net/lwip-2.0.2/src/core/tcp_in.c:1692:46
	movt	r3, :upper16:tcphdr_opt1len
	ldrh	r3, [r3]
.Ltmp464:
	.loc	6 1692 7                        @ rt-thread/components/net/lwip-2.0.2/src/core/tcp_in.c:1692:7
	cmp	r2, r3
	bhs	.LBB6_3
.LBB6_2:
.Ltmp465:
	.loc	6 1693 26 is_stmt 1             @ rt-thread/components/net/lwip-2.0.2/src/core/tcp_in.c:1693:26
	movw	r1, :lower16:tcphdr
	.loc	6 1694 27                       @ rt-thread/components/net/lwip-2.0.2/src/core/tcp_in.c:1694:27
	ldrh	r2, [r0]
	.loc	6 1693 26                       @ rt-thread/components/net/lwip-2.0.2/src/core/tcp_in.c:1693:26
	movt	r1, :upper16:tcphdr
	ldr	r1, [r1]
.Ltmp466:
	@DEBUG_VALUE: opts <- undef
	.loc	6 1693 33 is_stmt 0             @ rt-thread/components/net/lwip-2.0.2/src/core/tcp_in.c:1693:33
	add	r1, r2
	.loc	6 1694 27 is_stmt 1             @ rt-thread/components/net/lwip-2.0.2/src/core/tcp_in.c:1694:27
	adds	r2, #1
	strh	r2, [r0]
	.loc	6 1694 12 is_stmt 0             @ rt-thread/components/net/lwip-2.0.2/src/core/tcp_in.c:1694:12
	add.w	r0, r1, #20
.Ltmp467:
	.loc	6 0 0                           @ rt-thread/components/net/lwip-2.0.2/src/core/tcp_in.c:0:0
	ldrb	r0, [r0]
.Ltmp468:
	.loc	6 1699 1 is_stmt 1              @ rt-thread/components/net/lwip-2.0.2/src/core/tcp_in.c:1699:1
	bx	lr
.Ltmp469:
.LBB6_3:
	.loc	6 1696 36                       @ rt-thread/components/net/lwip-2.0.2/src/core/tcp_in.c:1696:36
	subs	r3, r2, r3
.Ltmp470:
	@DEBUG_VALUE: idx <- undef
	.loc	6 1696 33 is_stmt 0             @ rt-thread/components/net/lwip-2.0.2/src/core/tcp_in.c:1696:33
	adds	r2, #1
	strh	r2, [r0]
	.loc	6 1697 12 is_stmt 1             @ rt-thread/components/net/lwip-2.0.2/src/core/tcp_in.c:1697:12
	uxtab	r0, r1, r3
.Ltmp471:
	.loc	6 0 0 is_stmt 0                 @ rt-thread/components/net/lwip-2.0.2/src/core/tcp_in.c:0:0
	ldrb	r0, [r0]
.Ltmp472:
	.loc	6 1699 1 is_stmt 1              @ rt-thread/components/net/lwip-2.0.2/src/core/tcp_in.c:1699:1
	bx	lr
.Ltmp473:
.Lfunc_end6:
	.size	tcp_getoptbyte, .Lfunc_end6-tcp_getoptbyte
	.cfi_endproc
	.cantunwind
	.fnend
                                        @ -- End function
	.section	.text.tcp_receive,"ax",%progbits
	.p2align	3                               @ -- Begin function tcp_receive
	.type	tcp_receive,%function
	.code	16                              @ @tcp_receive
	.thumb_func
tcp_receive:
.Lfunc_begin7:
	.loc	6 998 0                         @ rt-thread/components/net/lwip-2.0.2/src/core/tcp_in.c:998:0
	.fnstart
	.cfi_startproc
@ %bb.0:
	@DEBUG_VALUE: tcp_receive:pcb <- $r0
	.save	{r4, r5, r6, r7, r8, r9, r10, r11, lr}
	push.w	{r4, r5, r6, r7, r8, r9, r10, r11, lr}
	.cfi_def_cfa_offset 36
	.cfi_offset lr, -4
	.cfi_offset r11, -8
	.cfi_offset r10, -12
	.cfi_offset r9, -16
	.cfi_offset r8, -20
	.cfi_offset r7, -24
	.cfi_offset r6, -28
	.cfi_offset r5, -32
	.cfi_offset r4, -36
	.pad	#4
	sub	sp, #4
	.cfi_def_cfa_offset 40
	mov	r4, r0
.Ltmp474:
	@DEBUG_VALUE: tcp_receive:found_dupack <- 0
	@DEBUG_VALUE: tcp_receive:pcb <- $r4
	.loc	6 1013 3 prologue_end           @ rt-thread/components/net/lwip-2.0.2/src/core/tcp_in.c:1013:3
	ldrb	r0, [r0, #20]
.Ltmp475:
	.loc	6 1013 3 is_stmt 0              @ rt-thread/components/net/lwip-2.0.2/src/core/tcp_in.c:1013:3
	cmp	r0, #3
	bhi	.LBB7_2
.Ltmp476:
@ %bb.1:
	@DEBUG_VALUE: tcp_receive:pcb <- $r4
	@DEBUG_VALUE: tcp_receive:found_dupack <- 0
	.loc	6 1013 3                        @ rt-thread/components/net/lwip-2.0.2/src/core/tcp_in.c:1013:3
	adr.w	r0, .LCPI7_0
	bl	rt_kprintf
	movw	r0, :lower16:.L.str.1
	movw	r1, #1013
	movt	r0, :upper16:.L.str.1
	bl	sys_arch_assert
.Ltmp477:
.LBB7_2:
	@DEBUG_VALUE: tcp_receive:pcb <- $r4
	@DEBUG_VALUE: tcp_receive:found_dupack <- 0
	.loc	6 1015 7 is_stmt 1              @ rt-thread/components/net/lwip-2.0.2/src/core/tcp_in.c:1015:7
	movw	r0, :lower16:flags
	movw	r9, :lower16:tcplen
	movt	r0, :upper16:flags
	movw	r6, :lower16:seqno
	movt	r9, :upper16:tcplen
	movt	r6, :upper16:seqno
	ldrb	r0, [r0]
.Ltmp478:
	.loc	6 1015 7 is_stmt 0              @ rt-thread/components/net/lwip-2.0.2/src/core/tcp_in.c:1015:7
	lsls	r0, r0, #27
	bpl.w	.LBB7_58
.Ltmp479:
@ %bb.3:
	@DEBUG_VALUE: tcp_receive:pcb <- $r4
	@DEBUG_VALUE: tcp_receive:found_dupack <- 0
	.loc	6 1019 9 is_stmt 1              @ rt-thread/components/net/lwip-2.0.2/src/core/tcp_in.c:1019:9
	ldr	r3, [r4, #80]
	ldr	r2, [r6]
.Ltmp480:
	.loc	6 1016 27                       @ rt-thread/components/net/lwip-2.0.2/src/core/tcp_in.c:1016:27
	ldrh.w	r0, [r4, #92]
.Ltmp481:
	@DEBUG_VALUE: tcp_receive:right_wnd_edge <- undef
	.loc	6 0 27 is_stmt 0                @ rt-thread/components/net/lwip-2.0.2/src/core/tcp_in.c:0:27
	movw	r5, :lower16:ackno
.Ltmp482:
	.loc	6 1019 9 is_stmt 1              @ rt-thread/components/net/lwip-2.0.2/src/core/tcp_in.c:1019:9
	subs	r1, r3, r2
.Ltmp483:
	.loc	6 1016 42                       @ rt-thread/components/net/lwip-2.0.2/src/core/tcp_in.c:1016:42
	ldr	r1, [r4, #84]
	movt	r5, :upper16:ackno
.Ltmp484:
	.loc	6 1019 41                       @ rt-thread/components/net/lwip-2.0.2/src/core/tcp_in.c:1019:41
	bmi	.LBB7_8
.Ltmp485:
@ %bb.4:
	@DEBUG_VALUE: tcp_receive:pcb <- $r4
	@DEBUG_VALUE: tcp_receive:found_dupack <- 0
	.loc	6 1020 31                       @ rt-thread/components/net/lwip-2.0.2/src/core/tcp_in.c:1020:31
	cmp	r3, r2
	bne	.LBB7_6
.Ltmp486:
@ %bb.5:
	@DEBUG_VALUE: tcp_receive:pcb <- $r4
	@DEBUG_VALUE: tcp_receive:found_dupack <- 0
	.loc	6 1020 34 is_stmt 0             @ rt-thread/components/net/lwip-2.0.2/src/core/tcp_in.c:1020:34
	ldr	r3, [r5]
	subs	r3, r1, r3
	.loc	6 1020 67                       @ rt-thread/components/net/lwip-2.0.2/src/core/tcp_in.c:1020:67
	bmi	.LBB7_8
.Ltmp487:
.LBB7_6:
	@DEBUG_VALUE: tcp_receive:pcb <- $r4
	@DEBUG_VALUE: tcp_receive:found_dupack <- 0
	.loc	6 1021 25 is_stmt 1             @ rt-thread/components/net/lwip-2.0.2/src/core/tcp_in.c:1021:25
	ldr	r3, [r5]
	.loc	6 1021 31 is_stmt 0             @ rt-thread/components/net/lwip-2.0.2/src/core/tcp_in.c:1021:31
	cmp	r1, r3
	bne	.LBB7_12
.Ltmp488:
@ %bb.7:
	@DEBUG_VALUE: tcp_receive:pcb <- $r4
	@DEBUG_VALUE: tcp_receive:found_dupack <- 0
	.loc	6 1021 41                       @ rt-thread/components/net/lwip-2.0.2/src/core/tcp_in.c:1021:41
	movw	r3, :lower16:tcphdr
	movt	r3, :upper16:tcphdr
	ldr	r3, [r3]
	ldrh	r3, [r3, #14]
.Ltmp489:
	.loc	6 1019 9 is_stmt 1              @ rt-thread/components/net/lwip-2.0.2/src/core/tcp_in.c:1019:9
	cmp	r3, r0
	bls	.LBB7_12
.Ltmp490:
.LBB7_8:
	@DEBUG_VALUE: tcp_receive:pcb <- $r4
	@DEBUG_VALUE: tcp_receive:found_dupack <- 0
	.loc	6 1022 22                       @ rt-thread/components/net/lwip-2.0.2/src/core/tcp_in.c:1022:22
	movw	r3, :lower16:tcphdr
.Ltmp491:
	.loc	6 1025 16                       @ rt-thread/components/net/lwip-2.0.2/src/core/tcp_in.c:1025:16
	ldrh.w	r7, [r4, #94]
.Ltmp492:
	.loc	6 1022 22                       @ rt-thread/components/net/lwip-2.0.2/src/core/tcp_in.c:1022:22
	movt	r3, :upper16:tcphdr
	ldr	r3, [r3]
	ldrh	r3, [r3, #14]
	.loc	6 1022 20 is_stmt 0             @ rt-thread/components/net/lwip-2.0.2/src/core/tcp_in.c:1022:20
	strh.w	r3, [r4, #92]
	.loc	6 1025 11 is_stmt 1             @ rt-thread/components/net/lwip-2.0.2/src/core/tcp_in.c:1025:11
	cmp	r7, r3
.Ltmp493:
	.loc	6 1026 26                       @ rt-thread/components/net/lwip-2.0.2/src/core/tcp_in.c:1026:26
	it	lo
	strhlo.w	r3, [r4, #94]
.Ltmp494:
	.loc	6 1028 20                       @ rt-thread/components/net/lwip-2.0.2/src/core/tcp_in.c:1028:20
	str	r2, [r4, #80]
.Ltmp495:
	.loc	6 0 0 is_stmt 0                 @ rt-thread/components/net/lwip-2.0.2/src/core/tcp_in.c:0:0
	ldrb.w	r2, [r4, #157]
.Ltmp496:
	.loc	6 1030 11 is_stmt 1             @ rt-thread/components/net/lwip-2.0.2/src/core/tcp_in.c:1030:11
	cmp	r3, #0
	.loc	6 1029 22                       @ rt-thread/components/net/lwip-2.0.2/src/core/tcp_in.c:1029:22
	ldr	r3, [r5]
	.loc	6 1029 20 is_stmt 0             @ rt-thread/components/net/lwip-2.0.2/src/core/tcp_in.c:1029:20
	str	r3, [r4, #84]
	.loc	6 1030 11 is_stmt 1             @ rt-thread/components/net/lwip-2.0.2/src/core/tcp_in.c:1030:11
	beq	.LBB7_10
.Ltmp497:
@ %bb.9:
	@DEBUG_VALUE: tcp_receive:pcb <- $r4
	@DEBUG_VALUE: tcp_receive:found_dupack <- 0
	.loc	6 1036 18                       @ rt-thread/components/net/lwip-2.0.2/src/core/tcp_in.c:1036:18
	cmp	r2, #0
	itt	ne
	movne	r2, #0
.Ltmp498:
	.loc	6 1038 32                       @ rt-thread/components/net/lwip-2.0.2/src/core/tcp_in.c:1038:32
	strbne.w	r2, [r4, #157]
	b	.LBB7_12
.Ltmp499:
.LBB7_10:
	@DEBUG_VALUE: tcp_receive:pcb <- $r4
	@DEBUG_VALUE: tcp_receive:found_dupack <- 0
	.loc	6 1031 13                       @ rt-thread/components/net/lwip-2.0.2/src/core/tcp_in.c:1031:13
	cbnz	r2, .LBB7_12
.Ltmp500:
@ %bb.11:
	@DEBUG_VALUE: tcp_receive:pcb <- $r4
	@DEBUG_VALUE: tcp_receive:found_dupack <- 0
	.loc	6 0 13 is_stmt 0                @ rt-thread/components/net/lwip-2.0.2/src/core/tcp_in.c:0:13
	mov.w	r2, #256
.Ltmp501:
	.loc	6 1033 28 is_stmt 1             @ rt-thread/components/net/lwip-2.0.2/src/core/tcp_in.c:1033:28
	strh.w	r2, [r4, #156]
.Ltmp502:
.LBB7_12:
	@DEBUG_VALUE: tcp_receive:pcb <- $r4
	@DEBUG_VALUE: tcp_receive:found_dupack <- 0
	@DEBUG_VALUE: tcp_receive:right_wnd_edge <- undef
	.loc	6 1073 9                        @ rt-thread/components/net/lwip-2.0.2/src/core/tcp_in.c:1073:9
	ldr	r2, [r5]
	ldr	r3, [r4, #68]
	subs	r7, r2, r3
	movw	r10, :lower16:recv_acked
.Ltmp503:
	.loc	6 1073 9 is_stmt 0              @ rt-thread/components/net/lwip-2.0.2/src/core/tcp_in.c:1073:9
	cmp	r7, #0
	movt	r10, :upper16:recv_acked
	ble	.LBB7_16
.Ltmp504:
@ %bb.13:
	@DEBUG_VALUE: tcp_receive:pcb <- $r4
	@DEBUG_VALUE: tcp_receive:found_dupack <- 0
	.loc	6 1105 16 is_stmt 1             @ rt-thread/components/net/lwip-2.0.2/src/core/tcp_in.c:1105:16
	mvns	r0, r3
	adds	r0, r0, r2
	bmi	.LBB7_15
.Ltmp505:
@ %bb.14:
	@DEBUG_VALUE: tcp_receive:pcb <- $r4
	@DEBUG_VALUE: tcp_receive:found_dupack <- 0
	ldr	r0, [r4, #76]
	subs	r0, r2, r0
.Ltmp506:
	.loc	6 1105 16 is_stmt 0             @ rt-thread/components/net/lwip-2.0.2/src/core/tcp_in.c:1105:16
	cmp	r0, #0
	ble	.LBB7_24
.Ltmp507:
.LBB7_15:
	@DEBUG_VALUE: tcp_receive:pcb <- $r4
	@DEBUG_VALUE: tcp_receive:found_dupack <- 0
	.loc	6 1194 7 is_stmt 1              @ rt-thread/components/net/lwip-2.0.2/src/core/tcp_in.c:1194:7
	mov	r0, r4
	bl	tcp_send_empty_ack
	b	.LBB7_42
.Ltmp508:
.LBB7_16:
	@DEBUG_VALUE: tcp_receive:pcb <- $r4
	@DEBUG_VALUE: tcp_receive:found_dupack <- 0
	@DEBUG_VALUE: tcp_receive:right_wnd_edge <- undef
	.loc	6 1075 11                       @ rt-thread/components/net/lwip-2.0.2/src/core/tcp_in.c:1075:11
	ldrh.w	r7, [r9]
.Ltmp509:
	.loc	6 1075 11 is_stmt 0             @ rt-thread/components/net/lwip-2.0.2/src/core/tcp_in.c:1075:11
	cbnz	r7, .LBB7_23
.Ltmp510:
@ %bb.17:
	@DEBUG_VALUE: tcp_receive:pcb <- $r4
	@DEBUG_VALUE: tcp_receive:found_dupack <- 0
	.loc	6 1077 33 is_stmt 1             @ rt-thread/components/net/lwip-2.0.2/src/core/tcp_in.c:1077:33
	ldrh.w	r7, [r4, #92]
.Ltmp511:
	.loc	6 0 0 is_stmt 0                 @ rt-thread/components/net/lwip-2.0.2/src/core/tcp_in.c:0:0
	add	r0, r1
.Ltmp512:
	@DEBUG_VALUE: tcp_receive:right_wnd_edge <- $r0
	.loc	6 1077 18                       @ rt-thread/components/net/lwip-2.0.2/src/core/tcp_in.c:1077:18
	ldr	r6, [r4, #84]
	.loc	6 1077 26                       @ rt-thread/components/net/lwip-2.0.2/src/core/tcp_in.c:1077:26
	adds	r1, r6, r7
.Ltmp513:
	.loc	6 1077 13                       @ rt-thread/components/net/lwip-2.0.2/src/core/tcp_in.c:1077:13
	cmp	r1, r0
	bne	.LBB7_23
.Ltmp514:
@ %bb.18:
	@DEBUG_VALUE: tcp_receive:pcb <- $r4
	@DEBUG_VALUE: tcp_receive:right_wnd_edge <- $r0
	@DEBUG_VALUE: tcp_receive:found_dupack <- 0
	.loc	6 1079 15 is_stmt 1             @ rt-thread/components/net/lwip-2.0.2/src/core/tcp_in.c:1079:15
	cmp	r2, r3
	bne	.LBB7_23
.Ltmp515:
@ %bb.19:
	@DEBUG_VALUE: tcp_receive:pcb <- $r4
	@DEBUG_VALUE: tcp_receive:right_wnd_edge <- $r0
	@DEBUG_VALUE: tcp_receive:found_dupack <- 0
	.loc	6 0 0 is_stmt 0                 @ rt-thread/components/net/lwip-2.0.2/src/core/tcp_in.c:0:0
	ldrsh.w	r0, [r4, #48]
.Ltmp516:
	.loc	6 1079 15                       @ rt-thread/components/net/lwip-2.0.2/src/core/tcp_in.c:1079:15
	cmp	r0, #0
	bmi	.LBB7_23
.Ltmp517:
@ %bb.20:
	@DEBUG_VALUE: tcp_receive:pcb <- $r4
	@DEBUG_VALUE: tcp_receive:found_dupack <- 0
	@DEBUG_VALUE: tcp_receive:found_dupack <- 1
	.loc	6 1083 31 is_stmt 1             @ rt-thread/components/net/lwip-2.0.2/src/core/tcp_in.c:1083:31
	ldrb.w	r0, [r4, #67]
.Ltmp518:
	.loc	6 1083 19 is_stmt 0             @ rt-thread/components/net/lwip-2.0.2/src/core/tcp_in.c:1083:19
	cmp	r0, #255
.Ltmp519:
	.loc	6 1084 17 is_stmt 1             @ rt-thread/components/net/lwip-2.0.2/src/core/tcp_in.c:1084:17
	itt	ne
	addne	r0, #1
	strbne.w	r0, [r4, #67]
.Ltmp520:
	.loc	6 1086 24                       @ rt-thread/components/net/lwip-2.0.2/src/core/tcp_in.c:1086:24
	ldrb.w	r0, [r4, #67]
.Ltmp521:
	.loc	6 1086 19 is_stmt 0             @ rt-thread/components/net/lwip-2.0.2/src/core/tcp_in.c:1086:19
	cmp	r0, #4
	blo.w	.LBB7_125
.Ltmp522:
@ %bb.21:
	@DEBUG_VALUE: tcp_receive:pcb <- $r4
	@DEBUG_VALUE: tcp_receive:found_dupack <- 1
	.loc	6 1089 42 is_stmt 1             @ rt-thread/components/net/lwip-2.0.2/src/core/tcp_in.c:1089:42
	ldrh.w	r1, [r4, #72]
	.loc	6 1089 54 is_stmt 0             @ rt-thread/components/net/lwip-2.0.2/src/core/tcp_in.c:1089:54
	ldrh	r0, [r4, #50]
	.loc	6 1089 47                       @ rt-thread/components/net/lwip-2.0.2/src/core/tcp_in.c:1089:47
	add	r0, r1
	uxth	r2, r0
.Ltmp523:
	.loc	6 1089 21                       @ rt-thread/components/net/lwip-2.0.2/src/core/tcp_in.c:1089:21
	cmp	r2, r1
	bls.w	.LBB7_42
.Ltmp524:
@ %bb.22:
	@DEBUG_VALUE: tcp_receive:pcb <- $r4
	@DEBUG_VALUE: tcp_receive:found_dupack <- 1
	.loc	6 1090 29 is_stmt 1             @ rt-thread/components/net/lwip-2.0.2/src/core/tcp_in.c:1090:29
	strh.w	r0, [r4, #72]
.Ltmp525:
	@DEBUG_VALUE: tcp_receive:found_dupack <- undef
	.loc	6 0 29 is_stmt 0                @ rt-thread/components/net/lwip-2.0.2/src/core/tcp_in.c:0:29
	b	.LBB7_42
.Ltmp526:
.LBB7_23:
	@DEBUG_VALUE: tcp_receive:pcb <- $r4
	@DEBUG_VALUE: tcp_receive:found_dupack <- 0
	movs	r0, #0
.Ltmp527:
	.loc	6 1103 22 is_stmt 1             @ rt-thread/components/net/lwip-2.0.2/src/core/tcp_in.c:1103:22
	strb.w	r0, [r4, #67]
	b	.LBB7_42
.Ltmp528:
.LBB7_24:
	@DEBUG_VALUE: tcp_receive:pcb <- $r4
	@DEBUG_VALUE: tcp_receive:found_dupack <- 0
	.loc	6 1111 16                       @ rt-thread/components/net/lwip-2.0.2/src/core/tcp_in.c:1111:16
	ldrb	r0, [r4, #26]
.Ltmp529:
	.loc	6 1111 11 is_stmt 0             @ rt-thread/components/net/lwip-2.0.2/src/core/tcp_in.c:1111:11
	lsls	r1, r0, #29
	bpl	.LBB7_26
.Ltmp530:
@ %bb.25:
	@DEBUG_VALUE: tcp_receive:pcb <- $r4
	@DEBUG_VALUE: tcp_receive:found_dupack <- 0
	.loc	6 1112 20 is_stmt 1             @ rt-thread/components/net/lwip-2.0.2/src/core/tcp_in.c:1112:20
	and	r0, r0, #251
	strb	r0, [r4, #26]
	.loc	6 1113 26                       @ rt-thread/components/net/lwip-2.0.2/src/core/tcp_in.c:1113:26
	ldrh.w	r0, [r4, #74]
	.loc	6 1113 19 is_stmt 0             @ rt-thread/components/net/lwip-2.0.2/src/core/tcp_in.c:1113:19
	strh.w	r0, [r4, #72]
.Ltmp531:
.LBB7_26:
	@DEBUG_VALUE: tcp_receive:pcb <- $r4
	@DEBUG_VALUE: tcp_receive:found_dupack <- 0
	.loc	6 1120 24 is_stmt 1             @ rt-thread/components/net/lwip-2.0.2/src/core/tcp_in.c:1120:24
	ldrsh.w	r0, [r4, #60]
	movs	r3, #0
.Ltmp532:
	.loc	6 1128 16                       @ rt-thread/components/net/lwip-2.0.2/src/core/tcp_in.c:1128:16
	ldrb	r7, [r4, #20]
.Ltmp533:
	.loc	6 1117 17                       @ rt-thread/components/net/lwip-2.0.2/src/core/tcp_in.c:1117:17
	strh.w	r3, [r4, #66]
	.loc	6 1120 40                       @ rt-thread/components/net/lwip-2.0.2/src/core/tcp_in.c:1120:40
	ldrh	r1, [r4, #62]
	.loc	6 1124 20                       @ rt-thread/components/net/lwip-2.0.2/src/core/tcp_in.c:1124:20
	str	r2, [r4, #68]
	.loc	6 1128 11                       @ rt-thread/components/net/lwip-2.0.2/src/core/tcp_in.c:1128:11
	cmp	r7, #4
	.loc	6 1120 33                       @ rt-thread/components/net/lwip-2.0.2/src/core/tcp_in.c:1120:33
	add.w	r0, r1, r0, lsr #3
	.loc	6 1120 16 is_stmt 0             @ rt-thread/components/net/lwip-2.0.2/src/core/tcp_in.c:1120:16
	strh.w	r0, [r4, #64]
	.loc	6 1128 11 is_stmt 1             @ rt-thread/components/net/lwip-2.0.2/src/core/tcp_in.c:1128:11
	blo	.LBB7_31
.Ltmp534:
@ %bb.27:
	@DEBUG_VALUE: tcp_receive:pcb <- $r4
	@DEBUG_VALUE: tcp_receive:found_dupack <- 0
	.loc	6 1129 18                       @ rt-thread/components/net/lwip-2.0.2/src/core/tcp_in.c:1129:18
	ldrh.w	r0, [r4, #72]
	.loc	6 1129 30 is_stmt 0             @ rt-thread/components/net/lwip-2.0.2/src/core/tcp_in.c:1129:30
	ldrh.w	r1, [r4, #74]
.Ltmp535:
	.loc	6 1129 13                       @ rt-thread/components/net/lwip-2.0.2/src/core/tcp_in.c:1129:13
	cmp	r0, r1
	bhs	.LBB7_29
.Ltmp536:
@ %bb.28:
	@DEBUG_VALUE: tcp_receive:pcb <- $r4
	@DEBUG_VALUE: tcp_receive:found_dupack <- 0
	.loc	6 1130 48 is_stmt 1             @ rt-thread/components/net/lwip-2.0.2/src/core/tcp_in.c:1130:48
	ldrh	r1, [r4, #50]
	.loc	6 1130 41 is_stmt 0             @ rt-thread/components/net/lwip-2.0.2/src/core/tcp_in.c:1130:41
	add	r1, r0
	b	.LBB7_30
.Ltmp537:
.LBB7_29:
	@DEBUG_VALUE: tcp_receive:pcb <- $r4
	@DEBUG_VALUE: tcp_receive:found_dupack <- 0
	.loc	6 1135 54 is_stmt 1             @ rt-thread/components/net/lwip-2.0.2/src/core/tcp_in.c:1135:54
	ldrh	r1, [r4, #50]
	.loc	6 1135 58 is_stmt 0             @ rt-thread/components/net/lwip-2.0.2/src/core/tcp_in.c:1135:58
	muls	r1, r1, r1
	.loc	6 1135 69                       @ rt-thread/components/net/lwip-2.0.2/src/core/tcp_in.c:1135:69
	udiv	r1, r1, r0
	.loc	6 1135 36                       @ rt-thread/components/net/lwip-2.0.2/src/core/tcp_in.c:1135:36
	add	r1, r0
.Ltmp538:
	@DEBUG_VALUE: new_cwnd <- $r1
.LBB7_30:
	@DEBUG_VALUE: tcp_receive:pcb <- $r4
	@DEBUG_VALUE: tcp_receive:found_dupack <- 0
	.loc	6 0 0                           @ rt-thread/components/net/lwip-2.0.2/src/core/tcp_in.c:0:0
	uxth	r2, r1
	cmp	r2, r0
	it	hi
	strhhi.w	r1, [r4, #72]
.Ltmp539:
.LBB7_31:
	@DEBUG_VALUE: tcp_receive:pcb <- $r4
	@DEBUG_VALUE: tcp_receive:found_dupack <- 0
	.loc	6 1151 19 is_stmt 1             @ rt-thread/components/net/lwip-2.0.2/src/core/tcp_in.c:1151:19
	ldr	r0, [r4, #108]
	.loc	6 1151 35 is_stmt 0             @ rt-thread/components/net/lwip-2.0.2/src/core/tcp_in.c:1151:35
	cmp	r0, #0
	beq	.LBB7_41
.Ltmp540:
@ %bb.32:
	@DEBUG_VALUE: tcp_receive:pcb <- $r4
	@DEBUG_VALUE: tcp_receive:found_dupack <- 0
	.loc	6 0 35                          @ rt-thread/components/net/lwip-2.0.2/src/core/tcp_in.c:0:35
	movw	r11, :lower16:.L.str.16
	movw	r9, :lower16:.L.str.1
	movw	r8, :lower16:.L.str.17
	movt	r11, :upper16:.L.str.16
	movt	r9, :upper16:.L.str.1
	movt	r8, :upper16:.L.str.17
	b	.LBB7_34
.Ltmp541:
	.p2align	2
.LBB7_33:                               @   in Loop: Header=BB7_34 Depth=1
	@DEBUG_VALUE: tcp_receive:next <- $r7
	@DEBUG_VALUE: tcp_receive:pcb <- $r4
	@DEBUG_VALUE: tcp_receive:found_dupack <- 0
	.loc	6 1151 19                       @ rt-thread/components/net/lwip-2.0.2/src/core/tcp_in.c:1151:19
	ldr	r0, [r4, #108]
	.loc	6 1151 35                       @ rt-thread/components/net/lwip-2.0.2/src/core/tcp_in.c:1151:35
	cmp	r0, #0
	beq	.LBB7_41
.Ltmp542:
.LBB7_34:                               @ =>This Inner Loop Header: Depth=1
	@DEBUG_VALUE: tcp_receive:pcb <- $r4
	@DEBUG_VALUE: tcp_receive:found_dupack <- 0
	.loc	6 1152 14 is_stmt 1             @ rt-thread/components/net/lwip-2.0.2/src/core/tcp_in.c:1152:14
	ldr	r0, [r0, #12]
	ldr	r0, [r0, #4]
	bl	lwip_htonl
	ldr	r1, [r4, #108]
	mov	r7, r0
	ldr	r2, [r1, #12]
	ldrh	r6, [r1, #8]
	ldrh	r1, [r2, #12]
	mov	r0, r1
	bl	lwip_htons
	ldr	r1, [r5]
	adds	r2, r7, r6
	subs	r1, r2, r1
	lsls	r0, r0, #30
	it	ne
	addne	r1, #1
	.loc	6 1151 7                        @ rt-thread/components/net/lwip-2.0.2/src/core/tcp_in.c:1151:7
	cmp	r1, #0
	bgt	.LBB7_41
.Ltmp543:
@ %bb.35:                               @   in Loop: Header=BB7_34 Depth=1
	@DEBUG_VALUE: tcp_receive:pcb <- $r4
	@DEBUG_VALUE: tcp_receive:found_dupack <- 0
	.loc	6 1159 21                       @ rt-thread/components/net/lwip-2.0.2/src/core/tcp_in.c:1159:21
	ldr	r7, [r4, #108]
.Ltmp544:
	@DEBUG_VALUE: tcp_receive:next <- $r7
	.loc	6 1163 9                        @ rt-thread/components/net/lwip-2.0.2/src/core/tcp_in.c:1163:9
	ldrh.w	r6, [r4, #98]
	ldr	r0, [r7, #4]
.Ltmp545:
	.loc	6 1160 38                       @ rt-thread/components/net/lwip-2.0.2/src/core/tcp_in.c:1160:38
	ldr	r1, [r7]
	.loc	6 1160 22 is_stmt 0             @ rt-thread/components/net/lwip-2.0.2/src/core/tcp_in.c:1160:22
	str	r1, [r4, #108]
.Ltmp546:
	.loc	6 1163 9 is_stmt 1              @ rt-thread/components/net/lwip-2.0.2/src/core/tcp_in.c:1163:9
	bl	pbuf_clen
.Ltmp547:
	.loc	6 1163 9 is_stmt 0              @ rt-thread/components/net/lwip-2.0.2/src/core/tcp_in.c:1163:9
	cmp	r6, r0
	bhs	.LBB7_37
.Ltmp548:
@ %bb.36:                               @   in Loop: Header=BB7_34 Depth=1
	@DEBUG_VALUE: tcp_receive:next <- $r7
	@DEBUG_VALUE: tcp_receive:pcb <- $r4
	@DEBUG_VALUE: tcp_receive:found_dupack <- 0
	.loc	6 1163 9                        @ rt-thread/components/net/lwip-2.0.2/src/core/tcp_in.c:1163:9
	mov	r0, r11
	bl	rt_kprintf
	movw	r1, #1163
	mov	r0, r9
	bl	sys_arch_assert
.Ltmp549:
.LBB7_37:                               @   in Loop: Header=BB7_34 Depth=1
	@DEBUG_VALUE: tcp_receive:next <- $r7
	@DEBUG_VALUE: tcp_receive:pcb <- $r4
	@DEBUG_VALUE: tcp_receive:found_dupack <- 0
	.loc	6 1165 46 is_stmt 1             @ rt-thread/components/net/lwip-2.0.2/src/core/tcp_in.c:1165:46
	ldr	r0, [r7, #4]
	.loc	6 1165 30 is_stmt 0             @ rt-thread/components/net/lwip-2.0.2/src/core/tcp_in.c:1165:30
	bl	pbuf_clen
	.loc	6 1165 27                       @ rt-thread/components/net/lwip-2.0.2/src/core/tcp_in.c:1165:27
	ldrh.w	r1, [r4, #98]
	.loc	6 1166 29 is_stmt 1             @ rt-thread/components/net/lwip-2.0.2/src/core/tcp_in.c:1166:29
	ldrh	r2, [r7, #8]
	.loc	6 1166 20 is_stmt 0             @ rt-thread/components/net/lwip-2.0.2/src/core/tcp_in.c:1166:20
	ldrh.w	r3, [r10]
	.loc	6 1165 27 is_stmt 1             @ rt-thread/components/net/lwip-2.0.2/src/core/tcp_in.c:1165:27
	subs	r0, r1, r0
	strh.w	r0, [r4, #98]
	.loc	6 1166 20                       @ rt-thread/components/net/lwip-2.0.2/src/core/tcp_in.c:1166:20
	adds	r0, r3, r2
	strh.w	r0, [r10]
	.loc	6 1167 9                        @ rt-thread/components/net/lwip-2.0.2/src/core/tcp_in.c:1167:9
	mov	r0, r7
	bl	tcp_seg_free
.Ltmp550:
	.loc	6 1170 18                       @ rt-thread/components/net/lwip-2.0.2/src/core/tcp_in.c:1170:18
	ldrh.w	r0, [r4, #98]
.Ltmp551:
	.loc	6 1170 13 is_stmt 0             @ rt-thread/components/net/lwip-2.0.2/src/core/tcp_in.c:1170:13
	cmp	r0, #0
	beq	.LBB7_33
.Ltmp552:
@ %bb.38:                               @   in Loop: Header=BB7_34 Depth=1
	@DEBUG_VALUE: tcp_receive:next <- $r7
	@DEBUG_VALUE: tcp_receive:pcb <- $r4
	@DEBUG_VALUE: tcp_receive:found_dupack <- 0
	.loc	6 1171 11 is_stmt 1             @ rt-thread/components/net/lwip-2.0.2/src/core/tcp_in.c:1171:11
	ldr	r0, [r4, #108]
	cmp	r0, #0
	bne	.LBB7_33
.Ltmp553:
@ %bb.39:                               @   in Loop: Header=BB7_34 Depth=1
	@DEBUG_VALUE: tcp_receive:next <- $r7
	@DEBUG_VALUE: tcp_receive:pcb <- $r4
	@DEBUG_VALUE: tcp_receive:found_dupack <- 0
	ldr	r0, [r4, #104]
.Ltmp554:
	.loc	6 1171 11 is_stmt 0             @ rt-thread/components/net/lwip-2.0.2/src/core/tcp_in.c:1171:11
	cmp	r0, #0
	bne	.LBB7_33
.Ltmp555:
@ %bb.40:                               @   in Loop: Header=BB7_34 Depth=1
	@DEBUG_VALUE: tcp_receive:next <- $r7
	@DEBUG_VALUE: tcp_receive:pcb <- $r4
	@DEBUG_VALUE: tcp_receive:found_dupack <- 0
	.loc	6 1171 11                       @ rt-thread/components/net/lwip-2.0.2/src/core/tcp_in.c:1171:11
	mov	r0, r8
	bl	rt_kprintf
	movw	r1, #1172
	mov	r0, r9
	bl	sys_arch_assert
	b	.LBB7_33
.Ltmp556:
.LBB7_41:
	@DEBUG_VALUE: tcp_receive:pcb <- $r4
	@DEBUG_VALUE: tcp_receive:found_dupack <- 0
	.loc	6 1178 16 is_stmt 1             @ rt-thread/components/net/lwip-2.0.2/src/core/tcp_in.c:1178:16
	ldr	r0, [r4, #108]
.Ltmp557:
	.loc	6 1178 11 is_stmt 0             @ rt-thread/components/net/lwip-2.0.2/src/core/tcp_in.c:1178:11
	cmp	r0, #0
	mov.w	r0, #0
	it	eq
	moveq.w	r0, #-1
.Ltmp558:
	.loc	6 0 0                           @ rt-thread/components/net/lwip-2.0.2/src/core/tcp_in.c:0:0
	strh	r0, [r4, #48]
	movs	r0, #0
.Ltmp559:
	.loc	6 1184 20 is_stmt 1             @ rt-thread/components/net/lwip-2.0.2/src/core/tcp_in.c:1184:20
	strb	r0, [r4, #27]
.Ltmp560:
.LBB7_42:
	@DEBUG_VALUE: tcp_receive:pcb <- $r4
	.loc	6 1203 17                       @ rt-thread/components/net/lwip-2.0.2/src/core/tcp_in.c:1203:17
	ldr	r0, [r4, #104]
	.loc	6 1203 32 is_stmt 0             @ rt-thread/components/net/lwip-2.0.2/src/core/tcp_in.c:1203:32
	cmp	r0, #0
	beq	.LBB7_55
.Ltmp561:
@ %bb.43:
	@DEBUG_VALUE: tcp_receive:pcb <- $r4
	.loc	6 0 32                          @ rt-thread/components/net/lwip-2.0.2/src/core/tcp_in.c:0:32
	movw	r11, :lower16:.L.str.1
	movt	r11, :upper16:.L.str.1
	b	.LBB7_45
.Ltmp562:
	.p2align	2
.LBB7_44:                               @   in Loop: Header=BB7_45 Depth=1
	@DEBUG_VALUE: tcp_receive:next <- $r7
	@DEBUG_VALUE: tcp_receive:pcb <- $r4
	.loc	6 1203 17                       @ rt-thread/components/net/lwip-2.0.2/src/core/tcp_in.c:1203:17
	ldr	r0, [r4, #104]
	.loc	6 1203 32                       @ rt-thread/components/net/lwip-2.0.2/src/core/tcp_in.c:1203:32
	cmp	r0, #0
	beq	.LBB7_55
.Ltmp563:
.LBB7_45:                               @ =>This Inner Loop Header: Depth=1
	@DEBUG_VALUE: tcp_receive:pcb <- $r4
	.loc	6 1204 12 is_stmt 1             @ rt-thread/components/net/lwip-2.0.2/src/core/tcp_in.c:1204:12
	ldr	r0, [r0, #12]
	ldr.w	r8, [r5]
	ldr	r0, [r0, #4]
	bl	lwip_htonl
	ldr	r1, [r4, #104]
	mov	r7, r0
	ldr	r2, [r1, #12]
	ldrh.w	r9, [r1, #8]
	ldrh	r1, [r2, #12]
	mov	r0, r1
	bl	lwip_htons
	sub.w	r1, r8, r7
	lsls	r0, r0, #30
	sub.w	r1, r1, r9
	it	ne
	subne	r1, #1
	cmp	r1, #0
	bmi	.LBB7_55
.Ltmp564:
@ %bb.46:                               @   in Loop: Header=BB7_45 Depth=1
	@DEBUG_VALUE: tcp_receive:pcb <- $r4
	ldr	r0, [r5]
	ldr	r1, [r4, #76]
	subs	r0, r0, r1
	.loc	6 1203 5                        @ rt-thread/components/net/lwip-2.0.2/src/core/tcp_in.c:1203:5
	cmp	r0, #0
	bgt	.LBB7_55
.Ltmp565:
@ %bb.47:                               @   in Loop: Header=BB7_45 Depth=1
	@DEBUG_VALUE: tcp_receive:pcb <- $r4
	.loc	6 1210 19                       @ rt-thread/components/net/lwip-2.0.2/src/core/tcp_in.c:1210:19
	ldr	r7, [r4, #104]
.Ltmp566:
	@DEBUG_VALUE: tcp_receive:next <- $r7
	.loc	6 1211 34                       @ rt-thread/components/net/lwip-2.0.2/src/core/tcp_in.c:1211:34
	ldr	r0, [r7]
	.loc	6 1211 19 is_stmt 0             @ rt-thread/components/net/lwip-2.0.2/src/core/tcp_in.c:1211:19
	str	r0, [r4, #104]
	.loc	6 1213 11 is_stmt 1             @ rt-thread/components/net/lwip-2.0.2/src/core/tcp_in.c:1213:11
	cbnz	r0, .LBB7_49
.Ltmp567:
@ %bb.48:                               @   in Loop: Header=BB7_45 Depth=1
	@DEBUG_VALUE: tcp_receive:next <- $r7
	@DEBUG_VALUE: tcp_receive:pcb <- $r4
	.loc	6 1214 30                       @ rt-thread/components/net/lwip-2.0.2/src/core/tcp_in.c:1214:30
	movs	r0, #0
	strh.w	r0, [r4, #100]
.Ltmp568:
.LBB7_49:                               @   in Loop: Header=BB7_45 Depth=1
	@DEBUG_VALUE: tcp_receive:next <- $r7
	@DEBUG_VALUE: tcp_receive:pcb <- $r4
	.loc	6 1218 7                        @ rt-thread/components/net/lwip-2.0.2/src/core/tcp_in.c:1218:7
	ldrh.w	r6, [r4, #98]
	ldr	r0, [r7, #4]
	bl	pbuf_clen
.Ltmp569:
	.loc	6 1218 7 is_stmt 0              @ rt-thread/components/net/lwip-2.0.2/src/core/tcp_in.c:1218:7
	cmp	r6, r0
	bhs	.LBB7_51
.Ltmp570:
@ %bb.50:                               @   in Loop: Header=BB7_45 Depth=1
	@DEBUG_VALUE: tcp_receive:next <- $r7
	@DEBUG_VALUE: tcp_receive:pcb <- $r4
	.loc	6 1218 7                        @ rt-thread/components/net/lwip-2.0.2/src/core/tcp_in.c:1218:7
	movw	r0, :lower16:.L.str.16
	movt	r0, :upper16:.L.str.16
	bl	rt_kprintf
	movw	r1, #1218
	mov	r0, r11
	bl	sys_arch_assert
.Ltmp571:
.LBB7_51:                               @   in Loop: Header=BB7_45 Depth=1
	@DEBUG_VALUE: tcp_receive:next <- $r7
	@DEBUG_VALUE: tcp_receive:pcb <- $r4
	.loc	6 1220 44 is_stmt 1             @ rt-thread/components/net/lwip-2.0.2/src/core/tcp_in.c:1220:44
	ldr	r0, [r7, #4]
	.loc	6 1220 28 is_stmt 0             @ rt-thread/components/net/lwip-2.0.2/src/core/tcp_in.c:1220:28
	bl	pbuf_clen
	.loc	6 1220 25                       @ rt-thread/components/net/lwip-2.0.2/src/core/tcp_in.c:1220:25
	ldrh.w	r1, [r4, #98]
	.loc	6 1221 27 is_stmt 1             @ rt-thread/components/net/lwip-2.0.2/src/core/tcp_in.c:1221:27
	ldrh	r2, [r7, #8]
	.loc	6 1221 18 is_stmt 0             @ rt-thread/components/net/lwip-2.0.2/src/core/tcp_in.c:1221:18
	ldrh.w	r3, [r10]
	.loc	6 1220 25 is_stmt 1             @ rt-thread/components/net/lwip-2.0.2/src/core/tcp_in.c:1220:25
	subs	r0, r1, r0
	strh.w	r0, [r4, #98]
	.loc	6 1221 18                       @ rt-thread/components/net/lwip-2.0.2/src/core/tcp_in.c:1221:18
	adds	r0, r3, r2
	strh.w	r0, [r10]
	.loc	6 1222 7                        @ rt-thread/components/net/lwip-2.0.2/src/core/tcp_in.c:1222:7
	mov	r0, r7
	bl	tcp_seg_free
.Ltmp572:
	.loc	6 1224 16                       @ rt-thread/components/net/lwip-2.0.2/src/core/tcp_in.c:1224:16
	ldrh.w	r0, [r4, #98]
.Ltmp573:
	.loc	6 1224 11 is_stmt 0             @ rt-thread/components/net/lwip-2.0.2/src/core/tcp_in.c:1224:11
	cmp	r0, #0
	beq	.LBB7_44
.Ltmp574:
@ %bb.52:                               @   in Loop: Header=BB7_45 Depth=1
	@DEBUG_VALUE: tcp_receive:next <- $r7
	@DEBUG_VALUE: tcp_receive:pcb <- $r4
	.loc	6 1225 9 is_stmt 1              @ rt-thread/components/net/lwip-2.0.2/src/core/tcp_in.c:1225:9
	ldr	r0, [r4, #108]
	cmp	r0, #0
	bne	.LBB7_44
.Ltmp575:
@ %bb.53:                               @   in Loop: Header=BB7_45 Depth=1
	@DEBUG_VALUE: tcp_receive:next <- $r7
	@DEBUG_VALUE: tcp_receive:pcb <- $r4
	ldr	r0, [r4, #104]
.Ltmp576:
	.loc	6 1225 9 is_stmt 0              @ rt-thread/components/net/lwip-2.0.2/src/core/tcp_in.c:1225:9
	cmp	r0, #0
	bne	.LBB7_44
.Ltmp577:
@ %bb.54:                               @   in Loop: Header=BB7_45 Depth=1
	@DEBUG_VALUE: tcp_receive:next <- $r7
	@DEBUG_VALUE: tcp_receive:pcb <- $r4
	.loc	6 1225 9                        @ rt-thread/components/net/lwip-2.0.2/src/core/tcp_in.c:1225:9
	movw	r0, :lower16:.L.str.17
	movt	r0, :upper16:.L.str.17
	bl	rt_kprintf
	movw	r1, #1226
	mov	r0, r11
	bl	sys_arch_assert
	b	.LBB7_44
.Ltmp578:
.LBB7_55:
	@DEBUG_VALUE: tcp_receive:pcb <- $r4
	.loc	6 1229 21 is_stmt 1             @ rt-thread/components/net/lwip-2.0.2/src/core/tcp_in.c:1229:21
	ldrh.w	r1, [r10]
	.loc	6 1229 18 is_stmt 0             @ rt-thread/components/net/lwip-2.0.2/src/core/tcp_in.c:1229:18
	ldrh.w	r2, [r4, #96]
.Ltmp579:
	.loc	6 1238 14 is_stmt 1             @ rt-thread/components/net/lwip-2.0.2/src/core/tcp_in.c:1238:14
	ldr	r0, [r4, #52]
	movw	r6, :lower16:seqno
	movw	r9, :lower16:tcplen
	movt	r6, :upper16:seqno
	movt	r9, :upper16:tcplen
.Ltmp580:
	.loc	6 1229 18                       @ rt-thread/components/net/lwip-2.0.2/src/core/tcp_in.c:1229:18
	add	r1, r2
	strh.w	r1, [r4, #96]
.Ltmp581:
	.loc	6 1238 21                       @ rt-thread/components/net/lwip-2.0.2/src/core/tcp_in.c:1238:21
	cbz	r0, .LBB7_58
.Ltmp582:
@ %bb.56:
	@DEBUG_VALUE: tcp_receive:pcb <- $r4
	.loc	6 1238 24 is_stmt 0             @ rt-thread/components/net/lwip-2.0.2/src/core/tcp_in.c:1238:24
	ldr	r1, [r4, #56]
	ldr	r2, [r5]
	subs	r1, r1, r2
.Ltmp583:
	.loc	6 1238 9                        @ rt-thread/components/net/lwip-2.0.2/src/core/tcp_in.c:1238:9
	cmp.w	r1, #-1
	bgt	.LBB7_58
.Ltmp584:
@ %bb.57:
	@DEBUG_VALUE: tcp_receive:pcb <- $r4
	.loc	6 1247 21 is_stmt 1             @ rt-thread/components/net/lwip-2.0.2/src/core/tcp_in.c:1247:21
	ldrsh.w	r1, [r4, #60]
.Ltmp585:
	@DEBUG_VALUE: tcp_receive:m <- [DW_OP_LLVM_convert 32 7, DW_OP_LLVM_convert 16 7, DW_OP_stack_value] undef
	.loc	6 1241 19                       @ rt-thread/components/net/lwip-2.0.2/src/core/tcp_in.c:1241:19
	movw	r2, :lower16:tcp_ticks
	movt	r2, :upper16:tcp_ticks
	movs	r3, #0
	ldr	r2, [r2]
	sub.w	r7, r3, r1, lsr #3
	.loc	6 1241 29 is_stmt 0             @ rt-thread/components/net/lwip-2.0.2/src/core/tcp_in.c:1241:29
	subs	r0, r2, r0
.Ltmp586:
	@DEBUG_VALUE: tcp_receive:m <- [DW_OP_LLVM_convert 32 7, DW_OP_LLVM_convert 16 7, DW_OP_stack_value] $r0
	.loc	6 1252 16 is_stmt 1             @ rt-thread/components/net/lwip-2.0.2/src/core/tcp_in.c:1252:16
	ldrsh.w	r2, [r4, #62]
	.loc	6 1247 13                       @ rt-thread/components/net/lwip-2.0.2/src/core/tcp_in.c:1247:13
	uxtah	r0, r0, r7
.Ltmp587:
	@DEBUG_VALUE: tcp_receive:m <- [DW_OP_LLVM_convert 32 7, DW_OP_LLVM_convert 16 7, DW_OP_stack_value] $r0
	.loc	6 1249 11                       @ rt-thread/components/net/lwip-2.0.2/src/core/tcp_in.c:1249:11
	lsls	r7, r0, #16
	.loc	6 1248 15                       @ rt-thread/components/net/lwip-2.0.2/src/core/tcp_in.c:1248:15
	add	r1, r0
	.loc	6 1249 11                       @ rt-thread/components/net/lwip-2.0.2/src/core/tcp_in.c:1249:11
	it	mi
	rsbmi	r0, r0, #0
.Ltmp588:
	.loc	6 1248 15                       @ rt-thread/components/net/lwip-2.0.2/src/core/tcp_in.c:1248:15
	sxth	r7, r1
	strh	r1, [r4, #60]
	.loc	6 1259 19                       @ rt-thread/components/net/lwip-2.0.2/src/core/tcp_in.c:1259:19
	str	r3, [r4, #52]
	.loc	6 1252 13                       @ rt-thread/components/net/lwip-2.0.2/src/core/tcp_in.c:1252:13
	sub.w	r0, r0, r2, lsr #2
.Ltmp589:
	@DEBUG_VALUE: tcp_receive:m <- [DW_OP_LLVM_convert 32 7, DW_OP_LLVM_convert 16 7, DW_OP_stack_value] undef
	.loc	6 1253 15                       @ rt-thread/components/net/lwip-2.0.2/src/core/tcp_in.c:1253:15
	add	r0, r2
	strh	r0, [r4, #62]
	.loc	6 1254 33                       @ rt-thread/components/net/lwip-2.0.2/src/core/tcp_in.c:1254:33
	add.w	r0, r0, r7, lsr #3
	.loc	6 1254 16 is_stmt 0             @ rt-thread/components/net/lwip-2.0.2/src/core/tcp_in.c:1254:16
	strh.w	r0, [r4, #64]
.Ltmp590:
.LBB7_58:
	@DEBUG_VALUE: tcp_receive:pcb <- $r4
	.loc	6 1267 8 is_stmt 1              @ rt-thread/components/net/lwip-2.0.2/src/core/tcp_in.c:1267:8
	ldrh.w	r2, [r9]
	.loc	6 1267 20 is_stmt 0             @ rt-thread/components/net/lwip-2.0.2/src/core/tcp_in.c:1267:20
	cbz	r2, .LBB7_64
.Ltmp591:
@ %bb.59:
	@DEBUG_VALUE: tcp_receive:pcb <- $r4
	.loc	6 1267 29                       @ rt-thread/components/net/lwip-2.0.2/src/core/tcp_in.c:1267:29
	ldrb	r0, [r4, #20]
.Ltmp592:
	.loc	6 1267 7                        @ rt-thread/components/net/lwip-2.0.2/src/core/tcp_in.c:1267:7
	cmp	r0, #6
	bhi	.LBB7_64
.Ltmp593:
@ %bb.60:
	@DEBUG_VALUE: tcp_receive:pcb <- $r4
	.loc	6 1298 9 is_stmt 1              @ rt-thread/components/net/lwip-2.0.2/src/core/tcp_in.c:1298:9
	ldr	r0, [r6]
	ldr	r1, [r4, #36]
	mvns	r3, r0
	adds	r3, r3, r1
	bmi	.LBB7_62
.Ltmp594:
@ %bb.61:
	@DEBUG_VALUE: tcp_receive:pcb <- $r4
	add	r2, r0
	subs	r2, r1, r2
	adds	r2, #1
.Ltmp595:
	.loc	6 1298 9 is_stmt 0              @ rt-thread/components/net/lwip-2.0.2/src/core/tcp_in.c:1298:9
	cmp	r2, #0
	ble	.LBB7_68
.Ltmp596:
.LBB7_62:
	@DEBUG_VALUE: tcp_receive:pcb <- $r4
	.loc	6 1349 11 is_stmt 1             @ rt-thread/components/net/lwip-2.0.2/src/core/tcp_in.c:1349:11
	subs	r0, r0, r1
.Ltmp597:
	.loc	6 1349 11 is_stmt 0             @ rt-thread/components/net/lwip-2.0.2/src/core/tcp_in.c:1349:11
	cmp.w	r0, #-1
	bgt.w	.LBB7_84
.Ltmp598:
@ %bb.63:
	@DEBUG_VALUE: tcp_receive:pcb <- $r4
	.loc	6 1354 9 is_stmt 1              @ rt-thread/components/net/lwip-2.0.2/src/core/tcp_in.c:1354:9
	ldrb	r0, [r4, #26]
	orr	r0, r0, #2
	strb	r0, [r4, #26]
	b	.LBB7_84
.Ltmp599:
.LBB7_64:
	@DEBUG_VALUE: tcp_receive:pcb <- $r4
	.loc	6 1683 10                       @ rt-thread/components/net/lwip-2.0.2/src/core/tcp_in.c:1683:10
	ldr	r0, [r6]
	ldr	r1, [r4, #36]
	subs	r0, r0, r1
	bmi	.LBB7_66
.Ltmp600:
@ %bb.65:
	@DEBUG_VALUE: tcp_receive:pcb <- $r4
	ldrh	r1, [r4, #40]
	subs	r0, r0, r1
	adds	r0, #1
.Ltmp601:
	.loc	6 1683 9 is_stmt 0              @ rt-thread/components/net/lwip-2.0.2/src/core/tcp_in.c:1683:9
	cmp	r0, #1
	blt	.LBB7_67
.Ltmp602:
.LBB7_66:
	@DEBUG_VALUE: tcp_receive:pcb <- $r4
	.loc	6 1684 7 is_stmt 1              @ rt-thread/components/net/lwip-2.0.2/src/core/tcp_in.c:1684:7
	ldrb	r0, [r4, #26]
	orr	r0, r0, #2
	strb	r0, [r4, #26]
.Ltmp603:
.LBB7_67:
	@DEBUG_VALUE: tcp_receive:pcb <- $r4
	.loc	6 1687 1                        @ rt-thread/components/net/lwip-2.0.2/src/core/tcp_in.c:1687:1
	add	sp, #4
	pop.w	{r4, r5, r6, r7, r8, r9, r10, r11, pc}
.Ltmp604:
.LBB7_68:
	@DEBUG_VALUE: tcp_receive:pcb <- $r4
	.loc	6 1319 30                       @ rt-thread/components/net/lwip-2.0.2/src/core/tcp_in.c:1319:30
	movw	r8, :lower16:inseg
	.loc	6 1320 26                       @ rt-thread/components/net/lwip-2.0.2/src/core/tcp_in.c:1320:26
	subs	r7, r1, r0
.Ltmp605:
	@DEBUG_VALUE: tcp_receive:off <- $r7
	.loc	6 1319 30                       @ rt-thread/components/net/lwip-2.0.2/src/core/tcp_in.c:1319:30
	movt	r8, :upper16:inseg
	ldr.w	r5, [r8, #4]
.Ltmp606:
	@DEBUG_VALUE: p <- $r5
	.loc	6 1321 7                        @ rt-thread/components/net/lwip-2.0.2/src/core/tcp_in.c:1321:7
	cbnz	r5, .LBB7_70
.Ltmp607:
@ %bb.69:
	@DEBUG_VALUE: tcp_receive:off <- $r7
	@DEBUG_VALUE: p <- $r5
	@DEBUG_VALUE: tcp_receive:pcb <- $r4
	.loc	6 1321 7 is_stmt 0              @ rt-thread/components/net/lwip-2.0.2/src/core/tcp_in.c:1321:7
	adr.w	r0, .LCPI7_1
	bl	rt_kprintf
	movw	r0, :lower16:.L.str.1
	movw	r1, #1321
	movt	r0, :upper16:.L.str.1
	bl	sys_arch_assert
.Ltmp608:
.LBB7_70:
	@DEBUG_VALUE: tcp_receive:off <- $r7
	@DEBUG_VALUE: p <- $r5
	@DEBUG_VALUE: tcp_receive:pcb <- $r4
	.loc	6 0 7                           @ rt-thread/components/net/lwip-2.0.2/src/core/tcp_in.c:0:7
	movw	r0, #32767
.Ltmp609:
	.loc	6 1322 7 is_stmt 1              @ rt-thread/components/net/lwip-2.0.2/src/core/tcp_in.c:1322:7
	cmp	r7, r0
	blt	.LBB7_72
.Ltmp610:
@ %bb.71:
	@DEBUG_VALUE: tcp_receive:off <- $r7
	@DEBUG_VALUE: p <- $r5
	@DEBUG_VALUE: tcp_receive:pcb <- $r4
	.loc	6 1322 7 is_stmt 0              @ rt-thread/components/net/lwip-2.0.2/src/core/tcp_in.c:1322:7
	adr.w	r0, .LCPI7_2
	bl	rt_kprintf
	movw	r0, :lower16:.L.str.1
	movw	r1, #1322
	movt	r0, :upper16:.L.str.1
	bl	sys_arch_assert
.Ltmp611:
.LBB7_72:
	@DEBUG_VALUE: tcp_receive:off <- $r7
	@DEBUG_VALUE: p <- $r5
	@DEBUG_VALUE: tcp_receive:pcb <- $r4
	.loc	6 1323 17 is_stmt 1             @ rt-thread/components/net/lwip-2.0.2/src/core/tcp_in.c:1323:17
	ldr.w	r0, [r8, #4]
	.loc	6 1323 20 is_stmt 0             @ rt-thread/components/net/lwip-2.0.2/src/core/tcp_in.c:1323:20
	ldrh	r1, [r0, #10]
.Ltmp612:
	.loc	6 1323 11                       @ rt-thread/components/net/lwip-2.0.2/src/core/tcp_in.c:1323:11
	cmp	r7, r1
	ble	.LBB7_80
.Ltmp613:
@ %bb.73:
	@DEBUG_VALUE: tcp_receive:off <- $r7
	@DEBUG_VALUE: p <- $r5
	@DEBUG_VALUE: tcp_receive:pcb <- $r4
	.loc	6 1324 9 is_stmt 1              @ rt-thread/components/net/lwip-2.0.2/src/core/tcp_in.c:1324:9
	ldrh	r0, [r0, #8]
.Ltmp614:
	.loc	6 1324 9 is_stmt 0              @ rt-thread/components/net/lwip-2.0.2/src/core/tcp_in.c:1324:9
	cmp	r7, r0
	ble	.LBB7_75
.Ltmp615:
@ %bb.74:
	@DEBUG_VALUE: tcp_receive:off <- $r7
	@DEBUG_VALUE: p <- $r5
	@DEBUG_VALUE: tcp_receive:pcb <- $r4
	.loc	6 1324 9                        @ rt-thread/components/net/lwip-2.0.2/src/core/tcp_in.c:1324:9
	adr.w	r0, .LCPI7_3
	bl	rt_kprintf
	movw	r0, :lower16:.L.str.1
	movw	r1, #1324
	movt	r0, :upper16:.L.str.1
	bl	sys_arch_assert
.Ltmp616:
.LBB7_75:
	@DEBUG_VALUE: tcp_receive:off <- $r7
	@DEBUG_VALUE: p <- $r5
	@DEBUG_VALUE: tcp_receive:pcb <- $r4
	@DEBUG_VALUE: p <- $r5
	@DEBUG_VALUE: tcp_receive:off <- $r7
	@DEBUG_VALUE: tcp_receive:new_tot_len <- undef
	.loc	6 1326 19 is_stmt 1             @ rt-thread/components/net/lwip-2.0.2/src/core/tcp_in.c:1326:19
	ldrh	r0, [r5, #10]
	.loc	6 1326 9 is_stmt 0              @ rt-thread/components/net/lwip-2.0.2/src/core/tcp_in.c:1326:9
	cmp	r7, r0
	ble	.LBB7_78
.Ltmp617:
@ %bb.76:
	@DEBUG_VALUE: tcp_receive:off <- $r7
	@DEBUG_VALUE: p <- $r5
	@DEBUG_VALUE: tcp_receive:pcb <- $r4
	.loc	6 0 9                           @ rt-thread/components/net/lwip-2.0.2/src/core/tcp_in.c:0:9
	ldr.w	r1, [r8, #4]
	movs	r2, #0
	ldrh	r1, [r1, #8]
	subs	r1, r1, r7
.Ltmp618:
	@DEBUG_VALUE: tcp_receive:new_tot_len <- $r1
	.p2align	2
.LBB7_77:                               @ =>This Inner Loop Header: Depth=1
	@DEBUG_VALUE: tcp_receive:off <- $r7
	@DEBUG_VALUE: p <- $r5
	@DEBUG_VALUE: tcp_receive:pcb <- $r4
	@DEBUG_VALUE: tcp_receive:new_tot_len <- $r1
	@DEBUG_VALUE: p <- $r5
	@DEBUG_VALUE: tcp_receive:off <- $r7
	.loc	6 1331 22 is_stmt 1             @ rt-thread/components/net/lwip-2.0.2/src/core/tcp_in.c:1331:22
	strh	r1, [r5, #8]
	.loc	6 1327 15                       @ rt-thread/components/net/lwip-2.0.2/src/core/tcp_in.c:1327:15
	subs	r7, r7, r0
.Ltmp619:
	@DEBUG_VALUE: tcp_receive:off <- $r7
	.loc	6 1332 18                       @ rt-thread/components/net/lwip-2.0.2/src/core/tcp_in.c:1332:18
	strh	r2, [r5, #10]
	.loc	6 1333 18                       @ rt-thread/components/net/lwip-2.0.2/src/core/tcp_in.c:1333:18
	ldr	r5, [r5]
.Ltmp620:
	@DEBUG_VALUE: p <- $r5
	.loc	6 1326 19                       @ rt-thread/components/net/lwip-2.0.2/src/core/tcp_in.c:1326:19
	ldrh	r0, [r5, #10]
	.loc	6 1326 9 is_stmt 0              @ rt-thread/components/net/lwip-2.0.2/src/core/tcp_in.c:1326:9
	cmp	r7, r0
	bgt	.LBB7_77
.Ltmp621:
.LBB7_78:
	@DEBUG_VALUE: tcp_receive:off <- $r7
	@DEBUG_VALUE: p <- $r5
	@DEBUG_VALUE: tcp_receive:pcb <- $r4
	.loc	6 1335 28 is_stmt 1             @ rt-thread/components/net/lwip-2.0.2/src/core/tcp_in.c:1335:28
	rsbs	r0, r7, #0
	.loc	6 1335 13 is_stmt 0             @ rt-thread/components/net/lwip-2.0.2/src/core/tcp_in.c:1335:13
	sxth	r1, r0
	mov	r0, r5
	bl	pbuf_header
.Ltmp622:
	.loc	6 1335 13                       @ rt-thread/components/net/lwip-2.0.2/src/core/tcp_in.c:1335:13
	cbz	r0, .LBB7_83
.Ltmp623:
@ %bb.79:
	@DEBUG_VALUE: tcp_receive:off <- $r7
	@DEBUG_VALUE: p <- $r5
	@DEBUG_VALUE: tcp_receive:pcb <- $r4
	.loc	6 1337 11 is_stmt 1             @ rt-thread/components/net/lwip-2.0.2/src/core/tcp_in.c:1337:11
	movw	r0, :lower16:.L.str.21
	movt	r0, :upper16:.L.str.21
	bl	rt_kprintf
	movw	r0, :lower16:.L.str.1
	movw	r1, #1337
	b	.LBB7_82
.Ltmp624:
.LBB7_80:
	@DEBUG_VALUE: tcp_receive:off <- $r7
	@DEBUG_VALUE: p <- $r5
	@DEBUG_VALUE: tcp_receive:pcb <- $r4
	.loc	6 1340 34                       @ rt-thread/components/net/lwip-2.0.2/src/core/tcp_in.c:1340:34
	rsbs	r1, r7, #0
	.loc	6 1340 13 is_stmt 0             @ rt-thread/components/net/lwip-2.0.2/src/core/tcp_in.c:1340:13
	sxth	r1, r1
	bl	pbuf_header
.Ltmp625:
	.loc	6 1340 13                       @ rt-thread/components/net/lwip-2.0.2/src/core/tcp_in.c:1340:13
	cbz	r0, .LBB7_83
.Ltmp626:
@ %bb.81:
	@DEBUG_VALUE: tcp_receive:off <- $r7
	@DEBUG_VALUE: p <- $r5
	@DEBUG_VALUE: tcp_receive:pcb <- $r4
	.loc	6 1342 11 is_stmt 1             @ rt-thread/components/net/lwip-2.0.2/src/core/tcp_in.c:1342:11
	movw	r0, :lower16:.L.str.21
	movt	r0, :upper16:.L.str.21
	bl	rt_kprintf
	movw	r0, :lower16:.L.str.1
	movw	r1, #1342
.Ltmp627:
.LBB7_82:
	@DEBUG_VALUE: tcp_receive:off <- $r7
	@DEBUG_VALUE: p <- $r5
	@DEBUG_VALUE: tcp_receive:pcb <- $r4
	.loc	6 0 0 is_stmt 0                 @ rt-thread/components/net/lwip-2.0.2/src/core/tcp_in.c:0:0
	movt	r0, :upper16:.L.str.1
	bl	sys_arch_assert
.Ltmp628:
.LBB7_83:
	@DEBUG_VALUE: tcp_receive:off <- $r7
	@DEBUG_VALUE: p <- $r5
	@DEBUG_VALUE: tcp_receive:pcb <- $r4
	.loc	6 1345 33 is_stmt 1             @ rt-thread/components/net/lwip-2.0.2/src/core/tcp_in.c:1345:33
	ldr	r0, [r4, #36]
	.loc	6 1345 43 is_stmt 0             @ rt-thread/components/net/lwip-2.0.2/src/core/tcp_in.c:1345:43
	ldr	r1, [r6]
	.loc	6 1345 17                       @ rt-thread/components/net/lwip-2.0.2/src/core/tcp_in.c:1345:17
	ldrh.w	r2, [r8, #8]
	.loc	6 1345 41                       @ rt-thread/components/net/lwip-2.0.2/src/core/tcp_in.c:1345:41
	subs	r1, r1, r0
	.loc	6 1346 35 is_stmt 1             @ rt-thread/components/net/lwip-2.0.2/src/core/tcp_in.c:1346:35
	str	r0, [r6]
	.loc	6 1345 17                       @ rt-thread/components/net/lwip-2.0.2/src/core/tcp_in.c:1345:17
	add	r1, r2
	strh.w	r1, [r8, #8]
	.loc	6 1346 13                       @ rt-thread/components/net/lwip-2.0.2/src/core/tcp_in.c:1346:13
	ldr.w	r1, [r8, #12]
	.loc	6 1346 27 is_stmt 0             @ rt-thread/components/net/lwip-2.0.2/src/core/tcp_in.c:1346:27
	str	r0, [r1, #4]
.Ltmp629:
.LBB7_84:
	@DEBUG_VALUE: tcp_receive:pcb <- $r4
	.loc	6 1361 9 is_stmt 1              @ rt-thread/components/net/lwip-2.0.2/src/core/tcp_in.c:1361:9
	ldr	r0, [r6]
	ldr	r1, [r4, #36]
	subs	r2, r0, r1
	bmi	.LBB7_86
.Ltmp630:
@ %bb.85:
	@DEBUG_VALUE: tcp_receive:pcb <- $r4
	ldrh	r3, [r4, #40]
	subs	r2, r2, r3
	adds	r2, #1
.Ltmp631:
	.loc	6 1361 9 is_stmt 0              @ rt-thread/components/net/lwip-2.0.2/src/core/tcp_in.c:1361:9
	cmp	r2, #0
	ble	.LBB7_87
.Ltmp632:
.LBB7_86:
	@DEBUG_VALUE: tcp_receive:pcb <- $r4
	.loc	6 1678 7 is_stmt 1              @ rt-thread/components/net/lwip-2.0.2/src/core/tcp_in.c:1678:7
	mov	r0, r4
	bl	tcp_send_empty_ack
.Ltmp633:
	.loc	6 1687 1                        @ rt-thread/components/net/lwip-2.0.2/src/core/tcp_in.c:1687:1
	add	sp, #4
	pop.w	{r4, r5, r6, r7, r8, r9, r10, r11, pc}
.Ltmp634:
.LBB7_87:
	@DEBUG_VALUE: tcp_receive:pcb <- $r4
	.loc	6 1363 11                       @ rt-thread/components/net/lwip-2.0.2/src/core/tcp_in.c:1363:11
	cmp	r0, r1
	bne.w	.LBB7_105
.Ltmp635:
@ %bb.88:
	@DEBUG_VALUE: tcp_receive:pcb <- $r4
	.loc	6 1367 18                       @ rt-thread/components/net/lwip-2.0.2/src/core/tcp_in.c:1367:18
	movw	r8, :lower16:inseg
	movt	r8, :upper16:inseg
	ldr.w	r0, [r8, #12]
	ldrh.w	r5, [r8, #8]
	ldrh	r0, [r0, #12]
	bl	lwip_htons
	lsls	r0, r0, #30
	it	ne
	addne	r5, #1
.Ltmp636:
	.loc	6 1369 27                       @ rt-thread/components/net/lwip-2.0.2/src/core/tcp_in.c:1369:27
	ldrh	r0, [r4, #40]
.Ltmp637:
	.loc	6 1367 18                       @ rt-thread/components/net/lwip-2.0.2/src/core/tcp_in.c:1367:18
	uxth	r1, r5
	.loc	6 1367 16 is_stmt 0             @ rt-thread/components/net/lwip-2.0.2/src/core/tcp_in.c:1367:16
	strh.w	r5, [r9]
	.loc	6 1369 13 is_stmt 1             @ rt-thread/components/net/lwip-2.0.2/src/core/tcp_in.c:1369:13
	cmp	r1, r0
	bls	.LBB7_95
.Ltmp638:
@ %bb.89:
	@DEBUG_VALUE: tcp_receive:pcb <- $r4
	.loc	6 1374 15                       @ rt-thread/components/net/lwip-2.0.2/src/core/tcp_in.c:1374:15
	ldr.w	r0, [r8, #12]
	ldrh	r0, [r0, #12]
	bl	lwip_htons
.Ltmp639:
	.loc	6 1374 15 is_stmt 0             @ rt-thread/components/net/lwip-2.0.2/src/core/tcp_in.c:1374:15
	lsls	r0, r0, #31
	beq	.LBB7_91
.Ltmp640:
@ %bb.90:
	@DEBUG_VALUE: tcp_receive:pcb <- $r4
	.loc	6 1377 13 is_stmt 1             @ rt-thread/components/net/lwip-2.0.2/src/core/tcp_in.c:1377:13
	ldr.w	r0, [r8, #12]
	ldrh	r0, [r0, #12]
	bic	r5, r0, #16128
	bl	lwip_htons
	and	r0, r0, #62
	bl	lwip_htons
	ldr.w	r1, [r8, #12]
	orrs	r0, r5
	strh	r0, [r1, #12]
.Ltmp641:
.LBB7_91:
	@DEBUG_VALUE: tcp_receive:pcb <- $r4
	.loc	6 1382 15                       @ rt-thread/components/net/lwip-2.0.2/src/core/tcp_in.c:1382:15
	ldr.w	r0, [r8, #12]
.Ltmp642:
	.loc	6 1381 35                       @ rt-thread/components/net/lwip-2.0.2/src/core/tcp_in.c:1381:35
	ldrh	r1, [r4, #40]
	.loc	6 1381 21 is_stmt 0             @ rt-thread/components/net/lwip-2.0.2/src/core/tcp_in.c:1381:21
	strh.w	r1, [r8, #8]
.Ltmp643:
	.loc	6 1382 15 is_stmt 1             @ rt-thread/components/net/lwip-2.0.2/src/core/tcp_in.c:1382:15
	ldrh	r0, [r0, #12]
	bl	lwip_htons
.Ltmp644:
	.loc	6 1382 15 is_stmt 0             @ rt-thread/components/net/lwip-2.0.2/src/core/tcp_in.c:1382:15
	lsls	r0, r0, #30
	bpl	.LBB7_93
.Ltmp645:
@ %bb.92:
	@DEBUG_VALUE: tcp_receive:pcb <- $r4
	.loc	6 1383 23 is_stmt 1             @ rt-thread/components/net/lwip-2.0.2/src/core/tcp_in.c:1383:23
	ldrh.w	r0, [r8, #8]
	subs	r0, #1
	strh.w	r0, [r8, #8]
.Ltmp646:
.LBB7_93:
	@DEBUG_VALUE: tcp_receive:pcb <- $r4
	.loc	6 1385 39                       @ rt-thread/components/net/lwip-2.0.2/src/core/tcp_in.c:1385:39
	ldrh.w	r1, [r8, #8]
	.loc	6 1385 30 is_stmt 0             @ rt-thread/components/net/lwip-2.0.2/src/core/tcp_in.c:1385:30
	ldr.w	r0, [r8, #4]
	.loc	6 1385 11                       @ rt-thread/components/net/lwip-2.0.2/src/core/tcp_in.c:1385:11
	bl	pbuf_realloc
	.loc	6 1386 20 is_stmt 1             @ rt-thread/components/net/lwip-2.0.2/src/core/tcp_in.c:1386:20
	ldr.w	r0, [r8, #12]
	ldrh.w	r5, [r8, #8]
	ldrh	r0, [r0, #12]
	bl	lwip_htons
	lsls	r0, r0, #30
	it	ne
	addne	r5, #1
.Ltmp647:
	.loc	6 1387 11                       @ rt-thread/components/net/lwip-2.0.2/src/core/tcp_in.c:1387:11
	ldrh	r0, [r4, #40]
	ldr	r1, [r4, #36]
.Ltmp648:
	.loc	6 1386 18                       @ rt-thread/components/net/lwip-2.0.2/src/core/tcp_in.c:1386:18
	strh.w	r5, [r9]
.Ltmp649:
	.loc	6 1387 11                       @ rt-thread/components/net/lwip-2.0.2/src/core/tcp_in.c:1387:11
	add	r0, r1
	ldr	r1, [r6]
	uxtah	r1, r1, r5
.Ltmp650:
	.loc	6 1387 11 is_stmt 0             @ rt-thread/components/net/lwip-2.0.2/src/core/tcp_in.c:1387:11
	cmp	r1, r0
	beq	.LBB7_95
.Ltmp651:
@ %bb.94:
	@DEBUG_VALUE: tcp_receive:pcb <- $r4
	.loc	6 1387 11                       @ rt-thread/components/net/lwip-2.0.2/src/core/tcp_in.c:1387:11
	movw	r0, :lower16:.L.str.22
	movt	r0, :upper16:.L.str.22
	bl	rt_kprintf
	movw	r0, :lower16:.L.str.1
	movw	r1, #1388
	movt	r0, :upper16:.L.str.1
	bl	sys_arch_assert
.Ltmp652:
.LBB7_95:
	@DEBUG_VALUE: tcp_receive:pcb <- $r4
	.loc	6 1394 18 is_stmt 1             @ rt-thread/components/net/lwip-2.0.2/src/core/tcp_in.c:1394:18
	ldr	r0, [r4, #112]
.Ltmp653:
	.loc	6 1394 13 is_stmt 0             @ rt-thread/components/net/lwip-2.0.2/src/core/tcp_in.c:1394:13
	cmp	r0, #0
	beq.w	.LBB7_137
.Ltmp654:
@ %bb.96:
	@DEBUG_VALUE: tcp_receive:pcb <- $r4
	.loc	6 1395 15 is_stmt 1             @ rt-thread/components/net/lwip-2.0.2/src/core/tcp_in.c:1395:15
	ldr.w	r0, [r8, #12]
	ldrh	r0, [r0, #12]
	bl	lwip_htons
.Ltmp655:
	.loc	6 1395 15 is_stmt 0             @ rt-thread/components/net/lwip-2.0.2/src/core/tcp_in.c:1395:15
	lsls	r0, r0, #31
.Ltmp656:
	.loc	6 0 0                           @ rt-thread/components/net/lwip-2.0.2/src/core/tcp_in.c:0:0
	ldr	r5, [r4, #112]
.Ltmp657:
	.loc	6 1395 15                       @ rt-thread/components/net/lwip-2.0.2/src/core/tcp_in.c:1395:15
	bne	.LBB7_98
.Ltmp658:
@ %bb.97:
	@DEBUG_VALUE: tcp_receive:pcb <- $r4
	@DEBUG_VALUE: tcp_receive:next <- $r5
	.loc	6 1410 25 is_stmt 1             @ rt-thread/components/net/lwip-2.0.2/src/core/tcp_in.c:1410:25
	cbnz	r5, .LBB7_101
	b	.LBB7_135
.Ltmp659:
	.p2align	2
.LBB7_98:                               @ =>This Inner Loop Header: Depth=1
	@DEBUG_VALUE: tcp_receive:pcb <- $r4
	.loc	6 1401 13                       @ rt-thread/components/net/lwip-2.0.2/src/core/tcp_in.c:1401:13
	cmp	r5, #0
	beq.w	.LBB7_137
.Ltmp660:
@ %bb.99:                               @   in Loop: Header=BB7_98 Depth=1
	@DEBUG_VALUE: tcp_receive:pcb <- $r4
	@DEBUG_VALUE: old_ooseq <- $r5
	.loc	6 1403 40                       @ rt-thread/components/net/lwip-2.0.2/src/core/tcp_in.c:1403:40
	ldr	r0, [r5]
	.loc	6 1403 26 is_stmt 0             @ rt-thread/components/net/lwip-2.0.2/src/core/tcp_in.c:1403:26
	str	r0, [r4, #112]
	.loc	6 1404 15 is_stmt 1             @ rt-thread/components/net/lwip-2.0.2/src/core/tcp_in.c:1404:15
	mov	r0, r5
	bl	tcp_seg_free
.Ltmp661:
	.loc	6 1401 25                       @ rt-thread/components/net/lwip-2.0.2/src/core/tcp_in.c:1401:25
	ldr	r5, [r4, #112]
.Ltmp662:
	.loc	6 0 25 is_stmt 0                @ rt-thread/components/net/lwip-2.0.2/src/core/tcp_in.c:0:25
	b	.LBB7_98
.Ltmp663:
.LBB7_100:                              @   in Loop: Header=BB7_101 Depth=1
	@DEBUG_VALUE: tcp_receive:next <- $r5
	@DEBUG_VALUE: tcp_receive:pcb <- $r4
	@DEBUG_VALUE: tcp_receive:prev <- $r5
	.loc	6 1421 15 is_stmt 1             @ rt-thread/components/net/lwip-2.0.2/src/core/tcp_in.c:1421:15
	mov	r0, r5
	.loc	6 1420 28                       @ rt-thread/components/net/lwip-2.0.2/src/core/tcp_in.c:1420:28
	ldr	r7, [r5]
.Ltmp664:
	@DEBUG_VALUE: tcp_receive:next <- $r7
	.loc	6 1421 15                       @ rt-thread/components/net/lwip-2.0.2/src/core/tcp_in.c:1421:15
	bl	tcp_seg_free
.Ltmp665:
	.loc	6 1410 25                       @ rt-thread/components/net/lwip-2.0.2/src/core/tcp_in.c:1410:25
	cmp	r7, #0
	mov	r5, r7
.Ltmp666:
	beq.w	.LBB7_136
.Ltmp667:
.LBB7_101:                              @ =>This Inner Loop Header: Depth=1
	@DEBUG_VALUE: tcp_receive:pcb <- $r4
	@DEBUG_VALUE: tcp_receive:next <- $r5
	.loc	6 1411 20                       @ rt-thread/components/net/lwip-2.0.2/src/core/tcp_in.c:1411:20
	ldrh.w	r2, [r9]
	ldr	r0, [r5, #12]
	ldr	r1, [r6]
	ldrh	r7, [r5, #8]
	adds	r3, r1, r2
	ldr	r2, [r0, #4]
	subs	r3, r3, r2
	subs	r7, r3, r7
	.loc	6 1410 13                       @ rt-thread/components/net/lwip-2.0.2/src/core/tcp_in.c:1410:13
	bmi.w	.LBB7_130
.Ltmp668:
@ %bb.102:                              @   in Loop: Header=BB7_101 Depth=1
	@DEBUG_VALUE: tcp_receive:next <- $r5
	@DEBUG_VALUE: tcp_receive:pcb <- $r4
	.loc	6 1414 20                       @ rt-thread/components/net/lwip-2.0.2/src/core/tcp_in.c:1414:20
	ldrh	r0, [r0, #12]
	bl	lwip_htons
	.loc	6 1414 61 is_stmt 0             @ rt-thread/components/net/lwip-2.0.2/src/core/tcp_in.c:1414:61
	lsls	r0, r0, #31
	beq	.LBB7_100
.Ltmp669:
@ %bb.103:                              @   in Loop: Header=BB7_101 Depth=1
	@DEBUG_VALUE: tcp_receive:next <- $r5
	@DEBUG_VALUE: tcp_receive:pcb <- $r4
	.loc	6 1415 20 is_stmt 1             @ rt-thread/components/net/lwip-2.0.2/src/core/tcp_in.c:1415:20
	ldr.w	r0, [r8, #12]
	ldrh	r0, [r0, #12]
	bl	lwip_htons
.Ltmp670:
	.loc	6 1414 19                       @ rt-thread/components/net/lwip-2.0.2/src/core/tcp_in.c:1414:19
	lsls	r0, r0, #30
	bmi	.LBB7_100
.Ltmp671:
@ %bb.104:                              @   in Loop: Header=BB7_101 Depth=1
	@DEBUG_VALUE: tcp_receive:next <- $r5
	@DEBUG_VALUE: tcp_receive:pcb <- $r4
	.loc	6 1416 17                       @ rt-thread/components/net/lwip-2.0.2/src/core/tcp_in.c:1416:17
	ldr.w	r0, [r8, #12]
	ldrh	r7, [r0, #12]
	movs	r0, #1
	bl	lwip_htons
	ldr.w	r1, [r8, #12]
	orrs	r0, r7
	.loc	6 1417 26                       @ rt-thread/components/net/lwip-2.0.2/src/core/tcp_in.c:1417:26
	ldrh.w	r7, [r8, #8]
	.loc	6 1416 17                       @ rt-thread/components/net/lwip-2.0.2/src/core/tcp_in.c:1416:17
	strh	r0, [r1, #12]
	.loc	6 1417 26                       @ rt-thread/components/net/lwip-2.0.2/src/core/tcp_in.c:1417:26
	uxth	r0, r0
	bl	lwip_htons
	lsls	r0, r0, #30
	it	ne
	addne	r7, #1
	.loc	6 1417 24 is_stmt 0             @ rt-thread/components/net/lwip-2.0.2/src/core/tcp_in.c:1417:24
	strh.w	r7, [r9]
	b	.LBB7_100
.Ltmp672:
.LBB7_105:
	@DEBUG_VALUE: tcp_receive:pcb <- $r4
	.loc	6 1527 9 is_stmt 1              @ rt-thread/components/net/lwip-2.0.2/src/core/tcp_in.c:1527:9
	mov	r0, r4
	bl	tcp_send_empty_ack
.Ltmp673:
	.loc	6 1530 18                       @ rt-thread/components/net/lwip-2.0.2/src/core/tcp_in.c:1530:18
	mov	r8, r4
	ldr	r3, [r8, #112]!
.Ltmp674:
	.loc	6 1530 13 is_stmt 0             @ rt-thread/components/net/lwip-2.0.2/src/core/tcp_in.c:1530:13
	cmp	r3, #0
	beq.w	.LBB7_124
.Ltmp675:
@ %bb.106:
	@DEBUG_VALUE: tcp_receive:pcb <- $r4
	.loc	6 0 13                          @ rt-thread/components/net/lwip-2.0.2/src/core/tcp_in.c:0:13
	ldr	r0, [r6]
	movs	r7, #0
	add.w	r12, r0, #1
.Ltmp676:
.LBB7_107:                              @ =>This Inner Loop Header: Depth=1
	@DEBUG_VALUE: tcp_receive:pcb <- $r4
	@DEBUG_VALUE: tcp_receive:prev <- $r7
	@DEBUG_VALUE: tcp_receive:next <- $r3
	.loc	6 1546 11 is_stmt 1             @ rt-thread/components/net/lwip-2.0.2/src/core/tcp_in.c:1546:11
	cmp	r3, #0
	beq.w	.LBB7_67
.Ltmp677:
@ %bb.108:                              @   in Loop: Header=BB7_107 Depth=1
	@DEBUG_VALUE: tcp_receive:prev <- $r7
	@DEBUG_VALUE: tcp_receive:pcb <- $r4
	@DEBUG_VALUE: tcp_receive:next <- $r3
	.loc	6 1547 32                       @ rt-thread/components/net/lwip-2.0.2/src/core/tcp_in.c:1547:32
	ldr	r2, [r3, #12]
.Ltmp678:
	.loc	6 0 0 is_stmt 0                 @ rt-thread/components/net/lwip-2.0.2/src/core/tcp_in.c:0:0
	mov	r5, r3
.Ltmp679:
	@DEBUG_VALUE: tcp_receive:next <- $r5
	@DEBUG_VALUE: tcp_receive:next <- $r5
	.loc	6 1547 40                       @ rt-thread/components/net/lwip-2.0.2/src/core/tcp_in.c:1547:40
	ldr	r3, [r2, #4]
.Ltmp680:
	.loc	6 1547 17                       @ rt-thread/components/net/lwip-2.0.2/src/core/tcp_in.c:1547:17
	cmp	r0, r3
	beq.w	.LBB7_127
.Ltmp681:
@ %bb.109:                              @   in Loop: Header=BB7_107 Depth=1
	@DEBUG_VALUE: tcp_receive:prev <- $r7
	@DEBUG_VALUE: tcp_receive:next <- $r5
	@DEBUG_VALUE: tcp_receive:pcb <- $r4
	.loc	6 1573 19 is_stmt 1             @ rt-thread/components/net/lwip-2.0.2/src/core/tcp_in.c:1573:19
	cbz	r7, .LBB7_112
.Ltmp682:
@ %bb.110:                              @   in Loop: Header=BB7_107 Depth=1
	@DEBUG_VALUE: tcp_receive:prev <- $r7
	@DEBUG_VALUE: tcp_receive:next <- $r5
	@DEBUG_VALUE: tcp_receive:pcb <- $r4
	.loc	6 1589 21                       @ rt-thread/components/net/lwip-2.0.2/src/core/tcp_in.c:1589:21
	ldr	r1, [r7, #12]
	ldr	r1, [r1, #4]
	mvns	r1, r1
	adds	r1, r1, r0
	bmi	.LBB7_113
.Ltmp683:
@ %bb.111:                              @   in Loop: Header=BB7_107 Depth=1
	@DEBUG_VALUE: tcp_receive:prev <- $r7
	@DEBUG_VALUE: tcp_receive:next <- $r5
	@DEBUG_VALUE: tcp_receive:pcb <- $r4
	sub.w	r1, r12, r3
	cmp	r1, #0
	bgt	.LBB7_113
	b	.LBB7_161
.Ltmp684:
.LBB7_112:                              @   in Loop: Header=BB7_107 Depth=1
	@DEBUG_VALUE: tcp_receive:prev <- $r7
	@DEBUG_VALUE: tcp_receive:next <- $r5
	@DEBUG_VALUE: tcp_receive:pcb <- $r4
	.loc	6 1574 21                       @ rt-thread/components/net/lwip-2.0.2/src/core/tcp_in.c:1574:21
	subs	r7, r0, r3
.Ltmp685:
	.loc	6 1574 21 is_stmt 0             @ rt-thread/components/net/lwip-2.0.2/src/core/tcp_in.c:1574:21
	cmp.w	r7, #-1
	ble.w	.LBB7_165
.Ltmp686:
.LBB7_113:                              @   in Loop: Header=BB7_107 Depth=1
	@DEBUG_VALUE: tcp_receive:next <- $r5
	@DEBUG_VALUE: tcp_receive:pcb <- $r4
	.loc	6 0 21                          @ rt-thread/components/net/lwip-2.0.2/src/core/tcp_in.c:0:21
	subs	r1, r0, r3
.Ltmp687:
	.loc	6 1611 25 is_stmt 1             @ rt-thread/components/net/lwip-2.0.2/src/core/tcp_in.c:1611:25
	ldr	r3, [r5]
	.loc	6 1611 38 is_stmt 0             @ rt-thread/components/net/lwip-2.0.2/src/core/tcp_in.c:1611:38
	cmp	r1, #1
.Ltmp688:
	.loc	6 0 0                           @ rt-thread/components/net/lwip-2.0.2/src/core/tcp_in.c:0:0
	mov	r7, r5
.Ltmp689:
	.loc	6 1611 38                       @ rt-thread/components/net/lwip-2.0.2/src/core/tcp_in.c:1611:38
	blt	.LBB7_107
.Ltmp690:
@ %bb.114:                              @   in Loop: Header=BB7_107 Depth=1
	@DEBUG_VALUE: tcp_receive:next <- $r5
	@DEBUG_VALUE: tcp_receive:pcb <- $r4
	cmp	r3, #0
.Ltmp691:
	.loc	6 0 0                           @ rt-thread/components/net/lwip-2.0.2/src/core/tcp_in.c:0:0
	mov	r7, r5
.Ltmp692:
	.loc	6 1611 38                       @ rt-thread/components/net/lwip-2.0.2/src/core/tcp_in.c:1611:38
	bne	.LBB7_107
.Ltmp693:
@ %bb.115:
	@DEBUG_VALUE: tcp_receive:next <- $r5
	@DEBUG_VALUE: tcp_receive:pcb <- $r4
	.loc	6 1613 21 is_stmt 1             @ rt-thread/components/net/lwip-2.0.2/src/core/tcp_in.c:1613:21
	ldrh	r0, [r2, #12]
	bl	lwip_htons
.Ltmp694:
	.loc	6 1613 21 is_stmt 0             @ rt-thread/components/net/lwip-2.0.2/src/core/tcp_in.c:1613:21
	lsls	r0, r0, #31
	bne.w	.LBB7_67
.Ltmp695:
@ %bb.116:
	@DEBUG_VALUE: tcp_receive:next <- $r5
	@DEBUG_VALUE: tcp_receive:pcb <- $r4
	.loc	6 1617 30 is_stmt 1             @ rt-thread/components/net/lwip-2.0.2/src/core/tcp_in.c:1617:30
	movw	r0, :lower16:inseg
	movt	r0, :upper16:inseg
	bl	tcp_seg_copy
	.loc	6 1618 21                       @ rt-thread/components/net/lwip-2.0.2/src/core/tcp_in.c:1618:21
	cmp	r0, #0
	.loc	6 1617 28                       @ rt-thread/components/net/lwip-2.0.2/src/core/tcp_in.c:1617:28
	str	r0, [r5]
	.loc	6 1618 21                       @ rt-thread/components/net/lwip-2.0.2/src/core/tcp_in.c:1618:21
	beq.w	.LBB7_67
.Ltmp696:
@ %bb.117:
	@DEBUG_VALUE: tcp_receive:next <- $r5
	@DEBUG_VALUE: tcp_receive:pcb <- $r4
	.loc	6 1619 23                       @ rt-thread/components/net/lwip-2.0.2/src/core/tcp_in.c:1619:23
	ldr	r0, [r5, #12]
	ldrh	r1, [r5, #8]
	ldr	r0, [r0, #4]
	adds	r2, r0, r1
	ldr	r1, [r6]
	subs	r2, r2, r1
.Ltmp697:
	.loc	6 1619 23 is_stmt 0             @ rt-thread/components/net/lwip-2.0.2/src/core/tcp_in.c:1619:23
	cmp	r2, #1
	blt	.LBB7_119
.Ltmp698:
@ %bb.118:
	@DEBUG_VALUE: tcp_receive:next <- $r5
	@DEBUG_VALUE: tcp_receive:pcb <- $r4
	.loc	6 1621 47 is_stmt 1             @ rt-thread/components/net/lwip-2.0.2/src/core/tcp_in.c:1621:47
	subs	r1, r1, r0
	.loc	6 1621 31 is_stmt 0             @ rt-thread/components/net/lwip-2.0.2/src/core/tcp_in.c:1621:31
	strh	r1, [r5, #8]
	.loc	6 1622 21 is_stmt 1             @ rt-thread/components/net/lwip-2.0.2/src/core/tcp_in.c:1622:21
	uxth	r1, r1
	.loc	6 1622 40 is_stmt 0             @ rt-thread/components/net/lwip-2.0.2/src/core/tcp_in.c:1622:40
	ldr	r0, [r5, #4]
	.loc	6 1622 21                       @ rt-thread/components/net/lwip-2.0.2/src/core/tcp_in.c:1622:21
	bl	pbuf_realloc
.Ltmp699:
.LBB7_119:
	@DEBUG_VALUE: tcp_receive:next <- $r5
	@DEBUG_VALUE: tcp_receive:pcb <- $r4
	.loc	6 1625 23 is_stmt 1             @ rt-thread/components/net/lwip-2.0.2/src/core/tcp_in.c:1625:23
	ldrh.w	r0, [r9]
	ldr	r1, [r6]
	ldr	r2, [r4, #36]
	ldrh	r3, [r4, #40]
	add	r0, r1
	subs	r0, r0, r2
	subs	r0, r0, r3
.Ltmp700:
	.loc	6 1625 23 is_stmt 0             @ rt-thread/components/net/lwip-2.0.2/src/core/tcp_in.c:1625:23
	cmp	r0, #1
	blt.w	.LBB7_67
.Ltmp701:
@ %bb.120:
	@DEBUG_VALUE: tcp_receive:next <- $r5
	@DEBUG_VALUE: tcp_receive:pcb <- $r4
	.loc	6 1630 25 is_stmt 1             @ rt-thread/components/net/lwip-2.0.2/src/core/tcp_in.c:1630:25
	ldr	r0, [r5]
	ldr	r0, [r0, #12]
	ldrh	r0, [r0, #12]
	bl	lwip_htons
.Ltmp702:
	.loc	6 1630 25 is_stmt 0             @ rt-thread/components/net/lwip-2.0.2/src/core/tcp_in.c:1630:25
	lsls	r0, r0, #31
	beq	.LBB7_122
.Ltmp703:
@ %bb.121:
	@DEBUG_VALUE: tcp_receive:next <- $r5
	@DEBUG_VALUE: tcp_receive:pcb <- $r4
	.loc	6 1633 23 is_stmt 1             @ rt-thread/components/net/lwip-2.0.2/src/core/tcp_in.c:1633:23
	ldr	r0, [r5]
	ldr	r0, [r0, #12]
	ldrh	r0, [r0, #12]
	bic	r7, r0, #16128
	bl	lwip_htons
	and	r0, r0, #62
	bl	lwip_htons
	ldr	r1, [r5]
	orrs	r0, r7
	ldr	r1, [r1, #12]
	strh	r0, [r1, #12]
.Ltmp704:
.LBB7_122:
	@DEBUG_VALUE: tcp_receive:next <- $r5
	@DEBUG_VALUE: tcp_receive:pcb <- $r4
	.loc	6 1636 67                       @ rt-thread/components/net/lwip-2.0.2/src/core/tcp_in.c:1636:67
	ldrh	r0, [r4, #40]
	.loc	6 1636 52 is_stmt 0             @ rt-thread/components/net/lwip-2.0.2/src/core/tcp_in.c:1636:52
	ldr	r1, [r4, #36]
	.loc	6 1636 27                       @ rt-thread/components/net/lwip-2.0.2/src/core/tcp_in.c:1636:27
	ldr	r2, [r5]
	.loc	6 1636 60                       @ rt-thread/components/net/lwip-2.0.2/src/core/tcp_in.c:1636:60
	add	r0, r1
	.loc	6 1636 77                       @ rt-thread/components/net/lwip-2.0.2/src/core/tcp_in.c:1636:77
	ldr	r1, [r6]
	.loc	6 1636 75                       @ rt-thread/components/net/lwip-2.0.2/src/core/tcp_in.c:1636:75
	subs	r1, r0, r1
	.loc	6 1636 37                       @ rt-thread/components/net/lwip-2.0.2/src/core/tcp_in.c:1636:37
	strh	r1, [r2, #8]
	.loc	6 1637 21 is_stmt 1             @ rt-thread/components/net/lwip-2.0.2/src/core/tcp_in.c:1637:21
	uxth	r1, r1
	.loc	6 1637 46 is_stmt 0             @ rt-thread/components/net/lwip-2.0.2/src/core/tcp_in.c:1637:46
	ldr	r0, [r2, #4]
	.loc	6 1637 21                       @ rt-thread/components/net/lwip-2.0.2/src/core/tcp_in.c:1637:21
	bl	pbuf_realloc
	.loc	6 1638 30 is_stmt 1             @ rt-thread/components/net/lwip-2.0.2/src/core/tcp_in.c:1638:30
	ldr	r0, [r5]
	ldr	r1, [r0, #12]
	ldrh	r5, [r0, #8]
.Ltmp705:
	ldrh	r0, [r1, #12]
	bl	lwip_htons
	lsls	r0, r0, #30
	it	ne
	addne	r5, #1
.Ltmp706:
	.loc	6 1639 21                       @ rt-thread/components/net/lwip-2.0.2/src/core/tcp_in.c:1639:21
	ldrh	r0, [r4, #40]
	ldr	r1, [r4, #36]
.Ltmp707:
	.loc	6 1638 28                       @ rt-thread/components/net/lwip-2.0.2/src/core/tcp_in.c:1638:28
	strh.w	r5, [r9]
.Ltmp708:
	.loc	6 1639 21                       @ rt-thread/components/net/lwip-2.0.2/src/core/tcp_in.c:1639:21
	add	r0, r1
	ldr	r1, [r6]
	uxtah	r1, r1, r5
.Ltmp709:
	.loc	6 1639 21 is_stmt 0             @ rt-thread/components/net/lwip-2.0.2/src/core/tcp_in.c:1639:21
	cmp	r1, r0
	beq.w	.LBB7_67
.Ltmp710:
@ %bb.123:
	@DEBUG_VALUE: tcp_receive:pcb <- $r4
	.loc	6 1639 21                       @ rt-thread/components/net/lwip-2.0.2/src/core/tcp_in.c:1639:21
	movw	r0, :lower16:.L.str.22
	movt	r0, :upper16:.L.str.22
	bl	rt_kprintf
	movw	r0, :lower16:.L.str.1
	mov.w	r1, #1640
	movt	r0, :upper16:.L.str.1
	bl	sys_arch_assert
.Ltmp711:
	.loc	6 1687 1 is_stmt 1              @ rt-thread/components/net/lwip-2.0.2/src/core/tcp_in.c:1687:1
	add	sp, #4
	pop.w	{r4, r5, r6, r7, r8, r9, r10, r11, pc}
.Ltmp712:
.LBB7_124:
	@DEBUG_VALUE: tcp_receive:pcb <- $r4
	.loc	6 1531 24                       @ rt-thread/components/net/lwip-2.0.2/src/core/tcp_in.c:1531:24
	movw	r0, :lower16:inseg
	movt	r0, :upper16:inseg
	bl	tcp_seg_copy
	.loc	6 1531 22 is_stmt 0             @ rt-thread/components/net/lwip-2.0.2/src/core/tcp_in.c:1531:22
	str.w	r0, [r8]
.Ltmp713:
	.loc	6 1687 1 is_stmt 1              @ rt-thread/components/net/lwip-2.0.2/src/core/tcp_in.c:1687:1
	add	sp, #4
	pop.w	{r4, r5, r6, r7, r8, r9, r10, r11, pc}
.Ltmp714:
.LBB7_125:
	@DEBUG_VALUE: tcp_receive:pcb <- $r4
	@DEBUG_VALUE: tcp_receive:found_dupack <- 1
	.loc	6 1092 26                       @ rt-thread/components/net/lwip-2.0.2/src/core/tcp_in.c:1092:26
	cmp	r0, #3
	bne.w	.LBB7_42
.Ltmp715:
@ %bb.126:
	@DEBUG_VALUE: tcp_receive:pcb <- $r4
	@DEBUG_VALUE: tcp_receive:found_dupack <- 1
	.loc	6 1094 17                       @ rt-thread/components/net/lwip-2.0.2/src/core/tcp_in.c:1094:17
	mov	r0, r4
	bl	tcp_rexmit_fast
.Ltmp716:
	@DEBUG_VALUE: tcp_receive:found_dupack <- undef
	.loc	6 0 17 is_stmt 0                @ rt-thread/components/net/lwip-2.0.2/src/core/tcp_in.c:0:17
	b	.LBB7_42
.Ltmp717:
.LBB7_127:
	@DEBUG_VALUE: tcp_receive:prev <- $r7
	@DEBUG_VALUE: tcp_receive:next <- $r5
	@DEBUG_VALUE: tcp_receive:pcb <- $r4
	.loc	6 1552 25 is_stmt 1             @ rt-thread/components/net/lwip-2.0.2/src/core/tcp_in.c:1552:25
	movw	r0, :lower16:inseg
	.loc	6 1552 37 is_stmt 0             @ rt-thread/components/net/lwip-2.0.2/src/core/tcp_in.c:1552:37
	ldrh	r1, [r5, #8]
	.loc	6 1552 25                       @ rt-thread/components/net/lwip-2.0.2/src/core/tcp_in.c:1552:25
	movt	r0, :upper16:inseg
	ldrh	r0, [r0, #8]
.Ltmp718:
	.loc	6 1552 19                       @ rt-thread/components/net/lwip-2.0.2/src/core/tcp_in.c:1552:19
	cmp	r0, r1
	bls.w	.LBB7_67
.Ltmp719:
@ %bb.128:
	@DEBUG_VALUE: tcp_receive:prev <- $r7
	@DEBUG_VALUE: tcp_receive:next <- $r5
	@DEBUG_VALUE: tcp_receive:pcb <- $r4
	.loc	6 1556 24 is_stmt 1             @ rt-thread/components/net/lwip-2.0.2/src/core/tcp_in.c:1556:24
	movw	r0, :lower16:inseg
	movt	r0, :upper16:inseg
	bl	tcp_seg_copy
.Ltmp720:
	@DEBUG_VALUE: tcp_receive:cseg <- $r0
	.loc	6 1557 21                       @ rt-thread/components/net/lwip-2.0.2/src/core/tcp_in.c:1557:21
	cmp	r0, #0
	beq.w	.LBB7_67
.Ltmp721:
@ %bb.129:
	@DEBUG_VALUE: tcp_receive:prev <- $r7
	@DEBUG_VALUE: tcp_receive:next <- $r5
	@DEBUG_VALUE: tcp_receive:pcb <- $r4
	@DEBUG_VALUE: tcp_receive:cseg <- $r0
	.loc	6 1558 23                       @ rt-thread/components/net/lwip-2.0.2/src/core/tcp_in.c:1558:23
	cmp	r7, #0
	it	ne
	movne	r8, r7
.Ltmp722:
	@DEBUG_VALUE: tcp_receive:prev <- $r8
	.loc	6 0 23 is_stmt 0                @ rt-thread/components/net/lwip-2.0.2/src/core/tcp_in.c:0:23
	b	.LBB7_166
.Ltmp723:
.LBB7_130:
	@DEBUG_VALUE: tcp_receive:next <- $r5
	@DEBUG_VALUE: tcp_receive:pcb <- $r4
	.loc	6 1425 17 is_stmt 1             @ rt-thread/components/net/lwip-2.0.2/src/core/tcp_in.c:1425:17
	cmp	r3, #1
	blt	.LBB7_135
.Ltmp724:
@ %bb.131:
	@DEBUG_VALUE: tcp_receive:next <- $r5
	@DEBUG_VALUE: tcp_receive:pcb <- $r4
	.loc	6 1430 19                       @ rt-thread/components/net/lwip-2.0.2/src/core/tcp_in.c:1430:19
	ldr.w	r0, [r8, #12]
.Ltmp725:
	.loc	6 1429 55                       @ rt-thread/components/net/lwip-2.0.2/src/core/tcp_in.c:1429:55
	subs	r1, r2, r1
	.loc	6 1429 25 is_stmt 0             @ rt-thread/components/net/lwip-2.0.2/src/core/tcp_in.c:1429:25
	strh.w	r1, [r8, #8]
.Ltmp726:
	.loc	6 1430 19 is_stmt 1             @ rt-thread/components/net/lwip-2.0.2/src/core/tcp_in.c:1430:19
	ldrh	r0, [r0, #12]
	bl	lwip_htons
.Ltmp727:
	.loc	6 1430 19 is_stmt 0             @ rt-thread/components/net/lwip-2.0.2/src/core/tcp_in.c:1430:19
	lsls	r0, r0, #30
	bpl	.LBB7_133
.Ltmp728:
@ %bb.132:
	@DEBUG_VALUE: tcp_receive:next <- $r5
	@DEBUG_VALUE: tcp_receive:pcb <- $r4
	.loc	6 1431 27 is_stmt 1             @ rt-thread/components/net/lwip-2.0.2/src/core/tcp_in.c:1431:27
	ldrh.w	r0, [r8, #8]
	subs	r0, #1
	strh.w	r0, [r8, #8]
.Ltmp729:
.LBB7_133:
	@DEBUG_VALUE: tcp_receive:next <- $r5
	@DEBUG_VALUE: tcp_receive:pcb <- $r4
	.loc	6 1433 43                       @ rt-thread/components/net/lwip-2.0.2/src/core/tcp_in.c:1433:43
	ldrh.w	r1, [r8, #8]
	.loc	6 1433 34 is_stmt 0             @ rt-thread/components/net/lwip-2.0.2/src/core/tcp_in.c:1433:34
	ldr.w	r0, [r8, #4]
	.loc	6 1433 15                       @ rt-thread/components/net/lwip-2.0.2/src/core/tcp_in.c:1433:15
	bl	pbuf_realloc
	.loc	6 1434 24 is_stmt 1             @ rt-thread/components/net/lwip-2.0.2/src/core/tcp_in.c:1434:24
	ldr.w	r0, [r8, #12]
	ldrh.w	r7, [r8, #8]
	ldrh	r0, [r0, #12]
	bl	lwip_htons
	lsls	r0, r0, #30
	it	ne
	addne	r7, #1
.Ltmp730:
	.loc	6 1435 15                       @ rt-thread/components/net/lwip-2.0.2/src/core/tcp_in.c:1435:15
	ldr	r0, [r5, #12]
	ldr	r1, [r6]
	uxtah	r1, r1, r7
.Ltmp731:
	.loc	6 1434 22                       @ rt-thread/components/net/lwip-2.0.2/src/core/tcp_in.c:1434:22
	strh.w	r7, [r9]
.Ltmp732:
	.loc	6 1435 15                       @ rt-thread/components/net/lwip-2.0.2/src/core/tcp_in.c:1435:15
	ldr	r0, [r0, #4]
.Ltmp733:
	.loc	6 1435 15 is_stmt 0             @ rt-thread/components/net/lwip-2.0.2/src/core/tcp_in.c:1435:15
	cmp	r1, r0
	beq	.LBB7_135
.Ltmp734:
@ %bb.134:
	@DEBUG_VALUE: tcp_receive:next <- $r5
	@DEBUG_VALUE: tcp_receive:pcb <- $r4
	.loc	6 1435 15                       @ rt-thread/components/net/lwip-2.0.2/src/core/tcp_in.c:1435:15
	adr	r0, .LCPI7_4
	bl	rt_kprintf
	movw	r0, :lower16:.L.str.1
	movw	r1, #1436
	movt	r0, :upper16:.L.str.1
	bl	sys_arch_assert
.Ltmp735:
.LBB7_135:
	@DEBUG_VALUE: tcp_receive:next <- $r5
	@DEBUG_VALUE: tcp_receive:pcb <- $r4
	.loc	6 0 15                          @ rt-thread/components/net/lwip-2.0.2/src/core/tcp_in.c:0:15
	mov	r7, r5
.Ltmp736:
	@DEBUG_VALUE: tcp_receive:next <- $r7
.LBB7_136:
	@DEBUG_VALUE: tcp_receive:next <- $r7
	@DEBUG_VALUE: tcp_receive:pcb <- $r4
	.loc	6 1438 24 is_stmt 1             @ rt-thread/components/net/lwip-2.0.2/src/core/tcp_in.c:1438:24
	str	r7, [r4, #112]
.Ltmp737:
.LBB7_137:
	@DEBUG_VALUE: tcp_receive:pcb <- $r4
	.loc	6 1443 32                       @ rt-thread/components/net/lwip-2.0.2/src/core/tcp_in.c:1443:32
	ldrh.w	r0, [r9]
.Ltmp738:
	.loc	6 1446 9                        @ rt-thread/components/net/lwip-2.0.2/src/core/tcp_in.c:1446:9
	ldrh	r1, [r4, #40]
.Ltmp739:
	.loc	6 1443 24                       @ rt-thread/components/net/lwip-2.0.2/src/core/tcp_in.c:1443:24
	ldr	r2, [r6]
.Ltmp740:
	.loc	6 1446 9                        @ rt-thread/components/net/lwip-2.0.2/src/core/tcp_in.c:1446:9
	cmp	r1, r0
.Ltmp741:
	.loc	6 1443 30                       @ rt-thread/components/net/lwip-2.0.2/src/core/tcp_in.c:1443:30
	add	r0, r2
	.loc	6 1443 22 is_stmt 0             @ rt-thread/components/net/lwip-2.0.2/src/core/tcp_in.c:1443:22
	str	r0, [r4, #36]
.Ltmp742:
	.loc	6 1446 9 is_stmt 1              @ rt-thread/components/net/lwip-2.0.2/src/core/tcp_in.c:1446:9
	bhs	.LBB7_139
.Ltmp743:
@ %bb.138:
	@DEBUG_VALUE: tcp_receive:pcb <- $r4
	.loc	6 1446 9 is_stmt 0              @ rt-thread/components/net/lwip-2.0.2/src/core/tcp_in.c:1446:9
	movw	r0, :lower16:.L.str.24
	movt	r0, :upper16:.L.str.24
	bl	rt_kprintf
	movw	r0, :lower16:.L.str.1
	movw	r1, #1446
	movt	r0, :upper16:.L.str.1
	bl	sys_arch_assert
.Ltmp744:
.LBB7_139:
	@DEBUG_VALUE: tcp_receive:pcb <- $r4
	.loc	6 1447 25 is_stmt 1             @ rt-thread/components/net/lwip-2.0.2/src/core/tcp_in.c:1447:25
	ldrh.w	r0, [r9]
	.loc	6 1447 22 is_stmt 0             @ rt-thread/components/net/lwip-2.0.2/src/core/tcp_in.c:1447:22
	ldrh	r1, [r4, #40]
	subs	r0, r1, r0
	strh	r0, [r4, #40]
	.loc	6 1449 9 is_stmt 1              @ rt-thread/components/net/lwip-2.0.2/src/core/tcp_in.c:1449:9
	mov	r0, r4
	bl	tcp_update_rcv_ann_wnd
.Ltmp745:
	.loc	6 1460 19                       @ rt-thread/components/net/lwip-2.0.2/src/core/tcp_in.c:1460:19
	ldr.w	r0, [r8, #4]
	movw	r9, :lower16:recv_data
	movt	r9, :upper16:recv_data
	.loc	6 1460 22 is_stmt 0             @ rt-thread/components/net/lwip-2.0.2/src/core/tcp_in.c:1460:22
	ldrh	r1, [r0, #8]
.Ltmp746:
	.loc	6 1460 13                       @ rt-thread/components/net/lwip-2.0.2/src/core/tcp_in.c:1460:13
	cbz	r1, .LBB7_141
.Ltmp747:
@ %bb.140:
	@DEBUG_VALUE: tcp_receive:pcb <- $r4
	.loc	6 1461 21 is_stmt 1             @ rt-thread/components/net/lwip-2.0.2/src/core/tcp_in.c:1461:21
	str.w	r0, [r9]
	movs	r0, #0
	.loc	6 1465 19                       @ rt-thread/components/net/lwip-2.0.2/src/core/tcp_in.c:1465:19
	str.w	r0, [r8, #4]
.Ltmp748:
.LBB7_141:
	@DEBUG_VALUE: tcp_receive:pcb <- $r4
	.loc	6 1467 13                       @ rt-thread/components/net/lwip-2.0.2/src/core/tcp_in.c:1467:13
	ldr.w	r0, [r8, #12]
	ldrh	r0, [r0, #12]
	bl	lwip_htons
	movw	r10, :lower16:recv_flags
.Ltmp749:
	.loc	6 1467 13 is_stmt 0             @ rt-thread/components/net/lwip-2.0.2/src/core/tcp_in.c:1467:13
	lsls	r0, r0, #31
	movt	r10, :upper16:recv_flags
	beq	.LBB7_143
.Ltmp750:
@ %bb.142:
	@DEBUG_VALUE: tcp_receive:pcb <- $r4
	.loc	6 1469 22 is_stmt 1             @ rt-thread/components/net/lwip-2.0.2/src/core/tcp_in.c:1469:22
	ldrb.w	r0, [r10]
	orr	r0, r0, #32
	strb.w	r0, [r10]
.Ltmp751:
.LBB7_143:
	@DEBUG_VALUE: tcp_receive:pcb <- $r4
	.loc	6 1475 21                       @ rt-thread/components/net/lwip-2.0.2/src/core/tcp_in.c:1475:21
	ldr	r5, [r4, #112]
	.loc	6 1475 35 is_stmt 0             @ rt-thread/components/net/lwip-2.0.2/src/core/tcp_in.c:1475:35
	cmp	r5, #0
	beq	.LBB7_157
.Ltmp752:
@ %bb.144:
	@DEBUG_VALUE: tcp_receive:pcb <- $r4
	.loc	6 0 35                          @ rt-thread/components/net/lwip-2.0.2/src/core/tcp_in.c:0:35
	mov.w	r11, #0
	b	.LBB7_146
.Ltmp753:
	.p2align	2
.LBB7_145:                              @   in Loop: Header=BB7_146 Depth=1
	@DEBUG_VALUE: tcp_receive:cseg <- $r5
	@DEBUG_VALUE: tcp_receive:pcb <- $r4
	.loc	6 1509 30 is_stmt 1             @ rt-thread/components/net/lwip-2.0.2/src/core/tcp_in.c:1509:30
	ldr	r0, [r5]
	.loc	6 1509 22 is_stmt 0             @ rt-thread/components/net/lwip-2.0.2/src/core/tcp_in.c:1509:22
	str	r0, [r4, #112]
	.loc	6 1510 11 is_stmt 1             @ rt-thread/components/net/lwip-2.0.2/src/core/tcp_in.c:1510:11
	mov	r0, r5
	bl	tcp_seg_free
.Ltmp754:
	.loc	6 1475 21                       @ rt-thread/components/net/lwip-2.0.2/src/core/tcp_in.c:1475:21
	ldr	r5, [r4, #112]
.Ltmp755:
	.loc	6 1475 35 is_stmt 0             @ rt-thread/components/net/lwip-2.0.2/src/core/tcp_in.c:1475:35
	cmp	r5, #0
	beq	.LBB7_157
.Ltmp756:
.LBB7_146:                              @ =>This Inner Loop Header: Depth=1
	@DEBUG_VALUE: tcp_receive:pcb <- $r4
	.loc	6 1476 28 is_stmt 1             @ rt-thread/components/net/lwip-2.0.2/src/core/tcp_in.c:1476:28
	ldr	r0, [r5, #12]
	.loc	6 1476 50 is_stmt 0             @ rt-thread/components/net/lwip-2.0.2/src/core/tcp_in.c:1476:50
	ldr	r2, [r4, #36]
	.loc	6 1476 36                       @ rt-thread/components/net/lwip-2.0.2/src/core/tcp_in.c:1476:36
	ldr	r1, [r0, #4]
	.loc	6 1475 9 is_stmt 1              @ rt-thread/components/net/lwip-2.0.2/src/core/tcp_in.c:1475:9
	cmp	r1, r2
	bne	.LBB7_157
.Ltmp757:
@ %bb.147:                              @   in Loop: Header=BB7_146 Depth=1
	@DEBUG_VALUE: tcp_receive:pcb <- $r4
	@DEBUG_VALUE: tcp_receive:cseg <- $r5
	.loc	6 1481 27                       @ rt-thread/components/net/lwip-2.0.2/src/core/tcp_in.c:1481:27
	ldrh	r0, [r0, #12]
	ldrh	r7, [r5, #8]
	.loc	6 1479 17                       @ rt-thread/components/net/lwip-2.0.2/src/core/tcp_in.c:1479:17
	str	r1, [r6]
	.loc	6 1481 27                       @ rt-thread/components/net/lwip-2.0.2/src/core/tcp_in.c:1481:27
	bl	lwip_htons
	.loc	6 1481 24 is_stmt 0             @ rt-thread/components/net/lwip-2.0.2/src/core/tcp_in.c:1481:24
	ldr	r1, [r4, #36]
	lsls	r0, r0, #30
.Ltmp758:
	.loc	6 1482 11 is_stmt 1             @ rt-thread/components/net/lwip-2.0.2/src/core/tcp_in.c:1482:11
	ldr	r0, [r5, #12]
.Ltmp759:
	.loc	6 1481 27                       @ rt-thread/components/net/lwip-2.0.2/src/core/tcp_in.c:1481:27
	add	r1, r7
	.loc	6 1481 24 is_stmt 0             @ rt-thread/components/net/lwip-2.0.2/src/core/tcp_in.c:1481:24
	it	ne
	addne	r1, #1
.Ltmp760:
	.loc	6 1482 11 is_stmt 1             @ rt-thread/components/net/lwip-2.0.2/src/core/tcp_in.c:1482:11
	ldrh	r0, [r0, #12]
	ldrh	r7, [r4, #40]
	ldrh.w	r8, [r5, #8]
.Ltmp761:
	.loc	6 1481 24                       @ rt-thread/components/net/lwip-2.0.2/src/core/tcp_in.c:1481:24
	str	r1, [r4, #36]
.Ltmp762:
	.loc	6 1482 11                       @ rt-thread/components/net/lwip-2.0.2/src/core/tcp_in.c:1482:11
	bl	lwip_htons
	lsls	r0, r0, #30
	it	ne
	addne.w	r8, r8, #1
.Ltmp763:
	.loc	6 1482 11 is_stmt 0             @ rt-thread/components/net/lwip-2.0.2/src/core/tcp_in.c:1482:11
	cmp	r8, r7
	bls	.LBB7_149
.Ltmp764:
@ %bb.148:                              @   in Loop: Header=BB7_146 Depth=1
	@DEBUG_VALUE: tcp_receive:cseg <- $r5
	@DEBUG_VALUE: tcp_receive:pcb <- $r4
	.loc	6 1482 11                       @ rt-thread/components/net/lwip-2.0.2/src/core/tcp_in.c:1482:11
	movw	r0, :lower16:.L.str.25
	movt	r0, :upper16:.L.str.25
	bl	rt_kprintf
	movw	r0, :lower16:.L.str.1
	movw	r1, #1483
	movt	r0, :upper16:.L.str.1
	bl	sys_arch_assert
.Ltmp765:
.LBB7_149:                              @   in Loop: Header=BB7_146 Depth=1
	@DEBUG_VALUE: tcp_receive:cseg <- $r5
	@DEBUG_VALUE: tcp_receive:pcb <- $r4
	.loc	6 1484 27 is_stmt 1             @ rt-thread/components/net/lwip-2.0.2/src/core/tcp_in.c:1484:27
	ldr	r0, [r5, #12]
	ldrh	r7, [r5, #8]
	ldrh	r0, [r0, #12]
	bl	lwip_htons
	.loc	6 1484 24 is_stmt 0             @ rt-thread/components/net/lwip-2.0.2/src/core/tcp_in.c:1484:24
	ldrh	r1, [r4, #40]
	lsls	r0, r0, #30
	.loc	6 1486 11 is_stmt 1             @ rt-thread/components/net/lwip-2.0.2/src/core/tcp_in.c:1486:11
	mov	r0, r4
	.loc	6 1484 27                       @ rt-thread/components/net/lwip-2.0.2/src/core/tcp_in.c:1484:27
	sub.w	r1, r1, r7
	.loc	6 1484 24 is_stmt 0             @ rt-thread/components/net/lwip-2.0.2/src/core/tcp_in.c:1484:24
	it	ne
	subne	r1, #1
	strh	r1, [r4, #40]
	.loc	6 1486 11 is_stmt 1             @ rt-thread/components/net/lwip-2.0.2/src/core/tcp_in.c:1486:11
	bl	tcp_update_rcv_ann_wnd
.Ltmp766:
	.loc	6 1488 21                       @ rt-thread/components/net/lwip-2.0.2/src/core/tcp_in.c:1488:21
	ldr	r1, [r5, #4]
	.loc	6 1488 24 is_stmt 0             @ rt-thread/components/net/lwip-2.0.2/src/core/tcp_in.c:1488:24
	ldrh	r0, [r1, #8]
.Ltmp767:
	.loc	6 1488 15                       @ rt-thread/components/net/lwip-2.0.2/src/core/tcp_in.c:1488:15
	cbz	r0, .LBB7_154
.Ltmp768:
@ %bb.150:                              @   in Loop: Header=BB7_146 Depth=1
	@DEBUG_VALUE: tcp_receive:cseg <- $r5
	@DEBUG_VALUE: tcp_receive:pcb <- $r4
	.loc	6 1494 17 is_stmt 1             @ rt-thread/components/net/lwip-2.0.2/src/core/tcp_in.c:1494:17
	ldr.w	r0, [r9]
.Ltmp769:
	.loc	6 1494 17 is_stmt 0             @ rt-thread/components/net/lwip-2.0.2/src/core/tcp_in.c:1494:17
	cbz	r0, .LBB7_152
.Ltmp770:
@ %bb.151:                              @   in Loop: Header=BB7_146 Depth=1
	@DEBUG_VALUE: tcp_receive:cseg <- $r5
	@DEBUG_VALUE: tcp_receive:pcb <- $r4
	.loc	6 1495 15 is_stmt 1             @ rt-thread/components/net/lwip-2.0.2/src/core/tcp_in.c:1495:15
	bl	pbuf_cat
	b	.LBB7_153
.Ltmp771:
.LBB7_152:                              @   in Loop: Header=BB7_146 Depth=1
	@DEBUG_VALUE: tcp_receive:cseg <- $r5
	@DEBUG_VALUE: tcp_receive:pcb <- $r4
	.loc	6 1497 25                       @ rt-thread/components/net/lwip-2.0.2/src/core/tcp_in.c:1497:25
	str.w	r1, [r9]
.Ltmp772:
.LBB7_153:                              @   in Loop: Header=BB7_146 Depth=1
	@DEBUG_VALUE: tcp_receive:cseg <- $r5
	@DEBUG_VALUE: tcp_receive:pcb <- $r4
	.loc	6 1499 21                       @ rt-thread/components/net/lwip-2.0.2/src/core/tcp_in.c:1499:21
	str.w	r11, [r5, #4]
.Ltmp773:
.LBB7_154:                              @   in Loop: Header=BB7_146 Depth=1
	@DEBUG_VALUE: tcp_receive:cseg <- $r5
	@DEBUG_VALUE: tcp_receive:pcb <- $r4
	.loc	6 1501 15                       @ rt-thread/components/net/lwip-2.0.2/src/core/tcp_in.c:1501:15
	ldr	r0, [r5, #12]
	ldrh	r0, [r0, #12]
	bl	lwip_htons
.Ltmp774:
	.loc	6 1501 15 is_stmt 0             @ rt-thread/components/net/lwip-2.0.2/src/core/tcp_in.c:1501:15
	lsls	r0, r0, #31
	beq	.LBB7_145
.Ltmp775:
@ %bb.155:                              @   in Loop: Header=BB7_146 Depth=1
	@DEBUG_VALUE: tcp_receive:cseg <- $r5
	@DEBUG_VALUE: tcp_receive:pcb <- $r4
	.loc	6 1504 22 is_stmt 1             @ rt-thread/components/net/lwip-2.0.2/src/core/tcp_in.c:1504:22
	ldrb	r0, [r4, #20]
.Ltmp776:
	.loc	6 1503 24                       @ rt-thread/components/net/lwip-2.0.2/src/core/tcp_in.c:1503:24
	ldrb.w	r1, [r10]
	.loc	6 1504 17                       @ rt-thread/components/net/lwip-2.0.2/src/core/tcp_in.c:1504:17
	cmp	r0, #4
	.loc	6 1503 24                       @ rt-thread/components/net/lwip-2.0.2/src/core/tcp_in.c:1503:24
	orr	r0, r1, #32
	strb.w	r0, [r10]
	.loc	6 1504 17                       @ rt-thread/components/net/lwip-2.0.2/src/core/tcp_in.c:1504:17
	bne	.LBB7_145
.Ltmp777:
@ %bb.156:                              @   in Loop: Header=BB7_146 Depth=1
	@DEBUG_VALUE: tcp_receive:cseg <- $r5
	@DEBUG_VALUE: tcp_receive:pcb <- $r4
	.loc	6 1505 26                       @ rt-thread/components/net/lwip-2.0.2/src/core/tcp_in.c:1505:26
	movs	r0, #7
	strb	r0, [r4, #20]
	b	.LBB7_145
.Ltmp778:
.LBB7_157:
	@DEBUG_VALUE: tcp_receive:pcb <- $r4
	.loc	6 1516 9                        @ rt-thread/components/net/lwip-2.0.2/src/core/tcp_in.c:1516:9
	ldrb	r0, [r4, #26]
.Ltmp779:
	.loc	6 1516 9 is_stmt 0              @ rt-thread/components/net/lwip-2.0.2/src/core/tcp_in.c:1516:9
	lsls	r1, r0, #31
	bne	.LBB7_159
.Ltmp780:
@ %bb.158:
	@DEBUG_VALUE: tcp_receive:pcb <- $r4
	.loc	6 1516 9                        @ rt-thread/components/net/lwip-2.0.2/src/core/tcp_in.c:1516:9
	orr	r0, r0, #1
	b	.LBB7_160
.Ltmp781:
.LBB7_159:
	@DEBUG_VALUE: tcp_receive:pcb <- $r4
	.loc	6 1516 9                        @ rt-thread/components/net/lwip-2.0.2/src/core/tcp_in.c:1516:9
	and	r0, r0, #252
	adds	r0, #2
.Ltmp782:
.LBB7_160:
	@DEBUG_VALUE: tcp_receive:pcb <- $r4
	.loc	6 0 0                           @ rt-thread/components/net/lwip-2.0.2/src/core/tcp_in.c:0:0
	strb	r0, [r4, #26]
.Ltmp783:
	.loc	6 1687 1 is_stmt 1              @ rt-thread/components/net/lwip-2.0.2/src/core/tcp_in.c:1687:1
	add	sp, #4
	pop.w	{r4, r5, r6, r7, r8, r9, r10, r11, pc}
.Ltmp784:
.LBB7_161:
	@DEBUG_VALUE: tcp_receive:prev <- $r7
	@DEBUG_VALUE: tcp_receive:next <- $r5
	@DEBUG_VALUE: tcp_receive:pcb <- $r4
	.loc	6 1595 26                       @ rt-thread/components/net/lwip-2.0.2/src/core/tcp_in.c:1595:26
	movw	r0, :lower16:inseg
	movt	r0, :upper16:inseg
	bl	tcp_seg_copy
.Ltmp785:
	@DEBUG_VALUE: tcp_receive:cseg <- $r0
	.loc	6 1596 23                       @ rt-thread/components/net/lwip-2.0.2/src/core/tcp_in.c:1596:23
	cmp	r0, #0
	beq.w	.LBB7_67
.Ltmp786:
@ %bb.162:
	@DEBUG_VALUE: tcp_receive:prev <- $r7
	@DEBUG_VALUE: tcp_receive:next <- $r5
	@DEBUG_VALUE: tcp_receive:pcb <- $r4
	@DEBUG_VALUE: tcp_receive:cseg <- $r0
	.loc	6 0 0 is_stmt 0                 @ rt-thread/components/net/lwip-2.0.2/src/core/tcp_in.c:0:0
	mov	r4, r0
.Ltmp787:
	@DEBUG_VALUE: tcp_receive:cseg <- $r4
	@DEBUG_VALUE: tcp_receive:cseg <- $r4
	.loc	6 1597 25 is_stmt 1             @ rt-thread/components/net/lwip-2.0.2/src/core/tcp_in.c:1597:25
	ldr	r0, [r7, #12]
	ldrh	r1, [r7, #8]
	ldr	r0, [r0, #4]
	adds	r2, r0, r1
	ldr	r1, [r6]
	subs	r2, r2, r1
.Ltmp788:
	.loc	6 1597 25 is_stmt 0             @ rt-thread/components/net/lwip-2.0.2/src/core/tcp_in.c:1597:25
	cmp	r2, #1
	blt	.LBB7_164
.Ltmp789:
@ %bb.163:
	@DEBUG_VALUE: tcp_receive:prev <- $r7
	@DEBUG_VALUE: tcp_receive:next <- $r5
	@DEBUG_VALUE: tcp_receive:cseg <- $r4
	.loc	6 1599 49 is_stmt 1             @ rt-thread/components/net/lwip-2.0.2/src/core/tcp_in.c:1599:49
	subs	r1, r1, r0
	.loc	6 1599 33 is_stmt 0             @ rt-thread/components/net/lwip-2.0.2/src/core/tcp_in.c:1599:33
	strh	r1, [r7, #8]
	.loc	6 1600 23 is_stmt 1             @ rt-thread/components/net/lwip-2.0.2/src/core/tcp_in.c:1600:23
	uxth	r1, r1
	.loc	6 1600 42 is_stmt 0             @ rt-thread/components/net/lwip-2.0.2/src/core/tcp_in.c:1600:42
	ldr	r0, [r7, #4]
	.loc	6 1600 23                       @ rt-thread/components/net/lwip-2.0.2/src/core/tcp_in.c:1600:23
	bl	pbuf_realloc
.Ltmp790:
.LBB7_164:
	@DEBUG_VALUE: tcp_receive:prev <- $r7
	@DEBUG_VALUE: tcp_receive:next <- $r5
	@DEBUG_VALUE: tcp_receive:cseg <- $r4
	.loc	6 1602 32 is_stmt 1             @ rt-thread/components/net/lwip-2.0.2/src/core/tcp_in.c:1602:32
	str	r4, [r7]
	.loc	6 1603 21                       @ rt-thread/components/net/lwip-2.0.2/src/core/tcp_in.c:1603:21
	mov	r0, r4
	b	.LBB7_167
.Ltmp791:
.LBB7_165:
	@DEBUG_VALUE: tcp_receive:next <- $r5
	@DEBUG_VALUE: tcp_receive:pcb <- $r4
	.loc	6 1579 26                       @ rt-thread/components/net/lwip-2.0.2/src/core/tcp_in.c:1579:26
	movw	r0, :lower16:inseg
	movt	r0, :upper16:inseg
	bl	tcp_seg_copy
.Ltmp792:
	@DEBUG_VALUE: tcp_receive:cseg <- $r0
	.loc	6 1580 23                       @ rt-thread/components/net/lwip-2.0.2/src/core/tcp_in.c:1580:23
	cmp	r0, #0
	beq.w	.LBB7_67
.Ltmp793:
.LBB7_166:
	@DEBUG_VALUE: tcp_receive:next <- $r5
	@DEBUG_VALUE: tcp_receive:pcb <- $r4
	@DEBUG_VALUE: tcp_receive:cseg <- $r0
	.loc	6 0 0 is_stmt 0                 @ rt-thread/components/net/lwip-2.0.2/src/core/tcp_in.c:0:0
	str.w	r0, [r8]
.Ltmp794:
.LBB7_167:
	@DEBUG_VALUE: tcp_receive:next <- $r5
	mov	r1, r5
	bl	tcp_oos_insert_segment
.Ltmp795:
	.loc	6 1687 1 is_stmt 1              @ rt-thread/components/net/lwip-2.0.2/src/core/tcp_in.c:1687:1
	add	sp, #4
	pop.w	{r4, r5, r6, r7, r8, r9, r10, r11, pc}
.Ltmp796:
	.p2align	2
@ %bb.168:
	.loc	6 0 1 is_stmt 0                 @ rt-thread/components/net/lwip-2.0.2/src/core/tcp_in.c:0:1
.LCPI7_0:
.L.str.15:
	.asciz	"tcp_receive: wrong state\000\000\000"
.LCPI7_1:
.L.str.18:
	.asciz	"inseg.p != NULL"
.LCPI7_2:
.L.str.19:
	.asciz	"insane offset!\000"
.LCPI7_3:
.L.str.20:
	.asciz	"pbuf too short!"
.LCPI7_4:
.L.str.23:
	.asciz	"tcp_receive: segment not trimmed correctly to ooseq queue\n\000"
.Lfunc_end7:
	.size	tcp_receive, .Lfunc_end7-tcp_receive
	.cfi_endproc
	.cantunwind
	.fnend
                                        @ -- End function
	.section	.text.tcp_oos_insert_segment,"ax",%progbits
	.p2align	3                               @ -- Begin function tcp_oos_insert_segment
	.type	tcp_oos_insert_segment,%function
	.code	16                              @ @tcp_oos_insert_segment
	.thumb_func
tcp_oos_insert_segment:
.Lfunc_begin8:
	.loc	6 952 0 is_stmt 1               @ rt-thread/components/net/lwip-2.0.2/src/core/tcp_in.c:952:0
	.fnstart
	.cfi_startproc
@ %bb.0:
	@DEBUG_VALUE: tcp_oos_insert_segment:cseg <- $r0
	@DEBUG_VALUE: tcp_oos_insert_segment:next <- $r1
	.save	{r4, r5, r6, r7, lr}
	push	{r4, r5, r6, r7, lr}
	.cfi_def_cfa_offset 20
	.cfi_offset lr, -4
	.cfi_offset r7, -8
	.cfi_offset r6, -12
	.cfi_offset r5, -16
	.cfi_offset r4, -20
	.pad	#4
	sub	sp, #4
	.cfi_def_cfa_offset 24
	mov	r4, r0
.Ltmp797:
	@DEBUG_VALUE: tcp_oos_insert_segment:cseg <- $r4
	.loc	6 955 7 prologue_end            @ rt-thread/components/net/lwip-2.0.2/src/core/tcp_in.c:955:7
	ldr	r0, [r0, #12]
	mov	r5, r1
.Ltmp798:
	@DEBUG_VALUE: tcp_oos_insert_segment:next <- $r5
	@DEBUG_VALUE: tcp_oos_insert_segment:next <- $r5
	ldrh	r0, [r0, #12]
	bl	lwip_htons
.Ltmp799:
	.loc	6 955 7 is_stmt 0               @ rt-thread/components/net/lwip-2.0.2/src/core/tcp_in.c:955:7
	lsls	r0, r0, #31
	bne	.LBB8_7
.Ltmp800:
@ %bb.1:
	@DEBUG_VALUE: tcp_oos_insert_segment:next <- $r5
	@DEBUG_VALUE: tcp_oos_insert_segment:cseg <- $r4
	@DEBUG_VALUE: tcp_oos_insert_segment:next <- $r5
	.loc	6 962 17 is_stmt 1              @ rt-thread/components/net/lwip-2.0.2/src/core/tcp_in.c:962:17
	cbz	r5, .LBB8_8
.Ltmp801:
@ %bb.2:
	@DEBUG_VALUE: tcp_oos_insert_segment:next <- $r5
	@DEBUG_VALUE: tcp_oos_insert_segment:cseg <- $r4
	.loc	6 0 17 is_stmt 0                @ rt-thread/components/net/lwip-2.0.2/src/core/tcp_in.c:0:17
	movw	r7, :lower16:seqno
	movt	r7, :upper16:seqno
	b	.LBB8_4
.Ltmp802:
	.p2align	2
.LBB8_3:                                @   in Loop: Header=BB8_4 Depth=1
	@DEBUG_VALUE: tcp_oos_insert_segment:next <- $r5
	@DEBUG_VALUE: tcp_oos_insert_segment:cseg <- $r4
	@DEBUG_VALUE: tcp_oos_insert_segment:old_seg <- $r5
	.loc	6 971 7 is_stmt 1               @ rt-thread/components/net/lwip-2.0.2/src/core/tcp_in.c:971:7
	mov	r0, r5
	.loc	6 970 20                        @ rt-thread/components/net/lwip-2.0.2/src/core/tcp_in.c:970:20
	ldr	r6, [r5]
.Ltmp803:
	@DEBUG_VALUE: tcp_oos_insert_segment:next <- $r6
	.loc	6 971 7                         @ rt-thread/components/net/lwip-2.0.2/src/core/tcp_in.c:971:7
	bl	tcp_seg_free
	mov	r5, r6
.Ltmp804:
	@DEBUG_VALUE: tcp_oos_insert_segment:next <- $r5
	@DEBUG_VALUE: tcp_oos_insert_segment:next <- $r5
	.loc	6 962 17                        @ rt-thread/components/net/lwip-2.0.2/src/core/tcp_in.c:962:17
	cbz	r6, .LBB8_9
.Ltmp805:
.LBB8_4:                                @ =>This Inner Loop Header: Depth=1
	@DEBUG_VALUE: tcp_oos_insert_segment:next <- $r5
	@DEBUG_VALUE: tcp_oos_insert_segment:cseg <- $r4
	@DEBUG_VALUE: tcp_oos_insert_segment:next <- $r5
	.loc	6 963 12                        @ rt-thread/components/net/lwip-2.0.2/src/core/tcp_in.c:963:12
	ldrh	r1, [r4, #8]
	ldr	r2, [r5, #12]
	ldr	r0, [r7]
	ldrh	r6, [r5, #8]
	adds	r3, r0, r1
	ldr	r1, [r2, #4]
	subs	r3, r3, r1
	subs	r6, r3, r6
	.loc	6 962 5                         @ rt-thread/components/net/lwip-2.0.2/src/core/tcp_in.c:962:5
	bmi	.LBB8_10
.Ltmp806:
@ %bb.5:                                @   in Loop: Header=BB8_4 Depth=1
	@DEBUG_VALUE: tcp_oos_insert_segment:next <- $r5
	@DEBUG_VALUE: tcp_oos_insert_segment:cseg <- $r4
	.loc	6 966 11                        @ rt-thread/components/net/lwip-2.0.2/src/core/tcp_in.c:966:11
	ldrh	r0, [r2, #12]
	bl	lwip_htons
.Ltmp807:
	.loc	6 966 11 is_stmt 0              @ rt-thread/components/net/lwip-2.0.2/src/core/tcp_in.c:966:11
	lsls	r0, r0, #31
	beq	.LBB8_3
.Ltmp808:
@ %bb.6:                                @   in Loop: Header=BB8_4 Depth=1
	@DEBUG_VALUE: tcp_oos_insert_segment:next <- $r5
	@DEBUG_VALUE: tcp_oos_insert_segment:cseg <- $r4
	.loc	6 967 9 is_stmt 1               @ rt-thread/components/net/lwip-2.0.2/src/core/tcp_in.c:967:9
	ldr	r0, [r4, #12]
	ldrh	r6, [r0, #12]
	movs	r0, #1
	bl	lwip_htons
	ldr	r1, [r4, #12]
	orrs	r0, r6
	strh	r0, [r1, #12]
	b	.LBB8_3
.Ltmp809:
.LBB8_7:
	@DEBUG_VALUE: tcp_oos_insert_segment:next <- $r5
	@DEBUG_VALUE: tcp_oos_insert_segment:cseg <- $r4
	.loc	6 957 5                         @ rt-thread/components/net/lwip-2.0.2/src/core/tcp_in.c:957:5
	mov	r0, r5
	bl	tcp_segs_free
	movs	r5, #0
.Ltmp810:
	@DEBUG_VALUE: tcp_oos_insert_segment:next <- [DW_OP_LLVM_entry_value 1] $r1
	@DEBUG_VALUE: tcp_oos_insert_segment:next <- 0
	.loc	6 959 3                         @ rt-thread/components/net/lwip-2.0.2/src/core/tcp_in.c:959:3
	b	.LBB8_12
.Ltmp811:
.LBB8_8:
	@DEBUG_VALUE: tcp_oos_insert_segment:next <- $r5
	@DEBUG_VALUE: tcp_oos_insert_segment:cseg <- $r4
	.loc	6 0 3 is_stmt 0                 @ rt-thread/components/net/lwip-2.0.2/src/core/tcp_in.c:0:3
	movs	r5, #0
.Ltmp812:
	b	.LBB8_12
.Ltmp813:
.LBB8_9:
	@DEBUG_VALUE: tcp_oos_insert_segment:next <- $r5
	@DEBUG_VALUE: tcp_oos_insert_segment:cseg <- $r4
	movs	r5, #0
.Ltmp814:
	b	.LBB8_12
.Ltmp815:
.LBB8_10:
	@DEBUG_VALUE: tcp_oos_insert_segment:next <- $r5
	@DEBUG_VALUE: tcp_oos_insert_segment:cseg <- $r4
	.loc	6 973 9 is_stmt 1               @ rt-thread/components/net/lwip-2.0.2/src/core/tcp_in.c:973:9
	cmp	r3, #1
	blt	.LBB8_12
.Ltmp816:
@ %bb.11:
	@DEBUG_VALUE: tcp_oos_insert_segment:next <- $r5
	@DEBUG_VALUE: tcp_oos_insert_segment:cseg <- $r4
	.loc	6 976 47                        @ rt-thread/components/net/lwip-2.0.2/src/core/tcp_in.c:976:47
	subs	r1, r1, r0
	.loc	6 976 17 is_stmt 0              @ rt-thread/components/net/lwip-2.0.2/src/core/tcp_in.c:976:17
	strh	r1, [r4, #8]
	.loc	6 977 7 is_stmt 1               @ rt-thread/components/net/lwip-2.0.2/src/core/tcp_in.c:977:7
	uxth	r1, r1
	.loc	6 977 26 is_stmt 0              @ rt-thread/components/net/lwip-2.0.2/src/core/tcp_in.c:977:26
	ldr	r0, [r4, #4]
	.loc	6 977 7                         @ rt-thread/components/net/lwip-2.0.2/src/core/tcp_in.c:977:7
	bl	pbuf_realloc
.Ltmp817:
.LBB8_12:
	@DEBUG_VALUE: tcp_oos_insert_segment:cseg <- $r4
	@DEBUG_VALUE: tcp_oos_insert_segment:next <- $r5
	.loc	6 980 14 is_stmt 1              @ rt-thread/components/net/lwip-2.0.2/src/core/tcp_in.c:980:14
	str	r5, [r4]
	.loc	6 981 1                         @ rt-thread/components/net/lwip-2.0.2/src/core/tcp_in.c:981:1
	add	sp, #4
	pop	{r4, r5, r6, r7, pc}
.Ltmp818:
.Lfunc_end8:
	.size	tcp_oos_insert_segment, .Lfunc_end8-tcp_oos_insert_segment
	.cfi_endproc
	.cantunwind
	.fnend
                                        @ -- End function
	.type	tcphdr,%object                  @ @tcphdr
	.section	.bss.tcphdr,"aw",%nobits
	.p2align	2
tcphdr:
	.long	0
	.size	tcphdr, 4

	.type	tcphdr_optlen,%object           @ @tcphdr_optlen
	.section	.bss.tcphdr_optlen,"aw",%nobits
	.p2align	1
tcphdr_optlen:
	.short	0                               @ 0x0
	.size	tcphdr_optlen, 2

	.type	tcphdr_opt2,%object             @ @tcphdr_opt2
	.section	.bss.tcphdr_opt2,"aw",%nobits
	.p2align	2
tcphdr_opt2:
	.long	0
	.size	tcphdr_opt2, 4

	.type	tcphdr_opt1len,%object          @ @tcphdr_opt1len
	.section	.bss.tcphdr_opt1len,"aw",%nobits
	.p2align	1
tcphdr_opt1len:
	.short	0                               @ 0x0
	.size	tcphdr_opt1len, 2

	.type	.L.str.1,%object                @ @.str.1
	.section	.rodata.str1.1,"aMS",%progbits,1
.L.str.1:
	.asciz	"rt-thread/components/net/lwip-2.0.2/src/core/tcp_in.c"
	.size	.L.str.1, 54

	.type	seqno,%object                   @ @seqno
	.section	.bss.seqno,"aw",%nobits
	.p2align	2
seqno:
	.long	0                               @ 0x0
	.size	seqno, 4

	.type	ackno,%object                   @ @ackno
	.section	.bss.ackno,"aw",%nobits
	.p2align	2
ackno:
	.long	0                               @ 0x0
	.size	ackno, 4

	.type	flags,%object                   @ @flags
	.section	.bss.flags,"aw",%nobits
flags:
	.byte	0                               @ 0x0
	.size	flags, 1

	.type	tcplen,%object                  @ @tcplen
	.section	.bss.tcplen,"aw",%nobits
	.p2align	1
tcplen:
	.short	0                               @ 0x0
	.size	tcplen, 2

	.type	.L.str.6,%object                @ @.str.6
	.section	.rodata.str1.1,"aMS",%progbits,1
.L.str.6:
	.asciz	"tcp_input: active pcb->state != LISTEN"
	.size	.L.str.6, 39

	.type	.L.str.7,%object                @ @.str.7
.L.str.7:
	.asciz	"tcp_input: pcb->next != pcb (before cache)"
	.size	.L.str.7, 43

	.type	.L.str.8,%object                @ @.str.8
.L.str.8:
	.asciz	"tcp_input: pcb->next != pcb (after cache)"
	.size	.L.str.8, 42

	.type	.L.str.9,%object                @ @.str.9
.L.str.9:
	.asciz	"tcp_input: TIME-WAIT pcb->state == TIME-WAIT"
	.size	.L.str.9, 45

	.type	inseg,%object                   @ @inseg
	.section	.bss.inseg,"aw",%nobits
	.p2align	2
inseg:
	.zero	16
	.size	inseg, 16

	.type	recv_data,%object               @ @recv_data
	.section	.bss.recv_data,"aw",%nobits
	.p2align	2
recv_data:
	.long	0
	.size	recv_data, 4

	.type	recv_flags,%object              @ @recv_flags
	.section	.bss.recv_flags,"aw",%nobits
recv_flags:
	.byte	0                               @ 0x0
	.size	recv_flags, 1

	.type	recv_acked,%object              @ @recv_acked
	.section	.bss.recv_acked,"aw",%nobits
	.p2align	1
recv_acked:
	.short	0                               @ 0x0
	.size	recv_acked, 2

	.hidden	tcp_input_pcb                   @ @tcp_input_pcb
	.type	tcp_input_pcb,%object
	.section	.bss.tcp_input_pcb,"aw",%nobits
	.globl	tcp_input_pcb
	.p2align	2
tcp_input_pcb:
	.long	0
	.size	tcp_input_pcb, 4

	.type	.L.str.10,%object               @ @.str.10
	.section	.rodata.str1.1,"aMS",%progbits,1
.L.str.10:
	.asciz	"pcb->refused_data == NULL"
	.size	.L.str.10, 26

	.type	tcp_optidx,%object              @ @tcp_optidx
	.section	.bss.tcp_optidx,"aw",%nobits
	.p2align	1
tcp_optidx:
	.short	0                               @ 0x0
	.size	tcp_optidx, 2

	.type	.L.str.16,%object               @ @.str.16
	.section	.rodata.str1.1,"aMS",%progbits,1
.L.str.16:
	.asciz	"pcb->snd_queuelen >= pbuf_clen(next->p)"
	.size	.L.str.16, 40

	.type	.L.str.17,%object               @ @.str.17
.L.str.17:
	.asciz	"tcp_receive: valid queue length"
	.size	.L.str.17, 32

	.type	.L.str.21,%object               @ @.str.21
.L.str.21:
	.asciz	"pbuf_header failed"
	.size	.L.str.21, 19

	.type	.L.str.22,%object               @ @.str.22
.L.str.22:
	.asciz	"tcp_receive: segment not trimmed correctly to rcv_wnd\n"
	.size	.L.str.22, 55

	.type	.L.str.24,%object               @ @.str.24
.L.str.24:
	.asciz	"tcp_receive: tcplen > rcv_wnd\n"
	.size	.L.str.24, 31

	.type	.L.str.25,%object               @ @.str.25
.L.str.25:
	.asciz	"tcp_receive: ooseq tcplen > rcv_wnd\n"
	.size	.L.str.25, 37

	.section	".note.GNU-stack","",%progbits
	.eabi_attribute	30, 1	@ Tag_ABI_optimization_goals
	.ARM_attribute	16, 1	@ Tag_AV_eba