	.text
	.syntax unified
	.eabi_attribute	67, "2.09"	@ Tag_conformance
	.cpu	cortex-m7
	.eabi_attribute	6, 13	@ Tag_CPU_arch
	.eabi_attribute	7, 77	@ Tag_CPU_arch_profile
	.eabi_attribute	8, 0	@ Tag_ARM_ISA_use
	.eabi_attribute	9, 2	@ Tag_THUMB_ISA_use
	.fpu	fpv5-d16
	.eabi_attribute	36, 1	@ Tag_FP_HP_extension
	.eabi_attribute	34, 1	@ Tag_CPU_unaligned_access
	.eabi_attribute	17, 1	@ Tag_ABI_PCS_GOT_use
	.eabi_attribute	20, 2	@ Tag_ABI_FP_denormal
	.eabi_attribute	21, 0	@ Tag_ABI_FP_exceptions
	.eabi_attribute	23, 1	@ Tag_ABI_FP_number_model
	.eabi_attribute	24, 1	@ Tag_ABI_align_needed
	.eabi_attribute	25, 1	@ Tag_ABI_align_preserved
	.eabi_attribute	28, 1	@ Tag_ABI_VFP_args
	.eabi_attribute	38, 1	@ Tag_ABI_FP_16bit_format
	.eabi_attribute	18, 2	@ Tag_ABI_PCS_wchar_t
	.eabi_attribute	26, 1	@ Tag_ABI_enum_size
	.eabi_attribute	14, 0	@ Tag_ABI_PCS_R9_use
	.file	"thread.c"
	.file	1 "E:\\Smart-access-control\\Hardware\\CODE" "rt-thread/include\\rtdef.h"
	.file	2 "E:\\Smart-access-control\\Hardware\\CODE" "rt-thread/src/thread.c"
	.section	.text.rt_thread_suspend_sethook,"ax",%progbits
	.hidden	rt_thread_suspend_sethook       @ -- Begin function rt_thread_suspend_sethook
	.globl	rt_thread_suspend_sethook
	.p2align	3
	.type	rt_thread_suspend_sethook,%function
	.code	16                              @ @rt_thread_suspend_sethook
	.thumb_func
rt_thread_suspend_sethook:
.Lfunc_begin0:
	.loc	2 50 0                          @ rt-thread/src/thread.c:50:0
	.fnstart
	.cfi_sections .debug_frame
	.cfi_startproc
@ %bb.0:
	.pad	#4
	sub	sp, #4
	.cfi_def_cfa_offset 4
	str	r0, [sp]
.Ltmp0:
	.loc	2 51 30 prologue_end            @ rt-thread/src/thread.c:51:30
	ldr	r0, [sp]
	.loc	2 51 28 is_stmt 0               @ rt-thread/src/thread.c:51:28
	movw	r1, :lower16:rt_thread_suspend_hook
	movt	r1, :upper16:rt_thread_suspend_hook
	str	r0, [r1]
	.loc	2 52 1 is_stmt 1                @ rt-thread/src/thread.c:52:1
	add	sp, #4
	bx	lr
.Ltmp1:
.Lfunc_end0:
	.size	rt_thread_suspend_sethook, .Lfunc_end0-rt_thread_suspend_sethook
	.cfi_endproc
	.cantunwind
	.fnend
                                        @ -- End function
	.section	.text.rt_thread_resume_sethook,"ax",%progbits
	.hidden	rt_thread_resume_sethook        @ -- Begin function rt_thread_resume_sethook
	.globl	rt_thread_resume_sethook
	.p2align	3
	.type	rt_thread_resume_sethook,%function
	.code	16                              @ @rt_thread_resume_sethook
	.thumb_func
rt_thread_resume_sethook:
.Lfunc_begin1:
	.loc	2 63 0                          @ rt-thread/src/thread.c:63:0
	.fnstart
	.cfi_startproc
@ %bb.0:
	.pad	#4
	sub	sp, #4
	.cfi_def_cfa_offset 4
	str	r0, [sp]
.Ltmp2:
	.loc	2 64 29 prologue_end            @ rt-thread/src/thread.c:64:29
	ldr	r0, [sp]
	.loc	2 64 27 is_stmt 0               @ rt-thread/src/thread.c:64:27
	movw	r1, :lower16:rt_thread_resume_hook
	movt	r1, :upper16:rt_thread_resume_hook
	str	r0, [r1]
	.loc	2 65 1 is_stmt 1                @ rt-thread/src/thread.c:65:1
	add	sp, #4
	bx	lr
.Ltmp3:
.Lfunc_end1:
	.size	rt_thread_resume_sethook, .Lfunc_end1-rt_thread_resume_sethook
	.cfi_endproc
	.cantunwind
	.fnend
                                        @ -- End function
	.section	.text.rt_thread_inited_sethook,"ax",%progbits
	.hidden	rt_thread_inited_sethook        @ -- Begin function rt_thread_inited_sethook
	.globl	rt_thread_inited_sethook
	.p2align	3
	.type	rt_thread_inited_sethook,%function
	.code	16                              @ @rt_thread_inited_sethook
	.thumb_func
rt_thread_inited_sethook:
.Lfunc_begin2:
	.loc	2 74 0                          @ rt-thread/src/thread.c:74:0
	.fnstart
	.cfi_startproc
@ %bb.0:
	.pad	#4
	sub	sp, #4
	.cfi_def_cfa_offset 4
	str	r0, [sp]
.Ltmp4:
	.loc	2 75 29 prologue_end            @ rt-thread/src/thread.c:75:29
	ldr	r0, [sp]
	.loc	2 75 27 is_stmt 0               @ rt-thread/src/thread.c:75:27
	movw	r1, :lower16:rt_thread_inited_hook
	movt	r1, :upper16:rt_thread_inited_hook
	str	r0, [r1]
	.loc	2 76 1 is_stmt 1                @ rt-thread/src/thread.c:76:1
	add	sp, #4
	bx	lr
.Ltmp5:
.Lfunc_end2:
	.size	rt_thread_inited_sethook, .Lfunc_end2-rt_thread_inited_sethook
	.cfi_endproc
	.cantunwind
	.fnend
                                        @ -- End function
	.section	.text.rt_thread_exit,"ax",%progbits
	.hidden	rt_thread_exit                  @ -- Begin function rt_thread_exit
	.globl	rt_thread_exit
	.p2align	3
	.type	rt_thread_exit,%function
	.code	16                              @ @rt_thread_exit
	.thumb_func
rt_thread_exit:
.Lfunc_begin3:
	.loc	2 81 0                          @ rt-thread/src/thread.c:81:0
	.fnstart
	.cfi_startproc
@ %bb.0:
	.save	{r7, lr}
	push	{r7, lr}
	.cfi_def_cfa_offset 8
	.cfi_offset lr, -4
	.cfi_offset r7, -8
	.pad	#8
	sub	sp, #8
	.cfi_def_cfa_offset 16
.Ltmp6:
	.loc	2 86 14 prologue_end            @ rt-thread/src/thread.c:86:14
	bl	rt_thread_self
	.loc	2 86 12 is_stmt 0               @ rt-thread/src/thread.c:86:12
	str	r0, [sp, #4]
	.loc	2 89 13 is_stmt 1               @ rt-thread/src/thread.c:89:13
	bl	rt_hw_interrupt_disable
	.loc	2 89 11 is_stmt 0               @ rt-thread/src/thread.c:89:11
	str	r0, [sp]
	.loc	2 92 31 is_stmt 1               @ rt-thread/src/thread.c:92:31
	ldr	r0, [sp, #4]
	.loc	2 92 5 is_stmt 0                @ rt-thread/src/thread.c:92:5
	bl	rt_schedule_remove_thread
	.loc	2 94 5 is_stmt 1                @ rt-thread/src/thread.c:94:5
	ldr	r1, [sp, #4]
	movs	r0, #4
	.loc	2 94 18 is_stmt 0               @ rt-thread/src/thread.c:94:18
	strb.w	r0, [r1, #52]
	.loc	2 97 22 is_stmt 1               @ rt-thread/src/thread.c:97:22
	ldr	r0, [sp, #4]
	.loc	2 97 30 is_stmt 0               @ rt-thread/src/thread.c:97:30
	adds	r0, #76
	.loc	2 97 5                          @ rt-thread/src/thread.c:97:5
	bl	rt_timer_detach
.Ltmp7:
	.loc	2 99 49 is_stmt 1               @ rt-thread/src/thread.c:99:49
	ldr	r0, [sp, #4]
	.loc	2 99 10 is_stmt 0               @ rt-thread/src/thread.c:99:10
	bl	rt_object_is_systemobject
	.loc	2 99 69                         @ rt-thread/src/thread.c:99:69
	cmp	r0, #1
	bne	.LBB3_3
	b	.LBB3_1
.LBB3_1:
	.loc	2 100 9 is_stmt 1               @ rt-thread/src/thread.c:100:9
	ldr	r0, [sp, #4]
	.loc	2 100 17 is_stmt 0              @ rt-thread/src/thread.c:100:17
	ldr	r0, [r0, #120]
.Ltmp8:
	.loc	2 99 9 is_stmt 1                @ rt-thread/src/thread.c:99:9
	cbnz	r0, .LBB3_3
	b	.LBB3_2
.LBB3_2:
.Ltmp9:
	.loc	2 102 39                        @ rt-thread/src/thread.c:102:39
	ldr	r0, [sp, #4]
	.loc	2 102 9 is_stmt 0               @ rt-thread/src/thread.c:102:9
	bl	rt_object_detach
	.loc	2 103 5 is_stmt 1               @ rt-thread/src/thread.c:103:5
	b	.LBB3_4
.Ltmp10:
.LBB3_3:
	.loc	2 107 52                        @ rt-thread/src/thread.c:107:52
	ldr	r0, [sp, #4]
	.loc	2 107 60 is_stmt 0              @ rt-thread/src/thread.c:107:60
	add.w	r1, r0, #20
	.loc	2 107 9                         @ rt-thread/src/thread.c:107:9
	movw	r0, :lower16:rt_thread_defunct
	movt	r0, :upper16:rt_thread_defunct
	bl	rt_list_insert_after
	b	.LBB3_4
.Ltmp11:
.LBB3_4:
	.loc	2 111 5 is_stmt 1               @ rt-thread/src/thread.c:111:5
	bl	rt_schedule
	.loc	2 114 28                        @ rt-thread/src/thread.c:114:28
	ldr	r0, [sp]
	.loc	2 114 5 is_stmt 0               @ rt-thread/src/thread.c:114:5
	bl	rt_hw_interrupt_enable
	.loc	2 115 1 is_stmt 1               @ rt-thread/src/thread.c:115:1
	add	sp, #8
	pop	{r7, pc}
.Ltmp12:
.Lfunc_end3:
	.size	rt_thread_exit, .Lfunc_end3-rt_thread_exit
	.cfi_endproc
	.cantunwind
	.fnend
                                        @ -- End function
	.section	.text.rt_thread_self,"ax",%progbits
	.hidden	rt_thread_self                  @ -- Begin function rt_thread_self
	.globl	rt_thread_self
	.p2align	3
	.type	rt_thread_self,%function
	.code	16                              @ @rt_thread_self
	.thumb_func
rt_thread_self:
.Lfunc_begin4:
	.loc	2 265 0                         @ rt-thread/src/thread.c:265:0
	.fnstart
	.cfi_startproc
@ %bb.0:
	.loc	2 277 12 prologue_end           @ rt-thread/src/thread.c:277:12
	movw	r0, :lower16:rt_current_thread
	movt	r0, :upper16:rt_current_thread
	ldr	r0, [r0]
	.loc	2 277 5 is_stmt 0               @ rt-thread/src/thread.c:277:5
	bx	lr
.Ltmp13:
.Lfunc_end4:
	.size	rt_thread_self, .Lfunc_end4-rt_thread_self
	.cfi_endproc
	.cantunwind
	.fnend
                                        @ -- End function
	.section	.text.rt_list_insert_after,"ax",%progbits
	.p2align	3                               @ -- Begin function rt_list_insert_after
	.type	rt_list_insert_after,%function
	.code	16                              @ @rt_list_insert_after
	.thumb_func
rt_list_insert_after:
.Lfunc_begin5:
	.file	3 "E:\\Smart-access-control\\Hardware\\CODE" "rt-thread/include\\rtservice.h"
	.loc	3 59 0 is_stmt 1                @ rt-thread/include\rtservice.h:59:0
	.fnstart
	.cfi_startproc
@ %bb.0:
	.pad	#8
	sub	sp, #8
	.cfi_def_cfa_offset 8
	str	r0, [sp, #4]
	str	r1, [sp]
.Ltmp14:
	.loc	3 60 21 prologue_end            @ rt-thread/include\rtservice.h:60:21
	ldr	r0, [sp]
	.loc	3 60 5 is_stmt 0                @ rt-thread/include\rtservice.h:60:5
	ldr	r1, [sp, #4]
	.loc	3 60 8                          @ rt-thread/include\rtservice.h:60:8
	ldr	r1, [r1]
	.loc	3 60 19                         @ rt-thread/include\rtservice.h:60:19
	str	r0, [r1, #4]
	.loc	3 61 15 is_stmt 1               @ rt-thread/include\rtservice.h:61:15
	ldr	r0, [sp, #4]
	.loc	3 61 18 is_stmt 0               @ rt-thread/include\rtservice.h:61:18
	ldr	r0, [r0]
	.loc	3 61 5                          @ rt-thread/include\rtservice.h:61:5
	ldr	r1, [sp]
	.loc	3 61 13                         @ rt-thread/include\rtservice.h:61:13
	str	r0, [r1]
	.loc	3 63 15 is_stmt 1               @ rt-thread/include\rtservice.h:63:15
	ldr	r0, [sp]
	.loc	3 63 5 is_stmt 0                @ rt-thread/include\rtservice.h:63:5
	ldr	r1, [sp, #4]
	.loc	3 63 13                         @ rt-thread/include\rtservice.h:63:13
	str	r0, [r1]
	.loc	3 64 15 is_stmt 1               @ rt-thread/include\rtservice.h:64:15
	ldr	r0, [sp, #4]
	.loc	3 64 5 is_stmt 0                @ rt-thread/include\rtservice.h:64:5
	ldr	r1, [sp]
	.loc	3 64 13                         @ rt-thread/include\rtservice.h:64:13
	str	r0, [r1, #4]
	.loc	3 65 1 is_stmt 1                @ rt-thread/include\rtservice.h:65:1
	add	sp, #8
	bx	lr
.Ltmp15:
.Lfunc_end5:
	.size	rt_list_insert_after, .Lfunc_end5-rt_list_insert_after
	.cfi_endproc
	.cantunwind
	.fnend
                                        @ -- End function
	.section	.text.rt_thread_init,"ax",%progbits
	.hidden	rt_thread_init                  @ -- Begin function rt_thread_init
	.globl	rt_thread_init
	.p2align	3
	.type	rt_thread_init,%function
	.code	16                              @ @rt_thread_init
	.thumb_func
rt_thread_init:
.Lfunc_begin6:
	.loc	2 240 0                         @ rt-thread/src/thread.c:240:0
	.fnstart
	.cfi_startproc
@ %bb.0:
	.save	{r4, r5, r6, lr}
	push	{r4, r5, r6, lr}
	.cfi_def_cfa_offset 16
	.cfi_offset lr, -4
	.cfi_offset r6, -8
	.cfi_offset r5, -12
	.cfi_offset r4, -16
	.pad	#40
	sub	sp, #40
	.cfi_def_cfa_offset 56
	mov	r12, r0
	ldr	r0, [sp, #68]
	ldr	r0, [sp, #64]
	ldr.w	lr, [sp, #60]
	ldr.w	lr, [sp, #56]
	str.w	r12, [sp, #36]
	str	r1, [sp, #32]
	str	r2, [sp, #28]
	str	r3, [sp, #24]
	strb.w	r0, [sp, #23]
.Ltmp16:
	.loc	2 242 5 prologue_end            @ rt-thread/src/thread.c:242:5
	ldr	r0, [sp, #36]
.Ltmp17:
	.loc	2 242 5 is_stmt 0               @ rt-thread/src/thread.c:242:5
	cbnz	r0, .LBB6_2
	b	.LBB6_1
.LBB6_1:
.Ltmp18:
	.loc	2 242 5                         @ rt-thread/src/thread.c:242:5
	movw	r0, :lower16:.L.str
	movt	r0, :upper16:.L.str
	movw	r1, :lower16:.L__FUNCTION__.rt_thread_init
	movt	r1, :upper16:.L__FUNCTION__.rt_thread_init
	movs	r2, #242
	bl	rt_assert_handler
	b	.LBB6_2
.Ltmp19:
.LBB6_2:
	.loc	2 243 5 is_stmt 1               @ rt-thread/src/thread.c:243:5
	ldr	r0, [sp, #56]
.Ltmp20:
	.loc	2 243 5 is_stmt 0               @ rt-thread/src/thread.c:243:5
	cbnz	r0, .LBB6_4
	b	.LBB6_3
.LBB6_3:
.Ltmp21:
	.loc	2 243 5                         @ rt-thread/src/thread.c:243:5
	movw	r0, :lower16:.L.str.1
	movt	r0, :upper16:.L.str.1
	movw	r1, :lower16:.L__FUNCTION__.rt_thread_init
	movt	r1, :upper16:.L__FUNCTION__.rt_thread_init
	movs	r2, #243
	bl	rt_assert_handler
	b	.LBB6_4
.Ltmp22:
.LBB6_4:
	.loc	2 246 33 is_stmt 1              @ rt-thread/src/thread.c:246:33
	ldr	r0, [sp, #36]
	.loc	2 246 65 is_stmt 0              @ rt-thread/src/thread.c:246:65
	ldr	r2, [sp, #32]
	movs	r1, #1
	.loc	2 246 5                         @ rt-thread/src/thread.c:246:5
	bl	rt_object_init
	.loc	2 248 28 is_stmt 1              @ rt-thread/src/thread.c:248:28
	ldr	r0, [sp, #36]
	.loc	2 249 28                        @ rt-thread/src/thread.c:249:28
	ldr	r1, [sp, #32]
	.loc	2 250 28                        @ rt-thread/src/thread.c:250:28
	ldr	r2, [sp, #28]
	.loc	2 251 28                        @ rt-thread/src/thread.c:251:28
	ldr	r3, [sp, #24]
	.loc	2 252 28                        @ rt-thread/src/thread.c:252:28
	ldr.w	r12, [sp, #56]
	.loc	2 253 28                        @ rt-thread/src/thread.c:253:28
	ldr	r4, [sp, #60]
	.loc	2 254 28                        @ rt-thread/src/thread.c:254:28
	ldrb.w	r5, [sp, #23]
	.loc	2 255 28                        @ rt-thread/src/thread.c:255:28
	ldr	r6, [sp, #68]
	.loc	2 248 12                        @ rt-thread/src/thread.c:248:12
	mov	lr, sp
	str.w	r6, [lr, #12]
	str.w	r5, [lr, #8]
	str.w	r4, [lr, #4]
	str.w	r12, [lr]
	bl	_rt_thread_init
	.loc	2 248 5 is_stmt 0               @ rt-thread/src/thread.c:248:5
	add	sp, #40
	pop	{r4, r5, r6, pc}
.Ltmp23:
.Lfunc_end6:
	.size	rt_thread_init, .Lfunc_end6-rt_thread_init
	.cfi_endproc
	.cantunwind
	.fnend
                                        @ -- End function
	.section	.text._rt_thread_init,"ax",%progbits
	.p2align	3                               @ -- Begin function _rt_thread_init
	.type	_rt_thread_init,%function
	.code	16                              @ @_rt_thread_init
	.thumb_func
_rt_thread_init:
.Lfunc_begin7:
	.loc	2 125 0 is_stmt 1               @ rt-thread/src/thread.c:125:0
	.fnstart
	.cfi_startproc
@ %bb.0:
	.save	{r7, lr}
	push	{r7, lr}
	.cfi_def_cfa_offset 8
	.cfi_offset lr, -4
	.cfi_offset r7, -8
	.pad	#32
	sub	sp, #32
	.cfi_def_cfa_offset 40
	mov	r12, r0
	ldr	r0, [sp, #52]
	ldr	r0, [sp, #48]
	ldr.w	lr, [sp, #44]
	ldr.w	lr, [sp, #40]
	str.w	r12, [sp, #28]
	str	r1, [sp, #24]
	str	r2, [sp, #20]
	str	r3, [sp, #16]
	strb.w	r0, [sp, #15]
.Ltmp24:
	.loc	2 127 20 prologue_end           @ rt-thread/src/thread.c:127:20
	ldr	r0, [sp, #28]
	.loc	2 127 28 is_stmt 0              @ rt-thread/src/thread.c:127:28
	adds	r0, #20
	.loc	2 127 5                         @ rt-thread/src/thread.c:127:5
	bl	rt_list_init
	.loc	2 129 29 is_stmt 1              @ rt-thread/src/thread.c:129:29
	ldr	r0, [sp, #20]
	.loc	2 129 5 is_stmt 0               @ rt-thread/src/thread.c:129:5
	ldr	r1, [sp, #28]
	.loc	2 129 19                        @ rt-thread/src/thread.c:129:19
	str	r0, [r1, #32]
	.loc	2 130 25 is_stmt 1              @ rt-thread/src/thread.c:130:25
	ldr	r0, [sp, #16]
	.loc	2 130 5 is_stmt 0               @ rt-thread/src/thread.c:130:5
	ldr	r1, [sp, #28]
	.loc	2 130 23                        @ rt-thread/src/thread.c:130:23
	str	r0, [r1, #36]
	.loc	2 133 26 is_stmt 1              @ rt-thread/src/thread.c:133:26
	ldr	r0, [sp, #40]
	.loc	2 133 5 is_stmt 0               @ rt-thread/src/thread.c:133:5
	ldr	r1, [sp, #28]
	.loc	2 133 24                        @ rt-thread/src/thread.c:133:24
	str	r0, [r1, #40]
	.loc	2 134 26 is_stmt 1              @ rt-thread/src/thread.c:134:26
	ldr	r0, [sp, #44]
	.loc	2 134 5 is_stmt 0               @ rt-thread/src/thread.c:134:5
	ldr	r1, [sp, #28]
	.loc	2 134 24                        @ rt-thread/src/thread.c:134:24
	str	r0, [r1, #44]
	.loc	2 137 15 is_stmt 1              @ rt-thread/src/thread.c:137:15
	ldr	r1, [sp, #28]
	.loc	2 137 23 is_stmt 0              @ rt-thread/src/thread.c:137:23
	ldr	r0, [r1, #40]
	.loc	2 137 48                        @ rt-thread/src/thread.c:137:48
	ldr	r2, [r1, #44]
	movs	r1, #35
	.loc	2 137 5                         @ rt-thread/src/thread.c:137:5
	bl	rt_memset
	.loc	2 143 43 is_stmt 1              @ rt-thread/src/thread.c:143:43
	ldr	r3, [sp, #28]
	.loc	2 143 51 is_stmt 0              @ rt-thread/src/thread.c:143:51
	ldr	r0, [r3, #32]
	.loc	2 143 66                        @ rt-thread/src/thread.c:143:66
	ldr	r1, [r3, #36]
	.loc	2 144 74 is_stmt 1              @ rt-thread/src/thread.c:144:74
	ldr	r2, [r3, #40]
	.loc	2 144 95 is_stmt 0              @ rt-thread/src/thread.c:144:95
	ldr	r3, [r3, #44]
	.loc	2 144 85                        @ rt-thread/src/thread.c:144:85
	add	r2, r3
	.loc	2 144 106                       @ rt-thread/src/thread.c:144:106
	subs	r2, #4
	.loc	2 143 26 is_stmt 1              @ rt-thread/src/thread.c:143:26
	movw	r3, :lower16:rt_thread_exit
	movt	r3, :upper16:rt_thread_exit
	bl	rt_hw_stack_init
	.loc	2 143 5 is_stmt 0               @ rt-thread/src/thread.c:143:5
	ldr	r1, [sp, #28]
	.loc	2 143 16                        @ rt-thread/src/thread.c:143:16
	str	r0, [r1, #28]
.Ltmp25:
	.loc	2 149 5 is_stmt 1               @ rt-thread/src/thread.c:149:5
	ldrb.w	r0, [sp, #15]
.Ltmp26:
	.loc	2 149 5 is_stmt 0               @ rt-thread/src/thread.c:149:5
	cmp	r0, #32
	blt	.LBB7_2
	b	.LBB7_1
.LBB7_1:
.Ltmp27:
	.loc	2 149 5                         @ rt-thread/src/thread.c:149:5
	movw	r0, :lower16:.L.str.10
	movt	r0, :upper16:.L.str.10
	movw	r1, :lower16:.L__FUNCTION__._rt_thread_init
	movt	r1, :upper16:.L__FUNCTION__._rt_thread_init
	movs	r2, #149
	bl	rt_assert_handler
	b	.LBB7_2
.Ltmp28:
.LBB7_2:
	.loc	2 150 32 is_stmt 1              @ rt-thread/src/thread.c:150:32
	ldrb.w	r0, [sp, #15]
	.loc	2 150 5 is_stmt 0               @ rt-thread/src/thread.c:150:5
	ldr	r1, [sp, #28]
	.loc	2 150 30                        @ rt-thread/src/thread.c:150:30
	strb.w	r0, [r1, #54]
	.loc	2 151 32 is_stmt 1              @ rt-thread/src/thread.c:151:32
	ldrb.w	r0, [sp, #15]
	.loc	2 151 5 is_stmt 0               @ rt-thread/src/thread.c:151:5
	ldr	r1, [sp, #28]
	.loc	2 151 30                        @ rt-thread/src/thread.c:151:30
	strb.w	r0, [r1, #53]
	.loc	2 153 5 is_stmt 1               @ rt-thread/src/thread.c:153:5
	ldr	r0, [sp, #28]
	movs	r1, #0
	.loc	2 153 25 is_stmt 0              @ rt-thread/src/thread.c:153:25
	str	r1, [r0, #56]
	.loc	2 160 30 is_stmt 1              @ rt-thread/src/thread.c:160:30
	ldr	r0, [sp, #52]
	.loc	2 160 5 is_stmt 0               @ rt-thread/src/thread.c:160:5
	ldr	r2, [sp, #28]
	.loc	2 160 28                        @ rt-thread/src/thread.c:160:28
	str	r0, [r2, #68]
	.loc	2 161 30 is_stmt 1              @ rt-thread/src/thread.c:161:30
	ldr	r0, [sp, #52]
	.loc	2 161 5 is_stmt 0               @ rt-thread/src/thread.c:161:5
	ldr	r2, [sp, #28]
	.loc	2 161 28                        @ rt-thread/src/thread.c:161:28
	str	r0, [r2, #72]
	.loc	2 164 5 is_stmt 1               @ rt-thread/src/thread.c:164:5
	ldr	r0, [sp, #28]
	.loc	2 164 19 is_stmt 0              @ rt-thread/src/thread.c:164:19
	str	r1, [r0, #48]
	.loc	2 165 5 is_stmt 1               @ rt-thread/src/thread.c:165:5
	ldr	r0, [sp, #28]
	.loc	2 165 19 is_stmt 0              @ rt-thread/src/thread.c:165:19
	strb.w	r1, [r0, #52]
	.loc	2 179 5 is_stmt 1               @ rt-thread/src/thread.c:179:5
	ldr	r0, [sp, #28]
	.loc	2 179 23 is_stmt 0              @ rt-thread/src/thread.c:179:23
	str	r1, [r0, #120]
	.loc	2 180 5 is_stmt 1               @ rt-thread/src/thread.c:180:5
	ldr	r0, [sp, #28]
	.loc	2 180 23 is_stmt 0              @ rt-thread/src/thread.c:180:23
	str	r1, [r0, #124]
	.loc	2 183 21 is_stmt 1              @ rt-thread/src/thread.c:183:21
	ldr	r3, [sp, #28]
	.loc	2 183 29 is_stmt 0              @ rt-thread/src/thread.c:183:29
	add.w	r0, r3, #76
	.loc	2 183 5                         @ rt-thread/src/thread.c:183:5
	mov	r2, sp
	str	r1, [r2, #4]
	str	r1, [r2]
	movw	r2, :lower16:rt_thread_timeout
	movt	r2, :upper16:rt_thread_timeout
	mov	r1, r3
	bl	rt_timer_init
	.loc	2 206 5 is_stmt 1               @ rt-thread/src/thread.c:206:5
	b	.LBB7_3
.LBB7_3:
.Ltmp29:
	.loc	2 206 5 is_stmt 0               @ rt-thread/src/thread.c:206:5
	movw	r0, :lower16:rt_thread_inited_hook
	movt	r0, :upper16:rt_thread_inited_hook
	ldr	r0, [r0]
.Ltmp30:
	.loc	2 206 5                         @ rt-thread/src/thread.c:206:5
	cbz	r0, .LBB7_5
	b	.LBB7_4
.LBB7_4:
.Ltmp31:
	.loc	2 206 5                         @ rt-thread/src/thread.c:206:5
	movw	r0, :lower16:rt_thread_inited_hook
	movt	r0, :upper16:rt_thread_inited_hook
	ldr	r1, [r0]
	ldr	r0, [sp, #28]
	blx	r1
	b	.LBB7_5
.Ltmp32:
.LBB7_5:
	.loc	2 206 5                         @ rt-thread/src/thread.c:206:5
	b	.LBB7_6
.Ltmp33:
.LBB7_6:
	.loc	2 0 5                           @ rt-thread/src/thread.c:0:5
	movs	r0, #0
	.loc	2 208 5 is_stmt 1               @ rt-thread/src/thread.c:208:5
	add	sp, #32
	pop	{r7, pc}
.Ltmp34:
.Lfunc_end7:
	.size	_rt_thread_init, .Lfunc_end7-_rt_thread_init
	.cfi_endproc
	.cantunwind
	.fnend
                                        @ -- End function
	.section	.text.rt_thread_startup,"ax",%progbits
	.hidden	rt_thread_startup               @ -- Begin function rt_thread_startup
	.globl	rt_thread_startup
	.p2align	3
	.type	rt_thread_startup,%function
	.code	16                              @ @rt_thread_startup
	.thumb_func
rt_thread_startup:
.Lfunc_begin8:
	.loc	2 290 0                         @ rt-thread/src/thread.c:290:0
	.fnstart
	.cfi_startproc
@ %bb.0:
	.save	{r7, lr}
	push	{r7, lr}
	.cfi_def_cfa_offset 8
	.cfi_offset lr, -4
	.cfi_offset r7, -8
	.pad	#8
	sub	sp, #8
	.cfi_def_cfa_offset 16
	str	r0, [sp, #4]
.Ltmp35:
	.loc	2 292 5 prologue_end            @ rt-thread/src/thread.c:292:5
	ldr	r0, [sp, #4]
.Ltmp36:
	.loc	2 292 5 is_stmt 0               @ rt-thread/src/thread.c:292:5
	cbnz	r0, .LBB8_2
	b	.LBB8_1
.LBB8_1:
.Ltmp37:
	.loc	2 292 5                         @ rt-thread/src/thread.c:292:5
	movw	r0, :lower16:.L.str
	movt	r0, :upper16:.L.str
	movw	r1, :lower16:.L__FUNCTION__.rt_thread_startup
	movt	r1, :upper16:.L__FUNCTION__.rt_thread_startup
	mov.w	r2, #292
	bl	rt_assert_handler
	b	.LBB8_2
.Ltmp38:
.LBB8_2:
	.loc	2 293 5 is_stmt 1               @ rt-thread/src/thread.c:293:5
	ldr	r0, [sp, #4]
	ldrb.w	r0, [r0, #52]
.Ltmp39:
	.loc	2 293 5 is_stmt 0               @ rt-thread/src/thread.c:293:5
	lsls	r0, r0, #29
	cbz	r0, .LBB8_4
	b	.LBB8_3
.LBB8_3:
.Ltmp40:
	.loc	2 293 5                         @ rt-thread/src/thread.c:293:5
	movw	r0, :lower16:.L.str.2
	movt	r0, :upper16:.L.str.2
	movw	r1, :lower16:.L__FUNCTION__.rt_thread_startup
	movt	r1, :upper16:.L__FUNCTION__.rt_thread_startup
	movw	r2, #293
	bl	rt_assert_handler
	b	.LBB8_4
.Ltmp41:
.LBB8_4:
	.loc	2 294 5 is_stmt 1               @ rt-thread/src/thread.c:294:5
	ldr	r0, [sp, #4]
	bl	rt_object_get_type
.Ltmp42:
	.loc	2 294 5 is_stmt 0               @ rt-thread/src/thread.c:294:5
	cmp	r0, #1
	beq	.LBB8_6
	b	.LBB8_5
.LBB8_5:
.Ltmp43:
	.loc	2 294 5                         @ rt-thread/src/thread.c:294:5
	movw	r0, :lower16:.L.str.3
	movt	r0, :upper16:.L.str.3
	movw	r1, :lower16:.L__FUNCTION__.rt_thread_startup
	movt	r1, :upper16:.L__FUNCTION__.rt_thread_startup
	mov.w	r2, #294
	bl	rt_assert_handler
	b	.LBB8_6
.Ltmp44:
.LBB8_6:
	.loc	2 297 32 is_stmt 1              @ rt-thread/src/thread.c:297:32
	ldr	r1, [sp, #4]
	.loc	2 297 40 is_stmt 0              @ rt-thread/src/thread.c:297:40
	ldrb.w	r0, [r1, #54]
	.loc	2 297 30                        @ rt-thread/src/thread.c:297:30
	strb.w	r0, [r1, #53]
	.loc	2 305 33 is_stmt 1              @ rt-thread/src/thread.c:305:33
	ldr	r1, [sp, #4]
	.loc	2 305 41 is_stmt 0              @ rt-thread/src/thread.c:305:41
	ldrb.w	r2, [r1, #53]
	movs	r0, #1
	.loc	2 305 30                        @ rt-thread/src/thread.c:305:30
	lsls	r0, r2
	.loc	2 305 25                        @ rt-thread/src/thread.c:305:25
	str	r0, [r1, #56]
	.loc	2 308 5 is_stmt 1               @ rt-thread/src/thread.c:308:5
	b	.LBB8_7
.LBB8_7:
.Ltmp45:
	.loc	2 308 5 is_stmt 0               @ rt-thread/src/thread.c:308:5
	b	.LBB8_8
.Ltmp46:
.LBB8_8:
	.loc	2 311 5 is_stmt 1               @ rt-thread/src/thread.c:311:5
	ldr	r1, [sp, #4]
	movs	r0, #2
	.loc	2 311 18 is_stmt 0              @ rt-thread/src/thread.c:311:18
	strb.w	r0, [r1, #52]
	.loc	2 313 22 is_stmt 1              @ rt-thread/src/thread.c:313:22
	ldr	r0, [sp, #4]
	.loc	2 313 5 is_stmt 0               @ rt-thread/src/thread.c:313:5
	bl	rt_thread_resume
.Ltmp47:
	.loc	2 314 9 is_stmt 1               @ rt-thread/src/thread.c:314:9
	bl	rt_thread_self
.Ltmp48:
	.loc	2 314 9 is_stmt 0               @ rt-thread/src/thread.c:314:9
	cbz	r0, .LBB8_10
	b	.LBB8_9
.LBB8_9:
.Ltmp49:
	.loc	2 317 9 is_stmt 1               @ rt-thread/src/thread.c:317:9
	bl	rt_schedule
	.loc	2 318 5                         @ rt-thread/src/thread.c:318:5
	b	.LBB8_10
.Ltmp50:
.LBB8_10:
	.loc	2 0 5 is_stmt 0                 @ rt-thread/src/thread.c:0:5
	movs	r0, #0
	.loc	2 320 5 is_stmt 1               @ rt-thread/src/thread.c:320:5
	add	sp, #8
	pop	{r7, pc}
.Ltmp51:
.Lfunc_end8:
	.size	rt_thread_startup, .Lfunc_end8-rt_thread_startup
	.cfi_endproc
	.cantunwind
	.fnend
                                        @ -- End function
	.section	.text.rt_thread_resume,"ax",%progbits
	.hidden	rt_thread_resume                @ -- Begin function rt_thread_resume
	.globl	rt_thread_resume
	.p2align	3
	.type	rt_thread_resume,%function
	.code	16                              @ @rt_thread_resume
	.thumb_func
rt_thread_resume:
.Lfunc_begin9:
	.loc	2 771 0                         @ rt-thread/src/thread.c:771:0
	.fnstart
	.cfi_startproc
@ %bb.0:
	.save	{r7, lr}
	push	{r7, lr}
	.cfi_def_cfa_offset 8
	.cfi_offset lr, -4
	.cfi_offset r7, -8
	.pad	#16
	sub	sp, #16
	.cfi_def_cfa_offset 24
	str	r0, [sp, #8]
.Ltmp52:
	.loc	2 775 5 prologue_end            @ rt-thread/src/thread.c:775:5
	ldr	r0, [sp, #8]
.Ltmp53:
	.loc	2 775 5 is_stmt 0               @ rt-thread/src/thread.c:775:5
	cbnz	r0, .LBB9_2
	b	.LBB9_1
.LBB9_1:
.Ltmp54:
	.loc	2 775 5                         @ rt-thread/src/thread.c:775:5
	movw	r0, :lower16:.L.str
	movt	r0, :upper16:.L.str
	movw	r1, :lower16:.L__FUNCTION__.rt_thread_resume
	movt	r1, :upper16:.L__FUNCTION__.rt_thread_resume
	movw	r2, #775
	bl	rt_assert_handler
	b	.LBB9_2
.Ltmp55:
.LBB9_2:
	.loc	2 776 5 is_stmt 1               @ rt-thread/src/thread.c:776:5
	ldr	r0, [sp, #8]
	bl	rt_object_get_type
.Ltmp56:
	.loc	2 776 5 is_stmt 0               @ rt-thread/src/thread.c:776:5
	cmp	r0, #1
	beq	.LBB9_4
	b	.LBB9_3
.LBB9_3:
.Ltmp57:
	.loc	2 776 5                         @ rt-thread/src/thread.c:776:5
	movw	r0, :lower16:.L.str.3
	movt	r0, :upper16:.L.str.3
	movw	r1, :lower16:.L__FUNCTION__.rt_thread_resume
	movt	r1, :upper16:.L__FUNCTION__.rt_thread_resume
	mov.w	r2, #776
	bl	rt_assert_handler
	b	.LBB9_4
.Ltmp58:
.LBB9_4:
	.loc	2 778 5 is_stmt 1               @ rt-thread/src/thread.c:778:5
	b	.LBB9_5
.LBB9_5:
.Ltmp59:
	.loc	2 778 5 is_stmt 0               @ rt-thread/src/thread.c:778:5
	b	.LBB9_6
.Ltmp60:
.LBB9_6:
	.loc	2 780 10 is_stmt 1              @ rt-thread/src/thread.c:780:10
	ldr	r0, [sp, #8]
	ldrb.w	r0, [r0, #52]
	.loc	2 780 23 is_stmt 0              @ rt-thread/src/thread.c:780:23
	and	r0, r0, #7
.Ltmp61:
	.loc	2 780 9                         @ rt-thread/src/thread.c:780:9
	cmp	r0, #2
	beq	.LBB9_10
	b	.LBB9_7
.LBB9_7:
.Ltmp62:
	.loc	2 782 9 is_stmt 1               @ rt-thread/src/thread.c:782:9
	b	.LBB9_8
.LBB9_8:
.Ltmp63:
	.loc	2 782 9 is_stmt 0               @ rt-thread/src/thread.c:782:9
	b	.LBB9_9
.Ltmp64:
.LBB9_9:
	.loc	2 0 9                           @ rt-thread/src/thread.c:0:9
	mov.w	r0, #-1
	.loc	2 785 9 is_stmt 1               @ rt-thread/src/thread.c:785:9
	str	r0, [sp, #12]
	b	.LBB9_15
.Ltmp65:
.LBB9_10:
	.loc	2 789 12                        @ rt-thread/src/thread.c:789:12
	bl	rt_hw_interrupt_disable
	.loc	2 789 10 is_stmt 0              @ rt-thread/src/thread.c:789:10
	str	r0, [sp, #4]
	.loc	2 792 22 is_stmt 1              @ rt-thread/src/thread.c:792:22
	ldr	r0, [sp, #8]
	.loc	2 792 30 is_stmt 0              @ rt-thread/src/thread.c:792:30
	adds	r0, #20
	.loc	2 792 5                         @ rt-thread/src/thread.c:792:5
	bl	rt_list_remove
	.loc	2 794 20 is_stmt 1              @ rt-thread/src/thread.c:794:20
	ldr	r0, [sp, #8]
	.loc	2 794 28 is_stmt 0              @ rt-thread/src/thread.c:794:28
	adds	r0, #76
	.loc	2 794 5                         @ rt-thread/src/thread.c:794:5
	bl	rt_timer_stop
	.loc	2 797 28 is_stmt 1              @ rt-thread/src/thread.c:797:28
	ldr	r0, [sp, #4]
	.loc	2 797 5 is_stmt 0               @ rt-thread/src/thread.c:797:5
	bl	rt_hw_interrupt_enable
	.loc	2 800 31 is_stmt 1              @ rt-thread/src/thread.c:800:31
	ldr	r0, [sp, #8]
	.loc	2 800 5 is_stmt 0               @ rt-thread/src/thread.c:800:5
	bl	rt_schedule_insert_thread
	.loc	2 802 5 is_stmt 1               @ rt-thread/src/thread.c:802:5
	b	.LBB9_11
.LBB9_11:
.Ltmp66:
	.loc	2 802 5 is_stmt 0               @ rt-thread/src/thread.c:802:5
	movw	r0, :lower16:rt_thread_resume_hook
	movt	r0, :upper16:rt_thread_resume_hook
	ldr	r0, [r0]
.Ltmp67:
	.loc	2 802 5                         @ rt-thread/src/thread.c:802:5
	cbz	r0, .LBB9_13
	b	.LBB9_12
.LBB9_12:
.Ltmp68:
	.loc	2 802 5                         @ rt-thread/src/thread.c:802:5
	movw	r0, :lower16:rt_thread_resume_hook
	movt	r0, :upper16:rt_thread_resume_hook
	ldr	r1, [r0]
	ldr	r0, [sp, #8]
	blx	r1
	b	.LBB9_13
.Ltmp69:
.LBB9_13:
	.loc	2 802 5                         @ rt-thread/src/thread.c:802:5
	b	.LBB9_14
.Ltmp70:
.LBB9_14:
	.loc	2 0 5                           @ rt-thread/src/thread.c:0:5
	movs	r0, #0
	.loc	2 803 5 is_stmt 1               @ rt-thread/src/thread.c:803:5
	str	r0, [sp, #12]
	b	.LBB9_15
.LBB9_15:
	.loc	2 804 1                         @ rt-thread/src/thread.c:804:1
	ldr	r0, [sp, #12]
	add	sp, #16
	pop	{r7, pc}
.Ltmp71:
.Lfunc_end9:
	.size	rt_thread_resume, .Lfunc_end9-rt_thread_resume
	.cfi_endproc
	.cantunwind
	.fnend
                                        @ -- End function
	.section	.text.rt_thread_detach,"ax",%progbits
	.hidden	rt_thread_detach                @ -- Begin function rt_thread_detach
	.globl	rt_thread_detach
	.p2align	3
	.type	rt_thread_detach,%function
	.code	16                              @ @rt_thread_detach
	.thumb_func
rt_thread_detach:
.Lfunc_begin10:
	.loc	2 333 0                         @ rt-thread/src/thread.c:333:0
	.fnstart
	.cfi_startproc
@ %bb.0:
	.save	{r7, lr}
	push	{r7, lr}
	.cfi_def_cfa_offset 8
	.cfi_offset lr, -4
	.cfi_offset r7, -8
	.pad	#16
	sub	sp, #16
	.cfi_def_cfa_offset 24
	str	r0, [sp, #8]
.Ltmp72:
	.loc	2 337 5 prologue_end            @ rt-thread/src/thread.c:337:5
	ldr	r0, [sp, #8]
.Ltmp73:
	.loc	2 337 5 is_stmt 0               @ rt-thread/src/thread.c:337:5
	cbnz	r0, .LBB10_2
	b	.LBB10_1
.LBB10_1:
.Ltmp74:
	.loc	2 337 5                         @ rt-thread/src/thread.c:337:5
	movw	r0, :lower16:.L.str
	movt	r0, :upper16:.L.str
	movw	r1, :lower16:.L__FUNCTION__.rt_thread_detach
	movt	r1, :upper16:.L__FUNCTION__.rt_thread_detach
	movw	r2, #337
	bl	rt_assert_handler
	b	.LBB10_2
.Ltmp75:
.LBB10_2:
	.loc	2 338 5 is_stmt 1               @ rt-thread/src/thread.c:338:5
	ldr	r0, [sp, #8]
	bl	rt_object_get_type
.Ltmp76:
	.loc	2 338 5 is_stmt 0               @ rt-thread/src/thread.c:338:5
	cmp	r0, #1
	beq	.LBB10_4
	b	.LBB10_3
.LBB10_3:
.Ltmp77:
	.loc	2 338 5                         @ rt-thread/src/thread.c:338:5
	movw	r0, :lower16:.L.str.3
	movt	r0, :upper16:.L.str.3
	movw	r1, :lower16:.L__FUNCTION__.rt_thread_detach
	movt	r1, :upper16:.L__FUNCTION__.rt_thread_detach
	mov.w	r2, #338
	bl	rt_assert_handler
	b	.LBB10_4
.Ltmp78:
.LBB10_4:
	.loc	2 339 5 is_stmt 1               @ rt-thread/src/thread.c:339:5
	ldr	r0, [sp, #8]
	bl	rt_object_is_systemobject
.Ltmp79:
	.loc	2 339 5 is_stmt 0               @ rt-thread/src/thread.c:339:5
	cbnz	r0, .LBB10_6
	b	.LBB10_5
.LBB10_5:
.Ltmp80:
	.loc	2 339 5                         @ rt-thread/src/thread.c:339:5
	movw	r0, :lower16:.L.str.4
	movt	r0, :upper16:.L.str.4
	movw	r1, :lower16:.L__FUNCTION__.rt_thread_detach
	movt	r1, :upper16:.L__FUNCTION__.rt_thread_detach
	movw	r2, #339
	bl	rt_assert_handler
	b	.LBB10_6
.Ltmp81:
.LBB10_6:
	.loc	2 341 10 is_stmt 1              @ rt-thread/src/thread.c:341:10
	ldr	r0, [sp, #8]
	ldrb.w	r0, [r0, #52]
	.loc	2 341 23 is_stmt 0              @ rt-thread/src/thread.c:341:23
	and	r0, r0, #7
.Ltmp82:
	.loc	2 341 9                         @ rt-thread/src/thread.c:341:9
	cmp	r0, #4
	bne	.LBB10_8
	b	.LBB10_7
.LBB10_7:
	.loc	2 0 9                           @ rt-thread/src/thread.c:0:9
	movs	r0, #0
.Ltmp83:
	.loc	2 342 9 is_stmt 1               @ rt-thread/src/thread.c:342:9
	str	r0, [sp, #12]
	b	.LBB10_15
.Ltmp84:
.LBB10_8:
	.loc	2 344 10                        @ rt-thread/src/thread.c:344:10
	ldr	r0, [sp, #8]
	ldrb.w	r0, [r0, #52]
.Ltmp85:
	.loc	2 344 9 is_stmt 0               @ rt-thread/src/thread.c:344:9
	lsls	r0, r0, #29
	cbz	r0, .LBB10_10
	b	.LBB10_9
.LBB10_9:
.Ltmp86:
	.loc	2 347 35 is_stmt 1              @ rt-thread/src/thread.c:347:35
	ldr	r0, [sp, #8]
	.loc	2 347 9 is_stmt 0               @ rt-thread/src/thread.c:347:9
	bl	rt_schedule_remove_thread
	.loc	2 348 5 is_stmt 1               @ rt-thread/src/thread.c:348:5
	b	.LBB10_10
.Ltmp87:
.LBB10_10:
	.loc	2 351 23                        @ rt-thread/src/thread.c:351:23
	ldr	r0, [sp, #8]
	.loc	2 351 31 is_stmt 0              @ rt-thread/src/thread.c:351:31
	adds	r0, #76
	.loc	2 351 5                         @ rt-thread/src/thread.c:351:5
	bl	rt_timer_detach
	.loc	2 354 5 is_stmt 1               @ rt-thread/src/thread.c:354:5
	ldr	r1, [sp, #8]
	movs	r0, #4
	.loc	2 354 18 is_stmt 0              @ rt-thread/src/thread.c:354:18
	strb.w	r0, [r1, #52]
.Ltmp88:
	.loc	2 356 49 is_stmt 1              @ rt-thread/src/thread.c:356:49
	ldr	r0, [sp, #8]
	.loc	2 356 10 is_stmt 0              @ rt-thread/src/thread.c:356:10
	bl	rt_object_is_systemobject
	.loc	2 356 69                        @ rt-thread/src/thread.c:356:69
	cmp	r0, #1
	bne	.LBB10_13
	b	.LBB10_11
.LBB10_11:
	.loc	2 357 9 is_stmt 1               @ rt-thread/src/thread.c:357:9
	ldr	r0, [sp, #8]
	.loc	2 357 17 is_stmt 0              @ rt-thread/src/thread.c:357:17
	ldr	r0, [r0, #120]
.Ltmp89:
	.loc	2 356 9 is_stmt 1               @ rt-thread/src/thread.c:356:9
	cbnz	r0, .LBB10_13
	b	.LBB10_12
.LBB10_12:
.Ltmp90:
	.loc	2 359 39                        @ rt-thread/src/thread.c:359:39
	ldr	r0, [sp, #8]
	.loc	2 359 9 is_stmt 0               @ rt-thread/src/thread.c:359:9
	bl	rt_object_detach
	.loc	2 360 5 is_stmt 1               @ rt-thread/src/thread.c:360:5
	b	.LBB10_14
.Ltmp91:
.LBB10_13:
	.loc	2 364 16                        @ rt-thread/src/thread.c:364:16
	bl	rt_hw_interrupt_disable
	.loc	2 364 14 is_stmt 0              @ rt-thread/src/thread.c:364:14
	str	r0, [sp, #4]
	.loc	2 366 52 is_stmt 1              @ rt-thread/src/thread.c:366:52
	ldr	r0, [sp, #8]
	.loc	2 366 60 is_stmt 0              @ rt-thread/src/thread.c:366:60
	add.w	r1, r0, #20
	.loc	2 366 9                         @ rt-thread/src/thread.c:366:9
	movw	r0, :lower16:rt_thread_defunct
	movt	r0, :upper16:rt_thread_defunct
	bl	rt_list_insert_after
	.loc	2 368 32 is_stmt 1              @ rt-thread/src/thread.c:368:32
	ldr	r0, [sp, #4]
	.loc	2 368 9 is_stmt 0               @ rt-thread/src/thread.c:368:9
	bl	rt_hw_interrupt_enable
	b	.LBB10_14
.Ltmp92:
.LBB10_14:
	.loc	2 0 9                           @ rt-thread/src/thread.c:0:9
	movs	r0, #0
	.loc	2 371 5 is_stmt 1               @ rt-thread/src/thread.c:371:5
	str	r0, [sp, #12]
	b	.LBB10_15
.LBB10_15:
	.loc	2 372 1                         @ rt-thread/src/thread.c:372:1
	ldr	r0, [sp, #12]
	add	sp, #16
	pop	{r7, pc}
.Ltmp93:
.Lfunc_end10:
	.size	rt_thread_detach, .Lfunc_end10-rt_thread_detach
	.cfi_endproc
	.cantunwind
	.fnend
                                        @ -- End function
	.section	.text.rt_thread_create,"ax",%progbits
	.hidden	rt_thread_create                @ -- Begin function rt_thread_create
	.globl	rt_thread_create
	.p2align	3
	.type	rt_thread_create,%function
	.code	16                              @ @rt_thread_create
	.thumb_func
rt_thread_create:
.Lfunc_begin11:
	.loc	2 395 0                         @ rt-thread/src/thread.c:395:0
	.fnstart
	.cfi_startproc
@ %bb.0:
	.save	{r4, r5, r6, lr}
	push	{r4, r5, r6, lr}
	.cfi_def_cfa_offset 16
	.cfi_offset lr, -4
	.cfi_offset r6, -8
	.cfi_offset r5, -12
	.cfi_offset r4, -16
	.pad	#48
	sub	sp, #48
	.cfi_def_cfa_offset 64
	mov	r12, r0
	ldr	r0, [sp, #68]
	ldr	r0, [sp, #64]
	str.w	r12, [sp, #40]
	str	r1, [sp, #36]
	str	r2, [sp, #32]
	str	r3, [sp, #28]
	strb.w	r0, [sp, #27]
.Ltmp94:
	.loc	2 400 53 prologue_end           @ rt-thread/src/thread.c:400:53
	ldr	r1, [sp, #40]
	movs	r0, #1
	.loc	2 399 34                        @ rt-thread/src/thread.c:399:34
	bl	rt_object_allocate
	.loc	2 399 12 is_stmt 0              @ rt-thread/src/thread.c:399:12
	str	r0, [sp, #20]
.Ltmp95:
	.loc	2 401 9 is_stmt 1               @ rt-thread/src/thread.c:401:9
	ldr	r0, [sp, #20]
.Ltmp96:
	.loc	2 401 9 is_stmt 0               @ rt-thread/src/thread.c:401:9
	cbnz	r0, .LBB11_2
	b	.LBB11_1
.LBB11_1:
	.loc	2 0 9                           @ rt-thread/src/thread.c:0:9
	movs	r0, #0
.Ltmp97:
	.loc	2 402 9 is_stmt 1               @ rt-thread/src/thread.c:402:9
	str	r0, [sp, #44]
	b	.LBB11_5
.Ltmp98:
.LBB11_2:
	.loc	2 404 27                        @ rt-thread/src/thread.c:404:27
	ldr	r0, [sp, #28]
	bl	rt_malloc
	.loc	2 404 17 is_stmt 0              @ rt-thread/src/thread.c:404:17
	str	r0, [sp, #16]
.Ltmp99:
	.loc	2 405 9 is_stmt 1               @ rt-thread/src/thread.c:405:9
	ldr	r0, [sp, #16]
.Ltmp100:
	.loc	2 405 9 is_stmt 0               @ rt-thread/src/thread.c:405:9
	cbnz	r0, .LBB11_4
	b	.LBB11_3
.LBB11_3:
.Ltmp101:
	.loc	2 408 39 is_stmt 1              @ rt-thread/src/thread.c:408:39
	ldr	r0, [sp, #20]
	.loc	2 408 9 is_stmt 0               @ rt-thread/src/thread.c:408:9
	bl	rt_object_delete
	movs	r0, #0
	.loc	2 410 9 is_stmt 1               @ rt-thread/src/thread.c:410:9
	str	r0, [sp, #44]
	b	.LBB11_5
.Ltmp102:
.LBB11_4:
	.loc	2 413 21                        @ rt-thread/src/thread.c:413:21
	ldr	r0, [sp, #20]
	.loc	2 414 21                        @ rt-thread/src/thread.c:414:21
	ldr	r1, [sp, #40]
	.loc	2 415 21                        @ rt-thread/src/thread.c:415:21
	ldr	r2, [sp, #36]
	.loc	2 416 21                        @ rt-thread/src/thread.c:416:21
	ldr	r3, [sp, #32]
	.loc	2 417 21                        @ rt-thread/src/thread.c:417:21
	ldr.w	r12, [sp, #16]
	.loc	2 418 21                        @ rt-thread/src/thread.c:418:21
	ldr	r4, [sp, #28]
	.loc	2 419 21                        @ rt-thread/src/thread.c:419:21
	ldrb.w	r5, [sp, #27]
	.loc	2 420 21                        @ rt-thread/src/thread.c:420:21
	ldr	r6, [sp, #68]
	.loc	2 413 5                         @ rt-thread/src/thread.c:413:5
	mov	lr, sp
	str.w	r6, [lr, #12]
	str.w	r5, [lr, #8]
	str.w	r4, [lr, #4]
	str.w	r12, [lr]
	bl	_rt_thread_init
	.loc	2 422 12                        @ rt-thread/src/thread.c:422:12
	ldr	r0, [sp, #20]
	.loc	2 422 5 is_stmt 0               @ rt-thread/src/thread.c:422:5
	str	r0, [sp, #44]
	b	.LBB11_5
.LBB11_5:
	.loc	2 423 1 is_stmt 1               @ rt-thread/src/thread.c:423:1
	ldr	r0, [sp, #44]
	add	sp, #48
	pop	{r4, r5, r6, pc}
.Ltmp103:
.Lfunc_end11:
	.size	rt_thread_create, .Lfunc_end11-rt_thread_create
	.cfi_endproc
	.cantunwind
	.fnend
                                        @ -- End function
	.section	.text.rt_thread_delete,"ax",%progbits
	.hidden	rt_thread_delete                @ -- Begin function rt_thread_delete
	.globl	rt_thread_delete
	.p2align	3
	.type	rt_thread_delete,%function
	.code	16                              @ @rt_thread_delete
	.thumb_func
rt_thread_delete:
.Lfunc_begin12:
	.loc	2 435 0                         @ rt-thread/src/thread.c:435:0
	.fnstart
	.cfi_startproc
@ %bb.0:
	.save	{r7, lr}
	push	{r7, lr}
	.cfi_def_cfa_offset 8
	.cfi_offset lr, -4
	.cfi_offset r7, -8
	.pad	#16
	sub	sp, #16
	.cfi_def_cfa_offset 24
	str	r0, [sp, #8]
.Ltmp104:
	.loc	2 439 5 prologue_end            @ rt-thread/src/thread.c:439:5
	ldr	r0, [sp, #8]
.Ltmp105:
	.loc	2 439 5 is_stmt 0               @ rt-thread/src/thread.c:439:5
	cbnz	r0, .LBB12_2
	b	.LBB12_1
.LBB12_1:
.Ltmp106:
	.loc	2 439 5                         @ rt-thread/src/thread.c:439:5
	movw	r0, :lower16:.L.str
	movt	r0, :upper16:.L.str
	movw	r1, :lower16:.L__FUNCTION__.rt_thread_delete
	movt	r1, :upper16:.L__FUNCTION__.rt_thread_delete
	movw	r2, #439
	bl	rt_assert_handler
	b	.LBB12_2
.Ltmp107:
.LBB12_2:
	.loc	2 440 5 is_stmt 1               @ rt-thread/src/thread.c:440:5
	ldr	r0, [sp, #8]
	bl	rt_object_get_type
.Ltmp108:
	.loc	2 440 5 is_stmt 0               @ rt-thread/src/thread.c:440:5
	cmp	r0, #1
	beq	.LBB12_4
	b	.LBB12_3
.LBB12_3:
.Ltmp109:
	.loc	2 440 5                         @ rt-thread/src/thread.c:440:5
	movw	r0, :lower16:.L.str.3
	movt	r0, :upper16:.L.str.3
	movw	r1, :lower16:.L__FUNCTION__.rt_thread_delete
	movt	r1, :upper16:.L__FUNCTION__.rt_thread_delete
	mov.w	r2, #440
	bl	rt_assert_handler
	b	.LBB12_4
.Ltmp110:
.LBB12_4:
	.loc	2 441 5 is_stmt 1               @ rt-thread/src/thread.c:441:5
	ldr	r0, [sp, #8]
	bl	rt_object_is_systemobject
.Ltmp111:
	.loc	2 441 5 is_stmt 0               @ rt-thread/src/thread.c:441:5
	cbz	r0, .LBB12_6
	b	.LBB12_5
.LBB12_5:
.Ltmp112:
	.loc	2 441 5                         @ rt-thread/src/thread.c:441:5
	movw	r0, :lower16:.L.str.5
	movt	r0, :upper16:.L.str.5
	movw	r1, :lower16:.L__FUNCTION__.rt_thread_delete
	movt	r1, :upper16:.L__FUNCTION__.rt_thread_delete
	movw	r2, #441
	bl	rt_assert_handler
	b	.LBB12_6
.Ltmp113:
.LBB12_6:
	.loc	2 443 10 is_stmt 1              @ rt-thread/src/thread.c:443:10
	ldr	r0, [sp, #8]
	ldrb.w	r0, [r0, #52]
	.loc	2 443 23 is_stmt 0              @ rt-thread/src/thread.c:443:23
	and	r0, r0, #7
.Ltmp114:
	.loc	2 443 9                         @ rt-thread/src/thread.c:443:9
	cmp	r0, #4
	bne	.LBB12_8
	b	.LBB12_7
.LBB12_7:
	.loc	2 0 9                           @ rt-thread/src/thread.c:0:9
	movs	r0, #0
.Ltmp115:
	.loc	2 444 9 is_stmt 1               @ rt-thread/src/thread.c:444:9
	str	r0, [sp, #12]
	b	.LBB12_11
.Ltmp116:
.LBB12_8:
	.loc	2 446 10                        @ rt-thread/src/thread.c:446:10
	ldr	r0, [sp, #8]
	ldrb.w	r0, [r0, #52]
.Ltmp117:
	.loc	2 446 9 is_stmt 0               @ rt-thread/src/thread.c:446:9
	lsls	r0, r0, #29
	cbz	r0, .LBB12_10
	b	.LBB12_9
.LBB12_9:
.Ltmp118:
	.loc	2 449 35 is_stmt 1              @ rt-thread/src/thread.c:449:35
	ldr	r0, [sp, #8]
	.loc	2 449 9 is_stmt 0               @ rt-thread/src/thread.c:449:9
	bl	rt_schedule_remove_thread
	.loc	2 450 5 is_stmt 1               @ rt-thread/src/thread.c:450:5
	b	.LBB12_10
.Ltmp119:
.LBB12_10:
	.loc	2 453 23                        @ rt-thread/src/thread.c:453:23
	ldr	r0, [sp, #8]
	.loc	2 453 31 is_stmt 0              @ rt-thread/src/thread.c:453:31
	adds	r0, #76
	.loc	2 453 5                         @ rt-thread/src/thread.c:453:5
	bl	rt_timer_detach
	.loc	2 456 12 is_stmt 1              @ rt-thread/src/thread.c:456:12
	bl	rt_hw_interrupt_disable
	.loc	2 456 10 is_stmt 0              @ rt-thread/src/thread.c:456:10
	str	r0, [sp, #4]
	.loc	2 459 5 is_stmt 1               @ rt-thread/src/thread.c:459:5
	ldr	r1, [sp, #8]
	movs	r0, #4
	.loc	2 459 18 is_stmt 0              @ rt-thread/src/thread.c:459:18
	strb.w	r0, [r1, #52]
	.loc	2 462 48 is_stmt 1              @ rt-thread/src/thread.c:462:48
	ldr	r0, [sp, #8]
	.loc	2 462 56 is_stmt 0              @ rt-thread/src/thread.c:462:56
	add.w	r1, r0, #20
	.loc	2 462 5                         @ rt-thread/src/thread.c:462:5
	movw	r0, :lower16:rt_thread_defunct
	movt	r0, :upper16:rt_thread_defunct
	bl	rt_list_insert_after
	.loc	2 465 28 is_stmt 1              @ rt-thread/src/thread.c:465:28
	ldr	r0, [sp, #4]
	.loc	2 465 5 is_stmt 0               @ rt-thread/src/thread.c:465:5
	bl	rt_hw_interrupt_enable
	movs	r0, #0
	.loc	2 467 5 is_stmt 1               @ rt-thread/src/thread.c:467:5
	str	r0, [sp, #12]
	b	.LBB12_11
.LBB12_11:
	.loc	2 468 1                         @ rt-thread/src/thread.c:468:1
	ldr	r0, [sp, #12]
	add	sp, #16
	pop	{r7, pc}
.Ltmp120:
.Lfunc_end12:
	.size	rt_thread_delete, .Lfunc_end12-rt_thread_delete
	.cfi_endproc
	.cantunwind
	.fnend
                                        @ -- End function
	.section	.text.rt_thread_yield,"ax",%progbits
	.hidden	rt_thread_yield                 @ -- Begin function rt_thread_yield
	.globl	rt_thread_yield
	.p2align	3
	.type	rt_thread_yield,%function
	.code	16                              @ @rt_thread_yield
	.thumb_func
rt_thread_yield:
.Lfunc_begin13:
	.loc	2 480 0                         @ rt-thread/src/thread.c:480:0
	.fnstart
	.cfi_startproc
@ %bb.0:
	.save	{r7, lr}
	push	{r7, lr}
	.cfi_def_cfa_offset 8
	.cfi_offset lr, -4
	.cfi_offset r7, -8
.Ltmp121:
	.loc	2 481 5 prologue_end            @ rt-thread/src/thread.c:481:5
	bl	rt_schedule
	movs	r0, #0
	.loc	2 483 5                         @ rt-thread/src/thread.c:483:5
	pop	{r7, pc}
.Ltmp122:
.Lfunc_end13:
	.size	rt_thread_yield, .Lfunc_end13-rt_thread_yield
	.cfi_endproc
	.cantunwind
	.fnend
                                        @ -- End function
	.section	.text.rt_thread_sleep,"ax",%progbits
	.hidden	rt_thread_sleep                 @ -- Begin function rt_thread_sleep
	.globl	rt_thread_sleep
	.p2align	3
	.type	rt_thread_sleep,%function
	.code	16                              @ @rt_thread_sleep
	.thumb_func
rt_thread_sleep:
.Lfunc_begin14:
	.loc	2 495 0                         @ rt-thread/src/thread.c:495:0
	.fnstart
	.cfi_startproc
@ %bb.0:
	.save	{r7, lr}
	push	{r7, lr}
	.cfi_def_cfa_offset 8
	.cfi_offset lr, -4
	.cfi_offset r7, -8
	.pad	#16
	sub	sp, #16
	.cfi_def_cfa_offset 24
	str	r0, [sp, #12]
.Ltmp123:
	.loc	2 500 14 prologue_end           @ rt-thread/src/thread.c:500:14
	bl	rt_thread_self
	.loc	2 500 12 is_stmt 0              @ rt-thread/src/thread.c:500:12
	str	r0, [sp, #4]
.Ltmp124:
	.loc	2 501 5 is_stmt 1               @ rt-thread/src/thread.c:501:5
	ldr	r0, [sp, #4]
.Ltmp125:
	.loc	2 501 5 is_stmt 0               @ rt-thread/src/thread.c:501:5
	cbnz	r0, .LBB14_2
	b	.LBB14_1
.LBB14_1:
.Ltmp126:
	.loc	2 501 5                         @ rt-thread/src/thread.c:501:5
	movw	r0, :lower16:.L.str
	movt	r0, :upper16:.L.str
	movw	r1, :lower16:.L__FUNCTION__.rt_thread_sleep
	movt	r1, :upper16:.L__FUNCTION__.rt_thread_sleep
	movw	r2, #501
	bl	rt_assert_handler
	b	.LBB14_2
.Ltmp127:
.LBB14_2:
	.loc	2 502 5 is_stmt 1               @ rt-thread/src/thread.c:502:5
	ldr	r0, [sp, #4]
	bl	rt_object_get_type
.Ltmp128:
	.loc	2 502 5 is_stmt 0               @ rt-thread/src/thread.c:502:5
	cmp	r0, #1
	beq	.LBB14_4
	b	.LBB14_3
.LBB14_3:
.Ltmp129:
	.loc	2 502 5                         @ rt-thread/src/thread.c:502:5
	movw	r0, :lower16:.L.str.3
	movt	r0, :upper16:.L.str.3
	movw	r1, :lower16:.L__FUNCTION__.rt_thread_sleep
	movt	r1, :upper16:.L__FUNCTION__.rt_thread_sleep
	mov.w	r2, #502
	bl	rt_assert_handler
	b	.LBB14_4
.Ltmp130:
.LBB14_4:
	.loc	2 505 12 is_stmt 1              @ rt-thread/src/thread.c:505:12
	bl	rt_hw_interrupt_disable
	.loc	2 505 10 is_stmt 0              @ rt-thread/src/thread.c:505:10
	str	r0, [sp, #8]
	.loc	2 508 23 is_stmt 1              @ rt-thread/src/thread.c:508:23
	ldr	r0, [sp, #4]
	.loc	2 508 5 is_stmt 0               @ rt-thread/src/thread.c:508:5
	bl	rt_thread_suspend
	.loc	2 511 24 is_stmt 1              @ rt-thread/src/thread.c:511:24
	ldr	r0, [sp, #4]
	.loc	2 511 32 is_stmt 0              @ rt-thread/src/thread.c:511:32
	adds	r0, #76
	movs	r1, #0
	add	r2, sp, #12
	.loc	2 511 5                         @ rt-thread/src/thread.c:511:5
	bl	rt_timer_control
	.loc	2 512 22 is_stmt 1              @ rt-thread/src/thread.c:512:22
	ldr	r0, [sp, #4]
	.loc	2 512 30 is_stmt 0              @ rt-thread/src/thread.c:512:30
	adds	r0, #76
	.loc	2 512 5                         @ rt-thread/src/thread.c:512:5
	bl	rt_timer_start
	.loc	2 515 28 is_stmt 1              @ rt-thread/src/thread.c:515:28
	ldr	r0, [sp, #8]
	.loc	2 515 5 is_stmt 0               @ rt-thread/src/thread.c:515:5
	bl	rt_hw_interrupt_enable
	.loc	2 517 5 is_stmt 1               @ rt-thread/src/thread.c:517:5
	bl	rt_schedule
.Ltmp131:
	.loc	2 520 9                         @ rt-thread/src/thread.c:520:9
	ldr	r0, [sp, #4]
	.loc	2 520 17 is_stmt 0              @ rt-thread/src/thread.c:520:17
	ldr	r0, [r0, #48]
.Ltmp132:
	.loc	2 520 9                         @ rt-thread/src/thread.c:520:9
	adds	r0, #2
	cbnz	r0, .LBB14_6
	b	.LBB14_5
.LBB14_5:
.Ltmp133:
	.loc	2 521 9 is_stmt 1               @ rt-thread/src/thread.c:521:9
	ldr	r1, [sp, #4]
	movs	r0, #0
	.loc	2 521 23 is_stmt 0              @ rt-thread/src/thread.c:521:23
	str	r0, [r1, #48]
	.loc	2 521 9                         @ rt-thread/src/thread.c:521:9
	b	.LBB14_6
.Ltmp134:
.LBB14_6:
	.loc	2 0 9                           @ rt-thread/src/thread.c:0:9
	movs	r0, #0
	.loc	2 523 5 is_stmt 1               @ rt-thread/src/thread.c:523:5
	add	sp, #16
	pop	{r7, pc}
.Ltmp135:
.Lfunc_end14:
	.size	rt_thread_sleep, .Lfunc_end14-rt_thread_sleep
	.cfi_endproc
	.cantunwind
	.fnend
                                        @ -- End function
	.section	.text.rt_thread_suspend,"ax",%progbits
	.hidden	rt_thread_suspend               @ -- Begin function rt_thread_suspend
	.globl	rt_thread_suspend
	.p2align	3
	.type	rt_thread_suspend,%function
	.code	16                              @ @rt_thread_suspend
	.thumb_func
rt_thread_suspend:
.Lfunc_begin15:
	.loc	2 722 0                         @ rt-thread/src/thread.c:722:0
	.fnstart
	.cfi_startproc
@ %bb.0:
	.save	{r7, lr}
	push	{r7, lr}
	.cfi_def_cfa_offset 8
	.cfi_offset lr, -4
	.cfi_offset r7, -8
	.pad	#24
	sub	sp, #24
	.cfi_def_cfa_offset 32
	str	r0, [sp, #16]
.Ltmp136:
	.loc	2 727 5 prologue_end            @ rt-thread/src/thread.c:727:5
	ldr	r0, [sp, #16]
.Ltmp137:
	.loc	2 727 5 is_stmt 0               @ rt-thread/src/thread.c:727:5
	cbnz	r0, .LBB15_2
	b	.LBB15_1
.LBB15_1:
.Ltmp138:
	.loc	2 727 5                         @ rt-thread/src/thread.c:727:5
	movw	r0, :lower16:.L.str
	movt	r0, :upper16:.L.str
	movw	r1, :lower16:.L__FUNCTION__.rt_thread_suspend
	movt	r1, :upper16:.L__FUNCTION__.rt_thread_suspend
	movw	r2, #727
	bl	rt_assert_handler
	b	.LBB15_2
.Ltmp139:
.LBB15_2:
	.loc	2 728 5 is_stmt 1               @ rt-thread/src/thread.c:728:5
	ldr	r0, [sp, #16]
	bl	rt_object_get_type
.Ltmp140:
	.loc	2 728 5 is_stmt 0               @ rt-thread/src/thread.c:728:5
	cmp	r0, #1
	beq	.LBB15_4
	b	.LBB15_3
.LBB15_3:
.Ltmp141:
	.loc	2 728 5                         @ rt-thread/src/thread.c:728:5
	movw	r0, :lower16:.L.str.3
	movt	r0, :upper16:.L.str.3
	movw	r1, :lower16:.L__FUNCTION__.rt_thread_suspend
	movt	r1, :upper16:.L__FUNCTION__.rt_thread_suspend
	mov.w	r2, #728
	bl	rt_assert_handler
	b	.LBB15_4
.Ltmp142:
.LBB15_4:
	.loc	2 730 5 is_stmt 1               @ rt-thread/src/thread.c:730:5
	b	.LBB15_5
.LBB15_5:
.Ltmp143:
	.loc	2 730 5 is_stmt 0               @ rt-thread/src/thread.c:730:5
	b	.LBB15_6
.Ltmp144:
.LBB15_6:
	.loc	2 732 12 is_stmt 1              @ rt-thread/src/thread.c:732:12
	ldr	r0, [sp, #16]
	ldrb.w	r0, [r0, #52]
	.loc	2 732 25 is_stmt 0              @ rt-thread/src/thread.c:732:25
	and	r0, r0, #7
	.loc	2 732 10                        @ rt-thread/src/thread.c:732:10
	str	r0, [sp, #12]
.Ltmp145:
	.loc	2 733 10 is_stmt 1              @ rt-thread/src/thread.c:733:10
	ldr	r0, [sp, #12]
	.loc	2 733 35 is_stmt 0              @ rt-thread/src/thread.c:733:35
	cmp	r0, #1
	beq	.LBB15_11
	b	.LBB15_7
.LBB15_7:
	.loc	2 733 39                        @ rt-thread/src/thread.c:733:39
	ldr	r0, [sp, #12]
.Ltmp146:
	.loc	2 733 9                         @ rt-thread/src/thread.c:733:9
	cmp	r0, #3
	beq	.LBB15_11
	b	.LBB15_8
.LBB15_8:
.Ltmp147:
	.loc	2 735 9 is_stmt 1               @ rt-thread/src/thread.c:735:9
	b	.LBB15_9
.LBB15_9:
.Ltmp148:
	.loc	2 735 9 is_stmt 0               @ rt-thread/src/thread.c:735:9
	b	.LBB15_10
.Ltmp149:
.LBB15_10:
	.loc	2 0 9                           @ rt-thread/src/thread.c:0:9
	mov.w	r0, #-1
	.loc	2 737 9 is_stmt 1               @ rt-thread/src/thread.c:737:9
	str	r0, [sp, #20]
	b	.LBB15_20
.Ltmp150:
.LBB15_11:
	.loc	2 741 12                        @ rt-thread/src/thread.c:741:12
	bl	rt_hw_interrupt_disable
	.loc	2 741 10 is_stmt 0              @ rt-thread/src/thread.c:741:10
	str	r0, [sp, #8]
.Ltmp151:
	.loc	2 742 9 is_stmt 1               @ rt-thread/src/thread.c:742:9
	ldr	r0, [sp, #12]
.Ltmp152:
	.loc	2 742 9 is_stmt 0               @ rt-thread/src/thread.c:742:9
	cmp	r0, #3
	bne	.LBB15_15
	b	.LBB15_12
.LBB15_12:
.Ltmp153:
	.loc	2 745 9 is_stmt 1               @ rt-thread/src/thread.c:745:9
	ldr	r0, [sp, #16]
	str	r0, [sp, #4]                    @ 4-byte Spill
	bl	rt_thread_self
	mov	r1, r0
.Ltmp154:
	.loc	2 745 9 is_stmt 0               @ rt-thread/src/thread.c:745:9
	ldr	r0, [sp, #4]                    @ 4-byte Reload
	cmp	r0, r1
	beq	.LBB15_14
	b	.LBB15_13
.LBB15_13:
.Ltmp155:
	.loc	2 745 9                         @ rt-thread/src/thread.c:745:9
	movw	r0, :lower16:.L.str.7
	movt	r0, :upper16:.L.str.7
	movw	r1, :lower16:.L__FUNCTION__.rt_thread_suspend
	movt	r1, :upper16:.L__FUNCTION__.rt_thread_suspend
	movw	r2, #745
	bl	rt_assert_handler
	b	.LBB15_14
.Ltmp156:
.LBB15_14:
	.loc	2 746 5 is_stmt 1               @ rt-thread/src/thread.c:746:5
	b	.LBB15_15
.Ltmp157:
.LBB15_15:
	.loc	2 749 31                        @ rt-thread/src/thread.c:749:31
	ldr	r0, [sp, #16]
	.loc	2 749 5 is_stmt 0               @ rt-thread/src/thread.c:749:5
	bl	rt_schedule_remove_thread
	.loc	2 750 41 is_stmt 1              @ rt-thread/src/thread.c:750:41
	ldr	r1, [sp, #16]
	ldrb.w	r0, [r1, #52]
	.loc	2 750 54 is_stmt 0              @ rt-thread/src/thread.c:750:54
	and	r0, r0, #248
	.loc	2 750 38                        @ rt-thread/src/thread.c:750:38
	adds	r0, #2
	.loc	2 750 18                        @ rt-thread/src/thread.c:750:18
	strb.w	r0, [r1, #52]
	.loc	2 753 21 is_stmt 1              @ rt-thread/src/thread.c:753:21
	ldr	r0, [sp, #16]
	.loc	2 753 29 is_stmt 0              @ rt-thread/src/thread.c:753:29
	adds	r0, #76
	.loc	2 753 5                         @ rt-thread/src/thread.c:753:5
	bl	rt_timer_stop
	.loc	2 756 28 is_stmt 1              @ rt-thread/src/thread.c:756:28
	ldr	r0, [sp, #8]
	.loc	2 756 5 is_stmt 0               @ rt-thread/src/thread.c:756:5
	bl	rt_hw_interrupt_enable
	.loc	2 758 5 is_stmt 1               @ rt-thread/src/thread.c:758:5
	b	.LBB15_16
.LBB15_16:
.Ltmp158:
	.loc	2 758 5 is_stmt 0               @ rt-thread/src/thread.c:758:5
	movw	r0, :lower16:rt_thread_suspend_hook
	movt	r0, :upper16:rt_thread_suspend_hook
	ldr	r0, [r0]
.Ltmp159:
	.loc	2 758 5                         @ rt-thread/src/thread.c:758:5
	cbz	r0, .LBB15_18
	b	.LBB15_17
.LBB15_17:
.Ltmp160:
	.loc	2 758 5                         @ rt-thread/src/thread.c:758:5
	movw	r0, :lower16:rt_thread_suspend_hook
	movt	r0, :upper16:rt_thread_suspend_hook
	ldr	r1, [r0]
	ldr	r0, [sp, #16]
	blx	r1
	b	.LBB15_18
.Ltmp161:
.LBB15_18:
	.loc	2 758 5                         @ rt-thread/src/thread.c:758:5
	b	.LBB15_19
.Ltmp162:
.LBB15_19:
	.loc	2 0 5                           @ rt-thread/src/thread.c:0:5
	movs	r0, #0
	.loc	2 759 5 is_stmt 1               @ rt-thread/src/thread.c:759:5
	str	r0, [sp, #20]
	b	.LBB15_20
.LBB15_20:
	.loc	2 760 1                         @ rt-thread/src/thread.c:760:1
	ldr	r0, [sp, #20]
	add	sp, #24
	pop	{r7, pc}
.Ltmp163:
.Lfunc_end15:
	.size	rt_thread_suspend, .Lfunc_end15-rt_thread_suspend
	.cfi_endproc
	.cantunwind
	.fnend
                                        @ -- End function
	.section	.text.rt_thread_delay,"ax",%progbits
	.hidden	rt_thread_delay                 @ -- Begin function rt_thread_delay
	.globl	rt_thread_delay
	.p2align	3
	.type	rt_thread_delay,%function
	.code	16                              @ @rt_thread_delay
	.thumb_func
rt_thread_delay:
.Lfunc_begin16:
	.loc	2 534 0                         @ rt-thread/src/thread.c:534:0
	.fnstart
	.cfi_startproc
@ %bb.0:
	.save	{r7, lr}
	push	{r7, lr}
	.cfi_def_cfa_offset 8
	.cfi_offset lr, -4
	.cfi_offset r7, -8
	.pad	#8
	sub	sp, #8
	.cfi_def_cfa_offset 16
	str	r0, [sp, #4]
.Ltmp164:
	.loc	2 535 28 prologue_end           @ rt-thread/src/thread.c:535:28
	ldr	r0, [sp, #4]
	.loc	2 535 12 is_stmt 0              @ rt-thread/src/thread.c:535:12
	bl	rt_thread_sleep
	.loc	2 535 5                         @ rt-thread/src/thread.c:535:5
	add	sp, #8
	pop	{r7, pc}
.Ltmp165:
.Lfunc_end16:
	.size	rt_thread_delay, .Lfunc_end16-rt_thread_delay
	.cfi_endproc
	.cantunwind
	.fnend
                                        @ -- End function
	.section	.text.rt_thread_delay_until,"ax",%progbits
	.hidden	rt_thread_delay_until           @ -- Begin function rt_thread_delay_until
	.globl	rt_thread_delay_until
	.p2align	3
	.type	rt_thread_delay_until,%function
	.code	16                              @ @rt_thread_delay_until
	.thumb_func
rt_thread_delay_until:
.Lfunc_begin17:
	.loc	2 548 0 is_stmt 1               @ rt-thread/src/thread.c:548:0
	.fnstart
	.cfi_startproc
@ %bb.0:
	.save	{r7, lr}
	push	{r7, lr}
	.cfi_def_cfa_offset 8
	.cfi_offset lr, -4
	.cfi_offset r7, -8
	.pad	#16
	sub	sp, #16
	.cfi_def_cfa_offset 24
	str	r0, [sp, #12]
	str	r1, [sp, #8]
.Ltmp166:
	.loc	2 552 5 prologue_end            @ rt-thread/src/thread.c:552:5
	ldr	r0, [sp, #12]
.Ltmp167:
	.loc	2 552 5 is_stmt 0               @ rt-thread/src/thread.c:552:5
	cbnz	r0, .LBB17_2
	b	.LBB17_1
.LBB17_1:
.Ltmp168:
	.loc	2 552 5                         @ rt-thread/src/thread.c:552:5
	movw	r0, :lower16:.L.str.6
	movt	r0, :upper16:.L.str.6
	movw	r1, :lower16:.L__FUNCTION__.rt_thread_delay_until
	movt	r1, :upper16:.L__FUNCTION__.rt_thread_delay_until
	mov.w	r2, #552
	bl	rt_assert_handler
	b	.LBB17_2
.Ltmp169:
.LBB17_2:
	.loc	2 555 14 is_stmt 1              @ rt-thread/src/thread.c:555:14
	bl	rt_thread_self
	.loc	2 555 12 is_stmt 0              @ rt-thread/src/thread.c:555:12
	str	r0, [sp]
.Ltmp170:
	.loc	2 556 5 is_stmt 1               @ rt-thread/src/thread.c:556:5
	ldr	r0, [sp]
.Ltmp171:
	.loc	2 556 5 is_stmt 0               @ rt-thread/src/thread.c:556:5
	cbnz	r0, .LBB17_4
	b	.LBB17_3
.LBB17_3:
.Ltmp172:
	.loc	2 556 5                         @ rt-thread/src/thread.c:556:5
	movw	r0, :lower16:.L.str
	movt	r0, :upper16:.L.str
	movw	r1, :lower16:.L__FUNCTION__.rt_thread_delay_until
	movt	r1, :upper16:.L__FUNCTION__.rt_thread_delay_until
	mov.w	r2, #556
	bl	rt_assert_handler
	b	.LBB17_4
.Ltmp173:
.LBB17_4:
	.loc	2 557 5 is_stmt 1               @ rt-thread/src/thread.c:557:5
	ldr	r0, [sp]
	bl	rt_object_get_type
.Ltmp174:
	.loc	2 557 5 is_stmt 0               @ rt-thread/src/thread.c:557:5
	cmp	r0, #1
	beq	.LBB17_6
	b	.LBB17_5
.LBB17_5:
.Ltmp175:
	.loc	2 557 5                         @ rt-thread/src/thread.c:557:5
	movw	r0, :lower16:.L.str.3
	movt	r0, :upper16:.L.str.3
	movw	r1, :lower16:.L__FUNCTION__.rt_thread_delay_until
	movt	r1, :upper16:.L__FUNCTION__.rt_thread_delay_until
	movw	r2, #557
	bl	rt_assert_handler
	b	.LBB17_6
.Ltmp176:
.LBB17_6:
	.loc	2 560 13 is_stmt 1              @ rt-thread/src/thread.c:560:13
	bl	rt_hw_interrupt_disable
	.loc	2 560 11 is_stmt 0              @ rt-thread/src/thread.c:560:11
	str	r0, [sp, #4]
.Ltmp177:
	.loc	2 562 9 is_stmt 1               @ rt-thread/src/thread.c:562:9
	bl	rt_tick_get
	.loc	2 562 26 is_stmt 0              @ rt-thread/src/thread.c:562:26
	ldr	r1, [sp, #12]
	.loc	2 562 25                        @ rt-thread/src/thread.c:562:25
	ldr	r1, [r1]
	.loc	2 562 23                        @ rt-thread/src/thread.c:562:23
	subs	r0, r0, r1
	.loc	2 562 33                        @ rt-thread/src/thread.c:562:33
	ldr	r1, [sp, #8]
.Ltmp178:
	.loc	2 562 9                         @ rt-thread/src/thread.c:562:9
	cmp	r0, r1
	bhs	.LBB17_10
	b	.LBB17_7
.LBB17_7:
.Ltmp179:
	.loc	2 564 17 is_stmt 1              @ rt-thread/src/thread.c:564:17
	bl	rt_tick_get
	.loc	2 564 34 is_stmt 0              @ rt-thread/src/thread.c:564:34
	ldr	r1, [sp, #12]
	.loc	2 564 33                        @ rt-thread/src/thread.c:564:33
	ldr	r2, [r1]
	.loc	2 564 31                        @ rt-thread/src/thread.c:564:31
	subs	r0, r0, r2
	.loc	2 564 41                        @ rt-thread/src/thread.c:564:41
	ldr	r2, [sp, #8]
	.loc	2 564 39                        @ rt-thread/src/thread.c:564:39
	add	r0, r2
	.loc	2 564 15                        @ rt-thread/src/thread.c:564:15
	str	r0, [r1]
	.loc	2 567 27 is_stmt 1              @ rt-thread/src/thread.c:567:27
	ldr	r0, [sp]
	.loc	2 567 9 is_stmt 0               @ rt-thread/src/thread.c:567:9
	bl	rt_thread_suspend
	.loc	2 570 28 is_stmt 1              @ rt-thread/src/thread.c:570:28
	ldr	r0, [sp]
	.loc	2 570 36 is_stmt 0              @ rt-thread/src/thread.c:570:36
	adds	r0, #76
	.loc	2 570 75                        @ rt-thread/src/thread.c:570:75
	ldr	r2, [sp, #12]
	movs	r1, #0
	.loc	2 570 9                         @ rt-thread/src/thread.c:570:9
	bl	rt_timer_control
	.loc	2 571 26 is_stmt 1              @ rt-thread/src/thread.c:571:26
	ldr	r0, [sp]
	.loc	2 571 34 is_stmt 0              @ rt-thread/src/thread.c:571:34
	adds	r0, #76
	.loc	2 571 9                         @ rt-thread/src/thread.c:571:9
	bl	rt_timer_start
	.loc	2 574 32 is_stmt 1              @ rt-thread/src/thread.c:574:32
	ldr	r0, [sp, #4]
	.loc	2 574 9 is_stmt 0               @ rt-thread/src/thread.c:574:9
	bl	rt_hw_interrupt_enable
	.loc	2 576 9 is_stmt 1               @ rt-thread/src/thread.c:576:9
	bl	rt_schedule
.Ltmp180:
	.loc	2 579 13                        @ rt-thread/src/thread.c:579:13
	ldr	r0, [sp]
	.loc	2 579 21 is_stmt 0              @ rt-thread/src/thread.c:579:21
	ldr	r0, [r0, #48]
.Ltmp181:
	.loc	2 579 13                        @ rt-thread/src/thread.c:579:13
	adds	r0, #2
	cbnz	r0, .LBB17_9
	b	.LBB17_8
.LBB17_8:
.Ltmp182:
	.loc	2 581 13 is_stmt 1              @ rt-thread/src/thread.c:581:13
	ldr	r1, [sp]
	movs	r0, #0
	.loc	2 581 27 is_stmt 0              @ rt-thread/src/thread.c:581:27
	str	r0, [r1, #48]
	.loc	2 582 9 is_stmt 1               @ rt-thread/src/thread.c:582:9
	b	.LBB17_9
.Ltmp183:
.LBB17_9:
	.loc	2 583 5                         @ rt-thread/src/thread.c:583:5
	b	.LBB17_11
.Ltmp184:
.LBB17_10:
	.loc	2 586 32                        @ rt-thread/src/thread.c:586:32
	ldr	r0, [sp, #4]
	.loc	2 586 9 is_stmt 0               @ rt-thread/src/thread.c:586:9
	bl	rt_hw_interrupt_enable
	b	.LBB17_11
.Ltmp185:
.LBB17_11:
	.loc	2 590 13 is_stmt 1              @ rt-thread/src/thread.c:590:13
	bl	rt_tick_get
	.loc	2 590 6 is_stmt 0               @ rt-thread/src/thread.c:590:6
	ldr	r1, [sp, #12]
	.loc	2 590 11                        @ rt-thread/src/thread.c:590:11
	str	r0, [r1]
	movs	r0, #0
	.loc	2 592 5 is_stmt 1               @ rt-thread/src/thread.c:592:5
	add	sp, #16
	pop	{r7, pc}
.Ltmp186:
.Lfunc_end17:
	.size	rt_thread_delay_until, .Lfunc_end17-rt_thread_delay_until
	.cfi_endproc
	.cantunwind
	.fnend
                                        @ -- End function
	.section	.text.rt_thread_mdelay,"ax",%progbits
	.hidden	rt_thread_mdelay                @ -- Begin function rt_thread_mdelay
	.globl	rt_thread_mdelay
	.p2align	3
	.type	rt_thread_mdelay,%function
	.code	16                              @ @rt_thread_mdelay
	.thumb_func
rt_thread_mdelay:
.Lfunc_begin18:
	.loc	2 604 0                         @ rt-thread/src/thread.c:604:0
	.fnstart
	.cfi_startproc
@ %bb.0:
	.save	{r7, lr}
	push	{r7, lr}
	.cfi_def_cfa_offset 8
	.cfi_offset lr, -4
	.cfi_offset r7, -8
	.pad	#8
	sub	sp, #8
	.cfi_def_cfa_offset 16
	str	r0, [sp, #4]
.Ltmp187:
	.loc	2 607 37 prologue_end           @ rt-thread/src/thread.c:607:37
	ldr	r0, [sp, #4]
	.loc	2 607 12 is_stmt 0              @ rt-thread/src/thread.c:607:12
	bl	rt_tick_from_millisecond
	.loc	2 607 10                        @ rt-thread/src/thread.c:607:10
	str	r0, [sp]
	.loc	2 609 28 is_stmt 1              @ rt-thread/src/thread.c:609:28
	ldr	r0, [sp]
	.loc	2 609 12 is_stmt 0              @ rt-thread/src/thread.c:609:12
	bl	rt_thread_sleep
	.loc	2 609 5                         @ rt-thread/src/thread.c:609:5
	add	sp, #8
	pop	{r7, pc}
.Ltmp188:
.Lfunc_end18:
	.size	rt_thread_mdelay, .Lfunc_end18-rt_thread_mdelay
	.cfi_endproc
	.cantunwind
	.fnend
                                        @ -- End function
	.section	.text.rt_thread_control,"ax",%progbits
	.hidden	rt_thread_control               @ -- Begin function rt_thread_control
	.globl	rt_thread_control
	.p2align	3
	.type	rt_thread_control,%function
	.code	16                              @ @rt_thread_control
	.thumb_func
rt_thread_control:
.Lfunc_begin19:
	.loc	2 627 0 is_stmt 1               @ rt-thread/src/thread.c:627:0
	.fnstart
	.cfi_startproc
@ %bb.0:
	.save	{r7, lr}
	push	{r7, lr}
	.cfi_def_cfa_offset 8
	.cfi_offset lr, -4
	.cfi_offset r7, -8
	.pad	#24
	sub	sp, #24
	.cfi_def_cfa_offset 32
	str	r0, [sp, #16]
	str	r1, [sp, #12]
	str	r2, [sp, #8]
.Ltmp189:
	.loc	2 631 5 prologue_end            @ rt-thread/src/thread.c:631:5
	ldr	r0, [sp, #16]
.Ltmp190:
	.loc	2 631 5 is_stmt 0               @ rt-thread/src/thread.c:631:5
	cbnz	r0, .LBB19_2
	b	.LBB19_1
.LBB19_1:
.Ltmp191:
	.loc	2 631 5                         @ rt-thread/src/thread.c:631:5
	movw	r0, :lower16:.L.str
	movt	r0, :upper16:.L.str
	movw	r1, :lower16:.L__FUNCTION__.rt_thread_control
	movt	r1, :upper16:.L__FUNCTION__.rt_thread_control
	movw	r2, #631
	bl	rt_assert_handler
	b	.LBB19_2
.Ltmp192:
.LBB19_2:
	.loc	2 632 5 is_stmt 1               @ rt-thread/src/thread.c:632:5
	ldr	r0, [sp, #16]
	bl	rt_object_get_type
.Ltmp193:
	.loc	2 632 5 is_stmt 0               @ rt-thread/src/thread.c:632:5
	cmp	r0, #1
	beq	.LBB19_4
	b	.LBB19_3
.LBB19_3:
.Ltmp194:
	.loc	2 632 5                         @ rt-thread/src/thread.c:632:5
	movw	r0, :lower16:.L.str.3
	movt	r0, :upper16:.L.str.3
	movw	r1, :lower16:.L__FUNCTION__.rt_thread_control
	movt	r1, :upper16:.L__FUNCTION__.rt_thread_control
	mov.w	r2, #632
	bl	rt_assert_handler
	b	.LBB19_4
.Ltmp195:
.LBB19_4:
	.loc	2 634 13 is_stmt 1              @ rt-thread/src/thread.c:634:13
	ldr	r0, [sp, #12]
	.loc	2 634 5 is_stmt 0               @ rt-thread/src/thread.c:634:5
	str	r0, [sp]                        @ 4-byte Spill
	cbz	r0, .LBB19_11
	b	.LBB19_5
.LBB19_5:
	ldr	r0, [sp]                        @ 4-byte Reload
	cmp	r0, #1
	beq	.LBB19_12
	b	.LBB19_6
.LBB19_6:
	ldr	r0, [sp]                        @ 4-byte Reload
	cmp	r0, #2
	bne	.LBB19_13
	b	.LBB19_7
.LBB19_7:
.Ltmp196:
	.loc	2 638 16 is_stmt 1              @ rt-thread/src/thread.c:638:16
	bl	rt_hw_interrupt_disable
	.loc	2 638 14 is_stmt 0              @ rt-thread/src/thread.c:638:14
	str	r0, [sp, #4]
.Ltmp197:
	.loc	2 641 14 is_stmt 1              @ rt-thread/src/thread.c:641:14
	ldr	r0, [sp, #16]
	ldrb.w	r0, [r0, #52]
	.loc	2 641 27 is_stmt 0              @ rt-thread/src/thread.c:641:27
	and	r0, r0, #7
.Ltmp198:
	.loc	2 641 13                        @ rt-thread/src/thread.c:641:13
	cmp	r0, #1
	bne	.LBB19_9
	b	.LBB19_8
.LBB19_8:
.Ltmp199:
	.loc	2 644 39 is_stmt 1              @ rt-thread/src/thread.c:644:39
	ldr	r0, [sp, #16]
	.loc	2 644 13 is_stmt 0              @ rt-thread/src/thread.c:644:13
	bl	rt_schedule_remove_thread
	.loc	2 647 55 is_stmt 1              @ rt-thread/src/thread.c:647:55
	ldr	r0, [sp, #8]
	.loc	2 647 40 is_stmt 0              @ rt-thread/src/thread.c:647:40
	ldrb	r0, [r0]
	.loc	2 647 13                        @ rt-thread/src/thread.c:647:13
	ldr	r1, [sp, #16]
	.loc	2 647 38                        @ rt-thread/src/thread.c:647:38
	strb.w	r0, [r1, #53]
	.loc	2 655 40 is_stmt 1              @ rt-thread/src/thread.c:655:40
	ldr	r1, [sp, #16]
	.loc	2 655 48 is_stmt 0              @ rt-thread/src/thread.c:655:48
	ldrb.w	r2, [r1, #53]
	movs	r0, #1
	.loc	2 655 37                        @ rt-thread/src/thread.c:655:37
	lsls	r0, r2
	.loc	2 655 33                        @ rt-thread/src/thread.c:655:33
	str	r0, [r1, #56]
	.loc	2 659 39 is_stmt 1              @ rt-thread/src/thread.c:659:39
	ldr	r0, [sp, #16]
	.loc	2 659 13 is_stmt 0              @ rt-thread/src/thread.c:659:13
	bl	rt_schedule_insert_thread
	.loc	2 660 9 is_stmt 1               @ rt-thread/src/thread.c:660:9
	b	.LBB19_10
.Ltmp200:
.LBB19_9:
	.loc	2 663 55                        @ rt-thread/src/thread.c:663:55
	ldr	r0, [sp, #8]
	.loc	2 663 40 is_stmt 0              @ rt-thread/src/thread.c:663:40
	ldrb	r0, [r0]
	.loc	2 663 13                        @ rt-thread/src/thread.c:663:13
	ldr	r1, [sp, #16]
	.loc	2 663 38                        @ rt-thread/src/thread.c:663:38
	strb.w	r0, [r1, #53]
	.loc	2 671 40 is_stmt 1              @ rt-thread/src/thread.c:671:40
	ldr	r1, [sp, #16]
	.loc	2 671 48 is_stmt 0              @ rt-thread/src/thread.c:671:48
	ldrb.w	r2, [r1, #53]
	movs	r0, #1
	.loc	2 671 37                        @ rt-thread/src/thread.c:671:37
	lsls	r0, r2
	.loc	2 671 33                        @ rt-thread/src/thread.c:671:33
	str	r0, [r1, #56]
	b	.LBB19_10
.Ltmp201:
.LBB19_10:
	.loc	2 676 32 is_stmt 1              @ rt-thread/src/thread.c:676:32
	ldr	r0, [sp, #4]
	.loc	2 676 9 is_stmt 0               @ rt-thread/src/thread.c:676:9
	bl	rt_hw_interrupt_enable
	.loc	2 677 9 is_stmt 1               @ rt-thread/src/thread.c:677:9
	b	.LBB19_14
.LBB19_11:
	.loc	2 680 34                        @ rt-thread/src/thread.c:680:34
	ldr	r0, [sp, #16]
	.loc	2 680 16 is_stmt 0              @ rt-thread/src/thread.c:680:16
	bl	rt_thread_startup
	.loc	2 680 9                         @ rt-thread/src/thread.c:680:9
	str	r0, [sp, #20]
	b	.LBB19_15
.LBB19_12:
	.loc	2 684 33 is_stmt 1              @ rt-thread/src/thread.c:684:33
	ldr	r0, [sp, #16]
	.loc	2 684 16 is_stmt 0              @ rt-thread/src/thread.c:684:16
	bl	rt_thread_delete
	.loc	2 684 9                         @ rt-thread/src/thread.c:684:9
	str	r0, [sp, #20]
	b	.LBB19_15
.LBB19_13:
	.loc	2 704 9 is_stmt 1               @ rt-thread/src/thread.c:704:9
	b	.LBB19_14
.Ltmp202:
.LBB19_14:
	.loc	2 0 9 is_stmt 0                 @ rt-thread/src/thread.c:0:9
	movs	r0, #0
	.loc	2 707 5 is_stmt 1               @ rt-thread/src/thread.c:707:5
	str	r0, [sp, #20]
	b	.LBB19_15
.LBB19_15:
	.loc	2 708 1                         @ rt-thread/src/thread.c:708:1
	ldr	r0, [sp, #20]
	add	sp, #24
	pop	{r7, pc}
.Ltmp203:
.Lfunc_end19:
	.size	rt_thread_control, .Lfunc_end19-rt_thread_control
	.cfi_endproc
	.cantunwind
	.fnend
                                        @ -- End function
	.section	.text.rt_list_remove,"ax",%progbits
	.p2align	3                               @ -- Begin function rt_list_remove
	.type	rt_list_remove,%function
	.code	16                              @ @rt_list_remove
	.thumb_func
rt_list_remove:
.Lfunc_begin20:
	.loc	3 87 0                          @ rt-thread/include\rtservice.h:87:0
	.fnstart
	.cfi_startproc
@ %bb.0:
	.pad	#4
	sub	sp, #4
	.cfi_def_cfa_offset 4
	str	r0, [sp]
.Ltmp204:
	.loc	3 88 21 prologue_end            @ rt-thread/include\rtservice.h:88:21
	ldr	r0, [sp]
	.loc	3 88 8 is_stmt 0                @ rt-thread/include\rtservice.h:88:8
	ldr	r1, [r0]
	.loc	3 88 24                         @ rt-thread/include\rtservice.h:88:24
	ldr	r0, [r0, #4]
	.loc	3 88 19                         @ rt-thread/include\rtservice.h:88:19
	str	r0, [r1, #4]
	.loc	3 89 21 is_stmt 1               @ rt-thread/include\rtservice.h:89:21
	ldr	r1, [sp]
	.loc	3 89 24 is_stmt 0               @ rt-thread/include\rtservice.h:89:24
	ldr	r0, [r1]
	.loc	3 89 8                          @ rt-thread/include\rtservice.h:89:8
	ldr	r1, [r1, #4]
	.loc	3 89 19                         @ rt-thread/include\rtservice.h:89:19
	str	r0, [r1]
	.loc	3 91 25 is_stmt 1               @ rt-thread/include\rtservice.h:91:25
	ldr	r0, [sp]
	.loc	3 91 23 is_stmt 0               @ rt-thread/include\rtservice.h:91:23
	str	r0, [r0, #4]
	.loc	3 91 5                          @ rt-thread/include\rtservice.h:91:5
	ldr	r1, [sp]
	.loc	3 91 13                         @ rt-thread/include\rtservice.h:91:13
	str	r0, [r1]
	.loc	3 92 1 is_stmt 1                @ rt-thread/include\rtservice.h:92:1
	add	sp, #4
	bx	lr
.Ltmp205:
.Lfunc_end20:
	.size	rt_list_remove, .Lfunc_end20-rt_list_remove
	.cfi_endproc
	.cantunwind
	.fnend
                                        @ -- End function
	.section	.text.rt_thread_timeout,"ax",%progbits
	.hidden	rt_thread_timeout               @ -- Begin function rt_thread_timeout
	.globl	rt_thread_timeout
	.p2align	3
	.type	rt_thread_timeout,%function
	.code	16                              @ @rt_thread_timeout
	.thumb_func
rt_thread_timeout:
.Lfunc_begin21:
	.loc	2 814 0                         @ rt-thread/src/thread.c:814:0
	.fnstart
	.cfi_startproc
@ %bb.0:
	.save	{r7, lr}
	push	{r7, lr}
	.cfi_def_cfa_offset 8
	.cfi_offset lr, -4
	.cfi_offset r7, -8
	.pad	#8
	sub	sp, #8
	.cfi_def_cfa_offset 16
	str	r0, [sp, #4]
.Ltmp206:
	.loc	2 817 34 prologue_end           @ rt-thread/src/thread.c:817:34
	ldr	r0, [sp, #4]
	.loc	2 817 12 is_stmt 0              @ rt-thread/src/thread.c:817:12
	str	r0, [sp]
.Ltmp207:
	.loc	2 820 5 is_stmt 1               @ rt-thread/src/thread.c:820:5
	ldr	r0, [sp]
.Ltmp208:
	.loc	2 820 5 is_stmt 0               @ rt-thread/src/thread.c:820:5
	cbnz	r0, .LBB21_2
	b	.LBB21_1
.LBB21_1:
.Ltmp209:
	.loc	2 820 5                         @ rt-thread/src/thread.c:820:5
	movw	r0, :lower16:.L.str
	movt	r0, :upper16:.L.str
	movw	r1, :lower16:.L__FUNCTION__.rt_thread_timeout
	movt	r1, :upper16:.L__FUNCTION__.rt_thread_timeout
	mov.w	r2, #820
	bl	rt_assert_handler
	b	.LBB21_2
.Ltmp210:
.LBB21_2:
	.loc	2 821 5 is_stmt 1               @ rt-thread/src/thread.c:821:5
	ldr	r0, [sp]
	ldrb.w	r0, [r0, #52]
	and	r0, r0, #7
.Ltmp211:
	.loc	2 821 5 is_stmt 0               @ rt-thread/src/thread.c:821:5
	cmp	r0, #2
	beq	.LBB21_4
	b	.LBB21_3
.LBB21_3:
.Ltmp212:
	.loc	2 821 5                         @ rt-thread/src/thread.c:821:5
	movw	r0, :lower16:.L.str.8
	movt	r0, :upper16:.L.str.8
	movw	r1, :lower16:.L__FUNCTION__.rt_thread_timeout
	movt	r1, :upper16:.L__FUNCTION__.rt_thread_timeout
	movw	r2, #821
	bl	rt_assert_handler
	b	.LBB21_4
.Ltmp213:
.LBB21_4:
	.loc	2 822 5 is_stmt 1               @ rt-thread/src/thread.c:822:5
	ldr	r0, [sp]
	bl	rt_object_get_type
.Ltmp214:
	.loc	2 822 5 is_stmt 0               @ rt-thread/src/thread.c:822:5
	cmp	r0, #1
	beq	.LBB21_6
	b	.LBB21_5
.LBB21_5:
.Ltmp215:
	.loc	2 822 5                         @ rt-thread/src/thread.c:822:5
	movw	r0, :lower16:.L.str.3
	movt	r0, :upper16:.L.str.3
	movw	r1, :lower16:.L__FUNCTION__.rt_thread_timeout
	movt	r1, :upper16:.L__FUNCTION__.rt_thread_timeout
	movw	r2, #822
	bl	rt_assert_handler
	b	.LBB21_6
.Ltmp216:
.LBB21_6:
	.loc	2 825 5 is_stmt 1               @ rt-thread/src/thread.c:825:5
	ldr	r1, [sp]
	mvn	r0, #1
	.loc	2 825 19 is_stmt 0              @ rt-thread/src/thread.c:825:19
	str	r0, [r1, #48]
	.loc	2 828 22 is_stmt 1              @ rt-thread/src/thread.c:828:22
	ldr	r0, [sp]
	.loc	2 828 30 is_stmt 0              @ rt-thread/src/thread.c:828:30
	adds	r0, #20
	.loc	2 828 5                         @ rt-thread/src/thread.c:828:5
	bl	rt_list_remove
	.loc	2 831 31 is_stmt 1              @ rt-thread/src/thread.c:831:31
	ldr	r0, [sp]
	.loc	2 831 5 is_stmt 0               @ rt-thread/src/thread.c:831:5
	bl	rt_schedule_insert_thread
	.loc	2 834 5 is_stmt 1               @ rt-thread/src/thread.c:834:5
	bl	rt_schedule
	.loc	2 835 1                         @ rt-thread/src/thread.c:835:1
	add	sp, #8
	pop	{r7, pc}
.Ltmp217:
.Lfunc_end21:
	.size	rt_thread_timeout, .Lfunc_end21-rt_thread_timeout
	.cfi_endproc
	.cantunwind
	.fnend
                                        @ -- End function
	.section	.text.rt_thread_find,"ax",%progbits
	.hidden	rt_thread_find                  @ -- Begin function rt_thread_find
	.globl	rt_thread_find
	.p2align	3
	.type	rt_thread_find,%function
	.code	16                              @ @rt_thread_find
	.thumb_func
rt_thread_find:
.Lfunc_begin22:
	.loc	2 848 0                         @ rt-thread/src/thread.c:848:0
	.fnstart
	.cfi_startproc
@ %bb.0:
	.save	{r7, lr}
	push	{r7, lr}
	.cfi_def_cfa_offset 8
	.cfi_offset lr, -4
	.cfi_offset r7, -8
	.pad	#24
	sub	sp, #24
	.cfi_def_cfa_offset 32
	str	r0, [sp, #16]
.Ltmp218:
	.loc	2 854 9 prologue_end            @ rt-thread/src/thread.c:854:9
	bl	rt_thread_self
.Ltmp219:
	.loc	2 854 9 is_stmt 0               @ rt-thread/src/thread.c:854:9
	cbz	r0, .LBB22_2
	b	.LBB22_1
.LBB22_1:
.Ltmp220:
	.loc	2 855 9 is_stmt 1               @ rt-thread/src/thread.c:855:9
	bl	rt_enter_critical
	b	.LBB22_2
.Ltmp221:
.LBB22_2:
	.loc	2 0 9 is_stmt 0                 @ rt-thread/src/thread.c:0:9
	movs	r0, #1
	.loc	2 858 19 is_stmt 1              @ rt-thread/src/thread.c:858:19
	bl	rt_object_get_information
	.loc	2 858 17 is_stmt 0              @ rt-thread/src/thread.c:858:17
	str	r0, [sp, #12]
.Ltmp222:
	.loc	2 859 5 is_stmt 1               @ rt-thread/src/thread.c:859:5
	ldr	r0, [sp, #12]
.Ltmp223:
	.loc	2 859 5 is_stmt 0               @ rt-thread/src/thread.c:859:5
	cbnz	r0, .LBB22_4
	b	.LBB22_3
.LBB22_3:
.Ltmp224:
	.loc	2 859 5                         @ rt-thread/src/thread.c:859:5
	movw	r0, :lower16:.L.str.9
	movt	r0, :upper16:.L.str.9
	movw	r1, :lower16:.L__FUNCTION__.rt_thread_find
	movt	r1, :upper16:.L__FUNCTION__.rt_thread_find
	movw	r2, #859
	bl	rt_assert_handler
	b	.LBB22_4
.Ltmp225:
.LBB22_4:
	.loc	2 860 18 is_stmt 1              @ rt-thread/src/thread.c:860:18
	ldr	r0, [sp, #12]
	.loc	2 860 43 is_stmt 0              @ rt-thread/src/thread.c:860:43
	ldr	r0, [r0, #4]
	.loc	2 860 16                        @ rt-thread/src/thread.c:860:16
	str	r0, [sp, #4]
	.loc	2 860 10                        @ rt-thread/src/thread.c:860:10
	b	.LBB22_5
.LBB22_5:                               @ =>This Inner Loop Header: Depth=1
.Ltmp226:
	.loc	2 861 10 is_stmt 1              @ rt-thread/src/thread.c:861:10
	ldr	r0, [sp, #4]
	.loc	2 861 20 is_stmt 0              @ rt-thread/src/thread.c:861:20
	ldr	r1, [sp, #12]
	.loc	2 861 33                        @ rt-thread/src/thread.c:861:33
	adds	r1, #4
.Ltmp227:
	.loc	2 860 5 is_stmt 1               @ rt-thread/src/thread.c:860:5
	cmp	r0, r1
	beq	.LBB22_12
	b	.LBB22_6
.LBB22_6:                               @   in Loop: Header=BB22_5 Depth=1
.Ltmp228:
	.loc	2 864 18                        @ rt-thread/src/thread.c:864:18
	ldr	r0, [sp, #4]
	subs	r0, #12
	.loc	2 864 16 is_stmt 0              @ rt-thread/src/thread.c:864:16
	str	r0, [sp, #8]
.Ltmp229:
	.loc	2 865 24 is_stmt 1              @ rt-thread/src/thread.c:865:24
	ldr	r0, [sp, #8]
	.loc	2 865 38 is_stmt 0              @ rt-thread/src/thread.c:865:38
	ldr	r1, [sp, #16]
	movs	r2, #8
	.loc	2 865 13                        @ rt-thread/src/thread.c:865:13
	bl	rt_strncmp
.Ltmp230:
	.loc	2 865 13                        @ rt-thread/src/thread.c:865:13
	cbnz	r0, .LBB22_10
	b	.LBB22_7
.LBB22_7:
.Ltmp231:
	.loc	2 868 17 is_stmt 1              @ rt-thread/src/thread.c:868:17
	bl	rt_thread_self
.Ltmp232:
	.loc	2 868 17 is_stmt 0              @ rt-thread/src/thread.c:868:17
	cbz	r0, .LBB22_9
	b	.LBB22_8
.LBB22_8:
.Ltmp233:
	.loc	2 869 17 is_stmt 1              @ rt-thread/src/thread.c:869:17
	bl	rt_exit_critical
	b	.LBB22_9
.Ltmp234:
.LBB22_9:
	.loc	2 871 33                        @ rt-thread/src/thread.c:871:33
	ldr	r0, [sp, #8]
	.loc	2 871 13 is_stmt 0              @ rt-thread/src/thread.c:871:13
	str	r0, [sp, #20]
	b	.LBB22_15
.Ltmp235:
.LBB22_10:                              @   in Loop: Header=BB22_5 Depth=1
	.loc	2 873 5 is_stmt 1               @ rt-thread/src/thread.c:873:5
	b	.LBB22_11
.Ltmp236:
.LBB22_11:                              @   in Loop: Header=BB22_5 Depth=1
	.loc	2 862 18                        @ rt-thread/src/thread.c:862:18
	ldr	r0, [sp, #4]
	.loc	2 862 24 is_stmt 0              @ rt-thread/src/thread.c:862:24
	ldr	r0, [r0]
	.loc	2 862 16                        @ rt-thread/src/thread.c:862:16
	str	r0, [sp, #4]
	.loc	2 860 5 is_stmt 1               @ rt-thread/src/thread.c:860:5
	b	.LBB22_5
.Ltmp237:
.LBB22_12:
	.loc	2 876 9                         @ rt-thread/src/thread.c:876:9
	bl	rt_thread_self
.Ltmp238:
	.loc	2 876 9 is_stmt 0               @ rt-thread/src/thread.c:876:9
	cbz	r0, .LBB22_14
	b	.LBB22_13
.LBB22_13:
.Ltmp239:
	.loc	2 877 9 is_stmt 1               @ rt-thread/src/thread.c:877:9
	bl	rt_exit_critical
	b	.LBB22_14
.Ltmp240:
.LBB22_14:
	.loc	2 0 9 is_stmt 0                 @ rt-thread/src/thread.c:0:9
	movs	r0, #0
	.loc	2 880 5 is_stmt 1               @ rt-thread/src/thread.c:880:5
	str	r0, [sp, #20]
	b	.LBB22_15
.LBB22_15:
	.loc	2 881 1                         @ rt-thread/src/thread.c:881:1
	ldr	r0, [sp, #20]
	add	sp, #24
	pop	{r7, pc}
.Ltmp241:
.Lfunc_end22:
	.size	rt_thread_find, .Lfunc_end22-rt_thread_find
	.cfi_endproc
	.cantunwind
	.fnend
                                        @ -- End function
	.section	.text.rt_list_init,"ax",%progbits
	.p2align	3                               @ -- Begin function rt_list_init
	.type	rt_list_init,%function
	.code	16                              @ @rt_list_init
	.thumb_func
rt_list_init:
.Lfunc_begin23:
	.loc	3 48 0                          @ rt-thread/include\rtservice.h:48:0
	.fnstart
	.cfi_startproc
@ %bb.0:
	.pad	#4
	sub	sp, #4
	.cfi_def_cfa_offset 4
	str	r0, [sp]
.Ltmp242:
	.loc	3 49 25 prologue_end            @ rt-thread/include\rtservice.h:49:25
	ldr	r0, [sp]
	.loc	3 49 23 is_stmt 0               @ rt-thread/include\rtservice.h:49:23
	str	r0, [r0, #4]
	.loc	3 49 5                          @ rt-thread/include\rtservice.h:49:5
	ldr	r1, [sp]
	.loc	3 49 13                         @ rt-thread/include\rtservice.h:49:13
	str	r0, [r1]
	.loc	3 50 1 is_stmt 1                @ rt-thread/include\rtservice.h:50:1
	add	sp, #4
	bx	lr
.Ltmp243:
.Lfunc_end23:
	.size	rt_list_init, .Lfunc_end23-rt_list_init
	.cfi_endproc
	.cantunwind
	.fnend
                                        @ -- End function
	.type	rt_thread_suspend_hook,%object  @ @rt_thread_suspend_hook
	.section	.bss.rt_thread_suspend_hook,"aw",%nobits
	.p2align	2
rt_thread_suspend_hook:
	.long	0
	.size	rt_thread_suspend_hook, 4

	.type	rt_thread_resume_hook,%object   @ @rt_thread_resume_hook
	.section	.bss.rt_thread_resume_hook,"aw",%nobits
	.p2align	2
rt_thread_resume_hook:
	.long	0
	.size	rt_thread_resume_hook, 4

	.type	rt_thread_inited_hook,%object   @ @rt_thread_inited_hook
	.section	.bss.rt_thread_inited_hook,"aw",%nobits
	.p2align	2
rt_thread_inited_hook:
	.long	0
	.size	rt_thread_inited_hook, 4

	.type	.L.str,%object                  @ @.str
	.section	.rodata.str1.1,"aMS",%progbits,1
.L.str:
	.asciz	"thread != RT_NULL"
	.size	.L.str, 18

	.type	.L__FUNCTION__.rt_thread_init,%object @ @__FUNCTION__.rt_thread_init
.L__FUNCTION__.rt_thread_init:
	.asciz	"rt_thread_init"
	.size	.L__FUNCTION__.rt_thread_init, 15

	.type	.L.str.1,%object                @ @.str.1
.L.str.1:
	.asciz	"stack_start != RT_NULL"
	.size	.L.str.1, 23

	.type	.L__FUNCTION__.rt_thread_startup,%object @ @__FUNCTION__.rt_thread_startup
.L__FUNCTION__.rt_thread_startup:
	.asciz	"rt_thread_startup"
	.size	.L__FUNCTION__.rt_thread_startup, 18

	.type	.L.str.2,%object                @ @.str.2
.L.str.2:
	.asciz	"(thread->stat & RT_THREAD_STAT_MASK) == RT_THREAD_INIT"
	.size	.L.str.2, 55

	.type	.L.str.3,%object                @ @.str.3
.L.str.3:
	.asciz	"rt_object_get_type((rt_object_t)thread) == RT_Object_Class_Thread"
	.size	.L.str.3, 66

	.type	.L__FUNCTION__.rt_thread_detach,%object @ @__FUNCTION__.rt_thread_detach
.L__FUNCTION__.rt_thread_detach:
	.asciz	"rt_thread_detach"
	.size	.L__FUNCTION__.rt_thread_detach, 17

	.type	.L.str.4,%object                @ @.str.4
.L.str.4:
	.asciz	"rt_object_is_systemobject((rt_object_t)thread)"
	.size	.L.str.4, 47

	.type	.L__FUNCTION__.rt_thread_delete,%object @ @__FUNCTION__.rt_thread_delete
.L__FUNCTION__.rt_thread_delete:
	.asciz	"rt_thread_delete"
	.size	.L__FUNCTION__.rt_thread_delete, 17

	.type	.L.str.5,%object                @ @.str.5
.L.str.5:
	.asciz	"rt_object_is_systemobject((rt_object_t)thread) == RT_FALSE"
	.size	.L.str.5, 59

	.type	.L__FUNCTION__.rt_thread_sleep,%object @ @__FUNCTION__.rt_thread_sleep
.L__FUNCTION__.rt_thread_sleep:
	.asciz	"rt_thread_sleep"
	.size	.L__FUNCTION__.rt_thread_sleep, 16

	.type	.L.str.6,%object                @ @.str.6
.L.str.6:
	.asciz	"tick != RT_NULL"
	.size	.L.str.6, 16

	.type	.L__FUNCTION__.rt_thread_delay_until,%object @ @__FUNCTION__.rt_thread_delay_until
.L__FUNCTION__.rt_thread_delay_until:
	.asciz	"rt_thread_delay_until"
	.size	.L__FUNCTION__.rt_thread_delay_until, 22

	.type	.L__FUNCTION__.rt_thread_control,%object @ @__FUNCTION__.rt_thread_control
.L__FUNCTION__.rt_thread_control:
	.asciz	"rt_thread_control"
	.size	.L__FUNCTION__.rt_thread_control, 18

	.type	.L__FUNCTION__.rt_thread_suspend,%object @ @__FUNCTION__.rt_thread_suspend
.L__FUNCTION__.rt_thread_suspend:
	.asciz	"rt_thread_suspend"
	.size	.L__FUNCTION__.rt_thread_suspend, 18

	.type	.L.str.7,%object                @ @.str.7
.L.str.7:
	.asciz	"thread == rt_thread_self()"
	.size	.L.str.7, 27

	.type	.L__FUNCTION__.rt_thread_resume,%object @ @__FUNCTION__.rt_thread_resume
.L__FUNCTION__.rt_thread_resume:
	.asciz	"rt_thread_resume"
	.size	.L__FUNCTION__.rt_thread_resume, 17

	.type	.L__FUNCTION__.rt_thread_timeout,%object @ @__FUNCTION__.rt_thread_timeout
.L__FUNCTION__.rt_thread_timeout:
	.asciz	"rt_thread_timeout"
	.size	.L__FUNCTION__.rt_thread_timeout, 18

	.type	.L.str.8,%object                @ @.str.8
.L.str.8:
	.asciz	"(thread->stat & RT_THREAD_STAT_MASK) == RT_THREAD_SUSPEND"
	.size	.L.str.8, 58

	.type	.L.str.9,%object                @ @.str.9
.L.str.9:
	.asciz	"information != RT_NULL"
	.size	.L.str.9, 23

	.type	.L__FUNCTION__.rt_thread_find,%object @ @__FUNCTION__.rt_thread_find
.L__FUNCTION__.rt_thread_find:
	.asciz	"rt_thread_find"
	.size	.L__FUNCTION__.rt_thread_find, 15

	.type	.L.str.10,%object               @ @.str.10
.L.str.10:
	.asciz	"priority < RT_THREAD_PRIORITY_MAX"
	.size	.L.str.10, 34

	.type	.L__FUNCTION__._rt_thread_init,%object @ @__FUNCTION__._rt_thread_init
.L__FUNCTION__._rt_thread_init:
	.asciz	"_rt_thread_init"
	.size	.L__FUNCTION__._rt_thread_init, 16

	.section	".note.GNU-stack","",%progbits
	.eabi_attribute	30, 6	@ Tag_ABI_optimization_goals
	.ARM_attribute	16, 1	@ Tag_AV_eba