	.text
	.syntax unified
	.eabi_attribute	67, "2.09"	@ Tag_conformance
	.cpu	cortex-m7
	.eabi_attribute	6, 13	@ Tag_CPU_arch
	.eabi_attribute	7, 77	@ Tag_CPU_arch_profile
	.eabi_attribute	8, 0	@ Tag_ARM_ISA_use
	.eabi_attribute	9, 2	@ Tag_THUMB_ISA_use
	.fpu	fpv5-d16
	.eabi_attribute	36, 1	@ Tag_FP_HP_extension
	.eabi_attribute	34, 1	@ Tag_CPU_unaligned_access
	.eabi_attribute	17, 1	@ Tag_ABI_PCS_GOT_use
	.eabi_attribute	20, 2	@ Tag_ABI_FP_denormal
	.eabi_attribute	21, 0	@ Tag_ABI_FP_exceptions
	.eabi_attribute	23, 1	@ Tag_ABI_FP_number_model
	.eabi_attribute	24, 1	@ Tag_ABI_align_needed
	.eabi_attribute	25, 1	@ Tag_ABI_align_preserved
	.eabi_attribute	28, 1	@ Tag_ABI_VFP_args
	.eabi_attribute	38, 1	@ Tag_ABI_FP_16bit_format
	.eabi_attribute	18, 2	@ Tag_ABI_PCS_wchar_t
	.eabi_attribute	26, 1	@ Tag_ABI_enum_size
	.eabi_attribute	14, 0	@ Tag_ABI_PCS_R9_use
	.file	"timer.c"
	.file	1 "E:\\STM32\\Learning\\STM32H750_ART_PI_RGBLCD" "rt-thread/src/timer.c"
	.file	2 "E:\\STM32\\Learning\\STM32H750_ART_PI_RGBLCD" "rt-thread/include\\rtdef.h"
	.section	.text.rt_timer_enter_sethook,"ax",%progbits
	.hidden	rt_timer_enter_sethook          @ -- Begin function rt_timer_enter_sethook
	.globl	rt_timer_enter_sethook
	.p2align	3
	.type	rt_timer_enter_sethook,%function
	.code	16                              @ @rt_timer_enter_sethook
	.thumb_func
rt_timer_enter_sethook:
.Lfunc_begin0:
	.loc	1 62 0                          @ rt-thread/src/timer.c:62:0
	.fnstart
	.cfi_sections .debug_frame
	.cfi_startproc
@ %bb.0:
	.pad	#4
	sub	sp, #4
	.cfi_def_cfa_offset 4
	str	r0, [sp]
.Ltmp0:
	.loc	1 63 27 prologue_end            @ rt-thread/src/timer.c:63:27
	ldr	r0, [sp]
	.loc	1 63 25 is_stmt 0               @ rt-thread/src/timer.c:63:25
	movw	r1, :lower16:rt_timer_enter_hook
	movt	r1, :upper16:rt_timer_enter_hook
	str	r0, [r1]
	.loc	1 64 1 is_stmt 1                @ rt-thread/src/timer.c:64:1
	add	sp, #4
	bx	lr
.Ltmp1:
.Lfunc_end0:
	.size	rt_timer_enter_sethook, .Lfunc_end0-rt_timer_enter_sethook
	.cfi_endproc
	.cantunwind
	.fnend
                                        @ -- End function
	.section	.text.rt_timer_exit_sethook,"ax",%progbits
	.hidden	rt_timer_exit_sethook           @ -- Begin function rt_timer_exit_sethook
	.globl	rt_timer_exit_sethook
	.p2align	3
	.type	rt_timer_exit_sethook,%function
	.code	16                              @ @rt_timer_exit_sethook
	.thumb_func
rt_timer_exit_sethook:
.Lfunc_begin1:
	.loc	1 73 0                          @ rt-thread/src/timer.c:73:0
	.fnstart
	.cfi_startproc
@ %bb.0:
	.pad	#4
	sub	sp, #4
	.cfi_def_cfa_offset 4
	str	r0, [sp]
.Ltmp2:
	.loc	1 74 26 prologue_end            @ rt-thread/src/timer.c:74:26
	ldr	r0, [sp]
	.loc	1 74 24 is_stmt 0               @ rt-thread/src/timer.c:74:24
	movw	r1, :lower16:rt_timer_exit_hook
	movt	r1, :upper16:rt_timer_exit_hook
	str	r0, [r1]
	.loc	1 75 1 is_stmt 1                @ rt-thread/src/timer.c:75:1
	add	sp, #4
	bx	lr
.Ltmp3:
.Lfunc_end1:
	.size	rt_timer_exit_sethook, .Lfunc_end1-rt_timer_exit_sethook
	.cfi_endproc
	.cantunwind
	.fnend
                                        @ -- End function
	.section	.text.rt_timer_init,"ax",%progbits
	.hidden	rt_timer_init                   @ -- Begin function rt_timer_init
	.globl	rt_timer_init
	.p2align	3
	.type	rt_timer_init,%function
	.code	16                              @ @rt_timer_init
	.thumb_func
rt_timer_init:
.Lfunc_begin2:
	.loc	1 193 0                         @ rt-thread/src/timer.c:193:0
	.fnstart
	.cfi_startproc
@ %bb.0:
	.save	{r7, lr}
	push	{r7, lr}
	.cfi_def_cfa_offset 8
	.cfi_offset lr, -4
	.cfi_offset r7, -8
	.pad	#24
	sub	sp, #24
	.cfi_def_cfa_offset 32
	mov	r12, r0
	ldr	r0, [sp, #36]
	ldr.w	lr, [sp, #32]
	str.w	r12, [sp, #20]
	str	r1, [sp, #16]
	str	r2, [sp, #12]
	str	r3, [sp, #8]
	strb.w	r0, [sp, #7]
.Ltmp4:
	.loc	1 195 5 prologue_end            @ rt-thread/src/timer.c:195:5
	ldr	r0, [sp, #20]
.Ltmp5:
	.loc	1 195 5 is_stmt 0               @ rt-thread/src/timer.c:195:5
	cbnz	r0, .LBB2_2
	b	.LBB2_1
.LBB2_1:
.Ltmp6:
	.loc	1 195 5                         @ rt-thread/src/timer.c:195:5
	movw	r0, :lower16:.L.str
	movt	r0, :upper16:.L.str
	movw	r1, :lower16:.L__FUNCTION__.rt_timer_init
	movt	r1, :upper16:.L__FUNCTION__.rt_timer_init
	movs	r2, #195
	bl	rt_assert_handler
	b	.LBB2_2
.Ltmp7:
.LBB2_2:
	.loc	1 198 33 is_stmt 1              @ rt-thread/src/timer.c:198:33
	ldr	r0, [sp, #20]
	.loc	1 198 63 is_stmt 0              @ rt-thread/src/timer.c:198:63
	ldr	r2, [sp, #16]
	movs	r1, #10
	.loc	1 198 5                         @ rt-thread/src/timer.c:198:5
	bl	rt_object_init
	.loc	1 200 20 is_stmt 1              @ rt-thread/src/timer.c:200:20
	ldr	r0, [sp, #20]
	.loc	1 200 27 is_stmt 0              @ rt-thread/src/timer.c:200:27
	ldr	r1, [sp, #12]
	.loc	1 200 36                        @ rt-thread/src/timer.c:200:36
	ldr	r2, [sp, #8]
	.loc	1 200 47                        @ rt-thread/src/timer.c:200:47
	ldr	r3, [sp, #32]
	.loc	1 200 53                        @ rt-thread/src/timer.c:200:53
	ldrb.w	r12, [sp, #7]
	.loc	1 200 5                         @ rt-thread/src/timer.c:200:5
	mov	lr, sp
	str.w	r12, [lr]
	bl	_rt_timer_init
	.loc	1 201 1 is_stmt 1               @ rt-thread/src/timer.c:201:1
	add	sp, #24
	pop	{r7, pc}
.Ltmp8:
.Lfunc_end2:
	.size	rt_timer_init, .Lfunc_end2-rt_timer_init
	.cfi_endproc
	.cantunwind
	.fnend
                                        @ -- End function
	.section	.text._rt_timer_init,"ax",%progbits
	.p2align	3                               @ -- Begin function _rt_timer_init
	.type	_rt_timer_init,%function
	.code	16                              @ @_rt_timer_init
	.thumb_func
_rt_timer_init:
.Lfunc_begin3:
	.loc	1 85 0                          @ rt-thread/src/timer.c:85:0
	.fnstart
	.cfi_startproc
@ %bb.0:
	.save	{r7, lr}
	push	{r7, lr}
	.cfi_def_cfa_offset 8
	.cfi_offset lr, -4
	.cfi_offset r7, -8
	.pad	#24
	sub	sp, #24
	.cfi_def_cfa_offset 32
	mov	r12, r0
	ldr	r0, [sp, #32]
	str.w	r12, [sp, #20]
	str	r1, [sp, #16]
	str	r2, [sp, #12]
	str	r3, [sp, #8]
	strb.w	r0, [sp, #7]
.Ltmp9:
	.loc	1 89 27 prologue_end            @ rt-thread/src/timer.c:89:27
	ldrb.w	r0, [sp, #7]
	.loc	1 89 5 is_stmt 0                @ rt-thread/src/timer.c:89:5
	ldr	r1, [sp, #20]
	.loc	1 89 25                         @ rt-thread/src/timer.c:89:25
	strb	r0, [r1, #9]
	.loc	1 92 5 is_stmt 1                @ rt-thread/src/timer.c:92:5
	ldr	r1, [sp, #20]
	.loc	1 92 24 is_stmt 0               @ rt-thread/src/timer.c:92:24
	ldrb	r0, [r1, #9]
	and	r0, r0, #254
	strb	r0, [r1, #9]
	.loc	1 94 27 is_stmt 1               @ rt-thread/src/timer.c:94:27
	ldr	r0, [sp, #16]
	.loc	1 94 5 is_stmt 0                @ rt-thread/src/timer.c:94:5
	ldr	r1, [sp, #20]
	.loc	1 94 25                         @ rt-thread/src/timer.c:94:25
	str	r0, [r1, #28]
	.loc	1 95 27 is_stmt 1               @ rt-thread/src/timer.c:95:27
	ldr	r0, [sp, #12]
	.loc	1 95 5 is_stmt 0                @ rt-thread/src/timer.c:95:5
	ldr	r1, [sp, #20]
	.loc	1 95 25                         @ rt-thread/src/timer.c:95:25
	str	r0, [r1, #32]
	.loc	1 97 5 is_stmt 1                @ rt-thread/src/timer.c:97:5
	ldr	r1, [sp, #20]
	movs	r0, #0
	.loc	1 97 25 is_stmt 0               @ rt-thread/src/timer.c:97:25
	str	r0, [r1, #40]
	.loc	1 98 27 is_stmt 1               @ rt-thread/src/timer.c:98:27
	ldr	r1, [sp, #8]
	.loc	1 98 5 is_stmt 0                @ rt-thread/src/timer.c:98:5
	ldr	r2, [sp, #20]
	.loc	1 98 25                         @ rt-thread/src/timer.c:98:25
	str	r1, [r2, #36]
.Ltmp10:
	.loc	1 101 12 is_stmt 1              @ rt-thread/src/timer.c:101:12
	str	r0, [sp]
	.loc	1 101 10 is_stmt 0              @ rt-thread/src/timer.c:101:10
	b	.LBB3_1
.LBB3_1:                                @ =>This Inner Loop Header: Depth=1
.Ltmp11:
	.loc	1 101 17                        @ rt-thread/src/timer.c:101:17
	ldr	r0, [sp]
.Ltmp12:
	.loc	1 101 5                         @ rt-thread/src/timer.c:101:5
	cmp	r0, #0
	bgt	.LBB3_4
	b	.LBB3_2
.LBB3_2:                                @   in Loop: Header=BB3_1 Depth=1
.Ltmp13:
	.loc	1 103 24 is_stmt 1              @ rt-thread/src/timer.c:103:24
	ldr	r0, [sp, #20]
	.loc	1 103 35 is_stmt 0              @ rt-thread/src/timer.c:103:35
	ldr	r1, [sp]
	.loc	1 103 31                        @ rt-thread/src/timer.c:103:31
	add.w	r0, r0, r1, lsl #3
	.loc	1 103 24                        @ rt-thread/src/timer.c:103:24
	adds	r0, #20
	.loc	1 103 9                         @ rt-thread/src/timer.c:103:9
	bl	rt_list_init
	.loc	1 104 5 is_stmt 1               @ rt-thread/src/timer.c:104:5
	b	.LBB3_3
.Ltmp14:
.LBB3_3:                                @   in Loop: Header=BB3_1 Depth=1
	.loc	1 101 48                        @ rt-thread/src/timer.c:101:48
	ldr	r0, [sp]
	adds	r0, #1
	str	r0, [sp]
	.loc	1 101 5 is_stmt 0               @ rt-thread/src/timer.c:101:5
	b	.LBB3_1
.Ltmp15:
.LBB3_4:
	.loc	1 105 1 is_stmt 1               @ rt-thread/src/timer.c:105:1
	add	sp, #24
	pop	{r7, pc}
.Ltmp16:
.Lfunc_end3:
	.size	_rt_timer_init, .Lfunc_end3-_rt_timer_init
	.cfi_endproc
	.cantunwind
	.fnend
                                        @ -- End function
	.section	.text.rt_timer_detach,"ax",%progbits
	.hidden	rt_timer_detach                 @ -- Begin function rt_timer_detach
	.globl	rt_timer_detach
	.p2align	3
	.type	rt_timer_detach,%function
	.code	16                              @ @rt_timer_detach
	.thumb_func
rt_timer_detach:
.Lfunc_begin4:
	.loc	1 212 0                         @ rt-thread/src/timer.c:212:0
	.fnstart
	.cfi_startproc
@ %bb.0:
	.save	{r7, lr}
	push	{r7, lr}
	.cfi_def_cfa_offset 8
	.cfi_offset lr, -4
	.cfi_offset r7, -8
	.pad	#8
	sub	sp, #8
	.cfi_def_cfa_offset 16
	str	r0, [sp, #4]
.Ltmp17:
	.loc	1 216 5 prologue_end            @ rt-thread/src/timer.c:216:5
	ldr	r0, [sp, #4]
.Ltmp18:
	.loc	1 216 5 is_stmt 0               @ rt-thread/src/timer.c:216:5
	cbnz	r0, .LBB4_2
	b	.LBB4_1
.LBB4_1:
.Ltmp19:
	.loc	1 216 5                         @ rt-thread/src/timer.c:216:5
	movw	r0, :lower16:.L.str
	movt	r0, :upper16:.L.str
	movw	r1, :lower16:.L__FUNCTION__.rt_timer_detach
	movt	r1, :upper16:.L__FUNCTION__.rt_timer_detach
	movs	r2, #216
	bl	rt_assert_handler
	b	.LBB4_2
.Ltmp20:
.LBB4_2:
	.loc	1 217 5 is_stmt 1               @ rt-thread/src/timer.c:217:5
	ldr	r0, [sp, #4]
	bl	rt_object_get_type
.Ltmp21:
	.loc	1 217 5 is_stmt 0               @ rt-thread/src/timer.c:217:5
	cmp	r0, #10
	beq	.LBB4_4
	b	.LBB4_3
.LBB4_3:
.Ltmp22:
	.loc	1 217 5                         @ rt-thread/src/timer.c:217:5
	movw	r0, :lower16:.L.str.1
	movt	r0, :upper16:.L.str.1
	movw	r1, :lower16:.L__FUNCTION__.rt_timer_detach
	movt	r1, :upper16:.L__FUNCTION__.rt_timer_detach
	movs	r2, #217
	bl	rt_assert_handler
	b	.LBB4_4
.Ltmp23:
.LBB4_4:
	.loc	1 218 5 is_stmt 1               @ rt-thread/src/timer.c:218:5
	ldr	r0, [sp, #4]
	bl	rt_object_is_systemobject
.Ltmp24:
	.loc	1 218 5 is_stmt 0               @ rt-thread/src/timer.c:218:5
	cbnz	r0, .LBB4_6
	b	.LBB4_5
.LBB4_5:
.Ltmp25:
	.loc	1 218 5                         @ rt-thread/src/timer.c:218:5
	movw	r0, :lower16:.L.str.2
	movt	r0, :upper16:.L.str.2
	movw	r1, :lower16:.L__FUNCTION__.rt_timer_detach
	movt	r1, :upper16:.L__FUNCTION__.rt_timer_detach
	movs	r2, #218
	bl	rt_assert_handler
	b	.LBB4_6
.Ltmp26:
.LBB4_6:
	.loc	1 221 13 is_stmt 1              @ rt-thread/src/timer.c:221:13
	bl	rt_hw_interrupt_disable
	.loc	1 221 11 is_stmt 0              @ rt-thread/src/timer.c:221:11
	str	r0, [sp]
	.loc	1 223 22 is_stmt 1              @ rt-thread/src/timer.c:223:22
	ldr	r0, [sp, #4]
	.loc	1 223 5 is_stmt 0               @ rt-thread/src/timer.c:223:5
	bl	_rt_timer_remove
	.loc	1 226 28 is_stmt 1              @ rt-thread/src/timer.c:226:28
	ldr	r0, [sp]
	.loc	1 226 5 is_stmt 0               @ rt-thread/src/timer.c:226:5
	bl	rt_hw_interrupt_enable
	.loc	1 228 35 is_stmt 1              @ rt-thread/src/timer.c:228:35
	ldr	r0, [sp, #4]
	.loc	1 228 5 is_stmt 0               @ rt-thread/src/timer.c:228:5
	bl	rt_object_detach
	movs	r0, #0
	.loc	1 230 5 is_stmt 1               @ rt-thread/src/timer.c:230:5
	add	sp, #8
	pop	{r7, pc}
.Ltmp27:
.Lfunc_end4:
	.size	rt_timer_detach, .Lfunc_end4-rt_timer_detach
	.cfi_endproc
	.cantunwind
	.fnend
                                        @ -- End function
	.section	.text._rt_timer_remove,"ax",%progbits
	.p2align	3                               @ -- Begin function _rt_timer_remove
	.type	_rt_timer_remove,%function
	.code	16                              @ @_rt_timer_remove
	.thumb_func
_rt_timer_remove:
.Lfunc_begin5:
	.loc	1 131 0                         @ rt-thread/src/timer.c:131:0
	.fnstart
	.cfi_startproc
@ %bb.0:
	.save	{r7, lr}
	push	{r7, lr}
	.cfi_def_cfa_offset 8
	.cfi_offset lr, -4
	.cfi_offset r7, -8
	.pad	#8
	sub	sp, #8
	.cfi_def_cfa_offset 16
	str	r0, [sp, #4]
	movs	r0, #0
.Ltmp28:
	.loc	1 134 12 prologue_end           @ rt-thread/src/timer.c:134:12
	str	r0, [sp]
	.loc	1 134 10 is_stmt 0              @ rt-thread/src/timer.c:134:10
	b	.LBB5_1
.LBB5_1:                                @ =>This Inner Loop Header: Depth=1
.Ltmp29:
	.loc	1 134 17                        @ rt-thread/src/timer.c:134:17
	ldr	r0, [sp]
.Ltmp30:
	.loc	1 134 5                         @ rt-thread/src/timer.c:134:5
	cmp	r0, #0
	bgt	.LBB5_4
	b	.LBB5_2
.LBB5_2:                                @   in Loop: Header=BB5_1 Depth=1
.Ltmp31:
	.loc	1 136 25 is_stmt 1              @ rt-thread/src/timer.c:136:25
	ldr	r0, [sp, #4]
	.loc	1 136 36 is_stmt 0              @ rt-thread/src/timer.c:136:36
	ldr	r1, [sp]
	.loc	1 136 32                        @ rt-thread/src/timer.c:136:32
	add.w	r0, r0, r1, lsl #3
	.loc	1 136 25                        @ rt-thread/src/timer.c:136:25
	adds	r0, #20
	.loc	1 136 9                         @ rt-thread/src/timer.c:136:9
	bl	rt_list_remove
	.loc	1 137 5 is_stmt 1               @ rt-thread/src/timer.c:137:5
	b	.LBB5_3
.Ltmp32:
.LBB5_3:                                @   in Loop: Header=BB5_1 Depth=1
	.loc	1 134 48                        @ rt-thread/src/timer.c:134:48
	ldr	r0, [sp]
	adds	r0, #1
	str	r0, [sp]
	.loc	1 134 5 is_stmt 0               @ rt-thread/src/timer.c:134:5
	b	.LBB5_1
.Ltmp33:
.LBB5_4:
	.loc	1 138 1 is_stmt 1               @ rt-thread/src/timer.c:138:1
	add	sp, #8
	pop	{r7, pc}
.Ltmp34:
.Lfunc_end5:
	.size	_rt_timer_remove, .Lfunc_end5-_rt_timer_remove
	.cfi_endproc
	.cantunwind
	.fnend
                                        @ -- End function
	.section	.text.rt_timer_create,"ax",%progbits
	.hidden	rt_timer_create                 @ -- Begin function rt_timer_create
	.globl	rt_timer_create
	.p2align	3
	.type	rt_timer_create,%function
	.code	16                              @ @rt_timer_create
	.thumb_func
rt_timer_create:
.Lfunc_begin6:
	.loc	1 251 0                         @ rt-thread/src/timer.c:251:0
	.fnstart
	.cfi_startproc
@ %bb.0:
	.save	{r7, lr}
	push	{r7, lr}
	.cfi_def_cfa_offset 8
	.cfi_offset lr, -4
	.cfi_offset r7, -8
	.pad	#32
	sub	sp, #32
	.cfi_def_cfa_offset 40
	mov	r12, r0
	ldr	r0, [sp, #40]
	str.w	r12, [sp, #24]
	str	r1, [sp, #20]
	str	r2, [sp, #16]
	str	r3, [sp, #12]
	strb.w	r0, [sp, #11]
.Ltmp35:
	.loc	1 255 74 prologue_end           @ rt-thread/src/timer.c:255:74
	ldr	r1, [sp, #24]
	movs	r0, #10
	.loc	1 255 32 is_stmt 0              @ rt-thread/src/timer.c:255:32
	bl	rt_object_allocate
	.loc	1 255 11                        @ rt-thread/src/timer.c:255:11
	str	r0, [sp, #4]
.Ltmp36:
	.loc	1 256 9 is_stmt 1               @ rt-thread/src/timer.c:256:9
	ldr	r0, [sp, #4]
.Ltmp37:
	.loc	1 256 9 is_stmt 0               @ rt-thread/src/timer.c:256:9
	cbnz	r0, .LBB6_2
	b	.LBB6_1
.LBB6_1:
	.loc	1 0 9                           @ rt-thread/src/timer.c:0:9
	movs	r0, #0
.Ltmp38:
	.loc	1 258 9 is_stmt 1               @ rt-thread/src/timer.c:258:9
	str	r0, [sp, #28]
	b	.LBB6_3
.Ltmp39:
.LBB6_2:
	.loc	1 261 20                        @ rt-thread/src/timer.c:261:20
	ldr	r0, [sp, #4]
	.loc	1 261 27 is_stmt 0              @ rt-thread/src/timer.c:261:27
	ldr	r1, [sp, #20]
	.loc	1 261 36                        @ rt-thread/src/timer.c:261:36
	ldr	r2, [sp, #16]
	.loc	1 261 47                        @ rt-thread/src/timer.c:261:47
	ldr	r3, [sp, #12]
	.loc	1 261 53                        @ rt-thread/src/timer.c:261:53
	ldrb.w	r12, [sp, #11]
	.loc	1 261 5                         @ rt-thread/src/timer.c:261:5
	mov	lr, sp
	str.w	r12, [lr]
	bl	_rt_timer_init
	.loc	1 263 12 is_stmt 1              @ rt-thread/src/timer.c:263:12
	ldr	r0, [sp, #4]
	.loc	1 263 5 is_stmt 0               @ rt-thread/src/timer.c:263:5
	str	r0, [sp, #28]
	b	.LBB6_3
.LBB6_3:
	.loc	1 264 1 is_stmt 1               @ rt-thread/src/timer.c:264:1
	ldr	r0, [sp, #28]
	add	sp, #32
	pop	{r7, pc}
.Ltmp40:
.Lfunc_end6:
	.size	rt_timer_create, .Lfunc_end6-rt_timer_create
	.cfi_endproc
	.cantunwind
	.fnend
                                        @ -- End function
	.section	.text.rt_timer_delete,"ax",%progbits
	.hidden	rt_timer_delete                 @ -- Begin function rt_timer_delete
	.globl	rt_timer_delete
	.p2align	3
	.type	rt_timer_delete,%function
	.code	16                              @ @rt_timer_delete
	.thumb_func
rt_timer_delete:
.Lfunc_begin7:
	.loc	1 275 0                         @ rt-thread/src/timer.c:275:0
	.fnstart
	.cfi_startproc
@ %bb.0:
	.save	{r7, lr}
	push	{r7, lr}
	.cfi_def_cfa_offset 8
	.cfi_offset lr, -4
	.cfi_offset r7, -8
	.pad	#8
	sub	sp, #8
	.cfi_def_cfa_offset 16
	str	r0, [sp, #4]
.Ltmp41:
	.loc	1 279 5 prologue_end            @ rt-thread/src/timer.c:279:5
	ldr	r0, [sp, #4]
.Ltmp42:
	.loc	1 279 5 is_stmt 0               @ rt-thread/src/timer.c:279:5
	cbnz	r0, .LBB7_2
	b	.LBB7_1
.LBB7_1:
.Ltmp43:
	.loc	1 279 5                         @ rt-thread/src/timer.c:279:5
	movw	r0, :lower16:.L.str
	movt	r0, :upper16:.L.str
	movw	r1, :lower16:.L__FUNCTION__.rt_timer_delete
	movt	r1, :upper16:.L__FUNCTION__.rt_timer_delete
	movw	r2, #279
	bl	rt_assert_handler
	b	.LBB7_2
.Ltmp44:
.LBB7_2:
	.loc	1 280 5 is_stmt 1               @ rt-thread/src/timer.c:280:5
	ldr	r0, [sp, #4]
	bl	rt_object_get_type
.Ltmp45:
	.loc	1 280 5 is_stmt 0               @ rt-thread/src/timer.c:280:5
	cmp	r0, #10
	beq	.LBB7_4
	b	.LBB7_3
.LBB7_3:
.Ltmp46:
	.loc	1 280 5                         @ rt-thread/src/timer.c:280:5
	movw	r0, :lower16:.L.str.1
	movt	r0, :upper16:.L.str.1
	movw	r1, :lower16:.L__FUNCTION__.rt_timer_delete
	movt	r1, :upper16:.L__FUNCTION__.rt_timer_delete
	mov.w	r2, #280
	bl	rt_assert_handler
	b	.LBB7_4
.Ltmp47:
.LBB7_4:
	.loc	1 281 5 is_stmt 1               @ rt-thread/src/timer.c:281:5
	ldr	r0, [sp, #4]
	bl	rt_object_is_systemobject
.Ltmp48:
	.loc	1 281 5 is_stmt 0               @ rt-thread/src/timer.c:281:5
	cbz	r0, .LBB7_6
	b	.LBB7_5
.LBB7_5:
.Ltmp49:
	.loc	1 281 5                         @ rt-thread/src/timer.c:281:5
	movw	r0, :lower16:.L.str.3
	movt	r0, :upper16:.L.str.3
	movw	r1, :lower16:.L__FUNCTION__.rt_timer_delete
	movt	r1, :upper16:.L__FUNCTION__.rt_timer_delete
	movw	r2, #281
	bl	rt_assert_handler
	b	.LBB7_6
.Ltmp50:
.LBB7_6:
	.loc	1 284 13 is_stmt 1              @ rt-thread/src/timer.c:284:13
	bl	rt_hw_interrupt_disable
	.loc	1 284 11 is_stmt 0              @ rt-thread/src/timer.c:284:11
	str	r0, [sp]
	.loc	1 286 22 is_stmt 1              @ rt-thread/src/timer.c:286:22
	ldr	r0, [sp, #4]
	.loc	1 286 5 is_stmt 0               @ rt-thread/src/timer.c:286:5
	bl	_rt_timer_remove
	.loc	1 289 28 is_stmt 1              @ rt-thread/src/timer.c:289:28
	ldr	r0, [sp]
	.loc	1 289 5 is_stmt 0               @ rt-thread/src/timer.c:289:5
	bl	rt_hw_interrupt_enable
	.loc	1 291 35 is_stmt 1              @ rt-thread/src/timer.c:291:35
	ldr	r0, [sp, #4]
	.loc	1 291 5 is_stmt 0               @ rt-thread/src/timer.c:291:5
	bl	rt_object_delete
	movs	r0, #0
	.loc	1 293 5 is_stmt 1               @ rt-thread/src/timer.c:293:5
	add	sp, #8
	pop	{r7, pc}
.Ltmp51:
.Lfunc_end7:
	.size	rt_timer_delete, .Lfunc_end7-rt_timer_delete
	.cfi_endproc
	.cantunwind
	.fnend
                                        @ -- End function
	.section	.text.rt_timer_start,"ax",%progbits
	.hidden	rt_timer_start                  @ -- Begin function rt_timer_start
	.globl	rt_timer_start
	.p2align	3
	.type	rt_timer_start,%function
	.code	16                              @ @rt_timer_start
	.thumb_func
rt_timer_start:
.Lfunc_begin8:
	.loc	1 306 0                         @ rt-thread/src/timer.c:306:0
	.fnstart
	.cfi_startproc
@ %bb.0:
	.save	{r7, lr}
	push	{r7, lr}
	.cfi_def_cfa_offset 8
	.cfi_offset lr, -4
	.cfi_offset r7, -8
	.pad	#32
	sub	sp, #32
	.cfi_def_cfa_offset 40
	str	r0, [sp, #28]
.Ltmp52:
	.loc	1 315 5 prologue_end            @ rt-thread/src/timer.c:315:5
	ldr	r0, [sp, #28]
.Ltmp53:
	.loc	1 315 5 is_stmt 0               @ rt-thread/src/timer.c:315:5
	cbnz	r0, .LBB8_2
	b	.LBB8_1
.LBB8_1:
.Ltmp54:
	.loc	1 315 5                         @ rt-thread/src/timer.c:315:5
	movw	r0, :lower16:.L.str
	movt	r0, :upper16:.L.str
	movw	r1, :lower16:.L__FUNCTION__.rt_timer_start
	movt	r1, :upper16:.L__FUNCTION__.rt_timer_start
	movw	r2, #315
	bl	rt_assert_handler
	b	.LBB8_2
.Ltmp55:
.LBB8_2:
	.loc	1 316 5 is_stmt 1               @ rt-thread/src/timer.c:316:5
	ldr	r0, [sp, #28]
	bl	rt_object_get_type
.Ltmp56:
	.loc	1 316 5 is_stmt 0               @ rt-thread/src/timer.c:316:5
	cmp	r0, #10
	beq	.LBB8_4
	b	.LBB8_3
.LBB8_3:
.Ltmp57:
	.loc	1 316 5                         @ rt-thread/src/timer.c:316:5
	movw	r0, :lower16:.L.str.1
	movt	r0, :upper16:.L.str.1
	movw	r1, :lower16:.L__FUNCTION__.rt_timer_start
	movt	r1, :upper16:.L__FUNCTION__.rt_timer_start
	mov.w	r2, #316
	bl	rt_assert_handler
	b	.LBB8_4
.Ltmp58:
.LBB8_4:
	.loc	1 319 13 is_stmt 1              @ rt-thread/src/timer.c:319:13
	bl	rt_hw_interrupt_disable
	.loc	1 319 11 is_stmt 0              @ rt-thread/src/timer.c:319:11
	str	r0, [sp, #16]
	.loc	1 321 22 is_stmt 1              @ rt-thread/src/timer.c:321:22
	ldr	r0, [sp, #28]
	.loc	1 321 5 is_stmt 0               @ rt-thread/src/timer.c:321:5
	bl	_rt_timer_remove
	.loc	1 323 5 is_stmt 1               @ rt-thread/src/timer.c:323:5
	ldr	r1, [sp, #28]
	.loc	1 323 24 is_stmt 0              @ rt-thread/src/timer.c:323:24
	ldrb	r0, [r1, #9]
	and	r0, r0, #254
	strb	r0, [r1, #9]
	.loc	1 324 28 is_stmt 1              @ rt-thread/src/timer.c:324:28
	ldr	r0, [sp, #16]
	.loc	1 324 5 is_stmt 0               @ rt-thread/src/timer.c:324:5
	bl	rt_hw_interrupt_enable
	.loc	1 326 5 is_stmt 1               @ rt-thread/src/timer.c:326:5
	b	.LBB8_5
.LBB8_5:
.Ltmp59:
	.loc	1 326 5 is_stmt 0               @ rt-thread/src/timer.c:326:5
	movw	r0, :lower16:rt_object_take_hook
	movt	r0, :upper16:rt_object_take_hook
	ldr	r0, [r0]
.Ltmp60:
	.loc	1 326 5                         @ rt-thread/src/timer.c:326:5
	cbz	r0, .LBB8_7
	b	.LBB8_6
.LBB8_6:
.Ltmp61:
	.loc	1 326 5                         @ rt-thread/src/timer.c:326:5
	movw	r0, :lower16:rt_object_take_hook
	movt	r0, :upper16:rt_object_take_hook
	ldr	r1, [r0]
	ldr	r0, [sp, #28]
	blx	r1
	b	.LBB8_7
.Ltmp62:
.LBB8_7:
	.loc	1 326 5                         @ rt-thread/src/timer.c:326:5
	b	.LBB8_8
.Ltmp63:
.LBB8_8:
	.loc	1 332 5 is_stmt 1               @ rt-thread/src/timer.c:332:5
	ldr	r0, [sp, #28]
	ldr	r0, [r0, #36]
	mvn	r1, #-2147483648
.Ltmp64:
	.loc	1 332 5 is_stmt 0               @ rt-thread/src/timer.c:332:5
	cmp	r0, r1
	blo	.LBB8_10
	b	.LBB8_9
.LBB8_9:
.Ltmp65:
	.loc	1 332 5                         @ rt-thread/src/timer.c:332:5
	movw	r0, :lower16:.L.str.4
	movt	r0, :upper16:.L.str.4
	movw	r1, :lower16:.L__FUNCTION__.rt_timer_start
	movt	r1, :upper16:.L__FUNCTION__.rt_timer_start
	mov.w	r2, #332
	bl	rt_assert_handler
	b	.LBB8_10
.Ltmp66:
.LBB8_10:
	.loc	1 333 27 is_stmt 1              @ rt-thread/src/timer.c:333:27
	bl	rt_tick_get
	.loc	1 333 43 is_stmt 0              @ rt-thread/src/timer.c:333:43
	ldr	r1, [sp, #28]
	.loc	1 333 50                        @ rt-thread/src/timer.c:333:50
	ldr	r2, [r1, #36]
	.loc	1 333 41                        @ rt-thread/src/timer.c:333:41
	add	r0, r2
	.loc	1 333 25                        @ rt-thread/src/timer.c:333:25
	str	r0, [r1, #40]
	.loc	1 336 13 is_stmt 1              @ rt-thread/src/timer.c:336:13
	bl	rt_hw_interrupt_disable
	.loc	1 336 11 is_stmt 0              @ rt-thread/src/timer.c:336:11
	str	r0, [sp, #16]
.Ltmp67:
	.loc	1 339 9 is_stmt 1               @ rt-thread/src/timer.c:339:9
	ldr	r0, [sp, #28]
	ldrb	r0, [r0, #9]
.Ltmp68:
	.loc	1 339 9 is_stmt 0               @ rt-thread/src/timer.c:339:9
	lsls	r0, r0, #29
	cmp	r0, #0
	bpl	.LBB8_12
	b	.LBB8_11
.LBB8_11:
.Ltmp69:
	.loc	1 342 20 is_stmt 1              @ rt-thread/src/timer.c:342:20
	movw	r0, :lower16:rt_soft_timer_list
	movt	r0, :upper16:rt_soft_timer_list
	str	r0, [sp, #20]
	.loc	1 343 5                         @ rt-thread/src/timer.c:343:5
	b	.LBB8_13
.Ltmp70:
.LBB8_12:
	.loc	1 348 20                        @ rt-thread/src/timer.c:348:20
	movw	r0, :lower16:rt_timer_list
	movt	r0, :upper16:rt_timer_list
	str	r0, [sp, #20]
	b	.LBB8_13
.Ltmp71:
.LBB8_13:
	.loc	1 351 21                        @ rt-thread/src/timer.c:351:21
	ldr	r0, [sp, #20]
	.loc	1 351 18 is_stmt 0              @ rt-thread/src/timer.c:351:18
	str	r0, [sp, #12]
	movs	r0, #0
.Ltmp72:
	.loc	1 352 18 is_stmt 1              @ rt-thread/src/timer.c:352:18
	str	r0, [sp, #24]
	.loc	1 352 10 is_stmt 0              @ rt-thread/src/timer.c:352:10
	b	.LBB8_14
.LBB8_14:                               @ =>This Loop Header: Depth=1
                                        @     Child Loop BB8_16 Depth 2
.Ltmp73:
	.loc	1 352 23                        @ rt-thread/src/timer.c:352:23
	ldr	r0, [sp, #24]
.Ltmp74:
	.loc	1 352 5                         @ rt-thread/src/timer.c:352:5
	cmp	r0, #0
	bne	.LBB8_28
	b	.LBB8_15
.LBB8_15:                               @   in Loop: Header=BB8_14 Depth=1
.Ltmp75:
	.loc	1 354 9 is_stmt 1               @ rt-thread/src/timer.c:354:9
	b	.LBB8_16
.LBB8_16:                               @   Parent Loop BB8_14 Depth=1
                                        @ =>  This Inner Loop Header: Depth=2
.Ltmp76:
	.loc	1 354 25 is_stmt 0              @ rt-thread/src/timer.c:354:25
	ldr	r2, [sp, #24]
	add	r0, sp, #12
	.loc	1 354 16                        @ rt-thread/src/timer.c:354:16
	ldr.w	r0, [r0, r2, lsl #2]
	.loc	1 354 37                        @ rt-thread/src/timer.c:354:37
	ldr	r1, [sp, #20]
	add.w	r1, r1, r2, lsl #3
	.loc	1 354 57                        @ rt-thread/src/timer.c:354:57
	ldr	r1, [r1, #4]
.Ltmp77:
	.loc	1 354 9                         @ rt-thread/src/timer.c:354:9
	cmp	r0, r1
	beq	.LBB8_24
	b	.LBB8_17
.LBB8_17:                               @   in Loop: Header=BB8_16 Depth=2
.Ltmp78:
	.loc	1 358 37 is_stmt 1              @ rt-thread/src/timer.c:358:37
	ldr	r1, [sp, #24]
	add	r0, sp, #12
	.loc	1 358 28 is_stmt 0              @ rt-thread/src/timer.c:358:28
	ldr.w	r0, [r0, r1, lsl #2]
	.loc	1 358 47                        @ rt-thread/src/timer.c:358:47
	ldr	r0, [r0]
	.loc	1 358 24                        @ rt-thread/src/timer.c:358:24
	str	r0, [sp]
	.loc	1 361 17 is_stmt 1              @ rt-thread/src/timer.c:361:17
	ldr	r0, [sp]
	ldr	r1, [sp, #24]
	sub.w	r0, r0, r1, lsl #3
	subs	r0, #20
	.loc	1 361 15 is_stmt 0              @ rt-thread/src/timer.c:361:15
	str	r0, [sp, #4]
.Ltmp79:
	.loc	1 368 18 is_stmt 1              @ rt-thread/src/timer.c:368:18
	ldr	r0, [sp, #4]
	.loc	1 368 21 is_stmt 0              @ rt-thread/src/timer.c:368:21
	ldr	r0, [r0, #40]
	.loc	1 368 36                        @ rt-thread/src/timer.c:368:36
	ldr	r1, [sp, #28]
	.loc	1 368 43                        @ rt-thread/src/timer.c:368:43
	ldr	r1, [r1, #40]
	.loc	1 368 34                        @ rt-thread/src/timer.c:368:34
	subs	r0, r0, r1
.Ltmp80:
	.loc	1 368 17                        @ rt-thread/src/timer.c:368:17
	cbnz	r0, .LBB8_19
	b	.LBB8_18
.LBB8_18:                               @   in Loop: Header=BB8_16 Depth=2
.Ltmp81:
	.loc	1 370 17 is_stmt 1              @ rt-thread/src/timer.c:370:17
	b	.LBB8_23
.Ltmp82:
.LBB8_19:                               @   in Loop: Header=BB8_16 Depth=2
	.loc	1 372 23                        @ rt-thread/src/timer.c:372:23
	ldr	r0, [sp, #4]
	.loc	1 372 26 is_stmt 0              @ rt-thread/src/timer.c:372:26
	ldr	r0, [r0, #40]
	.loc	1 372 41                        @ rt-thread/src/timer.c:372:41
	ldr	r1, [sp, #28]
	.loc	1 372 48                        @ rt-thread/src/timer.c:372:48
	ldr	r1, [r1, #40]
	.loc	1 372 39                        @ rt-thread/src/timer.c:372:39
	subs	r0, r0, r1
	movw	r1, #65534
	movt	r1, #32767
.Ltmp83:
	.loc	1 372 22                        @ rt-thread/src/timer.c:372:22
	cmp	r0, r1
	bhi	.LBB8_21
	b	.LBB8_20
.LBB8_20:                               @   in Loop: Header=BB8_14 Depth=1
.Ltmp84:
	.loc	1 374 17 is_stmt 1              @ rt-thread/src/timer.c:374:17
	b	.LBB8_24
.Ltmp85:
.LBB8_21:                               @   in Loop: Header=BB8_16 Depth=2
	.loc	1 0 17 is_stmt 0                @ rt-thread/src/timer.c:0:17
	b	.LBB8_22
.LBB8_22:                               @   in Loop: Header=BB8_16 Depth=2
	.loc	1 376 9 is_stmt 1               @ rt-thread/src/timer.c:376:9
	b	.LBB8_23
.Ltmp86:
.LBB8_23:                               @   in Loop: Header=BB8_16 Depth=2
	.loc	1 355 44                        @ rt-thread/src/timer.c:355:44
	ldr	r2, [sp, #24]
	add	r1, sp, #12
	.loc	1 355 35 is_stmt 0              @ rt-thread/src/timer.c:355:35
	ldr.w	r0, [r1, r2, lsl #2]
	.loc	1 355 54                        @ rt-thread/src/timer.c:355:54
	ldr	r0, [r0]
	.loc	1 355 33                        @ rt-thread/src/timer.c:355:33
	str.w	r0, [r1, r2, lsl #2]
	.loc	1 354 9 is_stmt 1               @ rt-thread/src/timer.c:354:9
	b	.LBB8_16
.Ltmp87:
.LBB8_24:                               @   in Loop: Header=BB8_14 Depth=1
	.loc	1 377 13                        @ rt-thread/src/timer.c:377:13
	ldr	r0, [sp, #24]
.Ltmp88:
	.loc	1 377 13 is_stmt 0              @ rt-thread/src/timer.c:377:13
	cbz	r0, .LBB8_26
	b	.LBB8_25
.LBB8_25:                               @   in Loop: Header=BB8_14 Depth=1
.Ltmp89:
	.loc	1 378 46 is_stmt 1              @ rt-thread/src/timer.c:378:46
	ldr	r2, [sp, #24]
	add	r0, sp, #12
	.loc	1 378 37 is_stmt 0              @ rt-thread/src/timer.c:378:37
	add.w	r1, r0, r2, lsl #2
	ldr.w	r0, [r0, r2, lsl #2]
	.loc	1 378 55                        @ rt-thread/src/timer.c:378:55
	adds	r0, #8
	.loc	1 378 35                        @ rt-thread/src/timer.c:378:35
	str	r0, [r1, #4]
	.loc	1 378 13                        @ rt-thread/src/timer.c:378:13
	b	.LBB8_26
.Ltmp90:
.LBB8_26:                               @   in Loop: Header=BB8_14 Depth=1
	.loc	1 379 5 is_stmt 1               @ rt-thread/src/timer.c:379:5
	b	.LBB8_27
.Ltmp91:
.LBB8_27:                               @   in Loop: Header=BB8_14 Depth=1
	.loc	1 352 66                        @ rt-thread/src/timer.c:352:66
	ldr	r0, [sp, #24]
	adds	r0, #1
	str	r0, [sp, #24]
	.loc	1 352 5 is_stmt 0               @ rt-thread/src/timer.c:352:5
	b	.LBB8_14
.Ltmp92:
.LBB8_28:
	.loc	1 385 14 is_stmt 1              @ rt-thread/src/timer.c:385:14
	movw	r0, :lower16:rt_timer_start.random_nr
	movt	r0, :upper16:rt_timer_start.random_nr
	ldr	r1, [r0]
	adds	r1, #1
	str	r1, [r0]
	.loc	1 386 14                        @ rt-thread/src/timer.c:386:14
	ldr	r0, [r0]
	.loc	1 386 12 is_stmt 0              @ rt-thread/src/timer.c:386:12
	str	r0, [sp, #8]
	.loc	1 388 26 is_stmt 1              @ rt-thread/src/timer.c:388:26
	ldr	r0, [sp, #12]
	.loc	1 389 28                        @ rt-thread/src/timer.c:389:28
	ldr	r1, [sp, #28]
	.loc	1 389 35 is_stmt 0              @ rt-thread/src/timer.c:389:35
	adds	r1, #20
	.loc	1 388 5 is_stmt 1               @ rt-thread/src/timer.c:388:5
	bl	rt_list_insert_after
	movs	r0, #2
.Ltmp93:
	.loc	1 390 18                        @ rt-thread/src/timer.c:390:18
	str	r0, [sp, #24]
	.loc	1 390 10 is_stmt 0              @ rt-thread/src/timer.c:390:10
	b	.LBB8_29
.LBB8_29:                               @ =>This Inner Loop Header: Depth=1
.Ltmp94:
	.loc	1 390 23                        @ rt-thread/src/timer.c:390:23
	ldr	r0, [sp, #24]
.Ltmp95:
	.loc	1 390 5                         @ rt-thread/src/timer.c:390:5
	cmp	r0, #1
	bhi	.LBB8_35
	b	.LBB8_30
.LBB8_30:                               @   in Loop: Header=BB8_29 Depth=1
.Ltmp96:
	.loc	1 392 13 is_stmt 1              @ rt-thread/src/timer.c:392:13
	ldrb.w	r0, [sp, #8]
	lsls	r0, r0, #30
	cbnz	r0, .LBB8_32
	b	.LBB8_31
.LBB8_31:                               @   in Loop: Header=BB8_29 Depth=1
.Ltmp97:
	.loc	1 393 70                        @ rt-thread/src/timer.c:393:70
	ldr	r0, [sp, #24]
	.loc	1 393 68 is_stmt 0              @ rt-thread/src/timer.c:393:68
	rsb.w	r2, r0, #1
	add	r0, sp, #12
	.loc	1 393 34                        @ rt-thread/src/timer.c:393:34
	ldr.w	r0, [r0, r2, lsl #2]
	.loc	1 394 36 is_stmt 1              @ rt-thread/src/timer.c:394:36
	ldr	r1, [sp, #28]
	.loc	1 394 43 is_stmt 0              @ rt-thread/src/timer.c:394:43
	add.w	r1, r1, r2, lsl #3
	.loc	1 394 36                        @ rt-thread/src/timer.c:394:36
	adds	r1, #20
	.loc	1 393 13 is_stmt 1              @ rt-thread/src/timer.c:393:13
	bl	rt_list_insert_after
	b	.LBB8_33
.LBB8_32:
	.loc	1 396 13                        @ rt-thread/src/timer.c:396:13
	b	.LBB8_35
.Ltmp98:
.LBB8_33:                               @   in Loop: Header=BB8_29 Depth=1
	.loc	1 399 16                        @ rt-thread/src/timer.c:399:16
	ldr	r0, [sp, #8]
	lsrs	r0, r0, #2
	str	r0, [sp, #8]
	.loc	1 400 5                         @ rt-thread/src/timer.c:400:5
	b	.LBB8_34
.Ltmp99:
.LBB8_34:                               @   in Loop: Header=BB8_29 Depth=1
	.loc	1 390 67                        @ rt-thread/src/timer.c:390:67
	ldr	r0, [sp, #24]
	adds	r0, #1
	str	r0, [sp, #24]
	.loc	1 390 5 is_stmt 0               @ rt-thread/src/timer.c:390:5
	b	.LBB8_29
.Ltmp100:
.LBB8_35:
	.loc	1 402 5 is_stmt 1               @ rt-thread/src/timer.c:402:5
	ldr	r1, [sp, #28]
	.loc	1 402 24 is_stmt 0              @ rt-thread/src/timer.c:402:24
	ldrb	r0, [r1, #9]
	orr	r0, r0, #1
	strb	r0, [r1, #9]
	.loc	1 405 28 is_stmt 1              @ rt-thread/src/timer.c:405:28
	ldr	r0, [sp, #16]
	.loc	1 405 5 is_stmt 0               @ rt-thread/src/timer.c:405:5
	bl	rt_hw_interrupt_enable
.Ltmp101:
	.loc	1 408 9 is_stmt 1               @ rt-thread/src/timer.c:408:9
	ldr	r0, [sp, #28]
	ldrb	r0, [r0, #9]
.Ltmp102:
	.loc	1 408 9 is_stmt 0               @ rt-thread/src/timer.c:408:9
	lsls	r0, r0, #29
	cmp	r0, #0
	bpl	.LBB8_39
	b	.LBB8_36
.LBB8_36:
.Ltmp103:
	.loc	1 411 27 is_stmt 1              @ rt-thread/src/timer.c:411:27
	movw	r0, :lower16:timer_thread
	movt	r0, :upper16:timer_thread
	.loc	1 411 14 is_stmt 0              @ rt-thread/src/timer.c:411:14
	ldrb.w	r0, [r0, #52]
	.loc	1 411 32                        @ rt-thread/src/timer.c:411:32
	and	r0, r0, #7
.Ltmp104:
	.loc	1 411 13                        @ rt-thread/src/timer.c:411:13
	cmp	r0, #2
	bne	.LBB8_38
	b	.LBB8_37
.LBB8_37:
.Ltmp105:
	.loc	1 414 13 is_stmt 1              @ rt-thread/src/timer.c:414:13
	movw	r0, :lower16:timer_thread
	movt	r0, :upper16:timer_thread
	bl	rt_thread_resume
	.loc	1 415 13                        @ rt-thread/src/timer.c:415:13
	bl	rt_schedule
	.loc	1 416 9                         @ rt-thread/src/timer.c:416:9
	b	.LBB8_38
.Ltmp106:
.LBB8_38:
	.loc	1 417 5                         @ rt-thread/src/timer.c:417:5
	b	.LBB8_39
.Ltmp107:
.LBB8_39:
	.loc	1 0 5 is_stmt 0                 @ rt-thread/src/timer.c:0:5
	movs	r0, #0
	.loc	1 420 5 is_stmt 1               @ rt-thread/src/timer.c:420:5
	add	sp, #32
	pop	{r7, pc}
.Ltmp108:
.Lfunc_end8:
	.size	rt_timer_start, .Lfunc_end8-rt_timer_start
	.cfi_endproc
	.cantunwind
	.fnend
                                        @ -- End function
	.section	.text.rt_list_insert_after,"ax",%progbits
	.p2align	3                               @ -- Begin function rt_list_insert_after
	.type	rt_list_insert_after,%function
	.code	16                              @ @rt_list_insert_after
	.thumb_func
rt_list_insert_after:
.Lfunc_begin9:
	.file	3 "E:\\STM32\\Learning\\STM32H750_ART_PI_RGBLCD" "rt-thread/include\\rtservice.h"
	.loc	3 59 0                          @ rt-thread/include\rtservice.h:59:0
	.fnstart
	.cfi_startproc
@ %bb.0:
	.pad	#8
	sub	sp, #8
	.cfi_def_cfa_offset 8
	str	r0, [sp, #4]
	str	r1, [sp]
.Ltmp109:
	.loc	3 60 21 prologue_end            @ rt-thread/include\rtservice.h:60:21
	ldr	r0, [sp]
	.loc	3 60 5 is_stmt 0                @ rt-thread/include\rtservice.h:60:5
	ldr	r1, [sp, #4]
	.loc	3 60 8                          @ rt-thread/include\rtservice.h:60:8
	ldr	r1, [r1]
	.loc	3 60 19                         @ rt-thread/include\rtservice.h:60:19
	str	r0, [r1, #4]
	.loc	3 61 15 is_stmt 1               @ rt-thread/include\rtservice.h:61:15
	ldr	r0, [sp, #4]
	.loc	3 61 18 is_stmt 0               @ rt-thread/include\rtservice.h:61:18
	ldr	r0, [r0]
	.loc	3 61 5                          @ rt-thread/include\rtservice.h:61:5
	ldr	r1, [sp]
	.loc	3 61 13                         @ rt-thread/include\rtservice.h:61:13
	str	r0, [r1]
	.loc	3 63 15 is_stmt 1               @ rt-thread/include\rtservice.h:63:15
	ldr	r0, [sp]
	.loc	3 63 5 is_stmt 0                @ rt-thread/include\rtservice.h:63:5
	ldr	r1, [sp, #4]
	.loc	3 63 13                         @ rt-thread/include\rtservice.h:63:13
	str	r0, [r1]
	.loc	3 64 15 is_stmt 1               @ rt-thread/include\rtservice.h:64:15
	ldr	r0, [sp, #4]
	.loc	3 64 5 is_stmt 0                @ rt-thread/include\rtservice.h:64:5
	ldr	r1, [sp]
	.loc	3 64 13                         @ rt-thread/include\rtservice.h:64:13
	str	r0, [r1, #4]
	.loc	3 65 1 is_stmt 1                @ rt-thread/include\rtservice.h:65:1
	add	sp, #8
	bx	lr
.Ltmp110:
.Lfunc_end9:
	.size	rt_list_insert_after, .Lfunc_end9-rt_list_insert_after
	.cfi_endproc
	.cantunwind
	.fnend
                                        @ -- End function
	.section	.text.rt_timer_stop,"ax",%progbits
	.hidden	rt_timer_stop                   @ -- Begin function rt_timer_stop
	.globl	rt_timer_stop
	.p2align	3
	.type	rt_timer_stop,%function
	.code	16                              @ @rt_timer_stop
	.thumb_func
rt_timer_stop:
.Lfunc_begin10:
	.loc	1 432 0                         @ rt-thread/src/timer.c:432:0
	.fnstart
	.cfi_startproc
@ %bb.0:
	.save	{r7, lr}
	push	{r7, lr}
	.cfi_def_cfa_offset 8
	.cfi_offset lr, -4
	.cfi_offset r7, -8
	.pad	#16
	sub	sp, #16
	.cfi_def_cfa_offset 24
	str	r0, [sp, #8]
.Ltmp111:
	.loc	1 436 5 prologue_end            @ rt-thread/src/timer.c:436:5
	ldr	r0, [sp, #8]
.Ltmp112:
	.loc	1 436 5 is_stmt 0               @ rt-thread/src/timer.c:436:5
	cbnz	r0, .LBB10_2
	b	.LBB10_1
.LBB10_1:
.Ltmp113:
	.loc	1 436 5                         @ rt-thread/src/timer.c:436:5
	movw	r0, :lower16:.L.str
	movt	r0, :upper16:.L.str
	movw	r1, :lower16:.L__FUNCTION__.rt_timer_stop
	movt	r1, :upper16:.L__FUNCTION__.rt_timer_stop
	mov.w	r2, #436
	bl	rt_assert_handler
	b	.LBB10_2
.Ltmp114:
.LBB10_2:
	.loc	1 437 5 is_stmt 1               @ rt-thread/src/timer.c:437:5
	ldr	r0, [sp, #8]
	bl	rt_object_get_type
.Ltmp115:
	.loc	1 437 5 is_stmt 0               @ rt-thread/src/timer.c:437:5
	cmp	r0, #10
	beq	.LBB10_4
	b	.LBB10_3
.LBB10_3:
.Ltmp116:
	.loc	1 437 5                         @ rt-thread/src/timer.c:437:5
	movw	r0, :lower16:.L.str.1
	movt	r0, :upper16:.L.str.1
	movw	r1, :lower16:.L__FUNCTION__.rt_timer_stop
	movt	r1, :upper16:.L__FUNCTION__.rt_timer_stop
	movw	r2, #437
	bl	rt_assert_handler
	b	.LBB10_4
.Ltmp117:
.LBB10_4:
	.loc	1 439 11 is_stmt 1              @ rt-thread/src/timer.c:439:11
	ldr	r0, [sp, #8]
	ldrb	r0, [r0, #9]
.Ltmp118:
	.loc	1 439 9 is_stmt 0               @ rt-thread/src/timer.c:439:9
	lsls	r0, r0, #31
	cbnz	r0, .LBB10_6
	b	.LBB10_5
.LBB10_5:
	.loc	1 0 9                           @ rt-thread/src/timer.c:0:9
	mov.w	r0, #-1
.Ltmp119:
	.loc	1 440 9 is_stmt 1               @ rt-thread/src/timer.c:440:9
	str	r0, [sp, #12]
	b	.LBB10_11
.Ltmp120:
.LBB10_6:
	.loc	1 442 5                         @ rt-thread/src/timer.c:442:5
	b	.LBB10_7
.LBB10_7:
.Ltmp121:
	.loc	1 442 5 is_stmt 0               @ rt-thread/src/timer.c:442:5
	movw	r0, :lower16:rt_object_put_hook
	movt	r0, :upper16:rt_object_put_hook
	ldr	r0, [r0]
.Ltmp122:
	.loc	1 442 5                         @ rt-thread/src/timer.c:442:5
	cbz	r0, .LBB10_9
	b	.LBB10_8
.LBB10_8:
.Ltmp123:
	.loc	1 442 5                         @ rt-thread/src/timer.c:442:5
	movw	r0, :lower16:rt_object_put_hook
	movt	r0, :upper16:rt_object_put_hook
	ldr	r1, [r0]
	ldr	r0, [sp, #8]
	blx	r1
	b	.LBB10_9
.Ltmp124:
.LBB10_9:
	.loc	1 442 5                         @ rt-thread/src/timer.c:442:5
	b	.LBB10_10
.Ltmp125:
.LBB10_10:
	.loc	1 445 13 is_stmt 1              @ rt-thread/src/timer.c:445:13
	bl	rt_hw_interrupt_disable
	.loc	1 445 11 is_stmt 0              @ rt-thread/src/timer.c:445:11
	str	r0, [sp, #4]
	.loc	1 447 22 is_stmt 1              @ rt-thread/src/timer.c:447:22
	ldr	r0, [sp, #8]
	.loc	1 447 5 is_stmt 0               @ rt-thread/src/timer.c:447:5
	bl	_rt_timer_remove
	.loc	1 450 28 is_stmt 1              @ rt-thread/src/timer.c:450:28
	ldr	r0, [sp, #4]
	.loc	1 450 5 is_stmt 0               @ rt-thread/src/timer.c:450:5
	bl	rt_hw_interrupt_enable
	.loc	1 453 5 is_stmt 1               @ rt-thread/src/timer.c:453:5
	ldr	r1, [sp, #8]
	.loc	1 453 24 is_stmt 0              @ rt-thread/src/timer.c:453:24
	ldrb	r0, [r1, #9]
	and	r0, r0, #254
	strb	r0, [r1, #9]
	movs	r0, #0
	.loc	1 455 5 is_stmt 1               @ rt-thread/src/timer.c:455:5
	str	r0, [sp, #12]
	b	.LBB10_11
.LBB10_11:
	.loc	1 456 1                         @ rt-thread/src/timer.c:456:1
	ldr	r0, [sp, #12]
	add	sp, #16
	pop	{r7, pc}
.Ltmp126:
.Lfunc_end10:
	.size	rt_timer_stop, .Lfunc_end10-rt_timer_stop
	.cfi_endproc
	.cantunwind
	.fnend
                                        @ -- End function
	.section	.text.rt_timer_control,"ax",%progbits
	.hidden	rt_timer_control                @ -- Begin function rt_timer_control
	.globl	rt_timer_control
	.p2align	3
	.type	rt_timer_control,%function
	.code	16                              @ @rt_timer_control
	.thumb_func
rt_timer_control:
.Lfunc_begin11:
	.loc	1 469 0                         @ rt-thread/src/timer.c:469:0
	.fnstart
	.cfi_startproc
@ %bb.0:
	.save	{r7, lr}
	push	{r7, lr}
	.cfi_def_cfa_offset 8
	.cfi_offset lr, -4
	.cfi_offset r7, -8
	.pad	#16
	sub	sp, #16
	.cfi_def_cfa_offset 24
	str	r0, [sp, #12]
	str	r1, [sp, #8]
	str	r2, [sp, #4]
.Ltmp127:
	.loc	1 471 5 prologue_end            @ rt-thread/src/timer.c:471:5
	ldr	r0, [sp, #12]
.Ltmp128:
	.loc	1 471 5 is_stmt 0               @ rt-thread/src/timer.c:471:5
	cbnz	r0, .LBB11_2
	b	.LBB11_1
.LBB11_1:
.Ltmp129:
	.loc	1 471 5                         @ rt-thread/src/timer.c:471:5
	movw	r0, :lower16:.L.str
	movt	r0, :upper16:.L.str
	movw	r1, :lower16:.L__FUNCTION__.rt_timer_control
	movt	r1, :upper16:.L__FUNCTION__.rt_timer_control
	movw	r2, #471
	bl	rt_assert_handler
	b	.LBB11_2
.Ltmp130:
.LBB11_2:
	.loc	1 472 5 is_stmt 1               @ rt-thread/src/timer.c:472:5
	ldr	r0, [sp, #12]
	bl	rt_object_get_type
.Ltmp131:
	.loc	1 472 5 is_stmt 0               @ rt-thread/src/timer.c:472:5
	cmp	r0, #10
	beq	.LBB11_4
	b	.LBB11_3
.LBB11_3:
.Ltmp132:
	.loc	1 472 5                         @ rt-thread/src/timer.c:472:5
	movw	r0, :lower16:.L.str.1
	movt	r0, :upper16:.L.str.1
	movw	r1, :lower16:.L__FUNCTION__.rt_timer_control
	movt	r1, :upper16:.L__FUNCTION__.rt_timer_control
	mov.w	r2, #472
	bl	rt_assert_handler
	b	.LBB11_4
.Ltmp133:
.LBB11_4:
	.loc	1 474 13 is_stmt 1              @ rt-thread/src/timer.c:474:13
	ldr	r0, [sp, #8]
	.loc	1 474 5 is_stmt 0               @ rt-thread/src/timer.c:474:5
	str	r0, [sp]                        @ 4-byte Spill
	cmp	r0, #4
	bhi	.LBB11_15
@ %bb.5:
	.loc	1 0 5                           @ rt-thread/src/timer.c:0:5
	ldr	r1, [sp]                        @ 4-byte Reload
.LCPI11_0:
	tbb	[pc, r1]
@ %bb.6:
.LJTI11_0:
	.byte	(.LBB11_8-(.LCPI11_0+4))/2
	.byte	(.LBB11_7-(.LCPI11_0+4))/2
	.byte	(.LBB11_9-(.LCPI11_0+4))/2
	.byte	(.LBB11_10-(.LCPI11_0+4))/2
	.byte	(.LBB11_11-(.LCPI11_0+4))/2
	.p2align	1
.LBB11_7:
.Ltmp134:
	.loc	1 477 29 is_stmt 1              @ rt-thread/src/timer.c:477:29
	ldr	r0, [sp, #12]
	.loc	1 477 36 is_stmt 0              @ rt-thread/src/timer.c:477:36
	ldr	r0, [r0, #36]
	.loc	1 477 23                        @ rt-thread/src/timer.c:477:23
	ldr	r1, [sp, #4]
	.loc	1 477 27                        @ rt-thread/src/timer.c:477:27
	str	r0, [r1]
	.loc	1 478 9 is_stmt 1               @ rt-thread/src/timer.c:478:9
	b	.LBB11_15
.LBB11_8:
	.loc	1 481 42                        @ rt-thread/src/timer.c:481:42
	ldr	r0, [sp, #4]
	.loc	1 481 28 is_stmt 0              @ rt-thread/src/timer.c:481:28
	ldr	r0, [r0]
	.loc	1 481 9                         @ rt-thread/src/timer.c:481:9
	ldr	r1, [sp, #12]
	.loc	1 481 26                        @ rt-thread/src/timer.c:481:26
	str	r0, [r1, #36]
	.loc	1 482 9 is_stmt 1               @ rt-thread/src/timer.c:482:9
	b	.LBB11_15
.LBB11_9:
	.loc	1 485 9                         @ rt-thread/src/timer.c:485:9
	ldr	r1, [sp, #12]
	.loc	1 485 28 is_stmt 0              @ rt-thread/src/timer.c:485:28
	ldrb	r0, [r1, #9]
	and	r0, r0, #253
	strb	r0, [r1, #9]
	.loc	1 486 9 is_stmt 1               @ rt-thread/src/timer.c:486:9
	b	.LBB11_15
.LBB11_10:
	.loc	1 489 9                         @ rt-thread/src/timer.c:489:9
	ldr	r1, [sp, #12]
	.loc	1 489 28 is_stmt 0              @ rt-thread/src/timer.c:489:28
	ldrb	r0, [r1, #9]
	orr	r0, r0, #2
	strb	r0, [r1, #9]
	.loc	1 490 9 is_stmt 1               @ rt-thread/src/timer.c:490:9
	b	.LBB11_15
.LBB11_11:
.Ltmp135:
	.loc	1 493 12                        @ rt-thread/src/timer.c:493:12
	ldr	r0, [sp, #12]
	ldrb	r0, [r0, #9]
.Ltmp136:
	.loc	1 493 12 is_stmt 0              @ rt-thread/src/timer.c:493:12
	lsls	r0, r0, #31
	cbz	r0, .LBB11_13
	b	.LBB11_12
.LBB11_12:
.Ltmp137:
	.loc	1 496 27 is_stmt 1              @ rt-thread/src/timer.c:496:27
	ldr	r1, [sp, #4]
	movs	r0, #1
	.loc	1 496 31 is_stmt 0              @ rt-thread/src/timer.c:496:31
	str	r0, [r1]
	.loc	1 497 9 is_stmt 1               @ rt-thread/src/timer.c:497:9
	b	.LBB11_14
.Ltmp138:
.LBB11_13:
	.loc	1 501 27                        @ rt-thread/src/timer.c:501:27
	ldr	r1, [sp, #4]
	movs	r0, #0
	.loc	1 501 31 is_stmt 0              @ rt-thread/src/timer.c:501:31
	str	r0, [r1]
	b	.LBB11_14
.Ltmp139:
.LBB11_14:
	.loc	1 503 9 is_stmt 1               @ rt-thread/src/timer.c:503:9
	b	.LBB11_15
.Ltmp140:
.LBB11_15:
	.loc	1 0 9 is_stmt 0                 @ rt-thread/src/timer.c:0:9
	movs	r0, #0
	.loc	1 506 5 is_stmt 1               @ rt-thread/src/timer.c:506:5
	add	sp, #16
	pop	{r7, pc}
.Ltmp141:
.Lfunc_end11:
	.size	rt_timer_control, .Lfunc_end11-rt_timer_control
	.cfi_endproc
	.cantunwind
	.fnend
                                        @ -- End function
	.section	.text.rt_timer_check,"ax",%progbits
	.hidden	rt_timer_check                  @ -- Begin function rt_timer_check
	.globl	rt_timer_check
	.p2align	3
	.type	rt_timer_check,%function
	.code	16                              @ @rt_timer_check
	.thumb_func
rt_timer_check:
.Lfunc_begin12:
	.loc	1 517 0                         @ rt-thread/src/timer.c:517:0
	.fnstart
	.cfi_startproc
@ %bb.0:
	.save	{r7, lr}
	push	{r7, lr}
	.cfi_def_cfa_offset 8
	.cfi_offset lr, -4
	.cfi_offset r7, -8
	.pad	#16
	sub	sp, #16
	.cfi_def_cfa_offset 24
.Ltmp142:
	.loc	1 522 5 prologue_end            @ rt-thread/src/timer.c:522:5
	b	.LBB12_1
.LBB12_1:
.Ltmp143:
	.loc	1 522 5 is_stmt 0               @ rt-thread/src/timer.c:522:5
	b	.LBB12_2
.Ltmp144:
.LBB12_2:
	.loc	1 524 20 is_stmt 1              @ rt-thread/src/timer.c:524:20
	bl	rt_tick_get
	.loc	1 524 18 is_stmt 0              @ rt-thread/src/timer.c:524:18
	str	r0, [sp, #8]
	.loc	1 527 13 is_stmt 1              @ rt-thread/src/timer.c:527:13
	bl	rt_hw_interrupt_disable
	.loc	1 527 11 is_stmt 0              @ rt-thread/src/timer.c:527:11
	str	r0, [sp, #4]
	.loc	1 529 5 is_stmt 1               @ rt-thread/src/timer.c:529:5
	b	.LBB12_3
.LBB12_3:                               @ =>This Inner Loop Header: Depth=1
	.loc	1 529 13 is_stmt 0              @ rt-thread/src/timer.c:529:13
	movw	r0, :lower16:rt_timer_list
	movt	r0, :upper16:rt_timer_list
	bl	rt_list_isempty
	.loc	1 529 5                         @ rt-thread/src/timer.c:529:5
	cmp	r0, #0
	bne	.LBB12_22
	b	.LBB12_4
.LBB12_4:                               @   in Loop: Header=BB12_3 Depth=1
.Ltmp145:
	.loc	1 531 13 is_stmt 1              @ rt-thread/src/timer.c:531:13
	movw	r0, :lower16:rt_timer_list
	movt	r0, :upper16:rt_timer_list
	ldr	r0, [r0]
	subs	r0, #20
	.loc	1 531 11 is_stmt 0              @ rt-thread/src/timer.c:531:11
	str	r0, [sp, #12]
.Ltmp146:
	.loc	1 538 14 is_stmt 1              @ rt-thread/src/timer.c:538:14
	ldr	r0, [sp, #8]
	.loc	1 538 29 is_stmt 0              @ rt-thread/src/timer.c:538:29
	ldr	r1, [sp, #12]
	.loc	1 538 32                        @ rt-thread/src/timer.c:538:32
	ldr	r1, [r1, #40]
	.loc	1 538 27                        @ rt-thread/src/timer.c:538:27
	subs	r0, r0, r1
	movw	r1, #65534
	movt	r1, #32767
.Ltmp147:
	.loc	1 538 13                        @ rt-thread/src/timer.c:538:13
	cmp	r0, r1
	bhi	.LBB12_20
	b	.LBB12_5
.LBB12_5:                               @   in Loop: Header=BB12_3 Depth=1
.Ltmp148:
	.loc	1 540 13 is_stmt 1              @ rt-thread/src/timer.c:540:13
	b	.LBB12_6
.LBB12_6:                               @   in Loop: Header=BB12_3 Depth=1
.Ltmp149:
	.loc	1 540 13 is_stmt 0              @ rt-thread/src/timer.c:540:13
	movw	r0, :lower16:rt_timer_enter_hook
	movt	r0, :upper16:rt_timer_enter_hook
	ldr	r0, [r0]
.Ltmp150:
	.loc	1 540 13                        @ rt-thread/src/timer.c:540:13
	cbz	r0, .LBB12_8
	b	.LBB12_7
.LBB12_7:                               @   in Loop: Header=BB12_3 Depth=1
.Ltmp151:
	.loc	1 540 13                        @ rt-thread/src/timer.c:540:13
	movw	r0, :lower16:rt_timer_enter_hook
	movt	r0, :upper16:rt_timer_enter_hook
	ldr	r1, [r0]
	ldr	r0, [sp, #12]
	blx	r1
	b	.LBB12_8
.Ltmp152:
.LBB12_8:                               @   in Loop: Header=BB12_3 Depth=1
	.loc	1 540 13                        @ rt-thread/src/timer.c:540:13
	b	.LBB12_9
.Ltmp153:
.LBB12_9:                               @   in Loop: Header=BB12_3 Depth=1
	.loc	1 543 30 is_stmt 1              @ rt-thread/src/timer.c:543:30
	ldr	r0, [sp, #12]
	.loc	1 543 13 is_stmt 0              @ rt-thread/src/timer.c:543:13
	bl	_rt_timer_remove
	.loc	1 546 13 is_stmt 1              @ rt-thread/src/timer.c:546:13
	ldr	r0, [sp, #12]
	.loc	1 546 16 is_stmt 0              @ rt-thread/src/timer.c:546:16
	ldr	r1, [r0, #28]
	.loc	1 546 32                        @ rt-thread/src/timer.c:546:32
	ldr	r0, [r0, #32]
	.loc	1 546 13                        @ rt-thread/src/timer.c:546:13
	blx	r1
	.loc	1 549 28 is_stmt 1              @ rt-thread/src/timer.c:549:28
	bl	rt_tick_get
	.loc	1 549 26 is_stmt 0              @ rt-thread/src/timer.c:549:26
	str	r0, [sp, #8]
	.loc	1 551 13 is_stmt 1              @ rt-thread/src/timer.c:551:13
	b	.LBB12_10
.LBB12_10:                              @   in Loop: Header=BB12_3 Depth=1
.Ltmp154:
	.loc	1 551 13 is_stmt 0              @ rt-thread/src/timer.c:551:13
	movw	r0, :lower16:rt_timer_exit_hook
	movt	r0, :upper16:rt_timer_exit_hook
	ldr	r0, [r0]
.Ltmp155:
	.loc	1 551 13                        @ rt-thread/src/timer.c:551:13
	cbz	r0, .LBB12_12
	b	.LBB12_11
.LBB12_11:                              @   in Loop: Header=BB12_3 Depth=1
.Ltmp156:
	.loc	1 551 13                        @ rt-thread/src/timer.c:551:13
	movw	r0, :lower16:rt_timer_exit_hook
	movt	r0, :upper16:rt_timer_exit_hook
	ldr	r1, [r0]
	ldr	r0, [sp, #12]
	blx	r1
	b	.LBB12_12
.Ltmp157:
.LBB12_12:                              @   in Loop: Header=BB12_3 Depth=1
	.loc	1 551 13                        @ rt-thread/src/timer.c:551:13
	b	.LBB12_13
.Ltmp158:
.LBB12_13:                              @   in Loop: Header=BB12_3 Depth=1
	.loc	1 552 13 is_stmt 1              @ rt-thread/src/timer.c:552:13
	b	.LBB12_14
.LBB12_14:                              @   in Loop: Header=BB12_3 Depth=1
.Ltmp159:
	.loc	1 552 13 is_stmt 0              @ rt-thread/src/timer.c:552:13
	b	.LBB12_15
.Ltmp160:
.LBB12_15:                              @   in Loop: Header=BB12_3 Depth=1
	.loc	1 554 18 is_stmt 1              @ rt-thread/src/timer.c:554:18
	ldr	r0, [sp, #12]
	ldrb	r0, [r0, #9]
	.loc	1 554 59 is_stmt 0              @ rt-thread/src/timer.c:554:59
	lsls	r0, r0, #30
	cmp	r0, #0
	bpl	.LBB12_18
	b	.LBB12_16
.LBB12_16:                              @   in Loop: Header=BB12_3 Depth=1
	.loc	1 555 18 is_stmt 1              @ rt-thread/src/timer.c:555:18
	ldr	r0, [sp, #12]
	ldrb	r0, [r0, #9]
.Ltmp161:
	.loc	1 554 17                        @ rt-thread/src/timer.c:554:17
	lsls	r0, r0, #31
	cbz	r0, .LBB12_18
	b	.LBB12_17
.LBB12_17:                              @   in Loop: Header=BB12_3 Depth=1
.Ltmp162:
	.loc	1 558 17                        @ rt-thread/src/timer.c:558:17
	ldr	r1, [sp, #12]
	.loc	1 558 32 is_stmt 0              @ rt-thread/src/timer.c:558:32
	ldrb	r0, [r1, #9]
	and	r0, r0, #254
	strb	r0, [r1, #9]
	.loc	1 559 32 is_stmt 1              @ rt-thread/src/timer.c:559:32
	ldr	r0, [sp, #12]
	.loc	1 559 17 is_stmt 0              @ rt-thread/src/timer.c:559:17
	bl	rt_timer_start
	.loc	1 560 13 is_stmt 1              @ rt-thread/src/timer.c:560:13
	b	.LBB12_19
.Ltmp163:
.LBB12_18:                              @   in Loop: Header=BB12_3 Depth=1
	.loc	1 564 17                        @ rt-thread/src/timer.c:564:17
	ldr	r1, [sp, #12]
	.loc	1 564 32 is_stmt 0              @ rt-thread/src/timer.c:564:32
	ldrb	r0, [r1, #9]
	and	r0, r0, #254
	strb	r0, [r1, #9]
	b	.LBB12_19
.Ltmp164:
.LBB12_19:                              @   in Loop: Header=BB12_3 Depth=1
	.loc	1 566 9 is_stmt 1               @ rt-thread/src/timer.c:566:9
	b	.LBB12_21
.Ltmp165:
.LBB12_20:
	.loc	1 568 13                        @ rt-thread/src/timer.c:568:13
	b	.LBB12_22
.Ltmp166:
.LBB12_21:                              @   in Loop: Header=BB12_3 Depth=1
	.loc	1 529 5                         @ rt-thread/src/timer.c:529:5
	b	.LBB12_3
.LBB12_22:
	.loc	1 572 28                        @ rt-thread/src/timer.c:572:28
	ldr	r0, [sp, #4]
	.loc	1 572 5 is_stmt 0               @ rt-thread/src/timer.c:572:5
	bl	rt_hw_interrupt_enable
	.loc	1 574 5 is_stmt 1               @ rt-thread/src/timer.c:574:5
	b	.LBB12_23
.LBB12_23:
.Ltmp167:
	.loc	1 574 5 is_stmt 0               @ rt-thread/src/timer.c:574:5
	b	.LBB12_24
.Ltmp168:
.LBB12_24:
	.loc	1 575 1 is_stmt 1               @ rt-thread/src/timer.c:575:1
	add	sp, #16
	pop	{r7, pc}
.Ltmp169:
.Lfunc_end12:
	.size	rt_timer_check, .Lfunc_end12-rt_timer_check
	.cfi_endproc
	.cantunwind
	.fnend
                                        @ -- End function
	.section	.text.rt_list_isempty,"ax",%progbits
	.p2align	3                               @ -- Begin function rt_list_isempty
	.type	rt_list_isempty,%function
	.code	16                              @ @rt_list_isempty
	.thumb_func
rt_list_isempty:
.Lfunc_begin13:
	.loc	3 99 0                          @ rt-thread/include\rtservice.h:99:0
	.fnstart
	.cfi_startproc
@ %bb.0:
	.pad	#4
	sub	sp, #4
	.cfi_def_cfa_offset 4
	str	r0, [sp]
.Ltmp170:
	.loc	3 100 12 prologue_end           @ rt-thread/include\rtservice.h:100:12
	ldr	r1, [sp]
	.loc	3 100 15 is_stmt 0              @ rt-thread/include\rtservice.h:100:15
	ldr	r0, [r1]
	.loc	3 100 20                        @ rt-thread/include\rtservice.h:100:20
	subs	r0, r0, r1
	clz	r0, r0
	lsrs	r0, r0, #5
	.loc	3 100 5                         @ rt-thread/include\rtservice.h:100:5
	add	sp, #4
	bx	lr
.Ltmp171:
.Lfunc_end13:
	.size	rt_list_isempty, .Lfunc_end13-rt_list_isempty
	.cfi_endproc
	.cantunwind
	.fnend
                                        @ -- End function
	.section	.text.rt_timer_next_timeout_tick,"ax",%progbits
	.hidden	rt_timer_next_timeout_tick      @ -- Begin function rt_timer_next_timeout_tick
	.globl	rt_timer_next_timeout_tick
	.p2align	3
	.type	rt_timer_next_timeout_tick,%function
	.code	16                              @ @rt_timer_next_timeout_tick
	.thumb_func
rt_timer_next_timeout_tick:
.Lfunc_begin14:
	.loc	1 583 0 is_stmt 1               @ rt-thread/src/timer.c:583:0
	.fnstart
	.cfi_startproc
@ %bb.0:
	.save	{r7, lr}
	push	{r7, lr}
	.cfi_def_cfa_offset 8
	.cfi_offset lr, -4
	.cfi_offset r7, -8
.Ltmp172:
	.loc	1 584 12 prologue_end           @ rt-thread/src/timer.c:584:12
	movw	r0, :lower16:rt_timer_list
	movt	r0, :upper16:rt_timer_list
	bl	rt_timer_list_next_timeout
	.loc	1 584 5 is_stmt 0               @ rt-thread/src/timer.c:584:5
	pop	{r7, pc}
.Ltmp173:
.Lfunc_end14:
	.size	rt_timer_next_timeout_tick, .Lfunc_end14-rt_timer_next_timeout_tick
	.cfi_endproc
	.cantunwind
	.fnend
                                        @ -- End function
	.section	.text.rt_timer_list_next_timeout,"ax",%progbits
	.p2align	3                               @ -- Begin function rt_timer_list_next_timeout
	.type	rt_timer_list_next_timeout,%function
	.code	16                              @ @rt_timer_list_next_timeout
	.thumb_func
rt_timer_list_next_timeout:
.Lfunc_begin15:
	.loc	1 109 0 is_stmt 1               @ rt-thread/src/timer.c:109:0
	.fnstart
	.cfi_startproc
@ %bb.0:
	.save	{r7, lr}
	push	{r7, lr}
	.cfi_def_cfa_offset 8
	.cfi_offset lr, -4
	.cfi_offset r7, -8
	.pad	#16
	sub	sp, #16
	.cfi_def_cfa_offset 24
	str	r0, [sp, #12]
	mov.w	r0, #-1
.Ltmp174:
	.loc	1 112 15 prologue_end           @ rt-thread/src/timer.c:112:15
	str	r0, [sp]
	.loc	1 115 13                        @ rt-thread/src/timer.c:115:13
	bl	rt_hw_interrupt_disable
	.loc	1 115 11 is_stmt 0              @ rt-thread/src/timer.c:115:11
	str	r0, [sp, #4]
.Ltmp175:
	.loc	1 117 27 is_stmt 1              @ rt-thread/src/timer.c:117:27
	ldr	r0, [sp, #12]
	.loc	1 117 10 is_stmt 0              @ rt-thread/src/timer.c:117:10
	bl	rt_list_isempty
.Ltmp176:
	.loc	1 117 9                         @ rt-thread/src/timer.c:117:9
	cbnz	r0, .LBB15_2
	b	.LBB15_1
.LBB15_1:
.Ltmp177:
	.loc	1 119 17 is_stmt 1              @ rt-thread/src/timer.c:119:17
	ldr	r0, [sp, #12]
	ldr	r0, [r0]
	subs	r0, #20
	.loc	1 119 15 is_stmt 0              @ rt-thread/src/timer.c:119:15
	str	r0, [sp, #8]
	.loc	1 121 24 is_stmt 1              @ rt-thread/src/timer.c:121:24
	ldr	r0, [sp, #8]
	.loc	1 121 31 is_stmt 0              @ rt-thread/src/timer.c:121:31
	ldr	r0, [r0, #40]
	.loc	1 121 22                        @ rt-thread/src/timer.c:121:22
	str	r0, [sp]
	.loc	1 122 5 is_stmt 1               @ rt-thread/src/timer.c:122:5
	b	.LBB15_2
.Ltmp178:
.LBB15_2:
	.loc	1 125 28                        @ rt-thread/src/timer.c:125:28
	ldr	r0, [sp, #4]
	.loc	1 125 5 is_stmt 0               @ rt-thread/src/timer.c:125:5
	bl	rt_hw_interrupt_enable
	.loc	1 127 12 is_stmt 1              @ rt-thread/src/timer.c:127:12
	ldr	r0, [sp]
	.loc	1 127 5 is_stmt 0               @ rt-thread/src/timer.c:127:5
	add	sp, #16
	pop	{r7, pc}
.Ltmp179:
.Lfunc_end15:
	.size	rt_timer_list_next_timeout, .Lfunc_end15-rt_timer_list_next_timeout
	.cfi_endproc
	.cantunwind
	.fnend
                                        @ -- End function
	.section	.text.rt_soft_timer_check,"ax",%progbits
	.hidden	rt_soft_timer_check             @ -- Begin function rt_soft_timer_check
	.globl	rt_soft_timer_check
	.p2align	3
	.type	rt_soft_timer_check,%function
	.code	16                              @ @rt_soft_timer_check
	.thumb_func
rt_soft_timer_check:
.Lfunc_begin16:
	.loc	1 593 0 is_stmt 1               @ rt-thread/src/timer.c:593:0
	.fnstart
	.cfi_startproc
@ %bb.0:
	.save	{r7, lr}
	push	{r7, lr}
	.cfi_def_cfa_offset 8
	.cfi_offset lr, -4
	.cfi_offset r7, -8
	.pad	#16
	sub	sp, #16
	.cfi_def_cfa_offset 24
.Ltmp180:
	.loc	1 598 5 prologue_end            @ rt-thread/src/timer.c:598:5
	b	.LBB16_1
.LBB16_1:
.Ltmp181:
	.loc	1 598 5 is_stmt 0               @ rt-thread/src/timer.c:598:5
	b	.LBB16_2
.Ltmp182:
.LBB16_2:
	.loc	1 600 20 is_stmt 1              @ rt-thread/src/timer.c:600:20
	bl	rt_tick_get
	.loc	1 600 18 is_stmt 0              @ rt-thread/src/timer.c:600:18
	str	r0, [sp, #12]
	.loc	1 603 5 is_stmt 1               @ rt-thread/src/timer.c:603:5
	bl	rt_enter_critical
.Ltmp183:
	.loc	1 605 63                        @ rt-thread/src/timer.c:605:63
	movw	r0, :lower16:rt_soft_timer_list
	movt	r0, :upper16:rt_soft_timer_list
	ldr	r0, [r0]
	.loc	1 605 12 is_stmt 0              @ rt-thread/src/timer.c:605:12
	str	r0, [sp, #8]
	.loc	1 605 10                        @ rt-thread/src/timer.c:605:10
	b	.LBB16_3
.LBB16_3:                               @ =>This Inner Loop Header: Depth=1
.Ltmp184:
	.loc	1 606 10 is_stmt 1              @ rt-thread/src/timer.c:606:10
	ldr	r0, [sp, #8]
	.loc	1 606 12 is_stmt 0              @ rt-thread/src/timer.c:606:12
	movw	r1, :lower16:rt_soft_timer_list
	movt	r1, :upper16:rt_soft_timer_list
.Ltmp185:
	.loc	1 605 5 is_stmt 1               @ rt-thread/src/timer.c:605:5
	cmp	r0, r1
	beq	.LBB16_22
	b	.LBB16_4
.LBB16_4:                               @   in Loop: Header=BB16_3 Depth=1
.Ltmp186:
	.loc	1 608 13                        @ rt-thread/src/timer.c:608:13
	ldr	r0, [sp, #8]
	subs	r0, #20
	.loc	1 608 11 is_stmt 0              @ rt-thread/src/timer.c:608:11
	str	r0, [sp, #4]
.Ltmp187:
	.loc	1 614 14 is_stmt 1              @ rt-thread/src/timer.c:614:14
	ldr	r0, [sp, #12]
	.loc	1 614 29 is_stmt 0              @ rt-thread/src/timer.c:614:29
	ldr	r1, [sp, #4]
	.loc	1 614 32                        @ rt-thread/src/timer.c:614:32
	ldr	r1, [r1, #40]
	.loc	1 614 27                        @ rt-thread/src/timer.c:614:27
	subs	r0, r0, r1
	movw	r1, #65534
	movt	r1, #32767
.Ltmp188:
	.loc	1 614 13                        @ rt-thread/src/timer.c:614:13
	cmp	r0, r1
	bhi	.LBB16_20
	b	.LBB16_5
.LBB16_5:                               @   in Loop: Header=BB16_3 Depth=1
.Ltmp189:
	.loc	1 616 13 is_stmt 1              @ rt-thread/src/timer.c:616:13
	b	.LBB16_6
.LBB16_6:                               @   in Loop: Header=BB16_3 Depth=1
.Ltmp190:
	.loc	1 616 13 is_stmt 0              @ rt-thread/src/timer.c:616:13
	movw	r0, :lower16:rt_timer_enter_hook
	movt	r0, :upper16:rt_timer_enter_hook
	ldr	r0, [r0]
.Ltmp191:
	.loc	1 616 13                        @ rt-thread/src/timer.c:616:13
	cbz	r0, .LBB16_8
	b	.LBB16_7
.LBB16_7:                               @   in Loop: Header=BB16_3 Depth=1
.Ltmp192:
	.loc	1 616 13                        @ rt-thread/src/timer.c:616:13
	movw	r0, :lower16:rt_timer_enter_hook
	movt	r0, :upper16:rt_timer_enter_hook
	ldr	r1, [r0]
	ldr	r0, [sp, #4]
	blx	r1
	b	.LBB16_8
.Ltmp193:
.LBB16_8:                               @   in Loop: Header=BB16_3 Depth=1
	.loc	1 616 13                        @ rt-thread/src/timer.c:616:13
	b	.LBB16_9
.Ltmp194:
.LBB16_9:                               @   in Loop: Header=BB16_3 Depth=1
	.loc	1 619 17 is_stmt 1              @ rt-thread/src/timer.c:619:17
	ldr	r0, [sp, #8]
	.loc	1 619 20 is_stmt 0              @ rt-thread/src/timer.c:619:20
	ldr	r0, [r0]
	.loc	1 619 15                        @ rt-thread/src/timer.c:619:15
	str	r0, [sp, #8]
	.loc	1 622 30 is_stmt 1              @ rt-thread/src/timer.c:622:30
	ldr	r0, [sp, #4]
	.loc	1 622 13 is_stmt 0              @ rt-thread/src/timer.c:622:13
	bl	_rt_timer_remove
	.loc	1 625 13 is_stmt 1              @ rt-thread/src/timer.c:625:13
	bl	rt_exit_critical
	.loc	1 627 13                        @ rt-thread/src/timer.c:627:13
	ldr	r0, [sp, #4]
	.loc	1 627 16 is_stmt 0              @ rt-thread/src/timer.c:627:16
	ldr	r1, [r0, #28]
	.loc	1 627 32                        @ rt-thread/src/timer.c:627:32
	ldr	r0, [r0, #32]
	.loc	1 627 13                        @ rt-thread/src/timer.c:627:13
	blx	r1
	.loc	1 630 28 is_stmt 1              @ rt-thread/src/timer.c:630:28
	bl	rt_tick_get
	.loc	1 630 26 is_stmt 0              @ rt-thread/src/timer.c:630:26
	str	r0, [sp, #12]
	.loc	1 632 13 is_stmt 1              @ rt-thread/src/timer.c:632:13
	b	.LBB16_10
.LBB16_10:                              @   in Loop: Header=BB16_3 Depth=1
.Ltmp195:
	.loc	1 632 13 is_stmt 0              @ rt-thread/src/timer.c:632:13
	movw	r0, :lower16:rt_timer_exit_hook
	movt	r0, :upper16:rt_timer_exit_hook
	ldr	r0, [r0]
.Ltmp196:
	.loc	1 632 13                        @ rt-thread/src/timer.c:632:13
	cbz	r0, .LBB16_12
	b	.LBB16_11
.LBB16_11:                              @   in Loop: Header=BB16_3 Depth=1
.Ltmp197:
	.loc	1 632 13                        @ rt-thread/src/timer.c:632:13
	movw	r0, :lower16:rt_timer_exit_hook
	movt	r0, :upper16:rt_timer_exit_hook
	ldr	r1, [r0]
	ldr	r0, [sp, #4]
	blx	r1
	b	.LBB16_12
.Ltmp198:
.LBB16_12:                              @   in Loop: Header=BB16_3 Depth=1
	.loc	1 632 13                        @ rt-thread/src/timer.c:632:13
	b	.LBB16_13
.Ltmp199:
.LBB16_13:                              @   in Loop: Header=BB16_3 Depth=1
	.loc	1 633 13 is_stmt 1              @ rt-thread/src/timer.c:633:13
	b	.LBB16_14
.LBB16_14:                              @   in Loop: Header=BB16_3 Depth=1
.Ltmp200:
	.loc	1 633 13 is_stmt 0              @ rt-thread/src/timer.c:633:13
	b	.LBB16_15
.Ltmp201:
.LBB16_15:                              @   in Loop: Header=BB16_3 Depth=1
	.loc	1 636 13 is_stmt 1              @ rt-thread/src/timer.c:636:13
	bl	rt_enter_critical
.Ltmp202:
	.loc	1 638 18                        @ rt-thread/src/timer.c:638:18
	ldr	r0, [sp, #4]
	ldrb	r0, [r0, #9]
	.loc	1 638 59 is_stmt 0              @ rt-thread/src/timer.c:638:59
	lsls	r0, r0, #30
	cmp	r0, #0
	bpl	.LBB16_18
	b	.LBB16_16
.LBB16_16:                              @   in Loop: Header=BB16_3 Depth=1
	.loc	1 639 18 is_stmt 1              @ rt-thread/src/timer.c:639:18
	ldr	r0, [sp, #4]
	ldrb	r0, [r0, #9]
.Ltmp203:
	.loc	1 638 17                        @ rt-thread/src/timer.c:638:17
	lsls	r0, r0, #31
	cbz	r0, .LBB16_18
	b	.LBB16_17
.LBB16_17:                              @   in Loop: Header=BB16_3 Depth=1
.Ltmp204:
	.loc	1 642 17                        @ rt-thread/src/timer.c:642:17
	ldr	r1, [sp, #4]
	.loc	1 642 32 is_stmt 0              @ rt-thread/src/timer.c:642:32
	ldrb	r0, [r1, #9]
	and	r0, r0, #254
	strb	r0, [r1, #9]
	.loc	1 643 32 is_stmt 1              @ rt-thread/src/timer.c:643:32
	ldr	r0, [sp, #4]
	.loc	1 643 17 is_stmt 0              @ rt-thread/src/timer.c:643:17
	bl	rt_timer_start
	.loc	1 644 13 is_stmt 1              @ rt-thread/src/timer.c:644:13
	b	.LBB16_19
.Ltmp205:
.LBB16_18:                              @   in Loop: Header=BB16_3 Depth=1
	.loc	1 648 17                        @ rt-thread/src/timer.c:648:17
	ldr	r1, [sp, #4]
	.loc	1 648 32 is_stmt 0              @ rt-thread/src/timer.c:648:32
	ldrb	r0, [r1, #9]
	and	r0, r0, #254
	strb	r0, [r1, #9]
	b	.LBB16_19
.Ltmp206:
.LBB16_19:                              @   in Loop: Header=BB16_3 Depth=1
	.loc	1 650 9 is_stmt 1               @ rt-thread/src/timer.c:650:9
	b	.LBB16_21
.Ltmp207:
.LBB16_20:
	.loc	1 651 14                        @ rt-thread/src/timer.c:651:14
	b	.LBB16_22
.Ltmp208:
.LBB16_21:                              @   in Loop: Header=BB16_3 Depth=1
	.loc	1 605 5                         @ rt-thread/src/timer.c:605:5
	b	.LBB16_3
.Ltmp209:
.LBB16_22:
	.loc	1 655 5                         @ rt-thread/src/timer.c:655:5
	bl	rt_exit_critical
	.loc	1 657 5                         @ rt-thread/src/timer.c:657:5
	b	.LBB16_23
.LBB16_23:
.Ltmp210:
	.loc	1 657 5 is_stmt 0               @ rt-thread/src/timer.c:657:5
	b	.LBB16_24
.Ltmp211:
.LBB16_24:
	.loc	1 658 1 is_stmt 1               @ rt-thread/src/timer.c:658:1
	add	sp, #16
	pop	{r7, pc}
.Ltmp212:
.Lfunc_end16:
	.size	rt_soft_timer_check, .Lfunc_end16-rt_soft_timer_check
	.cfi_endproc
	.cantunwind
	.fnend
                                        @ -- End function
	.section	.text.rt_system_timer_init,"ax",%progbits
	.hidden	rt_system_timer_init            @ -- Begin function rt_system_timer_init
	.globl	rt_system_timer_init
	.p2align	3
	.type	rt_system_timer_init,%function
	.code	16                              @ @rt_system_timer_init
	.thumb_func
rt_system_timer_init:
.Lfunc_begin17:
	.loc	1 702 0                         @ rt-thread/src/timer.c:702:0
	.fnstart
	.cfi_startproc
@ %bb.0:
	.save	{r7, lr}
	push	{r7, lr}
	.cfi_def_cfa_offset 8
	.cfi_offset lr, -4
	.cfi_offset r7, -8
	.pad	#8
	sub	sp, #8
	.cfi_def_cfa_offset 16
	movs	r0, #0
.Ltmp213:
	.loc	1 705 12 prologue_end           @ rt-thread/src/timer.c:705:12
	str	r0, [sp, #4]
	.loc	1 705 10 is_stmt 0              @ rt-thread/src/timer.c:705:10
	b	.LBB17_1
.LBB17_1:                               @ =>This Inner Loop Header: Depth=1
.Ltmp214:
	.loc	1 705 17                        @ rt-thread/src/timer.c:705:17
	ldr	r0, [sp, #4]
.Ltmp215:
	.loc	1 705 5                         @ rt-thread/src/timer.c:705:5
	cbnz	r0, .LBB17_4
	b	.LBB17_2
.LBB17_2:                               @   in Loop: Header=BB17_1 Depth=1
.Ltmp216:
	.loc	1 707 38 is_stmt 1              @ rt-thread/src/timer.c:707:38
	ldr	r1, [sp, #4]
	.loc	1 707 36 is_stmt 0              @ rt-thread/src/timer.c:707:36
	movw	r0, :lower16:rt_timer_list
	movt	r0, :upper16:rt_timer_list
	add.w	r0, r0, r1, lsl #3
	.loc	1 707 9                         @ rt-thread/src/timer.c:707:9
	bl	rt_list_init
	.loc	1 708 5 is_stmt 1               @ rt-thread/src/timer.c:708:5
	b	.LBB17_3
.Ltmp217:
.LBB17_3:                               @   in Loop: Header=BB17_1 Depth=1
	.loc	1 705 72                        @ rt-thread/src/timer.c:705:72
	ldr	r0, [sp, #4]
	adds	r0, #1
	str	r0, [sp, #4]
	.loc	1 705 5 is_stmt 0               @ rt-thread/src/timer.c:705:5
	b	.LBB17_1
.Ltmp218:
.LBB17_4:
	.loc	1 709 1 is_stmt 1               @ rt-thread/src/timer.c:709:1
	add	sp, #8
	pop	{r7, pc}
.Ltmp219:
.Lfunc_end17:
	.size	rt_system_timer_init, .Lfunc_end17-rt_system_timer_init
	.cfi_endproc
	.cantunwind
	.fnend
                                        @ -- End function
	.section	.text.rt_list_init,"ax",%progbits
	.p2align	3                               @ -- Begin function rt_list_init
	.type	rt_list_init,%function
	.code	16                              @ @rt_list_init
	.thumb_func
rt_list_init:
.Lfunc_begin18:
	.loc	3 48 0                          @ rt-thread/include\rtservice.h:48:0
	.fnstart
	.cfi_startproc
@ %bb.0:
	.pad	#4
	sub	sp, #4
	.cfi_def_cfa_offset 4
	str	r0, [sp]
.Ltmp220:
	.loc	3 49 25 prologue_end            @ rt-thread/include\rtservice.h:49:25
	ldr	r0, [sp]
	.loc	3 49 23 is_stmt 0               @ rt-thread/include\rtservice.h:49:23
	str	r0, [r0, #4]
	.loc	3 49 5                          @ rt-thread/include\rtservice.h:49:5
	ldr	r1, [sp]
	.loc	3 49 13                         @ rt-thread/include\rtservice.h:49:13
	str	r0, [r1]
	.loc	3 50 1 is_stmt 1                @ rt-thread/include\rtservice.h:50:1
	add	sp, #4
	bx	lr
.Ltmp221:
.Lfunc_end18:
	.size	rt_list_init, .Lfunc_end18-rt_list_init
	.cfi_endproc
	.cantunwind
	.fnend
                                        @ -- End function
	.section	.text.rt_system_timer_thread_init,"ax",%progbits
	.hidden	rt_system_timer_thread_init     @ -- Begin function rt_system_timer_thread_init
	.globl	rt_system_timer_thread_init
	.p2align	3
	.type	rt_system_timer_thread_init,%function
	.code	16                              @ @rt_system_timer_thread_init
	.thumb_func
rt_system_timer_thread_init:
.Lfunc_begin19:
	.loc	1 717 0                         @ rt-thread/src/timer.c:717:0
	.fnstart
	.cfi_startproc
@ %bb.0:
	.save	{r7, lr}
	push	{r7, lr}
	.cfi_def_cfa_offset 8
	.cfi_offset lr, -4
	.cfi_offset r7, -8
	.pad	#24
	sub	sp, #24
	.cfi_def_cfa_offset 32
	movs	r0, #0
.Ltmp222:
	.loc	1 721 12 prologue_end           @ rt-thread/src/timer.c:721:12
	str	r0, [sp, #20]
	.loc	1 721 10 is_stmt 0              @ rt-thread/src/timer.c:721:10
	b	.LBB19_1
.LBB19_1:                               @ =>This Inner Loop Header: Depth=1
.Ltmp223:
	.loc	1 722 10 is_stmt 1              @ rt-thread/src/timer.c:722:10
	ldr	r0, [sp, #20]
.Ltmp224:
	.loc	1 721 5                         @ rt-thread/src/timer.c:721:5
	cbnz	r0, .LBB19_4
	b	.LBB19_2
.LBB19_2:                               @   in Loop: Header=BB19_1 Depth=1
.Ltmp225:
	.loc	1 725 43                        @ rt-thread/src/timer.c:725:43
	ldr	r1, [sp, #20]
	.loc	1 725 41 is_stmt 0              @ rt-thread/src/timer.c:725:41
	movw	r0, :lower16:rt_soft_timer_list
	movt	r0, :upper16:rt_soft_timer_list
	add.w	r0, r0, r1, lsl #3
	.loc	1 725 9                         @ rt-thread/src/timer.c:725:9
	bl	rt_list_init
	.loc	1 726 5 is_stmt 1               @ rt-thread/src/timer.c:726:5
	b	.LBB19_3
.Ltmp226:
.LBB19_3:                               @   in Loop: Header=BB19_1 Depth=1
	.loc	1 723 11                        @ rt-thread/src/timer.c:723:11
	ldr	r0, [sp, #20]
	adds	r0, #1
	str	r0, [sp, #20]
	.loc	1 721 5                         @ rt-thread/src/timer.c:721:5
	b	.LBB19_1
.Ltmp227:
.LBB19_4:
	.loc	1 729 5                         @ rt-thread/src/timer.c:729:5
	mov	r1, sp
	movs	r0, #10
	str	r0, [r1, #12]
	movs	r0, #4
	str	r0, [r1, #8]
	mov.w	r0, #2048
	str	r0, [r1, #4]
	movw	r0, :lower16:timer_thread_stack
	movt	r0, :upper16:timer_thread_stack
	str	r0, [r1]
	movw	r0, :lower16:timer_thread
	movt	r0, :upper16:timer_thread
	str	r0, [sp, #16]                   @ 4-byte Spill
	movw	r1, :lower16:.L.str.5
	movt	r1, :upper16:.L.str.5
	movw	r2, :lower16:rt_thread_timer_entry
	movt	r2, :upper16:rt_thread_timer_entry
	movs	r3, #0
	bl	rt_thread_init
                                        @ kill: def $r1 killed $r0
	.loc	1 739 5                         @ rt-thread/src/timer.c:739:5
	ldr	r0, [sp, #16]                   @ 4-byte Reload
	bl	rt_thread_startup
	.loc	1 741 1                         @ rt-thread/src/timer.c:741:1
	add	sp, #24
	pop	{r7, pc}
.Ltmp228:
.Lfunc_end19:
	.size	rt_system_timer_thread_init, .Lfunc_end19-rt_system_timer_thread_init
	.cfi_endproc
	.cantunwind
	.fnend
                                        @ -- End function
	.section	.text.rt_thread_timer_entry,"ax",%progbits
	.p2align	3                               @ -- Begin function rt_thread_timer_entry
	.type	rt_thread_timer_entry,%function
	.code	16                              @ @rt_thread_timer_entry
	.thumb_func
rt_thread_timer_entry:
.Lfunc_begin20:
	.loc	1 662 0                         @ rt-thread/src/timer.c:662:0
	.fnstart
	.cfi_startproc
@ %bb.0:
	.save	{r7, lr}
	push	{r7, lr}
	.cfi_def_cfa_offset 8
	.cfi_offset lr, -4
	.cfi_offset r7, -8
	.pad	#16
	sub	sp, #16
	.cfi_def_cfa_offset 24
	str	r0, [sp, #12]
.Ltmp229:
	.loc	1 665 5 prologue_end            @ rt-thread/src/timer.c:665:5
	b	.LBB20_1
.LBB20_1:                               @ =>This Inner Loop Header: Depth=1
.Ltmp230:
	.loc	1 668 24                        @ rt-thread/src/timer.c:668:24
	movw	r0, :lower16:rt_soft_timer_list
	movt	r0, :upper16:rt_soft_timer_list
	bl	rt_timer_list_next_timeout
	.loc	1 668 22 is_stmt 0              @ rt-thread/src/timer.c:668:22
	str	r0, [sp, #8]
.Ltmp231:
	.loc	1 669 13 is_stmt 1              @ rt-thread/src/timer.c:669:13
	ldr	r0, [sp, #8]
.Ltmp232:
	.loc	1 669 13 is_stmt 0              @ rt-thread/src/timer.c:669:13
	adds	r0, #1
	cbnz	r0, .LBB20_3
	b	.LBB20_2
.LBB20_2:                               @   in Loop: Header=BB20_1 Depth=1
.Ltmp233:
	.loc	1 672 31 is_stmt 1              @ rt-thread/src/timer.c:672:31
	bl	rt_thread_self
	.loc	1 672 13 is_stmt 0              @ rt-thread/src/timer.c:672:13
	bl	rt_thread_suspend
	.loc	1 673 13 is_stmt 1              @ rt-thread/src/timer.c:673:13
	bl	rt_schedule
	.loc	1 674 9                         @ rt-thread/src/timer.c:674:9
	b	.LBB20_6
.Ltmp234:
.LBB20_3:                               @   in Loop: Header=BB20_1 Depth=1
	.loc	1 680 28                        @ rt-thread/src/timer.c:680:28
	bl	rt_tick_get
	.loc	1 680 26 is_stmt 0              @ rt-thread/src/timer.c:680:26
	str	r0, [sp, #4]
.Ltmp235:
	.loc	1 682 18 is_stmt 1              @ rt-thread/src/timer.c:682:18
	ldr	r0, [sp, #8]
	.loc	1 682 33 is_stmt 0              @ rt-thread/src/timer.c:682:33
	ldr	r1, [sp, #4]
	.loc	1 682 31                        @ rt-thread/src/timer.c:682:31
	subs	r0, r0, r1
	movw	r1, #65534
	movt	r1, #32767
.Ltmp236:
	.loc	1 682 17                        @ rt-thread/src/timer.c:682:17
	cmp	r0, r1
	bhi	.LBB20_5
	b	.LBB20_4
.LBB20_4:                               @   in Loop: Header=BB20_1 Depth=1
.Ltmp237:
	.loc	1 685 32 is_stmt 1              @ rt-thread/src/timer.c:685:32
	ldr	r0, [sp, #8]
	.loc	1 685 47 is_stmt 0              @ rt-thread/src/timer.c:685:47
	ldr	r1, [sp, #4]
	.loc	1 685 45                        @ rt-thread/src/timer.c:685:45
	subs	r0, r0, r1
	.loc	1 685 30                        @ rt-thread/src/timer.c:685:30
	str	r0, [sp, #8]
	.loc	1 686 33 is_stmt 1              @ rt-thread/src/timer.c:686:33
	ldr	r0, [sp, #8]
	.loc	1 686 17 is_stmt 0              @ rt-thread/src/timer.c:686:17
	bl	rt_thread_delay
	.loc	1 687 13 is_stmt 1              @ rt-thread/src/timer.c:687:13
	b	.LBB20_5
.Ltmp238:
.LBB20_5:                               @   in Loop: Header=BB20_1 Depth=1
	.loc	1 0 13 is_stmt 0                @ rt-thread/src/timer.c:0:13
	b	.LBB20_6
.LBB20_6:                               @   in Loop: Header=BB20_1 Depth=1
	.loc	1 691 9 is_stmt 1               @ rt-thread/src/timer.c:691:9
	bl	rt_soft_timer_check
.Ltmp239:
	.loc	1 665 5                         @ rt-thread/src/timer.c:665:5
	b	.LBB20_1
.Ltmp240:
.Lfunc_end20:
	.size	rt_thread_timer_entry, .Lfunc_end20-rt_thread_timer_entry
	.cfi_endproc
	.cantunwind
	.fnend
                                        @ -- End function
	.section	.text.rt_list_remove,"ax",%progbits
	.p2align	3                               @ -- Begin function rt_list_remove
	.type	rt_list_remove,%function
	.code	16                              @ @rt_list_remove
	.thumb_func
rt_list_remove:
.Lfunc_begin21:
	.loc	3 87 0                          @ rt-thread/include\rtservice.h:87:0
	.fnstart
	.cfi_startproc
@ %bb.0:
	.pad	#4
	sub	sp, #4
	.cfi_def_cfa_offset 4
	str	r0, [sp]
.Ltmp241:
	.loc	3 88 21 prologue_end            @ rt-thread/include\rtservice.h:88:21
	ldr	r0, [sp]
	.loc	3 88 8 is_stmt 0                @ rt-thread/include\rtservice.h:88:8
	ldr	r1, [r0]
	.loc	3 88 24                         @ rt-thread/include\rtservice.h:88:24
	ldr	r0, [r0, #4]
	.loc	3 88 19                         @ rt-thread/include\rtservice.h:88:19
	str	r0, [r1, #4]
	.loc	3 89 21 is_stmt 1               @ rt-thread/include\rtservice.h:89:21
	ldr	r1, [sp]
	.loc	3 89 24 is_stmt 0               @ rt-thread/include\rtservice.h:89:24
	ldr	r0, [r1]
	.loc	3 89 8                          @ rt-thread/include\rtservice.h:89:8
	ldr	r1, [r1, #4]
	.loc	3 89 19                         @ rt-thread/include\rtservice.h:89:19
	str	r0, [r1]
	.loc	3 91 25 is_stmt 1               @ rt-thread/include\rtservice.h:91:25
	ldr	r0, [sp]
	.loc	3 91 23 is_stmt 0               @ rt-thread/include\rtservice.h:91:23
	str	r0, [r0, #4]
	.loc	3 91 5                          @ rt-thread/include\rtservice.h:91:5
	ldr	r1, [sp]
	.loc	3 91 13                         @ rt-thread/include\rtservice.h:91:13
	str	r0, [r1]
	.loc	3 92 1 is_stmt 1                @ rt-thread/include\rtservice.h:92:1
	add	sp, #4
	bx	lr
.Ltmp242:
.Lfunc_end21:
	.size	rt_list_remove, .Lfunc_end21-rt_list_remove
	.cfi_endproc
	.cantunwind
	.fnend
                                        @ -- End function
	.type	rt_timer_enter_hook,%object     @ @rt_timer_enter_hook
	.section	.bss.rt_timer_enter_hook,"aw",%nobits
	.p2align	2
rt_timer_enter_hook:
	.long	0
	.size	rt_timer_enter_hook, 4

	.type	rt_timer_exit_hook,%object      @ @rt_timer_exit_hook
	.section	.bss.rt_timer_exit_hook,"aw",%nobits
	.p2align	2
rt_timer_exit_hook:
	.long	0
	.size	rt_timer_exit_hook, 4

	.type	.L.str,%object                  @ @.str
	.section	.rodata.str1.1,"aMS",%progbits,1
.L.str:
	.asciz	"timer != RT_NULL"
	.size	.L.str, 17

	.type	.L__FUNCTION__.rt_timer_init,%object @ @__FUNCTION__.rt_timer_init
.L__FUNCTION__.rt_timer_init:
	.asciz	"rt_timer_init"
	.size	.L__FUNCTION__.rt_timer_init, 14

	.type	.L__FUNCTION__.rt_timer_detach,%object @ @__FUNCTION__.rt_timer_detach
.L__FUNCTION__.rt_timer_detach:
	.asciz	"rt_timer_detach"
	.size	.L__FUNCTION__.rt_timer_detach, 16

	.type	.L.str.1,%object                @ @.str.1
.L.str.1:
	.asciz	"rt_object_get_type(&timer->parent) == RT_Object_Class_Timer"
	.size	.L.str.1, 60

	.type	.L.str.2,%object                @ @.str.2
.L.str.2:
	.asciz	"rt_object_is_systemobject(&timer->parent)"
	.size	.L.str.2, 42

	.type	.L__FUNCTION__.rt_timer_delete,%object @ @__FUNCTION__.rt_timer_delete
.L__FUNCTION__.rt_timer_delete:
	.asciz	"rt_timer_delete"
	.size	.L__FUNCTION__.rt_timer_delete, 16

	.type	.L.str.3,%object                @ @.str.3
.L.str.3:
	.asciz	"rt_object_is_systemobject(&timer->parent) == RT_FALSE"
	.size	.L.str.3, 54

	.type	rt_timer_start.random_nr,%object @ @rt_timer_start.random_nr
	.section	.bss.rt_timer_start.random_nr,"aw",%nobits
	.p2align	2
rt_timer_start.random_nr:
	.long	0                               @ 0x0
	.size	rt_timer_start.random_nr, 4

	.type	.L__FUNCTION__.rt_timer_start,%object @ @__FUNCTION__.rt_timer_start
	.section	.rodata.str1.1,"aMS",%progbits,1
.L__FUNCTION__.rt_timer_start:
	.asciz	"rt_timer_start"
	.size	.L__FUNCTION__.rt_timer_start, 15

	.type	.L.str.4,%object                @ @.str.4
.L.str.4:
	.asciz	"timer->init_tick < RT_TICK_MAX / 2"
	.size	.L.str.4, 35

	.type	rt_soft_timer_list,%object      @ @rt_soft_timer_list
	.section	.bss.rt_soft_timer_list,"aw",%nobits
	.p2align	2
rt_soft_timer_list:
	.zero	8
	.size	rt_soft_timer_list, 8

	.type	rt_timer_list,%object           @ @rt_timer_list
	.section	.bss.rt_timer_list,"aw",%nobits
	.p2align	2
rt_timer_list:
	.zero	8
	.size	rt_timer_list, 8

	.type	timer_thread,%object            @ @timer_thread
	.section	.bss.timer_thread,"aw",%nobits
	.p2align	2
timer_thread:
	.zero	128
	.size	timer_thread, 128

	.type	.L__FUNCTION__.rt_timer_stop,%object @ @__FUNCTION__.rt_timer_stop
	.section	.rodata.str1.1,"aMS",%progbits,1
.L__FUNCTION__.rt_timer_stop:
	.asciz	"rt_timer_stop"
	.size	.L__FUNCTION__.rt_timer_stop, 14

	.type	.L__FUNCTION__.rt_timer_control,%object @ @__FUNCTION__.rt_timer_control
.L__FUNCTION__.rt_timer_control:
	.asciz	"rt_timer_control"
	.size	.L__FUNCTION__.rt_timer_control, 17

	.type	.L.str.5,%object                @ @.str.5
.L.str.5:
	.asciz	"timer"
	.size	.L.str.5, 6

	.type	timer_thread_stack,%object      @ @timer_thread_stack
	.section	.bss.timer_thread_stack,"aw",%nobits
	.p2align	2
timer_thread_stack:
	.zero	2048
	.size	timer_thread_stack, 2048

	.section	".note.GNU-stack","",%progbits
	.eabi_attribute	30, 6	@ Tag_ABI_optimization_goals
	.ARM_attribute	16, 1	@ Tag_AV_eba