	.text
	.syntax unified
	.eabi_attribute	67, "2.09"	@ Tag_conformance
	.cpu	cortex-m7
	.eabi_attribute	6, 13	@ Tag_CPU_arch
	.eabi_attribute	7, 77	@ Tag_CPU_arch_profile
	.eabi_attribute	8, 0	@ Tag_ARM_ISA_use
	.eabi_attribute	9, 2	@ Tag_THUMB_ISA_use
	.fpu	fpv5-d16
	.eabi_attribute	36, 1	@ Tag_FP_HP_extension
	.eabi_attribute	34, 1	@ Tag_CPU_unaligned_access
	.eabi_attribute	17, 1	@ Tag_ABI_PCS_GOT_use
	.eabi_attribute	20, 2	@ Tag_ABI_FP_denormal
	.eabi_attribute	21, 0	@ Tag_ABI_FP_exceptions
	.eabi_attribute	23, 1	@ Tag_ABI_FP_number_model
	.eabi_attribute	24, 1	@ Tag_ABI_align_needed
	.eabi_attribute	25, 1	@ Tag_ABI_align_preserved
	.eabi_attribute	28, 1	@ Tag_ABI_VFP_args
	.eabi_attribute	38, 1	@ Tag_ABI_FP_16bit_format
	.eabi_attribute	18, 2	@ Tag_ABI_PCS_wchar_t
	.eabi_attribute	26, 1	@ Tag_ABI_enum_size
	.eabi_attribute	14, 0	@ Tag_ABI_PCS_R9_use
	.file	"time.c"
	.file	1 "E:\\STM32\\Learning\\STM32H750_ART_PI_RGBLCD" "rt-thread/components/libc/compilers/common/time.c"
	.file	2 "D:\\Keil_v5\\ARM\\ARMCLANG\\Bin\\..\\include" "time.h"
	.file	3 "E:\\STM32\\Learning\\STM32H750_ART_PI_RGBLCD" "rt-thread/include\\rtdef.h"
	.section	.text.__isleap,"ax",%progbits
	.hidden	__isleap                        @ -- Begin function __isleap
	.globl	__isleap
	.p2align	3
	.type	__isleap,%function
	.code	16                              @ @__isleap
	.thumb_func
__isleap:
.Lfunc_begin0:
	.loc	1 40 0                          @ rt-thread/components/libc/compilers/common/time.c:40:0
	.fnstart
	.cfi_sections .debug_frame
	.cfi_startproc
@ %bb.0:
	.pad	#12
	sub	sp, #12
	.cfi_def_cfa_offset 12
	str	r0, [sp, #8]
.Ltmp0:
	.loc	1 44 15 prologue_end            @ rt-thread/components/libc/compilers/common/time.c:44:15
	ldr	r0, [sp, #8]
	.loc	1 44 20 is_stmt 0               @ rt-thread/components/libc/compilers/common/time.c:44:20
	asrs	r1, r0, #31
	add.w	r1, r0, r1, lsr #30
	bic	r1, r1, #3
	subs	r1, r0, r1
	movs	r0, #0
	.loc	1 44 25                         @ rt-thread/components/libc/compilers/common/time.c:44:25
	str	r0, [sp, #4]                    @ 4-byte Spill
	cbnz	r1, .LBB0_4
	b	.LBB0_1
.LBB0_1:
	.loc	1 44 30                         @ rt-thread/components/libc/compilers/common/time.c:44:30
	ldr	r1, [sp, #8]
	movs	r0, #1
	movw	r3, #47184
	movt	r3, #1310
	movw	r2, #23593
	movt	r2, #49807
	.loc	1 44 42                         @ rt-thread/components/libc/compilers/common/time.c:44:42
	mla	r1, r1, r2, r3
	ror.w	r1, r1, #2
	movw	r2, #23592
	movt	r2, #655
	cmp	r1, r2
	str	r0, [sp]                        @ 4-byte Spill
	bhi	.LBB0_3
	b	.LBB0_2
.LBB0_2:
	.loc	1 44 47                         @ rt-thread/components/libc/compilers/common/time.c:44:47
	ldr	r0, [sp, #8]
	movw	r2, #47184
	movt	r2, #1310
	movw	r1, #23593
	movt	r1, #49807
	.loc	1 44 45                         @ rt-thread/components/libc/compilers/common/time.c:44:45
	mla	r0, r0, r1, r2
	ror.w	r1, r0, #4
	movw	r2, #55051
	movt	r2, #163
	movs	r0, #0
	cmp	r1, r2
	it	lo
	movlo	r0, #1
	.loc	1 44 42                         @ rt-thread/components/libc/compilers/common/time.c:44:42
	str	r0, [sp]                        @ 4-byte Spill
	b	.LBB0_3
.LBB0_3:
	.loc	1 0 42                          @ rt-thread/components/libc/compilers/common/time.c:0:42
	ldr	r0, [sp]                        @ 4-byte Reload
	str	r0, [sp, #4]                    @ 4-byte Spill
	b	.LBB0_4
.LBB0_4:
	ldr	r0, [sp, #4]                    @ 4-byte Reload
	.loc	1 44 25                         @ rt-thread/components/libc/compilers/common/time.c:44:25
	and	r0, r0, #1
	.loc	1 44 5                          @ rt-thread/components/libc/compilers/common/time.c:44:5
	add	sp, #12
	bx	lr
.Ltmp1:
.Lfunc_end0:
	.size	__isleap, .Lfunc_end0-__isleap
	.cfi_endproc
	.cantunwind
	.fnend
                                        @ -- End function
	.section	.text.gmtime_r,"ax",%progbits
	.hidden	gmtime_r                        @ -- Begin function gmtime_r
	.globl	gmtime_r
	.p2align	3
	.type	gmtime_r,%function
	.code	16                              @ @gmtime_r
	.thumb_func
gmtime_r:
.Lfunc_begin1:
	.loc	1 48 0 is_stmt 1                @ rt-thread/components/libc/compilers/common/time.c:48:0
	.fnstart
	.cfi_startproc
@ %bb.0:
	.save	{r7, lr}
	push	{r7, lr}
	.cfi_def_cfa_offset 8
	.cfi_offset lr, -4
	.cfi_offset r7, -8
	.pad	#24
	sub	sp, #24
	.cfi_def_cfa_offset 32
	str	r0, [sp, #20]
	str	r1, [sp, #16]
.Ltmp2:
	.loc	1 50 29 prologue_end            @ rt-thread/components/libc/compilers/common/time.c:50:29
	ldr	r0, [sp, #20]
	.loc	1 50 28 is_stmt 0               @ rt-thread/components/libc/compilers/common/time.c:50:28
	ldr	r0, [r0]
	movw	r1, #17671
	movt	r1, #49710
	.loc	1 50 35                         @ rt-thread/components/libc/compilers/common/time.c:50:35
	umull	r3, r2, r0, r1
	lsrs	r2, r2, #16
	movw	r3, #675
	muls	r2, r3, r2
	sub.w	r0, r0, r2, lsl #7
	.loc	1 50 21                         @ rt-thread/components/libc/compilers/common/time.c:50:21
	str	r0, [sp, #8]
	.loc	1 51 17 is_stmt 1               @ rt-thread/components/libc/compilers/common/time.c:51:17
	ldr	r0, [sp, #8]
	movw	r2, #34953
	movt	r2, #34952
	.loc	1 51 22 is_stmt 0               @ rt-thread/components/libc/compilers/common/time.c:51:22
	umull	r3, r12, r0, r2
	lsr.w	r3, r12, #5
	lsls	r3, r3, #4
	sub.w	r3, r3, r12, lsr #5
	sub.w	r0, r0, r3, lsl #2
	.loc	1 51 5                          @ rt-thread/components/libc/compilers/common/time.c:51:5
	ldr	r3, [sp, #16]
	.loc	1 51 15                         @ rt-thread/components/libc/compilers/common/time.c:51:15
	str	r0, [r3]
	.loc	1 52 10 is_stmt 1               @ rt-thread/components/libc/compilers/common/time.c:52:10
	ldr	r0, [sp, #8]
	umull	r3, r0, r0, r2
	lsrs	r0, r0, #5
	str	r0, [sp, #8]
	.loc	1 53 17                         @ rt-thread/components/libc/compilers/common/time.c:53:17
	ldr	r0, [sp, #8]
	.loc	1 53 22 is_stmt 0               @ rt-thread/components/libc/compilers/common/time.c:53:22
	umull	r3, r12, r0, r2
	lsr.w	r3, r12, #5
	lsls	r3, r3, #4
	sub.w	r3, r3, r12, lsr #5
	sub.w	r0, r0, r3, lsl #2
	.loc	1 53 5                          @ rt-thread/components/libc/compilers/common/time.c:53:5
	ldr	r3, [sp, #16]
	.loc	1 53 15                         @ rt-thread/components/libc/compilers/common/time.c:53:15
	str	r0, [r3, #4]
	.loc	1 54 18 is_stmt 1               @ rt-thread/components/libc/compilers/common/time.c:54:18
	ldr	r0, [sp, #8]
	.loc	1 54 23 is_stmt 0               @ rt-thread/components/libc/compilers/common/time.c:54:23
	umull	r2, r0, r0, r2
	lsrs	r0, r0, #5
	.loc	1 54 5                          @ rt-thread/components/libc/compilers/common/time.c:54:5
	ldr	r2, [sp, #16]
	.loc	1 54 16                         @ rt-thread/components/libc/compilers/common/time.c:54:16
	str	r0, [r2, #8]
	.loc	1 55 13 is_stmt 1               @ rt-thread/components/libc/compilers/common/time.c:55:13
	ldr	r0, [sp, #20]
	.loc	1 55 12 is_stmt 0               @ rt-thread/components/libc/compilers/common/time.c:55:12
	ldr	r0, [r0]
	.loc	1 55 19                         @ rt-thread/components/libc/compilers/common/time.c:55:19
	umull	r1, r0, r0, r1
	lsrs	r0, r0, #16
	.loc	1 55 10                         @ rt-thread/components/libc/compilers/common/time.c:55:10
	str	r0, [sp, #8]
	.loc	1 56 23 is_stmt 1               @ rt-thread/components/libc/compilers/common/time.c:56:23
	ldr	r0, [sp, #8]
	.loc	1 56 21 is_stmt 0               @ rt-thread/components/libc/compilers/common/time.c:56:21
	adds	r0, #4
	movw	r1, #18725
	movt	r1, #9362
	.loc	1 56 29                         @ rt-thread/components/libc/compilers/common/time.c:56:29
	umull	r2, r1, r0, r1
	subs	r2, r0, r1
	add.w	r2, r1, r2, lsr #1
	lsrs	r1, r2, #2
	lsls	r1, r1, #3
	sub.w	r1, r1, r2, lsr #2
	subs	r0, r0, r1
	.loc	1 56 5                          @ rt-thread/components/libc/compilers/common/time.c:56:5
	ldr	r1, [sp, #16]
	.loc	1 56 16                         @ rt-thread/components/libc/compilers/common/time.c:56:16
	str	r0, [r1, #24]
	movw	r0, #1970
.Ltmp3:
	.loc	1 57 12 is_stmt 1               @ rt-thread/components/libc/compilers/common/time.c:57:12
	str	r0, [sp, #12]
	.loc	1 57 10 is_stmt 0               @ rt-thread/components/libc/compilers/common/time.c:57:10
	b	.LBB1_1
.LBB1_1:                                @ =>This Inner Loop Header: Depth=1
.Ltmp4:
	.loc	1 59 38 is_stmt 1               @ rt-thread/components/libc/compilers/common/time.c:59:38
	ldr	r0, [sp, #12]
	.loc	1 59 29 is_stmt 0               @ rt-thread/components/libc/compilers/common/time.c:59:29
	bl	__isleap
	mov	r1, r0
	movw	r0, #365
	cmp	r1, #0
	it	ne
	movne.w	r0, #366
	.loc	1 59 25                         @ rt-thread/components/libc/compilers/common/time.c:59:25
	str	r0, [sp, #4]
.Ltmp5:
	.loc	1 60 13 is_stmt 1               @ rt-thread/components/libc/compilers/common/time.c:60:13
	ldr	r0, [sp, #8]
	.loc	1 60 21 is_stmt 0               @ rt-thread/components/libc/compilers/common/time.c:60:21
	ldr	r1, [sp, #4]
.Ltmp6:
	.loc	1 60 13                         @ rt-thread/components/libc/compilers/common/time.c:60:13
	cmp	r0, r1
	blo	.LBB1_3
	b	.LBB1_2
.LBB1_2:                                @   in Loop: Header=BB1_1 Depth=1
.Ltmp7:
	.loc	1 61 21 is_stmt 1               @ rt-thread/components/libc/compilers/common/time.c:61:21
	ldr	r1, [sp, #4]
	.loc	1 61 18 is_stmt 0               @ rt-thread/components/libc/compilers/common/time.c:61:18
	ldr	r0, [sp, #8]
	subs	r0, r0, r1
	str	r0, [sp, #8]
	.loc	1 61 13                         @ rt-thread/components/libc/compilers/common/time.c:61:13
	b	.LBB1_4
.LBB1_3:
	.loc	1 63 13 is_stmt 1               @ rt-thread/components/libc/compilers/common/time.c:63:13
	b	.LBB1_6
.Ltmp8:
.LBB1_4:                                @   in Loop: Header=BB1_1 Depth=1
	.loc	1 64 5                          @ rt-thread/components/libc/compilers/common/time.c:64:5
	b	.LBB1_5
.Ltmp9:
.LBB1_5:                                @   in Loop: Header=BB1_1 Depth=1
	.loc	1 57 21                         @ rt-thread/components/libc/compilers/common/time.c:57:21
	ldr	r0, [sp, #12]
	adds	r0, #1
	str	r0, [sp, #12]
	.loc	1 57 5 is_stmt 0                @ rt-thread/components/libc/compilers/common/time.c:57:5
	b	.LBB1_1
.Ltmp10:
.LBB1_6:
	.loc	1 65 18 is_stmt 1               @ rt-thread/components/libc/compilers/common/time.c:65:18
	ldr	r0, [sp, #12]
	.loc	1 65 20 is_stmt 0               @ rt-thread/components/libc/compilers/common/time.c:65:20
	subw	r0, r0, #1900
	.loc	1 65 5                          @ rt-thread/components/libc/compilers/common/time.c:65:5
	ldr	r1, [sp, #16]
	.loc	1 65 16                         @ rt-thread/components/libc/compilers/common/time.c:65:16
	str	r0, [r1, #20]
	.loc	1 66 18 is_stmt 1               @ rt-thread/components/libc/compilers/common/time.c:66:18
	ldr	r0, [sp, #8]
	.loc	1 66 5 is_stmt 0                @ rt-thread/components/libc/compilers/common/time.c:66:5
	ldr	r1, [sp, #16]
	.loc	1 66 16                         @ rt-thread/components/libc/compilers/common/time.c:66:16
	str	r0, [r1, #28]
	.loc	1 68 5 is_stmt 1                @ rt-thread/components/libc/compilers/common/time.c:68:5
	ldr	r1, [sp, #16]
	movs	r0, #1
	.loc	1 68 16 is_stmt 0               @ rt-thread/components/libc/compilers/common/time.c:68:16
	str	r0, [r1, #12]
.Ltmp11:
	.loc	1 69 18 is_stmt 1               @ rt-thread/components/libc/compilers/common/time.c:69:18
	ldr	r0, [sp, #12]
	.loc	1 69 9 is_stmt 0                @ rt-thread/components/libc/compilers/common/time.c:69:9
	bl	__isleap
	.loc	1 69 21                         @ rt-thread/components/libc/compilers/common/time.c:69:21
	cbz	r0, .LBB1_11
	b	.LBB1_7
.LBB1_7:
	.loc	1 69 25                         @ rt-thread/components/libc/compilers/common/time.c:69:25
	ldr	r0, [sp, #8]
.Ltmp12:
	.loc	1 69 9                          @ rt-thread/components/libc/compilers/common/time.c:69:9
	cmp	r0, #59
	blo	.LBB1_11
	b	.LBB1_8
.LBB1_8:
.Ltmp13:
	.loc	1 71 13 is_stmt 1               @ rt-thread/components/libc/compilers/common/time.c:71:13
	ldr	r0, [sp, #8]
.Ltmp14:
	.loc	1 71 13 is_stmt 0               @ rt-thread/components/libc/compilers/common/time.c:71:13
	cmp	r0, #59
	bne	.LBB1_10
	b	.LBB1_9
.LBB1_9:
.Ltmp15:
	.loc	1 72 13 is_stmt 1               @ rt-thread/components/libc/compilers/common/time.c:72:13
	ldr	r1, [sp, #16]
	movs	r0, #2
	.loc	1 72 24 is_stmt 0               @ rt-thread/components/libc/compilers/common/time.c:72:24
	str	r0, [r1, #12]
	.loc	1 72 13                         @ rt-thread/components/libc/compilers/common/time.c:72:13
	b	.LBB1_10
.Ltmp16:
.LBB1_10:
	.loc	1 73 14 is_stmt 1               @ rt-thread/components/libc/compilers/common/time.c:73:14
	ldr	r0, [sp, #8]
	subs	r0, #1
	str	r0, [sp, #8]
	.loc	1 74 5                          @ rt-thread/components/libc/compilers/common/time.c:74:5
	b	.LBB1_11
.Ltmp17:
.LBB1_11:
	.loc	1 0 5 is_stmt 0                 @ rt-thread/components/libc/compilers/common/time.c:0:5
	movs	r0, #11
.Ltmp18:
	.loc	1 76 12 is_stmt 1               @ rt-thread/components/libc/compilers/common/time.c:76:12
	str	r0, [sp, #12]
	.loc	1 76 10 is_stmt 0               @ rt-thread/components/libc/compilers/common/time.c:76:10
	b	.LBB1_12
.LBB1_12:                               @ =>This Inner Loop Header: Depth=1
.Ltmp19:
	.loc	1 76 18                         @ rt-thread/components/libc/compilers/common/time.c:76:18
	ldr	r1, [sp, #12]
	movs	r0, #0
	.loc	1 76 20                         @ rt-thread/components/libc/compilers/common/time.c:76:20
	str	r0, [sp]                        @ 4-byte Spill
	cbz	r1, .LBB1_14
	b	.LBB1_13
.LBB1_13:                               @   in Loop: Header=BB1_12 Depth=1
	.loc	1 76 30                         @ rt-thread/components/libc/compilers/common/time.c:76:30
	ldr	r1, [sp, #12]
	.loc	1 76 24                         @ rt-thread/components/libc/compilers/common/time.c:76:24
	movw	r0, :lower16:__spm
	movt	r0, :upper16:__spm
	ldrsh.w	r1, [r0, r1, lsl #1]
	.loc	1 76 35                         @ rt-thread/components/libc/compilers/common/time.c:76:35
	ldr	r2, [sp, #8]
	movs	r0, #0
	.loc	1 76 33                         @ rt-thread/components/libc/compilers/common/time.c:76:33
	cmp	r1, r2
	it	hi
	movhi	r0, #1
	str	r0, [sp]                        @ 4-byte Spill
	b	.LBB1_14
.LBB1_14:                               @   in Loop: Header=BB1_12 Depth=1
	.loc	1 0 0                           @ rt-thread/components/libc/compilers/common/time.c:0:0
	ldr	r0, [sp]                        @ 4-byte Reload
.Ltmp20:
	.loc	1 76 5                          @ rt-thread/components/libc/compilers/common/time.c:76:5
	lsls	r0, r0, #31
	cbz	r0, .LBB1_17
	b	.LBB1_15
.LBB1_15:                               @   in Loop: Header=BB1_12 Depth=1
	b	.LBB1_16
.LBB1_16:                               @   in Loop: Header=BB1_12 Depth=1
.Ltmp21:
	.loc	1 76 42                         @ rt-thread/components/libc/compilers/common/time.c:76:42
	ldr	r0, [sp, #12]
	subs	r0, #1
	str	r0, [sp, #12]
	.loc	1 76 5                          @ rt-thread/components/libc/compilers/common/time.c:76:5
	b	.LBB1_12
.Ltmp22:
.LBB1_17:
	.loc	1 78 17 is_stmt 1               @ rt-thread/components/libc/compilers/common/time.c:78:17
	ldr	r0, [sp, #12]
	.loc	1 78 5 is_stmt 0                @ rt-thread/components/libc/compilers/common/time.c:78:5
	ldr	r1, [sp, #16]
	.loc	1 78 15                         @ rt-thread/components/libc/compilers/common/time.c:78:15
	str	r0, [r1, #16]
	.loc	1 79 19 is_stmt 1               @ rt-thread/components/libc/compilers/common/time.c:79:19
	ldr	r0, [sp, #8]
	.loc	1 79 32 is_stmt 0               @ rt-thread/components/libc/compilers/common/time.c:79:32
	ldr	r2, [sp, #12]
	.loc	1 79 26                         @ rt-thread/components/libc/compilers/common/time.c:79:26
	movw	r1, :lower16:__spm
	movt	r1, :upper16:__spm
	ldrsh.w	r1, [r1, r2, lsl #1]
	.loc	1 79 24                         @ rt-thread/components/libc/compilers/common/time.c:79:24
	subs	r2, r0, r1
	.loc	1 79 5                          @ rt-thread/components/libc/compilers/common/time.c:79:5
	ldr	r1, [sp, #16]
	.loc	1 79 16                         @ rt-thread/components/libc/compilers/common/time.c:79:16
	ldr	r0, [r1, #12]
	add	r0, r2
	str	r0, [r1, #12]
	.loc	1 80 12 is_stmt 1               @ rt-thread/components/libc/compilers/common/time.c:80:12
	ldr	r0, [sp, #16]
	.loc	1 80 5 is_stmt 0                @ rt-thread/components/libc/compilers/common/time.c:80:5
	add	sp, #24
	pop	{r7, pc}
.Ltmp23:
.Lfunc_end1:
	.size	gmtime_r, .Lfunc_end1-gmtime_r
	.cfi_endproc
	.cantunwind
	.fnend
                                        @ -- End function
	.section	.text.gmtime,"ax",%progbits
	.hidden	gmtime                          @ -- Begin function gmtime
	.globl	gmtime
	.p2align	3
	.type	gmtime,%function
	.code	16                              @ @gmtime
	.thumb_func
gmtime:
.Lfunc_begin2:
	.loc	1 84 0 is_stmt 1                @ rt-thread/components/libc/compilers/common/time.c:84:0
	.fnstart
	.cfi_startproc
@ %bb.0:
	.save	{r7, lr}
	push	{r7, lr}
	.cfi_def_cfa_offset 8
	.cfi_offset lr, -4
	.cfi_offset r7, -8
	.pad	#8
	sub	sp, #8
	.cfi_def_cfa_offset 16
	str	r0, [sp, #4]
.Ltmp24:
	.loc	1 86 21 prologue_end            @ rt-thread/components/libc/compilers/common/time.c:86:21
	ldr	r0, [sp, #4]
	.loc	1 86 12 is_stmt 0               @ rt-thread/components/libc/compilers/common/time.c:86:12
	movw	r1, :lower16:gmtime.tmp
	movt	r1, :upper16:gmtime.tmp
	bl	gmtime_r
	.loc	1 86 5                          @ rt-thread/components/libc/compilers/common/time.c:86:5
	add	sp, #8
	pop	{r7, pc}
.Ltmp25:
.Lfunc_end2:
	.size	gmtime, .Lfunc_end2-gmtime
	.cfi_endproc
	.cantunwind
	.fnend
                                        @ -- End function
	.section	.text.localtime_r,"ax",%progbits
	.hidden	localtime_r                     @ -- Begin function localtime_r
	.globl	localtime_r
	.p2align	3
	.type	localtime_r,%function
	.code	16                              @ @localtime_r
	.thumb_func
localtime_r:
.Lfunc_begin3:
	.loc	1 91 0 is_stmt 1                @ rt-thread/components/libc/compilers/common/time.c:91:0
	.fnstart
	.cfi_startproc
@ %bb.0:
	.save	{r7, lr}
	push	{r7, lr}
	.cfi_def_cfa_offset 8
	.cfi_offset lr, -4
	.cfi_offset r7, -8
	.pad	#8
	sub	sp, #8
	.cfi_def_cfa_offset 16
	str	r0, [sp, #4]
	str	r1, [sp]
.Ltmp26:
	.loc	1 92 21 prologue_end            @ rt-thread/components/libc/compilers/common/time.c:92:21
	ldr	r0, [sp, #4]
	.loc	1 92 24 is_stmt 0               @ rt-thread/components/libc/compilers/common/time.c:92:24
	ldr	r1, [sp]
	.loc	1 92 12                         @ rt-thread/components/libc/compilers/common/time.c:92:12
	bl	gmtime_r
	.loc	1 92 5                          @ rt-thread/components/libc/compilers/common/time.c:92:5
	add	sp, #8
	pop	{r7, pc}
.Ltmp27:
.Lfunc_end3:
	.size	localtime_r, .Lfunc_end3-localtime_r
	.cfi_endproc
	.cantunwind
	.fnend
                                        @ -- End function
	.section	.text.localtime,"ax",%progbits
	.hidden	localtime                       @ -- Begin function localtime
	.globl	localtime
	.p2align	3
	.type	localtime,%function
	.code	16                              @ @localtime
	.thumb_func
localtime:
.Lfunc_begin4:
	.loc	1 96 0 is_stmt 1                @ rt-thread/components/libc/compilers/common/time.c:96:0
	.fnstart
	.cfi_startproc
@ %bb.0:
	.save	{r7, lr}
	push	{r7, lr}
	.cfi_def_cfa_offset 8
	.cfi_offset lr, -4
	.cfi_offset r7, -8
	.pad	#8
	sub	sp, #8
	.cfi_def_cfa_offset 16
	str	r0, [sp, #4]
.Ltmp28:
	.loc	1 98 24 prologue_end            @ rt-thread/components/libc/compilers/common/time.c:98:24
	ldr	r0, [sp, #4]
	.loc	1 98 12 is_stmt 0               @ rt-thread/components/libc/compilers/common/time.c:98:12
	movw	r1, :lower16:localtime.tmp
	movt	r1, :upper16:localtime.tmp
	bl	localtime_r
	.loc	1 98 5                          @ rt-thread/components/libc/compilers/common/time.c:98:5
	add	sp, #8
	pop	{r7, pc}
.Ltmp29:
.Lfunc_end4:
	.size	localtime, .Lfunc_end4-localtime
	.cfi_endproc
	.cantunwind
	.fnend
                                        @ -- End function
	.section	.text.mktime,"ax",%progbits
	.hidden	mktime                          @ -- Begin function mktime
	.globl	mktime
	.p2align	3
	.type	mktime,%function
	.code	16                              @ @mktime
	.thumb_func
mktime:
.Lfunc_begin5:
	.loc	1 102 0 is_stmt 1               @ rt-thread/components/libc/compilers/common/time.c:102:0
	.fnstart
	.cfi_startproc
@ %bb.0:
	.save	{r7, lr}
	push	{r7, lr}
	.cfi_def_cfa_offset 8
	.cfi_offset lr, -4
	.cfi_offset r7, -8
	.pad	#24
	sub	sp, #24
	.cfi_def_cfa_offset 32
	str	r0, [sp, #16]
.Ltmp30:
	.loc	1 105 29 prologue_end           @ rt-thread/components/libc/compilers/common/time.c:105:29
	ldr	r0, [sp, #16]
	.loc	1 105 32 is_stmt 0              @ rt-thread/components/libc/compilers/common/time.c:105:32
	ldr	r0, [r0, #20]
	.loc	1 105 40                        @ rt-thread/components/libc/compilers/common/time.c:105:40
	subs	r0, #70
	.loc	1 105 21                        @ rt-thread/components/libc/compilers/common/time.c:105:21
	str	r0, [sp, #4]
.Ltmp31:
	.loc	1 107 9 is_stmt 1               @ rt-thread/components/libc/compilers/common/time.c:107:9
	ldr	r0, [sp, #16]
	.loc	1 107 12 is_stmt 0              @ rt-thread/components/libc/compilers/common/time.c:107:12
	ldr	r0, [r0]
.Ltmp32:
	.loc	1 107 9                         @ rt-thread/components/libc/compilers/common/time.c:107:9
	cmp	r0, #61
	blt	.LBB5_2
	b	.LBB5_1
.LBB5_1:
.Ltmp33:
	.loc	1 109 22 is_stmt 1              @ rt-thread/components/libc/compilers/common/time.c:109:22
	ldr	r1, [sp, #16]
	.loc	1 109 25 is_stmt 0              @ rt-thread/components/libc/compilers/common/time.c:109:25
	ldr	r3, [r1]
	.loc	1 109 19                        @ rt-thread/components/libc/compilers/common/time.c:109:19
	ldr	r0, [r1, #4]
	movw	r2, #34953
	movt	r2, #34952
	.loc	1 109 32                        @ rt-thread/components/libc/compilers/common/time.c:109:32
	smmla	r12, r2, r3, r3
	asr.w	r3, r12, #5
	add.w	r3, r3, r12, lsr #31
	.loc	1 109 19                        @ rt-thread/components/libc/compilers/common/time.c:109:19
	add	r0, r3
	str	r0, [r1, #4]
	.loc	1 110 9 is_stmt 1               @ rt-thread/components/libc/compilers/common/time.c:110:9
	ldr	r1, [sp, #16]
	.loc	1 110 19 is_stmt 0              @ rt-thread/components/libc/compilers/common/time.c:110:19
	ldr	r0, [r1]
	smmla	r3, r2, r0, r0
	asrs	r2, r3, #5
	add.w	r2, r2, r3, lsr #31
	rsb	r2, r2, r2, lsl #4
	sub.w	r0, r0, r2, lsl #2
	str	r0, [r1]
	.loc	1 111 5 is_stmt 1               @ rt-thread/components/libc/compilers/common/time.c:111:5
	b	.LBB5_2
.Ltmp34:
.LBB5_2:
	.loc	1 112 9                         @ rt-thread/components/libc/compilers/common/time.c:112:9
	ldr	r0, [sp, #16]
	.loc	1 112 12 is_stmt 0              @ rt-thread/components/libc/compilers/common/time.c:112:12
	ldr	r0, [r0, #4]
.Ltmp35:
	.loc	1 112 9                         @ rt-thread/components/libc/compilers/common/time.c:112:9
	cmp	r0, #61
	blt	.LBB5_4
	b	.LBB5_3
.LBB5_3:
.Ltmp36:
	.loc	1 114 23 is_stmt 1              @ rt-thread/components/libc/compilers/common/time.c:114:23
	ldr	r1, [sp, #16]
	.loc	1 114 26 is_stmt 0              @ rt-thread/components/libc/compilers/common/time.c:114:26
	ldr	r3, [r1, #4]
	.loc	1 114 20                        @ rt-thread/components/libc/compilers/common/time.c:114:20
	ldr	r0, [r1, #8]
	movw	r2, #34953
	movt	r2, #34952
	.loc	1 114 33                        @ rt-thread/components/libc/compilers/common/time.c:114:33
	smmla	r12, r2, r3, r3
	asr.w	r3, r12, #5
	add.w	r3, r3, r12, lsr #31
	.loc	1 114 20                        @ rt-thread/components/libc/compilers/common/time.c:114:20
	add	r0, r3
	str	r0, [r1, #8]
	.loc	1 115 9 is_stmt 1               @ rt-thread/components/libc/compilers/common/time.c:115:9
	ldr	r1, [sp, #16]
	.loc	1 115 19 is_stmt 0              @ rt-thread/components/libc/compilers/common/time.c:115:19
	ldr	r0, [r1, #4]
	smmla	r3, r2, r0, r0
	asrs	r2, r3, #5
	add.w	r2, r2, r3, lsr #31
	rsb	r2, r2, r2, lsl #4
	sub.w	r0, r0, r2, lsl #2
	str	r0, [r1, #4]
	.loc	1 116 5 is_stmt 1               @ rt-thread/components/libc/compilers/common/time.c:116:5
	b	.LBB5_4
.Ltmp37:
.LBB5_4:
	.loc	1 117 9                         @ rt-thread/components/libc/compilers/common/time.c:117:9
	ldr	r0, [sp, #16]
	.loc	1 117 12 is_stmt 0              @ rt-thread/components/libc/compilers/common/time.c:117:12
	ldr	r0, [r0, #8]
.Ltmp38:
	.loc	1 117 9                         @ rt-thread/components/libc/compilers/common/time.c:117:9
	cmp	r0, #25
	blt	.LBB5_6
	b	.LBB5_5
.LBB5_5:
.Ltmp39:
	.loc	1 119 23 is_stmt 1              @ rt-thread/components/libc/compilers/common/time.c:119:23
	ldr	r1, [sp, #16]
	.loc	1 119 26 is_stmt 0              @ rt-thread/components/libc/compilers/common/time.c:119:26
	ldr	r3, [r1, #8]
	.loc	1 119 20                        @ rt-thread/components/libc/compilers/common/time.c:119:20
	ldr	r0, [r1, #12]
	movw	r2, #43691
	movt	r2, #10922
	.loc	1 119 34                        @ rt-thread/components/libc/compilers/common/time.c:119:34
	smmul	r12, r3, r2
	asr.w	r3, r12, #2
	add.w	r3, r3, r12, lsr #31
	.loc	1 119 20                        @ rt-thread/components/libc/compilers/common/time.c:119:20
	add	r0, r3
	str	r0, [r1, #12]
	.loc	1 120 9 is_stmt 1               @ rt-thread/components/libc/compilers/common/time.c:120:9
	ldr	r1, [sp, #16]
	.loc	1 120 20 is_stmt 0              @ rt-thread/components/libc/compilers/common/time.c:120:20
	ldr	r0, [r1, #8]
	smmul	r3, r0, r2
	asrs	r2, r3, #2
	add.w	r2, r2, r3, lsr #31
	add.w	r2, r2, r2, lsl #1
	sub.w	r0, r0, r2, lsl #3
	str	r0, [r1, #8]
	.loc	1 121 5 is_stmt 1               @ rt-thread/components/libc/compilers/common/time.c:121:5
	b	.LBB5_6
.Ltmp40:
.LBB5_6:
	.loc	1 122 9                         @ rt-thread/components/libc/compilers/common/time.c:122:9
	ldr	r0, [sp, #16]
	.loc	1 122 12 is_stmt 0              @ rt-thread/components/libc/compilers/common/time.c:122:12
	ldr	r0, [r0, #16]
.Ltmp41:
	.loc	1 122 9                         @ rt-thread/components/libc/compilers/common/time.c:122:9
	cmp	r0, #13
	blt	.LBB5_8
	b	.LBB5_7
.LBB5_7:
.Ltmp42:
	.loc	1 124 23 is_stmt 1              @ rt-thread/components/libc/compilers/common/time.c:124:23
	ldr	r1, [sp, #16]
	.loc	1 124 26 is_stmt 0              @ rt-thread/components/libc/compilers/common/time.c:124:26
	ldr	r3, [r1, #16]
	.loc	1 124 20                        @ rt-thread/components/libc/compilers/common/time.c:124:20
	ldr	r0, [r1, #20]
	movw	r2, #43691
	movt	r2, #10922
	.loc	1 124 33                        @ rt-thread/components/libc/compilers/common/time.c:124:33
	smmul	r12, r3, r2
	asr.w	r3, r12, #1
	add.w	r3, r3, r12, lsr #31
	.loc	1 124 20                        @ rt-thread/components/libc/compilers/common/time.c:124:20
	add	r0, r3
	str	r0, [r1, #20]
	.loc	1 125 9 is_stmt 1               @ rt-thread/components/libc/compilers/common/time.c:125:9
	ldr	r1, [sp, #16]
	.loc	1 125 19 is_stmt 0              @ rt-thread/components/libc/compilers/common/time.c:125:19
	ldr	r0, [r1, #16]
	smmul	r3, r0, r2
	asrs	r2, r3, #1
	add.w	r2, r2, r3, lsr #31
	add.w	r2, r2, r2, lsl #1
	sub.w	r0, r0, r2, lsl #2
	str	r0, [r1, #16]
	.loc	1 126 5 is_stmt 1               @ rt-thread/components/libc/compilers/common/time.c:126:5
	b	.LBB5_8
.Ltmp43:
.LBB5_8:
	.loc	1 127 5                         @ rt-thread/components/libc/compilers/common/time.c:127:5
	b	.LBB5_9
.LBB5_9:                                @ =>This Inner Loop Header: Depth=1
	.loc	1 127 12 is_stmt 0              @ rt-thread/components/libc/compilers/common/time.c:127:12
	ldr	r1, [sp, #16]
	.loc	1 127 15                        @ rt-thread/components/libc/compilers/common/time.c:127:15
	ldr	r0, [r1, #12]
	.loc	1 127 38                        @ rt-thread/components/libc/compilers/common/time.c:127:38
	ldr	r2, [r1, #16]
	.loc	1 127 25                        @ rt-thread/components/libc/compilers/common/time.c:127:25
	movw	r1, :lower16:__spm
	movt	r1, :upper16:__spm
	add.w	r1, r1, r2, lsl #1
	ldrsh.w	r1, [r1, #2]
	.loc	1 127 5                         @ rt-thread/components/libc/compilers/common/time.c:127:5
	cmp	r0, r1
	ble	.LBB5_16
	b	.LBB5_10
.LBB5_10:                               @   in Loop: Header=BB5_9 Depth=1
.Ltmp44:
	.loc	1 129 13 is_stmt 1              @ rt-thread/components/libc/compilers/common/time.c:129:13
	ldr	r0, [sp, #16]
	.loc	1 129 16 is_stmt 0              @ rt-thread/components/libc/compilers/common/time.c:129:16
	ldr	r0, [r0, #16]
	.loc	1 129 28                        @ rt-thread/components/libc/compilers/common/time.c:129:28
	cmp	r0, #1
	bne	.LBB5_13
	b	.LBB5_11
.LBB5_11:                               @   in Loop: Header=BB5_9 Depth=1
	.loc	1 129 40                        @ rt-thread/components/libc/compilers/common/time.c:129:40
	ldr	r0, [sp, #16]
	.loc	1 129 43                        @ rt-thread/components/libc/compilers/common/time.c:129:43
	ldr	r0, [r0, #20]
	.loc	1 129 51                        @ rt-thread/components/libc/compilers/common/time.c:129:51
	addw	r0, r0, #1900
	.loc	1 129 31                        @ rt-thread/components/libc/compilers/common/time.c:129:31
	bl	__isleap
.Ltmp45:
	.loc	1 129 13                        @ rt-thread/components/libc/compilers/common/time.c:129:13
	cbz	r0, .LBB5_13
	b	.LBB5_12
.LBB5_12:                               @   in Loop: Header=BB5_9 Depth=1
.Ltmp46:
	.loc	1 131 15 is_stmt 1              @ rt-thread/components/libc/compilers/common/time.c:131:15
	ldr	r1, [sp, #16]
	.loc	1 131 13 is_stmt 0              @ rt-thread/components/libc/compilers/common/time.c:131:13
	ldr	r0, [r1, #12]
	subs	r0, #1
	str	r0, [r1, #12]
	.loc	1 132 9 is_stmt 1               @ rt-thread/components/libc/compilers/common/time.c:132:9
	b	.LBB5_13
.Ltmp47:
.LBB5_13:                               @   in Loop: Header=BB5_9 Depth=1
	.loc	1 133 29                        @ rt-thread/components/libc/compilers/common/time.c:133:29
	ldr	r1, [sp, #16]
	.loc	1 133 20 is_stmt 0              @ rt-thread/components/libc/compilers/common/time.c:133:20
	ldr	r0, [r1, #12]
	.loc	1 133 32                        @ rt-thread/components/libc/compilers/common/time.c:133:32
	ldr	r3, [r1, #16]
	.loc	1 133 23                        @ rt-thread/components/libc/compilers/common/time.c:133:23
	movw	r2, :lower16:__spm
	movt	r2, :upper16:__spm
	ldrsh.w	r2, [r2, r3, lsl #1]
	.loc	1 133 20                        @ rt-thread/components/libc/compilers/common/time.c:133:20
	subs	r0, r0, r2
	str	r0, [r1, #12]
	.loc	1 134 11 is_stmt 1              @ rt-thread/components/libc/compilers/common/time.c:134:11
	ldr	r1, [sp, #16]
	.loc	1 134 9 is_stmt 0               @ rt-thread/components/libc/compilers/common/time.c:134:9
	ldr	r0, [r1, #16]
	adds	r0, #1
	str	r0, [r1, #16]
.Ltmp48:
	.loc	1 135 13 is_stmt 1              @ rt-thread/components/libc/compilers/common/time.c:135:13
	ldr	r0, [sp, #16]
	.loc	1 135 16 is_stmt 0              @ rt-thread/components/libc/compilers/common/time.c:135:16
	ldr	r0, [r0, #16]
.Ltmp49:
	.loc	1 135 13                        @ rt-thread/components/libc/compilers/common/time.c:135:13
	cmp	r0, #12
	blt	.LBB5_15
	b	.LBB5_14
.LBB5_14:                               @   in Loop: Header=BB5_9 Depth=1
.Ltmp50:
	.loc	1 137 13 is_stmt 1              @ rt-thread/components/libc/compilers/common/time.c:137:13
	ldr	r1, [sp, #16]
	movs	r0, #0
	.loc	1 137 23 is_stmt 0              @ rt-thread/components/libc/compilers/common/time.c:137:23
	str	r0, [r1, #16]
	.loc	1 138 15 is_stmt 1              @ rt-thread/components/libc/compilers/common/time.c:138:15
	ldr	r1, [sp, #16]
	.loc	1 138 13 is_stmt 0              @ rt-thread/components/libc/compilers/common/time.c:138:13
	ldr	r0, [r1, #20]
	adds	r0, #1
	str	r0, [r1, #20]
	.loc	1 139 9 is_stmt 1               @ rt-thread/components/libc/compilers/common/time.c:139:9
	b	.LBB5_15
.Ltmp51:
.LBB5_15:                               @   in Loop: Header=BB5_9 Depth=1
	.loc	1 127 5                         @ rt-thread/components/libc/compilers/common/time.c:127:5
	b	.LBB5_9
.LBB5_16:
.Ltmp52:
	.loc	1 142 9                         @ rt-thread/components/libc/compilers/common/time.c:142:9
	ldr	r0, [sp, #16]
	.loc	1 142 12 is_stmt 0              @ rt-thread/components/libc/compilers/common/time.c:142:12
	ldr	r0, [r0, #20]
.Ltmp53:
	.loc	1 142 9                         @ rt-thread/components/libc/compilers/common/time.c:142:9
	cmp	r0, #69
	bgt	.LBB5_18
	b	.LBB5_17
.LBB5_17:
	.loc	1 0 9                           @ rt-thread/components/libc/compilers/common/time.c:0:9
	mov.w	r0, #-1
.Ltmp54:
	.loc	1 143 9 is_stmt 1               @ rt-thread/components/libc/compilers/common/time.c:143:9
	str	r0, [sp, #20]
	b	.LBB5_23
.Ltmp55:
.LBB5_18:
	.loc	1 146 11                        @ rt-thread/components/libc/compilers/common/time.c:146:11
	ldr	r1, [sp, #4]
	movw	r0, #365
	.loc	1 146 17 is_stmt 0              @ rt-thread/components/libc/compilers/common/time.c:146:17
	muls	r0, r1, r0
	.loc	1 146 32                        @ rt-thread/components/libc/compilers/common/time.c:146:32
	adds	r1, #1
	.loc	1 146 23                        @ rt-thread/components/libc/compilers/common/time.c:146:23
	add.w	r0, r0, r1, lsr #2
	.loc	1 146 9                         @ rt-thread/components/libc/compilers/common/time.c:146:9
	str	r0, [sp, #12]
.Ltmp56:
	.loc	1 152 9 is_stmt 1               @ rt-thread/components/libc/compilers/common/time.c:152:9
	ldr	r0, [sp, #4]
.Ltmp57:
	.loc	1 152 9 is_stmt 0               @ rt-thread/components/libc/compilers/common/time.c:152:9
	cmp	r0, #131
	blo	.LBB5_22
	b	.LBB5_19
.LBB5_19:
.Ltmp58:
	.loc	1 154 15 is_stmt 1              @ rt-thread/components/libc/compilers/common/time.c:154:15
	ldr	r0, [sp, #4]
	subs	r0, #131
	str	r0, [sp, #4]
	.loc	1 155 15                        @ rt-thread/components/libc/compilers/common/time.c:155:15
	ldr	r0, [sp, #4]
	movw	r1, #34079
	movt	r1, #20971
	umull	r1, r0, r0, r1
	lsrs	r0, r0, #5
	str	r0, [sp, #4]
	.loc	1 156 17                        @ rt-thread/components/libc/compilers/common/time.c:156:17
	ldr	r0, [sp, #4]
	.loc	1 156 23 is_stmt 0              @ rt-thread/components/libc/compilers/common/time.c:156:23
	lsrs	r0, r0, #2
	.loc	1 156 29                        @ rt-thread/components/libc/compilers/common/time.c:156:29
	add.w	r0, r0, r0, lsl #1
	.loc	1 156 13                        @ rt-thread/components/libc/compilers/common/time.c:156:13
	ldr	r1, [sp, #12]
	mvns	r0, r0
	add	r0, r1
	str	r0, [sp, #12]
.Ltmp59:
	.loc	1 157 20 is_stmt 1              @ rt-thread/components/libc/compilers/common/time.c:157:20
	ldr	r0, [sp, #4]
	and	r0, r0, #3
	str	r0, [sp, #4]
.Ltmp60:
	.loc	1 157 13 is_stmt 0              @ rt-thread/components/libc/compilers/common/time.c:157:13
	cmp	r0, #3
	bne	.LBB5_21
	b	.LBB5_20
.LBB5_20:
.Ltmp61:
	.loc	1 158 18 is_stmt 1              @ rt-thread/components/libc/compilers/common/time.c:158:18
	ldr	r0, [sp, #4]
	subs	r0, #1
	str	r0, [sp, #4]
	.loc	1 158 13 is_stmt 0              @ rt-thread/components/libc/compilers/common/time.c:158:13
	b	.LBB5_21
.Ltmp62:
.LBB5_21:
	.loc	1 159 16 is_stmt 1              @ rt-thread/components/libc/compilers/common/time.c:159:16
	ldr	r1, [sp, #4]
	.loc	1 159 13 is_stmt 0              @ rt-thread/components/libc/compilers/common/time.c:159:13
	ldr	r0, [sp, #12]
	subs	r0, r0, r1
	str	r0, [sp, #12]
	.loc	1 160 5 is_stmt 1               @ rt-thread/components/libc/compilers/common/time.c:160:5
	b	.LBB5_22
.Ltmp63:
.LBB5_22:
	.loc	1 162 31                        @ rt-thread/components/libc/compilers/common/time.c:162:31
	ldr	r0, [sp, #16]
	.loc	1 162 25 is_stmt 0              @ rt-thread/components/libc/compilers/common/time.c:162:25
	movw	r1, :lower16:__spm
	movt	r1, :upper16:__spm
	.loc	1 162 47                        @ rt-thread/components/libc/compilers/common/time.c:162:47
	ldr	r2, [r0, #12]
	.loc	1 162 34                        @ rt-thread/components/libc/compilers/common/time.c:162:34
	ldr	r3, [r0, #16]
	.loc	1 163 38 is_stmt 1              @ rt-thread/components/libc/compilers/common/time.c:163:38
	ldr	r0, [r0, #20]
	.loc	1 162 25                        @ rt-thread/components/libc/compilers/common/time.c:162:25
	ldrsh.w	r1, [r1, r3, lsl #1]
	.loc	1 162 42 is_stmt 0              @ rt-thread/components/libc/compilers/common/time.c:162:42
	add	r1, r2
	.loc	1 163 46 is_stmt 1              @ rt-thread/components/libc/compilers/common/time.c:163:46
	str	r1, [sp]                        @ 4-byte Spill
	addw	r0, r0, #1900
	.loc	1 163 26 is_stmt 0              @ rt-thread/components/libc/compilers/common/time.c:163:26
	bl	__isleap
	ldr	r1, [sp]                        @ 4-byte Reload
	mov	r2, r0
	.loc	1 163 57                        @ rt-thread/components/libc/compilers/common/time.c:163:57
	ldr	r0, [sp, #16]
	.loc	1 163 60                        @ rt-thread/components/libc/compilers/common/time.c:163:60
	ldr.w	r12, [r0, #16]
	movs	r3, #0
	.loc	1 163 67                        @ rt-thread/components/libc/compilers/common/time.c:163:67
	cmp.w	r12, #1
	it	gt
	movgt	r3, #1
	.loc	1 163 54                        @ rt-thread/components/libc/compilers/common/time.c:163:54
	ands	r2, r3
	.loc	1 162 59 is_stmt 1              @ rt-thread/components/libc/compilers/common/time.c:162:59
	add	r1, r2
	subs	r1, #1
	.loc	1 162 23 is_stmt 0              @ rt-thread/components/libc/compilers/common/time.c:162:23
	str	r1, [r0, #28]
	.loc	1 162 9                         @ rt-thread/components/libc/compilers/common/time.c:162:9
	ldr	r0, [sp, #12]
	add	r0, r1
	str	r0, [sp, #12]
	movs	r0, #7
	.loc	1 166 7 is_stmt 1               @ rt-thread/components/libc/compilers/common/time.c:166:7
	str	r0, [sp, #8]
	.loc	1 167 19                        @ rt-thread/components/libc/compilers/common/time.c:167:19
	ldr	r0, [sp, #12]
	.loc	1 167 23 is_stmt 0              @ rt-thread/components/libc/compilers/common/time.c:167:23
	adds	r2, r0, #4
	.loc	1 167 30                        @ rt-thread/components/libc/compilers/common/time.c:167:30
	ldr	r1, [sp, #8]
	.loc	1 167 28                        @ rt-thread/components/libc/compilers/common/time.c:167:28
	udiv	r0, r2, r1
	mls	r0, r0, r1, r2
	.loc	1 167 5                         @ rt-thread/components/libc/compilers/common/time.c:167:5
	ldr	r1, [sp, #16]
	.loc	1 167 16                        @ rt-thread/components/libc/compilers/common/time.c:167:16
	str	r0, [r1, #24]
	movs	r0, #24
	.loc	1 169 7 is_stmt 1               @ rt-thread/components/libc/compilers/common/time.c:169:7
	str	r0, [sp, #8]
	.loc	1 170 12                        @ rt-thread/components/libc/compilers/common/time.c:170:12
	ldr	r1, [sp, #8]
	.loc	1 170 9 is_stmt 0               @ rt-thread/components/libc/compilers/common/time.c:170:9
	ldr	r0, [sp, #12]
	muls	r0, r1, r0
	str	r0, [sp, #12]
	movs	r0, #60
	.loc	1 171 7 is_stmt 1               @ rt-thread/components/libc/compilers/common/time.c:171:7
	str	r0, [sp, #8]
	.loc	1 172 14                        @ rt-thread/components/libc/compilers/common/time.c:172:14
	ldr	r0, [sp, #12]
	.loc	1 172 20 is_stmt 0              @ rt-thread/components/libc/compilers/common/time.c:172:20
	ldr	r1, [sp, #16]
	.loc	1 172 58                        @ rt-thread/components/libc/compilers/common/time.c:172:58
	ldr	r2, [r1]
	.loc	1 172 41                        @ rt-thread/components/libc/compilers/common/time.c:172:41
	ldr	r3, [r1, #4]
	.loc	1 172 23                        @ rt-thread/components/libc/compilers/common/time.c:172:23
	ldr	r1, [r1, #8]
	.loc	1 172 18                        @ rt-thread/components/libc/compilers/common/time.c:172:18
	add	r0, r1
	.loc	1 172 34                        @ rt-thread/components/libc/compilers/common/time.c:172:34
	ldr	r1, [sp, #8]
	.loc	1 172 36                        @ rt-thread/components/libc/compilers/common/time.c:172:36
	mla	r0, r0, r1, r3
	.loc	1 172 53                        @ rt-thread/components/libc/compilers/common/time.c:172:53
	mla	r0, r0, r1, r2
	.loc	1 172 5                         @ rt-thread/components/libc/compilers/common/time.c:172:5
	str	r0, [sp, #20]
	b	.LBB5_23
.LBB5_23:
	.loc	1 173 1 is_stmt 1               @ rt-thread/components/libc/compilers/common/time.c:173:1
	ldr	r0, [sp, #20]
	add	sp, #24
	pop	{r7, pc}
.Ltmp64:
.Lfunc_end5:
	.size	mktime, .Lfunc_end5-mktime
	.cfi_endproc
	.cantunwind
	.fnend
                                        @ -- End function
	.section	.text.asctime_r,"ax",%progbits
	.hidden	asctime_r                       @ -- Begin function asctime_r
	.globl	asctime_r
	.p2align	3
	.type	asctime_r,%function
	.code	16                              @ @asctime_r
	.thumb_func
asctime_r:
.Lfunc_begin6:
	.loc	1 182 0                         @ rt-thread/components/libc/compilers/common/time.c:182:0
	.fnstart
	.cfi_startproc
@ %bb.0:
	.save	{r7, lr}
	push	{r7, lr}
	.cfi_def_cfa_offset 8
	.cfi_offset lr, -4
	.cfi_offset r7, -8
	.pad	#24
	sub	sp, #24
	.cfi_def_cfa_offset 32
	str	r0, [sp, #20]
	str	r1, [sp, #16]
.Ltmp65:
	.loc	1 184 36 prologue_end           @ rt-thread/components/libc/compilers/common/time.c:184:36
	ldr	r0, [sp, #20]
	.loc	1 184 39 is_stmt 0              @ rt-thread/components/libc/compilers/common/time.c:184:39
	ldr	r1, [r0, #24]
	.loc	1 184 33                        @ rt-thread/components/libc/compilers/common/time.c:184:33
	movw	r0, :lower16:days
	movt	r0, :upper16:days
	.loc	1 184 19                        @ rt-thread/components/libc/compilers/common/time.c:184:19
	ldr.w	r0, [r0, r1, lsl #2]
	.loc	1 184 13                        @ rt-thread/components/libc/compilers/common/time.c:184:13
	ldr	r1, [sp, #16]
	.loc	1 184 17                        @ rt-thread/components/libc/compilers/common/time.c:184:17
	str	r0, [r1]
	.loc	1 185 44 is_stmt 1              @ rt-thread/components/libc/compilers/common/time.c:185:44
	ldr	r0, [sp, #20]
	.loc	1 185 47 is_stmt 0              @ rt-thread/components/libc/compilers/common/time.c:185:47
	ldr	r1, [r0, #16]
	.loc	1 185 41                        @ rt-thread/components/libc/compilers/common/time.c:185:41
	movw	r0, :lower16:months
	movt	r0, :upper16:months
	.loc	1 185 25                        @ rt-thread/components/libc/compilers/common/time.c:185:25
	ldr.w	r0, [r0, r1, lsl #2]
	.loc	1 185 14                        @ rt-thread/components/libc/compilers/common/time.c:185:14
	ldr	r1, [sp, #16]
	.loc	1 185 23                        @ rt-thread/components/libc/compilers/common/time.c:185:23
	str	r0, [r1, #4]
	.loc	1 186 13 is_stmt 1              @ rt-thread/components/libc/compilers/common/time.c:186:13
	ldr	r0, [sp, #16]
	.loc	1 186 17 is_stmt 0              @ rt-thread/components/libc/compilers/common/time.c:186:17
	adds	r0, #8
	.loc	1 186 22                        @ rt-thread/components/libc/compilers/common/time.c:186:22
	ldr	r1, [sp, #20]
	.loc	1 186 25                        @ rt-thread/components/libc/compilers/common/time.c:186:25
	ldr	r1, [r1, #12]
	.loc	1 186 5                         @ rt-thread/components/libc/compilers/common/time.c:186:5
	bl	num2str
.Ltmp66:
	.loc	1 187 9 is_stmt 1               @ rt-thread/components/libc/compilers/common/time.c:187:9
	ldr	r0, [sp, #16]
	ldrsb.w	r0, [r0, #8]
.Ltmp67:
	.loc	1 187 9 is_stmt 0               @ rt-thread/components/libc/compilers/common/time.c:187:9
	cmp	r0, #48
	bne	.LBB6_2
	b	.LBB6_1
.LBB6_1:
.Ltmp68:
	.loc	1 188 9 is_stmt 1               @ rt-thread/components/libc/compilers/common/time.c:188:9
	ldr	r1, [sp, #16]
	movs	r0, #32
	.loc	1 188 16 is_stmt 0              @ rt-thread/components/libc/compilers/common/time.c:188:16
	strb	r0, [r1, #8]
	.loc	1 188 9                         @ rt-thread/components/libc/compilers/common/time.c:188:9
	b	.LBB6_2
.Ltmp69:
.LBB6_2:
	.loc	1 189 5 is_stmt 1               @ rt-thread/components/libc/compilers/common/time.c:189:5
	ldr	r1, [sp, #16]
	movs	r0, #32
	.loc	1 189 13 is_stmt 0              @ rt-thread/components/libc/compilers/common/time.c:189:13
	str	r0, [sp, #8]                    @ 4-byte Spill
	strb	r0, [r1, #10]
	.loc	1 190 13 is_stmt 1              @ rt-thread/components/libc/compilers/common/time.c:190:13
	ldr	r0, [sp, #16]
	.loc	1 190 17 is_stmt 0              @ rt-thread/components/libc/compilers/common/time.c:190:17
	adds	r0, #11
	.loc	1 190 23                        @ rt-thread/components/libc/compilers/common/time.c:190:23
	ldr	r1, [sp, #20]
	.loc	1 190 26                        @ rt-thread/components/libc/compilers/common/time.c:190:26
	ldr	r1, [r1, #8]
	.loc	1 190 5                         @ rt-thread/components/libc/compilers/common/time.c:190:5
	bl	num2str
	.loc	1 191 5 is_stmt 1               @ rt-thread/components/libc/compilers/common/time.c:191:5
	ldr	r1, [sp, #16]
	movs	r0, #58
	.loc	1 191 13 is_stmt 0              @ rt-thread/components/libc/compilers/common/time.c:191:13
	str	r0, [sp, #4]                    @ 4-byte Spill
	strb	r0, [r1, #13]
	.loc	1 192 13 is_stmt 1              @ rt-thread/components/libc/compilers/common/time.c:192:13
	ldr	r0, [sp, #16]
	.loc	1 192 17 is_stmt 0              @ rt-thread/components/libc/compilers/common/time.c:192:17
	adds	r0, #14
	.loc	1 192 23                        @ rt-thread/components/libc/compilers/common/time.c:192:23
	ldr	r1, [sp, #20]
	.loc	1 192 26                        @ rt-thread/components/libc/compilers/common/time.c:192:26
	ldr	r1, [r1, #4]
	.loc	1 192 5                         @ rt-thread/components/libc/compilers/common/time.c:192:5
	bl	num2str
	ldr	r0, [sp, #4]                    @ 4-byte Reload
	.loc	1 193 5 is_stmt 1               @ rt-thread/components/libc/compilers/common/time.c:193:5
	ldr	r1, [sp, #16]
	.loc	1 193 13 is_stmt 0              @ rt-thread/components/libc/compilers/common/time.c:193:13
	strb	r0, [r1, #16]
	.loc	1 194 13 is_stmt 1              @ rt-thread/components/libc/compilers/common/time.c:194:13
	ldr	r0, [sp, #16]
	.loc	1 194 17 is_stmt 0              @ rt-thread/components/libc/compilers/common/time.c:194:17
	adds	r0, #17
	.loc	1 194 23                        @ rt-thread/components/libc/compilers/common/time.c:194:23
	ldr	r1, [sp, #20]
	.loc	1 194 26                        @ rt-thread/components/libc/compilers/common/time.c:194:26
	ldr	r1, [r1]
	.loc	1 194 5                         @ rt-thread/components/libc/compilers/common/time.c:194:5
	bl	num2str
	ldr	r0, [sp, #8]                    @ 4-byte Reload
	.loc	1 195 5 is_stmt 1               @ rt-thread/components/libc/compilers/common/time.c:195:5
	ldr	r1, [sp, #16]
	.loc	1 195 13 is_stmt 0              @ rt-thread/components/libc/compilers/common/time.c:195:13
	strb	r0, [r1, #19]
	.loc	1 196 13 is_stmt 1              @ rt-thread/components/libc/compilers/common/time.c:196:13
	ldr	r0, [sp, #16]
	.loc	1 196 17 is_stmt 0              @ rt-thread/components/libc/compilers/common/time.c:196:17
	adds	r0, #20
	.loc	1 196 24                        @ rt-thread/components/libc/compilers/common/time.c:196:24
	ldr	r1, [sp, #20]
	.loc	1 196 27                        @ rt-thread/components/libc/compilers/common/time.c:196:27
	ldr	r1, [r1, #20]
	.loc	1 196 35                        @ rt-thread/components/libc/compilers/common/time.c:196:35
	addw	r1, r1, #1900
	movw	r2, #34079
	movt	r2, #20971
	.loc	1 196 43                        @ rt-thread/components/libc/compilers/common/time.c:196:43
	str	r2, [sp, #12]                   @ 4-byte Spill
	smmul	r2, r1, r2
	asrs	r1, r2, #5
	add.w	r1, r1, r2, lsr #31
	.loc	1 196 5                         @ rt-thread/components/libc/compilers/common/time.c:196:5
	bl	num2str
	ldr	r1, [sp, #12]                   @ 4-byte Reload
	.loc	1 197 13 is_stmt 1              @ rt-thread/components/libc/compilers/common/time.c:197:13
	ldr	r0, [sp, #16]
	.loc	1 197 17 is_stmt 0              @ rt-thread/components/libc/compilers/common/time.c:197:17
	adds	r0, #22
	.loc	1 197 24                        @ rt-thread/components/libc/compilers/common/time.c:197:24
	ldr	r2, [sp, #20]
	.loc	1 197 27                        @ rt-thread/components/libc/compilers/common/time.c:197:27
	ldr	r2, [r2, #20]
	.loc	1 197 35                        @ rt-thread/components/libc/compilers/common/time.c:197:35
	addw	r3, r2, #1900
	.loc	1 197 43                        @ rt-thread/components/libc/compilers/common/time.c:197:43
	smmul	r2, r3, r1
	asrs	r1, r2, #5
	add.w	r1, r1, r2, lsr #31
	movs	r2, #100
	mls	r1, r1, r2, r3
	.loc	1 197 5                         @ rt-thread/components/libc/compilers/common/time.c:197:5
	bl	num2str
	.loc	1 198 5 is_stmt 1               @ rt-thread/components/libc/compilers/common/time.c:198:5
	ldr	r1, [sp, #16]
	movs	r0, #10
	.loc	1 198 13 is_stmt 0              @ rt-thread/components/libc/compilers/common/time.c:198:13
	strb	r0, [r1, #24]
	.loc	1 199 12 is_stmt 1              @ rt-thread/components/libc/compilers/common/time.c:199:12
	ldr	r0, [sp, #16]
	.loc	1 199 5 is_stmt 0               @ rt-thread/components/libc/compilers/common/time.c:199:5
	add	sp, #24
	pop	{r7, pc}
.Ltmp70:
.Lfunc_end6:
	.size	asctime_r, .Lfunc_end6-asctime_r
	.cfi_endproc
	.cantunwind
	.fnend
                                        @ -- End function
	.section	.text.num2str,"ax",%progbits
	.p2align	3                               @ -- Begin function num2str
	.type	num2str,%function
	.code	16                              @ @num2str
	.thumb_func
num2str:
.Lfunc_begin7:
	.loc	1 176 0 is_stmt 1               @ rt-thread/components/libc/compilers/common/time.c:176:0
	.fnstart
	.cfi_startproc
@ %bb.0:
	.pad	#8
	sub	sp, #8
	.cfi_def_cfa_offset 8
	str	r0, [sp, #4]
	str	r1, [sp]
.Ltmp71:
	.loc	1 177 12 prologue_end           @ rt-thread/components/libc/compilers/common/time.c:177:12
	ldr	r0, [sp]
	movw	r1, #26215
	movt	r1, #26214
	.loc	1 177 14 is_stmt 0              @ rt-thread/components/libc/compilers/common/time.c:177:14
	smmul	r2, r0, r1
	lsrs	r0, r2, #2
	add.w	r0, r0, r2, lsr #31
	.loc	1 177 19                        @ rt-thread/components/libc/compilers/common/time.c:177:19
	adds	r0, #48
	.loc	1 177 5                         @ rt-thread/components/libc/compilers/common/time.c:177:5
	ldr	r2, [sp, #4]
	.loc	1 177 10                        @ rt-thread/components/libc/compilers/common/time.c:177:10
	strb	r0, [r2]
	.loc	1 178 12 is_stmt 1              @ rt-thread/components/libc/compilers/common/time.c:178:12
	ldr	r0, [sp]
	.loc	1 178 14 is_stmt 0              @ rt-thread/components/libc/compilers/common/time.c:178:14
	smmul	r2, r0, r1
	lsrs	r1, r2, #2
	add.w	r1, r1, r2, lsr #31
	add.w	r1, r1, r1, lsl #2
	sub.w	r0, r0, r1, lsl #1
	.loc	1 178 19                        @ rt-thread/components/libc/compilers/common/time.c:178:19
	adds	r0, #48
	.loc	1 178 5                         @ rt-thread/components/libc/compilers/common/time.c:178:5
	ldr	r1, [sp, #4]
	.loc	1 178 10                        @ rt-thread/components/libc/compilers/common/time.c:178:10
	strb	r0, [r1, #1]
	.loc	1 179 1 is_stmt 1               @ rt-thread/components/libc/compilers/common/time.c:179:1
	add	sp, #8
	bx	lr
.Ltmp72:
.Lfunc_end7:
	.size	num2str, .Lfunc_end7-num2str
	.cfi_endproc
	.cantunwind
	.fnend
                                        @ -- End function
	.section	.text.asctime,"ax",%progbits
	.hidden	asctime                         @ -- Begin function asctime
	.globl	asctime
	.p2align	3
	.type	asctime,%function
	.code	16                              @ @asctime
	.thumb_func
asctime:
.Lfunc_begin8:
	.loc	1 203 0                         @ rt-thread/components/libc/compilers/common/time.c:203:0
	.fnstart
	.cfi_startproc
@ %bb.0:
	.save	{r7, lr}
	push	{r7, lr}
	.cfi_def_cfa_offset 8
	.cfi_offset lr, -4
	.cfi_offset r7, -8
	.pad	#8
	sub	sp, #8
	.cfi_def_cfa_offset 16
	str	r0, [sp, #4]
.Ltmp73:
	.loc	1 205 22 prologue_end           @ rt-thread/components/libc/compilers/common/time.c:205:22
	ldr	r0, [sp, #4]
	.loc	1 205 12 is_stmt 0              @ rt-thread/components/libc/compilers/common/time.c:205:12
	movw	r1, :lower16:asctime.buf
	movt	r1, :upper16:asctime.buf
	bl	asctime_r
	.loc	1 205 5                         @ rt-thread/components/libc/compilers/common/time.c:205:5
	add	sp, #8
	pop	{r7, pc}
.Ltmp74:
.Lfunc_end8:
	.size	asctime, .Lfunc_end8-asctime
	.cfi_endproc
	.cantunwind
	.fnend
                                        @ -- End function
	.section	.text.ctime,"ax",%progbits
	.hidden	ctime                           @ -- Begin function ctime
	.globl	ctime
	.p2align	3
	.type	ctime,%function
	.code	16                              @ @ctime
	.thumb_func
ctime:
.Lfunc_begin9:
	.loc	1 209 0 is_stmt 1               @ rt-thread/components/libc/compilers/common/time.c:209:0
	.fnstart
	.cfi_startproc
@ %bb.0:
	.save	{r7, lr}
	push	{r7, lr}
	.cfi_def_cfa_offset 8
	.cfi_offset lr, -4
	.cfi_offset r7, -8
	.pad	#8
	sub	sp, #8
	.cfi_def_cfa_offset 16
	str	r0, [sp, #4]
.Ltmp75:
	.loc	1 210 30 prologue_end           @ rt-thread/components/libc/compilers/common/time.c:210:30
	ldr	r0, [sp, #4]
	.loc	1 210 20 is_stmt 0              @ rt-thread/components/libc/compilers/common/time.c:210:20
	bl	localtime
	.loc	1 210 12                        @ rt-thread/components/libc/compilers/common/time.c:210:12
	bl	asctime
	.loc	1 210 5                         @ rt-thread/components/libc/compilers/common/time.c:210:5
	add	sp, #8
	pop	{r7, pc}
.Ltmp76:
.Lfunc_end9:
	.size	ctime, .Lfunc_end9-ctime
	.cfi_endproc
	.cantunwind
	.fnend
                                        @ -- End function
	.section	.text.gettimeofday,"ax",%progbits
	.hidden	gettimeofday                    @ -- Begin function gettimeofday
	.globl	gettimeofday
	.p2align	3
	.type	gettimeofday,%function
	.code	16                              @ @gettimeofday
	.thumb_func
gettimeofday:
.Lfunc_begin10:
	.loc	1 216 0 is_stmt 1               @ rt-thread/components/libc/compilers/common/time.c:216:0
	.fnstart
	.cfi_startproc
@ %bb.0:
	.save	{r7, lr}
	push	{r7, lr}
	.cfi_def_cfa_offset 8
	.cfi_offset lr, -4
	.cfi_offset r7, -8
	.pad	#16
	sub	sp, #16
	.cfi_def_cfa_offset 24
	str	r0, [sp, #12]
	str	r1, [sp, #8]
	movs	r0, #0
.Ltmp77:
	.loc	1 217 12 prologue_end           @ rt-thread/components/libc/compilers/common/time.c:217:12
	str	r0, [sp, #4]
	.loc	1 220 14                        @ rt-thread/components/libc/compilers/common/time.c:220:14
	movw	r0, :lower16:.L.str
	movt	r0, :upper16:.L.str
	bl	rt_device_find
	.loc	1 220 12 is_stmt 0              @ rt-thread/components/libc/compilers/common/time.c:220:12
	str	r0, [sp]
.Ltmp78:
	.loc	1 221 5 is_stmt 1               @ rt-thread/components/libc/compilers/common/time.c:221:5
	ldr	r0, [sp]
.Ltmp79:
	.loc	1 221 5 is_stmt 0               @ rt-thread/components/libc/compilers/common/time.c:221:5
	cbnz	r0, .LBB10_2
	b	.LBB10_1
.LBB10_1:
.Ltmp80:
	.loc	1 221 5                         @ rt-thread/components/libc/compilers/common/time.c:221:5
	movw	r0, :lower16:.L.str.1
	movt	r0, :upper16:.L.str.1
	movw	r1, :lower16:.L__FUNCTION__.gettimeofday
	movt	r1, :upper16:.L__FUNCTION__.gettimeofday
	movs	r2, #221
	bl	rt_assert_handler
	b	.LBB10_2
.Ltmp81:
.LBB10_2:
	.loc	1 222 23 is_stmt 1              @ rt-thread/components/libc/compilers/common/time.c:222:23
	ldr	r0, [sp]
	movs	r1, #16
	add	r2, sp, #4
	.loc	1 222 5 is_stmt 0               @ rt-thread/components/libc/compilers/common/time.c:222:5
	bl	rt_device_control
.Ltmp82:
	.loc	1 223 9 is_stmt 1               @ rt-thread/components/libc/compilers/common/time.c:223:9
	ldr	r0, [sp, #12]
.Ltmp83:
	.loc	1 223 9 is_stmt 0               @ rt-thread/components/libc/compilers/common/time.c:223:9
	cbz	r0, .LBB10_4
	b	.LBB10_3
.LBB10_3:
.Ltmp84:
	.loc	1 225 22 is_stmt 1              @ rt-thread/components/libc/compilers/common/time.c:225:22
	ldr	r0, [sp, #4]
	.loc	1 225 9 is_stmt 0               @ rt-thread/components/libc/compilers/common/time.c:225:9
	ldr	r1, [sp, #12]
	.loc	1 225 20                        @ rt-thread/components/libc/compilers/common/time.c:225:20
	str	r0, [r1]
	.loc	1 226 9 is_stmt 1               @ rt-thread/components/libc/compilers/common/time.c:226:9
	ldr	r1, [sp, #12]
	movs	r0, #0
	.loc	1 226 21 is_stmt 0              @ rt-thread/components/libc/compilers/common/time.c:226:21
	str	r0, [r1, #4]
	.loc	1 227 5 is_stmt 1               @ rt-thread/components/libc/compilers/common/time.c:227:5
	b	.LBB10_4
.Ltmp85:
.LBB10_4:
	.loc	1 233 12                        @ rt-thread/components/libc/compilers/common/time.c:233:12
	ldr	r0, [sp, #4]
	.loc	1 233 5 is_stmt 0               @ rt-thread/components/libc/compilers/common/time.c:233:5
	add	sp, #16
	pop	{r7, pc}
.Ltmp86:
.Lfunc_end10:
	.size	gettimeofday, .Lfunc_end10-gettimeofday
	.cfi_endproc
	.cantunwind
	.fnend
                                        @ -- End function
	.section	.text.time,"ax",%progbits
	.hidden	time                            @ -- Begin function time
	.globl	time
	.p2align	3
	.type	time,%function
	.code	16                              @ @time
	.thumb_func
time:
.Lfunc_begin11:
	.loc	1 256 0 is_stmt 1               @ rt-thread/components/libc/compilers/common/time.c:256:0
	.fnstart
	.cfi_startproc
@ %bb.0:
	.save	{r7, lr}
	push	{r7, lr}
	.cfi_def_cfa_offset 8
	.cfi_offset lr, -4
	.cfi_offset r7, -8
	.pad	#16
	sub	sp, #16
	.cfi_def_cfa_offset 24
	str	r0, [sp, #12]
	movs	r0, #0
.Ltmp87:
	.loc	1 257 12 prologue_end           @ rt-thread/components/libc/compilers/common/time.c:257:12
	str	r0, [sp, #8]
.Ltmp88:
	.loc	1 263 9                         @ rt-thread/components/libc/compilers/common/time.c:263:9
	movw	r0, :lower16:time.device
	movt	r0, :upper16:time.device
	ldr	r0, [r0]
.Ltmp89:
	.loc	1 263 9 is_stmt 0               @ rt-thread/components/libc/compilers/common/time.c:263:9
	cbnz	r0, .LBB11_2
	b	.LBB11_1
.LBB11_1:
.Ltmp90:
	.loc	1 265 18 is_stmt 1              @ rt-thread/components/libc/compilers/common/time.c:265:18
	movw	r0, :lower16:.L.str
	movt	r0, :upper16:.L.str
	bl	rt_device_find
	.loc	1 265 16 is_stmt 0              @ rt-thread/components/libc/compilers/common/time.c:265:16
	movw	r1, :lower16:time.device
	movt	r1, :upper16:time.device
	str	r0, [r1]
	.loc	1 266 5 is_stmt 1               @ rt-thread/components/libc/compilers/common/time.c:266:5
	b	.LBB11_2
.Ltmp91:
.LBB11_2:
	.loc	1 269 9                         @ rt-thread/components/libc/compilers/common/time.c:269:9
	movw	r0, :lower16:time.device
	movt	r0, :upper16:time.device
	ldr	r0, [r0]
.Ltmp92:
	.loc	1 269 9 is_stmt 0               @ rt-thread/components/libc/compilers/common/time.c:269:9
	cbz	r0, .LBB11_6
	b	.LBB11_3
.LBB11_3:
.Ltmp93:
	.loc	1 271 28 is_stmt 1              @ rt-thread/components/libc/compilers/common/time.c:271:28
	movw	r0, :lower16:time.device
	movt	r0, :upper16:time.device
	ldr	r0, [r0]
	movs	r1, #0
	.loc	1 271 13 is_stmt 0              @ rt-thread/components/libc/compilers/common/time.c:271:13
	bl	rt_device_open
.Ltmp94:
	.loc	1 271 13                        @ rt-thread/components/libc/compilers/common/time.c:271:13
	cbnz	r0, .LBB11_5
	b	.LBB11_4
.LBB11_4:
.Ltmp95:
	.loc	1 273 31 is_stmt 1              @ rt-thread/components/libc/compilers/common/time.c:273:31
	movw	r0, :lower16:time.device
	movt	r0, :upper16:time.device
	str	r0, [sp, #4]                    @ 4-byte Spill
	ldr	r0, [r0]
	movs	r1, #16
	add	r2, sp, #8
	.loc	1 273 13 is_stmt 0              @ rt-thread/components/libc/compilers/common/time.c:273:13
	bl	rt_device_control
                                        @ kill: def $r1 killed $r0
	.loc	1 274 29 is_stmt 1              @ rt-thread/components/libc/compilers/common/time.c:274:29
	ldr	r0, [sp, #4]                    @ 4-byte Reload
	ldr	r0, [r0]
	.loc	1 274 13 is_stmt 0              @ rt-thread/components/libc/compilers/common/time.c:274:13
	bl	rt_device_close
	.loc	1 275 9 is_stmt 1               @ rt-thread/components/libc/compilers/common/time.c:275:9
	b	.LBB11_5
.Ltmp96:
.LBB11_5:
	.loc	1 276 5                         @ rt-thread/components/libc/compilers/common/time.c:276:5
	b	.LBB11_6
.Ltmp97:
.LBB11_6:
	.loc	1 280 9                         @ rt-thread/components/libc/compilers/common/time.c:280:9
	ldr	r0, [sp, #12]
.Ltmp98:
	.loc	1 280 9 is_stmt 0               @ rt-thread/components/libc/compilers/common/time.c:280:9
	cbz	r0, .LBB11_8
	b	.LBB11_7
.LBB11_7:
.Ltmp99:
	.loc	1 282 14 is_stmt 1              @ rt-thread/components/libc/compilers/common/time.c:282:14
	ldr	r0, [sp, #8]
	.loc	1 282 10 is_stmt 0              @ rt-thread/components/libc/compilers/common/time.c:282:10
	ldr	r1, [sp, #12]
	.loc	1 282 12                        @ rt-thread/components/libc/compilers/common/time.c:282:12
	str	r0, [r1]
	.loc	1 283 5 is_stmt 1               @ rt-thread/components/libc/compilers/common/time.c:283:5
	b	.LBB11_8
.Ltmp100:
.LBB11_8:
	.loc	1 285 12                        @ rt-thread/components/libc/compilers/common/time.c:285:12
	ldr	r0, [sp, #8]
	.loc	1 285 5 is_stmt 0               @ rt-thread/components/libc/compilers/common/time.c:285:5
	add	sp, #16
	pop	{r7, pc}
.Ltmp101:
.Lfunc_end11:
	.size	time, .Lfunc_end11-time
	.cfi_endproc
	.cantunwind
	.fnend
                                        @ -- End function
	.section	.text.clock,"ax",%progbits
	.hidden	clock                           @ -- Begin function clock
	.weak	clock
	.p2align	3
	.type	clock,%function
	.code	16                              @ @clock
	.thumb_func
clock:
.Lfunc_begin12:
	.loc	1 289 0 is_stmt 1               @ rt-thread/components/libc/compilers/common/time.c:289:0
	.fnstart
	.cfi_startproc
@ %bb.0:
	.save	{r7, lr}
	push	{r7, lr}
	.cfi_def_cfa_offset 8
	.cfi_offset lr, -4
	.cfi_offset r7, -8
.Ltmp102:
	.loc	1 290 12 prologue_end           @ rt-thread/components/libc/compilers/common/time.c:290:12
	bl	rt_tick_get
	.loc	1 290 5 is_stmt 0               @ rt-thread/components/libc/compilers/common/time.c:290:5
	pop	{r7, pc}
.Ltmp103:
.Lfunc_end12:
	.size	clock, .Lfunc_end12-clock
	.cfi_endproc
	.cantunwind
	.fnend
                                        @ -- End function
	.hidden	__spm                           @ @__spm
	.type	__spm,%object
	.section	.rodata.__spm,"a",%progbits
	.globl	__spm
	.p2align	1
__spm:
	.short	0                               @ 0x0
	.short	31                              @ 0x1f
	.short	59                              @ 0x3b
	.short	90                              @ 0x5a
	.short	120                             @ 0x78
	.short	151                             @ 0x97
	.short	181                             @ 0xb5
	.short	212                             @ 0xd4
	.short	243                             @ 0xf3
	.short	273                             @ 0x111
	.short	304                             @ 0x130
	.short	334                             @ 0x14e
	.short	365                             @ 0x16d
	.size	__spm, 26

	.type	gmtime.tmp,%object              @ @gmtime.tmp
	.section	.bss.gmtime.tmp,"aw",%nobits
	.p2align	2
gmtime.tmp:
	.zero	44
	.size	gmtime.tmp, 44

	.type	localtime.tmp,%object           @ @localtime.tmp
	.section	.bss.localtime.tmp,"aw",%nobits
	.p2align	2
localtime.tmp:
	.zero	44
	.size	localtime.tmp, 44

	.type	days,%object                    @ @days
	.section	.rodata.days,"a",%progbits
days:
	.asciz	"Sun Mon Tue Wed Thu Fri Sat "
	.size	days, 29

	.type	months,%object                  @ @months
	.section	.rodata.months,"a",%progbits
months:
	.asciz	"Jan Feb Mar Apr May Jun Jul Aug Sep Oct Nov Dec "
	.size	months, 49

	.type	asctime.buf,%object             @ @asctime.buf
	.section	.bss.asctime.buf,"aw",%nobits
asctime.buf:
	.zero	25
	.size	asctime.buf, 25

	.type	.L.str,%object                  @ @.str
	.section	.rodata.str1.1,"aMS",%progbits,1
.L.str:
	.asciz	"rtc"
	.size	.L.str, 4

	.type	.L.str.1,%object                @ @.str.1
.L.str.1:
	.asciz	"device != RT_NULL"
	.size	.L.str.1, 18

	.type	.L__FUNCTION__.gettimeofday,%object @ @__FUNCTION__.gettimeofday
.L__FUNCTION__.gettimeofday:
	.asciz	"gettimeofday"
	.size	.L__FUNCTION__.gettimeofday, 13

	.type	time.device,%object             @ @time.device
	.section	.bss.time.device,"aw",%nobits
	.p2align	2
time.device:
	.long	0
	.size	time.device, 4

	.file	4 "E:\\STM32\\Learning\\STM32H750_ART_PI_RGBLCD" "rt-thread/components/libc/compilers/common\\sys/time.h"
	.section	".note.GNU-stack","",%progbits
	.eabi_attribute	30, 6	@ Tag_ABI_optimization_goals
	.ARM_attribute	16, 1	@ Tag_AV_eba