	.text
	.syntax unified
	.eabi_attribute	67, "2.09"	@ Tag_conformance
	.cpu	cortex-m7
	.eabi_attribute	6, 13	@ Tag_CPU_arch
	.eabi_attribute	7, 77	@ Tag_CPU_arch_profile
	.eabi_attribute	8, 0	@ Tag_ARM_ISA_use
	.eabi_attribute	9, 2	@ Tag_THUMB_ISA_use
	.fpu	fpv5-d16
	.eabi_attribute	36, 1	@ Tag_FP_HP_extension
	.eabi_attribute	34, 1	@ Tag_CPU_unaligned_access
	.eabi_attribute	17, 1	@ Tag_ABI_PCS_GOT_use
	.eabi_attribute	20, 2	@ Tag_ABI_FP_denormal
	.eabi_attribute	21, 0	@ Tag_ABI_FP_exceptions
	.eabi_attribute	23, 1	@ Tag_ABI_FP_number_model
	.eabi_attribute	24, 1	@ Tag_ABI_align_needed
	.eabi_attribute	25, 1	@ Tag_ABI_align_preserved
	.eabi_attribute	28, 1	@ Tag_ABI_VFP_args
	.eabi_attribute	38, 1	@ Tag_ABI_FP_16bit_format
	.eabi_attribute	18, 2	@ Tag_ABI_PCS_wchar_t
	.eabi_attribute	26, 1	@ Tag_ABI_enum_size
	.eabi_attribute	14, 0	@ Tag_ABI_PCS_R9_use
	.file	"tjpgd.c"
	.file	1 "D:\\Keil_v5\\ARM\\ARMCLANG\\Bin\\..\\include" "stdint.h"
	.file	2 "E:\\STM32\\Learning\\STM32H750_ART_PI_RGBLCD" "packages/tjpgd1d/src/tjpgd.c"
	.file	3 "E:\\STM32\\Learning\\STM32H750_ART_PI_RGBLCD" "./packages/tjpgd1d/src/tjpgd.h"
	.section	.text.jd_prepare,"ax",%progbits
	.hidden	jd_prepare                      @ -- Begin function jd_prepare
	.globl	jd_prepare
	.p2align	3
	.type	jd_prepare,%function
	.code	16                              @ @jd_prepare
	.thumb_func
jd_prepare:
.Lfunc_begin0:
	.loc	2 760 0                         @ packages/tjpgd1d/src/tjpgd.c:760:0
	.fnstart
	.cfi_sections .debug_frame
	.cfi_startproc
@ %bb.0:
	.save	{r7, lr}
	push	{r7, lr}
	.cfi_def_cfa_offset 8
	.cfi_offset lr, -4
	.cfi_offset r7, -8
	.pad	#56
	sub	sp, #56
	.cfi_def_cfa_offset 64
	ldr.w	r12, [sp, #64]
	str	r0, [sp, #48]
	str	r1, [sp, #44]
	str	r2, [sp, #40]
	str	r3, [sp, #36]
.Ltmp0:
	.loc	2 768 7 prologue_end            @ packages/tjpgd1d/src/tjpgd.c:768:7
	ldr	r0, [sp, #40]
.Ltmp1:
	.loc	2 768 6 is_stmt 0               @ packages/tjpgd1d/src/tjpgd.c:768:6
	cbnz	r0, .LBB0_2
	b	.LBB0_1
.LBB0_1:
	.loc	2 0 6                           @ packages/tjpgd1d/src/tjpgd.c:0:6
	movs	r0, #5
.Ltmp2:
	.loc	2 768 13                        @ packages/tjpgd1d/src/tjpgd.c:768:13
	strb.w	r0, [sp, #55]
	b	.LBB0_107
.Ltmp3:
.LBB0_2:
	.loc	2 770 13 is_stmt 1              @ packages/tjpgd1d/src/tjpgd.c:770:13
	ldr	r0, [sp, #40]
	.loc	2 770 2 is_stmt 0               @ packages/tjpgd1d/src/tjpgd.c:770:2
	ldr	r1, [sp, #48]
	.loc	2 770 11                        @ packages/tjpgd1d/src/tjpgd.c:770:11
	str	r0, [r1, #104]
	.loc	2 771 16 is_stmt 1              @ packages/tjpgd1d/src/tjpgd.c:771:16
	ldr	r0, [sp, #36]
	.loc	2 771 2 is_stmt 0               @ packages/tjpgd1d/src/tjpgd.c:771:2
	ldr	r1, [sp, #48]
	.loc	2 771 14                        @ packages/tjpgd1d/src/tjpgd.c:771:14
	str	r0, [r1, #108]
	.loc	2 772 15 is_stmt 1              @ packages/tjpgd1d/src/tjpgd.c:772:15
	ldr	r0, [sp, #44]
	.loc	2 772 2 is_stmt 0               @ packages/tjpgd1d/src/tjpgd.c:772:2
	ldr	r1, [sp, #48]
	.loc	2 772 13                        @ packages/tjpgd1d/src/tjpgd.c:772:13
	str	r0, [r1, #112]
	.loc	2 773 15 is_stmt 1              @ packages/tjpgd1d/src/tjpgd.c:773:15
	ldr	r0, [sp, #64]
	.loc	2 773 2 is_stmt 0               @ packages/tjpgd1d/src/tjpgd.c:773:2
	ldr	r1, [sp, #48]
	.loc	2 773 13                        @ packages/tjpgd1d/src/tjpgd.c:773:13
	str	r0, [r1, #116]
	.loc	2 774 2 is_stmt 1               @ packages/tjpgd1d/src/tjpgd.c:774:2
	ldr	r1, [sp, #48]
	movs	r0, #0
	.loc	2 774 11 is_stmt 0              @ packages/tjpgd1d/src/tjpgd.c:774:11
	strh	r0, [r1, #26]
.Ltmp4:
	.loc	2 776 9 is_stmt 1               @ packages/tjpgd1d/src/tjpgd.c:776:9
	str	r0, [sp, #16]
	.loc	2 776 7 is_stmt 0               @ packages/tjpgd1d/src/tjpgd.c:776:7
	b	.LBB0_3
.LBB0_3:                                @ =>This Loop Header: Depth=1
                                        @     Child Loop BB0_5 Depth 2
.Ltmp5:
	.loc	2 776 14                        @ packages/tjpgd1d/src/tjpgd.c:776:14
	ldr	r0, [sp, #16]
.Ltmp6:
	.loc	2 776 2                         @ packages/tjpgd1d/src/tjpgd.c:776:2
	cmp	r0, #1
	bhi	.LBB0_10
	b	.LBB0_4
.LBB0_4:                                @   in Loop: Header=BB0_3 Depth=1
	.loc	2 0 2                           @ packages/tjpgd1d/src/tjpgd.c:0:2
	movs	r0, #0
.Ltmp7:
	.loc	2 777 10 is_stmt 1              @ packages/tjpgd1d/src/tjpgd.c:777:10
	str	r0, [sp, #12]
	.loc	2 777 8 is_stmt 0               @ packages/tjpgd1d/src/tjpgd.c:777:8
	b	.LBB0_5
.LBB0_5:                                @   Parent Loop BB0_3 Depth=1
                                        @ =>  This Inner Loop Header: Depth=2
.Ltmp8:
	.loc	2 777 15                        @ packages/tjpgd1d/src/tjpgd.c:777:15
	ldr	r0, [sp, #12]
.Ltmp9:
	.loc	2 777 3                         @ packages/tjpgd1d/src/tjpgd.c:777:3
	cmp	r0, #1
	bhi	.LBB0_8
	b	.LBB0_6
.LBB0_6:                                @   in Loop: Header=BB0_5 Depth=2
.Ltmp10:
	.loc	2 778 4 is_stmt 1               @ packages/tjpgd1d/src/tjpgd.c:778:4
	ldr	r0, [sp, #48]
	.loc	2 778 17 is_stmt 0              @ packages/tjpgd1d/src/tjpgd.c:778:17
	ldr	r1, [sp, #16]
	.loc	2 778 8                         @ packages/tjpgd1d/src/tjpgd.c:778:8
	add.w	r0, r0, r1, lsl #3
	.loc	2 778 20                        @ packages/tjpgd1d/src/tjpgd.c:778:20
	ldr	r1, [sp, #12]
	.loc	2 778 4                         @ packages/tjpgd1d/src/tjpgd.c:778:4
	add.w	r1, r0, r1, lsl #2
	movs	r0, #0
	.loc	2 778 23                        @ packages/tjpgd1d/src/tjpgd.c:778:23
	str	r0, [r1, #32]
	.loc	2 779 4 is_stmt 1               @ packages/tjpgd1d/src/tjpgd.c:779:4
	ldr	r1, [sp, #48]
	.loc	2 779 17 is_stmt 0              @ packages/tjpgd1d/src/tjpgd.c:779:17
	ldr	r2, [sp, #16]
	.loc	2 779 8                         @ packages/tjpgd1d/src/tjpgd.c:779:8
	add.w	r1, r1, r2, lsl #3
	.loc	2 779 20                        @ packages/tjpgd1d/src/tjpgd.c:779:20
	ldr	r2, [sp, #12]
	.loc	2 779 4                         @ packages/tjpgd1d/src/tjpgd.c:779:4
	add.w	r1, r1, r2, lsl #2
	.loc	2 779 23                        @ packages/tjpgd1d/src/tjpgd.c:779:23
	str	r0, [r1, #48]
	.loc	2 780 4 is_stmt 1               @ packages/tjpgd1d/src/tjpgd.c:780:4
	ldr	r1, [sp, #48]
	.loc	2 780 17 is_stmt 0              @ packages/tjpgd1d/src/tjpgd.c:780:17
	ldr	r2, [sp, #16]
	.loc	2 780 8                         @ packages/tjpgd1d/src/tjpgd.c:780:8
	add.w	r1, r1, r2, lsl #3
	.loc	2 780 20                        @ packages/tjpgd1d/src/tjpgd.c:780:20
	ldr	r2, [sp, #12]
	.loc	2 780 4                         @ packages/tjpgd1d/src/tjpgd.c:780:4
	add.w	r1, r1, r2, lsl #2
	.loc	2 780 23                        @ packages/tjpgd1d/src/tjpgd.c:780:23
	str	r0, [r1, #64]
	.loc	2 781 3 is_stmt 1               @ packages/tjpgd1d/src/tjpgd.c:781:3
	b	.LBB0_7
.Ltmp11:
.LBB0_7:                                @   in Loop: Header=BB0_5 Depth=2
	.loc	2 777 23                        @ packages/tjpgd1d/src/tjpgd.c:777:23
	ldr	r0, [sp, #12]
	adds	r0, #1
	str	r0, [sp, #12]
	.loc	2 777 3 is_stmt 0               @ packages/tjpgd1d/src/tjpgd.c:777:3
	b	.LBB0_5
.Ltmp12:
.LBB0_8:                                @   in Loop: Header=BB0_3 Depth=1
	.loc	2 782 2 is_stmt 1               @ packages/tjpgd1d/src/tjpgd.c:782:2
	b	.LBB0_9
.Ltmp13:
.LBB0_9:                                @   in Loop: Header=BB0_3 Depth=1
	.loc	2 776 22                        @ packages/tjpgd1d/src/tjpgd.c:776:22
	ldr	r0, [sp, #16]
	adds	r0, #1
	str	r0, [sp, #16]
	.loc	2 776 2 is_stmt 0               @ packages/tjpgd1d/src/tjpgd.c:776:2
	b	.LBB0_3
.Ltmp14:
.LBB0_10:
	.loc	2 0 2                           @ packages/tjpgd1d/src/tjpgd.c:0:2
	movs	r0, #0
.Ltmp15:
	.loc	2 783 9 is_stmt 1               @ packages/tjpgd1d/src/tjpgd.c:783:9
	str	r0, [sp, #16]
	.loc	2 783 7 is_stmt 0               @ packages/tjpgd1d/src/tjpgd.c:783:7
	b	.LBB0_11
.LBB0_11:                               @ =>This Inner Loop Header: Depth=1
.Ltmp16:
	.loc	2 783 14                        @ packages/tjpgd1d/src/tjpgd.c:783:14
	ldr	r0, [sp, #16]
.Ltmp17:
	.loc	2 783 2                         @ packages/tjpgd1d/src/tjpgd.c:783:2
	cmp	r0, #3
	bhi	.LBB0_14
	b	.LBB0_12
.LBB0_12:                               @   in Loop: Header=BB0_11 Depth=1
	b	.LBB0_13
.LBB0_13:                               @   in Loop: Header=BB0_11 Depth=1
.Ltmp18:
	.loc	2 783 21                        @ packages/tjpgd1d/src/tjpgd.c:783:21
	ldr	r1, [sp, #48]
	.loc	2 783 32                        @ packages/tjpgd1d/src/tjpgd.c:783:32
	ldr	r0, [sp, #16]
	.loc	2 783 25                        @ packages/tjpgd1d/src/tjpgd.c:783:25
	add.w	r1, r1, r0, lsl #2
	.loc	2 783 32                        @ packages/tjpgd1d/src/tjpgd.c:783:32
	adds	r0, #1
	str	r0, [sp, #16]
	movs	r0, #0
	.loc	2 783 36                        @ packages/tjpgd1d/src/tjpgd.c:783:36
	str	r0, [r1, #80]
	.loc	2 783 2                         @ packages/tjpgd1d/src/tjpgd.c:783:2
	b	.LBB0_11
.Ltmp19:
.LBB0_14:
	.loc	2 785 31 is_stmt 1              @ packages/tjpgd1d/src/tjpgd.c:785:31
	ldr	r0, [sp, #48]
	mov.w	r1, #512
	.loc	2 785 20 is_stmt 0              @ packages/tjpgd1d/src/tjpgd.c:785:20
	bl	alloc_pool
	.loc	2 785 18                        @ packages/tjpgd1d/src/tjpgd.c:785:18
	str	r0, [sp, #32]
	.loc	2 785 2                         @ packages/tjpgd1d/src/tjpgd.c:785:2
	ldr	r1, [sp, #48]
	.loc	2 785 12                        @ packages/tjpgd1d/src/tjpgd.c:785:12
	str	r0, [r1, #8]
.Ltmp20:
	.loc	2 786 7 is_stmt 1               @ packages/tjpgd1d/src/tjpgd.c:786:7
	ldr	r0, [sp, #32]
.Ltmp21:
	.loc	2 786 6 is_stmt 0               @ packages/tjpgd1d/src/tjpgd.c:786:6
	cbnz	r0, .LBB0_16
	b	.LBB0_15
.LBB0_15:
	.loc	2 0 6                           @ packages/tjpgd1d/src/tjpgd.c:0:6
	movs	r0, #3
.Ltmp22:
	.loc	2 786 12                        @ packages/tjpgd1d/src/tjpgd.c:786:12
	strb.w	r0, [sp, #55]
	b	.LBB0_107
.Ltmp23:
.LBB0_16:
	.loc	2 788 6 is_stmt 1               @ packages/tjpgd1d/src/tjpgd.c:788:6
	ldr	r0, [sp, #48]
	.loc	2 788 10 is_stmt 0              @ packages/tjpgd1d/src/tjpgd.c:788:10
	ldr	r3, [r0, #112]
	.loc	2 788 21                        @ packages/tjpgd1d/src/tjpgd.c:788:21
	ldr	r1, [sp, #32]
	movs	r2, #2
	.loc	2 788 6                         @ packages/tjpgd1d/src/tjpgd.c:788:6
	blx	r3
.Ltmp24:
	.loc	2 788 6                         @ packages/tjpgd1d/src/tjpgd.c:788:6
	cmp	r0, #2
	beq	.LBB0_18
	b	.LBB0_17
.LBB0_17:
	.loc	2 0 6                           @ packages/tjpgd1d/src/tjpgd.c:0:6
	movs	r0, #2
.Ltmp25:
	.loc	2 788 35                        @ packages/tjpgd1d/src/tjpgd.c:788:35
	strb.w	r0, [sp, #55]
	b	.LBB0_107
.Ltmp26:
.LBB0_18:
	.loc	2 789 6 is_stmt 1               @ packages/tjpgd1d/src/tjpgd.c:789:6
	ldr	r0, [sp, #32]
	ldrb	r1, [r0]
	ldrb	r0, [r0, #1]
	orr.w	r0, r0, r1, lsl #8
	uxth	r0, r0
	movw	r1, #65496
.Ltmp27:
	.loc	2 789 6 is_stmt 0               @ packages/tjpgd1d/src/tjpgd.c:789:6
	cmp	r0, r1
	beq	.LBB0_20
	b	.LBB0_19
.LBB0_19:
	.loc	2 0 6                           @ packages/tjpgd1d/src/tjpgd.c:0:6
	movs	r0, #6
.Ltmp28:
	.loc	2 789 31                        @ packages/tjpgd1d/src/tjpgd.c:789:31
	strb.w	r0, [sp, #55]
	b	.LBB0_107
.Ltmp29:
.LBB0_20:
	.loc	2 0 31                          @ packages/tjpgd1d/src/tjpgd.c:0:31
	movs	r0, #2
	.loc	2 790 6 is_stmt 1               @ packages/tjpgd1d/src/tjpgd.c:790:6
	str	r0, [sp, #24]
	.loc	2 791 2                         @ packages/tjpgd1d/src/tjpgd.c:791:2
	ldr	r0, [sp, #48]
	.loc	2 791 6 is_stmt 0               @ packages/tjpgd1d/src/tjpgd.c:791:6
	ldr	r3, [r0, #112]
	.loc	2 791 16                        @ packages/tjpgd1d/src/tjpgd.c:791:16
	ldr	r1, [sp, #32]
	movs	r2, #18
	.loc	2 791 2                         @ packages/tjpgd1d/src/tjpgd.c:791:2
	blx	r3
	.loc	2 792 2 is_stmt 1               @ packages/tjpgd1d/src/tjpgd.c:792:2
	b	.LBB0_21
.LBB0_21:                               @ =>This Loop Header: Depth=1
                                        @     Child Loop BB0_36 Depth 2
.Ltmp30:
	.loc	2 794 7                         @ packages/tjpgd1d/src/tjpgd.c:794:7
	ldr	r0, [sp, #48]
	.loc	2 794 11 is_stmt 0              @ packages/tjpgd1d/src/tjpgd.c:794:11
	ldr	r3, [r0, #112]
	.loc	2 794 22                        @ packages/tjpgd1d/src/tjpgd.c:794:22
	ldr	r1, [sp, #32]
	movs	r2, #4
	.loc	2 794 7                         @ packages/tjpgd1d/src/tjpgd.c:794:7
	blx	r3
.Ltmp31:
	.loc	2 794 7                         @ packages/tjpgd1d/src/tjpgd.c:794:7
	cmp	r0, #4
	beq	.LBB0_23
	b	.LBB0_22
.LBB0_22:
	.loc	2 0 7                           @ packages/tjpgd1d/src/tjpgd.c:0:7
	movs	r0, #2
.Ltmp32:
	.loc	2 794 36                        @ packages/tjpgd1d/src/tjpgd.c:794:36
	strb.w	r0, [sp, #55]
	b	.LBB0_107
.Ltmp33:
.LBB0_23:                               @   in Loop: Header=BB0_21 Depth=1
	.loc	2 795 12 is_stmt 1              @ packages/tjpgd1d/src/tjpgd.c:795:12
	ldr	r0, [sp, #32]
	ldrb	r1, [r0]
	ldrb	r0, [r0, #1]
	orr.w	r0, r0, r1, lsl #8
	.loc	2 795 10 is_stmt 0              @ packages/tjpgd1d/src/tjpgd.c:795:10
	strh.w	r0, [sp, #28]
	.loc	2 796 9 is_stmt 1               @ packages/tjpgd1d/src/tjpgd.c:796:9
	ldr	r0, [sp, #32]
	ldrh	r0, [r0, #2]
	lsls	r0, r0, #16
	rev	r0, r0
	.loc	2 796 7 is_stmt 0               @ packages/tjpgd1d/src/tjpgd.c:796:7
	str	r0, [sp, #8]
.Ltmp34:
	.loc	2 797 7 is_stmt 1               @ packages/tjpgd1d/src/tjpgd.c:797:7
	ldr	r0, [sp, #8]
	.loc	2 797 16 is_stmt 0              @ packages/tjpgd1d/src/tjpgd.c:797:16
	cmp	r0, #3
	blo	.LBB0_25
	b	.LBB0_24
.LBB0_24:                               @   in Loop: Header=BB0_21 Depth=1
	.loc	2 797 20                        @ packages/tjpgd1d/src/tjpgd.c:797:20
	ldrb.w	r0, [sp, #29]
.Ltmp35:
	.loc	2 797 7                         @ packages/tjpgd1d/src/tjpgd.c:797:7
	cmp	r0, #255
	beq	.LBB0_26
	b	.LBB0_25
.LBB0_25:
	.loc	2 0 7                           @ packages/tjpgd1d/src/tjpgd.c:0:7
	movs	r0, #6
.Ltmp36:
	.loc	2 797 42                        @ packages/tjpgd1d/src/tjpgd.c:797:42
	strb.w	r0, [sp, #55]
	b	.LBB0_107
.Ltmp37:
.LBB0_26:                               @   in Loop: Header=BB0_21 Depth=1
	.loc	2 798 7 is_stmt 1               @ packages/tjpgd1d/src/tjpgd.c:798:7
	ldr	r0, [sp, #8]
	subs	r0, #2
	str	r0, [sp, #8]
	.loc	2 799 14                        @ packages/tjpgd1d/src/tjpgd.c:799:14
	ldr	r0, [sp, #8]
	.loc	2 799 7 is_stmt 0               @ packages/tjpgd1d/src/tjpgd.c:799:7
	ldr	r1, [sp, #24]
	.loc	2 799 12                        @ packages/tjpgd1d/src/tjpgd.c:799:12
	add	r0, r1
	.loc	2 799 7                         @ packages/tjpgd1d/src/tjpgd.c:799:7
	adds	r0, #4
	str	r0, [sp, #24]
	.loc	2 801 11 is_stmt 1              @ packages/tjpgd1d/src/tjpgd.c:801:11
	ldrb.w	r0, [sp, #28]
	.loc	2 801 3 is_stmt 0               @ packages/tjpgd1d/src/tjpgd.c:801:3
	subs	r0, #192
	mov	r1, r0
	str	r1, [sp]                        @ 4-byte Spill
	cmp	r0, #29
	bhi.w	.LBB0_103
@ %bb.27:                               @   in Loop: Header=BB0_21 Depth=1
	.loc	2 0 3                           @ packages/tjpgd1d/src/tjpgd.c:0:3
	ldr	r1, [sp]                        @ 4-byte Reload
.LCPI0_0:
	tbh	[pc, r1, lsl #1]
@ %bb.28:
.LJTI0_0:
	.short	(.LBB0_29-(.LCPI0_0+4))/2
	.short	(.LBB0_102-(.LCPI0_0+4))/2
	.short	(.LBB0_102-(.LCPI0_0+4))/2
	.short	(.LBB0_102-(.LCPI0_0+4))/2
	.short	(.LBB0_56-(.LCPI0_0+4))/2
	.short	(.LBB0_102-(.LCPI0_0+4))/2
	.short	(.LBB0_102-(.LCPI0_0+4))/2
	.short	(.LBB0_102-(.LCPI0_0+4))/2
	.short	(.LBB0_103-(.LCPI0_0+4))/2
	.short	(.LBB0_102-(.LCPI0_0+4))/2
	.short	(.LBB0_102-(.LCPI0_0+4))/2
	.short	(.LBB0_102-(.LCPI0_0+4))/2
	.short	(.LBB0_103-(.LCPI0_0+4))/2
	.short	(.LBB0_102-(.LCPI0_0+4))/2
	.short	(.LBB0_102-(.LCPI0_0+4))/2
	.short	(.LBB0_102-(.LCPI0_0+4))/2
	.short	(.LBB0_103-(.LCPI0_0+4))/2
	.short	(.LBB0_103-(.LCPI0_0+4))/2
	.short	(.LBB0_103-(.LCPI0_0+4))/2
	.short	(.LBB0_103-(.LCPI0_0+4))/2
	.short	(.LBB0_103-(.LCPI0_0+4))/2
	.short	(.LBB0_103-(.LCPI0_0+4))/2
	.short	(.LBB0_103-(.LCPI0_0+4))/2
	.short	(.LBB0_103-(.LCPI0_0+4))/2
	.short	(.LBB0_103-(.LCPI0_0+4))/2
	.short	(.LBB0_102-(.LCPI0_0+4))/2
	.short	(.LBB0_70-(.LCPI0_0+4))/2
	.short	(.LBB0_63-(.LCPI0_0+4))/2
	.short	(.LBB0_103-(.LCPI0_0+4))/2
	.short	(.LBB0_51-(.LCPI0_0+4))/2
	.p2align	1
.LBB0_29:                               @   in Loop: Header=BB0_21 Depth=1
.Ltmp38:
	.loc	2 804 8 is_stmt 1               @ packages/tjpgd1d/src/tjpgd.c:804:8
	ldr	r0, [sp, #8]
.Ltmp39:
	.loc	2 804 8 is_stmt 0               @ packages/tjpgd1d/src/tjpgd.c:804:8
	cmp.w	r0, #512
	bls	.LBB0_31
	b	.LBB0_30
.LBB0_30:
	.loc	2 0 8                           @ packages/tjpgd1d/src/tjpgd.c:0:8
	movs	r0, #4
.Ltmp40:
	.loc	2 804 24                        @ packages/tjpgd1d/src/tjpgd.c:804:24
	strb.w	r0, [sp, #55]
	b	.LBB0_107
.Ltmp41:
.LBB0_31:                               @   in Loop: Header=BB0_21 Depth=1
	.loc	2 805 8 is_stmt 1               @ packages/tjpgd1d/src/tjpgd.c:805:8
	ldr	r0, [sp, #48]
	.loc	2 805 12 is_stmt 0              @ packages/tjpgd1d/src/tjpgd.c:805:12
	ldr	r3, [r0, #112]
	.loc	2 805 23                        @ packages/tjpgd1d/src/tjpgd.c:805:23
	ldr	r1, [sp, #32]
	.loc	2 805 28                        @ packages/tjpgd1d/src/tjpgd.c:805:28
	ldr	r2, [sp, #8]
	.loc	2 805 8                         @ packages/tjpgd1d/src/tjpgd.c:805:8
	blx	r3
	.loc	2 805 36                        @ packages/tjpgd1d/src/tjpgd.c:805:36
	ldr	r1, [sp, #8]
.Ltmp42:
	.loc	2 805 8                         @ packages/tjpgd1d/src/tjpgd.c:805:8
	cmp	r0, r1
	beq	.LBB0_33
	b	.LBB0_32
.LBB0_32:
	.loc	2 0 8                           @ packages/tjpgd1d/src/tjpgd.c:0:8
	movs	r0, #2
.Ltmp43:
	.loc	2 805 41                        @ packages/tjpgd1d/src/tjpgd.c:805:41
	strb.w	r0, [sp, #55]
	b	.LBB0_107
.Ltmp44:
.LBB0_33:                               @   in Loop: Header=BB0_21 Depth=1
	.loc	2 807 16 is_stmt 1              @ packages/tjpgd1d/src/tjpgd.c:807:16
	ldr	r0, [sp, #32]
	ldrb	r1, [r0, #3]
	ldrb	r0, [r0, #4]
	orr.w	r0, r0, r1, lsl #8
	.loc	2 807 4 is_stmt 0               @ packages/tjpgd1d/src/tjpgd.c:807:4
	ldr	r1, [sp, #48]
	.loc	2 807 14                        @ packages/tjpgd1d/src/tjpgd.c:807:14
	strh	r0, [r1, #28]
	.loc	2 808 17 is_stmt 1              @ packages/tjpgd1d/src/tjpgd.c:808:17
	ldr	r0, [sp, #32]
	ldrb	r1, [r0, #1]
	ldrb	r0, [r0, #2]
	orr.w	r0, r0, r1, lsl #8
	.loc	2 808 4 is_stmt 0               @ packages/tjpgd1d/src/tjpgd.c:808:4
	ldr	r1, [sp, #48]
	.loc	2 808 15                        @ packages/tjpgd1d/src/tjpgd.c:808:15
	strh	r0, [r1, #30]
.Ltmp45:
	.loc	2 809 8 is_stmt 1               @ packages/tjpgd1d/src/tjpgd.c:809:8
	ldr	r0, [sp, #32]
	ldrb	r0, [r0, #5]
.Ltmp46:
	.loc	2 809 8 is_stmt 0               @ packages/tjpgd1d/src/tjpgd.c:809:8
	cmp	r0, #3
	beq	.LBB0_35
	b	.LBB0_34
.LBB0_34:
	.loc	2 0 8                           @ packages/tjpgd1d/src/tjpgd.c:0:8
	movs	r0, #8
.Ltmp47:
	.loc	2 809 21                        @ packages/tjpgd1d/src/tjpgd.c:809:21
	strb.w	r0, [sp, #55]
	b	.LBB0_107
.Ltmp48:
.LBB0_35:                               @   in Loop: Header=BB0_21 Depth=1
	.loc	2 0 21                          @ packages/tjpgd1d/src/tjpgd.c:0:21
	movs	r0, #0
.Ltmp49:
	.loc	2 812 11 is_stmt 1              @ packages/tjpgd1d/src/tjpgd.c:812:11
	str	r0, [sp, #16]
	.loc	2 812 9 is_stmt 0               @ packages/tjpgd1d/src/tjpgd.c:812:9
	b	.LBB0_36
.LBB0_36:                               @   Parent Loop BB0_21 Depth=1
                                        @ =>  This Inner Loop Header: Depth=2
.Ltmp50:
	.loc	2 812 16                        @ packages/tjpgd1d/src/tjpgd.c:812:16
	ldr	r0, [sp, #16]
.Ltmp51:
	.loc	2 812 4                         @ packages/tjpgd1d/src/tjpgd.c:812:4
	cmp	r0, #2
	bhi	.LBB0_50
	b	.LBB0_37
.LBB0_37:                               @   in Loop: Header=BB0_36 Depth=2
.Ltmp52:
	.loc	2 813 9 is_stmt 1               @ packages/tjpgd1d/src/tjpgd.c:813:9
	ldr	r1, [sp, #32]
	.loc	2 813 21 is_stmt 0              @ packages/tjpgd1d/src/tjpgd.c:813:21
	ldr	r0, [sp, #16]
	.loc	2 813 19                        @ packages/tjpgd1d/src/tjpgd.c:813:19
	add.w	r0, r0, r0, lsl #1
	.loc	2 813 15                        @ packages/tjpgd1d/src/tjpgd.c:813:15
	add	r0, r1
	.loc	2 813 9                         @ packages/tjpgd1d/src/tjpgd.c:813:9
	ldrb	r0, [r0, #7]
	.loc	2 813 7                         @ packages/tjpgd1d/src/tjpgd.c:813:7
	strb.w	r0, [sp, #31]
.Ltmp53:
	.loc	2 814 10 is_stmt 1              @ packages/tjpgd1d/src/tjpgd.c:814:10
	ldr	r0, [sp, #16]
.Ltmp54:
	.loc	2 814 9 is_stmt 0               @ packages/tjpgd1d/src/tjpgd.c:814:9
	cbnz	r0, .LBB0_43
	b	.LBB0_38
.LBB0_38:                               @   in Loop: Header=BB0_36 Depth=2
.Ltmp55:
	.loc	2 815 10 is_stmt 1              @ packages/tjpgd1d/src/tjpgd.c:815:10
	ldrb.w	r0, [sp, #31]
	.loc	2 815 20 is_stmt 0              @ packages/tjpgd1d/src/tjpgd.c:815:20
	cmp	r0, #17
	beq	.LBB0_42
	b	.LBB0_39
.LBB0_39:                               @   in Loop: Header=BB0_36 Depth=2
	.loc	2 815 23                        @ packages/tjpgd1d/src/tjpgd.c:815:23
	ldrb.w	r0, [sp, #31]
	.loc	2 815 33                        @ packages/tjpgd1d/src/tjpgd.c:815:33
	cmp	r0, #34
	beq	.LBB0_42
	b	.LBB0_40
.LBB0_40:                               @   in Loop: Header=BB0_36 Depth=2
	.loc	2 815 36                        @ packages/tjpgd1d/src/tjpgd.c:815:36
	ldrb.w	r0, [sp, #31]
.Ltmp56:
	.loc	2 815 10                        @ packages/tjpgd1d/src/tjpgd.c:815:10
	cmp	r0, #33
	beq	.LBB0_42
	b	.LBB0_41
.LBB0_41:
	.loc	2 0 10                          @ packages/tjpgd1d/src/tjpgd.c:0:10
	movs	r0, #8
.Ltmp57:
	.loc	2 816 7 is_stmt 1               @ packages/tjpgd1d/src/tjpgd.c:816:7
	strb.w	r0, [sp, #55]
	b	.LBB0_107
.Ltmp58:
.LBB0_42:                               @   in Loop: Header=BB0_36 Depth=2
	.loc	2 818 16                        @ packages/tjpgd1d/src/tjpgd.c:818:16
	ldrb.w	r0, [sp, #31]
	.loc	2 818 18 is_stmt 0              @ packages/tjpgd1d/src/tjpgd.c:818:18
	lsrs	r0, r0, #4
	.loc	2 818 6                         @ packages/tjpgd1d/src/tjpgd.c:818:6
	ldr	r1, [sp, #48]
	.loc	2 818 14                        @ packages/tjpgd1d/src/tjpgd.c:818:14
	strb	r0, [r1, #14]
	.loc	2 818 34                        @ packages/tjpgd1d/src/tjpgd.c:818:34
	ldrb.w	r0, [sp, #31]
	.loc	2 818 36                        @ packages/tjpgd1d/src/tjpgd.c:818:36
	and	r0, r0, #15
	.loc	2 818 24                        @ packages/tjpgd1d/src/tjpgd.c:818:24
	ldr	r1, [sp, #48]
	.loc	2 818 32                        @ packages/tjpgd1d/src/tjpgd.c:818:32
	strb	r0, [r1, #15]
	.loc	2 819 5 is_stmt 1               @ packages/tjpgd1d/src/tjpgd.c:819:5
	b	.LBB0_46
.Ltmp59:
.LBB0_43:                               @   in Loop: Header=BB0_36 Depth=2
	.loc	2 820 10                        @ packages/tjpgd1d/src/tjpgd.c:820:10
	ldrb.w	r0, [sp, #31]
.Ltmp60:
	.loc	2 820 10 is_stmt 0              @ packages/tjpgd1d/src/tjpgd.c:820:10
	cmp	r0, #17
	beq	.LBB0_45
	b	.LBB0_44
.LBB0_44:
	.loc	2 0 10                          @ packages/tjpgd1d/src/tjpgd.c:0:10
	movs	r0, #8
.Ltmp61:
	.loc	2 820 21                        @ packages/tjpgd1d/src/tjpgd.c:820:21
	strb.w	r0, [sp, #55]
	b	.LBB0_107
.Ltmp62:
.LBB0_45:                               @   in Loop: Header=BB0_36 Depth=2
	.loc	2 0 21                          @ packages/tjpgd1d/src/tjpgd.c:0:21
	b	.LBB0_46
.LBB0_46:                               @   in Loop: Header=BB0_36 Depth=2
	.loc	2 822 9 is_stmt 1               @ packages/tjpgd1d/src/tjpgd.c:822:9
	ldr	r1, [sp, #32]
	.loc	2 822 21 is_stmt 0              @ packages/tjpgd1d/src/tjpgd.c:822:21
	ldr	r0, [sp, #16]
	.loc	2 822 19                        @ packages/tjpgd1d/src/tjpgd.c:822:19
	add.w	r0, r0, r0, lsl #1
	.loc	2 822 15                        @ packages/tjpgd1d/src/tjpgd.c:822:15
	add	r0, r1
	.loc	2 822 9                         @ packages/tjpgd1d/src/tjpgd.c:822:9
	ldrb	r0, [r0, #8]
	.loc	2 822 7                         @ packages/tjpgd1d/src/tjpgd.c:822:7
	strb.w	r0, [sp, #31]
.Ltmp63:
	.loc	2 823 9 is_stmt 1               @ packages/tjpgd1d/src/tjpgd.c:823:9
	ldrb.w	r0, [sp, #31]
.Ltmp64:
	.loc	2 823 9 is_stmt 0               @ packages/tjpgd1d/src/tjpgd.c:823:9
	cmp	r0, #4
	blt	.LBB0_48
	b	.LBB0_47
.LBB0_47:
	.loc	2 0 9                           @ packages/tjpgd1d/src/tjpgd.c:0:9
	movs	r0, #8
.Ltmp65:
	.loc	2 823 16                        @ packages/tjpgd1d/src/tjpgd.c:823:16
	strb.w	r0, [sp, #55]
	b	.LBB0_107
.Ltmp66:
.LBB0_48:                               @   in Loop: Header=BB0_36 Depth=2
	.loc	2 824 19 is_stmt 1              @ packages/tjpgd1d/src/tjpgd.c:824:19
	ldrb.w	r0, [sp, #31]
	.loc	2 824 5 is_stmt 0               @ packages/tjpgd1d/src/tjpgd.c:824:5
	ldr	r1, [sp, #48]
	.loc	2 824 14                        @ packages/tjpgd1d/src/tjpgd.c:824:14
	ldr	r2, [sp, #16]
	.loc	2 824 9                         @ packages/tjpgd1d/src/tjpgd.c:824:9
	add	r1, r2
	.loc	2 824 17                        @ packages/tjpgd1d/src/tjpgd.c:824:17
	strb	r0, [r1, #16]
	.loc	2 825 4 is_stmt 1               @ packages/tjpgd1d/src/tjpgd.c:825:4
	b	.LBB0_49
.Ltmp67:
.LBB0_49:                               @   in Loop: Header=BB0_36 Depth=2
	.loc	2 812 24                        @ packages/tjpgd1d/src/tjpgd.c:812:24
	ldr	r0, [sp, #16]
	adds	r0, #1
	str	r0, [sp, #16]
	.loc	2 812 4 is_stmt 0               @ packages/tjpgd1d/src/tjpgd.c:812:4
	b	.LBB0_36
.Ltmp68:
.LBB0_50:                               @   in Loop: Header=BB0_21 Depth=1
	.loc	2 826 4 is_stmt 1               @ packages/tjpgd1d/src/tjpgd.c:826:4
	b	.LBB0_106
.LBB0_51:                               @   in Loop: Header=BB0_21 Depth=1
.Ltmp69:
	.loc	2 830 8                         @ packages/tjpgd1d/src/tjpgd.c:830:8
	ldr	r0, [sp, #8]
.Ltmp70:
	.loc	2 830 8 is_stmt 0               @ packages/tjpgd1d/src/tjpgd.c:830:8
	cmp.w	r0, #512
	bls	.LBB0_53
	b	.LBB0_52
.LBB0_52:
	.loc	2 0 8                           @ packages/tjpgd1d/src/tjpgd.c:0:8
	movs	r0, #4
.Ltmp71:
	.loc	2 830 24                        @ packages/tjpgd1d/src/tjpgd.c:830:24
	strb.w	r0, [sp, #55]
	b	.LBB0_107
.Ltmp72:
.LBB0_53:                               @   in Loop: Header=BB0_21 Depth=1
	.loc	2 831 8 is_stmt 1               @ packages/tjpgd1d/src/tjpgd.c:831:8
	ldr	r0, [sp, #48]
	.loc	2 831 12 is_stmt 0              @ packages/tjpgd1d/src/tjpgd.c:831:12
	ldr	r3, [r0, #112]
	.loc	2 831 23                        @ packages/tjpgd1d/src/tjpgd.c:831:23
	ldr	r1, [sp, #32]
	.loc	2 831 28                        @ packages/tjpgd1d/src/tjpgd.c:831:28
	ldr	r2, [sp, #8]
	.loc	2 831 8                         @ packages/tjpgd1d/src/tjpgd.c:831:8
	blx	r3
	.loc	2 831 36                        @ packages/tjpgd1d/src/tjpgd.c:831:36
	ldr	r1, [sp, #8]
.Ltmp73:
	.loc	2 831 8                         @ packages/tjpgd1d/src/tjpgd.c:831:8
	cmp	r0, r1
	beq	.LBB0_55
	b	.LBB0_54
.LBB0_54:
	.loc	2 0 8                           @ packages/tjpgd1d/src/tjpgd.c:0:8
	movs	r0, #2
.Ltmp74:
	.loc	2 831 41                        @ packages/tjpgd1d/src/tjpgd.c:831:41
	strb.w	r0, [sp, #55]
	b	.LBB0_107
.Ltmp75:
.LBB0_55:                               @   in Loop: Header=BB0_21 Depth=1
	.loc	2 834 15 is_stmt 1              @ packages/tjpgd1d/src/tjpgd.c:834:15
	ldr	r0, [sp, #32]
	ldrb	r1, [r0]
	ldrb	r0, [r0, #1]
	orr.w	r0, r0, r1, lsl #8
	.loc	2 834 4 is_stmt 0               @ packages/tjpgd1d/src/tjpgd.c:834:4
	ldr	r1, [sp, #48]
	.loc	2 834 13                        @ packages/tjpgd1d/src/tjpgd.c:834:13
	strh	r0, [r1, #26]
	.loc	2 835 4 is_stmt 1               @ packages/tjpgd1d/src/tjpgd.c:835:4
	b	.LBB0_106
.LBB0_56:                               @   in Loop: Header=BB0_21 Depth=1
.Ltmp76:
	.loc	2 839 8                         @ packages/tjpgd1d/src/tjpgd.c:839:8
	ldr	r0, [sp, #8]
.Ltmp77:
	.loc	2 839 8 is_stmt 0               @ packages/tjpgd1d/src/tjpgd.c:839:8
	cmp.w	r0, #512
	bls	.LBB0_58
	b	.LBB0_57
.LBB0_57:
	.loc	2 0 8                           @ packages/tjpgd1d/src/tjpgd.c:0:8
	movs	r0, #4
.Ltmp78:
	.loc	2 839 24                        @ packages/tjpgd1d/src/tjpgd.c:839:24
	strb.w	r0, [sp, #55]
	b	.LBB0_107
.Ltmp79:
.LBB0_58:                               @   in Loop: Header=BB0_21 Depth=1
	.loc	2 840 8 is_stmt 1               @ packages/tjpgd1d/src/tjpgd.c:840:8
	ldr	r0, [sp, #48]
	.loc	2 840 12 is_stmt 0              @ packages/tjpgd1d/src/tjpgd.c:840:12
	ldr	r3, [r0, #112]
	.loc	2 840 23                        @ packages/tjpgd1d/src/tjpgd.c:840:23
	ldr	r1, [sp, #32]
	.loc	2 840 28                        @ packages/tjpgd1d/src/tjpgd.c:840:28
	ldr	r2, [sp, #8]
	.loc	2 840 8                         @ packages/tjpgd1d/src/tjpgd.c:840:8
	blx	r3
	.loc	2 840 36                        @ packages/tjpgd1d/src/tjpgd.c:840:36
	ldr	r1, [sp, #8]
.Ltmp80:
	.loc	2 840 8                         @ packages/tjpgd1d/src/tjpgd.c:840:8
	cmp	r0, r1
	beq	.LBB0_60
	b	.LBB0_59
.LBB0_59:
	.loc	2 0 8                           @ packages/tjpgd1d/src/tjpgd.c:0:8
	movs	r0, #2
.Ltmp81:
	.loc	2 840 41                        @ packages/tjpgd1d/src/tjpgd.c:840:41
	strb.w	r0, [sp, #55]
	b	.LBB0_107
.Ltmp82:
.LBB0_60:                               @   in Loop: Header=BB0_21 Depth=1
	.loc	2 843 28 is_stmt 1              @ packages/tjpgd1d/src/tjpgd.c:843:28
	ldr	r0, [sp, #48]
	.loc	2 843 32 is_stmt 0              @ packages/tjpgd1d/src/tjpgd.c:843:32
	ldr	r1, [sp, #32]
	.loc	2 843 37                        @ packages/tjpgd1d/src/tjpgd.c:843:37
	ldr	r2, [sp, #8]
	.loc	2 843 9                         @ packages/tjpgd1d/src/tjpgd.c:843:9
	bl	create_huffman_tbl
	.loc	2 843 7                         @ packages/tjpgd1d/src/tjpgd.c:843:7
	strb.w	r0, [sp, #7]
.Ltmp83:
	.loc	2 844 8 is_stmt 1               @ packages/tjpgd1d/src/tjpgd.c:844:8
	ldrb.w	r0, [sp, #7]
.Ltmp84:
	.loc	2 844 8 is_stmt 0               @ packages/tjpgd1d/src/tjpgd.c:844:8
	cbz	r0, .LBB0_62
	b	.LBB0_61
.LBB0_61:
.Ltmp85:
	.loc	2 844 19                        @ packages/tjpgd1d/src/tjpgd.c:844:19
	ldrb.w	r0, [sp, #7]
	.loc	2 844 12                        @ packages/tjpgd1d/src/tjpgd.c:844:12
	strb.w	r0, [sp, #55]
	b	.LBB0_107
.Ltmp86:
.LBB0_62:                               @   in Loop: Header=BB0_21 Depth=1
	.loc	2 845 4 is_stmt 1               @ packages/tjpgd1d/src/tjpgd.c:845:4
	b	.LBB0_106
.LBB0_63:                               @   in Loop: Header=BB0_21 Depth=1
.Ltmp87:
	.loc	2 849 8                         @ packages/tjpgd1d/src/tjpgd.c:849:8
	ldr	r0, [sp, #8]
.Ltmp88:
	.loc	2 849 8 is_stmt 0               @ packages/tjpgd1d/src/tjpgd.c:849:8
	cmp.w	r0, #512
	bls	.LBB0_65
	b	.LBB0_64
.LBB0_64:
	.loc	2 0 8                           @ packages/tjpgd1d/src/tjpgd.c:0:8
	movs	r0, #4
.Ltmp89:
	.loc	2 849 24                        @ packages/tjpgd1d/src/tjpgd.c:849:24
	strb.w	r0, [sp, #55]
	b	.LBB0_107
.Ltmp90:
.LBB0_65:                               @   in Loop: Header=BB0_21 Depth=1
	.loc	2 850 8 is_stmt 1               @ packages/tjpgd1d/src/tjpgd.c:850:8
	ldr	r0, [sp, #48]
	.loc	2 850 12 is_stmt 0              @ packages/tjpgd1d/src/tjpgd.c:850:12
	ldr	r3, [r0, #112]
	.loc	2 850 23                        @ packages/tjpgd1d/src/tjpgd.c:850:23
	ldr	r1, [sp, #32]
	.loc	2 850 28                        @ packages/tjpgd1d/src/tjpgd.c:850:28
	ldr	r2, [sp, #8]
	.loc	2 850 8                         @ packages/tjpgd1d/src/tjpgd.c:850:8
	blx	r3
	.loc	2 850 36                        @ packages/tjpgd1d/src/tjpgd.c:850:36
	ldr	r1, [sp, #8]
.Ltmp91:
	.loc	2 850 8                         @ packages/tjpgd1d/src/tjpgd.c:850:8
	cmp	r0, r1
	beq	.LBB0_67
	b	.LBB0_66
.LBB0_66:
	.loc	2 0 8                           @ packages/tjpgd1d/src/tjpgd.c:0:8
	movs	r0, #2
.Ltmp92:
	.loc	2 850 41                        @ packages/tjpgd1d/src/tjpgd.c:850:41
	strb.w	r0, [sp, #55]
	b	.LBB0_107
.Ltmp93:
.LBB0_67:                               @   in Loop: Header=BB0_21 Depth=1
	.loc	2 853 23 is_stmt 1              @ packages/tjpgd1d/src/tjpgd.c:853:23
	ldr	r0, [sp, #48]
	.loc	2 853 27 is_stmt 0              @ packages/tjpgd1d/src/tjpgd.c:853:27
	ldr	r1, [sp, #32]
	.loc	2 853 32                        @ packages/tjpgd1d/src/tjpgd.c:853:32
	ldr	r2, [sp, #8]
	.loc	2 853 9                         @ packages/tjpgd1d/src/tjpgd.c:853:9
	bl	create_qt_tbl
	.loc	2 853 7                         @ packages/tjpgd1d/src/tjpgd.c:853:7
	strb.w	r0, [sp, #7]
.Ltmp94:
	.loc	2 854 8 is_stmt 1               @ packages/tjpgd1d/src/tjpgd.c:854:8
	ldrb.w	r0, [sp, #7]
.Ltmp95:
	.loc	2 854 8 is_stmt 0               @ packages/tjpgd1d/src/tjpgd.c:854:8
	cbz	r0, .LBB0_69
	b	.LBB0_68
.LBB0_68:
.Ltmp96:
	.loc	2 854 19                        @ packages/tjpgd1d/src/tjpgd.c:854:19
	ldrb.w	r0, [sp, #7]
	.loc	2 854 12                        @ packages/tjpgd1d/src/tjpgd.c:854:12
	strb.w	r0, [sp, #55]
	b	.LBB0_107
.Ltmp97:
.LBB0_69:                               @   in Loop: Header=BB0_21 Depth=1
	.loc	2 855 4 is_stmt 1               @ packages/tjpgd1d/src/tjpgd.c:855:4
	b	.LBB0_106
.LBB0_70:
.Ltmp98:
	.loc	2 859 8                         @ packages/tjpgd1d/src/tjpgd.c:859:8
	ldr	r0, [sp, #8]
.Ltmp99:
	.loc	2 859 8 is_stmt 0               @ packages/tjpgd1d/src/tjpgd.c:859:8
	cmp.w	r0, #512
	bls	.LBB0_72
	b	.LBB0_71
.LBB0_71:
	.loc	2 0 8                           @ packages/tjpgd1d/src/tjpgd.c:0:8
	movs	r0, #4
.Ltmp100:
	.loc	2 859 24                        @ packages/tjpgd1d/src/tjpgd.c:859:24
	strb.w	r0, [sp, #55]
	b	.LBB0_107
.Ltmp101:
.LBB0_72:
	.loc	2 860 8 is_stmt 1               @ packages/tjpgd1d/src/tjpgd.c:860:8
	ldr	r0, [sp, #48]
	.loc	2 860 12 is_stmt 0              @ packages/tjpgd1d/src/tjpgd.c:860:12
	ldr	r3, [r0, #112]
	.loc	2 860 23                        @ packages/tjpgd1d/src/tjpgd.c:860:23
	ldr	r1, [sp, #32]
	.loc	2 860 28                        @ packages/tjpgd1d/src/tjpgd.c:860:28
	ldr	r2, [sp, #8]
	.loc	2 860 8                         @ packages/tjpgd1d/src/tjpgd.c:860:8
	blx	r3
	.loc	2 860 36                        @ packages/tjpgd1d/src/tjpgd.c:860:36
	ldr	r1, [sp, #8]
.Ltmp102:
	.loc	2 860 8                         @ packages/tjpgd1d/src/tjpgd.c:860:8
	cmp	r0, r1
	beq	.LBB0_74
	b	.LBB0_73
.LBB0_73:
	.loc	2 0 8                           @ packages/tjpgd1d/src/tjpgd.c:0:8
	movs	r0, #2
.Ltmp103:
	.loc	2 860 41                        @ packages/tjpgd1d/src/tjpgd.c:860:41
	strb.w	r0, [sp, #55]
	b	.LBB0_107
.Ltmp104:
.LBB0_74:
	.loc	2 862 9 is_stmt 1               @ packages/tjpgd1d/src/tjpgd.c:862:9
	ldr	r0, [sp, #48]
	.loc	2 862 13 is_stmt 0              @ packages/tjpgd1d/src/tjpgd.c:862:13
	ldrh	r0, [r0, #28]
	.loc	2 862 19                        @ packages/tjpgd1d/src/tjpgd.c:862:19
	cbz	r0, .LBB0_76
	b	.LBB0_75
.LBB0_75:
	.loc	2 862 23                        @ packages/tjpgd1d/src/tjpgd.c:862:23
	ldr	r0, [sp, #48]
	.loc	2 862 27                        @ packages/tjpgd1d/src/tjpgd.c:862:27
	ldrh	r0, [r0, #30]
.Ltmp105:
	.loc	2 862 8                         @ packages/tjpgd1d/src/tjpgd.c:862:8
	cbnz	r0, .LBB0_77
	b	.LBB0_76
.LBB0_76:
	.loc	2 0 8                           @ packages/tjpgd1d/src/tjpgd.c:0:8
	movs	r0, #6
.Ltmp106:
	.loc	2 862 35                        @ packages/tjpgd1d/src/tjpgd.c:862:35
	strb.w	r0, [sp, #55]
	b	.LBB0_107
.Ltmp107:
.LBB0_77:
	.loc	2 864 8 is_stmt 1               @ packages/tjpgd1d/src/tjpgd.c:864:8
	ldr	r0, [sp, #32]
	ldrb	r0, [r0]
.Ltmp108:
	.loc	2 864 8 is_stmt 0               @ packages/tjpgd1d/src/tjpgd.c:864:8
	cmp	r0, #3
	beq	.LBB0_79
	b	.LBB0_78
.LBB0_78:
	.loc	2 0 8                           @ packages/tjpgd1d/src/tjpgd.c:0:8
	movs	r0, #8
.Ltmp109:
	.loc	2 864 21                        @ packages/tjpgd1d/src/tjpgd.c:864:21
	strb.w	r0, [sp, #55]
	b	.LBB0_107
.Ltmp110:
.LBB0_79:
	.loc	2 0 21                          @ packages/tjpgd1d/src/tjpgd.c:0:21
	movs	r0, #0
.Ltmp111:
	.loc	2 867 11 is_stmt 1              @ packages/tjpgd1d/src/tjpgd.c:867:11
	str	r0, [sp, #16]
	.loc	2 867 9 is_stmt 0               @ packages/tjpgd1d/src/tjpgd.c:867:9
	b	.LBB0_80
.LBB0_80:                               @ =>This Inner Loop Header: Depth=1
.Ltmp112:
	.loc	2 867 16                        @ packages/tjpgd1d/src/tjpgd.c:867:16
	ldr	r0, [sp, #16]
.Ltmp113:
	.loc	2 867 4                         @ packages/tjpgd1d/src/tjpgd.c:867:4
	cmp	r0, #2
	bhi	.LBB0_91
	b	.LBB0_81
.LBB0_81:                               @   in Loop: Header=BB0_80 Depth=1
.Ltmp114:
	.loc	2 868 9 is_stmt 1               @ packages/tjpgd1d/src/tjpgd.c:868:9
	ldr	r0, [sp, #32]
	.loc	2 868 21 is_stmt 0              @ packages/tjpgd1d/src/tjpgd.c:868:21
	ldr	r1, [sp, #16]
	.loc	2 868 15                        @ packages/tjpgd1d/src/tjpgd.c:868:15
	add.w	r0, r0, r1, lsl #1
	.loc	2 868 9                         @ packages/tjpgd1d/src/tjpgd.c:868:9
	ldrb	r0, [r0, #2]
	.loc	2 868 7                         @ packages/tjpgd1d/src/tjpgd.c:868:7
	strb.w	r0, [sp, #31]
.Ltmp115:
	.loc	2 869 9 is_stmt 1               @ packages/tjpgd1d/src/tjpgd.c:869:9
	ldrb.w	r0, [sp, #31]
	.loc	2 869 19 is_stmt 0              @ packages/tjpgd1d/src/tjpgd.c:869:19
	cbz	r0, .LBB0_84
	b	.LBB0_82
.LBB0_82:                               @   in Loop: Header=BB0_80 Depth=1
	.loc	2 869 22                        @ packages/tjpgd1d/src/tjpgd.c:869:22
	ldrb.w	r0, [sp, #31]
.Ltmp116:
	.loc	2 869 9                         @ packages/tjpgd1d/src/tjpgd.c:869:9
	cmp	r0, #17
	beq	.LBB0_84
	b	.LBB0_83
.LBB0_83:
	.loc	2 0 9                           @ packages/tjpgd1d/src/tjpgd.c:0:9
	movs	r0, #8
.Ltmp117:
	.loc	2 869 33                        @ packages/tjpgd1d/src/tjpgd.c:869:33
	strb.w	r0, [sp, #55]
	b	.LBB0_107
.Ltmp118:
.LBB0_84:                               @   in Loop: Header=BB0_80 Depth=1
	.loc	2 870 9 is_stmt 1               @ packages/tjpgd1d/src/tjpgd.c:870:9
	ldr	r0, [sp, #16]
	cmp	r0, #0
	it	ne
	movne	r0, #1
	.loc	2 870 7 is_stmt 0               @ packages/tjpgd1d/src/tjpgd.c:870:7
	strb.w	r0, [sp, #31]
.Ltmp119:
	.loc	2 871 10 is_stmt 1              @ packages/tjpgd1d/src/tjpgd.c:871:10
	ldr	r0, [sp, #48]
	.loc	2 871 23 is_stmt 0              @ packages/tjpgd1d/src/tjpgd.c:871:23
	ldrb.w	r1, [sp, #31]
	.loc	2 871 14                        @ packages/tjpgd1d/src/tjpgd.c:871:14
	add.w	r0, r0, r1, lsl #3
	.loc	2 871 10                        @ packages/tjpgd1d/src/tjpgd.c:871:10
	ldr	r0, [r0, #32]
	.loc	2 871 29                        @ packages/tjpgd1d/src/tjpgd.c:871:29
	cbz	r0, .LBB0_86
	b	.LBB0_85
.LBB0_85:                               @   in Loop: Header=BB0_80 Depth=1
	.loc	2 871 33                        @ packages/tjpgd1d/src/tjpgd.c:871:33
	ldr	r0, [sp, #48]
	.loc	2 871 46                        @ packages/tjpgd1d/src/tjpgd.c:871:46
	ldrb.w	r1, [sp, #31]
	.loc	2 871 37                        @ packages/tjpgd1d/src/tjpgd.c:871:37
	add.w	r0, r0, r1, lsl #3
	.loc	2 871 33                        @ packages/tjpgd1d/src/tjpgd.c:871:33
	ldr	r0, [r0, #36]
.Ltmp120:
	.loc	2 871 9                         @ packages/tjpgd1d/src/tjpgd.c:871:9
	cbnz	r0, .LBB0_87
	b	.LBB0_86
.LBB0_86:
	.loc	2 0 9                           @ packages/tjpgd1d/src/tjpgd.c:0:9
	movs	r0, #6
.Ltmp121:
	.loc	2 872 6 is_stmt 1               @ packages/tjpgd1d/src/tjpgd.c:872:6
	strb.w	r0, [sp, #55]
	b	.LBB0_107
.Ltmp122:
.LBB0_87:                               @   in Loop: Header=BB0_80 Depth=1
	.loc	2 874 10                        @ packages/tjpgd1d/src/tjpgd.c:874:10
	ldr	r0, [sp, #48]
	.loc	2 874 29 is_stmt 0              @ packages/tjpgd1d/src/tjpgd.c:874:29
	ldr	r1, [sp, #16]
	.loc	2 874 24                        @ packages/tjpgd1d/src/tjpgd.c:874:24
	add	r1, r0
	.loc	2 874 20                        @ packages/tjpgd1d/src/tjpgd.c:874:20
	ldrb	r1, [r1, #16]
	.loc	2 874 14                        @ packages/tjpgd1d/src/tjpgd.c:874:14
	add.w	r0, r0, r1, lsl #2
	.loc	2 874 10                        @ packages/tjpgd1d/src/tjpgd.c:874:10
	ldr	r0, [r0, #80]
.Ltmp123:
	.loc	2 874 9                         @ packages/tjpgd1d/src/tjpgd.c:874:9
	cbnz	r0, .LBB0_89
	b	.LBB0_88
.LBB0_88:
	.loc	2 0 9                           @ packages/tjpgd1d/src/tjpgd.c:0:9
	movs	r0, #6
.Ltmp124:
	.loc	2 875 6 is_stmt 1               @ packages/tjpgd1d/src/tjpgd.c:875:6
	strb.w	r0, [sp, #55]
	b	.LBB0_107
.Ltmp125:
.LBB0_89:                               @   in Loop: Header=BB0_80 Depth=1
	.loc	2 877 4                         @ packages/tjpgd1d/src/tjpgd.c:877:4
	b	.LBB0_90
.Ltmp126:
.LBB0_90:                               @   in Loop: Header=BB0_80 Depth=1
	.loc	2 867 24                        @ packages/tjpgd1d/src/tjpgd.c:867:24
	ldr	r0, [sp, #16]
	adds	r0, #1
	str	r0, [sp, #16]
	.loc	2 867 4 is_stmt 0               @ packages/tjpgd1d/src/tjpgd.c:867:4
	b	.LBB0_80
.Ltmp127:
.LBB0_91:
	.loc	2 880 8 is_stmt 1               @ packages/tjpgd1d/src/tjpgd.c:880:8
	ldr	r0, [sp, #48]
	.loc	2 880 22 is_stmt 0              @ packages/tjpgd1d/src/tjpgd.c:880:22
	ldrb	r1, [r0, #14]
	.loc	2 880 12                        @ packages/tjpgd1d/src/tjpgd.c:880:12
	ldrb	r0, [r0, #15]
	.loc	2 880 16                        @ packages/tjpgd1d/src/tjpgd.c:880:16
	muls	r0, r1, r0
	.loc	2 880 6                         @ packages/tjpgd1d/src/tjpgd.c:880:6
	str	r0, [sp, #20]
.Ltmp128:
	.loc	2 881 9 is_stmt 1               @ packages/tjpgd1d/src/tjpgd.c:881:9
	ldr	r0, [sp, #20]
.Ltmp129:
	.loc	2 881 8 is_stmt 0               @ packages/tjpgd1d/src/tjpgd.c:881:8
	cbnz	r0, .LBB0_93
	b	.LBB0_92
.LBB0_92:
	.loc	2 0 8                           @ packages/tjpgd1d/src/tjpgd.c:0:8
	movs	r0, #6
.Ltmp130:
	.loc	2 881 12                        @ packages/tjpgd1d/src/tjpgd.c:881:12
	strb.w	r0, [sp, #55]
	b	.LBB0_107
.Ltmp131:
.LBB0_93:
	.loc	2 882 10 is_stmt 1              @ packages/tjpgd1d/src/tjpgd.c:882:10
	ldr	r0, [sp, #20]
	.loc	2 882 17 is_stmt 0              @ packages/tjpgd1d/src/tjpgd.c:882:17
	lsls	r0, r0, #7
	.loc	2 882 21                        @ packages/tjpgd1d/src/tjpgd.c:882:21
	adds	r0, #64
	.loc	2 882 8                         @ packages/tjpgd1d/src/tjpgd.c:882:8
	str	r0, [sp, #8]
.Ltmp132:
	.loc	2 883 8 is_stmt 1               @ packages/tjpgd1d/src/tjpgd.c:883:8
	ldr	r0, [sp, #8]
.Ltmp133:
	.loc	2 883 8 is_stmt 0               @ packages/tjpgd1d/src/tjpgd.c:883:8
	cmp	r0, #255
	bhi	.LBB0_95
	b	.LBB0_94
.LBB0_94:
	.loc	2 0 8                           @ packages/tjpgd1d/src/tjpgd.c:0:8
	mov.w	r0, #256
.Ltmp134:
	.loc	2 883 23                        @ packages/tjpgd1d/src/tjpgd.c:883:23
	str	r0, [sp, #8]
	.loc	2 883 19                        @ packages/tjpgd1d/src/tjpgd.c:883:19
	b	.LBB0_95
.Ltmp135:
.LBB0_95:
	.loc	2 884 29 is_stmt 1              @ packages/tjpgd1d/src/tjpgd.c:884:29
	ldr	r0, [sp, #48]
	.loc	2 884 33 is_stmt 0              @ packages/tjpgd1d/src/tjpgd.c:884:33
	ldr	r1, [sp, #8]
	.loc	2 884 18                        @ packages/tjpgd1d/src/tjpgd.c:884:18
	bl	alloc_pool
	.loc	2 884 4                         @ packages/tjpgd1d/src/tjpgd.c:884:4
	ldr	r1, [sp, #48]
	.loc	2 884 16                        @ packages/tjpgd1d/src/tjpgd.c:884:16
	str	r0, [r1, #96]
.Ltmp136:
	.loc	2 885 9 is_stmt 1               @ packages/tjpgd1d/src/tjpgd.c:885:9
	ldr	r0, [sp, #48]
	.loc	2 885 13 is_stmt 0              @ packages/tjpgd1d/src/tjpgd.c:885:13
	ldr	r0, [r0, #96]
.Ltmp137:
	.loc	2 885 8                         @ packages/tjpgd1d/src/tjpgd.c:885:8
	cbnz	r0, .LBB0_97
	b	.LBB0_96
.LBB0_96:
	.loc	2 0 8                           @ packages/tjpgd1d/src/tjpgd.c:0:8
	movs	r0, #3
.Ltmp138:
	.loc	2 885 22                        @ packages/tjpgd1d/src/tjpgd.c:885:22
	strb.w	r0, [sp, #55]
	b	.LBB0_107
.Ltmp139:
.LBB0_97:
	.loc	2 886 38 is_stmt 1              @ packages/tjpgd1d/src/tjpgd.c:886:38
	ldr	r0, [sp, #48]
	.loc	2 886 58 is_stmt 0              @ packages/tjpgd1d/src/tjpgd.c:886:58
	ldr	r2, [sp, #20]
	movs	r1, #128
	.loc	2 886 65                        @ packages/tjpgd1d/src/tjpgd.c:886:65
	add.w	r1, r1, r2, lsl #6
	.loc	2 886 27                        @ packages/tjpgd1d/src/tjpgd.c:886:27
	bl	alloc_pool
	.loc	2 886 4                         @ packages/tjpgd1d/src/tjpgd.c:886:4
	ldr	r1, [sp, #48]
	.loc	2 886 15                        @ packages/tjpgd1d/src/tjpgd.c:886:15
	str	r0, [r1, #100]
.Ltmp140:
	.loc	2 887 9 is_stmt 1               @ packages/tjpgd1d/src/tjpgd.c:887:9
	ldr	r0, [sp, #48]
	.loc	2 887 13 is_stmt 0              @ packages/tjpgd1d/src/tjpgd.c:887:13
	ldr	r0, [r0, #100]
.Ltmp141:
	.loc	2 887 8                         @ packages/tjpgd1d/src/tjpgd.c:887:8
	cbnz	r0, .LBB0_99
	b	.LBB0_98
.LBB0_98:
	.loc	2 0 8                           @ packages/tjpgd1d/src/tjpgd.c:0:8
	movs	r0, #3
.Ltmp142:
	.loc	2 887 21                        @ packages/tjpgd1d/src/tjpgd.c:887:21
	strb.w	r0, [sp, #55]
	b	.LBB0_107
.Ltmp143:
.LBB0_99:
	.loc	2 890 15 is_stmt 1              @ packages/tjpgd1d/src/tjpgd.c:890:15
	ldr	r0, [sp, #32]
	.loc	2 890 4 is_stmt 0               @ packages/tjpgd1d/src/tjpgd.c:890:4
	ldr	r1, [sp, #48]
	.loc	2 890 13                        @ packages/tjpgd1d/src/tjpgd.c:890:13
	str	r0, [r1, #4]
	.loc	2 890 20                        @ packages/tjpgd1d/src/tjpgd.c:890:20
	ldr	r1, [sp, #48]
	movs	r0, #0
	.loc	2 890 29                        @ packages/tjpgd1d/src/tjpgd.c:890:29
	str	r0, [r1]
	.loc	2 890 34                        @ packages/tjpgd1d/src/tjpgd.c:890:34
	ldr	r1, [sp, #48]
	.loc	2 890 43                        @ packages/tjpgd1d/src/tjpgd.c:890:43
	strb	r0, [r1, #12]
.Ltmp144:
	.loc	2 891 12 is_stmt 1              @ packages/tjpgd1d/src/tjpgd.c:891:12
	ldr	r0, [sp, #24]
	bfc	r0, #9, #23
	str	r0, [sp, #24]
.Ltmp145:
	.loc	2 891 8 is_stmt 0               @ packages/tjpgd1d/src/tjpgd.c:891:8
	cbz	r0, .LBB0_101
	b	.LBB0_100
.LBB0_100:
.Ltmp146:
	.loc	2 892 16 is_stmt 1              @ packages/tjpgd1d/src/tjpgd.c:892:16
	ldr	r0, [sp, #48]
	.loc	2 892 20 is_stmt 0              @ packages/tjpgd1d/src/tjpgd.c:892:20
	ldr	r3, [r0, #112]
	.loc	2 892 31                        @ packages/tjpgd1d/src/tjpgd.c:892:31
	ldr	r1, [sp, #32]
	.loc	2 892 37                        @ packages/tjpgd1d/src/tjpgd.c:892:37
	ldr	r2, [sp, #24]
	.loc	2 892 35                        @ packages/tjpgd1d/src/tjpgd.c:892:35
	add	r1, r2
	.loc	2 892 66                        @ packages/tjpgd1d/src/tjpgd.c:892:66
	rsb.w	r2, r2, #512
	.loc	2 892 16                        @ packages/tjpgd1d/src/tjpgd.c:892:16
	blx	r3
	.loc	2 892 5                         @ packages/tjpgd1d/src/tjpgd.c:892:5
	ldr	r1, [sp, #48]
	.loc	2 892 14                        @ packages/tjpgd1d/src/tjpgd.c:892:14
	str	r0, [r1]
	.loc	2 893 16 is_stmt 1              @ packages/tjpgd1d/src/tjpgd.c:893:16
	ldr	r0, [sp, #32]
	.loc	2 893 22 is_stmt 0              @ packages/tjpgd1d/src/tjpgd.c:893:22
	ldr	r1, [sp, #24]
	.loc	2 893 20                        @ packages/tjpgd1d/src/tjpgd.c:893:20
	add	r0, r1
	.loc	2 893 26                        @ packages/tjpgd1d/src/tjpgd.c:893:26
	subs	r0, #1
	.loc	2 893 5                         @ packages/tjpgd1d/src/tjpgd.c:893:5
	ldr	r1, [sp, #48]
	.loc	2 893 14                        @ packages/tjpgd1d/src/tjpgd.c:893:14
	str	r0, [r1, #4]
	.loc	2 894 4 is_stmt 1               @ packages/tjpgd1d/src/tjpgd.c:894:4
	b	.LBB0_101
.Ltmp147:
.LBB0_101:
	.loc	2 0 4 is_stmt 0                 @ packages/tjpgd1d/src/tjpgd.c:0:4
	movs	r0, #0
	.loc	2 896 4 is_stmt 1               @ packages/tjpgd1d/src/tjpgd.c:896:4
	strb.w	r0, [sp, #55]
	b	.LBB0_107
.LBB0_102:
	.loc	2 0 4 is_stmt 0                 @ packages/tjpgd1d/src/tjpgd.c:0:4
	movs	r0, #8
	.loc	2 911 4 is_stmt 1               @ packages/tjpgd1d/src/tjpgd.c:911:4
	strb.w	r0, [sp, #55]
	b	.LBB0_107
.LBB0_103:                              @   in Loop: Header=BB0_21 Depth=1
.Ltmp148:
	.loc	2 915 8                         @ packages/tjpgd1d/src/tjpgd.c:915:8
	ldr	r0, [sp, #48]
	.loc	2 915 12 is_stmt 0              @ packages/tjpgd1d/src/tjpgd.c:915:12
	ldr	r3, [r0, #112]
	.loc	2 915 26                        @ packages/tjpgd1d/src/tjpgd.c:915:26
	ldr	r2, [sp, #8]
	movs	r1, #0
	.loc	2 915 8                         @ packages/tjpgd1d/src/tjpgd.c:915:8
	blx	r3
	.loc	2 915 34                        @ packages/tjpgd1d/src/tjpgd.c:915:34
	ldr	r1, [sp, #8]
.Ltmp149:
	.loc	2 915 8                         @ packages/tjpgd1d/src/tjpgd.c:915:8
	cmp	r0, r1
	beq	.LBB0_105
	b	.LBB0_104
.LBB0_104:
	.loc	2 0 8                           @ packages/tjpgd1d/src/tjpgd.c:0:8
	movs	r0, #2
.Ltmp150:
	.loc	2 916 5 is_stmt 1               @ packages/tjpgd1d/src/tjpgd.c:916:5
	strb.w	r0, [sp, #55]
	b	.LBB0_107
.Ltmp151:
.LBB0_105:                              @   in Loop: Header=BB0_21 Depth=1
	.loc	2 918 3                         @ packages/tjpgd1d/src/tjpgd.c:918:3
	b	.LBB0_106
.Ltmp152:
.LBB0_106:                              @   in Loop: Header=BB0_21 Depth=1
	.loc	2 792 2                         @ packages/tjpgd1d/src/tjpgd.c:792:2
	b	.LBB0_21
.Ltmp153:
.LBB0_107:
	.loc	2 920 1                         @ packages/tjpgd1d/src/tjpgd.c:920:1
	ldrb.w	r0, [sp, #55]
	add	sp, #56
	pop	{r7, pc}
.Ltmp154:
.Lfunc_end0:
	.size	jd_prepare, .Lfunc_end0-jd_prepare
	.cfi_endproc
	.cantunwind
	.fnend
                                        @ -- End function
	.section	.text.alloc_pool,"ax",%progbits
	.p2align	3                               @ -- Begin function alloc_pool
	.type	alloc_pool,%function
	.code	16                              @ @alloc_pool
	.thumb_func
alloc_pool:
.Lfunc_begin1:
	.loc	2 132 0                         @ packages/tjpgd1d/src/tjpgd.c:132:0
	.fnstart
	.cfi_startproc
@ %bb.0:
	.pad	#12
	sub	sp, #12
	.cfi_def_cfa_offset 12
	str	r0, [sp, #8]
	str	r1, [sp, #4]
	movs	r0, #0
.Ltmp155:
	.loc	2 133 8 prologue_end            @ packages/tjpgd1d/src/tjpgd.c:133:8
	str	r0, [sp]
	.loc	2 136 8                         @ packages/tjpgd1d/src/tjpgd.c:136:8
	ldr	r0, [sp, #4]
	.loc	2 136 11 is_stmt 0              @ packages/tjpgd1d/src/tjpgd.c:136:11
	adds	r0, #3
	.loc	2 136 16                        @ packages/tjpgd1d/src/tjpgd.c:136:16
	bic	r0, r0, #3
	.loc	2 136 5                         @ packages/tjpgd1d/src/tjpgd.c:136:5
	str	r0, [sp, #4]
.Ltmp156:
	.loc	2 138 6 is_stmt 1               @ packages/tjpgd1d/src/tjpgd.c:138:6
	ldr	r0, [sp, #8]
	.loc	2 138 10 is_stmt 0              @ packages/tjpgd1d/src/tjpgd.c:138:10
	ldr	r0, [r0, #108]
	.loc	2 138 21                        @ packages/tjpgd1d/src/tjpgd.c:138:21
	ldr	r1, [sp, #4]
.Ltmp157:
	.loc	2 138 6                         @ packages/tjpgd1d/src/tjpgd.c:138:6
	cmp	r0, r1
	blo	.LBB1_2
	b	.LBB1_1
.LBB1_1:
.Ltmp158:
	.loc	2 139 18 is_stmt 1              @ packages/tjpgd1d/src/tjpgd.c:139:18
	ldr	r2, [sp, #4]
	.loc	2 139 3 is_stmt 0               @ packages/tjpgd1d/src/tjpgd.c:139:3
	ldr	r1, [sp, #8]
	.loc	2 139 15                        @ packages/tjpgd1d/src/tjpgd.c:139:15
	ldr	r0, [r1, #108]
	subs	r0, r0, r2
	str	r0, [r1, #108]
	.loc	2 140 15 is_stmt 1              @ packages/tjpgd1d/src/tjpgd.c:140:15
	ldr	r0, [sp, #8]
	.loc	2 140 19 is_stmt 0              @ packages/tjpgd1d/src/tjpgd.c:140:19
	ldr	r0, [r0, #104]
	.loc	2 140 6                         @ packages/tjpgd1d/src/tjpgd.c:140:6
	str	r0, [sp]
	.loc	2 141 22 is_stmt 1              @ packages/tjpgd1d/src/tjpgd.c:141:22
	ldr	r0, [sp]
	.loc	2 141 27 is_stmt 0              @ packages/tjpgd1d/src/tjpgd.c:141:27
	ldr	r1, [sp, #4]
	.loc	2 141 25                        @ packages/tjpgd1d/src/tjpgd.c:141:25
	add	r0, r1
	.loc	2 141 3                         @ packages/tjpgd1d/src/tjpgd.c:141:3
	ldr	r1, [sp, #8]
	.loc	2 141 12                        @ packages/tjpgd1d/src/tjpgd.c:141:12
	str	r0, [r1, #104]
	.loc	2 142 2 is_stmt 1               @ packages/tjpgd1d/src/tjpgd.c:142:2
	b	.LBB1_2
.Ltmp159:
.LBB1_2:
	.loc	2 144 16                        @ packages/tjpgd1d/src/tjpgd.c:144:16
	ldr	r0, [sp]
	.loc	2 144 2 is_stmt 0               @ packages/tjpgd1d/src/tjpgd.c:144:2
	add	sp, #12
	bx	lr
.Ltmp160:
.Lfunc_end1:
	.size	alloc_pool, .Lfunc_end1-alloc_pool
	.cfi_endproc
	.cantunwind
	.fnend
                                        @ -- End function
	.section	.text.create_huffman_tbl,"ax",%progbits
	.p2align	3                               @ -- Begin function create_huffman_tbl
	.type	create_huffman_tbl,%function
	.code	16                              @ @create_huffman_tbl
	.thumb_func
create_huffman_tbl:
.Lfunc_begin2:
	.loc	2 195 0 is_stmt 1               @ packages/tjpgd1d/src/tjpgd.c:195:0
	.fnstart
	.cfi_startproc
@ %bb.0:
	.save	{r7, lr}
	push	{r7, lr}
	.cfi_def_cfa_offset 8
	.cfi_offset lr, -4
	.cfi_offset r7, -8
	.pad	#64
	sub	sp, #64
	.cfi_def_cfa_offset 72
	str	r0, [sp, #56]
	str	r1, [sp, #52]
	str	r2, [sp, #48]
.Ltmp161:
	.loc	2 201 2 prologue_end            @ packages/tjpgd1d/src/tjpgd.c:201:2
	b	.LBB2_1
.LBB2_1:                                @ =>This Loop Header: Depth=1
                                        @     Child Loop BB2_9 Depth 2
                                        @     Child Loop BB2_15 Depth 2
                                        @       Child Loop BB2_17 Depth 3
                                        @     Child Loop BB2_26 Depth 2
	.loc	2 201 9 is_stmt 0               @ packages/tjpgd1d/src/tjpgd.c:201:9
	ldr	r0, [sp, #48]
	.loc	2 201 2                         @ packages/tjpgd1d/src/tjpgd.c:201:2
	cmp	r0, #0
	beq.w	.LBB2_33
	b	.LBB2_2
.LBB2_2:                                @   in Loop: Header=BB2_1 Depth=1
.Ltmp162:
	.loc	2 202 7 is_stmt 1               @ packages/tjpgd1d/src/tjpgd.c:202:7
	ldr	r0, [sp, #48]
.Ltmp163:
	.loc	2 202 7 is_stmt 0               @ packages/tjpgd1d/src/tjpgd.c:202:7
	cmp	r0, #16
	bhi	.LBB2_4
	b	.LBB2_3
.LBB2_3:
	.loc	2 0 7                           @ packages/tjpgd1d/src/tjpgd.c:0:7
	movs	r0, #6
.Ltmp164:
	.loc	2 202 19                        @ packages/tjpgd1d/src/tjpgd.c:202:19
	strb.w	r0, [sp, #63]
	b	.LBB2_34
.Ltmp165:
.LBB2_4:                                @   in Loop: Header=BB2_1 Depth=1
	.loc	2 203 9 is_stmt 1               @ packages/tjpgd1d/src/tjpgd.c:203:9
	ldr	r0, [sp, #48]
	subs	r0, #17
	str	r0, [sp, #48]
	.loc	2 204 12                        @ packages/tjpgd1d/src/tjpgd.c:204:12
	ldr	r0, [sp, #52]
	adds	r1, r0, #1
	str	r1, [sp, #52]
	.loc	2 204 7 is_stmt 0               @ packages/tjpgd1d/src/tjpgd.c:204:7
	ldrb	r0, [r0]
	.loc	2 204 5                         @ packages/tjpgd1d/src/tjpgd.c:204:5
	strb.w	r0, [sp, #23]
.Ltmp166:
	.loc	2 205 7 is_stmt 1               @ packages/tjpgd1d/src/tjpgd.c:205:7
	ldrb.w	r0, [sp, #23]
.Ltmp167:
	.loc	2 205 7 is_stmt 0               @ packages/tjpgd1d/src/tjpgd.c:205:7
	tst.w	r0, #238
	beq	.LBB2_6
	b	.LBB2_5
.LBB2_5:
	.loc	2 0 7                           @ packages/tjpgd1d/src/tjpgd.c:0:7
	movs	r0, #6
.Ltmp168:
	.loc	2 205 17                        @ packages/tjpgd1d/src/tjpgd.c:205:17
	strb.w	r0, [sp, #63]
	b	.LBB2_34
.Ltmp169:
.LBB2_6:                                @   in Loop: Header=BB2_1 Depth=1
	.loc	2 206 9 is_stmt 1               @ packages/tjpgd1d/src/tjpgd.c:206:9
	ldrb.w	r0, [sp, #23]
	.loc	2 206 11 is_stmt 0              @ packages/tjpgd1d/src/tjpgd.c:206:11
	lsrs	r0, r0, #4
	.loc	2 206 7                         @ packages/tjpgd1d/src/tjpgd.c:206:7
	str	r0, [sp, #28]
	.loc	2 206 23                        @ packages/tjpgd1d/src/tjpgd.c:206:23
	ldrb.w	r0, [sp, #23]
	.loc	2 206 25                        @ packages/tjpgd1d/src/tjpgd.c:206:25
	and	r0, r0, #15
	.loc	2 206 21                        @ packages/tjpgd1d/src/tjpgd.c:206:21
	str	r0, [sp, #24]
	.loc	2 207 19 is_stmt 1              @ packages/tjpgd1d/src/tjpgd.c:207:19
	ldr	r0, [sp, #56]
	movs	r1, #16
	.loc	2 207 8 is_stmt 0               @ packages/tjpgd1d/src/tjpgd.c:207:8
	bl	alloc_pool
	.loc	2 207 6                         @ packages/tjpgd1d/src/tjpgd.c:207:6
	str	r0, [sp, #16]
.Ltmp170:
	.loc	2 208 8 is_stmt 1               @ packages/tjpgd1d/src/tjpgd.c:208:8
	ldr	r0, [sp, #16]
.Ltmp171:
	.loc	2 208 7 is_stmt 0               @ packages/tjpgd1d/src/tjpgd.c:208:7
	cbnz	r0, .LBB2_8
	b	.LBB2_7
.LBB2_7:
	.loc	2 0 7                           @ packages/tjpgd1d/src/tjpgd.c:0:7
	movs	r0, #3
.Ltmp172:
	.loc	2 208 12                        @ packages/tjpgd1d/src/tjpgd.c:208:12
	strb.w	r0, [sp, #63]
	b	.LBB2_34
.Ltmp173:
.LBB2_8:                                @   in Loop: Header=BB2_1 Depth=1
	.loc	2 209 28 is_stmt 1              @ packages/tjpgd1d/src/tjpgd.c:209:28
	ldr	r0, [sp, #16]
	.loc	2 209 3 is_stmt 0               @ packages/tjpgd1d/src/tjpgd.c:209:3
	ldr	r1, [sp, #56]
	.loc	2 209 16                        @ packages/tjpgd1d/src/tjpgd.c:209:16
	ldr	r2, [sp, #24]
	.loc	2 209 7                         @ packages/tjpgd1d/src/tjpgd.c:209:7
	add.w	r1, r1, r2, lsl #3
	.loc	2 209 21                        @ packages/tjpgd1d/src/tjpgd.c:209:21
	ldr	r2, [sp, #28]
	.loc	2 209 3                         @ packages/tjpgd1d/src/tjpgd.c:209:3
	add.w	r1, r1, r2, lsl #2
	.loc	2 209 26                        @ packages/tjpgd1d/src/tjpgd.c:209:26
	str	r0, [r1, #32]
	movs	r0, #0
.Ltmp174:
	.loc	2 210 15 is_stmt 1              @ packages/tjpgd1d/src/tjpgd.c:210:15
	str	r0, [sp, #44]
	.loc	2 210 11 is_stmt 0              @ packages/tjpgd1d/src/tjpgd.c:210:11
	str	r0, [sp, #32]
	.loc	2 210 8                         @ packages/tjpgd1d/src/tjpgd.c:210:8
	b	.LBB2_9
.LBB2_9:                                @   Parent Loop BB2_1 Depth=1
                                        @ =>  This Inner Loop Header: Depth=2
.Ltmp175:
	.loc	2 210 20                        @ packages/tjpgd1d/src/tjpgd.c:210:20
	ldr	r0, [sp, #44]
.Ltmp176:
	.loc	2 210 3                         @ packages/tjpgd1d/src/tjpgd.c:210:3
	cmp	r0, #15
	bhi	.LBB2_12
	b	.LBB2_10
.LBB2_10:                               @   in Loop: Header=BB2_9 Depth=2
.Ltmp177:
	.loc	2 211 24 is_stmt 1              @ packages/tjpgd1d/src/tjpgd.c:211:24
	ldr	r0, [sp, #52]
	adds	r1, r0, #1
	str	r1, [sp, #52]
	.loc	2 211 19 is_stmt 0              @ packages/tjpgd1d/src/tjpgd.c:211:19
	ldrb	r1, [r0]
	.loc	2 211 11                        @ packages/tjpgd1d/src/tjpgd.c:211:11
	ldr	r0, [sp, #16]
	.loc	2 211 14                        @ packages/tjpgd1d/src/tjpgd.c:211:14
	ldr	r2, [sp, #44]
	.loc	2 211 17                        @ packages/tjpgd1d/src/tjpgd.c:211:17
	strb	r1, [r0, r2]
	.loc	2 211 7                         @ packages/tjpgd1d/src/tjpgd.c:211:7
	ldr	r0, [sp, #32]
	add	r0, r1
	str	r0, [sp, #32]
	.loc	2 212 3 is_stmt 1               @ packages/tjpgd1d/src/tjpgd.c:212:3
	b	.LBB2_11
.Ltmp178:
.LBB2_11:                               @   in Loop: Header=BB2_9 Depth=2
	.loc	2 210 29                        @ packages/tjpgd1d/src/tjpgd.c:210:29
	ldr	r0, [sp, #44]
	adds	r0, #1
	str	r0, [sp, #44]
	.loc	2 210 3 is_stmt 0               @ packages/tjpgd1d/src/tjpgd.c:210:3
	b	.LBB2_9
.Ltmp179:
.LBB2_12:                               @   in Loop: Header=BB2_1 Depth=1
	.loc	2 213 19 is_stmt 1              @ packages/tjpgd1d/src/tjpgd.c:213:19
	ldr	r0, [sp, #56]
	.loc	2 213 38 is_stmt 0              @ packages/tjpgd1d/src/tjpgd.c:213:38
	ldr	r1, [sp, #32]
	.loc	2 213 41                        @ packages/tjpgd1d/src/tjpgd.c:213:41
	lsls	r1, r1, #1
	.loc	2 213 8                         @ packages/tjpgd1d/src/tjpgd.c:213:8
	bl	alloc_pool
	.loc	2 213 6                         @ packages/tjpgd1d/src/tjpgd.c:213:6
	str	r0, [sp, #4]
.Ltmp180:
	.loc	2 214 8 is_stmt 1               @ packages/tjpgd1d/src/tjpgd.c:214:8
	ldr	r0, [sp, #4]
.Ltmp181:
	.loc	2 214 7 is_stmt 0               @ packages/tjpgd1d/src/tjpgd.c:214:7
	cbnz	r0, .LBB2_14
	b	.LBB2_13
.LBB2_13:
	.loc	2 0 7                           @ packages/tjpgd1d/src/tjpgd.c:0:7
	movs	r0, #3
.Ltmp182:
	.loc	2 214 12                        @ packages/tjpgd1d/src/tjpgd.c:214:12
	strb.w	r0, [sp, #63]
	b	.LBB2_34
.Ltmp183:
.LBB2_14:                               @   in Loop: Header=BB2_1 Depth=1
	.loc	2 215 28 is_stmt 1              @ packages/tjpgd1d/src/tjpgd.c:215:28
	ldr	r0, [sp, #4]
	.loc	2 215 3 is_stmt 0               @ packages/tjpgd1d/src/tjpgd.c:215:3
	ldr	r1, [sp, #56]
	.loc	2 215 16                        @ packages/tjpgd1d/src/tjpgd.c:215:16
	ldr	r2, [sp, #24]
	.loc	2 215 7                         @ packages/tjpgd1d/src/tjpgd.c:215:7
	add.w	r1, r1, r2, lsl #3
	.loc	2 215 21                        @ packages/tjpgd1d/src/tjpgd.c:215:21
	ldr	r2, [sp, #28]
	.loc	2 215 3                         @ packages/tjpgd1d/src/tjpgd.c:215:3
	add.w	r1, r1, r2, lsl #2
	.loc	2 215 26                        @ packages/tjpgd1d/src/tjpgd.c:215:26
	str	r0, [r1, #48]
	movs	r0, #0
	.loc	2 216 6 is_stmt 1               @ packages/tjpgd1d/src/tjpgd.c:216:6
	strh.w	r0, [sp, #10]
.Ltmp184:
	.loc	2 217 14                        @ packages/tjpgd1d/src/tjpgd.c:217:14
	str	r0, [sp, #44]
	.loc	2 217 10 is_stmt 0              @ packages/tjpgd1d/src/tjpgd.c:217:10
	str	r0, [sp, #40]
	.loc	2 217 8                         @ packages/tjpgd1d/src/tjpgd.c:217:8
	b	.LBB2_15
.LBB2_15:                               @   Parent Loop BB2_1 Depth=1
                                        @ =>  This Loop Header: Depth=2
                                        @       Child Loop BB2_17 Depth 3
.Ltmp185:
	.loc	2 217 19                        @ packages/tjpgd1d/src/tjpgd.c:217:19
	ldr	r0, [sp, #44]
.Ltmp186:
	.loc	2 217 3                         @ packages/tjpgd1d/src/tjpgd.c:217:3
	cmp	r0, #15
	bhi	.LBB2_21
	b	.LBB2_16
.LBB2_16:                               @   in Loop: Header=BB2_15 Depth=2
.Ltmp187:
	.loc	2 218 8 is_stmt 1               @ packages/tjpgd1d/src/tjpgd.c:218:8
	ldr	r0, [sp, #16]
	.loc	2 218 11 is_stmt 0              @ packages/tjpgd1d/src/tjpgd.c:218:11
	ldr	r1, [sp, #44]
	.loc	2 218 8                         @ packages/tjpgd1d/src/tjpgd.c:218:8
	ldrb	r0, [r0, r1]
	.loc	2 218 6                         @ packages/tjpgd1d/src/tjpgd.c:218:6
	str	r0, [sp, #36]
	.loc	2 219 4 is_stmt 1               @ packages/tjpgd1d/src/tjpgd.c:219:4
	b	.LBB2_17
.LBB2_17:                               @   Parent Loop BB2_1 Depth=1
                                        @     Parent Loop BB2_15 Depth=2
                                        @ =>    This Inner Loop Header: Depth=3
	.loc	2 219 12 is_stmt 0              @ packages/tjpgd1d/src/tjpgd.c:219:12
	ldr	r0, [sp, #36]
	subs	r1, r0, #1
	str	r1, [sp, #36]
	.loc	2 219 4                         @ packages/tjpgd1d/src/tjpgd.c:219:4
	cbz	r0, .LBB2_19
	b	.LBB2_18
.LBB2_18:                               @   in Loop: Header=BB2_17 Depth=3
	.loc	2 219 28                        @ packages/tjpgd1d/src/tjpgd.c:219:28
	ldrh.w	r0, [sp, #10]
	adds	r1, r0, #1
	strh.w	r1, [sp, #10]
	.loc	2 219 16                        @ packages/tjpgd1d/src/tjpgd.c:219:16
	ldr	r1, [sp, #4]
	.loc	2 219 20                        @ packages/tjpgd1d/src/tjpgd.c:219:20
	ldr	r2, [sp, #40]
	adds	r3, r2, #1
	str	r3, [sp, #40]
	.loc	2 219 24                        @ packages/tjpgd1d/src/tjpgd.c:219:24
	strh.w	r0, [r1, r2, lsl #1]
	.loc	2 219 4                         @ packages/tjpgd1d/src/tjpgd.c:219:4
	b	.LBB2_17
.LBB2_19:                               @   in Loop: Header=BB2_15 Depth=2
	.loc	2 220 7 is_stmt 1               @ packages/tjpgd1d/src/tjpgd.c:220:7
	ldrh.w	r0, [sp, #10]
	lsls	r0, r0, #1
	strh.w	r0, [sp, #10]
	.loc	2 221 3                         @ packages/tjpgd1d/src/tjpgd.c:221:3
	b	.LBB2_20
.Ltmp188:
.LBB2_20:                               @   in Loop: Header=BB2_15 Depth=2
	.loc	2 217 28                        @ packages/tjpgd1d/src/tjpgd.c:217:28
	ldr	r0, [sp, #44]
	adds	r0, #1
	str	r0, [sp, #44]
	.loc	2 217 3 is_stmt 0               @ packages/tjpgd1d/src/tjpgd.c:217:3
	b	.LBB2_15
.Ltmp189:
.LBB2_21:                               @   in Loop: Header=BB2_1 Depth=1
	.loc	2 223 7 is_stmt 1               @ packages/tjpgd1d/src/tjpgd.c:223:7
	ldr	r0, [sp, #48]
	.loc	2 223 15 is_stmt 0              @ packages/tjpgd1d/src/tjpgd.c:223:15
	ldr	r1, [sp, #32]
.Ltmp190:
	.loc	2 223 7                         @ packages/tjpgd1d/src/tjpgd.c:223:7
	cmp	r0, r1
	bhs	.LBB2_23
	b	.LBB2_22
.LBB2_22:
	.loc	2 0 7                           @ packages/tjpgd1d/src/tjpgd.c:0:7
	movs	r0, #6
.Ltmp191:
	.loc	2 223 19                        @ packages/tjpgd1d/src/tjpgd.c:223:19
	strb.w	r0, [sp, #63]
	b	.LBB2_34
.Ltmp192:
.LBB2_23:                               @   in Loop: Header=BB2_1 Depth=1
	.loc	2 224 12 is_stmt 1              @ packages/tjpgd1d/src/tjpgd.c:224:12
	ldr	r1, [sp, #32]
	.loc	2 224 9 is_stmt 0               @ packages/tjpgd1d/src/tjpgd.c:224:9
	ldr	r0, [sp, #48]
	subs	r0, r0, r1
	str	r0, [sp, #48]
	.loc	2 225 19 is_stmt 1              @ packages/tjpgd1d/src/tjpgd.c:225:19
	ldr	r0, [sp, #56]
	.loc	2 225 23 is_stmt 0              @ packages/tjpgd1d/src/tjpgd.c:225:23
	ldr	r1, [sp, #32]
	.loc	2 225 8                         @ packages/tjpgd1d/src/tjpgd.c:225:8
	bl	alloc_pool
	.loc	2 225 6                         @ packages/tjpgd1d/src/tjpgd.c:225:6
	str	r0, [sp, #12]
.Ltmp193:
	.loc	2 226 8 is_stmt 1               @ packages/tjpgd1d/src/tjpgd.c:226:8
	ldr	r0, [sp, #12]
.Ltmp194:
	.loc	2 226 7 is_stmt 0               @ packages/tjpgd1d/src/tjpgd.c:226:7
	cbnz	r0, .LBB2_25
	b	.LBB2_24
.LBB2_24:
	.loc	2 0 7                           @ packages/tjpgd1d/src/tjpgd.c:0:7
	movs	r0, #3
.Ltmp195:
	.loc	2 226 12                        @ packages/tjpgd1d/src/tjpgd.c:226:12
	strb.w	r0, [sp, #63]
	b	.LBB2_34
.Ltmp196:
.LBB2_25:                               @   in Loop: Header=BB2_1 Depth=1
	.loc	2 227 28 is_stmt 1              @ packages/tjpgd1d/src/tjpgd.c:227:28
	ldr	r0, [sp, #12]
	.loc	2 227 3 is_stmt 0               @ packages/tjpgd1d/src/tjpgd.c:227:3
	ldr	r1, [sp, #56]
	.loc	2 227 16                        @ packages/tjpgd1d/src/tjpgd.c:227:16
	ldr	r2, [sp, #24]
	.loc	2 227 7                         @ packages/tjpgd1d/src/tjpgd.c:227:7
	add.w	r1, r1, r2, lsl #3
	.loc	2 227 21                        @ packages/tjpgd1d/src/tjpgd.c:227:21
	ldr	r2, [sp, #28]
	.loc	2 227 3                         @ packages/tjpgd1d/src/tjpgd.c:227:3
	add.w	r1, r1, r2, lsl #2
	.loc	2 227 26                        @ packages/tjpgd1d/src/tjpgd.c:227:26
	str	r0, [r1, #64]
	movs	r0, #0
.Ltmp197:
	.loc	2 228 10 is_stmt 1              @ packages/tjpgd1d/src/tjpgd.c:228:10
	str	r0, [sp, #44]
	.loc	2 228 8 is_stmt 0               @ packages/tjpgd1d/src/tjpgd.c:228:8
	b	.LBB2_26
.LBB2_26:                               @   Parent Loop BB2_1 Depth=1
                                        @ =>  This Inner Loop Header: Depth=2
.Ltmp198:
	.loc	2 228 15                        @ packages/tjpgd1d/src/tjpgd.c:228:15
	ldr	r0, [sp, #44]
	.loc	2 228 19                        @ packages/tjpgd1d/src/tjpgd.c:228:19
	ldr	r1, [sp, #32]
.Ltmp199:
	.loc	2 228 3                         @ packages/tjpgd1d/src/tjpgd.c:228:3
	cmp	r0, r1
	bhs	.LBB2_32
	b	.LBB2_27
.LBB2_27:                               @   in Loop: Header=BB2_26 Depth=2
.Ltmp200:
	.loc	2 229 13 is_stmt 1              @ packages/tjpgd1d/src/tjpgd.c:229:13
	ldr	r0, [sp, #52]
	adds	r1, r0, #1
	str	r1, [sp, #52]
	.loc	2 229 8 is_stmt 0               @ packages/tjpgd1d/src/tjpgd.c:229:8
	ldrb	r0, [r0]
	.loc	2 229 6                         @ packages/tjpgd1d/src/tjpgd.c:229:6
	strb.w	r0, [sp, #23]
.Ltmp201:
	.loc	2 230 9 is_stmt 1               @ packages/tjpgd1d/src/tjpgd.c:230:9
	ldr	r0, [sp, #28]
	.loc	2 230 13 is_stmt 0              @ packages/tjpgd1d/src/tjpgd.c:230:13
	cbnz	r0, .LBB2_30
	b	.LBB2_28
.LBB2_28:                               @   in Loop: Header=BB2_26 Depth=2
	.loc	2 230 16                        @ packages/tjpgd1d/src/tjpgd.c:230:16
	ldrb.w	r0, [sp, #23]
.Ltmp202:
	.loc	2 230 8                         @ packages/tjpgd1d/src/tjpgd.c:230:8
	cmp	r0, #12
	blt	.LBB2_30
	b	.LBB2_29
.LBB2_29:
	.loc	2 0 8                           @ packages/tjpgd1d/src/tjpgd.c:0:8
	movs	r0, #6
.Ltmp203:
	.loc	2 230 24                        @ packages/tjpgd1d/src/tjpgd.c:230:24
	strb.w	r0, [sp, #63]
	b	.LBB2_34
.Ltmp204:
.LBB2_30:                               @   in Loop: Header=BB2_26 Depth=2
	.loc	2 231 12 is_stmt 1              @ packages/tjpgd1d/src/tjpgd.c:231:12
	ldrb.w	r0, [sp, #23]
	.loc	2 231 7 is_stmt 0               @ packages/tjpgd1d/src/tjpgd.c:231:7
	ldr	r1, [sp, #12]
	adds	r2, r1, #1
	str	r2, [sp, #12]
	.loc	2 231 10                        @ packages/tjpgd1d/src/tjpgd.c:231:10
	strb	r0, [r1]
	.loc	2 232 3 is_stmt 1               @ packages/tjpgd1d/src/tjpgd.c:232:3
	b	.LBB2_31
.Ltmp205:
.LBB2_31:                               @   in Loop: Header=BB2_26 Depth=2
	.loc	2 228 24                        @ packages/tjpgd1d/src/tjpgd.c:228:24
	ldr	r0, [sp, #44]
	adds	r0, #1
	str	r0, [sp, #44]
	.loc	2 228 3 is_stmt 0               @ packages/tjpgd1d/src/tjpgd.c:228:3
	b	.LBB2_26
.Ltmp206:
.LBB2_32:                               @   in Loop: Header=BB2_1 Depth=1
	.loc	2 201 2 is_stmt 1               @ packages/tjpgd1d/src/tjpgd.c:201:2
	b	.LBB2_1
.LBB2_33:
	.loc	2 0 2 is_stmt 0                 @ packages/tjpgd1d/src/tjpgd.c:0:2
	movs	r0, #0
	.loc	2 235 2 is_stmt 1               @ packages/tjpgd1d/src/tjpgd.c:235:2
	strb.w	r0, [sp, #63]
	b	.LBB2_34
.LBB2_34:
	.loc	2 236 1                         @ packages/tjpgd1d/src/tjpgd.c:236:1
	ldrb.w	r0, [sp, #63]
	add	sp, #64
	pop	{r7, pc}
.Ltmp207:
.Lfunc_end2:
	.size	create_huffman_tbl, .Lfunc_end2-create_huffman_tbl
	.cfi_endproc
	.cantunwind
	.fnend
                                        @ -- End function
	.section	.text.create_qt_tbl,"ax",%progbits
	.p2align	3                               @ -- Begin function create_qt_tbl
	.type	create_qt_tbl,%function
	.code	16                              @ @create_qt_tbl
	.thumb_func
create_qt_tbl:
.Lfunc_begin3:
	.loc	2 159 0                         @ packages/tjpgd1d/src/tjpgd.c:159:0
	.fnstart
	.cfi_startproc
@ %bb.0:
	.save	{r7, lr}
	push	{r7, lr}
	.cfi_def_cfa_offset 8
	.cfi_offset lr, -4
	.cfi_offset r7, -8
	.pad	#32
	sub	sp, #32
	.cfi_def_cfa_offset 40
	str	r0, [sp, #24]
	str	r1, [sp, #20]
	str	r2, [sp, #16]
.Ltmp208:
	.loc	2 165 2 prologue_end            @ packages/tjpgd1d/src/tjpgd.c:165:2
	b	.LBB3_1
.LBB3_1:                                @ =>This Loop Header: Depth=1
                                        @     Child Loop BB3_9 Depth 2
	.loc	2 165 9 is_stmt 0               @ packages/tjpgd1d/src/tjpgd.c:165:9
	ldr	r0, [sp, #16]
	.loc	2 165 2                         @ packages/tjpgd1d/src/tjpgd.c:165:2
	cmp	r0, #0
	beq	.LBB3_13
	b	.LBB3_2
.LBB3_2:                                @   in Loop: Header=BB3_1 Depth=1
.Ltmp209:
	.loc	2 166 7 is_stmt 1               @ packages/tjpgd1d/src/tjpgd.c:166:7
	ldr	r0, [sp, #16]
.Ltmp210:
	.loc	2 166 7 is_stmt 0               @ packages/tjpgd1d/src/tjpgd.c:166:7
	cmp	r0, #64
	bhi	.LBB3_4
	b	.LBB3_3
.LBB3_3:
	.loc	2 0 7                           @ packages/tjpgd1d/src/tjpgd.c:0:7
	movs	r0, #6
.Ltmp211:
	.loc	2 166 19                        @ packages/tjpgd1d/src/tjpgd.c:166:19
	strb.w	r0, [sp, #31]
	b	.LBB3_14
.Ltmp212:
.LBB3_4:                                @   in Loop: Header=BB3_1 Depth=1
	.loc	2 167 9 is_stmt 1               @ packages/tjpgd1d/src/tjpgd.c:167:9
	ldr	r0, [sp, #16]
	subs	r0, #65
	str	r0, [sp, #16]
	.loc	2 168 12                        @ packages/tjpgd1d/src/tjpgd.c:168:12
	ldr	r0, [sp, #20]
	adds	r1, r0, #1
	str	r1, [sp, #20]
	.loc	2 168 7 is_stmt 0               @ packages/tjpgd1d/src/tjpgd.c:168:7
	ldrb	r0, [r0]
	.loc	2 168 5                         @ packages/tjpgd1d/src/tjpgd.c:168:5
	strb.w	r0, [sp, #11]
.Ltmp213:
	.loc	2 169 7 is_stmt 1               @ packages/tjpgd1d/src/tjpgd.c:169:7
	ldrb.w	r0, [sp, #11]
.Ltmp214:
	.loc	2 169 7 is_stmt 0               @ packages/tjpgd1d/src/tjpgd.c:169:7
	tst.w	r0, #240
	beq	.LBB3_6
	b	.LBB3_5
.LBB3_5:
	.loc	2 0 7                           @ packages/tjpgd1d/src/tjpgd.c:0:7
	movs	r0, #6
.Ltmp215:
	.loc	2 169 17                        @ packages/tjpgd1d/src/tjpgd.c:169:17
	strb.w	r0, [sp, #31]
	b	.LBB3_14
.Ltmp216:
.LBB3_6:                                @   in Loop: Header=BB3_1 Depth=1
	.loc	2 170 7 is_stmt 1               @ packages/tjpgd1d/src/tjpgd.c:170:7
	ldrb.w	r0, [sp, #11]
	.loc	2 170 9 is_stmt 0               @ packages/tjpgd1d/src/tjpgd.c:170:9
	and	r0, r0, #3
	.loc	2 170 5                         @ packages/tjpgd1d/src/tjpgd.c:170:5
	str	r0, [sp, #12]
	.loc	2 171 19 is_stmt 1              @ packages/tjpgd1d/src/tjpgd.c:171:19
	ldr	r0, [sp, #24]
	mov.w	r1, #256
	.loc	2 171 8 is_stmt 0               @ packages/tjpgd1d/src/tjpgd.c:171:8
	bl	alloc_pool
	.loc	2 171 6                         @ packages/tjpgd1d/src/tjpgd.c:171:6
	str	r0, [sp, #4]
.Ltmp217:
	.loc	2 172 8 is_stmt 1               @ packages/tjpgd1d/src/tjpgd.c:172:8
	ldr	r0, [sp, #4]
.Ltmp218:
	.loc	2 172 7 is_stmt 0               @ packages/tjpgd1d/src/tjpgd.c:172:7
	cbnz	r0, .LBB3_8
	b	.LBB3_7
.LBB3_7:
	.loc	2 0 7                           @ packages/tjpgd1d/src/tjpgd.c:0:7
	movs	r0, #3
.Ltmp219:
	.loc	2 172 12                        @ packages/tjpgd1d/src/tjpgd.c:172:12
	strb.w	r0, [sp, #31]
	b	.LBB3_14
.Ltmp220:
.LBB3_8:                                @   in Loop: Header=BB3_1 Depth=1
	.loc	2 173 18 is_stmt 1              @ packages/tjpgd1d/src/tjpgd.c:173:18
	ldr	r0, [sp, #4]
	.loc	2 173 3 is_stmt 0               @ packages/tjpgd1d/src/tjpgd.c:173:3
	ldr	r1, [sp, #24]
	.loc	2 173 13                        @ packages/tjpgd1d/src/tjpgd.c:173:13
	ldr	r2, [sp, #12]
	.loc	2 173 7                         @ packages/tjpgd1d/src/tjpgd.c:173:7
	add.w	r1, r1, r2, lsl #2
	.loc	2 173 16                        @ packages/tjpgd1d/src/tjpgd.c:173:16
	str	r0, [r1, #80]
	movs	r0, #0
.Ltmp221:
	.loc	2 174 10 is_stmt 1              @ packages/tjpgd1d/src/tjpgd.c:174:10
	str	r0, [sp, #12]
	.loc	2 174 8 is_stmt 0               @ packages/tjpgd1d/src/tjpgd.c:174:8
	b	.LBB3_9
.LBB3_9:                                @   Parent Loop BB3_1 Depth=1
                                        @ =>  This Inner Loop Header: Depth=2
.Ltmp222:
	.loc	2 174 15                        @ packages/tjpgd1d/src/tjpgd.c:174:15
	ldr	r0, [sp, #12]
.Ltmp223:
	.loc	2 174 3                         @ packages/tjpgd1d/src/tjpgd.c:174:3
	cmp	r0, #63
	bhi	.LBB3_12
	b	.LBB3_10
.LBB3_10:                               @   in Loop: Header=BB3_9 Depth=2
.Ltmp224:
	.loc	2 175 8 is_stmt 1               @ packages/tjpgd1d/src/tjpgd.c:175:8
	ldr	r1, [sp, #12]
	movw	r0, :lower16:Zig
	movt	r0, :upper16:Zig
	ldrb	r0, [r0, r1]
	.loc	2 175 6 is_stmt 0               @ packages/tjpgd1d/src/tjpgd.c:175:6
	strb.w	r0, [sp, #10]
	.loc	2 176 37 is_stmt 1              @ packages/tjpgd1d/src/tjpgd.c:176:37
	ldr	r0, [sp, #20]
	adds	r1, r0, #1
	str	r1, [sp, #20]
	.loc	2 176 32 is_stmt 0              @ packages/tjpgd1d/src/tjpgd.c:176:32
	ldrb	r0, [r0]
	.loc	2 176 42                        @ packages/tjpgd1d/src/tjpgd.c:176:42
	ldrb.w	r2, [sp, #10]
	movw	r1, :lower16:Ipsf
	movt	r1, :upper16:Ipsf
	ldrh.w	r1, [r1, r2, lsl #1]
	.loc	2 176 40                        @ packages/tjpgd1d/src/tjpgd.c:176:40
	muls	r0, r1, r0
	.loc	2 176 4                         @ packages/tjpgd1d/src/tjpgd.c:176:4
	ldr	r1, [sp, #4]
	.loc	2 176 10                        @ packages/tjpgd1d/src/tjpgd.c:176:10
	str.w	r0, [r1, r2, lsl #2]
	.loc	2 177 3 is_stmt 1               @ packages/tjpgd1d/src/tjpgd.c:177:3
	b	.LBB3_11
.Ltmp225:
.LBB3_11:                               @   in Loop: Header=BB3_9 Depth=2
	.loc	2 174 24                        @ packages/tjpgd1d/src/tjpgd.c:174:24
	ldr	r0, [sp, #12]
	adds	r0, #1
	str	r0, [sp, #12]
	.loc	2 174 3 is_stmt 0               @ packages/tjpgd1d/src/tjpgd.c:174:3
	b	.LBB3_9
.Ltmp226:
.LBB3_12:                               @   in Loop: Header=BB3_1 Depth=1
	.loc	2 165 2 is_stmt 1               @ packages/tjpgd1d/src/tjpgd.c:165:2
	b	.LBB3_1
.LBB3_13:
	.loc	2 0 2 is_stmt 0                 @ packages/tjpgd1d/src/tjpgd.c:0:2
	movs	r0, #0
	.loc	2 180 2 is_stmt 1               @ packages/tjpgd1d/src/tjpgd.c:180:2
	strb.w	r0, [sp, #31]
	b	.LBB3_14
.LBB3_14:
	.loc	2 181 1                         @ packages/tjpgd1d/src/tjpgd.c:181:1
	ldrb.w	r0, [sp, #31]
	add	sp, #32
	pop	{r7, pc}
.Ltmp227:
.Lfunc_end3:
	.size	create_qt_tbl, .Lfunc_end3-create_qt_tbl
	.cfi_endproc
	.cantunwind
	.fnend
                                        @ -- End function
	.section	.text.jd_decomp,"ax",%progbits
	.hidden	jd_decomp                       @ -- Begin function jd_decomp
	.globl	jd_decomp
	.p2align	3
	.type	jd_decomp,%function
	.code	16                              @ @jd_decomp
	.thumb_func
jd_decomp:
.Lfunc_begin4:
	.loc	2 934 0                         @ packages/tjpgd1d/src/tjpgd.c:934:0
	.fnstart
	.cfi_startproc
@ %bb.0:
	.save	{r7, lr}
	push	{r7, lr}
	.cfi_def_cfa_offset 8
	.cfi_offset lr, -4
	.cfi_offset r7, -8
	.pad	#40
	sub	sp, #40
	.cfi_def_cfa_offset 48
                                        @ kill: def $r3 killed $r2
	str	r0, [sp, #32]
	str	r1, [sp, #28]
	strb.w	r2, [sp, #27]
.Ltmp228:
	.loc	2 940 6 prologue_end            @ packages/tjpgd1d/src/tjpgd.c:940:6
	ldrb.w	r0, [sp, #27]
.Ltmp229:
	.loc	2 940 6 is_stmt 0               @ packages/tjpgd1d/src/tjpgd.c:940:6
	cmp	r0, #4
	blt	.LBB4_2
	b	.LBB4_1
.LBB4_1:
	.loc	2 0 6                           @ packages/tjpgd1d/src/tjpgd.c:0:6
	movs	r0, #5
.Ltmp230:
	.loc	2 940 38                        @ packages/tjpgd1d/src/tjpgd.c:940:38
	strb.w	r0, [sp, #39]
	b	.LBB4_20
.Ltmp231:
.LBB4_2:
	.loc	2 941 14 is_stmt 1              @ packages/tjpgd1d/src/tjpgd.c:941:14
	ldrb.w	r0, [sp, #27]
	.loc	2 941 2 is_stmt 0               @ packages/tjpgd1d/src/tjpgd.c:941:2
	ldr	r1, [sp, #32]
	.loc	2 941 12                        @ packages/tjpgd1d/src/tjpgd.c:941:12
	strb	r0, [r1, #13]
	.loc	2 943 7 is_stmt 1               @ packages/tjpgd1d/src/tjpgd.c:943:7
	ldr	r0, [sp, #32]
	.loc	2 943 11 is_stmt 0              @ packages/tjpgd1d/src/tjpgd.c:943:11
	ldrb	r0, [r0, #14]
	.loc	2 943 15                        @ packages/tjpgd1d/src/tjpgd.c:943:15
	lsls	r0, r0, #3
	.loc	2 943 5                         @ packages/tjpgd1d/src/tjpgd.c:943:5
	str	r0, [sp, #12]
	.loc	2 943 25                        @ packages/tjpgd1d/src/tjpgd.c:943:25
	ldr	r0, [sp, #32]
	.loc	2 943 29                        @ packages/tjpgd1d/src/tjpgd.c:943:29
	ldrb	r0, [r0, #15]
	.loc	2 943 33                        @ packages/tjpgd1d/src/tjpgd.c:943:33
	lsls	r0, r0, #3
	.loc	2 943 23                        @ packages/tjpgd1d/src/tjpgd.c:943:23
	str	r0, [sp, #8]
	.loc	2 945 28 is_stmt 1              @ packages/tjpgd1d/src/tjpgd.c:945:28
	ldr	r1, [sp, #32]
	movs	r0, #0
	.loc	2 945 39 is_stmt 0              @ packages/tjpgd1d/src/tjpgd.c:945:39
	strh	r0, [r1, #20]
	.loc	2 945 15                        @ packages/tjpgd1d/src/tjpgd.c:945:15
	ldr	r1, [sp, #32]
	.loc	2 945 26                        @ packages/tjpgd1d/src/tjpgd.c:945:26
	strh	r0, [r1, #22]
	.loc	2 945 2                         @ packages/tjpgd1d/src/tjpgd.c:945:2
	ldr	r1, [sp, #32]
	.loc	2 945 13                        @ packages/tjpgd1d/src/tjpgd.c:945:13
	strh	r0, [r1, #24]
	.loc	2 946 12 is_stmt 1              @ packages/tjpgd1d/src/tjpgd.c:946:12
	strh.w	r0, [sp, #4]
	.loc	2 946 6 is_stmt 0               @ packages/tjpgd1d/src/tjpgd.c:946:6
	strh.w	r0, [sp, #6]
	.loc	2 948 5 is_stmt 1               @ packages/tjpgd1d/src/tjpgd.c:948:5
	strb.w	r0, [sp, #3]
.Ltmp232:
	.loc	2 949 9                         @ packages/tjpgd1d/src/tjpgd.c:949:9
	str	r0, [sp, #16]
	.loc	2 949 7 is_stmt 0               @ packages/tjpgd1d/src/tjpgd.c:949:7
	b	.LBB4_3
.LBB4_3:                                @ =>This Loop Header: Depth=1
                                        @     Child Loop BB4_5 Depth 2
.Ltmp233:
	.loc	2 949 14                        @ packages/tjpgd1d/src/tjpgd.c:949:14
	ldr	r0, [sp, #16]
	.loc	2 949 18                        @ packages/tjpgd1d/src/tjpgd.c:949:18
	ldr	r1, [sp, #32]
	.loc	2 949 22                        @ packages/tjpgd1d/src/tjpgd.c:949:22
	ldrh	r1, [r1, #30]
.Ltmp234:
	.loc	2 949 2                         @ packages/tjpgd1d/src/tjpgd.c:949:2
	cmp	r0, r1
	bhs	.LBB4_19
	b	.LBB4_4
.LBB4_4:                                @   in Loop: Header=BB4_3 Depth=1
	.loc	2 0 2                           @ packages/tjpgd1d/src/tjpgd.c:0:2
	movs	r0, #0
.Ltmp235:
	.loc	2 950 10 is_stmt 1              @ packages/tjpgd1d/src/tjpgd.c:950:10
	str	r0, [sp, #20]
	.loc	2 950 8 is_stmt 0               @ packages/tjpgd1d/src/tjpgd.c:950:8
	b	.LBB4_5
.LBB4_5:                                @   Parent Loop BB4_3 Depth=1
                                        @ =>  This Inner Loop Header: Depth=2
.Ltmp236:
	.loc	2 950 15                        @ packages/tjpgd1d/src/tjpgd.c:950:15
	ldr	r0, [sp, #20]
	.loc	2 950 19                        @ packages/tjpgd1d/src/tjpgd.c:950:19
	ldr	r1, [sp, #32]
	.loc	2 950 23                        @ packages/tjpgd1d/src/tjpgd.c:950:23
	ldrh	r1, [r1, #28]
.Ltmp237:
	.loc	2 950 3                         @ packages/tjpgd1d/src/tjpgd.c:950:3
	cmp	r0, r1
	bhs	.LBB4_17
	b	.LBB4_6
.LBB4_6:                                @   in Loop: Header=BB4_5 Depth=2
.Ltmp238:
	.loc	2 951 8 is_stmt 1               @ packages/tjpgd1d/src/tjpgd.c:951:8
	ldr	r0, [sp, #32]
	.loc	2 951 12 is_stmt 0              @ packages/tjpgd1d/src/tjpgd.c:951:12
	ldrh	r0, [r0, #26]
	.loc	2 951 17                        @ packages/tjpgd1d/src/tjpgd.c:951:17
	cbz	r0, .LBB4_11
	b	.LBB4_7
.LBB4_7:                                @   in Loop: Header=BB4_5 Depth=2
	.loc	2 951 23                        @ packages/tjpgd1d/src/tjpgd.c:951:23
	ldrh.w	r0, [sp, #6]
	adds	r1, r0, #1
	strh.w	r1, [sp, #6]
	.loc	2 951 29                        @ packages/tjpgd1d/src/tjpgd.c:951:29
	ldr	r1, [sp, #32]
	.loc	2 951 33                        @ packages/tjpgd1d/src/tjpgd.c:951:33
	ldrh	r1, [r1, #26]
.Ltmp239:
	.loc	2 951 8                         @ packages/tjpgd1d/src/tjpgd.c:951:8
	cmp	r0, r1
	bne	.LBB4_11
	b	.LBB4_8
.LBB4_8:                                @   in Loop: Header=BB4_5 Depth=2
.Ltmp240:
	.loc	2 952 18 is_stmt 1              @ packages/tjpgd1d/src/tjpgd.c:952:18
	ldr	r0, [sp, #32]
	.loc	2 952 25 is_stmt 0              @ packages/tjpgd1d/src/tjpgd.c:952:25
	ldrh.w	r1, [sp, #4]
	adds	r2, r1, #1
	strh.w	r2, [sp, #4]
	.loc	2 952 10                        @ packages/tjpgd1d/src/tjpgd.c:952:10
	bl	restart
	.loc	2 952 8                         @ packages/tjpgd1d/src/tjpgd.c:952:8
	strb.w	r0, [sp, #3]
.Ltmp241:
	.loc	2 953 9 is_stmt 1               @ packages/tjpgd1d/src/tjpgd.c:953:9
	ldrb.w	r0, [sp, #3]
.Ltmp242:
	.loc	2 953 9 is_stmt 0               @ packages/tjpgd1d/src/tjpgd.c:953:9
	cbz	r0, .LBB4_10
	b	.LBB4_9
.LBB4_9:
.Ltmp243:
	.loc	2 953 30                        @ packages/tjpgd1d/src/tjpgd.c:953:30
	ldrb.w	r0, [sp, #3]
	.loc	2 953 23                        @ packages/tjpgd1d/src/tjpgd.c:953:23
	strb.w	r0, [sp, #39]
	b	.LBB4_20
.Ltmp244:
.LBB4_10:                               @   in Loop: Header=BB4_5 Depth=2
	.loc	2 0 23                          @ packages/tjpgd1d/src/tjpgd.c:0:23
	movs	r0, #1
	.loc	2 954 9 is_stmt 1               @ packages/tjpgd1d/src/tjpgd.c:954:9
	strh.w	r0, [sp, #6]
	.loc	2 955 4                         @ packages/tjpgd1d/src/tjpgd.c:955:4
	b	.LBB4_11
.Ltmp245:
.LBB4_11:                               @   in Loop: Header=BB4_5 Depth=2
	.loc	2 956 18                        @ packages/tjpgd1d/src/tjpgd.c:956:18
	ldr	r0, [sp, #32]
	.loc	2 956 9 is_stmt 0               @ packages/tjpgd1d/src/tjpgd.c:956:9
	bl	mcu_load
	.loc	2 956 7                         @ packages/tjpgd1d/src/tjpgd.c:956:7
	strb.w	r0, [sp, #3]
.Ltmp246:
	.loc	2 957 8 is_stmt 1               @ packages/tjpgd1d/src/tjpgd.c:957:8
	ldrb.w	r0, [sp, #3]
.Ltmp247:
	.loc	2 957 8 is_stmt 0               @ packages/tjpgd1d/src/tjpgd.c:957:8
	cbz	r0, .LBB4_13
	b	.LBB4_12
.LBB4_12:
.Ltmp248:
	.loc	2 957 29                        @ packages/tjpgd1d/src/tjpgd.c:957:29
	ldrb.w	r0, [sp, #3]
	.loc	2 957 22                        @ packages/tjpgd1d/src/tjpgd.c:957:22
	strb.w	r0, [sp, #39]
	b	.LBB4_20
.Ltmp249:
.LBB4_13:                               @   in Loop: Header=BB4_5 Depth=2
	.loc	2 958 20 is_stmt 1              @ packages/tjpgd1d/src/tjpgd.c:958:20
	ldr	r0, [sp, #32]
	.loc	2 958 24 is_stmt 0              @ packages/tjpgd1d/src/tjpgd.c:958:24
	ldr	r1, [sp, #28]
	.loc	2 958 33                        @ packages/tjpgd1d/src/tjpgd.c:958:33
	ldr	r2, [sp, #20]
	.loc	2 958 36                        @ packages/tjpgd1d/src/tjpgd.c:958:36
	ldr	r3, [sp, #16]
	.loc	2 958 9                         @ packages/tjpgd1d/src/tjpgd.c:958:9
	bl	mcu_output
	.loc	2 958 7                         @ packages/tjpgd1d/src/tjpgd.c:958:7
	strb.w	r0, [sp, #3]
.Ltmp250:
	.loc	2 959 8 is_stmt 1               @ packages/tjpgd1d/src/tjpgd.c:959:8
	ldrb.w	r0, [sp, #3]
.Ltmp251:
	.loc	2 959 8 is_stmt 0               @ packages/tjpgd1d/src/tjpgd.c:959:8
	cbz	r0, .LBB4_15
	b	.LBB4_14
.LBB4_14:
.Ltmp252:
	.loc	2 959 29                        @ packages/tjpgd1d/src/tjpgd.c:959:29
	ldrb.w	r0, [sp, #3]
	.loc	2 959 22                        @ packages/tjpgd1d/src/tjpgd.c:959:22
	strb.w	r0, [sp, #39]
	b	.LBB4_20
.Ltmp253:
.LBB4_15:                               @   in Loop: Header=BB4_5 Depth=2
	.loc	2 960 3 is_stmt 1               @ packages/tjpgd1d/src/tjpgd.c:960:3
	b	.LBB4_16
.Ltmp254:
.LBB4_16:                               @   in Loop: Header=BB4_5 Depth=2
	.loc	2 950 35                        @ packages/tjpgd1d/src/tjpgd.c:950:35
	ldr	r1, [sp, #12]
	.loc	2 950 32 is_stmt 0              @ packages/tjpgd1d/src/tjpgd.c:950:32
	ldr	r0, [sp, #20]
	add	r0, r1
	str	r0, [sp, #20]
	.loc	2 950 3                         @ packages/tjpgd1d/src/tjpgd.c:950:3
	b	.LBB4_5
.Ltmp255:
.LBB4_17:                               @   in Loop: Header=BB4_3 Depth=1
	.loc	2 961 2 is_stmt 1               @ packages/tjpgd1d/src/tjpgd.c:961:2
	b	.LBB4_18
.Ltmp256:
.LBB4_18:                               @   in Loop: Header=BB4_3 Depth=1
	.loc	2 949 35                        @ packages/tjpgd1d/src/tjpgd.c:949:35
	ldr	r1, [sp, #8]
	.loc	2 949 32 is_stmt 0              @ packages/tjpgd1d/src/tjpgd.c:949:32
	ldr	r0, [sp, #16]
	add	r0, r1
	str	r0, [sp, #16]
	.loc	2 949 2                         @ packages/tjpgd1d/src/tjpgd.c:949:2
	b	.LBB4_3
.Ltmp257:
.LBB4_19:
	.loc	2 963 9 is_stmt 1               @ packages/tjpgd1d/src/tjpgd.c:963:9
	ldrb.w	r0, [sp, #3]
	.loc	2 963 2 is_stmt 0               @ packages/tjpgd1d/src/tjpgd.c:963:2
	strb.w	r0, [sp, #39]
	b	.LBB4_20
.LBB4_20:
	.loc	2 964 1 is_stmt 1               @ packages/tjpgd1d/src/tjpgd.c:964:1
	ldrb.w	r0, [sp, #39]
	add	sp, #40
	pop	{r7, pc}
.Ltmp258:
.Lfunc_end4:
	.size	jd_decomp, .Lfunc_end4-jd_decomp
	.cfi_endproc
	.cantunwind
	.fnend
                                        @ -- End function
	.section	.text.restart,"ax",%progbits
	.p2align	3                               @ -- Begin function restart
	.type	restart,%function
	.code	16                              @ @restart
	.thumb_func
restart:
.Lfunc_begin5:
	.loc	2 710 0                         @ packages/tjpgd1d/src/tjpgd.c:710:0
	.fnstart
	.cfi_startproc
@ %bb.0:
	.save	{r7, lr}
	push	{r7, lr}
	.cfi_def_cfa_offset 8
	.cfi_offset lr, -4
	.cfi_offset r7, -8
	.pad	#32
	sub	sp, #32
	.cfi_def_cfa_offset 40
                                        @ kill: def $r2 killed $r1
	str	r0, [sp, #24]
	strh.w	r1, [sp, #22]
.Ltmp259:
	.loc	2 717 7 prologue_end            @ packages/tjpgd1d/src/tjpgd.c:717:7
	ldr	r0, [sp, #24]
	.loc	2 717 11 is_stmt 0              @ packages/tjpgd1d/src/tjpgd.c:717:11
	ldr	r0, [r0, #4]
	.loc	2 717 5                         @ packages/tjpgd1d/src/tjpgd.c:717:5
	str	r0, [sp, #4]
	.loc	2 717 22                        @ packages/tjpgd1d/src/tjpgd.c:717:22
	ldr	r0, [sp, #24]
	.loc	2 717 26                        @ packages/tjpgd1d/src/tjpgd.c:717:26
	ldr	r0, [r0]
	.loc	2 717 20                        @ packages/tjpgd1d/src/tjpgd.c:717:20
	str	r0, [sp, #12]
	movs	r0, #0
	.loc	2 718 4 is_stmt 1               @ packages/tjpgd1d/src/tjpgd.c:718:4
	strh.w	r0, [sp, #10]
.Ltmp260:
	.loc	2 719 9                         @ packages/tjpgd1d/src/tjpgd.c:719:9
	str	r0, [sp, #16]
	.loc	2 719 7 is_stmt 0               @ packages/tjpgd1d/src/tjpgd.c:719:7
	b	.LBB5_1
.LBB5_1:                                @ =>This Inner Loop Header: Depth=1
.Ltmp261:
	.loc	2 719 14                        @ packages/tjpgd1d/src/tjpgd.c:719:14
	ldr	r0, [sp, #16]
.Ltmp262:
	.loc	2 719 2                         @ packages/tjpgd1d/src/tjpgd.c:719:2
	cmp	r0, #1
	bhi	.LBB5_9
	b	.LBB5_2
.LBB5_2:                                @   in Loop: Header=BB5_1 Depth=1
.Ltmp263:
	.loc	2 720 8 is_stmt 1               @ packages/tjpgd1d/src/tjpgd.c:720:8
	ldr	r0, [sp, #12]
.Ltmp264:
	.loc	2 720 7 is_stmt 0               @ packages/tjpgd1d/src/tjpgd.c:720:7
	cbnz	r0, .LBB5_6
	b	.LBB5_3
.LBB5_3:                                @   in Loop: Header=BB5_1 Depth=1
.Ltmp265:
	.loc	2 721 9 is_stmt 1               @ packages/tjpgd1d/src/tjpgd.c:721:9
	ldr	r0, [sp, #24]
	.loc	2 721 13 is_stmt 0              @ packages/tjpgd1d/src/tjpgd.c:721:13
	ldr	r0, [r0, #8]
	.loc	2 721 7                         @ packages/tjpgd1d/src/tjpgd.c:721:7
	str	r0, [sp, #4]
	.loc	2 722 9 is_stmt 1               @ packages/tjpgd1d/src/tjpgd.c:722:9
	ldr	r0, [sp, #24]
	.loc	2 722 13 is_stmt 0              @ packages/tjpgd1d/src/tjpgd.c:722:13
	ldr	r3, [r0, #112]
	.loc	2 722 24                        @ packages/tjpgd1d/src/tjpgd.c:722:24
	ldr	r1, [sp, #4]
	mov.w	r2, #512
	.loc	2 722 9                         @ packages/tjpgd1d/src/tjpgd.c:722:9
	blx	r3
	.loc	2 722 7                         @ packages/tjpgd1d/src/tjpgd.c:722:7
	str	r0, [sp, #12]
.Ltmp266:
	.loc	2 723 9 is_stmt 1               @ packages/tjpgd1d/src/tjpgd.c:723:9
	ldr	r0, [sp, #12]
.Ltmp267:
	.loc	2 723 8 is_stmt 0               @ packages/tjpgd1d/src/tjpgd.c:723:8
	cbnz	r0, .LBB5_5
	b	.LBB5_4
.LBB5_4:
	.loc	2 0 8                           @ packages/tjpgd1d/src/tjpgd.c:0:8
	movs	r0, #2
.Ltmp268:
	.loc	2 723 13                        @ packages/tjpgd1d/src/tjpgd.c:723:13
	strb.w	r0, [sp, #31]
	b	.LBB5_13
.Ltmp269:
.LBB5_5:                                @   in Loop: Header=BB5_1 Depth=1
	.loc	2 724 3 is_stmt 1               @ packages/tjpgd1d/src/tjpgd.c:724:3
	b	.LBB5_7
.Ltmp270:
.LBB5_6:                                @   in Loop: Header=BB5_1 Depth=1
	.loc	2 725 6                         @ packages/tjpgd1d/src/tjpgd.c:725:6
	ldr	r0, [sp, #4]
	adds	r0, #1
	str	r0, [sp, #4]
	b	.LBB5_7
.Ltmp271:
.LBB5_7:                                @   in Loop: Header=BB5_1 Depth=1
	.loc	2 727 5                         @ packages/tjpgd1d/src/tjpgd.c:727:5
	ldr	r0, [sp, #12]
	subs	r0, #1
	str	r0, [sp, #12]
	.loc	2 728 8                         @ packages/tjpgd1d/src/tjpgd.c:728:8
	ldrh.w	r1, [sp, #10]
	.loc	2 728 19 is_stmt 0              @ packages/tjpgd1d/src/tjpgd.c:728:19
	ldr	r0, [sp, #4]
	.loc	2 728 18                        @ packages/tjpgd1d/src/tjpgd.c:728:18
	ldrb	r0, [r0]
	.loc	2 728 16                        @ packages/tjpgd1d/src/tjpgd.c:728:16
	orr.w	r0, r0, r1, lsl #8
	.loc	2 728 5                         @ packages/tjpgd1d/src/tjpgd.c:728:5
	strh.w	r0, [sp, #10]
	.loc	2 729 2 is_stmt 1               @ packages/tjpgd1d/src/tjpgd.c:729:2
	b	.LBB5_8
.Ltmp272:
.LBB5_8:                                @   in Loop: Header=BB5_1 Depth=1
	.loc	2 719 22                        @ packages/tjpgd1d/src/tjpgd.c:719:22
	ldr	r0, [sp, #16]
	adds	r0, #1
	str	r0, [sp, #16]
	.loc	2 719 2 is_stmt 0               @ packages/tjpgd1d/src/tjpgd.c:719:2
	b	.LBB5_1
.Ltmp273:
.LBB5_9:
	.loc	2 730 13 is_stmt 1              @ packages/tjpgd1d/src/tjpgd.c:730:13
	ldr	r0, [sp, #4]
	.loc	2 730 2 is_stmt 0               @ packages/tjpgd1d/src/tjpgd.c:730:2
	ldr	r1, [sp, #24]
	.loc	2 730 11                        @ packages/tjpgd1d/src/tjpgd.c:730:11
	str	r0, [r1, #4]
	.loc	2 730 28                        @ packages/tjpgd1d/src/tjpgd.c:730:28
	ldr	r0, [sp, #12]
	.loc	2 730 17                        @ packages/tjpgd1d/src/tjpgd.c:730:17
	ldr	r1, [sp, #24]
	.loc	2 730 26                        @ packages/tjpgd1d/src/tjpgd.c:730:26
	str	r0, [r1]
	.loc	2 730 32                        @ packages/tjpgd1d/src/tjpgd.c:730:32
	ldr	r1, [sp, #24]
	movs	r0, #0
	.loc	2 730 41                        @ packages/tjpgd1d/src/tjpgd.c:730:41
	strb	r0, [r1, #12]
.Ltmp274:
	.loc	2 733 7 is_stmt 1               @ packages/tjpgd1d/src/tjpgd.c:733:7
	ldrh.w	r0, [sp, #10]
	.loc	2 733 9 is_stmt 0               @ packages/tjpgd1d/src/tjpgd.c:733:9
	bic	r0, r0, #39
	movw	r1, #65488
	.loc	2 733 29                        @ packages/tjpgd1d/src/tjpgd.c:733:29
	cmp	r0, r1
	bne	.LBB5_11
	b	.LBB5_10
.LBB5_10:
	.loc	2 733 33                        @ packages/tjpgd1d/src/tjpgd.c:733:33
	ldrh.w	r0, [sp, #10]
	.loc	2 733 35                        @ packages/tjpgd1d/src/tjpgd.c:733:35
	and	r0, r0, #7
	.loc	2 733 44                        @ packages/tjpgd1d/src/tjpgd.c:733:44
	ldrh.w	r1, [sp, #22]
	.loc	2 733 49                        @ packages/tjpgd1d/src/tjpgd.c:733:49
	and	r1, r1, #7
.Ltmp275:
	.loc	2 733 6                         @ packages/tjpgd1d/src/tjpgd.c:733:6
	cmp	r0, r1
	beq	.LBB5_12
	b	.LBB5_11
.LBB5_11:
	.loc	2 0 6                           @ packages/tjpgd1d/src/tjpgd.c:0:6
	movs	r0, #6
.Ltmp276:
	.loc	2 734 3 is_stmt 1               @ packages/tjpgd1d/src/tjpgd.c:734:3
	strb.w	r0, [sp, #31]
	b	.LBB5_13
.Ltmp277:
.LBB5_12:
	.loc	2 738 28                        @ packages/tjpgd1d/src/tjpgd.c:738:28
	ldr	r1, [sp, #24]
	movs	r0, #0
	.loc	2 738 39 is_stmt 0              @ packages/tjpgd1d/src/tjpgd.c:738:39
	strh	r0, [r1, #20]
	.loc	2 738 15                        @ packages/tjpgd1d/src/tjpgd.c:738:15
	ldr	r1, [sp, #24]
	.loc	2 738 26                        @ packages/tjpgd1d/src/tjpgd.c:738:26
	strh	r0, [r1, #22]
	.loc	2 738 2                         @ packages/tjpgd1d/src/tjpgd.c:738:2
	ldr	r1, [sp, #24]
	.loc	2 738 13                        @ packages/tjpgd1d/src/tjpgd.c:738:13
	strh	r0, [r1, #24]
	.loc	2 740 2 is_stmt 1               @ packages/tjpgd1d/src/tjpgd.c:740:2
	strb.w	r0, [sp, #31]
	b	.LBB5_13
.LBB5_13:
	.loc	2 741 1                         @ packages/tjpgd1d/src/tjpgd.c:741:1
	ldrb.w	r0, [sp, #31]
	add	sp, #32
	pop	{r7, pc}
.Ltmp278:
.Lfunc_end5:
	.size	restart, .Lfunc_end5-restart
	.cfi_endproc
	.cantunwind
	.fnend
                                        @ -- End function
	.section	.text.mcu_load,"ax",%progbits
	.p2align	3                               @ -- Begin function mcu_load
	.type	mcu_load,%function
	.code	16                              @ @mcu_load
	.thumb_func
mcu_load:
.Lfunc_begin6:
	.loc	2 472 0                         @ packages/tjpgd1d/src/tjpgd.c:472:0
	.fnstart
	.cfi_startproc
@ %bb.0:
	.save	{r7, lr}
	push	{r7, lr}
	.cfi_def_cfa_offset 8
	.cfi_offset lr, -4
	.cfi_offset r7, -8
	.pad	#80
	sub	sp, #80
	.cfi_def_cfa_offset 88
	str	r0, [sp, #72]
.Ltmp279:
	.loc	2 473 27 prologue_end           @ packages/tjpgd1d/src/tjpgd.c:473:27
	ldr	r0, [sp, #72]
	.loc	2 473 31 is_stmt 0              @ packages/tjpgd1d/src/tjpgd.c:473:31
	ldr	r0, [r0, #96]
	.loc	2 473 11                        @ packages/tjpgd1d/src/tjpgd.c:473:11
	str	r0, [sp, #68]
	.loc	2 482 8 is_stmt 1               @ packages/tjpgd1d/src/tjpgd.c:482:8
	ldr	r1, [sp, #72]
	.loc	2 482 12 is_stmt 0              @ packages/tjpgd1d/src/tjpgd.c:482:12
	ldrb	r0, [r1, #14]
	.loc	2 482 22                        @ packages/tjpgd1d/src/tjpgd.c:482:22
	ldrb	r1, [r1, #15]
	.loc	2 482 16                        @ packages/tjpgd1d/src/tjpgd.c:482:16
	muls	r0, r1, r0
	.loc	2 482 6                         @ packages/tjpgd1d/src/tjpgd.c:482:6
	str	r0, [sp, #48]
	movs	r0, #2
	.loc	2 483 6 is_stmt 1               @ packages/tjpgd1d/src/tjpgd.c:483:6
	str	r0, [sp, #44]
	.loc	2 484 7                         @ packages/tjpgd1d/src/tjpgd.c:484:7
	ldr	r0, [sp, #72]
	.loc	2 484 11 is_stmt 0              @ packages/tjpgd1d/src/tjpgd.c:484:11
	ldr	r0, [r0, #100]
	.loc	2 484 5                         @ packages/tjpgd1d/src/tjpgd.c:484:5
	str	r0, [sp, #24]
	movs	r0, #0
.Ltmp280:
	.loc	2 486 11 is_stmt 1              @ packages/tjpgd1d/src/tjpgd.c:486:11
	str	r0, [sp, #52]
	.loc	2 486 7 is_stmt 0               @ packages/tjpgd1d/src/tjpgd.c:486:7
	b	.LBB6_1
.LBB6_1:                                @ =>This Loop Header: Depth=1
                                        @     Child Loop BB6_14 Depth 2
                                        @     Child Loop BB6_18 Depth 2
.Ltmp281:
	.loc	2 486 16                        @ packages/tjpgd1d/src/tjpgd.c:486:16
	ldr	r0, [sp, #52]
	.loc	2 486 22                        @ packages/tjpgd1d/src/tjpgd.c:486:22
	ldr	r1, [sp, #48]
	.loc	2 486 28                        @ packages/tjpgd1d/src/tjpgd.c:486:28
	ldr	r2, [sp, #44]
	.loc	2 486 26                        @ packages/tjpgd1d/src/tjpgd.c:486:26
	add	r1, r2
.Ltmp282:
	.loc	2 486 2                         @ packages/tjpgd1d/src/tjpgd.c:486:2
	cmp	r0, r1
	bhs.w	.LBB6_39
	b	.LBB6_2
.LBB6_2:                                @   in Loop: Header=BB6_1 Depth=1
.Ltmp283:
	.loc	2 487 10 is_stmt 1              @ packages/tjpgd1d/src/tjpgd.c:487:10
	ldr	r0, [sp, #52]
	.loc	2 487 16 is_stmt 0              @ packages/tjpgd1d/src/tjpgd.c:487:16
	ldr	r1, [sp, #48]
	.loc	2 487 9                         @ packages/tjpgd1d/src/tjpgd.c:487:9
	cmp	r0, r1
	bhs	.LBB6_4
	b	.LBB6_3
.LBB6_3:                                @   in Loop: Header=BB6_1 Depth=1
	.loc	2 0 9                           @ packages/tjpgd1d/src/tjpgd.c:0:9
	movs	r0, #0
	.loc	2 487 9                         @ packages/tjpgd1d/src/tjpgd.c:487:9
	str	r0, [sp, #4]                    @ 4-byte Spill
	b	.LBB6_5
.LBB6_4:                                @   in Loop: Header=BB6_1 Depth=1
	.loc	2 487 27                        @ packages/tjpgd1d/src/tjpgd.c:487:27
	ldr	r0, [sp, #52]
	.loc	2 487 33                        @ packages/tjpgd1d/src/tjpgd.c:487:33
	ldr	r1, [sp, #48]
	.loc	2 487 31                        @ packages/tjpgd1d/src/tjpgd.c:487:31
	subs	r0, r0, r1
	.loc	2 487 37                        @ packages/tjpgd1d/src/tjpgd.c:487:37
	adds	r0, #1
	.loc	2 487 9                         @ packages/tjpgd1d/src/tjpgd.c:487:9
	str	r0, [sp, #4]                    @ 4-byte Spill
	b	.LBB6_5
.LBB6_5:                                @   in Loop: Header=BB6_1 Depth=1
	ldr	r0, [sp, #4]                    @ 4-byte Reload
	.loc	2 487 7                         @ packages/tjpgd1d/src/tjpgd.c:487:7
	str	r0, [sp, #28]
	.loc	2 488 8 is_stmt 1               @ packages/tjpgd1d/src/tjpgd.c:488:8
	ldr	r0, [sp, #28]
	cmp	r0, #0
	it	ne
	movne	r0, #1
	.loc	2 488 6 is_stmt 0               @ packages/tjpgd1d/src/tjpgd.c:488:6
	str	r0, [sp, #32]
	.loc	2 491 8 is_stmt 1               @ packages/tjpgd1d/src/tjpgd.c:491:8
	ldr	r0, [sp, #72]
	.loc	2 491 21 is_stmt 0              @ packages/tjpgd1d/src/tjpgd.c:491:21
	ldr	r1, [sp, #32]
	.loc	2 491 12                        @ packages/tjpgd1d/src/tjpgd.c:491:12
	add.w	r0, r0, r1, lsl #3
	.loc	2 491 8                         @ packages/tjpgd1d/src/tjpgd.c:491:8
	ldr	r0, [r0, #32]
	.loc	2 491 6                         @ packages/tjpgd1d/src/tjpgd.c:491:6
	str	r0, [sp, #20]
	.loc	2 492 8 is_stmt 1               @ packages/tjpgd1d/src/tjpgd.c:492:8
	ldr	r0, [sp, #72]
	.loc	2 492 21 is_stmt 0              @ packages/tjpgd1d/src/tjpgd.c:492:21
	ldr	r1, [sp, #32]
	.loc	2 492 12                        @ packages/tjpgd1d/src/tjpgd.c:492:12
	add.w	r0, r0, r1, lsl #3
	.loc	2 492 8                         @ packages/tjpgd1d/src/tjpgd.c:492:8
	ldr	r0, [r0, #48]
	.loc	2 492 6                         @ packages/tjpgd1d/src/tjpgd.c:492:6
	str	r0, [sp, #12]
	.loc	2 493 8 is_stmt 1               @ packages/tjpgd1d/src/tjpgd.c:493:8
	ldr	r0, [sp, #72]
	.loc	2 493 21 is_stmt 0              @ packages/tjpgd1d/src/tjpgd.c:493:21
	ldr	r1, [sp, #32]
	.loc	2 493 12                        @ packages/tjpgd1d/src/tjpgd.c:493:12
	add.w	r0, r0, r1, lsl #3
	.loc	2 493 8                         @ packages/tjpgd1d/src/tjpgd.c:493:8
	ldr	r0, [r0, #64]
	.loc	2 493 6                         @ packages/tjpgd1d/src/tjpgd.c:493:6
	str	r0, [sp, #16]
	.loc	2 494 15 is_stmt 1              @ packages/tjpgd1d/src/tjpgd.c:494:15
	ldr	r0, [sp, #72]
	.loc	2 494 19 is_stmt 0              @ packages/tjpgd1d/src/tjpgd.c:494:19
	ldr	r1, [sp, #20]
	.loc	2 494 23                        @ packages/tjpgd1d/src/tjpgd.c:494:23
	ldr	r2, [sp, #12]
	.loc	2 494 27                        @ packages/tjpgd1d/src/tjpgd.c:494:27
	ldr	r3, [sp, #16]
	.loc	2 494 7                         @ packages/tjpgd1d/src/tjpgd.c:494:7
	bl	huffext
	.loc	2 494 5                         @ packages/tjpgd1d/src/tjpgd.c:494:5
	str	r0, [sp, #64]
.Ltmp284:
	.loc	2 495 7 is_stmt 1               @ packages/tjpgd1d/src/tjpgd.c:495:7
	ldr	r0, [sp, #64]
.Ltmp285:
	.loc	2 495 7 is_stmt 0               @ packages/tjpgd1d/src/tjpgd.c:495:7
	cmp.w	r0, #-1
	bgt	.LBB6_7
	b	.LBB6_6
.LBB6_6:
.Ltmp286:
	.loc	2 495 25                        @ packages/tjpgd1d/src/tjpgd.c:495:25
	ldr	r0, [sp, #64]
	.loc	2 495 23                        @ packages/tjpgd1d/src/tjpgd.c:495:23
	rsbs	r0, r0, #0
	.loc	2 495 14                        @ packages/tjpgd1d/src/tjpgd.c:495:14
	strb.w	r0, [sp, #79]
	b	.LBB6_40
.Ltmp287:
.LBB6_7:                                @   in Loop: Header=BB6_1 Depth=1
	.loc	2 496 7 is_stmt 1               @ packages/tjpgd1d/src/tjpgd.c:496:7
	ldr	r0, [sp, #72]
	.loc	2 496 15 is_stmt 0              @ packages/tjpgd1d/src/tjpgd.c:496:15
	ldr	r1, [sp, #28]
	.loc	2 496 11                        @ packages/tjpgd1d/src/tjpgd.c:496:11
	add.w	r0, r0, r1, lsl #1
	.loc	2 496 7                         @ packages/tjpgd1d/src/tjpgd.c:496:7
	ldrsh.w	r0, [r0, #20]
	.loc	2 496 5                         @ packages/tjpgd1d/src/tjpgd.c:496:5
	str	r0, [sp, #60]
.Ltmp288:
	.loc	2 497 7 is_stmt 1               @ packages/tjpgd1d/src/tjpgd.c:497:7
	ldr	r0, [sp, #64]
.Ltmp289:
	.loc	2 497 7 is_stmt 0               @ packages/tjpgd1d/src/tjpgd.c:497:7
	cbz	r0, .LBB6_13
	b	.LBB6_8
.LBB6_8:                                @   in Loop: Header=BB6_1 Depth=1
.Ltmp290:
	.loc	2 498 15 is_stmt 1              @ packages/tjpgd1d/src/tjpgd.c:498:15
	ldr	r0, [sp, #72]
	.loc	2 498 19 is_stmt 0              @ packages/tjpgd1d/src/tjpgd.c:498:19
	ldr	r1, [sp, #64]
	.loc	2 498 8                         @ packages/tjpgd1d/src/tjpgd.c:498:8
	bl	bitext
	.loc	2 498 6                         @ packages/tjpgd1d/src/tjpgd.c:498:6
	str	r0, [sp, #56]
.Ltmp291:
	.loc	2 499 8 is_stmt 1               @ packages/tjpgd1d/src/tjpgd.c:499:8
	ldr	r0, [sp, #56]
.Ltmp292:
	.loc	2 499 8 is_stmt 0               @ packages/tjpgd1d/src/tjpgd.c:499:8
	cmp.w	r0, #-1
	bgt	.LBB6_10
	b	.LBB6_9
.LBB6_9:
.Ltmp293:
	.loc	2 499 26                        @ packages/tjpgd1d/src/tjpgd.c:499:26
	ldr	r0, [sp, #56]
	.loc	2 499 24                        @ packages/tjpgd1d/src/tjpgd.c:499:24
	rsbs	r0, r0, #0
	.loc	2 499 15                        @ packages/tjpgd1d/src/tjpgd.c:499:15
	strb.w	r0, [sp, #79]
	b	.LBB6_40
.Ltmp294:
.LBB6_10:                               @   in Loop: Header=BB6_1 Depth=1
	.loc	2 500 14 is_stmt 1              @ packages/tjpgd1d/src/tjpgd.c:500:14
	ldr	r0, [sp, #64]
	.loc	2 500 16 is_stmt 0              @ packages/tjpgd1d/src/tjpgd.c:500:16
	subs	r1, r0, #1
	movs	r0, #1
	.loc	2 500 10                        @ packages/tjpgd1d/src/tjpgd.c:500:10
	lsls	r0, r1
	.loc	2 500 6                         @ packages/tjpgd1d/src/tjpgd.c:500:6
	str	r0, [sp, #64]
.Ltmp295:
	.loc	2 501 10 is_stmt 1              @ packages/tjpgd1d/src/tjpgd.c:501:10
	ldr	r0, [sp, #56]
	.loc	2 501 14 is_stmt 0              @ packages/tjpgd1d/src/tjpgd.c:501:14
	ldr	r1, [sp, #64]
.Ltmp296:
	.loc	2 501 8                         @ packages/tjpgd1d/src/tjpgd.c:501:8
	tst	r0, r1
	bne	.LBB6_12
	b	.LBB6_11
.LBB6_11:                               @   in Loop: Header=BB6_1 Depth=1
.Ltmp297:
	.loc	2 501 24                        @ packages/tjpgd1d/src/tjpgd.c:501:24
	ldr	r1, [sp, #64]
	.loc	2 501 20                        @ packages/tjpgd1d/src/tjpgd.c:501:20
	ldr	r0, [sp, #56]
	sub.w	r0, r0, r1, lsl #1
	adds	r0, #1
	str	r0, [sp, #56]
	.loc	2 501 18                        @ packages/tjpgd1d/src/tjpgd.c:501:18
	b	.LBB6_12
.Ltmp298:
.LBB6_12:                               @   in Loop: Header=BB6_1 Depth=1
	.loc	2 502 9 is_stmt 1               @ packages/tjpgd1d/src/tjpgd.c:502:9
	ldr	r1, [sp, #56]
	.loc	2 502 6 is_stmt 0               @ packages/tjpgd1d/src/tjpgd.c:502:6
	ldr	r0, [sp, #60]
	add	r0, r1
	str	r0, [sp, #60]
	.loc	2 503 28 is_stmt 1              @ packages/tjpgd1d/src/tjpgd.c:503:28
	ldr	r0, [sp, #60]
	.loc	2 503 4 is_stmt 0               @ packages/tjpgd1d/src/tjpgd.c:503:4
	ldr	r1, [sp, #72]
	.loc	2 503 12                        @ packages/tjpgd1d/src/tjpgd.c:503:12
	ldr	r2, [sp, #28]
	.loc	2 503 8                         @ packages/tjpgd1d/src/tjpgd.c:503:8
	add.w	r1, r1, r2, lsl #1
	.loc	2 503 17                        @ packages/tjpgd1d/src/tjpgd.c:503:17
	strh	r0, [r1, #20]
	.loc	2 504 3 is_stmt 1               @ packages/tjpgd1d/src/tjpgd.c:504:3
	b	.LBB6_13
.Ltmp299:
.LBB6_13:                               @   in Loop: Header=BB6_1 Depth=1
	.loc	2 505 9                         @ packages/tjpgd1d/src/tjpgd.c:505:9
	ldr	r0, [sp, #72]
	.loc	2 505 28 is_stmt 0              @ packages/tjpgd1d/src/tjpgd.c:505:28
	ldr	r1, [sp, #28]
	.loc	2 505 23                        @ packages/tjpgd1d/src/tjpgd.c:505:23
	add	r1, r0
	.loc	2 505 19                        @ packages/tjpgd1d/src/tjpgd.c:505:19
	ldrb	r1, [r1, #16]
	.loc	2 505 13                        @ packages/tjpgd1d/src/tjpgd.c:505:13
	add.w	r0, r0, r1, lsl #2
	.loc	2 505 9                         @ packages/tjpgd1d/src/tjpgd.c:505:9
	ldr	r0, [r0, #80]
	.loc	2 505 7                         @ packages/tjpgd1d/src/tjpgd.c:505:7
	str	r0, [sp, #8]
	.loc	2 506 12 is_stmt 1              @ packages/tjpgd1d/src/tjpgd.c:506:12
	ldr	r0, [sp, #60]
	.loc	2 506 16 is_stmt 0              @ packages/tjpgd1d/src/tjpgd.c:506:16
	ldr	r1, [sp, #8]
	ldr	r1, [r1]
	.loc	2 506 14                        @ packages/tjpgd1d/src/tjpgd.c:506:14
	muls	r0, r1, r0
	.loc	2 506 23                        @ packages/tjpgd1d/src/tjpgd.c:506:23
	asrs	r0, r0, #8
	.loc	2 506 3                         @ packages/tjpgd1d/src/tjpgd.c:506:3
	ldr	r1, [sp, #68]
	.loc	2 506 10                        @ packages/tjpgd1d/src/tjpgd.c:506:10
	str	r0, [r1]
	movs	r0, #1
.Ltmp300:
	.loc	2 509 10 is_stmt 1              @ packages/tjpgd1d/src/tjpgd.c:509:10
	str	r0, [sp, #40]
	.loc	2 509 8 is_stmt 0               @ packages/tjpgd1d/src/tjpgd.c:509:8
	b	.LBB6_14
.LBB6_14:                               @   Parent Loop BB6_1 Depth=1
                                        @ =>  This Inner Loop Header: Depth=2
.Ltmp301:
	.loc	2 509 15                        @ packages/tjpgd1d/src/tjpgd.c:509:15
	ldr	r0, [sp, #40]
.Ltmp302:
	.loc	2 509 3                         @ packages/tjpgd1d/src/tjpgd.c:509:3
	cmp	r0, #63
	bhi	.LBB6_17
	b	.LBB6_15
.LBB6_15:                               @   in Loop: Header=BB6_14 Depth=2
	b	.LBB6_16
.LBB6_16:                               @   in Loop: Header=BB6_14 Depth=2
.Ltmp303:
	.loc	2 509 23                        @ packages/tjpgd1d/src/tjpgd.c:509:23
	ldr	r1, [sp, #68]
	.loc	2 509 28                        @ packages/tjpgd1d/src/tjpgd.c:509:28
	ldr	r2, [sp, #40]
	adds	r0, r2, #1
	str	r0, [sp, #40]
	movs	r0, #0
	.loc	2 509 32                        @ packages/tjpgd1d/src/tjpgd.c:509:32
	str.w	r0, [r1, r2, lsl #2]
	.loc	2 509 3                         @ packages/tjpgd1d/src/tjpgd.c:509:3
	b	.LBB6_14
.Ltmp304:
.LBB6_17:                               @   in Loop: Header=BB6_1 Depth=1
	.loc	2 510 8 is_stmt 1               @ packages/tjpgd1d/src/tjpgd.c:510:8
	ldr	r0, [sp, #72]
	.loc	2 510 21 is_stmt 0              @ packages/tjpgd1d/src/tjpgd.c:510:21
	ldr	r1, [sp, #32]
	.loc	2 510 12                        @ packages/tjpgd1d/src/tjpgd.c:510:12
	add.w	r0, r0, r1, lsl #3
	.loc	2 510 8                         @ packages/tjpgd1d/src/tjpgd.c:510:8
	ldr	r0, [r0, #36]
	.loc	2 510 6                         @ packages/tjpgd1d/src/tjpgd.c:510:6
	str	r0, [sp, #20]
	.loc	2 511 8 is_stmt 1               @ packages/tjpgd1d/src/tjpgd.c:511:8
	ldr	r0, [sp, #72]
	.loc	2 511 21 is_stmt 0              @ packages/tjpgd1d/src/tjpgd.c:511:21
	ldr	r1, [sp, #32]
	.loc	2 511 12                        @ packages/tjpgd1d/src/tjpgd.c:511:12
	add.w	r0, r0, r1, lsl #3
	.loc	2 511 8                         @ packages/tjpgd1d/src/tjpgd.c:511:8
	ldr	r0, [r0, #52]
	.loc	2 511 6                         @ packages/tjpgd1d/src/tjpgd.c:511:6
	str	r0, [sp, #12]
	.loc	2 512 8 is_stmt 1               @ packages/tjpgd1d/src/tjpgd.c:512:8
	ldr	r0, [sp, #72]
	.loc	2 512 21 is_stmt 0              @ packages/tjpgd1d/src/tjpgd.c:512:21
	ldr	r1, [sp, #32]
	.loc	2 512 12                        @ packages/tjpgd1d/src/tjpgd.c:512:12
	add.w	r0, r0, r1, lsl #3
	.loc	2 512 8                         @ packages/tjpgd1d/src/tjpgd.c:512:8
	ldr	r0, [r0, #68]
	.loc	2 512 6                         @ packages/tjpgd1d/src/tjpgd.c:512:6
	str	r0, [sp, #16]
	movs	r0, #1
	.loc	2 513 5 is_stmt 1               @ packages/tjpgd1d/src/tjpgd.c:513:5
	str	r0, [sp, #40]
	.loc	2 514 3                         @ packages/tjpgd1d/src/tjpgd.c:514:3
	b	.LBB6_18
.LBB6_18:                               @   Parent Loop BB6_1 Depth=1
                                        @ =>  This Inner Loop Header: Depth=2
.Ltmp305:
	.loc	2 515 16                        @ packages/tjpgd1d/src/tjpgd.c:515:16
	ldr	r0, [sp, #72]
	.loc	2 515 20 is_stmt 0              @ packages/tjpgd1d/src/tjpgd.c:515:20
	ldr	r1, [sp, #20]
	.loc	2 515 24                        @ packages/tjpgd1d/src/tjpgd.c:515:24
	ldr	r2, [sp, #12]
	.loc	2 515 28                        @ packages/tjpgd1d/src/tjpgd.c:515:28
	ldr	r3, [sp, #16]
	.loc	2 515 8                         @ packages/tjpgd1d/src/tjpgd.c:515:8
	bl	huffext
	.loc	2 515 6                         @ packages/tjpgd1d/src/tjpgd.c:515:6
	str	r0, [sp, #64]
.Ltmp306:
	.loc	2 516 8 is_stmt 1               @ packages/tjpgd1d/src/tjpgd.c:516:8
	ldr	r0, [sp, #64]
.Ltmp307:
	.loc	2 516 8 is_stmt 0               @ packages/tjpgd1d/src/tjpgd.c:516:8
	cbnz	r0, .LBB6_20
	b	.LBB6_19
.LBB6_19:                               @   in Loop: Header=BB6_1 Depth=1
.Ltmp308:
	.loc	2 516 16                        @ packages/tjpgd1d/src/tjpgd.c:516:16
	b	.LBB6_34
.Ltmp309:
.LBB6_20:                               @   in Loop: Header=BB6_18 Depth=2
	.loc	2 517 8 is_stmt 1               @ packages/tjpgd1d/src/tjpgd.c:517:8
	ldr	r0, [sp, #64]
.Ltmp310:
	.loc	2 517 8 is_stmt 0               @ packages/tjpgd1d/src/tjpgd.c:517:8
	cmp.w	r0, #-1
	bgt	.LBB6_22
	b	.LBB6_21
.LBB6_21:
.Ltmp311:
	.loc	2 517 26                        @ packages/tjpgd1d/src/tjpgd.c:517:26
	ldr	r0, [sp, #64]
	.loc	2 517 24                        @ packages/tjpgd1d/src/tjpgd.c:517:24
	rsbs	r0, r0, #0
	.loc	2 517 15                        @ packages/tjpgd1d/src/tjpgd.c:517:15
	strb.w	r0, [sp, #79]
	b	.LBB6_40
.Ltmp312:
.LBB6_22:                               @   in Loop: Header=BB6_18 Depth=2
	.loc	2 518 22 is_stmt 1              @ packages/tjpgd1d/src/tjpgd.c:518:22
	ldr	r0, [sp, #64]
	.loc	2 518 24 is_stmt 0              @ packages/tjpgd1d/src/tjpgd.c:518:24
	lsrs	r0, r0, #4
	.loc	2 518 6                         @ packages/tjpgd1d/src/tjpgd.c:518:6
	str	r0, [sp, #36]
.Ltmp313:
	.loc	2 519 8 is_stmt 1               @ packages/tjpgd1d/src/tjpgd.c:519:8
	ldr	r0, [sp, #36]
.Ltmp314:
	.loc	2 519 8 is_stmt 0               @ packages/tjpgd1d/src/tjpgd.c:519:8
	cbz	r0, .LBB6_26
	b	.LBB6_23
.LBB6_23:                               @   in Loop: Header=BB6_18 Depth=2
.Ltmp315:
	.loc	2 520 10 is_stmt 1              @ packages/tjpgd1d/src/tjpgd.c:520:10
	ldr	r1, [sp, #36]
	.loc	2 520 7 is_stmt 0               @ packages/tjpgd1d/src/tjpgd.c:520:7
	ldr	r0, [sp, #40]
	add	r0, r1
	str	r0, [sp, #40]
.Ltmp316:
	.loc	2 521 9 is_stmt 1               @ packages/tjpgd1d/src/tjpgd.c:521:9
	ldr	r0, [sp, #40]
.Ltmp317:
	.loc	2 521 9 is_stmt 0               @ packages/tjpgd1d/src/tjpgd.c:521:9
	cmp	r0, #64
	blo	.LBB6_25
	b	.LBB6_24
.LBB6_24:
	.loc	2 0 9                           @ packages/tjpgd1d/src/tjpgd.c:0:9
	movs	r0, #6
.Ltmp318:
	.loc	2 521 18                        @ packages/tjpgd1d/src/tjpgd.c:521:18
	strb.w	r0, [sp, #79]
	b	.LBB6_40
.Ltmp319:
.LBB6_25:                               @   in Loop: Header=BB6_18 Depth=2
	.loc	2 522 4 is_stmt 1               @ packages/tjpgd1d/src/tjpgd.c:522:4
	b	.LBB6_26
.Ltmp320:
.LBB6_26:                               @   in Loop: Header=BB6_18 Depth=2
	.loc	2 523 10                        @ packages/tjpgd1d/src/tjpgd.c:523:10
	ldr	r0, [sp, #64]
	and	r0, r0, #15
	str	r0, [sp, #64]
.Ltmp321:
	.loc	2 523 8 is_stmt 0               @ packages/tjpgd1d/src/tjpgd.c:523:8
	cbz	r0, .LBB6_32
	b	.LBB6_27
.LBB6_27:                               @   in Loop: Header=BB6_18 Depth=2
.Ltmp322:
	.loc	2 524 16 is_stmt 1              @ packages/tjpgd1d/src/tjpgd.c:524:16
	ldr	r0, [sp, #72]
	.loc	2 524 20 is_stmt 0              @ packages/tjpgd1d/src/tjpgd.c:524:20
	ldr	r1, [sp, #64]
	.loc	2 524 9                         @ packages/tjpgd1d/src/tjpgd.c:524:9
	bl	bitext
	.loc	2 524 7                         @ packages/tjpgd1d/src/tjpgd.c:524:7
	str	r0, [sp, #60]
.Ltmp323:
	.loc	2 525 9 is_stmt 1               @ packages/tjpgd1d/src/tjpgd.c:525:9
	ldr	r0, [sp, #60]
.Ltmp324:
	.loc	2 525 9 is_stmt 0               @ packages/tjpgd1d/src/tjpgd.c:525:9
	cmp.w	r0, #-1
	bgt	.LBB6_29
	b	.LBB6_28
.LBB6_28:
.Ltmp325:
	.loc	2 525 27                        @ packages/tjpgd1d/src/tjpgd.c:525:27
	ldr	r0, [sp, #60]
	.loc	2 525 25                        @ packages/tjpgd1d/src/tjpgd.c:525:25
	rsbs	r0, r0, #0
	.loc	2 525 16                        @ packages/tjpgd1d/src/tjpgd.c:525:16
	strb.w	r0, [sp, #79]
	b	.LBB6_40
.Ltmp326:
.LBB6_29:                               @   in Loop: Header=BB6_18 Depth=2
	.loc	2 526 15 is_stmt 1              @ packages/tjpgd1d/src/tjpgd.c:526:15
	ldr	r0, [sp, #64]
	.loc	2 526 17 is_stmt 0              @ packages/tjpgd1d/src/tjpgd.c:526:17
	subs	r1, r0, #1
	movs	r0, #1
	.loc	2 526 11                        @ packages/tjpgd1d/src/tjpgd.c:526:11
	lsls	r0, r1
	.loc	2 526 7                         @ packages/tjpgd1d/src/tjpgd.c:526:7
	str	r0, [sp, #64]
.Ltmp327:
	.loc	2 527 11 is_stmt 1              @ packages/tjpgd1d/src/tjpgd.c:527:11
	ldr	r0, [sp, #60]
	.loc	2 527 15 is_stmt 0              @ packages/tjpgd1d/src/tjpgd.c:527:15
	ldr	r1, [sp, #64]
.Ltmp328:
	.loc	2 527 9                         @ packages/tjpgd1d/src/tjpgd.c:527:9
	tst	r0, r1
	bne	.LBB6_31
	b	.LBB6_30
.LBB6_30:                               @   in Loop: Header=BB6_18 Depth=2
.Ltmp329:
	.loc	2 527 25                        @ packages/tjpgd1d/src/tjpgd.c:527:25
	ldr	r1, [sp, #64]
	.loc	2 527 21                        @ packages/tjpgd1d/src/tjpgd.c:527:21
	ldr	r0, [sp, #60]
	sub.w	r0, r0, r1, lsl #1
	adds	r0, #1
	str	r0, [sp, #60]
	.loc	2 527 19                        @ packages/tjpgd1d/src/tjpgd.c:527:19
	b	.LBB6_31
.Ltmp330:
.LBB6_31:                               @   in Loop: Header=BB6_18 Depth=2
	.loc	2 528 9 is_stmt 1               @ packages/tjpgd1d/src/tjpgd.c:528:9
	ldr	r1, [sp, #40]
	movw	r0, :lower16:Zig
	movt	r0, :upper16:Zig
	ldrb	r0, [r0, r1]
	.loc	2 528 7 is_stmt 0               @ packages/tjpgd1d/src/tjpgd.c:528:7
	str	r0, [sp, #36]
	.loc	2 529 14 is_stmt 1              @ packages/tjpgd1d/src/tjpgd.c:529:14
	ldr	r0, [sp, #60]
	.loc	2 529 18 is_stmt 0              @ packages/tjpgd1d/src/tjpgd.c:529:18
	ldr	r1, [sp, #8]
	.loc	2 529 22                        @ packages/tjpgd1d/src/tjpgd.c:529:22
	ldr	r2, [sp, #36]
	.loc	2 529 18                        @ packages/tjpgd1d/src/tjpgd.c:529:18
	ldr.w	r1, [r1, r2, lsl #2]
	.loc	2 529 16                        @ packages/tjpgd1d/src/tjpgd.c:529:16
	muls	r0, r1, r0
	.loc	2 529 25                        @ packages/tjpgd1d/src/tjpgd.c:529:25
	asrs	r0, r0, #8
	.loc	2 529 5                         @ packages/tjpgd1d/src/tjpgd.c:529:5
	ldr	r1, [sp, #68]
	.loc	2 529 12                        @ packages/tjpgd1d/src/tjpgd.c:529:12
	str.w	r0, [r1, r2, lsl #2]
	.loc	2 530 4 is_stmt 1               @ packages/tjpgd1d/src/tjpgd.c:530:4
	b	.LBB6_32
.Ltmp331:
.LBB6_32:                               @   in Loop: Header=BB6_18 Depth=2
	.loc	2 531 3                         @ packages/tjpgd1d/src/tjpgd.c:531:3
	b	.LBB6_33
.Ltmp332:
.LBB6_33:                               @   in Loop: Header=BB6_18 Depth=2
	.loc	2 531 12 is_stmt 0              @ packages/tjpgd1d/src/tjpgd.c:531:12
	ldr	r0, [sp, #40]
	adds	r0, #1
	str	r0, [sp, #40]
.Ltmp333:
	.loc	2 531 3                         @ packages/tjpgd1d/src/tjpgd.c:531:3
	cmp	r0, #64
	blo.w	.LBB6_18
	b	.LBB6_34
.Ltmp334:
.LBB6_34:                               @   in Loop: Header=BB6_1 Depth=1
	.loc	2 533 23 is_stmt 1              @ packages/tjpgd1d/src/tjpgd.c:533:23
	ldr	r0, [sp, #72]
	.loc	2 533 27 is_stmt 0              @ packages/tjpgd1d/src/tjpgd.c:533:27
	ldrb	r0, [r0, #13]
.Ltmp335:
	.loc	2 533 7                         @ packages/tjpgd1d/src/tjpgd.c:533:7
	cmp	r0, #3
	bne	.LBB6_36
	b	.LBB6_35
.LBB6_35:                               @   in Loop: Header=BB6_1 Depth=1
.Ltmp336:
	.loc	2 534 22 is_stmt 1              @ packages/tjpgd1d/src/tjpgd.c:534:22
	ldr	r0, [sp, #68]
	.loc	2 534 21 is_stmt 0              @ packages/tjpgd1d/src/tjpgd.c:534:21
	ldr	r0, [r0]
	.loc	2 534 26                        @ packages/tjpgd1d/src/tjpgd.c:534:26
	asrs	r1, r0, #31
	add.w	r1, r0, r1, lsr #24
	movs	r0, #128
	.loc	2 534 33                        @ packages/tjpgd1d/src/tjpgd.c:534:33
	add.w	r0, r0, r1, lsr #8
	.loc	2 534 5                         @ packages/tjpgd1d/src/tjpgd.c:534:5
	ldr	r1, [sp, #24]
	.loc	2 534 8                         @ packages/tjpgd1d/src/tjpgd.c:534:8
	strb	r0, [r1]
	.loc	2 535 3 is_stmt 1               @ packages/tjpgd1d/src/tjpgd.c:535:3
	b	.LBB6_37
.Ltmp337:
.LBB6_36:                               @   in Loop: Header=BB6_1 Depth=1
	.loc	2 536 15                        @ packages/tjpgd1d/src/tjpgd.c:536:15
	ldr	r0, [sp, #68]
	.loc	2 536 20 is_stmt 0              @ packages/tjpgd1d/src/tjpgd.c:536:20
	ldr	r1, [sp, #24]
	.loc	2 536 4                         @ packages/tjpgd1d/src/tjpgd.c:536:4
	bl	block_idct
	b	.LBB6_37
.Ltmp338:
.LBB6_37:                               @   in Loop: Header=BB6_1 Depth=1
	.loc	2 539 6 is_stmt 1               @ packages/tjpgd1d/src/tjpgd.c:539:6
	ldr	r0, [sp, #24]
	adds	r0, #64
	str	r0, [sp, #24]
	.loc	2 540 2                         @ packages/tjpgd1d/src/tjpgd.c:540:2
	b	.LBB6_38
.Ltmp339:
.LBB6_38:                               @   in Loop: Header=BB6_1 Depth=1
	.loc	2 486 36                        @ packages/tjpgd1d/src/tjpgd.c:486:36
	ldr	r0, [sp, #52]
	adds	r0, #1
	str	r0, [sp, #52]
	.loc	2 486 2 is_stmt 0               @ packages/tjpgd1d/src/tjpgd.c:486:2
	b	.LBB6_1
.Ltmp340:
.LBB6_39:
	.loc	2 0 2                           @ packages/tjpgd1d/src/tjpgd.c:0:2
	movs	r0, #0
	.loc	2 542 2 is_stmt 1               @ packages/tjpgd1d/src/tjpgd.c:542:2
	strb.w	r0, [sp, #79]
	b	.LBB6_40
.LBB6_40:
	.loc	2 543 1                         @ packages/tjpgd1d/src/tjpgd.c:543:1
	ldrb.w	r0, [sp, #79]
	add	sp, #80
	pop	{r7, pc}
.Ltmp341:
.Lfunc_end6:
	.size	mcu_load, .Lfunc_end6-mcu_load
	.cfi_endproc
	.cantunwind
	.fnend
                                        @ -- End function
	.section	.text.mcu_output,"ax",%progbits
	.p2align	3                               @ -- Begin function mcu_output
	.type	mcu_output,%function
	.code	16                              @ @mcu_output
	.thumb_func
mcu_output:
.Lfunc_begin7:
	.loc	2 558 0                         @ packages/tjpgd1d/src/tjpgd.c:558:0
	.fnstart
	.cfi_startproc
@ %bb.0:
	.save	{r7, lr}
	push	{r7, lr}
	.cfi_def_cfa_offset 8
	.cfi_offset lr, -4
	.cfi_offset r7, -8
	.pad	#144
	sub	sp, #144
	.cfi_def_cfa_offset 152
	str	r0, [sp, #136]
	str	r1, [sp, #132]
	str	r2, [sp, #128]
	str	r3, [sp, #124]
	mov.w	r0, #1024
.Ltmp342:
	.loc	2 559 12 prologue_end           @ packages/tjpgd1d/src/tjpgd.c:559:12
	str	r0, [sp, #120]
	.loc	2 566 7                         @ packages/tjpgd1d/src/tjpgd.c:566:7
	ldr	r0, [sp, #136]
	.loc	2 566 11 is_stmt 0              @ packages/tjpgd1d/src/tjpgd.c:566:11
	ldrb	r0, [r0, #14]
	.loc	2 566 15                        @ packages/tjpgd1d/src/tjpgd.c:566:15
	lsls	r0, r0, #3
	.loc	2 566 5                         @ packages/tjpgd1d/src/tjpgd.c:566:5
	str	r0, [sp, #108]
	.loc	2 566 25                        @ packages/tjpgd1d/src/tjpgd.c:566:25
	ldr	r0, [sp, #136]
	.loc	2 566 29                        @ packages/tjpgd1d/src/tjpgd.c:566:29
	ldrb	r0, [r0, #15]
	.loc	2 566 33                        @ packages/tjpgd1d/src/tjpgd.c:566:33
	lsls	r0, r0, #3
	.loc	2 566 23                        @ packages/tjpgd1d/src/tjpgd.c:566:23
	str	r0, [sp, #104]
	.loc	2 567 8 is_stmt 1               @ packages/tjpgd1d/src/tjpgd.c:567:8
	ldr	r0, [sp, #128]
	.loc	2 567 12 is_stmt 0              @ packages/tjpgd1d/src/tjpgd.c:567:12
	ldr	r1, [sp, #108]
	.loc	2 567 10                        @ packages/tjpgd1d/src/tjpgd.c:567:10
	add	r0, r1
	.loc	2 567 18                        @ packages/tjpgd1d/src/tjpgd.c:567:18
	ldr	r1, [sp, #136]
	.loc	2 567 22                        @ packages/tjpgd1d/src/tjpgd.c:567:22
	ldrh	r1, [r1, #28]
	.loc	2 567 7                         @ packages/tjpgd1d/src/tjpgd.c:567:7
	cmp	r0, r1
	bhi	.LBB7_2
	b	.LBB7_1
.LBB7_1:
	.loc	2 567 31                        @ packages/tjpgd1d/src/tjpgd.c:567:31
	ldr	r0, [sp, #108]
	.loc	2 567 7                         @ packages/tjpgd1d/src/tjpgd.c:567:7
	str	r0, [sp, #8]                    @ 4-byte Spill
	b	.LBB7_3
.LBB7_2:
	.loc	2 567 36                        @ packages/tjpgd1d/src/tjpgd.c:567:36
	ldr	r0, [sp, #136]
	.loc	2 567 40                        @ packages/tjpgd1d/src/tjpgd.c:567:40
	ldrh	r0, [r0, #28]
	.loc	2 567 48                        @ packages/tjpgd1d/src/tjpgd.c:567:48
	ldr	r1, [sp, #128]
	.loc	2 567 46                        @ packages/tjpgd1d/src/tjpgd.c:567:46
	subs	r0, r0, r1
	.loc	2 567 7                         @ packages/tjpgd1d/src/tjpgd.c:567:7
	str	r0, [sp, #8]                    @ 4-byte Spill
	b	.LBB7_3
.LBB7_3:
	ldr	r0, [sp, #8]                    @ 4-byte Reload
	.loc	2 567 5                         @ packages/tjpgd1d/src/tjpgd.c:567:5
	str	r0, [sp, #100]
	.loc	2 568 8 is_stmt 1               @ packages/tjpgd1d/src/tjpgd.c:568:8
	ldr	r0, [sp, #124]
	.loc	2 568 12 is_stmt 0              @ packages/tjpgd1d/src/tjpgd.c:568:12
	ldr	r1, [sp, #104]
	.loc	2 568 10                        @ packages/tjpgd1d/src/tjpgd.c:568:10
	add	r0, r1
	.loc	2 568 18                        @ packages/tjpgd1d/src/tjpgd.c:568:18
	ldr	r1, [sp, #136]
	.loc	2 568 22                        @ packages/tjpgd1d/src/tjpgd.c:568:22
	ldrh	r1, [r1, #30]
	.loc	2 568 7                         @ packages/tjpgd1d/src/tjpgd.c:568:7
	cmp	r0, r1
	bhi	.LBB7_5
	b	.LBB7_4
.LBB7_4:
	.loc	2 568 32                        @ packages/tjpgd1d/src/tjpgd.c:568:32
	ldr	r0, [sp, #104]
	.loc	2 568 7                         @ packages/tjpgd1d/src/tjpgd.c:568:7
	str	r0, [sp, #4]                    @ 4-byte Spill
	b	.LBB7_6
.LBB7_5:
	.loc	2 568 37                        @ packages/tjpgd1d/src/tjpgd.c:568:37
	ldr	r0, [sp, #136]
	.loc	2 568 41                        @ packages/tjpgd1d/src/tjpgd.c:568:41
	ldrh	r0, [r0, #30]
	.loc	2 568 50                        @ packages/tjpgd1d/src/tjpgd.c:568:50
	ldr	r1, [sp, #124]
	.loc	2 568 48                        @ packages/tjpgd1d/src/tjpgd.c:568:48
	subs	r0, r0, r1
	.loc	2 568 7                         @ packages/tjpgd1d/src/tjpgd.c:568:7
	str	r0, [sp, #4]                    @ 4-byte Spill
	b	.LBB7_6
.LBB7_6:
	ldr	r0, [sp, #4]                    @ 4-byte Reload
	.loc	2 568 5                         @ packages/tjpgd1d/src/tjpgd.c:568:5
	str	r0, [sp, #96]
.Ltmp343:
	.loc	2 570 10 is_stmt 1              @ packages/tjpgd1d/src/tjpgd.c:570:10
	ldr	r0, [sp, #136]
	.loc	2 570 14 is_stmt 0              @ packages/tjpgd1d/src/tjpgd.c:570:14
	ldrb	r1, [r0, #13]
	.loc	2 570 6                         @ packages/tjpgd1d/src/tjpgd.c:570:6
	ldr	r0, [sp, #100]
	lsrs	r0, r1
	str	r0, [sp, #100]
	.loc	2 570 28                        @ packages/tjpgd1d/src/tjpgd.c:570:28
	ldr	r0, [sp, #136]
	.loc	2 570 32                        @ packages/tjpgd1d/src/tjpgd.c:570:32
	ldrb	r1, [r0, #13]
	.loc	2 570 24                        @ packages/tjpgd1d/src/tjpgd.c:570:24
	ldr	r0, [sp, #96]
	lsrs	r0, r1
	str	r0, [sp, #96]
.Ltmp344:
	.loc	2 571 8 is_stmt 1               @ packages/tjpgd1d/src/tjpgd.c:571:8
	ldr	r0, [sp, #100]
	.loc	2 571 11 is_stmt 0              @ packages/tjpgd1d/src/tjpgd.c:571:11
	cbz	r0, .LBB7_8
	b	.LBB7_7
.LBB7_7:
	.loc	2 571 15                        @ packages/tjpgd1d/src/tjpgd.c:571:15
	ldr	r0, [sp, #96]
.Ltmp345:
	.loc	2 571 7                         @ packages/tjpgd1d/src/tjpgd.c:571:7
	cbnz	r0, .LBB7_9
	b	.LBB7_8
.LBB7_8:
	.loc	2 0 7                           @ packages/tjpgd1d/src/tjpgd.c:0:7
	movs	r0, #0
.Ltmp346:
	.loc	2 571 19                        @ packages/tjpgd1d/src/tjpgd.c:571:19
	strb.w	r0, [sp, #143]
	b	.LBB7_69
.Ltmp347:
.LBB7_9:
	.loc	2 572 9 is_stmt 1               @ packages/tjpgd1d/src/tjpgd.c:572:9
	ldr	r0, [sp, #136]
	.loc	2 572 13 is_stmt 0              @ packages/tjpgd1d/src/tjpgd.c:572:13
	ldrb	r1, [r0, #13]
	.loc	2 572 5                         @ packages/tjpgd1d/src/tjpgd.c:572:5
	ldr	r0, [sp, #128]
	lsrs	r0, r1
	str	r0, [sp, #128]
	.loc	2 572 26                        @ packages/tjpgd1d/src/tjpgd.c:572:26
	ldr	r0, [sp, #136]
	.loc	2 572 30                        @ packages/tjpgd1d/src/tjpgd.c:572:30
	ldrb	r1, [r0, #13]
	.loc	2 572 22                        @ packages/tjpgd1d/src/tjpgd.c:572:22
	ldr	r0, [sp, #124]
	lsrs	r0, r1
	str	r0, [sp, #124]
.Ltmp348:
	.loc	2 574 14 is_stmt 1              @ packages/tjpgd1d/src/tjpgd.c:574:14
	ldr	r0, [sp, #128]
	.loc	2 574 12 is_stmt 0              @ packages/tjpgd1d/src/tjpgd.c:574:12
	strh.w	r0, [sp, #64]
	.loc	2 574 30                        @ packages/tjpgd1d/src/tjpgd.c:574:30
	ldr	r0, [sp, #128]
	.loc	2 574 34                        @ packages/tjpgd1d/src/tjpgd.c:574:34
	ldr	r1, [sp, #100]
	.loc	2 574 32                        @ packages/tjpgd1d/src/tjpgd.c:574:32
	add	r0, r1
	.loc	2 574 37                        @ packages/tjpgd1d/src/tjpgd.c:574:37
	subs	r0, #1
	.loc	2 574 28                        @ packages/tjpgd1d/src/tjpgd.c:574:28
	strh.w	r0, [sp, #66]
	.loc	2 575 13 is_stmt 1              @ packages/tjpgd1d/src/tjpgd.c:575:13
	ldr	r0, [sp, #124]
	.loc	2 575 11 is_stmt 0              @ packages/tjpgd1d/src/tjpgd.c:575:11
	strh.w	r0, [sp, #68]
	.loc	2 575 30                        @ packages/tjpgd1d/src/tjpgd.c:575:30
	ldr	r0, [sp, #124]
	.loc	2 575 34                        @ packages/tjpgd1d/src/tjpgd.c:575:34
	ldr	r1, [sp, #96]
	.loc	2 575 32                        @ packages/tjpgd1d/src/tjpgd.c:575:32
	add	r0, r1
	.loc	2 575 37                        @ packages/tjpgd1d/src/tjpgd.c:575:37
	subs	r0, #1
	.loc	2 575 28                        @ packages/tjpgd1d/src/tjpgd.c:575:28
	strh.w	r0, [sp, #70]
.Ltmp349:
	.loc	2 578 23 is_stmt 1              @ packages/tjpgd1d/src/tjpgd.c:578:23
	ldr	r0, [sp, #136]
	.loc	2 578 27 is_stmt 0              @ packages/tjpgd1d/src/tjpgd.c:578:27
	ldrb	r0, [r0, #13]
.Ltmp350:
	.loc	2 578 6                         @ packages/tjpgd1d/src/tjpgd.c:578:6
	cmp	r0, #3
	beq.w	.LBB7_47
	b	.LBB7_10
.LBB7_10:
.Ltmp351:
	.loc	2 581 21 is_stmt 1              @ packages/tjpgd1d/src/tjpgd.c:581:21
	ldr	r0, [sp, #136]
	.loc	2 581 25 is_stmt 0              @ packages/tjpgd1d/src/tjpgd.c:581:25
	ldr	r0, [r0, #96]
	.loc	2 581 9                         @ packages/tjpgd1d/src/tjpgd.c:581:9
	str	r0, [sp, #72]
	movs	r0, #0
.Ltmp352:
	.loc	2 582 11 is_stmt 1              @ packages/tjpgd1d/src/tjpgd.c:582:11
	str	r0, [sp, #112]
	.loc	2 582 8 is_stmt 0               @ packages/tjpgd1d/src/tjpgd.c:582:8
	b	.LBB7_11
.LBB7_11:                               @ =>This Loop Header: Depth=1
                                        @     Child Loop BB7_18 Depth 2
.Ltmp353:
	.loc	2 582 16                        @ packages/tjpgd1d/src/tjpgd.c:582:16
	ldr	r0, [sp, #112]
	.loc	2 582 21                        @ packages/tjpgd1d/src/tjpgd.c:582:21
	ldr	r1, [sp, #104]
.Ltmp354:
	.loc	2 582 3                         @ packages/tjpgd1d/src/tjpgd.c:582:3
	cmp	r0, r1
	bhs.w	.LBB7_28
	b	.LBB7_12
.LBB7_12:                               @   in Loop: Header=BB7_11 Depth=1
.Ltmp355:
	.loc	2 583 9 is_stmt 1               @ packages/tjpgd1d/src/tjpgd.c:583:9
	ldr	r0, [sp, #136]
	.loc	2 583 13 is_stmt 0              @ packages/tjpgd1d/src/tjpgd.c:583:13
	ldr	r0, [r0, #100]
	.loc	2 583 7                         @ packages/tjpgd1d/src/tjpgd.c:583:7
	str	r0, [sp, #76]
	.loc	2 584 9 is_stmt 1               @ packages/tjpgd1d/src/tjpgd.c:584:9
	ldr	r0, [sp, #76]
	.loc	2 584 14 is_stmt 0              @ packages/tjpgd1d/src/tjpgd.c:584:14
	ldr	r1, [sp, #112]
	.loc	2 584 12                        @ packages/tjpgd1d/src/tjpgd.c:584:12
	add.w	r0, r0, r1, lsl #3
	.loc	2 584 7                         @ packages/tjpgd1d/src/tjpgd.c:584:7
	str	r0, [sp, #80]
.Ltmp356:
	.loc	2 585 8 is_stmt 1               @ packages/tjpgd1d/src/tjpgd.c:585:8
	ldr	r0, [sp, #104]
.Ltmp357:
	.loc	2 585 8 is_stmt 0               @ packages/tjpgd1d/src/tjpgd.c:585:8
	cmp	r0, #16
	bne	.LBB7_16
	b	.LBB7_13
.LBB7_13:                               @   in Loop: Header=BB7_11 Depth=1
.Ltmp358:
	.loc	2 586 21 is_stmt 1              @ packages/tjpgd1d/src/tjpgd.c:586:21
	ldr	r1, [sp, #112]
	mvn	r0, #4
	.loc	2 586 24 is_stmt 0              @ packages/tjpgd1d/src/tjpgd.c:586:24
	and.w	r0, r0, r1, lsl #2
	.loc	2 586 8                         @ packages/tjpgd1d/src/tjpgd.c:586:8
	ldr	r1, [sp, #76]
	.loc	2 586 18                        @ packages/tjpgd1d/src/tjpgd.c:586:18
	add	r0, r1
	.loc	2 586 8                         @ packages/tjpgd1d/src/tjpgd.c:586:8
	add.w	r0, r0, #256
	str	r0, [sp, #76]
.Ltmp359:
	.loc	2 587 9 is_stmt 1               @ packages/tjpgd1d/src/tjpgd.c:587:9
	ldr	r0, [sp, #112]
.Ltmp360:
	.loc	2 587 9 is_stmt 0               @ packages/tjpgd1d/src/tjpgd.c:587:9
	cmp	r0, #8
	blo	.LBB7_15
	b	.LBB7_14
.LBB7_14:                               @   in Loop: Header=BB7_11 Depth=1
.Ltmp361:
	.loc	2 587 21                        @ packages/tjpgd1d/src/tjpgd.c:587:21
	ldr	r0, [sp, #80]
	adds	r0, #64
	str	r0, [sp, #80]
	.loc	2 587 18                        @ packages/tjpgd1d/src/tjpgd.c:587:18
	b	.LBB7_15
.Ltmp362:
.LBB7_15:                               @   in Loop: Header=BB7_11 Depth=1
	.loc	2 588 4 is_stmt 1               @ packages/tjpgd1d/src/tjpgd.c:588:4
	b	.LBB7_17
.Ltmp363:
.LBB7_16:                               @   in Loop: Header=BB7_11 Depth=1
	.loc	2 589 11                        @ packages/tjpgd1d/src/tjpgd.c:589:11
	ldr	r0, [sp, #108]
	.loc	2 589 14 is_stmt 0              @ packages/tjpgd1d/src/tjpgd.c:589:14
	lsls	r0, r0, #3
	.loc	2 589 20                        @ packages/tjpgd1d/src/tjpgd.c:589:20
	ldr	r1, [sp, #112]
	.loc	2 589 18                        @ packages/tjpgd1d/src/tjpgd.c:589:18
	add.w	r1, r0, r1, lsl #3
	.loc	2 589 8                         @ packages/tjpgd1d/src/tjpgd.c:589:8
	ldr	r0, [sp, #76]
	add	r0, r1
	str	r0, [sp, #76]
	b	.LBB7_17
.Ltmp364:
.LBB7_17:                               @   in Loop: Header=BB7_11 Depth=1
	.loc	2 0 8                           @ packages/tjpgd1d/src/tjpgd.c:0:8
	movs	r0, #0
.Ltmp365:
	.loc	2 591 12 is_stmt 1              @ packages/tjpgd1d/src/tjpgd.c:591:12
	str	r0, [sp, #116]
	.loc	2 591 9 is_stmt 0               @ packages/tjpgd1d/src/tjpgd.c:591:9
	b	.LBB7_18
.LBB7_18:                               @   Parent Loop BB7_11 Depth=1
                                        @ =>  This Inner Loop Header: Depth=2
.Ltmp366:
	.loc	2 591 17                        @ packages/tjpgd1d/src/tjpgd.c:591:17
	ldr	r0, [sp, #116]
	.loc	2 591 22                        @ packages/tjpgd1d/src/tjpgd.c:591:22
	ldr	r1, [sp, #108]
.Ltmp367:
	.loc	2 591 4                         @ packages/tjpgd1d/src/tjpgd.c:591:4
	cmp	r0, r1
	bhs	.LBB7_26
	b	.LBB7_19
.LBB7_19:                               @   in Loop: Header=BB7_18 Depth=2
.Ltmp368:
	.loc	2 592 10 is_stmt 1              @ packages/tjpgd1d/src/tjpgd.c:592:10
	ldr	r0, [sp, #76]
	ldrb	r0, [r0]
	.loc	2 592 16 is_stmt 0              @ packages/tjpgd1d/src/tjpgd.c:592:16
	subs	r0, #128
	.loc	2 592 8                         @ packages/tjpgd1d/src/tjpgd.c:592:8
	str	r0, [sp, #88]
	.loc	2 593 10 is_stmt 1              @ packages/tjpgd1d/src/tjpgd.c:593:10
	ldr	r0, [sp, #76]
	ldrb.w	r0, [r0, #64]
	.loc	2 593 17 is_stmt 0              @ packages/tjpgd1d/src/tjpgd.c:593:17
	subs	r0, #128
	.loc	2 593 8                         @ packages/tjpgd1d/src/tjpgd.c:593:8
	str	r0, [sp, #84]
.Ltmp369:
	.loc	2 594 9 is_stmt 1               @ packages/tjpgd1d/src/tjpgd.c:594:9
	ldr	r0, [sp, #108]
.Ltmp370:
	.loc	2 594 9 is_stmt 0               @ packages/tjpgd1d/src/tjpgd.c:594:9
	cmp	r0, #16
	bne	.LBB7_23
	b	.LBB7_20
.LBB7_20:                               @   in Loop: Header=BB7_18 Depth=2
.Ltmp371:
	.loc	2 595 10 is_stmt 1              @ packages/tjpgd1d/src/tjpgd.c:595:10
	ldr	r0, [sp, #116]
.Ltmp372:
	.loc	2 595 10 is_stmt 0              @ packages/tjpgd1d/src/tjpgd.c:595:10
	cmp	r0, #8
	bne	.LBB7_22
	b	.LBB7_21
.LBB7_21:                               @   in Loop: Header=BB7_18 Depth=2
.Ltmp373:
	.loc	2 595 22                        @ packages/tjpgd1d/src/tjpgd.c:595:22
	ldr	r0, [sp, #80]
	adds	r0, #56
	str	r0, [sp, #80]
	.loc	2 595 19                        @ packages/tjpgd1d/src/tjpgd.c:595:19
	b	.LBB7_22
.Ltmp374:
.LBB7_22:                               @   in Loop: Header=BB7_18 Depth=2
	.loc	2 596 12 is_stmt 1              @ packages/tjpgd1d/src/tjpgd.c:596:12
	ldr	r0, [sp, #116]
	.loc	2 596 15 is_stmt 0              @ packages/tjpgd1d/src/tjpgd.c:596:15
	and	r1, r0, #1
	.loc	2 596 9                         @ packages/tjpgd1d/src/tjpgd.c:596:9
	ldr	r0, [sp, #76]
	add	r0, r1
	str	r0, [sp, #76]
	.loc	2 597 5 is_stmt 1               @ packages/tjpgd1d/src/tjpgd.c:597:5
	b	.LBB7_24
.Ltmp375:
.LBB7_23:                               @   in Loop: Header=BB7_18 Depth=2
	.loc	2 598 8                         @ packages/tjpgd1d/src/tjpgd.c:598:8
	ldr	r0, [sp, #76]
	adds	r0, #1
	str	r0, [sp, #76]
	b	.LBB7_24
.Ltmp376:
.LBB7_24:                               @   in Loop: Header=BB7_18 Depth=2
	.loc	2 600 13                        @ packages/tjpgd1d/src/tjpgd.c:600:13
	ldr	r0, [sp, #80]
	adds	r1, r0, #1
	str	r1, [sp, #80]
	.loc	2 600 10 is_stmt 0              @ packages/tjpgd1d/src/tjpgd.c:600:10
	ldrb	r0, [r0]
	.loc	2 600 8                         @ packages/tjpgd1d/src/tjpgd.c:600:8
	str	r0, [sp, #92]
	.loc	2 603 24 is_stmt 1              @ packages/tjpgd1d/src/tjpgd.c:603:24
	ldr	r0, [sp, #92]
	ldr	r1, [sp, #88]
	movw	r2, #1814
	muls	r1, r2, r1
	asrs	r2, r1, #31
	add.w	r1, r1, r2, lsr #22
	add.w	r1, r0, r1, lsr #10
	bfc	r1, #10, #22
	movw	r0, :lower16:Clip8
	movt	r0, :upper16:Clip8
	ldrb	r1, [r0, r1]
	.loc	2 603 11 is_stmt 0              @ packages/tjpgd1d/src/tjpgd.c:603:11
	ldr	r2, [sp, #72]
	adds	r3, r2, #1
	str	r3, [sp, #72]
	.loc	2 603 14                        @ packages/tjpgd1d/src/tjpgd.c:603:14
	strb	r1, [r2]
	.loc	2 605 24 is_stmt 1              @ packages/tjpgd1d/src/tjpgd.c:605:24
	ldr	r1, [sp, #92]
	ldr	r2, [sp, #88]
	ldr	r3, [sp, #84]
	movw	r12, #731
	mul	r12, r3, r12
	mov.w	r3, #352
	mla	r2, r2, r3, r12
	asrs	r3, r2, #31
	add.w	r2, r2, r3, lsr #22
	sub.w	r1, r1, r2, lsr #10
	bfc	r1, #10, #22
	ldrb	r1, [r0, r1]
	.loc	2 605 11 is_stmt 0              @ packages/tjpgd1d/src/tjpgd.c:605:11
	ldr	r2, [sp, #72]
	adds	r3, r2, #1
	str	r3, [sp, #72]
	.loc	2 605 14                        @ packages/tjpgd1d/src/tjpgd.c:605:14
	strb	r1, [r2]
	.loc	2 606 24 is_stmt 1              @ packages/tjpgd1d/src/tjpgd.c:606:24
	ldr	r1, [sp, #92]
	ldr	r2, [sp, #84]
	movw	r3, #1435
	muls	r2, r3, r2
	asrs	r3, r2, #31
	add.w	r2, r2, r3, lsr #22
	add.w	r1, r1, r2, lsr #10
	bfc	r1, #10, #22
	ldrb	r0, [r0, r1]
	.loc	2 606 11 is_stmt 0              @ packages/tjpgd1d/src/tjpgd.c:606:11
	ldr	r1, [sp, #72]
	adds	r2, r1, #1
	str	r2, [sp, #72]
	.loc	2 606 14                        @ packages/tjpgd1d/src/tjpgd.c:606:14
	strb	r0, [r1]
	.loc	2 608 4 is_stmt 1               @ packages/tjpgd1d/src/tjpgd.c:608:4
	b	.LBB7_25
.Ltmp377:
.LBB7_25:                               @   in Loop: Header=BB7_18 Depth=2
	.loc	2 591 28                        @ packages/tjpgd1d/src/tjpgd.c:591:28
	ldr	r0, [sp, #116]
	adds	r0, #1
	str	r0, [sp, #116]
	.loc	2 591 4 is_stmt 0               @ packages/tjpgd1d/src/tjpgd.c:591:4
	b	.LBB7_18
.Ltmp378:
.LBB7_26:                               @   in Loop: Header=BB7_11 Depth=1
	.loc	2 609 3 is_stmt 1               @ packages/tjpgd1d/src/tjpgd.c:609:3
	b	.LBB7_27
.Ltmp379:
.LBB7_27:                               @   in Loop: Header=BB7_11 Depth=1
	.loc	2 582 27                        @ packages/tjpgd1d/src/tjpgd.c:582:27
	ldr	r0, [sp, #112]
	adds	r0, #1
	str	r0, [sp, #112]
	.loc	2 582 3 is_stmt 0               @ packages/tjpgd1d/src/tjpgd.c:582:3
	b	.LBB7_11
.Ltmp380:
.LBB7_28:
	.loc	2 612 23 is_stmt 1              @ packages/tjpgd1d/src/tjpgd.c:612:23
	ldr	r0, [sp, #136]
	.loc	2 612 27 is_stmt 0              @ packages/tjpgd1d/src/tjpgd.c:612:27
	ldrb	r0, [r0, #13]
.Ltmp381:
	.loc	2 612 7                         @ packages/tjpgd1d/src/tjpgd.c:612:7
	cmp	r0, #0
	beq.w	.LBB7_46
	b	.LBB7_29
.LBB7_29:
.Ltmp382:
	.loc	2 617 8 is_stmt 1               @ packages/tjpgd1d/src/tjpgd.c:617:8
	ldr	r0, [sp, #136]
	.loc	2 617 12 is_stmt 0              @ packages/tjpgd1d/src/tjpgd.c:617:12
	ldrb	r0, [r0, #13]
	.loc	2 617 18                        @ packages/tjpgd1d/src/tjpgd.c:617:18
	lsls	r0, r0, #1
	.loc	2 617 6                         @ packages/tjpgd1d/src/tjpgd.c:617:6
	str	r0, [sp, #40]
	.loc	2 618 13 is_stmt 1              @ packages/tjpgd1d/src/tjpgd.c:618:13
	ldr	r0, [sp, #136]
	.loc	2 618 17 is_stmt 0              @ packages/tjpgd1d/src/tjpgd.c:618:17
	ldrb	r1, [r0, #13]
	movs	r0, #1
	.loc	2 618 10                        @ packages/tjpgd1d/src/tjpgd.c:618:10
	lsls	r0, r1
	.loc	2 618 6                         @ packages/tjpgd1d/src/tjpgd.c:618:6
	str	r0, [sp, #36]
	.loc	2 619 9 is_stmt 1               @ packages/tjpgd1d/src/tjpgd.c:619:9
	ldr	r0, [sp, #108]
	.loc	2 619 14 is_stmt 0              @ packages/tjpgd1d/src/tjpgd.c:619:14
	ldr	r1, [sp, #36]
	.loc	2 619 12                        @ packages/tjpgd1d/src/tjpgd.c:619:12
	subs	r0, r0, r1
	.loc	2 619 17                        @ packages/tjpgd1d/src/tjpgd.c:619:17
	add.w	r0, r0, r0, lsl #1
	.loc	2 619 6                         @ packages/tjpgd1d/src/tjpgd.c:619:6
	str	r0, [sp, #32]
	.loc	2 620 19 is_stmt 1              @ packages/tjpgd1d/src/tjpgd.c:620:19
	ldr	r0, [sp, #136]
	.loc	2 620 23 is_stmt 0              @ packages/tjpgd1d/src/tjpgd.c:620:23
	ldr	r0, [r0, #96]
	.loc	2 620 7                         @ packages/tjpgd1d/src/tjpgd.c:620:7
	str	r0, [sp, #28]
	movs	r0, #0
.Ltmp383:
	.loc	2 621 12 is_stmt 1              @ packages/tjpgd1d/src/tjpgd.c:621:12
	str	r0, [sp, #112]
	.loc	2 621 9 is_stmt 0               @ packages/tjpgd1d/src/tjpgd.c:621:9
	b	.LBB7_30
.LBB7_30:                               @ =>This Loop Header: Depth=1
                                        @     Child Loop BB7_32 Depth 2
                                        @       Child Loop BB7_34 Depth 3
                                        @         Child Loop BB7_36 Depth 4
.Ltmp384:
	.loc	2 621 17                        @ packages/tjpgd1d/src/tjpgd.c:621:17
	ldr	r0, [sp, #112]
	.loc	2 621 22                        @ packages/tjpgd1d/src/tjpgd.c:621:22
	ldr	r1, [sp, #104]
.Ltmp385:
	.loc	2 621 4                         @ packages/tjpgd1d/src/tjpgd.c:621:4
	cmp	r0, r1
	bhs	.LBB7_45
	b	.LBB7_31
.LBB7_31:                               @   in Loop: Header=BB7_30 Depth=1
	.loc	2 0 4                           @ packages/tjpgd1d/src/tjpgd.c:0:4
	movs	r0, #0
.Ltmp386:
	.loc	2 622 13 is_stmt 1              @ packages/tjpgd1d/src/tjpgd.c:622:13
	str	r0, [sp, #116]
	.loc	2 622 10 is_stmt 0              @ packages/tjpgd1d/src/tjpgd.c:622:10
	b	.LBB7_32
.LBB7_32:                               @   Parent Loop BB7_30 Depth=1
                                        @ =>  This Loop Header: Depth=2
                                        @       Child Loop BB7_34 Depth 3
                                        @         Child Loop BB7_36 Depth 4
.Ltmp387:
	.loc	2 622 18                        @ packages/tjpgd1d/src/tjpgd.c:622:18
	ldr	r0, [sp, #116]
	.loc	2 622 23                        @ packages/tjpgd1d/src/tjpgd.c:622:23
	ldr	r1, [sp, #108]
.Ltmp388:
	.loc	2 622 5                         @ packages/tjpgd1d/src/tjpgd.c:622:5
	cmp	r0, r1
	bhs	.LBB7_43
	b	.LBB7_33
.LBB7_33:                               @   in Loop: Header=BB7_32 Depth=2
.Ltmp389:
	.loc	2 623 24 is_stmt 1              @ packages/tjpgd1d/src/tjpgd.c:623:24
	ldr	r0, [sp, #136]
	.loc	2 623 28 is_stmt 0              @ packages/tjpgd1d/src/tjpgd.c:623:28
	ldr	r0, [r0, #96]
	.loc	2 623 39                        @ packages/tjpgd1d/src/tjpgd.c:623:39
	ldr	r1, [sp, #112]
	.loc	2 623 44                        @ packages/tjpgd1d/src/tjpgd.c:623:44
	ldr	r2, [sp, #108]
	.loc	2 623 49                        @ packages/tjpgd1d/src/tjpgd.c:623:49
	ldr	r3, [sp, #116]
	.loc	2 623 47                        @ packages/tjpgd1d/src/tjpgd.c:623:47
	mla	r1, r1, r2, r3
	.loc	2 623 53                        @ packages/tjpgd1d/src/tjpgd.c:623:53
	add.w	r1, r1, r1, lsl #1
	.loc	2 623 36                        @ packages/tjpgd1d/src/tjpgd.c:623:36
	add	r0, r1
	.loc	2 623 12                        @ packages/tjpgd1d/src/tjpgd.c:623:12
	str	r0, [sp, #72]
	movs	r0, #0
	.loc	2 624 16 is_stmt 1              @ packages/tjpgd1d/src/tjpgd.c:624:16
	str	r0, [sp, #44]
	.loc	2 624 12 is_stmt 0              @ packages/tjpgd1d/src/tjpgd.c:624:12
	str	r0, [sp, #48]
	.loc	2 624 8                         @ packages/tjpgd1d/src/tjpgd.c:624:8
	str	r0, [sp, #52]
.Ltmp390:
	.loc	2 625 13 is_stmt 1              @ packages/tjpgd1d/src/tjpgd.c:625:13
	str	r0, [sp, #56]
	.loc	2 625 11 is_stmt 0              @ packages/tjpgd1d/src/tjpgd.c:625:11
	b	.LBB7_34
.LBB7_34:                               @   Parent Loop BB7_30 Depth=1
                                        @     Parent Loop BB7_32 Depth=2
                                        @ =>    This Loop Header: Depth=3
                                        @         Child Loop BB7_36 Depth 4
.Ltmp391:
	.loc	2 625 18                        @ packages/tjpgd1d/src/tjpgd.c:625:18
	ldr	r0, [sp, #56]
	.loc	2 625 22                        @ packages/tjpgd1d/src/tjpgd.c:625:22
	ldr	r1, [sp, #36]
.Ltmp392:
	.loc	2 625 6                         @ packages/tjpgd1d/src/tjpgd.c:625:6
	cmp	r0, r1
	bhs	.LBB7_41
	b	.LBB7_35
.LBB7_35:                               @   in Loop: Header=BB7_34 Depth=3
	.loc	2 0 6                           @ packages/tjpgd1d/src/tjpgd.c:0:6
	movs	r0, #0
.Ltmp393:
	.loc	2 626 14 is_stmt 1              @ packages/tjpgd1d/src/tjpgd.c:626:14
	str	r0, [sp, #60]
	.loc	2 626 12 is_stmt 0              @ packages/tjpgd1d/src/tjpgd.c:626:12
	b	.LBB7_36
.LBB7_36:                               @   Parent Loop BB7_30 Depth=1
                                        @     Parent Loop BB7_32 Depth=2
                                        @       Parent Loop BB7_34 Depth=3
                                        @ =>      This Inner Loop Header: Depth=4
.Ltmp394:
	.loc	2 626 19                        @ packages/tjpgd1d/src/tjpgd.c:626:19
	ldr	r0, [sp, #60]
	.loc	2 626 23                        @ packages/tjpgd1d/src/tjpgd.c:626:23
	ldr	r1, [sp, #36]
.Ltmp395:
	.loc	2 626 7                         @ packages/tjpgd1d/src/tjpgd.c:626:7
	cmp	r0, r1
	bhs	.LBB7_39
	b	.LBB7_37
.LBB7_37:                               @   in Loop: Header=BB7_36 Depth=4
.Ltmp396:
	.loc	2 627 19 is_stmt 1              @ packages/tjpgd1d/src/tjpgd.c:627:19
	ldr	r0, [sp, #72]
	adds	r1, r0, #1
	str	r1, [sp, #72]
	.loc	2 627 13 is_stmt 0              @ packages/tjpgd1d/src/tjpgd.c:627:13
	ldrb	r1, [r0]
	.loc	2 627 10                        @ packages/tjpgd1d/src/tjpgd.c:627:10
	ldr	r0, [sp, #52]
	add	r0, r1
	str	r0, [sp, #52]
	.loc	2 628 19 is_stmt 1              @ packages/tjpgd1d/src/tjpgd.c:628:19
	ldr	r0, [sp, #72]
	adds	r1, r0, #1
	str	r1, [sp, #72]
	.loc	2 628 13 is_stmt 0              @ packages/tjpgd1d/src/tjpgd.c:628:13
	ldrb	r1, [r0]
	.loc	2 628 10                        @ packages/tjpgd1d/src/tjpgd.c:628:10
	ldr	r0, [sp, #48]
	add	r0, r1
	str	r0, [sp, #48]
	.loc	2 629 19 is_stmt 1              @ packages/tjpgd1d/src/tjpgd.c:629:19
	ldr	r0, [sp, #72]
	adds	r1, r0, #1
	str	r1, [sp, #72]
	.loc	2 629 13 is_stmt 0              @ packages/tjpgd1d/src/tjpgd.c:629:13
	ldrb	r1, [r0]
	.loc	2 629 10                        @ packages/tjpgd1d/src/tjpgd.c:629:10
	ldr	r0, [sp, #44]
	add	r0, r1
	str	r0, [sp, #44]
	.loc	2 630 7 is_stmt 1               @ packages/tjpgd1d/src/tjpgd.c:630:7
	b	.LBB7_38
.Ltmp397:
.LBB7_38:                               @   in Loop: Header=BB7_36 Depth=4
	.loc	2 626 27                        @ packages/tjpgd1d/src/tjpgd.c:626:27
	ldr	r0, [sp, #60]
	adds	r0, #1
	str	r0, [sp, #60]
	.loc	2 626 7 is_stmt 0               @ packages/tjpgd1d/src/tjpgd.c:626:7
	b	.LBB7_36
.Ltmp398:
.LBB7_39:                               @   in Loop: Header=BB7_34 Depth=3
	.loc	2 631 16 is_stmt 1              @ packages/tjpgd1d/src/tjpgd.c:631:16
	ldr	r1, [sp, #32]
	.loc	2 631 13 is_stmt 0              @ packages/tjpgd1d/src/tjpgd.c:631:13
	ldr	r0, [sp, #72]
	add	r0, r1
	str	r0, [sp, #72]
	.loc	2 632 6 is_stmt 1               @ packages/tjpgd1d/src/tjpgd.c:632:6
	b	.LBB7_40
.Ltmp399:
.LBB7_40:                               @   in Loop: Header=BB7_34 Depth=3
	.loc	2 625 26                        @ packages/tjpgd1d/src/tjpgd.c:625:26
	ldr	r0, [sp, #56]
	adds	r0, #1
	str	r0, [sp, #56]
	.loc	2 625 6 is_stmt 0               @ packages/tjpgd1d/src/tjpgd.c:625:6
	b	.LBB7_34
.Ltmp400:
.LBB7_41:                               @   in Loop: Header=BB7_32 Depth=2
	.loc	2 633 24 is_stmt 1              @ packages/tjpgd1d/src/tjpgd.c:633:24
	ldr	r0, [sp, #52]
	.loc	2 633 29 is_stmt 0              @ packages/tjpgd1d/src/tjpgd.c:633:29
	ldr	r1, [sp, #40]
	.loc	2 633 26                        @ packages/tjpgd1d/src/tjpgd.c:633:26
	lsrs	r0, r1
	.loc	2 633 9                         @ packages/tjpgd1d/src/tjpgd.c:633:9
	ldr	r1, [sp, #28]
	adds	r2, r1, #1
	str	r2, [sp, #28]
	.loc	2 633 12                        @ packages/tjpgd1d/src/tjpgd.c:633:12
	strb	r0, [r1]
	.loc	2 634 24 is_stmt 1              @ packages/tjpgd1d/src/tjpgd.c:634:24
	ldr	r0, [sp, #48]
	.loc	2 634 29 is_stmt 0              @ packages/tjpgd1d/src/tjpgd.c:634:29
	ldr	r1, [sp, #40]
	.loc	2 634 26                        @ packages/tjpgd1d/src/tjpgd.c:634:26
	lsrs	r0, r1
	.loc	2 634 9                         @ packages/tjpgd1d/src/tjpgd.c:634:9
	ldr	r1, [sp, #28]
	adds	r2, r1, #1
	str	r2, [sp, #28]
	.loc	2 634 12                        @ packages/tjpgd1d/src/tjpgd.c:634:12
	strb	r0, [r1]
	.loc	2 635 24 is_stmt 1              @ packages/tjpgd1d/src/tjpgd.c:635:24
	ldr	r0, [sp, #44]
	.loc	2 635 29 is_stmt 0              @ packages/tjpgd1d/src/tjpgd.c:635:29
	ldr	r1, [sp, #40]
	.loc	2 635 26                        @ packages/tjpgd1d/src/tjpgd.c:635:26
	lsrs	r0, r1
	.loc	2 635 9                         @ packages/tjpgd1d/src/tjpgd.c:635:9
	ldr	r1, [sp, #28]
	adds	r2, r1, #1
	str	r2, [sp, #28]
	.loc	2 635 12                        @ packages/tjpgd1d/src/tjpgd.c:635:12
	strb	r0, [r1]
	.loc	2 636 5 is_stmt 1               @ packages/tjpgd1d/src/tjpgd.c:636:5
	b	.LBB7_42
.Ltmp401:
.LBB7_42:                               @   in Loop: Header=BB7_32 Depth=2
	.loc	2 622 33                        @ packages/tjpgd1d/src/tjpgd.c:622:33
	ldr	r1, [sp, #36]
	.loc	2 622 30 is_stmt 0              @ packages/tjpgd1d/src/tjpgd.c:622:30
	ldr	r0, [sp, #116]
	add	r0, r1
	str	r0, [sp, #116]
	.loc	2 622 5                         @ packages/tjpgd1d/src/tjpgd.c:622:5
	b	.LBB7_32
.Ltmp402:
.LBB7_43:                               @   in Loop: Header=BB7_30 Depth=1
	.loc	2 637 4 is_stmt 1               @ packages/tjpgd1d/src/tjpgd.c:637:4
	b	.LBB7_44
.Ltmp403:
.LBB7_44:                               @   in Loop: Header=BB7_30 Depth=1
	.loc	2 621 32                        @ packages/tjpgd1d/src/tjpgd.c:621:32
	ldr	r1, [sp, #36]
	.loc	2 621 29 is_stmt 0              @ packages/tjpgd1d/src/tjpgd.c:621:29
	ldr	r0, [sp, #112]
	add	r0, r1
	str	r0, [sp, #112]
	.loc	2 621 4                         @ packages/tjpgd1d/src/tjpgd.c:621:4
	b	.LBB7_30
.Ltmp404:
.LBB7_45:
	.loc	2 638 3 is_stmt 1               @ packages/tjpgd1d/src/tjpgd.c:638:3
	b	.LBB7_46
.Ltmp405:
.LBB7_46:
	.loc	2 640 2                         @ packages/tjpgd1d/src/tjpgd.c:640:2
	b	.LBB7_58
.Ltmp406:
.LBB7_47:
	.loc	2 643 21                        @ packages/tjpgd1d/src/tjpgd.c:643:21
	ldr	r0, [sp, #136]
	.loc	2 643 25 is_stmt 0              @ packages/tjpgd1d/src/tjpgd.c:643:25
	ldr	r0, [r0, #96]
	.loc	2 643 9                         @ packages/tjpgd1d/src/tjpgd.c:643:9
	str	r0, [sp, #72]
	.loc	2 644 8 is_stmt 1               @ packages/tjpgd1d/src/tjpgd.c:644:8
	ldr	r0, [sp, #136]
	.loc	2 644 12 is_stmt 0              @ packages/tjpgd1d/src/tjpgd.c:644:12
	ldr	r2, [r0, #100]
	.loc	2 644 21                        @ packages/tjpgd1d/src/tjpgd.c:644:21
	ldr	r0, [sp, #108]
	.loc	2 644 26                        @ packages/tjpgd1d/src/tjpgd.c:644:26
	ldr	r1, [sp, #104]
	.loc	2 644 19                        @ packages/tjpgd1d/src/tjpgd.c:644:19
	mla	r0, r0, r1, r2
	.loc	2 644 6                         @ packages/tjpgd1d/src/tjpgd.c:644:6
	str	r0, [sp, #76]
	.loc	2 645 8 is_stmt 1               @ packages/tjpgd1d/src/tjpgd.c:645:8
	ldr	r0, [sp, #76]
	ldrb	r0, [r0]
	.loc	2 645 14 is_stmt 0              @ packages/tjpgd1d/src/tjpgd.c:645:14
	subs	r0, #128
	.loc	2 645 6                         @ packages/tjpgd1d/src/tjpgd.c:645:6
	str	r0, [sp, #88]
	.loc	2 646 8 is_stmt 1               @ packages/tjpgd1d/src/tjpgd.c:646:8
	ldr	r0, [sp, #76]
	ldrb.w	r0, [r0, #64]
	.loc	2 646 15 is_stmt 0              @ packages/tjpgd1d/src/tjpgd.c:646:15
	subs	r0, #128
	.loc	2 646 6                         @ packages/tjpgd1d/src/tjpgd.c:646:6
	str	r0, [sp, #84]
	movs	r0, #0
.Ltmp407:
	.loc	2 647 11 is_stmt 1              @ packages/tjpgd1d/src/tjpgd.c:647:11
	str	r0, [sp, #112]
	.loc	2 647 8 is_stmt 0               @ packages/tjpgd1d/src/tjpgd.c:647:8
	b	.LBB7_48
.LBB7_48:                               @ =>This Loop Header: Depth=1
                                        @     Child Loop BB7_52 Depth 2
.Ltmp408:
	.loc	2 647 16                        @ packages/tjpgd1d/src/tjpgd.c:647:16
	ldr	r0, [sp, #112]
	.loc	2 647 21                        @ packages/tjpgd1d/src/tjpgd.c:647:21
	ldr	r1, [sp, #104]
.Ltmp409:
	.loc	2 647 3                         @ packages/tjpgd1d/src/tjpgd.c:647:3
	cmp	r0, r1
	bhs	.LBB7_57
	b	.LBB7_49
.LBB7_49:                               @   in Loop: Header=BB7_48 Depth=1
.Ltmp410:
	.loc	2 648 9 is_stmt 1               @ packages/tjpgd1d/src/tjpgd.c:648:9
	ldr	r0, [sp, #136]
	.loc	2 648 13 is_stmt 0              @ packages/tjpgd1d/src/tjpgd.c:648:13
	ldr	r0, [r0, #100]
	.loc	2 648 7                         @ packages/tjpgd1d/src/tjpgd.c:648:7
	str	r0, [sp, #80]
.Ltmp411:
	.loc	2 649 8 is_stmt 1               @ packages/tjpgd1d/src/tjpgd.c:649:8
	ldr	r0, [sp, #112]
.Ltmp412:
	.loc	2 649 8 is_stmt 0               @ packages/tjpgd1d/src/tjpgd.c:649:8
	cmp	r0, #8
	bne	.LBB7_51
	b	.LBB7_50
.LBB7_50:                               @   in Loop: Header=BB7_48 Depth=1
.Ltmp413:
	.loc	2 649 20                        @ packages/tjpgd1d/src/tjpgd.c:649:20
	ldr	r0, [sp, #80]
	adds	r0, #128
	str	r0, [sp, #80]
	.loc	2 649 17                        @ packages/tjpgd1d/src/tjpgd.c:649:17
	b	.LBB7_51
.Ltmp414:
.LBB7_51:                               @   in Loop: Header=BB7_48 Depth=1
	.loc	2 0 17                          @ packages/tjpgd1d/src/tjpgd.c:0:17
	movs	r0, #0
.Ltmp415:
	.loc	2 650 12 is_stmt 1              @ packages/tjpgd1d/src/tjpgd.c:650:12
	str	r0, [sp, #116]
	.loc	2 650 9 is_stmt 0               @ packages/tjpgd1d/src/tjpgd.c:650:9
	b	.LBB7_52
.LBB7_52:                               @   Parent Loop BB7_48 Depth=1
                                        @ =>  This Inner Loop Header: Depth=2
.Ltmp416:
	.loc	2 650 17                        @ packages/tjpgd1d/src/tjpgd.c:650:17
	ldr	r0, [sp, #116]
	.loc	2 650 22                        @ packages/tjpgd1d/src/tjpgd.c:650:22
	ldr	r1, [sp, #108]
.Ltmp417:
	.loc	2 650 4                         @ packages/tjpgd1d/src/tjpgd.c:650:4
	cmp	r0, r1
	bhs	.LBB7_55
	b	.LBB7_53
.LBB7_53:                               @   in Loop: Header=BB7_52 Depth=2
.Ltmp418:
	.loc	2 651 11 is_stmt 1              @ packages/tjpgd1d/src/tjpgd.c:651:11
	ldr	r0, [sp, #80]
	.loc	2 651 10 is_stmt 0              @ packages/tjpgd1d/src/tjpgd.c:651:10
	ldrb	r0, [r0]
	.loc	2 651 8                         @ packages/tjpgd1d/src/tjpgd.c:651:8
	str	r0, [sp, #92]
	.loc	2 652 8 is_stmt 1               @ packages/tjpgd1d/src/tjpgd.c:652:8
	ldr	r0, [sp, #80]
	adds	r0, #64
	str	r0, [sp, #80]
	.loc	2 655 24                        @ packages/tjpgd1d/src/tjpgd.c:655:24
	ldr	r0, [sp, #92]
	ldr	r1, [sp, #88]
	movw	r2, #1814
	muls	r1, r2, r1
	asrs	r2, r1, #31
	add.w	r1, r1, r2, lsr #22
	add.w	r1, r0, r1, lsr #10
	bfc	r1, #10, #22
	movw	r0, :lower16:Clip8
	movt	r0, :upper16:Clip8
	ldrb	r1, [r0, r1]
	.loc	2 655 11 is_stmt 0              @ packages/tjpgd1d/src/tjpgd.c:655:11
	ldr	r2, [sp, #72]
	adds	r3, r2, #1
	str	r3, [sp, #72]
	.loc	2 655 14                        @ packages/tjpgd1d/src/tjpgd.c:655:14
	strb	r1, [r2]
	.loc	2 656 24 is_stmt 1              @ packages/tjpgd1d/src/tjpgd.c:656:24
	ldr	r1, [sp, #92]
	ldr	r2, [sp, #88]
	ldr	r3, [sp, #84]
	movw	r12, #731
	mul	r12, r3, r12
	mov.w	r3, #352
	mla	r2, r2, r3, r12
	asrs	r3, r2, #31
	add.w	r2, r2, r3, lsr #22
	sub.w	r1, r1, r2, lsr #10
	bfc	r1, #10, #22
	ldrb	r1, [r0, r1]
	.loc	2 656 11 is_stmt 0              @ packages/tjpgd1d/src/tjpgd.c:656:11
	ldr	r2, [sp, #72]
	adds	r3, r2, #1
	str	r3, [sp, #72]
	.loc	2 656 14                        @ packages/tjpgd1d/src/tjpgd.c:656:14
	strb	r1, [r2]
	.loc	2 657 24 is_stmt 1              @ packages/tjpgd1d/src/tjpgd.c:657:24
	ldr	r1, [sp, #92]
	ldr	r2, [sp, #84]
	movw	r3, #1435
	muls	r2, r3, r2
	asrs	r3, r2, #31
	add.w	r2, r2, r3, lsr #22
	add.w	r1, r1, r2, lsr #10
	bfc	r1, #10, #22
	ldrb	r0, [r0, r1]
	.loc	2 657 11 is_stmt 0              @ packages/tjpgd1d/src/tjpgd.c:657:11
	ldr	r1, [sp, #72]
	adds	r2, r1, #1
	str	r2, [sp, #72]
	.loc	2 657 14                        @ packages/tjpgd1d/src/tjpgd.c:657:14
	strb	r0, [r1]
	.loc	2 660 4 is_stmt 1               @ packages/tjpgd1d/src/tjpgd.c:660:4
	b	.LBB7_54
.Ltmp419:
.LBB7_54:                               @   in Loop: Header=BB7_52 Depth=2
	.loc	2 650 29                        @ packages/tjpgd1d/src/tjpgd.c:650:29
	ldr	r0, [sp, #116]
	adds	r0, #8
	str	r0, [sp, #116]
	.loc	2 650 4 is_stmt 0               @ packages/tjpgd1d/src/tjpgd.c:650:4
	b	.LBB7_52
.Ltmp420:
.LBB7_55:                               @   in Loop: Header=BB7_48 Depth=1
	.loc	2 661 3 is_stmt 1               @ packages/tjpgd1d/src/tjpgd.c:661:3
	b	.LBB7_56
.Ltmp421:
.LBB7_56:                               @   in Loop: Header=BB7_48 Depth=1
	.loc	2 647 28                        @ packages/tjpgd1d/src/tjpgd.c:647:28
	ldr	r0, [sp, #112]
	adds	r0, #8
	str	r0, [sp, #112]
	.loc	2 647 3 is_stmt 0               @ packages/tjpgd1d/src/tjpgd.c:647:3
	b	.LBB7_48
.Ltmp422:
.LBB7_57:
	.loc	2 0 3                           @ packages/tjpgd1d/src/tjpgd.c:0:3
	b	.LBB7_58
.LBB7_58:
	.loc	2 665 9 is_stmt 1               @ packages/tjpgd1d/src/tjpgd.c:665:9
	ldr	r0, [sp, #136]
	.loc	2 665 13 is_stmt 0              @ packages/tjpgd1d/src/tjpgd.c:665:13
	ldrb	r1, [r0, #13]
	.loc	2 665 5                         @ packages/tjpgd1d/src/tjpgd.c:665:5
	ldr	r0, [sp, #108]
	lsrs	r0, r1
	str	r0, [sp, #108]
.Ltmp423:
	.loc	2 666 6 is_stmt 1               @ packages/tjpgd1d/src/tjpgd.c:666:6
	ldr	r0, [sp, #100]
	.loc	2 666 11 is_stmt 0              @ packages/tjpgd1d/src/tjpgd.c:666:11
	ldr	r1, [sp, #108]
.Ltmp424:
	.loc	2 666 6                         @ packages/tjpgd1d/src/tjpgd.c:666:6
	cmp	r0, r1
	bhs	.LBB7_68
	b	.LBB7_59
.LBB7_59:
.Ltmp425:
	.loc	2 670 21 is_stmt 1              @ packages/tjpgd1d/src/tjpgd.c:670:21
	ldr	r0, [sp, #136]
	.loc	2 670 25 is_stmt 0              @ packages/tjpgd1d/src/tjpgd.c:670:25
	ldr	r0, [r0, #96]
	.loc	2 670 9                         @ packages/tjpgd1d/src/tjpgd.c:670:9
	str	r0, [sp, #20]
	.loc	2 670 5                         @ packages/tjpgd1d/src/tjpgd.c:670:5
	str	r0, [sp, #24]
	movs	r0, #0
.Ltmp426:
	.loc	2 671 10 is_stmt 1              @ packages/tjpgd1d/src/tjpgd.c:671:10
	str	r0, [sp, #12]
	.loc	2 671 8 is_stmt 0               @ packages/tjpgd1d/src/tjpgd.c:671:8
	b	.LBB7_60
.LBB7_60:                               @ =>This Loop Header: Depth=1
                                        @     Child Loop BB7_62 Depth 2
.Ltmp427:
	.loc	2 671 15                        @ packages/tjpgd1d/src/tjpgd.c:671:15
	ldr	r0, [sp, #12]
	.loc	2 671 19                        @ packages/tjpgd1d/src/tjpgd.c:671:19
	ldr	r1, [sp, #96]
.Ltmp428:
	.loc	2 671 3                         @ packages/tjpgd1d/src/tjpgd.c:671:3
	cmp	r0, r1
	bhs	.LBB7_67
	b	.LBB7_61
.LBB7_61:                               @   in Loop: Header=BB7_60 Depth=1
	.loc	2 0 3                           @ packages/tjpgd1d/src/tjpgd.c:0:3
	movs	r0, #0
.Ltmp429:
	.loc	2 672 11 is_stmt 1              @ packages/tjpgd1d/src/tjpgd.c:672:11
	str	r0, [sp, #16]
	.loc	2 672 9 is_stmt 0               @ packages/tjpgd1d/src/tjpgd.c:672:9
	b	.LBB7_62
.LBB7_62:                               @   Parent Loop BB7_60 Depth=1
                                        @ =>  This Inner Loop Header: Depth=2
.Ltmp430:
	.loc	2 672 16                        @ packages/tjpgd1d/src/tjpgd.c:672:16
	ldr	r0, [sp, #16]
	.loc	2 672 20                        @ packages/tjpgd1d/src/tjpgd.c:672:20
	ldr	r1, [sp, #100]
.Ltmp431:
	.loc	2 672 4                         @ packages/tjpgd1d/src/tjpgd.c:672:4
	cmp	r0, r1
	bhs	.LBB7_65
	b	.LBB7_63
.LBB7_63:                               @   in Loop: Header=BB7_62 Depth=2
.Ltmp432:
	.loc	2 673 14 is_stmt 1              @ packages/tjpgd1d/src/tjpgd.c:673:14
	ldr	r0, [sp, #24]
	adds	r1, r0, #1
	str	r1, [sp, #24]
	.loc	2 673 12 is_stmt 0              @ packages/tjpgd1d/src/tjpgd.c:673:12
	ldrb	r0, [r0]
	.loc	2 673 7                         @ packages/tjpgd1d/src/tjpgd.c:673:7
	ldr	r1, [sp, #20]
	adds	r2, r1, #1
	str	r2, [sp, #20]
	.loc	2 673 10                        @ packages/tjpgd1d/src/tjpgd.c:673:10
	strb	r0, [r1]
	.loc	2 674 14 is_stmt 1              @ packages/tjpgd1d/src/tjpgd.c:674:14
	ldr	r0, [sp, #24]
	adds	r1, r0, #1
	str	r1, [sp, #24]
	.loc	2 674 12 is_stmt 0              @ packages/tjpgd1d/src/tjpgd.c:674:12
	ldrb	r0, [r0]
	.loc	2 674 7                         @ packages/tjpgd1d/src/tjpgd.c:674:7
	ldr	r1, [sp, #20]
	adds	r2, r1, #1
	str	r2, [sp, #20]
	.loc	2 674 10                        @ packages/tjpgd1d/src/tjpgd.c:674:10
	strb	r0, [r1]
	.loc	2 675 14 is_stmt 1              @ packages/tjpgd1d/src/tjpgd.c:675:14
	ldr	r0, [sp, #24]
	adds	r1, r0, #1
	str	r1, [sp, #24]
	.loc	2 675 12 is_stmt 0              @ packages/tjpgd1d/src/tjpgd.c:675:12
	ldrb	r0, [r0]
	.loc	2 675 7                         @ packages/tjpgd1d/src/tjpgd.c:675:7
	ldr	r1, [sp, #20]
	adds	r2, r1, #1
	str	r2, [sp, #20]
	.loc	2 675 10                        @ packages/tjpgd1d/src/tjpgd.c:675:10
	strb	r0, [r1]
	.loc	2 676 4 is_stmt 1               @ packages/tjpgd1d/src/tjpgd.c:676:4
	b	.LBB7_64
.Ltmp433:
.LBB7_64:                               @   in Loop: Header=BB7_62 Depth=2
	.loc	2 672 25                        @ packages/tjpgd1d/src/tjpgd.c:672:25
	ldr	r0, [sp, #16]
	adds	r0, #1
	str	r0, [sp, #16]
	.loc	2 672 4 is_stmt 0               @ packages/tjpgd1d/src/tjpgd.c:672:4
	b	.LBB7_62
.Ltmp434:
.LBB7_65:                               @   in Loop: Header=BB7_60 Depth=1
	.loc	2 677 10 is_stmt 1              @ packages/tjpgd1d/src/tjpgd.c:677:10
	ldr	r0, [sp, #108]
	.loc	2 677 15 is_stmt 0              @ packages/tjpgd1d/src/tjpgd.c:677:15
	ldr	r1, [sp, #100]
	.loc	2 677 13                        @ packages/tjpgd1d/src/tjpgd.c:677:13
	subs	r0, r0, r1
	.loc	2 677 19                        @ packages/tjpgd1d/src/tjpgd.c:677:19
	add.w	r1, r0, r0, lsl #1
	.loc	2 677 6                         @ packages/tjpgd1d/src/tjpgd.c:677:6
	ldr	r0, [sp, #24]
	add	r0, r1
	str	r0, [sp, #24]
	.loc	2 678 3 is_stmt 1               @ packages/tjpgd1d/src/tjpgd.c:678:3
	b	.LBB7_66
.Ltmp435:
.LBB7_66:                               @   in Loop: Header=BB7_60 Depth=1
	.loc	2 671 24                        @ packages/tjpgd1d/src/tjpgd.c:671:24
	ldr	r0, [sp, #12]
	adds	r0, #1
	str	r0, [sp, #12]
	.loc	2 671 3 is_stmt 0               @ packages/tjpgd1d/src/tjpgd.c:671:3
	b	.LBB7_60
.Ltmp436:
.LBB7_67:
	.loc	2 679 2 is_stmt 1               @ packages/tjpgd1d/src/tjpgd.c:679:2
	b	.LBB7_68
.Ltmp437:
.LBB7_68:
	.loc	2 696 9                         @ packages/tjpgd1d/src/tjpgd.c:696:9
	ldr	r3, [sp, #132]
	.loc	2 696 17 is_stmt 0              @ packages/tjpgd1d/src/tjpgd.c:696:17
	ldr	r0, [sp, #136]
	.loc	2 696 25                        @ packages/tjpgd1d/src/tjpgd.c:696:25
	ldr	r1, [r0, #96]
	add	r2, sp, #64
	.loc	2 696 9                         @ packages/tjpgd1d/src/tjpgd.c:696:9
	blx	r3
	clz	r0, r0
	lsrs	r0, r0, #5
	.loc	2 696 2                         @ packages/tjpgd1d/src/tjpgd.c:696:2
	strb.w	r0, [sp, #143]
	b	.LBB7_69
.LBB7_69:
	.loc	2 697 1 is_stmt 1               @ packages/tjpgd1d/src/tjpgd.c:697:1
	ldrb.w	r0, [sp, #143]
	add	sp, #144
	pop	{r7, pc}
.Ltmp438:
.Lfunc_end7:
	.size	mcu_output, .Lfunc_end7-mcu_output
	.cfi_endproc
	.cantunwind
	.fnend
                                        @ -- End function
	.section	.text.huffext,"ax",%progbits
	.p2align	3                               @ -- Begin function huffext
	.type	huffext,%function
	.code	16                              @ @huffext
	.thumb_func
huffext:
.Lfunc_begin8:
	.loc	2 303 0                         @ packages/tjpgd1d/src/tjpgd.c:303:0
	.fnstart
	.cfi_startproc
@ %bb.0:
	.save	{r7, lr}
	push	{r7, lr}
	.cfi_def_cfa_offset 8
	.cfi_offset lr, -4
	.cfi_offset r7, -8
	.pad	#48
	sub	sp, #48
	.cfi_def_cfa_offset 56
	str	r0, [sp, #40]
	str	r1, [sp, #36]
	str	r2, [sp, #32]
	str	r3, [sp, #28]
.Ltmp439:
	.loc	2 308 8 prologue_end            @ packages/tjpgd1d/src/tjpgd.c:308:8
	ldr	r0, [sp, #40]
	.loc	2 308 12 is_stmt 0              @ packages/tjpgd1d/src/tjpgd.c:308:12
	ldrb	r0, [r0, #12]
	.loc	2 308 6                         @ packages/tjpgd1d/src/tjpgd.c:308:6
	strb.w	r0, [sp, #27]
	.loc	2 308 23                        @ packages/tjpgd1d/src/tjpgd.c:308:23
	ldr	r0, [sp, #40]
	.loc	2 308 27                        @ packages/tjpgd1d/src/tjpgd.c:308:27
	ldr	r0, [r0]
	.loc	2 308 21                        @ packages/tjpgd1d/src/tjpgd.c:308:21
	str	r0, [sp, #16]
	.loc	2 308 38                        @ packages/tjpgd1d/src/tjpgd.c:308:38
	ldr	r0, [sp, #40]
	.loc	2 308 42                        @ packages/tjpgd1d/src/tjpgd.c:308:42
	ldr	r0, [r0, #4]
	.loc	2 308 36                        @ packages/tjpgd1d/src/tjpgd.c:308:36
	str	r0, [sp, #20]
	.loc	2 309 7 is_stmt 1               @ packages/tjpgd1d/src/tjpgd.c:309:7
	ldr	r0, [sp, #20]
	.loc	2 309 6 is_stmt 0               @ packages/tjpgd1d/src/tjpgd.c:309:6
	ldrb	r0, [r0]
	.loc	2 309 4                         @ packages/tjpgd1d/src/tjpgd.c:309:4
	strb.w	r0, [sp, #26]
	movs	r0, #0
	.loc	2 309 17                        @ packages/tjpgd1d/src/tjpgd.c:309:17
	str	r0, [sp, #8]
	.loc	2 309 13                        @ packages/tjpgd1d/src/tjpgd.c:309:13
	str	r0, [sp, #12]
	movs	r0, #16
	.loc	2 310 5 is_stmt 1               @ packages/tjpgd1d/src/tjpgd.c:310:5
	str	r0, [sp, #4]
	.loc	2 311 2                         @ packages/tjpgd1d/src/tjpgd.c:311:2
	b	.LBB8_1
.LBB8_1:                                @ =>This Loop Header: Depth=1
                                        @     Child Loop BB8_18 Depth 2
.Ltmp440:
	.loc	2 312 8                         @ packages/tjpgd1d/src/tjpgd.c:312:8
	ldrb.w	r0, [sp, #27]
.Ltmp441:
	.loc	2 312 7 is_stmt 0               @ packages/tjpgd1d/src/tjpgd.c:312:7
	cmp	r0, #0
	bne	.LBB8_15
	b	.LBB8_2
.LBB8_2:                                @   in Loop: Header=BB8_1 Depth=1
.Ltmp442:
	.loc	2 313 9 is_stmt 1               @ packages/tjpgd1d/src/tjpgd.c:313:9
	ldr	r0, [sp, #16]
.Ltmp443:
	.loc	2 313 8 is_stmt 0               @ packages/tjpgd1d/src/tjpgd.c:313:8
	cbnz	r0, .LBB8_6
	b	.LBB8_3
.LBB8_3:                                @   in Loop: Header=BB8_1 Depth=1
.Ltmp444:
	.loc	2 314 10 is_stmt 1              @ packages/tjpgd1d/src/tjpgd.c:314:10
	ldr	r0, [sp, #40]
	.loc	2 314 14 is_stmt 0              @ packages/tjpgd1d/src/tjpgd.c:314:14
	ldr	r0, [r0, #8]
	.loc	2 314 8                         @ packages/tjpgd1d/src/tjpgd.c:314:8
	str	r0, [sp, #20]
	.loc	2 315 10 is_stmt 1              @ packages/tjpgd1d/src/tjpgd.c:315:10
	ldr	r0, [sp, #40]
	.loc	2 315 14 is_stmt 0              @ packages/tjpgd1d/src/tjpgd.c:315:14
	ldr	r3, [r0, #112]
	.loc	2 315 25                        @ packages/tjpgd1d/src/tjpgd.c:315:25
	ldr	r1, [sp, #20]
	mov.w	r2, #512
	.loc	2 315 10                        @ packages/tjpgd1d/src/tjpgd.c:315:10
	blx	r3
	.loc	2 315 8                         @ packages/tjpgd1d/src/tjpgd.c:315:8
	str	r0, [sp, #16]
.Ltmp445:
	.loc	2 316 10 is_stmt 1              @ packages/tjpgd1d/src/tjpgd.c:316:10
	ldr	r0, [sp, #16]
.Ltmp446:
	.loc	2 316 9 is_stmt 0               @ packages/tjpgd1d/src/tjpgd.c:316:9
	cbnz	r0, .LBB8_5
	b	.LBB8_4
.LBB8_4:
	.loc	2 0 9                           @ packages/tjpgd1d/src/tjpgd.c:0:9
	mvn	r0, #1
.Ltmp447:
	.loc	2 316 14                        @ packages/tjpgd1d/src/tjpgd.c:316:14
	str	r0, [sp, #44]
	b	.LBB8_26
.Ltmp448:
.LBB8_5:                                @   in Loop: Header=BB8_1 Depth=1
	.loc	2 317 4 is_stmt 1               @ packages/tjpgd1d/src/tjpgd.c:317:4
	b	.LBB8_7
.Ltmp449:
.LBB8_6:                                @   in Loop: Header=BB8_1 Depth=1
	.loc	2 318 7                         @ packages/tjpgd1d/src/tjpgd.c:318:7
	ldr	r0, [sp, #20]
	adds	r0, #1
	str	r0, [sp, #20]
	b	.LBB8_7
.Ltmp450:
.LBB8_7:                                @   in Loop: Header=BB8_1 Depth=1
	.loc	2 320 6                         @ packages/tjpgd1d/src/tjpgd.c:320:6
	ldr	r0, [sp, #16]
	subs	r0, #1
	str	r0, [sp, #16]
.Ltmp451:
	.loc	2 321 8                         @ packages/tjpgd1d/src/tjpgd.c:321:8
	ldr	r0, [sp, #8]
.Ltmp452:
	.loc	2 321 8 is_stmt 0               @ packages/tjpgd1d/src/tjpgd.c:321:8
	cbz	r0, .LBB8_11
	b	.LBB8_8
.LBB8_8:                                @   in Loop: Header=BB8_1 Depth=1
	.loc	2 0 8                           @ packages/tjpgd1d/src/tjpgd.c:0:8
	movs	r0, #0
.Ltmp453:
	.loc	2 322 7 is_stmt 1               @ packages/tjpgd1d/src/tjpgd.c:322:7
	str	r0, [sp, #8]
.Ltmp454:
	.loc	2 323 10                        @ packages/tjpgd1d/src/tjpgd.c:323:10
	ldr	r0, [sp, #20]
	.loc	2 323 9 is_stmt 0               @ packages/tjpgd1d/src/tjpgd.c:323:9
	ldrb	r0, [r0]
.Ltmp455:
	.loc	2 323 9                         @ packages/tjpgd1d/src/tjpgd.c:323:9
	cbz	r0, .LBB8_10
	b	.LBB8_9
.LBB8_9:
	.loc	2 0 9                           @ packages/tjpgd1d/src/tjpgd.c:0:9
	mvn	r0, #5
.Ltmp456:
	.loc	2 323 19                        @ packages/tjpgd1d/src/tjpgd.c:323:19
	str	r0, [sp, #44]
	b	.LBB8_26
.Ltmp457:
.LBB8_10:                               @   in Loop: Header=BB8_1 Depth=1
	.loc	2 0 19                          @ packages/tjpgd1d/src/tjpgd.c:0:19
	movs	r0, #255
	.loc	2 324 13 is_stmt 1              @ packages/tjpgd1d/src/tjpgd.c:324:13
	strb.w	r0, [sp, #26]
	.loc	2 324 6 is_stmt 0               @ packages/tjpgd1d/src/tjpgd.c:324:6
	ldr	r1, [sp, #20]
	.loc	2 324 9                         @ packages/tjpgd1d/src/tjpgd.c:324:9
	strb	r0, [r1]
	.loc	2 325 4 is_stmt 1               @ packages/tjpgd1d/src/tjpgd.c:325:4
	b	.LBB8_14
.Ltmp458:
.LBB8_11:                               @   in Loop: Header=BB8_1 Depth=1
	.loc	2 326 10                        @ packages/tjpgd1d/src/tjpgd.c:326:10
	ldr	r0, [sp, #20]
	.loc	2 326 9 is_stmt 0               @ packages/tjpgd1d/src/tjpgd.c:326:9
	ldrb	r0, [r0]
	.loc	2 326 7                         @ packages/tjpgd1d/src/tjpgd.c:326:7
	strb.w	r0, [sp, #26]
.Ltmp459:
	.loc	2 327 9 is_stmt 1               @ packages/tjpgd1d/src/tjpgd.c:327:9
	ldrb.w	r0, [sp, #26]
.Ltmp460:
	.loc	2 327 9 is_stmt 0               @ packages/tjpgd1d/src/tjpgd.c:327:9
	cmp	r0, #255
	bne	.LBB8_13
	b	.LBB8_12
.LBB8_12:                               @   in Loop: Header=BB8_1 Depth=1
	.loc	2 0 9                           @ packages/tjpgd1d/src/tjpgd.c:0:9
	movs	r0, #1
.Ltmp461:
	.loc	2 328 8 is_stmt 1               @ packages/tjpgd1d/src/tjpgd.c:328:8
	str	r0, [sp, #8]
	.loc	2 328 13 is_stmt 0              @ packages/tjpgd1d/src/tjpgd.c:328:13
	b	.LBB8_24
.Ltmp462:
.LBB8_13:                               @   in Loop: Header=BB8_1 Depth=1
	.loc	2 0 13                          @ packages/tjpgd1d/src/tjpgd.c:0:13
	b	.LBB8_14
.LBB8_14:                               @   in Loop: Header=BB8_1 Depth=1
	movs	r0, #128
	.loc	2 331 8 is_stmt 1               @ packages/tjpgd1d/src/tjpgd.c:331:8
	strb.w	r0, [sp, #27]
	.loc	2 332 3                         @ packages/tjpgd1d/src/tjpgd.c:332:3
	b	.LBB8_15
.Ltmp463:
.LBB8_15:                               @   in Loop: Header=BB8_1 Depth=1
	.loc	2 333 5                         @ packages/tjpgd1d/src/tjpgd.c:333:5
	ldr	r0, [sp, #12]
	lsls	r0, r0, #1
	str	r0, [sp, #12]
.Ltmp464:
	.loc	2 334 7                         @ packages/tjpgd1d/src/tjpgd.c:334:7
	ldrb.w	r0, [sp, #26]
	.loc	2 334 11 is_stmt 0              @ packages/tjpgd1d/src/tjpgd.c:334:11
	ldrb.w	r1, [sp, #27]
.Ltmp465:
	.loc	2 334 7                         @ packages/tjpgd1d/src/tjpgd.c:334:7
	tst	r0, r1
	beq	.LBB8_17
	b	.LBB8_16
.LBB8_16:                               @   in Loop: Header=BB8_1 Depth=1
.Ltmp466:
	.loc	2 334 17                        @ packages/tjpgd1d/src/tjpgd.c:334:17
	ldr	r0, [sp, #12]
	adds	r0, #1
	str	r0, [sp, #12]
	.loc	2 334 16                        @ packages/tjpgd1d/src/tjpgd.c:334:16
	b	.LBB8_17
.Ltmp467:
.LBB8_17:                               @   in Loop: Header=BB8_1 Depth=1
	.loc	2 335 7 is_stmt 1               @ packages/tjpgd1d/src/tjpgd.c:335:7
	ldrb.w	r0, [sp, #27]
	lsrs	r0, r0, #1
	strb.w	r0, [sp, #27]
.Ltmp468:
	.loc	2 337 19                        @ packages/tjpgd1d/src/tjpgd.c:337:19
	ldr	r0, [sp, #36]
	adds	r1, r0, #1
	str	r1, [sp, #36]
	.loc	2 337 13 is_stmt 0              @ packages/tjpgd1d/src/tjpgd.c:337:13
	ldrb	r0, [r0]
	.loc	2 337 11                        @ packages/tjpgd1d/src/tjpgd.c:337:11
	str	r0, [sp]
	.loc	2 337 8                         @ packages/tjpgd1d/src/tjpgd.c:337:8
	b	.LBB8_18
.LBB8_18:                               @   Parent Loop BB8_1 Depth=1
                                        @ =>  This Inner Loop Header: Depth=2
.Ltmp469:
	.loc	2 337 23                        @ packages/tjpgd1d/src/tjpgd.c:337:23
	ldr	r0, [sp]
.Ltmp470:
	.loc	2 337 3                         @ packages/tjpgd1d/src/tjpgd.c:337:3
	cbz	r0, .LBB8_23
	b	.LBB8_19
.LBB8_19:                               @   in Loop: Header=BB8_18 Depth=2
.Ltmp471:
	.loc	2 338 8 is_stmt 1               @ packages/tjpgd1d/src/tjpgd.c:338:8
	ldr	r0, [sp, #12]
	.loc	2 338 19 is_stmt 0              @ packages/tjpgd1d/src/tjpgd.c:338:19
	ldr	r1, [sp, #32]
	adds	r2, r1, #2
	str	r2, [sp, #32]
	.loc	2 338 13                        @ packages/tjpgd1d/src/tjpgd.c:338:13
	ldrh	r1, [r1]
.Ltmp472:
	.loc	2 338 8                         @ packages/tjpgd1d/src/tjpgd.c:338:8
	cmp	r0, r1
	bne	.LBB8_21
	b	.LBB8_20
.LBB8_20:
.Ltmp473:
	.loc	2 339 16 is_stmt 1              @ packages/tjpgd1d/src/tjpgd.c:339:16
	ldrb.w	r0, [sp, #27]
	.loc	2 339 5 is_stmt 0               @ packages/tjpgd1d/src/tjpgd.c:339:5
	ldr	r1, [sp, #40]
	.loc	2 339 14                        @ packages/tjpgd1d/src/tjpgd.c:339:14
	strb	r0, [r1, #12]
	.loc	2 339 32                        @ packages/tjpgd1d/src/tjpgd.c:339:32
	ldr	r0, [sp, #16]
	.loc	2 339 21                        @ packages/tjpgd1d/src/tjpgd.c:339:21
	ldr	r1, [sp, #40]
	.loc	2 339 30                        @ packages/tjpgd1d/src/tjpgd.c:339:30
	str	r0, [r1]
	.loc	2 339 47                        @ packages/tjpgd1d/src/tjpgd.c:339:47
	ldr	r0, [sp, #20]
	.loc	2 339 36                        @ packages/tjpgd1d/src/tjpgd.c:339:36
	ldr	r1, [sp, #40]
	.loc	2 339 45                        @ packages/tjpgd1d/src/tjpgd.c:339:45
	str	r0, [r1, #4]
	.loc	2 340 13 is_stmt 1              @ packages/tjpgd1d/src/tjpgd.c:340:13
	ldr	r0, [sp, #28]
	.loc	2 340 12 is_stmt 0              @ packages/tjpgd1d/src/tjpgd.c:340:12
	ldrb	r0, [r0]
	.loc	2 340 5                         @ packages/tjpgd1d/src/tjpgd.c:340:5
	str	r0, [sp, #44]
	b	.LBB8_26
.Ltmp474:
.LBB8_21:                               @   in Loop: Header=BB8_18 Depth=2
	.loc	2 342 9 is_stmt 1               @ packages/tjpgd1d/src/tjpgd.c:342:9
	ldr	r0, [sp, #28]
	adds	r0, #1
	str	r0, [sp, #28]
	.loc	2 343 3                         @ packages/tjpgd1d/src/tjpgd.c:343:3
	b	.LBB8_22
.Ltmp475:
.LBB8_22:                               @   in Loop: Header=BB8_18 Depth=2
	.loc	2 337 29                        @ packages/tjpgd1d/src/tjpgd.c:337:29
	ldr	r0, [sp]
	subs	r0, #1
	str	r0, [sp]
	.loc	2 337 3 is_stmt 0               @ packages/tjpgd1d/src/tjpgd.c:337:3
	b	.LBB8_18
.Ltmp476:
.LBB8_23:                               @   in Loop: Header=BB8_1 Depth=1
	.loc	2 344 5 is_stmt 1               @ packages/tjpgd1d/src/tjpgd.c:344:5
	ldr	r0, [sp, #4]
	subs	r0, #1
	str	r0, [sp, #4]
	.loc	2 345 2                         @ packages/tjpgd1d/src/tjpgd.c:345:2
	b	.LBB8_24
.Ltmp477:
.LBB8_24:                               @   in Loop: Header=BB8_1 Depth=1
	.loc	2 345 11 is_stmt 0              @ packages/tjpgd1d/src/tjpgd.c:345:11
	ldr	r0, [sp, #4]
.Ltmp478:
	.loc	2 345 2                         @ packages/tjpgd1d/src/tjpgd.c:345:2
	cmp	r0, #0
	bne.w	.LBB8_1
	b	.LBB8_25
.Ltmp479:
.LBB8_25:
	.loc	2 0 2                           @ packages/tjpgd1d/src/tjpgd.c:0:2
	mvn	r0, #5
	.loc	2 347 2 is_stmt 1               @ packages/tjpgd1d/src/tjpgd.c:347:2
	str	r0, [sp, #44]
	b	.LBB8_26
.LBB8_26:
	.loc	2 348 1                         @ packages/tjpgd1d/src/tjpgd.c:348:1
	ldr	r0, [sp, #44]
	add	sp, #48
	pop	{r7, pc}
.Ltmp480:
.Lfunc_end8:
	.size	huffext, .Lfunc_end8-huffext
	.cfi_endproc
	.cantunwind
	.fnend
                                        @ -- End function
	.section	.text.bitext,"ax",%progbits
	.p2align	3                               @ -- Begin function bitext
	.type	bitext,%function
	.code	16                              @ @bitext
	.thumb_func
bitext:
.Lfunc_begin9:
	.loc	2 249 0                         @ packages/tjpgd1d/src/tjpgd.c:249:0
	.fnstart
	.cfi_startproc
@ %bb.0:
	.save	{r7, lr}
	push	{r7, lr}
	.cfi_def_cfa_offset 8
	.cfi_offset lr, -4
	.cfi_offset r7, -8
	.pad	#32
	sub	sp, #32
	.cfi_def_cfa_offset 40
	str	r0, [sp, #24]
	str	r1, [sp, #20]
.Ltmp481:
	.loc	2 254 8 prologue_end            @ packages/tjpgd1d/src/tjpgd.c:254:8
	ldr	r0, [sp, #24]
	.loc	2 254 12 is_stmt 0              @ packages/tjpgd1d/src/tjpgd.c:254:12
	ldrb	r0, [r0, #12]
	.loc	2 254 6                         @ packages/tjpgd1d/src/tjpgd.c:254:6
	strb.w	r0, [sp, #19]
	.loc	2 254 23                        @ packages/tjpgd1d/src/tjpgd.c:254:23
	ldr	r0, [sp, #24]
	.loc	2 254 27                        @ packages/tjpgd1d/src/tjpgd.c:254:27
	ldr	r0, [r0]
	.loc	2 254 21                        @ packages/tjpgd1d/src/tjpgd.c:254:21
	str	r0, [sp, #8]
	.loc	2 254 38                        @ packages/tjpgd1d/src/tjpgd.c:254:38
	ldr	r0, [sp, #24]
	.loc	2 254 42                        @ packages/tjpgd1d/src/tjpgd.c:254:42
	ldr	r0, [r0, #4]
	.loc	2 254 36                        @ packages/tjpgd1d/src/tjpgd.c:254:36
	str	r0, [sp, #12]
	.loc	2 255 7 is_stmt 1               @ packages/tjpgd1d/src/tjpgd.c:255:7
	ldr	r0, [sp, #12]
	.loc	2 255 6 is_stmt 0               @ packages/tjpgd1d/src/tjpgd.c:255:6
	ldrb	r0, [r0]
	.loc	2 255 4                         @ packages/tjpgd1d/src/tjpgd.c:255:4
	strb.w	r0, [sp, #18]
	movs	r0, #0
	.loc	2 255 17                        @ packages/tjpgd1d/src/tjpgd.c:255:17
	str	r0, [sp]
	.loc	2 255 13                        @ packages/tjpgd1d/src/tjpgd.c:255:13
	str	r0, [sp, #4]
	.loc	2 257 2 is_stmt 1               @ packages/tjpgd1d/src/tjpgd.c:257:2
	b	.LBB9_1
.LBB9_1:                                @ =>This Inner Loop Header: Depth=1
.Ltmp482:
	.loc	2 258 8                         @ packages/tjpgd1d/src/tjpgd.c:258:8
	ldrb.w	r0, [sp, #19]
.Ltmp483:
	.loc	2 258 7 is_stmt 0               @ packages/tjpgd1d/src/tjpgd.c:258:7
	cmp	r0, #0
	bne	.LBB9_15
	b	.LBB9_2
.LBB9_2:                                @   in Loop: Header=BB9_1 Depth=1
.Ltmp484:
	.loc	2 259 9 is_stmt 1               @ packages/tjpgd1d/src/tjpgd.c:259:9
	ldr	r0, [sp, #8]
.Ltmp485:
	.loc	2 259 8 is_stmt 0               @ packages/tjpgd1d/src/tjpgd.c:259:8
	cbnz	r0, .LBB9_6
	b	.LBB9_3
.LBB9_3:                                @   in Loop: Header=BB9_1 Depth=1
.Ltmp486:
	.loc	2 260 10 is_stmt 1              @ packages/tjpgd1d/src/tjpgd.c:260:10
	ldr	r0, [sp, #24]
	.loc	2 260 14 is_stmt 0              @ packages/tjpgd1d/src/tjpgd.c:260:14
	ldr	r0, [r0, #8]
	.loc	2 260 8                         @ packages/tjpgd1d/src/tjpgd.c:260:8
	str	r0, [sp, #12]
	.loc	2 261 10 is_stmt 1              @ packages/tjpgd1d/src/tjpgd.c:261:10
	ldr	r0, [sp, #24]
	.loc	2 261 14 is_stmt 0              @ packages/tjpgd1d/src/tjpgd.c:261:14
	ldr	r3, [r0, #112]
	.loc	2 261 25                        @ packages/tjpgd1d/src/tjpgd.c:261:25
	ldr	r1, [sp, #12]
	mov.w	r2, #512
	.loc	2 261 10                        @ packages/tjpgd1d/src/tjpgd.c:261:10
	blx	r3
	.loc	2 261 8                         @ packages/tjpgd1d/src/tjpgd.c:261:8
	str	r0, [sp, #8]
.Ltmp487:
	.loc	2 262 10 is_stmt 1              @ packages/tjpgd1d/src/tjpgd.c:262:10
	ldr	r0, [sp, #8]
.Ltmp488:
	.loc	2 262 9 is_stmt 0               @ packages/tjpgd1d/src/tjpgd.c:262:9
	cbnz	r0, .LBB9_5
	b	.LBB9_4
.LBB9_4:
	.loc	2 0 9                           @ packages/tjpgd1d/src/tjpgd.c:0:9
	mvn	r0, #1
.Ltmp489:
	.loc	2 262 14                        @ packages/tjpgd1d/src/tjpgd.c:262:14
	str	r0, [sp, #28]
	b	.LBB9_20
.Ltmp490:
.LBB9_5:                                @   in Loop: Header=BB9_1 Depth=1
	.loc	2 263 4 is_stmt 1               @ packages/tjpgd1d/src/tjpgd.c:263:4
	b	.LBB9_7
.Ltmp491:
.LBB9_6:                                @   in Loop: Header=BB9_1 Depth=1
	.loc	2 264 7                         @ packages/tjpgd1d/src/tjpgd.c:264:7
	ldr	r0, [sp, #12]
	adds	r0, #1
	str	r0, [sp, #12]
	b	.LBB9_7
.Ltmp492:
.LBB9_7:                                @   in Loop: Header=BB9_1 Depth=1
	.loc	2 266 6                         @ packages/tjpgd1d/src/tjpgd.c:266:6
	ldr	r0, [sp, #8]
	subs	r0, #1
	str	r0, [sp, #8]
.Ltmp493:
	.loc	2 267 8                         @ packages/tjpgd1d/src/tjpgd.c:267:8
	ldr	r0, [sp]
.Ltmp494:
	.loc	2 267 8 is_stmt 0               @ packages/tjpgd1d/src/tjpgd.c:267:8
	cbz	r0, .LBB9_11
	b	.LBB9_8
.LBB9_8:                                @   in Loop: Header=BB9_1 Depth=1
	.loc	2 0 8                           @ packages/tjpgd1d/src/tjpgd.c:0:8
	movs	r0, #0
.Ltmp495:
	.loc	2 268 7 is_stmt 1               @ packages/tjpgd1d/src/tjpgd.c:268:7
	str	r0, [sp]
.Ltmp496:
	.loc	2 269 10                        @ packages/tjpgd1d/src/tjpgd.c:269:10
	ldr	r0, [sp, #12]
	.loc	2 269 9 is_stmt 0               @ packages/tjpgd1d/src/tjpgd.c:269:9
	ldrb	r0, [r0]
.Ltmp497:
	.loc	2 269 9                         @ packages/tjpgd1d/src/tjpgd.c:269:9
	cbz	r0, .LBB9_10
	b	.LBB9_9
.LBB9_9:
	.loc	2 0 9                           @ packages/tjpgd1d/src/tjpgd.c:0:9
	mvn	r0, #5
.Ltmp498:
	.loc	2 269 19                        @ packages/tjpgd1d/src/tjpgd.c:269:19
	str	r0, [sp, #28]
	b	.LBB9_20
.Ltmp499:
.LBB9_10:                               @   in Loop: Header=BB9_1 Depth=1
	.loc	2 0 19                          @ packages/tjpgd1d/src/tjpgd.c:0:19
	movs	r0, #255
	.loc	2 270 13 is_stmt 1              @ packages/tjpgd1d/src/tjpgd.c:270:13
	strb.w	r0, [sp, #18]
	.loc	2 270 6 is_stmt 0               @ packages/tjpgd1d/src/tjpgd.c:270:6
	ldr	r1, [sp, #12]
	.loc	2 270 9                         @ packages/tjpgd1d/src/tjpgd.c:270:9
	strb	r0, [r1]
	.loc	2 271 4 is_stmt 1               @ packages/tjpgd1d/src/tjpgd.c:271:4
	b	.LBB9_14
.Ltmp500:
.LBB9_11:                               @   in Loop: Header=BB9_1 Depth=1
	.loc	2 272 10                        @ packages/tjpgd1d/src/tjpgd.c:272:10
	ldr	r0, [sp, #12]
	.loc	2 272 9 is_stmt 0               @ packages/tjpgd1d/src/tjpgd.c:272:9
	ldrb	r0, [r0]
	.loc	2 272 7                         @ packages/tjpgd1d/src/tjpgd.c:272:7
	strb.w	r0, [sp, #18]
.Ltmp501:
	.loc	2 273 9 is_stmt 1               @ packages/tjpgd1d/src/tjpgd.c:273:9
	ldrb.w	r0, [sp, #18]
.Ltmp502:
	.loc	2 273 9 is_stmt 0               @ packages/tjpgd1d/src/tjpgd.c:273:9
	cmp	r0, #255
	bne	.LBB9_13
	b	.LBB9_12
.LBB9_12:                               @   in Loop: Header=BB9_1 Depth=1
	.loc	2 0 9                           @ packages/tjpgd1d/src/tjpgd.c:0:9
	movs	r0, #1
.Ltmp503:
	.loc	2 274 8 is_stmt 1               @ packages/tjpgd1d/src/tjpgd.c:274:8
	str	r0, [sp]
	.loc	2 274 13 is_stmt 0              @ packages/tjpgd1d/src/tjpgd.c:274:13
	b	.LBB9_18
.Ltmp504:
.LBB9_13:                               @   in Loop: Header=BB9_1 Depth=1
	.loc	2 0 13                          @ packages/tjpgd1d/src/tjpgd.c:0:13
	b	.LBB9_14
.LBB9_14:                               @   in Loop: Header=BB9_1 Depth=1
	movs	r0, #128
	.loc	2 277 8 is_stmt 1               @ packages/tjpgd1d/src/tjpgd.c:277:8
	strb.w	r0, [sp, #19]
	.loc	2 278 3                         @ packages/tjpgd1d/src/tjpgd.c:278:3
	b	.LBB9_15
.Ltmp505:
.LBB9_15:                               @   in Loop: Header=BB9_1 Depth=1
	.loc	2 279 5                         @ packages/tjpgd1d/src/tjpgd.c:279:5
	ldr	r0, [sp, #4]
	lsls	r0, r0, #1
	str	r0, [sp, #4]
.Ltmp506:
	.loc	2 280 7                         @ packages/tjpgd1d/src/tjpgd.c:280:7
	ldrb.w	r0, [sp, #18]
	.loc	2 280 11 is_stmt 0              @ packages/tjpgd1d/src/tjpgd.c:280:11
	ldrb.w	r1, [sp, #19]
.Ltmp507:
	.loc	2 280 7                         @ packages/tjpgd1d/src/tjpgd.c:280:7
	tst	r0, r1
	beq	.LBB9_17
	b	.LBB9_16
.LBB9_16:                               @   in Loop: Header=BB9_1 Depth=1
.Ltmp508:
	.loc	2 280 17                        @ packages/tjpgd1d/src/tjpgd.c:280:17
	ldr	r0, [sp, #4]
	adds	r0, #1
	str	r0, [sp, #4]
	.loc	2 280 16                        @ packages/tjpgd1d/src/tjpgd.c:280:16
	b	.LBB9_17
.Ltmp509:
.LBB9_17:                               @   in Loop: Header=BB9_1 Depth=1
	.loc	2 281 7 is_stmt 1               @ packages/tjpgd1d/src/tjpgd.c:281:7
	ldrb.w	r0, [sp, #19]
	lsrs	r0, r0, #1
	strb.w	r0, [sp, #19]
	.loc	2 282 7                         @ packages/tjpgd1d/src/tjpgd.c:282:7
	ldr	r0, [sp, #20]
	subs	r0, #1
	str	r0, [sp, #20]
	.loc	2 283 2                         @ packages/tjpgd1d/src/tjpgd.c:283:2
	b	.LBB9_18
.Ltmp510:
.LBB9_18:                               @   in Loop: Header=BB9_1 Depth=1
	.loc	2 283 11 is_stmt 0              @ packages/tjpgd1d/src/tjpgd.c:283:11
	ldr	r0, [sp, #20]
.Ltmp511:
	.loc	2 283 2                         @ packages/tjpgd1d/src/tjpgd.c:283:2
	cmp	r0, #0
	bne	.LBB9_1
	b	.LBB9_19
.Ltmp512:
.LBB9_19:
	.loc	2 285 13 is_stmt 1              @ packages/tjpgd1d/src/tjpgd.c:285:13
	ldrb.w	r0, [sp, #19]
	.loc	2 285 2 is_stmt 0               @ packages/tjpgd1d/src/tjpgd.c:285:2
	ldr	r1, [sp, #24]
	.loc	2 285 11                        @ packages/tjpgd1d/src/tjpgd.c:285:11
	strb	r0, [r1, #12]
	.loc	2 285 29                        @ packages/tjpgd1d/src/tjpgd.c:285:29
	ldr	r0, [sp, #8]
	.loc	2 285 18                        @ packages/tjpgd1d/src/tjpgd.c:285:18
	ldr	r1, [sp, #24]
	.loc	2 285 27                        @ packages/tjpgd1d/src/tjpgd.c:285:27
	str	r0, [r1]
	.loc	2 285 44                        @ packages/tjpgd1d/src/tjpgd.c:285:44
	ldr	r0, [sp, #12]
	.loc	2 285 33                        @ packages/tjpgd1d/src/tjpgd.c:285:33
	ldr	r1, [sp, #24]
	.loc	2 285 42                        @ packages/tjpgd1d/src/tjpgd.c:285:42
	str	r0, [r1, #4]
	.loc	2 287 14 is_stmt 1              @ packages/tjpgd1d/src/tjpgd.c:287:14
	ldr	r0, [sp, #4]
	.loc	2 287 2 is_stmt 0               @ packages/tjpgd1d/src/tjpgd.c:287:2
	str	r0, [sp, #28]
	b	.LBB9_20
.LBB9_20:
	.loc	2 288 1 is_stmt 1               @ packages/tjpgd1d/src/tjpgd.c:288:1
	ldr	r0, [sp, #28]
	add	sp, #32
	pop	{r7, pc}
.Ltmp513:
.Lfunc_end9:
	.size	bitext, .Lfunc_end9-bitext
	.cfi_endproc
	.cantunwind
	.fnend
                                        @ -- End function
	.section	.text.block_idct,"ax",%progbits
	.p2align	3                               @ -- Begin function block_idct
	.type	block_idct,%function
	.code	16                              @ @block_idct
	.thumb_func
block_idct:
.Lfunc_begin10:
	.loc	2 361 0                         @ packages/tjpgd1d/src/tjpgd.c:361:0
	.fnstart
	.cfi_startproc
@ %bb.0:
	.pad	#80
	sub	sp, #80
	.cfi_def_cfa_offset 80
	str	r0, [sp, #76]
	str	r1, [sp, #72]
	mov.w	r0, #5792
.Ltmp514:
	.loc	2 362 16 prologue_end           @ packages/tjpgd1d/src/tjpgd.c:362:16
	str	r0, [sp, #68]
	movw	r0, #4433
	.loc	2 362 47 is_stmt 0              @ packages/tjpgd1d/src/tjpgd.c:362:47
	str	r0, [sp, #64]
	movw	r0, #10703
	.loc	2 362 77                        @ packages/tjpgd1d/src/tjpgd.c:362:77
	str	r0, [sp, #60]
	movw	r0, #7568
	.loc	2 362 107                       @ packages/tjpgd1d/src/tjpgd.c:362:107
	str	r0, [sp, #56]
	movs	r0, #0
.Ltmp515:
	.loc	2 368 9 is_stmt 1               @ packages/tjpgd1d/src/tjpgd.c:368:9
	str	r0, [sp, #4]
	.loc	2 368 7 is_stmt 0               @ packages/tjpgd1d/src/tjpgd.c:368:7
	b	.LBB10_1
.LBB10_1:                               @ =>This Inner Loop Header: Depth=1
.Ltmp516:
	.loc	2 368 14                        @ packages/tjpgd1d/src/tjpgd.c:368:14
	ldr	r0, [sp, #4]
.Ltmp517:
	.loc	2 368 2                         @ packages/tjpgd1d/src/tjpgd.c:368:2
	cmp	r0, #7
	bgt.w	.LBB10_4
	b	.LBB10_2
.LBB10_2:                               @   in Loop: Header=BB10_1 Depth=1
.Ltmp518:
	.loc	2 369 8 is_stmt 1               @ packages/tjpgd1d/src/tjpgd.c:369:8
	ldr	r0, [sp, #76]
	ldr	r0, [r0]
	.loc	2 369 6 is_stmt 0               @ packages/tjpgd1d/src/tjpgd.c:369:6
	str	r0, [sp, #52]
	.loc	2 370 8 is_stmt 1               @ packages/tjpgd1d/src/tjpgd.c:370:8
	ldr	r0, [sp, #76]
	ldr	r0, [r0, #64]
	.loc	2 370 6 is_stmt 0               @ packages/tjpgd1d/src/tjpgd.c:370:6
	str	r0, [sp, #48]
	.loc	2 371 8 is_stmt 1               @ packages/tjpgd1d/src/tjpgd.c:371:8
	ldr	r0, [sp, #76]
	ldr.w	r0, [r0, #128]
	.loc	2 371 6 is_stmt 0               @ packages/tjpgd1d/src/tjpgd.c:371:6
	str	r0, [sp, #44]
	.loc	2 372 8 is_stmt 1               @ packages/tjpgd1d/src/tjpgd.c:372:8
	ldr	r0, [sp, #76]
	ldr.w	r0, [r0, #192]
	.loc	2 372 6 is_stmt 0               @ packages/tjpgd1d/src/tjpgd.c:372:6
	str	r0, [sp, #40]
	.loc	2 374 9 is_stmt 1               @ packages/tjpgd1d/src/tjpgd.c:374:9
	ldr	r0, [sp, #52]
	.loc	2 374 14 is_stmt 0              @ packages/tjpgd1d/src/tjpgd.c:374:14
	ldr	r1, [sp, #44]
	.loc	2 374 12                        @ packages/tjpgd1d/src/tjpgd.c:374:12
	add	r0, r1
	.loc	2 374 7                         @ packages/tjpgd1d/src/tjpgd.c:374:7
	str	r0, [sp, #20]
	.loc	2 375 9 is_stmt 1               @ packages/tjpgd1d/src/tjpgd.c:375:9
	ldr	r0, [sp, #52]
	.loc	2 375 14 is_stmt 0              @ packages/tjpgd1d/src/tjpgd.c:375:14
	ldr	r1, [sp, #44]
	.loc	2 375 12                        @ packages/tjpgd1d/src/tjpgd.c:375:12
	subs	r0, r0, r1
	.loc	2 375 7                         @ packages/tjpgd1d/src/tjpgd.c:375:7
	str	r0, [sp, #12]
	.loc	2 376 10 is_stmt 1              @ packages/tjpgd1d/src/tjpgd.c:376:10
	ldr	r0, [sp, #48]
	.loc	2 376 15 is_stmt 0              @ packages/tjpgd1d/src/tjpgd.c:376:15
	ldr	r1, [sp, #40]
	.loc	2 376 13                        @ packages/tjpgd1d/src/tjpgd.c:376:13
	subs	r0, r0, r1
	mov.w	r1, #5792
	.loc	2 376 19                        @ packages/tjpgd1d/src/tjpgd.c:376:19
	muls	r0, r1, r0
	.loc	2 376 25                        @ packages/tjpgd1d/src/tjpgd.c:376:25
	asrs	r0, r0, #12
	.loc	2 376 7                         @ packages/tjpgd1d/src/tjpgd.c:376:7
	str	r0, [sp, #16]
	.loc	2 377 9 is_stmt 1               @ packages/tjpgd1d/src/tjpgd.c:377:9
	ldr	r2, [sp, #48]
	.loc	2 377 6 is_stmt 0               @ packages/tjpgd1d/src/tjpgd.c:377:6
	ldr	r0, [sp, #40]
	add	r0, r2
	str	r0, [sp, #40]
	.loc	2 378 10 is_stmt 1              @ packages/tjpgd1d/src/tjpgd.c:378:10
	ldr	r2, [sp, #40]
	.loc	2 378 7 is_stmt 0               @ packages/tjpgd1d/src/tjpgd.c:378:7
	ldr	r0, [sp, #16]
	subs	r0, r0, r2
	str	r0, [sp, #16]
	.loc	2 379 8 is_stmt 1               @ packages/tjpgd1d/src/tjpgd.c:379:8
	ldr	r0, [sp, #20]
	.loc	2 379 14 is_stmt 0              @ packages/tjpgd1d/src/tjpgd.c:379:14
	ldr	r2, [sp, #40]
	.loc	2 379 12                        @ packages/tjpgd1d/src/tjpgd.c:379:12
	add	r0, r2
	.loc	2 379 6                         @ packages/tjpgd1d/src/tjpgd.c:379:6
	str	r0, [sp, #52]
	.loc	2 380 8 is_stmt 1               @ packages/tjpgd1d/src/tjpgd.c:380:8
	ldr	r0, [sp, #20]
	.loc	2 380 14 is_stmt 0              @ packages/tjpgd1d/src/tjpgd.c:380:14
	ldr	r2, [sp, #40]
	.loc	2 380 12                        @ packages/tjpgd1d/src/tjpgd.c:380:12
	subs	r0, r0, r2
	.loc	2 380 6                         @ packages/tjpgd1d/src/tjpgd.c:380:6
	str	r0, [sp, #40]
	.loc	2 381 8 is_stmt 1               @ packages/tjpgd1d/src/tjpgd.c:381:8
	ldr	r0, [sp, #16]
	.loc	2 381 14 is_stmt 0              @ packages/tjpgd1d/src/tjpgd.c:381:14
	ldr	r2, [sp, #12]
	.loc	2 381 12                        @ packages/tjpgd1d/src/tjpgd.c:381:12
	add	r0, r2
	.loc	2 381 6                         @ packages/tjpgd1d/src/tjpgd.c:381:6
	str	r0, [sp, #48]
	.loc	2 382 8 is_stmt 1               @ packages/tjpgd1d/src/tjpgd.c:382:8
	ldr	r0, [sp, #12]
	.loc	2 382 14 is_stmt 0              @ packages/tjpgd1d/src/tjpgd.c:382:14
	ldr	r2, [sp, #16]
	.loc	2 382 12                        @ packages/tjpgd1d/src/tjpgd.c:382:12
	subs	r0, r0, r2
	.loc	2 382 6                         @ packages/tjpgd1d/src/tjpgd.c:382:6
	str	r0, [sp, #44]
	.loc	2 384 8 is_stmt 1               @ packages/tjpgd1d/src/tjpgd.c:384:8
	ldr	r0, [sp, #76]
	ldr.w	r0, [r0, #224]
	.loc	2 384 6 is_stmt 0               @ packages/tjpgd1d/src/tjpgd.c:384:6
	str	r0, [sp, #36]
	.loc	2 385 8 is_stmt 1               @ packages/tjpgd1d/src/tjpgd.c:385:8
	ldr	r0, [sp, #76]
	ldr	r0, [r0, #32]
	.loc	2 385 6 is_stmt 0               @ packages/tjpgd1d/src/tjpgd.c:385:6
	str	r0, [sp, #32]
	.loc	2 386 8 is_stmt 1               @ packages/tjpgd1d/src/tjpgd.c:386:8
	ldr	r0, [sp, #76]
	ldr.w	r0, [r0, #160]
	.loc	2 386 6 is_stmt 0               @ packages/tjpgd1d/src/tjpgd.c:386:6
	str	r0, [sp, #28]
	.loc	2 387 8 is_stmt 1               @ packages/tjpgd1d/src/tjpgd.c:387:8
	ldr	r0, [sp, #76]
	ldr	r0, [r0, #96]
	.loc	2 387 6 is_stmt 0               @ packages/tjpgd1d/src/tjpgd.c:387:6
	str	r0, [sp, #24]
	.loc	2 389 9 is_stmt 1               @ packages/tjpgd1d/src/tjpgd.c:389:9
	ldr	r0, [sp, #32]
	.loc	2 389 14 is_stmt 0              @ packages/tjpgd1d/src/tjpgd.c:389:14
	ldr	r2, [sp, #36]
	.loc	2 389 12                        @ packages/tjpgd1d/src/tjpgd.c:389:12
	subs	r0, r0, r2
	.loc	2 389 7                         @ packages/tjpgd1d/src/tjpgd.c:389:7
	str	r0, [sp, #20]
	.loc	2 390 9 is_stmt 1               @ packages/tjpgd1d/src/tjpgd.c:390:9
	ldr	r0, [sp, #32]
	.loc	2 390 14 is_stmt 0              @ packages/tjpgd1d/src/tjpgd.c:390:14
	ldr	r2, [sp, #36]
	.loc	2 390 12                        @ packages/tjpgd1d/src/tjpgd.c:390:12
	add	r0, r2
	.loc	2 390 7                         @ packages/tjpgd1d/src/tjpgd.c:390:7
	str	r0, [sp, #16]
	.loc	2 391 9 is_stmt 1               @ packages/tjpgd1d/src/tjpgd.c:391:9
	ldr	r0, [sp, #28]
	.loc	2 391 14 is_stmt 0              @ packages/tjpgd1d/src/tjpgd.c:391:14
	ldr	r2, [sp, #24]
	.loc	2 391 12                        @ packages/tjpgd1d/src/tjpgd.c:391:12
	subs	r0, r0, r2
	.loc	2 391 7                         @ packages/tjpgd1d/src/tjpgd.c:391:7
	str	r0, [sp, #12]
	.loc	2 392 9 is_stmt 1               @ packages/tjpgd1d/src/tjpgd.c:392:9
	ldr	r2, [sp, #28]
	.loc	2 392 6 is_stmt 0               @ packages/tjpgd1d/src/tjpgd.c:392:6
	ldr	r0, [sp, #24]
	add	r0, r2
	str	r0, [sp, #24]
	.loc	2 393 9 is_stmt 1               @ packages/tjpgd1d/src/tjpgd.c:393:9
	ldr	r0, [sp, #16]
	.loc	2 393 15 is_stmt 0              @ packages/tjpgd1d/src/tjpgd.c:393:15
	ldr	r2, [sp, #24]
	.loc	2 393 13                        @ packages/tjpgd1d/src/tjpgd.c:393:13
	subs	r0, r0, r2
	.loc	2 393 19                        @ packages/tjpgd1d/src/tjpgd.c:393:19
	muls	r0, r1, r0
	.loc	2 393 25                        @ packages/tjpgd1d/src/tjpgd.c:393:25
	asrs	r0, r0, #12
	.loc	2 393 6                         @ packages/tjpgd1d/src/tjpgd.c:393:6
	str	r0, [sp, #32]
	.loc	2 394 9 is_stmt 1               @ packages/tjpgd1d/src/tjpgd.c:394:9
	ldr	r1, [sp, #16]
	.loc	2 394 6 is_stmt 0               @ packages/tjpgd1d/src/tjpgd.c:394:6
	ldr	r0, [sp, #24]
	add	r0, r1
	str	r0, [sp, #24]
	.loc	2 395 10 is_stmt 1              @ packages/tjpgd1d/src/tjpgd.c:395:10
	ldr	r0, [sp, #20]
	.loc	2 395 16 is_stmt 0              @ packages/tjpgd1d/src/tjpgd.c:395:16
	ldr	r1, [sp, #12]
	.loc	2 395 14                        @ packages/tjpgd1d/src/tjpgd.c:395:14
	add	r0, r1
	movw	r1, #7568
	.loc	2 395 21                        @ packages/tjpgd1d/src/tjpgd.c:395:21
	muls	r0, r1, r0
	.loc	2 395 26                        @ packages/tjpgd1d/src/tjpgd.c:395:26
	asrs	r0, r0, #12
	.loc	2 395 7                         @ packages/tjpgd1d/src/tjpgd.c:395:7
	str	r0, [sp, #8]
	.loc	2 396 8 is_stmt 1               @ packages/tjpgd1d/src/tjpgd.c:396:8
	ldr	r0, [sp, #8]
	.loc	2 396 15 is_stmt 0              @ packages/tjpgd1d/src/tjpgd.c:396:15
	ldr	r1, [sp, #20]
	movw	r2, #4433
	.loc	2 396 19                        @ packages/tjpgd1d/src/tjpgd.c:396:19
	muls	r1, r2, r1
	.loc	2 396 12                        @ packages/tjpgd1d/src/tjpgd.c:396:12
	sub.w	r0, r0, r1, asr #12
	.loc	2 396 6                         @ packages/tjpgd1d/src/tjpgd.c:396:6
	str	r0, [sp, #36]
	.loc	2 397 8 is_stmt 1               @ packages/tjpgd1d/src/tjpgd.c:397:8
	ldr	r0, [sp, #8]
	.loc	2 397 15 is_stmt 0              @ packages/tjpgd1d/src/tjpgd.c:397:15
	ldr	r1, [sp, #12]
	movw	r2, #10703
	.loc	2 397 19                        @ packages/tjpgd1d/src/tjpgd.c:397:19
	muls	r1, r2, r1
	.loc	2 397 12                        @ packages/tjpgd1d/src/tjpgd.c:397:12
	sub.w	r0, r0, r1, asr #12
	.loc	2 397 33                        @ packages/tjpgd1d/src/tjpgd.c:397:33
	ldr	r1, [sp, #24]
	.loc	2 397 31                        @ packages/tjpgd1d/src/tjpgd.c:397:31
	subs	r0, r0, r1
	.loc	2 397 6                         @ packages/tjpgd1d/src/tjpgd.c:397:6
	str	r0, [sp, #28]
	.loc	2 398 9 is_stmt 1               @ packages/tjpgd1d/src/tjpgd.c:398:9
	ldr	r1, [sp, #28]
	.loc	2 398 6 is_stmt 0               @ packages/tjpgd1d/src/tjpgd.c:398:6
	ldr	r0, [sp, #32]
	subs	r0, r0, r1
	str	r0, [sp, #32]
	.loc	2 399 9 is_stmt 1               @ packages/tjpgd1d/src/tjpgd.c:399:9
	ldr	r1, [sp, #32]
	.loc	2 399 6 is_stmt 0               @ packages/tjpgd1d/src/tjpgd.c:399:6
	ldr	r0, [sp, #36]
	subs	r0, r0, r1
	str	r0, [sp, #36]
	.loc	2 401 16 is_stmt 1              @ packages/tjpgd1d/src/tjpgd.c:401:16
	ldr	r0, [sp, #52]
	.loc	2 401 21 is_stmt 0              @ packages/tjpgd1d/src/tjpgd.c:401:21
	ldr	r1, [sp, #24]
	.loc	2 401 19                        @ packages/tjpgd1d/src/tjpgd.c:401:19
	add	r0, r1
	.loc	2 401 3                         @ packages/tjpgd1d/src/tjpgd.c:401:3
	ldr	r1, [sp, #76]
	.loc	2 401 14                        @ packages/tjpgd1d/src/tjpgd.c:401:14
	str	r0, [r1]
	.loc	2 402 16 is_stmt 1              @ packages/tjpgd1d/src/tjpgd.c:402:16
	ldr	r0, [sp, #52]
	.loc	2 402 21 is_stmt 0              @ packages/tjpgd1d/src/tjpgd.c:402:21
	ldr	r1, [sp, #24]
	.loc	2 402 19                        @ packages/tjpgd1d/src/tjpgd.c:402:19
	subs	r0, r0, r1
	.loc	2 402 3                         @ packages/tjpgd1d/src/tjpgd.c:402:3
	ldr	r1, [sp, #76]
	.loc	2 402 14                        @ packages/tjpgd1d/src/tjpgd.c:402:14
	str.w	r0, [r1, #224]
	.loc	2 403 16 is_stmt 1              @ packages/tjpgd1d/src/tjpgd.c:403:16
	ldr	r0, [sp, #48]
	.loc	2 403 21 is_stmt 0              @ packages/tjpgd1d/src/tjpgd.c:403:21
	ldr	r1, [sp, #28]
	.loc	2 403 19                        @ packages/tjpgd1d/src/tjpgd.c:403:19
	add	r0, r1
	.loc	2 403 3                         @ packages/tjpgd1d/src/tjpgd.c:403:3
	ldr	r1, [sp, #76]
	.loc	2 403 14                        @ packages/tjpgd1d/src/tjpgd.c:403:14
	str	r0, [r1, #32]
	.loc	2 404 16 is_stmt 1              @ packages/tjpgd1d/src/tjpgd.c:404:16
	ldr	r0, [sp, #48]
	.loc	2 404 21 is_stmt 0              @ packages/tjpgd1d/src/tjpgd.c:404:21
	ldr	r1, [sp, #28]
	.loc	2 404 19                        @ packages/tjpgd1d/src/tjpgd.c:404:19
	subs	r0, r0, r1
	.loc	2 404 3                         @ packages/tjpgd1d/src/tjpgd.c:404:3
	ldr	r1, [sp, #76]
	.loc	2 404 14                        @ packages/tjpgd1d/src/tjpgd.c:404:14
	str.w	r0, [r1, #192]
	.loc	2 405 16 is_stmt 1              @ packages/tjpgd1d/src/tjpgd.c:405:16
	ldr	r0, [sp, #44]
	.loc	2 405 21 is_stmt 0              @ packages/tjpgd1d/src/tjpgd.c:405:21
	ldr	r1, [sp, #32]
	.loc	2 405 19                        @ packages/tjpgd1d/src/tjpgd.c:405:19
	add	r0, r1
	.loc	2 405 3                         @ packages/tjpgd1d/src/tjpgd.c:405:3
	ldr	r1, [sp, #76]
	.loc	2 405 14                        @ packages/tjpgd1d/src/tjpgd.c:405:14
	str	r0, [r1, #64]
	.loc	2 406 16 is_stmt 1              @ packages/tjpgd1d/src/tjpgd.c:406:16
	ldr	r0, [sp, #44]
	.loc	2 406 21 is_stmt 0              @ packages/tjpgd1d/src/tjpgd.c:406:21
	ldr	r1, [sp, #32]
	.loc	2 406 19                        @ packages/tjpgd1d/src/tjpgd.c:406:19
	subs	r0, r0, r1
	.loc	2 406 3                         @ packages/tjpgd1d/src/tjpgd.c:406:3
	ldr	r1, [sp, #76]
	.loc	2 406 14                        @ packages/tjpgd1d/src/tjpgd.c:406:14
	str.w	r0, [r1, #160]
	.loc	2 407 16 is_stmt 1              @ packages/tjpgd1d/src/tjpgd.c:407:16
	ldr	r0, [sp, #40]
	.loc	2 407 21 is_stmt 0              @ packages/tjpgd1d/src/tjpgd.c:407:21
	ldr	r1, [sp, #36]
	.loc	2 407 19                        @ packages/tjpgd1d/src/tjpgd.c:407:19
	add	r0, r1
	.loc	2 407 3                         @ packages/tjpgd1d/src/tjpgd.c:407:3
	ldr	r1, [sp, #76]
	.loc	2 407 14                        @ packages/tjpgd1d/src/tjpgd.c:407:14
	str	r0, [r1, #96]
	.loc	2 408 16 is_stmt 1              @ packages/tjpgd1d/src/tjpgd.c:408:16
	ldr	r0, [sp, #40]
	.loc	2 408 21 is_stmt 0              @ packages/tjpgd1d/src/tjpgd.c:408:21
	ldr	r1, [sp, #36]
	.loc	2 408 19                        @ packages/tjpgd1d/src/tjpgd.c:408:19
	subs	r0, r0, r1
	.loc	2 408 3                         @ packages/tjpgd1d/src/tjpgd.c:408:3
	ldr	r1, [sp, #76]
	.loc	2 408 14                        @ packages/tjpgd1d/src/tjpgd.c:408:14
	str.w	r0, [r1, #128]
	.loc	2 410 6 is_stmt 1               @ packages/tjpgd1d/src/tjpgd.c:410:6
	ldr	r0, [sp, #76]
	adds	r0, #4
	str	r0, [sp, #76]
	.loc	2 411 2                         @ packages/tjpgd1d/src/tjpgd.c:411:2
	b	.LBB10_3
.Ltmp519:
.LBB10_3:                               @   in Loop: Header=BB10_1 Depth=1
	.loc	2 368 22                        @ packages/tjpgd1d/src/tjpgd.c:368:22
	ldr	r0, [sp, #4]
	adds	r0, #1
	str	r0, [sp, #4]
	.loc	2 368 2 is_stmt 0               @ packages/tjpgd1d/src/tjpgd.c:368:2
	b	.LBB10_1
.Ltmp520:
.LBB10_4:
	.loc	2 414 6 is_stmt 1               @ packages/tjpgd1d/src/tjpgd.c:414:6
	ldr	r0, [sp, #76]
	subs	r0, #32
	str	r0, [sp, #76]
	movs	r0, #0
.Ltmp521:
	.loc	2 415 9                         @ packages/tjpgd1d/src/tjpgd.c:415:9
	str	r0, [sp, #4]
	.loc	2 415 7 is_stmt 0               @ packages/tjpgd1d/src/tjpgd.c:415:7
	b	.LBB10_5
.LBB10_5:                               @ =>This Inner Loop Header: Depth=1
.Ltmp522:
	.loc	2 415 14                        @ packages/tjpgd1d/src/tjpgd.c:415:14
	ldr	r0, [sp, #4]
.Ltmp523:
	.loc	2 415 2                         @ packages/tjpgd1d/src/tjpgd.c:415:2
	cmp	r0, #7
	bgt.w	.LBB10_8
	b	.LBB10_6
.LBB10_6:                               @   in Loop: Header=BB10_5 Depth=1
.Ltmp524:
	.loc	2 416 8 is_stmt 1               @ packages/tjpgd1d/src/tjpgd.c:416:8
	ldr	r0, [sp, #76]
	ldr	r0, [r0]
	.loc	2 416 15 is_stmt 0              @ packages/tjpgd1d/src/tjpgd.c:416:15
	add.w	r0, r0, #32768
	.loc	2 416 6                         @ packages/tjpgd1d/src/tjpgd.c:416:6
	str	r0, [sp, #52]
	.loc	2 417 8 is_stmt 1               @ packages/tjpgd1d/src/tjpgd.c:417:8
	ldr	r0, [sp, #76]
	ldr	r0, [r0, #8]
	.loc	2 417 6 is_stmt 0               @ packages/tjpgd1d/src/tjpgd.c:417:6
	str	r0, [sp, #48]
	.loc	2 418 8 is_stmt 1               @ packages/tjpgd1d/src/tjpgd.c:418:8
	ldr	r0, [sp, #76]
	ldr	r0, [r0, #16]
	.loc	2 418 6 is_stmt 0               @ packages/tjpgd1d/src/tjpgd.c:418:6
	str	r0, [sp, #44]
	.loc	2 419 8 is_stmt 1               @ packages/tjpgd1d/src/tjpgd.c:419:8
	ldr	r0, [sp, #76]
	ldr	r0, [r0, #24]
	.loc	2 419 6 is_stmt 0               @ packages/tjpgd1d/src/tjpgd.c:419:6
	str	r0, [sp, #40]
	.loc	2 421 9 is_stmt 1               @ packages/tjpgd1d/src/tjpgd.c:421:9
	ldr	r0, [sp, #52]
	.loc	2 421 14 is_stmt 0              @ packages/tjpgd1d/src/tjpgd.c:421:14
	ldr	r1, [sp, #44]
	.loc	2 421 12                        @ packages/tjpgd1d/src/tjpgd.c:421:12
	add	r0, r1
	.loc	2 421 7                         @ packages/tjpgd1d/src/tjpgd.c:421:7
	str	r0, [sp, #20]
	.loc	2 422 9 is_stmt 1               @ packages/tjpgd1d/src/tjpgd.c:422:9
	ldr	r0, [sp, #52]
	.loc	2 422 14 is_stmt 0              @ packages/tjpgd1d/src/tjpgd.c:422:14
	ldr	r1, [sp, #44]
	.loc	2 422 12                        @ packages/tjpgd1d/src/tjpgd.c:422:12
	subs	r0, r0, r1
	.loc	2 422 7                         @ packages/tjpgd1d/src/tjpgd.c:422:7
	str	r0, [sp, #12]
	.loc	2 423 10 is_stmt 1              @ packages/tjpgd1d/src/tjpgd.c:423:10
	ldr	r0, [sp, #48]
	.loc	2 423 15 is_stmt 0              @ packages/tjpgd1d/src/tjpgd.c:423:15
	ldr	r1, [sp, #40]
	.loc	2 423 13                        @ packages/tjpgd1d/src/tjpgd.c:423:13
	subs	r0, r0, r1
	mov.w	r1, #5792
	.loc	2 423 19                        @ packages/tjpgd1d/src/tjpgd.c:423:19
	muls	r0, r1, r0
	.loc	2 423 25                        @ packages/tjpgd1d/src/tjpgd.c:423:25
	asrs	r0, r0, #12
	.loc	2 423 7                         @ packages/tjpgd1d/src/tjpgd.c:423:7
	str	r0, [sp, #16]
	.loc	2 424 9 is_stmt 1               @ packages/tjpgd1d/src/tjpgd.c:424:9
	ldr	r2, [sp, #48]
	.loc	2 424 6 is_stmt 0               @ packages/tjpgd1d/src/tjpgd.c:424:6
	ldr	r0, [sp, #40]
	add	r0, r2
	str	r0, [sp, #40]
	.loc	2 425 10 is_stmt 1              @ packages/tjpgd1d/src/tjpgd.c:425:10
	ldr	r2, [sp, #40]
	.loc	2 425 7 is_stmt 0               @ packages/tjpgd1d/src/tjpgd.c:425:7
	ldr	r0, [sp, #16]
	subs	r0, r0, r2
	str	r0, [sp, #16]
	.loc	2 426 8 is_stmt 1               @ packages/tjpgd1d/src/tjpgd.c:426:8
	ldr	r0, [sp, #20]
	.loc	2 426 14 is_stmt 0              @ packages/tjpgd1d/src/tjpgd.c:426:14
	ldr	r2, [sp, #40]
	.loc	2 426 12                        @ packages/tjpgd1d/src/tjpgd.c:426:12
	add	r0, r2
	.loc	2 426 6                         @ packages/tjpgd1d/src/tjpgd.c:426:6
	str	r0, [sp, #52]
	.loc	2 427 8 is_stmt 1               @ packages/tjpgd1d/src/tjpgd.c:427:8
	ldr	r0, [sp, #20]
	.loc	2 427 14 is_stmt 0              @ packages/tjpgd1d/src/tjpgd.c:427:14
	ldr	r2, [sp, #40]
	.loc	2 427 12                        @ packages/tjpgd1d/src/tjpgd.c:427:12
	subs	r0, r0, r2
	.loc	2 427 6                         @ packages/tjpgd1d/src/tjpgd.c:427:6
	str	r0, [sp, #40]
	.loc	2 428 8 is_stmt 1               @ packages/tjpgd1d/src/tjpgd.c:428:8
	ldr	r0, [sp, #16]
	.loc	2 428 14 is_stmt 0              @ packages/tjpgd1d/src/tjpgd.c:428:14
	ldr	r2, [sp, #12]
	.loc	2 428 12                        @ packages/tjpgd1d/src/tjpgd.c:428:12
	add	r0, r2
	.loc	2 428 6                         @ packages/tjpgd1d/src/tjpgd.c:428:6
	str	r0, [sp, #48]
	.loc	2 429 8 is_stmt 1               @ packages/tjpgd1d/src/tjpgd.c:429:8
	ldr	r0, [sp, #12]
	.loc	2 429 14 is_stmt 0              @ packages/tjpgd1d/src/tjpgd.c:429:14
	ldr	r2, [sp, #16]
	.loc	2 429 12                        @ packages/tjpgd1d/src/tjpgd.c:429:12
	subs	r0, r0, r2
	.loc	2 429 6                         @ packages/tjpgd1d/src/tjpgd.c:429:6
	str	r0, [sp, #44]
	.loc	2 431 8 is_stmt 1               @ packages/tjpgd1d/src/tjpgd.c:431:8
	ldr	r0, [sp, #76]
	ldr	r0, [r0, #28]
	.loc	2 431 6 is_stmt 0               @ packages/tjpgd1d/src/tjpgd.c:431:6
	str	r0, [sp, #36]
	.loc	2 432 8 is_stmt 1               @ packages/tjpgd1d/src/tjpgd.c:432:8
	ldr	r0, [sp, #76]
	ldr	r0, [r0, #4]
	.loc	2 432 6 is_stmt 0               @ packages/tjpgd1d/src/tjpgd.c:432:6
	str	r0, [sp, #32]
	.loc	2 433 8 is_stmt 1               @ packages/tjpgd1d/src/tjpgd.c:433:8
	ldr	r0, [sp, #76]
	ldr	r0, [r0, #20]
	.loc	2 433 6 is_stmt 0               @ packages/tjpgd1d/src/tjpgd.c:433:6
	str	r0, [sp, #28]
	.loc	2 434 8 is_stmt 1               @ packages/tjpgd1d/src/tjpgd.c:434:8
	ldr	r0, [sp, #76]
	ldr	r0, [r0, #12]
	.loc	2 434 6 is_stmt 0               @ packages/tjpgd1d/src/tjpgd.c:434:6
	str	r0, [sp, #24]
	.loc	2 436 9 is_stmt 1               @ packages/tjpgd1d/src/tjpgd.c:436:9
	ldr	r0, [sp, #32]
	.loc	2 436 14 is_stmt 0              @ packages/tjpgd1d/src/tjpgd.c:436:14
	ldr	r2, [sp, #36]
	.loc	2 436 12                        @ packages/tjpgd1d/src/tjpgd.c:436:12
	subs	r0, r0, r2
	.loc	2 436 7                         @ packages/tjpgd1d/src/tjpgd.c:436:7
	str	r0, [sp, #20]
	.loc	2 437 9 is_stmt 1               @ packages/tjpgd1d/src/tjpgd.c:437:9
	ldr	r0, [sp, #32]
	.loc	2 437 14 is_stmt 0              @ packages/tjpgd1d/src/tjpgd.c:437:14
	ldr	r2, [sp, #36]
	.loc	2 437 12                        @ packages/tjpgd1d/src/tjpgd.c:437:12
	add	r0, r2
	.loc	2 437 7                         @ packages/tjpgd1d/src/tjpgd.c:437:7
	str	r0, [sp, #16]
	.loc	2 438 9 is_stmt 1               @ packages/tjpgd1d/src/tjpgd.c:438:9
	ldr	r0, [sp, #28]
	.loc	2 438 14 is_stmt 0              @ packages/tjpgd1d/src/tjpgd.c:438:14
	ldr	r2, [sp, #24]
	.loc	2 438 12                        @ packages/tjpgd1d/src/tjpgd.c:438:12
	subs	r0, r0, r2
	.loc	2 438 7                         @ packages/tjpgd1d/src/tjpgd.c:438:7
	str	r0, [sp, #12]
	.loc	2 439 9 is_stmt 1               @ packages/tjpgd1d/src/tjpgd.c:439:9
	ldr	r2, [sp, #28]
	.loc	2 439 6 is_stmt 0               @ packages/tjpgd1d/src/tjpgd.c:439:6
	ldr	r0, [sp, #24]
	add	r0, r2
	str	r0, [sp, #24]
	.loc	2 440 9 is_stmt 1               @ packages/tjpgd1d/src/tjpgd.c:440:9
	ldr	r0, [sp, #16]
	.loc	2 440 15 is_stmt 0              @ packages/tjpgd1d/src/tjpgd.c:440:15
	ldr	r2, [sp, #24]
	.loc	2 440 13                        @ packages/tjpgd1d/src/tjpgd.c:440:13
	subs	r0, r0, r2
	.loc	2 440 19                        @ packages/tjpgd1d/src/tjpgd.c:440:19
	muls	r0, r1, r0
	.loc	2 440 25                        @ packages/tjpgd1d/src/tjpgd.c:440:25
	asrs	r0, r0, #12
	.loc	2 440 6                         @ packages/tjpgd1d/src/tjpgd.c:440:6
	str	r0, [sp, #32]
	.loc	2 441 9 is_stmt 1               @ packages/tjpgd1d/src/tjpgd.c:441:9
	ldr	r1, [sp, #16]
	.loc	2 441 6 is_stmt 0               @ packages/tjpgd1d/src/tjpgd.c:441:6
	ldr	r0, [sp, #24]
	add	r0, r1
	str	r0, [sp, #24]
	.loc	2 442 10 is_stmt 1              @ packages/tjpgd1d/src/tjpgd.c:442:10
	ldr	r0, [sp, #20]
	.loc	2 442 16 is_stmt 0              @ packages/tjpgd1d/src/tjpgd.c:442:16
	ldr	r1, [sp, #12]
	.loc	2 442 14                        @ packages/tjpgd1d/src/tjpgd.c:442:14
	add	r0, r1
	movw	r1, #7568
	.loc	2 442 21                        @ packages/tjpgd1d/src/tjpgd.c:442:21
	muls	r0, r1, r0
	.loc	2 442 26                        @ packages/tjpgd1d/src/tjpgd.c:442:26
	asrs	r0, r0, #12
	.loc	2 442 7                         @ packages/tjpgd1d/src/tjpgd.c:442:7
	str	r0, [sp, #8]
	.loc	2 443 8 is_stmt 1               @ packages/tjpgd1d/src/tjpgd.c:443:8
	ldr	r0, [sp, #8]
	.loc	2 443 15 is_stmt 0              @ packages/tjpgd1d/src/tjpgd.c:443:15
	ldr	r1, [sp, #20]
	movw	r2, #4433
	.loc	2 443 19                        @ packages/tjpgd1d/src/tjpgd.c:443:19
	muls	r1, r2, r1
	.loc	2 443 12                        @ packages/tjpgd1d/src/tjpgd.c:443:12
	sub.w	r0, r0, r1, asr #12
	.loc	2 443 6                         @ packages/tjpgd1d/src/tjpgd.c:443:6
	str	r0, [sp, #36]
	.loc	2 444 8 is_stmt 1               @ packages/tjpgd1d/src/tjpgd.c:444:8
	ldr	r0, [sp, #8]
	.loc	2 444 15 is_stmt 0              @ packages/tjpgd1d/src/tjpgd.c:444:15
	ldr	r1, [sp, #12]
	movw	r2, #10703
	.loc	2 444 19                        @ packages/tjpgd1d/src/tjpgd.c:444:19
	muls	r1, r2, r1
	.loc	2 444 12                        @ packages/tjpgd1d/src/tjpgd.c:444:12
	sub.w	r0, r0, r1, asr #12
	.loc	2 444 33                        @ packages/tjpgd1d/src/tjpgd.c:444:33
	ldr	r1, [sp, #24]
	.loc	2 444 31                        @ packages/tjpgd1d/src/tjpgd.c:444:31
	subs	r0, r0, r1
	.loc	2 444 6                         @ packages/tjpgd1d/src/tjpgd.c:444:6
	str	r0, [sp, #28]
	.loc	2 445 9 is_stmt 1               @ packages/tjpgd1d/src/tjpgd.c:445:9
	ldr	r1, [sp, #28]
	.loc	2 445 6 is_stmt 0               @ packages/tjpgd1d/src/tjpgd.c:445:6
	ldr	r0, [sp, #32]
	subs	r0, r0, r1
	str	r0, [sp, #32]
	.loc	2 446 9 is_stmt 1               @ packages/tjpgd1d/src/tjpgd.c:446:9
	ldr	r1, [sp, #32]
	.loc	2 446 6 is_stmt 0               @ packages/tjpgd1d/src/tjpgd.c:446:6
	ldr	r0, [sp, #36]
	subs	r0, r0, r1
	str	r0, [sp, #36]
	.loc	2 448 12 is_stmt 1              @ packages/tjpgd1d/src/tjpgd.c:448:12
	ldr	r0, [sp, #52]
	ldr	r1, [sp, #24]
	add	r0, r1
	ubfx	r1, r0, #8, #10
	movw	r0, :lower16:Clip8
	movt	r0, :upper16:Clip8
	str	r0, [sp]                        @ 4-byte Spill
	ldrb	r1, [r0, r1]
	.loc	2 448 3 is_stmt 0               @ packages/tjpgd1d/src/tjpgd.c:448:3
	ldr	r2, [sp, #72]
	.loc	2 448 10                        @ packages/tjpgd1d/src/tjpgd.c:448:10
	strb	r1, [r2]
	.loc	2 449 12 is_stmt 1              @ packages/tjpgd1d/src/tjpgd.c:449:12
	ldr	r1, [sp, #52]
	ldr	r2, [sp, #24]
	subs	r1, r1, r2
	ubfx	r1, r1, #8, #10
	ldrb	r1, [r0, r1]
	.loc	2 449 3 is_stmt 0               @ packages/tjpgd1d/src/tjpgd.c:449:3
	ldr	r2, [sp, #72]
	.loc	2 449 10                        @ packages/tjpgd1d/src/tjpgd.c:449:10
	strb	r1, [r2, #7]
	.loc	2 450 12 is_stmt 1              @ packages/tjpgd1d/src/tjpgd.c:450:12
	ldr	r1, [sp, #48]
	ldr	r2, [sp, #28]
	add	r1, r2
	ubfx	r1, r1, #8, #10
	ldrb	r1, [r0, r1]
	.loc	2 450 3 is_stmt 0               @ packages/tjpgd1d/src/tjpgd.c:450:3
	ldr	r2, [sp, #72]
	.loc	2 450 10                        @ packages/tjpgd1d/src/tjpgd.c:450:10
	strb	r1, [r2, #1]
	.loc	2 451 12 is_stmt 1              @ packages/tjpgd1d/src/tjpgd.c:451:12
	ldr	r1, [sp, #48]
	ldr	r2, [sp, #28]
	subs	r1, r1, r2
	ubfx	r1, r1, #8, #10
	ldrb	r1, [r0, r1]
	.loc	2 451 3 is_stmt 0               @ packages/tjpgd1d/src/tjpgd.c:451:3
	ldr	r2, [sp, #72]
	.loc	2 451 10                        @ packages/tjpgd1d/src/tjpgd.c:451:10
	strb	r1, [r2, #6]
	.loc	2 452 12 is_stmt 1              @ packages/tjpgd1d/src/tjpgd.c:452:12
	ldr	r1, [sp, #44]
	ldr	r2, [sp, #32]
	add	r1, r2
	ubfx	r1, r1, #8, #10
	ldrb	r1, [r0, r1]
	.loc	2 452 3 is_stmt 0               @ packages/tjpgd1d/src/tjpgd.c:452:3
	ldr	r2, [sp, #72]
	.loc	2 452 10                        @ packages/tjpgd1d/src/tjpgd.c:452:10
	strb	r1, [r2, #2]
	.loc	2 453 12 is_stmt 1              @ packages/tjpgd1d/src/tjpgd.c:453:12
	ldr	r1, [sp, #44]
	ldr	r2, [sp, #32]
	subs	r1, r1, r2
	ubfx	r1, r1, #8, #10
	ldrb	r1, [r0, r1]
	.loc	2 453 3 is_stmt 0               @ packages/tjpgd1d/src/tjpgd.c:453:3
	ldr	r2, [sp, #72]
	.loc	2 453 10                        @ packages/tjpgd1d/src/tjpgd.c:453:10
	strb	r1, [r2, #5]
	.loc	2 454 12 is_stmt 1              @ packages/tjpgd1d/src/tjpgd.c:454:12
	ldr	r1, [sp, #40]
	ldr	r2, [sp, #36]
	add	r1, r2
	ubfx	r1, r1, #8, #10
	ldrb	r1, [r0, r1]
	.loc	2 454 3 is_stmt 0               @ packages/tjpgd1d/src/tjpgd.c:454:3
	ldr	r2, [sp, #72]
	.loc	2 454 10                        @ packages/tjpgd1d/src/tjpgd.c:454:10
	strb	r1, [r2, #3]
	.loc	2 455 12 is_stmt 1              @ packages/tjpgd1d/src/tjpgd.c:455:12
	ldr	r1, [sp, #40]
	ldr	r2, [sp, #36]
	subs	r1, r1, r2
	ubfx	r1, r1, #8, #10
	ldrb	r0, [r0, r1]
	.loc	2 455 3 is_stmt 0               @ packages/tjpgd1d/src/tjpgd.c:455:3
	ldr	r1, [sp, #72]
	.loc	2 455 10                        @ packages/tjpgd1d/src/tjpgd.c:455:10
	strb	r0, [r1, #4]
	.loc	2 456 7 is_stmt 1               @ packages/tjpgd1d/src/tjpgd.c:456:7
	ldr	r0, [sp, #72]
	adds	r0, #8
	str	r0, [sp, #72]
	.loc	2 458 7                         @ packages/tjpgd1d/src/tjpgd.c:458:7
	ldr	r0, [sp, #76]
	adds	r0, #32
	str	r0, [sp, #76]
	.loc	2 459 2                         @ packages/tjpgd1d/src/tjpgd.c:459:2
	b	.LBB10_7
.Ltmp525:
.LBB10_7:                               @   in Loop: Header=BB10_5 Depth=1
	.loc	2 415 22                        @ packages/tjpgd1d/src/tjpgd.c:415:22
	ldr	r0, [sp, #4]
	adds	r0, #1
	str	r0, [sp, #4]
	.loc	2 415 2 is_stmt 0               @ packages/tjpgd1d/src/tjpgd.c:415:2
	b	.LBB10_5
.Ltmp526:
.LBB10_8:
	.loc	2 460 1 is_stmt 1               @ packages/tjpgd1d/src/tjpgd.c:460:1
	add	sp, #80
	bx	lr
.Ltmp527:
.Lfunc_end10:
	.size	block_idct, .Lfunc_end10-block_idct
	.cfi_endproc
	.cantunwind
	.fnend
                                        @ -- End function
	.type	Zig,%object                     @ @Zig
	.section	.rodata.Zig,"a",%progbits
Zig:
	.ascii	"\000\001\b\020\t\002\003\n\021\030 \031\022\013\004\005\f\023\032!(0)\"\033\024\r\006\007\016\025\034#*1892+$\035\026\017\027\036%,3:;4-&\037'.5<=6/7>?"
	.size	Zig, 64

	.type	Ipsf,%object                    @ @Ipsf
	.section	.rodata.Ipsf,"a",%progbits
	.p2align	1
Ipsf:
	.short	8192                            @ 0x2000
	.short	11362                           @ 0x2c62
	.short	10703                           @ 0x29cf
	.short	9632                            @ 0x25a0
	.short	8192                            @ 0x2000
	.short	6436                            @ 0x1924
	.short	4433                            @ 0x1151
	.short	2260                            @ 0x8d4
	.short	11362                           @ 0x2c62
	.short	15760                           @ 0x3d90
	.short	14846                           @ 0x39fe
	.short	13361                           @ 0x3431
	.short	11362                           @ 0x2c62
	.short	8927                            @ 0x22df
	.short	6149                            @ 0x1805
	.short	3134                            @ 0xc3e
	.short	10703                           @ 0x29cf
	.short	14846                           @ 0x39fe
	.short	13984                           @ 0x36a0
	.short	12585                           @ 0x3129
	.short	10703                           @ 0x29cf
	.short	8409                            @ 0x20d9
	.short	5792                            @ 0x16a0
	.short	2953                            @ 0xb89
	.short	9632                            @ 0x25a0
	.short	13361                           @ 0x3431
	.short	12585                           @ 0x3129
	.short	11326                           @ 0x2c3e
	.short	9632                            @ 0x25a0
	.short	7568                            @ 0x1d90
	.short	5213                            @ 0x145d
	.short	2657                            @ 0xa61
	.short	8192                            @ 0x2000
	.short	11362                           @ 0x2c62
	.short	10703                           @ 0x29cf
	.short	9632                            @ 0x25a0
	.short	8192                            @ 0x2000
	.short	6436                            @ 0x1924
	.short	4433                            @ 0x1151
	.short	2260                            @ 0x8d4
	.short	6436                            @ 0x1924
	.short	8927                            @ 0x22df
	.short	8409                            @ 0x20d9
	.short	7568                            @ 0x1d90
	.short	6436                            @ 0x1924
	.short	5057                            @ 0x13c1
	.short	3483                            @ 0xd9b
	.short	1775                            @ 0x6ef
	.short	4433                            @ 0x1151
	.short	6149                            @ 0x1805
	.short	5792                            @ 0x16a0
	.short	5213                            @ 0x145d
	.short	4433                            @ 0x1151
	.short	3483                            @ 0xd9b
	.short	2399                            @ 0x95f
	.short	1223                            @ 0x4c7
	.short	2260                            @ 0x8d4
	.short	3134                            @ 0xc3e
	.short	2953                            @ 0xb89
	.short	2657                            @ 0xa61
	.short	2260                            @ 0x8d4
	.short	1775                            @ 0x6ef
	.short	1223                            @ 0x4c7
	.short	623                             @ 0x26f
	.size	Ipsf, 128

	.type	Clip8,%object                   @ @Clip8
	.section	.rodata.Clip8,"a",%progbits
Clip8:
	.ascii	"\000\001\002\003\004\005\006\007\b\t\n\013\f\r\016\017\020\021\022\023\024\025\026\027\030\031\032\033\034\035\036\037 !\"#$%&'()*+,-./0123456789:;<=>?@ABCDEFGHIJKLMNOPQRSTUVWXYZ[\\]^_`abcdefghijklmnopqrstuvwxyz{|}~\177\200\201\202\203\204\205\206\207\210\211\212\213\214\215\216\217\220\221\222\223\224\225\226\227\230\231\232\233\234\235\236\237\240\241\242\243\244\245\246\247\250\251\252\253\254\255\256\257\260\261\262\263\264\265\266\267\270\271\272\273\274\275\276\277\300\301\302\303\304\305\306\307\310\311\312\313\314\315\316\317\320\321\322\323\324\325\326\327\330\331\332\333\334\335\336\337\340\341\342\343\344\345\346\347\350\351\352\353\354\355\356\357\360\361\362\363\364\365\366\367\370\371\372\373\374\375\376\377\377\377\377\377\377\377\377\377\377\377\377\377\377\377\377\377\377\377\377\377\377\377\377\377\377\377\377\377\377\377\377\377\377\377\377\377\377\377\377\377\377\377\377\377\377\377\377\377\377\377\377\377\377\377\377\377\377\377\377\377\377\377\377\377\377\377\377\377\377\377\377\377\377\377\377\377\377\377\377\377\377\377\377\377\377\377\377\377\377\377\377\377\377\377\377\377\377\377\377\377\377\377\377\377\377\377\377\377\377\377\377\377\377\377\377\377\377\377\377\377\377\377\377\377\377\377\377\377\377\377\377\377\377\377\377\377\377\377\377\377\377\377\377\377\377\377\377\377\377\377\377\377\377\377\377\377\377\377\377\377\377\377\377\377\377\377\377\377\377\377\377\377\377\377\377\377\377\377\377\377\377\377\377\377\377\377\377\377\377\377\377\377\377\377\377\377\377\377\377\377\377\377\377\377\377\377\377\377\377\377\377\377\377\377\377\377\377\377\377\377\377\377\377\377\377\377\377\377\377\377\377\377\377\377\377\377\377\377\377\377\377\377\377\377\377\377\377\377\377\377\377\377\377\377\377\377"
	.zero	512
	.size	Clip8, 1024

	.section	".note.GNU-stack","",%progbits
	.eabi_attribute	30, 6	@ Tag_ABI_optimization_goals
	.ARM_attribute	16, 1	@ Tag_AV_eba