	.text
	.syntax unified
	.eabi_attribute	67, "2.09"	@ Tag_conformance
	.cpu	cortex-m7
	.eabi_attribute	6, 13	@ Tag_CPU_arch
	.eabi_attribute	7, 77	@ Tag_CPU_arch_profile
	.eabi_attribute	8, 0	@ Tag_ARM_ISA_use
	.eabi_attribute	9, 2	@ Tag_THUMB_ISA_use
	.fpu	fpv5-d16
	.eabi_attribute	36, 1	@ Tag_FP_HP_extension
	.eabi_attribute	34, 1	@ Tag_CPU_unaligned_access
	.eabi_attribute	17, 1	@ Tag_ABI_PCS_GOT_use
	.eabi_attribute	20, 2	@ Tag_ABI_FP_denormal
	.eabi_attribute	21, 0	@ Tag_ABI_FP_exceptions
	.eabi_attribute	23, 1	@ Tag_ABI_FP_number_model
	.eabi_attribute	24, 1	@ Tag_ABI_align_needed
	.eabi_attribute	25, 1	@ Tag_ABI_align_preserved
	.eabi_attribute	28, 1	@ Tag_ABI_VFP_args
	.eabi_attribute	38, 1	@ Tag_ABI_FP_16bit_format
	.eabi_attribute	18, 2	@ Tag_ABI_PCS_wchar_t
	.eabi_attribute	26, 1	@ Tag_ABI_enum_size
	.eabi_attribute	14, 0	@ Tag_ABI_PCS_R9_use
	.file	"touch_driver.c"
	.file	1 "D:\\Keil_v5\\ARM\\ARMCLANG\\Bin\\..\\include" "stdint.h"
	.file	2 "E:\\STM32\\Learning\\STM32H750_ART_PI_RGBLCD" "./applications/TOUCH/touch_driver.h"
	.file	3 "E:\\STM32\\Learning\\STM32H750_ART_PI_RGBLCD" "applications/TOUCH/touch_driver.c"
	.file	4 "E:\\STM32\\Learning\\STM32H750_ART_PI_RGBLCD" "libraries/STM32H7xx_HAL/STM32H7xx_HAL_Driver/Inc\\stm32h7xx_hal_gpio.h"
	.file	5 "E:\\STM32\\Learning\\STM32H750_ART_PI_RGBLCD" "libraries/STM32H7xx_HAL/CMSIS/Device/ST/STM32H7xx/Include/stm32h750xx.h"
	.section	.text.TP_Init,"ax",%progbits
	.hidden	TP_Init                         @ -- Begin function TP_Init
	.globl	TP_Init
	.p2align	3
	.type	TP_Init,%function
	.code	16                              @ @TP_Init
	.thumb_func
TP_Init:
.Lfunc_begin0:
	.loc	3 453 0                         @ applications/TOUCH/touch_driver.c:453:0
	.fnstart
	.cfi_sections .debug_frame
	.cfi_startproc
@ %bb.0:
	.save	{r7, lr}
	push	{r7, lr}
	.cfi_def_cfa_offset 8
	.cfi_offset lr, -4
	.cfi_offset r7, -8
.Ltmp0:
	.loc	3 455 2 prologue_end            @ applications/TOUCH/touch_driver.c:455:2
	bl	GT9147_Init
	.loc	3 456 13                        @ applications/TOUCH/touch_driver.c:456:13
	movw	r1, :lower16:tp_dev
	movt	r1, :upper16:tp_dev
	movw	r0, :lower16:GT9147_Scan
	movt	r0, :upper16:GT9147_Scan
	str	r0, [r1, #4]
	movs	r0, #129
	.loc	3 457 19                        @ applications/TOUCH/touch_driver.c:457:19
	strb.w	r0, [r1, #68]
	movs	r0, #0
	.loc	3 458 2                         @ applications/TOUCH/touch_driver.c:458:2
	pop	{r7, pc}
.Ltmp1:
.Lfunc_end0:
	.size	TP_Init, .Lfunc_end0-TP_Init
	.cfi_endproc
	.cantunwind
	.fnend
                                        @ -- End function
	.section	.text.TP_Scan,"ax",%progbits
	.hidden	TP_Scan                         @ -- Begin function TP_Scan
	.globl	TP_Scan
	.p2align	3
	.type	TP_Scan,%function
	.code	16                              @ @TP_Scan
	.thumb_func
TP_Scan:
.Lfunc_begin1:
	.loc	3 187 0                         @ applications/TOUCH/touch_driver.c:187:0
	.fnstart
	.cfi_startproc
@ %bb.0:
	.save	{r7, lr}
	push	{r7, lr}
	.cfi_def_cfa_offset 8
	.cfi_offset lr, -4
	.cfi_offset r7, -8
	.pad	#8
	sub	sp, #8
	.cfi_def_cfa_offset 16
                                        @ kill: def $r1 killed $r0
	strb.w	r0, [sp, #7]
	movw	r0, #7168
	movt	r0, #22530
	movs	r1, #128
.Ltmp2:
	.loc	3 188 5 prologue_end            @ applications/TOUCH/touch_driver.c:188:5
	bl	HAL_GPIO_ReadPin
.Ltmp3:
	.loc	3 188 5 is_stmt 0               @ applications/TOUCH/touch_driver.c:188:5
	cmp	r0, #0
	bne	.LBB1_9
	b	.LBB1_1
.LBB1_1:
.Ltmp4:
	.loc	3 190 6 is_stmt 1               @ applications/TOUCH/touch_driver.c:190:6
	ldrb.w	r0, [sp, #7]
.Ltmp5:
	.loc	3 190 6 is_stmt 0               @ applications/TOUCH/touch_driver.c:190:6
	cbz	r0, .LBB1_3
	b	.LBB1_2
.LBB1_2:
.Ltmp6:
	.loc	3 190 9                         @ applications/TOUCH/touch_driver.c:190:9
	movw	r1, :lower16:tp_dev
	movt	r1, :upper16:tp_dev
	add.w	r0, r1, #12
	adds	r1, #32
	bl	TP_Read_XY2
	b	.LBB1_6
.LBB1_3:
.Ltmp7:
	.loc	3 191 11 is_stmt 1              @ applications/TOUCH/touch_driver.c:191:11
	movw	r1, :lower16:tp_dev
	movt	r1, :upper16:tp_dev
	add.w	r0, r1, #12
	adds	r1, #32
	bl	TP_Read_XY2
.Ltmp8:
	.loc	3 191 11 is_stmt 0              @ applications/TOUCH/touch_driver.c:191:11
	cbz	r0, .LBB1_5
	b	.LBB1_4
.LBB1_4:
.Ltmp9:
	.loc	3 193 24 is_stmt 1              @ applications/TOUCH/touch_driver.c:193:24
	movw	r1, :lower16:tp_dev
	movt	r1, :upper16:tp_dev
	str	r1, [sp]                        @ 4-byte Spill
	vldr	s2, [r1, #56]
	.loc	3 193 29 is_stmt 0              @ applications/TOUCH/touch_driver.c:193:29
	ldrh	r0, [r1, #12]
	vmov	s0, r0
	vcvt.f32.s32	s4, s0
	.loc	3 193 48                        @ applications/TOUCH/touch_driver.c:193:48
	ldrsh.w	r0, [r1, #64]
	.loc	3 193 41                        @ applications/TOUCH/touch_driver.c:193:41
	vmov	s0, r0
	vcvt.f32.s32	s0, s0
	.loc	3 193 40                        @ applications/TOUCH/touch_driver.c:193:40
	vmla.f32	s0, s2, s4
	.loc	3 193 17                        @ applications/TOUCH/touch_driver.c:193:17
	vcvt.u32.f32	s0, s0
	vmov	r0, s0
	.loc	3 193 16                        @ applications/TOUCH/touch_driver.c:193:16
	strh	r0, [r1, #12]
	.loc	3 194 23 is_stmt 1              @ applications/TOUCH/touch_driver.c:194:23
	vldr	s2, [r1, #60]
	.loc	3 194 28 is_stmt 0              @ applications/TOUCH/touch_driver.c:194:28
	ldrh	r0, [r1, #32]
	vmov	s0, r0
	vcvt.f32.s32	s4, s0
	.loc	3 194 47                        @ applications/TOUCH/touch_driver.c:194:47
	ldrsh.w	r0, [r1, #66]
	.loc	3 194 40                        @ applications/TOUCH/touch_driver.c:194:40
	vmov	s0, r0
	vcvt.f32.s32	s0, s0
	.loc	3 194 39                        @ applications/TOUCH/touch_driver.c:194:39
	vmla.f32	s0, s2, s4
	.loc	3 194 16                        @ applications/TOUCH/touch_driver.c:194:16
	vcvt.u32.f32	s0, s0
	vmov	r0, s0
	.loc	3 194 15                        @ applications/TOUCH/touch_driver.c:194:15
	strh	r0, [r1, #32]
	.loc	3 195 4 is_stmt 1               @ applications/TOUCH/touch_driver.c:195:4
	b	.LBB1_5
.Ltmp10:
.LBB1_5:
	.loc	3 0 4 is_stmt 0                 @ applications/TOUCH/touch_driver.c:0:4
	b	.LBB1_6
.LBB1_6:
.Ltmp11:
	.loc	3 196 14 is_stmt 1              @ applications/TOUCH/touch_driver.c:196:14
	movw	r0, :lower16:tp_dev
	movt	r0, :upper16:tp_dev
	.loc	3 196 7 is_stmt 0               @ applications/TOUCH/touch_driver.c:196:7
	ldrh	r0, [r0, #52]
.Ltmp12:
	.loc	3 196 6                         @ applications/TOUCH/touch_driver.c:196:6
	lsls	r0, r0, #16
	cmp	r0, #0
	bmi	.LBB1_8
	b	.LBB1_7
.LBB1_7:
.Ltmp13:
	.loc	3 198 14 is_stmt 1              @ applications/TOUCH/touch_driver.c:198:14
	movw	r1, :lower16:tp_dev
	movt	r1, :upper16:tp_dev
	mov.w	r0, #49152
	strh	r0, [r1, #52]
	.loc	3 199 29                        @ applications/TOUCH/touch_driver.c:199:29
	ldrh	r0, [r1, #12]
	.loc	3 199 28 is_stmt 0              @ applications/TOUCH/touch_driver.c:199:28
	strh	r0, [r1, #30]
	.loc	3 200 29 is_stmt 1              @ applications/TOUCH/touch_driver.c:200:29
	ldrh	r0, [r1, #32]
	.loc	3 200 28 is_stmt 0              @ applications/TOUCH/touch_driver.c:200:28
	strh	r0, [r1, #50]
	.loc	3 201 3 is_stmt 1               @ applications/TOUCH/touch_driver.c:201:3
	b	.LBB1_8
.Ltmp14:
.LBB1_8:
	.loc	3 202 2                         @ applications/TOUCH/touch_driver.c:202:2
	b	.LBB1_13
.Ltmp15:
.LBB1_9:
	.loc	3 204 13                        @ applications/TOUCH/touch_driver.c:204:13
	movw	r0, :lower16:tp_dev
	movt	r0, :upper16:tp_dev
	.loc	3 204 6 is_stmt 0               @ applications/TOUCH/touch_driver.c:204:6
	ldrh	r0, [r0, #52]
.Ltmp16:
	.loc	3 204 6                         @ applications/TOUCH/touch_driver.c:204:6
	lsls	r0, r0, #16
	cmp	r0, #0
	bpl	.LBB1_11
	b	.LBB1_10
.LBB1_10:
.Ltmp17:
	.loc	3 206 14 is_stmt 1              @ applications/TOUCH/touch_driver.c:206:14
	movw	r1, :lower16:tp_dev
	movt	r1, :upper16:tp_dev
	ldrh	r0, [r1, #52]
	bfc	r0, #15, #17
	strh	r0, [r1, #52]
	.loc	3 207 3                         @ applications/TOUCH/touch_driver.c:207:3
	b	.LBB1_12
.Ltmp18:
.LBB1_11:
	.loc	3 209 28                        @ applications/TOUCH/touch_driver.c:209:28
	movw	r1, :lower16:tp_dev
	movt	r1, :upper16:tp_dev
	movs	r0, #0
	strh	r0, [r1, #30]
	.loc	3 210 28                        @ applications/TOUCH/touch_driver.c:210:28
	strh	r0, [r1, #50]
	movw	r0, #65535
	.loc	3 211 15                        @ applications/TOUCH/touch_driver.c:211:15
	strh	r0, [r1, #12]
	.loc	3 212 15                        @ applications/TOUCH/touch_driver.c:212:15
	strh	r0, [r1, #32]
	b	.LBB1_12
.Ltmp19:
.LBB1_12:
	.loc	3 0 15 is_stmt 0                @ applications/TOUCH/touch_driver.c:0:15
	b	.LBB1_13
.LBB1_13:
	movs	r0, #0
	.loc	3 215 2 is_stmt 1               @ applications/TOUCH/touch_driver.c:215:2
	add	sp, #8
	pop	{r7, pc}
.Ltmp20:
.Lfunc_end1:
	.size	TP_Scan, .Lfunc_end1-TP_Scan
	.cfi_endproc
	.cantunwind
	.fnend
                                        @ -- End function
	.section	.text.TP_Adjust,"ax",%progbits
	.hidden	TP_Adjust                       @ -- Begin function TP_Adjust
	.globl	TP_Adjust
	.p2align	3
	.type	TP_Adjust,%function
	.code	16                              @ @TP_Adjust
	.thumb_func
TP_Adjust:
.Lfunc_begin2:
	.loc	3 300 0                         @ applications/TOUCH/touch_driver.c:300:0
	.fnstart
	.cfi_startproc
@ %bb.0:
	.loc	3 448 1 prologue_end            @ applications/TOUCH/touch_driver.c:448:1
	bx	lr
.Ltmp21:
.Lfunc_end2:
	.size	TP_Adjust, .Lfunc_end2-TP_Adjust
	.cfi_endproc
	.cantunwind
	.fnend
                                        @ -- End function
	.section	.text.TP_Write_Byte,"ax",%progbits
	.hidden	TP_Write_Byte                   @ -- Begin function TP_Write_Byte
	.globl	TP_Write_Byte
	.p2align	3
	.type	TP_Write_Byte,%function
	.code	16                              @ @TP_Write_Byte
	.thumb_func
TP_Write_Byte:
.Lfunc_begin3:
	.loc	3 43 0                          @ applications/TOUCH/touch_driver.c:43:0
	.fnstart
	.cfi_startproc
@ %bb.0:
	.save	{r7, lr}
	push	{r7, lr}
	.cfi_def_cfa_offset 8
	.cfi_offset lr, -4
	.cfi_offset r7, -8
	.pad	#16
	sub	sp, #16
	.cfi_def_cfa_offset 24
                                        @ kill: def $r1 killed $r0
	strb.w	r0, [sp, #15]
	movs	r0, #0
.Ltmp22:
	.loc	3 44 10 prologue_end            @ applications/TOUCH/touch_driver.c:44:10
	strb.w	r0, [sp, #14]
.Ltmp23:
	.loc	3 45 6                          @ applications/TOUCH/touch_driver.c:45:6
	b	.LBB3_1
.LBB3_1:                                @ =>This Inner Loop Header: Depth=1
.Ltmp24:
	.loc	3 45 14 is_stmt 0               @ applications/TOUCH/touch_driver.c:45:14
	ldrb.w	r0, [sp, #14]
.Ltmp25:
	.loc	3 45 2                          @ applications/TOUCH/touch_driver.c:45:2
	cmp	r0, #7
	bgt	.LBB3_7
	b	.LBB3_2
.LBB3_2:                                @   in Loop: Header=BB3_1 Depth=1
.Ltmp26:
	.loc	3 47 6 is_stmt 1                @ applications/TOUCH/touch_driver.c:47:6
	ldrb.w	r0, [sp, #15]
.Ltmp27:
	.loc	3 47 6 is_stmt 0                @ applications/TOUCH/touch_driver.c:47:6
	lsls	r0, r0, #24
	cmp	r0, #0
	bpl	.LBB3_4
	b	.LBB3_3
.LBB3_3:                                @   in Loop: Header=BB3_1 Depth=1
	.loc	3 0 6                           @ applications/TOUCH/touch_driver.c:0:6
	movw	r0, #6144
	movt	r0, #22530
	movs	r1, #128
	movs	r2, #1
.Ltmp28:
	.loc	3 47 15                         @ applications/TOUCH/touch_driver.c:47:15
	bl	HAL_GPIO_WritePin
	b	.LBB3_5
.LBB3_4:                                @   in Loop: Header=BB3_1 Depth=1
	.loc	3 0 15                          @ applications/TOUCH/touch_driver.c:0:15
	movw	r0, #6144
	movt	r0, #22530
	movs	r1, #128
	movs	r2, #0
	.loc	3 48 8 is_stmt 1                @ applications/TOUCH/touch_driver.c:48:8
	bl	HAL_GPIO_WritePin
	b	.LBB3_5
.Ltmp29:
.LBB3_5:                                @   in Loop: Header=BB3_1 Depth=1
	.loc	3 49 6                          @ applications/TOUCH/touch_driver.c:49:6
	ldrb.w	r0, [sp, #15]
	lsls	r0, r0, #1
	strb.w	r0, [sp, #15]
	movw	r0, #7168
	movt	r0, #22530
	str	r0, [sp]                        @ 4-byte Spill
	movs	r1, #64
	str	r1, [sp, #4]                    @ 4-byte Spill
	movs	r2, #0
	.loc	3 50 3                          @ applications/TOUCH/touch_driver.c:50:3
	bl	HAL_GPIO_WritePin
	movs	r0, #1
	.loc	3 51 3                          @ applications/TOUCH/touch_driver.c:51:3
	str	r0, [sp, #8]                    @ 4-byte Spill
	bl	rt_hw_us_delay
	ldr	r0, [sp]                        @ 4-byte Reload
	ldr	r1, [sp, #4]                    @ 4-byte Reload
	ldr	r2, [sp, #8]                    @ 4-byte Reload
	.loc	3 52 3                          @ applications/TOUCH/touch_driver.c:52:3
	bl	HAL_GPIO_WritePin
	.loc	3 53 2                          @ applications/TOUCH/touch_driver.c:53:2
	b	.LBB3_6
.Ltmp30:
.LBB3_6:                                @   in Loop: Header=BB3_1 Depth=1
	.loc	3 45 27                         @ applications/TOUCH/touch_driver.c:45:27
	ldrb.w	r0, [sp, #14]
	adds	r0, #1
	strb.w	r0, [sp, #14]
	.loc	3 45 2 is_stmt 0                @ applications/TOUCH/touch_driver.c:45:2
	b	.LBB3_1
.Ltmp31:
.LBB3_7:
	.loc	3 54 1 is_stmt 1                @ applications/TOUCH/touch_driver.c:54:1
	add	sp, #16
	pop	{r7, pc}
.Ltmp32:
.Lfunc_end3:
	.size	TP_Write_Byte, .Lfunc_end3-TP_Write_Byte
	.cfi_endproc
	.cantunwind
	.fnend
                                        @ -- End function
	.section	.text.TP_Read_AD,"ax",%progbits
	.hidden	TP_Read_AD                      @ -- Begin function TP_Read_AD
	.globl	TP_Read_AD
	.p2align	3
	.type	TP_Read_AD,%function
	.code	16                              @ @TP_Read_AD
	.thumb_func
TP_Read_AD:
.Lfunc_begin4:
	.loc	3 60 0                          @ applications/TOUCH/touch_driver.c:60:0
	.fnstart
	.cfi_startproc
@ %bb.0:
	.save	{r7, lr}
	push	{r7, lr}
	.cfi_def_cfa_offset 8
	.cfi_offset lr, -4
	.cfi_offset r7, -8
	.pad	#32
	sub	sp, #32
	.cfi_def_cfa_offset 40
                                        @ kill: def $r1 killed $r0
	strb.w	r0, [sp, #31]
	movs	r2, #0
.Ltmp33:
	.loc	3 61 10 prologue_end            @ applications/TOUCH/touch_driver.c:61:10
	str	r2, [sp, #24]                   @ 4-byte Spill
	strb.w	r2, [sp, #30]
	.loc	3 62 11                         @ applications/TOUCH/touch_driver.c:62:11
	strh.w	r2, [sp, #28]
	movw	r0, #7168
	movt	r0, #22530
	str	r0, [sp, #16]                   @ 4-byte Spill
	movs	r1, #64
	.loc	3 63 2                          @ applications/TOUCH/touch_driver.c:63:2
	str	r1, [sp, #20]                   @ 4-byte Spill
	bl	HAL_GPIO_WritePin
	ldr	r2, [sp, #24]                   @ 4-byte Reload
	movw	r0, #6144
	movt	r0, #22530
	movs	r1, #128
	.loc	3 64 2                          @ applications/TOUCH/touch_driver.c:64:2
	bl	HAL_GPIO_WritePin
	ldr	r2, [sp, #24]                   @ 4-byte Reload
	movw	r0, #8192
	movt	r0, #22530
	mov.w	r1, #256
	.loc	3 65 2                          @ applications/TOUCH/touch_driver.c:65:2
	bl	HAL_GPIO_WritePin
	.loc	3 66 16                         @ applications/TOUCH/touch_driver.c:66:16
	ldrb.w	r0, [sp, #31]
	.loc	3 66 2 is_stmt 0                @ applications/TOUCH/touch_driver.c:66:2
	bl	TP_Write_Byte
	movs	r0, #6
	.loc	3 67 2 is_stmt 1                @ applications/TOUCH/touch_driver.c:67:2
	bl	rt_hw_us_delay
	ldr	r0, [sp, #16]                   @ 4-byte Reload
	ldr	r1, [sp, #20]                   @ 4-byte Reload
	ldr	r2, [sp, #24]                   @ 4-byte Reload
	.loc	3 68 2                          @ applications/TOUCH/touch_driver.c:68:2
	bl	HAL_GPIO_WritePin
	movs	r0, #1
	.loc	3 69 2                          @ applications/TOUCH/touch_driver.c:69:2
	str	r0, [sp, #12]                   @ 4-byte Spill
	bl	rt_hw_us_delay
	ldr	r2, [sp, #12]                   @ 4-byte Reload
	ldr	r0, [sp, #16]                   @ 4-byte Reload
	ldr	r1, [sp, #20]                   @ 4-byte Reload
	.loc	3 70 2                          @ applications/TOUCH/touch_driver.c:70:2
	bl	HAL_GPIO_WritePin
	ldr	r0, [sp, #12]                   @ 4-byte Reload
	.loc	3 71 2                          @ applications/TOUCH/touch_driver.c:71:2
	bl	rt_hw_us_delay
	ldr	r0, [sp, #16]                   @ 4-byte Reload
	ldr	r1, [sp, #20]                   @ 4-byte Reload
	ldr	r2, [sp, #24]                   @ 4-byte Reload
	.loc	3 72 2                          @ applications/TOUCH/touch_driver.c:72:2
	bl	HAL_GPIO_WritePin
	ldr	r0, [sp, #24]                   @ 4-byte Reload
.Ltmp34:
	.loc	3 73 11                         @ applications/TOUCH/touch_driver.c:73:11
	strb.w	r0, [sp, #30]
	.loc	3 73 6 is_stmt 0                @ applications/TOUCH/touch_driver.c:73:6
	b	.LBB4_1
.LBB4_1:                                @ =>This Inner Loop Header: Depth=1
.Ltmp35:
	.loc	3 73 14                         @ applications/TOUCH/touch_driver.c:73:14
	ldrb.w	r0, [sp, #30]
.Ltmp36:
	.loc	3 73 2                          @ applications/TOUCH/touch_driver.c:73:2
	cmp	r0, #15
	bgt	.LBB4_6
	b	.LBB4_2
.LBB4_2:                                @   in Loop: Header=BB4_1 Depth=1
.Ltmp37:
	.loc	3 75 6 is_stmt 1                @ applications/TOUCH/touch_driver.c:75:6
	ldrh.w	r0, [sp, #28]
	lsls	r0, r0, #1
	strh.w	r0, [sp, #28]
	movw	r0, #7168
	movt	r0, #22530
	str	r0, [sp]                        @ 4-byte Spill
	movs	r1, #64
	str	r1, [sp, #4]                    @ 4-byte Spill
	movs	r2, #0
	.loc	3 76 3                          @ applications/TOUCH/touch_driver.c:76:3
	bl	HAL_GPIO_WritePin
	movs	r0, #1
	.loc	3 77 3                          @ applications/TOUCH/touch_driver.c:77:3
	str	r0, [sp, #8]                    @ 4-byte Spill
	bl	rt_hw_us_delay
	ldr	r0, [sp]                        @ 4-byte Reload
	ldr	r1, [sp, #4]                    @ 4-byte Reload
	ldr	r2, [sp, #8]                    @ 4-byte Reload
	.loc	3 78 4                          @ applications/TOUCH/touch_driver.c:78:4
	bl	HAL_GPIO_WritePin
	movw	r0, #6144
	movt	r0, #22530
	movs	r1, #8
.Ltmp38:
	.loc	3 79 7                          @ applications/TOUCH/touch_driver.c:79:7
	bl	HAL_GPIO_ReadPin
.Ltmp39:
	.loc	3 79 7 is_stmt 0                @ applications/TOUCH/touch_driver.c:79:7
	cbz	r0, .LBB4_4
	b	.LBB4_3
.LBB4_3:                                @   in Loop: Header=BB4_1 Depth=1
.Ltmp40:
	.loc	3 79 15                         @ applications/TOUCH/touch_driver.c:79:15
	ldrh.w	r0, [sp, #28]
	adds	r0, #1
	strh.w	r0, [sp, #28]
	.loc	3 79 12                         @ applications/TOUCH/touch_driver.c:79:12
	b	.LBB4_4
.Ltmp41:
.LBB4_4:                                @   in Loop: Header=BB4_1 Depth=1
	.loc	3 80 2 is_stmt 1                @ applications/TOUCH/touch_driver.c:80:2
	b	.LBB4_5
.Ltmp42:
.LBB4_5:                                @   in Loop: Header=BB4_1 Depth=1
	.loc	3 73 28                         @ applications/TOUCH/touch_driver.c:73:28
	ldrb.w	r0, [sp, #30]
	adds	r0, #1
	strb.w	r0, [sp, #30]
	.loc	3 73 2 is_stmt 0                @ applications/TOUCH/touch_driver.c:73:2
	b	.LBB4_1
.Ltmp43:
.LBB4_6:
	.loc	3 81 5 is_stmt 1                @ applications/TOUCH/touch_driver.c:81:5
	ldrh.w	r0, [sp, #28]
	lsrs	r0, r0, #4
	strh.w	r0, [sp, #28]
	movw	r0, #8192
	movt	r0, #22530
	mov.w	r1, #256
	movs	r2, #1
	.loc	3 82 2                          @ applications/TOUCH/touch_driver.c:82:2
	bl	HAL_GPIO_WritePin
	.loc	3 83 9                          @ applications/TOUCH/touch_driver.c:83:9
	ldrh.w	r0, [sp, #28]
	.loc	3 83 2 is_stmt 0                @ applications/TOUCH/touch_driver.c:83:2
	add	sp, #32
	pop	{r7, pc}
.Ltmp44:
.Lfunc_end4:
	.size	TP_Read_AD, .Lfunc_end4-TP_Read_AD
	.cfi_endproc
	.cantunwind
	.fnend
                                        @ -- End function
	.section	.text.TP_Read_XOY,"ax",%progbits
	.hidden	TP_Read_XOY                     @ -- Begin function TP_Read_XOY
	.globl	TP_Read_XOY
	.p2align	3
	.type	TP_Read_XOY,%function
	.code	16                              @ @TP_Read_XOY
	.thumb_func
TP_Read_XOY:
.Lfunc_begin5:
	.loc	3 93 0 is_stmt 1                @ applications/TOUCH/touch_driver.c:93:0
	.fnstart
	.cfi_startproc
@ %bb.0:
	.save	{r7, lr}
	push	{r7, lr}
	.cfi_def_cfa_offset 8
	.cfi_offset lr, -4
	.cfi_offset r7, -8
	.pad	#24
	sub	sp, #24
	.cfi_def_cfa_offset 32
                                        @ kill: def $r1 killed $r0
	strb.w	r0, [sp, #23]
	movs	r0, #0
.Ltmp45:
	.loc	3 96 11 prologue_end            @ applications/TOUCH/touch_driver.c:96:11
	strh.w	r0, [sp, #6]
.Ltmp46:
	.loc	3 98 7                          @ applications/TOUCH/touch_driver.c:98:7
	strh.w	r0, [sp, #20]
	.loc	3 98 6 is_stmt 0                @ applications/TOUCH/touch_driver.c:98:6
	b	.LBB5_1
.LBB5_1:                                @ =>This Inner Loop Header: Depth=1
.Ltmp47:
	.loc	3 98 10                         @ applications/TOUCH/touch_driver.c:98:10
	ldrh.w	r0, [sp, #20]
.Ltmp48:
	.loc	3 98 2                          @ applications/TOUCH/touch_driver.c:98:2
	cmp	r0, #4
	bgt	.LBB5_4
	b	.LBB5_2
.LBB5_2:                                @   in Loop: Header=BB5_1 Depth=1
.Ltmp49:
	.loc	3 98 45                         @ applications/TOUCH/touch_driver.c:98:45
	ldrb.w	r0, [sp, #23]
	.loc	3 98 34                         @ applications/TOUCH/touch_driver.c:98:34
	bl	TP_Read_AD
	.loc	3 98 31                         @ applications/TOUCH/touch_driver.c:98:31
	ldrh.w	r2, [sp, #20]
	add	r1, sp, #8
	.loc	3 98 33                         @ applications/TOUCH/touch_driver.c:98:33
	strh.w	r0, [r1, r2, lsl #1]
	.loc	3 98 27                         @ applications/TOUCH/touch_driver.c:98:27
	b	.LBB5_3
.LBB5_3:                                @   in Loop: Header=BB5_1 Depth=1
	.loc	3 98 24                         @ applications/TOUCH/touch_driver.c:98:24
	ldrh.w	r0, [sp, #20]
	adds	r0, #1
	strh.w	r0, [sp, #20]
	.loc	3 98 2                          @ applications/TOUCH/touch_driver.c:98:2
	b	.LBB5_1
.Ltmp50:
.LBB5_4:
	.loc	3 0 2                           @ applications/TOUCH/touch_driver.c:0:2
	movs	r0, #0
.Ltmp51:
	.loc	3 99 7 is_stmt 1                @ applications/TOUCH/touch_driver.c:99:7
	strh.w	r0, [sp, #20]
	.loc	3 99 6 is_stmt 0                @ applications/TOUCH/touch_driver.c:99:6
	b	.LBB5_5
.LBB5_5:                                @ =>This Loop Header: Depth=1
                                        @     Child Loop BB5_7 Depth 2
.Ltmp52:
	.loc	3 99 10                         @ applications/TOUCH/touch_driver.c:99:10
	ldrh.w	r0, [sp, #20]
.Ltmp53:
	.loc	3 99 2                          @ applications/TOUCH/touch_driver.c:99:2
	cmp	r0, #3
	bgt	.LBB5_14
	b	.LBB5_6
.LBB5_6:                                @   in Loop: Header=BB5_5 Depth=1
.Ltmp54:
	.loc	3 101 9 is_stmt 1               @ applications/TOUCH/touch_driver.c:101:9
	ldrh.w	r0, [sp, #20]
	.loc	3 101 10 is_stmt 0              @ applications/TOUCH/touch_driver.c:101:10
	adds	r0, #1
	.loc	3 101 8                         @ applications/TOUCH/touch_driver.c:101:8
	strh.w	r0, [sp, #18]
	.loc	3 101 7                         @ applications/TOUCH/touch_driver.c:101:7
	b	.LBB5_7
.LBB5_7:                                @   Parent Loop BB5_5 Depth=1
                                        @ =>  This Inner Loop Header: Depth=2
.Ltmp55:
	.loc	3 101 13                        @ applications/TOUCH/touch_driver.c:101:13
	ldrh.w	r0, [sp, #18]
.Ltmp56:
	.loc	3 101 3                         @ applications/TOUCH/touch_driver.c:101:3
	cmp	r0, #4
	bgt	.LBB5_12
	b	.LBB5_8
.LBB5_8:                                @   in Loop: Header=BB5_7 Depth=2
.Ltmp57:
	.loc	3 103 11 is_stmt 1              @ applications/TOUCH/touch_driver.c:103:11
	ldrh.w	r0, [sp, #20]
	add	r1, sp, #8
	.loc	3 103 7 is_stmt 0               @ applications/TOUCH/touch_driver.c:103:7
	ldrh.w	r0, [r1, r0, lsl #1]
	.loc	3 103 18                        @ applications/TOUCH/touch_driver.c:103:18
	ldrh.w	r2, [sp, #18]
	.loc	3 103 14                        @ applications/TOUCH/touch_driver.c:103:14
	ldrh.w	r1, [r1, r2, lsl #1]
.Ltmp58:
	.loc	3 103 7                         @ applications/TOUCH/touch_driver.c:103:7
	cmp	r0, r1
	ble	.LBB5_10
	b	.LBB5_9
.LBB5_9:                                @   in Loop: Header=BB5_7 Depth=2
.Ltmp59:
	.loc	3 105 14 is_stmt 1              @ applications/TOUCH/touch_driver.c:105:14
	ldrh.w	r0, [sp, #20]
	add	r1, sp, #8
	.loc	3 105 10 is_stmt 0              @ applications/TOUCH/touch_driver.c:105:10
	ldrh.w	r0, [r1, r0, lsl #1]
	.loc	3 105 9                         @ applications/TOUCH/touch_driver.c:105:9
	strh.w	r0, [sp, #4]
	.loc	3 106 16 is_stmt 1              @ applications/TOUCH/touch_driver.c:106:16
	ldrh.w	r0, [sp, #18]
	.loc	3 106 12 is_stmt 0              @ applications/TOUCH/touch_driver.c:106:12
	ldrh.w	r0, [r1, r0, lsl #1]
	.loc	3 106 9                         @ applications/TOUCH/touch_driver.c:106:9
	ldrh.w	r2, [sp, #20]
	.loc	3 106 11                        @ applications/TOUCH/touch_driver.c:106:11
	strh.w	r0, [r1, r2, lsl #1]
	.loc	3 107 12 is_stmt 1              @ applications/TOUCH/touch_driver.c:107:12
	ldrh.w	r0, [sp, #4]
	.loc	3 107 9 is_stmt 0               @ applications/TOUCH/touch_driver.c:107:9
	ldrh.w	r2, [sp, #18]
	.loc	3 107 11                        @ applications/TOUCH/touch_driver.c:107:11
	strh.w	r0, [r1, r2, lsl #1]
	.loc	3 108 4 is_stmt 1               @ applications/TOUCH/touch_driver.c:108:4
	b	.LBB5_10
.Ltmp60:
.LBB5_10:                               @   in Loop: Header=BB5_7 Depth=2
	.loc	3 109 3                         @ applications/TOUCH/touch_driver.c:109:3
	b	.LBB5_11
.Ltmp61:
.LBB5_11:                               @   in Loop: Header=BB5_7 Depth=2
	.loc	3 101 27                        @ applications/TOUCH/touch_driver.c:101:27
	ldrh.w	r0, [sp, #18]
	adds	r0, #1
	strh.w	r0, [sp, #18]
	.loc	3 101 3 is_stmt 0               @ applications/TOUCH/touch_driver.c:101:3
	b	.LBB5_7
.Ltmp62:
.LBB5_12:                               @   in Loop: Header=BB5_5 Depth=1
	.loc	3 110 2 is_stmt 1               @ applications/TOUCH/touch_driver.c:110:2
	b	.LBB5_13
.Ltmp63:
.LBB5_13:                               @   in Loop: Header=BB5_5 Depth=1
	.loc	3 99 27                         @ applications/TOUCH/touch_driver.c:99:27
	ldrh.w	r0, [sp, #20]
	adds	r0, #1
	strh.w	r0, [sp, #20]
	.loc	3 99 2 is_stmt 0                @ applications/TOUCH/touch_driver.c:99:2
	b	.LBB5_5
.Ltmp64:
.LBB5_14:
	.loc	3 0 2                           @ applications/TOUCH/touch_driver.c:0:2
	movs	r0, #0
	.loc	3 111 5 is_stmt 1               @ applications/TOUCH/touch_driver.c:111:5
	strh.w	r0, [sp, #6]
	movs	r0, #1
.Ltmp65:
	.loc	3 112 7                         @ applications/TOUCH/touch_driver.c:112:7
	strh.w	r0, [sp, #20]
	.loc	3 112 6 is_stmt 0               @ applications/TOUCH/touch_driver.c:112:6
	b	.LBB5_15
.LBB5_15:                               @ =>This Inner Loop Header: Depth=1
.Ltmp66:
	.loc	3 112 17                        @ applications/TOUCH/touch_driver.c:112:17
	ldrh.w	r0, [sp, #20]
.Ltmp67:
	.loc	3 112 2                         @ applications/TOUCH/touch_driver.c:112:2
	cmp	r0, #3
	bgt	.LBB5_18
	b	.LBB5_16
.LBB5_16:                               @   in Loop: Header=BB5_15 Depth=1
.Ltmp68:
	.loc	3 112 52                        @ applications/TOUCH/touch_driver.c:112:52
	ldrh.w	r1, [sp, #20]
	add	r0, sp, #8
	.loc	3 112 48                        @ applications/TOUCH/touch_driver.c:112:48
	ldrh.w	r1, [r0, r1, lsl #1]
	.loc	3 112 46                        @ applications/TOUCH/touch_driver.c:112:46
	ldrh.w	r0, [sp, #6]
	add	r0, r1
	strh.w	r0, [sp, #6]
	.loc	3 112 43                        @ applications/TOUCH/touch_driver.c:112:43
	b	.LBB5_17
.LBB5_17:                               @   in Loop: Header=BB5_15 Depth=1
	.loc	3 112 40                        @ applications/TOUCH/touch_driver.c:112:40
	ldrh.w	r0, [sp, #20]
	adds	r0, #1
	strh.w	r0, [sp, #20]
	.loc	3 112 2                         @ applications/TOUCH/touch_driver.c:112:2
	b	.LBB5_15
.Ltmp69:
.LBB5_18:
	.loc	3 113 7 is_stmt 1               @ applications/TOUCH/touch_driver.c:113:7
	ldrh.w	r0, [sp, #6]
	movw	r1, #43691
	movt	r1, #43690
	.loc	3 113 10 is_stmt 0              @ applications/TOUCH/touch_driver.c:113:10
	umull	r1, r0, r0, r1
	lsrs	r0, r0, #1
	.loc	3 113 6                         @ applications/TOUCH/touch_driver.c:113:6
	strh.w	r0, [sp, #4]
	.loc	3 114 9 is_stmt 1               @ applications/TOUCH/touch_driver.c:114:9
	ldrh.w	r0, [sp, #4]
	.loc	3 114 2 is_stmt 0               @ applications/TOUCH/touch_driver.c:114:2
	add	sp, #24
	pop	{r7, pc}
.Ltmp70:
.Lfunc_end5:
	.size	TP_Read_XOY, .Lfunc_end5-TP_Read_XOY
	.cfi_endproc
	.cantunwind
	.fnend
                                        @ -- End function
	.section	.text.TP_Read_XY,"ax",%progbits
	.hidden	TP_Read_XY                      @ -- Begin function TP_Read_XY
	.globl	TP_Read_XY
	.p2align	3
	.type	TP_Read_XY,%function
	.code	16                              @ @TP_Read_XY
	.thumb_func
TP_Read_XY:
.Lfunc_begin6:
	.loc	3 121 0 is_stmt 1               @ applications/TOUCH/touch_driver.c:121:0
	.fnstart
	.cfi_startproc
@ %bb.0:
	.save	{r7, lr}
	push	{r7, lr}
	.cfi_def_cfa_offset 8
	.cfi_offset lr, -4
	.cfi_offset r7, -8
	.pad	#16
	sub	sp, #16
	.cfi_def_cfa_offset 24
	str	r0, [sp, #12]
	str	r1, [sp, #8]
.Ltmp71:
	.loc	3 123 20 prologue_end           @ applications/TOUCH/touch_driver.c:123:20
	movw	r0, :lower16:CMD_RDX
	movt	r0, :upper16:CMD_RDX
	ldrb	r0, [r0]
	.loc	3 123 8 is_stmt 0               @ applications/TOUCH/touch_driver.c:123:8
	bl	TP_Read_XOY
	.loc	3 123 7                         @ applications/TOUCH/touch_driver.c:123:7
	strh.w	r0, [sp, #6]
	.loc	3 124 20 is_stmt 1              @ applications/TOUCH/touch_driver.c:124:20
	movw	r0, :lower16:CMD_RDY
	movt	r0, :upper16:CMD_RDY
	ldrb	r0, [r0]
	.loc	3 124 8 is_stmt 0               @ applications/TOUCH/touch_driver.c:124:8
	bl	TP_Read_XOY
	.loc	3 124 7                         @ applications/TOUCH/touch_driver.c:124:7
	strh.w	r0, [sp, #4]
	.loc	3 126 5 is_stmt 1               @ applications/TOUCH/touch_driver.c:126:5
	ldrh.w	r0, [sp, #6]
	.loc	3 126 3 is_stmt 0               @ applications/TOUCH/touch_driver.c:126:3
	ldr	r1, [sp, #12]
	.loc	3 126 4                         @ applications/TOUCH/touch_driver.c:126:4
	strh	r0, [r1]
	.loc	3 127 5 is_stmt 1               @ applications/TOUCH/touch_driver.c:127:5
	ldrh.w	r0, [sp, #4]
	.loc	3 127 3 is_stmt 0               @ applications/TOUCH/touch_driver.c:127:3
	ldr	r1, [sp, #8]
	.loc	3 127 4                         @ applications/TOUCH/touch_driver.c:127:4
	strh	r0, [r1]
	movs	r0, #1
	.loc	3 128 2 is_stmt 1               @ applications/TOUCH/touch_driver.c:128:2
	add	sp, #16
	pop	{r7, pc}
.Ltmp72:
.Lfunc_end6:
	.size	TP_Read_XY, .Lfunc_end6-TP_Read_XY
	.cfi_endproc
	.cantunwind
	.fnend
                                        @ -- End function
	.section	.text.TP_Read_XY2,"ax",%progbits
	.hidden	TP_Read_XY2                     @ -- Begin function TP_Read_XY2
	.globl	TP_Read_XY2
	.p2align	3
	.type	TP_Read_XY2,%function
	.code	16                              @ @TP_Read_XY2
	.thumb_func
TP_Read_XY2:
.Lfunc_begin7:
	.loc	3 137 0                         @ applications/TOUCH/touch_driver.c:137:0
	.fnstart
	.cfi_startproc
@ %bb.0:
	.save	{r7, lr}
	push	{r7, lr}
	.cfi_def_cfa_offset 8
	.cfi_offset lr, -4
	.cfi_offset r7, -8
	.pad	#24
	sub	sp, #24
	.cfi_def_cfa_offset 32
	str	r0, [sp, #16]
	str	r1, [sp, #12]
	add.w	r0, sp, #10
	add	r1, sp, #8
.Ltmp73:
	.loc	3 141 10 prologue_end           @ applications/TOUCH/touch_driver.c:141:10
	bl	TP_Read_XY
	.loc	3 141 9 is_stmt 0               @ applications/TOUCH/touch_driver.c:141:9
	strb.w	r0, [sp, #3]
.Ltmp74:
	.loc	3 142 8 is_stmt 1               @ applications/TOUCH/touch_driver.c:142:8
	ldrb.w	r0, [sp, #3]
.Ltmp75:
	.loc	3 142 8 is_stmt 0               @ applications/TOUCH/touch_driver.c:142:8
	cbnz	r0, .LBB7_2
	b	.LBB7_1
.LBB7_1:
	.loc	3 0 8                           @ applications/TOUCH/touch_driver.c:0:8
	movs	r0, #0
.Ltmp76:
	.loc	3 142 16                        @ applications/TOUCH/touch_driver.c:142:16
	strb.w	r0, [sp, #23]
	b	.LBB7_14
.Ltmp77:
.LBB7_2:
	.loc	3 0 16                          @ applications/TOUCH/touch_driver.c:0:16
	add.w	r0, sp, #6
	add	r1, sp, #4
	.loc	3 143 10 is_stmt 1              @ applications/TOUCH/touch_driver.c:143:10
	bl	TP_Read_XY
	.loc	3 143 9 is_stmt 0               @ applications/TOUCH/touch_driver.c:143:9
	strb.w	r0, [sp, #3]
.Ltmp78:
	.loc	3 144 8 is_stmt 1               @ applications/TOUCH/touch_driver.c:144:8
	ldrb.w	r0, [sp, #3]
.Ltmp79:
	.loc	3 144 8 is_stmt 0               @ applications/TOUCH/touch_driver.c:144:8
	cbnz	r0, .LBB7_4
	b	.LBB7_3
.LBB7_3:
	.loc	3 0 8                           @ applications/TOUCH/touch_driver.c:0:8
	movs	r0, #0
.Ltmp80:
	.loc	3 144 16                        @ applications/TOUCH/touch_driver.c:144:16
	strb.w	r0, [sp, #23]
	b	.LBB7_14
.Ltmp81:
.LBB7_4:
	.loc	3 145 10 is_stmt 1              @ applications/TOUCH/touch_driver.c:145:10
	ldrh.w	r0, [sp, #6]
	.loc	3 145 14 is_stmt 0              @ applications/TOUCH/touch_driver.c:145:14
	ldrh.w	r1, [sp, #10]
	.loc	3 145 16                        @ applications/TOUCH/touch_driver.c:145:16
	cmp	r0, r1
	bgt	.LBB7_6
	b	.LBB7_5
.LBB7_5:
	.loc	3 145 18                        @ applications/TOUCH/touch_driver.c:145:18
	ldrh.w	r0, [sp, #10]
	.loc	3 145 21                        @ applications/TOUCH/touch_driver.c:145:21
	ldrh.w	r1, [sp, #6]
	.loc	3 145 23                        @ applications/TOUCH/touch_driver.c:145:23
	adds	r1, #50
	.loc	3 145 34                        @ applications/TOUCH/touch_driver.c:145:34
	cmp	r0, r1
	blt	.LBB7_8
	b	.LBB7_6
.LBB7_6:
	.loc	3 145 37                        @ applications/TOUCH/touch_driver.c:145:37
	ldrh.w	r0, [sp, #10]
	.loc	3 145 41                        @ applications/TOUCH/touch_driver.c:145:41
	ldrh.w	r1, [sp, #6]
	.loc	3 145 43                        @ applications/TOUCH/touch_driver.c:145:43
	cmp	r0, r1
	bgt	.LBB7_13
	b	.LBB7_7
.LBB7_7:
	.loc	3 145 45                        @ applications/TOUCH/touch_driver.c:145:45
	ldrh.w	r0, [sp, #6]
	.loc	3 145 48                        @ applications/TOUCH/touch_driver.c:145:48
	ldrh.w	r1, [sp, #10]
	.loc	3 145 50                        @ applications/TOUCH/touch_driver.c:145:50
	adds	r1, #50
	.loc	3 146 5 is_stmt 1               @ applications/TOUCH/touch_driver.c:146:5
	cmp	r0, r1
	bge	.LBB7_13
	b	.LBB7_8
.LBB7_8:
	.loc	3 146 9 is_stmt 0               @ applications/TOUCH/touch_driver.c:146:9
	ldrh.w	r0, [sp, #4]
	.loc	3 146 13                        @ applications/TOUCH/touch_driver.c:146:13
	ldrh.w	r1, [sp, #8]
	.loc	3 146 15                        @ applications/TOUCH/touch_driver.c:146:15
	cmp	r0, r1
	bgt	.LBB7_10
	b	.LBB7_9
.LBB7_9:
	.loc	3 146 17                        @ applications/TOUCH/touch_driver.c:146:17
	ldrh.w	r0, [sp, #8]
	.loc	3 146 20                        @ applications/TOUCH/touch_driver.c:146:20
	ldrh.w	r1, [sp, #4]
	.loc	3 146 22                        @ applications/TOUCH/touch_driver.c:146:22
	adds	r1, #50
	.loc	3 146 33                        @ applications/TOUCH/touch_driver.c:146:33
	cmp	r0, r1
	blt	.LBB7_12
	b	.LBB7_10
.LBB7_10:
	.loc	3 146 36                        @ applications/TOUCH/touch_driver.c:146:36
	ldrh.w	r0, [sp, #8]
	.loc	3 146 40                        @ applications/TOUCH/touch_driver.c:146:40
	ldrh.w	r1, [sp, #4]
	.loc	3 146 42                        @ applications/TOUCH/touch_driver.c:146:42
	cmp	r0, r1
	bgt	.LBB7_13
	b	.LBB7_11
.LBB7_11:
	.loc	3 146 44                        @ applications/TOUCH/touch_driver.c:146:44
	ldrh.w	r0, [sp, #4]
	.loc	3 146 47                        @ applications/TOUCH/touch_driver.c:146:47
	ldrh.w	r1, [sp, #8]
	.loc	3 146 49                        @ applications/TOUCH/touch_driver.c:146:49
	adds	r1, #50
.Ltmp82:
	.loc	3 145 8 is_stmt 1               @ applications/TOUCH/touch_driver.c:145:8
	cmp	r0, r1
	bge	.LBB7_13
	b	.LBB7_12
.LBB7_12:
.Ltmp83:
	.loc	3 148 13                        @ applications/TOUCH/touch_driver.c:148:13
	ldrh.w	r0, [sp, #10]
	.loc	3 148 16 is_stmt 0              @ applications/TOUCH/touch_driver.c:148:16
	ldrh.w	r1, [sp, #6]
	.loc	3 148 15                        @ applications/TOUCH/touch_driver.c:148:15
	add	r0, r1
	.loc	3 148 19                        @ applications/TOUCH/touch_driver.c:148:19
	lsrs	r0, r0, #1
	.loc	3 148 10                        @ applications/TOUCH/touch_driver.c:148:10
	ldr	r1, [sp, #16]
	.loc	3 148 11                        @ applications/TOUCH/touch_driver.c:148:11
	strh	r0, [r1]
	.loc	3 149 13 is_stmt 1              @ applications/TOUCH/touch_driver.c:149:13
	ldrh.w	r0, [sp, #8]
	.loc	3 149 16 is_stmt 0              @ applications/TOUCH/touch_driver.c:149:16
	ldrh.w	r1, [sp, #4]
	.loc	3 149 15                        @ applications/TOUCH/touch_driver.c:149:15
	add	r0, r1
	.loc	3 149 19                        @ applications/TOUCH/touch_driver.c:149:19
	lsrs	r0, r0, #1
	.loc	3 149 10                        @ applications/TOUCH/touch_driver.c:149:10
	ldr	r1, [sp, #12]
	.loc	3 149 11                        @ applications/TOUCH/touch_driver.c:149:11
	strh	r0, [r1]
	movs	r0, #1
	.loc	3 150 9 is_stmt 1               @ applications/TOUCH/touch_driver.c:150:9
	strb.w	r0, [sp, #23]
	b	.LBB7_14
.Ltmp84:
.LBB7_13:
	.loc	3 0 9 is_stmt 0                 @ applications/TOUCH/touch_driver.c:0:9
	movs	r0, #0
	.loc	3 151 11 is_stmt 1              @ applications/TOUCH/touch_driver.c:151:11
	strb.w	r0, [sp, #23]
	b	.LBB7_14
.Ltmp85:
.LBB7_14:
	.loc	3 152 1                         @ applications/TOUCH/touch_driver.c:152:1
	ldrb.w	r0, [sp, #23]
	add	sp, #24
	pop	{r7, pc}
.Ltmp86:
.Lfunc_end7:
	.size	TP_Read_XY2, .Lfunc_end7-TP_Read_XY2
	.cfi_endproc
	.cantunwind
	.fnend
                                        @ -- End function
	.section	.text.TP_Drow_Touch_Point,"ax",%progbits
	.hidden	TP_Drow_Touch_Point             @ -- Begin function TP_Drow_Touch_Point
	.globl	TP_Drow_Touch_Point
	.p2align	3
	.type	TP_Drow_Touch_Point,%function
	.code	16                              @ @TP_Drow_Touch_Point
	.thumb_func
TP_Drow_Touch_Point:
.Lfunc_begin8:
	.loc	3 160 0                         @ applications/TOUCH/touch_driver.c:160:0
	.fnstart
	.cfi_startproc
@ %bb.0:
	.pad	#8
	sub	sp, #8
	.cfi_def_cfa_offset 8
                                        @ kill: def $r3 killed $r2
                                        @ kill: def $r3 killed $r1
                                        @ kill: def $r3 killed $r0
	strh.w	r0, [sp, #6]
	strh.w	r1, [sp, #4]
	strh.w	r2, [sp, #2]
.Ltmp87:
	.loc	3 169 1 prologue_end            @ applications/TOUCH/touch_driver.c:169:1
	add	sp, #8
	bx	lr
.Ltmp88:
.Lfunc_end8:
	.size	TP_Drow_Touch_Point, .Lfunc_end8-TP_Drow_Touch_Point
	.cfi_endproc
	.cantunwind
	.fnend
                                        @ -- End function
	.section	.text.TP_Draw_Big_Point,"ax",%progbits
	.hidden	TP_Draw_Big_Point               @ -- Begin function TP_Draw_Big_Point
	.globl	TP_Draw_Big_Point
	.p2align	3
	.type	TP_Draw_Big_Point,%function
	.code	16                              @ @TP_Draw_Big_Point
	.thumb_func
TP_Draw_Big_Point:
.Lfunc_begin9:
	.loc	3 174 0                         @ applications/TOUCH/touch_driver.c:174:0
	.fnstart
	.cfi_startproc
@ %bb.0:
	.pad	#8
	sub	sp, #8
	.cfi_def_cfa_offset 8
                                        @ kill: def $r3 killed $r2
                                        @ kill: def $r3 killed $r1
                                        @ kill: def $r3 killed $r0
	strh.w	r0, [sp, #6]
	strh.w	r1, [sp, #4]
	strh.w	r2, [sp, #2]
.Ltmp89:
	.loc	3 180 1 prologue_end            @ applications/TOUCH/touch_driver.c:180:1
	add	sp, #8
	bx	lr
.Ltmp90:
.Lfunc_end9:
	.size	TP_Draw_Big_Point, .Lfunc_end9-TP_Draw_Big_Point
	.cfi_endproc
	.cantunwind
	.fnend
                                        @ -- End function
	.section	.text.TP_Save_Adjdata,"ax",%progbits
	.hidden	TP_Save_Adjdata                 @ -- Begin function TP_Save_Adjdata
	.globl	TP_Save_Adjdata
	.p2align	3
	.type	TP_Save_Adjdata,%function
	.code	16                              @ @TP_Save_Adjdata
	.thumb_func
TP_Save_Adjdata:
.Lfunc_begin10:
	.loc	3 222 0                         @ applications/TOUCH/touch_driver.c:222:0
	.fnstart
	.cfi_startproc
@ %bb.0:
	.loc	3 237 1 prologue_end            @ applications/TOUCH/touch_driver.c:237:1
	bx	lr
.Ltmp91:
.Lfunc_end10:
	.size	TP_Save_Adjdata, .Lfunc_end10-TP_Save_Adjdata
	.cfi_endproc
	.cantunwind
	.fnend
                                        @ -- End function
	.section	.text.TP_Get_Adjdata,"ax",%progbits
	.hidden	TP_Get_Adjdata                  @ -- Begin function TP_Get_Adjdata
	.globl	TP_Get_Adjdata
	.p2align	3
	.type	TP_Get_Adjdata,%function
	.code	16                              @ @TP_Get_Adjdata
	.thumb_func
TP_Get_Adjdata:
.Lfunc_begin11:
	.loc	3 242 0                         @ applications/TOUCH/touch_driver.c:242:0
	.fnstart
	.cfi_startproc
@ %bb.0:
	movs	r0, #0
.Ltmp92:
	.loc	3 267 2 prologue_end            @ applications/TOUCH/touch_driver.c:267:2
	bx	lr
.Ltmp93:
.Lfunc_end11:
	.size	TP_Get_Adjdata, .Lfunc_end11-TP_Get_Adjdata
	.cfi_endproc
	.cantunwind
	.fnend
                                        @ -- End function
	.section	.text.TP_Adj_Info_Show,"ax",%progbits
	.hidden	TP_Adj_Info_Show                @ -- Begin function TP_Adj_Info_Show
	.globl	TP_Adj_Info_Show
	.p2align	3
	.type	TP_Adj_Info_Show,%function
	.code	16                              @ @TP_Adj_Info_Show
	.thumb_func
TP_Adj_Info_Show:
.Lfunc_begin12:
	.loc	3 274 0                         @ applications/TOUCH/touch_driver.c:274:0
	.fnstart
	.cfi_startproc
@ %bb.0:
	.save	{r4, r5, r6, r7, lr}
	push	{r4, r5, r6, r7, lr}
	.cfi_def_cfa_offset 20
	.cfi_offset lr, -4
	.cfi_offset r7, -8
	.cfi_offset r6, -12
	.cfi_offset r5, -16
	.cfi_offset r4, -20
	.pad	#20
	sub	sp, #20
	.cfi_def_cfa_offset 40
	mov	lr, r3
	mov	r4, r2
	mov	r5, r1
	mov	r6, r0
	ldr	r0, [sp, #56]
	ldr	r1, [sp, #52]
	ldr	r2, [sp, #48]
	ldr	r3, [sp, #44]
	ldr.w	r12, [sp, #40]
                                        @ kill: def $r7 killed $lr
                                        @ kill: def $r7 killed $r4
                                        @ kill: def $r7 killed $r5
                                        @ kill: def $r7 killed $r6
	strh.w	r6, [sp, #18]
	strh.w	r5, [sp, #16]
	strh.w	r4, [sp, #14]
	strh.w	lr, [sp, #12]
	strh.w	r12, [sp, #10]
	strh.w	r3, [sp, #8]
	strh.w	r2, [sp, #6]
	strh.w	r1, [sp, #4]
	strh.w	r0, [sp, #2]
.Ltmp94:
	.loc	3 295 1 prologue_end            @ applications/TOUCH/touch_driver.c:295:1
	add	sp, #20
	pop	{r4, r5, r6, r7, pc}
.Ltmp95:
.Lfunc_end12:
	.size	TP_Adj_Info_Show, .Lfunc_end12-TP_Adj_Info_Show
	.cfi_endproc
	.cantunwind
	.fnend
                                        @ -- End function
	.hidden	tp_dev                          @ @tp_dev
	.type	tp_dev,%object
	.section	.data.tp_dev,"aw",%progbits
	.globl	tp_dev
	.p2align	2
tp_dev:
	.long	TP_Init
	.long	TP_Scan
	.long	TP_Adjust
	.zero	20
	.zero	20
	.short	0                               @ 0x0
	.zero	2
	.long	0x00000000                      @ float 0
	.long	0x00000000                      @ float 0
	.short	0                               @ 0x0
	.short	0                               @ 0x0
	.byte	0                               @ 0x0
	.zero	3
	.size	tp_dev, 72

	.hidden	CMD_RDX                         @ @CMD_RDX
	.type	CMD_RDX,%object
	.section	.data.CMD_RDX,"aw",%progbits
	.globl	CMD_RDX
CMD_RDX:
	.byte	144                             @ 0x90
	.size	CMD_RDX, 1

	.hidden	CMD_RDY                         @ @CMD_RDY
	.type	CMD_RDY,%object
	.section	.data.CMD_RDY,"aw",%progbits
	.globl	CMD_RDY
CMD_RDY:
	.byte	208                             @ 0xd0
	.size	CMD_RDY, 1

	.type	.L.str,%object                  @ @.str
	.section	.rodata.str1.1,"aMS",%progbits,1
.L.str:
	.asciz	"Please use the stylus click the cross on the screen.The cross will always move until the screen adjustment is completed."
	.size	.L.str, 121

	.hidden	TP_REMIND_MSG_TBL               @ @TP_REMIND_MSG_TBL
	.type	TP_REMIND_MSG_TBL,%object
	.section	.rodata.TP_REMIND_MSG_TBL,"a",%progbits
	.globl	TP_REMIND_MSG_TBL
	.p2align	2
TP_REMIND_MSG_TBL:
	.long	.L.str
	.size	TP_REMIND_MSG_TBL, 4

	.section	".note.GNU-stack","",%progbits
	.eabi_attribute	30, 6	@ Tag_ABI_optimization_goals
	.ARM_attribute	16, 1	@ Tag_AV_eba