	.text
	.syntax unified
	.eabi_attribute	67, "2.09"	@ Tag_conformance
	.cpu	cortex-m7
	.eabi_attribute	6, 13	@ Tag_CPU_arch
	.eabi_attribute	7, 77	@ Tag_CPU_arch_profile
	.eabi_attribute	8, 0	@ Tag_ARM_ISA_use
	.eabi_attribute	9, 2	@ Tag_THUMB_ISA_use
	.fpu	fpv5-d16
	.eabi_attribute	36, 1	@ Tag_FP_HP_extension
	.eabi_attribute	34, 1	@ Tag_CPU_unaligned_access
	.eabi_attribute	17, 1	@ Tag_ABI_PCS_GOT_use
	.eabi_attribute	20, 2	@ Tag_ABI_FP_denormal
	.eabi_attribute	21, 0	@ Tag_ABI_FP_exceptions
	.eabi_attribute	23, 1	@ Tag_ABI_FP_number_model
	.eabi_attribute	24, 1	@ Tag_ABI_align_needed
	.eabi_attribute	25, 1	@ Tag_ABI_align_preserved
	.eabi_attribute	28, 1	@ Tag_ABI_VFP_args
	.eabi_attribute	38, 1	@ Tag_ABI_FP_16bit_format
	.eabi_attribute	18, 2	@ Tag_ABI_PCS_wchar_t
	.eabi_attribute	26, 1	@ Tag_ABI_enum_size
	.eabi_attribute	14, 0	@ Tag_ABI_PCS_R9_use
	.file	"udp.c"
	.file	1 "D:\\Keil_v5\\ARM\\ARMCLANG\\Bin\\..\\include" "stdint.h"
	.file	2 "E:\\STM32\\Learning\\STM32H750_ART_PI_RGBLCD" "./rt-thread/components/net/lwip-2.0.2/src/include\\lwip/arch.h"
	.file	3 "E:\\STM32\\Learning\\STM32H750_ART_PI_RGBLCD" "./rt-thread/components/net/lwip-2.0.2/src/include\\lwip/ip4_addr.h"
	.file	4 "E:\\STM32\\Learning\\STM32H750_ART_PI_RGBLCD" "./rt-thread/components/net/lwip-2.0.2/src/include\\lwip/ip_addr.h"
	.file	5 "E:\\STM32\\Learning\\STM32H750_ART_PI_RGBLCD" "./rt-thread/components/net/lwip-2.0.2/src/include\\lwip/udp.h"
	.file	6 "E:\\STM32\\Learning\\STM32H750_ART_PI_RGBLCD" "./rt-thread/components/net/lwip-2.0.2/src/include\\lwip/pbuf.h"
	.file	7 "E:\\STM32\\Learning\\STM32H750_ART_PI_RGBLCD" "rt-thread/components/net/lwip-2.0.2/src/core/udp.c"
	.file	8 "E:\\STM32\\Learning\\STM32H750_ART_PI_RGBLCD" "./rt-thread/components/net/lwip-2.0.2/src/include\\lwip/netif.h"
	.file	9 "E:\\STM32\\Learning\\STM32H750_ART_PI_RGBLCD" "./rt-thread/components/net/lwip-2.0.2/src/include\\lwip/icmp.h"
	.file	10 "E:\\STM32\\Learning\\STM32H750_ART_PI_RGBLCD" "./rt-thread/components/net/lwip-2.0.2/src/include\\lwip/err.h"
	.file	11 "E:\\STM32\\Learning\\STM32H750_ART_PI_RGBLCD" "./rt-thread/components/net/lwip-2.0.2/src/include\\lwip/memp.h"
	.file	12 "E:\\STM32\\Learning\\STM32H750_ART_PI_RGBLCD" "./rt-thread/components/net/lwip-2.0.2/src/include\\lwip/prot/udp.h"
	.section	.text.udp_init,"ax",%progbits
	.hidden	udp_init                        @ -- Begin function udp_init
	.globl	udp_init
	.p2align	3
	.type	udp_init,%function
	.code	16                              @ @udp_init
	.thumb_func
udp_init:
.Lfunc_begin0:
	.loc	7 88 0                          @ rt-thread/components/net/lwip-2.0.2/src/core/udp.c:88:0
	.fnstart
	.cfi_sections .debug_frame
	.cfi_startproc
@ %bb.0:
	.loc	7 92 1 prologue_end             @ rt-thread/components/net/lwip-2.0.2/src/core/udp.c:92:1
	bx	lr
.Ltmp0:
.Lfunc_end0:
	.size	udp_init, .Lfunc_end0-udp_init
	.cfi_endproc
	.cantunwind
	.fnend
                                        @ -- End function
	.section	.text.udp_input,"ax",%progbits
	.hidden	udp_input                       @ -- Begin function udp_input
	.globl	udp_input
	.p2align	3
	.type	udp_input,%function
	.code	16                              @ @udp_input
	.thumb_func
udp_input:
.Lfunc_begin1:
	.loc	7 186 0                         @ rt-thread/components/net/lwip-2.0.2/src/core/udp.c:186:0
	.fnstart
	.cfi_startproc
@ %bb.0:
	.save	{r7, lr}
	push	{r7, lr}
	.cfi_def_cfa_offset 8
	.cfi_offset lr, -4
	.cfi_offset r7, -8
	.pad	#40
	sub	sp, #40
	.cfi_def_cfa_offset 48
	str	r0, [sp, #36]
	str	r1, [sp, #32]
	movs	r0, #0
.Ltmp1:
	.loc	7 192 8 prologue_end            @ rt-thread/components/net/lwip-2.0.2/src/core/udp.c:192:8
	strb.w	r0, [sp, #10]
.Ltmp2:
	.loc	7 201 7                         @ rt-thread/components/net/lwip-2.0.2/src/core/udp.c:201:7
	ldr	r0, [sp, #36]
	.loc	7 201 10 is_stmt 0              @ rt-thread/components/net/lwip-2.0.2/src/core/udp.c:201:10
	ldrh	r0, [r0, #10]
.Ltmp3:
	.loc	7 201 7                         @ rt-thread/components/net/lwip-2.0.2/src/core/udp.c:201:7
	cmp	r0, #7
	bgt	.LBB1_2
	b	.LBB1_1
.LBB1_1:
.Ltmp4:
	.loc	7 208 15 is_stmt 1              @ rt-thread/components/net/lwip-2.0.2/src/core/udp.c:208:15
	ldr	r0, [sp, #36]
	.loc	7 208 5 is_stmt 0               @ rt-thread/components/net/lwip-2.0.2/src/core/udp.c:208:5
	bl	pbuf_free
	.loc	7 209 5 is_stmt 1               @ rt-thread/components/net/lwip-2.0.2/src/core/udp.c:209:5
	b	.LBB1_49
.Ltmp5:
.LBB1_2:
	.loc	7 212 30                        @ rt-thread/components/net/lwip-2.0.2/src/core/udp.c:212:30
	ldr	r0, [sp, #36]
	.loc	7 212 33 is_stmt 0              @ rt-thread/components/net/lwip-2.0.2/src/core/udp.c:212:33
	ldr	r0, [r0, #4]
	.loc	7 212 10                        @ rt-thread/components/net/lwip-2.0.2/src/core/udp.c:212:10
	str	r0, [sp, #28]
	.loc	7 215 15 is_stmt 1              @ rt-thread/components/net/lwip-2.0.2/src/core/udp.c:215:15
	movw	r0, :lower16:ip_data
	movt	r0, :upper16:ip_data
	ldr	r1, [r0]
	ldr	r0, [r0, #20]
	bl	ip4_addr_isbroadcast_u32
	.loc	7 215 13 is_stmt 0              @ rt-thread/components/net/lwip-2.0.2/src/core/udp.c:215:13
	strb.w	r0, [sp, #11]
	.loc	7 220 9 is_stmt 1               @ rt-thread/components/net/lwip-2.0.2/src/core/udp.c:220:9
	ldr	r0, [sp, #28]
	ldrh	r0, [r0]
	bl	lwip_htons
	.loc	7 220 7 is_stmt 0               @ rt-thread/components/net/lwip-2.0.2/src/core/udp.c:220:7
	strh.w	r0, [sp, #14]
	.loc	7 221 10 is_stmt 1              @ rt-thread/components/net/lwip-2.0.2/src/core/udp.c:221:10
	ldr	r0, [sp, #28]
	ldrh	r0, [r0, #2]
	bl	lwip_htons
	.loc	7 221 8 is_stmt 0               @ rt-thread/components/net/lwip-2.0.2/src/core/udp.c:221:8
	strh.w	r0, [sp, #12]
	movs	r0, #0
	.loc	7 232 7 is_stmt 1               @ rt-thread/components/net/lwip-2.0.2/src/core/udp.c:232:7
	str	r0, [sp, #24]
	.loc	7 233 8                         @ rt-thread/components/net/lwip-2.0.2/src/core/udp.c:233:8
	str	r0, [sp, #20]
	.loc	7 234 13                        @ rt-thread/components/net/lwip-2.0.2/src/core/udp.c:234:13
	str	r0, [sp, #16]
.Ltmp6:
	.loc	7 239 14                        @ rt-thread/components/net/lwip-2.0.2/src/core/udp.c:239:14
	movw	r0, :lower16:udp_pcbs
	movt	r0, :upper16:udp_pcbs
	ldr	r0, [r0]
	.loc	7 239 12 is_stmt 0              @ rt-thread/components/net/lwip-2.0.2/src/core/udp.c:239:12
	str	r0, [sp, #24]
	.loc	7 239 8                         @ rt-thread/components/net/lwip-2.0.2/src/core/udp.c:239:8
	b	.LBB1_3
.LBB1_3:                                @ =>This Inner Loop Header: Depth=1
.Ltmp7:
	.loc	7 239 24                        @ rt-thread/components/net/lwip-2.0.2/src/core/udp.c:239:24
	ldr	r0, [sp, #24]
.Ltmp8:
	.loc	7 239 3                         @ rt-thread/components/net/lwip-2.0.2/src/core/udp.c:239:3
	cmp	r0, #0
	beq	.LBB1_21
	b	.LBB1_4
.LBB1_4:                                @   in Loop: Header=BB1_3 Depth=1
.Ltmp9:
	.loc	7 248 10 is_stmt 1              @ rt-thread/components/net/lwip-2.0.2/src/core/udp.c:248:10
	ldr	r0, [sp, #24]
	.loc	7 248 15 is_stmt 0              @ rt-thread/components/net/lwip-2.0.2/src/core/udp.c:248:15
	ldrh	r0, [r0, #18]
	.loc	7 248 29                        @ rt-thread/components/net/lwip-2.0.2/src/core/udp.c:248:29
	ldrh.w	r1, [sp, #12]
	.loc	7 248 35                        @ rt-thread/components/net/lwip-2.0.2/src/core/udp.c:248:35
	cmp	r0, r1
	bne	.LBB1_19
	b	.LBB1_5
.LBB1_5:                                @   in Loop: Header=BB1_3 Depth=1
	.loc	7 249 32 is_stmt 1              @ rt-thread/components/net/lwip-2.0.2/src/core/udp.c:249:32
	ldr	r0, [sp, #24]
	.loc	7 249 37 is_stmt 0              @ rt-thread/components/net/lwip-2.0.2/src/core/udp.c:249:37
	ldr	r1, [sp, #32]
	.loc	7 249 42                        @ rt-thread/components/net/lwip-2.0.2/src/core/udp.c:249:42
	ldrb.w	r2, [sp, #11]
	.loc	7 249 10                        @ rt-thread/components/net/lwip-2.0.2/src/core/udp.c:249:10
	bl	udp_input_local_match
.Ltmp10:
	.loc	7 248 9 is_stmt 1               @ rt-thread/components/net/lwip-2.0.2/src/core/udp.c:248:9
	cbz	r0, .LBB1_19
	b	.LBB1_6
.LBB1_6:                                @   in Loop: Header=BB1_3 Depth=1
.Ltmp11:
	.loc	7 250 13                        @ rt-thread/components/net/lwip-2.0.2/src/core/udp.c:250:13
	ldr	r0, [sp, #24]
	ldrb	r0, [r0, #16]
	.loc	7 250 53 is_stmt 0              @ rt-thread/components/net/lwip-2.0.2/src/core/udp.c:250:53
	lsls	r0, r0, #29
	cmp	r0, #0
	bmi	.LBB1_11
	b	.LBB1_7
.LBB1_7:                                @   in Loop: Header=BB1_3 Depth=1
	.loc	7 251 13 is_stmt 1              @ rt-thread/components/net/lwip-2.0.2/src/core/udp.c:251:13
	ldr	r0, [sp, #16]
	.loc	7 254 11                        @ rt-thread/components/net/lwip-2.0.2/src/core/udp.c:254:11
	cbz	r0, .LBB1_10
	b	.LBB1_8
.LBB1_8:                                @   in Loop: Header=BB1_3 Depth=1
	.loc	7 254 15 is_stmt 0              @ rt-thread/components/net/lwip-2.0.2/src/core/udp.c:254:15
	ldr	r0, [sp, #24]
	cbz	r0, .LBB1_11
	b	.LBB1_9
.LBB1_9:                                @   in Loop: Header=BB1_3 Depth=1
	ldr	r0, [sp, #24]
	ldr	r0, [r0]
.Ltmp12:
	.loc	7 250 11 is_stmt 1              @ rt-thread/components/net/lwip-2.0.2/src/core/udp.c:250:11
	cbz	r0, .LBB1_11
	b	.LBB1_10
.LBB1_10:                               @   in Loop: Header=BB1_3 Depth=1
.Ltmp13:
	.loc	7 258 21                        @ rt-thread/components/net/lwip-2.0.2/src/core/udp.c:258:21
	ldr	r0, [sp, #24]
	.loc	7 258 19 is_stmt 0              @ rt-thread/components/net/lwip-2.0.2/src/core/udp.c:258:19
	str	r0, [sp, #16]
	.loc	7 259 7 is_stmt 1               @ rt-thread/components/net/lwip-2.0.2/src/core/udp.c:259:7
	b	.LBB1_11
.Ltmp14:
.LBB1_11:                               @   in Loop: Header=BB1_3 Depth=1
	.loc	7 262 12                        @ rt-thread/components/net/lwip-2.0.2/src/core/udp.c:262:12
	ldr	r0, [sp, #24]
	.loc	7 262 17 is_stmt 0              @ rt-thread/components/net/lwip-2.0.2/src/core/udp.c:262:17
	ldrh	r0, [r0, #20]
	.loc	7 262 32                        @ rt-thread/components/net/lwip-2.0.2/src/core/udp.c:262:32
	ldrh.w	r1, [sp, #14]
	.loc	7 262 37                        @ rt-thread/components/net/lwip-2.0.2/src/core/udp.c:262:37
	cmp	r0, r1
	bne	.LBB1_18
	b	.LBB1_12
.LBB1_12:                               @   in Loop: Header=BB1_3 Depth=1
	.loc	7 263 12 is_stmt 1              @ rt-thread/components/net/lwip-2.0.2/src/core/udp.c:263:12
	ldr	r0, [sp, #24]
	ldr	r0, [r0, #4]
	.loc	7 263 46 is_stmt 0              @ rt-thread/components/net/lwip-2.0.2/src/core/udp.c:263:46
	cbz	r0, .LBB1_14
	b	.LBB1_13
.LBB1_13:                               @   in Loop: Header=BB1_3 Depth=1
	.loc	7 264 11 is_stmt 1              @ rt-thread/components/net/lwip-2.0.2/src/core/udp.c:264:11
	ldr	r0, [sp, #24]
	ldr	r0, [r0, #4]
	movw	r1, :lower16:ip_data
	movt	r1, :upper16:ip_data
	ldr	r1, [r1, #16]
.Ltmp15:
	.loc	7 262 11                        @ rt-thread/components/net/lwip-2.0.2/src/core/udp.c:262:11
	cmp	r0, r1
	bne	.LBB1_18
	b	.LBB1_14
.LBB1_14:
.Ltmp16:
	.loc	7 266 13                        @ rt-thread/components/net/lwip-2.0.2/src/core/udp.c:266:13
	ldr	r0, [sp, #20]
.Ltmp17:
	.loc	7 266 13 is_stmt 0              @ rt-thread/components/net/lwip-2.0.2/src/core/udp.c:266:13
	cbz	r0, .LBB1_16
	b	.LBB1_15
.LBB1_15:
.Ltmp18:
	.loc	7 269 24 is_stmt 1              @ rt-thread/components/net/lwip-2.0.2/src/core/udp.c:269:24
	ldr	r0, [sp, #24]
	.loc	7 269 29 is_stmt 0              @ rt-thread/components/net/lwip-2.0.2/src/core/udp.c:269:29
	ldr	r0, [r0, #12]
	.loc	7 269 11                        @ rt-thread/components/net/lwip-2.0.2/src/core/udp.c:269:11
	ldr	r1, [sp, #20]
	.loc	7 269 22                        @ rt-thread/components/net/lwip-2.0.2/src/core/udp.c:269:22
	str	r0, [r1, #12]
	.loc	7 270 23 is_stmt 1              @ rt-thread/components/net/lwip-2.0.2/src/core/udp.c:270:23
	movw	r1, :lower16:udp_pcbs
	movt	r1, :upper16:udp_pcbs
	ldr	r0, [r1]
	.loc	7 270 11 is_stmt 0              @ rt-thread/components/net/lwip-2.0.2/src/core/udp.c:270:11
	ldr	r2, [sp, #24]
	.loc	7 270 21                        @ rt-thread/components/net/lwip-2.0.2/src/core/udp.c:270:21
	str	r0, [r2, #12]
	.loc	7 271 22 is_stmt 1              @ rt-thread/components/net/lwip-2.0.2/src/core/udp.c:271:22
	ldr	r0, [sp, #24]
	.loc	7 271 20 is_stmt 0              @ rt-thread/components/net/lwip-2.0.2/src/core/udp.c:271:20
	str	r0, [r1]
	.loc	7 272 9 is_stmt 1               @ rt-thread/components/net/lwip-2.0.2/src/core/udp.c:272:9
	b	.LBB1_17
.Ltmp19:
.LBB1_16:
	.loc	7 0 9 is_stmt 0                 @ rt-thread/components/net/lwip-2.0.2/src/core/udp.c:0:9
	b	.LBB1_17
.LBB1_17:
	.loc	7 275 9 is_stmt 1               @ rt-thread/components/net/lwip-2.0.2/src/core/udp.c:275:9
	b	.LBB1_21
.Ltmp20:
.LBB1_18:                               @   in Loop: Header=BB1_3 Depth=1
	.loc	7 277 5                         @ rt-thread/components/net/lwip-2.0.2/src/core/udp.c:277:5
	b	.LBB1_19
.Ltmp21:
.LBB1_19:                               @   in Loop: Header=BB1_3 Depth=1
	.loc	7 279 12                        @ rt-thread/components/net/lwip-2.0.2/src/core/udp.c:279:12
	ldr	r0, [sp, #24]
	.loc	7 279 10 is_stmt 0              @ rt-thread/components/net/lwip-2.0.2/src/core/udp.c:279:10
	str	r0, [sp, #20]
	.loc	7 280 3 is_stmt 1               @ rt-thread/components/net/lwip-2.0.2/src/core/udp.c:280:3
	b	.LBB1_20
.Ltmp22:
.LBB1_20:                               @   in Loop: Header=BB1_3 Depth=1
	.loc	7 239 43                        @ rt-thread/components/net/lwip-2.0.2/src/core/udp.c:239:43
	ldr	r0, [sp, #24]
	.loc	7 239 48 is_stmt 0              @ rt-thread/components/net/lwip-2.0.2/src/core/udp.c:239:48
	ldr	r0, [r0, #12]
	.loc	7 239 41                        @ rt-thread/components/net/lwip-2.0.2/src/core/udp.c:239:41
	str	r0, [sp, #24]
	.loc	7 239 3                         @ rt-thread/components/net/lwip-2.0.2/src/core/udp.c:239:3
	b	.LBB1_3
.Ltmp23:
.LBB1_21:
	.loc	7 282 7 is_stmt 1               @ rt-thread/components/net/lwip-2.0.2/src/core/udp.c:282:7
	ldr	r0, [sp, #24]
.Ltmp24:
	.loc	7 282 7 is_stmt 0               @ rt-thread/components/net/lwip-2.0.2/src/core/udp.c:282:7
	cbnz	r0, .LBB1_23
	b	.LBB1_22
.LBB1_22:
.Ltmp25:
	.loc	7 283 11 is_stmt 1              @ rt-thread/components/net/lwip-2.0.2/src/core/udp.c:283:11
	ldr	r0, [sp, #16]
	.loc	7 283 9 is_stmt 0               @ rt-thread/components/net/lwip-2.0.2/src/core/udp.c:283:9
	str	r0, [sp, #24]
	.loc	7 284 3 is_stmt 1               @ rt-thread/components/net/lwip-2.0.2/src/core/udp.c:284:3
	b	.LBB1_23
.Ltmp26:
.LBB1_23:
	.loc	7 287 7                         @ rt-thread/components/net/lwip-2.0.2/src/core/udp.c:287:7
	ldr	r0, [sp, #24]
.Ltmp27:
	.loc	7 287 7 is_stmt 0               @ rt-thread/components/net/lwip-2.0.2/src/core/udp.c:287:7
	cbz	r0, .LBB1_25
	b	.LBB1_24
.LBB1_24:
	.loc	7 0 7                           @ rt-thread/components/net/lwip-2.0.2/src/core/udp.c:0:7
	movs	r0, #1
.Ltmp28:
	.loc	7 288 12 is_stmt 1              @ rt-thread/components/net/lwip-2.0.2/src/core/udp.c:288:12
	strb.w	r0, [sp, #10]
	.loc	7 289 3                         @ rt-thread/components/net/lwip-2.0.2/src/core/udp.c:289:3
	b	.LBB1_26
.Ltmp29:
.LBB1_25:
	.loc	7 297 16                        @ rt-thread/components/net/lwip-2.0.2/src/core/udp.c:297:16
	ldr	r0, [sp, #32]
	ldr	r0, [r0, #4]
	movw	r1, :lower16:ip_data
	movt	r1, :upper16:ip_data
	ldr	r1, [r1, #20]
	subs	r0, r0, r1
	clz	r0, r0
	lsrs	r0, r0, #5
	.loc	7 297 14 is_stmt 0              @ rt-thread/components/net/lwip-2.0.2/src/core/udp.c:297:14
	strb.w	r0, [sp, #10]
	b	.LBB1_26
.Ltmp30:
.LBB1_26:
	.loc	7 302 7 is_stmt 1               @ rt-thread/components/net/lwip-2.0.2/src/core/udp.c:302:7
	ldrb.w	r0, [sp, #10]
.Ltmp31:
	.loc	7 302 7 is_stmt 0               @ rt-thread/components/net/lwip-2.0.2/src/core/udp.c:302:7
	cmp	r0, #0
	beq	.LBB1_47
	b	.LBB1_27
.LBB1_27:
.Ltmp32:
	.loc	7 329 13 is_stmt 1              @ rt-thread/components/net/lwip-2.0.2/src/core/udp.c:329:13
	ldr	r0, [sp, #28]
	.loc	7 329 21 is_stmt 0              @ rt-thread/components/net/lwip-2.0.2/src/core/udp.c:329:21
	ldrh	r0, [r0, #6]
.Ltmp33:
	.loc	7 329 13                        @ rt-thread/components/net/lwip-2.0.2/src/core/udp.c:329:13
	cbz	r0, .LBB1_31
	b	.LBB1_28
.LBB1_28:
.Ltmp34:
	.loc	7 330 32 is_stmt 1              @ rt-thread/components/net/lwip-2.0.2/src/core/udp.c:330:32
	ldr	r0, [sp, #36]
	.loc	7 330 52 is_stmt 0              @ rt-thread/components/net/lwip-2.0.2/src/core/udp.c:330:52
	ldrh	r2, [r0, #8]
	.loc	7 330 15                        @ rt-thread/components/net/lwip-2.0.2/src/core/udp.c:330:15
	movw	r1, :lower16:ip_data
	movt	r1, :upper16:ip_data
	add.w	r3, r1, #20
	mov	r12, sp
	str.w	r3, [r12]
	add.w	r3, r1, #16
	movs	r1, #17
	bl	ip_chksum_pseudo
.Ltmp35:
	.loc	7 330 15                        @ rt-thread/components/net/lwip-2.0.2/src/core/udp.c:330:15
	cbz	r0, .LBB1_30
	b	.LBB1_29
.LBB1_29:
.Ltmp36:
	.loc	7 333 13 is_stmt 1              @ rt-thread/components/net/lwip-2.0.2/src/core/udp.c:333:13
	b	.LBB1_50
.Ltmp37:
.LBB1_30:
	.loc	7 335 9                         @ rt-thread/components/net/lwip-2.0.2/src/core/udp.c:335:9
	b	.LBB1_31
.Ltmp38:
.LBB1_31:
	.loc	7 339 21                        @ rt-thread/components/net/lwip-2.0.2/src/core/udp.c:339:21
	ldr	r0, [sp, #36]
	mvn	r1, #7
	.loc	7 339 9 is_stmt 0               @ rt-thread/components/net/lwip-2.0.2/src/core/udp.c:339:9
	bl	pbuf_header
.Ltmp39:
	.loc	7 339 9                         @ rt-thread/components/net/lwip-2.0.2/src/core/udp.c:339:9
	cbz	r0, .LBB1_37
	b	.LBB1_32
.LBB1_32:
.Ltmp40:
	.loc	7 341 7 is_stmt 1               @ rt-thread/components/net/lwip-2.0.2/src/core/udp.c:341:7
	b	.LBB1_33
.LBB1_33:
.Ltmp41:
	.loc	7 341 7 is_stmt 0               @ rt-thread/components/net/lwip-2.0.2/src/core/udp.c:341:7
	b	.LBB1_34
.LBB1_34:
.Ltmp42:
	.loc	7 341 7                         @ rt-thread/components/net/lwip-2.0.2/src/core/udp.c:341:7
	movw	r0, :lower16:.L.str
	movt	r0, :upper16:.L.str
	bl	rt_kprintf
	movw	r0, :lower16:.L.str.1
	movt	r0, :upper16:.L.str.1
	movw	r1, #341
	bl	sys_arch_assert
	b	.LBB1_35
.Ltmp43:
.LBB1_35:
	.loc	7 341 7                         @ rt-thread/components/net/lwip-2.0.2/src/core/udp.c:341:7
	b	.LBB1_36
.Ltmp44:
.LBB1_36:
	.loc	7 344 17 is_stmt 1              @ rt-thread/components/net/lwip-2.0.2/src/core/udp.c:344:17
	ldr	r0, [sp, #36]
	.loc	7 344 7 is_stmt 0               @ rt-thread/components/net/lwip-2.0.2/src/core/udp.c:344:7
	bl	pbuf_free
	.loc	7 345 7 is_stmt 1               @ rt-thread/components/net/lwip-2.0.2/src/core/udp.c:345:7
	b	.LBB1_49
.Ltmp45:
.LBB1_37:
	.loc	7 348 9                         @ rt-thread/components/net/lwip-2.0.2/src/core/udp.c:348:9
	ldr	r0, [sp, #24]
.Ltmp46:
	.loc	7 348 9 is_stmt 0               @ rt-thread/components/net/lwip-2.0.2/src/core/udp.c:348:9
	cbz	r0, .LBB1_42
	b	.LBB1_38
.LBB1_38:
.Ltmp47:
	.loc	7 391 11 is_stmt 1              @ rt-thread/components/net/lwip-2.0.2/src/core/udp.c:391:11
	ldr	r0, [sp, #24]
	.loc	7 391 16 is_stmt 0              @ rt-thread/components/net/lwip-2.0.2/src/core/udp.c:391:16
	ldr	r0, [r0, #32]
.Ltmp48:
	.loc	7 391 11                        @ rt-thread/components/net/lwip-2.0.2/src/core/udp.c:391:11
	cbz	r0, .LBB1_40
	b	.LBB1_39
.LBB1_39:
.Ltmp49:
	.loc	7 393 9 is_stmt 1               @ rt-thread/components/net/lwip-2.0.2/src/core/udp.c:393:9
	ldr	r1, [sp, #24]
	.loc	7 393 14 is_stmt 0              @ rt-thread/components/net/lwip-2.0.2/src/core/udp.c:393:14
	ldr.w	r12, [r1, #32]
	.loc	7 393 24                        @ rt-thread/components/net/lwip-2.0.2/src/core/udp.c:393:24
	ldr	r0, [r1, #36]
	.loc	7 393 39                        @ rt-thread/components/net/lwip-2.0.2/src/core/udp.c:393:39
	ldr	r2, [sp, #36]
	.loc	7 393 65                        @ rt-thread/components/net/lwip-2.0.2/src/core/udp.c:393:65
	ldrh.w	r3, [sp, #14]
	.loc	7 393 9                         @ rt-thread/components/net/lwip-2.0.2/src/core/udp.c:393:9
	mov	lr, sp
	str.w	r3, [lr]
	movw	r3, :lower16:ip_data
	movt	r3, :upper16:ip_data
	adds	r3, #16
	blx	r12
	.loc	7 394 7 is_stmt 1               @ rt-thread/components/net/lwip-2.0.2/src/core/udp.c:394:7
	b	.LBB1_41
.Ltmp50:
.LBB1_40:
	.loc	7 396 19                        @ rt-thread/components/net/lwip-2.0.2/src/core/udp.c:396:19
	ldr	r0, [sp, #36]
	.loc	7 396 9 is_stmt 0               @ rt-thread/components/net/lwip-2.0.2/src/core/udp.c:396:9
	bl	pbuf_free
	.loc	7 397 9 is_stmt 1               @ rt-thread/components/net/lwip-2.0.2/src/core/udp.c:397:9
	b	.LBB1_49
.Ltmp51:
.LBB1_41:
	.loc	7 399 5                         @ rt-thread/components/net/lwip-2.0.2/src/core/udp.c:399:5
	b	.LBB1_46
.Ltmp52:
.LBB1_42:
	.loc	7 405 12                        @ rt-thread/components/net/lwip-2.0.2/src/core/udp.c:405:12
	ldrb.w	r0, [sp, #11]
	.loc	7 405 22 is_stmt 0              @ rt-thread/components/net/lwip-2.0.2/src/core/udp.c:405:22
	cbnz	r0, .LBB1_45
	b	.LBB1_43
.LBB1_43:
	.loc	7 405 26                        @ rt-thread/components/net/lwip-2.0.2/src/core/udp.c:405:26
	movw	r0, :lower16:ip_data
	movt	r0, :upper16:ip_data
	ldr	r0, [r0, #20]
	and	r0, r0, #240
.Ltmp53:
	.loc	7 405 11                        @ rt-thread/components/net/lwip-2.0.2/src/core/udp.c:405:11
	cmp	r0, #224
	beq	.LBB1_45
	b	.LBB1_44
.LBB1_44:
.Ltmp54:
	.loc	7 407 27 is_stmt 1              @ rt-thread/components/net/lwip-2.0.2/src/core/udp.c:407:27
	ldr	r0, [sp, #36]
	.loc	7 407 38 is_stmt 0              @ rt-thread/components/net/lwip-2.0.2/src/core/udp.c:407:38
	movw	r1, :lower16:ip_data
	movt	r1, :upper16:ip_data
	ldrh	r1, [r1, #12]
	.loc	7 407 66                        @ rt-thread/components/net/lwip-2.0.2/src/core/udp.c:407:66
	adds	r1, #8
	.loc	7 407 9                         @ rt-thread/components/net/lwip-2.0.2/src/core/udp.c:407:9
	sxth	r1, r1
	bl	pbuf_header_force
	.loc	7 408 9 is_stmt 1               @ rt-thread/components/net/lwip-2.0.2/src/core/udp.c:408:9
	ldr	r0, [sp, #36]
	movs	r1, #3
	bl	icmp_dest_unreach
	.loc	7 409 7                         @ rt-thread/components/net/lwip-2.0.2/src/core/udp.c:409:7
	b	.LBB1_45
.Ltmp55:
.LBB1_45:
	.loc	7 414 17                        @ rt-thread/components/net/lwip-2.0.2/src/core/udp.c:414:17
	ldr	r0, [sp, #36]
	.loc	7 414 7 is_stmt 0               @ rt-thread/components/net/lwip-2.0.2/src/core/udp.c:414:7
	bl	pbuf_free
	b	.LBB1_46
.Ltmp56:
.LBB1_46:
	.loc	7 416 3 is_stmt 1               @ rt-thread/components/net/lwip-2.0.2/src/core/udp.c:416:3
	b	.LBB1_48
.Ltmp57:
.LBB1_47:
	.loc	7 417 15                        @ rt-thread/components/net/lwip-2.0.2/src/core/udp.c:417:15
	ldr	r0, [sp, #36]
	.loc	7 417 5 is_stmt 0               @ rt-thread/components/net/lwip-2.0.2/src/core/udp.c:417:5
	bl	pbuf_free
	b	.LBB1_48
.Ltmp58:
.LBB1_48:
	.loc	7 302 7 is_stmt 1               @ rt-thread/components/net/lwip-2.0.2/src/core/udp.c:302:7
	b	.LBB1_49
.Ltmp59:
.LBB1_49:
	@DEBUG_LABEL: udp_input:end
	.loc	7 421 3                         @ rt-thread/components/net/lwip-2.0.2/src/core/udp.c:421:3
	b	.LBB1_51
.LBB1_50:
.Ltmp60:
	@DEBUG_LABEL: udp_input:chkerr
	.loc	7 429 13                        @ rt-thread/components/net/lwip-2.0.2/src/core/udp.c:429:13
	ldr	r0, [sp, #36]
	.loc	7 429 3 is_stmt 0               @ rt-thread/components/net/lwip-2.0.2/src/core/udp.c:429:3
	bl	pbuf_free
	.loc	7 432 1 is_stmt 1               @ rt-thread/components/net/lwip-2.0.2/src/core/udp.c:432:1
	b	.LBB1_51
.LBB1_51:
	add	sp, #40
	pop	{r7, pc}
.Ltmp61:
.Lfunc_end1:
	.size	udp_input, .Lfunc_end1-udp_input
	.cfi_endproc
	.cantunwind
	.fnend
                                        @ -- End function
	.section	.text.udp_input_local_match,"ax",%progbits
	.p2align	3                               @ -- Begin function udp_input_local_match
	.type	udp_input_local_match,%function
	.code	16                              @ @udp_input_local_match
	.thumb_func
udp_input_local_match:
.Lfunc_begin2:
	.loc	7 131 0                         @ rt-thread/components/net/lwip-2.0.2/src/core/udp.c:131:0
	.fnstart
	.cfi_startproc
@ %bb.0:
	.pad	#16
	sub	sp, #16
	.cfi_def_cfa_offset 16
                                        @ kill: def $r3 killed $r2
	str	r0, [sp, #8]
	str	r1, [sp, #4]
	strb.w	r2, [sp, #3]
.Ltmp62:
	.loc	7 133 3 prologue_end            @ rt-thread/components/net/lwip-2.0.2/src/core/udp.c:133:3
	ldrb.w	r0, [sp, #3]
.Ltmp63:
	.loc	7 150 9                         @ rt-thread/components/net/lwip-2.0.2/src/core/udp.c:150:9
	cbz	r0, .LBB2_9
	b	.LBB2_1
.LBB2_1:
.Ltmp64:
	.loc	7 152 11                        @ rt-thread/components/net/lwip-2.0.2/src/core/udp.c:152:11
	ldr	r0, [sp, #8]
	ldrb	r0, [r0, #8]
.Ltmp65:
	.loc	7 152 11 is_stmt 0              @ rt-thread/components/net/lwip-2.0.2/src/core/udp.c:152:11
	lsls	r0, r0, #26
	cmp	r0, #0
	bpl	.LBB2_8
	b	.LBB2_2
.LBB2_2:
.Ltmp66:
	.loc	7 155 13 is_stmt 1              @ rt-thread/components/net/lwip-2.0.2/src/core/udp.c:155:13
	ldr	r0, [sp, #8]
	cbz	r0, .LBB2_6
	b	.LBB2_3
.LBB2_3:
	ldr	r0, [sp, #8]
	ldr	r0, [r0]
	.loc	7 155 54 is_stmt 0              @ rt-thread/components/net/lwip-2.0.2/src/core/udp.c:155:54
	cbz	r0, .LBB2_6
	b	.LBB2_4
.LBB2_4:
	.loc	7 156 38 is_stmt 1              @ rt-thread/components/net/lwip-2.0.2/src/core/udp.c:156:38
	movw	r0, :lower16:ip_data
	movt	r0, :upper16:ip_data
	ldr	r0, [r0, #20]
	.loc	7 156 65 is_stmt 0              @ rt-thread/components/net/lwip-2.0.2/src/core/udp.c:156:65
	adds	r0, #1
	cbz	r0, .LBB2_6
	b	.LBB2_5
.LBB2_5:
	.loc	7 157 12 is_stmt 1              @ rt-thread/components/net/lwip-2.0.2/src/core/udp.c:157:12
	ldr	r0, [sp, #8]
	ldr	r0, [r0]
	ldr	r1, [sp, #4]
	ldr	r2, [r1, #8]
	ands	r0, r2
	movw	r1, :lower16:ip_data
	movt	r1, :upper16:ip_data
	ldr	r1, [r1, #20]
	ands	r1, r2
.Ltmp67:
	.loc	7 155 13                        @ rt-thread/components/net/lwip-2.0.2/src/core/udp.c:155:13
	cmp	r0, r1
	bne	.LBB2_7
	b	.LBB2_6
.LBB2_6:
	.loc	7 0 13 is_stmt 0                @ rt-thread/components/net/lwip-2.0.2/src/core/udp.c:0:13
	movs	r0, #1
.Ltmp68:
	.loc	7 158 11 is_stmt 1              @ rt-thread/components/net/lwip-2.0.2/src/core/udp.c:158:11
	strb.w	r0, [sp, #15]
	b	.LBB2_15
.Ltmp69:
.LBB2_7:
	.loc	7 160 7                         @ rt-thread/components/net/lwip-2.0.2/src/core/udp.c:160:7
	b	.LBB2_8
.Ltmp70:
.LBB2_8:
	.loc	7 161 5                         @ rt-thread/components/net/lwip-2.0.2/src/core/udp.c:161:5
	b	.LBB2_14
.Ltmp71:
.LBB2_9:
	.loc	7 164 9                         @ rt-thread/components/net/lwip-2.0.2/src/core/udp.c:164:9
	ldr	r0, [sp, #8]
	cbz	r0, .LBB2_12
	b	.LBB2_10
.LBB2_10:
	ldr	r0, [sp, #8]
	ldr	r0, [r0]
	.loc	7 164 39 is_stmt 0              @ rt-thread/components/net/lwip-2.0.2/src/core/udp.c:164:39
	cbz	r0, .LBB2_12
	b	.LBB2_11
.LBB2_11:
	.loc	7 164 42                        @ rt-thread/components/net/lwip-2.0.2/src/core/udp.c:164:42
	ldr	r0, [sp, #8]
	ldr	r0, [r0]
	movw	r1, :lower16:ip_data
	movt	r1, :upper16:ip_data
	ldr	r1, [r1, #20]
.Ltmp72:
	.loc	7 164 9                         @ rt-thread/components/net/lwip-2.0.2/src/core/udp.c:164:9
	cmp	r0, r1
	bne	.LBB2_13
	b	.LBB2_12
.LBB2_12:
	.loc	7 0 9                           @ rt-thread/components/net/lwip-2.0.2/src/core/udp.c:0:9
	movs	r0, #1
.Ltmp73:
	.loc	7 165 7 is_stmt 1               @ rt-thread/components/net/lwip-2.0.2/src/core/udp.c:165:7
	strb.w	r0, [sp, #15]
	b	.LBB2_15
.Ltmp74:
.LBB2_13:
	.loc	7 0 7 is_stmt 0                 @ rt-thread/components/net/lwip-2.0.2/src/core/udp.c:0:7
	b	.LBB2_14
.LBB2_14:
	movs	r0, #0
	.loc	7 169 3 is_stmt 1               @ rt-thread/components/net/lwip-2.0.2/src/core/udp.c:169:3
	strb.w	r0, [sp, #15]
	b	.LBB2_15
.LBB2_15:
	.loc	7 170 1                         @ rt-thread/components/net/lwip-2.0.2/src/core/udp.c:170:1
	ldrb.w	r0, [sp, #15]
	add	sp, #16
	bx	lr
.Ltmp75:
.Lfunc_end2:
	.size	udp_input_local_match, .Lfunc_end2-udp_input_local_match
	.cfi_endproc
	.cantunwind
	.fnend
                                        @ -- End function
	.section	.text.udp_send,"ax",%progbits
	.hidden	udp_send                        @ -- Begin function udp_send
	.globl	udp_send
	.p2align	3
	.type	udp_send,%function
	.code	16                              @ @udp_send
	.thumb_func
udp_send:
.Lfunc_begin3:
	.loc	7 456 0                         @ rt-thread/components/net/lwip-2.0.2/src/core/udp.c:456:0
	.fnstart
	.cfi_startproc
@ %bb.0:
	.save	{r7, lr}
	push	{r7, lr}
	.cfi_def_cfa_offset 8
	.cfi_offset lr, -4
	.cfi_offset r7, -8
	.pad	#16
	sub	sp, #16
	.cfi_def_cfa_offset 24
	str	r0, [sp, #8]
	str	r1, [sp, #4]
.Ltmp76:
	.loc	7 457 8 prologue_end            @ rt-thread/components/net/lwip-2.0.2/src/core/udp.c:457:8
	ldr	r0, [sp, #8]
.Ltmp77:
	.loc	7 457 7 is_stmt 0               @ rt-thread/components/net/lwip-2.0.2/src/core/udp.c:457:7
	cbnz	r0, .LBB3_2
	b	.LBB3_1
.LBB3_1:
	.loc	7 0 7                           @ rt-thread/components/net/lwip-2.0.2/src/core/udp.c:0:7
	movs	r0, #250
.Ltmp78:
	.loc	7 458 5 is_stmt 1               @ rt-thread/components/net/lwip-2.0.2/src/core/udp.c:458:5
	strb.w	r0, [sp, #15]
	b	.LBB3_3
.Ltmp79:
.LBB3_2:
	.loc	7 462 21                        @ rt-thread/components/net/lwip-2.0.2/src/core/udp.c:462:21
	ldr	r0, [sp, #8]
	.loc	7 462 26 is_stmt 0              @ rt-thread/components/net/lwip-2.0.2/src/core/udp.c:462:26
	ldr	r1, [sp, #4]
	.loc	7 462 35                        @ rt-thread/components/net/lwip-2.0.2/src/core/udp.c:462:35
	adds	r2, r0, #4
	.loc	7 462 51                        @ rt-thread/components/net/lwip-2.0.2/src/core/udp.c:462:51
	ldrh	r3, [r0, #20]
	.loc	7 462 10                        @ rt-thread/components/net/lwip-2.0.2/src/core/udp.c:462:10
	bl	udp_sendto
	.loc	7 462 3                         @ rt-thread/components/net/lwip-2.0.2/src/core/udp.c:462:3
	strb.w	r0, [sp, #15]
	b	.LBB3_3
.LBB3_3:
	.loc	7 463 1 is_stmt 1               @ rt-thread/components/net/lwip-2.0.2/src/core/udp.c:463:1
	ldrsb.w	r0, [sp, #15]
	add	sp, #16
	pop	{r7, pc}
.Ltmp80:
.Lfunc_end3:
	.size	udp_send, .Lfunc_end3-udp_send
	.cfi_endproc
	.cantunwind
	.fnend
                                        @ -- End function
	.section	.text.udp_sendto,"ax",%progbits
	.hidden	udp_sendto                      @ -- Begin function udp_sendto
	.globl	udp_sendto
	.p2align	3
	.type	udp_sendto,%function
	.code	16                              @ @udp_sendto
	.thumb_func
udp_sendto:
.Lfunc_begin4:
	.loc	7 504 0                         @ rt-thread/components/net/lwip-2.0.2/src/core/udp.c:504:0
	.fnstart
	.cfi_startproc
@ %bb.0:
	.save	{r7, lr}
	push	{r7, lr}
	.cfi_def_cfa_offset 8
	.cfi_offset lr, -4
	.cfi_offset r7, -8
	.pad	#32
	sub	sp, #32
	.cfi_def_cfa_offset 40
                                        @ kill: def $r12 killed $r3
	str	r0, [sp, #24]
	str	r1, [sp, #20]
	str	r2, [sp, #16]
	strh.w	r3, [sp, #14]
.Ltmp81:
	.loc	7 517 35 prologue_end           @ rt-thread/components/net/lwip-2.0.2/src/core/udp.c:517:35
	ldr	r0, [sp, #16]
	.loc	7 517 20 is_stmt 0              @ rt-thread/components/net/lwip-2.0.2/src/core/udp.c:517:20
	str	r0, [sp, #4]
.Ltmp82:
	.loc	7 519 8 is_stmt 1               @ rt-thread/components/net/lwip-2.0.2/src/core/udp.c:519:8
	ldr	r0, [sp, #24]
	.loc	7 519 21 is_stmt 0              @ rt-thread/components/net/lwip-2.0.2/src/core/udp.c:519:21
	cbz	r0, .LBB4_2
	b	.LBB4_1
.LBB4_1:
	.loc	7 519 25                        @ rt-thread/components/net/lwip-2.0.2/src/core/udp.c:519:25
	ldr	r0, [sp, #16]
.Ltmp83:
	.loc	7 519 7                         @ rt-thread/components/net/lwip-2.0.2/src/core/udp.c:519:7
	cbnz	r0, .LBB4_3
	b	.LBB4_2
.LBB4_2:
	.loc	7 0 7                           @ rt-thread/components/net/lwip-2.0.2/src/core/udp.c:0:7
	movs	r0, #250
.Ltmp84:
	.loc	7 520 5 is_stmt 1               @ rt-thread/components/net/lwip-2.0.2/src/core/udp.c:520:5
	strb.w	r0, [sp, #31]
	b	.LBB4_11
.Ltmp85:
.LBB4_3:
	.loc	7 526 7                         @ rt-thread/components/net/lwip-2.0.2/src/core/udp.c:526:7
	ldr	r0, [sp, #4]
	ldr	r0, [r0]
	and	r0, r0, #240
.Ltmp86:
	.loc	7 526 7 is_stmt 0               @ rt-thread/components/net/lwip-2.0.2/src/core/udp.c:526:7
	cmp	r0, #224
	bne	.LBB4_8
	b	.LBB4_4
.LBB4_4:
.Ltmp87:
	.loc	7 539 12 is_stmt 1              @ rt-thread/components/net/lwip-2.0.2/src/core/udp.c:539:12
	ldr	r0, [sp, #24]
	ldr	r0, [r0, #24]
	.loc	7 539 49 is_stmt 0              @ rt-thread/components/net/lwip-2.0.2/src/core/udp.c:539:49
	cbz	r0, .LBB4_7
	b	.LBB4_5
.LBB4_5:
	.loc	7 540 12 is_stmt 1              @ rt-thread/components/net/lwip-2.0.2/src/core/udp.c:540:12
	ldr	r0, [sp, #24]
	ldr	r0, [r0, #24]
	movw	r1, :lower16:ip_addr_broadcast
	movt	r1, :upper16:ip_addr_broadcast
	ldr	r1, [r1]
.Ltmp88:
	.loc	7 539 11                        @ rt-thread/components/net/lwip-2.0.2/src/core/udp.c:539:11
	cmp	r0, r1
	beq	.LBB4_7
	b	.LBB4_6
.LBB4_6:
.Ltmp89:
	.loc	7 541 25                        @ rt-thread/components/net/lwip-2.0.2/src/core/udp.c:541:25
	ldr	r0, [sp, #24]
	.loc	7 541 30 is_stmt 0              @ rt-thread/components/net/lwip-2.0.2/src/core/udp.c:541:30
	adds	r0, #24
	.loc	7 541 22                        @ rt-thread/components/net/lwip-2.0.2/src/core/udp.c:541:22
	str	r0, [sp, #4]
	.loc	7 542 7 is_stmt 1               @ rt-thread/components/net/lwip-2.0.2/src/core/udp.c:542:7
	b	.LBB4_7
.Ltmp90:
.LBB4_7:
	.loc	7 545 3                         @ rt-thread/components/net/lwip-2.0.2/src/core/udp.c:545:3
	b	.LBB4_8
.Ltmp91:
.LBB4_8:
	.loc	7 553 13                        @ rt-thread/components/net/lwip-2.0.2/src/core/udp.c:553:13
	ldr	r0, [sp, #4]
	bl	ip4_route
	.loc	7 553 11 is_stmt 0              @ rt-thread/components/net/lwip-2.0.2/src/core/udp.c:553:11
	str	r0, [sp, #8]
.Ltmp92:
	.loc	7 557 7 is_stmt 1               @ rt-thread/components/net/lwip-2.0.2/src/core/udp.c:557:7
	ldr	r0, [sp, #8]
.Ltmp93:
	.loc	7 557 7 is_stmt 0               @ rt-thread/components/net/lwip-2.0.2/src/core/udp.c:557:7
	cbnz	r0, .LBB4_10
	b	.LBB4_9
.LBB4_9:
	.loc	7 0 7                           @ rt-thread/components/net/lwip-2.0.2/src/core/udp.c:0:7
	movs	r0, #252
.Ltmp94:
	.loc	7 562 5 is_stmt 1               @ rt-thread/components/net/lwip-2.0.2/src/core/udp.c:562:5
	strb.w	r0, [sp, #31]
	b	.LBB4_11
.Ltmp95:
.LBB4_10:
	.loc	7 567 24                        @ rt-thread/components/net/lwip-2.0.2/src/core/udp.c:567:24
	ldr	r0, [sp, #24]
	.loc	7 567 29 is_stmt 0              @ rt-thread/components/net/lwip-2.0.2/src/core/udp.c:567:29
	ldr	r1, [sp, #20]
	.loc	7 567 32                        @ rt-thread/components/net/lwip-2.0.2/src/core/udp.c:567:32
	ldr	r2, [sp, #16]
	.loc	7 567 40                        @ rt-thread/components/net/lwip-2.0.2/src/core/udp.c:567:40
	ldrh.w	r3, [sp, #14]
	.loc	7 567 50                        @ rt-thread/components/net/lwip-2.0.2/src/core/udp.c:567:50
	ldr.w	r12, [sp, #8]
	.loc	7 567 10                        @ rt-thread/components/net/lwip-2.0.2/src/core/udp.c:567:10
	mov	lr, sp
	str.w	r12, [lr]
	bl	udp_sendto_if
	.loc	7 567 3                         @ rt-thread/components/net/lwip-2.0.2/src/core/udp.c:567:3
	strb.w	r0, [sp, #31]
	b	.LBB4_11
.LBB4_11:
	.loc	7 569 1 is_stmt 1               @ rt-thread/components/net/lwip-2.0.2/src/core/udp.c:569:1
	ldrsb.w	r0, [sp, #31]
	add	sp, #32
	pop	{r7, pc}
.Ltmp96:
.Lfunc_end4:
	.size	udp_sendto, .Lfunc_end4-udp_sendto
	.cfi_endproc
	.cantunwind
	.fnend
                                        @ -- End function
	.section	.text.udp_sendto_if,"ax",%progbits
	.hidden	udp_sendto_if                   @ -- Begin function udp_sendto_if
	.globl	udp_sendto_if
	.p2align	3
	.type	udp_sendto_if,%function
	.code	16                              @ @udp_sendto_if
	.thumb_func
udp_sendto_if:
.Lfunc_begin5:
	.loc	7 594 0                         @ rt-thread/components/net/lwip-2.0.2/src/core/udp.c:594:0
	.fnstart
	.cfi_startproc
@ %bb.0:
	.save	{r4, lr}
	push	{r4, lr}
	.cfi_def_cfa_offset 8
	.cfi_offset lr, -4
	.cfi_offset r4, -8
	.pad	#32
	sub	sp, #32
	.cfi_def_cfa_offset 40
	ldr.w	r12, [sp, #40]
                                        @ kill: def $r12 killed $r3
	str	r0, [sp, #24]
	str	r1, [sp, #20]
	str	r2, [sp, #16]
	strh.w	r3, [sp, #14]
.Ltmp97:
	.loc	7 608 8 prologue_end            @ rt-thread/components/net/lwip-2.0.2/src/core/udp.c:608:8
	ldr	r0, [sp, #24]
	.loc	7 608 21 is_stmt 0              @ rt-thread/components/net/lwip-2.0.2/src/core/udp.c:608:21
	cbz	r0, .LBB5_2
	b	.LBB5_1
.LBB5_1:
	.loc	7 608 25                        @ rt-thread/components/net/lwip-2.0.2/src/core/udp.c:608:25
	ldr	r0, [sp, #16]
.Ltmp98:
	.loc	7 608 7                         @ rt-thread/components/net/lwip-2.0.2/src/core/udp.c:608:7
	cbnz	r0, .LBB5_3
	b	.LBB5_2
.LBB5_2:
	.loc	7 0 7                           @ rt-thread/components/net/lwip-2.0.2/src/core/udp.c:0:7
	movs	r0, #250
.Ltmp99:
	.loc	7 609 5 is_stmt 1               @ rt-thread/components/net/lwip-2.0.2/src/core/udp.c:609:5
	strb.w	r0, [sp, #31]
	b	.LBB5_11
.Ltmp100:
.LBB5_3:
	.loc	7 635 7                         @ rt-thread/components/net/lwip-2.0.2/src/core/udp.c:635:7
	ldr	r0, [sp, #24]
	cbz	r0, .LBB5_6
	b	.LBB5_4
.LBB5_4:
	ldr	r0, [sp, #24]
	ldr	r0, [r0]
	.loc	7 635 48 is_stmt 0              @ rt-thread/components/net/lwip-2.0.2/src/core/udp.c:635:48
	cbz	r0, .LBB5_6
	b	.LBB5_5
.LBB5_5:
	.loc	7 636 7 is_stmt 1               @ rt-thread/components/net/lwip-2.0.2/src/core/udp.c:636:7
	ldr	r0, [sp, #24]
	ldr	r0, [r0]
	and	r0, r0, #240
.Ltmp101:
	.loc	7 635 7                         @ rt-thread/components/net/lwip-2.0.2/src/core/udp.c:635:7
	cmp	r0, #224
	bne	.LBB5_7
	b	.LBB5_6
.LBB5_6:
.Ltmp102:
	.loc	7 639 14                        @ rt-thread/components/net/lwip-2.0.2/src/core/udp.c:639:14
	ldr	r0, [sp, #40]
	adds	r0, #4
	.loc	7 639 12 is_stmt 0              @ rt-thread/components/net/lwip-2.0.2/src/core/udp.c:639:12
	str	r0, [sp, #8]
	.loc	7 640 3 is_stmt 1               @ rt-thread/components/net/lwip-2.0.2/src/core/udp.c:640:3
	b	.LBB5_10
.Ltmp103:
.LBB5_7:
	.loc	7 643 10                        @ rt-thread/components/net/lwip-2.0.2/src/core/udp.c:643:10
	ldr	r0, [sp, #24]
	ldr	r0, [r0]
	ldr	r1, [sp, #40]
	ldr	r1, [r1, #4]
.Ltmp104:
	.loc	7 643 9 is_stmt 0               @ rt-thread/components/net/lwip-2.0.2/src/core/udp.c:643:9
	cmp	r0, r1
	beq	.LBB5_9
	b	.LBB5_8
.LBB5_8:
	.loc	7 0 9                           @ rt-thread/components/net/lwip-2.0.2/src/core/udp.c:0:9
	movs	r0, #252
.Ltmp105:
	.loc	7 645 7 is_stmt 1               @ rt-thread/components/net/lwip-2.0.2/src/core/udp.c:645:7
	strb.w	r0, [sp, #31]
	b	.LBB5_11
.Ltmp106:
.LBB5_9:
	.loc	7 648 15                        @ rt-thread/components/net/lwip-2.0.2/src/core/udp.c:648:15
	ldr	r0, [sp, #24]
	.loc	7 648 12 is_stmt 0              @ rt-thread/components/net/lwip-2.0.2/src/core/udp.c:648:12
	str	r0, [sp, #8]
	b	.LBB5_10
.Ltmp107:
.LBB5_10:
	.loc	7 654 28 is_stmt 1              @ rt-thread/components/net/lwip-2.0.2/src/core/udp.c:654:28
	ldr	r0, [sp, #24]
	.loc	7 654 33 is_stmt 0              @ rt-thread/components/net/lwip-2.0.2/src/core/udp.c:654:33
	ldr	r1, [sp, #20]
	.loc	7 654 36                        @ rt-thread/components/net/lwip-2.0.2/src/core/udp.c:654:36
	ldr	r2, [sp, #16]
	.loc	7 654 44                        @ rt-thread/components/net/lwip-2.0.2/src/core/udp.c:654:44
	ldrh.w	r3, [sp, #14]
	.loc	7 654 54                        @ rt-thread/components/net/lwip-2.0.2/src/core/udp.c:654:54
	ldr.w	r12, [sp, #40]
	.loc	7 654 61                        @ rt-thread/components/net/lwip-2.0.2/src/core/udp.c:654:61
	ldr	r4, [sp, #8]
	.loc	7 654 10                        @ rt-thread/components/net/lwip-2.0.2/src/core/udp.c:654:10
	mov	lr, sp
	str.w	r4, [lr, #4]
	str.w	r12, [lr]
	bl	udp_sendto_if_src
	.loc	7 654 3                         @ rt-thread/components/net/lwip-2.0.2/src/core/udp.c:654:3
	strb.w	r0, [sp, #31]
	b	.LBB5_11
.LBB5_11:
	.loc	7 656 1 is_stmt 1               @ rt-thread/components/net/lwip-2.0.2/src/core/udp.c:656:1
	ldrsb.w	r0, [sp, #31]
	add	sp, #32
	pop	{r4, pc}
.Ltmp108:
.Lfunc_end5:
	.size	udp_sendto_if, .Lfunc_end5-udp_sendto_if
	.cfi_endproc
	.cantunwind
	.fnend
                                        @ -- End function
	.section	.text.udp_sendto_if_src,"ax",%progbits
	.hidden	udp_sendto_if_src               @ -- Begin function udp_sendto_if_src
	.globl	udp_sendto_if_src
	.p2align	3
	.type	udp_sendto_if_src,%function
	.code	16                              @ @udp_sendto_if_src
	.thumb_func
udp_sendto_if_src:
.Lfunc_begin6:
	.loc	7 663 0                         @ rt-thread/components/net/lwip-2.0.2/src/core/udp.c:663:0
	.fnstart
	.cfi_startproc
@ %bb.0:
	.save	{r4, r5, r7, lr}
	push	{r4, r5, r7, lr}
	.cfi_def_cfa_offset 16
	.cfi_offset lr, -4
	.cfi_offset r7, -8
	.cfi_offset r5, -12
	.cfi_offset r4, -16
	.pad	#56
	sub	sp, #56
	.cfi_def_cfa_offset 72
	ldr.w	r12, [sp, #76]
	ldr.w	r12, [sp, #72]
                                        @ kill: def $r12 killed $r3
	str	r0, [sp, #48]
	str	r1, [sp, #44]
	str	r2, [sp, #40]
	strh.w	r3, [sp, #38]
.Ltmp109:
	.loc	7 681 8 prologue_end            @ rt-thread/components/net/lwip-2.0.2/src/core/udp.c:681:8
	ldr	r0, [sp, #48]
	.loc	7 681 21 is_stmt 0              @ rt-thread/components/net/lwip-2.0.2/src/core/udp.c:681:21
	cbz	r0, .LBB6_2
	b	.LBB6_1
.LBB6_1:
	.loc	7 681 25                        @ rt-thread/components/net/lwip-2.0.2/src/core/udp.c:681:25
	ldr	r0, [sp, #40]
.Ltmp110:
	.loc	7 681 7                         @ rt-thread/components/net/lwip-2.0.2/src/core/udp.c:681:7
	cbnz	r0, .LBB6_3
	b	.LBB6_2
.LBB6_2:
	.loc	7 0 7                           @ rt-thread/components/net/lwip-2.0.2/src/core/udp.c:0:7
	movs	r0, #250
.Ltmp111:
	.loc	7 683 5 is_stmt 1               @ rt-thread/components/net/lwip-2.0.2/src/core/udp.c:683:5
	strb.w	r0, [sp, #55]
	b	.LBB6_36
.Ltmp112:
.LBB6_3:
	.loc	7 688 8                         @ rt-thread/components/net/lwip-2.0.2/src/core/udp.c:688:8
	ldr	r0, [sp, #48]
	ldrb	r0, [r0, #8]
	.loc	7 688 42 is_stmt 0              @ rt-thread/components/net/lwip-2.0.2/src/core/udp.c:688:42
	lsls	r0, r0, #26
	cmp	r0, #0
	bmi	.LBB6_6
	b	.LBB6_4
.LBB6_4:
	.loc	7 692 7 is_stmt 1               @ rt-thread/components/net/lwip-2.0.2/src/core/udp.c:692:7
	ldr	r0, [sp, #40]
	ldr	r0, [r0]
	ldr	r1, [sp, #72]
	bl	ip4_addr_isbroadcast_u32
.Ltmp113:
	.loc	7 688 7                         @ rt-thread/components/net/lwip-2.0.2/src/core/udp.c:688:7
	cbz	r0, .LBB6_6
	b	.LBB6_5
.LBB6_5:
	.loc	7 0 7 is_stmt 0                 @ rt-thread/components/net/lwip-2.0.2/src/core/udp.c:0:7
	movs	r0, #250
.Ltmp114:
	.loc	7 695 5 is_stmt 1               @ rt-thread/components/net/lwip-2.0.2/src/core/udp.c:695:5
	strb.w	r0, [sp, #55]
	b	.LBB6_36
.Ltmp115:
.LBB6_6:
	.loc	7 700 7                         @ rt-thread/components/net/lwip-2.0.2/src/core/udp.c:700:7
	ldr	r0, [sp, #48]
	.loc	7 700 12 is_stmt 0              @ rt-thread/components/net/lwip-2.0.2/src/core/udp.c:700:12
	ldrh	r0, [r0, #18]
.Ltmp116:
	.loc	7 700 7                         @ rt-thread/components/net/lwip-2.0.2/src/core/udp.c:700:7
	cbnz	r0, .LBB6_10
	b	.LBB6_7
.LBB6_7:
.Ltmp117:
	.loc	7 702 20 is_stmt 1              @ rt-thread/components/net/lwip-2.0.2/src/core/udp.c:702:20
	ldr	r1, [sp, #48]
	.loc	7 702 46 is_stmt 0              @ rt-thread/components/net/lwip-2.0.2/src/core/udp.c:702:46
	ldrh	r2, [r1, #18]
	.loc	7 702 11                        @ rt-thread/components/net/lwip-2.0.2/src/core/udp.c:702:11
	mov	r0, r1
	bl	udp_bind
	.loc	7 702 9                         @ rt-thread/components/net/lwip-2.0.2/src/core/udp.c:702:9
	strb.w	r0, [sp, #31]
.Ltmp118:
	.loc	7 703 9 is_stmt 1               @ rt-thread/components/net/lwip-2.0.2/src/core/udp.c:703:9
	ldrsb.w	r0, [sp, #31]
.Ltmp119:
	.loc	7 703 9 is_stmt 0               @ rt-thread/components/net/lwip-2.0.2/src/core/udp.c:703:9
	cbz	r0, .LBB6_9
	b	.LBB6_8
.LBB6_8:
.Ltmp120:
	.loc	7 705 14 is_stmt 1              @ rt-thread/components/net/lwip-2.0.2/src/core/udp.c:705:14
	ldrb.w	r0, [sp, #31]
	.loc	7 705 7 is_stmt 0               @ rt-thread/components/net/lwip-2.0.2/src/core/udp.c:705:7
	strb.w	r0, [sp, #55]
	b	.LBB6_36
.Ltmp121:
.LBB6_9:
	.loc	7 707 3 is_stmt 1               @ rt-thread/components/net/lwip-2.0.2/src/core/udp.c:707:3
	b	.LBB6_10
.Ltmp122:
.LBB6_10:
	.loc	7 710 19                        @ rt-thread/components/net/lwip-2.0.2/src/core/udp.c:710:19
	ldr	r0, [sp, #44]
	movs	r1, #8
	.loc	7 710 7 is_stmt 0               @ rt-thread/components/net/lwip-2.0.2/src/core/udp.c:710:7
	bl	pbuf_header
.Ltmp123:
	.loc	7 710 7                         @ rt-thread/components/net/lwip-2.0.2/src/core/udp.c:710:7
	cbz	r0, .LBB6_16
	b	.LBB6_11
.LBB6_11:
	.loc	7 0 7                           @ rt-thread/components/net/lwip-2.0.2/src/core/udp.c:0:7
	movs	r0, #1
	movs	r1, #8
	movs	r2, #0
.Ltmp124:
	.loc	7 712 9 is_stmt 1               @ rt-thread/components/net/lwip-2.0.2/src/core/udp.c:712:9
	bl	pbuf_alloc
	.loc	7 712 7 is_stmt 0               @ rt-thread/components/net/lwip-2.0.2/src/core/udp.c:712:7
	str	r0, [sp, #24]
.Ltmp125:
	.loc	7 714 9 is_stmt 1               @ rt-thread/components/net/lwip-2.0.2/src/core/udp.c:714:9
	ldr	r0, [sp, #24]
.Ltmp126:
	.loc	7 714 9 is_stmt 0               @ rt-thread/components/net/lwip-2.0.2/src/core/udp.c:714:9
	cbnz	r0, .LBB6_13
	b	.LBB6_12
.LBB6_12:
	.loc	7 0 9                           @ rt-thread/components/net/lwip-2.0.2/src/core/udp.c:0:9
	movs	r0, #255
.Ltmp127:
	.loc	7 716 7 is_stmt 1               @ rt-thread/components/net/lwip-2.0.2/src/core/udp.c:716:7
	strb.w	r0, [sp, #55]
	b	.LBB6_36
.Ltmp128:
.LBB6_13:
	.loc	7 718 9                         @ rt-thread/components/net/lwip-2.0.2/src/core/udp.c:718:9
	ldr	r0, [sp, #44]
	.loc	7 718 12 is_stmt 0              @ rt-thread/components/net/lwip-2.0.2/src/core/udp.c:718:12
	ldrh	r0, [r0, #8]
.Ltmp129:
	.loc	7 718 9                         @ rt-thread/components/net/lwip-2.0.2/src/core/udp.c:718:9
	cbz	r0, .LBB6_15
	b	.LBB6_14
.LBB6_14:
.Ltmp130:
	.loc	7 720 18 is_stmt 1              @ rt-thread/components/net/lwip-2.0.2/src/core/udp.c:720:18
	ldr	r0, [sp, #24]
	.loc	7 720 21 is_stmt 0              @ rt-thread/components/net/lwip-2.0.2/src/core/udp.c:720:21
	ldr	r1, [sp, #44]
	.loc	7 720 7                         @ rt-thread/components/net/lwip-2.0.2/src/core/udp.c:720:7
	bl	pbuf_chain
	.loc	7 721 5 is_stmt 1               @ rt-thread/components/net/lwip-2.0.2/src/core/udp.c:721:5
	b	.LBB6_15
.Ltmp131:
.LBB6_15:
	.loc	7 725 3                         @ rt-thread/components/net/lwip-2.0.2/src/core/udp.c:725:3
	b	.LBB6_17
.Ltmp132:
.LBB6_16:
	.loc	7 728 9                         @ rt-thread/components/net/lwip-2.0.2/src/core/udp.c:728:9
	ldr	r0, [sp, #44]
	.loc	7 728 7 is_stmt 0               @ rt-thread/components/net/lwip-2.0.2/src/core/udp.c:728:7
	str	r0, [sp, #24]
	b	.LBB6_17
.Ltmp133:
.LBB6_17:
	.loc	7 731 3 is_stmt 1               @ rt-thread/components/net/lwip-2.0.2/src/core/udp.c:731:3
	b	.LBB6_18
.LBB6_18:
.Ltmp134:
	.loc	7 731 3 is_stmt 0               @ rt-thread/components/net/lwip-2.0.2/src/core/udp.c:731:3
	ldr	r0, [sp, #24]
	ldrh	r0, [r0, #10]
.Ltmp135:
	.loc	7 731 3                         @ rt-thread/components/net/lwip-2.0.2/src/core/udp.c:731:3
	cmp	r0, #7
	bhi	.LBB6_22
	b	.LBB6_19
.LBB6_19:
.Ltmp136:
	.loc	7 731 3                         @ rt-thread/components/net/lwip-2.0.2/src/core/udp.c:731:3
	b	.LBB6_20
.LBB6_20:
.Ltmp137:
	.loc	7 731 3                         @ rt-thread/components/net/lwip-2.0.2/src/core/udp.c:731:3
	movw	r0, :lower16:.L.str.2
	movt	r0, :upper16:.L.str.2
	bl	rt_kprintf
	movw	r0, :lower16:.L.str.1
	movt	r0, :upper16:.L.str.1
	mov.w	r1, #732
	bl	sys_arch_assert
	b	.LBB6_21
.Ltmp138:
.LBB6_21:
	.loc	7 731 3                         @ rt-thread/components/net/lwip-2.0.2/src/core/udp.c:731:3
	b	.LBB6_22
.Ltmp139:
.LBB6_22:
	.loc	7 731 3                         @ rt-thread/components/net/lwip-2.0.2/src/core/udp.c:731:3
	b	.LBB6_23
.Ltmp140:
.LBB6_23:
	.loc	7 734 30 is_stmt 1              @ rt-thread/components/net/lwip-2.0.2/src/core/udp.c:734:30
	ldr	r0, [sp, #24]
	.loc	7 734 33 is_stmt 0              @ rt-thread/components/net/lwip-2.0.2/src/core/udp.c:734:33
	ldr	r0, [r0, #4]
	.loc	7 734 10                        @ rt-thread/components/net/lwip-2.0.2/src/core/udp.c:734:10
	str	r0, [sp, #32]
	.loc	7 735 28 is_stmt 1              @ rt-thread/components/net/lwip-2.0.2/src/core/udp.c:735:28
	ldr	r0, [sp, #48]
	.loc	7 735 33 is_stmt 0              @ rt-thread/components/net/lwip-2.0.2/src/core/udp.c:735:33
	ldrh	r0, [r0, #18]
	.loc	7 735 17                        @ rt-thread/components/net/lwip-2.0.2/src/core/udp.c:735:17
	bl	lwip_htons
	.loc	7 735 3                         @ rt-thread/components/net/lwip-2.0.2/src/core/udp.c:735:3
	ldr	r1, [sp, #32]
	.loc	7 735 15                        @ rt-thread/components/net/lwip-2.0.2/src/core/udp.c:735:15
	strh	r0, [r1]
	.loc	7 736 29 is_stmt 1              @ rt-thread/components/net/lwip-2.0.2/src/core/udp.c:736:29
	ldrh.w	r0, [sp, #38]
	.loc	7 736 18 is_stmt 0              @ rt-thread/components/net/lwip-2.0.2/src/core/udp.c:736:18
	bl	lwip_htons
	.loc	7 736 3                         @ rt-thread/components/net/lwip-2.0.2/src/core/udp.c:736:3
	ldr	r1, [sp, #32]
	.loc	7 736 16                        @ rt-thread/components/net/lwip-2.0.2/src/core/udp.c:736:16
	strh	r0, [r1, #2]
	.loc	7 738 3 is_stmt 1               @ rt-thread/components/net/lwip-2.0.2/src/core/udp.c:738:3
	ldr	r1, [sp, #32]
	movs	r0, #0
	.loc	7 738 18 is_stmt 0              @ rt-thread/components/net/lwip-2.0.2/src/core/udp.c:738:18
	strh	r0, [r1, #6]
.Ltmp141:
	.loc	7 742 9 is_stmt 1               @ rt-thread/components/net/lwip-2.0.2/src/core/udp.c:742:9
	ldr	r0, [sp, #48]
	ldrb	r0, [r0, #16]
	.loc	7 742 54 is_stmt 0              @ rt-thread/components/net/lwip-2.0.2/src/core/udp.c:742:54
	lsls	r0, r0, #28
	cmp	r0, #0
	bpl	.LBB6_26
	b	.LBB6_24
.LBB6_24:
	.loc	7 742 57                        @ rt-thread/components/net/lwip-2.0.2/src/core/udp.c:742:57
	ldr	r0, [sp, #40]
	ldr	r0, [r0]
	and	r0, r0, #240
.Ltmp142:
	.loc	7 742 7                         @ rt-thread/components/net/lwip-2.0.2/src/core/udp.c:742:7
	cmp	r0, #224
	bne	.LBB6_26
	b	.LBB6_25
.LBB6_25:
.Ltmp143:
	.loc	7 743 5 is_stmt 1               @ rt-thread/components/net/lwip-2.0.2/src/core/udp.c:743:5
	ldr	r1, [sp, #24]
	.loc	7 743 14 is_stmt 0              @ rt-thread/components/net/lwip-2.0.2/src/core/udp.c:743:14
	ldrb	r0, [r1, #13]
	orr	r0, r0, #4
	strb	r0, [r1, #13]
	.loc	7 744 3 is_stmt 1               @ rt-thread/components/net/lwip-2.0.2/src/core/udp.c:744:3
	b	.LBB6_26
.Ltmp144:
.LBB6_26:
	.loc	7 800 30                        @ rt-thread/components/net/lwip-2.0.2/src/core/udp.c:800:30
	ldr	r0, [sp, #24]
	.loc	7 800 33 is_stmt 0              @ rt-thread/components/net/lwip-2.0.2/src/core/udp.c:800:33
	ldrh	r0, [r0, #8]
	.loc	7 800 19                        @ rt-thread/components/net/lwip-2.0.2/src/core/udp.c:800:19
	bl	lwip_htons
	.loc	7 800 5                         @ rt-thread/components/net/lwip-2.0.2/src/core/udp.c:800:5
	ldr	r1, [sp, #32]
	.loc	7 800 17                        @ rt-thread/components/net/lwip-2.0.2/src/core/udp.c:800:17
	strh	r0, [r1, #4]
.Ltmp145:
	.loc	7 805 32 is_stmt 1              @ rt-thread/components/net/lwip-2.0.2/src/core/udp.c:805:32
	ldr	r0, [sp, #48]
	ldrb	r0, [r0, #16]
.Ltmp146:
	.loc	7 805 11 is_stmt 0              @ rt-thread/components/net/lwip-2.0.2/src/core/udp.c:805:11
	lsls	r0, r0, #31
	cbnz	r0, .LBB6_30
	b	.LBB6_27
.LBB6_27:
.Ltmp147:
	.loc	7 817 40 is_stmt 1              @ rt-thread/components/net/lwip-2.0.2/src/core/udp.c:817:40
	ldr	r0, [sp, #24]
	.loc	7 817 60 is_stmt 0              @ rt-thread/components/net/lwip-2.0.2/src/core/udp.c:817:60
	ldrh	r2, [r0, #8]
	.loc	7 818 13 is_stmt 1              @ rt-thread/components/net/lwip-2.0.2/src/core/udp.c:818:13
	ldr	r3, [sp, #76]
	.loc	7 818 21 is_stmt 0              @ rt-thread/components/net/lwip-2.0.2/src/core/udp.c:818:21
	ldr	r1, [sp, #40]
	.loc	7 817 23 is_stmt 1              @ rt-thread/components/net/lwip-2.0.2/src/core/udp.c:817:23
	mov	r12, sp
	str.w	r1, [r12]
	movs	r1, #17
	bl	ip_chksum_pseudo
	.loc	7 817 21 is_stmt 0              @ rt-thread/components/net/lwip-2.0.2/src/core/udp.c:817:21
	strh.w	r0, [sp, #20]
.Ltmp148:
	.loc	7 822 13 is_stmt 1              @ rt-thread/components/net/lwip-2.0.2/src/core/udp.c:822:13
	ldrh.w	r0, [sp, #20]
.Ltmp149:
	.loc	7 822 13 is_stmt 0              @ rt-thread/components/net/lwip-2.0.2/src/core/udp.c:822:13
	cbnz	r0, .LBB6_29
	b	.LBB6_28
.LBB6_28:
	.loc	7 0 13                          @ rt-thread/components/net/lwip-2.0.2/src/core/udp.c:0:13
	movw	r0, #65535
.Ltmp150:
	.loc	7 823 21 is_stmt 1              @ rt-thread/components/net/lwip-2.0.2/src/core/udp.c:823:21
	strh.w	r0, [sp, #20]
	.loc	7 824 9                         @ rt-thread/components/net/lwip-2.0.2/src/core/udp.c:824:9
	b	.LBB6_29
.Ltmp151:
.LBB6_29:
	.loc	7 825 26                        @ rt-thread/components/net/lwip-2.0.2/src/core/udp.c:825:26
	ldrh.w	r0, [sp, #20]
	.loc	7 825 9 is_stmt 0               @ rt-thread/components/net/lwip-2.0.2/src/core/udp.c:825:9
	ldr	r1, [sp, #32]
	.loc	7 825 24                        @ rt-thread/components/net/lwip-2.0.2/src/core/udp.c:825:24
	strh	r0, [r1, #6]
	.loc	7 826 7 is_stmt 1               @ rt-thread/components/net/lwip-2.0.2/src/core/udp.c:826:7
	b	.LBB6_30
.Ltmp152:
.LBB6_30:
	.loc	7 0 7 is_stmt 0                 @ rt-thread/components/net/lwip-2.0.2/src/core/udp.c:0:7
	movs	r0, #17
	.loc	7 829 14 is_stmt 1              @ rt-thread/components/net/lwip-2.0.2/src/core/udp.c:829:14
	strb.w	r0, [sp, #23]
.Ltmp153:
	.loc	7 834 10                        @ rt-thread/components/net/lwip-2.0.2/src/core/udp.c:834:10
	ldr	r0, [sp, #40]
	ldr	r0, [r0]
	and	r0, r0, #240
	cmp	r0, #224
	bne	.LBB6_32
	b	.LBB6_31
.LBB6_31:
	.loc	7 834 40 is_stmt 0              @ rt-thread/components/net/lwip-2.0.2/src/core/udp.c:834:40
	ldr	r0, [sp, #48]
	ldrb	r0, [r0, #28]
	.loc	7 834 10                        @ rt-thread/components/net/lwip-2.0.2/src/core/udp.c:834:10
	str	r0, [sp, #16]                   @ 4-byte Spill
	b	.LBB6_33
.LBB6_32:
	.loc	7 834 69                        @ rt-thread/components/net/lwip-2.0.2/src/core/udp.c:834:69
	ldr	r0, [sp, #48]
	.loc	7 834 74                        @ rt-thread/components/net/lwip-2.0.2/src/core/udp.c:834:74
	ldrb	r0, [r0, #10]
	.loc	7 834 10                        @ rt-thread/components/net/lwip-2.0.2/src/core/udp.c:834:10
	str	r0, [sp, #16]                   @ 4-byte Spill
	b	.LBB6_33
.LBB6_33:
	ldr	r0, [sp, #16]                   @ 4-byte Reload
	.loc	7 834 7                         @ rt-thread/components/net/lwip-2.0.2/src/core/udp.c:834:7
	strb.w	r0, [sp, #22]
	.loc	7 843 9 is_stmt 1               @ rt-thread/components/net/lwip-2.0.2/src/core/udp.c:843:9
	ldr	r0, [sp, #24]
	ldr	r1, [sp, #76]
	ldr	r2, [sp, #40]
	ldrb.w	r3, [sp, #22]
	ldr.w	r12, [sp, #48]
	ldrb.w	r12, [r12, #9]
	ldrb.w	r4, [sp, #23]
	ldr	r5, [sp, #72]
	mov	lr, sp
	str.w	r5, [lr, #8]
	str.w	r4, [lr, #4]
	str.w	r12, [lr]
	bl	ip4_output_if_src
	.loc	7 843 7 is_stmt 0               @ rt-thread/components/net/lwip-2.0.2/src/core/udp.c:843:7
	strb.w	r0, [sp, #31]
.Ltmp154:
	.loc	7 850 7 is_stmt 1               @ rt-thread/components/net/lwip-2.0.2/src/core/udp.c:850:7
	ldr	r0, [sp, #24]
	.loc	7 850 12 is_stmt 0              @ rt-thread/components/net/lwip-2.0.2/src/core/udp.c:850:12
	ldr	r1, [sp, #44]
.Ltmp155:
	.loc	7 850 7                         @ rt-thread/components/net/lwip-2.0.2/src/core/udp.c:850:7
	cmp	r0, r1
	beq	.LBB6_35
	b	.LBB6_34
.LBB6_34:
.Ltmp156:
	.loc	7 852 15 is_stmt 1              @ rt-thread/components/net/lwip-2.0.2/src/core/udp.c:852:15
	ldr	r0, [sp, #24]
	.loc	7 852 5 is_stmt 0               @ rt-thread/components/net/lwip-2.0.2/src/core/udp.c:852:5
	bl	pbuf_free
	movs	r0, #0
	.loc	7 853 7 is_stmt 1               @ rt-thread/components/net/lwip-2.0.2/src/core/udp.c:853:7
	str	r0, [sp, #24]
	.loc	7 855 3                         @ rt-thread/components/net/lwip-2.0.2/src/core/udp.c:855:3
	b	.LBB6_35
.Ltmp157:
.LBB6_35:
	.loc	7 858 10                        @ rt-thread/components/net/lwip-2.0.2/src/core/udp.c:858:10
	ldrb.w	r0, [sp, #31]
	.loc	7 858 3 is_stmt 0               @ rt-thread/components/net/lwip-2.0.2/src/core/udp.c:858:3
	strb.w	r0, [sp, #55]
	b	.LBB6_36
.LBB6_36:
	.loc	7 859 1 is_stmt 1               @ rt-thread/components/net/lwip-2.0.2/src/core/udp.c:859:1
	ldrsb.w	r0, [sp, #55]
	add	sp, #56
	pop	{r4, r5, r7, pc}
.Ltmp158:
.Lfunc_end6:
	.size	udp_sendto_if_src, .Lfunc_end6-udp_sendto_if_src
	.cfi_endproc
	.cantunwind
	.fnend
                                        @ -- End function
	.section	.text.udp_bind,"ax",%progbits
	.hidden	udp_bind                        @ -- Begin function udp_bind
	.globl	udp_bind
	.p2align	3
	.type	udp_bind,%function
	.code	16                              @ @udp_bind
	.thumb_func
udp_bind:
.Lfunc_begin7:
	.loc	7 883 0                         @ rt-thread/components/net/lwip-2.0.2/src/core/udp.c:883:0
	.fnstart
	.cfi_startproc
@ %bb.0:
	.save	{r7, lr}
	push	{r7, lr}
	.cfi_def_cfa_offset 8
	.cfi_offset lr, -4
	.cfi_offset r7, -8
	.pad	#32
	sub	sp, #32
	.cfi_def_cfa_offset 40
                                        @ kill: def $r3 killed $r2
	str	r0, [sp, #24]
	str	r1, [sp, #20]
	strh.w	r2, [sp, #18]
.Ltmp159:
	.loc	7 889 7 prologue_end            @ rt-thread/components/net/lwip-2.0.2/src/core/udp.c:889:7
	ldr	r0, [sp, #20]
.Ltmp160:
	.loc	7 889 7 is_stmt 0               @ rt-thread/components/net/lwip-2.0.2/src/core/udp.c:889:7
	cbnz	r0, .LBB7_2
	b	.LBB7_1
.LBB7_1:
.Ltmp161:
	.loc	7 890 12 is_stmt 1              @ rt-thread/components/net/lwip-2.0.2/src/core/udp.c:890:12
	movw	r0, :lower16:ip_addr_any
	movt	r0, :upper16:ip_addr_any
	str	r0, [sp, #20]
	.loc	7 891 3                         @ rt-thread/components/net/lwip-2.0.2/src/core/udp.c:891:3
	b	.LBB7_2
.Ltmp162:
.LBB7_2:
	.loc	7 895 8                         @ rt-thread/components/net/lwip-2.0.2/src/core/udp.c:895:8
	ldr	r0, [sp, #24]
	.loc	7 895 21 is_stmt 0              @ rt-thread/components/net/lwip-2.0.2/src/core/udp.c:895:21
	cbz	r0, .LBB7_4
	b	.LBB7_3
.LBB7_3:
	.loc	7 895 25                        @ rt-thread/components/net/lwip-2.0.2/src/core/udp.c:895:25
	ldr	r0, [sp, #20]
.Ltmp163:
	.loc	7 895 7                         @ rt-thread/components/net/lwip-2.0.2/src/core/udp.c:895:7
	cbnz	r0, .LBB7_5
	b	.LBB7_4
.LBB7_4:
	.loc	7 0 7                           @ rt-thread/components/net/lwip-2.0.2/src/core/udp.c:0:7
	movs	r0, #250
.Ltmp164:
	.loc	7 896 5 is_stmt 1               @ rt-thread/components/net/lwip-2.0.2/src/core/udp.c:896:5
	strb.w	r0, [sp, #31]
	b	.LBB7_34
.Ltmp165:
.LBB7_5:
	.loc	7 0 5 is_stmt 0                 @ rt-thread/components/net/lwip-2.0.2/src/core/udp.c:0:5
	movs	r0, #0
	.loc	7 903 10 is_stmt 1              @ rt-thread/components/net/lwip-2.0.2/src/core/udp.c:903:10
	strb.w	r0, [sp, #11]
.Ltmp166:
	.loc	7 905 15                        @ rt-thread/components/net/lwip-2.0.2/src/core/udp.c:905:15
	movw	r0, :lower16:udp_pcbs
	movt	r0, :upper16:udp_pcbs
	ldr	r0, [r0]
	.loc	7 905 13 is_stmt 0              @ rt-thread/components/net/lwip-2.0.2/src/core/udp.c:905:13
	str	r0, [sp, #12]
	.loc	7 905 8                         @ rt-thread/components/net/lwip-2.0.2/src/core/udp.c:905:8
	b	.LBB7_6
.LBB7_6:                                @ =>This Inner Loop Header: Depth=1
.Ltmp167:
	.loc	7 905 25                        @ rt-thread/components/net/lwip-2.0.2/src/core/udp.c:905:25
	ldr	r0, [sp, #12]
.Ltmp168:
	.loc	7 905 3                         @ rt-thread/components/net/lwip-2.0.2/src/core/udp.c:905:3
	cbz	r0, .LBB7_11
	b	.LBB7_7
.LBB7_7:                                @   in Loop: Header=BB7_6 Depth=1
.Ltmp169:
	.loc	7 907 9 is_stmt 1               @ rt-thread/components/net/lwip-2.0.2/src/core/udp.c:907:9
	ldr	r0, [sp, #24]
	.loc	7 907 16 is_stmt 0              @ rt-thread/components/net/lwip-2.0.2/src/core/udp.c:907:16
	ldr	r1, [sp, #12]
.Ltmp170:
	.loc	7 907 9                         @ rt-thread/components/net/lwip-2.0.2/src/core/udp.c:907:9
	cmp	r0, r1
	bne	.LBB7_9
	b	.LBB7_8
.LBB7_8:
	.loc	7 0 9                           @ rt-thread/components/net/lwip-2.0.2/src/core/udp.c:0:9
	movs	r0, #1
.Ltmp171:
	.loc	7 908 14 is_stmt 1              @ rt-thread/components/net/lwip-2.0.2/src/core/udp.c:908:14
	strb.w	r0, [sp, #11]
	.loc	7 909 7                         @ rt-thread/components/net/lwip-2.0.2/src/core/udp.c:909:7
	b	.LBB7_11
.Ltmp172:
.LBB7_9:                                @   in Loop: Header=BB7_6 Depth=1
	.loc	7 911 3                         @ rt-thread/components/net/lwip-2.0.2/src/core/udp.c:911:3
	b	.LBB7_10
.Ltmp173:
.LBB7_10:                               @   in Loop: Header=BB7_6 Depth=1
	.loc	7 905 46                        @ rt-thread/components/net/lwip-2.0.2/src/core/udp.c:905:46
	ldr	r0, [sp, #12]
	.loc	7 905 52 is_stmt 0              @ rt-thread/components/net/lwip-2.0.2/src/core/udp.c:905:52
	ldr	r0, [r0, #12]
	.loc	7 905 44                        @ rt-thread/components/net/lwip-2.0.2/src/core/udp.c:905:44
	str	r0, [sp, #12]
	.loc	7 905 3                         @ rt-thread/components/net/lwip-2.0.2/src/core/udp.c:905:3
	b	.LBB7_6
.Ltmp174:
.LBB7_11:
	.loc	7 914 7 is_stmt 1               @ rt-thread/components/net/lwip-2.0.2/src/core/udp.c:914:7
	ldrh.w	r0, [sp, #18]
.Ltmp175:
	.loc	7 914 7 is_stmt 0               @ rt-thread/components/net/lwip-2.0.2/src/core/udp.c:914:7
	cbnz	r0, .LBB7_15
	b	.LBB7_12
.LBB7_12:
.Ltmp176:
	.loc	7 915 12 is_stmt 1              @ rt-thread/components/net/lwip-2.0.2/src/core/udp.c:915:12
	bl	udp_new_port
	.loc	7 915 10 is_stmt 0              @ rt-thread/components/net/lwip-2.0.2/src/core/udp.c:915:10
	strh.w	r0, [sp, #18]
.Ltmp177:
	.loc	7 916 9 is_stmt 1               @ rt-thread/components/net/lwip-2.0.2/src/core/udp.c:916:9
	ldrh.w	r0, [sp, #18]
.Ltmp178:
	.loc	7 916 9 is_stmt 0               @ rt-thread/components/net/lwip-2.0.2/src/core/udp.c:916:9
	cbnz	r0, .LBB7_14
	b	.LBB7_13
.LBB7_13:
	.loc	7 0 9                           @ rt-thread/components/net/lwip-2.0.2/src/core/udp.c:0:9
	movs	r0, #248
.Ltmp179:
	.loc	7 919 7 is_stmt 1               @ rt-thread/components/net/lwip-2.0.2/src/core/udp.c:919:7
	strb.w	r0, [sp, #31]
	b	.LBB7_34
.Ltmp180:
.LBB7_14:
	.loc	7 921 3                         @ rt-thread/components/net/lwip-2.0.2/src/core/udp.c:921:3
	b	.LBB7_28
.Ltmp181:
.LBB7_15:
	.loc	7 922 17                        @ rt-thread/components/net/lwip-2.0.2/src/core/udp.c:922:17
	movw	r0, :lower16:udp_pcbs
	movt	r0, :upper16:udp_pcbs
	ldr	r0, [r0]
	.loc	7 922 15 is_stmt 0              @ rt-thread/components/net/lwip-2.0.2/src/core/udp.c:922:15
	str	r0, [sp, #12]
	.loc	7 922 10                        @ rt-thread/components/net/lwip-2.0.2/src/core/udp.c:922:10
	b	.LBB7_16
.LBB7_16:                               @ =>This Inner Loop Header: Depth=1
.Ltmp182:
	.loc	7 922 27                        @ rt-thread/components/net/lwip-2.0.2/src/core/udp.c:922:27
	ldr	r0, [sp, #12]
.Ltmp183:
	.loc	7 922 5                         @ rt-thread/components/net/lwip-2.0.2/src/core/udp.c:922:5
	cbz	r0, .LBB7_27
	b	.LBB7_17
.LBB7_17:                               @   in Loop: Header=BB7_16 Depth=1
.Ltmp184:
	.loc	7 923 11 is_stmt 1              @ rt-thread/components/net/lwip-2.0.2/src/core/udp.c:923:11
	ldr	r0, [sp, #24]
	.loc	7 923 18 is_stmt 0              @ rt-thread/components/net/lwip-2.0.2/src/core/udp.c:923:18
	ldr	r1, [sp, #12]
.Ltmp185:
	.loc	7 923 11                        @ rt-thread/components/net/lwip-2.0.2/src/core/udp.c:923:11
	cmp	r0, r1
	beq	.LBB7_25
	b	.LBB7_18
.LBB7_18:                               @   in Loop: Header=BB7_16 Depth=1
.Ltmp186:
	.loc	7 928 14 is_stmt 1              @ rt-thread/components/net/lwip-2.0.2/src/core/udp.c:928:14
	ldr	r0, [sp, #24]
	ldrb	r0, [r0, #8]
	.loc	7 928 48 is_stmt 0              @ rt-thread/components/net/lwip-2.0.2/src/core/udp.c:928:48
	lsls	r0, r0, #29
	cmp	r0, #0
	bpl	.LBB7_20
	b	.LBB7_19
.LBB7_19:                               @   in Loop: Header=BB7_16 Depth=1
	.loc	7 929 14 is_stmt 1              @ rt-thread/components/net/lwip-2.0.2/src/core/udp.c:929:14
	ldr	r0, [sp, #12]
	ldrb	r0, [r0, #8]
.Ltmp187:
	.loc	7 928 13                        @ rt-thread/components/net/lwip-2.0.2/src/core/udp.c:928:13
	lsls	r0, r0, #29
	cmp	r0, #0
	bmi	.LBB7_24
	b	.LBB7_20
.LBB7_20:                               @   in Loop: Header=BB7_16 Depth=1
.Ltmp188:
	.loc	7 933 16                        @ rt-thread/components/net/lwip-2.0.2/src/core/udp.c:933:16
	ldr	r0, [sp, #12]
	.loc	7 933 22 is_stmt 0              @ rt-thread/components/net/lwip-2.0.2/src/core/udp.c:933:22
	ldrh	r0, [r0, #18]
	.loc	7 933 36                        @ rt-thread/components/net/lwip-2.0.2/src/core/udp.c:933:36
	ldrh.w	r1, [sp, #18]
	.loc	7 933 42                        @ rt-thread/components/net/lwip-2.0.2/src/core/udp.c:933:42
	cmp	r0, r1
	bne	.LBB7_23
	b	.LBB7_21
.LBB7_21:                               @   in Loop: Header=BB7_16 Depth=1
	.loc	7 935 15 is_stmt 1              @ rt-thread/components/net/lwip-2.0.2/src/core/udp.c:935:15
	ldr	r0, [sp, #12]
	ldr	r0, [r0]
	ldr	r1, [sp, #20]
	ldr	r1, [r1]
.Ltmp189:
	.loc	7 933 15                        @ rt-thread/components/net/lwip-2.0.2/src/core/udp.c:933:15
	cmp	r0, r1
	bne	.LBB7_23
	b	.LBB7_22
.LBB7_22:
	.loc	7 0 15 is_stmt 0                @ rt-thread/components/net/lwip-2.0.2/src/core/udp.c:0:15
	movs	r0, #248
.Ltmp190:
	.loc	7 939 13 is_stmt 1              @ rt-thread/components/net/lwip-2.0.2/src/core/udp.c:939:13
	strb.w	r0, [sp, #31]
	b	.LBB7_34
.Ltmp191:
.LBB7_23:                               @   in Loop: Header=BB7_16 Depth=1
	.loc	7 941 9                         @ rt-thread/components/net/lwip-2.0.2/src/core/udp.c:941:9
	b	.LBB7_24
.Ltmp192:
.LBB7_24:                               @   in Loop: Header=BB7_16 Depth=1
	.loc	7 942 7                         @ rt-thread/components/net/lwip-2.0.2/src/core/udp.c:942:7
	b	.LBB7_25
.Ltmp193:
.LBB7_25:                               @   in Loop: Header=BB7_16 Depth=1
	.loc	7 943 5                         @ rt-thread/components/net/lwip-2.0.2/src/core/udp.c:943:5
	b	.LBB7_26
.Ltmp194:
.LBB7_26:                               @   in Loop: Header=BB7_16 Depth=1
	.loc	7 922 48                        @ rt-thread/components/net/lwip-2.0.2/src/core/udp.c:922:48
	ldr	r0, [sp, #12]
	.loc	7 922 54 is_stmt 0              @ rt-thread/components/net/lwip-2.0.2/src/core/udp.c:922:54
	ldr	r0, [r0, #12]
	.loc	7 922 46                        @ rt-thread/components/net/lwip-2.0.2/src/core/udp.c:922:46
	str	r0, [sp, #12]
	.loc	7 922 5                         @ rt-thread/components/net/lwip-2.0.2/src/core/udp.c:922:5
	b	.LBB7_16
.Ltmp195:
.LBB7_27:
	.loc	7 0 5                           @ rt-thread/components/net/lwip-2.0.2/src/core/udp.c:0:5
	b	.LBB7_28
.LBB7_28:
	.loc	7 946 3 is_stmt 1               @ rt-thread/components/net/lwip-2.0.2/src/core/udp.c:946:3
	ldr	r0, [sp, #20]
	cbnz	r0, .LBB7_30
	b	.LBB7_29
.LBB7_29:
	.loc	7 0 3 is_stmt 0                 @ rt-thread/components/net/lwip-2.0.2/src/core/udp.c:0:3
	movs	r0, #0
	.loc	7 946 3                         @ rt-thread/components/net/lwip-2.0.2/src/core/udp.c:946:3
	str	r0, [sp, #4]                    @ 4-byte Spill
	b	.LBB7_31
.LBB7_30:
	ldr	r0, [sp, #20]
	ldr	r0, [r0]
	str	r0, [sp, #4]                    @ 4-byte Spill
	b	.LBB7_31
.LBB7_31:
	ldr	r0, [sp, #4]                    @ 4-byte Reload
	ldr	r1, [sp, #24]
	str	r0, [r1]
	.loc	7 948 21 is_stmt 1              @ rt-thread/components/net/lwip-2.0.2/src/core/udp.c:948:21
	ldrh.w	r0, [sp, #18]
	.loc	7 948 3 is_stmt 0               @ rt-thread/components/net/lwip-2.0.2/src/core/udp.c:948:3
	ldr	r1, [sp, #24]
	.loc	7 948 19                        @ rt-thread/components/net/lwip-2.0.2/src/core/udp.c:948:19
	strh	r0, [r1, #18]
.Ltmp196:
	.loc	7 951 7 is_stmt 1               @ rt-thread/components/net/lwip-2.0.2/src/core/udp.c:951:7
	ldrb.w	r0, [sp, #11]
.Ltmp197:
	.loc	7 951 7 is_stmt 0               @ rt-thread/components/net/lwip-2.0.2/src/core/udp.c:951:7
	cbnz	r0, .LBB7_33
	b	.LBB7_32
.LBB7_32:
.Ltmp198:
	.loc	7 953 17 is_stmt 1              @ rt-thread/components/net/lwip-2.0.2/src/core/udp.c:953:17
	movw	r1, :lower16:udp_pcbs
	movt	r1, :upper16:udp_pcbs
	ldr	r0, [r1]
	.loc	7 953 5 is_stmt 0               @ rt-thread/components/net/lwip-2.0.2/src/core/udp.c:953:5
	ldr	r2, [sp, #24]
	.loc	7 953 15                        @ rt-thread/components/net/lwip-2.0.2/src/core/udp.c:953:15
	str	r0, [r2, #12]
	.loc	7 954 16 is_stmt 1              @ rt-thread/components/net/lwip-2.0.2/src/core/udp.c:954:16
	ldr	r0, [sp, #24]
	.loc	7 954 14 is_stmt 0              @ rt-thread/components/net/lwip-2.0.2/src/core/udp.c:954:14
	str	r0, [r1]
	.loc	7 955 3 is_stmt 1               @ rt-thread/components/net/lwip-2.0.2/src/core/udp.c:955:3
	b	.LBB7_33
.Ltmp199:
.LBB7_33:
	.loc	7 0 3 is_stmt 0                 @ rt-thread/components/net/lwip-2.0.2/src/core/udp.c:0:3
	movs	r0, #0
	.loc	7 959 3 is_stmt 1               @ rt-thread/components/net/lwip-2.0.2/src/core/udp.c:959:3
	strb.w	r0, [sp, #31]
	b	.LBB7_34
.LBB7_34:
	.loc	7 960 1                         @ rt-thread/components/net/lwip-2.0.2/src/core/udp.c:960:1
	ldrsb.w	r0, [sp, #31]
	add	sp, #32
	pop	{r7, pc}
.Ltmp200:
.Lfunc_end7:
	.size	udp_bind, .Lfunc_end7-udp_bind
	.cfi_endproc
	.cantunwind
	.fnend
                                        @ -- End function
	.section	.text.udp_new_port,"ax",%progbits
	.p2align	3                               @ -- Begin function udp_new_port
	.type	udp_new_port,%function
	.code	16                              @ @udp_new_port
	.thumb_func
udp_new_port:
.Lfunc_begin8:
	.loc	7 101 0                         @ rt-thread/components/net/lwip-2.0.2/src/core/udp.c:101:0
	.fnstart
	.cfi_startproc
@ %bb.0:
	.pad	#8
	sub	sp, #8
	.cfi_def_cfa_offset 8
	movs	r0, #0
.Ltmp201:
	.loc	7 102 9 prologue_end            @ rt-thread/components/net/lwip-2.0.2/src/core/udp.c:102:9
	strh.w	r0, [sp, #4]
	.loc	7 103 3                         @ rt-thread/components/net/lwip-2.0.2/src/core/udp.c:103:3
	b	.LBB8_1
.LBB8_1:                                @ =>This Loop Header: Depth=1
                                        @     Child Loop BB8_4 Depth 2
.Ltmp202:
	@DEBUG_LABEL: udp_new_port:again
	.loc	7 106 15                        @ rt-thread/components/net/lwip-2.0.2/src/core/udp.c:106:15
	movw	r2, :lower16:udp_port
	movt	r2, :upper16:udp_port
	ldrh	r0, [r2]
	adds	r1, r0, #1
	strh	r1, [r2]
	movw	r1, #65535
.Ltmp203:
	.loc	7 106 7 is_stmt 0               @ rt-thread/components/net/lwip-2.0.2/src/core/udp.c:106:7
	cmp	r0, r1
	bne	.LBB8_3
	b	.LBB8_2
.LBB8_2:                                @   in Loop: Header=BB8_1 Depth=1
.Ltmp204:
	.loc	7 107 14 is_stmt 1              @ rt-thread/components/net/lwip-2.0.2/src/core/udp.c:107:14
	movw	r1, :lower16:udp_port
	movt	r1, :upper16:udp_port
	mov.w	r0, #49152
	strh	r0, [r1]
	.loc	7 108 3                         @ rt-thread/components/net/lwip-2.0.2/src/core/udp.c:108:3
	b	.LBB8_3
.Ltmp205:
.LBB8_3:                                @   in Loop: Header=BB8_1 Depth=1
	.loc	7 110 14                        @ rt-thread/components/net/lwip-2.0.2/src/core/udp.c:110:14
	movw	r0, :lower16:udp_pcbs
	movt	r0, :upper16:udp_pcbs
	ldr	r0, [r0]
	.loc	7 110 12 is_stmt 0              @ rt-thread/components/net/lwip-2.0.2/src/core/udp.c:110:12
	str	r0, [sp]
	.loc	7 110 8                         @ rt-thread/components/net/lwip-2.0.2/src/core/udp.c:110:8
	b	.LBB8_4
.LBB8_4:                                @   Parent Loop BB8_1 Depth=1
                                        @ =>  This Inner Loop Header: Depth=2
.Ltmp206:
	.loc	7 110 24                        @ rt-thread/components/net/lwip-2.0.2/src/core/udp.c:110:24
	ldr	r0, [sp]
.Ltmp207:
	.loc	7 110 3                         @ rt-thread/components/net/lwip-2.0.2/src/core/udp.c:110:3
	cbz	r0, .LBB8_11
	b	.LBB8_5
.LBB8_5:                                @   in Loop: Header=BB8_4 Depth=2
.Ltmp208:
	.loc	7 111 9 is_stmt 1               @ rt-thread/components/net/lwip-2.0.2/src/core/udp.c:111:9
	ldr	r0, [sp]
	.loc	7 111 14 is_stmt 0              @ rt-thread/components/net/lwip-2.0.2/src/core/udp.c:111:14
	ldrh	r0, [r0, #18]
	.loc	7 111 28                        @ rt-thread/components/net/lwip-2.0.2/src/core/udp.c:111:28
	movw	r1, :lower16:udp_port
	movt	r1, :upper16:udp_port
	ldrh	r1, [r1]
.Ltmp209:
	.loc	7 111 9                         @ rt-thread/components/net/lwip-2.0.2/src/core/udp.c:111:9
	cmp	r0, r1
	bne	.LBB8_9
	b	.LBB8_6
.LBB8_6:                                @   in Loop: Header=BB8_1 Depth=1
.Ltmp210:
	.loc	7 112 11 is_stmt 1              @ rt-thread/components/net/lwip-2.0.2/src/core/udp.c:112:11
	ldrh.w	r0, [sp, #4]
	adds	r0, #1
	strh.w	r0, [sp, #4]
	uxth	r0, r0
.Ltmp211:
	.loc	7 112 11 is_stmt 0              @ rt-thread/components/net/lwip-2.0.2/src/core/udp.c:112:11
	cmp.w	r0, #16384
	blt	.LBB8_8
	b	.LBB8_7
.LBB8_7:
	.loc	7 0 11                          @ rt-thread/components/net/lwip-2.0.2/src/core/udp.c:0:11
	movs	r0, #0
.Ltmp212:
	.loc	7 113 9 is_stmt 1               @ rt-thread/components/net/lwip-2.0.2/src/core/udp.c:113:9
	strh.w	r0, [sp, #6]
	b	.LBB8_12
.Ltmp213:
.LBB8_8:                                @   in Loop: Header=BB8_1 Depth=1
	.loc	7 115 7                         @ rt-thread/components/net/lwip-2.0.2/src/core/udp.c:115:7
	b	.LBB8_1
.Ltmp214:
.LBB8_9:                                @   in Loop: Header=BB8_4 Depth=2
	.loc	7 117 3                         @ rt-thread/components/net/lwip-2.0.2/src/core/udp.c:117:3
	b	.LBB8_10
.Ltmp215:
.LBB8_10:                               @   in Loop: Header=BB8_4 Depth=2
	.loc	7 110 43                        @ rt-thread/components/net/lwip-2.0.2/src/core/udp.c:110:43
	ldr	r0, [sp]
	.loc	7 110 48 is_stmt 0              @ rt-thread/components/net/lwip-2.0.2/src/core/udp.c:110:48
	ldr	r0, [r0, #12]
	.loc	7 110 41                        @ rt-thread/components/net/lwip-2.0.2/src/core/udp.c:110:41
	str	r0, [sp]
	.loc	7 110 3                         @ rt-thread/components/net/lwip-2.0.2/src/core/udp.c:110:3
	b	.LBB8_4
.Ltmp216:
.LBB8_11:
	.loc	7 118 10 is_stmt 1              @ rt-thread/components/net/lwip-2.0.2/src/core/udp.c:118:10
	movw	r0, :lower16:udp_port
	movt	r0, :upper16:udp_port
	ldrh	r0, [r0]
	.loc	7 118 3 is_stmt 0               @ rt-thread/components/net/lwip-2.0.2/src/core/udp.c:118:3
	strh.w	r0, [sp, #6]
	b	.LBB8_12
.LBB8_12:
	.loc	7 119 1 is_stmt 1               @ rt-thread/components/net/lwip-2.0.2/src/core/udp.c:119:1
	ldrh.w	r0, [sp, #6]
	add	sp, #8
	bx	lr
.Ltmp217:
.Lfunc_end8:
	.size	udp_new_port, .Lfunc_end8-udp_new_port
	.cfi_endproc
	.cantunwind
	.fnend
                                        @ -- End function
	.section	.text.udp_connect,"ax",%progbits
	.hidden	udp_connect                     @ -- Begin function udp_connect
	.globl	udp_connect
	.p2align	3
	.type	udp_connect,%function
	.code	16                              @ @udp_connect
	.thumb_func
udp_connect:
.Lfunc_begin9:
	.loc	7 982 0                         @ rt-thread/components/net/lwip-2.0.2/src/core/udp.c:982:0
	.fnstart
	.cfi_startproc
@ %bb.0:
	.save	{r7, lr}
	push	{r7, lr}
	.cfi_def_cfa_offset 8
	.cfi_offset lr, -4
	.cfi_offset r7, -8
	.pad	#32
	sub	sp, #32
	.cfi_def_cfa_offset 40
                                        @ kill: def $r3 killed $r2
	str	r0, [sp, #24]
	str	r1, [sp, #20]
	strh.w	r2, [sp, #18]
.Ltmp218:
	.loc	7 985 8 prologue_end            @ rt-thread/components/net/lwip-2.0.2/src/core/udp.c:985:8
	ldr	r0, [sp, #24]
	.loc	7 985 21 is_stmt 0              @ rt-thread/components/net/lwip-2.0.2/src/core/udp.c:985:21
	cbz	r0, .LBB9_2
	b	.LBB9_1
.LBB9_1:
	.loc	7 985 25                        @ rt-thread/components/net/lwip-2.0.2/src/core/udp.c:985:25
	ldr	r0, [sp, #20]
.Ltmp219:
	.loc	7 985 7                         @ rt-thread/components/net/lwip-2.0.2/src/core/udp.c:985:7
	cbnz	r0, .LBB9_3
	b	.LBB9_2
.LBB9_2:
	.loc	7 0 7                           @ rt-thread/components/net/lwip-2.0.2/src/core/udp.c:0:7
	movs	r0, #250
.Ltmp220:
	.loc	7 986 5 is_stmt 1               @ rt-thread/components/net/lwip-2.0.2/src/core/udp.c:986:5
	strb.w	r0, [sp, #31]
	b	.LBB9_17
.Ltmp221:
.LBB9_3:
	.loc	7 989 7                         @ rt-thread/components/net/lwip-2.0.2/src/core/udp.c:989:7
	ldr	r0, [sp, #24]
	.loc	7 989 12 is_stmt 0              @ rt-thread/components/net/lwip-2.0.2/src/core/udp.c:989:12
	ldrh	r0, [r0, #18]
.Ltmp222:
	.loc	7 989 7                         @ rt-thread/components/net/lwip-2.0.2/src/core/udp.c:989:7
	cbnz	r0, .LBB9_7
	b	.LBB9_4
.LBB9_4:
.Ltmp223:
	.loc	7 990 26 is_stmt 1              @ rt-thread/components/net/lwip-2.0.2/src/core/udp.c:990:26
	ldr	r1, [sp, #24]
	.loc	7 990 52 is_stmt 0              @ rt-thread/components/net/lwip-2.0.2/src/core/udp.c:990:52
	ldrh	r2, [r1, #18]
	.loc	7 990 17                        @ rt-thread/components/net/lwip-2.0.2/src/core/udp.c:990:17
	mov	r0, r1
	bl	udp_bind
	.loc	7 990 11                        @ rt-thread/components/net/lwip-2.0.2/src/core/udp.c:990:11
	strb.w	r0, [sp, #11]
.Ltmp224:
	.loc	7 991 9 is_stmt 1               @ rt-thread/components/net/lwip-2.0.2/src/core/udp.c:991:9
	ldrsb.w	r0, [sp, #11]
.Ltmp225:
	.loc	7 991 9 is_stmt 0               @ rt-thread/components/net/lwip-2.0.2/src/core/udp.c:991:9
	cbz	r0, .LBB9_6
	b	.LBB9_5
.LBB9_5:
.Ltmp226:
	.loc	7 992 14 is_stmt 1              @ rt-thread/components/net/lwip-2.0.2/src/core/udp.c:992:14
	ldrb.w	r0, [sp, #11]
	.loc	7 992 7 is_stmt 0               @ rt-thread/components/net/lwip-2.0.2/src/core/udp.c:992:7
	strb.w	r0, [sp, #31]
	b	.LBB9_17
.Ltmp227:
.LBB9_6:
	.loc	7 994 3 is_stmt 1               @ rt-thread/components/net/lwip-2.0.2/src/core/udp.c:994:3
	b	.LBB9_7
.Ltmp228:
.LBB9_7:
	.loc	7 996 3                         @ rt-thread/components/net/lwip-2.0.2/src/core/udp.c:996:3
	ldr	r0, [sp, #20]
	cbnz	r0, .LBB9_9
	b	.LBB9_8
.LBB9_8:
	.loc	7 0 3 is_stmt 0                 @ rt-thread/components/net/lwip-2.0.2/src/core/udp.c:0:3
	movs	r0, #0
	.loc	7 996 3                         @ rt-thread/components/net/lwip-2.0.2/src/core/udp.c:996:3
	str	r0, [sp, #4]                    @ 4-byte Spill
	b	.LBB9_10
.LBB9_9:
	ldr	r0, [sp, #20]
	ldr	r0, [r0]
	str	r0, [sp, #4]                    @ 4-byte Spill
	b	.LBB9_10
.LBB9_10:
	ldr	r0, [sp, #4]                    @ 4-byte Reload
	ldr	r1, [sp, #24]
	str	r0, [r1, #4]
	.loc	7 997 22 is_stmt 1              @ rt-thread/components/net/lwip-2.0.2/src/core/udp.c:997:22
	ldrh.w	r0, [sp, #18]
	.loc	7 997 3 is_stmt 0               @ rt-thread/components/net/lwip-2.0.2/src/core/udp.c:997:3
	ldr	r1, [sp, #24]
	.loc	7 997 20                        @ rt-thread/components/net/lwip-2.0.2/src/core/udp.c:997:20
	strh	r0, [r1, #20]
	.loc	7 998 3 is_stmt 1               @ rt-thread/components/net/lwip-2.0.2/src/core/udp.c:998:3
	ldr	r1, [sp, #24]
	.loc	7 998 14 is_stmt 0              @ rt-thread/components/net/lwip-2.0.2/src/core/udp.c:998:14
	ldrb	r0, [r1, #16]
	orr	r0, r0, #4
	strb	r0, [r1, #16]
.Ltmp229:
	.loc	7 1006 15 is_stmt 1             @ rt-thread/components/net/lwip-2.0.2/src/core/udp.c:1006:15
	movw	r0, :lower16:udp_pcbs
	movt	r0, :upper16:udp_pcbs
	ldr	r0, [r0]
	.loc	7 1006 13 is_stmt 0             @ rt-thread/components/net/lwip-2.0.2/src/core/udp.c:1006:13
	str	r0, [sp, #12]
	.loc	7 1006 8                        @ rt-thread/components/net/lwip-2.0.2/src/core/udp.c:1006:8
	b	.LBB9_11
.LBB9_11:                               @ =>This Inner Loop Header: Depth=1
.Ltmp230:
	.loc	7 1006 25                       @ rt-thread/components/net/lwip-2.0.2/src/core/udp.c:1006:25
	ldr	r0, [sp, #12]
.Ltmp231:
	.loc	7 1006 3                        @ rt-thread/components/net/lwip-2.0.2/src/core/udp.c:1006:3
	cbz	r0, .LBB9_16
	b	.LBB9_12
.LBB9_12:                               @   in Loop: Header=BB9_11 Depth=1
.Ltmp232:
	.loc	7 1007 9 is_stmt 1              @ rt-thread/components/net/lwip-2.0.2/src/core/udp.c:1007:9
	ldr	r0, [sp, #24]
	.loc	7 1007 16 is_stmt 0             @ rt-thread/components/net/lwip-2.0.2/src/core/udp.c:1007:16
	ldr	r1, [sp, #12]
.Ltmp233:
	.loc	7 1007 9                        @ rt-thread/components/net/lwip-2.0.2/src/core/udp.c:1007:9
	cmp	r0, r1
	bne	.LBB9_14
	b	.LBB9_13
.LBB9_13:
	.loc	7 0 9                           @ rt-thread/components/net/lwip-2.0.2/src/core/udp.c:0:9
	movs	r0, #0
.Ltmp234:
	.loc	7 1009 7 is_stmt 1              @ rt-thread/components/net/lwip-2.0.2/src/core/udp.c:1009:7
	strb.w	r0, [sp, #31]
	b	.LBB9_17
.Ltmp235:
.LBB9_14:                               @   in Loop: Header=BB9_11 Depth=1
	.loc	7 1011 3                        @ rt-thread/components/net/lwip-2.0.2/src/core/udp.c:1011:3
	b	.LBB9_15
.Ltmp236:
.LBB9_15:                               @   in Loop: Header=BB9_11 Depth=1
	.loc	7 1006 46                       @ rt-thread/components/net/lwip-2.0.2/src/core/udp.c:1006:46
	ldr	r0, [sp, #12]
	.loc	7 1006 52 is_stmt 0             @ rt-thread/components/net/lwip-2.0.2/src/core/udp.c:1006:52
	ldr	r0, [r0, #12]
	.loc	7 1006 44                       @ rt-thread/components/net/lwip-2.0.2/src/core/udp.c:1006:44
	str	r0, [sp, #12]
	.loc	7 1006 3                        @ rt-thread/components/net/lwip-2.0.2/src/core/udp.c:1006:3
	b	.LBB9_11
.Ltmp237:
.LBB9_16:
	.loc	7 1013 15 is_stmt 1             @ rt-thread/components/net/lwip-2.0.2/src/core/udp.c:1013:15
	movw	r1, :lower16:udp_pcbs
	movt	r1, :upper16:udp_pcbs
	ldr	r0, [r1]
	.loc	7 1013 3 is_stmt 0              @ rt-thread/components/net/lwip-2.0.2/src/core/udp.c:1013:3
	ldr	r2, [sp, #24]
	.loc	7 1013 13                       @ rt-thread/components/net/lwip-2.0.2/src/core/udp.c:1013:13
	str	r0, [r2, #12]
	.loc	7 1014 14 is_stmt 1             @ rt-thread/components/net/lwip-2.0.2/src/core/udp.c:1014:14
	ldr	r0, [sp, #24]
	.loc	7 1014 12 is_stmt 0             @ rt-thread/components/net/lwip-2.0.2/src/core/udp.c:1014:12
	str	r0, [r1]
	movs	r0, #0
	.loc	7 1015 3 is_stmt 1              @ rt-thread/components/net/lwip-2.0.2/src/core/udp.c:1015:3
	strb.w	r0, [sp, #31]
	b	.LBB9_17
.LBB9_17:
	.loc	7 1016 1                        @ rt-thread/components/net/lwip-2.0.2/src/core/udp.c:1016:1
	ldrsb.w	r0, [sp, #31]
	add	sp, #32
	pop	{r7, pc}
.Ltmp238:
.Lfunc_end9:
	.size	udp_connect, .Lfunc_end9-udp_connect
	.cfi_endproc
	.cantunwind
	.fnend
                                        @ -- End function
	.section	.text.udp_disconnect,"ax",%progbits
	.hidden	udp_disconnect                  @ -- Begin function udp_disconnect
	.globl	udp_disconnect
	.p2align	3
	.type	udp_disconnect,%function
	.code	16                              @ @udp_disconnect
	.thumb_func
udp_disconnect:
.Lfunc_begin10:
	.loc	7 1026 0                        @ rt-thread/components/net/lwip-2.0.2/src/core/udp.c:1026:0
	.fnstart
	.cfi_startproc
@ %bb.0:
	.pad	#4
	sub	sp, #4
	.cfi_def_cfa_offset 4
	str	r0, [sp]
.Ltmp239:
	.loc	7 1033 5 prologue_end           @ rt-thread/components/net/lwip-2.0.2/src/core/udp.c:1033:5
	ldr	r1, [sp]
	movs	r0, #0
	str	r0, [r1, #4]
	.loc	7 1037 3                        @ rt-thread/components/net/lwip-2.0.2/src/core/udp.c:1037:3
	ldr	r1, [sp]
	.loc	7 1037 20 is_stmt 0             @ rt-thread/components/net/lwip-2.0.2/src/core/udp.c:1037:20
	strh	r0, [r1, #20]
	.loc	7 1039 3 is_stmt 1              @ rt-thread/components/net/lwip-2.0.2/src/core/udp.c:1039:3
	ldr	r1, [sp]
	.loc	7 1039 14 is_stmt 0             @ rt-thread/components/net/lwip-2.0.2/src/core/udp.c:1039:14
	ldrb	r0, [r1, #16]
	and	r0, r0, #251
	strb	r0, [r1, #16]
	.loc	7 1040 1 is_stmt 1              @ rt-thread/components/net/lwip-2.0.2/src/core/udp.c:1040:1
	add	sp, #4
	bx	lr
.Ltmp240:
.Lfunc_end10:
	.size	udp_disconnect, .Lfunc_end10-udp_disconnect
	.cfi_endproc
	.cantunwind
	.fnend
                                        @ -- End function
	.section	.text.udp_recv,"ax",%progbits
	.hidden	udp_recv                        @ -- Begin function udp_recv
	.globl	udp_recv
	.p2align	3
	.type	udp_recv,%function
	.code	16                              @ @udp_recv
	.thumb_func
udp_recv:
.Lfunc_begin11:
	.loc	7 1054 0                        @ rt-thread/components/net/lwip-2.0.2/src/core/udp.c:1054:0
	.fnstart
	.cfi_startproc
@ %bb.0:
	.pad	#12
	sub	sp, #12
	.cfi_def_cfa_offset 12
	str	r0, [sp, #8]
	str	r1, [sp, #4]
	str	r2, [sp]
.Ltmp241:
	.loc	7 1056 15 prologue_end          @ rt-thread/components/net/lwip-2.0.2/src/core/udp.c:1056:15
	ldr	r0, [sp, #4]
	.loc	7 1056 3 is_stmt 0              @ rt-thread/components/net/lwip-2.0.2/src/core/udp.c:1056:3
	ldr	r1, [sp, #8]
	.loc	7 1056 13                       @ rt-thread/components/net/lwip-2.0.2/src/core/udp.c:1056:13
	str	r0, [r1, #32]
	.loc	7 1057 19 is_stmt 1             @ rt-thread/components/net/lwip-2.0.2/src/core/udp.c:1057:19
	ldr	r0, [sp]
	.loc	7 1057 3 is_stmt 0              @ rt-thread/components/net/lwip-2.0.2/src/core/udp.c:1057:3
	ldr	r1, [sp, #8]
	.loc	7 1057 17                       @ rt-thread/components/net/lwip-2.0.2/src/core/udp.c:1057:17
	str	r0, [r1, #36]
	.loc	7 1058 1 is_stmt 1              @ rt-thread/components/net/lwip-2.0.2/src/core/udp.c:1058:1
	add	sp, #12
	bx	lr
.Ltmp242:
.Lfunc_end11:
	.size	udp_recv, .Lfunc_end11-udp_recv
	.cfi_endproc
	.cantunwind
	.fnend
                                        @ -- End function
	.section	.text.udp_remove,"ax",%progbits
	.hidden	udp_remove                      @ -- Begin function udp_remove
	.globl	udp_remove
	.p2align	3
	.type	udp_remove,%function
	.code	16                              @ @udp_remove
	.thumb_func
udp_remove:
.Lfunc_begin12:
	.loc	7 1071 0                        @ rt-thread/components/net/lwip-2.0.2/src/core/udp.c:1071:0
	.fnstart
	.cfi_startproc
@ %bb.0:
	.save	{r7, lr}
	push	{r7, lr}
	.cfi_def_cfa_offset 8
	.cfi_offset lr, -4
	.cfi_offset r7, -8
	.pad	#8
	sub	sp, #8
	.cfi_def_cfa_offset 16
	str	r0, [sp, #4]
.Ltmp243:
	.loc	7 1076 7 prologue_end           @ rt-thread/components/net/lwip-2.0.2/src/core/udp.c:1076:7
	movw	r0, :lower16:udp_pcbs
	movt	r0, :upper16:udp_pcbs
	ldr	r0, [r0]
	.loc	7 1076 19 is_stmt 0             @ rt-thread/components/net/lwip-2.0.2/src/core/udp.c:1076:19
	ldr	r1, [sp, #4]
.Ltmp244:
	.loc	7 1076 7                        @ rt-thread/components/net/lwip-2.0.2/src/core/udp.c:1076:7
	cmp	r0, r1
	bne	.LBB12_2
	b	.LBB12_1
.LBB12_1:
.Ltmp245:
	.loc	7 1078 16 is_stmt 1             @ rt-thread/components/net/lwip-2.0.2/src/core/udp.c:1078:16
	movw	r1, :lower16:udp_pcbs
	movt	r1, :upper16:udp_pcbs
	ldr	r0, [r1]
	.loc	7 1078 26 is_stmt 0             @ rt-thread/components/net/lwip-2.0.2/src/core/udp.c:1078:26
	ldr	r0, [r0, #12]
	.loc	7 1078 14                       @ rt-thread/components/net/lwip-2.0.2/src/core/udp.c:1078:14
	str	r0, [r1]
	.loc	7 1080 3 is_stmt 1              @ rt-thread/components/net/lwip-2.0.2/src/core/udp.c:1080:3
	b	.LBB12_10
.Ltmp246:
.LBB12_2:
	.loc	7 1081 17                       @ rt-thread/components/net/lwip-2.0.2/src/core/udp.c:1081:17
	movw	r0, :lower16:udp_pcbs
	movt	r0, :upper16:udp_pcbs
	ldr	r0, [r0]
	.loc	7 1081 15 is_stmt 0             @ rt-thread/components/net/lwip-2.0.2/src/core/udp.c:1081:15
	str	r0, [sp]
	.loc	7 1081 10                       @ rt-thread/components/net/lwip-2.0.2/src/core/udp.c:1081:10
	b	.LBB12_3
.LBB12_3:                               @ =>This Inner Loop Header: Depth=1
.Ltmp247:
	.loc	7 1081 27                       @ rt-thread/components/net/lwip-2.0.2/src/core/udp.c:1081:27
	ldr	r0, [sp]
.Ltmp248:
	.loc	7 1081 5                        @ rt-thread/components/net/lwip-2.0.2/src/core/udp.c:1081:5
	cbz	r0, .LBB12_9
	b	.LBB12_4
.LBB12_4:                               @   in Loop: Header=BB12_3 Depth=1
.Ltmp249:
	.loc	7 1083 11 is_stmt 1             @ rt-thread/components/net/lwip-2.0.2/src/core/udp.c:1083:11
	ldr	r0, [sp]
	.loc	7 1083 17 is_stmt 0             @ rt-thread/components/net/lwip-2.0.2/src/core/udp.c:1083:17
	ldr	r0, [r0, #12]
	.loc	7 1083 30                       @ rt-thread/components/net/lwip-2.0.2/src/core/udp.c:1083:30
	cbz	r0, .LBB12_7
	b	.LBB12_5
.LBB12_5:                               @   in Loop: Header=BB12_3 Depth=1
	.loc	7 1083 33                       @ rt-thread/components/net/lwip-2.0.2/src/core/udp.c:1083:33
	ldr	r0, [sp]
	.loc	7 1083 39                       @ rt-thread/components/net/lwip-2.0.2/src/core/udp.c:1083:39
	ldr	r0, [r0, #12]
	.loc	7 1083 47                       @ rt-thread/components/net/lwip-2.0.2/src/core/udp.c:1083:47
	ldr	r1, [sp, #4]
.Ltmp250:
	.loc	7 1083 11                       @ rt-thread/components/net/lwip-2.0.2/src/core/udp.c:1083:11
	cmp	r0, r1
	bne	.LBB12_7
	b	.LBB12_6
.LBB12_6:
.Ltmp251:
	.loc	7 1085 22 is_stmt 1             @ rt-thread/components/net/lwip-2.0.2/src/core/udp.c:1085:22
	ldr	r0, [sp, #4]
	.loc	7 1085 27 is_stmt 0             @ rt-thread/components/net/lwip-2.0.2/src/core/udp.c:1085:27
	ldr	r0, [r0, #12]
	.loc	7 1085 9                        @ rt-thread/components/net/lwip-2.0.2/src/core/udp.c:1085:9
	ldr	r1, [sp]
	.loc	7 1085 20                       @ rt-thread/components/net/lwip-2.0.2/src/core/udp.c:1085:20
	str	r0, [r1, #12]
	.loc	7 1086 9 is_stmt 1              @ rt-thread/components/net/lwip-2.0.2/src/core/udp.c:1086:9
	b	.LBB12_9
.Ltmp252:
.LBB12_7:                               @   in Loop: Header=BB12_3 Depth=1
	.loc	7 1088 5                        @ rt-thread/components/net/lwip-2.0.2/src/core/udp.c:1088:5
	b	.LBB12_8
.Ltmp253:
.LBB12_8:                               @   in Loop: Header=BB12_3 Depth=1
	.loc	7 1081 48                       @ rt-thread/components/net/lwip-2.0.2/src/core/udp.c:1081:48
	ldr	r0, [sp]
	.loc	7 1081 54 is_stmt 0             @ rt-thread/components/net/lwip-2.0.2/src/core/udp.c:1081:54
	ldr	r0, [r0, #12]
	.loc	7 1081 46                       @ rt-thread/components/net/lwip-2.0.2/src/core/udp.c:1081:46
	str	r0, [sp]
	.loc	7 1081 5                        @ rt-thread/components/net/lwip-2.0.2/src/core/udp.c:1081:5
	b	.LBB12_3
.Ltmp254:
.LBB12_9:
	.loc	7 0 5                           @ rt-thread/components/net/lwip-2.0.2/src/core/udp.c:0:5
	b	.LBB12_10
.LBB12_10:
	.loc	7 1090 27 is_stmt 1             @ rt-thread/components/net/lwip-2.0.2/src/core/udp.c:1090:27
	ldr	r1, [sp, #4]
	movs	r0, #1
	.loc	7 1090 3 is_stmt 0              @ rt-thread/components/net/lwip-2.0.2/src/core/udp.c:1090:3
	bl	memp_free
	.loc	7 1091 1 is_stmt 1              @ rt-thread/components/net/lwip-2.0.2/src/core/udp.c:1091:1
	add	sp, #8
	pop	{r7, pc}
.Ltmp255:
.Lfunc_end12:
	.size	udp_remove, .Lfunc_end12-udp_remove
	.cfi_endproc
	.cantunwind
	.fnend
                                        @ -- End function
	.section	.text.udp_new,"ax",%progbits
	.hidden	udp_new                         @ -- Begin function udp_new
	.globl	udp_new
	.p2align	3
	.type	udp_new,%function
	.code	16                              @ @udp_new
	.thumb_func
udp_new:
.Lfunc_begin13:
	.loc	7 1104 0                        @ rt-thread/components/net/lwip-2.0.2/src/core/udp.c:1104:0
	.fnstart
	.cfi_startproc
@ %bb.0:
	.save	{r7, lr}
	push	{r7, lr}
	.cfi_def_cfa_offset 8
	.cfi_offset lr, -4
	.cfi_offset r7, -8
	.pad	#8
	sub	sp, #8
	.cfi_def_cfa_offset 16
.Ltmp256:
	.loc	7 1106 27 prologue_end          @ rt-thread/components/net/lwip-2.0.2/src/core/udp.c:1106:27
	movw	r1, :lower16:.L.str.1
	movt	r1, :upper16:.L.str.1
	movs	r0, #1
	movw	r2, #1106
	bl	memp_malloc_fn
	.loc	7 1106 7 is_stmt 0              @ rt-thread/components/net/lwip-2.0.2/src/core/udp.c:1106:7
	str	r0, [sp, #4]
.Ltmp257:
	.loc	7 1108 7 is_stmt 1              @ rt-thread/components/net/lwip-2.0.2/src/core/udp.c:1108:7
	ldr	r0, [sp, #4]
.Ltmp258:
	.loc	7 1108 7 is_stmt 0              @ rt-thread/components/net/lwip-2.0.2/src/core/udp.c:1108:7
	cbz	r0, .LBB13_4
	b	.LBB13_1
.LBB13_1:
.Ltmp259:
	.loc	7 1113 12 is_stmt 1             @ rt-thread/components/net/lwip-2.0.2/src/core/udp.c:1113:12
	ldr	r0, [sp, #4]
	movs	r1, #40
	.loc	7 1113 5 is_stmt 0              @ rt-thread/components/net/lwip-2.0.2/src/core/udp.c:1113:5
	bl	__aeabi_memclr4
	.loc	7 1114 5 is_stmt 1              @ rt-thread/components/net/lwip-2.0.2/src/core/udp.c:1114:5
	ldr	r1, [sp, #4]
	movs	r0, #255
	.loc	7 1114 14 is_stmt 0             @ rt-thread/components/net/lwip-2.0.2/src/core/udp.c:1114:14
	strb	r0, [r1, #10]
	.loc	7 1116 5 is_stmt 1              @ rt-thread/components/net/lwip-2.0.2/src/core/udp.c:1116:5
	b	.LBB13_2
.LBB13_2:
.Ltmp260:
	.loc	7 1116 5 is_stmt 0              @ rt-thread/components/net/lwip-2.0.2/src/core/udp.c:1116:5
	ldr	r1, [sp, #4]
	movs	r0, #255
	strb	r0, [r1, #28]
	b	.LBB13_3
.Ltmp261:
.LBB13_3:
	.loc	7 1118 3 is_stmt 1              @ rt-thread/components/net/lwip-2.0.2/src/core/udp.c:1118:3
	b	.LBB13_4
.Ltmp262:
.LBB13_4:
	.loc	7 1119 10                       @ rt-thread/components/net/lwip-2.0.2/src/core/udp.c:1119:10
	ldr	r0, [sp, #4]
	.loc	7 1119 3 is_stmt 0              @ rt-thread/components/net/lwip-2.0.2/src/core/udp.c:1119:3
	add	sp, #8
	pop	{r7, pc}
.Ltmp263:
.Lfunc_end13:
	.size	udp_new, .Lfunc_end13-udp_new
	.cfi_endproc
	.cantunwind
	.fnend
                                        @ -- End function
	.section	.text.udp_new_ip_type,"ax",%progbits
	.hidden	udp_new_ip_type                 @ -- Begin function udp_new_ip_type
	.globl	udp_new_ip_type
	.p2align	3
	.type	udp_new_ip_type,%function
	.code	16                              @ @udp_new_ip_type
	.thumb_func
udp_new_ip_type:
.Lfunc_begin14:
	.loc	7 1136 0 is_stmt 1              @ rt-thread/components/net/lwip-2.0.2/src/core/udp.c:1136:0
	.fnstart
	.cfi_startproc
@ %bb.0:
	.save	{r7, lr}
	push	{r7, lr}
	.cfi_def_cfa_offset 8
	.cfi_offset lr, -4
	.cfi_offset r7, -8
	.pad	#8
	sub	sp, #8
	.cfi_def_cfa_offset 16
                                        @ kill: def $r1 killed $r0
	strb.w	r0, [sp, #7]
.Ltmp264:
	.loc	7 1138 9 prologue_end           @ rt-thread/components/net/lwip-2.0.2/src/core/udp.c:1138:9
	bl	udp_new
	.loc	7 1138 7 is_stmt 0              @ rt-thread/components/net/lwip-2.0.2/src/core/udp.c:1138:7
	str	r0, [sp]
	.loc	7 1147 10 is_stmt 1             @ rt-thread/components/net/lwip-2.0.2/src/core/udp.c:1147:10
	ldr	r0, [sp]
	.loc	7 1147 3 is_stmt 0              @ rt-thread/components/net/lwip-2.0.2/src/core/udp.c:1147:3
	add	sp, #8
	pop	{r7, pc}
.Ltmp265:
.Lfunc_end14:
	.size	udp_new_ip_type, .Lfunc_end14-udp_new_ip_type
	.cfi_endproc
	.cantunwind
	.fnend
                                        @ -- End function
	.section	.text.udp_netif_ip_addr_changed,"ax",%progbits
	.hidden	udp_netif_ip_addr_changed       @ -- Begin function udp_netif_ip_addr_changed
	.globl	udp_netif_ip_addr_changed
	.p2align	3
	.type	udp_netif_ip_addr_changed,%function
	.code	16                              @ @udp_netif_ip_addr_changed
	.thumb_func
udp_netif_ip_addr_changed:
.Lfunc_begin15:
	.loc	7 1156 0 is_stmt 1              @ rt-thread/components/net/lwip-2.0.2/src/core/udp.c:1156:0
	.fnstart
	.cfi_startproc
@ %bb.0:
	.pad	#12
	sub	sp, #12
	.cfi_def_cfa_offset 12
	str	r0, [sp, #8]
	str	r1, [sp, #4]
.Ltmp266:
	.loc	7 1159 8 prologue_end           @ rt-thread/components/net/lwip-2.0.2/src/core/udp.c:1159:8
	ldr	r0, [sp, #8]
	cbz	r0, .LBB15_11
	b	.LBB15_1
.LBB15_1:
	ldr	r0, [sp, #8]
	ldr	r0, [r0]
	.loc	7 1159 32 is_stmt 0             @ rt-thread/components/net/lwip-2.0.2/src/core/udp.c:1159:32
	cbz	r0, .LBB15_11
	b	.LBB15_2
.LBB15_2:
	.loc	7 1159 36                       @ rt-thread/components/net/lwip-2.0.2/src/core/udp.c:1159:36
	ldr	r0, [sp, #4]
	cbz	r0, .LBB15_11
	b	.LBB15_3
.LBB15_3:
	ldr	r0, [sp, #4]
	ldr	r0, [r0]
.Ltmp267:
	.loc	7 1159 7                        @ rt-thread/components/net/lwip-2.0.2/src/core/udp.c:1159:7
	cbz	r0, .LBB15_11
	b	.LBB15_4
.LBB15_4:
.Ltmp268:
	.loc	7 1160 17 is_stmt 1             @ rt-thread/components/net/lwip-2.0.2/src/core/udp.c:1160:17
	movw	r0, :lower16:udp_pcbs
	movt	r0, :upper16:udp_pcbs
	ldr	r0, [r0]
	.loc	7 1160 15 is_stmt 0             @ rt-thread/components/net/lwip-2.0.2/src/core/udp.c:1160:15
	str	r0, [sp]
	.loc	7 1160 10                       @ rt-thread/components/net/lwip-2.0.2/src/core/udp.c:1160:10
	b	.LBB15_5
.LBB15_5:                               @ =>This Inner Loop Header: Depth=1
.Ltmp269:
	.loc	7 1160 27                       @ rt-thread/components/net/lwip-2.0.2/src/core/udp.c:1160:27
	ldr	r0, [sp]
.Ltmp270:
	.loc	7 1160 5                        @ rt-thread/components/net/lwip-2.0.2/src/core/udp.c:1160:5
	cbz	r0, .LBB15_10
	b	.LBB15_6
.LBB15_6:                               @   in Loop: Header=BB15_5 Depth=1
.Ltmp271:
	.loc	7 1162 11 is_stmt 1             @ rt-thread/components/net/lwip-2.0.2/src/core/udp.c:1162:11
	ldr	r0, [sp]
	ldr	r0, [r0]
	ldr	r1, [sp, #8]
	ldr	r1, [r1]
.Ltmp272:
	.loc	7 1162 11 is_stmt 0             @ rt-thread/components/net/lwip-2.0.2/src/core/udp.c:1162:11
	cmp	r0, r1
	bne	.LBB15_8
	b	.LBB15_7
.LBB15_7:                               @   in Loop: Header=BB15_5 Depth=1
.Ltmp273:
	.loc	7 1165 9 is_stmt 1              @ rt-thread/components/net/lwip-2.0.2/src/core/udp.c:1165:9
	ldr	r0, [sp, #4]
	ldr	r0, [r0]
	ldr	r1, [sp]
	str	r0, [r1]
	.loc	7 1166 7                        @ rt-thread/components/net/lwip-2.0.2/src/core/udp.c:1166:7
	b	.LBB15_8
.Ltmp274:
.LBB15_8:                               @   in Loop: Header=BB15_5 Depth=1
	.loc	7 1167 5                        @ rt-thread/components/net/lwip-2.0.2/src/core/udp.c:1167:5
	b	.LBB15_9
.Ltmp275:
.LBB15_9:                               @   in Loop: Header=BB15_5 Depth=1
	.loc	7 1160 48                       @ rt-thread/components/net/lwip-2.0.2/src/core/udp.c:1160:48
	ldr	r0, [sp]
	.loc	7 1160 54 is_stmt 0             @ rt-thread/components/net/lwip-2.0.2/src/core/udp.c:1160:54
	ldr	r0, [r0, #12]
	.loc	7 1160 46                       @ rt-thread/components/net/lwip-2.0.2/src/core/udp.c:1160:46
	str	r0, [sp]
	.loc	7 1160 5                        @ rt-thread/components/net/lwip-2.0.2/src/core/udp.c:1160:5
	b	.LBB15_5
.Ltmp276:
.LBB15_10:
	.loc	7 1168 3 is_stmt 1              @ rt-thread/components/net/lwip-2.0.2/src/core/udp.c:1168:3
	b	.LBB15_11
.Ltmp277:
.LBB15_11:
	.loc	7 1169 1                        @ rt-thread/components/net/lwip-2.0.2/src/core/udp.c:1169:1
	add	sp, #12
	bx	lr
.Ltmp278:
.Lfunc_end15:
	.size	udp_netif_ip_addr_changed, .Lfunc_end15-udp_netif_ip_addr_changed
	.cfi_endproc
	.cantunwind
	.fnend
                                        @ -- End function
	.hidden	udp_pcbs                        @ @udp_pcbs
	.type	udp_pcbs,%object
	.section	.bss.udp_pcbs,"aw",%nobits
	.globl	udp_pcbs
	.p2align	2
udp_pcbs:
	.long	0
	.size	udp_pcbs, 4

	.type	.L.str,%object                  @ @.str
	.section	.rodata.str1.1,"aMS",%progbits,1
.L.str:
	.asciz	"pbuf_header failed\n"
	.size	.L.str, 20

	.type	.L.str.1,%object                @ @.str.1
.L.str.1:
	.asciz	"rt-thread/components/net/lwip-2.0.2/src/core/udp.c"
	.size	.L.str.1, 51

	.type	.L.str.2,%object                @ @.str.2
.L.str.2:
	.asciz	"check that first pbuf can hold struct udp_hdr"
	.size	.L.str.2, 46

	.type	udp_port,%object                @ @udp_port
	.section	.data.udp_port,"aw",%progbits
	.p2align	1
udp_port:
	.short	49152                           @ 0xc000
	.size	udp_port, 2

	.section	".note.GNU-stack","",%progbits
	.eabi_attribute	30, 6	@ Tag_ABI_optimization_goals
	.ARM_attribute	16, 1	@ Tag_AV_eba