	.text
	.syntax unified
	.eabi_attribute	67, "2.09"	@ Tag_conformance
	.cpu	cortex-m7
	.eabi_attribute	6, 13	@ Tag_CPU_arch
	.eabi_attribute	7, 77	@ Tag_CPU_arch_profile
	.eabi_attribute	8, 0	@ Tag_ARM_ISA_use
	.eabi_attribute	9, 2	@ Tag_THUMB_ISA_use
	.fpu	fpv5-d16
	.eabi_attribute	36, 1	@ Tag_FP_HP_extension
	.eabi_attribute	34, 1	@ Tag_CPU_unaligned_access
	.eabi_attribute	17, 1	@ Tag_ABI_PCS_GOT_use
	.eabi_attribute	20, 2	@ Tag_ABI_FP_denormal
	.eabi_attribute	21, 0	@ Tag_ABI_FP_exceptions
	.eabi_attribute	23, 1	@ Tag_ABI_FP_number_model
	.eabi_attribute	24, 1	@ Tag_ABI_align_needed
	.eabi_attribute	25, 1	@ Tag_ABI_align_preserved
	.eabi_attribute	28, 1	@ Tag_ABI_VFP_args
	.eabi_attribute	38, 1	@ Tag_ABI_FP_16bit_format
	.eabi_attribute	18, 2	@ Tag_ABI_PCS_wchar_t
	.eabi_attribute	26, 1	@ Tag_ABI_enum_size
	.eabi_attribute	14, 0	@ Tag_ABI_PCS_R9_use
	.file	"umqtt.c"
	.file	1 "E:\\Smart-access-control\\Hardware\\CODE" "rt-thread/include\\rtdef.h"
	.file	2 "E:\\Smart-access-control\\Hardware\\CODE" "packages/umqtt-latest/src/umqtt.c"
	.file	3 "E:\\Smart-access-control\\Hardware\\CODE" "./packages/umqtt-latest/inc\\umqtt.h"
	.file	4 "E:\\Smart-access-control\\Hardware\\CODE" "./packages/umqtt-latest/inc\\umqtt_internal.h"
	.file	5 "D:\\Keil_v5\\ARM\\ARMCLANG\\Bin\\..\\include" "string.h"
	.section	.text.umqtt_delete,"ax",%progbits
	.hidden	umqtt_delete                    @ -- Begin function umqtt_delete
	.globl	umqtt_delete
	.p2align	3
	.type	umqtt_delete,%function
	.code	16                              @ @umqtt_delete
	.thumb_func
umqtt_delete:
.Lfunc_begin0:
	.loc	2 1063 0                        @ packages/umqtt-latest/src/umqtt.c:1063:0
	.fnstart
	.cfi_sections .debug_frame
	.cfi_startproc
@ %bb.0:
	.save	{r7, lr}
	push	{r7, lr}
	.cfi_def_cfa_offset 8
	.cfi_offset lr, -4
	.cfi_offset r7, -8
	.pad	#40
	sub	sp, #40
	.cfi_def_cfa_offset 48
	str	r0, [sp, #32]
	movs	r0, #0
.Ltmp0:
	.loc	2 1064 9 prologue_end           @ packages/umqtt-latest/src/umqtt.c:1064:9
	str	r0, [sp, #28]
	.loc	2 1064 19 is_stmt 0             @ packages/umqtt-latest/src/umqtt.c:1064:19
	str	r0, [sp, #24]
	.loc	2 1065 33 is_stmt 1             @ packages/umqtt-latest/src/umqtt.c:1065:33
	str	r0, [sp, #20]
	.loc	2 1066 28                       @ packages/umqtt-latest/src/umqtt.c:1066:28
	str	r0, [sp, #16]
	.loc	2 1067 16                       @ packages/umqtt-latest/src/umqtt.c:1067:16
	str	r0, [sp, #12]
	.loc	2 1068 16                       @ packages/umqtt-latest/src/umqtt.c:1068:16
	str	r0, [sp, #8]
.Ltmp1:
	.loc	2 1069 9                        @ packages/umqtt-latest/src/umqtt.c:1069:9
	ldr	r0, [sp, #32]
.Ltmp2:
	.loc	2 1069 9 is_stmt 0              @ packages/umqtt-latest/src/umqtt.c:1069:9
	cbnz	r0, .LBB0_2
	b	.LBB0_1
.LBB0_1:
.Ltmp3:
	.loc	2 1070 16 is_stmt 1             @ packages/umqtt-latest/src/umqtt.c:1070:16
	ldr	r0, [sp, #28]
	.loc	2 1070 9 is_stmt 0              @ packages/umqtt-latest/src/umqtt.c:1070:9
	str	r0, [sp, #36]
	b	.LBB0_37
.Ltmp4:
.LBB0_2:
	.loc	2 1071 9 is_stmt 1              @ packages/umqtt-latest/src/umqtt.c:1071:9
	ldr	r0, [sp, #32]
	.loc	2 1071 17 is_stmt 0             @ packages/umqtt-latest/src/umqtt.c:1071:17
	ldr.w	r0, [r0, #180]
.Ltmp5:
	.loc	2 1071 9                        @ packages/umqtt-latest/src/umqtt.c:1071:9
	cbz	r0, .LBB0_4
	b	.LBB0_3
.LBB0_3:
.Ltmp6:
	.loc	2 1073 26 is_stmt 1             @ packages/umqtt-latest/src/umqtt.c:1073:26
	ldr	r0, [sp, #32]
	.loc	2 1073 34 is_stmt 0             @ packages/umqtt-latest/src/umqtt.c:1073:34
	ldr.w	r0, [r0, #180]
	.loc	2 1073 9                        @ packages/umqtt-latest/src/umqtt.c:1073:9
	bl	rt_thread_delete
	.loc	2 1074 9 is_stmt 1              @ packages/umqtt-latest/src/umqtt.c:1074:9
	ldr	r1, [sp, #32]
	movs	r0, #0
	.loc	2 1074 29 is_stmt 0             @ packages/umqtt-latest/src/umqtt.c:1074:29
	str.w	r0, [r1, #180]
	.loc	2 1075 9 is_stmt 1              @ packages/umqtt-latest/src/umqtt.c:1075:9
	ldr	r1, [sp, #32]
	.loc	2 1075 30 is_stmt 0             @ packages/umqtt-latest/src/umqtt.c:1075:30
	str.w	r0, [r1, #172]
	.loc	2 1076 5 is_stmt 1              @ packages/umqtt-latest/src/umqtt.c:1076:5
	b	.LBB0_4
.Ltmp7:
.LBB0_4:
	.loc	2 1077 9                        @ packages/umqtt-latest/src/umqtt.c:1077:9
	ldr	r0, [sp, #32]
	.loc	2 1077 17 is_stmt 0             @ packages/umqtt-latest/src/umqtt.c:1077:17
	ldr.w	r0, [r0, #136]
.Ltmp8:
	.loc	2 1077 9                        @ packages/umqtt-latest/src/umqtt.c:1077:9
	cbz	r0, .LBB0_6
	b	.LBB0_5
.LBB0_5:
.Ltmp9:
	.loc	2 1079 23 is_stmt 1             @ packages/umqtt-latest/src/umqtt.c:1079:23
	ldr	r0, [sp, #32]
	.loc	2 1079 31 is_stmt 0             @ packages/umqtt-latest/src/umqtt.c:1079:31
	ldr.w	r0, [r0, #136]
	.loc	2 1079 9                        @ packages/umqtt-latest/src/umqtt.c:1079:9
	bl	rt_timer_stop
	.loc	2 1080 25 is_stmt 1             @ packages/umqtt-latest/src/umqtt.c:1080:25
	ldr	r0, [sp, #32]
	.loc	2 1080 33 is_stmt 0             @ packages/umqtt-latest/src/umqtt.c:1080:33
	ldr.w	r0, [r0, #136]
	.loc	2 1080 9                        @ packages/umqtt-latest/src/umqtt.c:1080:9
	bl	rt_timer_delete
	.loc	2 1081 9 is_stmt 1              @ packages/umqtt-latest/src/umqtt.c:1081:9
	ldr	r1, [sp, #32]
	movs	r0, #0
	.loc	2 1081 30 is_stmt 0             @ packages/umqtt-latest/src/umqtt.c:1081:30
	str.w	r0, [r1, #136]
	.loc	2 1082 5 is_stmt 1              @ packages/umqtt-latest/src/umqtt.c:1082:5
	b	.LBB0_6
.Ltmp10:
.LBB0_6:
	.loc	2 1083 9                        @ packages/umqtt-latest/src/umqtt.c:1083:9
	ldr	r0, [sp, #32]
	.loc	2 1083 17 is_stmt 0             @ packages/umqtt-latest/src/umqtt.c:1083:17
	ldr.w	r0, [r0, #132]
.Ltmp11:
	.loc	2 1083 9                        @ packages/umqtt-latest/src/umqtt.c:1083:9
	cbz	r0, .LBB0_8
	b	.LBB0_7
.LBB0_7:
.Ltmp12:
	.loc	2 1085 22 is_stmt 1             @ packages/umqtt-latest/src/umqtt.c:1085:22
	ldr	r0, [sp, #32]
	.loc	2 1085 30 is_stmt 0             @ packages/umqtt-latest/src/umqtt.c:1085:30
	ldr.w	r0, [r0, #132]
	.loc	2 1085 9                        @ packages/umqtt-latest/src/umqtt.c:1085:9
	bl	rt_mq_delete
	.loc	2 1086 9 is_stmt 1              @ packages/umqtt-latest/src/umqtt.c:1086:9
	ldr	r1, [sp, #32]
	movs	r0, #0
	.loc	2 1086 27 is_stmt 0             @ packages/umqtt-latest/src/umqtt.c:1086:27
	str.w	r0, [r1, #132]
	.loc	2 1087 5 is_stmt 1              @ packages/umqtt-latest/src/umqtt.c:1087:5
	b	.LBB0_8
.Ltmp13:
.LBB0_8:
	.loc	2 1088 24                       @ packages/umqtt-latest/src/umqtt.c:1088:24
	ldr	r1, [sp, #32]
	movs	r0, #0
	.loc	2 1088 41 is_stmt 0             @ packages/umqtt-latest/src/umqtt.c:1088:41
	str	r0, [r1, #120]
	.loc	2 1088 5                        @ packages/umqtt-latest/src/umqtt.c:1088:5
	ldr	r1, [sp, #32]
	.loc	2 1088 22                       @ packages/umqtt-latest/src/umqtt.c:1088:22
	str	r0, [r1, #116]
.Ltmp14:
	.loc	2 1089 9 is_stmt 1              @ packages/umqtt-latest/src/umqtt.c:1089:9
	ldr	r0, [sp, #32]
	.loc	2 1089 17 is_stmt 0             @ packages/umqtt-latest/src/umqtt.c:1089:17
	ldr.w	r0, [r0, #128]
.Ltmp15:
	.loc	2 1089 9                        @ packages/umqtt-latest/src/umqtt.c:1089:9
	cbz	r0, .LBB0_10
	b	.LBB0_9
.LBB0_9:
.Ltmp16:
	.loc	2 1091 25 is_stmt 1             @ packages/umqtt-latest/src/umqtt.c:1091:25
	ldr	r0, [sp, #32]
	.loc	2 1091 33 is_stmt 0             @ packages/umqtt-latest/src/umqtt.c:1091:33
	ldr.w	r0, [r0, #128]
	.loc	2 1091 9                        @ packages/umqtt-latest/src/umqtt.c:1091:9
	bl	rt_mutex_delete
	.loc	2 1092 9 is_stmt 1              @ packages/umqtt-latest/src/umqtt.c:1092:9
	ldr	r1, [sp, #32]
	movs	r0, #0
	.loc	2 1092 29 is_stmt 0             @ packages/umqtt-latest/src/umqtt.c:1092:29
	str.w	r0, [r1, #128]
	.loc	2 1093 5 is_stmt 1              @ packages/umqtt-latest/src/umqtt.c:1093:5
	b	.LBB0_10
.Ltmp17:
.LBB0_10:
	.loc	2 1094 9                        @ packages/umqtt-latest/src/umqtt.c:1094:9
	ldr	r0, [sp, #32]
	.loc	2 1094 17 is_stmt 0             @ packages/umqtt-latest/src/umqtt.c:1094:17
	ldr	r0, [r0, #112]
.Ltmp18:
	.loc	2 1094 9                        @ packages/umqtt-latest/src/umqtt.c:1094:9
	cbz	r0, .LBB0_12
	b	.LBB0_11
.LBB0_11:
.Ltmp19:
	.loc	2 1096 17 is_stmt 1             @ packages/umqtt-latest/src/umqtt.c:1096:17
	ldr	r0, [sp, #32]
	.loc	2 1096 25 is_stmt 0             @ packages/umqtt-latest/src/umqtt.c:1096:25
	ldr	r0, [r0, #112]
	.loc	2 1096 9                        @ packages/umqtt-latest/src/umqtt.c:1096:9
	bl	rt_free
	.loc	2 1097 9 is_stmt 1              @ packages/umqtt-latest/src/umqtt.c:1097:9
	ldr	r1, [sp, #32]
	movs	r0, #0
	.loc	2 1097 26 is_stmt 0             @ packages/umqtt-latest/src/umqtt.c:1097:26
	str	r0, [r1, #112]
	.loc	2 1098 5 is_stmt 1              @ packages/umqtt-latest/src/umqtt.c:1098:5
	b	.LBB0_12
.Ltmp20:
.LBB0_12:
	.loc	2 1099 9                        @ packages/umqtt-latest/src/umqtt.c:1099:9
	ldr	r0, [sp, #32]
	.loc	2 1099 17 is_stmt 0             @ packages/umqtt-latest/src/umqtt.c:1099:17
	ldr	r0, [r0, #108]
.Ltmp21:
	.loc	2 1099 9                        @ packages/umqtt-latest/src/umqtt.c:1099:9
	cbz	r0, .LBB0_14
	b	.LBB0_13
.LBB0_13:
.Ltmp22:
	.loc	2 1101 17 is_stmt 1             @ packages/umqtt-latest/src/umqtt.c:1101:17
	ldr	r0, [sp, #32]
	.loc	2 1101 25 is_stmt 0             @ packages/umqtt-latest/src/umqtt.c:1101:25
	ldr	r0, [r0, #108]
	.loc	2 1101 9                        @ packages/umqtt-latest/src/umqtt.c:1101:9
	bl	rt_free
	.loc	2 1102 9 is_stmt 1              @ packages/umqtt-latest/src/umqtt.c:1102:9
	ldr	r1, [sp, #32]
	movs	r0, #0
	.loc	2 1102 26 is_stmt 0             @ packages/umqtt-latest/src/umqtt.c:1102:26
	str	r0, [r1, #108]
	.loc	2 1103 5 is_stmt 1              @ packages/umqtt-latest/src/umqtt.c:1103:5
	b	.LBB0_14
.Ltmp23:
.LBB0_14:
	.loc	2 1104 34                       @ packages/umqtt-latest/src/umqtt.c:1104:34
	ldr	r0, [sp, #32]
	.loc	2 1104 42 is_stmt 0             @ packages/umqtt-latest/src/umqtt.c:1104:42
	adds	r0, #144
	.loc	2 1104 17                       @ packages/umqtt-latest/src/umqtt.c:1104:17
	bl	rt_list_isempty
	.loc	2 1104 15                       @ packages/umqtt-latest/src/umqtt.c:1104:15
	str	r0, [sp, #28]
.Ltmp24:
	.loc	2 1104 9                        @ packages/umqtt-latest/src/umqtt.c:1104:9
	cbnz	r0, .LBB0_22
	b	.LBB0_15
.LBB0_15:
.Ltmp25:
	.loc	2 1106 9 is_stmt 1              @ packages/umqtt-latest/src/umqtt.c:1106:9
	ldr	r0, [sp, #32]
	ldr.w	r0, [r0, #144]
	str	r0, [sp, #12]
	ldr	r0, [sp, #12]
	ldr	r0, [r0]
	str	r0, [sp, #8]
	b	.LBB0_16
.LBB0_16:                               @ =>This Inner Loop Header: Depth=1
.Ltmp26:
	.loc	2 1106 9 is_stmt 0              @ packages/umqtt-latest/src/umqtt.c:1106:9
	ldr	r0, [sp, #12]
	ldr	r1, [sp, #32]
	adds	r1, #144
.Ltmp27:
	.loc	2 1106 9                        @ packages/umqtt-latest/src/umqtt.c:1106:9
	cmp	r0, r1
	beq	.LBB0_21
	b	.LBB0_17
.LBB0_17:                               @   in Loop: Header=BB0_16 Depth=1
.Ltmp28:
	.loc	2 1108 24 is_stmt 1             @ packages/umqtt-latest/src/umqtt.c:1108:24
	ldr	r0, [sp, #12]
	subs	r0, #12
	.loc	2 1108 22 is_stmt 0             @ packages/umqtt-latest/src/umqtt.c:1108:22
	str	r0, [sp, #20]
.Ltmp29:
	.loc	2 1109 17 is_stmt 1             @ packages/umqtt-latest/src/umqtt.c:1109:17
	ldr	r0, [sp, #20]
	.loc	2 1109 27 is_stmt 0             @ packages/umqtt-latest/src/umqtt.c:1109:27
	ldr	r0, [r0]
.Ltmp30:
	.loc	2 1109 17                       @ packages/umqtt-latest/src/umqtt.c:1109:17
	cbz	r0, .LBB0_19
	b	.LBB0_18
.LBB0_18:                               @   in Loop: Header=BB0_16 Depth=1
.Ltmp31:
	.loc	2 1110 25 is_stmt 1             @ packages/umqtt-latest/src/umqtt.c:1110:25
	ldr	r0, [sp, #20]
	.loc	2 1110 35 is_stmt 0             @ packages/umqtt-latest/src/umqtt.c:1110:35
	ldr	r0, [r0]
	.loc	2 1110 17                       @ packages/umqtt-latest/src/umqtt.c:1110:17
	bl	rt_free
	.loc	2 1111 17 is_stmt 1             @ packages/umqtt-latest/src/umqtt.c:1111:17
	ldr	r1, [sp, #20]
	movs	r0, #0
	.loc	2 1111 39 is_stmt 0             @ packages/umqtt-latest/src/umqtt.c:1111:39
	str	r0, [r1]
	.loc	2 1112 17 is_stmt 1             @ packages/umqtt-latest/src/umqtt.c:1112:17
	ldr	r1, [sp, #20]
	.loc	2 1112 36 is_stmt 0             @ packages/umqtt-latest/src/umqtt.c:1112:36
	str	r0, [r1, #4]
	.loc	2 1113 13 is_stmt 1             @ packages/umqtt-latest/src/umqtt.c:1113:13
	b	.LBB0_19
.Ltmp32:
.LBB0_19:                               @   in Loop: Header=BB0_16 Depth=1
	.loc	2 1114 30                       @ packages/umqtt-latest/src/umqtt.c:1114:30
	ldr	r0, [sp, #20]
	.loc	2 1114 40 is_stmt 0             @ packages/umqtt-latest/src/umqtt.c:1114:40
	adds	r0, #12
	.loc	2 1114 13                       @ packages/umqtt-latest/src/umqtt.c:1114:13
	bl	rt_list_remove
	.loc	2 1115 21 is_stmt 1             @ packages/umqtt-latest/src/umqtt.c:1115:21
	ldr	r0, [sp, #20]
	.loc	2 1115 13 is_stmt 0             @ packages/umqtt-latest/src/umqtt.c:1115:13
	bl	rt_free
	movs	r0, #0
	.loc	2 1115 41                       @ packages/umqtt-latest/src/umqtt.c:1115:41
	str	r0, [sp, #20]
	.loc	2 1116 9 is_stmt 1              @ packages/umqtt-latest/src/umqtt.c:1116:9
	b	.LBB0_20
.Ltmp33:
.LBB0_20:                               @   in Loop: Header=BB0_16 Depth=1
	.loc	2 1106 9                        @ packages/umqtt-latest/src/umqtt.c:1106:9
	ldr	r0, [sp, #8]
	str	r0, [sp, #12]
	ldr	r0, [sp, #12]
	ldr	r0, [r0]
	str	r0, [sp, #8]
	b	.LBB0_16
.Ltmp34:
.LBB0_21:
	.loc	2 1117 5                        @ packages/umqtt-latest/src/umqtt.c:1117:5
	b	.LBB0_22
.Ltmp35:
.LBB0_22:
	.loc	2 1119 10                       @ packages/umqtt-latest/src/umqtt.c:1119:10
	ldr	r0, [sp, #28]
	.loc	2 1119 35 is_stmt 0             @ packages/umqtt-latest/src/umqtt.c:1119:35
	str	r0, [sp, #4]                    @ 4-byte Spill
	ldr	r0, [sp, #32]
	.loc	2 1119 43                       @ packages/umqtt-latest/src/umqtt.c:1119:43
	adds	r0, #152
	.loc	2 1119 18                       @ packages/umqtt-latest/src/umqtt.c:1119:18
	bl	rt_list_isempty
	mov	r1, r0
.Ltmp36:
	.loc	2 1119 9                        @ packages/umqtt-latest/src/umqtt.c:1119:9
	ldr	r0, [sp, #4]                    @ 4-byte Reload
	cmp	r0, r1
	beq	.LBB0_32
	b	.LBB0_23
.LBB0_23:
.Ltmp37:
	.loc	2 1121 9 is_stmt 1              @ packages/umqtt-latest/src/umqtt.c:1121:9
	ldr	r0, [sp, #32]
	ldr.w	r0, [r0, #152]
	str	r0, [sp, #12]
	ldr	r0, [sp, #12]
	ldr	r0, [r0]
	str	r0, [sp, #8]
	b	.LBB0_24
.LBB0_24:                               @ =>This Inner Loop Header: Depth=1
.Ltmp38:
	.loc	2 1121 9 is_stmt 0              @ packages/umqtt-latest/src/umqtt.c:1121:9
	ldr	r0, [sp, #12]
	ldr	r1, [sp, #32]
	adds	r1, #152
.Ltmp39:
	.loc	2 1121 9                        @ packages/umqtt-latest/src/umqtt.c:1121:9
	cmp	r0, r1
	beq	.LBB0_31
	b	.LBB0_25
.LBB0_25:                               @   in Loop: Header=BB0_24 Depth=1
.Ltmp40:
	.loc	2 1123 21 is_stmt 1             @ packages/umqtt-latest/src/umqtt.c:1123:21
	ldr	r0, [sp, #12]
	subs	r0, #20
	.loc	2 1123 19 is_stmt 0             @ packages/umqtt-latest/src/umqtt.c:1123:19
	str	r0, [sp, #16]
.Ltmp41:
	.loc	2 1124 17 is_stmt 1             @ packages/umqtt-latest/src/umqtt.c:1124:17
	ldr	r0, [sp, #16]
	.loc	2 1124 24 is_stmt 0             @ packages/umqtt-latest/src/umqtt.c:1124:24
	ldr	r0, [r0, #4]
.Ltmp42:
	.loc	2 1124 17                       @ packages/umqtt-latest/src/umqtt.c:1124:17
	cbz	r0, .LBB0_27
	b	.LBB0_26
.LBB0_26:                               @   in Loop: Header=BB0_24 Depth=1
.Ltmp43:
	.loc	2 1124 46                       @ packages/umqtt-latest/src/umqtt.c:1124:46
	ldr	r0, [sp, #16]
	.loc	2 1124 53                       @ packages/umqtt-latest/src/umqtt.c:1124:53
	ldr	r0, [r0, #4]
	.loc	2 1124 38                       @ packages/umqtt-latest/src/umqtt.c:1124:38
	bl	rt_free
	.loc	2 1124 66                       @ packages/umqtt-latest/src/umqtt.c:1124:66
	ldr	r1, [sp, #16]
	movs	r0, #0
	.loc	2 1124 84                       @ packages/umqtt-latest/src/umqtt.c:1124:84
	str	r0, [r1, #4]
	.loc	2 1124 95                       @ packages/umqtt-latest/src/umqtt.c:1124:95
	b	.LBB0_27
.Ltmp44:
.LBB0_27:                               @   in Loop: Header=BB0_24 Depth=1
	.loc	2 1125 17 is_stmt 1             @ packages/umqtt-latest/src/umqtt.c:1125:17
	ldr	r0, [sp, #16]
	.loc	2 1125 24 is_stmt 0             @ packages/umqtt-latest/src/umqtt.c:1125:24
	ldr	r0, [r0, #12]
.Ltmp45:
	.loc	2 1125 17                       @ packages/umqtt-latest/src/umqtt.c:1125:17
	cbz	r0, .LBB0_29
	b	.LBB0_28
.LBB0_28:                               @   in Loop: Header=BB0_24 Depth=1
.Ltmp46:
	.loc	2 1125 43                       @ packages/umqtt-latest/src/umqtt.c:1125:43
	ldr	r0, [sp, #16]
	.loc	2 1125 50                       @ packages/umqtt-latest/src/umqtt.c:1125:50
	ldr	r0, [r0, #12]
	.loc	2 1125 35                       @ packages/umqtt-latest/src/umqtt.c:1125:35
	bl	rt_free
	.loc	2 1125 60                       @ packages/umqtt-latest/src/umqtt.c:1125:60
	ldr	r1, [sp, #16]
	movs	r0, #0
	.loc	2 1125 75                       @ packages/umqtt-latest/src/umqtt.c:1125:75
	str	r0, [r1, #12]
	.loc	2 1125 86                       @ packages/umqtt-latest/src/umqtt.c:1125:86
	b	.LBB0_29
.Ltmp47:
.LBB0_29:                               @   in Loop: Header=BB0_24 Depth=1
	.loc	2 1126 30 is_stmt 1             @ packages/umqtt-latest/src/umqtt.c:1126:30
	ldr	r0, [sp, #16]
	.loc	2 1126 37 is_stmt 0             @ packages/umqtt-latest/src/umqtt.c:1126:37
	adds	r0, #20
	.loc	2 1126 13                       @ packages/umqtt-latest/src/umqtt.c:1126:13
	bl	rt_list_remove
	.loc	2 1127 21 is_stmt 1             @ packages/umqtt-latest/src/umqtt.c:1127:21
	ldr	r0, [sp, #16]
	.loc	2 1127 13 is_stmt 0             @ packages/umqtt-latest/src/umqtt.c:1127:13
	bl	rt_free
	movs	r0, #0
	.loc	2 1127 35                       @ packages/umqtt-latest/src/umqtt.c:1127:35
	str	r0, [sp, #16]
	.loc	2 1128 9 is_stmt 1              @ packages/umqtt-latest/src/umqtt.c:1128:9
	b	.LBB0_30
.Ltmp48:
.LBB0_30:                               @   in Loop: Header=BB0_24 Depth=1
	.loc	2 1121 9                        @ packages/umqtt-latest/src/umqtt.c:1121:9
	ldr	r0, [sp, #8]
	str	r0, [sp, #12]
	ldr	r0, [sp, #12]
	ldr	r0, [r0]
	str	r0, [sp, #8]
	b	.LBB0_24
.Ltmp49:
.LBB0_31:
	.loc	2 1129 5                        @ packages/umqtt-latest/src/umqtt.c:1129:5
	b	.LBB0_32
.Ltmp50:
.LBB0_32:
	.loc	2 0 5 is_stmt 0                 @ packages/umqtt-latest/src/umqtt.c:0:5
	movs	r0, #0
.Ltmp51:
	.loc	2 1131 15 is_stmt 1             @ packages/umqtt-latest/src/umqtt.c:1131:15
	str	r0, [sp, #24]
	.loc	2 1131 10 is_stmt 0             @ packages/umqtt-latest/src/umqtt.c:1131:10
	b	.LBB0_33
.LBB0_33:                               @ =>This Inner Loop Header: Depth=1
.Ltmp52:
	.loc	2 1131 20                       @ packages/umqtt-latest/src/umqtt.c:1131:20
	ldr	r0, [sp, #24]
.Ltmp53:
	.loc	2 1131 5                        @ packages/umqtt-latest/src/umqtt.c:1131:5
	cmp	r0, #0
	bgt	.LBB0_36
	b	.LBB0_34
.LBB0_34:                               @   in Loop: Header=BB0_33 Depth=1
.Ltmp54:
	.loc	2 1133 9 is_stmt 1              @ packages/umqtt-latest/src/umqtt.c:1133:9
	ldr	r0, [sp, #32]
	.loc	2 1133 28 is_stmt 0             @ packages/umqtt-latest/src/umqtt.c:1133:28
	ldr	r1, [sp, #24]
	.loc	2 1133 9                        @ packages/umqtt-latest/src/umqtt.c:1133:9
	add.w	r1, r1, r1, lsl #1
	.loc	2 1133 17                       @ packages/umqtt-latest/src/umqtt.c:1133:17
	add.w	r1, r0, r1, lsl #2
	mov.w	r0, #-1
	.loc	2 1133 38                       @ packages/umqtt-latest/src/umqtt.c:1133:38
	str.w	r0, [r1, #160]
	.loc	2 1134 9 is_stmt 1              @ packages/umqtt-latest/src/umqtt.c:1134:9
	ldr	r1, [sp, #32]
	.loc	2 1134 28 is_stmt 0             @ packages/umqtt-latest/src/umqtt.c:1134:28
	ldr	r2, [sp, #24]
	.loc	2 1134 9                        @ packages/umqtt-latest/src/umqtt.c:1134:9
	add.w	r2, r2, r2, lsl #1
	.loc	2 1134 17                       @ packages/umqtt-latest/src/umqtt.c:1134:17
	add.w	r1, r1, r2, lsl #2
	.loc	2 1134 44                       @ packages/umqtt-latest/src/umqtt.c:1134:44
	str.w	r0, [r1, #164]
	.loc	2 1135 9 is_stmt 1              @ packages/umqtt-latest/src/umqtt.c:1135:9
	ldr	r1, [sp, #32]
	.loc	2 1135 28 is_stmt 0             @ packages/umqtt-latest/src/umqtt.c:1135:28
	ldr	r2, [sp, #24]
	.loc	2 1135 9                        @ packages/umqtt-latest/src/umqtt.c:1135:9
	add.w	r2, r2, r2, lsl #1
	.loc	2 1135 17                       @ packages/umqtt-latest/src/umqtt.c:1135:17
	add.w	r1, r1, r2, lsl #2
	.loc	2 1135 44                       @ packages/umqtt-latest/src/umqtt.c:1135:44
	str.w	r0, [r1, #168]
	.loc	2 1136 5 is_stmt 1              @ packages/umqtt-latest/src/umqtt.c:1136:5
	b	.LBB0_35
.Ltmp55:
.LBB0_35:                               @   in Loop: Header=BB0_33 Depth=1
	.loc	2 1131 55                       @ packages/umqtt-latest/src/umqtt.c:1131:55
	ldr	r0, [sp, #24]
	adds	r0, #1
	str	r0, [sp, #24]
	.loc	2 1131 5 is_stmt 0              @ packages/umqtt-latest/src/umqtt.c:1131:5
	b	.LBB0_33
.Ltmp56:
.LBB0_36:
	.loc	2 1138 22 is_stmt 1             @ packages/umqtt-latest/src/umqtt.c:1138:22
	ldr	r0, [sp, #32]
	.loc	2 1138 30 is_stmt 0             @ packages/umqtt-latest/src/umqtt.c:1138:30
	adds	r0, #184
	.loc	2 1138 5                        @ packages/umqtt-latest/src/umqtt.c:1138:5
	bl	rt_list_remove
	.loc	2 1139 13 is_stmt 1             @ packages/umqtt-latest/src/umqtt.c:1139:13
	ldr	r0, [sp, #32]
	.loc	2 1139 5 is_stmt 0              @ packages/umqtt-latest/src/umqtt.c:1139:5
	bl	rt_free
	movs	r0, #0
	.loc	2 1140 10 is_stmt 1             @ packages/umqtt-latest/src/umqtt.c:1140:10
	str	r0, [sp, #28]
	.loc	2 1141 12                       @ packages/umqtt-latest/src/umqtt.c:1141:12
	ldr	r0, [sp, #28]
	.loc	2 1141 5 is_stmt 0              @ packages/umqtt-latest/src/umqtt.c:1141:5
	str	r0, [sp, #36]
	b	.LBB0_37
.LBB0_37:
	.loc	2 1142 1 is_stmt 1              @ packages/umqtt-latest/src/umqtt.c:1142:1
	ldr	r0, [sp, #36]
	add	sp, #40
	pop	{r7, pc}
.Ltmp57:
.Lfunc_end0:
	.size	umqtt_delete, .Lfunc_end0-umqtt_delete
	.cfi_endproc
	.cantunwind
	.fnend
                                        @ -- End function
	.section	.text.rt_list_isempty,"ax",%progbits
	.p2align	3                               @ -- Begin function rt_list_isempty
	.type	rt_list_isempty,%function
	.code	16                              @ @rt_list_isempty
	.thumb_func
rt_list_isempty:
.Lfunc_begin1:
	.file	6 "E:\\Smart-access-control\\Hardware\\CODE" "rt-thread/include\\rtservice.h"
	.loc	6 99 0                          @ rt-thread/include\rtservice.h:99:0
	.fnstart
	.cfi_startproc
@ %bb.0:
	.pad	#4
	sub	sp, #4
	.cfi_def_cfa_offset 4
	str	r0, [sp]
.Ltmp58:
	.loc	6 100 12 prologue_end           @ rt-thread/include\rtservice.h:100:12
	ldr	r1, [sp]
	.loc	6 100 15 is_stmt 0              @ rt-thread/include\rtservice.h:100:15
	ldr	r0, [r1]
	.loc	6 100 20                        @ rt-thread/include\rtservice.h:100:20
	subs	r0, r0, r1
	clz	r0, r0
	lsrs	r0, r0, #5
	.loc	6 100 5                         @ rt-thread/include\rtservice.h:100:5
	add	sp, #4
	bx	lr
.Ltmp59:
.Lfunc_end1:
	.size	rt_list_isempty, .Lfunc_end1-rt_list_isempty
	.cfi_endproc
	.cantunwind
	.fnend
                                        @ -- End function
	.section	.text.rt_list_remove,"ax",%progbits
	.p2align	3                               @ -- Begin function rt_list_remove
	.type	rt_list_remove,%function
	.code	16                              @ @rt_list_remove
	.thumb_func
rt_list_remove:
.Lfunc_begin2:
	.loc	6 87 0 is_stmt 1                @ rt-thread/include\rtservice.h:87:0
	.fnstart
	.cfi_startproc
@ %bb.0:
	.pad	#4
	sub	sp, #4
	.cfi_def_cfa_offset 4
	str	r0, [sp]
.Ltmp60:
	.loc	6 88 21 prologue_end            @ rt-thread/include\rtservice.h:88:21
	ldr	r0, [sp]
	.loc	6 88 8 is_stmt 0                @ rt-thread/include\rtservice.h:88:8
	ldr	r1, [r0]
	.loc	6 88 24                         @ rt-thread/include\rtservice.h:88:24
	ldr	r0, [r0, #4]
	.loc	6 88 19                         @ rt-thread/include\rtservice.h:88:19
	str	r0, [r1, #4]
	.loc	6 89 21 is_stmt 1               @ rt-thread/include\rtservice.h:89:21
	ldr	r1, [sp]
	.loc	6 89 24 is_stmt 0               @ rt-thread/include\rtservice.h:89:24
	ldr	r0, [r1]
	.loc	6 89 8                          @ rt-thread/include\rtservice.h:89:8
	ldr	r1, [r1, #4]
	.loc	6 89 19                         @ rt-thread/include\rtservice.h:89:19
	str	r0, [r1]
	.loc	6 91 25 is_stmt 1               @ rt-thread/include\rtservice.h:91:25
	ldr	r0, [sp]
	.loc	6 91 23 is_stmt 0               @ rt-thread/include\rtservice.h:91:23
	str	r0, [r0, #4]
	.loc	6 91 5                          @ rt-thread/include\rtservice.h:91:5
	ldr	r1, [sp]
	.loc	6 91 13                         @ rt-thread/include\rtservice.h:91:13
	str	r0, [r1]
	.loc	6 92 1 is_stmt 1                @ rt-thread/include\rtservice.h:92:1
	add	sp, #4
	bx	lr
.Ltmp61:
.Lfunc_end2:
	.size	rt_list_remove, .Lfunc_end2-rt_list_remove
	.cfi_endproc
	.cantunwind
	.fnend
                                        @ -- End function
	.section	.text.umqtt_create,"ax",%progbits
	.hidden	umqtt_create                    @ -- Begin function umqtt_create
	.globl	umqtt_create
	.p2align	3
	.type	umqtt_create,%function
	.code	16                              @ @umqtt_create
	.thumb_func
umqtt_create:
.Lfunc_begin3:
	.loc	2 1152 0                        @ packages/umqtt-latest/src/umqtt.c:1152:0
	.fnstart
	.cfi_startproc
@ %bb.0:
	.save	{r7, lr}
	push	{r7, lr}
	.cfi_def_cfa_offset 8
	.cfi_offset lr, -4
	.cfi_offset r7, -8
	.pad	#80
	sub	sp, #80
	.cfi_def_cfa_offset 88
	str	r0, [sp, #76]
.Ltmp62:
	.loc	2 1153 5 prologue_end           @ packages/umqtt-latest/src/umqtt.c:1153:5
	ldr	r0, [sp, #76]
.Ltmp63:
	.loc	2 1153 5 is_stmt 0              @ packages/umqtt-latest/src/umqtt.c:1153:5
	cbnz	r0, .LBB3_2
	b	.LBB3_1
.LBB3_1:
.Ltmp64:
	.loc	2 1153 5                        @ packages/umqtt-latest/src/umqtt.c:1153:5
	movw	r0, :lower16:.L.str
	movt	r0, :upper16:.L.str
	movw	r1, :lower16:.L__FUNCTION__.umqtt_create
	movt	r1, :upper16:.L__FUNCTION__.umqtt_create
	movw	r2, #1153
	bl	rt_assert_handler
	b	.LBB3_2
.Ltmp65:
.LBB3_2:
	.loc	2 0 5                           @ packages/umqtt-latest/src/umqtt.c:0:5
	movs	r0, #0
	.loc	2 1155 9 is_stmt 1              @ packages/umqtt-latest/src/umqtt.c:1155:9
	str	r0, [sp, #72]
	.loc	2 1155 19 is_stmt 0             @ packages/umqtt-latest/src/umqtt.c:1155:19
	str	r0, [sp, #68]
	.loc	2 1155 32                       @ packages/umqtt-latest/src/umqtt.c:1155:32
	str	r0, [sp, #64]
	.loc	2 1156 20 is_stmt 1             @ packages/umqtt-latest/src/umqtt.c:1156:20
	str	r0, [sp, #60]
	.loc	2 1157 33                       @ packages/umqtt-latest/src/umqtt.c:1157:33
	str	r0, [sp, #56]
	movs	r0, #1
	movs	r1, #192
	.loc	2 1160 35                       @ packages/umqtt-latest/src/umqtt.c:1160:35
	bl	rt_calloc
	.loc	2 1160 17 is_stmt 0             @ packages/umqtt-latest/src/umqtt.c:1160:17
	str	r0, [sp, #60]
.Ltmp66:
	.loc	2 1161 9 is_stmt 1              @ packages/umqtt-latest/src/umqtt.c:1161:9
	ldr	r0, [sp, #60]
.Ltmp67:
	.loc	2 1161 9 is_stmt 0              @ packages/umqtt-latest/src/umqtt.c:1161:9
	cbnz	r0, .LBB3_6
	b	.LBB3_3
.LBB3_3:
.Ltmp68:
	.loc	2 1163 9 is_stmt 1              @ packages/umqtt-latest/src/umqtt.c:1163:9
	b	.LBB3_4
.LBB3_4:
.Ltmp69:
	.loc	2 1163 9 is_stmt 0              @ packages/umqtt-latest/src/umqtt.c:1163:9
	movw	r0, :lower16:.L.str.1
	movt	r0, :upper16:.L.str.1
	bl	rt_kprintf
	movw	r0, :lower16:.L.str.2
	movt	r0, :upper16:.L.str.2
	bl	rt_kprintf
	movw	r0, :lower16:.L.str.3
	movt	r0, :upper16:.L.str.3
	bl	rt_kprintf
	b	.LBB3_5
.Ltmp70:
.LBB3_5:
	.loc	2 0 9                           @ packages/umqtt-latest/src/umqtt.c:0:9
	mvn	r0, #1
	.loc	2 1164 14 is_stmt 1             @ packages/umqtt-latest/src/umqtt.c:1164:14
	str	r0, [sp, #72]
	.loc	2 1165 9                        @ packages/umqtt-latest/src/umqtt.c:1165:9
	b	.LBB3_39
.Ltmp71:
.LBB3_6:
	.loc	2 1167 17                       @ packages/umqtt-latest/src/umqtt.c:1167:17
	ldr	r0, [sp, #60]
	.loc	2 1167 30 is_stmt 0             @ packages/umqtt-latest/src/umqtt.c:1167:30
	adds	r0, #8
	.loc	2 1167 42                       @ packages/umqtt-latest/src/umqtt.c:1167:42
	ldr	r1, [sp, #76]
	movs	r2, #76
	.loc	2 1167 5                        @ packages/umqtt-latest/src/umqtt.c:1167:5
	bl	rt_memcpy
	.loc	2 1168 28 is_stmt 1             @ packages/umqtt-latest/src/umqtt.c:1168:28
	ldr	r0, [sp, #60]
	.loc	2 1168 41 is_stmt 0             @ packages/umqtt-latest/src/umqtt.c:1168:41
	adds	r0, #8
	.loc	2 1168 5                        @ packages/umqtt-latest/src/umqtt.c:1168:5
	bl	umqtt_check_def_info
	.loc	2 1171 5 is_stmt 1              @ packages/umqtt-latest/src/umqtt.c:1171:5
	ldr	r1, [sp, #60]
	movs	r0, #4
	.loc	2 1171 36 is_stmt 0             @ packages/umqtt-latest/src/umqtt.c:1171:36
	str.w	r0, [r1, #140]
	.loc	2 1172 19 is_stmt 1             @ packages/umqtt-latest/src/umqtt.c:1172:19
	ldr	r0, [sp, #60]
	.loc	2 1172 32 is_stmt 0             @ packages/umqtt-latest/src/umqtt.c:1172:32
	adds	r0, #144
	.loc	2 1172 5                        @ packages/umqtt-latest/src/umqtt.c:1172:5
	bl	rt_list_init
.Ltmp72:
	.loc	2 1173 9 is_stmt 1              @ packages/umqtt-latest/src/umqtt.c:1173:9
	ldr	r0, [sp, #60]
	.loc	2 1173 32 is_stmt 0             @ packages/umqtt-latest/src/umqtt.c:1173:32
	ldr	r0, [r0, #24]
.Ltmp73:
	.loc	2 1173 9                        @ packages/umqtt-latest/src/umqtt.c:1173:9
	cbz	r0, .LBB3_10
	b	.LBB3_7
.LBB3_7:
	.loc	2 0 9                           @ packages/umqtt-latest/src/umqtt.c:0:9
	movs	r0, #1
	movs	r1, #20
.Ltmp74:
	.loc	2 1175 50 is_stmt 1             @ packages/umqtt-latest/src/umqtt.c:1175:50
	bl	rt_calloc
	.loc	2 1175 18 is_stmt 0             @ packages/umqtt-latest/src/umqtt.c:1175:18
	str	r0, [sp, #56]
.Ltmp75:
	.loc	2 1176 13 is_stmt 1             @ packages/umqtt-latest/src/umqtt.c:1176:13
	ldr	r0, [sp, #56]
.Ltmp76:
	.loc	2 1176 13 is_stmt 0             @ packages/umqtt-latest/src/umqtt.c:1176:13
	cbz	r0, .LBB3_9
	b	.LBB3_8
.LBB3_8:
.Ltmp77:
	.loc	2 1178 29 is_stmt 1             @ packages/umqtt-latest/src/umqtt.c:1178:29
	ldr	r0, [sp, #60]
	.loc	2 1178 52 is_stmt 0             @ packages/umqtt-latest/src/umqtt.c:1178:52
	ldrb.w	r0, [r0, #40]
	.loc	2 1178 13                       @ packages/umqtt-latest/src/umqtt.c:1178:13
	ldr	r1, [sp, #56]
	.loc	2 1178 27                       @ packages/umqtt-latest/src/umqtt.c:1178:27
	strb	r0, [r1, #8]
	.loc	2 1179 30 is_stmt 1             @ packages/umqtt-latest/src/umqtt.c:1179:30
	ldr	r0, [sp, #60]
	.loc	2 1179 53 is_stmt 0             @ packages/umqtt-latest/src/umqtt.c:1179:53
	ldr	r0, [r0, #24]
	.loc	2 1179 23                       @ packages/umqtt-latest/src/umqtt.c:1179:23
	bl	strlen
	.loc	2 1179 64                       @ packages/umqtt-latest/src/umqtt.c:1179:64
	adds	r0, #1
	.loc	2 1179 21                       @ packages/umqtt-latest/src/umqtt.c:1179:21
	str	r0, [sp, #68]
	.loc	2 1180 73 is_stmt 1             @ packages/umqtt-latest/src/umqtt.c:1180:73
	ldr	r1, [sp, #68]
	movs	r0, #1
	.loc	2 1180 45 is_stmt 0             @ packages/umqtt-latest/src/umqtt.c:1180:45
	bl	rt_calloc
	.loc	2 1180 13                       @ packages/umqtt-latest/src/umqtt.c:1180:13
	ldr	r1, [sp, #56]
	.loc	2 1180 35                       @ packages/umqtt-latest/src/umqtt.c:1180:35
	str	r0, [r1]
	.loc	2 1181 24 is_stmt 1             @ packages/umqtt-latest/src/umqtt.c:1181:24
	ldr	r0, [sp, #56]
	.loc	2 1181 34 is_stmt 0             @ packages/umqtt-latest/src/umqtt.c:1181:34
	ldr	r0, [r0]
	.loc	2 1181 47                       @ packages/umqtt-latest/src/umqtt.c:1181:47
	ldr	r1, [sp, #60]
	.loc	2 1181 70                       @ packages/umqtt-latest/src/umqtt.c:1181:70
	ldr	r1, [r1, #24]
	.loc	2 1181 81                       @ packages/umqtt-latest/src/umqtt.c:1181:81
	ldr	r2, [sp, #68]
	.loc	2 1181 13                       @ packages/umqtt-latest/src/umqtt.c:1181:13
	bl	rt_strncpy
	.loc	2 1182 34 is_stmt 1             @ packages/umqtt-latest/src/umqtt.c:1182:34
	ldr	r0, [sp, #60]
	.loc	2 1182 57 is_stmt 0             @ packages/umqtt-latest/src/umqtt.c:1182:57
	ldr	r0, [r0, #44]
	.loc	2 1182 13                       @ packages/umqtt-latest/src/umqtt.c:1182:13
	ldr	r1, [sp, #56]
	.loc	2 1182 32                       @ packages/umqtt-latest/src/umqtt.c:1182:32
	str	r0, [r1, #4]
	.loc	2 1183 35 is_stmt 1             @ packages/umqtt-latest/src/umqtt.c:1183:35
	ldr	r0, [sp, #60]
	.loc	2 1183 48 is_stmt 0             @ packages/umqtt-latest/src/umqtt.c:1183:48
	adds	r0, #144
	.loc	2 1183 64                       @ packages/umqtt-latest/src/umqtt.c:1183:64
	ldr	r1, [sp, #56]
	.loc	2 1183 74                       @ packages/umqtt-latest/src/umqtt.c:1183:74
	adds	r1, #12
	.loc	2 1183 13                       @ packages/umqtt-latest/src/umqtt.c:1183:13
	bl	rt_list_insert_after
	.loc	2 1184 9 is_stmt 1              @ packages/umqtt-latest/src/umqtt.c:1184:9
	b	.LBB3_9
.Ltmp78:
.LBB3_9:
	.loc	2 1185 5                        @ packages/umqtt-latest/src/umqtt.c:1185:5
	b	.LBB3_10
.Ltmp79:
.LBB3_10:
	.loc	2 1188 19                       @ packages/umqtt-latest/src/umqtt.c:1188:19
	ldr	r0, [sp, #60]
	.loc	2 1188 32 is_stmt 0             @ packages/umqtt-latest/src/umqtt.c:1188:32
	adds	r0, #152
	.loc	2 1188 5                        @ packages/umqtt-latest/src/umqtt.c:1188:5
	bl	rt_list_init
	movs	r0, #0
.Ltmp80:
	.loc	2 1190 15 is_stmt 1             @ packages/umqtt-latest/src/umqtt.c:1190:15
	str	r0, [sp, #64]
	.loc	2 1190 10 is_stmt 0             @ packages/umqtt-latest/src/umqtt.c:1190:10
	b	.LBB3_11
.LBB3_11:                               @ =>This Inner Loop Header: Depth=1
.Ltmp81:
	.loc	2 1190 20                       @ packages/umqtt-latest/src/umqtt.c:1190:20
	ldr	r0, [sp, #64]
.Ltmp82:
	.loc	2 1190 5                        @ packages/umqtt-latest/src/umqtt.c:1190:5
	cmp	r0, #0
	bgt	.LBB3_14
	b	.LBB3_12
.LBB3_12:                               @   in Loop: Header=BB3_11 Depth=1
.Ltmp83:
	.loc	2 1192 9 is_stmt 1              @ packages/umqtt-latest/src/umqtt.c:1192:9
	ldr	r0, [sp, #60]
	.loc	2 1192 33 is_stmt 0             @ packages/umqtt-latest/src/umqtt.c:1192:33
	ldr	r1, [sp, #64]
	.loc	2 1192 9                        @ packages/umqtt-latest/src/umqtt.c:1192:9
	add.w	r1, r1, r1, lsl #1
	.loc	2 1192 22                       @ packages/umqtt-latest/src/umqtt.c:1192:22
	add.w	r1, r0, r1, lsl #2
	mov.w	r0, #-1
	.loc	2 1192 43                       @ packages/umqtt-latest/src/umqtt.c:1192:43
	str.w	r0, [r1, #160]
	.loc	2 1193 9 is_stmt 1              @ packages/umqtt-latest/src/umqtt.c:1193:9
	ldr	r1, [sp, #60]
	.loc	2 1193 33 is_stmt 0             @ packages/umqtt-latest/src/umqtt.c:1193:33
	ldr	r2, [sp, #64]
	.loc	2 1193 9                        @ packages/umqtt-latest/src/umqtt.c:1193:9
	add.w	r2, r2, r2, lsl #1
	.loc	2 1193 22                       @ packages/umqtt-latest/src/umqtt.c:1193:22
	add.w	r1, r1, r2, lsl #2
	.loc	2 1193 49                       @ packages/umqtt-latest/src/umqtt.c:1193:49
	str.w	r0, [r1, #164]
	.loc	2 1194 9 is_stmt 1              @ packages/umqtt-latest/src/umqtt.c:1194:9
	ldr	r1, [sp, #60]
	.loc	2 1194 33 is_stmt 0             @ packages/umqtt-latest/src/umqtt.c:1194:33
	ldr	r2, [sp, #64]
	.loc	2 1194 9                        @ packages/umqtt-latest/src/umqtt.c:1194:9
	add.w	r2, r2, r2, lsl #1
	.loc	2 1194 22                       @ packages/umqtt-latest/src/umqtt.c:1194:22
	add.w	r1, r1, r2, lsl #2
	.loc	2 1194 49                       @ packages/umqtt-latest/src/umqtt.c:1194:49
	str.w	r0, [r1, #168]
	.loc	2 1195 5 is_stmt 1              @ packages/umqtt-latest/src/umqtt.c:1195:5
	b	.LBB3_13
.Ltmp84:
.LBB3_13:                               @   in Loop: Header=BB3_11 Depth=1
	.loc	2 1190 55                       @ packages/umqtt-latest/src/umqtt.c:1190:55
	ldr	r0, [sp, #64]
	adds	r0, #1
	str	r0, [sp, #64]
	.loc	2 1190 5 is_stmt 0              @ packages/umqtt-latest/src/umqtt.c:1190:5
	b	.LBB3_11
.Ltmp85:
.LBB3_14:
	.loc	2 1197 63 is_stmt 1             @ packages/umqtt-latest/src/umqtt.c:1197:63
	ldr	r0, [sp, #60]
	.loc	2 1197 86 is_stmt 0             @ packages/umqtt-latest/src/umqtt.c:1197:86
	ldr	r1, [r0, #12]
	movs	r0, #1
	.loc	2 1197 29                       @ packages/umqtt-latest/src/umqtt.c:1197:29
	bl	rt_calloc
	.loc	2 1197 5                        @ packages/umqtt-latest/src/umqtt.c:1197:5
	ldr	r1, [sp, #60]
	.loc	2 1197 27                       @ packages/umqtt-latest/src/umqtt.c:1197:27
	str	r0, [r1, #112]
.Ltmp86:
	.loc	2 1198 9 is_stmt 1              @ packages/umqtt-latest/src/umqtt.c:1198:9
	ldr	r0, [sp, #60]
	.loc	2 1198 22 is_stmt 0             @ packages/umqtt-latest/src/umqtt.c:1198:22
	ldr	r0, [r0, #112]
.Ltmp87:
	.loc	2 1198 9                        @ packages/umqtt-latest/src/umqtt.c:1198:9
	cbnz	r0, .LBB3_18
	b	.LBB3_15
.LBB3_15:
.Ltmp88:
	.loc	2 1200 9 is_stmt 1              @ packages/umqtt-latest/src/umqtt.c:1200:9
	b	.LBB3_16
.LBB3_16:
.Ltmp89:
	.loc	2 1200 9 is_stmt 0              @ packages/umqtt-latest/src/umqtt.c:1200:9
	movw	r0, :lower16:.L.str.1
	movt	r0, :upper16:.L.str.1
	bl	rt_kprintf
	movw	r0, :lower16:.L.str.4
	movt	r0, :upper16:.L.str.4
	bl	rt_kprintf
	movw	r0, :lower16:.L.str.3
	movt	r0, :upper16:.L.str.3
	bl	rt_kprintf
	b	.LBB3_17
.Ltmp90:
.LBB3_17:
	.loc	2 0 9                           @ packages/umqtt-latest/src/umqtt.c:0:9
	mvn	r0, #1
	.loc	2 1201 14 is_stmt 1             @ packages/umqtt-latest/src/umqtt.c:1201:14
	str	r0, [sp, #72]
	.loc	2 1202 9                        @ packages/umqtt-latest/src/umqtt.c:1202:9
	b	.LBB3_39
.Ltmp91:
.LBB3_18:
	.loc	2 1205 63                       @ packages/umqtt-latest/src/umqtt.c:1205:63
	ldr	r0, [sp, #60]
	.loc	2 1205 86 is_stmt 0             @ packages/umqtt-latest/src/umqtt.c:1205:86
	ldr	r1, [r0, #8]
	movs	r0, #1
	.loc	2 1205 29                       @ packages/umqtt-latest/src/umqtt.c:1205:29
	bl	rt_calloc
	.loc	2 1205 5                        @ packages/umqtt-latest/src/umqtt.c:1205:5
	ldr	r1, [sp, #60]
	.loc	2 1205 27                       @ packages/umqtt-latest/src/umqtt.c:1205:27
	str	r0, [r1, #108]
.Ltmp92:
	.loc	2 1206 9 is_stmt 1              @ packages/umqtt-latest/src/umqtt.c:1206:9
	ldr	r0, [sp, #60]
	.loc	2 1206 22 is_stmt 0             @ packages/umqtt-latest/src/umqtt.c:1206:22
	ldr	r0, [r0, #108]
.Ltmp93:
	.loc	2 1206 9                        @ packages/umqtt-latest/src/umqtt.c:1206:9
	cbnz	r0, .LBB3_22
	b	.LBB3_19
.LBB3_19:
.Ltmp94:
	.loc	2 1208 9 is_stmt 1              @ packages/umqtt-latest/src/umqtt.c:1208:9
	b	.LBB3_20
.LBB3_20:
.Ltmp95:
	.loc	2 1208 9 is_stmt 0              @ packages/umqtt-latest/src/umqtt.c:1208:9
	movw	r0, :lower16:.L.str.1
	movt	r0, :upper16:.L.str.1
	bl	rt_kprintf
	movw	r0, :lower16:.L.str.5
	movt	r0, :upper16:.L.str.5
	bl	rt_kprintf
	movw	r0, :lower16:.L.str.3
	movt	r0, :upper16:.L.str.3
	bl	rt_kprintf
	b	.LBB3_21
.Ltmp96:
.LBB3_21:
	.loc	2 0 9                           @ packages/umqtt-latest/src/umqtt.c:0:9
	mvn	r0, #1
	.loc	2 1209 14 is_stmt 1             @ packages/umqtt-latest/src/umqtt.c:1209:14
	str	r0, [sp, #72]
	.loc	2 1210 9                        @ packages/umqtt-latest/src/umqtt.c:1210:9
	b	.LBB3_39
.Ltmp97:
.LBB3_22:
	.loc	2 0 9 is_stmt 0                 @ packages/umqtt-latest/src/umqtt.c:0:9
	add	r0, sp, #48
	str	r0, [sp, #44]                   @ 4-byte Spill
	movs	r1, #0
	str	r1, [sp, #40]                   @ 4-byte Spill
	movs	r2, #8
	.loc	2 1213 5 is_stmt 1              @ packages/umqtt-latest/src/umqtt.c:1213:5
	str	r2, [sp, #36]                   @ 4-byte Spill
	bl	rt_memset
	ldr	r1, [sp, #36]                   @ 4-byte Reload
                                        @ kill: def $r2 killed $r0
	.loc	2 1214 50                       @ packages/umqtt-latest/src/umqtt.c:1214:50
	ldr	r0, [sp, #44]                   @ 4-byte Reload
	movw	r2, :lower16:umqtt_create.lock_cnt
	movt	r2, :upper16:umqtt_create.lock_cnt
	ldrb	r3, [r2]
	.loc	2 1214 5 is_stmt 0              @ packages/umqtt-latest/src/umqtt.c:1214:5
	movw	r2, :lower16:.L.str.6
	movt	r2, :upper16:.L.str.6
	bl	rt_snprintf
	ldr	r1, [sp, #40]                   @ 4-byte Reload
                                        @ kill: def $r2 killed $r0
	.loc	2 1215 32 is_stmt 1             @ packages/umqtt-latest/src/umqtt.c:1215:32
	ldr	r0, [sp, #44]                   @ 4-byte Reload
	bl	rt_mutex_create
	.loc	2 1215 5 is_stmt 0              @ packages/umqtt-latest/src/umqtt.c:1215:5
	ldr	r1, [sp, #60]
	.loc	2 1215 30                       @ packages/umqtt-latest/src/umqtt.c:1215:30
	str.w	r0, [r1, #128]
.Ltmp98:
	.loc	2 1216 9 is_stmt 1              @ packages/umqtt-latest/src/umqtt.c:1216:9
	ldr	r0, [sp, #60]
	.loc	2 1216 22 is_stmt 0             @ packages/umqtt-latest/src/umqtt.c:1216:22
	ldr.w	r0, [r0, #128]
.Ltmp99:
	.loc	2 1216 9                        @ packages/umqtt-latest/src/umqtt.c:1216:9
	cbnz	r0, .LBB3_26
	b	.LBB3_23
.LBB3_23:
.Ltmp100:
	.loc	2 1218 9 is_stmt 1              @ packages/umqtt-latest/src/umqtt.c:1218:9
	b	.LBB3_24
.LBB3_24:
.Ltmp101:
	.loc	2 1218 9 is_stmt 0              @ packages/umqtt-latest/src/umqtt.c:1218:9
	movw	r0, :lower16:.L.str.1
	movt	r0, :upper16:.L.str.1
	bl	rt_kprintf
	movw	r0, :lower16:.L.str.7
	movt	r0, :upper16:.L.str.7
	bl	rt_kprintf
	movw	r0, :lower16:.L.str.3
	movt	r0, :upper16:.L.str.3
	bl	rt_kprintf
	b	.LBB3_25
.Ltmp102:
.LBB3_25:
	.loc	2 0 9                           @ packages/umqtt-latest/src/umqtt.c:0:9
	mvn	r0, #1
	.loc	2 1219 14 is_stmt 1             @ packages/umqtt-latest/src/umqtt.c:1219:14
	str	r0, [sp, #72]
	.loc	2 1220 9                        @ packages/umqtt-latest/src/umqtt.c:1220:9
	b	.LBB3_39
.Ltmp103:
.LBB3_26:
	.loc	2 0 9 is_stmt 0                 @ packages/umqtt-latest/src/umqtt.c:0:9
	add	r0, sp, #48
	str	r0, [sp, #32]                   @ 4-byte Spill
	movs	r1, #0
	str	r1, [sp, #28]                   @ 4-byte Spill
	movs	r2, #8
	.loc	2 1223 5 is_stmt 1              @ packages/umqtt-latest/src/umqtt.c:1223:5
	str	r2, [sp, #24]                   @ 4-byte Spill
	bl	rt_memset
	ldr	r1, [sp, #24]                   @ 4-byte Reload
                                        @ kill: def $r2 killed $r0
	.loc	2 1224 50                       @ packages/umqtt-latest/src/umqtt.c:1224:50
	ldr	r0, [sp, #32]                   @ 4-byte Reload
	movw	r2, :lower16:umqtt_create.lock_cnt
	movt	r2, :upper16:umqtt_create.lock_cnt
	ldrb	r3, [r2]
	.loc	2 1224 5 is_stmt 0              @ packages/umqtt-latest/src/umqtt.c:1224:5
	movw	r2, :lower16:.L.str.8
	movt	r2, :upper16:.L.str.8
	bl	rt_snprintf
	ldr	r3, [sp, #28]                   @ 4-byte Reload
                                        @ kill: def $r1 killed $r0
	.loc	2 1225 30 is_stmt 1             @ packages/umqtt-latest/src/umqtt.c:1225:30
	ldr	r0, [sp, #32]                   @ 4-byte Reload
	movs	r2, #4
	mov	r1, r2
	bl	rt_mq_create
	.loc	2 1225 5 is_stmt 0              @ packages/umqtt-latest/src/umqtt.c:1225:5
	ldr	r1, [sp, #60]
	.loc	2 1225 28                       @ packages/umqtt-latest/src/umqtt.c:1225:28
	str.w	r0, [r1, #132]
.Ltmp104:
	.loc	2 1229 9 is_stmt 1              @ packages/umqtt-latest/src/umqtt.c:1229:9
	ldr	r0, [sp, #60]
	.loc	2 1229 22 is_stmt 0             @ packages/umqtt-latest/src/umqtt.c:1229:22
	ldr.w	r0, [r0, #132]
.Ltmp105:
	.loc	2 1229 9                        @ packages/umqtt-latest/src/umqtt.c:1229:9
	cbnz	r0, .LBB3_30
	b	.LBB3_27
.LBB3_27:
.Ltmp106:
	.loc	2 1231 9 is_stmt 1              @ packages/umqtt-latest/src/umqtt.c:1231:9
	b	.LBB3_28
.LBB3_28:
.Ltmp107:
	.loc	2 1231 9 is_stmt 0              @ packages/umqtt-latest/src/umqtt.c:1231:9
	movw	r0, :lower16:.L.str.1
	movt	r0, :upper16:.L.str.1
	bl	rt_kprintf
	movw	r0, :lower16:.L.str.9
	movt	r0, :upper16:.L.str.9
	bl	rt_kprintf
	movw	r0, :lower16:.L.str.3
	movt	r0, :upper16:.L.str.3
	bl	rt_kprintf
	b	.LBB3_29
.Ltmp108:
.LBB3_29:
	.loc	2 0 9                           @ packages/umqtt-latest/src/umqtt.c:0:9
	mvn	r0, #1
	.loc	2 1232 14 is_stmt 1             @ packages/umqtt-latest/src/umqtt.c:1232:14
	str	r0, [sp, #72]
	.loc	2 1233 9                        @ packages/umqtt-latest/src/umqtt.c:1233:9
	b	.LBB3_39
.Ltmp109:
.LBB3_30:
	.loc	2 0 9 is_stmt 0                 @ packages/umqtt-latest/src/umqtt.c:0:9
	add	r0, sp, #48
	str	r0, [sp, #20]                   @ 4-byte Spill
	movs	r1, #0
	movs	r2, #8
	.loc	2 1236 5 is_stmt 1              @ packages/umqtt-latest/src/umqtt.c:1236:5
	str	r2, [sp, #16]                   @ 4-byte Spill
	bl	rt_memset
	ldr	r1, [sp, #16]                   @ 4-byte Reload
                                        @ kill: def $r2 killed $r0
	.loc	2 1237 50                       @ packages/umqtt-latest/src/umqtt.c:1237:50
	ldr	r0, [sp, #20]                   @ 4-byte Reload
	movw	r2, :lower16:umqtt_create.lock_cnt
	movt	r2, :upper16:umqtt_create.lock_cnt
	ldrb	r3, [r2]
	.loc	2 1237 5 is_stmt 0              @ packages/umqtt-latest/src/umqtt.c:1237:5
	movw	r2, :lower16:.L.str.10
	movt	r2, :upper16:.L.str.10
	bl	rt_snprintf
                                        @ kill: def $r1 killed $r0
	.loc	2 1240 49 is_stmt 1             @ packages/umqtt-latest/src/umqtt.c:1240:49
	ldr	r0, [sp, #20]                   @ 4-byte Reload
	ldr	r2, [sp, #60]
	.loc	2 1238 33                       @ packages/umqtt-latest/src/umqtt.c:1238:33
	mov	r3, sp
	movs	r1, #6
	str	r1, [r3]
	movw	r1, :lower16:umqtt_uplink_timer_callback
	movt	r1, :upper16:umqtt_uplink_timer_callback
	mov.w	r3, #1000
	bl	rt_timer_create
	.loc	2 1238 5 is_stmt 0              @ packages/umqtt-latest/src/umqtt.c:1238:5
	ldr	r1, [sp, #60]
	.loc	2 1238 31                       @ packages/umqtt-latest/src/umqtt.c:1238:31
	str.w	r0, [r1, #136]
.Ltmp110:
	.loc	2 1243 9 is_stmt 1              @ packages/umqtt-latest/src/umqtt.c:1243:9
	ldr	r0, [sp, #60]
	.loc	2 1243 22 is_stmt 0             @ packages/umqtt-latest/src/umqtt.c:1243:22
	ldr.w	r0, [r0, #136]
.Ltmp111:
	.loc	2 1243 9                        @ packages/umqtt-latest/src/umqtt.c:1243:9
	cbnz	r0, .LBB3_34
	b	.LBB3_31
.LBB3_31:
.Ltmp112:
	.loc	2 1245 9 is_stmt 1              @ packages/umqtt-latest/src/umqtt.c:1245:9
	b	.LBB3_32
.LBB3_32:
.Ltmp113:
	.loc	2 1245 9 is_stmt 0              @ packages/umqtt-latest/src/umqtt.c:1245:9
	movw	r0, :lower16:.L.str.1
	movt	r0, :upper16:.L.str.1
	bl	rt_kprintf
	movw	r0, :lower16:.L.str.11
	movt	r0, :upper16:.L.str.11
	bl	rt_kprintf
	movw	r0, :lower16:.L.str.3
	movt	r0, :upper16:.L.str.3
	bl	rt_kprintf
	b	.LBB3_33
.Ltmp114:
.LBB3_33:
	.loc	2 0 9                           @ packages/umqtt-latest/src/umqtt.c:0:9
	mvn	r0, #1
	.loc	2 1246 14 is_stmt 1             @ packages/umqtt-latest/src/umqtt.c:1246:14
	str	r0, [sp, #72]
	.loc	2 1247 9                        @ packages/umqtt-latest/src/umqtt.c:1247:9
	b	.LBB3_39
.Ltmp115:
.LBB3_34:
	.loc	2 1250 19                       @ packages/umqtt-latest/src/umqtt.c:1250:19
	ldr	r0, [sp, #60]
	.loc	2 1250 32 is_stmt 0             @ packages/umqtt-latest/src/umqtt.c:1250:32
	adds	r0, #184
	.loc	2 1250 5                        @ packages/umqtt-latest/src/umqtt.c:1250:5
	bl	rt_list_init
	add	r0, sp, #48
	str	r0, [sp, #12]                   @ 4-byte Spill
	movs	r1, #0
	movs	r2, #8
	.loc	2 1252 5 is_stmt 1              @ packages/umqtt-latest/src/umqtt.c:1252:5
	str	r2, [sp, #8]                    @ 4-byte Spill
	bl	rt_memset
	ldr	r1, [sp, #8]                    @ 4-byte Reload
                                        @ kill: def $r2 killed $r0
	.loc	2 1253 58                       @ packages/umqtt-latest/src/umqtt.c:1253:58
	ldr	r0, [sp, #12]                   @ 4-byte Reload
	movw	r12, :lower16:umqtt_create.lock_cnt
	movt	r12, :upper16:umqtt_create.lock_cnt
	ldrb.w	r3, [r12]
	adds	r2, r3, #1
	strb.w	r2, [r12]
	.loc	2 1253 5 is_stmt 0              @ packages/umqtt-latest/src/umqtt.c:1253:5
	movw	r2, :lower16:.L.str.12
	movt	r2, :upper16:.L.str.12
	bl	rt_snprintf
                                        @ kill: def $r1 killed $r0
	.loc	2 1257 57 is_stmt 1             @ packages/umqtt-latest/src/umqtt.c:1257:57
	ldr	r0, [sp, #12]                   @ 4-byte Reload
	ldr	r2, [sp, #60]
	.loc	2 1258 72                       @ packages/umqtt-latest/src/umqtt.c:1258:72
	ldr	r3, [r2, #76]
	.loc	2 1259 72                       @ packages/umqtt-latest/src/umqtt.c:1259:72
	ldrb.w	r1, [r2, #80]
	.loc	2 1255 32                       @ packages/umqtt-latest/src/umqtt.c:1255:32
	mov	r12, sp
	mov.w	lr, #50
	str.w	lr, [r12, #4]
	str.w	r1, [r12]
	movw	r1, :lower16:umqtt_thread
	movt	r1, :upper16:umqtt_thread
	bl	rt_thread_create
	.loc	2 1255 5 is_stmt 0              @ packages/umqtt-latest/src/umqtt.c:1255:5
	ldr	r1, [sp, #60]
	.loc	2 1255 30                       @ packages/umqtt-latest/src/umqtt.c:1255:30
	str.w	r0, [r1, #180]
.Ltmp116:
	.loc	2 1261 9 is_stmt 1              @ packages/umqtt-latest/src/umqtt.c:1261:9
	ldr	r0, [sp, #60]
	.loc	2 1261 22 is_stmt 0             @ packages/umqtt-latest/src/umqtt.c:1261:22
	ldr.w	r0, [r0, #180]
.Ltmp117:
	.loc	2 1261 9                        @ packages/umqtt-latest/src/umqtt.c:1261:9
	cbnz	r0, .LBB3_38
	b	.LBB3_35
.LBB3_35:
.Ltmp118:
	.loc	2 1263 9 is_stmt 1              @ packages/umqtt-latest/src/umqtt.c:1263:9
	b	.LBB3_36
.LBB3_36:
.Ltmp119:
	.loc	2 1263 9 is_stmt 0              @ packages/umqtt-latest/src/umqtt.c:1263:9
	movw	r0, :lower16:.L.str.1
	movt	r0, :upper16:.L.str.1
	bl	rt_kprintf
	movw	r0, :lower16:.L.str.13
	movt	r0, :upper16:.L.str.13
	bl	rt_kprintf
	movw	r0, :lower16:.L.str.3
	movt	r0, :upper16:.L.str.3
	bl	rt_kprintf
	b	.LBB3_37
.Ltmp120:
.LBB3_37:
	.loc	2 0 9                           @ packages/umqtt-latest/src/umqtt.c:0:9
	mvn	r0, #1
	.loc	2 1264 14 is_stmt 1             @ packages/umqtt-latest/src/umqtt.c:1264:14
	str	r0, [sp, #72]
	.loc	2 1265 9                        @ packages/umqtt-latest/src/umqtt.c:1265:9
	b	.LBB3_39
.Ltmp121:
.LBB3_38:
	.loc	2 1261 37                       @ packages/umqtt-latest/src/umqtt.c:1261:37
	b	.LBB3_39
.Ltmp122:
.LBB3_39:
	@DEBUG_LABEL: umqtt_create:exit
	.loc	2 1269 9                        @ packages/umqtt-latest/src/umqtt.c:1269:9
	ldr	r0, [sp, #72]
.Ltmp123:
	.loc	2 1269 9 is_stmt 0              @ packages/umqtt-latest/src/umqtt.c:1269:9
	cmp.w	r0, #-1
	bgt	.LBB3_41
	b	.LBB3_40
.LBB3_40:
.Ltmp124:
	.loc	2 1271 22 is_stmt 1             @ packages/umqtt-latest/src/umqtt.c:1271:22
	ldr	r0, [sp, #60]
	.loc	2 1271 9 is_stmt 0              @ packages/umqtt-latest/src/umqtt.c:1271:9
	bl	umqtt_delete
	movs	r0, #0
	.loc	2 1272 21 is_stmt 1             @ packages/umqtt-latest/src/umqtt.c:1272:21
	str	r0, [sp, #60]
	.loc	2 1273 5                        @ packages/umqtt-latest/src/umqtt.c:1273:5
	b	.LBB3_41
.Ltmp125:
.LBB3_41:
	.loc	2 1274 12                       @ packages/umqtt-latest/src/umqtt.c:1274:12
	ldr	r0, [sp, #60]
	.loc	2 1274 5 is_stmt 0              @ packages/umqtt-latest/src/umqtt.c:1274:5
	add	sp, #80
	pop	{r7, pc}
.Ltmp126:
.Lfunc_end3:
	.size	umqtt_create, .Lfunc_end3-umqtt_create
	.cfi_endproc
	.cantunwind
	.fnend
                                        @ -- End function
	.section	.text.umqtt_check_def_info,"ax",%progbits
	.p2align	3                               @ -- Begin function umqtt_check_def_info
	.type	umqtt_check_def_info,%function
	.code	16                              @ @umqtt_check_def_info
	.thumb_func
umqtt_check_def_info:
.Lfunc_begin4:
	.loc	2 923 0 is_stmt 1               @ packages/umqtt-latest/src/umqtt.c:923:0
	.fnstart
	.cfi_startproc
@ %bb.0:
	.pad	#4
	sub	sp, #4
	.cfi_def_cfa_offset 4
	str	r0, [sp]
.Ltmp127:
	.loc	2 924 9 prologue_end            @ packages/umqtt-latest/src/umqtt.c:924:9
	ldr	r0, [sp]
.Ltmp128:
	.loc	2 924 9 is_stmt 0               @ packages/umqtt-latest/src/umqtt.c:924:9
	cmp	r0, #0
	beq	.LBB4_24
	b	.LBB4_1
.LBB4_1:
.Ltmp129:
	.loc	2 926 13 is_stmt 1              @ packages/umqtt-latest/src/umqtt.c:926:13
	ldr	r0, [sp]
	.loc	2 926 19 is_stmt 0              @ packages/umqtt-latest/src/umqtt.c:926:19
	ldr	r0, [r0]
.Ltmp130:
	.loc	2 926 13                        @ packages/umqtt-latest/src/umqtt.c:926:13
	cbnz	r0, .LBB4_3
	b	.LBB4_2
.LBB4_2:
.Ltmp131:
	.loc	2 926 37                        @ packages/umqtt-latest/src/umqtt.c:926:37
	ldr	r1, [sp]
	mov.w	r0, #20480
	.loc	2 926 53                        @ packages/umqtt-latest/src/umqtt.c:926:53
	str	r0, [r1]
	.loc	2 926 84                        @ packages/umqtt-latest/src/umqtt.c:926:84
	b	.LBB4_3
.Ltmp132:
.LBB4_3:
	.loc	2 927 13 is_stmt 1              @ packages/umqtt-latest/src/umqtt.c:927:13
	ldr	r0, [sp]
	.loc	2 927 19 is_stmt 0              @ packages/umqtt-latest/src/umqtt.c:927:19
	ldr	r0, [r0, #4]
.Ltmp133:
	.loc	2 927 13                        @ packages/umqtt-latest/src/umqtt.c:927:13
	cbnz	r0, .LBB4_5
	b	.LBB4_4
.LBB4_4:
.Ltmp134:
	.loc	2 927 37                        @ packages/umqtt-latest/src/umqtt.c:927:37
	ldr	r1, [sp]
	mov.w	r0, #2048
	.loc	2 927 53                        @ packages/umqtt-latest/src/umqtt.c:927:53
	str	r0, [r1, #4]
	.loc	2 927 84                        @ packages/umqtt-latest/src/umqtt.c:927:84
	b	.LBB4_5
.Ltmp135:
.LBB4_5:
	.loc	2 928 13 is_stmt 1              @ packages/umqtt-latest/src/umqtt.c:928:13
	ldr	r0, [sp]
	.loc	2 928 19 is_stmt 0              @ packages/umqtt-latest/src/umqtt.c:928:19
	ldrb.w	r0, [r0, #40]
.Ltmp136:
	.loc	2 928 13                        @ packages/umqtt-latest/src/umqtt.c:928:13
	cbnz	r0, .LBB4_7
	b	.LBB4_6
.LBB4_6:
.Ltmp137:
	.loc	2 928 45                        @ packages/umqtt-latest/src/umqtt.c:928:45
	ldr	r1, [sp]
	movs	r0, #5
	.loc	2 928 69                        @ packages/umqtt-latest/src/umqtt.c:928:69
	strb.w	r0, [r1, #40]
	.loc	2 928 109                       @ packages/umqtt-latest/src/umqtt.c:928:109
	b	.LBB4_7
.Ltmp138:
.LBB4_7:
	.loc	2 929 13 is_stmt 1              @ packages/umqtt-latest/src/umqtt.c:929:13
	ldr	r0, [sp]
	.loc	2 929 19 is_stmt 0              @ packages/umqtt-latest/src/umqtt.c:929:19
	ldr	r0, [r0, #44]
.Ltmp139:
	.loc	2 929 13                        @ packages/umqtt-latest/src/umqtt.c:929:13
	cbnz	r0, .LBB4_9
	b	.LBB4_8
.LBB4_8:
.Ltmp140:
	.loc	2 929 46                        @ packages/umqtt-latest/src/umqtt.c:929:46
	ldr	r1, [sp]
	movs	r0, #60
	.loc	2 929 71                        @ packages/umqtt-latest/src/umqtt.c:929:71
	str	r0, [r1, #44]
	.loc	2 929 112                       @ packages/umqtt-latest/src/umqtt.c:929:112
	b	.LBB4_9
.Ltmp141:
.LBB4_9:
	.loc	2 930 13 is_stmt 1              @ packages/umqtt-latest/src/umqtt.c:930:13
	ldr	r0, [sp]
	.loc	2 930 19 is_stmt 0              @ packages/umqtt-latest/src/umqtt.c:930:19
	ldrb.w	r0, [r0, #48]
.Ltmp142:
	.loc	2 930 13                        @ packages/umqtt-latest/src/umqtt.c:930:13
	cbnz	r0, .LBB4_11
	b	.LBB4_10
.LBB4_10:
.Ltmp143:
	.loc	2 930 45                        @ packages/umqtt-latest/src/umqtt.c:930:45
	ldr	r1, [sp]
	movs	r0, #5
	.loc	2 930 69                        @ packages/umqtt-latest/src/umqtt.c:930:69
	strb.w	r0, [r1, #48]
	.loc	2 930 109                       @ packages/umqtt-latest/src/umqtt.c:930:109
	b	.LBB4_11
.Ltmp144:
.LBB4_11:
	.loc	2 931 13 is_stmt 1              @ packages/umqtt-latest/src/umqtt.c:931:13
	ldr	r0, [sp]
	.loc	2 931 19 is_stmt 0              @ packages/umqtt-latest/src/umqtt.c:931:19
	ldr	r0, [r0, #52]
.Ltmp145:
	.loc	2 931 13                        @ packages/umqtt-latest/src/umqtt.c:931:13
	cbnz	r0, .LBB4_13
	b	.LBB4_12
.LBB4_12:
.Ltmp146:
	.loc	2 931 46                        @ packages/umqtt-latest/src/umqtt.c:931:46
	ldr	r1, [sp]
	movs	r0, #30
	.loc	2 931 71                        @ packages/umqtt-latest/src/umqtt.c:931:71
	str	r0, [r1, #52]
	.loc	2 931 112                       @ packages/umqtt-latest/src/umqtt.c:931:112
	b	.LBB4_13
.Ltmp147:
.LBB4_13:
	.loc	2 932 13 is_stmt 1              @ packages/umqtt-latest/src/umqtt.c:932:13
	ldr	r0, [sp]
	.loc	2 932 19 is_stmt 0              @ packages/umqtt-latest/src/umqtt.c:932:19
	ldr	r0, [r0, #60]
.Ltmp148:
	.loc	2 932 13                        @ packages/umqtt-latest/src/umqtt.c:932:13
	cbnz	r0, .LBB4_15
	b	.LBB4_14
.LBB4_14:
.Ltmp149:
	.loc	2 932 40                        @ packages/umqtt-latest/src/umqtt.c:932:40
	ldr	r1, [sp]
	movs	r0, #4
	.loc	2 932 59                        @ packages/umqtt-latest/src/umqtt.c:932:59
	str	r0, [r1, #60]
	.loc	2 932 97                        @ packages/umqtt-latest/src/umqtt.c:932:97
	b	.LBB4_15
.Ltmp150:
.LBB4_15:
	.loc	2 933 13 is_stmt 1              @ packages/umqtt-latest/src/umqtt.c:933:13
	ldr	r0, [sp]
	.loc	2 933 19 is_stmt 0              @ packages/umqtt-latest/src/umqtt.c:933:19
	ldr	r0, [r0, #56]
.Ltmp151:
	.loc	2 933 13                        @ packages/umqtt-latest/src/umqtt.c:933:13
	cbnz	r0, .LBB4_17
	b	.LBB4_16
.LBB4_16:
.Ltmp152:
	.loc	2 933 40                        @ packages/umqtt-latest/src/umqtt.c:933:40
	ldr	r1, [sp]
	movs	r0, #100
	.loc	2 933 59                        @ packages/umqtt-latest/src/umqtt.c:933:59
	str	r0, [r1, #56]
	.loc	2 933 97                        @ packages/umqtt-latest/src/umqtt.c:933:97
	b	.LBB4_17
.Ltmp153:
.LBB4_17:
	.loc	2 934 13 is_stmt 1              @ packages/umqtt-latest/src/umqtt.c:934:13
	ldr	r0, [sp]
	.loc	2 934 19 is_stmt 0              @ packages/umqtt-latest/src/umqtt.c:934:19
	ldr	r0, [r0, #64]
.Ltmp154:
	.loc	2 934 13                        @ packages/umqtt-latest/src/umqtt.c:934:13
	cbnz	r0, .LBB4_19
	b	.LBB4_18
.LBB4_18:
.Ltmp155:
	.loc	2 934 40                        @ packages/umqtt-latest/src/umqtt.c:934:40
	ldr	r1, [sp]
	movs	r0, #4
	.loc	2 934 59                        @ packages/umqtt-latest/src/umqtt.c:934:59
	str	r0, [r1, #64]
	.loc	2 934 94                        @ packages/umqtt-latest/src/umqtt.c:934:94
	b	.LBB4_19
.Ltmp156:
.LBB4_19:
	.loc	2 935 13 is_stmt 1              @ packages/umqtt-latest/src/umqtt.c:935:13
	ldr	r0, [sp]
	.loc	2 935 19 is_stmt 0              @ packages/umqtt-latest/src/umqtt.c:935:19
	ldr	r0, [r0, #68]
.Ltmp157:
	.loc	2 935 13                        @ packages/umqtt-latest/src/umqtt.c:935:13
	cbnz	r0, .LBB4_21
	b	.LBB4_20
.LBB4_20:
.Ltmp158:
	.loc	2 935 45                        @ packages/umqtt-latest/src/umqtt.c:935:45
	ldr	r1, [sp]
	mov.w	r0, #8192
	.loc	2 935 69                        @ packages/umqtt-latest/src/umqtt.c:935:69
	str	r0, [r1, #68]
	.loc	2 935 109                       @ packages/umqtt-latest/src/umqtt.c:935:109
	b	.LBB4_21
.Ltmp159:
.LBB4_21:
	.loc	2 936 13 is_stmt 1              @ packages/umqtt-latest/src/umqtt.c:936:13
	ldr	r0, [sp]
	.loc	2 936 19 is_stmt 0              @ packages/umqtt-latest/src/umqtt.c:936:19
	ldrb.w	r0, [r0, #72]
.Ltmp160:
	.loc	2 936 13                        @ packages/umqtt-latest/src/umqtt.c:936:13
	cbnz	r0, .LBB4_23
	b	.LBB4_22
.LBB4_22:
.Ltmp161:
	.loc	2 936 43                        @ packages/umqtt-latest/src/umqtt.c:936:43
	ldr	r1, [sp]
	movs	r0, #9
	.loc	2 936 65                        @ packages/umqtt-latest/src/umqtt.c:936:65
	strb.w	r0, [r1, #72]
	.loc	2 936 103                       @ packages/umqtt-latest/src/umqtt.c:936:103
	b	.LBB4_23
.Ltmp162:
.LBB4_23:
	.loc	2 937 5 is_stmt 1               @ packages/umqtt-latest/src/umqtt.c:937:5
	b	.LBB4_24
.Ltmp163:
.LBB4_24:
	.loc	2 938 1                         @ packages/umqtt-latest/src/umqtt.c:938:1
	add	sp, #4
	bx	lr
.Ltmp164:
.Lfunc_end4:
	.size	umqtt_check_def_info, .Lfunc_end4-umqtt_check_def_info
	.cfi_endproc
	.cantunwind
	.fnend
                                        @ -- End function
	.section	.text.rt_list_init,"ax",%progbits
	.p2align	3                               @ -- Begin function rt_list_init
	.type	rt_list_init,%function
	.code	16                              @ @rt_list_init
	.thumb_func
rt_list_init:
.Lfunc_begin5:
	.loc	6 48 0                          @ rt-thread/include\rtservice.h:48:0
	.fnstart
	.cfi_startproc
@ %bb.0:
	.pad	#4
	sub	sp, #4
	.cfi_def_cfa_offset 4
	str	r0, [sp]
.Ltmp165:
	.loc	6 49 25 prologue_end            @ rt-thread/include\rtservice.h:49:25
	ldr	r0, [sp]
	.loc	6 49 23 is_stmt 0               @ rt-thread/include\rtservice.h:49:23
	str	r0, [r0, #4]
	.loc	6 49 5                          @ rt-thread/include\rtservice.h:49:5
	ldr	r1, [sp]
	.loc	6 49 13                         @ rt-thread/include\rtservice.h:49:13
	str	r0, [r1]
	.loc	6 50 1 is_stmt 1                @ rt-thread/include\rtservice.h:50:1
	add	sp, #4
	bx	lr
.Ltmp166:
.Lfunc_end5:
	.size	rt_list_init, .Lfunc_end5-rt_list_init
	.cfi_endproc
	.cantunwind
	.fnend
                                        @ -- End function
	.section	.text.rt_list_insert_after,"ax",%progbits
	.p2align	3                               @ -- Begin function rt_list_insert_after
	.type	rt_list_insert_after,%function
	.code	16                              @ @rt_list_insert_after
	.thumb_func
rt_list_insert_after:
.Lfunc_begin6:
	.loc	6 59 0                          @ rt-thread/include\rtservice.h:59:0
	.fnstart
	.cfi_startproc
@ %bb.0:
	.pad	#8
	sub	sp, #8
	.cfi_def_cfa_offset 8
	str	r0, [sp, #4]
	str	r1, [sp]
.Ltmp167:
	.loc	6 60 21 prologue_end            @ rt-thread/include\rtservice.h:60:21
	ldr	r0, [sp]
	.loc	6 60 5 is_stmt 0                @ rt-thread/include\rtservice.h:60:5
	ldr	r1, [sp, #4]
	.loc	6 60 8                          @ rt-thread/include\rtservice.h:60:8
	ldr	r1, [r1]
	.loc	6 60 19                         @ rt-thread/include\rtservice.h:60:19
	str	r0, [r1, #4]
	.loc	6 61 15 is_stmt 1               @ rt-thread/include\rtservice.h:61:15
	ldr	r0, [sp, #4]
	.loc	6 61 18 is_stmt 0               @ rt-thread/include\rtservice.h:61:18
	ldr	r0, [r0]
	.loc	6 61 5                          @ rt-thread/include\rtservice.h:61:5
	ldr	r1, [sp]
	.loc	6 61 13                         @ rt-thread/include\rtservice.h:61:13
	str	r0, [r1]
	.loc	6 63 15 is_stmt 1               @ rt-thread/include\rtservice.h:63:15
	ldr	r0, [sp]
	.loc	6 63 5 is_stmt 0                @ rt-thread/include\rtservice.h:63:5
	ldr	r1, [sp, #4]
	.loc	6 63 13                         @ rt-thread/include\rtservice.h:63:13
	str	r0, [r1]
	.loc	6 64 15 is_stmt 1               @ rt-thread/include\rtservice.h:64:15
	ldr	r0, [sp, #4]
	.loc	6 64 5 is_stmt 0                @ rt-thread/include\rtservice.h:64:5
	ldr	r1, [sp]
	.loc	6 64 13                         @ rt-thread/include\rtservice.h:64:13
	str	r0, [r1, #4]
	.loc	6 65 1 is_stmt 1                @ rt-thread/include\rtservice.h:65:1
	add	sp, #8
	bx	lr
.Ltmp168:
.Lfunc_end6:
	.size	rt_list_insert_after, .Lfunc_end6-rt_list_insert_after
	.cfi_endproc
	.cantunwind
	.fnend
                                        @ -- End function
	.section	.text.umqtt_uplink_timer_callback,"ax",%progbits
	.p2align	3                               @ -- Begin function umqtt_uplink_timer_callback
	.type	umqtt_uplink_timer_callback,%function
	.code	16                              @ @umqtt_uplink_timer_callback
	.thumb_func
umqtt_uplink_timer_callback:
.Lfunc_begin7:
	.loc	2 1047 0                        @ packages/umqtt-latest/src/umqtt.c:1047:0
	.fnstart
	.cfi_startproc
@ %bb.0:
	.save	{r7, lr}
	push	{r7, lr}
	.cfi_def_cfa_offset 8
	.cfi_offset lr, -4
	.cfi_offset r7, -8
	.pad	#8
	sub	sp, #8
	.cfi_def_cfa_offset 16
	str	r0, [sp, #4]
.Ltmp169:
	.loc	2 1048 58 prologue_end          @ packages/umqtt-latest/src/umqtt.c:1048:58
	ldr	r0, [sp, #4]
	.loc	2 1048 26 is_stmt 0             @ packages/umqtt-latest/src/umqtt.c:1048:26
	str	r0, [sp]
	.loc	2 1049 30 is_stmt 1             @ packages/umqtt-latest/src/umqtt.c:1049:30
	ldr	r0, [sp]
	.loc	2 1049 5 is_stmt 0              @ packages/umqtt-latest/src/umqtt.c:1049:5
	bl	umqtt_keepalive_callback
	.loc	2 1050 30 is_stmt 1             @ packages/umqtt-latest/src/umqtt.c:1050:30
	ldr	r0, [sp]
	.loc	2 1050 5 is_stmt 0              @ packages/umqtt-latest/src/umqtt.c:1050:5
	bl	umqtt_reconnect_callback
	.loc	2 1051 27 is_stmt 1             @ packages/umqtt-latest/src/umqtt.c:1051:27
	ldr	r0, [sp]
	.loc	2 1051 5 is_stmt 0              @ packages/umqtt-latest/src/umqtt.c:1051:5
	bl	pubrec_cycle_callback
	.loc	2 1052 1 is_stmt 1              @ packages/umqtt-latest/src/umqtt.c:1052:1
	add	sp, #8
	pop	{r7, pc}
.Ltmp170:
.Lfunc_end7:
	.size	umqtt_uplink_timer_callback, .Lfunc_end7-umqtt_uplink_timer_callback
	.cfi_endproc
	.cantunwind
	.fnend
                                        @ -- End function
	.section	.text.umqtt_thread,"ax",%progbits
	.p2align	3                               @ -- Begin function umqtt_thread
	.type	umqtt_thread,%function
	.code	16                              @ @umqtt_thread
	.thumb_func
umqtt_thread:
.Lfunc_begin8:
	.loc	2 889 0                         @ packages/umqtt-latest/src/umqtt.c:889:0
	.fnstart
	.cfi_startproc
@ %bb.0:
	.save	{r7, lr}
	push	{r7, lr}
	.cfi_def_cfa_offset 8
	.cfi_offset lr, -4
	.cfi_offset r7, -8
	.pad	#16
	sub	sp, #16
	.cfi_def_cfa_offset 24
	str	r0, [sp, #12]
	movs	r0, #0
.Ltmp171:
	.loc	2 890 9 prologue_end            @ packages/umqtt-latest/src/umqtt.c:890:9
	str	r0, [sp, #8]
	.loc	2 891 58                        @ packages/umqtt-latest/src/umqtt.c:891:58
	ldr	r0, [sp, #12]
	.loc	2 891 26 is_stmt 0              @ packages/umqtt-latest/src/umqtt.c:891:26
	str	r0, [sp, #4]
.Ltmp172:
	.loc	2 892 5 is_stmt 1               @ packages/umqtt-latest/src/umqtt.c:892:5
	ldr	r0, [sp, #4]
.Ltmp173:
	.loc	2 892 5 is_stmt 0               @ packages/umqtt-latest/src/umqtt.c:892:5
	cbnz	r0, .LBB8_2
	b	.LBB8_1
.LBB8_1:
.Ltmp174:
	.loc	2 892 5                         @ packages/umqtt-latest/src/umqtt.c:892:5
	movw	r0, :lower16:.L.str.24
	movt	r0, :upper16:.L.str.24
	movw	r1, :lower16:.L__FUNCTION__.umqtt_thread
	movt	r1, :upper16:.L__FUNCTION__.umqtt_thread
	mov.w	r2, #892
	bl	rt_assert_handler
	b	.LBB8_2
.Ltmp175:
.LBB8_2:
	.loc	2 894 5 is_stmt 1               @ packages/umqtt-latest/src/umqtt.c:894:5
	b	.LBB8_3
.LBB8_3:                                @ =>This Inner Loop Header: Depth=1
.Ltmp176:
	.loc	2 896 40                        @ packages/umqtt-latest/src/umqtt.c:896:40
	ldr	r0, [sp, #4]
	.loc	2 896 16 is_stmt 0              @ packages/umqtt-latest/src/umqtt.c:896:16
	bl	umqtt_handle_readpacket
	.loc	2 896 14                        @ packages/umqtt-latest/src/umqtt.c:896:14
	str	r0, [sp, #8]
.Ltmp177:
	.loc	2 897 13 is_stmt 1              @ packages/umqtt-latest/src/umqtt.c:897:13
	ldr	r0, [sp, #8]
.Ltmp178:
	.loc	2 897 13 is_stmt 0              @ packages/umqtt-latest/src/umqtt.c:897:13
	adds	r0, #13
	cmp	r0, #0
	bne	.LBB8_11
	b	.LBB8_4
.LBB8_4:                                @   in Loop: Header=BB8_3 Depth=1
.Ltmp179:
	.loc	2 899 13 is_stmt 1              @ packages/umqtt-latest/src/umqtt.c:899:13
	b	.LBB8_5
.LBB8_5:                                @   in Loop: Header=BB8_3 Depth=1
.Ltmp180:
	.loc	2 899 13 is_stmt 0              @ packages/umqtt-latest/src/umqtt.c:899:13
	movw	r0, :lower16:.L.str.16
	movt	r0, :upper16:.L.str.16
	bl	rt_kprintf
	movw	r0, :lower16:.L.str.58
	movt	r0, :upper16:.L.str.58
	bl	rt_kprintf
	movw	r0, :lower16:.L.str.3
	movt	r0, :upper16:.L.str.3
	bl	rt_kprintf
	b	.LBB8_6
.Ltmp181:
.LBB8_6:                                @   in Loop: Header=BB8_3 Depth=1
	.loc	2 900 27 is_stmt 1              @ packages/umqtt-latest/src/umqtt.c:900:27
	ldr	r0, [sp, #4]
	.loc	2 900 35 is_stmt 0              @ packages/umqtt-latest/src/umqtt.c:900:35
	ldr.w	r0, [r0, #136]
	.loc	2 900 13                        @ packages/umqtt-latest/src/umqtt.c:900:13
	bl	rt_timer_stop
	.loc	2 902 36 is_stmt 1              @ packages/umqtt-latest/src/umqtt.c:902:36
	ldr	r0, [sp, #4]
	.loc	2 902 44 is_stmt 0              @ packages/umqtt-latest/src/umqtt.c:902:44
	ldr	r0, [r0]
	.loc	2 902 13                        @ packages/umqtt-latest/src/umqtt.c:902:13
	bl	umqtt_trans_disconnect
	.loc	2 903 13 is_stmt 1              @ packages/umqtt-latest/src/umqtt.c:903:13
	ldr	r1, [sp, #4]
	mov.w	r0, #-1
	.loc	2 903 26 is_stmt 0              @ packages/umqtt-latest/src/umqtt.c:903:26
	str	r0, [r1]
	movw	r0, #5000
	.loc	2 904 13 is_stmt 1              @ packages/umqtt-latest/src/umqtt.c:904:13
	bl	rt_thread_mdelay
	.loc	2 906 34                        @ packages/umqtt-latest/src/umqtt.c:906:34
	ldr	r0, [sp, #4]
	movs	r1, #1
	.loc	2 906 20 is_stmt 0              @ packages/umqtt-latest/src/umqtt.c:906:20
	bl	umqtt_connect
	.loc	2 906 18                        @ packages/umqtt-latest/src/umqtt.c:906:18
	str	r0, [sp, #8]
.Ltmp182:
	.loc	2 907 17 is_stmt 1              @ packages/umqtt-latest/src/umqtt.c:907:17
	ldr	r0, [sp, #8]
.Ltmp183:
	.loc	2 907 17 is_stmt 0              @ packages/umqtt-latest/src/umqtt.c:907:17
	adds	r0, #14
	cbnz	r0, .LBB8_10
	b	.LBB8_7
.LBB8_7:
.Ltmp184:
	.loc	2 909 17 is_stmt 1              @ packages/umqtt-latest/src/umqtt.c:909:17
	b	.LBB8_8
.LBB8_8:
.Ltmp185:
	.loc	2 909 17 is_stmt 0              @ packages/umqtt-latest/src/umqtt.c:909:17
	movw	r0, :lower16:.L.str.1
	movt	r0, :upper16:.L.str.1
	bl	rt_kprintf
	movw	r0, :lower16:.L.str.59
	movt	r0, :upper16:.L.str.59
	bl	rt_kprintf
	movw	r0, :lower16:.L.str.3
	movt	r0, :upper16:.L.str.3
	bl	rt_kprintf
	b	.LBB8_9
.Ltmp186:
.LBB8_9:
	.loc	2 910 17 is_stmt 1              @ packages/umqtt-latest/src/umqtt.c:910:17
	b	.LBB8_12
.Ltmp187:
.LBB8_10:                               @   in Loop: Header=BB8_3 Depth=1
	.loc	2 912 9                         @ packages/umqtt-latest/src/umqtt.c:912:9
	b	.LBB8_11
.Ltmp188:
.LBB8_11:                               @   in Loop: Header=BB8_3 Depth=1
	.loc	2 894 5                         @ packages/umqtt-latest/src/umqtt.c:894:5
	b	.LBB8_3
.LBB8_12:
.Ltmp189:
	@DEBUG_LABEL: umqtt_thread:_exit
	.loc	2 917 5                         @ packages/umqtt-latest/src/umqtt.c:917:5
	b	.LBB8_13
.LBB8_13:
.Ltmp190:
	.loc	2 917 5 is_stmt 0               @ packages/umqtt-latest/src/umqtt.c:917:5
	movw	r0, :lower16:.L.str.19
	movt	r0, :upper16:.L.str.19
	bl	rt_kprintf
	movw	r0, :lower16:.L.str.60
	movt	r0, :upper16:.L.str.60
	bl	rt_kprintf
	movw	r0, :lower16:.L.str.3
	movt	r0, :upper16:.L.str.3
	bl	rt_kprintf
	b	.LBB8_14
.Ltmp191:
.LBB8_14:
	.loc	2 918 5 is_stmt 1               @ packages/umqtt-latest/src/umqtt.c:918:5
	ldr	r1, [sp, #4]
	movs	r0, #0
	.loc	2 918 25 is_stmt 0              @ packages/umqtt-latest/src/umqtt.c:918:25
	str.w	r0, [r1, #180]
	.loc	2 919 5 is_stmt 1               @ packages/umqtt-latest/src/umqtt.c:919:5
	add	sp, #16
	pop	{r7, pc}
.Ltmp192:
.Lfunc_end8:
	.size	umqtt_thread, .Lfunc_end8-umqtt_thread
	.cfi_endproc
	.cantunwind
	.fnend
                                        @ -- End function
	.section	.text.umqtt_start,"ax",%progbits
	.hidden	umqtt_start                     @ -- Begin function umqtt_start
	.globl	umqtt_start
	.p2align	3
	.type	umqtt_start,%function
	.code	16                              @ @umqtt_start
	.thumb_func
umqtt_start:
.Lfunc_begin9:
	.loc	2 1286 0                        @ packages/umqtt-latest/src/umqtt.c:1286:0
	.fnstart
	.cfi_startproc
@ %bb.0:
	.save	{r7, lr}
	push	{r7, lr}
	.cfi_def_cfa_offset 8
	.cfi_offset lr, -4
	.cfi_offset r7, -8
	.pad	#120
	sub	sp, #120
	.cfi_def_cfa_offset 128
	str	r0, [sp, #116]
	movs	r0, #0
.Ltmp193:
	.loc	2 1287 9 prologue_end           @ packages/umqtt-latest/src/umqtt.c:1287:9
	str	r0, [sp, #28]                   @ 4-byte Spill
	str	r0, [sp, #112]
	.loc	2 1287 19 is_stmt 0             @ packages/umqtt-latest/src/umqtt.c:1287:19
	str	r0, [sp, #108]
	.loc	2 1288 33 is_stmt 1             @ packages/umqtt-latest/src/umqtt.c:1288:33
	str	r0, [sp, #104]
	.loc	2 1289 16                       @ packages/umqtt-latest/src/umqtt.c:1289:16
	str	r0, [sp, #100]
	add	r0, sp, #36
	movs	r1, #64
	.loc	2 1290 22                       @ packages/umqtt-latest/src/umqtt.c:1290:22
	bl	__aeabi_memclr4
	ldr	r0, [sp, #28]                   @ 4-byte Reload
	.loc	2 1291 26                       @ packages/umqtt-latest/src/umqtt.c:1291:26
	str	r0, [sp, #32]
.Ltmp194:
	.loc	2 1292 9                        @ packages/umqtt-latest/src/umqtt.c:1292:9
	ldr	r0, [sp, #116]
.Ltmp195:
	.loc	2 1292 9 is_stmt 0              @ packages/umqtt-latest/src/umqtt.c:1292:9
	cbnz	r0, .LBB9_4
	b	.LBB9_1
.LBB9_1:
	.loc	2 0 9                           @ packages/umqtt-latest/src/umqtt.c:0:9
	mvn	r0, #7
.Ltmp196:
	.loc	2 1293 14 is_stmt 1             @ packages/umqtt-latest/src/umqtt.c:1293:14
	str	r0, [sp, #112]
	.loc	2 1294 9                        @ packages/umqtt-latest/src/umqtt.c:1294:9
	b	.LBB9_2
.LBB9_2:
.Ltmp197:
	.loc	2 1294 9 is_stmt 0              @ packages/umqtt-latest/src/umqtt.c:1294:9
	movw	r0, :lower16:.L.str.1
	movt	r0, :upper16:.L.str.1
	bl	rt_kprintf
	movw	r0, :lower16:.L.str.14
	movt	r0, :upper16:.L.str.14
	bl	rt_kprintf
	movw	r0, :lower16:.L.str.3
	movt	r0, :upper16:.L.str.3
	bl	rt_kprintf
	b	.LBB9_3
.Ltmp198:
.LBB9_3:
	.loc	2 1295 9 is_stmt 1              @ packages/umqtt-latest/src/umqtt.c:1295:9
	b	.LBB9_39
.Ltmp199:
.LBB9_4:
	.loc	2 1298 24                       @ packages/umqtt-latest/src/umqtt.c:1298:24
	ldr	r0, [sp, #116]
	movs	r1, #1
	.loc	2 1298 5 is_stmt 0              @ packages/umqtt-latest/src/umqtt.c:1298:5
	str	r1, [sp, #24]                   @ 4-byte Spill
	bl	set_connect_status
	ldr	r1, [sp, #24]                   @ 4-byte Reload
	.loc	2 1300 26 is_stmt 1             @ packages/umqtt-latest/src/umqtt.c:1300:26
	ldr	r0, [sp, #116]
	.loc	2 1300 12 is_stmt 0             @ packages/umqtt-latest/src/umqtt.c:1300:12
	bl	umqtt_connect
	.loc	2 1300 10                       @ packages/umqtt-latest/src/umqtt.c:1300:10
	str	r0, [sp, #112]
.Ltmp200:
	.loc	2 1301 9 is_stmt 1              @ packages/umqtt-latest/src/umqtt.c:1301:9
	ldr	r0, [sp, #112]
.Ltmp201:
	.loc	2 1301 9 is_stmt 0              @ packages/umqtt-latest/src/umqtt.c:1301:9
	cmp.w	r0, #-1
	bgt	.LBB9_6
	b	.LBB9_5
.LBB9_5:
.Ltmp202:
	.loc	2 1302 9 is_stmt 1              @ packages/umqtt-latest/src/umqtt.c:1302:9
	b	.LBB9_39
.Ltmp203:
.LBB9_6:
	.loc	2 1304 9                        @ packages/umqtt-latest/src/umqtt.c:1304:9
	ldr	r0, [sp, #116]
	.loc	2 1304 17 is_stmt 0             @ packages/umqtt-latest/src/umqtt.c:1304:17
	ldr.w	r0, [r0, #180]
.Ltmp204:
	.loc	2 1304 9                        @ packages/umqtt-latest/src/umqtt.c:1304:9
	cbz	r0, .LBB9_8
	b	.LBB9_7
.LBB9_7:
.Ltmp205:
	.loc	2 1306 27 is_stmt 1             @ packages/umqtt-latest/src/umqtt.c:1306:27
	ldr	r0, [sp, #116]
	.loc	2 1306 35 is_stmt 0             @ packages/umqtt-latest/src/umqtt.c:1306:35
	ldr.w	r0, [r0, #180]
	.loc	2 1306 9                        @ packages/umqtt-latest/src/umqtt.c:1306:9
	bl	rt_thread_startup
	.loc	2 1307 5 is_stmt 1              @ packages/umqtt-latest/src/umqtt.c:1307:5
	b	.LBB9_8
.Ltmp206:
.LBB9_8:
	.loc	2 1309 9                        @ packages/umqtt-latest/src/umqtt.c:1309:9
	ldr	r0, [sp, #116]
	.loc	2 1309 17 is_stmt 0             @ packages/umqtt-latest/src/umqtt.c:1309:17
	ldr.w	r0, [r0, #136]
.Ltmp207:
	.loc	2 1309 9                        @ packages/umqtt-latest/src/umqtt.c:1309:9
	cbz	r0, .LBB9_14
	b	.LBB9_9
.LBB9_9:
.Ltmp208:
	.loc	2 1311 28 is_stmt 1             @ packages/umqtt-latest/src/umqtt.c:1311:28
	ldr	r0, [sp, #116]
	.loc	2 1311 36 is_stmt 0             @ packages/umqtt-latest/src/umqtt.c:1311:36
	ldr.w	r0, [r0, #136]
	.loc	2 1311 13                       @ packages/umqtt-latest/src/umqtt.c:1311:13
	bl	rt_timer_start
.Ltmp209:
	.loc	2 1311 13                       @ packages/umqtt-latest/src/umqtt.c:1311:13
	cbz	r0, .LBB9_13
	b	.LBB9_10
.LBB9_10:
	.loc	2 0 13                          @ packages/umqtt-latest/src/umqtt.c:0:13
	mov.w	r0, #-1
.Ltmp210:
	.loc	2 1313 18 is_stmt 1             @ packages/umqtt-latest/src/umqtt.c:1313:18
	str	r0, [sp, #112]
	.loc	2 1314 13                       @ packages/umqtt-latest/src/umqtt.c:1314:13
	b	.LBB9_11
.LBB9_11:
.Ltmp211:
	.loc	2 1314 13 is_stmt 0             @ packages/umqtt-latest/src/umqtt.c:1314:13
	movw	r0, :lower16:.L.str.1
	movt	r0, :upper16:.L.str.1
	bl	rt_kprintf
	movw	r0, :lower16:.L.str.15
	movt	r0, :upper16:.L.str.15
	bl	rt_kprintf
	movw	r0, :lower16:.L.str.3
	movt	r0, :upper16:.L.str.3
	bl	rt_kprintf
	b	.LBB9_12
.Ltmp212:
.LBB9_12:
	.loc	2 1315 13 is_stmt 1             @ packages/umqtt-latest/src/umqtt.c:1315:13
	b	.LBB9_39
.Ltmp213:
.LBB9_13:
	.loc	2 1318 5                        @ packages/umqtt-latest/src/umqtt.c:1318:5
	b	.LBB9_14
.Ltmp214:
.LBB9_14:
	.loc	2 1320 31                       @ packages/umqtt-latest/src/umqtt.c:1320:31
	ldr	r0, [sp, #116]
	.loc	2 1320 39 is_stmt 0             @ packages/umqtt-latest/src/umqtt.c:1320:39
	adds	r0, #144
	.loc	2 1320 14                       @ packages/umqtt-latest/src/umqtt.c:1320:14
	bl	rt_list_isempty
.Ltmp215:
	.loc	2 1320 9                        @ packages/umqtt-latest/src/umqtt.c:1320:9
	cmp	r0, #0
	bne.w	.LBB9_38
	b	.LBB9_15
.LBB9_15:
.Ltmp216:
	.loc	2 1322 9 is_stmt 1              @ packages/umqtt-latest/src/umqtt.c:1322:9
	ldr	r0, [sp, #116]
	ldr.w	r0, [r0, #144]
	str	r0, [sp, #100]
	b	.LBB9_16
.LBB9_16:                               @ =>This Inner Loop Header: Depth=1
.Ltmp217:
	.loc	2 1322 9 is_stmt 0              @ packages/umqtt-latest/src/umqtt.c:1322:9
	ldr	r0, [sp, #100]
	ldr	r1, [sp, #116]
	adds	r1, #144
.Ltmp218:
	.loc	2 1322 9                        @ packages/umqtt-latest/src/umqtt.c:1322:9
	cmp	r0, r1
	beq.w	.LBB9_37
	b	.LBB9_17
.LBB9_17:                               @   in Loop: Header=BB9_16 Depth=1
.Ltmp219:
	.loc	2 1324 24 is_stmt 1             @ packages/umqtt-latest/src/umqtt.c:1324:24
	ldr	r0, [sp, #100]
	subs	r0, #12
	.loc	2 1324 22 is_stmt 0             @ packages/umqtt-latest/src/umqtt.c:1324:22
	str	r0, [sp, #104]
	add	r0, sp, #36
	str	r0, [sp, #20]                   @ 4-byte Spill
	movs	r1, #0
	str	r1, [sp, #16]                   @ 4-byte Spill
	movs	r2, #64
	.loc	2 1325 13 is_stmt 1             @ packages/umqtt-latest/src/umqtt.c:1325:13
	bl	rt_memset
	.loc	2 1326 40                       @ packages/umqtt-latest/src/umqtt.c:1326:40
	ldrb.w	r0, [sp, #36]
	and	r0, r0, #249
	adds	r0, #2
	strb.w	r0, [sp, #36]
	.loc	2 1327 68                       @ packages/umqtt-latest/src/umqtt.c:1327:68
	ldr	r0, [sp, #116]
	.loc	2 1327 50 is_stmt 0             @ packages/umqtt-latest/src/umqtt.c:1327:50
	bl	get_next_packetID
	.loc	2 1327 48                       @ packages/umqtt-latest/src/umqtt.c:1327:48
	strh.w	r0, [sp, #44]
	.loc	2 1328 69 is_stmt 1             @ packages/umqtt-latest/src/umqtt.c:1328:69
	ldr	r0, [sp, #104]
	.loc	2 1328 79 is_stmt 0             @ packages/umqtt-latest/src/umqtt.c:1328:79
	ldr	r0, [r0]
	.loc	2 1328 67                       @ packages/umqtt-latest/src/umqtt.c:1328:67
	str	r0, [sp, #52]
	.loc	2 1329 74 is_stmt 1             @ packages/umqtt-latest/src/umqtt.c:1329:74
	ldr	r0, [sp, #104]
	.loc	2 1329 84 is_stmt 0             @ packages/umqtt-latest/src/umqtt.c:1329:84
	ldr	r0, [r0]
	.loc	2 1329 67                       @ packages/umqtt-latest/src/umqtt.c:1329:67
	bl	strlen
	ldr	r1, [sp, #16]                   @ 4-byte Reload
	.loc	2 1329 65                       @ packages/umqtt-latest/src/umqtt.c:1329:65
	strh.w	r0, [sp, #48]
	.loc	2 1330 76 is_stmt 1             @ packages/umqtt-latest/src/umqtt.c:1330:76
	ldr	r0, [sp, #104]
	.loc	2 1330 86 is_stmt 0             @ packages/umqtt-latest/src/umqtt.c:1330:86
	ldrb	r0, [r0, #8]
	.loc	2 1330 74                       @ packages/umqtt-latest/src/umqtt.c:1330:74
	strb.w	r0, [sp, #56]
	movs	r0, #1
	.loc	2 1331 50 is_stmt 1             @ packages/umqtt-latest/src/umqtt.c:1331:50
	strb.w	r0, [sp, #96]
	.loc	2 1332 23                       @ packages/umqtt-latest/src/umqtt.c:1332:23
	ldr	r0, [sp, #116]
	.loc	2 1332 83 is_stmt 0             @ packages/umqtt-latest/src/umqtt.c:1332:83
	ldr	r2, [r0, #8]
	.loc	2 1332 31                       @ packages/umqtt-latest/src/umqtt.c:1332:31
	ldr	r0, [r0, #108]
	.loc	2 1332 13                       @ packages/umqtt-latest/src/umqtt.c:1332:13
	bl	rt_memset
	ldr	r3, [sp, #20]                   @ 4-byte Reload
	.loc	2 1333 58 is_stmt 1             @ packages/umqtt-latest/src/umqtt.c:1333:58
	ldr	r0, [sp, #116]
	.loc	2 1333 94 is_stmt 0             @ packages/umqtt-latest/src/umqtt.c:1333:94
	ldr	r2, [r0, #8]
	.loc	2 1333 66                       @ packages/umqtt-latest/src/umqtt.c:1333:66
	ldr	r1, [r0, #108]
	movs	r0, #8
	.loc	2 1333 23                       @ packages/umqtt-latest/src/umqtt.c:1333:23
	bl	umqtt_encode
	.loc	2 1333 21                       @ packages/umqtt-latest/src/umqtt.c:1333:21
	str	r0, [sp, #108]
.Ltmp220:
	.loc	2 1334 17 is_stmt 1             @ packages/umqtt-latest/src/umqtt.c:1334:17
	ldr	r0, [sp, #108]
.Ltmp221:
	.loc	2 1334 17 is_stmt 0             @ packages/umqtt-latest/src/umqtt.c:1334:17
	cmp	r0, #0
	bgt	.LBB9_21
	b	.LBB9_18
.LBB9_18:                               @   in Loop: Header=BB9_16 Depth=1
	.loc	2 0 17                          @ packages/umqtt-latest/src/umqtt.c:0:17
	mvn	r0, #3
.Ltmp222:
	.loc	2 1336 22 is_stmt 1             @ packages/umqtt-latest/src/umqtt.c:1336:22
	str	r0, [sp, #112]
	.loc	2 1337 17                       @ packages/umqtt-latest/src/umqtt.c:1337:17
	b	.LBB9_19
.LBB9_19:                               @   in Loop: Header=BB9_16 Depth=1
.Ltmp223:
	.loc	2 1337 17 is_stmt 0             @ packages/umqtt-latest/src/umqtt.c:1337:17
	movw	r0, :lower16:.L.str.16
	movt	r0, :upper16:.L.str.16
	bl	rt_kprintf
	ldr	r0, [sp, #104]
	ldr	r1, [r0]
	movw	r0, :lower16:.L.str.17
	movt	r0, :upper16:.L.str.17
	bl	rt_kprintf
	movw	r0, :lower16:.L.str.3
	movt	r0, :upper16:.L.str.3
	bl	rt_kprintf
	b	.LBB9_20
.Ltmp224:
.LBB9_20:                               @   in Loop: Header=BB9_16 Depth=1
	.loc	2 1338 17 is_stmt 1             @ packages/umqtt-latest/src/umqtt.c:1338:17
	b	.LBB9_36
.Ltmp225:
.LBB9_21:                               @   in Loop: Header=BB9_16 Depth=1
	.loc	2 1340 32                       @ packages/umqtt-latest/src/umqtt.c:1340:32
	ldr	r0, [sp, #108]
	.loc	2 1340 13 is_stmt 0             @ packages/umqtt-latest/src/umqtt.c:1340:13
	ldr	r1, [sp, #116]
	.loc	2 1340 30                       @ packages/umqtt-latest/src/umqtt.c:1340:30
	str	r0, [r1, #116]
	.loc	2 1342 37 is_stmt 1             @ packages/umqtt-latest/src/umqtt.c:1342:37
	ldr	r2, [sp, #116]
	.loc	2 1342 45 is_stmt 0             @ packages/umqtt-latest/src/umqtt.c:1342:45
	ldr	r0, [r2]
	.loc	2 1342 105                      @ packages/umqtt-latest/src/umqtt.c:1342:105
	ldr	r3, [r2, #72]
	.loc	2 1342 59                       @ packages/umqtt-latest/src/umqtt.c:1342:59
	ldr	r1, [r2, #108]
	.loc	2 1342 77                       @ packages/umqtt-latest/src/umqtt.c:1342:77
	ldr	r2, [r2, #116]
	.loc	2 1342 20                       @ packages/umqtt-latest/src/umqtt.c:1342:20
	bl	umqtt_trans_send
	.loc	2 1342 18                       @ packages/umqtt-latest/src/umqtt.c:1342:18
	str	r0, [sp, #112]
.Ltmp226:
	.loc	2 1343 17 is_stmt 1             @ packages/umqtt-latest/src/umqtt.c:1343:17
	ldr	r0, [sp, #112]
.Ltmp227:
	.loc	2 1343 17 is_stmt 0             @ packages/umqtt-latest/src/umqtt.c:1343:17
	cmp.w	r0, #-1
	bgt	.LBB9_25
	b	.LBB9_22
.LBB9_22:                               @   in Loop: Header=BB9_16 Depth=1
	.loc	2 0 17                          @ packages/umqtt-latest/src/umqtt.c:0:17
	mvn	r0, #6
.Ltmp228:
	.loc	2 1345 22 is_stmt 1             @ packages/umqtt-latest/src/umqtt.c:1345:22
	str	r0, [sp, #112]
	.loc	2 1346 17                       @ packages/umqtt-latest/src/umqtt.c:1346:17
	b	.LBB9_23
.LBB9_23:                               @   in Loop: Header=BB9_16 Depth=1
.Ltmp229:
	.loc	2 1346 17 is_stmt 0             @ packages/umqtt-latest/src/umqtt.c:1346:17
	movw	r0, :lower16:.L.str.16
	movt	r0, :upper16:.L.str.16
	bl	rt_kprintf
	movw	r0, :lower16:.L.str.18
	movt	r0, :upper16:.L.str.18
	bl	rt_kprintf
	movw	r0, :lower16:.L.str.3
	movt	r0, :upper16:.L.str.3
	bl	rt_kprintf
	b	.LBB9_24
.Ltmp230:
.LBB9_24:                               @   in Loop: Header=BB9_16 Depth=1
	.loc	2 1347 17 is_stmt 1             @ packages/umqtt-latest/src/umqtt.c:1347:17
	b	.LBB9_36
.Ltmp231:
.LBB9_25:                               @   in Loop: Header=BB9_16 Depth=1
	.loc	2 1350 35                       @ packages/umqtt-latest/src/umqtt.c:1350:35
	ldr	r0, [sp, #116]
	movs	r1, #0
	.loc	2 1350 13 is_stmt 0             @ packages/umqtt-latest/src/umqtt.c:1350:13
	str	r1, [sp]                        @ 4-byte Spill
	bl	set_uplink_recon_tick
	ldr	r1, [sp]                        @ 4-byte Reload
	add	r0, sp, #32
	str	r0, [sp, #4]                    @ 4-byte Spill
	movs	r2, #4
	.loc	2 1352 13 is_stmt 1             @ packages/umqtt-latest/src/umqtt.c:1352:13
	str	r2, [sp, #8]                    @ 4-byte Spill
	bl	rt_memset
.Ltmp232:
	.loc	2 1353 38                       @ packages/umqtt-latest/src/umqtt.c:1353:38
	ldr	r1, [sp, #116]
	.loc	2 1355 80                       @ packages/umqtt-latest/src/umqtt.c:1355:80
	ldr	r0, [r1, #72]
	.loc	2 1353 46                       @ packages/umqtt-latest/src/umqtt.c:1353:46
	ldr.w	r1, [r1, #132]
	str	r1, [sp, #12]                   @ 4-byte Spill
	mov.w	r1, #1000
	.loc	2 1355 93                       @ packages/umqtt-latest/src/umqtt.c:1355:93
	muls	r0, r1, r0
	.loc	2 1355 37 is_stmt 0             @ packages/umqtt-latest/src/umqtt.c:1355:37
	bl	rt_tick_from_millisecond
	ldr	r1, [sp, #4]                    @ 4-byte Reload
	ldr	r2, [sp, #8]                    @ 4-byte Reload
	mov	r3, r0
	.loc	2 1353 27 is_stmt 1             @ packages/umqtt-latest/src/umqtt.c:1353:27
	ldr	r0, [sp, #12]                   @ 4-byte Reload
	bl	rt_mq_recv
.Ltmp233:
	.loc	2 1353 17 is_stmt 0             @ packages/umqtt-latest/src/umqtt.c:1353:17
	cbnz	r0, .LBB9_33
	b	.LBB9_26
.LBB9_26:                               @   in Loop: Header=BB9_16 Depth=1
.Ltmp234:
	.loc	2 1357 29 is_stmt 1             @ packages/umqtt-latest/src/umqtt.c:1357:29
	ldrb.w	r0, [sp, #34]
.Ltmp235:
	.loc	2 1357 21 is_stmt 0             @ packages/umqtt-latest/src/umqtt.c:1357:21
	cmp	r0, #9
	bne	.LBB9_30
	b	.LBB9_27
.LBB9_27:                               @   in Loop: Header=BB9_16 Depth=1
.Ltmp236:
	.loc	2 1359 43 is_stmt 1             @ packages/umqtt-latest/src/umqtt.c:1359:43
	ldr	r0, [sp, #116]
	movs	r1, #1
	.loc	2 1359 21 is_stmt 0             @ packages/umqtt-latest/src/umqtt.c:1359:21
	bl	set_uplink_recon_tick
	movs	r0, #0
	.loc	2 1360 26 is_stmt 1             @ packages/umqtt-latest/src/umqtt.c:1360:26
	str	r0, [sp, #112]
	.loc	2 1361 21                       @ packages/umqtt-latest/src/umqtt.c:1361:21
	b	.LBB9_28
.LBB9_28:                               @   in Loop: Header=BB9_16 Depth=1
.Ltmp237:
	.loc	2 1361 21 is_stmt 0             @ packages/umqtt-latest/src/umqtt.c:1361:21
	movw	r0, :lower16:.L.str.19
	movt	r0, :upper16:.L.str.19
	bl	rt_kprintf
	movw	r0, :lower16:.L.str.20
	movt	r0, :upper16:.L.str.20
	bl	rt_kprintf
	movw	r0, :lower16:.L.str.3
	movt	r0, :upper16:.L.str.3
	bl	rt_kprintf
	b	.LBB9_29
.Ltmp238:
.LBB9_29:                               @   in Loop: Header=BB9_16 Depth=1
	.loc	2 1362 21 is_stmt 1             @ packages/umqtt-latest/src/umqtt.c:1362:21
	b	.LBB9_36
.Ltmp239:
.LBB9_30:                               @   in Loop: Header=BB9_16 Depth=1
	.loc	2 0 21 is_stmt 0                @ packages/umqtt-latest/src/umqtt.c:0:21
	mvn	r0, #9
.Ltmp240:
	.loc	2 1366 26 is_stmt 1             @ packages/umqtt-latest/src/umqtt.c:1366:26
	str	r0, [sp, #112]
	.loc	2 1367 21                       @ packages/umqtt-latest/src/umqtt.c:1367:21
	b	.LBB9_31
.LBB9_31:                               @   in Loop: Header=BB9_16 Depth=1
.Ltmp241:
	.loc	2 1367 21 is_stmt 0             @ packages/umqtt-latest/src/umqtt.c:1367:21
	movw	r0, :lower16:.L.str.16
	movt	r0, :upper16:.L.str.16
	bl	rt_kprintf
	ldrb.w	r1, [sp, #34]
	movw	r0, :lower16:.L.str.21
	movt	r0, :upper16:.L.str.21
	bl	rt_kprintf
	movw	r0, :lower16:.L.str.3
	movt	r0, :upper16:.L.str.3
	bl	rt_kprintf
	b	.LBB9_32
.Ltmp242:
.LBB9_32:                               @   in Loop: Header=BB9_16 Depth=1
	.loc	2 1368 21 is_stmt 1             @ packages/umqtt-latest/src/umqtt.c:1368:21
	b	.LBB9_36
.Ltmp243:
.LBB9_33:                               @   in Loop: Header=BB9_16 Depth=1
	.loc	2 0 21 is_stmt 0                @ packages/umqtt-latest/src/umqtt.c:0:21
	mvn	r0, #10
.Ltmp244:
	.loc	2 1373 22 is_stmt 1             @ packages/umqtt-latest/src/umqtt.c:1373:22
	str	r0, [sp, #112]
	.loc	2 1374 17                       @ packages/umqtt-latest/src/umqtt.c:1374:17
	b	.LBB9_34
.LBB9_34:                               @   in Loop: Header=BB9_16 Depth=1
.Ltmp245:
	.loc	2 1374 17 is_stmt 0             @ packages/umqtt-latest/src/umqtt.c:1374:17
	movw	r0, :lower16:.L.str.16
	movt	r0, :upper16:.L.str.16
	bl	rt_kprintf
	ldr	r0, [sp, #104]
	ldr	r1, [r0]
	movw	r0, :lower16:.L.str.22
	movt	r0, :upper16:.L.str.22
	bl	rt_kprintf
	movw	r0, :lower16:.L.str.3
	movt	r0, :upper16:.L.str.3
	bl	rt_kprintf
	b	.LBB9_35
.Ltmp246:
.LBB9_35:                               @   in Loop: Header=BB9_16 Depth=1
	.loc	2 1375 17 is_stmt 1             @ packages/umqtt-latest/src/umqtt.c:1375:17
	b	.LBB9_36
.Ltmp247:
.LBB9_36:                               @   in Loop: Header=BB9_16 Depth=1
	.loc	2 1322 9                        @ packages/umqtt-latest/src/umqtt.c:1322:9
	ldr	r0, [sp, #100]
	ldr	r0, [r0]
	str	r0, [sp, #100]
	b	.LBB9_16
.Ltmp248:
.LBB9_37:
	.loc	2 1378 5                        @ packages/umqtt-latest/src/umqtt.c:1378:5
	b	.LBB9_38
.Ltmp249:
.LBB9_38:
	.loc	2 1320 52                       @ packages/umqtt-latest/src/umqtt.c:1320:52
	b	.LBB9_39
.Ltmp250:
.LBB9_39:
	@DEBUG_LABEL: umqtt_start:exit
	.loc	2 1381 9                        @ packages/umqtt-latest/src/umqtt.c:1381:9
	ldr	r0, [sp, #112]
.Ltmp251:
	.loc	2 1381 9 is_stmt 0              @ packages/umqtt-latest/src/umqtt.c:1381:9
	adds	r0, #14
	cbnz	r0, .LBB9_43
	b	.LBB9_40
.LBB9_40:
.Ltmp252:
	.loc	2 1382 9 is_stmt 1              @ packages/umqtt-latest/src/umqtt.c:1382:9
	b	.LBB9_41
.LBB9_41:
.Ltmp253:
	.loc	2 1382 9 is_stmt 0              @ packages/umqtt-latest/src/umqtt.c:1382:9
	movw	r0, :lower16:.L.str.16
	movt	r0, :upper16:.L.str.16
	bl	rt_kprintf
	movw	r0, :lower16:.L.str.23
	movt	r0, :upper16:.L.str.23
	bl	rt_kprintf
	movw	r0, :lower16:.L.str.3
	movt	r0, :upper16:.L.str.3
	bl	rt_kprintf
	b	.LBB9_42
.LBB9_42:
	b	.LBB9_43
.Ltmp254:
.LBB9_43:
	.loc	2 1384 12 is_stmt 1             @ packages/umqtt-latest/src/umqtt.c:1384:12
	ldr	r0, [sp, #112]
	.loc	2 1384 5 is_stmt 0              @ packages/umqtt-latest/src/umqtt.c:1384:5
	add	sp, #120
	pop	{r7, pc}
.Ltmp255:
.Lfunc_end9:
	.size	umqtt_start, .Lfunc_end9-umqtt_start
	.cfi_endproc
	.cantunwind
	.fnend
                                        @ -- End function
	.section	.text.set_connect_status,"ax",%progbits
	.p2align	3                               @ -- Begin function set_connect_status
	.type	set_connect_status,%function
	.code	16                              @ @set_connect_status
	.thumb_func
set_connect_status:
.Lfunc_begin10:
	.loc	2 301 0 is_stmt 1               @ packages/umqtt-latest/src/umqtt.c:301:0
	.fnstart
	.cfi_startproc
@ %bb.0:
	.save	{r7, lr}
	push	{r7, lr}
	.cfi_def_cfa_offset 8
	.cfi_offset lr, -4
	.cfi_offset r7, -8
	.pad	#8
	sub	sp, #8
	.cfi_def_cfa_offset 16
                                        @ kill: def $r2 killed $r1
	str	r0, [sp, #4]
	strb.w	r1, [sp, #3]
.Ltmp256:
	.loc	2 302 5 prologue_end            @ packages/umqtt-latest/src/umqtt.c:302:5
	ldr	r0, [sp, #4]
	ldr.w	r0, [r0, #128]
	mov.w	r1, #-1
	bl	rt_mutex_take
	.loc	2 303 29                        @ packages/umqtt-latest/src/umqtt.c:303:29
	ldrb.w	r0, [sp, #3]
	.loc	2 303 5 is_stmt 0               @ packages/umqtt-latest/src/umqtt.c:303:5
	ldr	r1, [sp, #4]
	.loc	2 303 27                        @ packages/umqtt-latest/src/umqtt.c:303:27
	strb	r0, [r1, #4]
	.loc	2 304 5 is_stmt 1               @ packages/umqtt-latest/src/umqtt.c:304:5
	ldr	r0, [sp, #4]
	ldr.w	r0, [r0, #128]
	bl	rt_mutex_release
	.loc	2 305 1                         @ packages/umqtt-latest/src/umqtt.c:305:1
	add	sp, #8
	pop	{r7, pc}
.Ltmp257:
.Lfunc_end10:
	.size	set_connect_status, .Lfunc_end10-set_connect_status
	.cfi_endproc
	.cantunwind
	.fnend
                                        @ -- End function
	.section	.text.umqtt_connect,"ax",%progbits
	.p2align	3                               @ -- Begin function umqtt_connect
	.type	umqtt_connect,%function
	.code	16                              @ @umqtt_connect
	.thumb_func
umqtt_connect:
.Lfunc_begin11:
	.loc	2 339 0                         @ packages/umqtt-latest/src/umqtt.c:339:0
	.fnstart
	.cfi_startproc
@ %bb.0:
	.save	{r7, lr}
	push	{r7, lr}
	.cfi_def_cfa_offset 8
	.cfi_offset lr, -4
	.cfi_offset r7, -8
	.pad	#104
	sub	sp, #104
	.cfi_def_cfa_offset 112
	str	r0, [sp, #100]
	str	r1, [sp, #96]
	movs	r0, #0
.Ltmp258:
	.loc	2 340 9 prologue_end            @ packages/umqtt-latest/src/umqtt.c:340:9
	str	r0, [sp, #12]                   @ 4-byte Spill
	str	r0, [sp, #92]
	.loc	2 340 19 is_stmt 0              @ packages/umqtt-latest/src/umqtt.c:340:19
	str	r0, [sp, #88]
	.loc	2 340 32                        @ packages/umqtt-latest/src/umqtt.c:340:32
	str	r0, [sp, #84]
	add	r0, sp, #20
	movs	r1, #64
	.loc	2 341 22 is_stmt 1              @ packages/umqtt-latest/src/umqtt.c:341:22
	bl	__aeabi_memclr4
	ldr	r0, [sp, #12]                   @ 4-byte Reload
	.loc	2 342 26                        @ packages/umqtt-latest/src/umqtt.c:342:26
	str	r0, [sp, #16]
.Ltmp259:
	.loc	2 343 5                         @ packages/umqtt-latest/src/umqtt.c:343:5
	ldr	r0, [sp, #100]
.Ltmp260:
	.loc	2 343 5 is_stmt 0               @ packages/umqtt-latest/src/umqtt.c:343:5
	cbnz	r0, .LBB11_2
	b	.LBB11_1
.LBB11_1:
.Ltmp261:
	.loc	2 343 5                         @ packages/umqtt-latest/src/umqtt.c:343:5
	movw	r0, :lower16:.L.str.24
	movt	r0, :upper16:.L.str.24
	movw	r1, :lower16:.L__FUNCTION__.umqtt_connect
	movt	r1, :upper16:.L__FUNCTION__.umqtt_connect
	movw	r2, #343
	bl	rt_assert_handler
	b	.LBB11_2
.Ltmp262:
.LBB11_2:
	.loc	2 343 5                         @ packages/umqtt-latest/src/umqtt.c:343:5
	b	.LBB11_3
.Ltmp263:
.LBB11_3:                               @ =>This Inner Loop Header: Depth=1
	@DEBUG_LABEL: umqtt_connect:_reconnect
	.loc	2 346 5 is_stmt 1               @ packages/umqtt-latest/src/umqtt.c:346:5
	ldr	r1, [sp, #100]
	.loc	2 346 28 is_stmt 0              @ packages/umqtt-latest/src/umqtt.c:346:28
	ldrb.w	r0, [r1, #84]
	adds	r0, #1
	strb.w	r0, [r1, #84]
.Ltmp264:
	.loc	2 347 9 is_stmt 1               @ packages/umqtt-latest/src/umqtt.c:347:9
	ldr	r0, [sp, #100]
	.loc	2 347 53 is_stmt 0              @ packages/umqtt-latest/src/umqtt.c:347:53
	ldrb.w	r1, [r0, #48]
	.loc	2 347 17                        @ packages/umqtt-latest/src/umqtt.c:347:17
	ldrb.w	r0, [r0, #84]
.Ltmp265:
	.loc	2 347 9                         @ packages/umqtt-latest/src/umqtt.c:347:9
	cmp	r0, r1
	ble	.LBB11_7
	b	.LBB11_4
.LBB11_4:
	.loc	2 0 9                           @ packages/umqtt-latest/src/umqtt.c:0:9
	mvn	r0, #13
.Ltmp266:
	.loc	2 349 14 is_stmt 1              @ packages/umqtt-latest/src/umqtt.c:349:14
	str	r0, [sp, #92]
	.loc	2 350 9                         @ packages/umqtt-latest/src/umqtt.c:350:9
	ldr	r1, [sp, #100]
	movs	r0, #0
	.loc	2 350 33 is_stmt 0              @ packages/umqtt-latest/src/umqtt.c:350:33
	strb.w	r0, [r1, #84]
	.loc	2 351 9 is_stmt 1               @ packages/umqtt-latest/src/umqtt.c:351:9
	b	.LBB11_5
.LBB11_5:
.Ltmp267:
	.loc	2 351 9 is_stmt 0               @ packages/umqtt-latest/src/umqtt.c:351:9
	movw	r0, :lower16:.L.str.1
	movt	r0, :upper16:.L.str.1
	bl	rt_kprintf
	movw	r0, :lower16:.L.str.81
	movt	r0, :upper16:.L.str.81
	bl	rt_kprintf
	movw	r0, :lower16:.L.str.3
	movt	r0, :upper16:.L.str.3
	bl	rt_kprintf
	b	.LBB11_6
.Ltmp268:
.LBB11_6:
	.loc	2 352 9 is_stmt 1               @ packages/umqtt-latest/src/umqtt.c:352:9
	b	.LBB11_52
.Ltmp269:
.LBB11_7:                               @   in Loop: Header=BB11_3 Depth=1
	.loc	2 354 32                        @ packages/umqtt-latest/src/umqtt.c:354:32
	ldr	r1, [sp, #100]
	.loc	2 354 50 is_stmt 0              @ packages/umqtt-latest/src/umqtt.c:354:50
	ldr	r0, [r1, #16]
	.loc	2 354 12                        @ packages/umqtt-latest/src/umqtt.c:354:12
	bl	umqtt_trans_connect
	.loc	2 354 10                        @ packages/umqtt-latest/src/umqtt.c:354:10
	str	r0, [sp, #92]
.Ltmp270:
	.loc	2 355 9 is_stmt 1               @ packages/umqtt-latest/src/umqtt.c:355:9
	ldr	r0, [sp, #92]
.Ltmp271:
	.loc	2 355 9 is_stmt 0               @ packages/umqtt-latest/src/umqtt.c:355:9
	cmp.w	r0, #-1
	bgt	.LBB11_11
	b	.LBB11_8
.LBB11_8:                               @   in Loop: Header=BB11_3 Depth=1
	.loc	2 0 9                           @ packages/umqtt-latest/src/umqtt.c:0:9
	mvn	r0, #14
.Ltmp272:
	.loc	2 357 14 is_stmt 1              @ packages/umqtt-latest/src/umqtt.c:357:14
	str	r0, [sp, #92]
	.loc	2 358 9                         @ packages/umqtt-latest/src/umqtt.c:358:9
	b	.LBB11_9
.LBB11_9:                               @   in Loop: Header=BB11_3 Depth=1
.Ltmp273:
	.loc	2 358 9 is_stmt 0               @ packages/umqtt-latest/src/umqtt.c:358:9
	movw	r0, :lower16:.L.str.1
	movt	r0, :upper16:.L.str.1
	bl	rt_kprintf
	movw	r0, :lower16:.L.str.82
	movt	r0, :upper16:.L.str.82
	bl	rt_kprintf
	movw	r0, :lower16:.L.str.3
	movt	r0, :upper16:.L.str.3
	bl	rt_kprintf
	b	.LBB11_10
.Ltmp274:
.LBB11_10:                              @   in Loop: Header=BB11_3 Depth=1
	.loc	2 359 9 is_stmt 1               @ packages/umqtt-latest/src/umqtt.c:359:9
	b	.LBB11_46
.Ltmp275:
.LBB11_11:                              @   in Loop: Header=BB11_3 Depth=1
	.loc	2 362 48                        @ packages/umqtt-latest/src/umqtt.c:362:48
	movw	r0, :lower16:.L.str.83
	movt	r0, :upper16:.L.str.83
	str	r0, [sp, #8]                    @ 4-byte Spill
	bl	rt_strlen
	mov	r1, r0
	.loc	2 362 46 is_stmt 0              @ packages/umqtt-latest/src/umqtt.c:362:46
	ldr	r0, [sp, #8]                    @ 4-byte Reload
	strh.w	r1, [sp, #28]
	.loc	2 363 42 is_stmt 1              @ packages/umqtt-latest/src/umqtt.c:363:42
	str	r0, [sp, #32]
	movs	r0, #4
	.loc	2 364 43                        @ packages/umqtt-latest/src/umqtt.c:364:43
	strb.w	r0, [sp, #36]
	movs	r0, #2
	.loc	2 365 55                        @ packages/umqtt-latest/src/umqtt.c:365:55
	strb.w	r0, [sp, #37]
	.loc	2 367 55                        @ packages/umqtt-latest/src/umqtt.c:367:55
	ldr	r0, [sp, #100]
	.loc	2 367 73 is_stmt 0              @ packages/umqtt-latest/src/umqtt.c:367:73
	ldrh.w	r0, [r0, #82]
	.loc	2 367 54                        @ packages/umqtt-latest/src/umqtt.c:367:54
	cbnz	r0, .LBB11_13
	b	.LBB11_12
.LBB11_12:                              @   in Loop: Header=BB11_3 Depth=1
	.loc	2 0 54                          @ packages/umqtt-latest/src/umqtt.c:0:54
	movw	r0, #65535
	.loc	2 367 54                        @ packages/umqtt-latest/src/umqtt.c:367:54
	str	r0, [sp, #4]                    @ 4-byte Spill
	b	.LBB11_14
.LBB11_13:                              @   in Loop: Header=BB11_3 Depth=1
	.loc	2 367 142                       @ packages/umqtt-latest/src/umqtt.c:367:142
	ldr	r0, [sp, #100]
	.loc	2 367 160                       @ packages/umqtt-latest/src/umqtt.c:367:160
	ldrh.w	r0, [r0, #82]
	.loc	2 367 54                        @ packages/umqtt-latest/src/umqtt.c:367:54
	str	r0, [sp, #4]                    @ 4-byte Spill
	b	.LBB11_14
.LBB11_14:                              @   in Loop: Header=BB11_3 Depth=1
	ldr	r0, [sp, #4]                    @ 4-byte Reload
	.loc	2 367 51                        @ packages/umqtt-latest/src/umqtt.c:367:51
	strh.w	r0, [sp, #38]
	.loc	2 371 40 is_stmt 1              @ packages/umqtt-latest/src/umqtt.c:371:40
	ldr	r0, [sp, #100]
	.loc	2 371 58 is_stmt 0              @ packages/umqtt-latest/src/umqtt.c:371:58
	ldr	r0, [r0, #20]
	.loc	2 371 38                        @ packages/umqtt-latest/src/umqtt.c:371:38
	str	r0, [sp, #40]
	.loc	2 372 41 is_stmt 1              @ packages/umqtt-latest/src/umqtt.c:372:41
	ldr	r0, [sp, #100]
	.loc	2 372 59 is_stmt 0              @ packages/umqtt-latest/src/umqtt.c:372:59
	ldr	r0, [r0, #24]
	.loc	2 372 39                        @ packages/umqtt-latest/src/umqtt.c:372:39
	str	r0, [sp, #44]
	.loc	2 373 43 is_stmt 1              @ packages/umqtt-latest/src/umqtt.c:373:43
	ldr	r0, [sp, #100]
	.loc	2 373 61 is_stmt 0              @ packages/umqtt-latest/src/umqtt.c:373:61
	ldr	r0, [r0, #28]
	.loc	2 373 41                        @ packages/umqtt-latest/src/umqtt.c:373:41
	str	r0, [sp, #48]
	.loc	2 374 40 is_stmt 1              @ packages/umqtt-latest/src/umqtt.c:374:40
	ldr	r0, [sp, #100]
	.loc	2 374 58 is_stmt 0              @ packages/umqtt-latest/src/umqtt.c:374:58
	ldr	r0, [r0, #32]
	.loc	2 374 38                        @ packages/umqtt-latest/src/umqtt.c:374:38
	str	r0, [sp, #52]
.Ltmp276:
	.loc	2 375 9 is_stmt 1               @ packages/umqtt-latest/src/umqtt.c:375:9
	ldr	r0, [sp, #100]
	.loc	2 375 27 is_stmt 0              @ packages/umqtt-latest/src/umqtt.c:375:27
	ldr	r0, [r0, #32]
.Ltmp277:
	.loc	2 375 9                         @ packages/umqtt-latest/src/umqtt.c:375:9
	cbz	r0, .LBB11_16
	b	.LBB11_15
.LBB11_15:                              @   in Loop: Header=BB11_3 Depth=1
.Ltmp278:
	.loc	2 377 65 is_stmt 1              @ packages/umqtt-latest/src/umqtt.c:377:65
	ldrb.w	r0, [sp, #37]
	orr	r0, r0, #128
	strb.w	r0, [sp, #37]
	.loc	2 378 5                         @ packages/umqtt-latest/src/umqtt.c:378:5
	b	.LBB11_16
.Ltmp279:
.LBB11_16:                              @   in Loop: Header=BB11_3 Depth=1
	.loc	2 379 39                        @ packages/umqtt-latest/src/umqtt.c:379:39
	ldr	r0, [sp, #100]
	.loc	2 379 57 is_stmt 0              @ packages/umqtt-latest/src/umqtt.c:379:57
	ldr	r0, [r0, #36]
	.loc	2 379 37                        @ packages/umqtt-latest/src/umqtt.c:379:37
	str	r0, [sp, #60]
.Ltmp280:
	.loc	2 380 9 is_stmt 1               @ packages/umqtt-latest/src/umqtt.c:380:9
	ldr	r0, [sp, #100]
	.loc	2 380 27 is_stmt 0              @ packages/umqtt-latest/src/umqtt.c:380:27
	ldr	r0, [r0, #36]
.Ltmp281:
	.loc	2 380 9                         @ packages/umqtt-latest/src/umqtt.c:380:9
	cbz	r0, .LBB11_18
	b	.LBB11_17
.LBB11_17:                              @   in Loop: Header=BB11_3 Depth=1
.Ltmp282:
	.loc	2 381 65 is_stmt 1              @ packages/umqtt-latest/src/umqtt.c:381:65
	ldrb.w	r0, [sp, #37]
	orr	r0, r0, #64
	strb.w	r0, [sp, #37]
	.loc	2 382 57                        @ packages/umqtt-latest/src/umqtt.c:382:57
	ldr	r0, [sp, #100]
	.loc	2 382 75 is_stmt 0              @ packages/umqtt-latest/src/umqtt.c:382:75
	ldr	r0, [r0, #36]
	.loc	2 382 47                        @ packages/umqtt-latest/src/umqtt.c:382:47
	bl	rt_strlen
	.loc	2 382 45                        @ packages/umqtt-latest/src/umqtt.c:382:45
	strh.w	r0, [sp, #56]
	.loc	2 383 5 is_stmt 1               @ packages/umqtt-latest/src/umqtt.c:383:5
	b	.LBB11_18
.Ltmp283:
.LBB11_18:                              @   in Loop: Header=BB11_3 Depth=1
	.loc	2 385 48                        @ packages/umqtt-latest/src/umqtt.c:385:48
	ldr	r0, [sp, #100]
	.loc	2 385 84 is_stmt 0              @ packages/umqtt-latest/src/umqtt.c:385:84
	ldr	r2, [r0, #8]
	.loc	2 385 56                        @ packages/umqtt-latest/src/umqtt.c:385:56
	ldr	r1, [r0, #108]
	movs	r0, #1
	add	r3, sp, #20
	.loc	2 385 15                        @ packages/umqtt-latest/src/umqtt.c:385:15
	bl	umqtt_encode
	.loc	2 385 13                        @ packages/umqtt-latest/src/umqtt.c:385:13
	str	r0, [sp, #88]
.Ltmp284:
	.loc	2 386 9 is_stmt 1               @ packages/umqtt-latest/src/umqtt.c:386:9
	ldr	r0, [sp, #88]
.Ltmp285:
	.loc	2 386 9 is_stmt 0               @ packages/umqtt-latest/src/umqtt.c:386:9
	cmp	r0, #0
	bgt	.LBB11_22
	b	.LBB11_19
.LBB11_19:
	.loc	2 0 9                           @ packages/umqtt-latest/src/umqtt.c:0:9
	mvn	r0, #3
.Ltmp286:
	.loc	2 388 14 is_stmt 1              @ packages/umqtt-latest/src/umqtt.c:388:14
	str	r0, [sp, #92]
	.loc	2 389 9                         @ packages/umqtt-latest/src/umqtt.c:389:9
	b	.LBB11_20
.LBB11_20:
.Ltmp287:
	.loc	2 389 9 is_stmt 0               @ packages/umqtt-latest/src/umqtt.c:389:9
	movw	r0, :lower16:.L.str.1
	movt	r0, :upper16:.L.str.1
	bl	rt_kprintf
	movw	r0, :lower16:.L.str.84
	movt	r0, :upper16:.L.str.84
	bl	rt_kprintf
	movw	r0, :lower16:.L.str.3
	movt	r0, :upper16:.L.str.3
	bl	rt_kprintf
	b	.LBB11_21
.Ltmp288:
.LBB11_21:
	.loc	2 390 9 is_stmt 1               @ packages/umqtt-latest/src/umqtt.c:390:9
	b	.LBB11_52
.Ltmp289:
.LBB11_22:                              @   in Loop: Header=BB11_3 Depth=1
	.loc	2 392 24                        @ packages/umqtt-latest/src/umqtt.c:392:24
	ldr	r0, [sp, #88]
	.loc	2 392 5 is_stmt 0               @ packages/umqtt-latest/src/umqtt.c:392:5
	ldr	r1, [sp, #100]
	.loc	2 392 22                        @ packages/umqtt-latest/src/umqtt.c:392:22
	str	r0, [r1, #116]
	.loc	2 394 29 is_stmt 1              @ packages/umqtt-latest/src/umqtt.c:394:29
	ldr	r2, [sp, #100]
	.loc	2 394 37 is_stmt 0              @ packages/umqtt-latest/src/umqtt.c:394:37
	ldr	r0, [r2]
	.loc	2 394 97                        @ packages/umqtt-latest/src/umqtt.c:394:97
	ldr	r3, [r2, #72]
	.loc	2 394 51                        @ packages/umqtt-latest/src/umqtt.c:394:51
	ldr	r1, [r2, #108]
	.loc	2 394 69                        @ packages/umqtt-latest/src/umqtt.c:394:69
	ldr	r2, [r2, #116]
	.loc	2 394 12                        @ packages/umqtt-latest/src/umqtt.c:394:12
	bl	umqtt_trans_send
	.loc	2 394 10                        @ packages/umqtt-latest/src/umqtt.c:394:10
	str	r0, [sp, #92]
.Ltmp290:
	.loc	2 395 9 is_stmt 1               @ packages/umqtt-latest/src/umqtt.c:395:9
	ldr	r0, [sp, #92]
.Ltmp291:
	.loc	2 395 9 is_stmt 0               @ packages/umqtt-latest/src/umqtt.c:395:9
	cmp.w	r0, #-1
	bgt	.LBB11_26
	b	.LBB11_23
.LBB11_23:
	.loc	2 0 9                           @ packages/umqtt-latest/src/umqtt.c:0:9
	mvn	r0, #6
.Ltmp292:
	.loc	2 397 14 is_stmt 1              @ packages/umqtt-latest/src/umqtt.c:397:14
	str	r0, [sp, #92]
	.loc	2 398 9                         @ packages/umqtt-latest/src/umqtt.c:398:9
	b	.LBB11_24
.LBB11_24:
.Ltmp293:
	.loc	2 398 9 is_stmt 0               @ packages/umqtt-latest/src/umqtt.c:398:9
	movw	r0, :lower16:.L.str.1
	movt	r0, :upper16:.L.str.1
	bl	rt_kprintf
	bl	_rt_errno
	ldr	r1, [r0]
	movw	r0, :lower16:.L.str.85
	movt	r0, :upper16:.L.str.85
	bl	rt_kprintf
	movw	r0, :lower16:.L.str.3
	movt	r0, :upper16:.L.str.3
	bl	rt_kprintf
	b	.LBB11_25
.Ltmp294:
.LBB11_25:
	.loc	2 399 9 is_stmt 1               @ packages/umqtt-latest/src/umqtt.c:399:9
	b	.LBB11_52
.Ltmp295:
.LBB11_26:                              @   in Loop: Header=BB11_3 Depth=1
	.loc	2 402 27                        @ packages/umqtt-latest/src/umqtt.c:402:27
	ldr	r0, [sp, #100]
	movs	r1, #0
	.loc	2 402 5 is_stmt 0               @ packages/umqtt-latest/src/umqtt.c:402:5
	bl	set_uplink_recon_tick
.Ltmp296:
	.loc	2 404 9 is_stmt 1               @ packages/umqtt-latest/src/umqtt.c:404:9
	ldr	r0, [sp, #96]
.Ltmp297:
	.loc	2 404 9 is_stmt 0               @ packages/umqtt-latest/src/umqtt.c:404:9
	cmp	r0, #0
	beq	.LBB11_45
	b	.LBB11_27
.LBB11_27:                              @   in Loop: Header=BB11_3 Depth=1
.Ltmp298:
	.loc	2 406 40 is_stmt 1              @ packages/umqtt-latest/src/umqtt.c:406:40
	ldr	r0, [sp, #100]
	.loc	2 406 16 is_stmt 0              @ packages/umqtt-latest/src/umqtt.c:406:16
	bl	umqtt_handle_readpacket
	.loc	2 406 14                        @ packages/umqtt-latest/src/umqtt.c:406:14
	str	r0, [sp, #92]
.Ltmp299:
	.loc	2 407 13 is_stmt 1              @ packages/umqtt-latest/src/umqtt.c:407:13
	ldr	r0, [sp, #92]
.Ltmp300:
	.loc	2 407 13 is_stmt 0              @ packages/umqtt-latest/src/umqtt.c:407:13
	adds	r0, #13
	cbnz	r0, .LBB11_29
	b	.LBB11_28
.LBB11_28:                              @   in Loop: Header=BB11_3 Depth=1
.Ltmp301:
	.loc	2 410 13 is_stmt 1              @ packages/umqtt-latest/src/umqtt.c:410:13
	b	.LBB11_46
.Ltmp302:
.LBB11_29:
	.loc	2 412 18                        @ packages/umqtt-latest/src/umqtt.c:412:18
	ldr	r0, [sp, #92]
.Ltmp303:
	.loc	2 412 18 is_stmt 0              @ packages/umqtt-latest/src/umqtt.c:412:18
	cmp.w	r0, #-1
	bgt	.LBB11_33
	b	.LBB11_30
.LBB11_30:
	.loc	2 0 18                          @ packages/umqtt-latest/src/umqtt.c:0:18
	mvn	r0, #9
.Ltmp304:
	.loc	2 414 18 is_stmt 1              @ packages/umqtt-latest/src/umqtt.c:414:18
	str	r0, [sp, #92]
	.loc	2 415 13                        @ packages/umqtt-latest/src/umqtt.c:415:13
	b	.LBB11_31
.LBB11_31:
.Ltmp305:
	.loc	2 415 13 is_stmt 0              @ packages/umqtt-latest/src/umqtt.c:415:13
	movw	r0, :lower16:.L.str.1
	movt	r0, :upper16:.L.str.1
	bl	rt_kprintf
	movw	r0, :lower16:.L.str.86
	movt	r0, :upper16:.L.str.86
	bl	rt_kprintf
	movw	r0, :lower16:.L.str.3
	movt	r0, :upper16:.L.str.3
	bl	rt_kprintf
	b	.LBB11_32
.Ltmp306:
.LBB11_32:
	.loc	2 416 13 is_stmt 1              @ packages/umqtt-latest/src/umqtt.c:416:13
	b	.LBB11_52
.Ltmp307:
.LBB11_33:
	.loc	2 0 13 is_stmt 0                @ packages/umqtt-latest/src/umqtt.c:0:13
	b	.LBB11_34
.LBB11_34:
	.loc	2 419 9 is_stmt 1               @ packages/umqtt-latest/src/umqtt.c:419:9
	b	.LBB11_35
.LBB11_35:                              @ =>This Inner Loop Header: Depth=1
.Ltmp308:
	.loc	2 421 21                        @ packages/umqtt-latest/src/umqtt.c:421:21
	ldr	r0, [sp, #84]
	adds	r1, r0, #1
	str	r1, [sp, #84]
	.loc	2 421 28 is_stmt 0              @ packages/umqtt-latest/src/umqtt.c:421:28
	ldr	r1, [sp, #100]
	.loc	2 421 46                        @ packages/umqtt-latest/src/umqtt.c:421:46
	ldr	r1, [r1, #68]
.Ltmp309:
	.loc	2 421 17                        @ packages/umqtt-latest/src/umqtt.c:421:17
	cmp.w	r0, r1, lsl #1
	blo	.LBB11_39
	b	.LBB11_36
.LBB11_36:
	.loc	2 0 17                          @ packages/umqtt-latest/src/umqtt.c:0:17
	mvn	r0, #2
.Ltmp310:
	.loc	2 423 22 is_stmt 1              @ packages/umqtt-latest/src/umqtt.c:423:22
	str	r0, [sp, #92]
	.loc	2 424 17                        @ packages/umqtt-latest/src/umqtt.c:424:17
	b	.LBB11_37
.LBB11_37:
.Ltmp311:
	.loc	2 424 17 is_stmt 0              @ packages/umqtt-latest/src/umqtt.c:424:17
	movw	r0, :lower16:.L.str.1
	movt	r0, :upper16:.L.str.1
	bl	rt_kprintf
	movw	r0, :lower16:.L.str.87
	movt	r0, :upper16:.L.str.87
	bl	rt_kprintf
	movw	r0, :lower16:.L.str.3
	movt	r0, :upper16:.L.str.3
	bl	rt_kprintf
	b	.LBB11_38
.Ltmp312:
.LBB11_38:
	.loc	2 425 17 is_stmt 1              @ packages/umqtt-latest/src/umqtt.c:425:17
	b	.LBB11_52
.Ltmp313:
.LBB11_39:                              @   in Loop: Header=BB11_35 Depth=1
	.loc	2 429 21                        @ packages/umqtt-latest/src/umqtt.c:429:21
	ldr	r0, [sp, #100]
	.loc	2 429 29 is_stmt 0              @ packages/umqtt-latest/src/umqtt.c:429:29
	ldrb	r0, [r0, #4]
.Ltmp314:
	.loc	2 429 21                        @ packages/umqtt-latest/src/umqtt.c:429:21
	cmp	r0, #2
	bne	.LBB11_43
	b	.LBB11_40
.LBB11_40:
	.loc	2 0 21                          @ packages/umqtt-latest/src/umqtt.c:0:21
	movs	r0, #0
.Ltmp315:
	.loc	2 431 26 is_stmt 1              @ packages/umqtt-latest/src/umqtt.c:431:26
	str	r0, [sp, #84]
	.loc	2 432 26                        @ packages/umqtt-latest/src/umqtt.c:432:26
	str	r0, [sp, #92]
	.loc	2 433 21                        @ packages/umqtt-latest/src/umqtt.c:433:21
	b	.LBB11_41
.LBB11_41:
.Ltmp316:
	.loc	2 433 21 is_stmt 0              @ packages/umqtt-latest/src/umqtt.c:433:21
	movw	r0, :lower16:.L.str.19
	movt	r0, :upper16:.L.str.19
	bl	rt_kprintf
	movw	r0, :lower16:.L.str.88
	movt	r0, :upper16:.L.str.88
	bl	rt_kprintf
	movw	r0, :lower16:.L.str.3
	movt	r0, :upper16:.L.str.3
	bl	rt_kprintf
	b	.LBB11_42
.Ltmp317:
.LBB11_42:
	.loc	2 434 21 is_stmt 1              @ packages/umqtt-latest/src/umqtt.c:434:21
	b	.LBB11_52
.Ltmp318:
.LBB11_43:                              @   in Loop: Header=BB11_35 Depth=1
	.loc	2 0 21 is_stmt 0                @ packages/umqtt-latest/src/umqtt.c:0:21
	b	.LBB11_44
.LBB11_44:                              @   in Loop: Header=BB11_35 Depth=1
	mov.w	r0, #500
	.loc	2 437 13 is_stmt 1              @ packages/umqtt-latest/src/umqtt.c:437:13
	bl	rt_thread_mdelay
.Ltmp319:
	.loc	2 419 9                         @ packages/umqtt-latest/src/umqtt.c:419:9
	b	.LBB11_35
.Ltmp320:
.LBB11_45:                              @   in Loop: Header=BB11_3 Depth=1
	.loc	2 0 9 is_stmt 0                 @ packages/umqtt-latest/src/umqtt.c:0:9
	movs	r0, #0
	.loc	2 440 10 is_stmt 1              @ packages/umqtt-latest/src/umqtt.c:440:10
	str	r0, [sp, #92]
	.loc	2 440 5 is_stmt 0               @ packages/umqtt-latest/src/umqtt.c:440:5
	b	.LBB11_46
.LBB11_46:                              @   in Loop: Header=BB11_3 Depth=1
.Ltmp321:
	@DEBUG_LABEL: umqtt_connect:disconnect
	.loc	2 444 10 is_stmt 1              @ packages/umqtt-latest/src/umqtt.c:444:10
	ldr	r0, [sp, #92]
	.loc	2 444 33 is_stmt 0              @ packages/umqtt-latest/src/umqtt.c:444:33
	adds	r0, #13
	cbz	r0, .LBB11_48
	b	.LBB11_47
.LBB11_47:                              @   in Loop: Header=BB11_3 Depth=1
	.loc	2 444 37                        @ packages/umqtt-latest/src/umqtt.c:444:37
	ldr	r0, [sp, #92]
.Ltmp322:
	.loc	2 444 9                         @ packages/umqtt-latest/src/umqtt.c:444:9
	adds	r0, #15
	cbnz	r0, .LBB11_51
	b	.LBB11_48
.LBB11_48:                              @   in Loop: Header=BB11_3 Depth=1
	.loc	2 0 9                           @ packages/umqtt-latest/src/umqtt.c:0:9
	mvn	r0, #12
.Ltmp323:
	.loc	2 446 14 is_stmt 1              @ packages/umqtt-latest/src/umqtt.c:446:14
	str	r0, [sp, #92]
	.loc	2 447 32                        @ packages/umqtt-latest/src/umqtt.c:447:32
	ldr	r0, [sp, #100]
	.loc	2 447 40 is_stmt 0              @ packages/umqtt-latest/src/umqtt.c:447:40
	ldr	r0, [r0]
	.loc	2 447 9                         @ packages/umqtt-latest/src/umqtt.c:447:9
	bl	umqtt_trans_disconnect
	.loc	2 448 9 is_stmt 1               @ packages/umqtt-latest/src/umqtt.c:448:9
	ldr	r1, [sp, #100]
	mov.w	r0, #-1
	.loc	2 448 22 is_stmt 0              @ packages/umqtt-latest/src/umqtt.c:448:22
	str	r0, [r1]
	movw	r0, #5000
	.loc	2 449 9 is_stmt 1               @ packages/umqtt-latest/src/umqtt.c:449:9
	bl	rt_thread_delay
	.loc	2 450 9                         @ packages/umqtt-latest/src/umqtt.c:450:9
	b	.LBB11_49
.LBB11_49:                              @   in Loop: Header=BB11_3 Depth=1
.Ltmp324:
	.loc	2 450 9 is_stmt 0               @ packages/umqtt-latest/src/umqtt.c:450:9
	movw	r0, :lower16:.L.str.1
	movt	r0, :upper16:.L.str.1
	bl	rt_kprintf
	movw	r0, :lower16:.L.str.89
	movt	r0, :upper16:.L.str.89
	bl	rt_kprintf
	movw	r0, :lower16:.L.str.3
	movt	r0, :upper16:.L.str.3
	bl	rt_kprintf
	b	.LBB11_50
.Ltmp325:
.LBB11_50:                              @   in Loop: Header=BB11_3 Depth=1
	.loc	2 451 9 is_stmt 1               @ packages/umqtt-latest/src/umqtt.c:451:9
	b	.LBB11_3
.Ltmp326:
.LBB11_51:
	.loc	2 444 70                        @ packages/umqtt-latest/src/umqtt.c:444:70
	b	.LBB11_52
.Ltmp327:
.LBB11_52:
	@DEBUG_LABEL: umqtt_connect:exit
	.loc	2 455 9                         @ packages/umqtt-latest/src/umqtt.c:455:9
	ldr	r0, [sp, #92]
.Ltmp328:
	.loc	2 455 9 is_stmt 0               @ packages/umqtt-latest/src/umqtt.c:455:9
	cmp.w	r0, #-1
	bgt	.LBB11_56
	b	.LBB11_53
.LBB11_53:
.Ltmp329:
	.loc	2 457 28 is_stmt 1              @ packages/umqtt-latest/src/umqtt.c:457:28
	ldr	r0, [sp, #100]
	movs	r1, #16
	.loc	2 457 9 is_stmt 0               @ packages/umqtt-latest/src/umqtt.c:457:9
	bl	set_connect_status
	.loc	2 458 9 is_stmt 1               @ packages/umqtt-latest/src/umqtt.c:458:9
	b	.LBB11_54
.LBB11_54:
.Ltmp330:
	.loc	2 458 9 is_stmt 0               @ packages/umqtt-latest/src/umqtt.c:458:9
	movw	r0, :lower16:.L.str.16
	movt	r0, :upper16:.L.str.16
	bl	rt_kprintf
	movw	r0, :lower16:.L.str.90
	movt	r0, :upper16:.L.str.90
	bl	rt_kprintf
	movw	r0, :lower16:.L.str.3
	movt	r0, :upper16:.L.str.3
	bl	rt_kprintf
	b	.LBB11_55
.Ltmp331:
.LBB11_55:
	.loc	2 459 5 is_stmt 1               @ packages/umqtt-latest/src/umqtt.c:459:5
	b	.LBB11_56
.Ltmp332:
.LBB11_56:
	.loc	2 460 12                        @ packages/umqtt-latest/src/umqtt.c:460:12
	ldr	r0, [sp, #92]
	.loc	2 460 5 is_stmt 0               @ packages/umqtt-latest/src/umqtt.c:460:5
	add	sp, #104
	pop	{r7, pc}
.Ltmp333:
.Lfunc_end11:
	.size	umqtt_connect, .Lfunc_end11-umqtt_connect
	.cfi_endproc
	.cantunwind
	.fnend
                                        @ -- End function
	.section	.text.get_next_packetID,"ax",%progbits
	.p2align	3                               @ -- Begin function get_next_packetID
	.type	get_next_packetID,%function
	.code	16                              @ @get_next_packetID
	.thumb_func
get_next_packetID:
.Lfunc_begin12:
	.loc	2 76 0 is_stmt 1                @ packages/umqtt-latest/src/umqtt.c:76:0
	.fnstart
	.cfi_startproc
@ %bb.0:
	.pad	#8
	sub	sp, #8
	.cfi_def_cfa_offset 8
	str	r0, [sp, #4]
.Ltmp334:
	.loc	2 77 33 prologue_end            @ packages/umqtt-latest/src/umqtt.c:77:33
	ldr	r0, [sp, #4]
	.loc	2 77 41 is_stmt 0               @ packages/umqtt-latest/src/umqtt.c:77:41
	ldrh.w	r0, [r0, #124]
	movw	r1, #65535
	.loc	2 77 32                         @ packages/umqtt-latest/src/umqtt.c:77:32
	cmp	r0, r1
	bne	.LBB12_2
	b	.LBB12_1
.LBB12_1:
	.loc	2 0 32                          @ packages/umqtt-latest/src/umqtt.c:0:32
	movs	r0, #1
	.loc	2 77 32                         @ packages/umqtt-latest/src/umqtt.c:77:32
	str	r0, [sp]                        @ 4-byte Spill
	b	.LBB12_3
.LBB12_2:
	.loc	2 77 82                         @ packages/umqtt-latest/src/umqtt.c:77:82
	ldr	r0, [sp, #4]
	.loc	2 77 90                         @ packages/umqtt-latest/src/umqtt.c:77:90
	ldrh.w	r0, [r0, #124]
	.loc	2 77 100                        @ packages/umqtt-latest/src/umqtt.c:77:100
	adds	r0, #1
	.loc	2 77 32                         @ packages/umqtt-latest/src/umqtt.c:77:32
	str	r0, [sp]                        @ 4-byte Spill
	b	.LBB12_3
.LBB12_3:
	ldr	r0, [sp]                        @ 4-byte Reload
	.loc	2 77 12                         @ packages/umqtt-latest/src/umqtt.c:77:12
	ldr	r1, [sp, #4]
	.loc	2 77 30                         @ packages/umqtt-latest/src/umqtt.c:77:30
	strh.w	r0, [r1, #124]
	.loc	2 77 12                         @ packages/umqtt-latest/src/umqtt.c:77:12
	uxth	r0, r0
	.loc	2 77 5                          @ packages/umqtt-latest/src/umqtt.c:77:5
	add	sp, #8
	bx	lr
.Ltmp335:
.Lfunc_end12:
	.size	get_next_packetID, .Lfunc_end12-get_next_packetID
	.cfi_endproc
	.cantunwind
	.fnend
                                        @ -- End function
	.section	.text.set_uplink_recon_tick,"ax",%progbits
	.p2align	3                               @ -- Begin function set_uplink_recon_tick
	.type	set_uplink_recon_tick,%function
	.code	16                              @ @set_uplink_recon_tick
	.thumb_func
set_uplink_recon_tick:
.Lfunc_begin13:
	.loc	2 308 0 is_stmt 1               @ packages/umqtt-latest/src/umqtt.c:308:0
	.fnstart
	.cfi_startproc
@ %bb.0:
	.save	{r7, lr}
	push	{r7, lr}
	.cfi_def_cfa_offset 8
	.cfi_offset lr, -4
	.cfi_offset r7, -8
	.pad	#24
	sub	sp, #24
	.cfi_def_cfa_offset 32
                                        @ kill: def $r2 killed $r1
	str	r0, [sp, #20]
	strb.w	r1, [sp, #19]
.Ltmp336:
	.loc	2 309 5 prologue_end            @ packages/umqtt-latest/src/umqtt.c:309:5
	ldr	r0, [sp, #20]
.Ltmp337:
	.loc	2 309 5 is_stmt 0               @ packages/umqtt-latest/src/umqtt.c:309:5
	cbnz	r0, .LBB13_2
	b	.LBB13_1
.LBB13_1:
.Ltmp338:
	.loc	2 309 5                         @ packages/umqtt-latest/src/umqtt.c:309:5
	movw	r0, :lower16:.L.str.24
	movt	r0, :upper16:.L.str.24
	movw	r1, :lower16:.L__FUNCTION__.set_uplink_recon_tick
	movt	r1, :upper16:.L__FUNCTION__.set_uplink_recon_tick
	movw	r2, #309
	bl	rt_assert_handler
	b	.LBB13_2
.Ltmp339:
.LBB13_2:
	.loc	2 310 13 is_stmt 1              @ packages/umqtt-latest/src/umqtt.c:310:13
	ldrb.w	r0, [sp, #19]
	.loc	2 310 5 is_stmt 0               @ packages/umqtt-latest/src/umqtt.c:310:5
	mov	r1, r0
	str	r1, [sp, #12]                   @ 4-byte Spill
	cmp	r0, #3
	bhi	.LBB13_9
@ %bb.3:
	.loc	2 0 5                           @ packages/umqtt-latest/src/umqtt.c:0:5
	ldr	r1, [sp, #12]                   @ 4-byte Reload
.LCPI13_0:
	tbb	[pc, r1]
@ %bb.4:
.LJTI13_0:
	.byte	(.LBB13_5-(.LCPI13_0+4))/2
	.byte	(.LBB13_6-(.LCPI13_0+4))/2
	.byte	(.LBB13_7-(.LCPI13_0+4))/2
	.byte	(.LBB13_8-(.LCPI13_0+4))/2
	.p2align	1
.LBB13_5:
.Ltmp340:
	.loc	2 313 9 is_stmt 1               @ packages/umqtt-latest/src/umqtt.c:313:9
	ldr	r0, [sp, #20]
	ldr.w	r0, [r0, #128]
	mov.w	r1, #-1
	bl	rt_mutex_take
	.loc	2 314 36                        @ packages/umqtt-latest/src/umqtt.c:314:36
	bl	rt_tick_get
	.loc	2 314 9 is_stmt 0               @ packages/umqtt-latest/src/umqtt.c:314:9
	ldr	r1, [sp, #20]
	.loc	2 314 34                        @ packages/umqtt-latest/src/umqtt.c:314:34
	str	r0, [r1, #96]
	.loc	2 315 9 is_stmt 1               @ packages/umqtt-latest/src/umqtt.c:315:9
	ldr	r0, [sp, #20]
	ldr.w	r0, [r0, #128]
	bl	rt_mutex_release
	.loc	2 316 9                         @ packages/umqtt-latest/src/umqtt.c:316:9
	b	.LBB13_12
.LBB13_6:
	.loc	2 318 9                         @ packages/umqtt-latest/src/umqtt.c:318:9
	ldr	r0, [sp, #20]
	ldr.w	r0, [r0, #128]
	mov.w	r1, #-1
	bl	rt_mutex_take
	.loc	2 319 36                        @ packages/umqtt-latest/src/umqtt.c:319:36
	ldr	r0, [sp, #20]
	.loc	2 319 54 is_stmt 0              @ packages/umqtt-latest/src/umqtt.c:319:54
	ldr	r0, [r0, #60]
	.loc	2 319 82                        @ packages/umqtt-latest/src/umqtt.c:319:82
	str	r0, [sp, #8]                    @ 4-byte Spill
	bl	rt_tick_get
	mov	r2, r0
	ldr	r0, [sp, #8]                    @ 4-byte Reload
	mov.w	r1, #1000
	.loc	2 319 80                        @ packages/umqtt-latest/src/umqtt.c:319:80
	mla	r0, r0, r1, r2
	.loc	2 319 9                         @ packages/umqtt-latest/src/umqtt.c:319:9
	ldr	r1, [sp, #20]
	.loc	2 319 34                        @ packages/umqtt-latest/src/umqtt.c:319:34
	str	r0, [r1, #92]
	.loc	2 320 9 is_stmt 1               @ packages/umqtt-latest/src/umqtt.c:320:9
	ldr	r0, [sp, #20]
	ldr.w	r0, [r0, #128]
	bl	rt_mutex_release
	.loc	2 321 9                         @ packages/umqtt-latest/src/umqtt.c:321:9
	b	.LBB13_12
.LBB13_7:
	.loc	2 323 9                         @ packages/umqtt-latest/src/umqtt.c:323:9
	ldr	r0, [sp, #20]
	ldr.w	r0, [r0, #128]
	mov.w	r1, #-1
	bl	rt_mutex_take
	.loc	2 324 39                        @ packages/umqtt-latest/src/umqtt.c:324:39
	bl	rt_tick_get
	.loc	2 324 9 is_stmt 0               @ packages/umqtt-latest/src/umqtt.c:324:9
	ldr	r1, [sp, #20]
	.loc	2 324 37                        @ packages/umqtt-latest/src/umqtt.c:324:37
	str	r0, [r1, #104]
	.loc	2 325 9 is_stmt 1               @ packages/umqtt-latest/src/umqtt.c:325:9
	ldr	r0, [sp, #20]
	ldr.w	r0, [r0, #128]
	bl	rt_mutex_release
	.loc	2 326 9                         @ packages/umqtt-latest/src/umqtt.c:326:9
	b	.LBB13_12
.LBB13_8:
	.loc	2 328 9                         @ packages/umqtt-latest/src/umqtt.c:328:9
	ldr	r0, [sp, #20]
	ldr.w	r0, [r0, #128]
	mov.w	r1, #-1
	bl	rt_mutex_take
	.loc	2 329 39                        @ packages/umqtt-latest/src/umqtt.c:329:39
	ldr	r0, [sp, #20]
	.loc	2 329 57 is_stmt 0              @ packages/umqtt-latest/src/umqtt.c:329:57
	ldr	r0, [r0, #52]
	.loc	2 329 85                        @ packages/umqtt-latest/src/umqtt.c:329:85
	str	r0, [sp, #4]                    @ 4-byte Spill
	bl	rt_tick_get
	mov	r2, r0
	ldr	r0, [sp, #4]                    @ 4-byte Reload
	mov.w	r1, #1000
	.loc	2 329 83                        @ packages/umqtt-latest/src/umqtt.c:329:83
	mla	r0, r0, r1, r2
	.loc	2 329 9                         @ packages/umqtt-latest/src/umqtt.c:329:9
	ldr	r1, [sp, #20]
	.loc	2 329 37                        @ packages/umqtt-latest/src/umqtt.c:329:37
	str	r0, [r1, #100]
	.loc	2 330 9 is_stmt 1               @ packages/umqtt-latest/src/umqtt.c:330:9
	ldr	r0, [sp, #20]
	ldr.w	r0, [r0, #128]
	bl	rt_mutex_release
	.loc	2 331 9                         @ packages/umqtt-latest/src/umqtt.c:331:9
	b	.LBB13_12
.LBB13_9:
	.loc	2 333 9                         @ packages/umqtt-latest/src/umqtt.c:333:9
	b	.LBB13_10
.LBB13_10:
.Ltmp341:
	.loc	2 333 9 is_stmt 0               @ packages/umqtt-latest/src/umqtt.c:333:9
	movw	r0, :lower16:.L.str.16
	movt	r0, :upper16:.L.str.16
	bl	rt_kprintf
	ldrb.w	r1, [sp, #19]
	movw	r0, :lower16:.L.str.91
	movt	r0, :upper16:.L.str.91
	bl	rt_kprintf
	movw	r0, :lower16:.L.str.3
	movt	r0, :upper16:.L.str.3
	bl	rt_kprintf
	b	.LBB13_11
.Ltmp342:
.LBB13_11:
	.loc	2 334 9 is_stmt 1               @ packages/umqtt-latest/src/umqtt.c:334:9
	b	.LBB13_12
.Ltmp343:
.LBB13_12:
	.loc	2 336 1                         @ packages/umqtt-latest/src/umqtt.c:336:1
	add	sp, #24
	pop	{r7, pc}
.Ltmp344:
.Lfunc_end13:
	.size	set_uplink_recon_tick, .Lfunc_end13-set_uplink_recon_tick
	.cfi_endproc
	.cantunwind
	.fnend
                                        @ -- End function
	.section	.text.umqtt_stop,"ax",%progbits
	.hidden	umqtt_stop                      @ -- Begin function umqtt_stop
	.globl	umqtt_stop
	.p2align	3
	.type	umqtt_stop,%function
	.code	16                              @ @umqtt_stop
	.thumb_func
umqtt_stop:
.Lfunc_begin14:
	.loc	2 1396 0                        @ packages/umqtt-latest/src/umqtt.c:1396:0
	.fnstart
	.cfi_startproc
@ %bb.0:
	.save	{r7, lr}
	push	{r7, lr}
	.cfi_def_cfa_offset 8
	.cfi_offset lr, -4
	.cfi_offset r7, -8
	.pad	#8
	sub	sp, #8
	.cfi_def_cfa_offset 16
	str	r0, [sp, #4]
.Ltmp345:
	.loc	2 1397 9 prologue_end           @ packages/umqtt-latest/src/umqtt.c:1397:9
	ldr	r0, [sp, #4]
.Ltmp346:
	.loc	2 1397 9 is_stmt 0              @ packages/umqtt-latest/src/umqtt.c:1397:9
	cbnz	r0, .LBB14_2
	b	.LBB14_1
.LBB14_1:
.Ltmp347:
	.loc	2 1398 9 is_stmt 1              @ packages/umqtt-latest/src/umqtt.c:1398:9
	b	.LBB14_8
.Ltmp348:
.LBB14_2:
	.loc	2 1400 9                        @ packages/umqtt-latest/src/umqtt.c:1400:9
	ldr	r0, [sp, #4]
	.loc	2 1400 17 is_stmt 0             @ packages/umqtt-latest/src/umqtt.c:1400:17
	ldr.w	r0, [r0, #180]
.Ltmp349:
	.loc	2 1400 9                        @ packages/umqtt-latest/src/umqtt.c:1400:9
	cbz	r0, .LBB14_4
	b	.LBB14_3
.LBB14_3:
.Ltmp350:
	.loc	2 1402 26 is_stmt 1             @ packages/umqtt-latest/src/umqtt.c:1402:26
	ldr	r0, [sp, #4]
	.loc	2 1402 34 is_stmt 0             @ packages/umqtt-latest/src/umqtt.c:1402:34
	ldr.w	r0, [r0, #180]
	.loc	2 1402 9                        @ packages/umqtt-latest/src/umqtt.c:1402:9
	bl	rt_thread_delete
	.loc	2 1403 9 is_stmt 1              @ packages/umqtt-latest/src/umqtt.c:1403:9
	ldr	r1, [sp, #4]
	movs	r0, #0
	.loc	2 1403 29 is_stmt 0             @ packages/umqtt-latest/src/umqtt.c:1403:29
	str.w	r0, [r1, #180]
	.loc	2 1404 5 is_stmt 1              @ packages/umqtt-latest/src/umqtt.c:1404:5
	b	.LBB14_4
.Ltmp351:
.LBB14_4:
	.loc	2 1406 9                        @ packages/umqtt-latest/src/umqtt.c:1406:9
	ldr	r0, [sp, #4]
	.loc	2 1406 17 is_stmt 0             @ packages/umqtt-latest/src/umqtt.c:1406:17
	ldr.w	r0, [r0, #136]
.Ltmp352:
	.loc	2 1406 9                        @ packages/umqtt-latest/src/umqtt.c:1406:9
	cbz	r0, .LBB14_6
	b	.LBB14_5
.LBB14_5:
.Ltmp353:
	.loc	2 1407 23 is_stmt 1             @ packages/umqtt-latest/src/umqtt.c:1407:23
	ldr	r0, [sp, #4]
	.loc	2 1407 31 is_stmt 0             @ packages/umqtt-latest/src/umqtt.c:1407:31
	ldr.w	r0, [r0, #136]
	.loc	2 1407 9                        @ packages/umqtt-latest/src/umqtt.c:1407:9
	bl	rt_timer_stop
	b	.LBB14_6
.Ltmp354:
.LBB14_6:
	.loc	2 1409 22 is_stmt 1             @ packages/umqtt-latest/src/umqtt.c:1409:22
	ldr	r0, [sp, #4]
	.loc	2 1409 5 is_stmt 0              @ packages/umqtt-latest/src/umqtt.c:1409:5
	bl	umqtt_disconnect
.Ltmp355:
	.loc	2 1410 9 is_stmt 1              @ packages/umqtt-latest/src/umqtt.c:1410:9
	ldr	r0, [sp, #4]
	.loc	2 1410 17 is_stmt 0             @ packages/umqtt-latest/src/umqtt.c:1410:17
	ldr	r0, [r0]
.Ltmp356:
	.loc	2 1410 9                        @ packages/umqtt-latest/src/umqtt.c:1410:9
	adds	r0, #1
	cbz	r0, .LBB14_8
	b	.LBB14_7
.LBB14_7:
.Ltmp357:
	.loc	2 1412 32 is_stmt 1             @ packages/umqtt-latest/src/umqtt.c:1412:32
	ldr	r0, [sp, #4]
	.loc	2 1412 40 is_stmt 0             @ packages/umqtt-latest/src/umqtt.c:1412:40
	ldr	r0, [r0]
	.loc	2 1412 9                        @ packages/umqtt-latest/src/umqtt.c:1412:9
	bl	umqtt_trans_disconnect
	.loc	2 1413 9 is_stmt 1              @ packages/umqtt-latest/src/umqtt.c:1413:9
	ldr	r1, [sp, #4]
	mov.w	r0, #-1
	.loc	2 1413 22 is_stmt 0             @ packages/umqtt-latest/src/umqtt.c:1413:22
	str	r0, [r1]
	.loc	2 1414 5 is_stmt 1              @ packages/umqtt-latest/src/umqtt.c:1414:5
	b	.LBB14_8
.Ltmp358:
.LBB14_8:
	.loc	2 1415 1                        @ packages/umqtt-latest/src/umqtt.c:1415:1
	add	sp, #8
	pop	{r7, pc}
.Ltmp359:
.Lfunc_end14:
	.size	umqtt_stop, .Lfunc_end14-umqtt_stop
	.cfi_endproc
	.cantunwind
	.fnend
                                        @ -- End function
	.section	.text.umqtt_disconnect,"ax",%progbits
	.p2align	3                               @ -- Begin function umqtt_disconnect
	.type	umqtt_disconnect,%function
	.code	16                              @ @umqtt_disconnect
	.thumb_func
umqtt_disconnect:
.Lfunc_begin15:
	.loc	2 464 0                         @ packages/umqtt-latest/src/umqtt.c:464:0
	.fnstart
	.cfi_startproc
@ %bb.0:
	.save	{r7, lr}
	push	{r7, lr}
	.cfi_def_cfa_offset 8
	.cfi_offset lr, -4
	.cfi_offset r7, -8
	.pad	#16
	sub	sp, #16
	.cfi_def_cfa_offset 24
	str	r0, [sp, #12]
	movs	r0, #0
.Ltmp360:
	.loc	2 465 9 prologue_end            @ packages/umqtt-latest/src/umqtt.c:465:9
	str	r0, [sp, #8]
	.loc	2 465 19 is_stmt 0              @ packages/umqtt-latest/src/umqtt.c:465:19
	str	r0, [sp, #4]
.Ltmp361:
	.loc	2 466 5 is_stmt 1               @ packages/umqtt-latest/src/umqtt.c:466:5
	ldr	r0, [sp, #12]
.Ltmp362:
	.loc	2 466 5 is_stmt 0               @ packages/umqtt-latest/src/umqtt.c:466:5
	cbnz	r0, .LBB15_2
	b	.LBB15_1
.LBB15_1:
.Ltmp363:
	.loc	2 466 5                         @ packages/umqtt-latest/src/umqtt.c:466:5
	movw	r0, :lower16:.L.str.24
	movt	r0, :upper16:.L.str.24
	movw	r1, :lower16:.L__FUNCTION__.umqtt_disconnect
	movt	r1, :upper16:.L__FUNCTION__.umqtt_disconnect
	mov.w	r2, #466
	bl	rt_assert_handler
	b	.LBB15_2
.Ltmp364:
.LBB15_2:
	.loc	2 468 51 is_stmt 1              @ packages/umqtt-latest/src/umqtt.c:468:51
	ldr	r0, [sp, #12]
	.loc	2 468 87 is_stmt 0              @ packages/umqtt-latest/src/umqtt.c:468:87
	ldr	r2, [r0, #8]
	.loc	2 468 59                        @ packages/umqtt-latest/src/umqtt.c:468:59
	ldr	r1, [r0, #108]
	movs	r0, #14
	movs	r3, #0
	.loc	2 468 15                        @ packages/umqtt-latest/src/umqtt.c:468:15
	bl	umqtt_encode
	.loc	2 468 13                        @ packages/umqtt-latest/src/umqtt.c:468:13
	str	r0, [sp, #4]
.Ltmp365:
	.loc	2 469 9 is_stmt 1               @ packages/umqtt-latest/src/umqtt.c:469:9
	ldr	r0, [sp, #4]
.Ltmp366:
	.loc	2 469 9 is_stmt 0               @ packages/umqtt-latest/src/umqtt.c:469:9
	cmp.w	r0, #-1
	bgt	.LBB15_6
	b	.LBB15_3
.LBB15_3:
	.loc	2 0 9                           @ packages/umqtt-latest/src/umqtt.c:0:9
	mvn	r0, #3
.Ltmp367:
	.loc	2 471 14 is_stmt 1              @ packages/umqtt-latest/src/umqtt.c:471:14
	str	r0, [sp, #8]
	.loc	2 472 9                         @ packages/umqtt-latest/src/umqtt.c:472:9
	b	.LBB15_4
.LBB15_4:
.Ltmp368:
	.loc	2 472 9 is_stmt 0               @ packages/umqtt-latest/src/umqtt.c:472:9
	movw	r0, :lower16:.L.str.1
	movt	r0, :upper16:.L.str.1
	bl	rt_kprintf
	movw	r0, :lower16:.L.str.92
	movt	r0, :upper16:.L.str.92
	bl	rt_kprintf
	movw	r0, :lower16:.L.str.3
	movt	r0, :upper16:.L.str.3
	bl	rt_kprintf
	b	.LBB15_5
.Ltmp369:
.LBB15_5:
	.loc	2 473 9 is_stmt 1               @ packages/umqtt-latest/src/umqtt.c:473:9
	b	.LBB15_11
.Ltmp370:
.LBB15_6:
	.loc	2 475 24                        @ packages/umqtt-latest/src/umqtt.c:475:24
	ldr	r0, [sp, #4]
	.loc	2 475 5 is_stmt 0               @ packages/umqtt-latest/src/umqtt.c:475:5
	ldr	r1, [sp, #12]
	.loc	2 475 22                        @ packages/umqtt-latest/src/umqtt.c:475:22
	str	r0, [r1, #116]
	.loc	2 477 29 is_stmt 1              @ packages/umqtt-latest/src/umqtt.c:477:29
	ldr	r2, [sp, #12]
	.loc	2 477 37 is_stmt 0              @ packages/umqtt-latest/src/umqtt.c:477:37
	ldr	r0, [r2]
	.loc	2 478 47 is_stmt 1              @ packages/umqtt-latest/src/umqtt.c:478:47
	ldr	r3, [r2, #72]
	.loc	2 477 51                        @ packages/umqtt-latest/src/umqtt.c:477:51
	ldr	r1, [r2, #108]
	.loc	2 477 69 is_stmt 0              @ packages/umqtt-latest/src/umqtt.c:477:69
	ldr	r2, [r2, #116]
	.loc	2 477 12                        @ packages/umqtt-latest/src/umqtt.c:477:12
	bl	umqtt_trans_send
	.loc	2 477 10                        @ packages/umqtt-latest/src/umqtt.c:477:10
	str	r0, [sp, #8]
.Ltmp371:
	.loc	2 479 9 is_stmt 1               @ packages/umqtt-latest/src/umqtt.c:479:9
	ldr	r0, [sp, #8]
.Ltmp372:
	.loc	2 479 9 is_stmt 0               @ packages/umqtt-latest/src/umqtt.c:479:9
	cmp.w	r0, #-1
	bgt	.LBB15_10
	b	.LBB15_7
.LBB15_7:
	.loc	2 0 9                           @ packages/umqtt-latest/src/umqtt.c:0:9
	mvn	r0, #6
.Ltmp373:
	.loc	2 481 14 is_stmt 1              @ packages/umqtt-latest/src/umqtt.c:481:14
	str	r0, [sp, #8]
	.loc	2 482 9                         @ packages/umqtt-latest/src/umqtt.c:482:9
	b	.LBB15_8
.LBB15_8:
.Ltmp374:
	.loc	2 482 9 is_stmt 0               @ packages/umqtt-latest/src/umqtt.c:482:9
	movw	r0, :lower16:.L.str.1
	movt	r0, :upper16:.L.str.1
	bl	rt_kprintf
	movw	r0, :lower16:.L.str.93
	movt	r0, :upper16:.L.str.93
	bl	rt_kprintf
	movw	r0, :lower16:.L.str.3
	movt	r0, :upper16:.L.str.3
	bl	rt_kprintf
	b	.LBB15_9
.Ltmp375:
.LBB15_9:
	.loc	2 483 9 is_stmt 1               @ packages/umqtt-latest/src/umqtt.c:483:9
	b	.LBB15_11
.Ltmp376:
.LBB15_10:
	.loc	2 0 9 is_stmt 0                 @ packages/umqtt-latest/src/umqtt.c:0:9
	movs	r0, #0
	.loc	2 485 10 is_stmt 1              @ packages/umqtt-latest/src/umqtt.c:485:10
	str	r0, [sp, #8]
	.loc	2 485 5 is_stmt 0               @ packages/umqtt-latest/src/umqtt.c:485:5
	b	.LBB15_11
.LBB15_11:
.Ltmp377:
	@DEBUG_LABEL: umqtt_disconnect:exit
	.loc	2 487 12 is_stmt 1              @ packages/umqtt-latest/src/umqtt.c:487:12
	ldr	r0, [sp, #8]
	.loc	2 487 5 is_stmt 0               @ packages/umqtt-latest/src/umqtt.c:487:5
	add	sp, #16
	pop	{r7, pc}
.Ltmp378:
.Lfunc_end15:
	.size	umqtt_disconnect, .Lfunc_end15-umqtt_disconnect
	.cfi_endproc
	.cantunwind
	.fnend
                                        @ -- End function
	.section	.text.umqtt_publish,"ax",%progbits
	.hidden	umqtt_publish                   @ -- Begin function umqtt_publish
	.globl	umqtt_publish
	.p2align	3
	.type	umqtt_publish,%function
	.code	16                              @ @umqtt_publish
	.thumb_func
umqtt_publish:
.Lfunc_begin16:
	.loc	2 1431 0 is_stmt 1              @ packages/umqtt-latest/src/umqtt.c:1431:0
	.fnstart
	.cfi_startproc
@ %bb.0:
	.save	{r7, lr}
	push	{r7, lr}
	.cfi_def_cfa_offset 8
	.cfi_offset lr, -4
	.cfi_offset r7, -8
	.pad	#120
	sub	sp, #120
	.cfi_def_cfa_offset 128
	ldr.w	r12, [sp, #132]
	ldr.w	r12, [sp, #128]
                                        @ kill: def $r12 killed $r1
	str	r0, [sp, #116]
	strb.w	r1, [sp, #115]
	str	r2, [sp, #108]
	str	r3, [sp, #104]
	movs	r0, #0
.Ltmp379:
	.loc	2 1432 9 prologue_end           @ packages/umqtt-latest/src/umqtt.c:1432:9
	str	r0, [sp, #100]
	.loc	2 1432 19 is_stmt 0             @ packages/umqtt-latest/src/umqtt.c:1432:19
	str	r0, [sp, #96]
	.loc	2 1433 9 is_stmt 1              @ packages/umqtt-latest/src/umqtt.c:1433:9
	str	r0, [sp, #92]
	.loc	2 1434 17                       @ packages/umqtt-latest/src/umqtt.c:1434:17
	strh.w	r0, [sp, #90]
	.loc	2 1435 26                       @ packages/umqtt-latest/src/umqtt.c:1435:26
	str	r0, [sp, #84]
	add	r0, sp, #20
	movs	r1, #64
	.loc	2 1436 22                       @ packages/umqtt-latest/src/umqtt.c:1436:22
	bl	__aeabi_memclr4
.Ltmp380:
	.loc	2 1438 5                        @ packages/umqtt-latest/src/umqtt.c:1438:5
	ldr	r0, [sp, #116]
.Ltmp381:
	.loc	2 1438 5 is_stmt 0              @ packages/umqtt-latest/src/umqtt.c:1438:5
	cbnz	r0, .LBB16_2
	b	.LBB16_1
.LBB16_1:
.Ltmp382:
	.loc	2 1438 5                        @ packages/umqtt-latest/src/umqtt.c:1438:5
	movw	r0, :lower16:.L.str.24
	movt	r0, :upper16:.L.str.24
	movw	r1, :lower16:.L__FUNCTION__.umqtt_publish
	movt	r1, :upper16:.L__FUNCTION__.umqtt_publish
	movw	r2, #1438
	bl	rt_assert_handler
	b	.LBB16_2
.Ltmp383:
.LBB16_2:
	.loc	2 1439 5 is_stmt 1              @ packages/umqtt-latest/src/umqtt.c:1439:5
	ldr	r0, [sp, #108]
.Ltmp384:
	.loc	2 1439 5 is_stmt 0              @ packages/umqtt-latest/src/umqtt.c:1439:5
	cbnz	r0, .LBB16_4
	b	.LBB16_3
.LBB16_3:
.Ltmp385:
	.loc	2 1439 5                        @ packages/umqtt-latest/src/umqtt.c:1439:5
	movw	r0, :lower16:.L.str.25
	movt	r0, :upper16:.L.str.25
	movw	r1, :lower16:.L__FUNCTION__.umqtt_publish
	movt	r1, :upper16:.L__FUNCTION__.umqtt_publish
	movw	r2, #1439
	bl	rt_assert_handler
	b	.LBB16_4
.Ltmp386:
.LBB16_4:
	.loc	2 1440 5 is_stmt 1              @ packages/umqtt-latest/src/umqtt.c:1440:5
	ldr	r0, [sp, #104]
.Ltmp387:
	.loc	2 1440 5 is_stmt 0              @ packages/umqtt-latest/src/umqtt.c:1440:5
	cbnz	r0, .LBB16_6
	b	.LBB16_5
.LBB16_5:
.Ltmp388:
	.loc	2 1440 5                        @ packages/umqtt-latest/src/umqtt.c:1440:5
	movw	r0, :lower16:.L.str.26
	movt	r0, :upper16:.L.str.26
	movw	r1, :lower16:.L__FUNCTION__.umqtt_publish
	movt	r1, :upper16:.L__FUNCTION__.umqtt_publish
	mov.w	r2, #1440
	bl	rt_assert_handler
	b	.LBB16_6
.Ltmp389:
.LBB16_6:
	.loc	2 1441 5 is_stmt 1              @ packages/umqtt-latest/src/umqtt.c:1441:5
	ldr	r0, [sp, #128]
.Ltmp390:
	.loc	2 1441 5 is_stmt 0              @ packages/umqtt-latest/src/umqtt.c:1441:5
	cbnz	r0, .LBB16_8
	b	.LBB16_7
.LBB16_7:
.Ltmp391:
	.loc	2 1441 5                        @ packages/umqtt-latest/src/umqtt.c:1441:5
	movw	r0, :lower16:.L.str.27
	movt	r0, :upper16:.L.str.27
	movw	r1, :lower16:.L__FUNCTION__.umqtt_publish
	movt	r1, :upper16:.L__FUNCTION__.umqtt_publish
	movw	r2, #1441
	bl	rt_assert_handler
	b	.LBB16_8
.Ltmp392:
.LBB16_8:
	.loc	2 1443 19 is_stmt 1             @ packages/umqtt-latest/src/umqtt.c:1443:19
	ldrb.w	r0, [sp, #115]
	.loc	2 1443 18 is_stmt 0             @ packages/umqtt-latest/src/umqtt.c:1443:18
	cbnz	r0, .LBB16_10
	b	.LBB16_9
.LBB16_9:
	.loc	2 0 18                          @ packages/umqtt-latest/src/umqtt.c:0:18
	movs	r0, #0
	.loc	2 1443 18                       @ packages/umqtt-latest/src/umqtt.c:1443:18
	str	r0, [sp, #16]                   @ 4-byte Spill
	b	.LBB16_11
.LBB16_10:
	.loc	2 1443 62                       @ packages/umqtt-latest/src/umqtt.c:1443:62
	ldr	r0, [sp, #116]
	.loc	2 1443 44                       @ packages/umqtt-latest/src/umqtt.c:1443:44
	bl	get_next_packetID
	.loc	2 1443 18                       @ packages/umqtt-latest/src/umqtt.c:1443:18
	str	r0, [sp, #16]                   @ 4-byte Spill
	b	.LBB16_11
.LBB16_11:
	ldr	r0, [sp, #16]                   @ 4-byte Reload
	.loc	2 1443 15                       @ packages/umqtt-latest/src/umqtt.c:1443:15
	strh.w	r0, [sp, #90]
	.loc	2 1445 34 is_stmt 1             @ packages/umqtt-latest/src/umqtt.c:1445:34
	ldrb.w	r1, [sp, #115]
	.loc	2 1445 32 is_stmt 0             @ packages/umqtt-latest/src/umqtt.c:1445:32
	ldrb.w	r0, [sp, #20]
	and	r1, r1, #3
	and	r0, r0, #249
	orr.w	r0, r0, r1, lsl #1
	strb.w	r0, [sp, #20]
	.loc	2 1446 32 is_stmt 1             @ packages/umqtt-latest/src/umqtt.c:1446:32
	ldrb.w	r0, [sp, #20]
	and	r0, r0, #247
	strb.w	r0, [sp, #20]
	.loc	2 1447 40                       @ packages/umqtt-latest/src/umqtt.c:1447:40
	ldrh.w	r0, [sp, #90]
	.loc	2 1447 38 is_stmt 0             @ packages/umqtt-latest/src/umqtt.c:1447:38
	strh.w	r0, [sp, #36]
	.loc	2 1448 38 is_stmt 1             @ packages/umqtt-latest/src/umqtt.c:1448:38
	ldr	r0, [sp, #104]
	.loc	2 1448 36 is_stmt 0             @ packages/umqtt-latest/src/umqtt.c:1448:36
	str	r0, [sp, #40]
	.loc	2 1449 42 is_stmt 1             @ packages/umqtt-latest/src/umqtt.c:1449:42
	ldr	r0, [sp, #128]
	.loc	2 1449 40 is_stmt 0             @ packages/umqtt-latest/src/umqtt.c:1449:40
	str	r0, [sp, #44]
	.loc	2 1450 41 is_stmt 1             @ packages/umqtt-latest/src/umqtt.c:1450:41
	ldr	r0, [sp, #108]
	.loc	2 1450 39 is_stmt 0             @ packages/umqtt-latest/src/umqtt.c:1450:39
	str	r0, [sp, #32]
	.loc	2 1451 52 is_stmt 1             @ packages/umqtt-latest/src/umqtt.c:1451:52
	ldr	r0, [sp, #108]
	.loc	2 1451 45 is_stmt 0             @ packages/umqtt-latest/src/umqtt.c:1451:45
	bl	strlen
	.loc	2 1451 43                       @ packages/umqtt-latest/src/umqtt.c:1451:43
	strh.w	r0, [sp, #28]
	.loc	2 1452 48 is_stmt 1             @ packages/umqtt-latest/src/umqtt.c:1452:48
	ldr	r0, [sp, #116]
	.loc	2 1452 84 is_stmt 0             @ packages/umqtt-latest/src/umqtt.c:1452:84
	ldr	r2, [r0, #8]
	.loc	2 1452 56                       @ packages/umqtt-latest/src/umqtt.c:1452:56
	ldr	r1, [r0, #108]
	movs	r0, #3
	add	r3, sp, #20
	.loc	2 1452 15                       @ packages/umqtt-latest/src/umqtt.c:1452:15
	bl	umqtt_encode
	.loc	2 1452 13                       @ packages/umqtt-latest/src/umqtt.c:1452:13
	str	r0, [sp, #96]
.Ltmp393:
	.loc	2 1453 9 is_stmt 1              @ packages/umqtt-latest/src/umqtt.c:1453:9
	ldr	r0, [sp, #96]
.Ltmp394:
	.loc	2 1453 9 is_stmt 0              @ packages/umqtt-latest/src/umqtt.c:1453:9
	cmp	r0, #0
	bgt	.LBB16_15
	b	.LBB16_12
.LBB16_12:
	.loc	2 0 9                           @ packages/umqtt-latest/src/umqtt.c:0:9
	mvn	r0, #3
.Ltmp395:
	.loc	2 1455 14 is_stmt 1             @ packages/umqtt-latest/src/umqtt.c:1455:14
	str	r0, [sp, #100]
	.loc	2 1456 9                        @ packages/umqtt-latest/src/umqtt.c:1456:9
	b	.LBB16_13
.LBB16_13:
.Ltmp396:
	.loc	2 1456 9 is_stmt 0              @ packages/umqtt-latest/src/umqtt.c:1456:9
	movw	r0, :lower16:.L.str.1
	movt	r0, :upper16:.L.str.1
	bl	rt_kprintf
	ldr	r1, [sp, #108]
	movw	r0, :lower16:.L.str.28
	movt	r0, :upper16:.L.str.28
	bl	rt_kprintf
	movw	r0, :lower16:.L.str.3
	movt	r0, :upper16:.L.str.3
	bl	rt_kprintf
	b	.LBB16_14
.Ltmp397:
.LBB16_14:
	.loc	2 1457 9 is_stmt 1              @ packages/umqtt-latest/src/umqtt.c:1457:9
	b	.LBB16_73
.Ltmp398:
.LBB16_15:
	.loc	2 1459 24                       @ packages/umqtt-latest/src/umqtt.c:1459:24
	ldr	r0, [sp, #96]
	.loc	2 1459 5 is_stmt 0              @ packages/umqtt-latest/src/umqtt.c:1459:5
	ldr	r1, [sp, #116]
	.loc	2 1459 22                       @ packages/umqtt-latest/src/umqtt.c:1459:22
	str	r0, [r1, #116]
	.loc	2 1459 5                        @ packages/umqtt-latest/src/umqtt.c:1459:5
	b	.LBB16_16
.LBB16_16:                              @ =>This Inner Loop Header: Depth=1
.Ltmp399:
	@DEBUG_LABEL: umqtt_publish:_republish
	.loc	2 1462 29 is_stmt 1             @ packages/umqtt-latest/src/umqtt.c:1462:29
	ldr	r2, [sp, #116]
	.loc	2 1462 37 is_stmt 0             @ packages/umqtt-latest/src/umqtt.c:1462:37
	ldr	r0, [r2]
	.loc	2 1462 97                       @ packages/umqtt-latest/src/umqtt.c:1462:97
	ldr	r3, [r2, #72]
	.loc	2 1462 51                       @ packages/umqtt-latest/src/umqtt.c:1462:51
	ldr	r1, [r2, #108]
	.loc	2 1462 69                       @ packages/umqtt-latest/src/umqtt.c:1462:69
	ldr	r2, [r2, #116]
	.loc	2 1462 12                       @ packages/umqtt-latest/src/umqtt.c:1462:12
	bl	umqtt_trans_send
	.loc	2 1462 10                       @ packages/umqtt-latest/src/umqtt.c:1462:10
	str	r0, [sp, #100]
.Ltmp400:
	.loc	2 1463 9 is_stmt 1              @ packages/umqtt-latest/src/umqtt.c:1463:9
	ldr	r0, [sp, #100]
.Ltmp401:
	.loc	2 1463 9 is_stmt 0              @ packages/umqtt-latest/src/umqtt.c:1463:9
	cmp.w	r0, #-1
	bgt	.LBB16_20
	b	.LBB16_17
.LBB16_17:
	.loc	2 0 9                           @ packages/umqtt-latest/src/umqtt.c:0:9
	mvn	r0, #6
.Ltmp402:
	.loc	2 1465 14 is_stmt 1             @ packages/umqtt-latest/src/umqtt.c:1465:14
	str	r0, [sp, #100]
	.loc	2 1466 9                        @ packages/umqtt-latest/src/umqtt.c:1466:9
	b	.LBB16_18
.LBB16_18:
.Ltmp403:
	.loc	2 1466 9 is_stmt 0              @ packages/umqtt-latest/src/umqtt.c:1466:9
	movw	r0, :lower16:.L.str.1
	movt	r0, :upper16:.L.str.1
	bl	rt_kprintf
	movw	r0, :lower16:.L.str.29
	movt	r0, :upper16:.L.str.29
	bl	rt_kprintf
	movw	r0, :lower16:.L.str.3
	movt	r0, :upper16:.L.str.3
	bl	rt_kprintf
	b	.LBB16_19
.Ltmp404:
.LBB16_19:
	.loc	2 1467 9 is_stmt 1              @ packages/umqtt-latest/src/umqtt.c:1467:9
	b	.LBB16_73
.Ltmp405:
.LBB16_20:                              @   in Loop: Header=BB16_16 Depth=1
	.loc	2 0 9 is_stmt 0                 @ packages/umqtt-latest/src/umqtt.c:0:9
	movs	r0, #0
	.loc	2 1469 10 is_stmt 1             @ packages/umqtt-latest/src/umqtt.c:1469:10
	str	r0, [sp, #100]
.Ltmp406:
	.loc	2 1470 9                        @ packages/umqtt-latest/src/umqtt.c:1470:9
	ldrb.w	r0, [sp, #115]
.Ltmp407:
	.loc	2 1470 9 is_stmt 0              @ packages/umqtt-latest/src/umqtt.c:1470:9
	cmp	r0, #1
	bne	.LBB16_36
	b	.LBB16_21
.LBB16_21:                              @   in Loop: Header=BB16_16 Depth=1
.Ltmp408:
	.loc	2 1472 34 is_stmt 1             @ packages/umqtt-latest/src/umqtt.c:1472:34
	ldr	r0, [sp, #116]
	.loc	2 1472 42 is_stmt 0             @ packages/umqtt-latest/src/umqtt.c:1472:42
	ldr.w	r0, [r0, #132]
	.loc	2 1474 58 is_stmt 1             @ packages/umqtt-latest/src/umqtt.c:1474:58
	str	r0, [sp, #12]                   @ 4-byte Spill
	ldr	r0, [sp, #132]
	.loc	2 1474 33 is_stmt 0             @ packages/umqtt-latest/src/umqtt.c:1474:33
	bl	rt_tick_from_millisecond
	mov	r3, r0
	.loc	2 1472 23 is_stmt 1             @ packages/umqtt-latest/src/umqtt.c:1472:23
	ldr	r0, [sp, #12]                   @ 4-byte Reload
	add	r1, sp, #84
	movs	r2, #4
	bl	rt_mq_recv
.Ltmp409:
	.loc	2 1472 13 is_stmt 0             @ packages/umqtt-latest/src/umqtt.c:1472:13
	cbnz	r0, .LBB16_29
	b	.LBB16_22
.LBB16_22:
.Ltmp410:
	.loc	2 1476 25 is_stmt 1             @ packages/umqtt-latest/src/umqtt.c:1476:25
	ldrb.w	r0, [sp, #86]
.Ltmp411:
	.loc	2 1476 17 is_stmt 0             @ packages/umqtt-latest/src/umqtt.c:1476:17
	cmp	r0, #4
	bne	.LBB16_26
	b	.LBB16_23
.LBB16_23:
	.loc	2 0 17                          @ packages/umqtt-latest/src/umqtt.c:0:17
	movs	r0, #0
.Ltmp412:
	.loc	2 1478 22 is_stmt 1             @ packages/umqtt-latest/src/umqtt.c:1478:22
	str	r0, [sp, #100]
	.loc	2 1479 17                       @ packages/umqtt-latest/src/umqtt.c:1479:17
	b	.LBB16_24
.LBB16_24:
.Ltmp413:
	.loc	2 1479 17 is_stmt 0             @ packages/umqtt-latest/src/umqtt.c:1479:17
	movw	r0, :lower16:.L.str.19
	movt	r0, :upper16:.L.str.19
	bl	rt_kprintf
	movw	r0, :lower16:.L.str.30
	movt	r0, :upper16:.L.str.30
	bl	rt_kprintf
	movw	r0, :lower16:.L.str.3
	movt	r0, :upper16:.L.str.3
	bl	rt_kprintf
	b	.LBB16_25
.Ltmp414:
.LBB16_25:
	.loc	2 1480 17 is_stmt 1             @ packages/umqtt-latest/src/umqtt.c:1480:17
	b	.LBB16_73
.Ltmp415:
.LBB16_26:
	.loc	2 0 17 is_stmt 0                @ packages/umqtt-latest/src/umqtt.c:0:17
	mvn	r0, #9
.Ltmp416:
	.loc	2 1484 22 is_stmt 1             @ packages/umqtt-latest/src/umqtt.c:1484:22
	str	r0, [sp, #100]
	.loc	2 1485 17                       @ packages/umqtt-latest/src/umqtt.c:1485:17
	b	.LBB16_27
.LBB16_27:
.Ltmp417:
	.loc	2 1485 17 is_stmt 0             @ packages/umqtt-latest/src/umqtt.c:1485:17
	movw	r0, :lower16:.L.str.1
	movt	r0, :upper16:.L.str.1
	bl	rt_kprintf
	ldrb.w	r1, [sp, #86]
	movw	r0, :lower16:.L.str.31
	movt	r0, :upper16:.L.str.31
	bl	rt_kprintf
	movw	r0, :lower16:.L.str.3
	movt	r0, :upper16:.L.str.3
	bl	rt_kprintf
	b	.LBB16_28
.Ltmp418:
.LBB16_28:
	.loc	2 1486 17 is_stmt 1             @ packages/umqtt-latest/src/umqtt.c:1486:17
	b	.LBB16_73
.Ltmp419:
.LBB16_29:                              @   in Loop: Header=BB16_16 Depth=1
	.loc	2 1491 17                       @ packages/umqtt-latest/src/umqtt.c:1491:17
	ldr	r0, [sp, #92]
	adds	r0, #1
	str	r0, [sp, #92]
.Ltmp420:
	.loc	2 1491 17 is_stmt 0             @ packages/umqtt-latest/src/umqtt.c:1491:17
	cmp	r0, #3
	blt	.LBB16_33
	b	.LBB16_30
.LBB16_30:
	.loc	2 0 17                          @ packages/umqtt-latest/src/umqtt.c:0:17
	mvn	r0, #9
.Ltmp421:
	.loc	2 1493 22 is_stmt 1             @ packages/umqtt-latest/src/umqtt.c:1493:22
	str	r0, [sp, #100]
	.loc	2 1494 17                       @ packages/umqtt-latest/src/umqtt.c:1494:17
	b	.LBB16_31
.LBB16_31:
.Ltmp422:
	.loc	2 1494 17 is_stmt 0             @ packages/umqtt-latest/src/umqtt.c:1494:17
	movw	r0, :lower16:.L.str.1
	movt	r0, :upper16:.L.str.1
	bl	rt_kprintf
	movw	r0, :lower16:.L.str.32
	movt	r0, :upper16:.L.str.32
	bl	rt_kprintf
	movw	r0, :lower16:.L.str.3
	movt	r0, :upper16:.L.str.3
	bl	rt_kprintf
	b	.LBB16_32
.Ltmp423:
.LBB16_32:
	.loc	2 1495 17 is_stmt 1             @ packages/umqtt-latest/src/umqtt.c:1495:17
	b	.LBB16_73
.Ltmp424:
.LBB16_33:                              @   in Loop: Header=BB16_16 Depth=1
	.loc	2 1499 17                       @ packages/umqtt-latest/src/umqtt.c:1499:17
	b	.LBB16_34
.LBB16_34:                              @   in Loop: Header=BB16_16 Depth=1
.Ltmp425:
	.loc	2 1499 17 is_stmt 0             @ packages/umqtt-latest/src/umqtt.c:1499:17
	movw	r0, :lower16:.L.str.16
	movt	r0, :upper16:.L.str.16
	bl	rt_kprintf
	movw	r0, :lower16:.L.str.33
	movt	r0, :upper16:.L.str.33
	bl	rt_kprintf
	movw	r0, :lower16:.L.str.3
	movt	r0, :upper16:.L.str.3
	bl	rt_kprintf
	b	.LBB16_35
.Ltmp426:
.LBB16_35:                              @   in Loop: Header=BB16_16 Depth=1
	.loc	2 1500 17 is_stmt 1             @ packages/umqtt-latest/src/umqtt.c:1500:17
	b	.LBB16_16
.Ltmp427:
.LBB16_36:                              @   in Loop: Header=BB16_16 Depth=1
	.loc	2 1505 14                       @ packages/umqtt-latest/src/umqtt.c:1505:14
	ldrb.w	r0, [sp, #115]
.Ltmp428:
	.loc	2 1505 14 is_stmt 0             @ packages/umqtt-latest/src/umqtt.c:1505:14
	cmp	r0, #2
	bne.w	.LBB16_71
	b	.LBB16_37
.LBB16_37:                              @   in Loop: Header=BB16_16 Depth=1
.Ltmp429:
	.loc	2 1507 34 is_stmt 1             @ packages/umqtt-latest/src/umqtt.c:1507:34
	ldr	r0, [sp, #116]
	.loc	2 1507 42 is_stmt 0             @ packages/umqtt-latest/src/umqtt.c:1507:42
	ldr.w	r0, [r0, #132]
	.loc	2 1509 58 is_stmt 1             @ packages/umqtt-latest/src/umqtt.c:1509:58
	str	r0, [sp, #8]                    @ 4-byte Spill
	ldr	r0, [sp, #132]
	.loc	2 1509 33 is_stmt 0             @ packages/umqtt-latest/src/umqtt.c:1509:33
	bl	rt_tick_from_millisecond
	mov	r3, r0
	.loc	2 1507 23 is_stmt 1             @ packages/umqtt-latest/src/umqtt.c:1507:23
	ldr	r0, [sp, #8]                    @ 4-byte Reload
	add	r1, sp, #84
	movs	r2, #4
	bl	rt_mq_recv
.Ltmp430:
	.loc	2 1507 13 is_stmt 0             @ packages/umqtt-latest/src/umqtt.c:1507:13
	cbnz	r0, .LBB16_44
	b	.LBB16_38
.LBB16_38:
.Ltmp431:
	.loc	2 1511 25 is_stmt 1             @ packages/umqtt-latest/src/umqtt.c:1511:25
	ldrb.w	r0, [sp, #86]
.Ltmp432:
	.loc	2 1511 17 is_stmt 0             @ packages/umqtt-latest/src/umqtt.c:1511:17
	cmp	r0, #5
	bne	.LBB16_40
	b	.LBB16_39
.LBB16_39:
.Ltmp433:
	.loc	2 1514 13 is_stmt 1             @ packages/umqtt-latest/src/umqtt.c:1514:13
	b	.LBB16_43
.Ltmp434:
.LBB16_40:
	.loc	2 0 13 is_stmt 0                @ packages/umqtt-latest/src/umqtt.c:0:13
	mvn	r0, #9
.Ltmp435:
	.loc	2 1517 22 is_stmt 1             @ packages/umqtt-latest/src/umqtt.c:1517:22
	str	r0, [sp, #100]
	.loc	2 1518 17                       @ packages/umqtt-latest/src/umqtt.c:1518:17
	b	.LBB16_41
.LBB16_41:
.Ltmp436:
	.loc	2 1518 17 is_stmt 0             @ packages/umqtt-latest/src/umqtt.c:1518:17
	movw	r0, :lower16:.L.str.1
	movt	r0, :upper16:.L.str.1
	bl	rt_kprintf
	ldrb.w	r1, [sp, #86]
	movw	r0, :lower16:.L.str.34
	movt	r0, :upper16:.L.str.34
	bl	rt_kprintf
	movw	r0, :lower16:.L.str.3
	movt	r0, :upper16:.L.str.3
	bl	rt_kprintf
	b	.LBB16_42
.Ltmp437:
.LBB16_42:
	.loc	2 1519 17 is_stmt 1             @ packages/umqtt-latest/src/umqtt.c:1519:17
	b	.LBB16_73
.Ltmp438:
.LBB16_43:
	.loc	2 1521 9                        @ packages/umqtt-latest/src/umqtt.c:1521:9
	b	.LBB16_49
.Ltmp439:
.LBB16_44:                              @   in Loop: Header=BB16_16 Depth=1
	.loc	2 1524 17                       @ packages/umqtt-latest/src/umqtt.c:1524:17
	ldr	r0, [sp, #92]
	adds	r0, #1
	str	r0, [sp, #92]
.Ltmp440:
	.loc	2 1524 17 is_stmt 0             @ packages/umqtt-latest/src/umqtt.c:1524:17
	cmp	r0, #3
	blt	.LBB16_48
	b	.LBB16_45
.LBB16_45:
	.loc	2 0 17                          @ packages/umqtt-latest/src/umqtt.c:0:17
	mvn	r0, #9
.Ltmp441:
	.loc	2 1526 22 is_stmt 1             @ packages/umqtt-latest/src/umqtt.c:1526:22
	str	r0, [sp, #100]
	.loc	2 1527 17                       @ packages/umqtt-latest/src/umqtt.c:1527:17
	b	.LBB16_46
.LBB16_46:
.Ltmp442:
	.loc	2 1527 17 is_stmt 0             @ packages/umqtt-latest/src/umqtt.c:1527:17
	movw	r0, :lower16:.L.str.1
	movt	r0, :upper16:.L.str.1
	bl	rt_kprintf
	movw	r0, :lower16:.L.str.35
	movt	r0, :upper16:.L.str.35
	bl	rt_kprintf
	movw	r0, :lower16:.L.str.3
	movt	r0, :upper16:.L.str.3
	bl	rt_kprintf
	b	.LBB16_47
.Ltmp443:
.LBB16_47:
	.loc	2 1528 17 is_stmt 1             @ packages/umqtt-latest/src/umqtt.c:1528:17
	b	.LBB16_73
.Ltmp444:
.LBB16_48:                              @   in Loop: Header=BB16_16 Depth=1
	.loc	2 1532 17                       @ packages/umqtt-latest/src/umqtt.c:1532:17
	b	.LBB16_16
.Ltmp445:
.LBB16_49:
	.loc	2 1509 66                       @ packages/umqtt-latest/src/umqtt.c:1509:66
	b	.LBB16_50
.Ltmp446:
.LBB16_50:                              @ =>This Inner Loop Header: Depth=1
	@DEBUG_LABEL: _repubrel
	.loc	2 0 66 is_stmt 0                @ packages/umqtt-latest/src/umqtt.c:0:66
	movs	r1, #0
	.loc	2 1538 14 is_stmt 1             @ packages/umqtt-latest/src/umqtt.c:1538:14
	str	r1, [sp, #92]
	add	r0, sp, #20
	str	r0, [sp, #4]                    @ 4-byte Spill
	movs	r2, #64
	.loc	2 1539 9                        @ packages/umqtt-latest/src/umqtt.c:1539:9
	bl	rt_memset
	ldr	r3, [sp, #4]                    @ 4-byte Reload
	.loc	2 1540 37                       @ packages/umqtt-latest/src/umqtt.c:1540:37
	ldrb.w	r0, [sp, #20]
	movs	r1, #6
	bfi	r0, r1, #4, #28
	strb.w	r0, [sp, #20]
	.loc	2 1541 38                       @ packages/umqtt-latest/src/umqtt.c:1541:38
	ldrb.w	r1, [sp, #115]
	.loc	2 1541 36 is_stmt 0             @ packages/umqtt-latest/src/umqtt.c:1541:36
	ldrb.w	r0, [sp, #20]
	and	r1, r1, #3
	and	r0, r0, #249
	orr.w	r0, r0, r1, lsl #1
	strb.w	r0, [sp, #20]
	.loc	2 1542 36 is_stmt 1             @ packages/umqtt-latest/src/umqtt.c:1542:36
	ldrb.w	r0, [sp, #20]
	and	r0, r0, #247
	strb.w	r0, [sp, #20]
	.loc	2 1543 44                       @ packages/umqtt-latest/src/umqtt.c:1543:44
	ldrh.w	r0, [sp, #90]
	.loc	2 1543 42 is_stmt 0             @ packages/umqtt-latest/src/umqtt.c:1543:42
	strh.w	r0, [sp, #36]
	.loc	2 1544 55 is_stmt 1             @ packages/umqtt-latest/src/umqtt.c:1544:55
	ldrb.w	r0, [sp, #20]
	lsrs	r0, r0, #4
	.loc	2 1544 61 is_stmt 0             @ packages/umqtt-latest/src/umqtt.c:1544:61
	ldr	r1, [sp, #116]
	.loc	2 1544 97                       @ packages/umqtt-latest/src/umqtt.c:1544:97
	ldr	r2, [r1, #8]
	.loc	2 1544 69                       @ packages/umqtt-latest/src/umqtt.c:1544:69
	ldr	r1, [r1, #108]
	.loc	2 1544 19                       @ packages/umqtt-latest/src/umqtt.c:1544:19
	bl	umqtt_encode
	.loc	2 1544 17                       @ packages/umqtt-latest/src/umqtt.c:1544:17
	str	r0, [sp, #96]
.Ltmp447:
	.loc	2 1545 13 is_stmt 1             @ packages/umqtt-latest/src/umqtt.c:1545:13
	ldr	r0, [sp, #96]
.Ltmp448:
	.loc	2 1545 13 is_stmt 0             @ packages/umqtt-latest/src/umqtt.c:1545:13
	cmp	r0, #0
	bgt	.LBB16_54
	b	.LBB16_51
.LBB16_51:
	.loc	2 0 13                          @ packages/umqtt-latest/src/umqtt.c:0:13
	mvn	r0, #3
.Ltmp449:
	.loc	2 1547 18 is_stmt 1             @ packages/umqtt-latest/src/umqtt.c:1547:18
	str	r0, [sp, #100]
	.loc	2 1548 13                       @ packages/umqtt-latest/src/umqtt.c:1548:13
	b	.LBB16_52
.LBB16_52:
.Ltmp450:
	.loc	2 1548 13 is_stmt 0             @ packages/umqtt-latest/src/umqtt.c:1548:13
	movw	r0, :lower16:.L.str.1
	movt	r0, :upper16:.L.str.1
	bl	rt_kprintf
	ldr	r1, [sp, #108]
	movw	r0, :lower16:.L.str.36
	movt	r0, :upper16:.L.str.36
	bl	rt_kprintf
	movw	r0, :lower16:.L.str.3
	movt	r0, :upper16:.L.str.3
	bl	rt_kprintf
	b	.LBB16_53
.Ltmp451:
.LBB16_53:
	.loc	2 1549 13 is_stmt 1             @ packages/umqtt-latest/src/umqtt.c:1549:13
	b	.LBB16_73
.Ltmp452:
.LBB16_54:                              @   in Loop: Header=BB16_50 Depth=1
	.loc	2 1551 28                       @ packages/umqtt-latest/src/umqtt.c:1551:28
	ldr	r0, [sp, #96]
	.loc	2 1551 9 is_stmt 0              @ packages/umqtt-latest/src/umqtt.c:1551:9
	ldr	r1, [sp, #116]
	.loc	2 1551 26                       @ packages/umqtt-latest/src/umqtt.c:1551:26
	str	r0, [r1, #116]
	.loc	2 1553 33 is_stmt 1             @ packages/umqtt-latest/src/umqtt.c:1553:33
	ldr	r2, [sp, #116]
	.loc	2 1553 41 is_stmt 0             @ packages/umqtt-latest/src/umqtt.c:1553:41
	ldr	r0, [r2]
	.loc	2 1554 51 is_stmt 1             @ packages/umqtt-latest/src/umqtt.c:1554:51
	ldr	r3, [r2, #72]
	.loc	2 1553 55                       @ packages/umqtt-latest/src/umqtt.c:1553:55
	ldr	r1, [r2, #108]
	.loc	2 1553 73 is_stmt 0             @ packages/umqtt-latest/src/umqtt.c:1553:73
	ldr	r2, [r2, #116]
	.loc	2 1553 16                       @ packages/umqtt-latest/src/umqtt.c:1553:16
	bl	umqtt_trans_send
	.loc	2 1553 14                       @ packages/umqtt-latest/src/umqtt.c:1553:14
	str	r0, [sp, #100]
.Ltmp453:
	.loc	2 1555 13 is_stmt 1             @ packages/umqtt-latest/src/umqtt.c:1555:13
	ldr	r0, [sp, #100]
.Ltmp454:
	.loc	2 1555 13 is_stmt 0             @ packages/umqtt-latest/src/umqtt.c:1555:13
	cmp.w	r0, #-1
	bgt	.LBB16_58
	b	.LBB16_55
.LBB16_55:
	.loc	2 0 13                          @ packages/umqtt-latest/src/umqtt.c:0:13
	mvn	r0, #6
.Ltmp455:
	.loc	2 1557 18 is_stmt 1             @ packages/umqtt-latest/src/umqtt.c:1557:18
	str	r0, [sp, #100]
	.loc	2 1558 13                       @ packages/umqtt-latest/src/umqtt.c:1558:13
	b	.LBB16_56
.LBB16_56:
.Ltmp456:
	.loc	2 1558 13 is_stmt 0             @ packages/umqtt-latest/src/umqtt.c:1558:13
	movw	r0, :lower16:.L.str.1
	movt	r0, :upper16:.L.str.1
	bl	rt_kprintf
	movw	r0, :lower16:.L.str.29
	movt	r0, :upper16:.L.str.29
	bl	rt_kprintf
	movw	r0, :lower16:.L.str.3
	movt	r0, :upper16:.L.str.3
	bl	rt_kprintf
	b	.LBB16_57
.Ltmp457:
.LBB16_57:
	.loc	2 1559 13 is_stmt 1             @ packages/umqtt-latest/src/umqtt.c:1559:13
	b	.LBB16_73
.Ltmp458:
.LBB16_58:                              @   in Loop: Header=BB16_50 Depth=1
	.loc	2 0 13 is_stmt 0                @ packages/umqtt-latest/src/umqtt.c:0:13
	movs	r0, #0
	.loc	2 1561 14 is_stmt 1             @ packages/umqtt-latest/src/umqtt.c:1561:14
	str	r0, [sp, #100]
.Ltmp459:
	.loc	2 1563 34                       @ packages/umqtt-latest/src/umqtt.c:1563:34
	ldr	r0, [sp, #116]
	.loc	2 1563 42 is_stmt 0             @ packages/umqtt-latest/src/umqtt.c:1563:42
	ldr.w	r0, [r0, #132]
	.loc	2 1565 58 is_stmt 1             @ packages/umqtt-latest/src/umqtt.c:1565:58
	str	r0, [sp]                        @ 4-byte Spill
	ldr	r0, [sp, #132]
	.loc	2 1565 33 is_stmt 0             @ packages/umqtt-latest/src/umqtt.c:1565:33
	bl	rt_tick_from_millisecond
	mov	r3, r0
	.loc	2 1563 23 is_stmt 1             @ packages/umqtt-latest/src/umqtt.c:1563:23
	ldr	r0, [sp]                        @ 4-byte Reload
	add	r1, sp, #84
	movs	r2, #4
	bl	rt_mq_recv
.Ltmp460:
	.loc	2 1563 13 is_stmt 0             @ packages/umqtt-latest/src/umqtt.c:1563:13
	cbnz	r0, .LBB16_66
	b	.LBB16_59
.LBB16_59:
.Ltmp461:
	.loc	2 1567 25 is_stmt 1             @ packages/umqtt-latest/src/umqtt.c:1567:25
	ldrb.w	r0, [sp, #86]
.Ltmp462:
	.loc	2 1567 17 is_stmt 0             @ packages/umqtt-latest/src/umqtt.c:1567:17
	cmp	r0, #7
	bne	.LBB16_63
	b	.LBB16_60
.LBB16_60:
	.loc	2 0 17                          @ packages/umqtt-latest/src/umqtt.c:0:17
	movs	r0, #0
.Ltmp463:
	.loc	2 1569 22 is_stmt 1             @ packages/umqtt-latest/src/umqtt.c:1569:22
	str	r0, [sp, #100]
	.loc	2 1570 17                       @ packages/umqtt-latest/src/umqtt.c:1570:17
	b	.LBB16_61
.LBB16_61:
.Ltmp464:
	.loc	2 1570 17 is_stmt 0             @ packages/umqtt-latest/src/umqtt.c:1570:17
	movw	r0, :lower16:.L.str.19
	movt	r0, :upper16:.L.str.19
	bl	rt_kprintf
	movw	r0, :lower16:.L.str.37
	movt	r0, :upper16:.L.str.37
	bl	rt_kprintf
	movw	r0, :lower16:.L.str.3
	movt	r0, :upper16:.L.str.3
	bl	rt_kprintf
	b	.LBB16_62
.Ltmp465:
.LBB16_62:
	.loc	2 1571 17 is_stmt 1             @ packages/umqtt-latest/src/umqtt.c:1571:17
	b	.LBB16_73
.Ltmp466:
.LBB16_63:
	.loc	2 0 17 is_stmt 0                @ packages/umqtt-latest/src/umqtt.c:0:17
	mvn	r0, #9
.Ltmp467:
	.loc	2 1575 22 is_stmt 1             @ packages/umqtt-latest/src/umqtt.c:1575:22
	str	r0, [sp, #100]
	.loc	2 1576 17                       @ packages/umqtt-latest/src/umqtt.c:1576:17
	b	.LBB16_64
.LBB16_64:
.Ltmp468:
	.loc	2 1576 17 is_stmt 0             @ packages/umqtt-latest/src/umqtt.c:1576:17
	movw	r0, :lower16:.L.str.1
	movt	r0, :upper16:.L.str.1
	bl	rt_kprintf
	ldrb.w	r1, [sp, #86]
	movw	r0, :lower16:.L.str.34
	movt	r0, :upper16:.L.str.34
	bl	rt_kprintf
	movw	r0, :lower16:.L.str.3
	movt	r0, :upper16:.L.str.3
	bl	rt_kprintf
	b	.LBB16_65
.Ltmp469:
.LBB16_65:
	.loc	2 1577 17 is_stmt 1             @ packages/umqtt-latest/src/umqtt.c:1577:17
	b	.LBB16_73
.Ltmp470:
.LBB16_66:                              @   in Loop: Header=BB16_50 Depth=1
	.loc	2 1582 17                       @ packages/umqtt-latest/src/umqtt.c:1582:17
	ldr	r0, [sp, #92]
	adds	r0, #1
	str	r0, [sp, #92]
.Ltmp471:
	.loc	2 1582 17 is_stmt 0             @ packages/umqtt-latest/src/umqtt.c:1582:17
	cmp	r0, #3
	blt	.LBB16_70
	b	.LBB16_67
.LBB16_67:
	.loc	2 0 17                          @ packages/umqtt-latest/src/umqtt.c:0:17
	mvn	r0, #9
.Ltmp472:
	.loc	2 1584 22 is_stmt 1             @ packages/umqtt-latest/src/umqtt.c:1584:22
	str	r0, [sp, #100]
	.loc	2 1585 17                       @ packages/umqtt-latest/src/umqtt.c:1585:17
	b	.LBB16_68
.LBB16_68:
.Ltmp473:
	.loc	2 1585 17 is_stmt 0             @ packages/umqtt-latest/src/umqtt.c:1585:17
	movw	r0, :lower16:.L.str.1
	movt	r0, :upper16:.L.str.1
	bl	rt_kprintf
	movw	r0, :lower16:.L.str.38
	movt	r0, :upper16:.L.str.38
	bl	rt_kprintf
	movw	r0, :lower16:.L.str.3
	movt	r0, :upper16:.L.str.3
	bl	rt_kprintf
	b	.LBB16_69
.Ltmp474:
.LBB16_69:
	.loc	2 1586 17 is_stmt 1             @ packages/umqtt-latest/src/umqtt.c:1586:17
	b	.LBB16_73
.Ltmp475:
.LBB16_70:                              @   in Loop: Header=BB16_50 Depth=1
	.loc	2 1590 17                       @ packages/umqtt-latest/src/umqtt.c:1590:17
	b	.LBB16_50
.Ltmp476:
.LBB16_71:
	.loc	2 0 17 is_stmt 0                @ packages/umqtt-latest/src/umqtt.c:0:17
	b	.LBB16_72
.LBB16_72:
	.loc	2 1470 16 is_stmt 1             @ packages/umqtt-latest/src/umqtt.c:1470:16
	b	.LBB16_73
.Ltmp477:
.LBB16_73:
	@DEBUG_LABEL: umqtt_publish:exit
	.loc	2 1597 12                       @ packages/umqtt-latest/src/umqtt.c:1597:12
	ldr	r0, [sp, #100]
	.loc	2 1597 5 is_stmt 0              @ packages/umqtt-latest/src/umqtt.c:1597:5
	add	sp, #120
	pop	{r7, pc}
.Ltmp478:
.Lfunc_end16:
	.size	umqtt_publish, .Lfunc_end16-umqtt_publish
	.cfi_endproc
	.cantunwind
	.fnend
                                        @ -- End function
	.section	.text.umqtt_subscribe,"ax",%progbits
	.hidden	umqtt_subscribe                 @ -- Begin function umqtt_subscribe
	.globl	umqtt_subscribe
	.p2align	3
	.type	umqtt_subscribe,%function
	.code	16                              @ @umqtt_subscribe
	.thumb_func
umqtt_subscribe:
.Lfunc_begin17:
	.loc	2 1612 0 is_stmt 1              @ packages/umqtt-latest/src/umqtt.c:1612:0
	.fnstart
	.cfi_startproc
@ %bb.0:
	.save	{r7, lr}
	push	{r7, lr}
	.cfi_def_cfa_offset 8
	.cfi_offset lr, -4
	.cfi_offset r7, -8
	.pad	#136
	sub	sp, #136
	.cfi_def_cfa_offset 144
                                        @ kill: def $r12 killed $r2
	str	r0, [sp, #132]
	str	r1, [sp, #128]
	strb.w	r2, [sp, #127]
	str	r3, [sp, #120]
	movs	r0, #0
.Ltmp479:
	.loc	2 1613 9 prologue_end           @ packages/umqtt-latest/src/umqtt.c:1613:9
	str	r0, [sp, #28]                   @ 4-byte Spill
	str	r0, [sp, #116]
	.loc	2 1614 9                        @ packages/umqtt-latest/src/umqtt.c:1614:9
	str	r0, [sp, #112]
	.loc	2 1615 9                        @ packages/umqtt-latest/src/umqtt.c:1615:9
	str	r0, [sp, #108]
	.loc	2 1616 33                       @ packages/umqtt-latest/src/umqtt.c:1616:33
	str	r0, [sp, #104]
	.loc	2 1617 16                       @ packages/umqtt-latest/src/umqtt.c:1617:16
	str	r0, [sp, #100]
	add	r0, sp, #36
	movs	r1, #64
	.loc	2 1618 22                       @ packages/umqtt-latest/src/umqtt.c:1618:22
	bl	__aeabi_memclr4
	ldr	r0, [sp, #28]                   @ 4-byte Reload
	.loc	2 1619 26                       @ packages/umqtt-latest/src/umqtt.c:1619:26
	str	r0, [sp, #32]
.Ltmp480:
	.loc	2 1621 5                        @ packages/umqtt-latest/src/umqtt.c:1621:5
	ldr	r0, [sp, #132]
.Ltmp481:
	.loc	2 1621 5 is_stmt 0              @ packages/umqtt-latest/src/umqtt.c:1621:5
	cbnz	r0, .LBB17_2
	b	.LBB17_1
.LBB17_1:
.Ltmp482:
	.loc	2 1621 5                        @ packages/umqtt-latest/src/umqtt.c:1621:5
	movw	r0, :lower16:.L.str.24
	movt	r0, :upper16:.L.str.24
	movw	r1, :lower16:.L__FUNCTION__.umqtt_subscribe
	movt	r1, :upper16:.L__FUNCTION__.umqtt_subscribe
	movw	r2, #1621
	bl	rt_assert_handler
	b	.LBB17_2
.Ltmp483:
.LBB17_2:
	.loc	2 1622 5 is_stmt 1              @ packages/umqtt-latest/src/umqtt.c:1622:5
	ldr	r0, [sp, #128]
.Ltmp484:
	.loc	2 1622 5 is_stmt 0              @ packages/umqtt-latest/src/umqtt.c:1622:5
	cbnz	r0, .LBB17_4
	b	.LBB17_3
.LBB17_3:
.Ltmp485:
	.loc	2 1622 5                        @ packages/umqtt-latest/src/umqtt.c:1622:5
	movw	r0, :lower16:.L.str.25
	movt	r0, :upper16:.L.str.25
	movw	r1, :lower16:.L__FUNCTION__.umqtt_subscribe
	movt	r1, :upper16:.L__FUNCTION__.umqtt_subscribe
	movw	r2, #1622
	bl	rt_assert_handler
	b	.LBB17_4
.Ltmp486:
.LBB17_4:
	.loc	2 1624 29 is_stmt 1             @ packages/umqtt-latest/src/umqtt.c:1624:29
	ldr	r0, [sp, #132]
	.loc	2 1624 37 is_stmt 0             @ packages/umqtt-latest/src/umqtt.c:1624:37
	adds	r0, #144
	.loc	2 1624 12                       @ packages/umqtt-latest/src/umqtt.c:1624:12
	bl	rt_list_isempty
	.loc	2 1624 10                       @ packages/umqtt-latest/src/umqtt.c:1624:10
	str	r0, [sp, #108]
.Ltmp487:
	.loc	2 1626 9 is_stmt 1              @ packages/umqtt-latest/src/umqtt.c:1626:9
	ldr	r0, [sp, #108]
.Ltmp488:
	.loc	2 1626 9 is_stmt 0              @ packages/umqtt-latest/src/umqtt.c:1626:9
	cbnz	r0, .LBB17_13
	b	.LBB17_5
.LBB17_5:
	.loc	2 0 9                           @ packages/umqtt-latest/src/umqtt.c:0:9
	movs	r0, #0
.Ltmp489:
	.loc	2 1628 14 is_stmt 1             @ packages/umqtt-latest/src/umqtt.c:1628:14
	str	r0, [sp, #108]
.Ltmp490:
	.loc	2 1629 9                        @ packages/umqtt-latest/src/umqtt.c:1629:9
	ldr	r0, [sp, #132]
	ldr.w	r0, [r0, #144]
	str	r0, [sp, #100]
	b	.LBB17_6
.LBB17_6:                               @ =>This Inner Loop Header: Depth=1
.Ltmp491:
	.loc	2 1629 9 is_stmt 0              @ packages/umqtt-latest/src/umqtt.c:1629:9
	ldr	r0, [sp, #100]
	ldr	r1, [sp, #132]
	adds	r1, #144
.Ltmp492:
	.loc	2 1629 9                        @ packages/umqtt-latest/src/umqtt.c:1629:9
	cmp	r0, r1
	beq	.LBB17_12
	b	.LBB17_7
.LBB17_7:                               @   in Loop: Header=BB17_6 Depth=1
.Ltmp493:
	.loc	2 1631 24 is_stmt 1             @ packages/umqtt-latest/src/umqtt.c:1631:24
	ldr	r0, [sp, #100]
	subs	r0, #12
	.loc	2 1631 22 is_stmt 0             @ packages/umqtt-latest/src/umqtt.c:1631:22
	str	r0, [sp, #104]
.Ltmp494:
	.loc	2 1632 17 is_stmt 1             @ packages/umqtt-latest/src/umqtt.c:1632:17
	ldr	r0, [sp, #104]
	.loc	2 1632 27 is_stmt 0             @ packages/umqtt-latest/src/umqtt.c:1632:27
	ldr	r0, [r0]
	.loc	2 1633 13 is_stmt 1             @ packages/umqtt-latest/src/umqtt.c:1633:13
	cbz	r0, .LBB17_10
	b	.LBB17_8
.LBB17_8:                               @   in Loop: Header=BB17_6 Depth=1
	.loc	2 1633 27 is_stmt 0             @ packages/umqtt-latest/src/umqtt.c:1633:27
	ldr	r0, [sp, #104]
	.loc	2 1633 37                       @ packages/umqtt-latest/src/umqtt.c:1633:37
	ldr	r0, [r0]
	.loc	2 1633 50                       @ packages/umqtt-latest/src/umqtt.c:1633:50
	ldr	r1, [sp, #128]
	.loc	2 1633 17                       @ packages/umqtt-latest/src/umqtt.c:1633:17
	bl	rt_strcmp
.Ltmp495:
	.loc	2 1632 17 is_stmt 1             @ packages/umqtt-latest/src/umqtt.c:1632:17
	cbnz	r0, .LBB17_10
	b	.LBB17_9
.LBB17_9:
.Ltmp496:
	.loc	2 1636 17                       @ packages/umqtt-latest/src/umqtt.c:1636:17
	b	.LBB17_40
.Ltmp497:
.LBB17_10:                              @   in Loop: Header=BB17_6 Depth=1
	.loc	2 1638 9                        @ packages/umqtt-latest/src/umqtt.c:1638:9
	b	.LBB17_11
.Ltmp498:
.LBB17_11:                              @   in Loop: Header=BB17_6 Depth=1
	.loc	2 1629 9                        @ packages/umqtt-latest/src/umqtt.c:1629:9
	ldr	r0, [sp, #100]
	ldr	r0, [r0]
	str	r0, [sp, #100]
	b	.LBB17_6
.Ltmp499:
.LBB17_12:
	.loc	2 1639 32                       @ packages/umqtt-latest/src/umqtt.c:1639:32
	ldr	r0, [sp, #132]
	.loc	2 1639 40 is_stmt 0             @ packages/umqtt-latest/src/umqtt.c:1639:40
	adds	r0, #144
	.loc	2 1639 19                       @ packages/umqtt-latest/src/umqtt.c:1639:19
	bl	rt_list_len
	.loc	2 1639 17                       @ packages/umqtt-latest/src/umqtt.c:1639:17
	str	r0, [sp, #112]
	.loc	2 1640 5 is_stmt 1              @ packages/umqtt-latest/src/umqtt.c:1640:5
	b	.LBB17_13
.Ltmp500:
.LBB17_13:
	.loc	2 1642 9                        @ packages/umqtt-latest/src/umqtt.c:1642:9
	ldr	r0, [sp, #112]
	.loc	2 1642 19 is_stmt 0             @ packages/umqtt-latest/src/umqtt.c:1642:19
	ldr	r1, [sp, #132]
	.loc	2 1642 27                       @ packages/umqtt-latest/src/umqtt.c:1642:27
	ldr.w	r1, [r1, #140]
.Ltmp501:
	.loc	2 1642 9                        @ packages/umqtt-latest/src/umqtt.c:1642:9
	cmp	r0, r1
	ble	.LBB17_17
	b	.LBB17_14
.LBB17_14:
	.loc	2 0 9                           @ packages/umqtt-latest/src/umqtt.c:0:9
	mvn	r0, #1
.Ltmp502:
	.loc	2 1644 14 is_stmt 1             @ packages/umqtt-latest/src/umqtt.c:1644:14
	str	r0, [sp, #116]
	.loc	2 1645 9                        @ packages/umqtt-latest/src/umqtt.c:1645:9
	b	.LBB17_15
.LBB17_15:
.Ltmp503:
	.loc	2 1645 9 is_stmt 0              @ packages/umqtt-latest/src/umqtt.c:1645:9
	movw	r0, :lower16:.L.str.1
	movt	r0, :upper16:.L.str.1
	bl	rt_kprintf
	ldr	r0, [sp, #132]
	ldr.w	r1, [r0, #140]
	ldr	r2, [sp, #112]
	movw	r0, :lower16:.L.str.39
	movt	r0, :upper16:.L.str.39
	bl	rt_kprintf
	movw	r0, :lower16:.L.str.3
	movt	r0, :upper16:.L.str.3
	bl	rt_kprintf
	b	.LBB17_16
.Ltmp504:
.LBB17_16:
	.loc	2 1646 9 is_stmt 1              @ packages/umqtt-latest/src/umqtt.c:1646:9
	b	.LBB17_40
.Ltmp505:
.LBB17_17:
	.loc	2 0 9 is_stmt 0                 @ packages/umqtt-latest/src/umqtt.c:0:9
	add	r0, sp, #36
	str	r0, [sp, #24]                   @ 4-byte Spill
	movs	r1, #0
	str	r1, [sp, #20]                   @ 4-byte Spill
	movs	r2, #64
.Ltmp506:
	.loc	2 1650 9 is_stmt 1              @ packages/umqtt-latest/src/umqtt.c:1650:9
	bl	rt_memset
	.loc	2 1651 36                       @ packages/umqtt-latest/src/umqtt.c:1651:36
	ldrb.w	r0, [sp, #36]
	and	r0, r0, #249
	adds	r0, #2
	strb.w	r0, [sp, #36]
	.loc	2 1652 64                       @ packages/umqtt-latest/src/umqtt.c:1652:64
	ldr	r0, [sp, #132]
	.loc	2 1652 46 is_stmt 0             @ packages/umqtt-latest/src/umqtt.c:1652:46
	bl	get_next_packetID
	.loc	2 1652 44                       @ packages/umqtt-latest/src/umqtt.c:1652:44
	strh.w	r0, [sp, #44]
	.loc	2 1653 65 is_stmt 1             @ packages/umqtt-latest/src/umqtt.c:1653:65
	ldr	r0, [sp, #128]
	.loc	2 1653 63 is_stmt 0             @ packages/umqtt-latest/src/umqtt.c:1653:63
	str	r0, [sp, #52]
	.loc	2 1654 70 is_stmt 1             @ packages/umqtt-latest/src/umqtt.c:1654:70
	ldr	r0, [sp, #128]
	.loc	2 1654 63 is_stmt 0             @ packages/umqtt-latest/src/umqtt.c:1654:63
	bl	strlen
	ldr	r1, [sp, #20]                   @ 4-byte Reload
	.loc	2 1654 61                       @ packages/umqtt-latest/src/umqtt.c:1654:61
	strh.w	r0, [sp, #48]
	.loc	2 1655 72 is_stmt 1             @ packages/umqtt-latest/src/umqtt.c:1655:72
	ldrb.w	r0, [sp, #127]
	.loc	2 1655 70 is_stmt 0             @ packages/umqtt-latest/src/umqtt.c:1655:70
	strb.w	r0, [sp, #56]
	movs	r0, #1
	.loc	2 1656 46 is_stmt 1             @ packages/umqtt-latest/src/umqtt.c:1656:46
	strb.w	r0, [sp, #96]
	.loc	2 1657 19                       @ packages/umqtt-latest/src/umqtt.c:1657:19
	ldr	r0, [sp, #132]
	.loc	2 1657 79 is_stmt 0             @ packages/umqtt-latest/src/umqtt.c:1657:79
	ldr	r2, [r0, #8]
	.loc	2 1657 27                       @ packages/umqtt-latest/src/umqtt.c:1657:27
	ldr	r0, [r0, #108]
	.loc	2 1657 9                        @ packages/umqtt-latest/src/umqtt.c:1657:9
	bl	rt_memset
	ldr	r3, [sp, #24]                   @ 4-byte Reload
	.loc	2 1658 54 is_stmt 1             @ packages/umqtt-latest/src/umqtt.c:1658:54
	ldr	r0, [sp, #132]
	.loc	2 1658 90 is_stmt 0             @ packages/umqtt-latest/src/umqtt.c:1658:90
	ldr	r2, [r0, #8]
	.loc	2 1658 62                       @ packages/umqtt-latest/src/umqtt.c:1658:62
	ldr	r1, [r0, #108]
	movs	r0, #8
	.loc	2 1658 19                       @ packages/umqtt-latest/src/umqtt.c:1658:19
	bl	umqtt_encode
	.loc	2 1658 17                       @ packages/umqtt-latest/src/umqtt.c:1658:17
	str	r0, [sp, #112]
.Ltmp507:
	.loc	2 1659 13 is_stmt 1             @ packages/umqtt-latest/src/umqtt.c:1659:13
	ldr	r0, [sp, #112]
.Ltmp508:
	.loc	2 1659 13 is_stmt 0             @ packages/umqtt-latest/src/umqtt.c:1659:13
	cmp	r0, #0
	bgt	.LBB17_21
	b	.LBB17_18
.LBB17_18:
	.loc	2 0 13                          @ packages/umqtt-latest/src/umqtt.c:0:13
	mvn	r0, #3
.Ltmp509:
	.loc	2 1661 18 is_stmt 1             @ packages/umqtt-latest/src/umqtt.c:1661:18
	str	r0, [sp, #116]
	.loc	2 1662 13                       @ packages/umqtt-latest/src/umqtt.c:1662:13
	b	.LBB17_19
.LBB17_19:
.Ltmp510:
	.loc	2 1662 13 is_stmt 0             @ packages/umqtt-latest/src/umqtt.c:1662:13
	movw	r0, :lower16:.L.str.1
	movt	r0, :upper16:.L.str.1
	bl	rt_kprintf
	ldr	r1, [sp, #128]
	movw	r0, :lower16:.L.str.17
	movt	r0, :upper16:.L.str.17
	bl	rt_kprintf
	movw	r0, :lower16:.L.str.3
	movt	r0, :upper16:.L.str.3
	bl	rt_kprintf
	b	.LBB17_20
.Ltmp511:
.LBB17_20:
	.loc	2 1663 13 is_stmt 1             @ packages/umqtt-latest/src/umqtt.c:1663:13
	b	.LBB17_40
.Ltmp512:
.LBB17_21:
	.loc	2 1665 28                       @ packages/umqtt-latest/src/umqtt.c:1665:28
	ldr	r0, [sp, #112]
	.loc	2 1665 9 is_stmt 0              @ packages/umqtt-latest/src/umqtt.c:1665:9
	ldr	r1, [sp, #132]
	.loc	2 1665 26                       @ packages/umqtt-latest/src/umqtt.c:1665:26
	str	r0, [r1, #116]
	.loc	2 1667 33 is_stmt 1             @ packages/umqtt-latest/src/umqtt.c:1667:33
	ldr	r2, [sp, #132]
	.loc	2 1667 41 is_stmt 0             @ packages/umqtt-latest/src/umqtt.c:1667:41
	ldr	r0, [r2]
	.loc	2 1667 101                      @ packages/umqtt-latest/src/umqtt.c:1667:101
	ldr	r3, [r2, #72]
	.loc	2 1667 55                       @ packages/umqtt-latest/src/umqtt.c:1667:55
	ldr	r1, [r2, #108]
	.loc	2 1667 73                       @ packages/umqtt-latest/src/umqtt.c:1667:73
	ldr	r2, [r2, #116]
	.loc	2 1667 16                       @ packages/umqtt-latest/src/umqtt.c:1667:16
	bl	umqtt_trans_send
	.loc	2 1667 14                       @ packages/umqtt-latest/src/umqtt.c:1667:14
	str	r0, [sp, #116]
.Ltmp513:
	.loc	2 1668 13 is_stmt 1             @ packages/umqtt-latest/src/umqtt.c:1668:13
	ldr	r0, [sp, #116]
.Ltmp514:
	.loc	2 1668 13 is_stmt 0             @ packages/umqtt-latest/src/umqtt.c:1668:13
	cmp.w	r0, #-1
	bgt	.LBB17_25
	b	.LBB17_22
.LBB17_22:
	.loc	2 0 13                          @ packages/umqtt-latest/src/umqtt.c:0:13
	mvn	r0, #6
.Ltmp515:
	.loc	2 1670 18 is_stmt 1             @ packages/umqtt-latest/src/umqtt.c:1670:18
	str	r0, [sp, #116]
	.loc	2 1671 13                       @ packages/umqtt-latest/src/umqtt.c:1671:13
	b	.LBB17_23
.LBB17_23:
.Ltmp516:
	.loc	2 1671 13 is_stmt 0             @ packages/umqtt-latest/src/umqtt.c:1671:13
	movw	r0, :lower16:.L.str.1
	movt	r0, :upper16:.L.str.1
	bl	rt_kprintf
	movw	r0, :lower16:.L.str.40
	movt	r0, :upper16:.L.str.40
	bl	rt_kprintf
	movw	r0, :lower16:.L.str.3
	movt	r0, :upper16:.L.str.3
	bl	rt_kprintf
	b	.LBB17_24
.Ltmp517:
.LBB17_24:
	.loc	2 1672 13 is_stmt 1             @ packages/umqtt-latest/src/umqtt.c:1672:13
	b	.LBB17_40
.Ltmp518:
.LBB17_25:
	.loc	2 1675 31                       @ packages/umqtt-latest/src/umqtt.c:1675:31
	ldr	r0, [sp, #132]
	movs	r1, #0
	.loc	2 1675 9 is_stmt 0              @ packages/umqtt-latest/src/umqtt.c:1675:9
	str	r1, [sp, #4]                    @ 4-byte Spill
	bl	set_uplink_recon_tick
	ldr	r1, [sp, #4]                    @ 4-byte Reload
	add	r0, sp, #32
	str	r0, [sp, #8]                    @ 4-byte Spill
	movs	r2, #4
	.loc	2 1677 9 is_stmt 1              @ packages/umqtt-latest/src/umqtt.c:1677:9
	str	r2, [sp, #12]                   @ 4-byte Spill
	bl	rt_memset
.Ltmp519:
	.loc	2 1678 34                       @ packages/umqtt-latest/src/umqtt.c:1678:34
	ldr	r1, [sp, #132]
	.loc	2 1680 76                       @ packages/umqtt-latest/src/umqtt.c:1680:76
	ldr	r0, [r1, #72]
	.loc	2 1678 42                       @ packages/umqtt-latest/src/umqtt.c:1678:42
	ldr.w	r1, [r1, #132]
	str	r1, [sp, #16]                   @ 4-byte Spill
	mov.w	r1, #1000
	.loc	2 1680 89                       @ packages/umqtt-latest/src/umqtt.c:1680:89
	muls	r0, r1, r0
	.loc	2 1680 33 is_stmt 0             @ packages/umqtt-latest/src/umqtt.c:1680:33
	bl	rt_tick_from_millisecond
	ldr	r1, [sp, #8]                    @ 4-byte Reload
	ldr	r2, [sp, #12]                   @ 4-byte Reload
	mov	r3, r0
	.loc	2 1678 23 is_stmt 1             @ packages/umqtt-latest/src/umqtt.c:1678:23
	ldr	r0, [sp, #16]                   @ 4-byte Reload
	bl	rt_mq_recv
.Ltmp520:
	.loc	2 1678 13 is_stmt 0             @ packages/umqtt-latest/src/umqtt.c:1678:13
	cmp	r0, #0
	bne	.LBB17_37
	b	.LBB17_26
.LBB17_26:
.Ltmp521:
	.loc	2 1682 25 is_stmt 1             @ packages/umqtt-latest/src/umqtt.c:1682:25
	ldrb.w	r0, [sp, #34]
.Ltmp522:
	.loc	2 1682 17 is_stmt 0             @ packages/umqtt-latest/src/umqtt.c:1682:17
	cmp	r0, #9
	bne	.LBB17_34
	b	.LBB17_27
.LBB17_27:
	.loc	2 0 17                          @ packages/umqtt-latest/src/umqtt.c:0:17
	movs	r0, #0
.Ltmp523:
	.loc	2 1684 26 is_stmt 1             @ packages/umqtt-latest/src/umqtt.c:1684:26
	str	r0, [sp, #104]
	movs	r0, #1
	movs	r1, #20
	.loc	2 1685 58                       @ packages/umqtt-latest/src/umqtt.c:1685:58
	bl	rt_calloc
	.loc	2 1685 26 is_stmt 0             @ packages/umqtt-latest/src/umqtt.c:1685:26
	str	r0, [sp, #104]
.Ltmp524:
	.loc	2 1686 17 is_stmt 1             @ packages/umqtt-latest/src/umqtt.c:1686:17
	ldr	r0, [sp, #104]
.Ltmp525:
	.loc	2 1686 17 is_stmt 0             @ packages/umqtt-latest/src/umqtt.c:1686:17
	cbnz	r0, .LBB17_29
	b	.LBB17_28
.LBB17_28:
.Ltmp526:
	.loc	2 1686 17                       @ packages/umqtt-latest/src/umqtt.c:1686:17
	movw	r0, :lower16:.L.str.41
	movt	r0, :upper16:.L.str.41
	movw	r1, :lower16:.L__FUNCTION__.umqtt_subscribe
	movt	r1, :upper16:.L__FUNCTION__.umqtt_subscribe
	movw	r2, #1686
	bl	rt_assert_handler
	b	.LBB17_29
.Ltmp527:
.LBB17_29:
	.loc	2 1688 51 is_stmt 1             @ packages/umqtt-latest/src/umqtt.c:1688:51
	ldr	r0, [sp, #128]
	.loc	2 1688 41 is_stmt 0             @ packages/umqtt-latest/src/umqtt.c:1688:41
	bl	rt_strdup
	.loc	2 1688 17                       @ packages/umqtt-latest/src/umqtt.c:1688:17
	ldr	r1, [sp, #104]
	.loc	2 1688 39                       @ packages/umqtt-latest/src/umqtt.c:1688:39
	str	r0, [r1]
	.loc	2 1689 33 is_stmt 1             @ packages/umqtt-latest/src/umqtt.c:1689:33
	ldrb.w	r0, [sp, #127]
	.loc	2 1689 17 is_stmt 0             @ packages/umqtt-latest/src/umqtt.c:1689:17
	ldr	r1, [sp, #104]
	.loc	2 1689 31                       @ packages/umqtt-latest/src/umqtt.c:1689:31
	strb	r0, [r1, #8]
.Ltmp528:
	.loc	2 1690 21 is_stmt 1             @ packages/umqtt-latest/src/umqtt.c:1690:21
	ldr	r0, [sp, #120]
.Ltmp529:
	.loc	2 1690 21 is_stmt 0             @ packages/umqtt-latest/src/umqtt.c:1690:21
	cbz	r0, .LBB17_31
	b	.LBB17_30
.LBB17_30:
.Ltmp530:
	.loc	2 1692 42 is_stmt 1             @ packages/umqtt-latest/src/umqtt.c:1692:42
	ldr	r0, [sp, #120]
	.loc	2 1692 21 is_stmt 0             @ packages/umqtt-latest/src/umqtt.c:1692:21
	ldr	r1, [sp, #104]
	.loc	2 1692 40                       @ packages/umqtt-latest/src/umqtt.c:1692:40
	str	r0, [r1, #4]
	.loc	2 1693 17 is_stmt 1             @ packages/umqtt-latest/src/umqtt.c:1693:17
	b	.LBB17_31
.Ltmp531:
.LBB17_31:
	.loc	2 1694 39                       @ packages/umqtt-latest/src/umqtt.c:1694:39
	ldr	r0, [sp, #132]
	.loc	2 1694 47 is_stmt 0             @ packages/umqtt-latest/src/umqtt.c:1694:47
	adds	r0, #144
	.loc	2 1694 63                       @ packages/umqtt-latest/src/umqtt.c:1694:63
	ldr	r1, [sp, #104]
	.loc	2 1694 73                       @ packages/umqtt-latest/src/umqtt.c:1694:73
	adds	r1, #12
	.loc	2 1694 17                       @ packages/umqtt-latest/src/umqtt.c:1694:17
	bl	rt_list_insert_after
	.loc	2 1695 39 is_stmt 1             @ packages/umqtt-latest/src/umqtt.c:1695:39
	ldr	r0, [sp, #132]
	movs	r1, #1
	.loc	2 1695 17 is_stmt 0             @ packages/umqtt-latest/src/umqtt.c:1695:17
	bl	set_uplink_recon_tick
	movs	r0, #0
	.loc	2 1697 22 is_stmt 1             @ packages/umqtt-latest/src/umqtt.c:1697:22
	str	r0, [sp, #116]
	.loc	2 1698 17                       @ packages/umqtt-latest/src/umqtt.c:1698:17
	b	.LBB17_32
.LBB17_32:
.Ltmp532:
	.loc	2 1698 17 is_stmt 0             @ packages/umqtt-latest/src/umqtt.c:1698:17
	movw	r0, :lower16:.L.str.19
	movt	r0, :upper16:.L.str.19
	bl	rt_kprintf
	movw	r0, :lower16:.L.str.42
	movt	r0, :upper16:.L.str.42
	bl	rt_kprintf
	movw	r0, :lower16:.L.str.3
	movt	r0, :upper16:.L.str.3
	bl	rt_kprintf
	b	.LBB17_33
.Ltmp533:
.LBB17_33:
	.loc	2 1699 17 is_stmt 1             @ packages/umqtt-latest/src/umqtt.c:1699:17
	b	.LBB17_40
.Ltmp534:
.LBB17_34:
	.loc	2 0 17 is_stmt 0                @ packages/umqtt-latest/src/umqtt.c:0:17
	mvn	r0, #9
.Ltmp535:
	.loc	2 1703 22 is_stmt 1             @ packages/umqtt-latest/src/umqtt.c:1703:22
	str	r0, [sp, #116]
	.loc	2 1704 17                       @ packages/umqtt-latest/src/umqtt.c:1704:17
	b	.LBB17_35
.LBB17_35:
.Ltmp536:
	.loc	2 1704 17 is_stmt 0             @ packages/umqtt-latest/src/umqtt.c:1704:17
	movw	r0, :lower16:.L.str.1
	movt	r0, :upper16:.L.str.1
	bl	rt_kprintf
	movw	r0, :lower16:.L.str.43
	movt	r0, :upper16:.L.str.43
	bl	rt_kprintf
	movw	r0, :lower16:.L.str.3
	movt	r0, :upper16:.L.str.3
	bl	rt_kprintf
	b	.LBB17_36
.Ltmp537:
.LBB17_36:
	.loc	2 1705 17 is_stmt 1             @ packages/umqtt-latest/src/umqtt.c:1705:17
	b	.LBB17_40
.Ltmp538:
.LBB17_37:
	.loc	2 0 17 is_stmt 0                @ packages/umqtt-latest/src/umqtt.c:0:17
	mvn	r0, #10
.Ltmp539:
	.loc	2 1710 18 is_stmt 1             @ packages/umqtt-latest/src/umqtt.c:1710:18
	str	r0, [sp, #116]
	.loc	2 1711 13                       @ packages/umqtt-latest/src/umqtt.c:1711:13
	b	.LBB17_38
.LBB17_38:
.Ltmp540:
	.loc	2 1711 13 is_stmt 0             @ packages/umqtt-latest/src/umqtt.c:1711:13
	movw	r0, :lower16:.L.str.1
	movt	r0, :upper16:.L.str.1
	bl	rt_kprintf
	ldr	r1, [sp, #128]
	movw	r0, :lower16:.L.str.44
	movt	r0, :upper16:.L.str.44
	bl	rt_kprintf
	movw	r0, :lower16:.L.str.3
	movt	r0, :upper16:.L.str.3
	bl	rt_kprintf
	b	.LBB17_39
.Ltmp541:
.LBB17_39:
	.loc	2 1712 13 is_stmt 1             @ packages/umqtt-latest/src/umqtt.c:1712:13
	b	.LBB17_40
.Ltmp542:
.LBB17_40:
	@DEBUG_LABEL: umqtt_subscribe:exit
	.loc	2 1717 12                       @ packages/umqtt-latest/src/umqtt.c:1717:12
	ldr	r0, [sp, #116]
	.loc	2 1717 5 is_stmt 0              @ packages/umqtt-latest/src/umqtt.c:1717:5
	add	sp, #136
	pop	{r7, pc}
.Ltmp543:
.Lfunc_end17:
	.size	umqtt_subscribe, .Lfunc_end17-umqtt_subscribe
	.cfi_endproc
	.cantunwind
	.fnend
                                        @ -- End function
	.section	.text.rt_list_len,"ax",%progbits
	.p2align	3                               @ -- Begin function rt_list_len
	.type	rt_list_len,%function
	.code	16                              @ @rt_list_len
	.thumb_func
rt_list_len:
.Lfunc_begin18:
	.loc	6 108 0 is_stmt 1               @ rt-thread/include\rtservice.h:108:0
	.fnstart
	.cfi_startproc
@ %bb.0:
	.pad	#12
	sub	sp, #12
	.cfi_def_cfa_offset 12
	str	r0, [sp, #8]
	movs	r0, #0
.Ltmp544:
	.loc	6 109 18 prologue_end           @ rt-thread/include\rtservice.h:109:18
	str	r0, [sp, #4]
	.loc	6 110 26                        @ rt-thread/include\rtservice.h:110:26
	ldr	r0, [sp, #8]
	.loc	6 110 22 is_stmt 0              @ rt-thread/include\rtservice.h:110:22
	str	r0, [sp]
	.loc	6 111 5 is_stmt 1               @ rt-thread/include\rtservice.h:111:5
	b	.LBB18_1
.LBB18_1:                               @ =>This Inner Loop Header: Depth=1
	.loc	6 111 12 is_stmt 0              @ rt-thread/include\rtservice.h:111:12
	ldr	r0, [sp]
	.loc	6 111 15                        @ rt-thread/include\rtservice.h:111:15
	ldr	r0, [r0]
	.loc	6 111 23                        @ rt-thread/include\rtservice.h:111:23
	ldr	r1, [sp, #8]
	.loc	6 111 5                         @ rt-thread/include\rtservice.h:111:5
	cmp	r0, r1
	beq	.LBB18_3
	b	.LBB18_2
.LBB18_2:                               @   in Loop: Header=BB18_1 Depth=1
.Ltmp545:
	.loc	6 113 13 is_stmt 1              @ rt-thread/include\rtservice.h:113:13
	ldr	r0, [sp]
	.loc	6 113 16 is_stmt 0              @ rt-thread/include\rtservice.h:113:16
	ldr	r0, [r0]
	.loc	6 113 11                        @ rt-thread/include\rtservice.h:113:11
	str	r0, [sp]
	.loc	6 114 13 is_stmt 1              @ rt-thread/include\rtservice.h:114:13
	ldr	r0, [sp, #4]
	adds	r0, #1
	str	r0, [sp, #4]
.Ltmp546:
	.loc	6 111 5                         @ rt-thread/include\rtservice.h:111:5
	b	.LBB18_1
.LBB18_3:
	.loc	6 117 12                        @ rt-thread/include\rtservice.h:117:12
	ldr	r0, [sp, #4]
	.loc	6 117 5 is_stmt 0               @ rt-thread/include\rtservice.h:117:5
	add	sp, #12
	bx	lr
.Ltmp547:
.Lfunc_end18:
	.size	rt_list_len, .Lfunc_end18-rt_list_len
	.cfi_endproc
	.cantunwind
	.fnend
                                        @ -- End function
	.section	.text.umqtt_unsubscribe,"ax",%progbits
	.hidden	umqtt_unsubscribe               @ -- Begin function umqtt_unsubscribe
	.globl	umqtt_unsubscribe
	.p2align	3
	.type	umqtt_unsubscribe,%function
	.code	16                              @ @umqtt_unsubscribe
	.thumb_func
umqtt_unsubscribe:
.Lfunc_begin19:
	.loc	2 1730 0 is_stmt 1              @ packages/umqtt-latest/src/umqtt.c:1730:0
	.fnstart
	.cfi_startproc
@ %bb.0:
	.save	{r7, lr}
	push	{r7, lr}
	.cfi_def_cfa_offset 8
	.cfi_offset lr, -4
	.cfi_offset r7, -8
	.pad	#136
	sub	sp, #136
	.cfi_def_cfa_offset 144
	str	r0, [sp, #132]
	str	r1, [sp, #128]
	movs	r0, #0
.Ltmp548:
	.loc	2 1731 9 prologue_end           @ packages/umqtt-latest/src/umqtt.c:1731:9
	str	r0, [sp, #32]                   @ 4-byte Spill
	str	r0, [sp, #124]
	.loc	2 1731 19 is_stmt 0             @ packages/umqtt-latest/src/umqtt.c:1731:19
	str	r0, [sp, #120]
	.loc	2 1731 29                       @ packages/umqtt-latest/src/umqtt.c:1731:29
	str	r0, [sp, #116]
	.loc	2 1732 33 is_stmt 1             @ packages/umqtt-latest/src/umqtt.c:1732:33
	str	r0, [sp, #112]
	.loc	2 1733 16                       @ packages/umqtt-latest/src/umqtt.c:1733:16
	str	r0, [sp, #108]
	.loc	2 1734 16                       @ packages/umqtt-latest/src/umqtt.c:1734:16
	str	r0, [sp, #104]
	add	r0, sp, #40
	movs	r1, #64
	.loc	2 1735 22                       @ packages/umqtt-latest/src/umqtt.c:1735:22
	bl	__aeabi_memclr4
	ldr	r0, [sp, #32]                   @ 4-byte Reload
	.loc	2 1736 26                       @ packages/umqtt-latest/src/umqtt.c:1736:26
	str	r0, [sp, #36]
.Ltmp549:
	.loc	2 1738 5                        @ packages/umqtt-latest/src/umqtt.c:1738:5
	ldr	r0, [sp, #132]
.Ltmp550:
	.loc	2 1738 5 is_stmt 0              @ packages/umqtt-latest/src/umqtt.c:1738:5
	cbnz	r0, .LBB19_2
	b	.LBB19_1
.LBB19_1:
.Ltmp551:
	.loc	2 1738 5                        @ packages/umqtt-latest/src/umqtt.c:1738:5
	movw	r0, :lower16:.L.str.24
	movt	r0, :upper16:.L.str.24
	movw	r1, :lower16:.L__FUNCTION__.umqtt_unsubscribe
	movt	r1, :upper16:.L__FUNCTION__.umqtt_unsubscribe
	movw	r2, #1738
	bl	rt_assert_handler
	b	.LBB19_2
.Ltmp552:
.LBB19_2:
	.loc	2 1739 5 is_stmt 1              @ packages/umqtt-latest/src/umqtt.c:1739:5
	ldr	r0, [sp, #128]
.Ltmp553:
	.loc	2 1739 5 is_stmt 0              @ packages/umqtt-latest/src/umqtt.c:1739:5
	cbnz	r0, .LBB19_4
	b	.LBB19_3
.LBB19_3:
.Ltmp554:
	.loc	2 1739 5                        @ packages/umqtt-latest/src/umqtt.c:1739:5
	movw	r0, :lower16:.L.str.25
	movt	r0, :upper16:.L.str.25
	movw	r1, :lower16:.L__FUNCTION__.umqtt_unsubscribe
	movt	r1, :upper16:.L__FUNCTION__.umqtt_unsubscribe
	movw	r2, #1739
	bl	rt_assert_handler
	b	.LBB19_4
.Ltmp555:
.LBB19_4:
	.loc	2 1740 25 is_stmt 1             @ packages/umqtt-latest/src/umqtt.c:1740:25
	ldr	r0, [sp, #132]
	.loc	2 1740 33 is_stmt 0             @ packages/umqtt-latest/src/umqtt.c:1740:33
	adds	r0, #144
	.loc	2 1740 12                       @ packages/umqtt-latest/src/umqtt.c:1740:12
	bl	rt_list_len
	.loc	2 1740 10                       @ packages/umqtt-latest/src/umqtt.c:1740:10
	str	r0, [sp, #120]
.Ltmp556:
	.loc	2 1742 9 is_stmt 1              @ packages/umqtt-latest/src/umqtt.c:1742:9
	ldr	r0, [sp, #120]
.Ltmp557:
	.loc	2 1742 9 is_stmt 0              @ packages/umqtt-latest/src/umqtt.c:1742:9
	cmp	r0, #1
	blt.w	.LBB19_33
	b	.LBB19_5
.LBB19_5:
.Ltmp558:
	.loc	2 1744 9 is_stmt 1              @ packages/umqtt-latest/src/umqtt.c:1744:9
	ldr	r0, [sp, #132]
	ldr.w	r0, [r0, #144]
	str	r0, [sp, #108]
	ldr	r0, [sp, #108]
	ldr	r0, [r0]
	str	r0, [sp, #104]
	b	.LBB19_6
.LBB19_6:                               @ =>This Inner Loop Header: Depth=1
.Ltmp559:
	.loc	2 1744 9 is_stmt 0              @ packages/umqtt-latest/src/umqtt.c:1744:9
	ldr	r0, [sp, #108]
	ldr	r1, [sp, #132]
	adds	r1, #144
.Ltmp560:
	.loc	2 1744 9                        @ packages/umqtt-latest/src/umqtt.c:1744:9
	cmp	r0, r1
	beq.w	.LBB19_32
	b	.LBB19_7
.LBB19_7:                               @   in Loop: Header=BB19_6 Depth=1
.Ltmp561:
	.loc	2 1746 24 is_stmt 1             @ packages/umqtt-latest/src/umqtt.c:1746:24
	ldr	r0, [sp, #108]
	subs	r0, #12
	.loc	2 1746 22 is_stmt 0             @ packages/umqtt-latest/src/umqtt.c:1746:22
	str	r0, [sp, #112]
	.loc	2 1747 17 is_stmt 1             @ packages/umqtt-latest/src/umqtt.c:1747:17
	ldr	r0, [sp, #120]
	subs	r0, #1
	str	r0, [sp, #120]
.Ltmp562:
	.loc	2 1748 17                       @ packages/umqtt-latest/src/umqtt.c:1748:17
	ldr	r0, [sp, #112]
	.loc	2 1748 27 is_stmt 0             @ packages/umqtt-latest/src/umqtt.c:1748:27
	ldr	r0, [r0]
	.loc	2 1749 13 is_stmt 1             @ packages/umqtt-latest/src/umqtt.c:1749:13
	cmp	r0, #0
	beq.w	.LBB19_30
	b	.LBB19_8
.LBB19_8:                               @   in Loop: Header=BB19_6 Depth=1
	.loc	2 1749 28 is_stmt 0             @ packages/umqtt-latest/src/umqtt.c:1749:28
	ldr	r0, [sp, #112]
	.loc	2 1749 38                       @ packages/umqtt-latest/src/umqtt.c:1749:38
	ldr	r0, [r0]
	.loc	2 1749 51                       @ packages/umqtt-latest/src/umqtt.c:1749:51
	str	r0, [sp, #28]                   @ 4-byte Spill
	ldr	r0, [sp, #128]
	.loc	2 1749 58                       @ packages/umqtt-latest/src/umqtt.c:1749:58
	str	r0, [sp, #24]                   @ 4-byte Spill
	bl	strlen
	ldr	r1, [sp, #24]                   @ 4-byte Reload
	mov	r2, r0
	.loc	2 1749 17                       @ packages/umqtt-latest/src/umqtt.c:1749:17
	ldr	r0, [sp, #28]                   @ 4-byte Reload
	bl	rt_strncmp
.Ltmp563:
	.loc	2 1748 17 is_stmt 1             @ packages/umqtt-latest/src/umqtt.c:1748:17
	cmp	r0, #0
	bne.w	.LBB19_30
	b	.LBB19_9
.LBB19_9:
	.loc	2 0 17 is_stmt 0                @ packages/umqtt-latest/src/umqtt.c:0:17
	add	r0, sp, #40
	str	r0, [sp, #20]                   @ 4-byte Spill
	movs	r1, #0
	movs	r2, #64
.Ltmp564:
	.loc	2 1751 17 is_stmt 1             @ packages/umqtt-latest/src/umqtt.c:1751:17
	bl	rt_memset
	.loc	2 1752 44                       @ packages/umqtt-latest/src/umqtt.c:1752:44
	ldrb.w	r0, [sp, #40]
	and	r0, r0, #249
	adds	r0, #2
	strb.w	r0, [sp, #40]
	.loc	2 1753 74                       @ packages/umqtt-latest/src/umqtt.c:1753:74
	ldr	r0, [sp, #132]
	.loc	2 1753 56 is_stmt 0             @ packages/umqtt-latest/src/umqtt.c:1753:56
	bl	get_next_packetID
	.loc	2 1753 54                       @ packages/umqtt-latest/src/umqtt.c:1753:54
	strh.w	r0, [sp, #48]
	movs	r0, #1
	.loc	2 1754 56 is_stmt 1             @ packages/umqtt-latest/src/umqtt.c:1754:56
	strb.w	r0, [sp, #84]
	.loc	2 1755 75                       @ packages/umqtt-latest/src/umqtt.c:1755:75
	ldr	r0, [sp, #128]
	.loc	2 1755 73 is_stmt 0             @ packages/umqtt-latest/src/umqtt.c:1755:73
	str	r0, [sp, #56]
	.loc	2 1756 80 is_stmt 1             @ packages/umqtt-latest/src/umqtt.c:1756:80
	ldr	r0, [sp, #128]
	.loc	2 1756 73 is_stmt 0             @ packages/umqtt-latest/src/umqtt.c:1756:73
	bl	strlen
	ldr	r3, [sp, #20]                   @ 4-byte Reload
	.loc	2 1756 71                       @ packages/umqtt-latest/src/umqtt.c:1756:71
	strh.w	r0, [sp, #52]
	.loc	2 1757 64 is_stmt 1             @ packages/umqtt-latest/src/umqtt.c:1757:64
	ldr	r0, [sp, #132]
	.loc	2 1757 100 is_stmt 0            @ packages/umqtt-latest/src/umqtt.c:1757:100
	ldr	r2, [r0, #8]
	.loc	2 1757 72                       @ packages/umqtt-latest/src/umqtt.c:1757:72
	ldr	r1, [r0, #108]
	movs	r0, #10
	.loc	2 1757 27                       @ packages/umqtt-latest/src/umqtt.c:1757:27
	bl	umqtt_encode
	.loc	2 1757 25                       @ packages/umqtt-latest/src/umqtt.c:1757:25
	str	r0, [sp, #116]
.Ltmp565:
	.loc	2 1758 21 is_stmt 1             @ packages/umqtt-latest/src/umqtt.c:1758:21
	ldr	r0, [sp, #116]
.Ltmp566:
	.loc	2 1758 21 is_stmt 0             @ packages/umqtt-latest/src/umqtt.c:1758:21
	cmp	r0, #0
	bgt	.LBB19_13
	b	.LBB19_10
.LBB19_10:
	.loc	2 0 21                          @ packages/umqtt-latest/src/umqtt.c:0:21
	mvn	r0, #3
.Ltmp567:
	.loc	2 1760 26 is_stmt 1             @ packages/umqtt-latest/src/umqtt.c:1760:26
	str	r0, [sp, #124]
	.loc	2 1761 21                       @ packages/umqtt-latest/src/umqtt.c:1761:21
	b	.LBB19_11
.LBB19_11:
.Ltmp568:
	.loc	2 1761 21 is_stmt 0             @ packages/umqtt-latest/src/umqtt.c:1761:21
	movw	r0, :lower16:.L.str.1
	movt	r0, :upper16:.L.str.1
	bl	rt_kprintf
	ldr	r1, [sp, #128]
	movw	r0, :lower16:.L.str.45
	movt	r0, :upper16:.L.str.45
	bl	rt_kprintf
	movw	r0, :lower16:.L.str.3
	movt	r0, :upper16:.L.str.3
	bl	rt_kprintf
	b	.LBB19_12
.Ltmp569:
.LBB19_12:
	.loc	2 1762 21 is_stmt 1             @ packages/umqtt-latest/src/umqtt.c:1762:21
	b	.LBB19_35
.Ltmp570:
.LBB19_13:
	.loc	2 1764 36                       @ packages/umqtt-latest/src/umqtt.c:1764:36
	ldr	r0, [sp, #116]
	.loc	2 1764 17 is_stmt 0             @ packages/umqtt-latest/src/umqtt.c:1764:17
	ldr	r1, [sp, #132]
	.loc	2 1764 34                       @ packages/umqtt-latest/src/umqtt.c:1764:34
	str	r0, [r1, #116]
	.loc	2 1766 41 is_stmt 1             @ packages/umqtt-latest/src/umqtt.c:1766:41
	ldr	r2, [sp, #132]
	.loc	2 1766 49 is_stmt 0             @ packages/umqtt-latest/src/umqtt.c:1766:49
	ldr	r0, [r2]
	.loc	2 1766 109                      @ packages/umqtt-latest/src/umqtt.c:1766:109
	ldr	r3, [r2, #72]
	.loc	2 1766 63                       @ packages/umqtt-latest/src/umqtt.c:1766:63
	ldr	r1, [r2, #108]
	.loc	2 1766 81                       @ packages/umqtt-latest/src/umqtt.c:1766:81
	ldr	r2, [r2, #116]
	.loc	2 1766 24                       @ packages/umqtt-latest/src/umqtt.c:1766:24
	bl	umqtt_trans_send
	.loc	2 1766 22                       @ packages/umqtt-latest/src/umqtt.c:1766:22
	str	r0, [sp, #124]
.Ltmp571:
	.loc	2 1767 21 is_stmt 1             @ packages/umqtt-latest/src/umqtt.c:1767:21
	ldr	r0, [sp, #124]
.Ltmp572:
	.loc	2 1767 21 is_stmt 0             @ packages/umqtt-latest/src/umqtt.c:1767:21
	cmp.w	r0, #-1
	bgt	.LBB19_17
	b	.LBB19_14
.LBB19_14:
	.loc	2 0 21                          @ packages/umqtt-latest/src/umqtt.c:0:21
	mvn	r0, #6
.Ltmp573:
	.loc	2 1769 26 is_stmt 1             @ packages/umqtt-latest/src/umqtt.c:1769:26
	str	r0, [sp, #124]
	.loc	2 1770 21                       @ packages/umqtt-latest/src/umqtt.c:1770:21
	b	.LBB19_15
.LBB19_15:
.Ltmp574:
	.loc	2 1770 21 is_stmt 0             @ packages/umqtt-latest/src/umqtt.c:1770:21
	movw	r0, :lower16:.L.str.1
	movt	r0, :upper16:.L.str.1
	bl	rt_kprintf
	movw	r0, :lower16:.L.str.46
	movt	r0, :upper16:.L.str.46
	bl	rt_kprintf
	movw	r0, :lower16:.L.str.3
	movt	r0, :upper16:.L.str.3
	bl	rt_kprintf
	b	.LBB19_16
.Ltmp575:
.LBB19_16:
	.loc	2 1771 21 is_stmt 1             @ packages/umqtt-latest/src/umqtt.c:1771:21
	b	.LBB19_35
.Ltmp576:
.LBB19_17:
	.loc	2 1774 39                       @ packages/umqtt-latest/src/umqtt.c:1774:39
	ldr	r0, [sp, #132]
	movs	r1, #0
	.loc	2 1774 17 is_stmt 0             @ packages/umqtt-latest/src/umqtt.c:1774:17
	str	r1, [sp, #4]                    @ 4-byte Spill
	bl	set_uplink_recon_tick
	ldr	r1, [sp, #4]                    @ 4-byte Reload
	add	r0, sp, #36
	str	r0, [sp, #8]                    @ 4-byte Spill
	movs	r2, #4
	.loc	2 1776 17 is_stmt 1             @ packages/umqtt-latest/src/umqtt.c:1776:17
	str	r2, [sp, #12]                   @ 4-byte Spill
	bl	rt_memset
.Ltmp577:
	.loc	2 1777 42                       @ packages/umqtt-latest/src/umqtt.c:1777:42
	ldr	r1, [sp, #132]
	.loc	2 1779 84                       @ packages/umqtt-latest/src/umqtt.c:1779:84
	ldr	r0, [r1, #72]
	.loc	2 1777 50                       @ packages/umqtt-latest/src/umqtt.c:1777:50
	ldr.w	r1, [r1, #132]
	str	r1, [sp, #16]                   @ 4-byte Spill
	mov.w	r1, #1000
	.loc	2 1779 97                       @ packages/umqtt-latest/src/umqtt.c:1779:97
	muls	r0, r1, r0
	.loc	2 1779 41 is_stmt 0             @ packages/umqtt-latest/src/umqtt.c:1779:41
	bl	rt_tick_from_millisecond
	ldr	r1, [sp, #8]                    @ 4-byte Reload
	ldr	r2, [sp, #12]                   @ 4-byte Reload
	mov	r3, r0
	.loc	2 1777 31 is_stmt 1             @ packages/umqtt-latest/src/umqtt.c:1777:31
	ldr	r0, [sp, #16]                   @ 4-byte Reload
	bl	rt_mq_recv
.Ltmp578:
	.loc	2 1777 21 is_stmt 0             @ packages/umqtt-latest/src/umqtt.c:1777:21
	cmp	r0, #0
	bne	.LBB19_27
	b	.LBB19_18
.LBB19_18:
.Ltmp579:
	.loc	2 1781 33 is_stmt 1             @ packages/umqtt-latest/src/umqtt.c:1781:33
	ldrb.w	r0, [sp, #38]
.Ltmp580:
	.loc	2 1781 25 is_stmt 0             @ packages/umqtt-latest/src/umqtt.c:1781:25
	cmp	r0, #11
	bne	.LBB19_24
	b	.LBB19_19
.LBB19_19:
.Ltmp581:
	.loc	2 1783 29 is_stmt 1             @ packages/umqtt-latest/src/umqtt.c:1783:29
	ldr	r0, [sp, #112]
	.loc	2 1783 39 is_stmt 0             @ packages/umqtt-latest/src/umqtt.c:1783:39
	ldr	r0, [r0]
.Ltmp582:
	.loc	2 1783 29                       @ packages/umqtt-latest/src/umqtt.c:1783:29
	cbz	r0, .LBB19_21
	b	.LBB19_20
.LBB19_20:
.Ltmp583:
	.loc	2 1784 37 is_stmt 1             @ packages/umqtt-latest/src/umqtt.c:1784:37
	ldr	r0, [sp, #112]
	.loc	2 1784 47 is_stmt 0             @ packages/umqtt-latest/src/umqtt.c:1784:47
	ldr	r0, [r0]
	.loc	2 1784 29                       @ packages/umqtt-latest/src/umqtt.c:1784:29
	bl	rt_free
	.loc	2 1785 29 is_stmt 1             @ packages/umqtt-latest/src/umqtt.c:1785:29
	ldr	r1, [sp, #112]
	movs	r0, #0
	.loc	2 1785 51 is_stmt 0             @ packages/umqtt-latest/src/umqtt.c:1785:51
	str	r0, [r1]
	.loc	2 1786 25 is_stmt 1             @ packages/umqtt-latest/src/umqtt.c:1786:25
	b	.LBB19_21
.Ltmp584:
.LBB19_21:
	.loc	2 1787 25                       @ packages/umqtt-latest/src/umqtt.c:1787:25
	ldr	r1, [sp, #112]
	movs	r0, #0
	.loc	2 1787 44 is_stmt 0             @ packages/umqtt-latest/src/umqtt.c:1787:44
	str	r0, [sp]                        @ 4-byte Spill
	str	r0, [r1, #4]
	.loc	2 1788 42 is_stmt 1             @ packages/umqtt-latest/src/umqtt.c:1788:42
	ldr	r0, [sp, #112]
	.loc	2 1788 52 is_stmt 0             @ packages/umqtt-latest/src/umqtt.c:1788:52
	adds	r0, #12
	.loc	2 1788 25                       @ packages/umqtt-latest/src/umqtt.c:1788:25
	bl	rt_list_remove
	.loc	2 1789 33 is_stmt 1             @ packages/umqtt-latest/src/umqtt.c:1789:33
	ldr	r0, [sp, #112]
	.loc	2 1789 25 is_stmt 0             @ packages/umqtt-latest/src/umqtt.c:1789:25
	bl	rt_free
	ldr	r0, [sp]                        @ 4-byte Reload
	.loc	2 1789 53                       @ packages/umqtt-latest/src/umqtt.c:1789:53
	str	r0, [sp, #112]
	.loc	2 1790 47 is_stmt 1             @ packages/umqtt-latest/src/umqtt.c:1790:47
	ldr	r0, [sp, #132]
	movs	r1, #1
	.loc	2 1790 25 is_stmt 0             @ packages/umqtt-latest/src/umqtt.c:1790:25
	bl	set_uplink_recon_tick
	ldr	r0, [sp]                        @ 4-byte Reload
	.loc	2 1792 30 is_stmt 1             @ packages/umqtt-latest/src/umqtt.c:1792:30
	str	r0, [sp, #124]
	.loc	2 1793 25                       @ packages/umqtt-latest/src/umqtt.c:1793:25
	b	.LBB19_22
.LBB19_22:
.Ltmp585:
	.loc	2 1793 25 is_stmt 0             @ packages/umqtt-latest/src/umqtt.c:1793:25
	movw	r0, :lower16:.L.str.19
	movt	r0, :upper16:.L.str.19
	bl	rt_kprintf
	movw	r0, :lower16:.L.str.47
	movt	r0, :upper16:.L.str.47
	bl	rt_kprintf
	movw	r0, :lower16:.L.str.3
	movt	r0, :upper16:.L.str.3
	bl	rt_kprintf
	b	.LBB19_23
.Ltmp586:
.LBB19_23:
	.loc	2 1794 25 is_stmt 1             @ packages/umqtt-latest/src/umqtt.c:1794:25
	b	.LBB19_35
.Ltmp587:
.LBB19_24:
	.loc	2 0 25 is_stmt 0                @ packages/umqtt-latest/src/umqtt.c:0:25
	mvn	r0, #9
.Ltmp588:
	.loc	2 1798 30 is_stmt 1             @ packages/umqtt-latest/src/umqtt.c:1798:30
	str	r0, [sp, #124]
	.loc	2 1799 25                       @ packages/umqtt-latest/src/umqtt.c:1799:25
	b	.LBB19_25
.LBB19_25:
.Ltmp589:
	.loc	2 1799 25 is_stmt 0             @ packages/umqtt-latest/src/umqtt.c:1799:25
	movw	r0, :lower16:.L.str.1
	movt	r0, :upper16:.L.str.1
	bl	rt_kprintf
	movw	r0, :lower16:.L.str.48
	movt	r0, :upper16:.L.str.48
	bl	rt_kprintf
	movw	r0, :lower16:.L.str.3
	movt	r0, :upper16:.L.str.3
	bl	rt_kprintf
	b	.LBB19_26
.Ltmp590:
.LBB19_26:
	.loc	2 1800 25 is_stmt 1             @ packages/umqtt-latest/src/umqtt.c:1800:25
	b	.LBB19_35
.Ltmp591:
.LBB19_27:
	.loc	2 0 25 is_stmt 0                @ packages/umqtt-latest/src/umqtt.c:0:25
	mvn	r0, #2
.Ltmp592:
	.loc	2 1805 26 is_stmt 1             @ packages/umqtt-latest/src/umqtt.c:1805:26
	str	r0, [sp, #124]
	.loc	2 1806 21                       @ packages/umqtt-latest/src/umqtt.c:1806:21
	b	.LBB19_28
.LBB19_28:
.Ltmp593:
	.loc	2 1806 21 is_stmt 0             @ packages/umqtt-latest/src/umqtt.c:1806:21
	movw	r0, :lower16:.L.str.1
	movt	r0, :upper16:.L.str.1
	bl	rt_kprintf
	ldr	r1, [sp, #128]
	movw	r0, :lower16:.L.str.49
	movt	r0, :upper16:.L.str.49
	bl	rt_kprintf
	movw	r0, :lower16:.L.str.3
	movt	r0, :upper16:.L.str.3
	bl	rt_kprintf
	b	.LBB19_29
.Ltmp594:
.LBB19_29:
	.loc	2 1807 21 is_stmt 1             @ packages/umqtt-latest/src/umqtt.c:1807:21
	b	.LBB19_35
.Ltmp595:
.LBB19_30:                              @   in Loop: Header=BB19_6 Depth=1
	.loc	2 1810 9                        @ packages/umqtt-latest/src/umqtt.c:1810:9
	b	.LBB19_31
.Ltmp596:
.LBB19_31:                              @   in Loop: Header=BB19_6 Depth=1
	.loc	2 1744 9                        @ packages/umqtt-latest/src/umqtt.c:1744:9
	ldr	r0, [sp, #104]
	str	r0, [sp, #108]
	ldr	r0, [sp, #108]
	ldr	r0, [r0]
	str	r0, [sp, #104]
	b	.LBB19_6
.Ltmp597:
.LBB19_32:
	.loc	2 1812 5                        @ packages/umqtt-latest/src/umqtt.c:1812:5
	b	.LBB19_34
.Ltmp598:
.LBB19_33:
	.loc	2 0 5 is_stmt 0                 @ packages/umqtt-latest/src/umqtt.c:0:5
	b	.LBB19_34
.LBB19_34:
	.loc	2 1742 16 is_stmt 1             @ packages/umqtt-latest/src/umqtt.c:1742:16
	b	.LBB19_35
.Ltmp599:
.LBB19_35:
	@DEBUG_LABEL: umqtt_unsubscribe:exit
	.loc	2 1819 12                       @ packages/umqtt-latest/src/umqtt.c:1819:12
	ldr	r0, [sp, #124]
	.loc	2 1819 5 is_stmt 0              @ packages/umqtt-latest/src/umqtt.c:1819:5
	add	sp, #136
	pop	{r7, pc}
.Ltmp600:
.Lfunc_end19:
	.size	umqtt_unsubscribe, .Lfunc_end19-umqtt_unsubscribe
	.cfi_endproc
	.cantunwind
	.fnend
                                        @ -- End function
	.section	.text.umqtt_publish_async,"ax",%progbits
	.hidden	umqtt_publish_async             @ -- Begin function umqtt_publish_async
	.globl	umqtt_publish_async
	.p2align	3
	.type	umqtt_publish_async,%function
	.code	16                              @ @umqtt_publish_async
	.thumb_func
umqtt_publish_async:
.Lfunc_begin20:
	.loc	2 1836 0 is_stmt 1              @ packages/umqtt-latest/src/umqtt.c:1836:0
	.fnstart
	.cfi_startproc
@ %bb.0:
	.save	{r7, lr}
	push	{r7, lr}
	.cfi_def_cfa_offset 8
	.cfi_offset lr, -4
	.cfi_offset r7, -8
	.pad	#96
	sub	sp, #96
	.cfi_def_cfa_offset 104
	ldr.w	r12, [sp, #104]
                                        @ kill: def $r12 killed $r1
	str	r0, [sp, #92]
	strb.w	r1, [sp, #91]
	str	r2, [sp, #84]
	str	r3, [sp, #80]
	movs	r0, #0
.Ltmp601:
	.loc	2 1837 9 prologue_end           @ packages/umqtt-latest/src/umqtt.c:1837:9
	str	r0, [sp, #76]
	.loc	2 1837 19 is_stmt 0             @ packages/umqtt-latest/src/umqtt.c:1837:19
	str	r0, [sp, #72]
	.loc	2 1838 17 is_stmt 1             @ packages/umqtt-latest/src/umqtt.c:1838:17
	strh.w	r0, [sp, #70]
	add	r0, sp, #4
	movs	r1, #64
	.loc	2 1839 22                       @ packages/umqtt-latest/src/umqtt.c:1839:22
	bl	__aeabi_memclr4
.Ltmp602:
	.loc	2 1841 5                        @ packages/umqtt-latest/src/umqtt.c:1841:5
	ldr	r0, [sp, #92]
.Ltmp603:
	.loc	2 1841 5 is_stmt 0              @ packages/umqtt-latest/src/umqtt.c:1841:5
	cbnz	r0, .LBB20_2
	b	.LBB20_1
.LBB20_1:
.Ltmp604:
	.loc	2 1841 5                        @ packages/umqtt-latest/src/umqtt.c:1841:5
	movw	r0, :lower16:.L.str.24
	movt	r0, :upper16:.L.str.24
	movw	r1, :lower16:.L__FUNCTION__.umqtt_publish_async
	movt	r1, :upper16:.L__FUNCTION__.umqtt_publish_async
	movw	r2, #1841
	bl	rt_assert_handler
	b	.LBB20_2
.Ltmp605:
.LBB20_2:
	.loc	2 1842 5 is_stmt 1              @ packages/umqtt-latest/src/umqtt.c:1842:5
	ldr	r0, [sp, #84]
.Ltmp606:
	.loc	2 1842 5 is_stmt 0              @ packages/umqtt-latest/src/umqtt.c:1842:5
	cbnz	r0, .LBB20_4
	b	.LBB20_3
.LBB20_3:
.Ltmp607:
	.loc	2 1842 5                        @ packages/umqtt-latest/src/umqtt.c:1842:5
	movw	r0, :lower16:.L.str.25
	movt	r0, :upper16:.L.str.25
	movw	r1, :lower16:.L__FUNCTION__.umqtt_publish_async
	movt	r1, :upper16:.L__FUNCTION__.umqtt_publish_async
	movw	r2, #1842
	bl	rt_assert_handler
	b	.LBB20_4
.Ltmp608:
.LBB20_4:
	.loc	2 1843 5 is_stmt 1              @ packages/umqtt-latest/src/umqtt.c:1843:5
	ldr	r0, [sp, #80]
.Ltmp609:
	.loc	2 1843 5 is_stmt 0              @ packages/umqtt-latest/src/umqtt.c:1843:5
	cbnz	r0, .LBB20_6
	b	.LBB20_5
.LBB20_5:
.Ltmp610:
	.loc	2 1843 5                        @ packages/umqtt-latest/src/umqtt.c:1843:5
	movw	r0, :lower16:.L.str.26
	movt	r0, :upper16:.L.str.26
	movw	r1, :lower16:.L__FUNCTION__.umqtt_publish_async
	movt	r1, :upper16:.L__FUNCTION__.umqtt_publish_async
	movw	r2, #1843
	bl	rt_assert_handler
	b	.LBB20_6
.Ltmp611:
.LBB20_6:
	.loc	2 1844 5 is_stmt 1              @ packages/umqtt-latest/src/umqtt.c:1844:5
	ldr	r0, [sp, #104]
.Ltmp612:
	.loc	2 1844 5 is_stmt 0              @ packages/umqtt-latest/src/umqtt.c:1844:5
	cbnz	r0, .LBB20_8
	b	.LBB20_7
.LBB20_7:
.Ltmp613:
	.loc	2 1844 5                        @ packages/umqtt-latest/src/umqtt.c:1844:5
	movw	r0, :lower16:.L.str.27
	movt	r0, :upper16:.L.str.27
	movw	r1, :lower16:.L__FUNCTION__.umqtt_publish_async
	movt	r1, :upper16:.L__FUNCTION__.umqtt_publish_async
	movw	r2, #1844
	bl	rt_assert_handler
	b	.LBB20_8
.Ltmp614:
.LBB20_8:
	.loc	2 1846 19 is_stmt 1             @ packages/umqtt-latest/src/umqtt.c:1846:19
	ldrb.w	r0, [sp, #91]
	.loc	2 1846 18 is_stmt 0             @ packages/umqtt-latest/src/umqtt.c:1846:18
	cbnz	r0, .LBB20_10
	b	.LBB20_9
.LBB20_9:
	.loc	2 0 18                          @ packages/umqtt-latest/src/umqtt.c:0:18
	movs	r0, #0
	.loc	2 1846 18                       @ packages/umqtt-latest/src/umqtt.c:1846:18
	str	r0, [sp]                        @ 4-byte Spill
	b	.LBB20_11
.LBB20_10:
	.loc	2 1846 62                       @ packages/umqtt-latest/src/umqtt.c:1846:62
	ldr	r0, [sp, #92]
	.loc	2 1846 44                       @ packages/umqtt-latest/src/umqtt.c:1846:44
	bl	get_next_packetID
	.loc	2 1846 18                       @ packages/umqtt-latest/src/umqtt.c:1846:18
	str	r0, [sp]                        @ 4-byte Spill
	b	.LBB20_11
.LBB20_11:
	ldr	r0, [sp]                        @ 4-byte Reload
	.loc	2 1846 15                       @ packages/umqtt-latest/src/umqtt.c:1846:15
	strh.w	r0, [sp, #70]
	.loc	2 1848 34 is_stmt 1             @ packages/umqtt-latest/src/umqtt.c:1848:34
	ldrb.w	r1, [sp, #91]
	.loc	2 1848 32 is_stmt 0             @ packages/umqtt-latest/src/umqtt.c:1848:32
	ldrb.w	r0, [sp, #4]
	and	r1, r1, #3
	and	r0, r0, #249
	orr.w	r0, r0, r1, lsl #1
	strb.w	r0, [sp, #4]
	.loc	2 1849 32 is_stmt 1             @ packages/umqtt-latest/src/umqtt.c:1849:32
	ldrb.w	r0, [sp, #4]
	and	r0, r0, #247
	strb.w	r0, [sp, #4]
	.loc	2 1850 40                       @ packages/umqtt-latest/src/umqtt.c:1850:40
	ldrh.w	r0, [sp, #70]
	.loc	2 1850 38 is_stmt 0             @ packages/umqtt-latest/src/umqtt.c:1850:38
	strh.w	r0, [sp, #20]
	.loc	2 1851 38 is_stmt 1             @ packages/umqtt-latest/src/umqtt.c:1851:38
	ldr	r0, [sp, #80]
	.loc	2 1851 36 is_stmt 0             @ packages/umqtt-latest/src/umqtt.c:1851:36
	str	r0, [sp, #24]
	.loc	2 1852 42 is_stmt 1             @ packages/umqtt-latest/src/umqtt.c:1852:42
	ldr	r0, [sp, #104]
	.loc	2 1852 40 is_stmt 0             @ packages/umqtt-latest/src/umqtt.c:1852:40
	str	r0, [sp, #28]
	.loc	2 1853 41 is_stmt 1             @ packages/umqtt-latest/src/umqtt.c:1853:41
	ldr	r0, [sp, #84]
	.loc	2 1853 39 is_stmt 0             @ packages/umqtt-latest/src/umqtt.c:1853:39
	str	r0, [sp, #16]
	.loc	2 1854 52 is_stmt 1             @ packages/umqtt-latest/src/umqtt.c:1854:52
	ldr	r0, [sp, #84]
	.loc	2 1854 45 is_stmt 0             @ packages/umqtt-latest/src/umqtt.c:1854:45
	bl	strlen
	.loc	2 1854 43                       @ packages/umqtt-latest/src/umqtt.c:1854:43
	strh.w	r0, [sp, #12]
	.loc	2 1855 48 is_stmt 1             @ packages/umqtt-latest/src/umqtt.c:1855:48
	ldr	r0, [sp, #92]
	.loc	2 1855 84 is_stmt 0             @ packages/umqtt-latest/src/umqtt.c:1855:84
	ldr	r2, [r0, #8]
	.loc	2 1855 56                       @ packages/umqtt-latest/src/umqtt.c:1855:56
	ldr	r1, [r0, #108]
	movs	r0, #3
	add	r3, sp, #4
	.loc	2 1855 15                       @ packages/umqtt-latest/src/umqtt.c:1855:15
	bl	umqtt_encode
	.loc	2 1855 13                       @ packages/umqtt-latest/src/umqtt.c:1855:13
	str	r0, [sp, #72]
.Ltmp615:
	.loc	2 1856 9 is_stmt 1              @ packages/umqtt-latest/src/umqtt.c:1856:9
	ldr	r0, [sp, #72]
.Ltmp616:
	.loc	2 1856 9 is_stmt 0              @ packages/umqtt-latest/src/umqtt.c:1856:9
	cmp	r0, #0
	bgt	.LBB20_15
	b	.LBB20_12
.LBB20_12:
	.loc	2 0 9                           @ packages/umqtt-latest/src/umqtt.c:0:9
	mvn	r0, #3
.Ltmp617:
	.loc	2 1858 14 is_stmt 1             @ packages/umqtt-latest/src/umqtt.c:1858:14
	str	r0, [sp, #76]
	.loc	2 1859 9                        @ packages/umqtt-latest/src/umqtt.c:1859:9
	b	.LBB20_13
.LBB20_13:
.Ltmp618:
	.loc	2 1859 9 is_stmt 0              @ packages/umqtt-latest/src/umqtt.c:1859:9
	movw	r0, :lower16:.L.str.1
	movt	r0, :upper16:.L.str.1
	bl	rt_kprintf
	ldr	r1, [sp, #84]
	movw	r0, :lower16:.L.str.28
	movt	r0, :upper16:.L.str.28
	bl	rt_kprintf
	movw	r0, :lower16:.L.str.3
	movt	r0, :upper16:.L.str.3
	bl	rt_kprintf
	b	.LBB20_14
.Ltmp619:
.LBB20_14:
	.loc	2 1860 9 is_stmt 1              @ packages/umqtt-latest/src/umqtt.c:1860:9
	b	.LBB20_20
.Ltmp620:
.LBB20_15:
	.loc	2 1862 24                       @ packages/umqtt-latest/src/umqtt.c:1862:24
	ldr	r0, [sp, #72]
	.loc	2 1862 5 is_stmt 0              @ packages/umqtt-latest/src/umqtt.c:1862:5
	ldr	r1, [sp, #92]
	.loc	2 1862 22                       @ packages/umqtt-latest/src/umqtt.c:1862:22
	str	r0, [r1, #116]
	.loc	2 1864 29 is_stmt 1             @ packages/umqtt-latest/src/umqtt.c:1864:29
	ldr	r2, [sp, #92]
	.loc	2 1864 37 is_stmt 0             @ packages/umqtt-latest/src/umqtt.c:1864:37
	ldr	r0, [r2]
	.loc	2 1864 97                       @ packages/umqtt-latest/src/umqtt.c:1864:97
	ldr	r3, [r2, #72]
	.loc	2 1864 51                       @ packages/umqtt-latest/src/umqtt.c:1864:51
	ldr	r1, [r2, #108]
	.loc	2 1864 69                       @ packages/umqtt-latest/src/umqtt.c:1864:69
	ldr	r2, [r2, #116]
	.loc	2 1864 12                       @ packages/umqtt-latest/src/umqtt.c:1864:12
	bl	umqtt_trans_send
	.loc	2 1864 10                       @ packages/umqtt-latest/src/umqtt.c:1864:10
	str	r0, [sp, #76]
.Ltmp621:
	.loc	2 1865 9 is_stmt 1              @ packages/umqtt-latest/src/umqtt.c:1865:9
	ldr	r0, [sp, #76]
.Ltmp622:
	.loc	2 1865 9 is_stmt 0              @ packages/umqtt-latest/src/umqtt.c:1865:9
	cmp.w	r0, #-1
	bgt	.LBB20_19
	b	.LBB20_16
.LBB20_16:
	.loc	2 0 9                           @ packages/umqtt-latest/src/umqtt.c:0:9
	mvn	r0, #6
.Ltmp623:
	.loc	2 1867 14 is_stmt 1             @ packages/umqtt-latest/src/umqtt.c:1867:14
	str	r0, [sp, #76]
	.loc	2 1868 9                        @ packages/umqtt-latest/src/umqtt.c:1868:9
	b	.LBB20_17
.LBB20_17:
.Ltmp624:
	.loc	2 1868 9 is_stmt 0              @ packages/umqtt-latest/src/umqtt.c:1868:9
	movw	r0, :lower16:.L.str.1
	movt	r0, :upper16:.L.str.1
	bl	rt_kprintf
	movw	r0, :lower16:.L.str.29
	movt	r0, :upper16:.L.str.29
	bl	rt_kprintf
	movw	r0, :lower16:.L.str.3
	movt	r0, :upper16:.L.str.3
	bl	rt_kprintf
	b	.LBB20_18
.Ltmp625:
.LBB20_18:
	.loc	2 1869 9 is_stmt 1              @ packages/umqtt-latest/src/umqtt.c:1869:9
	b	.LBB20_20
.Ltmp626:
.LBB20_19:
	.loc	2 1872 27                       @ packages/umqtt-latest/src/umqtt.c:1872:27
	ldr	r0, [sp, #92]
	movs	r1, #0
	.loc	2 1872 5 is_stmt 0              @ packages/umqtt-latest/src/umqtt.c:1872:5
	bl	set_uplink_recon_tick
	.loc	2 1873 27 is_stmt 1             @ packages/umqtt-latest/src/umqtt.c:1873:27
	ldr	r0, [sp, #92]
	movs	r1, #1
	.loc	2 1873 5 is_stmt 0              @ packages/umqtt-latest/src/umqtt.c:1873:5
	bl	set_uplink_recon_tick
	b	.LBB20_20
.LBB20_20:
.Ltmp627:
	@DEBUG_LABEL: umqtt_publish_async:exit
	.loc	2 1875 12 is_stmt 1             @ packages/umqtt-latest/src/umqtt.c:1875:12
	ldr	r0, [sp, #76]
	.loc	2 1875 5 is_stmt 0              @ packages/umqtt-latest/src/umqtt.c:1875:5
	add	sp, #96
	pop	{r7, pc}
.Ltmp628:
.Lfunc_end20:
	.size	umqtt_publish_async, .Lfunc_end20-umqtt_publish_async
	.cfi_endproc
	.cantunwind
	.fnend
                                        @ -- End function
	.section	.text.umqtt_control,"ax",%progbits
	.hidden	umqtt_control                   @ -- Begin function umqtt_control
	.globl	umqtt_control
	.p2align	3
	.type	umqtt_control,%function
	.code	16                              @ @umqtt_control
	.thumb_func
umqtt_control:
.Lfunc_begin21:
	.loc	2 1887 0 is_stmt 1              @ packages/umqtt-latest/src/umqtt.c:1887:0
	.fnstart
	.cfi_startproc
@ %bb.0:
	.save	{r7, lr}
	push	{r7, lr}
	.cfi_def_cfa_offset 8
	.cfi_offset lr, -4
	.cfi_offset r7, -8
	.pad	#48
	sub	sp, #48
	.cfi_def_cfa_offset 56
                                        @ kill: def $r3 killed $r1
	str	r0, [sp, #40]
	strb.w	r1, [sp, #39]
	str	r2, [sp, #32]
	movs	r0, #0
.Ltmp629:
	.loc	2 1888 33 prologue_end          @ packages/umqtt-latest/src/umqtt.c:1888:33
	str	r0, [sp, #28]
	.loc	2 1889 16                       @ packages/umqtt-latest/src/umqtt.c:1889:16
	str	r0, [sp, #24]
	.loc	2 1890 11                       @ packages/umqtt-latest/src/umqtt.c:1890:11
	str	r0, [sp, #20]
	.loc	2 1891 9                        @ packages/umqtt-latest/src/umqtt.c:1891:9
	str	r0, [sp, #16]
.Ltmp630:
	.loc	2 1892 5                        @ packages/umqtt-latest/src/umqtt.c:1892:5
	ldr	r0, [sp, #40]
.Ltmp631:
	.loc	2 1892 5 is_stmt 0              @ packages/umqtt-latest/src/umqtt.c:1892:5
	cbnz	r0, .LBB21_2
	b	.LBB21_1
.LBB21_1:
.Ltmp632:
	.loc	2 1892 5                        @ packages/umqtt-latest/src/umqtt.c:1892:5
	movw	r0, :lower16:.L.str.24
	movt	r0, :upper16:.L.str.24
	movw	r1, :lower16:.L__FUNCTION__.umqtt_control
	movt	r1, :upper16:.L__FUNCTION__.umqtt_control
	movw	r2, #1892
	bl	rt_assert_handler
	b	.LBB21_2
.Ltmp633:
.LBB21_2:
	.loc	2 1893 12 is_stmt 1             @ packages/umqtt-latest/src/umqtt.c:1893:12
	ldrb.w	r0, [sp, #39]
	.loc	2 1893 5 is_stmt 0              @ packages/umqtt-latest/src/umqtt.c:1893:5
	mov	r1, r0
	str	r1, [sp, #12]                   @ 4-byte Spill
	cbz	r0, .LBB21_9
	b	.LBB21_3
.LBB21_3:
	ldr	r0, [sp, #12]                   @ 4-byte Reload
	cmp	r0, #1
	beq	.LBB21_21
	b	.LBB21_4
.LBB21_4:
	ldr	r0, [sp, #12]                   @ 4-byte Reload
	cmp	r0, #2
	beq	.LBB21_22
	b	.LBB21_5
.LBB21_5:
	ldr	r0, [sp, #12]                   @ 4-byte Reload
	cmp	r0, #3
	beq	.LBB21_23
	b	.LBB21_6
.LBB21_6:
	ldr	r0, [sp, #12]                   @ 4-byte Reload
	cmp	r0, #126
	beq.w	.LBB21_30
	b	.LBB21_7
.LBB21_7:
	ldr	r0, [sp, #12]                   @ 4-byte Reload
	cmp	r0, #127
	beq	.LBB21_24
	b	.LBB21_8
.LBB21_8:
	ldr	r0, [sp, #12]                   @ 4-byte Reload
	cmp	r0, #128
	beq	.LBB21_31
	b	.LBB21_32
.LBB21_9:
.Ltmp634:
	.loc	2 1897 13 is_stmt 1             @ packages/umqtt-latest/src/umqtt.c:1897:13
	ldr	r0, [sp, #32]
.Ltmp635:
	.loc	2 1897 13 is_stmt 0             @ packages/umqtt-latest/src/umqtt.c:1897:13
	cbnz	r0, .LBB21_11
	b	.LBB21_10
.LBB21_10:
.Ltmp636:
	.loc	2 1897 13                       @ packages/umqtt-latest/src/umqtt.c:1897:13
	movw	r0, :lower16:.L.str.50
	movt	r0, :upper16:.L.str.50
	movw	r1, :lower16:.L__FUNCTION__.umqtt_control
	movt	r1, :upper16:.L__FUNCTION__.umqtt_control
	movw	r2, #1897
	bl	rt_assert_handler
	b	.LBB21_11
.Ltmp637:
.LBB21_11:
	.loc	2 1898 39 is_stmt 1             @ packages/umqtt-latest/src/umqtt.c:1898:39
	ldr	r0, [sp, #40]
	.loc	2 1898 47 is_stmt 0             @ packages/umqtt-latest/src/umqtt.c:1898:47
	adds	r0, #144
	.loc	2 1898 22                       @ packages/umqtt-latest/src/umqtt.c:1898:22
	bl	rt_list_isempty
.Ltmp638:
	.loc	2 1898 17                       @ packages/umqtt-latest/src/umqtt.c:1898:17
	cbnz	r0, .LBB21_20
	b	.LBB21_12
.LBB21_12:
.Ltmp639:
	.loc	2 1900 17 is_stmt 1             @ packages/umqtt-latest/src/umqtt.c:1900:17
	ldr	r0, [sp, #40]
	ldr.w	r0, [r0, #144]
	str	r0, [sp, #24]
	b	.LBB21_13
.LBB21_13:                              @ =>This Inner Loop Header: Depth=1
.Ltmp640:
	.loc	2 1900 17 is_stmt 0             @ packages/umqtt-latest/src/umqtt.c:1900:17
	ldr	r0, [sp, #24]
	ldr	r1, [sp, #40]
	adds	r1, #144
.Ltmp641:
	.loc	2 1900 17                       @ packages/umqtt-latest/src/umqtt.c:1900:17
	cmp	r0, r1
	beq	.LBB21_19
	b	.LBB21_14
.LBB21_14:                              @   in Loop: Header=BB21_13 Depth=1
.Ltmp642:
	.loc	2 1902 32 is_stmt 1             @ packages/umqtt-latest/src/umqtt.c:1902:32
	ldr	r0, [sp, #24]
	subs	r0, #12
	.loc	2 1902 30 is_stmt 0             @ packages/umqtt-latest/src/umqtt.c:1902:30
	str	r0, [sp, #28]
	.loc	2 1903 60 is_stmt 1             @ packages/umqtt-latest/src/umqtt.c:1903:60
	ldr	r0, [sp, #32]
	.loc	2 1903 69 is_stmt 0             @ packages/umqtt-latest/src/umqtt.c:1903:69
	ldr	r0, [r0]
	.loc	2 1903 27                       @ packages/umqtt-latest/src/umqtt.c:1903:27
	str	r0, [sp, #20]
.Ltmp643:
	.loc	2 1904 26 is_stmt 1             @ packages/umqtt-latest/src/umqtt.c:1904:26
	ldr	r0, [sp, #28]
	.loc	2 1904 36 is_stmt 0             @ packages/umqtt-latest/src/umqtt.c:1904:36
	ldr	r0, [r0]
	.loc	2 1905 22 is_stmt 1             @ packages/umqtt-latest/src/umqtt.c:1905:22
	cbz	r0, .LBB21_17
	b	.LBB21_15
.LBB21_15:                              @   in Loop: Header=BB21_13 Depth=1
	.loc	2 1905 37 is_stmt 0             @ packages/umqtt-latest/src/umqtt.c:1905:37
	ldr	r0, [sp, #28]
	.loc	2 1905 47                       @ packages/umqtt-latest/src/umqtt.c:1905:47
	ldr	r0, [r0]
	.loc	2 1905 60                       @ packages/umqtt-latest/src/umqtt.c:1905:60
	str	r0, [sp, #8]                    @ 4-byte Spill
	ldr	r0, [sp, #20]
	.loc	2 1905 67                       @ packages/umqtt-latest/src/umqtt.c:1905:67
	str	r0, [sp, #4]                    @ 4-byte Spill
	bl	rt_strlen
	ldr	r1, [sp, #4]                    @ 4-byte Reload
	mov	r2, r0
	.loc	2 1905 26                       @ packages/umqtt-latest/src/umqtt.c:1905:26
	ldr	r0, [sp, #8]                    @ 4-byte Reload
	bl	rt_strncmp
.Ltmp644:
	.loc	2 1904 25 is_stmt 1             @ packages/umqtt-latest/src/umqtt.c:1904:25
	cbnz	r0, .LBB21_17
	b	.LBB21_16
.LBB21_16:
.Ltmp645:
	.loc	2 1907 25                       @ packages/umqtt-latest/src/umqtt.c:1907:25
	b	.LBB21_36
.Ltmp646:
.LBB21_17:                              @   in Loop: Header=BB21_13 Depth=1
	.loc	2 1909 17                       @ packages/umqtt-latest/src/umqtt.c:1909:17
	b	.LBB21_18
.Ltmp647:
.LBB21_18:                              @   in Loop: Header=BB21_13 Depth=1
	.loc	2 1900 17                       @ packages/umqtt-latest/src/umqtt.c:1900:17
	ldr	r0, [sp, #24]
	ldr	r0, [r0]
	str	r0, [sp, #24]
	b	.LBB21_13
.Ltmp648:
.LBB21_19:
	.loc	2 1910 13                       @ packages/umqtt-latest/src/umqtt.c:1910:13
	b	.LBB21_20
.Ltmp649:
.LBB21_20:
	.loc	2 1911 35                       @ packages/umqtt-latest/src/umqtt.c:1911:35
	ldr	r0, [sp, #40]
	.loc	2 1911 43 is_stmt 0             @ packages/umqtt-latest/src/umqtt.c:1911:43
	adds	r0, #144
	.loc	2 1911 90                       @ packages/umqtt-latest/src/umqtt.c:1911:90
	ldr	r1, [sp, #32]
	.loc	2 1911 99                       @ packages/umqtt-latest/src/umqtt.c:1911:99
	adds	r1, #12
	.loc	2 1911 13                       @ packages/umqtt-latest/src/umqtt.c:1911:13
	bl	rt_list_insert_after
.Ltmp650:
	.loc	2 1913 9 is_stmt 1              @ packages/umqtt-latest/src/umqtt.c:1913:9
	b	.LBB21_35
.LBB21_21:
.Ltmp651:
	.loc	2 1916 36                       @ packages/umqtt-latest/src/umqtt.c:1916:36
	ldr	r0, [sp, #32]
	.loc	2 1916 13 is_stmt 0             @ packages/umqtt-latest/src/umqtt.c:1916:13
	ldr	r1, [sp, #40]
	.loc	2 1916 34                       @ packages/umqtt-latest/src/umqtt.c:1916:34
	str.w	r0, [r1, #172]
.Ltmp652:
	.loc	2 1918 9 is_stmt 1              @ packages/umqtt-latest/src/umqtt.c:1918:9
	b	.LBB21_35
.LBB21_22:
.Ltmp653:
	.loc	2 1921 68                       @ packages/umqtt-latest/src/umqtt.c:1921:68
	ldr	r0, [sp, #32]
	.loc	2 1921 52 is_stmt 0             @ packages/umqtt-latest/src/umqtt.c:1921:52
	ldr	r0, [r0]
	.loc	2 1921 13                       @ packages/umqtt-latest/src/umqtt.c:1921:13
	ldr	r1, [sp, #40]
	.loc	2 1921 50                       @ packages/umqtt-latest/src/umqtt.c:1921:50
	str	r0, [r1, #60]
.Ltmp654:
	.loc	2 1923 9 is_stmt 1              @ packages/umqtt-latest/src/umqtt.c:1923:9
	b	.LBB21_35
.LBB21_23:
.Ltmp655:
	.loc	2 1926 27                       @ packages/umqtt-latest/src/umqtt.c:1926:27
	ldr	r0, [sp, #40]
	.loc	2 1926 35 is_stmt 0             @ packages/umqtt-latest/src/umqtt.c:1926:35
	ldrb	r0, [r0, #4]
	.loc	2 1926 13                       @ packages/umqtt-latest/src/umqtt.c:1926:13
	str	r0, [sp, #44]
	b	.LBB21_37
.Ltmp656:
.LBB21_24:
	.loc	2 1931 44 is_stmt 1             @ packages/umqtt-latest/src/umqtt.c:1931:44
	ldr	r0, [sp, #40]
	.loc	2 1931 52 is_stmt 0             @ packages/umqtt-latest/src/umqtt.c:1931:52
	ldr.w	r0, [r0, #180]
	.loc	2 1931 27                       @ packages/umqtt-latest/src/umqtt.c:1931:27
	bl	rt_thread_delete
.Ltmp657:
	.loc	2 1931 17                       @ packages/umqtt-latest/src/umqtt.c:1931:17
	cbnz	r0, .LBB21_26
	b	.LBB21_25
.LBB21_25:
.Ltmp658:
	.loc	2 1933 17 is_stmt 1             @ packages/umqtt-latest/src/umqtt.c:1933:17
	ldr	r1, [sp, #40]
	movs	r0, #0
	.loc	2 1933 37 is_stmt 0             @ packages/umqtt-latest/src/umqtt.c:1933:37
	str.w	r0, [r1, #180]
	.loc	2 1935 13 is_stmt 1             @ packages/umqtt-latest/src/umqtt.c:1935:13
	b	.LBB21_29
.Ltmp659:
.LBB21_26:
	.loc	2 1938 17                       @ packages/umqtt-latest/src/umqtt.c:1938:17
	b	.LBB21_27
.LBB21_27:
.Ltmp660:
	.loc	2 1938 17 is_stmt 0             @ packages/umqtt-latest/src/umqtt.c:1938:17
	movw	r0, :lower16:.L.str.1
	movt	r0, :upper16:.L.str.1
	bl	rt_kprintf
	movw	r0, :lower16:.L.str.51
	movt	r0, :upper16:.L.str.51
	bl	rt_kprintf
	movw	r0, :lower16:.L.str.3
	movt	r0, :upper16:.L.str.3
	bl	rt_kprintf
	b	.LBB21_28
.Ltmp661:
.LBB21_28:
	.loc	2 0 17                          @ packages/umqtt-latest/src/umqtt.c:0:17
	b	.LBB21_29
.LBB21_29:
	.loc	2 1941 9 is_stmt 1              @ packages/umqtt-latest/src/umqtt.c:1941:9
	b	.LBB21_35
.LBB21_30:
.Ltmp662:
	.loc	2 1944 30                       @ packages/umqtt-latest/src/umqtt.c:1944:30
	ldr	r0, [sp, #40]
	.loc	2 1944 13 is_stmt 0             @ packages/umqtt-latest/src/umqtt.c:1944:13
	bl	umqtt_disconnect
.Ltmp663:
	.loc	2 1946 9 is_stmt 1              @ packages/umqtt-latest/src/umqtt.c:1946:9
	b	.LBB21_35
.LBB21_31:
.Ltmp664:
	.loc	2 1950 70                       @ packages/umqtt-latest/src/umqtt.c:1950:70
	ldr	r0, [sp, #32]
	.loc	2 1950 13 is_stmt 0             @ packages/umqtt-latest/src/umqtt.c:1950:13
	ldr	r1, [sp, #40]
	.loc	2 1950 53                       @ packages/umqtt-latest/src/umqtt.c:1950:53
	strh.w	r0, [r1, #82]
.Ltmp665:
	.loc	2 1952 9 is_stmt 1              @ packages/umqtt-latest/src/umqtt.c:1952:9
	b	.LBB21_35
.LBB21_32:
	.loc	2 1955 9                        @ packages/umqtt-latest/src/umqtt.c:1955:9
	b	.LBB21_33
.LBB21_33:
.Ltmp666:
	.loc	2 1955 9 is_stmt 0              @ packages/umqtt-latest/src/umqtt.c:1955:9
	movw	r0, :lower16:.L.str.16
	movt	r0, :upper16:.L.str.16
	bl	rt_kprintf
	ldrb.w	r1, [sp, #39]
	movw	r0, :lower16:.L.str.52
	movt	r0, :upper16:.L.str.52
	bl	rt_kprintf
	movw	r0, :lower16:.L.str.3
	movt	r0, :upper16:.L.str.3
	bl	rt_kprintf
	b	.LBB21_34
.Ltmp667:
.LBB21_34:
	.loc	2 1956 9 is_stmt 1              @ packages/umqtt-latest/src/umqtt.c:1956:9
	b	.LBB21_35
.LBB21_35:
	.loc	2 1957 5                        @ packages/umqtt-latest/src/umqtt.c:1957:5
	b	.LBB21_36
.Ltmp668:
.LBB21_36:
	@DEBUG_LABEL: umqtt_control:_exit
	.loc	2 0 5 is_stmt 0                 @ packages/umqtt-latest/src/umqtt.c:0:5
	movs	r0, #0
	.loc	2 1959 5 is_stmt 1              @ packages/umqtt-latest/src/umqtt.c:1959:5
	str	r0, [sp, #44]
	b	.LBB21_37
.LBB21_37:
	.loc	2 1960 1                        @ packages/umqtt-latest/src/umqtt.c:1960:1
	ldr	r0, [sp, #44]
	add	sp, #48
	pop	{r7, pc}
.Ltmp669:
.Lfunc_end21:
	.size	umqtt_control, .Lfunc_end21-umqtt_control
	.cfi_endproc
	.cantunwind
	.fnend
                                        @ -- End function
	.section	.text.umqtt_keepalive_callback,"ax",%progbits
	.p2align	3                               @ -- Begin function umqtt_keepalive_callback
	.type	umqtt_keepalive_callback,%function
	.code	16                              @ @umqtt_keepalive_callback
	.thumb_func
umqtt_keepalive_callback:
.Lfunc_begin22:
	.loc	2 941 0                         @ packages/umqtt-latest/src/umqtt.c:941:0
	.fnstart
	.cfi_startproc
@ %bb.0:
	.save	{r7, lr}
	push	{r7, lr}
	.cfi_def_cfa_offset 8
	.cfi_offset lr, -4
	.cfi_offset r7, -8
	.pad	#32
	sub	sp, #32
	.cfi_def_cfa_offset 40
	str	r0, [sp, #28]
	movs	r0, #0
.Ltmp670:
	.loc	2 942 9 prologue_end            @ packages/umqtt-latest/src/umqtt.c:942:9
	str	r0, [sp, #24]
	.loc	2 942 19 is_stmt 0              @ packages/umqtt-latest/src/umqtt.c:942:19
	str	r0, [sp, #20]
	.loc	2 943 17 is_stmt 1              @ packages/umqtt-latest/src/umqtt.c:943:17
	str	r0, [sp, #16]
.Ltmp671:
	.loc	2 944 5                         @ packages/umqtt-latest/src/umqtt.c:944:5
	ldr	r0, [sp, #28]
.Ltmp672:
	.loc	2 944 5 is_stmt 0               @ packages/umqtt-latest/src/umqtt.c:944:5
	cbnz	r0, .LBB22_2
	b	.LBB22_1
.LBB22_1:
.Ltmp673:
	.loc	2 944 5                         @ packages/umqtt-latest/src/umqtt.c:944:5
	movw	r0, :lower16:.L.str.24
	movt	r0, :upper16:.L.str.24
	movw	r1, :lower16:.L__FUNCTION__.umqtt_keepalive_callback
	movt	r1, :upper16:.L__FUNCTION__.umqtt_keepalive_callback
	mov.w	r2, #944
	bl	rt_assert_handler
	b	.LBB22_2
.Ltmp674:
.LBB22_2:
	.loc	2 947 25 is_stmt 1              @ packages/umqtt-latest/src/umqtt.c:947:25
	ldr	r0, [sp, #28]
	.loc	2 947 43 is_stmt 0              @ packages/umqtt-latest/src/umqtt.c:947:43
	ldrh.w	r0, [r0, #82]
	.loc	2 947 24                        @ packages/umqtt-latest/src/umqtt.c:947:24
	cbnz	r0, .LBB22_4
	b	.LBB22_3
.LBB22_3:
	.loc	2 0 24                          @ packages/umqtt-latest/src/umqtt.c:0:24
	movw	r0, #32767
	.loc	2 947 24                        @ packages/umqtt-latest/src/umqtt.c:947:24
	str	r0, [sp, #12]                   @ 4-byte Spill
	b	.LBB22_5
.LBB22_4:
	.loc	2 947 120                       @ packages/umqtt-latest/src/umqtt.c:947:120
	ldr	r0, [sp, #28]
	.loc	2 947 138                       @ packages/umqtt-latest/src/umqtt.c:947:138
	ldrh.w	r0, [r0, #82]
	.loc	2 947 160                       @ packages/umqtt-latest/src/umqtt.c:947:160
	lsrs	r0, r0, #1
	.loc	2 947 24                        @ packages/umqtt-latest/src/umqtt.c:947:24
	str	r0, [sp, #12]                   @ 4-byte Spill
	b	.LBB22_5
.LBB22_5:
	ldr	r0, [sp, #12]                   @ 4-byte Reload
	.loc	2 947 22                        @ packages/umqtt-latest/src/umqtt.c:947:22
	str	r0, [sp, #16]
.Ltmp675:
	.loc	2 952 9 is_stmt 1               @ packages/umqtt-latest/src/umqtt.c:952:9
	ldr	r0, [sp, #28]
	.loc	2 952 17 is_stmt 0              @ packages/umqtt-latest/src/umqtt.c:952:17
	ldrb	r0, [r0, #4]
.Ltmp676:
	.loc	2 952 9                         @ packages/umqtt-latest/src/umqtt.c:952:9
	cmp	r0, #2
	bne.w	.LBB22_26
	b	.LBB22_6
.LBB22_6:
.Ltmp677:
	.loc	2 954 15 is_stmt 1              @ packages/umqtt-latest/src/umqtt.c:954:15
	ldr	r0, [sp, #28]
	.loc	2 954 23 is_stmt 0              @ packages/umqtt-latest/src/umqtt.c:954:23
	ldr	r0, [r0, #92]
	.loc	2 954 43                        @ packages/umqtt-latest/src/umqtt.c:954:43
	str	r0, [sp, #8]                    @ 4-byte Spill
	bl	rt_tick_get
	mov	r1, r0
	.loc	2 955 11 is_stmt 1              @ packages/umqtt-latest/src/umqtt.c:955:11
	ldr	r0, [sp, #8]                    @ 4-byte Reload
	cmp	r0, r1
	bhi	.LBB22_8
	b	.LBB22_7
.LBB22_7:
	.loc	2 955 15 is_stmt 0              @ packages/umqtt-latest/src/umqtt.c:955:15
	ldr	r1, [sp, #28]
	.loc	2 955 23                        @ packages/umqtt-latest/src/umqtt.c:955:23
	ldr	r0, [r1, #92]
	.loc	2 955 50                        @ packages/umqtt-latest/src/umqtt.c:955:50
	ldr	r1, [r1, #96]
	.loc	2 956 10 is_stmt 1              @ packages/umqtt-latest/src/umqtt.c:956:10
	cmp	r0, r1
	bhi	.LBB22_9
	b	.LBB22_8
.LBB22_8:
	.loc	2 956 15 is_stmt 0              @ packages/umqtt-latest/src/umqtt.c:956:15
	ldr	r0, [sp, #28]
	.loc	2 956 23                        @ packages/umqtt-latest/src/umqtt.c:956:23
	ldr	r0, [r0, #88]
	.loc	2 956 43                        @ packages/umqtt-latest/src/umqtt.c:956:43
	ldr	r1, [sp, #16]
	.loc	2 956 41                        @ packages/umqtt-latest/src/umqtt.c:956:41
	add	r0, r1
	.loc	2 956 63                        @ packages/umqtt-latest/src/umqtt.c:956:63
	str	r0, [sp, #4]                    @ 4-byte Spill
	bl	rt_tick_get
	mov	r1, r0
.Ltmp678:
	.loc	2 954 13 is_stmt 1              @ packages/umqtt-latest/src/umqtt.c:954:13
	ldr	r0, [sp, #4]                    @ 4-byte Reload
	cmp	r0, r1
	bhs	.LBB22_14
	b	.LBB22_9
.LBB22_9:
.Ltmp679:
	.loc	2 958 56                        @ packages/umqtt-latest/src/umqtt.c:958:56
	ldr	r0, [sp, #28]
	.loc	2 958 64 is_stmt 0              @ packages/umqtt-latest/src/umqtt.c:958:64
	ldr	r1, [r0, #108]
	movs	r0, #12
	movs	r2, #2
	movs	r3, #0
	.loc	2 958 23                        @ packages/umqtt-latest/src/umqtt.c:958:23
	bl	umqtt_encode
	.loc	2 958 21                        @ packages/umqtt-latest/src/umqtt.c:958:21
	str	r0, [sp, #20]
.Ltmp680:
	.loc	2 959 17 is_stmt 1              @ packages/umqtt-latest/src/umqtt.c:959:17
	ldr	r0, [sp, #20]
.Ltmp681:
	.loc	2 959 17 is_stmt 0              @ packages/umqtt-latest/src/umqtt.c:959:17
	cmp	r0, #2
	bne	.LBB22_11
	b	.LBB22_10
.LBB22_10:
.Ltmp682:
	.loc	2 960 34 is_stmt 1              @ packages/umqtt-latest/src/umqtt.c:960:34
	ldr	r1, [sp, #28]
	.loc	2 960 42 is_stmt 0              @ packages/umqtt-latest/src/umqtt.c:960:42
	ldr	r0, [r1]
	.loc	2 960 56                        @ packages/umqtt-latest/src/umqtt.c:960:56
	ldr	r1, [r1, #108]
	.loc	2 960 66                        @ packages/umqtt-latest/src/umqtt.c:960:66
	ldr	r2, [sp, #20]
	movs	r3, #0
	.loc	2 960 17                        @ packages/umqtt-latest/src/umqtt.c:960:17
	bl	umqtt_trans_send
	b	.LBB22_11
.Ltmp683:
.LBB22_11:
	.loc	2 962 17 is_stmt 1              @ packages/umqtt-latest/src/umqtt.c:962:17
	ldr	r0, [sp, #28]
	.loc	2 962 25 is_stmt 0              @ packages/umqtt-latest/src/umqtt.c:962:25
	ldr.w	r0, [r0, #172]
.Ltmp684:
	.loc	2 962 17                        @ packages/umqtt-latest/src/umqtt.c:962:17
	cbz	r0, .LBB22_13
	b	.LBB22_12
.LBB22_12:
.Ltmp685:
	.loc	2 963 17 is_stmt 1              @ packages/umqtt-latest/src/umqtt.c:963:17
	ldr	r0, [sp, #28]
	.loc	2 963 25 is_stmt 0              @ packages/umqtt-latest/src/umqtt.c:963:25
	ldr.w	r2, [r0, #172]
	movs	r1, #3
	.loc	2 963 17                        @ packages/umqtt-latest/src/umqtt.c:963:17
	blx	r2
	b	.LBB22_13
.Ltmp686:
.LBB22_13:
	.loc	2 965 35 is_stmt 1              @ packages/umqtt-latest/src/umqtt.c:965:35
	ldr	r0, [sp, #28]
	movs	r1, #0
	.loc	2 965 13 is_stmt 0              @ packages/umqtt-latest/src/umqtt.c:965:13
	bl	set_uplink_recon_tick
	.loc	2 966 41 is_stmt 1              @ packages/umqtt-latest/src/umqtt.c:966:41
	bl	rt_tick_get
	.loc	2 966 13 is_stmt 0              @ packages/umqtt-latest/src/umqtt.c:966:13
	ldr	r1, [sp, #28]
	.loc	2 966 39                        @ packages/umqtt-latest/src/umqtt.c:966:39
	str	r0, [r1, #88]
	.loc	2 967 9 is_stmt 1               @ packages/umqtt-latest/src/umqtt.c:967:9
	b	.LBB22_25
.Ltmp687:
.LBB22_14:
	.loc	2 968 19                        @ packages/umqtt-latest/src/umqtt.c:968:19
	ldr	r0, [sp, #28]
	.loc	2 968 55 is_stmt 0              @ packages/umqtt-latest/src/umqtt.c:968:55
	ldr	r1, [r0, #92]
	.loc	2 968 27                        @ packages/umqtt-latest/src/umqtt.c:968:27
	ldr	r0, [r0, #96]
	.loc	2 969 15 is_stmt 1              @ packages/umqtt-latest/src/umqtt.c:969:15
	cmp	r0, r1
	blo	.LBB22_24
	b	.LBB22_15
.LBB22_15:
	.loc	2 969 20 is_stmt 0              @ packages/umqtt-latest/src/umqtt.c:969:20
	ldr	r1, [sp, #28]
	.loc	2 969 65                        @ packages/umqtt-latest/src/umqtt.c:969:65
	ldr	r0, [r1, #72]
	.loc	2 969 28                        @ packages/umqtt-latest/src/umqtt.c:969:28
	ldr	r2, [r1, #96]
	mov.w	r1, #1000
	.loc	2 969 45                        @ packages/umqtt-latest/src/umqtt.c:969:45
	mla	r0, r0, r1, r2
	.loc	2 969 88                        @ packages/umqtt-latest/src/umqtt.c:969:88
	str	r0, [sp]                        @ 4-byte Spill
	bl	rt_tick_get
	mov	r1, r0
.Ltmp688:
	.loc	2 968 18 is_stmt 1              @ packages/umqtt-latest/src/umqtt.c:968:18
	ldr	r0, [sp]                        @ 4-byte Reload
	cmp	r0, r1
	bhs	.LBB22_24
	b	.LBB22_16
.LBB22_16:
.Ltmp689:
	.loc	2 971 19                        @ packages/umqtt-latest/src/umqtt.c:971:19
	ldr	r1, [sp, #28]
	.loc	2 971 17 is_stmt 0              @ packages/umqtt-latest/src/umqtt.c:971:17
	ldrb.w	r0, [r1, #85]
	adds	r0, #1
	strb.w	r0, [r1, #85]
	uxtb	r0, r0
	.loc	2 971 47                        @ packages/umqtt-latest/src/umqtt.c:971:47
	ldr	r1, [sp, #28]
	.loc	2 971 65                        @ packages/umqtt-latest/src/umqtt.c:971:65
	ldrb.w	r1, [r1, #56]
.Ltmp690:
	.loc	2 971 17                        @ packages/umqtt-latest/src/umqtt.c:971:17
	cmp	r0, r1
	blt	.LBB22_18
	b	.LBB22_17
.LBB22_17:
.Ltmp691:
	.loc	2 972 36 is_stmt 1              @ packages/umqtt-latest/src/umqtt.c:972:36
	ldr	r0, [sp, #28]
	movs	r1, #4
	.loc	2 972 17 is_stmt 0              @ packages/umqtt-latest/src/umqtt.c:972:17
	bl	set_connect_status
	.loc	2 973 13 is_stmt 1              @ packages/umqtt-latest/src/umqtt.c:973:13
	b	.LBB22_23
.Ltmp692:
.LBB22_18:
	.loc	2 976 60                        @ packages/umqtt-latest/src/umqtt.c:976:60
	ldr	r0, [sp, #28]
	.loc	2 976 68 is_stmt 0              @ packages/umqtt-latest/src/umqtt.c:976:68
	ldr	r1, [r0, #108]
	movs	r0, #12
	movs	r2, #2
	movs	r3, #0
	.loc	2 976 27                        @ packages/umqtt-latest/src/umqtt.c:976:27
	bl	umqtt_encode
	.loc	2 976 25                        @ packages/umqtt-latest/src/umqtt.c:976:25
	str	r0, [sp, #20]
.Ltmp693:
	.loc	2 977 21 is_stmt 1              @ packages/umqtt-latest/src/umqtt.c:977:21
	ldr	r0, [sp, #20]
.Ltmp694:
	.loc	2 977 21 is_stmt 0              @ packages/umqtt-latest/src/umqtt.c:977:21
	cmp	r0, #2
	bne	.LBB22_20
	b	.LBB22_19
.LBB22_19:
.Ltmp695:
	.loc	2 978 38 is_stmt 1              @ packages/umqtt-latest/src/umqtt.c:978:38
	ldr	r1, [sp, #28]
	.loc	2 978 46 is_stmt 0              @ packages/umqtt-latest/src/umqtt.c:978:46
	ldr	r0, [r1]
	.loc	2 978 60                        @ packages/umqtt-latest/src/umqtt.c:978:60
	ldr	r1, [r1, #108]
	.loc	2 978 70                        @ packages/umqtt-latest/src/umqtt.c:978:70
	ldr	r2, [sp, #20]
	movs	r3, #0
	.loc	2 978 21                        @ packages/umqtt-latest/src/umqtt.c:978:21
	bl	umqtt_trans_send
	b	.LBB22_20
.Ltmp696:
.LBB22_20:
	.loc	2 980 21 is_stmt 1              @ packages/umqtt-latest/src/umqtt.c:980:21
	ldr	r0, [sp, #28]
	.loc	2 980 29 is_stmt 0              @ packages/umqtt-latest/src/umqtt.c:980:29
	ldr.w	r0, [r0, #172]
.Ltmp697:
	.loc	2 980 21                        @ packages/umqtt-latest/src/umqtt.c:980:21
	cbz	r0, .LBB22_22
	b	.LBB22_21
.LBB22_21:
.Ltmp698:
	.loc	2 981 21 is_stmt 1              @ packages/umqtt-latest/src/umqtt.c:981:21
	ldr	r0, [sp, #28]
	.loc	2 981 29 is_stmt 0              @ packages/umqtt-latest/src/umqtt.c:981:29
	ldr.w	r2, [r0, #172]
	movs	r1, #3
	.loc	2 981 21                        @ packages/umqtt-latest/src/umqtt.c:981:21
	blx	r2
	b	.LBB22_22
.Ltmp699:
.LBB22_22:
	.loc	2 983 39 is_stmt 1              @ packages/umqtt-latest/src/umqtt.c:983:39
	ldr	r0, [sp, #28]
	movs	r1, #0
	.loc	2 983 17 is_stmt 0              @ packages/umqtt-latest/src/umqtt.c:983:17
	bl	set_uplink_recon_tick
	b	.LBB22_23
.Ltmp700:
.LBB22_23:
	.loc	2 985 9 is_stmt 1               @ packages/umqtt-latest/src/umqtt.c:985:9
	b	.LBB22_24
.Ltmp701:
.LBB22_24:
	.loc	2 0 9 is_stmt 0                 @ packages/umqtt-latest/src/umqtt.c:0:9
	b	.LBB22_25
.LBB22_25:
	.loc	2 986 5 is_stmt 1               @ packages/umqtt-latest/src/umqtt.c:986:5
	b	.LBB22_26
.Ltmp702:
.LBB22_26:
	.loc	2 987 12                        @ packages/umqtt-latest/src/umqtt.c:987:12
	ldr	r0, [sp, #24]
	.loc	2 987 5 is_stmt 0               @ packages/umqtt-latest/src/umqtt.c:987:5
	add	sp, #32
	pop	{r7, pc}
.Ltmp703:
.Lfunc_end22:
	.size	umqtt_keepalive_callback, .Lfunc_end22-umqtt_keepalive_callback
	.cfi_endproc
	.cantunwind
	.fnend
                                        @ -- End function
	.section	.text.umqtt_reconnect_callback,"ax",%progbits
	.p2align	3                               @ -- Begin function umqtt_reconnect_callback
	.type	umqtt_reconnect_callback,%function
	.code	16                              @ @umqtt_reconnect_callback
	.thumb_func
umqtt_reconnect_callback:
.Lfunc_begin23:
	.loc	2 991 0 is_stmt 1               @ packages/umqtt-latest/src/umqtt.c:991:0
	.fnstart
	.cfi_startproc
@ %bb.0:
	.save	{r7, lr}
	push	{r7, lr}
	.cfi_def_cfa_offset 8
	.cfi_offset lr, -4
	.cfi_offset r7, -8
	.pad	#16
	sub	sp, #16
	.cfi_def_cfa_offset 24
	str	r0, [sp, #12]
	movs	r0, #0
.Ltmp704:
	.loc	2 992 9 prologue_end            @ packages/umqtt-latest/src/umqtt.c:992:9
	str	r0, [sp, #8]
.Ltmp705:
	.loc	2 993 5                         @ packages/umqtt-latest/src/umqtt.c:993:5
	ldr	r0, [sp, #12]
.Ltmp706:
	.loc	2 993 5 is_stmt 0               @ packages/umqtt-latest/src/umqtt.c:993:5
	cbnz	r0, .LBB23_2
	b	.LBB23_1
.LBB23_1:
.Ltmp707:
	.loc	2 993 5                         @ packages/umqtt-latest/src/umqtt.c:993:5
	movw	r0, :lower16:.L.str.24
	movt	r0, :upper16:.L.str.24
	movw	r1, :lower16:.L__FUNCTION__.umqtt_reconnect_callback
	movt	r1, :upper16:.L__FUNCTION__.umqtt_reconnect_callback
	movw	r2, #993
	bl	rt_assert_handler
	b	.LBB23_2
.Ltmp708:
.LBB23_2:
	.loc	2 995 9 is_stmt 1               @ packages/umqtt-latest/src/umqtt.c:995:9
	ldr	r0, [sp, #12]
	.loc	2 995 17 is_stmt 0              @ packages/umqtt-latest/src/umqtt.c:995:17
	ldrb	r0, [r0, #4]
.Ltmp709:
	.loc	2 995 9                         @ packages/umqtt-latest/src/umqtt.c:995:9
	cmp	r0, #4
	bne	.LBB23_6
	b	.LBB23_3
.LBB23_3:
.Ltmp710:
	.loc	2 997 13 is_stmt 1              @ packages/umqtt-latest/src/umqtt.c:997:13
	ldr	r0, [sp, #12]
	.loc	2 997 21 is_stmt 0              @ packages/umqtt-latest/src/umqtt.c:997:21
	ldr.w	r0, [r0, #172]
.Ltmp711:
	.loc	2 997 13                        @ packages/umqtt-latest/src/umqtt.c:997:13
	cbz	r0, .LBB23_5
	b	.LBB23_4
.LBB23_4:
.Ltmp712:
	.loc	2 998 13 is_stmt 1              @ packages/umqtt-latest/src/umqtt.c:998:13
	ldr	r0, [sp, #12]
	.loc	2 998 21 is_stmt 0              @ packages/umqtt-latest/src/umqtt.c:998:21
	ldr.w	r2, [r0, #172]
	movs	r1, #2
	.loc	2 998 13                        @ packages/umqtt-latest/src/umqtt.c:998:13
	blx	r2
	b	.LBB23_5
.Ltmp713:
.LBB23_5:
	.loc	2 1000 28 is_stmt 1             @ packages/umqtt-latest/src/umqtt.c:1000:28
	ldr	r0, [sp, #12]
	movs	r1, #8
	.loc	2 1000 9 is_stmt 0              @ packages/umqtt-latest/src/umqtt.c:1000:9
	bl	set_connect_status
	.loc	2 1001 32 is_stmt 1             @ packages/umqtt-latest/src/umqtt.c:1001:32
	ldr	r0, [sp, #12]
	.loc	2 1001 40 is_stmt 0             @ packages/umqtt-latest/src/umqtt.c:1001:40
	ldr	r0, [r0]
	.loc	2 1001 9                        @ packages/umqtt-latest/src/umqtt.c:1001:9
	bl	umqtt_trans_disconnect
	.loc	2 1002 9 is_stmt 1              @ packages/umqtt-latest/src/umqtt.c:1002:9
	ldr	r1, [sp, #12]
	mov.w	r0, #-1
	.loc	2 1002 22 is_stmt 0             @ packages/umqtt-latest/src/umqtt.c:1002:22
	str	r0, [r1]
	.loc	2 1004 5 is_stmt 1              @ packages/umqtt-latest/src/umqtt.c:1004:5
	b	.LBB23_23
.Ltmp714:
.LBB23_6:
	.loc	2 1005 14                       @ packages/umqtt-latest/src/umqtt.c:1005:14
	ldr	r0, [sp, #12]
	.loc	2 1005 22 is_stmt 0             @ packages/umqtt-latest/src/umqtt.c:1005:22
	ldrb	r0, [r0, #4]
.Ltmp715:
	.loc	2 1005 14                       @ packages/umqtt-latest/src/umqtt.c:1005:14
	cmp	r0, #8
	bne	.LBB23_22
	b	.LBB23_7
.LBB23_7:
.Ltmp716:
	.loc	2 1007 13 is_stmt 1             @ packages/umqtt-latest/src/umqtt.c:1007:13
	ldr	r0, [sp, #12]
	.loc	2 1007 21 is_stmt 0             @ packages/umqtt-latest/src/umqtt.c:1007:21
	ldr	r0, [r0, #100]
	.loc	2 1007 44                       @ packages/umqtt-latest/src/umqtt.c:1007:44
	str	r0, [sp, #4]                    @ 4-byte Spill
	bl	rt_tick_get
	mov	r1, r0
.Ltmp717:
	.loc	2 1007 13                       @ packages/umqtt-latest/src/umqtt.c:1007:13
	ldr	r0, [sp, #4]                    @ 4-byte Reload
	cmp	r0, r1
	bhi	.LBB23_21
	b	.LBB23_8
.LBB23_8:
.Ltmp718:
	.loc	2 1009 17 is_stmt 1             @ packages/umqtt-latest/src/umqtt.c:1009:17
	ldr	r0, [sp, #12]
	.loc	2 1009 25 is_stmt 0             @ packages/umqtt-latest/src/umqtt.c:1009:25
	ldr	r0, [r0]
.Ltmp719:
	.loc	2 1009 17                       @ packages/umqtt-latest/src/umqtt.c:1009:17
	cmp.w	r0, #-1
	bgt	.LBB23_19
	b	.LBB23_9
.LBB23_9:
.Ltmp720:
	.loc	2 1011 21 is_stmt 1             @ packages/umqtt-latest/src/umqtt.c:1011:21
	ldr	r0, [sp, #12]
	.loc	2 1011 66 is_stmt 0             @ packages/umqtt-latest/src/umqtt.c:1011:66
	ldrb.w	r1, [r0, #48]
	.loc	2 1011 29                       @ packages/umqtt-latest/src/umqtt.c:1011:29
	ldrb.w	r0, [r0, #84]
.Ltmp721:
	.loc	2 1011 21                       @ packages/umqtt-latest/src/umqtt.c:1011:21
	cmp	r0, r1
	blt	.LBB23_15
	b	.LBB23_10
.LBB23_10:
.Ltmp722:
	.loc	2 1013 40 is_stmt 1             @ packages/umqtt-latest/src/umqtt.c:1013:40
	ldr	r0, [sp, #12]
	movs	r1, #16
	.loc	2 1013 21 is_stmt 0             @ packages/umqtt-latest/src/umqtt.c:1013:21
	bl	set_connect_status
.Ltmp723:
	.loc	2 1015 25 is_stmt 1             @ packages/umqtt-latest/src/umqtt.c:1015:25
	ldr	r0, [sp, #12]
	.loc	2 1015 33 is_stmt 0             @ packages/umqtt-latest/src/umqtt.c:1015:33
	ldr.w	r0, [r0, #180]
.Ltmp724:
	.loc	2 1015 25                       @ packages/umqtt-latest/src/umqtt.c:1015:25
	cbz	r0, .LBB23_12
	b	.LBB23_11
.LBB23_11:
.Ltmp725:
	.loc	2 1017 42 is_stmt 1             @ packages/umqtt-latest/src/umqtt.c:1017:42
	ldr	r0, [sp, #12]
	.loc	2 1017 50 is_stmt 0             @ packages/umqtt-latest/src/umqtt.c:1017:50
	ldr.w	r0, [r0, #180]
	.loc	2 1017 25                       @ packages/umqtt-latest/src/umqtt.c:1017:25
	bl	rt_thread_delete
	.loc	2 1018 25 is_stmt 1             @ packages/umqtt-latest/src/umqtt.c:1018:25
	ldr	r1, [sp, #12]
	movs	r0, #0
	.loc	2 1018 45 is_stmt 0             @ packages/umqtt-latest/src/umqtt.c:1018:45
	str.w	r0, [r1, #180]
	.loc	2 1019 21 is_stmt 1             @ packages/umqtt-latest/src/umqtt.c:1019:21
	b	.LBB23_12
.Ltmp726:
.LBB23_12:
	.loc	2 1020 25                       @ packages/umqtt-latest/src/umqtt.c:1020:25
	ldr	r0, [sp, #12]
	.loc	2 1020 33 is_stmt 0             @ packages/umqtt-latest/src/umqtt.c:1020:33
	ldr.w	r0, [r0, #136]
.Ltmp727:
	.loc	2 1020 25                       @ packages/umqtt-latest/src/umqtt.c:1020:25
	cbz	r0, .LBB23_14
	b	.LBB23_13
.LBB23_13:
.Ltmp728:
	.loc	2 1022 39 is_stmt 1             @ packages/umqtt-latest/src/umqtt.c:1022:39
	ldr	r0, [sp, #12]
	.loc	2 1022 47 is_stmt 0             @ packages/umqtt-latest/src/umqtt.c:1022:47
	ldr.w	r0, [r0, #136]
	.loc	2 1022 25                       @ packages/umqtt-latest/src/umqtt.c:1022:25
	bl	rt_timer_stop
	.loc	2 1023 21 is_stmt 1             @ packages/umqtt-latest/src/umqtt.c:1023:21
	b	.LBB23_14
.Ltmp729:
.LBB23_14:
	.loc	2 1024 17                       @ packages/umqtt-latest/src/umqtt.c:1024:17
	b	.LBB23_18
.Ltmp730:
.LBB23_15:
	.loc	2 1027 21                       @ packages/umqtt-latest/src/umqtt.c:1027:21
	ldr	r1, [sp, #12]
	movs	r0, #0
	.loc	2 1027 45 is_stmt 0             @ packages/umqtt-latest/src/umqtt.c:1027:45
	str	r0, [sp]                        @ 4-byte Spill
	strb.w	r0, [r1, #85]
	.loc	2 1028 43 is_stmt 1             @ packages/umqtt-latest/src/umqtt.c:1028:43
	ldr	r0, [sp, #12]
	movs	r1, #3
	.loc	2 1028 21 is_stmt 0             @ packages/umqtt-latest/src/umqtt.c:1028:21
	bl	set_uplink_recon_tick
	ldr	r1, [sp]                        @ 4-byte Reload
	.loc	2 1029 35 is_stmt 1             @ packages/umqtt-latest/src/umqtt.c:1029:35
	ldr	r0, [sp, #12]
	.loc	2 1029 21 is_stmt 0             @ packages/umqtt-latest/src/umqtt.c:1029:21
	bl	umqtt_connect
.Ltmp731:
	.loc	2 1030 25 is_stmt 1             @ packages/umqtt-latest/src/umqtt.c:1030:25
	ldr	r0, [sp, #12]
	.loc	2 1030 33 is_stmt 0             @ packages/umqtt-latest/src/umqtt.c:1030:33
	ldr.w	r0, [r0, #172]
.Ltmp732:
	.loc	2 1030 25                       @ packages/umqtt-latest/src/umqtt.c:1030:25
	cbz	r0, .LBB23_17
	b	.LBB23_16
.LBB23_16:
.Ltmp733:
	.loc	2 1031 25 is_stmt 1             @ packages/umqtt-latest/src/umqtt.c:1031:25
	ldr	r0, [sp, #12]
	.loc	2 1031 33 is_stmt 0             @ packages/umqtt-latest/src/umqtt.c:1031:33
	ldr.w	r2, [r0, #172]
	movs	r1, #0
	.loc	2 1031 25                       @ packages/umqtt-latest/src/umqtt.c:1031:25
	blx	r2
	b	.LBB23_17
.Ltmp734:
.LBB23_17:
	.loc	2 0 25                          @ packages/umqtt-latest/src/umqtt.c:0:25
	b	.LBB23_18
.LBB23_18:
	.loc	2 1033 13 is_stmt 1             @ packages/umqtt-latest/src/umqtt.c:1033:13
	b	.LBB23_20
.Ltmp735:
.LBB23_19:
	.loc	2 1036 40                       @ packages/umqtt-latest/src/umqtt.c:1036:40
	ldr	r0, [sp, #12]
	.loc	2 1036 48 is_stmt 0             @ packages/umqtt-latest/src/umqtt.c:1036:48
	ldr	r0, [r0]
	.loc	2 1036 17                       @ packages/umqtt-latest/src/umqtt.c:1036:17
	bl	umqtt_trans_disconnect
	.loc	2 1037 17 is_stmt 1             @ packages/umqtt-latest/src/umqtt.c:1037:17
	ldr	r1, [sp, #12]
	mov.w	r0, #-1
	.loc	2 1037 30 is_stmt 0             @ packages/umqtt-latest/src/umqtt.c:1037:30
	str	r0, [r1]
	b	.LBB23_20
.Ltmp736:
.LBB23_20:
	.loc	2 1039 9 is_stmt 1              @ packages/umqtt-latest/src/umqtt.c:1039:9
	b	.LBB23_21
.Ltmp737:
.LBB23_21:
	.loc	2 1041 5                        @ packages/umqtt-latest/src/umqtt.c:1041:5
	b	.LBB23_22
.Ltmp738:
.LBB23_22:
	.loc	2 0 5 is_stmt 0                 @ packages/umqtt-latest/src/umqtt.c:0:5
	b	.LBB23_23
.LBB23_23:
	.loc	2 1043 12 is_stmt 1             @ packages/umqtt-latest/src/umqtt.c:1043:12
	ldr	r0, [sp, #8]
	.loc	2 1043 5 is_stmt 0              @ packages/umqtt-latest/src/umqtt.c:1043:5
	add	sp, #16
	pop	{r7, pc}
.Ltmp739:
.Lfunc_end23:
	.size	umqtt_reconnect_callback, .Lfunc_end23-umqtt_reconnect_callback
	.cfi_endproc
	.cantunwind
	.fnend
                                        @ -- End function
	.section	.text.pubrec_cycle_callback,"ax",%progbits
	.p2align	3                               @ -- Begin function pubrec_cycle_callback
	.type	pubrec_cycle_callback,%function
	.code	16                              @ @pubrec_cycle_callback
	.thumb_func
pubrec_cycle_callback:
.Lfunc_begin24:
	.loc	2 236 0 is_stmt 1               @ packages/umqtt-latest/src/umqtt.c:236:0
	.fnstart
	.cfi_startproc
@ %bb.0:
	.save	{r7, lr}
	push	{r7, lr}
	.cfi_def_cfa_offset 8
	.cfi_offset lr, -4
	.cfi_offset r7, -8
	.pad	#96
	sub	sp, #96
	.cfi_def_cfa_offset 104
	str	r0, [sp, #92]
	movs	r0, #0
.Ltmp740:
	.loc	2 237 9 prologue_end            @ packages/umqtt-latest/src/umqtt.c:237:9
	str	r0, [sp, #16]                   @ 4-byte Spill
	str	r0, [sp, #88]
	.loc	2 237 26 is_stmt 0              @ packages/umqtt-latest/src/umqtt.c:237:26
	str	r0, [sp, #84]
	add	r0, sp, #20
	movs	r1, #64
	.loc	2 238 22 is_stmt 1              @ packages/umqtt-latest/src/umqtt.c:238:22
	bl	__aeabi_memclr4
	ldr	r0, [sp, #16]                   @ 4-byte Reload
.Ltmp741:
	.loc	2 241 15                        @ packages/umqtt-latest/src/umqtt.c:241:15
	str	r0, [sp, #84]
	.loc	2 241 10 is_stmt 0              @ packages/umqtt-latest/src/umqtt.c:241:10
	b	.LBB24_1
