	.text
	.syntax unified
	.eabi_attribute	67, "2.09"	@ Tag_conformance
	.cpu	cortex-m7
	.eabi_attribute	6, 13	@ Tag_CPU_arch
	.eabi_attribute	7, 77	@ Tag_CPU_arch_profile
	.eabi_attribute	8, 0	@ Tag_ARM_ISA_use
	.eabi_attribute	9, 2	@ Tag_THUMB_ISA_use
	.fpu	fpv5-d16
	.eabi_attribute	36, 1	@ Tag_FP_HP_extension
	.eabi_attribute	34, 1	@ Tag_CPU_unaligned_access
	.eabi_attribute	17, 1	@ Tag_ABI_PCS_GOT_use
	.eabi_attribute	20, 2	@ Tag_ABI_FP_denormal
	.eabi_attribute	21, 0	@ Tag_ABI_FP_exceptions
	.eabi_attribute	23, 1	@ Tag_ABI_FP_number_model
	.eabi_attribute	24, 1	@ Tag_ABI_align_needed
	.eabi_attribute	25, 1	@ Tag_ABI_align_preserved
	.eabi_attribute	28, 1	@ Tag_ABI_VFP_args
	.eabi_attribute	38, 1	@ Tag_ABI_FP_16bit_format
	.eabi_attribute	18, 2	@ Tag_ABI_PCS_wchar_t
	.eabi_attribute	26, 1	@ Tag_ABI_enum_size
	.eabi_attribute	14, 0	@ Tag_ABI_PCS_R9_use
	.file	"umqtt_sample.c"
	.file	1 "E:\\STM32\\Learning\\STM32H750_ART_PI_RGBLCD" "packages/umqtt-latest/samples/umqtt_sample.c"
	.file	2 "E:\\STM32\\Learning\\STM32H750_ART_PI_RGBLCD" "rt-thread/components/finsh\\finsh_api.h"
	.file	3 "E:\\STM32\\Learning\\STM32H750_ART_PI_RGBLCD" "./packages/umqtt-latest/inc/umqtt.h"
	.file	4 "E:\\STM32\\Learning\\STM32H750_ART_PI_RGBLCD" "rt-thread/include\\rtdef.h"
	.file	5 "E:\\STM32\\Learning\\STM32H750_ART_PI_RGBLCD" "./packages/umqtt-latest/inc\\umqtt_internal.h"
	.section	.text.umqtt_ex_start,"ax",%progbits
	.p2align	3                               @ -- Begin function umqtt_ex_start
	.type	umqtt_ex_start,%function
	.code	16                              @ @umqtt_ex_start
	.thumb_func
umqtt_ex_start:
.Lfunc_begin0:
	.loc	1 77 0                          @ packages/umqtt-latest/samples/umqtt_sample.c:77:0
	.fnstart
	.cfi_sections .debug_frame
	.cfi_startproc
@ %bb.0:
	.save	{r7, lr}
	push	{r7, lr}
	.cfi_def_cfa_offset 8
	.cfi_offset lr, -4
	.cfi_offset r7, -8
	.pad	#96
	sub	sp, #96
	.cfi_def_cfa_offset 104
	str	r0, [sp, #88]
	str	r1, [sp, #84]
.Ltmp0:
	.loc	1 80 9 prologue_end             @ packages/umqtt-latest/samples/umqtt_sample.c:80:9
	ldr	r0, [sp, #88]
.Ltmp1:
	.loc	1 80 9 is_stmt 0                @ packages/umqtt-latest/samples/umqtt_sample.c:80:9
	cmp	r0, #1
	beq	.LBB0_4
	b	.LBB0_1
.LBB0_1:
.Ltmp2:
	.loc	1 82 9 is_stmt 1                @ packages/umqtt-latest/samples/umqtt_sample.c:82:9
	b	.LBB0_2
.LBB0_2:
.Ltmp3:
	.loc	1 82 9 is_stmt 0                @ packages/umqtt-latest/samples/umqtt_sample.c:82:9
	movw	r0, :lower16:.L.str
	movt	r0, :upper16:.L.str
	bl	rt_kprintf
	movw	r0, :lower16:.L.str.1
	movt	r0, :upper16:.L.str.1
	bl	rt_kprintf
	movw	r0, :lower16:.L.str.2
	movt	r0, :upper16:.L.str.2
	bl	rt_kprintf
	b	.LBB0_3
.Ltmp4:
.LBB0_3:
	.loc	1 0 9                           @ packages/umqtt-latest/samples/umqtt_sample.c:0:9
	mov.w	r0, #-1
	.loc	1 83 9 is_stmt 1                @ packages/umqtt-latest/samples/umqtt_sample.c:83:9
	str	r0, [sp, #92]
	b	.LBB0_20
.Ltmp5:
.LBB0_4:
	.loc	1 86 9                          @ packages/umqtt-latest/samples/umqtt_sample.c:86:9
	movw	r0, :lower16:is_started
	movt	r0, :upper16:is_started
	ldr	r0, [r0]
.Ltmp6:
	.loc	1 86 9 is_stmt 0                @ packages/umqtt-latest/samples/umqtt_sample.c:86:9
	cbz	r0, .LBB0_8
	b	.LBB0_5
.LBB0_5:
.Ltmp7:
	.loc	1 88 9 is_stmt 1                @ packages/umqtt-latest/samples/umqtt_sample.c:88:9
	b	.LBB0_6
.LBB0_6:
.Ltmp8:
	.loc	1 88 9 is_stmt 0                @ packages/umqtt-latest/samples/umqtt_sample.c:88:9
	movw	r0, :lower16:.L.str
	movt	r0, :upper16:.L.str
	bl	rt_kprintf
	movw	r0, :lower16:.L.str.3
	movt	r0, :upper16:.L.str.3
	bl	rt_kprintf
	movw	r0, :lower16:.L.str.2
	movt	r0, :upper16:.L.str.2
	bl	rt_kprintf
	b	.LBB0_7
.Ltmp9:
.LBB0_7:
	.loc	1 0 9                           @ packages/umqtt-latest/samples/umqtt_sample.c:0:9
	mov.w	r0, #-1
	.loc	1 89 9 is_stmt 1                @ packages/umqtt-latest/samples/umqtt_sample.c:89:9
	str	r0, [sp, #92]
	b	.LBB0_20
.Ltmp10:
.LBB0_8:
	.loc	1 0 9 is_stmt 0                 @ packages/umqtt-latest/samples/umqtt_sample.c:0:9
	add	r0, sp, #8
	str	r0, [sp, #4]                    @ 4-byte Spill
	movs	r1, #76
	.loc	1 92 23 is_stmt 1               @ packages/umqtt-latest/samples/umqtt_sample.c:92:23
	bl	__aeabi_memclr4
	ldr	r0, [sp, #4]                    @ 4-byte Reload
	.loc	1 93 20                         @ packages/umqtt-latest/samples/umqtt_sample.c:93:20
	movw	r1, :lower16:.L.str.4
	movt	r1, :upper16:.L.str.4
	str	r1, [sp, #16]
	.loc	1 95 22                         @ packages/umqtt-latest/samples/umqtt_sample.c:95:22
	bl	umqtt_create
	mov	r1, r0
	.loc	1 95 20 is_stmt 0               @ packages/umqtt-latest/samples/umqtt_sample.c:95:20
	movw	r0, :lower16:m_umqtt_client
	movt	r0, :upper16:m_umqtt_client
	str	r1, [r0]
.Ltmp11:
	.loc	1 96 9 is_stmt 1                @ packages/umqtt-latest/samples/umqtt_sample.c:96:9
	ldr	r0, [r0]
.Ltmp12:
	.loc	1 96 9 is_stmt 0                @ packages/umqtt-latest/samples/umqtt_sample.c:96:9
	cbnz	r0, .LBB0_12
	b	.LBB0_9
.LBB0_9:
.Ltmp13:
	.loc	1 98 9 is_stmt 1                @ packages/umqtt-latest/samples/umqtt_sample.c:98:9
	b	.LBB0_10
.LBB0_10:
.Ltmp14:
	.loc	1 98 9 is_stmt 0                @ packages/umqtt-latest/samples/umqtt_sample.c:98:9
	movw	r0, :lower16:.L.str
	movt	r0, :upper16:.L.str
	bl	rt_kprintf
	movw	r0, :lower16:.L.str.5
	movt	r0, :upper16:.L.str.5
	bl	rt_kprintf
	movw	r0, :lower16:.L.str.2
	movt	r0, :upper16:.L.str.2
	bl	rt_kprintf
	b	.LBB0_11
.Ltmp15:
.LBB0_11:
	.loc	1 0 9                           @ packages/umqtt-latest/samples/umqtt_sample.c:0:9
	mov.w	r0, #-1
	.loc	1 99 9 is_stmt 1                @ packages/umqtt-latest/samples/umqtt_sample.c:99:9
	str	r0, [sp, #92]
	b	.LBB0_20
.Ltmp16:
.LBB0_12:
	.loc	1 101 19                        @ packages/umqtt-latest/samples/umqtt_sample.c:101:19
	movw	r0, :lower16:m_umqtt_client
	movt	r0, :upper16:m_umqtt_client
	str	r0, [sp]                        @ 4-byte Spill
	ldr	r0, [r0]
	.loc	1 101 5 is_stmt 0               @ packages/umqtt-latest/samples/umqtt_sample.c:101:5
	movw	r2, :lower16:user_callback
	movt	r2, :upper16:user_callback
	movs	r1, #1
	bl	umqtt_control
                                        @ kill: def $r1 killed $r0
.Ltmp17:
	.loc	1 103 21 is_stmt 1              @ packages/umqtt-latest/samples/umqtt_sample.c:103:21
	ldr	r0, [sp]                        @ 4-byte Reload
	ldr	r0, [r0]
	.loc	1 103 9 is_stmt 0               @ packages/umqtt-latest/samples/umqtt_sample.c:103:9
	bl	umqtt_start
.Ltmp18:
	.loc	1 103 9                         @ packages/umqtt-latest/samples/umqtt_sample.c:103:9
	cmp	r0, #0
	bmi	.LBB0_16
	b	.LBB0_13
.LBB0_13:
.Ltmp19:
	.loc	1 105 9 is_stmt 1               @ packages/umqtt-latest/samples/umqtt_sample.c:105:9
	b	.LBB0_14
.LBB0_14:
.Ltmp20:
	.loc	1 105 9 is_stmt 0               @ packages/umqtt-latest/samples/umqtt_sample.c:105:9
	movw	r0, :lower16:.L.str.6
	movt	r0, :upper16:.L.str.6
	bl	rt_kprintf
	movw	r0, :lower16:.L.str.7
	movt	r0, :upper16:.L.str.7
	bl	rt_kprintf
	movw	r0, :lower16:.L.str.2
	movt	r0, :upper16:.L.str.2
	bl	rt_kprintf
	b	.LBB0_15
.Ltmp21:
.LBB0_15:
	.loc	1 106 20 is_stmt 1              @ packages/umqtt-latest/samples/umqtt_sample.c:106:20
	movw	r1, :lower16:is_started
	movt	r1, :upper16:is_started
	movs	r0, #1
	str	r0, [r1]
	.loc	1 107 5                         @ packages/umqtt-latest/samples/umqtt_sample.c:107:5
	b	.LBB0_19
.Ltmp22:
.LBB0_16:
	.loc	1 110 24                        @ packages/umqtt-latest/samples/umqtt_sample.c:110:24
	movw	r1, :lower16:m_umqtt_client
	movt	r1, :upper16:m_umqtt_client
	movs	r0, #0
	str	r0, [r1]
	.loc	1 111 9                         @ packages/umqtt-latest/samples/umqtt_sample.c:111:9
	b	.LBB0_17
.LBB0_17:
.Ltmp23:
	.loc	1 111 9 is_stmt 0               @ packages/umqtt-latest/samples/umqtt_sample.c:111:9
	movw	r0, :lower16:.L.str
	movt	r0, :upper16:.L.str
	bl	rt_kprintf
	movw	r0, :lower16:.L.str.8
	movt	r0, :upper16:.L.str.8
	bl	rt_kprintf
	movw	r0, :lower16:.L.str.2
	movt	r0, :upper16:.L.str.2
	bl	rt_kprintf
	b	.LBB0_18
.Ltmp24:
.LBB0_18:
	.loc	1 0 9                           @ packages/umqtt-latest/samples/umqtt_sample.c:0:9
	b	.LBB0_19
.LBB0_19:
	movs	r0, #0
	.loc	1 114 5 is_stmt 1               @ packages/umqtt-latest/samples/umqtt_sample.c:114:5
	str	r0, [sp, #92]
	b	.LBB0_20
.LBB0_20:
	.loc	1 115 1                         @ packages/umqtt-latest/samples/umqtt_sample.c:115:1
	ldr	r0, [sp, #92]
	add	sp, #96
	pop	{r7, pc}
.Ltmp25:
.Lfunc_end0:
	.size	umqtt_ex_start, .Lfunc_end0-umqtt_ex_start
	.cfi_endproc
	.cantunwind
	.fnend
                                        @ -- End function
	.section	.text.umqtt_ex_stop,"ax",%progbits
	.p2align	3                               @ -- Begin function umqtt_ex_stop
	.type	umqtt_ex_stop,%function
	.code	16                              @ @umqtt_ex_stop
	.thumb_func
umqtt_ex_stop:
.Lfunc_begin1:
	.loc	1 119 0                         @ packages/umqtt-latest/samples/umqtt_sample.c:119:0
	.fnstart
	.cfi_startproc
@ %bb.0:
	.save	{r7, lr}
	push	{r7, lr}
	.cfi_def_cfa_offset 8
	.cfi_offset lr, -4
	.cfi_offset r7, -8
	.pad	#16
	sub	sp, #16
	.cfi_def_cfa_offset 24
	str	r0, [sp, #12]
	str	r1, [sp, #8]
.Ltmp26:
	.loc	1 122 9 prologue_end            @ packages/umqtt-latest/samples/umqtt_sample.c:122:9
	ldr	r0, [sp, #12]
.Ltmp27:
	.loc	1 122 9 is_stmt 0               @ packages/umqtt-latest/samples/umqtt_sample.c:122:9
	cmp	r0, #1
	beq	.LBB1_2
	b	.LBB1_1
.LBB1_1:
.Ltmp28:
	.loc	1 125 5 is_stmt 1               @ packages/umqtt-latest/samples/umqtt_sample.c:125:5
	b	.LBB1_2
.Ltmp29:
.LBB1_2:
	.loc	1 127 16                        @ packages/umqtt-latest/samples/umqtt_sample.c:127:16
	movw	r1, :lower16:is_started
	movt	r1, :upper16:is_started
	movs	r0, #0
	str	r0, [sp, #4]                    @ 4-byte Spill
	str	r0, [r1]
	.loc	1 129 16                        @ packages/umqtt-latest/samples/umqtt_sample.c:129:16
	movw	r0, :lower16:m_umqtt_client
	movt	r0, :upper16:m_umqtt_client
	str	r0, [sp]                        @ 4-byte Spill
	ldr	r0, [r0]
	.loc	1 129 5 is_stmt 0               @ packages/umqtt-latest/samples/umqtt_sample.c:129:5
	bl	umqtt_stop
	ldr	r0, [sp]                        @ 4-byte Reload
	.loc	1 130 18 is_stmt 1              @ packages/umqtt-latest/samples/umqtt_sample.c:130:18
	ldr	r0, [r0]
	.loc	1 130 5 is_stmt 0               @ packages/umqtt-latest/samples/umqtt_sample.c:130:5
	bl	umqtt_delete
	ldr	r1, [sp]                        @ 4-byte Reload
                                        @ kill: def $r2 killed $r0
	.loc	1 131 20 is_stmt 1              @ packages/umqtt-latest/samples/umqtt_sample.c:131:20
	ldr	r0, [sp, #4]                    @ 4-byte Reload
	str	r0, [r1]
	.loc	1 133 5                         @ packages/umqtt-latest/samples/umqtt_sample.c:133:5
	add	sp, #16
	pop	{r7, pc}
.Ltmp30:
.Lfunc_end1:
	.size	umqtt_ex_stop, .Lfunc_end1-umqtt_ex_stop
	.cfi_endproc
	.cantunwind
	.fnend
                                        @ -- End function
	.section	.text.umqtt_ex_publish,"ax",%progbits
	.p2align	3                               @ -- Begin function umqtt_ex_publish
	.type	umqtt_ex_publish,%function
	.code	16                              @ @umqtt_ex_publish
	.thumb_func
umqtt_ex_publish:
.Lfunc_begin2:
	.loc	1 150 0                         @ packages/umqtt-latest/samples/umqtt_sample.c:150:0
	.fnstart
	.cfi_startproc
@ %bb.0:
	.save	{r4, lr}
	push	{r4, lr}
	.cfi_def_cfa_offset 8
	.cfi_offset lr, -4
	.cfi_offset r4, -8
	.pad	#48
	sub	sp, #48
	.cfi_def_cfa_offset 56
	str	r0, [sp, #40]
	str	r1, [sp, #36]
.Ltmp31:
	.loc	1 153 9 prologue_end            @ packages/umqtt-latest/samples/umqtt_sample.c:153:9
	movw	r0, :lower16:is_started
	movt	r0, :upper16:is_started
	ldr	r0, [r0]
.Ltmp32:
	.loc	1 153 9 is_stmt 0               @ packages/umqtt-latest/samples/umqtt_sample.c:153:9
	cbnz	r0, .LBB2_4
	b	.LBB2_1
.LBB2_1:
.Ltmp33:
	.loc	1 155 9 is_stmt 1               @ packages/umqtt-latest/samples/umqtt_sample.c:155:9
	b	.LBB2_2
.LBB2_2:
.Ltmp34:
	.loc	1 155 9 is_stmt 0               @ packages/umqtt-latest/samples/umqtt_sample.c:155:9
	movw	r0, :lower16:.L.str
	movt	r0, :upper16:.L.str
	bl	rt_kprintf
	movw	r0, :lower16:.L.str.10
	movt	r0, :upper16:.L.str.10
	bl	rt_kprintf
	movw	r0, :lower16:.L.str.2
	movt	r0, :upper16:.L.str.2
	bl	rt_kprintf
	b	.LBB2_3
.Ltmp35:
.LBB2_3:
	.loc	1 0 9                           @ packages/umqtt-latest/samples/umqtt_sample.c:0:9
	mov.w	r0, #-1
	.loc	1 156 9 is_stmt 1               @ packages/umqtt-latest/samples/umqtt_sample.c:156:9
	str	r0, [sp, #44]
	b	.LBB2_13
.Ltmp36:
.LBB2_4:
	.loc	1 159 9                         @ packages/umqtt-latest/samples/umqtt_sample.c:159:9
	ldr	r0, [sp, #40]
.Ltmp37:
	.loc	1 159 9 is_stmt 0               @ packages/umqtt-latest/samples/umqtt_sample.c:159:9
	cmp	r0, #4
	bne	.LBB2_9
	b	.LBB2_5
.LBB2_5:
.Ltmp38:
	.loc	1 160 31 is_stmt 1              @ packages/umqtt-latest/samples/umqtt_sample.c:160:31
	ldr	r0, [sp, #36]
	ldr	r0, [r0, #8]
	.loc	1 160 20 is_stmt 0              @ packages/umqtt-latest/samples/umqtt_sample.c:160:20
	bl	str_to_int
	.loc	1 160 13                        @ packages/umqtt-latest/samples/umqtt_sample.c:160:13
	str	r0, [sp, #32]
	.loc	1 163 23 is_stmt 1              @ packages/umqtt-latest/samples/umqtt_sample.c:163:23
	movw	r0, :lower16:m_umqtt_client
	movt	r0, :upper16:m_umqtt_client
	ldr	r0, [r0]
	.loc	1 163 41 is_stmt 0              @ packages/umqtt-latest/samples/umqtt_sample.c:163:41
	str	r0, [sp, #28]                   @ 4-byte Spill
	ldr	r0, [sp, #32]
	.loc	1 163 40                        @ packages/umqtt-latest/samples/umqtt_sample.c:163:40
	cmp	r0, #3
	blt	.LBB2_7
	b	.LBB2_6
.LBB2_6:
	.loc	1 0 40                          @ packages/umqtt-latest/samples/umqtt_sample.c:0:40
	movs	r0, #1
	.loc	1 163 40                        @ packages/umqtt-latest/samples/umqtt_sample.c:163:40
	str	r0, [sp, #24]                   @ 4-byte Spill
	b	.LBB2_8
.LBB2_7:
	.loc	1 163 75                        @ packages/umqtt-latest/samples/umqtt_sample.c:163:75
	ldr	r0, [sp, #32]
	.loc	1 163 40                        @ packages/umqtt-latest/samples/umqtt_sample.c:163:40
	str	r0, [sp, #24]                   @ 4-byte Spill
	b	.LBB2_8
.LBB2_8:
	ldr	r0, [sp, #24]                   @ 4-byte Reload
	.loc	1 163 82                        @ packages/umqtt-latest/samples/umqtt_sample.c:163:82
	str	r0, [sp, #12]                   @ 4-byte Spill
	ldr	r0, [sp, #36]
	ldr	r1, [r0, #4]
	.loc	1 163 91                        @ packages/umqtt-latest/samples/umqtt_sample.c:163:91
	str	r1, [sp, #16]                   @ 4-byte Spill
	ldr	r0, [r0, #12]
	.loc	1 163 100                       @ packages/umqtt-latest/samples/umqtt_sample.c:163:100
	str	r0, [sp, #20]                   @ 4-byte Spill
	bl	strlen
	ldr	r1, [sp, #12]                   @ 4-byte Reload
	ldr	r2, [sp, #16]                   @ 4-byte Reload
	ldr	r3, [sp, #20]                   @ 4-byte Reload
	mov	r12, r0
	.loc	1 163 116                       @ packages/umqtt-latest/samples/umqtt_sample.c:163:116
	ldr	r0, [sp, #28]                   @ 4-byte Reload
	add.w	r12, r12, #1
	.loc	1 163 9                         @ packages/umqtt-latest/samples/umqtt_sample.c:163:9
	mov	lr, sp
	movs	r4, #100
	str.w	r4, [lr, #4]
	str.w	r12, [lr]
	uxtb	r1, r1
	bl	umqtt_publish
	.loc	1 164 5 is_stmt 1               @ packages/umqtt-latest/samples/umqtt_sample.c:164:5
	b	.LBB2_12
.Ltmp39:
.LBB2_9:
	.loc	1 165 9                         @ packages/umqtt-latest/samples/umqtt_sample.c:165:9
	b	.LBB2_10
.LBB2_10:
.Ltmp40:
	.loc	1 165 9 is_stmt 0               @ packages/umqtt-latest/samples/umqtt_sample.c:165:9
	movw	r0, :lower16:.L.str
	movt	r0, :upper16:.L.str
	bl	rt_kprintf
	movw	r0, :lower16:.L.str.11
	movt	r0, :upper16:.L.str.11
	bl	rt_kprintf
	movw	r0, :lower16:.L.str.2
	movt	r0, :upper16:.L.str.2
	bl	rt_kprintf
	b	.LBB2_11
.Ltmp41:
.LBB2_11:
	.loc	1 0 9                           @ packages/umqtt-latest/samples/umqtt_sample.c:0:9
	mov.w	r0, #-1
	.loc	1 166 9 is_stmt 1               @ packages/umqtt-latest/samples/umqtt_sample.c:166:9
	str	r0, [sp, #44]
	b	.LBB2_13
.Ltmp42:
.LBB2_12:
	.loc	1 0 9 is_stmt 0                 @ packages/umqtt-latest/samples/umqtt_sample.c:0:9
	movs	r0, #0
	.loc	1 169 5 is_stmt 1               @ packages/umqtt-latest/samples/umqtt_sample.c:169:5
	str	r0, [sp, #44]
	b	.LBB2_13
.LBB2_13:
	.loc	1 170 1                         @ packages/umqtt-latest/samples/umqtt_sample.c:170:1
	ldr	r0, [sp, #44]
	add	sp, #48
	pop	{r4, pc}
.Ltmp43:
.Lfunc_end2:
	.size	umqtt_ex_publish, .Lfunc_end2-umqtt_ex_publish
	.cfi_endproc
	.cantunwind
	.fnend
                                        @ -- End function
	.section	.text.umqtt_ex_subscribe,"ax",%progbits
	.p2align	3                               @ -- Begin function umqtt_ex_subscribe
	.type	umqtt_ex_subscribe,%function
	.code	16                              @ @umqtt_ex_subscribe
	.thumb_func
umqtt_ex_subscribe:
.Lfunc_begin3:
	.loc	1 173 0                         @ packages/umqtt-latest/samples/umqtt_sample.c:173:0
	.fnstart
	.cfi_startproc
@ %bb.0:
	.save	{r7, lr}
	push	{r7, lr}
	.cfi_def_cfa_offset 8
	.cfi_offset lr, -4
	.cfi_offset r7, -8
	.pad	#16
	sub	sp, #16
	.cfi_def_cfa_offset 24
	str	r0, [sp, #8]
	str	r1, [sp, #4]
.Ltmp44:
	.loc	1 175 9 prologue_end            @ packages/umqtt-latest/samples/umqtt_sample.c:175:9
	ldr	r0, [sp, #8]
.Ltmp45:
	.loc	1 175 9 is_stmt 0               @ packages/umqtt-latest/samples/umqtt_sample.c:175:9
	cmp	r0, #2
	beq	.LBB3_4
	b	.LBB3_1
.LBB3_1:
.Ltmp46:
	.loc	1 177 9 is_stmt 1               @ packages/umqtt-latest/samples/umqtt_sample.c:177:9
	b	.LBB3_2
.LBB3_2:
.Ltmp47:
	.loc	1 177 9 is_stmt 0               @ packages/umqtt-latest/samples/umqtt_sample.c:177:9
	movw	r0, :lower16:.L.str
	movt	r0, :upper16:.L.str
	bl	rt_kprintf
	movw	r0, :lower16:.L.str.12
	movt	r0, :upper16:.L.str.12
	bl	rt_kprintf
	movw	r0, :lower16:.L.str.2
	movt	r0, :upper16:.L.str.2
	bl	rt_kprintf
	b	.LBB3_3
.Ltmp48:
.LBB3_3:
	.loc	1 0 9                           @ packages/umqtt-latest/samples/umqtt_sample.c:0:9
	mov.w	r0, #-1
	.loc	1 178 9 is_stmt 1               @ packages/umqtt-latest/samples/umqtt_sample.c:178:9
	str	r0, [sp, #12]
	b	.LBB3_9
.Ltmp49:
.LBB3_4:
	.loc	1 181 6                         @ packages/umqtt-latest/samples/umqtt_sample.c:181:6
	movw	r0, :lower16:is_started
	movt	r0, :upper16:is_started
	ldr	r0, [r0]
.Ltmp50:
	.loc	1 181 6 is_stmt 0               @ packages/umqtt-latest/samples/umqtt_sample.c:181:6
	cbnz	r0, .LBB3_8
	b	.LBB3_5
.LBB3_5:
.Ltmp51:
	.loc	1 183 9 is_stmt 1               @ packages/umqtt-latest/samples/umqtt_sample.c:183:9
	b	.LBB3_6
.LBB3_6:
.Ltmp52:
	.loc	1 183 9 is_stmt 0               @ packages/umqtt-latest/samples/umqtt_sample.c:183:9
	movw	r0, :lower16:.L.str
	movt	r0, :upper16:.L.str
	bl	rt_kprintf
	movw	r0, :lower16:.L.str.13
	movt	r0, :upper16:.L.str.13
	bl	rt_kprintf
	movw	r0, :lower16:.L.str.2
	movt	r0, :upper16:.L.str.2
	bl	rt_kprintf
	b	.LBB3_7
.Ltmp53:
.LBB3_7:
	.loc	1 0 9                           @ packages/umqtt-latest/samples/umqtt_sample.c:0:9
	mov.w	r0, #-1
	.loc	1 184 9 is_stmt 1               @ packages/umqtt-latest/samples/umqtt_sample.c:184:9
	str	r0, [sp, #12]
	b	.LBB3_9
.Ltmp54:
.LBB3_8:
	.loc	1 187 28                        @ packages/umqtt-latest/samples/umqtt_sample.c:187:28
	movw	r0, :lower16:m_umqtt_client
	movt	r0, :upper16:m_umqtt_client
	ldr	r0, [r0]
	.loc	1 187 44 is_stmt 0              @ packages/umqtt-latest/samples/umqtt_sample.c:187:44
	ldr	r1, [sp, #4]
	ldr	r1, [r1, #4]
	.loc	1 187 12                        @ packages/umqtt-latest/samples/umqtt_sample.c:187:12
	movw	r3, :lower16:umqtt_topic_recv_callback
	movt	r3, :upper16:umqtt_topic_recv_callback
	movs	r2, #1
	bl	umqtt_subscribe
	.loc	1 187 5                         @ packages/umqtt-latest/samples/umqtt_sample.c:187:5
	str	r0, [sp, #12]
	b	.LBB3_9
.LBB3_9:
	.loc	1 188 1 is_stmt 1               @ packages/umqtt-latest/samples/umqtt_sample.c:188:1
	ldr	r0, [sp, #12]
	add	sp, #16
	pop	{r7, pc}
.Ltmp55:
.Lfunc_end3:
	.size	umqtt_ex_subscribe, .Lfunc_end3-umqtt_ex_subscribe
	.cfi_endproc
	.cantunwind
	.fnend
                                        @ -- End function
	.section	.text.umqtt_ex_unsubscribe,"ax",%progbits
	.p2align	3                               @ -- Begin function umqtt_ex_unsubscribe
	.type	umqtt_ex_unsubscribe,%function
	.code	16                              @ @umqtt_ex_unsubscribe
	.thumb_func
umqtt_ex_unsubscribe:
.Lfunc_begin4:
	.loc	1 192 0                         @ packages/umqtt-latest/samples/umqtt_sample.c:192:0
	.fnstart
	.cfi_startproc
@ %bb.0:
	.save	{r7, lr}
	push	{r7, lr}
	.cfi_def_cfa_offset 8
	.cfi_offset lr, -4
	.cfi_offset r7, -8
	.pad	#16
	sub	sp, #16
	.cfi_def_cfa_offset 24
	str	r0, [sp, #8]
	str	r1, [sp, #4]
.Ltmp56:
	.loc	1 195 9 prologue_end            @ packages/umqtt-latest/samples/umqtt_sample.c:195:9
	ldr	r0, [sp, #8]
.Ltmp57:
	.loc	1 195 9 is_stmt 0               @ packages/umqtt-latest/samples/umqtt_sample.c:195:9
	cmp	r0, #2
	beq	.LBB4_4
	b	.LBB4_1
.LBB4_1:
.Ltmp58:
	.loc	1 197 9 is_stmt 1               @ packages/umqtt-latest/samples/umqtt_sample.c:197:9
	b	.LBB4_2
.LBB4_2:
.Ltmp59:
	.loc	1 197 9 is_stmt 0               @ packages/umqtt-latest/samples/umqtt_sample.c:197:9
	movw	r0, :lower16:.L.str
	movt	r0, :upper16:.L.str
	bl	rt_kprintf
	movw	r0, :lower16:.L.str.15
	movt	r0, :upper16:.L.str.15
	bl	rt_kprintf
	movw	r0, :lower16:.L.str.2
	movt	r0, :upper16:.L.str.2
	bl	rt_kprintf
	b	.LBB4_3
.Ltmp60:
.LBB4_3:
	.loc	1 0 9                           @ packages/umqtt-latest/samples/umqtt_sample.c:0:9
	mov.w	r0, #-1
	.loc	1 198 9 is_stmt 1               @ packages/umqtt-latest/samples/umqtt_sample.c:198:9
	str	r0, [sp, #12]
	b	.LBB4_9
.Ltmp61:
.LBB4_4:
	.loc	1 201 6                         @ packages/umqtt-latest/samples/umqtt_sample.c:201:6
	movw	r0, :lower16:is_started
	movt	r0, :upper16:is_started
	ldr	r0, [r0]
.Ltmp62:
	.loc	1 201 6 is_stmt 0               @ packages/umqtt-latest/samples/umqtt_sample.c:201:6
	cbnz	r0, .LBB4_8
	b	.LBB4_5
.LBB4_5:
.Ltmp63:
	.loc	1 203 9 is_stmt 1               @ packages/umqtt-latest/samples/umqtt_sample.c:203:9
	b	.LBB4_6
.LBB4_6:
.Ltmp64:
	.loc	1 203 9 is_stmt 0               @ packages/umqtt-latest/samples/umqtt_sample.c:203:9
	movw	r0, :lower16:.L.str
	movt	r0, :upper16:.L.str
	bl	rt_kprintf
	movw	r0, :lower16:.L.str.10
	movt	r0, :upper16:.L.str.10
	bl	rt_kprintf
	movw	r0, :lower16:.L.str.2
	movt	r0, :upper16:.L.str.2
	bl	rt_kprintf
	b	.LBB4_7
.Ltmp65:
.LBB4_7:
	.loc	1 0 9                           @ packages/umqtt-latest/samples/umqtt_sample.c:0:9
	mov.w	r0, #-1
	.loc	1 204 9 is_stmt 1               @ packages/umqtt-latest/samples/umqtt_sample.c:204:9
	str	r0, [sp, #12]
	b	.LBB4_9
.Ltmp66:
.LBB4_8:
	.loc	1 207 30                        @ packages/umqtt-latest/samples/umqtt_sample.c:207:30
	movw	r0, :lower16:m_umqtt_client
	movt	r0, :upper16:m_umqtt_client
	ldr	r0, [r0]
	.loc	1 207 46 is_stmt 0              @ packages/umqtt-latest/samples/umqtt_sample.c:207:46
	ldr	r1, [sp, #4]
	ldr	r1, [r1, #4]
	.loc	1 207 12                        @ packages/umqtt-latest/samples/umqtt_sample.c:207:12
	bl	umqtt_unsubscribe
	.loc	1 207 5                         @ packages/umqtt-latest/samples/umqtt_sample.c:207:5
	str	r0, [sp, #12]
	b	.LBB4_9
.LBB4_9:
	.loc	1 208 1 is_stmt 1               @ packages/umqtt-latest/samples/umqtt_sample.c:208:1
	ldr	r0, [sp, #12]
	add	sp, #16
	pop	{r7, pc}
.Ltmp67:
.Lfunc_end4:
	.size	umqtt_ex_unsubscribe, .Lfunc_end4-umqtt_ex_unsubscribe
	.cfi_endproc
	.cantunwind
	.fnend
                                        @ -- End function
	.section	.text.user_callback,"ax",%progbits
	.p2align	3                               @ -- Begin function user_callback
	.type	user_callback,%function
	.code	16                              @ @user_callback
	.thumb_func
user_callback:
.Lfunc_begin5:
	.loc	1 38 0                          @ packages/umqtt-latest/samples/umqtt_sample.c:38:0
	.fnstart
	.cfi_startproc
@ %bb.0:
	.save	{r7, lr}
	push	{r7, lr}
	.cfi_def_cfa_offset 8
	.cfi_offset lr, -4
	.cfi_offset r7, -8
	.pad	#16
	sub	sp, #16
	.cfi_def_cfa_offset 24
                                        @ kill: def $r2 killed $r1
	str	r0, [sp, #12]
	strb.w	r1, [sp, #11]
.Ltmp68:
	.loc	1 39 5 prologue_end             @ packages/umqtt-latest/samples/umqtt_sample.c:39:5
	ldr	r0, [sp, #12]
.Ltmp69:
	.loc	1 39 5 is_stmt 0                @ packages/umqtt-latest/samples/umqtt_sample.c:39:5
	cbnz	r0, .LBB5_2
	b	.LBB5_1
.LBB5_1:
.Ltmp70:
	.loc	1 39 5                          @ packages/umqtt-latest/samples/umqtt_sample.c:39:5
	movw	r0, :lower16:.L.str.9
	movt	r0, :upper16:.L.str.9
	movw	r1, :lower16:.L__FUNCTION__.user_callback
	movt	r1, :upper16:.L__FUNCTION__.user_callback
	movs	r2, #39
	bl	rt_assert_handler
	b	.LBB5_2
.Ltmp71:
.LBB5_2:
	.loc	1 41 12 is_stmt 1               @ packages/umqtt-latest/samples/umqtt_sample.c:41:12
	ldrb.w	r0, [sp, #11]
	.loc	1 41 5 is_stmt 0                @ packages/umqtt-latest/samples/umqtt_sample.c:41:5
	mov	r1, r0
	str	r1, [sp, #4]                    @ 4-byte Spill
	cmp	r0, #3
	bhi	.LBB5_9
@ %bb.3:
	.loc	1 0 5                           @ packages/umqtt-latest/samples/umqtt_sample.c:0:5
	ldr	r1, [sp, #4]                    @ 4-byte Reload
.LCPI5_0:
	tbb	[pc, r1]
@ %bb.4:
.LJTI5_0:
	.byte	(.LBB5_5-(.LCPI5_0+4))/2
	.byte	(.LBB5_6-(.LCPI5_0+4))/2
	.byte	(.LBB5_7-(.LCPI5_0+4))/2
	.byte	(.LBB5_8-(.LCPI5_0+4))/2
	.p2align	1
.LBB5_5:
.Ltmp72:
	.loc	1 45 9 is_stmt 1                @ packages/umqtt-latest/samples/umqtt_sample.c:45:9
	b	.LBB5_10
.LBB5_6:
	.loc	1 48 9                          @ packages/umqtt-latest/samples/umqtt_sample.c:48:9
	b	.LBB5_10
.LBB5_7:
	.loc	1 51 9                          @ packages/umqtt-latest/samples/umqtt_sample.c:51:9
	b	.LBB5_10
.LBB5_8:
	.loc	1 54 9                          @ packages/umqtt-latest/samples/umqtt_sample.c:54:9
	b	.LBB5_10
.LBB5_9:
	.loc	1 57 9                          @ packages/umqtt-latest/samples/umqtt_sample.c:57:9
	b	.LBB5_10
.Ltmp73:
.LBB5_10:
	.loc	1 0 9 is_stmt 0                 @ packages/umqtt-latest/samples/umqtt_sample.c:0:9
	movs	r0, #0
	.loc	1 60 5 is_stmt 1                @ packages/umqtt-latest/samples/umqtt_sample.c:60:5
	add	sp, #16
	pop	{r7, pc}
.Ltmp74:
.Lfunc_end5:
	.size	user_callback, .Lfunc_end5-user_callback
	.cfi_endproc
	.cantunwind
	.fnend
                                        @ -- End function
	.section	.text.str_to_int,"ax",%progbits
	.p2align	3                               @ -- Begin function str_to_int
	.type	str_to_int,%function
	.code	16                              @ @str_to_int
	.thumb_func
str_to_int:
.Lfunc_begin6:
	.loc	1 137 0                         @ packages/umqtt-latest/samples/umqtt_sample.c:137:0
	.fnstart
	.cfi_startproc
@ %bb.0:
	.save	{r7, lr}
	push	{r7, lr}
	.cfi_def_cfa_offset 8
	.cfi_offset lr, -4
	.cfi_offset r7, -8
	.pad	#24
	sub	sp, #24
	.cfi_def_cfa_offset 32
	str	r0, [sp, #20]
	movs	r0, #0
.Ltmp75:
	.loc	1 138 9 prologue_end            @ packages/umqtt-latest/samples/umqtt_sample.c:138:9
	str	r0, [sp, #4]                    @ 4-byte Spill
	str	r0, [sp, #16]
	.loc	1 138 19 is_stmt 0              @ packages/umqtt-latest/samples/umqtt_sample.c:138:19
	str	r0, [sp, #12]
	.loc	1 139 26 is_stmt 1              @ packages/umqtt-latest/samples/umqtt_sample.c:139:26
	ldr	r0, [sp, #20]
	.loc	1 139 19 is_stmt 0              @ packages/umqtt-latest/samples/umqtt_sample.c:139:19
	bl	strlen
	mov	r1, r0
	.loc	1 139 9                         @ packages/umqtt-latest/samples/umqtt_sample.c:139:9
	ldr	r0, [sp, #4]                    @ 4-byte Reload
	str	r1, [sp, #8]
.Ltmp76:
	.loc	1 140 15 is_stmt 1              @ packages/umqtt-latest/samples/umqtt_sample.c:140:15
	str	r0, [sp, #12]
	.loc	1 140 10 is_stmt 0              @ packages/umqtt-latest/samples/umqtt_sample.c:140:10
	b	.LBB6_1
.LBB6_1:                                @ =>This Inner Loop Header: Depth=1
.Ltmp77:
	.loc	1 140 20                        @ packages/umqtt-latest/samples/umqtt_sample.c:140:20
	ldr	r0, [sp, #12]
	.loc	1 140 27                        @ packages/umqtt-latest/samples/umqtt_sample.c:140:27
	ldr	r1, [sp, #8]
.Ltmp78:
	.loc	1 140 5                         @ packages/umqtt-latest/samples/umqtt_sample.c:140:5
	cmp	r0, r1
	bge	.LBB6_7
	b	.LBB6_2
.LBB6_2:                                @   in Loop: Header=BB6_1 Depth=1
.Ltmp79:
	.loc	1 141 14 is_stmt 1              @ packages/umqtt-latest/samples/umqtt_sample.c:141:14
	ldr	r0, [sp, #20]
	.loc	1 141 18 is_stmt 0              @ packages/umqtt-latest/samples/umqtt_sample.c:141:18
	ldr	r1, [sp, #12]
	.loc	1 141 14                        @ packages/umqtt-latest/samples/umqtt_sample.c:141:14
	ldrsb	r0, [r0, r1]
	.loc	1 141 32                        @ packages/umqtt-latest/samples/umqtt_sample.c:141:32
	cmp	r0, #48
	blt	.LBB6_5
	b	.LBB6_3
.LBB6_3:                                @   in Loop: Header=BB6_1 Depth=1
	.loc	1 141 36                        @ packages/umqtt-latest/samples/umqtt_sample.c:141:36
	ldr	r0, [sp, #20]
	.loc	1 141 40                        @ packages/umqtt-latest/samples/umqtt_sample.c:141:40
	ldr	r1, [sp, #12]
	.loc	1 141 36                        @ packages/umqtt-latest/samples/umqtt_sample.c:141:36
	ldrsb	r0, [r0, r1]
.Ltmp80:
	.loc	1 141 13                        @ packages/umqtt-latest/samples/umqtt_sample.c:141:13
	cmp	r0, #57
	bgt	.LBB6_5
	b	.LBB6_4
.LBB6_4:                                @   in Loop: Header=BB6_1 Depth=1
.Ltmp81:
	.loc	1 142 20 is_stmt 1              @ packages/umqtt-latest/samples/umqtt_sample.c:142:20
	ldr	r0, [sp, #16]
	.loc	1 142 25 is_stmt 0              @ packages/umqtt-latest/samples/umqtt_sample.c:142:25
	add.w	r1, r0, r0, lsl #2
	.loc	1 142 32                        @ packages/umqtt-latest/samples/umqtt_sample.c:142:32
	ldr	r0, [sp, #20]
	.loc	1 142 36                        @ packages/umqtt-latest/samples/umqtt_sample.c:142:36
	ldr	r2, [sp, #12]
	.loc	1 142 32                        @ packages/umqtt-latest/samples/umqtt_sample.c:142:32
	ldrsb	r0, [r0, r2]
	.loc	1 142 30                        @ packages/umqtt-latest/samples/umqtt_sample.c:142:30
	add.w	r0, r0, r1, lsl #1
	.loc	1 142 42                        @ packages/umqtt-latest/samples/umqtt_sample.c:142:42
	subs	r0, #48
	.loc	1 142 18                        @ packages/umqtt-latest/samples/umqtt_sample.c:142:18
	str	r0, [sp, #16]
	.loc	1 143 9 is_stmt 1               @ packages/umqtt-latest/samples/umqtt_sample.c:143:9
	b	.LBB6_5
.Ltmp82:
.LBB6_5:                                @   in Loop: Header=BB6_1 Depth=1
	.loc	1 144 5                         @ packages/umqtt-latest/samples/umqtt_sample.c:144:5
	b	.LBB6_6
.Ltmp83:
.LBB6_6:                                @   in Loop: Header=BB6_1 Depth=1
	.loc	1 140 40                        @ packages/umqtt-latest/samples/umqtt_sample.c:140:40
	ldr	r0, [sp, #12]
	adds	r0, #1
	str	r0, [sp, #12]
	.loc	1 140 5 is_stmt 0               @ packages/umqtt-latest/samples/umqtt_sample.c:140:5
	b	.LBB6_1
.Ltmp84:
.LBB6_7:
	.loc	1 146 12 is_stmt 1              @ packages/umqtt-latest/samples/umqtt_sample.c:146:12
	ldr	r0, [sp, #16]
	.loc	1 146 5 is_stmt 0               @ packages/umqtt-latest/samples/umqtt_sample.c:146:5
	add	sp, #24
	pop	{r7, pc}
.Ltmp85:
.Lfunc_end6:
	.size	str_to_int, .Lfunc_end6-str_to_int
	.cfi_endproc
	.cantunwind
	.fnend
                                        @ -- End function
	.section	.text.umqtt_topic_recv_callback,"ax",%progbits
	.p2align	3                               @ -- Begin function umqtt_topic_recv_callback
	.type	umqtt_topic_recv_callback,%function
	.code	16                              @ @umqtt_topic_recv_callback
	.thumb_func
umqtt_topic_recv_callback:
.Lfunc_begin7:
	.loc	1 64 0 is_stmt 1                @ packages/umqtt-latest/samples/umqtt_sample.c:64:0
	.fnstart
	.cfi_startproc
@ %bb.0:
	.save	{r7, lr}
	push	{r7, lr}
	.cfi_def_cfa_offset 8
	.cfi_offset lr, -4
	.cfi_offset r7, -8
	.pad	#16
	sub	sp, #16
	.cfi_def_cfa_offset 24
	str	r0, [sp, #12]
	str	r1, [sp, #8]
.Ltmp86:
	.loc	1 65 5 prologue_end             @ packages/umqtt-latest/samples/umqtt_sample.c:65:5
	ldr	r0, [sp, #12]
.Ltmp87:
	.loc	1 65 5 is_stmt 0                @ packages/umqtt-latest/samples/umqtt_sample.c:65:5
	cbnz	r0, .LBB7_2
	b	.LBB7_1
.LBB7_1:
.Ltmp88:
	.loc	1 65 5                          @ packages/umqtt-latest/samples/umqtt_sample.c:65:5
	movw	r0, :lower16:.L.str.9
	movt	r0, :upper16:.L.str.9
	movw	r1, :lower16:.L__FUNCTION__.umqtt_topic_recv_callback
	movt	r1, :upper16:.L__FUNCTION__.umqtt_topic_recv_callback
	movs	r2, #65
	bl	rt_assert_handler
	b	.LBB7_2
.Ltmp89:
.LBB7_2:
	.loc	1 66 5 is_stmt 1                @ packages/umqtt-latest/samples/umqtt_sample.c:66:5
	ldr	r0, [sp, #8]
.Ltmp90:
	.loc	1 66 5 is_stmt 0                @ packages/umqtt-latest/samples/umqtt_sample.c:66:5
	cbnz	r0, .LBB7_4
	b	.LBB7_3
.LBB7_3:
.Ltmp91:
	.loc	1 66 5                          @ packages/umqtt-latest/samples/umqtt_sample.c:66:5
	movw	r0, :lower16:.L.str.14
	movt	r0, :upper16:.L.str.14
	movw	r1, :lower16:.L__FUNCTION__.umqtt_topic_recv_callback
	movt	r1, :upper16:.L__FUNCTION__.umqtt_topic_recv_callback
	movs	r2, #66
	bl	rt_assert_handler
	b	.LBB7_4
.Ltmp92:
.LBB7_4:
	.loc	1 67 67 is_stmt 1               @ packages/umqtt-latest/samples/umqtt_sample.c:67:67
	ldr	r0, [sp, #8]
	.loc	1 67 32 is_stmt 0               @ packages/umqtt-latest/samples/umqtt_sample.c:67:32
	str	r0, [sp, #4]
	.loc	1 74 1 is_stmt 1                @ packages/umqtt-latest/samples/umqtt_sample.c:74:1
	add	sp, #16
	pop	{r7, pc}
.Ltmp93:
.Lfunc_end7:
	.size	umqtt_topic_recv_callback, .Lfunc_end7-umqtt_topic_recv_callback
	.cfi_endproc
	.cantunwind
	.fnend
                                        @ -- End function
	.hidden	__fsym___cmd_umqtt_ex_start_name @ @__fsym___cmd_umqtt_ex_start_name
	.type	__fsym___cmd_umqtt_ex_start_name,%object
	.section	.rodata.name,"a",%progbits
	.globl	__fsym___cmd_umqtt_ex_start_name
__fsym___cmd_umqtt_ex_start_name:
	.asciz	"__cmd_umqtt_ex_start"
	.size	__fsym___cmd_umqtt_ex_start_name, 21

	.hidden	__fsym___cmd_umqtt_ex_start_desc @ @__fsym___cmd_umqtt_ex_start_desc
	.type	__fsym___cmd_umqtt_ex_start_desc,%object
	.globl	__fsym___cmd_umqtt_ex_start_desc
__fsym___cmd_umqtt_ex_start_desc:
	.asciz	"startup umqtt client"
	.size	__fsym___cmd_umqtt_ex_start_desc, 21

	.hidden	__fsym___cmd_umqtt_ex_start     @ @__fsym___cmd_umqtt_ex_start
	.type	__fsym___cmd_umqtt_ex_start,%object
	.section	FSymTab,"a",%progbits
	.globl	__fsym___cmd_umqtt_ex_start
	.p2align	2
__fsym___cmd_umqtt_ex_start:
__tagsym$$used.0:
	.long	__fsym___cmd_umqtt_ex_start_name
	.long	__fsym___cmd_umqtt_ex_start_desc
	.long	umqtt_ex_start
	.size	__fsym___cmd_umqtt_ex_start, 12

	.hidden	__fsym___cmd_umqtt_ex_stop_name @ @__fsym___cmd_umqtt_ex_stop_name
	.type	__fsym___cmd_umqtt_ex_stop_name,%object
	.section	.rodata.name,"a",%progbits
	.globl	__fsym___cmd_umqtt_ex_stop_name
__fsym___cmd_umqtt_ex_stop_name:
	.asciz	"__cmd_umqtt_ex_stop"
	.size	__fsym___cmd_umqtt_ex_stop_name, 20

	.hidden	__fsym___cmd_umqtt_ex_stop_desc @ @__fsym___cmd_umqtt_ex_stop_desc
	.type	__fsym___cmd_umqtt_ex_stop_desc,%object
	.globl	__fsym___cmd_umqtt_ex_stop_desc
__fsym___cmd_umqtt_ex_stop_desc:
	.asciz	"stop umqtt client"
	.size	__fsym___cmd_umqtt_ex_stop_desc, 18

	.hidden	__fsym___cmd_umqtt_ex_stop      @ @__fsym___cmd_umqtt_ex_stop
	.type	__fsym___cmd_umqtt_ex_stop,%object
	.section	FSymTab,"a",%progbits
	.globl	__fsym___cmd_umqtt_ex_stop
	.p2align	2
__fsym___cmd_umqtt_ex_stop:
__tagsym$$used.1:
	.long	__fsym___cmd_umqtt_ex_stop_name
	.long	__fsym___cmd_umqtt_ex_stop_desc
	.long	umqtt_ex_stop
	.size	__fsym___cmd_umqtt_ex_stop, 12

	.hidden	__fsym___cmd_umqtt_ex_publish_name @ @__fsym___cmd_umqtt_ex_publish_name
	.type	__fsym___cmd_umqtt_ex_publish_name,%object
	.section	.rodata.name,"a",%progbits
	.globl	__fsym___cmd_umqtt_ex_publish_name
__fsym___cmd_umqtt_ex_publish_name:
	.asciz	"__cmd_umqtt_ex_publish"
	.size	__fsym___cmd_umqtt_ex_publish_name, 23

	.hidden	__fsym___cmd_umqtt_ex_publish_desc @ @__fsym___cmd_umqtt_ex_publish_desc
	.type	__fsym___cmd_umqtt_ex_publish_desc,%object
	.globl	__fsym___cmd_umqtt_ex_publish_desc
__fsym___cmd_umqtt_ex_publish_desc:
	.asciz	"umqtt publish message to specified topic"
	.size	__fsym___cmd_umqtt_ex_publish_desc, 41

	.hidden	__fsym___cmd_umqtt_ex_publish   @ @__fsym___cmd_umqtt_ex_publish
	.type	__fsym___cmd_umqtt_ex_publish,%object
	.section	FSymTab,"a",%progbits
	.globl	__fsym___cmd_umqtt_ex_publish
	.p2align	2
__fsym___cmd_umqtt_ex_publish:
__tagsym$$used.2:
	.long	__fsym___cmd_umqtt_ex_publish_name
	.long	__fsym___cmd_umqtt_ex_publish_desc
	.long	umqtt_ex_publish
	.size	__fsym___cmd_umqtt_ex_publish, 12

	.hidden	__fsym___cmd_umqtt_ex_subscribe_name @ @__fsym___cmd_umqtt_ex_subscribe_name
	.type	__fsym___cmd_umqtt_ex_subscribe_name,%object
	.section	.rodata.name,"a",%progbits
	.globl	__fsym___cmd_umqtt_ex_subscribe_name
__fsym___cmd_umqtt_ex_subscribe_name:
	.asciz	"__cmd_umqtt_ex_subscribe"
	.size	__fsym___cmd_umqtt_ex_subscribe_name, 25

	.hidden	__fsym___cmd_umqtt_ex_subscribe_desc @ @__fsym___cmd_umqtt_ex_subscribe_desc
	.type	__fsym___cmd_umqtt_ex_subscribe_desc,%object
	.globl	__fsym___cmd_umqtt_ex_subscribe_desc
__fsym___cmd_umqtt_ex_subscribe_desc:
	.asciz	"umqtt subscribe topic"
	.size	__fsym___cmd_umqtt_ex_subscribe_desc, 22

	.hidden	__fsym___cmd_umqtt_ex_subscribe @ @__fsym___cmd_umqtt_ex_subscribe
	.type	__fsym___cmd_umqtt_ex_subscribe,%object
	.section	FSymTab,"a",%progbits
	.globl	__fsym___cmd_umqtt_ex_subscribe
	.p2align	2
__fsym___cmd_umqtt_ex_subscribe:
__tagsym$$used.3:
	.long	__fsym___cmd_umqtt_ex_subscribe_name
	.long	__fsym___cmd_umqtt_ex_subscribe_desc
	.long	umqtt_ex_subscribe
	.size	__fsym___cmd_umqtt_ex_subscribe, 12

	.hidden	__fsym___cmd_umqtt_ex_unsubscribe_name @ @__fsym___cmd_umqtt_ex_unsubscribe_name
	.type	__fsym___cmd_umqtt_ex_unsubscribe_name,%object
	.section	.rodata.name,"a",%progbits
	.globl	__fsym___cmd_umqtt_ex_unsubscribe_name
__fsym___cmd_umqtt_ex_unsubscribe_name:
	.asciz	"__cmd_umqtt_ex_unsubscribe"
	.size	__fsym___cmd_umqtt_ex_unsubscribe_name, 27

	.hidden	__fsym___cmd_umqtt_ex_unsubscribe_desc @ @__fsym___cmd_umqtt_ex_unsubscribe_desc
	.type	__fsym___cmd_umqtt_ex_unsubscribe_desc,%object
	.globl	__fsym___cmd_umqtt_ex_unsubscribe_desc
__fsym___cmd_umqtt_ex_unsubscribe_desc:
	.asciz	"umqtt unsubscribe topic"
	.size	__fsym___cmd_umqtt_ex_unsubscribe_desc, 24

	.hidden	__fsym___cmd_umqtt_ex_unsubscribe @ @__fsym___cmd_umqtt_ex_unsubscribe
	.type	__fsym___cmd_umqtt_ex_unsubscribe,%object
	.section	FSymTab,"a",%progbits
	.globl	__fsym___cmd_umqtt_ex_unsubscribe
	.p2align	2
__fsym___cmd_umqtt_ex_unsubscribe:
__tagsym$$used.4:
	.long	__fsym___cmd_umqtt_ex_unsubscribe_name
	.long	__fsym___cmd_umqtt_ex_unsubscribe_desc
	.long	umqtt_ex_unsubscribe
	.size	__fsym___cmd_umqtt_ex_unsubscribe, 12

	.type	.L.str,%object                  @ @.str
	.section	.rodata.str1.1,"aMS",%progbits,1
.L.str:
	.asciz	"[E/umqtt.sample] "
	.size	.L.str, 18

	.type	.L.str.1,%object                @ @.str.1
.L.str.1:
	.asciz	" umqtt_start    --start a umqtt worker thread."
	.size	.L.str.1, 47

	.type	.L.str.2,%object                @ @.str.2
.L.str.2:
	.asciz	"\n"
	.size	.L.str.2, 2

	.type	is_started,%object              @ @is_started
	.section	.bss.is_started,"aw",%nobits
	.p2align	2
is_started:
	.long	0                               @ 0x0
	.size	is_started, 4

	.type	.L.str.3,%object                @ @.str.3
	.section	.rodata.str1.1,"aMS",%progbits,1
.L.str.3:
	.asciz	" umqtt client is already connected."
	.size	.L.str.3, 36

	.type	.L.str.4,%object                @ @.str.4
.L.str.4:
	.asciz	"tcp://192.168.12.83:1883"
	.size	.L.str.4, 25

	.type	m_umqtt_client,%object          @ @m_umqtt_client
	.section	.bss.m_umqtt_client,"aw",%nobits
	.p2align	2
m_umqtt_client:
	.long	0
	.size	m_umqtt_client, 4

	.type	.L.str.5,%object                @ @.str.5
	.section	.rodata.str1.1,"aMS",%progbits,1
.L.str.5:
	.asciz	" umqtt client create failed!"
	.size	.L.str.5, 29

	.type	.L.str.6,%object                @ @.str.6
.L.str.6:
	.asciz	"[I/umqtt.sample] "
	.size	.L.str.6, 18

	.type	.L.str.7,%object                @ @.str.7
.L.str.7:
	.asciz	" umqtt start success!"
	.size	.L.str.7, 22

	.type	.L.str.8,%object                @ @.str.8
.L.str.8:
	.asciz	" umqtt start failed!"
	.size	.L.str.8, 21

	.type	.L.str.9,%object                @ @.str.9
.L.str.9:
	.asciz	"client"
	.size	.L.str.9, 7

	.type	.L__FUNCTION__.user_callback,%object @ @__FUNCTION__.user_callback
.L__FUNCTION__.user_callback:
	.asciz	"user_callback"
	.size	.L__FUNCTION__.user_callback, 14

	.type	.L.str.10,%object               @ @.str.10
.L.str.10:
	.asciz	"mqtt client is not connected."
	.size	.L.str.10, 30

	.type	.L.str.11,%object               @ @.str.11
.L.str.11:
	.asciz	"mqtt_publish <topic> <0/1/2> [message]  --mqtt publish message to specified topic.\n"
	.size	.L.str.11, 84

	.type	.L.str.12,%object               @ @.str.12
.L.str.12:
	.asciz	"umqtt_subscribe [topic]  --send an umqtt subscribe packet and wait for suback before returning.\n"
	.size	.L.str.12, 97

	.type	.L.str.13,%object               @ @.str.13
.L.str.13:
	.asciz	"umqtt client is not connected."
	.size	.L.str.13, 31

	.type	.L__FUNCTION__.umqtt_topic_recv_callback,%object @ @__FUNCTION__.umqtt_topic_recv_callback
.L__FUNCTION__.umqtt_topic_recv_callback:
	.asciz	"umqtt_topic_recv_callback"
	.size	.L__FUNCTION__.umqtt_topic_recv_callback, 26

	.type	.L.str.14,%object               @ @.str.14
.L.str.14:
	.asciz	"msg_data"
	.size	.L.str.14, 9

	.type	.L.str.15,%object               @ @.str.15
.L.str.15:
	.asciz	"mqtt_unsubscribe [topic]  --send an mqtt unsubscribe packet and wait for suback before returning.\n"
	.size	.L.str.15, 99

	.globl	__fsym___cmd_umqtt_ex_start
	.globl	__fsym___cmd_umqtt_ex_stop
	.globl	__fsym___cmd_umqtt_ex_publish
	.globl	__fsym___cmd_umqtt_ex_subscribe
	.globl	__fsym___cmd_umqtt_ex_unsubscribe
	.section	".note.GNU-stack","",%progbits
	.eabi_attribute	30, 6	@ Tag_ABI_optimization_goals
	.ARM_attribute	16, 1	@ Tag_AV_eba