	.text
	.syntax unified
	.eabi_attribute	67, "2.09"	@ Tag_conformance
	.cpu	cortex-m7
	.eabi_attribute	6, 13	@ Tag_CPU_arch
	.eabi_attribute	7, 77	@ Tag_CPU_arch_profile
	.eabi_attribute	8, 0	@ Tag_ARM_ISA_use
	.eabi_attribute	9, 2	@ Tag_THUMB_ISA_use
	.fpu	fpv5-d16
	.eabi_attribute	36, 1	@ Tag_FP_HP_extension
	.eabi_attribute	34, 1	@ Tag_CPU_unaligned_access
	.eabi_attribute	17, 1	@ Tag_ABI_PCS_GOT_use
	.eabi_attribute	20, 2	@ Tag_ABI_FP_denormal
	.eabi_attribute	21, 0	@ Tag_ABI_FP_exceptions
	.eabi_attribute	23, 1	@ Tag_ABI_FP_number_model
	.eabi_attribute	24, 1	@ Tag_ABI_align_needed
	.eabi_attribute	25, 1	@ Tag_ABI_align_preserved
	.eabi_attribute	28, 1	@ Tag_ABI_VFP_args
	.eabi_attribute	38, 1	@ Tag_ABI_FP_16bit_format
	.eabi_attribute	18, 2	@ Tag_ABI_PCS_wchar_t
	.eabi_attribute	26, 1	@ Tag_ABI_enum_size
	.eabi_attribute	14, 0	@ Tag_ABI_PCS_R9_use
	.file	"umqtt_pkgs_encode.c"
	.file	1 "E:\\Smart-access-control\\Hardware\\CODE" "./packages/umqtt-latest/inc\\umqtt_internal.h"
	.file	2 "E:\\Smart-access-control\\Hardware\\CODE" "./packages/umqtt-latest/inc/umqtt.h"
	.section	.text.umqtt_encode,"ax",%progbits
	.hidden	umqtt_encode                    @ -- Begin function umqtt_encode
	.globl	umqtt_encode
	.p2align	3
	.type	umqtt_encode,%function
	.code	16                              @ @umqtt_encode
	.thumb_func
umqtt_encode:
.Lfunc_begin0:
	.file	3 "E:\\Smart-access-control\\Hardware\\CODE" "packages/umqtt-latest/src/pkgs/umqtt_pkgs_encode.c"
	.loc	3 424 0                         @ packages/umqtt-latest/src/pkgs/umqtt_pkgs_encode.c:424:0
	.fnstart
	.cfi_sections .debug_frame
	.cfi_startproc
@ %bb.0:
	.save	{r7, lr}
	push	{r7, lr}
	.cfi_def_cfa_offset 8
	.cfi_offset lr, -4
	.cfi_offset r7, -8
	.pad	#32
	sub	sp, #32
	.cfi_def_cfa_offset 40
                                        @ kill: def $r12 killed $r0
	strb.w	r0, [sp, #31]
	str	r1, [sp, #24]
	str	r2, [sp, #20]
	str	r3, [sp, #16]
	movs	r0, #0
.Ltmp0:
	.loc	3 425 9 prologue_end            @ packages/umqtt-latest/src/pkgs/umqtt_pkgs_encode.c:425:9
	str	r0, [sp, #12]
	.loc	3 426 13                        @ packages/umqtt-latest/src/pkgs/umqtt_pkgs_encode.c:426:13
	ldrb.w	r0, [sp, #31]
	.loc	3 426 5 is_stmt 0               @ packages/umqtt-latest/src/pkgs/umqtt_pkgs_encode.c:426:5
	subs	r0, #1
	mov	r1, r0
	str	r1, [sp, #8]                    @ 4-byte Spill
	cmp	r0, #13
	bhi	.LBB0_13
@ %bb.1:
	.loc	3 0 5                           @ packages/umqtt-latest/src/pkgs/umqtt_pkgs_encode.c:0:5
	ldr	r1, [sp, #8]                    @ 4-byte Reload
.LCPI0_0:
	tbb	[pc, r1]
@ %bb.2:
.LJTI0_0:
	.byte	(.LBB0_3-(.LCPI0_0+4))/2
	.byte	(.LBB0_13-(.LCPI0_0+4))/2
	.byte	(.LBB0_4-(.LCPI0_0+4))/2
	.byte	(.LBB0_5-(.LCPI0_0+4))/2
	.byte	(.LBB0_6-(.LCPI0_0+4))/2
	.byte	(.LBB0_7-(.LCPI0_0+4))/2
	.byte	(.LBB0_8-(.LCPI0_0+4))/2
	.byte	(.LBB0_9-(.LCPI0_0+4))/2
	.byte	(.LBB0_13-(.LCPI0_0+4))/2
	.byte	(.LBB0_10-(.LCPI0_0+4))/2
	.byte	(.LBB0_13-(.LCPI0_0+4))/2
	.byte	(.LBB0_11-(.LCPI0_0+4))/2
	.byte	(.LBB0_13-(.LCPI0_0+4))/2
	.byte	(.LBB0_12-(.LCPI0_0+4))/2
	.p2align	1
.LBB0_3:
.Ltmp1:
	.loc	3 429 37 is_stmt 1              @ packages/umqtt-latest/src/pkgs/umqtt_pkgs_encode.c:429:37
	ldr	r0, [sp, #24]
	.loc	3 429 47 is_stmt 0              @ packages/umqtt-latest/src/pkgs/umqtt_pkgs_encode.c:429:47
	ldr	r1, [sp, #20]
	.loc	3 429 59                        @ packages/umqtt-latest/src/pkgs/umqtt_pkgs_encode.c:429:59
	ldr	r2, [sp, #16]
	.loc	3 429 68                        @ packages/umqtt-latest/src/pkgs/umqtt_pkgs_encode.c:429:68
	adds	r2, #8
	.loc	3 429 16                        @ packages/umqtt-latest/src/pkgs/umqtt_pkgs_encode.c:429:16
	bl	umqtt_connect_encode
	.loc	3 429 14                        @ packages/umqtt-latest/src/pkgs/umqtt_pkgs_encode.c:429:14
	str	r0, [sp, #12]
	.loc	3 430 9 is_stmt 1               @ packages/umqtt-latest/src/pkgs/umqtt_pkgs_encode.c:430:9
	b	.LBB0_14
.LBB0_4:
	.loc	3 432 37                        @ packages/umqtt-latest/src/pkgs/umqtt_pkgs_encode.c:432:37
	ldr	r0, [sp, #24]
	.loc	3 432 47 is_stmt 0              @ packages/umqtt-latest/src/pkgs/umqtt_pkgs_encode.c:432:47
	ldr	r1, [sp, #20]
	.loc	3 432 57                        @ packages/umqtt-latest/src/pkgs/umqtt_pkgs_encode.c:432:57
	ldr.w	r12, [sp, #16]
	.loc	3 432 78                        @ packages/umqtt-latest/src/pkgs/umqtt_pkgs_encode.c:432:78
	ldrb	r3, [r12], #8
	ubfx	r2, r3, #3, #1
	.loc	3 432 104                       @ packages/umqtt-latest/src/pkgs/umqtt_pkgs_encode.c:432:104
	ubfx	r3, r3, #1, #2
	.loc	3 432 16                        @ packages/umqtt-latest/src/pkgs/umqtt_pkgs_encode.c:432:16
	mov	lr, sp
	str.w	r12, [lr]
	bl	umqtt_publish_encode
	.loc	3 432 14                        @ packages/umqtt-latest/src/pkgs/umqtt_pkgs_encode.c:432:14
	str	r0, [sp, #12]
	.loc	3 433 9 is_stmt 1               @ packages/umqtt-latest/src/pkgs/umqtt_pkgs_encode.c:433:9
	b	.LBB0_14
.LBB0_5:
	.loc	3 435 36                        @ packages/umqtt-latest/src/pkgs/umqtt_pkgs_encode.c:435:36
	ldr	r0, [sp, #24]
	.loc	3 435 46 is_stmt 0              @ packages/umqtt-latest/src/pkgs/umqtt_pkgs_encode.c:435:46
	ldr	r1, [sp, #20]
	.loc	3 435 56                        @ packages/umqtt-latest/src/pkgs/umqtt_pkgs_encode.c:435:56
	ldr	r2, [sp, #16]
	.loc	3 435 76                        @ packages/umqtt-latest/src/pkgs/umqtt_pkgs_encode.c:435:76
	ldrh	r2, [r2, #8]
	.loc	3 435 16                        @ packages/umqtt-latest/src/pkgs/umqtt_pkgs_encode.c:435:16
	bl	umqtt_puback_encode
	.loc	3 435 14                        @ packages/umqtt-latest/src/pkgs/umqtt_pkgs_encode.c:435:14
	str	r0, [sp, #12]
	.loc	3 436 9 is_stmt 1               @ packages/umqtt-latest/src/pkgs/umqtt_pkgs_encode.c:436:9
	b	.LBB0_14
.LBB0_6:
	.loc	3 439 9                         @ packages/umqtt-latest/src/pkgs/umqtt_pkgs_encode.c:439:9
	b	.LBB0_14
.LBB0_7:
	.loc	3 441 36                        @ packages/umqtt-latest/src/pkgs/umqtt_pkgs_encode.c:441:36
	ldr	r0, [sp, #24]
	.loc	3 441 46 is_stmt 0              @ packages/umqtt-latest/src/pkgs/umqtt_pkgs_encode.c:441:46
	ldr	r1, [sp, #20]
	.loc	3 441 56                        @ packages/umqtt-latest/src/pkgs/umqtt_pkgs_encode.c:441:56
	ldr	r3, [sp, #16]
	.loc	3 441 77                        @ packages/umqtt-latest/src/pkgs/umqtt_pkgs_encode.c:441:77
	ldrb	r2, [r3]
	ubfx	r2, r2, #3, #1
	.loc	3 441 102                       @ packages/umqtt-latest/src/pkgs/umqtt_pkgs_encode.c:441:102
	ldrh	r3, [r3, #8]
	.loc	3 441 16                        @ packages/umqtt-latest/src/pkgs/umqtt_pkgs_encode.c:441:16
	bl	umqtt_pubrel_encode
	.loc	3 441 14                        @ packages/umqtt-latest/src/pkgs/umqtt_pkgs_encode.c:441:14
	str	r0, [sp, #12]
	.loc	3 442 9 is_stmt 1               @ packages/umqtt-latest/src/pkgs/umqtt_pkgs_encode.c:442:9
	b	.LBB0_14
.LBB0_8:
	.loc	3 444 37                        @ packages/umqtt-latest/src/pkgs/umqtt_pkgs_encode.c:444:37
	ldr	r0, [sp, #24]
	.loc	3 444 47 is_stmt 0              @ packages/umqtt-latest/src/pkgs/umqtt_pkgs_encode.c:444:47
	ldr	r1, [sp, #20]
	.loc	3 444 57                        @ packages/umqtt-latest/src/pkgs/umqtt_pkgs_encode.c:444:57
	ldr	r2, [sp, #16]
	.loc	3 444 78                        @ packages/umqtt-latest/src/pkgs/umqtt_pkgs_encode.c:444:78
	ldrh	r2, [r2, #8]
	.loc	3 444 16                        @ packages/umqtt-latest/src/pkgs/umqtt_pkgs_encode.c:444:16
	bl	umqtt_pubcomp_encode
	.loc	3 444 14                        @ packages/umqtt-latest/src/pkgs/umqtt_pkgs_encode.c:444:14
	str	r0, [sp, #12]
	.loc	3 445 9 is_stmt 1               @ packages/umqtt-latest/src/pkgs/umqtt_pkgs_encode.c:445:9
	b	.LBB0_14
.LBB0_9:
	.loc	3 447 39                        @ packages/umqtt-latest/src/pkgs/umqtt_pkgs_encode.c:447:39
	ldr	r0, [sp, #24]
	.loc	3 447 49 is_stmt 0              @ packages/umqtt-latest/src/pkgs/umqtt_pkgs_encode.c:447:49
	ldr	r1, [sp, #20]
	.loc	3 447 61                        @ packages/umqtt-latest/src/pkgs/umqtt_pkgs_encode.c:447:61
	ldr	r2, [sp, #16]
	.loc	3 447 70                        @ packages/umqtt-latest/src/pkgs/umqtt_pkgs_encode.c:447:70
	adds	r2, #8
	.loc	3 447 16                        @ packages/umqtt-latest/src/pkgs/umqtt_pkgs_encode.c:447:16
	bl	umqtt_subscribe_encode
	.loc	3 447 14                        @ packages/umqtt-latest/src/pkgs/umqtt_pkgs_encode.c:447:14
	str	r0, [sp, #12]
	.loc	3 448 9 is_stmt 1               @ packages/umqtt-latest/src/pkgs/umqtt_pkgs_encode.c:448:9
	b	.LBB0_14
.LBB0_10:
	.loc	3 450 41                        @ packages/umqtt-latest/src/pkgs/umqtt_pkgs_encode.c:450:41
	ldr	r0, [sp, #24]
	.loc	3 450 51 is_stmt 0              @ packages/umqtt-latest/src/pkgs/umqtt_pkgs_encode.c:450:51
	ldr	r1, [sp, #20]
	.loc	3 450 63                        @ packages/umqtt-latest/src/pkgs/umqtt_pkgs_encode.c:450:63
	ldr	r2, [sp, #16]
	.loc	3 450 72                        @ packages/umqtt-latest/src/pkgs/umqtt_pkgs_encode.c:450:72
	adds	r2, #8
	.loc	3 450 16                        @ packages/umqtt-latest/src/pkgs/umqtt_pkgs_encode.c:450:16
	bl	umqtt_unsubscribe_encode
	.loc	3 450 14                        @ packages/umqtt-latest/src/pkgs/umqtt_pkgs_encode.c:450:14
	str	r0, [sp, #12]
	.loc	3 451 9 is_stmt 1               @ packages/umqtt-latest/src/pkgs/umqtt_pkgs_encode.c:451:9
	b	.LBB0_14
.LBB0_11:
	.loc	3 453 37                        @ packages/umqtt-latest/src/pkgs/umqtt_pkgs_encode.c:453:37
	ldr	r0, [sp, #24]
	.loc	3 453 47 is_stmt 0              @ packages/umqtt-latest/src/pkgs/umqtt_pkgs_encode.c:453:47
	ldr	r1, [sp, #20]
	.loc	3 453 16                        @ packages/umqtt-latest/src/pkgs/umqtt_pkgs_encode.c:453:16
	bl	umqtt_pingreq_encode
	.loc	3 453 14                        @ packages/umqtt-latest/src/pkgs/umqtt_pkgs_encode.c:453:14
	str	r0, [sp, #12]
	.loc	3 454 9 is_stmt 1               @ packages/umqtt-latest/src/pkgs/umqtt_pkgs_encode.c:454:9
	b	.LBB0_14
.LBB0_12:
	.loc	3 456 40                        @ packages/umqtt-latest/src/pkgs/umqtt_pkgs_encode.c:456:40
	ldr	r0, [sp, #24]
	.loc	3 456 50 is_stmt 0              @ packages/umqtt-latest/src/pkgs/umqtt_pkgs_encode.c:456:50
	ldr	r1, [sp, #20]
	.loc	3 456 16                        @ packages/umqtt-latest/src/pkgs/umqtt_pkgs_encode.c:456:16
	bl	umqtt_disconnect_encode
	.loc	3 456 14                        @ packages/umqtt-latest/src/pkgs/umqtt_pkgs_encode.c:456:14
	str	r0, [sp, #12]
	.loc	3 457 9 is_stmt 1               @ packages/umqtt-latest/src/pkgs/umqtt_pkgs_encode.c:457:9
	b	.LBB0_14
.LBB0_13:
	.loc	3 459 9                         @ packages/umqtt-latest/src/pkgs/umqtt_pkgs_encode.c:459:9
	b	.LBB0_14
.Ltmp2:
.LBB0_14:
	.loc	3 461 12                        @ packages/umqtt-latest/src/pkgs/umqtt_pkgs_encode.c:461:12
	ldr	r0, [sp, #12]
	.loc	3 461 5 is_stmt 0               @ packages/umqtt-latest/src/pkgs/umqtt_pkgs_encode.c:461:5
	add	sp, #32
	pop	{r7, pc}
.Ltmp3:
.Lfunc_end0:
	.size	umqtt_encode, .Lfunc_end0-umqtt_encode
	.cfi_endproc
	.cantunwind
	.fnend
                                        @ -- End function
	.section	.text.umqtt_connect_encode,"ax",%progbits
	.p2align	3                               @ -- Begin function umqtt_connect_encode
	.type	umqtt_connect_encode,%function
	.code	16                              @ @umqtt_connect_encode
	.thumb_func
umqtt_connect_encode:
.Lfunc_begin1:
	.loc	3 288 0 is_stmt 1               @ packages/umqtt-latest/src/pkgs/umqtt_pkgs_encode.c:288:0
	.fnstart
	.cfi_startproc
@ %bb.0:
	.save	{r7, lr}
	push	{r7, lr}
	.cfi_def_cfa_offset 8
	.cfi_offset lr, -4
	.cfi_offset r7, -8
	.pad	#16
	sub	sp, #16
	.cfi_def_cfa_offset 24
	str	r0, [sp, #12]
	str	r1, [sp, #8]
	str	r2, [sp, #4]
.Ltmp4:
	.loc	3 289 34 prologue_end           @ packages/umqtt-latest/src/pkgs/umqtt_pkgs_encode.c:289:34
	ldr	r0, [sp, #12]
	.loc	3 289 44 is_stmt 0              @ packages/umqtt-latest/src/pkgs/umqtt_pkgs_encode.c:289:44
	ldr	r1, [sp, #8]
	.loc	3 289 54                        @ packages/umqtt-latest/src/pkgs/umqtt_pkgs_encode.c:289:54
	ldr	r2, [sp, #4]
	.loc	3 289 12                        @ packages/umqtt-latest/src/pkgs/umqtt_pkgs_encode.c:289:12
	bl	MQTTSerialize_connect
	.loc	3 289 5                         @ packages/umqtt-latest/src/pkgs/umqtt_pkgs_encode.c:289:5
	add	sp, #16
	pop	{r7, pc}
.Ltmp5:
.Lfunc_end1:
	.size	umqtt_connect_encode, .Lfunc_end1-umqtt_connect_encode
	.cfi_endproc
	.cantunwind
	.fnend
                                        @ -- End function
	.section	.text.umqtt_publish_encode,"ax",%progbits
	.p2align	3                               @ -- Begin function umqtt_publish_encode
	.type	umqtt_publish_encode,%function
	.code	16                              @ @umqtt_publish_encode
	.thumb_func
umqtt_publish_encode:
.Lfunc_begin2:
	.loc	3 331 0 is_stmt 1               @ packages/umqtt-latest/src/pkgs/umqtt_pkgs_encode.c:331:0
	.fnstart
	.cfi_startproc
@ %bb.0:
	.save	{r7, lr}
	push	{r7, lr}
	.cfi_def_cfa_offset 8
	.cfi_offset lr, -4
	.cfi_offset r7, -8
	.pad	#24
	sub	sp, #24
	.cfi_def_cfa_offset 32
	ldr.w	r12, [sp, #32]
	str	r0, [sp, #20]
	str	r1, [sp, #16]
	str	r2, [sp, #12]
	str	r3, [sp, #8]
.Ltmp6:
	.loc	3 332 34 prologue_end           @ packages/umqtt-latest/src/pkgs/umqtt_pkgs_encode.c:332:34
	ldr	r0, [sp, #20]
	.loc	3 332 39 is_stmt 0              @ packages/umqtt-latest/src/pkgs/umqtt_pkgs_encode.c:332:39
	ldr	r1, [sp, #16]
	.loc	3 332 47                        @ packages/umqtt-latest/src/pkgs/umqtt_pkgs_encode.c:332:47
	ldr	r2, [sp, #12]
	.loc	3 332 52                        @ packages/umqtt-latest/src/pkgs/umqtt_pkgs_encode.c:332:52
	ldr	r3, [sp, #8]
	.loc	3 332 57                        @ packages/umqtt-latest/src/pkgs/umqtt_pkgs_encode.c:332:57
	ldr.w	r12, [sp, #32]
	.loc	3 332 12                        @ packages/umqtt-latest/src/pkgs/umqtt_pkgs_encode.c:332:12
	mov	lr, sp
	str.w	r12, [lr]
	bl	MQTTSerialize_publish
	.loc	3 332 5                         @ packages/umqtt-latest/src/pkgs/umqtt_pkgs_encode.c:332:5
	add	sp, #24
	pop	{r7, pc}
.Ltmp7:
.Lfunc_end2:
	.size	umqtt_publish_encode, .Lfunc_end2-umqtt_publish_encode
	.cfi_endproc
	.cantunwind
	.fnend
                                        @ -- End function
	.section	.text.umqtt_puback_encode,"ax",%progbits
	.p2align	3                               @ -- Begin function umqtt_puback_encode
	.type	umqtt_puback_encode,%function
	.code	16                              @ @umqtt_puback_encode
	.thumb_func
umqtt_puback_encode:
.Lfunc_begin3:
	.loc	3 346 0 is_stmt 1               @ packages/umqtt-latest/src/pkgs/umqtt_pkgs_encode.c:346:0
	.fnstart
	.cfi_startproc
@ %bb.0:
	.save	{r7, lr}
	push	{r7, lr}
	.cfi_def_cfa_offset 8
	.cfi_offset lr, -4
	.cfi_offset r7, -8
	.pad	#16
	sub	sp, #16
	.cfi_def_cfa_offset 24
                                        @ kill: def $r3 killed $r2
	str	r0, [sp, #12]
	str	r1, [sp, #8]
	strh.w	r2, [sp, #6]
.Ltmp8:
	.loc	3 347 30 prologue_end           @ packages/umqtt-latest/src/pkgs/umqtt_pkgs_encode.c:347:30
	ldr	r0, [sp, #12]
	.loc	3 347 35 is_stmt 0              @ packages/umqtt-latest/src/pkgs/umqtt_pkgs_encode.c:347:35
	ldr	r1, [sp, #8]
	.loc	3 347 65                        @ packages/umqtt-latest/src/pkgs/umqtt_pkgs_encode.c:347:65
	ldrh.w	r2, [sp, #6]
	.loc	3 347 12                        @ packages/umqtt-latest/src/pkgs/umqtt_pkgs_encode.c:347:12
	mov	r3, sp
	str	r2, [r3]
	movs	r2, #4
	movs	r3, #0
	bl	MQTTSerialize_ack
	.loc	3 347 5                         @ packages/umqtt-latest/src/pkgs/umqtt_pkgs_encode.c:347:5
	add	sp, #16
	pop	{r7, pc}
.Ltmp9:
.Lfunc_end3:
	.size	umqtt_puback_encode, .Lfunc_end3-umqtt_puback_encode
	.cfi_endproc
	.cantunwind
	.fnend
                                        @ -- End function
	.section	.text.umqtt_pubrel_encode,"ax",%progbits
	.p2align	3                               @ -- Begin function umqtt_pubrel_encode
	.type	umqtt_pubrel_encode,%function
	.code	16                              @ @umqtt_pubrel_encode
	.thumb_func
umqtt_pubrel_encode:
.Lfunc_begin4:
	.loc	3 363 0 is_stmt 1               @ packages/umqtt-latest/src/pkgs/umqtt_pkgs_encode.c:363:0
	.fnstart
	.cfi_startproc
@ %bb.0:
	.save	{r7, lr}
	push	{r7, lr}
	.cfi_def_cfa_offset 8
	.cfi_offset lr, -4
	.cfi_offset r7, -8
	.pad	#16
	sub	sp, #16
	.cfi_def_cfa_offset 24
                                        @ kill: def $r12 killed $r3
                                        @ kill: def $r12 killed $r2
	str	r0, [sp, #12]
	str	r1, [sp, #8]
	strb.w	r2, [sp, #7]
	strh.w	r3, [sp, #4]
.Ltmp10:
	.loc	3 364 30 prologue_end           @ packages/umqtt-latest/src/pkgs/umqtt_pkgs_encode.c:364:30
	ldr	r0, [sp, #12]
	.loc	3 364 35 is_stmt 0              @ packages/umqtt-latest/src/pkgs/umqtt_pkgs_encode.c:364:35
	ldr	r1, [sp, #8]
	.loc	3 364 62                        @ packages/umqtt-latest/src/pkgs/umqtt_pkgs_encode.c:364:62
	ldrb.w	r3, [sp, #7]
	.loc	3 364 67                        @ packages/umqtt-latest/src/pkgs/umqtt_pkgs_encode.c:364:67
	ldrh.w	r2, [sp, #4]
	.loc	3 364 12                        @ packages/umqtt-latest/src/pkgs/umqtt_pkgs_encode.c:364:12
	mov	r12, sp
	str.w	r2, [r12]
	movs	r2, #6
	bl	MQTTSerialize_ack
	.loc	3 364 5                         @ packages/umqtt-latest/src/pkgs/umqtt_pkgs_encode.c:364:5
	add	sp, #16
	pop	{r7, pc}
.Ltmp11:
.Lfunc_end4:
	.size	umqtt_pubrel_encode, .Lfunc_end4-umqtt_pubrel_encode
	.cfi_endproc
	.cantunwind
	.fnend
                                        @ -- End function
	.section	.text.umqtt_pubcomp_encode,"ax",%progbits
	.p2align	3                               @ -- Begin function umqtt_pubcomp_encode
	.type	umqtt_pubcomp_encode,%function
	.code	16                              @ @umqtt_pubcomp_encode
	.thumb_func
umqtt_pubcomp_encode:
.Lfunc_begin5:
	.loc	3 378 0 is_stmt 1               @ packages/umqtt-latest/src/pkgs/umqtt_pkgs_encode.c:378:0
	.fnstart
	.cfi_startproc
@ %bb.0:
	.save	{r7, lr}
	push	{r7, lr}
	.cfi_def_cfa_offset 8
	.cfi_offset lr, -4
	.cfi_offset r7, -8
	.pad	#16
	sub	sp, #16
	.cfi_def_cfa_offset 24
                                        @ kill: def $r3 killed $r2
	str	r0, [sp, #12]
	str	r1, [sp, #8]
	strh.w	r2, [sp, #6]
.Ltmp12:
	.loc	3 379 30 prologue_end           @ packages/umqtt-latest/src/pkgs/umqtt_pkgs_encode.c:379:30
	ldr	r0, [sp, #12]
	.loc	3 379 35 is_stmt 0              @ packages/umqtt-latest/src/pkgs/umqtt_pkgs_encode.c:379:35
	ldr	r1, [sp, #8]
	.loc	3 379 66                        @ packages/umqtt-latest/src/pkgs/umqtt_pkgs_encode.c:379:66
	ldrh.w	r2, [sp, #6]
	.loc	3 379 12                        @ packages/umqtt-latest/src/pkgs/umqtt_pkgs_encode.c:379:12
	mov	r3, sp
	str	r2, [r3]
	movs	r2, #7
	movs	r3, #0
	bl	MQTTSerialize_ack
	.loc	3 379 5                         @ packages/umqtt-latest/src/pkgs/umqtt_pkgs_encode.c:379:5
	add	sp, #16
	pop	{r7, pc}
.Ltmp13:
.Lfunc_end5:
	.size	umqtt_pubcomp_encode, .Lfunc_end5-umqtt_pubcomp_encode
	.cfi_endproc
	.cantunwind
	.fnend
                                        @ -- End function
	.section	.text.umqtt_subscribe_encode,"ax",%progbits
	.p2align	3                               @ -- Begin function umqtt_subscribe_encode
	.type	umqtt_subscribe_encode,%function
	.code	16                              @ @umqtt_subscribe_encode
	.thumb_func
umqtt_subscribe_encode:
.Lfunc_begin6:
	.loc	3 393 0 is_stmt 1               @ packages/umqtt-latest/src/pkgs/umqtt_pkgs_encode.c:393:0
	.fnstart
	.cfi_startproc
@ %bb.0:
	.save	{r7, lr}
	push	{r7, lr}
	.cfi_def_cfa_offset 8
	.cfi_offset lr, -4
	.cfi_offset r7, -8
	.pad	#16
	sub	sp, #16
	.cfi_def_cfa_offset 24
	str	r0, [sp, #12]
	str	r1, [sp, #8]
	str	r2, [sp, #4]
.Ltmp14:
	.loc	3 394 36 prologue_end           @ packages/umqtt-latest/src/pkgs/umqtt_pkgs_encode.c:394:36
	ldr	r0, [sp, #12]
	.loc	3 394 46 is_stmt 0              @ packages/umqtt-latest/src/pkgs/umqtt_pkgs_encode.c:394:46
	ldr	r1, [sp, #8]
	.loc	3 394 56                        @ packages/umqtt-latest/src/pkgs/umqtt_pkgs_encode.c:394:56
	ldr	r2, [sp, #4]
	.loc	3 394 12                        @ packages/umqtt-latest/src/pkgs/umqtt_pkgs_encode.c:394:12
	bl	MQTTSerialize_subscribe
	.loc	3 394 5                         @ packages/umqtt-latest/src/pkgs/umqtt_pkgs_encode.c:394:5
	add	sp, #16
	pop	{r7, pc}
.Ltmp15:
.Lfunc_end6:
	.size	umqtt_subscribe_encode, .Lfunc_end6-umqtt_subscribe_encode
	.cfi_endproc
	.cantunwind
	.fnend
                                        @ -- End function
	.section	.text.umqtt_unsubscribe_encode,"ax",%progbits
	.p2align	3                               @ -- Begin function umqtt_unsubscribe_encode
	.type	umqtt_unsubscribe_encode,%function
	.code	16                              @ @umqtt_unsubscribe_encode
	.thumb_func
umqtt_unsubscribe_encode:
.Lfunc_begin7:
	.loc	3 408 0 is_stmt 1               @ packages/umqtt-latest/src/pkgs/umqtt_pkgs_encode.c:408:0
	.fnstart
	.cfi_startproc
@ %bb.0:
	.save	{r7, lr}
	push	{r7, lr}
	.cfi_def_cfa_offset 8
	.cfi_offset lr, -4
	.cfi_offset r7, -8
	.pad	#16
	sub	sp, #16
	.cfi_def_cfa_offset 24
	str	r0, [sp, #12]
	str	r1, [sp, #8]
	str	r2, [sp, #4]
.Ltmp16:
	.loc	3 409 38 prologue_end           @ packages/umqtt-latest/src/pkgs/umqtt_pkgs_encode.c:409:38
	ldr	r0, [sp, #12]
	.loc	3 409 48 is_stmt 0              @ packages/umqtt-latest/src/pkgs/umqtt_pkgs_encode.c:409:48
	ldr	r1, [sp, #8]
	.loc	3 409 58                        @ packages/umqtt-latest/src/pkgs/umqtt_pkgs_encode.c:409:58
	ldr	r2, [sp, #4]
	.loc	3 409 12                        @ packages/umqtt-latest/src/pkgs/umqtt_pkgs_encode.c:409:12
	bl	MQTTSerialize_unsubscribe
	.loc	3 409 5                         @ packages/umqtt-latest/src/pkgs/umqtt_pkgs_encode.c:409:5
	add	sp, #16
	pop	{r7, pc}
.Ltmp17:
.Lfunc_end7:
	.size	umqtt_unsubscribe_encode, .Lfunc_end7-umqtt_unsubscribe_encode
	.cfi_endproc
	.cantunwind
	.fnend
                                        @ -- End function
	.section	.text.umqtt_pingreq_encode,"ax",%progbits
	.p2align	3                               @ -- Begin function umqtt_pingreq_encode
	.type	umqtt_pingreq_encode,%function
	.code	16                              @ @umqtt_pingreq_encode
	.thumb_func
umqtt_pingreq_encode:
.Lfunc_begin8:
	.loc	3 316 0 is_stmt 1               @ packages/umqtt-latest/src/pkgs/umqtt_pkgs_encode.c:316:0
	.fnstart
	.cfi_startproc
@ %bb.0:
	.save	{r7, lr}
	push	{r7, lr}
	.cfi_def_cfa_offset 8
	.cfi_offset lr, -4
	.cfi_offset r7, -8
	.pad	#8
	sub	sp, #8
	.cfi_def_cfa_offset 16
	str	r0, [sp, #4]
	str	r1, [sp]
.Ltmp18:
	.loc	3 317 31 prologue_end           @ packages/umqtt-latest/src/pkgs/umqtt_pkgs_encode.c:317:31
	ldr	r0, [sp, #4]
	.loc	3 317 41 is_stmt 0              @ packages/umqtt-latest/src/pkgs/umqtt_pkgs_encode.c:317:41
	ldr	r1, [sp]
	movs	r2, #12
	.loc	3 317 12                        @ packages/umqtt-latest/src/pkgs/umqtt_pkgs_encode.c:317:12
	bl	MQTTSerialize_zero
	.loc	3 317 5                         @ packages/umqtt-latest/src/pkgs/umqtt_pkgs_encode.c:317:5
	add	sp, #8
	pop	{r7, pc}
.Ltmp19:
.Lfunc_end8:
	.size	umqtt_pingreq_encode, .Lfunc_end8-umqtt_pingreq_encode
	.cfi_endproc
	.cantunwind
	.fnend
                                        @ -- End function
	.section	.text.umqtt_disconnect_encode,"ax",%progbits
	.p2align	3                               @ -- Begin function umqtt_disconnect_encode
	.type	umqtt_disconnect_encode,%function
	.code	16                              @ @umqtt_disconnect_encode
	.thumb_func
umqtt_disconnect_encode:
.Lfunc_begin9:
	.loc	3 302 0 is_stmt 1               @ packages/umqtt-latest/src/pkgs/umqtt_pkgs_encode.c:302:0
	.fnstart
	.cfi_startproc
@ %bb.0:
	.save	{r7, lr}
	push	{r7, lr}
	.cfi_def_cfa_offset 8
	.cfi_offset lr, -4
	.cfi_offset r7, -8
	.pad	#8
	sub	sp, #8
	.cfi_def_cfa_offset 16
	str	r0, [sp, #4]
	str	r1, [sp]
.Ltmp20:
	.loc	3 303 31 prologue_end           @ packages/umqtt-latest/src/pkgs/umqtt_pkgs_encode.c:303:31
	ldr	r0, [sp, #4]
	.loc	3 303 41 is_stmt 0              @ packages/umqtt-latest/src/pkgs/umqtt_pkgs_encode.c:303:41
	ldr	r1, [sp]
	movs	r2, #14
	.loc	3 303 12                        @ packages/umqtt-latest/src/pkgs/umqtt_pkgs_encode.c:303:12
	bl	MQTTSerialize_zero
	.loc	3 303 5                         @ packages/umqtt-latest/src/pkgs/umqtt_pkgs_encode.c:303:5
	add	sp, #8
	pop	{r7, pc}
.Ltmp21:
.Lfunc_end9:
	.size	umqtt_disconnect_encode, .Lfunc_end9-umqtt_disconnect_encode
	.cfi_endproc
	.cantunwind
	.fnend
                                        @ -- End function
	.section	.text.MQTTSerialize_connect,"ax",%progbits
	.p2align	3                               @ -- Begin function MQTTSerialize_connect
	.type	MQTTSerialize_connect,%function
	.code	16                              @ @MQTTSerialize_connect
	.thumb_func
MQTTSerialize_connect:
.Lfunc_begin10:
	.loc	3 83 0 is_stmt 1                @ packages/umqtt-latest/src/pkgs/umqtt_pkgs_encode.c:83:0
	.fnstart
	.cfi_startproc
@ %bb.0:
	.save	{r7, lr}
	push	{r7, lr}
	.cfi_def_cfa_offset 8
	.cfi_offset lr, -4
	.cfi_offset r7, -8
	.pad	#48
	sub	sp, #48
	.cfi_def_cfa_offset 56
	str	r0, [sp, #44]
	str	r1, [sp, #40]
	str	r2, [sp, #36]
.Ltmp22:
	.loc	3 84 23 prologue_end            @ packages/umqtt-latest/src/pkgs/umqtt_pkgs_encode.c:84:23
	ldr	r0, [sp, #44]
	.loc	3 84 17 is_stmt 0               @ packages/umqtt-latest/src/pkgs/umqtt_pkgs_encode.c:84:17
	str	r0, [sp, #32]
	movs	r0, #0
	.loc	3 85 13 is_stmt 1               @ packages/umqtt-latest/src/pkgs/umqtt_pkgs_encode.c:85:13
	strb.w	r0, [sp, #28]
	.loc	3 86 6                          @ packages/umqtt-latest/src/pkgs/umqtt_pkgs_encode.c:86:6
	str	r0, [sp, #24]
	mov.w	r0, #-1
	.loc	3 87 6                          @ packages/umqtt-latest/src/pkgs/umqtt_pkgs_encode.c:87:6
	str	r0, [sp, #20]
.Ltmp23:
	.loc	3 89 55                         @ packages/umqtt-latest/src/pkgs/umqtt_pkgs_encode.c:89:55
	ldr	r0, [sp, #36]
	.loc	3 89 27 is_stmt 0               @ packages/umqtt-latest/src/pkgs/umqtt_pkgs_encode.c:89:27
	bl	MQTTSerialize_connectLength
	.loc	3 89 25                         @ packages/umqtt-latest/src/pkgs/umqtt_pkgs_encode.c:89:25
	str	r0, [sp, #24]
	.loc	3 89 6                          @ packages/umqtt-latest/src/pkgs/umqtt_pkgs_encode.c:89:6
	bl	umqtt_pkgs_len
	.loc	3 89 67                         @ packages/umqtt-latest/src/pkgs/umqtt_pkgs_encode.c:89:67
	ldr	r1, [sp, #40]
.Ltmp24:
	.loc	3 89 6                          @ packages/umqtt-latest/src/pkgs/umqtt_pkgs_encode.c:89:6
	cmp	r0, r1
	ble	.LBB10_2
	b	.LBB10_1
.LBB10_1:
	.loc	3 0 6                           @ packages/umqtt-latest/src/pkgs/umqtt_pkgs_encode.c:0:6
	mvn	r0, #8
.Ltmp25:
	.loc	3 91 6 is_stmt 1                @ packages/umqtt-latest/src/pkgs/umqtt_pkgs_encode.c:91:6
	str	r0, [sp, #20]
	.loc	3 92 3                          @ packages/umqtt-latest/src/pkgs/umqtt_pkgs_encode.c:92:3
	b	.LBB10_12
.Ltmp26:
.LBB10_2:
	.loc	3 0 3 is_stmt 0                 @ packages/umqtt-latest/src/pkgs/umqtt_pkgs_encode.c:0:3
	movs	r0, #0
	.loc	3 95 14 is_stmt 1               @ packages/umqtt-latest/src/pkgs/umqtt_pkgs_encode.c:95:14
	strb.w	r0, [sp, #28]
	.loc	3 96 19                         @ packages/umqtt-latest/src/pkgs/umqtt_pkgs_encode.c:96:19
	ldrb.w	r0, [sp, #28]
	movs	r1, #1
	bfi	r0, r1, #4, #28
	strb.w	r0, [sp, #28]
	.loc	3 97 31                         @ packages/umqtt-latest/src/pkgs/umqtt_pkgs_encode.c:97:31
	ldrsb.w	r1, [sp, #28]
	add	r0, sp, #32
	.loc	3 97 2 is_stmt 0                @ packages/umqtt-latest/src/pkgs/umqtt_pkgs_encode.c:97:2
	bl	umqtt_writeChar
	.loc	3 99 27 is_stmt 1               @ packages/umqtt-latest/src/pkgs/umqtt_pkgs_encode.c:99:27
	ldr	r0, [sp, #32]
	.loc	3 99 32 is_stmt 0               @ packages/umqtt-latest/src/pkgs/umqtt_pkgs_encode.c:99:32
	ldr	r1, [sp, #24]
	.loc	3 99 9                          @ packages/umqtt-latest/src/pkgs/umqtt_pkgs_encode.c:99:9
	bl	umqtt_pkgs_encode
	mov	r1, r0
	.loc	3 99 6                          @ packages/umqtt-latest/src/pkgs/umqtt_pkgs_encode.c:99:6
	ldr	r0, [sp, #32]
	add	r0, r1
	str	r0, [sp, #32]
.Ltmp27:
	.loc	3 101 6 is_stmt 1               @ packages/umqtt-latest/src/pkgs/umqtt_pkgs_encode.c:101:6
	ldr	r0, [sp, #36]
	.loc	3 101 15 is_stmt 0              @ packages/umqtt-latest/src/pkgs/umqtt_pkgs_encode.c:101:15
	ldrb	r0, [r0, #8]
.Ltmp28:
	.loc	3 101 6                         @ packages/umqtt-latest/src/pkgs/umqtt_pkgs_encode.c:101:6
	cmp	r0, #4
	bne	.LBB10_4
	b	.LBB10_3
.LBB10_3:
.Ltmp29:
	.loc	3 103 3 is_stmt 1               @ packages/umqtt-latest/src/pkgs/umqtt_pkgs_encode.c:103:3
	movw	r1, :lower16:.L.str
	movt	r1, :upper16:.L.str
	add	r0, sp, #32
	str	r0, [sp, #16]                   @ 4-byte Spill
	bl	umqtt_writeCString
	ldr	r0, [sp, #16]                   @ 4-byte Reload
	movs	r1, #4
	.loc	3 104 3                         @ packages/umqtt-latest/src/pkgs/umqtt_pkgs_encode.c:104:3
	bl	umqtt_writeChar
	.loc	3 105 2                         @ packages/umqtt-latest/src/pkgs/umqtt_pkgs_encode.c:105:2
	b	.LBB10_5
.Ltmp30:
.LBB10_4:
	.loc	3 108 3                         @ packages/umqtt-latest/src/pkgs/umqtt_pkgs_encode.c:108:3
	movw	r1, :lower16:.L.str.1
	movt	r1, :upper16:.L.str.1
	add	r0, sp, #32
	str	r0, [sp, #12]                   @ 4-byte Spill
	bl	umqtt_writeCString
	ldr	r0, [sp, #12]                   @ 4-byte Reload
	movs	r1, #3
	.loc	3 109 3                         @ packages/umqtt-latest/src/pkgs/umqtt_pkgs_encode.c:109:3
	bl	umqtt_writeChar
	b	.LBB10_5
.Ltmp31:
.LBB10_5:
	.loc	3 112 24                        @ packages/umqtt-latest/src/pkgs/umqtt_pkgs_encode.c:112:24
	ldr	r0, [sp, #36]
	.loc	3 112 47 is_stmt 0              @ packages/umqtt-latest/src/pkgs/umqtt_pkgs_encode.c:112:47
	ldrsb.w	r1, [r0, #9]
	add	r0, sp, #32
	.loc	3 112 2                         @ packages/umqtt-latest/src/pkgs/umqtt_pkgs_encode.c:112:2
	str	r0, [sp, #8]                    @ 4-byte Spill
	bl	umqtt_writeChar
	ldr	r0, [sp, #8]                    @ 4-byte Reload
	.loc	3 113 23 is_stmt 1              @ packages/umqtt-latest/src/pkgs/umqtt_pkgs_encode.c:113:23
	ldr	r1, [sp, #36]
	.loc	3 113 32 is_stmt 0              @ packages/umqtt-latest/src/pkgs/umqtt_pkgs_encode.c:113:32
	ldrh	r1, [r1, #10]
	.loc	3 113 2                         @ packages/umqtt-latest/src/pkgs/umqtt_pkgs_encode.c:113:2
	bl	umqtt_writeInt
	ldr	r0, [sp, #8]                    @ 4-byte Reload
	.loc	3 115 30 is_stmt 1              @ packages/umqtt-latest/src/pkgs/umqtt_pkgs_encode.c:115:30
	ldr	r1, [sp, #36]
	.loc	3 115 39 is_stmt 0              @ packages/umqtt-latest/src/pkgs/umqtt_pkgs_encode.c:115:39
	ldr	r1, [r1, #12]
	.loc	3 115 2                         @ packages/umqtt-latest/src/pkgs/umqtt_pkgs_encode.c:115:2
	bl	umqtt_writeMQTTString
.Ltmp32:
	.loc	3 116 6 is_stmt 1               @ packages/umqtt-latest/src/pkgs/umqtt_pkgs_encode.c:116:6
	ldr	r0, [sp, #36]
	.loc	3 116 34 is_stmt 0              @ packages/umqtt-latest/src/pkgs/umqtt_pkgs_encode.c:116:34
	ldrb	r0, [r0, #9]
	lsrs	r0, r0, #2
.Ltmp33:
	.loc	3 116 6                         @ packages/umqtt-latest/src/pkgs/umqtt_pkgs_encode.c:116:6
	lsls	r0, r0, #31
	cbz	r0, .LBB10_7
	b	.LBB10_6
.LBB10_6:
.Ltmp34:
	.loc	3 118 31 is_stmt 1              @ packages/umqtt-latest/src/pkgs/umqtt_pkgs_encode.c:118:31
	ldr	r0, [sp, #36]
	.loc	3 118 40 is_stmt 0              @ packages/umqtt-latest/src/pkgs/umqtt_pkgs_encode.c:118:40
	ldr	r1, [r0, #16]
	add	r0, sp, #32
	.loc	3 118 3                         @ packages/umqtt-latest/src/pkgs/umqtt_pkgs_encode.c:118:3
	str	r0, [sp, #4]                    @ 4-byte Spill
	bl	umqtt_writeMQTTString
	ldr	r0, [sp, #4]                    @ 4-byte Reload
	.loc	3 119 31 is_stmt 1              @ packages/umqtt-latest/src/pkgs/umqtt_pkgs_encode.c:119:31
	ldr	r1, [sp, #36]
	.loc	3 119 40 is_stmt 0              @ packages/umqtt-latest/src/pkgs/umqtt_pkgs_encode.c:119:40
	ldr	r1, [r1, #20]
	.loc	3 119 3                         @ packages/umqtt-latest/src/pkgs/umqtt_pkgs_encode.c:119:3
	bl	umqtt_writeMQTTString
	.loc	3 120 2 is_stmt 1               @ packages/umqtt-latest/src/pkgs/umqtt_pkgs_encode.c:120:2
	b	.LBB10_7
.Ltmp35:
.LBB10_7:
	.loc	3 122 6                         @ packages/umqtt-latest/src/pkgs/umqtt_pkgs_encode.c:122:6
	ldr	r0, [sp, #36]
	.loc	3 122 34 is_stmt 0              @ packages/umqtt-latest/src/pkgs/umqtt_pkgs_encode.c:122:34
	ldrb	r1, [r0, #9]
	movs	r0, #0
.Ltmp36:
	.loc	3 122 6                         @ packages/umqtt-latest/src/pkgs/umqtt_pkgs_encode.c:122:6
	cmp.w	r0, r1, lsr #7
	beq	.LBB10_9
	b	.LBB10_8
.LBB10_8:
.Ltmp37:
	.loc	3 123 31 is_stmt 1              @ packages/umqtt-latest/src/pkgs/umqtt_pkgs_encode.c:123:31
	ldr	r0, [sp, #36]
	.loc	3 123 40 is_stmt 0              @ packages/umqtt-latest/src/pkgs/umqtt_pkgs_encode.c:123:40
	ldr	r1, [r0, #24]
	add	r0, sp, #32
	.loc	3 123 3                         @ packages/umqtt-latest/src/pkgs/umqtt_pkgs_encode.c:123:3
	bl	umqtt_writeMQTTString
	b	.LBB10_9
.Ltmp38:
.LBB10_9:
	.loc	3 124 6 is_stmt 1               @ packages/umqtt-latest/src/pkgs/umqtt_pkgs_encode.c:124:6
	ldr	r0, [sp, #36]
	.loc	3 124 34 is_stmt 0              @ packages/umqtt-latest/src/pkgs/umqtt_pkgs_encode.c:124:34
	ldrb	r0, [r0, #9]
	lsrs	r0, r0, #6
.Ltmp39:
	.loc	3 124 6                         @ packages/umqtt-latest/src/pkgs/umqtt_pkgs_encode.c:124:6
	lsls	r0, r0, #31
	cbz	r0, .LBB10_11
	b	.LBB10_10
.LBB10_10:
.Ltmp40:
	.loc	3 125 31 is_stmt 1              @ packages/umqtt-latest/src/pkgs/umqtt_pkgs_encode.c:125:31
	ldr	r0, [sp, #36]
	.loc	3 125 40 is_stmt 0              @ packages/umqtt-latest/src/pkgs/umqtt_pkgs_encode.c:125:40
	ldr	r1, [r0, #32]
	add	r0, sp, #32
	.loc	3 125 3                         @ packages/umqtt-latest/src/pkgs/umqtt_pkgs_encode.c:125:3
	bl	umqtt_writeMQTTString
	b	.LBB10_11
.Ltmp41:
.LBB10_11:
	.loc	3 127 7 is_stmt 1               @ packages/umqtt-latest/src/pkgs/umqtt_pkgs_encode.c:127:7
	ldr	r0, [sp, #32]
	.loc	3 127 13 is_stmt 0              @ packages/umqtt-latest/src/pkgs/umqtt_pkgs_encode.c:127:13
	ldr	r1, [sp, #44]
	.loc	3 127 11                        @ packages/umqtt-latest/src/pkgs/umqtt_pkgs_encode.c:127:11
	subs	r0, r0, r1
	.loc	3 127 5                         @ packages/umqtt-latest/src/pkgs/umqtt_pkgs_encode.c:127:5
	str	r0, [sp, #20]
	.loc	3 127 2                         @ packages/umqtt-latest/src/pkgs/umqtt_pkgs_encode.c:127:2
	b	.LBB10_12
.LBB10_12:
.Ltmp42:
	@DEBUG_LABEL: MQTTSerialize_connect:exit
	.loc	3 130 9 is_stmt 1               @ packages/umqtt-latest/src/pkgs/umqtt_pkgs_encode.c:130:9
	ldr	r0, [sp, #20]
	.loc	3 130 2 is_stmt 0               @ packages/umqtt-latest/src/pkgs/umqtt_pkgs_encode.c:130:2
	add	sp, #48
	pop	{r7, pc}
.Ltmp43:
.Lfunc_end10:
	.size	MQTTSerialize_connect, .Lfunc_end10-MQTTSerialize_connect
	.cfi_endproc
	.cantunwind
	.fnend
                                        @ -- End function
	.section	.text.umqtt_pkgs_len,"ax",%progbits
	.p2align	3                               @ -- Begin function umqtt_pkgs_len
	.type	umqtt_pkgs_len,%function
	.code	16                              @ @umqtt_pkgs_len
	.thumb_func
umqtt_pkgs_len:
.Lfunc_begin11:
	.loc	1 360 0 is_stmt 1               @ ./packages/umqtt-latest/inc\umqtt_internal.h:360:0
	.fnstart
	.cfi_startproc
@ %bb.0:
	.pad	#4
	sub	sp, #4
	.cfi_def_cfa_offset 4
	str	r0, [sp]
.Ltmp44:
	.loc	1 361 10 prologue_end           @ ./packages/umqtt-latest/inc\umqtt_internal.h:361:10
	ldr	r0, [sp]
	adds	r0, #1
	str	r0, [sp]
.Ltmp45:
	.loc	1 364 6                         @ ./packages/umqtt-latest/inc\umqtt_internal.h:364:6
	ldr	r0, [sp]
.Ltmp46:
	.loc	1 364 6 is_stmt 0               @ ./packages/umqtt-latest/inc\umqtt_internal.h:364:6
	cmp	r0, #127
	bgt	.LBB11_2
	b	.LBB11_1
.LBB11_1:
.Ltmp47:
	.loc	1 365 11 is_stmt 1              @ ./packages/umqtt-latest/inc\umqtt_internal.h:365:11
	ldr	r0, [sp]
	adds	r0, #1
	str	r0, [sp]
	.loc	1 365 3 is_stmt 0               @ ./packages/umqtt-latest/inc\umqtt_internal.h:365:3
	b	.LBB11_9
.LBB11_2:
.Ltmp48:
	.loc	1 366 11 is_stmt 1              @ ./packages/umqtt-latest/inc\umqtt_internal.h:366:11
	ldr	r0, [sp]
.Ltmp49:
	.loc	1 366 11 is_stmt 0              @ ./packages/umqtt-latest/inc\umqtt_internal.h:366:11
	cmp.w	r0, #16384
	bge	.LBB11_4
	b	.LBB11_3
.LBB11_3:
.Ltmp50:
	.loc	1 367 11 is_stmt 1              @ ./packages/umqtt-latest/inc\umqtt_internal.h:367:11
	ldr	r0, [sp]
	adds	r0, #2
	str	r0, [sp]
	.loc	1 367 3 is_stmt 0               @ ./packages/umqtt-latest/inc\umqtt_internal.h:367:3
	b	.LBB11_8
.LBB11_4:
.Ltmp51:
	.loc	1 368 11 is_stmt 1              @ ./packages/umqtt-latest/inc\umqtt_internal.h:368:11
	ldr	r0, [sp]
	movw	r1, #65534
	movt	r1, #31
.Ltmp52:
	.loc	1 368 11 is_stmt 0              @ ./packages/umqtt-latest/inc\umqtt_internal.h:368:11
	cmp	r0, r1
	bgt	.LBB11_6
	b	.LBB11_5
.LBB11_5:
.Ltmp53:
	.loc	1 369 11 is_stmt 1              @ ./packages/umqtt-latest/inc\umqtt_internal.h:369:11
	ldr	r0, [sp]
	adds	r0, #3
	str	r0, [sp]
	.loc	1 369 3 is_stmt 0               @ ./packages/umqtt-latest/inc\umqtt_internal.h:369:3
	b	.LBB11_7
.LBB11_6:
	.loc	1 371 11 is_stmt 1              @ ./packages/umqtt-latest/inc\umqtt_internal.h:371:11
	ldr	r0, [sp]
	adds	r0, #4
	str	r0, [sp]
	b	.LBB11_7
.Ltmp54:
.LBB11_7:
	.loc	1 0 11 is_stmt 0                @ ./packages/umqtt-latest/inc\umqtt_internal.h:0:11
	b	.LBB11_8
.LBB11_8:
	b	.LBB11_9
.LBB11_9:
	.loc	1 373 9 is_stmt 1               @ ./packages/umqtt-latest/inc\umqtt_internal.h:373:9
	ldr	r0, [sp]
	.loc	1 373 2 is_stmt 0               @ ./packages/umqtt-latest/inc\umqtt_internal.h:373:2
	add	sp, #4
	bx	lr
.Ltmp55:
.Lfunc_end11:
	.size	umqtt_pkgs_len, .Lfunc_end11-umqtt_pkgs_len
	.cfi_endproc
	.cantunwind
	.fnend
                                        @ -- End function
	.section	.text.MQTTSerialize_connectLength,"ax",%progbits
	.p2align	3                               @ -- Begin function MQTTSerialize_connectLength
	.type	MQTTSerialize_connectLength,%function
	.code	16                              @ @MQTTSerialize_connectLength
	.thumb_func
MQTTSerialize_connectLength:
.Lfunc_begin12:
	.loc	3 24 0 is_stmt 1                @ packages/umqtt-latest/src/pkgs/umqtt_pkgs_encode.c:24:0
	.fnstart
	.cfi_startproc
@ %bb.0:
	.save	{r7, lr}
	push	{r7, lr}
	.cfi_def_cfa_offset 8
	.cfi_offset lr, -4
	.cfi_offset r7, -8
	.pad	#32
	sub	sp, #32
	.cfi_def_cfa_offset 40
	str	r0, [sp, #28]
	movs	r0, #0
.Ltmp56:
	.loc	3 25 9 prologue_end             @ packages/umqtt-latest/src/pkgs/umqtt_pkgs_encode.c:25:9
	str	r0, [sp, #24]
.Ltmp57:
	.loc	3 26 9                          @ packages/umqtt-latest/src/pkgs/umqtt_pkgs_encode.c:26:9
	ldr	r0, [sp, #28]
	.loc	3 26 18 is_stmt 0               @ packages/umqtt-latest/src/pkgs/umqtt_pkgs_encode.c:26:18
	ldrb	r0, [r0, #8]
.Ltmp58:
	.loc	3 26 9                          @ packages/umqtt-latest/src/pkgs/umqtt_pkgs_encode.c:26:9
	cmp	r0, #3
	bne	.LBB12_2
	b	.LBB12_1
.LBB12_1:
	.loc	3 0 9                           @ packages/umqtt-latest/src/pkgs/umqtt_pkgs_encode.c:0:9
	movs	r0, #12
.Ltmp59:
	.loc	3 27 13 is_stmt 1               @ packages/umqtt-latest/src/pkgs/umqtt_pkgs_encode.c:27:13
	str	r0, [sp, #24]
	.loc	3 27 9 is_stmt 0                @ packages/umqtt-latest/src/pkgs/umqtt_pkgs_encode.c:27:9
	b	.LBB12_5
.LBB12_2:
.Ltmp60:
	.loc	3 28 14 is_stmt 1               @ packages/umqtt-latest/src/pkgs/umqtt_pkgs_encode.c:28:14
	ldr	r0, [sp, #28]
	.loc	3 28 23 is_stmt 0               @ packages/umqtt-latest/src/pkgs/umqtt_pkgs_encode.c:28:23
	ldrb	r0, [r0, #8]
.Ltmp61:
	.loc	3 28 14                         @ packages/umqtt-latest/src/pkgs/umqtt_pkgs_encode.c:28:14
	cmp	r0, #4
	bne	.LBB12_4
	b	.LBB12_3
.LBB12_3:
	.loc	3 0 14                          @ packages/umqtt-latest/src/pkgs/umqtt_pkgs_encode.c:0:14
	movs	r0, #10
.Ltmp62:
	.loc	3 29 13 is_stmt 1               @ packages/umqtt-latest/src/pkgs/umqtt_pkgs_encode.c:29:13
	str	r0, [sp, #24]
	.loc	3 29 9 is_stmt 0                @ packages/umqtt-latest/src/pkgs/umqtt_pkgs_encode.c:29:9
	b	.LBB12_4
.Ltmp63:
.LBB12_4:
	.loc	3 0 9                           @ packages/umqtt-latest/src/pkgs/umqtt_pkgs_encode.c:0:9
	b	.LBB12_5
.LBB12_5:
	.loc	3 31 12 is_stmt 1               @ packages/umqtt-latest/src/pkgs/umqtt_pkgs_encode.c:31:12
	ldr	r0, [sp, #28]
	ldr	r0, [r0, #12]
	cbnz	r0, .LBB12_7
	b	.LBB12_6
.LBB12_6:
	.loc	3 0 12 is_stmt 0                @ packages/umqtt-latest/src/pkgs/umqtt_pkgs_encode.c:0:12
	movs	r0, #0
	.loc	3 31 12                         @ packages/umqtt-latest/src/pkgs/umqtt_pkgs_encode.c:31:12
	str	r0, [sp, #20]                   @ 4-byte Spill
	b	.LBB12_8
.LBB12_7:
	ldr	r0, [sp, #28]
	ldr	r0, [r0, #12]
	bl	strlen
	str	r0, [sp, #20]                   @ 4-byte Spill
	b	.LBB12_8
.LBB12_8:
	ldr	r0, [sp, #20]                   @ 4-byte Reload
	.loc	3 31 9                          @ packages/umqtt-latest/src/pkgs/umqtt_pkgs_encode.c:31:9
	ldr	r1, [sp, #24]
	.loc	3 31 43                         @ packages/umqtt-latest/src/pkgs/umqtt_pkgs_encode.c:31:43
	add	r0, r1
	.loc	3 31 9                          @ packages/umqtt-latest/src/pkgs/umqtt_pkgs_encode.c:31:9
	adds	r0, #2
	str	r0, [sp, #24]
.Ltmp64:
	.loc	3 32 9 is_stmt 1                @ packages/umqtt-latest/src/pkgs/umqtt_pkgs_encode.c:32:9
	ldr	r0, [sp, #28]
	.loc	3 32 37 is_stmt 0               @ packages/umqtt-latest/src/pkgs/umqtt_pkgs_encode.c:32:37
	ldrb	r0, [r0, #9]
	lsrs	r0, r0, #2
.Ltmp65:
	.loc	3 32 9                          @ packages/umqtt-latest/src/pkgs/umqtt_pkgs_encode.c:32:9
	lsls	r0, r0, #31
	cbz	r0, .LBB12_16
	b	.LBB12_9
.LBB12_9:
.Ltmp66:
	.loc	3 33 16 is_stmt 1               @ packages/umqtt-latest/src/pkgs/umqtt_pkgs_encode.c:33:16
	ldr	r0, [sp, #28]
	ldr	r0, [r0, #16]
	cbnz	r0, .LBB12_11
	b	.LBB12_10
.LBB12_10:
	.loc	3 0 16 is_stmt 0                @ packages/umqtt-latest/src/pkgs/umqtt_pkgs_encode.c:0:16
	movs	r0, #0
	.loc	3 33 16                         @ packages/umqtt-latest/src/pkgs/umqtt_pkgs_encode.c:33:16
	str	r0, [sp, #16]                   @ 4-byte Spill
	b	.LBB12_12
.LBB12_11:
	ldr	r0, [sp, #28]
	ldr	r0, [r0, #16]
	bl	strlen
	str	r0, [sp, #16]                   @ 4-byte Spill
	b	.LBB12_12
.LBB12_12:
	ldr	r0, [sp, #16]                   @ 4-byte Reload
	.loc	3 33 48                         @ packages/umqtt-latest/src/pkgs/umqtt_pkgs_encode.c:33:48
	adds	r0, #2
	.loc	3 33 54                         @ packages/umqtt-latest/src/pkgs/umqtt_pkgs_encode.c:33:54
	str	r0, [sp, #12]                   @ 4-byte Spill
	ldr	r0, [sp, #28]
	ldr	r0, [r0, #20]
	cbnz	r0, .LBB12_14
	b	.LBB12_13
.LBB12_13:
	.loc	3 0 54                          @ packages/umqtt-latest/src/pkgs/umqtt_pkgs_encode.c:0:54
	movs	r0, #0
	.loc	3 33 54                         @ packages/umqtt-latest/src/pkgs/umqtt_pkgs_encode.c:33:54
	str	r0, [sp, #8]                    @ 4-byte Spill
	b	.LBB12_15
.LBB12_14:
	ldr	r0, [sp, #28]
	ldr	r0, [r0, #20]
	bl	strlen
	str	r0, [sp, #8]                    @ 4-byte Spill
	b	.LBB12_15
.LBB12_15:
	ldr	r0, [sp, #12]                   @ 4-byte Reload
	ldr	r1, [sp, #8]                    @ 4-byte Reload
	.loc	3 33 52                         @ packages/umqtt-latest/src/pkgs/umqtt_pkgs_encode.c:33:52
	add	r0, r1
	.loc	3 33 13                         @ packages/umqtt-latest/src/pkgs/umqtt_pkgs_encode.c:33:13
	ldr	r1, [sp, #24]
	.loc	3 33 88                         @ packages/umqtt-latest/src/pkgs/umqtt_pkgs_encode.c:33:88
	add	r0, r1
	.loc	3 33 13                         @ packages/umqtt-latest/src/pkgs/umqtt_pkgs_encode.c:33:13
	adds	r0, #2
	str	r0, [sp, #24]
	.loc	3 33 9                          @ packages/umqtt-latest/src/pkgs/umqtt_pkgs_encode.c:33:9
	b	.LBB12_16
.Ltmp67:
.LBB12_16:
	.loc	3 35 9 is_stmt 1                @ packages/umqtt-latest/src/pkgs/umqtt_pkgs_encode.c:35:9
	ldr	r0, [sp, #28]
	.loc	3 35 37 is_stmt 0               @ packages/umqtt-latest/src/pkgs/umqtt_pkgs_encode.c:35:37
	ldrb	r0, [r0, #9]
	lsrs	r0, r0, #6
.Ltmp68:
	.loc	3 35 9                          @ packages/umqtt-latest/src/pkgs/umqtt_pkgs_encode.c:35:9
	lsls	r0, r0, #31
	cbz	r0, .LBB12_26
	b	.LBB12_17
.LBB12_17:
.Ltmp69:
	.loc	3 37 16 is_stmt 1               @ packages/umqtt-latest/src/pkgs/umqtt_pkgs_encode.c:37:16
	ldr	r0, [sp, #28]
	ldr	r0, [r0, #32]
	cbnz	r0, .LBB12_19
	b	.LBB12_18
.LBB12_18:
	.loc	3 0 16 is_stmt 0                @ packages/umqtt-latest/src/pkgs/umqtt_pkgs_encode.c:0:16
	movs	r0, #0
	.loc	3 37 16                         @ packages/umqtt-latest/src/pkgs/umqtt_pkgs_encode.c:37:16
	str	r0, [sp, #4]                    @ 4-byte Spill
	b	.LBB12_20
.LBB12_19:
	ldr	r0, [sp, #28]
	ldr	r0, [r0, #32]
	bl	strlen
	str	r0, [sp, #4]                    @ 4-byte Spill
	b	.LBB12_20
.LBB12_20:
	ldr	r0, [sp, #4]                    @ 4-byte Reload
	.loc	3 37 13                         @ packages/umqtt-latest/src/pkgs/umqtt_pkgs_encode.c:37:13
	ldr	r1, [sp, #24]
	.loc	3 37 46                         @ packages/umqtt-latest/src/pkgs/umqtt_pkgs_encode.c:37:46
	add	r0, r1
	.loc	3 37 13                         @ packages/umqtt-latest/src/pkgs/umqtt_pkgs_encode.c:37:13
	adds	r0, #2
	str	r0, [sp, #24]
.Ltmp70:
	.loc	3 38 13 is_stmt 1               @ packages/umqtt-latest/src/pkgs/umqtt_pkgs_encode.c:38:13
	ldr	r0, [sp, #28]
	.loc	3 38 41 is_stmt 0               @ packages/umqtt-latest/src/pkgs/umqtt_pkgs_encode.c:38:41
	ldrb	r1, [r0, #9]
	movs	r0, #0
.Ltmp71:
	.loc	3 38 13                         @ packages/umqtt-latest/src/pkgs/umqtt_pkgs_encode.c:38:13
	cmp.w	r0, r1, lsr #7
	beq	.LBB12_25
	b	.LBB12_21
.LBB12_21:
.Ltmp72:
	.loc	3 39 20 is_stmt 1               @ packages/umqtt-latest/src/pkgs/umqtt_pkgs_encode.c:39:20
	ldr	r0, [sp, #28]
	ldr	r0, [r0, #24]
	cbnz	r0, .LBB12_23
	b	.LBB12_22
.LBB12_22:
	.loc	3 0 20 is_stmt 0                @ packages/umqtt-latest/src/pkgs/umqtt_pkgs_encode.c:0:20
	movs	r0, #0
	.loc	3 39 20                         @ packages/umqtt-latest/src/pkgs/umqtt_pkgs_encode.c:39:20
	str	r0, [sp]                        @ 4-byte Spill
	b	.LBB12_24
.LBB12_23:
	ldr	r0, [sp, #28]
	ldr	r0, [r0, #24]
	bl	strlen
	str	r0, [sp]                        @ 4-byte Spill
	b	.LBB12_24
.LBB12_24:
	ldr	r0, [sp]                        @ 4-byte Reload
	.loc	3 39 17                         @ packages/umqtt-latest/src/pkgs/umqtt_pkgs_encode.c:39:17
	ldr	r1, [sp, #24]
	.loc	3 39 51                         @ packages/umqtt-latest/src/pkgs/umqtt_pkgs_encode.c:39:51
	add	r0, r1
	.loc	3 39 17                         @ packages/umqtt-latest/src/pkgs/umqtt_pkgs_encode.c:39:17
	adds	r0, #2
	str	r0, [sp, #24]
	.loc	3 39 13                         @ packages/umqtt-latest/src/pkgs/umqtt_pkgs_encode.c:39:13
	b	.LBB12_25
.Ltmp73:
.LBB12_25:
	.loc	3 40 5 is_stmt 1                @ packages/umqtt-latest/src/pkgs/umqtt_pkgs_encode.c:40:5
	b	.LBB12_26
.Ltmp74:
.LBB12_26:
	.loc	3 41 12                         @ packages/umqtt-latest/src/pkgs/umqtt_pkgs_encode.c:41:12
	ldr	r0, [sp, #24]
	.loc	3 41 5 is_stmt 0                @ packages/umqtt-latest/src/pkgs/umqtt_pkgs_encode.c:41:5
	add	sp, #32
	pop	{r7, pc}
.Ltmp75:
.Lfunc_end12:
	.size	MQTTSerialize_connectLength, .Lfunc_end12-MQTTSerialize_connectLength
	.cfi_endproc
	.cantunwind
	.fnend
                                        @ -- End function
	.section	.text.umqtt_writeChar,"ax",%progbits
	.p2align	3                               @ -- Begin function umqtt_writeChar
	.type	umqtt_writeChar,%function
	.code	16                              @ @umqtt_writeChar
	.thumb_func
umqtt_writeChar:
.Lfunc_begin13:
	.loc	1 245 0 is_stmt 1               @ ./packages/umqtt-latest/inc\umqtt_internal.h:245:0
	.fnstart
	.cfi_startproc
@ %bb.0:
	.pad	#8
	sub	sp, #8
	.cfi_def_cfa_offset 8
                                        @ kill: def $r2 killed $r1
	str	r0, [sp, #4]
	strb.w	r1, [sp, #3]
.Ltmp76:
	.loc	1 246 11 prologue_end           @ ./packages/umqtt-latest/inc\umqtt_internal.h:246:11
	ldrb.w	r0, [sp, #3]
	.loc	1 246 4 is_stmt 0               @ ./packages/umqtt-latest/inc\umqtt_internal.h:246:4
	ldr	r1, [sp, #4]
	.loc	1 246 3                         @ ./packages/umqtt-latest/inc\umqtt_internal.h:246:3
	ldr	r1, [r1]
	.loc	1 246 9                         @ ./packages/umqtt-latest/inc\umqtt_internal.h:246:9
	strb	r0, [r1]
	.loc	1 247 4 is_stmt 1               @ ./packages/umqtt-latest/inc\umqtt_internal.h:247:4
	ldr	r1, [sp, #4]
	.loc	1 247 9 is_stmt 0               @ ./packages/umqtt-latest/inc\umqtt_internal.h:247:9
	ldr	r0, [r1]
	adds	r0, #1
	str	r0, [r1]
	.loc	1 248 1 is_stmt 1               @ ./packages/umqtt-latest/inc\umqtt_internal.h:248:1
	add	sp, #8
	bx	lr
.Ltmp77:
.Lfunc_end13:
	.size	umqtt_writeChar, .Lfunc_end13-umqtt_writeChar
	.cfi_endproc
	.cantunwind
	.fnend
                                        @ -- End function
	.section	.text.umqtt_pkgs_encode,"ax",%progbits
	.p2align	3                               @ -- Begin function umqtt_pkgs_encode
	.type	umqtt_pkgs_encode,%function
	.code	16                              @ @umqtt_pkgs_encode
	.thumb_func
umqtt_pkgs_encode:
.Lfunc_begin14:
	.loc	1 319 0                         @ ./packages/umqtt-latest/inc\umqtt_internal.h:319:0
	.fnstart
	.cfi_startproc
@ %bb.0:
	.pad	#16
	sub	sp, #16
	.cfi_def_cfa_offset 16
	str	r0, [sp, #12]
	str	r1, [sp, #8]
	movs	r0, #0
.Ltmp78:
	.loc	1 320 6 prologue_end            @ ./packages/umqtt-latest/inc\umqtt_internal.h:320:6
	str	r0, [sp, #4]
	.loc	1 321 2                         @ ./packages/umqtt-latest/inc\umqtt_internal.h:321:2
	b	.LBB14_1
.LBB14_1:                               @ =>This Inner Loop Header: Depth=1
.Ltmp79:
	.loc	1 322 12                        @ ./packages/umqtt-latest/inc\umqtt_internal.h:322:12
	ldr	r0, [sp, #8]
	.loc	1 322 19 is_stmt 0              @ ./packages/umqtt-latest/inc\umqtt_internal.h:322:19
	asrs	r1, r0, #31
	add.w	r1, r0, r1, lsr #25
	and	r1, r1, #128
	subs	r0, r0, r1
	.loc	1 322 8                         @ ./packages/umqtt-latest/inc\umqtt_internal.h:322:8
	strb.w	r0, [sp, #3]
	.loc	1 323 10 is_stmt 1              @ ./packages/umqtt-latest/inc\umqtt_internal.h:323:10
	ldr	r0, [sp, #8]
	asrs	r1, r0, #31
	add.w	r0, r0, r1, lsr #25
	asrs	r0, r0, #7
	str	r0, [sp, #8]
.Ltmp80:
	.loc	1 325 7                         @ ./packages/umqtt-latest/inc\umqtt_internal.h:325:7
	ldr	r0, [sp, #8]
.Ltmp81:
	.loc	1 325 7 is_stmt 0               @ ./packages/umqtt-latest/inc\umqtt_internal.h:325:7
	cmp	r0, #1
	blt	.LBB14_3
	b	.LBB14_2
.LBB14_2:                               @   in Loop: Header=BB14_1 Depth=1
.Ltmp82:
	.loc	1 326 6 is_stmt 1               @ ./packages/umqtt-latest/inc\umqtt_internal.h:326:6
	ldrb.w	r0, [sp, #3]
	orr	r0, r0, #128
	strb.w	r0, [sp, #3]
	.loc	1 326 4 is_stmt 0               @ ./packages/umqtt-latest/inc\umqtt_internal.h:326:4
	b	.LBB14_3
.Ltmp83:
.LBB14_3:                               @   in Loop: Header=BB14_1 Depth=1
	.loc	1 327 15 is_stmt 1              @ ./packages/umqtt-latest/inc\umqtt_internal.h:327:15
	ldrb.w	r0, [sp, #3]
	.loc	1 327 3 is_stmt 0               @ ./packages/umqtt-latest/inc\umqtt_internal.h:327:3
	ldr	r1, [sp, #12]
	.loc	1 327 9                         @ ./packages/umqtt-latest/inc\umqtt_internal.h:327:9
	ldr	r2, [sp, #4]
	adds	r3, r2, #1
	str	r3, [sp, #4]
	.loc	1 327 13                        @ ./packages/umqtt-latest/inc\umqtt_internal.h:327:13
	strb	r0, [r1, r2]
	.loc	1 328 2 is_stmt 1               @ ./packages/umqtt-latest/inc\umqtt_internal.h:328:2
	b	.LBB14_4
.Ltmp84:
.LBB14_4:                               @   in Loop: Header=BB14_1 Depth=1
	.loc	1 328 11 is_stmt 0              @ ./packages/umqtt-latest/inc\umqtt_internal.h:328:11
	ldr	r0, [sp, #8]
.Ltmp85:
	.loc	1 328 2                         @ ./packages/umqtt-latest/inc\umqtt_internal.h:328:2
	cmp	r0, #0
	bgt	.LBB14_1
	b	.LBB14_5
.Ltmp86:
.LBB14_5:
	.loc	1 329 9 is_stmt 1               @ ./packages/umqtt-latest/inc\umqtt_internal.h:329:9
	ldr	r0, [sp, #4]
	.loc	1 329 2 is_stmt 0               @ ./packages/umqtt-latest/inc\umqtt_internal.h:329:2
	add	sp, #16
	bx	lr
.Ltmp87:
.Lfunc_end14:
	.size	umqtt_pkgs_encode, .Lfunc_end14-umqtt_pkgs_encode
	.cfi_endproc
	.cantunwind
	.fnend
                                        @ -- End function
	.section	.text.umqtt_writeCString,"ax",%progbits
	.p2align	3                               @ -- Begin function umqtt_writeCString
	.type	umqtt_writeCString,%function
	.code	16                              @ @umqtt_writeCString
	.thumb_func
umqtt_writeCString:
.Lfunc_begin15:
	.loc	1 274 0 is_stmt 1               @ ./packages/umqtt-latest/inc\umqtt_internal.h:274:0
	.fnstart
	.cfi_startproc
@ %bb.0:
	.save	{r7, lr}
	push	{r7, lr}
	.cfi_def_cfa_offset 8
	.cfi_offset lr, -4
	.cfi_offset r7, -8
	.pad	#16
	sub	sp, #16
	.cfi_def_cfa_offset 24
	str	r0, [sp, #12]
	str	r1, [sp, #8]
	movs	r0, #0
.Ltmp88:
	.loc	1 275 6 prologue_end            @ ./packages/umqtt-latest/inc\umqtt_internal.h:275:6
	str	r0, [sp, #4]
.Ltmp89:
	.loc	1 276 9                         @ ./packages/umqtt-latest/inc\umqtt_internal.h:276:9
	ldr	r0, [sp, #8]
.Ltmp90:
	.loc	1 276 9 is_stmt 0               @ ./packages/umqtt-latest/inc\umqtt_internal.h:276:9
	cbz	r0, .LBB15_2
	b	.LBB15_1
.LBB15_1:
.Ltmp91:
	.loc	1 278 22 is_stmt 1              @ ./packages/umqtt-latest/inc\umqtt_internal.h:278:22
	ldr	r0, [sp, #8]
	.loc	1 278 15 is_stmt 0              @ ./packages/umqtt-latest/inc\umqtt_internal.h:278:15
	bl	strlen
	.loc	1 278 13                        @ ./packages/umqtt-latest/inc\umqtt_internal.h:278:13
	str	r0, [sp, #4]
	.loc	1 279 24 is_stmt 1              @ ./packages/umqtt-latest/inc\umqtt_internal.h:279:24
	ldr	r0, [sp, #12]
	.loc	1 279 30 is_stmt 0              @ ./packages/umqtt-latest/inc\umqtt_internal.h:279:30
	ldr	r1, [sp, #4]
	.loc	1 279 9                         @ ./packages/umqtt-latest/inc\umqtt_internal.h:279:9
	bl	umqtt_writeInt
	.loc	1 280 17 is_stmt 1              @ ./packages/umqtt-latest/inc\umqtt_internal.h:280:17
	ldr	r0, [sp, #12]
	.loc	1 280 16 is_stmt 0              @ ./packages/umqtt-latest/inc\umqtt_internal.h:280:16
	ldr	r0, [r0]
	.loc	1 280 23                        @ ./packages/umqtt-latest/inc\umqtt_internal.h:280:23
	ldr	r1, [sp, #8]
	.loc	1 280 31                        @ ./packages/umqtt-latest/inc\umqtt_internal.h:280:31
	ldr	r2, [sp, #4]
	.loc	1 280 9                         @ ./packages/umqtt-latest/inc\umqtt_internal.h:280:9
	bl	__aeabi_memcpy
	.loc	1 281 18 is_stmt 1              @ ./packages/umqtt-latest/inc\umqtt_internal.h:281:18
	ldr	r2, [sp, #4]
	.loc	1 281 10 is_stmt 0              @ ./packages/umqtt-latest/inc\umqtt_internal.h:281:10
	ldr	r1, [sp, #12]
	.loc	1 281 15                        @ ./packages/umqtt-latest/inc\umqtt_internal.h:281:15
	ldr	r0, [r1]
	add	r0, r2
	str	r0, [r1]
	.loc	1 282 5 is_stmt 1               @ ./packages/umqtt-latest/inc\umqtt_internal.h:282:5
	b	.LBB15_2
.Ltmp92:
.LBB15_2:
	.loc	1 283 1                         @ ./packages/umqtt-latest/inc\umqtt_internal.h:283:1
	add	sp, #16
	pop	{r7, pc}
.Ltmp93:
.Lfunc_end15:
	.size	umqtt_writeCString, .Lfunc_end15-umqtt_writeCString
	.cfi_endproc
	.cantunwind
	.fnend
                                        @ -- End function
	.section	.text.umqtt_writeInt,"ax",%progbits
	.p2align	3                               @ -- Begin function umqtt_writeInt
	.type	umqtt_writeInt,%function
	.code	16                              @ @umqtt_writeInt
	.thumb_func
umqtt_writeInt:
.Lfunc_begin16:
	.loc	1 258 0                         @ ./packages/umqtt-latest/inc\umqtt_internal.h:258:0
	.fnstart
	.cfi_startproc
@ %bb.0:
	.pad	#8
	sub	sp, #8
	.cfi_def_cfa_offset 8
	str	r0, [sp, #4]
	str	r1, [sp]
.Ltmp94:
	.loc	1 259 27 prologue_end           @ ./packages/umqtt-latest/inc\umqtt_internal.h:259:27
	ldr	r0, [sp]
	.loc	1 259 33 is_stmt 0              @ ./packages/umqtt-latest/inc\umqtt_internal.h:259:33
	asrs	r1, r0, #31
	add.w	r0, r0, r1, lsr #24
	lsrs	r0, r0, #8
	.loc	1 259 4                         @ ./packages/umqtt-latest/inc\umqtt_internal.h:259:4
	ldr	r1, [sp, #4]
	.loc	1 259 3                         @ ./packages/umqtt-latest/inc\umqtt_internal.h:259:3
	ldr	r1, [r1]
	.loc	1 259 9                         @ ./packages/umqtt-latest/inc\umqtt_internal.h:259:9
	strb	r0, [r1]
	.loc	1 260 4 is_stmt 1               @ ./packages/umqtt-latest/inc\umqtt_internal.h:260:4
	ldr	r1, [sp, #4]
	.loc	1 260 9 is_stmt 0               @ ./packages/umqtt-latest/inc\umqtt_internal.h:260:9
	ldr	r0, [r1]
	adds	r0, #1
	str	r0, [r1]
	.loc	1 261 27 is_stmt 1              @ ./packages/umqtt-latest/inc\umqtt_internal.h:261:27
	ldr	r0, [sp]
	.loc	1 261 4 is_stmt 0               @ ./packages/umqtt-latest/inc\umqtt_internal.h:261:4
	ldr	r1, [sp, #4]
	.loc	1 261 3                         @ ./packages/umqtt-latest/inc\umqtt_internal.h:261:3
	ldr	r1, [r1]
	.loc	1 261 9                         @ ./packages/umqtt-latest/inc\umqtt_internal.h:261:9
	strb	r0, [r1]
	.loc	1 262 4 is_stmt 1               @ ./packages/umqtt-latest/inc\umqtt_internal.h:262:4
	ldr	r1, [sp, #4]
	.loc	1 262 9 is_stmt 0               @ ./packages/umqtt-latest/inc\umqtt_internal.h:262:9
	ldr	r0, [r1]
	adds	r0, #1
	str	r0, [r1]
	.loc	1 263 1 is_stmt 1               @ ./packages/umqtt-latest/inc\umqtt_internal.h:263:1
	add	sp, #8
	bx	lr
.Ltmp95:
.Lfunc_end16:
	.size	umqtt_writeInt, .Lfunc_end16-umqtt_writeInt
	.cfi_endproc
	.cantunwind
	.fnend
                                        @ -- End function
	.section	.text.umqtt_writeMQTTString,"ax",%progbits
	.p2align	3                               @ -- Begin function umqtt_writeMQTTString
	.type	umqtt_writeMQTTString,%function
	.code	16                              @ @umqtt_writeMQTTString
	.thumb_func
umqtt_writeMQTTString:
.Lfunc_begin17:
	.loc	1 286 0                         @ ./packages/umqtt-latest/inc\umqtt_internal.h:286:0
	.fnstart
	.cfi_startproc
@ %bb.0:
	.save	{r7, lr}
	push	{r7, lr}
	.cfi_def_cfa_offset 8
	.cfi_offset lr, -4
	.cfi_offset r7, -8
	.pad	#16
	sub	sp, #16
	.cfi_def_cfa_offset 24
	str	r0, [sp, #12]
	str	r1, [sp, #8]
	movs	r0, #0
.Ltmp96:
	.loc	1 287 6 prologue_end            @ ./packages/umqtt-latest/inc\umqtt_internal.h:287:6
	str	r0, [sp, #4]
.Ltmp97:
	.loc	1 288 9                         @ ./packages/umqtt-latest/inc\umqtt_internal.h:288:9
	ldr	r0, [sp, #8]
.Ltmp98:
	.loc	1 288 9 is_stmt 0               @ ./packages/umqtt-latest/inc\umqtt_internal.h:288:9
	cbz	r0, .LBB17_2
	b	.LBB17_1
.LBB17_1:
.Ltmp99:
	.loc	1 290 22 is_stmt 1              @ ./packages/umqtt-latest/inc\umqtt_internal.h:290:22
	ldr	r0, [sp, #8]
	.loc	1 290 15 is_stmt 0              @ ./packages/umqtt-latest/inc\umqtt_internal.h:290:15
	bl	strlen
	.loc	1 290 13                        @ ./packages/umqtt-latest/inc\umqtt_internal.h:290:13
	str	r0, [sp, #4]
	.loc	1 291 24 is_stmt 1              @ ./packages/umqtt-latest/inc\umqtt_internal.h:291:24
	ldr	r0, [sp, #12]
	.loc	1 291 30 is_stmt 0              @ ./packages/umqtt-latest/inc\umqtt_internal.h:291:30
	ldr	r1, [sp, #4]
	.loc	1 291 9                         @ ./packages/umqtt-latest/inc\umqtt_internal.h:291:9
	bl	umqtt_writeInt
	.loc	1 292 17 is_stmt 1              @ ./packages/umqtt-latest/inc\umqtt_internal.h:292:17
	ldr	r0, [sp, #12]
	.loc	1 292 16 is_stmt 0              @ ./packages/umqtt-latest/inc\umqtt_internal.h:292:16
	ldr	r0, [r0]
	.loc	1 292 23                        @ ./packages/umqtt-latest/inc\umqtt_internal.h:292:23
	ldr	r1, [sp, #8]
	.loc	1 292 31                        @ ./packages/umqtt-latest/inc\umqtt_internal.h:292:31
	ldr	r2, [sp, #4]
	.loc	1 292 9                         @ ./packages/umqtt-latest/inc\umqtt_internal.h:292:9
	bl	__aeabi_memcpy
	.loc	1 293 18 is_stmt 1              @ ./packages/umqtt-latest/inc\umqtt_internal.h:293:18
	ldr	r2, [sp, #4]
	.loc	1 293 10 is_stmt 0              @ ./packages/umqtt-latest/inc\umqtt_internal.h:293:10
	ldr	r1, [sp, #12]
	.loc	1 293 15                        @ ./packages/umqtt-latest/inc\umqtt_internal.h:293:15
	ldr	r0, [r1]
	add	r0, r2
	str	r0, [r1]
	.loc	1 294 5 is_stmt 1               @ ./packages/umqtt-latest/inc\umqtt_internal.h:294:5
	b	.LBB17_3
.Ltmp100:
.LBB17_2:
	.loc	1 297 24                        @ ./packages/umqtt-latest/inc\umqtt_internal.h:297:24
	ldr	r0, [sp, #12]
	movs	r1, #0
	.loc	1 297 9 is_stmt 0               @ ./packages/umqtt-latest/inc\umqtt_internal.h:297:9
	bl	umqtt_writeInt
	b	.LBB17_3
.Ltmp101:
.LBB17_3:
	.loc	1 299 1 is_stmt 1               @ ./packages/umqtt-latest/inc\umqtt_internal.h:299:1
	add	sp, #16
	pop	{r7, pc}
.Ltmp102:
.Lfunc_end17:
	.size	umqtt_writeMQTTString, .Lfunc_end17-umqtt_writeMQTTString
	.cfi_endproc
	.cantunwind
	.fnend
                                        @ -- End function
	.section	.text.MQTTSerialize_publish,"ax",%progbits
	.p2align	3                               @ -- Begin function MQTTSerialize_publish
	.type	MQTTSerialize_publish,%function
	.code	16                              @ @MQTTSerialize_publish
	.thumb_func
MQTTSerialize_publish:
.Lfunc_begin18:
	.loc	3 223 0                         @ packages/umqtt-latest/src/pkgs/umqtt_pkgs_encode.c:223:0
	.fnstart
	.cfi_startproc
@ %bb.0:
	.save	{r7, lr}
	push	{r7, lr}
	.cfi_def_cfa_offset 8
	.cfi_offset lr, -4
	.cfi_offset r7, -8
	.pad	#40
	sub	sp, #40
	.cfi_def_cfa_offset 48
	ldr.w	r12, [sp, #48]
	str	r0, [sp, #36]
	str	r1, [sp, #32]
	str	r2, [sp, #28]
	str	r3, [sp, #24]
.Ltmp103:
	.loc	3 224 26 prologue_end           @ packages/umqtt-latest/src/pkgs/umqtt_pkgs_encode.c:224:26
	ldr	r0, [sp, #36]
	.loc	3 224 20 is_stmt 0              @ packages/umqtt-latest/src/pkgs/umqtt_pkgs_encode.c:224:20
	str	r0, [sp, #20]
	movs	r0, #0
	.loc	3 225 16 is_stmt 1              @ packages/umqtt-latest/src/pkgs/umqtt_pkgs_encode.c:225:16
	strb.w	r0, [sp, #16]
	.loc	3 226 9                         @ packages/umqtt-latest/src/pkgs/umqtt_pkgs_encode.c:226:9
	str	r0, [sp, #12]
	.loc	3 227 9                         @ packages/umqtt-latest/src/pkgs/umqtt_pkgs_encode.c:227:9
	str	r0, [sp, #8]
.Ltmp104:
	.loc	3 229 62                        @ packages/umqtt-latest/src/pkgs/umqtt_pkgs_encode.c:229:62
	ldr	r0, [sp, #24]
	.loc	3 229 67 is_stmt 0              @ packages/umqtt-latest/src/pkgs/umqtt_pkgs_encode.c:229:67
	ldr	r1, [sp, #48]
	.loc	3 229 34                        @ packages/umqtt-latest/src/pkgs/umqtt_pkgs_encode.c:229:34
	bl	MQTTSerialize_publishLength
	.loc	3 229 32                        @ packages/umqtt-latest/src/pkgs/umqtt_pkgs_encode.c:229:32
	str	r0, [sp, #12]
	.loc	3 229 9                         @ packages/umqtt-latest/src/pkgs/umqtt_pkgs_encode.c:229:9
	bl	umqtt_pkgs_len
	.loc	3 229 79                        @ packages/umqtt-latest/src/pkgs/umqtt_pkgs_encode.c:229:79
	ldr	r1, [sp, #32]
.Ltmp105:
	.loc	3 229 9                         @ packages/umqtt-latest/src/pkgs/umqtt_pkgs_encode.c:229:9
	cmp	r0, r1
	ble	.LBB18_2
	b	.LBB18_1
.LBB18_1:
	.loc	3 0 9                           @ packages/umqtt-latest/src/pkgs/umqtt_pkgs_encode.c:0:9
	mvn	r0, #8
.Ltmp106:
	.loc	3 231 12 is_stmt 1              @ packages/umqtt-latest/src/pkgs/umqtt_pkgs_encode.c:231:12
	str	r0, [sp, #8]
	.loc	3 232 9                         @ packages/umqtt-latest/src/pkgs/umqtt_pkgs_encode.c:232:9
	b	.LBB18_5
.Ltmp107:
.LBB18_2:
	.loc	3 235 22                        @ packages/umqtt-latest/src/pkgs/umqtt_pkgs_encode.c:235:22
	ldrb.w	r0, [sp, #16]
	movs	r1, #3
	bfi	r0, r1, #4, #28
	strb.w	r0, [sp, #16]
	.loc	3 236 23                        @ packages/umqtt-latest/src/pkgs/umqtt_pkgs_encode.c:236:23
	ldrb.w	r1, [sp, #28]
	.loc	3 236 21 is_stmt 0              @ packages/umqtt-latest/src/pkgs/umqtt_pkgs_encode.c:236:21
	ldrb.w	r0, [sp, #16]
	and	r1, r1, #1
	and	r0, r0, #247
	orr.w	r0, r0, r1, lsl #3
	strb.w	r0, [sp, #16]
	.loc	3 237 23 is_stmt 1              @ packages/umqtt-latest/src/pkgs/umqtt_pkgs_encode.c:237:23
	ldrb.w	r1, [sp, #24]
	.loc	3 237 21 is_stmt 0              @ packages/umqtt-latest/src/pkgs/umqtt_pkgs_encode.c:237:21
	ldrb.w	r0, [sp, #16]
	and	r1, r1, #3
	and	r0, r0, #249
	orr.w	r0, r0, r1, lsl #1
	strb.w	r0, [sp, #16]
	.loc	3 238 34 is_stmt 1              @ packages/umqtt-latest/src/pkgs/umqtt_pkgs_encode.c:238:34
	ldrsb.w	r1, [sp, #16]
	add	r0, sp, #20
	.loc	3 238 5 is_stmt 0               @ packages/umqtt-latest/src/pkgs/umqtt_pkgs_encode.c:238:5
	str	r0, [sp, #4]                    @ 4-byte Spill
	bl	umqtt_writeChar
	.loc	3 239 30 is_stmt 1              @ packages/umqtt-latest/src/pkgs/umqtt_pkgs_encode.c:239:30
	ldr	r0, [sp, #20]
	.loc	3 239 35 is_stmt 0              @ packages/umqtt-latest/src/pkgs/umqtt_pkgs_encode.c:239:35
	ldr	r1, [sp, #12]
	.loc	3 239 12                        @ packages/umqtt-latest/src/pkgs/umqtt_pkgs_encode.c:239:12
	bl	umqtt_pkgs_encode
	mov	r2, r0
	.loc	3 239 9                         @ packages/umqtt-latest/src/pkgs/umqtt_pkgs_encode.c:239:9
	ldr	r0, [sp, #4]                    @ 4-byte Reload
	ldr	r1, [sp, #20]
	add	r1, r2
	str	r1, [sp, #20]
	.loc	3 241 27 is_stmt 1              @ packages/umqtt-latest/src/pkgs/umqtt_pkgs_encode.c:241:27
	ldr	r1, [sp, #48]
	.loc	3 241 36 is_stmt 0              @ packages/umqtt-latest/src/pkgs/umqtt_pkgs_encode.c:241:36
	ldr	r1, [r1, #4]
	.loc	3 241 2                         @ packages/umqtt-latest/src/pkgs/umqtt_pkgs_encode.c:241:2
	bl	umqtt_writeCString
.Ltmp108:
	.loc	3 243 9 is_stmt 1               @ packages/umqtt-latest/src/pkgs/umqtt_pkgs_encode.c:243:9
	ldr	r0, [sp, #24]
.Ltmp109:
	.loc	3 243 9 is_stmt 0               @ packages/umqtt-latest/src/pkgs/umqtt_pkgs_encode.c:243:9
	cmp	r0, #1
	blt	.LBB18_4
	b	.LBB18_3
.LBB18_3:
.Ltmp110:
	.loc	3 244 30 is_stmt 1              @ packages/umqtt-latest/src/pkgs/umqtt_pkgs_encode.c:244:30
	ldr	r0, [sp, #48]
	.loc	3 244 39 is_stmt 0              @ packages/umqtt-latest/src/pkgs/umqtt_pkgs_encode.c:244:39
	ldrh	r1, [r0, #8]
	add	r0, sp, #20
	.loc	3 244 9                         @ packages/umqtt-latest/src/pkgs/umqtt_pkgs_encode.c:244:9
	bl	umqtt_writeInt
	b	.LBB18_4
.Ltmp111:
.LBB18_4:
	.loc	3 246 12 is_stmt 1              @ packages/umqtt-latest/src/pkgs/umqtt_pkgs_encode.c:246:12
	ldr	r0, [sp, #20]
	.loc	3 246 17 is_stmt 0              @ packages/umqtt-latest/src/pkgs/umqtt_pkgs_encode.c:246:17
	ldr	r2, [sp, #48]
	.loc	3 246 26                        @ packages/umqtt-latest/src/pkgs/umqtt_pkgs_encode.c:246:26
	ldr	r1, [r2, #12]
	.loc	3 246 44                        @ packages/umqtt-latest/src/pkgs/umqtt_pkgs_encode.c:246:44
	ldr	r2, [r2, #16]
	.loc	3 246 5                         @ packages/umqtt-latest/src/pkgs/umqtt_pkgs_encode.c:246:5
	bl	__aeabi_memcpy
	.loc	3 247 12 is_stmt 1              @ packages/umqtt-latest/src/pkgs/umqtt_pkgs_encode.c:247:12
	ldr	r0, [sp, #48]
	.loc	3 247 21 is_stmt 0              @ packages/umqtt-latest/src/pkgs/umqtt_pkgs_encode.c:247:21
	ldr	r1, [r0, #16]
	.loc	3 247 9                         @ packages/umqtt-latest/src/pkgs/umqtt_pkgs_encode.c:247:9
	ldr	r0, [sp, #20]
	add	r0, r1
	str	r0, [sp, #20]
	.loc	3 249 10 is_stmt 1              @ packages/umqtt-latest/src/pkgs/umqtt_pkgs_encode.c:249:10
	ldr	r0, [sp, #20]
	.loc	3 249 16 is_stmt 0              @ packages/umqtt-latest/src/pkgs/umqtt_pkgs_encode.c:249:16
	ldr	r1, [sp, #36]
	.loc	3 249 14                        @ packages/umqtt-latest/src/pkgs/umqtt_pkgs_encode.c:249:14
	subs	r0, r0, r1
	.loc	3 249 8                         @ packages/umqtt-latest/src/pkgs/umqtt_pkgs_encode.c:249:8
	str	r0, [sp, #8]
	.loc	3 249 5                         @ packages/umqtt-latest/src/pkgs/umqtt_pkgs_encode.c:249:5
	b	.LBB18_5
.LBB18_5:
.Ltmp112:
	@DEBUG_LABEL: MQTTSerialize_publish:exit
	.loc	3 251 12 is_stmt 1              @ packages/umqtt-latest/src/pkgs/umqtt_pkgs_encode.c:251:12
	ldr	r0, [sp, #8]
	.loc	3 251 5 is_stmt 0               @ packages/umqtt-latest/src/pkgs/umqtt_pkgs_encode.c:251:5
	add	sp, #40
	pop	{r7, pc}
.Ltmp113:
.Lfunc_end18:
	.size	MQTTSerialize_publish, .Lfunc_end18-MQTTSerialize_publish
	.cfi_endproc
	.cantunwind
	.fnend
                                        @ -- End function
	.section	.text.MQTTSerialize_publishLength,"ax",%progbits
	.p2align	3                               @ -- Begin function MQTTSerialize_publishLength
	.type	MQTTSerialize_publishLength,%function
	.code	16                              @ @MQTTSerialize_publishLength
	.thumb_func
MQTTSerialize_publishLength:
.Lfunc_begin19:
	.loc	3 73 0 is_stmt 1                @ packages/umqtt-latest/src/pkgs/umqtt_pkgs_encode.c:73:0
	.fnstart
	.cfi_startproc
@ %bb.0:
	.pad	#12
	sub	sp, #12
	.cfi_def_cfa_offset 12
	str	r0, [sp, #8]
	str	r1, [sp, #4]
	movs	r0, #0
.Ltmp114:
	.loc	3 74 9 prologue_end             @ packages/umqtt-latest/src/pkgs/umqtt_pkgs_encode.c:74:9
	str	r0, [sp]
	.loc	3 75 16                         @ packages/umqtt-latest/src/pkgs/umqtt_pkgs_encode.c:75:16
	ldr	r1, [sp, #4]
	.loc	3 75 24 is_stmt 0               @ packages/umqtt-latest/src/pkgs/umqtt_pkgs_encode.c:75:24
	ldrh	r0, [r1]
	.loc	3 75 49                         @ packages/umqtt-latest/src/pkgs/umqtt_pkgs_encode.c:75:49
	ldr	r1, [r1, #16]
	.loc	3 75 14                         @ packages/umqtt-latest/src/pkgs/umqtt_pkgs_encode.c:75:14
	add	r0, r1
	.loc	3 75 9                          @ packages/umqtt-latest/src/pkgs/umqtt_pkgs_encode.c:75:9
	ldr	r1, [sp]
	.loc	3 75 39                         @ packages/umqtt-latest/src/pkgs/umqtt_pkgs_encode.c:75:39
	add	r0, r1
	.loc	3 75 9                          @ packages/umqtt-latest/src/pkgs/umqtt_pkgs_encode.c:75:9
	adds	r0, #2
	str	r0, [sp]
.Ltmp115:
	.loc	3 76 9 is_stmt 1                @ packages/umqtt-latest/src/pkgs/umqtt_pkgs_encode.c:76:9
	ldr	r0, [sp, #8]
.Ltmp116:
	.loc	3 76 9 is_stmt 0                @ packages/umqtt-latest/src/pkgs/umqtt_pkgs_encode.c:76:9
	cmp	r0, #1
	blt	.LBB19_2
	b	.LBB19_1
.LBB19_1:
.Ltmp117:
	.loc	3 77 13 is_stmt 1               @ packages/umqtt-latest/src/pkgs/umqtt_pkgs_encode.c:77:13
	ldr	r0, [sp]
	adds	r0, #2
	str	r0, [sp]
	.loc	3 77 9 is_stmt 0                @ packages/umqtt-latest/src/pkgs/umqtt_pkgs_encode.c:77:9
	b	.LBB19_2
.Ltmp118:
.LBB19_2:
	.loc	3 79 12 is_stmt 1               @ packages/umqtt-latest/src/pkgs/umqtt_pkgs_encode.c:79:12
	ldr	r0, [sp]
	.loc	3 79 5 is_stmt 0                @ packages/umqtt-latest/src/pkgs/umqtt_pkgs_encode.c:79:5
	add	sp, #12
	bx	lr
.Ltmp119:
.Lfunc_end19:
	.size	MQTTSerialize_publishLength, .Lfunc_end19-MQTTSerialize_publishLength
	.cfi_endproc
	.cantunwind
	.fnend
                                        @ -- End function
	.section	.text.MQTTSerialize_ack,"ax",%progbits
	.p2align	3                               @ -- Begin function MQTTSerialize_ack
	.type	MQTTSerialize_ack,%function
	.code	16                              @ @MQTTSerialize_ack
	.thumb_func
MQTTSerialize_ack:
.Lfunc_begin20:
	.loc	3 255 0 is_stmt 1               @ packages/umqtt-latest/src/pkgs/umqtt_pkgs_encode.c:255:0
	.fnstart
	.cfi_startproc
@ %bb.0:
	.save	{r7, lr}
	push	{r7, lr}
	.cfi_def_cfa_offset 8
	.cfi_offset lr, -4
	.cfi_offset r7, -8
	.pad	#32
	sub	sp, #32
	.cfi_def_cfa_offset 40
	mov	r12, r0
	ldr	r0, [sp, #40]
                                        @ kill: def $lr killed $r3
                                        @ kill: def $lr killed $r2
	str.w	r12, [sp, #28]
	str	r1, [sp, #24]
	strb.w	r2, [sp, #23]
	strb.w	r3, [sp, #22]
	strh.w	r0, [sp, #20]
	movs	r0, #0
.Ltmp120:
	.loc	3 256 16 prologue_end           @ packages/umqtt-latest/src/pkgs/umqtt_pkgs_encode.c:256:16
	strb.w	r0, [sp, #16]
	.loc	3 257 9                         @ packages/umqtt-latest/src/pkgs/umqtt_pkgs_encode.c:257:9
	str	r0, [sp, #12]
	.loc	3 258 26                        @ packages/umqtt-latest/src/pkgs/umqtt_pkgs_encode.c:258:26
	ldr	r0, [sp, #28]
	.loc	3 258 20 is_stmt 0              @ packages/umqtt-latest/src/pkgs/umqtt_pkgs_encode.c:258:20
	str	r0, [sp, #8]
.Ltmp121:
	.loc	3 260 9 is_stmt 1               @ packages/umqtt-latest/src/pkgs/umqtt_pkgs_encode.c:260:9
	ldr	r0, [sp, #24]
.Ltmp122:
	.loc	3 260 9 is_stmt 0               @ packages/umqtt-latest/src/pkgs/umqtt_pkgs_encode.c:260:9
	cmp	r0, #3
	bgt	.LBB20_2
	b	.LBB20_1
.LBB20_1:
	.loc	3 0 9                           @ packages/umqtt-latest/src/pkgs/umqtt_pkgs_encode.c:0:9
	mvn	r0, #8
.Ltmp123:
	.loc	3 262 12 is_stmt 1              @ packages/umqtt-latest/src/pkgs/umqtt_pkgs_encode.c:262:12
	str	r0, [sp, #12]
	.loc	3 263 9                         @ packages/umqtt-latest/src/pkgs/umqtt_pkgs_encode.c:263:9
	b	.LBB20_3
.Ltmp124:
.LBB20_2:
	.loc	3 265 24                        @ packages/umqtt-latest/src/pkgs/umqtt_pkgs_encode.c:265:24
	ldrb.w	r1, [sp, #23]
	.loc	3 265 22 is_stmt 0              @ packages/umqtt-latest/src/pkgs/umqtt_pkgs_encode.c:265:22
	ldrb.w	r0, [sp, #16]
	and	r0, r0, #15
	orr.w	r0, r0, r1, lsl #4
	strb.w	r0, [sp, #16]
	.loc	3 266 23 is_stmt 1              @ packages/umqtt-latest/src/pkgs/umqtt_pkgs_encode.c:266:23
	ldrb.w	r1, [sp, #22]
	.loc	3 266 21 is_stmt 0              @ packages/umqtt-latest/src/pkgs/umqtt_pkgs_encode.c:266:21
	ldrb.w	r0, [sp, #16]
	and	r1, r1, #1
	and	r0, r0, #247
	orr.w	r0, r0, r1, lsl #3
	strb.w	r0, [sp, #16]
	.loc	3 267 24 is_stmt 1              @ packages/umqtt-latest/src/pkgs/umqtt_pkgs_encode.c:267:24
	ldrb.w	r0, [sp, #23]
	.loc	3 267 35 is_stmt 0              @ packages/umqtt-latest/src/pkgs/umqtt_pkgs_encode.c:267:35
	subs	r0, #6
	clz	r0, r0
	lsrs	r1, r0, #5
	.loc	3 267 21                        @ packages/umqtt-latest/src/pkgs/umqtt_pkgs_encode.c:267:21
	ldrb.w	r0, [sp, #16]
	and	r0, r0, #249
	orr.w	r0, r0, r1, lsl #1
	strb.w	r0, [sp, #16]
	.loc	3 268 34 is_stmt 1              @ packages/umqtt-latest/src/pkgs/umqtt_pkgs_encode.c:268:34
	ldrsb.w	r1, [sp, #16]
	add	r0, sp, #8
	.loc	3 268 5 is_stmt 0               @ packages/umqtt-latest/src/pkgs/umqtt_pkgs_encode.c:268:5
	str	r0, [sp, #4]                    @ 4-byte Spill
	bl	umqtt_writeChar
	.loc	3 270 30 is_stmt 1              @ packages/umqtt-latest/src/pkgs/umqtt_pkgs_encode.c:270:30
	ldr	r0, [sp, #8]
	movs	r1, #2
	.loc	3 270 12 is_stmt 0              @ packages/umqtt-latest/src/pkgs/umqtt_pkgs_encode.c:270:12
	bl	umqtt_pkgs_encode
	mov	r2, r0
	.loc	3 270 9                         @ packages/umqtt-latest/src/pkgs/umqtt_pkgs_encode.c:270:9
	ldr	r0, [sp, #4]                    @ 4-byte Reload
	ldr	r1, [sp, #8]
	add	r1, r2
	str	r1, [sp, #8]
	.loc	3 271 26 is_stmt 1              @ packages/umqtt-latest/src/pkgs/umqtt_pkgs_encode.c:271:26
	ldrh.w	r1, [sp, #20]
	.loc	3 271 5 is_stmt 0               @ packages/umqtt-latest/src/pkgs/umqtt_pkgs_encode.c:271:5
	bl	umqtt_writeInt
	.loc	3 272 10 is_stmt 1              @ packages/umqtt-latest/src/pkgs/umqtt_pkgs_encode.c:272:10
	ldr	r0, [sp, #8]
	.loc	3 272 16 is_stmt 0              @ packages/umqtt-latest/src/pkgs/umqtt_pkgs_encode.c:272:16
	ldr	r1, [sp, #28]
	.loc	3 272 14                        @ packages/umqtt-latest/src/pkgs/umqtt_pkgs_encode.c:272:14
	subs	r0, r0, r1
	.loc	3 272 8                         @ packages/umqtt-latest/src/pkgs/umqtt_pkgs_encode.c:272:8
	str	r0, [sp, #12]
	.loc	3 272 5                         @ packages/umqtt-latest/src/pkgs/umqtt_pkgs_encode.c:272:5
	b	.LBB20_3
.LBB20_3:
.Ltmp125:
	@DEBUG_LABEL: MQTTSerialize_ack:exit
	.loc	3 274 12 is_stmt 1              @ packages/umqtt-latest/src/pkgs/umqtt_pkgs_encode.c:274:12
	ldr	r0, [sp, #12]
	.loc	3 274 5 is_stmt 0               @ packages/umqtt-latest/src/pkgs/umqtt_pkgs_encode.c:274:5
	add	sp, #32
	pop	{r7, pc}
.Ltmp126:
.Lfunc_end20:
	.size	MQTTSerialize_ack, .Lfunc_end20-MQTTSerialize_ack
	.cfi_endproc
	.cantunwind
	.fnend
                                        @ -- End function
	.section	.text.MQTTSerialize_subscribe,"ax",%progbits
	.p2align	3                               @ -- Begin function MQTTSerialize_subscribe
	.type	MQTTSerialize_subscribe,%function
	.code	16                              @ @MQTTSerialize_subscribe
	.thumb_func
MQTTSerialize_subscribe:
.Lfunc_begin21:
	.loc	3 155 0 is_stmt 1               @ packages/umqtt-latest/src/pkgs/umqtt_pkgs_encode.c:155:0
	.fnstart
	.cfi_startproc
@ %bb.0:
	.save	{r7, lr}
	push	{r7, lr}
	.cfi_def_cfa_offset 8
	.cfi_offset lr, -4
	.cfi_offset r7, -8
	.pad	#48
	sub	sp, #48
	.cfi_def_cfa_offset 56
	str	r0, [sp, #44]
	str	r1, [sp, #40]
	str	r2, [sp, #36]
.Ltmp127:
	.loc	3 156 23 prologue_end           @ packages/umqtt-latest/src/pkgs/umqtt_pkgs_encode.c:156:23
	ldr	r0, [sp, #44]
	.loc	3 156 17 is_stmt 0              @ packages/umqtt-latest/src/pkgs/umqtt_pkgs_encode.c:156:17
	str	r0, [sp, #32]
	movs	r0, #0
	.loc	3 157 13 is_stmt 1              @ packages/umqtt-latest/src/pkgs/umqtt_pkgs_encode.c:157:13
	strb.w	r0, [sp, #28]
	.loc	3 158 6                         @ packages/umqtt-latest/src/pkgs/umqtt_pkgs_encode.c:158:6
	str	r0, [sp, #24]
	.loc	3 159 6                         @ packages/umqtt-latest/src/pkgs/umqtt_pkgs_encode.c:159:6
	str	r0, [sp, #20]
	.loc	3 160 6                         @ packages/umqtt-latest/src/pkgs/umqtt_pkgs_encode.c:160:6
	str	r0, [sp, #16]
.Ltmp128:
	.loc	3 162 61                        @ packages/umqtt-latest/src/pkgs/umqtt_pkgs_encode.c:162:61
	ldr	r0, [sp, #36]
	.loc	3 162 31 is_stmt 0              @ packages/umqtt-latest/src/pkgs/umqtt_pkgs_encode.c:162:31
	bl	MQTTSerialize_subscribeLength
	.loc	3 162 29                        @ packages/umqtt-latest/src/pkgs/umqtt_pkgs_encode.c:162:29
	str	r0, [sp, #24]
	.loc	3 162 6                         @ packages/umqtt-latest/src/pkgs/umqtt_pkgs_encode.c:162:6
	bl	umqtt_pkgs_len
	.loc	3 162 72                        @ packages/umqtt-latest/src/pkgs/umqtt_pkgs_encode.c:162:72
	ldr	r1, [sp, #40]
.Ltmp129:
	.loc	3 162 6                         @ packages/umqtt-latest/src/pkgs/umqtt_pkgs_encode.c:162:6
	cmp	r0, r1
	ble	.LBB21_2
	b	.LBB21_1
.LBB21_1:
	.loc	3 0 6                           @ packages/umqtt-latest/src/pkgs/umqtt_pkgs_encode.c:0:6
	mvn	r0, #8
.Ltmp130:
	.loc	3 164 6 is_stmt 1               @ packages/umqtt-latest/src/pkgs/umqtt_pkgs_encode.c:164:6
	str	r0, [sp, #20]
	.loc	3 165 3                         @ packages/umqtt-latest/src/pkgs/umqtt_pkgs_encode.c:165:3
	b	.LBB21_7
.Ltmp131:
.LBB21_2:
	.loc	3 0 3 is_stmt 0                 @ packages/umqtt-latest/src/pkgs/umqtt_pkgs_encode.c:0:3
	movs	r0, #0
	.loc	3 168 14 is_stmt 1              @ packages/umqtt-latest/src/pkgs/umqtt_pkgs_encode.c:168:14
	str	r0, [sp, #12]                   @ 4-byte Spill
	strb.w	r0, [sp, #28]
	.loc	3 169 19                        @ packages/umqtt-latest/src/pkgs/umqtt_pkgs_encode.c:169:19
	ldrb.w	r0, [sp, #28]
	movs	r1, #8
	bfi	r0, r1, #4, #28
	strb.w	r0, [sp, #28]
	.loc	3 170 18                        @ packages/umqtt-latest/src/pkgs/umqtt_pkgs_encode.c:170:18
	ldrb.w	r0, [sp, #28]
	and	r0, r0, #247
	strb.w	r0, [sp, #28]
	.loc	3 171 18                        @ packages/umqtt-latest/src/pkgs/umqtt_pkgs_encode.c:171:18
	ldrb.w	r0, [sp, #28]
	and	r0, r0, #249
	adds	r0, #2
	strb.w	r0, [sp, #28]
	.loc	3 172 31                        @ packages/umqtt-latest/src/pkgs/umqtt_pkgs_encode.c:172:31
	ldrsb.w	r1, [sp, #28]
	add	r0, sp, #32
	.loc	3 172 2 is_stmt 0               @ packages/umqtt-latest/src/pkgs/umqtt_pkgs_encode.c:172:2
	str	r0, [sp, #8]                    @ 4-byte Spill
	bl	umqtt_writeChar
	.loc	3 174 27 is_stmt 1              @ packages/umqtt-latest/src/pkgs/umqtt_pkgs_encode.c:174:27
	ldr	r0, [sp, #32]
	.loc	3 174 32 is_stmt 0              @ packages/umqtt-latest/src/pkgs/umqtt_pkgs_encode.c:174:32
	ldr	r1, [sp, #24]
	.loc	3 174 9                         @ packages/umqtt-latest/src/pkgs/umqtt_pkgs_encode.c:174:9
	bl	umqtt_pkgs_encode
	mov	r2, r0
	.loc	3 174 6                         @ packages/umqtt-latest/src/pkgs/umqtt_pkgs_encode.c:174:6
	ldr	r0, [sp, #8]                    @ 4-byte Reload
	ldr	r1, [sp, #32]
	add	r1, r2
	str	r1, [sp, #32]
	.loc	3 176 23 is_stmt 1              @ packages/umqtt-latest/src/pkgs/umqtt_pkgs_encode.c:176:23
	ldr	r1, [sp, #36]
	.loc	3 176 31 is_stmt 0              @ packages/umqtt-latest/src/pkgs/umqtt_pkgs_encode.c:176:31
	ldrh	r1, [r1]
	.loc	3 176 2                         @ packages/umqtt-latest/src/pkgs/umqtt_pkgs_encode.c:176:2
	bl	umqtt_writeInt
	ldr	r0, [sp, #12]                   @ 4-byte Reload
.Ltmp132:
	.loc	3 178 9 is_stmt 1               @ packages/umqtt-latest/src/pkgs/umqtt_pkgs_encode.c:178:9
	str	r0, [sp, #16]
	.loc	3 178 7 is_stmt 0               @ packages/umqtt-latest/src/pkgs/umqtt_pkgs_encode.c:178:7
	b	.LBB21_3
.LBB21_3:                               @ =>This Inner Loop Header: Depth=1
.Ltmp133:
	.loc	3 178 14                        @ packages/umqtt-latest/src/pkgs/umqtt_pkgs_encode.c:178:14
	ldr	r0, [sp, #16]
	.loc	3 178 18                        @ packages/umqtt-latest/src/pkgs/umqtt_pkgs_encode.c:178:18
	ldr	r1, [sp, #36]
	.loc	3 178 26                        @ packages/umqtt-latest/src/pkgs/umqtt_pkgs_encode.c:178:26
	ldrb.w	r1, [r1, #52]
.Ltmp134:
	.loc	3 178 2                         @ packages/umqtt-latest/src/pkgs/umqtt_pkgs_encode.c:178:2
	cmp	r0, r1
	bge	.LBB21_6
	b	.LBB21_4
.LBB21_4:                               @   in Loop: Header=BB21_3 Depth=1
.Ltmp135:
	.loc	3 180 31 is_stmt 1              @ packages/umqtt-latest/src/pkgs/umqtt_pkgs_encode.c:180:31
	ldr	r0, [sp, #36]
	.loc	3 180 52 is_stmt 0              @ packages/umqtt-latest/src/pkgs/umqtt_pkgs_encode.c:180:52
	ldr	r1, [sp, #16]
	.loc	3 180 31                        @ packages/umqtt-latest/src/pkgs/umqtt_pkgs_encode.c:180:31
	add.w	r1, r1, r1, lsl #1
	.loc	3 180 39                        @ packages/umqtt-latest/src/pkgs/umqtt_pkgs_encode.c:180:39
	add.w	r0, r0, r1, lsl #2
	.loc	3 180 55                        @ packages/umqtt-latest/src/pkgs/umqtt_pkgs_encode.c:180:55
	ldr	r1, [r0, #8]
	add	r0, sp, #32
	.loc	3 180 3                         @ packages/umqtt-latest/src/pkgs/umqtt_pkgs_encode.c:180:3
	str	r0, [sp, #4]                    @ 4-byte Spill
	bl	umqtt_writeMQTTString
	ldr	r0, [sp, #4]                    @ 4-byte Reload
	.loc	3 181 25 is_stmt 1              @ packages/umqtt-latest/src/pkgs/umqtt_pkgs_encode.c:181:25
	ldr	r1, [sp, #36]
	.loc	3 181 46 is_stmt 0              @ packages/umqtt-latest/src/pkgs/umqtt_pkgs_encode.c:181:46
	ldr	r2, [sp, #16]
	.loc	3 181 25                        @ packages/umqtt-latest/src/pkgs/umqtt_pkgs_encode.c:181:25
	add.w	r2, r2, r2, lsl #1
	.loc	3 181 33                        @ packages/umqtt-latest/src/pkgs/umqtt_pkgs_encode.c:181:33
	add.w	r1, r1, r2, lsl #2
	.loc	3 181 57                        @ packages/umqtt-latest/src/pkgs/umqtt_pkgs_encode.c:181:57
	ldrsb.w	r1, [r1, #12]
	.loc	3 181 3                         @ packages/umqtt-latest/src/pkgs/umqtt_pkgs_encode.c:181:3
	bl	umqtt_writeChar
	.loc	3 182 2 is_stmt 1               @ packages/umqtt-latest/src/pkgs/umqtt_pkgs_encode.c:182:2
	b	.LBB21_5
.Ltmp136:
.LBB21_5:                               @   in Loop: Header=BB21_3 Depth=1
	.loc	3 178 39                        @ packages/umqtt-latest/src/pkgs/umqtt_pkgs_encode.c:178:39
	ldr	r0, [sp, #16]
	adds	r0, #1
	str	r0, [sp, #16]
	.loc	3 178 2 is_stmt 0               @ packages/umqtt-latest/src/pkgs/umqtt_pkgs_encode.c:178:2
	b	.LBB21_3
.Ltmp137:
.LBB21_6:
	.loc	3 184 7 is_stmt 1               @ packages/umqtt-latest/src/pkgs/umqtt_pkgs_encode.c:184:7
	ldr	r0, [sp, #32]
	.loc	3 184 13 is_stmt 0              @ packages/umqtt-latest/src/pkgs/umqtt_pkgs_encode.c:184:13
	ldr	r1, [sp, #44]
	.loc	3 184 11                        @ packages/umqtt-latest/src/pkgs/umqtt_pkgs_encode.c:184:11
	subs	r0, r0, r1
	.loc	3 184 5                         @ packages/umqtt-latest/src/pkgs/umqtt_pkgs_encode.c:184:5
	str	r0, [sp, #20]
	.loc	3 184 2                         @ packages/umqtt-latest/src/pkgs/umqtt_pkgs_encode.c:184:2
	b	.LBB21_7
.LBB21_7:
.Ltmp138:
	@DEBUG_LABEL: MQTTSerialize_subscribe:exit
	.loc	3 187 9 is_stmt 1               @ packages/umqtt-latest/src/pkgs/umqtt_pkgs_encode.c:187:9
	ldr	r0, [sp, #20]
	.loc	3 187 2 is_stmt 0               @ packages/umqtt-latest/src/pkgs/umqtt_pkgs_encode.c:187:2
	add	sp, #48
	pop	{r7, pc}
.Ltmp139:
.Lfunc_end21:
	.size	MQTTSerialize_subscribe, .Lfunc_end21-MQTTSerialize_subscribe
	.cfi_endproc
	.cantunwind
	.fnend
                                        @ -- End function
	.section	.text.MQTTSerialize_subscribeLength,"ax",%progbits
	.p2align	3                               @ -- Begin function MQTTSerialize_subscribeLength
	.type	MQTTSerialize_subscribeLength,%function
	.code	16                              @ @MQTTSerialize_subscribeLength
	.thumb_func
MQTTSerialize_subscribeLength:
.Lfunc_begin22:
	.loc	3 45 0 is_stmt 1                @ packages/umqtt-latest/src/pkgs/umqtt_pkgs_encode.c:45:0
	.fnstart
	.cfi_startproc
@ %bb.0:
	.save	{r7, lr}
	push	{r7, lr}
	.cfi_def_cfa_offset 8
	.cfi_offset lr, -4
	.cfi_offset r7, -8
	.pad	#16
	sub	sp, #16
	.cfi_def_cfa_offset 24
	str	r0, [sp, #12]
	movs	r0, #0
.Ltmp140:
	.loc	3 46 9 prologue_end             @ packages/umqtt-latest/src/pkgs/umqtt_pkgs_encode.c:46:9
	str	r0, [sp, #8]
	movs	r0, #2
	.loc	3 47 9                          @ packages/umqtt-latest/src/pkgs/umqtt_pkgs_encode.c:47:9
	str	r0, [sp, #4]
.Ltmp141:
	.loc	3 48 9                          @ packages/umqtt-latest/src/pkgs/umqtt_pkgs_encode.c:48:9
	ldr	r0, [sp, #12]
	.loc	3 48 16 is_stmt 0               @ packages/umqtt-latest/src/pkgs/umqtt_pkgs_encode.c:48:16
	cbz	r0, .LBB22_10
	b	.LBB22_1
.LBB22_1:
	.loc	3 48 20                         @ packages/umqtt-latest/src/pkgs/umqtt_pkgs_encode.c:48:20
	ldr	r0, [sp, #12]
	.loc	3 48 28                         @ packages/umqtt-latest/src/pkgs/umqtt_pkgs_encode.c:48:28
	ldrb.w	r0, [r0, #52]
.Ltmp142:
	.loc	3 48 9                          @ packages/umqtt-latest/src/pkgs/umqtt_pkgs_encode.c:48:9
	cmp	r0, #1
	blt	.LBB22_10
	b	.LBB22_2
.LBB22_2:
	.loc	3 0 9                           @ packages/umqtt-latest/src/pkgs/umqtt_pkgs_encode.c:0:9
	movs	r0, #0
.Ltmp143:
	.loc	3 50 19 is_stmt 1               @ packages/umqtt-latest/src/pkgs/umqtt_pkgs_encode.c:50:19
	str	r0, [sp, #8]
	.loc	3 50 14 is_stmt 0               @ packages/umqtt-latest/src/pkgs/umqtt_pkgs_encode.c:50:14
	b	.LBB22_3
.LBB22_3:                               @ =>This Inner Loop Header: Depth=1
.Ltmp144:
	.loc	3 50 24                         @ packages/umqtt-latest/src/pkgs/umqtt_pkgs_encode.c:50:24
	ldr	r0, [sp, #8]
	.loc	3 50 31                         @ packages/umqtt-latest/src/pkgs/umqtt_pkgs_encode.c:50:31
	ldr	r1, [sp, #12]
	.loc	3 50 39                         @ packages/umqtt-latest/src/pkgs/umqtt_pkgs_encode.c:50:39
	ldrb.w	r1, [r1, #52]
.Ltmp145:
	.loc	3 50 9                          @ packages/umqtt-latest/src/pkgs/umqtt_pkgs_encode.c:50:9
	cmp	r0, r1
	bge	.LBB22_9
	b	.LBB22_4
.LBB22_4:                               @   in Loop: Header=BB22_3 Depth=1
.Ltmp146:
	.loc	3 51 24 is_stmt 1               @ packages/umqtt-latest/src/pkgs/umqtt_pkgs_encode.c:51:24
	ldr	r0, [sp, #12]
	ldr	r1, [sp, #8]
	add.w	r1, r1, r1, lsl #1
	add.w	r0, r0, r1, lsl #2
	ldr	r0, [r0, #8]
	cbnz	r0, .LBB22_6
	b	.LBB22_5
.LBB22_5:                               @   in Loop: Header=BB22_3 Depth=1
	.loc	3 0 24 is_stmt 0                @ packages/umqtt-latest/src/pkgs/umqtt_pkgs_encode.c:0:24
	movs	r0, #0
	.loc	3 51 24                         @ packages/umqtt-latest/src/pkgs/umqtt_pkgs_encode.c:51:24
	str	r0, [sp]                        @ 4-byte Spill
	b	.LBB22_7
.LBB22_6:                               @   in Loop: Header=BB22_3 Depth=1
	ldr	r0, [sp, #12]
	ldr	r1, [sp, #8]
	add.w	r1, r1, r1, lsl #1
	add.w	r0, r0, r1, lsl #2
	ldr	r0, [r0, #8]
	bl	strlen
	str	r0, [sp]                        @ 4-byte Spill
	b	.LBB22_7
.LBB22_7:                               @   in Loop: Header=BB22_3 Depth=1
	ldr	r0, [sp]                        @ 4-byte Reload
	.loc	3 51 17                         @ packages/umqtt-latest/src/pkgs/umqtt_pkgs_encode.c:51:17
	ldr	r1, [sp, #4]
	.loc	3 51 22                         @ packages/umqtt-latest/src/pkgs/umqtt_pkgs_encode.c:51:22
	add	r0, r1
	.loc	3 51 17                         @ packages/umqtt-latest/src/pkgs/umqtt_pkgs_encode.c:51:17
	adds	r0, #3
	str	r0, [sp, #4]
	.loc	3 51 13                         @ packages/umqtt-latest/src/pkgs/umqtt_pkgs_encode.c:51:13
	b	.LBB22_8
.LBB22_8:                               @   in Loop: Header=BB22_3 Depth=1
	.loc	3 50 56 is_stmt 1               @ packages/umqtt-latest/src/pkgs/umqtt_pkgs_encode.c:50:56
	ldr	r0, [sp, #8]
	adds	r0, #1
	str	r0, [sp, #8]
	.loc	3 50 9 is_stmt 0                @ packages/umqtt-latest/src/pkgs/umqtt_pkgs_encode.c:50:9
	b	.LBB22_3
.Ltmp147:
.LBB22_9:
	.loc	3 52 5 is_stmt 1                @ packages/umqtt-latest/src/pkgs/umqtt_pkgs_encode.c:52:5
	b	.LBB22_11
.Ltmp148:
.LBB22_10:
	.loc	3 0 5 is_stmt 0                 @ packages/umqtt-latest/src/pkgs/umqtt_pkgs_encode.c:0:5
	movs	r0, #0
	.loc	3 54 13 is_stmt 1               @ packages/umqtt-latest/src/pkgs/umqtt_pkgs_encode.c:54:13
	str	r0, [sp, #4]
	b	.LBB22_11
.Ltmp149:
.LBB22_11:
	.loc	3 55 12                         @ packages/umqtt-latest/src/pkgs/umqtt_pkgs_encode.c:55:12
	ldr	r0, [sp, #4]
	.loc	3 55 5 is_stmt 0                @ packages/umqtt-latest/src/pkgs/umqtt_pkgs_encode.c:55:5
	add	sp, #16
	pop	{r7, pc}
.Ltmp150:
.Lfunc_end22:
	.size	MQTTSerialize_subscribeLength, .Lfunc_end22-MQTTSerialize_subscribeLength
	.cfi_endproc
	.cantunwind
	.fnend
                                        @ -- End function
	.section	.text.MQTTSerialize_unsubscribe,"ax",%progbits
	.p2align	3                               @ -- Begin function MQTTSerialize_unsubscribe
	.type	MQTTSerialize_unsubscribe,%function
	.code	16                              @ @MQTTSerialize_unsubscribe
	.thumb_func
MQTTSerialize_unsubscribe:
.Lfunc_begin23:
	.loc	3 191 0 is_stmt 1               @ packages/umqtt-latest/src/pkgs/umqtt_pkgs_encode.c:191:0
	.fnstart
	.cfi_startproc
@ %bb.0:
	.save	{r7, lr}
	push	{r7, lr}
	.cfi_def_cfa_offset 8
	.cfi_offset lr, -4
	.cfi_offset r7, -8
	.pad	#40
	sub	sp, #40
	.cfi_def_cfa_offset 48
	str	r0, [sp, #36]
	str	r1, [sp, #32]
	str	r2, [sp, #28]
.Ltmp151:
	.loc	3 192 23 prologue_end           @ packages/umqtt-latest/src/pkgs/umqtt_pkgs_encode.c:192:23
	ldr	r0, [sp, #36]
	.loc	3 192 17 is_stmt 0              @ packages/umqtt-latest/src/pkgs/umqtt_pkgs_encode.c:192:17
	str	r0, [sp, #24]
	movs	r0, #0
	.loc	3 193 13 is_stmt 1              @ packages/umqtt-latest/src/pkgs/umqtt_pkgs_encode.c:193:13
	strb.w	r0, [sp, #20]
	.loc	3 194 6                         @ packages/umqtt-latest/src/pkgs/umqtt_pkgs_encode.c:194:6
	str	r0, [sp, #16]
	.loc	3 195 6                         @ packages/umqtt-latest/src/pkgs/umqtt_pkgs_encode.c:195:6
	str	r0, [sp, #12]
	.loc	3 196 6                         @ packages/umqtt-latest/src/pkgs/umqtt_pkgs_encode.c:196:6
	str	r0, [sp, #8]
.Ltmp152:
	.loc	3 198 63                        @ packages/umqtt-latest/src/pkgs/umqtt_pkgs_encode.c:198:63
	ldr	r0, [sp, #28]
	.loc	3 198 31 is_stmt 0              @ packages/umqtt-latest/src/pkgs/umqtt_pkgs_encode.c:198:31
	bl	MQTTSerialize_unsubscribeLength
	.loc	3 198 29                        @ packages/umqtt-latest/src/pkgs/umqtt_pkgs_encode.c:198:29
	str	r0, [sp, #16]
	.loc	3 198 6                         @ packages/umqtt-latest/src/pkgs/umqtt_pkgs_encode.c:198:6
	bl	umqtt_pkgs_len
	.loc	3 198 74                        @ packages/umqtt-latest/src/pkgs/umqtt_pkgs_encode.c:198:74
	ldr	r1, [sp, #32]
.Ltmp153:
	.loc	3 198 6                         @ packages/umqtt-latest/src/pkgs/umqtt_pkgs_encode.c:198:6
	cmp	r0, r1
	ble	.LBB23_2
	b	.LBB23_1
.LBB23_1:
	.loc	3 0 6                           @ packages/umqtt-latest/src/pkgs/umqtt_pkgs_encode.c:0:6
	mvn	r0, #8
.Ltmp154:
	.loc	3 200 6 is_stmt 1               @ packages/umqtt-latest/src/pkgs/umqtt_pkgs_encode.c:200:6
	str	r0, [sp, #12]
	.loc	3 201 3                         @ packages/umqtt-latest/src/pkgs/umqtt_pkgs_encode.c:201:3
	b	.LBB23_7
.Ltmp155:
.LBB23_2:
	.loc	3 0 3 is_stmt 0                 @ packages/umqtt-latest/src/pkgs/umqtt_pkgs_encode.c:0:3
	movs	r0, #0
	.loc	3 204 14 is_stmt 1              @ packages/umqtt-latest/src/pkgs/umqtt_pkgs_encode.c:204:14
	str	r0, [sp, #4]                    @ 4-byte Spill
	strb.w	r0, [sp, #20]
	.loc	3 205 19                        @ packages/umqtt-latest/src/pkgs/umqtt_pkgs_encode.c:205:19
	ldrb.w	r0, [sp, #20]
	movs	r1, #10
	bfi	r0, r1, #4, #28
	strb.w	r0, [sp, #20]
	.loc	3 206 18                        @ packages/umqtt-latest/src/pkgs/umqtt_pkgs_encode.c:206:18
	ldrb.w	r0, [sp, #20]
	and	r0, r0, #247
	strb.w	r0, [sp, #20]
	.loc	3 207 18                        @ packages/umqtt-latest/src/pkgs/umqtt_pkgs_encode.c:207:18
	ldrb.w	r0, [sp, #20]
	and	r0, r0, #249
	adds	r0, #2
	strb.w	r0, [sp, #20]
	.loc	3 208 31                        @ packages/umqtt-latest/src/pkgs/umqtt_pkgs_encode.c:208:31
	ldrsb.w	r1, [sp, #20]
	add	r0, sp, #24
	.loc	3 208 2 is_stmt 0               @ packages/umqtt-latest/src/pkgs/umqtt_pkgs_encode.c:208:2
	str	r0, [sp]                        @ 4-byte Spill
	bl	umqtt_writeChar
	.loc	3 210 27 is_stmt 1              @ packages/umqtt-latest/src/pkgs/umqtt_pkgs_encode.c:210:27
	ldr	r0, [sp, #24]
	.loc	3 210 32 is_stmt 0              @ packages/umqtt-latest/src/pkgs/umqtt_pkgs_encode.c:210:32
	ldr	r1, [sp, #16]
	.loc	3 210 9                         @ packages/umqtt-latest/src/pkgs/umqtt_pkgs_encode.c:210:9
	bl	umqtt_pkgs_encode
	mov	r2, r0
	.loc	3 210 6                         @ packages/umqtt-latest/src/pkgs/umqtt_pkgs_encode.c:210:6
	ldr	r0, [sp]                        @ 4-byte Reload
	ldr	r1, [sp, #24]
	add	r1, r2
	str	r1, [sp, #24]
	.loc	3 212 23 is_stmt 1              @ packages/umqtt-latest/src/pkgs/umqtt_pkgs_encode.c:212:23
	ldr	r1, [sp, #28]
	.loc	3 212 31 is_stmt 0              @ packages/umqtt-latest/src/pkgs/umqtt_pkgs_encode.c:212:31
	ldrh	r1, [r1]
	.loc	3 212 2                         @ packages/umqtt-latest/src/pkgs/umqtt_pkgs_encode.c:212:2
	bl	umqtt_writeInt
	ldr	r0, [sp, #4]                    @ 4-byte Reload
.Ltmp156:
	.loc	3 214 9 is_stmt 1               @ packages/umqtt-latest/src/pkgs/umqtt_pkgs_encode.c:214:9
	str	r0, [sp, #8]
	.loc	3 214 7 is_stmt 0               @ packages/umqtt-latest/src/pkgs/umqtt_pkgs_encode.c:214:7
	b	.LBB23_3
.LBB23_3:                               @ =>This Inner Loop Header: Depth=1
.Ltmp157:
	.loc	3 214 14                        @ packages/umqtt-latest/src/pkgs/umqtt_pkgs_encode.c:214:14
	ldr	r0, [sp, #8]
	.loc	3 214 18                        @ packages/umqtt-latest/src/pkgs/umqtt_pkgs_encode.c:214:18
	ldr	r1, [sp, #28]
	.loc	3 214 26                        @ packages/umqtt-latest/src/pkgs/umqtt_pkgs_encode.c:214:26
	ldrb.w	r1, [r1, #36]
.Ltmp158:
	.loc	3 214 2                         @ packages/umqtt-latest/src/pkgs/umqtt_pkgs_encode.c:214:2
	cmp	r0, r1
	bge	.LBB23_6
	b	.LBB23_4
.LBB23_4:                               @   in Loop: Header=BB23_3 Depth=1
.Ltmp159:
	.loc	3 215 28 is_stmt 1              @ packages/umqtt-latest/src/pkgs/umqtt_pkgs_encode.c:215:28
	ldr	r0, [sp, #28]
	.loc	3 215 49 is_stmt 0              @ packages/umqtt-latest/src/pkgs/umqtt_pkgs_encode.c:215:49
	ldr	r1, [sp, #8]
	.loc	3 215 36                        @ packages/umqtt-latest/src/pkgs/umqtt_pkgs_encode.c:215:36
	add.w	r0, r0, r1, lsl #3
	.loc	3 215 52                        @ packages/umqtt-latest/src/pkgs/umqtt_pkgs_encode.c:215:52
	ldr	r1, [r0, #8]
	add	r0, sp, #24
	.loc	3 215 3                         @ packages/umqtt-latest/src/pkgs/umqtt_pkgs_encode.c:215:3
	bl	umqtt_writeCString
	b	.LBB23_5
.LBB23_5:                               @   in Loop: Header=BB23_3 Depth=1
	.loc	3 214 39 is_stmt 1              @ packages/umqtt-latest/src/pkgs/umqtt_pkgs_encode.c:214:39
	ldr	r0, [sp, #8]
	adds	r0, #1
	str	r0, [sp, #8]
	.loc	3 214 2 is_stmt 0               @ packages/umqtt-latest/src/pkgs/umqtt_pkgs_encode.c:214:2
	b	.LBB23_3
.Ltmp160:
.LBB23_6:
	.loc	3 217 7 is_stmt 1               @ packages/umqtt-latest/src/pkgs/umqtt_pkgs_encode.c:217:7
	ldr	r0, [sp, #24]
	.loc	3 217 13 is_stmt 0              @ packages/umqtt-latest/src/pkgs/umqtt_pkgs_encode.c:217:13
	ldr	r1, [sp, #36]
	.loc	3 217 11                        @ packages/umqtt-latest/src/pkgs/umqtt_pkgs_encode.c:217:11
	subs	r0, r0, r1
	.loc	3 217 5                         @ packages/umqtt-latest/src/pkgs/umqtt_pkgs_encode.c:217:5
	str	r0, [sp, #12]
	.loc	3 217 2                         @ packages/umqtt-latest/src/pkgs/umqtt_pkgs_encode.c:217:2
	b	.LBB23_7
.LBB23_7:
.Ltmp161:
	@DEBUG_LABEL: MQTTSerialize_unsubscribe:exit
	.loc	3 219 9 is_stmt 1               @ packages/umqtt-latest/src/pkgs/umqtt_pkgs_encode.c:219:9
	ldr	r0, [sp, #12]
	.loc	3 219 2 is_stmt 0               @ packages/umqtt-latest/src/pkgs/umqtt_pkgs_encode.c:219:2
	add	sp, #40
	pop	{r7, pc}
.Ltmp162:
.Lfunc_end23:
	.size	MQTTSerialize_unsubscribe, .Lfunc_end23-MQTTSerialize_unsubscribe
	.cfi_endproc
	.cantunwind
	.fnend
                                        @ -- End function
	.section	.text.MQTTSerialize_unsubscribeLength,"ax",%progbits
	.p2align	3                               @ -- Begin function MQTTSerialize_unsubscribeLength
	.type	MQTTSerialize_unsubscribeLength,%function
	.code	16                              @ @MQTTSerialize_unsubscribeLength
	.thumb_func
MQTTSerialize_unsubscribeLength:
.Lfunc_begin24:
	.loc	3 59 0 is_stmt 1                @ packages/umqtt-latest/src/pkgs/umqtt_pkgs_encode.c:59:0
	.fnstart
	.cfi_startproc
@ %bb.0:
	.save	{r7, lr}
	push	{r7, lr}
	.cfi_def_cfa_offset 8
	.cfi_offset lr, -4
	.cfi_offset r7, -8
	.pad	#16
	sub	sp, #16
	.cfi_def_cfa_offset 24
	str	r0, [sp, #12]
	movs	r0, #2
.Ltmp163:
	.loc	3 61 6 prologue_end             @ packages/umqtt-latest/src/pkgs/umqtt_pkgs_encode.c:61:6
	str	r0, [sp, #4]
.Ltmp164:
	.loc	3 62 9                          @ packages/umqtt-latest/src/pkgs/umqtt_pkgs_encode.c:62:9
	ldr	r0, [sp, #12]
	.loc	3 62 16 is_stmt 0               @ packages/umqtt-latest/src/pkgs/umqtt_pkgs_encode.c:62:16
	cbz	r0, .LBB24_10
	b	.LBB24_1
.LBB24_1:
	.loc	3 62 20                         @ packages/umqtt-latest/src/pkgs/umqtt_pkgs_encode.c:62:20
	ldr	r0, [sp, #12]
	.loc	3 62 28                         @ packages/umqtt-latest/src/pkgs/umqtt_pkgs_encode.c:62:28
	ldrb.w	r0, [r0, #36]
.Ltmp165:
	.loc	3 62 9                          @ packages/umqtt-latest/src/pkgs/umqtt_pkgs_encode.c:62:9
	cmp	r0, #1
	blt	.LBB24_10
	b	.LBB24_2
.LBB24_2:
	.loc	3 0 9                           @ packages/umqtt-latest/src/pkgs/umqtt_pkgs_encode.c:0:9
	movs	r0, #0
.Ltmp166:
	.loc	3 64 16 is_stmt 1               @ packages/umqtt-latest/src/pkgs/umqtt_pkgs_encode.c:64:16
	str	r0, [sp, #8]
	.loc	3 64 14 is_stmt 0               @ packages/umqtt-latest/src/pkgs/umqtt_pkgs_encode.c:64:14
	b	.LBB24_3
.LBB24_3:                               @ =>This Inner Loop Header: Depth=1
.Ltmp167:
	.loc	3 64 21                         @ packages/umqtt-latest/src/pkgs/umqtt_pkgs_encode.c:64:21
	ldr	r0, [sp, #8]
	.loc	3 64 25                         @ packages/umqtt-latest/src/pkgs/umqtt_pkgs_encode.c:64:25
	ldr	r1, [sp, #12]
	.loc	3 64 33                         @ packages/umqtt-latest/src/pkgs/umqtt_pkgs_encode.c:64:33
	ldrb.w	r1, [r1, #36]
.Ltmp168:
	.loc	3 64 9                          @ packages/umqtt-latest/src/pkgs/umqtt_pkgs_encode.c:64:9
	cmp	r0, r1
	bge	.LBB24_9
	b	.LBB24_4
.LBB24_4:                               @   in Loop: Header=BB24_3 Depth=1
.Ltmp169:
	.loc	3 65 24 is_stmt 1               @ packages/umqtt-latest/src/pkgs/umqtt_pkgs_encode.c:65:24
	ldr	r0, [sp, #12]
	ldr	r1, [sp, #8]
	add.w	r0, r0, r1, lsl #3
	ldr	r0, [r0, #8]
	cbnz	r0, .LBB24_6
	b	.LBB24_5
.LBB24_5:                               @   in Loop: Header=BB24_3 Depth=1
	.loc	3 0 24 is_stmt 0                @ packages/umqtt-latest/src/pkgs/umqtt_pkgs_encode.c:0:24
	movs	r0, #0
	.loc	3 65 24                         @ packages/umqtt-latest/src/pkgs/umqtt_pkgs_encode.c:65:24
	str	r0, [sp]                        @ 4-byte Spill
	b	.LBB24_7
.LBB24_6:                               @   in Loop: Header=BB24_3 Depth=1
	ldr	r0, [sp, #12]
	ldr	r1, [sp, #8]
	add.w	r0, r0, r1, lsl #3
	ldr	r0, [r0, #8]
	bl	strlen
	str	r0, [sp]                        @ 4-byte Spill
	b	.LBB24_7
.LBB24_7:                               @   in Loop: Header=BB24_3 Depth=1
	ldr	r0, [sp]                        @ 4-byte Reload
	.loc	3 65 17                         @ packages/umqtt-latest/src/pkgs/umqtt_pkgs_encode.c:65:17
	ldr	r1, [sp, #4]
	.loc	3 65 22                         @ packages/umqtt-latest/src/pkgs/umqtt_pkgs_encode.c:65:22
	add	r0, r1
	.loc	3 65 17                         @ packages/umqtt-latest/src/pkgs/umqtt_pkgs_encode.c:65:17
	adds	r0, #2
	str	r0, [sp, #4]
	.loc	3 65 13                         @ packages/umqtt-latest/src/pkgs/umqtt_pkgs_encode.c:65:13
	b	.LBB24_8
.LBB24_8:                               @   in Loop: Header=BB24_3 Depth=1
	.loc	3 64 46 is_stmt 1               @ packages/umqtt-latest/src/pkgs/umqtt_pkgs_encode.c:64:46
	ldr	r0, [sp, #8]
	adds	r0, #1
	str	r0, [sp, #8]
	.loc	3 64 9 is_stmt 0                @ packages/umqtt-latest/src/pkgs/umqtt_pkgs_encode.c:64:9
	b	.LBB24_3
.Ltmp170:
.LBB24_9:
	.loc	3 66 5 is_stmt 1                @ packages/umqtt-latest/src/pkgs/umqtt_pkgs_encode.c:66:5
	b	.LBB24_11
.Ltmp171:
.LBB24_10:
	.loc	3 0 5 is_stmt 0                 @ packages/umqtt-latest/src/pkgs/umqtt_pkgs_encode.c:0:5
	movs	r0, #0
	.loc	3 68 13 is_stmt 1               @ packages/umqtt-latest/src/pkgs/umqtt_pkgs_encode.c:68:13
	str	r0, [sp, #4]
	b	.LBB24_11
.Ltmp172:
.LBB24_11:
	.loc	3 69 12                         @ packages/umqtt-latest/src/pkgs/umqtt_pkgs_encode.c:69:12
	ldr	r0, [sp, #4]
	.loc	3 69 5 is_stmt 0                @ packages/umqtt-latest/src/pkgs/umqtt_pkgs_encode.c:69:5
	add	sp, #16
	pop	{r7, pc}
.Ltmp173:
.Lfunc_end24:
	.size	MQTTSerialize_unsubscribeLength, .Lfunc_end24-MQTTSerialize_unsubscribeLength
	.cfi_endproc
	.cantunwind
	.fnend
                                        @ -- End function
	.section	.text.MQTTSerialize_zero,"ax",%progbits
	.p2align	3                               @ -- Begin function MQTTSerialize_zero
	.type	MQTTSerialize_zero,%function
	.code	16                              @ @MQTTSerialize_zero
	.thumb_func
MQTTSerialize_zero:
.Lfunc_begin25:
	.loc	3 134 0 is_stmt 1               @ packages/umqtt-latest/src/pkgs/umqtt_pkgs_encode.c:134:0
	.fnstart
	.cfi_startproc
@ %bb.0:
	.save	{r7, lr}
	push	{r7, lr}
	.cfi_def_cfa_offset 8
	.cfi_offset lr, -4
	.cfi_offset r7, -8
	.pad	#24
	sub	sp, #24
	.cfi_def_cfa_offset 32
                                        @ kill: def $r3 killed $r2
	str	r0, [sp, #20]
	str	r1, [sp, #16]
	strb.w	r2, [sp, #15]
	movs	r0, #0
.Ltmp174:
	.loc	3 135 13 prologue_end           @ packages/umqtt-latest/src/pkgs/umqtt_pkgs_encode.c:135:13
	strb.w	r0, [sp, #12]
	mov.w	r0, #-1
	.loc	3 136 6                         @ packages/umqtt-latest/src/pkgs/umqtt_pkgs_encode.c:136:6
	str	r0, [sp, #8]
	.loc	3 137 23                        @ packages/umqtt-latest/src/pkgs/umqtt_pkgs_encode.c:137:23
	ldr	r0, [sp, #20]
	.loc	3 137 17 is_stmt 0              @ packages/umqtt-latest/src/pkgs/umqtt_pkgs_encode.c:137:17
	str	r0, [sp, #4]
.Ltmp175:
	.loc	3 139 6 is_stmt 1               @ packages/umqtt-latest/src/pkgs/umqtt_pkgs_encode.c:139:6
	ldr	r0, [sp, #16]
.Ltmp176:
	.loc	3 139 6 is_stmt 0               @ packages/umqtt-latest/src/pkgs/umqtt_pkgs_encode.c:139:6
	cmp	r0, #1
	bgt	.LBB25_2
	b	.LBB25_1
.LBB25_1:
	.loc	3 0 6                           @ packages/umqtt-latest/src/pkgs/umqtt_pkgs_encode.c:0:6
	mvn	r0, #8
.Ltmp177:
	.loc	3 141 6 is_stmt 1               @ packages/umqtt-latest/src/pkgs/umqtt_pkgs_encode.c:141:6
	str	r0, [sp, #8]
	.loc	3 142 3                         @ packages/umqtt-latest/src/pkgs/umqtt_pkgs_encode.c:142:3
	b	.LBB25_3
.Ltmp178:
.LBB25_2:
	.loc	3 0 3 is_stmt 0                 @ packages/umqtt-latest/src/pkgs/umqtt_pkgs_encode.c:0:3
	movs	r0, #0
	.loc	3 144 14 is_stmt 1              @ packages/umqtt-latest/src/pkgs/umqtt_pkgs_encode.c:144:14
	str	r0, [sp]                        @ 4-byte Spill
	strb.w	r0, [sp, #12]
	.loc	3 145 21                        @ packages/umqtt-latest/src/pkgs/umqtt_pkgs_encode.c:145:21
	ldrb.w	r1, [sp, #15]
	.loc	3 145 19 is_stmt 0              @ packages/umqtt-latest/src/pkgs/umqtt_pkgs_encode.c:145:19
	ldrb.w	r0, [sp, #12]
	and	r0, r0, #15
	orr.w	r0, r0, r1, lsl #4
	strb.w	r0, [sp, #12]
	.loc	3 146 31 is_stmt 1              @ packages/umqtt-latest/src/pkgs/umqtt_pkgs_encode.c:146:31
	ldrsb.w	r1, [sp, #12]
	add	r0, sp, #4
	.loc	3 146 2 is_stmt 0               @ packages/umqtt-latest/src/pkgs/umqtt_pkgs_encode.c:146:2
	bl	umqtt_writeChar
	ldr	r1, [sp]                        @ 4-byte Reload
	.loc	3 148 27 is_stmt 1              @ packages/umqtt-latest/src/pkgs/umqtt_pkgs_encode.c:148:27
	ldr	r0, [sp, #4]
	.loc	3 148 9 is_stmt 0               @ packages/umqtt-latest/src/pkgs/umqtt_pkgs_encode.c:148:9
	bl	umqtt_pkgs_encode
	mov	r1, r0
	.loc	3 148 6                         @ packages/umqtt-latest/src/pkgs/umqtt_pkgs_encode.c:148:6
	ldr	r0, [sp, #4]
	add	r0, r1
	str	r0, [sp, #4]
	.loc	3 149 7 is_stmt 1               @ packages/umqtt-latest/src/pkgs/umqtt_pkgs_encode.c:149:7
	ldr	r0, [sp, #4]
	.loc	3 149 13 is_stmt 0              @ packages/umqtt-latest/src/pkgs/umqtt_pkgs_encode.c:149:13
	ldr	r1, [sp, #20]
	.loc	3 149 11                        @ packages/umqtt-latest/src/pkgs/umqtt_pkgs_encode.c:149:11
	subs	r0, r0, r1
	.loc	3 149 5                         @ packages/umqtt-latest/src/pkgs/umqtt_pkgs_encode.c:149:5
	str	r0, [sp, #8]
	.loc	3 149 2                         @ packages/umqtt-latest/src/pkgs/umqtt_pkgs_encode.c:149:2
	b	.LBB25_3
.LBB25_3:
.Ltmp179:
	@DEBUG_LABEL: MQTTSerialize_zero:exit
	.loc	3 151 12 is_stmt 1              @ packages/umqtt-latest/src/pkgs/umqtt_pkgs_encode.c:151:12
	ldr	r0, [sp, #8]
	.loc	3 151 5 is_stmt 0               @ packages/umqtt-latest/src/pkgs/umqtt_pkgs_encode.c:151:5
	add	sp, #24
	pop	{r7, pc}
.Ltmp180:
.Lfunc_end25:
	.size	MQTTSerialize_zero, .Lfunc_end25-MQTTSerialize_zero
	.cfi_endproc
	.cantunwind
	.fnend
                                        @ -- End function
	.type	.L.str,%object                  @ @.str
	.section	.rodata.str1.1,"aMS",%progbits,1
.L.str:
	.asciz	"MQTT"
	.size	.L.str, 5

	.type	.L.str.1,%object                @ @.str.1
.L.str.1:
	.asciz	"MQIsdp"
	.size	.L.str.1, 7

	.file	4 "E:\\Smart-access-control\\Hardware\\CODE" "rt-thread/include\\rtdef.h"
	.file	5 "D:\\Keil_v5\\ARM\\ARMCLANG\\Bin\\..\\include" "string.h"
	.section	".note.GNU-stack","",%progbits
	.eabi_attribute	30, 6	@ Tag_ABI_optimization_goals
	.ARM_attribute	16, 1	@ Tag_AV_eba