	.text
	.syntax unified
	.eabi_attribute	67, "2.09"	@ Tag_conformance
	.cpu	cortex-m7
	.eabi_attribute	6, 13	@ Tag_CPU_arch
	.eabi_attribute	7, 77	@ Tag_CPU_arch_profile
	.eabi_attribute	8, 0	@ Tag_ARM_ISA_use
	.eabi_attribute	9, 2	@ Tag_THUMB_ISA_use
	.fpu	fpv5-d16
	.eabi_attribute	36, 1	@ Tag_FP_HP_extension
	.eabi_attribute	34, 1	@ Tag_CPU_unaligned_access
	.eabi_attribute	17, 1	@ Tag_ABI_PCS_GOT_use
	.eabi_attribute	20, 2	@ Tag_ABI_FP_denormal
	.eabi_attribute	21, 0	@ Tag_ABI_FP_exceptions
	.eabi_attribute	23, 1	@ Tag_ABI_FP_number_model
	.eabi_attribute	24, 1	@ Tag_ABI_align_needed
	.eabi_attribute	25, 1	@ Tag_ABI_align_preserved
	.eabi_attribute	28, 1	@ Tag_ABI_VFP_args
	.eabi_attribute	38, 1	@ Tag_ABI_FP_16bit_format
	.eabi_attribute	18, 2	@ Tag_ABI_PCS_wchar_t
	.eabi_attribute	26, 1	@ Tag_ABI_enum_size
	.eabi_attribute	14, 0	@ Tag_ABI_PCS_R9_use
	.file	"umqtt_app.c"
	.file	1 "E:\\Smart-access-control\\Hardware\\CODE" "./packages/umqtt-latest/inc\\umqtt.h"
	.file	2 "E:\\Smart-access-control\\Hardware\\CODE" "rt-thread/include\\rtdef.h"
	.file	3 "E:\\Smart-access-control\\Hardware\\CODE" "./packages/umqtt-latest/inc\\umqtt_internal.h"
	.section	.text.mqtt_client,"ax",%progbits
	.hidden	mqtt_client                     @ -- Begin function mqtt_client
	.globl	mqtt_client
	.p2align	3
	.type	mqtt_client,%function
	.code	16                              @ @mqtt_client
	.thumb_func
mqtt_client:
.Lfunc_begin0:
	.file	4 "E:\\Smart-access-control\\Hardware\\CODE" "applications/umqtt_app.c"
	.loc	4 76 0                          @ applications/umqtt_app.c:76:0
	.fnstart
	.cfi_sections .debug_frame
	.cfi_startproc
@ %bb.0:
	.save	{r7, lr}
	push	{r7, lr}
	.cfi_def_cfa_offset 8
	.cfi_offset lr, -4
	.cfi_offset r7, -8
	.pad	#168
	sub	sp, #168
	.cfi_def_cfa_offset 176
	str	r0, [sp, #164]
	add	r0, sp, #124
	movs	r1, #40
.Ltmp0:
	.loc	4 77 7 prologue_end             @ applications/umqtt_app.c:77:7
	bl	__aeabi_memclr
	movs	r0, #0
	.loc	4 78 6                          @ applications/umqtt_app.c:78:6
	str	r0, [sp, #120]
	.loc	4 79 17                         @ applications/umqtt_app.c:79:17
	str	r0, [sp, #116]
	.loc	4 80 16                         @ applications/umqtt_app.c:80:16
	bl	cJSON_CreateObject
	.loc	4 80 9 is_stmt 0                @ applications/umqtt_app.c:80:9
	str	r0, [sp, #112]
	.loc	4 81 2 is_stmt 1                @ applications/umqtt_app.c:81:2
	b	.LBB0_1
.LBB0_1:                                @ =>This Inner Loop Header: Depth=1
.Ltmp1:
	@DEBUG_LABEL: mqtt_client:mqtt_start
	.loc	4 83 2                          @ applications/umqtt_app.c:83:2
	movw	r1, :lower16:.L.str
	movt	r1, :upper16:.L.str
	movw	r2, :lower16:.L.str.1
	movt	r2, :upper16:.L.str.1
	add	r0, sp, #124
	str	r0, [sp, #24]                   @ 4-byte Spill
	bl	rt_sprintf
	add	r0, sp, #32
	str	r0, [sp, #28]                   @ 4-byte Spill
	movs	r1, #76
	.loc	4 84 20                         @ applications/umqtt_app.c:84:20
	bl	__aeabi_memclr4
	ldr	r1, [sp, #24]                   @ 4-byte Reload
	ldr	r0, [sp, #28]                   @ 4-byte Reload
	.loc	4 84 32 is_stmt 0               @ applications/umqtt_app.c:84:32
	str	r1, [sp, #40]
	movw	r1, :lower16:.L.str.2
	movt	r1, :upper16:.L.str.2
	str	r1, [sp, #44]
	movw	r1, :lower16:.L.str.3
	movt	r1, :upper16:.L.str.3
	str	r1, [sp, #56]
	movw	r1, :lower16:.L.str.4
	movt	r1, :upper16:.L.str.4
	str	r1, [sp, #60]
	.loc	4 90 14 is_stmt 1               @ applications/umqtt_app.c:90:14
	bl	umqtt_create
	.loc	4 90 12 is_stmt 0               @ applications/umqtt_app.c:90:12
	str	r0, [sp, #116]
.Ltmp2:
	.loc	4 91 9 is_stmt 1                @ applications/umqtt_app.c:91:9
	ldr	r0, [sp, #116]
.Ltmp3:
	.loc	4 91 9 is_stmt 0                @ applications/umqtt_app.c:91:9
	cbnz	r0, .LBB0_3
	b	.LBB0_2
.LBB0_2:                                @   in Loop: Header=BB0_1 Depth=1
	.loc	4 0 9                           @ applications/umqtt_app.c:0:9
	movs	r0, #1
.Ltmp4:
	.loc	4 93 14 is_stmt 1               @ applications/umqtt_app.c:93:14
	str	r0, [sp, #120]
	.loc	4 94 8                          @ applications/umqtt_app.c:94:8
	b	.LBB0_1
.Ltmp5:
.LBB0_3:                                @   in Loop: Header=BB0_1 Depth=1
	.loc	4 97 19                         @ applications/umqtt_app.c:97:19
	ldr	r0, [sp, #116]
	.loc	4 97 5 is_stmt 0                @ applications/umqtt_app.c:97:5
	movw	r2, :lower16:user_callback
	movt	r2, :upper16:user_callback
	movs	r1, #1
	bl	umqtt_control
	.loc	4 98 16 is_stmt 1               @ applications/umqtt_app.c:98:16
	ldr	r0, [sp, #116]
	movs	r1, #128
	movs	r2, #60
	.loc	4 98 2 is_stmt 0                @ applications/umqtt_app.c:98:2
	bl	umqtt_control
	.loc	4 99 16 is_stmt 1               @ applications/umqtt_app.c:99:16
	ldr	r0, [sp, #116]
	movs	r1, #2
	movs	r2, #30
	.loc	4 99 2 is_stmt 0                @ applications/umqtt_app.c:99:2
	bl	umqtt_control
	.loc	4 100 24 is_stmt 1              @ applications/umqtt_app.c:100:24
	ldr	r0, [sp, #116]
	.loc	4 100 12 is_stmt 0              @ applications/umqtt_app.c:100:12
	bl	umqtt_start
	.loc	4 100 10                        @ applications/umqtt_app.c:100:10
	str	r0, [sp, #120]
.Ltmp6:
	.loc	4 101 9 is_stmt 1               @ applications/umqtt_app.c:101:9
	ldr	r0, [sp, #120]
.Ltmp7:
	.loc	4 101 9 is_stmt 0               @ applications/umqtt_app.c:101:9
	cbz	r0, .LBB0_7
	b	.LBB0_4
.LBB0_4:                                @   in Loop: Header=BB0_1 Depth=1
	.loc	4 0 9                           @ applications/umqtt_app.c:0:9
	movs	r0, #1
.Ltmp8:
	.loc	4 103 14 is_stmt 1              @ applications/umqtt_app.c:103:14
	str	r0, [sp, #120]
	.loc	4 104 9                         @ applications/umqtt_app.c:104:9
	b	.LBB0_5
.LBB0_5:                                @   in Loop: Header=BB0_1 Depth=1
.Ltmp9:
	.loc	4 104 9 is_stmt 0               @ applications/umqtt_app.c:104:9
	movw	r0, :lower16:.L.str.5
	movt	r0, :upper16:.L.str.5
	bl	rt_kprintf
	movw	r0, :lower16:.L.str.6
	movt	r0, :upper16:.L.str.6
	bl	rt_kprintf
	movw	r0, :lower16:.L.str.7
	movt	r0, :upper16:.L.str.7
	bl	rt_kprintf
	b	.LBB0_6
.Ltmp10:
.LBB0_6:                                @   in Loop: Header=BB0_1 Depth=1
	.loc	4 105 3 is_stmt 1               @ applications/umqtt_app.c:105:3
	b	.LBB0_1
.Ltmp11:
.LBB0_7:
	.loc	4 108 5                         @ applications/umqtt_app.c:108:5
	b	.LBB0_8
.LBB0_8:                                @ =>This Inner Loop Header: Depth=1
.Ltmp12:
	.loc	4 110 15                        @ applications/umqtt_app.c:110:15
	movw	r0, :lower16:ov_sync_sem
	movt	r0, :upper16:ov_sync_sem
	ldr	r0, [r0]
	mov.w	r1, #-1
	.loc	4 110 3 is_stmt 0               @ applications/umqtt_app.c:110:3
	str	r1, [sp, #20]                   @ 4-byte Spill
	bl	rt_sem_take
	ldr	r1, [sp, #20]                   @ 4-byte Reload
	.loc	4 111 17 is_stmt 1              @ applications/umqtt_app.c:111:17
	movw	r0, :lower16:send_photo_mux
	movt	r0, :upper16:send_photo_mux
	ldr	r0, [r0]
	.loc	4 111 3 is_stmt 0               @ applications/umqtt_app.c:111:3
	bl	rt_mutex_take
.Ltmp13:
	.loc	4 112 6 is_stmt 1               @ applications/umqtt_app.c:112:6
	movw	r0, :lower16:image_p
	movt	r0, :upper16:image_p
	ldr	r0, [r0]
.Ltmp14:
	.loc	4 112 6 is_stmt 0               @ applications/umqtt_app.c:112:6
	cmp	r0, #0
	beq	.LBB0_15
	b	.LBB0_9
.LBB0_9:                                @   in Loop: Header=BB0_8 Depth=1
.Ltmp15:
	.loc	4 114 10 is_stmt 1              @ applications/umqtt_app.c:114:10
	movw	r0, :lower16:image_p
	movt	r0, :upper16:image_p
	ldr	r0, [r0]
	ldrb	r0, [r0]
	.loc	4 114 30 is_stmt 0              @ applications/umqtt_app.c:114:30
	cmp	r0, #255
	bne	.LBB0_14
	b	.LBB0_10
.LBB0_10:                               @   in Loop: Header=BB0_8 Depth=1
	.loc	4 114 34                        @ applications/umqtt_app.c:114:34
	movw	r0, :lower16:image_p
	movt	r0, :upper16:image_p
	ldr	r0, [r0]
	ldrb	r0, [r0, #1]
.Ltmp16:
	.loc	4 114 9                         @ applications/umqtt_app.c:114:9
	cmp	r0, #216
	bne	.LBB0_14
	b	.LBB0_11
.LBB0_11:                               @   in Loop: Header=BB0_8 Depth=1
.Ltmp17:
	.loc	4 116 27 is_stmt 1              @ applications/umqtt_app.c:116:27
	ldr	r0, [sp, #112]
	.loc	4 116 60 is_stmt 0              @ applications/umqtt_app.c:116:60
	str	r0, [sp, #8]                    @ 4-byte Spill
	movw	r0, :lower16:image_p
	movt	r0, :upper16:image_p
	ldr	r0, [r0]
	.loc	4 116 68                        @ applications/umqtt_app.c:116:68
	movw	r1, :lower16:image_len
	movt	r1, :upper16:image_len
	ldr	r1, [r1]
	.loc	4 116 38                        @ applications/umqtt_app.c:116:38
	bl	cJSON_CreateCharArray
	mov	r2, r0
	.loc	4 116 5                         @ applications/umqtt_app.c:116:5
	ldr	r0, [sp, #8]                    @ 4-byte Reload
	movw	r1, :lower16:.L.str.8
	movt	r1, :upper16:.L.str.8
	bl	cJSON_AddItemToObject
	.loc	4 117 35 is_stmt 1              @ applications/umqtt_app.c:117:35
	ldr	r0, [sp, #112]
	.loc	4 117 12 is_stmt 0              @ applications/umqtt_app.c:117:12
	bl	cJSON_PrintUnformatted
	.loc	4 117 10                        @ applications/umqtt_app.c:117:10
	str	r0, [sp, #108]
	.loc	4 118 24 is_stmt 1              @ applications/umqtt_app.c:118:24
	ldr	r0, [sp, #116]
	.loc	4 118 70 is_stmt 0              @ applications/umqtt_app.c:118:70
	str	r0, [sp, #16]                   @ 4-byte Spill
	ldr	r0, [sp, #108]
	.loc	4 118 76                        @ applications/umqtt_app.c:118:76
	str	r0, [sp, #12]                   @ 4-byte Spill
	bl	rt_strlen
	ldr	r3, [sp, #12]                   @ 4-byte Reload
	mov	r1, r0
	.loc	4 118 10                        @ applications/umqtt_app.c:118:10
	ldr	r0, [sp, #16]                   @ 4-byte Reload
	mov	r2, sp
	mov.w	r12, #100
	str.w	r12, [r2, #4]
	str	r1, [r2]
	movw	r2, :lower16:.L.str.9
	movt	r2, :upper16:.L.str.9
	movs	r1, #0
	bl	umqtt_publish
	.loc	4 118 9                         @ applications/umqtt_app.c:118:9
	str	r0, [sp, #120]
.Ltmp18:
	.loc	4 119 9 is_stmt 1               @ applications/umqtt_app.c:119:9
	ldr	r0, [sp, #120]
.Ltmp19:
	.loc	4 119 9 is_stmt 0               @ applications/umqtt_app.c:119:9
	cbz	r0, .LBB0_13
	b	.LBB0_12
.LBB0_12:                               @   in Loop: Header=BB0_8 Depth=1
.Ltmp20:
	.loc	4 121 44 is_stmt 1              @ applications/umqtt_app.c:121:44
	ldr	r1, [sp, #120]
	.loc	4 121 7 is_stmt 0               @ applications/umqtt_app.c:121:7
	movw	r0, :lower16:.L.str.10
	movt	r0, :upper16:.L.str.10
	bl	rt_kprintf
	.loc	4 122 5 is_stmt 1               @ applications/umqtt_app.c:122:5
	b	.LBB0_13
.Ltmp21:
.LBB0_13:                               @   in Loop: Header=BB0_8 Depth=1
	.loc	4 123 32                        @ applications/umqtt_app.c:123:32
	ldr	r0, [sp, #112]
	.loc	4 123 5 is_stmt 0               @ applications/umqtt_app.c:123:5
	movw	r1, :lower16:.L.str.8
	movt	r1, :upper16:.L.str.8
	bl	cJSON_DeleteItemFromObject
	.loc	4 124 4 is_stmt 1               @ applications/umqtt_app.c:124:4
	b	.LBB0_14
.Ltmp22:
.LBB0_14:                               @   in Loop: Header=BB0_8 Depth=1
	.loc	4 125 12                        @ applications/umqtt_app.c:125:12
	movw	r1, :lower16:image_p
	movt	r1, :upper16:image_p
	movs	r0, #0
	str	r0, [r1]
	.loc	4 126 3                         @ applications/umqtt_app.c:126:3
	b	.LBB0_15
.Ltmp23:
.LBB0_15:                               @   in Loop: Header=BB0_8 Depth=1
	.loc	4 127 20                        @ applications/umqtt_app.c:127:20
	movw	r0, :lower16:send_photo_mux
	movt	r0, :upper16:send_photo_mux
	ldr	r0, [r0]
	.loc	4 127 3 is_stmt 0               @ applications/umqtt_app.c:127:3
	bl	rt_mutex_release
	.loc	4 136 18 is_stmt 1              @ applications/umqtt_app.c:136:18
	movw	r0, :lower16:ov_sync_sem
	movt	r0, :upper16:ov_sync_sem
	ldr	r0, [r0]
	.loc	4 136 3 is_stmt 0               @ applications/umqtt_app.c:136:3
	bl	rt_sem_release
	mov.w	r0, #1000
	.loc	4 137 9 is_stmt 1               @ applications/umqtt_app.c:137:9
	bl	rt_thread_mdelay
.Ltmp24:
	.loc	4 108 5                         @ applications/umqtt_app.c:108:5
	b	.LBB0_8
.Ltmp25:
.Lfunc_end0:
	.size	mqtt_client, .Lfunc_end0-mqtt_client
	.cfi_endproc
	.cantunwind
	.fnend
                                        @ -- End function
	.section	.text.user_callback,"ax",%progbits
	.p2align	3                               @ -- Begin function user_callback
	.type	user_callback,%function
	.code	16                              @ @user_callback
	.thumb_func
user_callback:
.Lfunc_begin1:
	.loc	4 46 0                          @ applications/umqtt_app.c:46:0
	.fnstart
	.cfi_startproc
@ %bb.0:
	.save	{r7, lr}
	push	{r7, lr}
	.cfi_def_cfa_offset 8
	.cfi_offset lr, -4
	.cfi_offset r7, -8
	.pad	#16
	sub	sp, #16
	.cfi_def_cfa_offset 24
                                        @ kill: def $r2 killed $r1
	str	r0, [sp, #12]
	strb.w	r1, [sp, #11]
.Ltmp26:
	.loc	4 47 5 prologue_end             @ applications/umqtt_app.c:47:5
	ldr	r0, [sp, #12]
.Ltmp27:
	.loc	4 47 5 is_stmt 0                @ applications/umqtt_app.c:47:5
	cbnz	r0, .LBB1_2
	b	.LBB1_1
.LBB1_1:
.Ltmp28:
	.loc	4 47 5                          @ applications/umqtt_app.c:47:5
	movw	r0, :lower16:.L.str.11
	movt	r0, :upper16:.L.str.11
	movw	r1, :lower16:.L__FUNCTION__.user_callback
	movt	r1, :upper16:.L__FUNCTION__.user_callback
	movs	r2, #47
	bl	rt_assert_handler
	b	.LBB1_2
.Ltmp29:
.LBB1_2:
	.loc	4 48 6 is_stmt 1                @ applications/umqtt_app.c:48:6
	ldr	r0, [sp, #12]
	.loc	4 48 14 is_stmt 0               @ applications/umqtt_app.c:48:14
	ldrb	r0, [r0, #4]
.Ltmp30:
	.loc	4 48 6                          @ applications/umqtt_app.c:48:6
	cmp	r0, #2
	bne	.LBB1_4
	b	.LBB1_3
.LBB1_3:
.Ltmp31:
	.loc	4 50 19 is_stmt 1               @ applications/umqtt_app.c:50:19
	ldr	r0, [sp, #12]
	.loc	4 50 3 is_stmt 0                @ applications/umqtt_app.c:50:3
	movw	r1, :lower16:.L.str.12
	movt	r1, :upper16:.L.str.12
	movw	r3, :lower16:umqtt_face_search_callback
	movt	r3, :upper16:umqtt_face_search_callback
	movs	r2, #0
	str	r2, [sp, #4]                    @ 4-byte Spill
	bl	umqtt_subscribe
	ldr	r2, [sp, #4]                    @ 4-byte Reload
	.loc	4 51 19 is_stmt 1               @ applications/umqtt_app.c:51:19
	ldr	r0, [sp, #12]
	.loc	4 51 3 is_stmt 0                @ applications/umqtt_app.c:51:3
	movw	r1, :lower16:.L.str.13
	movt	r1, :upper16:.L.str.13
	movw	r3, :lower16:umqtt_rfid_update_callback
	movt	r3, :upper16:umqtt_rfid_update_callback
	bl	umqtt_subscribe
	.loc	4 52 2 is_stmt 1                @ applications/umqtt_app.c:52:2
	b	.LBB1_4
.Ltmp32:
.LBB1_4:
	.loc	4 53 12                         @ applications/umqtt_app.c:53:12
	ldrb.w	r0, [sp, #11]
	.loc	4 53 5 is_stmt 0                @ applications/umqtt_app.c:53:5
	mov	r1, r0
	str	r1, [sp]                        @ 4-byte Spill
	cmp	r0, #3
	bhi	.LBB1_11
@ %bb.5:
	.loc	4 0 5                           @ applications/umqtt_app.c:0:5
	ldr	r1, [sp]                        @ 4-byte Reload
.LCPI1_0:
	tbb	[pc, r1]
@ %bb.6:
.LJTI1_0:
	.byte	(.LBB1_7-(.LCPI1_0+4))/2
	.byte	(.LBB1_8-(.LCPI1_0+4))/2
	.byte	(.LBB1_9-(.LCPI1_0+4))/2
	.byte	(.LBB1_10-(.LCPI1_0+4))/2
	.p2align	1
.LBB1_7:
.Ltmp33:
	.loc	4 57 9 is_stmt 1                @ applications/umqtt_app.c:57:9
	b	.LBB1_12
.LBB1_8:
	.loc	4 60 9                          @ applications/umqtt_app.c:60:9
	b	.LBB1_12
.LBB1_9:
	.loc	4 63 9                          @ applications/umqtt_app.c:63:9
	b	.LBB1_12
.LBB1_10:
	.loc	4 66 9                          @ applications/umqtt_app.c:66:9
	b	.LBB1_12
.LBB1_11:
	.loc	4 69 9                          @ applications/umqtt_app.c:69:9
	b	.LBB1_12
.Ltmp34:
.LBB1_12:
	.loc	4 0 9 is_stmt 0                 @ applications/umqtt_app.c:0:9
	movs	r0, #0
	.loc	4 72 5 is_stmt 1                @ applications/umqtt_app.c:72:5
	add	sp, #16
	pop	{r7, pc}
.Ltmp35:
.Lfunc_end1:
	.size	user_callback, .Lfunc_end1-user_callback
	.cfi_endproc
	.cantunwind
	.fnend
                                        @ -- End function
	.section	.text.umqtt_face_search_callback,"ax",%progbits
	.p2align	3                               @ -- Begin function umqtt_face_search_callback
	.type	umqtt_face_search_callback,%function
	.code	16                              @ @umqtt_face_search_callback
	.thumb_func
umqtt_face_search_callback:
.Lfunc_begin2:
	.loc	4 18 0                          @ applications/umqtt_app.c:18:0
	.fnstart
	.cfi_startproc
@ %bb.0:
	.save	{r7, lr}
	push	{r7, lr}
	.cfi_def_cfa_offset 8
	.cfi_offset lr, -4
	.cfi_offset r7, -8
	.pad	#24
	sub	sp, #24
	.cfi_def_cfa_offset 32
	str	r0, [sp, #20]
	str	r1, [sp, #16]
.Ltmp36:
	.loc	4 19 5 prologue_end             @ applications/umqtt_app.c:19:5
	ldr	r0, [sp, #20]
.Ltmp37:
	.loc	4 19 5 is_stmt 0                @ applications/umqtt_app.c:19:5
	cbnz	r0, .LBB2_2
	b	.LBB2_1
.LBB2_1:
.Ltmp38:
	.loc	4 19 5                          @ applications/umqtt_app.c:19:5
	movw	r0, :lower16:.L.str.11
	movt	r0, :upper16:.L.str.11
	movw	r1, :lower16:.L__FUNCTION__.umqtt_face_search_callback
	movt	r1, :upper16:.L__FUNCTION__.umqtt_face_search_callback
	movs	r2, #19
	bl	rt_assert_handler
	b	.LBB2_2
.Ltmp39:
.LBB2_2:
	.loc	4 20 5 is_stmt 1                @ applications/umqtt_app.c:20:5
	ldr	r0, [sp, #16]
.Ltmp40:
	.loc	4 20 5 is_stmt 0                @ applications/umqtt_app.c:20:5
	cbnz	r0, .LBB2_4
	b	.LBB2_3
.LBB2_3:
.Ltmp41:
	.loc	4 20 5                          @ applications/umqtt_app.c:20:5
	movw	r0, :lower16:.L.str.14
	movt	r0, :upper16:.L.str.14
	movw	r1, :lower16:.L__FUNCTION__.umqtt_face_search_callback
	movt	r1, :upper16:.L__FUNCTION__.umqtt_face_search_callback
	movs	r2, #20
	bl	rt_assert_handler
	b	.LBB2_4
.Ltmp42:
.LBB2_4:
	.loc	4 21 67 is_stmt 1               @ applications/umqtt_app.c:21:67
	ldr	r0, [sp, #16]
	.loc	4 21 32 is_stmt 0               @ applications/umqtt_app.c:21:32
	str	r0, [sp, #12]
	.loc	4 22 28 is_stmt 1               @ applications/umqtt_app.c:22:28
	ldr	r0, [sp, #12]
	.loc	4 22 33 is_stmt 0               @ applications/umqtt_app.c:22:33
	ldr	r0, [r0, #12]
	.loc	4 22 16                         @ applications/umqtt_app.c:22:16
	bl	cJSON_Parse
	.loc	4 22 9                          @ applications/umqtt_app.c:22:9
	str	r0, [sp, #8]
	.loc	4 23 39 is_stmt 1               @ applications/umqtt_app.c:23:39
	ldr	r0, [sp, #8]
	.loc	4 23 19 is_stmt 0               @ applications/umqtt_app.c:23:19
	movw	r1, :lower16:.L.str.15
	movt	r1, :upper16:.L.str.15
	bl	cJSON_GetObjectItem
	.loc	4 23 9                          @ applications/umqtt_app.c:23:9
	str	r0, [sp, #4]
	.loc	4 24 36 is_stmt 1               @ applications/umqtt_app.c:24:36
	ldr	r0, [sp, #4]
	.loc	4 24 45 is_stmt 0               @ applications/umqtt_app.c:24:45
	ldr	r1, [r0, #20]
	.loc	4 24 5                          @ applications/umqtt_app.c:24:5
	movw	r0, :lower16:.L.str.16
	movt	r0, :upper16:.L.str.16
	bl	rt_kprintf
.Ltmp43:
	.loc	4 25 5 is_stmt 1                @ applications/umqtt_app.c:25:5
	ldr	r0, [sp, #4]
	.loc	4 25 14 is_stmt 0               @ applications/umqtt_app.c:25:14
	ldr	r0, [r0, #20]
.Ltmp44:
	.loc	4 25 5                          @ applications/umqtt_app.c:25:5
	cmp	r0, #1
	blt	.LBB2_6
	b	.LBB2_5
.LBB2_5:
.Ltmp45:
	.loc	4 27 3 is_stmt 1                @ applications/umqtt_app.c:27:3
	movw	r0, :lower16:.L.str.17
	movt	r0, :upper16:.L.str.17
	mov.w	r1, #2000
	str	r1, [sp]                        @ 4-byte Spill
	bl	msgbox_show
	ldr	r0, [sp]                        @ 4-byte Reload
	.loc	4 28 3                          @ applications/umqtt_app.c:28:3
	bl	moto_driver
	.loc	4 29 3                          @ applications/umqtt_app.c:29:3
	movw	r0, :lower16:.L.str.18
	movt	r0, :upper16:.L.str.18
	bl	rt_kprintf
	.loc	4 30 2                          @ applications/umqtt_app.c:30:2
	b	.LBB2_9
.Ltmp46:
.LBB2_6:
	.loc	4 31 20                         @ applications/umqtt_app.c:31:20
	ldr	r0, [sp, #4]
	.loc	4 31 29 is_stmt 0               @ applications/umqtt_app.c:31:29
	ldr	r0, [r0, #16]
	.loc	4 31 10                         @ applications/umqtt_app.c:31:10
	movw	r1, :lower16:.L.str.19
	movt	r1, :upper16:.L.str.19
	bl	rt_strcmp
.Ltmp47:
	.loc	4 31 10                         @ applications/umqtt_app.c:31:10
	cbnz	r0, .LBB2_8
	b	.LBB2_7
.LBB2_7:
.Ltmp48:
	.loc	4 33 3 is_stmt 1                @ applications/umqtt_app.c:33:3
	movw	r0, :lower16:.L.str.20
	movt	r0, :upper16:.L.str.20
	mov.w	r1, #2000
	bl	msgbox_show
	.loc	4 34 3                          @ applications/umqtt_app.c:34:3
	movw	r0, :lower16:.L.str.21
	movt	r0, :upper16:.L.str.21
	bl	rt_kprintf
	.loc	4 35 2                          @ applications/umqtt_app.c:35:2
	b	.LBB2_8
.Ltmp49:
.LBB2_8:
	.loc	4 0 2 is_stmt 0                 @ applications/umqtt_app.c:0:2
	b	.LBB2_9
.LBB2_9:
	.loc	4 36 1 is_stmt 1                @ applications/umqtt_app.c:36:1
	add	sp, #24
	pop	{r7, pc}
.Ltmp50:
.Lfunc_end2:
	.size	umqtt_face_search_callback, .Lfunc_end2-umqtt_face_search_callback
	.cfi_endproc
	.cantunwind
	.fnend
                                        @ -- End function
	.section	.text.umqtt_rfid_update_callback,"ax",%progbits
	.p2align	3                               @ -- Begin function umqtt_rfid_update_callback
	.type	umqtt_rfid_update_callback,%function
	.code	16                              @ @umqtt_rfid_update_callback
	.thumb_func
umqtt_rfid_update_callback:
.Lfunc_begin3:
	.loc	4 38 0                          @ applications/umqtt_app.c:38:0
	.fnstart
	.cfi_startproc
@ %bb.0:
	.save	{r7, lr}
	push	{r7, lr}
	.cfi_def_cfa_offset 8
	.cfi_offset lr, -4
	.cfi_offset r7, -8
	.pad	#16
	sub	sp, #16
	.cfi_def_cfa_offset 24
	str	r0, [sp, #12]
	str	r1, [sp, #8]
.Ltmp51:
	.loc	4 39 5 prologue_end             @ applications/umqtt_app.c:39:5
	ldr	r0, [sp, #12]
.Ltmp52:
	.loc	4 39 5 is_stmt 0                @ applications/umqtt_app.c:39:5
	cbnz	r0, .LBB3_2
	b	.LBB3_1
.LBB3_1:
.Ltmp53:
	.loc	4 39 5                          @ applications/umqtt_app.c:39:5
	movw	r0, :lower16:.L.str.11
	movt	r0, :upper16:.L.str.11
	movw	r1, :lower16:.L__FUNCTION__.umqtt_rfid_update_callback
	movt	r1, :upper16:.L__FUNCTION__.umqtt_rfid_update_callback
	movs	r2, #39
	bl	rt_assert_handler
	b	.LBB3_2
.Ltmp54:
.LBB3_2:
	.loc	4 40 5 is_stmt 1                @ applications/umqtt_app.c:40:5
	ldr	r0, [sp, #8]
.Ltmp55:
	.loc	4 40 5 is_stmt 0                @ applications/umqtt_app.c:40:5
	cbnz	r0, .LBB3_4
	b	.LBB3_3
.LBB3_3:
.Ltmp56:
	.loc	4 40 5                          @ applications/umqtt_app.c:40:5
	movw	r0, :lower16:.L.str.14
	movt	r0, :upper16:.L.str.14
	movw	r1, :lower16:.L__FUNCTION__.umqtt_rfid_update_callback
	movt	r1, :upper16:.L__FUNCTION__.umqtt_rfid_update_callback
	movs	r2, #40
	bl	rt_assert_handler
	b	.LBB3_4
.Ltmp57:
.LBB3_4:
	.loc	4 41 67 is_stmt 1               @ applications/umqtt_app.c:41:67
	ldr	r0, [sp, #8]
	.loc	4 41 32 is_stmt 0               @ applications/umqtt_app.c:41:32
	str	r0, [sp, #4]
	.loc	4 42 28 is_stmt 1               @ applications/umqtt_app.c:42:28
	ldr	r0, [sp, #4]
	.loc	4 42 33 is_stmt 0               @ applications/umqtt_app.c:42:33
	ldr	r0, [r0, #12]
	.loc	4 42 16                         @ applications/umqtt_app.c:42:16
	bl	cJSON_Parse
	.loc	4 42 9                          @ applications/umqtt_app.c:42:9
	str	r0, [sp]
	.loc	4 43 13 is_stmt 1               @ applications/umqtt_app.c:43:13
	movw	r0, :lower16:rfid_update_mb
	movt	r0, :upper16:rfid_update_mb
	ldr	r0, [r0]
	.loc	4 43 41 is_stmt 0               @ applications/umqtt_app.c:43:41
	ldr	r1, [sp]
	.loc	4 43 2                          @ applications/umqtt_app.c:43:2
	bl	rt_mb_send
	.loc	4 44 1 is_stmt 1                @ applications/umqtt_app.c:44:1
	add	sp, #16
	pop	{r7, pc}
.Ltmp58:
.Lfunc_end3:
	.size	umqtt_rfid_update_callback, .Lfunc_end3-umqtt_rfid_update_callback
	.cfi_endproc
	.cantunwind
	.fnend
                                        @ -- End function
	.type	.L.str,%object                  @ @.str
	.section	.rodata.str1.1,"aMS",%progbits,1
.L.str:
	.asciz	"tcp://%s:1883"
	.size	.L.str, 14

	.type	.L.str.1,%object                @ @.str.1
.L.str.1:
	.asciz	"106.52.51.28"
	.size	.L.str.1, 13

	.type	.L.str.2,%object                @ @.str.2
.L.str.2:
	.asciz	"ART-PI"
	.size	.L.str.2, 7

	.type	.L.str.3,%object                @ @.str.3
.L.str.3:
	.asciz	"admin-ART-PI"
	.size	.L.str.3, 13

	.type	.L.str.4,%object                @ @.str.4
.L.str.4:
	.asciz	"passwd"
	.size	.L.str.4, 7

	.type	.L.str.5,%object                @ @.str.5
.L.str.5:
	.asciz	"[E/DBG] "
	.size	.L.str.5, 9

	.type	.L.str.6,%object                @ @.str.6
.L.str.6:
	.asciz	" umqtt client start failed! "
	.size	.L.str.6, 29

	.type	.L.str.7,%object                @ @.str.7
.L.str.7:
	.asciz	"\n"
	.size	.L.str.7, 2

	.type	.L.str.8,%object                @ @.str.8
.L.str.8:
	.asciz	"msg"
	.size	.L.str.8, 4

	.type	.L.str.9,%object                @ @.str.9
.L.str.9:
	.asciz	"$iot/znmj/face/search"
	.size	.L.str.9, 22

	.type	.L.str.10,%object               @ @.str.10
.L.str.10:
	.asciz	"  error status: %d\r\n"
	.size	.L.str.10, 21

	.type	.L.str.11,%object               @ @.str.11
.L.str.11:
	.asciz	"client"
	.size	.L.str.11, 7

	.type	.L__FUNCTION__.user_callback,%object @ @__FUNCTION__.user_callback
.L__FUNCTION__.user_callback:
	.asciz	"user_callback"
	.size	.L__FUNCTION__.user_callback, 14

	.type	.L.str.12,%object               @ @.str.12
.L.str.12:
	.asciz	"$iot/znmj/face/result"
	.size	.L.str.12, 22

	.type	.L.str.13,%object               @ @.str.13
.L.str.13:
	.asciz	"$iot/znmj/rfid/update"
	.size	.L.str.13, 22

	.type	.L__FUNCTION__.umqtt_face_search_callback,%object @ @__FUNCTION__.umqtt_face_search_callback
.L__FUNCTION__.umqtt_face_search_callback:
	.asciz	"umqtt_face_search_callback"
	.size	.L__FUNCTION__.umqtt_face_search_callback, 27

	.type	.L.str.14,%object               @ @.str.14
.L.str.14:
	.asciz	"msg_data"
	.size	.L.str.14, 9

	.type	.L.str.15,%object               @ @.str.15
.L.str.15:
	.asciz	"result"
	.size	.L.str.15, 7

	.type	.L.str.16,%object               @ @.str.16
.L.str.16:
	.asciz	"payload: %d \r\n"
	.size	.L.str.16, 15

	.type	.L.str.17,%object               @ @.str.17
.L.str.17:
	.asciz	"open!!!"
	.size	.L.str.17, 8

	.type	.L.str.18,%object               @ @.str.18
.L.str.18:
	.asciz	"open!!!\r\n"
	.size	.L.str.18, 10

	.type	.L.str.19,%object               @ @.str.19
.L.str.19:
	.asciz	"not much"
	.size	.L.str.19, 9

	.type	.L.str.20,%object               @ @.str.20
.L.str.20:
	.asciz	"error!!!"
	.size	.L.str.20, 9

	.type	.L.str.21,%object               @ @.str.21
.L.str.21:
	.asciz	"error!!!\r\n"
	.size	.L.str.21, 11

	.type	.L__FUNCTION__.umqtt_rfid_update_callback,%object @ @__FUNCTION__.umqtt_rfid_update_callback
.L__FUNCTION__.umqtt_rfid_update_callback:
	.asciz	"umqtt_rfid_update_callback"
	.size	.L__FUNCTION__.umqtt_rfid_update_callback, 27

	.file	5 "E:\\Smart-access-control\\Hardware\\CODE" "./packages/cJSON-v1.0.2\\cJSON.h"
	.section	".note.GNU-stack","",%progbits
	.eabi_attribute	30, 6	@ Tag_ABI_optimization_goals
	.ARM_attribute	16, 1	@ Tag_AV_eba