	.text
	.syntax unified
	.eabi_attribute	67, "2.09"	@ Tag_conformance
	.cpu	cortex-m7
	.eabi_attribute	6, 13	@ Tag_CPU_arch
	.eabi_attribute	7, 77	@ Tag_CPU_arch_profile
	.eabi_attribute	8, 0	@ Tag_ARM_ISA_use
	.eabi_attribute	9, 2	@ Tag_THUMB_ISA_use
	.fpu	fpv5-d16
	.eabi_attribute	36, 1	@ Tag_FP_HP_extension
	.eabi_attribute	34, 1	@ Tag_CPU_unaligned_access
	.eabi_attribute	17, 1	@ Tag_ABI_PCS_GOT_use
	.eabi_attribute	20, 2	@ Tag_ABI_FP_denormal
	.eabi_attribute	21, 0	@ Tag_ABI_FP_exceptions
	.eabi_attribute	23, 1	@ Tag_ABI_FP_number_model
	.eabi_attribute	24, 1	@ Tag_ABI_align_needed
	.eabi_attribute	25, 1	@ Tag_ABI_align_preserved
	.eabi_attribute	28, 1	@ Tag_ABI_VFP_args
	.eabi_attribute	38, 1	@ Tag_ABI_FP_16bit_format
	.eabi_attribute	18, 2	@ Tag_ABI_PCS_wchar_t
	.eabi_attribute	26, 1	@ Tag_ABI_enum_size
	.eabi_attribute	14, 0	@ Tag_ABI_PCS_R9_use
	.file	"umqtt_pkgs_decode.c"
	.file	1 "E:\\Smart-access-control\\Hardware\\CODE" "packages/umqtt-latest/src/pkgs/umqtt_pkgs_decode.c"
	.file	2 "E:\\Smart-access-control\\Hardware\\CODE" "./packages/umqtt-latest/inc\\umqtt_internal.h"
	.file	3 "E:\\Smart-access-control\\Hardware\\CODE" "./packages/umqtt-latest/inc\\umqtt.h"
	.section	.text.umqtt_decode,"ax",%progbits
	.hidden	umqtt_decode                    @ -- Begin function umqtt_decode
	.globl	umqtt_decode
	.p2align	3
	.type	umqtt_decode,%function
	.code	16                              @ @umqtt_decode
	.thumb_func
umqtt_decode:
.Lfunc_begin0:
	.loc	1 254 0                         @ packages/umqtt-latest/src/pkgs/umqtt_pkgs_decode.c:254:0
	.fnstart
	.cfi_sections .debug_frame
	.cfi_startproc
@ %bb.0:
	@DEBUG_VALUE: umqtt_decode:recv_buf <- $r0
	@DEBUG_VALUE: umqtt_decode:recv_buf_len <- $r1
	@DEBUG_VALUE: umqtt_decode:message <- $r2
	@DEBUG_VALUE: umqtt_decode:message <- $r2
	.save	{r4, r5, r7, lr}
	push	{r4, r5, r7, lr}
	.cfi_def_cfa_offset 16
	.cfi_offset lr, -4
	.cfi_offset r7, -8
	.cfi_offset r5, -12
	.cfi_offset r4, -16
	.pad	#8
	sub	sp, #8
	.cfi_def_cfa_offset 24
.Ltmp0:
	@DEBUG_VALUE: umqtt_decode:curdata <- $r0
	@DEBUG_VALUE: umqtt_decode:_ret <- 0
	@DEBUG_VALUE: umqtt_decode:recv_buf <- $r0
	.loc	1 256 14 prologue_end           @ packages/umqtt-latest/src/pkgs/umqtt_pkgs_decode.c:256:14
	str	r0, [sp, #4]
	.loc	1 258 9                         @ packages/umqtt-latest/src/pkgs/umqtt_pkgs_decode.c:258:9
	cbz	r2, .LBB0_5
.Ltmp1:
@ %bb.1:
	@DEBUG_VALUE: umqtt_decode:message <- $r2
	@DEBUG_VALUE: umqtt_decode:recv_buf_len <- $r1
	@DEBUG_VALUE: umqtt_decode:curdata <- $r0
	@DEBUG_VALUE: umqtt_decode:recv_buf <- $r0
	@DEBUG_VALUE: umqtt_decode:_ret <- 0
	.loc	1 0 9 is_stmt 0                 @ packages/umqtt-latest/src/pkgs/umqtt_pkgs_decode.c:0:9
	mov	r4, r0
.Ltmp2:
	@DEBUG_VALUE: umqtt_decode:recv_buf <- $r4
	@DEBUG_VALUE: umqtt_decode:recv_buf <- $r4
	@DEBUG_VALUE: umqtt_decode:curdata <- $r4
	@DEBUG_VALUE: umqtt_decode:curdata <- [DW_OP_plus_uconst 4, DW_OP_deref] $sp
	add	r0, sp, #4
	mov	r5, r2
.Ltmp3:
	@DEBUG_VALUE: umqtt_decode:message <- $r5
	@DEBUG_VALUE: umqtt_decode:message <- $r5
	.loc	1 265 28 is_stmt 1              @ packages/umqtt-latest/src/pkgs/umqtt_pkgs_decode.c:265:28
	bl	umqtt_readChar
.Ltmp4:
	@DEBUG_VALUE: umqtt_decode:recv_buf_len <- [DW_OP_LLVM_entry_value 1] $r1
	uxtb	r1, r0
	mvn	r2, #1
	.loc	1 265 26 is_stmt 0              @ packages/umqtt-latest/src/pkgs/umqtt_pkgs_decode.c:265:26
	strb	r0, [r5]
	movs	r0, #0
.Ltmp5:
	@DEBUG_VALUE: umqtt_decode:type <- undef
	.loc	1 268 5 is_stmt 1               @ packages/umqtt-latest/src/pkgs/umqtt_pkgs_decode.c:268:5
	add.w	r1, r2, r1, lsr #4
	cmp	r1, #9
	bhi	.LBB0_10
.Ltmp6:
@ %bb.2:
	@DEBUG_VALUE: umqtt_decode:message <- $r5
	@DEBUG_VALUE: umqtt_decode:recv_buf <- $r4
	@DEBUG_VALUE: umqtt_decode:curdata <- [DW_OP_plus_uconst 4, DW_OP_deref] $sp
	@DEBUG_VALUE: umqtt_decode:recv_buf_len <- [DW_OP_LLVM_entry_value 1] $r1
	@DEBUG_VALUE: umqtt_decode:_ret <- 0
	.loc	1 0 5 is_stmt 0                 @ packages/umqtt-latest/src/pkgs/umqtt_pkgs_decode.c:0:5
.LCPI0_1:
	tbb	[pc, r1]
.Ltmp7:
@ %bb.3:
.LJTI0_0:
	.byte	(.LBB0_4-(.LCPI0_1+4))/2
	.byte	(.LBB0_6-(.LCPI0_1+4))/2
	.byte	(.LBB0_7-(.LCPI0_1+4))/2
	.byte	(.LBB0_10-(.LCPI0_1+4))/2
	.byte	(.LBB0_10-(.LCPI0_1+4))/2
	.byte	(.LBB0_10-(.LCPI0_1+4))/2
	.byte	(.LBB0_10-(.LCPI0_1+4))/2
	.byte	(.LBB0_8-(.LCPI0_1+4))/2
	.byte	(.LBB0_10-(.LCPI0_1+4))/2
	.byte	(.LBB0_9-(.LCPI0_1+4))/2
	.p2align	1
.LBB0_4:
.Ltmp8:
	@DEBUG_VALUE: umqtt_decode:message <- $r5
	@DEBUG_VALUE: umqtt_decode:recv_buf <- $r4
	@DEBUG_VALUE: umqtt_decode:curdata <- [DW_OP_plus_uconst 4, DW_OP_deref] $sp
	@DEBUG_VALUE: umqtt_decode:recv_buf_len <- [DW_OP_LLVM_entry_value 1] $r1
	@DEBUG_VALUE: umqtt_decode:_ret <- 0
	.loc	1 271 48 is_stmt 1              @ packages/umqtt-latest/src/pkgs/umqtt_pkgs_decode.c:271:48
	add.w	r0, r5, #8
	.loc	1 271 16 is_stmt 0              @ packages/umqtt-latest/src/pkgs/umqtt_pkgs_decode.c:271:16
	mov	r1, r4
	bl	umqtt_connack_decode
.Ltmp9:
	@DEBUG_VALUE: umqtt_decode:_ret <- $r0
	@DEBUG_VALUE: umqtt_decode:_ret <- $r0
	@DEBUG_LABEL: umqtt_decode:exit
	.loc	1 301 5 is_stmt 1               @ packages/umqtt-latest/src/pkgs/umqtt_pkgs_decode.c:301:5
	add	sp, #8
	pop	{r4, r5, r7, pc}
.Ltmp10:
.LBB0_5:
	@DEBUG_VALUE: umqtt_decode:message <- $r2
	@DEBUG_VALUE: umqtt_decode:recv_buf_len <- $r1
	@DEBUG_VALUE: umqtt_decode:curdata <- $r0
	@DEBUG_VALUE: umqtt_decode:recv_buf <- $r0
	@DEBUG_VALUE: umqtt_decode:_ret <- 0
	@DEBUG_VALUE: umqtt_decode:_ret <- -8
	.loc	1 261 9                         @ packages/umqtt-latest/src/pkgs/umqtt_pkgs_decode.c:261:9
	movw	r0, :lower16:.L.str
.Ltmp11:
	@DEBUG_VALUE: umqtt_decode:recv_buf <- [DW_OP_LLVM_entry_value 1] $r0
	movt	r0, :upper16:.L.str
	bl	rt_kprintf
.Ltmp12:
	@DEBUG_VALUE: umqtt_decode:message <- [DW_OP_LLVM_entry_value 1] $r2
	@DEBUG_VALUE: umqtt_decode:recv_buf_len <- [DW_OP_LLVM_entry_value 1] $r1
	adr	r0, .LCPI0_0
	bl	rt_kprintf
	movw	r0, :lower16:.L.str.2
	movt	r0, :upper16:.L.str.2
	bl	rt_kprintf
	mvn	r0, #7
.Ltmp13:
	@DEBUG_VALUE: umqtt_decode:_ret <- $r0
	@DEBUG_LABEL: umqtt_decode:exit
	.loc	1 301 5                         @ packages/umqtt-latest/src/pkgs/umqtt_pkgs_decode.c:301:5
	add	sp, #8
	pop	{r4, r5, r7, pc}
.Ltmp14:
.LBB0_6:
	@DEBUG_VALUE: umqtt_decode:message <- $r5
	@DEBUG_VALUE: umqtt_decode:recv_buf <- $r4
	@DEBUG_VALUE: umqtt_decode:curdata <- [DW_OP_plus_uconst 4, DW_OP_deref] $sp
	@DEBUG_VALUE: umqtt_decode:recv_buf_len <- [DW_OP_LLVM_entry_value 1] $r1
	@DEBUG_VALUE: umqtt_decode:_ret <- 0
	.loc	1 274 16                        @ packages/umqtt-latest/src/pkgs/umqtt_pkgs_decode.c:274:16
	mov	r0, r5
	mov	r1, r4
	bl	umqtt_publish_decode
.Ltmp15:
	@DEBUG_VALUE: umqtt_decode:_ret <- $r0
	@DEBUG_VALUE: umqtt_decode:_ret <- $r0
	@DEBUG_LABEL: umqtt_decode:exit
	.loc	1 301 5                         @ packages/umqtt-latest/src/pkgs/umqtt_pkgs_decode.c:301:5
	add	sp, #8
	pop	{r4, r5, r7, pc}
.Ltmp16:
.LBB0_7:
	@DEBUG_VALUE: umqtt_decode:message <- $r5
	@DEBUG_VALUE: umqtt_decode:recv_buf <- $r4
	@DEBUG_VALUE: umqtt_decode:curdata <- [DW_OP_plus_uconst 4, DW_OP_deref] $sp
	@DEBUG_VALUE: umqtt_decode:recv_buf_len <- [DW_OP_LLVM_entry_value 1] $r1
	@DEBUG_VALUE: umqtt_decode:_ret <- 0
	.loc	1 277 16                        @ packages/umqtt-latest/src/pkgs/umqtt_pkgs_decode.c:277:16
	mov	r0, r5
	mov	r1, r4
	bl	umqtt_puback_decode
.Ltmp17:
	@DEBUG_VALUE: umqtt_decode:_ret <- $r0
	@DEBUG_VALUE: umqtt_decode:_ret <- $r0
	@DEBUG_LABEL: umqtt_decode:exit
	.loc	1 301 5                         @ packages/umqtt-latest/src/pkgs/umqtt_pkgs_decode.c:301:5
	add	sp, #8
	pop	{r4, r5, r7, pc}
.Ltmp18:
.LBB0_8:
	@DEBUG_VALUE: umqtt_decode:message <- $r5
	@DEBUG_VALUE: umqtt_decode:recv_buf <- $r4
	@DEBUG_VALUE: umqtt_decode:curdata <- [DW_OP_plus_uconst 4, DW_OP_deref] $sp
	@DEBUG_VALUE: umqtt_decode:recv_buf_len <- [DW_OP_LLVM_entry_value 1] $r1
	@DEBUG_VALUE: umqtt_decode:_ret <- 0
	.loc	1 289 47                        @ packages/umqtt-latest/src/pkgs/umqtt_pkgs_decode.c:289:47
	add.w	r0, r5, #8
	.loc	1 289 16 is_stmt 0              @ packages/umqtt-latest/src/pkgs/umqtt_pkgs_decode.c:289:16
	mov	r1, r4
	bl	umqtt_suback_decode
.Ltmp19:
	@DEBUG_VALUE: umqtt_decode:_ret <- $r0
	@DEBUG_VALUE: umqtt_decode:_ret <- $r0
	@DEBUG_LABEL: umqtt_decode:exit
	.loc	1 301 5 is_stmt 1               @ packages/umqtt-latest/src/pkgs/umqtt_pkgs_decode.c:301:5
	add	sp, #8
	pop	{r4, r5, r7, pc}
.Ltmp20:
.LBB0_9:
	@DEBUG_VALUE: umqtt_decode:message <- $r5
	@DEBUG_VALUE: umqtt_decode:recv_buf <- $r4
	@DEBUG_VALUE: umqtt_decode:curdata <- [DW_OP_plus_uconst 4, DW_OP_deref] $sp
	@DEBUG_VALUE: umqtt_decode:recv_buf_len <- [DW_OP_LLVM_entry_value 1] $r1
	@DEBUG_VALUE: umqtt_decode:_ret <- 0
	.loc	1 292 49                        @ packages/umqtt-latest/src/pkgs/umqtt_pkgs_decode.c:292:49
	add.w	r0, r5, #8
	.loc	1 292 16 is_stmt 0              @ packages/umqtt-latest/src/pkgs/umqtt_pkgs_decode.c:292:16
	mov	r1, r4
	bl	umqtt_unsuback_decode
.Ltmp21:
	@DEBUG_VALUE: umqtt_decode:_ret <- $r0
.LBB0_10:
	@DEBUG_VALUE: umqtt_decode:message <- $r5
	@DEBUG_VALUE: umqtt_decode:recv_buf <- $r4
	@DEBUG_VALUE: umqtt_decode:curdata <- [DW_OP_plus_uconst 4, DW_OP_deref] $sp
	@DEBUG_VALUE: umqtt_decode:recv_buf_len <- [DW_OP_LLVM_entry_value 1] $r1
	@DEBUG_VALUE: umqtt_decode:_ret <- $r0
	@DEBUG_LABEL: umqtt_decode:exit
	.loc	1 301 5 is_stmt 1               @ packages/umqtt-latest/src/pkgs/umqtt_pkgs_decode.c:301:5
	add	sp, #8
	pop	{r4, r5, r7, pc}
.Ltmp22:
	.p2align	2
@ %bb.11:
	.loc	1 0 5 is_stmt 0                 @ packages/umqtt-latest/src/pkgs/umqtt_pkgs_decode.c:0:5
.LCPI0_0:
.L.str.1:
	.asciz	" umqtt decode inparams null!\000\000\000"
.Lfunc_end0:
	.size	umqtt_decode, .Lfunc_end0-umqtt_decode
	.cfi_endproc
	.cantunwind
	.fnend
                                        @ -- End function
	.section	.text.umqtt_readChar,"ax",%progbits
	.p2align	3                               @ -- Begin function umqtt_readChar
	.type	umqtt_readChar,%function
	.code	16                              @ @umqtt_readChar
	.thumb_func
umqtt_readChar:
.Lfunc_begin1:
	.loc	2 251 0 is_stmt 1               @ ./packages/umqtt-latest/inc\umqtt_internal.h:251:0
	.fnstart
	.cfi_startproc
@ %bb.0:
	@DEBUG_VALUE: umqtt_readChar:pptr <- $r0
	@DEBUG_VALUE: umqtt_readChar:pptr <- $r0
	.loc	2 252 12 prologue_end           @ ./packages/umqtt-latest/inc\umqtt_internal.h:252:12
	ldr	r2, [r0]
	.loc	2 252 11 is_stmt 0              @ ./packages/umqtt-latest/inc\umqtt_internal.h:252:11
	ldrsb	r1, [r2], #1
.Ltmp23:
	@DEBUG_VALUE: umqtt_readChar:c <- undef
	.loc	2 253 9 is_stmt 1               @ ./packages/umqtt-latest/inc\umqtt_internal.h:253:9
	str	r2, [r0]
	.loc	2 254 2                         @ ./packages/umqtt-latest/inc\umqtt_internal.h:254:2
	mov	r0, r1
.Ltmp24:
	@DEBUG_VALUE: umqtt_readChar:pptr <- [DW_OP_LLVM_entry_value 1] $r0
	bx	lr
.Ltmp25:
.Lfunc_end1:
	.size	umqtt_readChar, .Lfunc_end1-umqtt_readChar
	.cfi_endproc
	.cantunwind
	.fnend
                                        @ -- End function
	.section	.text.umqtt_connack_decode,"ax",%progbits
	.p2align	3                               @ -- Begin function umqtt_connack_decode
	.type	umqtt_connack_decode,%function
	.code	16                              @ @umqtt_connack_decode
	.thumb_func
umqtt_connack_decode:
.Lfunc_begin2:
	.loc	1 99 0                          @ packages/umqtt-latest/src/pkgs/umqtt_pkgs_decode.c:99:0
	.fnstart
	.cfi_startproc
@ %bb.0:
	@DEBUG_VALUE: umqtt_connack_decode:connack_msg <- $r0
	@DEBUG_VALUE: umqtt_connack_decode:buf <- $r1
	.save	{r4, r5, r6, lr}
	push	{r4, r5, r6, lr}
	.cfi_def_cfa_offset 16
	.cfi_offset lr, -4
	.cfi_offset r6, -8
	.cfi_offset r5, -12
	.cfi_offset r4, -16
	.pad	#8
	sub	sp, #8
	.cfi_def_cfa_offset 24
	mov	r4, r0
.Ltmp26:
	@DEBUG_VALUE: umqtt_connack_decode:connack_msg <- $r4
	@DEBUG_VALUE: umqtt_connack_decode:curdata <- $r1
	@DEBUG_VALUE: umqtt_connack_decode:header <- 0
	@DEBUG_VALUE: umqtt_connack_decode:buflen <- undef
	@DEBUG_VALUE: umqtt_connack_decode:buf <- $r1
	@DEBUG_VALUE: umqtt_connack_decode:connack_msg <- $r4
	add	r0, sp, #4
.Ltmp27:
	.loc	1 101 17 prologue_end           @ packages/umqtt-latest/src/pkgs/umqtt_pkgs_decode.c:101:17
	str	r1, [sp, #4]
.Ltmp28:
	@DEBUG_VALUE: umqtt_connack_decode:rc <- 0
	@DEBUG_VALUE: umqtt_connack_decode:enddata <- 0
	@DEBUG_VALUE: umqtt_connack_decode:curdata <- [DW_OP_plus_uconst 4, DW_OP_deref] $sp
	.loc	1 106 16                        @ packages/umqtt-latest/src/pkgs/umqtt_pkgs_decode.c:106:16
	bl	umqtt_readChar
.Ltmp29:
	@DEBUG_VALUE: umqtt_connack_decode:buf <- [DW_OP_LLVM_entry_value 1] $r1
	@DEBUG_VALUE: umqtt_connack_decode:header <- $r0
	.loc	1 107 23                        @ packages/umqtt-latest/src/pkgs/umqtt_pkgs_decode.c:107:23
	bic	r0, r0, #15
.Ltmp30:
	.loc	1 107 6 is_stmt 0               @ packages/umqtt-latest/src/pkgs/umqtt_pkgs_decode.c:107:6
	cmp	r0, #32
	bne	.LBB2_3
.Ltmp31:
@ %bb.1:
	@DEBUG_VALUE: umqtt_connack_decode:connack_msg <- $r4
	@DEBUG_VALUE: umqtt_connack_decode:curdata <- [DW_OP_plus_uconst 4, DW_OP_deref] $sp
	@DEBUG_VALUE: umqtt_connack_decode:buf <- [DW_OP_LLVM_entry_value 1] $r1
	@DEBUG_VALUE: umqtt_connack_decode:enddata <- 0
	@DEBUG_VALUE: umqtt_connack_decode:rc <- 0
	.loc	1 114 40 is_stmt 1              @ packages/umqtt-latest/src/pkgs/umqtt_pkgs_decode.c:114:40
	ldr	r6, [sp, #4]
.Ltmp32:
	@DEBUG_VALUE: umqtt_connack_decode:mylen <- [DW_OP_deref] $sp
	@DEBUG_VALUE: umqtt_connack_decode:curdata <- $r6
	.loc	1 0 40 is_stmt 0                @ packages/umqtt-latest/src/pkgs/umqtt_pkgs_decode.c:0:40
	mov	r1, sp
	.loc	1 114 19                        @ packages/umqtt-latest/src/pkgs/umqtt_pkgs_decode.c:114:19
	mov	r0, r6
	bl	umqtt_pkgs_decodeBuf
	.loc	1 115 22 is_stmt 1              @ packages/umqtt-latest/src/pkgs/umqtt_pkgs_decode.c:115:22
	ldr	r1, [sp]
.Ltmp33:
	@DEBUG_VALUE: umqtt_connack_decode:mylen <- $r1
	@DEBUG_VALUE: umqtt_connack_decode:enddata <- undef
	.loc	1 114 19                        @ packages/umqtt-latest/src/pkgs/umqtt_pkgs_decode.c:114:19
	mov	r5, r0
.Ltmp34:
	@DEBUG_VALUE: umqtt_connack_decode:rc <- $r5
	.loc	1 116 6                         @ packages/umqtt-latest/src/pkgs/umqtt_pkgs_decode.c:116:6
	cmp	r1, #2
	.loc	1 114 10                        @ packages/umqtt-latest/src/pkgs/umqtt_pkgs_decode.c:114:10
	add	r0, r6
.Ltmp35:
	@DEBUG_VALUE: umqtt_connack_decode:curdata <- $r0
	str	r0, [sp, #4]
	.loc	1 116 6                         @ packages/umqtt-latest/src/pkgs/umqtt_pkgs_decode.c:116:6
	blt	.LBB2_4
.Ltmp36:
@ %bb.2:
	@DEBUG_VALUE: umqtt_connack_decode:rc <- $r5
	@DEBUG_VALUE: umqtt_connack_decode:connack_msg <- $r4
	@DEBUG_VALUE: umqtt_connack_decode:mylen <- $r1
	@DEBUG_VALUE: umqtt_connack_decode:curdata <- $r0
	@DEBUG_VALUE: umqtt_connack_decode:buf <- [DW_OP_LLVM_entry_value 1] $r1
	@DEBUG_VALUE: umqtt_connack_decode:curdata <- [DW_OP_plus_uconst 4, DW_OP_deref] $sp
	.loc	1 0 6 is_stmt 0                 @ packages/umqtt-latest/src/pkgs/umqtt_pkgs_decode.c:0:6
	add	r6, sp, #4
	.loc	1 122 47 is_stmt 1              @ packages/umqtt-latest/src/pkgs/umqtt_pkgs_decode.c:122:47
	mov	r0, r6
	bl	umqtt_readChar
.Ltmp37:
	.loc	1 122 45 is_stmt 0              @ packages/umqtt-latest/src/pkgs/umqtt_pkgs_decode.c:122:45
	strb	r0, [r4]
	.loc	1 123 29 is_stmt 1              @ packages/umqtt-latest/src/pkgs/umqtt_pkgs_decode.c:123:29
	mov	r0, r6
	bl	umqtt_readChar
	.loc	1 123 27 is_stmt 0              @ packages/umqtt-latest/src/pkgs/umqtt_pkgs_decode.c:123:27
	strb	r0, [r4, #1]
	b	.LBB2_4
.Ltmp38:
.LBB2_3:
	@DEBUG_VALUE: umqtt_connack_decode:connack_msg <- $r4
	@DEBUG_VALUE: umqtt_connack_decode:curdata <- [DW_OP_plus_uconst 4, DW_OP_deref] $sp
	@DEBUG_VALUE: umqtt_connack_decode:buf <- [DW_OP_LLVM_entry_value 1] $r1
	@DEBUG_VALUE: umqtt_connack_decode:enddata <- 0
	@DEBUG_VALUE: umqtt_connack_decode:rc <- 0
	@DEBUG_VALUE: umqtt_connack_decode:rc <- -1
	.loc	1 110 9 is_stmt 1               @ packages/umqtt-latest/src/pkgs/umqtt_pkgs_decode.c:110:9
	movw	r0, :lower16:.L.str
	movt	r0, :upper16:.L.str
	bl	rt_kprintf
	adr	r0, .LCPI2_0
	bl	rt_kprintf
	movw	r0, :lower16:.L.str.2
	movt	r0, :upper16:.L.str.2
	bl	rt_kprintf
	mov.w	r5, #-1
.Ltmp39:
.LBB2_4:
	@DEBUG_VALUE: umqtt_connack_decode:connack_msg <- $r4
	@DEBUG_VALUE: umqtt_connack_decode:buf <- [DW_OP_LLVM_entry_value 1] $r1
	@DEBUG_VALUE: umqtt_connack_decode:rc <- $r5
	@DEBUG_LABEL: umqtt_connack_decode:exit
	.loc	1 125 2                         @ packages/umqtt-latest/src/pkgs/umqtt_pkgs_decode.c:125:2
	mov	r0, r5
	add	sp, #8
	pop	{r4, r5, r6, pc}
.Ltmp40:
	.p2align	2
@ %bb.5:
	.loc	1 0 2 is_stmt 0                 @ packages/umqtt-latest/src/pkgs/umqtt_pkgs_decode.c:0:2
.LCPI2_0:
.L.str.3:
	.asciz	" not connack type!\000"
.Lfunc_end2:
	.size	umqtt_connack_decode, .Lfunc_end2-umqtt_connack_decode
	.cfi_endproc
	.cantunwind
	.fnend
                                        @ -- End function
	.section	.text.umqtt_publish_decode,"ax",%progbits
	.p2align	3                               @ -- Begin function umqtt_publish_decode
	.type	umqtt_publish_decode,%function
	.code	16                              @ @umqtt_publish_decode
	.thumb_func
umqtt_publish_decode:
.Lfunc_begin3:
	.loc	1 141 0 is_stmt 1               @ packages/umqtt-latest/src/pkgs/umqtt_pkgs_decode.c:141:0
	.fnstart
	.cfi_startproc
@ %bb.0:
	@DEBUG_VALUE: umqtt_publish_decode:publish_msg <- $r0
	@DEBUG_VALUE: umqtt_publish_decode:publish_msg <- $r0
	@DEBUG_VALUE: umqtt_publish_decode:buf <- $r1
	@DEBUG_VALUE: umqtt_publish_decode:buf <- $r1
	@DEBUG_VALUE: umqtt_publish_decode:buflen <- undef
	@DEBUG_VALUE: umqtt_publish_decode:buf <- $r1
	@DEBUG_VALUE: umqtt_publish_decode:publish_msg <- $r0
	.save	{r7, lr}
	push	{r7, lr}
	.cfi_def_cfa_offset 8
	.cfi_offset lr, -4
	.cfi_offset r7, -8
.Ltmp41:
	.loc	1 142 12 prologue_end           @ packages/umqtt-latest/src/pkgs/umqtt_pkgs_decode.c:142:12
	bl	MQTTDeserialize_publish
.Ltmp42:
	@DEBUG_VALUE: umqtt_publish_decode:buf <- [DW_OP_LLVM_entry_value 1] $r1
	@DEBUG_VALUE: umqtt_publish_decode:publish_msg <- [DW_OP_LLVM_entry_value 1] $r0
	.loc	1 142 5 is_stmt 0               @ packages/umqtt-latest/src/pkgs/umqtt_pkgs_decode.c:142:5
	pop	{r7, pc}
.Ltmp43:
.Lfunc_end3:
	.size	umqtt_publish_decode, .Lfunc_end3-umqtt_publish_decode
	.cfi_endproc
	.cantunwind
	.fnend
                                        @ -- End function
	.section	.text.umqtt_puback_decode,"ax",%progbits
	.p2align	3                               @ -- Begin function umqtt_puback_decode
	.type	umqtt_puback_decode,%function
	.code	16                              @ @umqtt_puback_decode
	.thumb_func
umqtt_puback_decode:
.Lfunc_begin4:
	.loc	1 155 0 is_stmt 1               @ packages/umqtt-latest/src/pkgs/umqtt_pkgs_decode.c:155:0
	.fnstart
	.cfi_startproc
@ %bb.0:
	@DEBUG_VALUE: umqtt_puback_decode:puback_msg <- $r0
	@DEBUG_VALUE: umqtt_puback_decode:puback_msg <- $r0
	@DEBUG_VALUE: umqtt_puback_decode:buf <- $r1
	@DEBUG_VALUE: umqtt_puback_decode:buf <- $r1
	@DEBUG_VALUE: umqtt_puback_decode:buflen <- undef
	@DEBUG_VALUE: umqtt_puback_decode:buf <- $r1
	@DEBUG_VALUE: umqtt_puback_decode:puback_msg <- $r0
	.save	{r7, lr}
	push	{r7, lr}
	.cfi_def_cfa_offset 8
	.cfi_offset lr, -4
	.cfi_offset r7, -8
.Ltmp44:
	.loc	1 156 12 prologue_end           @ packages/umqtt-latest/src/pkgs/umqtt_pkgs_decode.c:156:12
	bl	MQTTDeserialize_ack
.Ltmp45:
	@DEBUG_VALUE: umqtt_puback_decode:buf <- [DW_OP_LLVM_entry_value 1] $r1
	@DEBUG_VALUE: umqtt_puback_decode:puback_msg <- [DW_OP_LLVM_entry_value 1] $r0
	.loc	1 156 5 is_stmt 0               @ packages/umqtt-latest/src/pkgs/umqtt_pkgs_decode.c:156:5
	pop	{r7, pc}
.Ltmp46:
.Lfunc_end4:
	.size	umqtt_puback_decode, .Lfunc_end4-umqtt_puback_decode
	.cfi_endproc
	.cantunwind
	.fnend
                                        @ -- End function
	.section	.text.umqtt_suback_decode,"ax",%progbits
	.p2align	3                               @ -- Begin function umqtt_suback_decode
	.type	umqtt_suback_decode,%function
	.code	16                              @ @umqtt_suback_decode
	.thumb_func
umqtt_suback_decode:
.Lfunc_begin5:
	.loc	1 173 0 is_stmt 1               @ packages/umqtt-latest/src/pkgs/umqtt_pkgs_decode.c:173:0
	.fnstart
	.cfi_startproc
@ %bb.0:
	@DEBUG_VALUE: umqtt_suback_decode:suback_msg <- $r0
	@DEBUG_VALUE: umqtt_suback_decode:buf <- $r1
	.save	{r4, r5, r6, r7, lr}
	push	{r4, r5, r6, r7, lr}
	.cfi_def_cfa_offset 20
	.cfi_offset lr, -4
	.cfi_offset r7, -8
	.cfi_offset r6, -12
	.cfi_offset r5, -16
	.cfi_offset r4, -20
	.pad	#12
	sub	sp, #12
	.cfi_def_cfa_offset 32
	mov	r4, r0
.Ltmp47:
	@DEBUG_VALUE: umqtt_suback_decode:suback_msg <- $r4
	@DEBUG_VALUE: umqtt_suback_decode:curdata <- $r1
	@DEBUG_VALUE: umqtt_suback_decode:header <- 0
	@DEBUG_VALUE: umqtt_suback_decode:buflen <- undef
	@DEBUG_VALUE: umqtt_suback_decode:buf <- $r1
	@DEBUG_VALUE: umqtt_suback_decode:suback_msg <- $r4
	add	r0, sp, #8
.Ltmp48:
	.loc	1 175 17 prologue_end           @ packages/umqtt-latest/src/pkgs/umqtt_pkgs_decode.c:175:17
	str	r1, [sp, #8]
.Ltmp49:
	@DEBUG_VALUE: umqtt_suback_decode:rc <- 0
	@DEBUG_VALUE: umqtt_suback_decode:enddata <- 0
	@DEBUG_VALUE: umqtt_suback_decode:curdata <- [DW_OP_plus_uconst 8, DW_OP_deref] $sp
	.loc	1 180 16                        @ packages/umqtt-latest/src/pkgs/umqtt_pkgs_decode.c:180:16
	bl	umqtt_readChar
.Ltmp50:
	@DEBUG_VALUE: umqtt_suback_decode:buf <- [DW_OP_LLVM_entry_value 1] $r1
	@DEBUG_VALUE: umqtt_suback_decode:header <- $r0
	.loc	1 181 23                        @ packages/umqtt-latest/src/pkgs/umqtt_pkgs_decode.c:181:23
	bic	r0, r0, #15
.Ltmp51:
	.loc	1 181 6 is_stmt 0               @ packages/umqtt-latest/src/pkgs/umqtt_pkgs_decode.c:181:6
	adds	r0, #112
	bne	.LBB5_3
.Ltmp52:
@ %bb.1:
	@DEBUG_VALUE: umqtt_suback_decode:suback_msg <- $r4
	@DEBUG_VALUE: umqtt_suback_decode:curdata <- [DW_OP_plus_uconst 8, DW_OP_deref] $sp
	@DEBUG_VALUE: umqtt_suback_decode:buf <- [DW_OP_LLVM_entry_value 1] $r1
	@DEBUG_VALUE: umqtt_suback_decode:enddata <- 0
	@DEBUG_VALUE: umqtt_suback_decode:rc <- 0
	.loc	1 187 40 is_stmt 1              @ packages/umqtt-latest/src/pkgs/umqtt_pkgs_decode.c:187:40
	ldr	r6, [sp, #8]
.Ltmp53:
	@DEBUG_VALUE: umqtt_suback_decode:mylen <- [DW_OP_plus_uconst 4, DW_OP_deref] $sp
	@DEBUG_VALUE: umqtt_suback_decode:curdata <- $r6
	.loc	1 0 40 is_stmt 0                @ packages/umqtt-latest/src/pkgs/umqtt_pkgs_decode.c:0:40
	add	r1, sp, #4
	.loc	1 187 19                        @ packages/umqtt-latest/src/pkgs/umqtt_pkgs_decode.c:187:19
	mov	r0, r6
	bl	umqtt_pkgs_decodeBuf
	.loc	1 188 22 is_stmt 1              @ packages/umqtt-latest/src/pkgs/umqtt_pkgs_decode.c:188:22
	ldr	r1, [sp, #4]
.Ltmp54:
	@DEBUG_VALUE: umqtt_suback_decode:mylen <- $r1
	@DEBUG_VALUE: umqtt_suback_decode:enddata <- undef
	.loc	1 187 19                        @ packages/umqtt-latest/src/pkgs/umqtt_pkgs_decode.c:187:19
	mov	r5, r0
.Ltmp55:
	@DEBUG_VALUE: umqtt_suback_decode:rc <- $r5
	.loc	1 189 6                         @ packages/umqtt-latest/src/pkgs/umqtt_pkgs_decode.c:189:6
	cmp	r1, #2
	.loc	1 187 10                        @ packages/umqtt-latest/src/pkgs/umqtt_pkgs_decode.c:187:10
	add	r0, r6
.Ltmp56:
	@DEBUG_VALUE: umqtt_suback_decode:curdata <- $r0
	str	r0, [sp, #8]
	.loc	1 189 6                         @ packages/umqtt-latest/src/pkgs/umqtt_pkgs_decode.c:189:6
	bge	.LBB5_5
.Ltmp57:
@ %bb.2:
	@DEBUG_VALUE: umqtt_suback_decode:rc <- $r5
	@DEBUG_VALUE: umqtt_suback_decode:suback_msg <- $r4
	@DEBUG_VALUE: umqtt_suback_decode:mylen <- $r1
	@DEBUG_VALUE: umqtt_suback_decode:curdata <- $r0
	@DEBUG_VALUE: umqtt_suback_decode:buf <- [DW_OP_LLVM_entry_value 1] $r1
	.loc	1 0 6 is_stmt 0                 @ packages/umqtt-latest/src/pkgs/umqtt_pkgs_decode.c:0:6
	mvn	r5, #4
.Ltmp58:
	b	.LBB5_4
.Ltmp59:
.LBB5_3:
	@DEBUG_VALUE: umqtt_suback_decode:suback_msg <- $r4
	@DEBUG_VALUE: umqtt_suback_decode:curdata <- [DW_OP_plus_uconst 8, DW_OP_deref] $sp
	@DEBUG_VALUE: umqtt_suback_decode:buf <- [DW_OP_LLVM_entry_value 1] $r1
	@DEBUG_VALUE: umqtt_suback_decode:enddata <- 0
	@DEBUG_VALUE: umqtt_suback_decode:rc <- 0
	mov.w	r5, #-1
.Ltmp60:
.LBB5_4:
	@DEBUG_VALUE: umqtt_suback_decode:suback_msg <- $r4
	@DEBUG_VALUE: umqtt_suback_decode:buf <- [DW_OP_LLVM_entry_value 1] $r1
	@DEBUG_VALUE: umqtt_suback_decode:rc <- $r5
	@DEBUG_LABEL: umqtt_suback_decode:exit
	.loc	1 209 2 is_stmt 1               @ packages/umqtt-latest/src/pkgs/umqtt_pkgs_decode.c:209:2
	mov	r0, r5
	add	sp, #12
	pop	{r4, r5, r6, r7, pc}
.Ltmp61:
.LBB5_5:
	@DEBUG_VALUE: umqtt_suback_decode:rc <- $r5
	@DEBUG_VALUE: umqtt_suback_decode:suback_msg <- $r4
	@DEBUG_VALUE: umqtt_suback_decode:mylen <- $r1
	@DEBUG_VALUE: umqtt_suback_decode:curdata <- $r0
	@DEBUG_VALUE: umqtt_suback_decode:buf <- [DW_OP_LLVM_entry_value 1] $r1
	.loc	1 0 0 is_stmt 0                 @ packages/umqtt-latest/src/pkgs/umqtt_pkgs_decode.c:0:0
	adds	r7, r0, r1
.Ltmp62:
	@DEBUG_VALUE: umqtt_suback_decode:enddata <- $r7
	@DEBUG_VALUE: umqtt_suback_decode:curdata <- [DW_OP_plus_uconst 8, DW_OP_deref] $sp
	add	r0, sp, #8
	.loc	1 195 26 is_stmt 1              @ packages/umqtt-latest/src/pkgs/umqtt_pkgs_decode.c:195:26
	bl	umqtt_readInt
.Ltmp63:
	.loc	1 198 9                         @ packages/umqtt-latest/src/pkgs/umqtt_pkgs_decode.c:198:9
	ldr	r1, [sp, #8]
.Ltmp64:
	@DEBUG_VALUE: umqtt_suback_decode:curdata <- $r1
	.loc	1 195 24                        @ packages/umqtt-latest/src/pkgs/umqtt_pkgs_decode.c:195:24
	strh	r0, [r4]
	.loc	1 198 2                         @ packages/umqtt-latest/src/pkgs/umqtt_pkgs_decode.c:198:2
	cmp	r1, r7
	mov.w	r0, #0
	.loc	1 197 26                        @ packages/umqtt-latest/src/pkgs/umqtt_pkgs_decode.c:197:26
	strb	r0, [r4, #6]
	.loc	1 198 2                         @ packages/umqtt-latest/src/pkgs/umqtt_pkgs_decode.c:198:2
	bhs	.LBB5_4
.Ltmp65:
@ %bb.6:
	@DEBUG_VALUE: umqtt_suback_decode:enddata <- $r7
	@DEBUG_VALUE: umqtt_suback_decode:rc <- $r5
	@DEBUG_VALUE: umqtt_suback_decode:suback_msg <- $r4
	@DEBUG_VALUE: umqtt_suback_decode:curdata <- $r1
	@DEBUG_VALUE: umqtt_suback_decode:buf <- [DW_OP_LLVM_entry_value 1] $r1
	.loc	1 0 2 is_stmt 0                 @ packages/umqtt-latest/src/pkgs/umqtt_pkgs_decode.c:0:2
	add	r6, sp, #8
.Ltmp66:
	.p2align	2
.LBB5_7:                                @ =>This Inner Loop Header: Depth=1
	@DEBUG_VALUE: umqtt_suback_decode:enddata <- $r7
	@DEBUG_VALUE: umqtt_suback_decode:rc <- $r5
	@DEBUG_VALUE: umqtt_suback_decode:suback_msg <- $r4
	@DEBUG_VALUE: umqtt_suback_decode:buf <- [DW_OP_LLVM_entry_value 1] $r1
	.loc	1 200 19 is_stmt 1              @ packages/umqtt-latest/src/pkgs/umqtt_pkgs_decode.c:200:19
	ldrb	r0, [r4, #6]
.Ltmp67:
	.loc	1 200 7 is_stmt 0               @ packages/umqtt-latest/src/pkgs/umqtt_pkgs_decode.c:200:7
	cmp	r0, #4
	bhi	.LBB5_9
.Ltmp68:
@ %bb.8:                                @   in Loop: Header=BB5_7 Depth=1
	@DEBUG_VALUE: umqtt_suback_decode:enddata <- $r7
	@DEBUG_VALUE: umqtt_suback_decode:rc <- $r5
	@DEBUG_VALUE: umqtt_suback_decode:suback_msg <- $r4
	@DEBUG_VALUE: umqtt_suback_decode:buf <- [DW_OP_LLVM_entry_value 1] $r1
	@DEBUG_VALUE: umqtt_suback_decode:curdata <- [DW_OP_plus_uconst 8, DW_OP_deref] $sp
	.loc	1 205 60 is_stmt 1              @ packages/umqtt-latest/src/pkgs/umqtt_pkgs_decode.c:205:60
	mov	r0, r6
	bl	umqtt_readChar
	.loc	1 205 54 is_stmt 0              @ packages/umqtt-latest/src/pkgs/umqtt_pkgs_decode.c:205:54
	ldrb	r1, [r4, #6]
.Ltmp69:
	.loc	1 198 9 is_stmt 1               @ packages/umqtt-latest/src/pkgs/umqtt_pkgs_decode.c:198:9
	ldr	r3, [sp, #8]
.Ltmp70:
	@DEBUG_VALUE: umqtt_suback_decode:curdata <- $r3
	.loc	1 198 2 is_stmt 0               @ packages/umqtt-latest/src/pkgs/umqtt_pkgs_decode.c:198:2
	cmp	r3, r7
.Ltmp71:
	.loc	1 205 54 is_stmt 1              @ packages/umqtt-latest/src/pkgs/umqtt_pkgs_decode.c:205:54
	add.w	r2, r1, #1
	.loc	1 205 9 is_stmt 0               @ packages/umqtt-latest/src/pkgs/umqtt_pkgs_decode.c:205:9
	add	r1, r4
	.loc	1 205 54                        @ packages/umqtt-latest/src/pkgs/umqtt_pkgs_decode.c:205:54
	strb	r2, [r4, #6]
	.loc	1 205 58                        @ packages/umqtt-latest/src/pkgs/umqtt_pkgs_decode.c:205:58
	strb	r0, [r1, #2]
.Ltmp72:
	.loc	1 198 2 is_stmt 1               @ packages/umqtt-latest/src/pkgs/umqtt_pkgs_decode.c:198:2
	blo	.LBB5_7
	b	.LBB5_4
.Ltmp73:
.LBB5_9:
	@DEBUG_VALUE: umqtt_suback_decode:enddata <- $r7
	@DEBUG_VALUE: umqtt_suback_decode:rc <- $r5
	@DEBUG_VALUE: umqtt_suback_decode:suback_msg <- $r4
	@DEBUG_VALUE: umqtt_suback_decode:buf <- [DW_OP_LLVM_entry_value 1] $r1
	.loc	1 0 2 is_stmt 0                 @ packages/umqtt-latest/src/pkgs/umqtt_pkgs_decode.c:0:2
	mov.w	r5, #-1
.Ltmp74:
	b	.LBB5_4
.Lfunc_end5:
	.size	umqtt_suback_decode, .Lfunc_end5-umqtt_suback_decode
	.cfi_endproc
	.cantunwind
	.fnend
                                        @ -- End function
	.section	.text.umqtt_unsuback_decode,"ax",%progbits
	.p2align	3                               @ -- Begin function umqtt_unsuback_decode
	.type	umqtt_unsuback_decode,%function
	.code	16                              @ @umqtt_unsuback_decode
	.thumb_func
umqtt_unsuback_decode:
.Lfunc_begin6:
	.loc	1 223 0 is_stmt 1               @ packages/umqtt-latest/src/pkgs/umqtt_pkgs_decode.c:223:0
	.fnstart
	.cfi_startproc
@ %bb.0:
	@DEBUG_VALUE: umqtt_unsuback_decode:unsuback_msg <- $r0
	@DEBUG_VALUE: umqtt_unsuback_decode:buf <- $r1
	.save	{r4, r5, r6, lr}
	push	{r4, r5, r6, lr}
	.cfi_def_cfa_offset 16
	.cfi_offset lr, -4
	.cfi_offset r6, -8
	.cfi_offset r5, -12
	.cfi_offset r4, -16
	.pad	#8
	sub	sp, #8
	.cfi_def_cfa_offset 24
	mov	r6, r1
	mov	r4, r0
.Ltmp75:
	@DEBUG_VALUE: umqtt_unsuback_decode:unsuback_msg <- $r4
	@DEBUG_VALUE: umqtt_unsuback_decode:curdata <- $r6
	@DEBUG_VALUE: umqtt_unsuback_decode:buflen <- undef
	@DEBUG_VALUE: umqtt_unsuback_decode:buf <- $r6
	@DEBUG_VALUE: umqtt_unsuback_decode:unsuback_msg <- $r4
	.loc	1 224 17 prologue_end           @ packages/umqtt-latest/src/pkgs/umqtt_pkgs_decode.c:224:17
	str	r1, [sp, #4]
.Ltmp76:
	@DEBUG_VALUE: umqtt_unsuback_decode:mylen <- [DW_OP_deref] $sp
	@DEBUG_VALUE: umqtt_unsuback_decode:rc <- 0
	@DEBUG_VALUE: umqtt_unsuback_decode:enddata <- 0
	.loc	1 0 17 is_stmt 0                @ packages/umqtt-latest/src/pkgs/umqtt_pkgs_decode.c:0:17
	mov	r1, sp
	.loc	1 229 19 is_stmt 1              @ packages/umqtt-latest/src/pkgs/umqtt_pkgs_decode.c:229:19
	mov	r0, r6
	bl	umqtt_pkgs_decodeBuf
	.loc	1 230 22                        @ packages/umqtt-latest/src/pkgs/umqtt_pkgs_decode.c:230:22
	ldr	r1, [sp]
.Ltmp77:
	@DEBUG_VALUE: umqtt_unsuback_decode:mylen <- $r1
	@DEBUG_VALUE: umqtt_unsuback_decode:enddata <- undef
	.loc	1 229 19                        @ packages/umqtt-latest/src/pkgs/umqtt_pkgs_decode.c:229:19
	mov	r5, r0
.Ltmp78:
	@DEBUG_VALUE: umqtt_unsuback_decode:rc <- $r5
	.loc	1 232 6                         @ packages/umqtt-latest/src/pkgs/umqtt_pkgs_decode.c:232:6
	cmp	r1, #2
	.loc	1 229 10                        @ packages/umqtt-latest/src/pkgs/umqtt_pkgs_decode.c:229:10
	add	r0, r6
.Ltmp79:
	@DEBUG_VALUE: umqtt_unsuback_decode:curdata <- $r0
	str	r0, [sp, #4]
	.loc	1 232 6                         @ packages/umqtt-latest/src/pkgs/umqtt_pkgs_decode.c:232:6
	bge	.LBB6_2
.Ltmp80:
@ %bb.1:
	@DEBUG_VALUE: umqtt_unsuback_decode:buf <- $r6
	@DEBUG_VALUE: umqtt_unsuback_decode:rc <- $r5
	@DEBUG_VALUE: umqtt_unsuback_decode:unsuback_msg <- $r4
	@DEBUG_VALUE: umqtt_unsuback_decode:mylen <- $r1
	@DEBUG_VALUE: umqtt_unsuback_decode:curdata <- $r0
	.loc	1 0 6 is_stmt 0                 @ packages/umqtt-latest/src/pkgs/umqtt_pkgs_decode.c:0:6
	mvn	r5, #4
.Ltmp81:
	b	.LBB6_3
.Ltmp82:
.LBB6_2:
	@DEBUG_VALUE: umqtt_unsuback_decode:buf <- $r6
	@DEBUG_VALUE: umqtt_unsuback_decode:rc <- $r5
	@DEBUG_VALUE: umqtt_unsuback_decode:unsuback_msg <- $r4
	@DEBUG_VALUE: umqtt_unsuback_decode:mylen <- $r1
	@DEBUG_VALUE: umqtt_unsuback_decode:curdata <- $r0
	@DEBUG_VALUE: umqtt_unsuback_decode:curdata <- [DW_OP_plus_uconst 4, DW_OP_deref] $sp
	add	r0, sp, #4
	.loc	1 237 28 is_stmt 1              @ packages/umqtt-latest/src/pkgs/umqtt_pkgs_decode.c:237:28
	bl	umqtt_readInt
.Ltmp83:
	.loc	1 237 26 is_stmt 0              @ packages/umqtt-latest/src/pkgs/umqtt_pkgs_decode.c:237:26
	strh	r0, [r4]
.Ltmp84:
.LBB6_3:
	@DEBUG_VALUE: umqtt_unsuback_decode:buf <- $r6
	@DEBUG_VALUE: umqtt_unsuback_decode:unsuback_msg <- $r4
	@DEBUG_VALUE: umqtt_unsuback_decode:rc <- $r5
	@DEBUG_LABEL: umqtt_unsuback_decode:exit
	.loc	1 240 2 is_stmt 1               @ packages/umqtt-latest/src/pkgs/umqtt_pkgs_decode.c:240:2
	mov	r0, r5
	add	sp, #8
	pop	{r4, r5, r6, pc}
.Ltmp85:
.Lfunc_end6:
	.size	umqtt_unsuback_decode, .Lfunc_end6-umqtt_unsuback_decode
	.cfi_endproc
	.cantunwind
	.fnend
                                        @ -- End function
	.section	.text.umqtt_pkgs_decodeBuf,"ax",%progbits
	.p2align	3                               @ -- Begin function umqtt_pkgs_decodeBuf
	.type	umqtt_pkgs_decodeBuf,%function
	.code	16                              @ @umqtt_pkgs_decodeBuf
	.thumb_func
umqtt_pkgs_decodeBuf:
.Lfunc_begin7:
	.loc	1 35 0                          @ packages/umqtt-latest/src/pkgs/umqtt_pkgs_decode.c:35:0
	.fnstart
	.cfi_startproc
@ %bb.0:
	@DEBUG_VALUE: umqtt_pkgs_decodeBuf:buf <- $r0
	@DEBUG_VALUE: umqtt_pkgs_decodeBuf:value <- $r1
	.save	{r7, lr}
	push	{r7, lr}
	.cfi_def_cfa_offset 8
	.cfi_offset lr, -4
	.cfi_offset r7, -8
.Ltmp86:
	.loc	1 36 9 prologue_end             @ packages/umqtt-latest/src/pkgs/umqtt_pkgs_decode.c:36:9
	movw	r2, :lower16:bufptr
	movt	r2, :upper16:bufptr
	@DEBUG_VALUE: umqtt_pkgs_decodeBuf:value <- $r1
	@DEBUG_VALUE: umqtt_pkgs_decodeBuf:buf <- $r0
	str	r0, [r2]
	.loc	1 37 9                          @ packages/umqtt-latest/src/pkgs/umqtt_pkgs_decode.c:37:9
	mov	r0, r1
.Ltmp87:
	@DEBUG_VALUE: umqtt_pkgs_decodeBuf:buf <- [DW_OP_LLVM_entry_value 1] $r0
	@DEBUG_VALUE: umqtt_pkgs_decodeBuf:value <- $r0
	bl	umqtt_pkgs_decode
.Ltmp88:
	.loc	1 37 2 is_stmt 0                @ packages/umqtt-latest/src/pkgs/umqtt_pkgs_decode.c:37:2
	pop	{r7, pc}
.Ltmp89:
.Lfunc_end7:
	.size	umqtt_pkgs_decodeBuf, .Lfunc_end7-umqtt_pkgs_decodeBuf
	.cfi_endproc
	.cantunwind
	.fnend
                                        @ -- End function
	.section	.text.umqtt_pkgs_decode,"ax",%progbits
	.p2align	3                               @ -- Begin function umqtt_pkgs_decode
	.type	umqtt_pkgs_decode,%function
	.code	16                              @ @umqtt_pkgs_decode
	.thumb_func
umqtt_pkgs_decode:
.Lfunc_begin8:
	.loc	2 333 0 is_stmt 1               @ ./packages/umqtt-latest/inc\umqtt_internal.h:333:0
	.fnstart
	.cfi_startproc
@ %bb.0:
	@DEBUG_VALUE: umqtt_pkgs_decode:value <- $r0
	.save	{r4, r5, r6, r7, lr}
	push	{r4, r5, r6, r7, lr}
	.cfi_def_cfa_offset 20
	.cfi_offset lr, -4
	.cfi_offset r7, -8
	.cfi_offset r6, -12
	.cfi_offset r5, -16
	.cfi_offset r4, -20
	.pad	#4
	sub	sp, #4
	.cfi_def_cfa_offset 24
	mov	r4, r0
	movs	r7, #0
.Ltmp90:
	@DEBUG_VALUE: umqtt_pkgs_decode:len <- 0
	@DEBUG_VALUE: umqtt_pkgs_decode:multiplier <- 1
	@DEBUG_VALUE: umqtt_pkgs_decode:value <- $r4
	movs	r6, #1
	@DEBUG_VALUE: umqtt_pkgs_decode:getcharfn <- undef
	add.w	r5, sp, #3
.Ltmp91:
	.loc	2 339 9 prologue_end            @ ./packages/umqtt-latest/inc\umqtt_internal.h:339:9
	str	r7, [r0]
.Ltmp92:
	.p2align	2
.LBB8_1:                                @ =>This Inner Loop Header: Depth=1
	@DEBUG_VALUE: umqtt_pkgs_decode:value <- $r4
	@DEBUG_VALUE: umqtt_pkgs_decode:multiplier <- $r6
	@DEBUG_VALUE: umqtt_pkgs_decode:len <- undef
	@DEBUG_VALUE: rc <- -10
	.loc	2 344 7                         @ ./packages/umqtt-latest/inc\umqtt_internal.h:344:7
	cmp	r7, #3
	bhi	.LBB8_3
.Ltmp93:
@ %bb.2:                                @   in Loop: Header=BB8_1 Depth=1
	@DEBUG_VALUE: umqtt_pkgs_decode:multiplier <- $r6
	@DEBUG_VALUE: umqtt_pkgs_decode:value <- $r4
	@DEBUG_VALUE: rc <- -10
	@DEBUG_VALUE: umqtt_pkgs_decode:c <- [DW_OP_plus_uconst 3, DW_OP_deref] $sp
	.loc	2 349 8                         @ ./packages/umqtt-latest/inc\umqtt_internal.h:349:8
	movs	r1, #1
	mov	r0, r5
	bl	bufchar
.Ltmp94:
	@DEBUG_VALUE: rc <- 1
	.loc	2 352 14                        @ ./packages/umqtt-latest/inc\umqtt_internal.h:352:14
	ldrb.w	r0, [sp, #3]
.Ltmp95:
	@DEBUG_VALUE: umqtt_pkgs_decode:c <- undef
	.loc	2 352 10 is_stmt 0              @ ./packages/umqtt-latest/inc\umqtt_internal.h:352:10
	ldr	r1, [r4]
	.loc	2 352 16                        @ ./packages/umqtt-latest/inc\umqtt_internal.h:352:16
	and	r0, r0, #127
	.loc	2 352 10                        @ ./packages/umqtt-latest/inc\umqtt_internal.h:352:10
	mla	r0, r6, r0, r1
	.loc	2 353 14 is_stmt 1              @ ./packages/umqtt-latest/inc\umqtt_internal.h:353:14
	lsls	r6, r6, #7
.Ltmp96:
	@DEBUG_VALUE: umqtt_pkgs_decode:multiplier <- $r6
	.loc	2 352 10                        @ ./packages/umqtt-latest/inc\umqtt_internal.h:352:10
	str	r0, [r4]
.Ltmp97:
.LBB8_3:                                @   in Loop: Header=BB8_1 Depth=1
	@DEBUG_VALUE: umqtt_pkgs_decode:multiplier <- $r6
	@DEBUG_VALUE: umqtt_pkgs_decode:value <- $r4
	.loc	2 0 10 is_stmt 0                @ ./packages/umqtt-latest/inc\umqtt_internal.h:0:10
	cmp	r7, #3
	add.w	r0, r7, #1
.Ltmp98:
	@DEBUG_VALUE: umqtt_pkgs_decode:c <- undef
	@DEBUG_VALUE: umqtt_pkgs_decode:len <- $r0
	@DEBUG_VALUE: umqtt_pkgs_decode:multiplier <- $r6
	bhi	.LBB8_5
.Ltmp99:
@ %bb.4:                                @   in Loop: Header=BB8_1 Depth=1
	@DEBUG_VALUE: umqtt_pkgs_decode:multiplier <- $r6
	@DEBUG_VALUE: umqtt_pkgs_decode:value <- $r4
	@DEBUG_VALUE: umqtt_pkgs_decode:len <- $r0
	ldrsb.w	r1, [sp, #3]
	mov	r7, r0
	cmp	r1, #0
	bmi	.LBB8_1
.Ltmp100:
.LBB8_5:
	@DEBUG_VALUE: umqtt_pkgs_decode:multiplier <- $r6
	@DEBUG_VALUE: umqtt_pkgs_decode:value <- $r4
	@DEBUG_VALUE: umqtt_pkgs_decode:len <- $r0
	.loc	2 357 1 is_stmt 1               @ ./packages/umqtt-latest/inc\umqtt_internal.h:357:1
	add	sp, #4
	pop	{r4, r5, r6, r7, pc}
.Ltmp101:
.Lfunc_end8:
	.size	umqtt_pkgs_decode, .Lfunc_end8-umqtt_pkgs_decode
	.cfi_endproc
	.cantunwind
	.fnend
                                        @ -- End function
	.section	.text.bufchar,"ax",%progbits
	.p2align	3                               @ -- Begin function bufchar
	.type	bufchar,%function
	.code	16                              @ @bufchar
	.thumb_func
bufchar:
.Lfunc_begin9:
	.loc	1 27 0                          @ packages/umqtt-latest/src/pkgs/umqtt_pkgs_decode.c:27:0
	.fnstart
	.cfi_startproc
@ %bb.0:
	@DEBUG_VALUE: bufchar:c <- $r0
	@DEBUG_VALUE: bufchar:count <- $r1
	.save	{r7, lr}
	push	{r7, lr}
	.cfi_def_cfa_offset 8
	.cfi_offset lr, -4
	.cfi_offset r7, -8
	mov	lr, r1
.Ltmp102:
	@DEBUG_VALUE: bufchar:count <- $lr
	.loc	1 29 2 prologue_end             @ packages/umqtt-latest/src/pkgs/umqtt_pkgs_decode.c:29:2
	cmp	r1, #1
.Ltmp103:
	@DEBUG_VALUE: bufchar:i <- 0
	@DEBUG_VALUE: bufchar:c <- $r0
	blt	.LBB9_4
.Ltmp104:
@ %bb.1:
	@DEBUG_VALUE: bufchar:c <- $r0
	@DEBUG_VALUE: bufchar:count <- $lr
	@DEBUG_VALUE: bufchar:i <- 0
	.loc	1 0 2 is_stmt 0                 @ packages/umqtt-latest/src/pkgs/umqtt_pkgs_decode.c:0:2
	movw	r12, :lower16:bufptr
	mov	r1, lr
	movt	r12, :upper16:bufptr
	ldr.w	r3, [r12]
.Ltmp105:
	.p2align	2
.LBB9_2:                                @ =>This Inner Loop Header: Depth=1
	@DEBUG_VALUE: bufchar:c <- $r0
	@DEBUG_VALUE: bufchar:count <- $lr
	@DEBUG_VALUE: bufchar:i <- undef
	.loc	1 30 8 is_stmt 1                @ packages/umqtt-latest/src/pkgs/umqtt_pkgs_decode.c:30:8
	ldrb	r2, [r3], #1
	.loc	1 29 16                         @ packages/umqtt-latest/src/pkgs/umqtt_pkgs_decode.c:29:16
	subs	r1, #1
	.loc	1 30 6                          @ packages/umqtt-latest/src/pkgs/umqtt_pkgs_decode.c:30:6
	strb	r2, [r0]
.Ltmp106:
	@DEBUG_VALUE: bufchar:i <- [DW_OP_plus_uconst 1, DW_OP_stack_value] undef
	.loc	1 29 2                          @ packages/umqtt-latest/src/pkgs/umqtt_pkgs_decode.c:29:2
	bne	.LBB9_2
.Ltmp107:
@ %bb.3:
	@DEBUG_VALUE: bufchar:c <- $r0
	@DEBUG_VALUE: bufchar:count <- $lr
	.loc	1 30 15                         @ packages/umqtt-latest/src/pkgs/umqtt_pkgs_decode.c:30:15
	str.w	r3, [r12]
.Ltmp108:
.LBB9_4:
	@DEBUG_VALUE: bufchar:c <- $r0
	@DEBUG_VALUE: bufchar:count <- $lr
	.loc	1 31 2                          @ packages/umqtt-latest/src/pkgs/umqtt_pkgs_decode.c:31:2
	mov	r0, lr
.Ltmp109:
	@DEBUG_VALUE: bufchar:c <- [DW_OP_LLVM_entry_value 1] $r0
	pop	{r7, pc}
.Ltmp110:
.Lfunc_end9:
	.size	bufchar, .Lfunc_end9-bufchar
	.cfi_endproc
	.cantunwind
	.fnend
                                        @ -- End function
	.section	.text.MQTTDeserialize_publish,"ax",%progbits
	.p2align	3                               @ -- Begin function MQTTDeserialize_publish
	.type	MQTTDeserialize_publish,%function
	.code	16                              @ @MQTTDeserialize_publish
	.thumb_func
MQTTDeserialize_publish:
.Lfunc_begin10:
	.loc	1 41 0                          @ packages/umqtt-latest/src/pkgs/umqtt_pkgs_decode.c:41:0
	.fnstart
	.cfi_startproc
@ %bb.0:
	@DEBUG_VALUE: MQTTDeserialize_publish:pub_msg <- $r0
	@DEBUG_VALUE: MQTTDeserialize_publish:buf <- $r1
	.save	{r4, r5, r6, lr}
	push	{r4, r5, r6, lr}
	.cfi_def_cfa_offset 16
	.cfi_offset lr, -4
	.cfi_offset r6, -8
	.cfi_offset r5, -12
	.cfi_offset r4, -16
	.pad	#8
	sub	sp, #8
	.cfi_def_cfa_offset 24
	mov	r4, r0
.Ltmp111:
	@DEBUG_VALUE: MQTTDeserialize_publish:pub_msg <- $r4
	@DEBUG_VALUE: MQTTDeserialize_publish:curdata <- $r1
	@DEBUG_VALUE: MQTTDeserialize_publish:buflen <- undef
	@DEBUG_VALUE: MQTTDeserialize_publish:buf <- $r1
	@DEBUG_VALUE: MQTTDeserialize_publish:pub_msg <- $r4
	movs	r0, #0
.Ltmp112:
	@DEBUG_VALUE: MQTTDeserialize_publish:mylen <- 0
	.loc	1 45 9 prologue_end             @ packages/umqtt-latest/src/pkgs/umqtt_pkgs_decode.c:45:9
	str	r0, [sp]
.Ltmp113:
	@DEBUG_VALUE: MQTTDeserialize_publish:curdata <- [DW_OP_plus_uconst 4, DW_OP_deref] $sp
	.loc	1 0 9 is_stmt 0                 @ packages/umqtt-latest/src/pkgs/umqtt_pkgs_decode.c:0:9
	add	r0, sp, #4
	.loc	1 42 20 is_stmt 1               @ packages/umqtt-latest/src/pkgs/umqtt_pkgs_decode.c:42:20
	str	r1, [sp, #4]
.Ltmp114:
	@DEBUG_VALUE: MQTTDeserialize_publish:rc <- 0
	@DEBUG_VALUE: MQTTDeserialize_publish:enddata <- 0
	.loc	1 47 28                         @ packages/umqtt-latest/src/pkgs/umqtt_pkgs_decode.c:47:28
	bl	umqtt_readChar
.Ltmp115:
	@DEBUG_VALUE: MQTTDeserialize_publish:buf <- [DW_OP_LLVM_entry_value 1] $r1
	.loc	1 48 35                         @ packages/umqtt-latest/src/pkgs/umqtt_pkgs_decode.c:48:35
	bic	r1, r0, #15
.Ltmp116:
	.loc	1 47 26                         @ packages/umqtt-latest/src/pkgs/umqtt_pkgs_decode.c:47:26
	strb	r0, [r4]
	.loc	1 48 9                          @ packages/umqtt-latest/src/pkgs/umqtt_pkgs_decode.c:48:9
	cmp	r1, #48
	bne	.LBB10_6
.Ltmp117:
@ %bb.1:
	@DEBUG_VALUE: MQTTDeserialize_publish:pub_msg <- $r4
	@DEBUG_VALUE: MQTTDeserialize_publish:curdata <- [DW_OP_plus_uconst 4, DW_OP_deref] $sp
	@DEBUG_VALUE: MQTTDeserialize_publish:buf <- [DW_OP_LLVM_entry_value 1] $r1
	@DEBUG_VALUE: MQTTDeserialize_publish:enddata <- 0
	@DEBUG_VALUE: MQTTDeserialize_publish:rc <- 0
	@DEBUG_VALUE: MQTTDeserialize_publish:mylen <- 0
	.loc	1 55 43                         @ packages/umqtt-latest/src/pkgs/umqtt_pkgs_decode.c:55:43
	ldr	r6, [sp, #4]
.Ltmp118:
	@DEBUG_VALUE: MQTTDeserialize_publish:mylen <- [DW_OP_deref] $sp
	@DEBUG_VALUE: MQTTDeserialize_publish:curdata <- $r6
	.loc	1 0 43 is_stmt 0                @ packages/umqtt-latest/src/pkgs/umqtt_pkgs_decode.c:0:43
	mov	r1, sp
	.loc	1 55 22                         @ packages/umqtt-latest/src/pkgs/umqtt_pkgs_decode.c:55:22
	mov	r0, r6
	bl	umqtt_pkgs_decodeBuf
	mov	r5, r0
.Ltmp119:
	@DEBUG_VALUE: MQTTDeserialize_publish:rc <- $r5
	.loc	1 55 13                         @ packages/umqtt-latest/src/pkgs/umqtt_pkgs_decode.c:55:13
	add	r0, r6
.Ltmp120:
	@DEBUG_VALUE: MQTTDeserialize_publish:curdata <- $r0
	.loc	1 56 25 is_stmt 1               @ packages/umqtt-latest/src/pkgs/umqtt_pkgs_decode.c:56:25
	ldr	r1, [sp]
.Ltmp121:
	@DEBUG_VALUE: MQTTDeserialize_publish:mylen <- $r1
	.loc	1 55 13                         @ packages/umqtt-latest/src/pkgs/umqtt_pkgs_decode.c:55:13
	str	r0, [sp, #4]
	.loc	1 56 23                         @ packages/umqtt-latest/src/pkgs/umqtt_pkgs_decode.c:56:23
	adds	r6, r0, r1
.Ltmp122:
	@DEBUG_VALUE: MQTTDeserialize_publish:enddata <- $r6
	.loc	1 58 48                         @ packages/umqtt-latest/src/pkgs/umqtt_pkgs_decode.c:58:48
	add.w	r0, r4, #8
.Ltmp123:
	.loc	1 58 100 is_stmt 0              @ packages/umqtt-latest/src/pkgs/umqtt_pkgs_decode.c:58:100
	add.w	r1, r4, #12
.Ltmp124:
	@DEBUG_VALUE: MQTTDeserialize_publish:curdata <- [DW_OP_plus_uconst 4, DW_OP_deref] $sp
	.loc	1 0 100                         @ packages/umqtt-latest/src/pkgs/umqtt_pkgs_decode.c:0:100
	add	r2, sp, #4
	.loc	1 58 10                         @ packages/umqtt-latest/src/pkgs/umqtt_pkgs_decode.c:58:10
	mov	r3, r6
	bl	umqtt_readlenstring
	.loc	1 59 6 is_stmt 1                @ packages/umqtt-latest/src/pkgs/umqtt_pkgs_decode.c:59:6
	cbz	r0, .LBB10_7
.Ltmp125:
@ %bb.2:
	@DEBUG_VALUE: MQTTDeserialize_publish:enddata <- $r6
	@DEBUG_VALUE: MQTTDeserialize_publish:rc <- $r5
	@DEBUG_VALUE: MQTTDeserialize_publish:pub_msg <- $r4
	@DEBUG_VALUE: MQTTDeserialize_publish:curdata <- [DW_OP_plus_uconst 4, DW_OP_deref] $sp
	@DEBUG_VALUE: MQTTDeserialize_publish:buf <- [DW_OP_LLVM_entry_value 1] $r1
	.loc	1 59 20 is_stmt 0               @ packages/umqtt-latest/src/pkgs/umqtt_pkgs_decode.c:59:20
	ldr	r0, [sp, #4]
.Ltmp126:
	@DEBUG_VALUE: MQTTDeserialize_publish:curdata <- $r0
	.loc	1 59 18                         @ packages/umqtt-latest/src/pkgs/umqtt_pkgs_decode.c:59:18
	subs	r0, r6, r0
.Ltmp127:
	.loc	1 58 9 is_stmt 1                @ packages/umqtt-latest/src/pkgs/umqtt_pkgs_decode.c:58:9
	cmp.w	r0, #-1
	ble	.LBB10_7
.Ltmp128:
@ %bb.3:
	@DEBUG_VALUE: MQTTDeserialize_publish:enddata <- $r6
	@DEBUG_VALUE: MQTTDeserialize_publish:rc <- $r5
	@DEBUG_VALUE: MQTTDeserialize_publish:pub_msg <- $r4
	@DEBUG_VALUE: MQTTDeserialize_publish:buf <- [DW_OP_LLVM_entry_value 1] $r1
	.loc	1 66 30                         @ packages/umqtt-latest/src/pkgs/umqtt_pkgs_decode.c:66:30
	ldrb	r0, [r4]
.Ltmp129:
	.loc	1 66 9 is_stmt 0                @ packages/umqtt-latest/src/pkgs/umqtt_pkgs_decode.c:66:9
	tst.w	r0, #6
	beq	.LBB10_5
.Ltmp130:
@ %bb.4:
	@DEBUG_VALUE: MQTTDeserialize_publish:enddata <- $r6
	@DEBUG_VALUE: MQTTDeserialize_publish:rc <- $r5
	@DEBUG_VALUE: MQTTDeserialize_publish:pub_msg <- $r4
	@DEBUG_VALUE: MQTTDeserialize_publish:buf <- [DW_OP_LLVM_entry_value 1] $r1
	@DEBUG_VALUE: MQTTDeserialize_publish:curdata <- [DW_OP_plus_uconst 4, DW_OP_deref] $sp
	.loc	1 0 9                           @ packages/umqtt-latest/src/pkgs/umqtt_pkgs_decode.c:0:9
	add	r0, sp, #4
.Ltmp131:
	.loc	1 67 42 is_stmt 1               @ packages/umqtt-latest/src/pkgs/umqtt_pkgs_decode.c:67:42
	bl	umqtt_readInt
	.loc	1 67 40 is_stmt 0               @ packages/umqtt-latest/src/pkgs/umqtt_pkgs_decode.c:67:40
	strh	r0, [r4, #16]
.Ltmp132:
.LBB10_5:
	@DEBUG_VALUE: MQTTDeserialize_publish:enddata <- $r6
	@DEBUG_VALUE: MQTTDeserialize_publish:rc <- $r5
	@DEBUG_VALUE: MQTTDeserialize_publish:pub_msg <- $r4
	@DEBUG_VALUE: MQTTDeserialize_publish:buf <- [DW_OP_LLVM_entry_value 1] $r1
	.loc	1 69 50 is_stmt 1               @ packages/umqtt-latest/src/pkgs/umqtt_pkgs_decode.c:69:50
	ldr	r0, [sp, #4]
.Ltmp133:
	@DEBUG_VALUE: MQTTDeserialize_publish:curdata <- $r0
	.loc	1 70 34                         @ packages/umqtt-latest/src/pkgs/umqtt_pkgs_decode.c:70:34
	str	r0, [r4, #20]
	.loc	1 69 48                         @ packages/umqtt-latest/src/pkgs/umqtt_pkgs_decode.c:69:48
	subs	r0, r6, r0
.Ltmp134:
	@DEBUG_VALUE: MQTTDeserialize_publish:curdata <- undef
	.loc	1 69 38 is_stmt 0               @ packages/umqtt-latest/src/pkgs/umqtt_pkgs_decode.c:69:38
	str	r0, [r4, #24]
	b	.LBB10_8
.Ltmp135:
.LBB10_6:
	@DEBUG_VALUE: MQTTDeserialize_publish:pub_msg <- $r4
	@DEBUG_VALUE: MQTTDeserialize_publish:curdata <- [DW_OP_plus_uconst 4, DW_OP_deref] $sp
	@DEBUG_VALUE: MQTTDeserialize_publish:buf <- [DW_OP_LLVM_entry_value 1] $r1
	@DEBUG_VALUE: MQTTDeserialize_publish:enddata <- 0
	@DEBUG_VALUE: MQTTDeserialize_publish:rc <- 0
	@DEBUG_VALUE: MQTTDeserialize_publish:mylen <- 0
	.loc	1 50 9 is_stmt 1                @ packages/umqtt-latest/src/pkgs/umqtt_pkgs_decode.c:50:9
	movw	r0, :lower16:.L.str
	movt	r0, :upper16:.L.str
	bl	rt_kprintf
	ldrb	r0, [r4]
	lsrs	r1, r0, #4
	adr	r0, .LCPI10_0
	bl	rt_kprintf
	movw	r0, :lower16:.L.str.2
	movt	r0, :upper16:.L.str.2
	bl	rt_kprintf
	mvn	r5, #4
.Ltmp136:
	@DEBUG_VALUE: MQTTDeserialize_publish:rc <- -5
	.loc	1 52 9                          @ packages/umqtt-latest/src/pkgs/umqtt_pkgs_decode.c:52:9
	b	.LBB10_8
.Ltmp137:
.LBB10_7:
	@DEBUG_VALUE: MQTTDeserialize_publish:enddata <- $r6
	@DEBUG_VALUE: MQTTDeserialize_publish:rc <- $r5
	@DEBUG_VALUE: MQTTDeserialize_publish:pub_msg <- $r4
	@DEBUG_VALUE: MQTTDeserialize_publish:buf <- [DW_OP_LLVM_entry_value 1] $r1
	.loc	1 61 9                          @ packages/umqtt-latest/src/pkgs/umqtt_pkgs_decode.c:61:9
	movw	r0, :lower16:.L.str
	movt	r0, :upper16:.L.str
	bl	rt_kprintf
	adr	r0, .LCPI10_1
	bl	rt_kprintf
	movw	r0, :lower16:.L.str.2
	movt	r0, :upper16:.L.str.2
	bl	rt_kprintf
	mvn	r5, #4
.Ltmp138:
	@DEBUG_VALUE: MQTTDeserialize_publish:rc <- -5
.LBB10_8:
	@DEBUG_VALUE: MQTTDeserialize_publish:pub_msg <- $r4
	@DEBUG_VALUE: MQTTDeserialize_publish:buf <- [DW_OP_LLVM_entry_value 1] $r1
	@DEBUG_VALUE: MQTTDeserialize_publish:rc <- $r5
	@DEBUG_LABEL: MQTTDeserialize_publish:exit
	.loc	1 72 5                          @ packages/umqtt-latest/src/pkgs/umqtt_pkgs_decode.c:72:5
	mov	r0, r5
	add	sp, #8
	pop	{r4, r5, r6, pc}
.Ltmp139:
	.p2align	2
@ %bb.9:
	.loc	1 0 5 is_stmt 0                 @ packages/umqtt-latest/src/pkgs/umqtt_pkgs_decode.c:0:5
.LCPI10_0:
.L.str.4:
	.asciz	" decode datas, is not publish type! type:%d"
.LCPI10_1:
.L.str.5:
	.asciz	" decode publish, topic name error!\000"
.Lfunc_end10:
	.size	MQTTDeserialize_publish, .Lfunc_end10-MQTTDeserialize_publish
	.cfi_endproc
	.cantunwind
	.fnend
                                        @ -- End function
	.section	.text.umqtt_readlenstring,"ax",%progbits
	.p2align	3                               @ -- Begin function umqtt_readlenstring
	.type	umqtt_readlenstring,%function
	.code	16                              @ @umqtt_readlenstring
	.thumb_func
umqtt_readlenstring:
.Lfunc_begin11:
	.loc	2 302 0 is_stmt 1               @ ./packages/umqtt-latest/inc\umqtt_internal.h:302:0
	.fnstart
	.cfi_startproc
@ %bb.0:
	@DEBUG_VALUE: umqtt_readlenstring:str_len <- $r0
	@DEBUG_VALUE: umqtt_readlenstring:p_string <- $r1
	@DEBUG_VALUE: umqtt_readlenstring:pptr <- $r2
	@DEBUG_VALUE: umqtt_readlenstring:enddata <- $r3
	.save	{r4, r5, r6, r7, lr}
	push	{r4, r5, r6, r7, lr}
	.cfi_def_cfa_offset 20
	.cfi_offset lr, -4
	.cfi_offset r7, -8
	.cfi_offset r6, -12
	.cfi_offset r5, -16
	.cfi_offset r4, -20
	.pad	#4
	sub	sp, #4
	.cfi_def_cfa_offset 24
	mov	r4, r2
.Ltmp140:
	@DEBUG_VALUE: umqtt_readlenstring:pptr <- $r4
	.loc	2 305 20 prologue_end           @ ./packages/umqtt-latest/inc\umqtt_internal.h:305:20
	ldr	r2, [r2]
	@DEBUG_VALUE: umqtt_readlenstring:enddata <- $r3
	.loc	2 305 17 is_stmt 0              @ ./packages/umqtt-latest/inc\umqtt_internal.h:305:17
	subs	r2, r3, r2
.Ltmp141:
	.loc	2 305 9                         @ ./packages/umqtt-latest/inc\umqtt_internal.h:305:9
	cmp	r2, #2
	@DEBUG_VALUE: umqtt_readlenstring:p_string <- $r1
.Ltmp142:
	@DEBUG_VALUE: umqtt_readlenstring:rc <- 0
	@DEBUG_VALUE: umqtt_readlenstring:str_len <- $r0
	blt	.LBB11_2
.Ltmp143:
@ %bb.1:
	@DEBUG_VALUE: umqtt_readlenstring:pptr <- $r4
	@DEBUG_VALUE: umqtt_readlenstring:enddata <- $r3
	@DEBUG_VALUE: umqtt_readlenstring:p_string <- $r1
	@DEBUG_VALUE: umqtt_readlenstring:str_len <- $r0
	@DEBUG_VALUE: umqtt_readlenstring:rc <- 0
	.loc	2 0 9                           @ ./packages/umqtt-latest/inc\umqtt_internal.h:0:9
	mov	r7, r0
.Ltmp144:
	@DEBUG_VALUE: umqtt_readlenstring:str_len <- $r7
	@DEBUG_VALUE: umqtt_readlenstring:str_len <- $r7
	.loc	2 307 20 is_stmt 1              @ ./packages/umqtt-latest/inc\umqtt_internal.h:307:20
	mov	r0, r4
	mov	r6, r3
.Ltmp145:
	@DEBUG_VALUE: umqtt_readlenstring:enddata <- $r6
	@DEBUG_VALUE: umqtt_readlenstring:enddata <- $r6
	.loc	2 0 20 is_stmt 0                @ ./packages/umqtt-latest/inc\umqtt_internal.h:0:20
	mov	r5, r1
.Ltmp146:
	@DEBUG_VALUE: umqtt_readlenstring:p_string <- $r5
	@DEBUG_VALUE: umqtt_readlenstring:p_string <- $r5
	.loc	2 307 20                        @ ./packages/umqtt-latest/inc\umqtt_internal.h:307:20
	bl	umqtt_readInt
.Ltmp147:
	.loc	2 308 15 is_stmt 1              @ ./packages/umqtt-latest/inc\umqtt_internal.h:308:15
	ldr	r1, [r4]
.Ltmp148:
	.loc	2 307 18                        @ ./packages/umqtt-latest/inc\umqtt_internal.h:307:18
	str	r0, [r7]
.Ltmp149:
	.loc	2 308 14                        @ ./packages/umqtt-latest/inc\umqtt_internal.h:308:14
	adds	r2, r1, r0
.Ltmp150:
	.loc	2 308 13 is_stmt 0              @ ./packages/umqtt-latest/inc\umqtt_internal.h:308:13
	cmp	r2, r6
	bls	.LBB11_3
.Ltmp151:
.LBB11_2:
	@DEBUG_VALUE: umqtt_readlenstring:pptr <- $r4
	@DEBUG_VALUE: umqtt_readlenstring:rc <- 0
	.loc	2 0 13                          @ ./packages/umqtt-latest/inc\umqtt_internal.h:0:13
	movs	r0, #0
.Ltmp152:
	@DEBUG_VALUE: umqtt_readlenstring:rc <- $r0
	.loc	2 315 5 is_stmt 1               @ ./packages/umqtt-latest/inc\umqtt_internal.h:315:5
	add	sp, #4
	pop	{r4, r5, r6, r7, pc}
.Ltmp153:
.LBB11_3:
	@DEBUG_VALUE: umqtt_readlenstring:str_len <- $r7
	@DEBUG_VALUE: umqtt_readlenstring:enddata <- $r6
	@DEBUG_VALUE: umqtt_readlenstring:p_string <- $r5
	@DEBUG_VALUE: umqtt_readlenstring:pptr <- $r4
	@DEBUG_VALUE: umqtt_readlenstring:rc <- 0
	.loc	2 310 23                        @ ./packages/umqtt-latest/inc\umqtt_internal.h:310:23
	str	r1, [r5]
	.loc	2 311 19                        @ ./packages/umqtt-latest/inc\umqtt_internal.h:311:19
	ldr	r1, [r4]
	add	r0, r1
	str	r0, [r4]
	movs	r0, #1
.Ltmp154:
	@DEBUG_VALUE: umqtt_readlenstring:rc <- 1
	@DEBUG_VALUE: umqtt_readlenstring:rc <- $r0
	.loc	2 315 5                         @ ./packages/umqtt-latest/inc\umqtt_internal.h:315:5
	add	sp, #4
	pop	{r4, r5, r6, r7, pc}
.Ltmp155:
.Lfunc_end11:
	.size	umqtt_readlenstring, .Lfunc_end11-umqtt_readlenstring
	.cfi_endproc
	.cantunwind
	.fnend
                                        @ -- End function
	.section	.text.umqtt_readInt,"ax",%progbits
	.p2align	3                               @ -- Begin function umqtt_readInt
	.type	umqtt_readInt,%function
	.code	16                              @ @umqtt_readInt
	.thumb_func
umqtt_readInt:
.Lfunc_begin12:
	.loc	2 266 0                         @ ./packages/umqtt-latest/inc\umqtt_internal.h:266:0
	.fnstart
	.cfi_startproc
@ %bb.0:
	@DEBUG_VALUE: umqtt_readInt:pptr <- $r0
	@DEBUG_VALUE: umqtt_readInt:pptr <- $r0
	.loc	2 267 23 prologue_end           @ ./packages/umqtt-latest/inc\umqtt_internal.h:267:23
	ldr	r2, [r0]
.Ltmp156:
	@DEBUG_VALUE: umqtt_readInt:ptr <- $r2
	.loc	2 268 23                        @ ./packages/umqtt-latest/inc\umqtt_internal.h:268:23
	ldrh	r1, [r2], #2
.Ltmp157:
	.loc	2 269 8                         @ ./packages/umqtt-latest/inc\umqtt_internal.h:269:8
	str	r2, [r0]
	.loc	2 268 23                        @ ./packages/umqtt-latest/inc\umqtt_internal.h:268:23
	lsls	r1, r1, #16
	rev	r1, r1
.Ltmp158:
	@DEBUG_VALUE: umqtt_readInt:len <- $r1
	.loc	2 270 2                         @ ./packages/umqtt-latest/inc\umqtt_internal.h:270:2
	mov	r0, r1
.Ltmp159:
	@DEBUG_VALUE: umqtt_readInt:pptr <- [DW_OP_LLVM_entry_value 1] $r0
	bx	lr
.Ltmp160:
.Lfunc_end12:
	.size	umqtt_readInt, .Lfunc_end12-umqtt_readInt
	.cfi_endproc
	.cantunwind
	.fnend
                                        @ -- End function
	.section	.text.MQTTDeserialize_ack,"ax",%progbits
	.p2align	3                               @ -- Begin function MQTTDeserialize_ack
	.type	MQTTDeserialize_ack,%function
	.code	16                              @ @MQTTDeserialize_ack
	.thumb_func
MQTTDeserialize_ack:
.Lfunc_begin13:
	.loc	1 76 0                          @ packages/umqtt-latest/src/pkgs/umqtt_pkgs_decode.c:76:0
	.fnstart
	.cfi_startproc
@ %bb.0:
	@DEBUG_VALUE: MQTTDeserialize_ack:puback_msg <- $r0
	@DEBUG_VALUE: MQTTDeserialize_ack:buf <- $r1
	.save	{r4, r5, r6, lr}
	push	{r4, r5, r6, lr}
	.cfi_def_cfa_offset 16
	.cfi_offset lr, -4
	.cfi_offset r6, -8
	.cfi_offset r5, -12
	.cfi_offset r4, -16
	.pad	#8
	sub	sp, #8
	.cfi_def_cfa_offset 24
	mov	r4, r0
.Ltmp161:
	@DEBUG_VALUE: MQTTDeserialize_ack:puback_msg <- $r4
	@DEBUG_VALUE: MQTTDeserialize_ack:curdata <- $r1
	@DEBUG_VALUE: MQTTDeserialize_ack:buflen <- undef
	@DEBUG_VALUE: MQTTDeserialize_ack:buf <- $r1
	@DEBUG_VALUE: MQTTDeserialize_ack:puback_msg <- $r4
	add	r0, sp, #4
.Ltmp162:
	.loc	1 77 20 prologue_end            @ packages/umqtt-latest/src/pkgs/umqtt_pkgs_decode.c:77:20
	str	r1, [sp, #4]
.Ltmp163:
	@DEBUG_VALUE: MQTTDeserialize_ack:rc <- 0
	@DEBUG_VALUE: MQTTDeserialize_ack:enddata <- 0
	@DEBUG_VALUE: MQTTDeserialize_ack:curdata <- [DW_OP_plus_uconst 4, DW_OP_deref] $sp
	.loc	1 82 31                         @ packages/umqtt-latest/src/pkgs/umqtt_pkgs_decode.c:82:31
	bl	umqtt_readChar
.Ltmp164:
	@DEBUG_VALUE: MQTTDeserialize_ack:buf <- [DW_OP_LLVM_entry_value 1] $r1
	.loc	1 84 43                         @ packages/umqtt-latest/src/pkgs/umqtt_pkgs_decode.c:84:43
	ldr	r6, [sp, #4]
.Ltmp165:
	@DEBUG_VALUE: MQTTDeserialize_ack:mylen <- [DW_OP_deref] $sp
	@DEBUG_VALUE: MQTTDeserialize_ack:curdata <- $r6
	.loc	1 82 29                         @ packages/umqtt-latest/src/pkgs/umqtt_pkgs_decode.c:82:29
	strb	r0, [r4]
	mov	r1, sp
	.loc	1 84 22                         @ packages/umqtt-latest/src/pkgs/umqtt_pkgs_decode.c:84:22
	mov	r0, r6
	bl	umqtt_pkgs_decodeBuf
	.loc	1 85 25                         @ packages/umqtt-latest/src/pkgs/umqtt_pkgs_decode.c:85:25
	ldr	r1, [sp]
.Ltmp166:
	@DEBUG_VALUE: MQTTDeserialize_ack:mylen <- $r1
	@DEBUG_VALUE: MQTTDeserialize_ack:enddata <- undef
	.loc	1 84 22                         @ packages/umqtt-latest/src/pkgs/umqtt_pkgs_decode.c:84:22
	mov	r5, r0
.Ltmp167:
	@DEBUG_VALUE: MQTTDeserialize_ack:rc <- $r5
	.loc	1 87 9                          @ packages/umqtt-latest/src/pkgs/umqtt_pkgs_decode.c:87:9
	cmp	r1, #2
	.loc	1 84 13                         @ packages/umqtt-latest/src/pkgs/umqtt_pkgs_decode.c:84:13
	add	r0, r6
.Ltmp168:
	@DEBUG_VALUE: MQTTDeserialize_ack:curdata <- $r0
	str	r0, [sp, #4]
	.loc	1 87 9                          @ packages/umqtt-latest/src/pkgs/umqtt_pkgs_decode.c:87:9
	bge	.LBB13_2
.Ltmp169:
@ %bb.1:
	@DEBUG_VALUE: MQTTDeserialize_ack:rc <- $r5
	@DEBUG_VALUE: MQTTDeserialize_ack:puback_msg <- $r4
	@DEBUG_VALUE: MQTTDeserialize_ack:mylen <- $r1
	@DEBUG_VALUE: MQTTDeserialize_ack:curdata <- $r0
	@DEBUG_VALUE: MQTTDeserialize_ack:buf <- [DW_OP_LLVM_entry_value 1] $r1
	.loc	1 0 9 is_stmt 0                 @ packages/umqtt-latest/src/pkgs/umqtt_pkgs_decode.c:0:9
	mvn	r5, #4
.Ltmp170:
	b	.LBB13_3
.Ltmp171:
.LBB13_2:
	@DEBUG_VALUE: MQTTDeserialize_ack:rc <- $r5
	@DEBUG_VALUE: MQTTDeserialize_ack:puback_msg <- $r4
	@DEBUG_VALUE: MQTTDeserialize_ack:mylen <- $r1
	@DEBUG_VALUE: MQTTDeserialize_ack:curdata <- $r0
	@DEBUG_VALUE: MQTTDeserialize_ack:buf <- [DW_OP_LLVM_entry_value 1] $r1
	@DEBUG_VALUE: MQTTDeserialize_ack:curdata <- [DW_OP_plus_uconst 4, DW_OP_deref] $sp
	add	r0, sp, #4
	.loc	1 92 40 is_stmt 1               @ packages/umqtt-latest/src/pkgs/umqtt_pkgs_decode.c:92:40
	bl	umqtt_readInt
.Ltmp172:
	.loc	1 92 38 is_stmt 0               @ packages/umqtt-latest/src/pkgs/umqtt_pkgs_decode.c:92:38
	strh	r0, [r4, #8]
.Ltmp173:
.LBB13_3:
	@DEBUG_VALUE: MQTTDeserialize_ack:puback_msg <- $r4
	@DEBUG_VALUE: MQTTDeserialize_ack:buf <- [DW_OP_LLVM_entry_value 1] $r1
	@DEBUG_VALUE: MQTTDeserialize_ack:rc <- $r5
	@DEBUG_LABEL: MQTTDeserialize_ack:exit
	.loc	1 95 5 is_stmt 1                @ packages/umqtt-latest/src/pkgs/umqtt_pkgs_decode.c:95:5
	mov	r0, r5
	add	sp, #8
	pop	{r4, r5, r6, pc}
.Ltmp174:
.Lfunc_end13:
	.size	MQTTDeserialize_ack, .Lfunc_end13-MQTTDeserialize_ack
	.cfi_endproc
	.cantunwind
	.fnend
                                        @ -- End function
	.type	.L.str,%object                  @ @.str
	.section	.rodata.str1.1,"aMS",%progbits,1
.L.str:
	.asciz	"[E/umqtt.decode] "
	.size	.L.str, 18

	.type	.L.str.2,%object                @ @.str.2
.L.str.2:
	.asciz	"\n"
	.size	.L.str.2, 2

	.type	bufptr,%object                  @ @bufptr
	.section	.bss.bufptr,"aw",%nobits
	.p2align	2
bufptr:
	.long	0
	.size	bufptr, 4

	.file	4 "E:\\Smart-access-control\\Hardware\\CODE" "rt-thread/include\\rtdef.h"
	.file	5 "D:\\Keil_v5\\ARM\\ARMCLANG\\Bin\\..\\include" "string.h"
	.section	".note.GNU-stack","",%progbits
	.eabi_attribute	30, 1	@ Tag_ABI_optimization_goals
	.ARM_attribute	16, 1	@ Tag_AV_eba