	.text
	.syntax unified
	.eabi_attribute	67, "2.09"	@ Tag_conformance
	.cpu	cortex-m7
	.eabi_attribute	6, 13	@ Tag_CPU_arch
	.eabi_attribute	7, 77	@ Tag_CPU_arch_profile
	.eabi_attribute	8, 0	@ Tag_ARM_ISA_use
	.eabi_attribute	9, 2	@ Tag_THUMB_ISA_use
	.fpu	fpv5-d16
	.eabi_attribute	36, 1	@ Tag_FP_HP_extension
	.eabi_attribute	34, 1	@ Tag_CPU_unaligned_access
	.eabi_attribute	17, 1	@ Tag_ABI_PCS_GOT_use
	.eabi_attribute	20, 2	@ Tag_ABI_FP_denormal
	.eabi_attribute	21, 0	@ Tag_ABI_FP_exceptions
	.eabi_attribute	23, 1	@ Tag_ABI_FP_number_model
	.eabi_attribute	24, 1	@ Tag_ABI_align_needed
	.eabi_attribute	25, 1	@ Tag_ABI_align_preserved
	.eabi_attribute	28, 1	@ Tag_ABI_VFP_args
	.eabi_attribute	38, 1	@ Tag_ABI_FP_16bit_format
	.eabi_attribute	18, 2	@ Tag_ABI_PCS_wchar_t
	.eabi_attribute	26, 1	@ Tag_ABI_enum_size
	.eabi_attribute	14, 0	@ Tag_ABI_PCS_R9_use
	.file	"waitqueue.c"
	.file	1 "E:\\STM32\\Learning\\STM32H750_ART_PI_RGBLCD" "rt-thread/include\\rtdef.h"
	.file	2 "E:\\STM32\\Learning\\STM32H750_ART_PI_RGBLCD" "rt-thread/components/drivers/include/ipc/waitqueue.h"
	.section	.text.rt_wqueue_add,"ax",%progbits
	.hidden	rt_wqueue_add                   @ -- Begin function rt_wqueue_add
	.globl	rt_wqueue_add
	.p2align	3
	.type	rt_wqueue_add,%function
	.code	16                              @ @rt_wqueue_add
	.thumb_func
rt_wqueue_add:
.Lfunc_begin0:
	.file	3 "E:\\STM32\\Learning\\STM32H750_ART_PI_RGBLCD" "rt-thread/components/drivers/src/waitqueue.c"
	.loc	3 19 0                          @ rt-thread/components/drivers/src/waitqueue.c:19:0
	.fnstart
	.cfi_sections .debug_frame
	.cfi_startproc
@ %bb.0:
	.save	{r7, lr}
	push	{r7, lr}
	.cfi_def_cfa_offset 8
	.cfi_offset lr, -4
	.cfi_offset r7, -8
	.pad	#16
	sub	sp, #16
	.cfi_def_cfa_offset 24
	str	r0, [sp, #12]
	str	r1, [sp, #8]
.Ltmp0:
	.loc	3 22 13 prologue_end            @ rt-thread/components/drivers/src/waitqueue.c:22:13
	bl	rt_hw_interrupt_disable
	.loc	3 22 11 is_stmt 0               @ rt-thread/components/drivers/src/waitqueue.c:22:11
	str	r0, [sp, #4]
	.loc	3 23 29 is_stmt 1               @ rt-thread/components/drivers/src/waitqueue.c:23:29
	ldr	r0, [sp, #12]
	.loc	3 23 36 is_stmt 0               @ rt-thread/components/drivers/src/waitqueue.c:23:36
	adds	r0, #4
	.loc	3 23 53                         @ rt-thread/components/drivers/src/waitqueue.c:23:53
	ldr	r1, [sp, #8]
	.loc	3 23 59                         @ rt-thread/components/drivers/src/waitqueue.c:23:59
	adds	r1, #4
	.loc	3 23 5                          @ rt-thread/components/drivers/src/waitqueue.c:23:5
	bl	rt_list_insert_before
	.loc	3 24 28 is_stmt 1               @ rt-thread/components/drivers/src/waitqueue.c:24:28
	ldr	r0, [sp, #4]
	.loc	3 24 5 is_stmt 0                @ rt-thread/components/drivers/src/waitqueue.c:24:5
	bl	rt_hw_interrupt_enable
	.loc	3 25 1 is_stmt 1                @ rt-thread/components/drivers/src/waitqueue.c:25:1
	add	sp, #16
	pop	{r7, pc}
.Ltmp1:
.Lfunc_end0:
	.size	rt_wqueue_add, .Lfunc_end0-rt_wqueue_add
	.cfi_endproc
	.cantunwind
	.fnend
                                        @ -- End function
	.section	.text.rt_list_insert_before,"ax",%progbits
	.p2align	3                               @ -- Begin function rt_list_insert_before
	.type	rt_list_insert_before,%function
	.code	16                              @ @rt_list_insert_before
	.thumb_func
rt_list_insert_before:
.Lfunc_begin1:
	.file	4 "E:\\STM32\\Learning\\STM32H750_ART_PI_RGBLCD" "rt-thread/include\\rtservice.h"
	.loc	4 74 0                          @ rt-thread/include\rtservice.h:74:0
	.fnstart
	.cfi_startproc
@ %bb.0:
	.pad	#8
	sub	sp, #8
	.cfi_def_cfa_offset 8
	str	r0, [sp, #4]
	str	r1, [sp]
.Ltmp2:
	.loc	4 75 21 prologue_end            @ rt-thread/include\rtservice.h:75:21
	ldr	r0, [sp]
	.loc	4 75 5 is_stmt 0                @ rt-thread/include\rtservice.h:75:5
	ldr	r1, [sp, #4]
	.loc	4 75 8                          @ rt-thread/include\rtservice.h:75:8
	ldr	r1, [r1, #4]
	.loc	4 75 19                         @ rt-thread/include\rtservice.h:75:19
	str	r0, [r1]
	.loc	4 76 15 is_stmt 1               @ rt-thread/include\rtservice.h:76:15
	ldr	r0, [sp, #4]
	.loc	4 76 18 is_stmt 0               @ rt-thread/include\rtservice.h:76:18
	ldr	r0, [r0, #4]
	.loc	4 76 5                          @ rt-thread/include\rtservice.h:76:5
	ldr	r1, [sp]
	.loc	4 76 13                         @ rt-thread/include\rtservice.h:76:13
	str	r0, [r1, #4]
	.loc	4 78 15 is_stmt 1               @ rt-thread/include\rtservice.h:78:15
	ldr	r0, [sp]
	.loc	4 78 5 is_stmt 0                @ rt-thread/include\rtservice.h:78:5
	ldr	r1, [sp, #4]
	.loc	4 78 13                         @ rt-thread/include\rtservice.h:78:13
	str	r0, [r1, #4]
	.loc	4 79 15 is_stmt 1               @ rt-thread/include\rtservice.h:79:15
	ldr	r0, [sp, #4]
	.loc	4 79 5 is_stmt 0                @ rt-thread/include\rtservice.h:79:5
	ldr	r1, [sp]
	.loc	4 79 13                         @ rt-thread/include\rtservice.h:79:13
	str	r0, [r1]
	.loc	4 80 1 is_stmt 1                @ rt-thread/include\rtservice.h:80:1
	add	sp, #8
	bx	lr
.Ltmp3:
.Lfunc_end1:
	.size	rt_list_insert_before, .Lfunc_end1-rt_list_insert_before
	.cfi_endproc
	.cantunwind
	.fnend
                                        @ -- End function
	.section	.text.rt_wqueue_remove,"ax",%progbits
	.hidden	rt_wqueue_remove                @ -- Begin function rt_wqueue_remove
	.globl	rt_wqueue_remove
	.p2align	3
	.type	rt_wqueue_remove,%function
	.code	16                              @ @rt_wqueue_remove
	.thumb_func
rt_wqueue_remove:
.Lfunc_begin2:
	.loc	3 28 0                          @ rt-thread/components/drivers/src/waitqueue.c:28:0
	.fnstart
	.cfi_startproc
@ %bb.0:
	.save	{r7, lr}
	push	{r7, lr}
	.cfi_def_cfa_offset 8
	.cfi_offset lr, -4
	.cfi_offset r7, -8
	.pad	#8
	sub	sp, #8
	.cfi_def_cfa_offset 16
	str	r0, [sp, #4]
.Ltmp4:
	.loc	3 31 13 prologue_end            @ rt-thread/components/drivers/src/waitqueue.c:31:13
	bl	rt_hw_interrupt_disable
	.loc	3 31 11 is_stmt 0               @ rt-thread/components/drivers/src/waitqueue.c:31:11
	str	r0, [sp]
	.loc	3 32 22 is_stmt 1               @ rt-thread/components/drivers/src/waitqueue.c:32:22
	ldr	r0, [sp, #4]
	.loc	3 32 28 is_stmt 0               @ rt-thread/components/drivers/src/waitqueue.c:32:28
	adds	r0, #4
	.loc	3 32 5                          @ rt-thread/components/drivers/src/waitqueue.c:32:5
	bl	rt_list_remove
	.loc	3 33 28 is_stmt 1               @ rt-thread/components/drivers/src/waitqueue.c:33:28
	ldr	r0, [sp]
	.loc	3 33 5 is_stmt 0                @ rt-thread/components/drivers/src/waitqueue.c:33:5
	bl	rt_hw_interrupt_enable
	.loc	3 34 1 is_stmt 1                @ rt-thread/components/drivers/src/waitqueue.c:34:1
	add	sp, #8
	pop	{r7, pc}
.Ltmp5:
.Lfunc_end2:
	.size	rt_wqueue_remove, .Lfunc_end2-rt_wqueue_remove
	.cfi_endproc
	.cantunwind
	.fnend
                                        @ -- End function
	.section	.text.rt_list_remove,"ax",%progbits
	.p2align	3                               @ -- Begin function rt_list_remove
	.type	rt_list_remove,%function
	.code	16                              @ @rt_list_remove
	.thumb_func
rt_list_remove:
.Lfunc_begin3:
	.loc	4 87 0                          @ rt-thread/include\rtservice.h:87:0
	.fnstart
	.cfi_startproc
@ %bb.0:
	.pad	#4
	sub	sp, #4
	.cfi_def_cfa_offset 4
	str	r0, [sp]
.Ltmp6:
	.loc	4 88 21 prologue_end            @ rt-thread/include\rtservice.h:88:21
	ldr	r0, [sp]
	.loc	4 88 8 is_stmt 0                @ rt-thread/include\rtservice.h:88:8
	ldr	r1, [r0]
	.loc	4 88 24                         @ rt-thread/include\rtservice.h:88:24
	ldr	r0, [r0, #4]
	.loc	4 88 19                         @ rt-thread/include\rtservice.h:88:19
	str	r0, [r1, #4]
	.loc	4 89 21 is_stmt 1               @ rt-thread/include\rtservice.h:89:21
	ldr	r1, [sp]
	.loc	4 89 24 is_stmt 0               @ rt-thread/include\rtservice.h:89:24
	ldr	r0, [r1]
	.loc	4 89 8                          @ rt-thread/include\rtservice.h:89:8
	ldr	r1, [r1, #4]
	.loc	4 89 19                         @ rt-thread/include\rtservice.h:89:19
	str	r0, [r1]
	.loc	4 91 25 is_stmt 1               @ rt-thread/include\rtservice.h:91:25
	ldr	r0, [sp]
	.loc	4 91 23 is_stmt 0               @ rt-thread/include\rtservice.h:91:23
	str	r0, [r0, #4]
	.loc	4 91 5                          @ rt-thread/include\rtservice.h:91:5
	ldr	r1, [sp]
	.loc	4 91 13                         @ rt-thread/include\rtservice.h:91:13
	str	r0, [r1]
	.loc	4 92 1 is_stmt 1                @ rt-thread/include\rtservice.h:92:1
	add	sp, #4
	bx	lr
.Ltmp7:
.Lfunc_end3:
	.size	rt_list_remove, .Lfunc_end3-rt_list_remove
	.cfi_endproc
	.cantunwind
	.fnend
                                        @ -- End function
	.section	.text.__wqueue_default_wake,"ax",%progbits
	.hidden	__wqueue_default_wake           @ -- Begin function __wqueue_default_wake
	.globl	__wqueue_default_wake
	.p2align	3
	.type	__wqueue_default_wake,%function
	.code	16                              @ @__wqueue_default_wake
	.thumb_func
__wqueue_default_wake:
.Lfunc_begin4:
	.loc	3 37 0                          @ rt-thread/components/drivers/src/waitqueue.c:37:0
	.fnstart
	.cfi_startproc
@ %bb.0:
	.pad	#8
	sub	sp, #8
	.cfi_def_cfa_offset 8
	str	r0, [sp, #4]
	str	r1, [sp]
	movs	r0, #0
.Ltmp8:
	.loc	3 38 5 prologue_end             @ rt-thread/components/drivers/src/waitqueue.c:38:5
	add	sp, #8
	bx	lr
.Ltmp9:
.Lfunc_end4:
	.size	__wqueue_default_wake, .Lfunc_end4-__wqueue_default_wake
	.cfi_endproc
	.cantunwind
	.fnend
                                        @ -- End function
	.section	.text.rt_wqueue_wakeup,"ax",%progbits
	.hidden	rt_wqueue_wakeup                @ -- Begin function rt_wqueue_wakeup
	.globl	rt_wqueue_wakeup
	.p2align	3
	.type	rt_wqueue_wakeup,%function
	.code	16                              @ @rt_wqueue_wakeup
	.thumb_func
rt_wqueue_wakeup:
.Lfunc_begin5:
	.loc	3 42 0                          @ rt-thread/components/drivers/src/waitqueue.c:42:0
	.fnstart
	.cfi_startproc
@ %bb.0:
	.save	{r7, lr}
	push	{r7, lr}
	.cfi_def_cfa_offset 8
	.cfi_offset lr, -4
	.cfi_offset r7, -8
	.pad	#32
	sub	sp, #32
	.cfi_def_cfa_offset 40
	str	r0, [sp, #28]
	str	r1, [sp, #24]
	movs	r0, #0
.Ltmp10:
	.loc	3 44 18 prologue_end            @ rt-thread/components/drivers/src/waitqueue.c:44:18
	str	r0, [sp, #16]
	.loc	3 50 20                         @ rt-thread/components/drivers/src/waitqueue.c:50:20
	ldr	r0, [sp, #28]
	.loc	3 50 27 is_stmt 0               @ rt-thread/components/drivers/src/waitqueue.c:50:27
	adds	r0, #4
	.loc	3 50 16                         @ rt-thread/components/drivers/src/waitqueue.c:50:16
	str	r0, [sp, #12]
	.loc	3 52 13 is_stmt 1               @ rt-thread/components/drivers/src/waitqueue.c:52:13
	bl	rt_hw_interrupt_disable
	.loc	3 52 11 is_stmt 0               @ rt-thread/components/drivers/src/waitqueue.c:52:11
	str	r0, [sp, #20]
	.loc	3 54 5 is_stmt 1                @ rt-thread/components/drivers/src/waitqueue.c:54:5
	ldr	r1, [sp, #28]
	movs	r0, #1
	.loc	3 54 17 is_stmt 0               @ rt-thread/components/drivers/src/waitqueue.c:54:17
	str	r0, [r1]
.Ltmp11:
	.loc	3 56 27 is_stmt 1               @ rt-thread/components/drivers/src/waitqueue.c:56:27
	ldr	r0, [sp, #12]
	.loc	3 56 11 is_stmt 0               @ rt-thread/components/drivers/src/waitqueue.c:56:11
	bl	rt_list_isempty
.Ltmp12:
	.loc	3 56 9                          @ rt-thread/components/drivers/src/waitqueue.c:56:9
	cbnz	r0, .LBB5_8
	b	.LBB5_1
.LBB5_1:
.Ltmp13:
	.loc	3 58 21 is_stmt 1               @ rt-thread/components/drivers/src/waitqueue.c:58:21
	ldr	r0, [sp, #12]
	.loc	3 58 33 is_stmt 0               @ rt-thread/components/drivers/src/waitqueue.c:58:33
	ldr	r0, [r0]
	.loc	3 58 19                         @ rt-thread/components/drivers/src/waitqueue.c:58:19
	str	r0, [sp, #8]
	.loc	3 58 14                         @ rt-thread/components/drivers/src/waitqueue.c:58:14
	b	.LBB5_2
.LBB5_2:                                @ =>This Inner Loop Header: Depth=1
.Ltmp14:
	.loc	3 58 39                         @ rt-thread/components/drivers/src/waitqueue.c:58:39
	ldr	r0, [sp, #8]
	.loc	3 58 47                         @ rt-thread/components/drivers/src/waitqueue.c:58:47
	ldr	r1, [sp, #12]
.Ltmp15:
	.loc	3 58 9                          @ rt-thread/components/drivers/src/waitqueue.c:58:9
	cmp	r0, r1
	beq	.LBB5_7
	b	.LBB5_3
.LBB5_3:                                @   in Loop: Header=BB5_2 Depth=1
.Ltmp16:
	.loc	3 60 21 is_stmt 1               @ rt-thread/components/drivers/src/waitqueue.c:60:21
	ldr	r0, [sp, #8]
	subs	r0, #4
	.loc	3 60 19 is_stmt 0               @ rt-thread/components/drivers/src/waitqueue.c:60:19
	str	r0, [sp, #4]
.Ltmp17:
	.loc	3 61 17 is_stmt 1               @ rt-thread/components/drivers/src/waitqueue.c:61:17
	ldr	r0, [sp, #4]
	.loc	3 61 24 is_stmt 0               @ rt-thread/components/drivers/src/waitqueue.c:61:24
	ldr	r2, [r0, #12]
	.loc	3 61 38                         @ rt-thread/components/drivers/src/waitqueue.c:61:38
	ldr	r1, [sp, #24]
	.loc	3 61 17                         @ rt-thread/components/drivers/src/waitqueue.c:61:17
	blx	r2
.Ltmp18:
	.loc	3 61 17                         @ rt-thread/components/drivers/src/waitqueue.c:61:17
	cbnz	r0, .LBB5_5
	b	.LBB5_4
.LBB5_4:
.Ltmp19:
	.loc	3 63 34 is_stmt 1               @ rt-thread/components/drivers/src/waitqueue.c:63:34
	ldr	r0, [sp, #4]
	.loc	3 63 41 is_stmt 0               @ rt-thread/components/drivers/src/waitqueue.c:63:41
	ldr	r0, [r0]
	.loc	3 63 17                         @ rt-thread/components/drivers/src/waitqueue.c:63:17
	bl	rt_thread_resume
	movs	r0, #1
	.loc	3 64 31 is_stmt 1               @ rt-thread/components/drivers/src/waitqueue.c:64:31
	str	r0, [sp, #16]
	.loc	3 66 34                         @ rt-thread/components/drivers/src/waitqueue.c:66:34
	ldr	r0, [sp, #4]
	.loc	3 66 17 is_stmt 0               @ rt-thread/components/drivers/src/waitqueue.c:66:17
	bl	rt_wqueue_remove
	.loc	3 67 17 is_stmt 1               @ rt-thread/components/drivers/src/waitqueue.c:67:17
	b	.LBB5_7
.Ltmp20:
.LBB5_5:                                @   in Loop: Header=BB5_2 Depth=1
	.loc	3 69 9                          @ rt-thread/components/drivers/src/waitqueue.c:69:9
	b	.LBB5_6
.Ltmp21:
.LBB5_6:                                @   in Loop: Header=BB5_2 Depth=1
	.loc	3 58 66                         @ rt-thread/components/drivers/src/waitqueue.c:58:66
	ldr	r0, [sp, #8]
	.loc	3 58 72 is_stmt 0               @ rt-thread/components/drivers/src/waitqueue.c:58:72
	ldr	r0, [r0]
	.loc	3 58 64                         @ rt-thread/components/drivers/src/waitqueue.c:58:64
	str	r0, [sp, #8]
	.loc	3 58 9                          @ rt-thread/components/drivers/src/waitqueue.c:58:9
	b	.LBB5_2
.Ltmp22:
.LBB5_7:
	.loc	3 70 5 is_stmt 1                @ rt-thread/components/drivers/src/waitqueue.c:70:5
	b	.LBB5_8
.Ltmp23:
.LBB5_8:
	.loc	3 71 28                         @ rt-thread/components/drivers/src/waitqueue.c:71:28
	ldr	r0, [sp, #20]
	.loc	3 71 5 is_stmt 0                @ rt-thread/components/drivers/src/waitqueue.c:71:5
	bl	rt_hw_interrupt_enable
.Ltmp24:
	.loc	3 73 9 is_stmt 1                @ rt-thread/components/drivers/src/waitqueue.c:73:9
	ldr	r0, [sp, #16]
.Ltmp25:
	.loc	3 73 9 is_stmt 0                @ rt-thread/components/drivers/src/waitqueue.c:73:9
	cbz	r0, .LBB5_10
	b	.LBB5_9
.LBB5_9:
.Ltmp26:
	.loc	3 74 9 is_stmt 1                @ rt-thread/components/drivers/src/waitqueue.c:74:9
	bl	rt_schedule
	b	.LBB5_10
.Ltmp27:
.LBB5_10:
	.loc	3 75 1                          @ rt-thread/components/drivers/src/waitqueue.c:75:1
	add	sp, #32
	pop	{r7, pc}
.Ltmp28:
.Lfunc_end5:
	.size	rt_wqueue_wakeup, .Lfunc_end5-rt_wqueue_wakeup
	.cfi_endproc
	.cantunwind
	.fnend
                                        @ -- End function
	.section	.text.rt_list_isempty,"ax",%progbits
	.p2align	3                               @ -- Begin function rt_list_isempty
	.type	rt_list_isempty,%function
	.code	16                              @ @rt_list_isempty
	.thumb_func
rt_list_isempty:
.Lfunc_begin6:
	.loc	4 99 0                          @ rt-thread/include\rtservice.h:99:0
	.fnstart
	.cfi_startproc
@ %bb.0:
	.pad	#4
	sub	sp, #4
	.cfi_def_cfa_offset 4
	str	r0, [sp]
.Ltmp29:
	.loc	4 100 12 prologue_end           @ rt-thread/include\rtservice.h:100:12
	ldr	r1, [sp]
	.loc	4 100 15 is_stmt 0              @ rt-thread/include\rtservice.h:100:15
	ldr	r0, [r1]
	.loc	4 100 20                        @ rt-thread/include\rtservice.h:100:20
	subs	r0, r0, r1
	clz	r0, r0
	lsrs	r0, r0, #5
	.loc	4 100 5                         @ rt-thread/include\rtservice.h:100:5
	add	sp, #4
	bx	lr
.Ltmp30:
.Lfunc_end6:
	.size	rt_list_isempty, .Lfunc_end6-rt_list_isempty
	.cfi_endproc
	.cantunwind
	.fnend
                                        @ -- End function
	.section	.text.rt_wqueue_wait,"ax",%progbits
	.hidden	rt_wqueue_wait                  @ -- Begin function rt_wqueue_wait
	.globl	rt_wqueue_wait
	.p2align	3
	.type	rt_wqueue_wait,%function
	.code	16                              @ @rt_wqueue_wait
	.thumb_func
rt_wqueue_wait:
.Lfunc_begin7:
	.loc	3 78 0 is_stmt 1                @ rt-thread/components/drivers/src/waitqueue.c:78:0
	.fnstart
	.cfi_startproc
@ %bb.0:
	.save	{r7, lr}
	push	{r7, lr}
	.cfi_def_cfa_offset 8
	.cfi_offset lr, -4
	.cfi_offset r7, -8
	.pad	#64
	sub	sp, #64
	.cfi_def_cfa_offset 72
	str	r0, [sp, #56]
	str	r1, [sp, #52]
	str	r2, [sp, #48]
.Ltmp31:
	.loc	3 80 23 prologue_end            @ rt-thread/components/drivers/src/waitqueue.c:80:23
	bl	rt_thread_self
	.loc	3 80 17 is_stmt 0               @ rt-thread/components/drivers/src/waitqueue.c:80:17
	str	r0, [sp, #40]
	.loc	3 81 25 is_stmt 1               @ rt-thread/components/drivers/src/waitqueue.c:81:25
	ldr	r0, [sp, #40]
	.loc	3 81 30 is_stmt 0               @ rt-thread/components/drivers/src/waitqueue.c:81:30
	adds	r0, #76
	.loc	3 81 17                         @ rt-thread/components/drivers/src/waitqueue.c:81:17
	str	r0, [sp, #36]
	.loc	3 86 5 is_stmt 1                @ rt-thread/components/drivers/src/waitqueue.c:86:5
	b	.LBB7_1
.LBB7_1:
.Ltmp32:
	.loc	3 86 5 is_stmt 0                @ rt-thread/components/drivers/src/waitqueue.c:86:5
	bl	rt_hw_interrupt_disable
	str	r0, [sp, #8]
.Ltmp33:
	.loc	3 86 5                          @ rt-thread/components/drivers/src/waitqueue.c:86:5
	bl	rt_interrupt_get_nest
.Ltmp34:
	.loc	3 86 5                          @ rt-thread/components/drivers/src/waitqueue.c:86:5
	cbz	r0, .LBB7_3
	b	.LBB7_2
.LBB7_2:
.Ltmp35:
	.loc	3 86 5                          @ rt-thread/components/drivers/src/waitqueue.c:86:5
	movw	r0, :lower16:.L.str
	movt	r0, :upper16:.L.str
	movw	r1, :lower16:.L__FUNCTION__.rt_wqueue_wait
	movt	r1, :upper16:.L__FUNCTION__.rt_wqueue_wait
	movs	r2, #86
	bl	rt_assert_handler
.Ltmp36:
	.loc	3 86 5                          @ rt-thread/components/drivers/src/waitqueue.c:86:5
	b	.LBB7_3
.Ltmp37:
.LBB7_3:
	.loc	3 86 5                          @ rt-thread/components/drivers/src/waitqueue.c:86:5
	ldr	r0, [sp, #8]
	bl	rt_hw_interrupt_enable
	b	.LBB7_4
.Ltmp38:
.LBB7_4:
	.loc	3 88 37 is_stmt 1               @ rt-thread/components/drivers/src/waitqueue.c:88:37
	ldr	r0, [sp, #48]
	.loc	3 88 12 is_stmt 0               @ rt-thread/components/drivers/src/waitqueue.c:88:12
	bl	rt_tick_from_millisecond
	.loc	3 88 10                         @ rt-thread/components/drivers/src/waitqueue.c:88:10
	str	r0, [sp, #44]
.Ltmp39:
	.loc	3 90 10 is_stmt 1               @ rt-thread/components/drivers/src/waitqueue.c:90:10
	ldr	r0, [sp, #52]
	.loc	3 90 21 is_stmt 0               @ rt-thread/components/drivers/src/waitqueue.c:90:21
	cbnz	r0, .LBB7_6
	b	.LBB7_5
.LBB7_5:
	.loc	3 90 25                         @ rt-thread/components/drivers/src/waitqueue.c:90:25
	ldr	r0, [sp, #44]
.Ltmp40:
	.loc	3 90 9                          @ rt-thread/components/drivers/src/waitqueue.c:90:9
	cbnz	r0, .LBB7_7
	b	.LBB7_6
.LBB7_6:
	.loc	3 0 9                           @ rt-thread/components/drivers/src/waitqueue.c:0:9
	movs	r0, #0
.Ltmp41:
	.loc	3 91 9 is_stmt 1                @ rt-thread/components/drivers/src/waitqueue.c:91:9
	str	r0, [sp, #60]
	b	.LBB7_13
.Ltmp42:
.LBB7_7:
	.loc	3 93 29                         @ rt-thread/components/drivers/src/waitqueue.c:93:29
	bl	rt_thread_self
	.loc	3 93 27 is_stmt 0               @ rt-thread/components/drivers/src/waitqueue.c:93:27
	str	r0, [sp, #16]
	movs	r0, #0
	.loc	3 94 16 is_stmt 1               @ rt-thread/components/drivers/src/waitqueue.c:94:16
	str	r0, [sp, #32]
	.loc	3 95 19                         @ rt-thread/components/drivers/src/waitqueue.c:95:19
	movw	r0, :lower16:__wqueue_default_wake
	movt	r0, :upper16:__wqueue_default_wake
	str	r0, [sp, #28]
	add	r0, sp, #16
	.loc	3 96 26                         @ rt-thread/components/drivers/src/waitqueue.c:96:26
	adds	r0, #4
	.loc	3 96 5 is_stmt 0                @ rt-thread/components/drivers/src/waitqueue.c:96:5
	bl	rt_list_init
	.loc	3 98 13 is_stmt 1               @ rt-thread/components/drivers/src/waitqueue.c:98:13
	bl	rt_hw_interrupt_disable
	.loc	3 98 11 is_stmt 0               @ rt-thread/components/drivers/src/waitqueue.c:98:11
	str	r0, [sp, #12]
.Ltmp43:
	.loc	3 99 9 is_stmt 1                @ rt-thread/components/drivers/src/waitqueue.c:99:9
	ldr	r0, [sp, #56]
	.loc	3 99 16 is_stmt 0               @ rt-thread/components/drivers/src/waitqueue.c:99:16
	ldr	r0, [r0]
.Ltmp44:
	.loc	3 99 9                          @ rt-thread/components/drivers/src/waitqueue.c:99:9
	cmp	r0, #1
	bne	.LBB7_9
	b	.LBB7_8
.LBB7_8:
.Ltmp45:
	.loc	3 102 9 is_stmt 1               @ rt-thread/components/drivers/src/waitqueue.c:102:9
	b	.LBB7_12
.Ltmp46:
.LBB7_9:
	.loc	3 105 19                        @ rt-thread/components/drivers/src/waitqueue.c:105:19
	ldr	r0, [sp, #56]
	add	r1, sp, #16
	.loc	3 105 5 is_stmt 0               @ rt-thread/components/drivers/src/waitqueue.c:105:5
	bl	rt_wqueue_add
	.loc	3 106 23 is_stmt 1              @ rt-thread/components/drivers/src/waitqueue.c:106:23
	ldr	r0, [sp, #40]
	.loc	3 106 5 is_stmt 0               @ rt-thread/components/drivers/src/waitqueue.c:106:5
	bl	rt_thread_suspend
.Ltmp47:
	.loc	3 109 9 is_stmt 1               @ rt-thread/components/drivers/src/waitqueue.c:109:9
	ldr	r0, [sp, #44]
.Ltmp48:
	.loc	3 109 9 is_stmt 0               @ rt-thread/components/drivers/src/waitqueue.c:109:9
	adds	r0, #1
	cbz	r0, .LBB7_11
	b	.LBB7_10
.LBB7_10:
.Ltmp49:
	.loc	3 111 26 is_stmt 1              @ rt-thread/components/drivers/src/waitqueue.c:111:26
	ldr	r0, [sp, #36]
	movs	r1, #0
	add	r2, sp, #44
	.loc	3 111 9 is_stmt 0               @ rt-thread/components/drivers/src/waitqueue.c:111:9
	bl	rt_timer_control
	.loc	3 115 24 is_stmt 1              @ rt-thread/components/drivers/src/waitqueue.c:115:24
	ldr	r0, [sp, #36]
	.loc	3 115 9 is_stmt 0               @ rt-thread/components/drivers/src/waitqueue.c:115:9
	bl	rt_timer_start
	.loc	3 116 5 is_stmt 1               @ rt-thread/components/drivers/src/waitqueue.c:116:5
	b	.LBB7_11
.Ltmp50:
.LBB7_11:
	.loc	3 117 28                        @ rt-thread/components/drivers/src/waitqueue.c:117:28
	ldr	r0, [sp, #12]
	.loc	3 117 5 is_stmt 0               @ rt-thread/components/drivers/src/waitqueue.c:117:5
	bl	rt_hw_interrupt_enable
	.loc	3 119 5 is_stmt 1               @ rt-thread/components/drivers/src/waitqueue.c:119:5
	bl	rt_schedule
	.loc	3 121 13                        @ rt-thread/components/drivers/src/waitqueue.c:121:13
	bl	rt_hw_interrupt_disable
	.loc	3 121 11 is_stmt 0              @ rt-thread/components/drivers/src/waitqueue.c:121:11
	str	r0, [sp, #12]
	.loc	3 121 5                         @ rt-thread/components/drivers/src/waitqueue.c:121:5
	b	.LBB7_12
.LBB7_12:
.Ltmp51:
	@DEBUG_LABEL: rt_wqueue_wait:__exit_wakeup
	.loc	3 124 5 is_stmt 1               @ rt-thread/components/drivers/src/waitqueue.c:124:5
	ldr	r1, [sp, #56]
	movs	r0, #0
	.loc	3 124 17 is_stmt 0              @ rt-thread/components/drivers/src/waitqueue.c:124:17
	str	r0, [sp, #4]                    @ 4-byte Spill
	str	r0, [r1]
	.loc	3 125 28 is_stmt 1              @ rt-thread/components/drivers/src/waitqueue.c:125:28
	ldr	r0, [sp, #12]
	.loc	3 125 5 is_stmt 0               @ rt-thread/components/drivers/src/waitqueue.c:125:5
	bl	rt_hw_interrupt_enable
	add	r0, sp, #16
	.loc	3 127 5 is_stmt 1               @ rt-thread/components/drivers/src/waitqueue.c:127:5
	bl	rt_wqueue_remove
	ldr	r0, [sp, #4]                    @ 4-byte Reload
	.loc	3 129 5                         @ rt-thread/components/drivers/src/waitqueue.c:129:5
	str	r0, [sp, #60]
	b	.LBB7_13
.LBB7_13:
	.loc	3 130 1                         @ rt-thread/components/drivers/src/waitqueue.c:130:1
	ldr	r0, [sp, #60]
	add	sp, #64
	pop	{r7, pc}
.Ltmp52:
.Lfunc_end7:
	.size	rt_wqueue_wait, .Lfunc_end7-rt_wqueue_wait
	.cfi_endproc
	.cantunwind
	.fnend
                                        @ -- End function
	.section	.text.rt_list_init,"ax",%progbits
	.p2align	3                               @ -- Begin function rt_list_init
	.type	rt_list_init,%function
	.code	16                              @ @rt_list_init
	.thumb_func
rt_list_init:
.Lfunc_begin8:
	.loc	4 48 0                          @ rt-thread/include\rtservice.h:48:0
	.fnstart
	.cfi_startproc
@ %bb.0:
	.pad	#4
	sub	sp, #4
	.cfi_def_cfa_offset 4
	str	r0, [sp]
.Ltmp53:
	.loc	4 49 25 prologue_end            @ rt-thread/include\rtservice.h:49:25
	ldr	r0, [sp]
	.loc	4 49 23 is_stmt 0               @ rt-thread/include\rtservice.h:49:23
	str	r0, [r0, #4]
	.loc	4 49 5                          @ rt-thread/include\rtservice.h:49:5
	ldr	r1, [sp]
	.loc	4 49 13                         @ rt-thread/include\rtservice.h:49:13
	str	r0, [r1]
	.loc	4 50 1 is_stmt 1                @ rt-thread/include\rtservice.h:50:1
	add	sp, #4
	bx	lr
.Ltmp54:
.Lfunc_end8:
	.size	rt_list_init, .Lfunc_end8-rt_list_init
	.cfi_endproc
	.cantunwind
	.fnend
                                        @ -- End function
	.type	.L.str,%object                  @ @.str
	.section	.rodata.str1.1,"aMS",%progbits,1
.L.str:
	.asciz	"0"
	.size	.L.str, 2

	.type	.L__FUNCTION__.rt_wqueue_wait,%object @ @__FUNCTION__.rt_wqueue_wait
.L__FUNCTION__.rt_wqueue_wait:
	.asciz	"rt_wqueue_wait"
	.size	.L__FUNCTION__.rt_wqueue_wait, 15

	.section	".note.GNU-stack","",%progbits
	.eabi_attribute	30, 6	@ Tag_ABI_optimization_goals
	.ARM_attribute	16, 1	@ Tag_AV_eba