	.text
	.syntax unified
	.eabi_attribute	67, "2.09"	@ Tag_conformance
	.cpu	cortex-m7
	.eabi_attribute	6, 13	@ Tag_CPU_arch
	.eabi_attribute	7, 77	@ Tag_CPU_arch_profile
	.eabi_attribute	8, 0	@ Tag_ARM_ISA_use
	.eabi_attribute	9, 2	@ Tag_THUMB_ISA_use
	.fpu	fpv5-d16
	.eabi_attribute	36, 1	@ Tag_FP_HP_extension
	.eabi_attribute	34, 1	@ Tag_CPU_unaligned_access
	.eabi_attribute	17, 1	@ Tag_ABI_PCS_GOT_use
	.eabi_attribute	20, 2	@ Tag_ABI_FP_denormal
	.eabi_attribute	21, 0	@ Tag_ABI_FP_exceptions
	.eabi_attribute	23, 1	@ Tag_ABI_FP_number_model
	.eabi_attribute	24, 1	@ Tag_ABI_align_needed
	.eabi_attribute	25, 1	@ Tag_ABI_align_preserved
	.eabi_attribute	28, 1	@ Tag_ABI_VFP_args
	.eabi_attribute	38, 1	@ Tag_ABI_FP_16bit_format
	.eabi_attribute	18, 2	@ Tag_ABI_PCS_wchar_t
	.eabi_attribute	26, 1	@ Tag_ABI_enum_size
	.eabi_attribute	14, 0	@ Tag_ABI_PCS_R9_use
	.file	"wlan_prot.c"
	.file	1 "E:\\Smart-access-control\\Hardware\\CODE" "rt-thread/include\\rtdef.h"
	.file	2 "E:\\Smart-access-control\\Hardware\\CODE" "rt-thread/components/drivers/wlan/wlan_prot.c"
	.file	3 "E:\\Smart-access-control\\Hardware\\CODE" "./rt-thread/components/drivers/wlan\\wlan_prot.h"
	.file	4 "E:\\Smart-access-control\\Hardware\\CODE" "./rt-thread/components/drivers/wlan\\wlan_dev.h"
	.section	.text.rt_wlan_prot_attach,"ax",%progbits
	.hidden	rt_wlan_prot_attach             @ -- Begin function rt_wlan_prot_attach
	.globl	rt_wlan_prot_attach
	.p2align	3
	.type	rt_wlan_prot_attach,%function
	.code	16                              @ @rt_wlan_prot_attach
	.thumb_func
rt_wlan_prot_attach:
.Lfunc_begin0:
	.loc	2 138 0                         @ rt-thread/components/drivers/wlan/wlan_prot.c:138:0
	.fnstart
	.cfi_sections .debug_frame
	.cfi_startproc
@ %bb.0:
	.save	{r7, lr}
	push	{r7, lr}
	.cfi_def_cfa_offset 8
	.cfi_offset lr, -4
	.cfi_offset r7, -8
	.pad	#16
	sub	sp, #16
	.cfi_def_cfa_offset 24
	str	r0, [sp, #8]
	str	r1, [sp, #4]
.Ltmp0:
	.loc	2 141 38 prologue_end           @ rt-thread/components/drivers/wlan/wlan_prot.c:141:38
	ldr	r0, [sp, #8]
	.loc	2 141 12 is_stmt 0              @ rt-thread/components/drivers/wlan/wlan_prot.c:141:12
	bl	rt_wlan_prot_find_by_name
	.loc	2 141 10                        @ rt-thread/components/drivers/wlan/wlan_prot.c:141:10
	str	r0, [sp]
.Ltmp1:
	.loc	2 142 9 is_stmt 1               @ rt-thread/components/drivers/wlan/wlan_prot.c:142:9
	ldr	r0, [sp]
.Ltmp2:
	.loc	2 142 9 is_stmt 0               @ rt-thread/components/drivers/wlan/wlan_prot.c:142:9
	cbnz	r0, .LBB0_2
	b	.LBB0_1
.LBB0_1:
	.loc	2 0 9                           @ rt-thread/components/drivers/wlan/wlan_prot.c:0:9
	mov.w	r0, #-1
.Ltmp3:
	.loc	2 144 9 is_stmt 1               @ rt-thread/components/drivers/wlan/wlan_prot.c:144:9
	str	r0, [sp, #12]
	b	.LBB0_3
.Ltmp4:
.LBB0_2:
	.loc	2 146 36                        @ rt-thread/components/drivers/wlan/wlan_prot.c:146:36
	ldr	r0, [sp]
	.loc	2 146 42 is_stmt 0              @ rt-thread/components/drivers/wlan/wlan_prot.c:146:42
	ldr	r1, [sp, #4]
	.loc	2 146 12                        @ rt-thread/components/drivers/wlan/wlan_prot.c:146:12
	bl	rt_wlan_prot_attach_dev
	.loc	2 146 5                         @ rt-thread/components/drivers/wlan/wlan_prot.c:146:5
	str	r0, [sp, #12]
	b	.LBB0_3
.LBB0_3:
	.loc	2 147 1 is_stmt 1               @ rt-thread/components/drivers/wlan/wlan_prot.c:147:1
	ldr	r0, [sp, #12]
	add	sp, #16
	pop	{r7, pc}
.Ltmp5:
.Lfunc_end0:
	.size	rt_wlan_prot_attach, .Lfunc_end0-rt_wlan_prot_attach
	.cfi_endproc
	.cantunwind
	.fnend
                                        @ -- End function
	.section	.text.rt_wlan_prot_find_by_name,"ax",%progbits
	.p2align	3                               @ -- Begin function rt_wlan_prot_find_by_name
	.type	rt_wlan_prot_find_by_name,%function
	.code	16                              @ @rt_wlan_prot_find_by_name
	.thumb_func
rt_wlan_prot_find_by_name:
.Lfunc_begin1:
	.loc	2 120 0                         @ rt-thread/components/drivers/wlan/wlan_prot.c:120:0
	.fnstart
	.cfi_startproc
@ %bb.0:
	.save	{r7, lr}
	push	{r7, lr}
	.cfi_def_cfa_offset 8
	.cfi_offset lr, -4
	.cfi_offset r7, -8
	.pad	#16
	sub	sp, #16
	.cfi_def_cfa_offset 24
	str	r0, [sp, #8]
.Ltmp6:
	.loc	2 123 9 prologue_end            @ rt-thread/components/drivers/wlan/wlan_prot.c:123:9
	ldr	r0, [sp, #8]
.Ltmp7:
	.loc	2 123 9 is_stmt 0               @ rt-thread/components/drivers/wlan/wlan_prot.c:123:9
	cbnz	r0, .LBB1_4
	b	.LBB1_1
.LBB1_1:
.Ltmp8:
	.loc	2 125 9 is_stmt 1               @ rt-thread/components/drivers/wlan/wlan_prot.c:125:9
	b	.LBB1_2
.LBB1_2:
.Ltmp9:
	.loc	2 125 9 is_stmt 0               @ rt-thread/components/drivers/wlan/wlan_prot.c:125:9
	movw	r0, :lower16:.L.str
	movt	r0, :upper16:.L.str
	bl	rt_kprintf
	movw	r0, :lower16:.L.str.4
	movt	r0, :upper16:.L.str.4
	movw	r1, :lower16:.L__FUNCTION__.rt_wlan_prot_find_by_name
	movt	r1, :upper16:.L__FUNCTION__.rt_wlan_prot_find_by_name
	movs	r2, #125
	bl	rt_kprintf
	movw	r0, :lower16:.L.str.2
	movt	r0, :upper16:.L.str.2
	bl	rt_kprintf
	b	.LBB1_3
.Ltmp10:
.LBB1_3:
	.loc	2 0 9                           @ rt-thread/components/drivers/wlan/wlan_prot.c:0:9
	movs	r0, #0
	.loc	2 126 9 is_stmt 1               @ rt-thread/components/drivers/wlan/wlan_prot.c:126:9
	str	r0, [sp, #12]
	b	.LBB1_9
.Ltmp11:
.LBB1_4:
	.loc	2 128 29                        @ rt-thread/components/drivers/wlan/wlan_prot.c:128:29
	ldr	r0, [sp, #8]
	.loc	2 128 14 is_stmt 0              @ rt-thread/components/drivers/wlan/wlan_prot.c:128:14
	bl	rt_device_find
	.loc	2 128 12                        @ rt-thread/components/drivers/wlan/wlan_prot.c:128:12
	str	r0, [sp, #4]
.Ltmp12:
	.loc	2 129 9 is_stmt 1               @ rt-thread/components/drivers/wlan/wlan_prot.c:129:9
	ldr	r0, [sp, #4]
.Ltmp13:
	.loc	2 129 9 is_stmt 0               @ rt-thread/components/drivers/wlan/wlan_prot.c:129:9
	cbnz	r0, .LBB1_8
	b	.LBB1_5
.LBB1_5:
.Ltmp14:
	.loc	2 131 9 is_stmt 1               @ rt-thread/components/drivers/wlan/wlan_prot.c:131:9
	b	.LBB1_6
.LBB1_6:
.Ltmp15:
	.loc	2 131 9 is_stmt 0               @ rt-thread/components/drivers/wlan/wlan_prot.c:131:9
	movw	r0, :lower16:.L.str
	movt	r0, :upper16:.L.str
	bl	rt_kprintf
	ldr	r3, [sp, #8]
	movw	r0, :lower16:.L.str.10
	movt	r0, :upper16:.L.str.10
	movw	r1, :lower16:.L__FUNCTION__.rt_wlan_prot_find_by_name
	movt	r1, :upper16:.L__FUNCTION__.rt_wlan_prot_find_by_name
	movs	r2, #131
	bl	rt_kprintf
	movw	r0, :lower16:.L.str.2
	movt	r0, :upper16:.L.str.2
	bl	rt_kprintf
	b	.LBB1_7
.Ltmp16:
.LBB1_7:
	.loc	2 0 9                           @ rt-thread/components/drivers/wlan/wlan_prot.c:0:9
	movs	r0, #0
	.loc	2 132 9 is_stmt 1               @ rt-thread/components/drivers/wlan/wlan_prot.c:132:9
	str	r0, [sp, #12]
	b	.LBB1_9
.Ltmp17:
.LBB1_8:
	.loc	2 134 37                        @ rt-thread/components/drivers/wlan/wlan_prot.c:134:37
	ldr	r0, [sp, #4]
	.loc	2 134 5 is_stmt 0               @ rt-thread/components/drivers/wlan/wlan_prot.c:134:5
	str	r0, [sp, #12]
	b	.LBB1_9
.LBB1_9:
	.loc	2 135 1 is_stmt 1               @ rt-thread/components/drivers/wlan/wlan_prot.c:135:1
	ldr	r0, [sp, #12]
	add	sp, #16
	pop	{r7, pc}
.Ltmp18:
.Lfunc_end1:
	.size	rt_wlan_prot_find_by_name, .Lfunc_end1-rt_wlan_prot_find_by_name
	.cfi_endproc
	.cantunwind
	.fnend
                                        @ -- End function
	.section	.text.rt_wlan_prot_attach_dev,"ax",%progbits
	.hidden	rt_wlan_prot_attach_dev         @ -- Begin function rt_wlan_prot_attach_dev
	.globl	rt_wlan_prot_attach_dev
	.p2align	3
	.type	rt_wlan_prot_attach_dev,%function
	.code	16                              @ @rt_wlan_prot_attach_dev
	.thumb_func
rt_wlan_prot_attach_dev:
.Lfunc_begin2:
	.loc	2 162 0                         @ rt-thread/components/drivers/wlan/wlan_prot.c:162:0
	.fnstart
	.cfi_startproc
@ %bb.0:
	.save	{r7, lr}
	push	{r7, lr}
	.cfi_def_cfa_offset 8
	.cfi_offset lr, -4
	.cfi_offset r7, -8
	.pad	#32
	sub	sp, #32
	.cfi_def_cfa_offset 40
	str	r0, [sp, #24]
	str	r1, [sp, #20]
	movs	r0, #0
.Ltmp19:
	.loc	2 163 9 prologue_end            @ rt-thread/components/drivers/wlan/wlan_prot.c:163:9
	str	r0, [sp, #16]
	.loc	2 164 33                        @ rt-thread/components/drivers/wlan/wlan_prot.c:164:33
	ldr	r0, [sp, #24]
	.loc	2 164 39 is_stmt 0              @ rt-thread/components/drivers/wlan/wlan_prot.c:164:39
	ldr.w	r0, [r0, #316]
	.loc	2 164 26                        @ rt-thread/components/drivers/wlan/wlan_prot.c:164:26
	str	r0, [sp, #12]
	.loc	2 165 31 is_stmt 1              @ rt-thread/components/drivers/wlan/wlan_prot.c:165:31
	movw	r0, :lower16:rt_wlan_prot_event_handle
	movt	r0, :upper16:rt_wlan_prot_event_handle
	str	r0, [sp, #8]
.Ltmp20:
	.loc	2 167 9                         @ rt-thread/components/drivers/wlan/wlan_prot.c:167:9
	ldr	r0, [sp, #24]
.Ltmp21:
	.loc	2 167 9 is_stmt 0               @ rt-thread/components/drivers/wlan/wlan_prot.c:167:9
	cbnz	r0, .LBB2_4
	b	.LBB2_1
.LBB2_1:
.Ltmp22:
	.loc	2 169 9 is_stmt 1               @ rt-thread/components/drivers/wlan/wlan_prot.c:169:9
	b	.LBB2_2
.LBB2_2:
.Ltmp23:
	.loc	2 169 9 is_stmt 0               @ rt-thread/components/drivers/wlan/wlan_prot.c:169:9
	movw	r0, :lower16:.L.str
	movt	r0, :upper16:.L.str
	bl	rt_kprintf
	movw	r0, :lower16:.L.str.1
	movt	r0, :upper16:.L.str.1
	movw	r1, :lower16:.L__FUNCTION__.rt_wlan_prot_attach_dev
	movt	r1, :upper16:.L__FUNCTION__.rt_wlan_prot_attach_dev
	movs	r2, #169
	bl	rt_kprintf
	movw	r0, :lower16:.L.str.2
	movt	r0, :upper16:.L.str.2
	bl	rt_kprintf
	b	.LBB2_3
.Ltmp24:
.LBB2_3:
	.loc	2 0 9                           @ rt-thread/components/drivers/wlan/wlan_prot.c:0:9
	mov.w	r0, #-1
	.loc	2 170 9 is_stmt 1               @ rt-thread/components/drivers/wlan/wlan_prot.c:170:9
	str	r0, [sp, #28]
	b	.LBB2_21
.Ltmp25:
.LBB2_4:
	.loc	2 173 9                         @ rt-thread/components/drivers/wlan/wlan_prot.c:173:9
	ldr	r0, [sp, #12]
	.loc	2 173 25 is_stmt 0              @ rt-thread/components/drivers/wlan/wlan_prot.c:173:25
	cbz	r0, .LBB2_7
	b	.LBB2_5
.LBB2_5:
	.loc	2 174 24 is_stmt 1              @ rt-thread/components/drivers/wlan/wlan_prot.c:174:24
	ldr	r0, [sp, #12]
	.loc	2 174 36 is_stmt 0              @ rt-thread/components/drivers/wlan/wlan_prot.c:174:36
	ldr	r1, [sp, #20]
	.loc	2 174 14                        @ rt-thread/components/drivers/wlan/wlan_prot.c:174:14
	bl	rt_strcmp
.Ltmp26:
	.loc	2 173 9 is_stmt 1               @ rt-thread/components/drivers/wlan/wlan_prot.c:173:9
	cbnz	r0, .LBB2_7
	b	.LBB2_6
.LBB2_6:
	.loc	2 0 9 is_stmt 0                 @ rt-thread/components/drivers/wlan/wlan_prot.c:0:9
	movs	r0, #0
.Ltmp27:
	.loc	2 177 9 is_stmt 1               @ rt-thread/components/drivers/wlan/wlan_prot.c:177:9
	str	r0, [sp, #28]
	b	.LBB2_21
.Ltmp28:
.LBB2_7:
	.loc	2 181 9                         @ rt-thread/components/drivers/wlan/wlan_prot.c:181:9
	ldr	r0, [sp, #12]
.Ltmp29:
	.loc	2 181 9 is_stmt 0               @ rt-thread/components/drivers/wlan/wlan_prot.c:181:9
	cbz	r0, .LBB2_9
	b	.LBB2_8
.LBB2_8:
.Ltmp30:
	.loc	2 182 33 is_stmt 1              @ rt-thread/components/drivers/wlan/wlan_prot.c:182:33
	ldr	r0, [sp, #24]
	.loc	2 182 9 is_stmt 0               @ rt-thread/components/drivers/wlan/wlan_prot.c:182:9
	bl	rt_wlan_prot_detach_dev
	b	.LBB2_9
.Ltmp31:
.LBB2_9:
	.loc	2 0 9                           @ rt-thread/components/drivers/wlan/wlan_prot.c:0:9
	movs	r0, #0
.Ltmp32:
	.loc	2 191 12 is_stmt 1              @ rt-thread/components/drivers/wlan/wlan_prot.c:191:12
	str	r0, [sp, #16]
	.loc	2 191 10 is_stmt 0              @ rt-thread/components/drivers/wlan/wlan_prot.c:191:10
	b	.LBB2_10
.LBB2_10:                               @ =>This Inner Loop Header: Depth=1
.Ltmp33:
	.loc	2 191 17                        @ rt-thread/components/drivers/wlan/wlan_prot.c:191:17
	ldr	r0, [sp, #16]
.Ltmp34:
	.loc	2 191 5                         @ rt-thread/components/drivers/wlan/wlan_prot.c:191:5
	cmp	r0, #1
	bgt	.LBB2_16
	b	.LBB2_11
.LBB2_11:                               @   in Loop: Header=BB2_10 Depth=1
.Ltmp35:
	.loc	2 193 20 is_stmt 1              @ rt-thread/components/drivers/wlan/wlan_prot.c:193:20
	ldr	r1, [sp, #16]
	.loc	2 193 14 is_stmt 0              @ rt-thread/components/drivers/wlan/wlan_prot.c:193:14
	movw	r0, :lower16:_prot
	movt	r0, :upper16:_prot
	ldr.w	r0, [r0, r1, lsl #2]
	.loc	2 193 35                        @ rt-thread/components/drivers/wlan/wlan_prot.c:193:35
	cbz	r0, .LBB2_14
	b	.LBB2_12
.LBB2_12:                               @   in Loop: Header=BB2_10 Depth=1
	.loc	2 193 55                        @ rt-thread/components/drivers/wlan/wlan_prot.c:193:55
	ldr	r1, [sp, #16]
	.loc	2 193 49                        @ rt-thread/components/drivers/wlan/wlan_prot.c:193:49
	movw	r0, :lower16:_prot
	movt	r0, :upper16:_prot
	ldr.w	r0, [r0, r1, lsl #2]
	.loc	2 193 65                        @ rt-thread/components/drivers/wlan/wlan_prot.c:193:65
	ldr	r1, [sp, #20]
	.loc	2 193 39                        @ rt-thread/components/drivers/wlan/wlan_prot.c:193:39
	bl	rt_strcmp
.Ltmp36:
	.loc	2 193 13                        @ rt-thread/components/drivers/wlan/wlan_prot.c:193:13
	cbnz	r0, .LBB2_14
	b	.LBB2_13
.LBB2_13:
.Ltmp37:
	.loc	2 196 32 is_stmt 1              @ rt-thread/components/drivers/wlan/wlan_prot.c:196:32
	ldr	r1, [sp, #16]
	.loc	2 196 26 is_stmt 0              @ rt-thread/components/drivers/wlan/wlan_prot.c:196:26
	movw	r0, :lower16:_prot
	movt	r0, :upper16:_prot
	ldr.w	r0, [r0, r1, lsl #2]
	.loc	2 196 36                        @ rt-thread/components/drivers/wlan/wlan_prot.c:196:36
	ldr	r1, [r0, #12]
	.loc	2 196 41                        @ rt-thread/components/drivers/wlan/wlan_prot.c:196:41
	ldr	r2, [r1, #4]
	.loc	2 196 68                        @ rt-thread/components/drivers/wlan/wlan_prot.c:196:68
	ldr	r1, [sp, #24]
	.loc	2 196 26                        @ rt-thread/components/drivers/wlan/wlan_prot.c:196:26
	blx	r2
	.loc	2 196 13                        @ rt-thread/components/drivers/wlan/wlan_prot.c:196:13
	ldr	r1, [sp, #24]
	.loc	2 196 24                        @ rt-thread/components/drivers/wlan/wlan_prot.c:196:24
	str.w	r0, [r1, #316]
	.loc	2 197 13 is_stmt 1              @ rt-thread/components/drivers/wlan/wlan_prot.c:197:13
	b	.LBB2_16
.Ltmp38:
.LBB2_14:                               @   in Loop: Header=BB2_10 Depth=1
	.loc	2 199 5                         @ rt-thread/components/drivers/wlan/wlan_prot.c:199:5
	b	.LBB2_15
.Ltmp39:
.LBB2_15:                               @   in Loop: Header=BB2_10 Depth=1
	.loc	2 191 40                        @ rt-thread/components/drivers/wlan/wlan_prot.c:191:40
	ldr	r0, [sp, #16]
	adds	r0, #1
	str	r0, [sp, #16]
	.loc	2 191 5 is_stmt 0               @ rt-thread/components/drivers/wlan/wlan_prot.c:191:5
	b	.LBB2_10
.Ltmp40:
.LBB2_16:
	.loc	2 201 9 is_stmt 1               @ rt-thread/components/drivers/wlan/wlan_prot.c:201:9
	ldr	r0, [sp, #16]
.Ltmp41:
	.loc	2 201 9 is_stmt 0               @ rt-thread/components/drivers/wlan/wlan_prot.c:201:9
	cmp	r0, #2
	blt	.LBB2_20
	b	.LBB2_17
.LBB2_17:
.Ltmp42:
	.loc	2 203 9 is_stmt 1               @ rt-thread/components/drivers/wlan/wlan_prot.c:203:9
	b	.LBB2_18
.LBB2_18:
.Ltmp43:
	.loc	2 203 9 is_stmt 0               @ rt-thread/components/drivers/wlan/wlan_prot.c:203:9
	movw	r0, :lower16:.L.str
	movt	r0, :upper16:.L.str
	bl	rt_kprintf
	movw	r0, :lower16:.L.str.3
	movt	r0, :upper16:.L.str.3
	movw	r1, :lower16:.L__FUNCTION__.rt_wlan_prot_attach_dev
	movt	r1, :upper16:.L__FUNCTION__.rt_wlan_prot_attach_dev
	movs	r2, #203
	bl	rt_kprintf
	movw	r0, :lower16:.L.str.2
	movt	r0, :upper16:.L.str.2
	bl	rt_kprintf
	b	.LBB2_19
.Ltmp44:
.LBB2_19:
	.loc	2 0 9                           @ rt-thread/components/drivers/wlan/wlan_prot.c:0:9
	mov.w	r0, #-1
	.loc	2 204 9 is_stmt 1               @ rt-thread/components/drivers/wlan/wlan_prot.c:204:9
	str	r0, [sp, #28]
	b	.LBB2_21
.Ltmp45:
.LBB2_20:
	.loc	2 207 40                        @ rt-thread/components/drivers/wlan/wlan_prot.c:207:40
	ldr	r0, [sp, #24]
	.loc	2 207 71 is_stmt 0              @ rt-thread/components/drivers/wlan/wlan_prot.c:207:71
	ldr	r2, [sp, #8]
	movs	r1, #1
	movs	r3, #0
	.loc	2 207 5                         @ rt-thread/components/drivers/wlan/wlan_prot.c:207:5
	str	r3, [sp, #4]                    @ 4-byte Spill
	bl	rt_wlan_dev_register_event_handler
	ldr	r3, [sp, #4]                    @ 4-byte Reload
	.loc	2 208 40 is_stmt 1              @ rt-thread/components/drivers/wlan/wlan_prot.c:208:40
	ldr	r0, [sp, #24]
	.loc	2 208 74 is_stmt 0              @ rt-thread/components/drivers/wlan/wlan_prot.c:208:74
	ldr	r2, [sp, #8]
	movs	r1, #3
	.loc	2 208 5                         @ rt-thread/components/drivers/wlan/wlan_prot.c:208:5
	bl	rt_wlan_dev_register_event_handler
	ldr	r3, [sp, #4]                    @ 4-byte Reload
	.loc	2 209 40 is_stmt 1              @ rt-thread/components/drivers/wlan/wlan_prot.c:209:40
	ldr	r0, [sp, #24]
	.loc	2 209 72 is_stmt 0              @ rt-thread/components/drivers/wlan/wlan_prot.c:209:72
	ldr	r2, [sp, #8]
	movs	r1, #4
	.loc	2 209 5                         @ rt-thread/components/drivers/wlan/wlan_prot.c:209:5
	bl	rt_wlan_dev_register_event_handler
	ldr	r3, [sp, #4]                    @ 4-byte Reload
	.loc	2 210 40 is_stmt 1              @ rt-thread/components/drivers/wlan/wlan_prot.c:210:40
	ldr	r0, [sp, #24]
	.loc	2 210 71 is_stmt 0              @ rt-thread/components/drivers/wlan/wlan_prot.c:210:71
	ldr	r2, [sp, #8]
	movs	r1, #5
	.loc	2 210 5                         @ rt-thread/components/drivers/wlan/wlan_prot.c:210:5
	bl	rt_wlan_dev_register_event_handler
	ldr	r3, [sp, #4]                    @ 4-byte Reload
	.loc	2 211 40 is_stmt 1              @ rt-thread/components/drivers/wlan/wlan_prot.c:211:40
	ldr	r0, [sp, #24]
	.loc	2 211 77 is_stmt 0              @ rt-thread/components/drivers/wlan/wlan_prot.c:211:77
	ldr	r2, [sp, #8]
	movs	r1, #6
	.loc	2 211 5                         @ rt-thread/components/drivers/wlan/wlan_prot.c:211:5
	bl	rt_wlan_dev_register_event_handler
	ldr	r3, [sp, #4]                    @ 4-byte Reload
	.loc	2 212 40 is_stmt 1              @ rt-thread/components/drivers/wlan/wlan_prot.c:212:40
	ldr	r0, [sp, #24]
	.loc	2 212 80 is_stmt 0              @ rt-thread/components/drivers/wlan/wlan_prot.c:212:80
	ldr	r2, [sp, #8]
	movs	r1, #7
	.loc	2 212 5                         @ rt-thread/components/drivers/wlan/wlan_prot.c:212:5
	bl	rt_wlan_dev_register_event_handler
                                        @ kill: def $r1 killed $r0
	.loc	2 214 5 is_stmt 1               @ rt-thread/components/drivers/wlan/wlan_prot.c:214:5
	ldr	r0, [sp, #4]                    @ 4-byte Reload
	str	r0, [sp, #28]
	b	.LBB2_21
.LBB2_21:
	.loc	2 215 1                         @ rt-thread/components/drivers/wlan/wlan_prot.c:215:1
	ldr	r0, [sp, #28]
	add	sp, #32
	pop	{r7, pc}
.Ltmp46:
.Lfunc_end2:
	.size	rt_wlan_prot_attach_dev, .Lfunc_end2-rt_wlan_prot_attach_dev
	.cfi_endproc
	.cantunwind
	.fnend
                                        @ -- End function
	.section	.text.rt_wlan_prot_detach,"ax",%progbits
	.hidden	rt_wlan_prot_detach             @ -- Begin function rt_wlan_prot_detach
	.globl	rt_wlan_prot_detach
	.p2align	3
	.type	rt_wlan_prot_detach,%function
	.code	16                              @ @rt_wlan_prot_detach
	.thumb_func
rt_wlan_prot_detach:
.Lfunc_begin3:
	.loc	2 150 0                         @ rt-thread/components/drivers/wlan/wlan_prot.c:150:0
	.fnstart
	.cfi_startproc
@ %bb.0:
	.save	{r7, lr}
	push	{r7, lr}
	.cfi_def_cfa_offset 8
	.cfi_offset lr, -4
	.cfi_offset r7, -8
	.pad	#16
	sub	sp, #16
	.cfi_def_cfa_offset 24
	str	r0, [sp, #8]
.Ltmp47:
	.loc	2 153 38 prologue_end           @ rt-thread/components/drivers/wlan/wlan_prot.c:153:38
	ldr	r0, [sp, #8]
	.loc	2 153 12 is_stmt 0              @ rt-thread/components/drivers/wlan/wlan_prot.c:153:12
	bl	rt_wlan_prot_find_by_name
	.loc	2 153 10                        @ rt-thread/components/drivers/wlan/wlan_prot.c:153:10
	str	r0, [sp, #4]
.Ltmp48:
	.loc	2 154 9 is_stmt 1               @ rt-thread/components/drivers/wlan/wlan_prot.c:154:9
	ldr	r0, [sp, #4]
.Ltmp49:
	.loc	2 154 9 is_stmt 0               @ rt-thread/components/drivers/wlan/wlan_prot.c:154:9
	cbnz	r0, .LBB3_2
	b	.LBB3_1
.LBB3_1:
	.loc	2 0 9                           @ rt-thread/components/drivers/wlan/wlan_prot.c:0:9
	mov.w	r0, #-1
.Ltmp50:
	.loc	2 156 9 is_stmt 1               @ rt-thread/components/drivers/wlan/wlan_prot.c:156:9
	str	r0, [sp, #12]
	b	.LBB3_3
.Ltmp51:
.LBB3_2:
	.loc	2 158 36                        @ rt-thread/components/drivers/wlan/wlan_prot.c:158:36
	ldr	r0, [sp, #4]
	.loc	2 158 12 is_stmt 0              @ rt-thread/components/drivers/wlan/wlan_prot.c:158:12
	bl	rt_wlan_prot_detach_dev
	.loc	2 158 5                         @ rt-thread/components/drivers/wlan/wlan_prot.c:158:5
	str	r0, [sp, #12]
	b	.LBB3_3
.LBB3_3:
	.loc	2 159 1 is_stmt 1               @ rt-thread/components/drivers/wlan/wlan_prot.c:159:1
	ldr	r0, [sp, #12]
	add	sp, #16
	pop	{r7, pc}
.Ltmp52:
.Lfunc_end3:
	.size	rt_wlan_prot_detach, .Lfunc_end3-rt_wlan_prot_detach
	.cfi_endproc
	.cantunwind
	.fnend
                                        @ -- End function
	.section	.text.rt_wlan_prot_detach_dev,"ax",%progbits
	.hidden	rt_wlan_prot_detach_dev         @ -- Begin function rt_wlan_prot_detach_dev
	.globl	rt_wlan_prot_detach_dev
	.p2align	3
	.type	rt_wlan_prot_detach_dev,%function
	.code	16                              @ @rt_wlan_prot_detach_dev
	.thumb_func
rt_wlan_prot_detach_dev:
.Lfunc_begin4:
	.loc	2 218 0                         @ rt-thread/components/drivers/wlan/wlan_prot.c:218:0
	.fnstart
	.cfi_startproc
@ %bb.0:
	.save	{r7, lr}
	push	{r7, lr}
	.cfi_def_cfa_offset 8
	.cfi_offset lr, -4
	.cfi_offset r7, -8
	.pad	#16
	sub	sp, #16
	.cfi_def_cfa_offset 24
	str	r0, [sp, #8]
.Ltmp53:
	.loc	2 219 33 prologue_end           @ rt-thread/components/drivers/wlan/wlan_prot.c:219:33
	ldr	r0, [sp, #8]
	.loc	2 219 39 is_stmt 0              @ rt-thread/components/drivers/wlan/wlan_prot.c:219:39
	ldr.w	r0, [r0, #316]
	.loc	2 219 26                        @ rt-thread/components/drivers/wlan/wlan_prot.c:219:26
	str	r0, [sp, #4]
.Ltmp54:
	.loc	2 222 9 is_stmt 1               @ rt-thread/components/drivers/wlan/wlan_prot.c:222:9
	ldr	r0, [sp, #4]
.Ltmp55:
	.loc	2 222 9 is_stmt 0               @ rt-thread/components/drivers/wlan/wlan_prot.c:222:9
	cbnz	r0, .LBB4_2
	b	.LBB4_1
.LBB4_1:
	.loc	2 0 9                           @ rt-thread/components/drivers/wlan/wlan_prot.c:0:9
	movs	r0, #0
.Ltmp56:
	.loc	2 223 9 is_stmt 1               @ rt-thread/components/drivers/wlan/wlan_prot.c:223:9
	str	r0, [sp, #12]
	b	.LBB4_7
.Ltmp57:
.LBB4_2:
	.loc	2 0 9 is_stmt 0                 @ rt-thread/components/drivers/wlan/wlan_prot.c:0:9
	movs	r0, #0
.Ltmp58:
	.loc	2 225 16 is_stmt 1              @ rt-thread/components/drivers/wlan/wlan_prot.c:225:16
	strb.w	r0, [sp, #3]
	.loc	2 225 10 is_stmt 0              @ rt-thread/components/drivers/wlan/wlan_prot.c:225:10
	b	.LBB4_3
.LBB4_3:                                @ =>This Inner Loop Header: Depth=1
.Ltmp59:
	.loc	2 225 45                        @ rt-thread/components/drivers/wlan/wlan_prot.c:225:45
	ldrb.w	r0, [sp, #3]
.Ltmp60:
	.loc	2 225 5                         @ rt-thread/components/drivers/wlan/wlan_prot.c:225:5
	cmp	r0, #10
	bgt	.LBB4_6
	b	.LBB4_4
.LBB4_4:                                @   in Loop: Header=BB4_3 Depth=1
.Ltmp61:
	.loc	2 227 46 is_stmt 1              @ rt-thread/components/drivers/wlan/wlan_prot.c:227:46
	ldr	r0, [sp, #8]
	.loc	2 227 52 is_stmt 0              @ rt-thread/components/drivers/wlan/wlan_prot.c:227:52
	ldrb.w	r1, [sp, #3]
	.loc	2 227 9                         @ rt-thread/components/drivers/wlan/wlan_prot.c:227:9
	movw	r2, :lower16:rt_wlan_prot_event_handle
	movt	r2, :upper16:rt_wlan_prot_event_handle
	bl	rt_wlan_dev_unregister_event_handler
	.loc	2 228 5 is_stmt 1               @ rt-thread/components/drivers/wlan/wlan_prot.c:228:5
	b	.LBB4_5
.Ltmp62:
.LBB4_5:                                @   in Loop: Header=BB4_3 Depth=1
	.loc	2 225 80                        @ rt-thread/components/drivers/wlan/wlan_prot.c:225:80
	ldrb.w	r0, [sp, #3]
	adds	r0, #1
	strb.w	r0, [sp, #3]
	.loc	2 225 5 is_stmt 0               @ rt-thread/components/drivers/wlan/wlan_prot.c:225:5
	b	.LBB4_3
.Ltmp63:
.LBB4_6:
	.loc	2 231 5 is_stmt 1               @ rt-thread/components/drivers/wlan/wlan_prot.c:231:5
	ldr	r0, [sp, #4]
	.loc	2 231 11 is_stmt 0              @ rt-thread/components/drivers/wlan/wlan_prot.c:231:11
	ldr	r1, [r0, #12]
	.loc	2 231 16                        @ rt-thread/components/drivers/wlan/wlan_prot.c:231:16
	ldr	r2, [r1, #8]
	.loc	2 231 41                        @ rt-thread/components/drivers/wlan/wlan_prot.c:231:41
	ldr	r1, [sp, #8]
	.loc	2 231 5                         @ rt-thread/components/drivers/wlan/wlan_prot.c:231:5
	blx	r2
	.loc	2 232 5 is_stmt 1               @ rt-thread/components/drivers/wlan/wlan_prot.c:232:5
	ldr	r1, [sp, #8]
	movs	r0, #0
	.loc	2 232 16 is_stmt 0              @ rt-thread/components/drivers/wlan/wlan_prot.c:232:16
	str.w	r0, [r1, #316]
	.loc	2 234 5 is_stmt 1               @ rt-thread/components/drivers/wlan/wlan_prot.c:234:5
	str	r0, [sp, #12]
	b	.LBB4_7
.LBB4_7:
	.loc	2 235 1                         @ rt-thread/components/drivers/wlan/wlan_prot.c:235:1
	ldr	r0, [sp, #12]
	add	sp, #16
	pop	{r7, pc}
.Ltmp64:
.Lfunc_end4:
	.size	rt_wlan_prot_detach_dev, .Lfunc_end4-rt_wlan_prot_detach_dev
	.cfi_endproc
	.cantunwind
	.fnend
                                        @ -- End function
	.section	.text.rt_wlan_prot_event_handle,"ax",%progbits
	.p2align	3                               @ -- Begin function rt_wlan_prot_event_handle
	.type	rt_wlan_prot_event_handle,%function
	.code	16                              @ @rt_wlan_prot_event_handle
	.thumb_func
rt_wlan_prot_event_handle:
.Lfunc_begin5:
	.loc	2 41 0                          @ rt-thread/components/drivers/wlan/wlan_prot.c:41:0
	.fnstart
	.cfi_startproc
@ %bb.0:
	.save	{r7, lr}
	push	{r7, lr}
	.cfi_def_cfa_offset 8
	.cfi_offset lr, -4
	.cfi_offset r7, -8
	.pad	#40
	sub	sp, #40
	.cfi_def_cfa_offset 48
                                        @ kill: def $r12 killed $r1
	str	r0, [sp, #36]
	strb.w	r1, [sp, #35]
	str	r2, [sp, #28]
	str	r3, [sp, #24]
.Ltmp65:
	.loc	2 50 17 prologue_end            @ rt-thread/components/drivers/wlan/wlan_prot.c:50:17
	ldr	r0, [sp, #36]
	.loc	2 50 23 is_stmt 0               @ rt-thread/components/drivers/wlan/wlan_prot.c:50:23
	ldr.w	r0, [r0, #316]
	.loc	2 50 15                         @ rt-thread/components/drivers/wlan/wlan_prot.c:50:15
	str	r0, [sp, #16]
	movs	r0, #0
	.loc	2 51 13 is_stmt 1               @ rt-thread/components/drivers/wlan/wlan_prot.c:51:13
	str	r0, [sp, #8]
	.loc	2 52 10                         @ rt-thread/components/drivers/wlan/wlan_prot.c:52:10
	str	r0, [sp, #12]
	.loc	2 53 13                         @ rt-thread/components/drivers/wlan/wlan_prot.c:53:13
	ldrb.w	r0, [sp, #35]
	.loc	2 53 5 is_stmt 0                @ rt-thread/components/drivers/wlan/wlan_prot.c:53:5
	mov	r1, r0
	str	r1, [sp]                        @ 4-byte Spill
	cmp	r0, #7
	bhi	.LBB5_10
@ %bb.1:
	.loc	2 0 5                           @ rt-thread/components/drivers/wlan/wlan_prot.c:0:5
	ldr	r1, [sp]                        @ 4-byte Reload
.LCPI5_0:
	tbb	[pc, r1]
@ %bb.2:
.LJTI5_0:
	.byte	(.LBB5_3-(.LCPI5_0+4))/2
	.byte	(.LBB5_4-(.LCPI5_0+4))/2
	.byte	(.LBB5_10-(.LCPI5_0+4))/2
	.byte	(.LBB5_5-(.LCPI5_0+4))/2
	.byte	(.LBB5_6-(.LCPI5_0+4))/2
	.byte	(.LBB5_7-(.LCPI5_0+4))/2
	.byte	(.LBB5_8-(.LCPI5_0+4))/2
	.byte	(.LBB5_9-(.LCPI5_0+4))/2
	.p2align	1
.LBB5_3:
	movs	r0, #0
.Ltmp66:
	.loc	2 58 20 is_stmt 1               @ rt-thread/components/drivers/wlan/wlan_prot.c:58:20
	strb.w	r0, [sp, #7]
	.loc	2 59 9                          @ rt-thread/components/drivers/wlan/wlan_prot.c:59:9
	b	.LBB5_11
.Ltmp67:
.LBB5_4:
	.loc	2 0 9 is_stmt 0                 @ rt-thread/components/drivers/wlan/wlan_prot.c:0:9
	movs	r0, #1
.Ltmp68:
	.loc	2 64 20 is_stmt 1               @ rt-thread/components/drivers/wlan/wlan_prot.c:64:20
	strb.w	r0, [sp, #7]
	.loc	2 65 9                          @ rt-thread/components/drivers/wlan/wlan_prot.c:65:9
	b	.LBB5_11
.Ltmp69:
.LBB5_5:
	.loc	2 0 9 is_stmt 0                 @ rt-thread/components/drivers/wlan/wlan_prot.c:0:9
	movs	r0, #2
.Ltmp70:
	.loc	2 70 20 is_stmt 1               @ rt-thread/components/drivers/wlan/wlan_prot.c:70:20
	strb.w	r0, [sp, #7]
	.loc	2 71 9                          @ rt-thread/components/drivers/wlan/wlan_prot.c:71:9
	b	.LBB5_11
.Ltmp71:
.LBB5_6:
	.loc	2 0 9 is_stmt 0                 @ rt-thread/components/drivers/wlan/wlan_prot.c:0:9
	movs	r0, #3
.Ltmp72:
	.loc	2 76 20 is_stmt 1               @ rt-thread/components/drivers/wlan/wlan_prot.c:76:20
	strb.w	r0, [sp, #7]
	.loc	2 77 9                          @ rt-thread/components/drivers/wlan/wlan_prot.c:77:9
	b	.LBB5_11
.Ltmp73:
.LBB5_7:
	.loc	2 0 9 is_stmt 0                 @ rt-thread/components/drivers/wlan/wlan_prot.c:0:9
	movs	r0, #4
.Ltmp74:
	.loc	2 82 20 is_stmt 1               @ rt-thread/components/drivers/wlan/wlan_prot.c:82:20
	strb.w	r0, [sp, #7]
	.loc	2 83 9                          @ rt-thread/components/drivers/wlan/wlan_prot.c:83:9
	b	.LBB5_11
.Ltmp75:
.LBB5_8:
	.loc	2 0 9 is_stmt 0                 @ rt-thread/components/drivers/wlan/wlan_prot.c:0:9
	movs	r0, #5
.Ltmp76:
	.loc	2 88 20 is_stmt 1               @ rt-thread/components/drivers/wlan/wlan_prot.c:88:20
	strb.w	r0, [sp, #7]
	.loc	2 89 9                          @ rt-thread/components/drivers/wlan/wlan_prot.c:89:9
	b	.LBB5_11
.Ltmp77:
.LBB5_9:
	.loc	2 0 9 is_stmt 0                 @ rt-thread/components/drivers/wlan/wlan_prot.c:0:9
	movs	r0, #6
.Ltmp78:
	.loc	2 94 20 is_stmt 1               @ rt-thread/components/drivers/wlan/wlan_prot.c:94:20
	strb.w	r0, [sp, #7]
	.loc	2 95 9                          @ rt-thread/components/drivers/wlan/wlan_prot.c:95:9
	b	.LBB5_11
.Ltmp79:
.LBB5_10:
	.loc	2 99 9                          @ rt-thread/components/drivers/wlan/wlan_prot.c:99:9
	b	.LBB5_20
.Ltmp80:
.LBB5_11:
	.loc	2 0 9 is_stmt 0                 @ rt-thread/components/drivers/wlan/wlan_prot.c:0:9
	movs	r0, #0
.Ltmp81:
	.loc	2 102 12 is_stmt 1              @ rt-thread/components/drivers/wlan/wlan_prot.c:102:12
	str	r0, [sp, #20]
	.loc	2 102 10 is_stmt 0              @ rt-thread/components/drivers/wlan/wlan_prot.c:102:10
	b	.LBB5_12
.LBB5_12:                               @ =>This Inner Loop Header: Depth=1
.Ltmp82:
	.loc	2 102 17                        @ rt-thread/components/drivers/wlan/wlan_prot.c:102:17
	ldr	r0, [sp, #20]
.Ltmp83:
	.loc	2 102 5                         @ rt-thread/components/drivers/wlan/wlan_prot.c:102:5
	cmp	r0, #1
	bgt	.LBB5_18
	b	.LBB5_13
.LBB5_13:                               @   in Loop: Header=BB5_12 Depth=1
.Ltmp84:
	.loc	2 104 29 is_stmt 1              @ rt-thread/components/drivers/wlan/wlan_prot.c:104:29
	ldrb.w	r1, [sp, #7]
	.loc	2 104 14 is_stmt 0              @ rt-thread/components/drivers/wlan/wlan_prot.c:104:14
	movw	r0, :lower16:prot_event_tab
	movt	r0, :upper16:prot_event_tab
	add.w	r0, r0, r1, lsl #4
	.loc	2 104 41                        @ rt-thread/components/drivers/wlan/wlan_prot.c:104:41
	ldr	r1, [sp, #20]
	.loc	2 104 44                        @ rt-thread/components/drivers/wlan/wlan_prot.c:104:44
	ldr.w	r0, [r0, r1, lsl #3]
	.loc	2 104 64                        @ rt-thread/components/drivers/wlan/wlan_prot.c:104:64
	cbz	r0, .LBB5_16
	b	.LBB5_14
.LBB5_14:                               @   in Loop: Header=BB5_12 Depth=1
	.loc	2 105 33 is_stmt 1              @ rt-thread/components/drivers/wlan/wlan_prot.c:105:33
	ldrb.w	r1, [sp, #7]
	.loc	2 105 18 is_stmt 0              @ rt-thread/components/drivers/wlan/wlan_prot.c:105:18
	movw	r0, :lower16:prot_event_tab
	movt	r0, :upper16:prot_event_tab
	add.w	r0, r0, r1, lsl #4
	.loc	2 105 45                        @ rt-thread/components/drivers/wlan/wlan_prot.c:105:45
	ldr	r1, [sp, #20]
	.loc	2 105 18                        @ rt-thread/components/drivers/wlan/wlan_prot.c:105:18
	add.w	r0, r0, r1, lsl #3
	.loc	2 105 48                        @ rt-thread/components/drivers/wlan/wlan_prot.c:105:48
	ldr	r0, [r0, #4]
	.loc	2 105 54                        @ rt-thread/components/drivers/wlan/wlan_prot.c:105:54
	ldr	r0, [r0, #8]
	.loc	2 105 60                        @ rt-thread/components/drivers/wlan/wlan_prot.c:105:60
	ldr	r1, [sp, #16]
	.loc	2 105 71                        @ rt-thread/components/drivers/wlan/wlan_prot.c:105:71
	ldr	r1, [r1, #8]
.Ltmp85:
	.loc	2 104 13 is_stmt 1              @ rt-thread/components/drivers/wlan/wlan_prot.c:104:13
	cmp	r0, r1
	bne	.LBB5_16
	b	.LBB5_15
.LBB5_15:
.Ltmp86:
	.loc	2 107 38                        @ rt-thread/components/drivers/wlan/wlan_prot.c:107:38
	ldrb.w	r1, [sp, #7]
	.loc	2 107 23 is_stmt 0              @ rt-thread/components/drivers/wlan/wlan_prot.c:107:23
	movw	r0, :lower16:prot_event_tab
	movt	r0, :upper16:prot_event_tab
	add.w	r1, r0, r1, lsl #4
	.loc	2 107 50                        @ rt-thread/components/drivers/wlan/wlan_prot.c:107:50
	ldr	r2, [sp, #20]
	.loc	2 107 53                        @ rt-thread/components/drivers/wlan/wlan_prot.c:107:53
	ldr.w	r1, [r1, r2, lsl #3]
	.loc	2 107 21                        @ rt-thread/components/drivers/wlan/wlan_prot.c:107:21
	str	r1, [sp, #8]
	.loc	2 108 35 is_stmt 1              @ rt-thread/components/drivers/wlan/wlan_prot.c:108:35
	ldrb.w	r1, [sp, #7]
	.loc	2 108 20 is_stmt 0              @ rt-thread/components/drivers/wlan/wlan_prot.c:108:20
	add.w	r0, r0, r1, lsl #4
	.loc	2 108 47                        @ rt-thread/components/drivers/wlan/wlan_prot.c:108:47
	ldr	r1, [sp, #20]
	.loc	2 108 20                        @ rt-thread/components/drivers/wlan/wlan_prot.c:108:20
	add.w	r0, r0, r1, lsl #3
	.loc	2 108 50                        @ rt-thread/components/drivers/wlan/wlan_prot.c:108:50
	ldr	r0, [r0, #4]
	.loc	2 108 18                        @ rt-thread/components/drivers/wlan/wlan_prot.c:108:18
	str	r0, [sp, #12]
	.loc	2 109 13 is_stmt 1              @ rt-thread/components/drivers/wlan/wlan_prot.c:109:13
	b	.LBB5_18
.Ltmp87:
.LBB5_16:                               @   in Loop: Header=BB5_12 Depth=1
	.loc	2 111 5                         @ rt-thread/components/drivers/wlan/wlan_prot.c:111:5
	b	.LBB5_17
.Ltmp88:
.LBB5_17:                               @   in Loop: Header=BB5_12 Depth=1
	.loc	2 102 40                        @ rt-thread/components/drivers/wlan/wlan_prot.c:102:40
	ldr	r0, [sp, #20]
	adds	r0, #1
	str	r0, [sp, #20]
	.loc	2 102 5 is_stmt 0               @ rt-thread/components/drivers/wlan/wlan_prot.c:102:5
	b	.LBB5_12
.Ltmp89:
.LBB5_18:
	.loc	2 113 9 is_stmt 1               @ rt-thread/components/drivers/wlan/wlan_prot.c:113:9
	ldr	r0, [sp, #8]
.Ltmp90:
	.loc	2 113 9 is_stmt 0               @ rt-thread/components/drivers/wlan/wlan_prot.c:113:9
	cbz	r0, .LBB5_20
	b	.LBB5_19
.LBB5_19:
.Ltmp91:
	.loc	2 115 9 is_stmt 1               @ rt-thread/components/drivers/wlan/wlan_prot.c:115:9
	ldr	r3, [sp, #8]
	.loc	2 115 17 is_stmt 0              @ rt-thread/components/drivers/wlan/wlan_prot.c:115:17
	ldr	r0, [sp, #12]
	.loc	2 115 23                        @ rt-thread/components/drivers/wlan/wlan_prot.c:115:23
	ldr	r1, [sp, #36]
	.loc	2 115 29                        @ rt-thread/components/drivers/wlan/wlan_prot.c:115:29
	ldrb.w	r2, [sp, #7]
	.loc	2 115 9                         @ rt-thread/components/drivers/wlan/wlan_prot.c:115:9
	blx	r3
	.loc	2 116 5 is_stmt 1               @ rt-thread/components/drivers/wlan/wlan_prot.c:116:5
	b	.LBB5_20
.Ltmp92:
.LBB5_20:
	.loc	2 117 1                         @ rt-thread/components/drivers/wlan/wlan_prot.c:117:1
	add	sp, #40
	pop	{r7, pc}
.Ltmp93:
.Lfunc_end5:
	.size	rt_wlan_prot_event_handle, .Lfunc_end5-rt_wlan_prot_event_handle
	.cfi_endproc
	.cantunwind
	.fnend
                                        @ -- End function
	.section	.text.rt_wlan_prot_regisetr,"ax",%progbits
	.hidden	rt_wlan_prot_regisetr           @ -- Begin function rt_wlan_prot_regisetr
	.globl	rt_wlan_prot_regisetr
	.p2align	3
	.type	rt_wlan_prot_regisetr,%function
	.code	16                              @ @rt_wlan_prot_regisetr
	.thumb_func
rt_wlan_prot_regisetr:
.Lfunc_begin6:
	.loc	2 238 0                         @ rt-thread/components/drivers/wlan/wlan_prot.c:238:0
	.fnstart
	.cfi_startproc
@ %bb.0:
	.save	{r7, lr}
	push	{r7, lr}
	.cfi_def_cfa_offset 8
	.cfi_offset lr, -4
	.cfi_offset r7, -8
	.pad	#16
	sub	sp, #16
	.cfi_def_cfa_offset 24
	str	r0, [sp, #8]
.Ltmp94:
	.loc	2 244 10 prologue_end           @ rt-thread/components/drivers/wlan/wlan_prot.c:244:10
	ldr	r0, [sp, #8]
	.loc	2 244 27 is_stmt 0              @ rt-thread/components/drivers/wlan/wlan_prot.c:244:27
	cbz	r0, .LBB6_3
	b	.LBB6_1
.LBB6_1:
	.loc	2 245 14 is_stmt 1              @ rt-thread/components/drivers/wlan/wlan_prot.c:245:14
	ldr	r0, [sp, #8]
	.loc	2 245 20 is_stmt 0              @ rt-thread/components/drivers/wlan/wlan_prot.c:245:20
	ldr	r0, [r0, #12]
	.loc	2 245 25                        @ rt-thread/components/drivers/wlan/wlan_prot.c:245:25
	ldr	r0, [r0]
	.loc	2 245 47                        @ rt-thread/components/drivers/wlan/wlan_prot.c:245:47
	cbz	r0, .LBB6_3
	b	.LBB6_2
.LBB6_2:
	.loc	2 246 14 is_stmt 1              @ rt-thread/components/drivers/wlan/wlan_prot.c:246:14
	ldr	r0, [sp, #8]
	.loc	2 246 20 is_stmt 0              @ rt-thread/components/drivers/wlan/wlan_prot.c:246:20
	ldr	r0, [r0, #12]
	.loc	2 246 25                        @ rt-thread/components/drivers/wlan/wlan_prot.c:246:25
	ldr	r0, [r0, #4]
.Ltmp95:
	.loc	2 244 9 is_stmt 1               @ rt-thread/components/drivers/wlan/wlan_prot.c:244:9
	cbnz	r0, .LBB6_6
	b	.LBB6_3
.LBB6_3:
.Ltmp96:
	.loc	2 248 9                         @ rt-thread/components/drivers/wlan/wlan_prot.c:248:9
	b	.LBB6_4
.LBB6_4:
.Ltmp97:
	.loc	2 248 9 is_stmt 0               @ rt-thread/components/drivers/wlan/wlan_prot.c:248:9
	movw	r0, :lower16:.L.str
	movt	r0, :upper16:.L.str
	bl	rt_kprintf
	movw	r0, :lower16:.L.str.4
	movt	r0, :upper16:.L.str.4
	movw	r1, :lower16:.L__FUNCTION__.rt_wlan_prot_regisetr
	movt	r1, :upper16:.L__FUNCTION__.rt_wlan_prot_regisetr
	movs	r2, #248
	bl	rt_kprintf
	movw	r0, :lower16:.L.str.2
	movt	r0, :upper16:.L.str.2
	bl	rt_kprintf
	b	.LBB6_5
.Ltmp98:
.LBB6_5:
	.loc	2 0 9                           @ rt-thread/components/drivers/wlan/wlan_prot.c:0:9
	mvn	r0, #9
	.loc	2 249 9 is_stmt 1               @ rt-thread/components/drivers/wlan/wlan_prot.c:249:9
	str	r0, [sp, #12]
	b	.LBB6_20
.Ltmp99:
.LBB6_6:
	.loc	2 0 9 is_stmt 0                 @ rt-thread/components/drivers/wlan/wlan_prot.c:0:9
	movs	r0, #0
.Ltmp100:
	.loc	2 253 12 is_stmt 1              @ rt-thread/components/drivers/wlan/wlan_prot.c:253:12
	str	r0, [sp, #4]
	.loc	2 253 10 is_stmt 0              @ rt-thread/components/drivers/wlan/wlan_prot.c:253:10
	b	.LBB6_7
.LBB6_7:                                @ =>This Inner Loop Header: Depth=1
.Ltmp101:
	.loc	2 253 17                        @ rt-thread/components/drivers/wlan/wlan_prot.c:253:17
	ldr	r0, [sp, #4]
.Ltmp102:
	.loc	2 253 5                         @ rt-thread/components/drivers/wlan/wlan_prot.c:253:5
	cmp	r0, #1
	bgt	.LBB6_15
	b	.LBB6_8
.LBB6_8:                                @   in Loop: Header=BB6_7 Depth=1
.Ltmp103:
	.loc	2 255 19 is_stmt 1              @ rt-thread/components/drivers/wlan/wlan_prot.c:255:19
	ldr	r1, [sp, #4]
	.loc	2 255 13 is_stmt 0              @ rt-thread/components/drivers/wlan/wlan_prot.c:255:13
	movw	r0, :lower16:_prot
	movt	r0, :upper16:_prot
	ldr.w	r0, [r0, r1, lsl #2]
.Ltmp104:
	.loc	2 255 13                        @ rt-thread/components/drivers/wlan/wlan_prot.c:255:13
	cbnz	r0, .LBB6_10
	b	.LBB6_9
.LBB6_9:
.Ltmp105:
	.loc	2 257 46 is_stmt 1              @ rt-thread/components/drivers/wlan/wlan_prot.c:257:46
	movw	r1, :lower16:rt_wlan_prot_regisetr.num
	movt	r1, :upper16:rt_wlan_prot_regisetr.num
	ldrb	r0, [r1]
	movs	r2, #0
	movt	r2, #20564
	.loc	2 257 44 is_stmt 0              @ rt-thread/components/drivers/wlan/wlan_prot.c:257:44
	orrs	r0, r2
	.loc	2 257 16                        @ rt-thread/components/drivers/wlan/wlan_prot.c:257:16
	str	r0, [sp]
	.loc	2 258 24 is_stmt 1              @ rt-thread/components/drivers/wlan/wlan_prot.c:258:24
	ldr	r0, [sp]
	.loc	2 258 13 is_stmt 0              @ rt-thread/components/drivers/wlan/wlan_prot.c:258:13
	ldr	r2, [sp, #8]
	.loc	2 258 22                        @ rt-thread/components/drivers/wlan/wlan_prot.c:258:22
	str	r0, [r2, #8]
	.loc	2 259 24 is_stmt 1              @ rt-thread/components/drivers/wlan/wlan_prot.c:259:24
	ldr	r0, [sp, #8]
	.loc	2 259 19 is_stmt 0              @ rt-thread/components/drivers/wlan/wlan_prot.c:259:19
	ldr	r3, [sp, #4]
	.loc	2 259 13                        @ rt-thread/components/drivers/wlan/wlan_prot.c:259:13
	movw	r2, :lower16:_prot
	movt	r2, :upper16:_prot
	.loc	2 259 22                        @ rt-thread/components/drivers/wlan/wlan_prot.c:259:22
	str.w	r0, [r2, r3, lsl #2]
	.loc	2 260 17 is_stmt 1              @ rt-thread/components/drivers/wlan/wlan_prot.c:260:17
	ldrb	r0, [r1]
	adds	r0, #1
	strb	r0, [r1]
	.loc	2 261 13                        @ rt-thread/components/drivers/wlan/wlan_prot.c:261:13
	b	.LBB6_15
.Ltmp106:
.LBB6_10:                               @   in Loop: Header=BB6_7 Depth=1
	.loc	2 263 34                        @ rt-thread/components/drivers/wlan/wlan_prot.c:263:34
	ldr	r1, [sp, #4]
	.loc	2 263 28 is_stmt 0              @ rt-thread/components/drivers/wlan/wlan_prot.c:263:28
	movw	r0, :lower16:_prot
	movt	r0, :upper16:_prot
	ldr.w	r0, [r0, r1, lsl #2]
	.loc	2 263 44                        @ rt-thread/components/drivers/wlan/wlan_prot.c:263:44
	ldr	r1, [sp, #8]
	.loc	2 263 18                        @ rt-thread/components/drivers/wlan/wlan_prot.c:263:18
	bl	rt_strcmp
.Ltmp107:
	.loc	2 263 18                        @ rt-thread/components/drivers/wlan/wlan_prot.c:263:18
	cbnz	r0, .LBB6_12
	b	.LBB6_11
.LBB6_11:
.Ltmp108:
	.loc	2 265 13 is_stmt 1              @ rt-thread/components/drivers/wlan/wlan_prot.c:265:13
	b	.LBB6_15
.Ltmp109:
.LBB6_12:                               @   in Loop: Header=BB6_7 Depth=1
	.loc	2 0 13 is_stmt 0                @ rt-thread/components/drivers/wlan/wlan_prot.c:0:13
	b	.LBB6_13
.LBB6_13:                               @   in Loop: Header=BB6_7 Depth=1
	.loc	2 267 5 is_stmt 1               @ rt-thread/components/drivers/wlan/wlan_prot.c:267:5
	b	.LBB6_14
.Ltmp110:
.LBB6_14:                               @   in Loop: Header=BB6_7 Depth=1
	.loc	2 253 40                        @ rt-thread/components/drivers/wlan/wlan_prot.c:253:40
	ldr	r0, [sp, #4]
	adds	r0, #1
	str	r0, [sp, #4]
	.loc	2 253 5 is_stmt 0               @ rt-thread/components/drivers/wlan/wlan_prot.c:253:5
	b	.LBB6_7
.Ltmp111:
.LBB6_15:
	.loc	2 270 9 is_stmt 1               @ rt-thread/components/drivers/wlan/wlan_prot.c:270:9
	ldr	r0, [sp, #4]
.Ltmp112:
	.loc	2 270 9 is_stmt 0               @ rt-thread/components/drivers/wlan/wlan_prot.c:270:9
	cmp	r0, #2
	blt	.LBB6_19
	b	.LBB6_16
.LBB6_16:
.Ltmp113:
	.loc	2 272 9 is_stmt 1               @ rt-thread/components/drivers/wlan/wlan_prot.c:272:9
	b	.LBB6_17
.LBB6_17:
.Ltmp114:
	.loc	2 272 9 is_stmt 0               @ rt-thread/components/drivers/wlan/wlan_prot.c:272:9
	movw	r0, :lower16:.L.str
	movt	r0, :upper16:.L.str
	bl	rt_kprintf
	movw	r0, :lower16:.L.str.5
	movt	r0, :upper16:.L.str.5
	movw	r1, :lower16:.L__FUNCTION__.rt_wlan_prot_regisetr
	movt	r1, :upper16:.L__FUNCTION__.rt_wlan_prot_regisetr
	mov.w	r2, #272
	bl	rt_kprintf
	movw	r0, :lower16:.L.str.2
	movt	r0, :upper16:.L.str.2
	bl	rt_kprintf
	b	.LBB6_18
.Ltmp115:
.LBB6_18:
	.loc	2 0 9                           @ rt-thread/components/drivers/wlan/wlan_prot.c:0:9
	mov.w	r0, #-1
	.loc	2 273 9 is_stmt 1               @ rt-thread/components/drivers/wlan/wlan_prot.c:273:9
	str	r0, [sp, #12]
	b	.LBB6_20
.Ltmp116:
.LBB6_19:
	.loc	2 0 9 is_stmt 0                 @ rt-thread/components/drivers/wlan/wlan_prot.c:0:9
	movs	r0, #0
	.loc	2 276 5 is_stmt 1               @ rt-thread/components/drivers/wlan/wlan_prot.c:276:5
	str	r0, [sp, #12]
	b	.LBB6_20
.LBB6_20:
	.loc	2 277 1                         @ rt-thread/components/drivers/wlan/wlan_prot.c:277:1
	ldr	r0, [sp, #12]
	add	sp, #16
	pop	{r7, pc}
.Ltmp117:
.Lfunc_end6:
	.size	rt_wlan_prot_regisetr, .Lfunc_end6-rt_wlan_prot_regisetr
	.cfi_endproc
	.cantunwind
	.fnend
                                        @ -- End function
	.section	.text.rt_wlan_prot_event_register,"ax",%progbits
	.hidden	rt_wlan_prot_event_register     @ -- Begin function rt_wlan_prot_event_register
	.globl	rt_wlan_prot_event_register
	.p2align	3
	.type	rt_wlan_prot_event_register,%function
	.code	16                              @ @rt_wlan_prot_event_register
	.thumb_func
rt_wlan_prot_event_register:
.Lfunc_begin7:
	.loc	2 280 0                         @ rt-thread/components/drivers/wlan/wlan_prot.c:280:0
	.fnstart
	.cfi_startproc
@ %bb.0:
	.pad	#20
	sub	sp, #20
	.cfi_def_cfa_offset 20
                                        @ kill: def $r3 killed $r1
	str	r0, [sp, #12]
	strb.w	r1, [sp, #11]
	str	r2, [sp, #4]
.Ltmp118:
	.loc	2 283 10 prologue_end           @ rt-thread/components/drivers/wlan/wlan_prot.c:283:10
	ldr	r0, [sp, #12]
	.loc	2 283 27 is_stmt 0              @ rt-thread/components/drivers/wlan/wlan_prot.c:283:27
	cbz	r0, .LBB7_2
	b	.LBB7_1
.LBB7_1:
	.loc	2 283 31                        @ rt-thread/components/drivers/wlan/wlan_prot.c:283:31
	ldr	r0, [sp, #4]
.Ltmp119:
	.loc	2 283 9                         @ rt-thread/components/drivers/wlan/wlan_prot.c:283:9
	cbnz	r0, .LBB7_3
	b	.LBB7_2
.LBB7_2:
	.loc	2 0 9                           @ rt-thread/components/drivers/wlan/wlan_prot.c:0:9
	mvn	r0, #9
.Ltmp120:
	.loc	2 285 9 is_stmt 1               @ rt-thread/components/drivers/wlan/wlan_prot.c:285:9
	str	r0, [sp, #16]
	b	.LBB7_10
.Ltmp121:
.LBB7_3:
	.loc	2 0 9 is_stmt 0                 @ rt-thread/components/drivers/wlan/wlan_prot.c:0:9
	movs	r0, #0
.Ltmp122:
	.loc	2 288 12 is_stmt 1              @ rt-thread/components/drivers/wlan/wlan_prot.c:288:12
	str	r0, [sp]
	.loc	2 288 10 is_stmt 0              @ rt-thread/components/drivers/wlan/wlan_prot.c:288:10
	b	.LBB7_4
.LBB7_4:                                @ =>This Inner Loop Header: Depth=1
.Ltmp123:
	.loc	2 288 17                        @ rt-thread/components/drivers/wlan/wlan_prot.c:288:17
	ldr	r0, [sp]
.Ltmp124:
	.loc	2 288 5                         @ rt-thread/components/drivers/wlan/wlan_prot.c:288:5
	cmp	r0, #1
	bgt	.LBB7_9
	b	.LBB7_5
.LBB7_5:                                @   in Loop: Header=BB7_4 Depth=1
.Ltmp125:
	.loc	2 290 28 is_stmt 1              @ rt-thread/components/drivers/wlan/wlan_prot.c:290:28
	ldrb.w	r1, [sp, #11]
	.loc	2 290 13 is_stmt 0              @ rt-thread/components/drivers/wlan/wlan_prot.c:290:13
	movw	r0, :lower16:prot_event_tab
	movt	r0, :upper16:prot_event_tab
	add.w	r0, r0, r1, lsl #4
	.loc	2 290 35                        @ rt-thread/components/drivers/wlan/wlan_prot.c:290:35
	ldr	r1, [sp]
	.loc	2 290 38                        @ rt-thread/components/drivers/wlan/wlan_prot.c:290:38
	ldr.w	r0, [r0, r1, lsl #3]
.Ltmp126:
	.loc	2 290 13                        @ rt-thread/components/drivers/wlan/wlan_prot.c:290:13
	cbnz	r0, .LBB7_7
	b	.LBB7_6
.LBB7_6:
.Ltmp127:
	.loc	2 292 48 is_stmt 1              @ rt-thread/components/drivers/wlan/wlan_prot.c:292:48
	ldr	r0, [sp, #4]
	.loc	2 292 28 is_stmt 0              @ rt-thread/components/drivers/wlan/wlan_prot.c:292:28
	ldrb.w	r2, [sp, #11]
	.loc	2 292 13                        @ rt-thread/components/drivers/wlan/wlan_prot.c:292:13
	movw	r1, :lower16:prot_event_tab
	movt	r1, :upper16:prot_event_tab
	add.w	r2, r1, r2, lsl #4
	.loc	2 292 35                        @ rt-thread/components/drivers/wlan/wlan_prot.c:292:35
	ldr	r3, [sp]
	.loc	2 292 46                        @ rt-thread/components/drivers/wlan/wlan_prot.c:292:46
	str.w	r0, [r2, r3, lsl #3]
	.loc	2 293 45 is_stmt 1              @ rt-thread/components/drivers/wlan/wlan_prot.c:293:45
	ldr	r0, [sp, #12]
	.loc	2 293 28 is_stmt 0              @ rt-thread/components/drivers/wlan/wlan_prot.c:293:28
	ldrb.w	r2, [sp, #11]
	.loc	2 293 13                        @ rt-thread/components/drivers/wlan/wlan_prot.c:293:13
	add.w	r1, r1, r2, lsl #4
	.loc	2 293 35                        @ rt-thread/components/drivers/wlan/wlan_prot.c:293:35
	ldr	r2, [sp]
	.loc	2 293 13                        @ rt-thread/components/drivers/wlan/wlan_prot.c:293:13
	add.w	r1, r1, r2, lsl #3
	.loc	2 293 43                        @ rt-thread/components/drivers/wlan/wlan_prot.c:293:43
	str	r0, [r1, #4]
	movs	r0, #0
	.loc	2 294 13 is_stmt 1              @ rt-thread/components/drivers/wlan/wlan_prot.c:294:13
	str	r0, [sp, #16]
	b	.LBB7_10
.Ltmp128:
.LBB7_7:                                @   in Loop: Header=BB7_4 Depth=1
	.loc	2 296 5                         @ rt-thread/components/drivers/wlan/wlan_prot.c:296:5
	b	.LBB7_8
.Ltmp129:
.LBB7_8:                                @   in Loop: Header=BB7_4 Depth=1
	.loc	2 288 40                        @ rt-thread/components/drivers/wlan/wlan_prot.c:288:40
	ldr	r0, [sp]
	adds	r0, #1
	str	r0, [sp]
	.loc	2 288 5 is_stmt 0               @ rt-thread/components/drivers/wlan/wlan_prot.c:288:5
	b	.LBB7_4
.Ltmp130:
.LBB7_9:
	.loc	2 0 5                           @ rt-thread/components/drivers/wlan/wlan_prot.c:0:5
	mov.w	r0, #-1
	.loc	2 298 5 is_stmt 1               @ rt-thread/components/drivers/wlan/wlan_prot.c:298:5
	str	r0, [sp, #16]
	b	.LBB7_10
.LBB7_10:
	.loc	2 299 1                         @ rt-thread/components/drivers/wlan/wlan_prot.c:299:1
	ldr	r0, [sp, #16]
	add	sp, #20
	bx	lr
.Ltmp131:
.Lfunc_end7:
	.size	rt_wlan_prot_event_register, .Lfunc_end7-rt_wlan_prot_event_register
	.cfi_endproc
	.cantunwind
	.fnend
                                        @ -- End function
	.section	.text.rt_wlan_prot_event_unregister,"ax",%progbits
	.hidden	rt_wlan_prot_event_unregister   @ -- Begin function rt_wlan_prot_event_unregister
	.globl	rt_wlan_prot_event_unregister
	.p2align	3
	.type	rt_wlan_prot_event_unregister,%function
	.code	16                              @ @rt_wlan_prot_event_unregister
	.thumb_func
rt_wlan_prot_event_unregister:
.Lfunc_begin8:
	.loc	2 302 0                         @ rt-thread/components/drivers/wlan/wlan_prot.c:302:0
	.fnstart
	.cfi_startproc
@ %bb.0:
	.save	{r7, lr}
	push	{r7, lr}
	.cfi_def_cfa_offset 8
	.cfi_offset lr, -4
	.cfi_offset r7, -8
	.pad	#24
	sub	sp, #24
	.cfi_def_cfa_offset 32
                                        @ kill: def $r2 killed $r1
	str	r0, [sp, #16]
	strb.w	r1, [sp, #15]
.Ltmp132:
	.loc	2 305 9 prologue_end            @ rt-thread/components/drivers/wlan/wlan_prot.c:305:9
	ldr	r0, [sp, #16]
.Ltmp133:
	.loc	2 305 9 is_stmt 0               @ rt-thread/components/drivers/wlan/wlan_prot.c:305:9
	cbnz	r0, .LBB8_2
	b	.LBB8_1
.LBB8_1:
	.loc	2 0 9                           @ rt-thread/components/drivers/wlan/wlan_prot.c:0:9
	mvn	r0, #9
.Ltmp134:
	.loc	2 307 9 is_stmt 1               @ rt-thread/components/drivers/wlan/wlan_prot.c:307:9
	str	r0, [sp, #20]
	b	.LBB8_10
.Ltmp135:
.LBB8_2:
	.loc	2 0 9 is_stmt 0                 @ rt-thread/components/drivers/wlan/wlan_prot.c:0:9
	movs	r0, #0
.Ltmp136:
	.loc	2 310 12 is_stmt 1              @ rt-thread/components/drivers/wlan/wlan_prot.c:310:12
	str	r0, [sp, #8]
	.loc	2 310 10 is_stmt 0              @ rt-thread/components/drivers/wlan/wlan_prot.c:310:10
	b	.LBB8_3
.LBB8_3:                                @ =>This Inner Loop Header: Depth=1
.Ltmp137:
	.loc	2 310 17                        @ rt-thread/components/drivers/wlan/wlan_prot.c:310:17
	ldr	r0, [sp, #8]
.Ltmp138:
	.loc	2 310 5                         @ rt-thread/components/drivers/wlan/wlan_prot.c:310:5
	cmp	r0, #1
	bgt	.LBB8_9
	b	.LBB8_4
.LBB8_4:                                @   in Loop: Header=BB8_3 Depth=1
.Ltmp139:
	.loc	2 312 29 is_stmt 1              @ rt-thread/components/drivers/wlan/wlan_prot.c:312:29
	ldrb.w	r1, [sp, #15]
	.loc	2 312 14 is_stmt 0              @ rt-thread/components/drivers/wlan/wlan_prot.c:312:14
	movw	r0, :lower16:prot_event_tab
	movt	r0, :upper16:prot_event_tab
	add.w	r0, r0, r1, lsl #4
	.loc	2 312 36                        @ rt-thread/components/drivers/wlan/wlan_prot.c:312:36
	ldr	r1, [sp, #8]
	.loc	2 312 39                        @ rt-thread/components/drivers/wlan/wlan_prot.c:312:39
	ldr.w	r0, [r0, r1, lsl #3]
	.loc	2 312 59                        @ rt-thread/components/drivers/wlan/wlan_prot.c:312:59
	cbz	r0, .LBB8_7
	b	.LBB8_5
.LBB8_5:                                @   in Loop: Header=BB8_3 Depth=1
	.loc	2 313 33 is_stmt 1              @ rt-thread/components/drivers/wlan/wlan_prot.c:313:33
	ldrb.w	r1, [sp, #15]
	.loc	2 313 18 is_stmt 0              @ rt-thread/components/drivers/wlan/wlan_prot.c:313:18
	movw	r0, :lower16:prot_event_tab
	movt	r0, :upper16:prot_event_tab
	add.w	r0, r0, r1, lsl #4
	.loc	2 313 40                        @ rt-thread/components/drivers/wlan/wlan_prot.c:313:40
	ldr	r1, [sp, #8]
	.loc	2 313 18                        @ rt-thread/components/drivers/wlan/wlan_prot.c:313:18
	add.w	r0, r0, r1, lsl #3
	.loc	2 313 43                        @ rt-thread/components/drivers/wlan/wlan_prot.c:313:43
	ldr	r0, [r0, #4]
	.loc	2 313 51                        @ rt-thread/components/drivers/wlan/wlan_prot.c:313:51
	ldr	r1, [sp, #16]
.Ltmp140:
	.loc	2 312 13 is_stmt 1              @ rt-thread/components/drivers/wlan/wlan_prot.c:312:13
	cmp	r0, r1
	bne	.LBB8_7
	b	.LBB8_6
.LBB8_6:
.Ltmp141:
	.loc	2 315 39                        @ rt-thread/components/drivers/wlan/wlan_prot.c:315:39
	ldrb.w	r1, [sp, #15]
	.loc	2 315 24 is_stmt 0              @ rt-thread/components/drivers/wlan/wlan_prot.c:315:24
	movw	r0, :lower16:prot_event_tab
	movt	r0, :upper16:prot_event_tab
	add.w	r0, r0, r1, lsl #4
	.loc	2 315 46                        @ rt-thread/components/drivers/wlan/wlan_prot.c:315:46
	ldr	r1, [sp, #8]
	.loc	2 315 24                        @ rt-thread/components/drivers/wlan/wlan_prot.c:315:24
	add.w	r0, r0, r1, lsl #3
	movs	r1, #0
	str	r1, [sp, #4]                    @ 4-byte Spill
	movs	r2, #8
	.loc	2 315 13                        @ rt-thread/components/drivers/wlan/wlan_prot.c:315:13
	bl	rt_memset
                                        @ kill: def $r1 killed $r0
	.loc	2 316 13 is_stmt 1              @ rt-thread/components/drivers/wlan/wlan_prot.c:316:13
	ldr	r0, [sp, #4]                    @ 4-byte Reload
	str	r0, [sp, #20]
	b	.LBB8_10
.Ltmp142:
.LBB8_7:                                @   in Loop: Header=BB8_3 Depth=1
	.loc	2 318 5                         @ rt-thread/components/drivers/wlan/wlan_prot.c:318:5
	b	.LBB8_8
.Ltmp143:
.LBB8_8:                                @   in Loop: Header=BB8_3 Depth=1
	.loc	2 310 40                        @ rt-thread/components/drivers/wlan/wlan_prot.c:310:40
	ldr	r0, [sp, #8]
	adds	r0, #1
	str	r0, [sp, #8]
	.loc	2 310 5 is_stmt 0               @ rt-thread/components/drivers/wlan/wlan_prot.c:310:5
	b	.LBB8_3
.Ltmp144:
.LBB8_9:
	.loc	2 0 5                           @ rt-thread/components/drivers/wlan/wlan_prot.c:0:5
	mov.w	r0, #-1
	.loc	2 320 5 is_stmt 1               @ rt-thread/components/drivers/wlan/wlan_prot.c:320:5
	str	r0, [sp, #20]
	b	.LBB8_10
.LBB8_10:
	.loc	2 321 1                         @ rt-thread/components/drivers/wlan/wlan_prot.c:321:1
	ldr	r0, [sp, #20]
	add	sp, #24
	pop	{r7, pc}
.Ltmp145:
.Lfunc_end8:
	.size	rt_wlan_prot_event_unregister, .Lfunc_end8-rt_wlan_prot_event_unregister
	.cfi_endproc
	.cantunwind
	.fnend
                                        @ -- End function
	.section	.text.rt_wlan_prot_transfer_dev,"ax",%progbits
	.hidden	rt_wlan_prot_transfer_dev       @ -- Begin function rt_wlan_prot_transfer_dev
	.globl	rt_wlan_prot_transfer_dev
	.p2align	3
	.type	rt_wlan_prot_transfer_dev,%function
	.code	16                              @ @rt_wlan_prot_transfer_dev
	.thumb_func
rt_wlan_prot_transfer_dev:
.Lfunc_begin9:
	.loc	2 324 0                         @ rt-thread/components/drivers/wlan/wlan_prot.c:324:0
	.fnstart
	.cfi_startproc
@ %bb.0:
	.save	{r7, lr}
	push	{r7, lr}
	.cfi_def_cfa_offset 8
	.cfi_offset lr, -4
	.cfi_offset r7, -8
	.pad	#16
	sub	sp, #16
	.cfi_def_cfa_offset 24
	str	r0, [sp, #8]
	str	r1, [sp, #4]
	str	r2, [sp]
.Ltmp146:
	.loc	2 325 9 prologue_end            @ rt-thread/components/drivers/wlan/wlan_prot.c:325:9
	ldr	r0, [sp, #8]
	.loc	2 325 15 is_stmt 0              @ rt-thread/components/drivers/wlan/wlan_prot.c:325:15
	ldr.w	r0, [r0, #304]
	.loc	2 325 20                        @ rt-thread/components/drivers/wlan/wlan_prot.c:325:20
	ldr	r0, [r0, #88]
.Ltmp147:
	.loc	2 325 9                         @ rt-thread/components/drivers/wlan/wlan_prot.c:325:9
	cbz	r0, .LBB9_2
	b	.LBB9_1
.LBB9_1:
.Ltmp148:
	.loc	2 327 16 is_stmt 1              @ rt-thread/components/drivers/wlan/wlan_prot.c:327:16
	ldr	r0, [sp, #8]
	.loc	2 327 22 is_stmt 0              @ rt-thread/components/drivers/wlan/wlan_prot.c:327:22
	ldr.w	r1, [r0, #304]
	.loc	2 327 27                        @ rt-thread/components/drivers/wlan/wlan_prot.c:327:27
	ldr	r3, [r1, #88]
	.loc	2 327 43                        @ rt-thread/components/drivers/wlan/wlan_prot.c:327:43
	ldr	r1, [sp, #4]
	.loc	2 327 49                        @ rt-thread/components/drivers/wlan/wlan_prot.c:327:49
	ldr	r2, [sp]
	.loc	2 327 16                        @ rt-thread/components/drivers/wlan/wlan_prot.c:327:16
	blx	r3
	.loc	2 327 9                         @ rt-thread/components/drivers/wlan/wlan_prot.c:327:9
	str	r0, [sp, #12]
	b	.LBB9_3
.Ltmp149:
.LBB9_2:
	.loc	2 0 9                           @ rt-thread/components/drivers/wlan/wlan_prot.c:0:9
	mov.w	r0, #-1
	.loc	2 329 5 is_stmt 1               @ rt-thread/components/drivers/wlan/wlan_prot.c:329:5
	str	r0, [sp, #12]
	b	.LBB9_3
.LBB9_3:
	.loc	2 330 1                         @ rt-thread/components/drivers/wlan/wlan_prot.c:330:1
	ldr	r0, [sp, #12]
	add	sp, #16
	pop	{r7, pc}
.Ltmp150:
.Lfunc_end9:
	.size	rt_wlan_prot_transfer_dev, .Lfunc_end9-rt_wlan_prot_transfer_dev
	.cfi_endproc
	.cantunwind
	.fnend
                                        @ -- End function
	.section	.text.rt_wlan_dev_transfer_prot,"ax",%progbits
	.hidden	rt_wlan_dev_transfer_prot       @ -- Begin function rt_wlan_dev_transfer_prot
	.globl	rt_wlan_dev_transfer_prot
	.p2align	3
	.type	rt_wlan_dev_transfer_prot,%function
	.code	16                              @ @rt_wlan_dev_transfer_prot
	.thumb_func
rt_wlan_dev_transfer_prot:
.Lfunc_begin10:
	.loc	2 333 0                         @ rt-thread/components/drivers/wlan/wlan_prot.c:333:0
	.fnstart
	.cfi_startproc
@ %bb.0:
	.save	{r7, lr}
	push	{r7, lr}
	.cfi_def_cfa_offset 8
	.cfi_offset lr, -4
	.cfi_offset r7, -8
	.pad	#24
	sub	sp, #24
	.cfi_def_cfa_offset 32
	str	r0, [sp, #16]
	str	r1, [sp, #12]
	str	r2, [sp, #8]
.Ltmp151:
	.loc	2 334 33 prologue_end           @ rt-thread/components/drivers/wlan/wlan_prot.c:334:33
	ldr	r0, [sp, #16]
	.loc	2 334 39 is_stmt 0              @ rt-thread/components/drivers/wlan/wlan_prot.c:334:39
	ldr.w	r0, [r0, #316]
	.loc	2 334 26                        @ rt-thread/components/drivers/wlan/wlan_prot.c:334:26
	str	r0, [sp, #4]
.Ltmp152:
	.loc	2 336 9 is_stmt 1               @ rt-thread/components/drivers/wlan/wlan_prot.c:336:9
	ldr	r0, [sp, #4]
.Ltmp153:
	.loc	2 336 9 is_stmt 0               @ rt-thread/components/drivers/wlan/wlan_prot.c:336:9
	cbz	r0, .LBB10_2
	b	.LBB10_1
.LBB10_1:
.Ltmp154:
	.loc	2 338 16 is_stmt 1              @ rt-thread/components/drivers/wlan/wlan_prot.c:338:16
	ldr	r0, [sp, #4]
	.loc	2 338 22 is_stmt 0              @ rt-thread/components/drivers/wlan/wlan_prot.c:338:22
	ldr	r0, [r0, #12]
	.loc	2 338 27                        @ rt-thread/components/drivers/wlan/wlan_prot.c:338:27
	ldr	r3, [r0]
	.loc	2 338 37                        @ rt-thread/components/drivers/wlan/wlan_prot.c:338:37
	ldr	r0, [sp, #16]
	.loc	2 338 43                        @ rt-thread/components/drivers/wlan/wlan_prot.c:338:43
	ldr	r1, [sp, #12]
	.loc	2 338 49                        @ rt-thread/components/drivers/wlan/wlan_prot.c:338:49
	ldr	r2, [sp, #8]
	.loc	2 338 16                        @ rt-thread/components/drivers/wlan/wlan_prot.c:338:16
	blx	r3
	.loc	2 338 9                         @ rt-thread/components/drivers/wlan/wlan_prot.c:338:9
	str	r0, [sp, #20]
	b	.LBB10_3
.Ltmp155:
.LBB10_2:
	.loc	2 0 9                           @ rt-thread/components/drivers/wlan/wlan_prot.c:0:9
	mov.w	r0, #-1
	.loc	2 340 5 is_stmt 1               @ rt-thread/components/drivers/wlan/wlan_prot.c:340:5
	str	r0, [sp, #20]
	b	.LBB10_3
.LBB10_3:
	.loc	2 341 1                         @ rt-thread/components/drivers/wlan/wlan_prot.c:341:1
	ldr	r0, [sp, #20]
	add	sp, #24
	pop	{r7, pc}
.Ltmp156:
.Lfunc_end10:
	.size	rt_wlan_dev_transfer_prot, .Lfunc_end10-rt_wlan_dev_transfer_prot
	.cfi_endproc
	.cantunwind
	.fnend
                                        @ -- End function
	.section	.text.rt_wlan_prot_ready,"ax",%progbits
	.hidden	rt_wlan_prot_ready              @ -- Begin function rt_wlan_prot_ready
	.globl	rt_wlan_prot_ready
	.p2align	3
	.type	rt_wlan_prot_ready,%function
	.code	16                              @ @rt_wlan_prot_ready
	.thumb_func
rt_wlan_prot_ready:
.Lfunc_begin11:
	.loc	2 345 0                         @ rt-thread/components/drivers/wlan/wlan_prot.c:345:0
	.fnstart
	.cfi_startproc
@ %bb.0:
	.save	{r7, lr}
	push	{r7, lr}
	.cfi_def_cfa_offset 8
	.cfi_offset lr, -4
	.cfi_offset r7, -8
	.pad	#8
	sub	sp, #8
	.cfi_def_cfa_offset 16
	str	r0, [sp, #4]
	str	r1, [sp]
.Ltmp157:
	.loc	2 346 37 prologue_end           @ rt-thread/components/drivers/wlan/wlan_prot.c:346:37
	ldr	r0, [sp, #4]
	.loc	2 346 43 is_stmt 0              @ rt-thread/components/drivers/wlan/wlan_prot.c:346:43
	ldr	r1, [sp]
	.loc	2 346 12                        @ rt-thread/components/drivers/wlan/wlan_prot.c:346:12
	bl	rt_wlan_prot_ready_event
	.loc	2 346 5                         @ rt-thread/components/drivers/wlan/wlan_prot.c:346:5
	add	sp, #8
	pop	{r7, pc}
.Ltmp158:
.Lfunc_end11:
	.size	rt_wlan_prot_ready, .Lfunc_end11-rt_wlan_prot_ready
	.cfi_endproc
	.cantunwind
	.fnend
                                        @ -- End function
	.section	.text.rt_wlan_prot_dump,"ax",%progbits
	.hidden	rt_wlan_prot_dump               @ -- Begin function rt_wlan_prot_dump
	.globl	rt_wlan_prot_dump
	.p2align	3
	.type	rt_wlan_prot_dump,%function
	.code	16                              @ @rt_wlan_prot_dump
	.thumb_func
rt_wlan_prot_dump:
.Lfunc_begin12:
	.loc	2 350 0 is_stmt 1               @ rt-thread/components/drivers/wlan/wlan_prot.c:350:0
	.fnstart
	.cfi_startproc
@ %bb.0:
	.save	{r7, lr}
	push	{r7, lr}
	.cfi_def_cfa_offset 8
	.cfi_offset lr, -4
	.cfi_offset r7, -8
	.pad	#8
	sub	sp, #8
	.cfi_def_cfa_offset 16
.Ltmp159:
	.loc	2 353 5 prologue_end            @ rt-thread/components/drivers/wlan/wlan_prot.c:353:5
	movw	r0, :lower16:.L.str.6
	movt	r0, :upper16:.L.str.6
	bl	rt_kprintf
	.loc	2 354 5                         @ rt-thread/components/drivers/wlan/wlan_prot.c:354:5
	movw	r0, :lower16:.L.str.7
	movt	r0, :upper16:.L.str.7
	bl	rt_kprintf
	movs	r0, #0
.Ltmp160:
	.loc	2 355 12                        @ rt-thread/components/drivers/wlan/wlan_prot.c:355:12
	str	r0, [sp, #4]
	.loc	2 355 10 is_stmt 0              @ rt-thread/components/drivers/wlan/wlan_prot.c:355:10
	b	.LBB12_1
.LBB12_1:                               @ =>This Inner Loop Header: Depth=1
.Ltmp161:
	.loc	2 355 17                        @ rt-thread/components/drivers/wlan/wlan_prot.c:355:17
	ldr	r0, [sp, #4]
.Ltmp162:
	.loc	2 355 5                         @ rt-thread/components/drivers/wlan/wlan_prot.c:355:5
	cmp	r0, #1
	bgt	.LBB12_6
	b	.LBB12_2
.LBB12_2:                               @   in Loop: Header=BB12_1 Depth=1
.Ltmp163:
	.loc	2 357 19 is_stmt 1              @ rt-thread/components/drivers/wlan/wlan_prot.c:357:19
	ldr	r1, [sp, #4]
	.loc	2 357 13 is_stmt 0              @ rt-thread/components/drivers/wlan/wlan_prot.c:357:13
	movw	r0, :lower16:_prot
	movt	r0, :upper16:_prot
	ldr.w	r0, [r0, r1, lsl #2]
.Ltmp164:
	.loc	2 357 13                        @ rt-thread/components/drivers/wlan/wlan_prot.c:357:13
	cbz	r0, .LBB12_4
	b	.LBB12_3
.LBB12_3:                               @   in Loop: Header=BB12_1 Depth=1
.Ltmp165:
	.loc	2 359 42 is_stmt 1              @ rt-thread/components/drivers/wlan/wlan_prot.c:359:42
	ldr	r1, [sp, #4]
	.loc	2 359 36 is_stmt 0              @ rt-thread/components/drivers/wlan/wlan_prot.c:359:36
	movw	r0, :lower16:_prot
	movt	r0, :upper16:_prot
	str	r0, [sp]                        @ 4-byte Spill
	ldr.w	r1, [r0, r1, lsl #2]
	.loc	2 359 13                        @ rt-thread/components/drivers/wlan/wlan_prot.c:359:13
	movw	r0, :lower16:.L.str.8
	movt	r0, :upper16:.L.str.8
	bl	rt_kprintf
	ldr	r0, [sp]                        @ 4-byte Reload
	.loc	2 360 40 is_stmt 1              @ rt-thread/components/drivers/wlan/wlan_prot.c:360:40
	ldr	r1, [sp, #4]
	.loc	2 360 34 is_stmt 0              @ rt-thread/components/drivers/wlan/wlan_prot.c:360:34
	ldr.w	r0, [r0, r1, lsl #2]
	.loc	2 360 44                        @ rt-thread/components/drivers/wlan/wlan_prot.c:360:44
	ldr	r1, [r0, #8]
	.loc	2 360 13                        @ rt-thread/components/drivers/wlan/wlan_prot.c:360:13
	movw	r0, :lower16:.L.str.9
	movt	r0, :upper16:.L.str.9
	bl	rt_kprintf
	.loc	2 361 9 is_stmt 1               @ rt-thread/components/drivers/wlan/wlan_prot.c:361:9
	b	.LBB12_4
.Ltmp166:
.LBB12_4:                               @   in Loop: Header=BB12_1 Depth=1
	.loc	2 362 5                         @ rt-thread/components/drivers/wlan/wlan_prot.c:362:5
	b	.LBB12_5
.Ltmp167:
.LBB12_5:                               @   in Loop: Header=BB12_1 Depth=1
	.loc	2 355 40                        @ rt-thread/components/drivers/wlan/wlan_prot.c:355:40
	ldr	r0, [sp, #4]
	adds	r0, #1
	str	r0, [sp, #4]
	.loc	2 355 5 is_stmt 0               @ rt-thread/components/drivers/wlan/wlan_prot.c:355:5
	b	.LBB12_1
.Ltmp168:
.LBB12_6:
	.loc	2 363 1 is_stmt 1               @ rt-thread/components/drivers/wlan/wlan_prot.c:363:1
	add	sp, #8
	pop	{r7, pc}
.Ltmp169:
.Lfunc_end12:
	.size	rt_wlan_prot_dump, .Lfunc_end12-rt_wlan_prot_dump
	.cfi_endproc
	.cantunwind
	.fnend
                                        @ -- End function
	.type	.L.str,%object                  @ @.str
	.section	.rodata.str1.1,"aMS",%progbits,1
.L.str:
	.asciz	"[E/WLAN.prot] "
	.size	.L.str, 15

	.type	.L.str.1,%object                @ @.str.1
.L.str.1:
	.asciz	"F:%s L:%d wlan is null"
	.size	.L.str.1, 23

	.type	.L__FUNCTION__.rt_wlan_prot_attach_dev,%object @ @__FUNCTION__.rt_wlan_prot_attach_dev
.L__FUNCTION__.rt_wlan_prot_attach_dev:
	.asciz	"rt_wlan_prot_attach_dev"
	.size	.L__FUNCTION__.rt_wlan_prot_attach_dev, 24

	.type	.L.str.2,%object                @ @.str.2
.L.str.2:
	.asciz	"\n"
	.size	.L.str.2, 2

	.type	_prot,%object                   @ @_prot
	.section	.bss._prot,"aw",%nobits
	.p2align	2
_prot:
	.zero	8
	.size	_prot, 8

	.type	.L.str.3,%object                @ @.str.3
	.section	.rodata.str1.1,"aMS",%progbits,1
.L.str.3:
	.asciz	"F:%s L:%d not find wlan protocol"
	.size	.L.str.3, 33

	.type	rt_wlan_prot_regisetr.num,%object @ @rt_wlan_prot_regisetr.num
	.section	.bss.rt_wlan_prot_regisetr.num,"aw",%nobits
rt_wlan_prot_regisetr.num:
	.byte	0                               @ 0x0
	.size	rt_wlan_prot_regisetr.num, 1

	.type	.L.str.4,%object                @ @.str.4
	.section	.rodata.str1.1,"aMS",%progbits,1
.L.str.4:
	.asciz	"F:%s L:%d Parameter Wrongful"
	.size	.L.str.4, 29

	.type	.L__FUNCTION__.rt_wlan_prot_regisetr,%object @ @__FUNCTION__.rt_wlan_prot_regisetr
.L__FUNCTION__.rt_wlan_prot_regisetr:
	.asciz	"rt_wlan_prot_regisetr"
	.size	.L__FUNCTION__.rt_wlan_prot_regisetr, 22

	.type	.L.str.5,%object                @ @.str.5
.L.str.5:
	.asciz	"F:%s L:%d Space full"
	.size	.L.str.5, 21

	.type	prot_event_tab,%object          @ @prot_event_tab
	.section	.bss.prot_event_tab,"aw",%nobits
	.p2align	2
prot_event_tab:
	.zero	112
	.size	prot_event_tab, 112

	.type	.L.str.6,%object                @ @.str.6
	.section	.rodata.str1.1,"aMS",%progbits,1
.L.str.6:
	.asciz	"  name       id \n"
	.size	.L.str.6, 18

	.type	.L.str.7,%object                @ @.str.7
.L.str.7:
	.asciz	"--------  --------\n"
	.size	.L.str.7, 20

	.type	.L.str.8,%object                @ @.str.8
.L.str.8:
	.asciz	"%-8.8s  "
	.size	.L.str.8, 9

	.type	.L.str.9,%object                @ @.str.9
.L.str.9:
	.asciz	"%08x\n"
	.size	.L.str.9, 6

	.type	.L__FUNCTION__.rt_wlan_prot_find_by_name,%object @ @__FUNCTION__.rt_wlan_prot_find_by_name
.L__FUNCTION__.rt_wlan_prot_find_by_name:
	.asciz	"rt_wlan_prot_find_by_name"
	.size	.L__FUNCTION__.rt_wlan_prot_find_by_name, 26

	.type	.L.str.10,%object               @ @.str.10
.L.str.10:
	.asciz	"F:%s L:%d not find wlan dev!! name:%s"
	.size	.L.str.10, 38

	.section	".note.GNU-stack","",%progbits
	.eabi_attribute	30, 6	@ Tag_ABI_optimization_goals
	.ARM_attribute	16, 1	@ Tag_AV_eba