	.text
	.syntax unified
	.eabi_attribute	67, "2.09"	@ Tag_conformance
	.cpu	cortex-m7
	.eabi_attribute	6, 13	@ Tag_CPU_arch
	.eabi_attribute	7, 77	@ Tag_CPU_arch_profile
	.eabi_attribute	8, 0	@ Tag_ARM_ISA_use
	.eabi_attribute	9, 2	@ Tag_THUMB_ISA_use
	.fpu	fpv5-d16
	.eabi_attribute	36, 1	@ Tag_FP_HP_extension
	.eabi_attribute	34, 1	@ Tag_CPU_unaligned_access
	.eabi_attribute	17, 1	@ Tag_ABI_PCS_GOT_use
	.eabi_attribute	20, 2	@ Tag_ABI_FP_denormal
	.eabi_attribute	21, 0	@ Tag_ABI_FP_exceptions
	.eabi_attribute	23, 1	@ Tag_ABI_FP_number_model
	.eabi_attribute	24, 1	@ Tag_ABI_align_needed
	.eabi_attribute	25, 1	@ Tag_ABI_align_preserved
	.eabi_attribute	28, 1	@ Tag_ABI_VFP_args
	.eabi_attribute	38, 1	@ Tag_ABI_FP_16bit_format
	.eabi_attribute	18, 2	@ Tag_ABI_PCS_wchar_t
	.eabi_attribute	26, 1	@ Tag_ABI_enum_size
	.eabi_attribute	14, 0	@ Tag_ABI_PCS_R9_use
	.file	"wlan_cmd.c"
	.file	1 "E:\\STM32\\Learning\\STM32H750_ART_PI_RGBLCD" "rt-thread/components/drivers/wlan/wlan_cmd.c"
	.file	2 "E:\\STM32\\Learning\\STM32H750_ART_PI_RGBLCD" "rt-thread/components/finsh\\finsh_api.h"
	.file	3 "E:\\STM32\\Learning\\STM32H750_ART_PI_RGBLCD" "./rt-thread/components/drivers/wlan\\wlan_dev.h"
	.section	.text.wifi_msh,"ax",%progbits
	.p2align	3                               @ -- Begin function wifi_msh
	.type	wifi_msh,%function
	.code	16                              @ @wifi_msh
	.thumb_func
wifi_msh:
.Lfunc_begin0:
	.loc	1 549 0                         @ rt-thread/components/drivers/wlan/wlan_cmd.c:549:0
	.fnstart
	.cfi_sections .debug_frame
	.cfi_startproc
@ %bb.0:
	.save	{r7, lr}
	push	{r7, lr}
	.cfi_def_cfa_offset 8
	.cfi_offset lr, -4
	.cfi_offset r7, -8
	.pad	#24
	sub	sp, #24
	.cfi_def_cfa_offset 32
	str	r0, [sp, #16]
	str	r1, [sp, #12]
	movs	r0, #0
.Ltmp0:
	.loc	1 550 12 prologue_end           @ rt-thread/components/drivers/wlan/wlan_cmd.c:550:12
	str	r0, [sp, #4]
	.loc	1 551 32                        @ rt-thread/components/drivers/wlan/wlan_cmd.c:551:32
	str	r0, [sp]
.Ltmp1:
	.loc	1 553 9                         @ rt-thread/components/drivers/wlan/wlan_cmd.c:553:9
	ldr	r0, [sp, #16]
.Ltmp2:
	.loc	1 553 9 is_stmt 0               @ rt-thread/components/drivers/wlan/wlan_cmd.c:553:9
	cmp	r0, #1
	bne	.LBB0_2
	b	.LBB0_1
.LBB0_1:
.Ltmp3:
	.loc	1 555 19 is_stmt 1              @ rt-thread/components/drivers/wlan/wlan_cmd.c:555:19
	ldr	r0, [sp, #16]
	.loc	1 555 25 is_stmt 0              @ rt-thread/components/drivers/wlan/wlan_cmd.c:555:25
	ldr	r1, [sp, #12]
	.loc	1 555 9                         @ rt-thread/components/drivers/wlan/wlan_cmd.c:555:9
	bl	wifi_help
	movs	r0, #0
	.loc	1 556 9 is_stmt 1               @ rt-thread/components/drivers/wlan/wlan_cmd.c:556:9
	str	r0, [sp, #20]
	b	.LBB0_15
.Ltmp4:
.LBB0_2:
	.loc	1 0 9 is_stmt 0                 @ rt-thread/components/drivers/wlan/wlan_cmd.c:0:9
	movs	r0, #0
.Ltmp5:
	.loc	1 560 12 is_stmt 1              @ rt-thread/components/drivers/wlan/wlan_cmd.c:560:12
	str	r0, [sp, #8]
	.loc	1 560 10 is_stmt 0              @ rt-thread/components/drivers/wlan/wlan_cmd.c:560:10
	b	.LBB0_3
.LBB0_3:                                @ =>This Inner Loop Header: Depth=1
.Ltmp6:
	.loc	1 560 17                        @ rt-thread/components/drivers/wlan/wlan_cmd.c:560:17
	ldr	r0, [sp, #8]
.Ltmp7:
	.loc	1 560 5                         @ rt-thread/components/drivers/wlan/wlan_cmd.c:560:5
	cmp	r0, #8
	bhi	.LBB0_8
	b	.LBB0_4
.LBB0_4:                                @   in Loop: Header=BB0_3 Depth=1
.Ltmp8:
	.loc	1 562 31 is_stmt 1              @ rt-thread/components/drivers/wlan/wlan_cmd.c:562:31
	ldr	r1, [sp, #8]
	.loc	1 562 23 is_stmt 0              @ rt-thread/components/drivers/wlan/wlan_cmd.c:562:23
	movw	r0, :lower16:cmd_tab
	movt	r0, :upper16:cmd_tab
	.loc	1 562 34                        @ rt-thread/components/drivers/wlan/wlan_cmd.c:562:34
	ldr.w	r0, [r0, r1, lsl #3]
	.loc	1 562 39                        @ rt-thread/components/drivers/wlan/wlan_cmd.c:562:39
	ldr	r1, [sp, #12]
	ldr	r1, [r1, #4]
	.loc	1 562 13                        @ rt-thread/components/drivers/wlan/wlan_cmd.c:562:13
	bl	rt_strcmp
.Ltmp9:
	.loc	1 562 13                        @ rt-thread/components/drivers/wlan/wlan_cmd.c:562:13
	cbnz	r0, .LBB0_6
	b	.LBB0_5
.LBB0_5:
.Ltmp10:
	.loc	1 564 32 is_stmt 1              @ rt-thread/components/drivers/wlan/wlan_cmd.c:564:32
	ldr	r1, [sp, #8]
	.loc	1 564 24 is_stmt 0              @ rt-thread/components/drivers/wlan/wlan_cmd.c:564:24
	movw	r0, :lower16:cmd_tab
	movt	r0, :upper16:cmd_tab
	add.w	r0, r0, r1, lsl #3
	.loc	1 564 21                        @ rt-thread/components/drivers/wlan/wlan_cmd.c:564:21
	str	r0, [sp]
	.loc	1 565 13 is_stmt 1              @ rt-thread/components/drivers/wlan/wlan_cmd.c:565:13
	b	.LBB0_8
.Ltmp11:
.LBB0_6:                                @   in Loop: Header=BB0_3 Depth=1
	.loc	1 567 5                         @ rt-thread/components/drivers/wlan/wlan_cmd.c:567:5
	b	.LBB0_7
.Ltmp12:
.LBB0_7:                                @   in Loop: Header=BB0_3 Depth=1
	.loc	1 560 60                        @ rt-thread/components/drivers/wlan/wlan_cmd.c:560:60
	ldr	r0, [sp, #8]
	adds	r0, #1
	str	r0, [sp, #8]
	.loc	1 560 5 is_stmt 0               @ rt-thread/components/drivers/wlan/wlan_cmd.c:560:5
	b	.LBB0_3
.Ltmp13:
.LBB0_8:
	.loc	1 570 9 is_stmt 1               @ rt-thread/components/drivers/wlan/wlan_cmd.c:570:9
	ldr	r0, [sp]
.Ltmp14:
	.loc	1 570 9 is_stmt 0               @ rt-thread/components/drivers/wlan/wlan_cmd.c:570:9
	cbnz	r0, .LBB0_10
	b	.LBB0_9
.LBB0_9:
.Ltmp15:
	.loc	1 572 19 is_stmt 1              @ rt-thread/components/drivers/wlan/wlan_cmd.c:572:19
	ldr	r0, [sp, #16]
	.loc	1 572 25 is_stmt 0              @ rt-thread/components/drivers/wlan/wlan_cmd.c:572:25
	ldr	r1, [sp, #12]
	.loc	1 572 9                         @ rt-thread/components/drivers/wlan/wlan_cmd.c:572:9
	bl	wifi_help
	movs	r0, #0
	.loc	1 573 9 is_stmt 1               @ rt-thread/components/drivers/wlan/wlan_cmd.c:573:9
	str	r0, [sp, #20]
	b	.LBB0_15
.Ltmp16:
.LBB0_10:
	.loc	1 577 9                         @ rt-thread/components/drivers/wlan/wlan_cmd.c:577:9
	ldr	r0, [sp]
	.loc	1 577 18 is_stmt 0              @ rt-thread/components/drivers/wlan/wlan_cmd.c:577:18
	ldr	r0, [r0, #4]
.Ltmp17:
	.loc	1 577 9                         @ rt-thread/components/drivers/wlan/wlan_cmd.c:577:9
	cbz	r0, .LBB0_12
	b	.LBB0_11
.LBB0_11:
.Ltmp18:
	.loc	1 579 18 is_stmt 1              @ rt-thread/components/drivers/wlan/wlan_cmd.c:579:18
	ldr	r0, [sp]
	.loc	1 579 27 is_stmt 0              @ rt-thread/components/drivers/wlan/wlan_cmd.c:579:27
	ldr	r2, [r0, #4]
	.loc	1 579 31                        @ rt-thread/components/drivers/wlan/wlan_cmd.c:579:31
	ldr	r0, [sp, #16]
	.loc	1 579 37                        @ rt-thread/components/drivers/wlan/wlan_cmd.c:579:37
	ldr	r1, [sp, #12]
	.loc	1 579 18                        @ rt-thread/components/drivers/wlan/wlan_cmd.c:579:18
	blx	r2
	.loc	1 579 16                        @ rt-thread/components/drivers/wlan/wlan_cmd.c:579:16
	str	r0, [sp, #4]
	.loc	1 580 5 is_stmt 1               @ rt-thread/components/drivers/wlan/wlan_cmd.c:580:5
	b	.LBB0_12
.Ltmp19:
.LBB0_12:
	.loc	1 582 9                         @ rt-thread/components/drivers/wlan/wlan_cmd.c:582:9
	ldr	r0, [sp, #4]
.Ltmp20:
	.loc	1 582 9 is_stmt 0               @ rt-thread/components/drivers/wlan/wlan_cmd.c:582:9
	cbz	r0, .LBB0_14
	b	.LBB0_13
.LBB0_13:
.Ltmp21:
	.loc	1 584 19 is_stmt 1              @ rt-thread/components/drivers/wlan/wlan_cmd.c:584:19
	ldr	r0, [sp, #16]
	.loc	1 584 25 is_stmt 0              @ rt-thread/components/drivers/wlan/wlan_cmd.c:584:25
	ldr	r1, [sp, #12]
	.loc	1 584 9                         @ rt-thread/components/drivers/wlan/wlan_cmd.c:584:9
	bl	wifi_help
	.loc	1 585 5 is_stmt 1               @ rt-thread/components/drivers/wlan/wlan_cmd.c:585:5
	b	.LBB0_14
.Ltmp22:
.LBB0_14:
	.loc	1 0 5 is_stmt 0                 @ rt-thread/components/drivers/wlan/wlan_cmd.c:0:5
	movs	r0, #0
	.loc	1 586 5 is_stmt 1               @ rt-thread/components/drivers/wlan/wlan_cmd.c:586:5
	str	r0, [sp, #20]
	b	.LBB0_15
.LBB0_15:
	.loc	1 587 1                         @ rt-thread/components/drivers/wlan/wlan_cmd.c:587:1
	ldr	r0, [sp, #20]
	add	sp, #24
	pop	{r7, pc}
.Ltmp23:
.Lfunc_end0:
	.size	wifi_msh, .Lfunc_end0-wifi_msh
	.cfi_endproc
	.cantunwind
	.fnend
                                        @ -- End function
	.section	.text.wifi_help,"ax",%progbits
	.p2align	3                               @ -- Begin function wifi_help
	.type	wifi_help,%function
	.code	16                              @ @wifi_help
	.thumb_func
wifi_help:
.Lfunc_begin1:
	.loc	1 77 0                          @ rt-thread/components/drivers/wlan/wlan_cmd.c:77:0
	.fnstart
	.cfi_startproc
@ %bb.0:
	.save	{r7, lr}
	push	{r7, lr}
	.cfi_def_cfa_offset 8
	.cfi_offset lr, -4
	.cfi_offset r7, -8
	.pad	#8
	sub	sp, #8
	.cfi_def_cfa_offset 16
	str	r0, [sp, #4]
	str	r1, [sp]
.Ltmp24:
	.loc	1 78 5 prologue_end             @ rt-thread/components/drivers/wlan/wlan_cmd.c:78:5
	movw	r0, :lower16:.L.str
	movt	r0, :upper16:.L.str
	bl	rt_kprintf
	.loc	1 79 5                          @ rt-thread/components/drivers/wlan/wlan_cmd.c:79:5
	movw	r0, :lower16:.L.str.1
	movt	r0, :upper16:.L.str.1
	bl	rt_kprintf
	.loc	1 80 5                          @ rt-thread/components/drivers/wlan/wlan_cmd.c:80:5
	movw	r0, :lower16:.L.str.2
	movt	r0, :upper16:.L.str.2
	bl	rt_kprintf
	.loc	1 81 5                          @ rt-thread/components/drivers/wlan/wlan_cmd.c:81:5
	movw	r0, :lower16:.L.str.3
	movt	r0, :upper16:.L.str.3
	bl	rt_kprintf
	.loc	1 82 5                          @ rt-thread/components/drivers/wlan/wlan_cmd.c:82:5
	movw	r0, :lower16:.L.str.4
	movt	r0, :upper16:.L.str.4
	bl	rt_kprintf
	.loc	1 83 5                          @ rt-thread/components/drivers/wlan/wlan_cmd.c:83:5
	movw	r0, :lower16:.L.str.5
	movt	r0, :upper16:.L.str.5
	bl	rt_kprintf
	.loc	1 84 5                          @ rt-thread/components/drivers/wlan/wlan_cmd.c:84:5
	movw	r0, :lower16:.L.str.6
	movt	r0, :upper16:.L.str.6
	bl	rt_kprintf
	.loc	1 85 5                          @ rt-thread/components/drivers/wlan/wlan_cmd.c:85:5
	movw	r0, :lower16:.L.str.7
	movt	r0, :upper16:.L.str.7
	bl	rt_kprintf
	.loc	1 86 5                          @ rt-thread/components/drivers/wlan/wlan_cmd.c:86:5
	movw	r0, :lower16:.L.str.8
	movt	r0, :upper16:.L.str.8
	bl	rt_kprintf
	movs	r0, #0
	.loc	1 90 5                          @ rt-thread/components/drivers/wlan/wlan_cmd.c:90:5
	add	sp, #8
	pop	{r7, pc}
.Ltmp25:
.Lfunc_end1:
	.size	wifi_help, .Lfunc_end1-wifi_help
	.cfi_endproc
	.cantunwind
	.fnend
                                        @ -- End function
	.section	.text.wifi_scan,"ax",%progbits
	.p2align	3                               @ -- Begin function wifi_scan
	.type	wifi_scan,%function
	.code	16                              @ @wifi_scan
	.thumb_func
wifi_scan:
.Lfunc_begin2:
	.loc	1 146 0                         @ rt-thread/components/drivers/wlan/wlan_cmd.c:146:0
	.fnstart
	.cfi_startproc
@ %bb.0:
	.save	{r4, lr}
	push	{r4, lr}
	.cfi_def_cfa_offset 8
	.cfi_offset lr, -4
	.cfi_offset r4, -8
	.pad	#112
	sub	sp, #112
	.cfi_def_cfa_offset 120
	str	r0, [sp, #104]
	str	r1, [sp, #100]
	movs	r0, #0
.Ltmp26:
	.loc	1 147 33 prologue_end           @ rt-thread/components/drivers/wlan/wlan_cmd.c:147:33
	str	r0, [sp, #96]
	.loc	1 148 26                        @ rt-thread/components/drivers/wlan/wlan_cmd.c:148:26
	str	r0, [sp, #92]
.Ltmp27:
	.loc	1 151 9                         @ rt-thread/components/drivers/wlan/wlan_cmd.c:151:9
	ldr	r0, [sp, #104]
.Ltmp28:
	.loc	1 151 9 is_stmt 0               @ rt-thread/components/drivers/wlan/wlan_cmd.c:151:9
	cmp	r0, #4
	blt	.LBB2_2
	b	.LBB2_1
.LBB2_1:
	.loc	1 0 9                           @ rt-thread/components/drivers/wlan/wlan_cmd.c:0:9
	mov.w	r0, #-1
.Ltmp29:
	.loc	1 152 9 is_stmt 1               @ rt-thread/components/drivers/wlan/wlan_cmd.c:152:9
	str	r0, [sp, #108]
	b	.LBB2_37
.Ltmp30:
.LBB2_2:
	.loc	1 154 9                         @ rt-thread/components/drivers/wlan/wlan_cmd.c:154:9
	ldr	r0, [sp, #104]
.Ltmp31:
	.loc	1 154 9 is_stmt 0               @ rt-thread/components/drivers/wlan/wlan_cmd.c:154:9
	cmp	r0, #3
	bne	.LBB2_8
	b	.LBB2_3
.LBB2_3:
.Ltmp32:
	.loc	1 156 9 is_stmt 1               @ rt-thread/components/drivers/wlan/wlan_cmd.c:156:9
	b	.LBB2_4
.LBB2_4:
	.loc	1 0 9 is_stmt 0                 @ rt-thread/components/drivers/wlan/wlan_cmd.c:0:9
	add	r0, sp, #32
	movs	r1, #0
	movs	r2, #60
.Ltmp33:
	.loc	1 156 9                         @ rt-thread/components/drivers/wlan/wlan_cmd.c:156:9
	bl	rt_memset
	mvn	r0, #-2147483648
	str	r0, [sp, #36]
	mov.w	r0, #-1
	str	r0, [sp, #32]
	movw	r0, #65535
	strh.w	r0, [sp, #44]
	b	.LBB2_5
.Ltmp34:
.LBB2_5:
	.loc	1 157 9 is_stmt 1               @ rt-thread/components/drivers/wlan/wlan_cmd.c:157:9
	b	.LBB2_6
.LBB2_6:
	.loc	1 0 9 is_stmt 0                 @ rt-thread/components/drivers/wlan/wlan_cmd.c:0:9
	add	r0, sp, #32
.Ltmp35:
	.loc	1 157 9                         @ rt-thread/components/drivers/wlan/wlan_cmd.c:157:9
	adds	r0, #17
	str	r0, [sp, #16]                   @ 4-byte Spill
	ldr	r1, [sp, #100]
	ldr	r1, [r1, #8]
	movs	r2, #32
	bl	rt_strncpy
                                        @ kill: def $r1 killed $r0
	ldr	r0, [sp, #16]                   @ 4-byte Reload
	bl	rt_strlen
	strb.w	r0, [sp, #48]
	b	.LBB2_7
.Ltmp36:
.LBB2_7:
	.loc	1 0 9                           @ rt-thread/components/drivers/wlan/wlan_cmd.c:0:9
	add	r0, sp, #32
	.loc	1 158 14 is_stmt 1              @ rt-thread/components/drivers/wlan/wlan_cmd.c:158:14
	str	r0, [sp, #92]
	.loc	1 159 5                         @ rt-thread/components/drivers/wlan/wlan_cmd.c:159:5
	b	.LBB2_8
.Ltmp37:
.LBB2_8:
	.loc	1 162 5                         @ rt-thread/components/drivers/wlan/wlan_cmd.c:162:5
	bl	rt_wlan_scan_result_clean
	.loc	1 164 42                        @ rt-thread/components/drivers/wlan/wlan_cmd.c:164:42
	ldr	r0, [sp, #92]
	.loc	1 164 19 is_stmt 0              @ rt-thread/components/drivers/wlan/wlan_cmd.c:164:19
	bl	rt_wlan_scan_with_info
	.loc	1 164 17                        @ rt-thread/components/drivers/wlan/wlan_cmd.c:164:17
	str	r0, [sp, #96]
.Ltmp38:
	.loc	1 165 9 is_stmt 1               @ rt-thread/components/drivers/wlan/wlan_cmd.c:165:9
	ldr	r0, [sp, #96]
.Ltmp39:
	.loc	1 165 9 is_stmt 0               @ rt-thread/components/drivers/wlan/wlan_cmd.c:165:9
	cmp	r0, #0
	beq.w	.LBB2_35
	b	.LBB2_9
.LBB2_9:
.Ltmp40:
	.loc	1 170 15 is_stmt 1              @ rt-thread/components/drivers/wlan/wlan_cmd.c:170:15
	ldr	r0, [sp, #96]
	.loc	1 170 28 is_stmt 0              @ rt-thread/components/drivers/wlan/wlan_cmd.c:170:28
	ldr	r0, [r0]
	.loc	1 170 13                        @ rt-thread/components/drivers/wlan/wlan_cmd.c:170:13
	str	r0, [sp, #24]
	.loc	1 171 9 is_stmt 1               @ rt-thread/components/drivers/wlan/wlan_cmd.c:171:9
	movw	r0, :lower16:.L.str.18
	movt	r0, :upper16:.L.str.18
	bl	rt_kprintf
	.loc	1 172 9                         @ rt-thread/components/drivers/wlan/wlan_cmd.c:172:9
	movw	r0, :lower16:.L.str.19
	movt	r0, :upper16:.L.str.19
	bl	rt_kprintf
	movs	r0, #0
.Ltmp41:
	.loc	1 173 20                        @ rt-thread/components/drivers/wlan/wlan_cmd.c:173:20
	str	r0, [sp, #28]
	.loc	1 173 14 is_stmt 0              @ rt-thread/components/drivers/wlan/wlan_cmd.c:173:14
	b	.LBB2_10
.LBB2_10:                               @ =>This Inner Loop Header: Depth=1
.Ltmp42:
	.loc	1 173 25                        @ rt-thread/components/drivers/wlan/wlan_cmd.c:173:25
	ldr	r0, [sp, #28]
	.loc	1 173 33                        @ rt-thread/components/drivers/wlan/wlan_cmd.c:173:33
	ldr	r1, [sp, #24]
.Ltmp43:
	.loc	1 173 9                         @ rt-thread/components/drivers/wlan/wlan_cmd.c:173:9
	cmp	r0, r1
	bge.w	.LBB2_34
	b	.LBB2_11
.LBB2_11:                               @   in Loop: Header=BB2_10 Depth=1
.Ltmp44:
	.loc	1 175 37 is_stmt 1              @ rt-thread/components/drivers/wlan/wlan_cmd.c:175:37
	ldr	r0, [sp, #96]
	.loc	1 175 50 is_stmt 0              @ rt-thread/components/drivers/wlan/wlan_cmd.c:175:50
	ldr	r0, [r0, #4]
	.loc	1 175 55                        @ rt-thread/components/drivers/wlan/wlan_cmd.c:175:55
	ldr	r1, [sp, #28]
	.loc	1 175 37                        @ rt-thread/components/drivers/wlan/wlan_cmd.c:175:37
	rsb	r1, r1, r1, lsl #4
	add.w	r0, r0, r1, lsl #2
	.loc	1 175 67                        @ rt-thread/components/drivers/wlan/wlan_cmd.c:175:67
	add.w	r1, r0, #17
	.loc	1 175 13                        @ rt-thread/components/drivers/wlan/wlan_cmd.c:175:13
	movw	r0, :lower16:.L.str.20
	movt	r0, :upper16:.L.str.20
	bl	rt_kprintf
	.loc	1 177 24 is_stmt 1              @ rt-thread/components/drivers/wlan/wlan_cmd.c:177:24
	ldr	r0, [sp, #96]
	.loc	1 177 37 is_stmt 0              @ rt-thread/components/drivers/wlan/wlan_cmd.c:177:37
	ldr	r0, [r0, #4]
	.loc	1 177 42                        @ rt-thread/components/drivers/wlan/wlan_cmd.c:177:42
	ldr	r1, [sp, #28]
	.loc	1 177 24                        @ rt-thread/components/drivers/wlan/wlan_cmd.c:177:24
	rsb	r1, r1, r1, lsl #4
	add.w	r12, r0, r1, lsl #2
	ldrb.w	r1, [r12, #50]
	.loc	1 178 24 is_stmt 1              @ rt-thread/components/drivers/wlan/wlan_cmd.c:178:24
	ldrb.w	r2, [r12, #51]
	.loc	1 179 24                        @ rt-thread/components/drivers/wlan/wlan_cmd.c:179:24
	ldrb.w	r3, [r12, #52]
	.loc	1 180 24                        @ rt-thread/components/drivers/wlan/wlan_cmd.c:180:24
	ldrb.w	r0, [r12, #53]
	.loc	1 181 24                        @ rt-thread/components/drivers/wlan/wlan_cmd.c:181:24
	ldrb.w	lr, [r12, #54]
	.loc	1 182 24                        @ rt-thread/components/drivers/wlan/wlan_cmd.c:182:24
	ldrb.w	r4, [r12, #55]
	.loc	1 176 13                        @ rt-thread/components/drivers/wlan/wlan_cmd.c:176:13
	mov	r12, sp
	str.w	r4, [r12, #8]
	str.w	lr, [r12, #4]
	str.w	r0, [r12]
	movw	r0, :lower16:.L.str.21
	movt	r0, :upper16:.L.str.21
	bl	rt_kprintf
	.loc	1 184 21                        @ rt-thread/components/drivers/wlan/wlan_cmd.c:184:21
	ldr	r0, [sp, #96]
	.loc	1 184 34 is_stmt 0              @ rt-thread/components/drivers/wlan/wlan_cmd.c:184:34
	ldr	r0, [r0, #4]
	.loc	1 184 39                        @ rt-thread/components/drivers/wlan/wlan_cmd.c:184:39
	ldr	r1, [sp, #28]
	.loc	1 184 21                        @ rt-thread/components/drivers/wlan/wlan_cmd.c:184:21
	rsb	r1, r1, r1, lsl #4
	.loc	1 184 46                        @ rt-thread/components/drivers/wlan/wlan_cmd.c:184:46
	ldr.w	r0, [r0, r1, lsl #2]
	.loc	1 184 13                        @ rt-thread/components/drivers/wlan/wlan_cmd.c:184:13
	str	r0, [sp, #12]                   @ 4-byte Spill
	cbz	r0, .LBB2_21
	b	.LBB2_12
.LBB2_12:                               @   in Loop: Header=BB2_10 Depth=1
	ldr	r0, [sp, #12]                   @ 4-byte Reload
	cmp	r0, #1
	beq	.LBB2_22
	b	.LBB2_13
.LBB2_13:                               @   in Loop: Header=BB2_10 Depth=1
	.loc	1 0 13                          @ rt-thread/components/drivers/wlan/wlan_cmd.c:0:13
	ldr	r0, [sp, #12]                   @ 4-byte Reload
	movw	r1, #32769
	.loc	1 184 13                        @ rt-thread/components/drivers/wlan/wlan_cmd.c:184:13
	cmp	r0, r1
	beq	.LBB2_23
	b	.LBB2_14
.LBB2_14:                               @   in Loop: Header=BB2_10 Depth=1
	.loc	1 0 13                          @ rt-thread/components/drivers/wlan/wlan_cmd.c:0:13
	ldr	r0, [sp, #12]                   @ 4-byte Reload
	movs	r1, #2
	movt	r1, #32
	.loc	1 184 13                        @ rt-thread/components/drivers/wlan/wlan_cmd.c:184:13
	cmp	r0, r1
	beq	.LBB2_24
	b	.LBB2_15
.LBB2_15:                               @   in Loop: Header=BB2_10 Depth=1
	.loc	1 0 13                          @ rt-thread/components/drivers/wlan/wlan_cmd.c:0:13
	ldr	r0, [sp, #12]                   @ 4-byte Reload
	movs	r1, #4
	movt	r1, #32
	.loc	1 184 13                        @ rt-thread/components/drivers/wlan/wlan_cmd.c:184:13
	cmp	r0, r1
	beq	.LBB2_25
	b	.LBB2_16
.LBB2_16:                               @   in Loop: Header=BB2_10 Depth=1
	.loc	1 0 13                          @ rt-thread/components/drivers/wlan/wlan_cmd.c:0:13
	ldr	r0, [sp, #12]                   @ 4-byte Reload
	movs	r1, #2
	movt	r1, #64
	.loc	1 184 13                        @ rt-thread/components/drivers/wlan/wlan_cmd.c:184:13
	cmp	r0, r1
	beq	.LBB2_27
	b	.LBB2_17
.LBB2_17:                               @   in Loop: Header=BB2_10 Depth=1
	.loc	1 0 13                          @ rt-thread/components/drivers/wlan/wlan_cmd.c:0:13
	ldr	r0, [sp, #12]                   @ 4-byte Reload
	movs	r1, #4
	movt	r1, #64
	.loc	1 184 13                        @ rt-thread/components/drivers/wlan/wlan_cmd.c:184:13
	cmp	r0, r1
	beq	.LBB2_26
	b	.LBB2_18
.LBB2_18:                               @   in Loop: Header=BB2_10 Depth=1
	.loc	1 0 13                          @ rt-thread/components/drivers/wlan/wlan_cmd.c:0:13
	ldr	r0, [sp, #12]                   @ 4-byte Reload
	movs	r1, #6
	movt	r1, #64
	.loc	1 184 13                        @ rt-thread/components/drivers/wlan/wlan_cmd.c:184:13
	cmp	r0, r1
	beq	.LBB2_28
	b	.LBB2_19
.LBB2_19:                               @   in Loop: Header=BB2_10 Depth=1
	ldr	r0, [sp, #12]                   @ 4-byte Reload
	cmp.w	r0, #268435456
	beq	.LBB2_29
	b	.LBB2_20
.LBB2_20:                               @   in Loop: Header=BB2_10 Depth=1
	.loc	1 0 13                          @ rt-thread/components/drivers/wlan/wlan_cmd.c:0:13
	ldr	r0, [sp, #12]                   @ 4-byte Reload
	movs	r1, #4
	movt	r1, #4096
	.loc	1 184 13                        @ rt-thread/components/drivers/wlan/wlan_cmd.c:184:13
	cmp	r0, r1
	beq	.LBB2_30
	b	.LBB2_31
.LBB2_21:                               @   in Loop: Header=BB2_10 Depth=1
.Ltmp45:
	.loc	1 187 26 is_stmt 1              @ rt-thread/components/drivers/wlan/wlan_cmd.c:187:26
	movw	r0, :lower16:.L.str.22
	movt	r0, :upper16:.L.str.22
	str	r0, [sp, #20]
	.loc	1 188 17                        @ rt-thread/components/drivers/wlan/wlan_cmd.c:188:17
	b	.LBB2_32
.LBB2_22:                               @   in Loop: Header=BB2_10 Depth=1
	.loc	1 190 26                        @ rt-thread/components/drivers/wlan/wlan_cmd.c:190:26
	movw	r0, :lower16:.L.str.23
	movt	r0, :upper16:.L.str.23
	str	r0, [sp, #20]
	.loc	1 191 17                        @ rt-thread/components/drivers/wlan/wlan_cmd.c:191:17
	b	.LBB2_32
.LBB2_23:                               @   in Loop: Header=BB2_10 Depth=1
	.loc	1 193 26                        @ rt-thread/components/drivers/wlan/wlan_cmd.c:193:26
	movw	r0, :lower16:.L.str.24
	movt	r0, :upper16:.L.str.24
	str	r0, [sp, #20]
	.loc	1 194 17                        @ rt-thread/components/drivers/wlan/wlan_cmd.c:194:17
	b	.LBB2_32
.LBB2_24:                               @   in Loop: Header=BB2_10 Depth=1
	.loc	1 196 26                        @ rt-thread/components/drivers/wlan/wlan_cmd.c:196:26
	movw	r0, :lower16:.L.str.25
	movt	r0, :upper16:.L.str.25
	str	r0, [sp, #20]
	.loc	1 197 17                        @ rt-thread/components/drivers/wlan/wlan_cmd.c:197:17
	b	.LBB2_32
.LBB2_25:                               @   in Loop: Header=BB2_10 Depth=1
	.loc	1 199 26                        @ rt-thread/components/drivers/wlan/wlan_cmd.c:199:26
	movw	r0, :lower16:.L.str.26
	movt	r0, :upper16:.L.str.26
	str	r0, [sp, #20]
	.loc	1 200 17                        @ rt-thread/components/drivers/wlan/wlan_cmd.c:200:17
	b	.LBB2_32
.LBB2_26:                               @   in Loop: Header=BB2_10 Depth=1
	.loc	1 202 26                        @ rt-thread/components/drivers/wlan/wlan_cmd.c:202:26
	movw	r0, :lower16:.L.str.27
	movt	r0, :upper16:.L.str.27
	str	r0, [sp, #20]
	.loc	1 203 17                        @ rt-thread/components/drivers/wlan/wlan_cmd.c:203:17
	b	.LBB2_32
.LBB2_27:                               @   in Loop: Header=BB2_10 Depth=1
	.loc	1 205 26                        @ rt-thread/components/drivers/wlan/wlan_cmd.c:205:26
	movw	r0, :lower16:.L.str.28
	movt	r0, :upper16:.L.str.28
	str	r0, [sp, #20]
	.loc	1 206 17                        @ rt-thread/components/drivers/wlan/wlan_cmd.c:206:17
	b	.LBB2_32
.LBB2_28:                               @   in Loop: Header=BB2_10 Depth=1
	.loc	1 208 26                        @ rt-thread/components/drivers/wlan/wlan_cmd.c:208:26
	movw	r0, :lower16:.L.str.29
	movt	r0, :upper16:.L.str.29
	str	r0, [sp, #20]
	.loc	1 209 17                        @ rt-thread/components/drivers/wlan/wlan_cmd.c:209:17
	b	.LBB2_32
.LBB2_29:                               @   in Loop: Header=BB2_10 Depth=1
	.loc	1 211 26                        @ rt-thread/components/drivers/wlan/wlan_cmd.c:211:26
	movw	r0, :lower16:.L.str.30
	movt	r0, :upper16:.L.str.30
	str	r0, [sp, #20]
	.loc	1 212 17                        @ rt-thread/components/drivers/wlan/wlan_cmd.c:212:17
	b	.LBB2_32
.LBB2_30:                               @   in Loop: Header=BB2_10 Depth=1
	.loc	1 214 26                        @ rt-thread/components/drivers/wlan/wlan_cmd.c:214:26
	movw	r0, :lower16:.L.str.31
	movt	r0, :upper16:.L.str.31
	str	r0, [sp, #20]
	.loc	1 215 17                        @ rt-thread/components/drivers/wlan/wlan_cmd.c:215:17
	b	.LBB2_32
.LBB2_31:                               @   in Loop: Header=BB2_10 Depth=1
	.loc	1 217 26                        @ rt-thread/components/drivers/wlan/wlan_cmd.c:217:26
	movw	r0, :lower16:.L.str.32
	movt	r0, :upper16:.L.str.32
	str	r0, [sp, #20]
	.loc	1 218 17                        @ rt-thread/components/drivers/wlan/wlan_cmd.c:218:17
	b	.LBB2_32
.Ltmp46:
.LBB2_32:                               @   in Loop: Header=BB2_10 Depth=1
	.loc	1 220 37                        @ rt-thread/components/drivers/wlan/wlan_cmd.c:220:37
	ldr	r1, [sp, #20]
	.loc	1 220 13 is_stmt 0              @ rt-thread/components/drivers/wlan/wlan_cmd.c:220:13
	movw	r0, :lower16:.L.str.33
	movt	r0, :upper16:.L.str.33
	bl	rt_kprintf
	.loc	1 221 33 is_stmt 1              @ rt-thread/components/drivers/wlan/wlan_cmd.c:221:33
	ldr	r0, [sp, #96]
	.loc	1 221 46 is_stmt 0              @ rt-thread/components/drivers/wlan/wlan_cmd.c:221:46
	ldr	r0, [r0, #4]
	.loc	1 221 51                        @ rt-thread/components/drivers/wlan/wlan_cmd.c:221:51
	ldr	r1, [sp, #28]
	.loc	1 221 33                        @ rt-thread/components/drivers/wlan/wlan_cmd.c:221:33
	rsb	r1, r1, r1, lsl #4
	add.w	r0, r0, r1, lsl #2
	.loc	1 221 58                        @ rt-thread/components/drivers/wlan/wlan_cmd.c:221:58
	ldrsh.w	r1, [r0, #14]
	.loc	1 221 13                        @ rt-thread/components/drivers/wlan/wlan_cmd.c:221:13
	movw	r0, :lower16:.L.str.34
	movt	r0, :upper16:.L.str.34
	bl	rt_kprintf
	.loc	1 222 32 is_stmt 1              @ rt-thread/components/drivers/wlan/wlan_cmd.c:222:32
	ldr	r0, [sp, #96]
	.loc	1 222 45 is_stmt 0              @ rt-thread/components/drivers/wlan/wlan_cmd.c:222:45
	ldr	r0, [r0, #4]
	.loc	1 222 50                        @ rt-thread/components/drivers/wlan/wlan_cmd.c:222:50
	ldr	r1, [sp, #28]
	.loc	1 222 32                        @ rt-thread/components/drivers/wlan/wlan_cmd.c:222:32
	rsb	r1, r1, r1, lsl #4
	add.w	r0, r0, r1, lsl #2
	.loc	1 222 57                        @ rt-thread/components/drivers/wlan/wlan_cmd.c:222:57
	ldrsh.w	r1, [r0, #12]
	.loc	1 222 13                        @ rt-thread/components/drivers/wlan/wlan_cmd.c:222:13
	movw	r0, :lower16:.L.str.35
	movt	r0, :upper16:.L.str.35
	bl	rt_kprintf
	.loc	1 223 33 is_stmt 1              @ rt-thread/components/drivers/wlan/wlan_cmd.c:223:33
	ldr	r0, [sp, #96]
	.loc	1 223 46 is_stmt 0              @ rt-thread/components/drivers/wlan/wlan_cmd.c:223:46
	ldr	r0, [r0, #4]
	.loc	1 223 51                        @ rt-thread/components/drivers/wlan/wlan_cmd.c:223:51
	ldr	r1, [sp, #28]
	.loc	1 223 33                        @ rt-thread/components/drivers/wlan/wlan_cmd.c:223:33
	rsb	r1, r1, r1, lsl #4
	add.w	r0, r0, r1, lsl #2
	.loc	1 223 58                        @ rt-thread/components/drivers/wlan/wlan_cmd.c:223:58
	ldr	r0, [r0, #8]
	movw	r1, #56963
	movt	r1, #17179
	.loc	1 223 67                        @ rt-thread/components/drivers/wlan/wlan_cmd.c:223:67
	umull	r1, r0, r0, r1
	lsrs	r1, r0, #18
	.loc	1 223 13                        @ rt-thread/components/drivers/wlan/wlan_cmd.c:223:13
	movw	r0, :lower16:.L.str.36
	movt	r0, :upper16:.L.str.36
	bl	rt_kprintf
	.loc	1 224 9 is_stmt 1               @ rt-thread/components/drivers/wlan/wlan_cmd.c:224:9
	b	.LBB2_33
.Ltmp47:
.LBB2_33:                               @   in Loop: Header=BB2_10 Depth=1
	.loc	1 173 44                        @ rt-thread/components/drivers/wlan/wlan_cmd.c:173:44
	ldr	r0, [sp, #28]
	adds	r0, #1
	str	r0, [sp, #28]
	.loc	1 173 9 is_stmt 0               @ rt-thread/components/drivers/wlan/wlan_cmd.c:173:9
	b	.LBB2_10
.Ltmp48:
.LBB2_34:
	.loc	1 225 9 is_stmt 1               @ rt-thread/components/drivers/wlan/wlan_cmd.c:225:9
	bl	rt_wlan_scan_result_clean
	.loc	1 226 5                         @ rt-thread/components/drivers/wlan/wlan_cmd.c:226:5
	b	.LBB2_36
.Ltmp49:
.LBB2_35:
	.loc	1 229 9                         @ rt-thread/components/drivers/wlan/wlan_cmd.c:229:9
	movw	r0, :lower16:.L.str.37
	movt	r0, :upper16:.L.str.37
	bl	rt_kprintf
	b	.LBB2_36
.Ltmp50:
.LBB2_36:
	.loc	1 0 9 is_stmt 0                 @ rt-thread/components/drivers/wlan/wlan_cmd.c:0:9
	movs	r0, #0
	.loc	1 231 5 is_stmt 1               @ rt-thread/components/drivers/wlan/wlan_cmd.c:231:5
	str	r0, [sp, #108]
	b	.LBB2_37
.LBB2_37:
	.loc	1 232 1                         @ rt-thread/components/drivers/wlan/wlan_cmd.c:232:1
	ldr	r0, [sp, #108]
	add	sp, #112
	pop	{r4, pc}
.Ltmp51:
.Lfunc_end2:
	.size	wifi_scan, .Lfunc_end2-wifi_scan
	.cfi_endproc
	.cantunwind
	.fnend
                                        @ -- End function
	.section	.text.wifi_status,"ax",%progbits
	.p2align	3                               @ -- Begin function wifi_status
	.type	wifi_status,%function
	.code	16                              @ @wifi_status
	.thumb_func
wifi_status:
.Lfunc_begin3:
	.loc	1 94 0                          @ rt-thread/components/drivers/wlan/wlan_cmd.c:94:0
	.fnstart
	.cfi_startproc
@ %bb.0:
	.save	{r4, lr}
	push	{r4, lr}
	.cfi_def_cfa_offset 8
	.cfi_offset lr, -4
	.cfi_offset r4, -8
	.pad	#96
	sub	sp, #96
	.cfi_def_cfa_offset 104
	str	r0, [sp, #88]
	str	r1, [sp, #84]
.Ltmp52:
	.loc	1 98 9 prologue_end             @ rt-thread/components/drivers/wlan/wlan_cmd.c:98:9
	ldr	r0, [sp, #88]
.Ltmp53:
	.loc	1 98 9 is_stmt 0                @ rt-thread/components/drivers/wlan/wlan_cmd.c:98:9
	cmp	r0, #3
	blt	.LBB3_2
	b	.LBB3_1
.LBB3_1:
	.loc	1 0 9                           @ rt-thread/components/drivers/wlan/wlan_cmd.c:0:9
	mov.w	r0, #-1
.Ltmp54:
	.loc	1 99 9 is_stmt 1                @ rt-thread/components/drivers/wlan/wlan_cmd.c:99:9
	str	r0, [sp, #92]
	b	.LBB3_9
.Ltmp55:
.LBB3_2:
	.loc	1 101 9                         @ rt-thread/components/drivers/wlan/wlan_cmd.c:101:9
	bl	rt_wlan_is_connected
.Ltmp56:
	.loc	1 101 9 is_stmt 0               @ rt-thread/components/drivers/wlan/wlan_cmd.c:101:9
	cmp	r0, #1
	bne	.LBB3_4
	b	.LBB3_3
.LBB3_3:
.Ltmp57:
	.loc	1 103 16 is_stmt 1              @ rt-thread/components/drivers/wlan/wlan_cmd.c:103:16
	bl	rt_wlan_get_rssi
	.loc	1 103 14 is_stmt 0              @ rt-thread/components/drivers/wlan/wlan_cmd.c:103:14
	str	r0, [sp, #80]
	add	r0, sp, #20
	.loc	1 104 9 is_stmt 1               @ rt-thread/components/drivers/wlan/wlan_cmd.c:104:9
	str	r0, [sp, #16]                   @ 4-byte Spill
	bl	rt_wlan_get_info
	.loc	1 105 9                         @ rt-thread/components/drivers/wlan/wlan_cmd.c:105:9
	movw	r0, :lower16:.L.str.38
	movt	r0, :upper16:.L.str.38
	bl	rt_kprintf
	ldr	r0, [sp, #16]                   @ 4-byte Reload
	.loc	1 106 50                        @ rt-thread/components/drivers/wlan/wlan_cmd.c:106:50
	add.w	r1, r0, #17
	.loc	1 106 9 is_stmt 0               @ rt-thread/components/drivers/wlan/wlan_cmd.c:106:9
	movw	r0, :lower16:.L.str.39
	movt	r0, :upper16:.L.str.39
	bl	rt_kprintf
	.loc	1 107 65 is_stmt 1              @ rt-thread/components/drivers/wlan/wlan_cmd.c:107:65
	ldrb.w	r1, [sp, #70]
	.loc	1 108 20                        @ rt-thread/components/drivers/wlan/wlan_cmd.c:108:20
	ldrb.w	r2, [sp, #71]
	.loc	1 109 20                        @ rt-thread/components/drivers/wlan/wlan_cmd.c:109:20
	ldrb.w	r3, [sp, #72]
	.loc	1 110 20                        @ rt-thread/components/drivers/wlan/wlan_cmd.c:110:20
	ldrb.w	r0, [sp, #73]
	.loc	1 111 20                        @ rt-thread/components/drivers/wlan/wlan_cmd.c:111:20
	ldrb.w	lr, [sp, #74]
	.loc	1 112 20                        @ rt-thread/components/drivers/wlan/wlan_cmd.c:112:20
	ldrb.w	r4, [sp, #75]
	.loc	1 107 9                         @ rt-thread/components/drivers/wlan/wlan_cmd.c:107:9
	mov	r12, sp
	str.w	r4, [r12, #8]
	str.w	lr, [r12, #4]
	str.w	r0, [r12]
	movw	r0, :lower16:.L.str.40
	movt	r0, :upper16:.L.str.40
	bl	rt_kprintf
	.loc	1 113 42                        @ rt-thread/components/drivers/wlan/wlan_cmd.c:113:42
	ldrsh.w	r1, [sp, #32]
	.loc	1 113 9 is_stmt 0               @ rt-thread/components/drivers/wlan/wlan_cmd.c:113:9
	movw	r0, :lower16:.L.str.41
	movt	r0, :upper16:.L.str.41
	bl	rt_kprintf
	.loc	1 114 47 is_stmt 1              @ rt-thread/components/drivers/wlan/wlan_cmd.c:114:47
	ldr	r0, [sp, #28]
	movw	r1, #56963
	movt	r1, #17179
	.loc	1 114 56 is_stmt 0              @ rt-thread/components/drivers/wlan/wlan_cmd.c:114:56
	umull	r1, r0, r0, r1
	lsrs	r1, r0, #18
	.loc	1 114 9                         @ rt-thread/components/drivers/wlan/wlan_cmd.c:114:9
	movw	r0, :lower16:.L.str.42
	movt	r0, :upper16:.L.str.42
	bl	rt_kprintf
	.loc	1 115 34 is_stmt 1              @ rt-thread/components/drivers/wlan/wlan_cmd.c:115:34
	ldr	r1, [sp, #80]
	.loc	1 115 9 is_stmt 0               @ rt-thread/components/drivers/wlan/wlan_cmd.c:115:9
	movw	r0, :lower16:.L.str.43
	movt	r0, :upper16:.L.str.43
	bl	rt_kprintf
	.loc	1 116 5 is_stmt 1               @ rt-thread/components/drivers/wlan/wlan_cmd.c:116:5
	b	.LBB3_5
.Ltmp58:
.LBB3_4:
	.loc	1 119 9                         @ rt-thread/components/drivers/wlan/wlan_cmd.c:119:9
	movw	r0, :lower16:.L.str.44
	movt	r0, :upper16:.L.str.44
	bl	rt_kprintf
	b	.LBB3_5
.Ltmp59:
.LBB3_5:
	.loc	1 122 9                         @ rt-thread/components/drivers/wlan/wlan_cmd.c:122:9
	bl	rt_wlan_ap_is_active
.Ltmp60:
	.loc	1 122 9 is_stmt 0               @ rt-thread/components/drivers/wlan/wlan_cmd.c:122:9
	cmp	r0, #1
	bne	.LBB3_7
	b	.LBB3_6
.LBB3_6:
	.loc	1 0 9                           @ rt-thread/components/drivers/wlan/wlan_cmd.c:0:9
	add	r0, sp, #20
.Ltmp61:
	.loc	1 124 9 is_stmt 1               @ rt-thread/components/drivers/wlan/wlan_cmd.c:124:9
	str	r0, [sp, #12]                   @ 4-byte Spill
	bl	rt_wlan_ap_get_info
	.loc	1 125 9                         @ rt-thread/components/drivers/wlan/wlan_cmd.c:125:9
	movw	r0, :lower16:.L.str.45
	movt	r0, :upper16:.L.str.45
	bl	rt_kprintf
	ldr	r0, [sp, #12]                   @ 4-byte Reload
	.loc	1 126 50                        @ rt-thread/components/drivers/wlan/wlan_cmd.c:126:50
	add.w	r1, r0, #17
	.loc	1 126 9 is_stmt 0               @ rt-thread/components/drivers/wlan/wlan_cmd.c:126:9
	movw	r0, :lower16:.L.str.39
	movt	r0, :upper16:.L.str.39
	bl	rt_kprintf
	.loc	1 127 65 is_stmt 1              @ rt-thread/components/drivers/wlan/wlan_cmd.c:127:65
	ldrb.w	r1, [sp, #70]
	.loc	1 128 20                        @ rt-thread/components/drivers/wlan/wlan_cmd.c:128:20
	ldrb.w	r2, [sp, #71]
	.loc	1 129 20                        @ rt-thread/components/drivers/wlan/wlan_cmd.c:129:20
	ldrb.w	r3, [sp, #72]
	.loc	1 130 20                        @ rt-thread/components/drivers/wlan/wlan_cmd.c:130:20
	ldrb.w	r0, [sp, #73]
	.loc	1 131 20                        @ rt-thread/components/drivers/wlan/wlan_cmd.c:131:20
	ldrb.w	lr, [sp, #74]
	.loc	1 132 20                        @ rt-thread/components/drivers/wlan/wlan_cmd.c:132:20
	ldrb.w	r4, [sp, #75]
	.loc	1 127 9                         @ rt-thread/components/drivers/wlan/wlan_cmd.c:127:9
	mov	r12, sp
	str.w	r4, [r12, #8]
	str.w	lr, [r12, #4]
	str.w	r0, [r12]
	movw	r0, :lower16:.L.str.40
	movt	r0, :upper16:.L.str.40
	bl	rt_kprintf
	.loc	1 133 42                        @ rt-thread/components/drivers/wlan/wlan_cmd.c:133:42
	ldrsh.w	r1, [sp, #32]
	.loc	1 133 9 is_stmt 0               @ rt-thread/components/drivers/wlan/wlan_cmd.c:133:9
	movw	r0, :lower16:.L.str.41
	movt	r0, :upper16:.L.str.41
	bl	rt_kprintf
	.loc	1 134 47 is_stmt 1              @ rt-thread/components/drivers/wlan/wlan_cmd.c:134:47
	ldr	r0, [sp, #28]
	movw	r1, #56963
	movt	r1, #17179
	.loc	1 134 56 is_stmt 0              @ rt-thread/components/drivers/wlan/wlan_cmd.c:134:56
	umull	r1, r0, r0, r1
	lsrs	r1, r0, #18
	.loc	1 134 9                         @ rt-thread/components/drivers/wlan/wlan_cmd.c:134:9
	movw	r0, :lower16:.L.str.42
	movt	r0, :upper16:.L.str.42
	bl	rt_kprintf
	.loc	1 135 41 is_stmt 1              @ rt-thread/components/drivers/wlan/wlan_cmd.c:135:41
	ldrb.w	r2, [sp, #76]
	.loc	1 135 36 is_stmt 0              @ rt-thread/components/drivers/wlan/wlan_cmd.c:135:36
	movw	r0, :lower16:.L.str.47
	movt	r0, :upper16:.L.str.47
	movw	r1, :lower16:.L.str.48
	movt	r1, :upper16:.L.str.48
	cmp	r2, #0
	it	ne
	movne	r1, r0
	.loc	1 135 9                         @ rt-thread/components/drivers/wlan/wlan_cmd.c:135:9
	movw	r0, :lower16:.L.str.46
	movt	r0, :upper16:.L.str.46
	bl	rt_kprintf
	.loc	1 136 5 is_stmt 1               @ rt-thread/components/drivers/wlan/wlan_cmd.c:136:5
	b	.LBB3_8
.Ltmp62:
.LBB3_7:
	.loc	1 139 9                         @ rt-thread/components/drivers/wlan/wlan_cmd.c:139:9
	movw	r0, :lower16:.L.str.49
	movt	r0, :upper16:.L.str.49
	bl	rt_kprintf
	b	.LBB3_8
.Ltmp63:
.LBB3_8:
	.loc	1 141 46                        @ rt-thread/components/drivers/wlan/wlan_cmd.c:141:46
	bl	rt_wlan_get_autoreconnect_mode
	mov	r2, r0
	movw	r0, :lower16:.L.str.47
	movt	r0, :upper16:.L.str.47
	movw	r1, :lower16:.L.str.48
	movt	r1, :upper16:.L.str.48
	cmp	r2, #0
	it	ne
	movne	r1, r0
	.loc	1 141 5 is_stmt 0               @ rt-thread/components/drivers/wlan/wlan_cmd.c:141:5
	movw	r0, :lower16:.L.str.50
	movt	r0, :upper16:.L.str.50
	bl	rt_kprintf
	movs	r0, #0
	.loc	1 142 5 is_stmt 1               @ rt-thread/components/drivers/wlan/wlan_cmd.c:142:5
	str	r0, [sp, #92]
	b	.LBB3_9
.LBB3_9:
	.loc	1 143 1                         @ rt-thread/components/drivers/wlan/wlan_cmd.c:143:1
	ldr	r0, [sp, #92]
	add	sp, #96
	pop	{r4, pc}
.Ltmp64:
.Lfunc_end3:
	.size	wifi_status, .Lfunc_end3-wifi_status
	.cfi_endproc
	.cantunwind
	.fnend
                                        @ -- End function
	.section	.text.wifi_join,"ax",%progbits
	.p2align	3                               @ -- Begin function wifi_join
	.type	wifi_join,%function
	.code	16                              @ @wifi_join
	.thumb_func
wifi_join:
.Lfunc_begin4:
	.loc	1 235 0                         @ rt-thread/components/drivers/wlan/wlan_cmd.c:235:0
	.fnstart
	.cfi_startproc
@ %bb.0:
	.save	{r7, lr}
	push	{r7, lr}
	.cfi_def_cfa_offset 8
	.cfi_offset lr, -4
	.cfi_offset r7, -8
	.pad	#120
	sub	sp, #120
	.cfi_def_cfa_offset 128
	str	r0, [sp, #112]
	str	r1, [sp, #108]
	movs	r1, #0
.Ltmp65:
	.loc	1 236 17 prologue_end           @ rt-thread/components/drivers/wlan/wlan_cmd.c:236:17
	str	r1, [sp, #104]
	.loc	1 237 17                        @ rt-thread/components/drivers/wlan/wlan_cmd.c:237:17
	str	r1, [sp, #100]
	add	r0, sp, #4
	movs	r2, #96
	.loc	1 240 5                         @ rt-thread/components/drivers/wlan/wlan_cmd.c:240:5
	bl	rt_memset
.Ltmp66:
	.loc	1 241 9                         @ rt-thread/components/drivers/wlan/wlan_cmd.c:241:9
	ldr	r0, [sp, #112]
.Ltmp67:
	.loc	1 241 9 is_stmt 0               @ rt-thread/components/drivers/wlan/wlan_cmd.c:241:9
	cmp	r0, #2
	bne	.LBB4_7
	b	.LBB4_1
.LBB4_1:
	.loc	1 0 9                           @ rt-thread/components/drivers/wlan/wlan_cmd.c:0:9
	add	r0, sp, #4
	movs	r1, #0
.Ltmp68:
	.loc	1 245 13 is_stmt 1              @ rt-thread/components/drivers/wlan/wlan_cmd.c:245:13
	bl	rt_wlan_cfg_read_index
.Ltmp69:
	.loc	1 245 13 is_stmt 0              @ rt-thread/components/drivers/wlan/wlan_cmd.c:245:13
	cmp	r0, #1
	bne	.LBB4_5
	b	.LBB4_2
.LBB4_2:
	.loc	1 0 13                          @ rt-thread/components/drivers/wlan/wlan_cmd.c:0:13
	add	r0, sp, #4
.Ltmp70:
	.loc	1 247 49 is_stmt 1              @ rt-thread/components/drivers/wlan/wlan_cmd.c:247:49
	adds	r0, #17
	.loc	1 247 18 is_stmt 0              @ rt-thread/components/drivers/wlan/wlan_cmd.c:247:18
	str	r0, [sp, #104]
.Ltmp71:
	.loc	1 248 30 is_stmt 1              @ rt-thread/components/drivers/wlan/wlan_cmd.c:248:30
	ldrb.w	r0, [sp, #64]
.Ltmp72:
	.loc	1 248 17 is_stmt 0              @ rt-thread/components/drivers/wlan/wlan_cmd.c:248:17
	cbz	r0, .LBB4_4
	b	.LBB4_3
.LBB4_3:
	.loc	1 0 17                          @ rt-thread/components/drivers/wlan/wlan_cmd.c:0:17
	add	r0, sp, #4
.Ltmp73:
	.loc	1 249 46 is_stmt 1              @ rt-thread/components/drivers/wlan/wlan_cmd.c:249:46
	adds	r0, #61
	.loc	1 249 21 is_stmt 0              @ rt-thread/components/drivers/wlan/wlan_cmd.c:249:21
	str	r0, [sp, #100]
	.loc	1 249 17                        @ rt-thread/components/drivers/wlan/wlan_cmd.c:249:17
	b	.LBB4_4
.Ltmp74:
.LBB4_4:
	.loc	1 250 9 is_stmt 1               @ rt-thread/components/drivers/wlan/wlan_cmd.c:250:9
	b	.LBB4_6
.Ltmp75:
.LBB4_5:
	.loc	1 254 13                        @ rt-thread/components/drivers/wlan/wlan_cmd.c:254:13
	movw	r0, :lower16:.L.str.51
	movt	r0, :upper16:.L.str.51
	bl	rt_kprintf
	b	.LBB4_6
.Ltmp76:
.LBB4_6:
	.loc	1 256 5                         @ rt-thread/components/drivers/wlan/wlan_cmd.c:256:5
	b	.LBB4_14
.Ltmp77:
.LBB4_7:
	.loc	1 257 14                        @ rt-thread/components/drivers/wlan/wlan_cmd.c:257:14
	ldr	r0, [sp, #112]
.Ltmp78:
	.loc	1 257 14 is_stmt 0              @ rt-thread/components/drivers/wlan/wlan_cmd.c:257:14
	cmp	r0, #3
	bne	.LBB4_9
	b	.LBB4_8
.LBB4_8:
.Ltmp79:
	.loc	1 260 16 is_stmt 1              @ rt-thread/components/drivers/wlan/wlan_cmd.c:260:16
	ldr	r0, [sp, #108]
	ldr	r0, [r0, #8]
	.loc	1 260 14 is_stmt 0              @ rt-thread/components/drivers/wlan/wlan_cmd.c:260:14
	str	r0, [sp, #104]
	.loc	1 261 5 is_stmt 1               @ rt-thread/components/drivers/wlan/wlan_cmd.c:261:5
	b	.LBB4_13
.Ltmp80:
.LBB4_9:
	.loc	1 262 14                        @ rt-thread/components/drivers/wlan/wlan_cmd.c:262:14
	ldr	r0, [sp, #112]
.Ltmp81:
	.loc	1 262 14 is_stmt 0              @ rt-thread/components/drivers/wlan/wlan_cmd.c:262:14
	cmp	r0, #4
	bne	.LBB4_11
	b	.LBB4_10
.LBB4_10:
.Ltmp82:
	.loc	1 264 16 is_stmt 1              @ rt-thread/components/drivers/wlan/wlan_cmd.c:264:16
	ldr	r0, [sp, #108]
	ldr	r0, [r0, #8]
	.loc	1 264 14 is_stmt 0              @ rt-thread/components/drivers/wlan/wlan_cmd.c:264:14
	str	r0, [sp, #104]
	.loc	1 266 15 is_stmt 1              @ rt-thread/components/drivers/wlan/wlan_cmd.c:266:15
	ldr	r0, [sp, #108]
	ldr	r0, [r0, #12]
	.loc	1 266 13 is_stmt 0              @ rt-thread/components/drivers/wlan/wlan_cmd.c:266:13
	str	r0, [sp, #100]
	.loc	1 267 5 is_stmt 1               @ rt-thread/components/drivers/wlan/wlan_cmd.c:267:5
	b	.LBB4_12
.Ltmp83:
.LBB4_11:
	.loc	1 0 5 is_stmt 0                 @ rt-thread/components/drivers/wlan/wlan_cmd.c:0:5
	mov.w	r0, #-1
.Ltmp84:
	.loc	1 270 9 is_stmt 1               @ rt-thread/components/drivers/wlan/wlan_cmd.c:270:9
	str	r0, [sp, #116]
	b	.LBB4_15
.Ltmp85:
.LBB4_12:
	.loc	1 0 9 is_stmt 0                 @ rt-thread/components/drivers/wlan/wlan_cmd.c:0:9
	b	.LBB4_13
.LBB4_13:
	b	.LBB4_14
.LBB4_14:
	.loc	1 272 21 is_stmt 1              @ rt-thread/components/drivers/wlan/wlan_cmd.c:272:21
	ldr	r0, [sp, #104]
	.loc	1 272 27 is_stmt 0              @ rt-thread/components/drivers/wlan/wlan_cmd.c:272:27
	ldr	r1, [sp, #100]
	.loc	1 272 5                         @ rt-thread/components/drivers/wlan/wlan_cmd.c:272:5
	bl	rt_wlan_connect
	movs	r0, #0
	.loc	1 273 5 is_stmt 1               @ rt-thread/components/drivers/wlan/wlan_cmd.c:273:5
	str	r0, [sp, #116]
	b	.LBB4_15
.LBB4_15:
	.loc	1 274 1                         @ rt-thread/components/drivers/wlan/wlan_cmd.c:274:1
	ldr	r0, [sp, #116]
	add	sp, #120
	pop	{r7, pc}
.Ltmp86:
.Lfunc_end4:
	.size	wifi_join, .Lfunc_end4-wifi_join
	.cfi_endproc
	.cantunwind
	.fnend
                                        @ -- End function
	.section	.text.wifi_ap,"ax",%progbits
	.p2align	3                               @ -- Begin function wifi_ap
	.type	wifi_ap,%function
	.code	16                              @ @wifi_ap
	.thumb_func
wifi_ap:
.Lfunc_begin5:
	.loc	1 277 0                         @ rt-thread/components/drivers/wlan/wlan_cmd.c:277:0
	.fnstart
	.cfi_startproc
@ %bb.0:
	.save	{r7, lr}
	push	{r7, lr}
	.cfi_def_cfa_offset 8
	.cfi_offset lr, -4
	.cfi_offset r7, -8
	.pad	#24
	sub	sp, #24
	.cfi_def_cfa_offset 32
	str	r0, [sp, #16]
	str	r1, [sp, #12]
	movs	r0, #0
.Ltmp87:
	.loc	1 278 17 prologue_end           @ rt-thread/components/drivers/wlan/wlan_cmd.c:278:17
	str	r0, [sp, #8]
	.loc	1 279 17                        @ rt-thread/components/drivers/wlan/wlan_cmd.c:279:17
	str	r0, [sp, #4]
.Ltmp88:
	.loc	1 281 9                         @ rt-thread/components/drivers/wlan/wlan_cmd.c:281:9
	ldr	r0, [sp, #16]
.Ltmp89:
	.loc	1 281 9 is_stmt 0               @ rt-thread/components/drivers/wlan/wlan_cmd.c:281:9
	cmp	r0, #3
	bne	.LBB5_2
	b	.LBB5_1
.LBB5_1:
.Ltmp90:
	.loc	1 283 16 is_stmt 1              @ rt-thread/components/drivers/wlan/wlan_cmd.c:283:16
	ldr	r0, [sp, #12]
	ldr	r0, [r0, #8]
	.loc	1 283 14 is_stmt 0              @ rt-thread/components/drivers/wlan/wlan_cmd.c:283:14
	str	r0, [sp, #8]
	.loc	1 284 5 is_stmt 1               @ rt-thread/components/drivers/wlan/wlan_cmd.c:284:5
	b	.LBB5_6
.Ltmp91:
.LBB5_2:
	.loc	1 285 14                        @ rt-thread/components/drivers/wlan/wlan_cmd.c:285:14
	ldr	r0, [sp, #16]
.Ltmp92:
	.loc	1 285 14 is_stmt 0              @ rt-thread/components/drivers/wlan/wlan_cmd.c:285:14
	cmp	r0, #4
	bne	.LBB5_4
	b	.LBB5_3
.LBB5_3:
.Ltmp93:
	.loc	1 287 16 is_stmt 1              @ rt-thread/components/drivers/wlan/wlan_cmd.c:287:16
	ldr	r0, [sp, #12]
	ldr	r0, [r0, #8]
	.loc	1 287 14 is_stmt 0              @ rt-thread/components/drivers/wlan/wlan_cmd.c:287:14
	str	r0, [sp, #8]
	.loc	1 288 15 is_stmt 1              @ rt-thread/components/drivers/wlan/wlan_cmd.c:288:15
	ldr	r0, [sp, #12]
	ldr	r0, [r0, #12]
	.loc	1 288 13 is_stmt 0              @ rt-thread/components/drivers/wlan/wlan_cmd.c:288:13
	str	r0, [sp, #4]
	.loc	1 289 5 is_stmt 1               @ rt-thread/components/drivers/wlan/wlan_cmd.c:289:5
	b	.LBB5_5
.Ltmp94:
.LBB5_4:
	.loc	1 0 5 is_stmt 0                 @ rt-thread/components/drivers/wlan/wlan_cmd.c:0:5
	mov.w	r0, #-1
.Ltmp95:
	.loc	1 292 9 is_stmt 1               @ rt-thread/components/drivers/wlan/wlan_cmd.c:292:9
	str	r0, [sp, #20]
	b	.LBB5_7
.Ltmp96:
.LBB5_5:
	.loc	1 0 9 is_stmt 0                 @ rt-thread/components/drivers/wlan/wlan_cmd.c:0:9
	b	.LBB5_6
.LBB5_6:
	.loc	1 295 22 is_stmt 1              @ rt-thread/components/drivers/wlan/wlan_cmd.c:295:22
	ldr	r0, [sp, #8]
	.loc	1 295 28 is_stmt 0              @ rt-thread/components/drivers/wlan/wlan_cmd.c:295:28
	ldr	r1, [sp, #4]
	.loc	1 295 5                         @ rt-thread/components/drivers/wlan/wlan_cmd.c:295:5
	bl	rt_wlan_start_ap
	movs	r0, #0
	.loc	1 296 5 is_stmt 1               @ rt-thread/components/drivers/wlan/wlan_cmd.c:296:5
	str	r0, [sp, #20]
	b	.LBB5_7
.LBB5_7:
	.loc	1 297 1                         @ rt-thread/components/drivers/wlan/wlan_cmd.c:297:1
	ldr	r0, [sp, #20]
	add	sp, #24
	pop	{r7, pc}
.Ltmp97:
.Lfunc_end5:
	.size	wifi_ap, .Lfunc_end5-wifi_ap
	.cfi_endproc
	.cantunwind
	.fnend
                                        @ -- End function
	.section	.text.wifi_list_sta,"ax",%progbits
	.p2align	3                               @ -- Begin function wifi_list_sta
	.type	wifi_list_sta,%function
	.code	16                              @ @wifi_list_sta
	.thumb_func
wifi_list_sta:
.Lfunc_begin6:
	.loc	1 300 0                         @ rt-thread/components/drivers/wlan/wlan_cmd.c:300:0
	.fnstart
	.cfi_startproc
@ %bb.0:
	.save	{r4, lr}
	push	{r4, lr}
	.cfi_def_cfa_offset 8
	.cfi_offset lr, -4
	.cfi_offset r4, -8
	.pad	#40
	sub	sp, #40
	.cfi_def_cfa_offset 48
	str	r0, [sp, #32]
	str	r1, [sp, #28]
.Ltmp98:
	.loc	1 304 9 prologue_end            @ rt-thread/components/drivers/wlan/wlan_cmd.c:304:9
	ldr	r0, [sp, #32]
.Ltmp99:
	.loc	1 304 9 is_stmt 0               @ rt-thread/components/drivers/wlan/wlan_cmd.c:304:9
	cmp	r0, #3
	blt	.LBB6_2
	b	.LBB6_1
.LBB6_1:
	.loc	1 0 9                           @ rt-thread/components/drivers/wlan/wlan_cmd.c:0:9
	mov.w	r0, #-1
.Ltmp100:
	.loc	1 305 9 is_stmt 1               @ rt-thread/components/drivers/wlan/wlan_cmd.c:305:9
	str	r0, [sp, #36]
	b	.LBB6_9
.Ltmp101:
.LBB6_2:
	.loc	1 306 11                        @ rt-thread/components/drivers/wlan/wlan_cmd.c:306:11
	bl	rt_wlan_ap_get_sta_num
	.loc	1 306 9 is_stmt 0               @ rt-thread/components/drivers/wlan/wlan_cmd.c:306:9
	str	r0, [sp, #20]
	.loc	1 307 56 is_stmt 1              @ rt-thread/components/drivers/wlan/wlan_cmd.c:307:56
	ldr	r0, [sp, #20]
	.loc	1 307 54 is_stmt 0              @ rt-thread/components/drivers/wlan/wlan_cmd.c:307:54
	rsb	r0, r0, r0, lsl #4
	lsls	r0, r0, #2
	.loc	1 307 16                        @ rt-thread/components/drivers/wlan/wlan_cmd.c:307:16
	bl	rt_malloc
	.loc	1 307 14                        @ rt-thread/components/drivers/wlan/wlan_cmd.c:307:14
	str	r0, [sp, #24]
.Ltmp102:
	.loc	1 308 9 is_stmt 1               @ rt-thread/components/drivers/wlan/wlan_cmd.c:308:9
	ldr	r0, [sp, #24]
.Ltmp103:
	.loc	1 308 9 is_stmt 0               @ rt-thread/components/drivers/wlan/wlan_cmd.c:308:9
	cbnz	r0, .LBB6_4
	b	.LBB6_3
.LBB6_3:
.Ltmp104:
	.loc	1 310 32 is_stmt 1              @ rt-thread/components/drivers/wlan/wlan_cmd.c:310:32
	ldr	r1, [sp, #20]
	.loc	1 310 9 is_stmt 0               @ rt-thread/components/drivers/wlan/wlan_cmd.c:310:9
	movw	r0, :lower16:.L.str.52
	movt	r0, :upper16:.L.str.52
	bl	rt_kprintf
	movs	r0, #0
	.loc	1 311 9 is_stmt 1               @ rt-thread/components/drivers/wlan/wlan_cmd.c:311:9
	str	r0, [sp, #36]
	b	.LBB6_9
.Ltmp105:
.LBB6_4:
	.loc	1 313 29                        @ rt-thread/components/drivers/wlan/wlan_cmd.c:313:29
	ldr	r0, [sp, #24]
	.loc	1 313 39 is_stmt 0              @ rt-thread/components/drivers/wlan/wlan_cmd.c:313:39
	ldr	r1, [sp, #20]
	.loc	1 313 5                         @ rt-thread/components/drivers/wlan/wlan_cmd.c:313:5
	bl	rt_wlan_ap_get_sta_info
	.loc	1 314 28 is_stmt 1              @ rt-thread/components/drivers/wlan/wlan_cmd.c:314:28
	ldr	r1, [sp, #20]
	.loc	1 314 5 is_stmt 0               @ rt-thread/components/drivers/wlan/wlan_cmd.c:314:5
	movw	r0, :lower16:.L.str.52
	movt	r0, :upper16:.L.str.52
	bl	rt_kprintf
	movs	r0, #0
.Ltmp106:
	.loc	1 315 12 is_stmt 1              @ rt-thread/components/drivers/wlan/wlan_cmd.c:315:12
	str	r0, [sp, #16]
	.loc	1 315 10 is_stmt 0              @ rt-thread/components/drivers/wlan/wlan_cmd.c:315:10
	b	.LBB6_5
.LBB6_5:                                @ =>This Inner Loop Header: Depth=1
.Ltmp107:
	.loc	1 315 17                        @ rt-thread/components/drivers/wlan/wlan_cmd.c:315:17
	ldr	r0, [sp, #16]
	.loc	1 315 21                        @ rt-thread/components/drivers/wlan/wlan_cmd.c:315:21
	ldr	r1, [sp, #20]
.Ltmp108:
	.loc	1 315 5                         @ rt-thread/components/drivers/wlan/wlan_cmd.c:315:5
	cmp	r0, r1
	bge	.LBB6_8
	b	.LBB6_6
.LBB6_6:                                @   in Loop: Header=BB6_5 Depth=1
.Ltmp109:
	.loc	1 318 20 is_stmt 1              @ rt-thread/components/drivers/wlan/wlan_cmd.c:318:20
	ldr	r0, [sp, #24]
	.loc	1 318 29 is_stmt 0              @ rt-thread/components/drivers/wlan/wlan_cmd.c:318:29
	ldr	r1, [sp, #16]
	.loc	1 318 20                        @ rt-thread/components/drivers/wlan/wlan_cmd.c:318:20
	rsb	r1, r1, r1, lsl #4
	add.w	r12, r0, r1, lsl #2
	ldrb.w	r1, [r12, #50]
	.loc	1 318 42                        @ rt-thread/components/drivers/wlan/wlan_cmd.c:318:42
	ldrb.w	r2, [r12, #51]
	.loc	1 318 64                        @ rt-thread/components/drivers/wlan/wlan_cmd.c:318:64
	ldrb.w	r3, [r12, #52]
	.loc	1 319 20 is_stmt 1              @ rt-thread/components/drivers/wlan/wlan_cmd.c:319:20
	ldrb.w	r0, [r12, #53]
	.loc	1 319 42 is_stmt 0              @ rt-thread/components/drivers/wlan/wlan_cmd.c:319:42
	ldrb.w	lr, [r12, #54]
	.loc	1 319 64                        @ rt-thread/components/drivers/wlan/wlan_cmd.c:319:64
	ldrb.w	r4, [r12, #55]
	.loc	1 317 9 is_stmt 1               @ rt-thread/components/drivers/wlan/wlan_cmd.c:317:9
	mov	r12, sp
	str.w	r4, [r12, #8]
	str.w	lr, [r12, #4]
	str.w	r0, [r12]
	movw	r0, :lower16:.L.str.53
	movt	r0, :upper16:.L.str.53
	bl	rt_kprintf
	.loc	1 320 5                         @ rt-thread/components/drivers/wlan/wlan_cmd.c:320:5
	b	.LBB6_7
.Ltmp110:
.LBB6_7:                                @   in Loop: Header=BB6_5 Depth=1
	.loc	1 315 27                        @ rt-thread/components/drivers/wlan/wlan_cmd.c:315:27
	ldr	r0, [sp, #16]
	adds	r0, #1
	str	r0, [sp, #16]
	.loc	1 315 5 is_stmt 0               @ rt-thread/components/drivers/wlan/wlan_cmd.c:315:5
	b	.LBB6_5
.Ltmp111:
.LBB6_8:
	.loc	1 321 13 is_stmt 1              @ rt-thread/components/drivers/wlan/wlan_cmd.c:321:13
	ldr	r0, [sp, #24]
	.loc	1 321 5 is_stmt 0               @ rt-thread/components/drivers/wlan/wlan_cmd.c:321:5
	bl	rt_free
	movs	r0, #0
	.loc	1 322 5 is_stmt 1               @ rt-thread/components/drivers/wlan/wlan_cmd.c:322:5
	str	r0, [sp, #36]
	b	.LBB6_9
.LBB6_9:
	.loc	1 323 1                         @ rt-thread/components/drivers/wlan/wlan_cmd.c:323:1
	ldr	r0, [sp, #36]
	add	sp, #40
	pop	{r4, pc}
.Ltmp112:
.Lfunc_end6:
	.size	wifi_list_sta, .Lfunc_end6-wifi_list_sta
	.cfi_endproc
	.cantunwind
	.fnend
                                        @ -- End function
	.section	.text.wifi_disconnect,"ax",%progbits
	.p2align	3                               @ -- Begin function wifi_disconnect
	.type	wifi_disconnect,%function
	.code	16                              @ @wifi_disconnect
	.thumb_func
wifi_disconnect:
.Lfunc_begin7:
	.loc	1 326 0                         @ rt-thread/components/drivers/wlan/wlan_cmd.c:326:0
	.fnstart
	.cfi_startproc
@ %bb.0:
	.save	{r7, lr}
	push	{r7, lr}
	.cfi_def_cfa_offset 8
	.cfi_offset lr, -4
	.cfi_offset r7, -8
	.pad	#16
	sub	sp, #16
	.cfi_def_cfa_offset 24
	str	r0, [sp, #8]
	str	r1, [sp, #4]
.Ltmp113:
	.loc	1 327 9 prologue_end            @ rt-thread/components/drivers/wlan/wlan_cmd.c:327:9
	ldr	r0, [sp, #8]
.Ltmp114:
	.loc	1 327 9 is_stmt 0               @ rt-thread/components/drivers/wlan/wlan_cmd.c:327:9
	cmp	r0, #2
	beq	.LBB7_2
	b	.LBB7_1
.LBB7_1:
	.loc	1 0 9                           @ rt-thread/components/drivers/wlan/wlan_cmd.c:0:9
	mov.w	r0, #-1
.Ltmp115:
	.loc	1 329 9 is_stmt 1               @ rt-thread/components/drivers/wlan/wlan_cmd.c:329:9
	str	r0, [sp, #12]
	b	.LBB7_3
.Ltmp116:
.LBB7_2:
	.loc	1 332 5                         @ rt-thread/components/drivers/wlan/wlan_cmd.c:332:5
	bl	rt_wlan_disconnect
	movs	r0, #0
	.loc	1 333 5                         @ rt-thread/components/drivers/wlan/wlan_cmd.c:333:5
	str	r0, [sp, #12]
	b	.LBB7_3
.LBB7_3:
	.loc	1 334 1                         @ rt-thread/components/drivers/wlan/wlan_cmd.c:334:1
	ldr	r0, [sp, #12]
	add	sp, #16
	pop	{r7, pc}
.Ltmp117:
.Lfunc_end7:
	.size	wifi_disconnect, .Lfunc_end7-wifi_disconnect
	.cfi_endproc
	.cantunwind
	.fnend
                                        @ -- End function
	.section	.text.wifi_ap_stop,"ax",%progbits
	.p2align	3                               @ -- Begin function wifi_ap_stop
	.type	wifi_ap_stop,%function
	.code	16                              @ @wifi_ap_stop
	.thumb_func
wifi_ap_stop:
.Lfunc_begin8:
	.loc	1 337 0                         @ rt-thread/components/drivers/wlan/wlan_cmd.c:337:0
	.fnstart
	.cfi_startproc
@ %bb.0:
	.save	{r7, lr}
	push	{r7, lr}
	.cfi_def_cfa_offset 8
	.cfi_offset lr, -4
	.cfi_offset r7, -8
	.pad	#16
	sub	sp, #16
	.cfi_def_cfa_offset 24
	str	r0, [sp, #8]
	str	r1, [sp, #4]
.Ltmp118:
	.loc	1 338 9 prologue_end            @ rt-thread/components/drivers/wlan/wlan_cmd.c:338:9
	ldr	r0, [sp, #8]
.Ltmp119:
	.loc	1 338 9 is_stmt 0               @ rt-thread/components/drivers/wlan/wlan_cmd.c:338:9
	cmp	r0, #2
	beq	.LBB8_2
	b	.LBB8_1
.LBB8_1:
	.loc	1 0 9                           @ rt-thread/components/drivers/wlan/wlan_cmd.c:0:9
	mov.w	r0, #-1
.Ltmp120:
	.loc	1 340 9 is_stmt 1               @ rt-thread/components/drivers/wlan/wlan_cmd.c:340:9
	str	r0, [sp, #12]
	b	.LBB8_3
.Ltmp121:
.LBB8_2:
	.loc	1 343 5                         @ rt-thread/components/drivers/wlan/wlan_cmd.c:343:5
	bl	rt_wlan_ap_stop
	movs	r0, #0
	.loc	1 344 5                         @ rt-thread/components/drivers/wlan/wlan_cmd.c:344:5
	str	r0, [sp, #12]
	b	.LBB8_3
.LBB8_3:
	.loc	1 345 1                         @ rt-thread/components/drivers/wlan/wlan_cmd.c:345:1
	ldr	r0, [sp, #12]
	add	sp, #16
	pop	{r7, pc}
.Ltmp122:
.Lfunc_end8:
	.size	wifi_ap_stop, .Lfunc_end8-wifi_ap_stop
	.cfi_endproc
	.cantunwind
	.fnend
                                        @ -- End function
	.hidden	__fsym___cmd_wifi_name          @ @__fsym___cmd_wifi_name
	.type	__fsym___cmd_wifi_name,%object
	.section	.rodata.name,"a",%progbits
	.globl	__fsym___cmd_wifi_name
__fsym___cmd_wifi_name:
	.asciz	"__cmd_wifi"
	.size	__fsym___cmd_wifi_name, 11

	.hidden	__fsym___cmd_wifi_desc          @ @__fsym___cmd_wifi_desc
	.type	__fsym___cmd_wifi_desc,%object
	.globl	__fsym___cmd_wifi_desc
__fsym___cmd_wifi_desc:
	.asciz	"wifi command."
	.size	__fsym___cmd_wifi_desc, 14

	.hidden	__fsym___cmd_wifi               @ @__fsym___cmd_wifi
	.type	__fsym___cmd_wifi,%object
	.section	FSymTab,"a",%progbits
	.globl	__fsym___cmd_wifi
	.p2align	2
__fsym___cmd_wifi:
__tagsym$$used.0:
	.long	__fsym___cmd_wifi_name
	.long	__fsym___cmd_wifi_desc
	.long	wifi_msh
	.size	__fsym___cmd_wifi, 12

	.type	cmd_tab,%object                 @ @cmd_tab
	.section	.rodata.cmd_tab,"a",%progbits
	.p2align	2
cmd_tab:
	.long	.L.str.9
	.long	wifi_scan
	.long	.L.str.10
	.long	wifi_help
	.long	.L.str.11
	.long	wifi_status
	.long	.L.str.12
	.long	wifi_join
	.long	.L.str.13
	.long	wifi_ap
	.long	.L.str.14
	.long	wifi_list_sta
	.long	.L.str.15
	.long	wifi_disconnect
	.long	.L.str.16
	.long	wifi_ap_stop
	.long	.L.str.17
	.long	0
	.size	cmd_tab, 72

	.type	.L.str,%object                  @ @.str
	.section	.rodata.str1.1,"aMS",%progbits,1
.L.str:
	.asciz	"wifi\n"
	.size	.L.str, 6

	.type	.L.str.1,%object                @ @.str.1
.L.str.1:
	.asciz	"wifi help\n"
	.size	.L.str.1, 11

	.type	.L.str.2,%object                @ @.str.2
.L.str.2:
	.asciz	"wifi scan [SSID]\n"
	.size	.L.str.2, 18

	.type	.L.str.3,%object                @ @.str.3
.L.str.3:
	.asciz	"wifi join [SSID] [PASSWORD]\n"
	.size	.L.str.3, 29

	.type	.L.str.4,%object                @ @.str.4
.L.str.4:
	.asciz	"wifi ap SSID [PASSWORD]\n"
	.size	.L.str.4, 25

	.type	.L.str.5,%object                @ @.str.5
.L.str.5:
	.asciz	"wifi disc\n"
	.size	.L.str.5, 11

	.type	.L.str.6,%object                @ @.str.6
.L.str.6:
	.asciz	"wifi ap_stop\n"
	.size	.L.str.6, 14

	.type	.L.str.7,%object                @ @.str.7
.L.str.7:
	.asciz	"wifi status\n"
	.size	.L.str.7, 13

	.type	.L.str.8,%object                @ @.str.8
.L.str.8:
	.asciz	"wifi smartconfig\n"
	.size	.L.str.8, 18

	.type	.L.str.9,%object                @ @.str.9
.L.str.9:
	.asciz	"scan"
	.size	.L.str.9, 5

	.type	.L.str.10,%object               @ @.str.10
.L.str.10:
	.asciz	"help"
	.size	.L.str.10, 5

	.type	.L.str.11,%object               @ @.str.11
.L.str.11:
	.asciz	"status"
	.size	.L.str.11, 7

	.type	.L.str.12,%object               @ @.str.12
.L.str.12:
	.asciz	"join"
	.size	.L.str.12, 5

	.type	.L.str.13,%object               @ @.str.13
.L.str.13:
	.asciz	"ap"
	.size	.L.str.13, 3

	.type	.L.str.14,%object               @ @.str.14
.L.str.14:
	.asciz	"list_sta"
	.size	.L.str.14, 9

	.type	.L.str.15,%object               @ @.str.15
.L.str.15:
	.asciz	"disc"
	.size	.L.str.15, 5

	.type	.L.str.16,%object               @ @.str.16
.L.str.16:
	.asciz	"ap_stop"
	.size	.L.str.16, 8

	.type	.L.str.17,%object               @ @.str.17
.L.str.17:
	.asciz	"smartconfig"
	.size	.L.str.17, 12

	.type	.L.str.18,%object               @ @.str.18
.L.str.18:
	.asciz	"             SSID                      MAC            security    rssi chn Mbps\n"
	.size	.L.str.18, 81

	.type	.L.str.19,%object               @ @.str.19
.L.str.19:
	.asciz	"------------------------------- -----------------  -------------- ---- --- ----\n"
	.size	.L.str.19, 81

	.type	.L.str.20,%object               @ @.str.20
.L.str.20:
	.asciz	"%-32.32s"
	.size	.L.str.20, 9

	.type	.L.str.21,%object               @ @.str.21
.L.str.21:
	.asciz	"%02x:%02x:%02x:%02x:%02x:%02x  "
	.size	.L.str.21, 32

	.type	.L.str.22,%object               @ @.str.22
.L.str.22:
	.asciz	"OPEN"
	.size	.L.str.22, 5

	.type	.L.str.23,%object               @ @.str.23
.L.str.23:
	.asciz	"WEP_PSK"
	.size	.L.str.23, 8

	.type	.L.str.24,%object               @ @.str.24
.L.str.24:
	.asciz	"WEP_SHARED"
	.size	.L.str.24, 11

	.type	.L.str.25,%object               @ @.str.25
.L.str.25:
	.asciz	"WPA_TKIP_PSK"
	.size	.L.str.25, 13

	.type	.L.str.26,%object               @ @.str.26
.L.str.26:
	.asciz	"WPA_AES_PSK"
	.size	.L.str.26, 12

	.type	.L.str.27,%object               @ @.str.27
.L.str.27:
	.asciz	"WPA2_AES_PSK"
	.size	.L.str.27, 13

	.type	.L.str.28,%object               @ @.str.28
.L.str.28:
	.asciz	"WPA2_TKIP_PSK"
	.size	.L.str.28, 14

	.type	.L.str.29,%object               @ @.str.29
.L.str.29:
	.asciz	"WPA2_MIXED_PSK"
	.size	.L.str.29, 15

	.type	.L.str.30,%object               @ @.str.30
.L.str.30:
	.asciz	"WPS_OPEN"
	.size	.L.str.30, 9

	.type	.L.str.31,%object               @ @.str.31
.L.str.31:
	.asciz	"WPS_SECURE"
	.size	.L.str.31, 11

	.type	.L.str.32,%object               @ @.str.32
.L.str.32:
	.asciz	"UNKNOWN"
	.size	.L.str.32, 8

	.type	.L.str.33,%object               @ @.str.33
.L.str.33:
	.asciz	"%-14.14s "
	.size	.L.str.33, 10

	.type	.L.str.34,%object               @ @.str.34
.L.str.34:
	.asciz	"%-4d "
	.size	.L.str.34, 6

	.type	.L.str.35,%object               @ @.str.35
.L.str.35:
	.asciz	"%3d "
	.size	.L.str.35, 5

	.type	.L.str.36,%object               @ @.str.36
.L.str.36:
	.asciz	"%4d\n"
	.size	.L.str.36, 5

	.type	.L.str.37,%object               @ @.str.37
.L.str.37:
	.asciz	"wifi scan result is null\n"
	.size	.L.str.37, 26

	.type	.L.str.38,%object               @ @.str.38
.L.str.38:
	.asciz	"Wi-Fi STA Info\n"
	.size	.L.str.38, 16

	.type	.L.str.39,%object               @ @.str.39
.L.str.39:
	.asciz	"SSID : %-.32s\n"
	.size	.L.str.39, 15

	.type	.L.str.40,%object               @ @.str.40
.L.str.40:
	.asciz	"MAC Addr: %02x:%02x:%02x:%02x:%02x:%02x\n"
	.size	.L.str.40, 41

	.type	.L.str.41,%object               @ @.str.41
.L.str.41:
	.asciz	"Channel: %d\n"
	.size	.L.str.41, 13

	.type	.L.str.42,%object               @ @.str.42
.L.str.42:
	.asciz	"DataRate: %dMbps\n"
	.size	.L.str.42, 18

	.type	.L.str.43,%object               @ @.str.43
.L.str.43:
	.asciz	"RSSI: %d\n"
	.size	.L.str.43, 10

	.type	.L.str.44,%object               @ @.str.44
.L.str.44:
	.asciz	"wifi disconnected!\n"
	.size	.L.str.44, 20

	.type	.L.str.45,%object               @ @.str.45
.L.str.45:
	.asciz	"Wi-Fi AP Info\n"
	.size	.L.str.45, 15

	.type	.L.str.46,%object               @ @.str.46
.L.str.46:
	.asciz	"hidden: %s\n"
	.size	.L.str.46, 12

	.type	.L.str.47,%object               @ @.str.47
.L.str.47:
	.asciz	"Enable"
	.size	.L.str.47, 7

	.type	.L.str.48,%object               @ @.str.48
.L.str.48:
	.asciz	"Disable"
	.size	.L.str.48, 8

	.type	.L.str.49,%object               @ @.str.49
.L.str.49:
	.asciz	"wifi ap not start!\n"
	.size	.L.str.49, 20

	.type	.L.str.50,%object               @ @.str.50
.L.str.50:
	.asciz	"Auto Connect status:%s!\n"
	.size	.L.str.50, 25

	.type	.L.str.51,%object               @ @.str.51
.L.str.51:
	.asciz	"not find connect info\n"
	.size	.L.str.51, 23

	.type	.L.str.52,%object               @ @.str.52
.L.str.52:
	.asciz	"num:%d\n"
	.size	.L.str.52, 8

	.type	.L.str.53,%object               @ @.str.53
.L.str.53:
	.asciz	"sta mac  %02x:%02x:%02x:%02x:%02x:%02x\n"
	.size	.L.str.53, 40

	.globl	__fsym___cmd_wifi
	.file	4 "E:\\STM32\\Learning\\STM32H750_ART_PI_RGBLCD" "rt-thread/include\\rtdef.h"
	.file	5 "E:\\STM32\\Learning\\STM32H750_ART_PI_RGBLCD" "./rt-thread/components/drivers/wlan\\wlan_mgnt.h"
	.file	6 "E:\\STM32\\Learning\\STM32H750_ART_PI_RGBLCD" "./rt-thread/components/drivers/wlan\\wlan_cfg.h"
	.section	".note.GNU-stack","",%progbits
	.eabi_attribute	30, 6	@ Tag_ABI_optimization_goals
	.ARM_attribute	16, 1	@ Tag_AV_eba