	.text
	.syntax unified
	.eabi_attribute	67, "2.09"	@ Tag_conformance
	.cpu	cortex-m7
	.eabi_attribute	6, 13	@ Tag_CPU_arch
	.eabi_attribute	7, 77	@ Tag_CPU_arch_profile
	.eabi_attribute	8, 0	@ Tag_ARM_ISA_use
	.eabi_attribute	9, 2	@ Tag_THUMB_ISA_use
	.fpu	fpv5-d16
	.eabi_attribute	36, 1	@ Tag_FP_HP_extension
	.eabi_attribute	34, 1	@ Tag_CPU_unaligned_access
	.eabi_attribute	17, 1	@ Tag_ABI_PCS_GOT_use
	.eabi_attribute	20, 2	@ Tag_ABI_FP_denormal
	.eabi_attribute	21, 0	@ Tag_ABI_FP_exceptions
	.eabi_attribute	23, 1	@ Tag_ABI_FP_number_model
	.eabi_attribute	24, 1	@ Tag_ABI_align_needed
	.eabi_attribute	25, 1	@ Tag_ABI_align_preserved
	.eabi_attribute	28, 1	@ Tag_ABI_VFP_args
	.eabi_attribute	38, 1	@ Tag_ABI_FP_16bit_format
	.eabi_attribute	18, 2	@ Tag_ABI_PCS_wchar_t
	.eabi_attribute	26, 1	@ Tag_ABI_enum_size
	.eabi_attribute	14, 0	@ Tag_ABI_PCS_R9_use
	.file	"wlan_cfg.c"
	.file	1 "E:\\STM32\\Learning\\STM32H750_ART_PI_RGBLCD" "rt-thread/include\\rtdef.h"
	.file	2 "E:\\STM32\\Learning\\STM32H750_ART_PI_RGBLCD" "rt-thread/components/drivers/wlan/wlan_cfg.c"
	.file	3 "E:\\STM32\\Learning\\STM32H750_ART_PI_RGBLCD" "./rt-thread/components/drivers/wlan\\wlan_dev.h"
	.file	4 "E:\\STM32\\Learning\\STM32H750_ART_PI_RGBLCD" "./rt-thread/components/drivers/wlan\\wlan_cfg.h"
	.section	.text.rt_wlan_cfg_init,"ax",%progbits
	.hidden	rt_wlan_cfg_init                @ -- Begin function rt_wlan_cfg_init
	.globl	rt_wlan_cfg_init
	.p2align	3
	.type	rt_wlan_cfg_init,%function
	.code	16                              @ @rt_wlan_cfg_init
	.thumb_func
rt_wlan_cfg_init:
.Lfunc_begin0:
	.loc	2 77 0                          @ rt-thread/components/drivers/wlan/wlan_cfg.c:77:0
	.fnstart
	.cfi_sections .debug_frame
	.cfi_startproc
@ %bb.0:
	.save	{r7, lr}
	push	{r7, lr}
	.cfi_def_cfa_offset 8
	.cfi_offset lr, -4
	.cfi_offset r7, -8
.Ltmp0:
	.loc	2 79 9 prologue_end             @ rt-thread/components/drivers/wlan/wlan_cfg.c:79:9
	movw	r0, :lower16:cfg_cache
	movt	r0, :upper16:cfg_cache
	ldr	r0, [r0]
.Ltmp1:
	.loc	2 79 9 is_stmt 0                @ rt-thread/components/drivers/wlan/wlan_cfg.c:79:9
	cbnz	r0, .LBB0_4
	b	.LBB0_1
.LBB0_1:
	.loc	2 0 9                           @ rt-thread/components/drivers/wlan/wlan_cfg.c:0:9
	movs	r0, #8
.Ltmp2:
	.loc	2 81 21 is_stmt 1               @ rt-thread/components/drivers/wlan/wlan_cfg.c:81:21
	bl	rt_malloc
	mov	r1, r0
	.loc	2 81 19 is_stmt 0               @ rt-thread/components/drivers/wlan/wlan_cfg.c:81:19
	movw	r0, :lower16:cfg_cache
	movt	r0, :upper16:cfg_cache
	str	r1, [r0]
.Ltmp3:
	.loc	2 82 13 is_stmt 1               @ rt-thread/components/drivers/wlan/wlan_cfg.c:82:13
	ldr	r0, [r0]
.Ltmp4:
	.loc	2 82 13 is_stmt 0               @ rt-thread/components/drivers/wlan/wlan_cfg.c:82:13
	cbz	r0, .LBB0_3
	b	.LBB0_2
.LBB0_2:
.Ltmp5:
	.loc	2 84 23 is_stmt 1               @ rt-thread/components/drivers/wlan/wlan_cfg.c:84:23
	movw	r0, :lower16:cfg_cache
	movt	r0, :upper16:cfg_cache
	ldr	r0, [r0]
	movs	r1, #0
	movs	r2, #8
	.loc	2 84 13 is_stmt 0               @ rt-thread/components/drivers/wlan/wlan_cfg.c:84:13
	bl	rt_memset
	.loc	2 85 9 is_stmt 1                @ rt-thread/components/drivers/wlan/wlan_cfg.c:85:9
	b	.LBB0_3
.Ltmp6:
.LBB0_3:
	.loc	2 87 9                          @ rt-thread/components/drivers/wlan/wlan_cfg.c:87:9
	movw	r0, :lower16:cfg_mutex
	movt	r0, :upper16:cfg_mutex
	movw	r1, :lower16:.L.str
	movt	r1, :upper16:.L.str
	movs	r2, #0
	bl	rt_mutex_init
	.loc	2 88 5                          @ rt-thread/components/drivers/wlan/wlan_cfg.c:88:5
	b	.LBB0_4
.Ltmp7:
.LBB0_4:
	.loc	2 89 1                          @ rt-thread/components/drivers/wlan/wlan_cfg.c:89:1
	pop	{r7, pc}
.Ltmp8:
.Lfunc_end0:
	.size	rt_wlan_cfg_init, .Lfunc_end0-rt_wlan_cfg_init
	.cfi_endproc
	.cantunwind
	.fnend
                                        @ -- End function
	.section	.text.rt_wlan_cfg_set_ops,"ax",%progbits
	.hidden	rt_wlan_cfg_set_ops             @ -- Begin function rt_wlan_cfg_set_ops
	.globl	rt_wlan_cfg_set_ops
	.p2align	3
	.type	rt_wlan_cfg_set_ops,%function
	.code	16                              @ @rt_wlan_cfg_set_ops
	.thumb_func
rt_wlan_cfg_set_ops:
.Lfunc_begin1:
	.loc	2 92 0                          @ rt-thread/components/drivers/wlan/wlan_cfg.c:92:0
	.fnstart
	.cfi_startproc
@ %bb.0:
	.save	{r7, lr}
	push	{r7, lr}
	.cfi_def_cfa_offset 8
	.cfi_offset lr, -4
	.cfi_offset r7, -8
	.pad	#8
	sub	sp, #8
	.cfi_def_cfa_offset 16
	str	r0, [sp, #4]
.Ltmp9:
	.loc	2 93 5 prologue_end             @ rt-thread/components/drivers/wlan/wlan_cfg.c:93:5
	bl	rt_wlan_cfg_init
	.loc	2 95 5                          @ rt-thread/components/drivers/wlan/wlan_cfg.c:95:5
	movw	r0, :lower16:cfg_mutex
	movt	r0, :upper16:cfg_mutex
	str	r0, [sp]                        @ 4-byte Spill
	mov.w	r1, #-1
	bl	rt_mutex_take
                                        @ kill: def $r1 killed $r0
	.loc	2 97 15                         @ rt-thread/components/drivers/wlan/wlan_cfg.c:97:15
	ldr	r0, [sp]                        @ 4-byte Reload
	ldr	r1, [sp, #4]
	.loc	2 97 13 is_stmt 0               @ rt-thread/components/drivers/wlan/wlan_cfg.c:97:13
	movw	r2, :lower16:cfg_ops
	movt	r2, :upper16:cfg_ops
	str	r1, [r2]
	.loc	2 98 5 is_stmt 1                @ rt-thread/components/drivers/wlan/wlan_cfg.c:98:5
	bl	rt_mutex_release
	.loc	2 99 1                          @ rt-thread/components/drivers/wlan/wlan_cfg.c:99:1
	add	sp, #8
	pop	{r7, pc}
.Ltmp10:
.Lfunc_end1:
	.size	rt_wlan_cfg_set_ops, .Lfunc_end1-rt_wlan_cfg_set_ops
	.cfi_endproc
	.cantunwind
	.fnend
                                        @ -- End function
	.section	.text.rt_wlan_cfg_cache_save,"ax",%progbits
	.hidden	rt_wlan_cfg_cache_save          @ -- Begin function rt_wlan_cfg_cache_save
	.globl	rt_wlan_cfg_cache_save
	.p2align	3
	.type	rt_wlan_cfg_cache_save,%function
	.code	16                              @ @rt_wlan_cfg_cache_save
	.thumb_func
rt_wlan_cfg_cache_save:
.Lfunc_begin2:
	.loc	2 103 0                         @ rt-thread/components/drivers/wlan/wlan_cfg.c:103:0
	.fnstart
	.cfi_startproc
@ %bb.0:
	.save	{r7, lr}
	push	{r7, lr}
	.cfi_def_cfa_offset 8
	.cfi_offset lr, -4
	.cfi_offset r7, -8
	.pad	#24
	sub	sp, #24
	.cfi_def_cfa_offset 32
	movs	r0, #0
.Ltmp11:
	.loc	2 104 14 prologue_end           @ rt-thread/components/drivers/wlan/wlan_cfg.c:104:14
	str	r0, [sp, #16]
	.loc	2 106 9                         @ rt-thread/components/drivers/wlan/wlan_cfg.c:106:9
	str	r0, [sp, #8]
.Ltmp12:
	.loc	2 108 10                        @ rt-thread/components/drivers/wlan/wlan_cfg.c:108:10
	movw	r0, :lower16:cfg_ops
	movt	r0, :upper16:cfg_ops
	ldr	r0, [r0]
	.loc	2 108 30 is_stmt 0              @ rt-thread/components/drivers/wlan/wlan_cfg.c:108:30
	cbz	r0, .LBB2_2
	b	.LBB2_1
.LBB2_1:
	.loc	2 108 34                        @ rt-thread/components/drivers/wlan/wlan_cfg.c:108:34
	movw	r0, :lower16:cfg_ops
	movt	r0, :upper16:cfg_ops
	ldr	r0, [r0]
	.loc	2 108 43                        @ rt-thread/components/drivers/wlan/wlan_cfg.c:108:43
	ldr	r0, [r0, #8]
.Ltmp13:
	.loc	2 108 9                         @ rt-thread/components/drivers/wlan/wlan_cfg.c:108:9
	cbnz	r0, .LBB2_3
	b	.LBB2_2
.LBB2_2:
	.loc	2 0 9                           @ rt-thread/components/drivers/wlan/wlan_cfg.c:0:9
	movs	r0, #0
.Ltmp14:
	.loc	2 109 9 is_stmt 1               @ rt-thread/components/drivers/wlan/wlan_cfg.c:109:9
	str	r0, [sp, #20]
	b	.LBB2_8
.Ltmp15:
.LBB2_3:
	.loc	2 111 5                         @ rt-thread/components/drivers/wlan/wlan_cfg.c:111:5
	movw	r0, :lower16:cfg_mutex
	movt	r0, :upper16:cfg_mutex
	mov.w	r1, #-1
	bl	rt_mutex_take
	.loc	2 112 81                        @ rt-thread/components/drivers/wlan/wlan_cfg.c:112:81
	movw	r0, :lower16:cfg_cache
	movt	r0, :upper16:cfg_cache
	ldr	r0, [r0]
	.loc	2 112 92 is_stmt 0              @ rt-thread/components/drivers/wlan/wlan_cfg.c:112:92
	ldr	r0, [r0]
	.loc	2 112 79                        @ rt-thread/components/drivers/wlan/wlan_cfg.c:112:79
	add.w	r0, r0, r0, lsl #1
	lsls	r0, r0, #5
	.loc	2 112 45                        @ rt-thread/components/drivers/wlan/wlan_cfg.c:112:45
	adds	r0, #16
	.loc	2 112 9                         @ rt-thread/components/drivers/wlan/wlan_cfg.c:112:9
	str	r0, [sp, #8]
	.loc	2 113 26 is_stmt 1              @ rt-thread/components/drivers/wlan/wlan_cfg.c:113:26
	ldr	r0, [sp, #8]
	.loc	2 113 16 is_stmt 0              @ rt-thread/components/drivers/wlan/wlan_cfg.c:113:16
	bl	rt_malloc
	.loc	2 113 14                        @ rt-thread/components/drivers/wlan/wlan_cfg.c:113:14
	str	r0, [sp, #12]
.Ltmp16:
	.loc	2 114 9 is_stmt 1               @ rt-thread/components/drivers/wlan/wlan_cfg.c:114:9
	ldr	r0, [sp, #12]
.Ltmp17:
	.loc	2 114 9 is_stmt 0               @ rt-thread/components/drivers/wlan/wlan_cfg.c:114:9
	cbnz	r0, .LBB2_5
	b	.LBB2_4
.LBB2_4:
.Ltmp18:
	.loc	2 116 9 is_stmt 1               @ rt-thread/components/drivers/wlan/wlan_cfg.c:116:9
	movw	r0, :lower16:cfg_mutex
	movt	r0, :upper16:cfg_mutex
	bl	rt_mutex_release
	mvn	r0, #4
	.loc	2 117 9                         @ rt-thread/components/drivers/wlan/wlan_cfg.c:117:9
	str	r0, [sp, #20]
	b	.LBB2_8
.Ltmp19:
.LBB2_5:
	.loc	2 119 5                         @ rt-thread/components/drivers/wlan/wlan_cfg.c:119:5
	ldr	r1, [sp, #12]
	movw	r0, #28002
	movt	r0, #17007
	.loc	2 119 21 is_stmt 0              @ rt-thread/components/drivers/wlan/wlan_cfg.c:119:21
	str	r0, [r1]
	.loc	2 120 21 is_stmt 1              @ rt-thread/components/drivers/wlan/wlan_cfg.c:120:21
	ldr	r0, [sp, #8]
	.loc	2 120 5 is_stmt 0               @ rt-thread/components/drivers/wlan/wlan_cfg.c:120:5
	ldr	r1, [sp, #12]
	.loc	2 120 19                        @ rt-thread/components/drivers/wlan/wlan_cfg.c:120:19
	str	r0, [r1, #4]
	.loc	2 121 21 is_stmt 1              @ rt-thread/components/drivers/wlan/wlan_cfg.c:121:21
	movw	r0, :lower16:cfg_cache
	movt	r0, :upper16:cfg_cache
	str	r0, [sp, #4]                    @ 4-byte Spill
	ldr	r1, [r0]
	.loc	2 121 32 is_stmt 0              @ rt-thread/components/drivers/wlan/wlan_cfg.c:121:32
	ldr	r1, [r1]
	.loc	2 121 5                         @ rt-thread/components/drivers/wlan/wlan_cfg.c:121:5
	ldr	r2, [sp, #12]
	.loc	2 121 19                        @ rt-thread/components/drivers/wlan/wlan_cfg.c:121:19
	str	r1, [r2, #8]
	.loc	2 123 51 is_stmt 1              @ rt-thread/components/drivers/wlan/wlan_cfg.c:123:51
	ldr	r0, [r0]
	.loc	2 123 117 is_stmt 0             @ rt-thread/components/drivers/wlan/wlan_cfg.c:123:117
	ldr	r1, [r0]
	.loc	2 123 62                        @ rt-thread/components/drivers/wlan/wlan_cfg.c:123:62
	ldr	r0, [r0, #4]
	.loc	2 123 104                       @ rt-thread/components/drivers/wlan/wlan_cfg.c:123:104
	add.w	r1, r1, r1, lsl #1
	lsls	r1, r1, #5
	.loc	2 123 21                        @ rt-thread/components/drivers/wlan/wlan_cfg.c:123:21
	bl	rt_wlan_cal_crc
	ldr	r1, [sp, #4]                    @ 4-byte Reload
	.loc	2 123 5                         @ rt-thread/components/drivers/wlan/wlan_cfg.c:123:5
	ldr	r2, [sp, #12]
	.loc	2 123 19                        @ rt-thread/components/drivers/wlan/wlan_cfg.c:123:19
	str	r0, [r2, #12]
	.loc	2 124 30 is_stmt 1              @ rt-thread/components/drivers/wlan/wlan_cfg.c:124:30
	ldr	r0, [sp, #12]
	.loc	2 124 40 is_stmt 0              @ rt-thread/components/drivers/wlan/wlan_cfg.c:124:40
	adds	r0, #16
	.loc	2 125 15 is_stmt 1              @ rt-thread/components/drivers/wlan/wlan_cfg.c:125:15
	ldr	r1, [r1]
	.loc	2 125 81 is_stmt 0              @ rt-thread/components/drivers/wlan/wlan_cfg.c:125:81
	ldr	r2, [r1]
	.loc	2 125 26                        @ rt-thread/components/drivers/wlan/wlan_cfg.c:125:26
	ldr	r1, [r1, #4]
	.loc	2 125 68                        @ rt-thread/components/drivers/wlan/wlan_cfg.c:125:68
	add.w	r2, r2, r2, lsl #1
	lsls	r2, r2, #5
	.loc	2 124 5 is_stmt 1               @ rt-thread/components/drivers/wlan/wlan_cfg.c:124:5
	bl	rt_memcpy
.Ltmp20:
	.loc	2 126 9                         @ rt-thread/components/drivers/wlan/wlan_cfg.c:126:9
	movw	r0, :lower16:cfg_ops
	movt	r0, :upper16:cfg_ops
	ldr	r0, [r0]
	.loc	2 126 18 is_stmt 0              @ rt-thread/components/drivers/wlan/wlan_cfg.c:126:18
	ldr	r2, [r0, #8]
	.loc	2 126 28                        @ rt-thread/components/drivers/wlan/wlan_cfg.c:126:28
	ldr	r0, [sp, #12]
	.loc	2 126 38                        @ rt-thread/components/drivers/wlan/wlan_cfg.c:126:38
	ldr	r1, [sp, #8]
	.loc	2 126 9                         @ rt-thread/components/drivers/wlan/wlan_cfg.c:126:9
	blx	r2
	.loc	2 126 46                        @ rt-thread/components/drivers/wlan/wlan_cfg.c:126:46
	ldr	r1, [sp, #8]
.Ltmp21:
	.loc	2 126 9                         @ rt-thread/components/drivers/wlan/wlan_cfg.c:126:9
	cmp	r0, r1
	beq	.LBB2_7
	b	.LBB2_6
.LBB2_6:
	.loc	2 0 9                           @ rt-thread/components/drivers/wlan/wlan_cfg.c:0:9
	mov.w	r0, #-1
.Ltmp22:
	.loc	2 127 13 is_stmt 1              @ rt-thread/components/drivers/wlan/wlan_cfg.c:127:13
	str	r0, [sp, #16]
	.loc	2 127 9 is_stmt 0               @ rt-thread/components/drivers/wlan/wlan_cfg.c:127:9
	b	.LBB2_7
.Ltmp23:
.LBB2_7:
	.loc	2 128 13 is_stmt 1              @ rt-thread/components/drivers/wlan/wlan_cfg.c:128:13
	ldr	r0, [sp, #12]
	.loc	2 128 5 is_stmt 0               @ rt-thread/components/drivers/wlan/wlan_cfg.c:128:5
	bl	rt_free
	.loc	2 129 5 is_stmt 1               @ rt-thread/components/drivers/wlan/wlan_cfg.c:129:5
	movw	r0, :lower16:cfg_mutex
	movt	r0, :upper16:cfg_mutex
	bl	rt_mutex_release
	.loc	2 130 12                        @ rt-thread/components/drivers/wlan/wlan_cfg.c:130:12
	ldr	r0, [sp, #16]
	.loc	2 130 5 is_stmt 0               @ rt-thread/components/drivers/wlan/wlan_cfg.c:130:5
	str	r0, [sp, #20]
	b	.LBB2_8
.LBB2_8:
	.loc	2 131 1 is_stmt 1               @ rt-thread/components/drivers/wlan/wlan_cfg.c:131:1
	ldr	r0, [sp, #20]
	add	sp, #24
	pop	{r7, pc}
.Ltmp24:
.Lfunc_end2:
	.size	rt_wlan_cfg_cache_save, .Lfunc_end2-rt_wlan_cfg_cache_save
	.cfi_endproc
	.cantunwind
	.fnend
                                        @ -- End function
	.section	.text.rt_wlan_cal_crc,"ax",%progbits
	.p2align	3                               @ -- Begin function rt_wlan_cal_crc
	.type	rt_wlan_cal_crc,%function
	.code	16                              @ @rt_wlan_cal_crc
	.thumb_func
rt_wlan_cal_crc:
.Lfunc_begin3:
	.loc	2 53 0                          @ rt-thread/components/drivers/wlan/wlan_cfg.c:53:0
	.fnstart
	.cfi_startproc
@ %bb.0:
	.pad	#20
	sub	sp, #20
	.cfi_def_cfa_offset 20
	str	r0, [sp, #16]
	str	r1, [sp, #12]
	movs	r0, #0
.Ltmp25:
	.loc	2 54 17 prologue_end            @ rt-thread/components/drivers/wlan/wlan_cfg.c:54:17
	strh.w	r0, [sp, #10]
	movw	r1, #4129
	.loc	2 55 17                         @ rt-thread/components/drivers/wlan/wlan_cfg.c:55:17
	strh.w	r1, [sp, #8]
	.loc	2 56 17                         @ rt-thread/components/drivers/wlan/wlan_cfg.c:56:17
	strb.w	r0, [sp, #7]
	.loc	2 58 5                          @ rt-thread/components/drivers/wlan/wlan_cfg.c:58:5
	b	.LBB3_1
.LBB3_1:                                @ =>This Loop Header: Depth=1
                                        @     Child Loop BB3_3 Depth 2
	.loc	2 58 15 is_stmt 0               @ rt-thread/components/drivers/wlan/wlan_cfg.c:58:15
	ldr	r0, [sp, #12]
	subs	r1, r0, #1
	str	r1, [sp, #12]
	.loc	2 58 5                          @ rt-thread/components/drivers/wlan/wlan_cfg.c:58:5
	cbz	r0, .LBB3_10
	b	.LBB3_2
.LBB3_2:                                @   in Loop: Header=BB3_1 Depth=1
.Ltmp26:
	.loc	2 62 23 is_stmt 1               @ rt-thread/components/drivers/wlan/wlan_cfg.c:62:23
	ldr	r0, [sp, #16]
	adds	r1, r0, #1
	str	r1, [sp, #16]
	.loc	2 62 17 is_stmt 0               @ rt-thread/components/drivers/wlan/wlan_cfg.c:62:17
	ldrb	r0, [r0]
	.loc	2 62 15                         @ rt-thread/components/drivers/wlan/wlan_cfg.c:62:15
	strb.w	r0, [sp, #7]
	.loc	2 63 20 is_stmt 1               @ rt-thread/components/drivers/wlan/wlan_cfg.c:63:20
	ldrb.w	r1, [sp, #7]
	.loc	2 63 16 is_stmt 0               @ rt-thread/components/drivers/wlan/wlan_cfg.c:63:16
	ldrh.w	r0, [sp, #10]
	eor.w	r0, r0, r1, lsl #8
	strh.w	r0, [sp, #10]
	movs	r0, #0
.Ltmp27:
	.loc	2 65 16 is_stmt 1               @ rt-thread/components/drivers/wlan/wlan_cfg.c:65:16
	str	r0, [sp]
	.loc	2 65 14 is_stmt 0               @ rt-thread/components/drivers/wlan/wlan_cfg.c:65:14
	b	.LBB3_3
.LBB3_3:                                @   Parent Loop BB3_1 Depth=1
                                        @ =>  This Inner Loop Header: Depth=2
.Ltmp28:
	.loc	2 65 21                         @ rt-thread/components/drivers/wlan/wlan_cfg.c:65:21
	ldr	r0, [sp]
.Ltmp29:
	.loc	2 65 9                          @ rt-thread/components/drivers/wlan/wlan_cfg.c:65:9
	cmp	r0, #7
	bgt	.LBB3_9
	b	.LBB3_4
.LBB3_4:                                @   in Loop: Header=BB3_3 Depth=2
.Ltmp30:
	.loc	2 67 17 is_stmt 1               @ rt-thread/components/drivers/wlan/wlan_cfg.c:67:17
	ldrh.w	r0, [sp, #10]
.Ltmp31:
	.loc	2 67 17 is_stmt 0               @ rt-thread/components/drivers/wlan/wlan_cfg.c:67:17
	lsls	r0, r0, #16
	cmp	r0, #0
	bpl	.LBB3_6
	b	.LBB3_5
.LBB3_5:                                @   in Loop: Header=BB3_3 Depth=2
.Ltmp32:
	.loc	2 68 27 is_stmt 1               @ rt-thread/components/drivers/wlan/wlan_cfg.c:68:27
	ldrh.w	r1, [sp, #10]
	.loc	2 68 42 is_stmt 0               @ rt-thread/components/drivers/wlan/wlan_cfg.c:68:42
	ldrh.w	r0, [sp, #8]
	.loc	2 68 40                         @ rt-thread/components/drivers/wlan/wlan_cfg.c:68:40
	eor.w	r0, r0, r1, lsl #1
	.loc	2 68 24                         @ rt-thread/components/drivers/wlan/wlan_cfg.c:68:24
	strh.w	r0, [sp, #10]
	.loc	2 68 17                         @ rt-thread/components/drivers/wlan/wlan_cfg.c:68:17
	b	.LBB3_7
.LBB3_6:                                @   in Loop: Header=BB3_3 Depth=2
	.loc	2 70 26 is_stmt 1               @ rt-thread/components/drivers/wlan/wlan_cfg.c:70:26
	ldrh.w	r0, [sp, #10]
	.loc	2 70 33 is_stmt 0               @ rt-thread/components/drivers/wlan/wlan_cfg.c:70:33
	lsls	r0, r0, #1
	.loc	2 70 24                         @ rt-thread/components/drivers/wlan/wlan_cfg.c:70:24
	strh.w	r0, [sp, #10]
	b	.LBB3_7
.Ltmp33:
.LBB3_7:                                @   in Loop: Header=BB3_3 Depth=2
	.loc	2 71 9 is_stmt 1                @ rt-thread/components/drivers/wlan/wlan_cfg.c:71:9
	b	.LBB3_8
.Ltmp34:
.LBB3_8:                                @   in Loop: Header=BB3_3 Depth=2
	.loc	2 65 29                         @ rt-thread/components/drivers/wlan/wlan_cfg.c:65:29
	ldr	r0, [sp]
	adds	r0, #1
	str	r0, [sp]
	.loc	2 65 9 is_stmt 0                @ rt-thread/components/drivers/wlan/wlan_cfg.c:65:9
	b	.LBB3_3
.Ltmp35:
.LBB3_9:                                @   in Loop: Header=BB3_1 Depth=1
	.loc	2 58 5 is_stmt 1                @ rt-thread/components/drivers/wlan/wlan_cfg.c:58:5
	b	.LBB3_1
.LBB3_10:
	.loc	2 73 12                         @ rt-thread/components/drivers/wlan/wlan_cfg.c:73:12
	ldrh.w	r0, [sp, #10]
	.loc	2 73 5 is_stmt 0                @ rt-thread/components/drivers/wlan/wlan_cfg.c:73:5
	add	sp, #20
	bx	lr
.Ltmp36:
.Lfunc_end3:
	.size	rt_wlan_cal_crc, .Lfunc_end3-rt_wlan_cal_crc
	.cfi_endproc
	.cantunwind
	.fnend
                                        @ -- End function
	.section	.text.rt_wlan_cfg_cache_refresh,"ax",%progbits
	.hidden	rt_wlan_cfg_cache_refresh       @ -- Begin function rt_wlan_cfg_cache_refresh
	.globl	rt_wlan_cfg_cache_refresh
	.p2align	3
	.type	rt_wlan_cfg_cache_refresh,%function
	.code	16                              @ @rt_wlan_cfg_cache_refresh
	.thumb_func
rt_wlan_cfg_cache_refresh:
.Lfunc_begin4:
	.loc	2 134 0 is_stmt 1               @ rt-thread/components/drivers/wlan/wlan_cfg.c:134:0
	.fnstart
	.cfi_startproc
@ %bb.0:
	.save	{r7, lr}
	push	{r7, lr}
	.cfi_def_cfa_offset 8
	.cfi_offset lr, -4
	.cfi_offset r7, -8
	.pad	#48
	sub	sp, #48
	.cfi_def_cfa_offset 56
	movs	r0, #0
.Ltmp37:
	.loc	2 135 9 prologue_end            @ rt-thread/components/drivers/wlan/wlan_cfg.c:135:9
	str	r0, [sp, #40]
.Ltmp38:
	.loc	2 143 9                         @ rt-thread/components/drivers/wlan/wlan_cfg.c:143:9
	movw	r0, :lower16:cfg_cache
	movt	r0, :upper16:cfg_cache
	ldr	r0, [r0]
	.loc	2 143 30 is_stmt 0              @ rt-thread/components/drivers/wlan/wlan_cfg.c:143:30
	cbz	r0, .LBB4_2
	b	.LBB4_1
.LBB4_1:
	.loc	2 143 33                        @ rt-thread/components/drivers/wlan/wlan_cfg.c:143:33
	movw	r0, :lower16:cfg_cache
	movt	r0, :upper16:cfg_cache
	ldr	r0, [r0]
	.loc	2 143 44                        @ rt-thread/components/drivers/wlan/wlan_cfg.c:143:44
	ldr	r0, [r0]
.Ltmp39:
	.loc	2 143 9                         @ rt-thread/components/drivers/wlan/wlan_cfg.c:143:9
	cmp	r0, #3
	blo	.LBB4_3
	b	.LBB4_2
.LBB4_2:
	.loc	2 0 9                           @ rt-thread/components/drivers/wlan/wlan_cfg.c:0:9
	mov.w	r0, #-1
.Ltmp40:
	.loc	2 144 9 is_stmt 1               @ rt-thread/components/drivers/wlan/wlan_cfg.c:144:9
	str	r0, [sp, #44]
	b	.LBB4_37
.Ltmp41:
.LBB4_3:
	.loc	2 147 10                        @ rt-thread/components/drivers/wlan/wlan_cfg.c:147:10
	movw	r0, :lower16:cfg_ops
	movt	r0, :upper16:cfg_ops
	ldr	r0, [r0]
	.loc	2 147 30 is_stmt 0              @ rt-thread/components/drivers/wlan/wlan_cfg.c:147:30
	cbz	r0, .LBB4_6
	b	.LBB4_4
.LBB4_4:
	.loc	2 148 14 is_stmt 1              @ rt-thread/components/drivers/wlan/wlan_cfg.c:148:14
	movw	r0, :lower16:cfg_ops
	movt	r0, :upper16:cfg_ops
	ldr	r0, [r0]
	.loc	2 148 23 is_stmt 0              @ rt-thread/components/drivers/wlan/wlan_cfg.c:148:23
	ldr	r0, [r0, #4]
	.loc	2 148 43                        @ rt-thread/components/drivers/wlan/wlan_cfg.c:148:43
	cbz	r0, .LBB4_6
	b	.LBB4_5
.LBB4_5:
	.loc	2 149 14 is_stmt 1              @ rt-thread/components/drivers/wlan/wlan_cfg.c:149:14
	movw	r0, :lower16:cfg_ops
	movt	r0, :upper16:cfg_ops
	ldr	r0, [r0]
	.loc	2 149 23 is_stmt 0              @ rt-thread/components/drivers/wlan/wlan_cfg.c:149:23
	ldr	r0, [r0]
.Ltmp42:
	.loc	2 147 9 is_stmt 1               @ rt-thread/components/drivers/wlan/wlan_cfg.c:147:9
	cbnz	r0, .LBB4_7
	b	.LBB4_6
.LBB4_6:
	.loc	2 0 9 is_stmt 0                 @ rt-thread/components/drivers/wlan/wlan_cfg.c:0:9
	mov.w	r0, #-1
.Ltmp43:
	.loc	2 150 9 is_stmt 1               @ rt-thread/components/drivers/wlan/wlan_cfg.c:150:9
	str	r0, [sp, #44]
	b	.LBB4_37
.Ltmp44:
.LBB4_7:
	.loc	2 152 5                         @ rt-thread/components/drivers/wlan/wlan_cfg.c:152:5
	movw	r0, :lower16:cfg_mutex
	movt	r0, :upper16:cfg_mutex
	mov.w	r1, #-1
	bl	rt_mutex_take
.Ltmp45:
	.loc	2 154 16                        @ rt-thread/components/drivers/wlan/wlan_cfg.c:154:16
	movw	r0, :lower16:cfg_ops
	movt	r0, :upper16:cfg_ops
	ldr	r0, [r0]
	.loc	2 154 25 is_stmt 0              @ rt-thread/components/drivers/wlan/wlan_cfg.c:154:25
	ldr	r0, [r0, #4]
	.loc	2 154 16                        @ rt-thread/components/drivers/wlan/wlan_cfg.c:154:16
	blx	r0
	.loc	2 154 14                        @ rt-thread/components/drivers/wlan/wlan_cfg.c:154:14
	str	r0, [sp, #40]
.Ltmp46:
	.loc	2 154 9                         @ rt-thread/components/drivers/wlan/wlan_cfg.c:154:9
	cmp	r0, #0
	bgt	.LBB4_9
	b	.LBB4_8
.LBB4_8:
.Ltmp47:
	.loc	2 156 9 is_stmt 1               @ rt-thread/components/drivers/wlan/wlan_cfg.c:156:9
	movw	r0, :lower16:cfg_mutex
	movt	r0, :upper16:cfg_mutex
	bl	rt_mutex_release
	mov.w	r0, #-1
	.loc	2 157 9                         @ rt-thread/components/drivers/wlan/wlan_cfg.c:157:9
	str	r0, [sp, #44]
	b	.LBB4_37
.Ltmp48:
.LBB4_9:
	.loc	2 160 22                        @ rt-thread/components/drivers/wlan/wlan_cfg.c:160:22
	ldr	r0, [sp, #40]
	.loc	2 160 12 is_stmt 0              @ rt-thread/components/drivers/wlan/wlan_cfg.c:160:12
	bl	rt_malloc
	.loc	2 160 10                        @ rt-thread/components/drivers/wlan/wlan_cfg.c:160:10
	str	r0, [sp, #28]
.Ltmp49:
	.loc	2 161 9 is_stmt 1               @ rt-thread/components/drivers/wlan/wlan_cfg.c:161:9
	ldr	r0, [sp, #28]
.Ltmp50:
	.loc	2 161 9 is_stmt 0               @ rt-thread/components/drivers/wlan/wlan_cfg.c:161:9
	cbnz	r0, .LBB4_11
	b	.LBB4_10
.LBB4_10:
.Ltmp51:
	.loc	2 163 9 is_stmt 1               @ rt-thread/components/drivers/wlan/wlan_cfg.c:163:9
	movw	r0, :lower16:cfg_mutex
	movt	r0, :upper16:cfg_mutex
	bl	rt_mutex_release
	mov.w	r0, #-1
	.loc	2 164 9                         @ rt-thread/components/drivers/wlan/wlan_cfg.c:164:9
	str	r0, [sp, #44]
	b	.LBB4_37
.Ltmp52:
.LBB4_11:
	.loc	2 167 9                         @ rt-thread/components/drivers/wlan/wlan_cfg.c:167:9
	movw	r0, :lower16:cfg_ops
	movt	r0, :upper16:cfg_ops
	ldr	r0, [r0]
	.loc	2 167 18 is_stmt 0              @ rt-thread/components/drivers/wlan/wlan_cfg.c:167:18
	ldr	r2, [r0]
	.loc	2 167 27                        @ rt-thread/components/drivers/wlan/wlan_cfg.c:167:27
	ldr	r0, [sp, #28]
	.loc	2 167 33                        @ rt-thread/components/drivers/wlan/wlan_cfg.c:167:33
	ldr	r1, [sp, #40]
	.loc	2 167 9                         @ rt-thread/components/drivers/wlan/wlan_cfg.c:167:9
	blx	r2
	.loc	2 167 41                        @ rt-thread/components/drivers/wlan/wlan_cfg.c:167:41
	ldr	r1, [sp, #40]
.Ltmp53:
	.loc	2 167 9                         @ rt-thread/components/drivers/wlan/wlan_cfg.c:167:9
	cmp	r0, r1
	beq	.LBB4_13
	b	.LBB4_12
.LBB4_12:
.Ltmp54:
	.loc	2 169 17 is_stmt 1              @ rt-thread/components/drivers/wlan/wlan_cfg.c:169:17
	ldr	r0, [sp, #28]
	.loc	2 169 9 is_stmt 0               @ rt-thread/components/drivers/wlan/wlan_cfg.c:169:9
	bl	rt_free
	.loc	2 170 9 is_stmt 1               @ rt-thread/components/drivers/wlan/wlan_cfg.c:170:9
	movw	r0, :lower16:cfg_mutex
	movt	r0, :upper16:cfg_mutex
	bl	rt_mutex_release
	mov.w	r0, #-1
	.loc	2 171 9                         @ rt-thread/components/drivers/wlan/wlan_cfg.c:171:9
	str	r0, [sp, #44]
	b	.LBB4_37
.Ltmp55:
.LBB4_13:
	.loc	2 174 27                        @ rt-thread/components/drivers/wlan/wlan_cfg.c:174:27
	ldr	r0, [sp, #28]
	.loc	2 174 33 is_stmt 0              @ rt-thread/components/drivers/wlan/wlan_cfg.c:174:33
	adds	r0, #16
	.loc	2 174 10                        @ rt-thread/components/drivers/wlan/wlan_cfg.c:174:10
	str	r0, [sp, #24]
	.loc	2 175 41 is_stmt 1              @ rt-thread/components/drivers/wlan/wlan_cfg.c:175:41
	ldr	r0, [sp, #24]
	.loc	2 175 47 is_stmt 0              @ rt-thread/components/drivers/wlan/wlan_cfg.c:175:47
	ldr	r1, [sp, #40]
	.loc	2 175 51                        @ rt-thread/components/drivers/wlan/wlan_cfg.c:175:51
	subs	r1, #16
	.loc	2 175 11                        @ rt-thread/components/drivers/wlan/wlan_cfg.c:175:11
	bl	rt_wlan_cal_crc
	.loc	2 175 9                         @ rt-thread/components/drivers/wlan/wlan_cfg.c:175:9
	str	r0, [sp, #12]
.Ltmp56:
	.loc	2 181 10 is_stmt 1              @ rt-thread/components/drivers/wlan/wlan_cfg.c:181:10
	ldr	r0, [sp, #28]
	.loc	2 181 16 is_stmt 0              @ rt-thread/components/drivers/wlan/wlan_cfg.c:181:16
	ldr	r0, [r0]
	movw	r1, #28002
	movt	r1, #17007
	.loc	2 181 44                        @ rt-thread/components/drivers/wlan/wlan_cfg.c:181:44
	cmp	r0, r1
	bne	.LBB4_17
	b	.LBB4_14
.LBB4_14:
	.loc	2 182 14 is_stmt 1              @ rt-thread/components/drivers/wlan/wlan_cfg.c:182:14
	ldr	r0, [sp, #28]
	.loc	2 182 20 is_stmt 0              @ rt-thread/components/drivers/wlan/wlan_cfg.c:182:20
	ldr	r0, [r0, #4]
	.loc	2 182 27                        @ rt-thread/components/drivers/wlan/wlan_cfg.c:182:27
	ldr	r1, [sp, #40]
	.loc	2 182 32                        @ rt-thread/components/drivers/wlan/wlan_cfg.c:182:32
	cmp	r0, r1
	bne	.LBB4_17
	b	.LBB4_15
.LBB4_15:
	.loc	2 183 14 is_stmt 1              @ rt-thread/components/drivers/wlan/wlan_cfg.c:183:14
	ldr	r0, [sp, #28]
	.loc	2 183 20 is_stmt 0              @ rt-thread/components/drivers/wlan/wlan_cfg.c:183:20
	ldr	r0, [r0, #8]
	.loc	2 183 28                        @ rt-thread/components/drivers/wlan/wlan_cfg.c:183:28
	ldr	r1, [sp, #40]
	.loc	2 183 32                        @ rt-thread/components/drivers/wlan/wlan_cfg.c:183:32
	subs	r1, #16
	movw	r2, #43691
	movt	r2, #43690
	.loc	2 183 69                        @ rt-thread/components/drivers/wlan/wlan_cfg.c:183:69
	umull	r2, r1, r1, r2
	.loc	2 183 104                       @ rt-thread/components/drivers/wlan/wlan_cfg.c:183:104
	cmp.w	r0, r1, lsr #6
	bne	.LBB4_17
	b	.LBB4_16
.LBB4_16:
	.loc	2 184 14 is_stmt 1              @ rt-thread/components/drivers/wlan/wlan_cfg.c:184:14
	ldr	r0, [sp, #28]
	.loc	2 184 20 is_stmt 0              @ rt-thread/components/drivers/wlan/wlan_cfg.c:184:20
	ldr	r0, [r0, #12]
	.loc	2 184 27                        @ rt-thread/components/drivers/wlan/wlan_cfg.c:184:27
	ldr	r1, [sp, #12]
.Ltmp57:
	.loc	2 181 9 is_stmt 1               @ rt-thread/components/drivers/wlan/wlan_cfg.c:181:9
	cmp	r0, r1
	beq	.LBB4_18
	b	.LBB4_17
.LBB4_17:
.Ltmp58:
	.loc	2 186 17                        @ rt-thread/components/drivers/wlan/wlan_cfg.c:186:17
	ldr	r0, [sp, #28]
	.loc	2 186 9 is_stmt 0               @ rt-thread/components/drivers/wlan/wlan_cfg.c:186:9
	bl	rt_free
	.loc	2 187 9 is_stmt 1               @ rt-thread/components/drivers/wlan/wlan_cfg.c:187:9
	movw	r0, :lower16:cfg_mutex
	movt	r0, :upper16:cfg_mutex
	bl	rt_mutex_release
	mov.w	r0, #-1
	.loc	2 188 9                         @ rt-thread/components/drivers/wlan/wlan_cfg.c:188:9
	str	r0, [sp, #44]
	b	.LBB4_37
.Ltmp59:
.LBB4_18:
	.loc	2 192 43                        @ rt-thread/components/drivers/wlan/wlan_cfg.c:192:43
	ldr	r0, [sp, #24]
	.loc	2 192 14 is_stmt 0              @ rt-thread/components/drivers/wlan/wlan_cfg.c:192:14
	str	r0, [sp, #16]
	movs	r0, #0
.Ltmp60:
	.loc	2 193 12 is_stmt 1              @ rt-thread/components/drivers/wlan/wlan_cfg.c:193:12
	str	r0, [sp, #36]
	.loc	2 193 10 is_stmt 0              @ rt-thread/components/drivers/wlan/wlan_cfg.c:193:10
	b	.LBB4_19
.LBB4_19:                               @ =>This Loop Header: Depth=1
                                        @     Child Loop BB4_21 Depth 2
.Ltmp61:
	.loc	2 193 17                        @ rt-thread/components/drivers/wlan/wlan_cfg.c:193:17
	ldr	r0, [sp, #36]
	.loc	2 193 21                        @ rt-thread/components/drivers/wlan/wlan_cfg.c:193:21
	ldr	r1, [sp, #28]
	.loc	2 193 27                        @ rt-thread/components/drivers/wlan/wlan_cfg.c:193:27
	ldr	r1, [r1, #8]
.Ltmp62:
	.loc	2 193 5                         @ rt-thread/components/drivers/wlan/wlan_cfg.c:193:5
	cmp	r0, r1
	bhs.w	.LBB4_36
	b	.LBB4_20
.LBB4_20:                               @   in Loop: Header=BB4_19 Depth=1
	.loc	2 0 5                           @ rt-thread/components/drivers/wlan/wlan_cfg.c:0:5
	movs	r0, #0
.Ltmp63:
	.loc	2 195 20 is_stmt 1              @ rt-thread/components/drivers/wlan/wlan_cfg.c:195:20
	str	r0, [sp, #8]
.Ltmp64:
	.loc	2 196 16                        @ rt-thread/components/drivers/wlan/wlan_cfg.c:196:16
	str	r0, [sp, #32]
	.loc	2 196 14 is_stmt 0              @ rt-thread/components/drivers/wlan/wlan_cfg.c:196:14
	b	.LBB4_21
.LBB4_21:                               @   Parent Loop BB4_19 Depth=1
                                        @ =>  This Inner Loop Header: Depth=2
.Ltmp65:
	.loc	2 196 21                        @ rt-thread/components/drivers/wlan/wlan_cfg.c:196:21
	ldr	r0, [sp, #32]
	.loc	2 196 25                        @ rt-thread/components/drivers/wlan/wlan_cfg.c:196:25
	movw	r1, :lower16:cfg_cache
	movt	r1, :upper16:cfg_cache
	ldr	r1, [r1]
	.loc	2 196 36                        @ rt-thread/components/drivers/wlan/wlan_cfg.c:196:36
	ldr	r1, [r1]
.Ltmp66:
	.loc	2 196 9                         @ rt-thread/components/drivers/wlan/wlan_cfg.c:196:9
	cmp	r0, r1
	bhs	.LBB4_28
	b	.LBB4_22
.LBB4_22:                               @   in Loop: Header=BB4_21 Depth=2
.Ltmp67:
	.loc	2 198 18 is_stmt 1              @ rt-thread/components/drivers/wlan/wlan_cfg.c:198:18
	movw	r0, :lower16:cfg_cache
	movt	r0, :upper16:cfg_cache
	ldr	r0, [r0]
	.loc	2 198 29 is_stmt 0              @ rt-thread/components/drivers/wlan/wlan_cfg.c:198:29
	ldr	r0, [r0, #4]
	.loc	2 198 38                        @ rt-thread/components/drivers/wlan/wlan_cfg.c:198:38
	ldr	r1, [sp, #32]
	.loc	2 198 18                        @ rt-thread/components/drivers/wlan/wlan_cfg.c:198:18
	add.w	r1, r1, r1, lsl #1
	add.w	r0, r0, r1, lsl #5
	.loc	2 198 51                        @ rt-thread/components/drivers/wlan/wlan_cfg.c:198:51
	ldrb	r0, [r0, #16]
	.loc	2 198 58                        @ rt-thread/components/drivers/wlan/wlan_cfg.c:198:58
	ldr	r1, [sp, #16]
	.loc	2 198 67                        @ rt-thread/components/drivers/wlan/wlan_cfg.c:198:67
	ldr	r2, [sp, #36]
	.loc	2 198 58                        @ rt-thread/components/drivers/wlan/wlan_cfg.c:198:58
	add.w	r2, r2, r2, lsl #1
	add.w	r1, r1, r2, lsl #5
	.loc	2 198 80                        @ rt-thread/components/drivers/wlan/wlan_cfg.c:198:80
	ldrb	r1, [r1, #16]
	.loc	2 198 85                        @ rt-thread/components/drivers/wlan/wlan_cfg.c:198:85
	cmp	r0, r1
	bne	.LBB4_26
	b	.LBB4_23
.LBB4_23:                               @   in Loop: Header=BB4_21 Depth=2
	.loc	2 199 33 is_stmt 1              @ rt-thread/components/drivers/wlan/wlan_cfg.c:199:33
	movw	r0, :lower16:cfg_cache
	movt	r0, :upper16:cfg_cache
	ldr	r0, [r0]
	.loc	2 199 44 is_stmt 0              @ rt-thread/components/drivers/wlan/wlan_cfg.c:199:44
	ldr	r0, [r0, #4]
	.loc	2 199 53                        @ rt-thread/components/drivers/wlan/wlan_cfg.c:199:53
	ldr	r1, [sp, #32]
	.loc	2 199 33                        @ rt-thread/components/drivers/wlan/wlan_cfg.c:199:33
	add.w	r1, r1, r1, lsl #1
	add.w	r2, r0, r1, lsl #5
	.loc	2 199 66                        @ rt-thread/components/drivers/wlan/wlan_cfg.c:199:66
	add.w	r0, r2, #17
	.loc	2 199 75                        @ rt-thread/components/drivers/wlan/wlan_cfg.c:199:75
	ldr	r1, [sp, #16]
	.loc	2 199 84                        @ rt-thread/components/drivers/wlan/wlan_cfg.c:199:84
	ldr	r3, [sp, #36]
	.loc	2 199 75                        @ rt-thread/components/drivers/wlan/wlan_cfg.c:199:75
	add.w	r3, r3, r3, lsl #1
	add.w	r1, r1, r3, lsl #5
	.loc	2 199 97                        @ rt-thread/components/drivers/wlan/wlan_cfg.c:199:97
	adds	r1, #17
	.loc	2 200 65 is_stmt 1              @ rt-thread/components/drivers/wlan/wlan_cfg.c:200:65
	ldrb	r2, [r2, #16]
	.loc	2 199 22                        @ rt-thread/components/drivers/wlan/wlan_cfg.c:199:22
	bl	rt_memcmp
	.loc	2 200 76                        @ rt-thread/components/drivers/wlan/wlan_cfg.c:200:76
	cbnz	r0, .LBB4_26
	b	.LBB4_24
.LBB4_24:                               @   in Loop: Header=BB4_21 Depth=2
	.loc	2 201 33                        @ rt-thread/components/drivers/wlan/wlan_cfg.c:201:33
	movw	r0, :lower16:cfg_cache
	movt	r0, :upper16:cfg_cache
	ldr	r0, [r0]
	.loc	2 201 44 is_stmt 0              @ rt-thread/components/drivers/wlan/wlan_cfg.c:201:44
	ldr	r0, [r0, #4]
	.loc	2 201 53                        @ rt-thread/components/drivers/wlan/wlan_cfg.c:201:53
	ldr	r1, [sp, #32]
	.loc	2 201 33                        @ rt-thread/components/drivers/wlan/wlan_cfg.c:201:33
	add.w	r1, r1, r1, lsl #1
	add.w	r0, r0, r1, lsl #5
	.loc	2 201 61                        @ rt-thread/components/drivers/wlan/wlan_cfg.c:201:61
	adds	r0, #50
	.loc	2 201 72                        @ rt-thread/components/drivers/wlan/wlan_cfg.c:201:72
	ldr	r1, [sp, #16]
	.loc	2 201 81                        @ rt-thread/components/drivers/wlan/wlan_cfg.c:201:81
	ldr	r2, [sp, #36]
	.loc	2 201 72                        @ rt-thread/components/drivers/wlan/wlan_cfg.c:201:72
	add.w	r2, r2, r2, lsl #1
	add.w	r1, r1, r2, lsl #5
	.loc	2 201 89                        @ rt-thread/components/drivers/wlan/wlan_cfg.c:201:89
	adds	r1, #50
	movs	r2, #6
	.loc	2 201 22                        @ rt-thread/components/drivers/wlan/wlan_cfg.c:201:22
	bl	rt_memcmp
.Ltmp68:
	.loc	2 198 17 is_stmt 1              @ rt-thread/components/drivers/wlan/wlan_cfg.c:198:17
	cbnz	r0, .LBB4_26
	b	.LBB4_25
.LBB4_25:                               @   in Loop: Header=BB4_19 Depth=1
	.loc	2 0 17 is_stmt 0                @ rt-thread/components/drivers/wlan/wlan_cfg.c:0:17
	movs	r0, #1
.Ltmp69:
	.loc	2 203 28 is_stmt 1              @ rt-thread/components/drivers/wlan/wlan_cfg.c:203:28
	str	r0, [sp, #8]
	.loc	2 204 17                        @ rt-thread/components/drivers/wlan/wlan_cfg.c:204:17
	b	.LBB4_28
.Ltmp70:
.LBB4_26:                               @   in Loop: Header=BB4_21 Depth=2
	.loc	2 206 9                         @ rt-thread/components/drivers/wlan/wlan_cfg.c:206:9
	b	.LBB4_27
.Ltmp71:
.LBB4_27:                               @   in Loop: Header=BB4_21 Depth=2
	.loc	2 196 42                        @ rt-thread/components/drivers/wlan/wlan_cfg.c:196:42
	ldr	r0, [sp, #32]
	adds	r0, #1
	str	r0, [sp, #32]
	.loc	2 196 9 is_stmt 0               @ rt-thread/components/drivers/wlan/wlan_cfg.c:196:9
	b	.LBB4_21
.Ltmp72:
.LBB4_28:                               @   in Loop: Header=BB4_19 Depth=1
	.loc	2 208 13 is_stmt 1              @ rt-thread/components/drivers/wlan/wlan_cfg.c:208:13
	movw	r0, :lower16:cfg_cache
	movt	r0, :upper16:cfg_cache
	ldr	r0, [r0]
	.loc	2 208 24 is_stmt 0              @ rt-thread/components/drivers/wlan/wlan_cfg.c:208:24
	ldr	r0, [r0]
.Ltmp73:
	.loc	2 208 13                        @ rt-thread/components/drivers/wlan/wlan_cfg.c:208:13
	cmp	r0, #3
	blo	.LBB4_30
	b	.LBB4_29
.LBB4_29:
.Ltmp74:
	.loc	2 210 13 is_stmt 1              @ rt-thread/components/drivers/wlan/wlan_cfg.c:210:13
	b	.LBB4_36
.Ltmp75:
.LBB4_30:                               @   in Loop: Header=BB4_19 Depth=1
	.loc	2 213 13                        @ rt-thread/components/drivers/wlan/wlan_cfg.c:213:13
	ldr	r0, [sp, #8]
.Ltmp76:
	.loc	2 213 13 is_stmt 0              @ rt-thread/components/drivers/wlan/wlan_cfg.c:213:13
	cbnz	r0, .LBB4_34
	b	.LBB4_31
.LBB4_31:                               @   in Loop: Header=BB4_19 Depth=1
.Ltmp77:
	.loc	2 215 33 is_stmt 1              @ rt-thread/components/drivers/wlan/wlan_cfg.c:215:33
	movw	r0, :lower16:cfg_cache
	movt	r0, :upper16:cfg_cache
	ldr	r0, [r0]
	.loc	2 215 100 is_stmt 0             @ rt-thread/components/drivers/wlan/wlan_cfg.c:215:100
	ldr	r1, [r0]
	.loc	2 215 44                        @ rt-thread/components/drivers/wlan/wlan_cfg.c:215:44
	ldr	r0, [r0, #4]
	.loc	2 215 104                       @ rt-thread/components/drivers/wlan/wlan_cfg.c:215:104
	add.w	r2, r1, r1, lsl #1
	movs	r1, #96
	.loc	2 215 86                        @ rt-thread/components/drivers/wlan/wlan_cfg.c:215:86
	add.w	r1, r1, r2, lsl #5
	.loc	2 215 22                        @ rt-thread/components/drivers/wlan/wlan_cfg.c:215:22
	bl	rt_realloc
	.loc	2 215 20                        @ rt-thread/components/drivers/wlan/wlan_cfg.c:215:20
	str	r0, [sp, #20]
.Ltmp78:
	.loc	2 216 17 is_stmt 1              @ rt-thread/components/drivers/wlan/wlan_cfg.c:216:17
	ldr	r0, [sp, #20]
.Ltmp79:
	.loc	2 216 17 is_stmt 0              @ rt-thread/components/drivers/wlan/wlan_cfg.c:216:17
	cbnz	r0, .LBB4_33
	b	.LBB4_32
.LBB4_32:
.Ltmp80:
	.loc	2 218 25 is_stmt 1              @ rt-thread/components/drivers/wlan/wlan_cfg.c:218:25
	ldr	r0, [sp, #28]
	.loc	2 218 17 is_stmt 0              @ rt-thread/components/drivers/wlan/wlan_cfg.c:218:17
	bl	rt_free
	.loc	2 219 17 is_stmt 1              @ rt-thread/components/drivers/wlan/wlan_cfg.c:219:17
	movw	r0, :lower16:cfg_mutex
	movt	r0, :upper16:cfg_mutex
	bl	rt_mutex_release
	mov.w	r0, #-1
	.loc	2 220 17                        @ rt-thread/components/drivers/wlan/wlan_cfg.c:220:17
	str	r0, [sp, #44]
	b	.LBB4_37
.Ltmp81:
.LBB4_33:                               @   in Loop: Header=BB4_19 Depth=1
	.loc	2 222 35                        @ rt-thread/components/drivers/wlan/wlan_cfg.c:222:35
	ldr	r1, [sp, #20]
	.loc	2 222 13 is_stmt 0              @ rt-thread/components/drivers/wlan/wlan_cfg.c:222:13
	movw	r0, :lower16:cfg_cache
	movt	r0, :upper16:cfg_cache
	str	r0, [sp, #4]                    @ 4-byte Spill
	ldr	r2, [r0]
	.loc	2 222 33                        @ rt-thread/components/drivers/wlan/wlan_cfg.c:222:33
	str	r1, [r2, #4]
	.loc	2 223 13 is_stmt 1              @ rt-thread/components/drivers/wlan/wlan_cfg.c:223:13
	ldr	r0, [r0]
	.loc	2 223 44 is_stmt 0              @ rt-thread/components/drivers/wlan/wlan_cfg.c:223:44
	ldr	r1, [r0]
	.loc	2 223 24                        @ rt-thread/components/drivers/wlan/wlan_cfg.c:223:24
	ldr	r0, [r0, #4]
	.loc	2 223 13                        @ rt-thread/components/drivers/wlan/wlan_cfg.c:223:13
	add.w	r1, r1, r1, lsl #1
	add.w	r0, r0, r1, lsl #5
	.loc	2 223 51                        @ rt-thread/components/drivers/wlan/wlan_cfg.c:223:51
	ldr	r1, [sp, #16]
	.loc	2 223 60                        @ rt-thread/components/drivers/wlan/wlan_cfg.c:223:60
	ldr	r2, [sp, #36]
	.loc	2 223 51                        @ rt-thread/components/drivers/wlan/wlan_cfg.c:223:51
	add.w	r2, r2, r2, lsl #1
	add.w	r1, r1, r2, lsl #5
	movs	r2, #96
	bl	__aeabi_memcpy4
	ldr	r0, [sp, #4]                    @ 4-byte Reload
	.loc	2 224 13 is_stmt 1              @ rt-thread/components/drivers/wlan/wlan_cfg.c:224:13
	ldr	r1, [r0]
	.loc	2 224 28 is_stmt 0              @ rt-thread/components/drivers/wlan/wlan_cfg.c:224:28
	ldr	r0, [r1]
	adds	r0, #1
	str	r0, [r1]
	.loc	2 225 9 is_stmt 1               @ rt-thread/components/drivers/wlan/wlan_cfg.c:225:9
	b	.LBB4_34
.Ltmp82:
.LBB4_34:                               @   in Loop: Header=BB4_19 Depth=1
	.loc	2 226 5                         @ rt-thread/components/drivers/wlan/wlan_cfg.c:226:5
	b	.LBB4_35
.Ltmp83:
.LBB4_35:                               @   in Loop: Header=BB4_19 Depth=1
	.loc	2 193 33                        @ rt-thread/components/drivers/wlan/wlan_cfg.c:193:33
	ldr	r0, [sp, #36]
	adds	r0, #1
	str	r0, [sp, #36]
	.loc	2 193 5 is_stmt 0               @ rt-thread/components/drivers/wlan/wlan_cfg.c:193:5
	b	.LBB4_19
.Ltmp84:
.LBB4_36:
	.loc	2 228 13 is_stmt 1              @ rt-thread/components/drivers/wlan/wlan_cfg.c:228:13
	ldr	r0, [sp, #28]
	.loc	2 228 5 is_stmt 0               @ rt-thread/components/drivers/wlan/wlan_cfg.c:228:5
	bl	rt_free
	.loc	2 229 5 is_stmt 1               @ rt-thread/components/drivers/wlan/wlan_cfg.c:229:5
	movw	r0, :lower16:cfg_mutex
	movt	r0, :upper16:cfg_mutex
	bl	rt_mutex_release
	movs	r0, #0
	.loc	2 230 5                         @ rt-thread/components/drivers/wlan/wlan_cfg.c:230:5
	str	r0, [sp, #44]
	b	.LBB4_37
.LBB4_37:
	.loc	2 231 1                         @ rt-thread/components/drivers/wlan/wlan_cfg.c:231:1
	ldr	r0, [sp, #44]
	add	sp, #48
	pop	{r7, pc}
.Ltmp85:
.Lfunc_end4:
	.size	rt_wlan_cfg_cache_refresh, .Lfunc_end4-rt_wlan_cfg_cache_refresh
	.cfi_endproc
	.cantunwind
	.fnend
                                        @ -- End function
	.section	.text.rt_wlan_cfg_get_num,"ax",%progbits
	.hidden	rt_wlan_cfg_get_num             @ -- Begin function rt_wlan_cfg_get_num
	.globl	rt_wlan_cfg_get_num
	.p2align	3
	.type	rt_wlan_cfg_get_num,%function
	.code	16                              @ @rt_wlan_cfg_get_num
	.thumb_func
rt_wlan_cfg_get_num:
.Lfunc_begin5:
	.loc	2 234 0                         @ rt-thread/components/drivers/wlan/wlan_cfg.c:234:0
	.fnstart
	.cfi_startproc
@ %bb.0:
	.save	{r7, lr}
	push	{r7, lr}
	.cfi_def_cfa_offset 8
	.cfi_offset lr, -4
	.cfi_offset r7, -8
.Ltmp86:
	.loc	2 235 5 prologue_end            @ rt-thread/components/drivers/wlan/wlan_cfg.c:235:5
	bl	rt_wlan_cfg_init
	.loc	2 237 12                        @ rt-thread/components/drivers/wlan/wlan_cfg.c:237:12
	movw	r0, :lower16:cfg_cache
	movt	r0, :upper16:cfg_cache
	ldr	r0, [r0]
	.loc	2 237 23 is_stmt 0              @ rt-thread/components/drivers/wlan/wlan_cfg.c:237:23
	ldr	r0, [r0]
	.loc	2 237 5                         @ rt-thread/components/drivers/wlan/wlan_cfg.c:237:5
	pop	{r7, pc}
.Ltmp87:
.Lfunc_end5:
	.size	rt_wlan_cfg_get_num, .Lfunc_end5-rt_wlan_cfg_get_num
	.cfi_endproc
	.cantunwind
	.fnend
                                        @ -- End function
	.section	.text.rt_wlan_cfg_read,"ax",%progbits
	.hidden	rt_wlan_cfg_read                @ -- Begin function rt_wlan_cfg_read
	.globl	rt_wlan_cfg_read
	.p2align	3
	.type	rt_wlan_cfg_read,%function
	.code	16                              @ @rt_wlan_cfg_read
	.thumb_func
rt_wlan_cfg_read:
.Lfunc_begin6:
	.loc	2 241 0 is_stmt 1               @ rt-thread/components/drivers/wlan/wlan_cfg.c:241:0
	.fnstart
	.cfi_startproc
@ %bb.0:
	.save	{r7, lr}
	push	{r7, lr}
	.cfi_def_cfa_offset 8
	.cfi_offset lr, -4
	.cfi_offset r7, -8
	.pad	#16
	sub	sp, #16
	.cfi_def_cfa_offset 24
	str	r0, [sp, #8]
	str	r1, [sp, #4]
.Ltmp88:
	.loc	2 242 5 prologue_end            @ rt-thread/components/drivers/wlan/wlan_cfg.c:242:5
	bl	rt_wlan_cfg_init
.Ltmp89:
	.loc	2 244 10                        @ rt-thread/components/drivers/wlan/wlan_cfg.c:244:10
	ldr	r0, [sp, #8]
	.loc	2 244 31 is_stmt 0              @ rt-thread/components/drivers/wlan/wlan_cfg.c:244:31
	cbz	r0, .LBB6_2
	b	.LBB6_1
.LBB6_1:
	.loc	2 244 35                        @ rt-thread/components/drivers/wlan/wlan_cfg.c:244:35
	ldr	r0, [sp, #4]
.Ltmp90:
	.loc	2 244 9                         @ rt-thread/components/drivers/wlan/wlan_cfg.c:244:9
	cmp	r0, #0
	bgt	.LBB6_3
	b	.LBB6_2
.LBB6_2:
	.loc	2 0 9                           @ rt-thread/components/drivers/wlan/wlan_cfg.c:0:9
	movs	r0, #0
.Ltmp91:
	.loc	2 245 9 is_stmt 1               @ rt-thread/components/drivers/wlan/wlan_cfg.c:245:9
	str	r0, [sp, #12]
	b	.LBB6_7
.Ltmp92:
.LBB6_3:
	.loc	2 247 5                         @ rt-thread/components/drivers/wlan/wlan_cfg.c:247:5
	movw	r0, :lower16:cfg_mutex
	movt	r0, :upper16:cfg_mutex
	mov.w	r1, #-1
	bl	rt_mutex_take
	.loc	2 248 11                        @ rt-thread/components/drivers/wlan/wlan_cfg.c:248:11
	movw	r0, :lower16:cfg_cache
	movt	r0, :upper16:cfg_cache
	ldr	r0, [r0]
	.loc	2 248 22 is_stmt 0              @ rt-thread/components/drivers/wlan/wlan_cfg.c:248:22
	ldr	r0, [r0]
	.loc	2 248 28                        @ rt-thread/components/drivers/wlan/wlan_cfg.c:248:28
	ldr	r1, [sp, #4]
	.loc	2 248 11                        @ rt-thread/components/drivers/wlan/wlan_cfg.c:248:11
	cmp	r0, r1
	bls	.LBB6_5
	b	.LBB6_4
.LBB6_4:
	.loc	2 248 34                        @ rt-thread/components/drivers/wlan/wlan_cfg.c:248:34
	ldr	r0, [sp, #4]
	.loc	2 248 11                        @ rt-thread/components/drivers/wlan/wlan_cfg.c:248:11
	str	r0, [sp]                        @ 4-byte Spill
	b	.LBB6_6
.LBB6_5:
	.loc	2 248 40                        @ rt-thread/components/drivers/wlan/wlan_cfg.c:248:40
	movw	r0, :lower16:cfg_cache
	movt	r0, :upper16:cfg_cache
	ldr	r0, [r0]
	.loc	2 248 51                        @ rt-thread/components/drivers/wlan/wlan_cfg.c:248:51
	ldr	r0, [r0]
	.loc	2 248 11                        @ rt-thread/components/drivers/wlan/wlan_cfg.c:248:11
	str	r0, [sp]                        @ 4-byte Spill
	b	.LBB6_6
.LBB6_6:
	ldr	r0, [sp]                        @ 4-byte Reload
	.loc	2 248 9                         @ rt-thread/components/drivers/wlan/wlan_cfg.c:248:9
	str	r0, [sp, #4]
	.loc	2 249 16 is_stmt 1              @ rt-thread/components/drivers/wlan/wlan_cfg.c:249:16
	movw	r0, :lower16:cfg_cache
	movt	r0, :upper16:cfg_cache
	ldr	r0, [r0]
	.loc	2 249 27 is_stmt 0              @ rt-thread/components/drivers/wlan/wlan_cfg.c:249:27
	ldr	r0, [r0, #4]
	.loc	2 249 40                        @ rt-thread/components/drivers/wlan/wlan_cfg.c:249:40
	ldr	r1, [sp, #8]
	.loc	2 249 84                        @ rt-thread/components/drivers/wlan/wlan_cfg.c:249:84
	ldr	r2, [sp, #4]
	.loc	2 249 82                        @ rt-thread/components/drivers/wlan/wlan_cfg.c:249:82
	add.w	r2, r2, r2, lsl #1
	lsls	r2, r2, #5
	.loc	2 249 5                         @ rt-thread/components/drivers/wlan/wlan_cfg.c:249:5
	bl	rt_memcpy
	.loc	2 250 5 is_stmt 1               @ rt-thread/components/drivers/wlan/wlan_cfg.c:250:5
	movw	r0, :lower16:cfg_mutex
	movt	r0, :upper16:cfg_mutex
	bl	rt_mutex_release
	.loc	2 252 12                        @ rt-thread/components/drivers/wlan/wlan_cfg.c:252:12
	ldr	r0, [sp, #4]
	.loc	2 252 5 is_stmt 0               @ rt-thread/components/drivers/wlan/wlan_cfg.c:252:5
	str	r0, [sp, #12]
	b	.LBB6_7
.LBB6_7:
	.loc	2 253 1 is_stmt 1               @ rt-thread/components/drivers/wlan/wlan_cfg.c:253:1
	ldr	r0, [sp, #12]
	add	sp, #16
	pop	{r7, pc}
.Ltmp93:
.Lfunc_end6:
	.size	rt_wlan_cfg_read, .Lfunc_end6-rt_wlan_cfg_read
	.cfi_endproc
	.cantunwind
	.fnend
                                        @ -- End function
	.section	.text.rt_wlan_cfg_save,"ax",%progbits
	.hidden	rt_wlan_cfg_save                @ -- Begin function rt_wlan_cfg_save
	.globl	rt_wlan_cfg_save
	.p2align	3
	.type	rt_wlan_cfg_save,%function
	.code	16                              @ @rt_wlan_cfg_save
	.thumb_func
rt_wlan_cfg_save:
.Lfunc_begin7:
	.loc	2 256 0                         @ rt-thread/components/drivers/wlan/wlan_cfg.c:256:0
	.fnstart
	.cfi_startproc
@ %bb.0:
	.save	{r7, lr}
	push	{r7, lr}
	.cfi_def_cfa_offset 8
	.cfi_offset lr, -4
	.cfi_offset r7, -8
	.pad	#32
	sub	sp, #32
	.cfi_def_cfa_offset 40
	str	r0, [sp, #24]
	movs	r0, #0
.Ltmp94:
	.loc	2 257 14 prologue_end           @ rt-thread/components/drivers/wlan/wlan_cfg.c:257:14
	str	r0, [sp, #20]
	mov.w	r1, #-1
	.loc	2 259 9                         @ rt-thread/components/drivers/wlan/wlan_cfg.c:259:9
	str	r1, [sp, #12]
	.loc	2 259 19 is_stmt 0              @ rt-thread/components/drivers/wlan/wlan_cfg.c:259:19
	str	r0, [sp, #8]
	.loc	2 261 5 is_stmt 1               @ rt-thread/components/drivers/wlan/wlan_cfg.c:261:5
	bl	rt_wlan_cfg_init
.Ltmp95:
	.loc	2 264 10                        @ rt-thread/components/drivers/wlan/wlan_cfg.c:264:10
	ldr	r0, [sp, #24]
	.loc	2 264 31 is_stmt 0              @ rt-thread/components/drivers/wlan/wlan_cfg.c:264:31
	cbz	r0, .LBB7_2
	b	.LBB7_1
.LBB7_1:
	.loc	2 264 35                        @ rt-thread/components/drivers/wlan/wlan_cfg.c:264:35
	ldr	r0, [sp, #24]
	.loc	2 264 55                        @ rt-thread/components/drivers/wlan/wlan_cfg.c:264:55
	ldrb	r0, [r0, #16]
.Ltmp96:
	.loc	2 264 9                         @ rt-thread/components/drivers/wlan/wlan_cfg.c:264:9
	cbnz	r0, .LBB7_3
	b	.LBB7_2
.LBB7_2:
	.loc	2 0 9                           @ rt-thread/components/drivers/wlan/wlan_cfg.c:0:9
	mvn	r0, #9
.Ltmp97:
	.loc	2 266 9 is_stmt 1               @ rt-thread/components/drivers/wlan/wlan_cfg.c:266:9
	str	r0, [sp, #28]
	b	.LBB7_28
.Ltmp98:
.LBB7_3:
	.loc	2 269 5                         @ rt-thread/components/drivers/wlan/wlan_cfg.c:269:5
	movw	r0, :lower16:cfg_mutex
	movt	r0, :upper16:cfg_mutex
	mov.w	r1, #-1
	bl	rt_mutex_take
	movs	r0, #0
.Ltmp99:
	.loc	2 270 12                        @ rt-thread/components/drivers/wlan/wlan_cfg.c:270:12
	str	r0, [sp, #8]
	.loc	2 270 10 is_stmt 0              @ rt-thread/components/drivers/wlan/wlan_cfg.c:270:10
	b	.LBB7_4
.LBB7_4:                                @ =>This Inner Loop Header: Depth=1
.Ltmp100:
	.loc	2 270 17                        @ rt-thread/components/drivers/wlan/wlan_cfg.c:270:17
	ldr	r0, [sp, #8]
	.loc	2 270 21                        @ rt-thread/components/drivers/wlan/wlan_cfg.c:270:21
	movw	r1, :lower16:cfg_cache
	movt	r1, :upper16:cfg_cache
	ldr	r1, [r1]
	.loc	2 270 32                        @ rt-thread/components/drivers/wlan/wlan_cfg.c:270:32
	ldr	r1, [r1]
.Ltmp101:
	.loc	2 270 5                         @ rt-thread/components/drivers/wlan/wlan_cfg.c:270:5
	cmp	r0, r1
	bhs	.LBB7_11
	b	.LBB7_5
.LBB7_5:                                @   in Loop: Header=BB7_4 Depth=1
.Ltmp102:
	.loc	2 272 14 is_stmt 1              @ rt-thread/components/drivers/wlan/wlan_cfg.c:272:14
	movw	r0, :lower16:cfg_cache
	movt	r0, :upper16:cfg_cache
	ldr	r0, [r0]
	.loc	2 272 25 is_stmt 0              @ rt-thread/components/drivers/wlan/wlan_cfg.c:272:25
	ldr	r0, [r0, #4]
	.loc	2 272 34                        @ rt-thread/components/drivers/wlan/wlan_cfg.c:272:34
	ldr	r1, [sp, #8]
	.loc	2 272 14                        @ rt-thread/components/drivers/wlan/wlan_cfg.c:272:14
	add.w	r1, r1, r1, lsl #1
	add.w	r0, r0, r1, lsl #5
	.loc	2 272 47                        @ rt-thread/components/drivers/wlan/wlan_cfg.c:272:47
	ldrb	r0, [r0, #16]
	.loc	2 272 54                        @ rt-thread/components/drivers/wlan/wlan_cfg.c:272:54
	ldr	r1, [sp, #24]
	.loc	2 272 74                        @ rt-thread/components/drivers/wlan/wlan_cfg.c:272:74
	ldrb	r1, [r1, #16]
	.loc	2 272 79                        @ rt-thread/components/drivers/wlan/wlan_cfg.c:272:79
	cmp	r0, r1
	bne	.LBB7_9
	b	.LBB7_6
.LBB7_6:                                @   in Loop: Header=BB7_4 Depth=1
	.loc	2 273 29 is_stmt 1              @ rt-thread/components/drivers/wlan/wlan_cfg.c:273:29
	movw	r0, :lower16:cfg_cache
	movt	r0, :upper16:cfg_cache
	ldr	r0, [r0]
	.loc	2 273 40 is_stmt 0              @ rt-thread/components/drivers/wlan/wlan_cfg.c:273:40
	ldr	r0, [r0, #4]
	.loc	2 273 49                        @ rt-thread/components/drivers/wlan/wlan_cfg.c:273:49
	ldr	r1, [sp, #8]
	.loc	2 273 29                        @ rt-thread/components/drivers/wlan/wlan_cfg.c:273:29
	add.w	r1, r1, r1, lsl #1
	add.w	r2, r0, r1, lsl #5
	.loc	2 273 62                        @ rt-thread/components/drivers/wlan/wlan_cfg.c:273:62
	add.w	r0, r2, #17
	.loc	2 273 71                        @ rt-thread/components/drivers/wlan/wlan_cfg.c:273:71
	ldr	r1, [sp, #24]
	.loc	2 273 91                        @ rt-thread/components/drivers/wlan/wlan_cfg.c:273:91
	adds	r1, #17
	.loc	2 274 61 is_stmt 1              @ rt-thread/components/drivers/wlan/wlan_cfg.c:274:61
	ldrb	r2, [r2, #16]
	.loc	2 273 18                        @ rt-thread/components/drivers/wlan/wlan_cfg.c:273:18
	bl	rt_memcmp
	.loc	2 274 72                        @ rt-thread/components/drivers/wlan/wlan_cfg.c:274:72
	cbnz	r0, .LBB7_9
	b	.LBB7_7
.LBB7_7:                                @   in Loop: Header=BB7_4 Depth=1
	.loc	2 275 29                        @ rt-thread/components/drivers/wlan/wlan_cfg.c:275:29
	movw	r0, :lower16:cfg_cache
	movt	r0, :upper16:cfg_cache
	ldr	r0, [r0]
	.loc	2 275 40 is_stmt 0              @ rt-thread/components/drivers/wlan/wlan_cfg.c:275:40
	ldr	r0, [r0, #4]
	.loc	2 275 49                        @ rt-thread/components/drivers/wlan/wlan_cfg.c:275:49
	ldr	r1, [sp, #8]
	.loc	2 275 29                        @ rt-thread/components/drivers/wlan/wlan_cfg.c:275:29
	add.w	r1, r1, r1, lsl #1
	add.w	r0, r0, r1, lsl #5
	.loc	2 275 57                        @ rt-thread/components/drivers/wlan/wlan_cfg.c:275:57
	adds	r0, #50
	.loc	2 275 68                        @ rt-thread/components/drivers/wlan/wlan_cfg.c:275:68
	ldr	r1, [sp, #24]
	.loc	2 275 83                        @ rt-thread/components/drivers/wlan/wlan_cfg.c:275:83
	adds	r1, #50
	movs	r2, #6
	.loc	2 275 18                        @ rt-thread/components/drivers/wlan/wlan_cfg.c:275:18
	bl	rt_memcmp
.Ltmp103:
	.loc	2 272 13 is_stmt 1              @ rt-thread/components/drivers/wlan/wlan_cfg.c:272:13
	cbnz	r0, .LBB7_9
	b	.LBB7_8
.LBB7_8:
.Ltmp104:
	.loc	2 277 19                        @ rt-thread/components/drivers/wlan/wlan_cfg.c:277:19
	ldr	r0, [sp, #8]
	.loc	2 277 17 is_stmt 0              @ rt-thread/components/drivers/wlan/wlan_cfg.c:277:17
	str	r0, [sp, #12]
	.loc	2 278 13 is_stmt 1              @ rt-thread/components/drivers/wlan/wlan_cfg.c:278:13
	b	.LBB7_11
.Ltmp105:
.LBB7_9:                                @   in Loop: Header=BB7_4 Depth=1
	.loc	2 280 5                         @ rt-thread/components/drivers/wlan/wlan_cfg.c:280:5
	b	.LBB7_10
.Ltmp106:
.LBB7_10:                               @   in Loop: Header=BB7_4 Depth=1
	.loc	2 270 38                        @ rt-thread/components/drivers/wlan/wlan_cfg.c:270:38
	ldr	r0, [sp, #8]
	adds	r0, #1
	str	r0, [sp, #8]
	.loc	2 270 5 is_stmt 0               @ rt-thread/components/drivers/wlan/wlan_cfg.c:270:5
	b	.LBB7_4
.Ltmp107:
.LBB7_11:
	.loc	2 282 10 is_stmt 1              @ rt-thread/components/drivers/wlan/wlan_cfg.c:282:10
	ldr	r0, [sp, #12]
	.loc	2 282 20 is_stmt 0              @ rt-thread/components/drivers/wlan/wlan_cfg.c:282:20
	cbnz	r0, .LBB7_15
	b	.LBB7_12
.LBB7_12:
	.loc	2 282 24                        @ rt-thread/components/drivers/wlan/wlan_cfg.c:282:24
	movw	r0, :lower16:cfg_cache
	movt	r0, :upper16:cfg_cache
	ldr	r0, [r0]
	.loc	2 282 35                        @ rt-thread/components/drivers/wlan/wlan_cfg.c:282:35
	ldr	r0, [r0, #4]
	.loc	2 282 44                        @ rt-thread/components/drivers/wlan/wlan_cfg.c:282:44
	ldr	r1, [sp, #8]
	.loc	2 282 24                        @ rt-thread/components/drivers/wlan/wlan_cfg.c:282:24
	add.w	r1, r1, r1, lsl #1
	add.w	r0, r0, r1, lsl #5
	.loc	2 282 51                        @ rt-thread/components/drivers/wlan/wlan_cfg.c:282:51
	ldrb.w	r0, [r0, #60]
	.loc	2 282 58                        @ rt-thread/components/drivers/wlan/wlan_cfg.c:282:58
	ldr	r1, [sp, #24]
	.loc	2 282 72                        @ rt-thread/components/drivers/wlan/wlan_cfg.c:282:72
	ldrb.w	r1, [r1, #60]
	.loc	2 282 77                        @ rt-thread/components/drivers/wlan/wlan_cfg.c:282:77
	cmp	r0, r1
	bne	.LBB7_15
	b	.LBB7_13
.LBB7_13:
	.loc	2 283 25 is_stmt 1              @ rt-thread/components/drivers/wlan/wlan_cfg.c:283:25
	movw	r0, :lower16:cfg_cache
	movt	r0, :upper16:cfg_cache
	ldr	r0, [r0]
	.loc	2 283 36 is_stmt 0              @ rt-thread/components/drivers/wlan/wlan_cfg.c:283:36
	ldr	r0, [r0, #4]
	.loc	2 283 45                        @ rt-thread/components/drivers/wlan/wlan_cfg.c:283:45
	ldr	r1, [sp, #8]
	.loc	2 283 25                        @ rt-thread/components/drivers/wlan/wlan_cfg.c:283:25
	add.w	r1, r1, r1, lsl #1
	add.w	r0, r0, r1, lsl #5
	.loc	2 283 52                        @ rt-thread/components/drivers/wlan/wlan_cfg.c:283:52
	adds	r0, #61
	.loc	2 283 61                        @ rt-thread/components/drivers/wlan/wlan_cfg.c:283:61
	ldr	r2, [sp, #24]
	.loc	2 283 75                        @ rt-thread/components/drivers/wlan/wlan_cfg.c:283:75
	add.w	r1, r2, #61
	.loc	2 283 97                        @ rt-thread/components/drivers/wlan/wlan_cfg.c:283:97
	ldrb.w	r2, [r2, #60]
	.loc	2 283 14                        @ rt-thread/components/drivers/wlan/wlan_cfg.c:283:14
	bl	rt_memcmp
.Ltmp108:
	.loc	2 282 9 is_stmt 1               @ rt-thread/components/drivers/wlan/wlan_cfg.c:282:9
	cbnz	r0, .LBB7_15
	b	.LBB7_14
.LBB7_14:
.Ltmp109:
	.loc	2 285 9                         @ rt-thread/components/drivers/wlan/wlan_cfg.c:285:9
	movw	r0, :lower16:cfg_mutex
	movt	r0, :upper16:cfg_mutex
	bl	rt_mutex_release
	movs	r0, #0
	.loc	2 286 9                         @ rt-thread/components/drivers/wlan/wlan_cfg.c:286:9
	str	r0, [sp, #28]
	b	.LBB7_28
.Ltmp110:
.LBB7_15:
	.loc	2 290 10                        @ rt-thread/components/drivers/wlan/wlan_cfg.c:290:10
	ldr	r0, [sp, #12]
	.loc	2 290 21 is_stmt 0              @ rt-thread/components/drivers/wlan/wlan_cfg.c:290:21
	adds	r0, #1
	cbnz	r0, .LBB7_20
	b	.LBB7_16
.LBB7_16:
	.loc	2 290 25                        @ rt-thread/components/drivers/wlan/wlan_cfg.c:290:25
	movw	r0, :lower16:cfg_cache
	movt	r0, :upper16:cfg_cache
	ldr	r0, [r0]
	.loc	2 290 36                        @ rt-thread/components/drivers/wlan/wlan_cfg.c:290:36
	ldr	r0, [r0]
.Ltmp111:
	.loc	2 290 9                         @ rt-thread/components/drivers/wlan/wlan_cfg.c:290:9
	cmp	r0, #2
	bhi	.LBB7_20
	b	.LBB7_17
.LBB7_17:
.Ltmp112:
	.loc	2 292 29 is_stmt 1              @ rt-thread/components/drivers/wlan/wlan_cfg.c:292:29
	movw	r0, :lower16:cfg_cache
	movt	r0, :upper16:cfg_cache
	ldr	r0, [r0]
	.loc	2 292 96 is_stmt 0              @ rt-thread/components/drivers/wlan/wlan_cfg.c:292:96
	ldr	r1, [r0]
	.loc	2 292 40                        @ rt-thread/components/drivers/wlan/wlan_cfg.c:292:40
	ldr	r0, [r0, #4]
	.loc	2 292 100                       @ rt-thread/components/drivers/wlan/wlan_cfg.c:292:100
	add.w	r2, r1, r1, lsl #1
	movs	r1, #96
	.loc	2 292 82                        @ rt-thread/components/drivers/wlan/wlan_cfg.c:292:82
	add.w	r1, r1, r2, lsl #5
	.loc	2 292 18                        @ rt-thread/components/drivers/wlan/wlan_cfg.c:292:18
	bl	rt_realloc
	.loc	2 292 16                        @ rt-thread/components/drivers/wlan/wlan_cfg.c:292:16
	str	r0, [sp, #16]
.Ltmp113:
	.loc	2 293 13 is_stmt 1              @ rt-thread/components/drivers/wlan/wlan_cfg.c:293:13
	ldr	r0, [sp, #16]
.Ltmp114:
	.loc	2 293 13 is_stmt 0              @ rt-thread/components/drivers/wlan/wlan_cfg.c:293:13
	cbnz	r0, .LBB7_19
	b	.LBB7_18
.LBB7_18:
.Ltmp115:
	.loc	2 295 13 is_stmt 1              @ rt-thread/components/drivers/wlan/wlan_cfg.c:295:13
	movw	r0, :lower16:cfg_mutex
	movt	r0, :upper16:cfg_mutex
	bl	rt_mutex_release
	mvn	r0, #4
	.loc	2 296 13                        @ rt-thread/components/drivers/wlan/wlan_cfg.c:296:13
	str	r0, [sp, #28]
	b	.LBB7_28
.Ltmp116:
.LBB7_19:
	.loc	2 298 31                        @ rt-thread/components/drivers/wlan/wlan_cfg.c:298:31
	ldr	r1, [sp, #16]
	.loc	2 298 9 is_stmt 0               @ rt-thread/components/drivers/wlan/wlan_cfg.c:298:9
	movw	r0, :lower16:cfg_cache
	movt	r0, :upper16:cfg_cache
	ldr	r2, [r0]
	.loc	2 298 29                        @ rt-thread/components/drivers/wlan/wlan_cfg.c:298:29
	str	r1, [r2, #4]
	.loc	2 299 9 is_stmt 1               @ rt-thread/components/drivers/wlan/wlan_cfg.c:299:9
	ldr	r1, [r0]
	.loc	2 299 24 is_stmt 0              @ rt-thread/components/drivers/wlan/wlan_cfg.c:299:24
	ldr	r0, [r1]
	adds	r0, #1
	str	r0, [r1]
	.loc	2 300 5 is_stmt 1               @ rt-thread/components/drivers/wlan/wlan_cfg.c:300:5
	b	.LBB7_20
.Ltmp117:
.LBB7_20:
	.loc	2 303 10                        @ rt-thread/components/drivers/wlan/wlan_cfg.c:303:10
	ldr	r0, [sp, #8]
	cmp	r0, #3
	blt	.LBB7_22
	b	.LBB7_21
.LBB7_21:
	.loc	2 0 10 is_stmt 0                @ rt-thread/components/drivers/wlan/wlan_cfg.c:0:10
	movs	r0, #2
	.loc	2 303 10                        @ rt-thread/components/drivers/wlan/wlan_cfg.c:303:10
	str	r0, [sp, #4]                    @ 4-byte Spill
	b	.LBB7_23
.LBB7_22:
	.loc	2 303 65                        @ rt-thread/components/drivers/wlan/wlan_cfg.c:303:65
	ldr	r0, [sp, #8]
	.loc	2 303 10                        @ rt-thread/components/drivers/wlan/wlan_cfg.c:303:10
	str	r0, [sp, #4]                    @ 4-byte Spill
	b	.LBB7_23
.LBB7_23:
	ldr	r0, [sp, #4]                    @ 4-byte Reload
	.loc	2 303 7                         @ rt-thread/components/drivers/wlan/wlan_cfg.c:303:7
	str	r0, [sp, #8]
	.loc	2 304 5 is_stmt 1               @ rt-thread/components/drivers/wlan/wlan_cfg.c:304:5
	b	.LBB7_24
.LBB7_24:                               @ =>This Inner Loop Header: Depth=1
.Ltmp118:
	.loc	2 304 12 is_stmt 0              @ rt-thread/components/drivers/wlan/wlan_cfg.c:304:12
	ldr	r0, [sp, #8]
.Ltmp119:
	.loc	2 304 5                         @ rt-thread/components/drivers/wlan/wlan_cfg.c:304:5
	cbz	r0, .LBB7_27
	b	.LBB7_25
.LBB7_25:                               @   in Loop: Header=BB7_24 Depth=1
.Ltmp120:
	.loc	2 306 9 is_stmt 1               @ rt-thread/components/drivers/wlan/wlan_cfg.c:306:9
	movw	r0, :lower16:cfg_cache
	movt	r0, :upper16:cfg_cache
	ldr	r0, [r0]
	.loc	2 306 20 is_stmt 0              @ rt-thread/components/drivers/wlan/wlan_cfg.c:306:20
	ldr	r0, [r0, #4]
	.loc	2 306 29                        @ rt-thread/components/drivers/wlan/wlan_cfg.c:306:29
	ldr	r1, [sp, #8]
	.loc	2 306 9                         @ rt-thread/components/drivers/wlan/wlan_cfg.c:306:9
	add.w	r1, r1, r1, lsl #1
	add.w	r0, r0, r1, lsl #5
	.loc	2 306 34                        @ rt-thread/components/drivers/wlan/wlan_cfg.c:306:34
	sub.w	r1, r0, #96
	movs	r2, #96
	bl	__aeabi_memcpy4
	.loc	2 307 5 is_stmt 1               @ rt-thread/components/drivers/wlan/wlan_cfg.c:307:5
	b	.LBB7_26
.Ltmp121:
.LBB7_26:                               @   in Loop: Header=BB7_24 Depth=1
	.loc	2 304 16                        @ rt-thread/components/drivers/wlan/wlan_cfg.c:304:16
	ldr	r0, [sp, #8]
	subs	r0, #1
	str	r0, [sp, #8]
	.loc	2 304 5 is_stmt 0               @ rt-thread/components/drivers/wlan/wlan_cfg.c:304:5
	b	.LBB7_24
.Ltmp122:
.LBB7_27:
	.loc	2 309 5 is_stmt 1               @ rt-thread/components/drivers/wlan/wlan_cfg.c:309:5
	movw	r0, :lower16:cfg_cache
	movt	r0, :upper16:cfg_cache
	ldr	r0, [r0]
	.loc	2 309 16 is_stmt 0              @ rt-thread/components/drivers/wlan/wlan_cfg.c:309:16
	ldr	r0, [r0, #4]
	.loc	2 309 25                        @ rt-thread/components/drivers/wlan/wlan_cfg.c:309:25
	ldr	r1, [sp, #8]
	.loc	2 309 5                         @ rt-thread/components/drivers/wlan/wlan_cfg.c:309:5
	add.w	r1, r1, r1, lsl #1
	add.w	r0, r0, r1, lsl #5
	.loc	2 309 31                        @ rt-thread/components/drivers/wlan/wlan_cfg.c:309:31
	ldr	r1, [sp, #24]
	movs	r2, #96
	.loc	2 309 30                        @ rt-thread/components/drivers/wlan/wlan_cfg.c:309:30
	bl	__aeabi_memcpy4
	.loc	2 310 5 is_stmt 1               @ rt-thread/components/drivers/wlan/wlan_cfg.c:310:5
	movw	r0, :lower16:cfg_mutex
	movt	r0, :upper16:cfg_mutex
	bl	rt_mutex_release
	.loc	2 313 11                        @ rt-thread/components/drivers/wlan/wlan_cfg.c:313:11
	bl	rt_wlan_cfg_cache_save
	.loc	2 313 9 is_stmt 0               @ rt-thread/components/drivers/wlan/wlan_cfg.c:313:9
	str	r0, [sp, #20]
	.loc	2 315 12 is_stmt 1              @ rt-thread/components/drivers/wlan/wlan_cfg.c:315:12
	ldr	r0, [sp, #20]
	.loc	2 315 5 is_stmt 0               @ rt-thread/components/drivers/wlan/wlan_cfg.c:315:5
	str	r0, [sp, #28]
	b	.LBB7_28
.LBB7_28:
	.loc	2 316 1 is_stmt 1               @ rt-thread/components/drivers/wlan/wlan_cfg.c:316:1
	ldr	r0, [sp, #28]
	add	sp, #32
	pop	{r7, pc}
.Ltmp123:
.Lfunc_end7:
	.size	rt_wlan_cfg_save, .Lfunc_end7-rt_wlan_cfg_save
	.cfi_endproc
	.cantunwind
	.fnend
                                        @ -- End function
	.section	.text.rt_wlan_cfg_read_index,"ax",%progbits
	.hidden	rt_wlan_cfg_read_index          @ -- Begin function rt_wlan_cfg_read_index
	.globl	rt_wlan_cfg_read_index
	.p2align	3
	.type	rt_wlan_cfg_read_index,%function
	.code	16                              @ @rt_wlan_cfg_read_index
	.thumb_func
rt_wlan_cfg_read_index:
.Lfunc_begin8:
	.loc	2 319 0                         @ rt-thread/components/drivers/wlan/wlan_cfg.c:319:0
	.fnstart
	.cfi_startproc
@ %bb.0:
	.save	{r7, lr}
	push	{r7, lr}
	.cfi_def_cfa_offset 8
	.cfi_offset lr, -4
	.cfi_offset r7, -8
	.pad	#16
	sub	sp, #16
	.cfi_def_cfa_offset 24
	str	r0, [sp, #8]
	str	r1, [sp, #4]
.Ltmp124:
	.loc	2 320 5 prologue_end            @ rt-thread/components/drivers/wlan/wlan_cfg.c:320:5
	bl	rt_wlan_cfg_init
.Ltmp125:
	.loc	2 322 10                        @ rt-thread/components/drivers/wlan/wlan_cfg.c:322:10
	ldr	r0, [sp, #8]
	.loc	2 322 31 is_stmt 0              @ rt-thread/components/drivers/wlan/wlan_cfg.c:322:31
	cbz	r0, .LBB8_2
	b	.LBB8_1
.LBB8_1:
	.loc	2 322 35                        @ rt-thread/components/drivers/wlan/wlan_cfg.c:322:35
	ldr	r0, [sp, #4]
.Ltmp126:
	.loc	2 322 9                         @ rt-thread/components/drivers/wlan/wlan_cfg.c:322:9
	cmp.w	r0, #-1
	bgt	.LBB8_3
	b	.LBB8_2
.LBB8_2:
	.loc	2 0 9                           @ rt-thread/components/drivers/wlan/wlan_cfg.c:0:9
	movs	r0, #0
.Ltmp127:
	.loc	2 323 9 is_stmt 1               @ rt-thread/components/drivers/wlan/wlan_cfg.c:323:9
	str	r0, [sp, #12]
	b	.LBB8_6
.Ltmp128:
.LBB8_3:
	.loc	2 325 5                         @ rt-thread/components/drivers/wlan/wlan_cfg.c:325:5
	movw	r0, :lower16:cfg_mutex
	movt	r0, :upper16:cfg_mutex
	mov.w	r1, #-1
	bl	rt_mutex_take
.Ltmp129:
	.loc	2 326 9                         @ rt-thread/components/drivers/wlan/wlan_cfg.c:326:9
	ldr	r0, [sp, #4]
	.loc	2 326 18 is_stmt 0              @ rt-thread/components/drivers/wlan/wlan_cfg.c:326:18
	movw	r1, :lower16:cfg_cache
	movt	r1, :upper16:cfg_cache
	ldr	r1, [r1]
	.loc	2 326 29                        @ rt-thread/components/drivers/wlan/wlan_cfg.c:326:29
	ldr	r1, [r1]
.Ltmp130:
	.loc	2 326 9                         @ rt-thread/components/drivers/wlan/wlan_cfg.c:326:9
	cmp	r0, r1
	blo	.LBB8_5
	b	.LBB8_4
.LBB8_4:
.Ltmp131:
	.loc	2 328 9 is_stmt 1               @ rt-thread/components/drivers/wlan/wlan_cfg.c:328:9
	movw	r0, :lower16:cfg_mutex
	movt	r0, :upper16:cfg_mutex
	bl	rt_mutex_release
	movs	r0, #0
	.loc	2 329 9                         @ rt-thread/components/drivers/wlan/wlan_cfg.c:329:9
	str	r0, [sp, #12]
	b	.LBB8_6
.Ltmp132:
.LBB8_5:
	.loc	2 332 6                         @ rt-thread/components/drivers/wlan/wlan_cfg.c:332:6
	ldr	r0, [sp, #8]
	.loc	2 332 17 is_stmt 0              @ rt-thread/components/drivers/wlan/wlan_cfg.c:332:17
	movw	r1, :lower16:cfg_cache
	movt	r1, :upper16:cfg_cache
	ldr	r1, [r1]
	.loc	2 332 28                        @ rt-thread/components/drivers/wlan/wlan_cfg.c:332:28
	ldr	r1, [r1, #4]
	.loc	2 332 37                        @ rt-thread/components/drivers/wlan/wlan_cfg.c:332:37
	ldr	r2, [sp, #4]
	.loc	2 332 17                        @ rt-thread/components/drivers/wlan/wlan_cfg.c:332:17
	add.w	r2, r2, r2, lsl #1
	add.w	r1, r1, r2, lsl #5
	movs	r2, #96
	bl	__aeabi_memcpy4
	.loc	2 333 5 is_stmt 1               @ rt-thread/components/drivers/wlan/wlan_cfg.c:333:5
	movw	r0, :lower16:cfg_mutex
	movt	r0, :upper16:cfg_mutex
	bl	rt_mutex_release
	movs	r0, #1
	.loc	2 334 5                         @ rt-thread/components/drivers/wlan/wlan_cfg.c:334:5
	str	r0, [sp, #12]
	b	.LBB8_6
.LBB8_6:
	.loc	2 335 1                         @ rt-thread/components/drivers/wlan/wlan_cfg.c:335:1
	ldr	r0, [sp, #12]
	add	sp, #16
	pop	{r7, pc}
.Ltmp133:
.Lfunc_end8:
	.size	rt_wlan_cfg_read_index, .Lfunc_end8-rt_wlan_cfg_read_index
	.cfi_endproc
	.cantunwind
	.fnend
                                        @ -- End function
	.section	.text.rt_wlan_cfg_delete_index,"ax",%progbits
	.hidden	rt_wlan_cfg_delete_index        @ -- Begin function rt_wlan_cfg_delete_index
	.globl	rt_wlan_cfg_delete_index
	.p2align	3
	.type	rt_wlan_cfg_delete_index,%function
	.code	16                              @ @rt_wlan_cfg_delete_index
	.thumb_func
rt_wlan_cfg_delete_index:
.Lfunc_begin9:
	.loc	2 338 0                         @ rt-thread/components/drivers/wlan/wlan_cfg.c:338:0
	.fnstart
	.cfi_startproc
@ %bb.0:
	.save	{r7, lr}
	push	{r7, lr}
	.cfi_def_cfa_offset 8
	.cfi_offset lr, -4
	.cfi_offset r7, -8
	.pad	#24
	sub	sp, #24
	.cfi_def_cfa_offset 32
	str	r0, [sp, #16]
.Ltmp134:
	.loc	2 342 5 prologue_end            @ rt-thread/components/drivers/wlan/wlan_cfg.c:342:5
	bl	rt_wlan_cfg_init
.Ltmp135:
	.loc	2 344 9                         @ rt-thread/components/drivers/wlan/wlan_cfg.c:344:9
	ldr	r0, [sp, #16]
.Ltmp136:
	.loc	2 344 9 is_stmt 0               @ rt-thread/components/drivers/wlan/wlan_cfg.c:344:9
	cmp.w	r0, #-1
	bgt	.LBB9_2
	b	.LBB9_1
.LBB9_1:
	.loc	2 0 9                           @ rt-thread/components/drivers/wlan/wlan_cfg.c:0:9
	mov.w	r0, #-1
.Ltmp137:
	.loc	2 345 9 is_stmt 1               @ rt-thread/components/drivers/wlan/wlan_cfg.c:345:9
	str	r0, [sp, #20]
	b	.LBB9_16
.Ltmp138:
.LBB9_2:
	.loc	2 347 5                         @ rt-thread/components/drivers/wlan/wlan_cfg.c:347:5
	movw	r0, :lower16:cfg_mutex
	movt	r0, :upper16:cfg_mutex
	mov.w	r1, #-1
	bl	rt_mutex_take
.Ltmp139:
	.loc	2 348 9                         @ rt-thread/components/drivers/wlan/wlan_cfg.c:348:9
	ldr	r0, [sp, #16]
	.loc	2 348 18 is_stmt 0              @ rt-thread/components/drivers/wlan/wlan_cfg.c:348:18
	movw	r1, :lower16:cfg_cache
	movt	r1, :upper16:cfg_cache
	ldr	r1, [r1]
	.loc	2 348 29                        @ rt-thread/components/drivers/wlan/wlan_cfg.c:348:29
	ldr	r1, [r1]
.Ltmp140:
	.loc	2 348 9                         @ rt-thread/components/drivers/wlan/wlan_cfg.c:348:9
	cmp	r0, r1
	blo	.LBB9_4
	b	.LBB9_3
.LBB9_3:
.Ltmp141:
	.loc	2 350 9 is_stmt 1               @ rt-thread/components/drivers/wlan/wlan_cfg.c:350:9
	movw	r0, :lower16:cfg_mutex
	movt	r0, :upper16:cfg_mutex
	bl	rt_mutex_release
	mov.w	r0, #-1
	.loc	2 351 9                         @ rt-thread/components/drivers/wlan/wlan_cfg.c:351:9
	str	r0, [sp, #20]
	b	.LBB9_16
.Ltmp142:
.LBB9_4:
	.loc	2 355 61                        @ rt-thread/components/drivers/wlan/wlan_cfg.c:355:61
	movw	r0, :lower16:cfg_cache
	movt	r0, :upper16:cfg_cache
	ldr	r0, [r0]
	.loc	2 355 72 is_stmt 0              @ rt-thread/components/drivers/wlan/wlan_cfg.c:355:72
	ldr	r0, [r0]
	.loc	2 355 76                        @ rt-thread/components/drivers/wlan/wlan_cfg.c:355:76
	add.w	r1, r0, r0, lsl #1
	mvn	r0, #95
	.loc	2 355 58                        @ rt-thread/components/drivers/wlan/wlan_cfg.c:355:58
	add.w	r0, r0, r1, lsl #5
	.loc	2 355 16                        @ rt-thread/components/drivers/wlan/wlan_cfg.c:355:16
	bl	rt_malloc
	.loc	2 355 14                        @ rt-thread/components/drivers/wlan/wlan_cfg.c:355:14
	str	r0, [sp, #12]
.Ltmp143:
	.loc	2 356 9 is_stmt 1               @ rt-thread/components/drivers/wlan/wlan_cfg.c:356:9
	ldr	r0, [sp, #12]
.Ltmp144:
	.loc	2 356 9 is_stmt 0               @ rt-thread/components/drivers/wlan/wlan_cfg.c:356:9
	cbnz	r0, .LBB9_6
	b	.LBB9_5
.LBB9_5:
.Ltmp145:
	.loc	2 358 9 is_stmt 1               @ rt-thread/components/drivers/wlan/wlan_cfg.c:358:9
	movw	r0, :lower16:cfg_mutex
	movt	r0, :upper16:cfg_mutex
	bl	rt_mutex_release
	mov.w	r0, #-1
	.loc	2 359 9                         @ rt-thread/components/drivers/wlan/wlan_cfg.c:359:9
	str	r0, [sp, #20]
	b	.LBB9_16
.Ltmp146:
.LBB9_6:
	.loc	2 0 9 is_stmt 0                 @ rt-thread/components/drivers/wlan/wlan_cfg.c:0:9
	movs	r0, #0
.Ltmp147:
	.loc	2 362 12 is_stmt 1              @ rt-thread/components/drivers/wlan/wlan_cfg.c:362:12
	str	r0, [sp, #8]
	.loc	2 362 10 is_stmt 0              @ rt-thread/components/drivers/wlan/wlan_cfg.c:362:10
	b	.LBB9_7
.LBB9_7:                                @ =>This Inner Loop Header: Depth=1
.Ltmp148:
	.loc	2 362 17                        @ rt-thread/components/drivers/wlan/wlan_cfg.c:362:17
	ldr	r0, [sp, #8]
	.loc	2 362 21                        @ rt-thread/components/drivers/wlan/wlan_cfg.c:362:21
	movw	r1, :lower16:cfg_cache
	movt	r1, :upper16:cfg_cache
	ldr	r1, [r1]
	.loc	2 362 32                        @ rt-thread/components/drivers/wlan/wlan_cfg.c:362:32
	ldr	r1, [r1]
.Ltmp149:
	.loc	2 362 5                         @ rt-thread/components/drivers/wlan/wlan_cfg.c:362:5
	cmp	r0, r1
	bhs	.LBB9_15
	b	.LBB9_8
.LBB9_8:                                @   in Loop: Header=BB9_7 Depth=1
.Ltmp150:
	.loc	2 364 13 is_stmt 1              @ rt-thread/components/drivers/wlan/wlan_cfg.c:364:13
	ldr	r0, [sp, #8]
	.loc	2 364 17 is_stmt 0              @ rt-thread/components/drivers/wlan/wlan_cfg.c:364:17
	ldr	r1, [sp, #16]
.Ltmp151:
	.loc	2 364 13                        @ rt-thread/components/drivers/wlan/wlan_cfg.c:364:13
	cmp	r0, r1
	bge	.LBB9_10
	b	.LBB9_9
.LBB9_9:                                @   in Loop: Header=BB9_7 Depth=1
.Ltmp152:
	.loc	2 366 13 is_stmt 1              @ rt-thread/components/drivers/wlan/wlan_cfg.c:366:13
	ldr	r0, [sp, #12]
	.loc	2 366 22 is_stmt 0              @ rt-thread/components/drivers/wlan/wlan_cfg.c:366:22
	ldr	r1, [sp, #8]
	.loc	2 366 13                        @ rt-thread/components/drivers/wlan/wlan_cfg.c:366:13
	add.w	r2, r1, r1, lsl #1
	add.w	r0, r0, r2, lsl #5
	.loc	2 366 27                        @ rt-thread/components/drivers/wlan/wlan_cfg.c:366:27
	movw	r1, :lower16:cfg_cache
	movt	r1, :upper16:cfg_cache
	ldr	r1, [r1]
	.loc	2 366 38                        @ rt-thread/components/drivers/wlan/wlan_cfg.c:366:38
	ldr	r1, [r1, #4]
	.loc	2 366 27                        @ rt-thread/components/drivers/wlan/wlan_cfg.c:366:27
	add.w	r1, r1, r2, lsl #5
	movs	r2, #96
	bl	__aeabi_memcpy4
	.loc	2 367 9 is_stmt 1               @ rt-thread/components/drivers/wlan/wlan_cfg.c:367:9
	b	.LBB9_13
.Ltmp153:
.LBB9_10:                               @   in Loop: Header=BB9_7 Depth=1
	.loc	2 368 18                        @ rt-thread/components/drivers/wlan/wlan_cfg.c:368:18
	ldr	r0, [sp, #8]
	.loc	2 368 22 is_stmt 0              @ rt-thread/components/drivers/wlan/wlan_cfg.c:368:22
	ldr	r1, [sp, #16]
.Ltmp154:
	.loc	2 368 18                        @ rt-thread/components/drivers/wlan/wlan_cfg.c:368:18
	cmp	r0, r1
	ble	.LBB9_12
	b	.LBB9_11
.LBB9_11:                               @   in Loop: Header=BB9_7 Depth=1
.Ltmp155:
	.loc	2 370 13 is_stmt 1              @ rt-thread/components/drivers/wlan/wlan_cfg.c:370:13
	ldr	r0, [sp, #12]
	.loc	2 370 22 is_stmt 0              @ rt-thread/components/drivers/wlan/wlan_cfg.c:370:22
	ldr	r1, [sp, #8]
	.loc	2 370 24                        @ rt-thread/components/drivers/wlan/wlan_cfg.c:370:24
	add.w	r2, r1, r1, lsl #1
	.loc	2 370 13                        @ rt-thread/components/drivers/wlan/wlan_cfg.c:370:13
	add.w	r0, r0, r2, lsl #5
	subs	r0, #96
	.loc	2 370 31                        @ rt-thread/components/drivers/wlan/wlan_cfg.c:370:31
	movw	r1, :lower16:cfg_cache
	movt	r1, :upper16:cfg_cache
	ldr	r1, [r1]
	.loc	2 370 42                        @ rt-thread/components/drivers/wlan/wlan_cfg.c:370:42
	ldr	r1, [r1, #4]
	.loc	2 370 31                        @ rt-thread/components/drivers/wlan/wlan_cfg.c:370:31
	add.w	r1, r1, r2, lsl #5
	movs	r2, #96
	bl	__aeabi_memcpy4
	.loc	2 371 9 is_stmt 1               @ rt-thread/components/drivers/wlan/wlan_cfg.c:371:9
	b	.LBB9_12
.Ltmp156:
.LBB9_12:                               @   in Loop: Header=BB9_7 Depth=1
	.loc	2 0 9 is_stmt 0                 @ rt-thread/components/drivers/wlan/wlan_cfg.c:0:9
	b	.LBB9_13
.LBB9_13:                               @   in Loop: Header=BB9_7 Depth=1
	.loc	2 372 5 is_stmt 1               @ rt-thread/components/drivers/wlan/wlan_cfg.c:372:5
	b	.LBB9_14
.Ltmp157:
.LBB9_14:                               @   in Loop: Header=BB9_7 Depth=1
	.loc	2 362 38                        @ rt-thread/components/drivers/wlan/wlan_cfg.c:362:38
	ldr	r0, [sp, #8]
	adds	r0, #1
	str	r0, [sp, #8]
	.loc	2 362 5 is_stmt 0               @ rt-thread/components/drivers/wlan/wlan_cfg.c:362:5
	b	.LBB9_7
.Ltmp158:
.LBB9_15:
	.loc	2 373 13 is_stmt 1              @ rt-thread/components/drivers/wlan/wlan_cfg.c:373:13
	movw	r0, :lower16:cfg_cache
	movt	r0, :upper16:cfg_cache
	str	r0, [sp, #4]                    @ 4-byte Spill
	ldr	r0, [r0]
	.loc	2 373 24 is_stmt 0              @ rt-thread/components/drivers/wlan/wlan_cfg.c:373:24
	ldr	r0, [r0, #4]
	.loc	2 373 5                         @ rt-thread/components/drivers/wlan/wlan_cfg.c:373:5
	bl	rt_free
	ldr	r0, [sp, #4]                    @ 4-byte Reload
	.loc	2 374 27 is_stmt 1              @ rt-thread/components/drivers/wlan/wlan_cfg.c:374:27
	ldr	r1, [sp, #12]
	.loc	2 374 5 is_stmt 0               @ rt-thread/components/drivers/wlan/wlan_cfg.c:374:5
	ldr	r2, [r0]
	.loc	2 374 25                        @ rt-thread/components/drivers/wlan/wlan_cfg.c:374:25
	str	r1, [r2, #4]
	.loc	2 375 5 is_stmt 1               @ rt-thread/components/drivers/wlan/wlan_cfg.c:375:5
	ldr	r1, [r0]
	.loc	2 375 20 is_stmt 0              @ rt-thread/components/drivers/wlan/wlan_cfg.c:375:20
	ldr	r0, [r1]
	subs	r0, #1
	str	r0, [r1]
	.loc	2 376 5 is_stmt 1               @ rt-thread/components/drivers/wlan/wlan_cfg.c:376:5
	movw	r0, :lower16:cfg_mutex
	movt	r0, :upper16:cfg_mutex
	bl	rt_mutex_release
	movs	r0, #0
	.loc	2 378 5                         @ rt-thread/components/drivers/wlan/wlan_cfg.c:378:5
	str	r0, [sp, #20]
	b	.LBB9_16
.LBB9_16:
	.loc	2 379 1                         @ rt-thread/components/drivers/wlan/wlan_cfg.c:379:1
	ldr	r0, [sp, #20]
	add	sp, #24
	pop	{r7, pc}
.Ltmp159:
.Lfunc_end9:
	.size	rt_wlan_cfg_delete_index, .Lfunc_end9-rt_wlan_cfg_delete_index
	.cfi_endproc
	.cantunwind
	.fnend
                                        @ -- End function
	.section	.text.rt_wlan_cfg_delete_all,"ax",%progbits
	.hidden	rt_wlan_cfg_delete_all          @ -- Begin function rt_wlan_cfg_delete_all
	.globl	rt_wlan_cfg_delete_all
	.p2align	3
	.type	rt_wlan_cfg_delete_all,%function
	.code	16                              @ @rt_wlan_cfg_delete_all
	.thumb_func
rt_wlan_cfg_delete_all:
.Lfunc_begin10:
	.loc	2 382 0                         @ rt-thread/components/drivers/wlan/wlan_cfg.c:382:0
	.fnstart
	.cfi_startproc
@ %bb.0:
	.save	{r7, lr}
	push	{r7, lr}
	.cfi_def_cfa_offset 8
	.cfi_offset lr, -4
	.cfi_offset r7, -8
	.pad	#16
	sub	sp, #16
	.cfi_def_cfa_offset 24
.Ltmp160:
	.loc	2 383 5 prologue_end            @ rt-thread/components/drivers/wlan/wlan_cfg.c:383:5
	bl	rt_wlan_cfg_init
	.loc	2 386 5                         @ rt-thread/components/drivers/wlan/wlan_cfg.c:386:5
	movw	r0, :lower16:cfg_mutex
	movt	r0, :upper16:cfg_mutex
	str	r0, [sp, #12]                   @ 4-byte Spill
	mov.w	r1, #-1
	bl	rt_mutex_take
	.loc	2 387 5                         @ rt-thread/components/drivers/wlan/wlan_cfg.c:387:5
	movw	r0, :lower16:cfg_cache
	movt	r0, :upper16:cfg_cache
	str	r0, [sp, #4]                    @ 4-byte Spill
	ldr	r2, [r0]
	movs	r1, #0
	.loc	2 387 20 is_stmt 0              @ rt-thread/components/drivers/wlan/wlan_cfg.c:387:20
	str	r1, [sp, #8]                    @ 4-byte Spill
	str	r1, [r2]
	.loc	2 388 13 is_stmt 1              @ rt-thread/components/drivers/wlan/wlan_cfg.c:388:13
	ldr	r0, [r0]
	.loc	2 388 24 is_stmt 0              @ rt-thread/components/drivers/wlan/wlan_cfg.c:388:24
	ldr	r0, [r0, #4]
	.loc	2 388 5                         @ rt-thread/components/drivers/wlan/wlan_cfg.c:388:5
	bl	rt_free
	ldr	r2, [sp, #4]                    @ 4-byte Reload
	ldr	r1, [sp, #8]                    @ 4-byte Reload
	ldr	r0, [sp, #12]                   @ 4-byte Reload
	.loc	2 389 5 is_stmt 1               @ rt-thread/components/drivers/wlan/wlan_cfg.c:389:5
	ldr	r2, [r2]
	.loc	2 389 25 is_stmt 0              @ rt-thread/components/drivers/wlan/wlan_cfg.c:389:25
	str	r1, [r2, #4]
	.loc	2 390 5 is_stmt 1               @ rt-thread/components/drivers/wlan/wlan_cfg.c:390:5
	bl	rt_mutex_release
	.loc	2 391 1                         @ rt-thread/components/drivers/wlan/wlan_cfg.c:391:1
	add	sp, #16
	pop	{r7, pc}
.Ltmp161:
.Lfunc_end10:
	.size	rt_wlan_cfg_delete_all, .Lfunc_end10-rt_wlan_cfg_delete_all
	.cfi_endproc
	.cantunwind
	.fnend
                                        @ -- End function
	.section	.text.rt_wlan_cfg_dump,"ax",%progbits
	.hidden	rt_wlan_cfg_dump                @ -- Begin function rt_wlan_cfg_dump
	.globl	rt_wlan_cfg_dump
	.p2align	3
	.type	rt_wlan_cfg_dump,%function
	.code	16                              @ @rt_wlan_cfg_dump
	.thumb_func
rt_wlan_cfg_dump:
.Lfunc_begin11:
	.loc	2 394 0                         @ rt-thread/components/drivers/wlan/wlan_cfg.c:394:0
	.fnstart
	.cfi_startproc
@ %bb.0:
	.save	{r4, lr}
	push	{r4, lr}
	.cfi_def_cfa_offset 8
	.cfi_offset lr, -4
	.cfi_offset r4, -8
	.pad	#40
	sub	sp, #40
	.cfi_def_cfa_offset 48
	movs	r0, #0
.Ltmp162:
	.loc	2 395 9 prologue_end            @ rt-thread/components/drivers/wlan/wlan_cfg.c:395:9
	str	r0, [sp, #20]                   @ 4-byte Spill
	str	r0, [sp, #36]
	.loc	2 400 5                         @ rt-thread/components/drivers/wlan/wlan_cfg.c:400:5
	bl	rt_wlan_cfg_init
	.loc	2 402 5                         @ rt-thread/components/drivers/wlan/wlan_cfg.c:402:5
	movw	r0, :lower16:.L.str.1
	movt	r0, :upper16:.L.str.1
	bl	rt_kprintf
	.loc	2 403 5                         @ rt-thread/components/drivers/wlan/wlan_cfg.c:403:5
	movw	r0, :lower16:.L.str.2
	movt	r0, :upper16:.L.str.2
	bl	rt_kprintf
	ldr	r0, [sp, #20]                   @ 4-byte Reload
.Ltmp163:
	.loc	2 404 16                        @ rt-thread/components/drivers/wlan/wlan_cfg.c:404:16
	str	r0, [sp, #36]
	.loc	2 404 10 is_stmt 0              @ rt-thread/components/drivers/wlan/wlan_cfg.c:404:10
	b	.LBB11_1
.LBB11_1:                               @ =>This Inner Loop Header: Depth=1
.Ltmp164:
	.loc	2 404 21                        @ rt-thread/components/drivers/wlan/wlan_cfg.c:404:21
	ldr	r0, [sp, #36]
	.loc	2 404 29                        @ rt-thread/components/drivers/wlan/wlan_cfg.c:404:29
	movw	r1, :lower16:cfg_cache
	movt	r1, :upper16:cfg_cache
	ldr	r1, [r1]
	.loc	2 404 40                        @ rt-thread/components/drivers/wlan/wlan_cfg.c:404:40
	ldr	r1, [r1]
.Ltmp165:
	.loc	2 404 5                         @ rt-thread/components/drivers/wlan/wlan_cfg.c:404:5
	cmp	r0, r1
	bhs.w	.LBB11_31
	b	.LBB11_2
.LBB11_2:                               @   in Loop: Header=BB11_1 Depth=1
.Ltmp166:
	.loc	2 406 17 is_stmt 1              @ rt-thread/components/drivers/wlan/wlan_cfg.c:406:17
	movw	r0, :lower16:cfg_cache
	movt	r0, :upper16:cfg_cache
	ldr	r1, [r0]
	.loc	2 406 28 is_stmt 0              @ rt-thread/components/drivers/wlan/wlan_cfg.c:406:28
	ldr	r1, [r1, #4]
	.loc	2 406 37                        @ rt-thread/components/drivers/wlan/wlan_cfg.c:406:37
	ldr	r2, [sp, #36]
	.loc	2 406 17                        @ rt-thread/components/drivers/wlan/wlan_cfg.c:406:17
	add.w	r2, r2, r2, lsl #1
	add.w	r1, r1, r2, lsl #5
	.loc	2 406 14                        @ rt-thread/components/drivers/wlan/wlan_cfg.c:406:14
	str	r1, [sp, #32]
	.loc	2 407 16 is_stmt 1              @ rt-thread/components/drivers/wlan/wlan_cfg.c:407:16
	ldr	r0, [r0]
	.loc	2 407 27 is_stmt 0              @ rt-thread/components/drivers/wlan/wlan_cfg.c:407:27
	ldr	r0, [r0, #4]
	.loc	2 407 36                        @ rt-thread/components/drivers/wlan/wlan_cfg.c:407:36
	ldr	r1, [sp, #36]
	.loc	2 407 16                        @ rt-thread/components/drivers/wlan/wlan_cfg.c:407:16
	add.w	r1, r1, r1, lsl #1
	add.w	r0, r0, r1, lsl #5
	.loc	2 407 43                        @ rt-thread/components/drivers/wlan/wlan_cfg.c:407:43
	adds	r0, #60
	.loc	2 407 13                        @ rt-thread/components/drivers/wlan/wlan_cfg.c:407:13
	str	r0, [sp, #28]
.Ltmp167:
	.loc	2 409 13 is_stmt 1              @ rt-thread/components/drivers/wlan/wlan_cfg.c:409:13
	ldr	r0, [sp, #32]
	.loc	2 409 24 is_stmt 0              @ rt-thread/components/drivers/wlan/wlan_cfg.c:409:24
	ldrb	r0, [r0, #16]
.Ltmp168:
	.loc	2 409 13                        @ rt-thread/components/drivers/wlan/wlan_cfg.c:409:13
	cbz	r0, .LBB11_4
	b	.LBB11_3
.LBB11_3:                               @   in Loop: Header=BB11_1 Depth=1
.Ltmp169:
	.loc	2 410 37 is_stmt 1              @ rt-thread/components/drivers/wlan/wlan_cfg.c:410:37
	ldr	r0, [sp, #32]
	.loc	2 410 48 is_stmt 0              @ rt-thread/components/drivers/wlan/wlan_cfg.c:410:48
	add.w	r1, r0, #17
	.loc	2 410 13                        @ rt-thread/components/drivers/wlan/wlan_cfg.c:410:13
	movw	r0, :lower16:.L.str.3
	movt	r0, :upper16:.L.str.3
	bl	rt_kprintf
	b	.LBB11_5
.LBB11_4:                               @   in Loop: Header=BB11_1 Depth=1
	.loc	2 412 13 is_stmt 1              @ rt-thread/components/drivers/wlan/wlan_cfg.c:412:13
	movw	r0, :lower16:.L.str.3
	movt	r0, :upper16:.L.str.3
	movw	r1, :lower16:.L.str.4
	movt	r1, :upper16:.L.str.4
	bl	rt_kprintf
	b	.LBB11_5
.Ltmp170:
.LBB11_5:                               @   in Loop: Header=BB11_1 Depth=1
	.loc	2 414 13                        @ rt-thread/components/drivers/wlan/wlan_cfg.c:414:13
	ldr	r0, [sp, #28]
	.loc	2 414 18 is_stmt 0              @ rt-thread/components/drivers/wlan/wlan_cfg.c:414:18
	ldrb	r0, [r0]
.Ltmp171:
	.loc	2 414 13                        @ rt-thread/components/drivers/wlan/wlan_cfg.c:414:13
	cbz	r0, .LBB11_7
	b	.LBB11_6
.LBB11_6:                               @   in Loop: Header=BB11_1 Depth=1
.Ltmp172:
	.loc	2 415 37 is_stmt 1              @ rt-thread/components/drivers/wlan/wlan_cfg.c:415:37
	ldr	r0, [sp, #28]
	.loc	2 415 42 is_stmt 0              @ rt-thread/components/drivers/wlan/wlan_cfg.c:415:42
	adds	r1, r0, #1
	.loc	2 415 13                        @ rt-thread/components/drivers/wlan/wlan_cfg.c:415:13
	movw	r0, :lower16:.L.str.3
	movt	r0, :upper16:.L.str.3
	bl	rt_kprintf
	b	.LBB11_8
.LBB11_7:                               @   in Loop: Header=BB11_1 Depth=1
	.loc	2 417 13 is_stmt 1              @ rt-thread/components/drivers/wlan/wlan_cfg.c:417:13
	movw	r0, :lower16:.L.str.3
	movt	r0, :upper16:.L.str.3
	movw	r1, :lower16:.L.str.4
	movt	r1, :upper16:.L.str.4
	bl	rt_kprintf
	b	.LBB11_8
.Ltmp173:
.LBB11_8:                               @   in Loop: Header=BB11_1 Depth=1
	.loc	2 420 20                        @ rt-thread/components/drivers/wlan/wlan_cfg.c:420:20
	ldr.w	r12, [sp, #32]
	ldrb.w	r1, [r12, #50]
	.loc	2 421 20                        @ rt-thread/components/drivers/wlan/wlan_cfg.c:421:20
	ldrb.w	r2, [r12, #51]
	.loc	2 422 20                        @ rt-thread/components/drivers/wlan/wlan_cfg.c:422:20
	ldrb.w	r3, [r12, #52]
	.loc	2 423 20                        @ rt-thread/components/drivers/wlan/wlan_cfg.c:423:20
	ldrb.w	r0, [r12, #53]
	.loc	2 424 20                        @ rt-thread/components/drivers/wlan/wlan_cfg.c:424:20
	ldrb.w	lr, [r12, #54]
	.loc	2 425 20                        @ rt-thread/components/drivers/wlan/wlan_cfg.c:425:20
	ldrb.w	r4, [r12, #55]
	.loc	2 419 9                         @ rt-thread/components/drivers/wlan/wlan_cfg.c:419:9
	mov	r12, sp
	str.w	r4, [r12, #8]
	str.w	lr, [r12, #4]
	str.w	r0, [r12]
	movw	r0, :lower16:.L.str.5
	movt	r0, :upper16:.L.str.5
	bl	rt_kprintf
	.loc	2 427 17                        @ rt-thread/components/drivers/wlan/wlan_cfg.c:427:17
	ldr	r0, [sp, #32]
	.loc	2 427 23 is_stmt 0              @ rt-thread/components/drivers/wlan/wlan_cfg.c:427:23
	ldr	r0, [r0]
	.loc	2 427 9                         @ rt-thread/components/drivers/wlan/wlan_cfg.c:427:9
	str	r0, [sp, #16]                   @ 4-byte Spill
	cbz	r0, .LBB11_18
	b	.LBB11_9
.LBB11_9:                               @   in Loop: Header=BB11_1 Depth=1
	ldr	r0, [sp, #16]                   @ 4-byte Reload
	cmp	r0, #1
	beq	.LBB11_19
	b	.LBB11_10
.LBB11_10:                              @   in Loop: Header=BB11_1 Depth=1
	.loc	2 0 9                           @ rt-thread/components/drivers/wlan/wlan_cfg.c:0:9
	ldr	r0, [sp, #16]                   @ 4-byte Reload
	movw	r1, #32769
	.loc	2 427 9                         @ rt-thread/components/drivers/wlan/wlan_cfg.c:427:9
	cmp	r0, r1
	beq	.LBB11_20
	b	.LBB11_11
.LBB11_11:                              @   in Loop: Header=BB11_1 Depth=1
	.loc	2 0 9                           @ rt-thread/components/drivers/wlan/wlan_cfg.c:0:9
	ldr	r0, [sp, #16]                   @ 4-byte Reload
	movs	r1, #2
	movt	r1, #32
	.loc	2 427 9                         @ rt-thread/components/drivers/wlan/wlan_cfg.c:427:9
	cmp	r0, r1
	beq	.LBB11_21
	b	.LBB11_12
.LBB11_12:                              @   in Loop: Header=BB11_1 Depth=1
	.loc	2 0 9                           @ rt-thread/components/drivers/wlan/wlan_cfg.c:0:9
	ldr	r0, [sp, #16]                   @ 4-byte Reload
	movs	r1, #4
	movt	r1, #32
	.loc	2 427 9                         @ rt-thread/components/drivers/wlan/wlan_cfg.c:427:9
	cmp	r0, r1
	beq	.LBB11_22
	b	.LBB11_13
.LBB11_13:                              @   in Loop: Header=BB11_1 Depth=1
	.loc	2 0 9                           @ rt-thread/components/drivers/wlan/wlan_cfg.c:0:9
	ldr	r0, [sp, #16]                   @ 4-byte Reload
	movs	r1, #2
	movt	r1, #64
	.loc	2 427 9                         @ rt-thread/components/drivers/wlan/wlan_cfg.c:427:9
	cmp	r0, r1
	beq	.LBB11_24
	b	.LBB11_14
.LBB11_14:                              @   in Loop: Header=BB11_1 Depth=1
	.loc	2 0 9                           @ rt-thread/components/drivers/wlan/wlan_cfg.c:0:9
	ldr	r0, [sp, #16]                   @ 4-byte Reload
	movs	r1, #4
	movt	r1, #64
	.loc	2 427 9                         @ rt-thread/components/drivers/wlan/wlan_cfg.c:427:9
	cmp	r0, r1
	beq	.LBB11_23
	b	.LBB11_15
.LBB11_15:                              @   in Loop: Header=BB11_1 Depth=1
	.loc	2 0 9                           @ rt-thread/components/drivers/wlan/wlan_cfg.c:0:9
	ldr	r0, [sp, #16]                   @ 4-byte Reload
	movs	r1, #6
	movt	r1, #64
	.loc	2 427 9                         @ rt-thread/components/drivers/wlan/wlan_cfg.c:427:9
	cmp	r0, r1
	beq	.LBB11_25
	b	.LBB11_16
.LBB11_16:                              @   in Loop: Header=BB11_1 Depth=1
	ldr	r0, [sp, #16]                   @ 4-byte Reload
	cmp.w	r0, #268435456
	beq	.LBB11_26
	b	.LBB11_17
.LBB11_17:                              @   in Loop: Header=BB11_1 Depth=1
	.loc	2 0 9                           @ rt-thread/components/drivers/wlan/wlan_cfg.c:0:9
	ldr	r0, [sp, #16]                   @ 4-byte Reload
	movs	r1, #4
	movt	r1, #4096
	.loc	2 427 9                         @ rt-thread/components/drivers/wlan/wlan_cfg.c:427:9
	cmp	r0, r1
	beq	.LBB11_27
	b	.LBB11_28
.LBB11_18:                              @   in Loop: Header=BB11_1 Depth=1
.Ltmp174:
	.loc	2 430 22 is_stmt 1              @ rt-thread/components/drivers/wlan/wlan_cfg.c:430:22
	movw	r0, :lower16:.L.str.6
	movt	r0, :upper16:.L.str.6
	str	r0, [sp, #24]
	.loc	2 431 13                        @ rt-thread/components/drivers/wlan/wlan_cfg.c:431:13
	b	.LBB11_29
.LBB11_19:                              @   in Loop: Header=BB11_1 Depth=1
	.loc	2 433 22                        @ rt-thread/components/drivers/wlan/wlan_cfg.c:433:22
	movw	r0, :lower16:.L.str.7
	movt	r0, :upper16:.L.str.7
	str	r0, [sp, #24]
	.loc	2 434 13                        @ rt-thread/components/drivers/wlan/wlan_cfg.c:434:13
	b	.LBB11_29
.LBB11_20:                              @   in Loop: Header=BB11_1 Depth=1
	.loc	2 436 22                        @ rt-thread/components/drivers/wlan/wlan_cfg.c:436:22
	movw	r0, :lower16:.L.str.8
	movt	r0, :upper16:.L.str.8
	str	r0, [sp, #24]
	.loc	2 437 13                        @ rt-thread/components/drivers/wlan/wlan_cfg.c:437:13
	b	.LBB11_29
.LBB11_21:                              @   in Loop: Header=BB11_1 Depth=1
	.loc	2 439 22                        @ rt-thread/components/drivers/wlan/wlan_cfg.c:439:22
	movw	r0, :lower16:.L.str.9
	movt	r0, :upper16:.L.str.9
	str	r0, [sp, #24]
	.loc	2 440 13                        @ rt-thread/components/drivers/wlan/wlan_cfg.c:440:13
	b	.LBB11_29
.LBB11_22:                              @   in Loop: Header=BB11_1 Depth=1
	.loc	2 442 22                        @ rt-thread/components/drivers/wlan/wlan_cfg.c:442:22
	movw	r0, :lower16:.L.str.10
	movt	r0, :upper16:.L.str.10
	str	r0, [sp, #24]
	.loc	2 443 13                        @ rt-thread/components/drivers/wlan/wlan_cfg.c:443:13
	b	.LBB11_29
.LBB11_23:                              @   in Loop: Header=BB11_1 Depth=1
	.loc	2 445 22                        @ rt-thread/components/drivers/wlan/wlan_cfg.c:445:22
	movw	r0, :lower16:.L.str.11
	movt	r0, :upper16:.L.str.11
	str	r0, [sp, #24]
	.loc	2 446 13                        @ rt-thread/components/drivers/wlan/wlan_cfg.c:446:13
	b	.LBB11_29
.LBB11_24:                              @   in Loop: Header=BB11_1 Depth=1
	.loc	2 448 22                        @ rt-thread/components/drivers/wlan/wlan_cfg.c:448:22
	movw	r0, :lower16:.L.str.12
	movt	r0, :upper16:.L.str.12
	str	r0, [sp, #24]
	.loc	2 449 13                        @ rt-thread/components/drivers/wlan/wlan_cfg.c:449:13
	b	.LBB11_29
.LBB11_25:                              @   in Loop: Header=BB11_1 Depth=1
	.loc	2 451 22                        @ rt-thread/components/drivers/wlan/wlan_cfg.c:451:22
	movw	r0, :lower16:.L.str.13
	movt	r0, :upper16:.L.str.13
	str	r0, [sp, #24]
	.loc	2 452 13                        @ rt-thread/components/drivers/wlan/wlan_cfg.c:452:13
	b	.LBB11_29
.LBB11_26:                              @   in Loop: Header=BB11_1 Depth=1
	.loc	2 454 22                        @ rt-thread/components/drivers/wlan/wlan_cfg.c:454:22
	movw	r0, :lower16:.L.str.14
	movt	r0, :upper16:.L.str.14
	str	r0, [sp, #24]
	.loc	2 455 13                        @ rt-thread/components/drivers/wlan/wlan_cfg.c:455:13
	b	.LBB11_29
.LBB11_27:                              @   in Loop: Header=BB11_1 Depth=1
	.loc	2 457 22                        @ rt-thread/components/drivers/wlan/wlan_cfg.c:457:22
	movw	r0, :lower16:.L.str.15
	movt	r0, :upper16:.L.str.15
	str	r0, [sp, #24]
	.loc	2 458 13                        @ rt-thread/components/drivers/wlan/wlan_cfg.c:458:13
	b	.LBB11_29
.LBB11_28:                              @   in Loop: Header=BB11_1 Depth=1
	.loc	2 460 22                        @ rt-thread/components/drivers/wlan/wlan_cfg.c:460:22
	movw	r0, :lower16:.L.str.16
	movt	r0, :upper16:.L.str.16
	str	r0, [sp, #24]
	.loc	2 461 13                        @ rt-thread/components/drivers/wlan/wlan_cfg.c:461:13
	b	.LBB11_29
.Ltmp175:
.LBB11_29:                              @   in Loop: Header=BB11_1 Depth=1
	.loc	2 463 34                        @ rt-thread/components/drivers/wlan/wlan_cfg.c:463:34
	ldr	r1, [sp, #24]
	.loc	2 463 9 is_stmt 0               @ rt-thread/components/drivers/wlan/wlan_cfg.c:463:9
	movw	r0, :lower16:.L.str.17
	movt	r0, :upper16:.L.str.17
	bl	rt_kprintf
	.loc	2 464 33 is_stmt 1              @ rt-thread/components/drivers/wlan/wlan_cfg.c:464:33
	ldr	r0, [sp, #32]
	.loc	2 464 39 is_stmt 0              @ rt-thread/components/drivers/wlan/wlan_cfg.c:464:39
	ldrsh.w	r1, [r0, #12]
	.loc	2 464 9                         @ rt-thread/components/drivers/wlan/wlan_cfg.c:464:9
	movw	r0, :lower16:.L.str.18
	movt	r0, :upper16:.L.str.18
	bl	rt_kprintf
	.loc	2 465 5 is_stmt 1               @ rt-thread/components/drivers/wlan/wlan_cfg.c:465:5
	b	.LBB11_30
.Ltmp176:
.LBB11_30:                              @   in Loop: Header=BB11_1 Depth=1
	.loc	2 404 51                        @ rt-thread/components/drivers/wlan/wlan_cfg.c:404:51
	ldr	r0, [sp, #36]
	adds	r0, #1
	str	r0, [sp, #36]
	.loc	2 404 5 is_stmt 0               @ rt-thread/components/drivers/wlan/wlan_cfg.c:404:5
	b	.LBB11_1
.Ltmp177:
.LBB11_31:
	.loc	2 466 1 is_stmt 1               @ rt-thread/components/drivers/wlan/wlan_cfg.c:466:1
	add	sp, #40
	pop	{r4, pc}
.Ltmp178:
.Lfunc_end11:
	.size	rt_wlan_cfg_dump, .Lfunc_end11-rt_wlan_cfg_dump
	.cfi_endproc
	.cantunwind
	.fnend
                                        @ -- End function
	.type	cfg_cache,%object               @ @cfg_cache
	.section	.bss.cfg_cache,"aw",%nobits
	.p2align	2
cfg_cache:
	.long	0
	.size	cfg_cache, 4

	.type	cfg_mutex,%object               @ @cfg_mutex
	.section	.bss.cfg_mutex,"aw",%nobits
	.p2align	2
cfg_mutex:
	.zero	36
	.size	cfg_mutex, 36

	.type	.L.str,%object                  @ @.str
	.section	.rodata.str1.1,"aMS",%progbits,1
.L.str:
	.asciz	"wlan_cfg"
	.size	.L.str, 9

	.type	cfg_ops,%object                 @ @cfg_ops
	.section	.bss.cfg_ops,"aw",%nobits
	.p2align	2
cfg_ops:
	.long	0
	.size	cfg_ops, 4

	.type	.L.str.1,%object                @ @.str.1
	.section	.rodata.str1.1,"aMS",%progbits,1
.L.str.1:
	.asciz	"             SSID                           PASSWORD                   MAC            security     chn\n"
	.size	.L.str.1, 104

	.type	.L.str.2,%object                @ @.str.2
.L.str.2:
	.asciz	"------------------------------- ------------------------------- -----------------  --------------  ---\n"
	.size	.L.str.2, 104

	.type	.L.str.3,%object                @ @.str.3
.L.str.3:
	.asciz	"%-32.32s"
	.size	.L.str.3, 9

	.type	.L.str.4,%object                @ @.str.4
.L.str.4:
	.asciz	" "
	.size	.L.str.4, 2

	.type	.L.str.5,%object                @ @.str.5
.L.str.5:
	.asciz	"%02x:%02x:%02x:%02x:%02x:%02x  "
	.size	.L.str.5, 32

	.type	.L.str.6,%object                @ @.str.6
.L.str.6:
	.asciz	"OPEN"
	.size	.L.str.6, 5

	.type	.L.str.7,%object                @ @.str.7
.L.str.7:
	.asciz	"WEP_PSK"
	.size	.L.str.7, 8

	.type	.L.str.8,%object                @ @.str.8
.L.str.8:
	.asciz	"WEP_SHARED"
	.size	.L.str.8, 11

	.type	.L.str.9,%object                @ @.str.9
.L.str.9:
	.asciz	"WPA_TKIP_PSK"
	.size	.L.str.9, 13

	.type	.L.str.10,%object               @ @.str.10
.L.str.10:
	.asciz	"WPA_AES_PSK"
	.size	.L.str.10, 12

	.type	.L.str.11,%object               @ @.str.11
.L.str.11:
	.asciz	"WPA2_AES_PSK"
	.size	.L.str.11, 13

	.type	.L.str.12,%object               @ @.str.12
.L.str.12:
	.asciz	"WPA2_TKIP_PSK"
	.size	.L.str.12, 14

	.type	.L.str.13,%object               @ @.str.13
.L.str.13:
	.asciz	"WPA2_MIXED_PSK"
	.size	.L.str.13, 15

	.type	.L.str.14,%object               @ @.str.14
.L.str.14:
	.asciz	"WPS_OPEN"
	.size	.L.str.14, 9

	.type	.L.str.15,%object               @ @.str.15
.L.str.15:
	.asciz	"WPS_SECURE"
	.size	.L.str.15, 11

	.type	.L.str.16,%object               @ @.str.16
.L.str.16:
	.asciz	"UNKNOWN"
	.size	.L.str.16, 8

	.type	.L.str.17,%object               @ @.str.17
.L.str.17:
	.asciz	"%-14.14s  "
	.size	.L.str.17, 11

	.type	.L.str.18,%object               @ @.str.18
.L.str.18:
	.asciz	"%3d    \n"
	.size	.L.str.18, 9

	.section	".note.GNU-stack","",%progbits
	.eabi_attribute	30, 6	@ Tag_ABI_optimization_goals
	.ARM_attribute	16, 1	@ Tag_AV_eba