	.text
	.syntax unified
	.eabi_attribute	67, "2.09"	@ Tag_conformance
	.cpu	cortex-m7
	.eabi_attribute	6, 13	@ Tag_CPU_arch
	.eabi_attribute	7, 77	@ Tag_CPU_arch_profile
	.eabi_attribute	8, 0	@ Tag_ARM_ISA_use
	.eabi_attribute	9, 2	@ Tag_THUMB_ISA_use
	.fpu	fpv5-d16
	.eabi_attribute	36, 1	@ Tag_FP_HP_extension
	.eabi_attribute	34, 1	@ Tag_CPU_unaligned_access
	.eabi_attribute	17, 1	@ Tag_ABI_PCS_GOT_use
	.eabi_attribute	20, 2	@ Tag_ABI_FP_denormal
	.eabi_attribute	21, 0	@ Tag_ABI_FP_exceptions
	.eabi_attribute	23, 1	@ Tag_ABI_FP_number_model
	.eabi_attribute	24, 1	@ Tag_ABI_align_needed
	.eabi_attribute	25, 1	@ Tag_ABI_align_preserved
	.eabi_attribute	28, 1	@ Tag_ABI_VFP_args
	.eabi_attribute	38, 1	@ Tag_ABI_FP_16bit_format
	.eabi_attribute	18, 2	@ Tag_ABI_PCS_wchar_t
	.eabi_attribute	26, 1	@ Tag_ABI_enum_size
	.eabi_attribute	14, 0	@ Tag_ABI_PCS_R9_use
	.file	"wlan_dev.c"
	.file	1 "E:\\Smart-access-control\\Hardware\\CODE" "rt-thread/include\\rtdef.h"
	.file	2 "E:\\Smart-access-control\\Hardware\\CODE" "./rt-thread/components/drivers/wlan\\wlan_dev.h"
	.section	.text.rt_wlan_dev_init,"ax",%progbits
	.hidden	rt_wlan_dev_init                @ -- Begin function rt_wlan_dev_init
	.globl	rt_wlan_dev_init
	.p2align	3
	.type	rt_wlan_dev_init,%function
	.code	16                              @ @rt_wlan_dev_init
	.thumb_func
rt_wlan_dev_init:
.Lfunc_begin0:
	.file	3 "E:\\Smart-access-control\\Hardware\\CODE" "rt-thread/components/drivers/wlan/wlan_dev.c"
	.loc	3 50 0                          @ rt-thread/components/drivers/wlan/wlan_dev.c:50:0
	.fnstart
	.cfi_sections .debug_frame
	.cfi_startproc
@ %bb.0:
	.save	{r7, lr}
	push	{r7, lr}
	.cfi_def_cfa_offset 8
	.cfi_offset lr, -4
	.cfi_offset r7, -8
	.pad	#24
	sub	sp, #24
	.cfi_def_cfa_offset 32
                                        @ kill: def $r2 killed $r1
	str	r0, [sp, #16]
	strb.w	r1, [sp, #15]
	movs	r0, #0
.Ltmp0:
	.loc	3 51 14 prologue_end            @ rt-thread/components/drivers/wlan/wlan_dev.c:51:14
	str	r0, [sp, #8]
.Ltmp1:
	.loc	3 55 10                         @ rt-thread/components/drivers/wlan/wlan_dev.c:55:10
	ldr	r0, [sp, #16]
	.loc	3 55 29 is_stmt 0               @ rt-thread/components/drivers/wlan/wlan_dev.c:55:29
	cbz	r0, .LBB0_2
	b	.LBB0_1
.LBB0_1:
	.loc	3 55 33                         @ rt-thread/components/drivers/wlan/wlan_dev.c:55:33
	ldrb.w	r0, [sp, #15]
.Ltmp2:
	.loc	3 55 9                          @ rt-thread/components/drivers/wlan/wlan_dev.c:55:9
	cmp	r0, #3
	blt	.LBB0_5
	b	.LBB0_2
.LBB0_2:
.Ltmp3:
	.loc	3 57 9 is_stmt 1                @ rt-thread/components/drivers/wlan/wlan_dev.c:57:9
	b	.LBB0_3
.LBB0_3:
.Ltmp4:
	.loc	3 57 9 is_stmt 0                @ rt-thread/components/drivers/wlan/wlan_dev.c:57:9
	movw	r0, :lower16:.L.str
	movt	r0, :upper16:.L.str
	bl	rt_kprintf
	ldr	r3, [sp, #16]
	ldrb.w	r0, [sp, #15]
	mov	r1, sp
	str	r0, [r1]
	movw	r0, :lower16:.L.str.1
	movt	r0, :upper16:.L.str.1
	movw	r1, :lower16:.L__FUNCTION__.rt_wlan_dev_init
	movt	r1, :upper16:.L__FUNCTION__.rt_wlan_dev_init
	movs	r2, #57
	bl	rt_kprintf
	movw	r0, :lower16:.L.str.2
	movt	r0, :upper16:.L.str.2
	bl	rt_kprintf
	b	.LBB0_4
.Ltmp5:
.LBB0_4:
	.loc	3 0 9                           @ rt-thread/components/drivers/wlan/wlan_dev.c:0:9
	mov.w	r0, #-1
	.loc	3 58 9 is_stmt 1                @ rt-thread/components/drivers/wlan/wlan_dev.c:58:9
	str	r0, [sp, #20]
	b	.LBB0_25
.Ltmp6:
.LBB0_5:
	.loc	3 61 9                          @ rt-thread/components/drivers/wlan/wlan_dev.c:61:9
	ldrb.w	r0, [sp, #15]
	.loc	3 61 28 is_stmt 0               @ rt-thread/components/drivers/wlan/wlan_dev.c:61:28
	cmp	r0, #2
	bne	.LBB0_10
	b	.LBB0_6
.LBB0_6:
	.loc	3 61 31                         @ rt-thread/components/drivers/wlan/wlan_dev.c:61:31
	ldr	r0, [sp, #16]
.Ltmp7:
	.loc	3 61 9                          @ rt-thread/components/drivers/wlan/wlan_dev.c:61:9
	ldrb.w	r0, [r0, #308]
	lsls	r0, r0, #31
	cbz	r0, .LBB0_10
	b	.LBB0_7
.LBB0_7:
.Ltmp8:
	.loc	3 63 9 is_stmt 1                @ rt-thread/components/drivers/wlan/wlan_dev.c:63:9
	b	.LBB0_8
.LBB0_8:
.Ltmp9:
	.loc	3 63 9 is_stmt 0                @ rt-thread/components/drivers/wlan/wlan_dev.c:63:9
	movw	r0, :lower16:.L.str
	movt	r0, :upper16:.L.str
	bl	rt_kprintf
	movw	r0, :lower16:.L.str.3
	movt	r0, :upper16:.L.str.3
	movw	r1, :lower16:.L__FUNCTION__.rt_wlan_dev_init
	movt	r1, :upper16:.L__FUNCTION__.rt_wlan_dev_init
	movs	r2, #63
	bl	rt_kprintf
	movw	r0, :lower16:.L.str.2
	movt	r0, :upper16:.L.str.2
	bl	rt_kprintf
	b	.LBB0_9
.Ltmp10:
.LBB0_9:
	.loc	3 0 9                           @ rt-thread/components/drivers/wlan/wlan_dev.c:0:9
	mov.w	r0, #-1
	.loc	3 64 9 is_stmt 1                @ rt-thread/components/drivers/wlan/wlan_dev.c:64:9
	str	r0, [sp, #20]
	b	.LBB0_25
.Ltmp11:
.LBB0_10:
	.loc	3 66 14                         @ rt-thread/components/drivers/wlan/wlan_dev.c:66:14
	ldrb.w	r0, [sp, #15]
	.loc	3 66 38 is_stmt 0               @ rt-thread/components/drivers/wlan/wlan_dev.c:66:38
	cmp	r0, #1
	bne	.LBB0_15
	b	.LBB0_11
.LBB0_11:
	.loc	3 66 41                         @ rt-thread/components/drivers/wlan/wlan_dev.c:66:41
	ldr	r0, [sp, #16]
.Ltmp12:
	.loc	3 66 14                         @ rt-thread/components/drivers/wlan/wlan_dev.c:66:14
	ldrb.w	r0, [r0, #308]
	lsls	r0, r0, #30
	cmp	r0, #0
	bpl	.LBB0_15
	b	.LBB0_12
.LBB0_12:
.Ltmp13:
	.loc	3 68 9 is_stmt 1                @ rt-thread/components/drivers/wlan/wlan_dev.c:68:9
	b	.LBB0_13
.LBB0_13:
.Ltmp14:
	.loc	3 68 9 is_stmt 0                @ rt-thread/components/drivers/wlan/wlan_dev.c:68:9
	movw	r0, :lower16:.L.str
	movt	r0, :upper16:.L.str
	bl	rt_kprintf
	movw	r0, :lower16:.L.str.4
	movt	r0, :upper16:.L.str.4
	movw	r1, :lower16:.L__FUNCTION__.rt_wlan_dev_init
	movt	r1, :upper16:.L__FUNCTION__.rt_wlan_dev_init
	movs	r2, #68
	bl	rt_kprintf
	movw	r0, :lower16:.L.str.2
	movt	r0, :upper16:.L.str.2
	bl	rt_kprintf
	b	.LBB0_14
.Ltmp15:
.LBB0_14:
	.loc	3 0 9                           @ rt-thread/components/drivers/wlan/wlan_dev.c:0:9
	mov.w	r0, #-1
	.loc	3 69 9 is_stmt 1                @ rt-thread/components/drivers/wlan/wlan_dev.c:69:9
	str	r0, [sp, #20]
	b	.LBB0_25
.Ltmp16:
.LBB0_15:
	.loc	3 0 9 is_stmt 0                 @ rt-thread/components/drivers/wlan/wlan_dev.c:0:9
	b	.LBB0_16
.LBB0_16:
	.loc	3 72 29 is_stmt 1               @ rt-thread/components/drivers/wlan/wlan_dev.c:72:29
	ldr	r0, [sp, #16]
	.loc	3 72 14 is_stmt 0               @ rt-thread/components/drivers/wlan/wlan_dev.c:72:14
	bl	rt_device_init
	.loc	3 72 12                         @ rt-thread/components/drivers/wlan/wlan_dev.c:72:12
	str	r0, [sp, #8]
.Ltmp17:
	.loc	3 73 9 is_stmt 1                @ rt-thread/components/drivers/wlan/wlan_dev.c:73:9
	ldr	r0, [sp, #8]
.Ltmp18:
	.loc	3 73 9 is_stmt 0                @ rt-thread/components/drivers/wlan/wlan_dev.c:73:9
	cbz	r0, .LBB0_20
	b	.LBB0_17
.LBB0_17:
.Ltmp19:
	.loc	3 75 9 is_stmt 1                @ rt-thread/components/drivers/wlan/wlan_dev.c:75:9
	b	.LBB0_18
.LBB0_18:
.Ltmp20:
	.loc	3 75 9 is_stmt 0                @ rt-thread/components/drivers/wlan/wlan_dev.c:75:9
	movw	r0, :lower16:.L.str
	movt	r0, :upper16:.L.str
	bl	rt_kprintf
	movw	r0, :lower16:.L.str.5
	movt	r0, :upper16:.L.str.5
	movs	r1, #75
	bl	rt_kprintf
	movw	r0, :lower16:.L.str.2
	movt	r0, :upper16:.L.str.2
	bl	rt_kprintf
	b	.LBB0_19
.Ltmp21:
.LBB0_19:
	.loc	3 0 9                           @ rt-thread/components/drivers/wlan/wlan_dev.c:0:9
	mov.w	r0, #-1
	.loc	3 76 9 is_stmt 1                @ rt-thread/components/drivers/wlan/wlan_dev.c:76:9
	str	r0, [sp, #20]
	b	.LBB0_25
.Ltmp22:
.LBB0_20:
	.loc	3 78 32                         @ rt-thread/components/drivers/wlan/wlan_dev.c:78:32
	ldr	r0, [sp, #16]
	movs	r1, #16
	add.w	r2, sp, #15
	.loc	3 78 14 is_stmt 0               @ rt-thread/components/drivers/wlan/wlan_dev.c:78:14
	bl	rt_device_control
	.loc	3 78 12                         @ rt-thread/components/drivers/wlan/wlan_dev.c:78:12
	str	r0, [sp, #8]
.Ltmp23:
	.loc	3 79 9 is_stmt 1                @ rt-thread/components/drivers/wlan/wlan_dev.c:79:9
	ldr	r0, [sp, #8]
.Ltmp24:
	.loc	3 79 9 is_stmt 0                @ rt-thread/components/drivers/wlan/wlan_dev.c:79:9
	cbz	r0, .LBB0_24
	b	.LBB0_21
.LBB0_21:
.Ltmp25:
	.loc	3 81 9 is_stmt 1                @ rt-thread/components/drivers/wlan/wlan_dev.c:81:9
	b	.LBB0_22
.LBB0_22:
.Ltmp26:
	.loc	3 81 9 is_stmt 0                @ rt-thread/components/drivers/wlan/wlan_dev.c:81:9
	movw	r0, :lower16:.L.str
	movt	r0, :upper16:.L.str
	bl	rt_kprintf
	movw	r0, :lower16:.L.str.6
	movt	r0, :upper16:.L.str.6
	movs	r1, #81
	bl	rt_kprintf
	movw	r0, :lower16:.L.str.2
	movt	r0, :upper16:.L.str.2
	bl	rt_kprintf
	b	.LBB0_23
.Ltmp27:
.LBB0_23:
	.loc	3 0 9                           @ rt-thread/components/drivers/wlan/wlan_dev.c:0:9
	mov.w	r0, #-1
	.loc	3 82 9 is_stmt 1                @ rt-thread/components/drivers/wlan/wlan_dev.c:82:9
	str	r0, [sp, #20]
	b	.LBB0_25
.Ltmp28:
.LBB0_24:
	.loc	3 84 20                         @ rt-thread/components/drivers/wlan/wlan_dev.c:84:20
	ldrb.w	r0, [sp, #15]
	.loc	3 84 5 is_stmt 0                @ rt-thread/components/drivers/wlan/wlan_dev.c:84:5
	ldr	r1, [sp, #16]
	.loc	3 84 18                         @ rt-thread/components/drivers/wlan/wlan_dev.c:84:18
	strb.w	r0, [r1, #80]
	.loc	3 85 12 is_stmt 1               @ rt-thread/components/drivers/wlan/wlan_dev.c:85:12
	ldr	r0, [sp, #8]
	.loc	3 85 5 is_stmt 0                @ rt-thread/components/drivers/wlan/wlan_dev.c:85:5
	str	r0, [sp, #20]
	b	.LBB0_25
.LBB0_25:
	.loc	3 86 1 is_stmt 1                @ rt-thread/components/drivers/wlan/wlan_dev.c:86:1
	ldr	r0, [sp, #20]
	add	sp, #24
	pop	{r7, pc}
.Ltmp29:
.Lfunc_end0:
	.size	rt_wlan_dev_init, .Lfunc_end0-rt_wlan_dev_init
	.cfi_endproc
	.cantunwind
	.fnend
                                        @ -- End function
	.section	.text.rt_wlan_dev_connect,"ax",%progbits
	.hidden	rt_wlan_dev_connect             @ -- Begin function rt_wlan_dev_connect
	.globl	rt_wlan_dev_connect
	.p2align	3
	.type	rt_wlan_dev_connect,%function
	.code	16                              @ @rt_wlan_dev_connect
	.thumb_func
rt_wlan_dev_connect:
.Lfunc_begin1:
	.loc	3 89 0                          @ rt-thread/components/drivers/wlan/wlan_dev.c:89:0
	.fnstart
	.cfi_startproc
@ %bb.0:
	.save	{r7, lr}
	push	{r7, lr}
	.cfi_def_cfa_offset 8
	.cfi_offset lr, -4
	.cfi_offset r7, -8
	.pad	#112
	sub	sp, #112
	.cfi_def_cfa_offset 120
	str	r0, [sp, #104]
	str	r1, [sp, #100]
	str	r2, [sp, #96]
	str	r3, [sp, #92]
	movs	r0, #0
.Ltmp30:
	.loc	3 90 14 prologue_end            @ rt-thread/components/drivers/wlan/wlan_dev.c:90:14
	str	r0, [sp, #88]
.Ltmp31:
	.loc	3 93 9                          @ rt-thread/components/drivers/wlan/wlan_dev.c:93:9
	ldr	r0, [sp, #104]
.Ltmp32:
	.loc	3 93 9 is_stmt 0                @ rt-thread/components/drivers/wlan/wlan_dev.c:93:9
	cbnz	r0, .LBB1_2
	b	.LBB1_1
.LBB1_1:
	.loc	3 0 9                           @ rt-thread/components/drivers/wlan/wlan_dev.c:0:9
	mvn	r0, #7
.Ltmp33:
	.loc	3 95 9 is_stmt 1                @ rt-thread/components/drivers/wlan/wlan_dev.c:95:9
	str	r0, [sp, #108]
	b	.LBB1_12
.Ltmp34:
.LBB1_2:
	.loc	3 97 9                          @ rt-thread/components/drivers/wlan/wlan_dev.c:97:9
	ldr	r0, [sp, #100]
.Ltmp35:
	.loc	3 97 9 is_stmt 0                @ rt-thread/components/drivers/wlan/wlan_dev.c:97:9
	cbnz	r0, .LBB1_4
	b	.LBB1_3
.LBB1_3:
	.loc	3 0 9                           @ rt-thread/components/drivers/wlan/wlan_dev.c:0:9
	mov.w	r0, #-1
.Ltmp36:
	.loc	3 99 9 is_stmt 1                @ rt-thread/components/drivers/wlan/wlan_dev.c:99:9
	str	r0, [sp, #108]
	b	.LBB1_12
.Ltmp37:
.LBB1_4:
	.loc	3 102 10                        @ rt-thread/components/drivers/wlan/wlan_dev.c:102:10
	ldr	r0, [sp, #92]
	.loc	3 102 54 is_stmt 0              @ rt-thread/components/drivers/wlan/wlan_dev.c:102:54
	cmp	r0, #32
	bgt	.LBB1_6
	b	.LBB1_5
.LBB1_5:
	.loc	3 103 14 is_stmt 1              @ rt-thread/components/drivers/wlan/wlan_dev.c:103:14
	ldr	r0, [sp, #100]
	.loc	3 103 25 is_stmt 0              @ rt-thread/components/drivers/wlan/wlan_dev.c:103:25
	ldrb	r0, [r0, #16]
.Ltmp38:
	.loc	3 102 9 is_stmt 1               @ rt-thread/components/drivers/wlan/wlan_dev.c:102:9
	cmp	r0, #33
	blt	.LBB1_9
	b	.LBB1_6
.LBB1_6:
.Ltmp39:
	.loc	3 105 9                         @ rt-thread/components/drivers/wlan/wlan_dev.c:105:9
	b	.LBB1_7
.LBB1_7:
.Ltmp40:
	.loc	3 105 9 is_stmt 0               @ rt-thread/components/drivers/wlan/wlan_dev.c:105:9
	movw	r0, :lower16:.L.str
	movt	r0, :upper16:.L.str
	bl	rt_kprintf
	movw	r0, :lower16:.L.str.7
	movt	r0, :upper16:.L.str.7
	movs	r1, #105
	bl	rt_kprintf
	movw	r0, :lower16:.L.str.2
	movt	r0, :upper16:.L.str.2
	bl	rt_kprintf
	b	.LBB1_8
.Ltmp41:
.LBB1_8:
	.loc	3 0 9                           @ rt-thread/components/drivers/wlan/wlan_dev.c:0:9
	mov.w	r0, #-1
	.loc	3 106 9 is_stmt 1               @ rt-thread/components/drivers/wlan/wlan_dev.c:106:9
	str	r0, [sp, #108]
	b	.LBB1_12
.Ltmp42:
.LBB1_9:
	.loc	3 0 9 is_stmt 0                 @ rt-thread/components/drivers/wlan/wlan_dev.c:0:9
	add	r0, sp, #8
	str	r0, [sp, #4]                    @ 4-byte Spill
	movs	r1, #0
	movs	r2, #80
	.loc	3 108 5 is_stmt 1               @ rt-thread/components/drivers/wlan/wlan_dev.c:108:5
	bl	rt_memset
                                        @ kill: def $r1 killed $r0
	.loc	3 109 32                        @ rt-thread/components/drivers/wlan/wlan_dev.c:109:32
	ldr	r0, [sp, #4]                    @ 4-byte Reload
	ldr	r1, [sp, #100]
	.loc	3 109 38 is_stmt 0              @ rt-thread/components/drivers/wlan/wlan_dev.c:109:38
	adds	r1, #16
	movs	r2, #34
	.loc	3 109 5                         @ rt-thread/components/drivers/wlan/wlan_dev.c:109:5
	bl	rt_memcpy
                                        @ kill: def $r1 killed $r0
	.loc	3 110 24 is_stmt 1              @ rt-thread/components/drivers/wlan/wlan_dev.c:110:24
	ldr	r0, [sp, #4]                    @ 4-byte Reload
	adds	r0, #68
	.loc	3 110 31 is_stmt 0              @ rt-thread/components/drivers/wlan/wlan_dev.c:110:31
	ldr	r1, [sp, #100]
	.loc	3 110 37                        @ rt-thread/components/drivers/wlan/wlan_dev.c:110:37
	adds	r1, #50
	movs	r2, #6
	.loc	3 110 5                         @ rt-thread/components/drivers/wlan/wlan_dev.c:110:5
	bl	rt_memcpy
.Ltmp43:
	.loc	3 111 9 is_stmt 1               @ rt-thread/components/drivers/wlan/wlan_dev.c:111:9
	ldr	r0, [sp, #96]
.Ltmp44:
	.loc	3 111 9 is_stmt 0               @ rt-thread/components/drivers/wlan/wlan_dev.c:111:9
	cbz	r0, .LBB1_11
	b	.LBB1_10
.LBB1_10:
	.loc	3 0 9                           @ rt-thread/components/drivers/wlan/wlan_dev.c:0:9
	add	r0, sp, #8
.Ltmp45:
	.loc	3 113 32 is_stmt 1              @ rt-thread/components/drivers/wlan/wlan_dev.c:113:32
	adds	r0, #35
	.loc	3 113 37 is_stmt 0              @ rt-thread/components/drivers/wlan/wlan_dev.c:113:37
	ldr	r1, [sp, #96]
	.loc	3 113 47                        @ rt-thread/components/drivers/wlan/wlan_dev.c:113:47
	ldr	r2, [sp, #92]
	.loc	3 113 9                         @ rt-thread/components/drivers/wlan/wlan_dev.c:113:9
	bl	rt_memcpy
	.loc	3 114 28 is_stmt 1              @ rt-thread/components/drivers/wlan/wlan_dev.c:114:28
	ldr	r0, [sp, #92]
	.loc	3 114 26 is_stmt 0              @ rt-thread/components/drivers/wlan/wlan_dev.c:114:26
	strb.w	r0, [sp, #42]
	.loc	3 115 5 is_stmt 1               @ rt-thread/components/drivers/wlan/wlan_dev.c:115:5
	b	.LBB1_11
.Ltmp46:
.LBB1_11:
	.loc	3 116 24                        @ rt-thread/components/drivers/wlan/wlan_dev.c:116:24
	ldr	r0, [sp, #100]
	.loc	3 116 30 is_stmt 0              @ rt-thread/components/drivers/wlan/wlan_dev.c:116:30
	ldrh	r0, [r0, #12]
	.loc	3 116 22                        @ rt-thread/components/drivers/wlan/wlan_dev.c:116:22
	strh.w	r0, [sp, #82]
	.loc	3 117 25 is_stmt 1              @ rt-thread/components/drivers/wlan/wlan_dev.c:117:25
	ldr	r0, [sp, #100]
	.loc	3 117 31 is_stmt 0              @ rt-thread/components/drivers/wlan/wlan_dev.c:117:31
	ldr	r0, [r0]
	.loc	3 117 23                        @ rt-thread/components/drivers/wlan/wlan_dev.c:117:23
	str	r0, [sp, #84]
	.loc	3 119 32 is_stmt 1              @ rt-thread/components/drivers/wlan/wlan_dev.c:119:32
	ldr	r0, [sp, #104]
	movs	r1, #18
	add	r2, sp, #8
	.loc	3 119 14 is_stmt 0              @ rt-thread/components/drivers/wlan/wlan_dev.c:119:14
	bl	rt_device_control
	.loc	3 119 12                        @ rt-thread/components/drivers/wlan/wlan_dev.c:119:12
	str	r0, [sp, #88]
	.loc	3 120 12 is_stmt 1              @ rt-thread/components/drivers/wlan/wlan_dev.c:120:12
	ldr	r0, [sp, #88]
	.loc	3 120 5 is_stmt 0               @ rt-thread/components/drivers/wlan/wlan_dev.c:120:5
	str	r0, [sp, #108]
	b	.LBB1_12
.LBB1_12:
	.loc	3 121 1 is_stmt 1               @ rt-thread/components/drivers/wlan/wlan_dev.c:121:1
	ldr	r0, [sp, #108]
	add	sp, #112
	pop	{r7, pc}
.Ltmp47:
.Lfunc_end1:
	.size	rt_wlan_dev_connect, .Lfunc_end1-rt_wlan_dev_connect
	.cfi_endproc
	.cantunwind
	.fnend
                                        @ -- End function
	.section	.text.rt_wlan_dev_disconnect,"ax",%progbits
	.hidden	rt_wlan_dev_disconnect          @ -- Begin function rt_wlan_dev_disconnect
	.globl	rt_wlan_dev_disconnect
	.p2align	3
	.type	rt_wlan_dev_disconnect,%function
	.code	16                              @ @rt_wlan_dev_disconnect
	.thumb_func
rt_wlan_dev_disconnect:
.Lfunc_begin2:
	.loc	3 124 0                         @ rt-thread/components/drivers/wlan/wlan_dev.c:124:0
	.fnstart
	.cfi_startproc
@ %bb.0:
	.save	{r7, lr}
	push	{r7, lr}
	.cfi_def_cfa_offset 8
	.cfi_offset lr, -4
	.cfi_offset r7, -8
	.pad	#16
	sub	sp, #16
	.cfi_def_cfa_offset 24
	str	r0, [sp, #8]
	movs	r0, #0
.Ltmp48:
	.loc	3 125 14 prologue_end           @ rt-thread/components/drivers/wlan/wlan_dev.c:125:14
	str	r0, [sp, #4]
.Ltmp49:
	.loc	3 127 9                         @ rt-thread/components/drivers/wlan/wlan_dev.c:127:9
	ldr	r0, [sp, #8]
.Ltmp50:
	.loc	3 127 9 is_stmt 0               @ rt-thread/components/drivers/wlan/wlan_dev.c:127:9
	cbnz	r0, .LBB2_2
	b	.LBB2_1
.LBB2_1:
	.loc	3 0 9                           @ rt-thread/components/drivers/wlan/wlan_dev.c:0:9
	mvn	r0, #7
.Ltmp51:
	.loc	3 129 9 is_stmt 1               @ rt-thread/components/drivers/wlan/wlan_dev.c:129:9
	str	r0, [sp, #12]
	b	.LBB2_3
.Ltmp52:
.LBB2_2:
	.loc	3 132 32                        @ rt-thread/components/drivers/wlan/wlan_dev.c:132:32
	ldr	r0, [sp, #8]
	movs	r1, #20
	movs	r2, #0
	.loc	3 132 14 is_stmt 0              @ rt-thread/components/drivers/wlan/wlan_dev.c:132:14
	bl	rt_device_control
	.loc	3 132 12                        @ rt-thread/components/drivers/wlan/wlan_dev.c:132:12
	str	r0, [sp, #4]
	.loc	3 133 12 is_stmt 1              @ rt-thread/components/drivers/wlan/wlan_dev.c:133:12
	ldr	r0, [sp, #4]
	.loc	3 133 5 is_stmt 0               @ rt-thread/components/drivers/wlan/wlan_dev.c:133:5
	str	r0, [sp, #12]
	b	.LBB2_3
.LBB2_3:
	.loc	3 134 1 is_stmt 1               @ rt-thread/components/drivers/wlan/wlan_dev.c:134:1
	ldr	r0, [sp, #12]
	add	sp, #16
	pop	{r7, pc}
.Ltmp53:
.Lfunc_end2:
	.size	rt_wlan_dev_disconnect, .Lfunc_end2-rt_wlan_dev_disconnect
	.cfi_endproc
	.cantunwind
	.fnend
                                        @ -- End function
	.section	.text.rt_wlan_dev_ap_start,"ax",%progbits
	.hidden	rt_wlan_dev_ap_start            @ -- Begin function rt_wlan_dev_ap_start
	.globl	rt_wlan_dev_ap_start
	.p2align	3
	.type	rt_wlan_dev_ap_start,%function
	.code	16                              @ @rt_wlan_dev_ap_start
	.thumb_func
rt_wlan_dev_ap_start:
.Lfunc_begin3:
	.loc	3 137 0                         @ rt-thread/components/drivers/wlan/wlan_dev.c:137:0
	.fnstart
	.cfi_startproc
@ %bb.0:
	.save	{r7, lr}
	push	{r7, lr}
	.cfi_def_cfa_offset 8
	.cfi_offset lr, -4
	.cfi_offset r7, -8
	.pad	#112
	sub	sp, #112
	.cfi_def_cfa_offset 120
	str	r0, [sp, #104]
	str	r1, [sp, #100]
	str	r2, [sp, #96]
	str	r3, [sp, #92]
	movs	r0, #0
.Ltmp54:
	.loc	3 138 14 prologue_end           @ rt-thread/components/drivers/wlan/wlan_dev.c:138:14
	str	r0, [sp, #88]
.Ltmp55:
	.loc	3 141 9                         @ rt-thread/components/drivers/wlan/wlan_dev.c:141:9
	ldr	r0, [sp, #104]
.Ltmp56:
	.loc	3 141 9 is_stmt 0               @ rt-thread/components/drivers/wlan/wlan_dev.c:141:9
	cbnz	r0, .LBB3_2
	b	.LBB3_1
.LBB3_1:
	.loc	3 0 9                           @ rt-thread/components/drivers/wlan/wlan_dev.c:0:9
	mvn	r0, #7
.Ltmp57:
	.loc	3 143 9 is_stmt 1               @ rt-thread/components/drivers/wlan/wlan_dev.c:143:9
	str	r0, [sp, #108]
	b	.LBB3_12
.Ltmp58:
.LBB3_2:
	.loc	3 145 9                         @ rt-thread/components/drivers/wlan/wlan_dev.c:145:9
	ldr	r0, [sp, #100]
.Ltmp59:
	.loc	3 145 9 is_stmt 0               @ rt-thread/components/drivers/wlan/wlan_dev.c:145:9
	cbnz	r0, .LBB3_4
	b	.LBB3_3
.LBB3_3:
	.loc	3 0 9                           @ rt-thread/components/drivers/wlan/wlan_dev.c:0:9
	mov.w	r0, #-1
.Ltmp60:
	.loc	3 147 9 is_stmt 1               @ rt-thread/components/drivers/wlan/wlan_dev.c:147:9
	str	r0, [sp, #108]
	b	.LBB3_12
.Ltmp61:
.LBB3_4:
	.loc	3 150 10                        @ rt-thread/components/drivers/wlan/wlan_dev.c:150:10
	ldr	r0, [sp, #92]
	.loc	3 150 54 is_stmt 0              @ rt-thread/components/drivers/wlan/wlan_dev.c:150:54
	cmp	r0, #32
	bgt	.LBB3_6
	b	.LBB3_5
.LBB3_5:
	.loc	3 151 14 is_stmt 1              @ rt-thread/components/drivers/wlan/wlan_dev.c:151:14
	ldr	r0, [sp, #100]
	.loc	3 151 25 is_stmt 0              @ rt-thread/components/drivers/wlan/wlan_dev.c:151:25
	ldrb	r0, [r0, #16]
.Ltmp62:
	.loc	3 150 9 is_stmt 1               @ rt-thread/components/drivers/wlan/wlan_dev.c:150:9
	cmp	r0, #33
	blt	.LBB3_9
	b	.LBB3_6
.LBB3_6:
.Ltmp63:
	.loc	3 153 9                         @ rt-thread/components/drivers/wlan/wlan_dev.c:153:9
	b	.LBB3_7
.LBB3_7:
.Ltmp64:
	.loc	3 153 9 is_stmt 0               @ rt-thread/components/drivers/wlan/wlan_dev.c:153:9
	movw	r0, :lower16:.L.str
	movt	r0, :upper16:.L.str
	bl	rt_kprintf
	movw	r0, :lower16:.L.str.7
	movt	r0, :upper16:.L.str.7
	movs	r1, #153
	bl	rt_kprintf
	movw	r0, :lower16:.L.str.2
	movt	r0, :upper16:.L.str.2
	bl	rt_kprintf
	b	.LBB3_8
.Ltmp65:
.LBB3_8:
	.loc	3 0 9                           @ rt-thread/components/drivers/wlan/wlan_dev.c:0:9
	mov.w	r0, #-1
	.loc	3 154 9 is_stmt 1               @ rt-thread/components/drivers/wlan/wlan_dev.c:154:9
	str	r0, [sp, #108]
	b	.LBB3_12
.Ltmp66:
.LBB3_9:
	.loc	3 0 9 is_stmt 0                 @ rt-thread/components/drivers/wlan/wlan_dev.c:0:9
	add	r0, sp, #8
	str	r0, [sp, #4]                    @ 4-byte Spill
	movs	r1, #0
	movs	r2, #80
	.loc	3 157 5 is_stmt 1               @ rt-thread/components/drivers/wlan/wlan_dev.c:157:5
	bl	rt_memset
                                        @ kill: def $r1 killed $r0
	.loc	3 158 31                        @ rt-thread/components/drivers/wlan/wlan_dev.c:158:31
	ldr	r0, [sp, #4]                    @ 4-byte Reload
	ldr	r1, [sp, #100]
	.loc	3 158 37 is_stmt 0              @ rt-thread/components/drivers/wlan/wlan_dev.c:158:37
	adds	r1, #16
	movs	r2, #34
	.loc	3 158 5                         @ rt-thread/components/drivers/wlan/wlan_dev.c:158:5
	bl	rt_memcpy
.Ltmp67:
	.loc	3 159 9 is_stmt 1               @ rt-thread/components/drivers/wlan/wlan_dev.c:159:9
	ldr	r0, [sp, #96]
.Ltmp68:
	.loc	3 159 9 is_stmt 0               @ rt-thread/components/drivers/wlan/wlan_dev.c:159:9
	cbz	r0, .LBB3_11
	b	.LBB3_10
.LBB3_10:
	.loc	3 0 9                           @ rt-thread/components/drivers/wlan/wlan_dev.c:0:9
	add	r0, sp, #8
.Ltmp69:
	.loc	3 161 31 is_stmt 1              @ rt-thread/components/drivers/wlan/wlan_dev.c:161:31
	adds	r0, #35
	.loc	3 161 36 is_stmt 0              @ rt-thread/components/drivers/wlan/wlan_dev.c:161:36
	ldr	r1, [sp, #96]
	.loc	3 161 46                        @ rt-thread/components/drivers/wlan/wlan_dev.c:161:46
	ldr	r2, [sp, #92]
	.loc	3 161 9                         @ rt-thread/components/drivers/wlan/wlan_dev.c:161:9
	bl	rt_memcpy
	.loc	3 162 5 is_stmt 1               @ rt-thread/components/drivers/wlan/wlan_dev.c:162:5
	b	.LBB3_11
.Ltmp70:
.LBB3_11:
	.loc	3 163 23                        @ rt-thread/components/drivers/wlan/wlan_dev.c:163:23
	ldr	r0, [sp, #92]
	.loc	3 163 21 is_stmt 0              @ rt-thread/components/drivers/wlan/wlan_dev.c:163:21
	strb.w	r0, [sp, #42]
	.loc	3 164 22 is_stmt 1              @ rt-thread/components/drivers/wlan/wlan_dev.c:164:22
	ldr	r0, [sp, #100]
	.loc	3 164 28 is_stmt 0              @ rt-thread/components/drivers/wlan/wlan_dev.c:164:28
	ldrb.w	r0, [r0, #56]
	.loc	3 164 20                        @ rt-thread/components/drivers/wlan/wlan_dev.c:164:20
	str	r0, [sp, #76]
	.loc	3 165 23 is_stmt 1              @ rt-thread/components/drivers/wlan/wlan_dev.c:165:23
	ldr	r0, [sp, #100]
	.loc	3 165 29 is_stmt 0              @ rt-thread/components/drivers/wlan/wlan_dev.c:165:29
	ldrh	r0, [r0, #12]
	.loc	3 165 21                        @ rt-thread/components/drivers/wlan/wlan_dev.c:165:21
	strh.w	r0, [sp, #80]
	.loc	3 166 24 is_stmt 1              @ rt-thread/components/drivers/wlan/wlan_dev.c:166:24
	ldr	r0, [sp, #100]
	.loc	3 166 30 is_stmt 0              @ rt-thread/components/drivers/wlan/wlan_dev.c:166:30
	ldr	r0, [r0]
	.loc	3 166 22                        @ rt-thread/components/drivers/wlan/wlan_dev.c:166:22
	str	r0, [sp, #84]
	.loc	3 168 32 is_stmt 1              @ rt-thread/components/drivers/wlan/wlan_dev.c:168:32
	ldr	r0, [sp, #104]
	movs	r1, #19
	add	r2, sp, #8
	.loc	3 168 14 is_stmt 0              @ rt-thread/components/drivers/wlan/wlan_dev.c:168:14
	bl	rt_device_control
	.loc	3 168 12                        @ rt-thread/components/drivers/wlan/wlan_dev.c:168:12
	str	r0, [sp, #88]
	.loc	3 169 12 is_stmt 1              @ rt-thread/components/drivers/wlan/wlan_dev.c:169:12
	ldr	r0, [sp, #88]
	.loc	3 169 5 is_stmt 0               @ rt-thread/components/drivers/wlan/wlan_dev.c:169:5
	str	r0, [sp, #108]
	b	.LBB3_12
.LBB3_12:
	.loc	3 170 1 is_stmt 1               @ rt-thread/components/drivers/wlan/wlan_dev.c:170:1
	ldr	r0, [sp, #108]
	add	sp, #112
	pop	{r7, pc}
.Ltmp71:
.Lfunc_end3:
	.size	rt_wlan_dev_ap_start, .Lfunc_end3-rt_wlan_dev_ap_start
	.cfi_endproc
	.cantunwind
	.fnend
                                        @ -- End function
	.section	.text.rt_wlan_dev_ap_stop,"ax",%progbits
	.hidden	rt_wlan_dev_ap_stop             @ -- Begin function rt_wlan_dev_ap_stop
	.globl	rt_wlan_dev_ap_stop
	.p2align	3
	.type	rt_wlan_dev_ap_stop,%function
	.code	16                              @ @rt_wlan_dev_ap_stop
	.thumb_func
rt_wlan_dev_ap_stop:
.Lfunc_begin4:
	.loc	3 173 0                         @ rt-thread/components/drivers/wlan/wlan_dev.c:173:0
	.fnstart
	.cfi_startproc
@ %bb.0:
	.save	{r7, lr}
	push	{r7, lr}
	.cfi_def_cfa_offset 8
	.cfi_offset lr, -4
	.cfi_offset r7, -8
	.pad	#16
	sub	sp, #16
	.cfi_def_cfa_offset 24
	str	r0, [sp, #8]
	movs	r0, #0
.Ltmp72:
	.loc	3 174 14 prologue_end           @ rt-thread/components/drivers/wlan/wlan_dev.c:174:14
	str	r0, [sp, #4]
.Ltmp73:
	.loc	3 176 9                         @ rt-thread/components/drivers/wlan/wlan_dev.c:176:9
	ldr	r0, [sp, #8]
.Ltmp74:
	.loc	3 176 9 is_stmt 0               @ rt-thread/components/drivers/wlan/wlan_dev.c:176:9
	cbnz	r0, .LBB4_2
	b	.LBB4_1
.LBB4_1:
	.loc	3 0 9                           @ rt-thread/components/drivers/wlan/wlan_dev.c:0:9
	mvn	r0, #7
.Ltmp75:
	.loc	3 178 9 is_stmt 1               @ rt-thread/components/drivers/wlan/wlan_dev.c:178:9
	str	r0, [sp, #12]
	b	.LBB4_3
.Ltmp76:
.LBB4_2:
	.loc	3 181 32                        @ rt-thread/components/drivers/wlan/wlan_dev.c:181:32
	ldr	r0, [sp, #8]
	movs	r1, #21
	movs	r2, #0
	.loc	3 181 14 is_stmt 0              @ rt-thread/components/drivers/wlan/wlan_dev.c:181:14
	bl	rt_device_control
	.loc	3 181 12                        @ rt-thread/components/drivers/wlan/wlan_dev.c:181:12
	str	r0, [sp, #4]
	.loc	3 182 12 is_stmt 1              @ rt-thread/components/drivers/wlan/wlan_dev.c:182:12
	ldr	r0, [sp, #4]
	.loc	3 182 5 is_stmt 0               @ rt-thread/components/drivers/wlan/wlan_dev.c:182:5
	str	r0, [sp, #12]
	b	.LBB4_3
.LBB4_3:
	.loc	3 183 1 is_stmt 1               @ rt-thread/components/drivers/wlan/wlan_dev.c:183:1
	ldr	r0, [sp, #12]
	add	sp, #16
	pop	{r7, pc}
.Ltmp77:
.Lfunc_end4:
	.size	rt_wlan_dev_ap_stop, .Lfunc_end4-rt_wlan_dev_ap_stop
	.cfi_endproc
	.cantunwind
	.fnend
                                        @ -- End function
	.section	.text.rt_wlan_dev_ap_deauth,"ax",%progbits
	.hidden	rt_wlan_dev_ap_deauth           @ -- Begin function rt_wlan_dev_ap_deauth
	.globl	rt_wlan_dev_ap_deauth
	.p2align	3
	.type	rt_wlan_dev_ap_deauth,%function
	.code	16                              @ @rt_wlan_dev_ap_deauth
	.thumb_func
rt_wlan_dev_ap_deauth:
.Lfunc_begin5:
	.loc	3 186 0                         @ rt-thread/components/drivers/wlan/wlan_dev.c:186:0
	.fnstart
	.cfi_startproc
@ %bb.0:
	.save	{r7, lr}
	push	{r7, lr}
	.cfi_def_cfa_offset 8
	.cfi_offset lr, -4
	.cfi_offset r7, -8
	.pad	#16
	sub	sp, #16
	.cfi_def_cfa_offset 24
	str	r0, [sp, #8]
	str	r1, [sp, #4]
	movs	r0, #0
.Ltmp78:
	.loc	3 187 14 prologue_end           @ rt-thread/components/drivers/wlan/wlan_dev.c:187:14
	str	r0, [sp]
.Ltmp79:
	.loc	3 189 9                         @ rt-thread/components/drivers/wlan/wlan_dev.c:189:9
	ldr	r0, [sp, #8]
.Ltmp80:
	.loc	3 189 9 is_stmt 0               @ rt-thread/components/drivers/wlan/wlan_dev.c:189:9
	cbnz	r0, .LBB5_2
	b	.LBB5_1
.LBB5_1:
	.loc	3 0 9                           @ rt-thread/components/drivers/wlan/wlan_dev.c:0:9
	mvn	r0, #7
.Ltmp81:
	.loc	3 191 9 is_stmt 1               @ rt-thread/components/drivers/wlan/wlan_dev.c:191:9
	str	r0, [sp, #12]
	b	.LBB5_3
.Ltmp82:
.LBB5_2:
	.loc	3 194 32                        @ rt-thread/components/drivers/wlan/wlan_dev.c:194:32
	ldr	r0, [sp, #8]
	.loc	3 194 74 is_stmt 0              @ rt-thread/components/drivers/wlan/wlan_dev.c:194:74
	ldr	r2, [sp, #4]
	movs	r1, #22
	.loc	3 194 14                        @ rt-thread/components/drivers/wlan/wlan_dev.c:194:14
	bl	rt_device_control
	.loc	3 194 12                        @ rt-thread/components/drivers/wlan/wlan_dev.c:194:12
	str	r0, [sp]
	.loc	3 195 12 is_stmt 1              @ rt-thread/components/drivers/wlan/wlan_dev.c:195:12
	ldr	r0, [sp]
	.loc	3 195 5 is_stmt 0               @ rt-thread/components/drivers/wlan/wlan_dev.c:195:5
	str	r0, [sp, #12]
	b	.LBB5_3
.LBB5_3:
	.loc	3 196 1 is_stmt 1               @ rt-thread/components/drivers/wlan/wlan_dev.c:196:1
	ldr	r0, [sp, #12]
	add	sp, #16
	pop	{r7, pc}
.Ltmp83:
.Lfunc_end5:
	.size	rt_wlan_dev_ap_deauth, .Lfunc_end5-rt_wlan_dev_ap_deauth
	.cfi_endproc
	.cantunwind
	.fnend
                                        @ -- End function
	.section	.text.rt_wlan_dev_get_rssi,"ax",%progbits
	.hidden	rt_wlan_dev_get_rssi            @ -- Begin function rt_wlan_dev_get_rssi
	.globl	rt_wlan_dev_get_rssi
	.p2align	3
	.type	rt_wlan_dev_get_rssi,%function
	.code	16                              @ @rt_wlan_dev_get_rssi
	.thumb_func
rt_wlan_dev_get_rssi:
.Lfunc_begin6:
	.loc	3 199 0                         @ rt-thread/components/drivers/wlan/wlan_dev.c:199:0
	.fnstart
	.cfi_startproc
@ %bb.0:
	.save	{r7, lr}
	push	{r7, lr}
	.cfi_def_cfa_offset 8
	.cfi_offset lr, -4
	.cfi_offset r7, -8
	.pad	#16
	sub	sp, #16
	.cfi_def_cfa_offset 24
	str	r0, [sp, #8]
	movs	r0, #0
.Ltmp84:
	.loc	3 200 9 prologue_end            @ rt-thread/components/drivers/wlan/wlan_dev.c:200:9
	str	r0, [sp, #4]
	.loc	3 201 14                        @ rt-thread/components/drivers/wlan/wlan_dev.c:201:14
	str	r0, [sp]
.Ltmp85:
	.loc	3 203 9                         @ rt-thread/components/drivers/wlan/wlan_dev.c:203:9
	ldr	r0, [sp, #8]
.Ltmp86:
	.loc	3 203 9 is_stmt 0               @ rt-thread/components/drivers/wlan/wlan_dev.c:203:9
	cbnz	r0, .LBB6_2
	b	.LBB6_1
.LBB6_1:
	.loc	3 0 9                           @ rt-thread/components/drivers/wlan/wlan_dev.c:0:9
	mvn	r0, #7
.Ltmp87:
	.loc	3 205 9 is_stmt 1               @ rt-thread/components/drivers/wlan/wlan_dev.c:205:9
	bl	rt_set_errno
	movs	r0, #0
	.loc	3 206 9                         @ rt-thread/components/drivers/wlan/wlan_dev.c:206:9
	str	r0, [sp, #12]
	b	.LBB6_5
.Ltmp88:
.LBB6_2:
	.loc	3 209 32                        @ rt-thread/components/drivers/wlan/wlan_dev.c:209:32
	ldr	r0, [sp, #8]
	movs	r1, #24
	add	r2, sp, #4
	.loc	3 209 14 is_stmt 0              @ rt-thread/components/drivers/wlan/wlan_dev.c:209:14
	bl	rt_device_control
	.loc	3 209 12                        @ rt-thread/components/drivers/wlan/wlan_dev.c:209:12
	str	r0, [sp]
.Ltmp89:
	.loc	3 210 9 is_stmt 1               @ rt-thread/components/drivers/wlan/wlan_dev.c:210:9
	ldr	r0, [sp]
.Ltmp90:
	.loc	3 210 9 is_stmt 0               @ rt-thread/components/drivers/wlan/wlan_dev.c:210:9
	cbz	r0, .LBB6_4
	b	.LBB6_3
.LBB6_3:
.Ltmp91:
	.loc	3 212 22 is_stmt 1              @ rt-thread/components/drivers/wlan/wlan_dev.c:212:22
	ldr	r0, [sp]
	.loc	3 212 9 is_stmt 0               @ rt-thread/components/drivers/wlan/wlan_dev.c:212:9
	bl	rt_set_errno
	movs	r0, #0
	.loc	3 213 9 is_stmt 1               @ rt-thread/components/drivers/wlan/wlan_dev.c:213:9
	str	r0, [sp, #12]
	b	.LBB6_5
.Ltmp92:
.LBB6_4:
	.loc	3 216 12                        @ rt-thread/components/drivers/wlan/wlan_dev.c:216:12
	ldr	r0, [sp, #4]
	.loc	3 216 5 is_stmt 0               @ rt-thread/components/drivers/wlan/wlan_dev.c:216:5
	str	r0, [sp, #12]
	b	.LBB6_5
.LBB6_5:
	.loc	3 217 1 is_stmt 1               @ rt-thread/components/drivers/wlan/wlan_dev.c:217:1
	ldr	r0, [sp, #12]
	add	sp, #16
	pop	{r7, pc}
.Ltmp93:
.Lfunc_end6:
	.size	rt_wlan_dev_get_rssi, .Lfunc_end6-rt_wlan_dev_get_rssi
	.cfi_endproc
	.cantunwind
	.fnend
                                        @ -- End function
	.section	.text.rt_wlan_dev_get_mac,"ax",%progbits
	.hidden	rt_wlan_dev_get_mac             @ -- Begin function rt_wlan_dev_get_mac
	.globl	rt_wlan_dev_get_mac
	.p2align	3
	.type	rt_wlan_dev_get_mac,%function
	.code	16                              @ @rt_wlan_dev_get_mac
	.thumb_func
rt_wlan_dev_get_mac:
.Lfunc_begin7:
	.loc	3 220 0                         @ rt-thread/components/drivers/wlan/wlan_dev.c:220:0
	.fnstart
	.cfi_startproc
@ %bb.0:
	.save	{r7, lr}
	push	{r7, lr}
	.cfi_def_cfa_offset 8
	.cfi_offset lr, -4
	.cfi_offset r7, -8
	.pad	#16
	sub	sp, #16
	.cfi_def_cfa_offset 24
	str	r0, [sp, #8]
	str	r1, [sp, #4]
	movs	r0, #0
.Ltmp94:
	.loc	3 221 14 prologue_end           @ rt-thread/components/drivers/wlan/wlan_dev.c:221:14
	str	r0, [sp]
.Ltmp95:
	.loc	3 223 9                         @ rt-thread/components/drivers/wlan/wlan_dev.c:223:9
	ldr	r0, [sp, #8]
.Ltmp96:
	.loc	3 223 9 is_stmt 0               @ rt-thread/components/drivers/wlan/wlan_dev.c:223:9
	cbnz	r0, .LBB7_2
	b	.LBB7_1
.LBB7_1:
	.loc	3 0 9                           @ rt-thread/components/drivers/wlan/wlan_dev.c:0:9
	mvn	r0, #7
.Ltmp97:
	.loc	3 225 9 is_stmt 1               @ rt-thread/components/drivers/wlan/wlan_dev.c:225:9
	str	r0, [sp, #12]
	b	.LBB7_3
.Ltmp98:
.LBB7_2:
	.loc	3 228 32                        @ rt-thread/components/drivers/wlan/wlan_dev.c:228:32
	ldr	r0, [sp, #8]
	.loc	3 228 73 is_stmt 0              @ rt-thread/components/drivers/wlan/wlan_dev.c:228:73
	ldr	r2, [sp, #4]
	movs	r1, #35
	.loc	3 228 14                        @ rt-thread/components/drivers/wlan/wlan_dev.c:228:14
	bl	rt_device_control
	.loc	3 228 12                        @ rt-thread/components/drivers/wlan/wlan_dev.c:228:12
	str	r0, [sp]
	.loc	3 229 12 is_stmt 1              @ rt-thread/components/drivers/wlan/wlan_dev.c:229:12
	ldr	r0, [sp]
	.loc	3 229 5 is_stmt 0               @ rt-thread/components/drivers/wlan/wlan_dev.c:229:5
	str	r0, [sp, #12]
	b	.LBB7_3
.LBB7_3:
	.loc	3 230 1 is_stmt 1               @ rt-thread/components/drivers/wlan/wlan_dev.c:230:1
	ldr	r0, [sp, #12]
	add	sp, #16
	pop	{r7, pc}
.Ltmp99:
.Lfunc_end7:
	.size	rt_wlan_dev_get_mac, .Lfunc_end7-rt_wlan_dev_get_mac
	.cfi_endproc
	.cantunwind
	.fnend
                                        @ -- End function
	.section	.text.rt_wlan_dev_set_mac,"ax",%progbits
	.hidden	rt_wlan_dev_set_mac             @ -- Begin function rt_wlan_dev_set_mac
	.globl	rt_wlan_dev_set_mac
	.p2align	3
	.type	rt_wlan_dev_set_mac,%function
	.code	16                              @ @rt_wlan_dev_set_mac
	.thumb_func
rt_wlan_dev_set_mac:
.Lfunc_begin8:
	.loc	3 233 0                         @ rt-thread/components/drivers/wlan/wlan_dev.c:233:0
	.fnstart
	.cfi_startproc
@ %bb.0:
	.save	{r7, lr}
	push	{r7, lr}
	.cfi_def_cfa_offset 8
	.cfi_offset lr, -4
	.cfi_offset r7, -8
	.pad	#16
	sub	sp, #16
	.cfi_def_cfa_offset 24
	str	r0, [sp, #8]
	str	r1, [sp, #4]
	movs	r0, #0
.Ltmp100:
	.loc	3 234 14 prologue_end           @ rt-thread/components/drivers/wlan/wlan_dev.c:234:14
	str	r0, [sp]
.Ltmp101:
	.loc	3 236 9                         @ rt-thread/components/drivers/wlan/wlan_dev.c:236:9
	ldr	r0, [sp, #8]
.Ltmp102:
	.loc	3 236 9 is_stmt 0               @ rt-thread/components/drivers/wlan/wlan_dev.c:236:9
	cbnz	r0, .LBB8_2
	b	.LBB8_1
.LBB8_1:
	.loc	3 0 9                           @ rt-thread/components/drivers/wlan/wlan_dev.c:0:9
	mvn	r0, #7
.Ltmp103:
	.loc	3 238 9 is_stmt 1               @ rt-thread/components/drivers/wlan/wlan_dev.c:238:9
	str	r0, [sp, #12]
	b	.LBB8_3
.Ltmp104:
.LBB8_2:
	.loc	3 241 32                        @ rt-thread/components/drivers/wlan/wlan_dev.c:241:32
	ldr	r0, [sp, #8]
	.loc	3 241 73 is_stmt 0              @ rt-thread/components/drivers/wlan/wlan_dev.c:241:73
	ldr	r2, [sp, #4]
	movs	r1, #34
	.loc	3 241 14                        @ rt-thread/components/drivers/wlan/wlan_dev.c:241:14
	bl	rt_device_control
	.loc	3 241 12                        @ rt-thread/components/drivers/wlan/wlan_dev.c:241:12
	str	r0, [sp]
	.loc	3 242 12 is_stmt 1              @ rt-thread/components/drivers/wlan/wlan_dev.c:242:12
	ldr	r0, [sp]
	.loc	3 242 5 is_stmt 0               @ rt-thread/components/drivers/wlan/wlan_dev.c:242:5
	str	r0, [sp, #12]
	b	.LBB8_3
.LBB8_3:
	.loc	3 243 1 is_stmt 1               @ rt-thread/components/drivers/wlan/wlan_dev.c:243:1
	ldr	r0, [sp, #12]
	add	sp, #16
	pop	{r7, pc}
.Ltmp105:
.Lfunc_end8:
	.size	rt_wlan_dev_set_mac, .Lfunc_end8-rt_wlan_dev_set_mac
	.cfi_endproc
	.cantunwind
	.fnend
                                        @ -- End function
	.section	.text.rt_wlan_dev_set_powersave,"ax",%progbits
	.hidden	rt_wlan_dev_set_powersave       @ -- Begin function rt_wlan_dev_set_powersave
	.globl	rt_wlan_dev_set_powersave
	.p2align	3
	.type	rt_wlan_dev_set_powersave,%function
	.code	16                              @ @rt_wlan_dev_set_powersave
	.thumb_func
rt_wlan_dev_set_powersave:
.Lfunc_begin9:
	.loc	3 246 0                         @ rt-thread/components/drivers/wlan/wlan_dev.c:246:0
	.fnstart
	.cfi_startproc
@ %bb.0:
	.save	{r7, lr}
	push	{r7, lr}
	.cfi_def_cfa_offset 8
	.cfi_offset lr, -4
	.cfi_offset r7, -8
	.pad	#16
	sub	sp, #16
	.cfi_def_cfa_offset 24
	str	r0, [sp, #8]
	str	r1, [sp, #4]
	movs	r0, #0
.Ltmp106:
	.loc	3 247 14 prologue_end           @ rt-thread/components/drivers/wlan/wlan_dev.c:247:14
	str	r0, [sp]
.Ltmp107:
	.loc	3 249 9                         @ rt-thread/components/drivers/wlan/wlan_dev.c:249:9
	ldr	r0, [sp, #8]
.Ltmp108:
	.loc	3 249 9 is_stmt 0               @ rt-thread/components/drivers/wlan/wlan_dev.c:249:9
	cbnz	r0, .LBB9_2
	b	.LBB9_1
.LBB9_1:
	.loc	3 0 9                           @ rt-thread/components/drivers/wlan/wlan_dev.c:0:9
	mvn	r0, #7
.Ltmp109:
	.loc	3 251 9 is_stmt 1               @ rt-thread/components/drivers/wlan/wlan_dev.c:251:9
	str	r0, [sp, #12]
	b	.LBB9_3
.Ltmp110:
.LBB9_2:
	.loc	3 254 32                        @ rt-thread/components/drivers/wlan/wlan_dev.c:254:32
	ldr	r0, [sp, #8]
	movs	r1, #25
	add	r2, sp, #4
	.loc	3 254 14 is_stmt 0              @ rt-thread/components/drivers/wlan/wlan_dev.c:254:14
	bl	rt_device_control
	.loc	3 254 12                        @ rt-thread/components/drivers/wlan/wlan_dev.c:254:12
	str	r0, [sp]
	.loc	3 255 12 is_stmt 1              @ rt-thread/components/drivers/wlan/wlan_dev.c:255:12
	ldr	r0, [sp]
	.loc	3 255 5 is_stmt 0               @ rt-thread/components/drivers/wlan/wlan_dev.c:255:5
	str	r0, [sp, #12]
	b	.LBB9_3
.LBB9_3:
	.loc	3 256 1 is_stmt 1               @ rt-thread/components/drivers/wlan/wlan_dev.c:256:1
	ldr	r0, [sp, #12]
	add	sp, #16
	pop	{r7, pc}
.Ltmp111:
.Lfunc_end9:
	.size	rt_wlan_dev_set_powersave, .Lfunc_end9-rt_wlan_dev_set_powersave
	.cfi_endproc
	.cantunwind
	.fnend
                                        @ -- End function
	.section	.text.rt_wlan_dev_get_powersave,"ax",%progbits
	.hidden	rt_wlan_dev_get_powersave       @ -- Begin function rt_wlan_dev_get_powersave
	.globl	rt_wlan_dev_get_powersave
	.p2align	3
	.type	rt_wlan_dev_get_powersave,%function
	.code	16                              @ @rt_wlan_dev_get_powersave
	.thumb_func
rt_wlan_dev_get_powersave:
.Lfunc_begin10:
	.loc	3 259 0                         @ rt-thread/components/drivers/wlan/wlan_dev.c:259:0
	.fnstart
	.cfi_startproc
@ %bb.0:
	.save	{r7, lr}
	push	{r7, lr}
	.cfi_def_cfa_offset 8
	.cfi_offset lr, -4
	.cfi_offset r7, -8
	.pad	#16
	sub	sp, #16
	.cfi_def_cfa_offset 24
	str	r0, [sp, #8]
	mov.w	r0, #-1
.Ltmp112:
	.loc	3 260 9 prologue_end            @ rt-thread/components/drivers/wlan/wlan_dev.c:260:9
	str	r0, [sp, #4]
	movs	r0, #0
	.loc	3 261 14                        @ rt-thread/components/drivers/wlan/wlan_dev.c:261:14
	str	r0, [sp]
.Ltmp113:
	.loc	3 263 9                         @ rt-thread/components/drivers/wlan/wlan_dev.c:263:9
	ldr	r0, [sp, #8]
.Ltmp114:
	.loc	3 263 9 is_stmt 0               @ rt-thread/components/drivers/wlan/wlan_dev.c:263:9
	cbnz	r0, .LBB10_2
	b	.LBB10_1
.LBB10_1:
	.loc	3 0 9                           @ rt-thread/components/drivers/wlan/wlan_dev.c:0:9
	mvn	r0, #7
.Ltmp115:
	.loc	3 265 9 is_stmt 1               @ rt-thread/components/drivers/wlan/wlan_dev.c:265:9
	bl	rt_set_errno
	mov.w	r0, #-1
	.loc	3 266 9                         @ rt-thread/components/drivers/wlan/wlan_dev.c:266:9
	str	r0, [sp, #12]
	b	.LBB10_5
.Ltmp116:
.LBB10_2:
	.loc	3 269 32                        @ rt-thread/components/drivers/wlan/wlan_dev.c:269:32
	ldr	r0, [sp, #8]
	movs	r1, #26
	add	r2, sp, #4
	.loc	3 269 14 is_stmt 0              @ rt-thread/components/drivers/wlan/wlan_dev.c:269:14
	bl	rt_device_control
	.loc	3 269 12                        @ rt-thread/components/drivers/wlan/wlan_dev.c:269:12
	str	r0, [sp]
.Ltmp117:
	.loc	3 270 9 is_stmt 1               @ rt-thread/components/drivers/wlan/wlan_dev.c:270:9
	ldr	r0, [sp]
.Ltmp118:
	.loc	3 270 9 is_stmt 0               @ rt-thread/components/drivers/wlan/wlan_dev.c:270:9
	cbz	r0, .LBB10_4
	b	.LBB10_3
.LBB10_3:
.Ltmp119:
	.loc	3 272 22 is_stmt 1              @ rt-thread/components/drivers/wlan/wlan_dev.c:272:22
	ldr	r0, [sp]
	.loc	3 272 9 is_stmt 0               @ rt-thread/components/drivers/wlan/wlan_dev.c:272:9
	bl	rt_set_errno
	.loc	3 273 5 is_stmt 1               @ rt-thread/components/drivers/wlan/wlan_dev.c:273:5
	b	.LBB10_4
.Ltmp120:
.LBB10_4:
	.loc	3 275 12                        @ rt-thread/components/drivers/wlan/wlan_dev.c:275:12
	ldr	r0, [sp, #4]
	.loc	3 275 5 is_stmt 0               @ rt-thread/components/drivers/wlan/wlan_dev.c:275:5
	str	r0, [sp, #12]
	b	.LBB10_5
.LBB10_5:
	.loc	3 276 1 is_stmt 1               @ rt-thread/components/drivers/wlan/wlan_dev.c:276:1
	ldr	r0, [sp, #12]
	add	sp, #16
	pop	{r7, pc}
.Ltmp121:
.Lfunc_end10:
	.size	rt_wlan_dev_get_powersave, .Lfunc_end10-rt_wlan_dev_get_powersave
	.cfi_endproc
	.cantunwind
	.fnend
                                        @ -- End function
	.section	.text.rt_wlan_dev_register_event_handler,"ax",%progbits
	.hidden	rt_wlan_dev_register_event_handler @ -- Begin function rt_wlan_dev_register_event_handler
	.globl	rt_wlan_dev_register_event_handler
	.p2align	3
	.type	rt_wlan_dev_register_event_handler,%function
	.code	16                              @ @rt_wlan_dev_register_event_handler
	.thumb_func
rt_wlan_dev_register_event_handler:
.Lfunc_begin11:
	.loc	3 279 0                         @ rt-thread/components/drivers/wlan/wlan_dev.c:279:0
	.fnstart
	.cfi_startproc
@ %bb.0:
	.save	{r7, lr}
	push	{r7, lr}
	.cfi_def_cfa_offset 8
	.cfi_offset lr, -4
	.cfi_offset r7, -8
	.pad	#32
	sub	sp, #32
	.cfi_def_cfa_offset 40
                                        @ kill: def $r12 killed $r1
	str	r0, [sp, #24]
	strb.w	r1, [sp, #23]
	str	r2, [sp, #16]
	str	r3, [sp, #12]
	movs	r0, #0
.Ltmp122:
	.loc	3 280 9 prologue_end            @ rt-thread/components/drivers/wlan/wlan_dev.c:280:9
	str	r0, [sp, #8]
.Ltmp123:
	.loc	3 283 9                         @ rt-thread/components/drivers/wlan/wlan_dev.c:283:9
	ldr	r0, [sp, #24]
.Ltmp124:
	.loc	3 283 9 is_stmt 0               @ rt-thread/components/drivers/wlan/wlan_dev.c:283:9
	cbnz	r0, .LBB11_2
	b	.LBB11_1
.LBB11_1:
	.loc	3 0 9                           @ rt-thread/components/drivers/wlan/wlan_dev.c:0:9
	mvn	r0, #7
.Ltmp125:
	.loc	3 285 9 is_stmt 1               @ rt-thread/components/drivers/wlan/wlan_dev.c:285:9
	str	r0, [sp, #28]
	b	.LBB11_11
.Ltmp126:
.LBB11_2:
	.loc	3 287 9                         @ rt-thread/components/drivers/wlan/wlan_dev.c:287:9
	ldrb.w	r0, [sp, #23]
.Ltmp127:
	.loc	3 287 9 is_stmt 0               @ rt-thread/components/drivers/wlan/wlan_dev.c:287:9
	cmp	r0, #11
	blt	.LBB11_4
	b	.LBB11_3
.LBB11_3:
	.loc	3 0 9                           @ rt-thread/components/drivers/wlan/wlan_dev.c:0:9
	mvn	r0, #9
.Ltmp128:
	.loc	3 289 9 is_stmt 1               @ rt-thread/components/drivers/wlan/wlan_dev.c:289:9
	str	r0, [sp, #28]
	b	.LBB11_11
.Ltmp129:
.LBB11_4:
	.loc	3 292 13                        @ rt-thread/components/drivers/wlan/wlan_dev.c:292:13
	bl	rt_hw_interrupt_disable
	.loc	3 292 11 is_stmt 0              @ rt-thread/components/drivers/wlan/wlan_dev.c:292:11
	str	r0, [sp, #4]
	movs	r0, #0
.Ltmp130:
	.loc	3 293 12 is_stmt 1              @ rt-thread/components/drivers/wlan/wlan_dev.c:293:12
	str	r0, [sp, #8]
	.loc	3 293 10 is_stmt 0              @ rt-thread/components/drivers/wlan/wlan_dev.c:293:10
	b	.LBB11_5
.LBB11_5:                               @ =>This Inner Loop Header: Depth=1
.Ltmp131:
	.loc	3 293 17                        @ rt-thread/components/drivers/wlan/wlan_dev.c:293:17
	ldr	r0, [sp, #8]
.Ltmp132:
	.loc	3 293 5                         @ rt-thread/components/drivers/wlan/wlan_dev.c:293:5
	cmp	r0, #1
	bgt	.LBB11_10
	b	.LBB11_6
.LBB11_6:                               @   in Loop: Header=BB11_5 Depth=1
.Ltmp133:
	.loc	3 295 13 is_stmt 1              @ rt-thread/components/drivers/wlan/wlan_dev.c:295:13
	ldr	r0, [sp, #24]
	.loc	3 295 35 is_stmt 0              @ rt-thread/components/drivers/wlan/wlan_dev.c:295:35
	ldrb.w	r1, [sp, #23]
	.loc	3 295 21                        @ rt-thread/components/drivers/wlan/wlan_dev.c:295:21
	add.w	r0, r0, r1, lsl #4
	.loc	3 295 42                        @ rt-thread/components/drivers/wlan/wlan_dev.c:295:42
	ldr	r1, [sp, #8]
	.loc	3 295 13                        @ rt-thread/components/drivers/wlan/wlan_dev.c:295:13
	add.w	r0, r0, r1, lsl #3
	.loc	3 295 45                        @ rt-thread/components/drivers/wlan/wlan_dev.c:295:45
	ldr	r0, [r0, #120]
.Ltmp134:
	.loc	3 295 13                        @ rt-thread/components/drivers/wlan/wlan_dev.c:295:13
	cbnz	r0, .LBB11_8
	b	.LBB11_7
.LBB11_7:
.Ltmp135:
	.loc	3 297 55 is_stmt 1              @ rt-thread/components/drivers/wlan/wlan_dev.c:297:55
	ldr	r0, [sp, #16]
	.loc	3 297 13 is_stmt 0              @ rt-thread/components/drivers/wlan/wlan_dev.c:297:13
	ldr	r1, [sp, #24]
	.loc	3 297 35                        @ rt-thread/components/drivers/wlan/wlan_dev.c:297:35
	ldrb.w	r2, [sp, #23]
	.loc	3 297 21                        @ rt-thread/components/drivers/wlan/wlan_dev.c:297:21
	add.w	r1, r1, r2, lsl #4
	.loc	3 297 42                        @ rt-thread/components/drivers/wlan/wlan_dev.c:297:42
	ldr	r2, [sp, #8]
	.loc	3 297 13                        @ rt-thread/components/drivers/wlan/wlan_dev.c:297:13
	add.w	r1, r1, r2, lsl #3
	.loc	3 297 53                        @ rt-thread/components/drivers/wlan/wlan_dev.c:297:53
	str	r0, [r1, #120]
	.loc	3 298 57 is_stmt 1              @ rt-thread/components/drivers/wlan/wlan_dev.c:298:57
	ldr	r0, [sp, #12]
	.loc	3 298 13 is_stmt 0              @ rt-thread/components/drivers/wlan/wlan_dev.c:298:13
	ldr	r1, [sp, #24]
	.loc	3 298 35                        @ rt-thread/components/drivers/wlan/wlan_dev.c:298:35
	ldrb.w	r2, [sp, #23]
	.loc	3 298 21                        @ rt-thread/components/drivers/wlan/wlan_dev.c:298:21
	add.w	r1, r1, r2, lsl #4
	.loc	3 298 42                        @ rt-thread/components/drivers/wlan/wlan_dev.c:298:42
	ldr	r2, [sp, #8]
	.loc	3 298 13                        @ rt-thread/components/drivers/wlan/wlan_dev.c:298:13
	add.w	r1, r1, r2, lsl #3
	.loc	3 298 55                        @ rt-thread/components/drivers/wlan/wlan_dev.c:298:55
	str	r0, [r1, #124]
	.loc	3 299 36 is_stmt 1              @ rt-thread/components/drivers/wlan/wlan_dev.c:299:36
	ldr	r0, [sp, #4]
	.loc	3 299 13 is_stmt 0              @ rt-thread/components/drivers/wlan/wlan_dev.c:299:13
	bl	rt_hw_interrupt_enable
	movs	r0, #0
	.loc	3 300 13 is_stmt 1              @ rt-thread/components/drivers/wlan/wlan_dev.c:300:13
	str	r0, [sp, #28]
	b	.LBB11_11
.Ltmp136:
.LBB11_8:                               @   in Loop: Header=BB11_5 Depth=1
	.loc	3 302 5                         @ rt-thread/components/drivers/wlan/wlan_dev.c:302:5
	b	.LBB11_9
.Ltmp137:
.LBB11_9:                               @   in Loop: Header=BB11_5 Depth=1
	.loc	3 293 45                        @ rt-thread/components/drivers/wlan/wlan_dev.c:293:45
	ldr	r0, [sp, #8]
	adds	r0, #1
	str	r0, [sp, #8]
	.loc	3 293 5 is_stmt 0               @ rt-thread/components/drivers/wlan/wlan_dev.c:293:5
	b	.LBB11_5
.Ltmp138:
.LBB11_10:
	.loc	3 303 28 is_stmt 1              @ rt-thread/components/drivers/wlan/wlan_dev.c:303:28
	ldr	r0, [sp, #4]
	.loc	3 303 5 is_stmt 0               @ rt-thread/components/drivers/wlan/wlan_dev.c:303:5
	bl	rt_hw_interrupt_enable
	mov.w	r0, #-1
	.loc	3 306 5 is_stmt 1               @ rt-thread/components/drivers/wlan/wlan_dev.c:306:5
	str	r0, [sp, #28]
	b	.LBB11_11
.LBB11_11:
	.loc	3 307 1                         @ rt-thread/components/drivers/wlan/wlan_dev.c:307:1
	ldr	r0, [sp, #28]
	add	sp, #32
	pop	{r7, pc}
.Ltmp139:
.Lfunc_end11:
	.size	rt_wlan_dev_register_event_handler, .Lfunc_end11-rt_wlan_dev_register_event_handler
	.cfi_endproc
	.cantunwind
	.fnend
                                        @ -- End function
	.section	.text.rt_wlan_dev_unregister_event_handler,"ax",%progbits
	.hidden	rt_wlan_dev_unregister_event_handler @ -- Begin function rt_wlan_dev_unregister_event_handler
	.globl	rt_wlan_dev_unregister_event_handler
	.p2align	3
	.type	rt_wlan_dev_unregister_event_handler,%function
	.code	16                              @ @rt_wlan_dev_unregister_event_handler
	.thumb_func
rt_wlan_dev_unregister_event_handler:
.Lfunc_begin12:
	.loc	3 310 0                         @ rt-thread/components/drivers/wlan/wlan_dev.c:310:0
	.fnstart
	.cfi_startproc
@ %bb.0:
	.save	{r7, lr}
	push	{r7, lr}
	.cfi_def_cfa_offset 8
	.cfi_offset lr, -4
	.cfi_offset r7, -8
	.pad	#32
	sub	sp, #32
	.cfi_def_cfa_offset 40
                                        @ kill: def $r3 killed $r1
	str	r0, [sp, #24]
	strb.w	r1, [sp, #23]
	str	r2, [sp, #16]
	movs	r0, #0
.Ltmp140:
	.loc	3 311 9 prologue_end            @ rt-thread/components/drivers/wlan/wlan_dev.c:311:9
	str	r0, [sp, #12]
.Ltmp141:
	.loc	3 314 9                         @ rt-thread/components/drivers/wlan/wlan_dev.c:314:9
	ldr	r0, [sp, #24]
.Ltmp142:
	.loc	3 314 9 is_stmt 0               @ rt-thread/components/drivers/wlan/wlan_dev.c:314:9
	cbnz	r0, .LBB12_2
	b	.LBB12_1
.LBB12_1:
	.loc	3 0 9                           @ rt-thread/components/drivers/wlan/wlan_dev.c:0:9
	mvn	r0, #7
.Ltmp143:
	.loc	3 316 9 is_stmt 1               @ rt-thread/components/drivers/wlan/wlan_dev.c:316:9
	str	r0, [sp, #28]
	b	.LBB12_11
.Ltmp144:
.LBB12_2:
	.loc	3 318 9                         @ rt-thread/components/drivers/wlan/wlan_dev.c:318:9
	ldrb.w	r0, [sp, #23]
.Ltmp145:
	.loc	3 318 9 is_stmt 0               @ rt-thread/components/drivers/wlan/wlan_dev.c:318:9
	cmp	r0, #11
	blt	.LBB12_4
	b	.LBB12_3
.LBB12_3:
	.loc	3 0 9                           @ rt-thread/components/drivers/wlan/wlan_dev.c:0:9
	mvn	r0, #9
.Ltmp146:
	.loc	3 320 9 is_stmt 1               @ rt-thread/components/drivers/wlan/wlan_dev.c:320:9
	str	r0, [sp, #28]
	b	.LBB12_11
.Ltmp147:
.LBB12_4:
	.loc	3 323 13                        @ rt-thread/components/drivers/wlan/wlan_dev.c:323:13
	bl	rt_hw_interrupt_disable
	.loc	3 323 11 is_stmt 0              @ rt-thread/components/drivers/wlan/wlan_dev.c:323:11
	str	r0, [sp, #8]
	movs	r0, #0
.Ltmp148:
	.loc	3 324 12 is_stmt 1              @ rt-thread/components/drivers/wlan/wlan_dev.c:324:12
	str	r0, [sp, #12]
	.loc	3 324 10 is_stmt 0              @ rt-thread/components/drivers/wlan/wlan_dev.c:324:10
	b	.LBB12_5
.LBB12_5:                               @ =>This Inner Loop Header: Depth=1
.Ltmp149:
	.loc	3 324 17                        @ rt-thread/components/drivers/wlan/wlan_dev.c:324:17
	ldr	r0, [sp, #12]
.Ltmp150:
	.loc	3 324 5                         @ rt-thread/components/drivers/wlan/wlan_dev.c:324:5
	cmp	r0, #1
	bgt	.LBB12_10
	b	.LBB12_6
.LBB12_6:                               @   in Loop: Header=BB12_5 Depth=1
.Ltmp151:
	.loc	3 326 13 is_stmt 1              @ rt-thread/components/drivers/wlan/wlan_dev.c:326:13
	ldr	r0, [sp, #24]
	.loc	3 326 35 is_stmt 0              @ rt-thread/components/drivers/wlan/wlan_dev.c:326:35
	ldrb.w	r1, [sp, #23]
	.loc	3 326 21                        @ rt-thread/components/drivers/wlan/wlan_dev.c:326:21
	add.w	r0, r0, r1, lsl #4
	.loc	3 326 42                        @ rt-thread/components/drivers/wlan/wlan_dev.c:326:42
	ldr	r1, [sp, #12]
	.loc	3 326 13                        @ rt-thread/components/drivers/wlan/wlan_dev.c:326:13
	add.w	r0, r0, r1, lsl #3
	.loc	3 326 45                        @ rt-thread/components/drivers/wlan/wlan_dev.c:326:45
	ldr	r0, [r0, #120]
	.loc	3 326 56                        @ rt-thread/components/drivers/wlan/wlan_dev.c:326:56
	ldr	r1, [sp, #16]
.Ltmp152:
	.loc	3 326 13                        @ rt-thread/components/drivers/wlan/wlan_dev.c:326:13
	cmp	r0, r1
	bne	.LBB12_8
	b	.LBB12_7
.LBB12_7:
.Ltmp153:
	.loc	3 328 24 is_stmt 1              @ rt-thread/components/drivers/wlan/wlan_dev.c:328:24
	ldr	r0, [sp, #24]
	.loc	3 328 46 is_stmt 0              @ rt-thread/components/drivers/wlan/wlan_dev.c:328:46
	ldrb.w	r1, [sp, #23]
	.loc	3 328 32                        @ rt-thread/components/drivers/wlan/wlan_dev.c:328:32
	add.w	r0, r0, r1, lsl #4
	.loc	3 328 53                        @ rt-thread/components/drivers/wlan/wlan_dev.c:328:53
	ldr	r1, [sp, #12]
	.loc	3 328 24                        @ rt-thread/components/drivers/wlan/wlan_dev.c:328:24
	add.w	r0, r0, r1, lsl #3
	adds	r0, #120
	movs	r1, #0
	str	r1, [sp, #4]                    @ 4-byte Spill
	movs	r2, #8
	.loc	3 328 13                        @ rt-thread/components/drivers/wlan/wlan_dev.c:328:13
	bl	rt_memset
	.loc	3 329 36 is_stmt 1              @ rt-thread/components/drivers/wlan/wlan_dev.c:329:36
	ldr	r0, [sp, #8]
	.loc	3 329 13 is_stmt 0              @ rt-thread/components/drivers/wlan/wlan_dev.c:329:13
	bl	rt_hw_interrupt_enable
	ldr	r0, [sp, #4]                    @ 4-byte Reload
	.loc	3 330 13 is_stmt 1              @ rt-thread/components/drivers/wlan/wlan_dev.c:330:13
	str	r0, [sp, #28]
	b	.LBB12_11
.Ltmp154:
.LBB12_8:                               @   in Loop: Header=BB12_5 Depth=1
	.loc	3 332 5                         @ rt-thread/components/drivers/wlan/wlan_dev.c:332:5
	b	.LBB12_9
.Ltmp155:
.LBB12_9:                               @   in Loop: Header=BB12_5 Depth=1
	.loc	3 324 45                        @ rt-thread/components/drivers/wlan/wlan_dev.c:324:45
	ldr	r0, [sp, #12]
	adds	r0, #1
	str	r0, [sp, #12]
	.loc	3 324 5 is_stmt 0               @ rt-thread/components/drivers/wlan/wlan_dev.c:324:5
	b	.LBB12_5
.Ltmp156:
.LBB12_10:
	.loc	3 333 28 is_stmt 1              @ rt-thread/components/drivers/wlan/wlan_dev.c:333:28
	ldr	r0, [sp, #8]
	.loc	3 333 5 is_stmt 0               @ rt-thread/components/drivers/wlan/wlan_dev.c:333:5
	bl	rt_hw_interrupt_enable
	mov.w	r0, #-1
	.loc	3 335 5 is_stmt 1               @ rt-thread/components/drivers/wlan/wlan_dev.c:335:5
	str	r0, [sp, #28]
	b	.LBB12_11
.LBB12_11:
	.loc	3 336 1                         @ rt-thread/components/drivers/wlan/wlan_dev.c:336:1
	ldr	r0, [sp, #28]
	add	sp, #32
	pop	{r7, pc}
.Ltmp157:
.Lfunc_end12:
	.size	rt_wlan_dev_unregister_event_handler, .Lfunc_end12-rt_wlan_dev_unregister_event_handler
	.cfi_endproc
	.cantunwind
	.fnend
                                        @ -- End function
	.section	.text.rt_wlan_dev_indicate_event_handle,"ax",%progbits
	.hidden	rt_wlan_dev_indicate_event_handle @ -- Begin function rt_wlan_dev_indicate_event_handle
	.globl	rt_wlan_dev_indicate_event_handle
	.p2align	3
	.type	rt_wlan_dev_indicate_event_handle,%function
	.code	16                              @ @rt_wlan_dev_indicate_event_handle
	.thumb_func
rt_wlan_dev_indicate_event_handle:
.Lfunc_begin13:
	.loc	3 339 0                         @ rt-thread/components/drivers/wlan/wlan_dev.c:339:0
	.fnstart
	.cfi_startproc
@ %bb.0:
	.save	{r7, lr}
	push	{r7, lr}
	.cfi_def_cfa_offset 8
	.cfi_offset lr, -4
	.cfi_offset r7, -8
	.pad	#40
	sub	sp, #40
	.cfi_def_cfa_offset 48
                                        @ kill: def $r3 killed $r1
	str	r0, [sp, #36]
	strb.w	r1, [sp, #35]
	str	r2, [sp, #28]
.Ltmp158:
	.loc	3 345 9 prologue_end            @ rt-thread/components/drivers/wlan/wlan_dev.c:345:9
	ldr	r0, [sp, #36]
.Ltmp159:
	.loc	3 345 9 is_stmt 0               @ rt-thread/components/drivers/wlan/wlan_dev.c:345:9
	cbnz	r0, .LBB13_2
	b	.LBB13_1
.LBB13_1:
.Ltmp160:
	.loc	3 347 9 is_stmt 1               @ rt-thread/components/drivers/wlan/wlan_dev.c:347:9
	b	.LBB13_14
.Ltmp161:
.LBB13_2:
	.loc	3 349 9                         @ rt-thread/components/drivers/wlan/wlan_dev.c:349:9
	ldrb.w	r0, [sp, #35]
.Ltmp162:
	.loc	3 349 9 is_stmt 0               @ rt-thread/components/drivers/wlan/wlan_dev.c:349:9
	cmp	r0, #11
	blt	.LBB13_4
	b	.LBB13_3
.LBB13_3:
.Ltmp163:
	.loc	3 351 9 is_stmt 1               @ rt-thread/components/drivers/wlan/wlan_dev.c:351:9
	b	.LBB13_14
.Ltmp164:
.LBB13_4:
	.loc	3 355 13                        @ rt-thread/components/drivers/wlan/wlan_dev.c:355:13
	bl	rt_hw_interrupt_disable
	.loc	3 355 11 is_stmt 0              @ rt-thread/components/drivers/wlan/wlan_dev.c:355:11
	str	r0, [sp, #4]
	movs	r0, #0
.Ltmp165:
	.loc	3 356 12 is_stmt 1              @ rt-thread/components/drivers/wlan/wlan_dev.c:356:12
	str	r0, [sp, #8]
	.loc	3 356 10 is_stmt 0              @ rt-thread/components/drivers/wlan/wlan_dev.c:356:10
	b	.LBB13_5
.LBB13_5:                               @ =>This Inner Loop Header: Depth=1
.Ltmp166:
	.loc	3 356 17                        @ rt-thread/components/drivers/wlan/wlan_dev.c:356:17
	ldr	r0, [sp, #8]
.Ltmp167:
	.loc	3 356 5                         @ rt-thread/components/drivers/wlan/wlan_dev.c:356:5
	cmp	r0, #1
	bgt	.LBB13_8
	b	.LBB13_6
.LBB13_6:                               @   in Loop: Header=BB13_5 Depth=1
.Ltmp168:
	.loc	3 358 22 is_stmt 1              @ rt-thread/components/drivers/wlan/wlan_dev.c:358:22
	ldr	r0, [sp, #36]
	.loc	3 358 44 is_stmt 0              @ rt-thread/components/drivers/wlan/wlan_dev.c:358:44
	ldrb.w	r1, [sp, #35]
	.loc	3 358 30                        @ rt-thread/components/drivers/wlan/wlan_dev.c:358:30
	add.w	r0, r0, r1, lsl #4
	.loc	3 358 51                        @ rt-thread/components/drivers/wlan/wlan_dev.c:358:51
	ldr	r2, [sp, #8]
	.loc	3 358 22                        @ rt-thread/components/drivers/wlan/wlan_dev.c:358:22
	add.w	r0, r0, r2, lsl #3
	.loc	3 358 54                        @ rt-thread/components/drivers/wlan/wlan_dev.c:358:54
	ldr	r0, [r0, #120]
	add	r1, sp, #12
	.loc	3 358 20                        @ rt-thread/components/drivers/wlan/wlan_dev.c:358:20
	str.w	r0, [r1, r2, lsl #2]
	.loc	3 359 24 is_stmt 1              @ rt-thread/components/drivers/wlan/wlan_dev.c:359:24
	ldr	r0, [sp, #36]
	.loc	3 359 46 is_stmt 0              @ rt-thread/components/drivers/wlan/wlan_dev.c:359:46
	ldrb.w	r1, [sp, #35]
	.loc	3 359 32                        @ rt-thread/components/drivers/wlan/wlan_dev.c:359:32
	add.w	r0, r0, r1, lsl #4
	.loc	3 359 53                        @ rt-thread/components/drivers/wlan/wlan_dev.c:359:53
	ldr	r2, [sp, #8]
	.loc	3 359 24                        @ rt-thread/components/drivers/wlan/wlan_dev.c:359:24
	add.w	r0, r0, r2, lsl #3
	.loc	3 359 56                        @ rt-thread/components/drivers/wlan/wlan_dev.c:359:56
	ldr	r0, [r0, #124]
	add	r1, sp, #20
	.loc	3 359 22                        @ rt-thread/components/drivers/wlan/wlan_dev.c:359:22
	str.w	r0, [r1, r2, lsl #2]
	.loc	3 360 5 is_stmt 1               @ rt-thread/components/drivers/wlan/wlan_dev.c:360:5
	b	.LBB13_7
.Ltmp169:
.LBB13_7:                               @   in Loop: Header=BB13_5 Depth=1
	.loc	3 356 45                        @ rt-thread/components/drivers/wlan/wlan_dev.c:356:45
	ldr	r0, [sp, #8]
	adds	r0, #1
	str	r0, [sp, #8]
	.loc	3 356 5 is_stmt 0               @ rt-thread/components/drivers/wlan/wlan_dev.c:356:5
	b	.LBB13_5
.Ltmp170:
.LBB13_8:
	.loc	3 361 28 is_stmt 1              @ rt-thread/components/drivers/wlan/wlan_dev.c:361:28
	ldr	r0, [sp, #4]
	.loc	3 361 5 is_stmt 0               @ rt-thread/components/drivers/wlan/wlan_dev.c:361:5
	bl	rt_hw_interrupt_enable
	movs	r0, #0
.Ltmp171:
	.loc	3 364 12 is_stmt 1              @ rt-thread/components/drivers/wlan/wlan_dev.c:364:12
	str	r0, [sp, #8]
	.loc	3 364 10 is_stmt 0              @ rt-thread/components/drivers/wlan/wlan_dev.c:364:10
	b	.LBB13_9
.LBB13_9:                               @ =>This Inner Loop Header: Depth=1
.Ltmp172:
	.loc	3 364 17                        @ rt-thread/components/drivers/wlan/wlan_dev.c:364:17
	ldr	r0, [sp, #8]
.Ltmp173:
	.loc	3 364 5                         @ rt-thread/components/drivers/wlan/wlan_dev.c:364:5
	cmp	r0, #1
	bgt	.LBB13_14
	b	.LBB13_10
.LBB13_10:                              @   in Loop: Header=BB13_9 Depth=1
.Ltmp174:
	.loc	3 366 21 is_stmt 1              @ rt-thread/components/drivers/wlan/wlan_dev.c:366:21
	ldr	r1, [sp, #8]
	add	r0, sp, #12
	.loc	3 366 13 is_stmt 0              @ rt-thread/components/drivers/wlan/wlan_dev.c:366:13
	ldr.w	r0, [r0, r1, lsl #2]
.Ltmp175:
	.loc	3 366 13                        @ rt-thread/components/drivers/wlan/wlan_dev.c:366:13
	cbz	r0, .LBB13_12
	b	.LBB13_11
.LBB13_11:                              @   in Loop: Header=BB13_9 Depth=1
.Ltmp176:
	.loc	3 368 21 is_stmt 1              @ rt-thread/components/drivers/wlan/wlan_dev.c:368:21
	ldr.w	lr, [sp, #8]
	add	r0, sp, #12
	.loc	3 368 13 is_stmt 0              @ rt-thread/components/drivers/wlan/wlan_dev.c:368:13
	ldr.w	r12, [r0, lr, lsl #2]
	.loc	3 368 24                        @ rt-thread/components/drivers/wlan/wlan_dev.c:368:24
	ldr	r0, [sp, #36]
	.loc	3 368 32                        @ rt-thread/components/drivers/wlan/wlan_dev.c:368:32
	ldrb.w	r1, [sp, #35]
	.loc	3 368 39                        @ rt-thread/components/drivers/wlan/wlan_dev.c:368:39
	ldr	r2, [sp, #28]
	add	r3, sp, #20
	.loc	3 368 45                        @ rt-thread/components/drivers/wlan/wlan_dev.c:368:45
	ldr.w	r3, [r3, lr, lsl #2]
	.loc	3 368 13                        @ rt-thread/components/drivers/wlan/wlan_dev.c:368:13
	blx	r12
	.loc	3 369 9 is_stmt 1               @ rt-thread/components/drivers/wlan/wlan_dev.c:369:9
	b	.LBB13_12
.Ltmp177:
.LBB13_12:                              @   in Loop: Header=BB13_9 Depth=1
	.loc	3 370 5                         @ rt-thread/components/drivers/wlan/wlan_dev.c:370:5
	b	.LBB13_13
.Ltmp178:
.LBB13_13:                              @   in Loop: Header=BB13_9 Depth=1
	.loc	3 364 45                        @ rt-thread/components/drivers/wlan/wlan_dev.c:364:45
	ldr	r0, [sp, #8]
	adds	r0, #1
	str	r0, [sp, #8]
	.loc	3 364 5 is_stmt 0               @ rt-thread/components/drivers/wlan/wlan_dev.c:364:5
	b	.LBB13_9
.Ltmp179:
.LBB13_14:
	.loc	3 371 1 is_stmt 1               @ rt-thread/components/drivers/wlan/wlan_dev.c:371:1
	add	sp, #40
	pop	{r7, pc}
.Ltmp180:
.Lfunc_end13:
	.size	rt_wlan_dev_indicate_event_handle, .Lfunc_end13-rt_wlan_dev_indicate_event_handle
	.cfi_endproc
	.cantunwind
	.fnend
                                        @ -- End function
	.section	.text.rt_wlan_dev_enter_promisc,"ax",%progbits
	.hidden	rt_wlan_dev_enter_promisc       @ -- Begin function rt_wlan_dev_enter_promisc
	.globl	rt_wlan_dev_enter_promisc
	.p2align	3
	.type	rt_wlan_dev_enter_promisc,%function
	.code	16                              @ @rt_wlan_dev_enter_promisc
	.thumb_func
rt_wlan_dev_enter_promisc:
.Lfunc_begin14:
	.loc	3 374 0                         @ rt-thread/components/drivers/wlan/wlan_dev.c:374:0
	.fnstart
	.cfi_startproc
@ %bb.0:
	.save	{r7, lr}
	push	{r7, lr}
	.cfi_def_cfa_offset 8
	.cfi_offset lr, -4
	.cfi_offset r7, -8
	.pad	#16
	sub	sp, #16
	.cfi_def_cfa_offset 24
	str	r0, [sp, #8]
	movs	r0, #0
.Ltmp181:
	.loc	3 375 14 prologue_end           @ rt-thread/components/drivers/wlan/wlan_dev.c:375:14
	str	r0, [sp, #4]
	movs	r0, #1
	.loc	3 376 9                         @ rt-thread/components/drivers/wlan/wlan_dev.c:376:9
	str	r0, [sp]
.Ltmp182:
	.loc	3 378 9                         @ rt-thread/components/drivers/wlan/wlan_dev.c:378:9
	ldr	r0, [sp, #8]
.Ltmp183:
	.loc	3 378 9 is_stmt 0               @ rt-thread/components/drivers/wlan/wlan_dev.c:378:9
	cbnz	r0, .LBB14_2
	b	.LBB14_1
.LBB14_1:
	.loc	3 0 9                           @ rt-thread/components/drivers/wlan/wlan_dev.c:0:9
	mvn	r0, #7
.Ltmp184:
	.loc	3 380 9 is_stmt 1               @ rt-thread/components/drivers/wlan/wlan_dev.c:380:9
	str	r0, [sp, #12]
	b	.LBB14_3
.Ltmp185:
.LBB14_2:
	.loc	3 383 32                        @ rt-thread/components/drivers/wlan/wlan_dev.c:383:32
	ldr	r0, [sp, #8]
	movs	r1, #27
	mov	r2, sp
	.loc	3 383 14 is_stmt 0              @ rt-thread/components/drivers/wlan/wlan_dev.c:383:14
	bl	rt_device_control
	.loc	3 383 12                        @ rt-thread/components/drivers/wlan/wlan_dev.c:383:12
	str	r0, [sp, #4]
	.loc	3 384 12 is_stmt 1              @ rt-thread/components/drivers/wlan/wlan_dev.c:384:12
	ldr	r0, [sp, #4]
	.loc	3 384 5 is_stmt 0               @ rt-thread/components/drivers/wlan/wlan_dev.c:384:5
	str	r0, [sp, #12]
	b	.LBB14_3
.LBB14_3:
	.loc	3 385 1 is_stmt 1               @ rt-thread/components/drivers/wlan/wlan_dev.c:385:1
	ldr	r0, [sp, #12]
	add	sp, #16
	pop	{r7, pc}
.Ltmp186:
.Lfunc_end14:
	.size	rt_wlan_dev_enter_promisc, .Lfunc_end14-rt_wlan_dev_enter_promisc
	.cfi_endproc
	.cantunwind
	.fnend
                                        @ -- End function
	.section	.text.rt_wlan_dev_exit_promisc,"ax",%progbits
	.hidden	rt_wlan_dev_exit_promisc        @ -- Begin function rt_wlan_dev_exit_promisc
	.globl	rt_wlan_dev_exit_promisc
	.p2align	3
	.type	rt_wlan_dev_exit_promisc,%function
	.code	16                              @ @rt_wlan_dev_exit_promisc
	.thumb_func
rt_wlan_dev_exit_promisc:
.Lfunc_begin15:
	.loc	3 388 0                         @ rt-thread/components/drivers/wlan/wlan_dev.c:388:0
	.fnstart
	.cfi_startproc
@ %bb.0:
	.save	{r7, lr}
	push	{r7, lr}
	.cfi_def_cfa_offset 8
	.cfi_offset lr, -4
	.cfi_offset r7, -8
	.pad	#16
	sub	sp, #16
	.cfi_def_cfa_offset 24
	str	r0, [sp, #8]
	movs	r0, #0
.Ltmp187:
	.loc	3 389 14 prologue_end           @ rt-thread/components/drivers/wlan/wlan_dev.c:389:14
	str	r0, [sp, #4]
	.loc	3 390 9                         @ rt-thread/components/drivers/wlan/wlan_dev.c:390:9
	str	r0, [sp]
.Ltmp188:
	.loc	3 392 9                         @ rt-thread/components/drivers/wlan/wlan_dev.c:392:9
	ldr	r0, [sp, #8]
.Ltmp189:
	.loc	3 392 9 is_stmt 0               @ rt-thread/components/drivers/wlan/wlan_dev.c:392:9
	cbnz	r0, .LBB15_2
	b	.LBB15_1
.LBB15_1:
	.loc	3 0 9                           @ rt-thread/components/drivers/wlan/wlan_dev.c:0:9
	mvn	r0, #7
.Ltmp190:
	.loc	3 394 9 is_stmt 1               @ rt-thread/components/drivers/wlan/wlan_dev.c:394:9
	str	r0, [sp, #12]
	b	.LBB15_3
.Ltmp191:
.LBB15_2:
	.loc	3 397 32                        @ rt-thread/components/drivers/wlan/wlan_dev.c:397:32
	ldr	r0, [sp, #8]
	movs	r1, #27
	mov	r2, sp
	.loc	3 397 14 is_stmt 0              @ rt-thread/components/drivers/wlan/wlan_dev.c:397:14
	bl	rt_device_control
	.loc	3 397 12                        @ rt-thread/components/drivers/wlan/wlan_dev.c:397:12
	str	r0, [sp, #4]
	.loc	3 398 12 is_stmt 1              @ rt-thread/components/drivers/wlan/wlan_dev.c:398:12
	ldr	r0, [sp, #4]
	.loc	3 398 5 is_stmt 0               @ rt-thread/components/drivers/wlan/wlan_dev.c:398:5
	str	r0, [sp, #12]
	b	.LBB15_3
.LBB15_3:
	.loc	3 399 1 is_stmt 1               @ rt-thread/components/drivers/wlan/wlan_dev.c:399:1
	ldr	r0, [sp, #12]
	add	sp, #16
	pop	{r7, pc}
.Ltmp192:
.Lfunc_end15:
	.size	rt_wlan_dev_exit_promisc, .Lfunc_end15-rt_wlan_dev_exit_promisc
	.cfi_endproc
	.cantunwind
	.fnend
                                        @ -- End function
	.section	.text.rt_wlan_dev_set_promisc_callback,"ax",%progbits
	.hidden	rt_wlan_dev_set_promisc_callback @ -- Begin function rt_wlan_dev_set_promisc_callback
	.globl	rt_wlan_dev_set_promisc_callback
	.p2align	3
	.type	rt_wlan_dev_set_promisc_callback,%function
	.code	16                              @ @rt_wlan_dev_set_promisc_callback
	.thumb_func
rt_wlan_dev_set_promisc_callback:
.Lfunc_begin16:
	.loc	3 402 0                         @ rt-thread/components/drivers/wlan/wlan_dev.c:402:0
	.fnstart
	.cfi_startproc
@ %bb.0:
	.pad	#12
	sub	sp, #12
	.cfi_def_cfa_offset 12
	str	r0, [sp, #4]
	str	r1, [sp]
.Ltmp193:
	.loc	3 403 9 prologue_end            @ rt-thread/components/drivers/wlan/wlan_dev.c:403:9
	ldr	r0, [sp, #4]
.Ltmp194:
	.loc	3 403 9 is_stmt 0               @ rt-thread/components/drivers/wlan/wlan_dev.c:403:9
	cbnz	r0, .LBB16_2
	b	.LBB16_1
.LBB16_1:
	.loc	3 0 9                           @ rt-thread/components/drivers/wlan/wlan_dev.c:0:9
	mvn	r0, #7
.Ltmp195:
	.loc	3 405 9 is_stmt 1               @ rt-thread/components/drivers/wlan/wlan_dev.c:405:9
	str	r0, [sp, #8]
	b	.LBB16_3
.Ltmp196:
.LBB16_2:
	.loc	3 407 32                        @ rt-thread/components/drivers/wlan/wlan_dev.c:407:32
	ldr	r0, [sp]
	.loc	3 407 5 is_stmt 0               @ rt-thread/components/drivers/wlan/wlan_dev.c:407:5
	ldr	r1, [sp, #4]
	.loc	3 407 30                        @ rt-thread/components/drivers/wlan/wlan_dev.c:407:30
	str.w	r0, [r1, #296]
	movs	r0, #0
	.loc	3 409 5 is_stmt 1               @ rt-thread/components/drivers/wlan/wlan_dev.c:409:5
	str	r0, [sp, #8]
	b	.LBB16_3
.LBB16_3:
	.loc	3 410 1                         @ rt-thread/components/drivers/wlan/wlan_dev.c:410:1
	ldr	r0, [sp, #8]
	add	sp, #12
	bx	lr
.Ltmp197:
.Lfunc_end16:
	.size	rt_wlan_dev_set_promisc_callback, .Lfunc_end16-rt_wlan_dev_set_promisc_callback
	.cfi_endproc
	.cantunwind
	.fnend
                                        @ -- End function
	.section	.text.rt_wlan_dev_promisc_handler,"ax",%progbits
	.hidden	rt_wlan_dev_promisc_handler     @ -- Begin function rt_wlan_dev_promisc_handler
	.globl	rt_wlan_dev_promisc_handler
	.p2align	3
	.type	rt_wlan_dev_promisc_handler,%function
	.code	16                              @ @rt_wlan_dev_promisc_handler
	.thumb_func
rt_wlan_dev_promisc_handler:
.Lfunc_begin17:
	.loc	3 413 0                         @ rt-thread/components/drivers/wlan/wlan_dev.c:413:0
	.fnstart
	.cfi_startproc
@ %bb.0:
	.save	{r7, lr}
	push	{r7, lr}
	.cfi_def_cfa_offset 8
	.cfi_offset lr, -4
	.cfi_offset r7, -8
	.pad	#16
	sub	sp, #16
	.cfi_def_cfa_offset 24
	str	r0, [sp, #12]
	str	r1, [sp, #8]
	str	r2, [sp, #4]
.Ltmp198:
	.loc	3 416 9 prologue_end            @ rt-thread/components/drivers/wlan/wlan_dev.c:416:9
	ldr	r0, [sp, #12]
.Ltmp199:
	.loc	3 416 9 is_stmt 0               @ rt-thread/components/drivers/wlan/wlan_dev.c:416:9
	cbnz	r0, .LBB17_2
	b	.LBB17_1
.LBB17_1:
.Ltmp200:
	.loc	3 418 9 is_stmt 1               @ rt-thread/components/drivers/wlan/wlan_dev.c:418:9
	b	.LBB17_4
.Ltmp201:
.LBB17_2:
	.loc	3 421 16                        @ rt-thread/components/drivers/wlan/wlan_dev.c:421:16
	ldr	r0, [sp, #12]
	.loc	3 421 24 is_stmt 0              @ rt-thread/components/drivers/wlan/wlan_dev.c:421:24
	ldr.w	r0, [r0, #296]
	.loc	3 421 14                        @ rt-thread/components/drivers/wlan/wlan_dev.c:421:14
	str	r0, [sp]
.Ltmp202:
	.loc	3 423 9 is_stmt 1               @ rt-thread/components/drivers/wlan/wlan_dev.c:423:9
	ldr	r0, [sp]
.Ltmp203:
	.loc	3 423 9 is_stmt 0               @ rt-thread/components/drivers/wlan/wlan_dev.c:423:9
	cbz	r0, .LBB17_4
	b	.LBB17_3
.LBB17_3:
.Ltmp204:
	.loc	3 425 9 is_stmt 1               @ rt-thread/components/drivers/wlan/wlan_dev.c:425:9
	ldr	r3, [sp]
	.loc	3 425 18 is_stmt 0              @ rt-thread/components/drivers/wlan/wlan_dev.c:425:18
	ldr	r0, [sp, #12]
	.loc	3 425 26                        @ rt-thread/components/drivers/wlan/wlan_dev.c:425:26
	ldr	r1, [sp, #8]
	.loc	3 425 32                        @ rt-thread/components/drivers/wlan/wlan_dev.c:425:32
	ldr	r2, [sp, #4]
	.loc	3 425 9                         @ rt-thread/components/drivers/wlan/wlan_dev.c:425:9
	blx	r3
	.loc	3 426 5 is_stmt 1               @ rt-thread/components/drivers/wlan/wlan_dev.c:426:5
	b	.LBB17_4
.Ltmp205:
.LBB17_4:
	.loc	3 427 1                         @ rt-thread/components/drivers/wlan/wlan_dev.c:427:1
	add	sp, #16
	pop	{r7, pc}
.Ltmp206:
.Lfunc_end17:
	.size	rt_wlan_dev_promisc_handler, .Lfunc_end17-rt_wlan_dev_promisc_handler
	.cfi_endproc
	.cantunwind
	.fnend
                                        @ -- End function
	.section	.text.rt_wlan_dev_cfg_filter,"ax",%progbits
	.hidden	rt_wlan_dev_cfg_filter          @ -- Begin function rt_wlan_dev_cfg_filter
	.globl	rt_wlan_dev_cfg_filter
	.p2align	3
	.type	rt_wlan_dev_cfg_filter,%function
	.code	16                              @ @rt_wlan_dev_cfg_filter
	.thumb_func
rt_wlan_dev_cfg_filter:
.Lfunc_begin18:
	.loc	3 430 0                         @ rt-thread/components/drivers/wlan/wlan_dev.c:430:0
	.fnstart
	.cfi_startproc
@ %bb.0:
	.save	{r7, lr}
	push	{r7, lr}
	.cfi_def_cfa_offset 8
	.cfi_offset lr, -4
	.cfi_offset r7, -8
	.pad	#16
	sub	sp, #16
	.cfi_def_cfa_offset 24
	str	r0, [sp, #8]
	str	r1, [sp, #4]
	movs	r0, #0
.Ltmp207:
	.loc	3 431 14 prologue_end           @ rt-thread/components/drivers/wlan/wlan_dev.c:431:14
	str	r0, [sp]
.Ltmp208:
	.loc	3 433 9                         @ rt-thread/components/drivers/wlan/wlan_dev.c:433:9
	ldr	r0, [sp, #8]
.Ltmp209:
	.loc	3 433 9 is_stmt 0               @ rt-thread/components/drivers/wlan/wlan_dev.c:433:9
	cbnz	r0, .LBB18_2
	b	.LBB18_1
.LBB18_1:
	.loc	3 0 9                           @ rt-thread/components/drivers/wlan/wlan_dev.c:0:9
	mvn	r0, #7
.Ltmp210:
	.loc	3 435 9 is_stmt 1               @ rt-thread/components/drivers/wlan/wlan_dev.c:435:9
	str	r0, [sp, #12]
	b	.LBB18_5
.Ltmp211:
.LBB18_2:
	.loc	3 437 9                         @ rt-thread/components/drivers/wlan/wlan_dev.c:437:9
	ldr	r0, [sp, #4]
.Ltmp212:
	.loc	3 437 9 is_stmt 0               @ rt-thread/components/drivers/wlan/wlan_dev.c:437:9
	cbnz	r0, .LBB18_4
	b	.LBB18_3
.LBB18_3:
	.loc	3 0 9                           @ rt-thread/components/drivers/wlan/wlan_dev.c:0:9
	mov.w	r0, #-1
.Ltmp213:
	.loc	3 439 9 is_stmt 1               @ rt-thread/components/drivers/wlan/wlan_dev.c:439:9
	str	r0, [sp, #12]
	b	.LBB18_5
.Ltmp214:
.LBB18_4:
	.loc	3 442 32                        @ rt-thread/components/drivers/wlan/wlan_dev.c:442:32
	ldr	r0, [sp, #8]
	.loc	3 442 75 is_stmt 0              @ rt-thread/components/drivers/wlan/wlan_dev.c:442:75
	ldr	r2, [sp, #4]
	movs	r1, #28
	.loc	3 442 14                        @ rt-thread/components/drivers/wlan/wlan_dev.c:442:14
	bl	rt_device_control
	.loc	3 442 12                        @ rt-thread/components/drivers/wlan/wlan_dev.c:442:12
	str	r0, [sp]
	.loc	3 443 12 is_stmt 1              @ rt-thread/components/drivers/wlan/wlan_dev.c:443:12
	ldr	r0, [sp]
	.loc	3 443 5 is_stmt 0               @ rt-thread/components/drivers/wlan/wlan_dev.c:443:5
	str	r0, [sp, #12]
	b	.LBB18_5
.LBB18_5:
	.loc	3 444 1 is_stmt 1               @ rt-thread/components/drivers/wlan/wlan_dev.c:444:1
	ldr	r0, [sp, #12]
	add	sp, #16
	pop	{r7, pc}
.Ltmp215:
.Lfunc_end18:
	.size	rt_wlan_dev_cfg_filter, .Lfunc_end18-rt_wlan_dev_cfg_filter
	.cfi_endproc
	.cantunwind
	.fnend
                                        @ -- End function
	.section	.text.rt_wlan_dev_set_channel,"ax",%progbits
	.hidden	rt_wlan_dev_set_channel         @ -- Begin function rt_wlan_dev_set_channel
	.globl	rt_wlan_dev_set_channel
	.p2align	3
	.type	rt_wlan_dev_set_channel,%function
	.code	16                              @ @rt_wlan_dev_set_channel
	.thumb_func
rt_wlan_dev_set_channel:
.Lfunc_begin19:
	.loc	3 447 0                         @ rt-thread/components/drivers/wlan/wlan_dev.c:447:0
	.fnstart
	.cfi_startproc
@ %bb.0:
	.save	{r7, lr}
	push	{r7, lr}
	.cfi_def_cfa_offset 8
	.cfi_offset lr, -4
	.cfi_offset r7, -8
	.pad	#16
	sub	sp, #16
	.cfi_def_cfa_offset 24
	str	r0, [sp, #8]
	str	r1, [sp, #4]
	movs	r0, #0
.Ltmp216:
	.loc	3 448 14 prologue_end           @ rt-thread/components/drivers/wlan/wlan_dev.c:448:14
	str	r0, [sp]
.Ltmp217:
	.loc	3 450 9                         @ rt-thread/components/drivers/wlan/wlan_dev.c:450:9
	ldr	r0, [sp, #8]
.Ltmp218:
	.loc	3 450 9 is_stmt 0               @ rt-thread/components/drivers/wlan/wlan_dev.c:450:9
	cbnz	r0, .LBB19_2
	b	.LBB19_1
.LBB19_1:
	.loc	3 0 9                           @ rt-thread/components/drivers/wlan/wlan_dev.c:0:9
	mvn	r0, #7
.Ltmp219:
	.loc	3 452 9 is_stmt 1               @ rt-thread/components/drivers/wlan/wlan_dev.c:452:9
	str	r0, [sp, #12]
	b	.LBB19_5
.Ltmp220:
.LBB19_2:
	.loc	3 454 9                         @ rt-thread/components/drivers/wlan/wlan_dev.c:454:9
	ldr	r0, [sp, #4]
.Ltmp221:
	.loc	3 454 9 is_stmt 0               @ rt-thread/components/drivers/wlan/wlan_dev.c:454:9
	cmp.w	r0, #-1
	bgt	.LBB19_4
	b	.LBB19_3
.LBB19_3:
	.loc	3 0 9                           @ rt-thread/components/drivers/wlan/wlan_dev.c:0:9
	mov.w	r0, #-1
.Ltmp222:
	.loc	3 456 9 is_stmt 1               @ rt-thread/components/drivers/wlan/wlan_dev.c:456:9
	str	r0, [sp, #12]
	b	.LBB19_5
.Ltmp223:
.LBB19_4:
	.loc	3 459 32                        @ rt-thread/components/drivers/wlan/wlan_dev.c:459:32
	ldr	r0, [sp, #8]
	movs	r1, #30
	add	r2, sp, #4
	.loc	3 459 14 is_stmt 0              @ rt-thread/components/drivers/wlan/wlan_dev.c:459:14
	bl	rt_device_control
	.loc	3 459 12                        @ rt-thread/components/drivers/wlan/wlan_dev.c:459:12
	str	r0, [sp]
	.loc	3 460 12 is_stmt 1              @ rt-thread/components/drivers/wlan/wlan_dev.c:460:12
	ldr	r0, [sp]
	.loc	3 460 5 is_stmt 0               @ rt-thread/components/drivers/wlan/wlan_dev.c:460:5
	str	r0, [sp, #12]
	b	.LBB19_5
.LBB19_5:
	.loc	3 461 1 is_stmt 1               @ rt-thread/components/drivers/wlan/wlan_dev.c:461:1
	ldr	r0, [sp, #12]
	add	sp, #16
	pop	{r7, pc}
.Ltmp224:
.Lfunc_end19:
	.size	rt_wlan_dev_set_channel, .Lfunc_end19-rt_wlan_dev_set_channel
	.cfi_endproc
	.cantunwind
	.fnend
                                        @ -- End function
	.section	.text.rt_wlan_dev_get_channel,"ax",%progbits
	.hidden	rt_wlan_dev_get_channel         @ -- Begin function rt_wlan_dev_get_channel
	.globl	rt_wlan_dev_get_channel
	.p2align	3
	.type	rt_wlan_dev_get_channel,%function
	.code	16                              @ @rt_wlan_dev_get_channel
	.thumb_func
rt_wlan_dev_get_channel:
.Lfunc_begin20:
	.loc	3 464 0                         @ rt-thread/components/drivers/wlan/wlan_dev.c:464:0
	.fnstart
	.cfi_startproc
@ %bb.0:
	.save	{r7, lr}
	push	{r7, lr}
	.cfi_def_cfa_offset 8
	.cfi_offset lr, -4
	.cfi_offset r7, -8
	.pad	#16
	sub	sp, #16
	.cfi_def_cfa_offset 24
	str	r0, [sp, #8]
	movs	r0, #0
.Ltmp225:
	.loc	3 465 14 prologue_end           @ rt-thread/components/drivers/wlan/wlan_dev.c:465:14
	str	r0, [sp, #4]
	mov.w	r0, #-1
	.loc	3 466 9                         @ rt-thread/components/drivers/wlan/wlan_dev.c:466:9
	str	r0, [sp]
.Ltmp226:
	.loc	3 468 9                         @ rt-thread/components/drivers/wlan/wlan_dev.c:468:9
	ldr	r0, [sp, #8]
.Ltmp227:
	.loc	3 468 9 is_stmt 0               @ rt-thread/components/drivers/wlan/wlan_dev.c:468:9
	cbnz	r0, .LBB20_2
	b	.LBB20_1
.LBB20_1:
	.loc	3 0 9                           @ rt-thread/components/drivers/wlan/wlan_dev.c:0:9
	mvn	r0, #7
.Ltmp228:
	.loc	3 470 9 is_stmt 1               @ rt-thread/components/drivers/wlan/wlan_dev.c:470:9
	bl	rt_set_errno
	mov.w	r0, #-1
	.loc	3 471 9                         @ rt-thread/components/drivers/wlan/wlan_dev.c:471:9
	str	r0, [sp, #12]
	b	.LBB20_5
.Ltmp229:
.LBB20_2:
	.loc	3 474 32                        @ rt-thread/components/drivers/wlan/wlan_dev.c:474:32
	ldr	r0, [sp, #8]
	movs	r1, #31
	mov	r2, sp
	.loc	3 474 14 is_stmt 0              @ rt-thread/components/drivers/wlan/wlan_dev.c:474:14
	bl	rt_device_control
	.loc	3 474 12                        @ rt-thread/components/drivers/wlan/wlan_dev.c:474:12
	str	r0, [sp, #4]
.Ltmp230:
	.loc	3 475 9 is_stmt 1               @ rt-thread/components/drivers/wlan/wlan_dev.c:475:9
	ldr	r0, [sp, #4]
.Ltmp231:
	.loc	3 475 9 is_stmt 0               @ rt-thread/components/drivers/wlan/wlan_dev.c:475:9
	cbz	r0, .LBB20_4
	b	.LBB20_3
.LBB20_3:
.Ltmp232:
	.loc	3 477 22 is_stmt 1              @ rt-thread/components/drivers/wlan/wlan_dev.c:477:22
	ldr	r0, [sp, #4]
	.loc	3 477 9 is_stmt 0               @ rt-thread/components/drivers/wlan/wlan_dev.c:477:9
	bl	rt_set_errno
	mov.w	r0, #-1
	.loc	3 478 9 is_stmt 1               @ rt-thread/components/drivers/wlan/wlan_dev.c:478:9
	str	r0, [sp, #12]
	b	.LBB20_5
.Ltmp233:
.LBB20_4:
	.loc	3 481 12                        @ rt-thread/components/drivers/wlan/wlan_dev.c:481:12
	ldr	r0, [sp]
	.loc	3 481 5 is_stmt 0               @ rt-thread/components/drivers/wlan/wlan_dev.c:481:5
	str	r0, [sp, #12]
	b	.LBB20_5
.LBB20_5:
	.loc	3 482 1 is_stmt 1               @ rt-thread/components/drivers/wlan/wlan_dev.c:482:1
	ldr	r0, [sp, #12]
	add	sp, #16
	pop	{r7, pc}
.Ltmp234:
.Lfunc_end20:
	.size	rt_wlan_dev_get_channel, .Lfunc_end20-rt_wlan_dev_get_channel
	.cfi_endproc
	.cantunwind
	.fnend
                                        @ -- End function
	.section	.text.rt_wlan_dev_set_country,"ax",%progbits
	.hidden	rt_wlan_dev_set_country         @ -- Begin function rt_wlan_dev_set_country
	.globl	rt_wlan_dev_set_country
	.p2align	3
	.type	rt_wlan_dev_set_country,%function
	.code	16                              @ @rt_wlan_dev_set_country
	.thumb_func
rt_wlan_dev_set_country:
.Lfunc_begin21:
	.loc	3 485 0                         @ rt-thread/components/drivers/wlan/wlan_dev.c:485:0
	.fnstart
	.cfi_startproc
@ %bb.0:
	.save	{r7, lr}
	push	{r7, lr}
	.cfi_def_cfa_offset 8
	.cfi_offset lr, -4
	.cfi_offset r7, -8
	.pad	#16
	sub	sp, #16
	.cfi_def_cfa_offset 24
                                        @ kill: def $r2 killed $r1
	str	r0, [sp, #8]
	strb.w	r1, [sp, #7]
	movs	r0, #0
.Ltmp235:
	.loc	3 486 9 prologue_end            @ rt-thread/components/drivers/wlan/wlan_dev.c:486:9
	str	r0, [sp]
.Ltmp236:
	.loc	3 488 9                         @ rt-thread/components/drivers/wlan/wlan_dev.c:488:9
	ldr	r0, [sp, #8]
.Ltmp237:
	.loc	3 488 9 is_stmt 0               @ rt-thread/components/drivers/wlan/wlan_dev.c:488:9
	cbnz	r0, .LBB21_2
	b	.LBB21_1
.LBB21_1:
	.loc	3 0 9                           @ rt-thread/components/drivers/wlan/wlan_dev.c:0:9
	mvn	r0, #7
.Ltmp238:
	.loc	3 490 9 is_stmt 1               @ rt-thread/components/drivers/wlan/wlan_dev.c:490:9
	str	r0, [sp, #12]
	b	.LBB21_3
.Ltmp239:
.LBB21_2:
	.loc	3 493 32                        @ rt-thread/components/drivers/wlan/wlan_dev.c:493:32
	ldr	r0, [sp, #8]
	movs	r1, #32
	add.w	r2, sp, #7
	.loc	3 493 14 is_stmt 0              @ rt-thread/components/drivers/wlan/wlan_dev.c:493:14
	bl	rt_device_control
	.loc	3 493 12                        @ rt-thread/components/drivers/wlan/wlan_dev.c:493:12
	str	r0, [sp]
	.loc	3 494 12 is_stmt 1              @ rt-thread/components/drivers/wlan/wlan_dev.c:494:12
	ldr	r0, [sp]
	.loc	3 494 5 is_stmt 0               @ rt-thread/components/drivers/wlan/wlan_dev.c:494:5
	str	r0, [sp, #12]
	b	.LBB21_3
.LBB21_3:
	.loc	3 495 1 is_stmt 1               @ rt-thread/components/drivers/wlan/wlan_dev.c:495:1
	ldr	r0, [sp, #12]
	add	sp, #16
	pop	{r7, pc}
.Ltmp240:
.Lfunc_end21:
	.size	rt_wlan_dev_set_country, .Lfunc_end21-rt_wlan_dev_set_country
	.cfi_endproc
	.cantunwind
	.fnend
                                        @ -- End function
	.section	.text.rt_wlan_dev_get_country,"ax",%progbits
	.hidden	rt_wlan_dev_get_country         @ -- Begin function rt_wlan_dev_get_country
	.globl	rt_wlan_dev_get_country
	.p2align	3
	.type	rt_wlan_dev_get_country,%function
	.code	16                              @ @rt_wlan_dev_get_country
	.thumb_func
rt_wlan_dev_get_country:
.Lfunc_begin22:
	.loc	3 498 0                         @ rt-thread/components/drivers/wlan/wlan_dev.c:498:0
	.fnstart
	.cfi_startproc
@ %bb.0:
	.save	{r7, lr}
	push	{r7, lr}
	.cfi_def_cfa_offset 8
	.cfi_offset lr, -4
	.cfi_offset r7, -8
	.pad	#16
	sub	sp, #16
	.cfi_def_cfa_offset 24
	str	r0, [sp, #8]
	movs	r0, #0
.Ltmp241:
	.loc	3 499 9 prologue_end            @ rt-thread/components/drivers/wlan/wlan_dev.c:499:9
	str	r0, [sp, #4]
	movs	r0, #232
	.loc	3 500 23                        @ rt-thread/components/drivers/wlan/wlan_dev.c:500:23
	strb.w	r0, [sp, #3]
.Ltmp242:
	.loc	3 502 9                         @ rt-thread/components/drivers/wlan/wlan_dev.c:502:9
	ldr	r0, [sp, #8]
.Ltmp243:
	.loc	3 502 9 is_stmt 0               @ rt-thread/components/drivers/wlan/wlan_dev.c:502:9
	cbnz	r0, .LBB22_2
	b	.LBB22_1
.LBB22_1:
	.loc	3 0 9                           @ rt-thread/components/drivers/wlan/wlan_dev.c:0:9
	mvn	r0, #7
.Ltmp244:
	.loc	3 504 9 is_stmt 1               @ rt-thread/components/drivers/wlan/wlan_dev.c:504:9
	bl	rt_set_errno
	movs	r0, #232
	.loc	3 505 9                         @ rt-thread/components/drivers/wlan/wlan_dev.c:505:9
	strb.w	r0, [sp, #15]
	b	.LBB22_5
.Ltmp245:
.LBB22_2:
	.loc	3 508 32                        @ rt-thread/components/drivers/wlan/wlan_dev.c:508:32
	ldr	r0, [sp, #8]
	movs	r1, #33
	add.w	r2, sp, #3
	.loc	3 508 14 is_stmt 0              @ rt-thread/components/drivers/wlan/wlan_dev.c:508:14
	bl	rt_device_control
	.loc	3 508 12                        @ rt-thread/components/drivers/wlan/wlan_dev.c:508:12
	str	r0, [sp, #4]
.Ltmp246:
	.loc	3 509 9 is_stmt 1               @ rt-thread/components/drivers/wlan/wlan_dev.c:509:9
	ldr	r0, [sp, #4]
.Ltmp247:
	.loc	3 509 9 is_stmt 0               @ rt-thread/components/drivers/wlan/wlan_dev.c:509:9
	cbz	r0, .LBB22_4
	b	.LBB22_3
.LBB22_3:
.Ltmp248:
	.loc	3 511 22 is_stmt 1              @ rt-thread/components/drivers/wlan/wlan_dev.c:511:22
	ldr	r0, [sp, #4]
	.loc	3 511 9 is_stmt 0               @ rt-thread/components/drivers/wlan/wlan_dev.c:511:9
	bl	rt_set_errno
	movs	r0, #232
	.loc	3 512 9 is_stmt 1               @ rt-thread/components/drivers/wlan/wlan_dev.c:512:9
	strb.w	r0, [sp, #15]
	b	.LBB22_5
.Ltmp249:
.LBB22_4:
	.loc	3 515 12                        @ rt-thread/components/drivers/wlan/wlan_dev.c:515:12
	ldrb.w	r0, [sp, #3]
	.loc	3 515 5 is_stmt 0               @ rt-thread/components/drivers/wlan/wlan_dev.c:515:5
	strb.w	r0, [sp, #15]
	b	.LBB22_5
.LBB22_5:
	.loc	3 516 1 is_stmt 1               @ rt-thread/components/drivers/wlan/wlan_dev.c:516:1
	ldrb.w	r0, [sp, #15]
	add	sp, #16
	pop	{r7, pc}
.Ltmp250:
.Lfunc_end22:
	.size	rt_wlan_dev_get_country, .Lfunc_end22-rt_wlan_dev_get_country
	.cfi_endproc
	.cantunwind
	.fnend
                                        @ -- End function
	.section	.text.rt_wlan_dev_scan,"ax",%progbits
	.hidden	rt_wlan_dev_scan                @ -- Begin function rt_wlan_dev_scan
	.globl	rt_wlan_dev_scan
	.p2align	3
	.type	rt_wlan_dev_scan,%function
	.code	16                              @ @rt_wlan_dev_scan
	.thumb_func
rt_wlan_dev_scan:
.Lfunc_begin23:
	.loc	3 519 0                         @ rt-thread/components/drivers/wlan/wlan_dev.c:519:0
	.fnstart
	.cfi_startproc
@ %bb.0:
	.save	{r7, lr}
	push	{r7, lr}
	.cfi_def_cfa_offset 8
	.cfi_offset lr, -4
	.cfi_offset r7, -8
	.pad	#72
	sub	sp, #72
	.cfi_def_cfa_offset 80
	str	r0, [sp, #64]
	str	r1, [sp, #60]
	add	r0, sp, #12
	movs	r1, #48
.Ltmp251:
	.loc	3 520 25 prologue_end           @ rt-thread/components/drivers/wlan/wlan_dev.c:520:25
	bl	__aeabi_memclr4
	movs	r0, #0
	.loc	3 521 26                        @ rt-thread/components/drivers/wlan/wlan_dev.c:521:26
	str	r0, [sp, #8]
	.loc	3 522 14                        @ rt-thread/components/drivers/wlan/wlan_dev.c:522:14
	str	r0, [sp, #4]
.Ltmp252:
	.loc	3 524 9                         @ rt-thread/components/drivers/wlan/wlan_dev.c:524:9
	ldr	r0, [sp, #64]
.Ltmp253:
	.loc	3 524 9 is_stmt 0               @ rt-thread/components/drivers/wlan/wlan_dev.c:524:9
	cbnz	r0, .LBB23_2
	b	.LBB23_1
.LBB23_1:
	.loc	3 0 9                           @ rt-thread/components/drivers/wlan/wlan_dev.c:0:9
	mvn	r0, #7
.Ltmp254:
	.loc	3 526 9 is_stmt 1               @ rt-thread/components/drivers/wlan/wlan_dev.c:526:9
	str	r0, [sp, #68]
	b	.LBB23_12
.Ltmp255:
.LBB23_2:
	.loc	3 529 9                         @ rt-thread/components/drivers/wlan/wlan_dev.c:529:9
	ldr	r0, [sp, #60]
.Ltmp256:
	.loc	3 529 9 is_stmt 0               @ rt-thread/components/drivers/wlan/wlan_dev.c:529:9
	cmp	r0, #0
	beq	.LBB23_11
	b	.LBB23_3
.LBB23_3:
.Ltmp257:
	.loc	3 531 13 is_stmt 1              @ rt-thread/components/drivers/wlan/wlan_dev.c:531:13
	ldr	r0, [sp, #60]
	.loc	3 531 24 is_stmt 0              @ rt-thread/components/drivers/wlan/wlan_dev.c:531:24
	ldrb	r0, [r0, #16]
.Ltmp258:
	.loc	3 531 13                        @ rt-thread/components/drivers/wlan/wlan_dev.c:531:13
	cmp	r0, #33
	blt	.LBB23_7
	b	.LBB23_4
.LBB23_4:
.Ltmp259:
	.loc	3 533 13 is_stmt 1              @ rt-thread/components/drivers/wlan/wlan_dev.c:533:13
	b	.LBB23_5
.LBB23_5:
.Ltmp260:
	.loc	3 533 13 is_stmt 0              @ rt-thread/components/drivers/wlan/wlan_dev.c:533:13
	movw	r0, :lower16:.L.str
	movt	r0, :upper16:.L.str
	bl	rt_kprintf
	movw	r0, :lower16:.L.str.8
	movt	r0, :upper16:.L.str.8
	movw	r1, #533
	bl	rt_kprintf
	movw	r0, :lower16:.L.str.2
	movt	r0, :upper16:.L.str.2
	bl	rt_kprintf
	b	.LBB23_6
.Ltmp261:
.LBB23_6:
	.loc	3 0 13                          @ rt-thread/components/drivers/wlan/wlan_dev.c:0:13
	mvn	r0, #9
	.loc	3 534 13 is_stmt 1              @ rt-thread/components/drivers/wlan/wlan_dev.c:534:13
	str	r0, [sp, #68]
	b	.LBB23_12
.Ltmp262:
.LBB23_7:
	.loc	3 536 37                        @ rt-thread/components/drivers/wlan/wlan_dev.c:536:37
	ldr	r0, [sp, #60]
	.loc	3 536 43 is_stmt 0              @ rt-thread/components/drivers/wlan/wlan_dev.c:536:43
	add.w	r1, r0, #16
	add	r0, sp, #12
	str	r0, [sp]                        @ 4-byte Spill
	movs	r2, #34
	.loc	3 536 9                         @ rt-thread/components/drivers/wlan/wlan_dev.c:536:9
	bl	rt_memcpy
                                        @ kill: def $r1 killed $r0
	.loc	3 537 29 is_stmt 1              @ rt-thread/components/drivers/wlan/wlan_dev.c:537:29
	ldr	r0, [sp]                        @ 4-byte Reload
	adds	r0, #34
	.loc	3 537 36 is_stmt 0              @ rt-thread/components/drivers/wlan/wlan_dev.c:537:36
	ldr	r1, [sp, #60]
	.loc	3 537 42                        @ rt-thread/components/drivers/wlan/wlan_dev.c:537:42
	adds	r1, #50
	movs	r2, #6
	.loc	3 537 9                         @ rt-thread/components/drivers/wlan/wlan_dev.c:537:9
	bl	rt_memcpy
.Ltmp263:
	.loc	3 538 13 is_stmt 1              @ rt-thread/components/drivers/wlan/wlan_dev.c:538:13
	ldr	r0, [sp, #60]
	.loc	3 538 19 is_stmt 0              @ rt-thread/components/drivers/wlan/wlan_dev.c:538:19
	ldrsh.w	r0, [r0, #12]
.Ltmp264:
	.loc	3 538 13                        @ rt-thread/components/drivers/wlan/wlan_dev.c:538:13
	cmp	r0, #1
	blt	.LBB23_9
	b	.LBB23_8
.LBB23_8:
.Ltmp265:
	.loc	3 540 37 is_stmt 1              @ rt-thread/components/drivers/wlan/wlan_dev.c:540:37
	ldr	r0, [sp, #60]
	.loc	3 540 43 is_stmt 0              @ rt-thread/components/drivers/wlan/wlan_dev.c:540:43
	ldrh	r0, [r0, #12]
	.loc	3 540 35                        @ rt-thread/components/drivers/wlan/wlan_dev.c:540:35
	strh.w	r0, [sp, #52]
	.loc	3 541 37 is_stmt 1              @ rt-thread/components/drivers/wlan/wlan_dev.c:541:37
	ldr	r0, [sp, #60]
	.loc	3 541 43 is_stmt 0              @ rt-thread/components/drivers/wlan/wlan_dev.c:541:43
	ldrh	r0, [r0, #12]
	.loc	3 541 35                        @ rt-thread/components/drivers/wlan/wlan_dev.c:541:35
	strh.w	r0, [sp, #54]
	.loc	3 542 9 is_stmt 1               @ rt-thread/components/drivers/wlan/wlan_dev.c:542:9
	b	.LBB23_10
.Ltmp266:
.LBB23_9:
	.loc	3 0 9 is_stmt 0                 @ rt-thread/components/drivers/wlan/wlan_dev.c:0:9
	movw	r0, #65535
.Ltmp267:
	.loc	3 545 35 is_stmt 1              @ rt-thread/components/drivers/wlan/wlan_dev.c:545:35
	strh.w	r0, [sp, #52]
	.loc	3 546 35                        @ rt-thread/components/drivers/wlan/wlan_dev.c:546:35
	strh.w	r0, [sp, #54]
	b	.LBB23_10
.Ltmp268:
.LBB23_10:
	.loc	3 548 29                        @ rt-thread/components/drivers/wlan/wlan_dev.c:548:29
	ldr	r0, [sp, #60]
	.loc	3 548 35 is_stmt 0              @ rt-thread/components/drivers/wlan/wlan_dev.c:548:35
	ldrb.w	r0, [r0, #56]
	.loc	3 548 29                        @ rt-thread/components/drivers/wlan/wlan_dev.c:548:29
	cmp	r0, #0
	it	ne
	movne	r0, #1
	.loc	3 548 27                        @ rt-thread/components/drivers/wlan/wlan_dev.c:548:27
	str	r0, [sp, #56]
	add	r0, sp, #12
	.loc	3 549 21 is_stmt 1              @ rt-thread/components/drivers/wlan/wlan_dev.c:549:21
	str	r0, [sp, #8]
	.loc	3 550 5                         @ rt-thread/components/drivers/wlan/wlan_dev.c:550:5
	b	.LBB23_11
.Ltmp269:
.LBB23_11:
	.loc	3 551 32                        @ rt-thread/components/drivers/wlan/wlan_dev.c:551:32
	ldr	r0, [sp, #64]
	.loc	3 551 69 is_stmt 0              @ rt-thread/components/drivers/wlan/wlan_dev.c:551:69
	ldr	r2, [sp, #8]
	movs	r1, #17
	.loc	3 551 14                        @ rt-thread/components/drivers/wlan/wlan_dev.c:551:14
	bl	rt_device_control
	.loc	3 551 12                        @ rt-thread/components/drivers/wlan/wlan_dev.c:551:12
	str	r0, [sp, #4]
	.loc	3 552 12 is_stmt 1              @ rt-thread/components/drivers/wlan/wlan_dev.c:552:12
	ldr	r0, [sp, #4]
	.loc	3 552 5 is_stmt 0               @ rt-thread/components/drivers/wlan/wlan_dev.c:552:5
	str	r0, [sp, #68]
	b	.LBB23_12
.LBB23_12:
	.loc	3 553 1 is_stmt 1               @ rt-thread/components/drivers/wlan/wlan_dev.c:553:1
	ldr	r0, [sp, #68]
	add	sp, #72
	pop	{r7, pc}
.Ltmp270:
.Lfunc_end23:
	.size	rt_wlan_dev_scan, .Lfunc_end23-rt_wlan_dev_scan
	.cfi_endproc
	.cantunwind
	.fnend
                                        @ -- End function
	.section	.text.rt_wlan_dev_scan_stop,"ax",%progbits
	.hidden	rt_wlan_dev_scan_stop           @ -- Begin function rt_wlan_dev_scan_stop
	.globl	rt_wlan_dev_scan_stop
	.p2align	3
	.type	rt_wlan_dev_scan_stop,%function
	.code	16                              @ @rt_wlan_dev_scan_stop
	.thumb_func
rt_wlan_dev_scan_stop:
.Lfunc_begin24:
	.loc	3 556 0                         @ rt-thread/components/drivers/wlan/wlan_dev.c:556:0
	.fnstart
	.cfi_startproc
@ %bb.0:
	.save	{r7, lr}
	push	{r7, lr}
	.cfi_def_cfa_offset 8
	.cfi_offset lr, -4
	.cfi_offset r7, -8
	.pad	#16
	sub	sp, #16
	.cfi_def_cfa_offset 24
	str	r0, [sp, #8]
	movs	r0, #0
.Ltmp271:
	.loc	3 557 14 prologue_end           @ rt-thread/components/drivers/wlan/wlan_dev.c:557:14
	str	r0, [sp, #4]
.Ltmp272:
	.loc	3 559 9                         @ rt-thread/components/drivers/wlan/wlan_dev.c:559:9
	ldr	r0, [sp, #8]
.Ltmp273:
	.loc	3 559 9 is_stmt 0               @ rt-thread/components/drivers/wlan/wlan_dev.c:559:9
	cbnz	r0, .LBB24_2
	b	.LBB24_1
.LBB24_1:
	.loc	3 0 9                           @ rt-thread/components/drivers/wlan/wlan_dev.c:0:9
	mvn	r0, #7
.Ltmp274:
	.loc	3 561 9 is_stmt 1               @ rt-thread/components/drivers/wlan/wlan_dev.c:561:9
	str	r0, [sp, #12]
	b	.LBB24_3
.Ltmp275:
.LBB24_2:
	.loc	3 564 32                        @ rt-thread/components/drivers/wlan/wlan_dev.c:564:32
	ldr	r0, [sp, #8]
	movs	r1, #23
	movs	r2, #0
	.loc	3 564 14 is_stmt 0              @ rt-thread/components/drivers/wlan/wlan_dev.c:564:14
	bl	rt_device_control
	.loc	3 564 12                        @ rt-thread/components/drivers/wlan/wlan_dev.c:564:12
	str	r0, [sp, #4]
	.loc	3 565 12 is_stmt 1              @ rt-thread/components/drivers/wlan/wlan_dev.c:565:12
	ldr	r0, [sp, #4]
	.loc	3 565 5 is_stmt 0               @ rt-thread/components/drivers/wlan/wlan_dev.c:565:5
	str	r0, [sp, #12]
	b	.LBB24_3
.LBB24_3:
	.loc	3 566 1 is_stmt 1               @ rt-thread/components/drivers/wlan/wlan_dev.c:566:1
	ldr	r0, [sp, #12]
	add	sp, #16
	pop	{r7, pc}
.Ltmp276:
.Lfunc_end24:
	.size	rt_wlan_dev_scan_stop, .Lfunc_end24-rt_wlan_dev_scan_stop
	.cfi_endproc
	.cantunwind
	.fnend
                                        @ -- End function
	.section	.text.rt_wlan_dev_report_data,"ax",%progbits
	.hidden	rt_wlan_dev_report_data         @ -- Begin function rt_wlan_dev_report_data
	.globl	rt_wlan_dev_report_data
	.p2align	3
	.type	rt_wlan_dev_report_data,%function
	.code	16                              @ @rt_wlan_dev_report_data
	.thumb_func
rt_wlan_dev_report_data:
.Lfunc_begin25:
	.loc	3 569 0                         @ rt-thread/components/drivers/wlan/wlan_dev.c:569:0
	.fnstart
	.cfi_startproc
@ %bb.0:
	.save	{r7, lr}
	push	{r7, lr}
	.cfi_def_cfa_offset 8
	.cfi_offset lr, -4
	.cfi_offset r7, -8
	.pad	#16
	sub	sp, #16
	.cfi_def_cfa_offset 24
	str	r0, [sp, #12]
	str	r1, [sp, #8]
	str	r2, [sp, #4]
.Ltmp277:
	.loc	3 571 38 prologue_end           @ rt-thread/components/drivers/wlan/wlan_dev.c:571:38
	ldr	r0, [sp, #12]
	.loc	3 571 46 is_stmt 0              @ rt-thread/components/drivers/wlan/wlan_dev.c:571:46
	ldr	r1, [sp, #8]
	.loc	3 571 52                        @ rt-thread/components/drivers/wlan/wlan_dev.c:571:52
	ldr	r2, [sp, #4]
	.loc	3 571 12                        @ rt-thread/components/drivers/wlan/wlan_dev.c:571:12
	bl	rt_wlan_dev_transfer_prot
	.loc	3 571 5                         @ rt-thread/components/drivers/wlan/wlan_dev.c:571:5
	add	sp, #16
	pop	{r7, pc}
.Ltmp278:
.Lfunc_end25:
	.size	rt_wlan_dev_report_data, .Lfunc_end25-rt_wlan_dev_report_data
	.cfi_endproc
	.cantunwind
	.fnend
                                        @ -- End function
	.section	.text.rt_wlan_dev_enter_mgnt_filter,"ax",%progbits
	.hidden	rt_wlan_dev_enter_mgnt_filter   @ -- Begin function rt_wlan_dev_enter_mgnt_filter
	.globl	rt_wlan_dev_enter_mgnt_filter
	.p2align	3
	.type	rt_wlan_dev_enter_mgnt_filter,%function
	.code	16                              @ @rt_wlan_dev_enter_mgnt_filter
	.thumb_func
rt_wlan_dev_enter_mgnt_filter:
.Lfunc_begin26:
	.loc	3 578 0 is_stmt 1               @ rt-thread/components/drivers/wlan/wlan_dev.c:578:0
	.fnstart
	.cfi_startproc
@ %bb.0:
	.save	{r7, lr}
	push	{r7, lr}
	.cfi_def_cfa_offset 8
	.cfi_offset lr, -4
	.cfi_offset r7, -8
	.pad	#16
	sub	sp, #16
	.cfi_def_cfa_offset 24
	str	r0, [sp, #8]
	movs	r0, #0
.Ltmp279:
	.loc	3 579 14 prologue_end           @ rt-thread/components/drivers/wlan/wlan_dev.c:579:14
	str	r0, [sp, #4]
	movs	r0, #1
	.loc	3 580 9                         @ rt-thread/components/drivers/wlan/wlan_dev.c:580:9
	str	r0, [sp]
.Ltmp280:
	.loc	3 582 9                         @ rt-thread/components/drivers/wlan/wlan_dev.c:582:9
	ldr	r0, [sp, #8]
.Ltmp281:
	.loc	3 582 9 is_stmt 0               @ rt-thread/components/drivers/wlan/wlan_dev.c:582:9
	cbnz	r0, .LBB26_2
	b	.LBB26_1
.LBB26_1:
	.loc	3 0 9                           @ rt-thread/components/drivers/wlan/wlan_dev.c:0:9
	mvn	r0, #7
.Ltmp282:
	.loc	3 584 9 is_stmt 1               @ rt-thread/components/drivers/wlan/wlan_dev.c:584:9
	str	r0, [sp, #12]
	b	.LBB26_3
.Ltmp283:
.LBB26_2:
	.loc	3 587 32                        @ rt-thread/components/drivers/wlan/wlan_dev.c:587:32
	ldr	r0, [sp, #8]
	movs	r1, #29
	mov	r2, sp
	.loc	3 587 14 is_stmt 0              @ rt-thread/components/drivers/wlan/wlan_dev.c:587:14
	bl	rt_device_control
	.loc	3 587 12                        @ rt-thread/components/drivers/wlan/wlan_dev.c:587:12
	str	r0, [sp, #4]
	.loc	3 588 12 is_stmt 1              @ rt-thread/components/drivers/wlan/wlan_dev.c:588:12
	ldr	r0, [sp, #4]
	.loc	3 588 5 is_stmt 0               @ rt-thread/components/drivers/wlan/wlan_dev.c:588:5
	str	r0, [sp, #12]
	b	.LBB26_3
.LBB26_3:
	.loc	3 589 1 is_stmt 1               @ rt-thread/components/drivers/wlan/wlan_dev.c:589:1
	ldr	r0, [sp, #12]
	add	sp, #16
	pop	{r7, pc}
.Ltmp284:
.Lfunc_end26:
	.size	rt_wlan_dev_enter_mgnt_filter, .Lfunc_end26-rt_wlan_dev_enter_mgnt_filter
	.cfi_endproc
	.cantunwind
	.fnend
                                        @ -- End function
	.section	.text.rt_wlan_dev_exit_mgnt_filter,"ax",%progbits
	.hidden	rt_wlan_dev_exit_mgnt_filter    @ -- Begin function rt_wlan_dev_exit_mgnt_filter
	.globl	rt_wlan_dev_exit_mgnt_filter
	.p2align	3
	.type	rt_wlan_dev_exit_mgnt_filter,%function
	.code	16                              @ @rt_wlan_dev_exit_mgnt_filter
	.thumb_func
rt_wlan_dev_exit_mgnt_filter:
.Lfunc_begin27:
	.loc	3 592 0                         @ rt-thread/components/drivers/wlan/wlan_dev.c:592:0
	.fnstart
	.cfi_startproc
@ %bb.0:
	.save	{r7, lr}
	push	{r7, lr}
	.cfi_def_cfa_offset 8
	.cfi_offset lr, -4
	.cfi_offset r7, -8
	.pad	#16
	sub	sp, #16
	.cfi_def_cfa_offset 24
	str	r0, [sp, #8]
	movs	r0, #0
.Ltmp285:
	.loc	3 593 14 prologue_end           @ rt-thread/components/drivers/wlan/wlan_dev.c:593:14
	str	r0, [sp, #4]
	.loc	3 594 9                         @ rt-thread/components/drivers/wlan/wlan_dev.c:594:9
	str	r0, [sp]
.Ltmp286:
	.loc	3 596 9                         @ rt-thread/components/drivers/wlan/wlan_dev.c:596:9
	ldr	r0, [sp, #8]
.Ltmp287:
	.loc	3 596 9 is_stmt 0               @ rt-thread/components/drivers/wlan/wlan_dev.c:596:9
	cbnz	r0, .LBB27_2
	b	.LBB27_1
.LBB27_1:
	.loc	3 0 9                           @ rt-thread/components/drivers/wlan/wlan_dev.c:0:9
	mvn	r0, #7
.Ltmp288:
	.loc	3 598 9 is_stmt 1               @ rt-thread/components/drivers/wlan/wlan_dev.c:598:9
	str	r0, [sp, #12]
	b	.LBB27_3
.Ltmp289:
.LBB27_2:
	.loc	3 601 32                        @ rt-thread/components/drivers/wlan/wlan_dev.c:601:32
	ldr	r0, [sp, #8]
	movs	r1, #29
	mov	r2, sp
	.loc	3 601 14 is_stmt 0              @ rt-thread/components/drivers/wlan/wlan_dev.c:601:14
	bl	rt_device_control
	.loc	3 601 12                        @ rt-thread/components/drivers/wlan/wlan_dev.c:601:12
	str	r0, [sp, #4]
	.loc	3 602 12 is_stmt 1              @ rt-thread/components/drivers/wlan/wlan_dev.c:602:12
	ldr	r0, [sp, #4]
	.loc	3 602 5 is_stmt 0               @ rt-thread/components/drivers/wlan/wlan_dev.c:602:5
	str	r0, [sp, #12]
	b	.LBB27_3
.LBB27_3:
	.loc	3 603 1 is_stmt 1               @ rt-thread/components/drivers/wlan/wlan_dev.c:603:1
	ldr	r0, [sp, #12]
	add	sp, #16
	pop	{r7, pc}
.Ltmp290:
.Lfunc_end27:
	.size	rt_wlan_dev_exit_mgnt_filter, .Lfunc_end27-rt_wlan_dev_exit_mgnt_filter
	.cfi_endproc
	.cantunwind
	.fnend
                                        @ -- End function
	.section	.text.rt_wlan_dev_set_mgnt_filter_callback,"ax",%progbits
	.hidden	rt_wlan_dev_set_mgnt_filter_callback @ -- Begin function rt_wlan_dev_set_mgnt_filter_callback
	.globl	rt_wlan_dev_set_mgnt_filter_callback
	.p2align	3
	.type	rt_wlan_dev_set_mgnt_filter_callback,%function
	.code	16                              @ @rt_wlan_dev_set_mgnt_filter_callback
	.thumb_func
rt_wlan_dev_set_mgnt_filter_callback:
.Lfunc_begin28:
	.loc	3 606 0                         @ rt-thread/components/drivers/wlan/wlan_dev.c:606:0
	.fnstart
	.cfi_startproc
@ %bb.0:
	.pad	#12
	sub	sp, #12
	.cfi_def_cfa_offset 12
	str	r0, [sp, #4]
	str	r1, [sp]
.Ltmp291:
	.loc	3 607 9 prologue_end            @ rt-thread/components/drivers/wlan/wlan_dev.c:607:9
	ldr	r0, [sp, #4]
.Ltmp292:
	.loc	3 607 9 is_stmt 0               @ rt-thread/components/drivers/wlan/wlan_dev.c:607:9
	cbnz	r0, .LBB28_2
	b	.LBB28_1
.LBB28_1:
	.loc	3 0 9                           @ rt-thread/components/drivers/wlan/wlan_dev.c:0:9
	mvn	r0, #7
.Ltmp293:
	.loc	3 609 9 is_stmt 1               @ rt-thread/components/drivers/wlan/wlan_dev.c:609:9
	str	r0, [sp, #8]
	b	.LBB28_3
.Ltmp294:
.LBB28_2:
	.loc	3 611 36                        @ rt-thread/components/drivers/wlan/wlan_dev.c:611:36
	ldr	r0, [sp]
	.loc	3 611 5 is_stmt 0               @ rt-thread/components/drivers/wlan/wlan_dev.c:611:5
	ldr	r1, [sp, #4]
	.loc	3 611 34                        @ rt-thread/components/drivers/wlan/wlan_dev.c:611:34
	str.w	r0, [r1, #300]
	movs	r0, #0
	.loc	3 613 5 is_stmt 1               @ rt-thread/components/drivers/wlan/wlan_dev.c:613:5
	str	r0, [sp, #8]
	b	.LBB28_3
.LBB28_3:
	.loc	3 614 1                         @ rt-thread/components/drivers/wlan/wlan_dev.c:614:1
	ldr	r0, [sp, #8]
	add	sp, #12
	bx	lr
.Ltmp295:
.Lfunc_end28:
	.size	rt_wlan_dev_set_mgnt_filter_callback, .Lfunc_end28-rt_wlan_dev_set_mgnt_filter_callback
	.cfi_endproc
	.cantunwind
	.fnend
                                        @ -- End function
	.section	.text.rt_wlan_dev_mgnt_filter_handler,"ax",%progbits
	.hidden	rt_wlan_dev_mgnt_filter_handler @ -- Begin function rt_wlan_dev_mgnt_filter_handler
	.globl	rt_wlan_dev_mgnt_filter_handler
	.p2align	3
	.type	rt_wlan_dev_mgnt_filter_handler,%function
	.code	16                              @ @rt_wlan_dev_mgnt_filter_handler
	.thumb_func
rt_wlan_dev_mgnt_filter_handler:
.Lfunc_begin29:
	.loc	3 617 0                         @ rt-thread/components/drivers/wlan/wlan_dev.c:617:0
	.fnstart
	.cfi_startproc
@ %bb.0:
	.save	{r7, lr}
	push	{r7, lr}
	.cfi_def_cfa_offset 8
	.cfi_offset lr, -4
	.cfi_offset r7, -8
	.pad	#16
	sub	sp, #16
	.cfi_def_cfa_offset 24
	str	r0, [sp, #12]
	str	r1, [sp, #8]
	str	r2, [sp, #4]
.Ltmp296:
	.loc	3 620 9 prologue_end            @ rt-thread/components/drivers/wlan/wlan_dev.c:620:9
	ldr	r0, [sp, #12]
.Ltmp297:
	.loc	3 620 9 is_stmt 0               @ rt-thread/components/drivers/wlan/wlan_dev.c:620:9
	cbnz	r0, .LBB29_2
	b	.LBB29_1
.LBB29_1:
.Ltmp298:
	.loc	3 622 9 is_stmt 1               @ rt-thread/components/drivers/wlan/wlan_dev.c:622:9
	b	.LBB29_4
.Ltmp299:
.LBB29_2:
	.loc	3 625 16                        @ rt-thread/components/drivers/wlan/wlan_dev.c:625:16
	ldr	r0, [sp, #12]
	.loc	3 625 24 is_stmt 0              @ rt-thread/components/drivers/wlan/wlan_dev.c:625:24
	ldr.w	r0, [r0, #300]
	.loc	3 625 14                        @ rt-thread/components/drivers/wlan/wlan_dev.c:625:14
	str	r0, [sp]
.Ltmp300:
	.loc	3 627 9 is_stmt 1               @ rt-thread/components/drivers/wlan/wlan_dev.c:627:9
	ldr	r0, [sp]
.Ltmp301:
	.loc	3 627 9 is_stmt 0               @ rt-thread/components/drivers/wlan/wlan_dev.c:627:9
	cbz	r0, .LBB29_4
	b	.LBB29_3
.LBB29_3:
.Ltmp302:
	.loc	3 629 9 is_stmt 1               @ rt-thread/components/drivers/wlan/wlan_dev.c:629:9
	ldr	r3, [sp]
	.loc	3 629 18 is_stmt 0              @ rt-thread/components/drivers/wlan/wlan_dev.c:629:18
	ldr	r0, [sp, #12]
	.loc	3 629 26                        @ rt-thread/components/drivers/wlan/wlan_dev.c:629:26
	ldr	r1, [sp, #8]
	.loc	3 629 32                        @ rt-thread/components/drivers/wlan/wlan_dev.c:629:32
	ldr	r2, [sp, #4]
	.loc	3 629 9                         @ rt-thread/components/drivers/wlan/wlan_dev.c:629:9
	blx	r3
	.loc	3 630 5 is_stmt 1               @ rt-thread/components/drivers/wlan/wlan_dev.c:630:5
	b	.LBB29_4
.Ltmp303:
.LBB29_4:
	.loc	3 631 1                         @ rt-thread/components/drivers/wlan/wlan_dev.c:631:1
	add	sp, #16
	pop	{r7, pc}
.Ltmp304:
.Lfunc_end29:
	.size	rt_wlan_dev_mgnt_filter_handler, .Lfunc_end29-rt_wlan_dev_mgnt_filter_handler
	.cfi_endproc
	.cantunwind
	.fnend
                                        @ -- End function
	.section	.text.rt_wlan_dev_send_raw_frame,"ax",%progbits
	.hidden	rt_wlan_dev_send_raw_frame      @ -- Begin function rt_wlan_dev_send_raw_frame
	.globl	rt_wlan_dev_send_raw_frame
	.p2align	3
	.type	rt_wlan_dev_send_raw_frame,%function
	.code	16                              @ @rt_wlan_dev_send_raw_frame
	.thumb_func
rt_wlan_dev_send_raw_frame:
.Lfunc_begin30:
	.loc	3 634 0                         @ rt-thread/components/drivers/wlan/wlan_dev.c:634:0
	.fnstart
	.cfi_startproc
@ %bb.0:
	.save	{r7, lr}
	push	{r7, lr}
	.cfi_def_cfa_offset 8
	.cfi_offset lr, -4
	.cfi_offset r7, -8
	.pad	#16
	sub	sp, #16
	.cfi_def_cfa_offset 24
	str	r0, [sp, #8]
	str	r1, [sp, #4]
	str	r2, [sp]
.Ltmp305:
	.loc	3 635 9 prologue_end            @ rt-thread/components/drivers/wlan/wlan_dev.c:635:9
	ldr	r0, [sp, #8]
.Ltmp306:
	.loc	3 635 9 is_stmt 0               @ rt-thread/components/drivers/wlan/wlan_dev.c:635:9
	cbnz	r0, .LBB30_2
	b	.LBB30_1
.LBB30_1:
	.loc	3 0 9                           @ rt-thread/components/drivers/wlan/wlan_dev.c:0:9
	mvn	r0, #7
.Ltmp307:
	.loc	3 637 9 is_stmt 1               @ rt-thread/components/drivers/wlan/wlan_dev.c:637:9
	str	r0, [sp, #12]
	b	.LBB30_5
.Ltmp308:
.LBB30_2:
	.loc	3 640 9                         @ rt-thread/components/drivers/wlan/wlan_dev.c:640:9
	ldr	r0, [sp, #8]
	.loc	3 640 17 is_stmt 0              @ rt-thread/components/drivers/wlan/wlan_dev.c:640:17
	ldr.w	r0, [r0, #304]
	.loc	3 640 22                        @ rt-thread/components/drivers/wlan/wlan_dev.c:640:22
	ldr	r0, [r0, #92]
.Ltmp309:
	.loc	3 640 9                         @ rt-thread/components/drivers/wlan/wlan_dev.c:640:9
	cbz	r0, .LBB30_4
	b	.LBB30_3
.LBB30_3:
.Ltmp310:
	.loc	3 642 16 is_stmt 1              @ rt-thread/components/drivers/wlan/wlan_dev.c:642:16
	ldr	r0, [sp, #8]
	.loc	3 642 24 is_stmt 0              @ rt-thread/components/drivers/wlan/wlan_dev.c:642:24
	ldr.w	r1, [r0, #304]
	.loc	3 642 29                        @ rt-thread/components/drivers/wlan/wlan_dev.c:642:29
	ldr	r3, [r1, #92]
	.loc	3 642 57                        @ rt-thread/components/drivers/wlan/wlan_dev.c:642:57
	ldr	r1, [sp, #4]
	.loc	3 642 63                        @ rt-thread/components/drivers/wlan/wlan_dev.c:642:63
	ldr	r2, [sp]
	.loc	3 642 16                        @ rt-thread/components/drivers/wlan/wlan_dev.c:642:16
	blx	r3
	.loc	3 642 9                         @ rt-thread/components/drivers/wlan/wlan_dev.c:642:9
	str	r0, [sp, #12]
	b	.LBB30_5
.Ltmp311:
.LBB30_4:
	.loc	3 0 9                           @ rt-thread/components/drivers/wlan/wlan_dev.c:0:9
	mov.w	r0, #-1
	.loc	3 645 5 is_stmt 1               @ rt-thread/components/drivers/wlan/wlan_dev.c:645:5
	str	r0, [sp, #12]
	b	.LBB30_5
.LBB30_5:
	.loc	3 646 1                         @ rt-thread/components/drivers/wlan/wlan_dev.c:646:1
	ldr	r0, [sp, #12]
	add	sp, #16
	pop	{r7, pc}
.Ltmp312:
.Lfunc_end30:
	.size	rt_wlan_dev_send_raw_frame, .Lfunc_end30-rt_wlan_dev_send_raw_frame
	.cfi_endproc
	.cantunwind
	.fnend
                                        @ -- End function
	.section	.text.rt_wlan_dev_register,"ax",%progbits
	.hidden	rt_wlan_dev_register            @ -- Begin function rt_wlan_dev_register
	.globl	rt_wlan_dev_register
	.p2align	3
	.type	rt_wlan_dev_register,%function
	.code	16                              @ @rt_wlan_dev_register
	.thumb_func
rt_wlan_dev_register:
.Lfunc_begin31:
	.loc	3 874 0                         @ rt-thread/components/drivers/wlan/wlan_dev.c:874:0
	.fnstart
	.cfi_startproc
@ %bb.0:
	.save	{r7, lr}
	push	{r7, lr}
	.cfi_def_cfa_offset 8
	.cfi_offset lr, -4
	.cfi_offset r7, -8
	.pad	#32
	sub	sp, #32
	.cfi_def_cfa_offset 40
	ldr.w	r12, [sp, #40]
	str	r0, [sp, #24]
	str	r1, [sp, #20]
	str	r2, [sp, #16]
	str	r3, [sp, #12]
	movs	r0, #0
.Ltmp313:
	.loc	3 875 14 prologue_end           @ rt-thread/components/drivers/wlan/wlan_dev.c:875:14
	str	r0, [sp, #8]
.Ltmp314:
	.loc	3 877 10                        @ rt-thread/components/drivers/wlan/wlan_dev.c:877:10
	ldr	r0, [sp, #24]
	.loc	3 877 27 is_stmt 0              @ rt-thread/components/drivers/wlan/wlan_dev.c:877:27
	cbz	r0, .LBB31_5
	b	.LBB31_1
.LBB31_1:
	.loc	3 877 31                        @ rt-thread/components/drivers/wlan/wlan_dev.c:877:31
	ldr	r0, [sp, #20]
	.loc	3 877 48                        @ rt-thread/components/drivers/wlan/wlan_dev.c:877:48
	cbz	r0, .LBB31_5
	b	.LBB31_2
.LBB31_2:
	.loc	3 877 52                        @ rt-thread/components/drivers/wlan/wlan_dev.c:877:52
	ldr	r0, [sp, #16]
	.loc	3 877 68                        @ rt-thread/components/drivers/wlan/wlan_dev.c:877:68
	cbz	r0, .LBB31_5
	b	.LBB31_3
.LBB31_3:
	.loc	3 878 39 is_stmt 1              @ rt-thread/components/drivers/wlan/wlan_dev.c:878:39
	ldrb.w	r0, [sp, #12]
	lsls	r0, r0, #31
	cbz	r0, .LBB31_8
	b	.LBB31_4
.Ltmp315:
.LBB31_4:
	.loc	3 877 9                         @ rt-thread/components/drivers/wlan/wlan_dev.c:877:9
	ldrb.w	r0, [sp, #12]
	lsls	r0, r0, #30
	cmp	r0, #0
	bpl	.LBB31_8
	b	.LBB31_5
.LBB31_5:
.Ltmp316:
	.loc	3 880 9                         @ rt-thread/components/drivers/wlan/wlan_dev.c:880:9
	b	.LBB31_6
.LBB31_6:
.Ltmp317:
	.loc	3 880 9 is_stmt 0               @ rt-thread/components/drivers/wlan/wlan_dev.c:880:9
	movw	r0, :lower16:.L.str
	movt	r0, :upper16:.L.str
	bl	rt_kprintf
	movw	r0, :lower16:.L.str.9
	movt	r0, :upper16:.L.str.9
	movw	r1, :lower16:.L__FUNCTION__.rt_wlan_dev_register
	movt	r1, :upper16:.L__FUNCTION__.rt_wlan_dev_register
	mov.w	r2, #880
	bl	rt_kprintf
	movw	r0, :lower16:.L.str.2
	movt	r0, :upper16:.L.str.2
	bl	rt_kprintf
	b	.LBB31_7
.Ltmp318:
.LBB31_7:
	.loc	3 0 9                           @ rt-thread/components/drivers/wlan/wlan_dev.c:0:9
	movs	r0, #0
	.loc	3 881 9 is_stmt 1               @ rt-thread/components/drivers/wlan/wlan_dev.c:881:9
	str	r0, [sp, #28]
	b	.LBB31_9
.Ltmp319:
.LBB31_8:
	.loc	3 884 15                        @ rt-thread/components/drivers/wlan/wlan_dev.c:884:15
	ldr	r0, [sp, #24]
	movs	r1, #0
	str	r1, [sp, #4]                    @ 4-byte Spill
	mov.w	r2, #324
	.loc	3 884 5 is_stmt 0               @ rt-thread/components/drivers/wlan/wlan_dev.c:884:5
	bl	rt_memset
                                        @ kill: def $r1 killed $r0
	.loc	3 889 5 is_stmt 1               @ rt-thread/components/drivers/wlan/wlan_dev.c:889:5
	ldr	r0, [sp, #4]                    @ 4-byte Reload
	ldr	r2, [sp, #24]
	.loc	3 889 29 is_stmt 0              @ rt-thread/components/drivers/wlan/wlan_dev.c:889:29
	movw	r1, :lower16:_rt_wlan_dev_init
	movt	r1, :upper16:_rt_wlan_dev_init
	str	r1, [r2, #36]
	.loc	3 890 5 is_stmt 1               @ rt-thread/components/drivers/wlan/wlan_dev.c:890:5
	ldr	r1, [sp, #24]
	.loc	3 890 29 is_stmt 0              @ rt-thread/components/drivers/wlan/wlan_dev.c:890:29
	str	r0, [r1, #40]
	.loc	3 891 5 is_stmt 1               @ rt-thread/components/drivers/wlan/wlan_dev.c:891:5
	ldr	r1, [sp, #24]
	.loc	3 891 29 is_stmt 0              @ rt-thread/components/drivers/wlan/wlan_dev.c:891:29
	str	r0, [r1, #44]
	.loc	3 892 5 is_stmt 1               @ rt-thread/components/drivers/wlan/wlan_dev.c:892:5
	ldr	r1, [sp, #24]
	.loc	3 892 29 is_stmt 0              @ rt-thread/components/drivers/wlan/wlan_dev.c:892:29
	str	r0, [r1, #48]
	.loc	3 893 5 is_stmt 1               @ rt-thread/components/drivers/wlan/wlan_dev.c:893:5
	ldr	r1, [sp, #24]
	.loc	3 893 29 is_stmt 0              @ rt-thread/components/drivers/wlan/wlan_dev.c:893:29
	str	r0, [r1, #52]
	.loc	3 894 5 is_stmt 1               @ rt-thread/components/drivers/wlan/wlan_dev.c:894:5
	ldr	r2, [sp, #24]
	.loc	3 894 29 is_stmt 0              @ rt-thread/components/drivers/wlan/wlan_dev.c:894:29
	movw	r1, :lower16:_rt_wlan_dev_control
	movt	r1, :upper16:_rt_wlan_dev_control
	str	r1, [r2, #56]
	.loc	3 897 5 is_stmt 1               @ rt-thread/components/drivers/wlan/wlan_dev.c:897:5
	ldr	r1, [sp, #24]
	.loc	3 897 29 is_stmt 0              @ rt-thread/components/drivers/wlan/wlan_dev.c:897:29
	str	r0, [r1, #76]
	.loc	3 899 5 is_stmt 1               @ rt-thread/components/drivers/wlan/wlan_dev.c:899:5
	ldr	r1, [sp, #24]
	movs	r0, #2
	.loc	3 899 23 is_stmt 0              @ rt-thread/components/drivers/wlan/wlan_dev.c:899:23
	strb	r0, [r1, #20]
	.loc	3 901 17 is_stmt 1              @ rt-thread/components/drivers/wlan/wlan_dev.c:901:17
	ldr	r0, [sp, #16]
	.loc	3 901 5 is_stmt 0               @ rt-thread/components/drivers/wlan/wlan_dev.c:901:5
	ldr	r1, [sp, #24]
	.loc	3 901 15                        @ rt-thread/components/drivers/wlan/wlan_dev.c:901:15
	str.w	r0, [r1, #304]
	.loc	3 902 24 is_stmt 1              @ rt-thread/components/drivers/wlan/wlan_dev.c:902:24
	ldr	r0, [sp, #40]
	.loc	3 902 5 is_stmt 0               @ rt-thread/components/drivers/wlan/wlan_dev.c:902:5
	ldr	r1, [sp, #24]
	.loc	3 902 22                        @ rt-thread/components/drivers/wlan/wlan_dev.c:902:22
	str.w	r0, [r1, #320]
	.loc	3 904 19 is_stmt 1              @ rt-thread/components/drivers/wlan/wlan_dev.c:904:19
	ldr	r0, [sp, #12]
	.loc	3 904 5 is_stmt 0               @ rt-thread/components/drivers/wlan/wlan_dev.c:904:5
	ldr	r1, [sp, #24]
	.loc	3 904 17                        @ rt-thread/components/drivers/wlan/wlan_dev.c:904:17
	str.w	r0, [r1, #308]
	.loc	3 905 31 is_stmt 1              @ rt-thread/components/drivers/wlan/wlan_dev.c:905:31
	ldr	r0, [sp, #24]
	.loc	3 905 45 is_stmt 0              @ rt-thread/components/drivers/wlan/wlan_dev.c:905:45
	ldr	r1, [sp, #20]
	movs	r2, #3
	.loc	3 905 11                        @ rt-thread/components/drivers/wlan/wlan_dev.c:905:11
	bl	rt_device_register
	.loc	3 905 9                         @ rt-thread/components/drivers/wlan/wlan_dev.c:905:9
	str	r0, [sp, #8]
	.loc	3 909 12 is_stmt 1              @ rt-thread/components/drivers/wlan/wlan_dev.c:909:12
	ldr	r0, [sp, #8]
	.loc	3 909 5 is_stmt 0               @ rt-thread/components/drivers/wlan/wlan_dev.c:909:5
	str	r0, [sp, #28]
	b	.LBB31_9
.LBB31_9:
	.loc	3 910 1 is_stmt 1               @ rt-thread/components/drivers/wlan/wlan_dev.c:910:1
	ldr	r0, [sp, #28]
	add	sp, #32
	pop	{r7, pc}
.Ltmp320:
.Lfunc_end31:
	.size	rt_wlan_dev_register, .Lfunc_end31-rt_wlan_dev_register
	.cfi_endproc
	.cantunwind
	.fnend
                                        @ -- End function
	.section	.text._rt_wlan_dev_init,"ax",%progbits
	.p2align	3                               @ -- Begin function _rt_wlan_dev_init
	.type	_rt_wlan_dev_init,%function
	.code	16                              @ @_rt_wlan_dev_init
	.thumb_func
_rt_wlan_dev_init:
.Lfunc_begin32:
	.loc	3 649 0                         @ rt-thread/components/drivers/wlan/wlan_dev.c:649:0
	.fnstart
	.cfi_startproc
@ %bb.0:
	.save	{r7, lr}
	push	{r7, lr}
	.cfi_def_cfa_offset 8
	.cfi_offset lr, -4
	.cfi_offset r7, -8
	.pad	#16
	sub	sp, #16
	.cfi_def_cfa_offset 24
	str	r0, [sp, #12]
.Ltmp321:
	.loc	3 650 60 prologue_end           @ rt-thread/components/drivers/wlan/wlan_dev.c:650:60
	ldr	r0, [sp, #12]
	.loc	3 650 28 is_stmt 0              @ rt-thread/components/drivers/wlan/wlan_dev.c:650:28
	str	r0, [sp, #8]
	movs	r2, #0
	.loc	3 651 14 is_stmt 1              @ rt-thread/components/drivers/wlan/wlan_dev.c:651:14
	str	r2, [sp, #4]
	.loc	3 653 20                        @ rt-thread/components/drivers/wlan/wlan_dev.c:653:20
	ldr	r0, [sp, #8]
	.loc	3 653 26 is_stmt 0              @ rt-thread/components/drivers/wlan/wlan_dev.c:653:26
	adds	r0, #84
	.loc	3 653 5                         @ rt-thread/components/drivers/wlan/wlan_dev.c:653:5
	movw	r1, :lower16:.L.str.10
	movt	r1, :upper16:.L.str.10
	bl	rt_mutex_init
.Ltmp322:
	.loc	3 655 9 is_stmt 1               @ rt-thread/components/drivers/wlan/wlan_dev.c:655:9
	ldr	r0, [sp, #8]
	.loc	3 655 15 is_stmt 0              @ rt-thread/components/drivers/wlan/wlan_dev.c:655:15
	ldr.w	r0, [r0, #304]
	.loc	3 655 20                        @ rt-thread/components/drivers/wlan/wlan_dev.c:655:20
	ldr	r0, [r0]
.Ltmp323:
	.loc	3 655 9                         @ rt-thread/components/drivers/wlan/wlan_dev.c:655:9
	cbz	r0, .LBB32_2
	b	.LBB32_1
.LBB32_1:
.Ltmp324:
	.loc	3 656 18 is_stmt 1              @ rt-thread/components/drivers/wlan/wlan_dev.c:656:18
	ldr	r0, [sp, #8]
	.loc	3 656 24 is_stmt 0              @ rt-thread/components/drivers/wlan/wlan_dev.c:656:24
	ldr.w	r1, [r0, #304]
	.loc	3 656 29                        @ rt-thread/components/drivers/wlan/wlan_dev.c:656:29
	ldr	r1, [r1]
	.loc	3 656 18                        @ rt-thread/components/drivers/wlan/wlan_dev.c:656:18
	blx	r1
	.loc	3 656 16                        @ rt-thread/components/drivers/wlan/wlan_dev.c:656:16
	str	r0, [sp, #4]
	.loc	3 656 9                         @ rt-thread/components/drivers/wlan/wlan_dev.c:656:9
	b	.LBB32_2
.Ltmp325:
.LBB32_2:
	.loc	3 658 9 is_stmt 1               @ rt-thread/components/drivers/wlan/wlan_dev.c:658:9
	ldr	r0, [sp, #4]
.Ltmp326:
	.loc	3 658 9 is_stmt 0               @ rt-thread/components/drivers/wlan/wlan_dev.c:658:9
	cbnz	r0, .LBB32_6
	b	.LBB32_3
.LBB32_3:
.Ltmp327:
	.loc	3 660 9 is_stmt 1               @ rt-thread/components/drivers/wlan/wlan_dev.c:660:9
	b	.LBB32_4
.LBB32_4:
.Ltmp328:
	.loc	3 660 9 is_stmt 0               @ rt-thread/components/drivers/wlan/wlan_dev.c:660:9
	movw	r0, :lower16:.L.str.11
	movt	r0, :upper16:.L.str.11
	bl	rt_kprintf
	movw	r0, :lower16:.L.str.12
	movt	r0, :upper16:.L.str.12
	bl	rt_kprintf
	movw	r0, :lower16:.L.str.2
	movt	r0, :upper16:.L.str.2
	bl	rt_kprintf
	b	.LBB32_5
.Ltmp329:
.LBB32_5:
	.loc	3 661 5 is_stmt 1               @ rt-thread/components/drivers/wlan/wlan_dev.c:661:5
	b	.LBB32_9
.Ltmp330:
.LBB32_6:
	.loc	3 664 9                         @ rt-thread/components/drivers/wlan/wlan_dev.c:664:9
	b	.LBB32_7
.LBB32_7:
.Ltmp331:
	.loc	3 664 9 is_stmt 0               @ rt-thread/components/drivers/wlan/wlan_dev.c:664:9
	movw	r0, :lower16:.L.str.11
	movt	r0, :upper16:.L.str.11
	bl	rt_kprintf
	movw	r0, :lower16:.L.str.13
	movt	r0, :upper16:.L.str.13
	bl	rt_kprintf
	movw	r0, :lower16:.L.str.2
	movt	r0, :upper16:.L.str.2
	bl	rt_kprintf
	b	.LBB32_8
.Ltmp332:
.LBB32_8:
	.loc	3 0 9                           @ rt-thread/components/drivers/wlan/wlan_dev.c:0:9
	b	.LBB32_9
.LBB32_9:
	.loc	3 667 12 is_stmt 1              @ rt-thread/components/drivers/wlan/wlan_dev.c:667:12
	ldr	r0, [sp, #4]
	.loc	3 667 5 is_stmt 0               @ rt-thread/components/drivers/wlan/wlan_dev.c:667:5
	add	sp, #16
	pop	{r7, pc}
.Ltmp333:
.Lfunc_end32:
	.size	_rt_wlan_dev_init, .Lfunc_end32-_rt_wlan_dev_init
	.cfi_endproc
	.cantunwind
	.fnend
                                        @ -- End function
	.section	.text._rt_wlan_dev_control,"ax",%progbits
	.p2align	3                               @ -- Begin function _rt_wlan_dev_control
	.type	_rt_wlan_dev_control,%function
	.code	16                              @ @_rt_wlan_dev_control
	.thumb_func
_rt_wlan_dev_control:
.Lfunc_begin33:
	.loc	3 671 0 is_stmt 1               @ rt-thread/components/drivers/wlan/wlan_dev.c:671:0
	.fnstart
	.cfi_startproc
@ %bb.0:
	.save	{r7, lr}
	push	{r7, lr}
	.cfi_def_cfa_offset 8
	.cfi_offset lr, -4
	.cfi_offset r7, -8
	.pad	#88
	sub	sp, #88
	.cfi_def_cfa_offset 96
	str	r0, [sp, #84]
	str	r1, [sp, #80]
	str	r2, [sp, #76]
.Ltmp334:
	.loc	3 672 60 prologue_end           @ rt-thread/components/drivers/wlan/wlan_dev.c:672:60
	ldr	r0, [sp, #84]
	.loc	3 672 28 is_stmt 0              @ rt-thread/components/drivers/wlan/wlan_dev.c:672:28
	str	r0, [sp, #72]
	movs	r0, #0
	.loc	3 673 14 is_stmt 1              @ rt-thread/components/drivers/wlan/wlan_dev.c:673:14
	str	r0, [sp, #68]
.Ltmp335:
	.loc	3 675 5                         @ rt-thread/components/drivers/wlan/wlan_dev.c:675:5
	ldr	r0, [sp, #84]
.Ltmp336:
	.loc	3 675 5 is_stmt 0               @ rt-thread/components/drivers/wlan/wlan_dev.c:675:5
	cbnz	r0, .LBB33_2
	b	.LBB33_1
.LBB33_1:
.Ltmp337:
	.loc	3 675 5                         @ rt-thread/components/drivers/wlan/wlan_dev.c:675:5
	movw	r0, :lower16:.L.str.14
	movt	r0, :upper16:.L.str.14
	movw	r1, :lower16:.L__FUNCTION__._rt_wlan_dev_control
	movt	r1, :upper16:.L__FUNCTION__._rt_wlan_dev_control
	movw	r2, #675
	bl	rt_assert_handler
	b	.LBB33_2
.Ltmp338:
.LBB33_2:
	.loc	3 677 5 is_stmt 1               @ rt-thread/components/drivers/wlan/wlan_dev.c:677:5
	ldr	r0, [sp, #72]
	adds	r0, #84
	mov.w	r1, #-1
	bl	rt_mutex_take
	.loc	3 679 13                        @ rt-thread/components/drivers/wlan/wlan_dev.c:679:13
	ldr	r0, [sp, #80]
	.loc	3 679 5 is_stmt 0               @ rt-thread/components/drivers/wlan/wlan_dev.c:679:5
	subs	r0, #16
	mov	r1, r0
	str	r1, [sp]                        @ 4-byte Spill
	cmp	r0, #19
	bhi.w	.LBB33_65
@ %bb.3:
	.loc	3 0 5                           @ rt-thread/components/drivers/wlan/wlan_dev.c:0:5
	ldr	r1, [sp]                        @ 4-byte Reload
.LCPI33_0:
	tbh	[pc, r1, lsl #1]
@ %bb.4:
.LJTI33_0:
	.short	(.LBB33_5-(.LCPI33_0+4))/2
	.short	(.LBB33_8-(.LCPI33_0+4))/2
	.short	(.LBB33_11-(.LCPI33_0+4))/2
	.short	(.LBB33_14-(.LCPI33_0+4))/2
	.short	(.LBB33_17-(.LCPI33_0+4))/2
	.short	(.LBB33_20-(.LCPI33_0+4))/2
	.short	(.LBB33_23-(.LCPI33_0+4))/2
	.short	(.LBB33_26-(.LCPI33_0+4))/2
	.short	(.LBB33_29-(.LCPI33_0+4))/2
	.short	(.LBB33_32-(.LCPI33_0+4))/2
	.short	(.LBB33_35-(.LCPI33_0+4))/2
	.short	(.LBB33_38-(.LCPI33_0+4))/2
	.short	(.LBB33_41-(.LCPI33_0+4))/2
	.short	(.LBB33_44-(.LCPI33_0+4))/2
	.short	(.LBB33_47-(.LCPI33_0+4))/2
	.short	(.LBB33_50-(.LCPI33_0+4))/2
	.short	(.LBB33_53-(.LCPI33_0+4))/2
	.short	(.LBB33_56-(.LCPI33_0+4))/2
	.short	(.LBB33_59-(.LCPI33_0+4))/2
	.short	(.LBB33_62-(.LCPI33_0+4))/2
	.p2align	1
.LBB33_5:
.Ltmp339:
	.loc	3 683 51 is_stmt 1              @ rt-thread/components/drivers/wlan/wlan_dev.c:683:51
	ldr	r0, [sp, #76]
	.loc	3 683 31 is_stmt 0              @ rt-thread/components/drivers/wlan/wlan_dev.c:683:31
	ldrb	r0, [r0]
	.loc	3 683 24                        @ rt-thread/components/drivers/wlan/wlan_dev.c:683:24
	strb.w	r0, [sp, #67]
.Ltmp340:
	.loc	3 686 13 is_stmt 1              @ rt-thread/components/drivers/wlan/wlan_dev.c:686:13
	ldr	r0, [sp, #72]
	.loc	3 686 19 is_stmt 0              @ rt-thread/components/drivers/wlan/wlan_dev.c:686:19
	ldr.w	r0, [r0, #304]
	.loc	3 686 24                        @ rt-thread/components/drivers/wlan/wlan_dev.c:686:24
	ldr	r0, [r0, #4]
.Ltmp341:
	.loc	3 686 13                        @ rt-thread/components/drivers/wlan/wlan_dev.c:686:13
	cbz	r0, .LBB33_7
	b	.LBB33_6
.LBB33_6:
.Ltmp342:
	.loc	3 687 19 is_stmt 1              @ rt-thread/components/drivers/wlan/wlan_dev.c:687:19
	ldr	r0, [sp, #72]
	.loc	3 687 25 is_stmt 0              @ rt-thread/components/drivers/wlan/wlan_dev.c:687:25
	ldr.w	r1, [r0, #304]
	.loc	3 687 30                        @ rt-thread/components/drivers/wlan/wlan_dev.c:687:30
	ldr	r2, [r1, #4]
	.loc	3 687 46                        @ rt-thread/components/drivers/wlan/wlan_dev.c:687:46
	ldrb.w	r1, [sp, #67]
	.loc	3 687 19                        @ rt-thread/components/drivers/wlan/wlan_dev.c:687:19
	blx	r2
	.loc	3 687 17                        @ rt-thread/components/drivers/wlan/wlan_dev.c:687:17
	str	r0, [sp, #68]
	.loc	3 687 13                        @ rt-thread/components/drivers/wlan/wlan_dev.c:687:13
	b	.LBB33_7
.Ltmp343:
.LBB33_7:
	.loc	3 688 9 is_stmt 1               @ rt-thread/components/drivers/wlan/wlan_dev.c:688:9
	b	.LBB33_66
.Ltmp344:
.LBB33_8:
	.loc	3 692 42                        @ rt-thread/components/drivers/wlan/wlan_dev.c:692:42
	ldr	r0, [sp, #76]
	.loc	3 692 30 is_stmt 0              @ rt-thread/components/drivers/wlan/wlan_dev.c:692:30
	str	r0, [sp, #60]
.Ltmp345:
	.loc	3 695 13 is_stmt 1              @ rt-thread/components/drivers/wlan/wlan_dev.c:695:13
	ldr	r0, [sp, #72]
	.loc	3 695 19 is_stmt 0              @ rt-thread/components/drivers/wlan/wlan_dev.c:695:19
	ldr.w	r0, [r0, #304]
	.loc	3 695 24                        @ rt-thread/components/drivers/wlan/wlan_dev.c:695:24
	ldr	r0, [r0, #8]
.Ltmp346:
	.loc	3 695 13                        @ rt-thread/components/drivers/wlan/wlan_dev.c:695:13
	cbz	r0, .LBB33_10
	b	.LBB33_9
.LBB33_9:
.Ltmp347:
	.loc	3 696 19 is_stmt 1              @ rt-thread/components/drivers/wlan/wlan_dev.c:696:19
	ldr	r0, [sp, #72]
	.loc	3 696 25 is_stmt 0              @ rt-thread/components/drivers/wlan/wlan_dev.c:696:25
	ldr.w	r1, [r0, #304]
	.loc	3 696 30                        @ rt-thread/components/drivers/wlan/wlan_dev.c:696:30
	ldr	r2, [r1, #8]
	.loc	3 696 46                        @ rt-thread/components/drivers/wlan/wlan_dev.c:696:46
	ldr	r1, [sp, #60]
	.loc	3 696 19                        @ rt-thread/components/drivers/wlan/wlan_dev.c:696:19
	blx	r2
	.loc	3 696 17                        @ rt-thread/components/drivers/wlan/wlan_dev.c:696:17
	str	r0, [sp, #68]
	.loc	3 696 13                        @ rt-thread/components/drivers/wlan/wlan_dev.c:696:13
	b	.LBB33_10
.Ltmp348:
.LBB33_10:
	.loc	3 697 9 is_stmt 1               @ rt-thread/components/drivers/wlan/wlan_dev.c:697:9
	b	.LBB33_66
.Ltmp349:
.LBB33_11:
	.loc	3 701 40                        @ rt-thread/components/drivers/wlan/wlan_dev.c:701:40
	ldr	r0, [sp, #76]
	.loc	3 701 29 is_stmt 0              @ rt-thread/components/drivers/wlan/wlan_dev.c:701:29
	str	r0, [sp, #56]
.Ltmp350:
	.loc	3 704 13 is_stmt 1              @ rt-thread/components/drivers/wlan/wlan_dev.c:704:13
	ldr	r0, [sp, #72]
	.loc	3 704 19 is_stmt 0              @ rt-thread/components/drivers/wlan/wlan_dev.c:704:19
	ldr.w	r0, [r0, #304]
	.loc	3 704 24                        @ rt-thread/components/drivers/wlan/wlan_dev.c:704:24
	ldr	r0, [r0, #12]
.Ltmp351:
	.loc	3 704 13                        @ rt-thread/components/drivers/wlan/wlan_dev.c:704:13
	cbz	r0, .LBB33_13
	b	.LBB33_12
.LBB33_12:
.Ltmp352:
	.loc	3 705 19 is_stmt 1              @ rt-thread/components/drivers/wlan/wlan_dev.c:705:19
	ldr	r0, [sp, #72]
	.loc	3 705 25 is_stmt 0              @ rt-thread/components/drivers/wlan/wlan_dev.c:705:25
	ldr.w	r1, [r0, #304]
	.loc	3 705 30                        @ rt-thread/components/drivers/wlan/wlan_dev.c:705:30
	ldr	r2, [r1, #12]
	.loc	3 705 46                        @ rt-thread/components/drivers/wlan/wlan_dev.c:705:46
	ldr	r1, [sp, #56]
	.loc	3 705 19                        @ rt-thread/components/drivers/wlan/wlan_dev.c:705:19
	blx	r2
	.loc	3 705 17                        @ rt-thread/components/drivers/wlan/wlan_dev.c:705:17
	str	r0, [sp, #68]
	.loc	3 705 13                        @ rt-thread/components/drivers/wlan/wlan_dev.c:705:13
	b	.LBB33_13
.Ltmp353:
.LBB33_13:
	.loc	3 706 9 is_stmt 1               @ rt-thread/components/drivers/wlan/wlan_dev.c:706:9
	b	.LBB33_66
.Ltmp354:
.LBB33_14:
	.loc	3 710 38                        @ rt-thread/components/drivers/wlan/wlan_dev.c:710:38
	ldr	r0, [sp, #76]
	.loc	3 710 28 is_stmt 0              @ rt-thread/components/drivers/wlan/wlan_dev.c:710:28
	str	r0, [sp, #52]
.Ltmp355:
	.loc	3 713 13 is_stmt 1              @ rt-thread/components/drivers/wlan/wlan_dev.c:713:13
	ldr	r0, [sp, #72]
	.loc	3 713 19 is_stmt 0              @ rt-thread/components/drivers/wlan/wlan_dev.c:713:19
	ldr.w	r0, [r0, #304]
	.loc	3 713 24                        @ rt-thread/components/drivers/wlan/wlan_dev.c:713:24
	ldr	r0, [r0, #16]
.Ltmp356:
	.loc	3 713 13                        @ rt-thread/components/drivers/wlan/wlan_dev.c:713:13
	cbz	r0, .LBB33_16
	b	.LBB33_15
.LBB33_15:
.Ltmp357:
	.loc	3 714 19 is_stmt 1              @ rt-thread/components/drivers/wlan/wlan_dev.c:714:19
	ldr	r0, [sp, #72]
	.loc	3 714 25 is_stmt 0              @ rt-thread/components/drivers/wlan/wlan_dev.c:714:25
	ldr.w	r1, [r0, #304]
	.loc	3 714 30                        @ rt-thread/components/drivers/wlan/wlan_dev.c:714:30
	ldr	r2, [r1, #16]
	.loc	3 714 48                        @ rt-thread/components/drivers/wlan/wlan_dev.c:714:48
	ldr	r1, [sp, #52]
	.loc	3 714 19                        @ rt-thread/components/drivers/wlan/wlan_dev.c:714:19
	blx	r2
	.loc	3 714 17                        @ rt-thread/components/drivers/wlan/wlan_dev.c:714:17
	str	r0, [sp, #68]
	.loc	3 714 13                        @ rt-thread/components/drivers/wlan/wlan_dev.c:714:13
	b	.LBB33_16
.Ltmp358:
.LBB33_16:
	.loc	3 715 9 is_stmt 1               @ rt-thread/components/drivers/wlan/wlan_dev.c:715:9
	b	.LBB33_66
.Ltmp359:
.LBB33_17:
	.loc	3 720 13                        @ rt-thread/components/drivers/wlan/wlan_dev.c:720:13
	ldr	r0, [sp, #72]
	.loc	3 720 19 is_stmt 0              @ rt-thread/components/drivers/wlan/wlan_dev.c:720:19
	ldr.w	r0, [r0, #304]
	.loc	3 720 24                        @ rt-thread/components/drivers/wlan/wlan_dev.c:720:24
	ldr	r0, [r0, #20]
.Ltmp360:
	.loc	3 720 13                        @ rt-thread/components/drivers/wlan/wlan_dev.c:720:13
	cbz	r0, .LBB33_19
	b	.LBB33_18
.LBB33_18:
.Ltmp361:
	.loc	3 721 19 is_stmt 1              @ rt-thread/components/drivers/wlan/wlan_dev.c:721:19
	ldr	r0, [sp, #72]
	.loc	3 721 25 is_stmt 0              @ rt-thread/components/drivers/wlan/wlan_dev.c:721:25
	ldr.w	r1, [r0, #304]
	.loc	3 721 30                        @ rt-thread/components/drivers/wlan/wlan_dev.c:721:30
	ldr	r1, [r1, #20]
	.loc	3 721 19                        @ rt-thread/components/drivers/wlan/wlan_dev.c:721:19
	blx	r1
	.loc	3 721 17                        @ rt-thread/components/drivers/wlan/wlan_dev.c:721:17
	str	r0, [sp, #68]
	.loc	3 721 13                        @ rt-thread/components/drivers/wlan/wlan_dev.c:721:13
	b	.LBB33_19
.Ltmp362:
.LBB33_19:
	.loc	3 722 9 is_stmt 1               @ rt-thread/components/drivers/wlan/wlan_dev.c:722:9
	b	.LBB33_66
.Ltmp363:
.LBB33_20:
	.loc	3 727 13                        @ rt-thread/components/drivers/wlan/wlan_dev.c:727:13
	ldr	r0, [sp, #72]
	.loc	3 727 19 is_stmt 0              @ rt-thread/components/drivers/wlan/wlan_dev.c:727:19
	ldr.w	r0, [r0, #304]
	.loc	3 727 24                        @ rt-thread/components/drivers/wlan/wlan_dev.c:727:24
	ldr	r0, [r0, #24]
.Ltmp364:
	.loc	3 727 13                        @ rt-thread/components/drivers/wlan/wlan_dev.c:727:13
	cbz	r0, .LBB33_22
	b	.LBB33_21
.LBB33_21:
.Ltmp365:
	.loc	3 728 19 is_stmt 1              @ rt-thread/components/drivers/wlan/wlan_dev.c:728:19
	ldr	r0, [sp, #72]
	.loc	3 728 25 is_stmt 0              @ rt-thread/components/drivers/wlan/wlan_dev.c:728:25
	ldr.w	r1, [r0, #304]
	.loc	3 728 30                        @ rt-thread/components/drivers/wlan/wlan_dev.c:728:30
	ldr	r1, [r1, #24]
	.loc	3 728 19                        @ rt-thread/components/drivers/wlan/wlan_dev.c:728:19
	blx	r1
	.loc	3 728 17                        @ rt-thread/components/drivers/wlan/wlan_dev.c:728:17
	str	r0, [sp, #68]
	.loc	3 728 13                        @ rt-thread/components/drivers/wlan/wlan_dev.c:728:13
	b	.LBB33_22
.Ltmp366:
.LBB33_22:
	.loc	3 729 9 is_stmt 1               @ rt-thread/components/drivers/wlan/wlan_dev.c:729:9
	b	.LBB33_66
.Ltmp367:
.LBB33_23:
	.loc	3 734 13                        @ rt-thread/components/drivers/wlan/wlan_dev.c:734:13
	ldr	r0, [sp, #72]
	.loc	3 734 19 is_stmt 0              @ rt-thread/components/drivers/wlan/wlan_dev.c:734:19
	ldr.w	r0, [r0, #304]
	.loc	3 734 24                        @ rt-thread/components/drivers/wlan/wlan_dev.c:734:24
	ldr	r0, [r0, #28]
.Ltmp368:
	.loc	3 734 13                        @ rt-thread/components/drivers/wlan/wlan_dev.c:734:13
	cbz	r0, .LBB33_25
	b	.LBB33_24
.LBB33_24:
.Ltmp369:
	.loc	3 735 19 is_stmt 1              @ rt-thread/components/drivers/wlan/wlan_dev.c:735:19
	ldr	r0, [sp, #72]
	.loc	3 735 25 is_stmt 0              @ rt-thread/components/drivers/wlan/wlan_dev.c:735:25
	ldr.w	r1, [r0, #304]
	.loc	3 735 30                        @ rt-thread/components/drivers/wlan/wlan_dev.c:735:30
	ldr	r2, [r1, #28]
	.loc	3 735 51                        @ rt-thread/components/drivers/wlan/wlan_dev.c:735:51
	ldr	r1, [sp, #76]
	.loc	3 735 19                        @ rt-thread/components/drivers/wlan/wlan_dev.c:735:19
	blx	r2
	.loc	3 735 17                        @ rt-thread/components/drivers/wlan/wlan_dev.c:735:17
	str	r0, [sp, #68]
	.loc	3 735 13                        @ rt-thread/components/drivers/wlan/wlan_dev.c:735:13
	b	.LBB33_25
.Ltmp370:
.LBB33_25:
	.loc	3 736 9 is_stmt 1               @ rt-thread/components/drivers/wlan/wlan_dev.c:736:9
	b	.LBB33_66
.Ltmp371:
.LBB33_26:
	.loc	3 741 13                        @ rt-thread/components/drivers/wlan/wlan_dev.c:741:13
	ldr	r0, [sp, #72]
	.loc	3 741 19 is_stmt 0              @ rt-thread/components/drivers/wlan/wlan_dev.c:741:19
	ldr.w	r0, [r0, #304]
	.loc	3 741 24                        @ rt-thread/components/drivers/wlan/wlan_dev.c:741:24
	ldr	r0, [r0, #32]
.Ltmp372:
	.loc	3 741 13                        @ rt-thread/components/drivers/wlan/wlan_dev.c:741:13
	cbz	r0, .LBB33_28
	b	.LBB33_27
.LBB33_27:
.Ltmp373:
	.loc	3 742 19 is_stmt 1              @ rt-thread/components/drivers/wlan/wlan_dev.c:742:19
	ldr	r0, [sp, #72]
	.loc	3 742 25 is_stmt 0              @ rt-thread/components/drivers/wlan/wlan_dev.c:742:25
	ldr.w	r1, [r0, #304]
	.loc	3 742 30                        @ rt-thread/components/drivers/wlan/wlan_dev.c:742:30
	ldr	r1, [r1, #32]
	.loc	3 742 19                        @ rt-thread/components/drivers/wlan/wlan_dev.c:742:19
	blx	r1
	.loc	3 742 17                        @ rt-thread/components/drivers/wlan/wlan_dev.c:742:17
	str	r0, [sp, #68]
	.loc	3 742 13                        @ rt-thread/components/drivers/wlan/wlan_dev.c:742:13
	b	.LBB33_28
.Ltmp374:
.LBB33_28:
	.loc	3 743 9 is_stmt 1               @ rt-thread/components/drivers/wlan/wlan_dev.c:743:9
	b	.LBB33_66
.Ltmp375:
.LBB33_29:
	.loc	3 747 21                        @ rt-thread/components/drivers/wlan/wlan_dev.c:747:21
	ldr	r0, [sp, #76]
	.loc	3 747 14 is_stmt 0              @ rt-thread/components/drivers/wlan/wlan_dev.c:747:14
	str	r0, [sp, #48]
.Ltmp376:
	.loc	3 750 13 is_stmt 1              @ rt-thread/components/drivers/wlan/wlan_dev.c:750:13
	ldr	r0, [sp, #72]
	.loc	3 750 19 is_stmt 0              @ rt-thread/components/drivers/wlan/wlan_dev.c:750:19
	ldr.w	r0, [r0, #304]
	.loc	3 750 24                        @ rt-thread/components/drivers/wlan/wlan_dev.c:750:24
	ldr	r0, [r0, #36]
.Ltmp377:
	.loc	3 750 13                        @ rt-thread/components/drivers/wlan/wlan_dev.c:750:13
	cbz	r0, .LBB33_31
	b	.LBB33_30
.LBB33_30:
.Ltmp378:
	.loc	3 751 21 is_stmt 1              @ rt-thread/components/drivers/wlan/wlan_dev.c:751:21
	ldr	r0, [sp, #72]
	.loc	3 751 27 is_stmt 0              @ rt-thread/components/drivers/wlan/wlan_dev.c:751:27
	ldr.w	r1, [r0, #304]
	.loc	3 751 32                        @ rt-thread/components/drivers/wlan/wlan_dev.c:751:32
	ldr	r1, [r1, #36]
	.loc	3 751 21                        @ rt-thread/components/drivers/wlan/wlan_dev.c:751:21
	blx	r1
	.loc	3 751 14                        @ rt-thread/components/drivers/wlan/wlan_dev.c:751:14
	ldr	r1, [sp, #48]
	.loc	3 751 19                        @ rt-thread/components/drivers/wlan/wlan_dev.c:751:19
	str	r0, [r1]
	.loc	3 751 13                        @ rt-thread/components/drivers/wlan/wlan_dev.c:751:13
	b	.LBB33_31
.Ltmp379:
.LBB33_31:
	.loc	3 752 9 is_stmt 1               @ rt-thread/components/drivers/wlan/wlan_dev.c:752:9
	b	.LBB33_66
.Ltmp380:
.LBB33_32:
	.loc	3 756 30                        @ rt-thread/components/drivers/wlan/wlan_dev.c:756:30
	ldr	r0, [sp, #76]
	.loc	3 756 21 is_stmt 0              @ rt-thread/components/drivers/wlan/wlan_dev.c:756:21
	ldr	r0, [r0]
	.loc	3 756 13                        @ rt-thread/components/drivers/wlan/wlan_dev.c:756:13
	str	r0, [sp, #44]
.Ltmp381:
	.loc	3 759 13 is_stmt 1              @ rt-thread/components/drivers/wlan/wlan_dev.c:759:13
	ldr	r0, [sp, #72]
	.loc	3 759 19 is_stmt 0              @ rt-thread/components/drivers/wlan/wlan_dev.c:759:19
	ldr.w	r0, [r0, #304]
	.loc	3 759 24                        @ rt-thread/components/drivers/wlan/wlan_dev.c:759:24
	ldr	r0, [r0, #40]
.Ltmp382:
	.loc	3 759 13                        @ rt-thread/components/drivers/wlan/wlan_dev.c:759:13
	cbz	r0, .LBB33_34
	b	.LBB33_33
.LBB33_33:
.Ltmp383:
	.loc	3 760 19 is_stmt 1              @ rt-thread/components/drivers/wlan/wlan_dev.c:760:19
	ldr	r0, [sp, #72]
	.loc	3 760 25 is_stmt 0              @ rt-thread/components/drivers/wlan/wlan_dev.c:760:25
	ldr.w	r1, [r0, #304]
	.loc	3 760 30                        @ rt-thread/components/drivers/wlan/wlan_dev.c:760:30
	ldr	r2, [r1, #40]
	.loc	3 760 55                        @ rt-thread/components/drivers/wlan/wlan_dev.c:760:55
	ldr	r1, [sp, #44]
	.loc	3 760 19                        @ rt-thread/components/drivers/wlan/wlan_dev.c:760:19
	blx	r2
	.loc	3 760 17                        @ rt-thread/components/drivers/wlan/wlan_dev.c:760:17
	str	r0, [sp, #68]
	.loc	3 760 13                        @ rt-thread/components/drivers/wlan/wlan_dev.c:760:13
	b	.LBB33_34
.Ltmp384:
.LBB33_34:
	.loc	3 761 9 is_stmt 1               @ rt-thread/components/drivers/wlan/wlan_dev.c:761:9
	b	.LBB33_66
.Ltmp385:
.LBB33_35:
	.loc	3 765 22                        @ rt-thread/components/drivers/wlan/wlan_dev.c:765:22
	ldr	r0, [sp, #76]
	.loc	3 765 14 is_stmt 0              @ rt-thread/components/drivers/wlan/wlan_dev.c:765:14
	str	r0, [sp, #40]
.Ltmp386:
	.loc	3 768 13 is_stmt 1              @ rt-thread/components/drivers/wlan/wlan_dev.c:768:13
	ldr	r0, [sp, #72]
	.loc	3 768 19 is_stmt 0              @ rt-thread/components/drivers/wlan/wlan_dev.c:768:19
	ldr.w	r0, [r0, #304]
	.loc	3 768 24                        @ rt-thread/components/drivers/wlan/wlan_dev.c:768:24
	ldr	r0, [r0, #44]
.Ltmp387:
	.loc	3 768 13                        @ rt-thread/components/drivers/wlan/wlan_dev.c:768:13
	cbz	r0, .LBB33_37
	b	.LBB33_36
.LBB33_36:
.Ltmp388:
	.loc	3 769 22 is_stmt 1              @ rt-thread/components/drivers/wlan/wlan_dev.c:769:22
	ldr	r0, [sp, #72]
	.loc	3 769 28 is_stmt 0              @ rt-thread/components/drivers/wlan/wlan_dev.c:769:28
	ldr.w	r1, [r0, #304]
	.loc	3 769 33                        @ rt-thread/components/drivers/wlan/wlan_dev.c:769:33
	ldr	r1, [r1, #44]
	.loc	3 769 22                        @ rt-thread/components/drivers/wlan/wlan_dev.c:769:22
	blx	r1
	.loc	3 769 14                        @ rt-thread/components/drivers/wlan/wlan_dev.c:769:14
	ldr	r1, [sp, #40]
	.loc	3 769 20                        @ rt-thread/components/drivers/wlan/wlan_dev.c:769:20
	str	r0, [r1]
	.loc	3 769 13                        @ rt-thread/components/drivers/wlan/wlan_dev.c:769:13
	b	.LBB33_37
.Ltmp389:
.LBB33_37:
	.loc	3 770 9 is_stmt 1               @ rt-thread/components/drivers/wlan/wlan_dev.c:770:9
	b	.LBB33_66
.Ltmp390:
.LBB33_38:
	.loc	3 774 42                        @ rt-thread/components/drivers/wlan/wlan_dev.c:774:42
	ldr	r0, [sp, #76]
	.loc	3 774 27 is_stmt 0              @ rt-thread/components/drivers/wlan/wlan_dev.c:774:27
	ldr	r0, [r0]
	.loc	3 774 19                        @ rt-thread/components/drivers/wlan/wlan_dev.c:774:19
	str	r0, [sp, #36]
.Ltmp391:
	.loc	3 777 13 is_stmt 1              @ rt-thread/components/drivers/wlan/wlan_dev.c:777:13
	ldr	r0, [sp, #72]
	.loc	3 777 19 is_stmt 0              @ rt-thread/components/drivers/wlan/wlan_dev.c:777:19
	ldr.w	r0, [r0, #304]
	.loc	3 777 24                        @ rt-thread/components/drivers/wlan/wlan_dev.c:777:24
	ldr	r0, [r0, #48]
.Ltmp392:
	.loc	3 777 13                        @ rt-thread/components/drivers/wlan/wlan_dev.c:777:13
	cbz	r0, .LBB33_40
	b	.LBB33_39
.LBB33_39:
.Ltmp393:
	.loc	3 778 19 is_stmt 1              @ rt-thread/components/drivers/wlan/wlan_dev.c:778:19
	ldr	r0, [sp, #72]
	.loc	3 778 25 is_stmt 0              @ rt-thread/components/drivers/wlan/wlan_dev.c:778:25
	ldr.w	r1, [r0, #304]
	.loc	3 778 30                        @ rt-thread/components/drivers/wlan/wlan_dev.c:778:30
	ldr	r2, [r1, #48]
	.loc	3 778 53                        @ rt-thread/components/drivers/wlan/wlan_dev.c:778:53
	ldr	r1, [sp, #36]
	.loc	3 778 19                        @ rt-thread/components/drivers/wlan/wlan_dev.c:778:19
	blx	r2
	.loc	3 778 17                        @ rt-thread/components/drivers/wlan/wlan_dev.c:778:17
	str	r0, [sp, #68]
	.loc	3 778 13                        @ rt-thread/components/drivers/wlan/wlan_dev.c:778:13
	b	.LBB33_40
.Ltmp394:
.LBB33_40:
	.loc	3 779 9 is_stmt 1               @ rt-thread/components/drivers/wlan/wlan_dev.c:779:9
	b	.LBB33_66
.Ltmp395:
.LBB33_41:
	.loc	3 783 41                        @ rt-thread/components/drivers/wlan/wlan_dev.c:783:41
	ldr	r0, [sp, #76]
	.loc	3 783 32 is_stmt 0              @ rt-thread/components/drivers/wlan/wlan_dev.c:783:32
	str	r0, [sp, #32]
.Ltmp396:
	.loc	3 786 13 is_stmt 1              @ rt-thread/components/drivers/wlan/wlan_dev.c:786:13
	ldr	r0, [sp, #72]
	.loc	3 786 19 is_stmt 0              @ rt-thread/components/drivers/wlan/wlan_dev.c:786:19
	ldr.w	r0, [r0, #304]
	.loc	3 786 24                        @ rt-thread/components/drivers/wlan/wlan_dev.c:786:24
	ldr	r0, [r0, #52]
.Ltmp397:
	.loc	3 786 13                        @ rt-thread/components/drivers/wlan/wlan_dev.c:786:13
	cbz	r0, .LBB33_43
	b	.LBB33_42
.LBB33_42:
.Ltmp398:
	.loc	3 787 19 is_stmt 1              @ rt-thread/components/drivers/wlan/wlan_dev.c:787:19
	ldr	r0, [sp, #72]
	.loc	3 787 25 is_stmt 0              @ rt-thread/components/drivers/wlan/wlan_dev.c:787:25
	ldr.w	r1, [r0, #304]
	.loc	3 787 30                        @ rt-thread/components/drivers/wlan/wlan_dev.c:787:30
	ldr	r2, [r1, #52]
	.loc	3 787 52                        @ rt-thread/components/drivers/wlan/wlan_dev.c:787:52
	ldr	r1, [sp, #32]
	.loc	3 787 19                        @ rt-thread/components/drivers/wlan/wlan_dev.c:787:19
	blx	r2
	.loc	3 787 17                        @ rt-thread/components/drivers/wlan/wlan_dev.c:787:17
	str	r0, [sp, #68]
	.loc	3 787 13                        @ rt-thread/components/drivers/wlan/wlan_dev.c:787:13
	b	.LBB33_43
.Ltmp399:
.LBB33_43:
	.loc	3 788 9 is_stmt 1               @ rt-thread/components/drivers/wlan/wlan_dev.c:788:9
	b	.LBB33_66
.Ltmp400:
.LBB33_44:
	.loc	3 792 42                        @ rt-thread/components/drivers/wlan/wlan_dev.c:792:42
	ldr	r0, [sp, #76]
	.loc	3 792 27 is_stmt 0              @ rt-thread/components/drivers/wlan/wlan_dev.c:792:27
	ldr	r0, [r0]
	.loc	3 792 19                        @ rt-thread/components/drivers/wlan/wlan_dev.c:792:19
	str	r0, [sp, #28]
.Ltmp401:
	.loc	3 795 13 is_stmt 1              @ rt-thread/components/drivers/wlan/wlan_dev.c:795:13
	ldr	r0, [sp, #72]
	.loc	3 795 19 is_stmt 0              @ rt-thread/components/drivers/wlan/wlan_dev.c:795:19
	ldr.w	r0, [r0, #304]
	.loc	3 795 24                        @ rt-thread/components/drivers/wlan/wlan_dev.c:795:24
	ldr	r0, [r0, #56]
.Ltmp402:
	.loc	3 795 13                        @ rt-thread/components/drivers/wlan/wlan_dev.c:795:13
	cbz	r0, .LBB33_46
	b	.LBB33_45
.LBB33_45:
.Ltmp403:
	.loc	3 796 19 is_stmt 1              @ rt-thread/components/drivers/wlan/wlan_dev.c:796:19
	ldr	r0, [sp, #72]
	.loc	3 796 25 is_stmt 0              @ rt-thread/components/drivers/wlan/wlan_dev.c:796:25
	ldr.w	r1, [r0, #304]
	.loc	3 796 30                        @ rt-thread/components/drivers/wlan/wlan_dev.c:796:30
	ldr	r2, [r1, #56]
	.loc	3 796 57                        @ rt-thread/components/drivers/wlan/wlan_dev.c:796:57
	ldr	r1, [sp, #28]
	.loc	3 796 19                        @ rt-thread/components/drivers/wlan/wlan_dev.c:796:19
	blx	r2
	.loc	3 796 17                        @ rt-thread/components/drivers/wlan/wlan_dev.c:796:17
	str	r0, [sp, #68]
	.loc	3 796 13                        @ rt-thread/components/drivers/wlan/wlan_dev.c:796:13
	b	.LBB33_46
.Ltmp404:
.LBB33_46:
	.loc	3 797 9 is_stmt 1               @ rt-thread/components/drivers/wlan/wlan_dev.c:797:9
	b	.LBB33_66
.Ltmp405:
.LBB33_47:
	.loc	3 801 31                        @ rt-thread/components/drivers/wlan/wlan_dev.c:801:31
	ldr	r0, [sp, #76]
	.loc	3 801 23 is_stmt 0              @ rt-thread/components/drivers/wlan/wlan_dev.c:801:23
	ldr	r0, [r0]
	.loc	3 801 13                        @ rt-thread/components/drivers/wlan/wlan_dev.c:801:13
	str	r0, [sp, #24]
.Ltmp406:
	.loc	3 803 13 is_stmt 1              @ rt-thread/components/drivers/wlan/wlan_dev.c:803:13
	ldr	r0, [sp, #72]
	.loc	3 803 19 is_stmt 0              @ rt-thread/components/drivers/wlan/wlan_dev.c:803:19
	ldr.w	r0, [r0, #304]
	.loc	3 803 24                        @ rt-thread/components/drivers/wlan/wlan_dev.c:803:24
	ldr	r0, [r0, #60]
.Ltmp407:
	.loc	3 803 13                        @ rt-thread/components/drivers/wlan/wlan_dev.c:803:13
	cbz	r0, .LBB33_49
	b	.LBB33_48
.LBB33_48:
.Ltmp408:
	.loc	3 804 19 is_stmt 1              @ rt-thread/components/drivers/wlan/wlan_dev.c:804:19
	ldr	r0, [sp, #72]
	.loc	3 804 25 is_stmt 0              @ rt-thread/components/drivers/wlan/wlan_dev.c:804:25
	ldr.w	r1, [r0, #304]
	.loc	3 804 30                        @ rt-thread/components/drivers/wlan/wlan_dev.c:804:30
	ldr	r2, [r1, #60]
	.loc	3 804 53                        @ rt-thread/components/drivers/wlan/wlan_dev.c:804:53
	ldr	r1, [sp, #24]
	.loc	3 804 19                        @ rt-thread/components/drivers/wlan/wlan_dev.c:804:19
	blx	r2
	.loc	3 804 17                        @ rt-thread/components/drivers/wlan/wlan_dev.c:804:17
	str	r0, [sp, #68]
	.loc	3 804 13                        @ rt-thread/components/drivers/wlan/wlan_dev.c:804:13
	b	.LBB33_49
.Ltmp409:
.LBB33_49:
	.loc	3 805 9 is_stmt 1               @ rt-thread/components/drivers/wlan/wlan_dev.c:805:9
	b	.LBB33_66
.Ltmp410:
.LBB33_50:
	.loc	3 809 24                        @ rt-thread/components/drivers/wlan/wlan_dev.c:809:24
	ldr	r0, [sp, #76]
	.loc	3 809 14 is_stmt 0              @ rt-thread/components/drivers/wlan/wlan_dev.c:809:14
	str	r0, [sp, #20]
.Ltmp411:
	.loc	3 812 13 is_stmt 1              @ rt-thread/components/drivers/wlan/wlan_dev.c:812:13
	ldr	r0, [sp, #72]
	.loc	3 812 19 is_stmt 0              @ rt-thread/components/drivers/wlan/wlan_dev.c:812:19
	ldr.w	r0, [r0, #304]
	.loc	3 812 24                        @ rt-thread/components/drivers/wlan/wlan_dev.c:812:24
	ldr	r0, [r0, #64]
.Ltmp412:
	.loc	3 812 13                        @ rt-thread/components/drivers/wlan/wlan_dev.c:812:13
	cbz	r0, .LBB33_52
	b	.LBB33_51
.LBB33_51:
.Ltmp413:
	.loc	3 813 24 is_stmt 1              @ rt-thread/components/drivers/wlan/wlan_dev.c:813:24
	ldr	r0, [sp, #72]
	.loc	3 813 30 is_stmt 0              @ rt-thread/components/drivers/wlan/wlan_dev.c:813:30
	ldr.w	r1, [r0, #304]
	.loc	3 813 35                        @ rt-thread/components/drivers/wlan/wlan_dev.c:813:35
	ldr	r1, [r1, #64]
	.loc	3 813 24                        @ rt-thread/components/drivers/wlan/wlan_dev.c:813:24
	blx	r1
	.loc	3 813 14                        @ rt-thread/components/drivers/wlan/wlan_dev.c:813:14
	ldr	r1, [sp, #20]
	.loc	3 813 22                        @ rt-thread/components/drivers/wlan/wlan_dev.c:813:22
	str	r0, [r1]
	.loc	3 813 13                        @ rt-thread/components/drivers/wlan/wlan_dev.c:813:13
	b	.LBB33_52
.Ltmp414:
.LBB33_52:
	.loc	3 814 9 is_stmt 1               @ rt-thread/components/drivers/wlan/wlan_dev.c:814:9
	b	.LBB33_66
.Ltmp415:
.LBB33_53:
	.loc	3 818 59                        @ rt-thread/components/drivers/wlan/wlan_dev.c:818:59
	ldr	r0, [sp, #76]
	.loc	3 818 37 is_stmt 0              @ rt-thread/components/drivers/wlan/wlan_dev.c:818:37
	ldrb	r0, [r0]
	.loc	3 818 27                        @ rt-thread/components/drivers/wlan/wlan_dev.c:818:27
	strb.w	r0, [sp, #19]
.Ltmp416:
	.loc	3 821 13 is_stmt 1              @ rt-thread/components/drivers/wlan/wlan_dev.c:821:13
	ldr	r0, [sp, #72]
	.loc	3 821 19 is_stmt 0              @ rt-thread/components/drivers/wlan/wlan_dev.c:821:19
	ldr.w	r0, [r0, #304]
	.loc	3 821 24                        @ rt-thread/components/drivers/wlan/wlan_dev.c:821:24
	ldr	r0, [r0, #68]
.Ltmp417:
	.loc	3 821 13                        @ rt-thread/components/drivers/wlan/wlan_dev.c:821:13
	cbz	r0, .LBB33_55
	b	.LBB33_54
.LBB33_54:
.Ltmp418:
	.loc	3 822 19 is_stmt 1              @ rt-thread/components/drivers/wlan/wlan_dev.c:822:19
	ldr	r0, [sp, #72]
	.loc	3 822 25 is_stmt 0              @ rt-thread/components/drivers/wlan/wlan_dev.c:822:25
	ldr.w	r1, [r0, #304]
	.loc	3 822 30                        @ rt-thread/components/drivers/wlan/wlan_dev.c:822:30
	ldr	r2, [r1, #68]
	.loc	3 822 53                        @ rt-thread/components/drivers/wlan/wlan_dev.c:822:53
	ldrb.w	r1, [sp, #19]
	.loc	3 822 19                        @ rt-thread/components/drivers/wlan/wlan_dev.c:822:19
	blx	r2
	.loc	3 822 17                        @ rt-thread/components/drivers/wlan/wlan_dev.c:822:17
	str	r0, [sp, #68]
	.loc	3 822 13                        @ rt-thread/components/drivers/wlan/wlan_dev.c:822:13
	b	.LBB33_55
.Ltmp419:
.LBB33_55:
	.loc	3 823 9 is_stmt 1               @ rt-thread/components/drivers/wlan/wlan_dev.c:823:9
	b	.LBB33_66
.Ltmp420:
.LBB33_56:
	.loc	3 827 38                        @ rt-thread/components/drivers/wlan/wlan_dev.c:827:38
	ldr	r0, [sp, #76]
	.loc	3 827 28 is_stmt 0              @ rt-thread/components/drivers/wlan/wlan_dev.c:827:28
	str	r0, [sp, #12]
.Ltmp421:
	.loc	3 829 13 is_stmt 1              @ rt-thread/components/drivers/wlan/wlan_dev.c:829:13
	ldr	r0, [sp, #72]
	.loc	3 829 19 is_stmt 0              @ rt-thread/components/drivers/wlan/wlan_dev.c:829:19
	ldr.w	r0, [r0, #304]
	.loc	3 829 24                        @ rt-thread/components/drivers/wlan/wlan_dev.c:829:24
	ldr	r0, [r0, #72]
.Ltmp422:
	.loc	3 829 13                        @ rt-thread/components/drivers/wlan/wlan_dev.c:829:13
	cbz	r0, .LBB33_58
	b	.LBB33_57
.LBB33_57:
.Ltmp423:
	.loc	3 830 24 is_stmt 1              @ rt-thread/components/drivers/wlan/wlan_dev.c:830:24
	ldr	r0, [sp, #72]
	.loc	3 830 30 is_stmt 0              @ rt-thread/components/drivers/wlan/wlan_dev.c:830:30
	ldr.w	r1, [r0, #304]
	.loc	3 830 35                        @ rt-thread/components/drivers/wlan/wlan_dev.c:830:35
	ldr	r1, [r1, #72]
	.loc	3 830 24                        @ rt-thread/components/drivers/wlan/wlan_dev.c:830:24
	blx	r1
	.loc	3 830 14                        @ rt-thread/components/drivers/wlan/wlan_dev.c:830:14
	ldr	r1, [sp, #12]
	.loc	3 830 22                        @ rt-thread/components/drivers/wlan/wlan_dev.c:830:22
	strb	r0, [r1]
	.loc	3 830 13                        @ rt-thread/components/drivers/wlan/wlan_dev.c:830:13
	b	.LBB33_58
.Ltmp424:
.LBB33_58:
	.loc	3 831 9 is_stmt 1               @ rt-thread/components/drivers/wlan/wlan_dev.c:831:9
	b	.LBB33_66
.Ltmp425:
.LBB33_59:
	.loc	3 835 27                        @ rt-thread/components/drivers/wlan/wlan_dev.c:835:27
	ldr	r0, [sp, #76]
	.loc	3 835 21 is_stmt 0              @ rt-thread/components/drivers/wlan/wlan_dev.c:835:21
	str	r0, [sp, #8]
.Ltmp426:
	.loc	3 838 13 is_stmt 1              @ rt-thread/components/drivers/wlan/wlan_dev.c:838:13
	ldr	r0, [sp, #72]
	.loc	3 838 19 is_stmt 0              @ rt-thread/components/drivers/wlan/wlan_dev.c:838:19
	ldr.w	r0, [r0, #304]
	.loc	3 838 24                        @ rt-thread/components/drivers/wlan/wlan_dev.c:838:24
	ldr	r0, [r0, #76]
.Ltmp427:
	.loc	3 838 13                        @ rt-thread/components/drivers/wlan/wlan_dev.c:838:13
	cbz	r0, .LBB33_61
	b	.LBB33_60
.LBB33_60:
.Ltmp428:
	.loc	3 839 19 is_stmt 1              @ rt-thread/components/drivers/wlan/wlan_dev.c:839:19
	ldr	r0, [sp, #72]
	.loc	3 839 25 is_stmt 0              @ rt-thread/components/drivers/wlan/wlan_dev.c:839:25
	ldr.w	r1, [r0, #304]
	.loc	3 839 30                        @ rt-thread/components/drivers/wlan/wlan_dev.c:839:30
	ldr	r2, [r1, #76]
	.loc	3 839 49                        @ rt-thread/components/drivers/wlan/wlan_dev.c:839:49
	ldr	r1, [sp, #8]
	.loc	3 839 19                        @ rt-thread/components/drivers/wlan/wlan_dev.c:839:19
	blx	r2
	.loc	3 839 17                        @ rt-thread/components/drivers/wlan/wlan_dev.c:839:17
	str	r0, [sp, #68]
	.loc	3 839 13                        @ rt-thread/components/drivers/wlan/wlan_dev.c:839:13
	b	.LBB33_61
.Ltmp429:
.LBB33_61:
	.loc	3 840 9 is_stmt 1               @ rt-thread/components/drivers/wlan/wlan_dev.c:840:9
	b	.LBB33_66
.Ltmp430:
.LBB33_62:
	.loc	3 844 27                        @ rt-thread/components/drivers/wlan/wlan_dev.c:844:27
	ldr	r0, [sp, #76]
	.loc	3 844 21 is_stmt 0              @ rt-thread/components/drivers/wlan/wlan_dev.c:844:21
	str	r0, [sp, #4]
.Ltmp431:
	.loc	3 847 13 is_stmt 1              @ rt-thread/components/drivers/wlan/wlan_dev.c:847:13
	ldr	r0, [sp, #72]
	.loc	3 847 19 is_stmt 0              @ rt-thread/components/drivers/wlan/wlan_dev.c:847:19
	ldr.w	r0, [r0, #304]
	.loc	3 847 24                        @ rt-thread/components/drivers/wlan/wlan_dev.c:847:24
	ldr	r0, [r0, #80]
.Ltmp432:
	.loc	3 847 13                        @ rt-thread/components/drivers/wlan/wlan_dev.c:847:13
	cbz	r0, .LBB33_64
	b	.LBB33_63
.LBB33_63:
.Ltmp433:
	.loc	3 848 19 is_stmt 1              @ rt-thread/components/drivers/wlan/wlan_dev.c:848:19
	ldr	r0, [sp, #72]
	.loc	3 848 25 is_stmt 0              @ rt-thread/components/drivers/wlan/wlan_dev.c:848:25
	ldr.w	r1, [r0, #304]
	.loc	3 848 30                        @ rt-thread/components/drivers/wlan/wlan_dev.c:848:30
	ldr	r2, [r1, #80]
	.loc	3 848 49                        @ rt-thread/components/drivers/wlan/wlan_dev.c:848:49
	ldr	r1, [sp, #4]
	.loc	3 848 19                        @ rt-thread/components/drivers/wlan/wlan_dev.c:848:19
	blx	r2
	.loc	3 848 17                        @ rt-thread/components/drivers/wlan/wlan_dev.c:848:17
	str	r0, [sp, #68]
	.loc	3 848 13                        @ rt-thread/components/drivers/wlan/wlan_dev.c:848:13
	b	.LBB33_64
.Ltmp434:
.LBB33_64:
	.loc	3 849 9 is_stmt 1               @ rt-thread/components/drivers/wlan/wlan_dev.c:849:9
	b	.LBB33_66
.Ltmp435:
.LBB33_65:
	.loc	3 853 9                         @ rt-thread/components/drivers/wlan/wlan_dev.c:853:9
	b	.LBB33_66
.Ltmp436:
.LBB33_66:
	.loc	3 856 5                         @ rt-thread/components/drivers/wlan/wlan_dev.c:856:5
	ldr	r0, [sp, #72]
	adds	r0, #84
	bl	rt_mutex_release
	.loc	3 858 12                        @ rt-thread/components/drivers/wlan/wlan_dev.c:858:12
	ldr	r0, [sp, #68]
	.loc	3 858 5 is_stmt 0               @ rt-thread/components/drivers/wlan/wlan_dev.c:858:5
	add	sp, #88
	pop	{r7, pc}
.Ltmp437:
.Lfunc_end33:
	.size	_rt_wlan_dev_control, .Lfunc_end33-_rt_wlan_dev_control
	.cfi_endproc
	.cantunwind
	.fnend
                                        @ -- End function
	.type	.L.str,%object                  @ @.str
	.section	.rodata.str1.1,"aMS",%progbits,1
.L.str:
	.asciz	"[E/WLAN.dev] "
	.size	.L.str, 14

	.type	.L.str.1,%object                @ @.str.1
.L.str.1:
	.asciz	"F:%s L:%d Parameter Wrongful device:0x%08x mode:%d"
	.size	.L.str.1, 51

	.type	.L__FUNCTION__.rt_wlan_dev_init,%object @ @__FUNCTION__.rt_wlan_dev_init
.L__FUNCTION__.rt_wlan_dev_init:
	.asciz	"rt_wlan_dev_init"
	.size	.L__FUNCTION__.rt_wlan_dev_init, 17

	.type	.L.str.2,%object                @ @.str.2
.L.str.2:
	.asciz	"\n"
	.size	.L.str.2, 2

	.type	.L.str.3,%object                @ @.str.3
.L.str.3:
	.asciz	"F:%s L:%d This wlan device can only be set to sta mode!"
	.size	.L.str.3, 56

	.type	.L.str.4,%object                @ @.str.4
.L.str.4:
	.asciz	"F:%s L:%d This wlan device can only be set to ap mode!"
	.size	.L.str.4, 55

	.type	.L.str.5,%object                @ @.str.5
.L.str.5:
	.asciz	"L:%d wlan init failed"
	.size	.L.str.5, 22

	.type	.L.str.6,%object                @ @.str.6
.L.str.6:
	.asciz	"L:%d wlan config mode failed"
	.size	.L.str.6, 29

	.type	.L.str.7,%object                @ @.str.7
.L.str.7:
	.asciz	"L:%d password or ssid is too long"
	.size	.L.str.7, 34

	.type	.L.str.8,%object                @ @.str.8
.L.str.8:
	.asciz	"L:%d ssid is too long"
	.size	.L.str.8, 22

	.type	.L.str.9,%object                @ @.str.9
.L.str.9:
	.asciz	"F:%s L:%d parameter Wrongful"
	.size	.L.str.9, 29

	.type	.L__FUNCTION__.rt_wlan_dev_register,%object @ @__FUNCTION__.rt_wlan_dev_register
.L__FUNCTION__.rt_wlan_dev_register:
	.asciz	"rt_wlan_dev_register"
	.size	.L__FUNCTION__.rt_wlan_dev_register, 21

	.type	.L.str.10,%object               @ @.str.10
.L.str.10:
	.asciz	"wlan_dev"
	.size	.L.str.10, 9

	.type	.L.str.11,%object               @ @.str.11
.L.str.11:
	.asciz	"[I/WLAN.dev] "
	.size	.L.str.11, 14

	.type	.L.str.12,%object               @ @.str.12
.L.str.12:
	.asciz	"wlan init success"
	.size	.L.str.12, 18

	.type	.L.str.13,%object               @ @.str.13
.L.str.13:
	.asciz	"wlan init failed"
	.size	.L.str.13, 17

	.type	.L.str.14,%object               @ @.str.14
.L.str.14:
	.asciz	"dev != RT_NULL"
	.size	.L.str.14, 15

	.type	.L__FUNCTION__._rt_wlan_dev_control,%object @ @__FUNCTION__._rt_wlan_dev_control
.L__FUNCTION__._rt_wlan_dev_control:
	.asciz	"_rt_wlan_dev_control"
	.size	.L__FUNCTION__._rt_wlan_dev_control, 21

	.section	".note.GNU-stack","",%progbits
	.eabi_attribute	30, 6	@ Tag_ABI_optimization_goals
	.ARM_attribute	16, 1	@ Tag_AV_eba