	.text
	.syntax unified
	.eabi_attribute	67, "2.09"	@ Tag_conformance
	.cpu	cortex-m7
	.eabi_attribute	6, 13	@ Tag_CPU_arch
	.eabi_attribute	7, 77	@ Tag_CPU_arch_profile
	.eabi_attribute	8, 0	@ Tag_ARM_ISA_use
	.eabi_attribute	9, 2	@ Tag_THUMB_ISA_use
	.fpu	fpv5-d16
	.eabi_attribute	36, 1	@ Tag_FP_HP_extension
	.eabi_attribute	34, 1	@ Tag_CPU_unaligned_access
	.eabi_attribute	17, 1	@ Tag_ABI_PCS_GOT_use
	.eabi_attribute	20, 2	@ Tag_ABI_FP_denormal
	.eabi_attribute	21, 0	@ Tag_ABI_FP_exceptions
	.eabi_attribute	23, 1	@ Tag_ABI_FP_number_model
	.eabi_attribute	24, 1	@ Tag_ABI_align_needed
	.eabi_attribute	25, 1	@ Tag_ABI_align_preserved
	.eabi_attribute	28, 1	@ Tag_ABI_VFP_args
	.eabi_attribute	38, 1	@ Tag_ABI_FP_16bit_format
	.eabi_attribute	18, 2	@ Tag_ABI_PCS_wchar_t
	.eabi_attribute	26, 1	@ Tag_ABI_enum_size
	.eabi_attribute	14, 0	@ Tag_ABI_PCS_R9_use
	.file	"wlan_workqueue.c"
	.file	1 "E:\\Smart-access-control\\Hardware\\CODE" "rt-thread/include\\rtdef.h"
	.file	2 "E:\\Smart-access-control\\Hardware\\CODE" "rt-thread/components/drivers/wlan/wlan_workqueue.c"
	.file	3 "E:\\Smart-access-control\\Hardware\\CODE" "rt-thread/components/drivers/include\\ipc/workqueue.h"
	.section	.text.rt_wlan_get_workqueue,"ax",%progbits
	.hidden	rt_wlan_get_workqueue           @ -- Begin function rt_wlan_get_workqueue
	.globl	rt_wlan_get_workqueue
	.p2align	3
	.type	rt_wlan_get_workqueue,%function
	.code	16                              @ @rt_wlan_get_workqueue
	.thumb_func
rt_wlan_get_workqueue:
.Lfunc_begin0:
	.loc	2 40 0                          @ rt-thread/components/drivers/wlan/wlan_workqueue.c:40:0
	.fnstart
	.cfi_sections .debug_frame
	.cfi_startproc
@ %bb.0:
	.loc	2 41 12 prologue_end            @ rt-thread/components/drivers/wlan/wlan_workqueue.c:41:12
	movw	r0, :lower16:wlan_workqueue
	movt	r0, :upper16:wlan_workqueue
	ldr	r0, [r0]
	.loc	2 41 5 is_stmt 0                @ rt-thread/components/drivers/wlan/wlan_workqueue.c:41:5
	bx	lr
.Ltmp0:
.Lfunc_end0:
	.size	rt_wlan_get_workqueue, .Lfunc_end0-rt_wlan_get_workqueue
	.cfi_endproc
	.cantunwind
	.fnend
                                        @ -- End function
	.section	.text.rt_wlan_workqueue_dowork,"ax",%progbits
	.hidden	rt_wlan_workqueue_dowork        @ -- Begin function rt_wlan_workqueue_dowork
	.globl	rt_wlan_workqueue_dowork
	.p2align	3
	.type	rt_wlan_workqueue_dowork,%function
	.code	16                              @ @rt_wlan_workqueue_dowork
	.thumb_func
rt_wlan_workqueue_dowork:
.Lfunc_begin1:
	.loc	2 45 0 is_stmt 1                @ rt-thread/components/drivers/wlan/wlan_workqueue.c:45:0
	.fnstart
	.cfi_startproc
@ %bb.0:
	@DEBUG_VALUE: rt_wlan_workqueue_dowork:func <- $r0
	@DEBUG_VALUE: rt_wlan_workqueue_dowork:parameter <- $r1
	@DEBUG_VALUE: rt_wlan_workqueue_dowork:func <- $r0
	.save	{r4, r5, r6, r7, lr}
	push	{r4, r5, r6, r7, lr}
	.cfi_def_cfa_offset 20
	.cfi_offset lr, -4
	.cfi_offset r7, -8
	.cfi_offset r6, -12
	.cfi_offset r5, -16
	.cfi_offset r4, -20
	.pad	#4
	sub	sp, #4
	.cfi_def_cfa_offset 24
.Ltmp1:
	@DEBUG_VALUE: rt_wlan_workqueue_dowork:err <- 0
	@DEBUG_VALUE: rt_wlan_workqueue_dowork:parameter <- $r1
	.loc	2 50 9 prologue_end             @ rt-thread/components/drivers/wlan/wlan_workqueue.c:50:9
	cbz	r0, .LBB1_5
.Ltmp2:
@ %bb.1:
	@DEBUG_VALUE: rt_wlan_workqueue_dowork:parameter <- $r1
	@DEBUG_VALUE: rt_wlan_workqueue_dowork:func <- $r0
	@DEBUG_VALUE: rt_wlan_workqueue_dowork:err <- 0
	.loc	2 56 9                          @ rt-thread/components/drivers/wlan/wlan_workqueue.c:56:9
	movw	r7, :lower16:wlan_workqueue
	mov	r4, r0
.Ltmp3:
	@DEBUG_VALUE: rt_wlan_workqueue_dowork:func <- $r4
	@DEBUG_VALUE: rt_wlan_workqueue_dowork:func <- $r4
	@DEBUG_VALUE: rt_wlan_workqueue_dowork:parameter <- $r1
	movt	r7, :upper16:wlan_workqueue
	ldr	r0, [r7]
.Ltmp4:
	.loc	2 56 9 is_stmt 0                @ rt-thread/components/drivers/wlan/wlan_workqueue.c:56:9
	cmp	r0, #0
	beq	.LBB1_6
.Ltmp5:
@ %bb.2:
	@DEBUG_VALUE: rt_wlan_workqueue_dowork:func <- $r4
	@DEBUG_VALUE: rt_wlan_workqueue_dowork:parameter <- $r1
	@DEBUG_VALUE: rt_wlan_workqueue_dowork:err <- 0
	.loc	2 62 17 is_stmt 1               @ rt-thread/components/drivers/wlan/wlan_workqueue.c:62:17
	movs	r0, #76
	mov	r6, r1
.Ltmp6:
	@DEBUG_VALUE: rt_wlan_workqueue_dowork:parameter <- $r6
	@DEBUG_VALUE: rt_wlan_workqueue_dowork:parameter <- $r6
	bl	rt_malloc
.Ltmp7:
	@DEBUG_VALUE: rt_wlan_workqueue_dowork:wlan_work <- $r0
	.loc	2 63 9                          @ rt-thread/components/drivers/wlan/wlan_workqueue.c:63:9
	cmp	r0, #0
	beq	.LBB1_7
.Ltmp8:
@ %bb.3:
	@DEBUG_VALUE: rt_wlan_workqueue_dowork:parameter <- $r6
	@DEBUG_VALUE: rt_wlan_workqueue_dowork:func <- $r4
	@DEBUG_VALUE: rt_wlan_workqueue_dowork:wlan_work <- $r0
	@DEBUG_VALUE: rt_wlan_workqueue_dowork:err <- 0
	.loc	2 70 5                          @ rt-thread/components/drivers/wlan/wlan_workqueue.c:70:5
	mov	r1, r0
	.loc	2 0 0 is_stmt 0                 @ rt-thread/components/drivers/wlan/wlan_workqueue.c:0:0
	mov	r5, r0
.Ltmp9:
	@DEBUG_VALUE: rt_wlan_workqueue_dowork:wlan_work <- $r5
	@DEBUG_VALUE: rt_wlan_workqueue_dowork:wlan_work <- $r5
	.loc	2 68 20 is_stmt 1               @ rt-thread/components/drivers/wlan/wlan_workqueue.c:68:20
	strd	r4, r6, [r0, #68]
	.loc	2 70 5                          @ rt-thread/components/drivers/wlan/wlan_workqueue.c:70:5
	bl	rt_work_init
	.loc	2 71 31                         @ rt-thread/components/drivers/wlan/wlan_workqueue.c:71:31
	ldr	r0, [r7]
	.loc	2 71 11 is_stmt 0               @ rt-thread/components/drivers/wlan/wlan_workqueue.c:71:11
	mov	r1, r5
	bl	rt_workqueue_dowork
.Ltmp10:
	@DEBUG_VALUE: rt_wlan_workqueue_dowork:err <- $r0
	.loc	2 72 9 is_stmt 1                @ rt-thread/components/drivers/wlan/wlan_workqueue.c:72:9
	cmp	r0, #0
	beq	.LBB1_8
.Ltmp11:
@ %bb.4:
	@DEBUG_VALUE: rt_wlan_workqueue_dowork:parameter <- $r6
	@DEBUG_VALUE: rt_wlan_workqueue_dowork:wlan_work <- $r5
	@DEBUG_VALUE: rt_wlan_workqueue_dowork:func <- $r4
	@DEBUG_VALUE: rt_wlan_workqueue_dowork:err <- $r0
	.loc	2 0 0 is_stmt 0                 @ rt-thread/components/drivers/wlan/wlan_workqueue.c:0:0
	mov	r4, r0
.Ltmp12:
	@DEBUG_VALUE: rt_wlan_workqueue_dowork:err <- $r4
	@DEBUG_VALUE: rt_wlan_workqueue_dowork:func <- [DW_OP_LLVM_entry_value 1] $r0
	@DEBUG_VALUE: rt_wlan_workqueue_dowork:err <- $r4
	.loc	2 74 9 is_stmt 1                @ rt-thread/components/drivers/wlan/wlan_workqueue.c:74:9
	movw	r0, :lower16:.L.str
	movt	r0, :upper16:.L.str
	bl	rt_kprintf
	movw	r1, :lower16:.L__FUNCTION__.rt_wlan_workqueue_dowork
	adr	r0, .LCPI1_0
	movt	r1, :upper16:.L__FUNCTION__.rt_wlan_workqueue_dowork
	movs	r2, #74
	bl	rt_kprintf
	movw	r0, :lower16:.L.str.2
	movt	r0, :upper16:.L.str.2
	bl	rt_kprintf
.Ltmp13:
	.loc	2 75 9                          @ rt-thread/components/drivers/wlan/wlan_workqueue.c:75:9
	mov	r0, r5
	bl	rt_free
	b	.LBB1_9
.Ltmp14:
.LBB1_5:
	@DEBUG_VALUE: rt_wlan_workqueue_dowork:parameter <- $r1
	@DEBUG_VALUE: rt_wlan_workqueue_dowork:func <- $r0
	@DEBUG_VALUE: rt_wlan_workqueue_dowork:err <- 0
	.loc	2 52 9                          @ rt-thread/components/drivers/wlan/wlan_workqueue.c:52:9
	movw	r0, :lower16:.L.str
.Ltmp15:
	@DEBUG_VALUE: rt_wlan_workqueue_dowork:func <- [DW_OP_LLVM_entry_value 1] $r0
	movt	r0, :upper16:.L.str
	bl	rt_kprintf
.Ltmp16:
	@DEBUG_VALUE: rt_wlan_workqueue_dowork:parameter <- [DW_OP_LLVM_entry_value 1] $r1
	movw	r1, :lower16:.L__FUNCTION__.rt_wlan_workqueue_dowork
	adr	r0, .LCPI1_3
	movt	r1, :upper16:.L__FUNCTION__.rt_wlan_workqueue_dowork
	movs	r2, #52
	bl	rt_kprintf
	movw	r0, :lower16:.L.str.2
	movt	r0, :upper16:.L.str.2
	bl	rt_kprintf
	mvn	r4, #9
.Ltmp17:
	.loc	2 53 9                          @ rt-thread/components/drivers/wlan/wlan_workqueue.c:53:9
	b	.LBB1_9
.Ltmp18:
.LBB1_6:
	@DEBUG_VALUE: rt_wlan_workqueue_dowork:func <- $r4
	@DEBUG_VALUE: rt_wlan_workqueue_dowork:parameter <- $r1
	@DEBUG_VALUE: rt_wlan_workqueue_dowork:err <- 0
	.loc	2 58 9                          @ rt-thread/components/drivers/wlan/wlan_workqueue.c:58:9
	movw	r0, :lower16:.L.str
	movt	r0, :upper16:.L.str
	bl	rt_kprintf
.Ltmp19:
	@DEBUG_VALUE: rt_wlan_workqueue_dowork:parameter <- [DW_OP_LLVM_entry_value 1] $r1
	movw	r1, :lower16:.L__FUNCTION__.rt_wlan_workqueue_dowork
	adr	r0, .LCPI1_2
	movt	r1, :upper16:.L__FUNCTION__.rt_wlan_workqueue_dowork
	movs	r2, #58
	bl	rt_kprintf
	movw	r0, :lower16:.L.str.2
	movt	r0, :upper16:.L.str.2
	bl	rt_kprintf
	mov.w	r4, #-1
.Ltmp20:
	@DEBUG_VALUE: rt_wlan_workqueue_dowork:func <- [DW_OP_LLVM_entry_value 1] $r0
	.loc	2 59 9                          @ rt-thread/components/drivers/wlan/wlan_workqueue.c:59:9
	b	.LBB1_9
.Ltmp21:
.LBB1_7:
	@DEBUG_VALUE: rt_wlan_workqueue_dowork:parameter <- $r6
	@DEBUG_VALUE: rt_wlan_workqueue_dowork:func <- $r4
	@DEBUG_VALUE: rt_wlan_workqueue_dowork:wlan_work <- $r0
	@DEBUG_VALUE: rt_wlan_workqueue_dowork:err <- 0
	.loc	2 65 9                          @ rt-thread/components/drivers/wlan/wlan_workqueue.c:65:9
	movw	r0, :lower16:.L.str
.Ltmp22:
	movt	r0, :upper16:.L.str
	bl	rt_kprintf
	movw	r1, :lower16:.L__FUNCTION__.rt_wlan_workqueue_dowork
	adr	r0, .LCPI1_1
	movt	r1, :upper16:.L__FUNCTION__.rt_wlan_workqueue_dowork
	movs	r2, #65
	bl	rt_kprintf
	movw	r0, :lower16:.L.str.2
	movt	r0, :upper16:.L.str.2
	bl	rt_kprintf
	mvn	r4, #4
.Ltmp23:
	@DEBUG_VALUE: rt_wlan_workqueue_dowork:func <- [DW_OP_LLVM_entry_value 1] $r0
	.loc	2 66 9                          @ rt-thread/components/drivers/wlan/wlan_workqueue.c:66:9
	b	.LBB1_9
.Ltmp24:
.LBB1_8:
	@DEBUG_VALUE: rt_wlan_workqueue_dowork:parameter <- $r6
	@DEBUG_VALUE: rt_wlan_workqueue_dowork:wlan_work <- $r5
	@DEBUG_VALUE: rt_wlan_workqueue_dowork:func <- $r4
	@DEBUG_VALUE: rt_wlan_workqueue_dowork:err <- $r0
	.loc	2 0 9 is_stmt 0                 @ rt-thread/components/drivers/wlan/wlan_workqueue.c:0:9
	movs	r4, #0
.Ltmp25:
	@DEBUG_VALUE: rt_wlan_workqueue_dowork:func <- [DW_OP_LLVM_entry_value 1] $r0
.LBB1_9:
	.loc	2 79 1 is_stmt 1                @ rt-thread/components/drivers/wlan/wlan_workqueue.c:79:1
	mov	r0, r4
	add	sp, #4
	pop	{r4, r5, r6, r7, pc}
.Ltmp26:
	.p2align	2
@ %bb.10:
	.loc	2 0 1 is_stmt 0                 @ rt-thread/components/drivers/wlan/wlan_workqueue.c:0:1
.LCPI1_0:
.L.str.5:
	.asciz	"F:%s L:%d do work failed\000\000\000"
.LCPI1_1:
.L.str.4:
	.asciz	"F:%s L:%d create work failed\000\000\000"
.LCPI1_2:
.L.str.3:
	.asciz	"F:%s L:%d not init wlan work queue\000"
.LCPI1_3:
.L.str.1:
	.asciz	"F:%s L:%d func is null\000"
.Lfunc_end1:
	.size	rt_wlan_workqueue_dowork, .Lfunc_end1-rt_wlan_workqueue_dowork
	.cfi_endproc
	.cantunwind
	.fnend
                                        @ -- End function
	.section	.text.rt_work_init,"ax",%progbits
	.p2align	3                               @ -- Begin function rt_work_init
	.type	rt_work_init,%function
	.code	16                              @ @rt_work_init
	.thumb_func
rt_work_init:
.Lfunc_begin2:
	.loc	3 73 0 is_stmt 1                @ rt-thread/components/drivers/include\ipc/workqueue.h:73:0
	.fnstart
	.cfi_startproc
@ %bb.0:
	@DEBUG_VALUE: rt_work_init:work <- $r0
	@DEBUG_VALUE: rt_work_init:work_data <- $r1
	.save	{r4, r5, r7, lr}
	push	{r4, r5, r7, lr}
	.cfi_def_cfa_offset 16
	.cfi_offset lr, -4
	.cfi_offset r7, -8
	.cfi_offset r5, -12
	.cfi_offset r4, -16
	mov	r4, r1
.Ltmp27:
	@DEBUG_VALUE: rt_work_init:work_data <- $r4
	mov	r5, r0
	@DEBUG_VALUE: rt_work_init:work_data <- $r4
.Ltmp28:
	@DEBUG_VALUE: rt_work_init:work <- $r5
	.loc	3 74 5 prologue_end             @ rt-thread/components/drivers/include\ipc/workqueue.h:74:5
	bl	rt_list_init
	.loc	3 75 21                         @ rt-thread/components/drivers/include\ipc/workqueue.h:75:21
	movw	r0, :lower16:rt_wlan_workqueue_fun
	movs	r1, #0
	movt	r0, :upper16:rt_wlan_workqueue_fun
.Ltmp29:
	@DEBUG_VALUE: rt_work_init:work_func <- $r0
	.loc	3 77 21                         @ rt-thread/components/drivers/include\ipc/workqueue.h:77:21
	str	r1, [r5, #64]
	.loc	3 75 21                         @ rt-thread/components/drivers/include\ipc/workqueue.h:75:21
	strd	r0, r4, [r5, #8]
	.loc	3 78 17                         @ rt-thread/components/drivers/include\ipc/workqueue.h:78:17
	str	r1, [r5, #16]
	.loc	3 80 1                          @ rt-thread/components/drivers/include\ipc/workqueue.h:80:1
	pop	{r4, r5, r7, pc}
.Ltmp30:
.Lfunc_end2:
	.size	rt_work_init, .Lfunc_end2-rt_work_init
	.cfi_endproc
	.cantunwind
	.fnend
                                        @ -- End function
	.section	.text.rt_wlan_workqueue_fun,"ax",%progbits
	.p2align	3                               @ -- Begin function rt_wlan_workqueue_fun
	.type	rt_wlan_workqueue_fun,%function
	.code	16                              @ @rt_wlan_workqueue_fun
	.thumb_func
rt_wlan_workqueue_fun:
.Lfunc_begin3:
	.loc	2 32 0                          @ rt-thread/components/drivers/wlan/wlan_workqueue.c:32:0
	.fnstart
	.cfi_startproc
@ %bb.0:
	@DEBUG_VALUE: rt_wlan_workqueue_fun:work <- $r0
	@DEBUG_VALUE: rt_wlan_workqueue_fun:work_data <- $r1
	.save	{r4, lr}
	push	{r4, lr}
	.cfi_def_cfa_offset 8
	.cfi_offset lr, -4
	.cfi_offset r4, -8
.Ltmp31:
	@DEBUG_VALUE: rt_wlan_workqueue_fun:wlan_work <- $r1
	mov	r4, r1
.Ltmp32:
	@DEBUG_VALUE: rt_wlan_workqueue_fun:wlan_work <- $r4
	@DEBUG_VALUE: rt_wlan_workqueue_fun:work_data <- $r4
	.loc	2 35 16 prologue_end            @ rt-thread/components/drivers/wlan/wlan_workqueue.c:35:16
	ldr	r1, [r1, #68]
	.loc	2 35 31 is_stmt 0               @ rt-thread/components/drivers/wlan/wlan_workqueue.c:35:31
	ldr	r0, [r4, #72]
.Ltmp33:
	@DEBUG_VALUE: rt_wlan_workqueue_fun:work <- [DW_OP_LLVM_entry_value 1] $r0
	.loc	2 35 5                          @ rt-thread/components/drivers/wlan/wlan_workqueue.c:35:5
	blx	r1
	.loc	2 36 5 is_stmt 1                @ rt-thread/components/drivers/wlan/wlan_workqueue.c:36:5
	mov	r0, r4
	bl	rt_free
	.loc	2 37 1                          @ rt-thread/components/drivers/wlan/wlan_workqueue.c:37:1
	pop	{r4, pc}
.Ltmp34:
.Lfunc_end3:
	.size	rt_wlan_workqueue_fun, .Lfunc_end3-rt_wlan_workqueue_fun
	.cfi_endproc
	.cantunwind
	.fnend
                                        @ -- End function
	.section	.text.rt_wlan_workqueue_init,"ax",%progbits
	.hidden	rt_wlan_workqueue_init          @ -- Begin function rt_wlan_workqueue_init
	.globl	rt_wlan_workqueue_init
	.p2align	3
	.type	rt_wlan_workqueue_init,%function
	.code	16                              @ @rt_wlan_workqueue_init
	.thumb_func
rt_wlan_workqueue_init:
.Lfunc_begin4:
	.loc	2 82 0                          @ rt-thread/components/drivers/wlan/wlan_workqueue.c:82:0
	.fnstart
	.cfi_startproc
@ %bb.0:
	.save	{r4, lr}
	push	{r4, lr}
	.cfi_def_cfa_offset 8
	.cfi_offset lr, -4
	.cfi_offset r4, -8
.Ltmp35:
	.loc	2 85 9 prologue_end             @ rt-thread/components/drivers/wlan/wlan_workqueue.c:85:9
	movw	r4, :lower16:rt_wlan_workqueue_init._init_flag
	movt	r4, :upper16:rt_wlan_workqueue_init._init_flag
	ldrb	r0, [r4]
.Ltmp36:
	.loc	2 85 9 is_stmt 0                @ rt-thread/components/drivers/wlan/wlan_workqueue.c:85:9
	cbnz	r0, .LBB4_3
@ %bb.1:
.Ltmp37:
	.loc	2 87 26 is_stmt 1               @ rt-thread/components/drivers/wlan/wlan_workqueue.c:87:26
	adr	r0, .LCPI4_0
	mov.w	r1, #2048
	movs	r2, #15
	bl	rt_workqueue_create
	.loc	2 87 24 is_stmt 0               @ rt-thread/components/drivers/wlan/wlan_workqueue.c:87:24
	movw	r1, :lower16:wlan_workqueue
	movt	r1, :upper16:wlan_workqueue
	str	r0, [r1]
	.loc	2 89 13 is_stmt 1               @ rt-thread/components/drivers/wlan/wlan_workqueue.c:89:13
	cbz	r0, .LBB4_4
@ %bb.2:
	.loc	2 0 13 is_stmt 0                @ rt-thread/components/drivers/wlan/wlan_workqueue.c:0:13
	movs	r0, #1
	.loc	2 94 20 is_stmt 1               @ rt-thread/components/drivers/wlan/wlan_workqueue.c:94:20
	strb	r0, [r4]
.Ltmp38:
.LBB4_3:
	.loc	2 0 20 is_stmt 0                @ rt-thread/components/drivers/wlan/wlan_workqueue.c:0:20
	movs	r0, #0
	.loc	2 98 1 is_stmt 1                @ rt-thread/components/drivers/wlan/wlan_workqueue.c:98:1
	pop	{r4, pc}
.LBB4_4:
.Ltmp39:
	.loc	2 91 13                         @ rt-thread/components/drivers/wlan/wlan_workqueue.c:91:13
	movw	r0, :lower16:.L.str
	movt	r0, :upper16:.L.str
	bl	rt_kprintf
	adr	r0, .LCPI4_1
	adr	r1, .LCPI4_2
	movs	r2, #91
	bl	rt_kprintf
	movw	r0, :lower16:.L.str.2
	movt	r0, :upper16:.L.str.2
	bl	rt_kprintf
	mov.w	r0, #-1
.Ltmp40:
	.loc	2 98 1                          @ rt-thread/components/drivers/wlan/wlan_workqueue.c:98:1
	pop	{r4, pc}
.Ltmp41:
	.p2align	2
@ %bb.5:
	.loc	2 0 1 is_stmt 0                 @ rt-thread/components/drivers/wlan/wlan_workqueue.c:0:1
.LCPI4_0:
.L.str.6:
	.asciz	"wlan\000\000\000"
.LCPI4_1:
.L.str.7:
	.asciz	"F:%s L:%d wlan work queue create failed"
.LCPI4_2:
.L__FUNCTION__.rt_wlan_workqueue_init:
	.asciz	"rt_wlan_workqueue_init\000"
.Lfunc_end4:
	.size	rt_wlan_workqueue_init, .Lfunc_end4-rt_wlan_workqueue_init
	.cfi_endproc
	.cantunwind
	.fnend
                                        @ -- End function
	.section	.text.rt_list_init,"ax",%progbits
	.p2align	3                               @ -- Begin function rt_list_init
	.type	rt_list_init,%function
	.code	16                              @ @rt_list_init
	.thumb_func
rt_list_init:
.Lfunc_begin5:
	.file	4 "E:\\Smart-access-control\\Hardware\\CODE" "rt-thread/include\\rtservice.h"
	.loc	4 48 0 is_stmt 1                @ rt-thread/include\rtservice.h:48:0
	.fnstart
	.cfi_startproc
@ %bb.0:
	@DEBUG_VALUE: rt_list_init:l <- $r0
	@DEBUG_VALUE: rt_list_init:l <- $r0
	.loc	4 49 13 prologue_end            @ rt-thread/include\rtservice.h:49:13
	strd	r0, r0, [r0]
	.loc	4 50 1                          @ rt-thread/include\rtservice.h:50:1
	bx	lr
.Ltmp42:
.Lfunc_end5:
	.size	rt_list_init, .Lfunc_end5-rt_list_init
	.cfi_endproc
	.cantunwind
	.fnend
                                        @ -- End function
	.type	wlan_workqueue,%object          @ @wlan_workqueue
	.section	.bss.wlan_workqueue,"aw",%nobits
	.p2align	2
wlan_workqueue:
	.long	0
	.size	wlan_workqueue, 4

	.type	.L.str,%object                  @ @.str
	.section	.rodata.str1.1,"aMS",%progbits,1
.L.str:
	.asciz	"[E/WLAN.work] "
	.size	.L.str, 15

	.type	.L__FUNCTION__.rt_wlan_workqueue_dowork,%object @ @__FUNCTION__.rt_wlan_workqueue_dowork
.L__FUNCTION__.rt_wlan_workqueue_dowork:
	.asciz	"rt_wlan_workqueue_dowork"
	.size	.L__FUNCTION__.rt_wlan_workqueue_dowork, 25

	.type	.L.str.2,%object                @ @.str.2
.L.str.2:
	.asciz	"\n"
	.size	.L.str.2, 2

	.type	rt_wlan_workqueue_init._init_flag,%object @ @rt_wlan_workqueue_init._init_flag
	.section	.bss.rt_wlan_workqueue_init._init_flag,"aw",%nobits
rt_wlan_workqueue_init._init_flag:
	.byte	0                               @ 0x0
	.size	rt_wlan_workqueue_init._init_flag, 1

	.hidden	__rt_init_rt_wlan_workqueue_init @ @__rt_init_rt_wlan_workqueue_init
	.type	__rt_init_rt_wlan_workqueue_init,%object
	.section	.rti_fn.2,"a",%progbits
	.globl	__rt_init_rt_wlan_workqueue_init
	.p2align	2
__rt_init_rt_wlan_workqueue_init:
__tagsym$$used.0:
	.long	rt_wlan_workqueue_init
	.size	__rt_init_rt_wlan_workqueue_init, 4

	.globl	__rt_init_rt_wlan_workqueue_init
	.section	".note.GNU-stack","",%progbits
	.eabi_attribute	30, 1	@ Tag_ABI_optimization_goals
	.ARM_attribute	16, 1	@ Tag_AV_eba