	.text
	.syntax unified
	.eabi_attribute	67, "2.09"	@ Tag_conformance
	.cpu	cortex-m7
	.eabi_attribute	6, 13	@ Tag_CPU_arch
	.eabi_attribute	7, 77	@ Tag_CPU_arch_profile
	.eabi_attribute	8, 0	@ Tag_ARM_ISA_use
	.eabi_attribute	9, 2	@ Tag_THUMB_ISA_use
	.fpu	fpv5-d16
	.eabi_attribute	36, 1	@ Tag_FP_HP_extension
	.eabi_attribute	34, 1	@ Tag_CPU_unaligned_access
	.eabi_attribute	17, 1	@ Tag_ABI_PCS_GOT_use
	.eabi_attribute	20, 2	@ Tag_ABI_FP_denormal
	.eabi_attribute	21, 0	@ Tag_ABI_FP_exceptions
	.eabi_attribute	23, 1	@ Tag_ABI_FP_number_model
	.eabi_attribute	24, 1	@ Tag_ABI_align_needed
	.eabi_attribute	25, 1	@ Tag_ABI_align_preserved
	.eabi_attribute	28, 1	@ Tag_ABI_VFP_args
	.eabi_attribute	38, 1	@ Tag_ABI_FP_16bit_format
	.eabi_attribute	18, 2	@ Tag_ABI_PCS_wchar_t
	.eabi_attribute	26, 1	@ Tag_ABI_enum_size
	.eabi_attribute	14, 0	@ Tag_ABI_PCS_R9_use
	.file	"wlan_mgnt.c"
	.file	1 "E:\\STM32\\Learning\\STM32H750_ART_PI_RGBLCD" "./rt-thread/components/drivers/wlan\\wlan_dev.h"
	.file	2 "E:\\STM32\\Learning\\STM32H750_ART_PI_RGBLCD" "rt-thread/include\\rtdef.h"
	.file	3 "E:\\STM32\\Learning\\STM32H750_ART_PI_RGBLCD" "rt-thread/components/drivers/wlan/wlan_mgnt.c"
	.file	4 "E:\\STM32\\Learning\\STM32H750_ART_PI_RGBLCD" "./rt-thread/components/drivers/wlan\\wlan_mgnt.h"
	.file	5 "E:\\STM32\\Learning\\STM32H750_ART_PI_RGBLCD" "rt-thread/components/drivers/include\\ipc/workqueue.h"
	.section	.text.rt_wlan_set_mode,"ax",%progbits
	.hidden	rt_wlan_set_mode                @ -- Begin function rt_wlan_set_mode
	.globl	rt_wlan_set_mode
	.p2align	3
	.type	rt_wlan_set_mode,%function
	.code	16                              @ @rt_wlan_set_mode
	.thumb_func
rt_wlan_set_mode:
.Lfunc_begin0:
	.loc	3 813 0                         @ rt-thread/components/drivers/wlan/wlan_mgnt.c:813:0
	.fnstart
	.cfi_sections .debug_frame
	.cfi_startproc
@ %bb.0:
	.save	{r7, lr}
	push	{r7, lr}
	.cfi_def_cfa_offset 8
	.cfi_offset lr, -4
	.cfi_offset r7, -8
	.pad	#48
	sub	sp, #48
	.cfi_def_cfa_offset 56
                                        @ kill: def $r2 killed $r1
	str	r0, [sp, #40]
	strb.w	r1, [sp, #39]
	movs	r0, #0
.Ltmp0:
	.loc	3 814 17 prologue_end           @ rt-thread/components/drivers/wlan/wlan_mgnt.c:814:17
	str	r0, [sp, #32]
	.loc	3 816 15                        @ rt-thread/components/drivers/wlan/wlan_mgnt.c:816:15
	strb.w	r0, [sp, #27]
	.loc	3 817 31                        @ rt-thread/components/drivers/wlan/wlan_mgnt.c:817:31
	str	r0, [sp, #20]
.Ltmp1:
	.loc	3 819 10                        @ rt-thread/components/drivers/wlan/wlan_mgnt.c:819:10
	ldr	r0, [sp, #40]
	.loc	3 819 31 is_stmt 0              @ rt-thread/components/drivers/wlan/wlan_mgnt.c:819:31
	cbz	r0, .LBB0_2
	b	.LBB0_1
.LBB0_1:
	.loc	3 819 35                        @ rt-thread/components/drivers/wlan/wlan_mgnt.c:819:35
	ldrb.w	r0, [sp, #39]
.Ltmp2:
	.loc	3 819 9                         @ rt-thread/components/drivers/wlan/wlan_mgnt.c:819:9
	cmp	r0, #3
	blt	.LBB0_5
	b	.LBB0_2
.LBB0_2:
.Ltmp3:
	.loc	3 821 9 is_stmt 1               @ rt-thread/components/drivers/wlan/wlan_mgnt.c:821:9
	b	.LBB0_3
.LBB0_3:
.Ltmp4:
	.loc	3 821 9 is_stmt 0               @ rt-thread/components/drivers/wlan/wlan_mgnt.c:821:9
	movw	r0, :lower16:.L.str
	movt	r0, :upper16:.L.str
	bl	rt_kprintf
	ldr	r3, [sp, #40]
	ldrb.w	r0, [sp, #39]
	mov	r1, sp
	str	r0, [r1]
	movw	r0, :lower16:.L.str.1
	movt	r0, :upper16:.L.str.1
	movw	r1, :lower16:.L__FUNCTION__.rt_wlan_set_mode
	movt	r1, :upper16:.L__FUNCTION__.rt_wlan_set_mode
	movw	r2, #821
	bl	rt_kprintf
	movw	r0, :lower16:.L.str.2
	movt	r0, :upper16:.L.str.2
	bl	rt_kprintf
	b	.LBB0_4
.Ltmp5:
.LBB0_4:
	.loc	3 0 9                           @ rt-thread/components/drivers/wlan/wlan_mgnt.c:0:9
	mvn	r0, #9
	.loc	3 822 9 is_stmt 1               @ rt-thread/components/drivers/wlan/wlan_mgnt.c:822:9
	str	r0, [sp, #44]
	b	.LBB0_65
.Ltmp6:
.LBB0_5:
	.loc	3 832 29                        @ rt-thread/components/drivers/wlan/wlan_mgnt.c:832:29
	ldr	r0, [sp, #40]
	.loc	3 832 14 is_stmt 0              @ rt-thread/components/drivers/wlan/wlan_mgnt.c:832:14
	bl	rt_device_find
	.loc	3 832 12                        @ rt-thread/components/drivers/wlan/wlan_mgnt.c:832:12
	str	r0, [sp, #32]
.Ltmp7:
	.loc	3 833 9 is_stmt 1               @ rt-thread/components/drivers/wlan/wlan_mgnt.c:833:9
	ldr	r0, [sp, #32]
.Ltmp8:
	.loc	3 833 9 is_stmt 0               @ rt-thread/components/drivers/wlan/wlan_mgnt.c:833:9
	cbnz	r0, .LBB0_9
	b	.LBB0_6
.LBB0_6:
.Ltmp9:
	.loc	3 835 9 is_stmt 1               @ rt-thread/components/drivers/wlan/wlan_mgnt.c:835:9
	b	.LBB0_7
.LBB0_7:
.Ltmp10:
	.loc	3 835 9 is_stmt 0               @ rt-thread/components/drivers/wlan/wlan_mgnt.c:835:9
	movw	r0, :lower16:.L.str
	movt	r0, :upper16:.L.str
	bl	rt_kprintf
	ldr	r3, [sp, #40]
	movw	r0, :lower16:.L.str.3
	movt	r0, :upper16:.L.str.3
	movw	r1, :lower16:.L__FUNCTION__.rt_wlan_set_mode
	movt	r1, :upper16:.L__FUNCTION__.rt_wlan_set_mode
	movw	r2, #835
	bl	rt_kprintf
	movw	r0, :lower16:.L.str.2
	movt	r0, :upper16:.L.str.2
	bl	rt_kprintf
	b	.LBB0_8
.Ltmp11:
.LBB0_8:
	.loc	3 0 9                           @ rt-thread/components/drivers/wlan/wlan_mgnt.c:0:9
	mvn	r0, #7
	.loc	3 836 9 is_stmt 1               @ rt-thread/components/drivers/wlan/wlan_mgnt.c:836:9
	str	r0, [sp, #44]
	b	.LBB0_65
.Ltmp12:
.LBB0_9:
	.loc	3 839 5                         @ rt-thread/components/drivers/wlan/wlan_mgnt.c:839:5
	movw	r0, :lower16:mgnt_mutex
	movt	r0, :upper16:mgnt_mutex
	mov.w	r1, #-1
	bl	rt_mutex_take
.Ltmp13:
	.loc	3 840 9                         @ rt-thread/components/drivers/wlan/wlan_mgnt.c:840:9
	ldr	r0, [sp, #32]
	.loc	3 840 33 is_stmt 0              @ rt-thread/components/drivers/wlan/wlan_mgnt.c:840:33
	ldrb.w	r0, [r0, #80]
	.loc	3 840 41                        @ rt-thread/components/drivers/wlan/wlan_mgnt.c:840:41
	ldrb.w	r1, [sp, #39]
.Ltmp14:
	.loc	3 840 9                         @ rt-thread/components/drivers/wlan/wlan_mgnt.c:840:9
	cmp	r0, r1
	bne	.LBB0_11
	b	.LBB0_10
.LBB0_10:
.Ltmp15:
	.loc	3 843 9 is_stmt 1               @ rt-thread/components/drivers/wlan/wlan_mgnt.c:843:9
	movw	r0, :lower16:mgnt_mutex
	movt	r0, :upper16:mgnt_mutex
	bl	rt_mutex_release
	movs	r0, #0
	.loc	3 844 9                         @ rt-thread/components/drivers/wlan/wlan_mgnt.c:844:9
	str	r0, [sp, #44]
	b	.LBB0_65
.Ltmp16:
.LBB0_11:
	.loc	3 847 10                        @ rt-thread/components/drivers/wlan/wlan_mgnt.c:847:10
	ldrb.w	r0, [sp, #39]
	.loc	3 847 35 is_stmt 0              @ rt-thread/components/drivers/wlan/wlan_mgnt.c:847:35
	cmp	r0, #1
	bne	.LBB0_16
	b	.LBB0_12
.LBB0_12:
	.loc	3 848 14 is_stmt 1              @ rt-thread/components/drivers/wlan/wlan_mgnt.c:848:14
	ldr	r0, [sp, #32]
.Ltmp17:
	.loc	3 847 9                         @ rt-thread/components/drivers/wlan/wlan_mgnt.c:847:9
	ldrb.w	r0, [r0, #308]
	lsls	r0, r0, #30
	cmp	r0, #0
	bpl	.LBB0_16
	b	.LBB0_13
.LBB0_13:
.Ltmp18:
	.loc	3 850 9                         @ rt-thread/components/drivers/wlan/wlan_mgnt.c:850:9
	b	.LBB0_14
.LBB0_14:
.Ltmp19:
	.loc	3 850 9 is_stmt 0               @ rt-thread/components/drivers/wlan/wlan_mgnt.c:850:9
	movw	r0, :lower16:.L.str.4
	movt	r0, :upper16:.L.str.4
	bl	rt_kprintf
	movw	r0, :lower16:.L.str.5
	movt	r0, :upper16:.L.str.5
	bl	rt_kprintf
	movw	r0, :lower16:.L.str.2
	movt	r0, :upper16:.L.str.2
	bl	rt_kprintf
	b	.LBB0_15
.Ltmp20:
.LBB0_15:
	.loc	3 851 9 is_stmt 1               @ rt-thread/components/drivers/wlan/wlan_mgnt.c:851:9
	movw	r0, :lower16:mgnt_mutex
	movt	r0, :upper16:mgnt_mutex
	bl	rt_mutex_release
	mov.w	r0, #-1
	.loc	3 852 9                         @ rt-thread/components/drivers/wlan/wlan_mgnt.c:852:9
	str	r0, [sp, #44]
	b	.LBB0_65
.Ltmp21:
.LBB0_16:
	.loc	3 854 15                        @ rt-thread/components/drivers/wlan/wlan_mgnt.c:854:15
	ldrb.w	r0, [sp, #39]
	.loc	3 854 35 is_stmt 0              @ rt-thread/components/drivers/wlan/wlan_mgnt.c:854:35
	cmp	r0, #2
	bne	.LBB0_21
	b	.LBB0_17
.LBB0_17:
	.loc	3 855 15 is_stmt 1              @ rt-thread/components/drivers/wlan/wlan_mgnt.c:855:15
	ldr	r0, [sp, #32]
.Ltmp22:
	.loc	3 854 14                        @ rt-thread/components/drivers/wlan/wlan_mgnt.c:854:14
	ldrb.w	r0, [r0, #308]
	lsls	r0, r0, #31
	cbz	r0, .LBB0_21
	b	.LBB0_18
.LBB0_18:
.Ltmp23:
	.loc	3 857 9                         @ rt-thread/components/drivers/wlan/wlan_mgnt.c:857:9
	b	.LBB0_19
.LBB0_19:
.Ltmp24:
	.loc	3 857 9 is_stmt 0               @ rt-thread/components/drivers/wlan/wlan_mgnt.c:857:9
	movw	r0, :lower16:.L.str.4
	movt	r0, :upper16:.L.str.4
	bl	rt_kprintf
	movw	r0, :lower16:.L.str.6
	movt	r0, :upper16:.L.str.6
	bl	rt_kprintf
	movw	r0, :lower16:.L.str.2
	movt	r0, :upper16:.L.str.2
	bl	rt_kprintf
	b	.LBB0_20
.Ltmp25:
.LBB0_20:
	.loc	3 858 9 is_stmt 1               @ rt-thread/components/drivers/wlan/wlan_mgnt.c:858:9
	movw	r0, :lower16:mgnt_mutex
	movt	r0, :upper16:mgnt_mutex
	bl	rt_mutex_release
	mov.w	r0, #-1
	.loc	3 859 9                         @ rt-thread/components/drivers/wlan/wlan_mgnt.c:859:9
	str	r0, [sp, #44]
	b	.LBB0_65
.Ltmp26:
.LBB0_21:
	.loc	3 0 9 is_stmt 0                 @ rt-thread/components/drivers/wlan/wlan_mgnt.c:0:9
	b	.LBB0_22
.LBB0_22:
.Ltmp27:
	.loc	3 866 11 is_stmt 1              @ rt-thread/components/drivers/wlan/wlan_mgnt.c:866:11
	ldrb.w	r0, [sp, #39]
	.loc	3 866 36 is_stmt 0              @ rt-thread/components/drivers/wlan/wlan_mgnt.c:866:36
	cmp	r0, #1
	bne	.LBB0_24
	b	.LBB0_23
.LBB0_23:
	.loc	3 866 40                        @ rt-thread/components/drivers/wlan/wlan_mgnt.c:866:40
	ldr	r0, [sp, #32]
	.loc	3 866 66                        @ rt-thread/components/drivers/wlan/wlan_mgnt.c:866:66
	movw	r1, :lower16:_ap_mgnt
	movt	r1, :upper16:_ap_mgnt
	ldr	r1, [r1]
	.loc	3 866 80                        @ rt-thread/components/drivers/wlan/wlan_mgnt.c:866:80
	cmp	r0, r1
	beq	.LBB0_26
	b	.LBB0_24
.LBB0_24:
	.loc	3 867 15 is_stmt 1              @ rt-thread/components/drivers/wlan/wlan_mgnt.c:867:15
	ldrb.w	r0, [sp, #39]
	.loc	3 867 35 is_stmt 0              @ rt-thread/components/drivers/wlan/wlan_mgnt.c:867:35
	cmp	r0, #2
	bne	.LBB0_31
	b	.LBB0_25
.LBB0_25:
	.loc	3 867 39                        @ rt-thread/components/drivers/wlan/wlan_mgnt.c:867:39
	ldr	r0, [sp, #32]
	.loc	3 867 65                        @ rt-thread/components/drivers/wlan/wlan_mgnt.c:867:65
	movw	r1, :lower16:_sta_mgnt
	movt	r1, :upper16:_sta_mgnt
	ldr	r1, [r1]
.Ltmp28:
	.loc	3 866 9 is_stmt 1               @ rt-thread/components/drivers/wlan/wlan_mgnt.c:866:9
	cmp	r0, r1
	bne	.LBB0_31
	b	.LBB0_26
.LBB0_26:
.Ltmp29:
	.loc	3 869 32                        @ rt-thread/components/drivers/wlan/wlan_mgnt.c:869:32
	ldr	r0, [sp, #40]
	movs	r1, #0
	.loc	3 869 15 is_stmt 0              @ rt-thread/components/drivers/wlan/wlan_mgnt.c:869:15
	bl	rt_wlan_set_mode
	.loc	3 869 13                        @ rt-thread/components/drivers/wlan/wlan_mgnt.c:869:13
	str	r0, [sp, #28]
.Ltmp30:
	.loc	3 870 13 is_stmt 1              @ rt-thread/components/drivers/wlan/wlan_mgnt.c:870:13
	ldr	r0, [sp, #28]
.Ltmp31:
	.loc	3 870 13 is_stmt 0              @ rt-thread/components/drivers/wlan/wlan_mgnt.c:870:13
	cbz	r0, .LBB0_30
	b	.LBB0_27
.LBB0_27:
.Ltmp32:
	.loc	3 872 13 is_stmt 1              @ rt-thread/components/drivers/wlan/wlan_mgnt.c:872:13
	b	.LBB0_28
.LBB0_28:
.Ltmp33:
	.loc	3 872 13 is_stmt 0              @ rt-thread/components/drivers/wlan/wlan_mgnt.c:872:13
	movw	r0, :lower16:.L.str
	movt	r0, :upper16:.L.str
	bl	rt_kprintf
	movw	r0, :lower16:.L.str.7
	movt	r0, :upper16:.L.str.7
	movw	r1, :lower16:.L__FUNCTION__.rt_wlan_set_mode
	movt	r1, :upper16:.L__FUNCTION__.rt_wlan_set_mode
	mov.w	r2, #872
	bl	rt_kprintf
	movw	r0, :lower16:.L.str.2
	movt	r0, :upper16:.L.str.2
	bl	rt_kprintf
	b	.LBB0_29
.Ltmp34:
.LBB0_29:
	.loc	3 873 13 is_stmt 1              @ rt-thread/components/drivers/wlan/wlan_mgnt.c:873:13
	movw	r0, :lower16:mgnt_mutex
	movt	r0, :upper16:mgnt_mutex
	bl	rt_mutex_release
	.loc	3 874 20                        @ rt-thread/components/drivers/wlan/wlan_mgnt.c:874:20
	ldr	r0, [sp, #28]
	.loc	3 874 13 is_stmt 0              @ rt-thread/components/drivers/wlan/wlan_mgnt.c:874:13
	str	r0, [sp, #44]
	b	.LBB0_65
.Ltmp35:
.LBB0_30:
	.loc	3 876 5 is_stmt 1               @ rt-thread/components/drivers/wlan/wlan_mgnt.c:876:5
	b	.LBB0_31
.Ltmp36:
.LBB0_31:
	.loc	3 879 28                        @ rt-thread/components/drivers/wlan/wlan_mgnt.c:879:28
	ldr	r0, [sp, #32]
	.loc	3 879 52 is_stmt 0              @ rt-thread/components/drivers/wlan/wlan_mgnt.c:879:52
	ldrb.w	r1, [sp, #39]
	.loc	3 879 11                        @ rt-thread/components/drivers/wlan/wlan_mgnt.c:879:11
	bl	rt_wlan_dev_init
	.loc	3 879 9                         @ rt-thread/components/drivers/wlan/wlan_mgnt.c:879:9
	str	r0, [sp, #28]
.Ltmp37:
	.loc	3 880 9 is_stmt 1               @ rt-thread/components/drivers/wlan/wlan_mgnt.c:880:9
	ldr	r0, [sp, #28]
.Ltmp38:
	.loc	3 880 9 is_stmt 0               @ rt-thread/components/drivers/wlan/wlan_mgnt.c:880:9
	cbz	r0, .LBB0_35
	b	.LBB0_32
.LBB0_32:
.Ltmp39:
	.loc	3 882 9 is_stmt 1               @ rt-thread/components/drivers/wlan/wlan_mgnt.c:882:9
	b	.LBB0_33
.LBB0_33:
.Ltmp40:
	.loc	3 882 9 is_stmt 0               @ rt-thread/components/drivers/wlan/wlan_mgnt.c:882:9
	movw	r0, :lower16:.L.str
	movt	r0, :upper16:.L.str
	bl	rt_kprintf
	mov	r0, sp
	movw	r2, #882
	str	r2, [r0]
	movw	r0, :lower16:.L.str.8
	movt	r0, :upper16:.L.str.8
	movw	r3, :lower16:.L__FUNCTION__.rt_wlan_set_mode
	movt	r3, :upper16:.L__FUNCTION__.rt_wlan_set_mode
	mov	r1, r3
	bl	rt_kprintf
	movw	r0, :lower16:.L.str.2
	movt	r0, :upper16:.L.str.2
	bl	rt_kprintf
	b	.LBB0_34
.Ltmp41:
.LBB0_34:
	.loc	3 883 9 is_stmt 1               @ rt-thread/components/drivers/wlan/wlan_mgnt.c:883:9
	movw	r0, :lower16:mgnt_mutex
	movt	r0, :upper16:mgnt_mutex
	bl	rt_mutex_release
	.loc	3 884 16                        @ rt-thread/components/drivers/wlan/wlan_mgnt.c:884:16
	ldr	r0, [sp, #28]
	.loc	3 884 9 is_stmt 0               @ rt-thread/components/drivers/wlan/wlan_mgnt.c:884:9
	str	r0, [sp, #44]
	b	.LBB0_65
.Ltmp42:
.LBB0_35:
	.loc	3 888 9 is_stmt 1               @ rt-thread/components/drivers/wlan/wlan_mgnt.c:888:9
	ldrb.w	r0, [sp, #39]
.Ltmp43:
	.loc	3 888 9 is_stmt 0               @ rt-thread/components/drivers/wlan/wlan_mgnt.c:888:9
	cbnz	r0, .LBB0_42
	b	.LBB0_36
.LBB0_36:
.Ltmp44:
	.loc	3 890 23 is_stmt 1              @ rt-thread/components/drivers/wlan/wlan_mgnt.c:890:23
	movw	r0, :lower16:_sta_mgnt
	movt	r0, :upper16:_sta_mgnt
	ldr	r0, [r0]
	.loc	3 890 33 is_stmt 0              @ rt-thread/components/drivers/wlan/wlan_mgnt.c:890:33
	ldr	r1, [sp, #32]
.Ltmp45:
	.loc	3 890 13                        @ rt-thread/components/drivers/wlan/wlan_mgnt.c:890:13
	cmp	r0, r1
	bne	.LBB0_38
	b	.LBB0_37
.LBB0_37:
.Ltmp46:
	.loc	3 892 30 is_stmt 1              @ rt-thread/components/drivers/wlan/wlan_mgnt.c:892:30
	movw	r1, :lower16:_sta_mgnt
	movt	r1, :upper16:_sta_mgnt
	movs	r0, #0
	str	r0, [r1]
	.loc	3 893 29                        @ rt-thread/components/drivers/wlan/wlan_mgnt.c:893:29
	strb.w	r0, [r1, #98]
	movs	r1, #1
	.loc	3 894 27                        @ rt-thread/components/drivers/wlan/wlan_mgnt.c:894:27
	strb.w	r1, [sp, #27]
	.loc	3 895 21                        @ rt-thread/components/drivers/wlan/wlan_mgnt.c:895:21
	str	r0, [sp, #20]
	.loc	3 896 9                         @ rt-thread/components/drivers/wlan/wlan_mgnt.c:896:9
	b	.LBB0_41
.Ltmp47:
.LBB0_38:
	.loc	3 897 27                        @ rt-thread/components/drivers/wlan/wlan_mgnt.c:897:27
	movw	r0, :lower16:_ap_mgnt
	movt	r0, :upper16:_ap_mgnt
	ldr	r0, [r0]
	.loc	3 897 37 is_stmt 0              @ rt-thread/components/drivers/wlan/wlan_mgnt.c:897:37
	ldr	r1, [sp, #32]
.Ltmp48:
	.loc	3 897 18                        @ rt-thread/components/drivers/wlan/wlan_mgnt.c:897:18
	cmp	r0, r1
	bne	.LBB0_40
	b	.LBB0_39
.LBB0_39:
.Ltmp49:
	.loc	3 899 28 is_stmt 1              @ rt-thread/components/drivers/wlan/wlan_mgnt.c:899:28
	movw	r1, :lower16:_ap_mgnt
	movt	r1, :upper16:_ap_mgnt
	movs	r0, #0
	strb.w	r0, [r1, #98]
	.loc	3 900 29                        @ rt-thread/components/drivers/wlan/wlan_mgnt.c:900:29
	str	r0, [r1]
	movs	r1, #1
	.loc	3 901 27                        @ rt-thread/components/drivers/wlan/wlan_mgnt.c:901:27
	strb.w	r1, [sp, #27]
	.loc	3 902 21                        @ rt-thread/components/drivers/wlan/wlan_mgnt.c:902:21
	str	r0, [sp, #20]
	.loc	3 903 9                         @ rt-thread/components/drivers/wlan/wlan_mgnt.c:903:9
	b	.LBB0_40
.Ltmp50:
.LBB0_40:
	.loc	3 0 9 is_stmt 0                 @ rt-thread/components/drivers/wlan/wlan_mgnt.c:0:9
	b	.LBB0_41
.LBB0_41:
	.loc	3 904 5 is_stmt 1               @ rt-thread/components/drivers/wlan/wlan_mgnt.c:904:5
	b	.LBB0_48
.Ltmp51:
.LBB0_42:
	.loc	3 906 14                        @ rt-thread/components/drivers/wlan/wlan_mgnt.c:906:14
	ldrb.w	r0, [sp, #39]
.Ltmp52:
	.loc	3 906 14 is_stmt 0              @ rt-thread/components/drivers/wlan/wlan_mgnt.c:906:14
	cmp	r0, #1
	bne	.LBB0_44
	b	.LBB0_43
.LBB0_43:
	.loc	3 0 14                          @ rt-thread/components/drivers/wlan/wlan_mgnt.c:0:14
	movs	r0, #1
.Ltmp53:
	.loc	3 908 23 is_stmt 1              @ rt-thread/components/drivers/wlan/wlan_mgnt.c:908:23
	strb.w	r0, [sp, #27]
	.loc	3 909 17                        @ rt-thread/components/drivers/wlan/wlan_mgnt.c:909:17
	movw	r0, :lower16:rt_wlan_event_dispatch
	movt	r0, :upper16:rt_wlan_event_dispatch
	str	r0, [sp, #20]
	.loc	3 910 28                        @ rt-thread/components/drivers/wlan/wlan_mgnt.c:910:28
	ldr	r0, [sp, #32]
	.loc	3 910 26 is_stmt 0              @ rt-thread/components/drivers/wlan/wlan_mgnt.c:910:26
	movw	r1, :lower16:_sta_mgnt
	movt	r1, :upper16:_sta_mgnt
	str	r0, [r1]
	.loc	3 911 5 is_stmt 1               @ rt-thread/components/drivers/wlan/wlan_mgnt.c:911:5
	b	.LBB0_47
.Ltmp54:
.LBB0_44:
	.loc	3 913 14                        @ rt-thread/components/drivers/wlan/wlan_mgnt.c:913:14
	ldrb.w	r0, [sp, #39]
.Ltmp55:
	.loc	3 913 14 is_stmt 0              @ rt-thread/components/drivers/wlan/wlan_mgnt.c:913:14
	cmp	r0, #2
	bne	.LBB0_46
	b	.LBB0_45
.LBB0_45:
	.loc	3 0 14                          @ rt-thread/components/drivers/wlan/wlan_mgnt.c:0:14
	movs	r0, #1
.Ltmp56:
	.loc	3 915 23 is_stmt 1              @ rt-thread/components/drivers/wlan/wlan_mgnt.c:915:23
	strb.w	r0, [sp, #27]
	.loc	3 916 17                        @ rt-thread/components/drivers/wlan/wlan_mgnt.c:916:17
	movw	r0, :lower16:rt_wlan_event_dispatch
	movt	r0, :upper16:rt_wlan_event_dispatch
	str	r0, [sp, #20]
	.loc	3 917 27                        @ rt-thread/components/drivers/wlan/wlan_mgnt.c:917:27
	ldr	r0, [sp, #32]
	.loc	3 917 25 is_stmt 0              @ rt-thread/components/drivers/wlan/wlan_mgnt.c:917:25
	movw	r1, :lower16:_ap_mgnt
	movt	r1, :upper16:_ap_mgnt
	str	r0, [r1]
	.loc	3 918 5 is_stmt 1               @ rt-thread/components/drivers/wlan/wlan_mgnt.c:918:5
	b	.LBB0_46
.Ltmp57:
.LBB0_46:
	.loc	3 0 5 is_stmt 0                 @ rt-thread/components/drivers/wlan/wlan_mgnt.c:0:5
	b	.LBB0_47
.LBB0_47:
	b	.LBB0_48
.LBB0_48:
.Ltmp58:
	.loc	3 921 9 is_stmt 1               @ rt-thread/components/drivers/wlan/wlan_mgnt.c:921:9
	ldrsb.w	r0, [sp, #27]
.Ltmp59:
	.loc	3 921 9 is_stmt 0               @ rt-thread/components/drivers/wlan/wlan_mgnt.c:921:9
	cmp	r0, #1
	bne	.LBB0_62
	b	.LBB0_49
.LBB0_49:
.Ltmp60:
	.loc	3 923 13 is_stmt 1              @ rt-thread/components/drivers/wlan/wlan_mgnt.c:923:13
	ldr	r0, [sp, #20]
.Ltmp61:
	.loc	3 923 13 is_stmt 0              @ rt-thread/components/drivers/wlan/wlan_mgnt.c:923:13
	cmp	r0, #0
	beq	.LBB0_56
	b	.LBB0_50
.LBB0_50:
.Ltmp62:
	.loc	3 925 17 is_stmt 1              @ rt-thread/components/drivers/wlan/wlan_mgnt.c:925:17
	ldrb.w	r0, [sp, #39]
.Ltmp63:
	.loc	3 925 17 is_stmt 0              @ rt-thread/components/drivers/wlan/wlan_mgnt.c:925:17
	cmp	r0, #1
	bne	.LBB0_52
	b	.LBB0_51
.LBB0_51:
.Ltmp64:
	.loc	3 927 52 is_stmt 1              @ rt-thread/components/drivers/wlan/wlan_mgnt.c:927:52
	ldr	r0, [sp, #32]
	.loc	3 927 101 is_stmt 0             @ rt-thread/components/drivers/wlan/wlan_mgnt.c:927:101
	ldr	r2, [sp, #20]
	movs	r1, #1
	movs	r3, #0
	.loc	3 927 17                        @ rt-thread/components/drivers/wlan/wlan_mgnt.c:927:17
	str	r3, [sp, #12]                   @ 4-byte Spill
	bl	rt_wlan_dev_register_event_handler
	ldr	r3, [sp, #12]                   @ 4-byte Reload
	.loc	3 928 52 is_stmt 1              @ rt-thread/components/drivers/wlan/wlan_mgnt.c:928:52
	ldr	r0, [sp, #32]
	.loc	3 928 106 is_stmt 0             @ rt-thread/components/drivers/wlan/wlan_mgnt.c:928:106
	ldr	r2, [sp, #20]
	movs	r1, #2
	.loc	3 928 17                        @ rt-thread/components/drivers/wlan/wlan_mgnt.c:928:17
	bl	rt_wlan_dev_register_event_handler
	ldr	r3, [sp, #12]                   @ 4-byte Reload
	.loc	3 929 52 is_stmt 1              @ rt-thread/components/drivers/wlan/wlan_mgnt.c:929:52
	ldr	r0, [sp, #32]
	.loc	3 929 104 is_stmt 0             @ rt-thread/components/drivers/wlan/wlan_mgnt.c:929:104
	ldr	r2, [sp, #20]
	movs	r1, #3
	.loc	3 929 17                        @ rt-thread/components/drivers/wlan/wlan_mgnt.c:929:17
	bl	rt_wlan_dev_register_event_handler
	ldr	r3, [sp, #12]                   @ 4-byte Reload
	.loc	3 930 52 is_stmt 1              @ rt-thread/components/drivers/wlan/wlan_mgnt.c:930:52
	ldr	r0, [sp, #32]
	.loc	3 930 105 is_stmt 0             @ rt-thread/components/drivers/wlan/wlan_mgnt.c:930:105
	ldr	r2, [sp, #20]
	movs	r1, #9
	.loc	3 930 17                        @ rt-thread/components/drivers/wlan/wlan_mgnt.c:930:17
	bl	rt_wlan_dev_register_event_handler
	ldr	r3, [sp, #12]                   @ 4-byte Reload
	.loc	3 931 52 is_stmt 1              @ rt-thread/components/drivers/wlan/wlan_mgnt.c:931:52
	ldr	r0, [sp, #32]
	.loc	3 931 103 is_stmt 0             @ rt-thread/components/drivers/wlan/wlan_mgnt.c:931:103
	ldr	r2, [sp, #20]
	movs	r1, #10
	.loc	3 931 17                        @ rt-thread/components/drivers/wlan/wlan_mgnt.c:931:17
	bl	rt_wlan_dev_register_event_handler
	.loc	3 932 13 is_stmt 1              @ rt-thread/components/drivers/wlan/wlan_mgnt.c:932:13
	b	.LBB0_55
.Ltmp65:
.LBB0_52:
	.loc	3 933 22                        @ rt-thread/components/drivers/wlan/wlan_mgnt.c:933:22
	ldrb.w	r0, [sp, #39]
.Ltmp66:
	.loc	3 933 22 is_stmt 0              @ rt-thread/components/drivers/wlan/wlan_mgnt.c:933:22
	cmp	r0, #2
	bne	.LBB0_54
	b	.LBB0_53
.LBB0_53:
.Ltmp67:
	.loc	3 935 52 is_stmt 1              @ rt-thread/components/drivers/wlan/wlan_mgnt.c:935:52
	ldr	r0, [sp, #32]
	.loc	3 935 102 is_stmt 0             @ rt-thread/components/drivers/wlan/wlan_mgnt.c:935:102
	ldr	r2, [sp, #20]
	movs	r1, #4
	movs	r3, #0
	.loc	3 935 17                        @ rt-thread/components/drivers/wlan/wlan_mgnt.c:935:17
	str	r3, [sp, #8]                    @ 4-byte Spill
	bl	rt_wlan_dev_register_event_handler
	ldr	r3, [sp, #8]                    @ 4-byte Reload
	.loc	3 936 52 is_stmt 1              @ rt-thread/components/drivers/wlan/wlan_mgnt.c:936:52
	ldr	r0, [sp, #32]
	.loc	3 936 101 is_stmt 0             @ rt-thread/components/drivers/wlan/wlan_mgnt.c:936:101
	ldr	r2, [sp, #20]
	movs	r1, #5
	.loc	3 936 17                        @ rt-thread/components/drivers/wlan/wlan_mgnt.c:936:17
	bl	rt_wlan_dev_register_event_handler
	ldr	r3, [sp, #8]                    @ 4-byte Reload
	.loc	3 937 52 is_stmt 1              @ rt-thread/components/drivers/wlan/wlan_mgnt.c:937:52
	ldr	r0, [sp, #32]
	.loc	3 937 107 is_stmt 0             @ rt-thread/components/drivers/wlan/wlan_mgnt.c:937:107
	ldr	r2, [sp, #20]
	movs	r1, #6
	.loc	3 937 17                        @ rt-thread/components/drivers/wlan/wlan_mgnt.c:937:17
	bl	rt_wlan_dev_register_event_handler
	ldr	r3, [sp, #8]                    @ 4-byte Reload
	.loc	3 938 52 is_stmt 1              @ rt-thread/components/drivers/wlan/wlan_mgnt.c:938:52
	ldr	r0, [sp, #32]
	.loc	3 938 110 is_stmt 0             @ rt-thread/components/drivers/wlan/wlan_mgnt.c:938:110
	ldr	r2, [sp, #20]
	movs	r1, #7
	.loc	3 938 17                        @ rt-thread/components/drivers/wlan/wlan_mgnt.c:938:17
	bl	rt_wlan_dev_register_event_handler
	ldr	r3, [sp, #8]                    @ 4-byte Reload
	.loc	3 939 52 is_stmt 1              @ rt-thread/components/drivers/wlan/wlan_mgnt.c:939:52
	ldr	r0, [sp, #32]
	.loc	3 939 113 is_stmt 0             @ rt-thread/components/drivers/wlan/wlan_mgnt.c:939:113
	ldr	r2, [sp, #20]
	movs	r1, #8
	.loc	3 939 17                        @ rt-thread/components/drivers/wlan/wlan_mgnt.c:939:17
	bl	rt_wlan_dev_register_event_handler
	.loc	3 940 13 is_stmt 1              @ rt-thread/components/drivers/wlan/wlan_mgnt.c:940:13
	b	.LBB0_54
.Ltmp68:
.LBB0_54:
	.loc	3 0 13 is_stmt 0                @ rt-thread/components/drivers/wlan/wlan_mgnt.c:0:13
	b	.LBB0_55
.LBB0_55:
	.loc	3 941 9 is_stmt 1               @ rt-thread/components/drivers/wlan/wlan_mgnt.c:941:9
	b	.LBB0_61
.Ltmp69:
.LBB0_56:
	.loc	3 945 21                        @ rt-thread/components/drivers/wlan/wlan_mgnt.c:945:21
	movw	r0, :lower16:rt_wlan_event_dispatch
	movt	r0, :upper16:rt_wlan_event_dispatch
	str	r0, [sp, #20]
	movs	r0, #0
.Ltmp70:
	.loc	3 946 24                        @ rt-thread/components/drivers/wlan/wlan_mgnt.c:946:24
	strb.w	r0, [sp, #19]
	.loc	3 946 18 is_stmt 0              @ rt-thread/components/drivers/wlan/wlan_mgnt.c:946:18
	b	.LBB0_57
.LBB0_57:                               @ =>This Inner Loop Header: Depth=1
.Ltmp71:
	.loc	3 946 53                        @ rt-thread/components/drivers/wlan/wlan_mgnt.c:946:53
	ldrb.w	r0, [sp, #19]
.Ltmp72:
	.loc	3 946 13                        @ rt-thread/components/drivers/wlan/wlan_mgnt.c:946:13
	cmp	r0, #10
	bgt	.LBB0_60
	b	.LBB0_58
.LBB0_58:                               @   in Loop: Header=BB0_57 Depth=1
.Ltmp73:
	.loc	3 948 54 is_stmt 1              @ rt-thread/components/drivers/wlan/wlan_mgnt.c:948:54
	ldr	r0, [sp, #32]
	.loc	3 948 78 is_stmt 0              @ rt-thread/components/drivers/wlan/wlan_mgnt.c:948:78
	ldrb.w	r1, [sp, #19]
	.loc	3 948 85                        @ rt-thread/components/drivers/wlan/wlan_mgnt.c:948:85
	ldr	r2, [sp, #20]
	.loc	3 948 17                        @ rt-thread/components/drivers/wlan/wlan_mgnt.c:948:17
	bl	rt_wlan_dev_unregister_event_handler
	.loc	3 949 13 is_stmt 1              @ rt-thread/components/drivers/wlan/wlan_mgnt.c:949:13
	b	.LBB0_59
.Ltmp74:
.LBB0_59:                               @   in Loop: Header=BB0_57 Depth=1
	.loc	3 946 87                        @ rt-thread/components/drivers/wlan/wlan_mgnt.c:946:87
	ldrb.w	r0, [sp, #19]
	adds	r0, #1
	strb.w	r0, [sp, #19]
	.loc	3 946 13 is_stmt 0              @ rt-thread/components/drivers/wlan/wlan_mgnt.c:946:13
	b	.LBB0_57
.Ltmp75:
.LBB0_60:
	.loc	3 0 13                          @ rt-thread/components/drivers/wlan/wlan_mgnt.c:0:13
	b	.LBB0_61
.LBB0_61:
	.loc	3 951 5 is_stmt 1               @ rt-thread/components/drivers/wlan/wlan_mgnt.c:951:5
	b	.LBB0_62
.Ltmp76:
.LBB0_62:
	.loc	3 952 5                         @ rt-thread/components/drivers/wlan/wlan_mgnt.c:952:5
	movw	r0, :lower16:mgnt_mutex
	movt	r0, :upper16:mgnt_mutex
	bl	rt_mutex_release
.Ltmp77:
	.loc	3 956 9                         @ rt-thread/components/drivers/wlan/wlan_mgnt.c:956:9
	ldr	r0, [sp, #28]
.Ltmp78:
	.loc	3 956 9 is_stmt 0               @ rt-thread/components/drivers/wlan/wlan_mgnt.c:956:9
	cbnz	r0, .LBB0_64
	b	.LBB0_63
.LBB0_63:
.Ltmp79:
	.loc	3 958 29 is_stmt 1              @ rt-thread/components/drivers/wlan/wlan_mgnt.c:958:29
	ldr	r0, [sp, #40]
	.loc	3 958 9 is_stmt 0               @ rt-thread/components/drivers/wlan/wlan_mgnt.c:958:9
	movw	r1, :lower16:.L.str.9
	movt	r1, :upper16:.L.str.9
	bl	rt_wlan_prot_attach
	.loc	3 959 5 is_stmt 1               @ rt-thread/components/drivers/wlan/wlan_mgnt.c:959:5
	b	.LBB0_64
.Ltmp80:
.LBB0_64:
	.loc	3 961 12                        @ rt-thread/components/drivers/wlan/wlan_mgnt.c:961:12
	ldr	r0, [sp, #28]
	.loc	3 961 5 is_stmt 0               @ rt-thread/components/drivers/wlan/wlan_mgnt.c:961:5
	str	r0, [sp, #44]
	b	.LBB0_65
.LBB0_65:
	.loc	3 962 1 is_stmt 1               @ rt-thread/components/drivers/wlan/wlan_mgnt.c:962:1
	ldr	r0, [sp, #44]
	add	sp, #48
	pop	{r7, pc}
.Ltmp81:
.Lfunc_end0:
	.size	rt_wlan_set_mode, .Lfunc_end0-rt_wlan_set_mode
	.cfi_endproc
	.cantunwind
	.fnend
                                        @ -- End function
	.section	.text.rt_wlan_event_dispatch,"ax",%progbits
	.p2align	3                               @ -- Begin function rt_wlan_event_dispatch
	.type	rt_wlan_event_dispatch,%function
	.code	16                              @ @rt_wlan_event_dispatch
	.thumb_func
rt_wlan_event_dispatch:
.Lfunc_begin1:
	.loc	3 571 0                         @ rt-thread/components/drivers/wlan/wlan_mgnt.c:571:0
	.fnstart
	.cfi_startproc
@ %bb.0:
	.save	{r7, lr}
	push	{r7, lr}
	.cfi_def_cfa_offset 8
	.cfi_offset lr, -4
	.cfi_offset r7, -8
	.pad	#48
	sub	sp, #48
	.cfi_def_cfa_offset 56
                                        @ kill: def $r12 killed $r1
	str	r0, [sp, #44]
	strb.w	r1, [sp, #43]
	str	r2, [sp, #36]
	str	r3, [sp, #32]
	movs	r0, #0
.Ltmp82:
	.loc	3 572 14 prologue_end           @ rt-thread/components/drivers/wlan/wlan_mgnt.c:572:14
	str	r0, [sp, #28]
	movs	r1, #10
	.loc	3 573 21                        @ rt-thread/components/drivers/wlan/wlan_mgnt.c:573:21
	strb.w	r1, [sp, #27]
	.loc	3 575 25                        @ rt-thread/components/drivers/wlan/wlan_mgnt.c:575:25
	str	r0, [sp, #16]
	str	r0, [sp, #12]
.Ltmp83:
	.loc	3 577 9                         @ rt-thread/components/drivers/wlan/wlan_mgnt.c:577:9
	ldr	r0, [sp, #36]
.Ltmp84:
	.loc	3 577 9 is_stmt 0               @ rt-thread/components/drivers/wlan/wlan_mgnt.c:577:9
	cbz	r0, .LBB1_2
	b	.LBB1_1
.LBB1_1:
.Ltmp85:
	.loc	3 579 22 is_stmt 1              @ rt-thread/components/drivers/wlan/wlan_mgnt.c:579:22
	ldr	r1, [sp, #36]
	.loc	3 579 21 is_stmt 0              @ rt-thread/components/drivers/wlan/wlan_mgnt.c:579:21
	ldr	r0, [r1]
	ldr	r1, [r1, #4]
	str	r1, [sp, #16]
	str	r0, [sp, #12]
	.loc	3 580 5 is_stmt 1               @ rt-thread/components/drivers/wlan/wlan_mgnt.c:580:5
	b	.LBB1_2
.Ltmp86:
.LBB1_2:
	.loc	3 582 13                        @ rt-thread/components/drivers/wlan/wlan_mgnt.c:582:13
	ldrb.w	r0, [sp, #43]
	.loc	3 582 5 is_stmt 0               @ rt-thread/components/drivers/wlan/wlan_mgnt.c:582:5
	subs	r0, #1
	mov	r1, r0
	str	r1, [sp, #8]                    @ 4-byte Spill
	cmp	r0, #9
	bhi.w	.LBB1_39
@ %bb.3:
	.loc	3 0 5                           @ rt-thread/components/drivers/wlan/wlan_mgnt.c:0:5
	ldr	r1, [sp, #8]                    @ 4-byte Reload
.LCPI1_0:
	tbh	[pc, r1, lsl #1]
@ %bb.4:
.LJTI1_0:
	.short	(.LBB1_5-(.LCPI1_0+4))/2
	.short	(.LBB1_8-(.LCPI1_0+4))/2
	.short	(.LBB1_11-(.LCPI1_0+4))/2
	.short	(.LBB1_14-(.LCPI1_0+4))/2
	.short	(.LBB1_15-(.LCPI1_0+4))/2
	.short	(.LBB1_20-(.LCPI1_0+4))/2
	.short	(.LBB1_27-(.LCPI1_0+4))/2
	.short	(.LBB1_34-(.LCPI1_0+4))/2
	.short	(.LBB1_35-(.LCPI1_0+4))/2
	.short	(.LBB1_38-(.LCPI1_0+4))/2
	.p2align	1
.LBB1_5:
.Ltmp87:
	.loc	3 587 25 is_stmt 1              @ rt-thread/components/drivers/wlan/wlan_mgnt.c:587:25
	movw	r1, :lower16:_sta_mgnt
	movt	r1, :upper16:_sta_mgnt
	str	r1, [sp, #4]                    @ 4-byte Spill
	ldrb.w	r0, [r1, #98]
	orr	r0, r0, #1
	strb.w	r0, [r1, #98]
	.loc	3 588 25                        @ rt-thread/components/drivers/wlan/wlan_mgnt.c:588:25
	ldrb.w	r0, [r1, #98]
	and	r0, r0, #253
	strb.w	r0, [r1, #98]
	movs	r0, #3
	.loc	3 589 20                        @ rt-thread/components/drivers/wlan/wlan_mgnt.c:589:20
	strb.w	r0, [sp, #27]
	.loc	3 590 9                         @ rt-thread/components/drivers/wlan/wlan_mgnt.c:590:9
	movw	r0, :lower16:reconnect_time
	movt	r0, :upper16:reconnect_time
	bl	rt_timer_stop
                                        @ kill: def $r1 killed $r0
	.loc	3 591 24                        @ rt-thread/components/drivers/wlan/wlan_mgnt.c:591:24
	ldr	r0, [sp, #4]                    @ 4-byte Reload
	adds	r0, #4
	str	r0, [sp, #12]
	movs	r0, #60
	.loc	3 592 23                        @ rt-thread/components/drivers/wlan/wlan_mgnt.c:592:23
	str	r0, [sp, #16]
	.loc	3 593 9                         @ rt-thread/components/drivers/wlan/wlan_mgnt.c:593:9
	b	.LBB1_6
.LBB1_6:
.Ltmp88:
	.loc	3 593 9 is_stmt 0               @ rt-thread/components/drivers/wlan/wlan_mgnt.c:593:9
	movw	r0, :lower16:.L.str.4
	movt	r0, :upper16:.L.str.4
	bl	rt_kprintf
	movw	r0, :lower16:_sta_mgnt
	movt	r0, :upper16:_sta_mgnt
	add.w	r1, r0, #21
	movw	r0, :lower16:.L.str.50
	movt	r0, :upper16:.L.str.50
	bl	rt_kprintf
	movw	r0, :lower16:.L.str.2
	movt	r0, :upper16:.L.str.2
	bl	rt_kprintf
	b	.LBB1_7
.Ltmp89:
.LBB1_7:
	.loc	3 594 9 is_stmt 1               @ rt-thread/components/drivers/wlan/wlan_mgnt.c:594:9
	b	.LBB1_40
.Ltmp90:
.LBB1_8:
	.loc	3 599 25                        @ rt-thread/components/drivers/wlan/wlan_mgnt.c:599:25
	movw	r0, :lower16:_sta_mgnt
	movt	r0, :upper16:_sta_mgnt
	ldrb.w	r1, [r0, #98]
	and	r1, r1, #254
	strb.w	r1, [r0, #98]
	.loc	3 600 25                        @ rt-thread/components/drivers/wlan/wlan_mgnt.c:600:25
	ldrb.w	r1, [r0, #98]
	and	r1, r1, #253
	strb.w	r1, [r0, #98]
	.loc	3 601 25                        @ rt-thread/components/drivers/wlan/wlan_mgnt.c:601:25
	ldrb.w	r1, [r0, #98]
	and	r1, r1, #251
	strb.w	r1, [r0, #98]
	movs	r1, #4
	.loc	3 602 20                        @ rt-thread/components/drivers/wlan/wlan_mgnt.c:602:20
	strb.w	r1, [sp, #27]
	.loc	3 603 24                        @ rt-thread/components/drivers/wlan/wlan_mgnt.c:603:24
	adds	r0, #4
	str	r0, [sp, #12]
	movs	r0, #60
	.loc	3 604 23                        @ rt-thread/components/drivers/wlan/wlan_mgnt.c:604:23
	str	r0, [sp, #16]
.Ltmp91:
	.loc	3 605 13                        @ rt-thread/components/drivers/wlan/wlan_mgnt.c:605:13
	bl	rt_wlan_get_autoreconnect_mode
.Ltmp92:
	.loc	3 605 13 is_stmt 0              @ rt-thread/components/drivers/wlan/wlan_mgnt.c:605:13
	cbz	r0, .LBB1_10
	b	.LBB1_9
.LBB1_9:
.Ltmp93:
	.loc	3 607 13 is_stmt 1              @ rt-thread/components/drivers/wlan/wlan_mgnt.c:607:13
	movw	r0, :lower16:reconnect_time
	movt	r0, :upper16:reconnect_time
	bl	rt_timer_start
	.loc	3 608 9                         @ rt-thread/components/drivers/wlan/wlan_mgnt.c:608:9
	b	.LBB1_10
.Ltmp94:
.LBB1_10:
	.loc	3 609 9                         @ rt-thread/components/drivers/wlan/wlan_mgnt.c:609:9
	b	.LBB1_40
.Ltmp95:
.LBB1_11:
	.loc	3 614 25                        @ rt-thread/components/drivers/wlan/wlan_mgnt.c:614:25
	movw	r0, :lower16:_sta_mgnt
	movt	r0, :upper16:_sta_mgnt
	ldrb.w	r1, [r0, #98]
	and	r1, r1, #254
	strb.w	r1, [r0, #98]
	.loc	3 615 25                        @ rt-thread/components/drivers/wlan/wlan_mgnt.c:615:25
	ldrb.w	r1, [r0, #98]
	and	r1, r1, #251
	strb.w	r1, [r0, #98]
	movs	r1, #5
	.loc	3 616 20                        @ rt-thread/components/drivers/wlan/wlan_mgnt.c:616:20
	strb.w	r1, [sp, #27]
	.loc	3 617 24                        @ rt-thread/components/drivers/wlan/wlan_mgnt.c:617:24
	adds	r0, #4
	str	r0, [sp, #12]
	movs	r0, #60
	.loc	3 618 23                        @ rt-thread/components/drivers/wlan/wlan_mgnt.c:618:23
	str	r0, [sp, #16]
.Ltmp96:
	.loc	3 619 13                        @ rt-thread/components/drivers/wlan/wlan_mgnt.c:619:13
	bl	rt_wlan_get_autoreconnect_mode
.Ltmp97:
	.loc	3 619 13 is_stmt 0              @ rt-thread/components/drivers/wlan/wlan_mgnt.c:619:13
	cbz	r0, .LBB1_13
	b	.LBB1_12
.LBB1_12:
.Ltmp98:
	.loc	3 621 13 is_stmt 1              @ rt-thread/components/drivers/wlan/wlan_mgnt.c:621:13
	movw	r0, :lower16:reconnect_time
	movt	r0, :upper16:reconnect_time
	bl	rt_timer_start
	.loc	3 622 9                         @ rt-thread/components/drivers/wlan/wlan_mgnt.c:622:9
	b	.LBB1_13
.Ltmp99:
.LBB1_13:
	.loc	3 623 9                         @ rt-thread/components/drivers/wlan/wlan_mgnt.c:623:9
	b	.LBB1_40
.Ltmp100:
.LBB1_14:
	.loc	3 628 24                        @ rt-thread/components/drivers/wlan/wlan_mgnt.c:628:24
	movw	r0, :lower16:_ap_mgnt
	movt	r0, :upper16:_ap_mgnt
	ldrb.w	r1, [r0, #98]
	orr	r1, r1, #1
	strb.w	r1, [r0, #98]
	movs	r1, #6
	.loc	3 629 20                        @ rt-thread/components/drivers/wlan/wlan_mgnt.c:629:20
	strb.w	r1, [sp, #27]
	.loc	3 630 24                        @ rt-thread/components/drivers/wlan/wlan_mgnt.c:630:24
	adds	r0, #4
	str	r0, [sp, #12]
	movs	r0, #60
	.loc	3 631 23                        @ rt-thread/components/drivers/wlan/wlan_mgnt.c:631:23
	str	r0, [sp, #16]
	.loc	3 632 9                         @ rt-thread/components/drivers/wlan/wlan_mgnt.c:632:9
	b	.LBB1_40
.Ltmp101:
.LBB1_15:
	.loc	3 637 24                        @ rt-thread/components/drivers/wlan/wlan_mgnt.c:637:24
	movw	r1, :lower16:_ap_mgnt
	movt	r1, :upper16:_ap_mgnt
	ldrb.w	r0, [r1, #98]
	and	r0, r0, #254
	strb.w	r0, [r1, #98]
	movs	r0, #7
	.loc	3 638 20                        @ rt-thread/components/drivers/wlan/wlan_mgnt.c:638:20
	strb.w	r0, [sp, #27]
	mov.w	r0, #-1
	.loc	3 639 15                        @ rt-thread/components/drivers/wlan/wlan_mgnt.c:639:15
	bl	rt_wlan_sta_info_del_all
	.loc	3 639 13 is_stmt 0              @ rt-thread/components/drivers/wlan/wlan_mgnt.c:639:13
	str	r0, [sp, #28]
.Ltmp102:
	.loc	3 640 13 is_stmt 1              @ rt-thread/components/drivers/wlan/wlan_mgnt.c:640:13
	ldr	r0, [sp, #28]
.Ltmp103:
	.loc	3 640 13 is_stmt 0              @ rt-thread/components/drivers/wlan/wlan_mgnt.c:640:13
	cbz	r0, .LBB1_19
	b	.LBB1_16
.LBB1_16:
.Ltmp104:
	.loc	3 642 13 is_stmt 1              @ rt-thread/components/drivers/wlan/wlan_mgnt.c:642:13
	b	.LBB1_17
.LBB1_17:
.Ltmp105:
	.loc	3 642 13 is_stmt 0              @ rt-thread/components/drivers/wlan/wlan_mgnt.c:642:13
	movw	r0, :lower16:.L.str.15
	movt	r0, :upper16:.L.str.15
	bl	rt_kprintf
	movw	r0, :lower16:.L.str.51
	movt	r0, :upper16:.L.str.51
	movw	r1, :lower16:.L__FUNCTION__.rt_wlan_event_dispatch
	movt	r1, :upper16:.L__FUNCTION__.rt_wlan_event_dispatch
	movw	r2, #642
	bl	rt_kprintf
	movw	r0, :lower16:.L.str.2
	movt	r0, :upper16:.L.str.2
	bl	rt_kprintf
	b	.LBB1_18
.Ltmp106:
.LBB1_18:
	.loc	3 643 9 is_stmt 1               @ rt-thread/components/drivers/wlan/wlan_mgnt.c:643:9
	b	.LBB1_19
.Ltmp107:
.LBB1_19:
	.loc	3 644 24                        @ rt-thread/components/drivers/wlan/wlan_mgnt.c:644:24
	movw	r0, :lower16:_ap_mgnt
	movt	r0, :upper16:_ap_mgnt
	adds	r0, #4
	str	r0, [sp, #12]
	movs	r0, #60
	.loc	3 645 23                        @ rt-thread/components/drivers/wlan/wlan_mgnt.c:645:23
	str	r0, [sp, #16]
	.loc	3 646 9                         @ rt-thread/components/drivers/wlan/wlan_mgnt.c:646:9
	b	.LBB1_40
.Ltmp108:
.LBB1_20:
	.loc	3 0 9 is_stmt 0                 @ rt-thread/components/drivers/wlan/wlan_mgnt.c:0:9
	movs	r0, #8
.Ltmp109:
	.loc	3 651 20 is_stmt 1              @ rt-thread/components/drivers/wlan/wlan_mgnt.c:651:20
	strb.w	r0, [sp, #27]
.Ltmp110:
	.loc	3 652 23                        @ rt-thread/components/drivers/wlan/wlan_mgnt.c:652:23
	ldr	r0, [sp, #16]
.Ltmp111:
	.loc	3 652 13 is_stmt 0              @ rt-thread/components/drivers/wlan/wlan_mgnt.c:652:13
	cmp	r0, #60
	beq	.LBB1_22
	b	.LBB1_21
.LBB1_21:
.Ltmp112:
	.loc	3 653 13 is_stmt 1              @ rt-thread/components/drivers/wlan/wlan_mgnt.c:653:13
	b	.LBB1_40
.Ltmp113:
.LBB1_22:
	.loc	3 654 46                        @ rt-thread/components/drivers/wlan/wlan_mgnt.c:654:46
	ldr	r0, [sp, #12]
	mov.w	r1, #-1
	.loc	3 654 15 is_stmt 0              @ rt-thread/components/drivers/wlan/wlan_mgnt.c:654:15
	bl	rt_wlan_sta_info_add
	.loc	3 654 13                        @ rt-thread/components/drivers/wlan/wlan_mgnt.c:654:13
	str	r0, [sp, #28]
.Ltmp114:
	.loc	3 655 13 is_stmt 1              @ rt-thread/components/drivers/wlan/wlan_mgnt.c:655:13
	ldr	r0, [sp, #28]
.Ltmp115:
	.loc	3 655 13 is_stmt 0              @ rt-thread/components/drivers/wlan/wlan_mgnt.c:655:13
	cbz	r0, .LBB1_26
	b	.LBB1_23
.LBB1_23:
.Ltmp116:
	.loc	3 657 13 is_stmt 1              @ rt-thread/components/drivers/wlan/wlan_mgnt.c:657:13
	b	.LBB1_24
.LBB1_24:
.Ltmp117:
	.loc	3 657 13 is_stmt 0              @ rt-thread/components/drivers/wlan/wlan_mgnt.c:657:13
	movw	r0, :lower16:.L.str.15
	movt	r0, :upper16:.L.str.15
	bl	rt_kprintf
	movw	r0, :lower16:.L.str.52
	movt	r0, :upper16:.L.str.52
	movw	r1, :lower16:.L__FUNCTION__.rt_wlan_event_dispatch
	movt	r1, :upper16:.L__FUNCTION__.rt_wlan_event_dispatch
	movw	r2, #657
	bl	rt_kprintf
	movw	r0, :lower16:.L.str.2
	movt	r0, :upper16:.L.str.2
	bl	rt_kprintf
	b	.LBB1_25
.Ltmp118:
.LBB1_25:
	.loc	3 658 9 is_stmt 1               @ rt-thread/components/drivers/wlan/wlan_mgnt.c:658:9
	b	.LBB1_26
.Ltmp119:
.LBB1_26:
	.loc	3 659 9                         @ rt-thread/components/drivers/wlan/wlan_mgnt.c:659:9
	b	.LBB1_40
.Ltmp120:
.LBB1_27:
	.loc	3 0 9 is_stmt 0                 @ rt-thread/components/drivers/wlan/wlan_mgnt.c:0:9
	movs	r0, #9
.Ltmp121:
	.loc	3 664 20 is_stmt 1              @ rt-thread/components/drivers/wlan/wlan_mgnt.c:664:20
	strb.w	r0, [sp, #27]
.Ltmp122:
	.loc	3 665 23                        @ rt-thread/components/drivers/wlan/wlan_mgnt.c:665:23
	ldr	r0, [sp, #16]
.Ltmp123:
	.loc	3 665 13 is_stmt 0              @ rt-thread/components/drivers/wlan/wlan_mgnt.c:665:13
	cmp	r0, #60
	beq	.LBB1_29
	b	.LBB1_28
.LBB1_28:
.Ltmp124:
	.loc	3 666 13 is_stmt 1              @ rt-thread/components/drivers/wlan/wlan_mgnt.c:666:13
	b	.LBB1_40
.Ltmp125:
.LBB1_29:
	.loc	3 667 46                        @ rt-thread/components/drivers/wlan/wlan_mgnt.c:667:46
	ldr	r0, [sp, #12]
	mov.w	r1, #-1
	.loc	3 667 15 is_stmt 0              @ rt-thread/components/drivers/wlan/wlan_mgnt.c:667:15
	bl	rt_wlan_sta_info_del
	.loc	3 667 13                        @ rt-thread/components/drivers/wlan/wlan_mgnt.c:667:13
	str	r0, [sp, #28]
.Ltmp126:
	.loc	3 668 13 is_stmt 1              @ rt-thread/components/drivers/wlan/wlan_mgnt.c:668:13
	ldr	r0, [sp, #28]
.Ltmp127:
	.loc	3 668 13 is_stmt 0              @ rt-thread/components/drivers/wlan/wlan_mgnt.c:668:13
	cbz	r0, .LBB1_33
	b	.LBB1_30
.LBB1_30:
.Ltmp128:
	.loc	3 670 13 is_stmt 1              @ rt-thread/components/drivers/wlan/wlan_mgnt.c:670:13
	b	.LBB1_31
.LBB1_31:
.Ltmp129:
	.loc	3 670 13 is_stmt 0              @ rt-thread/components/drivers/wlan/wlan_mgnt.c:670:13
	movw	r0, :lower16:.L.str.15
	movt	r0, :upper16:.L.str.15
	bl	rt_kprintf
	movw	r0, :lower16:.L.str.53
	movt	r0, :upper16:.L.str.53
	movw	r1, :lower16:.L__FUNCTION__.rt_wlan_event_dispatch
	movt	r1, :upper16:.L__FUNCTION__.rt_wlan_event_dispatch
	movw	r2, #670
	bl	rt_kprintf
	movw	r0, :lower16:.L.str.2
	movt	r0, :upper16:.L.str.2
	bl	rt_kprintf
	b	.LBB1_32
.Ltmp130:
.LBB1_32:
	.loc	3 671 9 is_stmt 1               @ rt-thread/components/drivers/wlan/wlan_mgnt.c:671:9
	b	.LBB1_33
.Ltmp131:
.LBB1_33:
	.loc	3 672 9                         @ rt-thread/components/drivers/wlan/wlan_mgnt.c:672:9
	b	.LBB1_40
.Ltmp132:
.LBB1_34:
	.loc	3 677 9                         @ rt-thread/components/drivers/wlan/wlan_mgnt.c:677:9
	b	.LBB1_40
.Ltmp133:
.LBB1_35:
	.loc	3 0 9 is_stmt 0                 @ rt-thread/components/drivers/wlan/wlan_mgnt.c:0:9
	movs	r0, #2
.Ltmp134:
	.loc	3 682 20 is_stmt 1              @ rt-thread/components/drivers/wlan/wlan_mgnt.c:682:20
	strb.w	r0, [sp, #27]
.Ltmp135:
	.loc	3 683 23                        @ rt-thread/components/drivers/wlan/wlan_mgnt.c:683:23
	ldr	r0, [sp, #16]
.Ltmp136:
	.loc	3 683 13 is_stmt 0              @ rt-thread/components/drivers/wlan/wlan_mgnt.c:683:13
	cmp	r0, #60
	beq	.LBB1_37
	b	.LBB1_36
.LBB1_36:
.Ltmp137:
	.loc	3 684 13 is_stmt 1              @ rt-thread/components/drivers/wlan/wlan_mgnt.c:684:13
	b	.LBB1_40
.Ltmp138:
.LBB1_37:
	.loc	3 685 45                        @ rt-thread/components/drivers/wlan/wlan_mgnt.c:685:45
	ldr	r0, [sp, #12]
	movs	r1, #0
	.loc	3 685 9 is_stmt 0               @ rt-thread/components/drivers/wlan/wlan_mgnt.c:685:9
	bl	rt_wlan_scan_result_cache
	.loc	3 686 9 is_stmt 1               @ rt-thread/components/drivers/wlan/wlan_mgnt.c:686:9
	b	.LBB1_40
.Ltmp139:
.LBB1_38:
	.loc	3 691 24                        @ rt-thread/components/drivers/wlan/wlan_mgnt.c:691:24
	movw	r0, :lower16:scan_result
	movt	r0, :upper16:scan_result
	str	r0, [sp, #12]
	movs	r0, #8
	.loc	3 692 23                        @ rt-thread/components/drivers/wlan/wlan_mgnt.c:692:23
	str	r0, [sp, #16]
	movs	r0, #1
	.loc	3 693 20                        @ rt-thread/components/drivers/wlan/wlan_mgnt.c:693:20
	strb.w	r0, [sp, #27]
	.loc	3 694 9                         @ rt-thread/components/drivers/wlan/wlan_mgnt.c:694:9
	b	.LBB1_40
.Ltmp140:
.LBB1_39:
	.loc	3 699 9                         @ rt-thread/components/drivers/wlan/wlan_mgnt.c:699:9
	b	.LBB1_47
.Ltmp141:
.LBB1_40:
	.loc	3 704 5                         @ rt-thread/components/drivers/wlan/wlan_mgnt.c:704:5
	movw	r0, :lower16:complete_mutex
	movt	r0, :upper16:complete_mutex
	mov.w	r1, #-1
	bl	rt_mutex_take
	movs	r0, #0
.Ltmp142:
	.loc	3 705 12                        @ rt-thread/components/drivers/wlan/wlan_mgnt.c:705:12
	str	r0, [sp, #20]
	.loc	3 705 10 is_stmt 0              @ rt-thread/components/drivers/wlan/wlan_mgnt.c:705:10
	b	.LBB1_41
.LBB1_41:                               @ =>This Inner Loop Header: Depth=1
.Ltmp143:
	.loc	3 705 17                        @ rt-thread/components/drivers/wlan/wlan_mgnt.c:705:17
	ldr	r0, [sp, #20]
.Ltmp144:
	.loc	3 705 5                         @ rt-thread/components/drivers/wlan/wlan_mgnt.c:705:5
	cmp	r0, #4
	bhi	.LBB1_46
	b	.LBB1_42
.LBB1_42:                               @   in Loop: Header=BB1_41 Depth=1
.Ltmp145:
	.loc	3 707 27 is_stmt 1              @ rt-thread/components/drivers/wlan/wlan_mgnt.c:707:27
	ldr	r1, [sp, #20]
	.loc	3 707 14 is_stmt 0              @ rt-thread/components/drivers/wlan/wlan_mgnt.c:707:14
	movw	r0, :lower16:complete_tab
	movt	r0, :upper16:complete_tab
	ldr.w	r0, [r0, r1, lsl #2]
.Ltmp146:
	.loc	3 707 13                        @ rt-thread/components/drivers/wlan/wlan_mgnt.c:707:13
	cbz	r0, .LBB1_44
	b	.LBB1_43
.LBB1_43:                               @   in Loop: Header=BB1_41 Depth=1
.Ltmp147:
	.loc	3 709 51 is_stmt 1              @ rt-thread/components/drivers/wlan/wlan_mgnt.c:709:51
	ldrb.w	r0, [sp, #43]
	movs	r1, #1
	.loc	3 709 48 is_stmt 0              @ rt-thread/components/drivers/wlan/wlan_mgnt.c:709:48
	lsl.w	r12, r1, r0
	.loc	3 709 26                        @ rt-thread/components/drivers/wlan/wlan_mgnt.c:709:26
	ldr	r2, [sp, #20]
	.loc	3 709 13                        @ rt-thread/components/drivers/wlan/wlan_mgnt.c:709:13
	movw	r0, :lower16:complete_tab
	movt	r0, :upper16:complete_tab
	ldr.w	r3, [r0, r2, lsl #2]
	.loc	3 709 41                        @ rt-thread/components/drivers/wlan/wlan_mgnt.c:709:41
	ldr	r2, [r3, #32]
	orr.w	r2, r2, r12
	str	r2, [r3, #32]
	.loc	3 710 41 is_stmt 1              @ rt-thread/components/drivers/wlan/wlan_mgnt.c:710:41
	ldr	r2, [sp, #20]
	.loc	3 710 28 is_stmt 0              @ rt-thread/components/drivers/wlan/wlan_mgnt.c:710:28
	ldr.w	r0, [r0, r2, lsl #2]
	.loc	3 710 62                        @ rt-thread/components/drivers/wlan/wlan_mgnt.c:710:62
	ldrb.w	r2, [sp, #43]
	.loc	3 710 59                        @ rt-thread/components/drivers/wlan/wlan_mgnt.c:710:59
	lsls	r1, r2
	.loc	3 710 13                        @ rt-thread/components/drivers/wlan/wlan_mgnt.c:710:13
	bl	rt_event_send
	.loc	3 712 9 is_stmt 1               @ rt-thread/components/drivers/wlan/wlan_mgnt.c:712:9
	b	.LBB1_44
.Ltmp148:
.LBB1_44:                               @   in Loop: Header=BB1_41 Depth=1
	.loc	3 713 5                         @ rt-thread/components/drivers/wlan/wlan_mgnt.c:713:5
	b	.LBB1_45
.Ltmp149:
.LBB1_45:                               @   in Loop: Header=BB1_41 Depth=1
	.loc	3 705 70                        @ rt-thread/components/drivers/wlan/wlan_mgnt.c:705:70
	ldr	r0, [sp, #20]
	adds	r0, #1
	str	r0, [sp, #20]
	.loc	3 705 5 is_stmt 0               @ rt-thread/components/drivers/wlan/wlan_mgnt.c:705:5
	b	.LBB1_41
.Ltmp150:
.LBB1_46:
	.loc	3 714 5 is_stmt 1               @ rt-thread/components/drivers/wlan/wlan_mgnt.c:714:5
	movw	r0, :lower16:complete_mutex
	movt	r0, :upper16:complete_mutex
	bl	rt_mutex_release
	.loc	3 716 28                        @ rt-thread/components/drivers/wlan/wlan_mgnt.c:716:28
	ldrb.w	r0, [sp, #27]
	.loc	3 716 50 is_stmt 0              @ rt-thread/components/drivers/wlan/wlan_mgnt.c:716:50
	ldr	r1, [sp, #12]
	.loc	3 716 66                        @ rt-thread/components/drivers/wlan/wlan_mgnt.c:716:66
	ldr	r2, [sp, #16]
	.loc	3 716 5                         @ rt-thread/components/drivers/wlan/wlan_mgnt.c:716:5
	bl	rt_wlan_send_to_thread
	.loc	3 739 1 is_stmt 1               @ rt-thread/components/drivers/wlan/wlan_mgnt.c:739:1
	b	.LBB1_47
.LBB1_47:
	add	sp, #48
	pop	{r7, pc}
.Ltmp151:
.Lfunc_end1:
	.size	rt_wlan_event_dispatch, .Lfunc_end1-rt_wlan_event_dispatch
	.cfi_endproc
	.cantunwind
	.fnend
                                        @ -- End function
	.section	.text.rt_wlan_get_mode,"ax",%progbits
	.hidden	rt_wlan_get_mode                @ -- Begin function rt_wlan_get_mode
	.globl	rt_wlan_get_mode
	.p2align	3
	.type	rt_wlan_get_mode,%function
	.code	16                              @ @rt_wlan_get_mode
	.thumb_func
rt_wlan_get_mode:
.Lfunc_begin2:
	.loc	3 965 0                         @ rt-thread/components/drivers/wlan/wlan_mgnt.c:965:0
	.fnstart
	.cfi_startproc
@ %bb.0:
	.save	{r7, lr}
	push	{r7, lr}
	.cfi_def_cfa_offset 8
	.cfi_offset lr, -4
	.cfi_offset r7, -8
	.pad	#16
	sub	sp, #16
	.cfi_def_cfa_offset 24
	str	r0, [sp, #8]
	movs	r0, #0
.Ltmp152:
	.loc	3 966 17 prologue_end           @ rt-thread/components/drivers/wlan/wlan_mgnt.c:966:17
	str	r0, [sp, #4]
.Ltmp153:
	.loc	3 969 9                         @ rt-thread/components/drivers/wlan/wlan_mgnt.c:969:9
	ldr	r0, [sp, #8]
.Ltmp154:
	.loc	3 969 9 is_stmt 0               @ rt-thread/components/drivers/wlan/wlan_mgnt.c:969:9
	cbnz	r0, .LBB2_4
	b	.LBB2_1
.LBB2_1:
.Ltmp155:
	.loc	3 971 9 is_stmt 1               @ rt-thread/components/drivers/wlan/wlan_mgnt.c:971:9
	b	.LBB2_2
.LBB2_2:
.Ltmp156:
	.loc	3 971 9 is_stmt 0               @ rt-thread/components/drivers/wlan/wlan_mgnt.c:971:9
	movw	r0, :lower16:.L.str
	movt	r0, :upper16:.L.str
	bl	rt_kprintf
	movw	r0, :lower16:.L.str.10
	movt	r0, :upper16:.L.str.10
	movw	r1, :lower16:.L__FUNCTION__.rt_wlan_get_mode
	movt	r1, :upper16:.L__FUNCTION__.rt_wlan_get_mode
	movw	r2, #971
	bl	rt_kprintf
	movw	r0, :lower16:.L.str.2
	movt	r0, :upper16:.L.str.2
	bl	rt_kprintf
	b	.LBB2_3
.Ltmp157:
.LBB2_3:
	.loc	3 0 9                           @ rt-thread/components/drivers/wlan/wlan_mgnt.c:0:9
	movs	r0, #0
	.loc	3 972 9 is_stmt 1               @ rt-thread/components/drivers/wlan/wlan_mgnt.c:972:9
	strb.w	r0, [sp, #15]
	b	.LBB2_9
.Ltmp158:
.LBB2_4:
	.loc	3 976 29                        @ rt-thread/components/drivers/wlan/wlan_mgnt.c:976:29
	ldr	r0, [sp, #8]
	.loc	3 976 14 is_stmt 0              @ rt-thread/components/drivers/wlan/wlan_mgnt.c:976:14
	bl	rt_device_find
	.loc	3 976 12                        @ rt-thread/components/drivers/wlan/wlan_mgnt.c:976:12
	str	r0, [sp, #4]
.Ltmp159:
	.loc	3 977 9 is_stmt 1               @ rt-thread/components/drivers/wlan/wlan_mgnt.c:977:9
	ldr	r0, [sp, #4]
.Ltmp160:
	.loc	3 977 9 is_stmt 0               @ rt-thread/components/drivers/wlan/wlan_mgnt.c:977:9
	cbnz	r0, .LBB2_8
	b	.LBB2_5
.LBB2_5:
.Ltmp161:
	.loc	3 979 9 is_stmt 1               @ rt-thread/components/drivers/wlan/wlan_mgnt.c:979:9
	b	.LBB2_6
.LBB2_6:
.Ltmp162:
	.loc	3 979 9 is_stmt 0               @ rt-thread/components/drivers/wlan/wlan_mgnt.c:979:9
	movw	r0, :lower16:.L.str
	movt	r0, :upper16:.L.str
	bl	rt_kprintf
	ldr	r3, [sp, #8]
	movw	r0, :lower16:.L.str.11
	movt	r0, :upper16:.L.str.11
	movw	r1, :lower16:.L__FUNCTION__.rt_wlan_get_mode
	movt	r1, :upper16:.L__FUNCTION__.rt_wlan_get_mode
	movw	r2, #979
	bl	rt_kprintf
	movw	r0, :lower16:.L.str.2
	movt	r0, :upper16:.L.str.2
	bl	rt_kprintf
	b	.LBB2_7
.Ltmp163:
.LBB2_7:
	.loc	3 0 9                           @ rt-thread/components/drivers/wlan/wlan_mgnt.c:0:9
	movs	r0, #0
	.loc	3 980 9 is_stmt 1               @ rt-thread/components/drivers/wlan/wlan_mgnt.c:980:9
	strb.w	r0, [sp, #15]
	b	.LBB2_9
.Ltmp164:
.LBB2_8:
	.loc	3 984 12                        @ rt-thread/components/drivers/wlan/wlan_mgnt.c:984:12
	ldr	r0, [sp, #4]
	.loc	3 984 36 is_stmt 0              @ rt-thread/components/drivers/wlan/wlan_mgnt.c:984:36
	ldrb.w	r0, [r0, #80]
	.loc	3 984 10                        @ rt-thread/components/drivers/wlan/wlan_mgnt.c:984:10
	strb.w	r0, [sp, #3]
	.loc	3 990 12 is_stmt 1              @ rt-thread/components/drivers/wlan/wlan_mgnt.c:990:12
	ldrb.w	r0, [sp, #3]
	.loc	3 990 5 is_stmt 0               @ rt-thread/components/drivers/wlan/wlan_mgnt.c:990:5
	strb.w	r0, [sp, #15]
	b	.LBB2_9
.LBB2_9:
	.loc	3 991 1 is_stmt 1               @ rt-thread/components/drivers/wlan/wlan_mgnt.c:991:1
	ldrb.w	r0, [sp, #15]
	add	sp, #16
	pop	{r7, pc}
.Ltmp165:
.Lfunc_end2:
	.size	rt_wlan_get_mode, .Lfunc_end2-rt_wlan_get_mode
	.cfi_endproc
	.cantunwind
	.fnend
                                        @ -- End function
	.section	.text.rt_wlan_find_best_by_cache,"ax",%progbits
	.hidden	rt_wlan_find_best_by_cache      @ -- Begin function rt_wlan_find_best_by_cache
	.globl	rt_wlan_find_best_by_cache
	.p2align	3
	.type	rt_wlan_find_best_by_cache,%function
	.code	16                              @ @rt_wlan_find_best_by_cache
	.thumb_func
rt_wlan_find_best_by_cache:
.Lfunc_begin3:
	.loc	3 994 0                         @ rt-thread/components/drivers/wlan/wlan_mgnt.c:994:0
	.fnstart
	.cfi_startproc
@ %bb.0:
	.save	{r4, r5, r7, lr}
	push	{r4, r5, r7, lr}
	.cfi_def_cfa_offset 16
	.cfi_offset lr, -4
	.cfi_offset r7, -8
	.cfi_offset r5, -12
	.cfi_offset r4, -16
	.pad	#40
	sub	sp, #40
	.cfi_def_cfa_offset 56
	str	r0, [sp, #32]
	str	r1, [sp, #28]
.Ltmp166:
	.loc	3 999 26 prologue_end           @ rt-thread/components/drivers/wlan/wlan_mgnt.c:999:26
	ldr	r0, [sp, #32]
	.loc	3 999 16 is_stmt 0              @ rt-thread/components/drivers/wlan/wlan_mgnt.c:999:16
	bl	rt_strlen
	.loc	3 999 14                        @ rt-thread/components/drivers/wlan/wlan_mgnt.c:999:14
	str	r0, [sp, #20]
	.loc	3 1000 12 is_stmt 1             @ rt-thread/components/drivers/wlan/wlan_mgnt.c:1000:12
	movw	r0, :lower16:scan_result
	movt	r0, :upper16:scan_result
	str	r0, [sp, #12]
	movs	r0, #0
	.loc	3 1001 15                       @ rt-thread/components/drivers/wlan/wlan_mgnt.c:1001:15
	str	r0, [sp, #8]                    @ 4-byte Spill
	str	r0, [sp, #16]
	.loc	3 1003 5                        @ rt-thread/components/drivers/wlan/wlan_mgnt.c:1003:5
	movw	r0, :lower16:scan_result_mutex
	movt	r0, :upper16:scan_result_mutex
	mov.w	r1, #-1
	bl	rt_mutex_take
                                        @ kill: def $r1 killed $r0
.Ltmp167:
	.loc	3 1004 12                       @ rt-thread/components/drivers/wlan/wlan_mgnt.c:1004:12
	ldr	r0, [sp, #8]                    @ 4-byte Reload
	str	r0, [sp, #24]
	.loc	3 1004 10 is_stmt 0             @ rt-thread/components/drivers/wlan/wlan_mgnt.c:1004:10
	b	.LBB3_1
.LBB3_1:                                @ =>This Inner Loop Header: Depth=1
.Ltmp168:
	.loc	3 1004 17                       @ rt-thread/components/drivers/wlan/wlan_mgnt.c:1004:17
	ldr	r0, [sp, #24]
	.loc	3 1004 21                       @ rt-thread/components/drivers/wlan/wlan_mgnt.c:1004:21
	ldr	r1, [sp, #12]
	.loc	3 1004 29                       @ rt-thread/components/drivers/wlan/wlan_mgnt.c:1004:29
	ldr	r1, [r1]
.Ltmp169:
	.loc	3 1004 5                        @ rt-thread/components/drivers/wlan/wlan_mgnt.c:1004:5
	cmp	r0, r1
	bge.w	.LBB3_19
	b	.LBB3_2
.LBB3_2:                                @   in Loop: Header=BB3_1 Depth=1
.Ltmp170:
	.loc	3 1007 14 is_stmt 1             @ rt-thread/components/drivers/wlan/wlan_mgnt.c:1007:14
	ldr	r0, [sp, #12]
	.loc	3 1007 22 is_stmt 0             @ rt-thread/components/drivers/wlan/wlan_mgnt.c:1007:22
	ldr	r0, [r0, #4]
	.loc	3 1007 27                       @ rt-thread/components/drivers/wlan/wlan_mgnt.c:1007:27
	ldr	r1, [sp, #24]
	.loc	3 1007 14                       @ rt-thread/components/drivers/wlan/wlan_mgnt.c:1007:14
	rsb	r1, r1, r1, lsl #4
	add.w	r0, r0, r1, lsl #2
	.loc	3 1007 35                       @ rt-thread/components/drivers/wlan/wlan_mgnt.c:1007:35
	ldrb	r0, [r0, #16]
	.loc	3 1007 42                       @ rt-thread/components/drivers/wlan/wlan_mgnt.c:1007:42
	ldr	r1, [sp, #20]
	.loc	3 1007 52                       @ rt-thread/components/drivers/wlan/wlan_mgnt.c:1007:52
	cmp	r0, r1
	bne	.LBB3_17
	b	.LBB3_3
.LBB3_3:                                @   in Loop: Header=BB3_1 Depth=1
	.loc	3 1008 37 is_stmt 1             @ rt-thread/components/drivers/wlan/wlan_mgnt.c:1008:37
	ldr	r0, [sp, #12]
	.loc	3 1008 45 is_stmt 0             @ rt-thread/components/drivers/wlan/wlan_mgnt.c:1008:45
	ldr	r0, [r0, #4]
	.loc	3 1008 50                       @ rt-thread/components/drivers/wlan/wlan_mgnt.c:1008:50
	ldr	r1, [sp, #24]
	.loc	3 1008 37                       @ rt-thread/components/drivers/wlan/wlan_mgnt.c:1008:37
	rsb	r1, r1, r1, lsl #4
	add.w	r0, r0, r1, lsl #2
	.loc	3 1008 58                       @ rt-thread/components/drivers/wlan/wlan_mgnt.c:1008:58
	adds	r0, #17
	.loc	3 1008 66                       @ rt-thread/components/drivers/wlan/wlan_mgnt.c:1008:66
	ldr	r1, [sp, #32]
	.loc	3 1008 72                       @ rt-thread/components/drivers/wlan/wlan_mgnt.c:1008:72
	ldr	r2, [sp, #20]
	.loc	3 1008 18                       @ rt-thread/components/drivers/wlan/wlan_mgnt.c:1008:18
	bl	rt_memcmp
.Ltmp171:
	.loc	3 1007 13 is_stmt 1             @ rt-thread/components/drivers/wlan/wlan_mgnt.c:1007:13
	cmp	r0, #0
	bne	.LBB3_17
	b	.LBB3_4
.LBB3_4:                                @   in Loop: Header=BB3_1 Depth=1
.Ltmp172:
	.loc	3 1010 17                       @ rt-thread/components/drivers/wlan/wlan_mgnt.c:1010:17
	ldr	r0, [sp, #16]
.Ltmp173:
	.loc	3 1010 17 is_stmt 0             @ rt-thread/components/drivers/wlan/wlan_mgnt.c:1010:17
	cbnz	r0, .LBB3_6
	b	.LBB3_5
.LBB3_5:                                @   in Loop: Header=BB3_1 Depth=1
.Ltmp174:
	.loc	3 1012 30 is_stmt 1             @ rt-thread/components/drivers/wlan/wlan_mgnt.c:1012:30
	ldr	r0, [sp, #12]
	.loc	3 1012 38 is_stmt 0             @ rt-thread/components/drivers/wlan/wlan_mgnt.c:1012:38
	ldr	r0, [r0, #4]
	.loc	3 1012 43                       @ rt-thread/components/drivers/wlan/wlan_mgnt.c:1012:43
	ldr	r1, [sp, #24]
	.loc	3 1012 30                       @ rt-thread/components/drivers/wlan/wlan_mgnt.c:1012:30
	rsb	r1, r1, r1, lsl #4
	add.w	r0, r0, r1, lsl #2
	.loc	3 1012 27                       @ rt-thread/components/drivers/wlan/wlan_mgnt.c:1012:27
	str	r0, [sp, #16]
	.loc	3 1013 17 is_stmt 1             @ rt-thread/components/drivers/wlan/wlan_mgnt.c:1013:17
	b	.LBB3_18
.Ltmp175:
.LBB3_6:                                @   in Loop: Header=BB3_1 Depth=1
	.loc	3 1016 18                       @ rt-thread/components/drivers/wlan/wlan_mgnt.c:1016:18
	ldr	r0, [sp, #12]
	.loc	3 1016 26 is_stmt 0             @ rt-thread/components/drivers/wlan/wlan_mgnt.c:1016:26
	ldr	r0, [r0, #4]
	.loc	3 1016 31                       @ rt-thread/components/drivers/wlan/wlan_mgnt.c:1016:31
	ldr	r1, [sp, #24]
	.loc	3 1016 18                       @ rt-thread/components/drivers/wlan/wlan_mgnt.c:1016:18
	rsb	r1, r1, r1, lsl #4
	add.w	r0, r0, r1, lsl #2
	.loc	3 1016 34                       @ rt-thread/components/drivers/wlan/wlan_mgnt.c:1016:34
	ldrsh.w	r0, [r0, #14]
	.loc	3 1016 44                       @ rt-thread/components/drivers/wlan/wlan_mgnt.c:1016:44
	cmp.w	r0, #-1
	bgt	.LBB3_14
	b	.LBB3_7
.LBB3_7:                                @   in Loop: Header=BB3_1 Depth=1
	.loc	3 1016 48                       @ rt-thread/components/drivers/wlan/wlan_mgnt.c:1016:48
	ldr	r0, [sp, #16]
	.loc	3 1016 59                       @ rt-thread/components/drivers/wlan/wlan_mgnt.c:1016:59
	ldrsh.w	r0, [r0, #14]
.Ltmp176:
	.loc	3 1016 17                       @ rt-thread/components/drivers/wlan/wlan_mgnt.c:1016:17
	cmp.w	r0, #-1
	bgt	.LBB3_14
	b	.LBB3_8
.LBB3_8:                                @   in Loop: Header=BB3_1 Depth=1
.Ltmp177:
	.loc	3 1019 21 is_stmt 1             @ rt-thread/components/drivers/wlan/wlan_mgnt.c:1019:21
	ldr	r0, [sp, #12]
	.loc	3 1019 29 is_stmt 0             @ rt-thread/components/drivers/wlan/wlan_mgnt.c:1019:29
	ldr	r0, [r0, #4]
	.loc	3 1019 34                       @ rt-thread/components/drivers/wlan/wlan_mgnt.c:1019:34
	ldr	r1, [sp, #24]
	.loc	3 1019 21                       @ rt-thread/components/drivers/wlan/wlan_mgnt.c:1019:21
	rsb	r1, r1, r1, lsl #4
	add.w	r0, r0, r1, lsl #2
	.loc	3 1019 37                       @ rt-thread/components/drivers/wlan/wlan_mgnt.c:1019:37
	ldrsh.w	r0, [r0, #14]
	.loc	3 1019 44                       @ rt-thread/components/drivers/wlan/wlan_mgnt.c:1019:44
	ldr	r1, [sp, #16]
	.loc	3 1019 55                       @ rt-thread/components/drivers/wlan/wlan_mgnt.c:1019:55
	ldrsh.w	r1, [r1, #14]
.Ltmp178:
	.loc	3 1019 21                       @ rt-thread/components/drivers/wlan/wlan_mgnt.c:1019:21
	cmp	r0, r1
	ble	.LBB3_10
	b	.LBB3_9
.LBB3_9:                                @   in Loop: Header=BB3_1 Depth=1
.Ltmp179:
	.loc	3 1021 34 is_stmt 1             @ rt-thread/components/drivers/wlan/wlan_mgnt.c:1021:34
	ldr	r0, [sp, #12]
	.loc	3 1021 42 is_stmt 0             @ rt-thread/components/drivers/wlan/wlan_mgnt.c:1021:42
	ldr	r0, [r0, #4]
	.loc	3 1021 47                       @ rt-thread/components/drivers/wlan/wlan_mgnt.c:1021:47
	ldr	r1, [sp, #24]
	.loc	3 1021 34                       @ rt-thread/components/drivers/wlan/wlan_mgnt.c:1021:34
	rsb	r1, r1, r1, lsl #4
	add.w	r0, r0, r1, lsl #2
	.loc	3 1021 31                       @ rt-thread/components/drivers/wlan/wlan_mgnt.c:1021:31
	str	r0, [sp, #16]
	.loc	3 1022 21 is_stmt 1             @ rt-thread/components/drivers/wlan/wlan_mgnt.c:1022:21
	b	.LBB3_18
.Ltmp180:
.LBB3_10:                               @   in Loop: Header=BB3_1 Depth=1
	.loc	3 1024 26                       @ rt-thread/components/drivers/wlan/wlan_mgnt.c:1024:26
	ldr	r0, [sp, #12]
	.loc	3 1024 34 is_stmt 0             @ rt-thread/components/drivers/wlan/wlan_mgnt.c:1024:34
	ldr	r0, [r0, #4]
	.loc	3 1024 39                       @ rt-thread/components/drivers/wlan/wlan_mgnt.c:1024:39
	ldr	r1, [sp, #24]
	.loc	3 1024 26                       @ rt-thread/components/drivers/wlan/wlan_mgnt.c:1024:26
	rsb	r1, r1, r1, lsl #4
	add.w	r0, r0, r1, lsl #2
	.loc	3 1024 42                       @ rt-thread/components/drivers/wlan/wlan_mgnt.c:1024:42
	ldrsh.w	r0, [r0, #14]
	.loc	3 1024 49                       @ rt-thread/components/drivers/wlan/wlan_mgnt.c:1024:49
	ldr	r1, [sp, #16]
	.loc	3 1024 60                       @ rt-thread/components/drivers/wlan/wlan_mgnt.c:1024:60
	ldrsh.w	r1, [r1, #14]
.Ltmp181:
	.loc	3 1024 26                       @ rt-thread/components/drivers/wlan/wlan_mgnt.c:1024:26
	cmp	r0, r1
	bge	.LBB3_12
	b	.LBB3_11
.LBB3_11:                               @   in Loop: Header=BB3_1 Depth=1
.Ltmp182:
	.loc	3 1026 21 is_stmt 1             @ rt-thread/components/drivers/wlan/wlan_mgnt.c:1026:21
	b	.LBB3_18
.Ltmp183:
.LBB3_12:                               @   in Loop: Header=BB3_1 Depth=1
	.loc	3 0 21 is_stmt 0                @ rt-thread/components/drivers/wlan/wlan_mgnt.c:0:21
	b	.LBB3_13
.LBB3_13:                               @   in Loop: Header=BB3_1 Depth=1
	.loc	3 1028 13 is_stmt 1             @ rt-thread/components/drivers/wlan/wlan_mgnt.c:1028:13
	b	.LBB3_14
.Ltmp184:
.LBB3_14:                               @   in Loop: Header=BB3_1 Depth=1
	.loc	3 1031 17                       @ rt-thread/components/drivers/wlan/wlan_mgnt.c:1031:17
	ldr	r0, [sp, #12]
	.loc	3 1031 25 is_stmt 0             @ rt-thread/components/drivers/wlan/wlan_mgnt.c:1031:25
	ldr	r0, [r0, #4]
	.loc	3 1031 30                       @ rt-thread/components/drivers/wlan/wlan_mgnt.c:1031:30
	ldr	r1, [sp, #24]
	.loc	3 1031 17                       @ rt-thread/components/drivers/wlan/wlan_mgnt.c:1031:17
	rsb	r1, r1, r1, lsl #4
	add.w	r0, r0, r1, lsl #2
	.loc	3 1031 33                       @ rt-thread/components/drivers/wlan/wlan_mgnt.c:1031:33
	ldr	r0, [r0, #8]
	.loc	3 1031 44                       @ rt-thread/components/drivers/wlan/wlan_mgnt.c:1031:44
	ldr	r1, [sp, #16]
	.loc	3 1031 55                       @ rt-thread/components/drivers/wlan/wlan_mgnt.c:1031:55
	ldr	r1, [r1, #8]
.Ltmp185:
	.loc	3 1031 17                       @ rt-thread/components/drivers/wlan/wlan_mgnt.c:1031:17
	cmp	r0, r1
	bls	.LBB3_16
	b	.LBB3_15
.LBB3_15:                               @   in Loop: Header=BB3_1 Depth=1
.Ltmp186:
	.loc	3 1033 30 is_stmt 1             @ rt-thread/components/drivers/wlan/wlan_mgnt.c:1033:30
	ldr	r0, [sp, #12]
	.loc	3 1033 38 is_stmt 0             @ rt-thread/components/drivers/wlan/wlan_mgnt.c:1033:38
	ldr	r0, [r0, #4]
	.loc	3 1033 43                       @ rt-thread/components/drivers/wlan/wlan_mgnt.c:1033:43
	ldr	r1, [sp, #24]
	.loc	3 1033 30                       @ rt-thread/components/drivers/wlan/wlan_mgnt.c:1033:30
	rsb	r1, r1, r1, lsl #4
	add.w	r0, r0, r1, lsl #2
	.loc	3 1033 27                       @ rt-thread/components/drivers/wlan/wlan_mgnt.c:1033:27
	str	r0, [sp, #16]
	.loc	3 1034 17 is_stmt 1             @ rt-thread/components/drivers/wlan/wlan_mgnt.c:1034:17
	b	.LBB3_18
.Ltmp187:
.LBB3_16:                               @   in Loop: Header=BB3_1 Depth=1
	.loc	3 1036 9                        @ rt-thread/components/drivers/wlan/wlan_mgnt.c:1036:9
	b	.LBB3_17
.Ltmp188:
.LBB3_17:                               @   in Loop: Header=BB3_1 Depth=1
	.loc	3 1037 5                        @ rt-thread/components/drivers/wlan/wlan_mgnt.c:1037:5
	b	.LBB3_18
.Ltmp189:
.LBB3_18:                               @   in Loop: Header=BB3_1 Depth=1
	.loc	3 1004 35                       @ rt-thread/components/drivers/wlan/wlan_mgnt.c:1004:35
	ldr	r0, [sp, #24]
	adds	r0, #1
	str	r0, [sp, #24]
	.loc	3 1004 5 is_stmt 0              @ rt-thread/components/drivers/wlan/wlan_mgnt.c:1004:5
	b	.LBB3_1
.Ltmp190:
.LBB3_19:
	.loc	3 1038 5 is_stmt 1              @ rt-thread/components/drivers/wlan/wlan_mgnt.c:1038:5
	movw	r0, :lower16:scan_result_mutex
	movt	r0, :upper16:scan_result_mutex
	bl	rt_mutex_release
.Ltmp191:
	.loc	3 1040 9                        @ rt-thread/components/drivers/wlan/wlan_mgnt.c:1040:9
	ldr	r0, [sp, #16]
.Ltmp192:
	.loc	3 1040 9 is_stmt 0              @ rt-thread/components/drivers/wlan/wlan_mgnt.c:1040:9
	cbnz	r0, .LBB3_21
	b	.LBB3_20
.LBB3_20:
	.loc	3 0 9                           @ rt-thread/components/drivers/wlan/wlan_mgnt.c:0:9
	movs	r0, #0
.Ltmp193:
	.loc	3 1041 9 is_stmt 1              @ rt-thread/components/drivers/wlan/wlan_mgnt.c:1041:9
	str	r0, [sp, #36]
	b	.LBB3_22
.Ltmp194:
.LBB3_21:
	.loc	3 1043 6                        @ rt-thread/components/drivers/wlan/wlan_mgnt.c:1043:6
	ldr	r1, [sp, #28]
	.loc	3 1043 14 is_stmt 0             @ rt-thread/components/drivers/wlan/wlan_mgnt.c:1043:14
	str	r1, [sp]                        @ 4-byte Spill
	ldr	r3, [sp, #16]
	.loc	3 1043 13                       @ rt-thread/components/drivers/wlan/wlan_mgnt.c:1043:13
	str	r3, [sp, #4]                    @ 4-byte Spill
	ldr	r0, [r3]
	ldr	r2, [r3, #4]
	ldr.w	r12, [r3, #8]
	ldr.w	lr, [r3, #12]
	ldr	r4, [r3, #16]
	ldr	r5, [r3, #20]
	str	r5, [r1, #20]
	str	r4, [r1, #16]
	str.w	lr, [r1, #12]
	str.w	r12, [r1, #8]
	str	r2, [r1, #4]
	str	r0, [r1]
	ldr	r0, [r3, #24]
	ldr	r2, [r3, #28]
	ldr.w	r12, [r3, #32]
	ldr.w	lr, [r3, #36]
	ldr	r4, [r3, #40]
	ldr	r5, [r3, #44]
	str	r5, [r1, #44]
	str	r4, [r1, #40]
	str.w	lr, [r1, #36]
	str.w	r12, [r1, #32]
	str	r2, [r1, #28]
	str	r0, [r1, #24]
	ldr	r0, [r3, #48]
	ldr	r2, [r3, #52]
	ldr	r3, [r3, #56]
	str	r3, [r1, #56]
	str	r2, [r1, #52]
	str	r0, [r1, #48]
	movs	r0, #1
	.loc	3 1044 5 is_stmt 1              @ rt-thread/components/drivers/wlan/wlan_mgnt.c:1044:5
	str	r0, [sp, #36]
	b	.LBB3_22
.LBB3_22:
	.loc	3 1045 1                        @ rt-thread/components/drivers/wlan/wlan_mgnt.c:1045:1
	ldr	r0, [sp, #36]
	add	sp, #40
	pop	{r4, r5, r7, pc}
.Ltmp195:
.Lfunc_end3:
	.size	rt_wlan_find_best_by_cache, .Lfunc_end3-rt_wlan_find_best_by_cache
	.cfi_endproc
	.cantunwind
	.fnend
                                        @ -- End function
	.section	.text.rt_wlan_connect,"ax",%progbits
	.hidden	rt_wlan_connect                 @ -- Begin function rt_wlan_connect
	.globl	rt_wlan_connect
	.p2align	3
	.type	rt_wlan_connect,%function
	.code	16                              @ @rt_wlan_connect
	.thumb_func
rt_wlan_connect:
.Lfunc_begin4:
	.loc	3 1048 0                        @ rt-thread/components/drivers/wlan/wlan_mgnt.c:1048:0
	.fnstart
	.cfi_startproc
@ %bb.0:
	.save	{r7, lr}
	push	{r7, lr}
	.cfi_def_cfa_offset 8
	.cfi_offset lr, -4
	.cfi_offset r7, -8
	.pad	#104
	sub	sp, #104
	.cfi_def_cfa_offset 112
	str	r0, [sp, #96]
	str	r1, [sp, #92]
	movs	r0, #0
.Ltmp196:
	.loc	3 1049 14 prologue_end          @ rt-thread/components/drivers/wlan/wlan_mgnt.c:1049:14
	str	r0, [sp, #88]
	.loc	3 1050 9                        @ rt-thread/components/drivers/wlan/wlan_mgnt.c:1050:9
	str	r0, [sp, #84]
	.loc	3 1053 17                       @ rt-thread/components/drivers/wlan/wlan_mgnt.c:1053:17
	str	r0, [sp, #16]
	.loc	3 1053 26 is_stmt 0             @ rt-thread/components/drivers/wlan/wlan_mgnt.c:1053:26
	str	r0, [sp, #12]
	movs	r0, #3
	.loc	3 1054 17 is_stmt 1             @ rt-thread/components/drivers/wlan/wlan_mgnt.c:1054:17
	str	r0, [sp, #8]
.Ltmp197:
	.loc	3 1057 9                        @ rt-thread/components/drivers/wlan/wlan_mgnt.c:1057:9
	bl	_sta_is_null
.Ltmp198:
	.loc	3 1057 9 is_stmt 0              @ rt-thread/components/drivers/wlan/wlan_mgnt.c:1057:9
	cbz	r0, .LBB4_2
	b	.LBB4_1
.LBB4_1:
	.loc	3 0 9                           @ rt-thread/components/drivers/wlan/wlan_mgnt.c:0:9
	mvn	r0, #7
.Ltmp199:
	.loc	3 1059 9 is_stmt 1              @ rt-thread/components/drivers/wlan/wlan_mgnt.c:1059:9
	str	r0, [sp, #100]
	b	.LBB4_35
.Ltmp200:
.LBB4_2:
	.loc	3 1062 9                        @ rt-thread/components/drivers/wlan/wlan_mgnt.c:1062:9
	ldr	r0, [sp, #96]
.Ltmp201:
	.loc	3 1062 9 is_stmt 0              @ rt-thread/components/drivers/wlan/wlan_mgnt.c:1062:9
	cbnz	r0, .LBB4_6
	b	.LBB4_3
.LBB4_3:
.Ltmp202:
	.loc	3 1064 9 is_stmt 1              @ rt-thread/components/drivers/wlan/wlan_mgnt.c:1064:9
	b	.LBB4_4
.LBB4_4:
.Ltmp203:
	.loc	3 1064 9 is_stmt 0              @ rt-thread/components/drivers/wlan/wlan_mgnt.c:1064:9
	movw	r0, :lower16:.L.str
	movt	r0, :upper16:.L.str
	bl	rt_kprintf
	movw	r0, :lower16:.L.str.12
	movt	r0, :upper16:.L.str.12
	movw	r1, :lower16:.L__FUNCTION__.rt_wlan_connect
	movt	r1, :upper16:.L__FUNCTION__.rt_wlan_connect
	mov.w	r2, #1064
	bl	rt_kprintf
	movw	r0, :lower16:.L.str.2
	movt	r0, :upper16:.L.str.2
	bl	rt_kprintf
	b	.LBB4_5
.Ltmp204:
.LBB4_5:
	.loc	3 0 9                           @ rt-thread/components/drivers/wlan/wlan_mgnt.c:0:9
	mvn	r0, #9
	.loc	3 1065 9 is_stmt 1              @ rt-thread/components/drivers/wlan/wlan_mgnt.c:1065:9
	str	r0, [sp, #100]
	b	.LBB4_35
.Ltmp205:
.LBB4_6:
	.loc	3 1067 26                       @ rt-thread/components/drivers/wlan/wlan_mgnt.c:1067:26
	ldr	r0, [sp, #96]
	.loc	3 1067 16 is_stmt 0             @ rt-thread/components/drivers/wlan/wlan_mgnt.c:1067:16
	bl	rt_strlen
	.loc	3 1067 14                       @ rt-thread/components/drivers/wlan/wlan_mgnt.c:1067:14
	str	r0, [sp, #84]
.Ltmp206:
	.loc	3 1068 9 is_stmt 1              @ rt-thread/components/drivers/wlan/wlan_mgnt.c:1068:9
	ldr	r0, [sp, #84]
.Ltmp207:
	.loc	3 1068 9 is_stmt 0              @ rt-thread/components/drivers/wlan/wlan_mgnt.c:1068:9
	cmp	r0, #33
	blt	.LBB4_10
	b	.LBB4_7
.LBB4_7:
.Ltmp208:
	.loc	3 1070 9 is_stmt 1              @ rt-thread/components/drivers/wlan/wlan_mgnt.c:1070:9
	b	.LBB4_8
.LBB4_8:
.Ltmp209:
	.loc	3 1070 9 is_stmt 0              @ rt-thread/components/drivers/wlan/wlan_mgnt.c:1070:9
	movw	r0, :lower16:.L.str
	movt	r0, :upper16:.L.str
	bl	rt_kprintf
	ldr	r3, [sp, #96]
	ldr	r0, [sp, #84]
	mov	r1, sp
	str	r0, [r1]
	movw	r0, :lower16:.L.str.13
	movt	r0, :upper16:.L.str.13
	movw	r1, :lower16:.L__FUNCTION__.rt_wlan_connect
	movt	r1, :upper16:.L__FUNCTION__.rt_wlan_connect
	movw	r2, #1070
	bl	rt_kprintf
	movw	r0, :lower16:.L.str.2
	movt	r0, :upper16:.L.str.2
	bl	rt_kprintf
	b	.LBB4_9
.Ltmp210:
.LBB4_9:
	.loc	3 0 9                           @ rt-thread/components/drivers/wlan/wlan_mgnt.c:0:9
	mvn	r0, #9
	.loc	3 1071 9 is_stmt 1              @ rt-thread/components/drivers/wlan/wlan_mgnt.c:1071:9
	str	r0, [sp, #100]
	b	.LBB4_35
.Ltmp211:
.LBB4_10:
	.loc	3 1074 10                       @ rt-thread/components/drivers/wlan/wlan_mgnt.c:1074:10
	bl	rt_wlan_is_connected
	.loc	3 1074 45 is_stmt 0             @ rt-thread/components/drivers/wlan/wlan_mgnt.c:1074:45
	cmp	r0, #1
	bne	.LBB4_15
	b	.LBB4_11
.LBB4_11:
	.loc	3 1075 61 is_stmt 1             @ rt-thread/components/drivers/wlan/wlan_mgnt.c:1075:61
	ldr	r1, [sp, #96]
	.loc	3 1075 14 is_stmt 0             @ rt-thread/components/drivers/wlan/wlan_mgnt.c:1075:14
	movw	r0, :lower16:_sta_mgnt
	movt	r0, :upper16:_sta_mgnt
	adds	r0, #21
	bl	rt_strcmp
.Ltmp212:
	.loc	3 1074 9 is_stmt 1              @ rt-thread/components/drivers/wlan/wlan_mgnt.c:1074:9
	cbnz	r0, .LBB4_15
	b	.LBB4_12
.LBB4_12:
.Ltmp213:
	.loc	3 1077 9                        @ rt-thread/components/drivers/wlan/wlan_mgnt.c:1077:9
	b	.LBB4_13
.LBB4_13:
.Ltmp214:
	.loc	3 1077 9 is_stmt 0              @ rt-thread/components/drivers/wlan/wlan_mgnt.c:1077:9
	movw	r0, :lower16:.L.str.4
	movt	r0, :upper16:.L.str.4
	bl	rt_kprintf
	ldr	r1, [sp, #96]
	movw	r0, :lower16:.L.str.14
	movt	r0, :upper16:.L.str.14
	bl	rt_kprintf
	movw	r0, :lower16:.L.str.2
	movt	r0, :upper16:.L.str.2
	bl	rt_kprintf
	b	.LBB4_14
.Ltmp215:
.LBB4_14:
	.loc	3 0 9                           @ rt-thread/components/drivers/wlan/wlan_mgnt.c:0:9
	movs	r0, #0
	.loc	3 1078 9 is_stmt 1              @ rt-thread/components/drivers/wlan/wlan_mgnt.c:1078:9
	str	r0, [sp, #100]
	b	.LBB4_35
.Ltmp216:
.LBB4_15:
	.loc	3 1081 5                        @ rt-thread/components/drivers/wlan/wlan_mgnt.c:1081:5
	b	.LBB4_16
.LBB4_16:
	.loc	3 0 5 is_stmt 0                 @ rt-thread/components/drivers/wlan/wlan_mgnt.c:0:5
	add	r0, sp, #24
	movs	r1, #0
	movs	r2, #60
.Ltmp217:
	.loc	3 1081 5                        @ rt-thread/components/drivers/wlan/wlan_mgnt.c:1081:5
	bl	rt_memset
	mvn	r0, #-2147483648
	str	r0, [sp, #28]
	mov.w	r0, #-1
	str	r0, [sp, #24]
	movw	r0, #65535
	strh.w	r0, [sp, #36]
	b	.LBB4_17
.Ltmp218:
.LBB4_17:
	.loc	3 1082 5 is_stmt 1              @ rt-thread/components/drivers/wlan/wlan_mgnt.c:1082:5
	movw	r0, :lower16:mgnt_mutex
	movt	r0, :upper16:mgnt_mutex
	mov.w	r1, #-1
	bl	rt_mutex_take
	.loc	3 1083 5                        @ rt-thread/components/drivers/wlan/wlan_mgnt.c:1083:5
	b	.LBB4_18
.LBB4_18:                               @ =>This Inner Loop Header: Depth=1
	.loc	3 1083 22 is_stmt 0             @ rt-thread/components/drivers/wlan/wlan_mgnt.c:1083:22
	ldr	r1, [sp, #8]
	subs	r0, r1, #1
	str	r0, [sp, #8]
	movs	r0, #0
	.loc	3 1083 25                       @ rt-thread/components/drivers/wlan/wlan_mgnt.c:1083:25
	str	r0, [sp, #4]                    @ 4-byte Spill
	cbz	r1, .LBB4_20
	b	.LBB4_19
.LBB4_19:                               @   in Loop: Header=BB4_18 Depth=1
	.loc	3 1083 55                       @ rt-thread/components/drivers/wlan/wlan_mgnt.c:1083:55
	ldr	r0, [sp, #96]
	add	r1, sp, #24
	.loc	3 1083 28                       @ rt-thread/components/drivers/wlan/wlan_mgnt.c:1083:28
	bl	rt_wlan_find_best_by_cache
	.loc	3 1083 68                       @ rt-thread/components/drivers/wlan/wlan_mgnt.c:1083:68
	subs	r0, #1
	it	ne
	movne	r0, #1
	str	r0, [sp, #4]                    @ 4-byte Spill
	b	.LBB4_20
.LBB4_20:                               @   in Loop: Header=BB4_18 Depth=1
	.loc	3 0 0                           @ rt-thread/components/drivers/wlan/wlan_mgnt.c:0:0
	ldr	r0, [sp, #4]                    @ 4-byte Reload
	.loc	3 1083 5                        @ rt-thread/components/drivers/wlan/wlan_mgnt.c:1083:5
	lsls	r0, r0, #31
	cbz	r0, .LBB4_22
	b	.LBB4_21
.LBB4_21:                               @   in Loop: Header=BB4_18 Depth=1
.Ltmp219:
	.loc	3 1085 9 is_stmt 1              @ rt-thread/components/drivers/wlan/wlan_mgnt.c:1085:9
	bl	rt_wlan_scan_sync
.Ltmp220:
	.loc	3 1083 5                        @ rt-thread/components/drivers/wlan/wlan_mgnt.c:1083:5
	b	.LBB4_18
.LBB4_22:
	.loc	3 1087 5                        @ rt-thread/components/drivers/wlan/wlan_mgnt.c:1087:5
	bl	rt_wlan_scan_result_clean
.Ltmp221:
	.loc	3 1089 19                       @ rt-thread/components/drivers/wlan/wlan_mgnt.c:1089:19
	ldrb.w	r0, [sp, #40]
.Ltmp222:
	.loc	3 1089 9 is_stmt 0              @ rt-thread/components/drivers/wlan/wlan_mgnt.c:1089:9
	cmp	r0, #0
	bgt	.LBB4_26
	b	.LBB4_23
.LBB4_23:
.Ltmp223:
	.loc	3 1091 9 is_stmt 1              @ rt-thread/components/drivers/wlan/wlan_mgnt.c:1091:9
	b	.LBB4_24
.LBB4_24:
.Ltmp224:
	.loc	3 1091 9 is_stmt 0              @ rt-thread/components/drivers/wlan/wlan_mgnt.c:1091:9
	movw	r0, :lower16:.L.str.15
	movt	r0, :upper16:.L.str.15
	bl	rt_kprintf
	ldr	r3, [sp, #96]
	movw	r0, :lower16:.L.str.16
	movt	r0, :upper16:.L.str.16
	movw	r1, :lower16:.L__FUNCTION__.rt_wlan_connect
	movt	r1, :upper16:.L__FUNCTION__.rt_wlan_connect
	movw	r2, #1091
	bl	rt_kprintf
	movw	r0, :lower16:.L.str.2
	movt	r0, :upper16:.L.str.2
	bl	rt_kprintf
	b	.LBB4_25
.Ltmp225:
.LBB4_25:
	.loc	3 1092 9 is_stmt 1              @ rt-thread/components/drivers/wlan/wlan_mgnt.c:1092:9
	movw	r0, :lower16:mgnt_mutex
	movt	r0, :upper16:mgnt_mutex
	bl	rt_mutex_release
	mov.w	r0, #-1
	.loc	3 1093 9                        @ rt-thread/components/drivers/wlan/wlan_mgnt.c:1093:9
	str	r0, [sp, #100]
	b	.LBB4_35
.Ltmp226:
.LBB4_26:
	.loc	3 1100 16                       @ rt-thread/components/drivers/wlan/wlan_mgnt.c:1100:16
	movw	r0, :lower16:.L.str.17
	movt	r0, :upper16:.L.str.17
	bl	rt_wlan_complete_create
	.loc	3 1100 14 is_stmt 0             @ rt-thread/components/drivers/wlan/wlan_mgnt.c:1100:14
	str	r0, [sp, #20]
.Ltmp227:
	.loc	3 1101 9 is_stmt 1              @ rt-thread/components/drivers/wlan/wlan_mgnt.c:1101:9
	ldr	r0, [sp, #20]
.Ltmp228:
	.loc	3 1101 9 is_stmt 0              @ rt-thread/components/drivers/wlan/wlan_mgnt.c:1101:9
	cbnz	r0, .LBB4_28
	b	.LBB4_27
.LBB4_27:
.Ltmp229:
	.loc	3 1103 9 is_stmt 1              @ rt-thread/components/drivers/wlan/wlan_mgnt.c:1103:9
	movw	r0, :lower16:mgnt_mutex
	movt	r0, :upper16:mgnt_mutex
	bl	rt_mutex_release
	mvn	r0, #4
	.loc	3 1104 9                        @ rt-thread/components/drivers/wlan/wlan_mgnt.c:1104:9
	str	r0, [sp, #100]
	b	.LBB4_35
.Ltmp230:
.LBB4_28:
	.loc	3 1107 38                       @ rt-thread/components/drivers/wlan/wlan_mgnt.c:1107:38
	ldr	r1, [sp, #92]
	add	r0, sp, #24
	.loc	3 1107 11 is_stmt 0             @ rt-thread/components/drivers/wlan/wlan_mgnt.c:1107:11
	bl	rt_wlan_connect_adv
	.loc	3 1107 9                        @ rt-thread/components/drivers/wlan/wlan_mgnt.c:1107:9
	str	r0, [sp, #88]
.Ltmp231:
	.loc	3 1108 9 is_stmt 1              @ rt-thread/components/drivers/wlan/wlan_mgnt.c:1108:9
	ldr	r0, [sp, #88]
.Ltmp232:
	.loc	3 1108 9 is_stmt 0              @ rt-thread/components/drivers/wlan/wlan_mgnt.c:1108:9
	cbz	r0, .LBB4_30
	b	.LBB4_29
.LBB4_29:
.Ltmp233:
	.loc	3 1110 33 is_stmt 1             @ rt-thread/components/drivers/wlan/wlan_mgnt.c:1110:33
	ldr	r0, [sp, #20]
	.loc	3 1110 9 is_stmt 0              @ rt-thread/components/drivers/wlan/wlan_mgnt.c:1110:9
	bl	rt_wlan_complete_delete
	.loc	3 1111 9 is_stmt 1              @ rt-thread/components/drivers/wlan/wlan_mgnt.c:1111:9
	movw	r0, :lower16:mgnt_mutex
	movt	r0, :upper16:mgnt_mutex
	bl	rt_mutex_release
	.loc	3 1112 16                       @ rt-thread/components/drivers/wlan/wlan_mgnt.c:1112:16
	ldr	r0, [sp, #88]
	.loc	3 1112 9 is_stmt 0              @ rt-thread/components/drivers/wlan/wlan_mgnt.c:1112:9
	str	r0, [sp, #100]
	b	.LBB4_35
.Ltmp234:
.LBB4_30:
	.loc	3 1116 9 is_stmt 1              @ rt-thread/components/drivers/wlan/wlan_mgnt.c:1116:9
	ldr	r0, [sp, #16]
	orr	r0, r0, #2
	str	r0, [sp, #16]
	.loc	3 1117 9                        @ rt-thread/components/drivers/wlan/wlan_mgnt.c:1117:9
	ldr	r0, [sp, #16]
	orr	r0, r0, #4
	str	r0, [sp, #16]
	.loc	3 1119 27                       @ rt-thread/components/drivers/wlan/wlan_mgnt.c:1119:27
	ldr	r0, [sp, #20]
	.loc	3 1119 37 is_stmt 0             @ rt-thread/components/drivers/wlan/wlan_mgnt.c:1119:37
	ldr	r1, [sp, #16]
	movw	r2, #10000
	add	r3, sp, #12
	.loc	3 1119 5                        @ rt-thread/components/drivers/wlan/wlan_mgnt.c:1119:5
	bl	rt_wlan_complete_wait
	.loc	3 1120 29 is_stmt 1             @ rt-thread/components/drivers/wlan/wlan_mgnt.c:1120:29
	ldr	r0, [sp, #20]
	.loc	3 1120 5 is_stmt 0              @ rt-thread/components/drivers/wlan/wlan_mgnt.c:1120:5
	bl	rt_wlan_complete_delete
	movs	r0, #2
	.loc	3 1122 9 is_stmt 1              @ rt-thread/components/drivers/wlan/wlan_mgnt.c:1122:9
	str	r0, [sp, #16]
.Ltmp235:
	.loc	3 1123 11                       @ rt-thread/components/drivers/wlan/wlan_mgnt.c:1123:11
	ldr	r0, [sp, #12]
	.loc	3 1123 20 is_stmt 0             @ rt-thread/components/drivers/wlan/wlan_mgnt.c:1123:20
	ldr	r1, [sp, #16]
.Ltmp236:
	.loc	3 1123 9                        @ rt-thread/components/drivers/wlan/wlan_mgnt.c:1123:9
	tst	r0, r1
	bne	.LBB4_34
	b	.LBB4_31
.LBB4_31:
.Ltmp237:
	.loc	3 1125 9 is_stmt 1              @ rt-thread/components/drivers/wlan/wlan_mgnt.c:1125:9
	b	.LBB4_32
.LBB4_32:
.Ltmp238:
	.loc	3 1125 9 is_stmt 0              @ rt-thread/components/drivers/wlan/wlan_mgnt.c:1125:9
	movw	r0, :lower16:.L.str.4
	movt	r0, :upper16:.L.str.4
	bl	rt_kprintf
	movw	r0, :lower16:.L.str.18
	movt	r0, :upper16:.L.str.18
	bl	rt_kprintf
	movw	r0, :lower16:.L.str.2
	movt	r0, :upper16:.L.str.2
	bl	rt_kprintf
	b	.LBB4_33
.Ltmp239:
.LBB4_33:
	.loc	3 1126 9 is_stmt 1              @ rt-thread/components/drivers/wlan/wlan_mgnt.c:1126:9
	movw	r0, :lower16:mgnt_mutex
	movt	r0, :upper16:mgnt_mutex
	bl	rt_mutex_release
	mov.w	r0, #-1
	.loc	3 1127 9                        @ rt-thread/components/drivers/wlan/wlan_mgnt.c:1127:9
	str	r0, [sp, #100]
	b	.LBB4_35
.Ltmp240:
.LBB4_34:
	.loc	3 1129 5                        @ rt-thread/components/drivers/wlan/wlan_mgnt.c:1129:5
	movw	r0, :lower16:mgnt_mutex
	movt	r0, :upper16:mgnt_mutex
	bl	rt_mutex_release
	.loc	3 1130 12                       @ rt-thread/components/drivers/wlan/wlan_mgnt.c:1130:12
	ldr	r0, [sp, #88]
	.loc	3 1130 5 is_stmt 0              @ rt-thread/components/drivers/wlan/wlan_mgnt.c:1130:5
	str	r0, [sp, #100]
	b	.LBB4_35
.LBB4_35:
	.loc	3 1131 1 is_stmt 1              @ rt-thread/components/drivers/wlan/wlan_mgnt.c:1131:1
	ldr	r0, [sp, #100]
	add	sp, #104
	pop	{r7, pc}
.Ltmp241:
.Lfunc_end4:
	.size	rt_wlan_connect, .Lfunc_end4-rt_wlan_connect
	.cfi_endproc
	.cantunwind
	.fnend
                                        @ -- End function
	.section	.text._sta_is_null,"ax",%progbits
	.p2align	3                               @ -- Begin function _sta_is_null
	.type	_sta_is_null,%function
	.code	16                              @ @_sta_is_null
	.thumb_func
_sta_is_null:
.Lfunc_begin5:
	.loc	3 128 0                         @ rt-thread/components/drivers/wlan/wlan_mgnt.c:128:0
	.fnstart
	.cfi_startproc
@ %bb.0:
	.pad	#4
	sub	sp, #4
	.cfi_def_cfa_offset 4
.Ltmp242:
	.loc	3 129 19 prologue_end           @ rt-thread/components/drivers/wlan/wlan_mgnt.c:129:19
	movw	r0, :lower16:_sta_mgnt
	movt	r0, :upper16:_sta_mgnt
	ldr	r0, [r0]
.Ltmp243:
	.loc	3 129 9 is_stmt 0               @ rt-thread/components/drivers/wlan/wlan_mgnt.c:129:9
	cbnz	r0, .LBB5_2
	b	.LBB5_1
.LBB5_1:
	.loc	3 0 9                           @ rt-thread/components/drivers/wlan/wlan_mgnt.c:0:9
	movs	r0, #1
.Ltmp244:
	.loc	3 131 9 is_stmt 1               @ rt-thread/components/drivers/wlan/wlan_mgnt.c:131:9
	str	r0, [sp]
	b	.LBB5_3
.Ltmp245:
.LBB5_2:
	.loc	3 0 9 is_stmt 0                 @ rt-thread/components/drivers/wlan/wlan_mgnt.c:0:9
	movs	r0, #0
	.loc	3 133 5 is_stmt 1               @ rt-thread/components/drivers/wlan/wlan_mgnt.c:133:5
	str	r0, [sp]
	b	.LBB5_3
.LBB5_3:
	.loc	3 134 1                         @ rt-thread/components/drivers/wlan/wlan_mgnt.c:134:1
	ldr	r0, [sp]
	add	sp, #4
	bx	lr
.Ltmp246:
.Lfunc_end5:
	.size	_sta_is_null, .Lfunc_end5-_sta_is_null
	.cfi_endproc
	.cantunwind
	.fnend
                                        @ -- End function
	.section	.text.rt_wlan_is_connected,"ax",%progbits
	.hidden	rt_wlan_is_connected            @ -- Begin function rt_wlan_is_connected
	.globl	rt_wlan_is_connected
	.p2align	3
	.type	rt_wlan_is_connected,%function
	.code	16                              @ @rt_wlan_is_connected
	.thumb_func
rt_wlan_is_connected:
.Lfunc_begin6:
	.loc	3 1260 0                        @ rt-thread/components/drivers/wlan/wlan_mgnt.c:1260:0
	.fnstart
	.cfi_startproc
@ %bb.0:
	.save	{r7, lr}
	push	{r7, lr}
	.cfi_def_cfa_offset 8
	.cfi_offset lr, -4
	.cfi_offset r7, -8
	.pad	#8
	sub	sp, #8
	.cfi_def_cfa_offset 16
.Ltmp247:
	.loc	3 1263 9 prologue_end           @ rt-thread/components/drivers/wlan/wlan_mgnt.c:1263:9
	bl	_sta_is_null
.Ltmp248:
	.loc	3 1263 9 is_stmt 0              @ rt-thread/components/drivers/wlan/wlan_mgnt.c:1263:9
	cbz	r0, .LBB6_2
	b	.LBB6_1
.LBB6_1:
	.loc	3 0 9                           @ rt-thread/components/drivers/wlan/wlan_mgnt.c:0:9
	movs	r0, #0
.Ltmp249:
	.loc	3 1265 9 is_stmt 1              @ rt-thread/components/drivers/wlan/wlan_mgnt.c:1265:9
	str	r0, [sp, #4]
	b	.LBB6_3
.Ltmp250:
.LBB6_2:
	.loc	3 1267 26                       @ rt-thread/components/drivers/wlan/wlan_mgnt.c:1267:26
	movw	r0, :lower16:_sta_mgnt
	movt	r0, :upper16:_sta_mgnt
	.loc	3 1267 16 is_stmt 0             @ rt-thread/components/drivers/wlan/wlan_mgnt.c:1267:16
	ldrb.w	r0, [r0, #98]
	.loc	3 1267 32                       @ rt-thread/components/drivers/wlan/wlan_mgnt.c:1267:32
	and	r0, r0, #1
	.loc	3 1267 14                       @ rt-thread/components/drivers/wlan/wlan_mgnt.c:1267:14
	str	r0, [sp]
	.loc	3 1269 12 is_stmt 1             @ rt-thread/components/drivers/wlan/wlan_mgnt.c:1269:12
	ldr	r0, [sp]
	.loc	3 1269 5 is_stmt 0              @ rt-thread/components/drivers/wlan/wlan_mgnt.c:1269:5
	str	r0, [sp, #4]
	b	.LBB6_3
.LBB6_3:
	.loc	3 1270 1 is_stmt 1              @ rt-thread/components/drivers/wlan/wlan_mgnt.c:1270:1
	ldr	r0, [sp, #4]
	add	sp, #8
	pop	{r7, pc}
.Ltmp251:
.Lfunc_end6:
	.size	rt_wlan_is_connected, .Lfunc_end6-rt_wlan_is_connected
	.cfi_endproc
	.cantunwind
	.fnend
                                        @ -- End function
	.section	.text.rt_wlan_scan_sync,"ax",%progbits
	.hidden	rt_wlan_scan_sync               @ -- Begin function rt_wlan_scan_sync
	.globl	rt_wlan_scan_sync
	.p2align	3
	.type	rt_wlan_scan_sync,%function
	.code	16                              @ @rt_wlan_scan_sync
	.thumb_func
rt_wlan_scan_sync:
.Lfunc_begin7:
	.loc	3 1735 0                        @ rt-thread/components/drivers/wlan/wlan_mgnt.c:1735:0
	.fnstart
	.cfi_startproc
@ %bb.0:
	.save	{r7, lr}
	push	{r7, lr}
	.cfi_def_cfa_offset 8
	.cfi_offset lr, -4
	.cfi_offset r7, -8
	.pad	#8
	sub	sp, #8
	.cfi_def_cfa_offset 16
.Ltmp252:
	.loc	3 1739 5 prologue_end           @ rt-thread/components/drivers/wlan/wlan_mgnt.c:1739:5
	movw	r0, :lower16:mgnt_mutex
	movt	r0, :upper16:mgnt_mutex
	str	r0, [sp]                        @ 4-byte Spill
	mov.w	r1, #-1
	bl	rt_mutex_take
	movs	r0, #0
	.loc	3 1740 14                       @ rt-thread/components/drivers/wlan/wlan_mgnt.c:1740:14
	bl	rt_wlan_scan_with_info
	mov	r1, r0
	.loc	3 1740 12 is_stmt 0             @ rt-thread/components/drivers/wlan/wlan_mgnt.c:1740:12
	ldr	r0, [sp]                        @ 4-byte Reload
	str	r1, [sp, #4]
	.loc	3 1741 5 is_stmt 1              @ rt-thread/components/drivers/wlan/wlan_mgnt.c:1741:5
	bl	rt_mutex_release
	.loc	3 1742 12                       @ rt-thread/components/drivers/wlan/wlan_mgnt.c:1742:12
	ldr	r0, [sp, #4]
	.loc	3 1742 5 is_stmt 0              @ rt-thread/components/drivers/wlan/wlan_mgnt.c:1742:5
	add	sp, #8
	pop	{r7, pc}
.Ltmp253:
.Lfunc_end7:
	.size	rt_wlan_scan_sync, .Lfunc_end7-rt_wlan_scan_sync
	.cfi_endproc
	.cantunwind
	.fnend
                                        @ -- End function
	.section	.text.rt_wlan_scan_result_clean,"ax",%progbits
	.hidden	rt_wlan_scan_result_clean       @ -- Begin function rt_wlan_scan_result_clean
	.globl	rt_wlan_scan_result_clean
	.p2align	3
	.type	rt_wlan_scan_result_clean,%function
	.code	16                              @ @rt_wlan_scan_result_clean
	.thumb_func
rt_wlan_scan_result_clean:
.Lfunc_begin8:
	.loc	3 1845 0 is_stmt 1              @ rt-thread/components/drivers/wlan/wlan_mgnt.c:1845:0
	.fnstart
	.cfi_startproc
@ %bb.0:
	.save	{r7, lr}
	push	{r7, lr}
	.cfi_def_cfa_offset 8
	.cfi_offset lr, -4
	.cfi_offset r7, -8
	.pad	#16
	sub	sp, #16
	.cfi_def_cfa_offset 24
.Ltmp254:
	.loc	3 1846 5 prologue_end           @ rt-thread/components/drivers/wlan/wlan_mgnt.c:1846:5
	movw	r0, :lower16:mgnt_mutex
	movt	r0, :upper16:mgnt_mutex
	mov.w	r1, #-1
	str	r1, [sp, #12]                   @ 4-byte Spill
	bl	rt_mutex_take
	ldr	r1, [sp, #12]                   @ 4-byte Reload
	.loc	3 1847 5                        @ rt-thread/components/drivers/wlan/wlan_mgnt.c:1847:5
	movw	r0, :lower16:scan_result_mutex
	movt	r0, :upper16:scan_result_mutex
	bl	rt_mutex_take
.Ltmp255:
	.loc	3 1850 21                       @ rt-thread/components/drivers/wlan/wlan_mgnt.c:1850:21
	movw	r0, :lower16:scan_result
	movt	r0, :upper16:scan_result
	ldr	r0, [r0]
.Ltmp256:
	.loc	3 1850 9 is_stmt 0              @ rt-thread/components/drivers/wlan/wlan_mgnt.c:1850:9
	cbz	r0, .LBB8_2
	b	.LBB8_1
.LBB8_1:
.Ltmp257:
	.loc	3 1852 25 is_stmt 1             @ rt-thread/components/drivers/wlan/wlan_mgnt.c:1852:25
	movw	r0, :lower16:scan_result
	movt	r0, :upper16:scan_result
	str	r0, [sp, #4]                    @ 4-byte Spill
	movs	r1, #0
	str	r1, [sp, #8]                    @ 4-byte Spill
	str	r1, [r0]
	.loc	3 1853 29                       @ rt-thread/components/drivers/wlan/wlan_mgnt.c:1853:29
	ldr	r0, [r0, #4]
	.loc	3 1853 9 is_stmt 0              @ rt-thread/components/drivers/wlan/wlan_mgnt.c:1853:9
	bl	rt_free
	ldr	r1, [sp, #4]                    @ 4-byte Reload
	ldr	r0, [sp, #8]                    @ 4-byte Reload
	.loc	3 1854 26 is_stmt 1             @ rt-thread/components/drivers/wlan/wlan_mgnt.c:1854:26
	str	r0, [r1, #4]
	.loc	3 1855 5                        @ rt-thread/components/drivers/wlan/wlan_mgnt.c:1855:5
	b	.LBB8_2
.Ltmp258:
.LBB8_2:
	.loc	3 1856 5                        @ rt-thread/components/drivers/wlan/wlan_mgnt.c:1856:5
	movw	r0, :lower16:scan_result_mutex
	movt	r0, :upper16:scan_result_mutex
	bl	rt_mutex_release
	.loc	3 1857 5                        @ rt-thread/components/drivers/wlan/wlan_mgnt.c:1857:5
	movw	r0, :lower16:mgnt_mutex
	movt	r0, :upper16:mgnt_mutex
	bl	rt_mutex_release
	.loc	3 1858 1                        @ rt-thread/components/drivers/wlan/wlan_mgnt.c:1858:1
	add	sp, #16
	pop	{r7, pc}
.Ltmp259:
.Lfunc_end8:
	.size	rt_wlan_scan_result_clean, .Lfunc_end8-rt_wlan_scan_result_clean
	.cfi_endproc
	.cantunwind
	.fnend
                                        @ -- End function
	.section	.text.rt_wlan_complete_create,"ax",%progbits
	.p2align	3                               @ -- Begin function rt_wlan_complete_create
	.type	rt_wlan_complete_create,%function
	.code	16                              @ @rt_wlan_complete_create
	.thumb_func
rt_wlan_complete_create:
.Lfunc_begin9:
	.loc	3 742 0                         @ rt-thread/components/drivers/wlan/wlan_mgnt.c:742:0
	.fnstart
	.cfi_startproc
@ %bb.0:
	.save	{r7, lr}
	push	{r7, lr}
	.cfi_def_cfa_offset 8
	.cfi_offset lr, -4
	.cfi_offset r7, -8
	.pad	#24
	sub	sp, #24
	.cfi_def_cfa_offset 32
	str	r0, [sp, #16]
	movs	r0, #40
.Ltmp260:
	.loc	3 746 16 prologue_end           @ rt-thread/components/drivers/wlan/wlan_mgnt.c:746:16
	bl	rt_malloc
	.loc	3 746 14 is_stmt 0              @ rt-thread/components/drivers/wlan/wlan_mgnt.c:746:14
	str	r0, [sp, #12]
.Ltmp261:
	.loc	3 747 9 is_stmt 1               @ rt-thread/components/drivers/wlan/wlan_mgnt.c:747:9
	ldr	r0, [sp, #12]
.Ltmp262:
	.loc	3 747 9 is_stmt 0               @ rt-thread/components/drivers/wlan/wlan_mgnt.c:747:9
	cbnz	r0, .LBB9_4
	b	.LBB9_1
.LBB9_1:
.Ltmp263:
	.loc	3 749 9 is_stmt 1               @ rt-thread/components/drivers/wlan/wlan_mgnt.c:749:9
	b	.LBB9_2
.LBB9_2:
.Ltmp264:
	.loc	3 749 9 is_stmt 0               @ rt-thread/components/drivers/wlan/wlan_mgnt.c:749:9
	movw	r0, :lower16:.L.str
	movt	r0, :upper16:.L.str
	bl	rt_kprintf
	movw	r0, :lower16:.L.str.59
	movt	r0, :upper16:.L.str.59
	movw	r1, :lower16:.L__FUNCTION__.rt_wlan_complete_create
	movt	r1, :upper16:.L__FUNCTION__.rt_wlan_complete_create
	movw	r2, #749
	bl	rt_kprintf
	movw	r0, :lower16:.L.str.2
	movt	r0, :upper16:.L.str.2
	bl	rt_kprintf
	b	.LBB9_3
.Ltmp265:
.LBB9_3:
	.loc	3 750 9 is_stmt 1               @ rt-thread/components/drivers/wlan/wlan_mgnt.c:750:9
	movw	r0, :lower16:mgnt_mutex
	movt	r0, :upper16:mgnt_mutex
	bl	rt_mutex_release
	.loc	3 751 16                        @ rt-thread/components/drivers/wlan/wlan_mgnt.c:751:16
	ldr	r0, [sp, #12]
	.loc	3 751 9 is_stmt 0               @ rt-thread/components/drivers/wlan/wlan_mgnt.c:751:9
	str	r0, [sp, #20]
	b	.LBB9_13
.Ltmp266:
.LBB9_4:
	.loc	3 753 20 is_stmt 1              @ rt-thread/components/drivers/wlan/wlan_mgnt.c:753:20
	ldr	r0, [sp, #12]
	.loc	3 753 40 is_stmt 0              @ rt-thread/components/drivers/wlan/wlan_mgnt.c:753:40
	ldr	r1, [sp, #16]
	movs	r2, #0
	.loc	3 753 5                         @ rt-thread/components/drivers/wlan/wlan_mgnt.c:753:5
	str	r2, [sp, #4]                    @ 4-byte Spill
	bl	rt_event_init
                                        @ kill: def $r1 killed $r0
	.loc	3 754 5 is_stmt 1               @ rt-thread/components/drivers/wlan/wlan_mgnt.c:754:5
	ldr	r0, [sp, #4]                    @ 4-byte Reload
	ldr	r1, [sp, #12]
	.loc	3 754 26 is_stmt 0              @ rt-thread/components/drivers/wlan/wlan_mgnt.c:754:26
	str	r0, [r1, #32]
	.loc	3 756 5 is_stmt 1               @ rt-thread/components/drivers/wlan/wlan_mgnt.c:756:5
	movw	r0, :lower16:complete_mutex
	movt	r0, :upper16:complete_mutex
	mov.w	r1, #-1
	bl	rt_mutex_take
                                        @ kill: def $r1 killed $r0
.Ltmp267:
	.loc	3 757 12                        @ rt-thread/components/drivers/wlan/wlan_mgnt.c:757:12
	ldr	r0, [sp, #4]                    @ 4-byte Reload
	str	r0, [sp, #8]
	.loc	3 757 10 is_stmt 0              @ rt-thread/components/drivers/wlan/wlan_mgnt.c:757:10
	b	.LBB9_5
.LBB9_5:                                @ =>This Inner Loop Header: Depth=1
.Ltmp268:
	.loc	3 757 17                        @ rt-thread/components/drivers/wlan/wlan_mgnt.c:757:17
	ldr	r0, [sp, #8]
.Ltmp269:
	.loc	3 757 5                         @ rt-thread/components/drivers/wlan/wlan_mgnt.c:757:5
	cmp	r0, #4
	bhi	.LBB9_10
	b	.LBB9_6
.LBB9_6:                                @   in Loop: Header=BB9_5 Depth=1
.Ltmp270:
	.loc	3 759 26 is_stmt 1              @ rt-thread/components/drivers/wlan/wlan_mgnt.c:759:26
	ldr	r1, [sp, #8]
	.loc	3 759 13 is_stmt 0              @ rt-thread/components/drivers/wlan/wlan_mgnt.c:759:13
	movw	r0, :lower16:complete_tab
	movt	r0, :upper16:complete_tab
	ldr.w	r0, [r0, r1, lsl #2]
.Ltmp271:
	.loc	3 759 13                        @ rt-thread/components/drivers/wlan/wlan_mgnt.c:759:13
	cbnz	r0, .LBB9_8
	b	.LBB9_7
.LBB9_7:
.Ltmp272:
	.loc	3 761 31 is_stmt 1              @ rt-thread/components/drivers/wlan/wlan_mgnt.c:761:31
	ldr	r0, [sp, #8]
	.loc	3 761 13 is_stmt 0              @ rt-thread/components/drivers/wlan/wlan_mgnt.c:761:13
	ldr	r1, [sp, #12]
	.loc	3 761 29                        @ rt-thread/components/drivers/wlan/wlan_mgnt.c:761:29
	str	r0, [r1, #36]
	.loc	3 762 31 is_stmt 1              @ rt-thread/components/drivers/wlan/wlan_mgnt.c:762:31
	ldr	r0, [sp, #12]
	.loc	3 762 26 is_stmt 0              @ rt-thread/components/drivers/wlan/wlan_mgnt.c:762:26
	ldr	r2, [sp, #8]
	.loc	3 762 13                        @ rt-thread/components/drivers/wlan/wlan_mgnt.c:762:13
	movw	r1, :lower16:complete_tab
	movt	r1, :upper16:complete_tab
	.loc	3 762 29                        @ rt-thread/components/drivers/wlan/wlan_mgnt.c:762:29
	str.w	r0, [r1, r2, lsl #2]
	.loc	3 763 13 is_stmt 1              @ rt-thread/components/drivers/wlan/wlan_mgnt.c:763:13
	b	.LBB9_10
.Ltmp273:
.LBB9_8:                                @   in Loop: Header=BB9_5 Depth=1
	.loc	3 765 5                         @ rt-thread/components/drivers/wlan/wlan_mgnt.c:765:5
	b	.LBB9_9
.Ltmp274:
.LBB9_9:                                @   in Loop: Header=BB9_5 Depth=1
	.loc	3 757 70                        @ rt-thread/components/drivers/wlan/wlan_mgnt.c:757:70
	ldr	r0, [sp, #8]
	adds	r0, #1
	str	r0, [sp, #8]
	.loc	3 757 5 is_stmt 0               @ rt-thread/components/drivers/wlan/wlan_mgnt.c:757:5
	b	.LBB9_5
.Ltmp275:
.LBB9_10:
	.loc	3 766 5 is_stmt 1               @ rt-thread/components/drivers/wlan/wlan_mgnt.c:766:5
	movw	r0, :lower16:complete_mutex
	movt	r0, :upper16:complete_mutex
	bl	rt_mutex_release
.Ltmp276:
	.loc	3 768 9                         @ rt-thread/components/drivers/wlan/wlan_mgnt.c:768:9
	ldr	r0, [sp, #8]
.Ltmp277:
	.loc	3 768 9 is_stmt 0               @ rt-thread/components/drivers/wlan/wlan_mgnt.c:768:9
	cmp	r0, #5
	blo	.LBB9_12
	b	.LBB9_11
.LBB9_11:
.Ltmp278:
	.loc	3 770 26 is_stmt 1              @ rt-thread/components/drivers/wlan/wlan_mgnt.c:770:26
	ldr	r0, [sp, #12]
	.loc	3 770 9 is_stmt 0               @ rt-thread/components/drivers/wlan/wlan_mgnt.c:770:9
	bl	rt_event_detach
	.loc	3 771 17 is_stmt 1              @ rt-thread/components/drivers/wlan/wlan_mgnt.c:771:17
	ldr	r0, [sp, #12]
	.loc	3 771 9 is_stmt 0               @ rt-thread/components/drivers/wlan/wlan_mgnt.c:771:9
	bl	rt_free
	movs	r0, #0
	.loc	3 772 18 is_stmt 1              @ rt-thread/components/drivers/wlan/wlan_mgnt.c:772:18
	str	r0, [sp, #12]
	.loc	3 773 5                         @ rt-thread/components/drivers/wlan/wlan_mgnt.c:773:5
	b	.LBB9_12
.Ltmp279:
.LBB9_12:
	.loc	3 775 12                        @ rt-thread/components/drivers/wlan/wlan_mgnt.c:775:12
	ldr	r0, [sp, #12]
	.loc	3 775 5 is_stmt 0               @ rt-thread/components/drivers/wlan/wlan_mgnt.c:775:5
	str	r0, [sp, #20]
	b	.LBB9_13
.LBB9_13:
	.loc	3 776 1 is_stmt 1               @ rt-thread/components/drivers/wlan/wlan_mgnt.c:776:1
	ldr	r0, [sp, #20]
	add	sp, #24
	pop	{r7, pc}
.Ltmp280:
.Lfunc_end9:
	.size	rt_wlan_complete_create, .Lfunc_end9-rt_wlan_complete_create
	.cfi_endproc
	.cantunwind
	.fnend
                                        @ -- End function
	.section	.text.rt_wlan_connect_adv,"ax",%progbits
	.hidden	rt_wlan_connect_adv             @ -- Begin function rt_wlan_connect_adv
	.globl	rt_wlan_connect_adv
	.p2align	3
	.type	rt_wlan_connect_adv,%function
	.code	16                              @ @rt_wlan_connect_adv
	.thumb_func
rt_wlan_connect_adv:
.Lfunc_begin10:
	.loc	3 1134 0                        @ rt-thread/components/drivers/wlan/wlan_mgnt.c:1134:0
	.fnstart
	.cfi_startproc
@ %bb.0:
	.save	{r4, r5, r7, lr}
	push	{r4, r5, r7, lr}
	.cfi_def_cfa_offset 16
	.cfi_offset lr, -4
	.cfi_offset r7, -8
	.cfi_offset r5, -12
	.cfi_offset r4, -16
	.pad	#48
	sub	sp, #48
	.cfi_def_cfa_offset 64
	str	r0, [sp, #40]
	str	r1, [sp, #36]
	movs	r0, #0
.Ltmp281:
	.loc	3 1135 9 prologue_end           @ rt-thread/components/drivers/wlan/wlan_mgnt.c:1135:9
	str	r0, [sp, #32]
	.loc	3 1136 14                       @ rt-thread/components/drivers/wlan/wlan_mgnt.c:1136:14
	str	r0, [sp, #28]
.Ltmp282:
	.loc	3 1138 9                        @ rt-thread/components/drivers/wlan/wlan_mgnt.c:1138:9
	bl	_sta_is_null
.Ltmp283:
	.loc	3 1138 9 is_stmt 0              @ rt-thread/components/drivers/wlan/wlan_mgnt.c:1138:9
	cbz	r0, .LBB10_2
	b	.LBB10_1
.LBB10_1:
	.loc	3 0 9                           @ rt-thread/components/drivers/wlan/wlan_mgnt.c:0:9
	mvn	r0, #7
.Ltmp284:
	.loc	3 1140 9 is_stmt 1              @ rt-thread/components/drivers/wlan/wlan_mgnt.c:1140:9
	str	r0, [sp, #44]
	b	.LBB10_32
.Ltmp285:
.LBB10_2:
	.loc	3 1142 9                        @ rt-thread/components/drivers/wlan/wlan_mgnt.c:1142:9
	ldr	r0, [sp, #40]
.Ltmp286:
	.loc	3 1142 9 is_stmt 0              @ rt-thread/components/drivers/wlan/wlan_mgnt.c:1142:9
	cbnz	r0, .LBB10_6
	b	.LBB10_3
.LBB10_3:
.Ltmp287:
	.loc	3 1144 9 is_stmt 1              @ rt-thread/components/drivers/wlan/wlan_mgnt.c:1144:9
	b	.LBB10_4
.LBB10_4:
.Ltmp288:
	.loc	3 1144 9 is_stmt 0              @ rt-thread/components/drivers/wlan/wlan_mgnt.c:1144:9
	movw	r0, :lower16:.L.str
	movt	r0, :upper16:.L.str
	bl	rt_kprintf
	movw	r0, :lower16:.L.str.19
	movt	r0, :upper16:.L.str.19
	movw	r1, :lower16:.L__FUNCTION__.rt_wlan_connect_adv
	movt	r1, :upper16:.L__FUNCTION__.rt_wlan_connect_adv
	mov.w	r2, #1144
	bl	rt_kprintf
	movw	r0, :lower16:.L.str.2
	movt	r0, :upper16:.L.str.2
	bl	rt_kprintf
	b	.LBB10_5
.Ltmp289:
.LBB10_5:
	.loc	3 0 9                           @ rt-thread/components/drivers/wlan/wlan_mgnt.c:0:9
	mvn	r0, #9
	.loc	3 1145 9 is_stmt 1              @ rt-thread/components/drivers/wlan/wlan_mgnt.c:1145:9
	str	r0, [sp, #44]
	b	.LBB10_32
.Ltmp290:
.LBB10_6:
	.loc	3 1149 9                        @ rt-thread/components/drivers/wlan/wlan_mgnt.c:1149:9
	ldr	r0, [sp, #36]
.Ltmp291:
	.loc	3 1149 9 is_stmt 0              @ rt-thread/components/drivers/wlan/wlan_mgnt.c:1149:9
	cbz	r0, .LBB10_12
	b	.LBB10_7
.LBB10_7:
.Ltmp292:
	.loc	3 1151 34 is_stmt 1             @ rt-thread/components/drivers/wlan/wlan_mgnt.c:1151:34
	ldr	r0, [sp, #36]
	.loc	3 1151 24 is_stmt 0             @ rt-thread/components/drivers/wlan/wlan_mgnt.c:1151:24
	bl	rt_strlen
	.loc	3 1151 22                       @ rt-thread/components/drivers/wlan/wlan_mgnt.c:1151:22
	str	r0, [sp, #32]
.Ltmp293:
	.loc	3 1152 13 is_stmt 1             @ rt-thread/components/drivers/wlan/wlan_mgnt.c:1152:13
	ldr	r0, [sp, #32]
.Ltmp294:
	.loc	3 1152 13 is_stmt 0             @ rt-thread/components/drivers/wlan/wlan_mgnt.c:1152:13
	cmp	r0, #33
	blt	.LBB10_11
	b	.LBB10_8
.LBB10_8:
.Ltmp295:
	.loc	3 1154 13 is_stmt 1             @ rt-thread/components/drivers/wlan/wlan_mgnt.c:1154:13
	b	.LBB10_9
.LBB10_9:
.Ltmp296:
	.loc	3 1154 13 is_stmt 0             @ rt-thread/components/drivers/wlan/wlan_mgnt.c:1154:13
	movw	r0, :lower16:.L.str
	movt	r0, :upper16:.L.str
	bl	rt_kprintf
	ldr	r3, [sp, #36]
	ldr	r0, [sp, #32]
	mov	r1, sp
	str	r0, [r1]
	movw	r0, :lower16:.L.str.20
	movt	r0, :upper16:.L.str.20
	movw	r1, :lower16:.L__FUNCTION__.rt_wlan_connect_adv
	movt	r1, :upper16:.L__FUNCTION__.rt_wlan_connect_adv
	movw	r2, #1154
	bl	rt_kprintf
	movw	r0, :lower16:.L.str.2
	movt	r0, :upper16:.L.str.2
	bl	rt_kprintf
	b	.LBB10_10
.Ltmp297:
.LBB10_10:
	.loc	3 0 13                          @ rt-thread/components/drivers/wlan/wlan_mgnt.c:0:13
	mvn	r0, #9
	.loc	3 1155 13 is_stmt 1             @ rt-thread/components/drivers/wlan/wlan_mgnt.c:1155:13
	str	r0, [sp, #44]
	b	.LBB10_32
.Ltmp298:
.LBB10_11:
	.loc	3 1157 5                        @ rt-thread/components/drivers/wlan/wlan_mgnt.c:1157:5
	b	.LBB10_12
.Ltmp299:
.LBB10_12:
	.loc	3 1158 9                        @ rt-thread/components/drivers/wlan/wlan_mgnt.c:1158:9
	ldr	r0, [sp, #40]
	.loc	3 1158 20 is_stmt 0             @ rt-thread/components/drivers/wlan/wlan_mgnt.c:1158:20
	ldrb	r0, [r0, #16]
	.loc	3 1158 29                       @ rt-thread/components/drivers/wlan/wlan_mgnt.c:1158:29
	cbz	r0, .LBB10_14
	b	.LBB10_13
.LBB10_13:
	.loc	3 1158 32                       @ rt-thread/components/drivers/wlan/wlan_mgnt.c:1158:32
	ldr	r0, [sp, #40]
	.loc	3 1158 43                       @ rt-thread/components/drivers/wlan/wlan_mgnt.c:1158:43
	ldrb	r0, [r0, #16]
.Ltmp300:
	.loc	3 1158 9                        @ rt-thread/components/drivers/wlan/wlan_mgnt.c:1158:9
	cmp	r0, #33
	blt	.LBB10_17
	b	.LBB10_14
.LBB10_14:
.Ltmp301:
	.loc	3 1160 9 is_stmt 1              @ rt-thread/components/drivers/wlan/wlan_mgnt.c:1160:9
	b	.LBB10_15
.LBB10_15:
.Ltmp302:
	.loc	3 1160 9 is_stmt 0              @ rt-thread/components/drivers/wlan/wlan_mgnt.c:1160:9
	movw	r0, :lower16:.L.str
	movt	r0, :upper16:.L.str
	bl	rt_kprintf
	ldr	r0, [sp, #40]
	add.w	r3, r0, #17
	ldrb	r0, [r0, #16]
	mov	r1, sp
	str	r0, [r1]
	movw	r0, :lower16:.L.str.21
	movt	r0, :upper16:.L.str.21
	movw	r1, :lower16:.L__FUNCTION__.rt_wlan_connect_adv
	movt	r1, :upper16:.L__FUNCTION__.rt_wlan_connect_adv
	mov.w	r2, #1160
	bl	rt_kprintf
	movw	r0, :lower16:.L.str.2
	movt	r0, :upper16:.L.str.2
	bl	rt_kprintf
	b	.LBB10_16
.Ltmp303:
.LBB10_16:
	.loc	3 0 9                           @ rt-thread/components/drivers/wlan/wlan_mgnt.c:0:9
	mvn	r0, #9
	.loc	3 1161 9 is_stmt 1              @ rt-thread/components/drivers/wlan/wlan_mgnt.c:1161:9
	str	r0, [sp, #44]
	b	.LBB10_32
.Ltmp304:
.LBB10_17:
	.loc	3 1164 5                        @ rt-thread/components/drivers/wlan/wlan_mgnt.c:1164:5
	movw	r0, :lower16:mgnt_mutex
	movt	r0, :upper16:mgnt_mutex
	mov.w	r1, #-1
	bl	rt_mutex_take
.Ltmp305:
	.loc	3 1165 9                        @ rt-thread/components/drivers/wlan/wlan_mgnt.c:1165:9
	bl	rt_wlan_is_connected
.Ltmp306:
	.loc	3 1165 9 is_stmt 0              @ rt-thread/components/drivers/wlan/wlan_mgnt.c:1165:9
	cmp	r0, #0
	beq	.LBB10_29
	b	.LBB10_18
.LBB10_18:
.Ltmp307:
	.loc	3 1167 34 is_stmt 1             @ rt-thread/components/drivers/wlan/wlan_mgnt.c:1167:34
	movw	r0, :lower16:_sta_mgnt
	movt	r0, :upper16:_sta_mgnt
	ldrb	r0, [r0, #20]
	.loc	3 1167 41 is_stmt 0             @ rt-thread/components/drivers/wlan/wlan_mgnt.c:1167:41
	ldr	r1, [sp, #40]
	.loc	3 1167 52                       @ rt-thread/components/drivers/wlan/wlan_mgnt.c:1167:52
	ldrb	r1, [r1, #16]
	.loc	3 1167 57                       @ rt-thread/components/drivers/wlan/wlan_mgnt.c:1167:57
	cmp	r0, r1
	bne	.LBB10_26
	b	.LBB10_19
.LBB10_19:
	.loc	3 1168 32 is_stmt 1             @ rt-thread/components/drivers/wlan/wlan_mgnt.c:1168:32
	movw	r0, :lower16:_sta_mgnt
	movt	r0, :upper16:_sta_mgnt
	ldrb.w	r0, [r0, #64]
	.loc	3 1168 39 is_stmt 0             @ rt-thread/components/drivers/wlan/wlan_mgnt.c:1168:39
	ldr	r1, [sp, #32]
	.loc	3 1168 53                       @ rt-thread/components/drivers/wlan/wlan_mgnt.c:1168:53
	cmp	r0, r1
	bne	.LBB10_26
	b	.LBB10_20
.LBB10_20:
	.loc	3 1169 58 is_stmt 1             @ rt-thread/components/drivers/wlan/wlan_mgnt.c:1169:58
	ldr	r0, [sp, #40]
	.loc	3 1169 69 is_stmt 0             @ rt-thread/components/drivers/wlan/wlan_mgnt.c:1169:69
	add.w	r1, r0, #17
	.loc	3 1169 88                       @ rt-thread/components/drivers/wlan/wlan_mgnt.c:1169:88
	ldrb	r2, [r0, #16]
	.loc	3 1169 18                       @ rt-thread/components/drivers/wlan/wlan_mgnt.c:1169:18
	movw	r0, :lower16:_sta_mgnt
	movt	r0, :upper16:_sta_mgnt
	adds	r0, #21
	bl	rt_memcmp
	.loc	3 1169 99                       @ rt-thread/components/drivers/wlan/wlan_mgnt.c:1169:99
	cbnz	r0, .LBB10_26
	b	.LBB10_21
.LBB10_21:
	.loc	3 1170 55 is_stmt 1             @ rt-thread/components/drivers/wlan/wlan_mgnt.c:1170:55
	ldr	r0, [sp, #40]
	.loc	3 1170 61 is_stmt 0             @ rt-thread/components/drivers/wlan/wlan_mgnt.c:1170:61
	add.w	r1, r0, #50
	.loc	3 1170 18                       @ rt-thread/components/drivers/wlan/wlan_mgnt.c:1170:18
	movw	r0, :lower16:_sta_mgnt
	movt	r0, :upper16:_sta_mgnt
	adds	r0, #54
	movs	r2, #6
	bl	rt_memcmp
	.loc	3 1170 103                      @ rt-thread/components/drivers/wlan/wlan_mgnt.c:1170:103
	cbnz	r0, .LBB10_26
	b	.LBB10_22
.LBB10_22:
	.loc	3 1171 51 is_stmt 1             @ rt-thread/components/drivers/wlan/wlan_mgnt.c:1171:51
	ldr	r1, [sp, #36]
	.loc	3 1171 61 is_stmt 0             @ rt-thread/components/drivers/wlan/wlan_mgnt.c:1171:61
	ldr	r2, [sp, #32]
	.loc	3 1171 18                       @ rt-thread/components/drivers/wlan/wlan_mgnt.c:1171:18
	movw	r0, :lower16:_sta_mgnt
	movt	r0, :upper16:_sta_mgnt
	adds	r0, #65
	bl	rt_memcmp
.Ltmp308:
	.loc	3 1167 13 is_stmt 1             @ rt-thread/components/drivers/wlan/wlan_mgnt.c:1167:13
	cbnz	r0, .LBB10_26
	b	.LBB10_23
.LBB10_23:
.Ltmp309:
	.loc	3 1173 13                       @ rt-thread/components/drivers/wlan/wlan_mgnt.c:1173:13
	b	.LBB10_24
.LBB10_24:
.Ltmp310:
	.loc	3 1173 13 is_stmt 0             @ rt-thread/components/drivers/wlan/wlan_mgnt.c:1173:13
	movw	r0, :lower16:.L.str.4
	movt	r0, :upper16:.L.str.4
	bl	rt_kprintf
	movw	r0, :lower16:.L.str.22
	movt	r0, :upper16:.L.str.22
	bl	rt_kprintf
	movw	r0, :lower16:.L.str.2
	movt	r0, :upper16:.L.str.2
	bl	rt_kprintf
	b	.LBB10_25
.Ltmp311:
.LBB10_25:
	.loc	3 1174 13 is_stmt 1             @ rt-thread/components/drivers/wlan/wlan_mgnt.c:1174:13
	movw	r0, :lower16:mgnt_mutex
	movt	r0, :upper16:mgnt_mutex
	bl	rt_mutex_release
	movs	r0, #0
	.loc	3 1175 13                       @ rt-thread/components/drivers/wlan/wlan_mgnt.c:1175:13
	str	r0, [sp, #44]
	b	.LBB10_32
.Ltmp312:
.LBB10_26:
	.loc	3 1178 15                       @ rt-thread/components/drivers/wlan/wlan_mgnt.c:1178:15
	bl	rt_wlan_disconnect
	.loc	3 1178 13 is_stmt 0             @ rt-thread/components/drivers/wlan/wlan_mgnt.c:1178:13
	str	r0, [sp, #28]
.Ltmp313:
	.loc	3 1179 13 is_stmt 1             @ rt-thread/components/drivers/wlan/wlan_mgnt.c:1179:13
	ldr	r0, [sp, #28]
.Ltmp314:
	.loc	3 1179 13 is_stmt 0             @ rt-thread/components/drivers/wlan/wlan_mgnt.c:1179:13
	cbz	r0, .LBB10_28
	b	.LBB10_27
.LBB10_27:
.Ltmp315:
	.loc	3 1181 13 is_stmt 1             @ rt-thread/components/drivers/wlan/wlan_mgnt.c:1181:13
	movw	r0, :lower16:mgnt_mutex
	movt	r0, :upper16:mgnt_mutex
	bl	rt_mutex_release
	.loc	3 1182 20                       @ rt-thread/components/drivers/wlan/wlan_mgnt.c:1182:20
	ldr	r0, [sp, #28]
	.loc	3 1182 13 is_stmt 0             @ rt-thread/components/drivers/wlan/wlan_mgnt.c:1182:13
	str	r0, [sp, #44]
	b	.LBB10_32
.Ltmp316:
.LBB10_28:
	.loc	3 1184 5 is_stmt 1              @ rt-thread/components/drivers/wlan/wlan_mgnt.c:1184:5
	b	.LBB10_29
.Ltmp317:
.LBB10_29:
	.loc	3 1187 5                        @ rt-thread/components/drivers/wlan/wlan_mgnt.c:1187:5
	bl	rt_enter_critical
	.loc	3 1188 23                       @ rt-thread/components/drivers/wlan/wlan_mgnt.c:1188:23
	ldr	r3, [sp, #40]
	.loc	3 1188 22 is_stmt 0             @ rt-thread/components/drivers/wlan/wlan_mgnt.c:1188:22
	str	r3, [sp, #16]                   @ 4-byte Spill
	ldr	r1, [r3]
	ldr	r2, [r3, #4]
	ldr.w	r12, [r3, #8]
	ldr.w	lr, [r3, #12]
	ldr	r4, [r3, #16]
	ldr	r5, [r3, #20]
	movw	r0, :lower16:_sta_mgnt
	movt	r0, :upper16:_sta_mgnt
	str	r0, [sp, #24]                   @ 4-byte Spill
	str	r5, [r0, #24]
	str	r4, [r0, #20]
	str.w	lr, [r0, #16]
	str.w	r12, [r0, #12]
	str	r2, [r0, #8]
	str	r1, [r0, #4]
	ldr	r1, [r3, #24]
	ldr	r2, [r3, #28]
	ldr.w	r12, [r3, #32]
	ldr.w	lr, [r3, #36]
	ldr	r4, [r3, #40]
	ldr	r5, [r3, #44]
	str	r5, [r0, #48]
	str	r4, [r0, #44]
	str.w	lr, [r0, #40]
	str.w	r12, [r0, #36]
	str	r2, [r0, #32]
	str	r1, [r0, #28]
	ldr	r1, [r3, #48]
	ldr	r2, [r3, #52]
	ldr	r3, [r3, #56]
	str	r3, [r0, #60]
	str	r2, [r0, #56]
	str	r1, [r0, #52]
	.loc	3 1189 35 is_stmt 1             @ rt-thread/components/drivers/wlan/wlan_mgnt.c:1189:35
	ldr	r1, [sp, #36]
	.loc	3 1189 45 is_stmt 0             @ rt-thread/components/drivers/wlan/wlan_mgnt.c:1189:45
	ldr	r2, [sp, #32]
	.loc	3 1189 5                        @ rt-thread/components/drivers/wlan/wlan_mgnt.c:1189:5
	adds	r0, #65
	str	r0, [sp, #20]                   @ 4-byte Spill
	bl	rt_memcpy
	ldr	r1, [sp, #20]                   @ 4-byte Reload
	ldr	r2, [sp, #24]                   @ 4-byte Reload
	.loc	3 1190 25 is_stmt 1             @ rt-thread/components/drivers/wlan/wlan_mgnt.c:1190:25
	ldr	r0, [sp, #32]
	.loc	3 1190 23 is_stmt 0             @ rt-thread/components/drivers/wlan/wlan_mgnt.c:1190:23
	strb.w	r0, [r2, #64]
	.loc	3 1191 23 is_stmt 1             @ rt-thread/components/drivers/wlan/wlan_mgnt.c:1191:23
	ldr	r2, [sp, #32]
	movs	r0, #0
	.loc	3 1191 37 is_stmt 0             @ rt-thread/components/drivers/wlan/wlan_mgnt.c:1191:37
	strb	r0, [r1, r2]
	.loc	3 1192 5 is_stmt 1              @ rt-thread/components/drivers/wlan/wlan_mgnt.c:1192:5
	bl	rt_exit_critical
	ldr	r0, [sp, #24]                   @ 4-byte Reload
	.loc	3 1194 21                       @ rt-thread/components/drivers/wlan/wlan_mgnt.c:1194:21
	ldrb.w	r1, [r0, #98]
	orr	r1, r1, #2
	strb.w	r1, [r0, #98]
	.loc	3 1195 41                       @ rt-thread/components/drivers/wlan/wlan_mgnt.c:1195:41
	ldr	r0, [r0]
	.loc	3 1195 49 is_stmt 0             @ rt-thread/components/drivers/wlan/wlan_mgnt.c:1195:49
	ldr	r1, [sp, #40]
	.loc	3 1195 55                       @ rt-thread/components/drivers/wlan/wlan_mgnt.c:1195:55
	ldr	r2, [sp, #36]
	.loc	3 1195 65                       @ rt-thread/components/drivers/wlan/wlan_mgnt.c:1195:65
	ldr	r3, [sp, #32]
	.loc	3 1195 11                       @ rt-thread/components/drivers/wlan/wlan_mgnt.c:1195:11
	bl	rt_wlan_dev_connect
	.loc	3 1195 9                        @ rt-thread/components/drivers/wlan/wlan_mgnt.c:1195:9
	str	r0, [sp, #28]
.Ltmp318:
	.loc	3 1196 9 is_stmt 1              @ rt-thread/components/drivers/wlan/wlan_mgnt.c:1196:9
	ldr	r0, [sp, #28]
.Ltmp319:
	.loc	3 1196 9 is_stmt 0              @ rt-thread/components/drivers/wlan/wlan_mgnt.c:1196:9
	cbz	r0, .LBB10_31
	b	.LBB10_30
.LBB10_30:
.Ltmp320:
	.loc	3 1198 9 is_stmt 1              @ rt-thread/components/drivers/wlan/wlan_mgnt.c:1198:9
	bl	rt_enter_critical
	.loc	3 1199 9                        @ rt-thread/components/drivers/wlan/wlan_mgnt.c:1199:9
	movw	r0, :lower16:_sta_mgnt
	movt	r0, :upper16:_sta_mgnt
	str	r0, [sp, #12]                   @ 4-byte Spill
	adds	r0, #4
	movs	r1, #0
	str	r1, [sp, #4]                    @ 4-byte Spill
	movs	r2, #34
	str	r2, [sp, #8]                    @ 4-byte Spill
	bl	rt_memset
	ldr	r1, [sp, #4]                    @ 4-byte Reload
	ldr	r2, [sp, #8]                    @ 4-byte Reload
                                        @ kill: def $r3 killed $r0
	.loc	3 1200 9                        @ rt-thread/components/drivers/wlan/wlan_mgnt.c:1200:9
	ldr	r0, [sp, #12]                   @ 4-byte Reload
	adds	r0, #64
	bl	rt_memset
	.loc	3 1201 9                        @ rt-thread/components/drivers/wlan/wlan_mgnt.c:1201:9
	bl	rt_exit_critical
	ldr	r1, [sp, #12]                   @ 4-byte Reload
	.loc	3 1202 25                       @ rt-thread/components/drivers/wlan/wlan_mgnt.c:1202:25
	ldrb.w	r0, [r1, #98]
	and	r0, r0, #253
	strb.w	r0, [r1, #98]
	.loc	3 1203 9                        @ rt-thread/components/drivers/wlan/wlan_mgnt.c:1203:9
	movw	r0, :lower16:mgnt_mutex
	movt	r0, :upper16:mgnt_mutex
	bl	rt_mutex_release
	.loc	3 1204 16                       @ rt-thread/components/drivers/wlan/wlan_mgnt.c:1204:16
	ldr	r0, [sp, #28]
	.loc	3 1204 9 is_stmt 0              @ rt-thread/components/drivers/wlan/wlan_mgnt.c:1204:9
	str	r0, [sp, #44]
	b	.LBB10_32
.Ltmp321:
.LBB10_31:
	.loc	3 1207 5 is_stmt 1              @ rt-thread/components/drivers/wlan/wlan_mgnt.c:1207:5
	movw	r0, :lower16:mgnt_mutex
	movt	r0, :upper16:mgnt_mutex
	bl	rt_mutex_release
	.loc	3 1208 12                       @ rt-thread/components/drivers/wlan/wlan_mgnt.c:1208:12
	ldr	r0, [sp, #28]
	.loc	3 1208 5 is_stmt 0              @ rt-thread/components/drivers/wlan/wlan_mgnt.c:1208:5
	str	r0, [sp, #44]
	b	.LBB10_32
.LBB10_32:
	.loc	3 1209 1 is_stmt 1              @ rt-thread/components/drivers/wlan/wlan_mgnt.c:1209:1
	ldr	r0, [sp, #44]
	add	sp, #48
	pop	{r4, r5, r7, pc}
.Ltmp322:
.Lfunc_end10:
	.size	rt_wlan_connect_adv, .Lfunc_end10-rt_wlan_connect_adv
	.cfi_endproc
	.cantunwind
	.fnend
                                        @ -- End function
	.section	.text.rt_wlan_complete_delete,"ax",%progbits
	.p2align	3                               @ -- Begin function rt_wlan_complete_delete
	.type	rt_wlan_complete_delete,%function
	.code	16                              @ @rt_wlan_complete_delete
	.thumb_func
rt_wlan_complete_delete:
.Lfunc_begin11:
	.loc	3 800 0                         @ rt-thread/components/drivers/wlan/wlan_mgnt.c:800:0
	.fnstart
	.cfi_startproc
@ %bb.0:
	.save	{r7, lr}
	push	{r7, lr}
	.cfi_def_cfa_offset 8
	.cfi_offset lr, -4
	.cfi_offset r7, -8
	.pad	#8
	sub	sp, #8
	.cfi_def_cfa_offset 16
	str	r0, [sp, #4]
.Ltmp323:
	.loc	3 801 9 prologue_end            @ rt-thread/components/drivers/wlan/wlan_mgnt.c:801:9
	ldr	r0, [sp, #4]
.Ltmp324:
	.loc	3 801 9 is_stmt 0               @ rt-thread/components/drivers/wlan/wlan_mgnt.c:801:9
	cbnz	r0, .LBB11_2
	b	.LBB11_1
.LBB11_1:
.Ltmp325:
	.loc	3 803 9 is_stmt 1               @ rt-thread/components/drivers/wlan/wlan_mgnt.c:803:9
	b	.LBB11_3
.Ltmp326:
.LBB11_2:
	.loc	3 805 5                         @ rt-thread/components/drivers/wlan/wlan_mgnt.c:805:5
	movw	r0, :lower16:complete_mutex
	movt	r0, :upper16:complete_mutex
	str	r0, [sp]                        @ 4-byte Spill
	mov.w	r1, #-1
	bl	rt_mutex_take
                                        @ kill: def $r1 killed $r0
	.loc	3 806 18                        @ rt-thread/components/drivers/wlan/wlan_mgnt.c:806:18
	ldr	r0, [sp]                        @ 4-byte Reload
	ldr	r1, [sp, #4]
	.loc	3 806 28 is_stmt 0              @ rt-thread/components/drivers/wlan/wlan_mgnt.c:806:28
	ldr	r3, [r1, #36]
	.loc	3 806 5                         @ rt-thread/components/drivers/wlan/wlan_mgnt.c:806:5
	movw	r2, :lower16:complete_tab
	movt	r2, :upper16:complete_tab
	movs	r1, #0
	.loc	3 806 35                        @ rt-thread/components/drivers/wlan/wlan_mgnt.c:806:35
	str.w	r1, [r2, r3, lsl #2]
	.loc	3 807 5 is_stmt 1               @ rt-thread/components/drivers/wlan/wlan_mgnt.c:807:5
	bl	rt_mutex_release
	.loc	3 808 22                        @ rt-thread/components/drivers/wlan/wlan_mgnt.c:808:22
	ldr	r0, [sp, #4]
	.loc	3 808 5 is_stmt 0               @ rt-thread/components/drivers/wlan/wlan_mgnt.c:808:5
	bl	rt_event_detach
	.loc	3 809 13 is_stmt 1              @ rt-thread/components/drivers/wlan/wlan_mgnt.c:809:13
	ldr	r0, [sp, #4]
	.loc	3 809 5 is_stmt 0               @ rt-thread/components/drivers/wlan/wlan_mgnt.c:809:5
	bl	rt_free
	.loc	3 810 1 is_stmt 1               @ rt-thread/components/drivers/wlan/wlan_mgnt.c:810:1
	b	.LBB11_3
.LBB11_3:
	add	sp, #8
	pop	{r7, pc}
.Ltmp327:
.Lfunc_end11:
	.size	rt_wlan_complete_delete, .Lfunc_end11-rt_wlan_complete_delete
	.cfi_endproc
	.cantunwind
	.fnend
                                        @ -- End function
	.section	.text.rt_wlan_complete_wait,"ax",%progbits
	.p2align	3                               @ -- Begin function rt_wlan_complete_wait
	.type	rt_wlan_complete_wait,%function
	.code	16                              @ @rt_wlan_complete_wait
	.thumb_func
rt_wlan_complete_wait:
.Lfunc_begin12:
	.loc	3 780 0                         @ rt-thread/components/drivers/wlan/wlan_mgnt.c:780:0
	.fnstart
	.cfi_startproc
@ %bb.0:
	.save	{r7, lr}
	push	{r7, lr}
	.cfi_def_cfa_offset 8
	.cfi_offset lr, -4
	.cfi_offset r7, -8
	.pad	#32
	sub	sp, #32
	.cfi_def_cfa_offset 40
	str	r0, [sp, #24]
	str	r1, [sp, #20]
	str	r2, [sp, #16]
	str	r3, [sp, #12]
.Ltmp328:
	.loc	3 781 9 prologue_end            @ rt-thread/components/drivers/wlan/wlan_mgnt.c:781:9
	ldr	r0, [sp, #24]
.Ltmp329:
	.loc	3 781 9 is_stmt 0               @ rt-thread/components/drivers/wlan/wlan_mgnt.c:781:9
	cbnz	r0, .LBB12_2
	b	.LBB12_1
.LBB12_1:
	.loc	3 0 9                           @ rt-thread/components/drivers/wlan/wlan_mgnt.c:0:9
	mov.w	r0, #-1
.Ltmp330:
	.loc	3 783 9 is_stmt 1               @ rt-thread/components/drivers/wlan/wlan_mgnt.c:783:9
	str	r0, [sp, #28]
	b	.LBB12_5
.Ltmp331:
.LBB12_2:
	.loc	3 787 9                         @ rt-thread/components/drivers/wlan/wlan_mgnt.c:787:9
	ldr	r0, [sp, #24]
	.loc	3 787 19 is_stmt 0              @ rt-thread/components/drivers/wlan/wlan_mgnt.c:787:19
	ldr	r0, [r0, #32]
	.loc	3 787 32                        @ rt-thread/components/drivers/wlan/wlan_mgnt.c:787:32
	ldr	r1, [sp, #20]
.Ltmp332:
	.loc	3 787 9                         @ rt-thread/components/drivers/wlan/wlan_mgnt.c:787:9
	tst	r0, r1
	beq	.LBB12_4
	b	.LBB12_3
.LBB12_3:
.Ltmp333:
	.loc	3 789 19 is_stmt 1              @ rt-thread/components/drivers/wlan/wlan_mgnt.c:789:19
	ldr	r0, [sp, #24]
	.loc	3 789 29 is_stmt 0              @ rt-thread/components/drivers/wlan/wlan_mgnt.c:789:29
	ldr	r0, [r0, #32]
	.loc	3 789 10                        @ rt-thread/components/drivers/wlan/wlan_mgnt.c:789:10
	ldr	r1, [sp, #12]
	.loc	3 789 17                        @ rt-thread/components/drivers/wlan/wlan_mgnt.c:789:17
	str	r0, [r1]
	movs	r0, #0
	.loc	3 790 9 is_stmt 1               @ rt-thread/components/drivers/wlan/wlan_mgnt.c:790:9
	str	r0, [sp, #28]
	b	.LBB12_5
.Ltmp334:
.LBB12_4:
	.loc	3 794 31                        @ rt-thread/components/drivers/wlan/wlan_mgnt.c:794:31
	ldr	r0, [sp, #24]
	.loc	3 794 51 is_stmt 0              @ rt-thread/components/drivers/wlan/wlan_mgnt.c:794:51
	str	r0, [sp, #8]                    @ 4-byte Spill
	ldr	r0, [sp, #20]
	.loc	3 795 55 is_stmt 1              @ rt-thread/components/drivers/wlan/wlan_mgnt.c:795:55
	str	r0, [sp, #4]                    @ 4-byte Spill
	ldr	r0, [sp, #16]
	.loc	3 795 30 is_stmt 0              @ rt-thread/components/drivers/wlan/wlan_mgnt.c:795:30
	bl	rt_tick_from_millisecond
	ldr	r1, [sp, #4]                    @ 4-byte Reload
	mov	r3, r0
	.loc	3 795 65                        @ rt-thread/components/drivers/wlan/wlan_mgnt.c:795:65
	ldr	r0, [sp, #8]                    @ 4-byte Reload
	ldr	r2, [sp, #12]
	.loc	3 794 16 is_stmt 1              @ rt-thread/components/drivers/wlan/wlan_mgnt.c:794:16
	mov	r12, sp
	str.w	r2, [r12]
	movs	r2, #2
	bl	rt_event_recv
	.loc	3 794 9 is_stmt 0               @ rt-thread/components/drivers/wlan/wlan_mgnt.c:794:9
	str	r0, [sp, #28]
	b	.LBB12_5
.Ltmp335:
.LBB12_5:
	.loc	3 797 1 is_stmt 1               @ rt-thread/components/drivers/wlan/wlan_mgnt.c:797:1
	ldr	r0, [sp, #28]
	add	sp, #32
	pop	{r7, pc}
.Ltmp336:
.Lfunc_end12:
	.size	rt_wlan_complete_wait, .Lfunc_end12-rt_wlan_complete_wait
	.cfi_endproc
	.cantunwind
	.fnend
                                        @ -- End function
	.section	.text.rt_wlan_disconnect,"ax",%progbits
	.hidden	rt_wlan_disconnect              @ -- Begin function rt_wlan_disconnect
	.globl	rt_wlan_disconnect
	.p2align	3
	.type	rt_wlan_disconnect,%function
	.code	16                              @ @rt_wlan_disconnect
	.thumb_func
rt_wlan_disconnect:
.Lfunc_begin13:
	.loc	3 1212 0                        @ rt-thread/components/drivers/wlan/wlan_mgnt.c:1212:0
	.fnstart
	.cfi_startproc
@ %bb.0:
	.save	{r7, lr}
	push	{r7, lr}
	.cfi_def_cfa_offset 8
	.cfi_offset lr, -4
	.cfi_offset r7, -8
	.pad	#24
	sub	sp, #24
	.cfi_def_cfa_offset 32
	movs	r0, #0
.Ltmp337:
	.loc	3 1215 17 prologue_end          @ rt-thread/components/drivers/wlan/wlan_mgnt.c:1215:17
	str	r0, [sp, #8]
	.loc	3 1215 29 is_stmt 0             @ rt-thread/components/drivers/wlan/wlan_mgnt.c:1215:29
	str	r0, [sp, #4]
.Ltmp338:
	.loc	3 1218 9 is_stmt 1              @ rt-thread/components/drivers/wlan/wlan_mgnt.c:1218:9
	bl	_sta_is_null
.Ltmp339:
	.loc	3 1218 9 is_stmt 0              @ rt-thread/components/drivers/wlan/wlan_mgnt.c:1218:9
	cbz	r0, .LBB13_2
	b	.LBB13_1
.LBB13_1:
	.loc	3 0 9                           @ rt-thread/components/drivers/wlan/wlan_mgnt.c:0:9
	mvn	r0, #7
.Ltmp340:
	.loc	3 1220 9 is_stmt 1              @ rt-thread/components/drivers/wlan/wlan_mgnt.c:1220:9
	str	r0, [sp, #20]
	b	.LBB13_15
.Ltmp341:
.LBB13_2:
	.loc	3 1225 5                        @ rt-thread/components/drivers/wlan/wlan_mgnt.c:1225:5
	movw	r0, :lower16:mgnt_mutex
	movt	r0, :upper16:mgnt_mutex
	mov.w	r1, #-1
	bl	rt_mutex_take
	.loc	3 1227 16                       @ rt-thread/components/drivers/wlan/wlan_mgnt.c:1227:16
	movw	r0, :lower16:.L.str.23
	movt	r0, :upper16:.L.str.23
	bl	rt_wlan_complete_create
	.loc	3 1227 14 is_stmt 0             @ rt-thread/components/drivers/wlan/wlan_mgnt.c:1227:14
	str	r0, [sp, #12]
.Ltmp342:
	.loc	3 1228 9 is_stmt 1              @ rt-thread/components/drivers/wlan/wlan_mgnt.c:1228:9
	ldr	r0, [sp, #12]
.Ltmp343:
	.loc	3 1228 9 is_stmt 0              @ rt-thread/components/drivers/wlan/wlan_mgnt.c:1228:9
	cbnz	r0, .LBB13_4
	b	.LBB13_3
.LBB13_3:
.Ltmp344:
	.loc	3 1230 9 is_stmt 1              @ rt-thread/components/drivers/wlan/wlan_mgnt.c:1230:9
	movw	r0, :lower16:mgnt_mutex
	movt	r0, :upper16:mgnt_mutex
	bl	rt_mutex_release
	mvn	r0, #4
	.loc	3 1231 9                        @ rt-thread/components/drivers/wlan/wlan_mgnt.c:1231:9
	str	r0, [sp, #20]
	b	.LBB13_15
.Ltmp345:
.LBB13_4:
	.loc	3 1233 44                       @ rt-thread/components/drivers/wlan/wlan_mgnt.c:1233:44
	movw	r0, :lower16:_sta_mgnt
	movt	r0, :upper16:_sta_mgnt
	ldr	r0, [r0]
	.loc	3 1233 11 is_stmt 0             @ rt-thread/components/drivers/wlan/wlan_mgnt.c:1233:11
	bl	rt_wlan_dev_disconnect
	.loc	3 1233 9                        @ rt-thread/components/drivers/wlan/wlan_mgnt.c:1233:9
	str	r0, [sp, #16]
.Ltmp346:
	.loc	3 1234 9 is_stmt 1              @ rt-thread/components/drivers/wlan/wlan_mgnt.c:1234:9
	ldr	r0, [sp, #16]
.Ltmp347:
	.loc	3 1234 9 is_stmt 0              @ rt-thread/components/drivers/wlan/wlan_mgnt.c:1234:9
	cbz	r0, .LBB13_8
	b	.LBB13_5
.LBB13_5:
.Ltmp348:
	.loc	3 1236 9 is_stmt 1              @ rt-thread/components/drivers/wlan/wlan_mgnt.c:1236:9
	b	.LBB13_6
.LBB13_6:
.Ltmp349:
	.loc	3 1236 9 is_stmt 0              @ rt-thread/components/drivers/wlan/wlan_mgnt.c:1236:9
	movw	r0, :lower16:.L.str
	movt	r0, :upper16:.L.str
	bl	rt_kprintf
	movw	r0, :lower16:.L.str.24
	movt	r0, :upper16:.L.str.24
	movw	r1, :lower16:.L__FUNCTION__.rt_wlan_disconnect
	movt	r1, :upper16:.L__FUNCTION__.rt_wlan_disconnect
	movw	r2, #1236
	bl	rt_kprintf
	movw	r0, :lower16:.L.str.2
	movt	r0, :upper16:.L.str.2
	bl	rt_kprintf
	b	.LBB13_7
.Ltmp350:
.LBB13_7:
	.loc	3 1237 33 is_stmt 1             @ rt-thread/components/drivers/wlan/wlan_mgnt.c:1237:33
	ldr	r0, [sp, #12]
	.loc	3 1237 9 is_stmt 0              @ rt-thread/components/drivers/wlan/wlan_mgnt.c:1237:9
	bl	rt_wlan_complete_delete
	.loc	3 1238 9 is_stmt 1              @ rt-thread/components/drivers/wlan/wlan_mgnt.c:1238:9
	movw	r0, :lower16:mgnt_mutex
	movt	r0, :upper16:mgnt_mutex
	bl	rt_mutex_release
	.loc	3 1239 16                       @ rt-thread/components/drivers/wlan/wlan_mgnt.c:1239:16
	ldr	r0, [sp, #16]
	.loc	3 1239 9 is_stmt 0              @ rt-thread/components/drivers/wlan/wlan_mgnt.c:1239:9
	str	r0, [sp, #20]
	b	.LBB13_15
.Ltmp351:
.LBB13_8:
	.loc	3 1242 9 is_stmt 1              @ rt-thread/components/drivers/wlan/wlan_mgnt.c:1242:9
	ldr	r0, [sp, #4]
	orr	r0, r0, #8
	str	r0, [sp, #4]
	.loc	3 1244 27                       @ rt-thread/components/drivers/wlan/wlan_mgnt.c:1244:27
	ldr	r0, [sp, #12]
	.loc	3 1244 37 is_stmt 0             @ rt-thread/components/drivers/wlan/wlan_mgnt.c:1244:37
	ldr	r1, [sp, #4]
	movw	r2, #10000
	add	r3, sp, #8
	.loc	3 1244 5                        @ rt-thread/components/drivers/wlan/wlan_mgnt.c:1244:5
	bl	rt_wlan_complete_wait
	.loc	3 1245 29 is_stmt 1             @ rt-thread/components/drivers/wlan/wlan_mgnt.c:1245:29
	ldr	r0, [sp, #12]
	.loc	3 1245 5 is_stmt 0              @ rt-thread/components/drivers/wlan/wlan_mgnt.c:1245:5
	bl	rt_wlan_complete_delete
	movs	r0, #8
	.loc	3 1247 9 is_stmt 1              @ rt-thread/components/drivers/wlan/wlan_mgnt.c:1247:9
	str	r0, [sp, #4]
.Ltmp352:
	.loc	3 1248 11                       @ rt-thread/components/drivers/wlan/wlan_mgnt.c:1248:11
	ldr	r0, [sp, #8]
	.loc	3 1248 20 is_stmt 0             @ rt-thread/components/drivers/wlan/wlan_mgnt.c:1248:20
	ldr	r1, [sp, #4]
.Ltmp353:
	.loc	3 1248 9                        @ rt-thread/components/drivers/wlan/wlan_mgnt.c:1248:9
	tst	r0, r1
	bne	.LBB13_12
	b	.LBB13_9
.LBB13_9:
.Ltmp354:
	.loc	3 1250 9 is_stmt 1              @ rt-thread/components/drivers/wlan/wlan_mgnt.c:1250:9
	b	.LBB13_10
.LBB13_10:
.Ltmp355:
	.loc	3 1250 9 is_stmt 0              @ rt-thread/components/drivers/wlan/wlan_mgnt.c:1250:9
	movw	r0, :lower16:.L.str
	movt	r0, :upper16:.L.str
	bl	rt_kprintf
	movw	r0, :lower16:.L.str.25
	movt	r0, :upper16:.L.str.25
	movw	r1, :lower16:.L__FUNCTION__.rt_wlan_disconnect
	movt	r1, :upper16:.L__FUNCTION__.rt_wlan_disconnect
	movw	r2, #1250
	bl	rt_kprintf
	movw	r0, :lower16:.L.str.2
	movt	r0, :upper16:.L.str.2
	bl	rt_kprintf
	b	.LBB13_11
.Ltmp356:
.LBB13_11:
	.loc	3 1251 9 is_stmt 1              @ rt-thread/components/drivers/wlan/wlan_mgnt.c:1251:9
	movw	r0, :lower16:mgnt_mutex
	movt	r0, :upper16:mgnt_mutex
	bl	rt_mutex_release
	mov.w	r0, #-1
	.loc	3 1252 9                        @ rt-thread/components/drivers/wlan/wlan_mgnt.c:1252:9
	str	r0, [sp, #20]
	b	.LBB13_15
.Ltmp357:
.LBB13_12:
	.loc	3 1254 5                        @ rt-thread/components/drivers/wlan/wlan_mgnt.c:1254:5
	b	.LBB13_13
.LBB13_13:
.Ltmp358:
	.loc	3 1254 5 is_stmt 0              @ rt-thread/components/drivers/wlan/wlan_mgnt.c:1254:5
	movw	r0, :lower16:.L.str.4
	movt	r0, :upper16:.L.str.4
	bl	rt_kprintf
	movw	r0, :lower16:.L.str.26
	movt	r0, :upper16:.L.str.26
	bl	rt_kprintf
	movw	r0, :lower16:.L.str.2
	movt	r0, :upper16:.L.str.2
	bl	rt_kprintf
	b	.LBB13_14
.Ltmp359:
.LBB13_14:
	.loc	3 1255 5 is_stmt 1              @ rt-thread/components/drivers/wlan/wlan_mgnt.c:1255:5
	movw	r0, :lower16:mgnt_mutex
	movt	r0, :upper16:mgnt_mutex
	bl	rt_mutex_release
	.loc	3 1256 12                       @ rt-thread/components/drivers/wlan/wlan_mgnt.c:1256:12
	ldr	r0, [sp, #16]
	.loc	3 1256 5 is_stmt 0              @ rt-thread/components/drivers/wlan/wlan_mgnt.c:1256:5
	str	r0, [sp, #20]
	b	.LBB13_15
.LBB13_15:
	.loc	3 1257 1 is_stmt 1              @ rt-thread/components/drivers/wlan/wlan_mgnt.c:1257:1
	ldr	r0, [sp, #20]
	add	sp, #24
	pop	{r7, pc}
.Ltmp360:
.Lfunc_end13:
	.size	rt_wlan_disconnect, .Lfunc_end13-rt_wlan_disconnect
	.cfi_endproc
	.cantunwind
	.fnend
                                        @ -- End function
	.section	.text.rt_wlan_is_ready,"ax",%progbits
	.hidden	rt_wlan_is_ready                @ -- Begin function rt_wlan_is_ready
	.globl	rt_wlan_is_ready
	.p2align	3
	.type	rt_wlan_is_ready,%function
	.code	16                              @ @rt_wlan_is_ready
	.thumb_func
rt_wlan_is_ready:
.Lfunc_begin14:
	.loc	3 1273 0                        @ rt-thread/components/drivers/wlan/wlan_mgnt.c:1273:0
	.fnstart
	.cfi_startproc
@ %bb.0:
	.save	{r7, lr}
	push	{r7, lr}
	.cfi_def_cfa_offset 8
	.cfi_offset lr, -4
	.cfi_offset r7, -8
	.pad	#8
	sub	sp, #8
	.cfi_def_cfa_offset 16
.Ltmp361:
	.loc	3 1276 9 prologue_end           @ rt-thread/components/drivers/wlan/wlan_mgnt.c:1276:9
	bl	_sta_is_null
.Ltmp362:
	.loc	3 1276 9 is_stmt 0              @ rt-thread/components/drivers/wlan/wlan_mgnt.c:1276:9
	cbz	r0, .LBB14_2
	b	.LBB14_1
.LBB14_1:
	.loc	3 0 9                           @ rt-thread/components/drivers/wlan/wlan_mgnt.c:0:9
	movs	r0, #0
.Ltmp363:
	.loc	3 1278 9 is_stmt 1              @ rt-thread/components/drivers/wlan/wlan_mgnt.c:1278:9
	str	r0, [sp, #4]
	b	.LBB14_3
.Ltmp364:
.LBB14_2:
	.loc	3 1280 24                       @ rt-thread/components/drivers/wlan/wlan_mgnt.c:1280:24
	movw	r0, :lower16:_sta_mgnt
	movt	r0, :upper16:_sta_mgnt
	.loc	3 1280 14 is_stmt 0             @ rt-thread/components/drivers/wlan/wlan_mgnt.c:1280:14
	ldrb.w	r0, [r0, #98]
	ubfx	r0, r0, #2, #1
	.loc	3 1280 12                       @ rt-thread/components/drivers/wlan/wlan_mgnt.c:1280:12
	str	r0, [sp]
	.loc	3 1282 12 is_stmt 1             @ rt-thread/components/drivers/wlan/wlan_mgnt.c:1282:12
	ldr	r0, [sp]
	.loc	3 1282 5 is_stmt 0              @ rt-thread/components/drivers/wlan/wlan_mgnt.c:1282:5
	str	r0, [sp, #4]
	b	.LBB14_3
.LBB14_3:
	.loc	3 1283 1 is_stmt 1              @ rt-thread/components/drivers/wlan/wlan_mgnt.c:1283:1
	ldr	r0, [sp, #4]
	add	sp, #8
	pop	{r7, pc}
.Ltmp365:
.Lfunc_end14:
	.size	rt_wlan_is_ready, .Lfunc_end14-rt_wlan_is_ready
	.cfi_endproc
	.cantunwind
	.fnend
                                        @ -- End function
	.section	.text.rt_wlan_set_mac,"ax",%progbits
	.hidden	rt_wlan_set_mac                 @ -- Begin function rt_wlan_set_mac
	.globl	rt_wlan_set_mac
	.p2align	3
	.type	rt_wlan_set_mac,%function
	.code	16                              @ @rt_wlan_set_mac
	.thumb_func
rt_wlan_set_mac:
.Lfunc_begin15:
	.loc	3 1286 0                        @ rt-thread/components/drivers/wlan/wlan_mgnt.c:1286:0
	.fnstart
	.cfi_startproc
@ %bb.0:
	.save	{r7, lr}
	push	{r7, lr}
	.cfi_def_cfa_offset 8
	.cfi_offset lr, -4
	.cfi_offset r7, -8
	.pad	#16
	sub	sp, #16
	.cfi_def_cfa_offset 24
	str	r0, [sp, #8]
	movs	r0, #0
.Ltmp366:
	.loc	3 1287 14 prologue_end          @ rt-thread/components/drivers/wlan/wlan_mgnt.c:1287:14
	str	r0, [sp, #4]
.Ltmp367:
	.loc	3 1289 9                        @ rt-thread/components/drivers/wlan/wlan_mgnt.c:1289:9
	bl	_sta_is_null
.Ltmp368:
	.loc	3 1289 9 is_stmt 0              @ rt-thread/components/drivers/wlan/wlan_mgnt.c:1289:9
	cbz	r0, .LBB15_2
	b	.LBB15_1
.LBB15_1:
	.loc	3 0 9                           @ rt-thread/components/drivers/wlan/wlan_mgnt.c:0:9
	mvn	r0, #7
.Ltmp369:
	.loc	3 1291 9 is_stmt 1              @ rt-thread/components/drivers/wlan/wlan_mgnt.c:1291:9
	str	r0, [sp, #12]
	b	.LBB15_7
.Ltmp370:
.LBB15_2:
	.loc	3 1296 5                        @ rt-thread/components/drivers/wlan/wlan_mgnt.c:1296:5
	movw	r0, :lower16:mgnt_mutex
	movt	r0, :upper16:mgnt_mutex
	mov.w	r1, #-1
	bl	rt_mutex_take
	.loc	3 1297 31                       @ rt-thread/components/drivers/wlan/wlan_mgnt.c:1297:31
	movw	r0, :lower16:_sta_mgnt
	movt	r0, :upper16:_sta_mgnt
	ldr	r0, [r0]
	.loc	3 1297 45 is_stmt 0             @ rt-thread/components/drivers/wlan/wlan_mgnt.c:1297:45
	ldr	r1, [sp, #8]
	.loc	3 1297 11                       @ rt-thread/components/drivers/wlan/wlan_mgnt.c:1297:11
	bl	rt_wlan_dev_set_mac
	.loc	3 1297 9                        @ rt-thread/components/drivers/wlan/wlan_mgnt.c:1297:9
	str	r0, [sp, #4]
.Ltmp371:
	.loc	3 1298 9 is_stmt 1              @ rt-thread/components/drivers/wlan/wlan_mgnt.c:1298:9
	ldr	r0, [sp, #4]
.Ltmp372:
	.loc	3 1298 9 is_stmt 0              @ rt-thread/components/drivers/wlan/wlan_mgnt.c:1298:9
	cbz	r0, .LBB15_6
	b	.LBB15_3
.LBB15_3:
.Ltmp373:
	.loc	3 1300 9 is_stmt 1              @ rt-thread/components/drivers/wlan/wlan_mgnt.c:1300:9
	b	.LBB15_4
.LBB15_4:
.Ltmp374:
	.loc	3 1300 9 is_stmt 0              @ rt-thread/components/drivers/wlan/wlan_mgnt.c:1300:9
	movw	r0, :lower16:.L.str
	movt	r0, :upper16:.L.str
	bl	rt_kprintf
	movw	r0, :lower16:.L.str.27
	movt	r0, :upper16:.L.str.27
	movw	r1, :lower16:.L__FUNCTION__.rt_wlan_set_mac
	movt	r1, :upper16:.L__FUNCTION__.rt_wlan_set_mac
	movw	r2, #1300
	bl	rt_kprintf
	movw	r0, :lower16:.L.str.2
	movt	r0, :upper16:.L.str.2
	bl	rt_kprintf
	b	.LBB15_5
.Ltmp375:
.LBB15_5:
	.loc	3 1301 9 is_stmt 1              @ rt-thread/components/drivers/wlan/wlan_mgnt.c:1301:9
	movw	r0, :lower16:mgnt_mutex
	movt	r0, :upper16:mgnt_mutex
	bl	rt_mutex_release
	.loc	3 1302 16                       @ rt-thread/components/drivers/wlan/wlan_mgnt.c:1302:16
	ldr	r0, [sp, #4]
	.loc	3 1302 9 is_stmt 0              @ rt-thread/components/drivers/wlan/wlan_mgnt.c:1302:9
	str	r0, [sp, #12]
	b	.LBB15_7
.Ltmp376:
.LBB15_6:
	.loc	3 1304 5 is_stmt 1              @ rt-thread/components/drivers/wlan/wlan_mgnt.c:1304:5
	movw	r0, :lower16:mgnt_mutex
	movt	r0, :upper16:mgnt_mutex
	bl	rt_mutex_release
	.loc	3 1305 12                       @ rt-thread/components/drivers/wlan/wlan_mgnt.c:1305:12
	ldr	r0, [sp, #4]
	.loc	3 1305 5 is_stmt 0              @ rt-thread/components/drivers/wlan/wlan_mgnt.c:1305:5
	str	r0, [sp, #12]
	b	.LBB15_7
.LBB15_7:
	.loc	3 1306 1 is_stmt 1              @ rt-thread/components/drivers/wlan/wlan_mgnt.c:1306:1
	ldr	r0, [sp, #12]
	add	sp, #16
	pop	{r7, pc}
.Ltmp377:
.Lfunc_end15:
	.size	rt_wlan_set_mac, .Lfunc_end15-rt_wlan_set_mac
	.cfi_endproc
	.cantunwind
	.fnend
                                        @ -- End function
	.section	.text.rt_wlan_get_mac,"ax",%progbits
	.hidden	rt_wlan_get_mac                 @ -- Begin function rt_wlan_get_mac
	.globl	rt_wlan_get_mac
	.p2align	3
	.type	rt_wlan_get_mac,%function
	.code	16                              @ @rt_wlan_get_mac
	.thumb_func
rt_wlan_get_mac:
.Lfunc_begin16:
	.loc	3 1309 0                        @ rt-thread/components/drivers/wlan/wlan_mgnt.c:1309:0
	.fnstart
	.cfi_startproc
@ %bb.0:
	.save	{r7, lr}
	push	{r7, lr}
	.cfi_def_cfa_offset 8
	.cfi_offset lr, -4
	.cfi_offset r7, -8
	.pad	#16
	sub	sp, #16
	.cfi_def_cfa_offset 24
	str	r0, [sp, #8]
	movs	r0, #0
.Ltmp378:
	.loc	3 1310 14 prologue_end          @ rt-thread/components/drivers/wlan/wlan_mgnt.c:1310:14
	str	r0, [sp, #4]
.Ltmp379:
	.loc	3 1312 9                        @ rt-thread/components/drivers/wlan/wlan_mgnt.c:1312:9
	bl	_sta_is_null
.Ltmp380:
	.loc	3 1312 9 is_stmt 0              @ rt-thread/components/drivers/wlan/wlan_mgnt.c:1312:9
	cbz	r0, .LBB16_2
	b	.LBB16_1
.LBB16_1:
	.loc	3 0 9                           @ rt-thread/components/drivers/wlan/wlan_mgnt.c:0:9
	mvn	r0, #7
.Ltmp381:
	.loc	3 1314 9 is_stmt 1              @ rt-thread/components/drivers/wlan/wlan_mgnt.c:1314:9
	str	r0, [sp, #12]
	b	.LBB16_7
.Ltmp382:
.LBB16_2:
	.loc	3 1316 5                        @ rt-thread/components/drivers/wlan/wlan_mgnt.c:1316:5
	movw	r0, :lower16:mgnt_mutex
	movt	r0, :upper16:mgnt_mutex
	mov.w	r1, #-1
	bl	rt_mutex_take
	.loc	3 1317 31                       @ rt-thread/components/drivers/wlan/wlan_mgnt.c:1317:31
	movw	r0, :lower16:_sta_mgnt
	movt	r0, :upper16:_sta_mgnt
	ldr	r0, [r0]
	.loc	3 1317 45 is_stmt 0             @ rt-thread/components/drivers/wlan/wlan_mgnt.c:1317:45
	ldr	r1, [sp, #8]
	.loc	3 1317 11                       @ rt-thread/components/drivers/wlan/wlan_mgnt.c:1317:11
	bl	rt_wlan_dev_get_mac
	.loc	3 1317 9                        @ rt-thread/components/drivers/wlan/wlan_mgnt.c:1317:9
	str	r0, [sp, #4]
.Ltmp383:
	.loc	3 1318 9 is_stmt 1              @ rt-thread/components/drivers/wlan/wlan_mgnt.c:1318:9
	ldr	r0, [sp, #4]
.Ltmp384:
	.loc	3 1318 9 is_stmt 0              @ rt-thread/components/drivers/wlan/wlan_mgnt.c:1318:9
	cbz	r0, .LBB16_6
	b	.LBB16_3
.LBB16_3:
.Ltmp385:
	.loc	3 1320 9 is_stmt 1              @ rt-thread/components/drivers/wlan/wlan_mgnt.c:1320:9
	b	.LBB16_4
.LBB16_4:
.Ltmp386:
	.loc	3 1320 9 is_stmt 0              @ rt-thread/components/drivers/wlan/wlan_mgnt.c:1320:9
	movw	r0, :lower16:.L.str
	movt	r0, :upper16:.L.str
	bl	rt_kprintf
	movw	r0, :lower16:.L.str.28
	movt	r0, :upper16:.L.str.28
	movw	r1, :lower16:.L__FUNCTION__.rt_wlan_get_mac
	movt	r1, :upper16:.L__FUNCTION__.rt_wlan_get_mac
	mov.w	r2, #1320
	bl	rt_kprintf
	movw	r0, :lower16:.L.str.2
	movt	r0, :upper16:.L.str.2
	bl	rt_kprintf
	b	.LBB16_5
.Ltmp387:
.LBB16_5:
	.loc	3 1321 9 is_stmt 1              @ rt-thread/components/drivers/wlan/wlan_mgnt.c:1321:9
	movw	r0, :lower16:mgnt_mutex
	movt	r0, :upper16:mgnt_mutex
	bl	rt_mutex_release
	.loc	3 1322 16                       @ rt-thread/components/drivers/wlan/wlan_mgnt.c:1322:16
	ldr	r0, [sp, #4]
	.loc	3 1322 9 is_stmt 0              @ rt-thread/components/drivers/wlan/wlan_mgnt.c:1322:9
	str	r0, [sp, #12]
	b	.LBB16_7
.Ltmp388:
.LBB16_6:
	.loc	3 1326 5 is_stmt 1              @ rt-thread/components/drivers/wlan/wlan_mgnt.c:1326:5
	movw	r0, :lower16:mgnt_mutex
	movt	r0, :upper16:mgnt_mutex
	bl	rt_mutex_release
	.loc	3 1327 12                       @ rt-thread/components/drivers/wlan/wlan_mgnt.c:1327:12
	ldr	r0, [sp, #4]
	.loc	3 1327 5 is_stmt 0              @ rt-thread/components/drivers/wlan/wlan_mgnt.c:1327:5
	str	r0, [sp, #12]
	b	.LBB16_7
.LBB16_7:
	.loc	3 1328 1 is_stmt 1              @ rt-thread/components/drivers/wlan/wlan_mgnt.c:1328:1
	ldr	r0, [sp, #12]
	add	sp, #16
	pop	{r7, pc}
.Ltmp389:
.Lfunc_end16:
	.size	rt_wlan_get_mac, .Lfunc_end16-rt_wlan_get_mac
	.cfi_endproc
	.cantunwind
	.fnend
                                        @ -- End function
	.section	.text.rt_wlan_get_info,"ax",%progbits
	.hidden	rt_wlan_get_info                @ -- Begin function rt_wlan_get_info
	.globl	rt_wlan_get_info
	.p2align	3
	.type	rt_wlan_get_info,%function
	.code	16                              @ @rt_wlan_get_info
	.thumb_func
rt_wlan_get_info:
.Lfunc_begin17:
	.loc	3 1331 0                        @ rt-thread/components/drivers/wlan/wlan_mgnt.c:1331:0
	.fnstart
	.cfi_startproc
@ %bb.0:
	.save	{r4, r5, r7, lr}
	push	{r4, r5, r7, lr}
	.cfi_def_cfa_offset 16
	.cfi_offset lr, -4
	.cfi_offset r7, -8
	.cfi_offset r5, -12
	.cfi_offset r4, -16
	.pad	#16
	sub	sp, #16
	.cfi_def_cfa_offset 32
	str	r0, [sp, #8]
.Ltmp390:
	.loc	3 1332 9 prologue_end           @ rt-thread/components/drivers/wlan/wlan_mgnt.c:1332:9
	bl	_sta_is_null
.Ltmp391:
	.loc	3 1332 9 is_stmt 0              @ rt-thread/components/drivers/wlan/wlan_mgnt.c:1332:9
	cbz	r0, .LBB17_2
	b	.LBB17_1
.LBB17_1:
	.loc	3 0 9                           @ rt-thread/components/drivers/wlan/wlan_mgnt.c:0:9
	mvn	r0, #7
.Ltmp392:
	.loc	3 1334 9 is_stmt 1              @ rt-thread/components/drivers/wlan/wlan_mgnt.c:1334:9
	str	r0, [sp, #12]
	b	.LBB17_5
.Ltmp393:
.LBB17_2:
	.loc	3 1338 9                        @ rt-thread/components/drivers/wlan/wlan_mgnt.c:1338:9
	bl	rt_wlan_is_connected
.Ltmp394:
	.loc	3 1338 9 is_stmt 0              @ rt-thread/components/drivers/wlan/wlan_mgnt.c:1338:9
	cmp	r0, #1
	bne	.LBB17_4
	b	.LBB17_3
.LBB17_3:
.Ltmp395:
	.loc	3 1340 10 is_stmt 1             @ rt-thread/components/drivers/wlan/wlan_mgnt.c:1340:10
	ldr	r1, [sp, #8]
	.loc	3 1340 27 is_stmt 0             @ rt-thread/components/drivers/wlan/wlan_mgnt.c:1340:27
	str	r1, [sp]                        @ 4-byte Spill
	movw	r3, :lower16:_sta_mgnt
	movt	r3, :upper16:_sta_mgnt
	str	r3, [sp, #4]                    @ 4-byte Spill
	ldr	r0, [r3, #4]
	ldr	r2, [r3, #8]
	ldr.w	r12, [r3, #12]
	ldr.w	lr, [r3, #16]
	ldr	r4, [r3, #20]
	ldr	r5, [r3, #24]
	str	r5, [r1, #20]
	str	r4, [r1, #16]
	str.w	lr, [r1, #12]
	str.w	r12, [r1, #8]
	str	r2, [r1, #4]
	str	r0, [r1]
	ldr	r0, [r3, #28]
	ldr	r2, [r3, #32]
	ldr.w	r12, [r3, #36]
	ldr.w	lr, [r3, #40]
	ldr	r4, [r3, #44]
	ldr	r5, [r3, #48]
	str	r5, [r1, #44]
	str	r4, [r1, #40]
	str.w	lr, [r1, #36]
	str.w	r12, [r1, #32]
	str	r2, [r1, #28]
	str	r0, [r1, #24]
	ldr	r0, [r3, #52]
	ldr	r2, [r3, #56]
	ldr	r3, [r3, #60]
	str	r3, [r1, #56]
	str	r2, [r1, #52]
	str	r0, [r1, #48]
	.loc	3 1341 22 is_stmt 1             @ rt-thread/components/drivers/wlan/wlan_mgnt.c:1341:22
	bl	rt_wlan_get_rssi
	.loc	3 1341 9 is_stmt 0              @ rt-thread/components/drivers/wlan/wlan_mgnt.c:1341:9
	ldr	r1, [sp, #8]
	.loc	3 1341 20                       @ rt-thread/components/drivers/wlan/wlan_mgnt.c:1341:20
	strh	r0, [r1, #14]
	movs	r0, #0
	.loc	3 1342 9 is_stmt 1              @ rt-thread/components/drivers/wlan/wlan_mgnt.c:1342:9
	str	r0, [sp, #12]
	b	.LBB17_5
.Ltmp396:
.LBB17_4:
	.loc	3 0 9 is_stmt 0                 @ rt-thread/components/drivers/wlan/wlan_mgnt.c:0:9
	mov.w	r0, #-1
	.loc	3 1344 5 is_stmt 1              @ rt-thread/components/drivers/wlan/wlan_mgnt.c:1344:5
	str	r0, [sp, #12]
	b	.LBB17_5
.LBB17_5:
	.loc	3 1345 1                        @ rt-thread/components/drivers/wlan/wlan_mgnt.c:1345:1
	ldr	r0, [sp, #12]
	add	sp, #16
	pop	{r4, r5, r7, pc}
.Ltmp397:
.Lfunc_end17:
	.size	rt_wlan_get_info, .Lfunc_end17-rt_wlan_get_info
	.cfi_endproc
	.cantunwind
	.fnend
                                        @ -- End function
	.section	.text.rt_wlan_get_rssi,"ax",%progbits
	.hidden	rt_wlan_get_rssi                @ -- Begin function rt_wlan_get_rssi
	.globl	rt_wlan_get_rssi
	.p2align	3
	.type	rt_wlan_get_rssi,%function
	.code	16                              @ @rt_wlan_get_rssi
	.thumb_func
rt_wlan_get_rssi:
.Lfunc_begin18:
	.loc	3 1348 0                        @ rt-thread/components/drivers/wlan/wlan_mgnt.c:1348:0
	.fnstart
	.cfi_startproc
@ %bb.0:
	.save	{r7, lr}
	push	{r7, lr}
	.cfi_def_cfa_offset 8
	.cfi_offset lr, -4
	.cfi_offset r7, -8
	.pad	#16
	sub	sp, #16
	.cfi_def_cfa_offset 24
	movs	r0, #0
.Ltmp398:
	.loc	3 1349 9 prologue_end           @ rt-thread/components/drivers/wlan/wlan_mgnt.c:1349:9
	str	r0, [sp, #8]
.Ltmp399:
	.loc	3 1351 9                        @ rt-thread/components/drivers/wlan/wlan_mgnt.c:1351:9
	bl	_sta_is_null
.Ltmp400:
	.loc	3 1351 9 is_stmt 0              @ rt-thread/components/drivers/wlan/wlan_mgnt.c:1351:9
	cbz	r0, .LBB18_2
	b	.LBB18_1
.LBB18_1:
	.loc	3 0 9                           @ rt-thread/components/drivers/wlan/wlan_mgnt.c:0:9
	mvn	r0, #7
.Ltmp401:
	.loc	3 1353 9 is_stmt 1              @ rt-thread/components/drivers/wlan/wlan_mgnt.c:1353:9
	str	r0, [sp, #12]
	b	.LBB18_3
.Ltmp402:
.LBB18_2:
	.loc	3 1356 5                        @ rt-thread/components/drivers/wlan/wlan_mgnt.c:1356:5
	movw	r0, :lower16:mgnt_mutex
	movt	r0, :upper16:mgnt_mutex
	str	r0, [sp, #4]                    @ 4-byte Spill
	mov.w	r1, #-1
	bl	rt_mutex_take
	.loc	3 1357 33                       @ rt-thread/components/drivers/wlan/wlan_mgnt.c:1357:33
	movw	r0, :lower16:_sta_mgnt
	movt	r0, :upper16:_sta_mgnt
	ldr	r0, [r0]
	.loc	3 1357 12 is_stmt 0             @ rt-thread/components/drivers/wlan/wlan_mgnt.c:1357:12
	bl	rt_wlan_dev_get_rssi
	mov	r1, r0
	.loc	3 1357 10                       @ rt-thread/components/drivers/wlan/wlan_mgnt.c:1357:10
	ldr	r0, [sp, #4]                    @ 4-byte Reload
	str	r1, [sp, #8]
	.loc	3 1359 5 is_stmt 1              @ rt-thread/components/drivers/wlan/wlan_mgnt.c:1359:5
	bl	rt_mutex_release
	.loc	3 1360 12                       @ rt-thread/components/drivers/wlan/wlan_mgnt.c:1360:12
	ldr	r0, [sp, #8]
	.loc	3 1360 5 is_stmt 0              @ rt-thread/components/drivers/wlan/wlan_mgnt.c:1360:5
	str	r0, [sp, #12]
	b	.LBB18_3
.LBB18_3:
	.loc	3 1361 1 is_stmt 1              @ rt-thread/components/drivers/wlan/wlan_mgnt.c:1361:1
	ldr	r0, [sp, #12]
	add	sp, #16
	pop	{r7, pc}
.Ltmp403:
.Lfunc_end18:
	.size	rt_wlan_get_rssi, .Lfunc_end18-rt_wlan_get_rssi
	.cfi_endproc
	.cantunwind
	.fnend
                                        @ -- End function
	.section	.text.rt_wlan_start_ap,"ax",%progbits
	.hidden	rt_wlan_start_ap                @ -- Begin function rt_wlan_start_ap
	.globl	rt_wlan_start_ap
	.p2align	3
	.type	rt_wlan_start_ap,%function
	.code	16                              @ @rt_wlan_start_ap
	.thumb_func
rt_wlan_start_ap:
.Lfunc_begin19:
	.loc	3 1364 0                        @ rt-thread/components/drivers/wlan/wlan_mgnt.c:1364:0
	.fnstart
	.cfi_startproc
@ %bb.0:
	.save	{r7, lr}
	push	{r7, lr}
	.cfi_def_cfa_offset 8
	.cfi_offset lr, -4
	.cfi_offset r7, -8
	.pad	#96
	sub	sp, #96
	.cfi_def_cfa_offset 104
	str	r0, [sp, #88]
	str	r1, [sp, #84]
	movs	r0, #0
.Ltmp404:
	.loc	3 1365 14 prologue_end          @ rt-thread/components/drivers/wlan/wlan_mgnt.c:1365:14
	str	r0, [sp, #80]
	.loc	3 1366 9                        @ rt-thread/components/drivers/wlan/wlan_mgnt.c:1366:9
	str	r0, [sp, #76]
	.loc	3 1369 17                       @ rt-thread/components/drivers/wlan/wlan_mgnt.c:1369:17
	str	r0, [sp, #8]
	.loc	3 1369 26 is_stmt 0             @ rt-thread/components/drivers/wlan/wlan_mgnt.c:1369:26
	str	r0, [sp, #4]
.Ltmp405:
	.loc	3 1371 9 is_stmt 1              @ rt-thread/components/drivers/wlan/wlan_mgnt.c:1371:9
	bl	_ap_is_null
.Ltmp406:
	.loc	3 1371 9 is_stmt 0              @ rt-thread/components/drivers/wlan/wlan_mgnt.c:1371:9
	cbz	r0, .LBB19_2
	b	.LBB19_1
.LBB19_1:
	.loc	3 0 9                           @ rt-thread/components/drivers/wlan/wlan_mgnt.c:0:9
	mvn	r0, #7
.Ltmp407:
	.loc	3 1373 9 is_stmt 1              @ rt-thread/components/drivers/wlan/wlan_mgnt.c:1373:9
	str	r0, [sp, #92]
	b	.LBB19_23
.Ltmp408:
.LBB19_2:
	.loc	3 1375 9                        @ rt-thread/components/drivers/wlan/wlan_mgnt.c:1375:9
	ldr	r0, [sp, #88]
.Ltmp409:
	.loc	3 1375 9 is_stmt 0              @ rt-thread/components/drivers/wlan/wlan_mgnt.c:1375:9
	cbnz	r0, .LBB19_4
	b	.LBB19_3
.LBB19_3:
	.loc	3 0 9                           @ rt-thread/components/drivers/wlan/wlan_mgnt.c:0:9
	mvn	r0, #9
.Ltmp410:
	.loc	3 1375 26                       @ rt-thread/components/drivers/wlan/wlan_mgnt.c:1375:26
	str	r0, [sp, #92]
	b	.LBB19_23
.Ltmp411:
.LBB19_4:
	.loc	3 0 26                          @ rt-thread/components/drivers/wlan/wlan_mgnt.c:0:26
	add	r0, sp, #16
	movs	r1, #0
	movs	r2, #60
	.loc	3 1377 5 is_stmt 1              @ rt-thread/components/drivers/wlan/wlan_mgnt.c:1377:5
	bl	rt_memset
.Ltmp412:
	.loc	3 1379 9                        @ rt-thread/components/drivers/wlan/wlan_mgnt.c:1379:9
	ldr	r0, [sp, #84]
.Ltmp413:
	.loc	3 1379 9 is_stmt 0              @ rt-thread/components/drivers/wlan/wlan_mgnt.c:1379:9
	cbz	r0, .LBB19_6
	b	.LBB19_5
.LBB19_5:
	.loc	3 0 9                           @ rt-thread/components/drivers/wlan/wlan_mgnt.c:0:9
	movs	r0, #4
	movt	r0, #64
.Ltmp414:
	.loc	3 1381 23 is_stmt 1             @ rt-thread/components/drivers/wlan/wlan_mgnt.c:1381:23
	str	r0, [sp, #16]
	.loc	3 1382 5                        @ rt-thread/components/drivers/wlan/wlan_mgnt.c:1382:5
	b	.LBB19_6
.Ltmp415:
.LBB19_6:
	.loc	3 1383 26                       @ rt-thread/components/drivers/wlan/wlan_mgnt.c:1383:26
	ldr	r0, [sp, #88]
	.loc	3 1383 16 is_stmt 0             @ rt-thread/components/drivers/wlan/wlan_mgnt.c:1383:16
	bl	rt_strlen
	.loc	3 1383 14                       @ rt-thread/components/drivers/wlan/wlan_mgnt.c:1383:14
	str	r0, [sp, #76]
.Ltmp416:
	.loc	3 1384 9 is_stmt 1              @ rt-thread/components/drivers/wlan/wlan_mgnt.c:1384:9
	ldr	r0, [sp, #76]
.Ltmp417:
	.loc	3 1384 9 is_stmt 0              @ rt-thread/components/drivers/wlan/wlan_mgnt.c:1384:9
	cmp	r0, #33
	blt	.LBB19_10
	b	.LBB19_7
.LBB19_7:
.Ltmp418:
	.loc	3 1386 9 is_stmt 1              @ rt-thread/components/drivers/wlan/wlan_mgnt.c:1386:9
	b	.LBB19_8
.LBB19_8:
.Ltmp419:
	.loc	3 1386 9 is_stmt 0              @ rt-thread/components/drivers/wlan/wlan_mgnt.c:1386:9
	movw	r0, :lower16:.L.str
	movt	r0, :upper16:.L.str
	bl	rt_kprintf
	ldr	r3, [sp, #76]
	movw	r0, :lower16:.L.str.29
	movt	r0, :upper16:.L.str.29
	movw	r1, :lower16:.L__FUNCTION__.rt_wlan_start_ap
	movt	r1, :upper16:.L__FUNCTION__.rt_wlan_start_ap
	movw	r2, #1386
	bl	rt_kprintf
	movw	r0, :lower16:.L.str.2
	movt	r0, :upper16:.L.str.2
	bl	rt_kprintf
	b	.LBB19_9
.Ltmp420:
.LBB19_9:
	.loc	3 1387 5 is_stmt 1              @ rt-thread/components/drivers/wlan/wlan_mgnt.c:1387:5
	b	.LBB19_10
.Ltmp421:
.LBB19_10:
	.loc	3 0 5 is_stmt 0                 @ rt-thread/components/drivers/wlan/wlan_mgnt.c:0:5
	add	r0, sp, #16
	.loc	3 1390 26 is_stmt 1             @ rt-thread/components/drivers/wlan/wlan_mgnt.c:1390:26
	adds	r0, #17
	.loc	3 1390 31 is_stmt 0             @ rt-thread/components/drivers/wlan/wlan_mgnt.c:1390:31
	ldr	r1, [sp, #88]
	.loc	3 1390 37                       @ rt-thread/components/drivers/wlan/wlan_mgnt.c:1390:37
	ldr	r2, [sp, #76]
	.loc	3 1390 5                        @ rt-thread/components/drivers/wlan/wlan_mgnt.c:1390:5
	bl	rt_memcpy
	.loc	3 1391 21 is_stmt 1             @ rt-thread/components/drivers/wlan/wlan_mgnt.c:1391:21
	ldr	r0, [sp, #76]
	.loc	3 1391 19 is_stmt 0             @ rt-thread/components/drivers/wlan/wlan_mgnt.c:1391:19
	strb.w	r0, [sp, #32]
	movs	r0, #6
	.loc	3 1392 18 is_stmt 1             @ rt-thread/components/drivers/wlan/wlan_mgnt.c:1392:18
	strh.w	r0, [sp, #28]
	movs	r0, #1
	.loc	3 1393 15                       @ rt-thread/components/drivers/wlan/wlan_mgnt.c:1393:15
	str	r0, [sp, #20]
	.loc	3 1396 5                        @ rt-thread/components/drivers/wlan/wlan_mgnt.c:1396:5
	movw	r0, :lower16:mgnt_mutex
	movt	r0, :upper16:mgnt_mutex
	mov.w	r1, #-1
	bl	rt_mutex_take
	.loc	3 1398 16                       @ rt-thread/components/drivers/wlan/wlan_mgnt.c:1398:16
	movw	r0, :lower16:.L.str.30
	movt	r0, :upper16:.L.str.30
	bl	rt_wlan_complete_create
	.loc	3 1398 14 is_stmt 0             @ rt-thread/components/drivers/wlan/wlan_mgnt.c:1398:14
	str	r0, [sp, #12]
.Ltmp422:
	.loc	3 1399 9 is_stmt 1              @ rt-thread/components/drivers/wlan/wlan_mgnt.c:1399:9
	ldr	r0, [sp, #12]
.Ltmp423:
	.loc	3 1399 9 is_stmt 0              @ rt-thread/components/drivers/wlan/wlan_mgnt.c:1399:9
	cbnz	r0, .LBB19_12
	b	.LBB19_11
.LBB19_11:
.Ltmp424:
	.loc	3 1401 9 is_stmt 1              @ rt-thread/components/drivers/wlan/wlan_mgnt.c:1401:9
	movw	r0, :lower16:mgnt_mutex
	movt	r0, :upper16:mgnt_mutex
	bl	rt_mutex_release
	mvn	r0, #4
	.loc	3 1402 9                        @ rt-thread/components/drivers/wlan/wlan_mgnt.c:1402:9
	str	r0, [sp, #92]
	b	.LBB19_23
.Ltmp425:
.LBB19_12:
	.loc	3 1406 39                       @ rt-thread/components/drivers/wlan/wlan_mgnt.c:1406:39
	ldr	r1, [sp, #84]
	add	r0, sp, #16
	.loc	3 1406 11 is_stmt 0             @ rt-thread/components/drivers/wlan/wlan_mgnt.c:1406:11
	bl	rt_wlan_start_ap_adv
	.loc	3 1406 9                        @ rt-thread/components/drivers/wlan/wlan_mgnt.c:1406:9
	str	r0, [sp, #80]
.Ltmp426:
	.loc	3 1407 9 is_stmt 1              @ rt-thread/components/drivers/wlan/wlan_mgnt.c:1407:9
	ldr	r0, [sp, #80]
.Ltmp427:
	.loc	3 1407 9 is_stmt 0              @ rt-thread/components/drivers/wlan/wlan_mgnt.c:1407:9
	cbz	r0, .LBB19_16
	b	.LBB19_13
.LBB19_13:
.Ltmp428:
	.loc	3 1409 33 is_stmt 1             @ rt-thread/components/drivers/wlan/wlan_mgnt.c:1409:33
	ldr	r0, [sp, #12]
	.loc	3 1409 9 is_stmt 0              @ rt-thread/components/drivers/wlan/wlan_mgnt.c:1409:9
	bl	rt_wlan_complete_delete
	.loc	3 1410 9 is_stmt 1              @ rt-thread/components/drivers/wlan/wlan_mgnt.c:1410:9
	b	.LBB19_14
.LBB19_14:
.Ltmp429:
	.loc	3 1410 9 is_stmt 0              @ rt-thread/components/drivers/wlan/wlan_mgnt.c:1410:9
	movw	r0, :lower16:.L.str.4
	movt	r0, :upper16:.L.str.4
	bl	rt_kprintf
	movw	r0, :lower16:.L.str.31
	movt	r0, :upper16:.L.str.31
	bl	rt_kprintf
	movw	r0, :lower16:.L.str.2
	movt	r0, :upper16:.L.str.2
	bl	rt_kprintf
	b	.LBB19_15
.Ltmp430:
.LBB19_15:
	.loc	3 1411 9 is_stmt 1              @ rt-thread/components/drivers/wlan/wlan_mgnt.c:1411:9
	movw	r0, :lower16:mgnt_mutex
	movt	r0, :upper16:mgnt_mutex
	bl	rt_mutex_release
	.loc	3 1412 16                       @ rt-thread/components/drivers/wlan/wlan_mgnt.c:1412:16
	ldr	r0, [sp, #80]
	.loc	3 1412 9 is_stmt 0              @ rt-thread/components/drivers/wlan/wlan_mgnt.c:1412:9
	str	r0, [sp, #92]
	b	.LBB19_23
.Ltmp431:
.LBB19_16:
	.loc	3 1416 9 is_stmt 1              @ rt-thread/components/drivers/wlan/wlan_mgnt.c:1416:9
	ldr	r0, [sp, #8]
	orr	r0, r0, #16
	str	r0, [sp, #8]
	.loc	3 1417 9                        @ rt-thread/components/drivers/wlan/wlan_mgnt.c:1417:9
	ldr	r0, [sp, #8]
	orr	r0, r0, #32
	str	r0, [sp, #8]
	.loc	3 1419 27                       @ rt-thread/components/drivers/wlan/wlan_mgnt.c:1419:27
	ldr	r0, [sp, #12]
	.loc	3 1419 37 is_stmt 0             @ rt-thread/components/drivers/wlan/wlan_mgnt.c:1419:37
	ldr	r1, [sp, #8]
	movw	r2, #10000
	add	r3, sp, #4
	.loc	3 1419 5                        @ rt-thread/components/drivers/wlan/wlan_mgnt.c:1419:5
	bl	rt_wlan_complete_wait
	.loc	3 1420 29 is_stmt 1             @ rt-thread/components/drivers/wlan/wlan_mgnt.c:1420:29
	ldr	r0, [sp, #12]
	.loc	3 1420 5 is_stmt 0              @ rt-thread/components/drivers/wlan/wlan_mgnt.c:1420:5
	bl	rt_wlan_complete_delete
	movs	r0, #16
	.loc	3 1422 9 is_stmt 1              @ rt-thread/components/drivers/wlan/wlan_mgnt.c:1422:9
	str	r0, [sp, #8]
.Ltmp432:
	.loc	3 1423 11                       @ rt-thread/components/drivers/wlan/wlan_mgnt.c:1423:11
	ldr	r0, [sp, #4]
	.loc	3 1423 20 is_stmt 0             @ rt-thread/components/drivers/wlan/wlan_mgnt.c:1423:20
	ldr	r1, [sp, #8]
.Ltmp433:
	.loc	3 1423 9                        @ rt-thread/components/drivers/wlan/wlan_mgnt.c:1423:9
	tst	r0, r1
	bne	.LBB19_20
	b	.LBB19_17
.LBB19_17:
.Ltmp434:
	.loc	3 1425 9 is_stmt 1              @ rt-thread/components/drivers/wlan/wlan_mgnt.c:1425:9
	b	.LBB19_18
.LBB19_18:
.Ltmp435:
	.loc	3 1425 9 is_stmt 0              @ rt-thread/components/drivers/wlan/wlan_mgnt.c:1425:9
	movw	r0, :lower16:.L.str.4
	movt	r0, :upper16:.L.str.4
	bl	rt_kprintf
	movw	r0, :lower16:.L.str.31
	movt	r0, :upper16:.L.str.31
	bl	rt_kprintf
	movw	r0, :lower16:.L.str.2
	movt	r0, :upper16:.L.str.2
	bl	rt_kprintf
	b	.LBB19_19
.Ltmp436:
.LBB19_19:
	.loc	3 1426 9 is_stmt 1              @ rt-thread/components/drivers/wlan/wlan_mgnt.c:1426:9
	movw	r0, :lower16:mgnt_mutex
	movt	r0, :upper16:mgnt_mutex
	bl	rt_mutex_release
	mov.w	r0, #-1
	.loc	3 1427 9                        @ rt-thread/components/drivers/wlan/wlan_mgnt.c:1427:9
	str	r0, [sp, #92]
	b	.LBB19_23
.Ltmp437:
.LBB19_20:
	.loc	3 1429 5                        @ rt-thread/components/drivers/wlan/wlan_mgnt.c:1429:5
	b	.LBB19_21
.LBB19_21:
.Ltmp438:
	.loc	3 1429 5 is_stmt 0              @ rt-thread/components/drivers/wlan/wlan_mgnt.c:1429:5
	movw	r0, :lower16:.L.str.4
	movt	r0, :upper16:.L.str.4
	bl	rt_kprintf
	movw	r0, :lower16:.L.str.32
	movt	r0, :upper16:.L.str.32
	bl	rt_kprintf
	movw	r0, :lower16:.L.str.2
	movt	r0, :upper16:.L.str.2
	bl	rt_kprintf
	b	.LBB19_22
.Ltmp439:
.LBB19_22:
	.loc	3 1430 5 is_stmt 1              @ rt-thread/components/drivers/wlan/wlan_mgnt.c:1430:5
	movw	r0, :lower16:mgnt_mutex
	movt	r0, :upper16:mgnt_mutex
	bl	rt_mutex_release
	.loc	3 1431 12                       @ rt-thread/components/drivers/wlan/wlan_mgnt.c:1431:12
	ldr	r0, [sp, #80]
	.loc	3 1431 5 is_stmt 0              @ rt-thread/components/drivers/wlan/wlan_mgnt.c:1431:5
	str	r0, [sp, #92]
	b	.LBB19_23
.LBB19_23:
	.loc	3 1432 1 is_stmt 1              @ rt-thread/components/drivers/wlan/wlan_mgnt.c:1432:1
	ldr	r0, [sp, #92]
	add	sp, #96
	pop	{r7, pc}
.Ltmp440:
.Lfunc_end19:
	.size	rt_wlan_start_ap, .Lfunc_end19-rt_wlan_start_ap
	.cfi_endproc
	.cantunwind
	.fnend
                                        @ -- End function
	.section	.text._ap_is_null,"ax",%progbits
	.p2align	3                               @ -- Begin function _ap_is_null
	.type	_ap_is_null,%function
	.code	16                              @ @_ap_is_null
	.thumb_func
_ap_is_null:
.Lfunc_begin20:
	.loc	3 137 0                         @ rt-thread/components/drivers/wlan/wlan_mgnt.c:137:0
	.fnstart
	.cfi_startproc
@ %bb.0:
	.pad	#4
	sub	sp, #4
	.cfi_def_cfa_offset 4
.Ltmp441:
	.loc	3 138 18 prologue_end           @ rt-thread/components/drivers/wlan/wlan_mgnt.c:138:18
	movw	r0, :lower16:_ap_mgnt
	movt	r0, :upper16:_ap_mgnt
	ldr	r0, [r0]
.Ltmp442:
	.loc	3 138 9 is_stmt 0               @ rt-thread/components/drivers/wlan/wlan_mgnt.c:138:9
	cbnz	r0, .LBB20_2
	b	.LBB20_1
.LBB20_1:
	.loc	3 0 9                           @ rt-thread/components/drivers/wlan/wlan_mgnt.c:0:9
	movs	r0, #1
.Ltmp443:
	.loc	3 140 9 is_stmt 1               @ rt-thread/components/drivers/wlan/wlan_mgnt.c:140:9
	str	r0, [sp]
	b	.LBB20_3
.Ltmp444:
.LBB20_2:
	.loc	3 0 9 is_stmt 0                 @ rt-thread/components/drivers/wlan/wlan_mgnt.c:0:9
	movs	r0, #0
	.loc	3 142 5 is_stmt 1               @ rt-thread/components/drivers/wlan/wlan_mgnt.c:142:5
	str	r0, [sp]
	b	.LBB20_3
.LBB20_3:
	.loc	3 143 1                         @ rt-thread/components/drivers/wlan/wlan_mgnt.c:143:1
	ldr	r0, [sp]
	add	sp, #4
	bx	lr
.Ltmp445:
.Lfunc_end20:
	.size	_ap_is_null, .Lfunc_end20-_ap_is_null
	.cfi_endproc
	.cantunwind
	.fnend
                                        @ -- End function
	.section	.text.rt_wlan_start_ap_adv,"ax",%progbits
	.hidden	rt_wlan_start_ap_adv            @ -- Begin function rt_wlan_start_ap_adv
	.globl	rt_wlan_start_ap_adv
	.p2align	3
	.type	rt_wlan_start_ap_adv,%function
	.code	16                              @ @rt_wlan_start_ap_adv
	.thumb_func
rt_wlan_start_ap_adv:
.Lfunc_begin21:
	.loc	3 1435 0                        @ rt-thread/components/drivers/wlan/wlan_mgnt.c:1435:0
	.fnstart
	.cfi_startproc
@ %bb.0:
	.save	{r7, lr}
	push	{r7, lr}
	.cfi_def_cfa_offset 8
	.cfi_offset lr, -4
	.cfi_offset r7, -8
	.pad	#24
	sub	sp, #24
	.cfi_def_cfa_offset 32
	str	r0, [sp, #16]
	str	r1, [sp, #12]
	movs	r0, #0
.Ltmp446:
	.loc	3 1436 14 prologue_end          @ rt-thread/components/drivers/wlan/wlan_mgnt.c:1436:14
	str	r0, [sp, #8]
	.loc	3 1437 9                        @ rt-thread/components/drivers/wlan/wlan_mgnt.c:1437:9
	str	r0, [sp, #4]
.Ltmp447:
	.loc	3 1439 9                        @ rt-thread/components/drivers/wlan/wlan_mgnt.c:1439:9
	bl	_ap_is_null
.Ltmp448:
	.loc	3 1439 9 is_stmt 0              @ rt-thread/components/drivers/wlan/wlan_mgnt.c:1439:9
	cbz	r0, .LBB21_2
	b	.LBB21_1
.LBB21_1:
	.loc	3 0 9                           @ rt-thread/components/drivers/wlan/wlan_mgnt.c:0:9
	mvn	r0, #7
.Ltmp449:
	.loc	3 1441 9 is_stmt 1              @ rt-thread/components/drivers/wlan/wlan_mgnt.c:1441:9
	str	r0, [sp, #20]
	b	.LBB21_21
.Ltmp450:
.LBB21_2:
	.loc	3 1444 9                        @ rt-thread/components/drivers/wlan/wlan_mgnt.c:1444:9
	ldr	r0, [sp, #12]
.Ltmp451:
	.loc	3 1444 9 is_stmt 0              @ rt-thread/components/drivers/wlan/wlan_mgnt.c:1444:9
	cbz	r0, .LBB21_4
	b	.LBB21_3
.LBB21_3:
.Ltmp452:
	.loc	3 1446 34 is_stmt 1             @ rt-thread/components/drivers/wlan/wlan_mgnt.c:1446:34
	ldr	r0, [sp, #12]
	.loc	3 1446 24 is_stmt 0             @ rt-thread/components/drivers/wlan/wlan_mgnt.c:1446:24
	bl	rt_strlen
	.loc	3 1446 22                       @ rt-thread/components/drivers/wlan/wlan_mgnt.c:1446:22
	str	r0, [sp, #4]
	.loc	3 1447 5 is_stmt 1              @ rt-thread/components/drivers/wlan/wlan_mgnt.c:1447:5
	b	.LBB21_4
.Ltmp453:
.LBB21_4:
	.loc	3 1448 9                        @ rt-thread/components/drivers/wlan/wlan_mgnt.c:1448:9
	ldr	r0, [sp, #4]
.Ltmp454:
	.loc	3 1448 9 is_stmt 0              @ rt-thread/components/drivers/wlan/wlan_mgnt.c:1448:9
	cmp	r0, #33
	blt	.LBB21_8
	b	.LBB21_5
.LBB21_5:
.Ltmp455:
	.loc	3 1450 9 is_stmt 1              @ rt-thread/components/drivers/wlan/wlan_mgnt.c:1450:9
	b	.LBB21_6
.LBB21_6:
.Ltmp456:
	.loc	3 1450 9 is_stmt 0              @ rt-thread/components/drivers/wlan/wlan_mgnt.c:1450:9
	movw	r0, :lower16:.L.str
	movt	r0, :upper16:.L.str
	bl	rt_kprintf
	ldr	r3, [sp, #4]
	movw	r0, :lower16:.L.str.33
	movt	r0, :upper16:.L.str.33
	movw	r1, :lower16:.L__FUNCTION__.rt_wlan_start_ap_adv
	movt	r1, :upper16:.L__FUNCTION__.rt_wlan_start_ap_adv
	movw	r2, #1450
	bl	rt_kprintf
	movw	r0, :lower16:.L.str.2
	movt	r0, :upper16:.L.str.2
	bl	rt_kprintf
	b	.LBB21_7
.Ltmp457:
.LBB21_7:
	.loc	3 0 9                           @ rt-thread/components/drivers/wlan/wlan_mgnt.c:0:9
	mvn	r0, #9
	.loc	3 1451 9 is_stmt 1              @ rt-thread/components/drivers/wlan/wlan_mgnt.c:1451:9
	str	r0, [sp, #20]
	b	.LBB21_21
.Ltmp458:
.LBB21_8:
	.loc	3 1454 5                        @ rt-thread/components/drivers/wlan/wlan_mgnt.c:1454:5
	movw	r0, :lower16:mgnt_mutex
	movt	r0, :upper16:mgnt_mutex
	mov.w	r1, #-1
	bl	rt_mutex_take
.Ltmp459:
	.loc	3 1455 9                        @ rt-thread/components/drivers/wlan/wlan_mgnt.c:1455:9
	bl	rt_wlan_ap_is_active
.Ltmp460:
	.loc	3 1455 9 is_stmt 0              @ rt-thread/components/drivers/wlan/wlan_mgnt.c:1455:9
	cmp	r0, #0
	beq	.LBB21_18
	b	.LBB21_9
.LBB21_9:
.Ltmp461:
	.loc	3 1457 33 is_stmt 1             @ rt-thread/components/drivers/wlan/wlan_mgnt.c:1457:33
	movw	r0, :lower16:_ap_mgnt
	movt	r0, :upper16:_ap_mgnt
	ldrb	r0, [r0, #20]
	.loc	3 1457 40 is_stmt 0             @ rt-thread/components/drivers/wlan/wlan_mgnt.c:1457:40
	ldr	r1, [sp, #16]
	.loc	3 1457 51                       @ rt-thread/components/drivers/wlan/wlan_mgnt.c:1457:51
	ldrb	r1, [r1, #16]
	.loc	3 1457 56                       @ rt-thread/components/drivers/wlan/wlan_mgnt.c:1457:56
	cmp	r0, r1
	bne	.LBB21_17
	b	.LBB21_10
.LBB21_10:
	.loc	3 1458 32 is_stmt 1             @ rt-thread/components/drivers/wlan/wlan_mgnt.c:1458:32
	movw	r0, :lower16:_ap_mgnt
	movt	r0, :upper16:_ap_mgnt
	ldr	r0, [r0, #4]
	.loc	3 1458 44 is_stmt 0             @ rt-thread/components/drivers/wlan/wlan_mgnt.c:1458:44
	ldr	r1, [sp, #16]
	.loc	3 1458 50                       @ rt-thread/components/drivers/wlan/wlan_mgnt.c:1458:50
	ldr	r1, [r1]
	.loc	3 1458 60                       @ rt-thread/components/drivers/wlan/wlan_mgnt.c:1458:60
	cmp	r0, r1
	bne	.LBB21_17
	b	.LBB21_11
.LBB21_11:
	.loc	3 1459 32 is_stmt 1             @ rt-thread/components/drivers/wlan/wlan_mgnt.c:1459:32
	movw	r0, :lower16:_ap_mgnt
	movt	r0, :upper16:_ap_mgnt
	ldrsh.w	r0, [r0, #16]
	.loc	3 1459 43 is_stmt 0             @ rt-thread/components/drivers/wlan/wlan_mgnt.c:1459:43
	ldr	r1, [sp, #16]
	.loc	3 1459 49                       @ rt-thread/components/drivers/wlan/wlan_mgnt.c:1459:49
	ldrsh.w	r1, [r1, #12]
	.loc	3 1459 58                       @ rt-thread/components/drivers/wlan/wlan_mgnt.c:1459:58
	cmp	r0, r1
	bne	.LBB21_17
	b	.LBB21_12
.LBB21_12:
	.loc	3 1460 32 is_stmt 1             @ rt-thread/components/drivers/wlan/wlan_mgnt.c:1460:32
	movw	r0, :lower16:_ap_mgnt
	movt	r0, :upper16:_ap_mgnt
	ldrb.w	r0, [r0, #60]
	.loc	3 1460 42 is_stmt 0             @ rt-thread/components/drivers/wlan/wlan_mgnt.c:1460:42
	ldr	r1, [sp, #16]
	.loc	3 1460 48                       @ rt-thread/components/drivers/wlan/wlan_mgnt.c:1460:48
	ldrb.w	r1, [r1, #56]
	.loc	3 1460 56                       @ rt-thread/components/drivers/wlan/wlan_mgnt.c:1460:56
	cmp	r0, r1
	bne	.LBB21_17
	b	.LBB21_13
.LBB21_13:
	.loc	3 1461 31 is_stmt 1             @ rt-thread/components/drivers/wlan/wlan_mgnt.c:1461:31
	movw	r0, :lower16:_ap_mgnt
	movt	r0, :upper16:_ap_mgnt
	ldrb.w	r0, [r0, #64]
	.loc	3 1461 38 is_stmt 0             @ rt-thread/components/drivers/wlan/wlan_mgnt.c:1461:38
	ldr	r1, [sp, #4]
	.loc	3 1461 52                       @ rt-thread/components/drivers/wlan/wlan_mgnt.c:1461:52
	cmp	r0, r1
	bne	.LBB21_17
	b	.LBB21_14
.LBB21_14:
	.loc	3 1462 57 is_stmt 1             @ rt-thread/components/drivers/wlan/wlan_mgnt.c:1462:57
	ldr	r0, [sp, #16]
	.loc	3 1462 68 is_stmt 0             @ rt-thread/components/drivers/wlan/wlan_mgnt.c:1462:68
	add.w	r1, r0, #17
	.loc	3 1462 87                       @ rt-thread/components/drivers/wlan/wlan_mgnt.c:1462:87
	ldrb	r2, [r0, #16]
	.loc	3 1462 18                       @ rt-thread/components/drivers/wlan/wlan_mgnt.c:1462:18
	movw	r0, :lower16:_ap_mgnt
	movt	r0, :upper16:_ap_mgnt
	adds	r0, #21
	bl	rt_memcmp
	.loc	3 1462 98                       @ rt-thread/components/drivers/wlan/wlan_mgnt.c:1462:98
	cbnz	r0, .LBB21_17
	b	.LBB21_15
.LBB21_15:
	.loc	3 1463 50 is_stmt 1             @ rt-thread/components/drivers/wlan/wlan_mgnt.c:1463:50
	ldr	r1, [sp, #12]
	.loc	3 1463 60 is_stmt 0             @ rt-thread/components/drivers/wlan/wlan_mgnt.c:1463:60
	ldr	r2, [sp, #4]
	.loc	3 1463 18                       @ rt-thread/components/drivers/wlan/wlan_mgnt.c:1463:18
	movw	r0, :lower16:_ap_mgnt
	movt	r0, :upper16:_ap_mgnt
	adds	r0, #65
	bl	rt_memcmp
.Ltmp462:
	.loc	3 1457 13 is_stmt 1             @ rt-thread/components/drivers/wlan/wlan_mgnt.c:1457:13
	cbz	r0, .LBB21_17
	b	.LBB21_16
.LBB21_16:
.Ltmp463:
	.loc	3 1466 13                       @ rt-thread/components/drivers/wlan/wlan_mgnt.c:1466:13
	movw	r0, :lower16:mgnt_mutex
	movt	r0, :upper16:mgnt_mutex
	bl	rt_mutex_release
	movs	r0, #0
	.loc	3 1467 13                       @ rt-thread/components/drivers/wlan/wlan_mgnt.c:1467:13
	str	r0, [sp, #20]
	b	.LBB21_21
.Ltmp464:
.LBB21_17:
	.loc	3 1469 5                        @ rt-thread/components/drivers/wlan/wlan_mgnt.c:1469:5
	b	.LBB21_18
.Ltmp465:
.LBB21_18:
	.loc	3 1471 32                       @ rt-thread/components/drivers/wlan/wlan_mgnt.c:1471:32
	movw	r0, :lower16:_ap_mgnt
	movt	r0, :upper16:_ap_mgnt
	ldr	r0, [r0]
	.loc	3 1471 45 is_stmt 0             @ rt-thread/components/drivers/wlan/wlan_mgnt.c:1471:45
	ldr	r1, [sp, #16]
	.loc	3 1471 51                       @ rt-thread/components/drivers/wlan/wlan_mgnt.c:1471:51
	ldr	r2, [sp, #12]
	.loc	3 1471 61                       @ rt-thread/components/drivers/wlan/wlan_mgnt.c:1471:61
	ldr	r3, [sp, #4]
	.loc	3 1471 11                       @ rt-thread/components/drivers/wlan/wlan_mgnt.c:1471:11
	bl	rt_wlan_dev_ap_start
	.loc	3 1471 9                        @ rt-thread/components/drivers/wlan/wlan_mgnt.c:1471:9
	str	r0, [sp, #8]
.Ltmp466:
	.loc	3 1472 9 is_stmt 1              @ rt-thread/components/drivers/wlan/wlan_mgnt.c:1472:9
	ldr	r0, [sp, #8]
.Ltmp467:
	.loc	3 1472 9 is_stmt 0              @ rt-thread/components/drivers/wlan/wlan_mgnt.c:1472:9
	cbz	r0, .LBB21_20
	b	.LBB21_19
.LBB21_19:
.Ltmp468:
	.loc	3 1474 9 is_stmt 1              @ rt-thread/components/drivers/wlan/wlan_mgnt.c:1474:9
	movw	r0, :lower16:mgnt_mutex
	movt	r0, :upper16:mgnt_mutex
	bl	rt_mutex_release
	.loc	3 1475 16                       @ rt-thread/components/drivers/wlan/wlan_mgnt.c:1475:16
	ldr	r0, [sp, #8]
	.loc	3 1475 9 is_stmt 0              @ rt-thread/components/drivers/wlan/wlan_mgnt.c:1475:9
	str	r0, [sp, #20]
	b	.LBB21_21
.Ltmp469:
.LBB21_20:
	.loc	3 1477 31 is_stmt 1             @ rt-thread/components/drivers/wlan/wlan_mgnt.c:1477:31
	ldr	r1, [sp, #16]
	.loc	3 1477 5 is_stmt 0              @ rt-thread/components/drivers/wlan/wlan_mgnt.c:1477:5
	movw	r0, :lower16:_ap_mgnt
	movt	r0, :upper16:_ap_mgnt
	str	r0, [sp]                        @ 4-byte Spill
	adds	r0, #4
	movs	r2, #60
	bl	rt_memcpy
                                        @ kill: def $r1 killed $r0
	.loc	3 1478 34 is_stmt 1             @ rt-thread/components/drivers/wlan/wlan_mgnt.c:1478:34
	ldr	r0, [sp]                        @ 4-byte Reload
	ldr	r1, [sp, #12]
	.loc	3 1478 44 is_stmt 0             @ rt-thread/components/drivers/wlan/wlan_mgnt.c:1478:44
	ldr	r2, [sp, #4]
	.loc	3 1478 5                        @ rt-thread/components/drivers/wlan/wlan_mgnt.c:1478:5
	adds	r0, #65
	bl	rt_memcpy
	ldr	r1, [sp]                        @ 4-byte Reload
	.loc	3 1479 24 is_stmt 1             @ rt-thread/components/drivers/wlan/wlan_mgnt.c:1479:24
	ldr	r0, [sp, #4]
	.loc	3 1479 22 is_stmt 0             @ rt-thread/components/drivers/wlan/wlan_mgnt.c:1479:22
	strb.w	r0, [r1, #64]
	.loc	3 1481 5 is_stmt 1              @ rt-thread/components/drivers/wlan/wlan_mgnt.c:1481:5
	movw	r0, :lower16:mgnt_mutex
	movt	r0, :upper16:mgnt_mutex
	bl	rt_mutex_release
	.loc	3 1482 12                       @ rt-thread/components/drivers/wlan/wlan_mgnt.c:1482:12
	ldr	r0, [sp, #8]
	.loc	3 1482 5 is_stmt 0              @ rt-thread/components/drivers/wlan/wlan_mgnt.c:1482:5
	str	r0, [sp, #20]
	b	.LBB21_21
.LBB21_21:
	.loc	3 1483 1 is_stmt 1              @ rt-thread/components/drivers/wlan/wlan_mgnt.c:1483:1
	ldr	r0, [sp, #20]
	add	sp, #24
	pop	{r7, pc}
.Ltmp470:
.Lfunc_end21:
	.size	rt_wlan_start_ap_adv, .Lfunc_end21-rt_wlan_start_ap_adv
	.cfi_endproc
	.cantunwind
	.fnend
                                        @ -- End function
	.section	.text.rt_wlan_ap_is_active,"ax",%progbits
	.hidden	rt_wlan_ap_is_active            @ -- Begin function rt_wlan_ap_is_active
	.globl	rt_wlan_ap_is_active
	.p2align	3
	.type	rt_wlan_ap_is_active,%function
	.code	16                              @ @rt_wlan_ap_is_active
	.thumb_func
rt_wlan_ap_is_active:
.Lfunc_begin22:
	.loc	3 1486 0                        @ rt-thread/components/drivers/wlan/wlan_mgnt.c:1486:0
	.fnstart
	.cfi_startproc
@ %bb.0:
	.save	{r7, lr}
	push	{r7, lr}
	.cfi_def_cfa_offset 8
	.cfi_offset lr, -4
	.cfi_offset r7, -8
	.pad	#8
	sub	sp, #8
	.cfi_def_cfa_offset 16
	movs	r0, #0
.Ltmp471:
	.loc	3 1487 15 prologue_end          @ rt-thread/components/drivers/wlan/wlan_mgnt.c:1487:15
	str	r0, [sp]
.Ltmp472:
	.loc	3 1489 9                        @ rt-thread/components/drivers/wlan/wlan_mgnt.c:1489:9
	bl	_ap_is_null
.Ltmp473:
	.loc	3 1489 9 is_stmt 0              @ rt-thread/components/drivers/wlan/wlan_mgnt.c:1489:9
	cbz	r0, .LBB22_2
	b	.LBB22_1
.LBB22_1:
	.loc	3 0 9                           @ rt-thread/components/drivers/wlan/wlan_mgnt.c:0:9
	movs	r0, #0
.Ltmp474:
	.loc	3 1491 9 is_stmt 1              @ rt-thread/components/drivers/wlan/wlan_mgnt.c:1491:9
	str	r0, [sp, #4]
	b	.LBB22_3
.Ltmp475:
.LBB22_2:
	.loc	3 1494 24                       @ rt-thread/components/drivers/wlan/wlan_mgnt.c:1494:24
	movw	r0, :lower16:_ap_mgnt
	movt	r0, :upper16:_ap_mgnt
	.loc	3 1494 15 is_stmt 0             @ rt-thread/components/drivers/wlan/wlan_mgnt.c:1494:15
	ldrb.w	r0, [r0, #98]
	.loc	3 1494 30                       @ rt-thread/components/drivers/wlan/wlan_mgnt.c:1494:30
	and	r0, r0, #1
	.loc	3 1494 13                       @ rt-thread/components/drivers/wlan/wlan_mgnt.c:1494:13
	str	r0, [sp]
	.loc	3 1496 12 is_stmt 1             @ rt-thread/components/drivers/wlan/wlan_mgnt.c:1496:12
	ldr	r0, [sp]
	.loc	3 1496 5 is_stmt 0              @ rt-thread/components/drivers/wlan/wlan_mgnt.c:1496:5
	str	r0, [sp, #4]
	b	.LBB22_3
.LBB22_3:
	.loc	3 1497 1 is_stmt 1              @ rt-thread/components/drivers/wlan/wlan_mgnt.c:1497:1
	ldr	r0, [sp, #4]
	add	sp, #8
	pop	{r7, pc}
.Ltmp476:
.Lfunc_end22:
	.size	rt_wlan_ap_is_active, .Lfunc_end22-rt_wlan_ap_is_active
	.cfi_endproc
	.cantunwind
	.fnend
                                        @ -- End function
	.section	.text.rt_wlan_ap_stop,"ax",%progbits
	.hidden	rt_wlan_ap_stop                 @ -- Begin function rt_wlan_ap_stop
	.globl	rt_wlan_ap_stop
	.p2align	3
	.type	rt_wlan_ap_stop,%function
	.code	16                              @ @rt_wlan_ap_stop
	.thumb_func
rt_wlan_ap_stop:
.Lfunc_begin23:
	.loc	3 1500 0                        @ rt-thread/components/drivers/wlan/wlan_mgnt.c:1500:0
	.fnstart
	.cfi_startproc
@ %bb.0:
	.save	{r7, lr}
	push	{r7, lr}
	.cfi_def_cfa_offset 8
	.cfi_offset lr, -4
	.cfi_offset r7, -8
	.pad	#24
	sub	sp, #24
	.cfi_def_cfa_offset 32
	movs	r0, #0
.Ltmp477:
	.loc	3 1501 14 prologue_end          @ rt-thread/components/drivers/wlan/wlan_mgnt.c:1501:14
	str	r0, [sp, #16]
	.loc	3 1503 17                       @ rt-thread/components/drivers/wlan/wlan_mgnt.c:1503:17
	str	r0, [sp, #8]
	.loc	3 1503 26 is_stmt 0             @ rt-thread/components/drivers/wlan/wlan_mgnt.c:1503:26
	str	r0, [sp, #4]
.Ltmp478:
	.loc	3 1505 9 is_stmt 1              @ rt-thread/components/drivers/wlan/wlan_mgnt.c:1505:9
	bl	_ap_is_null
.Ltmp479:
	.loc	3 1505 9 is_stmt 0              @ rt-thread/components/drivers/wlan/wlan_mgnt.c:1505:9
	cbz	r0, .LBB23_2
	b	.LBB23_1
.LBB23_1:
	.loc	3 0 9                           @ rt-thread/components/drivers/wlan/wlan_mgnt.c:0:9
	mvn	r0, #7
.Ltmp480:
	.loc	3 1507 9 is_stmt 1              @ rt-thread/components/drivers/wlan/wlan_mgnt.c:1507:9
	str	r0, [sp, #20]
	b	.LBB23_15
.Ltmp481:
.LBB23_2:
	.loc	3 1511 5                        @ rt-thread/components/drivers/wlan/wlan_mgnt.c:1511:5
	movw	r0, :lower16:mgnt_mutex
	movt	r0, :upper16:mgnt_mutex
	mov.w	r1, #-1
	bl	rt_mutex_take
	.loc	3 1513 16                       @ rt-thread/components/drivers/wlan/wlan_mgnt.c:1513:16
	movw	r0, :lower16:.L.str.34
	movt	r0, :upper16:.L.str.34
	bl	rt_wlan_complete_create
	.loc	3 1513 14 is_stmt 0             @ rt-thread/components/drivers/wlan/wlan_mgnt.c:1513:14
	str	r0, [sp, #12]
.Ltmp482:
	.loc	3 1514 9 is_stmt 1              @ rt-thread/components/drivers/wlan/wlan_mgnt.c:1514:9
	ldr	r0, [sp, #12]
.Ltmp483:
	.loc	3 1514 9 is_stmt 0              @ rt-thread/components/drivers/wlan/wlan_mgnt.c:1514:9
	cbnz	r0, .LBB23_4
	b	.LBB23_3
.LBB23_3:
.Ltmp484:
	.loc	3 1516 9 is_stmt 1              @ rt-thread/components/drivers/wlan/wlan_mgnt.c:1516:9
	movw	r0, :lower16:mgnt_mutex
	movt	r0, :upper16:mgnt_mutex
	bl	rt_mutex_release
	mvn	r0, #4
	.loc	3 1517 9                        @ rt-thread/components/drivers/wlan/wlan_mgnt.c:1517:9
	str	r0, [sp, #20]
	b	.LBB23_15
.Ltmp485:
.LBB23_4:
	.loc	3 1519 31                       @ rt-thread/components/drivers/wlan/wlan_mgnt.c:1519:31
	movw	r0, :lower16:_ap_mgnt
	movt	r0, :upper16:_ap_mgnt
	ldr	r0, [r0]
	.loc	3 1519 11 is_stmt 0             @ rt-thread/components/drivers/wlan/wlan_mgnt.c:1519:11
	bl	rt_wlan_dev_ap_stop
	.loc	3 1519 9                        @ rt-thread/components/drivers/wlan/wlan_mgnt.c:1519:9
	str	r0, [sp, #16]
.Ltmp486:
	.loc	3 1520 9 is_stmt 1              @ rt-thread/components/drivers/wlan/wlan_mgnt.c:1520:9
	ldr	r0, [sp, #16]
.Ltmp487:
	.loc	3 1520 9 is_stmt 0              @ rt-thread/components/drivers/wlan/wlan_mgnt.c:1520:9
	cbz	r0, .LBB23_8
	b	.LBB23_5
.LBB23_5:
.Ltmp488:
	.loc	3 1522 9 is_stmt 1              @ rt-thread/components/drivers/wlan/wlan_mgnt.c:1522:9
	b	.LBB23_6
.LBB23_6:
.Ltmp489:
	.loc	3 1522 9 is_stmt 0              @ rt-thread/components/drivers/wlan/wlan_mgnt.c:1522:9
	movw	r0, :lower16:.L.str
	movt	r0, :upper16:.L.str
	bl	rt_kprintf
	movw	r0, :lower16:.L.str.35
	movt	r0, :upper16:.L.str.35
	movw	r1, :lower16:.L__FUNCTION__.rt_wlan_ap_stop
	movt	r1, :upper16:.L__FUNCTION__.rt_wlan_ap_stop
	movw	r2, #1522
	bl	rt_kprintf
	movw	r0, :lower16:.L.str.2
	movt	r0, :upper16:.L.str.2
	bl	rt_kprintf
	b	.LBB23_7
.Ltmp490:
.LBB23_7:
	.loc	3 1523 33 is_stmt 1             @ rt-thread/components/drivers/wlan/wlan_mgnt.c:1523:33
	ldr	r0, [sp, #12]
	.loc	3 1523 9 is_stmt 0              @ rt-thread/components/drivers/wlan/wlan_mgnt.c:1523:9
	bl	rt_wlan_complete_delete
	.loc	3 1524 9 is_stmt 1              @ rt-thread/components/drivers/wlan/wlan_mgnt.c:1524:9
	movw	r0, :lower16:mgnt_mutex
	movt	r0, :upper16:mgnt_mutex
	bl	rt_mutex_release
	.loc	3 1525 16                       @ rt-thread/components/drivers/wlan/wlan_mgnt.c:1525:16
	ldr	r0, [sp, #16]
	.loc	3 1525 9 is_stmt 0              @ rt-thread/components/drivers/wlan/wlan_mgnt.c:1525:9
	str	r0, [sp, #20]
	b	.LBB23_15
.Ltmp491:
.LBB23_8:
	.loc	3 1528 9 is_stmt 1              @ rt-thread/components/drivers/wlan/wlan_mgnt.c:1528:9
	ldr	r0, [sp, #8]
	orr	r0, r0, #32
	str	r0, [sp, #8]
	.loc	3 1530 27                       @ rt-thread/components/drivers/wlan/wlan_mgnt.c:1530:27
	ldr	r0, [sp, #12]
	.loc	3 1530 37 is_stmt 0             @ rt-thread/components/drivers/wlan/wlan_mgnt.c:1530:37
	ldr	r1, [sp, #8]
	movw	r2, #10000
	add	r3, sp, #4
	.loc	3 1530 5                        @ rt-thread/components/drivers/wlan/wlan_mgnt.c:1530:5
	bl	rt_wlan_complete_wait
	.loc	3 1531 29 is_stmt 1             @ rt-thread/components/drivers/wlan/wlan_mgnt.c:1531:29
	ldr	r0, [sp, #12]
	.loc	3 1531 5 is_stmt 0              @ rt-thread/components/drivers/wlan/wlan_mgnt.c:1531:5
	bl	rt_wlan_complete_delete
	movs	r0, #32
	.loc	3 1533 9 is_stmt 1              @ rt-thread/components/drivers/wlan/wlan_mgnt.c:1533:9
	str	r0, [sp, #8]
.Ltmp492:
	.loc	3 1534 11                       @ rt-thread/components/drivers/wlan/wlan_mgnt.c:1534:11
	ldr	r0, [sp, #4]
	.loc	3 1534 20 is_stmt 0             @ rt-thread/components/drivers/wlan/wlan_mgnt.c:1534:20
	ldr	r1, [sp, #8]
.Ltmp493:
	.loc	3 1534 9                        @ rt-thread/components/drivers/wlan/wlan_mgnt.c:1534:9
	tst	r0, r1
	bne	.LBB23_12
	b	.LBB23_9
.LBB23_9:
.Ltmp494:
	.loc	3 1536 9 is_stmt 1              @ rt-thread/components/drivers/wlan/wlan_mgnt.c:1536:9
	b	.LBB23_10
.LBB23_10:
.Ltmp495:
	.loc	3 1536 9 is_stmt 0              @ rt-thread/components/drivers/wlan/wlan_mgnt.c:1536:9
	movw	r0, :lower16:.L.str.4
	movt	r0, :upper16:.L.str.4
	bl	rt_kprintf
	movw	r0, :lower16:.L.str.36
	movt	r0, :upper16:.L.str.36
	bl	rt_kprintf
	movw	r0, :lower16:.L.str.2
	movt	r0, :upper16:.L.str.2
	bl	rt_kprintf
	b	.LBB23_11
.Ltmp496:
.LBB23_11:
	.loc	3 1537 9 is_stmt 1              @ rt-thread/components/drivers/wlan/wlan_mgnt.c:1537:9
	movw	r0, :lower16:mgnt_mutex
	movt	r0, :upper16:mgnt_mutex
	bl	rt_mutex_release
	mov.w	r0, #-1
	.loc	3 1538 9                        @ rt-thread/components/drivers/wlan/wlan_mgnt.c:1538:9
	str	r0, [sp, #20]
	b	.LBB23_15
.Ltmp497:
.LBB23_12:
	.loc	3 1540 5                        @ rt-thread/components/drivers/wlan/wlan_mgnt.c:1540:5
	b	.LBB23_13
.LBB23_13:
.Ltmp498:
	.loc	3 1540 5 is_stmt 0              @ rt-thread/components/drivers/wlan/wlan_mgnt.c:1540:5
	movw	r0, :lower16:.L.str.4
	movt	r0, :upper16:.L.str.4
	bl	rt_kprintf
	movw	r0, :lower16:.L.str.37
	movt	r0, :upper16:.L.str.37
	bl	rt_kprintf
	movw	r0, :lower16:.L.str.2
	movt	r0, :upper16:.L.str.2
	bl	rt_kprintf
	b	.LBB23_14
.Ltmp499:
.LBB23_14:
	.loc	3 1541 5 is_stmt 1              @ rt-thread/components/drivers/wlan/wlan_mgnt.c:1541:5
	movw	r0, :lower16:mgnt_mutex
	movt	r0, :upper16:mgnt_mutex
	bl	rt_mutex_release
	.loc	3 1542 12                       @ rt-thread/components/drivers/wlan/wlan_mgnt.c:1542:12
	ldr	r0, [sp, #16]
	.loc	3 1542 5 is_stmt 0              @ rt-thread/components/drivers/wlan/wlan_mgnt.c:1542:5
	str	r0, [sp, #20]
	b	.LBB23_15
.LBB23_15:
	.loc	3 1543 1 is_stmt 1              @ rt-thread/components/drivers/wlan/wlan_mgnt.c:1543:1
	ldr	r0, [sp, #20]
	add	sp, #24
	pop	{r7, pc}
.Ltmp500:
.Lfunc_end23:
	.size	rt_wlan_ap_stop, .Lfunc_end23-rt_wlan_ap_stop
	.cfi_endproc
	.cantunwind
	.fnend
                                        @ -- End function
	.section	.text.rt_wlan_ap_get_info,"ax",%progbits
	.hidden	rt_wlan_ap_get_info             @ -- Begin function rt_wlan_ap_get_info
	.globl	rt_wlan_ap_get_info
	.p2align	3
	.type	rt_wlan_ap_get_info,%function
	.code	16                              @ @rt_wlan_ap_get_info
	.thumb_func
rt_wlan_ap_get_info:
.Lfunc_begin24:
	.loc	3 1546 0                        @ rt-thread/components/drivers/wlan/wlan_mgnt.c:1546:0
	.fnstart
	.cfi_startproc
@ %bb.0:
	.save	{r4, r5, r7, lr}
	push	{r4, r5, r7, lr}
	.cfi_def_cfa_offset 16
	.cfi_offset lr, -4
	.cfi_offset r7, -8
	.cfi_offset r5, -12
	.cfi_offset r4, -16
	.pad	#16
	sub	sp, #16
	.cfi_def_cfa_offset 32
	str	r0, [sp, #8]
.Ltmp501:
	.loc	3 1547 9 prologue_end           @ rt-thread/components/drivers/wlan/wlan_mgnt.c:1547:9
	bl	_ap_is_null
.Ltmp502:
	.loc	3 1547 9 is_stmt 0              @ rt-thread/components/drivers/wlan/wlan_mgnt.c:1547:9
	cbz	r0, .LBB24_2
	b	.LBB24_1
.LBB24_1:
	.loc	3 0 9                           @ rt-thread/components/drivers/wlan/wlan_mgnt.c:0:9
	mvn	r0, #7
.Ltmp503:
	.loc	3 1549 9 is_stmt 1              @ rt-thread/components/drivers/wlan/wlan_mgnt.c:1549:9
	str	r0, [sp, #12]
	b	.LBB24_5
.Ltmp504:
.LBB24_2:
	.loc	3 1553 9                        @ rt-thread/components/drivers/wlan/wlan_mgnt.c:1553:9
	bl	rt_wlan_ap_is_active
.Ltmp505:
	.loc	3 1553 9 is_stmt 0              @ rt-thread/components/drivers/wlan/wlan_mgnt.c:1553:9
	cmp	r0, #1
	bne	.LBB24_4
	b	.LBB24_3
.LBB24_3:
.Ltmp506:
	.loc	3 1555 10 is_stmt 1             @ rt-thread/components/drivers/wlan/wlan_mgnt.c:1555:10
	ldr	r1, [sp, #8]
	.loc	3 1555 26 is_stmt 0             @ rt-thread/components/drivers/wlan/wlan_mgnt.c:1555:26
	str	r1, [sp]                        @ 4-byte Spill
	movw	r3, :lower16:_ap_mgnt
	movt	r3, :upper16:_ap_mgnt
	str	r3, [sp, #4]                    @ 4-byte Spill
	ldr	r0, [r3, #4]
	ldr	r2, [r3, #8]
	ldr.w	r12, [r3, #12]
	ldr.w	lr, [r3, #16]
	ldr	r4, [r3, #20]
	ldr	r5, [r3, #24]
	str	r5, [r1, #20]
	str	r4, [r1, #16]
	str.w	lr, [r1, #12]
	str.w	r12, [r1, #8]
	str	r2, [r1, #4]
	str	r0, [r1]
	ldr	r0, [r3, #28]
	ldr	r2, [r3, #32]
	ldr.w	r12, [r3, #36]
	ldr.w	lr, [r3, #40]
	ldr	r4, [r3, #44]
	ldr	r5, [r3, #48]
	str	r5, [r1, #44]
	str	r4, [r1, #40]
	str.w	lr, [r1, #36]
	str.w	r12, [r1, #32]
	str	r2, [r1, #28]
	str	r0, [r1, #24]
	ldr	r0, [r3, #52]
	ldr	r2, [r3, #56]
	ldr	r3, [r3, #60]
	str	r3, [r1, #56]
	str	r2, [r1, #52]
	str	r0, [r1, #48]
	movs	r0, #0
	.loc	3 1556 9 is_stmt 1              @ rt-thread/components/drivers/wlan/wlan_mgnt.c:1556:9
	str	r0, [sp, #12]
	b	.LBB24_5
.Ltmp507:
.LBB24_4:
	.loc	3 0 9 is_stmt 0                 @ rt-thread/components/drivers/wlan/wlan_mgnt.c:0:9
	mov.w	r0, #-1
	.loc	3 1558 5 is_stmt 1              @ rt-thread/components/drivers/wlan/wlan_mgnt.c:1558:5
	str	r0, [sp, #12]
	b	.LBB24_5
.LBB24_5:
	.loc	3 1559 1                        @ rt-thread/components/drivers/wlan/wlan_mgnt.c:1559:1
	ldr	r0, [sp, #12]
	add	sp, #16
	pop	{r4, r5, r7, pc}
.Ltmp508:
.Lfunc_end24:
	.size	rt_wlan_ap_get_info, .Lfunc_end24-rt_wlan_ap_get_info
	.cfi_endproc
	.cantunwind
	.fnend
                                        @ -- End function
	.section	.text.rt_wlan_ap_get_sta_num,"ax",%progbits
	.hidden	rt_wlan_ap_get_sta_num          @ -- Begin function rt_wlan_ap_get_sta_num
	.globl	rt_wlan_ap_get_sta_num
	.p2align	3
	.type	rt_wlan_ap_get_sta_num,%function
	.code	16                              @ @rt_wlan_ap_get_sta_num
	.thumb_func
rt_wlan_ap_get_sta_num:
.Lfunc_begin25:
	.loc	3 1563 0                        @ rt-thread/components/drivers/wlan/wlan_mgnt.c:1563:0
	.fnstart
	.cfi_startproc
@ %bb.0:
	.save	{r7, lr}
	push	{r7, lr}
	.cfi_def_cfa_offset 8
	.cfi_offset lr, -4
	.cfi_offset r7, -8
	.pad	#8
	sub	sp, #8
	.cfi_def_cfa_offset 16
	movs	r0, #0
.Ltmp509:
	.loc	3 1564 9 prologue_end           @ rt-thread/components/drivers/wlan/wlan_mgnt.c:1564:9
	str	r0, [sp, #4]
	.loc	3 1566 5                        @ rt-thread/components/drivers/wlan/wlan_mgnt.c:1566:5
	movw	r0, :lower16:sta_info_mutex
	movt	r0, :upper16:sta_info_mutex
	str	r0, [sp]                        @ 4-byte Spill
	mov.w	r1, #-1
	bl	rt_mutex_take
                                        @ kill: def $r1 killed $r0
	.loc	3 1567 24                       @ rt-thread/components/drivers/wlan/wlan_mgnt.c:1567:24
	ldr	r0, [sp]                        @ 4-byte Reload
	movw	r1, :lower16:sta_info
	movt	r1, :upper16:sta_info
	ldr	r1, [r1]
	.loc	3 1567 13 is_stmt 0             @ rt-thread/components/drivers/wlan/wlan_mgnt.c:1567:13
	str	r1, [sp, #4]
	.loc	3 1568 5 is_stmt 1              @ rt-thread/components/drivers/wlan/wlan_mgnt.c:1568:5
	bl	rt_mutex_release
	.loc	3 1570 12                       @ rt-thread/components/drivers/wlan/wlan_mgnt.c:1570:12
	ldr	r0, [sp, #4]
	.loc	3 1570 5 is_stmt 0              @ rt-thread/components/drivers/wlan/wlan_mgnt.c:1570:5
	add	sp, #8
	pop	{r7, pc}
.Ltmp510:
.Lfunc_end25:
	.size	rt_wlan_ap_get_sta_num, .Lfunc_end25-rt_wlan_ap_get_sta_num
	.cfi_endproc
	.cantunwind
	.fnend
                                        @ -- End function
	.section	.text.rt_wlan_ap_get_sta_info,"ax",%progbits
	.hidden	rt_wlan_ap_get_sta_info         @ -- Begin function rt_wlan_ap_get_sta_info
	.globl	rt_wlan_ap_get_sta_info
	.p2align	3
	.type	rt_wlan_ap_get_sta_info,%function
	.code	16                              @ @rt_wlan_ap_get_sta_info
	.thumb_func
rt_wlan_ap_get_sta_info:
.Lfunc_begin26:
	.loc	3 1575 0 is_stmt 1              @ rt-thread/components/drivers/wlan/wlan_mgnt.c:1575:0
	.fnstart
	.cfi_startproc
@ %bb.0:
	.save	{r4, r5, r6, r7, lr}
	push	{r4, r5, r6, r7, lr}
	.cfi_def_cfa_offset 20
	.cfi_offset lr, -4
	.cfi_offset r7, -8
	.cfi_offset r6, -12
	.cfi_offset r5, -16
	.cfi_offset r4, -20
	.pad	#36
	sub	sp, #36
	.cfi_def_cfa_offset 56
	str	r0, [sp, #32]
	str	r1, [sp, #28]
	movs	r0, #0
.Ltmp511:
	.loc	3 1576 9 prologue_end           @ rt-thread/components/drivers/wlan/wlan_mgnt.c:1576:9
	str	r0, [sp, #24]
	.loc	3 1576 22 is_stmt 0             @ rt-thread/components/drivers/wlan/wlan_mgnt.c:1576:22
	str	r0, [sp, #20]
	.loc	3 1579 5 is_stmt 1              @ rt-thread/components/drivers/wlan/wlan_mgnt.c:1579:5
	movw	r0, :lower16:sta_info_mutex
	movt	r0, :upper16:sta_info_mutex
	mov.w	r1, #-1
	bl	rt_mutex_take
	.loc	3 1581 24                       @ rt-thread/components/drivers/wlan/wlan_mgnt.c:1581:24
	movw	r0, :lower16:sta_info
	movt	r0, :upper16:sta_info
	ldr	r0, [r0]
	.loc	3 1581 30 is_stmt 0             @ rt-thread/components/drivers/wlan/wlan_mgnt.c:1581:30
	ldr	r1, [sp, #28]
	.loc	3 1581 15                       @ rt-thread/components/drivers/wlan/wlan_mgnt.c:1581:15
	cmp	r0, r1
	ble	.LBB26_2
	b	.LBB26_1
.LBB26_1:
	.loc	3 1581 36                       @ rt-thread/components/drivers/wlan/wlan_mgnt.c:1581:36
	ldr	r0, [sp, #28]
	.loc	3 1581 15                       @ rt-thread/components/drivers/wlan/wlan_mgnt.c:1581:15
	str	r0, [sp, #12]                   @ 4-byte Spill
	b	.LBB26_3
.LBB26_2:
	.loc	3 1581 51                       @ rt-thread/components/drivers/wlan/wlan_mgnt.c:1581:51
	movw	r0, :lower16:sta_info
	movt	r0, :upper16:sta_info
	ldr	r0, [r0]
	.loc	3 1581 15                       @ rt-thread/components/drivers/wlan/wlan_mgnt.c:1581:15
	str	r0, [sp, #12]                   @ 4-byte Spill
	b	.LBB26_3
.LBB26_3:
	ldr	r0, [sp, #12]                   @ 4-byte Reload
	.loc	3 1581 13                       @ rt-thread/components/drivers/wlan/wlan_mgnt.c:1581:13
	str	r0, [sp, #24]
.Ltmp512:
	.loc	3 1582 30 is_stmt 1             @ rt-thread/components/drivers/wlan/wlan_mgnt.c:1582:30
	movw	r0, :lower16:sta_info
	movt	r0, :upper16:sta_info
	ldr	r0, [r0, #4]
	.loc	3 1582 19 is_stmt 0             @ rt-thread/components/drivers/wlan/wlan_mgnt.c:1582:19
	str	r0, [sp, #16]
	.loc	3 1582 10                       @ rt-thread/components/drivers/wlan/wlan_mgnt.c:1582:10
	b	.LBB26_4
.LBB26_4:                               @ =>This Inner Loop Header: Depth=1
.Ltmp513:
	.loc	3 1582 36                       @ rt-thread/components/drivers/wlan/wlan_mgnt.c:1582:36
	ldr	r1, [sp, #16]
	movs	r0, #0
	.loc	3 1582 56                       @ rt-thread/components/drivers/wlan/wlan_mgnt.c:1582:56
	str	r0, [sp, #8]                    @ 4-byte Spill
	cbz	r1, .LBB26_6
	b	.LBB26_5
.LBB26_5:                               @   in Loop: Header=BB26_4 Depth=1
	.loc	3 1582 59                       @ rt-thread/components/drivers/wlan/wlan_mgnt.c:1582:59
	ldr	r1, [sp, #20]
	.loc	3 1582 63                       @ rt-thread/components/drivers/wlan/wlan_mgnt.c:1582:63
	ldr	r2, [sp, #24]
	movs	r0, #0
	.loc	3 1582 61                       @ rt-thread/components/drivers/wlan/wlan_mgnt.c:1582:61
	cmp	r1, r2
	it	lt
	movlt	r0, #1
	str	r0, [sp, #8]                    @ 4-byte Spill
	b	.LBB26_6
.LBB26_6:                               @   in Loop: Header=BB26_4 Depth=1
	.loc	3 0 0                           @ rt-thread/components/drivers/wlan/wlan_mgnt.c:0:0
	ldr	r0, [sp, #8]                    @ 4-byte Reload
.Ltmp514:
	.loc	3 1582 5                        @ rt-thread/components/drivers/wlan/wlan_mgnt.c:1582:5
	lsls	r0, r0, #31
	cbz	r0, .LBB26_9
	b	.LBB26_7
.LBB26_7:                               @   in Loop: Header=BB26_4 Depth=1
.Ltmp515:
	.loc	3 1584 9 is_stmt 1              @ rt-thread/components/drivers/wlan/wlan_mgnt.c:1584:9
	ldr	r6, [sp, #32]
	.loc	3 1584 14 is_stmt 0             @ rt-thread/components/drivers/wlan/wlan_mgnt.c:1584:14
	ldr	r0, [sp, #20]
	.loc	3 1584 9                        @ rt-thread/components/drivers/wlan/wlan_mgnt.c:1584:9
	rsb	r7, r0, r0, lsl #4
	add.w	r1, r6, r7, lsl #2
	.loc	3 1584 19                       @ rt-thread/components/drivers/wlan/wlan_mgnt.c:1584:19
	str	r1, [sp]                        @ 4-byte Spill
	ldr	r3, [sp, #16]
	.loc	3 1584 29                       @ rt-thread/components/drivers/wlan/wlan_mgnt.c:1584:29
	str	r3, [sp, #4]                    @ 4-byte Spill
	ldr.w	lr, [r3, #20]
	ldr	r4, [r3, #24]
	ldr	r5, [r3, #4]
	ldr	r0, [r3, #8]
	ldr	r2, [r3, #12]
	ldr.w	r12, [r3, #16]
	str.w	r5, [r6, r7, lsl #2]
	str	r4, [r1, #20]
	str.w	lr, [r1, #16]
	str.w	r12, [r1, #12]
	str	r2, [r1, #8]
	str	r0, [r1, #4]
	ldr	r0, [r3, #28]
	ldr	r2, [r3, #32]
	ldr.w	r12, [r3, #36]
	ldr.w	lr, [r3, #40]
	ldr	r4, [r3, #44]
	ldr	r5, [r3, #48]
	str	r5, [r1, #44]
	str	r4, [r1, #40]
	str.w	lr, [r1, #36]
	str.w	r12, [r1, #32]
	str	r2, [r1, #28]
	str	r0, [r1, #24]
	ldr	r0, [r3, #52]
	ldr	r2, [r3, #56]
	ldr	r3, [r3, #60]
	str	r3, [r1, #56]
	str	r2, [r1, #52]
	str	r0, [r1, #48]
	.loc	3 1585 11 is_stmt 1             @ rt-thread/components/drivers/wlan/wlan_mgnt.c:1585:11
	ldr	r0, [sp, #20]
	adds	r0, #1
	str	r0, [sp, #20]
	.loc	3 1586 5                        @ rt-thread/components/drivers/wlan/wlan_mgnt.c:1586:5
	b	.LBB26_8
.Ltmp516:
.LBB26_8:                               @   in Loop: Header=BB26_4 Depth=1
	.loc	3 1582 83                       @ rt-thread/components/drivers/wlan/wlan_mgnt.c:1582:83
	ldr	r0, [sp, #16]
	.loc	3 1582 93 is_stmt 0             @ rt-thread/components/drivers/wlan/wlan_mgnt.c:1582:93
	ldr	r0, [r0]
	.loc	3 1582 81                       @ rt-thread/components/drivers/wlan/wlan_mgnt.c:1582:81
	str	r0, [sp, #16]
	.loc	3 1582 5                        @ rt-thread/components/drivers/wlan/wlan_mgnt.c:1582:5
	b	.LBB26_4
.Ltmp517:
.LBB26_9:
	.loc	3 1587 5 is_stmt 1              @ rt-thread/components/drivers/wlan/wlan_mgnt.c:1587:5
	movw	r0, :lower16:sta_info_mutex
	movt	r0, :upper16:sta_info_mutex
	bl	rt_mutex_release
	.loc	3 1589 12                       @ rt-thread/components/drivers/wlan/wlan_mgnt.c:1589:12
	ldr	r0, [sp, #20]
	.loc	3 1589 5 is_stmt 0              @ rt-thread/components/drivers/wlan/wlan_mgnt.c:1589:5
	add	sp, #36
	pop	{r4, r5, r6, r7, pc}
.Ltmp518:
.Lfunc_end26:
	.size	rt_wlan_ap_get_sta_info, .Lfunc_end26-rt_wlan_ap_get_sta_info
	.cfi_endproc
	.cantunwind
	.fnend
                                        @ -- End function
	.section	.text.rt_wlan_ap_deauth_sta,"ax",%progbits
	.hidden	rt_wlan_ap_deauth_sta           @ -- Begin function rt_wlan_ap_deauth_sta
	.globl	rt_wlan_ap_deauth_sta
	.p2align	3
	.type	rt_wlan_ap_deauth_sta,%function
	.code	16                              @ @rt_wlan_ap_deauth_sta
	.thumb_func
rt_wlan_ap_deauth_sta:
.Lfunc_begin27:
	.loc	3 1594 0 is_stmt 1              @ rt-thread/components/drivers/wlan/wlan_mgnt.c:1594:0
	.fnstart
	.cfi_startproc
@ %bb.0:
	.save	{r7, lr}
	push	{r7, lr}
	.cfi_def_cfa_offset 8
	.cfi_offset lr, -4
	.cfi_offset r7, -8
	.pad	#24
	sub	sp, #24
	.cfi_def_cfa_offset 32
	str	r0, [sp, #16]
	movs	r0, #0
.Ltmp519:
	.loc	3 1595 14 prologue_end          @ rt-thread/components/drivers/wlan/wlan_mgnt.c:1595:14
	str	r0, [sp, #12]
	.loc	3 1597 15                       @ rt-thread/components/drivers/wlan/wlan_mgnt.c:1597:15
	str	r0, [sp, #4]
.Ltmp520:
	.loc	3 1599 9                        @ rt-thread/components/drivers/wlan/wlan_mgnt.c:1599:9
	bl	_ap_is_null
.Ltmp521:
	.loc	3 1599 9 is_stmt 0              @ rt-thread/components/drivers/wlan/wlan_mgnt.c:1599:9
	cbz	r0, .LBB27_2
	b	.LBB27_1
.LBB27_1:
	.loc	3 0 9                           @ rt-thread/components/drivers/wlan/wlan_mgnt.c:0:9
	mvn	r0, #7
.Ltmp522:
	.loc	3 1601 9 is_stmt 1              @ rt-thread/components/drivers/wlan/wlan_mgnt.c:1601:9
	str	r0, [sp, #20]
	b	.LBB27_26
.Ltmp523:
.LBB27_2:
	.loc	3 1606 9                        @ rt-thread/components/drivers/wlan/wlan_mgnt.c:1606:9
	ldr	r0, [sp, #16]
.Ltmp524:
	.loc	3 1606 9 is_stmt 0              @ rt-thread/components/drivers/wlan/wlan_mgnt.c:1606:9
	cbnz	r0, .LBB27_6
	b	.LBB27_3
.LBB27_3:
.Ltmp525:
	.loc	3 1608 9 is_stmt 1              @ rt-thread/components/drivers/wlan/wlan_mgnt.c:1608:9
	b	.LBB27_4
.LBB27_4:
.Ltmp526:
	.loc	3 1608 9 is_stmt 0              @ rt-thread/components/drivers/wlan/wlan_mgnt.c:1608:9
	movw	r0, :lower16:.L.str
	movt	r0, :upper16:.L.str
	bl	rt_kprintf
	movw	r0, :lower16:.L.str.38
	movt	r0, :upper16:.L.str.38
	movw	r1, :lower16:.L__FUNCTION__.rt_wlan_ap_deauth_sta
	movt	r1, :upper16:.L__FUNCTION__.rt_wlan_ap_deauth_sta
	mov.w	r2, #1608
	bl	rt_kprintf
	movw	r0, :lower16:.L.str.2
	movt	r0, :upper16:.L.str.2
	bl	rt_kprintf
	b	.LBB27_5
.Ltmp527:
.LBB27_5:
	.loc	3 0 9                           @ rt-thread/components/drivers/wlan/wlan_mgnt.c:0:9
	mvn	r0, #9
	.loc	3 1609 9 is_stmt 1              @ rt-thread/components/drivers/wlan/wlan_mgnt.c:1609:9
	str	r0, [sp, #20]
	b	.LBB27_26
.Ltmp528:
.LBB27_6:
	.loc	3 1612 5                        @ rt-thread/components/drivers/wlan/wlan_mgnt.c:1612:5
	movw	r0, :lower16:mgnt_mutex
	movt	r0, :upper16:mgnt_mutex
	mov.w	r1, #-1
	bl	rt_mutex_take
.Ltmp529:
	.loc	3 1613 18                       @ rt-thread/components/drivers/wlan/wlan_mgnt.c:1613:18
	movw	r0, :lower16:sta_info
	movt	r0, :upper16:sta_info
	ldr	r0, [r0, #4]
	.loc	3 1613 34 is_stmt 0             @ rt-thread/components/drivers/wlan/wlan_mgnt.c:1613:34
	cbz	r0, .LBB27_8
	b	.LBB27_7
.LBB27_7:
	.loc	3 1613 46                       @ rt-thread/components/drivers/wlan/wlan_mgnt.c:1613:46
	movw	r0, :lower16:sta_info
	movt	r0, :upper16:sta_info
	ldr	r0, [r0]
.Ltmp530:
	.loc	3 1613 9                        @ rt-thread/components/drivers/wlan/wlan_mgnt.c:1613:9
	cbnz	r0, .LBB27_11
	b	.LBB27_8
.LBB27_8:
.Ltmp531:
	.loc	3 1615 9 is_stmt 1              @ rt-thread/components/drivers/wlan/wlan_mgnt.c:1615:9
	b	.LBB27_9
.LBB27_9:
.Ltmp532:
	.loc	3 1615 9 is_stmt 0              @ rt-thread/components/drivers/wlan/wlan_mgnt.c:1615:9
	movw	r0, :lower16:.L.str
	movt	r0, :upper16:.L.str
	bl	rt_kprintf
	movw	r0, :lower16:.L.str.39
	movt	r0, :upper16:.L.str.39
	movw	r1, :lower16:.L__FUNCTION__.rt_wlan_ap_deauth_sta
	movt	r1, :upper16:.L__FUNCTION__.rt_wlan_ap_deauth_sta
	movw	r2, #1615
	bl	rt_kprintf
	movw	r0, :lower16:.L.str.2
	movt	r0, :upper16:.L.str.2
	bl	rt_kprintf
	b	.LBB27_10
.Ltmp533:
.LBB27_10:
	.loc	3 1616 9 is_stmt 1              @ rt-thread/components/drivers/wlan/wlan_mgnt.c:1616:9
	movw	r0, :lower16:mgnt_mutex
	movt	r0, :upper16:mgnt_mutex
	bl	rt_mutex_release
	mov.w	r0, #-1
	.loc	3 1617 9                        @ rt-thread/components/drivers/wlan/wlan_mgnt.c:1617:9
	str	r0, [sp, #20]
	b	.LBB27_26
.Ltmp534:
.LBB27_11:
	.loc	3 1620 5                        @ rt-thread/components/drivers/wlan/wlan_mgnt.c:1620:5
	movw	r0, :lower16:sta_info_mutex
	movt	r0, :upper16:sta_info_mutex
	mov.w	r1, #-1
	bl	rt_mutex_take
.Ltmp535:
	.loc	3 1622 30                       @ rt-thread/components/drivers/wlan/wlan_mgnt.c:1622:30
	movw	r0, :lower16:sta_info
	movt	r0, :upper16:sta_info
	ldr	r0, [r0, #4]
	.loc	3 1622 19 is_stmt 0             @ rt-thread/components/drivers/wlan/wlan_mgnt.c:1622:19
	str	r0, [sp, #8]
	.loc	3 1622 10                       @ rt-thread/components/drivers/wlan/wlan_mgnt.c:1622:10
	b	.LBB27_12
.LBB27_12:                              @ =>This Inner Loop Header: Depth=1
.Ltmp536:
	.loc	3 1622 36                       @ rt-thread/components/drivers/wlan/wlan_mgnt.c:1622:36
	ldr	r0, [sp, #8]
.Ltmp537:
	.loc	3 1622 5                        @ rt-thread/components/drivers/wlan/wlan_mgnt.c:1622:5
	cbz	r0, .LBB27_17
	b	.LBB27_13
.LBB27_13:                              @   in Loop: Header=BB27_12 Depth=1
.Ltmp538:
	.loc	3 1624 24 is_stmt 1             @ rt-thread/components/drivers/wlan/wlan_mgnt.c:1624:24
	ldr	r0, [sp, #8]
	.loc	3 1624 39 is_stmt 0             @ rt-thread/components/drivers/wlan/wlan_mgnt.c:1624:39
	adds	r0, #54
	.loc	3 1624 50                       @ rt-thread/components/drivers/wlan/wlan_mgnt.c:1624:50
	ldr	r1, [sp, #16]
	movs	r2, #6
	.loc	3 1624 13                       @ rt-thread/components/drivers/wlan/wlan_mgnt.c:1624:13
	bl	rt_memcmp
.Ltmp539:
	.loc	3 1624 13                       @ rt-thread/components/drivers/wlan/wlan_mgnt.c:1624:13
	cbnz	r0, .LBB27_15
	b	.LBB27_14
.LBB27_14:
	.loc	3 0 13                          @ rt-thread/components/drivers/wlan/wlan_mgnt.c:0:13
	movs	r0, #1
.Ltmp540:
	.loc	3 1626 23 is_stmt 1             @ rt-thread/components/drivers/wlan/wlan_mgnt.c:1626:23
	str	r0, [sp, #4]
	.loc	3 1627 13                       @ rt-thread/components/drivers/wlan/wlan_mgnt.c:1627:13
	b	.LBB27_17
.Ltmp541:
.LBB27_15:                              @   in Loop: Header=BB27_12 Depth=1
	.loc	3 1629 5                        @ rt-thread/components/drivers/wlan/wlan_mgnt.c:1629:5
	b	.LBB27_16
.Ltmp542:
.LBB27_16:                              @   in Loop: Header=BB27_12 Depth=1
	.loc	3 1622 68                       @ rt-thread/components/drivers/wlan/wlan_mgnt.c:1622:68
	ldr	r0, [sp, #8]
	.loc	3 1622 78 is_stmt 0             @ rt-thread/components/drivers/wlan/wlan_mgnt.c:1622:78
	ldr	r0, [r0]
	.loc	3 1622 66                       @ rt-thread/components/drivers/wlan/wlan_mgnt.c:1622:66
	str	r0, [sp, #8]
	.loc	3 1622 5                        @ rt-thread/components/drivers/wlan/wlan_mgnt.c:1622:5
	b	.LBB27_12
.Ltmp543:
.LBB27_17:
	.loc	3 1630 5 is_stmt 1              @ rt-thread/components/drivers/wlan/wlan_mgnt.c:1630:5
	movw	r0, :lower16:sta_info_mutex
	movt	r0, :upper16:sta_info_mutex
	bl	rt_mutex_release
.Ltmp544:
	.loc	3 1633 9                        @ rt-thread/components/drivers/wlan/wlan_mgnt.c:1633:9
	ldr	r0, [sp, #4]
.Ltmp545:
	.loc	3 1633 9 is_stmt 0              @ rt-thread/components/drivers/wlan/wlan_mgnt.c:1633:9
	cmp	r0, #1
	beq	.LBB27_21
	b	.LBB27_18
.LBB27_18:
.Ltmp546:
	.loc	3 1635 9 is_stmt 1              @ rt-thread/components/drivers/wlan/wlan_mgnt.c:1635:9
	b	.LBB27_19
.LBB27_19:
.Ltmp547:
	.loc	3 1635 9 is_stmt 0              @ rt-thread/components/drivers/wlan/wlan_mgnt.c:1635:9
	movw	r0, :lower16:.L.str
	movt	r0, :upper16:.L.str
	bl	rt_kprintf
	movw	r0, :lower16:.L.str.40
	movt	r0, :upper16:.L.str.40
	movw	r1, :lower16:.L__FUNCTION__.rt_wlan_ap_deauth_sta
	movt	r1, :upper16:.L__FUNCTION__.rt_wlan_ap_deauth_sta
	movw	r2, #1635
	bl	rt_kprintf
	movw	r0, :lower16:.L.str.2
	movt	r0, :upper16:.L.str.2
	bl	rt_kprintf
	b	.LBB27_20
.Ltmp548:
.LBB27_20:
	.loc	3 1636 9 is_stmt 1              @ rt-thread/components/drivers/wlan/wlan_mgnt.c:1636:9
	movw	r0, :lower16:mgnt_mutex
	movt	r0, :upper16:mgnt_mutex
	bl	rt_mutex_release
	mov.w	r0, #-1
	.loc	3 1637 9                        @ rt-thread/components/drivers/wlan/wlan_mgnt.c:1637:9
	str	r0, [sp, #20]
	b	.LBB27_26
.Ltmp549:
.LBB27_21:
	.loc	3 1641 33                       @ rt-thread/components/drivers/wlan/wlan_mgnt.c:1641:33
	movw	r0, :lower16:_ap_mgnt
	movt	r0, :upper16:_ap_mgnt
	ldr	r0, [r0]
	.loc	3 1641 46 is_stmt 0             @ rt-thread/components/drivers/wlan/wlan_mgnt.c:1641:46
	ldr	r1, [sp, #16]
	.loc	3 1641 11                       @ rt-thread/components/drivers/wlan/wlan_mgnt.c:1641:11
	bl	rt_wlan_dev_ap_deauth
	.loc	3 1641 9                        @ rt-thread/components/drivers/wlan/wlan_mgnt.c:1641:9
	str	r0, [sp, #12]
.Ltmp550:
	.loc	3 1642 9 is_stmt 1              @ rt-thread/components/drivers/wlan/wlan_mgnt.c:1642:9
	ldr	r0, [sp, #12]
.Ltmp551:
	.loc	3 1642 9 is_stmt 0              @ rt-thread/components/drivers/wlan/wlan_mgnt.c:1642:9
	cbz	r0, .LBB27_25
	b	.LBB27_22
.LBB27_22:
.Ltmp552:
	.loc	3 1644 9 is_stmt 1              @ rt-thread/components/drivers/wlan/wlan_mgnt.c:1644:9
	b	.LBB27_23
.LBB27_23:
.Ltmp553:
	.loc	3 1644 9 is_stmt 0              @ rt-thread/components/drivers/wlan/wlan_mgnt.c:1644:9
	movw	r0, :lower16:.L.str
	movt	r0, :upper16:.L.str
	bl	rt_kprintf
	movw	r0, :lower16:.L.str.41
	movt	r0, :upper16:.L.str.41
	movw	r1, :lower16:.L__FUNCTION__.rt_wlan_ap_deauth_sta
	movt	r1, :upper16:.L__FUNCTION__.rt_wlan_ap_deauth_sta
	movw	r2, #1644
	bl	rt_kprintf
	movw	r0, :lower16:.L.str.2
	movt	r0, :upper16:.L.str.2
	bl	rt_kprintf
	b	.LBB27_24
.Ltmp554:
.LBB27_24:
	.loc	3 1645 9 is_stmt 1              @ rt-thread/components/drivers/wlan/wlan_mgnt.c:1645:9
	movw	r0, :lower16:mgnt_mutex
	movt	r0, :upper16:mgnt_mutex
	bl	rt_mutex_release
	.loc	3 1646 16                       @ rt-thread/components/drivers/wlan/wlan_mgnt.c:1646:16
	ldr	r0, [sp, #12]
	.loc	3 1646 9 is_stmt 0              @ rt-thread/components/drivers/wlan/wlan_mgnt.c:1646:9
	str	r0, [sp, #20]
	b	.LBB27_26
.Ltmp555:
.LBB27_25:
	.loc	3 1649 5 is_stmt 1              @ rt-thread/components/drivers/wlan/wlan_mgnt.c:1649:5
	movw	r0, :lower16:mgnt_mutex
	movt	r0, :upper16:mgnt_mutex
	bl	rt_mutex_release
	.loc	3 1650 12                       @ rt-thread/components/drivers/wlan/wlan_mgnt.c:1650:12
	ldr	r0, [sp, #12]
	.loc	3 1650 5 is_stmt 0              @ rt-thread/components/drivers/wlan/wlan_mgnt.c:1650:5
	str	r0, [sp, #20]
	b	.LBB27_26
.LBB27_26:
	.loc	3 1651 1 is_stmt 1              @ rt-thread/components/drivers/wlan/wlan_mgnt.c:1651:1
	ldr	r0, [sp, #20]
	add	sp, #24
	pop	{r7, pc}
.Ltmp556:
.Lfunc_end27:
	.size	rt_wlan_ap_deauth_sta, .Lfunc_end27-rt_wlan_ap_deauth_sta
	.cfi_endproc
	.cantunwind
	.fnend
                                        @ -- End function
	.section	.text.rt_wlan_ap_set_country,"ax",%progbits
	.hidden	rt_wlan_ap_set_country          @ -- Begin function rt_wlan_ap_set_country
	.globl	rt_wlan_ap_set_country
	.p2align	3
	.type	rt_wlan_ap_set_country,%function
	.code	16                              @ @rt_wlan_ap_set_country
	.thumb_func
rt_wlan_ap_set_country:
.Lfunc_begin28:
	.loc	3 1654 0                        @ rt-thread/components/drivers/wlan/wlan_mgnt.c:1654:0
	.fnstart
	.cfi_startproc
@ %bb.0:
	.save	{r7, lr}
	push	{r7, lr}
	.cfi_def_cfa_offset 8
	.cfi_offset lr, -4
	.cfi_offset r7, -8
	.pad	#16
	sub	sp, #16
	.cfi_def_cfa_offset 24
                                        @ kill: def $r1 killed $r0
	strb.w	r0, [sp, #11]
	movs	r0, #0
.Ltmp557:
	.loc	3 1655 14 prologue_end          @ rt-thread/components/drivers/wlan/wlan_mgnt.c:1655:14
	str	r0, [sp, #4]
.Ltmp558:
	.loc	3 1657 9                        @ rt-thread/components/drivers/wlan/wlan_mgnt.c:1657:9
	bl	_ap_is_null
.Ltmp559:
	.loc	3 1657 9 is_stmt 0              @ rt-thread/components/drivers/wlan/wlan_mgnt.c:1657:9
	cbz	r0, .LBB28_2
	b	.LBB28_1
.LBB28_1:
	.loc	3 0 9                           @ rt-thread/components/drivers/wlan/wlan_mgnt.c:0:9
	mvn	r0, #7
.Ltmp560:
	.loc	3 1659 9 is_stmt 1              @ rt-thread/components/drivers/wlan/wlan_mgnt.c:1659:9
	str	r0, [sp, #12]
	b	.LBB28_3
.Ltmp561:
.LBB28_2:
	.loc	3 1662 5                        @ rt-thread/components/drivers/wlan/wlan_mgnt.c:1662:5
	movw	r0, :lower16:mgnt_mutex
	movt	r0, :upper16:mgnt_mutex
	str	r0, [sp]                        @ 4-byte Spill
	mov.w	r1, #-1
	bl	rt_mutex_take
	.loc	3 1663 35                       @ rt-thread/components/drivers/wlan/wlan_mgnt.c:1663:35
	movw	r0, :lower16:_ap_mgnt
	movt	r0, :upper16:_ap_mgnt
	ldr	r0, [r0]
	.loc	3 1663 48 is_stmt 0             @ rt-thread/components/drivers/wlan/wlan_mgnt.c:1663:48
	ldrb.w	r1, [sp, #11]
	.loc	3 1663 11                       @ rt-thread/components/drivers/wlan/wlan_mgnt.c:1663:11
	bl	rt_wlan_dev_set_country
	mov	r1, r0
	.loc	3 1663 9                        @ rt-thread/components/drivers/wlan/wlan_mgnt.c:1663:9
	ldr	r0, [sp]                        @ 4-byte Reload
	str	r1, [sp, #4]
	.loc	3 1664 5 is_stmt 1              @ rt-thread/components/drivers/wlan/wlan_mgnt.c:1664:5
	bl	rt_mutex_release
	.loc	3 1665 12                       @ rt-thread/components/drivers/wlan/wlan_mgnt.c:1665:12
	ldr	r0, [sp, #4]
	.loc	3 1665 5 is_stmt 0              @ rt-thread/components/drivers/wlan/wlan_mgnt.c:1665:5
	str	r0, [sp, #12]
	b	.LBB28_3
.LBB28_3:
	.loc	3 1666 1 is_stmt 1              @ rt-thread/components/drivers/wlan/wlan_mgnt.c:1666:1
	ldr	r0, [sp, #12]
	add	sp, #16
	pop	{r7, pc}
.Ltmp562:
.Lfunc_end28:
	.size	rt_wlan_ap_set_country, .Lfunc_end28-rt_wlan_ap_set_country
	.cfi_endproc
	.cantunwind
	.fnend
                                        @ -- End function
	.section	.text.rt_wlan_ap_get_country,"ax",%progbits
	.hidden	rt_wlan_ap_get_country          @ -- Begin function rt_wlan_ap_get_country
	.globl	rt_wlan_ap_get_country
	.p2align	3
	.type	rt_wlan_ap_get_country,%function
	.code	16                              @ @rt_wlan_ap_get_country
	.thumb_func
rt_wlan_ap_get_country:
.Lfunc_begin29:
	.loc	3 1669 0                        @ rt-thread/components/drivers/wlan/wlan_mgnt.c:1669:0
	.fnstart
	.cfi_startproc
@ %bb.0:
	.save	{r7, lr}
	push	{r7, lr}
	.cfi_def_cfa_offset 8
	.cfi_offset lr, -4
	.cfi_offset r7, -8
	.pad	#8
	sub	sp, #8
	.cfi_def_cfa_offset 16
	movs	r0, #232
.Ltmp563:
	.loc	3 1670 23 prologue_end          @ rt-thread/components/drivers/wlan/wlan_mgnt.c:1670:23
	strb.w	r0, [sp, #6]
.Ltmp564:
	.loc	3 1672 9                        @ rt-thread/components/drivers/wlan/wlan_mgnt.c:1672:9
	bl	_ap_is_null
.Ltmp565:
	.loc	3 1672 9 is_stmt 0              @ rt-thread/components/drivers/wlan/wlan_mgnt.c:1672:9
	cbz	r0, .LBB29_2
	b	.LBB29_1
.LBB29_1:
.Ltmp566:
	.loc	3 1674 16 is_stmt 1             @ rt-thread/components/drivers/wlan/wlan_mgnt.c:1674:16
	ldrb.w	r0, [sp, #6]
	.loc	3 1674 9 is_stmt 0              @ rt-thread/components/drivers/wlan/wlan_mgnt.c:1674:9
	strb.w	r0, [sp, #7]
	b	.LBB29_3
.Ltmp567:
.LBB29_2:
	.loc	3 1676 5 is_stmt 1              @ rt-thread/components/drivers/wlan/wlan_mgnt.c:1676:5
	movw	r0, :lower16:mgnt_mutex
	movt	r0, :upper16:mgnt_mutex
	str	r0, [sp]                        @ 4-byte Spill
	mov.w	r1, #-1
	bl	rt_mutex_take
	.loc	3 1677 44                       @ rt-thread/components/drivers/wlan/wlan_mgnt.c:1677:44
	movw	r0, :lower16:_ap_mgnt
	movt	r0, :upper16:_ap_mgnt
	ldr	r0, [r0]
	.loc	3 1677 20 is_stmt 0             @ rt-thread/components/drivers/wlan/wlan_mgnt.c:1677:20
	bl	rt_wlan_dev_get_country
	mov	r1, r0
	.loc	3 1677 18                       @ rt-thread/components/drivers/wlan/wlan_mgnt.c:1677:18
	ldr	r0, [sp]                        @ 4-byte Reload
	strb.w	r1, [sp, #6]
	.loc	3 1679 5 is_stmt 1              @ rt-thread/components/drivers/wlan/wlan_mgnt.c:1679:5
	bl	rt_mutex_release
	.loc	3 1680 12                       @ rt-thread/components/drivers/wlan/wlan_mgnt.c:1680:12
	ldrb.w	r0, [sp, #6]
	.loc	3 1680 5 is_stmt 0              @ rt-thread/components/drivers/wlan/wlan_mgnt.c:1680:5
	strb.w	r0, [sp, #7]
	b	.LBB29_3
.LBB29_3:
	.loc	3 1681 1 is_stmt 1              @ rt-thread/components/drivers/wlan/wlan_mgnt.c:1681:1
	ldrb.w	r0, [sp, #7]
	add	sp, #8
	pop	{r7, pc}
.Ltmp568:
.Lfunc_end29:
	.size	rt_wlan_ap_get_country, .Lfunc_end29-rt_wlan_ap_get_country
	.cfi_endproc
	.cantunwind
	.fnend
                                        @ -- End function
	.section	.text.rt_wlan_config_autoreconnect,"ax",%progbits
	.hidden	rt_wlan_config_autoreconnect    @ -- Begin function rt_wlan_config_autoreconnect
	.globl	rt_wlan_config_autoreconnect
	.p2align	3
	.type	rt_wlan_config_autoreconnect,%function
	.code	16                              @ @rt_wlan_config_autoreconnect
	.thumb_func
rt_wlan_config_autoreconnect:
.Lfunc_begin30:
	.loc	3 1684 0                        @ rt-thread/components/drivers/wlan/wlan_mgnt.c:1684:0
	.fnstart
	.cfi_startproc
@ %bb.0:
	.save	{r7, lr}
	push	{r7, lr}
	.cfi_def_cfa_offset 8
	.cfi_offset lr, -4
	.cfi_offset r7, -8
	.pad	#8
	sub	sp, #8
	.cfi_def_cfa_offset 16
	str	r0, [sp, #4]
.Ltmp569:
	.loc	3 1688 5 prologue_end           @ rt-thread/components/drivers/wlan/wlan_mgnt.c:1688:5
	movw	r0, :lower16:mgnt_mutex
	movt	r0, :upper16:mgnt_mutex
	mov.w	r1, #-1
	bl	rt_mutex_take
.Ltmp570:
	.loc	3 1689 9                        @ rt-thread/components/drivers/wlan/wlan_mgnt.c:1689:9
	ldr	r0, [sp, #4]
.Ltmp571:
	.loc	3 1689 9 is_stmt 0              @ rt-thread/components/drivers/wlan/wlan_mgnt.c:1689:9
	cbz	r0, .LBB30_2
	b	.LBB30_1
.LBB30_1:
.Ltmp572:
	.loc	3 1691 9 is_stmt 1              @ rt-thread/components/drivers/wlan/wlan_mgnt.c:1691:9
	movw	r0, :lower16:reconnect_time
	movt	r0, :upper16:reconnect_time
	bl	rt_timer_start
	.loc	3 1692 25                       @ rt-thread/components/drivers/wlan/wlan_mgnt.c:1692:25
	movw	r1, :lower16:_sta_mgnt
	movt	r1, :upper16:_sta_mgnt
	ldrb.w	r0, [r1, #99]
	orr	r0, r0, #1
	strb.w	r0, [r1, #99]
	.loc	3 1693 5                        @ rt-thread/components/drivers/wlan/wlan_mgnt.c:1693:5
	b	.LBB30_3
.Ltmp573:
.LBB30_2:
	.loc	3 1696 9                        @ rt-thread/components/drivers/wlan/wlan_mgnt.c:1696:9
	movw	r0, :lower16:reconnect_time
	movt	r0, :upper16:reconnect_time
	bl	rt_timer_stop
	.loc	3 1697 25                       @ rt-thread/components/drivers/wlan/wlan_mgnt.c:1697:25
	movw	r1, :lower16:_sta_mgnt
	movt	r1, :upper16:_sta_mgnt
	ldrb.w	r0, [r1, #99]
	and	r0, r0, #254
	strb.w	r0, [r1, #99]
	b	.LBB30_3
.Ltmp574:
.LBB30_3:
	.loc	3 1699 5                        @ rt-thread/components/drivers/wlan/wlan_mgnt.c:1699:5
	movw	r0, :lower16:mgnt_mutex
	movt	r0, :upper16:mgnt_mutex
	bl	rt_mutex_release
	.loc	3 1701 1                        @ rt-thread/components/drivers/wlan/wlan_mgnt.c:1701:1
	add	sp, #8
	pop	{r7, pc}
.Ltmp575:
.Lfunc_end30:
	.size	rt_wlan_config_autoreconnect, .Lfunc_end30-rt_wlan_config_autoreconnect
	.cfi_endproc
	.cantunwind
	.fnend
                                        @ -- End function
	.section	.text.rt_wlan_get_autoreconnect_mode,"ax",%progbits
	.hidden	rt_wlan_get_autoreconnect_mode  @ -- Begin function rt_wlan_get_autoreconnect_mode
	.globl	rt_wlan_get_autoreconnect_mode
	.p2align	3
	.type	rt_wlan_get_autoreconnect_mode,%function
	.code	16                              @ @rt_wlan_get_autoreconnect_mode
	.thumb_func
rt_wlan_get_autoreconnect_mode:
.Lfunc_begin31:
	.loc	3 1704 0                        @ rt-thread/components/drivers/wlan/wlan_mgnt.c:1704:0
	.fnstart
	.cfi_startproc
@ %bb.0:
	.pad	#4
	sub	sp, #4
	.cfi_def_cfa_offset 4
	movs	r0, #0
.Ltmp576:
	.loc	3 1706 15 prologue_end          @ rt-thread/components/drivers/wlan/wlan_mgnt.c:1706:15
	str	r0, [sp]
	.loc	3 1708 24                       @ rt-thread/components/drivers/wlan/wlan_mgnt.c:1708:24
	movw	r0, :lower16:_sta_mgnt
	movt	r0, :upper16:_sta_mgnt
	.loc	3 1708 14 is_stmt 0             @ rt-thread/components/drivers/wlan/wlan_mgnt.c:1708:14
	ldrb.w	r0, [r0, #99]
	.loc	3 1708 30                       @ rt-thread/components/drivers/wlan/wlan_mgnt.c:1708:30
	and	r0, r0, #1
	.loc	3 1708 12                       @ rt-thread/components/drivers/wlan/wlan_mgnt.c:1708:12
	str	r0, [sp]
	.loc	3 1710 12 is_stmt 1             @ rt-thread/components/drivers/wlan/wlan_mgnt.c:1710:12
	ldr	r0, [sp]
	.loc	3 1710 5 is_stmt 0              @ rt-thread/components/drivers/wlan/wlan_mgnt.c:1710:5
	add	sp, #4
	bx	lr
.Ltmp577:
.Lfunc_end31:
	.size	rt_wlan_get_autoreconnect_mode, .Lfunc_end31-rt_wlan_get_autoreconnect_mode
	.cfi_endproc
	.cantunwind
	.fnend
                                        @ -- End function
	.section	.text.rt_wlan_scan,"ax",%progbits
	.hidden	rt_wlan_scan                    @ -- Begin function rt_wlan_scan
	.globl	rt_wlan_scan
	.p2align	3
	.type	rt_wlan_scan,%function
	.code	16                              @ @rt_wlan_scan
	.thumb_func
rt_wlan_scan:
.Lfunc_begin32:
	.loc	3 1719 0 is_stmt 1              @ rt-thread/components/drivers/wlan/wlan_mgnt.c:1719:0
	.fnstart
	.cfi_startproc
@ %bb.0:
	.save	{r7, lr}
	push	{r7, lr}
	.cfi_def_cfa_offset 8
	.cfi_offset lr, -4
	.cfi_offset r7, -8
	.pad	#16
	sub	sp, #16
	.cfi_def_cfa_offset 24
	movs	r0, #0
.Ltmp578:
	.loc	3 1720 14 prologue_end          @ rt-thread/components/drivers/wlan/wlan_mgnt.c:1720:14
	str	r0, [sp, #8]
.Ltmp579:
	.loc	3 1722 9                        @ rt-thread/components/drivers/wlan/wlan_mgnt.c:1722:9
	bl	_sta_is_null
.Ltmp580:
	.loc	3 1722 9 is_stmt 0              @ rt-thread/components/drivers/wlan/wlan_mgnt.c:1722:9
	cbz	r0, .LBB32_2
	b	.LBB32_1
.LBB32_1:
	.loc	3 0 9                           @ rt-thread/components/drivers/wlan/wlan_mgnt.c:0:9
	mvn	r0, #7
.Ltmp581:
	.loc	3 1724 9 is_stmt 1              @ rt-thread/components/drivers/wlan/wlan_mgnt.c:1724:9
	str	r0, [sp, #12]
	b	.LBB32_3
.Ltmp582:
.LBB32_2:
	.loc	3 1728 5                        @ rt-thread/components/drivers/wlan/wlan_mgnt.c:1728:5
	movw	r0, :lower16:mgnt_mutex
	movt	r0, :upper16:mgnt_mutex
	str	r0, [sp, #4]                    @ 4-byte Spill
	mov.w	r1, #-1
	bl	rt_mutex_take
	.loc	3 1729 28                       @ rt-thread/components/drivers/wlan/wlan_mgnt.c:1729:28
	movw	r0, :lower16:_sta_mgnt
	movt	r0, :upper16:_sta_mgnt
	ldr	r0, [r0]
	movs	r1, #0
	.loc	3 1729 11 is_stmt 0             @ rt-thread/components/drivers/wlan/wlan_mgnt.c:1729:11
	bl	rt_wlan_dev_scan
	mov	r1, r0
	.loc	3 1729 9                        @ rt-thread/components/drivers/wlan/wlan_mgnt.c:1729:9
	ldr	r0, [sp, #4]                    @ 4-byte Reload
	str	r1, [sp, #8]
	.loc	3 1730 5 is_stmt 1              @ rt-thread/components/drivers/wlan/wlan_mgnt.c:1730:5
	bl	rt_mutex_release
	.loc	3 1731 12                       @ rt-thread/components/drivers/wlan/wlan_mgnt.c:1731:12
	ldr	r0, [sp, #8]
	.loc	3 1731 5 is_stmt 0              @ rt-thread/components/drivers/wlan/wlan_mgnt.c:1731:5
	str	r0, [sp, #12]
	b	.LBB32_3
.LBB32_3:
	.loc	3 1732 1 is_stmt 1              @ rt-thread/components/drivers/wlan/wlan_mgnt.c:1732:1
	ldr	r0, [sp, #12]
	add	sp, #16
	pop	{r7, pc}
.Ltmp583:
.Lfunc_end32:
	.size	rt_wlan_scan, .Lfunc_end32-rt_wlan_scan
	.cfi_endproc
	.cantunwind
	.fnend
                                        @ -- End function
	.section	.text.rt_wlan_scan_with_info,"ax",%progbits
	.hidden	rt_wlan_scan_with_info          @ -- Begin function rt_wlan_scan_with_info
	.globl	rt_wlan_scan_with_info
	.p2align	3
	.type	rt_wlan_scan_with_info,%function
	.code	16                              @ @rt_wlan_scan_with_info
	.thumb_func
rt_wlan_scan_with_info:
.Lfunc_begin33:
	.loc	3 1746 0                        @ rt-thread/components/drivers/wlan/wlan_mgnt.c:1746:0
	.fnstart
	.cfi_startproc
@ %bb.0:
	.save	{r4, r5, r7, lr}
	push	{r4, r5, r7, lr}
	.cfi_def_cfa_offset 16
	.cfi_offset lr, -4
	.cfi_offset r7, -8
	.cfi_offset r5, -12
	.cfi_offset r4, -16
	.pad	#40
	sub	sp, #40
	.cfi_def_cfa_offset 56
	str	r0, [sp, #32]
	movs	r0, #0
.Ltmp584:
	.loc	3 1747 14 prologue_end          @ rt-thread/components/drivers/wlan/wlan_mgnt.c:1747:14
	str	r0, [sp, #28]
	.loc	3 1749 17                       @ rt-thread/components/drivers/wlan/wlan_mgnt.c:1749:17
	str	r0, [sp, #20]
	.loc	3 1749 26 is_stmt 0             @ rt-thread/components/drivers/wlan/wlan_mgnt.c:1749:26
	str	r0, [sp, #16]
.Ltmp585:
	.loc	3 1754 9 is_stmt 1              @ rt-thread/components/drivers/wlan/wlan_mgnt.c:1754:9
	bl	_sta_is_null
.Ltmp586:
	.loc	3 1754 9 is_stmt 0              @ rt-thread/components/drivers/wlan/wlan_mgnt.c:1754:9
	cbz	r0, .LBB33_2
	b	.LBB33_1
.LBB33_1:
	.loc	3 0 9                           @ rt-thread/components/drivers/wlan/wlan_mgnt.c:0:9
	movs	r0, #0
.Ltmp587:
	.loc	3 1756 9 is_stmt 1              @ rt-thread/components/drivers/wlan/wlan_mgnt.c:1756:9
	str	r0, [sp, #36]
	b	.LBB33_21
.Ltmp588:
.LBB33_2:
	.loc	3 1759 9                        @ rt-thread/components/drivers/wlan/wlan_mgnt.c:1759:9
	ldr	r0, [sp, #32]
	.loc	3 1759 25 is_stmt 0             @ rt-thread/components/drivers/wlan/wlan_mgnt.c:1759:25
	cbz	r0, .LBB33_7
	b	.LBB33_3
.LBB33_3:
	.loc	3 1759 28                       @ rt-thread/components/drivers/wlan/wlan_mgnt.c:1759:28
	ldr	r0, [sp, #32]
	.loc	3 1759 39                       @ rt-thread/components/drivers/wlan/wlan_mgnt.c:1759:39
	ldrb	r0, [r0, #16]
.Ltmp589:
	.loc	3 1759 9                        @ rt-thread/components/drivers/wlan/wlan_mgnt.c:1759:9
	cmp	r0, #33
	blt	.LBB33_7
	b	.LBB33_4
.LBB33_4:
.Ltmp590:
	.loc	3 1761 9 is_stmt 1              @ rt-thread/components/drivers/wlan/wlan_mgnt.c:1761:9
	b	.LBB33_5
.LBB33_5:
.Ltmp591:
	.loc	3 1761 9 is_stmt 0              @ rt-thread/components/drivers/wlan/wlan_mgnt.c:1761:9
	movw	r0, :lower16:.L.str
	movt	r0, :upper16:.L.str
	bl	rt_kprintf
	movw	r0, :lower16:.L.str.42
	movt	r0, :upper16:.L.str.42
	movw	r1, :lower16:.L__FUNCTION__.rt_wlan_scan_with_info
	movt	r1, :upper16:.L__FUNCTION__.rt_wlan_scan_with_info
	movw	r2, #1761
	bl	rt_kprintf
	movw	r0, :lower16:.L.str.2
	movt	r0, :upper16:.L.str.2
	bl	rt_kprintf
	b	.LBB33_6
.Ltmp592:
.LBB33_6:
	.loc	3 0 9                           @ rt-thread/components/drivers/wlan/wlan_mgnt.c:0:9
	movs	r0, #0
	.loc	3 1762 9 is_stmt 1              @ rt-thread/components/drivers/wlan/wlan_mgnt.c:1762:9
	str	r0, [sp, #36]
	b	.LBB33_21
.Ltmp593:
.LBB33_7:
	.loc	3 1766 5                        @ rt-thread/components/drivers/wlan/wlan_mgnt.c:1766:5
	movw	r0, :lower16:mgnt_mutex
	movt	r0, :upper16:mgnt_mutex
	mov.w	r1, #-1
	bl	rt_mutex_take
	.loc	3 1767 16                       @ rt-thread/components/drivers/wlan/wlan_mgnt.c:1767:16
	movw	r0, :lower16:.L.str.43
	movt	r0, :upper16:.L.str.43
	bl	rt_wlan_complete_create
	.loc	3 1767 14 is_stmt 0             @ rt-thread/components/drivers/wlan/wlan_mgnt.c:1767:14
	str	r0, [sp, #24]
.Ltmp594:
	.loc	3 1768 9 is_stmt 1              @ rt-thread/components/drivers/wlan/wlan_mgnt.c:1768:9
	ldr	r0, [sp, #24]
.Ltmp595:
	.loc	3 1768 9 is_stmt 0              @ rt-thread/components/drivers/wlan/wlan_mgnt.c:1768:9
	cbnz	r0, .LBB33_9
	b	.LBB33_8
.LBB33_8:
.Ltmp596:
	.loc	3 1770 9 is_stmt 1              @ rt-thread/components/drivers/wlan/wlan_mgnt.c:1770:9
	movw	r0, :lower16:mgnt_mutex
	movt	r0, :upper16:mgnt_mutex
	bl	rt_mutex_release
	.loc	3 1771 9                        @ rt-thread/components/drivers/wlan/wlan_mgnt.c:1771:9
	movw	r0, :lower16:scan_result
	movt	r0, :upper16:scan_result
	str	r0, [sp, #36]
	b	.LBB33_21
.Ltmp597:
.LBB33_9:
	.loc	3 1775 9                        @ rt-thread/components/drivers/wlan/wlan_mgnt.c:1775:9
	ldr	r0, [sp, #32]
.Ltmp598:
	.loc	3 1775 9 is_stmt 0              @ rt-thread/components/drivers/wlan/wlan_mgnt.c:1775:9
	cbz	r0, .LBB33_11
	b	.LBB33_10
.LBB33_10:
.Ltmp599:
	.loc	3 1777 29 is_stmt 1             @ rt-thread/components/drivers/wlan/wlan_mgnt.c:1777:29
	ldr	r3, [sp, #32]
	.loc	3 1777 28 is_stmt 0             @ rt-thread/components/drivers/wlan/wlan_mgnt.c:1777:28
	str	r3, [sp]                        @ 4-byte Spill
	ldr	r0, [r3]
	ldr	r2, [r3, #4]
	ldr.w	r12, [r3, #8]
	ldr.w	lr, [r3, #12]
	ldr	r4, [r3, #16]
	ldr	r5, [r3, #20]
	movw	r1, :lower16:rt_wlan_scan_with_info.scan_filter_info
	movt	r1, :upper16:rt_wlan_scan_with_info.scan_filter_info
	str	r1, [sp, #4]                    @ 4-byte Spill
	str	r5, [r1, #20]
	str	r4, [r1, #16]
	str.w	lr, [r1, #12]
	str.w	r12, [r1, #8]
	str	r2, [r1, #4]
	str	r0, [r1]
	ldr	r0, [r3, #24]
	ldr	r2, [r3, #28]
	ldr.w	r12, [r3, #32]
	ldr.w	lr, [r3, #36]
	ldr	r4, [r3, #40]
	ldr	r5, [r3, #44]
	str	r5, [r1, #44]
	str	r4, [r1, #40]
	str.w	lr, [r1, #36]
	str.w	r12, [r1, #32]
	str	r2, [r1, #28]
	str	r0, [r1, #24]
	ldr	r0, [r3, #48]
	ldr	r2, [r3, #52]
	ldr	r3, [r3, #56]
	str	r3, [r1, #56]
	str	r2, [r1, #52]
	str	r0, [r1, #48]
	.loc	3 1778 17 is_stmt 1             @ rt-thread/components/drivers/wlan/wlan_mgnt.c:1778:17
	bl	rt_hw_interrupt_disable
	mov	r1, r0
	.loc	3 1778 15 is_stmt 0             @ rt-thread/components/drivers/wlan/wlan_mgnt.c:1778:15
	ldr	r0, [sp, #4]                    @ 4-byte Reload
	str	r1, [sp, #12]
	.loc	3 1779 21 is_stmt 1             @ rt-thread/components/drivers/wlan/wlan_mgnt.c:1779:21
	movw	r1, :lower16:scan_filter
	movt	r1, :upper16:scan_filter
	str	r0, [r1]
	.loc	3 1780 32                       @ rt-thread/components/drivers/wlan/wlan_mgnt.c:1780:32
	ldr	r0, [sp, #12]
	.loc	3 1780 9 is_stmt 0              @ rt-thread/components/drivers/wlan/wlan_mgnt.c:1780:9
	bl	rt_hw_interrupt_enable
	.loc	3 1781 5 is_stmt 1              @ rt-thread/components/drivers/wlan/wlan_mgnt.c:1781:5
	b	.LBB33_11
.Ltmp600:
.LBB33_11:
	.loc	3 1784 28                       @ rt-thread/components/drivers/wlan/wlan_mgnt.c:1784:28
	movw	r0, :lower16:_sta_mgnt
	movt	r0, :upper16:_sta_mgnt
	ldr	r0, [r0]
	.loc	3 1784 42 is_stmt 0             @ rt-thread/components/drivers/wlan/wlan_mgnt.c:1784:42
	ldr	r1, [sp, #32]
	.loc	3 1784 11                       @ rt-thread/components/drivers/wlan/wlan_mgnt.c:1784:11
	bl	rt_wlan_dev_scan
	.loc	3 1784 9                        @ rt-thread/components/drivers/wlan/wlan_mgnt.c:1784:9
	str	r0, [sp, #28]
.Ltmp601:
	.loc	3 1785 9 is_stmt 1              @ rt-thread/components/drivers/wlan/wlan_mgnt.c:1785:9
	ldr	r0, [sp, #28]
.Ltmp602:
	.loc	3 1785 9 is_stmt 0              @ rt-thread/components/drivers/wlan/wlan_mgnt.c:1785:9
	cbz	r0, .LBB33_15
	b	.LBB33_12
.LBB33_12:
.Ltmp603:
	.loc	3 1787 33 is_stmt 1             @ rt-thread/components/drivers/wlan/wlan_mgnt.c:1787:33
	ldr	r0, [sp, #24]
	.loc	3 1787 9 is_stmt 0              @ rt-thread/components/drivers/wlan/wlan_mgnt.c:1787:9
	bl	rt_wlan_complete_delete
	.loc	3 1788 9 is_stmt 1              @ rt-thread/components/drivers/wlan/wlan_mgnt.c:1788:9
	b	.LBB33_13
.LBB33_13:
.Ltmp604:
	.loc	3 1788 9 is_stmt 0              @ rt-thread/components/drivers/wlan/wlan_mgnt.c:1788:9
	movw	r0, :lower16:.L.str
	movt	r0, :upper16:.L.str
	bl	rt_kprintf
	movw	r0, :lower16:.L.str.44
	movt	r0, :upper16:.L.str.44
	movw	r1, :lower16:.L__FUNCTION__.rt_wlan_scan_with_info
	movt	r1, :upper16:.L__FUNCTION__.rt_wlan_scan_with_info
	movw	r2, #1788
	bl	rt_kprintf
	movw	r0, :lower16:.L.str.2
	movt	r0, :upper16:.L.str.2
	bl	rt_kprintf
	b	.LBB33_14
.Ltmp605:
.LBB33_14:
	.loc	3 0 9                           @ rt-thread/components/drivers/wlan/wlan_mgnt.c:0:9
	movs	r0, #0
	.loc	3 1789 16 is_stmt 1             @ rt-thread/components/drivers/wlan/wlan_mgnt.c:1789:16
	str	r0, [sp, #8]
	.loc	3 1790 9                        @ rt-thread/components/drivers/wlan/wlan_mgnt.c:1790:9
	b	.LBB33_20
.Ltmp606:
.LBB33_15:
	.loc	3 1794 9                        @ rt-thread/components/drivers/wlan/wlan_mgnt.c:1794:9
	ldr	r0, [sp, #20]
	orr	r0, r0, #1024
	str	r0, [sp, #20]
	.loc	3 1796 27                       @ rt-thread/components/drivers/wlan/wlan_mgnt.c:1796:27
	ldr	r0, [sp, #24]
	.loc	3 1796 37 is_stmt 0             @ rt-thread/components/drivers/wlan/wlan_mgnt.c:1796:37
	ldr	r1, [sp, #20]
	movw	r2, #10000
	add	r3, sp, #16
	.loc	3 1796 5                        @ rt-thread/components/drivers/wlan/wlan_mgnt.c:1796:5
	bl	rt_wlan_complete_wait
	.loc	3 1797 29 is_stmt 1             @ rt-thread/components/drivers/wlan/wlan_mgnt.c:1797:29
	ldr	r0, [sp, #24]
	.loc	3 1797 5 is_stmt 0              @ rt-thread/components/drivers/wlan/wlan_mgnt.c:1797:5
	bl	rt_wlan_complete_delete
	mov.w	r0, #1024
	.loc	3 1799 9 is_stmt 1              @ rt-thread/components/drivers/wlan/wlan_mgnt.c:1799:9
	str	r0, [sp, #20]
.Ltmp607:
	.loc	3 1800 11                       @ rt-thread/components/drivers/wlan/wlan_mgnt.c:1800:11
	ldr	r0, [sp, #16]
	.loc	3 1800 20 is_stmt 0             @ rt-thread/components/drivers/wlan/wlan_mgnt.c:1800:20
	ldr	r1, [sp, #20]
.Ltmp608:
	.loc	3 1800 9                        @ rt-thread/components/drivers/wlan/wlan_mgnt.c:1800:9
	tst	r0, r1
	bne	.LBB33_19
	b	.LBB33_16
.LBB33_16:
.Ltmp609:
	.loc	3 1802 9 is_stmt 1              @ rt-thread/components/drivers/wlan/wlan_mgnt.c:1802:9
	b	.LBB33_17
.LBB33_17:
.Ltmp610:
	.loc	3 1802 9 is_stmt 0              @ rt-thread/components/drivers/wlan/wlan_mgnt.c:1802:9
	movw	r0, :lower16:.L.str
	movt	r0, :upper16:.L.str
	bl	rt_kprintf
	movw	r0, :lower16:.L.str.45
	movt	r0, :upper16:.L.str.45
	movw	r1, :lower16:.L__FUNCTION__.rt_wlan_scan_with_info
	movt	r1, :upper16:.L__FUNCTION__.rt_wlan_scan_with_info
	movw	r2, #1802
	bl	rt_kprintf
	movw	r0, :lower16:.L.str.2
	movt	r0, :upper16:.L.str.2
	bl	rt_kprintf
	b	.LBB33_18
.Ltmp611:
.LBB33_18:
	.loc	3 1803 16 is_stmt 1             @ rt-thread/components/drivers/wlan/wlan_mgnt.c:1803:16
	movw	r0, :lower16:scan_result
	movt	r0, :upper16:scan_result
	str	r0, [sp, #8]
	.loc	3 1804 9                        @ rt-thread/components/drivers/wlan/wlan_mgnt.c:1804:9
	b	.LBB33_20
.Ltmp612:
.LBB33_19:
	.loc	3 1800 23                       @ rt-thread/components/drivers/wlan/wlan_mgnt.c:1800:23
	b	.LBB33_20
.Ltmp613:
.LBB33_20:
	@DEBUG_LABEL: rt_wlan_scan_with_info:scan_exit
	.loc	3 1808 5                        @ rt-thread/components/drivers/wlan/wlan_mgnt.c:1808:5
	movw	r0, :lower16:mgnt_mutex
	movt	r0, :upper16:mgnt_mutex
	bl	rt_mutex_release
	.loc	3 1809 13                       @ rt-thread/components/drivers/wlan/wlan_mgnt.c:1809:13
	bl	rt_hw_interrupt_disable
	.loc	3 1809 11 is_stmt 0             @ rt-thread/components/drivers/wlan/wlan_mgnt.c:1809:11
	str	r0, [sp, #12]
	.loc	3 1810 17 is_stmt 1             @ rt-thread/components/drivers/wlan/wlan_mgnt.c:1810:17
	movw	r1, :lower16:scan_filter
	movt	r1, :upper16:scan_filter
	movs	r0, #0
	str	r0, [r1]
	.loc	3 1811 28                       @ rt-thread/components/drivers/wlan/wlan_mgnt.c:1811:28
	ldr	r0, [sp, #12]
	.loc	3 1811 5 is_stmt 0              @ rt-thread/components/drivers/wlan/wlan_mgnt.c:1811:5
	bl	rt_hw_interrupt_enable
	.loc	3 1812 12 is_stmt 1             @ rt-thread/components/drivers/wlan/wlan_mgnt.c:1812:12
	movw	r0, :lower16:scan_result
	movt	r0, :upper16:scan_result
	str	r0, [sp, #8]
	.loc	3 1813 12                       @ rt-thread/components/drivers/wlan/wlan_mgnt.c:1813:12
	ldr	r0, [sp, #8]
	.loc	3 1813 5 is_stmt 0              @ rt-thread/components/drivers/wlan/wlan_mgnt.c:1813:5
	str	r0, [sp, #36]
	b	.LBB33_21
.LBB33_21:
	.loc	3 1814 1 is_stmt 1              @ rt-thread/components/drivers/wlan/wlan_mgnt.c:1814:1
	ldr	r0, [sp, #36]
	add	sp, #40
	pop	{r4, r5, r7, pc}
.Ltmp614:
.Lfunc_end33:
	.size	rt_wlan_scan_with_info, .Lfunc_end33-rt_wlan_scan_with_info
	.cfi_endproc
	.cantunwind
	.fnend
                                        @ -- End function
	.section	.text.rt_wlan_scan_get_info_num,"ax",%progbits
	.hidden	rt_wlan_scan_get_info_num       @ -- Begin function rt_wlan_scan_get_info_num
	.globl	rt_wlan_scan_get_info_num
	.p2align	3
	.type	rt_wlan_scan_get_info_num,%function
	.code	16                              @ @rt_wlan_scan_get_info_num
	.thumb_func
rt_wlan_scan_get_info_num:
.Lfunc_begin34:
	.loc	3 1817 0                        @ rt-thread/components/drivers/wlan/wlan_mgnt.c:1817:0
	.fnstart
	.cfi_startproc
@ %bb.0:
	.pad	#4
	sub	sp, #4
	.cfi_def_cfa_offset 4
	movs	r0, #0
.Ltmp615:
	.loc	3 1818 9 prologue_end           @ rt-thread/components/drivers/wlan/wlan_mgnt.c:1818:9
	str	r0, [sp]
	.loc	3 1820 23                       @ rt-thread/components/drivers/wlan/wlan_mgnt.c:1820:23
	movw	r0, :lower16:scan_result
	movt	r0, :upper16:scan_result
	ldr	r0, [r0]
	.loc	3 1820 9 is_stmt 0              @ rt-thread/components/drivers/wlan/wlan_mgnt.c:1820:9
	str	r0, [sp]
	.loc	3 1822 12 is_stmt 1             @ rt-thread/components/drivers/wlan/wlan_mgnt.c:1822:12
	ldr	r0, [sp]
	.loc	3 1822 5 is_stmt 0              @ rt-thread/components/drivers/wlan/wlan_mgnt.c:1822:5
	add	sp, #4
	bx	lr
.Ltmp616:
.Lfunc_end34:
	.size	rt_wlan_scan_get_info_num, .Lfunc_end34-rt_wlan_scan_get_info_num
	.cfi_endproc
	.cantunwind
	.fnend
                                        @ -- End function
	.section	.text.rt_wlan_scan_get_info,"ax",%progbits
	.hidden	rt_wlan_scan_get_info           @ -- Begin function rt_wlan_scan_get_info
	.globl	rt_wlan_scan_get_info
	.p2align	3
	.type	rt_wlan_scan_get_info,%function
	.code	16                              @ @rt_wlan_scan_get_info
	.thumb_func
rt_wlan_scan_get_info:
.Lfunc_begin35:
	.loc	3 1826 0 is_stmt 1              @ rt-thread/components/drivers/wlan/wlan_mgnt.c:1826:0
	.fnstart
	.cfi_startproc
@ %bb.0:
	.save	{r7, lr}
	push	{r7, lr}
	.cfi_def_cfa_offset 8
	.cfi_offset lr, -4
	.cfi_offset r7, -8
	.pad	#16
	sub	sp, #16
	.cfi_def_cfa_offset 24
	str	r0, [sp, #12]
	str	r1, [sp, #8]
	movs	r0, #0
.Ltmp617:
	.loc	3 1827 9 prologue_end           @ rt-thread/components/drivers/wlan/wlan_mgnt.c:1827:9
	str	r0, [sp, #4]
	.loc	3 1829 5                        @ rt-thread/components/drivers/wlan/wlan_mgnt.c:1829:5
	movw	r0, :lower16:scan_result_mutex
	movt	r0, :upper16:scan_result_mutex
	mov.w	r1, #-1
	bl	rt_mutex_take
.Ltmp618:
	.loc	3 1830 21                       @ rt-thread/components/drivers/wlan/wlan_mgnt.c:1830:21
	movw	r0, :lower16:scan_result
	movt	r0, :upper16:scan_result
	ldr	r0, [r0]
	.loc	3 1830 25 is_stmt 0             @ rt-thread/components/drivers/wlan/wlan_mgnt.c:1830:25
	cbz	r0, .LBB35_6
	b	.LBB35_1
.LBB35_1:
	.loc	3 1830 28                       @ rt-thread/components/drivers/wlan/wlan_mgnt.c:1830:28
	ldr	r0, [sp, #8]
.Ltmp619:
	.loc	3 1830 9                        @ rt-thread/components/drivers/wlan/wlan_mgnt.c:1830:9
	cmp	r0, #1
	blt	.LBB35_6
	b	.LBB35_2
.LBB35_2:
.Ltmp620:
	.loc	3 1832 28 is_stmt 1             @ rt-thread/components/drivers/wlan/wlan_mgnt.c:1832:28
	movw	r0, :lower16:scan_result
	movt	r0, :upper16:scan_result
	ldr	r0, [r0]
	.loc	3 1832 34 is_stmt 0             @ rt-thread/components/drivers/wlan/wlan_mgnt.c:1832:34
	ldr	r1, [sp, #8]
	.loc	3 1832 16                       @ rt-thread/components/drivers/wlan/wlan_mgnt.c:1832:16
	cmp	r0, r1
	ble	.LBB35_4
	b	.LBB35_3
.LBB35_3:
	.loc	3 1832 40                       @ rt-thread/components/drivers/wlan/wlan_mgnt.c:1832:40
	ldr	r0, [sp, #8]
	.loc	3 1832 16                       @ rt-thread/components/drivers/wlan/wlan_mgnt.c:1832:16
	str	r0, [sp]                        @ 4-byte Spill
	b	.LBB35_5
.LBB35_4:
	.loc	3 1832 58                       @ rt-thread/components/drivers/wlan/wlan_mgnt.c:1832:58
	movw	r0, :lower16:scan_result
	movt	r0, :upper16:scan_result
	ldr	r0, [r0]
	.loc	3 1832 16                       @ rt-thread/components/drivers/wlan/wlan_mgnt.c:1832:16
	str	r0, [sp]                        @ 4-byte Spill
	b	.LBB35_5
.LBB35_5:
	ldr	r0, [sp]                        @ 4-byte Reload
	.loc	3 1832 14                       @ rt-thread/components/drivers/wlan/wlan_mgnt.c:1832:14
	str	r0, [sp, #4]
	.loc	3 1833 19 is_stmt 1             @ rt-thread/components/drivers/wlan/wlan_mgnt.c:1833:19
	ldr	r0, [sp, #12]
	.loc	3 1833 37 is_stmt 0             @ rt-thread/components/drivers/wlan/wlan_mgnt.c:1833:37
	movw	r1, :lower16:scan_result
	movt	r1, :upper16:scan_result
	ldr	r1, [r1, #4]
	.loc	3 1833 43                       @ rt-thread/components/drivers/wlan/wlan_mgnt.c:1833:43
	ldr	r2, [sp, #4]
	.loc	3 1833 48                       @ rt-thread/components/drivers/wlan/wlan_mgnt.c:1833:48
	rsb	r2, r2, r2, lsl #4
	lsls	r2, r2, #2
	.loc	3 1833 9                        @ rt-thread/components/drivers/wlan/wlan_mgnt.c:1833:9
	bl	rt_memcpy
	.loc	3 1834 5 is_stmt 1              @ rt-thread/components/drivers/wlan/wlan_mgnt.c:1834:5
	b	.LBB35_6
.Ltmp621:
.LBB35_6:
	.loc	3 1835 5                        @ rt-thread/components/drivers/wlan/wlan_mgnt.c:1835:5
	movw	r0, :lower16:scan_result_mutex
	movt	r0, :upper16:scan_result_mutex
	bl	rt_mutex_release
	.loc	3 1836 12                       @ rt-thread/components/drivers/wlan/wlan_mgnt.c:1836:12
	ldr	r0, [sp, #4]
	.loc	3 1836 5 is_stmt 0              @ rt-thread/components/drivers/wlan/wlan_mgnt.c:1836:5
	add	sp, #16
	pop	{r7, pc}
.Ltmp622:
.Lfunc_end35:
	.size	rt_wlan_scan_get_info, .Lfunc_end35-rt_wlan_scan_get_info
	.cfi_endproc
	.cantunwind
	.fnend
                                        @ -- End function
	.section	.text.rt_wlan_scan_get_result,"ax",%progbits
	.hidden	rt_wlan_scan_get_result         @ -- Begin function rt_wlan_scan_get_result
	.globl	rt_wlan_scan_get_result
	.p2align	3
	.type	rt_wlan_scan_get_result,%function
	.code	16                              @ @rt_wlan_scan_get_result
	.thumb_func
rt_wlan_scan_get_result:
.Lfunc_begin36:
	.loc	3 1840 0 is_stmt 1              @ rt-thread/components/drivers/wlan/wlan_mgnt.c:1840:0
	.fnstart
	.cfi_startproc
@ %bb.0:
	.loc	3 1841 5 prologue_end           @ rt-thread/components/drivers/wlan/wlan_mgnt.c:1841:5
	movw	r0, :lower16:scan_result
	movt	r0, :upper16:scan_result
	bx	lr
.Ltmp623:
.Lfunc_end36:
	.size	rt_wlan_scan_get_result, .Lfunc_end36-rt_wlan_scan_get_result
	.cfi_endproc
	.cantunwind
	.fnend
                                        @ -- End function
	.section	.text.rt_wlan_scan_find_cache,"ax",%progbits
	.hidden	rt_wlan_scan_find_cache         @ -- Begin function rt_wlan_scan_find_cache
	.globl	rt_wlan_scan_find_cache
	.p2align	3
	.type	rt_wlan_scan_find_cache,%function
	.code	16                              @ @rt_wlan_scan_find_cache
	.thumb_func
rt_wlan_scan_find_cache:
.Lfunc_begin37:
	.loc	3 1861 0                        @ rt-thread/components/drivers/wlan/wlan_mgnt.c:1861:0
	.fnstart
	.cfi_startproc
@ %bb.0:
	.save	{r7, lr}
	push	{r7, lr}
	.cfi_def_cfa_offset 8
	.cfi_offset lr, -4
	.cfi_offset r7, -8
	.pad	#40
	sub	sp, #40
	.cfi_def_cfa_offset 48
	str	r0, [sp, #32]
	str	r1, [sp, #28]
	str	r2, [sp, #24]
	movs	r0, #0
.Ltmp624:
	.loc	3 1862 9 prologue_end           @ rt-thread/components/drivers/wlan/wlan_mgnt.c:1862:9
	str	r0, [sp, #20]
	.loc	3 1862 16 is_stmt 0             @ rt-thread/components/drivers/wlan/wlan_mgnt.c:1862:16
	str	r0, [sp, #16]
.Ltmp625:
	.loc	3 1866 10 is_stmt 1             @ rt-thread/components/drivers/wlan/wlan_mgnt.c:1866:10
	ldr	r0, [sp, #28]
	.loc	3 1866 31 is_stmt 0             @ rt-thread/components/drivers/wlan/wlan_mgnt.c:1866:31
	cbz	r0, .LBB37_3
	b	.LBB37_1
.LBB37_1:
	.loc	3 1866 35                       @ rt-thread/components/drivers/wlan/wlan_mgnt.c:1866:35
	ldr	r0, [sp, #32]
	.loc	3 1866 52                       @ rt-thread/components/drivers/wlan/wlan_mgnt.c:1866:52
	cbz	r0, .LBB37_3
	b	.LBB37_2
.LBB37_2:
	.loc	3 1866 56                       @ rt-thread/components/drivers/wlan/wlan_mgnt.c:1866:56
	ldr	r0, [sp, #24]
.Ltmp626:
	.loc	3 1866 9                        @ rt-thread/components/drivers/wlan/wlan_mgnt.c:1866:9
	cmp	r0, #0
	bgt	.LBB37_4
	b	.LBB37_3
.LBB37_3:
	.loc	3 0 9                           @ rt-thread/components/drivers/wlan/wlan_mgnt.c:0:9
	movs	r0, #0
.Ltmp627:
	.loc	3 1868 9 is_stmt 1              @ rt-thread/components/drivers/wlan/wlan_mgnt.c:1868:9
	str	r0, [sp, #36]
	b	.LBB37_13
.Ltmp628:
.LBB37_4:
	.loc	3 1870 5                        @ rt-thread/components/drivers/wlan/wlan_mgnt.c:1870:5
	movw	r0, :lower16:scan_result_mutex
	movt	r0, :upper16:scan_result_mutex
	mov.w	r1, #-1
	bl	rt_mutex_take
	movs	r0, #0
.Ltmp629:
	.loc	3 1872 12                       @ rt-thread/components/drivers/wlan/wlan_mgnt.c:1872:12
	str	r0, [sp, #20]
	.loc	3 1872 10 is_stmt 0             @ rt-thread/components/drivers/wlan/wlan_mgnt.c:1872:10
	b	.LBB37_5
.LBB37_5:                               @ =>This Inner Loop Header: Depth=1
.Ltmp630:
	.loc	3 1872 18                       @ rt-thread/components/drivers/wlan/wlan_mgnt.c:1872:18
	ldr	r1, [sp, #20]
	.loc	3 1872 34                       @ rt-thread/components/drivers/wlan/wlan_mgnt.c:1872:34
	movw	r0, :lower16:scan_result
	movt	r0, :upper16:scan_result
	ldr	r2, [r0]
	movs	r0, #0
	.loc	3 1872 39                       @ rt-thread/components/drivers/wlan/wlan_mgnt.c:1872:39
	cmp	r1, r2
	str	r0, [sp, #4]                    @ 4-byte Spill
	bge	.LBB37_7
	b	.LBB37_6
.LBB37_6:                               @   in Loop: Header=BB37_5 Depth=1
	.loc	3 1872 43                       @ rt-thread/components/drivers/wlan/wlan_mgnt.c:1872:43
	ldr	r1, [sp, #16]
	.loc	3 1872 51                       @ rt-thread/components/drivers/wlan/wlan_mgnt.c:1872:51
	ldr	r2, [sp, #24]
	movs	r0, #0
	.loc	3 1872 49                       @ rt-thread/components/drivers/wlan/wlan_mgnt.c:1872:49
	cmp	r1, r2
	it	lt
	movlt	r0, #1
	str	r0, [sp, #4]                    @ 4-byte Spill
	b	.LBB37_7
.LBB37_7:                               @   in Loop: Header=BB37_5 Depth=1
	.loc	3 0 0                           @ rt-thread/components/drivers/wlan/wlan_mgnt.c:0:0
	ldr	r0, [sp, #4]                    @ 4-byte Reload
.Ltmp631:
	.loc	3 1872 5                        @ rt-thread/components/drivers/wlan/wlan_mgnt.c:1872:5
	lsls	r0, r0, #31
	cbz	r0, .LBB37_12
	b	.LBB37_8
.LBB37_8:                               @   in Loop: Header=BB37_5 Depth=1
.Ltmp632:
	.loc	3 1874 34 is_stmt 1             @ rt-thread/components/drivers/wlan/wlan_mgnt.c:1874:34
	movw	r0, :lower16:scan_result
	movt	r0, :upper16:scan_result
	ldr	r0, [r0, #4]
	.loc	3 1874 39 is_stmt 0             @ rt-thread/components/drivers/wlan/wlan_mgnt.c:1874:39
	ldr	r1, [sp, #20]
	.loc	3 1874 22                       @ rt-thread/components/drivers/wlan/wlan_mgnt.c:1874:22
	rsb	r1, r1, r1, lsl #4
	add.w	r0, r0, r1, lsl #2
	.loc	3 1874 19                       @ rt-thread/components/drivers/wlan/wlan_mgnt.c:1874:19
	str	r0, [sp, #12]
	.loc	3 1875 37 is_stmt 1             @ rt-thread/components/drivers/wlan/wlan_mgnt.c:1875:37
	ldr	r0, [sp, #12]
	.loc	3 1875 48 is_stmt 0             @ rt-thread/components/drivers/wlan/wlan_mgnt.c:1875:48
	ldr	r1, [sp, #32]
	.loc	3 1875 18                       @ rt-thread/components/drivers/wlan/wlan_mgnt.c:1875:18
	bl	rt_wlan_info_isequ
	.loc	3 1875 16                       @ rt-thread/components/drivers/wlan/wlan_mgnt.c:1875:16
	str	r0, [sp, #8]
.Ltmp633:
	.loc	3 1877 13 is_stmt 1             @ rt-thread/components/drivers/wlan/wlan_mgnt.c:1877:13
	ldr	r0, [sp, #8]
.Ltmp634:
	.loc	3 1877 13 is_stmt 0             @ rt-thread/components/drivers/wlan/wlan_mgnt.c:1877:13
	cbz	r0, .LBB37_10
	b	.LBB37_9
.LBB37_9:                               @   in Loop: Header=BB37_5 Depth=1
.Ltmp635:
	.loc	3 1879 24 is_stmt 1             @ rt-thread/components/drivers/wlan/wlan_mgnt.c:1879:24
	ldr	r0, [sp, #28]
	.loc	3 1879 33 is_stmt 0             @ rt-thread/components/drivers/wlan/wlan_mgnt.c:1879:33
	ldr	r1, [sp, #16]
	.loc	3 1879 24                       @ rt-thread/components/drivers/wlan/wlan_mgnt.c:1879:24
	rsb	r1, r1, r1, lsl #4
	add.w	r0, r0, r1, lsl #2
	.loc	3 1879 41                       @ rt-thread/components/drivers/wlan/wlan_mgnt.c:1879:41
	ldr	r1, [sp, #12]
	movs	r2, #60
	.loc	3 1879 13                       @ rt-thread/components/drivers/wlan/wlan_mgnt.c:1879:13
	bl	rt_memcpy
	.loc	3 1880 19 is_stmt 1             @ rt-thread/components/drivers/wlan/wlan_mgnt.c:1880:19
	ldr	r0, [sp, #16]
	adds	r0, #1
	str	r0, [sp, #16]
	.loc	3 1881 9                        @ rt-thread/components/drivers/wlan/wlan_mgnt.c:1881:9
	b	.LBB37_10
.Ltmp636:
.LBB37_10:                              @   in Loop: Header=BB37_5 Depth=1
	.loc	3 1882 5                        @ rt-thread/components/drivers/wlan/wlan_mgnt.c:1882:5
	b	.LBB37_11
.Ltmp637:
.LBB37_11:                              @   in Loop: Header=BB37_5 Depth=1
	.loc	3 1872 58                       @ rt-thread/components/drivers/wlan/wlan_mgnt.c:1872:58
	ldr	r0, [sp, #20]
	adds	r0, #1
	str	r0, [sp, #20]
	.loc	3 1872 5 is_stmt 0              @ rt-thread/components/drivers/wlan/wlan_mgnt.c:1872:5
	b	.LBB37_5
.Ltmp638:
.LBB37_12:
	.loc	3 1883 5 is_stmt 1              @ rt-thread/components/drivers/wlan/wlan_mgnt.c:1883:5
	movw	r0, :lower16:scan_result_mutex
	movt	r0, :upper16:scan_result_mutex
	bl	rt_mutex_release
	.loc	3 1885 12                       @ rt-thread/components/drivers/wlan/wlan_mgnt.c:1885:12
	ldr	r0, [sp, #16]
	.loc	3 1885 5 is_stmt 0              @ rt-thread/components/drivers/wlan/wlan_mgnt.c:1885:5
	str	r0, [sp, #36]
	b	.LBB37_13
.LBB37_13:
	.loc	3 1886 1 is_stmt 1              @ rt-thread/components/drivers/wlan/wlan_mgnt.c:1886:1
	ldr	r0, [sp, #36]
	add	sp, #40
	pop	{r7, pc}
.Ltmp639:
.Lfunc_end37:
	.size	rt_wlan_scan_find_cache, .Lfunc_end37-rt_wlan_scan_find_cache
	.cfi_endproc
	.cantunwind
	.fnend
                                        @ -- End function
	.section	.text.rt_wlan_info_isequ,"ax",%progbits
	.p2align	3                               @ -- Begin function rt_wlan_info_isequ
	.type	rt_wlan_info_isequ,%function
	.code	16                              @ @rt_wlan_info_isequ
	.thumb_func
rt_wlan_info_isequ:
.Lfunc_begin38:
	.loc	3 159 0                         @ rt-thread/components/drivers/wlan/wlan_mgnt.c:159:0
	.fnstart
	.cfi_startproc
@ %bb.0:
	.save	{r7, lr}
	push	{r7, lr}
	.cfi_def_cfa_offset 8
	.cfi_offset lr, -4
	.cfi_offset r7, -8
	.pad	#24
	sub	sp, #24
	.cfi_def_cfa_offset 32
	str	r0, [sp, #20]
	str	r1, [sp, #16]
	movs	r0, #1
.Ltmp640:
	.loc	3 160 15 prologue_end           @ rt-thread/components/drivers/wlan/wlan_mgnt.c:160:15
	str	r0, [sp, #12]
	movs	r0, #0
	.loc	3 161 16                        @ rt-thread/components/drivers/wlan/wlan_mgnt.c:161:16
	strh.w	r0, [sp, #8]
	str	r0, [sp, #4]
.Ltmp641:
	.loc	3 163 9                         @ rt-thread/components/drivers/wlan/wlan_mgnt.c:163:9
	ldr	r0, [sp, #12]
	.loc	3 163 16 is_stmt 0              @ rt-thread/components/drivers/wlan/wlan_mgnt.c:163:16
	cbz	r0, .LBB38_4
	b	.LBB38_1
.LBB38_1:
	.loc	3 163 20                        @ rt-thread/components/drivers/wlan/wlan_mgnt.c:163:20
	ldr	r0, [sp, #20]
	.loc	3 163 27                        @ rt-thread/components/drivers/wlan/wlan_mgnt.c:163:27
	ldr	r0, [r0]
	.loc	3 163 57                        @ rt-thread/components/drivers/wlan/wlan_mgnt.c:163:57
	adds	r0, #1
	cbz	r0, .LBB38_4
	b	.LBB38_2
.LBB38_2:
	.loc	3 163 61                        @ rt-thread/components/drivers/wlan/wlan_mgnt.c:163:61
	ldr	r0, [sp, #16]
	.loc	3 163 68                        @ rt-thread/components/drivers/wlan/wlan_mgnt.c:163:68
	ldr	r0, [r0]
.Ltmp642:
	.loc	3 163 9                         @ rt-thread/components/drivers/wlan/wlan_mgnt.c:163:9
	adds	r0, #1
	cbz	r0, .LBB38_4
	b	.LBB38_3
.LBB38_3:
.Ltmp643:
	.loc	3 165 19 is_stmt 1              @ rt-thread/components/drivers/wlan/wlan_mgnt.c:165:19
	ldr	r0, [sp, #16]
	.loc	3 165 26 is_stmt 0              @ rt-thread/components/drivers/wlan/wlan_mgnt.c:165:26
	ldr	r0, [r0]
	.loc	3 165 38                        @ rt-thread/components/drivers/wlan/wlan_mgnt.c:165:38
	ldr	r1, [sp, #20]
	.loc	3 165 45                        @ rt-thread/components/drivers/wlan/wlan_mgnt.c:165:45
	ldr	r1, [r1]
	.loc	3 165 35                        @ rt-thread/components/drivers/wlan/wlan_mgnt.c:165:35
	subs	r0, r0, r1
	clz	r0, r0
	lsrs	r1, r0, #5
	.loc	3 165 16                        @ rt-thread/components/drivers/wlan/wlan_mgnt.c:165:16
	ldr	r0, [sp, #12]
	ands	r0, r1
	str	r0, [sp, #12]
	.loc	3 166 5 is_stmt 1               @ rt-thread/components/drivers/wlan/wlan_mgnt.c:166:5
	b	.LBB38_4
.Ltmp644:
.LBB38_4:
	.loc	3 167 9                         @ rt-thread/components/drivers/wlan/wlan_mgnt.c:167:9
	ldr	r0, [sp, #12]
	.loc	3 167 16 is_stmt 0              @ rt-thread/components/drivers/wlan/wlan_mgnt.c:167:16
	cbz	r0, .LBB38_8
	b	.LBB38_5
.LBB38_5:
	.loc	3 167 21                        @ rt-thread/components/drivers/wlan/wlan_mgnt.c:167:21
	ldr	r0, [sp, #20]
	.loc	3 167 33                        @ rt-thread/components/drivers/wlan/wlan_mgnt.c:167:33
	ldrb	r0, [r0, #16]
	.loc	3 167 42                        @ rt-thread/components/drivers/wlan/wlan_mgnt.c:167:42
	cmp	r0, #1
	blt	.LBB38_8
	b	.LBB38_6
.LBB38_6:
	.loc	3 167 46                        @ rt-thread/components/drivers/wlan/wlan_mgnt.c:167:46
	ldr	r0, [sp, #16]
	.loc	3 167 58                        @ rt-thread/components/drivers/wlan/wlan_mgnt.c:167:58
	ldrb	r0, [r0, #16]
.Ltmp645:
	.loc	3 167 9                         @ rt-thread/components/drivers/wlan/wlan_mgnt.c:167:9
	cmp	r0, #1
	blt	.LBB38_8
	b	.LBB38_7
.LBB38_7:
.Ltmp646:
	.loc	3 169 19 is_stmt 1              @ rt-thread/components/drivers/wlan/wlan_mgnt.c:169:19
	ldr	r0, [sp, #20]
	.loc	3 169 31 is_stmt 0              @ rt-thread/components/drivers/wlan/wlan_mgnt.c:169:31
	ldrb	r0, [r0, #16]
	.loc	3 169 38                        @ rt-thread/components/drivers/wlan/wlan_mgnt.c:169:38
	ldr	r1, [sp, #16]
	.loc	3 169 50                        @ rt-thread/components/drivers/wlan/wlan_mgnt.c:169:50
	ldrb	r1, [r1, #16]
	.loc	3 169 35                        @ rt-thread/components/drivers/wlan/wlan_mgnt.c:169:35
	subs	r0, r0, r1
	clz	r0, r0
	lsrs	r1, r0, #5
	.loc	3 169 16                        @ rt-thread/components/drivers/wlan/wlan_mgnt.c:169:16
	ldr	r0, [sp, #12]
	ands	r0, r1
	str	r0, [sp, #12]
	.loc	3 170 30 is_stmt 1              @ rt-thread/components/drivers/wlan/wlan_mgnt.c:170:30
	ldr	r0, [sp, #16]
	.loc	3 170 42 is_stmt 0              @ rt-thread/components/drivers/wlan/wlan_mgnt.c:170:42
	adds	r0, #17
	.loc	3 170 51                        @ rt-thread/components/drivers/wlan/wlan_mgnt.c:170:51
	ldr	r2, [sp, #20]
	.loc	3 170 63                        @ rt-thread/components/drivers/wlan/wlan_mgnt.c:170:63
	add.w	r1, r2, #17
	.loc	3 170 83                        @ rt-thread/components/drivers/wlan/wlan_mgnt.c:170:83
	ldrb	r2, [r2, #16]
	.loc	3 170 19                        @ rt-thread/components/drivers/wlan/wlan_mgnt.c:170:19
	bl	rt_memcmp
	.loc	3 170 88                        @ rt-thread/components/drivers/wlan/wlan_mgnt.c:170:88
	clz	r0, r0
	lsrs	r1, r0, #5
	.loc	3 170 16                        @ rt-thread/components/drivers/wlan/wlan_mgnt.c:170:16
	ldr	r0, [sp, #12]
	ands	r0, r1
	str	r0, [sp, #12]
	.loc	3 171 5 is_stmt 1               @ rt-thread/components/drivers/wlan/wlan_mgnt.c:171:5
	b	.LBB38_8
.Ltmp647:
.LBB38_8:
	.loc	3 172 9                         @ rt-thread/components/drivers/wlan/wlan_mgnt.c:172:9
	ldr	r0, [sp, #12]
	.loc	3 172 16 is_stmt 0              @ rt-thread/components/drivers/wlan/wlan_mgnt.c:172:16
	cbz	r0, .LBB38_12
	b	.LBB38_9
.LBB38_9:
	.loc	3 172 31                        @ rt-thread/components/drivers/wlan/wlan_mgnt.c:172:31
	ldr	r0, [sp, #20]
	.loc	3 172 38                        @ rt-thread/components/drivers/wlan/wlan_mgnt.c:172:38
	adds	r0, #50
	add	r1, sp, #4
	movs	r2, #6
	.loc	3 172 20                        @ rt-thread/components/drivers/wlan/wlan_mgnt.c:172:20
	bl	rt_memcmp
	.loc	3 172 87                        @ rt-thread/components/drivers/wlan/wlan_mgnt.c:172:87
	cbz	r0, .LBB38_12
	b	.LBB38_10
.LBB38_10:
	.loc	3 173 20 is_stmt 1              @ rt-thread/components/drivers/wlan/wlan_mgnt.c:173:20
	ldr	r0, [sp, #16]
	.loc	3 173 27 is_stmt 0              @ rt-thread/components/drivers/wlan/wlan_mgnt.c:173:27
	adds	r0, #50
	add	r1, sp, #4
	movs	r2, #6
	.loc	3 173 9                         @ rt-thread/components/drivers/wlan/wlan_mgnt.c:173:9
	bl	rt_memcmp
.Ltmp648:
	.loc	3 172 9 is_stmt 1               @ rt-thread/components/drivers/wlan/wlan_mgnt.c:172:9
	cbz	r0, .LBB38_12
	b	.LBB38_11
.LBB38_11:
.Ltmp649:
	.loc	3 175 30                        @ rt-thread/components/drivers/wlan/wlan_mgnt.c:175:30
	ldr	r0, [sp, #20]
	.loc	3 175 37 is_stmt 0              @ rt-thread/components/drivers/wlan/wlan_mgnt.c:175:37
	adds	r0, #50
	.loc	3 175 48                        @ rt-thread/components/drivers/wlan/wlan_mgnt.c:175:48
	ldr	r1, [sp, #16]
	.loc	3 175 55                        @ rt-thread/components/drivers/wlan/wlan_mgnt.c:175:55
	adds	r1, #50
	movs	r2, #6
	.loc	3 175 19                        @ rt-thread/components/drivers/wlan/wlan_mgnt.c:175:19
	bl	rt_memcmp
	.loc	3 175 91                        @ rt-thread/components/drivers/wlan/wlan_mgnt.c:175:91
	clz	r0, r0
	lsrs	r1, r0, #5
	.loc	3 175 16                        @ rt-thread/components/drivers/wlan/wlan_mgnt.c:175:16
	ldr	r0, [sp, #12]
	ands	r0, r1
	str	r0, [sp, #12]
	.loc	3 176 5 is_stmt 1               @ rt-thread/components/drivers/wlan/wlan_mgnt.c:176:5
	b	.LBB38_12
.Ltmp650:
.LBB38_12:
	.loc	3 177 9                         @ rt-thread/components/drivers/wlan/wlan_mgnt.c:177:9
	ldr	r0, [sp, #12]
	.loc	3 177 16 is_stmt 0              @ rt-thread/components/drivers/wlan/wlan_mgnt.c:177:16
	cbz	r0, .LBB38_16
	b	.LBB38_13
.LBB38_13:
	.loc	3 177 19                        @ rt-thread/components/drivers/wlan/wlan_mgnt.c:177:19
	ldr	r0, [sp, #20]
	.loc	3 177 26                        @ rt-thread/components/drivers/wlan/wlan_mgnt.c:177:26
	ldr	r0, [r0, #8]
	.loc	3 177 35                        @ rt-thread/components/drivers/wlan/wlan_mgnt.c:177:35
	cbz	r0, .LBB38_16
	b	.LBB38_14
.LBB38_14:
	.loc	3 177 38                        @ rt-thread/components/drivers/wlan/wlan_mgnt.c:177:38
	ldr	r0, [sp, #16]
	.loc	3 177 45                        @ rt-thread/components/drivers/wlan/wlan_mgnt.c:177:45
	ldr	r0, [r0, #8]
.Ltmp651:
	.loc	3 177 9                         @ rt-thread/components/drivers/wlan/wlan_mgnt.c:177:9
	cbz	r0, .LBB38_16
	b	.LBB38_15
.LBB38_15:
.Ltmp652:
	.loc	3 179 19 is_stmt 1              @ rt-thread/components/drivers/wlan/wlan_mgnt.c:179:19
	ldr	r0, [sp, #20]
	.loc	3 179 26 is_stmt 0              @ rt-thread/components/drivers/wlan/wlan_mgnt.c:179:26
	ldr	r0, [r0, #8]
	.loc	3 179 38                        @ rt-thread/components/drivers/wlan/wlan_mgnt.c:179:38
	ldr	r1, [sp, #16]
	.loc	3 179 45                        @ rt-thread/components/drivers/wlan/wlan_mgnt.c:179:45
	ldr	r1, [r1, #8]
